
MBL.elf:     file format elf32-littleriscv
MBL.elf
architecture: riscv:rv32, flags 0x00000112:
EXEC_P, HAS_SYMS, D_PAGED
start address 0x080011d0

Program Header:
    LOAD off    0x00001000 vaddr 0x08000000 paddr 0x08000000 align 2**12
         filesz 0x00001000 memsz 0x00001000 flags rw-
    LOAD off    0x00002000 vaddr 0x08001000 paddr 0x08001000 align 2**12
         filesz 0x000032b8 memsz 0x000032b8 flags rwx
    LOAD off    0x00005300 vaddr 0x20000300 paddr 0x080042b8 align 2**12
         filesz 0x00000068 memsz 0x00000068 flags rw-
    LOAD off    0x00000368 vaddr 0x20000368 paddr 0x20000368 align 2**12
         filesz 0x00000000 memsz 0x000032ac flags rw-
    LOAD off    0x00000900 vaddr 0x20003900 paddr 0x20003614 align 2**12
         filesz 0x00000000 memsz 0x00001000 flags rw-

Sections:
Idx Name              Size      VMA       LMA       File off  Algn  Flags
  0 .prefix           00001000  08000000  08000000  00001000  2**2  CONTENTS, ALLOC, LOAD, DATA
  1 .init             000002ca  08001000  08001000  00002000  2**2  CONTENTS, ALLOC, LOAD, READONLY, CODE
  2 .ilalign          00000002  080012ca  080012ca  000022ca  2**0  ALLOC
  3 .code_to_sram     00000000  20000300  20000300  00005368  2**0  CONTENTS
  4 .text             00002fb8  08001300  08001300  00002300  2**6  CONTENTS, ALLOC, LOAD, READONLY, CODE
  5 .lalign           00000000  080042b8  080042b8  00005368  2**0  CONTENTS
  6 .dalign           00000000  20000300  20000300  00005368  2**0  CONTENTS
  7 .data             00000068  20000300  080042b8  00005300  2**2  CONTENTS, ALLOC, LOAD, DATA
  8 .bss              000032ac  20000368  20000368  00005368  2**2  ALLOC
  9 .stack            00001000  20003900  20003614  00005900  2**0  ALLOC
 10 .riscv.attributes 0000003f  00000000  00000000  00005368  2**0  CONTENTS, READONLY
 11 .comment          00000012  00000000  00000000  000053a7  2**0  CONTENTS, READONLY
 12 .debug_line       0000a0cd  00000000  00000000  000053b9  2**0  CONTENTS, READONLY, DEBUGGING, OCTETS
 13 .debug_info       00008564  00000000  00000000  0000f486  2**0  CONTENTS, READONLY, DEBUGGING, OCTETS
 14 .debug_abbrev     00001940  00000000  00000000  000179ea  2**0  CONTENTS, READONLY, DEBUGGING, OCTETS
 15 .debug_aranges    00000778  00000000  00000000  00019330  2**3  CONTENTS, READONLY, DEBUGGING, OCTETS
 16 .debug_str        00004a5a  00000000  00000000  00019aa8  2**0  CONTENTS, READONLY, DEBUGGING, OCTETS
 17 .debug_ranges     00000d28  00000000  00000000  0001e508  2**3  CONTENTS, READONLY, DEBUGGING, OCTETS
 18 .debug_loc        00002c23  00000000  00000000  0001f230  2**0  CONTENTS, READONLY, DEBUGGING, OCTETS
 19 .debug_frame      00000f68  00000000  00000000  00021e54  2**2  CONTENTS, READONLY, DEBUGGING, OCTETS
SYMBOL TABLE:
08000000 l    d  .prefix	00000000 .prefix
08001000 l    d  .init	00000000 .init
080012ca l    d  .ilalign	00000000 .ilalign
20000300 l    d  .code_to_sram	00000000 .code_to_sram
08001300 l    d  .text	00000000 .text
080042b8 l    d  .lalign	00000000 .lalign
20000300 l    d  .dalign	00000000 .dalign
20000300 l    d  .data	00000000 .data
20000368 l    d  .bss	00000000 .bss
20003900 l    d  .stack	00000000 .stack
00000000 l    d  .riscv.attributes	00000000 .riscv.attributes
00000000 l    d  .comment	00000000 .comment
00000000 l    d  .debug_line	00000000 .debug_line
00000000 l    d  .debug_info	00000000 .debug_info
00000000 l    d  .debug_abbrev	00000000 .debug_abbrev
00000000 l    d  .debug_aranges	00000000 .debug_aranges
00000000 l    d  .debug_str	00000000 .debug_str
00000000 l    d  .debug_ranges	00000000 .debug_ranges
00000000 l    d  .debug_loc	00000000 .debug_loc
00000000 l    d  .debug_frame	00000000 .debug_frame
00000000 l    df *ABS*	00000000 mbl.c
20000588 l     O .bss	00003000 alloc_buf
00000000 l    df *ABS*	00000000 start.o
08001000 l       .init	00000000 vector_base
00000000 l    df *ABS*	00000000 gd32vw55x_rcu.c
00000000 l    df *ABS*	00000000 handlers.c
080021ec l     F .text	0000004c system_default_exception_handler
20000554 l     O .bss	00000034 SystemExceptionHandlers
00000000 l    df *ABS*	00000000 mbl_image_validate.c
00000000 l    df *ABS*	00000000 findfp.c
08003590 l     F .text	0000006a std
00000000 l    df *ABS*	00000000 nano-vfprintf.c
08003a2c l     F .text	0000002a __sfputc_r
00000000 l    df *ABS*	00000000 nano-vfprintf_i.c
00000000 l    df *ABS*	00000000 entry.o
08001bda l       .text	00000000 Undef_Handler
00000000 l    df *ABS*	00000000 gd32vw55x_eclic.c
00000000 l    df *ABS*	00000000 gd32vw55x_fmc.c
00000000 l    df *ABS*	00000000 gd32vw55x_gpio.c
00000000 l    df *ABS*	00000000 gd32vw55x_usart.c
00000000 l    df *ABS*	00000000 env_init.c
00000000 l    df *ABS*	00000000 init_rom_symbol.c
00000000 l    df *ABS*	00000000 lib_hook_mbl.c
00000000 l    df *ABS*	00000000 system_gd32vw55x.c
08002b12 l     F .text	000000c4 system_clock_160m_40m_hxtal
00000000 l    df *ABS*	00000000 atexit.c
00000000 l    df *ABS*	00000000 fini.c
00000000 l    df *ABS*	00000000 init.c
00000000 l    df *ABS*	00000000 printf.c
00000000 l    df *ABS*	00000000 puts.c
00000000 l    df *ABS*	00000000 wbuf.c
00000000 l    df *ABS*	00000000 wsetup.c
00000000 l    df *ABS*	00000000 __atexit.c
20003588 l     O .bss	0000008c _global_atexit0
00000000 l    df *ABS*	00000000 fflush.c
00000000 l    df *ABS*	00000000 fwalk.c
00000000 l    df *ABS*	00000000 makebuf.c
00000000 l    df *ABS*	00000000 nano-mallocr.c
00000000 l    df *ABS*	00000000 nano-mallocr.c
00000000 l    df *ABS*	00000000 sbrkr.c
00000000 l    df *ABS*	00000000 stdio.c
00000000 l    df *ABS*	00000000 writer.c
00000000 l    df *ABS*	00000000 closer.c
00000000 l    df *ABS*	00000000 fstatr.c
00000000 l    df *ABS*	00000000 isattyr.c
00000000 l    df *ABS*	00000000 lseekr.c
00000000 l    df *ABS*	00000000 memchr.c
00000000 l    df *ABS*	00000000 mlock.c
00000000 l    df *ABS*	00000000 readr.c
00000000 l    df *ABS*	00000000 sbrk.c
20000550 l     O .bss	00000004 heap_end.0
00000000 l    df *ABS*	00000000 impure.c
20000300 l     O .data	00000060 impure_data
00000000 l    df *ABS*	00000000 
080042b8 l       .text	00000000 __fini_array_end
080042b8 l       .text	00000000 __fini_array_start
080042b8 l       .text	00000000 __init_array_end
080042b8 l       .text	00000000 __preinit_array_end
080042b8 l       .text	00000000 __init_array_start
080042b8 l       .text	00000000 __preinit_array_start
0bf52806 g       *ABS*	00000000 mbedtls_cipher_reset
0bf540a4 g       *ABS*	00000000 mbedtls_ctr_drbg_init
2000042c g     O .bss	00000004 mbedtls_internal_sha256_process_fn
20000374 g     O .bss	00000004 mbedtls_ecdsa_genkey_fn
200004f8 g     O .bss	00000004 mbedtls_rsa_rsaes_oaep_encrypt_fn
0bf597fc g       *ABS*	00000000 mbedtls_md5_info
080041f4 g     F .text	00000028 _isatty_r
0800203e g     F .text	0000000e usart_transmit_config
0bf5b72a g       *ABS*	00000000 mbedtls_pem_read_buffer
20000380 g     O .bss	00000004 mbedtls_ecdsa_read_signature_restartable_fn
0bf5cbbe g       *ABS*	00000000 mbedtls_pkcs12_derivation
080030d2 g     F .text	000000da _puts_r
0bf540d2 g       *ABS*	00000000 mbedtls_ctr_drbg_set_prediction_resistance
20000448 g     O .bss	00000004 mbedtls_md5_process_fn
0bf54342 g       *ABS*	00000000 mbedtls_des_free
0800421c g     F .text	0000002c _lseek_r
0bf6da92 g       *ABS*	00000000 mbedtls_mpi_grow
0bf5935a g       *ABS*	00000000 mbedtls_md_starts
0bf60e78 g       *ABS*	00000000 mbedtls_internal_sha512_process
200004e0 g     O .bss	00000004 mbedtls_rsa_pkcs1_sign_fn
0bf5988c g       *ABS*	00000000 mbedtls_sha256_info
0bf4eb32 g       *ABS*	00000000 mbedtls_asn1_get_bitstring_null
0bf54354 g       *ABS*	00000000 mbedtls_des3_init
0bf5449c g       *ABS*	00000000 mbedtls_des_crypt_cbc
0bf58308 g       *ABS*	00000000 mbedtls_hardware_poll
200004ec g     O .bss	00000004 mbedtls_rsa_private_sw_fn
0bf4ef5e g       *ABS*	00000000 mbedtls_asn1_write_tag
08001ca8 g     F .text	0000004e gpio_mode_set
0bf540e6 g       *ABS*	00000000 mbedtls_ctr_drbg_update
0bf54f56 g       *ABS*	00000000 mbedtls_ecdh_init
20000398 g     O .bss	00000004 mbedtls_ecdsa_write_signature_restartable_fn
08003094 g     F .text	0000003e printf
20000b60 g       .data	00000000 __global_pointer$
0bf584a8 g       *ABS*	00000000 mbedtls_gcm_init
08002ef8 g     F .text	00000028 .hidden __riscv_save_8
0bf4e86e g       *ABS*	00000000 mbedtls_asn1_get_len
200003b0 g     O .bss	00000004 mbedtls_ecp_curve_info_from_name_fn
0bf5c9a0 g       *ABS*	00000000 mbedtls_pkcs5_pbes2
0800413c g     F .text	00000034 __sseek
0800364a g     F .text	0000006a __sinit
080031b8 g     F .text	000000c0 __swbuf_r
0bf5c758 g       *ABS*	00000000 mbedtls_eckey_info
0bf5480e g       *ABS*	00000000 mbedtls_dhm_read_params
0bf5831a g       *ABS*	00000000 mbedtls_strerror
20000438 g     O .bss	00000004 mbedtls_md5_finish_ret_fn
08003604 g     F .text	00000046 __sfmoreglue
0bf6dffc g       *ABS*	00000000 mbedtls_mpi_write_binary
08004264 g     F .text	00000002 __malloc_unlock
0bf66db6 g       *ABS*	00000000 mbedtls_x509write_crt_set_key_usage
08002f44 g     F .text	0000000c .hidden __riscv_restore_3
0bf5ec38 g       *ABS*	00000000 mbedtls_rsa_deduce_primes
0bf60c8a g       *ABS*	00000000 mbedtls_sha1_ret
0bf66a8e g       *ABS*	00000000 mbedtls_x509write_crt_set_version
0bf4ec66 g       *ABS*	00000000 mbedtls_asn1_get_alg
0bf6e7b6 g       *ABS*	00000000 mbedtls_mpi_sub_int
0bf4f306 g       *ABS*	00000000 mbedtls_asn1_write_ia5_string
0bf4e97c g       *ABS*	00000000 mbedtls_asn1_get_bool
08002f30 g     F .text	00000020 .hidden __riscv_restore_10
0bf4e40a g       *ABS*	00000000 mbedtls_aes_free
08001bf0 g     F .text	00000024 eclic_priority_group_set
20000360 g     O .data	00000004 p_rom_api
0bf62108 g       *ABS*	00000000 mbedtls_sha512_ret
0bf58c28 g       *ABS*	00000000 mbedtls_hkdf_extract
200004c0 g     O .bss	00000004 mbedtls_rsa_free_fn
0bf54a46 g       *ABS*	00000000 mbedtls_dhm_make_public
08002ef8 g     F .text	00000028 .hidden __riscv_save_11
0bf66a9a g       *ABS*	00000000 mbedtls_x509write_crt_set_issuer_key
0bf58ed6 g       *ABS*	00000000 mbedtls_hmac_drbg_seed_buf
0bf5b722 g       *ABS*	00000000 mbedtls_pem_init
0bf6dab0 g       *ABS*	00000000 mbedtls_mpi_shrink
0bf52d84 g       *ABS*	00000000 mbedtls_cipher_auth_encrypt
0bf59dea g       *ABS*	00000000 mbedtls_oid_get_extended_key_usage
0bf60c86 g       *ABS*	00000000 mbedtls_sha1_finish
20000430 g     O .bss	00000004 mbedtls_md5_clone_fn
0bf64e1a g       *ABS*	00000000 mbedtls_x509_crt_info
0bf5e79c g       *ABS*	00000000 mbedtls_pk_write_pubkey_pem
20000484 g     O .bss	00000004 mbedtls_mpi_is_prime_fn
08001c36 g     F .text	0000000e fmc_lock
0bf5be56 g       *ABS*	00000000 mbedtls_pk_can_do
0bf60d08 g       *ABS*	00000000 mbedtls_sha256
0bf54596 g       *ABS*	00000000 mbedtls_des3_crypt_cbc
0bf5c13a g       *ABS*	00000000 mbedtls_pk_get_type
200003d8 g     O .bss	00000004 mbedtls_ecp_grp_id_list_fn
20000538 g     O .bss	00000004 mbedtls_sha256_update_fn
080041ca g     F .text	0000002a _fstat_r
0bf540ae g       *ABS*	00000000 mbedtls_ctr_drbg_free
0bf5422a g       *ABS*	00000000 mbedtls_ctr_drbg_random_with_add
0bf4f406 g       *ABS*	00000000 mbedtls_asn1_write_octet_string
2000054c g     O .bss	00000004 errno
08001dea g     F .text	00000176 rcu_clock_freq_get
0bf63d5e g       *ABS*	00000000 mbedtls_x509_crl_parse
0bf668a8 g       *ABS*	00000000 mbedtls_x509_csr_free
00001000 g       *ABS*	00000000 __stack_size
200004a8 g     O .bss	00000004 mbedtls_rsa_check_pubkey_fn
0bf5939c g       *ABS*	00000000 mbedtls_md
0bf5ebec g       *ABS*	00000000 mbedtls_platform_setup
0bf5592a g       *ABS*	00000000 mbedtls_ecjpake_read_round_one
0bf5f314 g       *ABS*	00000000 mbedtls_sha1_starts_ret
2000039c g     O .bss	00000004 mbedtls_ecp_check_privkey_fn
0bf54f50 g       *ABS*	00000000 mbedtls_ecdh_gen_public
0bf632d0 g       *ABS*	00000000 mbedtls_x509_set_extension
0bf4e958 g       *ABS*	00000000 mbedtls_asn1_get_tag
0bf540d6 g       *ABS*	00000000 mbedtls_ctr_drbg_set_entropy_len
080020a4 g     F .text	00000022 Exception_Register_EXC
0bf6e192 g       *ABS*	00000000 mbedtls_mpi_shift_r
0bf543c4 g       *ABS*	00000000 mbedtls_des3_set2key_enc
0bf50f80 g       *ABS*	00000000 mbedtls_camellia_init
0bf60d22 g       *ABS*	00000000 mbedtls_sha512_clone
0bf66aa4 g       *ABS*	00000000 mbedtls_x509write_crt_set_issuer_name
08002f44 g     F .text	0000000c .hidden __riscv_restore_2
0bf54334 g       *ABS*	00000000 mbedtls_ctr_drbg_random
0bf5e2a6 g       *ABS*	00000000 mbedtls_pk_write_pubkey
0bf4e544 g       *ABS*	00000000 mbedtls_aes_crypt_cfb128
0bf62e60 g       *ABS*	00000000 mbedtls_x509_serial_gets
0bf6de1e g       *ABS*	00000000 mbedtls_mpi_get_bit
0bf6df66 g       *ABS*	00000000 mbedtls_mpi_read_binary
0bf65548 g       *ABS*	00000000 mbedtls_x509_crt_verify_info
20000450 g     O .bss	00000004 mbedtls_md5_starts_fn
20000410 g     O .bss	00000004 mbedtls_ecp_set_zero_fn
0bf60cc2 g       *ABS*	00000000 mbedtls_sha256_ret
0bf655fa g       *ABS*	00000000 mbedtls_x509_crt_check_key_usage
0bf4f1f2 g       *ABS*	00000000 mbedtls_asn1_write_int
0bf5f2f6 g       *ABS*	00000000 mbedtls_sha1_init
0bf5ef38 g       *ABS*	00000000 mbedtls_rsa_validate_crt
0bf6e7e0 g       *ABS*	00000000 mbedtls_mpi_mul_mpi_sw
0bf5269c g       *ABS*	00000000 mbedtls_cipher_info_from_values
0bf4e9dc g       *ABS*	00000000 mbedtls_asn1_get_int
0bf624b0 g       *ABS*	00000000 mbedtls_x509_get_serial
08001c94 g     F .text	00000014 fmc_offset_value_config
0bf541b2 g       *ABS*	00000000 mbedtls_ctr_drbg_seed_entropy_len
0bf5589a g       *ABS*	00000000 mbedtls_ecjpake_free
0bf64050 g       *ABS*	00000000 mbedtls_x509_crl_init
0bf5f352 g       *ABS*	00000000 mbedtls_sha1_starts
0bf60b12 g       *ABS*	00000000 mbedtls_sha1_process
20000384 g     O .bss	00000004 mbedtls_ecdsa_sign_det_fn
08002034 g     F .text	0000000a usart_enable
0bf52652 g       *ABS*	00000000 mbedtls_cipher_info_from_string
080035fa g     F .text	0000000a _cleanup_r
0bf59080 g       *ABS*	00000000 mbedtls_hmac_drbg_random_with_add
0bf66a32 g       *ABS*	00000000 mbedtls_x509write_crt_init
0bf64cba g       *ABS*	00000000 mbedtls_x509_crt_parse_der_nocopy
080031ac g     F .text	0000000c puts
20000460 g     O .bss	00000004 mbedtls_mpi_div_int_fn
0800208a g     F .text	0000001a Exception_Init
0bf54552 g       *ABS*	00000000 mbedtls_des3_crypt_ecb
08002076 g     F .text	00000014 usart_interrupt_enable
20000494 g     O .bss	00000004 mbedtls_mpi_mul_mpi_fn
0bf4e7a2 g       *ABS*	00000000 mbedtls_arc4_free
0bf52370 g       *ABS*	00000000 mbedtls_ccm_star_auth_decrypt
0bf5eaf8 g       *ABS*	00000000 mbedtls_platform_set_printf
08001dce g     F .text	0000001c rcu_periph_reset_disable
08002b02 g     F .text	00000004 _fstat
200003b8 g     O .bss	00000004 mbedtls_ecp_curve_list_fn
0bf558a2 g       *ABS*	00000000 mbedtls_ecjpake_setup
0800226c g     F .text	00000892 rom_symbol_init
0bf4e432 g       *ABS*	00000000 mbedtls_aes_setkey_dec
08002ef0 g     F .text	00000030 .hidden __riscv_save_12
2000045c g     O .bss	00000004 mbedtls_md5_update_ret_fn
0bf55bc6 g       *ABS*	00000000 mbedtls_ecjpake_write_round_two
0bf63314 g       *ABS*	00000000 mbedtls_x509_write_names
200003dc g     O .bss	00000004 mbedtls_ecp_is_zero_fn
08001a00  w      .text	00000000 exc_entry
08001afc  w      .text	00000000 irq_entry
0bf672e0 g       *ABS*	00000000 mbedtls_x509write_csr_set_md_alg
0bf52342 g       *ABS*	00000000 mbedtls_ccm_encrypt_and_tag
0bf59d26 g       *ABS*	00000000 mbedtls_oid_get_attr_short_name
20000404 g     O .bss	00000004 mbedtls_ecp_point_read_binary_fn
08002f30 g     F .text	00000020 .hidden __riscv_restore_11
0bf4ed42 g       *ABS*	00000000 mbedtls_asn1_get_alg_null
0bf51518 g       *ABS*	00000000 mbedtls_camellia_setkey_dec
2000037c g     O .bss	00000004 mbedtls_ecdsa_read_signature_fn
200004bc g     O .bss	00000004 mbedtls_rsa_export_raw_fn
08001c66 g     F .text	0000000e ob_lock
0bf67210 g       *ABS*	00000000 mbedtls_x509write_crt_pem
0bf628a4 g       *ABS*	00000000 mbedtls_x509_get_time
0800409c g     F .text	00000026 _sbrk_r
08002f20 g     F .text	0000000c .hidden __riscv_save_1
0bf6def2 g       *ABS*	00000000 mbedtls_mpi_bitlen
20000400 g     O .bss	00000004 mbedtls_ecp_point_init_fn
0bf598ec g       *ABS*	00000000 mbedtls_sha512_info
08002f44 g     F .text	0000000c .hidden __riscv_restore_0
08001bda  w      .text	00000000 default_intexc_handler
0bf5702a g       *ABS*	00000000 mbedtls_ecp_curve_val_init
0bf60d16 g       *ABS*	00000000 mbedtls_sha512_free
08004266 g     F .text	0000002c _read_r
0bf5a098 g       *ABS*	00000000 mbedtls_oid_get_md_alg
08002f06 g     F .text	0000001a .hidden __riscv_save_7
0bf5be68 g       *ABS*	00000000 mbedtls_pk_verify_restartable
200004e8 g     O .bss	00000004 mbedtls_rsa_private_fn
08000000 g     O .prefix	00001000 compat_prefix
0bf540de g       *ABS*	00000000 mbedtls_ctr_drbg_update_ret
08002ce2 g     F .text	0000010c boot_image_find
0bf54d20 g       *ABS*	00000000 mbedtls_dhm_free
0bf52de0 g       *ABS*	00000000 mbedtls_cipher_auth_decrypt
0bf67912 g       *ABS*	00000000 mbedtls_xtea_crypt_cbc
200003f4 g     O .bss	00000004 mbedtls_ecp_muladd_restartable_fn
20000498 g     O .bss	00000004 mbedtls_mpi_read_string_fn
0bf6da52 g       *ABS*	00000000 mbedtls_mpi_init
0bf55d0a g       *ABS*	00000000 mbedtls_ecjpake_derive_secret
0bf5d04a g       *ABS*	00000000 mbedtls_pkcs12_pbe
0bf6debc g       *ABS*	00000000 mbedtls_mpi_lsb
0bf59eaa g       *ABS*	00000000 mbedtls_oid_get_oid_by_sig_alg
0bf526d6 g       *ABS*	00000000 mbedtls_cipher_free
0bf59cca g       *ABS*	00000000 mbedtls_memory_buffer_alloc_free
0bf5dcb2 g       *ABS*	00000000 mbedtls_pk_parse_key
08002b06 g     F .text	00000004 _isatty
0bf5a212 g       *ABS*	00000000 mbedtls_oid_get_numeric_string
200003d0 g     O .bss	00000004 mbedtls_ecp_group_free_fn
0bf58f3c g       *ABS*	00000000 mbedtls_hmac_drbg_reseed
080042b4 g     O .text	00000004 _global_impure_ptr
08002f3a g     F .text	00000016 .hidden __riscv_restore_5
08002f8e g     F .text	0000005e __libc_init_array
0bf5bd7a g       *ABS*	00000000 mbedtls_pk_free
200003bc g     O .bss	00000004 mbedtls_ecp_gen_key_fn
0bf5c126 g       *ABS*	00000000 mbedtls_pk_get_name
0bf66a58 g       *ABS*	00000000 mbedtls_x509write_crt_free
0bf6e694 g       *ABS*	00000000 mbedtls_mpi_add_mpi
0bf559c6 g       *ABS*	00000000 mbedtls_ecjpake_write_round_one
0bf62168 g       *ABS*	00000000 mbedtls_sha512
0bf65c02 g       *ABS*	00000000 mbedtls_x509_crt_verify_with_profile
08004292 g     F .text	00000020 _sbrk
0bf4f194 g       *ABS*	00000000 mbedtls_asn1_write_bool
0bf59078 g       *ABS*	00000000 mbedtls_hmac_drbg_set_entropy_len
200004c8 g     O .bss	00000004 mbedtls_rsa_get_len_fn
08001cf6 g     F .text	00000048 gpio_output_options_set
0bf59074 g       *ABS*	00000000 mbedtls_hmac_drbg_set_prediction_resistance
08002268 g     F .text	00000002 _init
0bf59f48 g       *ABS*	00000000 mbedtls_oid_get_oid_by_pk_alg
0bf515ea g       *ABS*	00000000 mbedtls_camellia_crypt_ecb
0bf5c062 g       *ABS*	00000000 mbedtls_pk_decrypt
0bf66cba g       *ABS*	00000000 mbedtls_x509write_crt_set_authority_key_identifier
0bf54440 g       *ABS*	00000000 mbedtls_des3_set3key_dec
0bf584b2 g       *ABS*	00000000 mbedtls_gcm_setkey
0bf64cde g       *ABS*	00000000 mbedtls_x509_crt_parse
0bf4efb2 g       *ABS*	00000000 mbedtls_asn1_write_mpi
0bf5583e g       *ABS*	00000000 mbedtls_ecjpake_init
0bf6e714 g       *ABS*	00000000 mbedtls_mpi_sub_mpi
08002f3a g     F .text	00000016 .hidden __riscv_restore_6
2000050c g     O .bss	00000004 mbedtls_rsa_rsassa_pss_sign_fn
0bf59654 g       *ABS*	00000000 mbedtls_md_get_name
0bf64ccc g       *ABS*	00000000 mbedtls_x509_crt_parse_der
0bf5eb86 g       *ABS*	00000000 mbedtls_time
08002f5a g     F .text	00000034 __libc_fini_array
0bf672fa g       *ABS*	00000000 mbedtls_x509write_csr_set_key_usage
0bf54b22 g       *ABS*	00000000 mbedtls_dhm_calc_secret
0bf54224 g       *ABS*	00000000 mbedtls_ctr_drbg_seed
0bf550ea g       *ABS*	00000000 mbedtls_ecdh_get_params
0bf4eab2 g       *ABS*	00000000 mbedtls_asn1_get_bitstring
200003a8 g     O .bss	00000004 mbedtls_ecp_copy_fn
0bf4f47c g       *ABS*	00000000 mbedtls_asn1_store_named_data
0bf6309a g       *ABS*	00000000 mbedtls_x509_time_is_past
0bf5a0fa g       *ABS*	00000000 mbedtls_oid_get_oid_by_md
0bf586a4 g       *ABS*	00000000 mbedtls_gcm_starts
0bf59d88 g       *ABS*	00000000 mbedtls_oid_get_x509_ext_type
200003c8 g     O .bss	00000004 mbedtls_ecp_gen_privkey_fn
200003a4 g     O .bss	00000004 mbedtls_ecp_check_pubkey_fn
0bf672e4 g       *ABS*	00000000 mbedtls_x509write_csr_set_key
20000514 g     O .bss	00000004 mbedtls_rsa_rsassa_pss_verify_fn
0bf522a4 g       *ABS*	00000000 mbedtls_ccm_setkey
0bf5bb86 g       *ABS*	00000000 mbedtls_pem_free
0bf4f2fe g       *ABS*	00000000 mbedtls_asn1_write_printable_string
20000388 g     O .bss	00000004 mbedtls_ecdsa_sign_fn
0bf540f8 g       *ABS*	00000000 mbedtls_ctr_drbg_reseed
0bf6ddda g       *ABS*	00000000 mbedtls_mpi_lset
0bf5bbb2 g       *ABS*	00000000 mbedtls_pem_write_buffer
0bf4f3c8 g       *ABS*	00000000 mbedtls_asn1_write_named_bitstring
0bf52c74 g       *ABS*	00000000 mbedtls_cipher_write_tag
0bf62f70 g       *ABS*	00000000 mbedtls_x509_sig_alg_gets
200004f4 g     O .bss	00000004 mbedtls_rsa_rsaes_oaep_decrypt_fn
20000378 g     O .bss	00000004 mbedtls_ecdsa_init_fn
08002238 g     F .text	0000002e _premain_init
200004fc g     O .bss	00000004 mbedtls_rsa_rsaes_pkcs1_v15_decrypt_fn
08002cb2 g     F .text	00000028 flash_offset_mapping
0bf5a140 g       *ABS*	00000000 mbedtls_oid_get_md_hmac
200004c4 g     O .bss	00000004 mbedtls_rsa_gen_key_fn
08002ef8 g     F .text	00000028 .hidden __riscv_save_9
0800204c g     F .text	0000000e usart_receive_config
200003ac g     O .bss	00000004 mbedtls_ecp_curve_info_from_grp_id_fn
0bf5bede g       *ABS*	00000000 mbedtls_pk_verify_ext
0bf5229a g       *ABS*	00000000 mbedtls_ccm_init
0bf4f278 g       *ABS*	00000000 mbedtls_asn1_write_tagged_string
0bf5f048 g       *ABS*	00000000 mbedtls_rsa_validate_params
08001648 g     O .text	00000020 __sf_fake_stderr
0bf5ec00 g       *ABS*	00000000 mbedtls_platform_teardown
08002f06 g     F .text	0000001a .hidden __riscv_save_4
0bf52300 g       *ABS*	00000000 mbedtls_ccm_free
0bf5275e g       *ABS*	00000000 mbedtls_cipher_setkey
0bf638c2 g       *ABS*	00000000 mbedtls_x509_crl_parse_der
0bf61dea g       *ABS*	00000000 mbedtls_sha512_process
0bf5c0ec g       *ABS*	00000000 mbedtls_pk_get_bitlen
200003fc g     O .bss	00000004 mbedtls_ecp_point_free_fn
20003618 g       .bss	00000000 end
2000048c g     O .bss	00000004 mbedtls_mpi_mod_mpi_fn
2000038c g     O .bss	00000004 mbedtls_ecdsa_verify_fn
0bf672e8 g       *ABS*	00000000 mbedtls_x509write_csr_set_subject_name
0bf5c7b8 g       *ABS*	00000000 mbedtls_ed25519_info
0bf6dc50 g       *ABS*	00000000 mbedtls_mpi_safe_cond_assign
20000394 g     O .bss	00000004 mbedtls_ecdsa_write_signature_fn
0bf4e41c g       *ABS*	00000000 mbedtls_aes_setkey_enc
0bf5284c g       *ABS*	00000000 mbedtls_cipher_update
0bf5928c g       *ABS*	00000000 mbedtls_md_init
0bf54876 g       *ABS*	00000000 mbedtls_dhm_make_params
0bf5a1a2 g       *ABS*	00000000 mbedtls_oid_get_pkcs12_pbe_alg
200003e4 g     O .bss	00000004 mbedtls_ecp_keypair_init_fn
2000046c g     O .bss	00000004 mbedtls_mpi_exp_mod_sw_fn
0bf5ec30 g       *ABS*	00000000 mbedtls_platform_zeroize
08003a56 g     F .text	00000042 __sfputs_r
0bf6e230 g       *ABS*	00000000 mbedtls_mpi_cmp_abs
0bf5bed8 g       *ABS*	00000000 mbedtls_pk_verify
0bf55910 g       *ABS*	00000000 mbedtls_ecjpake_check
20000510 g     O .bss	00000004 mbedtls_rsa_rsassa_pss_verify_ext_fn
08004248 g     F .text	0000001a memchr
080038b8 g     F .text	000000a2 _free_r
2000043c g     O .bss	00000004 mbedtls_md5_fn
20000540 g     O .bss	00000004 _global_atexit
0bf5818a g       *ABS*	00000000 mbedtls_entropy_free
08002f20 g     F .text	0000000c .hidden __riscv_save_3
0bf4f30e g       *ABS*	00000000 mbedtls_asn1_write_bitstring
0bf61df8 g       *ABS*	00000000 mbedtls_sha512_update
20004900 g       .stack	00000000 _sp
080020c6 g     F .text	0000004a core_exception_handler
0bf6d9e2 g       *ABS*	00000000 mbedtls_mpi_dump
0bf526fe g       *ABS*	00000000 mbedtls_cipher_setup
20000454 g     O .bss	00000004 mbedtls_md5_starts_ret_fn
0bf6e4d6 g       *ABS*	00000000 mbedtls_mpi_cmp_int
080011d0 g     F .init	00000000 _start
08001d9e g     F .text	00000018 rcu_periph_clock_enable
0bf6568c g       *ABS*	00000000 mbedtls_x509_crt_is_revoked
0bf60d2a g       *ABS*	00000000 mbedtls_sha512_starts_ret
20000524 g     O .bss	00000004 mbedtls_sha256_finish_ret_fn
0bf5c874 g       *ABS*	00000000 mbedtls_pkcs5_pbkdf2_hmac
08002b0a g     F .text	00000004 _lseek
0bf65c1c g       *ABS*	00000000 mbedtls_x509_crt_free
0bf58124 g       *ABS*	00000000 mbedtls_entropy_init
0bf59c46 g       *ABS*	00000000 mbedtls_memory_buffer_alloc_init
0bf630fc g       *ABS*	00000000 mbedtls_x509_string_to_names
0bf4e798 g       *ABS*	00000000 mbedtls_arc4_init
0800337e g     F .text	00000074 __register_exitproc
20000468 g     O .bss	00000004 mbedtls_mpi_exp_mod_fn
2000047c g     O .bss	00000004 mbedtls_mpi_inv_mod_fn
0bf4f2f6 g       *ABS*	00000000 mbedtls_asn1_write_utf8_string
0bf5a036 g       *ABS*	00000000 mbedtls_oid_get_cipher_alg
0bf55092 g       *ABS*	00000000 mbedtls_ecdh_read_params
0bf6689e g       *ABS*	00000000 mbedtls_x509_csr_init
0bf6db62 g       *ABS*	00000000 mbedtls_mpi_copy
0bf66ab0 g       *ABS*	00000000 mbedtls_x509write_crt_set_validity
0bf5479c g       *ABS*	00000000 mbedtls_dhm_free.part.0
08001c14 g     F .text	00000022 fmc_unlock
200004e4 g     O .bss	00000004 mbedtls_rsa_pkcs1_verify_fn
0bf54426 g       *ABS*	00000000 mbedtls_des3_set3key_enc
2000053c g     O .bss	00000004 mbedtls_sha256_update_ret_fn
0bf66e66 g       *ABS*	00000000 mbedtls_x509write_crt_der
080012cc g       *ABS*	00000000 _sicode
0bf54392 g       *ABS*	00000000 mbedtls_des_setkey_enc
0bf60b20 g       *ABS*	00000000 mbedtls_sha1_update
0bf5e81a g       *ABS*	00000000 mbedtls_pk_write_key_pem
0bf6dc1c g       *ABS*	00000000 mbedtls_mpi_swap
200003d4 g     O .bss	00000004 mbedtls_ecp_group_init_fn
2000036c g     O .bss	00000004 mbedtls_ecdsa_free_fn
0bf65f60 g       *ABS*	00000000 mbedtls_x509_crt_profile_suiteb
20000470 g     O .bss	00000004 mbedtls_mpi_fill_random_fn
0bf5f38e g       *ABS*	00000000 mbedtls_internal_sha1_process
0bf551d4 g       *ABS*	00000000 mbedtls_ecdh_read_public
0bf54a1a g       *ABS*	00000000 mbedtls_dhm_read_public
08002dee g     F .text	00000102 image_x_validate
0bf4ee36 g       *ABS*	00000000 mbedtls_asn1_write_len
080041a2 g     F .text	00000028 _close_r
20000440 g     O .bss	00000004 mbedtls_md5_free_fn
20000518 g     O .bss	00000004 mbedtls_rsa_set_padding_fn
0bf594bc g       *ABS*	00000000 mbedtls_md_hmac_update
0bf6778c g       *ABS*	00000000 mbedtls_xtea_setup
0bf6e0b6 g       *ABS*	00000000 mbedtls_mpi_shift_l
0bf6e400 g       *ABS*	00000000 mbedtls_mpi_cmp_mpi
0bf58958 g       *ABS*	00000000 mbedtls_gcm_finish
0bf582fc g       *ABS*	00000000 mbedtls_platform_set_hardware_poll
20000434 g     O .bss	00000004 mbedtls_md5_finish_fn
0bf5706a g       *ABS*	00000000 mbedtls_ecp_group_load
0bf4f098 g       *ABS*	00000000 mbedtls_asn1_write_oid
0bf540da g       *ABS*	00000000 mbedtls_ctr_drbg_set_reseed_interval
0bf54d28 g       *ABS*	00000000 mbedtls_dhm_parse_dhm
20000480 g     O .bss	00000004 mbedtls_mpi_is_prime_ext_fn
08003278 g     F .text	00000106 __swsetup_r
0bf59e76 g       *ABS*	00000000 mbedtls_oid_get_sig_alg
0bf6e500 g       *ABS*	00000000 mbedtls_mpi_add_abs
0bf5500e g       *ABS*	00000000 mbedtls_ecdh_make_params
080036b4 g     F .text	0000009e __sfp
0bf6777a g       *ABS*	00000000 mbedtls_xtea_init
08001fbe g     F .text	00000076 usart_baudrate_set
0bf581f2 g       *ABS*	00000000 mbedtls_entropy_gather
0bf54f52 g       *ABS*	00000000 mbedtls_ecdh_compute_shared
0bf5231e g       *ABS*	00000000 mbedtls_ccm_star_encrypt_and_tag
0bf59628 g       *ABS*	00000000 mbedtls_md_process
0bf63064 g       *ABS*	00000000 mbedtls_x509_key_size_helper
08002ef8 g     F .text	00000028 .hidden __riscv_save_10
080040c2 g     F .text	0000002e __sread
0bf592fa g       *ABS*	00000000 mbedtls_md_setup
0bf634b0 g       *ABS*	00000000 mbedtls_x509_write_extensions
0bf672bc g       *ABS*	00000000 mbedtls_x509write_csr_free
0bf65be2 g       *ABS*	00000000 mbedtls_x509_crt_verify
20000390 g     O .bss	00000004 mbedtls_ecdsa_write_signature_det_fn
0bf5ea58 g       *ABS*	00000000 mbedtls_platform_set_calloc_free
200004ac g     O .bss	00000004 mbedtls_rsa_complete_fn
08004262 g     F .text	00000002 __malloc_lock
0bf5db6a g       *ABS*	00000000 mbedtls_pk_parse_subpubkey
0bf66e1e g       *ABS*	00000000 mbedtls_x509write_crt_set_ns_cert_type
08002f3a g     F .text	00000016 .hidden __riscv_restore_4
0bf52c9c g       *ABS*	00000000 mbedtls_cipher_check_tag
0bf59178 g       *ABS*	00000000 mbedtls_hmac_drbg_free
08002f30 g     F .text	00000020 .hidden __riscv_restore_8
0800352c g     F .text	00000064 _fflush_r
08002f06 g     F .text	0000001a .hidden __riscv_save_6
0bf52d12 g       *ABS*	00000000 mbedtls_cipher_crypt
0bf5c086 g       *ABS*	00000000 mbedtls_pk_encrypt
0bf54fa6 g       *ABS*	00000000 mbedtls_ecdh_setup
0bf656d6 g       *ABS*	00000000 mbedtls_x509_crt_verify_restartable
08001668 g     O .text	00000020 __sf_fake_stdin
0bf59386 g       *ABS*	00000000 mbedtls_md_finish
20000368 g       .bss	00000000 __bss_start
0bf5e9ee g       *ABS*	00000000 mbedtls_calloc
0bf58ed2 g       *ABS*	00000000 mbedtls_hmac_drbg_update
08002fec g     F .text	000000a8 memset
0bf59196 g       *ABS*	00000000 mbedtls_md_list
08001c74 g     F .text	00000020 fmc_offset_region_config
0800205a g     F .text	00000008 usart_data_transmit
0bf5c052 g       *ABS*	00000000 mbedtls_pk_sign
08002f30 g     F .text	00000020 .hidden __riscv_restore_9
08002f3a g     F .text	00000016 .hidden __riscv_restore_7
0800173c g     F .text	000002ae main
0bf518e8 g       *ABS*	00000000 mbedtls_camellia_crypt_cfb128
0bf5ebcc g       *ABS*	00000000 mbedtls_platform_set_time
0bf5391c g       *ABS*	00000000 mbedtls_cipher_definitions
0bf55160 g       *ABS*	00000000 mbedtls_ecdh_make_public
0bf61e00 g       *ABS*	00000000 mbedtls_sha512_finish_ret
0bf5964a g       *ABS*	00000000 mbedtls_md_get_type
08004170 g     F .text	00000006 __sclose
0bf672ee g       *ABS*	00000000 mbedtls_x509write_csr_set_extension
200004b0 g     O .bss	00000004 mbedtls_rsa_copy_fn
0bf66a96 g       *ABS*	00000000 mbedtls_x509write_crt_set_subject_key
0bf59e4c g       *ABS*	00000000 mbedtls_oid_get_sig_alg_desc
0bf58aac g       *ABS*	00000000 mbedtls_gcm_crypt_and_tag
0bf50f8a g       *ABS*	00000000 mbedtls_camellia_free
0800395a g     F .text	000000d2 _malloc_r
200004d4 g     O .bss	00000004 mbedtls_rsa_init_fn
20000530 g     O .bss	00000004 mbedtls_sha256_starts_fn
0bf58b12 g       *ABS*	00000000 mbedtls_gcm_auth_decrypt
0bf62c4a g       *ABS*	00000000 mbedtls_x509_get_ext
0bf594d6 g       *ABS*	00000000 mbedtls_md_hmac_finish
0bf4e400 g       *ABS*	00000000 mbedtls_aes_init
0bf526cc g       *ABS*	00000000 mbedtls_cipher_init
0bf5bd9e g       *ABS*	00000000 mbedtls_pk_info_from_type
0bf62778 g       *ABS*	00000000 mbedtls_x509_get_name
0bf672b4 g       *ABS*	00000000 mbedtls_x509write_csr_init
20000500 g     O .bss	00000004 mbedtls_rsa_rsaes_pkcs1_v15_encrypt_fn
0bf5c788 g       *ABS*	00000000 mbedtls_eckeydh_info
0bf52628 g       *ABS*	00000000 mbedtls_cipher_info_from_type
0bf5c7e8 g       *ABS*	00000000 mbedtls_rsa_alt_info
0bf525e2 g       *ABS*	00000000 mbedtls_cipher_list
200003f0 g     O .bss	00000004 mbedtls_ecp_muladd_fn
08002bd6 g     F .text	0000006e SystemInit
200003ec g     O .bss	00000004 mbedtls_ecp_mul_restartable_fn
0bf676c4 g       *ABS*	00000000 mbedtls_x509write_csr_pem
0bf61dee g       *ABS*	00000000 mbedtls_sha512_update_ret
0bf59354 g       *ABS*	00000000 mbedtls_md_init_ctx
0bf677d8 g       *ABS*	00000000 mbedtls_xtea_crypt_ecb
0800226a g     F .text	00000002 _fini
0bf591a0 g       *ABS*	00000000 mbedtls_md_info_from_string
08003094 g     F .text	0000003e iprintf
0bf6254e g       *ABS*	00000000 mbedtls_x509_get_rsassa_pss_params
0bf60b16 g       *ABS*	00000000 mbedtls_sha1_update_ret
0bf63e16 g       *ABS*	00000000 mbedtls_x509_crl_info
0bf62104 g       *ABS*	00000000 mbedtls_sha512_finish
0bf4edec g       *ABS*	00000000 mbedtls_asn1_find_named_data
0bf6309e g       *ABS*	00000000 mbedtls_x509_time_is_future
0bf5eab2 g       *ABS*	00000000 mbedtls_platform_set_snprintf
20000520 g     O .bss	00000004 mbedtls_sha256_finish_fn
08001f60 g     F .text	0000005e usart_deinit
0bf4e71e g       *ABS*	00000000 mbedtls_aes_crypt_ofb
0bf6e78c g       *ABS*	00000000 mbedtls_mpi_add_int
08002f50 g     F .text	0000000a atexit
0bf4edb0 g       *ABS*	00000000 mbedtls_asn1_free_named_data_list
08004176 g     F .text	0000002c _write_r
0bf66a92 g       *ABS*	00000000 mbedtls_x509write_crt_set_md_alg
0bf517f8 g       *ABS*	00000000 mbedtls_camellia_crypt_cbc
2000044c g     O .bss	00000004 mbedtls_md5_ret_fn
20000474 g     O .bss	00000004 mbedtls_mpi_gcd_fn
0bf5c0fe g       *ABS*	00000000 mbedtls_pk_debug
20000420 g     O .bss	00000004 mbedtls_ecp_tls_write_group_fn
0bf5985c g       *ABS*	00000000 mbedtls_sha224_info
0bf60b28 g       *ABS*	00000000 mbedtls_sha1_finish_ret
0bf5ea2a g       *ABS*	00000000 mbedtls_free
0bf5ec12 g       *ABS*	00000000 mbedtls_hwpka_flag_set
20000528 g     O .bss	00000004 mbedtls_sha256_free_fn
0bf581e8 g       *ABS*	00000000 mbedtls_entropy_update_manual
08003d26 g     F .text	0000010a _printf_common
20000364 g     O .data	00000004 _impure_ptr
08001db6 g     F .text	00000018 rcu_periph_reset_enable
080033f2 g     F .text	0000013a __sflush_r
20000414 g     O .bss	00000004 mbedtls_ecp_tls_read_group_fn
0bf54fbe g       *ABS*	00000000 mbedtls_ecdh_free
08002c98 g     F .text	0000001a log_uart_idle_wait
0bf549be g       *ABS*	00000000 mbedtls_dhm_set_group
200003e0 g     O .bss	00000004 mbedtls_ecp_keypair_free_fn
0bf5199e g       *ABS*	00000000 mbedtls_camellia_crypt_ctr
0bf59ee6 g       *ABS*	00000000 mbedtls_oid_get_pk_alg
0bf62cbc g       *ABS*	00000000 mbedtls_x509_dn_gets
200004d8 g     O .bss	00000004 mbedtls_rsa_pkcs1_decrypt_fn
20000300 g       .dalign	00000000 _data
0bf58da6 g       *ABS*	00000000 mbedtls_hkdf
0bf6251e g       *ABS*	00000000 mbedtls_x509_get_alg_null
0bf5e48e g       *ABS*	00000000 mbedtls_pk_write_key_der
20000444 g     O .bss	00000004 mbedtls_md5_init_fn
0bf66b1e g       *ABS*	00000000 mbedtls_x509write_crt_set_basic_constraints
200004a0 g     O .bss	00000004 mbedtls_rsa_check_privkey_fn
0bf58fda g       *ABS*	00000000 mbedtls_hmac_drbg_seed
0bf5f30c g       *ABS*	00000000 mbedtls_sha1_clone
08002f20 g     F .text	0000000c .hidden __riscv_save_2
0bf6df54 g       *ABS*	00000000 mbedtls_mpi_size
0bf5435c g       *ABS*	00000000 mbedtls_des3_free
0bf66b16 g       *ABS*	00000000 mbedtls_x509write_crt_set_extension
0bf5281a g       *ABS*	00000000 mbedtls_cipher_update_ad
0bf6676a g       *ABS*	00000000 mbedtls_x509_csr_info
0bf4e434 g       *ABS*	00000000 mbedtls_aes_crypt_ecb
08002110 g     F .text	00000084 Exception_DumpFrame
0bf5f300 g       *ABS*	00000000 mbedtls_sha1_free
0bf4e688 g       *ABS*	00000000 mbedtls_aes_crypt_ctr
0bf4ea56 g       *ABS*	00000000 mbedtls_asn1_get_mpi
0bf6de3e g       *ABS*	00000000 mbedtls_mpi_set_bit
0bf4f67c g       *ABS*	00000000 mbedtls_base64_decode
0bf5982c g       *ABS*	00000000 mbedtls_sha1_info
2000051c g     O .bss	00000004 mbedtls_sha256_clone_fn
0bf4ef7c g       *ABS*	00000000 mbedtls_asn1_write_raw_buffer
0bf5ee74 g       *ABS*	00000000 mbedtls_rsa_deduce_private_exponent
0bf55afc g       *ABS*	00000000 mbedtls_ecjpake_read_round_two
0bf4e7ae g       *ABS*	00000000 mbedtls_arc4_setup
080037bc g     F .text	0000005c __swhatbuf_r
0bf6405a g       *ABS*	00000000 mbedtls_x509_crl_free
200004cc g     O .bss	00000004 mbedtls_rsa_import_fn
200004b8 g     O .bss	00000004 mbedtls_rsa_export_fn
0bf65c12 g       *ABS*	00000000 mbedtls_x509_crt_init
0bf58e08 g       *ABS*	00000000 mbedtls_hmac_drbg_update_ret
0bf60cbe g       *ABS*	00000000 mbedtls_sha1
08002f06 g     F .text	0000001a .hidden __riscv_save_5
0bf4eb92 g       *ABS*	00000000 mbedtls_asn1_get_sequence_of
0bf557e6 g       *ABS*	00000000 mbedtls_ecjpake_free.part.2
20000370 g     O .bss	00000004 mbedtls_ecdsa_from_keypair_fn
08002c44 g     F .text	00000054 _write
0bf5433a g       *ABS*	00000000 mbedtls_des_init
0bf5cfba g       *ABS*	00000000 mbedtls_pkcs12_pbe_sha1_rc4_128
20000368 g       .bss	00000000 _edata
200003a0 g     O .bss	00000004 mbedtls_ecp_check_pub_priv_fn
20000464 g     O .bss	00000004 mbedtls_mpi_div_mpi_fn
0bf6669e g       *ABS*	00000000 mbedtls_x509_csr_parse
08002266 g     F .text	00000002 _postmain_fini
20003618 g       .bss	00000000 _end
0bf58822 g       *ABS*	00000000 mbedtls_gcm_update
20000458 g     O .bss	00000004 mbedtls_md5_update_fn
0bf59f8e g       *ABS*	00000000 mbedtls_oid_get_ec_grp
08001c44 g     F .text	00000022 ob_unlock
0bf592ce g       *ABS*	00000000 mbedtls_md_clone
0bf58b82 g       *ABS*	00000000 mbedtls_gcm_free
20000424 g     O .bss	00000004 mbedtls_ecp_tls_write_point_fn
08001bde g     F .text	00000008 eclic_global_interrupt_enable
2000049c g     O .bss	00000004 mbedtls_mpi_write_string_fn
200004a4 g     O .bss	00000004 mbedtls_rsa_check_pub_priv_fn
200004b4 g     O .bss	00000004 mbedtls_rsa_export_crt_fn
080042b8 g       .lalign	00000000 _data_lma
08002194 g     F .text	00000058 nmi_handler
0bf5954e g       *ABS*	00000000 mbedtls_md_hmac_reset
200003b4 g     O .bss	00000004 mbedtls_ecp_curve_info_from_tls_id_fn
0bf60d0c g       *ABS*	00000000 mbedtls_sha512_init
0bf62536 g       *ABS*	00000000 mbedtls_x509_get_alg
080040f0 g     F .text	0000004c __swrite
0bf60e74 g       *ABS*	00000000 mbedtls_sha512_starts
0bf6560a g       *ABS*	00000000 mbedtls_x509_crt_check_extended_key_usage
200004dc g     O .bss	00000004 mbedtls_rsa_pkcs1_encrypt_fn
0bf543f6 g       *ABS*	00000000 mbedtls_des3_set2key_dec
0bf5f22e g       *ABS*	00000000 mbedtls_rsa_deduce_crt
20000408 g     O .bss	00000004 mbedtls_ecp_point_read_string_fn
08003a98 g     F .text	0000028e _vfiprintf_r
0bf59370 g       *ABS*	00000000 mbedtls_md_update
08003752 g     F .text	0000006a _fwalk_reent
0bf5963e g       *ABS*	00000000 mbedtls_md_get_size
20000300 g       .code_to_sram	00000000 _scode
20000368 g     O .bss	00000004 ecp_supported_curves
0bf66a9e g       *ABS*	00000000 mbedtls_x509write_crt_set_subject_name
0bf62bac g       *ABS*	00000000 mbedtls_x509_get_sig_alg
0bf50f96 g       *ABS*	00000000 mbedtls_camellia_setkey_enc
08001688 g     O .text	00000020 __sf_fake_stdout
0bf6da60 g       *ABS*	00000000 mbedtls_mpi_free
200004f0 g     O .bss	00000004 mbedtls_rsa_public_fn
0bf65f40 g       *ABS*	00000000 mbedtls_x509_crt_profile_default
0bf59598 g       *ABS*	00000000 mbedtls_md_hmac
0bf4f064 g       *ABS*	00000000 mbedtls_asn1_write_null
08002f2c g     F .text	00000024 .hidden __riscv_restore_12
20000428 g     O .bss	00000004 mbedtls_internal_md5_process_fn
0bf65f50 g       *ABS*	00000000 mbedtls_x509_crt_profile_next
20000534 g     O .bss	00000004 mbedtls_sha256_starts_ret_fn
08002b0e g     F .text	00000004 _read
0bf5df30 g       *ABS*	00000000 mbedtls_pk_parse_public_key
0bf59170 g       *ABS*	00000000 mbedtls_hmac_drbg_random
0bf67782 g       *ABS*	00000000 mbedtls_xtea_free
0bf54458 g       *ABS*	00000000 mbedtls_des_crypt_ecb
0bf5520c g       *ABS*	00000000 mbedtls_ecdh_calc_secret
0bf5bdf2 g       *ABS*	00000000 mbedtls_pk_setup_rsa_alt
0bf664b6 g       *ABS*	00000000 mbedtls_x509_csr_parse_der
08002f20 g     F .text	0000000c .hidden __riscv_save_0
0bf4e478 g       *ABS*	00000000 mbedtls_aes_crypt_cbc
200003cc g     O .bss	00000004 mbedtls_ecp_group_copy_fn
0bf6738a g       *ABS*	00000000 mbedtls_x509write_csr_der
0bf58dfe g       *ABS*	00000000 mbedtls_hmac_drbg_init
200003c0 g     O .bss	00000004 mbedtls_ecp_gen_keypair_base_fn
0bf5907c g       *ABS*	00000000 mbedtls_hmac_drbg_set_reseed_interval
200004d0 g     O .bss	00000004 mbedtls_rsa_import_raw_fn
0bf5e394 g       *ABS*	00000000 mbedtls_pk_write_pubkey_der
0bf6dd02 g       *ABS*	00000000 mbedtls_mpi_safe_cond_swap
0bf59ff0 g       *ABS*	00000000 mbedtls_oid_get_oid_by_ec_grp
08003818 g     F .text	000000a0 __smakebuf_r
08002062 g     F .text	00000014 usart_flag_get
08003e30 g     F .text	0000026c _printf_i
08001d3e g     F .text	00000060 gpio_af_set
0bf52ab6 g       *ABS*	00000000 mbedtls_cipher_finish
200003e8 g     O .bss	00000004 mbedtls_ecp_mul_fn
0bf593b4 g       *ABS*	00000000 mbedtls_md_hmac_starts
20000300 g       .code_to_sram	00000000 _ecode
08001be6 g     F .text	0000000a eclic_level_threshold_set
20000548 g     O .bss	00000004 __malloc_sbrk_start
0bf52bba g       *ABS*	00000000 mbedtls_cipher_set_padding_mode
0bf5bfce g       *ABS*	00000000 mbedtls_pk_sign_restartable
20000418 g     O .bss	00000004 mbedtls_ecp_tls_read_group_id_fn
0bf5bdba g       *ABS*	00000000 mbedtls_pk_setup
08002cda g     F .text	00000008 reloc_iv
200003c4 g     O .bss	00000004 mbedtls_ecp_gen_keypair_fn
0bf6c03c g       *ABS*	00000000 ED25519_verify
20000544 g     O .bss	00000004 __malloc_free_list
20000508 g     O .bss	00000004 mbedtls_rsa_rsassa_pkcs1_v15_verify_fn
08002f44 g     F .text	0000000c .hidden __riscv_restore_1
20000490 g     O .bss	00000004 mbedtls_mpi_mul_int_fn
0bf63402 g       *ABS*	00000000 mbedtls_x509_write_sig
0bf5bd70 g       *ABS*	00000000 mbedtls_pk_init
0bf62b4e g       *ABS*	00000000 mbedtls_x509_get_sig
0bf6e5fa g       *ABS*	00000000 mbedtls_mpi_sub_abs
0bf4e810 g       *ABS*	00000000 mbedtls_arc4_crypt
08003a98 g     F .text	0000028e _vfprintf_r
0bf581f6 g       *ABS*	00000000 mbedtls_entropy_func
0bf59270 g       *ABS*	00000000 mbedtls_md_info_from_type
0bf5c728 g       *ABS*	00000000 mbedtls_ecdsa_info
0bf4f54c g       *ABS*	00000000 mbedtls_base64_encode
0bf581b4 g       *ABS*	00000000 mbedtls_entropy_add_source
0bf59294 g       *ABS*	00000000 mbedtls_md_free
2000040c g     O .bss	00000004 mbedtls_ecp_point_write_binary_fn
20000478 g     O .bss	00000004 mbedtls_mpi_gen_prime_fn
0bf4ed88 g       *ABS*	00000000 mbedtls_asn1_free_named_data
2000041c g     O .bss	00000004 mbedtls_ecp_tls_read_point_fn
0bf598bc g       *ABS*	00000000 mbedtls_sha384_info
0bf59c38 g       *ABS*	00000000 mbedtls_memory_buffer_set_verify
0bf527a0 g       *ABS*	00000000 mbedtls_cipher_set_iv
0bf5c0aa g       *ABS*	00000000 mbedtls_pk_check_pair
20000504 g     O .bss	00000004 mbedtls_rsa_rsassa_pkcs1_v15_sign_fn
0bf66aaa g       *ABS*	00000000 mbedtls_x509write_crt_set_serial
20000488 g     O .bss	00000004 mbedtls_mpi_mod_int_fn
2000052c g     O .bss	00000004 mbedtls_sha256_init_fn
0bf543ac g       *ABS*	00000000 mbedtls_des_setkey_dec
0bf66be6 g       *ABS*	00000000 mbedtls_x509write_crt_set_subject_key_identifier
0bf4f10e g       *ABS*	00000000 mbedtls_asn1_write_algorithm_identifier
0bf5c818 g       *ABS*	00000000 mbedtls_rsa_info
0bf59c42 g       *ABS*	00000000 mbedtls_memory_buffer_alloc_verify
08002afe g     F .text	00000004 _close
200003f8 g     O .bss	00000004 mbedtls_ecp_point_cmp_fn
0bf58c8c g       *ABS*	00000000 mbedtls_hkdf_expand
0bf67342 g       *ABS*	00000000 mbedtls_x509write_csr_set_ns_cert_type



Disassembly of section .init:

08001000 <vector_base>:
vector_base():
C:/Users/stapi/OneDrive/Desktop/GD32VW553/GD32VW55X_Wifi_BLE_SDK/GD32VW55x_RELEASE_V1.0.2/MSDK/plf/riscv/env/start.S:118
    .weak     EFUSE_IRQHandler                  # EFUSE
    .weak     QSPI_IRQHandler                   # QUADSPI
    .weak     PKCAU_IRQHandler                  # PKCAU

vector_base:
    j _start                                    /* 0: Reserved, Jump to _start when reset for vector table not remapped cases.*/
 8001000:	aac1                	j	80011d0 <_start>
 8001002:	0001                	nop
	...

080011d0 <_start>:
_start():
C:/Users/stapi/OneDrive/Desktop/GD32VW553/GD32VW55X_Wifi_BLE_SDK/GD32VW55x_RELEASE_V1.0.2/MSDK/plf/riscv/env/start.S:241
    .type _start,@function

_start:

    /* Disable Global Interrupt */
    csrc CSR_MSTATUS, MSTATUS_MIE
 80011d0:	30047073          	csrci	mstatus,8
C:/Users/stapi/OneDrive/Desktop/GD32VW553/GD32VW55X_Wifi_BLE_SDK/GD32VW55x_RELEASE_V1.0.2/MSDK/plf/riscv/env/start.S:245
    /* Initialize GP and Stack Pointer SP */
.option push
.option norelax
    la gp, __global_pointer$
 80011d4:	18000197          	auipc	gp,0x18000
 80011d8:	98c18193          	addi	gp,gp,-1652 # 20000b60 <__global_pointer$>
C:/Users/stapi/OneDrive/Desktop/GD32VW553/GD32VW55X_Wifi_BLE_SDK/GD32VW55x_RELEASE_V1.0.2/MSDK/plf/riscv/env/start.S:247
.option pop
    la sp, _sp
 80011dc:	18003117          	auipc	sp,0x18003
 80011e0:	72410113          	addi	sp,sp,1828 # 20004900 <_sp>
C:/Users/stapi/OneDrive/Desktop/GD32VW553/GD32VW55X_Wifi_BLE_SDK/GD32VW55x_RELEASE_V1.0.2/MSDK/plf/riscv/env/start.S:250

    /* Set the the NMI base to share with mtvec by setting CSR_MMISC_CTL */
    li t0, MMISC_CTL_NMI_CAUSE_FFF
 80011e4:	20000293          	li	t0,512
C:/Users/stapi/OneDrive/Desktop/GD32VW553/GD32VW55X_Wifi_BLE_SDK/GD32VW55x_RELEASE_V1.0.2/MSDK/plf/riscv/env/start.S:251
    csrs CSR_MMISC_CTL, t0
 80011e8:	7d02a073          	csrs	mmisc_ctl,t0
C:/Users/stapi/OneDrive/Desktop/GD32VW553/GD32VW55X_Wifi_BLE_SDK/GD32VW55x_RELEASE_V1.0.2/MSDK/plf/riscv/env/start.S:253
    /* Intial the mtvt*/
    la t0, vector_base
 80011ec:	00000297          	auipc	t0,0x0
 80011f0:	e1428293          	addi	t0,t0,-492 # 8001000 <vector_base>
C:/Users/stapi/OneDrive/Desktop/GD32VW553/GD32VW55X_Wifi_BLE_SDK/GD32VW55x_RELEASE_V1.0.2/MSDK/plf/riscv/env/start.S:254
    csrw CSR_MTVT, t0
 80011f4:	30729073          	csrw	mtvt,t0
C:/Users/stapi/OneDrive/Desktop/GD32VW553/GD32VW55X_Wifi_BLE_SDK/GD32VW55x_RELEASE_V1.0.2/MSDK/plf/riscv/env/start.S:257

    /* Intial the mtvt2 and enable it*/
    la t0, irq_entry
 80011f8:	00001297          	auipc	t0,0x1
 80011fc:	90428293          	addi	t0,t0,-1788 # 8001afc <irq_entry>
C:/Users/stapi/OneDrive/Desktop/GD32VW553/GD32VW55X_Wifi_BLE_SDK/GD32VW55x_RELEASE_V1.0.2/MSDK/plf/riscv/env/start.S:258
    csrw CSR_MTVT2, t0
 8001200:	7ec29073          	csrw	mtvt2,t0
C:/Users/stapi/OneDrive/Desktop/GD32VW553/GD32VW55X_Wifi_BLE_SDK/GD32VW55x_RELEASE_V1.0.2/MSDK/plf/riscv/env/start.S:259
    csrs CSR_MTVT2, 0x1
 8001204:	7ec0e073          	csrsi	mtvt2,1
C:/Users/stapi/OneDrive/Desktop/GD32VW553/GD32VW55X_Wifi_BLE_SDK/GD32VW55x_RELEASE_V1.0.2/MSDK/plf/riscv/env/start.S:262

    /* Intial the CSR MTVEC for the Trap and NMI base addr*/
    la t0, exc_entry
 8001208:	00000297          	auipc	t0,0x0
 800120c:	7f828293          	addi	t0,t0,2040 # 8001a00 <exc_entry>
C:/Users/stapi/OneDrive/Desktop/GD32VW553/GD32VW55X_Wifi_BLE_SDK/GD32VW55x_RELEASE_V1.0.2/MSDK/plf/riscv/env/start.S:263
    csrw CSR_MTVEC, t0
 8001210:	30529073          	csrw	mtvec,t0
C:/Users/stapi/OneDrive/Desktop/GD32VW553/GD32VW55X_Wifi_BLE_SDK/GD32VW55x_RELEASE_V1.0.2/MSDK/plf/riscv/env/start.S:266

    /* Set the interrupt processing mode to ECLIC mode */
    li t0, 0x3f
 8001214:	03f00293          	li	t0,63
C:/Users/stapi/OneDrive/Desktop/GD32VW553/GD32VW55X_Wifi_BLE_SDK/GD32VW55x_RELEASE_V1.0.2/MSDK/plf/riscv/env/start.S:267
    csrc CSR_MTVEC, t0
 8001218:	3052b073          	csrc	mtvec,t0
C:/Users/stapi/OneDrive/Desktop/GD32VW553/GD32VW55X_Wifi_BLE_SDK/GD32VW55x_RELEASE_V1.0.2/MSDK/plf/riscv/env/start.S:268
    csrs CSR_MTVEC, 0x3
 800121c:	3051e073          	csrsi	mtvec,3
C:/Users/stapi/OneDrive/Desktop/GD32VW553/GD32VW55X_Wifi_BLE_SDK/GD32VW55x_RELEASE_V1.0.2/MSDK/plf/riscv/env/start.S:272
    /* ===== Startup Stage 2 ===== */
#ifdef __riscv_flen
    /* Enable FPU */
    li t0, MSTATUS_FS
 8001220:	6299                	lui	t0,0x6
C:/Users/stapi/OneDrive/Desktop/GD32VW553/GD32VW55X_Wifi_BLE_SDK/GD32VW55x_RELEASE_V1.0.2/MSDK/plf/riscv/env/start.S:273
    csrs mstatus, t0
 8001222:	3002a073          	csrs	mstatus,t0
C:/Users/stapi/OneDrive/Desktop/GD32VW553/GD32VW55X_Wifi_BLE_SDK/GD32VW55x_RELEASE_V1.0.2/MSDK/plf/riscv/env/start.S:274
    csrw fcsr, x0
 8001226:	00301073          	fscsr	zero
C:/Users/stapi/OneDrive/Desktop/GD32VW553/GD32VW55X_Wifi_BLE_SDK/GD32VW55x_RELEASE_V1.0.2/MSDK/plf/riscv/env/start.S:278
#endif

    /* Enable mcycle and minstret counter */
    csrci CSR_MCOUNTINHIBIT, 0x5
 800122a:	3202f073          	csrci	mcountinhibit,5
C:/Users/stapi/OneDrive/Desktop/GD32VW553/GD32VW55X_Wifi_BLE_SDK/GD32VW55x_RELEASE_V1.0.2/MSDK/plf/riscv/env/start.S:282

    /* ===== Startup Stage 3 ===== */
    /* Load code to sram */
    la a0, _sicode
 800122e:	00000517          	auipc	a0,0x0
 8001232:	09e50513          	addi	a0,a0,158 # 80012cc <_sicode>
C:/Users/stapi/OneDrive/Desktop/GD32VW553/GD32VW55X_Wifi_BLE_SDK/GD32VW55x_RELEASE_V1.0.2/MSDK/plf/riscv/env/start.S:283
    la a1, _scode
 8001236:	17fff597          	auipc	a1,0x17fff
 800123a:	0ca58593          	addi	a1,a1,202 # 20000300 <impure_data>
C:/Users/stapi/OneDrive/Desktop/GD32VW553/GD32VW55X_Wifi_BLE_SDK/GD32VW55x_RELEASE_V1.0.2/MSDK/plf/riscv/env/start.S:284
    la a2, _ecode
 800123e:	17fff617          	auipc	a2,0x17fff
 8001242:	0c260613          	addi	a2,a2,194 # 20000300 <impure_data>
C:/Users/stapi/OneDrive/Desktop/GD32VW553/GD32VW55X_Wifi_BLE_SDK/GD32VW55x_RELEASE_V1.0.2/MSDK/plf/riscv/env/start.S:285
    bgeu a1, a2, 2f
 8001246:	00c5fa63          	bgeu	a1,a2,800125a <_start+0x8a>
C:/Users/stapi/OneDrive/Desktop/GD32VW553/GD32VW55X_Wifi_BLE_SDK/GD32VW55x_RELEASE_V1.0.2/MSDK/plf/riscv/env/start.S:287
1:
    lw t0, (a0)
 800124a:	00052283          	lw	t0,0(a0)
C:/Users/stapi/OneDrive/Desktop/GD32VW553/GD32VW55X_Wifi_BLE_SDK/GD32VW55x_RELEASE_V1.0.2/MSDK/plf/riscv/env/start.S:288
    sw t0, (a1)
 800124e:	0055a023          	sw	t0,0(a1)
C:/Users/stapi/OneDrive/Desktop/GD32VW553/GD32VW55X_Wifi_BLE_SDK/GD32VW55x_RELEASE_V1.0.2/MSDK/plf/riscv/env/start.S:289
    addi a0, a0, 4
 8001252:	0511                	addi	a0,a0,4
C:/Users/stapi/OneDrive/Desktop/GD32VW553/GD32VW55X_Wifi_BLE_SDK/GD32VW55x_RELEASE_V1.0.2/MSDK/plf/riscv/env/start.S:290
    addi a1, a1, 4
 8001254:	0591                	addi	a1,a1,4
C:/Users/stapi/OneDrive/Desktop/GD32VW553/GD32VW55X_Wifi_BLE_SDK/GD32VW55x_RELEASE_V1.0.2/MSDK/plf/riscv/env/start.S:291
    bltu a1, a2, 1b
 8001256:	fec5eae3          	bltu	a1,a2,800124a <_start+0x7a>
C:/Users/stapi/OneDrive/Desktop/GD32VW553/GD32VW55X_Wifi_BLE_SDK/GD32VW55x_RELEASE_V1.0.2/MSDK/plf/riscv/env/start.S:295

2:
    /* Load data section */
    la a0, _data_lma
 800125a:	00003517          	auipc	a0,0x3
 800125e:	05e50513          	addi	a0,a0,94 # 80042b8 <_data_lma>
C:/Users/stapi/OneDrive/Desktop/GD32VW553/GD32VW55X_Wifi_BLE_SDK/GD32VW55x_RELEASE_V1.0.2/MSDK/plf/riscv/env/start.S:296
    la a1, _data
 8001262:	17fff597          	auipc	a1,0x17fff
 8001266:	09e58593          	addi	a1,a1,158 # 20000300 <impure_data>
C:/Users/stapi/OneDrive/Desktop/GD32VW553/GD32VW55X_Wifi_BLE_SDK/GD32VW55x_RELEASE_V1.0.2/MSDK/plf/riscv/env/start.S:297
    la a2, _edata
 800126a:	17fff617          	auipc	a2,0x17fff
 800126e:	0fe60613          	addi	a2,a2,254 # 20000368 <ecp_supported_curves>
C:/Users/stapi/OneDrive/Desktop/GD32VW553/GD32VW55X_Wifi_BLE_SDK/GD32VW55x_RELEASE_V1.0.2/MSDK/plf/riscv/env/start.S:298
    bgeu a1, a2, 2f
 8001272:	00c5fa63          	bgeu	a1,a2,8001286 <_start+0xb6>
C:/Users/stapi/OneDrive/Desktop/GD32VW553/GD32VW55X_Wifi_BLE_SDK/GD32VW55x_RELEASE_V1.0.2/MSDK/plf/riscv/env/start.S:300
1:
    lw t0, (a0)
 8001276:	00052283          	lw	t0,0(a0)
C:/Users/stapi/OneDrive/Desktop/GD32VW553/GD32VW55X_Wifi_BLE_SDK/GD32VW55x_RELEASE_V1.0.2/MSDK/plf/riscv/env/start.S:301
    sw t0, (a1)
 800127a:	0055a023          	sw	t0,0(a1)
C:/Users/stapi/OneDrive/Desktop/GD32VW553/GD32VW55X_Wifi_BLE_SDK/GD32VW55x_RELEASE_V1.0.2/MSDK/plf/riscv/env/start.S:302
    addi a0, a0, 4
 800127e:	0511                	addi	a0,a0,4
C:/Users/stapi/OneDrive/Desktop/GD32VW553/GD32VW55X_Wifi_BLE_SDK/GD32VW55x_RELEASE_V1.0.2/MSDK/plf/riscv/env/start.S:303
    addi a1, a1, 4
 8001280:	0591                	addi	a1,a1,4
C:/Users/stapi/OneDrive/Desktop/GD32VW553/GD32VW55X_Wifi_BLE_SDK/GD32VW55x_RELEASE_V1.0.2/MSDK/plf/riscv/env/start.S:304
    bltu a1, a2, 1b
 8001282:	fec5eae3          	bltu	a1,a2,8001276 <_start+0xa6>
C:/Users/stapi/OneDrive/Desktop/GD32VW553/GD32VW55X_Wifi_BLE_SDK/GD32VW55x_RELEASE_V1.0.2/MSDK/plf/riscv/env/start.S:307
2:
    /* Clear bss section */
    la a0, __bss_start
 8001286:	17fff517          	auipc	a0,0x17fff
 800128a:	0e250513          	addi	a0,a0,226 # 20000368 <ecp_supported_curves>
C:/Users/stapi/OneDrive/Desktop/GD32VW553/GD32VW55X_Wifi_BLE_SDK/GD32VW55x_RELEASE_V1.0.2/MSDK/plf/riscv/env/start.S:308
    la a1, _end
 800128e:	18002597          	auipc	a1,0x18002
 8001292:	38a58593          	addi	a1,a1,906 # 20003618 <_end>
C:/Users/stapi/OneDrive/Desktop/GD32VW553/GD32VW55X_Wifi_BLE_SDK/GD32VW55x_RELEASE_V1.0.2/MSDK/plf/riscv/env/start.S:309
    bgeu a0, a1, 2f
 8001296:	00b57763          	bgeu	a0,a1,80012a4 <_start+0xd4>
C:/Users/stapi/OneDrive/Desktop/GD32VW553/GD32VW55X_Wifi_BLE_SDK/GD32VW55x_RELEASE_V1.0.2/MSDK/plf/riscv/env/start.S:311
1:
    sw zero, (a0)
 800129a:	00052023          	sw	zero,0(a0)
C:/Users/stapi/OneDrive/Desktop/GD32VW553/GD32VW55X_Wifi_BLE_SDK/GD32VW55x_RELEASE_V1.0.2/MSDK/plf/riscv/env/start.S:312
    addi a0, a0, 4
 800129e:	0511                	addi	a0,a0,4
C:/Users/stapi/OneDrive/Desktop/GD32VW553/GD32VW55X_Wifi_BLE_SDK/GD32VW55x_RELEASE_V1.0.2/MSDK/plf/riscv/env/start.S:313
    bltu a0, a1, 1b
 80012a0:	feb56de3          	bltu	a0,a1,800129a <_start+0xca>
C:/Users/stapi/OneDrive/Desktop/GD32VW553/GD32VW55X_Wifi_BLE_SDK/GD32VW55x_RELEASE_V1.0.2/MSDK/plf/riscv/env/start.S:320

    /*
     * Call vendor defined SystemInit to
     * initialize the micro-controller system
     */
    call SystemInit
 80012a4:	133010ef          	jal	ra,8002bd6 <SystemInit>
C:/Users/stapi/OneDrive/Desktop/GD32VW553/GD32VW55X_Wifi_BLE_SDK/GD32VW55x_RELEASE_V1.0.2/MSDK/plf/riscv/env/start.S:323

    /* Call global constructors */
    la a0, __libc_fini_array
 80012a8:	00002517          	auipc	a0,0x2
 80012ac:	cb250513          	addi	a0,a0,-846 # 8002f5a <__libc_fini_array>
C:/Users/stapi/OneDrive/Desktop/GD32VW553/GD32VW55X_Wifi_BLE_SDK/GD32VW55x_RELEASE_V1.0.2/MSDK/plf/riscv/env/start.S:324
    call atexit
 80012b0:	4a1010ef          	jal	ra,8002f50 <atexit>
C:/Users/stapi/OneDrive/Desktop/GD32VW553/GD32VW55X_Wifi_BLE_SDK/GD32VW55x_RELEASE_V1.0.2/MSDK/plf/riscv/env/start.S:326
    /* Call C/C++ constructor start up code */
    call __libc_init_array
 80012b4:	4db010ef          	jal	ra,8002f8e <__libc_init_array>
C:/Users/stapi/OneDrive/Desktop/GD32VW553/GD32VW55X_Wifi_BLE_SDK/GD32VW55x_RELEASE_V1.0.2/MSDK/plf/riscv/env/start.S:329

    /* do pre-init steps before main */
    call _premain_init
 80012b8:	781000ef          	jal	ra,8002238 <_premain_init>
C:/Users/stapi/OneDrive/Desktop/GD32VW553/GD32VW55X_Wifi_BLE_SDK/GD32VW55x_RELEASE_V1.0.2/MSDK/plf/riscv/env/start.S:332
    /* ===== Call Main Function  ===== */
    /* argc = argv = 0 */
    li a0, 0
 80012bc:	4501                	li	a0,0
C:/Users/stapi/OneDrive/Desktop/GD32VW553/GD32VW55X_Wifi_BLE_SDK/GD32VW55x_RELEASE_V1.0.2/MSDK/plf/riscv/env/start.S:333
    li a1, 0
 80012be:	4581                	li	a1,0
C:/Users/stapi/OneDrive/Desktop/GD32VW553/GD32VW55X_Wifi_BLE_SDK/GD32VW55x_RELEASE_V1.0.2/MSDK/plf/riscv/env/start.S:334
    call main
 80012c0:	29b5                	jal	800173c <main>
C:/Users/stapi/OneDrive/Desktop/GD32VW553/GD32VW55X_Wifi_BLE_SDK/GD32VW55x_RELEASE_V1.0.2/MSDK/plf/riscv/env/start.S:336
    /* do post-main steps after main */
    call _postmain_fini
 80012c2:	7a5000ef          	jal	ra,8002266 <_postmain_fini>
C:/Users/stapi/OneDrive/Desktop/GD32VW553/GD32VW55X_Wifi_BLE_SDK/GD32VW55x_RELEASE_V1.0.2/MSDK/plf/riscv/env/start.S:339

1:
    j 1b
 80012c6:	a001                	j	80012c6 <_start+0xf6>
	...

Disassembly of section .text:

08001300 <__sf_fake_stderr-0x348>:
 8001300:	1ebc                	addi	a5,sp,888
 8001302:	0800                	addi	s0,sp,16
 8001304:	1ed6                	slli	t4,t4,0x35
 8001306:	0800                	addi	s0,sp,16
 8001308:	1ebe                	slli	t4,t4,0x2f
 800130a:	0800                	addi	s0,sp,16
 800130c:	1edc                	addi	a5,sp,884
 800130e:	0800                	addi	s0,sp,16
 8001310:	1ee4                	addi	s1,sp,892
 8001312:	0800                	addi	s0,sp,16
 8001314:	1f22                	slli	t5,t5,0x28
 8001316:	0800                	addi	s0,sp,16
	...
 8001320:	0201                	addi	tp,tp,0
 8001322:	07060403          	lb	s0,112(a2)
 8001326:	0908                	addi	a0,sp,144
 8001328:	6172                	flw	ft2,28(sp)
 800132a:	203a                	fld	ft0,392(sp)
 800132c:	7830                	flw	fa2,112(s0)
 800132e:	7825                	lui	a6,0xfffe9
 8001330:	202c                	fld	fa1,64(s0)
 8001332:	7074                	flw	fa3,100(s0)
 8001334:	203a                	fld	ft0,392(sp)
 8001336:	7830                	flw	fa2,112(s0)
 8001338:	7825                	lui	a6,0xfffe9
 800133a:	202c                	fld	fa1,64(s0)
 800133c:	3074                	fld	fa3,224(s0)
 800133e:	203a                	fld	ft0,392(sp)
 8001340:	7830                	flw	fa2,112(s0)
 8001342:	7825                	lui	a6,0xfffe9
 8001344:	202c                	fld	fa1,64(s0)
 8001346:	3174                	fld	fa3,224(a0)
 8001348:	203a                	fld	ft0,392(sp)
 800134a:	7830                	flw	fa2,112(s0)
 800134c:	7825                	lui	a6,0xfffe9
 800134e:	202c                	fld	fa1,64(s0)
 8001350:	3274                	fld	fa3,224(a2)
 8001352:	203a                	fld	ft0,392(sp)
 8001354:	7830                	flw	fa2,112(s0)
 8001356:	7825                	lui	a6,0xfffe9
 8001358:	202c                	fld	fa1,64(s0)
 800135a:	3374                	fld	fa3,224(a4)
 800135c:	203a                	fld	ft0,392(sp)
 800135e:	7830                	flw	fa2,112(s0)
 8001360:	7825                	lui	a6,0xfffe9
 8001362:	202c                	fld	fa1,64(s0)
 8001364:	3474                	fld	fa3,232(s0)
 8001366:	203a                	fld	ft0,392(sp)
 8001368:	7830                	flw	fa2,112(s0)
 800136a:	7825                	lui	a6,0xfffe9
 800136c:	202c                	fld	fa1,64(s0)
 800136e:	3574                	fld	fa3,232(a0)
 8001370:	203a                	fld	ft0,392(sp)
 8001372:	7830                	flw	fa2,112(s0)
 8001374:	7825                	lui	a6,0xfffe9
 8001376:	202c                	fld	fa1,64(s0)
 8001378:	3674                	fld	fa3,232(a2)
 800137a:	203a                	fld	ft0,392(sp)
 800137c:	7830                	flw	fa2,112(s0)
 800137e:	7825                	lui	a6,0xfffe9
 8001380:	610a                	flw	ft2,128(sp)
 8001382:	3a30                	fld	fa2,112(a2)
 8001384:	3020                	fld	fs0,96(s0)
 8001386:	2578                	fld	fa4,200(a0)
 8001388:	2c78                	fld	fa4,216(s0)
 800138a:	6120                	flw	fs0,64(a0)
 800138c:	3a31                	jal	8000ca8 <compat_prefix+0xca8>
 800138e:	3020                	fld	fs0,96(s0)
 8001390:	2578                	fld	fa4,200(a0)
 8001392:	2c78                	fld	fa4,216(s0)
 8001394:	6120                	flw	fs0,64(a0)
 8001396:	3a32                	fld	fs4,296(sp)
 8001398:	3020                	fld	fs0,96(s0)
 800139a:	2578                	fld	fa4,200(a0)
 800139c:	2c78                	fld	fa4,216(s0)
 800139e:	6120                	flw	fs0,64(a0)
 80013a0:	30203a33          	0x30203a33
 80013a4:	2578                	fld	fa4,200(a0)
 80013a6:	2c78                	fld	fa4,216(s0)
 80013a8:	6120                	flw	fs0,64(a0)
 80013aa:	3a34                	fld	fa3,112(a2)
 80013ac:	3020                	fld	fs0,96(s0)
 80013ae:	2578                	fld	fa4,200(a0)
 80013b0:	2c78                	fld	fa4,216(s0)
 80013b2:	6120                	flw	fs0,64(a0)
 80013b4:	3a35                	jal	8000cf0 <compat_prefix+0xcf0>
 80013b6:	3020                	fld	fs0,96(s0)
 80013b8:	2578                	fld	fa4,200(a0)
 80013ba:	2c78                	fld	fa4,216(s0)
 80013bc:	6120                	flw	fs0,64(a0)
 80013be:	3a36                	fld	fs4,360(sp)
 80013c0:	3020                	fld	fs0,96(s0)
 80013c2:	2578                	fld	fa4,200(a0)
 80013c4:	2c78                	fld	fa4,216(s0)
 80013c6:	6120                	flw	fs0,64(a0)
 80013c8:	30203a37          	lui	s4,0x30203
 80013cc:	2578                	fld	fa4,200(a0)
 80013ce:	0a78                	addi	a4,sp,284
 80013d0:	636d                	lui	t1,0x1b
 80013d2:	7561                	lui	a0,0xffff8
 80013d4:	203a6573          	csrrsi	a0,0x203,20
 80013d8:	7830                	flw	fa2,112(s0)
 80013da:	7825                	lui	a6,0xfffe9
 80013dc:	202c                	fld	fa1,64(s0)
 80013de:	656d                	lui	a0,0x1b
 80013e0:	6370                	flw	fa2,68(a4)
 80013e2:	203a                	fld	ft0,392(sp)
 80013e4:	7830                	flw	fa2,112(s0)
 80013e6:	7825                	lui	a6,0xfffe9
 80013e8:	202c                	fld	fa1,64(s0)
 80013ea:	736d                	lui	t1,0xffffb
 80013ec:	6275                	lui	tp,0x1d
 80013ee:	3a6d                	jal	8000da8 <compat_prefix+0xda8>
 80013f0:	3020                	fld	fs0,96(s0)
 80013f2:	2578                	fld	fa4,200(a0)
 80013f4:	0a78                	addi	a4,sp,284
 80013f6:	0000                	unimp
 80013f8:	4d4e                	lw	s10,208(sp)
 80013fa:	2049                	jal	800147c <_sicode+0x1b0>
 80013fc:	000d                	c.nop	3
 80013fe:	0000                	unimp
 8001400:	434d                	li	t1,19
 8001402:	5541                	li	a0,-16
 8001404:	3a204553          	0x3a204553
 8001408:	3020                	fld	fs0,96(s0)
 800140a:	2578                	fld	fa4,200(a0)
 800140c:	786c                	flw	fa1,116(s0)
 800140e:	0a0d                	addi	s4,s4,3
 8001410:	0000                	unimp
 8001412:	0000                	unimp
 8001414:	444d                	li	s0,19
 8001416:	53554143          	fmadd.d	ft2,fa0,fs5,fa0,rmm
 800141a:	3a45                	jal	8000dca <compat_prefix+0xdca>
 800141c:	3020                	fld	fs0,96(s0)
 800141e:	2578                	fld	fa4,200(a0)
 8001420:	786c                	flw	fa1,116(s0)
 8001422:	0a0d                	addi	s4,s4,3
 8001424:	0000                	unimp
 8001426:	0000                	unimp
 8001428:	454d                	li	a0,19
 800142a:	4350                	lw	a2,4(a4)
 800142c:	2020                	fld	fs0,64(s0)
 800142e:	3a20                	fld	fs0,112(a2)
 8001430:	3020                	fld	fs0,96(s0)
 8001432:	2578                	fld	fa4,200(a0)
 8001434:	786c                	flw	fa1,116(s0)
 8001436:	0a0d                	addi	s4,s4,3
 8001438:	0000                	unimp
 800143a:	0000                	unimp
 800143c:	544d                	li	s0,-13
 800143e:	4156                	lw	sp,84(sp)
 8001440:	204c                	fld	fa1,128(s0)
 8001442:	3a20                	fld	fs0,112(a2)
 8001444:	3020                	fld	fs0,96(s0)
 8001446:	2578                	fld	fa4,200(a0)
 8001448:	786c                	flw	fa1,116(s0)
 800144a:	0a0d                	addi	s4,s4,3
 800144c:	0000                	unimp
 800144e:	0000                	unimp
 8001450:	424d                	li	tp,19
 8001452:	3a4c                	fld	fa1,176(a2)
 8001454:	4620                	lw	s0,72(a2)
 8001456:	7269                	lui	tp,0xffffa
 8001458:	70207473          	csrrci	s0,0x702,0
 800145c:	6972                	flw	fs2,28(sp)
 800145e:	746e                	flw	fs0,248(sp)
 8001460:	0d2e                	slli	s10,s10,0xb
 8001462:	000a                	c.slli	zero,0x2
 8001464:	6f4e                	flw	ft10,208(sp)
 8001466:	6920                	flw	fs0,80(a0)
 8001468:	616d                	addi	sp,sp,240
 800146a:	74206567          	0x74206567
 800146e:	6f62206f          	j	8023b64 <__fini_array_end+0x1f8ac>
 8001472:	2820746f          	jal	s0,80086f4 <__fini_array_end+0x443c>
 8001476:	6572                	flw	fa0,28(sp)
 8001478:	2074                	fld	fa3,192(s0)
 800147a:	203d                	jal	80014a8 <_sicode+0x1dc>
 800147c:	6425                	lui	s0,0x9
 800147e:	2e29                	jal	8001798 <main+0x5c>
 8001480:	0a0d                	addi	s4,s4,3
 8001482:	0000                	unimp
 8001484:	424d                	li	tp,19
 8001486:	3a4c                	fld	fa1,176(a2)
 8001488:	4220                	lw	s0,64(a2)
 800148a:	20746f6f          	jal	t5,8047e90 <__fini_array_end+0x43bd8>
 800148e:	7266                	flw	ft4,120(sp)
 8001490:	49206d6f          	jal	s10,8007922 <__fini_array_end+0x366a>
 8001494:	616d                	addi	sp,sp,240
 8001496:	25206567          	0x25206567
 800149a:	2e64                	fld	fs1,216(a2)
 800149c:	0a0d                	addi	s4,s4,3
 800149e:	0000                	unimp
 80014a0:	6156                	flw	ft2,84(sp)
 80014a2:	696c                	flw	fa1,84(a0)
 80014a4:	6164                	flw	fs1,68(a0)
 80014a6:	6574                	flw	fa3,76(a0)
 80014a8:	4920                	lw	s0,80(a0)
 80014aa:	616d                	addi	sp,sp,240
 80014ac:	25206567          	0x25206567
 80014b0:	2064                	fld	fs1,192(s0)
 80014b2:	6166                	flw	ft2,88(sp)
 80014b4:	6c69                	lui	s8,0x1a
 80014b6:	6465                	lui	s0,0x19
 80014b8:	2820                	fld	fs0,80(s0)
 80014ba:	6572                	flw	fa0,28(sp)
 80014bc:	2074                	fld	fa3,192(s0)
 80014be:	203d                	jal	80014ec <_sicode+0x220>
 80014c0:	6425                	lui	s0,0x9
 80014c2:	2e29                	jal	80017dc <main+0xa0>
 80014c4:	0a0d                	addi	s4,s4,3
 80014c6:	0000                	unimp
 80014c8:	424d                	li	tp,19
 80014ca:	3a4c                	fld	fa1,176(a2)
 80014cc:	5620                	lw	s0,104(a2)
 80014ce:	6c61                	lui	s8,0x18
 80014d0:	6469                	lui	s0,0x1a
 80014d2:	7461                	lui	s0,0xffff8
 80014d4:	2065                	jal	800157c <_sicode+0x2b0>
 80014d6:	6d49                	lui	s10,0x12
 80014d8:	6761                	lui	a4,0x18
 80014da:	2065                	jal	8001582 <_sicode+0x2b6>
 80014dc:	6425                	lui	s0,0x9
 80014de:	4f20                	lw	s0,88(a4)
 80014e0:	0a0d2e4b          	fnmsub.d	ft8,fs10,ft0,ft1,rdn
 80014e4:	0000                	unimp
 80014e6:	0000                	unimp
 80014e8:	424d                	li	tp,19
 80014ea:	3a4c                	fld	fa1,176(a2)
 80014ec:	4a20                	lw	s0,80(a2)
 80014ee:	6d75                	lui	s10,0x1d
 80014f0:	2070                	fld	fa2,192(s0)
 80014f2:	6f74                	flw	fa3,92(a4)
 80014f4:	4d20                	lw	s0,88(a0)
 80014f6:	6961                	lui	s2,0x18
 80014f8:	206e                	fld	ft0,216(sp)
 80014fa:	6d49                	lui	s10,0x12
 80014fc:	6761                	lui	a4,0x18
 80014fe:	2065                	jal	80015a6 <_sicode+0x2da>
 8001500:	3028                	fld	fa0,96(s0)
 8001502:	2578                	fld	fa4,200(a0)
 8001504:	3830                	fld	fa2,112(s0)
 8001506:	2978                	fld	fa4,208(a0)
 8001508:	0d2e                	slli	s10,s10,0xb
 800150a:	000a                	c.slli	zero,0x2
 800150c:	6d69                	lui	s10,0x1a
 800150e:	6761                	lui	a4,0x18
 8001510:	5f65                	li	t5,-7
 8001512:	5f78                	lw	a4,124(a4)
 8001514:	6176                	flw	ft2,92(sp)
 8001516:	696c                	flw	fa1,84(a0)
 8001518:	6164                	flw	fs1,68(a0)
 800151a:	6574                	flw	fa3,76(a0)
 800151c:	203a                	fld	ft0,392(sp)
 800151e:	6d69                	lui	s10,0x1a
 8001520:	6761                	lui	a4,0x18
 8001522:	2065                	jal	80015ca <_sicode+0x2fe>
 8001524:	7366666f          	jal	a2,8067c5a <__fini_array_end+0x639a2>
 8001528:	7465                	lui	s0,0xffff9
 800152a:	6920                	flw	fs0,80(a0)
 800152c:	78302073          	csrr	zero,0x783
 8001530:	7825                	lui	a6,0xfffe9
 8001532:	0d2e                	slli	s10,s10,0xb
 8001534:	000a                	c.slli	zero,0x2
 8001536:	0000                	unimp
 8001538:	6d69                	lui	s10,0x1a
 800153a:	6761                	lui	a4,0x18
 800153c:	5f65                	li	t5,-7
 800153e:	5f78                	lw	a4,124(a4)
 8001540:	6176                	flw	ft2,92(sp)
 8001542:	696c                	flw	fa1,84(a0)
 8001544:	6164                	flw	fs1,68(a0)
 8001546:	6574                	flw	fa3,76(a0)
 8001548:	203a                	fld	ft0,392(sp)
 800154a:	74726563          	bltu	tp,t2,8001c94 <fmc_offset_value_config>
 800154e:	6f20                	flw	fs0,88(a4)
 8001550:	2072                	fld	ft0,280(sp)
 8001552:	6d69                	lui	s10,0x1a
 8001554:	6761                	lui	a4,0x18
 8001556:	2065                	jal	80015fe <_sicode+0x332>
 8001558:	6576                	flw	fa0,92(sp)
 800155a:	6972                	flw	fs2,28(sp)
 800155c:	6966                	flw	fs2,88(sp)
 800155e:	6465                	lui	s0,0x19
 8001560:	6620                	flw	fs0,72(a2)
 8001562:	6961                	lui	s2,0x18
 8001564:	656c                	flw	fa1,76(a0)
 8001566:	2864                	fld	fs1,208(s0)
 8001568:	6425                	lui	s0,0x9
 800156a:	2e29                	jal	8001884 <main+0x148>
 800156c:	0d20                	addi	s0,sp,664
 800156e:	000a                	c.slli	zero,0x2
 8001570:	424d                	li	tp,19
 8001572:	3a4c                	fld	fa1,176(a2)
 8001574:	4920                	lw	s0,80(a0)
 8001576:	616d                	addi	sp,sp,240
 8001578:	63206567          	0x63206567
 800157c:	7265                	lui	tp,0xffff9
 800157e:	2074                	fld	fa3,192(s0)
 8001580:	6e61                	lui	t3,0x18
 8001582:	2064                	fld	fs1,192(s0)
 8001584:	61676973          	csrrsi	s2,0x616,14
 8001588:	7574                	flw	fa3,108(a0)
 800158a:	6572                	flw	fa0,28(sp)
 800158c:	7620                	flw	fs0,104(a2)
 800158e:	7265                	lui	tp,0xffff9
 8001590:	6669                	lui	a2,0x1a
 8001592:	6569                	lui	a0,0x1a
 8001594:	2064                	fld	fs1,192(s0)
 8001596:	0d2e4b4f          	fnmadd.h	fs6,ft8,fs2,ft1,rmm
 800159a:	000a                	c.slli	zero,0x2
 800159c:	6d69                	lui	s10,0x1a
 800159e:	6761                	lui	a4,0x18
 80015a0:	5f65                	li	t5,-7
 80015a2:	5f78                	lw	a4,124(a4)
 80015a4:	6176                	flw	ft2,92(sp)
 80015a6:	696c                	flw	fa1,84(a0)
 80015a8:	6164                	flw	fs1,68(a0)
 80015aa:	6574                	flw	fa3,76(a0)
 80015ac:	203a                	fld	ft0,392(sp)
 80015ae:	6d49                	lui	s10,0x12
 80015b0:	6761                	lui	a4,0x18
 80015b2:	2065                	jal	800165a <__sf_fake_stderr+0x12>
 80015b4:	6576                	flw	fa0,92(sp)
 80015b6:	6972                	flw	fs2,28(sp)
 80015b8:	6966                	flw	fs2,88(sp)
 80015ba:	6465                	lui	s0,0x19
 80015bc:	6620                	flw	fs0,72(a2)
 80015be:	6961                	lui	s2,0x18
 80015c0:	656c                	flw	fa1,76(a0)
 80015c2:	2064                	fld	fs1,192(s0)
 80015c4:	2528                	fld	fa0,72(a0)
 80015c6:	2964                	fld	fs1,208(a0)
 80015c8:	202e                	fld	ft0,200(sp)
 80015ca:	0a0d                	addi	s4,s4,3
 80015cc:	0000                	unimp
 80015ce:	0000                	unimp
 80015d0:	424d                	li	tp,19
 80015d2:	3a4c                	fld	fa1,176(a2)
 80015d4:	4920                	lw	s0,80(a0)
 80015d6:	616d                	addi	sp,sp,240
 80015d8:	76206567          	0x76206567
 80015dc:	7265                	lui	tp,0xffff9
 80015de:	6669                	lui	a2,0x1a
 80015e0:	6569                	lui	a0,0x1a
 80015e2:	2064                	fld	fs1,192(s0)
 80015e4:	0d2e4b4f          	fnmadd.h	fs6,ft8,fs2,ft1,rmm
 80015e8:	000a                	c.slli	zero,0x2
 80015ea:	0000                	unimp
 80015ec:	7055                	c.lui	zero,0xffff5
 80015ee:	6164                	flw	fs1,68(a0)
 80015f0:	6574                	flw	fa3,76(a0)
 80015f2:	4d20                	lw	s0,88(a0)
 80015f4:	6961                	lui	s2,0x18
 80015f6:	206e                	fld	ft0,216(sp)
 80015f8:	6d49                	lui	s10,0x12
 80015fa:	6761                	lui	a4,0x18
 80015fc:	2065                	jal	80016a4 <__sf_fake_stdout+0x1c>
 80015fe:	6576                	flw	fa0,92(sp)
 8001600:	7372                	flw	ft6,60(sp)
 8001602:	6f69                	lui	t5,0x1a
 8001604:	206e                	fld	ft0,216(sp)
 8001606:	6e756f63          	bltu	a0,t2,8001d04 <gpio_output_options_set+0xe>
 800160a:	6574                	flw	fa3,76(a0)
 800160c:	2072                	fld	ft0,280(sp)
 800160e:	6166                	flw	ft2,88(sp)
 8001610:	6c69                	lui	s8,0x1a
 8001612:	6465                	lui	s0,0x19
 8001614:	2528                	fld	fa0,72(a0)
 8001616:	2964                	fld	fs1,208(a0)
 8001618:	0d2e                	slli	s10,s10,0xb
 800161a:	000a                	c.slli	zero,0x2
 800161c:	424d                	li	tp,19
 800161e:	3a4c                	fld	fa1,176(a2)
 8001620:	4320                	lw	s0,64(a4)
 8001622:	7275                	lui	tp,0xffffd
 8001624:	6572                	flw	fa0,28(sp)
 8001626:	746e                	flw	fs0,248(sp)
 8001628:	6920                	flw	fs0,80(a0)
 800162a:	616d                	addi	sp,sp,240
 800162c:	76206567          	0x76206567
 8001630:	7265                	lui	tp,0xffff9
 8001632:	6e6f6973          	csrrsi	s2,0x6e6,30
 8001636:	6920                	flw	fs0,80(a0)
 8001638:	64252073          	csrs	0x642,a0
 800163c:	252e                	fld	fa0,200(sp)
 800163e:	2e64                	fld	fs1,216(a2)
 8001640:	6425                	lui	s0,0x9
 8001642:	0a0d                	addi	s4,s4,3
 8001644:	0000                	unimp
	...

08001648 <__sf_fake_stderr>:
	...

08001668 <__sf_fake_stdin>:
	...

08001688 <__sf_fake_stdout>:
	...
 80016a8:	2d23 2b30 0020 0000 6c68 004c 6665 4567     #-0+ ...hlL.efgE
 80016b8:	4746 0000 3130 3332 3534 3736 3938 4241     FG..0123456789AB
 80016c8:	4443 4645 0000 0000 3130 3332 3534 3736     CDEF....01234567
 80016d8:	3938 6261 6463 6665 0000 0000 27b4 0000     89abcdef.....'..
 80016e8:	27ca 0000 278a 0000 278a 0000 278a 0000     .'...'...'...'..
 80016f8:	278a 0000 27ca 0000 278a 0000 278a 0000     .'...'...'...'..
 8001708:	278a 0000 278a 0000 2920 0000 2808 0000     .'...'.. )...(..
 8001718:	28f4 0000 278a 0000 278a 0000 294e 0000     .(...'...'..N)..
 8001728:	278a 0000 2808 0000 278a 0000 278a 0000     .'...(...'...'..
 8001738:	28fc 0000                                   .(..

0800173c <main>:
main():
C:/Users/stapi/OneDrive/Desktop/GD32VW553/GD32VW55X_Wifi_BLE_SDK/GD32VW55x_RELEASE_V1.0.2/MBL/mainboot/mbl.c:204
    \param[in]  none
    \param[out] none
    \retval     none
*/
int main(void)
{
 800173c:	7e4012ef          	jal	t0,8002f20 <__riscv_save_0>
 8001740:	7171                	addi	sp,sp,-176
C:/Users/stapi/OneDrive/Desktop/GD32VW553/GD32VW55X_Wifi_BLE_SDK/GD32VW55x_RELEASE_V1.0.2/MBL/mainboot/mbl.c:214
    int secure_boot = 1;
    uint8_t val;
    int ret;

    /* Read Initial boot state from shared SRAM */
    memcpy(&ibl_state, (void *)IBL_SHARED_DATA_START, sizeof(struct ibl_state_t));
 8001742:	200006b7          	lui	a3,0x20000
 8001746:	20068793          	addi	a5,a3,512 # 20000200 <mbedtls_mpi_mul_mpi_sw+0x14091a20>
C:/Users/stapi/OneDrive/Desktop/GD32VW553/GD32VW55X_Wifi_BLE_SDK/GD32VW55x_RELEASE_V1.0.2/MBL/mainboot/mbl.c:208
    uint32_t boot_idx = 0, image_offset = 0;
 800174a:	c402                	sw	zero,8(sp)
 800174c:	c602                	sw	zero,12(sp)
C:/Users/stapi/OneDrive/Desktop/GD32VW553/GD32VW55X_Wifi_BLE_SDK/GD32VW55x_RELEASE_V1.0.2/MBL/mainboot/mbl.c:214
    memcpy(&ibl_state, (void *)IBL_SHARED_DATA_START, sizeof(struct ibl_state_t));
 800174e:	0818                	addi	a4,sp,16
 8001750:	2a068693          	addi	a3,a3,672
 8001754:	0007a803          	lw	a6,0(a5)
 8001758:	43c8                	lw	a0,4(a5)
 800175a:	478c                	lw	a1,8(a5)
 800175c:	47d0                	lw	a2,12(a5)
 800175e:	01072023          	sw	a6,0(a4) # 18000 <__stack_size+0x17000>
 8001762:	c348                	sw	a0,4(a4)
 8001764:	c70c                	sw	a1,8(a4)
 8001766:	c750                	sw	a2,12(a4)
 8001768:	07c1                	addi	a5,a5,16
 800176a:	0741                	addi	a4,a4,16
 800176c:	fed794e3          	bne	a5,a3,8001754 <main+0x18>
C:/Users/stapi/OneDrive/Desktop/GD32VW553/GD32VW55X_Wifi_BLE_SDK/GD32VW55x_RELEASE_V1.0.2/MBL/mainboot/mbl.c:215
    if (ibl_state.magic != IBL_STATE_MAGIC_CODE) { /* Not boot from ROM */
 8001770:	4742                	lw	a4,16(sp)
 8001772:	bacec7b7          	lui	a5,0xbacec
 8001776:	0de78793          	addi	a5,a5,222 # bacec0de <_sp+0x9ace77de>
 800177a:	18f71d63          	bne	a4,a5,8001914 <main+0x1d8>
C:/Users/stapi/OneDrive/Desktop/GD32VW553/GD32VW55X_Wifi_BLE_SDK/GD32VW55x_RELEASE_V1.0.2/MBL/mainboot/mbl.c:222
        memset((void *)IBL_DATA_START, 0, IBL_DATA_SIZE);
        memset(&ibl_state, 0, sizeof(struct ibl_state_t));
    }

    /* Initialize ROM symbols */
    rom_symbol_init();
 800177e:	2ef000ef          	jal	ra,800226c <rom_symbol_init>
C:/Users/stapi/OneDrive/Desktop/GD32VW553/GD32VW55X_Wifi_BLE_SDK/GD32VW55x_RELEASE_V1.0.2/MBL/mainboot/mbl.c:225

    /* Used for image x validation */
    mbedtls_memory_buffer_alloc_init(alloc_buf, sizeof(alloc_buf));
 8001782:	20000537          	lui	a0,0x20000
 8001786:	658d                	lui	a1,0x3
 8001788:	58850513          	addi	a0,a0,1416 # 20000588 <alloc_buf>
 800178c:	20000437          	lui	s0,0x20000
 8001790:	03f58097          	auipc	ra,0x3f58
 8001794:	4b6080e7          	jalr	1206(ra) # bf59c46 <mbedtls_memory_buffer_alloc_init>
C:/Users/stapi/OneDrive/Desktop/GD32VW553/GD32VW55X_Wifi_BLE_SDK/GD32VW55x_RELEASE_V1.0.2/MBL/mainboot/mbl.c:228

    /* Not boot from ROM */
    if (secure_boot == 0) {
 8001798:	36040413          	addi	s0,s0,864 # 20000360 <p_rom_api>
log_uart_init():
C:/Users/stapi/OneDrive/Desktop/GD32VW553/GD32VW55X_Wifi_BLE_SDK/GD32VW55x_RELEASE_V1.0.2/MBL/mainboot/mbl.c:100
        rcu_periph_clock_enable(RCU_GPIOA);
 800179c:	6485                	lui	s1,0x1
 800179e:	c0048513          	addi	a0,s1,-1024 # c00 <__stack_size-0x400>
 80017a2:	2bf5                	jal	8001d9e <rcu_periph_clock_enable>
C:/Users/stapi/OneDrive/Desktop/GD32VW553/GD32VW55X_Wifi_BLE_SDK/GD32VW55x_RELEASE_V1.0.2/MBL/mainboot/mbl.c:101
        rcu_periph_clock_enable(RCU_GPIOB);
 80017a4:	c0148513          	addi	a0,s1,-1023
 80017a8:	2bdd                	jal	8001d9e <rcu_periph_clock_enable>
C:/Users/stapi/OneDrive/Desktop/GD32VW553/GD32VW55X_Wifi_BLE_SDK/GD32VW55x_RELEASE_V1.0.2/MBL/mainboot/mbl.c:102
        rcu_periph_clock_enable(RCU_UART1);
 80017aa:	01148513          	addi	a0,s1,17
 80017ae:	2bc5                	jal	8001d9e <rcu_periph_clock_enable>
C:/Users/stapi/OneDrive/Desktop/GD32VW553/GD32VW55X_Wifi_BLE_SDK/GD32VW55x_RELEASE_V1.0.2/MBL/mainboot/mbl.c:103
        gpio_af_set(GPIOB, GPIO_AF_7, GPIO_PIN_15);  // UART1 TX
 80017b0:	400204b7          	lui	s1,0x40020
 80017b4:	40048513          	addi	a0,s1,1024 # 40020400 <_sp+0x2001bb00>
 80017b8:	6621                	lui	a2,0x8
 80017ba:	459d                	li	a1,7
 80017bc:	2349                	jal	8001d3e <gpio_af_set>
C:/Users/stapi/OneDrive/Desktop/GD32VW553/GD32VW55X_Wifi_BLE_SDK/GD32VW55x_RELEASE_V1.0.2/MBL/mainboot/mbl.c:104
        gpio_af_set(GPIOA, GPIO_AF_3, GPIO_PIN_8);   // UART1 RX
 80017be:	10000613          	li	a2,256
 80017c2:	458d                	li	a1,3
 80017c4:	40020537          	lui	a0,0x40020
 80017c8:	2b9d                	jal	8001d3e <gpio_af_set>
C:/Users/stapi/OneDrive/Desktop/GD32VW553/GD32VW55X_Wifi_BLE_SDK/GD32VW55x_RELEASE_V1.0.2/MBL/mainboot/mbl.c:105
        gpio_mode_set(GPIOA, GPIO_MODE_AF, GPIO_PUPD_NONE, GPIO_PIN_8);
 80017ca:	10000693          	li	a3,256
 80017ce:	4601                	li	a2,0
 80017d0:	4589                	li	a1,2
 80017d2:	40020537          	lui	a0,0x40020
 80017d6:	29c9                	jal	8001ca8 <gpio_mode_set>
C:/Users/stapi/OneDrive/Desktop/GD32VW553/GD32VW55X_Wifi_BLE_SDK/GD32VW55x_RELEASE_V1.0.2/MBL/mainboot/mbl.c:106
        gpio_output_options_set(GPIOA, GPIO_OTYPE_PP, GPIO_OSPEED_25MHZ, GPIO_PIN_8);
 80017d8:	10000693          	li	a3,256
 80017dc:	4609                	li	a2,2
 80017de:	4581                	li	a1,0
 80017e0:	40020537          	lui	a0,0x40020
 80017e4:	2b09                	jal	8001cf6 <gpio_output_options_set>
C:/Users/stapi/OneDrive/Desktop/GD32VW553/GD32VW55X_Wifi_BLE_SDK/GD32VW55x_RELEASE_V1.0.2/MBL/mainboot/mbl.c:107
        gpio_mode_set(GPIOB, GPIO_MODE_AF, GPIO_PUPD_NONE, GPIO_PIN_15);
 80017e6:	40048513          	addi	a0,s1,1024
 80017ea:	66a1                	lui	a3,0x8
 80017ec:	4601                	li	a2,0
 80017ee:	4589                	li	a1,2
 80017f0:	2965                	jal	8001ca8 <gpio_mode_set>
C:/Users/stapi/OneDrive/Desktop/GD32VW553/GD32VW55X_Wifi_BLE_SDK/GD32VW55x_RELEASE_V1.0.2/MBL/mainboot/mbl.c:108
        gpio_output_options_set(GPIOB, GPIO_OTYPE_PP, GPIO_OSPEED_25MHZ, GPIO_PIN_15);
 80017f2:	66a1                	lui	a3,0x8
 80017f4:	4609                	li	a2,2
 80017f6:	4581                	li	a1,0
 80017f8:	40048513          	addi	a0,s1,1024
 80017fc:	29ed                	jal	8001cf6 <gpio_output_options_set>
C:/Users/stapi/OneDrive/Desktop/GD32VW553/GD32VW55X_Wifi_BLE_SDK/GD32VW55x_RELEASE_V1.0.2/MBL/mainboot/mbl.c:123
    usart_deinit(usart_periph);
 80017fe:	400044b7          	lui	s1,0x40004
 8001802:	40048513          	addi	a0,s1,1024 # 40004400 <_sp+0x1ffffb00>
 8001806:	75a000ef          	jal	ra,8001f60 <usart_deinit>
C:/Users/stapi/OneDrive/Desktop/GD32VW553/GD32VW55X_Wifi_BLE_SDK/GD32VW55x_RELEASE_V1.0.2/MBL/mainboot/mbl.c:124
    usart_baudrate_set(usart_periph, 115200U);
 800180a:	65f1                	lui	a1,0x1c
 800180c:	20058593          	addi	a1,a1,512 # 1c200 <__stack_size+0x1b200>
 8001810:	40048513          	addi	a0,s1,1024
 8001814:	7aa000ef          	jal	ra,8001fbe <usart_baudrate_set>
C:/Users/stapi/OneDrive/Desktop/GD32VW553/GD32VW55X_Wifi_BLE_SDK/GD32VW55x_RELEASE_V1.0.2/MBL/mainboot/mbl.c:125
    usart_receive_config(usart_periph, USART_RECEIVE_ENABLE);
 8001818:	4591                	li	a1,4
 800181a:	40048513          	addi	a0,s1,1024
 800181e:	02f000ef          	jal	ra,800204c <usart_receive_config>
C:/Users/stapi/OneDrive/Desktop/GD32VW553/GD32VW55X_Wifi_BLE_SDK/GD32VW55x_RELEASE_V1.0.2/MBL/mainboot/mbl.c:126
    usart_transmit_config(usart_periph, USART_TRANSMIT_ENABLE);
 8001822:	45a1                	li	a1,8
 8001824:	40048513          	addi	a0,s1,1024
 8001828:	017000ef          	jal	ra,800203e <usart_transmit_config>
C:/Users/stapi/OneDrive/Desktop/GD32VW553/GD32VW55X_Wifi_BLE_SDK/GD32VW55x_RELEASE_V1.0.2/MBL/mainboot/mbl.c:127
    usart_interrupt_enable(usart_periph, USART_INT_RBNE);
 800182c:	4595                	li	a1,5
 800182e:	40048513          	addi	a0,s1,1024
 8001832:	045000ef          	jal	ra,8002076 <usart_interrupt_enable>
C:/Users/stapi/OneDrive/Desktop/GD32VW553/GD32VW55X_Wifi_BLE_SDK/GD32VW55x_RELEASE_V1.0.2/MBL/mainboot/mbl.c:129
    usart_enable(usart_periph);
 8001836:	40048513          	addi	a0,s1,1024
 800183a:	7fa000ef          	jal	ra,8002034 <usart_enable>
main():
C:/Users/stapi/OneDrive/Desktop/GD32VW553/GD32VW55X_Wifi_BLE_SDK/GD32VW55x_RELEASE_V1.0.2/MBL/mainboot/mbl.c:251
    }

    /* Reinitialize uart since system clock source changed from IRC16M to HXTAL40M */
    log_uart_init();

    rom_trace_ex(ROM_ALWAYS, "MBL: First print.\r\n");
 800183e:	401c                	lw	a5,0(s0)
 8001840:	080015b7          	lui	a1,0x8001
 8001844:	45058593          	addi	a1,a1,1104 # 8001450 <_sicode+0x184>
 8001848:	43dc                	lw	a5,4(a5)
 800184a:	4505                	li	a0,1
 800184c:	9782                	jalr	a5
C:/Users/stapi/OneDrive/Desktop/GD32VW553/GD32VW55X_Wifi_BLE_SDK/GD32VW55x_RELEASE_V1.0.2/MBL/mainboot/mbl.c:254

    /* Find the correct image to boot, Image 0 or Image 1 */
    ret = boot_image_find(&boot_idx, &image_offset);
 800184e:	006c                	addi	a1,sp,12
 8001850:	0028                	addi	a0,sp,8
 8001852:	490010ef          	jal	ra,8002ce2 <boot_image_find>
C:/Users/stapi/OneDrive/Desktop/GD32VW553/GD32VW55X_Wifi_BLE_SDK/GD32VW55x_RELEASE_V1.0.2/MBL/mainboot/mbl.c:256
    if (ret < 0) {
        rom_trace_ex(ROM_ERR, "No image to boot (ret = %d).\r\n", ret);
 8001856:	401c                	lw	a5,0(s0)
C:/Users/stapi/OneDrive/Desktop/GD32VW553/GD32VW55X_Wifi_BLE_SDK/GD32VW55x_RELEASE_V1.0.2/MBL/mainboot/mbl.c:255
    if (ret < 0) {
 8001858:	14054663          	bltz	a0,80019a4 <main+0x268>
C:/Users/stapi/OneDrive/Desktop/GD32VW553/GD32VW55X_Wifi_BLE_SDK/GD32VW55x_RELEASE_V1.0.2/MBL/mainboot/mbl.c:259
        goto BootFailed;
    } else {
        rom_trace_ex(ROM_ALWAYS, "MBL: Boot from Image %d.\r\n", boot_idx);
 800185c:	43dc                	lw	a5,4(a5)
 800185e:	4622                	lw	a2,8(sp)
 8001860:	080015b7          	lui	a1,0x8001
 8001864:	48458593          	addi	a1,a1,1156 # 8001484 <_sicode+0x1b8>
 8001868:	4505                	li	a0,1
 800186a:	9782                	jalr	a5
C:/Users/stapi/OneDrive/Desktop/GD32VW553/GD32VW55X_Wifi_BLE_SDK/GD32VW55x_RELEASE_V1.0.2/MBL/mainboot/mbl.c:263
    }

    /* If boot from Image 1, config offset mapping */
    if (boot_idx == IMAGE_1) {
 800186c:	4722                	lw	a4,8(sp)
 800186e:	4785                	li	a5,1
 8001870:	16f70a63          	beq	a4,a5,80019e4 <main+0x2a8>
C:/Users/stapi/OneDrive/Desktop/GD32VW553/GD32VW55X_Wifi_BLE_SDK/GD32VW55x_RELEASE_V1.0.2/MBL/mainboot/mbl.c:268
        flash_offset_mapping();
    }

    /* Use HAU DMA to accelerate digest calculation */
    rcu_periph_clock_enable(RCU_DMA);
 8001874:	6505                	lui	a0,0x1
 8001876:	c1550513          	addi	a0,a0,-1003 # c15 <__stack_size-0x3eb>
 800187a:	2315                	jal	8001d9e <rcu_periph_clock_enable>
C:/Users/stapi/OneDrive/Desktop/GD32VW553/GD32VW55X_Wifi_BLE_SDK/GD32VW55x_RELEASE_V1.0.2/MBL/mainboot/mbl.c:269
    rom_digest_haudma_en(1);
 800187c:	401c                	lw	a5,0(s0)
 800187e:	4505                	li	a0,1
 8001880:	5bbc                	lw	a5,112(a5)
 8001882:	9782                	jalr	a5
C:/Users/stapi/OneDrive/Desktop/GD32VW553/GD32VW55X_Wifi_BLE_SDK/GD32VW55x_RELEASE_V1.0.2/MBL/mainboot/mbl.c:272

    /* Verify Image */
    ret = image_x_validate((image_offset - sizeof(struct image_header)), ibl_state.rotpk_hash, ibl_state.ibl_opt);
 8001884:	4532                	lw	a0,12(sp)
 8001886:	02014603          	lbu	a2,32(sp)
 800188a:	104c                	addi	a1,sp,36
 800188c:	1501                	addi	a0,a0,-32
 800188e:	560010ef          	jal	ra,8002dee <image_x_validate>
C:/Users/stapi/OneDrive/Desktop/GD32VW553/GD32VW55X_Wifi_BLE_SDK/GD32VW55x_RELEASE_V1.0.2/MBL/mainboot/mbl.c:274
    if (ret < 0) {
        rom_trace_ex(ROM_ERR, "Validate Image %d failed (ret = %d).\r\n", boot_idx, ret);
 8001892:	401c                	lw	a5,0(s0)
 8001894:	4622                	lw	a2,8(sp)
 8001896:	43dc                	lw	a5,4(a5)
C:/Users/stapi/OneDrive/Desktop/GD32VW553/GD32VW55X_Wifi_BLE_SDK/GD32VW55x_RELEASE_V1.0.2/MBL/mainboot/mbl.c:273
    if (ret < 0) {
 8001898:	12054363          	bltz	a0,80019be <main+0x282>
C:/Users/stapi/OneDrive/Desktop/GD32VW553/GD32VW55X_Wifi_BLE_SDK/GD32VW55x_RELEASE_V1.0.2/MBL/mainboot/mbl.c:278
        rom_sys_set_img_flag(boot_idx, IMG_FLAG_VERIFY_MASK, IMG_FLAG_VERIFY_FAIL);
        goto BootFailed;
    } else {
        rom_trace_ex(ROM_ALWAYS, "MBL: Validate Image %d OK.\r\n", boot_idx);
 800189c:	080015b7          	lui	a1,0x8001
 80018a0:	4c858593          	addi	a1,a1,1224 # 80014c8 <_sicode+0x1fc>
 80018a4:	4505                	li	a0,1
 80018a6:	9782                	jalr	a5
C:/Users/stapi/OneDrive/Desktop/GD32VW553/GD32VW55X_Wifi_BLE_SDK/GD32VW55x_RELEASE_V1.0.2/MBL/mainboot/mbl.c:282
    }

    /* Update Image status and Running Image flag */
    rom_sys_set_img_flag(boot_idx, IMG_FLAG_VERIFY_MASK, IMG_FLAG_VERIFY_OK);
 80018a8:	401c                	lw	a5,0(s0)
 80018aa:	00814503          	lbu	a0,8(sp)
 80018ae:	4609                	li	a2,2
 80018b0:	43bc                	lw	a5,64(a5)
 80018b2:	4599                	li	a1,6
C:/Users/stapi/OneDrive/Desktop/GD32VW553/GD32VW55X_Wifi_BLE_SDK/GD32VW55x_RELEASE_V1.0.2/MBL/mainboot/mbl.c:287
    rom_sys_set_running_img(boot_idx);

    mbedtls_deinit();

    start_addr = FLASH_BASE + image_offset;
 80018b4:	080004b7          	lui	s1,0x8000
C:/Users/stapi/OneDrive/Desktop/GD32VW553/GD32VW55X_Wifi_BLE_SDK/GD32VW55x_RELEASE_V1.0.2/MBL/mainboot/mbl.c:282
    rom_sys_set_img_flag(boot_idx, IMG_FLAG_VERIFY_MASK, IMG_FLAG_VERIFY_OK);
 80018b8:	9782                	jalr	a5
C:/Users/stapi/OneDrive/Desktop/GD32VW553/GD32VW55X_Wifi_BLE_SDK/GD32VW55x_RELEASE_V1.0.2/MBL/mainboot/mbl.c:283
    rom_sys_set_running_img(boot_idx);
 80018ba:	401c                	lw	a5,0(s0)
 80018bc:	00814503          	lbu	a0,8(sp)
 80018c0:	47bc                	lw	a5,72(a5)
 80018c2:	9782                	jalr	a5
mbedtls_deinit():
C:/Users/stapi/OneDrive/Desktop/GD32VW553/GD32VW55X_Wifi_BLE_SDK/GD32VW55x_RELEASE_V1.0.2/MBL/mainboot/mbl.c:167
    mbedtls_platform_set_calloc_free(NULL, NULL);
 80018c4:	4581                	li	a1,0
 80018c6:	4501                	li	a0,0
 80018c8:	03f5d097          	auipc	ra,0x3f5d
 80018cc:	190080e7          	jalr	400(ra) # bf5ea58 <mbedtls_platform_set_calloc_free>
C:/Users/stapi/OneDrive/Desktop/GD32VW553/GD32VW55X_Wifi_BLE_SDK/GD32VW55x_RELEASE_V1.0.2/MBL/mainboot/mbl.c:168
    mbedtls_platform_set_snprintf(NULL);
 80018d0:	4501                	li	a0,0
 80018d2:	03f5d097          	auipc	ra,0x3f5d
 80018d6:	1e0080e7          	jalr	480(ra) # bf5eab2 <mbedtls_platform_set_snprintf>
C:/Users/stapi/OneDrive/Desktop/GD32VW553/GD32VW55X_Wifi_BLE_SDK/GD32VW55x_RELEASE_V1.0.2/MBL/mainboot/mbl.c:169
    mbedtls_platform_set_printf(NULL);
 80018da:	4501                	li	a0,0
 80018dc:	03f5d097          	auipc	ra,0x3f5d
 80018e0:	21c080e7          	jalr	540(ra) # bf5eaf8 <mbedtls_platform_set_printf>
main():
C:/Users/stapi/OneDrive/Desktop/GD32VW553/GD32VW55X_Wifi_BLE_SDK/GD32VW55x_RELEASE_V1.0.2/MBL/mainboot/mbl.c:287
    start_addr = FLASH_BASE + image_offset;
 80018e4:	46b2                	lw	a3,12(sp)
C:/Users/stapi/OneDrive/Desktop/GD32VW553/GD32VW55X_Wifi_BLE_SDK/GD32VW55x_RELEASE_V1.0.2/MBL/mainboot/mbl.c:288
    if (boot_idx == IMAGE_1) {
 80018e6:	4722                	lw	a4,8(sp)
 80018e8:	4785                	li	a5,1
C:/Users/stapi/OneDrive/Desktop/GD32VW553/GD32VW55X_Wifi_BLE_SDK/GD32VW55x_RELEASE_V1.0.2/MBL/mainboot/mbl.c:287
    start_addr = FLASH_BASE + image_offset;
 80018ea:	94b6                	add	s1,s1,a3
C:/Users/stapi/OneDrive/Desktop/GD32VW553/GD32VW55X_Wifi_BLE_SDK/GD32VW55x_RELEASE_V1.0.2/MBL/mainboot/mbl.c:288
    if (boot_idx == IMAGE_1) {
 80018ec:	0cf70563          	beq	a4,a5,80019b6 <main+0x27a>
C:/Users/stapi/OneDrive/Desktop/GD32VW553/GD32VW55X_Wifi_BLE_SDK/GD32VW55x_RELEASE_V1.0.2/MBL/mainboot/mbl.c:291
        rom_trace_ex(ROM_ALWAYS, "MBL: Jump to Main Image (0x%08x).\r\n", FLASH_BASE + RE_IMG_1_OFFSET);
    } else {
        rom_trace_ex(ROM_ALWAYS, "MBL: Jump to Main Image (0x%08x).\r\n", start_addr);
 80018f0:	401c                	lw	a5,0(s0)
 80018f2:	8626                	mv	a2,s1
 80018f4:	43dc                	lw	a5,4(a5)
 80018f6:	080015b7          	lui	a1,0x8001
 80018fa:	4e858593          	addi	a1,a1,1256 # 80014e8 <_sicode+0x21c>
 80018fe:	4505                	li	a0,1
 8001900:	9782                	jalr	a5
C:/Users/stapi/OneDrive/Desktop/GD32VW553/GD32VW55X_Wifi_BLE_SDK/GD32VW55x_RELEASE_V1.0.2/MBL/mainboot/mbl.c:293
    }
    log_uart_idle_wait();
 8001902:	396010ef          	jal	ra,8002c98 <log_uart_idle_wait>
jump_to_main_image():
C:/Users/stapi/OneDrive/Desktop/GD32VW553/GD32VW55X_Wifi_BLE_SDK/GD32VW55x_RELEASE_V1.0.2/MBL/mainboot/mbl.c:189
    __asm volatile("la    a2, reloc_iv;" \
 8001906:	00001617          	auipc	a2,0x1
 800190a:	3d460613          	addi	a2,a2,980 # 8002cda <reloc_iv>
 800190e:	9602                	jalr	a2
C:/Users/stapi/OneDrive/Desktop/GD32VW553/GD32VW55X_Wifi_BLE_SDK/GD32VW55x_RELEASE_V1.0.2/MBL/mainboot/mbl.c:194
    __asm volatile("jr %0":: "r"((uint8_t *)(start_addr)));
 8001910:	8482                	jr	s1
main():
C:/Users/stapi/OneDrive/Desktop/GD32VW553/GD32VW55X_Wifi_BLE_SDK/GD32VW55x_RELEASE_V1.0.2/MBL/mainboot/mbl.c:299 (discriminator 1)

    /* Jump to main image */
    jump_to_main_image(start_addr);

BootFailed:
    while(1);
 8001912:	a001                	j	8001912 <main+0x1d6>
C:/Users/stapi/OneDrive/Desktop/GD32VW553/GD32VW55X_Wifi_BLE_SDK/GD32VW55x_RELEASE_V1.0.2/MBL/mainboot/mbl.c:217
        memset((void *)IBL_DATA_START, 0, IBL_DATA_SIZE);
 8001914:	20000613          	li	a2,512
 8001918:	4581                	li	a1,0
 800191a:	20000537          	lui	a0,0x20000
 800191e:	6ce010ef          	jal	ra,8002fec <memset>
C:/Users/stapi/OneDrive/Desktop/GD32VW553/GD32VW55X_Wifi_BLE_SDK/GD32VW55x_RELEASE_V1.0.2/MBL/mainboot/mbl.c:218
        memset(&ibl_state, 0, sizeof(struct ibl_state_t));
 8001922:	0a000613          	li	a2,160
 8001926:	4581                	li	a1,0
 8001928:	0808                	addi	a0,sp,16
 800192a:	6c2010ef          	jal	ra,8002fec <memset>
C:/Users/stapi/OneDrive/Desktop/GD32VW553/GD32VW55X_Wifi_BLE_SDK/GD32VW55x_RELEASE_V1.0.2/MBL/mainboot/mbl.c:222
    rom_symbol_init();
 800192e:	13f000ef          	jal	ra,800226c <rom_symbol_init>
C:/Users/stapi/OneDrive/Desktop/GD32VW553/GD32VW55X_Wifi_BLE_SDK/GD32VW55x_RELEASE_V1.0.2/MBL/mainboot/mbl.c:225
    mbedtls_memory_buffer_alloc_init(alloc_buf, sizeof(alloc_buf));
 8001932:	20000537          	lui	a0,0x20000
 8001936:	658d                	lui	a1,0x3
 8001938:	58850513          	addi	a0,a0,1416 # 20000588 <alloc_buf>
 800193c:	03f58097          	auipc	ra,0x3f58
 8001940:	30a080e7          	jalr	778(ra) # bf59c46 <mbedtls_memory_buffer_alloc_init>
C:/Users/stapi/OneDrive/Desktop/GD32VW553/GD32VW55X_Wifi_BLE_SDK/GD32VW55x_RELEASE_V1.0.2/MBL/mainboot/mbl.c:229
        rcu_periph_clock_enable(RCU_PKCAU);
 8001944:	6405                	lui	s0,0x1
 8001946:	d0340513          	addi	a0,s0,-765 # d03 <__stack_size-0x2fd>
 800194a:	2991                	jal	8001d9e <rcu_periph_clock_enable>
C:/Users/stapi/OneDrive/Desktop/GD32VW553/GD32VW55X_Wifi_BLE_SDK/GD32VW55x_RELEASE_V1.0.2/MBL/mainboot/mbl.c:230
        rcu_periph_clock_enable(RCU_CAU);
 800194c:	d0440513          	addi	a0,s0,-764
 8001950:	21b9                	jal	8001d9e <rcu_periph_clock_enable>
C:/Users/stapi/OneDrive/Desktop/GD32VW553/GD32VW55X_Wifi_BLE_SDK/GD32VW55x_RELEASE_V1.0.2/MBL/mainboot/mbl.c:231
        rcu_periph_clock_enable(RCU_HAU);
 8001952:	d0540513          	addi	a0,s0,-763
C:/Users/stapi/OneDrive/Desktop/GD32VW553/GD32VW55X_Wifi_BLE_SDK/GD32VW55x_RELEASE_V1.0.2/MBL/mainboot/mbl.c:233
        rom_sys_status_check();
 8001956:	20000437          	lui	s0,0x20000
C:/Users/stapi/OneDrive/Desktop/GD32VW553/GD32VW55X_Wifi_BLE_SDK/GD32VW55x_RELEASE_V1.0.2/MBL/mainboot/mbl.c:231
        rcu_periph_clock_enable(RCU_HAU);
 800195a:	2191                	jal	8001d9e <rcu_periph_clock_enable>
C:/Users/stapi/OneDrive/Desktop/GD32VW553/GD32VW55X_Wifi_BLE_SDK/GD32VW55x_RELEASE_V1.0.2/MBL/mainboot/mbl.c:233
        rom_sys_status_check();
 800195c:	36040413          	addi	s0,s0,864 # 20000360 <p_rom_api>
 8001960:	401c                	lw	a5,0(s0)
 8001962:	57bc                	lw	a5,104(a5)
 8001964:	9782                	jalr	a5
C:/Users/stapi/OneDrive/Desktop/GD32VW553/GD32VW55X_Wifi_BLE_SDK/GD32VW55x_RELEASE_V1.0.2/MBL/mainboot/mbl.c:234
        rom_log_uart_set(LOG_UART);
 8001966:	401c                	lw	a5,0(s0)
 8001968:	40004537          	lui	a0,0x40004
 800196c:	40050513          	addi	a0,a0,1024 # 40004400 <_sp+0x1ffffb00>
 8001970:	57fc                	lw	a5,108(a5)
 8001972:	9782                	jalr	a5
C:/Users/stapi/OneDrive/Desktop/GD32VW553/GD32VW55X_Wifi_BLE_SDK/GD32VW55x_RELEASE_V1.0.2/MBL/mainboot/mbl.c:235
        ret = rom_sys_status_get(SYS_TRACE_LEVEL, LEN_SYS_TRACE_LEVEL, &val);
 8001974:	401c                	lw	a5,0(s0)
 8001976:	00710613          	addi	a2,sp,7
 800197a:	4585                	li	a1,1
 800197c:	5bdc                	lw	a5,52(a5)
 800197e:	4509                	li	a0,2
 8001980:	9782                	jalr	a5
C:/Users/stapi/OneDrive/Desktop/GD32VW553/GD32VW55X_Wifi_BLE_SDK/GD32VW55x_RELEASE_V1.0.2/MBL/mainboot/mbl.c:237
            rom_sys_set_trace_level(val);
 8001982:	401c                	lw	a5,0(s0)
C:/Users/stapi/OneDrive/Desktop/GD32VW553/GD32VW55X_Wifi_BLE_SDK/GD32VW55x_RELEASE_V1.0.2/MBL/mainboot/mbl.c:236
        if (ret == SYS_STATUS_OK) {
 8001984:	ed21                	bnez	a0,80019dc <main+0x2a0>
C:/Users/stapi/OneDrive/Desktop/GD32VW553/GD32VW55X_Wifi_BLE_SDK/GD32VW55x_RELEASE_V1.0.2/MBL/mainboot/mbl.c:237
            rom_sys_set_trace_level(val);
 8001986:	00714503          	lbu	a0,7(sp)
 800198a:	5f9c                	lw	a5,56(a5)
 800198c:	9782                	jalr	a5
C:/Users/stapi/OneDrive/Desktop/GD32VW553/GD32VW55X_Wifi_BLE_SDK/GD32VW55x_RELEASE_V1.0.2/MBL/mainboot/mbl.c:242
        mbedtls_platform_set_hardware_poll(rom_hardware_poll);
 800198e:	401c                	lw	a5,0(s0)
 8001990:	47c8                	lw	a0,12(a5)
 8001992:	03f57097          	auipc	ra,0x3f57
 8001996:	96a080e7          	jalr	-1686(ra) # bf582fc <mbedtls_platform_set_hardware_poll>
C:/Users/stapi/OneDrive/Desktop/GD32VW553/GD32VW55X_Wifi_BLE_SDK/GD32VW55x_RELEASE_V1.0.2/MBL/mainboot/mbl.c:245
        mbedtls_ecp_curve_val_init();
 800199a:	03f55097          	auipc	ra,0x3f55
 800199e:	690080e7          	jalr	1680(ra) # bf5702a <mbedtls_ecp_curve_val_init>
 80019a2:	bbed                	j	800179c <main+0x60>
C:/Users/stapi/OneDrive/Desktop/GD32VW553/GD32VW55X_Wifi_BLE_SDK/GD32VW55x_RELEASE_V1.0.2/MBL/mainboot/mbl.c:256
        rom_trace_ex(ROM_ERR, "No image to boot (ret = %d).\r\n", ret);
 80019a4:	43dc                	lw	a5,4(a5)
 80019a6:	080015b7          	lui	a1,0x8001
 80019aa:	862a                	mv	a2,a0
 80019ac:	46458593          	addi	a1,a1,1124 # 8001464 <_sicode+0x198>
 80019b0:	4509                	li	a0,2
 80019b2:	9782                	jalr	a5
C:/Users/stapi/OneDrive/Desktop/GD32VW553/GD32VW55X_Wifi_BLE_SDK/GD32VW55x_RELEASE_V1.0.2/MBL/mainboot/mbl.c:257
        goto BootFailed;
 80019b4:	bfb9                	j	8001912 <main+0x1d6>
C:/Users/stapi/OneDrive/Desktop/GD32VW553/GD32VW55X_Wifi_BLE_SDK/GD32VW55x_RELEASE_V1.0.2/MBL/mainboot/mbl.c:289
        rom_trace_ex(ROM_ALWAYS, "MBL: Jump to Main Image (0x%08x).\r\n", FLASH_BASE + RE_IMG_1_OFFSET);
 80019b6:	401c                	lw	a5,0(s0)
 80019b8:	081e0637          	lui	a2,0x81e0
 80019bc:	bf25                	j	80018f4 <main+0x1b8>
C:/Users/stapi/OneDrive/Desktop/GD32VW553/GD32VW55X_Wifi_BLE_SDK/GD32VW55x_RELEASE_V1.0.2/MBL/mainboot/mbl.c:274
        rom_trace_ex(ROM_ERR, "Validate Image %d failed (ret = %d).\r\n", boot_idx, ret);
 80019be:	080015b7          	lui	a1,0x8001
 80019c2:	86aa                	mv	a3,a0
 80019c4:	4a058593          	addi	a1,a1,1184 # 80014a0 <_sicode+0x1d4>
 80019c8:	4509                	li	a0,2
 80019ca:	9782                	jalr	a5
C:/Users/stapi/OneDrive/Desktop/GD32VW553/GD32VW55X_Wifi_BLE_SDK/GD32VW55x_RELEASE_V1.0.2/MBL/mainboot/mbl.c:275
        rom_sys_set_img_flag(boot_idx, IMG_FLAG_VERIFY_MASK, IMG_FLAG_VERIFY_FAIL);
 80019cc:	401c                	lw	a5,0(s0)
 80019ce:	00814503          	lbu	a0,8(sp)
 80019d2:	4611                	li	a2,4
 80019d4:	43bc                	lw	a5,64(a5)
 80019d6:	4599                	li	a1,6
 80019d8:	9782                	jalr	a5
C:/Users/stapi/OneDrive/Desktop/GD32VW553/GD32VW55X_Wifi_BLE_SDK/GD32VW55x_RELEASE_V1.0.2/MBL/mainboot/mbl.c:276
        goto BootFailed;
 80019da:	bf25                	j	8001912 <main+0x1d6>
C:/Users/stapi/OneDrive/Desktop/GD32VW553/GD32VW55X_Wifi_BLE_SDK/GD32VW55x_RELEASE_V1.0.2/MBL/mainboot/mbl.c:239
            rom_sys_set_trace_level(ROM_INFO);
 80019dc:	5f9c                	lw	a5,56(a5)
 80019de:	4511                	li	a0,4
 80019e0:	9782                	jalr	a5
 80019e2:	b775                	j	800198e <main+0x252>
C:/Users/stapi/OneDrive/Desktop/GD32VW553/GD32VW55X_Wifi_BLE_SDK/GD32VW55x_RELEASE_V1.0.2/MBL/mainboot/mbl.c:264
        flash_offset_mapping();
 80019e4:	2ce010ef          	jal	ra,8002cb2 <flash_offset_mapping>
 80019e8:	b571                	j	8001874 <main+0x138>
	...

08001a00 <exc_entry>:
exc_entry():
C:/Users/stapi/OneDrive/Desktop/GD32VW553/GD32VW55X_Wifi_BLE_SDK/GD32VW55x_RELEASE_V1.0.2/MSDK/plf/riscv/env/entry.S:235
.align 6
.global exc_entry
.weak exc_entry
exc_entry:
    /* Save the caller saving registers (context) */
    SAVE_CONTEXT
 8001a00:	34911173          	csrrw	sp,mscratchcswl,sp
 8001a04:	715d                	addi	sp,sp,-80
 8001a06:	c006                	sw	ra,0(sp)
 8001a08:	c212                	sw	tp,4(sp)
 8001a0a:	c416                	sw	t0,8(sp)
 8001a0c:	c61a                	sw	t1,12(sp)
 8001a0e:	c81e                	sw	t2,16(sp)
 8001a10:	ca2a                	sw	a0,20(sp)
 8001a12:	cc2e                	sw	a1,24(sp)
 8001a14:	ce32                	sw	a2,28(sp)
 8001a16:	d036                	sw	a3,32(sp)
 8001a18:	d23a                	sw	a4,36(sp)
 8001a1a:	d43e                	sw	a5,40(sp)
 8001a1c:	dc42                	sw	a6,56(sp)
 8001a1e:	de46                	sw	a7,60(sp)
 8001a20:	c0f2                	sw	t3,64(sp)
 8001a22:	c2f6                	sw	t4,68(sp)
 8001a24:	c4fa                	sw	t5,72(sp)
 8001a26:	c6fe                	sw	t6,76(sp)
 8001a28:	7ee5d073          	csrwi	pushmcause,11
 8001a2c:	7ef65073          	csrwi	pushmepc,12
 8001a30:	7eb6d073          	csrwi	pushmsubm,13
 8001a34:	1171                	addi	sp,sp,-4
 8001a36:	003022f3          	frcsr	t0
 8001a3a:	c016                	sw	t0,0(sp)
 8001a3c:	715d                	addi	sp,sp,-80
 8001a3e:	e002                	fsw	ft0,0(sp)
 8001a40:	e206                	fsw	ft1,4(sp)
 8001a42:	e40a                	fsw	ft2,8(sp)
 8001a44:	e60e                	fsw	ft3,12(sp)
 8001a46:	e812                	fsw	ft4,16(sp)
 8001a48:	ea16                	fsw	ft5,20(sp)
 8001a4a:	ec1a                	fsw	ft6,24(sp)
 8001a4c:	ee1e                	fsw	ft7,28(sp)
 8001a4e:	f02a                	fsw	fa0,32(sp)
 8001a50:	f22e                	fsw	fa1,36(sp)
 8001a52:	f432                	fsw	fa2,40(sp)
 8001a54:	f636                	fsw	fa3,44(sp)
 8001a56:	f83a                	fsw	fa4,48(sp)
 8001a58:	fa3e                	fsw	fa5,52(sp)
 8001a5a:	fc42                	fsw	fa6,56(sp)
 8001a5c:	fe46                	fsw	fa7,60(sp)
 8001a5e:	e0f2                	fsw	ft8,64(sp)
 8001a60:	e2f6                	fsw	ft9,68(sp)
 8001a62:	e4fa                	fsw	ft10,72(sp)
 8001a64:	e6fe                	fsw	ft11,76(sp)
C:/Users/stapi/OneDrive/Desktop/GD32VW553/GD32VW55X_Wifi_BLE_SDK/GD32VW55x_RELEASE_V1.0.2/MSDK/plf/riscv/env/entry.S:242
    /*
     * Set the exception handler function arguments
     * argument 1: mcause value
     * argument 2: current stack point(SP) value
     */
    csrr a0, mcause
 8001a66:	34202573          	csrr	a0,mcause
C:/Users/stapi/OneDrive/Desktop/GD32VW553/GD32VW55X_Wifi_BLE_SDK/GD32VW55x_RELEASE_V1.0.2/MSDK/plf/riscv/env/entry.S:243
    mv a1, sp
 8001a6a:	858a                	mv	a1,sp
C:/Users/stapi/OneDrive/Desktop/GD32VW553/GD32VW55X_Wifi_BLE_SDK/GD32VW55x_RELEASE_V1.0.2/MSDK/plf/riscv/env/entry.S:249
    /*
     * TODO: Call the exception handler function
     * By default, the function template is provided in
     * system_gd32vw55x.c, you can adjust it as you want
     */
    call core_exception_handler
 8001a6c:	2da9                	jal	80020c6 <core_exception_handler>
C:/Users/stapi/OneDrive/Desktop/GD32VW553/GD32VW55X_Wifi_BLE_SDK/GD32VW55x_RELEASE_V1.0.2/MSDK/plf/riscv/env/entry.S:252

    /* Restore the caller saving registers (context) */
    RESTORE_CONTEXT
 8001a6e:	6002                	flw	ft0,0(sp)
 8001a70:	6092                	flw	ft1,4(sp)
 8001a72:	6122                	flw	ft2,8(sp)
 8001a74:	61b2                	flw	ft3,12(sp)
 8001a76:	6242                	flw	ft4,16(sp)
 8001a78:	62d2                	flw	ft5,20(sp)
 8001a7a:	6362                	flw	ft6,24(sp)
 8001a7c:	63f2                	flw	ft7,28(sp)
 8001a7e:	7502                	flw	fa0,32(sp)
 8001a80:	7592                	flw	fa1,36(sp)
 8001a82:	7622                	flw	fa2,40(sp)
 8001a84:	76b2                	flw	fa3,44(sp)
 8001a86:	7742                	flw	fa4,48(sp)
 8001a88:	77d2                	flw	fa5,52(sp)
 8001a8a:	7862                	flw	fa6,56(sp)
 8001a8c:	78f2                	flw	fa7,60(sp)
 8001a8e:	6e06                	flw	ft8,64(sp)
 8001a90:	6e96                	flw	ft9,68(sp)
 8001a92:	6f26                	flw	ft10,72(sp)
 8001a94:	6fb6                	flw	ft11,76(sp)
 8001a96:	6161                	addi	sp,sp,80
 8001a98:	4282                	lw	t0,0(sp)
 8001a9a:	00329073          	fscsr	t0
 8001a9e:	0111                	addi	sp,sp,4
 8001aa0:	52d2                	lw	t0,52(sp)
 8001aa2:	7c429073          	csrw	msubm,t0
 8001aa6:	52c2                	lw	t0,48(sp)
 8001aa8:	34129073          	csrw	mepc,t0
 8001aac:	52b2                	lw	t0,44(sp)
 8001aae:	34229073          	csrw	mcause,t0
 8001ab2:	4082                	lw	ra,0(sp)
 8001ab4:	4212                	lw	tp,4(sp)
 8001ab6:	42a2                	lw	t0,8(sp)
 8001ab8:	4332                	lw	t1,12(sp)
 8001aba:	43c2                	lw	t2,16(sp)
 8001abc:	4552                	lw	a0,20(sp)
 8001abe:	45e2                	lw	a1,24(sp)
 8001ac0:	4672                	lw	a2,28(sp)
 8001ac2:	5682                	lw	a3,32(sp)
 8001ac4:	5712                	lw	a4,36(sp)
 8001ac6:	57a2                	lw	a5,40(sp)
 8001ac8:	5862                	lw	a6,56(sp)
 8001aca:	58f2                	lw	a7,60(sp)
 8001acc:	4e06                	lw	t3,64(sp)
 8001ace:	4e96                	lw	t4,68(sp)
 8001ad0:	4f26                	lw	t5,72(sp)
 8001ad2:	4fb6                	lw	t6,76(sp)
 8001ad4:	6161                	addi	sp,sp,80
 8001ad6:	34911173          	csrrw	sp,mscratchcswl,sp
C:/Users/stapi/OneDrive/Desktop/GD32VW553/GD32VW55X_Wifi_BLE_SDK/GD32VW55x_RELEASE_V1.0.2/MSDK/plf/riscv/env/entry.S:255

    /* Return to regular code */
    mret
 8001ada:	30200073          	mret
	...

08001afc <irq_entry>:
irq_entry():
C:/Users/stapi/OneDrive/Desktop/GD32VW553/GD32VW55X_Wifi_BLE_SDK/GD32VW55x_RELEASE_V1.0.2/MSDK/plf/riscv/env/entry.S:275
.global irq_entry
.weak irq_entry
/* This label will be set to MTVT2 register */
irq_entry:
    /* Save the caller saving registers (context) */
    SAVE_CONTEXT
 8001afc:	34911173          	csrrw	sp,mscratchcswl,sp
 8001b00:	715d                	addi	sp,sp,-80
 8001b02:	c006                	sw	ra,0(sp)
 8001b04:	c212                	sw	tp,4(sp)
 8001b06:	c416                	sw	t0,8(sp)
 8001b08:	c61a                	sw	t1,12(sp)
 8001b0a:	c81e                	sw	t2,16(sp)
 8001b0c:	ca2a                	sw	a0,20(sp)
 8001b0e:	cc2e                	sw	a1,24(sp)
 8001b10:	ce32                	sw	a2,28(sp)
 8001b12:	d036                	sw	a3,32(sp)
 8001b14:	d23a                	sw	a4,36(sp)
 8001b16:	d43e                	sw	a5,40(sp)
 8001b18:	dc42                	sw	a6,56(sp)
 8001b1a:	de46                	sw	a7,60(sp)
 8001b1c:	c0f2                	sw	t3,64(sp)
 8001b1e:	c2f6                	sw	t4,68(sp)
 8001b20:	c4fa                	sw	t5,72(sp)
 8001b22:	c6fe                	sw	t6,76(sp)
 8001b24:	7ee5d073          	csrwi	pushmcause,11
 8001b28:	7ef65073          	csrwi	pushmepc,12
 8001b2c:	7eb6d073          	csrwi	pushmsubm,13
 8001b30:	1171                	addi	sp,sp,-4
 8001b32:	003022f3          	frcsr	t0
 8001b36:	c016                	sw	t0,0(sp)
 8001b38:	715d                	addi	sp,sp,-80
 8001b3a:	e002                	fsw	ft0,0(sp)
 8001b3c:	e206                	fsw	ft1,4(sp)
 8001b3e:	e40a                	fsw	ft2,8(sp)
 8001b40:	e60e                	fsw	ft3,12(sp)
 8001b42:	e812                	fsw	ft4,16(sp)
 8001b44:	ea16                	fsw	ft5,20(sp)
 8001b46:	ec1a                	fsw	ft6,24(sp)
 8001b48:	ee1e                	fsw	ft7,28(sp)
 8001b4a:	f02a                	fsw	fa0,32(sp)
 8001b4c:	f22e                	fsw	fa1,36(sp)
 8001b4e:	f432                	fsw	fa2,40(sp)
 8001b50:	f636                	fsw	fa3,44(sp)
 8001b52:	f83a                	fsw	fa4,48(sp)
 8001b54:	fa3e                	fsw	fa5,52(sp)
 8001b56:	fc42                	fsw	fa6,56(sp)
 8001b58:	fe46                	fsw	fa7,60(sp)
 8001b5a:	e0f2                	fsw	ft8,64(sp)
 8001b5c:	e2f6                	fsw	ft9,68(sp)
 8001b5e:	e4fa                	fsw	ft10,72(sp)
 8001b60:	e6fe                	fsw	ft11,76(sp)
C:/Users/stapi/OneDrive/Desktop/GD32VW553/GD32VW55X_Wifi_BLE_SDK/GD32VW55x_RELEASE_V1.0.2/MSDK/plf/riscv/env/entry.S:282
    /* This special CSR read/write operation, which is actually
     * claim the CLIC to find its pending highest ID, if the ID
     * is not 0, then automatically enable the mstatus.MIE, and
     * jump to its vector-entry-label, and update the link register
     */
    csrrw ra, CSR_JALMNXTI, ra
 8001b62:	7ed090f3          	csrrw	ra,jalmnxti,ra
C:/Users/stapi/OneDrive/Desktop/GD32VW553/GD32VW55X_Wifi_BLE_SDK/GD32VW55x_RELEASE_V1.0.2/MSDK/plf/riscv/env/entry.S:285

    /* Critical section with interrupts disabled */
    DISABLE_MIE
 8001b66:	30047073          	csrci	mstatus,8
C:/Users/stapi/OneDrive/Desktop/GD32VW553/GD32VW55X_Wifi_BLE_SDK/GD32VW55x_RELEASE_V1.0.2/MSDK/plf/riscv/env/entry.S:288

    /* Restore the caller saving registers (context) */
    RESTORE_CONTEXT
 8001b6a:	6002                	flw	ft0,0(sp)
 8001b6c:	6092                	flw	ft1,4(sp)
 8001b6e:	6122                	flw	ft2,8(sp)
 8001b70:	61b2                	flw	ft3,12(sp)
 8001b72:	6242                	flw	ft4,16(sp)
 8001b74:	62d2                	flw	ft5,20(sp)
 8001b76:	6362                	flw	ft6,24(sp)
 8001b78:	63f2                	flw	ft7,28(sp)
 8001b7a:	7502                	flw	fa0,32(sp)
 8001b7c:	7592                	flw	fa1,36(sp)
 8001b7e:	7622                	flw	fa2,40(sp)
 8001b80:	76b2                	flw	fa3,44(sp)
 8001b82:	7742                	flw	fa4,48(sp)
 8001b84:	77d2                	flw	fa5,52(sp)
 8001b86:	7862                	flw	fa6,56(sp)
 8001b88:	78f2                	flw	fa7,60(sp)
 8001b8a:	6e06                	flw	ft8,64(sp)
 8001b8c:	6e96                	flw	ft9,68(sp)
 8001b8e:	6f26                	flw	ft10,72(sp)
 8001b90:	6fb6                	flw	ft11,76(sp)
 8001b92:	6161                	addi	sp,sp,80
 8001b94:	4282                	lw	t0,0(sp)
 8001b96:	00329073          	fscsr	t0
 8001b9a:	0111                	addi	sp,sp,4
 8001b9c:	52d2                	lw	t0,52(sp)
 8001b9e:	7c429073          	csrw	msubm,t0
 8001ba2:	52c2                	lw	t0,48(sp)
 8001ba4:	34129073          	csrw	mepc,t0
 8001ba8:	52b2                	lw	t0,44(sp)
 8001baa:	34229073          	csrw	mcause,t0
 8001bae:	4082                	lw	ra,0(sp)
 8001bb0:	4212                	lw	tp,4(sp)
 8001bb2:	42a2                	lw	t0,8(sp)
 8001bb4:	4332                	lw	t1,12(sp)
 8001bb6:	43c2                	lw	t2,16(sp)
 8001bb8:	4552                	lw	a0,20(sp)
 8001bba:	45e2                	lw	a1,24(sp)
 8001bbc:	4672                	lw	a2,28(sp)
 8001bbe:	5682                	lw	a3,32(sp)
 8001bc0:	5712                	lw	a4,36(sp)
 8001bc2:	57a2                	lw	a5,40(sp)
 8001bc4:	5862                	lw	a6,56(sp)
 8001bc6:	58f2                	lw	a7,60(sp)
 8001bc8:	4e06                	lw	t3,64(sp)
 8001bca:	4e96                	lw	t4,68(sp)
 8001bcc:	4f26                	lw	t5,72(sp)
 8001bce:	4fb6                	lw	t6,76(sp)
 8001bd0:	6161                	addi	sp,sp,80
 8001bd2:	34911173          	csrrw	sp,mscratchcswl,sp
C:/Users/stapi/OneDrive/Desktop/GD32VW553/GD32VW55X_Wifi_BLE_SDK/GD32VW55x_RELEASE_V1.0.2/MSDK/plf/riscv/env/entry.S:291

    /* Return to regular code */
    mret
 8001bd6:	30200073          	mret

08001bda <default_intexc_handler>:
Undef_Handler():
C:/Users/stapi/OneDrive/Desktop/GD32VW553/GD32VW55X_Wifi_BLE_SDK/GD32VW55x_RELEASE_V1.0.2/MSDK/plf/riscv/env/entry.S:299
.global default_intexc_handler
.weak default_intexc_handler
Undef_Handler:
default_intexc_handler:
1:
    j 1b
 8001bda:	a001                	j	8001bda <default_intexc_handler>
	...

08001bde <eclic_global_interrupt_enable>:
__enable_irq():
C:\Users\stapi\OneDrive\Desktop\GD32VW553\GD32VW55X_Wifi_BLE_SDK\GD32VW55x_RELEASE_V1.0.2\MBL\project\eclipse\Debug/../../../../MSDK/plf/riscv/NMSIS/Core/Include/core_feature_base.h:598
 * \remarks
 *          Can only be executed in Privileged modes.
 */
__STATIC_FORCEINLINE void __enable_irq(void)
{
    __RV_CSR_SET(CSR_MSTATUS, MSTATUS_MIE);
 8001bde:	47a1                	li	a5,8
 8001be0:	3007a073          	csrs	mstatus,a5
eclic_global_interrupt_enable():
C:/Users/stapi/OneDrive/Desktop/GD32VW553/GD32VW55X_Wifi_BLE_SDK/GD32VW55x_RELEASE_V1.0.2/MSDK/plf/GD32VW55x_standard_peripheral/Source/gd32vw55x_eclic.c:47
    \retval     none
*/
void eclic_global_interrupt_enable(void)
{
    __enable_irq();
}
 8001be4:	8082                	ret

08001be6 <eclic_level_threshold_set>:
__ECLIC_SetMth():
C:\Users\stapi\OneDrive\Desktop\GD32VW553\GD32VW55X_Wifi_BLE_SDK\GD32VW55x_RELEASE_V1.0.2\MBL\project\eclipse\Debug/../../../../MSDK/plf/riscv/NMSIS/Core/Include/core_feature_eclic.h:338
 * \sa
 * - \ref ECLIC_GetMth
 */
__STATIC_FORCEINLINE void __ECLIC_SetMth(uint8_t mth)
{
    ECLIC->MTH = mth;
 8001be6:	d20007b7          	lui	a5,0xd2000
 8001bea:	00a785a3          	sb	a0,11(a5) # d200000b <_sp+0xb1ffb70b>
eclic_level_threshold_set():
C:/Users/stapi/OneDrive/Desktop/GD32VW553/GD32VW55X_Wifi_BLE_SDK/GD32VW55x_RELEASE_V1.0.2/MSDK/plf/GD32VW55x_standard_peripheral/Source/gd32vw55x_eclic.c:69
    \retval     none
*/
void eclic_level_threshold_set(uint8_t threshold)
{
    ECLIC_SetMth(threshold);
}
 8001bee:	8082                	ret

08001bf0 <eclic_priority_group_set>:
__ECLIC_SetCfgNlbits():
C:\Users\stapi\OneDrive\Desktop\GD32VW553\GD32VW55X_Wifi_BLE_SDK\GD32VW55x_RELEASE_V1.0.2\MBL\project\eclipse\Debug/../../../../MSDK/plf/riscv/NMSIS/Core/Include/core_feature_eclic.h:260
    ECLIC->CFG &= ~CLIC_CLICCFG_NLBIT_Msk;
 8001bf0:	d20007b7          	lui	a5,0xd2000
 8001bf4:	0007c703          	lbu	a4,0(a5) # d2000000 <_sp+0xb1ffb700>
C:\Users\stapi\OneDrive\Desktop\GD32VW553\GD32VW55X_Wifi_BLE_SDK\GD32VW55x_RELEASE_V1.0.2\MBL\project\eclipse\Debug/../../../../MSDK/plf/riscv/NMSIS/Core/Include/core_feature_eclic.h:261
    ECLIC->CFG |= (uint8_t)((nlbits <<CLIC_CLICCFG_NLBIT_Pos) & CLIC_CLICCFG_NLBIT_Msk);
 8001bf8:	0506                	slli	a0,a0,0x1
 8001bfa:	8979                	andi	a0,a0,30
C:\Users\stapi\OneDrive\Desktop\GD32VW553\GD32VW55X_Wifi_BLE_SDK\GD32VW55x_RELEASE_V1.0.2\MBL\project\eclipse\Debug/../../../../MSDK/plf/riscv/NMSIS/Core/Include/core_feature_eclic.h:260
    ECLIC->CFG &= ~CLIC_CLICCFG_NLBIT_Msk;
 8001bfc:	0e177713          	andi	a4,a4,225
 8001c00:	00e78023          	sb	a4,0(a5)
C:\Users\stapi\OneDrive\Desktop\GD32VW553\GD32VW55X_Wifi_BLE_SDK\GD32VW55x_RELEASE_V1.0.2\MBL\project\eclipse\Debug/../../../../MSDK/plf/riscv/NMSIS/Core/Include/core_feature_eclic.h:261
    ECLIC->CFG |= (uint8_t)((nlbits <<CLIC_CLICCFG_NLBIT_Pos) & CLIC_CLICCFG_NLBIT_Msk);
 8001c04:	0007c703          	lbu	a4,0(a5)
 8001c08:	0ff77713          	zext.b	a4,a4
 8001c0c:	8d59                	or	a0,a0,a4
 8001c0e:	00a78023          	sb	a0,0(a5)
eclic_priority_group_set():
C:/Users/stapi/OneDrive/Desktop/GD32VW553/GD32VW55X_Wifi_BLE_SDK/GD32VW55x_RELEASE_V1.0.2/MSDK/plf/GD32VW55x_standard_peripheral/Source/gd32vw55x_eclic.c:85
    \retval     none
*/
void eclic_priority_group_set(uint8_t prigroup)
{
    ECLIC_SetCfgNlbits(prigroup);
}
 8001c12:	8082                	ret

08001c14 <fmc_unlock>:
fmc_unlock():
C:/Users/stapi/OneDrive/Desktop/GD32VW553/GD32VW55X_Wifi_BLE_SDK/GD32VW55x_RELEASE_V1.0.2/MSDK/plf/GD32VW55x_standard_peripheral/Source/gd32vw55x_fmc.c:56
    \param[out] none
    \retval     none
*/
void fmc_unlock(void)
{
    if(RESET != (FMC_CTL & FMC_CTL_LK)){
 8001c14:	40022737          	lui	a4,0x40022
 8001c18:	4b1c                	lw	a5,16(a4)
 8001c1a:	0807f793          	andi	a5,a5,128
 8001c1e:	cb99                	beqz	a5,8001c34 <fmc_unlock+0x20>
C:/Users/stapi/OneDrive/Desktop/GD32VW553/GD32VW55X_Wifi_BLE_SDK/GD32VW55x_RELEASE_V1.0.2/MSDK/plf/GD32VW55x_standard_peripheral/Source/gd32vw55x_fmc.c:58
        /* write the FMC unlock key */
        FMC_KEY = UNLOCK_KEY0;
 8001c20:	456707b7          	lui	a5,0x45670
 8001c24:	12378793          	addi	a5,a5,291 # 45670123 <_sp+0x2566b823>
 8001c28:	c35c                	sw	a5,4(a4)
C:/Users/stapi/OneDrive/Desktop/GD32VW553/GD32VW55X_Wifi_BLE_SDK/GD32VW55x_RELEASE_V1.0.2/MSDK/plf/GD32VW55x_standard_peripheral/Source/gd32vw55x_fmc.c:59
        FMC_KEY = UNLOCK_KEY1;
 8001c2a:	cdef97b7          	lui	a5,0xcdef9
 8001c2e:	9ab78793          	addi	a5,a5,-1621 # cdef89ab <_sp+0xadef40ab>
 8001c32:	c35c                	sw	a5,4(a4)
C:/Users/stapi/OneDrive/Desktop/GD32VW553/GD32VW55X_Wifi_BLE_SDK/GD32VW55x_RELEASE_V1.0.2/MSDK/plf/GD32VW55x_standard_peripheral/Source/gd32vw55x_fmc.c:61
    }
}
 8001c34:	8082                	ret

08001c36 <fmc_lock>:
fmc_lock():
C:/Users/stapi/OneDrive/Desktop/GD32VW553/GD32VW55X_Wifi_BLE_SDK/GD32VW55x_RELEASE_V1.0.2/MSDK/plf/GD32VW55x_standard_peripheral/Source/gd32vw55x_fmc.c:73
    \retval     none
*/
void fmc_lock(void)
{
    /* set the LK bit */
    FMC_CTL |= FMC_CTL_LK;
 8001c36:	40022737          	lui	a4,0x40022
 8001c3a:	4b1c                	lw	a5,16(a4)
 8001c3c:	0807e793          	ori	a5,a5,128
 8001c40:	cb1c                	sw	a5,16(a4)
C:/Users/stapi/OneDrive/Desktop/GD32VW553/GD32VW55X_Wifi_BLE_SDK/GD32VW55x_RELEASE_V1.0.2/MSDK/plf/GD32VW55x_standard_peripheral/Source/gd32vw55x_fmc.c:74
}
 8001c42:	8082                	ret

08001c44 <ob_unlock>:
ob_unlock():
C:/Users/stapi/OneDrive/Desktop/GD32VW553/GD32VW55X_Wifi_BLE_SDK/GD32VW55x_RELEASE_V1.0.2/MSDK/plf/GD32VW55x_standard_peripheral/Source/gd32vw55x_fmc.c:244
    \param[out] none
    \retval     none
*/
void ob_unlock(void)
{
    if (RESET == (FMC_CTL & FMC_CTL_OBWEN)){
 8001c44:	40022737          	lui	a4,0x40022
 8001c48:	4b1c                	lw	a5,16(a4)
 8001c4a:	2007f793          	andi	a5,a5,512
 8001c4e:	eb99                	bnez	a5,8001c64 <ob_unlock+0x20>
C:/Users/stapi/OneDrive/Desktop/GD32VW553/GD32VW55X_Wifi_BLE_SDK/GD32VW55x_RELEASE_V1.0.2/MSDK/plf/GD32VW55x_standard_peripheral/Source/gd32vw55x_fmc.c:246
        /* write the FMC ob unlock key */
        FMC_OBKEY = UNLOCK_KEY0;
 8001c50:	456707b7          	lui	a5,0x45670
 8001c54:	12378793          	addi	a5,a5,291 # 45670123 <_sp+0x2566b823>
 8001c58:	c71c                	sw	a5,8(a4)
C:/Users/stapi/OneDrive/Desktop/GD32VW553/GD32VW55X_Wifi_BLE_SDK/GD32VW55x_RELEASE_V1.0.2/MSDK/plf/GD32VW55x_standard_peripheral/Source/gd32vw55x_fmc.c:247
        FMC_OBKEY = UNLOCK_KEY1;
 8001c5a:	cdef97b7          	lui	a5,0xcdef9
 8001c5e:	9ab78793          	addi	a5,a5,-1621 # cdef89ab <_sp+0xadef40ab>
 8001c62:	c71c                	sw	a5,8(a4)
C:/Users/stapi/OneDrive/Desktop/GD32VW553/GD32VW55X_Wifi_BLE_SDK/GD32VW55x_RELEASE_V1.0.2/MSDK/plf/GD32VW55x_standard_peripheral/Source/gd32vw55x_fmc.c:249
    }
}
 8001c64:	8082                	ret

08001c66 <ob_lock>:
ob_lock():
C:/Users/stapi/OneDrive/Desktop/GD32VW553/GD32VW55X_Wifi_BLE_SDK/GD32VW55x_RELEASE_V1.0.2/MSDK/plf/GD32VW55x_standard_peripheral/Source/gd32vw55x_fmc.c:261
    \retval     none
*/
void ob_lock(void)
{
    /* reset the OBWEN bit */
    FMC_CTL &= ~FMC_CTL_OBWEN;
 8001c66:	40022737          	lui	a4,0x40022
 8001c6a:	4b1c                	lw	a5,16(a4)
 8001c6c:	dff7f793          	andi	a5,a5,-513
 8001c70:	cb1c                	sw	a5,16(a4)
C:/Users/stapi/OneDrive/Desktop/GD32VW553/GD32VW55X_Wifi_BLE_SDK/GD32VW55x_RELEASE_V1.0.2/MSDK/plf/GD32VW55x_standard_peripheral/Source/gd32vw55x_fmc.c:262
}
 8001c72:	8082                	ret

08001c74 <fmc_offset_region_config>:
fmc_offset_region_config():
C:/Users/stapi/OneDrive/Desktop/GD32VW553/GD32VW55X_Wifi_BLE_SDK/GD32VW55x_RELEASE_V1.0.2/MSDK/plf/GD32VW55x_standard_peripheral/Source/gd32vw55x_fmc.c:437
    \param[out] none
    \retval     none
*/
void fmc_offset_region_config(uint32_t of_spage, uint32_t of_epage)
{
    FMC_OFRG = 0U;
 8001c74:	400227b7          	lui	a5,0x40022
 8001c78:	0807a023          	sw	zero,128(a5) # 40022080 <_sp+0x2001d780>
C:/Users/stapi/OneDrive/Desktop/GD32VW553/GD32VW55X_Wifi_BLE_SDK/GD32VW55x_RELEASE_V1.0.2/MSDK/plf/GD32VW55x_standard_peripheral/Source/gd32vw55x_fmc.c:438
    FMC_OFRG |= (uint32_t) (of_spage);
 8001c7c:	0807a703          	lw	a4,128(a5)
C:/Users/stapi/OneDrive/Desktop/GD32VW553/GD32VW55X_Wifi_BLE_SDK/GD32VW55x_RELEASE_V1.0.2/MSDK/plf/GD32VW55x_standard_peripheral/Source/gd32vw55x_fmc.c:439
    FMC_OFRG |= (uint32_t) (of_epage << FMC_EPAGE_OFFSET);
 8001c80:	05c2                	slli	a1,a1,0x10
C:/Users/stapi/OneDrive/Desktop/GD32VW553/GD32VW55X_Wifi_BLE_SDK/GD32VW55x_RELEASE_V1.0.2/MSDK/plf/GD32VW55x_standard_peripheral/Source/gd32vw55x_fmc.c:438
    FMC_OFRG |= (uint32_t) (of_spage);
 8001c82:	8f49                	or	a4,a4,a0
 8001c84:	08e7a023          	sw	a4,128(a5)
C:/Users/stapi/OneDrive/Desktop/GD32VW553/GD32VW55X_Wifi_BLE_SDK/GD32VW55x_RELEASE_V1.0.2/MSDK/plf/GD32VW55x_standard_peripheral/Source/gd32vw55x_fmc.c:439
    FMC_OFRG |= (uint32_t) (of_epage << FMC_EPAGE_OFFSET);
 8001c88:	0807a703          	lw	a4,128(a5)
 8001c8c:	8dd9                	or	a1,a1,a4
 8001c8e:	08b7a023          	sw	a1,128(a5)
C:/Users/stapi/OneDrive/Desktop/GD32VW553/GD32VW55X_Wifi_BLE_SDK/GD32VW55x_RELEASE_V1.0.2/MSDK/plf/GD32VW55x_standard_peripheral/Source/gd32vw55x_fmc.c:440
}
 8001c92:	8082                	ret

08001c94 <fmc_offset_value_config>:
fmc_offset_value_config():
C:/Users/stapi/OneDrive/Desktop/GD32VW553/GD32VW55X_Wifi_BLE_SDK/GD32VW55x_RELEASE_V1.0.2/MSDK/plf/GD32VW55x_standard_peripheral/Source/gd32vw55x_fmc.c:450
    \param[out] none
    \retval     none
*/
void fmc_offset_value_config(uint32_t of_value)
{
    FMC_OFVR = 0U;
 8001c94:	400227b7          	lui	a5,0x40022
 8001c98:	0807a223          	sw	zero,132(a5) # 40022084 <_sp+0x2001d784>
C:/Users/stapi/OneDrive/Desktop/GD32VW553/GD32VW55X_Wifi_BLE_SDK/GD32VW55x_RELEASE_V1.0.2/MSDK/plf/GD32VW55x_standard_peripheral/Source/gd32vw55x_fmc.c:451
    FMC_OFVR |= (uint32_t) (of_value);
 8001c9c:	0847a703          	lw	a4,132(a5)
 8001ca0:	8f49                	or	a4,a4,a0
 8001ca2:	08e7a223          	sw	a4,132(a5)
C:/Users/stapi/OneDrive/Desktop/GD32VW553/GD32VW55X_Wifi_BLE_SDK/GD32VW55x_RELEASE_V1.0.2/MSDK/plf/GD32VW55x_standard_peripheral/Source/gd32vw55x_fmc.c:452
}
 8001ca6:	8082                	ret

08001ca8 <gpio_mode_set>:
gpio_mode_set():
C:/Users/stapi/OneDrive/Desktop/GD32VW553/GD32VW55X_Wifi_BLE_SDK/GD32VW55x_RELEASE_V1.0.2/MSDK/plf/GD32VW55x_standard_peripheral/Source/gd32vw55x_gpio.c:95
void gpio_mode_set(uint32_t gpio_periph, uint32_t mode, uint32_t pull_up_down, uint32_t pin)
{
    uint16_t i;
    uint32_t ctl, pupd;

    ctl = GPIO_CTL(gpio_periph);
 8001ca8:	00052e03          	lw	t3,0(a0)
C:/Users/stapi/OneDrive/Desktop/GD32VW553/GD32VW55X_Wifi_BLE_SDK/GD32VW55x_RELEASE_V1.0.2/MSDK/plf/GD32VW55x_standard_peripheral/Source/gd32vw55x_gpio.c:96
    pupd = GPIO_PUD(gpio_periph);
 8001cac:	00c52303          	lw	t1,12(a0)
 8001cb0:	4801                	li	a6,0
C:/Users/stapi/OneDrive/Desktop/GD32VW553/GD32VW55X_Wifi_BLE_SDK/GD32VW55x_RELEASE_V1.0.2/MSDK/plf/GD32VW55x_standard_peripheral/Source/gd32vw55x_gpio.c:101

    for(i = 0U; i < 16U; i++) {
        if((1U << i) & pin) {
            /* clear the specified pin mode bits */
            ctl &= ~GPIO_MODE_MASK(i);
 8001cb2:	428d                	li	t0,3
C:/Users/stapi/OneDrive/Desktop/GD32VW553/GD32VW55X_Wifi_BLE_SDK/GD32VW55x_RELEASE_V1.0.2/MSDK/plf/GD32VW55x_standard_peripheral/Source/gd32vw55x_gpio.c:98
    for(i = 0U; i < 16U; i++) {
 8001cb4:	4fc1                	li	t6,16
C:/Users/stapi/OneDrive/Desktop/GD32VW553/GD32VW55X_Wifi_BLE_SDK/GD32VW55x_RELEASE_V1.0.2/MSDK/plf/GD32VW55x_standard_peripheral/Source/gd32vw55x_gpio.c:101
            ctl &= ~GPIO_MODE_MASK(i);
 8001cb6:	00181713          	slli	a4,a6,0x1
 8001cba:	00e297b3          	sll	a5,t0,a4
 8001cbe:	fff7c793          	not	a5,a5
C:/Users/stapi/OneDrive/Desktop/GD32VW553/GD32VW55X_Wifi_BLE_SDK/GD32VW55x_RELEASE_V1.0.2/MSDK/plf/GD32VW55x_standard_peripheral/Source/gd32vw55x_gpio.c:99
        if((1U << i) & pin) {
 8001cc2:	290018b3          	bset	a7,zero,a6
 8001cc6:	00d8f8b3          	and	a7,a7,a3
C:/Users/stapi/OneDrive/Desktop/GD32VW553/GD32VW55X_Wifi_BLE_SDK/GD32VW55x_RELEASE_V1.0.2/MSDK/plf/GD32VW55x_standard_peripheral/Source/gd32vw55x_gpio.c:101
            ctl &= ~GPIO_MODE_MASK(i);
 8001cca:	01c7feb3          	and	t4,a5,t3
C:/Users/stapi/OneDrive/Desktop/GD32VW553/GD32VW55X_Wifi_BLE_SDK/GD32VW55x_RELEASE_V1.0.2/MSDK/plf/GD32VW55x_standard_peripheral/Source/gd32vw55x_gpio.c:103
            /* set the specified pin mode bits */
            ctl |= GPIO_MODE_SET(i, mode);
 8001cce:	00e59f33          	sll	t5,a1,a4
C:/Users/stapi/OneDrive/Desktop/GD32VW553/GD32VW55X_Wifi_BLE_SDK/GD32VW55x_RELEASE_V1.0.2/MSDK/plf/GD32VW55x_standard_peripheral/Source/gd32vw55x_gpio.c:98
    for(i = 0U; i < 16U; i++) {
 8001cd2:	0805                	addi	a6,a6,1
C:/Users/stapi/OneDrive/Desktop/GD32VW553/GD32VW55X_Wifi_BLE_SDK/GD32VW55x_RELEASE_V1.0.2/MSDK/plf/GD32VW55x_standard_peripheral/Source/gd32vw55x_gpio.c:106

            /* clear the specified pin pupd bits */
            pupd &= ~GPIO_PUPD_MASK(i);
 8001cd4:	0067f7b3          	and	a5,a5,t1
C:/Users/stapi/OneDrive/Desktop/GD32VW553/GD32VW55X_Wifi_BLE_SDK/GD32VW55x_RELEASE_V1.0.2/MSDK/plf/GD32VW55x_standard_peripheral/Source/gd32vw55x_gpio.c:108
            /* set the specified pin pupd bits */
            pupd |= GPIO_PUPD_SET(i, pull_up_down);
 8001cd8:	00e61733          	sll	a4,a2,a4
C:/Users/stapi/OneDrive/Desktop/GD32VW553/GD32VW55X_Wifi_BLE_SDK/GD32VW55x_RELEASE_V1.0.2/MSDK/plf/GD32VW55x_standard_peripheral/Source/gd32vw55x_gpio.c:99
        if((1U << i) & pin) {
 8001cdc:	00088663          	beqz	a7,8001ce8 <gpio_mode_set+0x40>
C:/Users/stapi/OneDrive/Desktop/GD32VW553/GD32VW55X_Wifi_BLE_SDK/GD32VW55x_RELEASE_V1.0.2/MSDK/plf/GD32VW55x_standard_peripheral/Source/gd32vw55x_gpio.c:103
            ctl |= GPIO_MODE_SET(i, mode);
 8001ce0:	01df6e33          	or	t3,t5,t4
C:/Users/stapi/OneDrive/Desktop/GD32VW553/GD32VW55X_Wifi_BLE_SDK/GD32VW55x_RELEASE_V1.0.2/MSDK/plf/GD32VW55x_standard_peripheral/Source/gd32vw55x_gpio.c:108
            pupd |= GPIO_PUPD_SET(i, pull_up_down);
 8001ce4:	00f76333          	or	t1,a4,a5
C:/Users/stapi/OneDrive/Desktop/GD32VW553/GD32VW55X_Wifi_BLE_SDK/GD32VW55x_RELEASE_V1.0.2/MSDK/plf/GD32VW55x_standard_peripheral/Source/gd32vw55x_gpio.c:98 (discriminator 2)
    for(i = 0U; i < 16U; i++) {
 8001ce8:	fdf817e3          	bne	a6,t6,8001cb6 <gpio_mode_set+0xe>
C:/Users/stapi/OneDrive/Desktop/GD32VW553/GD32VW55X_Wifi_BLE_SDK/GD32VW55x_RELEASE_V1.0.2/MSDK/plf/GD32VW55x_standard_peripheral/Source/gd32vw55x_gpio.c:112
        }
    }

    GPIO_CTL(gpio_periph) = ctl;
 8001cec:	01c52023          	sw	t3,0(a0)
C:/Users/stapi/OneDrive/Desktop/GD32VW553/GD32VW55X_Wifi_BLE_SDK/GD32VW55x_RELEASE_V1.0.2/MSDK/plf/GD32VW55x_standard_peripheral/Source/gd32vw55x_gpio.c:113
    GPIO_PUD(gpio_periph) = pupd;
 8001cf0:	00652623          	sw	t1,12(a0)
C:/Users/stapi/OneDrive/Desktop/GD32VW553/GD32VW55X_Wifi_BLE_SDK/GD32VW55x_RELEASE_V1.0.2/MSDK/plf/GD32VW55x_standard_peripheral/Source/gd32vw55x_gpio.c:114
}
 8001cf4:	8082                	ret

08001cf6 <gpio_output_options_set>:
gpio_output_options_set():
C:/Users/stapi/OneDrive/Desktop/GD32VW553/GD32VW55X_Wifi_BLE_SDK/GD32VW55x_RELEASE_V1.0.2/MSDK/plf/GD32VW55x_standard_peripheral/Source/gd32vw55x_gpio.c:142
void gpio_output_options_set(uint32_t gpio_periph, uint8_t otype, uint32_t speed, uint32_t pin)
{
    uint16_t i;
    uint32_t ospeed;

    if(GPIO_OTYPE_OD == otype) {
 8001cf6:	4785                	li	a5,1
 8001cf8:	02f58f63          	beq	a1,a5,8001d36 <gpio_output_options_set+0x40>
C:/Users/stapi/OneDrive/Desktop/GD32VW553/GD32VW55X_Wifi_BLE_SDK/GD32VW55x_RELEASE_V1.0.2/MSDK/plf/GD32VW55x_standard_peripheral/Source/gd32vw55x_gpio.c:145
        GPIO_OMODE(gpio_periph) |= (uint32_t)pin;
    } else {
        GPIO_OMODE(gpio_periph) &= (uint32_t)(~pin);
 8001cfc:	415c                	lw	a5,4(a0)
 8001cfe:	40d7f7b3          	andn	a5,a5,a3
 8001d02:	c15c                	sw	a5,4(a0)
C:/Users/stapi/OneDrive/Desktop/GD32VW553/GD32VW55X_Wifi_BLE_SDK/GD32VW55x_RELEASE_V1.0.2/MSDK/plf/GD32VW55x_standard_peripheral/Source/gd32vw55x_gpio.c:149
    }

    /* get the specified pin output speed bits value */
    ospeed = GPIO_OSPD(gpio_periph);
 8001d04:	00852803          	lw	a6,8(a0)
 8001d08:	4781                	li	a5,0
C:/Users/stapi/OneDrive/Desktop/GD32VW553/GD32VW55X_Wifi_BLE_SDK/GD32VW55x_RELEASE_V1.0.2/MSDK/plf/GD32VW55x_standard_peripheral/Source/gd32vw55x_gpio.c:154

    for(i = 0U; i < 16U; i++) {
        if((1U << i) & pin) {
            /* clear the specified pin output speed bits */
            ospeed &= ~GPIO_OSPEED_MASK(i);
 8001d0a:	4e0d                	li	t3,3
C:/Users/stapi/OneDrive/Desktop/GD32VW553/GD32VW55X_Wifi_BLE_SDK/GD32VW55x_RELEASE_V1.0.2/MSDK/plf/GD32VW55x_standard_peripheral/Source/gd32vw55x_gpio.c:151
    for(i = 0U; i < 16U; i++) {
 8001d0c:	4341                	li	t1,16
C:/Users/stapi/OneDrive/Desktop/GD32VW553/GD32VW55X_Wifi_BLE_SDK/GD32VW55x_RELEASE_V1.0.2/MSDK/plf/GD32VW55x_standard_peripheral/Source/gd32vw55x_gpio.c:154
            ospeed &= ~GPIO_OSPEED_MASK(i);
 8001d0e:	00179713          	slli	a4,a5,0x1
C:/Users/stapi/OneDrive/Desktop/GD32VW553/GD32VW55X_Wifi_BLE_SDK/GD32VW55x_RELEASE_V1.0.2/MSDK/plf/GD32VW55x_standard_peripheral/Source/gd32vw55x_gpio.c:152
        if((1U << i) & pin) {
 8001d12:	28f015b3          	bset	a1,zero,a5
 8001d16:	8df5                	and	a1,a1,a3
C:/Users/stapi/OneDrive/Desktop/GD32VW553/GD32VW55X_Wifi_BLE_SDK/GD32VW55x_RELEASE_V1.0.2/MSDK/plf/GD32VW55x_standard_peripheral/Source/gd32vw55x_gpio.c:154
            ospeed &= ~GPIO_OSPEED_MASK(i);
 8001d18:	00ee18b3          	sll	a7,t3,a4
C:/Users/stapi/OneDrive/Desktop/GD32VW553/GD32VW55X_Wifi_BLE_SDK/GD32VW55x_RELEASE_V1.0.2/MSDK/plf/GD32VW55x_standard_peripheral/Source/gd32vw55x_gpio.c:151
    for(i = 0U; i < 16U; i++) {
 8001d1c:	0785                	addi	a5,a5,1
C:/Users/stapi/OneDrive/Desktop/GD32VW553/GD32VW55X_Wifi_BLE_SDK/GD32VW55x_RELEASE_V1.0.2/MSDK/plf/GD32VW55x_standard_peripheral/Source/gd32vw55x_gpio.c:156
            /* set the specified pin output speed bits */
            ospeed |= GPIO_OSPEED_SET(i, speed);
 8001d1e:	00e61733          	sll	a4,a2,a4
C:/Users/stapi/OneDrive/Desktop/GD32VW553/GD32VW55X_Wifi_BLE_SDK/GD32VW55x_RELEASE_V1.0.2/MSDK/plf/GD32VW55x_standard_peripheral/Source/gd32vw55x_gpio.c:152
        if((1U << i) & pin) {
 8001d22:	c589                	beqz	a1,8001d2c <gpio_output_options_set+0x36>
C:/Users/stapi/OneDrive/Desktop/GD32VW553/GD32VW55X_Wifi_BLE_SDK/GD32VW55x_RELEASE_V1.0.2/MSDK/plf/GD32VW55x_standard_peripheral/Source/gd32vw55x_gpio.c:154
            ospeed &= ~GPIO_OSPEED_MASK(i);
 8001d24:	41187833          	andn	a6,a6,a7
C:/Users/stapi/OneDrive/Desktop/GD32VW553/GD32VW55X_Wifi_BLE_SDK/GD32VW55x_RELEASE_V1.0.2/MSDK/plf/GD32VW55x_standard_peripheral/Source/gd32vw55x_gpio.c:156
            ospeed |= GPIO_OSPEED_SET(i, speed);
 8001d28:	01076833          	or	a6,a4,a6
C:/Users/stapi/OneDrive/Desktop/GD32VW553/GD32VW55X_Wifi_BLE_SDK/GD32VW55x_RELEASE_V1.0.2/MSDK/plf/GD32VW55x_standard_peripheral/Source/gd32vw55x_gpio.c:151 (discriminator 2)
    for(i = 0U; i < 16U; i++) {
 8001d2c:	fe6791e3          	bne	a5,t1,8001d0e <gpio_output_options_set+0x18>
C:/Users/stapi/OneDrive/Desktop/GD32VW553/GD32VW55X_Wifi_BLE_SDK/GD32VW55x_RELEASE_V1.0.2/MSDK/plf/GD32VW55x_standard_peripheral/Source/gd32vw55x_gpio.c:160
        }
    }

    GPIO_OSPD(gpio_periph) = ospeed;
 8001d30:	01052423          	sw	a6,8(a0)
C:/Users/stapi/OneDrive/Desktop/GD32VW553/GD32VW55X_Wifi_BLE_SDK/GD32VW55x_RELEASE_V1.0.2/MSDK/plf/GD32VW55x_standard_peripheral/Source/gd32vw55x_gpio.c:161
}
 8001d34:	8082                	ret
C:/Users/stapi/OneDrive/Desktop/GD32VW553/GD32VW55X_Wifi_BLE_SDK/GD32VW55x_RELEASE_V1.0.2/MSDK/plf/GD32VW55x_standard_peripheral/Source/gd32vw55x_gpio.c:143
        GPIO_OMODE(gpio_periph) |= (uint32_t)pin;
 8001d36:	415c                	lw	a5,4(a0)
 8001d38:	8fd5                	or	a5,a5,a3
 8001d3a:	c15c                	sw	a5,4(a0)
 8001d3c:	b7e1                	j	8001d04 <gpio_output_options_set+0xe>

08001d3e <gpio_af_set>:
gpio_af_set():
C:/Users/stapi/OneDrive/Desktop/GD32VW553/GD32VW55X_Wifi_BLE_SDK/GD32VW55x_RELEASE_V1.0.2/MSDK/plf/GD32VW55x_standard_peripheral/Source/gd32vw55x_gpio.c:329
void gpio_af_set(uint32_t gpio_periph, uint32_t alt_func_num, uint32_t pin)
{
    uint16_t i;
    uint32_t afrl, afrh;

    afrl = GPIO_AFSEL0(gpio_periph);
 8001d3e:	02052883          	lw	a7,32(a0)
C:/Users/stapi/OneDrive/Desktop/GD32VW553/GD32VW55X_Wifi_BLE_SDK/GD32VW55x_RELEASE_V1.0.2/MSDK/plf/GD32VW55x_standard_peripheral/Source/gd32vw55x_gpio.c:330
    afrh = GPIO_AFSEL1(gpio_periph);
 8001d42:	02452803          	lw	a6,36(a0)
 8001d46:	4781                	li	a5,0
C:/Users/stapi/OneDrive/Desktop/GD32VW553/GD32VW55X_Wifi_BLE_SDK/GD32VW55x_RELEASE_V1.0.2/MSDK/plf/GD32VW55x_standard_peripheral/Source/gd32vw55x_gpio.c:335

    for(i = 0U; i < 8U; i++) {
        if((1U << i) & pin) {
            /* clear the specified pin alternate function bits */
            afrl &= ~GPIO_AFR_MASK(i);
 8001d48:	4ebd                	li	t4,15
C:/Users/stapi/OneDrive/Desktop/GD32VW553/GD32VW55X_Wifi_BLE_SDK/GD32VW55x_RELEASE_V1.0.2/MSDK/plf/GD32VW55x_standard_peripheral/Source/gd32vw55x_gpio.c:332
    for(i = 0U; i < 8U; i++) {
 8001d4a:	4e21                	li	t3,8
C:/Users/stapi/OneDrive/Desktop/GD32VW553/GD32VW55X_Wifi_BLE_SDK/GD32VW55x_RELEASE_V1.0.2/MSDK/plf/GD32VW55x_standard_peripheral/Source/gd32vw55x_gpio.c:335
            afrl &= ~GPIO_AFR_MASK(i);
 8001d4c:	00279713          	slli	a4,a5,0x2
C:/Users/stapi/OneDrive/Desktop/GD32VW553/GD32VW55X_Wifi_BLE_SDK/GD32VW55x_RELEASE_V1.0.2/MSDK/plf/GD32VW55x_standard_peripheral/Source/gd32vw55x_gpio.c:333
        if((1U << i) & pin) {
 8001d50:	28f016b3          	bset	a3,zero,a5
 8001d54:	8ef1                	and	a3,a3,a2
C:/Users/stapi/OneDrive/Desktop/GD32VW553/GD32VW55X_Wifi_BLE_SDK/GD32VW55x_RELEASE_V1.0.2/MSDK/plf/GD32VW55x_standard_peripheral/Source/gd32vw55x_gpio.c:335
            afrl &= ~GPIO_AFR_MASK(i);
 8001d56:	00ee9333          	sll	t1,t4,a4
C:/Users/stapi/OneDrive/Desktop/GD32VW553/GD32VW55X_Wifi_BLE_SDK/GD32VW55x_RELEASE_V1.0.2/MSDK/plf/GD32VW55x_standard_peripheral/Source/gd32vw55x_gpio.c:332
    for(i = 0U; i < 8U; i++) {
 8001d5a:	0785                	addi	a5,a5,1
C:/Users/stapi/OneDrive/Desktop/GD32VW553/GD32VW55X_Wifi_BLE_SDK/GD32VW55x_RELEASE_V1.0.2/MSDK/plf/GD32VW55x_standard_peripheral/Source/gd32vw55x_gpio.c:336
            afrl |= GPIO_AFR_SET(i, alt_func_num);
 8001d5c:	00e59733          	sll	a4,a1,a4
C:/Users/stapi/OneDrive/Desktop/GD32VW553/GD32VW55X_Wifi_BLE_SDK/GD32VW55x_RELEASE_V1.0.2/MSDK/plf/GD32VW55x_standard_peripheral/Source/gd32vw55x_gpio.c:333
        if((1U << i) & pin) {
 8001d60:	c689                	beqz	a3,8001d6a <gpio_af_set+0x2c>
C:/Users/stapi/OneDrive/Desktop/GD32VW553/GD32VW55X_Wifi_BLE_SDK/GD32VW55x_RELEASE_V1.0.2/MSDK/plf/GD32VW55x_standard_peripheral/Source/gd32vw55x_gpio.c:335
            afrl &= ~GPIO_AFR_MASK(i);
 8001d62:	4068f8b3          	andn	a7,a7,t1
C:/Users/stapi/OneDrive/Desktop/GD32VW553/GD32VW55X_Wifi_BLE_SDK/GD32VW55x_RELEASE_V1.0.2/MSDK/plf/GD32VW55x_standard_peripheral/Source/gd32vw55x_gpio.c:336
            afrl |= GPIO_AFR_SET(i, alt_func_num);
 8001d66:	011768b3          	or	a7,a4,a7
C:/Users/stapi/OneDrive/Desktop/GD32VW553/GD32VW55X_Wifi_BLE_SDK/GD32VW55x_RELEASE_V1.0.2/MSDK/plf/GD32VW55x_standard_peripheral/Source/gd32vw55x_gpio.c:332 (discriminator 2)
    for(i = 0U; i < 8U; i++) {
 8001d6a:	ffc791e3          	bne	a5,t3,8001d4c <gpio_af_set+0xe>
 8001d6e:	4701                	li	a4,0
C:/Users/stapi/OneDrive/Desktop/GD32VW553/GD32VW55X_Wifi_BLE_SDK/GD32VW55x_RELEASE_V1.0.2/MSDK/plf/GD32VW55x_standard_peripheral/Source/gd32vw55x_gpio.c:343
    }

    for(i = 8U; i < 16U; i++) {
        if((1U << i) & pin) {
            /* clear the specified pin alternate function bits */
            afrh &= ~GPIO_AFR_MASK(i - 8U);
 8001d70:	4f3d                	li	t5,15
C:/Users/stapi/OneDrive/Desktop/GD32VW553/GD32VW55X_Wifi_BLE_SDK/GD32VW55x_RELEASE_V1.0.2/MSDK/plf/GD32VW55x_standard_peripheral/Source/gd32vw55x_gpio.c:340
    for(i = 8U; i < 16U; i++) {
 8001d72:	4ec1                	li	t4,16
C:/Users/stapi/OneDrive/Desktop/GD32VW553/GD32VW55X_Wifi_BLE_SDK/GD32VW55x_RELEASE_V1.0.2/MSDK/plf/GD32VW55x_standard_peripheral/Source/gd32vw55x_gpio.c:341
        if((1U << i) & pin) {
 8001d74:	28f016b3          	bset	a3,zero,a5
 8001d78:	8ef1                	and	a3,a3,a2
C:/Users/stapi/OneDrive/Desktop/GD32VW553/GD32VW55X_Wifi_BLE_SDK/GD32VW55x_RELEASE_V1.0.2/MSDK/plf/GD32VW55x_standard_peripheral/Source/gd32vw55x_gpio.c:340
    for(i = 8U; i < 16U; i++) {
 8001d7a:	0785                	addi	a5,a5,1
C:/Users/stapi/OneDrive/Desktop/GD32VW553/GD32VW55X_Wifi_BLE_SDK/GD32VW55x_RELEASE_V1.0.2/MSDK/plf/GD32VW55x_standard_peripheral/Source/gd32vw55x_gpio.c:343
            afrh &= ~GPIO_AFR_MASK(i - 8U);
 8001d7c:	00ef1e33          	sll	t3,t5,a4
C:/Users/stapi/OneDrive/Desktop/GD32VW553/GD32VW55X_Wifi_BLE_SDK/GD32VW55x_RELEASE_V1.0.2/MSDK/plf/GD32VW55x_standard_peripheral/Source/gd32vw55x_gpio.c:344
            afrh |= GPIO_AFR_SET(i - 8U, alt_func_num);
 8001d80:	00e59333          	sll	t1,a1,a4
C:/Users/stapi/OneDrive/Desktop/GD32VW553/GD32VW55X_Wifi_BLE_SDK/GD32VW55x_RELEASE_V1.0.2/MSDK/plf/GD32VW55x_standard_peripheral/Source/gd32vw55x_gpio.c:341
        if((1U << i) & pin) {
 8001d84:	c689                	beqz	a3,8001d8e <gpio_af_set+0x50>
C:/Users/stapi/OneDrive/Desktop/GD32VW553/GD32VW55X_Wifi_BLE_SDK/GD32VW55x_RELEASE_V1.0.2/MSDK/plf/GD32VW55x_standard_peripheral/Source/gd32vw55x_gpio.c:343
            afrh &= ~GPIO_AFR_MASK(i - 8U);
 8001d86:	41c87833          	andn	a6,a6,t3
C:/Users/stapi/OneDrive/Desktop/GD32VW553/GD32VW55X_Wifi_BLE_SDK/GD32VW55x_RELEASE_V1.0.2/MSDK/plf/GD32VW55x_standard_peripheral/Source/gd32vw55x_gpio.c:344
            afrh |= GPIO_AFR_SET(i - 8U, alt_func_num);
 8001d8a:	01036833          	or	a6,t1,a6
C:/Users/stapi/OneDrive/Desktop/GD32VW553/GD32VW55X_Wifi_BLE_SDK/GD32VW55x_RELEASE_V1.0.2/MSDK/plf/GD32VW55x_standard_peripheral/Source/gd32vw55x_gpio.c:340 (discriminator 2)
    for(i = 8U; i < 16U; i++) {
 8001d8e:	0711                	addi	a4,a4,4
 8001d90:	ffd792e3          	bne	a5,t4,8001d74 <gpio_af_set+0x36>
C:/Users/stapi/OneDrive/Desktop/GD32VW553/GD32VW55X_Wifi_BLE_SDK/GD32VW55x_RELEASE_V1.0.2/MSDK/plf/GD32VW55x_standard_peripheral/Source/gd32vw55x_gpio.c:348
        }
    }

    GPIO_AFSEL0(gpio_periph) = afrl;
 8001d94:	03152023          	sw	a7,32(a0)
C:/Users/stapi/OneDrive/Desktop/GD32VW553/GD32VW55X_Wifi_BLE_SDK/GD32VW55x_RELEASE_V1.0.2/MSDK/plf/GD32VW55x_standard_peripheral/Source/gd32vw55x_gpio.c:349
    GPIO_AFSEL1(gpio_periph) = afrh;
 8001d98:	03052223          	sw	a6,36(a0)
C:/Users/stapi/OneDrive/Desktop/GD32VW553/GD32VW55X_Wifi_BLE_SDK/GD32VW55x_RELEASE_V1.0.2/MSDK/plf/GD32VW55x_standard_peripheral/Source/gd32vw55x_gpio.c:350
}
 8001d9c:	8082                	ret

08001d9e <rcu_periph_clock_enable>:
rcu_periph_clock_enable():
C:/Users/stapi/OneDrive/Desktop/GD32VW553/GD32VW55X_Wifi_BLE_SDK/GD32VW55x_RELEASE_V1.0.2/MSDK/plf/GD32VW55x_standard_peripheral/Source/gd32vw55x_rcu.c:137
    \param[out] none
    \retval     none
*/
void rcu_periph_clock_enable(rcu_periph_enum periph)
{
    RCU_REG_VAL(periph) |= BIT(RCU_BIT_POS(periph));
 8001d9e:	40024737          	lui	a4,0x40024
 8001da2:	00655793          	srli	a5,a0,0x6
 8001da6:	80070713          	addi	a4,a4,-2048 # 40023800 <_sp+0x2001ef00>
 8001daa:	97ba                	add	a5,a5,a4
 8001dac:	4398                	lw	a4,0(a5)
 8001dae:	28a71533          	bset	a0,a4,a0
 8001db2:	c388                	sw	a0,0(a5)
C:/Users/stapi/OneDrive/Desktop/GD32VW553/GD32VW55X_Wifi_BLE_SDK/GD32VW55x_RELEASE_V1.0.2/MSDK/plf/GD32VW55x_standard_peripheral/Source/gd32vw55x_rcu.c:138
}
 8001db4:	8082                	ret

08001db6 <rcu_periph_reset_enable>:
rcu_periph_reset_enable():
 8001db6:	40024737          	lui	a4,0x40024
 8001dba:	00655793          	srli	a5,a0,0x6
 8001dbe:	80070713          	addi	a4,a4,-2048 # 40023800 <_sp+0x2001ef00>
 8001dc2:	97ba                	add	a5,a5,a4
 8001dc4:	4398                	lw	a4,0(a5)
 8001dc6:	28a71533          	bset	a0,a4,a0
 8001dca:	c388                	sw	a0,0(a5)
 8001dcc:	8082                	ret

08001dce <rcu_periph_reset_disable>:
rcu_periph_reset_disable():
 8001dce:	40024737          	lui	a4,0x40024
 8001dd2:	00655793          	srli	a5,a0,0x6
 8001dd6:	80070713          	addi	a4,a4,-2048 # 40023800 <_sp+0x2001ef00>
 8001dda:	97ba                	add	a5,a5,a4
 8001ddc:	4398                	lw	a4,0(a5)
 8001dde:	28a01533          	bset	a0,zero,a0
 8001de2:	40a77533          	andn	a0,a4,a0
 8001de6:	c388                	sw	a0,0(a5)
 8001de8:	8082                	ret

08001dea <rcu_clock_freq_get>:
rcu_clock_freq_get():
C:/Users/stapi/OneDrive/Desktop/GD32VW553/GD32VW55X_Wifi_BLE_SDK/GD32VW55x_RELEASE_V1.0.2/MSDK/plf/GD32VW55x_standard_peripheral/Source/gd32vw55x_rcu.c:1068
    uint32_t cksys_freq, ahb_freq, apb1_freq, apb2_freq;
    uint32_t usart0_freq = 0U,i2c0_freq = 0U;
    uint32_t idx, clk_exp;

    /* exponent of AHB, APB1 and APB2 clock divider */
    const uint8_t ahb_exp[16] = {0, 0, 0, 0, 0, 0, 0, 0, 1, 2, 3, 4, 6, 7, 8, 9};
 8001dea:	080017b7          	lui	a5,0x8001
 8001dee:	31878793          	addi	a5,a5,792 # 8001318 <_sicode+0x4c>
 8001df2:	43d0                	lw	a2,4(a5)
 8001df4:	4794                	lw	a3,8(a5)
 8001df6:	47d8                	lw	a4,12(a5)
 8001df8:	438c                	lw	a1,0(a5)
C:/Users/stapi/OneDrive/Desktop/GD32VW553/GD32VW55X_Wifi_BLE_SDK/GD32VW55x_RELEASE_V1.0.2/MSDK/plf/GD32VW55x_standard_peripheral/Source/gd32vw55x_rcu.c:1069
    const uint8_t apb1_exp[8] = {0, 0, 0, 0, 1, 2, 3, 4};
 8001dfa:	040307b7          	lui	a5,0x4030
C:/Users/stapi/OneDrive/Desktop/GD32VW553/GD32VW55X_Wifi_BLE_SDK/GD32VW55x_RELEASE_V1.0.2/MSDK/plf/GD32VW55x_standard_peripheral/Source/gd32vw55x_rcu.c:1061
{
 8001dfe:	7179                	addi	sp,sp,-48
C:/Users/stapi/OneDrive/Desktop/GD32VW553/GD32VW55X_Wifi_BLE_SDK/GD32VW55x_RELEASE_V1.0.2/MSDK/plf/GD32VW55x_standard_peripheral/Source/gd32vw55x_rcu.c:1069
    const uint8_t apb1_exp[8] = {0, 0, 0, 0, 1, 2, 3, 4};
 8001e00:	20178793          	addi	a5,a5,513 # 4030201 <__stack_size+0x402f201>
 8001e04:	c23e                	sw	a5,4(sp)
C:/Users/stapi/OneDrive/Desktop/GD32VW553/GD32VW55X_Wifi_BLE_SDK/GD32VW55x_RELEASE_V1.0.2/MSDK/plf/GD32VW55x_standard_peripheral/Source/gd32vw55x_rcu.c:1070
    const uint8_t apb2_exp[8] = {0, 0, 0, 0, 1, 2, 3, 4};
 8001e06:	c63e                	sw	a5,12(sp)
C:/Users/stapi/OneDrive/Desktop/GD32VW553/GD32VW55X_Wifi_BLE_SDK/GD32VW55x_RELEASE_V1.0.2/MSDK/plf/GD32VW55x_standard_peripheral/Source/gd32vw55x_rcu.c:1074

    #ifndef CONFIG_PLATFORM_FPGA
    uint32_t plldigpsc;
    const uint32_t plldig_oclk[4] = {192000000, 240000000, 320000000, 480000000};
 8001e08:	0b71b7b7          	lui	a5,0xb71b
 8001e0c:	d03e                	sw	a5,32(sp)
 8001e0e:	0e4e27b7          	lui	a5,0xe4e2
 8001e12:	c0078793          	addi	a5,a5,-1024 # e4e1c00 <mbedtls_mpi_mul_mpi_sw+0x2573420>
 8001e16:	d23e                	sw	a5,36(sp)
 8001e18:	1312d7b7          	lui	a5,0x1312d
 8001e1c:	d43e                	sw	a5,40(sp)
 8001e1e:	1c9c47b7          	lui	a5,0x1c9c4
 8001e22:	80078793          	addi	a5,a5,-2048 # 1c9c3800 <mbedtls_mpi_mul_mpi_sw+0x10a55020>
C:/Users/stapi/OneDrive/Desktop/GD32VW553/GD32VW55X_Wifi_BLE_SDK/GD32VW55x_RELEASE_V1.0.2/MSDK/plf/GD32VW55x_standard_peripheral/Source/gd32vw55x_rcu.c:1068
    const uint8_t ahb_exp[16] = {0, 0, 0, 0, 0, 0, 0, 0, 1, 2, 3, 4, 6, 7, 8, 9};
 8001e26:	ca32                	sw	a2,20(sp)
 8001e28:	cc36                	sw	a3,24(sp)
 8001e2a:	ce3a                	sw	a4,28(sp)
 8001e2c:	c82e                	sw	a1,16(sp)
C:/Users/stapi/OneDrive/Desktop/GD32VW553/GD32VW55X_Wifi_BLE_SDK/GD32VW55x_RELEASE_V1.0.2/MSDK/plf/GD32VW55x_standard_peripheral/Source/gd32vw55x_rcu.c:1069
    const uint8_t apb1_exp[8] = {0, 0, 0, 0, 1, 2, 3, 4};
 8001e2e:	c002                	sw	zero,0(sp)
C:/Users/stapi/OneDrive/Desktop/GD32VW553/GD32VW55X_Wifi_BLE_SDK/GD32VW55x_RELEASE_V1.0.2/MSDK/plf/GD32VW55x_standard_peripheral/Source/gd32vw55x_rcu.c:1070
    const uint8_t apb2_exp[8] = {0, 0, 0, 0, 1, 2, 3, 4};
 8001e30:	c402                	sw	zero,8(sp)
C:/Users/stapi/OneDrive/Desktop/GD32VW553/GD32VW55X_Wifi_BLE_SDK/GD32VW55x_RELEASE_V1.0.2/MSDK/plf/GD32VW55x_standard_peripheral/Source/gd32vw55x_rcu.c:1074
    const uint32_t plldig_oclk[4] = {192000000, 240000000, 320000000, 480000000};
 8001e32:	d63e                	sw	a5,44(sp)
C:/Users/stapi/OneDrive/Desktop/GD32VW553/GD32VW55X_Wifi_BLE_SDK/GD32VW55x_RELEASE_V1.0.2/MSDK/plf/GD32VW55x_standard_peripheral/Source/gd32vw55x_rcu.c:1077
    #endif

    sws = GET_BITS(RCU_CFG0, 2, 3);
 8001e34:	40024737          	lui	a4,0x40024
 8001e38:	80872783          	lw	a5,-2040(a4) # 40023808 <_sp+0x2001ef08>
C:/Users/stapi/OneDrive/Desktop/GD32VW553/GD32VW55X_Wifi_BLE_SDK/GD32VW55x_RELEASE_V1.0.2/MSDK/plf/GD32VW55x_standard_peripheral/Source/gd32vw55x_rcu.c:1078
    switch(sws){
 8001e3c:	4685                	li	a3,1
C:/Users/stapi/OneDrive/Desktop/GD32VW553/GD32VW55X_Wifi_BLE_SDK/GD32VW55x_RELEASE_V1.0.2/MSDK/plf/GD32VW55x_standard_peripheral/Source/gd32vw55x_rcu.c:1061
{
 8001e3e:	862a                	mv	a2,a0
C:/Users/stapi/OneDrive/Desktop/GD32VW553/GD32VW55X_Wifi_BLE_SDK/GD32VW55x_RELEASE_V1.0.2/MSDK/plf/GD32VW55x_standard_peripheral/Source/gd32vw55x_rcu.c:1077
    sws = GET_BITS(RCU_CFG0, 2, 3);
 8001e40:	8389                	srli	a5,a5,0x2
 8001e42:	8b8d                	andi	a5,a5,3
C:/Users/stapi/OneDrive/Desktop/GD32VW553/GD32VW55X_Wifi_BLE_SDK/GD32VW55x_RELEASE_V1.0.2/MSDK/plf/GD32VW55x_standard_peripheral/Source/gd32vw55x_rcu.c:1078
    switch(sws){
 8001e44:	08d78463          	beq	a5,a3,8001ecc <rcu_clock_freq_get+0xe2>
 8001e48:	4689                	li	a3,2
 8001e4a:	06d79c63          	bne	a5,a3,8001ec2 <rcu_clock_freq_get+0xd8>
C:/Users/stapi/OneDrive/Desktop/GD32VW553/GD32VW55X_Wifi_BLE_SDK/GD32VW55x_RELEASE_V1.0.2/MSDK/plf/GD32VW55x_standard_peripheral/Source/gd32vw55x_rcu.c:1093
    case SEL_PLLDIG:
    #ifdef CONFIG_PLATFORM_FPGA
        /* For FPGA platform, PLLDIG clock is fixed at HXTAL_VALUE */
        cksys_freq = HXTAL_VALUE;
    #else
        idx = GET_BITS(RCU_PLLDIGCFG0, 24, 25);
 8001e4e:	88472783          	lw	a5,-1916(a4)
C:/Users/stapi/OneDrive/Desktop/GD32VW553/GD32VW55X_Wifi_BLE_SDK/GD32VW55x_RELEASE_V1.0.2/MSDK/plf/GD32VW55x_standard_peripheral/Source/gd32vw55x_rcu.c:1095
        plldigpsc = GET_BITS(RCU_PLLDIGCFG0, 26U, 31U) + 1;
        cksys_freq = plldig_oclk[idx] / plldigpsc;
 8001e52:	1814                	addi	a3,sp,48
C:/Users/stapi/OneDrive/Desktop/GD32VW553/GD32VW55X_Wifi_BLE_SDK/GD32VW55x_RELEASE_V1.0.2/MSDK/plf/GD32VW55x_standard_peripheral/Source/gd32vw55x_rcu.c:1094
        plldigpsc = GET_BITS(RCU_PLLDIGCFG0, 26U, 31U) + 1;
 8001e54:	88472703          	lw	a4,-1916(a4)
C:/Users/stapi/OneDrive/Desktop/GD32VW553/GD32VW55X_Wifi_BLE_SDK/GD32VW55x_RELEASE_V1.0.2/MSDK/plf/GD32VW55x_standard_peripheral/Source/gd32vw55x_rcu.c:1093
        idx = GET_BITS(RCU_PLLDIGCFG0, 24, 25);
 8001e58:	83d9                	srli	a5,a5,0x16
C:/Users/stapi/OneDrive/Desktop/GD32VW553/GD32VW55X_Wifi_BLE_SDK/GD32VW55x_RELEASE_V1.0.2/MSDK/plf/GD32VW55x_standard_peripheral/Source/gd32vw55x_rcu.c:1095
        cksys_freq = plldig_oclk[idx] / plldigpsc;
 8001e5a:	8bb1                	andi	a5,a5,12
 8001e5c:	97b6                	add	a5,a5,a3
 8001e5e:	ff07a583          	lw	a1,-16(a5)
C:/Users/stapi/OneDrive/Desktop/GD32VW553/GD32VW55X_Wifi_BLE_SDK/GD32VW55x_RELEASE_V1.0.2/MSDK/plf/GD32VW55x_standard_peripheral/Source/gd32vw55x_rcu.c:1094
        plldigpsc = GET_BITS(RCU_PLLDIGCFG0, 26U, 31U) + 1;
 8001e62:	01a75793          	srli	a5,a4,0x1a
 8001e66:	0785                	addi	a5,a5,1
C:/Users/stapi/OneDrive/Desktop/GD32VW553/GD32VW55X_Wifi_BLE_SDK/GD32VW55x_RELEASE_V1.0.2/MSDK/plf/GD32VW55x_standard_peripheral/Source/gd32vw55x_rcu.c:1095
        cksys_freq = plldig_oclk[idx] / plldigpsc;
 8001e68:	02f5d5b3          	divu	a1,a1,a5
C:/Users/stapi/OneDrive/Desktop/GD32VW553/GD32VW55X_Wifi_BLE_SDK/GD32VW55x_RELEASE_V1.0.2/MSDK/plf/GD32VW55x_standard_peripheral/Source/gd32vw55x_rcu.c:1104
    default:
        cksys_freq = IRC16M_VALUE;
        break;
    }
    /* calculate AHB clock frequency */
    idx = GET_BITS(RCU_CFG0, 4, 7);
 8001e6c:	400247b7          	lui	a5,0x40024
 8001e70:	8087a683          	lw	a3,-2040(a5) # 40023808 <_sp+0x2001ef08>
C:/Users/stapi/OneDrive/Desktop/GD32VW553/GD32VW55X_Wifi_BLE_SDK/GD32VW55x_RELEASE_V1.0.2/MSDK/plf/GD32VW55x_standard_peripheral/Source/gd32vw55x_rcu.c:1109
    clk_exp = ahb_exp[idx];
    ahb_freq = cksys_freq >> clk_exp;

    /* calculate APB1 clock frequency */
    idx = GET_BITS(RCU_CFG0, 10, 12);
 8001e74:	8087a703          	lw	a4,-2040(a5)
C:/Users/stapi/OneDrive/Desktop/GD32VW553/GD32VW55X_Wifi_BLE_SDK/GD32VW55x_RELEASE_V1.0.2/MSDK/plf/GD32VW55x_standard_peripheral/Source/gd32vw55x_rcu.c:1105
    clk_exp = ahb_exp[idx];
 8001e78:	1808                	addi	a0,sp,48
C:/Users/stapi/OneDrive/Desktop/GD32VW553/GD32VW55X_Wifi_BLE_SDK/GD32VW55x_RELEASE_V1.0.2/MSDK/plf/GD32VW55x_standard_peripheral/Source/gd32vw55x_rcu.c:1104
    idx = GET_BITS(RCU_CFG0, 4, 7);
 8001e7a:	8291                	srli	a3,a3,0x4
 8001e7c:	8abd                	andi	a3,a3,15
C:/Users/stapi/OneDrive/Desktop/GD32VW553/GD32VW55X_Wifi_BLE_SDK/GD32VW55x_RELEASE_V1.0.2/MSDK/plf/GD32VW55x_standard_peripheral/Source/gd32vw55x_rcu.c:1105
    clk_exp = ahb_exp[idx];
 8001e7e:	96aa                	add	a3,a3,a0
C:/Users/stapi/OneDrive/Desktop/GD32VW553/GD32VW55X_Wifi_BLE_SDK/GD32VW55x_RELEASE_V1.0.2/MSDK/plf/GD32VW55x_standard_peripheral/Source/gd32vw55x_rcu.c:1114
    clk_exp = apb1_exp[idx];
    apb1_freq = ahb_freq >> clk_exp;

    /* calculate APB2 clock frequency */
    idx = GET_BITS(RCU_CFG0, 13, 15);
 8001e80:	8087a783          	lw	a5,-2040(a5)
C:/Users/stapi/OneDrive/Desktop/GD32VW553/GD32VW55X_Wifi_BLE_SDK/GD32VW55x_RELEASE_V1.0.2/MSDK/plf/GD32VW55x_standard_peripheral/Source/gd32vw55x_rcu.c:1109
    idx = GET_BITS(RCU_CFG0, 10, 12);
 8001e84:	8329                	srli	a4,a4,0xa
C:/Users/stapi/OneDrive/Desktop/GD32VW553/GD32VW55X_Wifi_BLE_SDK/GD32VW55x_RELEASE_V1.0.2/MSDK/plf/GD32VW55x_standard_peripheral/Source/gd32vw55x_rcu.c:1105
    clk_exp = ahb_exp[idx];
 8001e86:	fe06c683          	lbu	a3,-32(a3) # 7fe0 <__stack_size+0x6fe0>
C:/Users/stapi/OneDrive/Desktop/GD32VW553/GD32VW55X_Wifi_BLE_SDK/GD32VW55x_RELEASE_V1.0.2/MSDK/plf/GD32VW55x_standard_peripheral/Source/gd32vw55x_rcu.c:1109
    idx = GET_BITS(RCU_CFG0, 10, 12);
 8001e8a:	8b1d                	andi	a4,a4,7
C:/Users/stapi/OneDrive/Desktop/GD32VW553/GD32VW55X_Wifi_BLE_SDK/GD32VW55x_RELEASE_V1.0.2/MSDK/plf/GD32VW55x_standard_peripheral/Source/gd32vw55x_rcu.c:1110
    clk_exp = apb1_exp[idx];
 8001e8c:	972a                	add	a4,a4,a0
 8001e8e:	fd074503          	lbu	a0,-48(a4)
C:/Users/stapi/OneDrive/Desktop/GD32VW553/GD32VW55X_Wifi_BLE_SDK/GD32VW55x_RELEASE_V1.0.2/MSDK/plf/GD32VW55x_standard_peripheral/Source/gd32vw55x_rcu.c:1114
    idx = GET_BITS(RCU_CFG0, 13, 15);
 8001e92:	83b5                	srli	a5,a5,0xd
C:/Users/stapi/OneDrive/Desktop/GD32VW553/GD32VW55X_Wifi_BLE_SDK/GD32VW55x_RELEASE_V1.0.2/MSDK/plf/GD32VW55x_standard_peripheral/Source/gd32vw55x_rcu.c:1106
    ahb_freq = cksys_freq >> clk_exp;
 8001e94:	00d5d733          	srl	a4,a1,a3
C:/Users/stapi/OneDrive/Desktop/GD32VW553/GD32VW55X_Wifi_BLE_SDK/GD32VW55x_RELEASE_V1.0.2/MSDK/plf/GD32VW55x_standard_peripheral/Source/gd32vw55x_rcu.c:1114
    idx = GET_BITS(RCU_CFG0, 13, 15);
 8001e98:	8b9d                	andi	a5,a5,7
C:/Users/stapi/OneDrive/Desktop/GD32VW553/GD32VW55X_Wifi_BLE_SDK/GD32VW55x_RELEASE_V1.0.2/MSDK/plf/GD32VW55x_standard_peripheral/Source/gd32vw55x_rcu.c:1115
    clk_exp = apb2_exp[idx];
 8001e9a:	1814                	addi	a3,sp,48
 8001e9c:	97b6                	add	a5,a5,a3
 8001e9e:	4695                	li	a3,5
 8001ea0:	fd87c803          	lbu	a6,-40(a5)
C:/Users/stapi/OneDrive/Desktop/GD32VW553/GD32VW55X_Wifi_BLE_SDK/GD32VW55x_RELEASE_V1.0.2/MSDK/plf/GD32VW55x_standard_peripheral/Source/gd32vw55x_rcu.c:1111
    apb1_freq = ahb_freq >> clk_exp;
 8001ea4:	00a75533          	srl	a0,a4,a0
C:/Users/stapi/OneDrive/Desktop/GD32VW553/GD32VW55X_Wifi_BLE_SDK/GD32VW55x_RELEASE_V1.0.2/MSDK/plf/GD32VW55x_standard_peripheral/Source/gd32vw55x_rcu.c:1123
#ifdef CONFIG_PLATFORM_FPGA
    apb1_freq = apb2_freq;
#endif

    /* return the clocks frequency */
    switch(clock){
 8001ea8:	0ac6ea63          	bltu	a3,a2,8001f5c <rcu_clock_freq_get+0x172>
 8001eac:	080017b7          	lui	a5,0x8001
 8001eb0:	30078793          	addi	a5,a5,768 # 8001300 <_sicode+0x34>
 8001eb4:	20f64633          	sh2add	a2,a2,a5
 8001eb8:	421c                	lw	a5,0(a2)
 8001eba:	8782                	jr	a5
C:/Users/stapi/OneDrive/Desktop/GD32VW553/GD32VW55X_Wifi_BLE_SDK/GD32VW55x_RELEASE_V1.0.2/MSDK/plf/GD32VW55x_standard_peripheral/Source/gd32vw55x_rcu.c:1115
    clk_exp = apb2_exp[idx];
 8001ebc:	852e                	mv	a0,a1
C:/Users/stapi/OneDrive/Desktop/GD32VW553/GD32VW55X_Wifi_BLE_SDK/GD32VW55x_RELEASE_V1.0.2/MSDK/plf/GD32VW55x_standard_peripheral/Source/gd32vw55x_rcu.c:1166
        break;
    default:
        break;
    }
    return ck_freq;
}
 8001ebe:	6145                	addi	sp,sp,48
 8001ec0:	8082                	ret
C:/Users/stapi/OneDrive/Desktop/GD32VW553/GD32VW55X_Wifi_BLE_SDK/GD32VW55x_RELEASE_V1.0.2/MSDK/plf/GD32VW55x_standard_peripheral/Source/gd32vw55x_rcu.c:1081
        cksys_freq = IRC16M_VALUE;
 8001ec2:	00f425b7          	lui	a1,0xf42
 8001ec6:	40058593          	addi	a1,a1,1024 # f42400 <__stack_size+0xf41400>
 8001eca:	b74d                	j	8001e6c <rcu_clock_freq_get+0x82>
C:/Users/stapi/OneDrive/Desktop/GD32VW553/GD32VW55X_Wifi_BLE_SDK/GD32VW55x_RELEASE_V1.0.2/MSDK/plf/GD32VW55x_standard_peripheral/Source/gd32vw55x_rcu.c:1078
    switch(sws){
 8001ecc:	026265b7          	lui	a1,0x2626
 8001ed0:	a0058593          	addi	a1,a1,-1536 # 2625a00 <__stack_size+0x2624a00>
 8001ed4:	bf61                	j	8001e6c <rcu_clock_freq_get+0x82>
C:/Users/stapi/OneDrive/Desktop/GD32VW553/GD32VW55X_Wifi_BLE_SDK/GD32VW55x_RELEASE_V1.0.2/MSDK/plf/GD32VW55x_standard_peripheral/Source/gd32vw55x_rcu.c:1128
        ck_freq = ahb_freq;
 8001ed6:	853a                	mv	a0,a4
C:/Users/stapi/OneDrive/Desktop/GD32VW553/GD32VW55X_Wifi_BLE_SDK/GD32VW55x_RELEASE_V1.0.2/MSDK/plf/GD32VW55x_standard_peripheral/Source/gd32vw55x_rcu.c:1166
}
 8001ed8:	6145                	addi	sp,sp,48
 8001eda:	8082                	ret
C:/Users/stapi/OneDrive/Desktop/GD32VW553/GD32VW55X_Wifi_BLE_SDK/GD32VW55x_RELEASE_V1.0.2/MSDK/plf/GD32VW55x_standard_peripheral/Source/gd32vw55x_rcu.c:1116
    apb2_freq = ahb_freq >> clk_exp;
 8001edc:	01075533          	srl	a0,a4,a6
C:/Users/stapi/OneDrive/Desktop/GD32VW553/GD32VW55X_Wifi_BLE_SDK/GD32VW55x_RELEASE_V1.0.2/MSDK/plf/GD32VW55x_standard_peripheral/Source/gd32vw55x_rcu.c:1166
}
 8001ee0:	6145                	addi	sp,sp,48
 8001ee2:	8082                	ret
C:/Users/stapi/OneDrive/Desktop/GD32VW553/GD32VW55X_Wifi_BLE_SDK/GD32VW55x_RELEASE_V1.0.2/MSDK/plf/GD32VW55x_standard_peripheral/Source/gd32vw55x_rcu.c:1138
        if(RCU_USART0SRC_CKAPB1 == (RCU_CFG1 & RCU_CFG1_USART0SEL)){
 8001ee4:	400246b7          	lui	a3,0x40024
 8001ee8:	88c6a783          	lw	a5,-1908(a3) # 4002388c <_sp+0x2001ef8c>
 8001eec:	c0000737          	lui	a4,0xc0000
 8001ef0:	8ff9                	and	a5,a5,a4
 8001ef2:	d7f1                	beqz	a5,8001ebe <rcu_clock_freq_get+0xd4>
C:/Users/stapi/OneDrive/Desktop/GD32VW553/GD32VW55X_Wifi_BLE_SDK/GD32VW55x_RELEASE_V1.0.2/MSDK/plf/GD32VW55x_standard_peripheral/Source/gd32vw55x_rcu.c:1140
        }else if(RCU_USART0SRC_CKSYS == (RCU_CFG1 & RCU_CFG1_USART0SEL)){
 8001ef4:	88c6a783          	lw	a5,-1908(a3)
 8001ef8:	40000637          	lui	a2,0x40000
C:/Users/stapi/OneDrive/Desktop/GD32VW553/GD32VW55X_Wifi_BLE_SDK/GD32VW55x_RELEASE_V1.0.2/MSDK/plf/GD32VW55x_standard_peripheral/Source/gd32vw55x_rcu.c:1141
            usart0_freq = cksys_freq;
 8001efc:	852e                	mv	a0,a1
C:/Users/stapi/OneDrive/Desktop/GD32VW553/GD32VW55X_Wifi_BLE_SDK/GD32VW55x_RELEASE_V1.0.2/MSDK/plf/GD32VW55x_standard_peripheral/Source/gd32vw55x_rcu.c:1140
        }else if(RCU_USART0SRC_CKSYS == (RCU_CFG1 & RCU_CFG1_USART0SEL)){
 8001efe:	8ff9                	and	a5,a5,a4
 8001f00:	fac78fe3          	beq	a5,a2,8001ebe <rcu_clock_freq_get+0xd4>
C:/Users/stapi/OneDrive/Desktop/GD32VW553/GD32VW55X_Wifi_BLE_SDK/GD32VW55x_RELEASE_V1.0.2/MSDK/plf/GD32VW55x_standard_peripheral/Source/gd32vw55x_rcu.c:1142
        }else if(RCU_USART0SRC_LXTAL == (RCU_CFG1 & RCU_CFG1_USART0SEL)){
 8001f04:	88c6a783          	lw	a5,-1908(a3)
 8001f08:	80000637          	lui	a2,0x80000
C:/Users/stapi/OneDrive/Desktop/GD32VW553/GD32VW55X_Wifi_BLE_SDK/GD32VW55x_RELEASE_V1.0.2/MSDK/plf/GD32VW55x_standard_peripheral/Source/gd32vw55x_rcu.c:1143
            usart0_freq = LXTAL_VALUE;
 8001f0c:	6521                	lui	a0,0x8
C:/Users/stapi/OneDrive/Desktop/GD32VW553/GD32VW55X_Wifi_BLE_SDK/GD32VW55x_RELEASE_V1.0.2/MSDK/plf/GD32VW55x_standard_peripheral/Source/gd32vw55x_rcu.c:1142
        }else if(RCU_USART0SRC_LXTAL == (RCU_CFG1 & RCU_CFG1_USART0SEL)){
 8001f0e:	8ff9                	and	a5,a5,a4
 8001f10:	fac787e3          	beq	a5,a2,8001ebe <rcu_clock_freq_get+0xd4>
C:/Users/stapi/OneDrive/Desktop/GD32VW553/GD32VW55X_Wifi_BLE_SDK/GD32VW55x_RELEASE_V1.0.2/MSDK/plf/GD32VW55x_standard_peripheral/Source/gd32vw55x_rcu.c:1144
        }else if(RCU_USART0SRC_IRC16M == (RCU_CFG1 & RCU_CFG1_USART0SEL)){
 8001f14:	88c6a783          	lw	a5,-1908(a3)
C:/Users/stapi/OneDrive/Desktop/GD32VW553/GD32VW55X_Wifi_BLE_SDK/GD32VW55x_RELEASE_V1.0.2/MSDK/plf/GD32VW55x_standard_peripheral/Source/gd32vw55x_rcu.c:1064
    uint32_t usart0_freq = 0U,i2c0_freq = 0U;
 8001f18:	4501                	li	a0,0
C:/Users/stapi/OneDrive/Desktop/GD32VW553/GD32VW55X_Wifi_BLE_SDK/GD32VW55x_RELEASE_V1.0.2/MSDK/plf/GD32VW55x_standard_peripheral/Source/gd32vw55x_rcu.c:1144
        }else if(RCU_USART0SRC_IRC16M == (RCU_CFG1 & RCU_CFG1_USART0SEL)){
 8001f1a:	8ff9                	and	a5,a5,a4
 8001f1c:	fae791e3          	bne	a5,a4,8001ebe <rcu_clock_freq_get+0xd4>
 8001f20:	a80d                	j	8001f52 <rcu_clock_freq_get+0x168>
C:/Users/stapi/OneDrive/Desktop/GD32VW553/GD32VW55X_Wifi_BLE_SDK/GD32VW55x_RELEASE_V1.0.2/MSDK/plf/GD32VW55x_standard_peripheral/Source/gd32vw55x_rcu.c:1152
        if(RCU_I2C0SRC_CKAPB1 == (RCU_CFG1 & RCU_CFG1_I2C0SEL)){
 8001f22:	400246b7          	lui	a3,0x40024
 8001f26:	88c6a783          	lw	a5,-1908(a3) # 4002388c <_sp+0x2001ef8c>
 8001f2a:	0c000737          	lui	a4,0xc000
 8001f2e:	8ff9                	and	a5,a5,a4
 8001f30:	d7d9                	beqz	a5,8001ebe <rcu_clock_freq_get+0xd4>
C:/Users/stapi/OneDrive/Desktop/GD32VW553/GD32VW55X_Wifi_BLE_SDK/GD32VW55x_RELEASE_V1.0.2/MSDK/plf/GD32VW55x_standard_peripheral/Source/gd32vw55x_rcu.c:1154
        }else if(RCU_I2C0SRC_CKSYS == (RCU_CFG1 & RCU_CFG1_I2C0SEL)){
 8001f32:	88c6a783          	lw	a5,-1908(a3)
 8001f36:	04000637          	lui	a2,0x4000
C:/Users/stapi/OneDrive/Desktop/GD32VW553/GD32VW55X_Wifi_BLE_SDK/GD32VW55x_RELEASE_V1.0.2/MSDK/plf/GD32VW55x_standard_peripheral/Source/gd32vw55x_rcu.c:1155
            i2c0_freq = cksys_freq;
 8001f3a:	852e                	mv	a0,a1
C:/Users/stapi/OneDrive/Desktop/GD32VW553/GD32VW55X_Wifi_BLE_SDK/GD32VW55x_RELEASE_V1.0.2/MSDK/plf/GD32VW55x_standard_peripheral/Source/gd32vw55x_rcu.c:1154
        }else if(RCU_I2C0SRC_CKSYS == (RCU_CFG1 & RCU_CFG1_I2C0SEL)){
 8001f3c:	8ff9                	and	a5,a5,a4
 8001f3e:	f8c780e3          	beq	a5,a2,8001ebe <rcu_clock_freq_get+0xd4>
C:/Users/stapi/OneDrive/Desktop/GD32VW553/GD32VW55X_Wifi_BLE_SDK/GD32VW55x_RELEASE_V1.0.2/MSDK/plf/GD32VW55x_standard_peripheral/Source/gd32vw55x_rcu.c:1156
        }else if(RCU_I2C0SRC_IRC16M == (RCU_CFG1 & RCU_CFG1_I2C0SEL)){
 8001f42:	88c6a783          	lw	a5,-1908(a3)
 8001f46:	080006b7          	lui	a3,0x8000
C:/Users/stapi/OneDrive/Desktop/GD32VW553/GD32VW55X_Wifi_BLE_SDK/GD32VW55x_RELEASE_V1.0.2/MSDK/plf/GD32VW55x_standard_peripheral/Source/gd32vw55x_rcu.c:1064
    uint32_t usart0_freq = 0U,i2c0_freq = 0U;
 8001f4a:	4501                	li	a0,0
C:/Users/stapi/OneDrive/Desktop/GD32VW553/GD32VW55X_Wifi_BLE_SDK/GD32VW55x_RELEASE_V1.0.2/MSDK/plf/GD32VW55x_standard_peripheral/Source/gd32vw55x_rcu.c:1156
        }else if(RCU_I2C0SRC_IRC16M == (RCU_CFG1 & RCU_CFG1_I2C0SEL)){
 8001f4c:	8f7d                	and	a4,a4,a5
 8001f4e:	f6d718e3          	bne	a4,a3,8001ebe <rcu_clock_freq_get+0xd4>
C:/Users/stapi/OneDrive/Desktop/GD32VW553/GD32VW55X_Wifi_BLE_SDK/GD32VW55x_RELEASE_V1.0.2/MSDK/plf/GD32VW55x_standard_peripheral/Source/gd32vw55x_rcu.c:1145
            usart0_freq = IRC16M_VALUE;
 8001f52:	00f42537          	lui	a0,0xf42
 8001f56:	40050513          	addi	a0,a0,1024 # f42400 <__stack_size+0xf41400>
 8001f5a:	b795                	j	8001ebe <rcu_clock_freq_get+0xd4>
C:/Users/stapi/OneDrive/Desktop/GD32VW553/GD32VW55X_Wifi_BLE_SDK/GD32VW55x_RELEASE_V1.0.2/MSDK/plf/GD32VW55x_standard_peripheral/Source/gd32vw55x_rcu.c:1062
    uint32_t sws, ck_freq = 0U;
 8001f5c:	4501                	li	a0,0
 8001f5e:	b785                	j	8001ebe <rcu_clock_freq_get+0xd4>

08001f60 <usart_deinit>:
usart_deinit():
C:/Users/stapi/OneDrive/Desktop/GD32VW553/GD32VW55X_Wifi_BLE_SDK/GD32VW55x_RELEASE_V1.0.2/MSDK/plf/GD32VW55x_standard_peripheral/Source/gd32vw55x_usart.c:52
    \param[in]  usart_periph: USART0/UARTx(x=1,2)
    \param[out] none
    \retval     none
*/
void usart_deinit(uint32_t usart_periph)
{
 8001f60:	7c1002ef          	jal	t0,8002f20 <__riscv_save_0>
C:/Users/stapi/OneDrive/Desktop/GD32VW553/GD32VW55X_Wifi_BLE_SDK/GD32VW55x_RELEASE_V1.0.2/MSDK/plf/GD32VW55x_standard_peripheral/Source/gd32vw55x_usart.c:53
    switch(usart_periph){
 8001f64:	400057b7          	lui	a5,0x40005
 8001f68:	80078793          	addi	a5,a5,-2048 # 40004800 <_sp+0x1fffff00>
 8001f6c:	00f50e63          	beq	a0,a5,8001f88 <usart_deinit+0x28>
 8001f70:	400117b7          	lui	a5,0x40011
 8001f74:	02f50c63          	beq	a0,a5,8001fac <usart_deinit+0x4c>
 8001f78:	400047b7          	lui	a5,0x40004
 8001f7c:	40078793          	addi	a5,a5,1024 # 40004400 <_sp+0x1ffffb00>
 8001f80:	00f50d63          	beq	a0,a5,8001f9a <usart_deinit+0x3a>
C:/Users/stapi/OneDrive/Desktop/GD32VW553/GD32VW55X_Wifi_BLE_SDK/GD32VW55x_RELEASE_V1.0.2/MSDK/plf/GD32VW55x_standard_peripheral/Source/gd32vw55x_usart.c:72
        rcu_periph_reset_disable(RCU_UART2RST);
        break;
    default:
        break;
    }
}
 8001f84:	7c10006f          	j	8002f44 <__riscv_restore_0>
C:/Users/stapi/OneDrive/Desktop/GD32VW553/GD32VW55X_Wifi_BLE_SDK/GD32VW55x_RELEASE_V1.0.2/MSDK/plf/GD32VW55x_standard_peripheral/Source/gd32vw55x_usart.c:56
        rcu_periph_reset_enable(RCU_USART0RST);
 8001f88:	6405                	lui	s0,0x1
 8001f8a:	81240513          	addi	a0,s0,-2030 # 812 <__stack_size-0x7ee>
 8001f8e:	3525                	jal	8001db6 <rcu_periph_reset_enable>
C:/Users/stapi/OneDrive/Desktop/GD32VW553/GD32VW55X_Wifi_BLE_SDK/GD32VW55x_RELEASE_V1.0.2/MSDK/plf/GD32VW55x_standard_peripheral/Source/gd32vw55x_usart.c:57
        rcu_periph_reset_disable(RCU_USART0RST);
 8001f90:	81240513          	addi	a0,s0,-2030
 8001f94:	3d2d                	jal	8001dce <rcu_periph_reset_disable>
C:/Users/stapi/OneDrive/Desktop/GD32VW553/GD32VW55X_Wifi_BLE_SDK/GD32VW55x_RELEASE_V1.0.2/MSDK/plf/GD32VW55x_standard_peripheral/Source/gd32vw55x_usart.c:72
}
 8001f96:	7af0006f          	j	8002f44 <__riscv_restore_0>
C:/Users/stapi/OneDrive/Desktop/GD32VW553/GD32VW55X_Wifi_BLE_SDK/GD32VW55x_RELEASE_V1.0.2/MSDK/plf/GD32VW55x_standard_peripheral/Source/gd32vw55x_usart.c:61
        rcu_periph_reset_enable(RCU_UART1RST);
 8001f9a:	6405                	lui	s0,0x1
 8001f9c:	81140513          	addi	a0,s0,-2031 # 811 <__stack_size-0x7ef>
 8001fa0:	3d19                	jal	8001db6 <rcu_periph_reset_enable>
C:/Users/stapi/OneDrive/Desktop/GD32VW553/GD32VW55X_Wifi_BLE_SDK/GD32VW55x_RELEASE_V1.0.2/MSDK/plf/GD32VW55x_standard_peripheral/Source/gd32vw55x_usart.c:62
        rcu_periph_reset_disable(RCU_UART1RST);
 8001fa2:	81140513          	addi	a0,s0,-2031
 8001fa6:	3525                	jal	8001dce <rcu_periph_reset_disable>
C:/Users/stapi/OneDrive/Desktop/GD32VW553/GD32VW55X_Wifi_BLE_SDK/GD32VW55x_RELEASE_V1.0.2/MSDK/plf/GD32VW55x_standard_peripheral/Source/gd32vw55x_usart.c:72
}
 8001fa8:	79d0006f          	j	8002f44 <__riscv_restore_0>
C:/Users/stapi/OneDrive/Desktop/GD32VW553/GD32VW55X_Wifi_BLE_SDK/GD32VW55x_RELEASE_V1.0.2/MSDK/plf/GD32VW55x_standard_peripheral/Source/gd32vw55x_usart.c:66
        rcu_periph_reset_enable(RCU_UART2RST);
 8001fac:	6405                	lui	s0,0x1
 8001fae:	90440513          	addi	a0,s0,-1788 # 904 <__stack_size-0x6fc>
 8001fb2:	3511                	jal	8001db6 <rcu_periph_reset_enable>
C:/Users/stapi/OneDrive/Desktop/GD32VW553/GD32VW55X_Wifi_BLE_SDK/GD32VW55x_RELEASE_V1.0.2/MSDK/plf/GD32VW55x_standard_peripheral/Source/gd32vw55x_usart.c:67
        rcu_periph_reset_disable(RCU_UART2RST);
 8001fb4:	90440513          	addi	a0,s0,-1788
 8001fb8:	3d19                	jal	8001dce <rcu_periph_reset_disable>
C:/Users/stapi/OneDrive/Desktop/GD32VW553/GD32VW55X_Wifi_BLE_SDK/GD32VW55x_RELEASE_V1.0.2/MSDK/plf/GD32VW55x_standard_peripheral/Source/gd32vw55x_usart.c:72
}
 8001fba:	78b0006f          	j	8002f44 <__riscv_restore_0>

08001fbe <usart_baudrate_set>:
usart_baudrate_set():
C:/Users/stapi/OneDrive/Desktop/GD32VW553/GD32VW55X_Wifi_BLE_SDK/GD32VW55x_RELEASE_V1.0.2/MSDK/plf/GD32VW55x_standard_peripheral/Source/gd32vw55x_usart.c:82
    \param[in]  baudval: baud rate value
    \param[out] none
    \retval     none
*/
void usart_baudrate_set(uint32_t usart_periph, uint32_t baudval)
{
 8001fbe:	763002ef          	jal	t0,8002f20 <__riscv_save_0>
C:/Users/stapi/OneDrive/Desktop/GD32VW553/GD32VW55X_Wifi_BLE_SDK/GD32VW55x_RELEASE_V1.0.2/MSDK/plf/GD32VW55x_standard_peripheral/Source/gd32vw55x_usart.c:84
    uint32_t uclk = 0U, intdiv = 0U, fradiv = 0U, udiv = 0U;
    switch(usart_periph){
 8001fc2:	400057b7          	lui	a5,0x40005
 8001fc6:	80078793          	addi	a5,a5,-2048 # 40004800 <_sp+0x1fffff00>
C:/Users/stapi/OneDrive/Desktop/GD32VW553/GD32VW55X_Wifi_BLE_SDK/GD32VW55x_RELEASE_V1.0.2/MSDK/plf/GD32VW55x_standard_peripheral/Source/gd32vw55x_usart.c:82
{
 8001fca:	842a                	mv	s0,a0
 8001fcc:	84ae                	mv	s1,a1
C:/Users/stapi/OneDrive/Desktop/GD32VW553/GD32VW55X_Wifi_BLE_SDK/GD32VW55x_RELEASE_V1.0.2/MSDK/plf/GD32VW55x_standard_peripheral/Source/gd32vw55x_usart.c:84
    switch(usart_periph){
 8001fce:	04f50a63          	beq	a0,a5,8002022 <usart_baudrate_set+0x64>
 8001fd2:	400117b7          	lui	a5,0x40011
 8001fd6:	04f50c63          	beq	a0,a5,800202e <usart_baudrate_set+0x70>
 8001fda:	400047b7          	lui	a5,0x40004
 8001fde:	40078793          	addi	a5,a5,1024 # 40004400 <_sp+0x1ffffb00>
 8001fe2:	4501                	li	a0,0
 8001fe4:	04f40263          	beq	s0,a5,8002028 <usart_baudrate_set+0x6a>
C:/Users/stapi/OneDrive/Desktop/GD32VW553/GD32VW55X_Wifi_BLE_SDK/GD32VW55x_RELEASE_V1.0.2/MSDK/plf/GD32VW55x_standard_peripheral/Source/gd32vw55x_usart.c:101
         uclk = rcu_clock_freq_get(CK_APB2);
         break;
    default:
         break;
    }
    if(USART_CTL0(usart_periph) & USART_CTL0_OVSMOD){
 8001fe8:	4018                	lw	a4,0(s0)
 8001fea:	67a1                	lui	a5,0x8
C:/Users/stapi/OneDrive/Desktop/GD32VW553/GD32VW55X_Wifi_BLE_SDK/GD32VW55x_RELEASE_V1.0.2/MSDK/plf/GD32VW55x_standard_peripheral/Source/gd32vw55x_usart.c:103
        /* oversampling by 8, configure the value of USART_BAUD */
        udiv = ((2U * uclk) + (baudval / 2U)) / baudval;
 8001fec:	0014d593          	srli	a1,s1,0x1
C:/Users/stapi/OneDrive/Desktop/GD32VW553/GD32VW55X_Wifi_BLE_SDK/GD32VW55x_RELEASE_V1.0.2/MSDK/plf/GD32VW55x_standard_peripheral/Source/gd32vw55x_usart.c:101
    if(USART_CTL0(usart_periph) & USART_CTL0_OVSMOD){
 8001ff0:	8f7d                	and	a4,a4,a5
 8001ff2:	cf19                	beqz	a4,8002010 <usart_baudrate_set+0x52>
C:/Users/stapi/OneDrive/Desktop/GD32VW553/GD32VW55X_Wifi_BLE_SDK/GD32VW55x_RELEASE_V1.0.2/MSDK/plf/GD32VW55x_standard_peripheral/Source/gd32vw55x_usart.c:103
        udiv = ((2U * uclk) + (baudval / 2U)) / baudval;
 8001ff4:	20b527b3          	sh1add	a5,a0,a1
 8001ff8:	0297d5b3          	divu	a1,a5,s1
C:/Users/stapi/OneDrive/Desktop/GD32VW553/GD32VW55X_Wifi_BLE_SDK/GD32VW55x_RELEASE_V1.0.2/MSDK/plf/GD32VW55x_standard_peripheral/Source/gd32vw55x_usart.c:104
        intdiv = udiv & 0x0000fff0U;
 8001ffc:	6541                	lui	a0,0x10
 8001ffe:	1541                	addi	a0,a0,-16
C:/Users/stapi/OneDrive/Desktop/GD32VW553/GD32VW55X_Wifi_BLE_SDK/GD32VW55x_RELEASE_V1.0.2/MSDK/plf/GD32VW55x_standard_peripheral/Source/gd32vw55x_usart.c:105
        fradiv = (udiv >> 1U) & 0x00000007U;
 8002000:	0015d793          	srli	a5,a1,0x1
 8002004:	8b9d                	andi	a5,a5,7
C:/Users/stapi/OneDrive/Desktop/GD32VW553/GD32VW55X_Wifi_BLE_SDK/GD32VW55x_RELEASE_V1.0.2/MSDK/plf/GD32VW55x_standard_peripheral/Source/gd32vw55x_usart.c:104
        intdiv = udiv & 0x0000fff0U;
 8002006:	8de9                	and	a1,a1,a0
C:/Users/stapi/OneDrive/Desktop/GD32VW553/GD32VW55X_Wifi_BLE_SDK/GD32VW55x_RELEASE_V1.0.2/MSDK/plf/GD32VW55x_standard_peripheral/Source/gd32vw55x_usart.c:106
        USART_BAUD(usart_periph) = ((USART_BAUD_FRADIV | USART_BAUD_INTDIV) & (intdiv | fradiv));
 8002008:	8ddd                	or	a1,a1,a5
 800200a:	c44c                	sw	a1,12(s0)
C:/Users/stapi/OneDrive/Desktop/GD32VW553/GD32VW55X_Wifi_BLE_SDK/GD32VW55x_RELEASE_V1.0.2/MSDK/plf/GD32VW55x_standard_peripheral/Source/gd32vw55x_usart.c:114
        udiv = (uclk + (baudval / 2U)) / baudval;
        intdiv = udiv & 0x0000fff0U;
        fradiv = udiv & 0x0000000fU;
        USART_BAUD(usart_periph) = ((USART_BAUD_FRADIV | USART_BAUD_INTDIV) & (intdiv | fradiv));
    }
}
 800200c:	7390006f          	j	8002f44 <__riscv_restore_0>
C:/Users/stapi/OneDrive/Desktop/GD32VW553/GD32VW55X_Wifi_BLE_SDK/GD32VW55x_RELEASE_V1.0.2/MSDK/plf/GD32VW55x_standard_peripheral/Source/gd32vw55x_usart.c:109
        udiv = (uclk + (baudval / 2U)) / baudval;
 8002010:	00b507b3          	add	a5,a0,a1
 8002014:	0297d5b3          	divu	a1,a5,s1
C:/Users/stapi/OneDrive/Desktop/GD32VW553/GD32VW55X_Wifi_BLE_SDK/GD32VW55x_RELEASE_V1.0.2/MSDK/plf/GD32VW55x_standard_peripheral/Source/gd32vw55x_usart.c:112
        USART_BAUD(usart_periph) = ((USART_BAUD_FRADIV | USART_BAUD_INTDIV) & (intdiv | fradiv));
 8002018:	0805c5b3          	zext.h	a1,a1
 800201c:	c44c                	sw	a1,12(s0)
C:/Users/stapi/OneDrive/Desktop/GD32VW553/GD32VW55X_Wifi_BLE_SDK/GD32VW55x_RELEASE_V1.0.2/MSDK/plf/GD32VW55x_standard_peripheral/Source/gd32vw55x_usart.c:114
}
 800201e:	7270006f          	j	8002f44 <__riscv_restore_0>
C:/Users/stapi/OneDrive/Desktop/GD32VW553/GD32VW55X_Wifi_BLE_SDK/GD32VW55x_RELEASE_V1.0.2/MSDK/plf/GD32VW55x_standard_peripheral/Source/gd32vw55x_usart.c:88
         uclk = rcu_clock_freq_get(CK_USART0);
 8002022:	4511                	li	a0,4
 8002024:	33d9                	jal	8001dea <rcu_clock_freq_get>
C:/Users/stapi/OneDrive/Desktop/GD32VW553/GD32VW55X_Wifi_BLE_SDK/GD32VW55x_RELEASE_V1.0.2/MSDK/plf/GD32VW55x_standard_peripheral/Source/gd32vw55x_usart.c:89
         break;
 8002026:	b7c9                	j	8001fe8 <usart_baudrate_set+0x2a>
C:/Users/stapi/OneDrive/Desktop/GD32VW553/GD32VW55X_Wifi_BLE_SDK/GD32VW55x_RELEASE_V1.0.2/MSDK/plf/GD32VW55x_standard_peripheral/Source/gd32vw55x_usart.c:92
         uclk = rcu_clock_freq_get(CK_APB1);
 8002028:	4509                	li	a0,2
 800202a:	33c1                	jal	8001dea <rcu_clock_freq_get>
C:/Users/stapi/OneDrive/Desktop/GD32VW553/GD32VW55X_Wifi_BLE_SDK/GD32VW55x_RELEASE_V1.0.2/MSDK/plf/GD32VW55x_standard_peripheral/Source/gd32vw55x_usart.c:93
         break;
 800202c:	bf75                	j	8001fe8 <usart_baudrate_set+0x2a>
C:/Users/stapi/OneDrive/Desktop/GD32VW553/GD32VW55X_Wifi_BLE_SDK/GD32VW55x_RELEASE_V1.0.2/MSDK/plf/GD32VW55x_standard_peripheral/Source/gd32vw55x_usart.c:96
         uclk = rcu_clock_freq_get(CK_APB2);
 800202e:	450d                	li	a0,3
 8002030:	3b6d                	jal	8001dea <rcu_clock_freq_get>
C:/Users/stapi/OneDrive/Desktop/GD32VW553/GD32VW55X_Wifi_BLE_SDK/GD32VW55x_RELEASE_V1.0.2/MSDK/plf/GD32VW55x_standard_peripheral/Source/gd32vw55x_usart.c:97
         break;
 8002032:	bf5d                	j	8001fe8 <usart_baudrate_set+0x2a>

08002034 <usart_enable>:
usart_enable():
C:/Users/stapi/OneDrive/Desktop/GD32VW553/GD32VW55X_Wifi_BLE_SDK/GD32VW55x_RELEASE_V1.0.2/MSDK/plf/GD32VW55x_standard_peripheral/Source/gd32vw55x_usart.c:186
    \param[out] none
    \retval     none
*/
void usart_enable(uint32_t usart_periph)
{
    USART_CTL0(usart_periph) |= USART_CTL0_UEN;
 8002034:	411c                	lw	a5,0(a0)
 8002036:	0017e793          	ori	a5,a5,1
 800203a:	c11c                	sw	a5,0(a0)
C:/Users/stapi/OneDrive/Desktop/GD32VW553/GD32VW55X_Wifi_BLE_SDK/GD32VW55x_RELEASE_V1.0.2/MSDK/plf/GD32VW55x_standard_peripheral/Source/gd32vw55x_usart.c:187
}
 800203c:	8082                	ret

0800203e <usart_transmit_config>:
usart_transmit_config():
C:/Users/stapi/OneDrive/Desktop/GD32VW553/GD32VW55X_Wifi_BLE_SDK/GD32VW55x_RELEASE_V1.0.2/MSDK/plf/GD32VW55x_standard_peripheral/Source/gd32vw55x_usart.c:212
    \param[out] none
    \retval     none
*/
void usart_transmit_config(uint32_t usart_periph, uint32_t txconfig)
{
    USART_CTL0(usart_periph) &= ~USART_CTL0_TEN;
 800203e:	4118                	lw	a4,0(a0)
 8002040:	9b5d                	andi	a4,a4,-9
 8002042:	c118                	sw	a4,0(a0)
C:/Users/stapi/OneDrive/Desktop/GD32VW553/GD32VW55X_Wifi_BLE_SDK/GD32VW55x_RELEASE_V1.0.2/MSDK/plf/GD32VW55x_standard_peripheral/Source/gd32vw55x_usart.c:214
    /* configure transfer mode */
    USART_CTL0(usart_periph) |= txconfig;
 8002044:	411c                	lw	a5,0(a0)
 8002046:	8fcd                	or	a5,a5,a1
 8002048:	c11c                	sw	a5,0(a0)
C:/Users/stapi/OneDrive/Desktop/GD32VW553/GD32VW55X_Wifi_BLE_SDK/GD32VW55x_RELEASE_V1.0.2/MSDK/plf/GD32VW55x_standard_peripheral/Source/gd32vw55x_usart.c:215
}
 800204a:	8082                	ret

0800204c <usart_receive_config>:
usart_receive_config():
C:/Users/stapi/OneDrive/Desktop/GD32VW553/GD32VW55X_Wifi_BLE_SDK/GD32VW55x_RELEASE_V1.0.2/MSDK/plf/GD32VW55x_standard_peripheral/Source/gd32vw55x_usart.c:229
    \param[out] none
    \retval     none
*/
void usart_receive_config(uint32_t usart_periph, uint32_t rxconfig)
{
    USART_CTL0(usart_periph) &= ~USART_CTL0_REN;
 800204c:	4118                	lw	a4,0(a0)
 800204e:	9b6d                	andi	a4,a4,-5
 8002050:	c118                	sw	a4,0(a0)
C:/Users/stapi/OneDrive/Desktop/GD32VW553/GD32VW55X_Wifi_BLE_SDK/GD32VW55x_RELEASE_V1.0.2/MSDK/plf/GD32VW55x_standard_peripheral/Source/gd32vw55x_usart.c:231
    /* configure receiver mode */
    USART_CTL0(usart_periph) |= rxconfig;
 8002052:	411c                	lw	a5,0(a0)
 8002054:	8fcd                	or	a5,a5,a1
 8002056:	c11c                	sw	a5,0(a0)
C:/Users/stapi/OneDrive/Desktop/GD32VW553/GD32VW55X_Wifi_BLE_SDK/GD32VW55x_RELEASE_V1.0.2/MSDK/plf/GD32VW55x_standard_peripheral/Source/gd32vw55x_usart.c:232
}
 8002058:	8082                	ret

0800205a <usart_data_transmit>:
usart_data_transmit():
C:/Users/stapi/OneDrive/Desktop/GD32VW553/GD32VW55X_Wifi_BLE_SDK/GD32VW55x_RELEASE_V1.0.2/MSDK/plf/GD32VW55x_standard_peripheral/Source/gd32vw55x_usart.c:410
    \param[out] none
    \retval     none
*/
void usart_data_transmit(uint32_t usart_periph, uint16_t data)
{
    USART_TDATA(usart_periph) = (uint32_t)((uint16_t)USART_TDATA_TDATA & data);
 800205a:	1ff5f593          	andi	a1,a1,511
 800205e:	d50c                	sw	a1,40(a0)
C:/Users/stapi/OneDrive/Desktop/GD32VW553/GD32VW55X_Wifi_BLE_SDK/GD32VW55x_RELEASE_V1.0.2/MSDK/plf/GD32VW55x_standard_peripheral/Source/gd32vw55x_usart.c:411
}
 8002060:	8082                	ret

08002062 <usart_flag_get>:
usart_flag_get():
C:/Users/stapi/OneDrive/Desktop/GD32VW553/GD32VW55X_Wifi_BLE_SDK/GD32VW55x_RELEASE_V1.0.2/MSDK/plf/GD32VW55x_standard_peripheral/Source/gd32vw55x_usart.c:1142
    \param[out] none
    \retval     FlagStatus: SET or RESET
*/
FlagStatus usart_flag_get(uint32_t usart_periph, usart_flag_enum flag)
{
    if(RESET != (USART_REG_VAL(usart_periph, flag) & BIT(USART_BIT_POS(flag)))){
 8002062:	0065d793          	srli	a5,a1,0x6
 8002066:	3ff7f793          	andi	a5,a5,1023
 800206a:	97aa                	add	a5,a5,a0
 800206c:	4388                	lw	a0,0(a5)
 800206e:	00b55533          	srl	a0,a0,a1
C:/Users/stapi/OneDrive/Desktop/GD32VW553/GD32VW55X_Wifi_BLE_SDK/GD32VW55x_RELEASE_V1.0.2/MSDK/plf/GD32VW55x_standard_peripheral/Source/gd32vw55x_usart.c:1147
        return SET;
    }else{
        return RESET;
    }
}
 8002072:	8905                	andi	a0,a0,1
 8002074:	8082                	ret

08002076 <usart_interrupt_enable>:
usart_interrupt_enable():
C:/Users/stapi/OneDrive/Desktop/GD32VW553/GD32VW55X_Wifi_BLE_SDK/GD32VW55x_RELEASE_V1.0.2/MSDK/plf/GD32VW55x_standard_peripheral/Source/gd32vw55x_usart.c:1206
    \param[out] none
    \retval     none
*/
void usart_interrupt_enable(uint32_t usart_periph, usart_interrupt_enum interrupt)
{
    USART_REG_VAL(usart_periph, interrupt) |= BIT(USART_BIT_POS(interrupt));
 8002076:	0065d793          	srli	a5,a1,0x6
 800207a:	3ff7f793          	andi	a5,a5,1023
 800207e:	953e                	add	a0,a0,a5
 8002080:	411c                	lw	a5,0(a0)
 8002082:	28b795b3          	bset	a1,a5,a1
 8002086:	c10c                	sw	a1,0(a0)
C:/Users/stapi/OneDrive/Desktop/GD32VW553/GD32VW55X_Wifi_BLE_SDK/GD32VW55x_RELEASE_V1.0.2/MSDK/plf/GD32VW55x_standard_peripheral/Source/gd32vw55x_usart.c:1207
}
 8002088:	8082                	ret

0800208a <Exception_Init>:
Exception_Init():
C:/Users/stapi/OneDrive/Desktop/GD32VW553/GD32VW55X_Wifi_BLE_SDK/GD32VW55x_RELEASE_V1.0.2/MSDK/plf/riscv/env/handlers.c:586
 * \note
 * Called in \ref _init function, used to initialize default exception handlers for all exception IDs
 */
void Exception_Init(void)
{
    for (int i = 0; i < MAX_SYSTEM_EXCEPTION_NUM + 1; i++) {
 800208a:	9f418793          	addi	a5,gp,-1548 # 20000554 <SystemExceptionHandlers>
C:/Users/stapi/OneDrive/Desktop/GD32VW553/GD32VW55X_Wifi_BLE_SDK/GD32VW55x_RELEASE_V1.0.2/MSDK/plf/riscv/env/handlers.c:587
        SystemExceptionHandlers[i] = (unsigned long)system_default_exception_handler;
 800208e:	08002737          	lui	a4,0x8002
 8002092:	1ec70713          	addi	a4,a4,492 # 80021ec <system_default_exception_handler>
 8002096:	03478693          	addi	a3,a5,52 # 8034 <__stack_size+0x7034>
C:/Users/stapi/OneDrive/Desktop/GD32VW553/GD32VW55X_Wifi_BLE_SDK/GD32VW55x_RELEASE_V1.0.2/MSDK/plf/riscv/env/handlers.c:587 (discriminator 3)
 800209a:	c398                	sw	a4,0(a5)
C:/Users/stapi/OneDrive/Desktop/GD32VW553/GD32VW55X_Wifi_BLE_SDK/GD32VW55x_RELEASE_V1.0.2/MSDK/plf/riscv/env/handlers.c:586 (discriminator 3)
    for (int i = 0; i < MAX_SYSTEM_EXCEPTION_NUM + 1; i++) {
 800209c:	0791                	addi	a5,a5,4
 800209e:	fed79ee3          	bne	a5,a3,800209a <Exception_Init+0x10>
C:/Users/stapi/OneDrive/Desktop/GD32VW553/GD32VW55X_Wifi_BLE_SDK/GD32VW55x_RELEASE_V1.0.2/MSDK/plf/riscv/env/handlers.c:589
    }
}
 80020a2:	8082                	ret

080020a4 <Exception_Register_EXC>:
Exception_Register_EXC():
C:/Users/stapi/OneDrive/Desktop/GD32VW553/GD32VW55X_Wifi_BLE_SDK/GD32VW55x_RELEASE_V1.0.2/MSDK/plf/riscv/env/handlers.c:601
 * \param   EXCn    See \ref EXCn_Type
 * \param   exc_handler     The exception handler for this exception code EXCn
 */
void Exception_Register_EXC(uint32_t EXCn, unsigned long exc_handler)
{
    if ((EXCn < MAX_SYSTEM_EXCEPTION_NUM) && (EXCn >= 0)) {
 80020a4:	47ad                	li	a5,11
 80020a6:	00a7e863          	bltu	a5,a0,80020b6 <Exception_Register_EXC+0x12>
C:/Users/stapi/OneDrive/Desktop/GD32VW553/GD32VW55X_Wifi_BLE_SDK/GD32VW55x_RELEASE_V1.0.2/MSDK/plf/riscv/env/handlers.c:602
        SystemExceptionHandlers[EXCn] = exc_handler;
 80020aa:	9f418793          	addi	a5,gp,-1548 # 20000554 <SystemExceptionHandlers>
 80020ae:	20f54533          	sh2add	a0,a0,a5
 80020b2:	c10c                	sw	a1,0(a0)
 80020b4:	8082                	ret
C:/Users/stapi/OneDrive/Desktop/GD32VW553/GD32VW55X_Wifi_BLE_SDK/GD32VW55x_RELEASE_V1.0.2/MSDK/plf/riscv/env/handlers.c:603
    } else if (EXCn == NMI_EXCn) {
 80020b6:	6785                	lui	a5,0x1
 80020b8:	17fd                	addi	a5,a5,-1
 80020ba:	00f50363          	beq	a0,a5,80020c0 <Exception_Register_EXC+0x1c>
C:/Users/stapi/OneDrive/Desktop/GD32VW553/GD32VW55X_Wifi_BLE_SDK/GD32VW55x_RELEASE_V1.0.2/MSDK/plf/riscv/env/handlers.c:606
        SystemExceptionHandlers[MAX_SYSTEM_EXCEPTION_NUM] = exc_handler;
    }
}
 80020be:	8082                	ret
C:/Users/stapi/OneDrive/Desktop/GD32VW553/GD32VW55X_Wifi_BLE_SDK/GD32VW55x_RELEASE_V1.0.2/MSDK/plf/riscv/env/handlers.c:604
        SystemExceptionHandlers[MAX_SYSTEM_EXCEPTION_NUM] = exc_handler;
 80020c0:	a2b1a223          	sw	a1,-1500(gp) # 20000584 <SystemExceptionHandlers+0x30>
C:/Users/stapi/OneDrive/Desktop/GD32VW553/GD32VW55X_Wifi_BLE_SDK/GD32VW55x_RELEASE_V1.0.2/MSDK/plf/riscv/env/handlers.c:606
}
 80020c4:	8082                	ret

080020c6 <core_exception_handler>:
core_exception_handler():
C:/Users/stapi/OneDrive/Desktop/GD32VW553/GD32VW55X_Wifi_BLE_SDK/GD32VW55x_RELEASE_V1.0.2/MSDK/plf/riscv/env/handlers.c:640
 * - For the core_exception_handler template, we provided exception register function \ref Exception_Register_EXC
 *   which can help developer to register your exception handler for specific exception number.
 */
uint32_t core_exception_handler(unsigned long mcause, unsigned long sp)
{
    uint32_t EXCn = (uint32_t)(mcause & 0X00000fff);
 80020c6:	6785                	lui	a5,0x1
 80020c8:	17fd                	addi	a5,a5,-1
 80020ca:	00f57733          	and	a4,a0,a5
C:/Users/stapi/OneDrive/Desktop/GD32VW553/GD32VW55X_Wifi_BLE_SDK/GD32VW55x_RELEASE_V1.0.2/MSDK/plf/riscv/env/handlers.c:643
    EXC_HANDLER exc_handler;

    if ((EXCn < MAX_SYSTEM_EXCEPTION_NUM) && (EXCn >= 0)) {
 80020ce:	46ad                	li	a3,11
 80020d0:	00e6ee63          	bltu	a3,a4,80020ec <core_exception_handler+0x26>
C:/Users/stapi/OneDrive/Desktop/GD32VW553/GD32VW55X_Wifi_BLE_SDK/GD32VW55x_RELEASE_V1.0.2/MSDK/plf/riscv/env/handlers.c:644
        exc_handler = (EXC_HANDLER)SystemExceptionHandlers[EXCn];
 80020d4:	9f418793          	addi	a5,gp,-1548 # 20000554 <SystemExceptionHandlers>
 80020d8:	20f74733          	sh2add	a4,a4,a5
 80020dc:	431c                	lw	a5,0(a4)
C:/Users/stapi/OneDrive/Desktop/GD32VW553/GD32VW55X_Wifi_BLE_SDK/GD32VW55x_RELEASE_V1.0.2/MSDK/plf/riscv/env/handlers.c:650
    } else if (EXCn == NMI_EXCn) {
        exc_handler = (EXC_HANDLER)SystemExceptionHandlers[MAX_SYSTEM_EXCEPTION_NUM];
    } else {
        exc_handler = (EXC_HANDLER)system_default_exception_handler;
    }
    if (exc_handler != NULL) {
 80020de:	c39d                	beqz	a5,8002104 <core_exception_handler+0x3e>
C:/Users/stapi/OneDrive/Desktop/GD32VW553/GD32VW55X_Wifi_BLE_SDK/GD32VW55x_RELEASE_V1.0.2/MSDK/plf/riscv/env/handlers.c:639
{
 80020e0:	641002ef          	jal	t0,8002f20 <__riscv_save_0>
C:/Users/stapi/OneDrive/Desktop/GD32VW553/GD32VW55X_Wifi_BLE_SDK/GD32VW55x_RELEASE_V1.0.2/MSDK/plf/riscv/env/handlers.c:651
        exc_handler(mcause, sp);
 80020e4:	9782                	jalr	a5
C:/Users/stapi/OneDrive/Desktop/GD32VW553/GD32VW55X_Wifi_BLE_SDK/GD32VW55x_RELEASE_V1.0.2/MSDK/plf/riscv/env/handlers.c:654
    }
    return 0;
}
 80020e6:	4501                	li	a0,0
 80020e8:	65d0006f          	j	8002f44 <__riscv_restore_0>
C:/Users/stapi/OneDrive/Desktop/GD32VW553/GD32VW55X_Wifi_BLE_SDK/GD32VW55x_RELEASE_V1.0.2/MSDK/plf/riscv/env/handlers.c:645
    } else if (EXCn == NMI_EXCn) {
 80020ec:	00f70e63          	beq	a4,a5,8002108 <core_exception_handler+0x42>
C:/Users/stapi/OneDrive/Desktop/GD32VW553/GD32VW55X_Wifi_BLE_SDK/GD32VW55x_RELEASE_V1.0.2/MSDK/plf/riscv/env/handlers.c:648
        exc_handler = (EXC_HANDLER)system_default_exception_handler;
 80020f0:	080027b7          	lui	a5,0x8002
 80020f4:	1ec78793          	addi	a5,a5,492 # 80021ec <system_default_exception_handler>
C:/Users/stapi/OneDrive/Desktop/GD32VW553/GD32VW55X_Wifi_BLE_SDK/GD32VW55x_RELEASE_V1.0.2/MSDK/plf/riscv/env/handlers.c:639
{
 80020f8:	629002ef          	jal	t0,8002f20 <__riscv_save_0>
C:/Users/stapi/OneDrive/Desktop/GD32VW553/GD32VW55X_Wifi_BLE_SDK/GD32VW55x_RELEASE_V1.0.2/MSDK/plf/riscv/env/handlers.c:651
        exc_handler(mcause, sp);
 80020fc:	9782                	jalr	a5
C:/Users/stapi/OneDrive/Desktop/GD32VW553/GD32VW55X_Wifi_BLE_SDK/GD32VW55x_RELEASE_V1.0.2/MSDK/plf/riscv/env/handlers.c:654
}
 80020fe:	4501                	li	a0,0
 8002100:	6450006f          	j	8002f44 <__riscv_restore_0>
 8002104:	4501                	li	a0,0
 8002106:	8082                	ret
C:/Users/stapi/OneDrive/Desktop/GD32VW553/GD32VW55X_Wifi_BLE_SDK/GD32VW55x_RELEASE_V1.0.2/MSDK/plf/riscv/env/handlers.c:646
        exc_handler = (EXC_HANDLER)SystemExceptionHandlers[MAX_SYSTEM_EXCEPTION_NUM];
 8002108:	a241a783          	lw	a5,-1500(gp) # 20000584 <SystemExceptionHandlers+0x30>
C:/Users/stapi/OneDrive/Desktop/GD32VW553/GD32VW55X_Wifi_BLE_SDK/GD32VW55x_RELEASE_V1.0.2/MSDK/plf/riscv/env/handlers.c:650
    if (exc_handler != NULL) {
 800210c:	fbf1                	bnez	a5,80020e0 <core_exception_handler+0x1a>
 800210e:	bfdd                	j	8002104 <core_exception_handler+0x3e>

08002110 <Exception_DumpFrame>:
Exception_DumpFrame():
C:/Users/stapi/OneDrive/Desktop/GD32VW553/GD32VW55X_Wifi_BLE_SDK/GD32VW55x_RELEASE_V1.0.2/MSDK/plf/riscv/env/handlers.c:663
 * \brief      Dump Exception Frame
 * \details
 * This function provided feature to dump exception frame stored in stack.
 */
void Exception_DumpFrame(unsigned long sp)
{
 8002110:	611002ef          	jal	t0,8002f20 <__riscv_save_0>
 8002114:	832a                	mv	t1,a0
C:/Users/stapi/OneDrive/Desktop/GD32VW553/GD32VW55X_Wifi_BLE_SDK/GD32VW55x_RELEASE_V1.0.2/MSDK/plf/riscv/env/handlers.c:668
    EXC_Frame_Type *exc_frame = (EXC_Frame_Type *)sp;
#ifndef __riscv_32e
    /* TODO: Uncomment this if you have implement printf function */
#ifdef EXEC_USING_STD_PRINTF
    printf("ra: 0x%x, tp: 0x%x, t0: 0x%x, t1: 0x%x, t2: 0x%x, t3: 0x%x, t4: 0x%x, t5: 0x%x, t6: 0x%x\n" \
 8002116:	08852503          	lw	a0,136(a0) # 10088 <__stack_size+0xf088>
C:/Users/stapi/OneDrive/Desktop/GD32VW553/GD32VW55X_Wifi_BLE_SDK/GD32VW55x_RELEASE_V1.0.2/MSDK/plf/riscv/env/handlers.c:663
{
 800211a:	7139                	addi	sp,sp,-64
C:/Users/stapi/OneDrive/Desktop/GD32VW553/GD32VW55X_Wifi_BLE_SDK/GD32VW55x_RELEASE_V1.0.2/MSDK/plf/riscv/env/handlers.c:668
    printf("ra: 0x%x, tp: 0x%x, t0: 0x%x, t1: 0x%x, t2: 0x%x, t3: 0x%x, t4: 0x%x, t5: 0x%x, t6: 0x%x\n" \
 800211c:	09832883          	lw	a7,152(t1) # ffffb098 <_sp+0xdfff6798>
 8002120:	09432803          	lw	a6,148(t1)
 8002124:	06432783          	lw	a5,100(t1)
 8002128:	06032703          	lw	a4,96(t1)
 800212c:	05c32683          	lw	a3,92(t1)
 8002130:	05832603          	lw	a2,88(t1)
 8002134:	05432583          	lw	a1,84(t1)
 8002138:	d82a                	sw	a0,48(sp)
 800213a:	08432503          	lw	a0,132(t1)
 800213e:	d62a                	sw	a0,44(sp)
 8002140:	08032503          	lw	a0,128(t1)
 8002144:	d42a                	sw	a0,40(sp)
 8002146:	09032503          	lw	a0,144(t1)
 800214a:	d22a                	sw	a0,36(sp)
 800214c:	08c32503          	lw	a0,140(t1)
 8002150:	d02a                	sw	a0,32(sp)
 8002152:	07c32e03          	lw	t3,124(t1)
 8002156:	08001537          	lui	a0,0x8001
 800215a:	32850513          	addi	a0,a0,808 # 8001328 <_sicode+0x5c>
 800215e:	ce72                	sw	t3,28(sp)
 8002160:	07832e03          	lw	t3,120(t1)
 8002164:	cc72                	sw	t3,24(sp)
 8002166:	07432e03          	lw	t3,116(t1)
 800216a:	ca72                	sw	t3,20(sp)
 800216c:	07032e03          	lw	t3,112(t1)
 8002170:	c872                	sw	t3,16(sp)
 8002172:	06c32e03          	lw	t3,108(t1)
 8002176:	c672                	sw	t3,12(sp)
 8002178:	06832e03          	lw	t3,104(t1)
 800217c:	c472                	sw	t3,8(sp)
 800217e:	0a032e03          	lw	t3,160(t1)
 8002182:	c272                	sw	t3,4(sp)
 8002184:	09c32303          	lw	t1,156(t1)
 8002188:	c01a                	sw	t1,0(sp)
 800218a:	70b000ef          	jal	ra,8003094 <iprintf>
C:/Users/stapi/OneDrive/Desktop/GD32VW553/GD32VW55X_Wifi_BLE_SDK/GD32VW55x_RELEASE_V1.0.2/MSDK/plf/riscv/env/handlers.c:704
           "a0: 0x%x, a1: 0x%x, a2: 0x%x, a3: 0x%x, a4: 0x%x, a5: 0x%x\n" \
           "mcause: 0x%x, mepc: 0x%x, msubm: 0x%x\n", exc_frame->ra, exc_frame->tp, exc_frame->t0, \
           exc_frame->t1, exc_frame->t2, exc_frame->a0, exc_frame->a1, exc_frame->a2, exc_frame->a3, \
           exc_frame->a4, exc_frame->a5, exc_frame->mcause, exc_frame->mepc, exc_frame->msubm);
#endif /* __riscv_32e */
}
 800218e:	6121                	addi	sp,sp,64
 8002190:	5b50006f          	j	8002f44 <__riscv_restore_0>

08002194 <nmi_handler>:
nmi_handler():
C:/Users/stapi/OneDrive/Desktop/GD32VW553/GD32VW55X_Wifi_BLE_SDK/GD32VW55x_RELEASE_V1.0.2/MSDK/plf/riscv/env/handlers.c:556
{
 8002194:	58d002ef          	jal	t0,8002f20 <__riscv_save_0>
 8002198:	84aa                	mv	s1,a0
C:/Users/stapi/OneDrive/Desktop/GD32VW553/GD32VW55X_Wifi_BLE_SDK/GD32VW55x_RELEASE_V1.0.2/MSDK/plf/riscv/env/handlers.c:559
    printf("NMI \r\n");
 800219a:	08001537          	lui	a0,0x8001
 800219e:	3f850513          	addi	a0,a0,1016 # 80013f8 <_sicode+0x12c>
C:/Users/stapi/OneDrive/Desktop/GD32VW553/GD32VW55X_Wifi_BLE_SDK/GD32VW55x_RELEASE_V1.0.2/MSDK/plf/riscv/env/handlers.c:556
{
 80021a2:	842e                	mv	s0,a1
C:/Users/stapi/OneDrive/Desktop/GD32VW553/GD32VW55X_Wifi_BLE_SDK/GD32VW55x_RELEASE_V1.0.2/MSDK/plf/riscv/env/handlers.c:559
    printf("NMI \r\n");
 80021a4:	008010ef          	jal	ra,80031ac <puts>
C:/Users/stapi/OneDrive/Desktop/GD32VW553/GD32VW55X_Wifi_BLE_SDK/GD32VW55x_RELEASE_V1.0.2/MSDK/plf/riscv/env/handlers.c:560
    printf("MCAUSE : 0x%lx\r\n", mcause);
 80021a8:	08001537          	lui	a0,0x8001
 80021ac:	85a6                	mv	a1,s1
 80021ae:	40050513          	addi	a0,a0,1024 # 8001400 <_sicode+0x134>
 80021b2:	6e3000ef          	jal	ra,8003094 <iprintf>
C:/Users/stapi/OneDrive/Desktop/GD32VW553/GD32VW55X_Wifi_BLE_SDK/GD32VW55x_RELEASE_V1.0.2/MSDK/plf/riscv/env/handlers.c:561
    printf("MDCAUSE: 0x%lx\r\n", __RV_CSR_READ(CSR_MDCAUSE));
 80021b6:	7c9025f3          	csrr	a1,mdcause
 80021ba:	08001537          	lui	a0,0x8001
 80021be:	41450513          	addi	a0,a0,1044 # 8001414 <_sicode+0x148>
 80021c2:	6d3000ef          	jal	ra,8003094 <iprintf>
C:/Users/stapi/OneDrive/Desktop/GD32VW553/GD32VW55X_Wifi_BLE_SDK/GD32VW55x_RELEASE_V1.0.2/MSDK/plf/riscv/env/handlers.c:562
    printf("MEPC   : 0x%lx\r\n", __RV_CSR_READ(CSR_MEPC));
 80021c6:	341025f3          	csrr	a1,mepc
 80021ca:	08001537          	lui	a0,0x8001
 80021ce:	42850513          	addi	a0,a0,1064 # 8001428 <_sicode+0x15c>
 80021d2:	6c3000ef          	jal	ra,8003094 <iprintf>
C:/Users/stapi/OneDrive/Desktop/GD32VW553/GD32VW55X_Wifi_BLE_SDK/GD32VW55x_RELEASE_V1.0.2/MSDK/plf/riscv/env/handlers.c:563
    printf("MTVAL  : 0x%lx\r\n", __RV_CSR_READ(CSR_MTVAL));
 80021d6:	343025f3          	csrr	a1,mtval
 80021da:	08001537          	lui	a0,0x8001
 80021de:	43c50513          	addi	a0,a0,1084 # 800143c <_sicode+0x170>
 80021e2:	6b3000ef          	jal	ra,8003094 <iprintf>
C:/Users/stapi/OneDrive/Desktop/GD32VW553/GD32VW55X_Wifi_BLE_SDK/GD32VW55x_RELEASE_V1.0.2/MSDK/plf/riscv/env/handlers.c:572
    Exception_DumpFrame(sp);
 80021e6:	8522                	mv	a0,s0
 80021e8:	3725                	jal	8002110 <Exception_DumpFrame>
C:/Users/stapi/OneDrive/Desktop/GD32VW553/GD32VW55X_Wifi_BLE_SDK/GD32VW55x_RELEASE_V1.0.2/MSDK/plf/riscv/env/handlers.c:574 (discriminator 1)
    while (1);
 80021ea:	a001                	j	80021ea <nmi_handler+0x56>

080021ec <system_default_exception_handler>:
system_default_exception_handler():
C:/Users/stapi/OneDrive/Desktop/GD32VW553/GD32VW55X_Wifi_BLE_SDK/GD32VW55x_RELEASE_V1.0.2/MSDK/plf/riscv/env/handlers.c:452
{
 80021ec:	535002ef          	jal	t0,8002f20 <__riscv_save_0>
 80021f0:	87aa                	mv	a5,a0
C:/Users/stapi/OneDrive/Desktop/GD32VW553/GD32VW55X_Wifi_BLE_SDK/GD32VW55x_RELEASE_V1.0.2/MSDK/plf/riscv/env/handlers.c:455
    printf("MCAUSE : 0x%lx\r\n", mcause);
 80021f2:	08001537          	lui	a0,0x8001
C:/Users/stapi/OneDrive/Desktop/GD32VW553/GD32VW55X_Wifi_BLE_SDK/GD32VW55x_RELEASE_V1.0.2/MSDK/plf/riscv/env/handlers.c:452
{
 80021f6:	842e                	mv	s0,a1
C:/Users/stapi/OneDrive/Desktop/GD32VW553/GD32VW55X_Wifi_BLE_SDK/GD32VW55x_RELEASE_V1.0.2/MSDK/plf/riscv/env/handlers.c:455
    printf("MCAUSE : 0x%lx\r\n", mcause);
 80021f8:	40050513          	addi	a0,a0,1024 # 8001400 <_sicode+0x134>
 80021fc:	85be                	mv	a1,a5
 80021fe:	697000ef          	jal	ra,8003094 <iprintf>
C:/Users/stapi/OneDrive/Desktop/GD32VW553/GD32VW55X_Wifi_BLE_SDK/GD32VW55x_RELEASE_V1.0.2/MSDK/plf/riscv/env/handlers.c:456
    printf("MDCAUSE: 0x%lx\r\n", __RV_CSR_READ(CSR_MDCAUSE));
 8002202:	7c9025f3          	csrr	a1,mdcause
 8002206:	08001537          	lui	a0,0x8001
 800220a:	41450513          	addi	a0,a0,1044 # 8001414 <_sicode+0x148>
 800220e:	687000ef          	jal	ra,8003094 <iprintf>
C:/Users/stapi/OneDrive/Desktop/GD32VW553/GD32VW55X_Wifi_BLE_SDK/GD32VW55x_RELEASE_V1.0.2/MSDK/plf/riscv/env/handlers.c:457
    printf("MEPC   : 0x%lx\r\n", __RV_CSR_READ(CSR_MEPC));
 8002212:	341025f3          	csrr	a1,mepc
 8002216:	08001537          	lui	a0,0x8001
 800221a:	42850513          	addi	a0,a0,1064 # 8001428 <_sicode+0x15c>
 800221e:	677000ef          	jal	ra,8003094 <iprintf>
C:/Users/stapi/OneDrive/Desktop/GD32VW553/GD32VW55X_Wifi_BLE_SDK/GD32VW55x_RELEASE_V1.0.2/MSDK/plf/riscv/env/handlers.c:458
    printf("MTVAL  : 0x%lx\r\n", __RV_CSR_READ(CSR_MTVAL));
 8002222:	343025f3          	csrr	a1,mtval
 8002226:	08001537          	lui	a0,0x8001
 800222a:	43c50513          	addi	a0,a0,1084 # 800143c <_sicode+0x170>
 800222e:	667000ef          	jal	ra,8003094 <iprintf>
C:/Users/stapi/OneDrive/Desktop/GD32VW553/GD32VW55X_Wifi_BLE_SDK/GD32VW55x_RELEASE_V1.0.2/MSDK/plf/riscv/env/handlers.c:471
    Exception_DumpFrame(sp);
 8002232:	8522                	mv	a0,s0
 8002234:	3df1                	jal	8002110 <Exception_DumpFrame>
C:/Users/stapi/OneDrive/Desktop/GD32VW553/GD32VW55X_Wifi_BLE_SDK/GD32VW55x_RELEASE_V1.0.2/MSDK/plf/riscv/env/handlers.c:546 (discriminator 1)
    while (1);
 8002236:	a001                	j	8002236 <system_default_exception_handler+0x4a>

08002238 <_premain_init>:
_premain_init():
C:/Users/stapi/OneDrive/Desktop/GD32VW553/GD32VW55X_Wifi_BLE_SDK/GD32VW55x_RELEASE_V1.0.2/MSDK/plf/riscv/env/env_init.c:50
 * For RISC-V gnu toolchain, _init function might not be called
 * by __libc_init_array function, so we defined a new function
 * to do initialization
 */
void _premain_init(void)
{
 8002238:	4e9002ef          	jal	t0,8002f20 <__riscv_save_0>
EnableICache():
C:\Users\stapi\OneDrive\Desktop\GD32VW553\GD32VW55X_Wifi_BLE_SDK\GD32VW55x_RELEASE_V1.0.2\MBL\project\eclipse\Debug/../../../../MSDK/plf/riscv/NMSIS/Core/Include/core_feature_cache.h:173
 * \sa
 * - \ref DisableICache
*/
__STATIC_FORCEINLINE void EnableICache(void)
{
    __RV_CSR_SET(CSR_MCACHE_CTL, CSR_MCACHE_CTL_IE);
 800223c:	4785                	li	a5,1
 800223e:	7ca7a073          	csrs	mcache_ctl,a5
_premain_init():
C:/Users/stapi/OneDrive/Desktop/GD32VW553/GD32VW55X_Wifi_BLE_SDK/GD32VW55x_RELEASE_V1.0.2/MSDK/plf/riscv/env/env_init.c:56
    /* TODO: Add your own initialization code here, called before main */
    /* __ICACHE_PRESENT and __DCACHE_PRESENT are defined in demosoc.h */
    EnableICache();

    /* Initialize exception default handlers */
    Exception_Init();
 8002242:	35a1                	jal	800208a <Exception_Init>
C:/Users/stapi/OneDrive/Desktop/GD32VW553/GD32VW55X_Wifi_BLE_SDK/GD32VW55x_RELEASE_V1.0.2/MSDK/plf/riscv/env/env_init.c:58
    /* Initialize NMI handlers */
    Exception_Register_EXC(NMI_EXCn, (unsigned long)nmi_handler);
 8002244:	080025b7          	lui	a1,0x8002
 8002248:	6505                	lui	a0,0x1
 800224a:	19458593          	addi	a1,a1,404 # 8002194 <nmi_handler>
 800224e:	157d                	addi	a0,a0,-1
 8002250:	3d91                	jal	80020a4 <Exception_Register_EXC>
C:/Users/stapi/OneDrive/Desktop/GD32VW553/GD32VW55X_Wifi_BLE_SDK/GD32VW55x_RELEASE_V1.0.2/MSDK/plf/riscv/env/env_init.c:60
    /* ECLIC initialization, mainly MTH and NLBIT */
    eclic_level_threshold_set(0);
 8002252:	4501                	li	a0,0
 8002254:	3a49                	jal	8001be6 <eclic_level_threshold_set>
C:/Users/stapi/OneDrive/Desktop/GD32VW553/GD32VW55X_Wifi_BLE_SDK/GD32VW55x_RELEASE_V1.0.2/MSDK/plf/riscv/env/env_init.c:61
    eclic_priority_group_set(ECLIC_PRIGROUP_LEVEL2_PRIO2);
 8002256:	4509                	li	a0,2
 8002258:	3a61                	jal	8001bf0 <eclic_priority_group_set>
C:/Users/stapi/OneDrive/Desktop/GD32VW553/GD32VW55X_Wifi_BLE_SDK/GD32VW55x_RELEASE_V1.0.2/MSDK/plf/riscv/env/env_init.c:62
    eclic_global_interrupt_enable();
 800225a:	3251                	jal	8001bde <eclic_global_interrupt_enable>
__disable_all_counter():
C:\Users\stapi\OneDrive\Desktop\GD32VW553\GD32VW55X_Wifi_BLE_SDK\GD32VW55x_RELEASE_V1.0.2\MBL\project\eclipse\Debug/../../../../MSDK/plf/riscv/NMSIS/Core/Include/core_feature_base.h:858
 * \details
 * Set the IR and CY bit of MCOUNTINHIBIT to 1 to disable MINSTRET & MCYCLE Counter
 */
__STATIC_FORCEINLINE void __disable_all_counter(void)
{
    __RV_CSR_SET(CSR_MCOUNTINHIBIT, MCOUNTINHIBIT_IR|MCOUNTINHIBIT_CY);
 800225c:	4795                	li	a5,5
 800225e:	3207a073          	csrs	mcountinhibit,a5
_premain_init():
C:/Users/stapi/OneDrive/Desktop/GD32VW553/GD32VW55X_Wifi_BLE_SDK/GD32VW55x_RELEASE_V1.0.2/MSDK/plf/riscv/env/env_init.c:66

    /* Before enter into main, disable mcycle and minstret counter by default to save power */
    __disable_all_counter();
}
 8002262:	4e30006f          	j	8002f44 <__riscv_restore_0>

08002266 <_postmain_fini>:
_postmain_fini():
C:/Users/stapi/OneDrive/Desktop/GD32VW553/GD32VW55X_Wifi_BLE_SDK/GD32VW55x_RELEASE_V1.0.2/MSDK/plf/riscv/env/env_init.c:80
 * to do initialization
 */
void _postmain_fini(int status)
{
    /* TODO: Add your own finishing code here, called after main */
}
 8002266:	8082                	ret

08002268 <_init>:
_init():
C:/Users/stapi/OneDrive/Desktop/GD32VW553/GD32VW55X_Wifi_BLE_SDK/GD32VW55x_RELEASE_V1.0.2/MSDK/plf/riscv/env/env_init.c:94
 * Please use \ref _premain_init function now
 */
void _init(void)
{
    /* Don't put any code here, please use _premain_init now */
}
 8002268:	8082                	ret

0800226a <_fini>:
_fini():
 800226a:	8082                	ret

0800226c <rom_symbol_init>:
rom_symbol_init():
C:/Users/stapi/OneDrive/Desktop/GD32VW553/GD32VW55X_Wifi_BLE_SDK/GD32VW55x_RELEASE_V1.0.2/MSDK/plf/src/init_rom_symbol.c:48
{
    return REG32(RCU + 0x00000138U);
}

void rom_symbol_init(void)
{
 800226c:	485002ef          	jal	t0,8002ef0 <__riscv_save_12>
ana_version_get():
C:/Users/stapi/OneDrive/Desktop/GD32VW553/GD32VW55X_Wifi_BLE_SDK/GD32VW55x_RELEASE_V1.0.2/MSDK/plf/src/init_rom_symbol.c:44
    return REG32(RCU + 0x00000138U);
 8002270:	400247b7          	lui	a5,0x40024
 8002274:	9387a783          	lw	a5,-1736(a5) # 40023938 <_sp+0x2001f038>
rom_symbol_init():
C:/Users/stapi/OneDrive/Desktop/GD32VW553/GD32VW55X_Wifi_BLE_SDK/GD32VW55x_RELEASE_V1.0.2/MSDK/plf/src/init_rom_symbol.c:48
{
 8002278:	1141                	addi	sp,sp,-16
C:/Users/stapi/OneDrive/Desktop/GD32VW553/GD32VW55X_Wifi_BLE_SDK/GD32VW55x_RELEASE_V1.0.2/MSDK/plf/src/init_rom_symbol.c:52
#ifdef CONFIG_ASIC_CUT_AUTO
    int acut = (ana_version_get() == 0) ? 1 : 0;

    if (acut) {
 800227a:	0ff7f793          	zext.b	a5,a5
 800227e:	44079163          	bnez	a5,80026c0 <rom_symbol_init+0x454>
C:/Users/stapi/OneDrive/Desktop/GD32VW553/GD32VW55X_Wifi_BLE_SDK/GD32VW55x_RELEASE_V1.0.2/MSDK/plf/src/init_rom_symbol.c:53
        mbedtls_hwpka_flag_set(0
 8002282:	07300513          	li	a0,115
 8002286:	03f5d097          	auipc	ra,0x3f5d
 800228a:	98c080e7          	jalr	-1652(ra) # bf5ec12 <mbedtls_hwpka_flag_set>
C:/Users/stapi/OneDrive/Desktop/GD32VW553/GD32VW55X_Wifi_BLE_SDK/GD32VW55x_RELEASE_V1.0.2/MSDK/plf/src/init_rom_symbol.c:80

    if (acut) {
#ifndef EXEC_USING_STD_PRINTF
        dbg_print(NOTICE, "Chip: GD32VW55x ACut\r\n");
#endif
        ecp_supported_curves = (mbedtls_ecp_curve_info *)0x0bf73eb8;
 800228e:	0bf74537          	lui	a0,0xbf74
C:/Users/stapi/OneDrive/Desktop/GD32VW553/GD32VW55X_Wifi_BLE_SDK/GD32VW55x_RELEASE_V1.0.2/MSDK/plf/src/init_rom_symbol.c:81
        mbedtls_ecdsa_free_fn = (void *)0x0bf715dc;
 8002292:	0bf71337          	lui	t1,0xbf71
C:/Users/stapi/OneDrive/Desktop/GD32VW553/GD32VW55X_Wifi_BLE_SDK/GD32VW55x_RELEASE_V1.0.2/MSDK/plf/src/init_rom_symbol.c:80
        ecp_supported_curves = (mbedtls_ecp_curve_info *)0x0bf73eb8;
 8002296:	eb850293          	addi	t0,a0,-328 # bf73eb8 <mbedtls_mpi_mul_mpi_sw+0x56d8>
 800229a:	20000e37          	lui	t3,0x20000
C:/Users/stapi/OneDrive/Desktop/GD32VW553/GD32VW55X_Wifi_BLE_SDK/GD32VW55x_RELEASE_V1.0.2/MSDK/plf/src/init_rom_symbol.c:93
        mbedtls_ecdsa_sign_det_fn = (void *)0x0bf7108c;
        mbedtls_ecdsa_verify_fn = (void *)0x0bf71090;
        mbedtls_ecdsa_write_signature_fn = (void *)0x0bf71470;
        mbedtls_ecdsa_write_signature_det_fn = (void *)0x0bf71480;
        mbedtls_ecdsa_write_signature_restartable_fn = (void *)0x0bf713aa;
        mbedtls_ecp_check_privkey_fn = (void *)0x0bf72c3e;
 800229e:	0bf73637          	lui	a2,0xbf73
C:/Users/stapi/OneDrive/Desktop/GD32VW553/GD32VW55X_Wifi_BLE_SDK/GD32VW55x_RELEASE_V1.0.2/MSDK/plf/src/init_rom_symbol.c:81
        mbedtls_ecdsa_free_fn = (void *)0x0bf715dc;
 80022a2:	5dc30f93          	addi	t6,t1,1500 # bf715dc <mbedtls_mpi_mul_mpi_sw+0x2dfc>
C:/Users/stapi/OneDrive/Desktop/GD32VW553/GD32VW55X_Wifi_BLE_SDK/GD32VW55x_RELEASE_V1.0.2/MSDK/plf/src/init_rom_symbol.c:80
        ecp_supported_curves = (mbedtls_ecp_curve_info *)0x0bf73eb8;
 80022a6:	365e2423          	sw	t0,872(t3) # 20000368 <ecp_supported_curves>
C:/Users/stapi/OneDrive/Desktop/GD32VW553/GD32VW55X_Wifi_BLE_SDK/GD32VW55x_RELEASE_V1.0.2/MSDK/plf/src/init_rom_symbol.c:81
        mbedtls_ecdsa_free_fn = (void *)0x0bf715dc;
 80022aa:	20000e37          	lui	t3,0x20000
C:/Users/stapi/OneDrive/Desktop/GD32VW553/GD32VW55X_Wifi_BLE_SDK/GD32VW55x_RELEASE_V1.0.2/MSDK/plf/src/init_rom_symbol.c:96
        mbedtls_ecp_check_pub_priv_fn = (void *)0x0bf73c8e;
        mbedtls_ecp_check_pubkey_fn = (void *)0x0bf72f6a;
        mbedtls_ecp_copy_fn = (void *)0x0bf72172;
 80022ae:	0bf725b7          	lui	a1,0xbf72
C:/Users/stapi/OneDrive/Desktop/GD32VW553/GD32VW55X_Wifi_BLE_SDK/GD32VW55x_RELEASE_V1.0.2/MSDK/plf/src/init_rom_symbol.c:93
        mbedtls_ecp_check_privkey_fn = (void *)0x0bf72c3e;
 80022b2:	c3e60f13          	addi	t5,a2,-962 # bf72c3e <mbedtls_mpi_mul_mpi_sw+0x445e>
C:/Users/stapi/OneDrive/Desktop/GD32VW553/GD32VW55X_Wifi_BLE_SDK/GD32VW55x_RELEASE_V1.0.2/MSDK/plf/src/init_rom_symbol.c:81
        mbedtls_ecdsa_free_fn = (void *)0x0bf715dc;
 80022b6:	37fe2623          	sw	t6,876(t3) # 2000036c <mbedtls_ecdsa_free_fn>
C:/Users/stapi/OneDrive/Desktop/GD32VW553/GD32VW55X_Wifi_BLE_SDK/GD32VW55x_RELEASE_V1.0.2/MSDK/plf/src/init_rom_symbol.c:93
        mbedtls_ecp_check_privkey_fn = (void *)0x0bf72c3e;
 80022ba:	20000e37          	lui	t3,0x20000
C:/Users/stapi/OneDrive/Desktop/GD32VW553/GD32VW55X_Wifi_BLE_SDK/GD32VW55x_RELEASE_V1.0.2/MSDK/plf/src/init_rom_symbol.c:96
        mbedtls_ecp_copy_fn = (void *)0x0bf72172;
 80022be:	17258e93          	addi	t4,a1,370 # bf72172 <mbedtls_mpi_mul_mpi_sw+0x3992>
C:/Users/stapi/OneDrive/Desktop/GD32VW553/GD32VW55X_Wifi_BLE_SDK/GD32VW55x_RELEASE_V1.0.2/MSDK/plf/src/init_rom_symbol.c:93
        mbedtls_ecp_check_privkey_fn = (void *)0x0bf72c3e;
 80022c2:	39ee2e23          	sw	t5,924(t3) # 2000039c <mbedtls_ecp_check_privkey_fn>
C:/Users/stapi/OneDrive/Desktop/GD32VW553/GD32VW55X_Wifi_BLE_SDK/GD32VW55x_RELEASE_V1.0.2/MSDK/plf/src/init_rom_symbol.c:96
        mbedtls_ecp_copy_fn = (void *)0x0bf72172;
 80022c6:	85d1a423          	sw	t4,-1976(gp) # 200003a8 <mbedtls_ecp_copy_fn>
C:/Users/stapi/OneDrive/Desktop/GD32VW553/GD32VW55X_Wifi_BLE_SDK/GD32VW55x_RELEASE_V1.0.2/MSDK/plf/src/init_rom_symbol.c:82
        mbedtls_ecdsa_from_keypair_fn = (void *)0x0bf7158a;
 80022ca:	58a30e93          	addi	t4,t1,1418
 80022ce:	20000e37          	lui	t3,0x20000
 80022d2:	37de2823          	sw	t4,880(t3) # 20000370 <mbedtls_ecdsa_from_keypair_fn>
C:/Users/stapi/OneDrive/Desktop/GD32VW553/GD32VW55X_Wifi_BLE_SDK/GD32VW55x_RELEASE_V1.0.2/MSDK/plf/src/init_rom_symbol.c:83
        mbedtls_ecdsa_genkey_fn = (void *)0x0bf7154c;
 80022d6:	54c30e93          	addi	t4,t1,1356
 80022da:	20000e37          	lui	t3,0x20000
 80022de:	37de2a23          	sw	t4,884(t3) # 20000374 <mbedtls_ecdsa_genkey_fn>
C:/Users/stapi/OneDrive/Desktop/GD32VW553/GD32VW55X_Wifi_BLE_SDK/GD32VW55x_RELEASE_V1.0.2/MSDK/plf/src/init_rom_symbol.c:84
        mbedtls_ecdsa_init_fn = (void *)0x0bf715d8;
 80022e2:	5d830e93          	addi	t4,t1,1496
 80022e6:	20000e37          	lui	t3,0x20000
 80022ea:	37de2c23          	sw	t4,888(t3) # 20000378 <mbedtls_ecdsa_init_fn>
C:/Users/stapi/OneDrive/Desktop/GD32VW553/GD32VW55X_Wifi_BLE_SDK/GD32VW55x_RELEASE_V1.0.2/MSDK/plf/src/init_rom_symbol.c:85
        mbedtls_ecdsa_read_signature_fn = (void *)0x0bf71546;
 80022ee:	54630e93          	addi	t4,t1,1350
 80022f2:	20000e37          	lui	t3,0x20000
 80022f6:	37de2e23          	sw	t4,892(t3) # 2000037c <mbedtls_ecdsa_read_signature_fn>
C:/Users/stapi/OneDrive/Desktop/GD32VW553/GD32VW55X_Wifi_BLE_SDK/GD32VW55x_RELEASE_V1.0.2/MSDK/plf/src/init_rom_symbol.c:86
        mbedtls_ecdsa_read_signature_restartable_fn = (void *)0x0bf714a0;
 80022fa:	4a030e93          	addi	t4,t1,1184
 80022fe:	20000e37          	lui	t3,0x20000
 8002302:	39de2023          	sw	t4,896(t3) # 20000380 <mbedtls_ecdsa_read_signature_restartable_fn>
C:/Users/stapi/OneDrive/Desktop/GD32VW553/GD32VW55X_Wifi_BLE_SDK/GD32VW55x_RELEASE_V1.0.2/MSDK/plf/src/init_rom_symbol.c:87
        mbedtls_ecdsa_sign_fn = (void *)0x0bf70bca;
 8002306:	bca30e93          	addi	t4,t1,-1078
 800230a:	20000e37          	lui	t3,0x20000
 800230e:	39de2423          	sw	t4,904(t3) # 20000388 <mbedtls_ecdsa_sign_fn>
C:/Users/stapi/OneDrive/Desktop/GD32VW553/GD32VW55X_Wifi_BLE_SDK/GD32VW55x_RELEASE_V1.0.2/MSDK/plf/src/init_rom_symbol.c:88
        mbedtls_ecdsa_sign_det_fn = (void *)0x0bf7108c;
 8002312:	08c30e93          	addi	t4,t1,140
 8002316:	20000e37          	lui	t3,0x20000
 800231a:	39de2223          	sw	t4,900(t3) # 20000384 <mbedtls_ecdsa_sign_det_fn>
C:/Users/stapi/OneDrive/Desktop/GD32VW553/GD32VW55X_Wifi_BLE_SDK/GD32VW55x_RELEASE_V1.0.2/MSDK/plf/src/init_rom_symbol.c:89
        mbedtls_ecdsa_verify_fn = (void *)0x0bf71090;
 800231e:	09030e93          	addi	t4,t1,144
 8002322:	20000e37          	lui	t3,0x20000
 8002326:	39de2623          	sw	t4,908(t3) # 2000038c <mbedtls_ecdsa_verify_fn>
C:/Users/stapi/OneDrive/Desktop/GD32VW553/GD32VW55X_Wifi_BLE_SDK/GD32VW55x_RELEASE_V1.0.2/MSDK/plf/src/init_rom_symbol.c:90
        mbedtls_ecdsa_write_signature_fn = (void *)0x0bf71470;
 800232a:	47030e93          	addi	t4,t1,1136
 800232e:	20000e37          	lui	t3,0x20000
 8002332:	39de2a23          	sw	t4,916(t3) # 20000394 <mbedtls_ecdsa_write_signature_fn>
C:/Users/stapi/OneDrive/Desktop/GD32VW553/GD32VW55X_Wifi_BLE_SDK/GD32VW55x_RELEASE_V1.0.2/MSDK/plf/src/init_rom_symbol.c:91
        mbedtls_ecdsa_write_signature_det_fn = (void *)0x0bf71480;
 8002336:	48030e93          	addi	t4,t1,1152
 800233a:	20000e37          	lui	t3,0x20000
 800233e:	39de2823          	sw	t4,912(t3) # 20000390 <mbedtls_ecdsa_write_signature_det_fn>
C:/Users/stapi/OneDrive/Desktop/GD32VW553/GD32VW55X_Wifi_BLE_SDK/GD32VW55x_RELEASE_V1.0.2/MSDK/plf/src/init_rom_symbol.c:92
        mbedtls_ecdsa_write_signature_restartable_fn = (void *)0x0bf713aa;
 8002342:	3aa30313          	addi	t1,t1,938
 8002346:	20000e37          	lui	t3,0x20000
 800234a:	386e2c23          	sw	t1,920(t3) # 20000398 <mbedtls_ecdsa_write_signature_restartable_fn>
C:/Users/stapi/OneDrive/Desktop/GD32VW553/GD32VW55X_Wifi_BLE_SDK/GD32VW55x_RELEASE_V1.0.2/MSDK/plf/src/init_rom_symbol.c:97
        mbedtls_ecp_curve_info_from_grp_id_fn = (void *)0x0bf71f7e;
 800234e:	f7e58e13          	addi	t3,a1,-130
 8002352:	85c1a623          	sw	t3,-1972(gp) # 200003ac <mbedtls_ecp_curve_info_from_grp_id_fn>
C:/Users/stapi/OneDrive/Desktop/GD32VW553/GD32VW55X_Wifi_BLE_SDK/GD32VW55x_RELEASE_V1.0.2/MSDK/plf/src/init_rom_symbol.c:98
        mbedtls_ecp_curve_info_from_name_fn = (void *)0x0bf71fda;
 8002356:	fda58e13          	addi	t3,a1,-38
 800235a:	85c1a823          	sw	t3,-1968(gp) # 200003b0 <mbedtls_ecp_curve_info_from_name_fn>
C:/Users/stapi/OneDrive/Desktop/GD32VW553/GD32VW55X_Wifi_BLE_SDK/GD32VW55x_RELEASE_V1.0.2/MSDK/plf/src/init_rom_symbol.c:99
        mbedtls_ecp_curve_info_from_tls_id_fn = (void *)0x0bf71faa;
 800235e:	faa58e13          	addi	t3,a1,-86
 8002362:	85c1aa23          	sw	t3,-1964(gp) # 200003b4 <mbedtls_ecp_curve_info_from_tls_id_fn>
C:/Users/stapi/OneDrive/Desktop/GD32VW553/GD32VW55X_Wifi_BLE_SDK/GD32VW55x_RELEASE_V1.0.2/MSDK/plf/src/init_rom_symbol.c:100
        mbedtls_ecp_curve_list_fn = (void *)0x0bf71f0a;
 8002366:	f0a58e13          	addi	t3,a1,-246
 800236a:	85c1ac23          	sw	t3,-1960(gp) # 200003b8 <mbedtls_ecp_curve_list_fn>
C:/Users/stapi/OneDrive/Desktop/GD32VW553/GD32VW55X_Wifi_BLE_SDK/GD32VW55x_RELEASE_V1.0.2/MSDK/plf/src/init_rom_symbol.c:105
        mbedtls_ecp_gen_key_fn = (void *)0x0bf73c48;
        mbedtls_ecp_gen_keypair_fn = (void *)0x0bf73c38;
        mbedtls_ecp_gen_keypair_base_fn = (void *)0x0bf73bdc;
        mbedtls_ecp_gen_privkey_fn = (void *)0x0bf72cbc;
        mbedtls_ecp_group_copy_fn = (void *)0x0bf721b0;
 800236e:	1b058e13          	addi	t3,a1,432
 8002372:	87c1a623          	sw	t3,-1940(gp) # 200003cc <mbedtls_ecp_group_copy_fn>
C:/Users/stapi/OneDrive/Desktop/GD32VW553/GD32VW55X_Wifi_BLE_SDK/GD32VW55x_RELEASE_V1.0.2/MSDK/plf/src/init_rom_symbol.c:106
        mbedtls_ecp_group_free_fn = (void *)0x0bf720cc;
 8002376:	0cc58e13          	addi	t3,a1,204
 800237a:	87c1a823          	sw	t3,-1936(gp) # 200003d0 <mbedtls_ecp_group_free_fn>
C:/Users/stapi/OneDrive/Desktop/GD32VW553/GD32VW55X_Wifi_BLE_SDK/GD32VW55x_RELEASE_V1.0.2/MSDK/plf/src/init_rom_symbol.c:94
        mbedtls_ecp_check_pub_priv_fn = (void *)0x0bf73c8e;
 800237e:	c8e50c13          	addi	s8,a0,-882
C:/Users/stapi/OneDrive/Desktop/GD32VW553/GD32VW55X_Wifi_BLE_SDK/GD32VW55x_RELEASE_V1.0.2/MSDK/plf/src/init_rom_symbol.c:107
        mbedtls_ecp_group_init_fn = (void *)0x0bf72044;
 8002382:	04458e13          	addi	t3,a1,68
 8002386:	87c1aa23          	sw	t3,-1932(gp) # 200003d4 <mbedtls_ecp_group_init_fn>
C:/Users/stapi/OneDrive/Desktop/GD32VW553/GD32VW55X_Wifi_BLE_SDK/GD32VW55x_RELEASE_V1.0.2/MSDK/plf/src/init_rom_symbol.c:94
        mbedtls_ecp_check_pub_priv_fn = (void *)0x0bf73c8e;
 800238a:	8581a023          	sw	s8,-1984(gp) # 200003a0 <mbedtls_ecp_check_pub_priv_fn>
C:/Users/stapi/OneDrive/Desktop/GD32VW553/GD32VW55X_Wifi_BLE_SDK/GD32VW55x_RELEASE_V1.0.2/MSDK/plf/src/init_rom_symbol.c:108
        mbedtls_ecp_grp_id_list_fn = (void *)0x0bf71f32;
 800238e:	f3258e13          	addi	t3,a1,-206
C:/Users/stapi/OneDrive/Desktop/GD32VW553/GD32VW55X_Wifi_BLE_SDK/GD32VW55x_RELEASE_V1.0.2/MSDK/plf/src/init_rom_symbol.c:101
        mbedtls_ecp_gen_key_fn = (void *)0x0bf73c48;
 8002392:	c4850c13          	addi	s8,a0,-952
C:/Users/stapi/OneDrive/Desktop/GD32VW553/GD32VW55X_Wifi_BLE_SDK/GD32VW55x_RELEASE_V1.0.2/MSDK/plf/src/init_rom_symbol.c:95
        mbedtls_ecp_check_pubkey_fn = (void *)0x0bf72f6a;
 8002396:	f6a60d93          	addi	s11,a2,-150
C:/Users/stapi/OneDrive/Desktop/GD32VW553/GD32VW55X_Wifi_BLE_SDK/GD32VW55x_RELEASE_V1.0.2/MSDK/plf/src/init_rom_symbol.c:108
        mbedtls_ecp_grp_id_list_fn = (void *)0x0bf71f32;
 800239a:	87c1ac23          	sw	t3,-1928(gp) # 200003d8 <mbedtls_ecp_grp_id_list_fn>
C:/Users/stapi/OneDrive/Desktop/GD32VW553/GD32VW55X_Wifi_BLE_SDK/GD32VW55x_RELEASE_V1.0.2/MSDK/plf/src/init_rom_symbol.c:101
        mbedtls_ecp_gen_key_fn = (void *)0x0bf73c48;
 800239e:	8581ae23          	sw	s8,-1956(gp) # 200003bc <mbedtls_ecp_gen_key_fn>
C:/Users/stapi/OneDrive/Desktop/GD32VW553/GD32VW55X_Wifi_BLE_SDK/GD32VW55x_RELEASE_V1.0.2/MSDK/plf/src/init_rom_symbol.c:110
        mbedtls_ecp_is_zero_fn = (void *)0x0bf728e4;
        mbedtls_ecp_keypair_free_fn = (void *)0x0bf7214c;
 80023a2:	14c58e13          	addi	t3,a1,332
C:/Users/stapi/OneDrive/Desktop/GD32VW553/GD32VW55X_Wifi_BLE_SDK/GD32VW55x_RELEASE_V1.0.2/MSDK/plf/src/init_rom_symbol.c:102
        mbedtls_ecp_gen_keypair_fn = (void *)0x0bf73c38;
 80023a6:	c3850c13          	addi	s8,a0,-968
C:/Users/stapi/OneDrive/Desktop/GD32VW553/GD32VW55X_Wifi_BLE_SDK/GD32VW55x_RELEASE_V1.0.2/MSDK/plf/src/init_rom_symbol.c:95
        mbedtls_ecp_check_pubkey_fn = (void *)0x0bf72f6a;
 80023aa:	85b1a223          	sw	s11,-1980(gp) # 200003a4 <mbedtls_ecp_check_pubkey_fn>
C:/Users/stapi/OneDrive/Desktop/GD32VW553/GD32VW55X_Wifi_BLE_SDK/GD32VW55x_RELEASE_V1.0.2/MSDK/plf/src/init_rom_symbol.c:104
        mbedtls_ecp_gen_privkey_fn = (void *)0x0bf72cbc;
 80023ae:	cbc60d93          	addi	s11,a2,-836
C:/Users/stapi/OneDrive/Desktop/GD32VW553/GD32VW55X_Wifi_BLE_SDK/GD32VW55x_RELEASE_V1.0.2/MSDK/plf/src/init_rom_symbol.c:110
        mbedtls_ecp_keypair_free_fn = (void *)0x0bf7214c;
 80023b2:	89c1a023          	sw	t3,-1920(gp) # 200003e0 <mbedtls_ecp_keypair_free_fn>
C:/Users/stapi/OneDrive/Desktop/GD32VW553/GD32VW55X_Wifi_BLE_SDK/GD32VW55x_RELEASE_V1.0.2/MSDK/plf/src/init_rom_symbol.c:102
        mbedtls_ecp_gen_keypair_fn = (void *)0x0bf73c38;
 80023b6:	8781a223          	sw	s8,-1948(gp) # 200003c4 <mbedtls_ecp_gen_keypair_fn>
C:/Users/stapi/OneDrive/Desktop/GD32VW553/GD32VW55X_Wifi_BLE_SDK/GD32VW55x_RELEASE_V1.0.2/MSDK/plf/src/init_rom_symbol.c:111
        mbedtls_ecp_keypair_init_fn = (void *)0x0bf720a2;
 80023ba:	0a258e13          	addi	t3,a1,162
C:/Users/stapi/OneDrive/Desktop/GD32VW553/GD32VW55X_Wifi_BLE_SDK/GD32VW55x_RELEASE_V1.0.2/MSDK/plf/src/init_rom_symbol.c:103
        mbedtls_ecp_gen_keypair_base_fn = (void *)0x0bf73bdc;
 80023be:	bdc50c13          	addi	s8,a0,-1060
C:/Users/stapi/OneDrive/Desktop/GD32VW553/GD32VW55X_Wifi_BLE_SDK/GD32VW55x_RELEASE_V1.0.2/MSDK/plf/src/init_rom_symbol.c:104
        mbedtls_ecp_gen_privkey_fn = (void *)0x0bf72cbc;
 80023c2:	87b1a423          	sw	s11,-1944(gp) # 200003c8 <mbedtls_ecp_gen_privkey_fn>
C:/Users/stapi/OneDrive/Desktop/GD32VW553/GD32VW55X_Wifi_BLE_SDK/GD32VW55x_RELEASE_V1.0.2/MSDK/plf/src/init_rom_symbol.c:109
        mbedtls_ecp_is_zero_fn = (void *)0x0bf728e4;
 80023c6:	8e460d93          	addi	s11,a2,-1820
C:/Users/stapi/OneDrive/Desktop/GD32VW553/GD32VW55X_Wifi_BLE_SDK/GD32VW55x_RELEASE_V1.0.2/MSDK/plf/src/init_rom_symbol.c:111
        mbedtls_ecp_keypair_init_fn = (void *)0x0bf720a2;
 80023ca:	89c1a223          	sw	t3,-1916(gp) # 200003e4 <mbedtls_ecp_keypair_init_fn>
C:/Users/stapi/OneDrive/Desktop/GD32VW553/GD32VW55X_Wifi_BLE_SDK/GD32VW55x_RELEASE_V1.0.2/MSDK/plf/src/init_rom_symbol.c:103
        mbedtls_ecp_gen_keypair_base_fn = (void *)0x0bf73bdc;
 80023ce:	8781a023          	sw	s8,-1952(gp) # 200003c0 <mbedtls_ecp_gen_keypair_base_fn>
C:/Users/stapi/OneDrive/Desktop/GD32VW553/GD32VW55X_Wifi_BLE_SDK/GD32VW55x_RELEASE_V1.0.2/MSDK/plf/src/init_rom_symbol.c:112
        mbedtls_ecp_mul_fn = (void *)0x0bf73bd6;
 80023d2:	bd650c93          	addi	s9,a0,-1066
C:/Users/stapi/OneDrive/Desktop/GD32VW553/GD32VW55X_Wifi_BLE_SDK/GD32VW55x_RELEASE_V1.0.2/MSDK/plf/src/init_rom_symbol.c:109
        mbedtls_ecp_is_zero_fn = (void *)0x0bf728e4;
 80023d6:	87b1ae23          	sw	s11,-1924(gp) # 200003dc <mbedtls_ecp_is_zero_fn>
C:/Users/stapi/OneDrive/Desktop/GD32VW553/GD32VW55X_Wifi_BLE_SDK/GD32VW55x_RELEASE_V1.0.2/MSDK/plf/src/init_rom_symbol.c:112
        mbedtls_ecp_mul_fn = (void *)0x0bf73bd6;
 80023da:	8991a423          	sw	s9,-1912(gp) # 200003e8 <mbedtls_ecp_mul_fn>
C:/Users/stapi/OneDrive/Desktop/GD32VW553/GD32VW55X_Wifi_BLE_SDK/GD32VW55x_RELEASE_V1.0.2/MSDK/plf/src/init_rom_symbol.c:113
        mbedtls_ecp_mul_restartable_fn = (void *)0x0bf73220;
 80023de:	22060d13          	addi	s10,a2,544
C:/Users/stapi/OneDrive/Desktop/GD32VW553/GD32VW55X_Wifi_BLE_SDK/GD32VW55x_RELEASE_V1.0.2/MSDK/plf/src/init_rom_symbol.c:114
        mbedtls_ecp_muladd_fn = (void *)0x0bf73e98;
 80023e2:	e9850c13          	addi	s8,a0,-360
C:/Users/stapi/OneDrive/Desktop/GD32VW553/GD32VW55X_Wifi_BLE_SDK/GD32VW55x_RELEASE_V1.0.2/MSDK/plf/src/init_rom_symbol.c:113
        mbedtls_ecp_mul_restartable_fn = (void *)0x0bf73220;
 80023e6:	89a1a623          	sw	s10,-1908(gp) # 200003ec <mbedtls_ecp_mul_restartable_fn>
C:/Users/stapi/OneDrive/Desktop/GD32VW553/GD32VW55X_Wifi_BLE_SDK/GD32VW55x_RELEASE_V1.0.2/MSDK/plf/src/init_rom_symbol.c:115
        mbedtls_ecp_muladd_restartable_fn = (void *)0x0bf73e7c;
 80023ea:	e7c50b93          	addi	s7,a0,-388
C:/Users/stapi/OneDrive/Desktop/GD32VW553/GD32VW55X_Wifi_BLE_SDK/GD32VW55x_RELEASE_V1.0.2/MSDK/plf/src/init_rom_symbol.c:114
        mbedtls_ecp_muladd_fn = (void *)0x0bf73e98;
 80023ee:	8981a823          	sw	s8,-1904(gp) # 200003f0 <mbedtls_ecp_muladd_fn>
C:/Users/stapi/OneDrive/Desktop/GD32VW553/GD32VW55X_Wifi_BLE_SDK/GD32VW55x_RELEASE_V1.0.2/MSDK/plf/src/init_rom_symbol.c:116
        mbedtls_ecp_point_cmp_fn = (void *)0x0bf728fa;
 80023f2:	8fa60c93          	addi	s9,a2,-1798
C:/Users/stapi/OneDrive/Desktop/GD32VW553/GD32VW55X_Wifi_BLE_SDK/GD32VW55x_RELEASE_V1.0.2/MSDK/plf/src/init_rom_symbol.c:115
        mbedtls_ecp_muladd_restartable_fn = (void *)0x0bf73e7c;
 80023f6:	8971aa23          	sw	s7,-1900(gp) # 200003f4 <mbedtls_ecp_muladd_restartable_fn>
C:/Users/stapi/OneDrive/Desktop/GD32VW553/GD32VW55X_Wifi_BLE_SDK/GD32VW55x_RELEASE_V1.0.2/MSDK/plf/src/init_rom_symbol.c:117
        mbedtls_ecp_point_free_fn = (void *)0x0bf720c4;
 80023fa:	0c458b13          	addi	s6,a1,196
C:/Users/stapi/OneDrive/Desktop/GD32VW553/GD32VW55X_Wifi_BLE_SDK/GD32VW55x_RELEASE_V1.0.2/MSDK/plf/src/init_rom_symbol.c:116
        mbedtls_ecp_point_cmp_fn = (void *)0x0bf728fa;
 80023fe:	8991ac23          	sw	s9,-1896(gp) # 200003f8 <mbedtls_ecp_point_cmp_fn>
C:/Users/stapi/OneDrive/Desktop/GD32VW553/GD32VW55X_Wifi_BLE_SDK/GD32VW55x_RELEASE_V1.0.2/MSDK/plf/src/init_rom_symbol.c:118
        mbedtls_ecp_point_init_fn = (void *)0x0bf72022;
 8002402:	02258a93          	addi	s5,a1,34
C:/Users/stapi/OneDrive/Desktop/GD32VW553/GD32VW55X_Wifi_BLE_SDK/GD32VW55x_RELEASE_V1.0.2/MSDK/plf/src/init_rom_symbol.c:117
        mbedtls_ecp_point_free_fn = (void *)0x0bf720c4;
 8002406:	8961ae23          	sw	s6,-1892(gp) # 200003fc <mbedtls_ecp_point_free_fn>
C:/Users/stapi/OneDrive/Desktop/GD32VW553/GD32VW55X_Wifi_BLE_SDK/GD32VW55x_RELEASE_V1.0.2/MSDK/plf/src/init_rom_symbol.c:119
        mbedtls_ecp_point_read_binary_fn = (void *)0x0bf72a54;
 800240a:	a5460c13          	addi	s8,a2,-1452
C:/Users/stapi/OneDrive/Desktop/GD32VW553/GD32VW55X_Wifi_BLE_SDK/GD32VW55x_RELEASE_V1.0.2/MSDK/plf/src/init_rom_symbol.c:118
        mbedtls_ecp_point_init_fn = (void *)0x0bf72022;
 800240e:	8b51a023          	sw	s5,-1888(gp) # 20000400 <mbedtls_ecp_point_init_fn>
C:/Users/stapi/OneDrive/Desktop/GD32VW553/GD32VW55X_Wifi_BLE_SDK/GD32VW55x_RELEASE_V1.0.2/MSDK/plf/src/init_rom_symbol.c:120
        mbedtls_ecp_point_read_string_fn = (void *)0x0bf72942;
 8002412:	94260d13          	addi	s10,a2,-1726
C:/Users/stapi/OneDrive/Desktop/GD32VW553/GD32VW55X_Wifi_BLE_SDK/GD32VW55x_RELEASE_V1.0.2/MSDK/plf/src/init_rom_symbol.c:119
        mbedtls_ecp_point_read_binary_fn = (void *)0x0bf72a54;
 8002416:	8b81a223          	sw	s8,-1884(gp) # 20000404 <mbedtls_ecp_point_read_binary_fn>
C:/Users/stapi/OneDrive/Desktop/GD32VW553/GD32VW55X_Wifi_BLE_SDK/GD32VW55x_RELEASE_V1.0.2/MSDK/plf/src/init_rom_symbol.c:121
        mbedtls_ecp_point_write_binary_fn = (void *)0x0bf72986;
 800241a:	98660b93          	addi	s7,a2,-1658
C:/Users/stapi/OneDrive/Desktop/GD32VW553/GD32VW55X_Wifi_BLE_SDK/GD32VW55x_RELEASE_V1.0.2/MSDK/plf/src/init_rom_symbol.c:120
        mbedtls_ecp_point_read_string_fn = (void *)0x0bf72942;
 800241e:	8ba1a423          	sw	s10,-1880(gp) # 20000408 <mbedtls_ecp_point_read_string_fn>
C:/Users/stapi/OneDrive/Desktop/GD32VW553/GD32VW55X_Wifi_BLE_SDK/GD32VW55x_RELEASE_V1.0.2/MSDK/plf/src/init_rom_symbol.c:121
        mbedtls_ecp_point_write_binary_fn = (void *)0x0bf72986;
 8002422:	8b71a623          	sw	s7,-1876(gp) # 2000040c <mbedtls_ecp_point_write_binary_fn>
C:/Users/stapi/OneDrive/Desktop/GD32VW553/GD32VW55X_Wifi_BLE_SDK/GD32VW55x_RELEASE_V1.0.2/MSDK/plf/src/init_rom_symbol.c:122
        mbedtls_ecp_set_zero_fn = (void *)0x0bf721b6;
 8002426:	1b658593          	addi	a1,a1,438
C:/Users/stapi/OneDrive/Desktop/GD32VW553/GD32VW55X_Wifi_BLE_SDK/GD32VW55x_RELEASE_V1.0.2/MSDK/plf/src/init_rom_symbol.c:123
        mbedtls_ecp_tls_read_group_fn = (void *)0x0bf72bc4;
 800242a:	bc460b13          	addi	s6,a2,-1084
C:/Users/stapi/OneDrive/Desktop/GD32VW553/GD32VW55X_Wifi_BLE_SDK/GD32VW55x_RELEASE_V1.0.2/MSDK/plf/src/init_rom_symbol.c:122
        mbedtls_ecp_set_zero_fn = (void *)0x0bf721b6;
 800242e:	8ab1a823          	sw	a1,-1872(gp) # 20000410 <mbedtls_ecp_set_zero_fn>
C:/Users/stapi/OneDrive/Desktop/GD32VW553/GD32VW55X_Wifi_BLE_SDK/GD32VW55x_RELEASE_V1.0.2/MSDK/plf/src/init_rom_symbol.c:124
        mbedtls_ecp_tls_read_group_id_fn = (void *)0x0bf72b5c;
 8002432:	b5c60c93          	addi	s9,a2,-1188
C:/Users/stapi/OneDrive/Desktop/GD32VW553/GD32VW55X_Wifi_BLE_SDK/GD32VW55x_RELEASE_V1.0.2/MSDK/plf/src/init_rom_symbol.c:123
        mbedtls_ecp_tls_read_group_fn = (void *)0x0bf72bc4;
 8002436:	8b61aa23          	sw	s6,-1868(gp) # 20000414 <mbedtls_ecp_tls_read_group_fn>
C:/Users/stapi/OneDrive/Desktop/GD32VW553/GD32VW55X_Wifi_BLE_SDK/GD32VW55x_RELEASE_V1.0.2/MSDK/plf/src/init_rom_symbol.c:125
        mbedtls_ecp_tls_read_point_fn = (void *)0x0bf72af2;
 800243a:	af260c13          	addi	s8,a2,-1294
C:/Users/stapi/OneDrive/Desktop/GD32VW553/GD32VW55X_Wifi_BLE_SDK/GD32VW55x_RELEASE_V1.0.2/MSDK/plf/src/init_rom_symbol.c:124
        mbedtls_ecp_tls_read_group_id_fn = (void *)0x0bf72b5c;
 800243e:	8b91ac23          	sw	s9,-1864(gp) # 20000418 <mbedtls_ecp_tls_read_group_id_fn>
C:/Users/stapi/OneDrive/Desktop/GD32VW553/GD32VW55X_Wifi_BLE_SDK/GD32VW55x_RELEASE_V1.0.2/MSDK/plf/src/init_rom_symbol.c:126
        mbedtls_ecp_tls_write_group_fn = (void *)0x0bf72be4;
 8002442:	be460a93          	addi	s5,a2,-1052
C:/Users/stapi/OneDrive/Desktop/GD32VW553/GD32VW55X_Wifi_BLE_SDK/GD32VW55x_RELEASE_V1.0.2/MSDK/plf/src/init_rom_symbol.c:125
        mbedtls_ecp_tls_read_point_fn = (void *)0x0bf72af2;
 8002446:	8b81ae23          	sw	s8,-1860(gp) # 2000041c <mbedtls_ecp_tls_read_point_fn>
C:/Users/stapi/OneDrive/Desktop/GD32VW553/GD32VW55X_Wifi_BLE_SDK/GD32VW55x_RELEASE_V1.0.2/MSDK/plf/src/init_rom_symbol.c:128
        mbedtls_ecp_tls_write_point_fn = (void *)0x0bf72b26;
        mbedtls_internal_md5_process_fn = (void *)0x0bf76912;
 800244a:	0bf77737          	lui	a4,0xbf77
C:/Users/stapi/OneDrive/Desktop/GD32VW553/GD32VW55X_Wifi_BLE_SDK/GD32VW55x_RELEASE_V1.0.2/MSDK/plf/src/init_rom_symbol.c:126
        mbedtls_ecp_tls_write_group_fn = (void *)0x0bf72be4;
 800244e:	8d51a023          	sw	s5,-1856(gp) # 20000420 <mbedtls_ecp_tls_write_group_fn>
C:/Users/stapi/OneDrive/Desktop/GD32VW553/GD32VW55X_Wifi_BLE_SDK/GD32VW55x_RELEASE_V1.0.2/MSDK/plf/src/init_rom_symbol.c:127
        mbedtls_ecp_tls_write_point_fn = (void *)0x0bf72b26;
 8002452:	b2660613          	addi	a2,a2,-1242
C:/Users/stapi/OneDrive/Desktop/GD32VW553/GD32VW55X_Wifi_BLE_SDK/GD32VW55x_RELEASE_V1.0.2/MSDK/plf/src/init_rom_symbol.c:129
        mbedtls_internal_sha256_process_fn = (void *)0x0bf7674e;
 8002456:	0bf767b7          	lui	a5,0xbf76
C:/Users/stapi/OneDrive/Desktop/GD32VW553/GD32VW55X_Wifi_BLE_SDK/GD32VW55x_RELEASE_V1.0.2/MSDK/plf/src/init_rom_symbol.c:128
        mbedtls_internal_md5_process_fn = (void *)0x0bf76912;
 800245a:	91270a13          	addi	s4,a4,-1774 # bf76912 <mbedtls_mpi_mul_mpi_sw+0x8132>
C:/Users/stapi/OneDrive/Desktop/GD32VW553/GD32VW55X_Wifi_BLE_SDK/GD32VW55x_RELEASE_V1.0.2/MSDK/plf/src/init_rom_symbol.c:127
        mbedtls_ecp_tls_write_point_fn = (void *)0x0bf72b26;
 800245e:	8cc1a223          	sw	a2,-1852(gp) # 20000424 <mbedtls_ecp_tls_write_point_fn>
C:/Users/stapi/OneDrive/Desktop/GD32VW553/GD32VW55X_Wifi_BLE_SDK/GD32VW55x_RELEASE_V1.0.2/MSDK/plf/src/init_rom_symbol.c:129
        mbedtls_internal_sha256_process_fn = (void *)0x0bf7674e;
 8002462:	74e78993          	addi	s3,a5,1870 # bf7674e <mbedtls_mpi_mul_mpi_sw+0x7f6e>
C:/Users/stapi/OneDrive/Desktop/GD32VW553/GD32VW55X_Wifi_BLE_SDK/GD32VW55x_RELEASE_V1.0.2/MSDK/plf/src/init_rom_symbol.c:128
        mbedtls_internal_md5_process_fn = (void *)0x0bf76912;
 8002466:	8d41a423          	sw	s4,-1848(gp) # 20000428 <mbedtls_internal_md5_process_fn>
C:/Users/stapi/OneDrive/Desktop/GD32VW553/GD32VW55X_Wifi_BLE_SDK/GD32VW55x_RELEASE_V1.0.2/MSDK/plf/src/init_rom_symbol.c:130
        mbedtls_md5_fn = (void *)0x0bf7778e;
 800246a:	78e70913          	addi	s2,a4,1934
C:/Users/stapi/OneDrive/Desktop/GD32VW553/GD32VW55X_Wifi_BLE_SDK/GD32VW55x_RELEASE_V1.0.2/MSDK/plf/src/init_rom_symbol.c:129
        mbedtls_internal_sha256_process_fn = (void *)0x0bf7674e;
 800246e:	8d31a623          	sw	s3,-1844(gp) # 2000042c <mbedtls_internal_sha256_process_fn>
C:/Users/stapi/OneDrive/Desktop/GD32VW553/GD32VW55X_Wifi_BLE_SDK/GD32VW55x_RELEASE_V1.0.2/MSDK/plf/src/init_rom_symbol.c:131
        mbedtls_md5_clone_fn = (void *)0x0bf768a4;
 8002472:	8a470493          	addi	s1,a4,-1884
C:/Users/stapi/OneDrive/Desktop/GD32VW553/GD32VW55X_Wifi_BLE_SDK/GD32VW55x_RELEASE_V1.0.2/MSDK/plf/src/init_rom_symbol.c:130
        mbedtls_md5_fn = (void *)0x0bf7778e;
 8002476:	8d21ae23          	sw	s2,-1828(gp) # 2000043c <mbedtls_md5_fn>
C:/Users/stapi/OneDrive/Desktop/GD32VW553/GD32VW55X_Wifi_BLE_SDK/GD32VW55x_RELEASE_V1.0.2/MSDK/plf/src/init_rom_symbol.c:132
        mbedtls_md5_finish_fn = (void *)0x0bf77758;
 800247a:	75870413          	addi	s0,a4,1880
C:/Users/stapi/OneDrive/Desktop/GD32VW553/GD32VW55X_Wifi_BLE_SDK/GD32VW55x_RELEASE_V1.0.2/MSDK/plf/src/init_rom_symbol.c:131
        mbedtls_md5_clone_fn = (void *)0x0bf768a4;
 800247e:	8c91a823          	sw	s1,-1840(gp) # 20000430 <mbedtls_md5_clone_fn>
C:/Users/stapi/OneDrive/Desktop/GD32VW553/GD32VW55X_Wifi_BLE_SDK/GD32VW55x_RELEASE_V1.0.2/MSDK/plf/src/init_rom_symbol.c:133
        mbedtls_md5_finish_ret_fn = (void *)0x0bf7765a;
 8002482:	65a70393          	addi	t2,a4,1626
C:/Users/stapi/OneDrive/Desktop/GD32VW553/GD32VW55X_Wifi_BLE_SDK/GD32VW55x_RELEASE_V1.0.2/MSDK/plf/src/init_rom_symbol.c:132
        mbedtls_md5_finish_fn = (void *)0x0bf77758;
 8002486:	8c81aa23          	sw	s0,-1836(gp) # 20000434 <mbedtls_md5_finish_fn>
C:/Users/stapi/OneDrive/Desktop/GD32VW553/GD32VW55X_Wifi_BLE_SDK/GD32VW55x_RELEASE_V1.0.2/MSDK/plf/src/init_rom_symbol.c:134
        mbedtls_md5_free_fn = (void *)0x0bf76898;
 800248a:	89870293          	addi	t0,a4,-1896
C:/Users/stapi/OneDrive/Desktop/GD32VW553/GD32VW55X_Wifi_BLE_SDK/GD32VW55x_RELEASE_V1.0.2/MSDK/plf/src/init_rom_symbol.c:133
        mbedtls_md5_finish_ret_fn = (void *)0x0bf7765a;
 800248e:	8c71ac23          	sw	t2,-1832(gp) # 20000438 <mbedtls_md5_finish_ret_fn>
C:/Users/stapi/OneDrive/Desktop/GD32VW553/GD32VW55X_Wifi_BLE_SDK/GD32VW55x_RELEASE_V1.0.2/MSDK/plf/src/init_rom_symbol.c:135
        mbedtls_md5_init_fn = (void *)0x0bf7688e;
 8002492:	88e70f93          	addi	t6,a4,-1906
C:/Users/stapi/OneDrive/Desktop/GD32VW553/GD32VW55X_Wifi_BLE_SDK/GD32VW55x_RELEASE_V1.0.2/MSDK/plf/src/init_rom_symbol.c:134
        mbedtls_md5_free_fn = (void *)0x0bf76898;
 8002496:	8e51a023          	sw	t0,-1824(gp) # 20000440 <mbedtls_md5_free_fn>
C:/Users/stapi/OneDrive/Desktop/GD32VW553/GD32VW55X_Wifi_BLE_SDK/GD32VW55x_RELEASE_V1.0.2/MSDK/plf/src/init_rom_symbol.c:136
        mbedtls_md5_process_fn = (void *)0x0bf77644;
 800249a:	64470f13          	addi	t5,a4,1604
C:/Users/stapi/OneDrive/Desktop/GD32VW553/GD32VW55X_Wifi_BLE_SDK/GD32VW55x_RELEASE_V1.0.2/MSDK/plf/src/init_rom_symbol.c:135
        mbedtls_md5_init_fn = (void *)0x0bf7688e;
 800249e:	8ff1a223          	sw	t6,-1820(gp) # 20000444 <mbedtls_md5_init_fn>
C:/Users/stapi/OneDrive/Desktop/GD32VW553/GD32VW55X_Wifi_BLE_SDK/GD32VW55x_RELEASE_V1.0.2/MSDK/plf/src/init_rom_symbol.c:137
        mbedtls_md5_ret_fn = (void *)0x0bf7775c;
 80024a2:	75c70e93          	addi	t4,a4,1884
C:/Users/stapi/OneDrive/Desktop/GD32VW553/GD32VW55X_Wifi_BLE_SDK/GD32VW55x_RELEASE_V1.0.2/MSDK/plf/src/init_rom_symbol.c:136
        mbedtls_md5_process_fn = (void *)0x0bf77644;
 80024a6:	8fe1a423          	sw	t5,-1816(gp) # 20000448 <mbedtls_md5_process_fn>
C:/Users/stapi/OneDrive/Desktop/GD32VW553/GD32VW55X_Wifi_BLE_SDK/GD32VW55x_RELEASE_V1.0.2/MSDK/plf/src/init_rom_symbol.c:138
        mbedtls_md5_starts_fn = (void *)0x0bf768e0;
 80024aa:	8e070e13          	addi	t3,a4,-1824
C:/Users/stapi/OneDrive/Desktop/GD32VW553/GD32VW55X_Wifi_BLE_SDK/GD32VW55x_RELEASE_V1.0.2/MSDK/plf/src/init_rom_symbol.c:137
        mbedtls_md5_ret_fn = (void *)0x0bf7775c;
 80024ae:	8fd1a623          	sw	t4,-1812(gp) # 2000044c <mbedtls_md5_ret_fn>
C:/Users/stapi/OneDrive/Desktop/GD32VW553/GD32VW55X_Wifi_BLE_SDK/GD32VW55x_RELEASE_V1.0.2/MSDK/plf/src/init_rom_symbol.c:139
        mbedtls_md5_starts_ret_fn = (void *)0x0bf768ac;
 80024b2:	8ac70313          	addi	t1,a4,-1876
C:/Users/stapi/OneDrive/Desktop/GD32VW553/GD32VW55X_Wifi_BLE_SDK/GD32VW55x_RELEASE_V1.0.2/MSDK/plf/src/init_rom_symbol.c:138
        mbedtls_md5_starts_fn = (void *)0x0bf768e0;
 80024b6:	8fc1a823          	sw	t3,-1808(gp) # 20000450 <mbedtls_md5_starts_fn>
C:/Users/stapi/OneDrive/Desktop/GD32VW553/GD32VW55X_Wifi_BLE_SDK/GD32VW55x_RELEASE_V1.0.2/MSDK/plf/src/init_rom_symbol.c:140
        mbedtls_md5_update_fn = (void *)0x0bf77652;
 80024ba:	0bf775b7          	lui	a1,0xbf77
C:/Users/stapi/OneDrive/Desktop/GD32VW553/GD32VW55X_Wifi_BLE_SDK/GD32VW55x_RELEASE_V1.0.2/MSDK/plf/src/init_rom_symbol.c:139
        mbedtls_md5_starts_ret_fn = (void *)0x0bf768ac;
 80024be:	8e61aa23          	sw	t1,-1804(gp) # 20000454 <mbedtls_md5_starts_ret_fn>
C:/Users/stapi/OneDrive/Desktop/GD32VW553/GD32VW55X_Wifi_BLE_SDK/GD32VW55x_RELEASE_V1.0.2/MSDK/plf/src/init_rom_symbol.c:140
        mbedtls_md5_update_fn = (void *)0x0bf77652;
 80024c2:	65258413          	addi	s0,a1,1618 # bf77652 <mbedtls_mpi_mul_mpi_sw+0x8e72>
 80024c6:	8e81ac23          	sw	s0,-1800(gp) # 20000458 <mbedtls_md5_update_fn>
C:/Users/stapi/OneDrive/Desktop/GD32VW553/GD32VW55X_Wifi_BLE_SDK/GD32VW55x_RELEASE_V1.0.2/MSDK/plf/src/init_rom_symbol.c:141
        mbedtls_md5_update_ret_fn = (void *)0x0bf77648;
 80024ca:	64858593          	addi	a1,a1,1608
 80024ce:	8eb1ae23          	sw	a1,-1796(gp) # 2000045c <mbedtls_md5_update_ret_fn>
C:/Users/stapi/OneDrive/Desktop/GD32VW553/GD32VW55X_Wifi_BLE_SDK/GD32VW55x_RELEASE_V1.0.2/MSDK/plf/src/init_rom_symbol.c:142
        mbedtls_mpi_div_int_fn = (void *)0x0bf6f20a;
 80024d2:	0bf6f5b7          	lui	a1,0xbf6f
 80024d6:	20a58413          	addi	s0,a1,522 # bf6f20a <mbedtls_mpi_mul_mpi_sw+0xa2a>
 80024da:	9081a023          	sw	s0,-1792(gp) # 20000460 <mbedtls_mpi_div_int_fn>
C:/Users/stapi/OneDrive/Desktop/GD32VW553/GD32VW55X_Wifi_BLE_SDK/GD32VW55x_RELEASE_V1.0.2/MSDK/plf/src/init_rom_symbol.c:143
        mbedtls_mpi_div_mpi_fn = (void *)0x0bf6ed1e;
 80024de:	d1e58413          	addi	s0,a1,-738
 80024e2:	9081a223          	sw	s0,-1788(gp) # 20000464 <mbedtls_mpi_div_mpi_fn>
C:/Users/stapi/OneDrive/Desktop/GD32VW553/GD32VW55X_Wifi_BLE_SDK/GD32VW55x_RELEASE_V1.0.2/MSDK/plf/src/init_rom_symbol.c:144
        mbedtls_mpi_exp_mod_fn = (void *)0x0bf6fb5c;
 80024e6:	0bf70437          	lui	s0,0xbf70
 80024ea:	b5c40493          	addi	s1,s0,-1188 # bf6fb5c <mbedtls_mpi_mul_mpi_sw+0x137c>
 80024ee:	9091a423          	sw	s1,-1784(gp) # 20000468 <mbedtls_mpi_exp_mod_fn>
C:/Users/stapi/OneDrive/Desktop/GD32VW553/GD32VW55X_Wifi_BLE_SDK/GD32VW55x_RELEASE_V1.0.2/MSDK/plf/src/init_rom_symbol.c:161
        mbedtls_mpi_read_string_fn = (void *)0x0bf6eaec;
        mbedtls_mpi_write_string_fn = (void *)0x0bf6f304;
        mbedtls_rsa_check_privkey_fn = (void *)0x0bf74972;
        mbedtls_rsa_check_pub_priv_fn = (void *)0x0bf74c08;
        mbedtls_rsa_check_pubkey_fn = (void *)0x0bf74910;
        mbedtls_rsa_complete_fn = (void *)0x0bf74490;
 80024f2:	49050f93          	addi	t6,a0,1168
C:/Users/stapi/OneDrive/Desktop/GD32VW553/GD32VW55X_Wifi_BLE_SDK/GD32VW55x_RELEASE_V1.0.2/MSDK/plf/src/init_rom_symbol.c:163
        mbedtls_rsa_copy_fn = (void *)0x0bf76132;
        mbedtls_rsa_export_fn = (void *)0x0bf74728;
 80024f6:	72850e93          	addi	t4,a0,1832
C:/Users/stapi/OneDrive/Desktop/GD32VW553/GD32VW55X_Wifi_BLE_SDK/GD32VW55x_RELEASE_V1.0.2/MSDK/plf/src/init_rom_symbol.c:165
        mbedtls_rsa_export_crt_fn = (void *)0x0bf7482a;
        mbedtls_rsa_export_raw_fn = (void *)0x0bf745f0;
 80024fa:	5f050313          	addi	t1,a0,1520
C:/Users/stapi/OneDrive/Desktop/GD32VW553/GD32VW55X_Wifi_BLE_SDK/GD32VW55x_RELEASE_V1.0.2/MSDK/plf/src/init_rom_symbol.c:169
        mbedtls_rsa_free_fn = (void *)0x0bf7623c;
        mbedtls_rsa_gen_key_fn = (void *)0x0bf749e2;
        mbedtls_rsa_get_len_fn = (void *)0x0bf7490c;
        mbedtls_rsa_import_fn = (void *)0x0bf74364;
 80024fe:	36450d13          	addi	s10,a0,868
C:/Users/stapi/OneDrive/Desktop/GD32VW553/GD32VW55X_Wifi_BLE_SDK/GD32VW55x_RELEASE_V1.0.2/MSDK/plf/src/init_rom_symbol.c:170
        mbedtls_rsa_import_raw_fn = (void *)0x0bf743f6;
 8002502:	3f650513          	addi	a0,a0,1014
 8002506:	c62a                	sw	a0,12(sp)
C:/Users/stapi/OneDrive/Desktop/GD32VW553/GD32VW55X_Wifi_BLE_SDK/GD32VW55x_RELEASE_V1.0.2/MSDK/plf/src/init_rom_symbol.c:145
        mbedtls_mpi_exp_mod_sw_fn = (void *)0x0bf6f54c;
 8002508:	54c58593          	addi	a1,a1,1356
 800250c:	90b1a623          	sw	a1,-1780(gp) # 2000046c <mbedtls_mpi_exp_mod_sw_fn>
C:/Users/stapi/OneDrive/Desktop/GD32VW553/GD32VW55X_Wifi_BLE_SDK/GD32VW55x_RELEASE_V1.0.2/MSDK/plf/src/init_rom_symbol.c:146
        mbedtls_mpi_fill_random_fn = (void *)0x0bf6fee4;
 8002510:	0bf705b7          	lui	a1,0xbf70
C:/Users/stapi/OneDrive/Desktop/GD32VW553/GD32VW55X_Wifi_BLE_SDK/GD32VW55x_RELEASE_V1.0.2/MSDK/plf/src/init_rom_symbol.c:144
        mbedtls_mpi_exp_mod_fn = (void *)0x0bf6fb5c;
 8002514:	0bf708b7          	lui	a7,0xbf70
C:/Users/stapi/OneDrive/Desktop/GD32VW553/GD32VW55X_Wifi_BLE_SDK/GD32VW55x_RELEASE_V1.0.2/MSDK/plf/src/init_rom_symbol.c:146
        mbedtls_mpi_fill_random_fn = (void *)0x0bf6fee4;
 8002518:	ee458593          	addi	a1,a1,-284 # bf6fee4 <mbedtls_mpi_mul_mpi_sw+0x1704>
C:/Users/stapi/OneDrive/Desktop/GD32VW553/GD32VW55X_Wifi_BLE_SDK/GD32VW55x_RELEASE_V1.0.2/MSDK/plf/src/init_rom_symbol.c:147
        mbedtls_mpi_gcd_fn = (void *)0x0bf6fcec;
 800251c:	cec88c13          	addi	s8,a7,-788 # bf6fcec <mbedtls_mpi_mul_mpi_sw+0x150c>
C:/Users/stapi/OneDrive/Desktop/GD32VW553/GD32VW55X_Wifi_BLE_SDK/GD32VW55x_RELEASE_V1.0.2/MSDK/plf/src/init_rom_symbol.c:146
        mbedtls_mpi_fill_random_fn = (void *)0x0bf6fee4;
 8002520:	90b1a823          	sw	a1,-1776(gp) # 20000470 <mbedtls_mpi_fill_random_fn>
C:/Users/stapi/OneDrive/Desktop/GD32VW553/GD32VW55X_Wifi_BLE_SDK/GD32VW55x_RELEASE_V1.0.2/MSDK/plf/src/init_rom_symbol.c:148
        mbedtls_mpi_gen_prime_fn = (void *)0x0bf705e2;
 8002524:	5e288b93          	addi	s7,a7,1506
C:/Users/stapi/OneDrive/Desktop/GD32VW553/GD32VW55X_Wifi_BLE_SDK/GD32VW55x_RELEASE_V1.0.2/MSDK/plf/src/init_rom_symbol.c:147
        mbedtls_mpi_gcd_fn = (void *)0x0bf6fcec;
 8002528:	9181aa23          	sw	s8,-1772(gp) # 20000474 <mbedtls_mpi_gcd_fn>
C:/Users/stapi/OneDrive/Desktop/GD32VW553/GD32VW55X_Wifi_BLE_SDK/GD32VW55x_RELEASE_V1.0.2/MSDK/plf/src/init_rom_symbol.c:149
        mbedtls_mpi_inv_mod_fn = (void *)0x0bf70212;
 800252c:	21288b13          	addi	s6,a7,530
C:/Users/stapi/OneDrive/Desktop/GD32VW553/GD32VW55X_Wifi_BLE_SDK/GD32VW55x_RELEASE_V1.0.2/MSDK/plf/src/init_rom_symbol.c:148
        mbedtls_mpi_gen_prime_fn = (void *)0x0bf705e2;
 8002530:	9171ac23          	sw	s7,-1768(gp) # 20000478 <mbedtls_mpi_gen_prime_fn>
C:/Users/stapi/OneDrive/Desktop/GD32VW553/GD32VW55X_Wifi_BLE_SDK/GD32VW55x_RELEASE_V1.0.2/MSDK/plf/src/init_rom_symbol.c:150
        mbedtls_mpi_is_prime_fn = (void *)0x0bf705d6;
 8002534:	5d688a93          	addi	s5,a7,1494
C:/Users/stapi/OneDrive/Desktop/GD32VW553/GD32VW55X_Wifi_BLE_SDK/GD32VW55x_RELEASE_V1.0.2/MSDK/plf/src/init_rom_symbol.c:149
        mbedtls_mpi_inv_mod_fn = (void *)0x0bf70212;
 8002538:	9161ae23          	sw	s6,-1764(gp) # 2000047c <mbedtls_mpi_inv_mod_fn>
C:/Users/stapi/OneDrive/Desktop/GD32VW553/GD32VW55X_Wifi_BLE_SDK/GD32VW55x_RELEASE_V1.0.2/MSDK/plf/src/init_rom_symbol.c:142
        mbedtls_mpi_div_int_fn = (void *)0x0bf6f20a;
 800253c:	0bf6f837          	lui	a6,0xbf6f
C:/Users/stapi/OneDrive/Desktop/GD32VW553/GD32VW55X_Wifi_BLE_SDK/GD32VW55x_RELEASE_V1.0.2/MSDK/plf/src/init_rom_symbol.c:150
        mbedtls_mpi_is_prime_fn = (void *)0x0bf705d6;
 8002540:	9351a223          	sw	s5,-1756(gp) # 20000484 <mbedtls_mpi_is_prime_fn>
C:/Users/stapi/OneDrive/Desktop/GD32VW553/GD32VW55X_Wifi_BLE_SDK/GD32VW55x_RELEASE_V1.0.2/MSDK/plf/src/init_rom_symbol.c:151
        mbedtls_mpi_is_prime_ext_fn = (void *)0x0bf70534;
 8002544:	53488893          	addi	a7,a7,1332
C:/Users/stapi/OneDrive/Desktop/GD32VW553/GD32VW55X_Wifi_BLE_SDK/GD32VW55x_RELEASE_V1.0.2/MSDK/plf/src/init_rom_symbol.c:152
        mbedtls_mpi_mod_int_fn = (void *)0x0bf6f2d0;
 8002548:	2d080a13          	addi	s4,a6,720 # bf6f2d0 <mbedtls_mpi_mul_mpi_sw+0xaf0>
C:/Users/stapi/OneDrive/Desktop/GD32VW553/GD32VW55X_Wifi_BLE_SDK/GD32VW55x_RELEASE_V1.0.2/MSDK/plf/src/init_rom_symbol.c:151
        mbedtls_mpi_is_prime_ext_fn = (void *)0x0bf70534;
 800254c:	9311a023          	sw	a7,-1760(gp) # 20000480 <mbedtls_mpi_is_prime_ext_fn>
C:/Users/stapi/OneDrive/Desktop/GD32VW553/GD32VW55X_Wifi_BLE_SDK/GD32VW55x_RELEASE_V1.0.2/MSDK/plf/src/init_rom_symbol.c:153
        mbedtls_mpi_mod_mpi_fn = (void *)0x0bf6f234;
 8002550:	23480993          	addi	s3,a6,564
C:/Users/stapi/OneDrive/Desktop/GD32VW553/GD32VW55X_Wifi_BLE_SDK/GD32VW55x_RELEASE_V1.0.2/MSDK/plf/src/init_rom_symbol.c:152
        mbedtls_mpi_mod_int_fn = (void *)0x0bf6f2d0;
 8002554:	9341a423          	sw	s4,-1752(gp) # 20000488 <mbedtls_mpi_mod_int_fn>
C:/Users/stapi/OneDrive/Desktop/GD32VW553/GD32VW55X_Wifi_BLE_SDK/GD32VW55x_RELEASE_V1.0.2/MSDK/plf/src/init_rom_symbol.c:154
        mbedtls_mpi_mul_int_fn = (void *)0x0bf6ed04;
 8002558:	d0480913          	addi	s2,a6,-764
C:/Users/stapi/OneDrive/Desktop/GD32VW553/GD32VW55X_Wifi_BLE_SDK/GD32VW55x_RELEASE_V1.0.2/MSDK/plf/src/init_rom_symbol.c:153
        mbedtls_mpi_mod_mpi_fn = (void *)0x0bf6f234;
 800255c:	9331a623          	sw	s3,-1748(gp) # 2000048c <mbedtls_mpi_mod_mpi_fn>
C:/Users/stapi/OneDrive/Desktop/GD32VW553/GD32VW55X_Wifi_BLE_SDK/GD32VW55x_RELEASE_V1.0.2/MSDK/plf/src/init_rom_symbol.c:155
        mbedtls_mpi_mul_mpi_fn = (void *)0x0bf6ead6;
 8002560:	ad680493          	addi	s1,a6,-1322
C:/Users/stapi/OneDrive/Desktop/GD32VW553/GD32VW55X_Wifi_BLE_SDK/GD32VW55x_RELEASE_V1.0.2/MSDK/plf/src/init_rom_symbol.c:154
        mbedtls_mpi_mul_int_fn = (void *)0x0bf6ed04;
 8002564:	9321a823          	sw	s2,-1744(gp) # 20000490 <mbedtls_mpi_mul_int_fn>
C:/Users/stapi/OneDrive/Desktop/GD32VW553/GD32VW55X_Wifi_BLE_SDK/GD32VW55x_RELEASE_V1.0.2/MSDK/plf/src/init_rom_symbol.c:157
        mbedtls_mpi_write_string_fn = (void *)0x0bf6f304;
 8002568:	30480d93          	addi	s11,a6,772
C:/Users/stapi/OneDrive/Desktop/GD32VW553/GD32VW55X_Wifi_BLE_SDK/GD32VW55x_RELEASE_V1.0.2/MSDK/plf/src/init_rom_symbol.c:155
        mbedtls_mpi_mul_mpi_fn = (void *)0x0bf6ead6;
 800256c:	9291aa23          	sw	s1,-1740(gp) # 20000494 <mbedtls_mpi_mul_mpi_fn>
C:/Users/stapi/OneDrive/Desktop/GD32VW553/GD32VW55X_Wifi_BLE_SDK/GD32VW55x_RELEASE_V1.0.2/MSDK/plf/src/init_rom_symbol.c:156
        mbedtls_mpi_read_string_fn = (void *)0x0bf6eaec;
 8002570:	aec80813          	addi	a6,a6,-1300
C:/Users/stapi/OneDrive/Desktop/GD32VW553/GD32VW55X_Wifi_BLE_SDK/GD32VW55x_RELEASE_V1.0.2/MSDK/plf/src/init_rom_symbol.c:158
        mbedtls_rsa_check_privkey_fn = (void *)0x0bf74972;
 8002574:	0bf756b7          	lui	a3,0xbf75
C:/Users/stapi/OneDrive/Desktop/GD32VW553/GD32VW55X_Wifi_BLE_SDK/GD32VW55x_RELEASE_V1.0.2/MSDK/plf/src/init_rom_symbol.c:156
        mbedtls_mpi_read_string_fn = (void *)0x0bf6eaec;
 8002578:	9301ac23          	sw	a6,-1736(gp) # 20000498 <mbedtls_mpi_read_string_fn>
C:/Users/stapi/OneDrive/Desktop/GD32VW553/GD32VW55X_Wifi_BLE_SDK/GD32VW55x_RELEASE_V1.0.2/MSDK/plf/src/init_rom_symbol.c:158
        mbedtls_rsa_check_privkey_fn = (void *)0x0bf74972;
 800257c:	97268413          	addi	s0,a3,-1678 # bf74972 <mbedtls_mpi_mul_mpi_sw+0x6192>
C:/Users/stapi/OneDrive/Desktop/GD32VW553/GD32VW55X_Wifi_BLE_SDK/GD32VW55x_RELEASE_V1.0.2/MSDK/plf/src/init_rom_symbol.c:157
        mbedtls_mpi_write_string_fn = (void *)0x0bf6f304;
 8002580:	93b1ae23          	sw	s11,-1732(gp) # 2000049c <mbedtls_mpi_write_string_fn>
C:/Users/stapi/OneDrive/Desktop/GD32VW553/GD32VW55X_Wifi_BLE_SDK/GD32VW55x_RELEASE_V1.0.2/MSDK/plf/src/init_rom_symbol.c:159
        mbedtls_rsa_check_pub_priv_fn = (void *)0x0bf74c08;
 8002584:	c0868393          	addi	t2,a3,-1016
C:/Users/stapi/OneDrive/Desktop/GD32VW553/GD32VW55X_Wifi_BLE_SDK/GD32VW55x_RELEASE_V1.0.2/MSDK/plf/src/init_rom_symbol.c:158
        mbedtls_rsa_check_privkey_fn = (void *)0x0bf74972;
 8002588:	9481a023          	sw	s0,-1728(gp) # 200004a0 <mbedtls_rsa_check_privkey_fn>
C:/Users/stapi/OneDrive/Desktop/GD32VW553/GD32VW55X_Wifi_BLE_SDK/GD32VW55x_RELEASE_V1.0.2/MSDK/plf/src/init_rom_symbol.c:160
        mbedtls_rsa_check_pubkey_fn = (void *)0x0bf74910;
 800258c:	91068293          	addi	t0,a3,-1776
C:/Users/stapi/OneDrive/Desktop/GD32VW553/GD32VW55X_Wifi_BLE_SDK/GD32VW55x_RELEASE_V1.0.2/MSDK/plf/src/init_rom_symbol.c:159
        mbedtls_rsa_check_pub_priv_fn = (void *)0x0bf74c08;
 8002590:	9471a223          	sw	t2,-1724(gp) # 200004a4 <mbedtls_rsa_check_pub_priv_fn>
C:/Users/stapi/OneDrive/Desktop/GD32VW553/GD32VW55X_Wifi_BLE_SDK/GD32VW55x_RELEASE_V1.0.2/MSDK/plf/src/init_rom_symbol.c:160
        mbedtls_rsa_check_pubkey_fn = (void *)0x0bf74910;
 8002594:	9451a423          	sw	t0,-1720(gp) # 200004a8 <mbedtls_rsa_check_pubkey_fn>
C:/Users/stapi/OneDrive/Desktop/GD32VW553/GD32VW55X_Wifi_BLE_SDK/GD32VW55x_RELEASE_V1.0.2/MSDK/plf/src/init_rom_symbol.c:162
        mbedtls_rsa_copy_fn = (void *)0x0bf76132;
 8002598:	13278f13          	addi	t5,a5,306
C:/Users/stapi/OneDrive/Desktop/GD32VW553/GD32VW55X_Wifi_BLE_SDK/GD32VW55x_RELEASE_V1.0.2/MSDK/plf/src/init_rom_symbol.c:161
        mbedtls_rsa_complete_fn = (void *)0x0bf74490;
 800259c:	95f1a623          	sw	t6,-1716(gp) # 200004ac <mbedtls_rsa_complete_fn>
C:/Users/stapi/OneDrive/Desktop/GD32VW553/GD32VW55X_Wifi_BLE_SDK/GD32VW55x_RELEASE_V1.0.2/MSDK/plf/src/init_rom_symbol.c:162
        mbedtls_rsa_copy_fn = (void *)0x0bf76132;
 80025a0:	95e1a823          	sw	t5,-1712(gp) # 200004b0 <mbedtls_rsa_copy_fn>
C:/Users/stapi/OneDrive/Desktop/GD32VW553/GD32VW55X_Wifi_BLE_SDK/GD32VW55x_RELEASE_V1.0.2/MSDK/plf/src/init_rom_symbol.c:164
        mbedtls_rsa_export_crt_fn = (void *)0x0bf7482a;
 80025a4:	82a68e13          	addi	t3,a3,-2006
C:/Users/stapi/OneDrive/Desktop/GD32VW553/GD32VW55X_Wifi_BLE_SDK/GD32VW55x_RELEASE_V1.0.2/MSDK/plf/src/init_rom_symbol.c:163
        mbedtls_rsa_export_fn = (void *)0x0bf74728;
 80025a8:	95d1ac23          	sw	t4,-1704(gp) # 200004b8 <mbedtls_rsa_export_fn>
C:/Users/stapi/OneDrive/Desktop/GD32VW553/GD32VW55X_Wifi_BLE_SDK/GD32VW55x_RELEASE_V1.0.2/MSDK/plf/src/init_rom_symbol.c:164
        mbedtls_rsa_export_crt_fn = (void *)0x0bf7482a;
 80025ac:	95c1aa23          	sw	t3,-1708(gp) # 200004b4 <mbedtls_rsa_export_crt_fn>
C:/Users/stapi/OneDrive/Desktop/GD32VW553/GD32VW55X_Wifi_BLE_SDK/GD32VW55x_RELEASE_V1.0.2/MSDK/plf/src/init_rom_symbol.c:166
        mbedtls_rsa_free_fn = (void *)0x0bf7623c;
 80025b0:	0bf765b7          	lui	a1,0xbf76
C:/Users/stapi/OneDrive/Desktop/GD32VW553/GD32VW55X_Wifi_BLE_SDK/GD32VW55x_RELEASE_V1.0.2/MSDK/plf/src/init_rom_symbol.c:165
        mbedtls_rsa_export_raw_fn = (void *)0x0bf745f0;
 80025b4:	9461ae23          	sw	t1,-1700(gp) # 200004bc <mbedtls_rsa_export_raw_fn>
C:/Users/stapi/OneDrive/Desktop/GD32VW553/GD32VW55X_Wifi_BLE_SDK/GD32VW55x_RELEASE_V1.0.2/MSDK/plf/src/init_rom_symbol.c:166
        mbedtls_rsa_free_fn = (void *)0x0bf7623c;
 80025b8:	23c58593          	addi	a1,a1,572 # bf7623c <mbedtls_mpi_mul_mpi_sw+0x7a5c>
C:/Users/stapi/OneDrive/Desktop/GD32VW553/GD32VW55X_Wifi_BLE_SDK/GD32VW55x_RELEASE_V1.0.2/MSDK/plf/src/init_rom_symbol.c:167
        mbedtls_rsa_gen_key_fn = (void *)0x0bf749e2;
 80025bc:	9e268613          	addi	a2,a3,-1566
C:/Users/stapi/OneDrive/Desktop/GD32VW553/GD32VW55X_Wifi_BLE_SDK/GD32VW55x_RELEASE_V1.0.2/MSDK/plf/src/init_rom_symbol.c:166
        mbedtls_rsa_free_fn = (void *)0x0bf7623c;
 80025c0:	96b1a023          	sw	a1,-1696(gp) # 200004c0 <mbedtls_rsa_free_fn>
C:/Users/stapi/OneDrive/Desktop/GD32VW553/GD32VW55X_Wifi_BLE_SDK/GD32VW55x_RELEASE_V1.0.2/MSDK/plf/src/init_rom_symbol.c:170
        mbedtls_rsa_import_raw_fn = (void *)0x0bf743f6;
 80025c4:	4532                	lw	a0,12(sp)
C:/Users/stapi/OneDrive/Desktop/GD32VW553/GD32VW55X_Wifi_BLE_SDK/GD32VW55x_RELEASE_V1.0.2/MSDK/plf/src/init_rom_symbol.c:168
        mbedtls_rsa_get_len_fn = (void *)0x0bf7490c;
 80025c6:	90c68c93          	addi	s9,a3,-1780
C:/Users/stapi/OneDrive/Desktop/GD32VW553/GD32VW55X_Wifi_BLE_SDK/GD32VW55x_RELEASE_V1.0.2/MSDK/plf/src/init_rom_symbol.c:167
        mbedtls_rsa_gen_key_fn = (void *)0x0bf749e2;
 80025ca:	96c1a223          	sw	a2,-1692(gp) # 200004c4 <mbedtls_rsa_gen_key_fn>
C:/Users/stapi/OneDrive/Desktop/GD32VW553/GD32VW55X_Wifi_BLE_SDK/GD32VW55x_RELEASE_V1.0.2/MSDK/plf/src/init_rom_symbol.c:168
        mbedtls_rsa_get_len_fn = (void *)0x0bf7490c;
 80025ce:	9791a423          	sw	s9,-1688(gp) # 200004c8 <mbedtls_rsa_get_len_fn>
C:/Users/stapi/OneDrive/Desktop/GD32VW553/GD32VW55X_Wifi_BLE_SDK/GD32VW55x_RELEASE_V1.0.2/MSDK/plf/src/init_rom_symbol.c:171
        mbedtls_rsa_init_fn = (void *)0x0bf748d4;
 80025d2:	0bf755b7          	lui	a1,0xbf75
C:/Users/stapi/OneDrive/Desktop/GD32VW553/GD32VW55X_Wifi_BLE_SDK/GD32VW55x_RELEASE_V1.0.2/MSDK/plf/src/init_rom_symbol.c:169
        mbedtls_rsa_import_fn = (void *)0x0bf74364;
 80025d6:	97a1a623          	sw	s10,-1684(gp) # 200004cc <mbedtls_rsa_import_fn>
C:/Users/stapi/OneDrive/Desktop/GD32VW553/GD32VW55X_Wifi_BLE_SDK/GD32VW55x_RELEASE_V1.0.2/MSDK/plf/src/init_rom_symbol.c:170
        mbedtls_rsa_import_raw_fn = (void *)0x0bf743f6;
 80025da:	96a1a823          	sw	a0,-1680(gp) # 200004d0 <mbedtls_rsa_import_raw_fn>
C:/Users/stapi/OneDrive/Desktop/GD32VW553/GD32VW55X_Wifi_BLE_SDK/GD32VW55x_RELEASE_V1.0.2/MSDK/plf/src/init_rom_symbol.c:171
        mbedtls_rsa_init_fn = (void *)0x0bf748d4;
 80025de:	8d458513          	addi	a0,a1,-1836 # bf748d4 <mbedtls_mpi_mul_mpi_sw+0x60f4>
 80025e2:	96a1aa23          	sw	a0,-1676(gp) # 200004d4 <mbedtls_rsa_init_fn>
C:/Users/stapi/OneDrive/Desktop/GD32VW553/GD32VW55X_Wifi_BLE_SDK/GD32VW55x_RELEASE_V1.0.2/MSDK/plf/src/init_rom_symbol.c:172
        mbedtls_rsa_pkcs1_decrypt_fn = (void *)0x0bf75a32;
 80025e6:	0bf76537          	lui	a0,0xbf76
 80025ea:	a3250413          	addi	s0,a0,-1486 # bf75a32 <mbedtls_mpi_mul_mpi_sw+0x7252>
 80025ee:	9681ac23          	sw	s0,-1672(gp) # 200004d8 <mbedtls_rsa_pkcs1_decrypt_fn>
C:/Users/stapi/OneDrive/Desktop/GD32VW553/GD32VW55X_Wifi_BLE_SDK/GD32VW55x_RELEASE_V1.0.2/MSDK/plf/src/init_rom_symbol.c:173
        mbedtls_rsa_pkcs1_encrypt_fn = (void *)0x0bf75574;
 80025f2:	57458413          	addi	s0,a1,1396
 80025f6:	9681ae23          	sw	s0,-1668(gp) # 200004dc <mbedtls_rsa_pkcs1_encrypt_fn>
C:/Users/stapi/OneDrive/Desktop/GD32VW553/GD32VW55X_Wifi_BLE_SDK/GD32VW55x_RELEASE_V1.0.2/MSDK/plf/src/init_rom_symbol.c:174
        mbedtls_rsa_pkcs1_sign_fn = (void *)0x0bf75d64;
 80025fa:	d6450413          	addi	s0,a0,-668
 80025fe:	9881a023          	sw	s0,-1664(gp) # 200004e0 <mbedtls_rsa_pkcs1_sign_fn>
C:/Users/stapi/OneDrive/Desktop/GD32VW553/GD32VW55X_Wifi_BLE_SDK/GD32VW55x_RELEASE_V1.0.2/MSDK/plf/src/init_rom_symbol.c:175
        mbedtls_rsa_pkcs1_verify_fn = (void *)0x0bf760d4;
 8002602:	0d450513          	addi	a0,a0,212
 8002606:	98a1a223          	sw	a0,-1660(gp) # 200004e4 <mbedtls_rsa_pkcs1_verify_fn>
C:/Users/stapi/OneDrive/Desktop/GD32VW553/GD32VW55X_Wifi_BLE_SDK/GD32VW55x_RELEASE_V1.0.2/MSDK/plf/src/init_rom_symbol.c:178
        mbedtls_rsa_private_fn = (void *)0x0bf752ce;
        mbedtls_rsa_private_sw_fn = (void *)0x0bf74da8;
        mbedtls_rsa_public_fn = (void *)0x0bf74c50;
 800260a:	c5068a93          	addi	s5,a3,-944
C:/Users/stapi/OneDrive/Desktop/GD32VW553/GD32VW55X_Wifi_BLE_SDK/GD32VW55x_RELEASE_V1.0.2/MSDK/plf/src/init_rom_symbol.c:176
        mbedtls_rsa_private_fn = (void *)0x0bf752ce;
 800260e:	2ce58513          	addi	a0,a1,718
 8002612:	98a1a423          	sw	a0,-1656(gp) # 200004e8 <mbedtls_rsa_private_fn>
C:/Users/stapi/OneDrive/Desktop/GD32VW553/GD32VW55X_Wifi_BLE_SDK/GD32VW55x_RELEASE_V1.0.2/MSDK/plf/src/init_rom_symbol.c:179
        mbedtls_rsa_rsaes_oaep_decrypt_fn = (void *)0x0bf755a8;
 8002616:	5a868a13          	addi	s4,a3,1448
C:/Users/stapi/OneDrive/Desktop/GD32VW553/GD32VW55X_Wifi_BLE_SDK/GD32VW55x_RELEASE_V1.0.2/MSDK/plf/src/init_rom_symbol.c:178
        mbedtls_rsa_public_fn = (void *)0x0bf74c50;
 800261a:	9951a823          	sw	s5,-1648(gp) # 200004f0 <mbedtls_rsa_public_fn>
C:/Users/stapi/OneDrive/Desktop/GD32VW553/GD32VW55X_Wifi_BLE_SDK/GD32VW55x_RELEASE_V1.0.2/MSDK/plf/src/init_rom_symbol.c:180
        mbedtls_rsa_rsaes_oaep_encrypt_fn = (void *)0x0bf752e2;
 800261e:	2e268993          	addi	s3,a3,738
C:/Users/stapi/OneDrive/Desktop/GD32VW553/GD32VW55X_Wifi_BLE_SDK/GD32VW55x_RELEASE_V1.0.2/MSDK/plf/src/init_rom_symbol.c:179
        mbedtls_rsa_rsaes_oaep_decrypt_fn = (void *)0x0bf755a8;
 8002622:	9941aa23          	sw	s4,-1644(gp) # 200004f4 <mbedtls_rsa_rsaes_oaep_decrypt_fn>
C:/Users/stapi/OneDrive/Desktop/GD32VW553/GD32VW55X_Wifi_BLE_SDK/GD32VW55x_RELEASE_V1.0.2/MSDK/plf/src/init_rom_symbol.c:181
        mbedtls_rsa_rsaes_pkcs1_v15_decrypt_fn = (void *)0x0bf757da;
 8002626:	7da68913          	addi	s2,a3,2010
C:/Users/stapi/OneDrive/Desktop/GD32VW553/GD32VW55X_Wifi_BLE_SDK/GD32VW55x_RELEASE_V1.0.2/MSDK/plf/src/init_rom_symbol.c:180
        mbedtls_rsa_rsaes_oaep_encrypt_fn = (void *)0x0bf752e2;
 800262a:	9931ac23          	sw	s3,-1640(gp) # 200004f8 <mbedtls_rsa_rsaes_oaep_encrypt_fn>
C:/Users/stapi/OneDrive/Desktop/GD32VW553/GD32VW55X_Wifi_BLE_SDK/GD32VW55x_RELEASE_V1.0.2/MSDK/plf/src/init_rom_symbol.c:182
        mbedtls_rsa_rsaes_pkcs1_v15_encrypt_fn = (void *)0x0bf75448;
 800262e:	44868493          	addi	s1,a3,1096
C:/Users/stapi/OneDrive/Desktop/GD32VW553/GD32VW55X_Wifi_BLE_SDK/GD32VW55x_RELEASE_V1.0.2/MSDK/plf/src/init_rom_symbol.c:181
        mbedtls_rsa_rsaes_pkcs1_v15_decrypt_fn = (void *)0x0bf757da;
 8002632:	9921ae23          	sw	s2,-1636(gp) # 200004fc <mbedtls_rsa_rsaes_pkcs1_v15_decrypt_fn>
C:/Users/stapi/OneDrive/Desktop/GD32VW553/GD32VW55X_Wifi_BLE_SDK/GD32VW55x_RELEASE_V1.0.2/MSDK/plf/src/init_rom_symbol.c:183
        mbedtls_rsa_rsassa_pkcs1_v15_sign_fn = (void *)0x0bf75c56;
 8002636:	c5678413          	addi	s0,a5,-938
C:/Users/stapi/OneDrive/Desktop/GD32VW553/GD32VW55X_Wifi_BLE_SDK/GD32VW55x_RELEASE_V1.0.2/MSDK/plf/src/init_rom_symbol.c:182
        mbedtls_rsa_rsaes_pkcs1_v15_encrypt_fn = (void *)0x0bf75448;
 800263a:	9a91a023          	sw	s1,-1632(gp) # 20000500 <mbedtls_rsa_rsaes_pkcs1_v15_encrypt_fn>
C:/Users/stapi/OneDrive/Desktop/GD32VW553/GD32VW55X_Wifi_BLE_SDK/GD32VW55x_RELEASE_V1.0.2/MSDK/plf/src/init_rom_symbol.c:184
        mbedtls_rsa_rsassa_pkcs1_v15_verify_fn = (void *)0x0bf75fca;
 800263e:	fca78393          	addi	t2,a5,-54
C:/Users/stapi/OneDrive/Desktop/GD32VW553/GD32VW55X_Wifi_BLE_SDK/GD32VW55x_RELEASE_V1.0.2/MSDK/plf/src/init_rom_symbol.c:183
        mbedtls_rsa_rsassa_pkcs1_v15_sign_fn = (void *)0x0bf75c56;
 8002642:	9a81a223          	sw	s0,-1628(gp) # 20000504 <mbedtls_rsa_rsassa_pkcs1_v15_sign_fn>
C:/Users/stapi/OneDrive/Desktop/GD32VW553/GD32VW55X_Wifi_BLE_SDK/GD32VW55x_RELEASE_V1.0.2/MSDK/plf/src/init_rom_symbol.c:185
        mbedtls_rsa_rsassa_pss_sign_fn = (void *)0x0bf75a6c;
 8002646:	a6c78293          	addi	t0,a5,-1428
C:/Users/stapi/OneDrive/Desktop/GD32VW553/GD32VW55X_Wifi_BLE_SDK/GD32VW55x_RELEASE_V1.0.2/MSDK/plf/src/init_rom_symbol.c:184
        mbedtls_rsa_rsassa_pkcs1_v15_verify_fn = (void *)0x0bf75fca;
 800264a:	9a71a423          	sw	t2,-1624(gp) # 20000508 <mbedtls_rsa_rsassa_pkcs1_v15_verify_fn>
C:/Users/stapi/OneDrive/Desktop/GD32VW553/GD32VW55X_Wifi_BLE_SDK/GD32VW55x_RELEASE_V1.0.2/MSDK/plf/src/init_rom_symbol.c:186
        mbedtls_rsa_rsassa_pss_verify_fn = (void *)0x0bf75faa;
 800264e:	faa78f93          	addi	t6,a5,-86
C:/Users/stapi/OneDrive/Desktop/GD32VW553/GD32VW55X_Wifi_BLE_SDK/GD32VW55x_RELEASE_V1.0.2/MSDK/plf/src/init_rom_symbol.c:185
        mbedtls_rsa_rsassa_pss_sign_fn = (void *)0x0bf75a6c;
 8002652:	9a51a623          	sw	t0,-1620(gp) # 2000050c <mbedtls_rsa_rsassa_pss_sign_fn>
C:/Users/stapi/OneDrive/Desktop/GD32VW553/GD32VW55X_Wifi_BLE_SDK/GD32VW55x_RELEASE_V1.0.2/MSDK/plf/src/init_rom_symbol.c:187
        mbedtls_rsa_rsassa_pss_verify_ext_fn = (void *)0x0bf75d82;
 8002656:	d8278f13          	addi	t5,a5,-638
C:/Users/stapi/OneDrive/Desktop/GD32VW553/GD32VW55X_Wifi_BLE_SDK/GD32VW55x_RELEASE_V1.0.2/MSDK/plf/src/init_rom_symbol.c:186
        mbedtls_rsa_rsassa_pss_verify_fn = (void *)0x0bf75faa;
 800265a:	9bf1aa23          	sw	t6,-1612(gp) # 20000514 <mbedtls_rsa_rsassa_pss_verify_fn>
C:/Users/stapi/OneDrive/Desktop/GD32VW553/GD32VW55X_Wifi_BLE_SDK/GD32VW55x_RELEASE_V1.0.2/MSDK/plf/src/init_rom_symbol.c:187
        mbedtls_rsa_rsassa_pss_verify_ext_fn = (void *)0x0bf75d82;
 800265e:	9be1a823          	sw	t5,-1616(gp) # 20000510 <mbedtls_rsa_rsassa_pss_verify_ext_fn>
C:/Users/stapi/OneDrive/Desktop/GD32VW553/GD32VW55X_Wifi_BLE_SDK/GD32VW55x_RELEASE_V1.0.2/MSDK/plf/src/init_rom_symbol.c:188
        mbedtls_rsa_set_padding_fn = (void *)0x0bf74902;
 8002662:	90268693          	addi	a3,a3,-1790
C:/Users/stapi/OneDrive/Desktop/GD32VW553/GD32VW55X_Wifi_BLE_SDK/GD32VW55x_RELEASE_V1.0.2/MSDK/plf/src/init_rom_symbol.c:189
        mbedtls_sha256_clone_fn = (void *)0x0bf767b0;
 8002666:	7b078e13          	addi	t3,a5,1968
C:/Users/stapi/OneDrive/Desktop/GD32VW553/GD32VW55X_Wifi_BLE_SDK/GD32VW55x_RELEASE_V1.0.2/MSDK/plf/src/init_rom_symbol.c:188
        mbedtls_rsa_set_padding_fn = (void *)0x0bf74902;
 800266a:	9ad1ac23          	sw	a3,-1608(gp) # 20000518 <mbedtls_rsa_set_padding_fn>
C:/Users/stapi/OneDrive/Desktop/GD32VW553/GD32VW55X_Wifi_BLE_SDK/GD32VW55x_RELEASE_V1.0.2/MSDK/plf/src/init_rom_symbol.c:190
        mbedtls_sha256_finish_fn = (void *)0x0bf7686a;
 800266e:	86a70313          	addi	t1,a4,-1942
C:/Users/stapi/OneDrive/Desktop/GD32VW553/GD32VW55X_Wifi_BLE_SDK/GD32VW55x_RELEASE_V1.0.2/MSDK/plf/src/init_rom_symbol.c:189
        mbedtls_sha256_clone_fn = (void *)0x0bf767b0;
 8002672:	9bc1ae23          	sw	t3,-1604(gp) # 2000051c <mbedtls_sha256_clone_fn>
C:/Users/stapi/OneDrive/Desktop/GD32VW553/GD32VW55X_Wifi_BLE_SDK/GD32VW55x_RELEASE_V1.0.2/MSDK/plf/src/init_rom_symbol.c:191
        mbedtls_sha256_finish_ret_fn = (void *)0x0bf76842;
 8002676:	84270893          	addi	a7,a4,-1982
C:/Users/stapi/OneDrive/Desktop/GD32VW553/GD32VW55X_Wifi_BLE_SDK/GD32VW55x_RELEASE_V1.0.2/MSDK/plf/src/init_rom_symbol.c:190
        mbedtls_sha256_finish_fn = (void *)0x0bf7686a;
 800267a:	9c61a023          	sw	t1,-1600(gp) # 20000520 <mbedtls_sha256_finish_fn>
C:/Users/stapi/OneDrive/Desktop/GD32VW553/GD32VW55X_Wifi_BLE_SDK/GD32VW55x_RELEASE_V1.0.2/MSDK/plf/src/init_rom_symbol.c:192
        mbedtls_sha256_free_fn = (void *)0x0bf7679e;
 800267e:	79e78813          	addi	a6,a5,1950
C:/Users/stapi/OneDrive/Desktop/GD32VW553/GD32VW55X_Wifi_BLE_SDK/GD32VW55x_RELEASE_V1.0.2/MSDK/plf/src/init_rom_symbol.c:191
        mbedtls_sha256_finish_ret_fn = (void *)0x0bf76842;
 8002682:	9d11a223          	sw	a7,-1596(gp) # 20000524 <mbedtls_sha256_finish_ret_fn>
C:/Users/stapi/OneDrive/Desktop/GD32VW553/GD32VW55X_Wifi_BLE_SDK/GD32VW55x_RELEASE_V1.0.2/MSDK/plf/src/init_rom_symbol.c:193
        mbedtls_sha256_init_fn = (void *)0x0bf7679a;
 8002686:	79a78513          	addi	a0,a5,1946
C:/Users/stapi/OneDrive/Desktop/GD32VW553/GD32VW55X_Wifi_BLE_SDK/GD32VW55x_RELEASE_V1.0.2/MSDK/plf/src/init_rom_symbol.c:192
        mbedtls_sha256_free_fn = (void *)0x0bf7679e;
 800268a:	9d01a423          	sw	a6,-1592(gp) # 20000528 <mbedtls_sha256_free_fn>
C:/Users/stapi/OneDrive/Desktop/GD32VW553/GD32VW55X_Wifi_BLE_SDK/GD32VW55x_RELEASE_V1.0.2/MSDK/plf/src/init_rom_symbol.c:177
        mbedtls_rsa_private_sw_fn = (void *)0x0bf74da8;
 800268e:	da858593          	addi	a1,a1,-600
 8002692:	98b1a623          	sw	a1,-1652(gp) # 200004ec <mbedtls_rsa_private_sw_fn>
C:/Users/stapi/OneDrive/Desktop/GD32VW553/GD32VW55X_Wifi_BLE_SDK/GD32VW55x_RELEASE_V1.0.2/MSDK/plf/src/init_rom_symbol.c:193
        mbedtls_sha256_init_fn = (void *)0x0bf7679a;
 8002696:	9ca1a623          	sw	a0,-1588(gp) # 2000052c <mbedtls_sha256_init_fn>
C:/Users/stapi/OneDrive/Desktop/GD32VW553/GD32VW55X_Wifi_BLE_SDK/GD32VW55x_RELEASE_V1.0.2/MSDK/plf/src/init_rom_symbol.c:194
        mbedtls_sha256_starts_fn = (void *)0x0bf767e2;
 800269a:	7e278593          	addi	a1,a5,2018
C:/Users/stapi/OneDrive/Desktop/GD32VW553/GD32VW55X_Wifi_BLE_SDK/GD32VW55x_RELEASE_V1.0.2/MSDK/plf/src/init_rom_symbol.c:195
        mbedtls_sha256_starts_ret_fn = (void *)0x0bf767b8;
 800269e:	7b878613          	addi	a2,a5,1976
C:/Users/stapi/OneDrive/Desktop/GD32VW553/GD32VW55X_Wifi_BLE_SDK/GD32VW55x_RELEASE_V1.0.2/MSDK/plf/src/init_rom_symbol.c:194
        mbedtls_sha256_starts_fn = (void *)0x0bf767e2;
 80026a2:	9cb1a823          	sw	a1,-1584(gp) # 20000530 <mbedtls_sha256_starts_fn>
C:/Users/stapi/OneDrive/Desktop/GD32VW553/GD32VW55X_Wifi_BLE_SDK/GD32VW55x_RELEASE_V1.0.2/MSDK/plf/src/init_rom_symbol.c:195
        mbedtls_sha256_starts_ret_fn = (void *)0x0bf767b8;
 80026a6:	9cc1aa23          	sw	a2,-1580(gp) # 20000534 <mbedtls_sha256_starts_ret_fn>
C:/Users/stapi/OneDrive/Desktop/GD32VW553/GD32VW55X_Wifi_BLE_SDK/GD32VW55x_RELEASE_V1.0.2/MSDK/plf/src/init_rom_symbol.c:196
        mbedtls_sha256_update_fn = (void *)0x0bf76816;
 80026aa:	81670713          	addi	a4,a4,-2026
 80026ae:	9ce1ac23          	sw	a4,-1576(gp) # 20000538 <mbedtls_sha256_update_fn>
C:/Users/stapi/OneDrive/Desktop/GD32VW553/GD32VW55X_Wifi_BLE_SDK/GD32VW55x_RELEASE_V1.0.2/MSDK/plf/src/init_rom_symbol.c:197
        mbedtls_sha256_update_ret_fn = (void *)0x0bf767e6;
 80026b2:	7e678793          	addi	a5,a5,2022
 80026b6:	9cf1ae23          	sw	a5,-1572(gp) # 2000053c <mbedtls_sha256_update_ret_fn>
C:/Users/stapi/OneDrive/Desktop/GD32VW553/GD32VW55X_Wifi_BLE_SDK/GD32VW55x_RELEASE_V1.0.2/MSDK/plf/src/init_rom_symbol.c:331
                        | MBEDTLS_HW_ECDSA_VERIFY
                        | MBEDTLS_HW_ECP_MUL
                        | MBEDTLS_HW_ECP_CHECK
                        | MBEDTLS_HW_MPI_MUL);
#endif /* CONFIG_ASIC_CUT_AUTO */
}
 80026ba:	0141                	addi	sp,sp,16
 80026bc:	0710006f          	j	8002f2c <__riscv_restore_12>
C:/Users/stapi/OneDrive/Desktop/GD32VW553/GD32VW55X_Wifi_BLE_SDK/GD32VW55x_RELEASE_V1.0.2/MSDK/plf/src/init_rom_symbol.c:63
        mbedtls_hwpka_flag_set(0
 80026c0:	07f00513          	li	a0,127
 80026c4:	03f5c097          	auipc	ra,0x3f5c
 80026c8:	54e080e7          	jalr	1358(ra) # bf5ec12 <mbedtls_hwpka_flag_set>
C:/Users/stapi/OneDrive/Desktop/GD32VW553/GD32VW55X_Wifi_BLE_SDK/GD32VW55x_RELEASE_V1.0.2/MSDK/plf/src/init_rom_symbol.c:202
        ecp_supported_curves = (mbedtls_ecp_curve_info *)0x0bf73a7c;
 80026cc:	0bf74737          	lui	a4,0xbf74
C:/Users/stapi/OneDrive/Desktop/GD32VW553/GD32VW55X_Wifi_BLE_SDK/GD32VW55x_RELEASE_V1.0.2/MSDK/plf/src/init_rom_symbol.c:203
        mbedtls_ecdsa_free_fn = (void *)0x0bf71390;
 80026d0:	0bf715b7          	lui	a1,0xbf71
C:/Users/stapi/OneDrive/Desktop/GD32VW553/GD32VW55X_Wifi_BLE_SDK/GD32VW55x_RELEASE_V1.0.2/MSDK/plf/src/init_rom_symbol.c:202
        ecp_supported_curves = (mbedtls_ecp_curve_info *)0x0bf73a7c;
 80026d4:	a7c70313          	addi	t1,a4,-1412 # bf73a7c <mbedtls_mpi_mul_mpi_sw+0x529c>
 80026d8:	200008b7          	lui	a7,0x20000
C:/Users/stapi/OneDrive/Desktop/GD32VW553/GD32VW55X_Wifi_BLE_SDK/GD32VW55x_RELEASE_V1.0.2/MSDK/plf/src/init_rom_symbol.c:203
        mbedtls_ecdsa_free_fn = (void *)0x0bf71390;
 80026dc:	39058293          	addi	t0,a1,912 # bf71390 <mbedtls_mpi_mul_mpi_sw+0x2bb0>
C:/Users/stapi/OneDrive/Desktop/GD32VW553/GD32VW55X_Wifi_BLE_SDK/GD32VW55x_RELEASE_V1.0.2/MSDK/plf/src/init_rom_symbol.c:202
        ecp_supported_curves = (mbedtls_ecp_curve_info *)0x0bf73a7c;
 80026e0:	3668a423          	sw	t1,872(a7) # 20000368 <ecp_supported_curves>
C:/Users/stapi/OneDrive/Desktop/GD32VW553/GD32VW55X_Wifi_BLE_SDK/GD32VW55x_RELEASE_V1.0.2/MSDK/plf/src/init_rom_symbol.c:203
        mbedtls_ecdsa_free_fn = (void *)0x0bf71390;
 80026e4:	200008b7          	lui	a7,0x20000
C:/Users/stapi/OneDrive/Desktop/GD32VW553/GD32VW55X_Wifi_BLE_SDK/GD32VW55x_RELEASE_V1.0.2/MSDK/plf/src/init_rom_symbol.c:204
        mbedtls_ecdsa_from_keypair_fn = (void *)0x0bf7133e;
 80026e8:	33e58393          	addi	t2,a1,830
C:/Users/stapi/OneDrive/Desktop/GD32VW553/GD32VW55X_Wifi_BLE_SDK/GD32VW55x_RELEASE_V1.0.2/MSDK/plf/src/init_rom_symbol.c:203
        mbedtls_ecdsa_free_fn = (void *)0x0bf71390;
 80026ec:	3658a623          	sw	t0,876(a7) # 2000036c <mbedtls_ecdsa_free_fn>
C:/Users/stapi/OneDrive/Desktop/GD32VW553/GD32VW55X_Wifi_BLE_SDK/GD32VW55x_RELEASE_V1.0.2/MSDK/plf/src/init_rom_symbol.c:204
        mbedtls_ecdsa_from_keypair_fn = (void *)0x0bf7133e;
 80026f0:	200008b7          	lui	a7,0x20000
C:/Users/stapi/OneDrive/Desktop/GD32VW553/GD32VW55X_Wifi_BLE_SDK/GD32VW55x_RELEASE_V1.0.2/MSDK/plf/src/init_rom_symbol.c:205
        mbedtls_ecdsa_genkey_fn = (void *)0x0bf71300;
 80026f4:	30058e93          	addi	t4,a1,768
C:/Users/stapi/OneDrive/Desktop/GD32VW553/GD32VW55X_Wifi_BLE_SDK/GD32VW55x_RELEASE_V1.0.2/MSDK/plf/src/init_rom_symbol.c:204
        mbedtls_ecdsa_from_keypair_fn = (void *)0x0bf7133e;
 80026f8:	3678a823          	sw	t2,880(a7) # 20000370 <mbedtls_ecdsa_from_keypair_fn>
C:/Users/stapi/OneDrive/Desktop/GD32VW553/GD32VW55X_Wifi_BLE_SDK/GD32VW55x_RELEASE_V1.0.2/MSDK/plf/src/init_rom_symbol.c:205
        mbedtls_ecdsa_genkey_fn = (void *)0x0bf71300;
 80026fc:	200008b7          	lui	a7,0x20000
C:/Users/stapi/OneDrive/Desktop/GD32VW553/GD32VW55X_Wifi_BLE_SDK/GD32VW55x_RELEASE_V1.0.2/MSDK/plf/src/init_rom_symbol.c:206
        mbedtls_ecdsa_init_fn = (void *)0x0bf7138c;
 8002700:	38c58e13          	addi	t3,a1,908
C:/Users/stapi/OneDrive/Desktop/GD32VW553/GD32VW55X_Wifi_BLE_SDK/GD32VW55x_RELEASE_V1.0.2/MSDK/plf/src/init_rom_symbol.c:205
        mbedtls_ecdsa_genkey_fn = (void *)0x0bf71300;
 8002704:	37d8aa23          	sw	t4,884(a7) # 20000374 <mbedtls_ecdsa_genkey_fn>
C:/Users/stapi/OneDrive/Desktop/GD32VW553/GD32VW55X_Wifi_BLE_SDK/GD32VW55x_RELEASE_V1.0.2/MSDK/plf/src/init_rom_symbol.c:206
        mbedtls_ecdsa_init_fn = (void *)0x0bf7138c;
 8002708:	200008b7          	lui	a7,0x20000
C:/Users/stapi/OneDrive/Desktop/GD32VW553/GD32VW55X_Wifi_BLE_SDK/GD32VW55x_RELEASE_V1.0.2/MSDK/plf/src/init_rom_symbol.c:207
        mbedtls_ecdsa_read_signature_fn = (void *)0x0bf712fa;
 800270c:	2fa58313          	addi	t1,a1,762
C:/Users/stapi/OneDrive/Desktop/GD32VW553/GD32VW55X_Wifi_BLE_SDK/GD32VW55x_RELEASE_V1.0.2/MSDK/plf/src/init_rom_symbol.c:206
        mbedtls_ecdsa_init_fn = (void *)0x0bf7138c;
 8002710:	37c8ac23          	sw	t3,888(a7) # 20000378 <mbedtls_ecdsa_init_fn>
C:/Users/stapi/OneDrive/Desktop/GD32VW553/GD32VW55X_Wifi_BLE_SDK/GD32VW55x_RELEASE_V1.0.2/MSDK/plf/src/init_rom_symbol.c:207
        mbedtls_ecdsa_read_signature_fn = (void *)0x0bf712fa;
 8002714:	200008b7          	lui	a7,0x20000
C:/Users/stapi/OneDrive/Desktop/GD32VW553/GD32VW55X_Wifi_BLE_SDK/GD32VW55x_RELEASE_V1.0.2/MSDK/plf/src/init_rom_symbol.c:208
        mbedtls_ecdsa_read_signature_restartable_fn = (void *)0x0bf71254;
 8002718:	25458293          	addi	t0,a1,596
C:/Users/stapi/OneDrive/Desktop/GD32VW553/GD32VW55X_Wifi_BLE_SDK/GD32VW55x_RELEASE_V1.0.2/MSDK/plf/src/init_rom_symbol.c:207
        mbedtls_ecdsa_read_signature_fn = (void *)0x0bf712fa;
 800271c:	3668ae23          	sw	t1,892(a7) # 2000037c <mbedtls_ecdsa_read_signature_fn>
C:/Users/stapi/OneDrive/Desktop/GD32VW553/GD32VW55X_Wifi_BLE_SDK/GD32VW55x_RELEASE_V1.0.2/MSDK/plf/src/init_rom_symbol.c:208
        mbedtls_ecdsa_read_signature_restartable_fn = (void *)0x0bf71254;
 8002720:	200008b7          	lui	a7,0x20000
C:/Users/stapi/OneDrive/Desktop/GD32VW553/GD32VW55X_Wifi_BLE_SDK/GD32VW55x_RELEASE_V1.0.2/MSDK/plf/src/init_rom_symbol.c:209
        mbedtls_ecdsa_sign_fn = (void *)0x0bf70b6e;
 8002724:	b6e58393          	addi	t2,a1,-1170
C:/Users/stapi/OneDrive/Desktop/GD32VW553/GD32VW55X_Wifi_BLE_SDK/GD32VW55x_RELEASE_V1.0.2/MSDK/plf/src/init_rom_symbol.c:208
        mbedtls_ecdsa_read_signature_restartable_fn = (void *)0x0bf71254;
 8002728:	3858a023          	sw	t0,896(a7) # 20000380 <mbedtls_ecdsa_read_signature_restartable_fn>
C:/Users/stapi/OneDrive/Desktop/GD32VW553/GD32VW55X_Wifi_BLE_SDK/GD32VW55x_RELEASE_V1.0.2/MSDK/plf/src/init_rom_symbol.c:209
        mbedtls_ecdsa_sign_fn = (void *)0x0bf70b6e;
 800272c:	200008b7          	lui	a7,0x20000
C:/Users/stapi/OneDrive/Desktop/GD32VW553/GD32VW55X_Wifi_BLE_SDK/GD32VW55x_RELEASE_V1.0.2/MSDK/plf/src/init_rom_symbol.c:210
        mbedtls_ecdsa_sign_det_fn = (void *)0x0bf70f2e;
 8002730:	f2e58e93          	addi	t4,a1,-210
C:/Users/stapi/OneDrive/Desktop/GD32VW553/GD32VW55X_Wifi_BLE_SDK/GD32VW55x_RELEASE_V1.0.2/MSDK/plf/src/init_rom_symbol.c:209
        mbedtls_ecdsa_sign_fn = (void *)0x0bf70b6e;
 8002734:	3878a423          	sw	t2,904(a7) # 20000388 <mbedtls_ecdsa_sign_fn>
C:/Users/stapi/OneDrive/Desktop/GD32VW553/GD32VW55X_Wifi_BLE_SDK/GD32VW55x_RELEASE_V1.0.2/MSDK/plf/src/init_rom_symbol.c:210
        mbedtls_ecdsa_sign_det_fn = (void *)0x0bf70f2e;
 8002738:	200008b7          	lui	a7,0x20000
C:/Users/stapi/OneDrive/Desktop/GD32VW553/GD32VW55X_Wifi_BLE_SDK/GD32VW55x_RELEASE_V1.0.2/MSDK/plf/src/init_rom_symbol.c:211
        mbedtls_ecdsa_verify_fn = (void *)0x0bf70f32;
 800273c:	f3258e13          	addi	t3,a1,-206
C:/Users/stapi/OneDrive/Desktop/GD32VW553/GD32VW55X_Wifi_BLE_SDK/GD32VW55x_RELEASE_V1.0.2/MSDK/plf/src/init_rom_symbol.c:210
        mbedtls_ecdsa_sign_det_fn = (void *)0x0bf70f2e;
 8002740:	39d8a223          	sw	t4,900(a7) # 20000384 <mbedtls_ecdsa_sign_det_fn>
C:/Users/stapi/OneDrive/Desktop/GD32VW553/GD32VW55X_Wifi_BLE_SDK/GD32VW55x_RELEASE_V1.0.2/MSDK/plf/src/init_rom_symbol.c:211
        mbedtls_ecdsa_verify_fn = (void *)0x0bf70f32;
 8002744:	200008b7          	lui	a7,0x20000
C:/Users/stapi/OneDrive/Desktop/GD32VW553/GD32VW55X_Wifi_BLE_SDK/GD32VW55x_RELEASE_V1.0.2/MSDK/plf/src/init_rom_symbol.c:212
        mbedtls_ecdsa_write_signature_fn = (void *)0x0bf71224;
 8002748:	22458313          	addi	t1,a1,548
C:/Users/stapi/OneDrive/Desktop/GD32VW553/GD32VW55X_Wifi_BLE_SDK/GD32VW55x_RELEASE_V1.0.2/MSDK/plf/src/init_rom_symbol.c:211
        mbedtls_ecdsa_verify_fn = (void *)0x0bf70f32;
 800274c:	39c8a623          	sw	t3,908(a7) # 2000038c <mbedtls_ecdsa_verify_fn>
C:/Users/stapi/OneDrive/Desktop/GD32VW553/GD32VW55X_Wifi_BLE_SDK/GD32VW55x_RELEASE_V1.0.2/MSDK/plf/src/init_rom_symbol.c:212
        mbedtls_ecdsa_write_signature_fn = (void *)0x0bf71224;
 8002750:	200008b7          	lui	a7,0x20000
C:/Users/stapi/OneDrive/Desktop/GD32VW553/GD32VW55X_Wifi_BLE_SDK/GD32VW55x_RELEASE_V1.0.2/MSDK/plf/src/init_rom_symbol.c:213
        mbedtls_ecdsa_write_signature_det_fn = (void *)0x0bf71234;
 8002754:	23458293          	addi	t0,a1,564
C:/Users/stapi/OneDrive/Desktop/GD32VW553/GD32VW55X_Wifi_BLE_SDK/GD32VW55x_RELEASE_V1.0.2/MSDK/plf/src/init_rom_symbol.c:212
        mbedtls_ecdsa_write_signature_fn = (void *)0x0bf71224;
 8002758:	3868aa23          	sw	t1,916(a7) # 20000394 <mbedtls_ecdsa_write_signature_fn>
C:/Users/stapi/OneDrive/Desktop/GD32VW553/GD32VW55X_Wifi_BLE_SDK/GD32VW55x_RELEASE_V1.0.2/MSDK/plf/src/init_rom_symbol.c:213
        mbedtls_ecdsa_write_signature_det_fn = (void *)0x0bf71234;
 800275c:	200008b7          	lui	a7,0x20000
C:/Users/stapi/OneDrive/Desktop/GD32VW553/GD32VW55X_Wifi_BLE_SDK/GD32VW55x_RELEASE_V1.0.2/MSDK/plf/src/init_rom_symbol.c:215
        mbedtls_ecp_check_privkey_fn = (void *)0x0bf72a0e;
 8002760:	0bf73637          	lui	a2,0xbf73
C:/Users/stapi/OneDrive/Desktop/GD32VW553/GD32VW55X_Wifi_BLE_SDK/GD32VW55x_RELEASE_V1.0.2/MSDK/plf/src/init_rom_symbol.c:213
        mbedtls_ecdsa_write_signature_det_fn = (void *)0x0bf71234;
 8002764:	3858a823          	sw	t0,912(a7) # 20000390 <mbedtls_ecdsa_write_signature_det_fn>
C:/Users/stapi/OneDrive/Desktop/GD32VW553/GD32VW55X_Wifi_BLE_SDK/GD32VW55x_RELEASE_V1.0.2/MSDK/plf/src/init_rom_symbol.c:214
        mbedtls_ecdsa_write_signature_restartable_fn = (void *)0x0bf7115e;
 8002768:	15e58593          	addi	a1,a1,350
 800276c:	200002b7          	lui	t0,0x20000
C:/Users/stapi/OneDrive/Desktop/GD32VW553/GD32VW55X_Wifi_BLE_SDK/GD32VW55x_RELEASE_V1.0.2/MSDK/plf/src/init_rom_symbol.c:218
        mbedtls_ecp_copy_fn = (void *)0x0bf71f42;
 8002770:	0bf726b7          	lui	a3,0xbf72
C:/Users/stapi/OneDrive/Desktop/GD32VW553/GD32VW55X_Wifi_BLE_SDK/GD32VW55x_RELEASE_V1.0.2/MSDK/plf/src/init_rom_symbol.c:215
        mbedtls_ecp_check_privkey_fn = (void *)0x0bf72a0e;
 8002774:	a0e60f93          	addi	t6,a2,-1522 # bf72a0e <mbedtls_mpi_mul_mpi_sw+0x422e>
C:/Users/stapi/OneDrive/Desktop/GD32VW553/GD32VW55X_Wifi_BLE_SDK/GD32VW55x_RELEASE_V1.0.2/MSDK/plf/src/init_rom_symbol.c:214
        mbedtls_ecdsa_write_signature_restartable_fn = (void *)0x0bf7115e;
 8002778:	38b2ac23          	sw	a1,920(t0) # 20000398 <mbedtls_ecdsa_write_signature_restartable_fn>
C:/Users/stapi/OneDrive/Desktop/GD32VW553/GD32VW55X_Wifi_BLE_SDK/GD32VW55x_RELEASE_V1.0.2/MSDK/plf/src/init_rom_symbol.c:215
        mbedtls_ecp_check_privkey_fn = (void *)0x0bf72a0e;
 800277c:	200005b7          	lui	a1,0x20000
C:/Users/stapi/OneDrive/Desktop/GD32VW553/GD32VW55X_Wifi_BLE_SDK/GD32VW55x_RELEASE_V1.0.2/MSDK/plf/src/init_rom_symbol.c:218
        mbedtls_ecp_copy_fn = (void *)0x0bf71f42;
 8002780:	f4268f13          	addi	t5,a3,-190 # bf71f42 <mbedtls_mpi_mul_mpi_sw+0x3762>
C:/Users/stapi/OneDrive/Desktop/GD32VW553/GD32VW55X_Wifi_BLE_SDK/GD32VW55x_RELEASE_V1.0.2/MSDK/plf/src/init_rom_symbol.c:215
        mbedtls_ecp_check_privkey_fn = (void *)0x0bf72a0e;
 8002784:	39f5ae23          	sw	t6,924(a1) # 2000039c <mbedtls_ecp_check_privkey_fn>
C:/Users/stapi/OneDrive/Desktop/GD32VW553/GD32VW55X_Wifi_BLE_SDK/GD32VW55x_RELEASE_V1.0.2/MSDK/plf/src/init_rom_symbol.c:219
        mbedtls_ecp_curve_info_from_grp_id_fn = (void *)0x0bf71d4e;
 8002788:	d4e68e93          	addi	t4,a3,-690
C:/Users/stapi/OneDrive/Desktop/GD32VW553/GD32VW55X_Wifi_BLE_SDK/GD32VW55x_RELEASE_V1.0.2/MSDK/plf/src/init_rom_symbol.c:218
        mbedtls_ecp_copy_fn = (void *)0x0bf71f42;
 800278c:	85e1a423          	sw	t5,-1976(gp) # 200003a8 <mbedtls_ecp_copy_fn>
C:/Users/stapi/OneDrive/Desktop/GD32VW553/GD32VW55X_Wifi_BLE_SDK/GD32VW55x_RELEASE_V1.0.2/MSDK/plf/src/init_rom_symbol.c:220
        mbedtls_ecp_curve_info_from_name_fn = (void *)0x0bf71daa;
 8002790:	daa68e13          	addi	t3,a3,-598
C:/Users/stapi/OneDrive/Desktop/GD32VW553/GD32VW55X_Wifi_BLE_SDK/GD32VW55x_RELEASE_V1.0.2/MSDK/plf/src/init_rom_symbol.c:219
        mbedtls_ecp_curve_info_from_grp_id_fn = (void *)0x0bf71d4e;
 8002794:	85d1a623          	sw	t4,-1972(gp) # 200003ac <mbedtls_ecp_curve_info_from_grp_id_fn>
C:/Users/stapi/OneDrive/Desktop/GD32VW553/GD32VW55X_Wifi_BLE_SDK/GD32VW55x_RELEASE_V1.0.2/MSDK/plf/src/init_rom_symbol.c:221
        mbedtls_ecp_curve_info_from_tls_id_fn = (void *)0x0bf71d7a;
 8002798:	d7a68313          	addi	t1,a3,-646
C:/Users/stapi/OneDrive/Desktop/GD32VW553/GD32VW55X_Wifi_BLE_SDK/GD32VW55x_RELEASE_V1.0.2/MSDK/plf/src/init_rom_symbol.c:220
        mbedtls_ecp_curve_info_from_name_fn = (void *)0x0bf71daa;
 800279c:	85c1a823          	sw	t3,-1968(gp) # 200003b0 <mbedtls_ecp_curve_info_from_name_fn>
C:/Users/stapi/OneDrive/Desktop/GD32VW553/GD32VW55X_Wifi_BLE_SDK/GD32VW55x_RELEASE_V1.0.2/MSDK/plf/src/init_rom_symbol.c:222
        mbedtls_ecp_curve_list_fn = (void *)0x0bf71cda;
 80027a0:	cda68893          	addi	a7,a3,-806
C:/Users/stapi/OneDrive/Desktop/GD32VW553/GD32VW55X_Wifi_BLE_SDK/GD32VW55x_RELEASE_V1.0.2/MSDK/plf/src/init_rom_symbol.c:221
        mbedtls_ecp_curve_info_from_tls_id_fn = (void *)0x0bf71d7a;
 80027a4:	8461aa23          	sw	t1,-1964(gp) # 200003b4 <mbedtls_ecp_curve_info_from_tls_id_fn>
C:/Users/stapi/OneDrive/Desktop/GD32VW553/GD32VW55X_Wifi_BLE_SDK/GD32VW55x_RELEASE_V1.0.2/MSDK/plf/src/init_rom_symbol.c:227
        mbedtls_ecp_group_copy_fn = (void *)0x0bf71f80;
 80027a8:	f8068293          	addi	t0,a3,-128
C:/Users/stapi/OneDrive/Desktop/GD32VW553/GD32VW55X_Wifi_BLE_SDK/GD32VW55x_RELEASE_V1.0.2/MSDK/plf/src/init_rom_symbol.c:222
        mbedtls_ecp_curve_list_fn = (void *)0x0bf71cda;
 80027ac:	8511ac23          	sw	a7,-1960(gp) # 200003b8 <mbedtls_ecp_curve_list_fn>
C:/Users/stapi/OneDrive/Desktop/GD32VW553/GD32VW55X_Wifi_BLE_SDK/GD32VW55x_RELEASE_V1.0.2/MSDK/plf/src/init_rom_symbol.c:228
        mbedtls_ecp_group_free_fn = (void *)0x0bf71e9c;
 80027b0:	e9c68f93          	addi	t6,a3,-356
C:/Users/stapi/OneDrive/Desktop/GD32VW553/GD32VW55X_Wifi_BLE_SDK/GD32VW55x_RELEASE_V1.0.2/MSDK/plf/src/init_rom_symbol.c:227
        mbedtls_ecp_group_copy_fn = (void *)0x0bf71f80;
 80027b4:	8651a623          	sw	t0,-1940(gp) # 200003cc <mbedtls_ecp_group_copy_fn>
C:/Users/stapi/OneDrive/Desktop/GD32VW553/GD32VW55X_Wifi_BLE_SDK/GD32VW55x_RELEASE_V1.0.2/MSDK/plf/src/init_rom_symbol.c:229
        mbedtls_ecp_group_init_fn = (void *)0x0bf71e14;
 80027b8:	e1468f13          	addi	t5,a3,-492
C:/Users/stapi/OneDrive/Desktop/GD32VW553/GD32VW55X_Wifi_BLE_SDK/GD32VW55x_RELEASE_V1.0.2/MSDK/plf/src/init_rom_symbol.c:228
        mbedtls_ecp_group_free_fn = (void *)0x0bf71e9c;
 80027bc:	87f1a823          	sw	t6,-1936(gp) # 200003d0 <mbedtls_ecp_group_free_fn>
C:/Users/stapi/OneDrive/Desktop/GD32VW553/GD32VW55X_Wifi_BLE_SDK/GD32VW55x_RELEASE_V1.0.2/MSDK/plf/src/init_rom_symbol.c:230
        mbedtls_ecp_grp_id_list_fn = (void *)0x0bf71d02;
 80027c0:	d0268e93          	addi	t4,a3,-766
C:/Users/stapi/OneDrive/Desktop/GD32VW553/GD32VW55X_Wifi_BLE_SDK/GD32VW55x_RELEASE_V1.0.2/MSDK/plf/src/init_rom_symbol.c:229
        mbedtls_ecp_group_init_fn = (void *)0x0bf71e14;
 80027c4:	87e1aa23          	sw	t5,-1932(gp) # 200003d4 <mbedtls_ecp_group_init_fn>
C:/Users/stapi/OneDrive/Desktop/GD32VW553/GD32VW55X_Wifi_BLE_SDK/GD32VW55x_RELEASE_V1.0.2/MSDK/plf/src/init_rom_symbol.c:231
        mbedtls_ecp_is_zero_fn = (void *)0x0bf726b4;
 80027c8:	6b468e13          	addi	t3,a3,1716
C:/Users/stapi/OneDrive/Desktop/GD32VW553/GD32VW55X_Wifi_BLE_SDK/GD32VW55x_RELEASE_V1.0.2/MSDK/plf/src/init_rom_symbol.c:230
        mbedtls_ecp_grp_id_list_fn = (void *)0x0bf71d02;
 80027cc:	87d1ac23          	sw	t4,-1928(gp) # 200003d8 <mbedtls_ecp_grp_id_list_fn>
C:/Users/stapi/OneDrive/Desktop/GD32VW553/GD32VW55X_Wifi_BLE_SDK/GD32VW55x_RELEASE_V1.0.2/MSDK/plf/src/init_rom_symbol.c:232
        mbedtls_ecp_keypair_free_fn = (void *)0x0bf71f1c;
 80027d0:	f1c68313          	addi	t1,a3,-228
C:/Users/stapi/OneDrive/Desktop/GD32VW553/GD32VW55X_Wifi_BLE_SDK/GD32VW55x_RELEASE_V1.0.2/MSDK/plf/src/init_rom_symbol.c:231
        mbedtls_ecp_is_zero_fn = (void *)0x0bf726b4;
 80027d4:	87c1ae23          	sw	t3,-1924(gp) # 200003dc <mbedtls_ecp_is_zero_fn>
C:/Users/stapi/OneDrive/Desktop/GD32VW553/GD32VW55X_Wifi_BLE_SDK/GD32VW55x_RELEASE_V1.0.2/MSDK/plf/src/init_rom_symbol.c:217
        mbedtls_ecp_check_pubkey_fn = (void *)0x0bf72c78;
 80027d8:	c7860293          	addi	t0,a2,-904
C:/Users/stapi/OneDrive/Desktop/GD32VW553/GD32VW55X_Wifi_BLE_SDK/GD32VW55x_RELEASE_V1.0.2/MSDK/plf/src/init_rom_symbol.c:252
        mbedtls_md5_fn = (void *)0x0bf77352;
 80027dc:	0bf77bb7          	lui	s7,0xbf77
C:/Users/stapi/OneDrive/Desktop/GD32VW553/GD32VW55X_Wifi_BLE_SDK/GD32VW55x_RELEASE_V1.0.2/MSDK/plf/src/init_rom_symbol.c:233
        mbedtls_ecp_keypair_init_fn = (void *)0x0bf71e72;
 80027e0:	e7268893          	addi	a7,a3,-398
C:/Users/stapi/OneDrive/Desktop/GD32VW553/GD32VW55X_Wifi_BLE_SDK/GD32VW55x_RELEASE_V1.0.2/MSDK/plf/src/init_rom_symbol.c:232
        mbedtls_ecp_keypair_free_fn = (void *)0x0bf71f1c;
 80027e4:	8861a023          	sw	t1,-1920(gp) # 200003e0 <mbedtls_ecp_keypair_free_fn>
C:/Users/stapi/OneDrive/Desktop/GD32VW553/GD32VW55X_Wifi_BLE_SDK/GD32VW55x_RELEASE_V1.0.2/MSDK/plf/src/init_rom_symbol.c:217
        mbedtls_ecp_check_pubkey_fn = (void *)0x0bf72c78;
 80027e8:	8451a223          	sw	t0,-1980(gp) # 200003a4 <mbedtls_ecp_check_pubkey_fn>
C:/Users/stapi/OneDrive/Desktop/GD32VW553/GD32VW55X_Wifi_BLE_SDK/GD32VW55x_RELEASE_V1.0.2/MSDK/plf/src/init_rom_symbol.c:224
        mbedtls_ecp_gen_keypair_fn = (void *)0x0bf737f2;
 80027ec:	7f260293          	addi	t0,a2,2034
C:/Users/stapi/OneDrive/Desktop/GD32VW553/GD32VW55X_Wifi_BLE_SDK/GD32VW55x_RELEASE_V1.0.2/MSDK/plf/src/init_rom_symbol.c:233
        mbedtls_ecp_keypair_init_fn = (void *)0x0bf71e72;
 80027f0:	8911a223          	sw	a7,-1916(gp) # 200003e4 <mbedtls_ecp_keypair_init_fn>
C:/Users/stapi/OneDrive/Desktop/GD32VW553/GD32VW55X_Wifi_BLE_SDK/GD32VW55x_RELEASE_V1.0.2/MSDK/plf/src/init_rom_symbol.c:252
        mbedtls_md5_fn = (void *)0x0bf77352;
 80027f4:	352b8e13          	addi	t3,s7,850 # bf77352 <mbedtls_mpi_mul_mpi_sw+0x8b72>
C:/Users/stapi/OneDrive/Desktop/GD32VW553/GD32VW55X_Wifi_BLE_SDK/GD32VW55x_RELEASE_V1.0.2/MSDK/plf/src/init_rom_symbol.c:254
        mbedtls_md5_finish_fn = (void *)0x0bf7731c;
 80027f8:	31cb8893          	addi	a7,s7,796
C:/Users/stapi/OneDrive/Desktop/GD32VW553/GD32VW55X_Wifi_BLE_SDK/GD32VW55x_RELEASE_V1.0.2/MSDK/plf/src/init_rom_symbol.c:224
        mbedtls_ecp_gen_keypair_fn = (void *)0x0bf737f2;
 80027fc:	8651a223          	sw	t0,-1948(gp) # 200003c4 <mbedtls_ecp_gen_keypair_fn>
C:/Users/stapi/OneDrive/Desktop/GD32VW553/GD32VW55X_Wifi_BLE_SDK/GD32VW55x_RELEASE_V1.0.2/MSDK/plf/src/init_rom_symbol.c:263
        mbedtls_md5_update_ret_fn = (void *)0x0bf7720c;
 8002800:	20cb8b93          	addi	s7,s7,524
C:/Users/stapi/OneDrive/Desktop/GD32VW553/GD32VW55X_Wifi_BLE_SDK/GD32VW55x_RELEASE_V1.0.2/MSDK/plf/src/init_rom_symbol.c:225
        mbedtls_ecp_gen_keypair_base_fn = (void *)0x0bf73796;
 8002804:	79660293          	addi	t0,a2,1942
 8002808:	8651a023          	sw	t0,-1952(gp) # 200003c0 <mbedtls_ecp_gen_keypair_base_fn>
C:/Users/stapi/OneDrive/Desktop/GD32VW553/GD32VW55X_Wifi_BLE_SDK/GD32VW55x_RELEASE_V1.0.2/MSDK/plf/src/init_rom_symbol.c:263
        mbedtls_md5_update_ret_fn = (void *)0x0bf7720c;
 800280c:	c65e                	sw	s7,12(sp)
C:/Users/stapi/OneDrive/Desktop/GD32VW553/GD32VW55X_Wifi_BLE_SDK/GD32VW55x_RELEASE_V1.0.2/MSDK/plf/src/init_rom_symbol.c:226
        mbedtls_ecp_gen_privkey_fn = (void *)0x0bf72a8c;
 800280e:	a8c60293          	addi	t0,a2,-1396
C:/Users/stapi/OneDrive/Desktop/GD32VW553/GD32VW55X_Wifi_BLE_SDK/GD32VW55x_RELEASE_V1.0.2/MSDK/plf/src/init_rom_symbol.c:216
        mbedtls_ecp_check_pub_priv_fn = (void *)0x0bf73848;
 8002812:	84870c13          	addi	s8,a4,-1976
C:/Users/stapi/OneDrive/Desktop/GD32VW553/GD32VW55X_Wifi_BLE_SDK/GD32VW55x_RELEASE_V1.0.2/MSDK/plf/src/init_rom_symbol.c:226
        mbedtls_ecp_gen_privkey_fn = (void *)0x0bf72a8c;
 8002816:	8651a423          	sw	t0,-1944(gp) # 200003c8 <mbedtls_ecp_gen_privkey_fn>
C:/Users/stapi/OneDrive/Desktop/GD32VW553/GD32VW55X_Wifi_BLE_SDK/GD32VW55x_RELEASE_V1.0.2/MSDK/plf/src/init_rom_symbol.c:234
        mbedtls_ecp_mul_fn = (void *)0x0bf73790;
 800281a:	79060d93          	addi	s11,a2,1936
C:/Users/stapi/OneDrive/Desktop/GD32VW553/GD32VW55X_Wifi_BLE_SDK/GD32VW55x_RELEASE_V1.0.2/MSDK/plf/src/init_rom_symbol.c:216
        mbedtls_ecp_check_pub_priv_fn = (void *)0x0bf73848;
 800281e:	8581a023          	sw	s8,-1984(gp) # 200003a0 <mbedtls_ecp_check_pub_priv_fn>
C:/Users/stapi/OneDrive/Desktop/GD32VW553/GD32VW55X_Wifi_BLE_SDK/GD32VW55x_RELEASE_V1.0.2/MSDK/plf/src/init_rom_symbol.c:223
        mbedtls_ecp_gen_key_fn = (void *)0x0bf73802;
 8002822:	80270c13          	addi	s8,a4,-2046
 8002826:	8581ae23          	sw	s8,-1956(gp) # 200003bc <mbedtls_ecp_gen_key_fn>
C:/Users/stapi/OneDrive/Desktop/GD32VW553/GD32VW55X_Wifi_BLE_SDK/GD32VW55x_RELEASE_V1.0.2/MSDK/plf/src/init_rom_symbol.c:235
        mbedtls_ecp_mul_restartable_fn = (void *)0x0bf72ebc;
 800282a:	ebc60c93          	addi	s9,a2,-324
C:/Users/stapi/OneDrive/Desktop/GD32VW553/GD32VW55X_Wifi_BLE_SDK/GD32VW55x_RELEASE_V1.0.2/MSDK/plf/src/init_rom_symbol.c:234
        mbedtls_ecp_mul_fn = (void *)0x0bf73790;
 800282e:	89b1a423          	sw	s11,-1912(gp) # 200003e8 <mbedtls_ecp_mul_fn>
C:/Users/stapi/OneDrive/Desktop/GD32VW553/GD32VW55X_Wifi_BLE_SDK/GD32VW55x_RELEASE_V1.0.2/MSDK/plf/src/init_rom_symbol.c:236
        mbedtls_ecp_muladd_fn = (void *)0x0bf73a52;
 8002832:	a5270c13          	addi	s8,a4,-1454
C:/Users/stapi/OneDrive/Desktop/GD32VW553/GD32VW55X_Wifi_BLE_SDK/GD32VW55x_RELEASE_V1.0.2/MSDK/plf/src/init_rom_symbol.c:235
        mbedtls_ecp_mul_restartable_fn = (void *)0x0bf72ebc;
 8002836:	8991a623          	sw	s9,-1908(gp) # 200003ec <mbedtls_ecp_mul_restartable_fn>
C:/Users/stapi/OneDrive/Desktop/GD32VW553/GD32VW55X_Wifi_BLE_SDK/GD32VW55x_RELEASE_V1.0.2/MSDK/plf/src/init_rom_symbol.c:237
        mbedtls_ecp_muladd_restartable_fn = (void *)0x0bf73a36;
 800283a:	a3670b93          	addi	s7,a4,-1482
C:/Users/stapi/OneDrive/Desktop/GD32VW553/GD32VW55X_Wifi_BLE_SDK/GD32VW55x_RELEASE_V1.0.2/MSDK/plf/src/init_rom_symbol.c:236
        mbedtls_ecp_muladd_fn = (void *)0x0bf73a52;
 800283e:	8981a823          	sw	s8,-1904(gp) # 200003f0 <mbedtls_ecp_muladd_fn>
C:/Users/stapi/OneDrive/Desktop/GD32VW553/GD32VW55X_Wifi_BLE_SDK/GD32VW55x_RELEASE_V1.0.2/MSDK/plf/src/init_rom_symbol.c:238
        mbedtls_ecp_point_cmp_fn = (void *)0x0bf726ca;
 8002842:	6ca68b13          	addi	s6,a3,1738
C:/Users/stapi/OneDrive/Desktop/GD32VW553/GD32VW55X_Wifi_BLE_SDK/GD32VW55x_RELEASE_V1.0.2/MSDK/plf/src/init_rom_symbol.c:237
        mbedtls_ecp_muladd_restartable_fn = (void *)0x0bf73a36;
 8002846:	8971aa23          	sw	s7,-1900(gp) # 200003f4 <mbedtls_ecp_muladd_restartable_fn>
C:/Users/stapi/OneDrive/Desktop/GD32VW553/GD32VW55X_Wifi_BLE_SDK/GD32VW55x_RELEASE_V1.0.2/MSDK/plf/src/init_rom_symbol.c:239
        mbedtls_ecp_point_free_fn = (void *)0x0bf71e94;
 800284a:	e9468a93          	addi	s5,a3,-364
C:/Users/stapi/OneDrive/Desktop/GD32VW553/GD32VW55X_Wifi_BLE_SDK/GD32VW55x_RELEASE_V1.0.2/MSDK/plf/src/init_rom_symbol.c:238
        mbedtls_ecp_point_cmp_fn = (void *)0x0bf726ca;
 800284e:	8961ac23          	sw	s6,-1896(gp) # 200003f8 <mbedtls_ecp_point_cmp_fn>
C:/Users/stapi/OneDrive/Desktop/GD32VW553/GD32VW55X_Wifi_BLE_SDK/GD32VW55x_RELEASE_V1.0.2/MSDK/plf/src/init_rom_symbol.c:240
        mbedtls_ecp_point_init_fn = (void *)0x0bf71df2;
 8002852:	df268a13          	addi	s4,a3,-526
C:/Users/stapi/OneDrive/Desktop/GD32VW553/GD32VW55X_Wifi_BLE_SDK/GD32VW55x_RELEASE_V1.0.2/MSDK/plf/src/init_rom_symbol.c:239
        mbedtls_ecp_point_free_fn = (void *)0x0bf71e94;
 8002856:	8951ae23          	sw	s5,-1892(gp) # 200003fc <mbedtls_ecp_point_free_fn>
C:/Users/stapi/OneDrive/Desktop/GD32VW553/GD32VW55X_Wifi_BLE_SDK/GD32VW55x_RELEASE_V1.0.2/MSDK/plf/src/init_rom_symbol.c:241
        mbedtls_ecp_point_read_binary_fn = (void *)0x0bf72824;
 800285a:	82460993          	addi	s3,a2,-2012
C:/Users/stapi/OneDrive/Desktop/GD32VW553/GD32VW55X_Wifi_BLE_SDK/GD32VW55x_RELEASE_V1.0.2/MSDK/plf/src/init_rom_symbol.c:240
        mbedtls_ecp_point_init_fn = (void *)0x0bf71df2;
 800285e:	8b41a023          	sw	s4,-1888(gp) # 20000400 <mbedtls_ecp_point_init_fn>
C:/Users/stapi/OneDrive/Desktop/GD32VW553/GD32VW55X_Wifi_BLE_SDK/GD32VW55x_RELEASE_V1.0.2/MSDK/plf/src/init_rom_symbol.c:242
        mbedtls_ecp_point_read_string_fn = (void *)0x0bf72712;
 8002862:	71268913          	addi	s2,a3,1810
C:/Users/stapi/OneDrive/Desktop/GD32VW553/GD32VW55X_Wifi_BLE_SDK/GD32VW55x_RELEASE_V1.0.2/MSDK/plf/src/init_rom_symbol.c:241
        mbedtls_ecp_point_read_binary_fn = (void *)0x0bf72824;
 8002866:	8b31a223          	sw	s3,-1884(gp) # 20000404 <mbedtls_ecp_point_read_binary_fn>
C:/Users/stapi/OneDrive/Desktop/GD32VW553/GD32VW55X_Wifi_BLE_SDK/GD32VW55x_RELEASE_V1.0.2/MSDK/plf/src/init_rom_symbol.c:243
        mbedtls_ecp_point_write_binary_fn = (void *)0x0bf72756;
 800286a:	75668493          	addi	s1,a3,1878
C:/Users/stapi/OneDrive/Desktop/GD32VW553/GD32VW55X_Wifi_BLE_SDK/GD32VW55x_RELEASE_V1.0.2/MSDK/plf/src/init_rom_symbol.c:242
        mbedtls_ecp_point_read_string_fn = (void *)0x0bf72712;
 800286e:	8b21a423          	sw	s2,-1880(gp) # 20000408 <mbedtls_ecp_point_read_string_fn>
C:/Users/stapi/OneDrive/Desktop/GD32VW553/GD32VW55X_Wifi_BLE_SDK/GD32VW55x_RELEASE_V1.0.2/MSDK/plf/src/init_rom_symbol.c:243
        mbedtls_ecp_point_write_binary_fn = (void *)0x0bf72756;
 8002872:	8a91a623          	sw	s1,-1876(gp) # 2000040c <mbedtls_ecp_point_write_binary_fn>
C:/Users/stapi/OneDrive/Desktop/GD32VW553/GD32VW55X_Wifi_BLE_SDK/GD32VW55x_RELEASE_V1.0.2/MSDK/plf/src/init_rom_symbol.c:244
        mbedtls_ecp_set_zero_fn = (void *)0x0bf71f86;
 8002876:	f8668693          	addi	a3,a3,-122
C:/Users/stapi/OneDrive/Desktop/GD32VW553/GD32VW55X_Wifi_BLE_SDK/GD32VW55x_RELEASE_V1.0.2/MSDK/plf/src/init_rom_symbol.c:245
        mbedtls_ecp_tls_read_group_fn = (void *)0x0bf72994;
 800287a:	99460413          	addi	s0,a2,-1644
C:/Users/stapi/OneDrive/Desktop/GD32VW553/GD32VW55X_Wifi_BLE_SDK/GD32VW55x_RELEASE_V1.0.2/MSDK/plf/src/init_rom_symbol.c:244
        mbedtls_ecp_set_zero_fn = (void *)0x0bf71f86;
 800287e:	8ad1a823          	sw	a3,-1872(gp) # 20000410 <mbedtls_ecp_set_zero_fn>
C:/Users/stapi/OneDrive/Desktop/GD32VW553/GD32VW55X_Wifi_BLE_SDK/GD32VW55x_RELEASE_V1.0.2/MSDK/plf/src/init_rom_symbol.c:246
        mbedtls_ecp_tls_read_group_id_fn = (void *)0x0bf7292c;
 8002882:	92c60393          	addi	t2,a2,-1748
C:/Users/stapi/OneDrive/Desktop/GD32VW553/GD32VW55X_Wifi_BLE_SDK/GD32VW55x_RELEASE_V1.0.2/MSDK/plf/src/init_rom_symbol.c:245
        mbedtls_ecp_tls_read_group_fn = (void *)0x0bf72994;
 8002886:	8a81aa23          	sw	s0,-1868(gp) # 20000414 <mbedtls_ecp_tls_read_group_fn>
C:/Users/stapi/OneDrive/Desktop/GD32VW553/GD32VW55X_Wifi_BLE_SDK/GD32VW55x_RELEASE_V1.0.2/MSDK/plf/src/init_rom_symbol.c:247
        mbedtls_ecp_tls_read_point_fn = (void *)0x0bf728c2;
 800288a:	8c260293          	addi	t0,a2,-1854
C:/Users/stapi/OneDrive/Desktop/GD32VW553/GD32VW55X_Wifi_BLE_SDK/GD32VW55x_RELEASE_V1.0.2/MSDK/plf/src/init_rom_symbol.c:246
        mbedtls_ecp_tls_read_group_id_fn = (void *)0x0bf7292c;
 800288e:	8a71ac23          	sw	t2,-1864(gp) # 20000418 <mbedtls_ecp_tls_read_group_id_fn>
C:/Users/stapi/OneDrive/Desktop/GD32VW553/GD32VW55X_Wifi_BLE_SDK/GD32VW55x_RELEASE_V1.0.2/MSDK/plf/src/init_rom_symbol.c:248
        mbedtls_ecp_tls_write_group_fn = (void *)0x0bf729b4;
 8002892:	9b460f93          	addi	t6,a2,-1612
C:/Users/stapi/OneDrive/Desktop/GD32VW553/GD32VW55X_Wifi_BLE_SDK/GD32VW55x_RELEASE_V1.0.2/MSDK/plf/src/init_rom_symbol.c:247
        mbedtls_ecp_tls_read_point_fn = (void *)0x0bf728c2;
 8002896:	8a51ae23          	sw	t0,-1860(gp) # 2000041c <mbedtls_ecp_tls_read_point_fn>
C:/Users/stapi/OneDrive/Desktop/GD32VW553/GD32VW55X_Wifi_BLE_SDK/GD32VW55x_RELEASE_V1.0.2/MSDK/plf/src/init_rom_symbol.c:250
        mbedtls_internal_md5_process_fn = (void *)0x0bf764d6;
 800289a:	0bf767b7          	lui	a5,0xbf76
C:/Users/stapi/OneDrive/Desktop/GD32VW553/GD32VW55X_Wifi_BLE_SDK/GD32VW55x_RELEASE_V1.0.2/MSDK/plf/src/init_rom_symbol.c:248
        mbedtls_ecp_tls_write_group_fn = (void *)0x0bf729b4;
 800289e:	8df1a023          	sw	t6,-1856(gp) # 20000420 <mbedtls_ecp_tls_write_group_fn>
C:/Users/stapi/OneDrive/Desktop/GD32VW553/GD32VW55X_Wifi_BLE_SDK/GD32VW55x_RELEASE_V1.0.2/MSDK/plf/src/init_rom_symbol.c:249
        mbedtls_ecp_tls_write_point_fn = (void *)0x0bf728f6;
 80028a2:	8f660613          	addi	a2,a2,-1802
C:/Users/stapi/OneDrive/Desktop/GD32VW553/GD32VW55X_Wifi_BLE_SDK/GD32VW55x_RELEASE_V1.0.2/MSDK/plf/src/init_rom_symbol.c:250
        mbedtls_internal_md5_process_fn = (void *)0x0bf764d6;
 80028a6:	4d678f13          	addi	t5,a5,1238 # bf764d6 <mbedtls_mpi_mul_mpi_sw+0x7cf6>
C:/Users/stapi/OneDrive/Desktop/GD32VW553/GD32VW55X_Wifi_BLE_SDK/GD32VW55x_RELEASE_V1.0.2/MSDK/plf/src/init_rom_symbol.c:249
        mbedtls_ecp_tls_write_point_fn = (void *)0x0bf728f6;
 80028aa:	8cc1a223          	sw	a2,-1852(gp) # 20000424 <mbedtls_ecp_tls_write_point_fn>
C:/Users/stapi/OneDrive/Desktop/GD32VW553/GD32VW55X_Wifi_BLE_SDK/GD32VW55x_RELEASE_V1.0.2/MSDK/plf/src/init_rom_symbol.c:251
        mbedtls_internal_sha256_process_fn = (void *)0x0bf76312;
 80028ae:	31278e93          	addi	t4,a5,786
C:/Users/stapi/OneDrive/Desktop/GD32VW553/GD32VW55X_Wifi_BLE_SDK/GD32VW55x_RELEASE_V1.0.2/MSDK/plf/src/init_rom_symbol.c:250
        mbedtls_internal_md5_process_fn = (void *)0x0bf764d6;
 80028b2:	8de1a423          	sw	t5,-1848(gp) # 20000428 <mbedtls_internal_md5_process_fn>
C:/Users/stapi/OneDrive/Desktop/GD32VW553/GD32VW55X_Wifi_BLE_SDK/GD32VW55x_RELEASE_V1.0.2/MSDK/plf/src/init_rom_symbol.c:251
        mbedtls_internal_sha256_process_fn = (void *)0x0bf76312;
 80028b6:	8dd1a623          	sw	t4,-1844(gp) # 2000042c <mbedtls_internal_sha256_process_fn>
C:/Users/stapi/OneDrive/Desktop/GD32VW553/GD32VW55X_Wifi_BLE_SDK/GD32VW55x_RELEASE_V1.0.2/MSDK/plf/src/init_rom_symbol.c:253
        mbedtls_md5_clone_fn = (void *)0x0bf76468;
 80028ba:	46878313          	addi	t1,a5,1128
C:/Users/stapi/OneDrive/Desktop/GD32VW553/GD32VW55X_Wifi_BLE_SDK/GD32VW55x_RELEASE_V1.0.2/MSDK/plf/src/init_rom_symbol.c:252
        mbedtls_md5_fn = (void *)0x0bf77352;
 80028be:	8dc1ae23          	sw	t3,-1828(gp) # 2000043c <mbedtls_md5_fn>
C:/Users/stapi/OneDrive/Desktop/GD32VW553/GD32VW55X_Wifi_BLE_SDK/GD32VW55x_RELEASE_V1.0.2/MSDK/plf/src/init_rom_symbol.c:255
        mbedtls_md5_finish_ret_fn = (void *)0x0bf7721e;
 80028c2:	0bf77437          	lui	s0,0xbf77
C:/Users/stapi/OneDrive/Desktop/GD32VW553/GD32VW55X_Wifi_BLE_SDK/GD32VW55x_RELEASE_V1.0.2/MSDK/plf/src/init_rom_symbol.c:253
        mbedtls_md5_clone_fn = (void *)0x0bf76468;
 80028c6:	8c61a823          	sw	t1,-1840(gp) # 20000430 <mbedtls_md5_clone_fn>
C:/Users/stapi/OneDrive/Desktop/GD32VW553/GD32VW55X_Wifi_BLE_SDK/GD32VW55x_RELEASE_V1.0.2/MSDK/plf/src/init_rom_symbol.c:254
        mbedtls_md5_finish_fn = (void *)0x0bf7731c;
 80028ca:	8d11aa23          	sw	a7,-1836(gp) # 20000434 <mbedtls_md5_finish_fn>
C:/Users/stapi/OneDrive/Desktop/GD32VW553/GD32VW55X_Wifi_BLE_SDK/GD32VW55x_RELEASE_V1.0.2/MSDK/plf/src/init_rom_symbol.c:255
        mbedtls_md5_finish_ret_fn = (void *)0x0bf7721e;
 80028ce:	21e40613          	addi	a2,s0,542 # bf7721e <mbedtls_mpi_mul_mpi_sw+0x8a3e>
 80028d2:	8cc1ac23          	sw	a2,-1832(gp) # 20000438 <mbedtls_md5_finish_ret_fn>
C:/Users/stapi/OneDrive/Desktop/GD32VW553/GD32VW55X_Wifi_BLE_SDK/GD32VW55x_RELEASE_V1.0.2/MSDK/plf/src/init_rom_symbol.c:256
        mbedtls_md5_free_fn = (void *)0x0bf7645c;
 80028d6:	0bf76637          	lui	a2,0xbf76
 80028da:	45c60493          	addi	s1,a2,1116 # bf7645c <mbedtls_mpi_mul_mpi_sw+0x7c7c>
 80028de:	8e91a023          	sw	s1,-1824(gp) # 20000440 <mbedtls_md5_free_fn>
C:/Users/stapi/OneDrive/Desktop/GD32VW553/GD32VW55X_Wifi_BLE_SDK/GD32VW55x_RELEASE_V1.0.2/MSDK/plf/src/init_rom_symbol.c:257
        mbedtls_md5_init_fn = (void *)0x0bf76452;
 80028e2:	45260493          	addi	s1,a2,1106
 80028e6:	8e91a223          	sw	s1,-1820(gp) # 20000444 <mbedtls_md5_init_fn>
C:/Users/stapi/OneDrive/Desktop/GD32VW553/GD32VW55X_Wifi_BLE_SDK/GD32VW55x_RELEASE_V1.0.2/MSDK/plf/src/init_rom_symbol.c:258
        mbedtls_md5_process_fn = (void *)0x0bf77208;
 80028ea:	20840493          	addi	s1,s0,520
 80028ee:	8e91a423          	sw	s1,-1816(gp) # 20000448 <mbedtls_md5_process_fn>
C:/Users/stapi/OneDrive/Desktop/GD32VW553/GD32VW55X_Wifi_BLE_SDK/GD32VW55x_RELEASE_V1.0.2/MSDK/plf/src/init_rom_symbol.c:259
        mbedtls_md5_ret_fn = (void *)0x0bf77320;
 80028f2:	32040493          	addi	s1,s0,800
 80028f6:	8e91a623          	sw	s1,-1812(gp) # 2000044c <mbedtls_md5_ret_fn>
C:/Users/stapi/OneDrive/Desktop/GD32VW553/GD32VW55X_Wifi_BLE_SDK/GD32VW55x_RELEASE_V1.0.2/MSDK/plf/src/init_rom_symbol.c:260
        mbedtls_md5_starts_fn = (void *)0x0bf764a4;
 80028fa:	4a460493          	addi	s1,a2,1188
C:/Users/stapi/OneDrive/Desktop/GD32VW553/GD32VW55X_Wifi_BLE_SDK/GD32VW55x_RELEASE_V1.0.2/MSDK/plf/src/init_rom_symbol.c:263
        mbedtls_md5_update_ret_fn = (void *)0x0bf7720c;
 80028fe:	4bb2                	lw	s7,12(sp)
C:/Users/stapi/OneDrive/Desktop/GD32VW553/GD32VW55X_Wifi_BLE_SDK/GD32VW55x_RELEASE_V1.0.2/MSDK/plf/src/init_rom_symbol.c:260
        mbedtls_md5_starts_fn = (void *)0x0bf764a4;
 8002900:	8e91a823          	sw	s1,-1808(gp) # 20000450 <mbedtls_md5_starts_fn>
C:/Users/stapi/OneDrive/Desktop/GD32VW553/GD32VW55X_Wifi_BLE_SDK/GD32VW55x_RELEASE_V1.0.2/MSDK/plf/src/init_rom_symbol.c:261
        mbedtls_md5_starts_ret_fn = (void *)0x0bf76470;
 8002904:	47060493          	addi	s1,a2,1136
 8002908:	8e91aa23          	sw	s1,-1804(gp) # 20000454 <mbedtls_md5_starts_ret_fn>
C:/Users/stapi/OneDrive/Desktop/GD32VW553/GD32VW55X_Wifi_BLE_SDK/GD32VW55x_RELEASE_V1.0.2/MSDK/plf/src/init_rom_symbol.c:262
        mbedtls_md5_update_fn = (void *)0x0bf77216;
 800290c:	21640413          	addi	s0,s0,534
 8002910:	8e81ac23          	sw	s0,-1800(gp) # 20000458 <mbedtls_md5_update_fn>
C:/Users/stapi/OneDrive/Desktop/GD32VW553/GD32VW55X_Wifi_BLE_SDK/GD32VW55x_RELEASE_V1.0.2/MSDK/plf/src/init_rom_symbol.c:264
        mbedtls_mpi_div_int_fn = (void *)0x0bf6f1c6;
 8002914:	0bf6f437          	lui	s0,0xbf6f
 8002918:	0bf6f537          	lui	a0,0xbf6f
C:/Users/stapi/OneDrive/Desktop/GD32VW553/GD32VW55X_Wifi_BLE_SDK/GD32VW55x_RELEASE_V1.0.2/MSDK/plf/src/init_rom_symbol.c:263
        mbedtls_md5_update_ret_fn = (void *)0x0bf7720c;
 800291c:	8f71ae23          	sw	s7,-1796(gp) # 2000045c <mbedtls_md5_update_ret_fn>
C:/Users/stapi/OneDrive/Desktop/GD32VW553/GD32VW55X_Wifi_BLE_SDK/GD32VW55x_RELEASE_V1.0.2/MSDK/plf/src/init_rom_symbol.c:264
        mbedtls_mpi_div_int_fn = (void *)0x0bf6f1c6;
 8002920:	1c640493          	addi	s1,s0,454 # bf6f1c6 <mbedtls_mpi_mul_mpi_sw+0x9e6>
C:/Users/stapi/OneDrive/Desktop/GD32VW553/GD32VW55X_Wifi_BLE_SDK/GD32VW55x_RELEASE_V1.0.2/MSDK/plf/src/init_rom_symbol.c:266
        mbedtls_mpi_exp_mod_fn = (void *)0x0bf6fb18;
 8002924:	0bf70837          	lui	a6,0xbf70
C:/Users/stapi/OneDrive/Desktop/GD32VW553/GD32VW55X_Wifi_BLE_SDK/GD32VW55x_RELEASE_V1.0.2/MSDK/plf/src/init_rom_symbol.c:264
        mbedtls_mpi_div_int_fn = (void *)0x0bf6f1c6;
 8002928:	9091a023          	sw	s1,-1792(gp) # 20000460 <mbedtls_mpi_div_int_fn>
C:/Users/stapi/OneDrive/Desktop/GD32VW553/GD32VW55X_Wifi_BLE_SDK/GD32VW55x_RELEASE_V1.0.2/MSDK/plf/src/init_rom_symbol.c:267
        mbedtls_mpi_exp_mod_sw_fn = (void *)0x0bf6f508;
 800292c:	50850d13          	addi	s10,a0,1288 # bf6f508 <mbedtls_mpi_mul_mpi_sw+0xd28>
C:/Users/stapi/OneDrive/Desktop/GD32VW553/GD32VW55X_Wifi_BLE_SDK/GD32VW55x_RELEASE_V1.0.2/MSDK/plf/src/init_rom_symbol.c:265
        mbedtls_mpi_div_mpi_fn = (void *)0x0bf6ecda;
 8002930:	cda40413          	addi	s0,s0,-806
 8002934:	9081a223          	sw	s0,-1788(gp) # 20000464 <mbedtls_mpi_div_mpi_fn>
C:/Users/stapi/OneDrive/Desktop/GD32VW553/GD32VW55X_Wifi_BLE_SDK/GD32VW55x_RELEASE_V1.0.2/MSDK/plf/src/init_rom_symbol.c:268
        mbedtls_mpi_fill_random_fn = (void *)0x0bf6fe86;
 8002938:	e8680c93          	addi	s9,a6,-378 # bf6fe86 <mbedtls_mpi_mul_mpi_sw+0x16a6>
C:/Users/stapi/OneDrive/Desktop/GD32VW553/GD32VW55X_Wifi_BLE_SDK/GD32VW55x_RELEASE_V1.0.2/MSDK/plf/src/init_rom_symbol.c:267
        mbedtls_mpi_exp_mod_sw_fn = (void *)0x0bf6f508;
 800293c:	91a1a623          	sw	s10,-1780(gp) # 2000046c <mbedtls_mpi_exp_mod_sw_fn>
C:/Users/stapi/OneDrive/Desktop/GD32VW553/GD32VW55X_Wifi_BLE_SDK/GD32VW55x_RELEASE_V1.0.2/MSDK/plf/src/init_rom_symbol.c:269
        mbedtls_mpi_gcd_fn = (void *)0x0bf6fc8e;
 8002940:	c8e80c13          	addi	s8,a6,-882
C:/Users/stapi/OneDrive/Desktop/GD32VW553/GD32VW55X_Wifi_BLE_SDK/GD32VW55x_RELEASE_V1.0.2/MSDK/plf/src/init_rom_symbol.c:268
        mbedtls_mpi_fill_random_fn = (void *)0x0bf6fe86;
 8002944:	9191a823          	sw	s9,-1776(gp) # 20000470 <mbedtls_mpi_fill_random_fn>
C:/Users/stapi/OneDrive/Desktop/GD32VW553/GD32VW55X_Wifi_BLE_SDK/GD32VW55x_RELEASE_V1.0.2/MSDK/plf/src/init_rom_symbol.c:270
        mbedtls_mpi_gen_prime_fn = (void *)0x0bf70584;
 8002948:	58480b93          	addi	s7,a6,1412
C:/Users/stapi/OneDrive/Desktop/GD32VW553/GD32VW55X_Wifi_BLE_SDK/GD32VW55x_RELEASE_V1.0.2/MSDK/plf/src/init_rom_symbol.c:269
        mbedtls_mpi_gcd_fn = (void *)0x0bf6fc8e;
 800294c:	9181aa23          	sw	s8,-1772(gp) # 20000474 <mbedtls_mpi_gcd_fn>
C:/Users/stapi/OneDrive/Desktop/GD32VW553/GD32VW55X_Wifi_BLE_SDK/GD32VW55x_RELEASE_V1.0.2/MSDK/plf/src/init_rom_symbol.c:271
        mbedtls_mpi_inv_mod_fn = (void *)0x0bf701b4;
 8002950:	1b480b13          	addi	s6,a6,436
C:/Users/stapi/OneDrive/Desktop/GD32VW553/GD32VW55X_Wifi_BLE_SDK/GD32VW55x_RELEASE_V1.0.2/MSDK/plf/src/init_rom_symbol.c:270
        mbedtls_mpi_gen_prime_fn = (void *)0x0bf70584;
 8002954:	9171ac23          	sw	s7,-1768(gp) # 20000478 <mbedtls_mpi_gen_prime_fn>
C:/Users/stapi/OneDrive/Desktop/GD32VW553/GD32VW55X_Wifi_BLE_SDK/GD32VW55x_RELEASE_V1.0.2/MSDK/plf/src/init_rom_symbol.c:272
        mbedtls_mpi_is_prime_fn = (void *)0x0bf70578   ;
 8002958:	57880a93          	addi	s5,a6,1400
C:/Users/stapi/OneDrive/Desktop/GD32VW553/GD32VW55X_Wifi_BLE_SDK/GD32VW55x_RELEASE_V1.0.2/MSDK/plf/src/init_rom_symbol.c:271
        mbedtls_mpi_inv_mod_fn = (void *)0x0bf701b4;
 800295c:	9161ae23          	sw	s6,-1764(gp) # 2000047c <mbedtls_mpi_inv_mod_fn>
C:/Users/stapi/OneDrive/Desktop/GD32VW553/GD32VW55X_Wifi_BLE_SDK/GD32VW55x_RELEASE_V1.0.2/MSDK/plf/src/init_rom_symbol.c:272
        mbedtls_mpi_is_prime_fn = (void *)0x0bf70578   ;
 8002960:	9351a223          	sw	s5,-1756(gp) # 20000484 <mbedtls_mpi_is_prime_fn>
C:/Users/stapi/OneDrive/Desktop/GD32VW553/GD32VW55X_Wifi_BLE_SDK/GD32VW55x_RELEASE_V1.0.2/MSDK/plf/src/init_rom_symbol.c:273
        mbedtls_mpi_is_prime_ext_fn = (void *)0x0bf704d6;
 8002964:	4d680813          	addi	a6,a6,1238
C:/Users/stapi/OneDrive/Desktop/GD32VW553/GD32VW55X_Wifi_BLE_SDK/GD32VW55x_RELEASE_V1.0.2/MSDK/plf/src/init_rom_symbol.c:274
        mbedtls_mpi_mod_int_fn = (void *)0x0bf6f28c;
 8002968:	28c50a13          	addi	s4,a0,652
C:/Users/stapi/OneDrive/Desktop/GD32VW553/GD32VW55X_Wifi_BLE_SDK/GD32VW55x_RELEASE_V1.0.2/MSDK/plf/src/init_rom_symbol.c:273
        mbedtls_mpi_is_prime_ext_fn = (void *)0x0bf704d6;
 800296c:	9301a023          	sw	a6,-1760(gp) # 20000480 <mbedtls_mpi_is_prime_ext_fn>
C:/Users/stapi/OneDrive/Desktop/GD32VW553/GD32VW55X_Wifi_BLE_SDK/GD32VW55x_RELEASE_V1.0.2/MSDK/plf/src/init_rom_symbol.c:275
        mbedtls_mpi_mod_mpi_fn = (void *)0x0bf6f1f0;
 8002970:	1f050993          	addi	s3,a0,496
C:/Users/stapi/OneDrive/Desktop/GD32VW553/GD32VW55X_Wifi_BLE_SDK/GD32VW55x_RELEASE_V1.0.2/MSDK/plf/src/init_rom_symbol.c:274
        mbedtls_mpi_mod_int_fn = (void *)0x0bf6f28c;
 8002974:	9341a423          	sw	s4,-1752(gp) # 20000488 <mbedtls_mpi_mod_int_fn>
C:/Users/stapi/OneDrive/Desktop/GD32VW553/GD32VW55X_Wifi_BLE_SDK/GD32VW55x_RELEASE_V1.0.2/MSDK/plf/src/init_rom_symbol.c:276
        mbedtls_mpi_mul_int_fn = (void *)0x0bf6ecc0;
 8002978:	cc050913          	addi	s2,a0,-832
C:/Users/stapi/OneDrive/Desktop/GD32VW553/GD32VW55X_Wifi_BLE_SDK/GD32VW55x_RELEASE_V1.0.2/MSDK/plf/src/init_rom_symbol.c:275
        mbedtls_mpi_mod_mpi_fn = (void *)0x0bf6f1f0;
 800297c:	9331a623          	sw	s3,-1748(gp) # 2000048c <mbedtls_mpi_mod_mpi_fn>
C:/Users/stapi/OneDrive/Desktop/GD32VW553/GD32VW55X_Wifi_BLE_SDK/GD32VW55x_RELEASE_V1.0.2/MSDK/plf/src/init_rom_symbol.c:266
        mbedtls_mpi_exp_mod_fn = (void *)0x0bf6fb18;
 8002980:	0bf70437          	lui	s0,0xbf70
C:/Users/stapi/OneDrive/Desktop/GD32VW553/GD32VW55X_Wifi_BLE_SDK/GD32VW55x_RELEASE_V1.0.2/MSDK/plf/src/init_rom_symbol.c:277
        mbedtls_mpi_mul_mpi_fn = (void *)0x0bf6ea92;
 8002984:	a9250493          	addi	s1,a0,-1390
C:/Users/stapi/OneDrive/Desktop/GD32VW553/GD32VW55X_Wifi_BLE_SDK/GD32VW55x_RELEASE_V1.0.2/MSDK/plf/src/init_rom_symbol.c:276
        mbedtls_mpi_mul_int_fn = (void *)0x0bf6ecc0;
 8002988:	9321a823          	sw	s2,-1744(gp) # 20000490 <mbedtls_mpi_mul_int_fn>
C:/Users/stapi/OneDrive/Desktop/GD32VW553/GD32VW55X_Wifi_BLE_SDK/GD32VW55x_RELEASE_V1.0.2/MSDK/plf/src/init_rom_symbol.c:266
        mbedtls_mpi_exp_mod_fn = (void *)0x0bf6fb18;
 800298c:	b1840413          	addi	s0,s0,-1256 # bf6fb18 <mbedtls_mpi_mul_mpi_sw+0x1338>
 8002990:	9081a423          	sw	s0,-1784(gp) # 20000468 <mbedtls_mpi_exp_mod_fn>
C:/Users/stapi/OneDrive/Desktop/GD32VW553/GD32VW55X_Wifi_BLE_SDK/GD32VW55x_RELEASE_V1.0.2/MSDK/plf/src/init_rom_symbol.c:277
        mbedtls_mpi_mul_mpi_fn = (void *)0x0bf6ea92;
 8002994:	9291aa23          	sw	s1,-1740(gp) # 20000494 <mbedtls_mpi_mul_mpi_fn>
C:/Users/stapi/OneDrive/Desktop/GD32VW553/GD32VW55X_Wifi_BLE_SDK/GD32VW55x_RELEASE_V1.0.2/MSDK/plf/src/init_rom_symbol.c:278
        mbedtls_mpi_read_string_fn = (void *)0x0bf6eaa8;
 8002998:	aa850413          	addi	s0,a0,-1368
 800299c:	9281ac23          	sw	s0,-1736(gp) # 20000498 <mbedtls_mpi_read_string_fn>
C:/Users/stapi/OneDrive/Desktop/GD32VW553/GD32VW55X_Wifi_BLE_SDK/GD32VW55x_RELEASE_V1.0.2/MSDK/plf/src/init_rom_symbol.c:279
        mbedtls_mpi_write_string_fn = (void *)0x0bf6f2c0;
 80029a0:	2c050513          	addi	a0,a0,704
C:/Users/stapi/OneDrive/Desktop/GD32VW553/GD32VW55X_Wifi_BLE_SDK/GD32VW55x_RELEASE_V1.0.2/MSDK/plf/src/init_rom_symbol.c:280
        mbedtls_rsa_check_privkey_fn = (void *)0x0bf74536;
 80029a4:	53670393          	addi	t2,a4,1334
C:/Users/stapi/OneDrive/Desktop/GD32VW553/GD32VW55X_Wifi_BLE_SDK/GD32VW55x_RELEASE_V1.0.2/MSDK/plf/src/init_rom_symbol.c:279
        mbedtls_mpi_write_string_fn = (void *)0x0bf6f2c0;
 80029a8:	92a1ae23          	sw	a0,-1732(gp) # 2000049c <mbedtls_mpi_write_string_fn>
C:/Users/stapi/OneDrive/Desktop/GD32VW553/GD32VW55X_Wifi_BLE_SDK/GD32VW55x_RELEASE_V1.0.2/MSDK/plf/src/init_rom_symbol.c:281
        mbedtls_rsa_check_pub_priv_fn = (void *)0x0bf747cc;
 80029ac:	7cc70293          	addi	t0,a4,1996
C:/Users/stapi/OneDrive/Desktop/GD32VW553/GD32VW55X_Wifi_BLE_SDK/GD32VW55x_RELEASE_V1.0.2/MSDK/plf/src/init_rom_symbol.c:280
        mbedtls_rsa_check_privkey_fn = (void *)0x0bf74536;
 80029b0:	9471a023          	sw	t2,-1728(gp) # 200004a0 <mbedtls_rsa_check_privkey_fn>
C:/Users/stapi/OneDrive/Desktop/GD32VW553/GD32VW55X_Wifi_BLE_SDK/GD32VW55x_RELEASE_V1.0.2/MSDK/plf/src/init_rom_symbol.c:282
        mbedtls_rsa_check_pubkey_fn = (void *)0x0bf744d4;
 80029b4:	4d470f93          	addi	t6,a4,1236
C:/Users/stapi/OneDrive/Desktop/GD32VW553/GD32VW55X_Wifi_BLE_SDK/GD32VW55x_RELEASE_V1.0.2/MSDK/plf/src/init_rom_symbol.c:281
        mbedtls_rsa_check_pub_priv_fn = (void *)0x0bf747cc;
 80029b8:	9451a223          	sw	t0,-1724(gp) # 200004a4 <mbedtls_rsa_check_pub_priv_fn>
C:/Users/stapi/OneDrive/Desktop/GD32VW553/GD32VW55X_Wifi_BLE_SDK/GD32VW55x_RELEASE_V1.0.2/MSDK/plf/src/init_rom_symbol.c:283
        mbedtls_rsa_complete_fn = (void *)0x0bf74054;
 80029bc:	05470f13          	addi	t5,a4,84
C:/Users/stapi/OneDrive/Desktop/GD32VW553/GD32VW55X_Wifi_BLE_SDK/GD32VW55x_RELEASE_V1.0.2/MSDK/plf/src/init_rom_symbol.c:282
        mbedtls_rsa_check_pubkey_fn = (void *)0x0bf744d4;
 80029c0:	95f1a423          	sw	t6,-1720(gp) # 200004a8 <mbedtls_rsa_check_pubkey_fn>
C:/Users/stapi/OneDrive/Desktop/GD32VW553/GD32VW55X_Wifi_BLE_SDK/GD32VW55x_RELEASE_V1.0.2/MSDK/plf/src/init_rom_symbol.c:284
        mbedtls_rsa_copy_fn = (void *)0x0bf75cf6;
 80029c4:	cf678e93          	addi	t4,a5,-778
C:/Users/stapi/OneDrive/Desktop/GD32VW553/GD32VW55X_Wifi_BLE_SDK/GD32VW55x_RELEASE_V1.0.2/MSDK/plf/src/init_rom_symbol.c:283
        mbedtls_rsa_complete_fn = (void *)0x0bf74054;
 80029c8:	95e1a623          	sw	t5,-1716(gp) # 200004ac <mbedtls_rsa_complete_fn>
C:/Users/stapi/OneDrive/Desktop/GD32VW553/GD32VW55X_Wifi_BLE_SDK/GD32VW55x_RELEASE_V1.0.2/MSDK/plf/src/init_rom_symbol.c:285
        mbedtls_rsa_export_fn = (void *)0x0bf742ec;
 80029cc:	2ec70e13          	addi	t3,a4,748
C:/Users/stapi/OneDrive/Desktop/GD32VW553/GD32VW55X_Wifi_BLE_SDK/GD32VW55x_RELEASE_V1.0.2/MSDK/plf/src/init_rom_symbol.c:284
        mbedtls_rsa_copy_fn = (void *)0x0bf75cf6;
 80029d0:	95d1a823          	sw	t4,-1712(gp) # 200004b0 <mbedtls_rsa_copy_fn>
C:/Users/stapi/OneDrive/Desktop/GD32VW553/GD32VW55X_Wifi_BLE_SDK/GD32VW55x_RELEASE_V1.0.2/MSDK/plf/src/init_rom_symbol.c:286
        mbedtls_rsa_export_crt_fn = (void *)0x0bf743ee;
 80029d4:	3ee70313          	addi	t1,a4,1006
C:/Users/stapi/OneDrive/Desktop/GD32VW553/GD32VW55X_Wifi_BLE_SDK/GD32VW55x_RELEASE_V1.0.2/MSDK/plf/src/init_rom_symbol.c:285
        mbedtls_rsa_export_fn = (void *)0x0bf742ec;
 80029d8:	95c1ac23          	sw	t3,-1704(gp) # 200004b8 <mbedtls_rsa_export_fn>
C:/Users/stapi/OneDrive/Desktop/GD32VW553/GD32VW55X_Wifi_BLE_SDK/GD32VW55x_RELEASE_V1.0.2/MSDK/plf/src/init_rom_symbol.c:287
        mbedtls_rsa_export_raw_fn = (void *)0x0bf741b4;
 80029dc:	1b470893          	addi	a7,a4,436
C:/Users/stapi/OneDrive/Desktop/GD32VW553/GD32VW55X_Wifi_BLE_SDK/GD32VW55x_RELEASE_V1.0.2/MSDK/plf/src/init_rom_symbol.c:286
        mbedtls_rsa_export_crt_fn = (void *)0x0bf743ee;
 80029e0:	9461aa23          	sw	t1,-1708(gp) # 200004b4 <mbedtls_rsa_export_crt_fn>
C:/Users/stapi/OneDrive/Desktop/GD32VW553/GD32VW55X_Wifi_BLE_SDK/GD32VW55x_RELEASE_V1.0.2/MSDK/plf/src/init_rom_symbol.c:288
        mbedtls_rsa_free_fn = (void *)0x0bf75e00;
 80029e4:	e0078613          	addi	a2,a5,-512
C:/Users/stapi/OneDrive/Desktop/GD32VW553/GD32VW55X_Wifi_BLE_SDK/GD32VW55x_RELEASE_V1.0.2/MSDK/plf/src/init_rom_symbol.c:287
        mbedtls_rsa_export_raw_fn = (void *)0x0bf741b4;
 80029e8:	9511ae23          	sw	a7,-1700(gp) # 200004bc <mbedtls_rsa_export_raw_fn>
C:/Users/stapi/OneDrive/Desktop/GD32VW553/GD32VW55X_Wifi_BLE_SDK/GD32VW55x_RELEASE_V1.0.2/MSDK/plf/src/init_rom_symbol.c:289
        mbedtls_rsa_gen_key_fn = (void *)0x0bf745a6;
 80029ec:	5a670693          	addi	a3,a4,1446
C:/Users/stapi/OneDrive/Desktop/GD32VW553/GD32VW55X_Wifi_BLE_SDK/GD32VW55x_RELEASE_V1.0.2/MSDK/plf/src/init_rom_symbol.c:288
        mbedtls_rsa_free_fn = (void *)0x0bf75e00;
 80029f0:	96c1a023          	sw	a2,-1696(gp) # 200004c0 <mbedtls_rsa_free_fn>
C:/Users/stapi/OneDrive/Desktop/GD32VW553/GD32VW55X_Wifi_BLE_SDK/GD32VW55x_RELEASE_V1.0.2/MSDK/plf/src/init_rom_symbol.c:290
        mbedtls_rsa_get_len_fn = (void *)0x0bf744d0;
 80029f4:	0bf74537          	lui	a0,0xbf74
C:/Users/stapi/OneDrive/Desktop/GD32VW553/GD32VW55X_Wifi_BLE_SDK/GD32VW55x_RELEASE_V1.0.2/MSDK/plf/src/init_rom_symbol.c:289
        mbedtls_rsa_gen_key_fn = (void *)0x0bf745a6;
 80029f8:	96d1a223          	sw	a3,-1692(gp) # 200004c4 <mbedtls_rsa_gen_key_fn>
C:/Users/stapi/OneDrive/Desktop/GD32VW553/GD32VW55X_Wifi_BLE_SDK/GD32VW55x_RELEASE_V1.0.2/MSDK/plf/src/init_rom_symbol.c:290
        mbedtls_rsa_get_len_fn = (void *)0x0bf744d0;
 80029fc:	4d050413          	addi	s0,a0,1232 # bf744d0 <mbedtls_mpi_mul_mpi_sw+0x5cf0>
 8002a00:	9681a423          	sw	s0,-1688(gp) # 200004c8 <mbedtls_rsa_get_len_fn>
C:/Users/stapi/OneDrive/Desktop/GD32VW553/GD32VW55X_Wifi_BLE_SDK/GD32VW55x_RELEASE_V1.0.2/MSDK/plf/src/init_rom_symbol.c:291
        mbedtls_rsa_import_fn = (void *)0x0bf73f28;
 8002a04:	f2850413          	addi	s0,a0,-216
 8002a08:	9681a623          	sw	s0,-1684(gp) # 200004cc <mbedtls_rsa_import_fn>
C:/Users/stapi/OneDrive/Desktop/GD32VW553/GD32VW55X_Wifi_BLE_SDK/GD32VW55x_RELEASE_V1.0.2/MSDK/plf/src/init_rom_symbol.c:292
        mbedtls_rsa_import_raw_fn = (void *)0x0bf73fba;
 8002a0c:	fba50413          	addi	s0,a0,-70
 8002a10:	9681a823          	sw	s0,-1680(gp) # 200004d0 <mbedtls_rsa_import_raw_fn>
C:/Users/stapi/OneDrive/Desktop/GD32VW553/GD32VW55X_Wifi_BLE_SDK/GD32VW55x_RELEASE_V1.0.2/MSDK/plf/src/init_rom_symbol.c:293
        mbedtls_rsa_init_fn = (void *)0x0bf74498;
 8002a14:	49850513          	addi	a0,a0,1176
 8002a18:	96a1aa23          	sw	a0,-1676(gp) # 200004d4 <mbedtls_rsa_init_fn>
C:/Users/stapi/OneDrive/Desktop/GD32VW553/GD32VW55X_Wifi_BLE_SDK/GD32VW55x_RELEASE_V1.0.2/MSDK/plf/src/init_rom_symbol.c:294
        mbedtls_rsa_pkcs1_decrypt_fn = (void *)0x0bf755f6;
 8002a1c:	0bf75537          	lui	a0,0xbf75
 8002a20:	5f650413          	addi	s0,a0,1526 # bf755f6 <mbedtls_mpi_mul_mpi_sw+0x6e16>
 8002a24:	9681ac23          	sw	s0,-1672(gp) # 200004d8 <mbedtls_rsa_pkcs1_decrypt_fn>
C:/Users/stapi/OneDrive/Desktop/GD32VW553/GD32VW55X_Wifi_BLE_SDK/GD32VW55x_RELEASE_V1.0.2/MSDK/plf/src/init_rom_symbol.c:296
        mbedtls_rsa_pkcs1_sign_fn = (void *)0x0bf75928;
 8002a28:	0bf76637          	lui	a2,0xbf76
C:/Users/stapi/OneDrive/Desktop/GD32VW553/GD32VW55X_Wifi_BLE_SDK/GD32VW55x_RELEASE_V1.0.2/MSDK/plf/src/init_rom_symbol.c:295
        mbedtls_rsa_pkcs1_encrypt_fn = (void *)0x0bf75138;
 8002a2c:	13850413          	addi	s0,a0,312
 8002a30:	9681ae23          	sw	s0,-1668(gp) # 200004dc <mbedtls_rsa_pkcs1_encrypt_fn>
C:/Users/stapi/OneDrive/Desktop/GD32VW553/GD32VW55X_Wifi_BLE_SDK/GD32VW55x_RELEASE_V1.0.2/MSDK/plf/src/init_rom_symbol.c:296
        mbedtls_rsa_pkcs1_sign_fn = (void *)0x0bf75928;
 8002a34:	92860413          	addi	s0,a2,-1752 # bf75928 <mbedtls_mpi_mul_mpi_sw+0x7148>
C:/Users/stapi/OneDrive/Desktop/GD32VW553/GD32VW55X_Wifi_BLE_SDK/GD32VW55x_RELEASE_V1.0.2/MSDK/plf/src/init_rom_symbol.c:294
        mbedtls_rsa_pkcs1_decrypt_fn = (void *)0x0bf755f6;
 8002a38:	0bf755b7          	lui	a1,0xbf75
C:/Users/stapi/OneDrive/Desktop/GD32VW553/GD32VW55X_Wifi_BLE_SDK/GD32VW55x_RELEASE_V1.0.2/MSDK/plf/src/init_rom_symbol.c:296
        mbedtls_rsa_pkcs1_sign_fn = (void *)0x0bf75928;
 8002a3c:	9881a023          	sw	s0,-1664(gp) # 200004e0 <mbedtls_rsa_pkcs1_sign_fn>
C:/Users/stapi/OneDrive/Desktop/GD32VW553/GD32VW55X_Wifi_BLE_SDK/GD32VW55x_RELEASE_V1.0.2/MSDK/plf/src/init_rom_symbol.c:297
        mbedtls_rsa_pkcs1_verify_fn = (void *)0x0bf75c98;
 8002a40:	c9860613          	addi	a2,a2,-872
 8002a44:	98c1a223          	sw	a2,-1660(gp) # 200004e4 <mbedtls_rsa_pkcs1_verify_fn>
C:/Users/stapi/OneDrive/Desktop/GD32VW553/GD32VW55X_Wifi_BLE_SDK/GD32VW55x_RELEASE_V1.0.2/MSDK/plf/src/init_rom_symbol.c:300
        mbedtls_rsa_public_fn = (void *)0x0bf74814;
 8002a48:	81458a93          	addi	s5,a1,-2028 # bf74814 <mbedtls_mpi_mul_mpi_sw+0x6034>
C:/Users/stapi/OneDrive/Desktop/GD32VW553/GD32VW55X_Wifi_BLE_SDK/GD32VW55x_RELEASE_V1.0.2/MSDK/plf/src/init_rom_symbol.c:298
        mbedtls_rsa_private_fn = (void *)0x0bf74e92;
 8002a4c:	e9250613          	addi	a2,a0,-366
 8002a50:	98c1a423          	sw	a2,-1656(gp) # 200004e8 <mbedtls_rsa_private_fn>
C:/Users/stapi/OneDrive/Desktop/GD32VW553/GD32VW55X_Wifi_BLE_SDK/GD32VW55x_RELEASE_V1.0.2/MSDK/plf/src/init_rom_symbol.c:301
        mbedtls_rsa_rsaes_oaep_decrypt_fn = (void *)0x0bf7516c;
 8002a54:	16c58a13          	addi	s4,a1,364
C:/Users/stapi/OneDrive/Desktop/GD32VW553/GD32VW55X_Wifi_BLE_SDK/GD32VW55x_RELEASE_V1.0.2/MSDK/plf/src/init_rom_symbol.c:300
        mbedtls_rsa_public_fn = (void *)0x0bf74814;
 8002a58:	9951a823          	sw	s5,-1648(gp) # 200004f0 <mbedtls_rsa_public_fn>
C:/Users/stapi/OneDrive/Desktop/GD32VW553/GD32VW55X_Wifi_BLE_SDK/GD32VW55x_RELEASE_V1.0.2/MSDK/plf/src/init_rom_symbol.c:302
        mbedtls_rsa_rsaes_oaep_encrypt_fn = (void *)0x0bf74ea6;
 8002a5c:	ea658993          	addi	s3,a1,-346
C:/Users/stapi/OneDrive/Desktop/GD32VW553/GD32VW55X_Wifi_BLE_SDK/GD32VW55x_RELEASE_V1.0.2/MSDK/plf/src/init_rom_symbol.c:301
        mbedtls_rsa_rsaes_oaep_decrypt_fn = (void *)0x0bf7516c;
 8002a60:	9941aa23          	sw	s4,-1644(gp) # 200004f4 <mbedtls_rsa_rsaes_oaep_decrypt_fn>
C:/Users/stapi/OneDrive/Desktop/GD32VW553/GD32VW55X_Wifi_BLE_SDK/GD32VW55x_RELEASE_V1.0.2/MSDK/plf/src/init_rom_symbol.c:303
        mbedtls_rsa_rsaes_pkcs1_v15_decrypt_fn = (void *)0x0bf7539e;
 8002a64:	39e58913          	addi	s2,a1,926
C:/Users/stapi/OneDrive/Desktop/GD32VW553/GD32VW55X_Wifi_BLE_SDK/GD32VW55x_RELEASE_V1.0.2/MSDK/plf/src/init_rom_symbol.c:302
        mbedtls_rsa_rsaes_oaep_encrypt_fn = (void *)0x0bf74ea6;
 8002a68:	9931ac23          	sw	s3,-1640(gp) # 200004f8 <mbedtls_rsa_rsaes_oaep_encrypt_fn>
C:/Users/stapi/OneDrive/Desktop/GD32VW553/GD32VW55X_Wifi_BLE_SDK/GD32VW55x_RELEASE_V1.0.2/MSDK/plf/src/init_rom_symbol.c:304
        mbedtls_rsa_rsaes_pkcs1_v15_encrypt_fn = (void *)0x0bf7500c;
 8002a6c:	00c58493          	addi	s1,a1,12
C:/Users/stapi/OneDrive/Desktop/GD32VW553/GD32VW55X_Wifi_BLE_SDK/GD32VW55x_RELEASE_V1.0.2/MSDK/plf/src/init_rom_symbol.c:303
        mbedtls_rsa_rsaes_pkcs1_v15_decrypt_fn = (void *)0x0bf7539e;
 8002a70:	9921ae23          	sw	s2,-1636(gp) # 200004fc <mbedtls_rsa_rsaes_pkcs1_v15_decrypt_fn>
C:/Users/stapi/OneDrive/Desktop/GD32VW553/GD32VW55X_Wifi_BLE_SDK/GD32VW55x_RELEASE_V1.0.2/MSDK/plf/src/init_rom_symbol.c:305
        mbedtls_rsa_rsassa_pkcs1_v15_sign_fn = (void *)0x0bf7581a;
 8002a74:	81a78413          	addi	s0,a5,-2022
C:/Users/stapi/OneDrive/Desktop/GD32VW553/GD32VW55X_Wifi_BLE_SDK/GD32VW55x_RELEASE_V1.0.2/MSDK/plf/src/init_rom_symbol.c:304
        mbedtls_rsa_rsaes_pkcs1_v15_encrypt_fn = (void *)0x0bf7500c;
 8002a78:	9a91a023          	sw	s1,-1632(gp) # 20000500 <mbedtls_rsa_rsaes_pkcs1_v15_encrypt_fn>
C:/Users/stapi/OneDrive/Desktop/GD32VW553/GD32VW55X_Wifi_BLE_SDK/GD32VW55x_RELEASE_V1.0.2/MSDK/plf/src/init_rom_symbol.c:306
        mbedtls_rsa_rsassa_pkcs1_v15_verify_fn = (void *)0x0bf75b8e;
 8002a7c:	b8e78393          	addi	t2,a5,-1138
C:/Users/stapi/OneDrive/Desktop/GD32VW553/GD32VW55X_Wifi_BLE_SDK/GD32VW55x_RELEASE_V1.0.2/MSDK/plf/src/init_rom_symbol.c:305
        mbedtls_rsa_rsassa_pkcs1_v15_sign_fn = (void *)0x0bf7581a;
 8002a80:	9a81a223          	sw	s0,-1628(gp) # 20000504 <mbedtls_rsa_rsassa_pkcs1_v15_sign_fn>
C:/Users/stapi/OneDrive/Desktop/GD32VW553/GD32VW55X_Wifi_BLE_SDK/GD32VW55x_RELEASE_V1.0.2/MSDK/plf/src/init_rom_symbol.c:306
        mbedtls_rsa_rsassa_pkcs1_v15_verify_fn = (void *)0x0bf75b8e;
 8002a84:	9a71a423          	sw	t2,-1624(gp) # 20000508 <mbedtls_rsa_rsassa_pkcs1_v15_verify_fn>
C:/Users/stapi/OneDrive/Desktop/GD32VW553/GD32VW55X_Wifi_BLE_SDK/GD32VW55x_RELEASE_V1.0.2/MSDK/plf/src/init_rom_symbol.c:307
        mbedtls_rsa_rsassa_pss_sign_fn = (void *)0x0bf75630;
 8002a88:	63058593          	addi	a1,a1,1584
C:/Users/stapi/OneDrive/Desktop/GD32VW553/GD32VW55X_Wifi_BLE_SDK/GD32VW55x_RELEASE_V1.0.2/MSDK/plf/src/init_rom_symbol.c:308
        mbedtls_rsa_rsassa_pss_verify_fn = (void *)0x0bf75b6e;
 8002a8c:	b6e78f93          	addi	t6,a5,-1170
C:/Users/stapi/OneDrive/Desktop/GD32VW553/GD32VW55X_Wifi_BLE_SDK/GD32VW55x_RELEASE_V1.0.2/MSDK/plf/src/init_rom_symbol.c:307
        mbedtls_rsa_rsassa_pss_sign_fn = (void *)0x0bf75630;
 8002a90:	9ab1a623          	sw	a1,-1620(gp) # 2000050c <mbedtls_rsa_rsassa_pss_sign_fn>
C:/Users/stapi/OneDrive/Desktop/GD32VW553/GD32VW55X_Wifi_BLE_SDK/GD32VW55x_RELEASE_V1.0.2/MSDK/plf/src/init_rom_symbol.c:309
        mbedtls_rsa_rsassa_pss_verify_ext_fn = (void *)0x0bf75946;
 8002a94:	94678f13          	addi	t5,a5,-1722
C:/Users/stapi/OneDrive/Desktop/GD32VW553/GD32VW55X_Wifi_BLE_SDK/GD32VW55x_RELEASE_V1.0.2/MSDK/plf/src/init_rom_symbol.c:308
        mbedtls_rsa_rsassa_pss_verify_fn = (void *)0x0bf75b6e;
 8002a98:	9bf1aa23          	sw	t6,-1612(gp) # 20000514 <mbedtls_rsa_rsassa_pss_verify_fn>
C:/Users/stapi/OneDrive/Desktop/GD32VW553/GD32VW55X_Wifi_BLE_SDK/GD32VW55x_RELEASE_V1.0.2/MSDK/plf/src/init_rom_symbol.c:309
        mbedtls_rsa_rsassa_pss_verify_ext_fn = (void *)0x0bf75946;
 8002a9c:	9be1a823          	sw	t5,-1616(gp) # 20000510 <mbedtls_rsa_rsassa_pss_verify_ext_fn>
C:/Users/stapi/OneDrive/Desktop/GD32VW553/GD32VW55X_Wifi_BLE_SDK/GD32VW55x_RELEASE_V1.0.2/MSDK/plf/src/init_rom_symbol.c:310
        mbedtls_rsa_set_padding_fn = (void *)0x0bf744c6;
 8002aa0:	4c670713          	addi	a4,a4,1222
C:/Users/stapi/OneDrive/Desktop/GD32VW553/GD32VW55X_Wifi_BLE_SDK/GD32VW55x_RELEASE_V1.0.2/MSDK/plf/src/init_rom_symbol.c:311
        mbedtls_sha256_clone_fn = (void *)0x0bf76374;
 8002aa4:	37478e93          	addi	t4,a5,884
C:/Users/stapi/OneDrive/Desktop/GD32VW553/GD32VW55X_Wifi_BLE_SDK/GD32VW55x_RELEASE_V1.0.2/MSDK/plf/src/init_rom_symbol.c:310
        mbedtls_rsa_set_padding_fn = (void *)0x0bf744c6;
 8002aa8:	9ae1ac23          	sw	a4,-1608(gp) # 20000518 <mbedtls_rsa_set_padding_fn>
C:/Users/stapi/OneDrive/Desktop/GD32VW553/GD32VW55X_Wifi_BLE_SDK/GD32VW55x_RELEASE_V1.0.2/MSDK/plf/src/init_rom_symbol.c:312
        mbedtls_sha256_finish_fn = (void *)0x0bf7642e;
 8002aac:	42e78e13          	addi	t3,a5,1070
C:/Users/stapi/OneDrive/Desktop/GD32VW553/GD32VW55X_Wifi_BLE_SDK/GD32VW55x_RELEASE_V1.0.2/MSDK/plf/src/init_rom_symbol.c:311
        mbedtls_sha256_clone_fn = (void *)0x0bf76374;
 8002ab0:	9bd1ae23          	sw	t4,-1604(gp) # 2000051c <mbedtls_sha256_clone_fn>
C:/Users/stapi/OneDrive/Desktop/GD32VW553/GD32VW55X_Wifi_BLE_SDK/GD32VW55x_RELEASE_V1.0.2/MSDK/plf/src/init_rom_symbol.c:313
        mbedtls_sha256_finish_ret_fn = (void *)0x0bf76406;
 8002ab4:	40678313          	addi	t1,a5,1030
C:/Users/stapi/OneDrive/Desktop/GD32VW553/GD32VW55X_Wifi_BLE_SDK/GD32VW55x_RELEASE_V1.0.2/MSDK/plf/src/init_rom_symbol.c:312
        mbedtls_sha256_finish_fn = (void *)0x0bf7642e;
 8002ab8:	9dc1a023          	sw	t3,-1600(gp) # 20000520 <mbedtls_sha256_finish_fn>
C:/Users/stapi/OneDrive/Desktop/GD32VW553/GD32VW55X_Wifi_BLE_SDK/GD32VW55x_RELEASE_V1.0.2/MSDK/plf/src/init_rom_symbol.c:314
        mbedtls_sha256_free_fn = (void *)0x0bf76362;
 8002abc:	36278893          	addi	a7,a5,866
C:/Users/stapi/OneDrive/Desktop/GD32VW553/GD32VW55X_Wifi_BLE_SDK/GD32VW55x_RELEASE_V1.0.2/MSDK/plf/src/init_rom_symbol.c:313
        mbedtls_sha256_finish_ret_fn = (void *)0x0bf76406;
 8002ac0:	9c61a223          	sw	t1,-1596(gp) # 20000524 <mbedtls_sha256_finish_ret_fn>
C:/Users/stapi/OneDrive/Desktop/GD32VW553/GD32VW55X_Wifi_BLE_SDK/GD32VW55x_RELEASE_V1.0.2/MSDK/plf/src/init_rom_symbol.c:315
        mbedtls_sha256_init_fn = (void *)0x0bf7635e;
 8002ac4:	35e78813          	addi	a6,a5,862
C:/Users/stapi/OneDrive/Desktop/GD32VW553/GD32VW55X_Wifi_BLE_SDK/GD32VW55x_RELEASE_V1.0.2/MSDK/plf/src/init_rom_symbol.c:314
        mbedtls_sha256_free_fn = (void *)0x0bf76362;
 8002ac8:	9d11a423          	sw	a7,-1592(gp) # 20000528 <mbedtls_sha256_free_fn>
C:/Users/stapi/OneDrive/Desktop/GD32VW553/GD32VW55X_Wifi_BLE_SDK/GD32VW55x_RELEASE_V1.0.2/MSDK/plf/src/init_rom_symbol.c:299
        mbedtls_rsa_private_sw_fn = (void *)0x0bf7496c;
 8002acc:	96c50613          	addi	a2,a0,-1684
C:/Users/stapi/OneDrive/Desktop/GD32VW553/GD32VW55X_Wifi_BLE_SDK/GD32VW55x_RELEASE_V1.0.2/MSDK/plf/src/init_rom_symbol.c:315
        mbedtls_sha256_init_fn = (void *)0x0bf7635e;
 8002ad0:	9d01a623          	sw	a6,-1588(gp) # 2000052c <mbedtls_sha256_init_fn>
C:/Users/stapi/OneDrive/Desktop/GD32VW553/GD32VW55X_Wifi_BLE_SDK/GD32VW55x_RELEASE_V1.0.2/MSDK/plf/src/init_rom_symbol.c:316
        mbedtls_sha256_starts_fn = (void *)0x0bf763a6;
 8002ad4:	3a678513          	addi	a0,a5,934
C:/Users/stapi/OneDrive/Desktop/GD32VW553/GD32VW55X_Wifi_BLE_SDK/GD32VW55x_RELEASE_V1.0.2/MSDK/plf/src/init_rom_symbol.c:299
        mbedtls_rsa_private_sw_fn = (void *)0x0bf7496c;
 8002ad8:	98c1a623          	sw	a2,-1652(gp) # 200004ec <mbedtls_rsa_private_sw_fn>
C:/Users/stapi/OneDrive/Desktop/GD32VW553/GD32VW55X_Wifi_BLE_SDK/GD32VW55x_RELEASE_V1.0.2/MSDK/plf/src/init_rom_symbol.c:316
        mbedtls_sha256_starts_fn = (void *)0x0bf763a6;
 8002adc:	9ca1a823          	sw	a0,-1584(gp) # 20000530 <mbedtls_sha256_starts_fn>
C:/Users/stapi/OneDrive/Desktop/GD32VW553/GD32VW55X_Wifi_BLE_SDK/GD32VW55x_RELEASE_V1.0.2/MSDK/plf/src/init_rom_symbol.c:317
        mbedtls_sha256_starts_ret_fn = (void *)0x0bf7637c;
 8002ae0:	37c78613          	addi	a2,a5,892
C:/Users/stapi/OneDrive/Desktop/GD32VW553/GD32VW55X_Wifi_BLE_SDK/GD32VW55x_RELEASE_V1.0.2/MSDK/plf/src/init_rom_symbol.c:318
        mbedtls_sha256_update_fn = (void *)0x0bf763da;
 8002ae4:	3da78693          	addi	a3,a5,986
C:/Users/stapi/OneDrive/Desktop/GD32VW553/GD32VW55X_Wifi_BLE_SDK/GD32VW55x_RELEASE_V1.0.2/MSDK/plf/src/init_rom_symbol.c:317
        mbedtls_sha256_starts_ret_fn = (void *)0x0bf7637c;
 8002ae8:	9cc1aa23          	sw	a2,-1580(gp) # 20000534 <mbedtls_sha256_starts_ret_fn>
C:/Users/stapi/OneDrive/Desktop/GD32VW553/GD32VW55X_Wifi_BLE_SDK/GD32VW55x_RELEASE_V1.0.2/MSDK/plf/src/init_rom_symbol.c:318
        mbedtls_sha256_update_fn = (void *)0x0bf763da;
 8002aec:	9cd1ac23          	sw	a3,-1576(gp) # 20000538 <mbedtls_sha256_update_fn>
C:/Users/stapi/OneDrive/Desktop/GD32VW553/GD32VW55X_Wifi_BLE_SDK/GD32VW55x_RELEASE_V1.0.2/MSDK/plf/src/init_rom_symbol.c:319
        mbedtls_sha256_update_ret_fn = (void *)0x0bf763aa;
 8002af0:	3aa78793          	addi	a5,a5,938
 8002af4:	9cf1ae23          	sw	a5,-1572(gp) # 2000053c <mbedtls_sha256_update_ret_fn>
C:/Users/stapi/OneDrive/Desktop/GD32VW553/GD32VW55X_Wifi_BLE_SDK/GD32VW55x_RELEASE_V1.0.2/MSDK/plf/src/init_rom_symbol.c:331
}
 8002af8:	0141                	addi	sp,sp,16
 8002afa:	4320006f          	j	8002f2c <__riscv_restore_12>

08002afe <_close>:
_close():
 8002afe:	557d                	li	a0,-1
 8002b00:	8082                	ret

08002b02 <_fstat>:
_fstat():
 8002b02:	557d                	li	a0,-1
 8002b04:	8082                	ret

08002b06 <_isatty>:
_isatty():
C:/Users/stapi/OneDrive/Desktop/GD32VW553/GD32VW55X_Wifi_BLE_SDK/GD32VW55x_RELEASE_V1.0.2/MSDK/plf/riscv/arch/lib/lib_hook_mbl.c:60
}

int _isatty(int fd)
{
    return 0;
}
 8002b06:	4501                	li	a0,0
 8002b08:	8082                	ret

08002b0a <_lseek>:
_lseek():
C:/Users/stapi/OneDrive/Desktop/GD32VW553/GD32VW55X_Wifi_BLE_SDK/GD32VW55x_RELEASE_V1.0.2/MSDK/plf/riscv/arch/lib/lib_hook_mbl.c:65

int _lseek(int fd, int ptr, int dir)
{
    return -1;
}
 8002b0a:	557d                	li	a0,-1
 8002b0c:	8082                	ret

08002b0e <_read>:
_read():
C:/Users/stapi/OneDrive/Desktop/GD32VW553/GD32VW55X_Wifi_BLE_SDK/GD32VW55x_RELEASE_V1.0.2/MSDK/plf/riscv/arch/lib/lib_hook_mbl.c:70

int _read(int fd, void* ptr, size_t len)
{
    return -1;
}
 8002b0e:	557d                	li	a0,-1
 8002b10:	8082                	ret

08002b12 <system_clock_160m_40m_hxtal>:
system_clock_160m_40m_hxtal():
C:/Users/stapi/OneDrive/Desktop/GD32VW553/GD32VW55X_Wifi_BLE_SDK/GD32VW55x_RELEASE_V1.0.2/MSDK/plf/riscv/gd32vw55x/system_gd32vw55x.c:543
#if 0
    uint32_t stab_flag = 0U;
    uint32_t timeout = 0U;
#endif
    /* power up HXTAL */
    RCU_CTL |= RCU_CTL_HXTALPU;
 8002b12:	400247b7          	lui	a5,0x40024
 8002b16:	8007a703          	lw	a4,-2048(a5) # 40023800 <_sp+0x2001ef00>
C:/Users/stapi/OneDrive/Desktop/GD32VW553/GD32VW55X_Wifi_BLE_SDK/GD32VW55x_RELEASE_V1.0.2/MSDK/plf/riscv/gd32vw55x/system_gd32vw55x.c:568
        while(1){
        }
    }
#endif

    RCU_CTL |= RCU_CTL_HXTALREADY;
 8002b1a:	80000637          	lui	a2,0x80000
C:/Users/stapi/OneDrive/Desktop/GD32VW553/GD32VW55X_Wifi_BLE_SDK/GD32VW55x_RELEASE_V1.0.2/MSDK/plf/riscv/gd32vw55x/system_gd32vw55x.c:581
    RCU_CFG0 |= RCU_APB1_CKAHB_DIV2;

    RCU_PLL |= RCU_PLLSRC_HXTAL;

    /* PLLDIG = 960/HSE */
    RCU_PLLDIGCFG1 = ((960 << 21) / (HXTAL_VALUE/1000000)) & 0x7FFFFFFF;
 8002b1e:	03000537          	lui	a0,0x3000
C:/Users/stapi/OneDrive/Desktop/GD32VW553/GD32VW55X_Wifi_BLE_SDK/GD32VW55x_RELEASE_V1.0.2/MSDK/plf/riscv/gd32vw55x/system_gd32vw55x.c:543
    RCU_CTL |= RCU_CTL_HXTALPU;
 8002b22:	29c71713          	bseti	a4,a4,0x1c
 8002b26:	80e7a023          	sw	a4,-2048(a5)
C:/Users/stapi/OneDrive/Desktop/GD32VW553/GD32VW55X_Wifi_BLE_SDK/GD32VW55x_RELEASE_V1.0.2/MSDK/plf/riscv/gd32vw55x/system_gd32vw55x.c:545
    RCU_CTL |= RCU_CTL_HXTALEN;
 8002b2a:	8007a703          	lw	a4,-2048(a5)
C:/Users/stapi/OneDrive/Desktop/GD32VW553/GD32VW55X_Wifi_BLE_SDK/GD32VW55x_RELEASE_V1.0.2/MSDK/plf/riscv/gd32vw55x/system_gd32vw55x.c:591

    /* enable PLL */
    RCU_CFG1 |= (RCU_CFG1_RFPLLCALEN | RCU_CFG1_BGPU);
    RCU_CTL |= (RCU_CTL_PLLDIGEN | RCU_CTL_PLLDIGPU);
    /* wait until PLL is stable */
    while(0U == (RCU_CTL & RCU_CTL_PLLDIGSTB)){
 8002b2e:	008006b7          	lui	a3,0x800
C:/Users/stapi/OneDrive/Desktop/GD32VW553/GD32VW55X_Wifi_BLE_SDK/GD32VW55x_RELEASE_V1.0.2/MSDK/plf/riscv/gd32vw55x/system_gd32vw55x.c:545
    RCU_CTL |= RCU_CTL_HXTALEN;
 8002b32:	29071713          	bseti	a4,a4,0x10
 8002b36:	80e7a023          	sw	a4,-2048(a5)
C:/Users/stapi/OneDrive/Desktop/GD32VW553/GD32VW55X_Wifi_BLE_SDK/GD32VW55x_RELEASE_V1.0.2/MSDK/plf/riscv/gd32vw55x/system_gd32vw55x.c:568
    RCU_CTL |= RCU_CTL_HXTALREADY;
 8002b3a:	8007a583          	lw	a1,-2048(a5)
C:/Users/stapi/OneDrive/Desktop/GD32VW553/GD32VW55X_Wifi_BLE_SDK/GD32VW55x_RELEASE_V1.0.2/MSDK/plf/riscv/gd32vw55x/system_gd32vw55x.c:591
    while(0U == (RCU_CTL & RCU_CTL_PLLDIGSTB)){
 8002b3e:	40024737          	lui	a4,0x40024
C:/Users/stapi/OneDrive/Desktop/GD32VW553/GD32VW55X_Wifi_BLE_SDK/GD32VW55x_RELEASE_V1.0.2/MSDK/plf/riscv/gd32vw55x/system_gd32vw55x.c:568
    RCU_CTL |= RCU_CTL_HXTALREADY;
 8002b42:	8dd1                	or	a1,a1,a2
 8002b44:	80b7a023          	sw	a1,-2048(a5)
C:/Users/stapi/OneDrive/Desktop/GD32VW553/GD32VW55X_Wifi_BLE_SDK/GD32VW55x_RELEASE_V1.0.2/MSDK/plf/riscv/gd32vw55x/system_gd32vw55x.c:572
    RCU_CFG0 |= RCU_AHB_CKSYS_DIV1;
 8002b48:	8087a603          	lw	a2,-2040(a5)
 8002b4c:	80c7a423          	sw	a2,-2040(a5)
C:/Users/stapi/OneDrive/Desktop/GD32VW553/GD32VW55X_Wifi_BLE_SDK/GD32VW55x_RELEASE_V1.0.2/MSDK/plf/riscv/gd32vw55x/system_gd32vw55x.c:574
    RCU_CFG0 |= RCU_APB2_CKAHB_DIV1;
 8002b50:	8087a603          	lw	a2,-2040(a5)
 8002b54:	80c7a423          	sw	a2,-2040(a5)
C:/Users/stapi/OneDrive/Desktop/GD32VW553/GD32VW55X_Wifi_BLE_SDK/GD32VW55x_RELEASE_V1.0.2/MSDK/plf/riscv/gd32vw55x/system_gd32vw55x.c:576
    RCU_CFG0 |= RCU_APB1_CKAHB_DIV2;
 8002b58:	8087a583          	lw	a1,-2040(a5)
 8002b5c:	28c59593          	bseti	a1,a1,0xc
 8002b60:	80b7a423          	sw	a1,-2040(a5)
C:/Users/stapi/OneDrive/Desktop/GD32VW553/GD32VW55X_Wifi_BLE_SDK/GD32VW55x_RELEASE_V1.0.2/MSDK/plf/riscv/gd32vw55x/system_gd32vw55x.c:578
    RCU_PLL |= RCU_PLLSRC_HXTAL;
 8002b64:	8047a583          	lw	a1,-2044(a5)
 8002b68:	28f59593          	bseti	a1,a1,0xf
 8002b6c:	80b7a223          	sw	a1,-2044(a5)
C:/Users/stapi/OneDrive/Desktop/GD32VW553/GD32VW55X_Wifi_BLE_SDK/GD32VW55x_RELEASE_V1.0.2/MSDK/plf/riscv/gd32vw55x/system_gd32vw55x.c:581
    RCU_PLLDIGCFG1 = ((960 << 21) / (HXTAL_VALUE/1000000)) & 0x7FFFFFFF;
 8002b70:	88a7aa23          	sw	a0,-1900(a5)
C:/Users/stapi/OneDrive/Desktop/GD32VW553/GD32VW55X_Wifi_BLE_SDK/GD32VW55x_RELEASE_V1.0.2/MSDK/plf/riscv/gd32vw55x/system_gd32vw55x.c:583
    RCU_PLLDIGCFG0 |= ( RCU_PLLDIG_480M );
 8002b74:	8847a603          	lw	a2,-1916(a5)
C:/Users/stapi/OneDrive/Desktop/GD32VW553/GD32VW55X_Wifi_BLE_SDK/GD32VW55x_RELEASE_V1.0.2/MSDK/plf/riscv/gd32vw55x/system_gd32vw55x.c:588
    RCU_CFG1 |= (RCU_CFG1_RFPLLCALEN | RCU_CFG1_BGPU);
 8002b78:	000845b7          	lui	a1,0x84
C:/Users/stapi/OneDrive/Desktop/GD32VW553/GD32VW55X_Wifi_BLE_SDK/GD32VW55x_RELEASE_V1.0.2/MSDK/plf/riscv/gd32vw55x/system_gd32vw55x.c:583
    RCU_PLLDIGCFG0 |= ( RCU_PLLDIG_480M );
 8002b7c:	8e49                	or	a2,a2,a0
 8002b7e:	88c7a223          	sw	a2,-1916(a5)
C:/Users/stapi/OneDrive/Desktop/GD32VW553/GD32VW55X_Wifi_BLE_SDK/GD32VW55x_RELEASE_V1.0.2/MSDK/plf/riscv/gd32vw55x/system_gd32vw55x.c:585
    RCU_PLLDIGCFG0 |= ( RCU_PLLDIG_SYS_DIV3 );
 8002b82:	8847a603          	lw	a2,-1916(a5)
 8002b86:	29b61613          	bseti	a2,a2,0x1b
 8002b8a:	88c7a223          	sw	a2,-1916(a5)
C:/Users/stapi/OneDrive/Desktop/GD32VW553/GD32VW55X_Wifi_BLE_SDK/GD32VW55x_RELEASE_V1.0.2/MSDK/plf/riscv/gd32vw55x/system_gd32vw55x.c:588
    RCU_CFG1 |= (RCU_CFG1_RFPLLCALEN | RCU_CFG1_BGPU);
 8002b8e:	88c7a603          	lw	a2,-1908(a5)
 8002b92:	8e4d                	or	a2,a2,a1
 8002b94:	88c7a623          	sw	a2,-1908(a5)
C:/Users/stapi/OneDrive/Desktop/GD32VW553/GD32VW55X_Wifi_BLE_SDK/GD32VW55x_RELEASE_V1.0.2/MSDK/plf/riscv/gd32vw55x/system_gd32vw55x.c:589
    RCU_CTL |= (RCU_CTL_PLLDIGEN | RCU_CTL_PLLDIGPU);
 8002b98:	8007a603          	lw	a2,-2048(a5)
 8002b9c:	003005b7          	lui	a1,0x300
 8002ba0:	8e4d                	or	a2,a2,a1
 8002ba2:	80c7a023          	sw	a2,-2048(a5)
C:/Users/stapi/OneDrive/Desktop/GD32VW553/GD32VW55X_Wifi_BLE_SDK/GD32VW55x_RELEASE_V1.0.2/MSDK/plf/riscv/gd32vw55x/system_gd32vw55x.c:591 (discriminator 1)
    while(0U == (RCU_CTL & RCU_CTL_PLLDIGSTB)){
 8002ba6:	80072783          	lw	a5,-2048(a4) # 40023800 <_sp+0x2001ef00>
 8002baa:	8ff5                	and	a5,a5,a3
 8002bac:	dfed                	beqz	a5,8002ba6 <system_clock_160m_40m_hxtal+0x94>
C:/Users/stapi/OneDrive/Desktop/GD32VW553/GD32VW55X_Wifi_BLE_SDK/GD32VW55x_RELEASE_V1.0.2/MSDK/plf/riscv/gd32vw55x/system_gd32vw55x.c:594
    }
    /* select PLL as system clock */
    RCU_CFG0 &= ~RCU_CFG0_SCS;
 8002bae:	80872783          	lw	a5,-2040(a4)
C:/Users/stapi/OneDrive/Desktop/GD32VW553/GD32VW55X_Wifi_BLE_SDK/GD32VW55x_RELEASE_V1.0.2/MSDK/plf/riscv/gd32vw55x/system_gd32vw55x.c:598
    RCU_CFG0 |= RCU_CKSYSSRC_PLLDIG;

    /* wait until PLL is selected as system clock */
    while(RCU_SCSS_PLLDIG != (RCU_CFG0 & RCU_CFG0_SCSS)){
 8002bb2:	40024637          	lui	a2,0x40024
 8002bb6:	46a1                	li	a3,8
C:/Users/stapi/OneDrive/Desktop/GD32VW553/GD32VW55X_Wifi_BLE_SDK/GD32VW55x_RELEASE_V1.0.2/MSDK/plf/riscv/gd32vw55x/system_gd32vw55x.c:594
    RCU_CFG0 &= ~RCU_CFG0_SCS;
 8002bb8:	9bf1                	andi	a5,a5,-4
 8002bba:	80f72423          	sw	a5,-2040(a4)
C:/Users/stapi/OneDrive/Desktop/GD32VW553/GD32VW55X_Wifi_BLE_SDK/GD32VW55x_RELEASE_V1.0.2/MSDK/plf/riscv/gd32vw55x/system_gd32vw55x.c:595
    RCU_CFG0 |= RCU_CKSYSSRC_PLLDIG;
 8002bbe:	80872783          	lw	a5,-2040(a4)
 8002bc2:	0027e793          	ori	a5,a5,2
 8002bc6:	80f72423          	sw	a5,-2040(a4)
C:/Users/stapi/OneDrive/Desktop/GD32VW553/GD32VW55X_Wifi_BLE_SDK/GD32VW55x_RELEASE_V1.0.2/MSDK/plf/riscv/gd32vw55x/system_gd32vw55x.c:598 (discriminator 1)
    while(RCU_SCSS_PLLDIG != (RCU_CFG0 & RCU_CFG0_SCSS)){
 8002bca:	80862783          	lw	a5,-2040(a2) # 40023808 <_sp+0x2001ef08>
 8002bce:	8bb1                	andi	a5,a5,12
 8002bd0:	fed79de3          	bne	a5,a3,8002bca <system_clock_160m_40m_hxtal+0xb8>
C:/Users/stapi/OneDrive/Desktop/GD32VW553/GD32VW55X_Wifi_BLE_SDK/GD32VW55x_RELEASE_V1.0.2/MSDK/plf/riscv/gd32vw55x/system_gd32vw55x.c:600
    }
}
 8002bd4:	8082                	ret

08002bd6 <SystemInit>:
SystemInit():
C:/Users/stapi/OneDrive/Desktop/GD32VW553/GD32VW55X_Wifi_BLE_SDK/GD32VW55x_RELEASE_V1.0.2/MSDK/plf/riscv/gd32vw55x/system_gd32vw55x.c:119
{
 8002bd6:	34a002ef          	jal	t0,8002f20 <__riscv_save_0>
C:/Users/stapi/OneDrive/Desktop/GD32VW553/GD32VW55X_Wifi_BLE_SDK/GD32VW55x_RELEASE_V1.0.2/MSDK/plf/riscv/gd32vw55x/system_gd32vw55x.c:122
    RCU_CTL |= RCU_CTL_IRC16MEN;
 8002bda:	400247b7          	lui	a5,0x40024
 8002bde:	8007a703          	lw	a4,-2048(a5) # 40023800 <_sp+0x2001ef00>
C:/Users/stapi/OneDrive/Desktop/GD32VW553/GD32VW55X_Wifi_BLE_SDK/GD32VW55x_RELEASE_V1.0.2/MSDK/plf/riscv/gd32vw55x/system_gd32vw55x.c:127
    RCU_CFG1 &= ~(RCU_CFG1_RFPLLCALEN | RCU_CFG1_RFPLLPU);
 8002be2:	76b1                	lui	a3,0xfffec
 8002be4:	16fd                	addi	a3,a3,-1
C:/Users/stapi/OneDrive/Desktop/GD32VW553/GD32VW55X_Wifi_BLE_SDK/GD32VW55x_RELEASE_V1.0.2/MSDK/plf/riscv/gd32vw55x/system_gd32vw55x.c:122
    RCU_CTL |= RCU_CTL_IRC16MEN;
 8002be6:	00176713          	ori	a4,a4,1
 8002bea:	80e7a023          	sw	a4,-2048(a5)
C:/Users/stapi/OneDrive/Desktop/GD32VW553/GD32VW55X_Wifi_BLE_SDK/GD32VW55x_RELEASE_V1.0.2/MSDK/plf/riscv/gd32vw55x/system_gd32vw55x.c:123
    RCU_CFG0 &= ~RCU_CFG0_SCS;
 8002bee:	8087a703          	lw	a4,-2040(a5)
 8002bf2:	9b71                	andi	a4,a4,-4
 8002bf4:	80e7a423          	sw	a4,-2040(a5)
C:/Users/stapi/OneDrive/Desktop/GD32VW553/GD32VW55X_Wifi_BLE_SDK/GD32VW55x_RELEASE_V1.0.2/MSDK/plf/riscv/gd32vw55x/system_gd32vw55x.c:125
    RCU_CFG0 = 0x00000000U;
 8002bf8:	8007a423          	sw	zero,-2040(a5)
C:/Users/stapi/OneDrive/Desktop/GD32VW553/GD32VW55X_Wifi_BLE_SDK/GD32VW55x_RELEASE_V1.0.2/MSDK/plf/riscv/gd32vw55x/system_gd32vw55x.c:127
    RCU_CFG1 &= ~(RCU_CFG1_RFPLLCALEN | RCU_CFG1_RFPLLPU);
 8002bfc:	88c7a703          	lw	a4,-1908(a5)
 8002c00:	8f75                	and	a4,a4,a3
 8002c02:	88e7a623          	sw	a4,-1908(a5)
C:/Users/stapi/OneDrive/Desktop/GD32VW553/GD32VW55X_Wifi_BLE_SDK/GD32VW55x_RELEASE_V1.0.2/MSDK/plf/riscv/gd32vw55x/system_gd32vw55x.c:130
    RCU_CTL &= ~(RCU_CTL_PLLDIGEN | RCU_CTL_PLLDIGPU | RCU_CTL_RFCKMEN | RCU_CTL_HXTALEN);
 8002c06:	8007a703          	lw	a4,-2048(a5)
 8002c0a:	ff8f06b7          	lui	a3,0xff8f0
 8002c0e:	16fd                	addi	a3,a3,-1
 8002c10:	8f75                	and	a4,a4,a3
 8002c12:	80e7a023          	sw	a4,-2048(a5)
C:/Users/stapi/OneDrive/Desktop/GD32VW553/GD32VW55X_Wifi_BLE_SDK/GD32VW55x_RELEASE_V1.0.2/MSDK/plf/riscv/gd32vw55x/system_gd32vw55x.c:133
    RCU_PLL = 0x00000000U;
 8002c16:	8007a223          	sw	zero,-2044(a5)
C:/Users/stapi/OneDrive/Desktop/GD32VW553/GD32VW55X_Wifi_BLE_SDK/GD32VW55x_RELEASE_V1.0.2/MSDK/plf/riscv/gd32vw55x/system_gd32vw55x.c:134
    RCU_PLLDIGCFG0 = 0x00000000U;
 8002c1a:	8807a223          	sw	zero,-1916(a5)
C:/Users/stapi/OneDrive/Desktop/GD32VW553/GD32VW55X_Wifi_BLE_SDK/GD32VW55x_RELEASE_V1.0.2/MSDK/plf/riscv/gd32vw55x/system_gd32vw55x.c:135
    RCU_PLLDIGCFG1 = 0x07800000U;
 8002c1e:	07800737          	lui	a4,0x7800
 8002c22:	88e7aa23          	sw	a4,-1900(a5)
C:/Users/stapi/OneDrive/Desktop/GD32VW553/GD32VW55X_Wifi_BLE_SDK/GD32VW55x_RELEASE_V1.0.2/MSDK/plf/riscv/gd32vw55x/system_gd32vw55x.c:138
    RCU_INT = 0x00000000U;
 8002c26:	8007a623          	sw	zero,-2036(a5)
system_clock_config():
C:/Users/stapi/OneDrive/Desktop/GD32VW553/GD32VW55X_Wifi_BLE_SDK/GD32VW55x_RELEASE_V1.0.2/MSDK/plf/riscv/gd32vw55x/system_gd32vw55x.c:170
    system_clock_160m_40m_hxtal();
 8002c2a:	35e5                	jal	8002b12 <system_clock_160m_40m_hxtal>
SysTimer_GetControlValue():
C:\Users\stapi\OneDrive\Desktop\GD32VW553\GD32VW55X_Wifi_BLE_SDK\GD32VW55x_RELEASE_V1.0.2\MBL\project\eclipse\Debug/../../../../MSDK/plf/riscv/NMSIS/Core/Include/core_feature_timer.h:222
 * \remarks
 * - \ref SysTimer_SetControlValue
 */
__STATIC_FORCEINLINE uint32_t SysTimer_GetControlValue(void)
{
    return (SysTimer->MTIMECTL & SysTimer_MTIMECTL_Msk);
 8002c2c:	d1001737          	lui	a4,0xd1001
 8002c30:	ff872783          	lw	a5,-8(a4) # d1000ff8 <_sp+0xb0ffc6f8>
SystemInit():
C:/Users/stapi/OneDrive/Desktop/GD32VW553/GD32VW55X_Wifi_BLE_SDK/GD32VW55x_RELEASE_V1.0.2/MSDK/plf/riscv/gd32vw55x/system_gd32vw55x.c:145
    SysTimer_SetControlValue(SysTimer_GetControlValue() | SysTimer_MTIMECTL_CLKSRC_Msk);
 8002c34:	0047e793          	ori	a5,a5,4
SysTimer_SetControlValue():
C:\Users\stapi\OneDrive\Desktop\GD32VW553\GD32VW55X_Wifi_BLE_SDK\GD32VW55x_RELEASE_V1.0.2\MBL\project\eclipse\Debug/../../../../MSDK/plf/riscv/NMSIS/Core/Include/core_feature_timer.h:209
    SysTimer->MTIMECTL = (mctl & SysTimer_MTIMECTL_Msk);
 8002c38:	fef72c23          	sw	a5,-8(a4)
MInvalICache():
C:\Users\stapi\OneDrive\Desktop\GD32VW553\GD32VW55X_Wifi_BLE_SDK\GD32VW55x_RELEASE_V1.0.2\MBL\project\eclipse\Debug/../../../../MSDK/plf/riscv/NMSIS/Core/Include/core_feature_cache.h:613
 * This function must be executed in M-Mode only.
 * \param [in]    addr    start address to be invalidated
 */
__STATIC_FORCEINLINE void MInvalICache(void)
{
    __RV_CSR_WRITE(CSR_CCM_MCOMMAND, CCM_IC_INVAL_ALL);
 8002c3c:	47b5                	li	a5,13
 8002c3e:	7cc79073          	csrw	ccm_mcommand,a5
SystemInit():
C:/Users/stapi/OneDrive/Desktop/GD32VW553/GD32VW55X_Wifi_BLE_SDK/GD32VW55x_RELEASE_V1.0.2/MSDK/plf/riscv/gd32vw55x/system_gd32vw55x.c:148
}
 8002c42:	a609                	j	8002f44 <__riscv_restore_0>

08002c44 <_write>:
_write():
C:/Users/stapi/OneDrive/Desktop/GD32VW553/GD32VW55X_Wifi_BLE_SDK/GD32VW55x_RELEASE_V1.0.2/MBL/mainboot/mbl.c:62
{
 8002c44:	2c2002ef          	jal	t0,8002f06 <__riscv_save_4>
C:/Users/stapi/OneDrive/Desktop/GD32VW553/GD32VW55X_Wifi_BLE_SDK/GD32VW55x_RELEASE_V1.0.2/MBL/mainboot/mbl.c:67
    while (i != len) {
 8002c48:	c631                	beqz	a2,8002c94 <_write+0x50>
C:/Users/stapi/OneDrive/Desktop/GD32VW553/GD32VW55X_Wifi_BLE_SDK/GD32VW55x_RELEASE_V1.0.2/MBL/mainboot/mbl.c:68
        while(RESET == usart_flag_get(LOG_UART, USART_FLAG_TBE));
 8002c4a:	40004437          	lui	s0,0x40004
 8002c4e:	8932                	mv	s2,a2
 8002c50:	89ae                	mv	s3,a1
C:/Users/stapi/OneDrive/Desktop/GD32VW553/GD32VW55X_Wifi_BLE_SDK/GD32VW55x_RELEASE_V1.0.2/MBL/mainboot/mbl.c:64
    int32_t i = 0;
 8002c52:	4481                	li	s1,0
C:/Users/stapi/OneDrive/Desktop/GD32VW553/GD32VW55X_Wifi_BLE_SDK/GD32VW55x_RELEASE_V1.0.2/MBL/mainboot/mbl.c:68
        while(RESET == usart_flag_get(LOG_UART, USART_FLAG_TBE));
 8002c54:	40040413          	addi	s0,s0,1024 # 40004400 <_sp+0x1ffffb00>
C:/Users/stapi/OneDrive/Desktop/GD32VW553/GD32VW55X_Wifi_BLE_SDK/GD32VW55x_RELEASE_V1.0.2/MBL/mainboot/mbl.c:68 (discriminator 1)
 8002c58:	70700593          	li	a1,1799
 8002c5c:	8522                	mv	a0,s0
 8002c5e:	c04ff0ef          	jal	ra,8002062 <usart_flag_get>
 8002c62:	d97d                	beqz	a0,8002c58 <_write+0x14>
C:/Users/stapi/OneDrive/Desktop/GD32VW553/GD32VW55X_Wifi_BLE_SDK/GD32VW55x_RELEASE_V1.0.2/MBL/mainboot/mbl.c:69
        usart_data_transmit(LOG_UART, *str);
 8002c64:	009987b3          	add	a5,s3,s1
 8002c68:	8522                	mv	a0,s0
C:/Users/stapi/OneDrive/Desktop/GD32VW553/GD32VW55X_Wifi_BLE_SDK/GD32VW55x_RELEASE_V1.0.2/MBL/mainboot/mbl.c:71
        i++;
 8002c6a:	0485                	addi	s1,s1,1
C:/Users/stapi/OneDrive/Desktop/GD32VW553/GD32VW55X_Wifi_BLE_SDK/GD32VW55x_RELEASE_V1.0.2/MBL/mainboot/mbl.c:69
        usart_data_transmit(LOG_UART, *str);
 8002c6c:	00078583          	lb	a1,0(a5)
 8002c70:	0805c5b3          	zext.h	a1,a1
 8002c74:	be6ff0ef          	jal	ra,800205a <usart_data_transmit>
C:/Users/stapi/OneDrive/Desktop/GD32VW553/GD32VW55X_Wifi_BLE_SDK/GD32VW55x_RELEASE_V1.0.2/MBL/mainboot/mbl.c:67
    while (i != len) {
 8002c78:	fe9910e3          	bne	s2,s1,8002c58 <_write+0x14>
C:/Users/stapi/OneDrive/Desktop/GD32VW553/GD32VW55X_Wifi_BLE_SDK/GD32VW55x_RELEASE_V1.0.2/MBL/mainboot/mbl.c:74
    while(RESET == usart_flag_get(LOG_UART, USART_FLAG_TC));
 8002c7c:	40004437          	lui	s0,0x40004
 8002c80:	40040413          	addi	s0,s0,1024 # 40004400 <_sp+0x1ffffb00>
C:/Users/stapi/OneDrive/Desktop/GD32VW553/GD32VW55X_Wifi_BLE_SDK/GD32VW55x_RELEASE_V1.0.2/MBL/mainboot/mbl.c:74 (discriminator 1)
 8002c84:	70600593          	li	a1,1798
 8002c88:	8522                	mv	a0,s0
 8002c8a:	bd8ff0ef          	jal	ra,8002062 <usart_flag_get>
 8002c8e:	d97d                	beqz	a0,8002c84 <_write+0x40>
C:/Users/stapi/OneDrive/Desktop/GD32VW553/GD32VW55X_Wifi_BLE_SDK/GD32VW55x_RELEASE_V1.0.2/MBL/mainboot/mbl.c:77
}
 8002c90:	8526                	mv	a0,s1
 8002c92:	a465                	j	8002f3a <__riscv_restore_4>
C:/Users/stapi/OneDrive/Desktop/GD32VW553/GD32VW55X_Wifi_BLE_SDK/GD32VW55x_RELEASE_V1.0.2/MBL/mainboot/mbl.c:64
    int32_t i = 0;
 8002c94:	4481                	li	s1,0
 8002c96:	b7dd                	j	8002c7c <_write+0x38>

08002c98 <log_uart_idle_wait>:
log_uart_idle_wait():
C:/Users/stapi/OneDrive/Desktop/GD32VW553/GD32VW55X_Wifi_BLE_SDK/GD32VW55x_RELEASE_V1.0.2/MBL/mainboot/mbl.c:139
{
 8002c98:	288002ef          	jal	t0,8002f20 <__riscv_save_0>
C:/Users/stapi/OneDrive/Desktop/GD32VW553/GD32VW55X_Wifi_BLE_SDK/GD32VW55x_RELEASE_V1.0.2/MBL/mainboot/mbl.c:140
    while (RESET == usart_flag_get(LOG_UART, USART_FLAG_TC));
 8002c9c:	40004437          	lui	s0,0x40004
 8002ca0:	40040413          	addi	s0,s0,1024 # 40004400 <_sp+0x1ffffb00>
C:/Users/stapi/OneDrive/Desktop/GD32VW553/GD32VW55X_Wifi_BLE_SDK/GD32VW55x_RELEASE_V1.0.2/MBL/mainboot/mbl.c:140 (discriminator 1)
 8002ca4:	70600593          	li	a1,1798
 8002ca8:	8522                	mv	a0,s0
 8002caa:	bb8ff0ef          	jal	ra,8002062 <usart_flag_get>
 8002cae:	d97d                	beqz	a0,8002ca4 <log_uart_idle_wait+0xc>
C:/Users/stapi/OneDrive/Desktop/GD32VW553/GD32VW55X_Wifi_BLE_SDK/GD32VW55x_RELEASE_V1.0.2/MBL/mainboot/mbl.c:141
}
 8002cb0:	ac51                	j	8002f44 <__riscv_restore_0>

08002cb2 <flash_offset_mapping>:
flash_offset_mapping():
C:/Users/stapi/OneDrive/Desktop/GD32VW553/GD32VW55X_Wifi_BLE_SDK/GD32VW55x_RELEASE_V1.0.2/MBL/mainboot/mbl.c:150
{
 8002cb2:	26e002ef          	jal	t0,8002f20 <__riscv_save_0>
C:/Users/stapi/OneDrive/Desktop/GD32VW553/GD32VW55X_Wifi_BLE_SDK/GD32VW55x_RELEASE_V1.0.2/MBL/mainboot/mbl.c:151
    fmc_unlock();
 8002cb6:	f5ffe0ef          	jal	ra,8001c14 <fmc_unlock>
C:/Users/stapi/OneDrive/Desktop/GD32VW553/GD32VW55X_Wifi_BLE_SDK/GD32VW55x_RELEASE_V1.0.2/MBL/mainboot/mbl.c:152
    ob_unlock();
 8002cba:	f8bfe0ef          	jal	ra,8001c44 <ob_unlock>
C:/Users/stapi/OneDrive/Desktop/GD32VW553/GD32VW55X_Wifi_BLE_SDK/GD32VW55x_RELEASE_V1.0.2/MBL/mainboot/mbl.c:153
    fmc_offset_region_config(RE_IMG_0_OFFSET >> 12, (RE_IMG_1_OFFSET >> 12) - 1);
 8002cbe:	1df00593          	li	a1,479
 8002cc2:	4529                	li	a0,10
 8002cc4:	fb1fe0ef          	jal	ra,8001c74 <fmc_offset_region_config>
C:/Users/stapi/OneDrive/Desktop/GD32VW553/GD32VW55X_Wifi_BLE_SDK/GD32VW55x_RELEASE_V1.0.2/MBL/mainboot/mbl.c:154
    fmc_offset_value_config((RE_IMG_1_OFFSET - RE_IMG_0_OFFSET) >> 12);
 8002cc8:	1d600513          	li	a0,470
 8002ccc:	fc9fe0ef          	jal	ra,8001c94 <fmc_offset_value_config>
C:/Users/stapi/OneDrive/Desktop/GD32VW553/GD32VW55X_Wifi_BLE_SDK/GD32VW55x_RELEASE_V1.0.2/MBL/mainboot/mbl.c:155
    ob_lock();
 8002cd0:	f97fe0ef          	jal	ra,8001c66 <ob_lock>
C:/Users/stapi/OneDrive/Desktop/GD32VW553/GD32VW55X_Wifi_BLE_SDK/GD32VW55x_RELEASE_V1.0.2/MBL/mainboot/mbl.c:156
    fmc_lock();
 8002cd4:	f63fe0ef          	jal	ra,8001c36 <fmc_lock>
C:/Users/stapi/OneDrive/Desktop/GD32VW553/GD32VW55X_Wifi_BLE_SDK/GD32VW55x_RELEASE_V1.0.2/MBL/mainboot/mbl.c:157
}
 8002cd8:	a4b5                	j	8002f44 <__riscv_restore_0>

08002cda <reloc_iv>:
reloc_iv():
C:/Users/stapi/OneDrive/Desktop/GD32VW553/GD32VW55X_Wifi_BLE_SDK/GD32VW55x_RELEASE_V1.0.2/MBL/mainboot/mbl.c:182
    __asm volatile("csrw mtvec, %0":: "r"(address + 1));
 8002cda:	0511                	addi	a0,a0,4
 8002cdc:	30551073          	csrw	mtvec,a0
C:/Users/stapi/OneDrive/Desktop/GD32VW553/GD32VW55X_Wifi_BLE_SDK/GD32VW55x_RELEASE_V1.0.2/MBL/mainboot/mbl.c:183
}
 8002ce0:	8082                	ret

08002ce2 <boot_image_find>:
boot_image_find():
C:/Users/stapi/OneDrive/Desktop/GD32VW553/GD32VW55X_Wifi_BLE_SDK/GD32VW55x_RELEASE_V1.0.2/MBL/mainboot/mbl_image_validate.c:52
      \arg        -4: image1 has downloaded but image0 has not downloaded
      \arg        -5: other fail
      \arg        -6: read image address from system setting fail
*/
int boot_image_find(OUT uint32_t *idx, OUT uint32_t *image_offset)
{
 8002ce2:	224002ef          	jal	t0,8002f06 <__riscv_save_4>
 8002ce6:	1141                	addi	sp,sp,-16
C:/Users/stapi/OneDrive/Desktop/GD32VW553/GD32VW55X_Wifi_BLE_SDK/GD32VW55x_RELEASE_V1.0.2/MBL/mainboot/mbl_image_validate.c:53
    uint8_t img0_stat = 0, img1_stat = 0;
 8002ce8:	00010723          	sb	zero,14(sp)
 8002cec:	000107a3          	sb	zero,15(sp)
C:/Users/stapi/OneDrive/Desktop/GD32VW553/GD32VW55X_Wifi_BLE_SDK/GD32VW55x_RELEASE_V1.0.2/MBL/mainboot/mbl_image_validate.c:61
#endif
    uint8_t img0_found = 0, img1_found = 0;
    int boot_idx = -1;
    int ret, result = 0;

    if (NULL == image_offset) {
 8002cf0:	0e058d63          	beqz	a1,8002dea <boot_image_find+0x108>
C:/Users/stapi/OneDrive/Desktop/GD32VW553/GD32VW55X_Wifi_BLE_SDK/GD32VW55x_RELEASE_V1.0.2/MBL/mainboot/mbl_image_validate.c:66
        result = -1;
        goto Failed;
    }

    ret = rom_sys_status_get(SYS_IMAGE0_STATUS, LEN_SYS_IMAGE_STATUS, &img0_stat);
 8002cf4:	20000937          	lui	s2,0x20000
 8002cf8:	36092783          	lw	a5,864(s2) # 20000360 <p_rom_api>
 8002cfc:	84ae                	mv	s1,a1
 8002cfe:	8a2a                	mv	s4,a0
 8002d00:	5bdc                	lw	a5,52(a5)
 8002d02:	00e10613          	addi	a2,sp,14
 8002d06:	4585                	li	a1,1
 8002d08:	450d                	li	a0,3
 8002d0a:	9782                	jalr	a5
C:/Users/stapi/OneDrive/Desktop/GD32VW553/GD32VW55X_Wifi_BLE_SDK/GD32VW55x_RELEASE_V1.0.2/MBL/mainboot/mbl_image_validate.c:67
    if (ret <= SYS_STATUS_FOUND_ERR) {
 8002d0c:	59fd                	li	s3,-1
C:/Users/stapi/OneDrive/Desktop/GD32VW553/GD32VW55X_Wifi_BLE_SDK/GD32VW55x_RELEASE_V1.0.2/MBL/mainboot/mbl_image_validate.c:66
    ret = rom_sys_status_get(SYS_IMAGE0_STATUS, LEN_SYS_IMAGE_STATUS, &img0_stat);
 8002d0e:	842a                	mv	s0,a0
C:/Users/stapi/OneDrive/Desktop/GD32VW553/GD32VW55X_Wifi_BLE_SDK/GD32VW55x_RELEASE_V1.0.2/MBL/mainboot/mbl_image_validate.c:67
    if (ret <= SYS_STATUS_FOUND_ERR) {
 8002d10:	0d354963          	blt	a0,s3,8002de2 <boot_image_find+0x100>
C:/Users/stapi/OneDrive/Desktop/GD32VW553/GD32VW55X_Wifi_BLE_SDK/GD32VW55x_RELEASE_V1.0.2/MBL/mainboot/mbl_image_validate.c:75
    } else if (ret == SYS_STATUS_FOUND_OK) {
        img0_found = 1;
    } else {  // SYS_STATUS_NOT_FOUND
        img0_found = 0;
    }
    ret = rom_sys_status_get(SYS_IMAGE1_STATUS, LEN_SYS_IMAGE_STATUS, &img1_stat);
 8002d14:	36092783          	lw	a5,864(s2)
 8002d18:	00f10613          	addi	a2,sp,15
 8002d1c:	4585                	li	a1,1
 8002d1e:	5bdc                	lw	a5,52(a5)
 8002d20:	4511                	li	a0,4
 8002d22:	9782                	jalr	a5
C:/Users/stapi/OneDrive/Desktop/GD32VW553/GD32VW55X_Wifi_BLE_SDK/GD32VW55x_RELEASE_V1.0.2/MBL/mainboot/mbl_image_validate.c:76
    if (ret <= SYS_STATUS_FOUND_ERR) {
 8002d24:	0d354163          	blt	a0,s3,8002de6 <boot_image_find+0x104>
C:/Users/stapi/OneDrive/Desktop/GD32VW553/GD32VW55X_Wifi_BLE_SDK/GD32VW55x_RELEASE_V1.0.2/MBL/mainboot/mbl_image_validate.c:79
        result = -3;
        goto Failed;
    } else if (ret == SYS_STATUS_FOUND_OK) {
 8002d28:	e90d                	bnez	a0,8002d5a <boot_image_find+0x78>
C:/Users/stapi/OneDrive/Desktop/GD32VW553/GD32VW55X_Wifi_BLE_SDK/GD32VW55x_RELEASE_V1.0.2/MBL/mainboot/mbl_image_validate.c:87
        img1_found = 0;
    }

    /* Image0 never downloaded, Image1 should not be downloaded too. */
    if (!img0_found && img1_found) {
        result = -4;
 8002d2a:	5571                	li	a0,-4
C:/Users/stapi/OneDrive/Desktop/GD32VW553/GD32VW55X_Wifi_BLE_SDK/GD32VW55x_RELEASE_V1.0.2/MBL/mainboot/mbl_image_validate.c:86
    if (!img0_found && img1_found) {
 8002d2c:	ec25                	bnez	s0,8002da4 <boot_image_find+0xc2>
C:/Users/stapi/OneDrive/Desktop/GD32VW553/GD32VW55X_Wifi_BLE_SDK/GD32VW55x_RELEASE_V1.0.2/MBL/mainboot/mbl_image_validate.c:98
        rom_sys_set_img_flag(IMAGE_0, IMG_FLAG_NEWER_MASK, IMG_FLAG_NEWER);
        boot_idx = 0;
        goto ImgSelected;
    }

    if (img0_found && ((img0_stat & IMG_FLAG_NEWER_MASK) == IMG_FLAG_NEWER)) {
 8002d2e:	00e14783          	lbu	a5,14(sp)
 8002d32:	0017f713          	andi	a4,a5,1
 8002d36:	eb2d                	bnez	a4,8002da8 <boot_image_find+0xc6>
C:/Users/stapi/OneDrive/Desktop/GD32VW553/GD32VW55X_Wifi_BLE_SDK/GD32VW55x_RELEASE_V1.0.2/MBL/mainboot/mbl_image_validate.c:106
            boot_idx = 0;
            goto ImgSelected;
        }
    }

    if (img1_found && ((img1_stat & IMG_FLAG_NEWER_MASK) == IMG_FLAG_NEWER)) {
 8002d38:	00f14783          	lbu	a5,15(sp)
 8002d3c:	0017f713          	andi	a4,a5,1
 8002d40:	c741                	beqz	a4,8002dc8 <boot_image_find+0xe6>
C:/Users/stapi/OneDrive/Desktop/GD32VW553/GD32VW55X_Wifi_BLE_SDK/GD32VW55x_RELEASE_V1.0.2/MBL/mainboot/mbl_image_validate.c:107
        if (((img1_stat & IMG_FLAG_VERIFY_MASK) != IMG_FLAG_VERIFY_FAIL)
 8002d42:	0067f713          	andi	a4,a5,6
 8002d46:	4691                	li	a3,4
 8002d48:	08d70063          	beq	a4,a3,8002dc8 <boot_image_find+0xe6>
C:/Users/stapi/OneDrive/Desktop/GD32VW553/GD32VW55X_Wifi_BLE_SDK/GD32VW55x_RELEASE_V1.0.2/MBL/mainboot/mbl_image_validate.c:108
            && ((img1_stat & IMG_FLAG_IA_MASK) != IMG_FLAG_IA_FAIL)) {
 8002d4c:	0187f713          	andi	a4,a5,24
 8002d50:	46c1                	li	a3,16
 8002d52:	06d70b63          	beq	a4,a3,8002dc8 <boot_image_find+0xe6>
 8002d56:	4785                	li	a5,1
 8002d58:	a089                	j	8002d9a <boot_image_find+0xb8>
C:/Users/stapi/OneDrive/Desktop/GD32VW553/GD32VW55X_Wifi_BLE_SDK/GD32VW55x_RELEASE_V1.0.2/MBL/mainboot/mbl_image_validate.c:91
    if (!img0_found && !img1_found) {
 8002d5a:	e805                	bnez	s0,8002d8a <boot_image_find+0xa8>
C:/Users/stapi/OneDrive/Desktop/GD32VW553/GD32VW55X_Wifi_BLE_SDK/GD32VW55x_RELEASE_V1.0.2/MBL/mainboot/mbl_image_validate.c:98 (discriminator 1)
    if (img0_found && ((img0_stat & IMG_FLAG_NEWER_MASK) == IMG_FLAG_NEWER)) {
 8002d5c:	00e14783          	lbu	a5,14(sp)
 8002d60:	0017f713          	andi	a4,a5,1
 8002d64:	cb11                	beqz	a4,8002d78 <boot_image_find+0x96>
C:/Users/stapi/OneDrive/Desktop/GD32VW553/GD32VW55X_Wifi_BLE_SDK/GD32VW55x_RELEASE_V1.0.2/MBL/mainboot/mbl_image_validate.c:99
        if (((img0_stat & IMG_FLAG_VERIFY_MASK) != IMG_FLAG_VERIFY_FAIL)
 8002d66:	0067f713          	andi	a4,a5,6
 8002d6a:	4691                	li	a3,4
 8002d6c:	00d70663          	beq	a4,a3,8002d78 <boot_image_find+0x96>
C:/Users/stapi/OneDrive/Desktop/GD32VW553/GD32VW55X_Wifi_BLE_SDK/GD32VW55x_RELEASE_V1.0.2/MBL/mainboot/mbl_image_validate.c:100
            && ((img0_stat & IMG_FLAG_IA_MASK) != IMG_FLAG_IA_FAIL)) {
 8002d70:	8be1                	andi	a5,a5,24
 8002d72:	4741                	li	a4,16
 8002d74:	06e79563          	bne	a5,a4,8002dde <boot_image_find+0xfc>
C:/Users/stapi/OneDrive/Desktop/GD32VW553/GD32VW55X_Wifi_BLE_SDK/GD32VW55x_RELEASE_V1.0.2/MBL/mainboot/mbl_image_validate.c:115
            goto ImgSelected;
        }
    }

    if (img0_found && ((img0_stat & IMG_FLAG_VERIFY_MASK) == IMG_FLAG_VERIFY_OK)
        && ((img0_stat & IMG_FLAG_IA_MASK) == IMG_FLAG_IA_OK)) {
 8002d78:	00e14783          	lbu	a5,14(sp)
 8002d7c:	4729                	li	a4,10
 8002d7e:	8bf9                	andi	a5,a5,30
 8002d80:	04e78f63          	beq	a5,a4,8002dde <boot_image_find+0xfc>
C:/Users/stapi/OneDrive/Desktop/GD32VW553/GD32VW55X_Wifi_BLE_SDK/GD32VW55x_RELEASE_V1.0.2/MBL/mainboot/mbl_image_validate.c:127
        boot_idx = 1;
        goto ImgSelected;
    }

    if (boot_idx == -1) {
        result = -5;
 8002d84:	556d                	li	a0,-5
C:/Users/stapi/OneDrive/Desktop/GD32VW553/GD32VW55X_Wifi_BLE_SDK/GD32VW55x_RELEASE_V1.0.2/MBL/mainboot/mbl_image_validate.c:150

    return 0;

Failed:
    return result;
}
 8002d86:	0141                	addi	sp,sp,16
 8002d88:	aa4d                	j	8002f3a <__riscv_restore_4>
C:/Users/stapi/OneDrive/Desktop/GD32VW553/GD32VW55X_Wifi_BLE_SDK/GD32VW55x_RELEASE_V1.0.2/MBL/mainboot/mbl_image_validate.c:93
        rom_sys_set_img_flag(IMAGE_0, IMG_FLAG_NEWER_MASK, IMG_FLAG_NEWER);
 8002d8a:	36092783          	lw	a5,864(s2)
 8002d8e:	4605                	li	a2,1
 8002d90:	4585                	li	a1,1
 8002d92:	43bc                	lw	a5,64(a5)
 8002d94:	4501                	li	a0,0
 8002d96:	9782                	jalr	a5
C:/Users/stapi/OneDrive/Desktop/GD32VW553/GD32VW55X_Wifi_BLE_SDK/GD32VW55x_RELEASE_V1.0.2/MBL/mainboot/mbl_image_validate.c:95
        goto ImgSelected;
 8002d98:	4781                	li	a5,0
C:/Users/stapi/OneDrive/Desktop/GD32VW553/GD32VW55X_Wifi_BLE_SDK/GD32VW55x_RELEASE_V1.0.2/MBL/mainboot/mbl_image_validate.c:142
    *idx = boot_idx;
 8002d9a:	00fa2023          	sw	a5,0(s4) # 30203000 <_sp+0x101fe700>
C:/Users/stapi/OneDrive/Desktop/GD32VW553/GD32VW55X_Wifi_BLE_SDK/GD32VW55x_RELEASE_V1.0.2/MBL/mainboot/mbl_image_validate.c:143
    *image_offset = RE_IMG_0_OFFSET + IMG_OVERHEAD_LEN;
 8002d9e:	67a9                	lui	a5,0xa
 8002da0:	c09c                	sw	a5,0(s1)
C:/Users/stapi/OneDrive/Desktop/GD32VW553/GD32VW55X_Wifi_BLE_SDK/GD32VW55x_RELEASE_V1.0.2/MBL/mainboot/mbl_image_validate.c:146
    return 0;
 8002da2:	4501                	li	a0,0
C:/Users/stapi/OneDrive/Desktop/GD32VW553/GD32VW55X_Wifi_BLE_SDK/GD32VW55x_RELEASE_V1.0.2/MBL/mainboot/mbl_image_validate.c:150
}
 8002da4:	0141                	addi	sp,sp,16
 8002da6:	aa51                	j	8002f3a <__riscv_restore_4>
C:/Users/stapi/OneDrive/Desktop/GD32VW553/GD32VW55X_Wifi_BLE_SDK/GD32VW55x_RELEASE_V1.0.2/MBL/mainboot/mbl_image_validate.c:99
        if (((img0_stat & IMG_FLAG_VERIFY_MASK) != IMG_FLAG_VERIFY_FAIL)
 8002da8:	0067f713          	andi	a4,a5,6
 8002dac:	4691                	li	a3,4
 8002dae:	f8d705e3          	beq	a4,a3,8002d38 <boot_image_find+0x56>
C:/Users/stapi/OneDrive/Desktop/GD32VW553/GD32VW55X_Wifi_BLE_SDK/GD32VW55x_RELEASE_V1.0.2/MBL/mainboot/mbl_image_validate.c:100
            && ((img0_stat & IMG_FLAG_IA_MASK) != IMG_FLAG_IA_FAIL)) {
 8002db2:	0187f713          	andi	a4,a5,24
 8002db6:	46c1                	li	a3,16
 8002db8:	4781                	li	a5,0
 8002dba:	fed710e3          	bne	a4,a3,8002d9a <boot_image_find+0xb8>
C:/Users/stapi/OneDrive/Desktop/GD32VW553/GD32VW55X_Wifi_BLE_SDK/GD32VW55x_RELEASE_V1.0.2/MBL/mainboot/mbl_image_validate.c:106
    if (img1_found && ((img1_stat & IMG_FLAG_NEWER_MASK) == IMG_FLAG_NEWER)) {
 8002dbe:	00f14783          	lbu	a5,15(sp)
 8002dc2:	0017f713          	andi	a4,a5,1
 8002dc6:	ff35                	bnez	a4,8002d42 <boot_image_find+0x60>
C:/Users/stapi/OneDrive/Desktop/GD32VW553/GD32VW55X_Wifi_BLE_SDK/GD32VW55x_RELEASE_V1.0.2/MBL/mainboot/mbl_image_validate.c:115
        && ((img0_stat & IMG_FLAG_IA_MASK) == IMG_FLAG_IA_OK)) {
 8002dc8:	00e14683          	lbu	a3,14(sp)
 8002dcc:	4729                	li	a4,10
 8002dce:	8af9                	andi	a3,a3,30
 8002dd0:	00e68763          	beq	a3,a4,8002dde <boot_image_find+0xfc>
C:/Users/stapi/OneDrive/Desktop/GD32VW553/GD32VW55X_Wifi_BLE_SDK/GD32VW55x_RELEASE_V1.0.2/MBL/mainboot/mbl_image_validate.c:121
        && ((img1_stat & IMG_FLAG_IA_MASK) == IMG_FLAG_IA_OK)) {
 8002dd4:	8bf9                	andi	a5,a5,30
 8002dd6:	fae797e3          	bne	a5,a4,8002d84 <boot_image_find+0xa2>
 8002dda:	4785                	li	a5,1
 8002ddc:	bf7d                	j	8002d9a <boot_image_find+0xb8>
C:/Users/stapi/OneDrive/Desktop/GD32VW553/GD32VW55X_Wifi_BLE_SDK/GD32VW55x_RELEASE_V1.0.2/MBL/mainboot/mbl_image_validate.c:100
            && ((img0_stat & IMG_FLAG_IA_MASK) != IMG_FLAG_IA_FAIL)) {
 8002dde:	4781                	li	a5,0
 8002de0:	bf6d                	j	8002d9a <boot_image_find+0xb8>
C:/Users/stapi/OneDrive/Desktop/GD32VW553/GD32VW55X_Wifi_BLE_SDK/GD32VW55x_RELEASE_V1.0.2/MBL/mainboot/mbl_image_validate.c:68
        result = -2;
 8002de2:	5579                	li	a0,-2
 8002de4:	b7c1                	j	8002da4 <boot_image_find+0xc2>
C:/Users/stapi/OneDrive/Desktop/GD32VW553/GD32VW55X_Wifi_BLE_SDK/GD32VW55x_RELEASE_V1.0.2/MBL/mainboot/mbl_image_validate.c:77
        result = -3;
 8002de6:	5575                	li	a0,-3
 8002de8:	bf75                	j	8002da4 <boot_image_find+0xc2>
C:/Users/stapi/OneDrive/Desktop/GD32VW553/GD32VW55X_Wifi_BLE_SDK/GD32VW55x_RELEASE_V1.0.2/MBL/mainboot/mbl_image_validate.c:62
        result = -1;
 8002dea:	557d                	li	a0,-1
 8002dec:	bf65                	j	8002da4 <boot_image_find+0xc2>

08002dee <image_x_validate>:
image_x_validate():
C:/Users/stapi/OneDrive/Desktop/GD32VW553/GD32VW55X_Wifi_BLE_SDK/GD32VW55x_RELEASE_V1.0.2/MBL/mainboot/mbl_image_validate.c:162
    \retval     result of validate nspe
*/
int image_x_validate(IN uint32_t img_offset,
                     IN uint8_t *pkhash,
                     IN uint8_t boot_opt)
{
 8002dee:	118002ef          	jal	t0,8002f06 <__riscv_save_4>
C:/Users/stapi/OneDrive/Desktop/GD32VW553/GD32VW55X_Wifi_BLE_SDK/GD32VW55x_RELEASE_V1.0.2/MBL/mainboot/mbl_image_validate.c:166
    struct sw_info_t sw_info;
    int ret, result = 0;

    rom_trace_ex(ROM_DBG, "image_x_validate: image offset is 0x%x.\r\n", img_offset);
 8002df2:	20000937          	lui	s2,0x20000
 8002df6:	36092783          	lw	a5,864(s2) # 20000360 <p_rom_api>
C:/Users/stapi/OneDrive/Desktop/GD32VW553/GD32VW55X_Wifi_BLE_SDK/GD32VW55x_RELEASE_V1.0.2/MBL/mainboot/mbl_image_validate.c:162
{
 8002dfa:	89ae                	mv	s3,a1
C:/Users/stapi/OneDrive/Desktop/GD32VW553/GD32VW55X_Wifi_BLE_SDK/GD32VW55x_RELEASE_V1.0.2/MBL/mainboot/mbl_image_validate.c:166
    rom_trace_ex(ROM_DBG, "image_x_validate: image offset is 0x%x.\r\n", img_offset);
 8002dfc:	080015b7          	lui	a1,0x8001
 8002e00:	43d8                	lw	a4,4(a5)
C:/Users/stapi/OneDrive/Desktop/GD32VW553/GD32VW55X_Wifi_BLE_SDK/GD32VW55x_RELEASE_V1.0.2/MBL/mainboot/mbl_image_validate.c:162
{
 8002e02:	8432                	mv	s0,a2
 8002e04:	7159                	addi	sp,sp,-112
 8002e06:	84aa                	mv	s1,a0
C:/Users/stapi/OneDrive/Desktop/GD32VW553/GD32VW55X_Wifi_BLE_SDK/GD32VW55x_RELEASE_V1.0.2/MBL/mainboot/mbl_image_validate.c:166
    rom_trace_ex(ROM_DBG, "image_x_validate: image offset is 0x%x.\r\n", img_offset);
 8002e08:	862a                	mv	a2,a0
 8002e0a:	50c58593          	addi	a1,a1,1292 # 800150c <_sicode+0x240>
 8002e0e:	4515                	li	a0,5
 8002e10:	9702                	jalr	a4
C:/Users/stapi/OneDrive/Desktop/GD32VW553/GD32VW55X_Wifi_BLE_SDK/GD32VW55x_RELEASE_V1.0.2/MBL/mainboot/mbl_image_validate.c:168

    if (boot_opt == IBL_VERIFY_NONE)
 8002e12:	c429                	beqz	s0,8002e5c <image_x_validate+0x6e>
C:/Users/stapi/OneDrive/Desktop/GD32VW553/GD32VW55X_Wifi_BLE_SDK/GD32VW55x_RELEASE_V1.0.2/MBL/mainboot/mbl_image_validate.c:172
        return 0;

    /* Validate image cert and signature */
    if (boot_opt == IBL_VERIFY_CERT_IMG) {
 8002e14:	470d                	li	a4,3
C:/Users/stapi/OneDrive/Desktop/GD32VW553/GD32VW55X_Wifi_BLE_SDK/GD32VW55x_RELEASE_V1.0.2/MBL/mainboot/mbl_image_validate.c:173
        ret = rom_cert_img_validate(img_offset, IMG_TYPE_IMG, pkhash, &sw_info);
 8002e16:	36092783          	lw	a5,864(s2)
C:/Users/stapi/OneDrive/Desktop/GD32VW553/GD32VW55X_Wifi_BLE_SDK/GD32VW55x_RELEASE_V1.0.2/MBL/mainboot/mbl_image_validate.c:172
    if (boot_opt == IBL_VERIFY_CERT_IMG) {
 8002e1a:	04e40563          	beq	s0,a4,8002e64 <image_x_validate+0x76>
C:/Users/stapi/OneDrive/Desktop/GD32VW553/GD32VW55X_Wifi_BLE_SDK/GD32VW55x_RELEASE_V1.0.2/MBL/mainboot/mbl_image_validate.c:181
            result = -3;
            goto Failed;
        } else {
            rom_trace_ex(ROM_ALWAYS, "MBL: Image cert and sigature verified OK.\r\n");
        }
    } else if (boot_opt == IBL_VERIFY_IMG_ONLY) {
 8002e1e:	4705                	li	a4,1
 8002e20:	06e40563          	beq	s0,a4,8002e8a <image_x_validate+0x9c>
C:/Users/stapi/OneDrive/Desktop/GD32VW553/GD32VW55X_Wifi_BLE_SDK/GD32VW55x_RELEASE_V1.0.2/MBL/mainboot/mbl_image_validate.c:193
            rom_trace_ex(ROM_ALWAYS, "MBL: Image verified OK.\r\n");
        }
    }

    /* Update Main Image Version Counter */
    ret = rom_sys_set_fw_ver(IMG_TYPE_IMG, sw_info.version);
 8002e24:	47fc                	lw	a5,76(a5)
 8002e26:	45b2                	lw	a1,12(sp)
 8002e28:	4509                	li	a0,2
 8002e2a:	9782                	jalr	a5
 8002e2c:	842a                	mv	s0,a0
C:/Users/stapi/OneDrive/Desktop/GD32VW553/GD32VW55X_Wifi_BLE_SDK/GD32VW55x_RELEASE_V1.0.2/MBL/mainboot/mbl_image_validate.c:194
    if (ret < 0) {
 8002e2e:	08054163          	bltz	a0,8002eb0 <image_x_validate+0xc2>
C:/Users/stapi/OneDrive/Desktop/GD32VW553/GD32VW55X_Wifi_BLE_SDK/GD32VW55x_RELEASE_V1.0.2/MBL/mainboot/mbl_image_validate.c:200
        rom_trace_ex(ROM_ERR, "Update Main Image version counter failed(%d).\r\n", ret);
        result = -5;
        goto Failed;
    } else if (ret == 1){
        /* The new image version is equal to the local counter. Do nothing. */
    } else if (ret == 0){
 8002e32:	e50d                	bnez	a0,8002e5c <image_x_validate+0x6e>
C:/Users/stapi/OneDrive/Desktop/GD32VW553/GD32VW55X_Wifi_BLE_SDK/GD32VW55x_RELEASE_V1.0.2/MBL/mainboot/mbl_image_validate.c:201
        rom_trace_ex(ROM_ALWAYS, "MBL: Current image version is %d.%d.%d\r\n",
 8002e34:	36092783          	lw	a5,864(s2)
C:/Users/stapi/OneDrive/Desktop/GD32VW553/GD32VW55X_Wifi_BLE_SDK/GD32VW55x_RELEASE_V1.0.2/MBL/mainboot/mbl_image_validate.c:202
                    (sw_info.version >> 24),
 8002e38:	4732                	lw	a4,12(sp)
C:/Users/stapi/OneDrive/Desktop/GD32VW553/GD32VW55X_Wifi_BLE_SDK/GD32VW55x_RELEASE_V1.0.2/MBL/mainboot/mbl_image_validate.c:201
        rom_trace_ex(ROM_ALWAYS, "MBL: Current image version is %d.%d.%d\r\n",
 8002e3a:	080015b7          	lui	a1,0x8001
 8002e3e:	43dc                	lw	a5,4(a5)
C:/Users/stapi/OneDrive/Desktop/GD32VW553/GD32VW55X_Wifi_BLE_SDK/GD32VW55x_RELEASE_V1.0.2/MBL/mainboot/mbl_image_validate.c:203
                    ((sw_info.version << 8) >> 24),
 8002e40:	00871693          	slli	a3,a4,0x8
C:/Users/stapi/OneDrive/Desktop/GD32VW553/GD32VW55X_Wifi_BLE_SDK/GD32VW55x_RELEASE_V1.0.2/MBL/mainboot/mbl_image_validate.c:201
        rom_trace_ex(ROM_ALWAYS, "MBL: Current image version is %d.%d.%d\r\n",
 8002e44:	01875613          	srli	a2,a4,0x18
 8002e48:	82e1                	srli	a3,a3,0x18
 8002e4a:	61c58593          	addi	a1,a1,1564 # 800161c <_sicode+0x350>
 8002e4e:	4505                	li	a0,1
 8002e50:	08074733          	zext.h	a4,a4
 8002e54:	9782                	jalr	a5
C:/Users/stapi/OneDrive/Desktop/GD32VW553/GD32VW55X_Wifi_BLE_SDK/GD32VW55x_RELEASE_V1.0.2/MBL/mainboot/mbl_image_validate.c:211

    return 0;

Failed:
    return result;
}
 8002e56:	8522                	mv	a0,s0
 8002e58:	6165                	addi	sp,sp,112
 8002e5a:	a0c5                	j	8002f3a <__riscv_restore_4>
C:/Users/stapi/OneDrive/Desktop/GD32VW553/GD32VW55X_Wifi_BLE_SDK/GD32VW55x_RELEASE_V1.0.2/MBL/mainboot/mbl_image_validate.c:169
        return 0;
 8002e5c:	4401                	li	s0,0
C:/Users/stapi/OneDrive/Desktop/GD32VW553/GD32VW55X_Wifi_BLE_SDK/GD32VW55x_RELEASE_V1.0.2/MBL/mainboot/mbl_image_validate.c:211
}
 8002e5e:	8522                	mv	a0,s0
 8002e60:	6165                	addi	sp,sp,112
 8002e62:	a8e1                	j	8002f3a <__riscv_restore_4>
C:/Users/stapi/OneDrive/Desktop/GD32VW553/GD32VW55X_Wifi_BLE_SDK/GD32VW55x_RELEASE_V1.0.2/MBL/mainboot/mbl_image_validate.c:173
        ret = rom_cert_img_validate(img_offset, IMG_TYPE_IMG, pkhash, &sw_info);
 8002e64:	579c                	lw	a5,40(a5)
 8002e66:	0034                	addi	a3,sp,8
 8002e68:	864e                	mv	a2,s3
 8002e6a:	4589                	li	a1,2
 8002e6c:	8526                	mv	a0,s1
 8002e6e:	9782                	jalr	a5
C:/Users/stapi/OneDrive/Desktop/GD32VW553/GD32VW55X_Wifi_BLE_SDK/GD32VW55x_RELEASE_V1.0.2/MBL/mainboot/mbl_image_validate.c:175
            rom_trace_ex(ROM_ERR, "image_x_validate: cert or image verified failed(%d). \r\n", ret);
 8002e70:	36092783          	lw	a5,864(s2)
C:/Users/stapi/OneDrive/Desktop/GD32VW553/GD32VW55X_Wifi_BLE_SDK/GD32VW55x_RELEASE_V1.0.2/MBL/mainboot/mbl_image_validate.c:174
        if (ret != IMG_OK) {
 8002e74:	e931                	bnez	a0,8002ec8 <image_x_validate+0xda>
C:/Users/stapi/OneDrive/Desktop/GD32VW553/GD32VW55X_Wifi_BLE_SDK/GD32VW55x_RELEASE_V1.0.2/MBL/mainboot/mbl_image_validate.c:179
            rom_trace_ex(ROM_ALWAYS, "MBL: Image cert and sigature verified OK.\r\n");
 8002e76:	43dc                	lw	a5,4(a5)
 8002e78:	080015b7          	lui	a1,0x8001
 8002e7c:	57058593          	addi	a1,a1,1392 # 8001570 <_sicode+0x2a4>
 8002e80:	4505                	li	a0,1
 8002e82:	9782                	jalr	a5
C:/Users/stapi/OneDrive/Desktop/GD32VW553/GD32VW55X_Wifi_BLE_SDK/GD32VW55x_RELEASE_V1.0.2/MBL/mainboot/mbl_image_validate.c:193
    ret = rom_sys_set_fw_ver(IMG_TYPE_IMG, sw_info.version);
 8002e84:	36092783          	lw	a5,864(s2)
 8002e88:	bf71                	j	8002e24 <image_x_validate+0x36>
C:/Users/stapi/OneDrive/Desktop/GD32VW553/GD32VW55X_Wifi_BLE_SDK/GD32VW55x_RELEASE_V1.0.2/MBL/mainboot/mbl_image_validate.c:182
        ret = rom_img_validate(img_offset, IMG_TYPE_IMG, pkhash, &sw_info);
 8002e8a:	53dc                	lw	a5,36(a5)
 8002e8c:	0034                	addi	a3,sp,8
 8002e8e:	864e                	mv	a2,s3
 8002e90:	4589                	li	a1,2
 8002e92:	8526                	mv	a0,s1
 8002e94:	9782                	jalr	a5
C:/Users/stapi/OneDrive/Desktop/GD32VW553/GD32VW55X_Wifi_BLE_SDK/GD32VW55x_RELEASE_V1.0.2/MBL/mainboot/mbl_image_validate.c:184
            rom_trace_ex(ROM_ERR, "image_x_validate: Image verified failed (%d). \r\n", ret);
 8002e96:	36092783          	lw	a5,864(s2)
C:/Users/stapi/OneDrive/Desktop/GD32VW553/GD32VW55X_Wifi_BLE_SDK/GD32VW55x_RELEASE_V1.0.2/MBL/mainboot/mbl_image_validate.c:183
        if (ret != IMG_OK) {
 8002e9a:	e129                	bnez	a0,8002edc <image_x_validate+0xee>
C:/Users/stapi/OneDrive/Desktop/GD32VW553/GD32VW55X_Wifi_BLE_SDK/GD32VW55x_RELEASE_V1.0.2/MBL/mainboot/mbl_image_validate.c:188
            rom_trace_ex(ROM_ALWAYS, "MBL: Image verified OK.\r\n");
 8002e9c:	43dc                	lw	a5,4(a5)
 8002e9e:	080015b7          	lui	a1,0x8001
 8002ea2:	5d058593          	addi	a1,a1,1488 # 80015d0 <_sicode+0x304>
 8002ea6:	4505                	li	a0,1
 8002ea8:	9782                	jalr	a5
C:/Users/stapi/OneDrive/Desktop/GD32VW553/GD32VW55X_Wifi_BLE_SDK/GD32VW55x_RELEASE_V1.0.2/MBL/mainboot/mbl_image_validate.c:193
    ret = rom_sys_set_fw_ver(IMG_TYPE_IMG, sw_info.version);
 8002eaa:	36092783          	lw	a5,864(s2)
 8002eae:	bf9d                	j	8002e24 <image_x_validate+0x36>
C:/Users/stapi/OneDrive/Desktop/GD32VW553/GD32VW55X_Wifi_BLE_SDK/GD32VW55x_RELEASE_V1.0.2/MBL/mainboot/mbl_image_validate.c:195
        rom_trace_ex(ROM_ERR, "Update Main Image version counter failed(%d).\r\n", ret);
 8002eb0:	36092783          	lw	a5,864(s2)
 8002eb4:	080015b7          	lui	a1,0x8001
 8002eb8:	862a                	mv	a2,a0
 8002eba:	43dc                	lw	a5,4(a5)
 8002ebc:	5ec58593          	addi	a1,a1,1516 # 80015ec <_sicode+0x320>
 8002ec0:	4509                	li	a0,2
 8002ec2:	9782                	jalr	a5
C:/Users/stapi/OneDrive/Desktop/GD32VW553/GD32VW55X_Wifi_BLE_SDK/GD32VW55x_RELEASE_V1.0.2/MBL/mainboot/mbl_image_validate.c:196
        result = -5;
 8002ec4:	546d                	li	s0,-5
C:/Users/stapi/OneDrive/Desktop/GD32VW553/GD32VW55X_Wifi_BLE_SDK/GD32VW55x_RELEASE_V1.0.2/MBL/mainboot/mbl_image_validate.c:197
        goto Failed;
 8002ec6:	bf61                	j	8002e5e <image_x_validate+0x70>
C:/Users/stapi/OneDrive/Desktop/GD32VW553/GD32VW55X_Wifi_BLE_SDK/GD32VW55x_RELEASE_V1.0.2/MBL/mainboot/mbl_image_validate.c:175
            rom_trace_ex(ROM_ERR, "image_x_validate: cert or image verified failed(%d). \r\n", ret);
 8002ec8:	43dc                	lw	a5,4(a5)
 8002eca:	080015b7          	lui	a1,0x8001
 8002ece:	862a                	mv	a2,a0
 8002ed0:	53858593          	addi	a1,a1,1336 # 8001538 <_sicode+0x26c>
 8002ed4:	4509                	li	a0,2
 8002ed6:	9782                	jalr	a5
C:/Users/stapi/OneDrive/Desktop/GD32VW553/GD32VW55X_Wifi_BLE_SDK/GD32VW55x_RELEASE_V1.0.2/MBL/mainboot/mbl_image_validate.c:176
            result = -3;
 8002ed8:	5475                	li	s0,-3
C:/Users/stapi/OneDrive/Desktop/GD32VW553/GD32VW55X_Wifi_BLE_SDK/GD32VW55x_RELEASE_V1.0.2/MBL/mainboot/mbl_image_validate.c:177
            goto Failed;
 8002eda:	b751                	j	8002e5e <image_x_validate+0x70>
C:/Users/stapi/OneDrive/Desktop/GD32VW553/GD32VW55X_Wifi_BLE_SDK/GD32VW55x_RELEASE_V1.0.2/MBL/mainboot/mbl_image_validate.c:184
            rom_trace_ex(ROM_ERR, "image_x_validate: Image verified failed (%d). \r\n", ret);
 8002edc:	43dc                	lw	a5,4(a5)
 8002ede:	080015b7          	lui	a1,0x8001
 8002ee2:	862a                	mv	a2,a0
 8002ee4:	59c58593          	addi	a1,a1,1436 # 800159c <_sicode+0x2d0>
 8002ee8:	4509                	li	a0,2
 8002eea:	9782                	jalr	a5
C:/Users/stapi/OneDrive/Desktop/GD32VW553/GD32VW55X_Wifi_BLE_SDK/GD32VW55x_RELEASE_V1.0.2/MBL/mainboot/mbl_image_validate.c:185
            result = -4;
 8002eec:	5471                	li	s0,-4
C:/Users/stapi/OneDrive/Desktop/GD32VW553/GD32VW55X_Wifi_BLE_SDK/GD32VW55x_RELEASE_V1.0.2/MBL/mainboot/mbl_image_validate.c:186
            goto Failed;
 8002eee:	bf85                	j	8002e5e <image_x_validate+0x70>

08002ef0 <__riscv_save_12>:
__riscv_save_12():
/home/xl_ci/toolchain/riscv-gnu-toolchain/riscv-gcc/libgcc/config/riscv/save-restore.S:343
 8002ef0:	7139                	addi	sp,sp,-64
/home/xl_ci/toolchain/riscv-gnu-toolchain/riscv-gcc/libgcc/config/riscv/save-restore.S:345
 8002ef2:	4301                	li	t1,0
/home/xl_ci/toolchain/riscv-gnu-toolchain/riscv-gcc/libgcc/config/riscv/save-restore.S:346
 8002ef4:	c66e                	sw	s11,12(sp)
/home/xl_ci/toolchain/riscv-gnu-toolchain/riscv-gcc/libgcc/config/riscv/save-restore.S:348
 8002ef6:	a019                	j	8002efc <__riscv_save_10+0x4>

08002ef8 <__riscv_save_10>:
/home/xl_ci/toolchain/riscv-gnu-toolchain/riscv-gcc/libgcc/config/riscv/save-restore.S:355
 8002ef8:	7139                	addi	sp,sp,-64
/home/xl_ci/toolchain/riscv-gnu-toolchain/riscv-gcc/libgcc/config/riscv/save-restore.S:357
 8002efa:	5341                	li	t1,-16
/home/xl_ci/toolchain/riscv-gnu-toolchain/riscv-gcc/libgcc/config/riscv/save-restore.S:359
 8002efc:	c86a                	sw	s10,16(sp)
/home/xl_ci/toolchain/riscv-gnu-toolchain/riscv-gcc/libgcc/config/riscv/save-restore.S:361
 8002efe:	ca66                	sw	s9,20(sp)
/home/xl_ci/toolchain/riscv-gnu-toolchain/riscv-gcc/libgcc/config/riscv/save-restore.S:363
 8002f00:	cc62                	sw	s8,24(sp)
/home/xl_ci/toolchain/riscv-gnu-toolchain/riscv-gcc/libgcc/config/riscv/save-restore.S:365
 8002f02:	ce5e                	sw	s7,28(sp)
/home/xl_ci/toolchain/riscv-gnu-toolchain/riscv-gcc/libgcc/config/riscv/save-restore.S:367
 8002f04:	a019                	j	8002f0a <__riscv_save_4+0x4>

08002f06 <__riscv_save_4>:
/home/xl_ci/toolchain/riscv-gnu-toolchain/riscv-gcc/libgcc/config/riscv/save-restore.S:378
 8002f06:	7139                	addi	sp,sp,-64
/home/xl_ci/toolchain/riscv-gnu-toolchain/riscv-gcc/libgcc/config/riscv/save-restore.S:380
 8002f08:	5301                	li	t1,-32
/home/xl_ci/toolchain/riscv-gnu-toolchain/riscv-gcc/libgcc/config/riscv/save-restore.S:382
 8002f0a:	d05a                	sw	s6,32(sp)
/home/xl_ci/toolchain/riscv-gnu-toolchain/riscv-gcc/libgcc/config/riscv/save-restore.S:384
 8002f0c:	d256                	sw	s5,36(sp)
/home/xl_ci/toolchain/riscv-gnu-toolchain/riscv-gcc/libgcc/config/riscv/save-restore.S:386
 8002f0e:	d452                	sw	s4,40(sp)
/home/xl_ci/toolchain/riscv-gnu-toolchain/riscv-gcc/libgcc/config/riscv/save-restore.S:388
 8002f10:	d64e                	sw	s3,44(sp)
/home/xl_ci/toolchain/riscv-gnu-toolchain/riscv-gcc/libgcc/config/riscv/save-restore.S:390
 8002f12:	d84a                	sw	s2,48(sp)
/home/xl_ci/toolchain/riscv-gnu-toolchain/riscv-gcc/libgcc/config/riscv/save-restore.S:392
 8002f14:	da26                	sw	s1,52(sp)
/home/xl_ci/toolchain/riscv-gnu-toolchain/riscv-gcc/libgcc/config/riscv/save-restore.S:394
 8002f16:	dc22                	sw	s0,56(sp)
/home/xl_ci/toolchain/riscv-gnu-toolchain/riscv-gcc/libgcc/config/riscv/save-restore.S:396
 8002f18:	de06                	sw	ra,60(sp)
/home/xl_ci/toolchain/riscv-gnu-toolchain/riscv-gcc/libgcc/config/riscv/save-restore.S:400
 8002f1a:	40610133          	sub	sp,sp,t1
/home/xl_ci/toolchain/riscv-gnu-toolchain/riscv-gcc/libgcc/config/riscv/save-restore.S:401
 8002f1e:	8282                	jr	t0

08002f20 <__riscv_save_0>:
__riscv_save_1():
/home/xl_ci/toolchain/riscv-gnu-toolchain/riscv-gcc/libgcc/config/riscv/save-restore.S:420
 8002f20:	1141                	addi	sp,sp,-16
/home/xl_ci/toolchain/riscv-gnu-toolchain/riscv-gcc/libgcc/config/riscv/save-restore.S:422
 8002f22:	c04a                	sw	s2,0(sp)
/home/xl_ci/toolchain/riscv-gnu-toolchain/riscv-gcc/libgcc/config/riscv/save-restore.S:423
 8002f24:	c226                	sw	s1,4(sp)
/home/xl_ci/toolchain/riscv-gnu-toolchain/riscv-gcc/libgcc/config/riscv/save-restore.S:425
 8002f26:	c422                	sw	s0,8(sp)
/home/xl_ci/toolchain/riscv-gnu-toolchain/riscv-gcc/libgcc/config/riscv/save-restore.S:427
 8002f28:	c606                	sw	ra,12(sp)
/home/xl_ci/toolchain/riscv-gnu-toolchain/riscv-gcc/libgcc/config/riscv/save-restore.S:429
 8002f2a:	8282                	jr	t0

08002f2c <__riscv_restore_12>:
__riscv_restore_12():
/home/xl_ci/toolchain/riscv-gnu-toolchain/riscv-gcc/libgcc/config/riscv/save-restore.S:452
 8002f2c:	4db2                	lw	s11,12(sp)
/home/xl_ci/toolchain/riscv-gnu-toolchain/riscv-gcc/libgcc/config/riscv/save-restore.S:454
 8002f2e:	0141                	addi	sp,sp,16

08002f30 <__riscv_restore_10>:
/home/xl_ci/toolchain/riscv-gnu-toolchain/riscv-gcc/libgcc/config/riscv/save-restore.S:462
 8002f30:	4d02                	lw	s10,0(sp)
/home/xl_ci/toolchain/riscv-gnu-toolchain/riscv-gcc/libgcc/config/riscv/save-restore.S:464
 8002f32:	4c92                	lw	s9,4(sp)
/home/xl_ci/toolchain/riscv-gnu-toolchain/riscv-gcc/libgcc/config/riscv/save-restore.S:466
 8002f34:	4c22                	lw	s8,8(sp)
/home/xl_ci/toolchain/riscv-gnu-toolchain/riscv-gcc/libgcc/config/riscv/save-restore.S:468
 8002f36:	4bb2                	lw	s7,12(sp)
/home/xl_ci/toolchain/riscv-gnu-toolchain/riscv-gcc/libgcc/config/riscv/save-restore.S:470
 8002f38:	0141                	addi	sp,sp,16

08002f3a <__riscv_restore_4>:
/home/xl_ci/toolchain/riscv-gnu-toolchain/riscv-gcc/libgcc/config/riscv/save-restore.S:482
 8002f3a:	4b02                	lw	s6,0(sp)
/home/xl_ci/toolchain/riscv-gnu-toolchain/riscv-gcc/libgcc/config/riscv/save-restore.S:484
 8002f3c:	4a92                	lw	s5,4(sp)
/home/xl_ci/toolchain/riscv-gnu-toolchain/riscv-gcc/libgcc/config/riscv/save-restore.S:486
 8002f3e:	4a22                	lw	s4,8(sp)
/home/xl_ci/toolchain/riscv-gnu-toolchain/riscv-gcc/libgcc/config/riscv/save-restore.S:488
 8002f40:	49b2                	lw	s3,12(sp)
/home/xl_ci/toolchain/riscv-gnu-toolchain/riscv-gcc/libgcc/config/riscv/save-restore.S:490
 8002f42:	0141                	addi	sp,sp,16

08002f44 <__riscv_restore_0>:
/home/xl_ci/toolchain/riscv-gnu-toolchain/riscv-gcc/libgcc/config/riscv/save-restore.S:505
 8002f44:	4902                	lw	s2,0(sp)
/home/xl_ci/toolchain/riscv-gnu-toolchain/riscv-gcc/libgcc/config/riscv/save-restore.S:507
 8002f46:	4492                	lw	s1,4(sp)
/home/xl_ci/toolchain/riscv-gnu-toolchain/riscv-gcc/libgcc/config/riscv/save-restore.S:509
 8002f48:	4422                	lw	s0,8(sp)
/home/xl_ci/toolchain/riscv-gnu-toolchain/riscv-gcc/libgcc/config/riscv/save-restore.S:511
 8002f4a:	40b2                	lw	ra,12(sp)
/home/xl_ci/toolchain/riscv-gnu-toolchain/riscv-gcc/libgcc/config/riscv/save-restore.S:513
 8002f4c:	0141                	addi	sp,sp,16
/home/xl_ci/toolchain/riscv-gnu-toolchain/riscv-gcc/libgcc/config/riscv/save-restore.S:515
 8002f4e:	8082                	ret

08002f50 <atexit>:
atexit():
 8002f50:	85aa                	mv	a1,a0
 8002f52:	4681                	li	a3,0
 8002f54:	4601                	li	a2,0
 8002f56:	4501                	li	a0,0
 8002f58:	a11d                	j	800337e <__register_exitproc>

08002f5a <__libc_fini_array>:
__libc_fini_array():
 8002f5a:	1141                	addi	sp,sp,-16
 8002f5c:	c422                	sw	s0,8(sp)
 8002f5e:	c226                	sw	s1,4(sp)
 8002f60:	00001417          	auipc	s0,0x1
 8002f64:	35840413          	addi	s0,s0,856 # 80042b8 <__fini_array_end>
 8002f68:	00001497          	auipc	s1,0x1
 8002f6c:	35048493          	addi	s1,s1,848 # 80042b8 <__fini_array_end>
 8002f70:	8c05                	sub	s0,s0,s1
 8002f72:	c606                	sw	ra,12(sp)
 8002f74:	8409                	srai	s0,s0,0x2
 8002f76:	e411                	bnez	s0,8002f82 <__libc_fini_array+0x28>
 8002f78:	40b2                	lw	ra,12(sp)
 8002f7a:	4422                	lw	s0,8(sp)
 8002f7c:	4492                	lw	s1,4(sp)
 8002f7e:	0141                	addi	sp,sp,16
 8002f80:	8082                	ret
 8002f82:	147d                	addi	s0,s0,-1
 8002f84:	209447b3          	sh2add	a5,s0,s1
 8002f88:	439c                	lw	a5,0(a5)
 8002f8a:	9782                	jalr	a5
 8002f8c:	b7ed                	j	8002f76 <__libc_fini_array+0x1c>

08002f8e <__libc_init_array>:
__libc_init_array():
 8002f8e:	1141                	addi	sp,sp,-16
 8002f90:	c422                	sw	s0,8(sp)
 8002f92:	c226                	sw	s1,4(sp)
 8002f94:	00001417          	auipc	s0,0x1
 8002f98:	32440413          	addi	s0,s0,804 # 80042b8 <__fini_array_end>
 8002f9c:	00001497          	auipc	s1,0x1
 8002fa0:	31c48493          	addi	s1,s1,796 # 80042b8 <__fini_array_end>
 8002fa4:	8c81                	sub	s1,s1,s0
 8002fa6:	c04a                	sw	s2,0(sp)
 8002fa8:	c606                	sw	ra,12(sp)
 8002faa:	8489                	srai	s1,s1,0x2
 8002fac:	4901                	li	s2,0
 8002fae:	02991563          	bne	s2,s1,8002fd8 <__libc_init_array+0x4a>
 8002fb2:	00001417          	auipc	s0,0x1
 8002fb6:	30640413          	addi	s0,s0,774 # 80042b8 <__fini_array_end>
 8002fba:	00001497          	auipc	s1,0x1
 8002fbe:	2fe48493          	addi	s1,s1,766 # 80042b8 <__fini_array_end>
 8002fc2:	8c81                	sub	s1,s1,s0
 8002fc4:	8489                	srai	s1,s1,0x2
 8002fc6:	4901                	li	s2,0
 8002fc8:	00991d63          	bne	s2,s1,8002fe2 <__libc_init_array+0x54>
 8002fcc:	40b2                	lw	ra,12(sp)
 8002fce:	4422                	lw	s0,8(sp)
 8002fd0:	4492                	lw	s1,4(sp)
 8002fd2:	4902                	lw	s2,0(sp)
 8002fd4:	0141                	addi	sp,sp,16
 8002fd6:	8082                	ret
 8002fd8:	401c                	lw	a5,0(s0)
 8002fda:	0905                	addi	s2,s2,1
 8002fdc:	0411                	addi	s0,s0,4
 8002fde:	9782                	jalr	a5
 8002fe0:	b7f9                	j	8002fae <__libc_init_array+0x20>
 8002fe2:	401c                	lw	a5,0(s0)
 8002fe4:	0905                	addi	s2,s2,1
 8002fe6:	0411                	addi	s0,s0,4
 8002fe8:	9782                	jalr	a5
 8002fea:	bff9                	j	8002fc8 <__libc_init_array+0x3a>

08002fec <memset>:
memset():
 8002fec:	433d                	li	t1,15
 8002fee:	872a                	mv	a4,a0
 8002ff0:	02c37363          	bgeu	t1,a2,8003016 <memset+0x2a>
 8002ff4:	00f77793          	andi	a5,a4,15
 8002ff8:	efbd                	bnez	a5,8003076 <memset+0x8a>
 8002ffa:	e5ad                	bnez	a1,8003064 <memset+0x78>
 8002ffc:	ff067693          	andi	a3,a2,-16
 8003000:	8a3d                	andi	a2,a2,15
 8003002:	96ba                	add	a3,a3,a4
 8003004:	c30c                	sw	a1,0(a4)
 8003006:	c34c                	sw	a1,4(a4)
 8003008:	c70c                	sw	a1,8(a4)
 800300a:	c74c                	sw	a1,12(a4)
 800300c:	0741                	addi	a4,a4,16
 800300e:	fed76be3          	bltu	a4,a3,8003004 <memset+0x18>
 8003012:	e211                	bnez	a2,8003016 <memset+0x2a>
 8003014:	8082                	ret
 8003016:	40c306b3          	sub	a3,t1,a2
 800301a:	068a                	slli	a3,a3,0x2
 800301c:	00000297          	auipc	t0,0x0
 8003020:	9696                	add	a3,a3,t0
 8003022:	00a68067          	jr	10(a3) # ff8f000a <_sp+0xdf8eb70a>
 8003026:	00b70723          	sb	a1,14(a4)
 800302a:	00b706a3          	sb	a1,13(a4)
 800302e:	00b70623          	sb	a1,12(a4)
 8003032:	00b705a3          	sb	a1,11(a4)
 8003036:	00b70523          	sb	a1,10(a4)
 800303a:	00b704a3          	sb	a1,9(a4)
 800303e:	00b70423          	sb	a1,8(a4)
 8003042:	00b703a3          	sb	a1,7(a4)
 8003046:	00b70323          	sb	a1,6(a4)
 800304a:	00b702a3          	sb	a1,5(a4)
 800304e:	00b70223          	sb	a1,4(a4)
 8003052:	00b701a3          	sb	a1,3(a4)
 8003056:	00b70123          	sb	a1,2(a4)
 800305a:	00b700a3          	sb	a1,1(a4)
 800305e:	00b70023          	sb	a1,0(a4)
 8003062:	8082                	ret
 8003064:	0ff5f593          	zext.b	a1,a1
 8003068:	00859693          	slli	a3,a1,0x8
 800306c:	8dd5                	or	a1,a1,a3
 800306e:	01059693          	slli	a3,a1,0x10
 8003072:	8dd5                	or	a1,a1,a3
 8003074:	b761                	j	8002ffc <memset+0x10>
 8003076:	00279693          	slli	a3,a5,0x2
 800307a:	00000297          	auipc	t0,0x0
 800307e:	9696                	add	a3,a3,t0
 8003080:	8286                	mv	t0,ra
 8003082:	fa8680e7          	jalr	-88(a3)
 8003086:	8096                	mv	ra,t0
 8003088:	17c1                	addi	a5,a5,-16
 800308a:	8f1d                	sub	a4,a4,a5
 800308c:	963e                	add	a2,a2,a5
 800308e:	f8c374e3          	bgeu	t1,a2,8003016 <memset+0x2a>
 8003092:	b7a5                	j	8002ffa <memset+0xe>

08003094 <iprintf>:
printf():
 8003094:	715d                	addi	sp,sp,-80
 8003096:	d422                	sw	s0,40(sp)
 8003098:	d606                	sw	ra,44(sp)
 800309a:	842a                	mv	s0,a0
 800309c:	da2e                	sw	a1,52(sp)
 800309e:	dc32                	sw	a2,56(sp)
 80030a0:	de36                	sw	a3,60(sp)
 80030a2:	c0ba                	sw	a4,64(sp)
 80030a4:	c2be                	sw	a5,68(sp)
 80030a6:	c4c2                	sw	a6,72(sp)
 80030a8:	c6c6                	sw	a7,76(sp)
 80030aa:	17ffd517          	auipc	a0,0x17ffd
 80030ae:	2ba52503          	lw	a0,698(a0) # 20000364 <_impure_ptr>
 80030b2:	c511                	beqz	a0,80030be <iprintf+0x2a>
 80030b4:	4d1c                	lw	a5,24(a0)
 80030b6:	e781                	bnez	a5,80030be <iprintf+0x2a>
 80030b8:	c62a                	sw	a0,12(sp)
 80030ba:	2b41                	jal	800364a <__sinit>
 80030bc:	4532                	lw	a0,12(sp)
 80030be:	450c                	lw	a1,8(a0)
 80030c0:	1854                	addi	a3,sp,52
 80030c2:	8622                	mv	a2,s0
 80030c4:	ce36                	sw	a3,28(sp)
 80030c6:	1d3000ef          	jal	ra,8003a98 <_vfiprintf_r>
 80030ca:	50b2                	lw	ra,44(sp)
 80030cc:	5422                	lw	s0,40(sp)
 80030ce:	6161                	addi	sp,sp,80
 80030d0:	8082                	ret

080030d2 <_puts_r>:
_puts_r():
 80030d2:	1101                	addi	sp,sp,-32
 80030d4:	ca26                	sw	s1,20(sp)
 80030d6:	c84a                	sw	s2,16(sp)
 80030d8:	ce06                	sw	ra,28(sp)
 80030da:	cc22                	sw	s0,24(sp)
 80030dc:	c64e                	sw	s3,12(sp)
 80030de:	c452                	sw	s4,8(sp)
 80030e0:	84aa                	mv	s1,a0
 80030e2:	892e                	mv	s2,a1
 80030e4:	c501                	beqz	a0,80030ec <_puts_r+0x1a>
 80030e6:	4d1c                	lw	a5,24(a0)
 80030e8:	e391                	bnez	a5,80030ec <_puts_r+0x1a>
 80030ea:	2385                	jal	800364a <__sinit>
 80030ec:	4c9c                	lw	a5,24(s1)
 80030ee:	4480                	lw	s0,8(s1)
 80030f0:	e399                	bnez	a5,80030f6 <_puts_r+0x24>
 80030f2:	8526                	mv	a0,s1
 80030f4:	2b99                	jal	800364a <__sinit>
 80030f6:	ffffe797          	auipc	a5,0xffffe
 80030fa:	57278793          	addi	a5,a5,1394 # 8001668 <__sf_fake_stdin>
 80030fe:	02f41c63          	bne	s0,a5,8003136 <_puts_r+0x64>
 8003102:	40c0                	lw	s0,4(s1)
 8003104:	00c45783          	lhu	a5,12(s0)
 8003108:	8ba1                	andi	a5,a5,8
 800310a:	c7b1                	beqz	a5,8003156 <_puts_r+0x84>
 800310c:	481c                	lw	a5,16(s0)
 800310e:	c7a1                	beqz	a5,8003156 <_puts_r+0x84>
 8003110:	59fd                	li	s3,-1
 8003112:	4a29                	li	s4,10
 8003114:	441c                	lw	a5,8(s0)
 8003116:	00094583          	lbu	a1,0(s2)
 800311a:	17fd                	addi	a5,a5,-1
 800311c:	e9b1                	bnez	a1,8003170 <_puts_r+0x9e>
 800311e:	c41c                	sw	a5,8(s0)
 8003120:	0607de63          	bgez	a5,800319c <_puts_r+0xca>
 8003124:	8622                	mv	a2,s0
 8003126:	45a9                	li	a1,10
 8003128:	8526                	mv	a0,s1
 800312a:	2079                	jal	80031b8 <__swbuf_r>
 800312c:	57fd                	li	a5,-1
 800312e:	02f50863          	beq	a0,a5,800315e <_puts_r+0x8c>
 8003132:	4529                	li	a0,10
 8003134:	a035                	j	8003160 <_puts_r+0x8e>
 8003136:	ffffe797          	auipc	a5,0xffffe
 800313a:	55278793          	addi	a5,a5,1362 # 8001688 <__sf_fake_stdout>
 800313e:	00f41463          	bne	s0,a5,8003146 <_puts_r+0x74>
 8003142:	4480                	lw	s0,8(s1)
 8003144:	b7c1                	j	8003104 <_puts_r+0x32>
 8003146:	ffffe797          	auipc	a5,0xffffe
 800314a:	50278793          	addi	a5,a5,1282 # 8001648 <__sf_fake_stderr>
 800314e:	faf41be3          	bne	s0,a5,8003104 <_puts_r+0x32>
 8003152:	44c0                	lw	s0,12(s1)
 8003154:	bf45                	j	8003104 <_puts_r+0x32>
 8003156:	85a2                	mv	a1,s0
 8003158:	8526                	mv	a0,s1
 800315a:	2a39                	jal	8003278 <__swsetup_r>
 800315c:	d955                	beqz	a0,8003110 <_puts_r+0x3e>
 800315e:	557d                	li	a0,-1
 8003160:	40f2                	lw	ra,28(sp)
 8003162:	4462                	lw	s0,24(sp)
 8003164:	44d2                	lw	s1,20(sp)
 8003166:	4942                	lw	s2,16(sp)
 8003168:	49b2                	lw	s3,12(sp)
 800316a:	4a22                	lw	s4,8(sp)
 800316c:	6105                	addi	sp,sp,32
 800316e:	8082                	ret
 8003170:	c41c                	sw	a5,8(s0)
 8003172:	0905                	addi	s2,s2,1
 8003174:	0007d763          	bgez	a5,8003182 <_puts_r+0xb0>
 8003178:	4c18                	lw	a4,24(s0)
 800317a:	00e7cb63          	blt	a5,a4,8003190 <_puts_r+0xbe>
 800317e:	01458963          	beq	a1,s4,8003190 <_puts_r+0xbe>
 8003182:	401c                	lw	a5,0(s0)
 8003184:	00178713          	addi	a4,a5,1
 8003188:	c018                	sw	a4,0(s0)
 800318a:	00b78023          	sb	a1,0(a5)
 800318e:	b759                	j	8003114 <_puts_r+0x42>
 8003190:	8622                	mv	a2,s0
 8003192:	8526                	mv	a0,s1
 8003194:	2015                	jal	80031b8 <__swbuf_r>
 8003196:	f7351fe3          	bne	a0,s3,8003114 <_puts_r+0x42>
 800319a:	b7d1                	j	800315e <_puts_r+0x8c>
 800319c:	401c                	lw	a5,0(s0)
 800319e:	00178713          	addi	a4,a5,1
 80031a2:	c018                	sw	a4,0(s0)
 80031a4:	4729                	li	a4,10
 80031a6:	00e78023          	sb	a4,0(a5)
 80031aa:	b761                	j	8003132 <_puts_r+0x60>

080031ac <puts>:
puts():
 80031ac:	85aa                	mv	a1,a0
 80031ae:	17ffd517          	auipc	a0,0x17ffd
 80031b2:	1b652503          	lw	a0,438(a0) # 20000364 <_impure_ptr>
 80031b6:	bf31                	j	80030d2 <_puts_r>

080031b8 <__swbuf_r>:
__swbuf_r():
 80031b8:	1101                	addi	sp,sp,-32
 80031ba:	cc22                	sw	s0,24(sp)
 80031bc:	ca26                	sw	s1,20(sp)
 80031be:	c84a                	sw	s2,16(sp)
 80031c0:	ce06                	sw	ra,28(sp)
 80031c2:	c64e                	sw	s3,12(sp)
 80031c4:	84aa                	mv	s1,a0
 80031c6:	892e                	mv	s2,a1
 80031c8:	8432                	mv	s0,a2
 80031ca:	c501                	beqz	a0,80031d2 <__swbuf_r+0x1a>
 80031cc:	4d1c                	lw	a5,24(a0)
 80031ce:	e391                	bnez	a5,80031d2 <__swbuf_r+0x1a>
 80031d0:	29ad                	jal	800364a <__sinit>
 80031d2:	ffffe797          	auipc	a5,0xffffe
 80031d6:	49678793          	addi	a5,a5,1174 # 8001668 <__sf_fake_stdin>
 80031da:	06f41963          	bne	s0,a5,800324c <__swbuf_r+0x94>
 80031de:	40c0                	lw	s0,4(s1)
 80031e0:	4c1c                	lw	a5,24(s0)
 80031e2:	c41c                	sw	a5,8(s0)
 80031e4:	00c45783          	lhu	a5,12(s0)
 80031e8:	8ba1                	andi	a5,a5,8
 80031ea:	c3c9                	beqz	a5,800326c <__swbuf_r+0xb4>
 80031ec:	481c                	lw	a5,16(s0)
 80031ee:	cfbd                	beqz	a5,800326c <__swbuf_r+0xb4>
 80031f0:	481c                	lw	a5,16(s0)
 80031f2:	4008                	lw	a0,0(s0)
 80031f4:	0ff97993          	zext.b	s3,s2
 80031f8:	0ff97913          	zext.b	s2,s2
 80031fc:	8d1d                	sub	a0,a0,a5
 80031fe:	485c                	lw	a5,20(s0)
 8003200:	00f54663          	blt	a0,a5,800320c <__swbuf_r+0x54>
 8003204:	85a2                	mv	a1,s0
 8003206:	8526                	mv	a0,s1
 8003208:	2615                	jal	800352c <_fflush_r>
 800320a:	e52d                	bnez	a0,8003274 <__swbuf_r+0xbc>
 800320c:	441c                	lw	a5,8(s0)
 800320e:	0505                	addi	a0,a0,1
 8003210:	17fd                	addi	a5,a5,-1
 8003212:	c41c                	sw	a5,8(s0)
 8003214:	401c                	lw	a5,0(s0)
 8003216:	00178713          	addi	a4,a5,1
 800321a:	c018                	sw	a4,0(s0)
 800321c:	01378023          	sb	s3,0(a5)
 8003220:	485c                	lw	a5,20(s0)
 8003222:	00a78963          	beq	a5,a0,8003234 <__swbuf_r+0x7c>
 8003226:	00c45783          	lhu	a5,12(s0)
 800322a:	8b85                	andi	a5,a5,1
 800322c:	cb81                	beqz	a5,800323c <__swbuf_r+0x84>
 800322e:	47a9                	li	a5,10
 8003230:	00f91663          	bne	s2,a5,800323c <__swbuf_r+0x84>
 8003234:	85a2                	mv	a1,s0
 8003236:	8526                	mv	a0,s1
 8003238:	2cd5                	jal	800352c <_fflush_r>
 800323a:	ed0d                	bnez	a0,8003274 <__swbuf_r+0xbc>
 800323c:	40f2                	lw	ra,28(sp)
 800323e:	4462                	lw	s0,24(sp)
 8003240:	44d2                	lw	s1,20(sp)
 8003242:	49b2                	lw	s3,12(sp)
 8003244:	854a                	mv	a0,s2
 8003246:	4942                	lw	s2,16(sp)
 8003248:	6105                	addi	sp,sp,32
 800324a:	8082                	ret
 800324c:	ffffe797          	auipc	a5,0xffffe
 8003250:	43c78793          	addi	a5,a5,1084 # 8001688 <__sf_fake_stdout>
 8003254:	00f41463          	bne	s0,a5,800325c <__swbuf_r+0xa4>
 8003258:	4480                	lw	s0,8(s1)
 800325a:	b759                	j	80031e0 <__swbuf_r+0x28>
 800325c:	ffffe797          	auipc	a5,0xffffe
 8003260:	3ec78793          	addi	a5,a5,1004 # 8001648 <__sf_fake_stderr>
 8003264:	f6f41ee3          	bne	s0,a5,80031e0 <__swbuf_r+0x28>
 8003268:	44c0                	lw	s0,12(s1)
 800326a:	bf9d                	j	80031e0 <__swbuf_r+0x28>
 800326c:	85a2                	mv	a1,s0
 800326e:	8526                	mv	a0,s1
 8003270:	2021                	jal	8003278 <__swsetup_r>
 8003272:	dd3d                	beqz	a0,80031f0 <__swbuf_r+0x38>
 8003274:	597d                	li	s2,-1
 8003276:	b7d9                	j	800323c <__swbuf_r+0x84>

08003278 <__swsetup_r>:
__swsetup_r():
 8003278:	1141                	addi	sp,sp,-16
 800327a:	c422                	sw	s0,8(sp)
 800327c:	c226                	sw	s1,4(sp)
 800327e:	c04a                	sw	s2,0(sp)
 8003280:	c606                	sw	ra,12(sp)
 8003282:	17ffd497          	auipc	s1,0x17ffd
 8003286:	0e24a483          	lw	s1,226(s1) # 20000364 <_impure_ptr>
 800328a:	892a                	mv	s2,a0
 800328c:	842e                	mv	s0,a1
 800328e:	c489                	beqz	s1,8003298 <__swsetup_r+0x20>
 8003290:	4c9c                	lw	a5,24(s1)
 8003292:	e399                	bnez	a5,8003298 <__swsetup_r+0x20>
 8003294:	8526                	mv	a0,s1
 8003296:	2e55                	jal	800364a <__sinit>
 8003298:	ffffe797          	auipc	a5,0xffffe
 800329c:	3d078793          	addi	a5,a5,976 # 8001668 <__sf_fake_stdin>
 80032a0:	02f41663          	bne	s0,a5,80032cc <__swsetup_r+0x54>
 80032a4:	40c0                	lw	s0,4(s1)
 80032a6:	00c41783          	lh	a5,12(s0)
 80032aa:	0087f693          	andi	a3,a5,8
 80032ae:	0807c733          	zext.h	a4,a5
 80032b2:	eaad                	bnez	a3,8003324 <__swsetup_r+0xac>
 80032b4:	01077693          	andi	a3,a4,16
 80032b8:	ea95                	bnez	a3,80032ec <__swsetup_r+0x74>
 80032ba:	4725                	li	a4,9
 80032bc:	00e92023          	sw	a4,0(s2)
 80032c0:	0407e793          	ori	a5,a5,64
 80032c4:	00f41623          	sh	a5,12(s0)
 80032c8:	557d                	li	a0,-1
 80032ca:	a869                	j	8003364 <__swsetup_r+0xec>
 80032cc:	ffffe797          	auipc	a5,0xffffe
 80032d0:	3bc78793          	addi	a5,a5,956 # 8001688 <__sf_fake_stdout>
 80032d4:	00f41463          	bne	s0,a5,80032dc <__swsetup_r+0x64>
 80032d8:	4480                	lw	s0,8(s1)
 80032da:	b7f1                	j	80032a6 <__swsetup_r+0x2e>
 80032dc:	ffffe797          	auipc	a5,0xffffe
 80032e0:	36c78793          	addi	a5,a5,876 # 8001648 <__sf_fake_stderr>
 80032e4:	fcf411e3          	bne	s0,a5,80032a6 <__swsetup_r+0x2e>
 80032e8:	44c0                	lw	s0,12(s1)
 80032ea:	bf75                	j	80032a6 <__swsetup_r+0x2e>
 80032ec:	8b11                	andi	a4,a4,4
 80032ee:	c70d                	beqz	a4,8003318 <__swsetup_r+0xa0>
 80032f0:	584c                	lw	a1,52(s0)
 80032f2:	c989                	beqz	a1,8003304 <__swsetup_r+0x8c>
 80032f4:	04440793          	addi	a5,s0,68
 80032f8:	00f58463          	beq	a1,a5,8003300 <__swsetup_r+0x88>
 80032fc:	854a                	mv	a0,s2
 80032fe:	2b6d                	jal	80038b8 <_free_r>
 8003300:	02042a23          	sw	zero,52(s0)
 8003304:	00c45783          	lhu	a5,12(s0)
 8003308:	00042223          	sw	zero,4(s0)
 800330c:	fdb7f793          	andi	a5,a5,-37
 8003310:	00f41623          	sh	a5,12(s0)
 8003314:	481c                	lw	a5,16(s0)
 8003316:	c01c                	sw	a5,0(s0)
 8003318:	00c45783          	lhu	a5,12(s0)
 800331c:	0087e793          	ori	a5,a5,8
 8003320:	00f41623          	sh	a5,12(s0)
 8003324:	481c                	lw	a5,16(s0)
 8003326:	ef81                	bnez	a5,800333e <__swsetup_r+0xc6>
 8003328:	00c45783          	lhu	a5,12(s0)
 800332c:	20000713          	li	a4,512
 8003330:	2807f793          	andi	a5,a5,640
 8003334:	00e78563          	beq	a5,a4,800333e <__swsetup_r+0xc6>
 8003338:	85a2                	mv	a1,s0
 800333a:	854a                	mv	a0,s2
 800333c:	29f1                	jal	8003818 <__smakebuf_r>
 800333e:	00c41783          	lh	a5,12(s0)
 8003342:	0017f693          	andi	a3,a5,1
 8003346:	0807c733          	zext.h	a4,a5
 800334a:	c29d                	beqz	a3,8003370 <__swsetup_r+0xf8>
 800334c:	4854                	lw	a3,20(s0)
 800334e:	00042423          	sw	zero,8(s0)
 8003352:	40d006b3          	neg	a3,a3
 8003356:	cc14                	sw	a3,24(s0)
 8003358:	4814                	lw	a3,16(s0)
 800335a:	4501                	li	a0,0
 800335c:	e681                	bnez	a3,8003364 <__swsetup_r+0xec>
 800335e:	08077713          	andi	a4,a4,128
 8003362:	ff39                	bnez	a4,80032c0 <__swsetup_r+0x48>
 8003364:	40b2                	lw	ra,12(sp)
 8003366:	4422                	lw	s0,8(sp)
 8003368:	4492                	lw	s1,4(sp)
 800336a:	4902                	lw	s2,0(sp)
 800336c:	0141                	addi	sp,sp,16
 800336e:	8082                	ret
 8003370:	00277693          	andi	a3,a4,2
 8003374:	4601                	li	a2,0
 8003376:	e291                	bnez	a3,800337a <__swsetup_r+0x102>
 8003378:	4850                	lw	a2,20(s0)
 800337a:	c410                	sw	a2,8(s0)
 800337c:	bff1                	j	8003358 <__swsetup_r+0xe0>

0800337e <__register_exitproc>:
__register_exitproc():
 800337e:	88aa                	mv	a7,a0
 8003380:	9e018513          	addi	a0,gp,-1568 # 20000540 <_global_atexit>
 8003384:	4118                	lw	a4,0(a0)
 8003386:	ef11                	bnez	a4,80033a2 <__register_exitproc+0x24>
 8003388:	18000797          	auipc	a5,0x18000
 800338c:	20078793          	addi	a5,a5,512 # 20003588 <_global_atexit0>
 8003390:	c11c                	sw	a5,0(a0)
 8003392:	00000513          	li	a0,0
 8003396:	873e                	mv	a4,a5
 8003398:	c509                	beqz	a0,80033a2 <__register_exitproc+0x24>
 800339a:	4118                	lw	a4,0(a0)
 800339c:	08e7a423          	sw	a4,136(a5)
 80033a0:	873e                	mv	a4,a5
 80033a2:	435c                	lw	a5,4(a4)
 80033a4:	487d                	li	a6,31
 80033a6:	557d                	li	a0,-1
 80033a8:	04f84463          	blt	a6,a5,80033f0 <__register_exitproc+0x72>
 80033ac:	02088b63          	beqz	a7,80033e2 <__register_exitproc+0x64>
 80033b0:	08872803          	lw	a6,136(a4)
 80033b4:	02080e63          	beqz	a6,80033f0 <__register_exitproc+0x72>
 80033b8:	2107c333          	sh2add	t1,a5,a6
 80033bc:	00c32023          	sw	a2,0(t1)
 80033c0:	10082603          	lw	a2,256(a6)
 80033c4:	28f01533          	bset	a0,zero,a5
 80033c8:	8e49                	or	a2,a2,a0
 80033ca:	10c82023          	sw	a2,256(a6)
 80033ce:	08d32023          	sw	a3,128(t1)
 80033d2:	4689                	li	a3,2
 80033d4:	00d89763          	bne	a7,a3,80033e2 <__register_exitproc+0x64>
 80033d8:	10482683          	lw	a3,260(a6)
 80033dc:	8ec9                	or	a3,a3,a0
 80033de:	10d82223          	sw	a3,260(a6)
 80033e2:	00178693          	addi	a3,a5,1
 80033e6:	c354                	sw	a3,4(a4)
 80033e8:	20e7c7b3          	sh2add	a5,a5,a4
 80033ec:	4501                	li	a0,0
 80033ee:	c78c                	sw	a1,8(a5)
 80033f0:	8082                	ret

080033f2 <__sflush_r>:
__sflush_r():
 80033f2:	00c5d783          	lhu	a5,12(a1)
 80033f6:	1101                	addi	sp,sp,-32
 80033f8:	cc22                	sw	s0,24(sp)
 80033fa:	ca26                	sw	s1,20(sp)
 80033fc:	ce06                	sw	ra,28(sp)
 80033fe:	c84a                	sw	s2,16(sp)
 8003400:	c64e                	sw	s3,12(sp)
 8003402:	0087f713          	andi	a4,a5,8
 8003406:	84aa                	mv	s1,a0
 8003408:	842e                	mv	s0,a1
 800340a:	ef61                	bnez	a4,80034e2 <__sflush_r+0xf0>
 800340c:	41d8                	lw	a4,4(a1)
 800340e:	00e04d63          	bgtz	a4,8003428 <__sflush_r+0x36>
 8003412:	41b8                	lw	a4,64(a1)
 8003414:	00e04a63          	bgtz	a4,8003428 <__sflush_r+0x36>
 8003418:	4501                	li	a0,0
 800341a:	40f2                	lw	ra,28(sp)
 800341c:	4462                	lw	s0,24(sp)
 800341e:	44d2                	lw	s1,20(sp)
 8003420:	4942                	lw	s2,16(sp)
 8003422:	49b2                	lw	s3,12(sp)
 8003424:	6105                	addi	sp,sp,32
 8003426:	8082                	ret
 8003428:	5458                	lw	a4,44(s0)
 800342a:	d77d                	beqz	a4,8003418 <__sflush_r+0x26>
 800342c:	6685                	lui	a3,0x1
 800342e:	0004a903          	lw	s2,0(s1)
 8003432:	8ff5                	and	a5,a5,a3
 8003434:	0004a023          	sw	zero,0(s1)
 8003438:	cbbd                	beqz	a5,80034ae <__sflush_r+0xbc>
 800343a:	4868                	lw	a0,84(s0)
 800343c:	00c45783          	lhu	a5,12(s0)
 8003440:	8b91                	andi	a5,a5,4
 8003442:	c799                	beqz	a5,8003450 <__sflush_r+0x5e>
 8003444:	405c                	lw	a5,4(s0)
 8003446:	8d1d                	sub	a0,a0,a5
 8003448:	585c                	lw	a5,52(s0)
 800344a:	c399                	beqz	a5,8003450 <__sflush_r+0x5e>
 800344c:	403c                	lw	a5,64(s0)
 800344e:	8d1d                	sub	a0,a0,a5
 8003450:	545c                	lw	a5,44(s0)
 8003452:	500c                	lw	a1,32(s0)
 8003454:	862a                	mv	a2,a0
 8003456:	4681                	li	a3,0
 8003458:	8526                	mv	a0,s1
 800345a:	9782                	jalr	a5
 800345c:	577d                	li	a4,-1
 800345e:	00c45783          	lhu	a5,12(s0)
 8003462:	00e51c63          	bne	a0,a4,800347a <__sflush_r+0x88>
 8003466:	4094                	lw	a3,0(s1)
 8003468:	4775                	li	a4,29
 800346a:	06d76763          	bltu	a4,a3,80034d8 <__sflush_r+0xe6>
 800346e:	20400737          	lui	a4,0x20400
 8003472:	0705                	addi	a4,a4,1
 8003474:	48d75733          	bext	a4,a4,a3
 8003478:	c325                	beqz	a4,80034d8 <__sflush_r+0xe6>
 800347a:	4818                	lw	a4,16(s0)
 800347c:	00042223          	sw	zero,4(s0)
 8003480:	c018                	sw	a4,0(s0)
 8003482:	6705                	lui	a4,0x1
 8003484:	8ff9                	and	a5,a5,a4
 8003486:	c799                	beqz	a5,8003494 <__sflush_r+0xa2>
 8003488:	57fd                	li	a5,-1
 800348a:	00f51463          	bne	a0,a5,8003492 <__sflush_r+0xa0>
 800348e:	409c                	lw	a5,0(s1)
 8003490:	e391                	bnez	a5,8003494 <__sflush_r+0xa2>
 8003492:	c868                	sw	a0,84(s0)
 8003494:	584c                	lw	a1,52(s0)
 8003496:	0124a023          	sw	s2,0(s1)
 800349a:	ddbd                	beqz	a1,8003418 <__sflush_r+0x26>
 800349c:	04440793          	addi	a5,s0,68
 80034a0:	00f58463          	beq	a1,a5,80034a8 <__sflush_r+0xb6>
 80034a4:	8526                	mv	a0,s1
 80034a6:	2909                	jal	80038b8 <_free_r>
 80034a8:	02042a23          	sw	zero,52(s0)
 80034ac:	b7b5                	j	8003418 <__sflush_r+0x26>
 80034ae:	500c                	lw	a1,32(s0)
 80034b0:	4685                	li	a3,1
 80034b2:	4601                	li	a2,0
 80034b4:	8526                	mv	a0,s1
 80034b6:	9702                	jalr	a4
 80034b8:	57fd                	li	a5,-1
 80034ba:	f8f511e3          	bne	a0,a5,800343c <__sflush_r+0x4a>
 80034be:	409c                	lw	a5,0(s1)
 80034c0:	dfb5                	beqz	a5,800343c <__sflush_r+0x4a>
 80034c2:	4775                	li	a4,29
 80034c4:	00e78563          	beq	a5,a4,80034ce <__sflush_r+0xdc>
 80034c8:	4759                	li	a4,22
 80034ca:	00e79563          	bne	a5,a4,80034d4 <__sflush_r+0xe2>
 80034ce:	0124a023          	sw	s2,0(s1)
 80034d2:	b799                	j	8003418 <__sflush_r+0x26>
 80034d4:	00c45783          	lhu	a5,12(s0)
 80034d8:	0407e793          	ori	a5,a5,64
 80034dc:	00f41623          	sh	a5,12(s0)
 80034e0:	bf2d                	j	800341a <__sflush_r+0x28>
 80034e2:	0105a983          	lw	s3,16(a1)
 80034e6:	f20989e3          	beqz	s3,8003418 <__sflush_r+0x26>
 80034ea:	0005a903          	lw	s2,0(a1)
 80034ee:	8b8d                	andi	a5,a5,3
 80034f0:	0135a023          	sw	s3,0(a1)
 80034f4:	41390933          	sub	s2,s2,s3
 80034f8:	4701                	li	a4,0
 80034fa:	e391                	bnez	a5,80034fe <__sflush_r+0x10c>
 80034fc:	49d8                	lw	a4,20(a1)
 80034fe:	c418                	sw	a4,8(s0)
 8003500:	f1205ce3          	blez	s2,8003418 <__sflush_r+0x26>
 8003504:	541c                	lw	a5,40(s0)
 8003506:	500c                	lw	a1,32(s0)
 8003508:	86ca                	mv	a3,s2
 800350a:	864e                	mv	a2,s3
 800350c:	8526                	mv	a0,s1
 800350e:	9782                	jalr	a5
 8003510:	00a04a63          	bgtz	a0,8003524 <__sflush_r+0x132>
 8003514:	00c45783          	lhu	a5,12(s0)
 8003518:	557d                	li	a0,-1
 800351a:	0407e793          	ori	a5,a5,64
 800351e:	00f41623          	sh	a5,12(s0)
 8003522:	bde5                	j	800341a <__sflush_r+0x28>
 8003524:	99aa                	add	s3,s3,a0
 8003526:	40a90933          	sub	s2,s2,a0
 800352a:	bfd9                	j	8003500 <__sflush_r+0x10e>

0800352c <_fflush_r>:
_fflush_r():
 800352c:	499c                	lw	a5,16(a1)
 800352e:	cfb9                	beqz	a5,800358c <_fflush_r+0x60>
 8003530:	1101                	addi	sp,sp,-32
 8003532:	cc22                	sw	s0,24(sp)
 8003534:	ce06                	sw	ra,28(sp)
 8003536:	842a                	mv	s0,a0
 8003538:	c511                	beqz	a0,8003544 <_fflush_r+0x18>
 800353a:	4d1c                	lw	a5,24(a0)
 800353c:	e781                	bnez	a5,8003544 <_fflush_r+0x18>
 800353e:	c62e                	sw	a1,12(sp)
 8003540:	2229                	jal	800364a <__sinit>
 8003542:	45b2                	lw	a1,12(sp)
 8003544:	ffffe797          	auipc	a5,0xffffe
 8003548:	12478793          	addi	a5,a5,292 # 8001668 <__sf_fake_stdin>
 800354c:	00f59b63          	bne	a1,a5,8003562 <_fflush_r+0x36>
 8003550:	404c                	lw	a1,4(s0)
 8003552:	00c59783          	lh	a5,12(a1)
 8003556:	c795                	beqz	a5,8003582 <_fflush_r+0x56>
 8003558:	8522                	mv	a0,s0
 800355a:	4462                	lw	s0,24(sp)
 800355c:	40f2                	lw	ra,28(sp)
 800355e:	6105                	addi	sp,sp,32
 8003560:	bd49                	j	80033f2 <__sflush_r>
 8003562:	ffffe797          	auipc	a5,0xffffe
 8003566:	12678793          	addi	a5,a5,294 # 8001688 <__sf_fake_stdout>
 800356a:	00f59463          	bne	a1,a5,8003572 <_fflush_r+0x46>
 800356e:	440c                	lw	a1,8(s0)
 8003570:	b7cd                	j	8003552 <_fflush_r+0x26>
 8003572:	ffffe797          	auipc	a5,0xffffe
 8003576:	0d678793          	addi	a5,a5,214 # 8001648 <__sf_fake_stderr>
 800357a:	fcf59ce3          	bne	a1,a5,8003552 <_fflush_r+0x26>
 800357e:	444c                	lw	a1,12(s0)
 8003580:	bfc9                	j	8003552 <_fflush_r+0x26>
 8003582:	40f2                	lw	ra,28(sp)
 8003584:	4462                	lw	s0,24(sp)
 8003586:	4501                	li	a0,0
 8003588:	6105                	addi	sp,sp,32
 800358a:	8082                	ret
 800358c:	4501                	li	a0,0
 800358e:	8082                	ret

08003590 <std>:
std():
 8003590:	1141                	addi	sp,sp,-16
 8003592:	c422                	sw	s0,8(sp)
 8003594:	c606                	sw	ra,12(sp)
 8003596:	842a                	mv	s0,a0
 8003598:	00b51623          	sh	a1,12(a0)
 800359c:	00c51723          	sh	a2,14(a0)
 80035a0:	00052023          	sw	zero,0(a0)
 80035a4:	00052223          	sw	zero,4(a0)
 80035a8:	00052423          	sw	zero,8(a0)
 80035ac:	06052223          	sw	zero,100(a0)
 80035b0:	00052823          	sw	zero,16(a0)
 80035b4:	00052a23          	sw	zero,20(a0)
 80035b8:	00052c23          	sw	zero,24(a0)
 80035bc:	4621                	li	a2,8
 80035be:	4581                	li	a1,0
 80035c0:	05c50513          	addi	a0,a0,92
 80035c4:	a29ff0ef          	jal	ra,8002fec <memset>
 80035c8:	00001797          	auipc	a5,0x1
 80035cc:	afa78793          	addi	a5,a5,-1286 # 80040c2 <__sread>
 80035d0:	d05c                	sw	a5,36(s0)
 80035d2:	00001797          	auipc	a5,0x1
 80035d6:	b1e78793          	addi	a5,a5,-1250 # 80040f0 <__swrite>
 80035da:	d41c                	sw	a5,40(s0)
 80035dc:	00001797          	auipc	a5,0x1
 80035e0:	b6078793          	addi	a5,a5,-1184 # 800413c <__sseek>
 80035e4:	d45c                	sw	a5,44(s0)
 80035e6:	00001797          	auipc	a5,0x1
 80035ea:	b8a78793          	addi	a5,a5,-1142 # 8004170 <__sclose>
 80035ee:	40b2                	lw	ra,12(sp)
 80035f0:	d000                	sw	s0,32(s0)
 80035f2:	d81c                	sw	a5,48(s0)
 80035f4:	4422                	lw	s0,8(sp)
 80035f6:	0141                	addi	sp,sp,16
 80035f8:	8082                	ret

080035fa <_cleanup_r>:
_cleanup_r():
 80035fa:	00000597          	auipc	a1,0x0
 80035fe:	f3258593          	addi	a1,a1,-206 # 800352c <_fflush_r>
 8003602:	aa81                	j	8003752 <_fwalk_reent>

08003604 <__sfmoreglue>:
__sfmoreglue():
 8003604:	1141                	addi	sp,sp,-16
 8003606:	c226                	sw	s1,4(sp)
 8003608:	06800613          	li	a2,104
 800360c:	fff58493          	addi	s1,a1,-1
 8003610:	02c484b3          	mul	s1,s1,a2
 8003614:	c04a                	sw	s2,0(sp)
 8003616:	892e                	mv	s2,a1
 8003618:	c422                	sw	s0,8(sp)
 800361a:	c606                	sw	ra,12(sp)
 800361c:	07448593          	addi	a1,s1,116
 8003620:	2e2d                	jal	800395a <_malloc_r>
 8003622:	842a                	mv	s0,a0
 8003624:	cd01                	beqz	a0,800363c <__sfmoreglue+0x38>
 8003626:	00052023          	sw	zero,0(a0)
 800362a:	01252223          	sw	s2,4(a0)
 800362e:	0531                	addi	a0,a0,12
 8003630:	c408                	sw	a0,8(s0)
 8003632:	06848613          	addi	a2,s1,104
 8003636:	4581                	li	a1,0
 8003638:	9b5ff0ef          	jal	ra,8002fec <memset>
 800363c:	40b2                	lw	ra,12(sp)
 800363e:	8522                	mv	a0,s0
 8003640:	4422                	lw	s0,8(sp)
 8003642:	4492                	lw	s1,4(sp)
 8003644:	4902                	lw	s2,0(sp)
 8003646:	0141                	addi	sp,sp,16
 8003648:	8082                	ret

0800364a <__sinit>:
__sinit():
 800364a:	4d1c                	lw	a5,24(a0)
 800364c:	e3bd                	bnez	a5,80036b2 <__sinit+0x68>
 800364e:	1141                	addi	sp,sp,-16
 8003650:	c422                	sw	s0,8(sp)
 8003652:	c606                	sw	ra,12(sp)
 8003654:	00000797          	auipc	a5,0x0
 8003658:	fa678793          	addi	a5,a5,-90 # 80035fa <_cleanup_r>
 800365c:	d51c                	sw	a5,40(a0)
 800365e:	04052423          	sw	zero,72(a0)
 8003662:	04052623          	sw	zero,76(a0)
 8003666:	04052823          	sw	zero,80(a0)
 800366a:	00001797          	auipc	a5,0x1
 800366e:	c4a7a783          	lw	a5,-950(a5) # 80042b4 <_global_impure_ptr>
 8003672:	842a                	mv	s0,a0
 8003674:	00f51463          	bne	a0,a5,800367c <__sinit+0x32>
 8003678:	4785                	li	a5,1
 800367a:	cd1c                	sw	a5,24(a0)
 800367c:	8522                	mv	a0,s0
 800367e:	281d                	jal	80036b4 <__sfp>
 8003680:	c048                	sw	a0,4(s0)
 8003682:	8522                	mv	a0,s0
 8003684:	2805                	jal	80036b4 <__sfp>
 8003686:	c408                	sw	a0,8(s0)
 8003688:	8522                	mv	a0,s0
 800368a:	202d                	jal	80036b4 <__sfp>
 800368c:	c448                	sw	a0,12(s0)
 800368e:	4048                	lw	a0,4(s0)
 8003690:	4601                	li	a2,0
 8003692:	4591                	li	a1,4
 8003694:	3df5                	jal	8003590 <std>
 8003696:	4408                	lw	a0,8(s0)
 8003698:	4605                	li	a2,1
 800369a:	45a5                	li	a1,9
 800369c:	3dd5                	jal	8003590 <std>
 800369e:	4448                	lw	a0,12(s0)
 80036a0:	4609                	li	a2,2
 80036a2:	45c9                	li	a1,18
 80036a4:	35f5                	jal	8003590 <std>
 80036a6:	4785                	li	a5,1
 80036a8:	40b2                	lw	ra,12(sp)
 80036aa:	cc1c                	sw	a5,24(s0)
 80036ac:	4422                	lw	s0,8(sp)
 80036ae:	0141                	addi	sp,sp,16
 80036b0:	8082                	ret
 80036b2:	8082                	ret

080036b4 <__sfp>:
__sfp():
 80036b4:	1141                	addi	sp,sp,-16
 80036b6:	c226                	sw	s1,4(sp)
 80036b8:	00001497          	auipc	s1,0x1
 80036bc:	bfc4a483          	lw	s1,-1028(s1) # 80042b4 <_global_impure_ptr>
 80036c0:	4c9c                	lw	a5,24(s1)
 80036c2:	c04a                	sw	s2,0(sp)
 80036c4:	c606                	sw	ra,12(sp)
 80036c6:	c422                	sw	s0,8(sp)
 80036c8:	892a                	mv	s2,a0
 80036ca:	e399                	bnez	a5,80036d0 <__sfp+0x1c>
 80036cc:	8526                	mv	a0,s1
 80036ce:	3fb5                	jal	800364a <__sinit>
 80036d0:	04848493          	addi	s1,s1,72
 80036d4:	4480                	lw	s0,8(s1)
 80036d6:	40dc                	lw	a5,4(s1)
 80036d8:	17fd                	addi	a5,a5,-1
 80036da:	0007d663          	bgez	a5,80036e6 <__sfp+0x32>
 80036de:	409c                	lw	a5,0(s1)
 80036e0:	cfb9                	beqz	a5,800373e <__sfp+0x8a>
 80036e2:	4084                	lw	s1,0(s1)
 80036e4:	bfc5                	j	80036d4 <__sfp+0x20>
 80036e6:	00c41703          	lh	a4,12(s0)
 80036ea:	e739                	bnez	a4,8003738 <__sfp+0x84>
 80036ec:	77c1                	lui	a5,0xffff0
 80036ee:	0785                	addi	a5,a5,1
 80036f0:	06042223          	sw	zero,100(s0)
 80036f4:	00042023          	sw	zero,0(s0)
 80036f8:	00042223          	sw	zero,4(s0)
 80036fc:	00042423          	sw	zero,8(s0)
 8003700:	c45c                	sw	a5,12(s0)
 8003702:	00042823          	sw	zero,16(s0)
 8003706:	00042a23          	sw	zero,20(s0)
 800370a:	00042c23          	sw	zero,24(s0)
 800370e:	4621                	li	a2,8
 8003710:	4581                	li	a1,0
 8003712:	05c40513          	addi	a0,s0,92
 8003716:	8d7ff0ef          	jal	ra,8002fec <memset>
 800371a:	02042a23          	sw	zero,52(s0)
 800371e:	02042c23          	sw	zero,56(s0)
 8003722:	04042423          	sw	zero,72(s0)
 8003726:	04042623          	sw	zero,76(s0)
 800372a:	40b2                	lw	ra,12(sp)
 800372c:	8522                	mv	a0,s0
 800372e:	4422                	lw	s0,8(sp)
 8003730:	4492                	lw	s1,4(sp)
 8003732:	4902                	lw	s2,0(sp)
 8003734:	0141                	addi	sp,sp,16
 8003736:	8082                	ret
 8003738:	06840413          	addi	s0,s0,104
 800373c:	bf71                	j	80036d8 <__sfp+0x24>
 800373e:	4591                	li	a1,4
 8003740:	854a                	mv	a0,s2
 8003742:	35c9                	jal	8003604 <__sfmoreglue>
 8003744:	c088                	sw	a0,0(s1)
 8003746:	842a                	mv	s0,a0
 8003748:	fd49                	bnez	a0,80036e2 <__sfp+0x2e>
 800374a:	47b1                	li	a5,12
 800374c:	00f92023          	sw	a5,0(s2)
 8003750:	bfe9                	j	800372a <__sfp+0x76>

08003752 <_fwalk_reent>:
_fwalk_reent():
 8003752:	7179                	addi	sp,sp,-48
 8003754:	d422                	sw	s0,40(sp)
 8003756:	d04a                	sw	s2,32(sp)
 8003758:	ce4e                	sw	s3,28(sp)
 800375a:	cc52                	sw	s4,24(sp)
 800375c:	c85a                	sw	s6,16(sp)
 800375e:	c65e                	sw	s7,12(sp)
 8003760:	d606                	sw	ra,44(sp)
 8003762:	d226                	sw	s1,36(sp)
 8003764:	ca56                	sw	s5,20(sp)
 8003766:	892a                	mv	s2,a0
 8003768:	8a2e                	mv	s4,a1
 800376a:	04850413          	addi	s0,a0,72
 800376e:	4981                	li	s3,0
 8003770:	4b05                	li	s6,1
 8003772:	5bfd                	li	s7,-1
 8003774:	4404                	lw	s1,8(s0)
 8003776:	00442a83          	lw	s5,4(s0)
 800377a:	1afd                	addi	s5,s5,-1
 800377c:	020ad063          	bgez	s5,800379c <_fwalk_reent+0x4a>
 8003780:	4000                	lw	s0,0(s0)
 8003782:	f86d                	bnez	s0,8003774 <_fwalk_reent+0x22>
 8003784:	50b2                	lw	ra,44(sp)
 8003786:	5422                	lw	s0,40(sp)
 8003788:	5492                	lw	s1,36(sp)
 800378a:	5902                	lw	s2,32(sp)
 800378c:	4a62                	lw	s4,24(sp)
 800378e:	4ad2                	lw	s5,20(sp)
 8003790:	4b42                	lw	s6,16(sp)
 8003792:	4bb2                	lw	s7,12(sp)
 8003794:	854e                	mv	a0,s3
 8003796:	49f2                	lw	s3,28(sp)
 8003798:	6145                	addi	sp,sp,48
 800379a:	8082                	ret
 800379c:	00c4d783          	lhu	a5,12(s1)
 80037a0:	00fb7b63          	bgeu	s6,a5,80037b6 <_fwalk_reent+0x64>
 80037a4:	00e49783          	lh	a5,14(s1)
 80037a8:	01778763          	beq	a5,s7,80037b6 <_fwalk_reent+0x64>
 80037ac:	85a6                	mv	a1,s1
 80037ae:	854a                	mv	a0,s2
 80037b0:	9a02                	jalr	s4
 80037b2:	00a9e9b3          	or	s3,s3,a0
 80037b6:	06848493          	addi	s1,s1,104
 80037ba:	b7c1                	j	800377a <_fwalk_reent+0x28>

080037bc <__swhatbuf_r>:
__swhatbuf_r():
 80037bc:	7159                	addi	sp,sp,-112
 80037be:	d4a2                	sw	s0,104(sp)
 80037c0:	d2a6                	sw	s1,100(sp)
 80037c2:	d0ca                	sw	s2,96(sp)
 80037c4:	d686                	sw	ra,108(sp)
 80037c6:	892e                	mv	s2,a1
 80037c8:	8432                	mv	s0,a2
 80037ca:	84b6                	mv	s1,a3
 80037cc:	00e59583          	lh	a1,14(a1)
 80037d0:	0005dc63          	bgez	a1,80037e8 <__swhatbuf_r+0x2c>
 80037d4:	00c91783          	lh	a5,12(s2)
 80037d8:	0004a023          	sw	zero,0(s1)
 80037dc:	0807f793          	andi	a5,a5,128
 80037e0:	e395                	bnez	a5,8003804 <__swhatbuf_r+0x48>
 80037e2:	40000793          	li	a5,1024
 80037e6:	a00d                	j	8003808 <__swhatbuf_r+0x4c>
 80037e8:	0030                	addi	a2,sp,8
 80037ea:	1e1000ef          	jal	ra,80041ca <_fstat_r>
 80037ee:	fe0543e3          	bltz	a0,80037d4 <__swhatbuf_r+0x18>
 80037f2:	4732                	lw	a4,12(sp)
 80037f4:	67bd                	lui	a5,0xf
 80037f6:	8ff9                	and	a5,a5,a4
 80037f8:	7779                	lui	a4,0xffffe
 80037fa:	97ba                	add	a5,a5,a4
 80037fc:	0017b793          	seqz	a5,a5
 8003800:	c09c                	sw	a5,0(s1)
 8003802:	b7c5                	j	80037e2 <__swhatbuf_r+0x26>
 8003804:	04000793          	li	a5,64
 8003808:	50b6                	lw	ra,108(sp)
 800380a:	c01c                	sw	a5,0(s0)
 800380c:	5426                	lw	s0,104(sp)
 800380e:	5496                	lw	s1,100(sp)
 8003810:	5906                	lw	s2,96(sp)
 8003812:	4501                	li	a0,0
 8003814:	6165                	addi	sp,sp,112
 8003816:	8082                	ret

08003818 <__smakebuf_r>:
__smakebuf_r():
 8003818:	00c5d783          	lhu	a5,12(a1)
 800381c:	1101                	addi	sp,sp,-32
 800381e:	cc22                	sw	s0,24(sp)
 8003820:	ce06                	sw	ra,28(sp)
 8003822:	ca26                	sw	s1,20(sp)
 8003824:	c84a                	sw	s2,16(sp)
 8003826:	8b89                	andi	a5,a5,2
 8003828:	842e                	mv	s0,a1
 800382a:	cf89                	beqz	a5,8003844 <__smakebuf_r+0x2c>
 800382c:	04740793          	addi	a5,s0,71
 8003830:	c01c                	sw	a5,0(s0)
 8003832:	c81c                	sw	a5,16(s0)
 8003834:	4785                	li	a5,1
 8003836:	c85c                	sw	a5,20(s0)
 8003838:	40f2                	lw	ra,28(sp)
 800383a:	4462                	lw	s0,24(sp)
 800383c:	44d2                	lw	s1,20(sp)
 800383e:	4942                	lw	s2,16(sp)
 8003840:	6105                	addi	sp,sp,32
 8003842:	8082                	ret
 8003844:	0074                	addi	a3,sp,12
 8003846:	0030                	addi	a2,sp,8
 8003848:	892a                	mv	s2,a0
 800384a:	3f8d                	jal	80037bc <__swhatbuf_r>
 800384c:	45a2                	lw	a1,8(sp)
 800384e:	84aa                	mv	s1,a0
 8003850:	854a                	mv	a0,s2
 8003852:	2221                	jal	800395a <_malloc_r>
 8003854:	00c45783          	lhu	a5,12(s0)
 8003858:	ed09                	bnez	a0,8003872 <__smakebuf_r+0x5a>
 800385a:	60579713          	sext.h	a4,a5
 800385e:	2007f793          	andi	a5,a5,512
 8003862:	fbf9                	bnez	a5,8003838 <__smakebuf_r+0x20>
 8003864:	ffc77793          	andi	a5,a4,-4
 8003868:	0027e793          	ori	a5,a5,2
 800386c:	00f41623          	sh	a5,12(s0)
 8003870:	bf75                	j	800382c <__smakebuf_r+0x14>
 8003872:	00000717          	auipc	a4,0x0
 8003876:	d8870713          	addi	a4,a4,-632 # 80035fa <_cleanup_r>
 800387a:	02e92423          	sw	a4,40(s2)
 800387e:	0807e793          	ori	a5,a5,128
 8003882:	00f41623          	sh	a5,12(s0)
 8003886:	47a2                	lw	a5,8(sp)
 8003888:	c008                	sw	a0,0(s0)
 800388a:	c808                	sw	a0,16(s0)
 800388c:	c85c                	sw	a5,20(s0)
 800388e:	47b2                	lw	a5,12(sp)
 8003890:	cf91                	beqz	a5,80038ac <__smakebuf_r+0x94>
 8003892:	854a                	mv	a0,s2
 8003894:	00e41583          	lh	a1,14(s0)
 8003898:	15d000ef          	jal	ra,80041f4 <_isatty_r>
 800389c:	c901                	beqz	a0,80038ac <__smakebuf_r+0x94>
 800389e:	00c45783          	lhu	a5,12(s0)
 80038a2:	9bf1                	andi	a5,a5,-4
 80038a4:	0017e793          	ori	a5,a5,1
 80038a8:	00f41623          	sh	a5,12(s0)
 80038ac:	00c45503          	lhu	a0,12(s0)
 80038b0:	8cc9                	or	s1,s1,a0
 80038b2:	00941623          	sh	s1,12(s0)
 80038b6:	b749                	j	8003838 <__smakebuf_r+0x20>

080038b8 <_free_r>:
_free_r():
 80038b8:	c1c5                	beqz	a1,8003958 <_free_r+0xa0>
 80038ba:	ffc5a783          	lw	a5,-4(a1)
 80038be:	1101                	addi	sp,sp,-32
 80038c0:	cc22                	sw	s0,24(sp)
 80038c2:	ce06                	sw	ra,28(sp)
 80038c4:	ffc58413          	addi	s0,a1,-4
 80038c8:	0007d363          	bgez	a5,80038ce <_free_r+0x16>
 80038cc:	943e                	add	s0,s0,a5
 80038ce:	c62a                	sw	a0,12(sp)
 80038d0:	193000ef          	jal	ra,8004262 <__malloc_lock>
 80038d4:	9e418713          	addi	a4,gp,-1564 # 20000544 <__malloc_free_list>
 80038d8:	431c                	lw	a5,0(a4)
 80038da:	4532                	lw	a0,12(sp)
 80038dc:	eb89                	bnez	a5,80038ee <_free_r+0x36>
 80038de:	00042223          	sw	zero,4(s0)
 80038e2:	c300                	sw	s0,0(a4)
 80038e4:	4462                	lw	s0,24(sp)
 80038e6:	40f2                	lw	ra,28(sp)
 80038e8:	6105                	addi	sp,sp,32
 80038ea:	17b0006f          	j	8004264 <__malloc_unlock>
 80038ee:	00f47d63          	bgeu	s0,a5,8003908 <_free_r+0x50>
 80038f2:	4010                	lw	a2,0(s0)
 80038f4:	00c406b3          	add	a3,s0,a2
 80038f8:	00d79663          	bne	a5,a3,8003904 <_free_r+0x4c>
 80038fc:	4394                	lw	a3,0(a5)
 80038fe:	43dc                	lw	a5,4(a5)
 8003900:	96b2                	add	a3,a3,a2
 8003902:	c014                	sw	a3,0(s0)
 8003904:	c05c                	sw	a5,4(s0)
 8003906:	bff1                	j	80038e2 <_free_r+0x2a>
 8003908:	873e                	mv	a4,a5
 800390a:	43dc                	lw	a5,4(a5)
 800390c:	c399                	beqz	a5,8003912 <_free_r+0x5a>
 800390e:	fef47de3          	bgeu	s0,a5,8003908 <_free_r+0x50>
 8003912:	4314                	lw	a3,0(a4)
 8003914:	00d70633          	add	a2,a4,a3
 8003918:	00861f63          	bne	a2,s0,8003936 <_free_r+0x7e>
 800391c:	4010                	lw	a2,0(s0)
 800391e:	96b2                	add	a3,a3,a2
 8003920:	c314                	sw	a3,0(a4)
 8003922:	00d70633          	add	a2,a4,a3
 8003926:	fac79fe3          	bne	a5,a2,80038e4 <_free_r+0x2c>
 800392a:	4390                	lw	a2,0(a5)
 800392c:	43dc                	lw	a5,4(a5)
 800392e:	96b2                	add	a3,a3,a2
 8003930:	c314                	sw	a3,0(a4)
 8003932:	c35c                	sw	a5,4(a4)
 8003934:	bf45                	j	80038e4 <_free_r+0x2c>
 8003936:	00c47563          	bgeu	s0,a2,8003940 <_free_r+0x88>
 800393a:	47b1                	li	a5,12
 800393c:	c11c                	sw	a5,0(a0)
 800393e:	b75d                	j	80038e4 <_free_r+0x2c>
 8003940:	4010                	lw	a2,0(s0)
 8003942:	00c406b3          	add	a3,s0,a2
 8003946:	00d79663          	bne	a5,a3,8003952 <_free_r+0x9a>
 800394a:	4394                	lw	a3,0(a5)
 800394c:	43dc                	lw	a5,4(a5)
 800394e:	96b2                	add	a3,a3,a2
 8003950:	c014                	sw	a3,0(s0)
 8003952:	c05c                	sw	a5,4(s0)
 8003954:	c340                	sw	s0,4(a4)
 8003956:	b779                	j	80038e4 <_free_r+0x2c>
 8003958:	8082                	ret

0800395a <_malloc_r>:
_malloc_r():
 800395a:	1101                	addi	sp,sp,-32
 800395c:	ca26                	sw	s1,20(sp)
 800395e:	00358493          	addi	s1,a1,3
 8003962:	98f1                	andi	s1,s1,-4
 8003964:	c84a                	sw	s2,16(sp)
 8003966:	04a1                	addi	s1,s1,8
 8003968:	47b1                	li	a5,12
 800396a:	ce06                	sw	ra,28(sp)
 800396c:	cc22                	sw	s0,24(sp)
 800396e:	c64e                	sw	s3,12(sp)
 8003970:	892a                	mv	s2,a0
 8003972:	0af4f4b3          	maxu	s1,s1,a5
 8003976:	0004c463          	bltz	s1,800397e <_malloc_r+0x24>
 800397a:	00b4fd63          	bgeu	s1,a1,8003994 <_malloc_r+0x3a>
 800397e:	47b1                	li	a5,12
 8003980:	00f92023          	sw	a5,0(s2)
 8003984:	4501                	li	a0,0
 8003986:	40f2                	lw	ra,28(sp)
 8003988:	4462                	lw	s0,24(sp)
 800398a:	44d2                	lw	s1,20(sp)
 800398c:	4942                	lw	s2,16(sp)
 800398e:	49b2                	lw	s3,12(sp)
 8003990:	6105                	addi	sp,sp,32
 8003992:	8082                	ret
 8003994:	0cf000ef          	jal	ra,8004262 <__malloc_lock>
 8003998:	9e418693          	addi	a3,gp,-1564 # 20000544 <__malloc_free_list>
 800399c:	4298                	lw	a4,0(a3)
 800399e:	843a                	mv	s0,a4
 80039a0:	e415                	bnez	s0,80039cc <_malloc_r+0x72>
 80039a2:	9e818413          	addi	s0,gp,-1560 # 20000548 <__malloc_sbrk_start>
 80039a6:	401c                	lw	a5,0(s0)
 80039a8:	e789                	bnez	a5,80039b2 <_malloc_r+0x58>
 80039aa:	4581                	li	a1,0
 80039ac:	854a                	mv	a0,s2
 80039ae:	25fd                	jal	800409c <_sbrk_r>
 80039b0:	c008                	sw	a0,0(s0)
 80039b2:	85a6                	mv	a1,s1
 80039b4:	854a                	mv	a0,s2
 80039b6:	25dd                	jal	800409c <_sbrk_r>
 80039b8:	59fd                	li	s3,-1
 80039ba:	05351d63          	bne	a0,s3,8003a14 <_malloc_r+0xba>
 80039be:	47b1                	li	a5,12
 80039c0:	00f92023          	sw	a5,0(s2)
 80039c4:	854a                	mv	a0,s2
 80039c6:	09f000ef          	jal	ra,8004264 <__malloc_unlock>
 80039ca:	bf6d                	j	8003984 <_malloc_r+0x2a>
 80039cc:	401c                	lw	a5,0(s0)
 80039ce:	8f85                	sub	a5,a5,s1
 80039d0:	0207cf63          	bltz	a5,8003a0e <_malloc_r+0xb4>
 80039d4:	462d                	li	a2,11
 80039d6:	00f67663          	bgeu	a2,a5,80039e2 <_malloc_r+0x88>
 80039da:	c01c                	sw	a5,0(s0)
 80039dc:	943e                	add	s0,s0,a5
 80039de:	c004                	sw	s1,0(s0)
 80039e0:	a029                	j	80039ea <_malloc_r+0x90>
 80039e2:	405c                	lw	a5,4(s0)
 80039e4:	02871363          	bne	a4,s0,8003a0a <_malloc_r+0xb0>
 80039e8:	c29c                	sw	a5,0(a3)
 80039ea:	854a                	mv	a0,s2
 80039ec:	079000ef          	jal	ra,8004264 <__malloc_unlock>
 80039f0:	00b40513          	addi	a0,s0,11
 80039f4:	00440793          	addi	a5,s0,4
 80039f8:	9961                	andi	a0,a0,-8
 80039fa:	40f50733          	sub	a4,a0,a5
 80039fe:	f8f504e3          	beq	a0,a5,8003986 <_malloc_r+0x2c>
 8003a02:	943a                	add	s0,s0,a4
 8003a04:	8f89                	sub	a5,a5,a0
 8003a06:	c01c                	sw	a5,0(s0)
 8003a08:	bfbd                	j	8003986 <_malloc_r+0x2c>
 8003a0a:	c35c                	sw	a5,4(a4)
 8003a0c:	bff9                	j	80039ea <_malloc_r+0x90>
 8003a0e:	8722                	mv	a4,s0
 8003a10:	4040                	lw	s0,4(s0)
 8003a12:	b779                	j	80039a0 <_malloc_r+0x46>
 8003a14:	00350413          	addi	s0,a0,3
 8003a18:	9871                	andi	s0,s0,-4
 8003a1a:	fc8502e3          	beq	a0,s0,80039de <_malloc_r+0x84>
 8003a1e:	40a405b3          	sub	a1,s0,a0
 8003a22:	854a                	mv	a0,s2
 8003a24:	2da5                	jal	800409c <_sbrk_r>
 8003a26:	fb351ce3          	bne	a0,s3,80039de <_malloc_r+0x84>
 8003a2a:	bf51                	j	80039be <_malloc_r+0x64>

08003a2c <__sfputc_r>:
__sfputc_r():
 8003a2c:	461c                	lw	a5,8(a2)
 8003a2e:	17fd                	addi	a5,a5,-1
 8003a30:	c61c                	sw	a5,8(a2)
 8003a32:	0007da63          	bgez	a5,8003a46 <__sfputc_r+0x1a>
 8003a36:	4e18                	lw	a4,24(a2)
 8003a38:	00e7c563          	blt	a5,a4,8003a42 <__sfputc_r+0x16>
 8003a3c:	47a9                	li	a5,10
 8003a3e:	00f59463          	bne	a1,a5,8003a46 <__sfputc_r+0x1a>
 8003a42:	f76ff06f          	j	80031b8 <__swbuf_r>
 8003a46:	421c                	lw	a5,0(a2)
 8003a48:	852e                	mv	a0,a1
 8003a4a:	00178713          	addi	a4,a5,1 # f001 <__stack_size+0xe001>
 8003a4e:	c218                	sw	a4,0(a2)
 8003a50:	00b78023          	sb	a1,0(a5)
 8003a54:	8082                	ret

08003a56 <__sfputs_r>:
__sfputs_r():
 8003a56:	1101                	addi	sp,sp,-32
 8003a58:	cc22                	sw	s0,24(sp)
 8003a5a:	ca26                	sw	s1,20(sp)
 8003a5c:	c84a                	sw	s2,16(sp)
 8003a5e:	c64e                	sw	s3,12(sp)
 8003a60:	c452                	sw	s4,8(sp)
 8003a62:	ce06                	sw	ra,28(sp)
 8003a64:	892a                	mv	s2,a0
 8003a66:	89ae                	mv	s3,a1
 8003a68:	8432                	mv	s0,a2
 8003a6a:	00d604b3          	add	s1,a2,a3
 8003a6e:	5a7d                	li	s4,-1
 8003a70:	00941463          	bne	s0,s1,8003a78 <__sfputs_r+0x22>
 8003a74:	4501                	li	a0,0
 8003a76:	a809                	j	8003a88 <__sfputs_r+0x32>
 8003a78:	00044583          	lbu	a1,0(s0)
 8003a7c:	864e                	mv	a2,s3
 8003a7e:	854a                	mv	a0,s2
 8003a80:	3775                	jal	8003a2c <__sfputc_r>
 8003a82:	0405                	addi	s0,s0,1
 8003a84:	ff4516e3          	bne	a0,s4,8003a70 <__sfputs_r+0x1a>
 8003a88:	40f2                	lw	ra,28(sp)
 8003a8a:	4462                	lw	s0,24(sp)
 8003a8c:	44d2                	lw	s1,20(sp)
 8003a8e:	4942                	lw	s2,16(sp)
 8003a90:	49b2                	lw	s3,12(sp)
 8003a92:	4a22                	lw	s4,8(sp)
 8003a94:	6105                	addi	sp,sp,32
 8003a96:	8082                	ret

08003a98 <_vfiprintf_r>:
_vfiprintf_r():
 8003a98:	7135                	addi	sp,sp,-160
 8003a9a:	cd22                	sw	s0,152(sp)
 8003a9c:	cb26                	sw	s1,148(sp)
 8003a9e:	c94a                	sw	s2,144(sp)
 8003aa0:	c74e                	sw	s3,140(sp)
 8003aa2:	cf06                	sw	ra,156(sp)
 8003aa4:	c552                	sw	s4,136(sp)
 8003aa6:	c356                	sw	s5,132(sp)
 8003aa8:	c15a                	sw	s6,128(sp)
 8003aaa:	dede                	sw	s7,124(sp)
 8003aac:	dce2                	sw	s8,120(sp)
 8003aae:	89aa                	mv	s3,a0
 8003ab0:	84ae                	mv	s1,a1
 8003ab2:	8932                	mv	s2,a2
 8003ab4:	8436                	mv	s0,a3
 8003ab6:	c509                	beqz	a0,8003ac0 <_vfiprintf_r+0x28>
 8003ab8:	4d1c                	lw	a5,24(a0)
 8003aba:	e399                	bnez	a5,8003ac0 <_vfiprintf_r+0x28>
 8003abc:	b8fff0ef          	jal	ra,800364a <__sinit>
 8003ac0:	ffffe797          	auipc	a5,0xffffe
 8003ac4:	ba878793          	addi	a5,a5,-1112 # 8001668 <__sf_fake_stdin>
 8003ac8:	0cf49963          	bne	s1,a5,8003b9a <_vfiprintf_r+0x102>
 8003acc:	0049a483          	lw	s1,4(s3)
 8003ad0:	00c4d783          	lhu	a5,12(s1)
 8003ad4:	8ba1                	andi	a5,a5,8
 8003ad6:	c7e5                	beqz	a5,8003bbe <_vfiprintf_r+0x126>
 8003ad8:	489c                	lw	a5,16(s1)
 8003ada:	c3f5                	beqz	a5,8003bbe <_vfiprintf_r+0x126>
 8003adc:	02000793          	li	a5,32
 8003ae0:	02f104a3          	sb	a5,41(sp)
 8003ae4:	03000793          	li	a5,48
 8003ae8:	d202                	sw	zero,36(sp)
 8003aea:	02f10523          	sb	a5,42(sp)
 8003aee:	c622                	sw	s0,12(sp)
 8003af0:	02500b93          	li	s7,37
 8003af4:	ffffea97          	auipc	s5,0xffffe
 8003af8:	bb4a8a93          	addi	s5,s5,-1100 # 80016a8 <__sf_fake_stdout+0x20>
 8003afc:	4b29                	li	s6,10
 8003afe:	844a                	mv	s0,s2
 8003b00:	00044783          	lbu	a5,0(s0)
 8003b04:	c399                	beqz	a5,8003b0a <_vfiprintf_r+0x72>
 8003b06:	0d779e63          	bne	a5,s7,8003be2 <_vfiprintf_r+0x14a>
 8003b0a:	41240c33          	sub	s8,s0,s2
 8003b0e:	01240d63          	beq	s0,s2,8003b28 <_vfiprintf_r+0x90>
 8003b12:	86e2                	mv	a3,s8
 8003b14:	864a                	mv	a2,s2
 8003b16:	85a6                	mv	a1,s1
 8003b18:	854e                	mv	a0,s3
 8003b1a:	3f35                	jal	8003a56 <__sfputs_r>
 8003b1c:	57fd                	li	a5,-1
 8003b1e:	1ef50263          	beq	a0,a5,8003d02 <_vfiprintf_r+0x26a>
 8003b22:	5792                	lw	a5,36(sp)
 8003b24:	97e2                	add	a5,a5,s8
 8003b26:	d23e                	sw	a5,36(sp)
 8003b28:	00044783          	lbu	a5,0(s0)
 8003b2c:	1c078b63          	beqz	a5,8003d02 <_vfiprintf_r+0x26a>
 8003b30:	57fd                	li	a5,-1
 8003b32:	00140913          	addi	s2,s0,1
 8003b36:	c802                	sw	zero,16(sp)
 8003b38:	ce02                	sw	zero,28(sp)
 8003b3a:	ca3e                	sw	a5,20(sp)
 8003b3c:	cc02                	sw	zero,24(sp)
 8003b3e:	040109a3          	sb	zero,83(sp)
 8003b42:	d482                	sw	zero,104(sp)
 8003b44:	00094583          	lbu	a1,0(s2)
 8003b48:	4615                	li	a2,5
 8003b4a:	8556                	mv	a0,s5
 8003b4c:	2df5                	jal	8004248 <memchr>
 8003b4e:	47c2                	lw	a5,16(sp)
 8003b50:	00190413          	addi	s0,s2,1
 8003b54:	e949                	bnez	a0,8003be6 <_vfiprintf_r+0x14e>
 8003b56:	0107f713          	andi	a4,a5,16
 8003b5a:	c709                	beqz	a4,8003b64 <_vfiprintf_r+0xcc>
 8003b5c:	02000713          	li	a4,32
 8003b60:	04e109a3          	sb	a4,83(sp)
 8003b64:	0087f713          	andi	a4,a5,8
 8003b68:	c709                	beqz	a4,8003b72 <_vfiprintf_r+0xda>
 8003b6a:	02b00713          	li	a4,43
 8003b6e:	04e109a3          	sb	a4,83(sp)
 8003b72:	00094683          	lbu	a3,0(s2)
 8003b76:	02a00713          	li	a4,42
 8003b7a:	06e68d63          	beq	a3,a4,8003bf4 <_vfiprintf_r+0x15c>
 8003b7e:	4772                	lw	a4,28(sp)
 8003b80:	844a                	mv	s0,s2
 8003b82:	4681                	li	a3,0
 8003b84:	4625                	li	a2,9
 8003b86:	00044783          	lbu	a5,0(s0)
 8003b8a:	00140593          	addi	a1,s0,1
 8003b8e:	fd078793          	addi	a5,a5,-48
 8003b92:	10f67663          	bgeu	a2,a5,8003c9e <_vfiprintf_r+0x206>
 8003b96:	e6b5                	bnez	a3,8003c02 <_vfiprintf_r+0x16a>
 8003b98:	a8ad                	j	8003c12 <_vfiprintf_r+0x17a>
 8003b9a:	ffffe797          	auipc	a5,0xffffe
 8003b9e:	aee78793          	addi	a5,a5,-1298 # 8001688 <__sf_fake_stdout>
 8003ba2:	00f49563          	bne	s1,a5,8003bac <_vfiprintf_r+0x114>
 8003ba6:	0089a483          	lw	s1,8(s3)
 8003baa:	b71d                	j	8003ad0 <_vfiprintf_r+0x38>
 8003bac:	ffffe797          	auipc	a5,0xffffe
 8003bb0:	a9c78793          	addi	a5,a5,-1380 # 8001648 <__sf_fake_stderr>
 8003bb4:	f0f49ee3          	bne	s1,a5,8003ad0 <_vfiprintf_r+0x38>
 8003bb8:	00c9a483          	lw	s1,12(s3)
 8003bbc:	bf11                	j	8003ad0 <_vfiprintf_r+0x38>
 8003bbe:	85a6                	mv	a1,s1
 8003bc0:	854e                	mv	a0,s3
 8003bc2:	eb6ff0ef          	jal	ra,8003278 <__swsetup_r>
 8003bc6:	d919                	beqz	a0,8003adc <_vfiprintf_r+0x44>
 8003bc8:	557d                	li	a0,-1
 8003bca:	40fa                	lw	ra,156(sp)
 8003bcc:	446a                	lw	s0,152(sp)
 8003bce:	44da                	lw	s1,148(sp)
 8003bd0:	494a                	lw	s2,144(sp)
 8003bd2:	49ba                	lw	s3,140(sp)
 8003bd4:	4a2a                	lw	s4,136(sp)
 8003bd6:	4a9a                	lw	s5,132(sp)
 8003bd8:	4b0a                	lw	s6,128(sp)
 8003bda:	5bf6                	lw	s7,124(sp)
 8003bdc:	5c66                	lw	s8,120(sp)
 8003bde:	610d                	addi	sp,sp,160
 8003be0:	8082                	ret
 8003be2:	0405                	addi	s0,s0,1
 8003be4:	bf31                	j	8003b00 <_vfiprintf_r+0x68>
 8003be6:	41550533          	sub	a0,a0,s5
 8003bea:	28a797b3          	bset	a5,a5,a0
 8003bee:	8922                	mv	s2,s0
 8003bf0:	c83e                	sw	a5,16(sp)
 8003bf2:	bf89                	j	8003b44 <_vfiprintf_r+0xac>
 8003bf4:	4732                	lw	a4,12(sp)
 8003bf6:	00470693          	addi	a3,a4,4
 8003bfa:	4318                	lw	a4,0(a4)
 8003bfc:	c636                	sw	a3,12(sp)
 8003bfe:	00074463          	bltz	a4,8003c06 <_vfiprintf_r+0x16e>
 8003c02:	ce3a                	sw	a4,28(sp)
 8003c04:	a039                	j	8003c12 <_vfiprintf_r+0x17a>
 8003c06:	40e00733          	neg	a4,a4
 8003c0a:	0027e793          	ori	a5,a5,2
 8003c0e:	ce3a                	sw	a4,28(sp)
 8003c10:	c83e                	sw	a5,16(sp)
 8003c12:	00044703          	lbu	a4,0(s0)
 8003c16:	02e00793          	li	a5,46
 8003c1a:	02f71163          	bne	a4,a5,8003c3c <_vfiprintf_r+0x1a4>
 8003c1e:	00144703          	lbu	a4,1(s0)
 8003c22:	02a00793          	li	a5,42
 8003c26:	08f71463          	bne	a4,a5,8003cae <_vfiprintf_r+0x216>
 8003c2a:	47b2                	lw	a5,12(sp)
 8003c2c:	0409                	addi	s0,s0,2
 8003c2e:	00478713          	addi	a4,a5,4
 8003c32:	439c                	lw	a5,0(a5)
 8003c34:	c63a                	sw	a4,12(sp)
 8003c36:	0607ca63          	bltz	a5,8003caa <_vfiprintf_r+0x212>
 8003c3a:	ca3e                	sw	a5,20(sp)
 8003c3c:	00044583          	lbu	a1,0(s0)
 8003c40:	460d                	li	a2,3
 8003c42:	ffffe517          	auipc	a0,0xffffe
 8003c46:	a6e50513          	addi	a0,a0,-1426 # 80016b0 <__sf_fake_stdout+0x28>
 8003c4a:	2bfd                	jal	8004248 <memchr>
 8003c4c:	cd11                	beqz	a0,8003c68 <_vfiprintf_r+0x1d0>
 8003c4e:	ffffe797          	auipc	a5,0xffffe
 8003c52:	a6278793          	addi	a5,a5,-1438 # 80016b0 <__sf_fake_stdout+0x28>
 8003c56:	8d1d                	sub	a0,a0,a5
 8003c58:	04000793          	li	a5,64
 8003c5c:	00a797b3          	sll	a5,a5,a0
 8003c60:	4542                	lw	a0,16(sp)
 8003c62:	0405                	addi	s0,s0,1
 8003c64:	8d5d                	or	a0,a0,a5
 8003c66:	c82a                	sw	a0,16(sp)
 8003c68:	00044583          	lbu	a1,0(s0)
 8003c6c:	4619                	li	a2,6
 8003c6e:	ffffe517          	auipc	a0,0xffffe
 8003c72:	a4650513          	addi	a0,a0,-1466 # 80016b4 <__sf_fake_stdout+0x2c>
 8003c76:	00140913          	addi	s2,s0,1
 8003c7a:	02b10423          	sb	a1,40(sp)
 8003c7e:	23e9                	jal	8004248 <memchr>
 8003c80:	c949                	beqz	a0,8003d12 <_vfiprintf_r+0x27a>
 8003c82:	00000793          	li	a5,0
 8003c86:	efb1                	bnez	a5,8003ce2 <_vfiprintf_r+0x24a>
 8003c88:	4742                	lw	a4,16(sp)
 8003c8a:	47b2                	lw	a5,12(sp)
 8003c8c:	10077713          	andi	a4,a4,256
 8003c90:	c729                	beqz	a4,8003cda <_vfiprintf_r+0x242>
 8003c92:	0791                	addi	a5,a5,4
 8003c94:	c63e                	sw	a5,12(sp)
 8003c96:	5792                	lw	a5,36(sp)
 8003c98:	97d2                	add	a5,a5,s4
 8003c9a:	d23e                	sw	a5,36(sp)
 8003c9c:	b58d                	j	8003afe <_vfiprintf_r+0x66>
 8003c9e:	c56717ff          	maddr32	a5,a4,s6
 8003ca2:	842e                	mv	s0,a1
 8003ca4:	873e                	mv	a4,a5
 8003ca6:	4685                	li	a3,1
 8003ca8:	bdf9                	j	8003b86 <_vfiprintf_r+0xee>
 8003caa:	57fd                	li	a5,-1
 8003cac:	b779                	j	8003c3a <_vfiprintf_r+0x1a2>
 8003cae:	0405                	addi	s0,s0,1
 8003cb0:	ca02                	sw	zero,20(sp)
 8003cb2:	4681                	li	a3,0
 8003cb4:	4701                	li	a4,0
 8003cb6:	4625                	li	a2,9
 8003cb8:	00044783          	lbu	a5,0(s0)
 8003cbc:	00140593          	addi	a1,s0,1
 8003cc0:	fd078793          	addi	a5,a5,-48
 8003cc4:	00f67563          	bgeu	a2,a5,8003cce <_vfiprintf_r+0x236>
 8003cc8:	dab5                	beqz	a3,8003c3c <_vfiprintf_r+0x1a4>
 8003cca:	ca3a                	sw	a4,20(sp)
 8003ccc:	bf85                	j	8003c3c <_vfiprintf_r+0x1a4>
 8003cce:	c56717ff          	maddr32	a5,a4,s6
 8003cd2:	842e                	mv	s0,a1
 8003cd4:	873e                	mv	a4,a5
 8003cd6:	4685                	li	a3,1
 8003cd8:	b7c5                	j	8003cb8 <_vfiprintf_r+0x220>
 8003cda:	079d                	addi	a5,a5,7
 8003cdc:	9be1                	andi	a5,a5,-8
 8003cde:	07a1                	addi	a5,a5,8
 8003ce0:	bf55                	j	8003c94 <_vfiprintf_r+0x1fc>
 8003ce2:	0078                	addi	a4,sp,12
 8003ce4:	00000697          	auipc	a3,0x0
 8003ce8:	d7268693          	addi	a3,a3,-654 # 8003a56 <__sfputs_r>
 8003cec:	8626                	mv	a2,s1
 8003cee:	080c                	addi	a1,sp,16
 8003cf0:	854e                	mv	a0,s3
 8003cf2:	00000097          	auipc	ra,0x0
 8003cf6:	000000e7          	jalr	zero # 0 <__stack_size-0x1000>
 8003cfa:	57fd                	li	a5,-1
 8003cfc:	8a2a                	mv	s4,a0
 8003cfe:	f8f51ce3          	bne	a0,a5,8003c96 <_vfiprintf_r+0x1fe>
 8003d02:	00c4d783          	lhu	a5,12(s1)
 8003d06:	0407f793          	andi	a5,a5,64
 8003d0a:	ea079fe3          	bnez	a5,8003bc8 <_vfiprintf_r+0x130>
 8003d0e:	5512                	lw	a0,36(sp)
 8003d10:	bd6d                	j	8003bca <_vfiprintf_r+0x132>
 8003d12:	0078                	addi	a4,sp,12
 8003d14:	00000697          	auipc	a3,0x0
 8003d18:	d4268693          	addi	a3,a3,-702 # 8003a56 <__sfputs_r>
 8003d1c:	8626                	mv	a2,s1
 8003d1e:	080c                	addi	a1,sp,16
 8003d20:	854e                	mv	a0,s3
 8003d22:	2239                	jal	8003e30 <_printf_i>
 8003d24:	bfd9                	j	8003cfa <_vfiprintf_r+0x262>

08003d26 <_printf_common>:
_printf_common():
 8003d26:	7179                	addi	sp,sp,-48
 8003d28:	cc52                	sw	s4,24(sp)
 8003d2a:	499c                	lw	a5,16(a1)
 8003d2c:	8a3a                	mv	s4,a4
 8003d2e:	4598                	lw	a4,8(a1)
 8003d30:	d422                	sw	s0,40(sp)
 8003d32:	d226                	sw	s1,36(sp)
 8003d34:	ce4e                	sw	s3,28(sp)
 8003d36:	ca56                	sw	s5,20(sp)
 8003d38:	d606                	sw	ra,44(sp)
 8003d3a:	d04a                	sw	s2,32(sp)
 8003d3c:	c85a                	sw	s6,16(sp)
 8003d3e:	c65e                	sw	s7,12(sp)
 8003d40:	0ae7e7b3          	max	a5,a5,a4
 8003d44:	c21c                	sw	a5,0(a2)
 8003d46:	0435c703          	lbu	a4,67(a1)
 8003d4a:	89aa                	mv	s3,a0
 8003d4c:	842e                	mv	s0,a1
 8003d4e:	84b2                	mv	s1,a2
 8003d50:	8ab6                	mv	s5,a3
 8003d52:	c319                	beqz	a4,8003d58 <_printf_common+0x32>
 8003d54:	0785                	addi	a5,a5,1
 8003d56:	c21c                	sw	a5,0(a2)
 8003d58:	401c                	lw	a5,0(s0)
 8003d5a:	0207f793          	andi	a5,a5,32
 8003d5e:	c781                	beqz	a5,8003d66 <_printf_common+0x40>
 8003d60:	409c                	lw	a5,0(s1)
 8003d62:	0789                	addi	a5,a5,2
 8003d64:	c09c                	sw	a5,0(s1)
 8003d66:	00042903          	lw	s2,0(s0)
 8003d6a:	00697913          	andi	s2,s2,6
 8003d6e:	00091a63          	bnez	s2,8003d82 <_printf_common+0x5c>
 8003d72:	01940b13          	addi	s6,s0,25
 8003d76:	5bfd                	li	s7,-1
 8003d78:	445c                	lw	a5,12(s0)
 8003d7a:	4098                	lw	a4,0(s1)
 8003d7c:	8f99                	sub	a5,a5,a4
 8003d7e:	04f94c63          	blt	s2,a5,8003dd6 <_printf_common+0xb0>
 8003d82:	04344783          	lbu	a5,67(s0)
 8003d86:	00f036b3          	snez	a3,a5
 8003d8a:	401c                	lw	a5,0(s0)
 8003d8c:	0207f793          	andi	a5,a5,32
 8003d90:	eba5                	bnez	a5,8003e00 <_printf_common+0xda>
 8003d92:	04340613          	addi	a2,s0,67
 8003d96:	85d6                	mv	a1,s5
 8003d98:	854e                	mv	a0,s3
 8003d9a:	9a02                	jalr	s4
 8003d9c:	57fd                	li	a5,-1
 8003d9e:	04f50363          	beq	a0,a5,8003de4 <_printf_common+0xbe>
 8003da2:	401c                	lw	a5,0(s0)
 8003da4:	4611                	li	a2,4
 8003da6:	4098                	lw	a4,0(s1)
 8003da8:	8b99                	andi	a5,a5,6
 8003daa:	4454                	lw	a3,12(s0)
 8003dac:	4481                	li	s1,0
 8003dae:	00c79763          	bne	a5,a2,8003dbc <_printf_common+0x96>
 8003db2:	40e684b3          	sub	s1,a3,a4
 8003db6:	4781                	li	a5,0
 8003db8:	0af4e4b3          	max	s1,s1,a5
 8003dbc:	441c                	lw	a5,8(s0)
 8003dbe:	4818                	lw	a4,16(s0)
 8003dc0:	00f75463          	bge	a4,a5,8003dc8 <_printf_common+0xa2>
 8003dc4:	8f99                	sub	a5,a5,a4
 8003dc6:	94be                	add	s1,s1,a5
 8003dc8:	4901                	li	s2,0
 8003dca:	0469                	addi	s0,s0,26
 8003dcc:	5b7d                	li	s6,-1
 8003dce:	05249863          	bne	s1,s2,8003e1e <_printf_common+0xf8>
 8003dd2:	4501                	li	a0,0
 8003dd4:	a809                	j	8003de6 <_printf_common+0xc0>
 8003dd6:	4685                	li	a3,1
 8003dd8:	865a                	mv	a2,s6
 8003dda:	85d6                	mv	a1,s5
 8003ddc:	854e                	mv	a0,s3
 8003dde:	9a02                	jalr	s4
 8003de0:	01751e63          	bne	a0,s7,8003dfc <_printf_common+0xd6>
 8003de4:	557d                	li	a0,-1
 8003de6:	50b2                	lw	ra,44(sp)
 8003de8:	5422                	lw	s0,40(sp)
 8003dea:	5492                	lw	s1,36(sp)
 8003dec:	5902                	lw	s2,32(sp)
 8003dee:	49f2                	lw	s3,28(sp)
 8003df0:	4a62                	lw	s4,24(sp)
 8003df2:	4ad2                	lw	s5,20(sp)
 8003df4:	4b42                	lw	s6,16(sp)
 8003df6:	4bb2                	lw	s7,12(sp)
 8003df8:	6145                	addi	sp,sp,48
 8003dfa:	8082                	ret
 8003dfc:	0905                	addi	s2,s2,1
 8003dfe:	bfad                	j	8003d78 <_printf_common+0x52>
 8003e00:	00d40733          	add	a4,s0,a3
 8003e04:	03000613          	li	a2,48
 8003e08:	04c701a3          	sb	a2,67(a4)
 8003e0c:	04544703          	lbu	a4,69(s0)
 8003e10:	00168793          	addi	a5,a3,1
 8003e14:	97a2                	add	a5,a5,s0
 8003e16:	0689                	addi	a3,a3,2
 8003e18:	04e781a3          	sb	a4,67(a5)
 8003e1c:	bf9d                	j	8003d92 <_printf_common+0x6c>
 8003e1e:	4685                	li	a3,1
 8003e20:	8622                	mv	a2,s0
 8003e22:	85d6                	mv	a1,s5
 8003e24:	854e                	mv	a0,s3
 8003e26:	9a02                	jalr	s4
 8003e28:	fb650ee3          	beq	a0,s6,8003de4 <_printf_common+0xbe>
 8003e2c:	0905                	addi	s2,s2,1
 8003e2e:	b745                	j	8003dce <_printf_common+0xa8>

08003e30 <_printf_i>:
_printf_i():
 8003e30:	7179                	addi	sp,sp,-48
 8003e32:	d422                	sw	s0,40(sp)
 8003e34:	d226                	sw	s1,36(sp)
 8003e36:	d04a                	sw	s2,32(sp)
 8003e38:	ce4e                	sw	s3,28(sp)
 8003e3a:	d606                	sw	ra,44(sp)
 8003e3c:	cc52                	sw	s4,24(sp)
 8003e3e:	ca56                	sw	s5,20(sp)
 8003e40:	c85a                	sw	s6,16(sp)
 8003e42:	0185c803          	lbu	a6,24(a1)
 8003e46:	07800793          	li	a5,120
 8003e4a:	84aa                	mv	s1,a0
 8003e4c:	842e                	mv	s0,a1
 8003e4e:	8932                	mv	s2,a2
 8003e50:	89b6                	mv	s3,a3
 8003e52:	0107ee63          	bltu	a5,a6,8003e6e <_printf_i+0x3e>
 8003e56:	06200793          	li	a5,98
 8003e5a:	04358893          	addi	a7,a1,67
 8003e5e:	0107ed63          	bltu	a5,a6,8003e78 <_printf_i+0x48>
 8003e62:	1c080463          	beqz	a6,800402a <_printf_i+0x1fa>
 8003e66:	05800793          	li	a5,88
 8003e6a:	12f80c63          	beq	a6,a5,8003fa2 <_printf_i+0x172>
 8003e6e:	04240a93          	addi	s5,s0,66
 8003e72:	05040123          	sb	a6,66(s0)
 8003e76:	a815                	j	8003eaa <_printf_i+0x7a>
 8003e78:	f9d80793          	addi	a5,a6,-99
 8003e7c:	0ff7f793          	zext.b	a5,a5
 8003e80:	46d5                	li	a3,21
 8003e82:	fef6e6e3          	bltu	a3,a5,8003e6e <_printf_i+0x3e>
 8003e86:	ffffe697          	auipc	a3,0xffffe
 8003e8a:	85e68693          	addi	a3,a3,-1954 # 80016e4 <__sf_fake_stdout+0x5c>
 8003e8e:	20d7c7b3          	sh2add	a5,a5,a3
 8003e92:	439c                	lw	a5,0(a5)
 8003e94:	97b6                	add	a5,a5,a3
 8003e96:	8782                	jr	a5
 8003e98:	431c                	lw	a5,0(a4)
 8003e9a:	04258a93          	addi	s5,a1,66
 8003e9e:	00478693          	addi	a3,a5,4
 8003ea2:	439c                	lw	a5,0(a5)
 8003ea4:	c314                	sw	a3,0(a4)
 8003ea6:	04f58123          	sb	a5,66(a1)
 8003eaa:	4785                	li	a5,1
 8003eac:	a255                	j	8004050 <_printf_i+0x220>
 8003eae:	419c                	lw	a5,0(a1)
 8003eb0:	430c                	lw	a1,0(a4)
 8003eb2:	0807f693          	andi	a3,a5,128
 8003eb6:	00458613          	addi	a2,a1,4
 8003eba:	c28d                	beqz	a3,8003edc <_printf_i+0xac>
 8003ebc:	419c                	lw	a5,0(a1)
 8003ebe:	c310                	sw	a2,0(a4)
 8003ec0:	0007d863          	bgez	a5,8003ed0 <_printf_i+0xa0>
 8003ec4:	02d00713          	li	a4,45
 8003ec8:	40f007b3          	neg	a5,a5
 8003ecc:	04e401a3          	sb	a4,67(s0)
 8003ed0:	ffffd697          	auipc	a3,0xffffd
 8003ed4:	7ec68693          	addi	a3,a3,2028 # 80016bc <__sf_fake_stdout+0x34>
 8003ed8:	4829                	li	a6,10
 8003eda:	a0a1                	j	8003f22 <_printf_i+0xf2>
 8003edc:	0407f693          	andi	a3,a5,64
 8003ee0:	419c                	lw	a5,0(a1)
 8003ee2:	c310                	sw	a2,0(a4)
 8003ee4:	def1                	beqz	a3,8003ec0 <_printf_i+0x90>
 8003ee6:	60579793          	sext.h	a5,a5
 8003eea:	bfd9                	j	8003ec0 <_printf_i+0x90>
 8003eec:	4194                	lw	a3,0(a1)
 8003eee:	431c                	lw	a5,0(a4)
 8003ef0:	0806f593          	andi	a1,a3,128
 8003ef4:	00478613          	addi	a2,a5,4
 8003ef8:	c581                	beqz	a1,8003f00 <_printf_i+0xd0>
 8003efa:	c310                	sw	a2,0(a4)
 8003efc:	439c                	lw	a5,0(a5)
 8003efe:	a039                	j	8003f0c <_printf_i+0xdc>
 8003f00:	0406f693          	andi	a3,a3,64
 8003f04:	c310                	sw	a2,0(a4)
 8003f06:	dafd                	beqz	a3,8003efc <_printf_i+0xcc>
 8003f08:	0007d783          	lhu	a5,0(a5)
 8003f0c:	06f00713          	li	a4,111
 8003f10:	ffffd697          	auipc	a3,0xffffd
 8003f14:	7ac68693          	addi	a3,a3,1964 # 80016bc <__sf_fake_stdout+0x34>
 8003f18:	0ee80463          	beq	a6,a4,8004000 <_printf_i+0x1d0>
 8003f1c:	4829                	li	a6,10
 8003f1e:	040401a3          	sb	zero,67(s0)
 8003f22:	4058                	lw	a4,4(s0)
 8003f24:	c418                	sw	a4,8(s0)
 8003f26:	00074563          	bltz	a4,8003f30 <_printf_i+0x100>
 8003f2a:	4010                	lw	a2,0(s0)
 8003f2c:	9a6d                	andi	a2,a2,-5
 8003f2e:	c010                	sw	a2,0(s0)
 8003f30:	e399                	bnez	a5,8003f36 <_printf_i+0x106>
 8003f32:	8ac6                	mv	s5,a7
 8003f34:	cf19                	beqz	a4,8003f52 <_printf_i+0x122>
 8003f36:	8ac6                	mv	s5,a7
 8003f38:	0307f733          	remu	a4,a5,a6
 8003f3c:	1afd                	addi	s5,s5,-1
 8003f3e:	9736                	add	a4,a4,a3
 8003f40:	00074703          	lbu	a4,0(a4)
 8003f44:	00ea8023          	sb	a4,0(s5)
 8003f48:	873e                	mv	a4,a5
 8003f4a:	0307d7b3          	divu	a5,a5,a6
 8003f4e:	ff0775e3          	bgeu	a4,a6,8003f38 <_printf_i+0x108>
 8003f52:	47a1                	li	a5,8
 8003f54:	00f81e63          	bne	a6,a5,8003f70 <_printf_i+0x140>
 8003f58:	401c                	lw	a5,0(s0)
 8003f5a:	8b85                	andi	a5,a5,1
 8003f5c:	cb91                	beqz	a5,8003f70 <_printf_i+0x140>
 8003f5e:	4058                	lw	a4,4(s0)
 8003f60:	481c                	lw	a5,16(s0)
 8003f62:	00e7c763          	blt	a5,a4,8003f70 <_printf_i+0x140>
 8003f66:	03000793          	li	a5,48
 8003f6a:	fefa8fa3          	sb	a5,-1(s5)
 8003f6e:	1afd                	addi	s5,s5,-1
 8003f70:	415888b3          	sub	a7,a7,s5
 8003f74:	01142823          	sw	a7,16(s0)
 8003f78:	874e                	mv	a4,s3
 8003f7a:	86ca                	mv	a3,s2
 8003f7c:	0070                	addi	a2,sp,12
 8003f7e:	85a2                	mv	a1,s0
 8003f80:	8526                	mv	a0,s1
 8003f82:	da5ff0ef          	jal	ra,8003d26 <_printf_common>
 8003f86:	5a7d                	li	s4,-1
 8003f88:	0d451863          	bne	a0,s4,8004058 <_printf_i+0x228>
 8003f8c:	557d                	li	a0,-1
 8003f8e:	50b2                	lw	ra,44(sp)
 8003f90:	5422                	lw	s0,40(sp)
 8003f92:	5492                	lw	s1,36(sp)
 8003f94:	5902                	lw	s2,32(sp)
 8003f96:	49f2                	lw	s3,28(sp)
 8003f98:	4a62                	lw	s4,24(sp)
 8003f9a:	4ad2                	lw	s5,20(sp)
 8003f9c:	4b42                	lw	s6,16(sp)
 8003f9e:	6145                	addi	sp,sp,48
 8003fa0:	8082                	ret
 8003fa2:	050582a3          	sb	a6,69(a1)
 8003fa6:	ffffd697          	auipc	a3,0xffffd
 8003faa:	71668693          	addi	a3,a3,1814 # 80016bc <__sf_fake_stdout+0x34>
 8003fae:	4010                	lw	a2,0(s0)
 8003fb0:	430c                	lw	a1,0(a4)
 8003fb2:	08067513          	andi	a0,a2,128
 8003fb6:	419c                	lw	a5,0(a1)
 8003fb8:	0591                	addi	a1,a1,4
 8003fba:	cd05                	beqz	a0,8003ff2 <_printf_i+0x1c2>
 8003fbc:	c30c                	sw	a1,0(a4)
 8003fbe:	00167713          	andi	a4,a2,1
 8003fc2:	c701                	beqz	a4,8003fca <_printf_i+0x19a>
 8003fc4:	02066613          	ori	a2,a2,32
 8003fc8:	c010                	sw	a2,0(s0)
 8003fca:	4841                	li	a6,16
 8003fcc:	fba9                	bnez	a5,8003f1e <_printf_i+0xee>
 8003fce:	4018                	lw	a4,0(s0)
 8003fd0:	fdf77713          	andi	a4,a4,-33
 8003fd4:	c018                	sw	a4,0(s0)
 8003fd6:	b7a1                	j	8003f1e <_printf_i+0xee>
 8003fd8:	419c                	lw	a5,0(a1)
 8003fda:	0207e793          	ori	a5,a5,32
 8003fde:	c19c                	sw	a5,0(a1)
 8003fe0:	07800793          	li	a5,120
 8003fe4:	04f402a3          	sb	a5,69(s0)
 8003fe8:	ffffd697          	auipc	a3,0xffffd
 8003fec:	6e868693          	addi	a3,a3,1768 # 80016d0 <__sf_fake_stdout+0x48>
 8003ff0:	bf7d                	j	8003fae <_printf_i+0x17e>
 8003ff2:	04067513          	andi	a0,a2,64
 8003ff6:	c30c                	sw	a1,0(a4)
 8003ff8:	d179                	beqz	a0,8003fbe <_printf_i+0x18e>
 8003ffa:	0807c7b3          	zext.h	a5,a5
 8003ffe:	b7c1                	j	8003fbe <_printf_i+0x18e>
 8004000:	4821                	li	a6,8
 8004002:	bf31                	j	8003f1e <_printf_i+0xee>
 8004004:	4194                	lw	a3,0(a1)
 8004006:	431c                	lw	a5,0(a4)
 8004008:	49d0                	lw	a2,20(a1)
 800400a:	0806f513          	andi	a0,a3,128
 800400e:	00478593          	addi	a1,a5,4
 8004012:	c509                	beqz	a0,800401c <_printf_i+0x1ec>
 8004014:	c30c                	sw	a1,0(a4)
 8004016:	439c                	lw	a5,0(a5)
 8004018:	c390                	sw	a2,0(a5)
 800401a:	a801                	j	800402a <_printf_i+0x1fa>
 800401c:	c30c                	sw	a1,0(a4)
 800401e:	0406f693          	andi	a3,a3,64
 8004022:	439c                	lw	a5,0(a5)
 8004024:	daf5                	beqz	a3,8004018 <_printf_i+0x1e8>
 8004026:	00c79023          	sh	a2,0(a5)
 800402a:	00042823          	sw	zero,16(s0)
 800402e:	8ac6                	mv	s5,a7
 8004030:	b7a1                	j	8003f78 <_printf_i+0x148>
 8004032:	431c                	lw	a5,0(a4)
 8004034:	41d0                	lw	a2,4(a1)
 8004036:	4581                	li	a1,0
 8004038:	00478693          	addi	a3,a5,4
 800403c:	c314                	sw	a3,0(a4)
 800403e:	0007aa83          	lw	s5,0(a5)
 8004042:	8556                	mv	a0,s5
 8004044:	2411                	jal	8004248 <memchr>
 8004046:	c501                	beqz	a0,800404e <_printf_i+0x21e>
 8004048:	415507b3          	sub	a5,a0,s5
 800404c:	c05c                	sw	a5,4(s0)
 800404e:	405c                	lw	a5,4(s0)
 8004050:	c81c                	sw	a5,16(s0)
 8004052:	040401a3          	sb	zero,67(s0)
 8004056:	b70d                	j	8003f78 <_printf_i+0x148>
 8004058:	4814                	lw	a3,16(s0)
 800405a:	8656                	mv	a2,s5
 800405c:	85ca                	mv	a1,s2
 800405e:	8526                	mv	a0,s1
 8004060:	9982                	jalr	s3
 8004062:	f34505e3          	beq	a0,s4,8003f8c <_printf_i+0x15c>
 8004066:	401c                	lw	a5,0(s0)
 8004068:	8b89                	andi	a5,a5,2
 800406a:	e785                	bnez	a5,8004092 <_printf_i+0x262>
 800406c:	4448                	lw	a0,12(s0)
 800406e:	47b2                	lw	a5,12(sp)
 8004070:	0af56533          	max	a0,a0,a5
 8004074:	bf29                	j	8003f8e <_printf_i+0x15e>
 8004076:	4685                	li	a3,1
 8004078:	8656                	mv	a2,s5
 800407a:	85ca                	mv	a1,s2
 800407c:	8526                	mv	a0,s1
 800407e:	9982                	jalr	s3
 8004080:	f16506e3          	beq	a0,s6,8003f8c <_printf_i+0x15c>
 8004084:	0a05                	addi	s4,s4,1
 8004086:	445c                	lw	a5,12(s0)
 8004088:	4732                	lw	a4,12(sp)
 800408a:	8f99                	sub	a5,a5,a4
 800408c:	fefa45e3          	blt	s4,a5,8004076 <_printf_i+0x246>
 8004090:	bff1                	j	800406c <_printf_i+0x23c>
 8004092:	4a01                	li	s4,0
 8004094:	01940a93          	addi	s5,s0,25
 8004098:	5b7d                	li	s6,-1
 800409a:	b7f5                	j	8004086 <_printf_i+0x256>

0800409c <_sbrk_r>:
_sbrk_r():
 800409c:	1141                	addi	sp,sp,-16
 800409e:	c422                	sw	s0,8(sp)
 80040a0:	842a                	mv	s0,a0
 80040a2:	852e                	mv	a0,a1
 80040a4:	9e01a623          	sw	zero,-1556(gp) # 2000054c <errno>
 80040a8:	c606                	sw	ra,12(sp)
 80040aa:	22e5                	jal	8004292 <_sbrk>
 80040ac:	57fd                	li	a5,-1
 80040ae:	00f51663          	bne	a0,a5,80040ba <_sbrk_r+0x1e>
 80040b2:	9ec1a783          	lw	a5,-1556(gp) # 2000054c <errno>
 80040b6:	c391                	beqz	a5,80040ba <_sbrk_r+0x1e>
 80040b8:	c01c                	sw	a5,0(s0)
 80040ba:	40b2                	lw	ra,12(sp)
 80040bc:	4422                	lw	s0,8(sp)
 80040be:	0141                	addi	sp,sp,16
 80040c0:	8082                	ret

080040c2 <__sread>:
__sread():
 80040c2:	1141                	addi	sp,sp,-16
 80040c4:	c422                	sw	s0,8(sp)
 80040c6:	c606                	sw	ra,12(sp)
 80040c8:	842e                	mv	s0,a1
 80040ca:	00e59583          	lh	a1,14(a1)
 80040ce:	2a61                	jal	8004266 <_read_r>
 80040d0:	00054963          	bltz	a0,80040e2 <__sread+0x20>
 80040d4:	487c                	lw	a5,84(s0)
 80040d6:	97aa                	add	a5,a5,a0
 80040d8:	c87c                	sw	a5,84(s0)
 80040da:	40b2                	lw	ra,12(sp)
 80040dc:	4422                	lw	s0,8(sp)
 80040de:	0141                	addi	sp,sp,16
 80040e0:	8082                	ret
 80040e2:	00c45783          	lhu	a5,12(s0)
 80040e6:	48c79793          	bclri	a5,a5,0xc
 80040ea:	00f41623          	sh	a5,12(s0)
 80040ee:	b7f5                	j	80040da <__sread+0x18>

080040f0 <__swrite>:
__swrite():
 80040f0:	00c5d783          	lhu	a5,12(a1)
 80040f4:	1101                	addi	sp,sp,-32
 80040f6:	cc22                	sw	s0,24(sp)
 80040f8:	ca26                	sw	s1,20(sp)
 80040fa:	c84a                	sw	s2,16(sp)
 80040fc:	c64e                	sw	s3,12(sp)
 80040fe:	ce06                	sw	ra,28(sp)
 8004100:	1007f793          	andi	a5,a5,256
 8004104:	84aa                	mv	s1,a0
 8004106:	842e                	mv	s0,a1
 8004108:	8932                	mv	s2,a2
 800410a:	89b6                	mv	s3,a3
 800410c:	c791                	beqz	a5,8004118 <__swrite+0x28>
 800410e:	4689                	li	a3,2
 8004110:	4601                	li	a2,0
 8004112:	00e59583          	lh	a1,14(a1)
 8004116:	2219                	jal	800421c <_lseek_r>
 8004118:	00c45783          	lhu	a5,12(s0)
 800411c:	00e41583          	lh	a1,14(s0)
 8004120:	40f2                	lw	ra,28(sp)
 8004122:	48c79793          	bclri	a5,a5,0xc
 8004126:	00f41623          	sh	a5,12(s0)
 800412a:	4462                	lw	s0,24(sp)
 800412c:	86ce                	mv	a3,s3
 800412e:	864a                	mv	a2,s2
 8004130:	49b2                	lw	s3,12(sp)
 8004132:	4942                	lw	s2,16(sp)
 8004134:	8526                	mv	a0,s1
 8004136:	44d2                	lw	s1,20(sp)
 8004138:	6105                	addi	sp,sp,32
 800413a:	a835                	j	8004176 <_write_r>

0800413c <__sseek>:
__sseek():
 800413c:	1141                	addi	sp,sp,-16
 800413e:	c422                	sw	s0,8(sp)
 8004140:	c606                	sw	ra,12(sp)
 8004142:	842e                	mv	s0,a1
 8004144:	00e59583          	lh	a1,14(a1)
 8004148:	28d1                	jal	800421c <_lseek_r>
 800414a:	577d                	li	a4,-1
 800414c:	00c45783          	lhu	a5,12(s0)
 8004150:	00e51a63          	bne	a0,a4,8004164 <__sseek+0x28>
 8004154:	48c79793          	bclri	a5,a5,0xc
 8004158:	00f41623          	sh	a5,12(s0)
 800415c:	40b2                	lw	ra,12(sp)
 800415e:	4422                	lw	s0,8(sp)
 8004160:	0141                	addi	sp,sp,16
 8004162:	8082                	ret
 8004164:	28c79793          	bseti	a5,a5,0xc
 8004168:	c868                	sw	a0,84(s0)
 800416a:	00f41623          	sh	a5,12(s0)
 800416e:	b7fd                	j	800415c <__sseek+0x20>

08004170 <__sclose>:
__sclose():
 8004170:	00e59583          	lh	a1,14(a1)
 8004174:	a03d                	j	80041a2 <_close_r>

08004176 <_write_r>:
_write_r():
 8004176:	1141                	addi	sp,sp,-16
 8004178:	c422                	sw	s0,8(sp)
 800417a:	842a                	mv	s0,a0
 800417c:	852e                	mv	a0,a1
 800417e:	85b2                	mv	a1,a2
 8004180:	8636                	mv	a2,a3
 8004182:	9e01a623          	sw	zero,-1556(gp) # 2000054c <errno>
 8004186:	c606                	sw	ra,12(sp)
 8004188:	abdfe0ef          	jal	ra,8002c44 <_write>
 800418c:	57fd                	li	a5,-1
 800418e:	00f51663          	bne	a0,a5,800419a <_write_r+0x24>
 8004192:	9ec1a783          	lw	a5,-1556(gp) # 2000054c <errno>
 8004196:	c391                	beqz	a5,800419a <_write_r+0x24>
 8004198:	c01c                	sw	a5,0(s0)
 800419a:	40b2                	lw	ra,12(sp)
 800419c:	4422                	lw	s0,8(sp)
 800419e:	0141                	addi	sp,sp,16
 80041a0:	8082                	ret

080041a2 <_close_r>:
_close_r():
 80041a2:	1141                	addi	sp,sp,-16
 80041a4:	c422                	sw	s0,8(sp)
 80041a6:	842a                	mv	s0,a0
 80041a8:	852e                	mv	a0,a1
 80041aa:	9e01a623          	sw	zero,-1556(gp) # 2000054c <errno>
 80041ae:	c606                	sw	ra,12(sp)
 80041b0:	94ffe0ef          	jal	ra,8002afe <_close>
 80041b4:	57fd                	li	a5,-1
 80041b6:	00f51663          	bne	a0,a5,80041c2 <_close_r+0x20>
 80041ba:	9ec1a783          	lw	a5,-1556(gp) # 2000054c <errno>
 80041be:	c391                	beqz	a5,80041c2 <_close_r+0x20>
 80041c0:	c01c                	sw	a5,0(s0)
 80041c2:	40b2                	lw	ra,12(sp)
 80041c4:	4422                	lw	s0,8(sp)
 80041c6:	0141                	addi	sp,sp,16
 80041c8:	8082                	ret

080041ca <_fstat_r>:
_fstat_r():
 80041ca:	1141                	addi	sp,sp,-16
 80041cc:	c422                	sw	s0,8(sp)
 80041ce:	842a                	mv	s0,a0
 80041d0:	852e                	mv	a0,a1
 80041d2:	85b2                	mv	a1,a2
 80041d4:	9e01a623          	sw	zero,-1556(gp) # 2000054c <errno>
 80041d8:	c606                	sw	ra,12(sp)
 80041da:	929fe0ef          	jal	ra,8002b02 <_fstat>
 80041de:	57fd                	li	a5,-1
 80041e0:	00f51663          	bne	a0,a5,80041ec <_fstat_r+0x22>
 80041e4:	9ec1a783          	lw	a5,-1556(gp) # 2000054c <errno>
 80041e8:	c391                	beqz	a5,80041ec <_fstat_r+0x22>
 80041ea:	c01c                	sw	a5,0(s0)
 80041ec:	40b2                	lw	ra,12(sp)
 80041ee:	4422                	lw	s0,8(sp)
 80041f0:	0141                	addi	sp,sp,16
 80041f2:	8082                	ret

080041f4 <_isatty_r>:
_isatty_r():
 80041f4:	1141                	addi	sp,sp,-16
 80041f6:	c422                	sw	s0,8(sp)
 80041f8:	842a                	mv	s0,a0
 80041fa:	852e                	mv	a0,a1
 80041fc:	9e01a623          	sw	zero,-1556(gp) # 2000054c <errno>
 8004200:	c606                	sw	ra,12(sp)
 8004202:	905fe0ef          	jal	ra,8002b06 <_isatty>
 8004206:	57fd                	li	a5,-1
 8004208:	00f51663          	bne	a0,a5,8004214 <_isatty_r+0x20>
 800420c:	9ec1a783          	lw	a5,-1556(gp) # 2000054c <errno>
 8004210:	c391                	beqz	a5,8004214 <_isatty_r+0x20>
 8004212:	c01c                	sw	a5,0(s0)
 8004214:	40b2                	lw	ra,12(sp)
 8004216:	4422                	lw	s0,8(sp)
 8004218:	0141                	addi	sp,sp,16
 800421a:	8082                	ret

0800421c <_lseek_r>:
_lseek_r():
 800421c:	1141                	addi	sp,sp,-16
 800421e:	c422                	sw	s0,8(sp)
 8004220:	842a                	mv	s0,a0
 8004222:	852e                	mv	a0,a1
 8004224:	85b2                	mv	a1,a2
 8004226:	8636                	mv	a2,a3
 8004228:	9e01a623          	sw	zero,-1556(gp) # 2000054c <errno>
 800422c:	c606                	sw	ra,12(sp)
 800422e:	8ddfe0ef          	jal	ra,8002b0a <_lseek>
 8004232:	57fd                	li	a5,-1
 8004234:	00f51663          	bne	a0,a5,8004240 <_lseek_r+0x24>
 8004238:	9ec1a783          	lw	a5,-1556(gp) # 2000054c <errno>
 800423c:	c391                	beqz	a5,8004240 <_lseek_r+0x24>
 800423e:	c01c                	sw	a5,0(s0)
 8004240:	40b2                	lw	ra,12(sp)
 8004242:	4422                	lw	s0,8(sp)
 8004244:	0141                	addi	sp,sp,16
 8004246:	8082                	ret

08004248 <memchr>:
memchr():
 8004248:	0ff5f593          	zext.b	a1,a1
 800424c:	962a                	add	a2,a2,a0
 800424e:	00c51463          	bne	a0,a2,8004256 <memchr+0xe>
 8004252:	4501                	li	a0,0
 8004254:	8082                	ret
 8004256:	00054783          	lbu	a5,0(a0)
 800425a:	feb78de3          	beq	a5,a1,8004254 <memchr+0xc>
 800425e:	0505                	addi	a0,a0,1
 8004260:	b7fd                	j	800424e <memchr+0x6>

08004262 <__malloc_lock>:
__malloc_lock():
 8004262:	8082                	ret

08004264 <__malloc_unlock>:
__malloc_unlock():
 8004264:	8082                	ret

08004266 <_read_r>:
_read_r():
 8004266:	1141                	addi	sp,sp,-16
 8004268:	c422                	sw	s0,8(sp)
 800426a:	842a                	mv	s0,a0
 800426c:	852e                	mv	a0,a1
 800426e:	85b2                	mv	a1,a2
 8004270:	8636                	mv	a2,a3
 8004272:	9e01a623          	sw	zero,-1556(gp) # 2000054c <errno>
 8004276:	c606                	sw	ra,12(sp)
 8004278:	897fe0ef          	jal	ra,8002b0e <_read>
 800427c:	57fd                	li	a5,-1
 800427e:	00f51663          	bne	a0,a5,800428a <_read_r+0x24>
 8004282:	9ec1a783          	lw	a5,-1556(gp) # 2000054c <errno>
 8004286:	c391                	beqz	a5,800428a <_read_r+0x24>
 8004288:	c01c                	sw	a5,0(s0)
 800428a:	40b2                	lw	ra,12(sp)
 800428c:	4422                	lw	s0,8(sp)
 800428e:	0141                	addi	sp,sp,16
 8004290:	8082                	ret

08004292 <_sbrk>:
_sbrk():
 8004292:	9f018713          	addi	a4,gp,-1552 # 20000550 <heap_end.0>
 8004296:	431c                	lw	a5,0(a4)
 8004298:	c789                	beqz	a5,80042a2 <_sbrk+0x10>
 800429a:	953e                	add	a0,a0,a5
 800429c:	c308                	sw	a0,0(a4)
 800429e:	853e                	mv	a0,a5
 80042a0:	8082                	ret
 80042a2:	17fff797          	auipc	a5,0x17fff
 80042a6:	37678793          	addi	a5,a5,886 # 20003618 <_end>
 80042aa:	953e                	add	a0,a0,a5
 80042ac:	c308                	sw	a0,0(a4)
 80042ae:	853e                	mv	a0,a5
 80042b0:	8082                	ret
	...

080042b4 <_global_impure_ptr>:
 80042b4:	0300 2000                                   ... 
