   1              		.file	"gd32vw55x_it.c"
   2              		.option nopic
   3              		.attribute arch, "rv32i2p0_m2p0_a2p0_f2p0_c2p0_b_p0p94"
   4              		.attribute unaligned_access, 0
   5              		.attribute stack_align, 16
   6              		.text
   7              	.Ltext0:
   8              		.cfi_sections	.debug_frame
   9              		.section	.text.USART0_IRQHandler,"ax",@progbits
  10              		.align	1
  11              		.globl	USART0_IRQHandler
  13              	USART0_IRQHandler:
  14              	.LFB368:
  15              		.file 1 "C:/Users/stapi/OneDrive/Desktop/GD32VW553/V1_MQTT_OK/GD32VW55X_Wifi_BLE_SDK/GD32VW55x_REL
   1:C:/Users/stapi/OneDrive/Desktop/GD32VW553/V1_MQTT_OK/GD32VW55X_Wifi_BLE_SDK/GD32VW55x_RELEASE_V1.0.2/MSDK/plf/riscv/gd32vw55x\gd32vw55x_it.c **** /*!
   2:C:/Users/stapi/OneDrive/Desktop/GD32VW553/V1_MQTT_OK/GD32VW55X_Wifi_BLE_SDK/GD32VW55x_RELEASE_V1.0.2/MSDK/plf/riscv/gd32vw55x\gd32vw55x_it.c ****     \file    gd32vw55x_it.c
   3:C:/Users/stapi/OneDrive/Desktop/GD32VW553/V1_MQTT_OK/GD32VW55X_Wifi_BLE_SDK/GD32VW55x_RELEASE_V1.0.2/MSDK/plf/riscv/gd32vw55x\gd32vw55x_it.c ****     \brief   interrupt service routines
   4:C:/Users/stapi/OneDrive/Desktop/GD32VW553/V1_MQTT_OK/GD32VW55X_Wifi_BLE_SDK/GD32VW55x_RELEASE_V1.0.2/MSDK/plf/riscv/gd32vw55x\gd32vw55x_it.c **** 
   5:C:/Users/stapi/OneDrive/Desktop/GD32VW553/V1_MQTT_OK/GD32VW55X_Wifi_BLE_SDK/GD32VW55x_RELEASE_V1.0.2/MSDK/plf/riscv/gd32vw55x\gd32vw55x_it.c ****     \version 2023-07-20, V1.0.0, firmware for GD32VW55x
   6:C:/Users/stapi/OneDrive/Desktop/GD32VW553/V1_MQTT_OK/GD32VW55X_Wifi_BLE_SDK/GD32VW55x_RELEASE_V1.0.2/MSDK/plf/riscv/gd32vw55x\gd32vw55x_it.c **** */
   7:C:/Users/stapi/OneDrive/Desktop/GD32VW553/V1_MQTT_OK/GD32VW55X_Wifi_BLE_SDK/GD32VW55x_RELEASE_V1.0.2/MSDK/plf/riscv/gd32vw55x\gd32vw55x_it.c **** 
   8:C:/Users/stapi/OneDrive/Desktop/GD32VW553/V1_MQTT_OK/GD32VW55X_Wifi_BLE_SDK/GD32VW55x_RELEASE_V1.0.2/MSDK/plf/riscv/gd32vw55x\gd32vw55x_it.c **** /*
   9:C:/Users/stapi/OneDrive/Desktop/GD32VW553/V1_MQTT_OK/GD32VW55X_Wifi_BLE_SDK/GD32VW55x_RELEASE_V1.0.2/MSDK/plf/riscv/gd32vw55x\gd32vw55x_it.c ****     Copyright (c) 2023, GigaDevice Semiconductor Inc.
  10:C:/Users/stapi/OneDrive/Desktop/GD32VW553/V1_MQTT_OK/GD32VW55X_Wifi_BLE_SDK/GD32VW55x_RELEASE_V1.0.2/MSDK/plf/riscv/gd32vw55x\gd32vw55x_it.c **** 
  11:C:/Users/stapi/OneDrive/Desktop/GD32VW553/V1_MQTT_OK/GD32VW55X_Wifi_BLE_SDK/GD32VW55x_RELEASE_V1.0.2/MSDK/plf/riscv/gd32vw55x\gd32vw55x_it.c ****     Redistribution and use in source and binary forms, with or without modification,
  12:C:/Users/stapi/OneDrive/Desktop/GD32VW553/V1_MQTT_OK/GD32VW55X_Wifi_BLE_SDK/GD32VW55x_RELEASE_V1.0.2/MSDK/plf/riscv/gd32vw55x\gd32vw55x_it.c **** are permitted provided that the following conditions are met:
  13:C:/Users/stapi/OneDrive/Desktop/GD32VW553/V1_MQTT_OK/GD32VW55X_Wifi_BLE_SDK/GD32VW55x_RELEASE_V1.0.2/MSDK/plf/riscv/gd32vw55x\gd32vw55x_it.c **** 
  14:C:/Users/stapi/OneDrive/Desktop/GD32VW553/V1_MQTT_OK/GD32VW55X_Wifi_BLE_SDK/GD32VW55x_RELEASE_V1.0.2/MSDK/plf/riscv/gd32vw55x\gd32vw55x_it.c ****     1. Redistributions of source code must retain the above copyright notice, this
  15:C:/Users/stapi/OneDrive/Desktop/GD32VW553/V1_MQTT_OK/GD32VW55X_Wifi_BLE_SDK/GD32VW55x_RELEASE_V1.0.2/MSDK/plf/riscv/gd32vw55x\gd32vw55x_it.c ****        list of conditions and the following disclaimer.
  16:C:/Users/stapi/OneDrive/Desktop/GD32VW553/V1_MQTT_OK/GD32VW55X_Wifi_BLE_SDK/GD32VW55x_RELEASE_V1.0.2/MSDK/plf/riscv/gd32vw55x\gd32vw55x_it.c ****     2. Redistributions in binary form must reproduce the above copyright notice,
  17:C:/Users/stapi/OneDrive/Desktop/GD32VW553/V1_MQTT_OK/GD32VW55X_Wifi_BLE_SDK/GD32VW55x_RELEASE_V1.0.2/MSDK/plf/riscv/gd32vw55x\gd32vw55x_it.c ****        this list of conditions and the following disclaimer in the documentation
  18:C:/Users/stapi/OneDrive/Desktop/GD32VW553/V1_MQTT_OK/GD32VW55X_Wifi_BLE_SDK/GD32VW55x_RELEASE_V1.0.2/MSDK/plf/riscv/gd32vw55x\gd32vw55x_it.c ****        and/or other materials provided with the distribution.
  19:C:/Users/stapi/OneDrive/Desktop/GD32VW553/V1_MQTT_OK/GD32VW55X_Wifi_BLE_SDK/GD32VW55x_RELEASE_V1.0.2/MSDK/plf/riscv/gd32vw55x\gd32vw55x_it.c ****     3. Neither the name of the copyright holder nor the names of its contributors
  20:C:/Users/stapi/OneDrive/Desktop/GD32VW553/V1_MQTT_OK/GD32VW55X_Wifi_BLE_SDK/GD32VW55x_RELEASE_V1.0.2/MSDK/plf/riscv/gd32vw55x\gd32vw55x_it.c ****        may be used to endorse or promote products derived from this software without
  21:C:/Users/stapi/OneDrive/Desktop/GD32VW553/V1_MQTT_OK/GD32VW55X_Wifi_BLE_SDK/GD32VW55x_RELEASE_V1.0.2/MSDK/plf/riscv/gd32vw55x\gd32vw55x_it.c ****        specific prior written permission.
  22:C:/Users/stapi/OneDrive/Desktop/GD32VW553/V1_MQTT_OK/GD32VW55X_Wifi_BLE_SDK/GD32VW55x_RELEASE_V1.0.2/MSDK/plf/riscv/gd32vw55x\gd32vw55x_it.c **** 
  23:C:/Users/stapi/OneDrive/Desktop/GD32VW553/V1_MQTT_OK/GD32VW55X_Wifi_BLE_SDK/GD32VW55x_RELEASE_V1.0.2/MSDK/plf/riscv/gd32vw55x\gd32vw55x_it.c ****     THIS SOFTWARE IS PROVIDED BY THE COPYRIGHT HOLDERS AND CONTRIBUTORS "AS IS"
  24:C:/Users/stapi/OneDrive/Desktop/GD32VW553/V1_MQTT_OK/GD32VW55X_Wifi_BLE_SDK/GD32VW55x_RELEASE_V1.0.2/MSDK/plf/riscv/gd32vw55x\gd32vw55x_it.c **** AND ANY EXPRESS OR IMPLIED WARRANTIES, INCLUDING, BUT NOT LIMITED TO, THE IMPLIED
  25:C:/Users/stapi/OneDrive/Desktop/GD32VW553/V1_MQTT_OK/GD32VW55X_Wifi_BLE_SDK/GD32VW55x_RELEASE_V1.0.2/MSDK/plf/riscv/gd32vw55x\gd32vw55x_it.c **** WARRANTIES OF MERCHANTABILITY AND FITNESS FOR A PARTICULAR PURPOSE ARE DISCLAIMED.
  26:C:/Users/stapi/OneDrive/Desktop/GD32VW553/V1_MQTT_OK/GD32VW55X_Wifi_BLE_SDK/GD32VW55x_RELEASE_V1.0.2/MSDK/plf/riscv/gd32vw55x\gd32vw55x_it.c **** IN NO EVENT SHALL THE COPYRIGHT HOLDER OR CONTRIBUTORS BE LIABLE FOR ANY DIRECT,
  27:C:/Users/stapi/OneDrive/Desktop/GD32VW553/V1_MQTT_OK/GD32VW55X_Wifi_BLE_SDK/GD32VW55x_RELEASE_V1.0.2/MSDK/plf/riscv/gd32vw55x\gd32vw55x_it.c **** INDIRECT, INCIDENTAL, SPECIAL, EXEMPLARY, OR CONSEQUENTIAL DAMAGES (INCLUDING, BUT
  28:C:/Users/stapi/OneDrive/Desktop/GD32VW553/V1_MQTT_OK/GD32VW55X_Wifi_BLE_SDK/GD32VW55x_RELEASE_V1.0.2/MSDK/plf/riscv/gd32vw55x\gd32vw55x_it.c **** NOT LIMITED TO, PROCUREMENT OF SUBSTITUTE GOODS OR SERVICES; LOSS OF USE, DATA, OR
  29:C:/Users/stapi/OneDrive/Desktop/GD32VW553/V1_MQTT_OK/GD32VW55X_Wifi_BLE_SDK/GD32VW55x_RELEASE_V1.0.2/MSDK/plf/riscv/gd32vw55x\gd32vw55x_it.c **** PROFITS; OR BUSINESS INTERRUPTION) HOWEVER CAUSED AND ON ANY THEORY OF LIABILITY,
  30:C:/Users/stapi/OneDrive/Desktop/GD32VW553/V1_MQTT_OK/GD32VW55X_Wifi_BLE_SDK/GD32VW55x_RELEASE_V1.0.2/MSDK/plf/riscv/gd32vw55x\gd32vw55x_it.c **** WHETHER IN CONTRACT, STRICT LIABILITY, OR TORT (INCLUDING NEGLIGENCE OR OTHERWISE)
  31:C:/Users/stapi/OneDrive/Desktop/GD32VW553/V1_MQTT_OK/GD32VW55X_Wifi_BLE_SDK/GD32VW55x_RELEASE_V1.0.2/MSDK/plf/riscv/gd32vw55x\gd32vw55x_it.c **** ARISING IN ANY WAY OUT OF THE USE OF THIS SOFTWARE, EVEN IF ADVISED OF THE POSSIBILITY
  32:C:/Users/stapi/OneDrive/Desktop/GD32VW553/V1_MQTT_OK/GD32VW55X_Wifi_BLE_SDK/GD32VW55x_RELEASE_V1.0.2/MSDK/plf/riscv/gd32vw55x\gd32vw55x_it.c **** OF SUCH DAMAGE.
  33:C:/Users/stapi/OneDrive/Desktop/GD32VW553/V1_MQTT_OK/GD32VW55X_Wifi_BLE_SDK/GD32VW55x_RELEASE_V1.0.2/MSDK/plf/riscv/gd32vw55x\gd32vw55x_it.c **** */
  34:C:/Users/stapi/OneDrive/Desktop/GD32VW553/V1_MQTT_OK/GD32VW55X_Wifi_BLE_SDK/GD32VW55x_RELEASE_V1.0.2/MSDK/plf/riscv/gd32vw55x\gd32vw55x_it.c **** 
  35:C:/Users/stapi/OneDrive/Desktop/GD32VW553/V1_MQTT_OK/GD32VW55X_Wifi_BLE_SDK/GD32VW55x_RELEASE_V1.0.2/MSDK/plf/riscv/gd32vw55x\gd32vw55x_it.c **** #include "app_cfg.h"
  36:C:/Users/stapi/OneDrive/Desktop/GD32VW553/V1_MQTT_OK/GD32VW55X_Wifi_BLE_SDK/GD32VW55x_RELEASE_V1.0.2/MSDK/plf/riscv/gd32vw55x\gd32vw55x_it.c **** 
  37:C:/Users/stapi/OneDrive/Desktop/GD32VW553/V1_MQTT_OK/GD32VW55X_Wifi_BLE_SDK/GD32VW55x_RELEASE_V1.0.2/MSDK/plf/riscv/gd32vw55x\gd32vw55x_it.c **** #include "gd32vw55x_it.h"
  38:C:/Users/stapi/OneDrive/Desktop/GD32VW553/V1_MQTT_OK/GD32VW55X_Wifi_BLE_SDK/GD32VW55x_RELEASE_V1.0.2/MSDK/plf/riscv/gd32vw55x\gd32vw55x_it.c **** #include "gd32vw55x.h"
  39:C:/Users/stapi/OneDrive/Desktop/GD32VW553/V1_MQTT_OK/GD32VW55X_Wifi_BLE_SDK/GD32VW55x_RELEASE_V1.0.2/MSDK/plf/riscv/gd32vw55x\gd32vw55x_it.c **** #include "uart.h"
  40:C:/Users/stapi/OneDrive/Desktop/GD32VW553/V1_MQTT_OK/GD32VW55X_Wifi_BLE_SDK/GD32VW55x_RELEASE_V1.0.2/MSDK/plf/riscv/gd32vw55x\gd32vw55x_it.c **** #include "wakelock.h"
  41:C:/Users/stapi/OneDrive/Desktop/GD32VW553/V1_MQTT_OK/GD32VW55X_Wifi_BLE_SDK/GD32VW55x_RELEASE_V1.0.2/MSDK/plf/riscv/gd32vw55x\gd32vw55x_it.c **** #ifdef CFG_BLE_SUPPORT
  42:C:/Users/stapi/OneDrive/Desktop/GD32VW553/V1_MQTT_OK/GD32VW55X_Wifi_BLE_SDK/GD32VW55x_RELEASE_V1.0.2/MSDK/plf/riscv/gd32vw55x\gd32vw55x_it.c **** #include "ble_export.h"
  43:C:/Users/stapi/OneDrive/Desktop/GD32VW553/V1_MQTT_OK/GD32VW55X_Wifi_BLE_SDK/GD32VW55x_RELEASE_V1.0.2/MSDK/plf/riscv/gd32vw55x\gd32vw55x_it.c **** #endif
  44:C:/Users/stapi/OneDrive/Desktop/GD32VW553/V1_MQTT_OK/GD32VW55X_Wifi_BLE_SDK/GD32VW55x_RELEASE_V1.0.2/MSDK/plf/riscv/gd32vw55x\gd32vw55x_it.c **** #include "dbg_print.h"
  45:C:/Users/stapi/OneDrive/Desktop/GD32VW553/V1_MQTT_OK/GD32VW55X_Wifi_BLE_SDK/GD32VW55x_RELEASE_V1.0.2/MSDK/plf/riscv/gd32vw55x\gd32vw55x_it.c **** #include "trace_uart.h"
  46:C:/Users/stapi/OneDrive/Desktop/GD32VW553/V1_MQTT_OK/GD32VW55X_Wifi_BLE_SDK/GD32VW55x_RELEASE_V1.0.2/MSDK/plf/riscv/gd32vw55x\gd32vw55x_it.c **** #include "gd32vw55x_platform.h"
  47:C:/Users/stapi/OneDrive/Desktop/GD32VW553/V1_MQTT_OK/GD32VW55X_Wifi_BLE_SDK/GD32VW55x_RELEASE_V1.0.2/MSDK/plf/riscv/gd32vw55x\gd32vw55x_it.c **** #include "wrapper_os.h"
  48:C:/Users/stapi/OneDrive/Desktop/GD32VW553/V1_MQTT_OK/GD32VW55X_Wifi_BLE_SDK/GD32VW55x_RELEASE_V1.0.2/MSDK/plf/riscv/gd32vw55x\gd32vw55x_it.c **** 
  49:C:/Users/stapi/OneDrive/Desktop/GD32VW553/V1_MQTT_OK/GD32VW55X_Wifi_BLE_SDK/GD32VW55x_RELEASE_V1.0.2/MSDK/plf/riscv/gd32vw55x\gd32vw55x_it.c **** #ifdef CFG_WLAN_SUPPORT
  50:C:/Users/stapi/OneDrive/Desktop/GD32VW553/V1_MQTT_OK/GD32VW55X_Wifi_BLE_SDK/GD32VW55x_RELEASE_V1.0.2/MSDK/plf/riscv/gd32vw55x\gd32vw55x_it.c **** #include "wlan_config.h"
  51:C:/Users/stapi/OneDrive/Desktop/GD32VW553/V1_MQTT_OK/GD32VW55X_Wifi_BLE_SDK/GD32VW55x_RELEASE_V1.0.2/MSDK/plf/riscv/gd32vw55x\gd32vw55x_it.c **** #include "wifi_export.h"
  52:C:/Users/stapi/OneDrive/Desktop/GD32VW553/V1_MQTT_OK/GD32VW55X_Wifi_BLE_SDK/GD32VW55x_RELEASE_V1.0.2/MSDK/plf/riscv/gd32vw55x\gd32vw55x_it.c **** #endif
  53:C:/Users/stapi/OneDrive/Desktop/GD32VW553/V1_MQTT_OK/GD32VW55X_Wifi_BLE_SDK/GD32VW55x_RELEASE_V1.0.2/MSDK/plf/riscv/gd32vw55x\gd32vw55x_it.c **** 
  54:C:/Users/stapi/OneDrive/Desktop/GD32VW553/V1_MQTT_OK/GD32VW55X_Wifi_BLE_SDK/GD32VW55x_RELEASE_V1.0.2/MSDK/plf/riscv/gd32vw55x\gd32vw55x_it.c **** #ifdef CFG_BLE_HCI_MODE
  55:C:/Users/stapi/OneDrive/Desktop/GD32VW553/V1_MQTT_OK/GD32VW55X_Wifi_BLE_SDK/GD32VW55x_RELEASE_V1.0.2/MSDK/plf/riscv/gd32vw55x\gd32vw55x_it.c **** #include "ble_uart.h"
  56:C:/Users/stapi/OneDrive/Desktop/GD32VW553/V1_MQTT_OK/GD32VW55X_Wifi_BLE_SDK/GD32VW55x_RELEASE_V1.0.2/MSDK/plf/riscv/gd32vw55x\gd32vw55x_it.c **** #endif
  57:C:/Users/stapi/OneDrive/Desktop/GD32VW553/V1_MQTT_OK/GD32VW55X_Wifi_BLE_SDK/GD32VW55x_RELEASE_V1.0.2/MSDK/plf/riscv/gd32vw55x\gd32vw55x_it.c **** 
  58:C:/Users/stapi/OneDrive/Desktop/GD32VW553/V1_MQTT_OK/GD32VW55X_Wifi_BLE_SDK/GD32VW55x_RELEASE_V1.0.2/MSDK/plf/riscv/gd32vw55x\gd32vw55x_it.c **** #ifdef TUYAOS_SUPPORT
  59:C:/Users/stapi/OneDrive/Desktop/GD32VW553/V1_MQTT_OK/GD32VW55X_Wifi_BLE_SDK/GD32VW55x_RELEASE_V1.0.2/MSDK/plf/riscv/gd32vw55x\gd32vw55x_it.c **** #include "tkl_i2c.h"
  60:C:/Users/stapi/OneDrive/Desktop/GD32VW553/V1_MQTT_OK/GD32VW55X_Wifi_BLE_SDK/GD32VW55x_RELEASE_V1.0.2/MSDK/plf/riscv/gd32vw55x\gd32vw55x_it.c **** #include "tkl_pwm.h"
  61:C:/Users/stapi/OneDrive/Desktop/GD32VW553/V1_MQTT_OK/GD32VW55X_Wifi_BLE_SDK/GD32VW55x_RELEASE_V1.0.2/MSDK/plf/riscv/gd32vw55x\gd32vw55x_it.c **** #include "tkl_gpio.h"
  62:C:/Users/stapi/OneDrive/Desktop/GD32VW553/V1_MQTT_OK/GD32VW55X_Wifi_BLE_SDK/GD32VW55x_RELEASE_V1.0.2/MSDK/plf/riscv/gd32vw55x\gd32vw55x_it.c **** #include "tkl_timer.h"
  63:C:/Users/stapi/OneDrive/Desktop/GD32VW553/V1_MQTT_OK/GD32VW55X_Wifi_BLE_SDK/GD32VW55x_RELEASE_V1.0.2/MSDK/plf/riscv/gd32vw55x\gd32vw55x_it.c **** #endif
  64:C:/Users/stapi/OneDrive/Desktop/GD32VW553/V1_MQTT_OK/GD32VW55X_Wifi_BLE_SDK/GD32VW55x_RELEASE_V1.0.2/MSDK/plf/riscv/gd32vw55x\gd32vw55x_it.c **** 
  65:C:/Users/stapi/OneDrive/Desktop/GD32VW553/V1_MQTT_OK/GD32VW55X_Wifi_BLE_SDK/GD32VW55x_RELEASE_V1.0.2/MSDK/plf/riscv/gd32vw55x\gd32vw55x_it.c **** #if defined CONFIG_ATCMD
  66:C:/Users/stapi/OneDrive/Desktop/GD32VW553/V1_MQTT_OK/GD32VW55X_Wifi_BLE_SDK/GD32VW55x_RELEASE_V1.0.2/MSDK/plf/riscv/gd32vw55x\gd32vw55x_it.c **** #include "atcmd.h"
  67:C:/Users/stapi/OneDrive/Desktop/GD32VW553/V1_MQTT_OK/GD32VW55X_Wifi_BLE_SDK/GD32VW55x_RELEASE_V1.0.2/MSDK/plf/riscv/gd32vw55x\gd32vw55x_it.c **** #endif
  68:C:/Users/stapi/OneDrive/Desktop/GD32VW553/V1_MQTT_OK/GD32VW55X_Wifi_BLE_SDK/GD32VW55x_RELEASE_V1.0.2/MSDK/plf/riscv/gd32vw55x\gd32vw55x_it.c **** /*!
  69:C:/Users/stapi/OneDrive/Desktop/GD32VW553/V1_MQTT_OK/GD32VW55X_Wifi_BLE_SDK/GD32VW55x_RELEASE_V1.0.2/MSDK/plf/riscv/gd32vw55x\gd32vw55x_it.c ****     \brief      this function handles USART0 exception
  70:C:/Users/stapi/OneDrive/Desktop/GD32VW553/V1_MQTT_OK/GD32VW55X_Wifi_BLE_SDK/GD32VW55x_RELEASE_V1.0.2/MSDK/plf/riscv/gd32vw55x\gd32vw55x_it.c ****     \param[in]  none
  71:C:/Users/stapi/OneDrive/Desktop/GD32VW553/V1_MQTT_OK/GD32VW55X_Wifi_BLE_SDK/GD32VW55x_RELEASE_V1.0.2/MSDK/plf/riscv/gd32vw55x\gd32vw55x_it.c ****     \param[out] none
  72:C:/Users/stapi/OneDrive/Desktop/GD32VW553/V1_MQTT_OK/GD32VW55X_Wifi_BLE_SDK/GD32VW55x_RELEASE_V1.0.2/MSDK/plf/riscv/gd32vw55x\gd32vw55x_it.c ****     \retval     none
  73:C:/Users/stapi/OneDrive/Desktop/GD32VW553/V1_MQTT_OK/GD32VW55X_Wifi_BLE_SDK/GD32VW55x_RELEASE_V1.0.2/MSDK/plf/riscv/gd32vw55x\gd32vw55x_it.c **** */
  74:C:/Users/stapi/OneDrive/Desktop/GD32VW553/V1_MQTT_OK/GD32VW55X_Wifi_BLE_SDK/GD32VW55x_RELEASE_V1.0.2/MSDK/plf/riscv/gd32vw55x\gd32vw55x_it.c **** void USART0_IRQHandler(void)
  75:C:/Users/stapi/OneDrive/Desktop/GD32VW553/V1_MQTT_OK/GD32VW55X_Wifi_BLE_SDK/GD32VW55x_RELEASE_V1.0.2/MSDK/plf/riscv/gd32vw55x\gd32vw55x_it.c **** {
  16              		.loc 1 75 1
  17              		.cfi_startproc
  76:C:/Users/stapi/OneDrive/Desktop/GD32VW553/V1_MQTT_OK/GD32VW55X_Wifi_BLE_SDK/GD32VW55x_RELEASE_V1.0.2/MSDK/plf/riscv/gd32vw55x\gd32vw55x_it.c ****     //sys_int_enter();                            /* Tell the OS that we are starting an ISR       
  77:C:/Users/stapi/OneDrive/Desktop/GD32VW553/V1_MQTT_OK/GD32VW55X_Wifi_BLE_SDK/GD32VW55x_RELEASE_V1.0.2/MSDK/plf/riscv/gd32vw55x\gd32vw55x_it.c **** 
  78:C:/Users/stapi/OneDrive/Desktop/GD32VW553/V1_MQTT_OK/GD32VW55X_Wifi_BLE_SDK/GD32VW55x_RELEASE_V1.0.2/MSDK/plf/riscv/gd32vw55x\gd32vw55x_it.c ****     uart_irq_hdl(USART0);
  18              		.loc 1 78 5
  19 0000 37550040 		li	a0,1073762304
  20 0004 13050580 		addi	a0,a0,-2048
  21 0008 17030000 		tail	uart_irq_hdl
  21      67000300 
  22              	.LVL0:
  23              		.cfi_endproc
  24              	.LFE368:
  26              		.section	.text.UART1_IRQHandler,"ax",@progbits
  27              		.align	1
  28              		.globl	UART1_IRQHandler
  30              	UART1_IRQHandler:
  31              	.LFB369:
  79:C:/Users/stapi/OneDrive/Desktop/GD32VW553/V1_MQTT_OK/GD32VW55X_Wifi_BLE_SDK/GD32VW55x_RELEASE_V1.0.2/MSDK/plf/riscv/gd32vw55x\gd32vw55x_it.c **** 
  80:C:/Users/stapi/OneDrive/Desktop/GD32VW553/V1_MQTT_OK/GD32VW55X_Wifi_BLE_SDK/GD32VW55x_RELEASE_V1.0.2/MSDK/plf/riscv/gd32vw55x\gd32vw55x_it.c ****     //sys_int_exit();                             /* Tell the OS that we are leaving the ISR       
  81:C:/Users/stapi/OneDrive/Desktop/GD32VW553/V1_MQTT_OK/GD32VW55X_Wifi_BLE_SDK/GD32VW55x_RELEASE_V1.0.2/MSDK/plf/riscv/gd32vw55x\gd32vw55x_it.c **** }
  82:C:/Users/stapi/OneDrive/Desktop/GD32VW553/V1_MQTT_OK/GD32VW55X_Wifi_BLE_SDK/GD32VW55x_RELEASE_V1.0.2/MSDK/plf/riscv/gd32vw55x\gd32vw55x_it.c **** 
  83:C:/Users/stapi/OneDrive/Desktop/GD32VW553/V1_MQTT_OK/GD32VW55X_Wifi_BLE_SDK/GD32VW55x_RELEASE_V1.0.2/MSDK/plf/riscv/gd32vw55x\gd32vw55x_it.c **** /*!
  84:C:/Users/stapi/OneDrive/Desktop/GD32VW553/V1_MQTT_OK/GD32VW55X_Wifi_BLE_SDK/GD32VW55x_RELEASE_V1.0.2/MSDK/plf/riscv/gd32vw55x\gd32vw55x_it.c ****     \brief      this function handles USART1 exception
  85:C:/Users/stapi/OneDrive/Desktop/GD32VW553/V1_MQTT_OK/GD32VW55X_Wifi_BLE_SDK/GD32VW55x_RELEASE_V1.0.2/MSDK/plf/riscv/gd32vw55x\gd32vw55x_it.c ****     \param[in]  none
  86:C:/Users/stapi/OneDrive/Desktop/GD32VW553/V1_MQTT_OK/GD32VW55X_Wifi_BLE_SDK/GD32VW55x_RELEASE_V1.0.2/MSDK/plf/riscv/gd32vw55x\gd32vw55x_it.c ****     \param[out] none
  87:C:/Users/stapi/OneDrive/Desktop/GD32VW553/V1_MQTT_OK/GD32VW55X_Wifi_BLE_SDK/GD32VW55x_RELEASE_V1.0.2/MSDK/plf/riscv/gd32vw55x\gd32vw55x_it.c ****     \retval     none
  88:C:/Users/stapi/OneDrive/Desktop/GD32VW553/V1_MQTT_OK/GD32VW55X_Wifi_BLE_SDK/GD32VW55x_RELEASE_V1.0.2/MSDK/plf/riscv/gd32vw55x\gd32vw55x_it.c **** */
  89:C:/Users/stapi/OneDrive/Desktop/GD32VW553/V1_MQTT_OK/GD32VW55X_Wifi_BLE_SDK/GD32VW55x_RELEASE_V1.0.2/MSDK/plf/riscv/gd32vw55x\gd32vw55x_it.c **** void UART1_IRQHandler(void)
  90:C:/Users/stapi/OneDrive/Desktop/GD32VW553/V1_MQTT_OK/GD32VW55X_Wifi_BLE_SDK/GD32VW55x_RELEASE_V1.0.2/MSDK/plf/riscv/gd32vw55x\gd32vw55x_it.c **** {
  32              		.loc 1 90 1
  33              		.cfi_startproc
  91:C:/Users/stapi/OneDrive/Desktop/GD32VW553/V1_MQTT_OK/GD32VW55X_Wifi_BLE_SDK/GD32VW55x_RELEASE_V1.0.2/MSDK/plf/riscv/gd32vw55x\gd32vw55x_it.c ****     //sys_int_enter();                            /* Tell the OS that we are starting an ISR       
  92:C:/Users/stapi/OneDrive/Desktop/GD32VW553/V1_MQTT_OK/GD32VW55X_Wifi_BLE_SDK/GD32VW55x_RELEASE_V1.0.2/MSDK/plf/riscv/gd32vw55x\gd32vw55x_it.c **** 
  93:C:/Users/stapi/OneDrive/Desktop/GD32VW553/V1_MQTT_OK/GD32VW55X_Wifi_BLE_SDK/GD32VW55x_RELEASE_V1.0.2/MSDK/plf/riscv/gd32vw55x\gd32vw55x_it.c ****     uart_irq_hdl(UART1);
  34              		.loc 1 93 5
  35 0000 37450040 		li	a0,1073758208
  36 0004 13050540 		addi	a0,a0,1024
  37 0008 17030000 		tail	uart_irq_hdl
  37      67000300 
  38              	.LVL1:
  39              		.cfi_endproc
  40              	.LFE369:
  42              		.section	.text.UART2_IRQHandler,"ax",@progbits
  43              		.align	1
  44              		.globl	UART2_IRQHandler
  46              	UART2_IRQHandler:
  47              	.LFB370:
  94:C:/Users/stapi/OneDrive/Desktop/GD32VW553/V1_MQTT_OK/GD32VW55X_Wifi_BLE_SDK/GD32VW55x_RELEASE_V1.0.2/MSDK/plf/riscv/gd32vw55x\gd32vw55x_it.c **** 
  95:C:/Users/stapi/OneDrive/Desktop/GD32VW553/V1_MQTT_OK/GD32VW55X_Wifi_BLE_SDK/GD32VW55x_RELEASE_V1.0.2/MSDK/plf/riscv/gd32vw55x\gd32vw55x_it.c ****     //sys_int_exit();                             /* Tell the OS that we are leaving the ISR       
  96:C:/Users/stapi/OneDrive/Desktop/GD32VW553/V1_MQTT_OK/GD32VW55X_Wifi_BLE_SDK/GD32VW55x_RELEASE_V1.0.2/MSDK/plf/riscv/gd32vw55x\gd32vw55x_it.c **** }
  97:C:/Users/stapi/OneDrive/Desktop/GD32VW553/V1_MQTT_OK/GD32VW55X_Wifi_BLE_SDK/GD32VW55x_RELEASE_V1.0.2/MSDK/plf/riscv/gd32vw55x\gd32vw55x_it.c **** 
  98:C:/Users/stapi/OneDrive/Desktop/GD32VW553/V1_MQTT_OK/GD32VW55X_Wifi_BLE_SDK/GD32VW55x_RELEASE_V1.0.2/MSDK/plf/riscv/gd32vw55x\gd32vw55x_it.c **** /*!
  99:C:/Users/stapi/OneDrive/Desktop/GD32VW553/V1_MQTT_OK/GD32VW55X_Wifi_BLE_SDK/GD32VW55x_RELEASE_V1.0.2/MSDK/plf/riscv/gd32vw55x\gd32vw55x_it.c ****     \brief      this function handles USART1 exception
 100:C:/Users/stapi/OneDrive/Desktop/GD32VW553/V1_MQTT_OK/GD32VW55X_Wifi_BLE_SDK/GD32VW55x_RELEASE_V1.0.2/MSDK/plf/riscv/gd32vw55x\gd32vw55x_it.c ****     \param[in]  none
 101:C:/Users/stapi/OneDrive/Desktop/GD32VW553/V1_MQTT_OK/GD32VW55X_Wifi_BLE_SDK/GD32VW55x_RELEASE_V1.0.2/MSDK/plf/riscv/gd32vw55x\gd32vw55x_it.c ****     \param[out] none
 102:C:/Users/stapi/OneDrive/Desktop/GD32VW553/V1_MQTT_OK/GD32VW55X_Wifi_BLE_SDK/GD32VW55x_RELEASE_V1.0.2/MSDK/plf/riscv/gd32vw55x\gd32vw55x_it.c ****     \retval     none
 103:C:/Users/stapi/OneDrive/Desktop/GD32VW553/V1_MQTT_OK/GD32VW55X_Wifi_BLE_SDK/GD32VW55x_RELEASE_V1.0.2/MSDK/plf/riscv/gd32vw55x\gd32vw55x_it.c **** */
 104:C:/Users/stapi/OneDrive/Desktop/GD32VW553/V1_MQTT_OK/GD32VW55X_Wifi_BLE_SDK/GD32VW55x_RELEASE_V1.0.2/MSDK/plf/riscv/gd32vw55x\gd32vw55x_it.c **** void UART2_IRQHandler(void)
 105:C:/Users/stapi/OneDrive/Desktop/GD32VW553/V1_MQTT_OK/GD32VW55X_Wifi_BLE_SDK/GD32VW55x_RELEASE_V1.0.2/MSDK/plf/riscv/gd32vw55x\gd32vw55x_it.c **** {
  48              		.loc 1 105 1
  49              		.cfi_startproc
 106:C:/Users/stapi/OneDrive/Desktop/GD32VW553/V1_MQTT_OK/GD32VW55X_Wifi_BLE_SDK/GD32VW55x_RELEASE_V1.0.2/MSDK/plf/riscv/gd32vw55x\gd32vw55x_it.c ****     //sys_int_enter();                            /* Tell the OS that we are starting an ISR       
 107:C:/Users/stapi/OneDrive/Desktop/GD32VW553/V1_MQTT_OK/GD32VW55X_Wifi_BLE_SDK/GD32VW55x_RELEASE_V1.0.2/MSDK/plf/riscv/gd32vw55x\gd32vw55x_it.c **** 
 108:C:/Users/stapi/OneDrive/Desktop/GD32VW553/V1_MQTT_OK/GD32VW55X_Wifi_BLE_SDK/GD32VW55x_RELEASE_V1.0.2/MSDK/plf/riscv/gd32vw55x\gd32vw55x_it.c ****     uart_irq_hdl(UART2);
  50              		.loc 1 108 5
  51 0000 37150140 		li	a0,1073811456
  52 0004 17030000 		tail	uart_irq_hdl
  52      67000300 
  53              	.LVL2:
  54              		.cfi_endproc
  55              	.LFE370:
  57              		.section	.rodata.RTC_WKUP_IRQHandler.str1.4,"aMS",@progbits,1
  58              		.align	2
  59              	.LC0:
  60 0000 7274630A 		.string	"rtc\n"
  60      00
  61              		.section	.text.RTC_WKUP_IRQHandler,"ax",@progbits
  62              		.align	1
  63              		.globl	RTC_WKUP_IRQHandler
  65              	RTC_WKUP_IRQHandler:
  66              	.LFB371:
 109:C:/Users/stapi/OneDrive/Desktop/GD32VW553/V1_MQTT_OK/GD32VW55X_Wifi_BLE_SDK/GD32VW55x_RELEASE_V1.0.2/MSDK/plf/riscv/gd32vw55x\gd32vw55x_it.c **** 
 110:C:/Users/stapi/OneDrive/Desktop/GD32VW553/V1_MQTT_OK/GD32VW55X_Wifi_BLE_SDK/GD32VW55x_RELEASE_V1.0.2/MSDK/plf/riscv/gd32vw55x\gd32vw55x_it.c ****     //sys_int_exit();                             /* Tell the OS that we are leaving the ISR       
 111:C:/Users/stapi/OneDrive/Desktop/GD32VW553/V1_MQTT_OK/GD32VW55X_Wifi_BLE_SDK/GD32VW55x_RELEASE_V1.0.2/MSDK/plf/riscv/gd32vw55x\gd32vw55x_it.c **** }
 112:C:/Users/stapi/OneDrive/Desktop/GD32VW553/V1_MQTT_OK/GD32VW55X_Wifi_BLE_SDK/GD32VW55x_RELEASE_V1.0.2/MSDK/plf/riscv/gd32vw55x\gd32vw55x_it.c **** 
 113:C:/Users/stapi/OneDrive/Desktop/GD32VW553/V1_MQTT_OK/GD32VW55X_Wifi_BLE_SDK/GD32VW55x_RELEASE_V1.0.2/MSDK/plf/riscv/gd32vw55x\gd32vw55x_it.c **** #ifdef HCI_UART_RX_DMA
 114:C:/Users/stapi/OneDrive/Desktop/GD32VW553/V1_MQTT_OK/GD32VW55X_Wifi_BLE_SDK/GD32VW55x_RELEASE_V1.0.2/MSDK/plf/riscv/gd32vw55x\gd32vw55x_it.c **** void DMA_Channel5_IRQHandler(void)
 115:C:/Users/stapi/OneDrive/Desktop/GD32VW553/V1_MQTT_OK/GD32VW55X_Wifi_BLE_SDK/GD32VW55x_RELEASE_V1.0.2/MSDK/plf/riscv/gd32vw55x\gd32vw55x_it.c **** {
 116:C:/Users/stapi/OneDrive/Desktop/GD32VW553/V1_MQTT_OK/GD32VW55X_Wifi_BLE_SDK/GD32VW55x_RELEASE_V1.0.2/MSDK/plf/riscv/gd32vw55x\gd32vw55x_it.c ****     hci_uart_dma_channel5_irq_hdl();
 117:C:/Users/stapi/OneDrive/Desktop/GD32VW553/V1_MQTT_OK/GD32VW55X_Wifi_BLE_SDK/GD32VW55x_RELEASE_V1.0.2/MSDK/plf/riscv/gd32vw55x\gd32vw55x_it.c **** }
 118:C:/Users/stapi/OneDrive/Desktop/GD32VW553/V1_MQTT_OK/GD32VW55X_Wifi_BLE_SDK/GD32VW55x_RELEASE_V1.0.2/MSDK/plf/riscv/gd32vw55x\gd32vw55x_it.c **** #endif
 119:C:/Users/stapi/OneDrive/Desktop/GD32VW553/V1_MQTT_OK/GD32VW55X_Wifi_BLE_SDK/GD32VW55x_RELEASE_V1.0.2/MSDK/plf/riscv/gd32vw55x\gd32vw55x_it.c **** 
 120:C:/Users/stapi/OneDrive/Desktop/GD32VW553/V1_MQTT_OK/GD32VW55X_Wifi_BLE_SDK/GD32VW55x_RELEASE_V1.0.2/MSDK/plf/riscv/gd32vw55x\gd32vw55x_it.c **** #ifdef TRACE_UART_DMA
 121:C:/Users/stapi/OneDrive/Desktop/GD32VW553/V1_MQTT_OK/GD32VW55X_Wifi_BLE_SDK/GD32VW55x_RELEASE_V1.0.2/MSDK/plf/riscv/gd32vw55x\gd32vw55x_it.c **** #ifdef CONFIG_PLATFORM_ASIC
 122:C:/Users/stapi/OneDrive/Desktop/GD32VW553/V1_MQTT_OK/GD32VW55X_Wifi_BLE_SDK/GD32VW55x_RELEASE_V1.0.2/MSDK/plf/riscv/gd32vw55x\gd32vw55x_it.c **** #ifdef CFG_BLE_HCI_MODE
 123:C:/Users/stapi/OneDrive/Desktop/GD32VW553/V1_MQTT_OK/GD32VW55X_Wifi_BLE_SDK/GD32VW55x_RELEASE_V1.0.2/MSDK/plf/riscv/gd32vw55x\gd32vw55x_it.c **** void DMA_Channel6_IRQHandler(void)
 124:C:/Users/stapi/OneDrive/Desktop/GD32VW553/V1_MQTT_OK/GD32VW55X_Wifi_BLE_SDK/GD32VW55x_RELEASE_V1.0.2/MSDK/plf/riscv/gd32vw55x\gd32vw55x_it.c **** {
 125:C:/Users/stapi/OneDrive/Desktop/GD32VW553/V1_MQTT_OK/GD32VW55X_Wifi_BLE_SDK/GD32VW55x_RELEASE_V1.0.2/MSDK/plf/riscv/gd32vw55x\gd32vw55x_it.c ****     trace_uart_dma_channel_irq_hdl();
 126:C:/Users/stapi/OneDrive/Desktop/GD32VW553/V1_MQTT_OK/GD32VW55X_Wifi_BLE_SDK/GD32VW55x_RELEASE_V1.0.2/MSDK/plf/riscv/gd32vw55x\gd32vw55x_it.c **** }
 127:C:/Users/stapi/OneDrive/Desktop/GD32VW553/V1_MQTT_OK/GD32VW55X_Wifi_BLE_SDK/GD32VW55x_RELEASE_V1.0.2/MSDK/plf/riscv/gd32vw55x\gd32vw55x_it.c **** #else
 128:C:/Users/stapi/OneDrive/Desktop/GD32VW553/V1_MQTT_OK/GD32VW55X_Wifi_BLE_SDK/GD32VW55x_RELEASE_V1.0.2/MSDK/plf/riscv/gd32vw55x\gd32vw55x_it.c **** void DMA_Channel7_IRQHandler(void)
 129:C:/Users/stapi/OneDrive/Desktop/GD32VW553/V1_MQTT_OK/GD32VW55X_Wifi_BLE_SDK/GD32VW55x_RELEASE_V1.0.2/MSDK/plf/riscv/gd32vw55x\gd32vw55x_it.c **** {
 130:C:/Users/stapi/OneDrive/Desktop/GD32VW553/V1_MQTT_OK/GD32VW55X_Wifi_BLE_SDK/GD32VW55x_RELEASE_V1.0.2/MSDK/plf/riscv/gd32vw55x\gd32vw55x_it.c ****     trace_uart_dma_channel_irq_hdl();
 131:C:/Users/stapi/OneDrive/Desktop/GD32VW553/V1_MQTT_OK/GD32VW55X_Wifi_BLE_SDK/GD32VW55x_RELEASE_V1.0.2/MSDK/plf/riscv/gd32vw55x\gd32vw55x_it.c **** }
 132:C:/Users/stapi/OneDrive/Desktop/GD32VW553/V1_MQTT_OK/GD32VW55X_Wifi_BLE_SDK/GD32VW55x_RELEASE_V1.0.2/MSDK/plf/riscv/gd32vw55x\gd32vw55x_it.c **** #endif      // CFG_BLE_HCI_MODE end
 133:C:/Users/stapi/OneDrive/Desktop/GD32VW553/V1_MQTT_OK/GD32VW55X_Wifi_BLE_SDK/GD32VW55x_RELEASE_V1.0.2/MSDK/plf/riscv/gd32vw55x\gd32vw55x_it.c **** #else
 134:C:/Users/stapi/OneDrive/Desktop/GD32VW553/V1_MQTT_OK/GD32VW55X_Wifi_BLE_SDK/GD32VW55x_RELEASE_V1.0.2/MSDK/plf/riscv/gd32vw55x\gd32vw55x_it.c **** void DMA_Channel1_IRQHandler(void)
 135:C:/Users/stapi/OneDrive/Desktop/GD32VW553/V1_MQTT_OK/GD32VW55X_Wifi_BLE_SDK/GD32VW55x_RELEASE_V1.0.2/MSDK/plf/riscv/gd32vw55x\gd32vw55x_it.c **** {
 136:C:/Users/stapi/OneDrive/Desktop/GD32VW553/V1_MQTT_OK/GD32VW55X_Wifi_BLE_SDK/GD32VW55x_RELEASE_V1.0.2/MSDK/plf/riscv/gd32vw55x\gd32vw55x_it.c ****     trace_uart_dma_channel_irq_hdl();
 137:C:/Users/stapi/OneDrive/Desktop/GD32VW553/V1_MQTT_OK/GD32VW55X_Wifi_BLE_SDK/GD32VW55x_RELEASE_V1.0.2/MSDK/plf/riscv/gd32vw55x\gd32vw55x_it.c **** }
 138:C:/Users/stapi/OneDrive/Desktop/GD32VW553/V1_MQTT_OK/GD32VW55X_Wifi_BLE_SDK/GD32VW55x_RELEASE_V1.0.2/MSDK/plf/riscv/gd32vw55x\gd32vw55x_it.c **** #endif     // CONFIG_PLATFORM_ASIC end
 139:C:/Users/stapi/OneDrive/Desktop/GD32VW553/V1_MQTT_OK/GD32VW55X_Wifi_BLE_SDK/GD32VW55x_RELEASE_V1.0.2/MSDK/plf/riscv/gd32vw55x\gd32vw55x_it.c **** #endif     // TRACE_UART_DMA end
 140:C:/Users/stapi/OneDrive/Desktop/GD32VW553/V1_MQTT_OK/GD32VW55X_Wifi_BLE_SDK/GD32VW55x_RELEASE_V1.0.2/MSDK/plf/riscv/gd32vw55x\gd32vw55x_it.c **** 
 141:C:/Users/stapi/OneDrive/Desktop/GD32VW553/V1_MQTT_OK/GD32VW55X_Wifi_BLE_SDK/GD32VW55x_RELEASE_V1.0.2/MSDK/plf/riscv/gd32vw55x\gd32vw55x_it.c **** #if defined CONFIG_ATCMD && defined HCI_UART_RX_DMA
 142:C:/Users/stapi/OneDrive/Desktop/GD32VW553/V1_MQTT_OK/GD32VW55X_Wifi_BLE_SDK/GD32VW55x_RELEASE_V1.0.2/MSDK/plf/riscv/gd32vw55x\gd32vw55x_it.c **** #error "THE ATCMD AND HCI_UART_RX_DMA SHOULD NOT USE SAME UART PORT AT THE SAME TIME"
 143:C:/Users/stapi/OneDrive/Desktop/GD32VW553/V1_MQTT_OK/GD32VW55X_Wifi_BLE_SDK/GD32VW55x_RELEASE_V1.0.2/MSDK/plf/riscv/gd32vw55x\gd32vw55x_it.c **** #elif defined CONFIG_ATCMD && !defined HCI_UART_RX_DMA
 144:C:/Users/stapi/OneDrive/Desktop/GD32VW553/V1_MQTT_OK/GD32VW55X_Wifi_BLE_SDK/GD32VW55x_RELEASE_V1.0.2/MSDK/plf/riscv/gd32vw55x\gd32vw55x_it.c **** void DMA_Channel2_IRQHandler(void)
 145:C:/Users/stapi/OneDrive/Desktop/GD32VW553/V1_MQTT_OK/GD32VW55X_Wifi_BLE_SDK/GD32VW55x_RELEASE_V1.0.2/MSDK/plf/riscv/gd32vw55x\gd32vw55x_it.c **** {
 146:C:/Users/stapi/OneDrive/Desktop/GD32VW553/V1_MQTT_OK/GD32VW55X_Wifi_BLE_SDK/GD32VW55x_RELEASE_V1.0.2/MSDK/plf/riscv/gd32vw55x\gd32vw55x_it.c ****     if (AT_UART == USART0) {
 147:C:/Users/stapi/OneDrive/Desktop/GD32VW553/V1_MQTT_OK/GD32VW55X_Wifi_BLE_SDK/GD32VW55x_RELEASE_V1.0.2/MSDK/plf/riscv/gd32vw55x\gd32vw55x_it.c ****         at_uart_rx_dma_irq_hdl(DMA_CH2);
 148:C:/Users/stapi/OneDrive/Desktop/GD32VW553/V1_MQTT_OK/GD32VW55X_Wifi_BLE_SDK/GD32VW55x_RELEASE_V1.0.2/MSDK/plf/riscv/gd32vw55x\gd32vw55x_it.c ****     }
 149:C:/Users/stapi/OneDrive/Desktop/GD32VW553/V1_MQTT_OK/GD32VW55X_Wifi_BLE_SDK/GD32VW55x_RELEASE_V1.0.2/MSDK/plf/riscv/gd32vw55x\gd32vw55x_it.c **** }
 150:C:/Users/stapi/OneDrive/Desktop/GD32VW553/V1_MQTT_OK/GD32VW55X_Wifi_BLE_SDK/GD32VW55x_RELEASE_V1.0.2/MSDK/plf/riscv/gd32vw55x\gd32vw55x_it.c **** void DMA_Channel0_IRQHandler(void)
 151:C:/Users/stapi/OneDrive/Desktop/GD32VW553/V1_MQTT_OK/GD32VW55X_Wifi_BLE_SDK/GD32VW55x_RELEASE_V1.0.2/MSDK/plf/riscv/gd32vw55x\gd32vw55x_it.c **** {
 152:C:/Users/stapi/OneDrive/Desktop/GD32VW553/V1_MQTT_OK/GD32VW55X_Wifi_BLE_SDK/GD32VW55x_RELEASE_V1.0.2/MSDK/plf/riscv/gd32vw55x\gd32vw55x_it.c ****     if (AT_UART == UART1) {
 153:C:/Users/stapi/OneDrive/Desktop/GD32VW553/V1_MQTT_OK/GD32VW55X_Wifi_BLE_SDK/GD32VW55x_RELEASE_V1.0.2/MSDK/plf/riscv/gd32vw55x\gd32vw55x_it.c ****         at_uart_rx_dma_irq_hdl(DMA_CH0);
 154:C:/Users/stapi/OneDrive/Desktop/GD32VW553/V1_MQTT_OK/GD32VW55X_Wifi_BLE_SDK/GD32VW55x_RELEASE_V1.0.2/MSDK/plf/riscv/gd32vw55x\gd32vw55x_it.c ****     }
 155:C:/Users/stapi/OneDrive/Desktop/GD32VW553/V1_MQTT_OK/GD32VW55X_Wifi_BLE_SDK/GD32VW55x_RELEASE_V1.0.2/MSDK/plf/riscv/gd32vw55x\gd32vw55x_it.c **** }
 156:C:/Users/stapi/OneDrive/Desktop/GD32VW553/V1_MQTT_OK/GD32VW55X_Wifi_BLE_SDK/GD32VW55x_RELEASE_V1.0.2/MSDK/plf/riscv/gd32vw55x\gd32vw55x_it.c **** void DMA_Channel5_IRQHandler(void)
 157:C:/Users/stapi/OneDrive/Desktop/GD32VW553/V1_MQTT_OK/GD32VW55X_Wifi_BLE_SDK/GD32VW55x_RELEASE_V1.0.2/MSDK/plf/riscv/gd32vw55x\gd32vw55x_it.c **** {
 158:C:/Users/stapi/OneDrive/Desktop/GD32VW553/V1_MQTT_OK/GD32VW55X_Wifi_BLE_SDK/GD32VW55x_RELEASE_V1.0.2/MSDK/plf/riscv/gd32vw55x\gd32vw55x_it.c ****     if (AT_UART == UART2) {
 159:C:/Users/stapi/OneDrive/Desktop/GD32VW553/V1_MQTT_OK/GD32VW55X_Wifi_BLE_SDK/GD32VW55x_RELEASE_V1.0.2/MSDK/plf/riscv/gd32vw55x\gd32vw55x_it.c ****         at_uart_rx_dma_irq_hdl(DMA_CH5);
 160:C:/Users/stapi/OneDrive/Desktop/GD32VW553/V1_MQTT_OK/GD32VW55X_Wifi_BLE_SDK/GD32VW55x_RELEASE_V1.0.2/MSDK/plf/riscv/gd32vw55x\gd32vw55x_it.c ****     }
 161:C:/Users/stapi/OneDrive/Desktop/GD32VW553/V1_MQTT_OK/GD32VW55X_Wifi_BLE_SDK/GD32VW55x_RELEASE_V1.0.2/MSDK/plf/riscv/gd32vw55x\gd32vw55x_it.c **** }
 162:C:/Users/stapi/OneDrive/Desktop/GD32VW553/V1_MQTT_OK/GD32VW55X_Wifi_BLE_SDK/GD32VW55x_RELEASE_V1.0.2/MSDK/plf/riscv/gd32vw55x\gd32vw55x_it.c **** #endif
 163:C:/Users/stapi/OneDrive/Desktop/GD32VW553/V1_MQTT_OK/GD32VW55X_Wifi_BLE_SDK/GD32VW55x_RELEASE_V1.0.2/MSDK/plf/riscv/gd32vw55x\gd32vw55x_it.c **** 
 164:C:/Users/stapi/OneDrive/Desktop/GD32VW553/V1_MQTT_OK/GD32VW55X_Wifi_BLE_SDK/GD32VW55x_RELEASE_V1.0.2/MSDK/plf/riscv/gd32vw55x\gd32vw55x_it.c **** void RTC_WKUP_IRQHandler(void)
 165:C:/Users/stapi/OneDrive/Desktop/GD32VW553/V1_MQTT_OK/GD32VW55X_Wifi_BLE_SDK/GD32VW55x_RELEASE_V1.0.2/MSDK/plf/riscv/gd32vw55x\gd32vw55x_it.c **** {
  67              		.loc 1 165 1
  68              		.cfi_startproc
  69 0000 17030000 		call	t0,__riscv_save_0
  69      E7020300 
  70              		.cfi_offset 1, -4
  71              		.cfi_def_cfa_offset 16
 166:C:/Users/stapi/OneDrive/Desktop/GD32VW553/V1_MQTT_OK/GD32VW55X_Wifi_BLE_SDK/GD32VW55x_RELEASE_V1.0.2/MSDK/plf/riscv/gd32vw55x\gd32vw55x_it.c ****     deep_sleep_exit();
  72              		.loc 1 166 5
  73 0008 97000000 		call	deep_sleep_exit
  73      E7800000 
  74              	.LVL3:
 167:C:/Users/stapi/OneDrive/Desktop/GD32VW553/V1_MQTT_OK/GD32VW55X_Wifi_BLE_SDK/GD32VW55x_RELEASE_V1.0.2/MSDK/plf/riscv/gd32vw55x\gd32vw55x_it.c ****     dbg_print(DEBUG, "rtc\n");
  75              		.loc 1 167 5
  76              		.loc 1 167 5
  77 0010 B7070000 		lui	a5,%hi(global_debug_level)
  78 0014 03C70700 		lbu	a4,%lo(global_debug_level)(a5)
  79 0018 9147     		li	a5,4
  80 001a 63FAE700 		bleu	a4,a5,.L7
  81              		.loc 1 167 5 discriminator 1
  82 001e 37050000 		lui	a0,%hi(.LC0)
  83 0022 13050500 		addi	a0,a0,%lo(.LC0)
  84 0026 97000000 		call	co_printf
  84      E7800000 
  85              	.LVL4:
  86              		.loc 1 167 5 discriminator 1
  87              	.L7:
 168:C:/Users/stapi/OneDrive/Desktop/GD32VW553/V1_MQTT_OK/GD32VW55X_Wifi_BLE_SDK/GD32VW55x_RELEASE_V1.0.2/MSDK/plf/riscv/gd32vw55x\gd32vw55x_it.c **** }
  88              		.loc 1 168 1 is_stmt 0
  89 002e 17030000 		tail	__riscv_restore_0
  89      67000300 
  90              		.cfi_restore 1
  91              		.cfi_def_cfa_offset 0
  92              		.cfi_endproc
  93              	.LFE371:
  95              		.section	.rodata.EXTI5_9_IRQHandler.str1.4,"aMS",@progbits,1
  96              		.align	2
  97              	.LC1:
  98 0000 57414B45 		.string	"WAKEUP For Console, Input Any Command or Press 'Enter' Key to Deep Sleep\r\n#\r\n"
  98      55502046 
  98      6F722043 
  98      6F6E736F 
  98      6C652C20 
  99              		.section	.text.EXTI5_9_IRQHandler,"ax",@progbits
 100              		.align	1
 101              		.globl	EXTI5_9_IRQHandler
 103              	EXTI5_9_IRQHandler:
 104              	.LFB372:
 169:C:/Users/stapi/OneDrive/Desktop/GD32VW553/V1_MQTT_OK/GD32VW55X_Wifi_BLE_SDK/GD32VW55x_RELEASE_V1.0.2/MSDK/plf/riscv/gd32vw55x\gd32vw55x_it.c **** 
 170:C:/Users/stapi/OneDrive/Desktop/GD32VW553/V1_MQTT_OK/GD32VW55X_Wifi_BLE_SDK/GD32VW55x_RELEASE_V1.0.2/MSDK/plf/riscv/gd32vw55x\gd32vw55x_it.c **** /*!
 171:C:/Users/stapi/OneDrive/Desktop/GD32VW553/V1_MQTT_OK/GD32VW55X_Wifi_BLE_SDK/GD32VW55x_RELEASE_V1.0.2/MSDK/plf/riscv/gd32vw55x\gd32vw55x_it.c ****     \brief      this function handles EXTI5_9 exception
 172:C:/Users/stapi/OneDrive/Desktop/GD32VW553/V1_MQTT_OK/GD32VW55X_Wifi_BLE_SDK/GD32VW55x_RELEASE_V1.0.2/MSDK/plf/riscv/gd32vw55x\gd32vw55x_it.c ****     \param[in]  none
 173:C:/Users/stapi/OneDrive/Desktop/GD32VW553/V1_MQTT_OK/GD32VW55X_Wifi_BLE_SDK/GD32VW55x_RELEASE_V1.0.2/MSDK/plf/riscv/gd32vw55x\gd32vw55x_it.c ****     \param[out] none
 174:C:/Users/stapi/OneDrive/Desktop/GD32VW553/V1_MQTT_OK/GD32VW55X_Wifi_BLE_SDK/GD32VW55x_RELEASE_V1.0.2/MSDK/plf/riscv/gd32vw55x\gd32vw55x_it.c ****     \retval     none
 175:C:/Users/stapi/OneDrive/Desktop/GD32VW553/V1_MQTT_OK/GD32VW55X_Wifi_BLE_SDK/GD32VW55x_RELEASE_V1.0.2/MSDK/plf/riscv/gd32vw55x\gd32vw55x_it.c **** */
 176:C:/Users/stapi/OneDrive/Desktop/GD32VW553/V1_MQTT_OK/GD32VW55X_Wifi_BLE_SDK/GD32VW55x_RELEASE_V1.0.2/MSDK/plf/riscv/gd32vw55x\gd32vw55x_it.c **** void EXTI5_9_IRQHandler(void)
 177:C:/Users/stapi/OneDrive/Desktop/GD32VW553/V1_MQTT_OK/GD32VW55X_Wifi_BLE_SDK/GD32VW55x_RELEASE_V1.0.2/MSDK/plf/riscv/gd32vw55x\gd32vw55x_it.c **** {
 105              		.loc 1 177 1 is_stmt 1
 106              		.cfi_startproc
 107 0000 17030000 		call	t0,__riscv_save_0
 107      E7020300 
 108              		.cfi_offset 1, -4
 109              		.cfi_def_cfa_offset 16
 178:C:/Users/stapi/OneDrive/Desktop/GD32VW553/V1_MQTT_OK/GD32VW55X_Wifi_BLE_SDK/GD32VW55x_RELEASE_V1.0.2/MSDK/plf/riscv/gd32vw55x\gd32vw55x_it.c ****     deep_sleep_exit();
 110              		.loc 1 178 5
 111 0008 97000000 		call	deep_sleep_exit
 111      E7800000 
 112              	.LVL5:
 179:C:/Users/stapi/OneDrive/Desktop/GD32VW553/V1_MQTT_OK/GD32VW55X_Wifi_BLE_SDK/GD32VW55x_RELEASE_V1.0.2/MSDK/plf/riscv/gd32vw55x\gd32vw55x_it.c **** 
 180:C:/Users/stapi/OneDrive/Desktop/GD32VW553/V1_MQTT_OK/GD32VW55X_Wifi_BLE_SDK/GD32VW55x_RELEASE_V1.0.2/MSDK/plf/riscv/gd32vw55x\gd32vw55x_it.c **** #ifdef LOG_UART
 181:C:/Users/stapi/OneDrive/Desktop/GD32VW553/V1_MQTT_OK/GD32VW55X_Wifi_BLE_SDK/GD32VW55x_RELEASE_V1.0.2/MSDK/plf/riscv/gd32vw55x\gd32vw55x_it.c ****     dbg_print(NOTICE, "WAKEUP For Console, Input Any Command or Press 'Enter' Key to Deep Sleep\r\n
 113              		.loc 1 181 5
 114              		.loc 1 181 5
 115 0010 B7070000 		lui	a5,%hi(global_debug_level)
 116 0014 03C70700 		lbu	a4,%lo(global_debug_level)(a5)
 117 0018 8947     		li	a5,2
 118 001a 63FAE700 		bleu	a4,a5,.L11
 119              		.loc 1 181 5 discriminator 1
 120 001e 37050000 		lui	a0,%hi(.LC1)
 121 0022 13050500 		addi	a0,a0,%lo(.LC1)
 122 0026 97000000 		call	co_printf
 122      E7800000 
 123              	.LVL6:
 124              	.L11:
 125              		.loc 1 181 5 discriminator 3
 182:C:/Users/stapi/OneDrive/Desktop/GD32VW553/V1_MQTT_OK/GD32VW55X_Wifi_BLE_SDK/GD32VW55x_RELEASE_V1.0.2/MSDK/plf/riscv/gd32vw55x\gd32vw55x_it.c ****     usart_command_enable(LOG_UART,USART_CMD_RXFCMD);
 126              		.loc 1 182 5 discriminator 3
 127 002e 37450040 		li	a0,1073758208
 128 0032 A145     		li	a1,8
 129 0034 13050540 		addi	a0,a0,1024
 130 0038 97000000 		call	usart_command_enable
 130      E7800000 
 131              	.LVL7:
 183:C:/Users/stapi/OneDrive/Desktop/GD32VW553/V1_MQTT_OK/GD32VW55X_Wifi_BLE_SDK/GD32VW55x_RELEASE_V1.0.2/MSDK/plf/riscv/gd32vw55x\gd32vw55x_it.c ****     sys_wakelock_acquire(LOCK_ID_USART);
 132              		.loc 1 183 5 discriminator 3
 133 0040 0545     		li	a0,1
 134 0042 97000000 		call	sys_wakelock_acquire
 134      E7800000 
 135              	.LVL8:
 184:C:/Users/stapi/OneDrive/Desktop/GD32VW553/V1_MQTT_OK/GD32VW55X_Wifi_BLE_SDK/GD32VW55x_RELEASE_V1.0.2/MSDK/plf/riscv/gd32vw55x\gd32vw55x_it.c **** #endif
 185:C:/Users/stapi/OneDrive/Desktop/GD32VW553/V1_MQTT_OK/GD32VW55X_Wifi_BLE_SDK/GD32VW55x_RELEASE_V1.0.2/MSDK/plf/riscv/gd32vw55x\gd32vw55x_it.c **** #ifdef TUYAOS_SUPPORT
 186:C:/Users/stapi/OneDrive/Desktop/GD32VW553/V1_MQTT_OK/GD32VW55X_Wifi_BLE_SDK/GD32VW55x_RELEASE_V1.0.2/MSDK/plf/riscv/gd32vw55x\gd32vw55x_it.c ****     gpio_irq_hdl(5);
 187:C:/Users/stapi/OneDrive/Desktop/GD32VW553/V1_MQTT_OK/GD32VW55X_Wifi_BLE_SDK/GD32VW55x_RELEASE_V1.0.2/MSDK/plf/riscv/gd32vw55x\gd32vw55x_it.c **** #endif
 188:C:/Users/stapi/OneDrive/Desktop/GD32VW553/V1_MQTT_OK/GD32VW55X_Wifi_BLE_SDK/GD32VW55x_RELEASE_V1.0.2/MSDK/plf/riscv/gd32vw55x\gd32vw55x_it.c **** }
 136              		.loc 1 188 1 is_stmt 0 discriminator 3
 137 004a 17030000 		tail	__riscv_restore_0
 137      67000300 
 138              		.cfi_restore 1
 139              		.cfi_def_cfa_offset 0
 140              		.cfi_endproc
 141              	.LFE372:
 143              		.section	.text.WIFI_WKUP_IRQHandler,"ax",@progbits
 144              		.align	1
 145              		.globl	WIFI_WKUP_IRQHandler
 147              	WIFI_WKUP_IRQHandler:
 148              	.LFB373:
 189:C:/Users/stapi/OneDrive/Desktop/GD32VW553/V1_MQTT_OK/GD32VW55X_Wifi_BLE_SDK/GD32VW55x_RELEASE_V1.0.2/MSDK/plf/riscv/gd32vw55x\gd32vw55x_it.c **** 
 190:C:/Users/stapi/OneDrive/Desktop/GD32VW553/V1_MQTT_OK/GD32VW55X_Wifi_BLE_SDK/GD32VW55x_RELEASE_V1.0.2/MSDK/plf/riscv/gd32vw55x\gd32vw55x_it.c **** #ifdef CFG_WLAN_SUPPORT
 191:C:/Users/stapi/OneDrive/Desktop/GD32VW553/V1_MQTT_OK/GD32VW55X_Wifi_BLE_SDK/GD32VW55x_RELEASE_V1.0.2/MSDK/plf/riscv/gd32vw55x\gd32vw55x_it.c **** #ifdef CFG_LPS
 192:C:/Users/stapi/OneDrive/Desktop/GD32VW553/V1_MQTT_OK/GD32VW55X_Wifi_BLE_SDK/GD32VW55x_RELEASE_V1.0.2/MSDK/plf/riscv/gd32vw55x\gd32vw55x_it.c **** void WIFI_WKUP_IRQHandler(void)
 193:C:/Users/stapi/OneDrive/Desktop/GD32VW553/V1_MQTT_OK/GD32VW55X_Wifi_BLE_SDK/GD32VW55x_RELEASE_V1.0.2/MSDK/plf/riscv/gd32vw55x\gd32vw55x_it.c **** {
 149              		.loc 1 193 1 is_stmt 1
 150              		.cfi_startproc
 151 0000 17030000 		call	t0,__riscv_save_0
 151      E7020300 
 152              		.cfi_offset 1, -4
 153              		.cfi_def_cfa_offset 16
 194:C:/Users/stapi/OneDrive/Desktop/GD32VW553/V1_MQTT_OK/GD32VW55X_Wifi_BLE_SDK/GD32VW55x_RELEASE_V1.0.2/MSDK/plf/riscv/gd32vw55x\gd32vw55x_it.c ****     wlan_exti_exit();
 154              		.loc 1 194 5
 155 0008 97000000 		call	wlan_exti_exit
 155      E7800000 
 156              	.LVL9:
 195:C:/Users/stapi/OneDrive/Desktop/GD32VW553/V1_MQTT_OK/GD32VW55X_Wifi_BLE_SDK/GD32VW55x_RELEASE_V1.0.2/MSDK/plf/riscv/gd32vw55x\gd32vw55x_it.c ****     deep_sleep_exit();
 157              		.loc 1 195 5
 158 0010 97000000 		call	deep_sleep_exit
 158      E7800000 
 159              	.LVL10:
 196:C:/Users/stapi/OneDrive/Desktop/GD32VW553/V1_MQTT_OK/GD32VW55X_Wifi_BLE_SDK/GD32VW55x_RELEASE_V1.0.2/MSDK/plf/riscv/gd32vw55x\gd32vw55x_it.c ****     wifi_wakeup_isr();
 160              		.loc 1 196 5
 161 0018 97000000 		call	wifi_wakeup_isr
 161      E7800000 
 162              	.LVL11:
 197:C:/Users/stapi/OneDrive/Desktop/GD32VW553/V1_MQTT_OK/GD32VW55X_Wifi_BLE_SDK/GD32VW55x_RELEASE_V1.0.2/MSDK/plf/riscv/gd32vw55x\gd32vw55x_it.c **** }
 163              		.loc 1 197 1 is_stmt 0
 164 0020 17030000 		tail	__riscv_restore_0
 164      67000300 
 165              		.cfi_restore 1
 166              		.cfi_def_cfa_offset 0
 167              		.cfi_endproc
 168              	.LFE373:
 170              		.section	.text.WIFI_INT_IRQHandler,"ax",@progbits
 171              		.align	1
 172              		.globl	WIFI_INT_IRQHandler
 174              	WIFI_INT_IRQHandler:
 175              	.LFB374:
 198:C:/Users/stapi/OneDrive/Desktop/GD32VW553/V1_MQTT_OK/GD32VW55X_Wifi_BLE_SDK/GD32VW55x_RELEASE_V1.0.2/MSDK/plf/riscv/gd32vw55x\gd32vw55x_it.c **** #elif defined (CFG_PS_HW_WAKE)
 199:C:/Users/stapi/OneDrive/Desktop/GD32VW553/V1_MQTT_OK/GD32VW55X_Wifi_BLE_SDK/GD32VW55x_RELEASE_V1.0.2/MSDK/plf/riscv/gd32vw55x\gd32vw55x_it.c **** void WIFI_WKUP_IRQHandler(void)
 200:C:/Users/stapi/OneDrive/Desktop/GD32VW553/V1_MQTT_OK/GD32VW55X_Wifi_BLE_SDK/GD32VW55x_RELEASE_V1.0.2/MSDK/plf/riscv/gd32vw55x\gd32vw55x_it.c **** {
 201:C:/Users/stapi/OneDrive/Desktop/GD32VW553/V1_MQTT_OK/GD32VW55X_Wifi_BLE_SDK/GD32VW55x_RELEASE_V1.0.2/MSDK/plf/riscv/gd32vw55x\gd32vw55x_it.c ****     wlan_exti_exit();
 202:C:/Users/stapi/OneDrive/Desktop/GD32VW553/V1_MQTT_OK/GD32VW55X_Wifi_BLE_SDK/GD32VW55x_RELEASE_V1.0.2/MSDK/plf/riscv/gd32vw55x\gd32vw55x_it.c ****     // HW is idle wake up from sleep,
 203:C:/Users/stapi/OneDrive/Desktop/GD32VW553/V1_MQTT_OK/GD32VW55X_Wifi_BLE_SDK/GD32VW55x_RELEASE_V1.0.2/MSDK/plf/riscv/gd32vw55x\gd32vw55x_it.c ****     // We must set HW to active early to receive bcn
 204:C:/Users/stapi/OneDrive/Desktop/GD32VW553/V1_MQTT_OK/GD32VW55X_Wifi_BLE_SDK/GD32VW55x_RELEASE_V1.0.2/MSDK/plf/riscv/gd32vw55x\gd32vw55x_it.c ****     wifi_wakeup(1);
 205:C:/Users/stapi/OneDrive/Desktop/GD32VW553/V1_MQTT_OK/GD32VW55X_Wifi_BLE_SDK/GD32VW55x_RELEASE_V1.0.2/MSDK/plf/riscv/gd32vw55x\gd32vw55x_it.c ****     dbg_print(DEBUG, "ex\n");
 206:C:/Users/stapi/OneDrive/Desktop/GD32VW553/V1_MQTT_OK/GD32VW55X_Wifi_BLE_SDK/GD32VW55x_RELEASE_V1.0.2/MSDK/plf/riscv/gd32vw55x\gd32vw55x_it.c **** }
 207:C:/Users/stapi/OneDrive/Desktop/GD32VW553/V1_MQTT_OK/GD32VW55X_Wifi_BLE_SDK/GD32VW55x_RELEASE_V1.0.2/MSDK/plf/riscv/gd32vw55x\gd32vw55x_it.c **** #endif
 208:C:/Users/stapi/OneDrive/Desktop/GD32VW553/V1_MQTT_OK/GD32VW55X_Wifi_BLE_SDK/GD32VW55x_RELEASE_V1.0.2/MSDK/plf/riscv/gd32vw55x\gd32vw55x_it.c **** 
 209:C:/Users/stapi/OneDrive/Desktop/GD32VW553/V1_MQTT_OK/GD32VW55X_Wifi_BLE_SDK/GD32VW55x_RELEASE_V1.0.2/MSDK/plf/riscv/gd32vw55x\gd32vw55x_it.c **** void WIFI_INT_IRQHandler(void)
 210:C:/Users/stapi/OneDrive/Desktop/GD32VW553/V1_MQTT_OK/GD32VW55X_Wifi_BLE_SDK/GD32VW55x_RELEASE_V1.0.2/MSDK/plf/riscv/gd32vw55x\gd32vw55x_it.c **** {
 176              		.loc 1 210 1 is_stmt 1
 177              		.cfi_startproc
 211:C:/Users/stapi/OneDrive/Desktop/GD32VW553/V1_MQTT_OK/GD32VW55X_Wifi_BLE_SDK/GD32VW55x_RELEASE_V1.0.2/MSDK/plf/riscv/gd32vw55x\gd32vw55x_it.c ****     intc_irq();
 178              		.loc 1 211 5
 179 0000 17030000 		tail	intc_irq
 179      67000300 
 180              	.LVL12:
 181              		.cfi_endproc
 182              	.LFE374:
 184              		.section	.text.WIFI_INTGEN_IRQHandler,"ax",@progbits
 185              		.align	1
 186              		.globl	WIFI_INTGEN_IRQHandler
 188              	WIFI_INTGEN_IRQHandler:
 189              	.LFB375:
 212:C:/Users/stapi/OneDrive/Desktop/GD32VW553/V1_MQTT_OK/GD32VW55X_Wifi_BLE_SDK/GD32VW55x_RELEASE_V1.0.2/MSDK/plf/riscv/gd32vw55x\gd32vw55x_it.c **** }
 213:C:/Users/stapi/OneDrive/Desktop/GD32VW553/V1_MQTT_OK/GD32VW55X_Wifi_BLE_SDK/GD32VW55x_RELEASE_V1.0.2/MSDK/plf/riscv/gd32vw55x\gd32vw55x_it.c **** 
 214:C:/Users/stapi/OneDrive/Desktop/GD32VW553/V1_MQTT_OK/GD32VW55X_Wifi_BLE_SDK/GD32VW55x_RELEASE_V1.0.2/MSDK/plf/riscv/gd32vw55x\gd32vw55x_it.c **** void WIFI_INTGEN_IRQHandler(void)
 215:C:/Users/stapi/OneDrive/Desktop/GD32VW553/V1_MQTT_OK/GD32VW55X_Wifi_BLE_SDK/GD32VW55x_RELEASE_V1.0.2/MSDK/plf/riscv/gd32vw55x\gd32vw55x_it.c **** {
 190              		.loc 1 215 1
 191              		.cfi_startproc
 192 0000 17030000 		call	t0,__riscv_save_0
 192      E7020300 
 193              		.cfi_offset 1, -4
 194              		.cfi_def_cfa_offset 16
 216:C:/Users/stapi/OneDrive/Desktop/GD32VW553/V1_MQTT_OK/GD32VW55X_Wifi_BLE_SDK/GD32VW55x_RELEASE_V1.0.2/MSDK/plf/riscv/gd32vw55x\gd32vw55x_it.c ****     //wake up wifi moudle if sleep
 217:C:/Users/stapi/OneDrive/Desktop/GD32VW553/V1_MQTT_OK/GD32VW55X_Wifi_BLE_SDK/GD32VW55x_RELEASE_V1.0.2/MSDK/plf/riscv/gd32vw55x\gd32vw55x_it.c ****     wifi_wakeup(1);
 195              		.loc 1 217 5
 196 0008 0545     		li	a0,1
 197 000a 97000000 		call	wifi_wakeup
 197      E7800000 
 198              	.LVL13:
 218:C:/Users/stapi/OneDrive/Desktop/GD32VW553/V1_MQTT_OK/GD32VW55X_Wifi_BLE_SDK/GD32VW55x_RELEASE_V1.0.2/MSDK/plf/riscv/gd32vw55x\gd32vw55x_it.c **** #ifdef CFG_LPS
 219:C:/Users/stapi/OneDrive/Desktop/GD32VW553/V1_MQTT_OK/GD32VW55X_Wifi_BLE_SDK/GD32VW55x_RELEASE_V1.0.2/MSDK/plf/riscv/gd32vw55x\gd32vw55x_it.c ****     if (!wifi_in_doze())
 199              		.loc 1 219 5
 200              		.loc 1 219 10 is_stmt 0
 201 0012 97000000 		call	wifi_in_doze
 201      E7800000 
 202              	.LVL14:
 203              		.loc 1 219 8
 204 001a 11E9     		bne	a0,zero,.L17
 220:C:/Users/stapi/OneDrive/Desktop/GD32VW553/V1_MQTT_OK/GD32VW55X_Wifi_BLE_SDK/GD32VW55x_RELEASE_V1.0.2/MSDK/plf/riscv/gd32vw55x\gd32vw55x_it.c **** #endif
 221:C:/Users/stapi/OneDrive/Desktop/GD32VW553/V1_MQTT_OK/GD32VW55X_Wifi_BLE_SDK/GD32VW55x_RELEASE_V1.0.2/MSDK/plf/riscv/gd32vw55x\gd32vw55x_it.c ****     {
 222:C:/Users/stapi/OneDrive/Desktop/GD32VW553/V1_MQTT_OK/GD32VW55X_Wifi_BLE_SDK/GD32VW55x_RELEASE_V1.0.2/MSDK/plf/riscv/gd32vw55x\gd32vw55x_it.c ****         hal_machw_gen_handler();
 205              		.loc 1 222 9 is_stmt 1
 206 001c 97000000 		call	hal_machw_gen_handler
 206      E7800000 
 207              	.LVL15:
 223:C:/Users/stapi/OneDrive/Desktop/GD32VW553/V1_MQTT_OK/GD32VW55X_Wifi_BLE_SDK/GD32VW55x_RELEASE_V1.0.2/MSDK/plf/riscv/gd32vw55x\gd32vw55x_it.c **** #ifdef CFG_RTOS
 224:C:/Users/stapi/OneDrive/Desktop/GD32VW553/V1_MQTT_OK/GD32VW55X_Wifi_BLE_SDK/GD32VW55x_RELEASE_V1.0.2/MSDK/plf/riscv/gd32vw55x\gd32vw55x_it.c ****         wifi_core_task_resume(true);
 208              		.loc 1 224 9
 209 0024 0545     		li	a0,1
 210 0026 97000000 		call	wifi_core_task_resume
 210      E7800000 
 211              	.LVL16:
 212              	.L17:
 225:C:/Users/stapi/OneDrive/Desktop/GD32VW553/V1_MQTT_OK/GD32VW55X_Wifi_BLE_SDK/GD32VW55x_RELEASE_V1.0.2/MSDK/plf/riscv/gd32vw55x\gd32vw55x_it.c **** #endif
 226:C:/Users/stapi/OneDrive/Desktop/GD32VW553/V1_MQTT_OK/GD32VW55X_Wifi_BLE_SDK/GD32VW55x_RELEASE_V1.0.2/MSDK/plf/riscv/gd32vw55x\gd32vw55x_it.c ****     }
 227:C:/Users/stapi/OneDrive/Desktop/GD32VW553/V1_MQTT_OK/GD32VW55X_Wifi_BLE_SDK/GD32VW55x_RELEASE_V1.0.2/MSDK/plf/riscv/gd32vw55x\gd32vw55x_it.c **** }
 213              		.loc 1 227 1 is_stmt 0
 214 002e 17030000 		tail	__riscv_restore_0
 214      67000300 
 215              		.cfi_restore 1
 216              		.cfi_def_cfa_offset 0
 217              		.cfi_endproc
 218              	.LFE375:
 220              		.section	.text.WIFI_PROT_IRQHandler,"ax",@progbits
 221              		.align	1
 222              		.globl	WIFI_PROT_IRQHandler
 224              	WIFI_PROT_IRQHandler:
 225              	.LFB376:
 228:C:/Users/stapi/OneDrive/Desktop/GD32VW553/V1_MQTT_OK/GD32VW55X_Wifi_BLE_SDK/GD32VW55x_RELEASE_V1.0.2/MSDK/plf/riscv/gd32vw55x\gd32vw55x_it.c **** 
 229:C:/Users/stapi/OneDrive/Desktop/GD32VW553/V1_MQTT_OK/GD32VW55X_Wifi_BLE_SDK/GD32VW55x_RELEASE_V1.0.2/MSDK/plf/riscv/gd32vw55x\gd32vw55x_it.c **** void WIFI_PROT_IRQHandler(void)
 230:C:/Users/stapi/OneDrive/Desktop/GD32VW553/V1_MQTT_OK/GD32VW55X_Wifi_BLE_SDK/GD32VW55x_RELEASE_V1.0.2/MSDK/plf/riscv/gd32vw55x\gd32vw55x_it.c **** {
 226              		.loc 1 230 1 is_stmt 1
 227              		.cfi_startproc
 228 0000 17030000 		call	t0,__riscv_save_0
 228      E7020300 
 229              		.cfi_offset 1, -4
 230              		.cfi_def_cfa_offset 16
 231:C:/Users/stapi/OneDrive/Desktop/GD32VW553/V1_MQTT_OK/GD32VW55X_Wifi_BLE_SDK/GD32VW55x_RELEASE_V1.0.2/MSDK/plf/riscv/gd32vw55x\gd32vw55x_it.c ****     txl_prot_trigger();
 231              		.loc 1 231 5
 232 0008 97000000 		call	txl_prot_trigger
 232      E7800000 
 233              	.LVL17:
 232:C:/Users/stapi/OneDrive/Desktop/GD32VW553/V1_MQTT_OK/GD32VW55X_Wifi_BLE_SDK/GD32VW55x_RELEASE_V1.0.2/MSDK/plf/riscv/gd32vw55x\gd32vw55x_it.c **** #ifdef CFG_RTOS
 233:C:/Users/stapi/OneDrive/Desktop/GD32VW553/V1_MQTT_OK/GD32VW55X_Wifi_BLE_SDK/GD32VW55x_RELEASE_V1.0.2/MSDK/plf/riscv/gd32vw55x\gd32vw55x_it.c ****     wifi_core_task_resume(true);
 234              		.loc 1 233 5
 235 0010 0545     		li	a0,1
 236 0012 97000000 		call	wifi_core_task_resume
 236      E7800000 
 237              	.LVL18:
 234:C:/Users/stapi/OneDrive/Desktop/GD32VW553/V1_MQTT_OK/GD32VW55X_Wifi_BLE_SDK/GD32VW55x_RELEASE_V1.0.2/MSDK/plf/riscv/gd32vw55x\gd32vw55x_it.c **** #endif
 235:C:/Users/stapi/OneDrive/Desktop/GD32VW553/V1_MQTT_OK/GD32VW55X_Wifi_BLE_SDK/GD32VW55x_RELEASE_V1.0.2/MSDK/plf/riscv/gd32vw55x\gd32vw55x_it.c **** }
 238              		.loc 1 235 1 is_stmt 0
 239 001a 17030000 		tail	__riscv_restore_0
 239      67000300 
 240              		.cfi_restore 1
 241              		.cfi_def_cfa_offset 0
 242              		.cfi_endproc
 243              	.LFE376:
 245              		.section	.text.LA_IRQHandler,"ax",@progbits
 246              		.align	1
 247              		.globl	LA_IRQHandler
 249              	LA_IRQHandler:
 250              	.LFB377:
 236:C:/Users/stapi/OneDrive/Desktop/GD32VW553/V1_MQTT_OK/GD32VW55X_Wifi_BLE_SDK/GD32VW55x_RELEASE_V1.0.2/MSDK/plf/riscv/gd32vw55x\gd32vw55x_it.c **** 
 237:C:/Users/stapi/OneDrive/Desktop/GD32VW553/V1_MQTT_OK/GD32VW55X_Wifi_BLE_SDK/GD32VW55x_RELEASE_V1.0.2/MSDK/plf/riscv/gd32vw55x\gd32vw55x_it.c **** void LA_IRQHandler(void)
 238:C:/Users/stapi/OneDrive/Desktop/GD32VW553/V1_MQTT_OK/GD32VW55X_Wifi_BLE_SDK/GD32VW55x_RELEASE_V1.0.2/MSDK/plf/riscv/gd32vw55x\gd32vw55x_it.c **** {
 251              		.loc 1 238 1 is_stmt 1
 252              		.cfi_startproc
 253 0000 17030000 		call	t0,__riscv_save_0
 253      E7020300 
 254              		.cfi_offset 1, -4
 255              		.cfi_def_cfa_offset 16
 239:C:/Users/stapi/OneDrive/Desktop/GD32VW553/V1_MQTT_OK/GD32VW55X_Wifi_BLE_SDK/GD32VW55x_RELEASE_V1.0.2/MSDK/plf/riscv/gd32vw55x\gd32vw55x_it.c ****     hal_la_isr();
 256              		.loc 1 239 5
 257 0008 97000000 		call	hal_la_isr
 257      E7800000 
 258              	.LVL19:
 240:C:/Users/stapi/OneDrive/Desktop/GD32VW553/V1_MQTT_OK/GD32VW55X_Wifi_BLE_SDK/GD32VW55x_RELEASE_V1.0.2/MSDK/plf/riscv/gd32vw55x\gd32vw55x_it.c **** #ifdef CFG_RTOS
 241:C:/Users/stapi/OneDrive/Desktop/GD32VW553/V1_MQTT_OK/GD32VW55X_Wifi_BLE_SDK/GD32VW55x_RELEASE_V1.0.2/MSDK/plf/riscv/gd32vw55x\gd32vw55x_it.c ****     wifi_core_task_resume(true);
 259              		.loc 1 241 5
 260 0010 0545     		li	a0,1
 261 0012 97000000 		call	wifi_core_task_resume
 261      E7800000 
 262              	.LVL20:
 242:C:/Users/stapi/OneDrive/Desktop/GD32VW553/V1_MQTT_OK/GD32VW55X_Wifi_BLE_SDK/GD32VW55x_RELEASE_V1.0.2/MSDK/plf/riscv/gd32vw55x\gd32vw55x_it.c **** #endif
 243:C:/Users/stapi/OneDrive/Desktop/GD32VW553/V1_MQTT_OK/GD32VW55X_Wifi_BLE_SDK/GD32VW55x_RELEASE_V1.0.2/MSDK/plf/riscv/gd32vw55x\gd32vw55x_it.c **** }
 263              		.loc 1 243 1 is_stmt 0
 264 001a 17030000 		tail	__riscv_restore_0
 264      67000300 
 265              		.cfi_restore 1
 266              		.cfi_def_cfa_offset 0
 267              		.cfi_endproc
 268              	.LFE377:
 270              		.section	.text.WIFI_RX_IRQHandler,"ax",@progbits
 271              		.align	1
 272              		.globl	WIFI_RX_IRQHandler
 274              	WIFI_RX_IRQHandler:
 275              	.LFB378:
 244:C:/Users/stapi/OneDrive/Desktop/GD32VW553/V1_MQTT_OK/GD32VW55X_Wifi_BLE_SDK/GD32VW55x_RELEASE_V1.0.2/MSDK/plf/riscv/gd32vw55x\gd32vw55x_it.c **** 
 245:C:/Users/stapi/OneDrive/Desktop/GD32VW553/V1_MQTT_OK/GD32VW55X_Wifi_BLE_SDK/GD32VW55x_RELEASE_V1.0.2/MSDK/plf/riscv/gd32vw55x\gd32vw55x_it.c **** void WIFI_RX_IRQHandler(void)
 246:C:/Users/stapi/OneDrive/Desktop/GD32VW553/V1_MQTT_OK/GD32VW55X_Wifi_BLE_SDK/GD32VW55x_RELEASE_V1.0.2/MSDK/plf/riscv/gd32vw55x\gd32vw55x_it.c **** {
 276              		.loc 1 246 1 is_stmt 1
 277              		.cfi_startproc
 278 0000 17030000 		call	t0,__riscv_save_0
 278      E7020300 
 279              		.cfi_offset 1, -4
 280              		.cfi_def_cfa_offset 16
 247:C:/Users/stapi/OneDrive/Desktop/GD32VW553/V1_MQTT_OK/GD32VW55X_Wifi_BLE_SDK/GD32VW55x_RELEASE_V1.0.2/MSDK/plf/riscv/gd32vw55x\gd32vw55x_it.c ****     rxl_mpdu_isr();
 281              		.loc 1 247 5
 282 0008 97000000 		call	rxl_mpdu_isr
 282      E7800000 
 283              	.LVL21:
 248:C:/Users/stapi/OneDrive/Desktop/GD32VW553/V1_MQTT_OK/GD32VW55X_Wifi_BLE_SDK/GD32VW55x_RELEASE_V1.0.2/MSDK/plf/riscv/gd32vw55x\gd32vw55x_it.c **** #ifdef CFG_RTOS
 249:C:/Users/stapi/OneDrive/Desktop/GD32VW553/V1_MQTT_OK/GD32VW55X_Wifi_BLE_SDK/GD32VW55x_RELEASE_V1.0.2/MSDK/plf/riscv/gd32vw55x\gd32vw55x_it.c ****     wifi_core_task_resume(true);
 284              		.loc 1 249 5
 285 0010 0545     		li	a0,1
 286 0012 97000000 		call	wifi_core_task_resume
 286      E7800000 
 287              	.LVL22:
 250:C:/Users/stapi/OneDrive/Desktop/GD32VW553/V1_MQTT_OK/GD32VW55X_Wifi_BLE_SDK/GD32VW55x_RELEASE_V1.0.2/MSDK/plf/riscv/gd32vw55x\gd32vw55x_it.c **** #endif
 251:C:/Users/stapi/OneDrive/Desktop/GD32VW553/V1_MQTT_OK/GD32VW55X_Wifi_BLE_SDK/GD32VW55x_RELEASE_V1.0.2/MSDK/plf/riscv/gd32vw55x\gd32vw55x_it.c **** }
 288              		.loc 1 251 1 is_stmt 0
 289 001a 17030000 		tail	__riscv_restore_0
 289      67000300 
 290              		.cfi_restore 1
 291              		.cfi_def_cfa_offset 0
 292              		.cfi_endproc
 293              	.LFE378:
 295              		.section	.text.WIFI_TX_IRQHandler,"ax",@progbits
 296              		.align	1
 297              		.globl	WIFI_TX_IRQHandler
 299              	WIFI_TX_IRQHandler:
 300              	.LFB379:
 252:C:/Users/stapi/OneDrive/Desktop/GD32VW553/V1_MQTT_OK/GD32VW55X_Wifi_BLE_SDK/GD32VW55x_RELEASE_V1.0.2/MSDK/plf/riscv/gd32vw55x\gd32vw55x_it.c **** 
 253:C:/Users/stapi/OneDrive/Desktop/GD32VW553/V1_MQTT_OK/GD32VW55X_Wifi_BLE_SDK/GD32VW55x_RELEASE_V1.0.2/MSDK/plf/riscv/gd32vw55x\gd32vw55x_it.c **** void WIFI_TX_IRQHandler(void)
 254:C:/Users/stapi/OneDrive/Desktop/GD32VW553/V1_MQTT_OK/GD32VW55X_Wifi_BLE_SDK/GD32VW55x_RELEASE_V1.0.2/MSDK/plf/riscv/gd32vw55x\gd32vw55x_it.c **** {
 301              		.loc 1 254 1 is_stmt 1
 302              		.cfi_startproc
 303 0000 17030000 		call	t0,__riscv_save_0
 303      E7020300 
 304              		.cfi_offset 1, -4
 305              		.cfi_def_cfa_offset 16
 255:C:/Users/stapi/OneDrive/Desktop/GD32VW553/V1_MQTT_OK/GD32VW55X_Wifi_BLE_SDK/GD32VW55x_RELEASE_V1.0.2/MSDK/plf/riscv/gd32vw55x\gd32vw55x_it.c ****     txl_transmit_trigger();
 306              		.loc 1 255 5
 307 0008 97000000 		call	txl_transmit_trigger
 307      E7800000 
 308              	.LVL23:
 256:C:/Users/stapi/OneDrive/Desktop/GD32VW553/V1_MQTT_OK/GD32VW55X_Wifi_BLE_SDK/GD32VW55x_RELEASE_V1.0.2/MSDK/plf/riscv/gd32vw55x\gd32vw55x_it.c **** #ifdef CFG_RTOS
 257:C:/Users/stapi/OneDrive/Desktop/GD32VW553/V1_MQTT_OK/GD32VW55X_Wifi_BLE_SDK/GD32VW55x_RELEASE_V1.0.2/MSDK/plf/riscv/gd32vw55x\gd32vw55x_it.c ****     wifi_core_task_resume(true);
 309              		.loc 1 257 5
 310 0010 0545     		li	a0,1
 311 0012 97000000 		call	wifi_core_task_resume
 311      E7800000 
 312              	.LVL24:
 258:C:/Users/stapi/OneDrive/Desktop/GD32VW553/V1_MQTT_OK/GD32VW55X_Wifi_BLE_SDK/GD32VW55x_RELEASE_V1.0.2/MSDK/plf/riscv/gd32vw55x\gd32vw55x_it.c **** #endif
 259:C:/Users/stapi/OneDrive/Desktop/GD32VW553/V1_MQTT_OK/GD32VW55X_Wifi_BLE_SDK/GD32VW55x_RELEASE_V1.0.2/MSDK/plf/riscv/gd32vw55x\gd32vw55x_it.c **** }
 313              		.loc 1 259 1 is_stmt 0
 314 001a 17030000 		tail	__riscv_restore_0
 314      67000300 
 315              		.cfi_restore 1
 316              		.cfi_def_cfa_offset 0
 317              		.cfi_endproc
 318              	.LFE379:
 320              		.section	.text.BLE_POWER_STATUS_IRQHandler,"ax",@progbits
 321              		.align	1
 322              		.globl	BLE_POWER_STATUS_IRQHandler
 324              	BLE_POWER_STATUS_IRQHandler:
 325              	.LFB380:
 260:C:/Users/stapi/OneDrive/Desktop/GD32VW553/V1_MQTT_OK/GD32VW55X_Wifi_BLE_SDK/GD32VW55x_RELEASE_V1.0.2/MSDK/plf/riscv/gd32vw55x\gd32vw55x_it.c **** #endif // CFG_WLAN_SUPPORT
 261:C:/Users/stapi/OneDrive/Desktop/GD32VW553/V1_MQTT_OK/GD32VW55X_Wifi_BLE_SDK/GD32VW55x_RELEASE_V1.0.2/MSDK/plf/riscv/gd32vw55x\gd32vw55x_it.c **** 
 262:C:/Users/stapi/OneDrive/Desktop/GD32VW553/V1_MQTT_OK/GD32VW55X_Wifi_BLE_SDK/GD32VW55x_RELEASE_V1.0.2/MSDK/plf/riscv/gd32vw55x\gd32vw55x_it.c **** #ifdef CFG_BLE_SUPPORT
 263:C:/Users/stapi/OneDrive/Desktop/GD32VW553/V1_MQTT_OK/GD32VW55X_Wifi_BLE_SDK/GD32VW55x_RELEASE_V1.0.2/MSDK/plf/riscv/gd32vw55x\gd32vw55x_it.c **** void BLE_POWER_STATUS_IRQHandler(void)
 264:C:/Users/stapi/OneDrive/Desktop/GD32VW553/V1_MQTT_OK/GD32VW55X_Wifi_BLE_SDK/GD32VW55x_RELEASE_V1.0.2/MSDK/plf/riscv/gd32vw55x\gd32vw55x_it.c **** {
 326              		.loc 1 264 1 is_stmt 1
 327              		.cfi_startproc
 328 0000 17030000 		call	t0,__riscv_save_0
 328      E7020300 
 329              		.cfi_offset 1, -4
 330              		.cfi_def_cfa_offset 16
 265:C:/Users/stapi/OneDrive/Desktop/GD32VW553/V1_MQTT_OK/GD32VW55X_Wifi_BLE_SDK/GD32VW55x_RELEASE_V1.0.2/MSDK/plf/riscv/gd32vw55x\gd32vw55x_it.c ****     /* ble core goes from active to sleep and ble_ps_fall_en will generate power status interrupt *
 266:C:/Users/stapi/OneDrive/Desktop/GD32VW553/V1_MQTT_OK/GD32VW55X_Wifi_BLE_SDK/GD32VW55x_RELEASE_V1.0.2/MSDK/plf/riscv/gd32vw55x\gd32vw55x_it.c ****     if (ble_power_status_fall_status() != 0) {
 331              		.loc 1 266 5
 332              		.loc 1 266 9 is_stmt 0
 333 0008 97000000 		call	ble_power_status_fall_status
 333      E7800000 
 334              	.LVL25:
 335              		.loc 1 266 8
 336 0010 15C1     		beq	a0,zero,.L29
 267:C:/Users/stapi/OneDrive/Desktop/GD32VW553/V1_MQTT_OK/GD32VW55X_Wifi_BLE_SDK/GD32VW55x_RELEASE_V1.0.2/MSDK/plf/riscv/gd32vw55x\gd32vw55x_it.c ****         ble_power_status_fall_clear();
 337              		.loc 1 267 9 is_stmt 1
 338 0012 97000000 		call	ble_power_status_fall_clear
 338      E7800000 
 339              	.LVL26:
 268:C:/Users/stapi/OneDrive/Desktop/GD32VW553/V1_MQTT_OK/GD32VW55X_Wifi_BLE_SDK/GD32VW55x_RELEASE_V1.0.2/MSDK/plf/riscv/gd32vw55x\gd32vw55x_it.c **** 
 269:C:/Users/stapi/OneDrive/Desktop/GD32VW553/V1_MQTT_OK/GD32VW55X_Wifi_BLE_SDK/GD32VW55x_RELEASE_V1.0.2/MSDK/plf/riscv/gd32vw55x\gd32vw55x_it.c ****         /* power off */
 270:C:/Users/stapi/OneDrive/Desktop/GD32VW553/V1_MQTT_OK/GD32VW55X_Wifi_BLE_SDK/GD32VW55x_RELEASE_V1.0.2/MSDK/plf/riscv/gd32vw55x\gd32vw55x_it.c ****         ble_pmu_config(0);
 340              		.loc 1 270 9
 341 001a 0145     		li	a0,0
 342 001c 97000000 		call	ble_pmu_config
 342      E7800000 
 343              	.LVL27:
 271:C:/Users/stapi/OneDrive/Desktop/GD32VW553/V1_MQTT_OK/GD32VW55X_Wifi_BLE_SDK/GD32VW55x_RELEASE_V1.0.2/MSDK/plf/riscv/gd32vw55x\gd32vw55x_it.c **** 
 272:C:/Users/stapi/OneDrive/Desktop/GD32VW553/V1_MQTT_OK/GD32VW55X_Wifi_BLE_SDK/GD32VW55x_RELEASE_V1.0.2/MSDK/plf/riscv/gd32vw55x\gd32vw55x_it.c ****         /* configuring ble exti protection a power status rise interrupt was generated when configu
 273:C:/Users/stapi/OneDrive/Desktop/GD32VW553/V1_MQTT_OK/GD32VW55X_Wifi_BLE_SDK/GD32VW55x_RELEASE_V1.0.2/MSDK/plf/riscv/gd32vw55x\gd32vw55x_it.c ****         ble_exti_enter();
 344              		.loc 1 273 9
 345 0024 97000000 		call	ble_exti_enter
 345      E7800000 
 346              	.LVL28:
 274:C:/Users/stapi/OneDrive/Desktop/GD32VW553/V1_MQTT_OK/GD32VW55X_Wifi_BLE_SDK/GD32VW55x_RELEASE_V1.0.2/MSDK/plf/riscv/gd32vw55x\gd32vw55x_it.c **** 
 275:C:/Users/stapi/OneDrive/Desktop/GD32VW553/V1_MQTT_OK/GD32VW55X_Wifi_BLE_SDK/GD32VW55x_RELEASE_V1.0.2/MSDK/plf/riscv/gd32vw55x\gd32vw55x_it.c ****         /* release the ble lock of cpu deepsleep */
 276:C:/Users/stapi/OneDrive/Desktop/GD32VW553/V1_MQTT_OK/GD32VW55X_Wifi_BLE_SDK/GD32VW55x_RELEASE_V1.0.2/MSDK/plf/riscv/gd32vw55x\gd32vw55x_it.c ****         ble_wakelock_release();
 347              		.loc 1 276 9
 348 002c 97000000 		call	ble_wakelock_release
 348      E7800000 
 349              	.LVL29:
 350              	.L29:
 277:C:/Users/stapi/OneDrive/Desktop/GD32VW553/V1_MQTT_OK/GD32VW55X_Wifi_BLE_SDK/GD32VW55x_RELEASE_V1.0.2/MSDK/plf/riscv/gd32vw55x\gd32vw55x_it.c ****     }
 278:C:/Users/stapi/OneDrive/Desktop/GD32VW553/V1_MQTT_OK/GD32VW55X_Wifi_BLE_SDK/GD32VW55x_RELEASE_V1.0.2/MSDK/plf/riscv/gd32vw55x\gd32vw55x_it.c **** 
 279:C:/Users/stapi/OneDrive/Desktop/GD32VW553/V1_MQTT_OK/GD32VW55X_Wifi_BLE_SDK/GD32VW55x_RELEASE_V1.0.2/MSDK/plf/riscv/gd32vw55x\gd32vw55x_it.c ****     /* ble core goes from sleep to active and ble_ps_rise_en will generate power status interrupt *
 280:C:/Users/stapi/OneDrive/Desktop/GD32VW553/V1_MQTT_OK/GD32VW55X_Wifi_BLE_SDK/GD32VW55x_RELEASE_V1.0.2/MSDK/plf/riscv/gd32vw55x\gd32vw55x_it.c ****     if (ble_power_status_rise_status() != 0) {
 351              		.loc 1 280 5
 352              		.loc 1 280 9 is_stmt 0
 353 0034 97000000 		call	ble_power_status_rise_status
 353      E7800000 
 354              	.LVL30:
 355              		.loc 1 280 8
 356 003c 15C5     		beq	a0,zero,.L28
 281:C:/Users/stapi/OneDrive/Desktop/GD32VW553/V1_MQTT_OK/GD32VW55X_Wifi_BLE_SDK/GD32VW55x_RELEASE_V1.0.2/MSDK/plf/riscv/gd32vw55x\gd32vw55x_it.c ****         ble_power_status_rise_clear();
 357              		.loc 1 281 9 is_stmt 1
 358 003e 97000000 		call	ble_power_status_rise_clear
 358      E7800000 
 359              	.LVL31:
 282:C:/Users/stapi/OneDrive/Desktop/GD32VW553/V1_MQTT_OK/GD32VW55X_Wifi_BLE_SDK/GD32VW55x_RELEASE_V1.0.2/MSDK/plf/riscv/gd32vw55x\gd32vw55x_it.c **** 
 283:C:/Users/stapi/OneDrive/Desktop/GD32VW553/V1_MQTT_OK/GD32VW55X_Wifi_BLE_SDK/GD32VW55x_RELEASE_V1.0.2/MSDK/plf/riscv/gd32vw55x\gd32vw55x_it.c ****         /* power on */
 284:C:/Users/stapi/OneDrive/Desktop/GD32VW553/V1_MQTT_OK/GD32VW55X_Wifi_BLE_SDK/GD32VW55x_RELEASE_V1.0.2/MSDK/plf/riscv/gd32vw55x\gd32vw55x_it.c ****         ble_pmu_config(1);
 360              		.loc 1 284 9
 361 0046 0545     		li	a0,1
 362 0048 97000000 		call	ble_pmu_config
 362      E7800000 
 363              	.LVL32:
 285:C:/Users/stapi/OneDrive/Desktop/GD32VW553/V1_MQTT_OK/GD32VW55X_Wifi_BLE_SDK/GD32VW55x_RELEASE_V1.0.2/MSDK/plf/riscv/gd32vw55x\gd32vw55x_it.c **** 
 286:C:/Users/stapi/OneDrive/Desktop/GD32VW553/V1_MQTT_OK/GD32VW55X_Wifi_BLE_SDK/GD32VW55x_RELEASE_V1.0.2/MSDK/plf/riscv/gd32vw55x\gd32vw55x_it.c ****         /* ble pmu off, the modem is not saved and needs to be reconfigured */
 287:C:/Users/stapi/OneDrive/Desktop/GD32VW553/V1_MQTT_OK/GD32VW55X_Wifi_BLE_SDK/GD32VW55x_RELEASE_V1.0.2/MSDK/plf/riscv/gd32vw55x\gd32vw55x_it.c ****         ble_modem_config();
 364              		.loc 1 287 9
 365 0050 97000000 		call	ble_modem_config
 365      E7800000 
 366              	.LVL33:
 288:C:/Users/stapi/OneDrive/Desktop/GD32VW553/V1_MQTT_OK/GD32VW55X_Wifi_BLE_SDK/GD32VW55x_RELEASE_V1.0.2/MSDK/plf/riscv/gd32vw55x\gd32vw55x_it.c **** 
 289:C:/Users/stapi/OneDrive/Desktop/GD32VW553/V1_MQTT_OK/GD32VW55X_Wifi_BLE_SDK/GD32VW55x_RELEASE_V1.0.2/MSDK/plf/riscv/gd32vw55x\gd32vw55x_it.c ****         /* configuring ble exti exit */
 290:C:/Users/stapi/OneDrive/Desktop/GD32VW553/V1_MQTT_OK/GD32VW55X_Wifi_BLE_SDK/GD32VW55x_RELEASE_V1.0.2/MSDK/plf/riscv/gd32vw55x\gd32vw55x_it.c ****         ble_exti_exit();
 367              		.loc 1 290 9
 368 0058 97000000 		call	ble_exti_exit
 368      E7800000 
 369              	.LVL34:
 291:C:/Users/stapi/OneDrive/Desktop/GD32VW553/V1_MQTT_OK/GD32VW55X_Wifi_BLE_SDK/GD32VW55x_RELEASE_V1.0.2/MSDK/plf/riscv/gd32vw55x\gd32vw55x_it.c **** 
 292:C:/Users/stapi/OneDrive/Desktop/GD32VW553/V1_MQTT_OK/GD32VW55X_Wifi_BLE_SDK/GD32VW55x_RELEASE_V1.0.2/MSDK/plf/riscv/gd32vw55x\gd32vw55x_it.c ****         /* acquire the ble lock of cpu deepsleep */
 293:C:/Users/stapi/OneDrive/Desktop/GD32VW553/V1_MQTT_OK/GD32VW55X_Wifi_BLE_SDK/GD32VW55x_RELEASE_V1.0.2/MSDK/plf/riscv/gd32vw55x\gd32vw55x_it.c ****         ble_wakelock_acquire();
 370              		.loc 1 293 9
 371 0060 97000000 		call	ble_wakelock_acquire
 371      E7800000 
 372              	.LVL35:
 373              	.L28:
 294:C:/Users/stapi/OneDrive/Desktop/GD32VW553/V1_MQTT_OK/GD32VW55X_Wifi_BLE_SDK/GD32VW55x_RELEASE_V1.0.2/MSDK/plf/riscv/gd32vw55x\gd32vw55x_it.c ****     }
 295:C:/Users/stapi/OneDrive/Desktop/GD32VW553/V1_MQTT_OK/GD32VW55X_Wifi_BLE_SDK/GD32VW55x_RELEASE_V1.0.2/MSDK/plf/riscv/gd32vw55x\gd32vw55x_it.c **** }
 374              		.loc 1 295 1 is_stmt 0
 375 0068 17030000 		tail	__riscv_restore_0
 375      67000300 
 376              		.cfi_restore 1
 377              		.cfi_def_cfa_offset 0
 378              		.cfi_endproc
 379              	.LFE380:
 381              		.section	.text.BLE_WKUP_IRQHandler,"ax",@progbits
 382              		.align	1
 383              		.globl	BLE_WKUP_IRQHandler
 385              	BLE_WKUP_IRQHandler:
 386              	.LFB381:
 296:C:/Users/stapi/OneDrive/Desktop/GD32VW553/V1_MQTT_OK/GD32VW55X_Wifi_BLE_SDK/GD32VW55x_RELEASE_V1.0.2/MSDK/plf/riscv/gd32vw55x\gd32vw55x_it.c **** 
 297:C:/Users/stapi/OneDrive/Desktop/GD32VW553/V1_MQTT_OK/GD32VW55X_Wifi_BLE_SDK/GD32VW55x_RELEASE_V1.0.2/MSDK/plf/riscv/gd32vw55x\gd32vw55x_it.c **** void BLE_WKUP_IRQHandler(void)
 298:C:/Users/stapi/OneDrive/Desktop/GD32VW553/V1_MQTT_OK/GD32VW55X_Wifi_BLE_SDK/GD32VW55x_RELEASE_V1.0.2/MSDK/plf/riscv/gd32vw55x\gd32vw55x_it.c **** {
 387              		.loc 1 298 1 is_stmt 1
 388              		.cfi_startproc
 389 0000 17030000 		call	t0,__riscv_save_0
 389      E7020300 
 390              		.cfi_offset 1, -4
 391              		.cfi_def_cfa_offset 16
 299:C:/Users/stapi/OneDrive/Desktop/GD32VW553/V1_MQTT_OK/GD32VW55X_Wifi_BLE_SDK/GD32VW55x_RELEASE_V1.0.2/MSDK/plf/riscv/gd32vw55x\gd32vw55x_it.c ****     /* ble module clear exti by self */
 300:C:/Users/stapi/OneDrive/Desktop/GD32VW553/V1_MQTT_OK/GD32VW55X_Wifi_BLE_SDK/GD32VW55x_RELEASE_V1.0.2/MSDK/plf/riscv/gd32vw55x\gd32vw55x_it.c ****     ble_exti_exit();
 392              		.loc 1 300 5
 393 0008 97000000 		call	ble_exti_exit
 393      E7800000 
 394              	.LVL36:
 301:C:/Users/stapi/OneDrive/Desktop/GD32VW553/V1_MQTT_OK/GD32VW55X_Wifi_BLE_SDK/GD32VW55x_RELEASE_V1.0.2/MSDK/plf/riscv/gd32vw55x\gd32vw55x_it.c ****     deep_sleep_exit();
 395              		.loc 1 301 5
 396 0010 97000000 		call	deep_sleep_exit
 396      E7800000 
 397              	.LVL37:
 302:C:/Users/stapi/OneDrive/Desktop/GD32VW553/V1_MQTT_OK/GD32VW55X_Wifi_BLE_SDK/GD32VW55x_RELEASE_V1.0.2/MSDK/plf/riscv/gd32vw55x\gd32vw55x_it.c **** }
 398              		.loc 1 302 1 is_stmt 0
 399 0018 17030000 		tail	__riscv_restore_0
 399      67000300 
 400              		.cfi_restore 1
 401              		.cfi_def_cfa_offset 0
 402              		.cfi_endproc
 403              	.LFE381:
 405              		.section	.text.BLE_HALF_SLOT_IRQHandler,"ax",@progbits
 406              		.align	1
 407              		.globl	BLE_HALF_SLOT_IRQHandler
 409              	BLE_HALF_SLOT_IRQHandler:
 410              	.LFB382:
 303:C:/Users/stapi/OneDrive/Desktop/GD32VW553/V1_MQTT_OK/GD32VW55X_Wifi_BLE_SDK/GD32VW55x_RELEASE_V1.0.2/MSDK/plf/riscv/gd32vw55x\gd32vw55x_it.c **** 
 304:C:/Users/stapi/OneDrive/Desktop/GD32VW553/V1_MQTT_OK/GD32VW55X_Wifi_BLE_SDK/GD32VW55x_RELEASE_V1.0.2/MSDK/plf/riscv/gd32vw55x\gd32vw55x_it.c **** void BLE_HALF_SLOT_IRQHandler(void)
 305:C:/Users/stapi/OneDrive/Desktop/GD32VW553/V1_MQTT_OK/GD32VW55X_Wifi_BLE_SDK/GD32VW55x_RELEASE_V1.0.2/MSDK/plf/riscv/gd32vw55x\gd32vw55x_it.c **** {
 411              		.loc 1 305 1 is_stmt 1
 412              		.cfi_startproc
 413 0000 17030000 		call	t0,__riscv_save_0
 413      E7020300 
 414              		.cfi_offset 1, -4
 415              		.cfi_def_cfa_offset 16
 306:C:/Users/stapi/OneDrive/Desktop/GD32VW553/V1_MQTT_OK/GD32VW55X_Wifi_BLE_SDK/GD32VW55x_RELEASE_V1.0.2/MSDK/plf/riscv/gd32vw55x\gd32vw55x_it.c ****     ble_hslot_isr();
 416              		.loc 1 306 5
 417 0008 97000000 		call	ble_hslot_isr
 417      E7800000 
 418              	.LVL38:
 307:C:/Users/stapi/OneDrive/Desktop/GD32VW553/V1_MQTT_OK/GD32VW55X_Wifi_BLE_SDK/GD32VW55x_RELEASE_V1.0.2/MSDK/plf/riscv/gd32vw55x\gd32vw55x_it.c **** #ifdef CFG_RTOS
 308:C:/Users/stapi/OneDrive/Desktop/GD32VW553/V1_MQTT_OK/GD32VW55X_Wifi_BLE_SDK/GD32VW55x_RELEASE_V1.0.2/MSDK/plf/riscv/gd32vw55x\gd32vw55x_it.c ****     ble_stack_task_resume(true);
 419              		.loc 1 308 5
 420 0010 0545     		li	a0,1
 421 0012 97000000 		call	ble_stack_task_resume
 421      E7800000 
 422              	.LVL39:
 309:C:/Users/stapi/OneDrive/Desktop/GD32VW553/V1_MQTT_OK/GD32VW55X_Wifi_BLE_SDK/GD32VW55x_RELEASE_V1.0.2/MSDK/plf/riscv/gd32vw55x\gd32vw55x_it.c **** #endif
 310:C:/Users/stapi/OneDrive/Desktop/GD32VW553/V1_MQTT_OK/GD32VW55X_Wifi_BLE_SDK/GD32VW55x_RELEASE_V1.0.2/MSDK/plf/riscv/gd32vw55x\gd32vw55x_it.c **** }
 423              		.loc 1 310 1 is_stmt 0
 424 001a 17030000 		tail	__riscv_restore_0
 424      67000300 
 425              		.cfi_restore 1
 426              		.cfi_def_cfa_offset 0
 427              		.cfi_endproc
 428              	.LFE382:
 430              		.section	.text.BLE_SLEEP_MODE_IRQHandler,"ax",@progbits
 431              		.align	1
 432              		.globl	BLE_SLEEP_MODE_IRQHandler
 434              	BLE_SLEEP_MODE_IRQHandler:
 435              	.LFB383:
 311:C:/Users/stapi/OneDrive/Desktop/GD32VW553/V1_MQTT_OK/GD32VW55X_Wifi_BLE_SDK/GD32VW55x_RELEASE_V1.0.2/MSDK/plf/riscv/gd32vw55x\gd32vw55x_it.c **** 
 312:C:/Users/stapi/OneDrive/Desktop/GD32VW553/V1_MQTT_OK/GD32VW55X_Wifi_BLE_SDK/GD32VW55x_RELEASE_V1.0.2/MSDK/plf/riscv/gd32vw55x\gd32vw55x_it.c **** void BLE_SLEEP_MODE_IRQHandler(void)
 313:C:/Users/stapi/OneDrive/Desktop/GD32VW553/V1_MQTT_OK/GD32VW55X_Wifi_BLE_SDK/GD32VW55x_RELEASE_V1.0.2/MSDK/plf/riscv/gd32vw55x\gd32vw55x_it.c **** {
 436              		.loc 1 313 1 is_stmt 1
 437              		.cfi_startproc
 438 0000 17030000 		call	t0,__riscv_save_0
 438      E7020300 
 439              		.cfi_offset 1, -4
 440              		.cfi_def_cfa_offset 16
 314:C:/Users/stapi/OneDrive/Desktop/GD32VW553/V1_MQTT_OK/GD32VW55X_Wifi_BLE_SDK/GD32VW55x_RELEASE_V1.0.2/MSDK/plf/riscv/gd32vw55x\gd32vw55x_it.c ****     ble_slp_isr();
 441              		.loc 1 314 5
 442 0008 97000000 		call	ble_slp_isr
 442      E7800000 
 443              	.LVL40:
 315:C:/Users/stapi/OneDrive/Desktop/GD32VW553/V1_MQTT_OK/GD32VW55X_Wifi_BLE_SDK/GD32VW55x_RELEASE_V1.0.2/MSDK/plf/riscv/gd32vw55x\gd32vw55x_it.c **** #ifdef CFG_RTOS
 316:C:/Users/stapi/OneDrive/Desktop/GD32VW553/V1_MQTT_OK/GD32VW55X_Wifi_BLE_SDK/GD32VW55x_RELEASE_V1.0.2/MSDK/plf/riscv/gd32vw55x\gd32vw55x_it.c ****     ble_stack_task_resume(true);
 444              		.loc 1 316 5
 445 0010 0545     		li	a0,1
 446 0012 97000000 		call	ble_stack_task_resume
 446      E7800000 
 447              	.LVL41:
 317:C:/Users/stapi/OneDrive/Desktop/GD32VW553/V1_MQTT_OK/GD32VW55X_Wifi_BLE_SDK/GD32VW55x_RELEASE_V1.0.2/MSDK/plf/riscv/gd32vw55x\gd32vw55x_it.c **** #endif
 318:C:/Users/stapi/OneDrive/Desktop/GD32VW553/V1_MQTT_OK/GD32VW55X_Wifi_BLE_SDK/GD32VW55x_RELEASE_V1.0.2/MSDK/plf/riscv/gd32vw55x\gd32vw55x_it.c **** }
 448              		.loc 1 318 1 is_stmt 0
 449 001a 17030000 		tail	__riscv_restore_0
 449      67000300 
 450              		.cfi_restore 1
 451              		.cfi_def_cfa_offset 0
 452              		.cfi_endproc
 453              	.LFE383:
 455              		.section	.text.BLE_ENCRYPTION_ENGINE_IRQHandler,"ax",@progbits
 456              		.align	1
 457              		.globl	BLE_ENCRYPTION_ENGINE_IRQHandler
 459              	BLE_ENCRYPTION_ENGINE_IRQHandler:
 460              	.LFB384:
 319:C:/Users/stapi/OneDrive/Desktop/GD32VW553/V1_MQTT_OK/GD32VW55X_Wifi_BLE_SDK/GD32VW55x_RELEASE_V1.0.2/MSDK/plf/riscv/gd32vw55x\gd32vw55x_it.c **** 
 320:C:/Users/stapi/OneDrive/Desktop/GD32VW553/V1_MQTT_OK/GD32VW55X_Wifi_BLE_SDK/GD32VW55x_RELEASE_V1.0.2/MSDK/plf/riscv/gd32vw55x\gd32vw55x_it.c **** void BLE_ENCRYPTION_ENGINE_IRQHandler(void)
 321:C:/Users/stapi/OneDrive/Desktop/GD32VW553/V1_MQTT_OK/GD32VW55X_Wifi_BLE_SDK/GD32VW55x_RELEASE_V1.0.2/MSDK/plf/riscv/gd32vw55x\gd32vw55x_it.c **** {
 461              		.loc 1 321 1 is_stmt 1
 462              		.cfi_startproc
 463 0000 17030000 		call	t0,__riscv_save_0
 463      E7020300 
 464              		.cfi_offset 1, -4
 465              		.cfi_def_cfa_offset 16
 322:C:/Users/stapi/OneDrive/Desktop/GD32VW553/V1_MQTT_OK/GD32VW55X_Wifi_BLE_SDK/GD32VW55x_RELEASE_V1.0.2/MSDK/plf/riscv/gd32vw55x\gd32vw55x_it.c ****     ble_crypt_isr();
 466              		.loc 1 322 5
 467 0008 97000000 		call	ble_crypt_isr
 467      E7800000 
 468              	.LVL42:
 323:C:/Users/stapi/OneDrive/Desktop/GD32VW553/V1_MQTT_OK/GD32VW55X_Wifi_BLE_SDK/GD32VW55x_RELEASE_V1.0.2/MSDK/plf/riscv/gd32vw55x\gd32vw55x_it.c **** #ifdef CFG_RTOS
 324:C:/Users/stapi/OneDrive/Desktop/GD32VW553/V1_MQTT_OK/GD32VW55X_Wifi_BLE_SDK/GD32VW55x_RELEASE_V1.0.2/MSDK/plf/riscv/gd32vw55x\gd32vw55x_it.c ****     ble_stack_task_resume(true);
 469              		.loc 1 324 5
 470 0010 0545     		li	a0,1
 471 0012 97000000 		call	ble_stack_task_resume
 471      E7800000 
 472              	.LVL43:
 325:C:/Users/stapi/OneDrive/Desktop/GD32VW553/V1_MQTT_OK/GD32VW55X_Wifi_BLE_SDK/GD32VW55x_RELEASE_V1.0.2/MSDK/plf/riscv/gd32vw55x\gd32vw55x_it.c **** #endif
 326:C:/Users/stapi/OneDrive/Desktop/GD32VW553/V1_MQTT_OK/GD32VW55X_Wifi_BLE_SDK/GD32VW55x_RELEASE_V1.0.2/MSDK/plf/riscv/gd32vw55x\gd32vw55x_it.c **** }
 473              		.loc 1 326 1 is_stmt 0
 474 001a 17030000 		tail	__riscv_restore_0
 474      67000300 
 475              		.cfi_restore 1
 476              		.cfi_def_cfa_offset 0
 477              		.cfi_endproc
 478              	.LFE384:
 480              		.section	.text.BLE_SW_TRIG_IRQHandler,"ax",@progbits
 481              		.align	1
 482              		.globl	BLE_SW_TRIG_IRQHandler
 484              	BLE_SW_TRIG_IRQHandler:
 485              	.LFB385:
 327:C:/Users/stapi/OneDrive/Desktop/GD32VW553/V1_MQTT_OK/GD32VW55X_Wifi_BLE_SDK/GD32VW55x_RELEASE_V1.0.2/MSDK/plf/riscv/gd32vw55x\gd32vw55x_it.c **** 
 328:C:/Users/stapi/OneDrive/Desktop/GD32VW553/V1_MQTT_OK/GD32VW55X_Wifi_BLE_SDK/GD32VW55x_RELEASE_V1.0.2/MSDK/plf/riscv/gd32vw55x\gd32vw55x_it.c **** void BLE_SW_TRIG_IRQHandler(void)
 329:C:/Users/stapi/OneDrive/Desktop/GD32VW553/V1_MQTT_OK/GD32VW55X_Wifi_BLE_SDK/GD32VW55x_RELEASE_V1.0.2/MSDK/plf/riscv/gd32vw55x\gd32vw55x_it.c **** {
 486              		.loc 1 329 1 is_stmt 1
 487              		.cfi_startproc
 488 0000 17030000 		call	t0,__riscv_save_0
 488      E7020300 
 489              		.cfi_offset 1, -4
 490              		.cfi_def_cfa_offset 16
 330:C:/Users/stapi/OneDrive/Desktop/GD32VW553/V1_MQTT_OK/GD32VW55X_Wifi_BLE_SDK/GD32VW55x_RELEASE_V1.0.2/MSDK/plf/riscv/gd32vw55x\gd32vw55x_it.c ****     ble_sw_isr();
 491              		.loc 1 330 5
 492 0008 97000000 		call	ble_sw_isr
 492      E7800000 
 493              	.LVL44:
 331:C:/Users/stapi/OneDrive/Desktop/GD32VW553/V1_MQTT_OK/GD32VW55X_Wifi_BLE_SDK/GD32VW55x_RELEASE_V1.0.2/MSDK/plf/riscv/gd32vw55x\gd32vw55x_it.c **** #ifdef CFG_RTOS
 332:C:/Users/stapi/OneDrive/Desktop/GD32VW553/V1_MQTT_OK/GD32VW55X_Wifi_BLE_SDK/GD32VW55x_RELEASE_V1.0.2/MSDK/plf/riscv/gd32vw55x\gd32vw55x_it.c ****     ble_stack_task_resume(true);
 494              		.loc 1 332 5
 495 0010 0545     		li	a0,1
 496 0012 97000000 		call	ble_stack_task_resume
 496      E7800000 
 497              	.LVL45:
 333:C:/Users/stapi/OneDrive/Desktop/GD32VW553/V1_MQTT_OK/GD32VW55X_Wifi_BLE_SDK/GD32VW55x_RELEASE_V1.0.2/MSDK/plf/riscv/gd32vw55x\gd32vw55x_it.c **** #endif
 334:C:/Users/stapi/OneDrive/Desktop/GD32VW553/V1_MQTT_OK/GD32VW55X_Wifi_BLE_SDK/GD32VW55x_RELEASE_V1.0.2/MSDK/plf/riscv/gd32vw55x\gd32vw55x_it.c **** }
 498              		.loc 1 334 1 is_stmt 0
 499 001a 17030000 		tail	__riscv_restore_0
 499      67000300 
 500              		.cfi_restore 1
 501              		.cfi_def_cfa_offset 0
 502              		.cfi_endproc
 503              	.LFE385:
 505              		.section	.text.BLE_FINE_TIMER_TARGET_IRQHandler,"ax",@progbits
 506              		.align	1
 507              		.globl	BLE_FINE_TIMER_TARGET_IRQHandler
 509              	BLE_FINE_TIMER_TARGET_IRQHandler:
 510              	.LFB386:
 335:C:/Users/stapi/OneDrive/Desktop/GD32VW553/V1_MQTT_OK/GD32VW55X_Wifi_BLE_SDK/GD32VW55x_RELEASE_V1.0.2/MSDK/plf/riscv/gd32vw55x\gd32vw55x_it.c **** 
 336:C:/Users/stapi/OneDrive/Desktop/GD32VW553/V1_MQTT_OK/GD32VW55X_Wifi_BLE_SDK/GD32VW55x_RELEASE_V1.0.2/MSDK/plf/riscv/gd32vw55x\gd32vw55x_it.c **** void BLE_FINE_TIMER_TARGET_IRQHandler(void)
 337:C:/Users/stapi/OneDrive/Desktop/GD32VW553/V1_MQTT_OK/GD32VW55X_Wifi_BLE_SDK/GD32VW55x_RELEASE_V1.0.2/MSDK/plf/riscv/gd32vw55x\gd32vw55x_it.c **** {
 511              		.loc 1 337 1 is_stmt 1
 512              		.cfi_startproc
 338:C:/Users/stapi/OneDrive/Desktop/GD32VW553/V1_MQTT_OK/GD32VW55X_Wifi_BLE_SDK/GD32VW55x_RELEASE_V1.0.2/MSDK/plf/riscv/gd32vw55x\gd32vw55x_it.c ****     ble_fine_tgt_isr();
 513              		.loc 1 338 5
 514 0000 17030000 		tail	ble_fine_tgt_isr
 514      67000300 
 515              	.LVL46:
 516              		.cfi_endproc
 517              	.LFE386:
 519              		.section	.text.BLE_STAMP_TARGET1_IRQHandler,"ax",@progbits
 520              		.align	1
 521              		.globl	BLE_STAMP_TARGET1_IRQHandler
 523              	BLE_STAMP_TARGET1_IRQHandler:
 524              	.LFB387:
 339:C:/Users/stapi/OneDrive/Desktop/GD32VW553/V1_MQTT_OK/GD32VW55X_Wifi_BLE_SDK/GD32VW55x_RELEASE_V1.0.2/MSDK/plf/riscv/gd32vw55x\gd32vw55x_it.c **** }
 340:C:/Users/stapi/OneDrive/Desktop/GD32VW553/V1_MQTT_OK/GD32VW55X_Wifi_BLE_SDK/GD32VW55x_RELEASE_V1.0.2/MSDK/plf/riscv/gd32vw55x\gd32vw55x_it.c **** 
 341:C:/Users/stapi/OneDrive/Desktop/GD32VW553/V1_MQTT_OK/GD32VW55X_Wifi_BLE_SDK/GD32VW55x_RELEASE_V1.0.2/MSDK/plf/riscv/gd32vw55x\gd32vw55x_it.c **** void BLE_STAMP_TARGET1_IRQHandler(void)
 342:C:/Users/stapi/OneDrive/Desktop/GD32VW553/V1_MQTT_OK/GD32VW55X_Wifi_BLE_SDK/GD32VW55x_RELEASE_V1.0.2/MSDK/plf/riscv/gd32vw55x\gd32vw55x_it.c **** {
 525              		.loc 1 342 1
 526              		.cfi_startproc
 527 0000 17030000 		call	t0,__riscv_save_0
 527      E7020300 
 528              		.cfi_offset 1, -4
 529              		.cfi_def_cfa_offset 16
 343:C:/Users/stapi/OneDrive/Desktop/GD32VW553/V1_MQTT_OK/GD32VW55X_Wifi_BLE_SDK/GD32VW55x_RELEASE_V1.0.2/MSDK/plf/riscv/gd32vw55x\gd32vw55x_it.c ****     ble_ts_tgt1_isr();
 530              		.loc 1 343 5
 531 0008 97000000 		call	ble_ts_tgt1_isr
 531      E7800000 
 532              	.LVL47:
 344:C:/Users/stapi/OneDrive/Desktop/GD32VW553/V1_MQTT_OK/GD32VW55X_Wifi_BLE_SDK/GD32VW55x_RELEASE_V1.0.2/MSDK/plf/riscv/gd32vw55x\gd32vw55x_it.c **** #ifdef CFG_RTOS
 345:C:/Users/stapi/OneDrive/Desktop/GD32VW553/V1_MQTT_OK/GD32VW55X_Wifi_BLE_SDK/GD32VW55x_RELEASE_V1.0.2/MSDK/plf/riscv/gd32vw55x\gd32vw55x_it.c ****     ble_stack_task_resume(true);
 533              		.loc 1 345 5
 534 0010 0545     		li	a0,1
 535 0012 97000000 		call	ble_stack_task_resume
 535      E7800000 
 536              	.LVL48:
 346:C:/Users/stapi/OneDrive/Desktop/GD32VW553/V1_MQTT_OK/GD32VW55X_Wifi_BLE_SDK/GD32VW55x_RELEASE_V1.0.2/MSDK/plf/riscv/gd32vw55x\gd32vw55x_it.c **** #endif
 347:C:/Users/stapi/OneDrive/Desktop/GD32VW553/V1_MQTT_OK/GD32VW55X_Wifi_BLE_SDK/GD32VW55x_RELEASE_V1.0.2/MSDK/plf/riscv/gd32vw55x\gd32vw55x_it.c **** }
 537              		.loc 1 347 1 is_stmt 0
 538 001a 17030000 		tail	__riscv_restore_0
 538      67000300 
 539              		.cfi_restore 1
 540              		.cfi_def_cfa_offset 0
 541              		.cfi_endproc
 542              	.LFE387:
 544              		.section	.text.BLE_STAMP_TARGET2_IRQHandler,"ax",@progbits
 545              		.align	1
 546              		.globl	BLE_STAMP_TARGET2_IRQHandler
 548              	BLE_STAMP_TARGET2_IRQHandler:
 549              	.LFB388:
 348:C:/Users/stapi/OneDrive/Desktop/GD32VW553/V1_MQTT_OK/GD32VW55X_Wifi_BLE_SDK/GD32VW55x_RELEASE_V1.0.2/MSDK/plf/riscv/gd32vw55x\gd32vw55x_it.c **** 
 349:C:/Users/stapi/OneDrive/Desktop/GD32VW553/V1_MQTT_OK/GD32VW55X_Wifi_BLE_SDK/GD32VW55x_RELEASE_V1.0.2/MSDK/plf/riscv/gd32vw55x\gd32vw55x_it.c **** void BLE_STAMP_TARGET2_IRQHandler(void)
 350:C:/Users/stapi/OneDrive/Desktop/GD32VW553/V1_MQTT_OK/GD32VW55X_Wifi_BLE_SDK/GD32VW55x_RELEASE_V1.0.2/MSDK/plf/riscv/gd32vw55x\gd32vw55x_it.c **** {
 550              		.loc 1 350 1 is_stmt 1
 551              		.cfi_startproc
 552 0000 17030000 		call	t0,__riscv_save_0
 552      E7020300 
 553              		.cfi_offset 1, -4
 554              		.cfi_def_cfa_offset 16
 351:C:/Users/stapi/OneDrive/Desktop/GD32VW553/V1_MQTT_OK/GD32VW55X_Wifi_BLE_SDK/GD32VW55x_RELEASE_V1.0.2/MSDK/plf/riscv/gd32vw55x\gd32vw55x_it.c ****     ble_ts_tgt2_isr();
 555              		.loc 1 351 5
 556 0008 97000000 		call	ble_ts_tgt2_isr
 556      E7800000 
 557              	.LVL49:
 352:C:/Users/stapi/OneDrive/Desktop/GD32VW553/V1_MQTT_OK/GD32VW55X_Wifi_BLE_SDK/GD32VW55x_RELEASE_V1.0.2/MSDK/plf/riscv/gd32vw55x\gd32vw55x_it.c **** #ifdef CFG_RTOS
 353:C:/Users/stapi/OneDrive/Desktop/GD32VW553/V1_MQTT_OK/GD32VW55X_Wifi_BLE_SDK/GD32VW55x_RELEASE_V1.0.2/MSDK/plf/riscv/gd32vw55x\gd32vw55x_it.c ****     ble_stack_task_resume(true);
 558              		.loc 1 353 5
 559 0010 0545     		li	a0,1
 560 0012 97000000 		call	ble_stack_task_resume
 560      E7800000 
 561              	.LVL50:
 354:C:/Users/stapi/OneDrive/Desktop/GD32VW553/V1_MQTT_OK/GD32VW55X_Wifi_BLE_SDK/GD32VW55x_RELEASE_V1.0.2/MSDK/plf/riscv/gd32vw55x\gd32vw55x_it.c **** #endif
 355:C:/Users/stapi/OneDrive/Desktop/GD32VW553/V1_MQTT_OK/GD32VW55X_Wifi_BLE_SDK/GD32VW55x_RELEASE_V1.0.2/MSDK/plf/riscv/gd32vw55x\gd32vw55x_it.c **** }
 562              		.loc 1 355 1 is_stmt 0
 563 001a 17030000 		tail	__riscv_restore_0
 563      67000300 
 564              		.cfi_restore 1
 565              		.cfi_def_cfa_offset 0
 566              		.cfi_endproc
 567              	.LFE388:
 569              		.section	.text.BLE_STAMP_TARGET3_IRQHandler,"ax",@progbits
 570              		.align	1
 571              		.globl	BLE_STAMP_TARGET3_IRQHandler
 573              	BLE_STAMP_TARGET3_IRQHandler:
 574              	.LFB389:
 356:C:/Users/stapi/OneDrive/Desktop/GD32VW553/V1_MQTT_OK/GD32VW55X_Wifi_BLE_SDK/GD32VW55x_RELEASE_V1.0.2/MSDK/plf/riscv/gd32vw55x\gd32vw55x_it.c **** 
 357:C:/Users/stapi/OneDrive/Desktop/GD32VW553/V1_MQTT_OK/GD32VW55X_Wifi_BLE_SDK/GD32VW55x_RELEASE_V1.0.2/MSDK/plf/riscv/gd32vw55x\gd32vw55x_it.c **** void BLE_STAMP_TARGET3_IRQHandler(void)
 358:C:/Users/stapi/OneDrive/Desktop/GD32VW553/V1_MQTT_OK/GD32VW55X_Wifi_BLE_SDK/GD32VW55x_RELEASE_V1.0.2/MSDK/plf/riscv/gd32vw55x\gd32vw55x_it.c **** {
 575              		.loc 1 358 1 is_stmt 1
 576              		.cfi_startproc
 577 0000 17030000 		call	t0,__riscv_save_0
 577      E7020300 
 578              		.cfi_offset 1, -4
 579              		.cfi_def_cfa_offset 16
 359:C:/Users/stapi/OneDrive/Desktop/GD32VW553/V1_MQTT_OK/GD32VW55X_Wifi_BLE_SDK/GD32VW55x_RELEASE_V1.0.2/MSDK/plf/riscv/gd32vw55x\gd32vw55x_it.c ****     ble_ts_tgt3_isr();
 580              		.loc 1 359 5
 581 0008 97000000 		call	ble_ts_tgt3_isr
 581      E7800000 
 582              	.LVL51:
 360:C:/Users/stapi/OneDrive/Desktop/GD32VW553/V1_MQTT_OK/GD32VW55X_Wifi_BLE_SDK/GD32VW55x_RELEASE_V1.0.2/MSDK/plf/riscv/gd32vw55x\gd32vw55x_it.c **** #ifdef CFG_RTOS
 361:C:/Users/stapi/OneDrive/Desktop/GD32VW553/V1_MQTT_OK/GD32VW55X_Wifi_BLE_SDK/GD32VW55x_RELEASE_V1.0.2/MSDK/plf/riscv/gd32vw55x\gd32vw55x_it.c ****     ble_stack_task_resume(true);
 583              		.loc 1 361 5
 584 0010 0545     		li	a0,1
 585 0012 97000000 		call	ble_stack_task_resume
 585      E7800000 
 586              	.LVL52:
 362:C:/Users/stapi/OneDrive/Desktop/GD32VW553/V1_MQTT_OK/GD32VW55X_Wifi_BLE_SDK/GD32VW55x_RELEASE_V1.0.2/MSDK/plf/riscv/gd32vw55x\gd32vw55x_it.c **** #endif
 363:C:/Users/stapi/OneDrive/Desktop/GD32VW553/V1_MQTT_OK/GD32VW55X_Wifi_BLE_SDK/GD32VW55x_RELEASE_V1.0.2/MSDK/plf/riscv/gd32vw55x\gd32vw55x_it.c **** }
 587              		.loc 1 363 1 is_stmt 0
 588 001a 17030000 		tail	__riscv_restore_0
 588      67000300 
 589              		.cfi_restore 1
 590              		.cfi_def_cfa_offset 0
 591              		.cfi_endproc
 592              	.LFE389:
 594              		.section	.text.BLE_FREQ_SELECT_IRQHandler,"ax",@progbits
 595              		.align	1
 596              		.globl	BLE_FREQ_SELECT_IRQHandler
 598              	BLE_FREQ_SELECT_IRQHandler:
 599              	.LFB390:
 364:C:/Users/stapi/OneDrive/Desktop/GD32VW553/V1_MQTT_OK/GD32VW55X_Wifi_BLE_SDK/GD32VW55x_RELEASE_V1.0.2/MSDK/plf/riscv/gd32vw55x\gd32vw55x_it.c **** 
 365:C:/Users/stapi/OneDrive/Desktop/GD32VW553/V1_MQTT_OK/GD32VW55X_Wifi_BLE_SDK/GD32VW55x_RELEASE_V1.0.2/MSDK/plf/riscv/gd32vw55x\gd32vw55x_it.c **** void BLE_FREQ_SELECT_IRQHandler(void)
 366:C:/Users/stapi/OneDrive/Desktop/GD32VW553/V1_MQTT_OK/GD32VW55X_Wifi_BLE_SDK/GD32VW55x_RELEASE_V1.0.2/MSDK/plf/riscv/gd32vw55x\gd32vw55x_it.c **** {
 600              		.loc 1 366 1 is_stmt 1
 601              		.cfi_startproc
 602 0000 17030000 		call	t0,__riscv_save_0
 602      E7020300 
 603              		.cfi_offset 1, -4
 604              		.cfi_def_cfa_offset 16
 367:C:/Users/stapi/OneDrive/Desktop/GD32VW553/V1_MQTT_OK/GD32VW55X_Wifi_BLE_SDK/GD32VW55x_RELEASE_V1.0.2/MSDK/plf/riscv/gd32vw55x\gd32vw55x_it.c ****     ble_hop_isr();
 605              		.loc 1 367 5
 606 0008 97000000 		call	ble_hop_isr
 606      E7800000 
 607              	.LVL53:
 368:C:/Users/stapi/OneDrive/Desktop/GD32VW553/V1_MQTT_OK/GD32VW55X_Wifi_BLE_SDK/GD32VW55x_RELEASE_V1.0.2/MSDK/plf/riscv/gd32vw55x\gd32vw55x_it.c **** #ifdef CFG_RTOS
 369:C:/Users/stapi/OneDrive/Desktop/GD32VW553/V1_MQTT_OK/GD32VW55X_Wifi_BLE_SDK/GD32VW55x_RELEASE_V1.0.2/MSDK/plf/riscv/gd32vw55x\gd32vw55x_it.c ****     ble_stack_task_resume(true);
 608              		.loc 1 369 5
 609 0010 0545     		li	a0,1
 610 0012 97000000 		call	ble_stack_task_resume
 610      E7800000 
 611              	.LVL54:
 370:C:/Users/stapi/OneDrive/Desktop/GD32VW553/V1_MQTT_OK/GD32VW55X_Wifi_BLE_SDK/GD32VW55x_RELEASE_V1.0.2/MSDK/plf/riscv/gd32vw55x\gd32vw55x_it.c **** #endif
 371:C:/Users/stapi/OneDrive/Desktop/GD32VW553/V1_MQTT_OK/GD32VW55X_Wifi_BLE_SDK/GD32VW55x_RELEASE_V1.0.2/MSDK/plf/riscv/gd32vw55x\gd32vw55x_it.c **** }
 612              		.loc 1 371 1 is_stmt 0
 613 001a 17030000 		tail	__riscv_restore_0
 613      67000300 
 614              		.cfi_restore 1
 615              		.cfi_def_cfa_offset 0
 616              		.cfi_endproc
 617              	.LFE390:
 619              		.section	.text.BLE_ERROR_IRQHandler,"ax",@progbits
 620              		.align	1
 621              		.globl	BLE_ERROR_IRQHandler
 623              	BLE_ERROR_IRQHandler:
 624              	.LFB391:
 372:C:/Users/stapi/OneDrive/Desktop/GD32VW553/V1_MQTT_OK/GD32VW55X_Wifi_BLE_SDK/GD32VW55x_RELEASE_V1.0.2/MSDK/plf/riscv/gd32vw55x\gd32vw55x_it.c **** 
 373:C:/Users/stapi/OneDrive/Desktop/GD32VW553/V1_MQTT_OK/GD32VW55X_Wifi_BLE_SDK/GD32VW55x_RELEASE_V1.0.2/MSDK/plf/riscv/gd32vw55x\gd32vw55x_it.c **** void BLE_ERROR_IRQHandler(void)
 374:C:/Users/stapi/OneDrive/Desktop/GD32VW553/V1_MQTT_OK/GD32VW55X_Wifi_BLE_SDK/GD32VW55x_RELEASE_V1.0.2/MSDK/plf/riscv/gd32vw55x\gd32vw55x_it.c **** {
 625              		.loc 1 374 1 is_stmt 1
 626              		.cfi_startproc
 627 0000 17030000 		call	t0,__riscv_save_0
 627      E7020300 
 628              		.cfi_offset 1, -4
 629              		.cfi_def_cfa_offset 16
 375:C:/Users/stapi/OneDrive/Desktop/GD32VW553/V1_MQTT_OK/GD32VW55X_Wifi_BLE_SDK/GD32VW55x_RELEASE_V1.0.2/MSDK/plf/riscv/gd32vw55x\gd32vw55x_it.c ****     ble_error_isr();
 630              		.loc 1 375 5
 631 0008 97000000 		call	ble_error_isr
 631      E7800000 
 632              	.LVL55:
 376:C:/Users/stapi/OneDrive/Desktop/GD32VW553/V1_MQTT_OK/GD32VW55X_Wifi_BLE_SDK/GD32VW55x_RELEASE_V1.0.2/MSDK/plf/riscv/gd32vw55x\gd32vw55x_it.c **** #ifdef CFG_RTOS
 377:C:/Users/stapi/OneDrive/Desktop/GD32VW553/V1_MQTT_OK/GD32VW55X_Wifi_BLE_SDK/GD32VW55x_RELEASE_V1.0.2/MSDK/plf/riscv/gd32vw55x\gd32vw55x_it.c ****     ble_stack_task_resume(true);
 633              		.loc 1 377 5
 634 0010 0545     		li	a0,1
 635 0012 97000000 		call	ble_stack_task_resume
 635      E7800000 
 636              	.LVL56:
 378:C:/Users/stapi/OneDrive/Desktop/GD32VW553/V1_MQTT_OK/GD32VW55X_Wifi_BLE_SDK/GD32VW55x_RELEASE_V1.0.2/MSDK/plf/riscv/gd32vw55x\gd32vw55x_it.c **** #endif
 379:C:/Users/stapi/OneDrive/Desktop/GD32VW553/V1_MQTT_OK/GD32VW55X_Wifi_BLE_SDK/GD32VW55x_RELEASE_V1.0.2/MSDK/plf/riscv/gd32vw55x\gd32vw55x_it.c **** }
 637              		.loc 1 379 1 is_stmt 0
 638 001a 17030000 		tail	__riscv_restore_0
 638      67000300 
 639              		.cfi_restore 1
 640              		.cfi_def_cfa_offset 0
 641              		.cfi_endproc
 642              	.LFE391:
 644              		.section	.text.BLE_FIFO_ACTIVITY_IRQHandler,"ax",@progbits
 645              		.align	1
 646              		.globl	BLE_FIFO_ACTIVITY_IRQHandler
 648              	BLE_FIFO_ACTIVITY_IRQHandler:
 649              	.LFB392:
 380:C:/Users/stapi/OneDrive/Desktop/GD32VW553/V1_MQTT_OK/GD32VW55X_Wifi_BLE_SDK/GD32VW55x_RELEASE_V1.0.2/MSDK/plf/riscv/gd32vw55x\gd32vw55x_it.c **** 
 381:C:/Users/stapi/OneDrive/Desktop/GD32VW553/V1_MQTT_OK/GD32VW55X_Wifi_BLE_SDK/GD32VW55x_RELEASE_V1.0.2/MSDK/plf/riscv/gd32vw55x\gd32vw55x_it.c **** void BLE_FIFO_ACTIVITY_IRQHandler(void)
 382:C:/Users/stapi/OneDrive/Desktop/GD32VW553/V1_MQTT_OK/GD32VW55X_Wifi_BLE_SDK/GD32VW55x_RELEASE_V1.0.2/MSDK/plf/riscv/gd32vw55x\gd32vw55x_it.c **** {
 650              		.loc 1 382 1 is_stmt 1
 651              		.cfi_startproc
 652 0000 17030000 		call	t0,__riscv_save_0
 652      E7020300 
 653              		.cfi_offset 1, -4
 654              		.cfi_def_cfa_offset 16
 383:C:/Users/stapi/OneDrive/Desktop/GD32VW553/V1_MQTT_OK/GD32VW55X_Wifi_BLE_SDK/GD32VW55x_RELEASE_V1.0.2/MSDK/plf/riscv/gd32vw55x\gd32vw55x_it.c ****     ble_fifo_isr();
 655              		.loc 1 383 5
 656 0008 97000000 		call	ble_fifo_isr
 656      E7800000 
 657              	.LVL57:
 384:C:/Users/stapi/OneDrive/Desktop/GD32VW553/V1_MQTT_OK/GD32VW55X_Wifi_BLE_SDK/GD32VW55x_RELEASE_V1.0.2/MSDK/plf/riscv/gd32vw55x\gd32vw55x_it.c **** #ifdef CFG_RTOS
 385:C:/Users/stapi/OneDrive/Desktop/GD32VW553/V1_MQTT_OK/GD32VW55X_Wifi_BLE_SDK/GD32VW55x_RELEASE_V1.0.2/MSDK/plf/riscv/gd32vw55x\gd32vw55x_it.c ****     ble_stack_task_resume(true);
 658              		.loc 1 385 5
 659 0010 0545     		li	a0,1
 660 0012 97000000 		call	ble_stack_task_resume
 660      E7800000 
 661              	.LVL58:
 386:C:/Users/stapi/OneDrive/Desktop/GD32VW553/V1_MQTT_OK/GD32VW55X_Wifi_BLE_SDK/GD32VW55x_RELEASE_V1.0.2/MSDK/plf/riscv/gd32vw55x\gd32vw55x_it.c **** #endif
 387:C:/Users/stapi/OneDrive/Desktop/GD32VW553/V1_MQTT_OK/GD32VW55X_Wifi_BLE_SDK/GD32VW55x_RELEASE_V1.0.2/MSDK/plf/riscv/gd32vw55x\gd32vw55x_it.c **** }
 662              		.loc 1 387 1 is_stmt 0
 663 001a 17030000 		tail	__riscv_restore_0
 663      67000300 
 664              		.cfi_restore 1
 665              		.cfi_def_cfa_offset 0
 666              		.cfi_endproc
 667              	.LFE392:
 669              		.text
 670              	.Letext0:
 671              		.file 2 "c:\\users\\stapi\\onedrive\\desktop\\gd32vw553\\embeddedbuilder_v1.4.7.26843\\tools\\nucl
 672              		.file 3 "c:\\users\\stapi\\onedrive\\desktop\\gd32vw553\\embeddedbuilder_v1.4.7.26843\\tools\\nucl
 673              		.file 4 "..\\..\\..\\..\\blesw\\src\\export/ble_export.h"
 674              		.file 5 "..\\..\\..\\..\\plf\\src/gd32vw55x_platform.h"
 675              		.file 6 "..\\..\\..\\..\\macsw\\export/wifi_export.h"
 676              		.file 7 "..\\..\\..\\..\\util\\include/debug_print.h"
 677              		.file 8 "..\\..\\..\\..\\plf\\GD32VW55x_standard_peripheral\\Include/gd32vw55x_usart.h"
 678              		.file 9 "..\\..\\..\\..\\plf\\src/wakelock.h"
 679              		.file 10 "..\\..\\..\\..\\plf\\src\\uart/uart.h"
 680              		.file 11 "..\\..\\..\\..\\util\\include/dbg_print.h"