   1              		.file	"debug.c"
   2              		.option nopic
   3              		.attribute arch, "rv32i2p0_m2p0_a2p0_f2p0_c2p0_b_p0p94"
   4              		.attribute unaligned_access, 0
   5              		.attribute stack_align, 16
   6              		.text
   7              	.Ltext0:
   8              		.cfi_sections	.debug_frame
   9              		.section	.text.debug_send_line,"ax",@progbits
  10              		.align	1
  12              	debug_send_line:
  13              	.LFB384:
  14              		.file 1 "C:/Users/stapi/OneDrive/Desktop/GD32VW553/V1_MQTT_OK/GD32VW55X_Wifi_BLE_SDK/GD32VW55x_REL
   1:C:/Users/stapi/OneDrive/Desktop/GD32VW553/V1_MQTT_OK/GD32VW55X_Wifi_BLE_SDK/GD32VW55x_RELEASE_V1.0.2/MSDK/mbedtls/mbedtls-2.17.0-ssl/library\debug.c **** /*
   2:C:/Users/stapi/OneDrive/Desktop/GD32VW553/V1_MQTT_OK/GD32VW55X_Wifi_BLE_SDK/GD32VW55x_RELEASE_V1.0.2/MSDK/mbedtls/mbedtls-2.17.0-ssl/library\debug.c ****  *  Debugging routines
   3:C:/Users/stapi/OneDrive/Desktop/GD32VW553/V1_MQTT_OK/GD32VW55X_Wifi_BLE_SDK/GD32VW55x_RELEASE_V1.0.2/MSDK/mbedtls/mbedtls-2.17.0-ssl/library\debug.c ****  *
   4:C:/Users/stapi/OneDrive/Desktop/GD32VW553/V1_MQTT_OK/GD32VW55X_Wifi_BLE_SDK/GD32VW55x_RELEASE_V1.0.2/MSDK/mbedtls/mbedtls-2.17.0-ssl/library\debug.c ****  *  Copyright (C) 2006-2015, ARM Limited, All Rights Reserved
   5:C:/Users/stapi/OneDrive/Desktop/GD32VW553/V1_MQTT_OK/GD32VW55X_Wifi_BLE_SDK/GD32VW55x_RELEASE_V1.0.2/MSDK/mbedtls/mbedtls-2.17.0-ssl/library\debug.c ****  *  SPDX-License-Identifier: Apache-2.0
   6:C:/Users/stapi/OneDrive/Desktop/GD32VW553/V1_MQTT_OK/GD32VW55X_Wifi_BLE_SDK/GD32VW55x_RELEASE_V1.0.2/MSDK/mbedtls/mbedtls-2.17.0-ssl/library\debug.c ****  *
   7:C:/Users/stapi/OneDrive/Desktop/GD32VW553/V1_MQTT_OK/GD32VW55X_Wifi_BLE_SDK/GD32VW55x_RELEASE_V1.0.2/MSDK/mbedtls/mbedtls-2.17.0-ssl/library\debug.c ****  *  Licensed under the Apache License, Version 2.0 (the "License"); you may
   8:C:/Users/stapi/OneDrive/Desktop/GD32VW553/V1_MQTT_OK/GD32VW55X_Wifi_BLE_SDK/GD32VW55x_RELEASE_V1.0.2/MSDK/mbedtls/mbedtls-2.17.0-ssl/library\debug.c ****  *  not use this file except in compliance with the License.
   9:C:/Users/stapi/OneDrive/Desktop/GD32VW553/V1_MQTT_OK/GD32VW55X_Wifi_BLE_SDK/GD32VW55x_RELEASE_V1.0.2/MSDK/mbedtls/mbedtls-2.17.0-ssl/library\debug.c ****  *  You may obtain a copy of the License at
  10:C:/Users/stapi/OneDrive/Desktop/GD32VW553/V1_MQTT_OK/GD32VW55X_Wifi_BLE_SDK/GD32VW55x_RELEASE_V1.0.2/MSDK/mbedtls/mbedtls-2.17.0-ssl/library\debug.c ****  *
  11:C:/Users/stapi/OneDrive/Desktop/GD32VW553/V1_MQTT_OK/GD32VW55X_Wifi_BLE_SDK/GD32VW55x_RELEASE_V1.0.2/MSDK/mbedtls/mbedtls-2.17.0-ssl/library\debug.c ****  *  http://www.apache.org/licenses/LICENSE-2.0
  12:C:/Users/stapi/OneDrive/Desktop/GD32VW553/V1_MQTT_OK/GD32VW55X_Wifi_BLE_SDK/GD32VW55x_RELEASE_V1.0.2/MSDK/mbedtls/mbedtls-2.17.0-ssl/library\debug.c ****  *
  13:C:/Users/stapi/OneDrive/Desktop/GD32VW553/V1_MQTT_OK/GD32VW55X_Wifi_BLE_SDK/GD32VW55x_RELEASE_V1.0.2/MSDK/mbedtls/mbedtls-2.17.0-ssl/library\debug.c ****  *  Unless required by applicable law or agreed to in writing, software
  14:C:/Users/stapi/OneDrive/Desktop/GD32VW553/V1_MQTT_OK/GD32VW55X_Wifi_BLE_SDK/GD32VW55x_RELEASE_V1.0.2/MSDK/mbedtls/mbedtls-2.17.0-ssl/library\debug.c ****  *  distributed under the License is distributed on an "AS IS" BASIS, WITHOUT
  15:C:/Users/stapi/OneDrive/Desktop/GD32VW553/V1_MQTT_OK/GD32VW55X_Wifi_BLE_SDK/GD32VW55x_RELEASE_V1.0.2/MSDK/mbedtls/mbedtls-2.17.0-ssl/library\debug.c ****  *  WARRANTIES OR CONDITIONS OF ANY KIND, either express or implied.
  16:C:/Users/stapi/OneDrive/Desktop/GD32VW553/V1_MQTT_OK/GD32VW55X_Wifi_BLE_SDK/GD32VW55x_RELEASE_V1.0.2/MSDK/mbedtls/mbedtls-2.17.0-ssl/library\debug.c ****  *  See the License for the specific language governing permissions and
  17:C:/Users/stapi/OneDrive/Desktop/GD32VW553/V1_MQTT_OK/GD32VW55X_Wifi_BLE_SDK/GD32VW55x_RELEASE_V1.0.2/MSDK/mbedtls/mbedtls-2.17.0-ssl/library\debug.c ****  *  limitations under the License.
  18:C:/Users/stapi/OneDrive/Desktop/GD32VW553/V1_MQTT_OK/GD32VW55X_Wifi_BLE_SDK/GD32VW55x_RELEASE_V1.0.2/MSDK/mbedtls/mbedtls-2.17.0-ssl/library\debug.c ****  *
  19:C:/Users/stapi/OneDrive/Desktop/GD32VW553/V1_MQTT_OK/GD32VW55X_Wifi_BLE_SDK/GD32VW55x_RELEASE_V1.0.2/MSDK/mbedtls/mbedtls-2.17.0-ssl/library\debug.c ****  *  This file is part of mbed TLS (https://tls.mbed.org)
  20:C:/Users/stapi/OneDrive/Desktop/GD32VW553/V1_MQTT_OK/GD32VW55X_Wifi_BLE_SDK/GD32VW55x_RELEASE_V1.0.2/MSDK/mbedtls/mbedtls-2.17.0-ssl/library\debug.c ****  */
  21:C:/Users/stapi/OneDrive/Desktop/GD32VW553/V1_MQTT_OK/GD32VW55X_Wifi_BLE_SDK/GD32VW55x_RELEASE_V1.0.2/MSDK/mbedtls/mbedtls-2.17.0-ssl/library\debug.c **** 
  22:C:/Users/stapi/OneDrive/Desktop/GD32VW553/V1_MQTT_OK/GD32VW55X_Wifi_BLE_SDK/GD32VW55x_RELEASE_V1.0.2/MSDK/mbedtls/mbedtls-2.17.0-ssl/library\debug.c **** #if !defined(MBEDTLS_CONFIG_FILE)
  23:C:/Users/stapi/OneDrive/Desktop/GD32VW553/V1_MQTT_OK/GD32VW55X_Wifi_BLE_SDK/GD32VW55x_RELEASE_V1.0.2/MSDK/mbedtls/mbedtls-2.17.0-ssl/library\debug.c **** #include "mbedtls/config.h"
  24:C:/Users/stapi/OneDrive/Desktop/GD32VW553/V1_MQTT_OK/GD32VW55X_Wifi_BLE_SDK/GD32VW55x_RELEASE_V1.0.2/MSDK/mbedtls/mbedtls-2.17.0-ssl/library\debug.c **** #else
  25:C:/Users/stapi/OneDrive/Desktop/GD32VW553/V1_MQTT_OK/GD32VW55X_Wifi_BLE_SDK/GD32VW55x_RELEASE_V1.0.2/MSDK/mbedtls/mbedtls-2.17.0-ssl/library\debug.c **** #include MBEDTLS_CONFIG_FILE
  26:C:/Users/stapi/OneDrive/Desktop/GD32VW553/V1_MQTT_OK/GD32VW55X_Wifi_BLE_SDK/GD32VW55x_RELEASE_V1.0.2/MSDK/mbedtls/mbedtls-2.17.0-ssl/library\debug.c **** #endif
  27:C:/Users/stapi/OneDrive/Desktop/GD32VW553/V1_MQTT_OK/GD32VW55X_Wifi_BLE_SDK/GD32VW55x_RELEASE_V1.0.2/MSDK/mbedtls/mbedtls-2.17.0-ssl/library\debug.c **** 
  28:C:/Users/stapi/OneDrive/Desktop/GD32VW553/V1_MQTT_OK/GD32VW55X_Wifi_BLE_SDK/GD32VW55x_RELEASE_V1.0.2/MSDK/mbedtls/mbedtls-2.17.0-ssl/library\debug.c **** #if defined(MBEDTLS_DEBUG_C)
  29:C:/Users/stapi/OneDrive/Desktop/GD32VW553/V1_MQTT_OK/GD32VW55X_Wifi_BLE_SDK/GD32VW55x_RELEASE_V1.0.2/MSDK/mbedtls/mbedtls-2.17.0-ssl/library\debug.c **** 
  30:C:/Users/stapi/OneDrive/Desktop/GD32VW553/V1_MQTT_OK/GD32VW55X_Wifi_BLE_SDK/GD32VW55x_RELEASE_V1.0.2/MSDK/mbedtls/mbedtls-2.17.0-ssl/library\debug.c **** #if defined(MBEDTLS_PLATFORM_C)
  31:C:/Users/stapi/OneDrive/Desktop/GD32VW553/V1_MQTT_OK/GD32VW55X_Wifi_BLE_SDK/GD32VW55x_RELEASE_V1.0.2/MSDK/mbedtls/mbedtls-2.17.0-ssl/library\debug.c **** #include "mbedtls/platform.h"
  32:C:/Users/stapi/OneDrive/Desktop/GD32VW553/V1_MQTT_OK/GD32VW55X_Wifi_BLE_SDK/GD32VW55x_RELEASE_V1.0.2/MSDK/mbedtls/mbedtls-2.17.0-ssl/library\debug.c **** #undef mbedtls_snprintf
  33:C:/Users/stapi/OneDrive/Desktop/GD32VW553/V1_MQTT_OK/GD32VW55X_Wifi_BLE_SDK/GD32VW55x_RELEASE_V1.0.2/MSDK/mbedtls/mbedtls-2.17.0-ssl/library\debug.c **** #define mbedtls_snprintf    snprintf
  34:C:/Users/stapi/OneDrive/Desktop/GD32VW553/V1_MQTT_OK/GD32VW55X_Wifi_BLE_SDK/GD32VW55x_RELEASE_V1.0.2/MSDK/mbedtls/mbedtls-2.17.0-ssl/library\debug.c **** #else
  35:C:/Users/stapi/OneDrive/Desktop/GD32VW553/V1_MQTT_OK/GD32VW55X_Wifi_BLE_SDK/GD32VW55x_RELEASE_V1.0.2/MSDK/mbedtls/mbedtls-2.17.0-ssl/library\debug.c **** #include <stdlib.h>
  36:C:/Users/stapi/OneDrive/Desktop/GD32VW553/V1_MQTT_OK/GD32VW55X_Wifi_BLE_SDK/GD32VW55x_RELEASE_V1.0.2/MSDK/mbedtls/mbedtls-2.17.0-ssl/library\debug.c **** #define mbedtls_calloc      calloc
  37:C:/Users/stapi/OneDrive/Desktop/GD32VW553/V1_MQTT_OK/GD32VW55X_Wifi_BLE_SDK/GD32VW55x_RELEASE_V1.0.2/MSDK/mbedtls/mbedtls-2.17.0-ssl/library\debug.c **** #define mbedtls_free        free
  38:C:/Users/stapi/OneDrive/Desktop/GD32VW553/V1_MQTT_OK/GD32VW55X_Wifi_BLE_SDK/GD32VW55x_RELEASE_V1.0.2/MSDK/mbedtls/mbedtls-2.17.0-ssl/library\debug.c **** #define mbedtls_time_t      time_t
  39:C:/Users/stapi/OneDrive/Desktop/GD32VW553/V1_MQTT_OK/GD32VW55X_Wifi_BLE_SDK/GD32VW55x_RELEASE_V1.0.2/MSDK/mbedtls/mbedtls-2.17.0-ssl/library\debug.c **** #define mbedtls_snprintf    snprintf
  40:C:/Users/stapi/OneDrive/Desktop/GD32VW553/V1_MQTT_OK/GD32VW55X_Wifi_BLE_SDK/GD32VW55x_RELEASE_V1.0.2/MSDK/mbedtls/mbedtls-2.17.0-ssl/library\debug.c **** #define mbedtls_vsnprintf   vsnprintf
  41:C:/Users/stapi/OneDrive/Desktop/GD32VW553/V1_MQTT_OK/GD32VW55X_Wifi_BLE_SDK/GD32VW55x_RELEASE_V1.0.2/MSDK/mbedtls/mbedtls-2.17.0-ssl/library\debug.c **** #endif
  42:C:/Users/stapi/OneDrive/Desktop/GD32VW553/V1_MQTT_OK/GD32VW55X_Wifi_BLE_SDK/GD32VW55x_RELEASE_V1.0.2/MSDK/mbedtls/mbedtls-2.17.0-ssl/library\debug.c **** 
  43:C:/Users/stapi/OneDrive/Desktop/GD32VW553/V1_MQTT_OK/GD32VW55X_Wifi_BLE_SDK/GD32VW55x_RELEASE_V1.0.2/MSDK/mbedtls/mbedtls-2.17.0-ssl/library\debug.c **** #include "mbedtls/debug.h"
  44:C:/Users/stapi/OneDrive/Desktop/GD32VW553/V1_MQTT_OK/GD32VW55X_Wifi_BLE_SDK/GD32VW55x_RELEASE_V1.0.2/MSDK/mbedtls/mbedtls-2.17.0-ssl/library\debug.c **** 
  45:C:/Users/stapi/OneDrive/Desktop/GD32VW553/V1_MQTT_OK/GD32VW55X_Wifi_BLE_SDK/GD32VW55x_RELEASE_V1.0.2/MSDK/mbedtls/mbedtls-2.17.0-ssl/library\debug.c **** #include <stdarg.h>
  46:C:/Users/stapi/OneDrive/Desktop/GD32VW553/V1_MQTT_OK/GD32VW55X_Wifi_BLE_SDK/GD32VW55x_RELEASE_V1.0.2/MSDK/mbedtls/mbedtls-2.17.0-ssl/library\debug.c **** #include <stdio.h>
  47:C:/Users/stapi/OneDrive/Desktop/GD32VW553/V1_MQTT_OK/GD32VW55X_Wifi_BLE_SDK/GD32VW55x_RELEASE_V1.0.2/MSDK/mbedtls/mbedtls-2.17.0-ssl/library\debug.c **** #include <string.h>
  48:C:/Users/stapi/OneDrive/Desktop/GD32VW553/V1_MQTT_OK/GD32VW55X_Wifi_BLE_SDK/GD32VW55x_RELEASE_V1.0.2/MSDK/mbedtls/mbedtls-2.17.0-ssl/library\debug.c **** 
  49:C:/Users/stapi/OneDrive/Desktop/GD32VW553/V1_MQTT_OK/GD32VW55X_Wifi_BLE_SDK/GD32VW55x_RELEASE_V1.0.2/MSDK/mbedtls/mbedtls-2.17.0-ssl/library\debug.c **** #if ( defined(__ARMCC_VERSION) || defined(_MSC_VER) ) && \
  50:C:/Users/stapi/OneDrive/Desktop/GD32VW553/V1_MQTT_OK/GD32VW55X_Wifi_BLE_SDK/GD32VW55x_RELEASE_V1.0.2/MSDK/mbedtls/mbedtls-2.17.0-ssl/library\debug.c ****     !defined(inline) && !defined(__cplusplus)
  51:C:/Users/stapi/OneDrive/Desktop/GD32VW553/V1_MQTT_OK/GD32VW55X_Wifi_BLE_SDK/GD32VW55x_RELEASE_V1.0.2/MSDK/mbedtls/mbedtls-2.17.0-ssl/library\debug.c **** #define inline __inline
  52:C:/Users/stapi/OneDrive/Desktop/GD32VW553/V1_MQTT_OK/GD32VW55X_Wifi_BLE_SDK/GD32VW55x_RELEASE_V1.0.2/MSDK/mbedtls/mbedtls-2.17.0-ssl/library\debug.c **** #endif
  53:C:/Users/stapi/OneDrive/Desktop/GD32VW553/V1_MQTT_OK/GD32VW55X_Wifi_BLE_SDK/GD32VW55x_RELEASE_V1.0.2/MSDK/mbedtls/mbedtls-2.17.0-ssl/library\debug.c **** 
  54:C:/Users/stapi/OneDrive/Desktop/GD32VW553/V1_MQTT_OK/GD32VW55X_Wifi_BLE_SDK/GD32VW55x_RELEASE_V1.0.2/MSDK/mbedtls/mbedtls-2.17.0-ssl/library\debug.c **** #define DEBUG_BUF_SIZE      512
  55:C:/Users/stapi/OneDrive/Desktop/GD32VW553/V1_MQTT_OK/GD32VW55X_Wifi_BLE_SDK/GD32VW55x_RELEASE_V1.0.2/MSDK/mbedtls/mbedtls-2.17.0-ssl/library\debug.c **** 
  56:C:/Users/stapi/OneDrive/Desktop/GD32VW553/V1_MQTT_OK/GD32VW55X_Wifi_BLE_SDK/GD32VW55x_RELEASE_V1.0.2/MSDK/mbedtls/mbedtls-2.17.0-ssl/library\debug.c **** static int debug_threshold = 0;
  57:C:/Users/stapi/OneDrive/Desktop/GD32VW553/V1_MQTT_OK/GD32VW55X_Wifi_BLE_SDK/GD32VW55x_RELEASE_V1.0.2/MSDK/mbedtls/mbedtls-2.17.0-ssl/library\debug.c **** 
  58:C:/Users/stapi/OneDrive/Desktop/GD32VW553/V1_MQTT_OK/GD32VW55X_Wifi_BLE_SDK/GD32VW55x_RELEASE_V1.0.2/MSDK/mbedtls/mbedtls-2.17.0-ssl/library\debug.c **** void mbedtls_debug_set_threshold( int threshold )
  59:C:/Users/stapi/OneDrive/Desktop/GD32VW553/V1_MQTT_OK/GD32VW55X_Wifi_BLE_SDK/GD32VW55x_RELEASE_V1.0.2/MSDK/mbedtls/mbedtls-2.17.0-ssl/library\debug.c **** {
  60:C:/Users/stapi/OneDrive/Desktop/GD32VW553/V1_MQTT_OK/GD32VW55X_Wifi_BLE_SDK/GD32VW55x_RELEASE_V1.0.2/MSDK/mbedtls/mbedtls-2.17.0-ssl/library\debug.c ****     debug_threshold = threshold;
  61:C:/Users/stapi/OneDrive/Desktop/GD32VW553/V1_MQTT_OK/GD32VW55X_Wifi_BLE_SDK/GD32VW55x_RELEASE_V1.0.2/MSDK/mbedtls/mbedtls-2.17.0-ssl/library\debug.c **** }
  62:C:/Users/stapi/OneDrive/Desktop/GD32VW553/V1_MQTT_OK/GD32VW55X_Wifi_BLE_SDK/GD32VW55x_RELEASE_V1.0.2/MSDK/mbedtls/mbedtls-2.17.0-ssl/library\debug.c **** 
  63:C:/Users/stapi/OneDrive/Desktop/GD32VW553/V1_MQTT_OK/GD32VW55X_Wifi_BLE_SDK/GD32VW55x_RELEASE_V1.0.2/MSDK/mbedtls/mbedtls-2.17.0-ssl/library\debug.c **** /*
  64:C:/Users/stapi/OneDrive/Desktop/GD32VW553/V1_MQTT_OK/GD32VW55X_Wifi_BLE_SDK/GD32VW55x_RELEASE_V1.0.2/MSDK/mbedtls/mbedtls-2.17.0-ssl/library\debug.c ****  * All calls to f_dbg must be made via this function
  65:C:/Users/stapi/OneDrive/Desktop/GD32VW553/V1_MQTT_OK/GD32VW55X_Wifi_BLE_SDK/GD32VW55x_RELEASE_V1.0.2/MSDK/mbedtls/mbedtls-2.17.0-ssl/library\debug.c ****  */
  66:C:/Users/stapi/OneDrive/Desktop/GD32VW553/V1_MQTT_OK/GD32VW55X_Wifi_BLE_SDK/GD32VW55x_RELEASE_V1.0.2/MSDK/mbedtls/mbedtls-2.17.0-ssl/library\debug.c **** static inline void debug_send_line( const mbedtls_ssl_context *ssl, int level,
  67:C:/Users/stapi/OneDrive/Desktop/GD32VW553/V1_MQTT_OK/GD32VW55X_Wifi_BLE_SDK/GD32VW55x_RELEASE_V1.0.2/MSDK/mbedtls/mbedtls-2.17.0-ssl/library\debug.c ****                                     const char *file, int line,
  68:C:/Users/stapi/OneDrive/Desktop/GD32VW553/V1_MQTT_OK/GD32VW55X_Wifi_BLE_SDK/GD32VW55x_RELEASE_V1.0.2/MSDK/mbedtls/mbedtls-2.17.0-ssl/library\debug.c ****                                     const char *str )
  69:C:/Users/stapi/OneDrive/Desktop/GD32VW553/V1_MQTT_OK/GD32VW55X_Wifi_BLE_SDK/GD32VW55x_RELEASE_V1.0.2/MSDK/mbedtls/mbedtls-2.17.0-ssl/library\debug.c **** {
  15              		.loc 1 69 1
  16              		.cfi_startproc
  17              	.LVL0:
  70:C:/Users/stapi/OneDrive/Desktop/GD32VW553/V1_MQTT_OK/GD32VW55X_Wifi_BLE_SDK/GD32VW55x_RELEASE_V1.0.2/MSDK/mbedtls/mbedtls-2.17.0-ssl/library\debug.c ****     /*
  71:C:/Users/stapi/OneDrive/Desktop/GD32VW553/V1_MQTT_OK/GD32VW55X_Wifi_BLE_SDK/GD32VW55x_RELEASE_V1.0.2/MSDK/mbedtls/mbedtls-2.17.0-ssl/library\debug.c ****      * If in a threaded environment, we need a thread identifier.
  72:C:/Users/stapi/OneDrive/Desktop/GD32VW553/V1_MQTT_OK/GD32VW55X_Wifi_BLE_SDK/GD32VW55x_RELEASE_V1.0.2/MSDK/mbedtls/mbedtls-2.17.0-ssl/library\debug.c ****      * Since there is no portable way to get one, use the address of the ssl
  73:C:/Users/stapi/OneDrive/Desktop/GD32VW553/V1_MQTT_OK/GD32VW55X_Wifi_BLE_SDK/GD32VW55x_RELEASE_V1.0.2/MSDK/mbedtls/mbedtls-2.17.0-ssl/library\debug.c ****      * context instead, as it shouldn't be shared between threads.
  74:C:/Users/stapi/OneDrive/Desktop/GD32VW553/V1_MQTT_OK/GD32VW55X_Wifi_BLE_SDK/GD32VW55x_RELEASE_V1.0.2/MSDK/mbedtls/mbedtls-2.17.0-ssl/library\debug.c ****      */
  75:C:/Users/stapi/OneDrive/Desktop/GD32VW553/V1_MQTT_OK/GD32VW55X_Wifi_BLE_SDK/GD32VW55x_RELEASE_V1.0.2/MSDK/mbedtls/mbedtls-2.17.0-ssl/library\debug.c **** #if defined(MBEDTLS_THREADING_C)
  76:C:/Users/stapi/OneDrive/Desktop/GD32VW553/V1_MQTT_OK/GD32VW55X_Wifi_BLE_SDK/GD32VW55x_RELEASE_V1.0.2/MSDK/mbedtls/mbedtls-2.17.0-ssl/library\debug.c ****     char idstr[20 + DEBUG_BUF_SIZE]; /* 0x + 16 nibbles + ': ' */
  77:C:/Users/stapi/OneDrive/Desktop/GD32VW553/V1_MQTT_OK/GD32VW55X_Wifi_BLE_SDK/GD32VW55x_RELEASE_V1.0.2/MSDK/mbedtls/mbedtls-2.17.0-ssl/library\debug.c ****     mbedtls_snprintf( idstr, sizeof( idstr ), "%p: %s", (void*)ssl, str );
  78:C:/Users/stapi/OneDrive/Desktop/GD32VW553/V1_MQTT_OK/GD32VW55X_Wifi_BLE_SDK/GD32VW55x_RELEASE_V1.0.2/MSDK/mbedtls/mbedtls-2.17.0-ssl/library\debug.c ****     ssl->conf->f_dbg( ssl->conf->p_dbg, level, file, line, idstr );
  79:C:/Users/stapi/OneDrive/Desktop/GD32VW553/V1_MQTT_OK/GD32VW55X_Wifi_BLE_SDK/GD32VW55x_RELEASE_V1.0.2/MSDK/mbedtls/mbedtls-2.17.0-ssl/library\debug.c **** #else
  80:C:/Users/stapi/OneDrive/Desktop/GD32VW553/V1_MQTT_OK/GD32VW55X_Wifi_BLE_SDK/GD32VW55x_RELEASE_V1.0.2/MSDK/mbedtls/mbedtls-2.17.0-ssl/library\debug.c ****     ssl->conf->f_dbg( ssl->conf->p_dbg, level, file, line, str );
  18              		.loc 1 80 5
  19              		.loc 1 80 8 is_stmt 0
  20 0000 1C41     		lw	a5,0(a0)
  21              		.loc 1 80 5
  22 0002 03A80701 		lw	a6,16(a5)
  23 0006 C84B     		lw	a0,20(a5)
  24              	.LVL1:
  25 0008 0288     		jr	a6
  26              	.LVL2:
  27              		.cfi_endproc
  28              	.LFE384:
  30              		.section	.rodata.mbedtls_debug_print_mpi.part.0.str1.4,"aMS",@progbits,1
  31              		.align	2
  32              	.LC0:
  33 0000 76616C75 		.string	"value of '%s' (%d bits) is:\r\n"
  33      65206F66 
  33      20272573 
  33      27202825 
  33      64206269 
  34 001e 0000     		.align	2
  35              	.LC1:
  36 0020 0D0A00   		.string	"\r\n"
  37 0023 00       		.align	2
  38              	.LC2:
  39 0024 20253032 		.string	" %02x"
  39      7800
  40 002a 0000     		.align	2
  41              	.LC3:
  42 002c 20303000 		.string	" 00"
  43              		.section	.text.mbedtls_debug_print_mpi.part.0,"ax",@progbits
  44              		.align	1
  46              	mbedtls_debug_print_mpi.part.0:
  47              	.LFB395:
  81:C:/Users/stapi/OneDrive/Desktop/GD32VW553/V1_MQTT_OK/GD32VW55X_Wifi_BLE_SDK/GD32VW55x_RELEASE_V1.0.2/MSDK/mbedtls/mbedtls-2.17.0-ssl/library\debug.c **** #endif
  82:C:/Users/stapi/OneDrive/Desktop/GD32VW553/V1_MQTT_OK/GD32VW55X_Wifi_BLE_SDK/GD32VW55x_RELEASE_V1.0.2/MSDK/mbedtls/mbedtls-2.17.0-ssl/library\debug.c **** }
  83:C:/Users/stapi/OneDrive/Desktop/GD32VW553/V1_MQTT_OK/GD32VW55X_Wifi_BLE_SDK/GD32VW55x_RELEASE_V1.0.2/MSDK/mbedtls/mbedtls-2.17.0-ssl/library\debug.c **** 
  84:C:/Users/stapi/OneDrive/Desktop/GD32VW553/V1_MQTT_OK/GD32VW55X_Wifi_BLE_SDK/GD32VW55x_RELEASE_V1.0.2/MSDK/mbedtls/mbedtls-2.17.0-ssl/library\debug.c **** void mbedtls_debug_print_msg( const mbedtls_ssl_context *ssl, int level,
  85:C:/Users/stapi/OneDrive/Desktop/GD32VW553/V1_MQTT_OK/GD32VW55X_Wifi_BLE_SDK/GD32VW55x_RELEASE_V1.0.2/MSDK/mbedtls/mbedtls-2.17.0-ssl/library\debug.c ****                               const char *file, int line,
  86:C:/Users/stapi/OneDrive/Desktop/GD32VW553/V1_MQTT_OK/GD32VW55X_Wifi_BLE_SDK/GD32VW55x_RELEASE_V1.0.2/MSDK/mbedtls/mbedtls-2.17.0-ssl/library\debug.c ****                               const char *format, ... )
  87:C:/Users/stapi/OneDrive/Desktop/GD32VW553/V1_MQTT_OK/GD32VW55X_Wifi_BLE_SDK/GD32VW55x_RELEASE_V1.0.2/MSDK/mbedtls/mbedtls-2.17.0-ssl/library\debug.c **** {
  88:C:/Users/stapi/OneDrive/Desktop/GD32VW553/V1_MQTT_OK/GD32VW55X_Wifi_BLE_SDK/GD32VW55x_RELEASE_V1.0.2/MSDK/mbedtls/mbedtls-2.17.0-ssl/library\debug.c ****     va_list argp;
  89:C:/Users/stapi/OneDrive/Desktop/GD32VW553/V1_MQTT_OK/GD32VW55X_Wifi_BLE_SDK/GD32VW55x_RELEASE_V1.0.2/MSDK/mbedtls/mbedtls-2.17.0-ssl/library\debug.c ****     char str[DEBUG_BUF_SIZE];
  90:C:/Users/stapi/OneDrive/Desktop/GD32VW553/V1_MQTT_OK/GD32VW55X_Wifi_BLE_SDK/GD32VW55x_RELEASE_V1.0.2/MSDK/mbedtls/mbedtls-2.17.0-ssl/library\debug.c ****     int ret;
  91:C:/Users/stapi/OneDrive/Desktop/GD32VW553/V1_MQTT_OK/GD32VW55X_Wifi_BLE_SDK/GD32VW55x_RELEASE_V1.0.2/MSDK/mbedtls/mbedtls-2.17.0-ssl/library\debug.c **** 
  92:C:/Users/stapi/OneDrive/Desktop/GD32VW553/V1_MQTT_OK/GD32VW55X_Wifi_BLE_SDK/GD32VW55x_RELEASE_V1.0.2/MSDK/mbedtls/mbedtls-2.17.0-ssl/library\debug.c ****     if( NULL == ssl || NULL == ssl->conf || NULL == ssl->conf->f_dbg || level > debug_threshold )
  93:C:/Users/stapi/OneDrive/Desktop/GD32VW553/V1_MQTT_OK/GD32VW55X_Wifi_BLE_SDK/GD32VW55x_RELEASE_V1.0.2/MSDK/mbedtls/mbedtls-2.17.0-ssl/library\debug.c ****         return;
  94:C:/Users/stapi/OneDrive/Desktop/GD32VW553/V1_MQTT_OK/GD32VW55X_Wifi_BLE_SDK/GD32VW55x_RELEASE_V1.0.2/MSDK/mbedtls/mbedtls-2.17.0-ssl/library\debug.c **** 
  95:C:/Users/stapi/OneDrive/Desktop/GD32VW553/V1_MQTT_OK/GD32VW55X_Wifi_BLE_SDK/GD32VW55x_RELEASE_V1.0.2/MSDK/mbedtls/mbedtls-2.17.0-ssl/library\debug.c ****     va_start( argp, format );
  96:C:/Users/stapi/OneDrive/Desktop/GD32VW553/V1_MQTT_OK/GD32VW55X_Wifi_BLE_SDK/GD32VW55x_RELEASE_V1.0.2/MSDK/mbedtls/mbedtls-2.17.0-ssl/library\debug.c ****     ret = mbedtls_vsnprintf( str, DEBUG_BUF_SIZE, format, argp );
  97:C:/Users/stapi/OneDrive/Desktop/GD32VW553/V1_MQTT_OK/GD32VW55X_Wifi_BLE_SDK/GD32VW55x_RELEASE_V1.0.2/MSDK/mbedtls/mbedtls-2.17.0-ssl/library\debug.c ****     va_end( argp );
  98:C:/Users/stapi/OneDrive/Desktop/GD32VW553/V1_MQTT_OK/GD32VW55X_Wifi_BLE_SDK/GD32VW55x_RELEASE_V1.0.2/MSDK/mbedtls/mbedtls-2.17.0-ssl/library\debug.c **** 
  99:C:/Users/stapi/OneDrive/Desktop/GD32VW553/V1_MQTT_OK/GD32VW55X_Wifi_BLE_SDK/GD32VW55x_RELEASE_V1.0.2/MSDK/mbedtls/mbedtls-2.17.0-ssl/library\debug.c ****     if( ret >= 0 && ret < DEBUG_BUF_SIZE - 1 )
 100:C:/Users/stapi/OneDrive/Desktop/GD32VW553/V1_MQTT_OK/GD32VW55X_Wifi_BLE_SDK/GD32VW55x_RELEASE_V1.0.2/MSDK/mbedtls/mbedtls-2.17.0-ssl/library\debug.c ****     {
 101:C:/Users/stapi/OneDrive/Desktop/GD32VW553/V1_MQTT_OK/GD32VW55X_Wifi_BLE_SDK/GD32VW55x_RELEASE_V1.0.2/MSDK/mbedtls/mbedtls-2.17.0-ssl/library\debug.c ****         str[ret]     = '\n';
 102:C:/Users/stapi/OneDrive/Desktop/GD32VW553/V1_MQTT_OK/GD32VW55X_Wifi_BLE_SDK/GD32VW55x_RELEASE_V1.0.2/MSDK/mbedtls/mbedtls-2.17.0-ssl/library\debug.c ****         str[ret + 1] = '\0';
 103:C:/Users/stapi/OneDrive/Desktop/GD32VW553/V1_MQTT_OK/GD32VW55X_Wifi_BLE_SDK/GD32VW55x_RELEASE_V1.0.2/MSDK/mbedtls/mbedtls-2.17.0-ssl/library\debug.c ****     }
 104:C:/Users/stapi/OneDrive/Desktop/GD32VW553/V1_MQTT_OK/GD32VW55X_Wifi_BLE_SDK/GD32VW55x_RELEASE_V1.0.2/MSDK/mbedtls/mbedtls-2.17.0-ssl/library\debug.c **** 
 105:C:/Users/stapi/OneDrive/Desktop/GD32VW553/V1_MQTT_OK/GD32VW55X_Wifi_BLE_SDK/GD32VW55x_RELEASE_V1.0.2/MSDK/mbedtls/mbedtls-2.17.0-ssl/library\debug.c ****     debug_send_line( ssl, level, file, line, str );
 106:C:/Users/stapi/OneDrive/Desktop/GD32VW553/V1_MQTT_OK/GD32VW55X_Wifi_BLE_SDK/GD32VW55x_RELEASE_V1.0.2/MSDK/mbedtls/mbedtls-2.17.0-ssl/library\debug.c **** }
 107:C:/Users/stapi/OneDrive/Desktop/GD32VW553/V1_MQTT_OK/GD32VW55X_Wifi_BLE_SDK/GD32VW55x_RELEASE_V1.0.2/MSDK/mbedtls/mbedtls-2.17.0-ssl/library\debug.c **** 
 108:C:/Users/stapi/OneDrive/Desktop/GD32VW553/V1_MQTT_OK/GD32VW55X_Wifi_BLE_SDK/GD32VW55x_RELEASE_V1.0.2/MSDK/mbedtls/mbedtls-2.17.0-ssl/library\debug.c **** void mbedtls_debug_print_ret( const mbedtls_ssl_context *ssl, int level,
 109:C:/Users/stapi/OneDrive/Desktop/GD32VW553/V1_MQTT_OK/GD32VW55X_Wifi_BLE_SDK/GD32VW55x_RELEASE_V1.0.2/MSDK/mbedtls/mbedtls-2.17.0-ssl/library\debug.c ****                       const char *file, int line,
 110:C:/Users/stapi/OneDrive/Desktop/GD32VW553/V1_MQTT_OK/GD32VW55X_Wifi_BLE_SDK/GD32VW55x_RELEASE_V1.0.2/MSDK/mbedtls/mbedtls-2.17.0-ssl/library\debug.c ****                       const char *text, int ret )
 111:C:/Users/stapi/OneDrive/Desktop/GD32VW553/V1_MQTT_OK/GD32VW55X_Wifi_BLE_SDK/GD32VW55x_RELEASE_V1.0.2/MSDK/mbedtls/mbedtls-2.17.0-ssl/library\debug.c **** {
 112:C:/Users/stapi/OneDrive/Desktop/GD32VW553/V1_MQTT_OK/GD32VW55X_Wifi_BLE_SDK/GD32VW55x_RELEASE_V1.0.2/MSDK/mbedtls/mbedtls-2.17.0-ssl/library\debug.c ****     char str[DEBUG_BUF_SIZE];
 113:C:/Users/stapi/OneDrive/Desktop/GD32VW553/V1_MQTT_OK/GD32VW55X_Wifi_BLE_SDK/GD32VW55x_RELEASE_V1.0.2/MSDK/mbedtls/mbedtls-2.17.0-ssl/library\debug.c **** 
 114:C:/Users/stapi/OneDrive/Desktop/GD32VW553/V1_MQTT_OK/GD32VW55X_Wifi_BLE_SDK/GD32VW55x_RELEASE_V1.0.2/MSDK/mbedtls/mbedtls-2.17.0-ssl/library\debug.c ****     if( ssl->conf == NULL || ssl->conf->f_dbg == NULL || level > debug_threshold )
 115:C:/Users/stapi/OneDrive/Desktop/GD32VW553/V1_MQTT_OK/GD32VW55X_Wifi_BLE_SDK/GD32VW55x_RELEASE_V1.0.2/MSDK/mbedtls/mbedtls-2.17.0-ssl/library\debug.c ****         return;
 116:C:/Users/stapi/OneDrive/Desktop/GD32VW553/V1_MQTT_OK/GD32VW55X_Wifi_BLE_SDK/GD32VW55x_RELEASE_V1.0.2/MSDK/mbedtls/mbedtls-2.17.0-ssl/library\debug.c **** 
 117:C:/Users/stapi/OneDrive/Desktop/GD32VW553/V1_MQTT_OK/GD32VW55X_Wifi_BLE_SDK/GD32VW55x_RELEASE_V1.0.2/MSDK/mbedtls/mbedtls-2.17.0-ssl/library\debug.c ****     /*
 118:C:/Users/stapi/OneDrive/Desktop/GD32VW553/V1_MQTT_OK/GD32VW55X_Wifi_BLE_SDK/GD32VW55x_RELEASE_V1.0.2/MSDK/mbedtls/mbedtls-2.17.0-ssl/library\debug.c ****      * With non-blocking I/O and examples that just retry immediately,
 119:C:/Users/stapi/OneDrive/Desktop/GD32VW553/V1_MQTT_OK/GD32VW55X_Wifi_BLE_SDK/GD32VW55x_RELEASE_V1.0.2/MSDK/mbedtls/mbedtls-2.17.0-ssl/library\debug.c ****      * the logs would be quickly flooded with WANT_READ, so ignore that.
 120:C:/Users/stapi/OneDrive/Desktop/GD32VW553/V1_MQTT_OK/GD32VW55X_Wifi_BLE_SDK/GD32VW55x_RELEASE_V1.0.2/MSDK/mbedtls/mbedtls-2.17.0-ssl/library\debug.c ****      * Don't ignore WANT_WRITE however, since is is usually rare.
 121:C:/Users/stapi/OneDrive/Desktop/GD32VW553/V1_MQTT_OK/GD32VW55X_Wifi_BLE_SDK/GD32VW55x_RELEASE_V1.0.2/MSDK/mbedtls/mbedtls-2.17.0-ssl/library\debug.c ****      */
 122:C:/Users/stapi/OneDrive/Desktop/GD32VW553/V1_MQTT_OK/GD32VW55X_Wifi_BLE_SDK/GD32VW55x_RELEASE_V1.0.2/MSDK/mbedtls/mbedtls-2.17.0-ssl/library\debug.c ****     if( ret == MBEDTLS_ERR_SSL_WANT_READ )
 123:C:/Users/stapi/OneDrive/Desktop/GD32VW553/V1_MQTT_OK/GD32VW55X_Wifi_BLE_SDK/GD32VW55x_RELEASE_V1.0.2/MSDK/mbedtls/mbedtls-2.17.0-ssl/library\debug.c ****         return;
 124:C:/Users/stapi/OneDrive/Desktop/GD32VW553/V1_MQTT_OK/GD32VW55X_Wifi_BLE_SDK/GD32VW55x_RELEASE_V1.0.2/MSDK/mbedtls/mbedtls-2.17.0-ssl/library\debug.c **** 
 125:C:/Users/stapi/OneDrive/Desktop/GD32VW553/V1_MQTT_OK/GD32VW55X_Wifi_BLE_SDK/GD32VW55x_RELEASE_V1.0.2/MSDK/mbedtls/mbedtls-2.17.0-ssl/library\debug.c ****     mbedtls_snprintf( str, sizeof( str ), "%s() returned %d (-0x%04x)\r\n",
 126:C:/Users/stapi/OneDrive/Desktop/GD32VW553/V1_MQTT_OK/GD32VW55X_Wifi_BLE_SDK/GD32VW55x_RELEASE_V1.0.2/MSDK/mbedtls/mbedtls-2.17.0-ssl/library\debug.c ****               text, ret, -ret );
 127:C:/Users/stapi/OneDrive/Desktop/GD32VW553/V1_MQTT_OK/GD32VW55X_Wifi_BLE_SDK/GD32VW55x_RELEASE_V1.0.2/MSDK/mbedtls/mbedtls-2.17.0-ssl/library\debug.c **** 
 128:C:/Users/stapi/OneDrive/Desktop/GD32VW553/V1_MQTT_OK/GD32VW55X_Wifi_BLE_SDK/GD32VW55x_RELEASE_V1.0.2/MSDK/mbedtls/mbedtls-2.17.0-ssl/library\debug.c ****     debug_send_line( ssl, level, file, line, str );
 129:C:/Users/stapi/OneDrive/Desktop/GD32VW553/V1_MQTT_OK/GD32VW55X_Wifi_BLE_SDK/GD32VW55x_RELEASE_V1.0.2/MSDK/mbedtls/mbedtls-2.17.0-ssl/library\debug.c **** }
 130:C:/Users/stapi/OneDrive/Desktop/GD32VW553/V1_MQTT_OK/GD32VW55X_Wifi_BLE_SDK/GD32VW55x_RELEASE_V1.0.2/MSDK/mbedtls/mbedtls-2.17.0-ssl/library\debug.c **** 
 131:C:/Users/stapi/OneDrive/Desktop/GD32VW553/V1_MQTT_OK/GD32VW55X_Wifi_BLE_SDK/GD32VW55x_RELEASE_V1.0.2/MSDK/mbedtls/mbedtls-2.17.0-ssl/library\debug.c **** void mbedtls_debug_print_buf( const mbedtls_ssl_context *ssl, int level,
 132:C:/Users/stapi/OneDrive/Desktop/GD32VW553/V1_MQTT_OK/GD32VW55X_Wifi_BLE_SDK/GD32VW55x_RELEASE_V1.0.2/MSDK/mbedtls/mbedtls-2.17.0-ssl/library\debug.c ****                       const char *file, int line, const char *text,
 133:C:/Users/stapi/OneDrive/Desktop/GD32VW553/V1_MQTT_OK/GD32VW55X_Wifi_BLE_SDK/GD32VW55x_RELEASE_V1.0.2/MSDK/mbedtls/mbedtls-2.17.0-ssl/library\debug.c ****                       const unsigned char *buf, size_t len )
 134:C:/Users/stapi/OneDrive/Desktop/GD32VW553/V1_MQTT_OK/GD32VW55X_Wifi_BLE_SDK/GD32VW55x_RELEASE_V1.0.2/MSDK/mbedtls/mbedtls-2.17.0-ssl/library\debug.c **** {
 135:C:/Users/stapi/OneDrive/Desktop/GD32VW553/V1_MQTT_OK/GD32VW55X_Wifi_BLE_SDK/GD32VW55x_RELEASE_V1.0.2/MSDK/mbedtls/mbedtls-2.17.0-ssl/library\debug.c ****     char str[DEBUG_BUF_SIZE];
 136:C:/Users/stapi/OneDrive/Desktop/GD32VW553/V1_MQTT_OK/GD32VW55X_Wifi_BLE_SDK/GD32VW55x_RELEASE_V1.0.2/MSDK/mbedtls/mbedtls-2.17.0-ssl/library\debug.c ****     char txt[17];
 137:C:/Users/stapi/OneDrive/Desktop/GD32VW553/V1_MQTT_OK/GD32VW55X_Wifi_BLE_SDK/GD32VW55x_RELEASE_V1.0.2/MSDK/mbedtls/mbedtls-2.17.0-ssl/library\debug.c ****     size_t i, idx = 0;
 138:C:/Users/stapi/OneDrive/Desktop/GD32VW553/V1_MQTT_OK/GD32VW55X_Wifi_BLE_SDK/GD32VW55x_RELEASE_V1.0.2/MSDK/mbedtls/mbedtls-2.17.0-ssl/library\debug.c **** 
 139:C:/Users/stapi/OneDrive/Desktop/GD32VW553/V1_MQTT_OK/GD32VW55X_Wifi_BLE_SDK/GD32VW55x_RELEASE_V1.0.2/MSDK/mbedtls/mbedtls-2.17.0-ssl/library\debug.c ****     if( ssl->conf == NULL || ssl->conf->f_dbg == NULL || level > debug_threshold )
 140:C:/Users/stapi/OneDrive/Desktop/GD32VW553/V1_MQTT_OK/GD32VW55X_Wifi_BLE_SDK/GD32VW55x_RELEASE_V1.0.2/MSDK/mbedtls/mbedtls-2.17.0-ssl/library\debug.c ****         return;
 141:C:/Users/stapi/OneDrive/Desktop/GD32VW553/V1_MQTT_OK/GD32VW55X_Wifi_BLE_SDK/GD32VW55x_RELEASE_V1.0.2/MSDK/mbedtls/mbedtls-2.17.0-ssl/library\debug.c **** 
 142:C:/Users/stapi/OneDrive/Desktop/GD32VW553/V1_MQTT_OK/GD32VW55X_Wifi_BLE_SDK/GD32VW55x_RELEASE_V1.0.2/MSDK/mbedtls/mbedtls-2.17.0-ssl/library\debug.c ****     mbedtls_snprintf( str + idx, sizeof( str ) - idx, "dumping '%s' (%u bytes)\r\n",
 143:C:/Users/stapi/OneDrive/Desktop/GD32VW553/V1_MQTT_OK/GD32VW55X_Wifi_BLE_SDK/GD32VW55x_RELEASE_V1.0.2/MSDK/mbedtls/mbedtls-2.17.0-ssl/library\debug.c ****               text, (unsigned int) len );
 144:C:/Users/stapi/OneDrive/Desktop/GD32VW553/V1_MQTT_OK/GD32VW55X_Wifi_BLE_SDK/GD32VW55x_RELEASE_V1.0.2/MSDK/mbedtls/mbedtls-2.17.0-ssl/library\debug.c **** 
 145:C:/Users/stapi/OneDrive/Desktop/GD32VW553/V1_MQTT_OK/GD32VW55X_Wifi_BLE_SDK/GD32VW55x_RELEASE_V1.0.2/MSDK/mbedtls/mbedtls-2.17.0-ssl/library\debug.c ****     debug_send_line( ssl, level, file, line, str );
 146:C:/Users/stapi/OneDrive/Desktop/GD32VW553/V1_MQTT_OK/GD32VW55X_Wifi_BLE_SDK/GD32VW55x_RELEASE_V1.0.2/MSDK/mbedtls/mbedtls-2.17.0-ssl/library\debug.c **** 
 147:C:/Users/stapi/OneDrive/Desktop/GD32VW553/V1_MQTT_OK/GD32VW55X_Wifi_BLE_SDK/GD32VW55x_RELEASE_V1.0.2/MSDK/mbedtls/mbedtls-2.17.0-ssl/library\debug.c ****     idx = 0;
 148:C:/Users/stapi/OneDrive/Desktop/GD32VW553/V1_MQTT_OK/GD32VW55X_Wifi_BLE_SDK/GD32VW55x_RELEASE_V1.0.2/MSDK/mbedtls/mbedtls-2.17.0-ssl/library\debug.c ****     memset( txt, 0, sizeof( txt ) );
 149:C:/Users/stapi/OneDrive/Desktop/GD32VW553/V1_MQTT_OK/GD32VW55X_Wifi_BLE_SDK/GD32VW55x_RELEASE_V1.0.2/MSDK/mbedtls/mbedtls-2.17.0-ssl/library\debug.c ****     for( i = 0; i < len; i++ )
 150:C:/Users/stapi/OneDrive/Desktop/GD32VW553/V1_MQTT_OK/GD32VW55X_Wifi_BLE_SDK/GD32VW55x_RELEASE_V1.0.2/MSDK/mbedtls/mbedtls-2.17.0-ssl/library\debug.c ****     {
 151:C:/Users/stapi/OneDrive/Desktop/GD32VW553/V1_MQTT_OK/GD32VW55X_Wifi_BLE_SDK/GD32VW55x_RELEASE_V1.0.2/MSDK/mbedtls/mbedtls-2.17.0-ssl/library\debug.c ****         if( i >= 4096 )
 152:C:/Users/stapi/OneDrive/Desktop/GD32VW553/V1_MQTT_OK/GD32VW55X_Wifi_BLE_SDK/GD32VW55x_RELEASE_V1.0.2/MSDK/mbedtls/mbedtls-2.17.0-ssl/library\debug.c ****             break;
 153:C:/Users/stapi/OneDrive/Desktop/GD32VW553/V1_MQTT_OK/GD32VW55X_Wifi_BLE_SDK/GD32VW55x_RELEASE_V1.0.2/MSDK/mbedtls/mbedtls-2.17.0-ssl/library\debug.c **** 
 154:C:/Users/stapi/OneDrive/Desktop/GD32VW553/V1_MQTT_OK/GD32VW55X_Wifi_BLE_SDK/GD32VW55x_RELEASE_V1.0.2/MSDK/mbedtls/mbedtls-2.17.0-ssl/library\debug.c ****         if( i % 16 == 0 )
 155:C:/Users/stapi/OneDrive/Desktop/GD32VW553/V1_MQTT_OK/GD32VW55X_Wifi_BLE_SDK/GD32VW55x_RELEASE_V1.0.2/MSDK/mbedtls/mbedtls-2.17.0-ssl/library\debug.c ****         {
 156:C:/Users/stapi/OneDrive/Desktop/GD32VW553/V1_MQTT_OK/GD32VW55X_Wifi_BLE_SDK/GD32VW55x_RELEASE_V1.0.2/MSDK/mbedtls/mbedtls-2.17.0-ssl/library\debug.c ****             if( i > 0 )
 157:C:/Users/stapi/OneDrive/Desktop/GD32VW553/V1_MQTT_OK/GD32VW55X_Wifi_BLE_SDK/GD32VW55x_RELEASE_V1.0.2/MSDK/mbedtls/mbedtls-2.17.0-ssl/library\debug.c ****             {
 158:C:/Users/stapi/OneDrive/Desktop/GD32VW553/V1_MQTT_OK/GD32VW55X_Wifi_BLE_SDK/GD32VW55x_RELEASE_V1.0.2/MSDK/mbedtls/mbedtls-2.17.0-ssl/library\debug.c ****                 mbedtls_snprintf( str + idx, sizeof( str ) - idx, "  %s\r\n", txt );
 159:C:/Users/stapi/OneDrive/Desktop/GD32VW553/V1_MQTT_OK/GD32VW55X_Wifi_BLE_SDK/GD32VW55x_RELEASE_V1.0.2/MSDK/mbedtls/mbedtls-2.17.0-ssl/library\debug.c ****                 debug_send_line( ssl, level, file, line, str );
 160:C:/Users/stapi/OneDrive/Desktop/GD32VW553/V1_MQTT_OK/GD32VW55X_Wifi_BLE_SDK/GD32VW55x_RELEASE_V1.0.2/MSDK/mbedtls/mbedtls-2.17.0-ssl/library\debug.c **** 
 161:C:/Users/stapi/OneDrive/Desktop/GD32VW553/V1_MQTT_OK/GD32VW55X_Wifi_BLE_SDK/GD32VW55x_RELEASE_V1.0.2/MSDK/mbedtls/mbedtls-2.17.0-ssl/library\debug.c ****                 idx = 0;
 162:C:/Users/stapi/OneDrive/Desktop/GD32VW553/V1_MQTT_OK/GD32VW55X_Wifi_BLE_SDK/GD32VW55x_RELEASE_V1.0.2/MSDK/mbedtls/mbedtls-2.17.0-ssl/library\debug.c ****                 memset( txt, 0, sizeof( txt ) );
 163:C:/Users/stapi/OneDrive/Desktop/GD32VW553/V1_MQTT_OK/GD32VW55X_Wifi_BLE_SDK/GD32VW55x_RELEASE_V1.0.2/MSDK/mbedtls/mbedtls-2.17.0-ssl/library\debug.c ****             }
 164:C:/Users/stapi/OneDrive/Desktop/GD32VW553/V1_MQTT_OK/GD32VW55X_Wifi_BLE_SDK/GD32VW55x_RELEASE_V1.0.2/MSDK/mbedtls/mbedtls-2.17.0-ssl/library\debug.c **** 
 165:C:/Users/stapi/OneDrive/Desktop/GD32VW553/V1_MQTT_OK/GD32VW55X_Wifi_BLE_SDK/GD32VW55x_RELEASE_V1.0.2/MSDK/mbedtls/mbedtls-2.17.0-ssl/library\debug.c ****             idx += mbedtls_snprintf( str + idx, sizeof( str ) - idx, "%04x: ",
 166:C:/Users/stapi/OneDrive/Desktop/GD32VW553/V1_MQTT_OK/GD32VW55X_Wifi_BLE_SDK/GD32VW55x_RELEASE_V1.0.2/MSDK/mbedtls/mbedtls-2.17.0-ssl/library\debug.c ****                              (unsigned int) i );
 167:C:/Users/stapi/OneDrive/Desktop/GD32VW553/V1_MQTT_OK/GD32VW55X_Wifi_BLE_SDK/GD32VW55x_RELEASE_V1.0.2/MSDK/mbedtls/mbedtls-2.17.0-ssl/library\debug.c **** 
 168:C:/Users/stapi/OneDrive/Desktop/GD32VW553/V1_MQTT_OK/GD32VW55X_Wifi_BLE_SDK/GD32VW55x_RELEASE_V1.0.2/MSDK/mbedtls/mbedtls-2.17.0-ssl/library\debug.c ****         }
 169:C:/Users/stapi/OneDrive/Desktop/GD32VW553/V1_MQTT_OK/GD32VW55X_Wifi_BLE_SDK/GD32VW55x_RELEASE_V1.0.2/MSDK/mbedtls/mbedtls-2.17.0-ssl/library\debug.c **** 
 170:C:/Users/stapi/OneDrive/Desktop/GD32VW553/V1_MQTT_OK/GD32VW55X_Wifi_BLE_SDK/GD32VW55x_RELEASE_V1.0.2/MSDK/mbedtls/mbedtls-2.17.0-ssl/library\debug.c ****         idx += mbedtls_snprintf( str + idx, sizeof( str ) - idx, " %02x",
 171:C:/Users/stapi/OneDrive/Desktop/GD32VW553/V1_MQTT_OK/GD32VW55X_Wifi_BLE_SDK/GD32VW55x_RELEASE_V1.0.2/MSDK/mbedtls/mbedtls-2.17.0-ssl/library\debug.c ****                          (unsigned int) buf[i] );
 172:C:/Users/stapi/OneDrive/Desktop/GD32VW553/V1_MQTT_OK/GD32VW55X_Wifi_BLE_SDK/GD32VW55x_RELEASE_V1.0.2/MSDK/mbedtls/mbedtls-2.17.0-ssl/library\debug.c ****         txt[i % 16] = ( buf[i] > 31 && buf[i] < 127 ) ? buf[i] : '.' ;
 173:C:/Users/stapi/OneDrive/Desktop/GD32VW553/V1_MQTT_OK/GD32VW55X_Wifi_BLE_SDK/GD32VW55x_RELEASE_V1.0.2/MSDK/mbedtls/mbedtls-2.17.0-ssl/library\debug.c ****     }
 174:C:/Users/stapi/OneDrive/Desktop/GD32VW553/V1_MQTT_OK/GD32VW55X_Wifi_BLE_SDK/GD32VW55x_RELEASE_V1.0.2/MSDK/mbedtls/mbedtls-2.17.0-ssl/library\debug.c **** 
 175:C:/Users/stapi/OneDrive/Desktop/GD32VW553/V1_MQTT_OK/GD32VW55X_Wifi_BLE_SDK/GD32VW55x_RELEASE_V1.0.2/MSDK/mbedtls/mbedtls-2.17.0-ssl/library\debug.c ****     if( len > 0 )
 176:C:/Users/stapi/OneDrive/Desktop/GD32VW553/V1_MQTT_OK/GD32VW55X_Wifi_BLE_SDK/GD32VW55x_RELEASE_V1.0.2/MSDK/mbedtls/mbedtls-2.17.0-ssl/library\debug.c ****     {
 177:C:/Users/stapi/OneDrive/Desktop/GD32VW553/V1_MQTT_OK/GD32VW55X_Wifi_BLE_SDK/GD32VW55x_RELEASE_V1.0.2/MSDK/mbedtls/mbedtls-2.17.0-ssl/library\debug.c ****         for( /* i = i */; i % 16 != 0; i++ )
 178:C:/Users/stapi/OneDrive/Desktop/GD32VW553/V1_MQTT_OK/GD32VW55X_Wifi_BLE_SDK/GD32VW55x_RELEASE_V1.0.2/MSDK/mbedtls/mbedtls-2.17.0-ssl/library\debug.c ****             idx += mbedtls_snprintf( str + idx, sizeof( str ) - idx, "   " );
 179:C:/Users/stapi/OneDrive/Desktop/GD32VW553/V1_MQTT_OK/GD32VW55X_Wifi_BLE_SDK/GD32VW55x_RELEASE_V1.0.2/MSDK/mbedtls/mbedtls-2.17.0-ssl/library\debug.c **** 
 180:C:/Users/stapi/OneDrive/Desktop/GD32VW553/V1_MQTT_OK/GD32VW55X_Wifi_BLE_SDK/GD32VW55x_RELEASE_V1.0.2/MSDK/mbedtls/mbedtls-2.17.0-ssl/library\debug.c ****         mbedtls_snprintf( str + idx, sizeof( str ) - idx, "  %s\r\n", txt );
 181:C:/Users/stapi/OneDrive/Desktop/GD32VW553/V1_MQTT_OK/GD32VW55X_Wifi_BLE_SDK/GD32VW55x_RELEASE_V1.0.2/MSDK/mbedtls/mbedtls-2.17.0-ssl/library\debug.c ****         debug_send_line( ssl, level, file, line, str );
 182:C:/Users/stapi/OneDrive/Desktop/GD32VW553/V1_MQTT_OK/GD32VW55X_Wifi_BLE_SDK/GD32VW55x_RELEASE_V1.0.2/MSDK/mbedtls/mbedtls-2.17.0-ssl/library\debug.c ****     }
 183:C:/Users/stapi/OneDrive/Desktop/GD32VW553/V1_MQTT_OK/GD32VW55X_Wifi_BLE_SDK/GD32VW55x_RELEASE_V1.0.2/MSDK/mbedtls/mbedtls-2.17.0-ssl/library\debug.c **** }
 184:C:/Users/stapi/OneDrive/Desktop/GD32VW553/V1_MQTT_OK/GD32VW55X_Wifi_BLE_SDK/GD32VW55x_RELEASE_V1.0.2/MSDK/mbedtls/mbedtls-2.17.0-ssl/library\debug.c **** 
 185:C:/Users/stapi/OneDrive/Desktop/GD32VW553/V1_MQTT_OK/GD32VW55X_Wifi_BLE_SDK/GD32VW55x_RELEASE_V1.0.2/MSDK/mbedtls/mbedtls-2.17.0-ssl/library\debug.c **** #if defined(MBEDTLS_ECP_C)
 186:C:/Users/stapi/OneDrive/Desktop/GD32VW553/V1_MQTT_OK/GD32VW55X_Wifi_BLE_SDK/GD32VW55x_RELEASE_V1.0.2/MSDK/mbedtls/mbedtls-2.17.0-ssl/library\debug.c **** void mbedtls_debug_print_ecp( const mbedtls_ssl_context *ssl, int level,
 187:C:/Users/stapi/OneDrive/Desktop/GD32VW553/V1_MQTT_OK/GD32VW55X_Wifi_BLE_SDK/GD32VW55x_RELEASE_V1.0.2/MSDK/mbedtls/mbedtls-2.17.0-ssl/library\debug.c ****                       const char *file, int line,
 188:C:/Users/stapi/OneDrive/Desktop/GD32VW553/V1_MQTT_OK/GD32VW55X_Wifi_BLE_SDK/GD32VW55x_RELEASE_V1.0.2/MSDK/mbedtls/mbedtls-2.17.0-ssl/library\debug.c ****                       const char *text, const mbedtls_ecp_point *X )
 189:C:/Users/stapi/OneDrive/Desktop/GD32VW553/V1_MQTT_OK/GD32VW55X_Wifi_BLE_SDK/GD32VW55x_RELEASE_V1.0.2/MSDK/mbedtls/mbedtls-2.17.0-ssl/library\debug.c **** {
 190:C:/Users/stapi/OneDrive/Desktop/GD32VW553/V1_MQTT_OK/GD32VW55X_Wifi_BLE_SDK/GD32VW55x_RELEASE_V1.0.2/MSDK/mbedtls/mbedtls-2.17.0-ssl/library\debug.c ****     char str[DEBUG_BUF_SIZE];
 191:C:/Users/stapi/OneDrive/Desktop/GD32VW553/V1_MQTT_OK/GD32VW55X_Wifi_BLE_SDK/GD32VW55x_RELEASE_V1.0.2/MSDK/mbedtls/mbedtls-2.17.0-ssl/library\debug.c **** 
 192:C:/Users/stapi/OneDrive/Desktop/GD32VW553/V1_MQTT_OK/GD32VW55X_Wifi_BLE_SDK/GD32VW55x_RELEASE_V1.0.2/MSDK/mbedtls/mbedtls-2.17.0-ssl/library\debug.c ****     if( ssl->conf == NULL || ssl->conf->f_dbg == NULL || level > debug_threshold )
 193:C:/Users/stapi/OneDrive/Desktop/GD32VW553/V1_MQTT_OK/GD32VW55X_Wifi_BLE_SDK/GD32VW55x_RELEASE_V1.0.2/MSDK/mbedtls/mbedtls-2.17.0-ssl/library\debug.c ****         return;
 194:C:/Users/stapi/OneDrive/Desktop/GD32VW553/V1_MQTT_OK/GD32VW55X_Wifi_BLE_SDK/GD32VW55x_RELEASE_V1.0.2/MSDK/mbedtls/mbedtls-2.17.0-ssl/library\debug.c **** 
 195:C:/Users/stapi/OneDrive/Desktop/GD32VW553/V1_MQTT_OK/GD32VW55X_Wifi_BLE_SDK/GD32VW55x_RELEASE_V1.0.2/MSDK/mbedtls/mbedtls-2.17.0-ssl/library\debug.c ****     mbedtls_snprintf( str, sizeof( str ), "%s(X)", text );
 196:C:/Users/stapi/OneDrive/Desktop/GD32VW553/V1_MQTT_OK/GD32VW55X_Wifi_BLE_SDK/GD32VW55x_RELEASE_V1.0.2/MSDK/mbedtls/mbedtls-2.17.0-ssl/library\debug.c ****     mbedtls_debug_print_mpi( ssl, level, file, line, str, &X->X );
 197:C:/Users/stapi/OneDrive/Desktop/GD32VW553/V1_MQTT_OK/GD32VW55X_Wifi_BLE_SDK/GD32VW55x_RELEASE_V1.0.2/MSDK/mbedtls/mbedtls-2.17.0-ssl/library\debug.c **** 
 198:C:/Users/stapi/OneDrive/Desktop/GD32VW553/V1_MQTT_OK/GD32VW55X_Wifi_BLE_SDK/GD32VW55x_RELEASE_V1.0.2/MSDK/mbedtls/mbedtls-2.17.0-ssl/library\debug.c ****     mbedtls_snprintf( str, sizeof( str ), "%s(Y)", text );
 199:C:/Users/stapi/OneDrive/Desktop/GD32VW553/V1_MQTT_OK/GD32VW55X_Wifi_BLE_SDK/GD32VW55x_RELEASE_V1.0.2/MSDK/mbedtls/mbedtls-2.17.0-ssl/library\debug.c ****     mbedtls_debug_print_mpi( ssl, level, file, line, str, &X->Y );
 200:C:/Users/stapi/OneDrive/Desktop/GD32VW553/V1_MQTT_OK/GD32VW55X_Wifi_BLE_SDK/GD32VW55x_RELEASE_V1.0.2/MSDK/mbedtls/mbedtls-2.17.0-ssl/library\debug.c **** }
 201:C:/Users/stapi/OneDrive/Desktop/GD32VW553/V1_MQTT_OK/GD32VW55X_Wifi_BLE_SDK/GD32VW55x_RELEASE_V1.0.2/MSDK/mbedtls/mbedtls-2.17.0-ssl/library\debug.c **** #endif /* MBEDTLS_ECP_C */
 202:C:/Users/stapi/OneDrive/Desktop/GD32VW553/V1_MQTT_OK/GD32VW55X_Wifi_BLE_SDK/GD32VW55x_RELEASE_V1.0.2/MSDK/mbedtls/mbedtls-2.17.0-ssl/library\debug.c **** 
 203:C:/Users/stapi/OneDrive/Desktop/GD32VW553/V1_MQTT_OK/GD32VW55X_Wifi_BLE_SDK/GD32VW55x_RELEASE_V1.0.2/MSDK/mbedtls/mbedtls-2.17.0-ssl/library\debug.c **** #if defined(MBEDTLS_BIGNUM_C)
 204:C:/Users/stapi/OneDrive/Desktop/GD32VW553/V1_MQTT_OK/GD32VW55X_Wifi_BLE_SDK/GD32VW55x_RELEASE_V1.0.2/MSDK/mbedtls/mbedtls-2.17.0-ssl/library\debug.c **** void mbedtls_debug_print_mpi( const mbedtls_ssl_context *ssl, int level,
  48              		.loc 1 204 6 is_stmt 1
  49              		.cfi_startproc
  50              	.LVL3:
  51 0000 17030000 		call	t0,__riscv_save_12
  51      E7020300 
  52              		.cfi_offset 27, -52
  53              		.cfi_offset 26, -48
  54              		.cfi_offset 25, -44
  55              		.cfi_offset 24, -40
  56              		.cfi_offset 23, -36
  57              		.cfi_offset 22, -32
  58              		.cfi_offset 21, -28
  59              		.cfi_offset 20, -24
  60              		.cfi_offset 19, -20
  61              		.cfi_offset 18, -16
  62              		.cfi_offset 9, -12
  63              		.cfi_offset 8, -8
  64              		.cfi_offset 1, -4
  65              		.cfi_def_cfa_offset 64
 205:C:/Users/stapi/OneDrive/Desktop/GD32VW553/V1_MQTT_OK/GD32VW55X_Wifi_BLE_SDK/GD32VW55x_RELEASE_V1.0.2/MSDK/mbedtls/mbedtls-2.17.0-ssl/library\debug.c ****                       const char *file, int line,
 206:C:/Users/stapi/OneDrive/Desktop/GD32VW553/V1_MQTT_OK/GD32VW55X_Wifi_BLE_SDK/GD32VW55x_RELEASE_V1.0.2/MSDK/mbedtls/mbedtls-2.17.0-ssl/library\debug.c ****                       const char *text, const mbedtls_mpi *X )
 207:C:/Users/stapi/OneDrive/Desktop/GD32VW553/V1_MQTT_OK/GD32VW55X_Wifi_BLE_SDK/GD32VW55x_RELEASE_V1.0.2/MSDK/mbedtls/mbedtls-2.17.0-ssl/library\debug.c **** {
 208:C:/Users/stapi/OneDrive/Desktop/GD32VW553/V1_MQTT_OK/GD32VW55X_Wifi_BLE_SDK/GD32VW55x_RELEASE_V1.0.2/MSDK/mbedtls/mbedtls-2.17.0-ssl/library\debug.c ****     char str[DEBUG_BUF_SIZE];
 209:C:/Users/stapi/OneDrive/Desktop/GD32VW553/V1_MQTT_OK/GD32VW55X_Wifi_BLE_SDK/GD32VW55x_RELEASE_V1.0.2/MSDK/mbedtls/mbedtls-2.17.0-ssl/library\debug.c ****     int j, k, zeros = 1;
 210:C:/Users/stapi/OneDrive/Desktop/GD32VW553/V1_MQTT_OK/GD32VW55X_Wifi_BLE_SDK/GD32VW55x_RELEASE_V1.0.2/MSDK/mbedtls/mbedtls-2.17.0-ssl/library\debug.c ****     size_t i, n, idx = 0;
 211:C:/Users/stapi/OneDrive/Desktop/GD32VW553/V1_MQTT_OK/GD32VW55X_Wifi_BLE_SDK/GD32VW55x_RELEASE_V1.0.2/MSDK/mbedtls/mbedtls-2.17.0-ssl/library\debug.c **** 
 212:C:/Users/stapi/OneDrive/Desktop/GD32VW553/V1_MQTT_OK/GD32VW55X_Wifi_BLE_SDK/GD32VW55x_RELEASE_V1.0.2/MSDK/mbedtls/mbedtls-2.17.0-ssl/library\debug.c ****     if( ssl->conf == NULL || ssl->conf->f_dbg == NULL || X == NULL || level > debug_threshold )
 213:C:/Users/stapi/OneDrive/Desktop/GD32VW553/V1_MQTT_OK/GD32VW55X_Wifi_BLE_SDK/GD32VW55x_RELEASE_V1.0.2/MSDK/mbedtls/mbedtls-2.17.0-ssl/library\debug.c ****         return;
 214:C:/Users/stapi/OneDrive/Desktop/GD32VW553/V1_MQTT_OK/GD32VW55X_Wifi_BLE_SDK/GD32VW55x_RELEASE_V1.0.2/MSDK/mbedtls/mbedtls-2.17.0-ssl/library\debug.c **** 
 215:C:/Users/stapi/OneDrive/Desktop/GD32VW553/V1_MQTT_OK/GD32VW55X_Wifi_BLE_SDK/GD32VW55x_RELEASE_V1.0.2/MSDK/mbedtls/mbedtls-2.17.0-ssl/library\debug.c ****     for( n = X->n - 1; n > 0; n-- )
  66              		.loc 1 215 5
  67              		.loc 1 215 12 is_stmt 0
  68 0008 C443     		lw	s1,4(a5)
 204:C:/Users/stapi/OneDrive/Desktop/GD32VW553/V1_MQTT_OK/GD32VW55X_Wifi_BLE_SDK/GD32VW55x_RELEASE_V1.0.2/MSDK/mbedtls/mbedtls-2.17.0-ssl/library\debug.c ****                       const char *file, int line,
  69              		.loc 1 204 6
  70 000a 3E89     		mv	s2,a5
 216:C:/Users/stapi/OneDrive/Desktop/GD32VW553/V1_MQTT_OK/GD32VW55X_Wifi_BLE_SDK/GD32VW55x_RELEASE_V1.0.2/MSDK/mbedtls/mbedtls-2.17.0-ssl/library\debug.c ****         if( X->p[n] != 0 )
  71              		.loc 1 216 14
  72 000c 9C47     		lw	a5,8(a5)
  73              	.LVL4:
 204:C:/Users/stapi/OneDrive/Desktop/GD32VW553/V1_MQTT_OK/GD32VW55X_Wifi_BLE_SDK/GD32VW55x_RELEASE_V1.0.2/MSDK/mbedtls/mbedtls-2.17.0-ssl/library\debug.c ****                       const char *file, int line,
  74              		.loc 1 204 6
  75 000e 368B     		mv	s6,a3
  76 0010 0171     		addi	sp,sp,-512
  77              		.cfi_def_cfa_offset 576
 204:C:/Users/stapi/OneDrive/Desktop/GD32VW553/V1_MQTT_OK/GD32VW55X_Wifi_BLE_SDK/GD32VW55x_RELEASE_V1.0.2/MSDK/mbedtls/mbedtls-2.17.0-ssl/library\debug.c ****                       const char *file, int line,
  78              		.loc 1 204 6
  79 0012 AA89     		mv	s3,a0
  80 0014 2E8A     		mv	s4,a1
  81 0016 B28A     		mv	s5,a2
  82 0018 BA86     		mv	a3,a4
  83              	.LVL5:
 215:C:/Users/stapi/OneDrive/Desktop/GD32VW553/V1_MQTT_OK/GD32VW55X_Wifi_BLE_SDK/GD32VW55x_RELEASE_V1.0.2/MSDK/mbedtls/mbedtls-2.17.0-ssl/library\debug.c ****         if( X->p[n] != 0 )
  84              		.loc 1 215 12
  85 001a FD14     		addi	s1,s1,-1
  86              	.LVL6:
  87              	.L4:
 215:C:/Users/stapi/OneDrive/Desktop/GD32VW553/V1_MQTT_OK/GD32VW55X_Wifi_BLE_SDK/GD32VW55x_RELEASE_V1.0.2/MSDK/mbedtls/mbedtls-2.17.0-ssl/library\debug.c ****         if( X->p[n] != 0 )
  88              		.loc 1 215 24 is_stmt 1
  89 001c 13972400 		slli	a4,s1,2
 215:C:/Users/stapi/OneDrive/Desktop/GD32VW553/V1_MQTT_OK/GD32VW55X_Wifi_BLE_SDK/GD32VW55x_RELEASE_V1.0.2/MSDK/mbedtls/mbedtls-2.17.0-ssl/library\debug.c ****         if( X->p[n] != 0 )
  90              		.loc 1 215 5 is_stmt 0
  91 0020 D5E4     		bne	s1,zero,.L6
  92              	.L5:
  93              	.LVL7:
 217:C:/Users/stapi/OneDrive/Desktop/GD32VW553/V1_MQTT_OK/GD32VW55X_Wifi_BLE_SDK/GD32VW55x_RELEASE_V1.0.2/MSDK/mbedtls/mbedtls-2.17.0-ssl/library\debug.c ****             break;
 218:C:/Users/stapi/OneDrive/Desktop/GD32VW553/V1_MQTT_OK/GD32VW55X_Wifi_BLE_SDK/GD32VW55x_RELEASE_V1.0.2/MSDK/mbedtls/mbedtls-2.17.0-ssl/library\debug.c **** 
 219:C:/Users/stapi/OneDrive/Desktop/GD32VW553/V1_MQTT_OK/GD32VW55X_Wifi_BLE_SDK/GD32VW55x_RELEASE_V1.0.2/MSDK/mbedtls/mbedtls-2.17.0-ssl/library\debug.c ****     for( j = ( sizeof(mbedtls_mpi_uint) << 3 ) - 1; j >= 0; j-- )
  94              		.loc 1 219 53 is_stmt 1
 220:C:/Users/stapi/OneDrive/Desktop/GD32VW553/V1_MQTT_OK/GD32VW55X_Wifi_BLE_SDK/GD32VW55x_RELEASE_V1.0.2/MSDK/mbedtls/mbedtls-2.17.0-ssl/library\debug.c ****         if( ( ( X->p[n] >> j ) & 1 ) != 0 )
  95              		.loc 1 220 21 is_stmt 0
  96 0022 BA97     		add	a5,a5,a4
  97 0024 9043     		lw	a2,0(a5)
 219:C:/Users/stapi/OneDrive/Desktop/GD32VW553/V1_MQTT_OK/GD32VW55X_Wifi_BLE_SDK/GD32VW55x_RELEASE_V1.0.2/MSDK/mbedtls/mbedtls-2.17.0-ssl/library\debug.c ****         if( ( ( X->p[n] >> j ) & 1 ) != 0 )
  98              		.loc 1 219 5
  99 0026 7D57     		li	a4,-1
 100              		.loc 1 220 21
 101 0028 FD47     		li	a5,31
 102              	.LVL8:
 103              	.L8:
 104              		.loc 1 220 9 is_stmt 1
 105              		.loc 1 220 32 is_stmt 0
 106 002a B355F648 		bext	a1,a2,a5
 107              		.loc 1 220 11
 108 002e 81E5     		bne	a1,zero,.L7
 219:C:/Users/stapi/OneDrive/Desktop/GD32VW553/V1_MQTT_OK/GD32VW55X_Wifi_BLE_SDK/GD32VW55x_RELEASE_V1.0.2/MSDK/mbedtls/mbedtls-2.17.0-ssl/library\debug.c ****         if( ( ( X->p[n] >> j ) & 1 ) != 0 )
 109              		.loc 1 219 61 is_stmt 1
 219:C:/Users/stapi/OneDrive/Desktop/GD32VW553/V1_MQTT_OK/GD32VW55X_Wifi_BLE_SDK/GD32VW55x_RELEASE_V1.0.2/MSDK/mbedtls/mbedtls-2.17.0-ssl/library\debug.c ****         if( ( ( X->p[n] >> j ) & 1 ) != 0 )
 110              		.loc 1 219 62 is_stmt 0
 111 0030 FD17     		addi	a5,a5,-1
 112              	.LVL9:
 219:C:/Users/stapi/OneDrive/Desktop/GD32VW553/V1_MQTT_OK/GD32VW55X_Wifi_BLE_SDK/GD32VW55x_RELEASE_V1.0.2/MSDK/mbedtls/mbedtls-2.17.0-ssl/library\debug.c ****         if( ( ( X->p[n] >> j ) & 1 ) != 0 )
 113              		.loc 1 219 53 is_stmt 1
 219:C:/Users/stapi/OneDrive/Desktop/GD32VW553/V1_MQTT_OK/GD32VW55X_Wifi_BLE_SDK/GD32VW55x_RELEASE_V1.0.2/MSDK/mbedtls/mbedtls-2.17.0-ssl/library\debug.c ****         if( ( ( X->p[n] >> j ) & 1 ) != 0 )
 114              		.loc 1 219 5 is_stmt 0
 115 0032 E39CE7FE 		bne	a5,a4,.L8
 116              	.L7:
 221:C:/Users/stapi/OneDrive/Desktop/GD32VW553/V1_MQTT_OK/GD32VW55X_Wifi_BLE_SDK/GD32VW55x_RELEASE_V1.0.2/MSDK/mbedtls/mbedtls-2.17.0-ssl/library\debug.c ****             break;
 222:C:/Users/stapi/OneDrive/Desktop/GD32VW553/V1_MQTT_OK/GD32VW55X_Wifi_BLE_SDK/GD32VW55x_RELEASE_V1.0.2/MSDK/mbedtls/mbedtls-2.17.0-ssl/library\debug.c **** 
 223:C:/Users/stapi/OneDrive/Desktop/GD32VW553/V1_MQTT_OK/GD32VW55X_Wifi_BLE_SDK/GD32VW55x_RELEASE_V1.0.2/MSDK/mbedtls/mbedtls-2.17.0-ssl/library\debug.c ****     mbedtls_snprintf( str + idx, sizeof( str ) - idx, "value of '%s' (%d bits) is:\r\n",
 117              		.loc 1 223 5 is_stmt 1
 224:C:/Users/stapi/OneDrive/Desktop/GD32VW553/V1_MQTT_OK/GD32VW55X_Wifi_BLE_SDK/GD32VW55x_RELEASE_V1.0.2/MSDK/mbedtls/mbedtls-2.17.0-ssl/library\debug.c ****               text, (int) ( ( n * ( sizeof(mbedtls_mpi_uint) << 3 ) ) + j + 1 ) );
 118              		.loc 1 224 33 is_stmt 0
 119 0036 13975400 		slli	a4,s1,5
 120              		.loc 1 224 75
 121 003a 0507     		addi	a4,a4,1
 223:C:/Users/stapi/OneDrive/Desktop/GD32VW553/V1_MQTT_OK/GD32VW55X_Wifi_BLE_SDK/GD32VW55x_RELEASE_V1.0.2/MSDK/mbedtls/mbedtls-2.17.0-ssl/library\debug.c ****               text, (int) ( ( n * ( sizeof(mbedtls_mpi_uint) << 3 ) ) + j + 1 ) );
 122              		.loc 1 223 5
 123 003c 37060000 		lui	a2,%hi(.LC0)
 124 0040 3E97     		add	a4,a4,a5
 125 0042 13060600 		addi	a2,a2,%lo(.LC0)
 126 0046 93050020 		li	a1,512
 127 004a 0A85     		mv	a0,sp
 128              	.LVL10:
 129 004c 97000000 		call	snprintf
 129      E7800000 
 130              	.LVL11:
 225:C:/Users/stapi/OneDrive/Desktop/GD32VW553/V1_MQTT_OK/GD32VW55X_Wifi_BLE_SDK/GD32VW55x_RELEASE_V1.0.2/MSDK/mbedtls/mbedtls-2.17.0-ssl/library\debug.c **** 
 226:C:/Users/stapi/OneDrive/Desktop/GD32VW553/V1_MQTT_OK/GD32VW55X_Wifi_BLE_SDK/GD32VW55x_RELEASE_V1.0.2/MSDK/mbedtls/mbedtls-2.17.0-ssl/library\debug.c ****     debug_send_line( ssl, level, file, line, str );
 131              		.loc 1 226 5 is_stmt 1
 132 0054 0A87     		mv	a4,sp
 133 0056 DA86     		mv	a3,s6
 134 0058 5686     		mv	a2,s5
 135 005a D285     		mv	a1,s4
 136 005c 4E85     		mv	a0,s3
 137 005e 97000000 		call	debug_send_line
 137      E7800000 
 138              	.LVL12:
 227:C:/Users/stapi/OneDrive/Desktop/GD32VW553/V1_MQTT_OK/GD32VW55X_Wifi_BLE_SDK/GD32VW55x_RELEASE_V1.0.2/MSDK/mbedtls/mbedtls-2.17.0-ssl/library\debug.c **** 
 228:C:/Users/stapi/OneDrive/Desktop/GD32VW553/V1_MQTT_OK/GD32VW55X_Wifi_BLE_SDK/GD32VW55x_RELEASE_V1.0.2/MSDK/mbedtls/mbedtls-2.17.0-ssl/library\debug.c ****     idx = 0;
 139              		.loc 1 228 5
 229:C:/Users/stapi/OneDrive/Desktop/GD32VW553/V1_MQTT_OK/GD32VW55X_Wifi_BLE_SDK/GD32VW55x_RELEASE_V1.0.2/MSDK/mbedtls/mbedtls-2.17.0-ssl/library\debug.c ****     for( i = n + 1, j = 0; i > 0; i-- )
 140              		.loc 1 229 5
 228:C:/Users/stapi/OneDrive/Desktop/GD32VW553/V1_MQTT_OK/GD32VW55X_Wifi_BLE_SDK/GD32VW55x_RELEASE_V1.0.2/MSDK/mbedtls/mbedtls-2.17.0-ssl/library\debug.c ****     for( i = n + 1, j = 0; i > 0; i-- )
 141              		.loc 1 228 9 is_stmt 0
 142 0066 0144     		li	s0,0
 209:C:/Users/stapi/OneDrive/Desktop/GD32VW553/V1_MQTT_OK/GD32VW55X_Wifi_BLE_SDK/GD32VW55x_RELEASE_V1.0.2/MSDK/mbedtls/mbedtls-2.17.0-ssl/library\debug.c ****     size_t i, n, idx = 0;
 143              		.loc 1 209 15
 144 0068 0547     		li	a4,1
 145              		.loc 1 229 23
 146 006a 814C     		li	s9,0
 230:C:/Users/stapi/OneDrive/Desktop/GD32VW553/V1_MQTT_OK/GD32VW55X_Wifi_BLE_SDK/GD32VW55x_RELEASE_V1.0.2/MSDK/mbedtls/mbedtls-2.17.0-ssl/library\debug.c ****     {
 231:C:/Users/stapi/OneDrive/Desktop/GD32VW553/V1_MQTT_OK/GD32VW55X_Wifi_BLE_SDK/GD32VW55x_RELEASE_V1.0.2/MSDK/mbedtls/mbedtls-2.17.0-ssl/library\debug.c ****         if( zeros && X->p[i - 1] == 0 )
 232:C:/Users/stapi/OneDrive/Desktop/GD32VW553/V1_MQTT_OK/GD32VW55X_Wifi_BLE_SDK/GD32VW55x_RELEASE_V1.0.2/MSDK/mbedtls/mbedtls-2.17.0-ssl/library\debug.c ****             continue;
 233:C:/Users/stapi/OneDrive/Desktop/GD32VW553/V1_MQTT_OK/GD32VW55X_Wifi_BLE_SDK/GD32VW55x_RELEASE_V1.0.2/MSDK/mbedtls/mbedtls-2.17.0-ssl/library\debug.c **** 
 234:C:/Users/stapi/OneDrive/Desktop/GD32VW553/V1_MQTT_OK/GD32VW55X_Wifi_BLE_SDK/GD32VW55x_RELEASE_V1.0.2/MSDK/mbedtls/mbedtls-2.17.0-ssl/library\debug.c ****         for( k = sizeof( mbedtls_mpi_uint ) - 1; k >= 0; k-- )
 235:C:/Users/stapi/OneDrive/Desktop/GD32VW553/V1_MQTT_OK/GD32VW55X_Wifi_BLE_SDK/GD32VW55x_RELEASE_V1.0.2/MSDK/mbedtls/mbedtls-2.17.0-ssl/library\debug.c ****         {
 236:C:/Users/stapi/OneDrive/Desktop/GD32VW553/V1_MQTT_OK/GD32VW55X_Wifi_BLE_SDK/GD32VW55x_RELEASE_V1.0.2/MSDK/mbedtls/mbedtls-2.17.0-ssl/library\debug.c ****             if( zeros && ( ( X->p[i - 1] >> ( k << 3 ) ) & 0xFF ) == 0 )
 237:C:/Users/stapi/OneDrive/Desktop/GD32VW553/V1_MQTT_OK/GD32VW55X_Wifi_BLE_SDK/GD32VW55x_RELEASE_V1.0.2/MSDK/mbedtls/mbedtls-2.17.0-ssl/library\debug.c ****                 continue;
 238:C:/Users/stapi/OneDrive/Desktop/GD32VW553/V1_MQTT_OK/GD32VW55X_Wifi_BLE_SDK/GD32VW55x_RELEASE_V1.0.2/MSDK/mbedtls/mbedtls-2.17.0-ssl/library\debug.c ****             else
 239:C:/Users/stapi/OneDrive/Desktop/GD32VW553/V1_MQTT_OK/GD32VW55X_Wifi_BLE_SDK/GD32VW55x_RELEASE_V1.0.2/MSDK/mbedtls/mbedtls-2.17.0-ssl/library\debug.c ****                 zeros = 0;
 240:C:/Users/stapi/OneDrive/Desktop/GD32VW553/V1_MQTT_OK/GD32VW55X_Wifi_BLE_SDK/GD32VW55x_RELEASE_V1.0.2/MSDK/mbedtls/mbedtls-2.17.0-ssl/library\debug.c **** 
 241:C:/Users/stapi/OneDrive/Desktop/GD32VW553/V1_MQTT_OK/GD32VW55X_Wifi_BLE_SDK/GD32VW55x_RELEASE_V1.0.2/MSDK/mbedtls/mbedtls-2.17.0-ssl/library\debug.c ****             if( j % 16 == 0 )
 242:C:/Users/stapi/OneDrive/Desktop/GD32VW553/V1_MQTT_OK/GD32VW55X_Wifi_BLE_SDK/GD32VW55x_RELEASE_V1.0.2/MSDK/mbedtls/mbedtls-2.17.0-ssl/library\debug.c ****             {
 243:C:/Users/stapi/OneDrive/Desktop/GD32VW553/V1_MQTT_OK/GD32VW55X_Wifi_BLE_SDK/GD32VW55x_RELEASE_V1.0.2/MSDK/mbedtls/mbedtls-2.17.0-ssl/library\debug.c ****                 if( j > 0 )
 244:C:/Users/stapi/OneDrive/Desktop/GD32VW553/V1_MQTT_OK/GD32VW55X_Wifi_BLE_SDK/GD32VW55x_RELEASE_V1.0.2/MSDK/mbedtls/mbedtls-2.17.0-ssl/library\debug.c ****                 {
 245:C:/Users/stapi/OneDrive/Desktop/GD32VW553/V1_MQTT_OK/GD32VW55X_Wifi_BLE_SDK/GD32VW55x_RELEASE_V1.0.2/MSDK/mbedtls/mbedtls-2.17.0-ssl/library\debug.c ****                     mbedtls_snprintf( str + idx, sizeof( str ) - idx, "\r\n" );
 246:C:/Users/stapi/OneDrive/Desktop/GD32VW553/V1_MQTT_OK/GD32VW55X_Wifi_BLE_SDK/GD32VW55x_RELEASE_V1.0.2/MSDK/mbedtls/mbedtls-2.17.0-ssl/library\debug.c ****                     debug_send_line( ssl, level, file, line, str );
 247:C:/Users/stapi/OneDrive/Desktop/GD32VW553/V1_MQTT_OK/GD32VW55X_Wifi_BLE_SDK/GD32VW55x_RELEASE_V1.0.2/MSDK/mbedtls/mbedtls-2.17.0-ssl/library\debug.c ****                     idx = 0;
 248:C:/Users/stapi/OneDrive/Desktop/GD32VW553/V1_MQTT_OK/GD32VW55X_Wifi_BLE_SDK/GD32VW55x_RELEASE_V1.0.2/MSDK/mbedtls/mbedtls-2.17.0-ssl/library\debug.c ****                 }
 249:C:/Users/stapi/OneDrive/Desktop/GD32VW553/V1_MQTT_OK/GD32VW55X_Wifi_BLE_SDK/GD32VW55x_RELEASE_V1.0.2/MSDK/mbedtls/mbedtls-2.17.0-ssl/library\debug.c ****             }
 250:C:/Users/stapi/OneDrive/Desktop/GD32VW553/V1_MQTT_OK/GD32VW55X_Wifi_BLE_SDK/GD32VW55x_RELEASE_V1.0.2/MSDK/mbedtls/mbedtls-2.17.0-ssl/library\debug.c **** 
 251:C:/Users/stapi/OneDrive/Desktop/GD32VW553/V1_MQTT_OK/GD32VW55X_Wifi_BLE_SDK/GD32VW55x_RELEASE_V1.0.2/MSDK/mbedtls/mbedtls-2.17.0-ssl/library\debug.c ****             idx += mbedtls_snprintf( str + idx, sizeof( str ) - idx, " %02x", (unsigned int)
 147              		.loc 1 251 20
 148 006c 130C0020 		li	s8,512
 149              	.LVL13:
 150              	.L9:
 229:C:/Users/stapi/OneDrive/Desktop/GD32VW553/V1_MQTT_OK/GD32VW55X_Wifi_BLE_SDK/GD32VW55x_RELEASE_V1.0.2/MSDK/mbedtls/mbedtls-2.17.0-ssl/library\debug.c ****     {
 151              		.loc 1 229 28 is_stmt 1
 229:C:/Users/stapi/OneDrive/Desktop/GD32VW553/V1_MQTT_OK/GD32VW55X_Wifi_BLE_SDK/GD32VW55x_RELEASE_V1.0.2/MSDK/mbedtls/mbedtls-2.17.0-ssl/library\debug.c ****     {
 152              		.loc 1 229 5 is_stmt 0
 153 0070 FD57     		li	a5,-1
 154 0072 6393F406 		bne	s1,a5,.L16
 252:C:/Users/stapi/OneDrive/Desktop/GD32VW553/V1_MQTT_OK/GD32VW55X_Wifi_BLE_SDK/GD32VW55x_RELEASE_V1.0.2/MSDK/mbedtls/mbedtls-2.17.0-ssl/library\debug.c ****                              ( X->p[i - 1] >> ( k << 3 ) ) & 0xFF );
 253:C:/Users/stapi/OneDrive/Desktop/GD32VW553/V1_MQTT_OK/GD32VW55X_Wifi_BLE_SDK/GD32VW55x_RELEASE_V1.0.2/MSDK/mbedtls/mbedtls-2.17.0-ssl/library\debug.c **** 
 254:C:/Users/stapi/OneDrive/Desktop/GD32VW553/V1_MQTT_OK/GD32VW55X_Wifi_BLE_SDK/GD32VW55x_RELEASE_V1.0.2/MSDK/mbedtls/mbedtls-2.17.0-ssl/library\debug.c ****             j++;
 255:C:/Users/stapi/OneDrive/Desktop/GD32VW553/V1_MQTT_OK/GD32VW55X_Wifi_BLE_SDK/GD32VW55x_RELEASE_V1.0.2/MSDK/mbedtls/mbedtls-2.17.0-ssl/library\debug.c ****         }
 256:C:/Users/stapi/OneDrive/Desktop/GD32VW553/V1_MQTT_OK/GD32VW55X_Wifi_BLE_SDK/GD32VW55x_RELEASE_V1.0.2/MSDK/mbedtls/mbedtls-2.17.0-ssl/library\debug.c **** 
 257:C:/Users/stapi/OneDrive/Desktop/GD32VW553/V1_MQTT_OK/GD32VW55X_Wifi_BLE_SDK/GD32VW55x_RELEASE_V1.0.2/MSDK/mbedtls/mbedtls-2.17.0-ssl/library\debug.c ****     }
 258:C:/Users/stapi/OneDrive/Desktop/GD32VW553/V1_MQTT_OK/GD32VW55X_Wifi_BLE_SDK/GD32VW55x_RELEASE_V1.0.2/MSDK/mbedtls/mbedtls-2.17.0-ssl/library\debug.c **** 
 259:C:/Users/stapi/OneDrive/Desktop/GD32VW553/V1_MQTT_OK/GD32VW55X_Wifi_BLE_SDK/GD32VW55x_RELEASE_V1.0.2/MSDK/mbedtls/mbedtls-2.17.0-ssl/library\debug.c ****     if( zeros == 1 )
 155              		.loc 1 259 5 is_stmt 1
 156              		.loc 1 259 7 is_stmt 0
 157 0076 19CF     		beq	a4,zero,.L17
 260:C:/Users/stapi/OneDrive/Desktop/GD32VW553/V1_MQTT_OK/GD32VW55X_Wifi_BLE_SDK/GD32VW55x_RELEASE_V1.0.2/MSDK/mbedtls/mbedtls-2.17.0-ssl/library\debug.c ****         idx += mbedtls_snprintf( str + idx, sizeof( str ) - idx, " 00" );
 158              		.loc 1 260 9 is_stmt 1
 159              		.loc 1 260 16 is_stmt 0
 160 0078 37060000 		lui	a2,%hi(.LC3)
 161 007c 93050020 		li	a1,512
 162 0080 818D     		sub	a1,a1,s0
 163 0082 33058100 		add	a0,sp,s0
 164 0086 13060600 		addi	a2,a2,%lo(.LC3)
 165 008a 97000000 		call	snprintf
 165      E7800000 
 166              	.LVL14:
 167              		.loc 1 260 13
 168 0092 2A94     		add	s0,s0,a0
 169              	.LVL15:
 170              	.L17:
 261:C:/Users/stapi/OneDrive/Desktop/GD32VW553/V1_MQTT_OK/GD32VW55X_Wifi_BLE_SDK/GD32VW55x_RELEASE_V1.0.2/MSDK/mbedtls/mbedtls-2.17.0-ssl/library\debug.c **** 
 262:C:/Users/stapi/OneDrive/Desktop/GD32VW553/V1_MQTT_OK/GD32VW55X_Wifi_BLE_SDK/GD32VW55x_RELEASE_V1.0.2/MSDK/mbedtls/mbedtls-2.17.0-ssl/library\debug.c ****     mbedtls_snprintf( str + idx, sizeof( str ) - idx, "\r\n" );
 171              		.loc 1 262 5 is_stmt 1
 172 0094 37060000 		lui	a2,%hi(.LC1)
 173 0098 93050020 		li	a1,512
 174 009c 818D     		sub	a1,a1,s0
 175 009e 33058100 		add	a0,sp,s0
 176 00a2 13060600 		addi	a2,a2,%lo(.LC1)
 177 00a6 97000000 		call	snprintf
 177      E7800000 
 178              	.LVL16:
 263:C:/Users/stapi/OneDrive/Desktop/GD32VW553/V1_MQTT_OK/GD32VW55X_Wifi_BLE_SDK/GD32VW55x_RELEASE_V1.0.2/MSDK/mbedtls/mbedtls-2.17.0-ssl/library\debug.c ****     debug_send_line( ssl, level, file, line, str );
 179              		.loc 1 263 5
 180 00ae 0A87     		mv	a4,sp
 181 00b0 DA86     		mv	a3,s6
 182 00b2 5686     		mv	a2,s5
 183 00b4 D285     		mv	a1,s4
 184 00b6 4E85     		mv	a0,s3
 185 00b8 97000000 		call	debug_send_line
 185      E7800000 
 186              	.LVL17:
 264:C:/Users/stapi/OneDrive/Desktop/GD32VW553/V1_MQTT_OK/GD32VW55X_Wifi_BLE_SDK/GD32VW55x_RELEASE_V1.0.2/MSDK/mbedtls/mbedtls-2.17.0-ssl/library\debug.c **** }
 187              		.loc 1 264 1 is_stmt 0
 188 00c0 13010120 		addi	sp,sp,512
 189              		.cfi_remember_state
 190              		.cfi_def_cfa_offset 0
 191 00c4 17030000 		tail	__riscv_restore_12
 191      67000300 
 192              		.cfi_restore 27
 193              		.cfi_restore 26
 194              		.cfi_restore 25
 195              		.cfi_restore 24
 196              		.cfi_restore 23
 197              		.cfi_restore 22
 198              		.cfi_restore 21
 199              		.cfi_restore 20
 200              		.cfi_restore 19
 201              		.cfi_restore 18
 202              		.cfi_restore 9
 203              		.cfi_restore 8
 204              		.cfi_restore 1
 205              		.cfi_def_cfa_offset -64
 206              	.LVL18:
 207              	.L6:
 208              		.cfi_restore_state
 216:C:/Users/stapi/OneDrive/Desktop/GD32VW553/V1_MQTT_OK/GD32VW55X_Wifi_BLE_SDK/GD32VW55x_RELEASE_V1.0.2/MSDK/mbedtls/mbedtls-2.17.0-ssl/library\debug.c ****             break;
 209              		.loc 1 216 9 is_stmt 1
 216:C:/Users/stapi/OneDrive/Desktop/GD32VW553/V1_MQTT_OK/GD32VW55X_Wifi_BLE_SDK/GD32VW55x_RELEASE_V1.0.2/MSDK/mbedtls/mbedtls-2.17.0-ssl/library\debug.c ****             break;
 210              		.loc 1 216 17 is_stmt 0
 211 00cc 3386E700 		add	a2,a5,a4
 216:C:/Users/stapi/OneDrive/Desktop/GD32VW553/V1_MQTT_OK/GD32VW55X_Wifi_BLE_SDK/GD32VW55x_RELEASE_V1.0.2/MSDK/mbedtls/mbedtls-2.17.0-ssl/library\debug.c ****             break;
 212              		.loc 1 216 11
 213 00d0 1042     		lw	a2,0(a2)
 214 00d2 21FA     		bne	a2,zero,.L5
 215:C:/Users/stapi/OneDrive/Desktop/GD32VW553/V1_MQTT_OK/GD32VW55X_Wifi_BLE_SDK/GD32VW55x_RELEASE_V1.0.2/MSDK/mbedtls/mbedtls-2.17.0-ssl/library\debug.c ****         if( X->p[n] != 0 )
 215              		.loc 1 215 31 is_stmt 1
 215:C:/Users/stapi/OneDrive/Desktop/GD32VW553/V1_MQTT_OK/GD32VW55X_Wifi_BLE_SDK/GD32VW55x_RELEASE_V1.0.2/MSDK/mbedtls/mbedtls-2.17.0-ssl/library\debug.c ****         if( X->p[n] != 0 )
 216              		.loc 1 215 32 is_stmt 0
 217 00d4 FD14     		addi	s1,s1,-1
 218              	.LVL19:
 219 00d6 99B7     		j	.L4
 220              	.LVL20:
 221              	.L16:
 231:C:/Users/stapi/OneDrive/Desktop/GD32VW553/V1_MQTT_OK/GD32VW55X_Wifi_BLE_SDK/GD32VW55x_RELEASE_V1.0.2/MSDK/mbedtls/mbedtls-2.17.0-ssl/library\debug.c ****             continue;
 222              		.loc 1 231 9 is_stmt 1
 223 00d8 139D2400 		slli	s10,s1,2
 231:C:/Users/stapi/OneDrive/Desktop/GD32VW553/V1_MQTT_OK/GD32VW55X_Wifi_BLE_SDK/GD32VW55x_RELEASE_V1.0.2/MSDK/mbedtls/mbedtls-2.17.0-ssl/library\debug.c ****             continue;
 224              		.loc 1 231 11 is_stmt 0
 225 00dc 11C7     		beq	a4,zero,.L10
 231:C:/Users/stapi/OneDrive/Desktop/GD32VW553/V1_MQTT_OK/GD32VW55X_Wifi_BLE_SDK/GD32VW55x_RELEASE_V1.0.2/MSDK/mbedtls/mbedtls-2.17.0-ssl/library\debug.c ****             continue;
 226              		.loc 1 231 26
 227 00de 83278900 		lw	a5,8(s2)
 228 00e2 EA97     		add	a5,a5,s10
 231:C:/Users/stapi/OneDrive/Desktop/GD32VW553/V1_MQTT_OK/GD32VW55X_Wifi_BLE_SDK/GD32VW55x_RELEASE_V1.0.2/MSDK/mbedtls/mbedtls-2.17.0-ssl/library\debug.c ****             continue;
 229              		.loc 1 231 19
 230 00e4 9C43     		lw	a5,0(a5)
 231 00e6 D1C3     		beq	a5,zero,.L11
 232              	.L10:
 220:C:/Users/stapi/OneDrive/Desktop/GD32VW553/V1_MQTT_OK/GD32VW55X_Wifi_BLE_SDK/GD32VW55x_RELEASE_V1.0.2/MSDK/mbedtls/mbedtls-2.17.0-ssl/library\debug.c ****             break;
 233              		.loc 1 220 21
 234 00e8 E14B     		li	s7,24
 234:C:/Users/stapi/OneDrive/Desktop/GD32VW553/V1_MQTT_OK/GD32VW55X_Wifi_BLE_SDK/GD32VW55x_RELEASE_V1.0.2/MSDK/mbedtls/mbedtls-2.17.0-ssl/library\debug.c ****         {
 235              		.loc 1 234 9
 236 00ea E15D     		li	s11,-8
 237              	.L15:
 236:C:/Users/stapi/OneDrive/Desktop/GD32VW553/V1_MQTT_OK/GD32VW55X_Wifi_BLE_SDK/GD32VW55x_RELEASE_V1.0.2/MSDK/mbedtls/mbedtls-2.17.0-ssl/library\debug.c ****                 continue;
 238              		.loc 1 236 13 is_stmt 1
 236:C:/Users/stapi/OneDrive/Desktop/GD32VW553/V1_MQTT_OK/GD32VW55X_Wifi_BLE_SDK/GD32VW55x_RELEASE_V1.0.2/MSDK/mbedtls/mbedtls-2.17.0-ssl/library\debug.c ****                 continue;
 239              		.loc 1 236 15 is_stmt 0
 240 00ec 11CB     		beq	a4,zero,.L12
 241              	.LVL21:
 236:C:/Users/stapi/OneDrive/Desktop/GD32VW553/V1_MQTT_OK/GD32VW55X_Wifi_BLE_SDK/GD32VW55x_RELEASE_V1.0.2/MSDK/mbedtls/mbedtls-2.17.0-ssl/library\debug.c ****                 continue;
 242              		.loc 1 236 34
 243 00ee 83278900 		lw	a5,8(s2)
 244 00f2 EA97     		add	a5,a5,s10
 236:C:/Users/stapi/OneDrive/Desktop/GD32VW553/V1_MQTT_OK/GD32VW55X_Wifi_BLE_SDK/GD32VW55x_RELEASE_V1.0.2/MSDK/mbedtls/mbedtls-2.17.0-ssl/library\debug.c ****                 continue;
 245              		.loc 1 236 42
 246 00f4 9C43     		lw	a5,0(a5)
 247 00f6 B3D77701 		srl	a5,a5,s7
 236:C:/Users/stapi/OneDrive/Desktop/GD32VW553/V1_MQTT_OK/GD32VW55X_Wifi_BLE_SDK/GD32VW55x_RELEASE_V1.0.2/MSDK/mbedtls/mbedtls-2.17.0-ssl/library\debug.c ****                 continue;
 248              		.loc 1 236 58
 249 00fa 93F7F70F 		andi	a5,a5,255
 236:C:/Users/stapi/OneDrive/Desktop/GD32VW553/V1_MQTT_OK/GD32VW55X_Wifi_BLE_SDK/GD32VW55x_RELEASE_V1.0.2/MSDK/mbedtls/mbedtls-2.17.0-ssl/library\debug.c ****                 continue;
 250              		.loc 1 236 23
 251 00fe BDC3     		beq	a5,zero,.L13
 252              	.LVL22:
 253              	.L12:
 239:C:/Users/stapi/OneDrive/Desktop/GD32VW553/V1_MQTT_OK/GD32VW55X_Wifi_BLE_SDK/GD32VW55x_RELEASE_V1.0.2/MSDK/mbedtls/mbedtls-2.17.0-ssl/library\debug.c **** 
 254              		.loc 1 239 17 is_stmt 1
 241:C:/Users/stapi/OneDrive/Desktop/GD32VW553/V1_MQTT_OK/GD32VW55X_Wifi_BLE_SDK/GD32VW55x_RELEASE_V1.0.2/MSDK/mbedtls/mbedtls-2.17.0-ssl/library\debug.c ****             {
 255              		.loc 1 241 13
 241:C:/Users/stapi/OneDrive/Desktop/GD32VW553/V1_MQTT_OK/GD32VW55X_Wifi_BLE_SDK/GD32VW55x_RELEASE_V1.0.2/MSDK/mbedtls/mbedtls-2.17.0-ssl/library\debug.c ****             {
 256              		.loc 1 241 24 is_stmt 0
 257 0100 93F7FC00 		andi	a5,s9,15
 241:C:/Users/stapi/OneDrive/Desktop/GD32VW553/V1_MQTT_OK/GD32VW55X_Wifi_BLE_SDK/GD32VW55x_RELEASE_V1.0.2/MSDK/mbedtls/mbedtls-2.17.0-ssl/library\debug.c ****             {
 258              		.loc 1 241 15
 259 0104 8DEB     		bne	a5,zero,.L14
 243:C:/Users/stapi/OneDrive/Desktop/GD32VW553/V1_MQTT_OK/GD32VW55X_Wifi_BLE_SDK/GD32VW55x_RELEASE_V1.0.2/MSDK/mbedtls/mbedtls-2.17.0-ssl/library\debug.c ****                 {
 260              		.loc 1 243 17 is_stmt 1
 243:C:/Users/stapi/OneDrive/Desktop/GD32VW553/V1_MQTT_OK/GD32VW55X_Wifi_BLE_SDK/GD32VW55x_RELEASE_V1.0.2/MSDK/mbedtls/mbedtls-2.17.0-ssl/library\debug.c ****                 {
 261              		.loc 1 243 19 is_stmt 0
 262 0106 63880C02 		beq	s9,zero,.L14
 245:C:/Users/stapi/OneDrive/Desktop/GD32VW553/V1_MQTT_OK/GD32VW55X_Wifi_BLE_SDK/GD32VW55x_RELEASE_V1.0.2/MSDK/mbedtls/mbedtls-2.17.0-ssl/library\debug.c ****                     debug_send_line( ssl, level, file, line, str );
 263              		.loc 1 245 21 is_stmt 1
 264 010a B7070000 		lui	a5,%hi(.LC1)
 265 010e 13860700 		addi	a2,a5,%lo(.LC1)
 266 0112 B3058C40 		sub	a1,s8,s0
 267 0116 33058100 		add	a0,sp,s0
 268 011a 97000000 		call	snprintf
 268      E7800000 
 269              	.LVL23:
 246:C:/Users/stapi/OneDrive/Desktop/GD32VW553/V1_MQTT_OK/GD32VW55X_Wifi_BLE_SDK/GD32VW55x_RELEASE_V1.0.2/MSDK/mbedtls/mbedtls-2.17.0-ssl/library\debug.c ****                     idx = 0;
 270              		.loc 1 246 21
 271 0122 0A87     		mv	a4,sp
 272 0124 DA86     		mv	a3,s6
 273 0126 5686     		mv	a2,s5
 274 0128 D285     		mv	a1,s4
 275 012a 4E85     		mv	a0,s3
 276 012c 97000000 		call	debug_send_line
 276      E7800000 
 277              	.LVL24:
 247:C:/Users/stapi/OneDrive/Desktop/GD32VW553/V1_MQTT_OK/GD32VW55X_Wifi_BLE_SDK/GD32VW55x_RELEASE_V1.0.2/MSDK/mbedtls/mbedtls-2.17.0-ssl/library\debug.c ****                 }
 278              		.loc 1 247 21
 247:C:/Users/stapi/OneDrive/Desktop/GD32VW553/V1_MQTT_OK/GD32VW55X_Wifi_BLE_SDK/GD32VW55x_RELEASE_V1.0.2/MSDK/mbedtls/mbedtls-2.17.0-ssl/library\debug.c ****                 }
 279              		.loc 1 247 25 is_stmt 0
 280 0134 0144     		li	s0,0
 281              	.LVL25:
 282              	.L14:
 251:C:/Users/stapi/OneDrive/Desktop/GD32VW553/V1_MQTT_OK/GD32VW55X_Wifi_BLE_SDK/GD32VW55x_RELEASE_V1.0.2/MSDK/mbedtls/mbedtls-2.17.0-ssl/library\debug.c ****                              ( X->p[i - 1] >> ( k << 3 ) ) & 0xFF );
 283              		.loc 1 251 13 is_stmt 1
 252:C:/Users/stapi/OneDrive/Desktop/GD32VW553/V1_MQTT_OK/GD32VW55X_Wifi_BLE_SDK/GD32VW55x_RELEASE_V1.0.2/MSDK/mbedtls/mbedtls-2.17.0-ssl/library\debug.c **** 
 284              		.loc 1 252 36 is_stmt 0
 285 0136 83278900 		lw	a5,8(s2)
 251:C:/Users/stapi/OneDrive/Desktop/GD32VW553/V1_MQTT_OK/GD32VW55X_Wifi_BLE_SDK/GD32VW55x_RELEASE_V1.0.2/MSDK/mbedtls/mbedtls-2.17.0-ssl/library\debug.c ****                              ( X->p[i - 1] >> ( k << 3 ) ) & 0xFF );
 286              		.loc 1 251 20
 287 013a B3058C40 		sub	a1,s8,s0
 288 013e 33058100 		add	a0,sp,s0
 252:C:/Users/stapi/OneDrive/Desktop/GD32VW553/V1_MQTT_OK/GD32VW55X_Wifi_BLE_SDK/GD32VW55x_RELEASE_V1.0.2/MSDK/mbedtls/mbedtls-2.17.0-ssl/library\debug.c **** 
 289              		.loc 1 252 36
 290 0142 EA97     		add	a5,a5,s10
 252:C:/Users/stapi/OneDrive/Desktop/GD32VW553/V1_MQTT_OK/GD32VW55X_Wifi_BLE_SDK/GD32VW55x_RELEASE_V1.0.2/MSDK/mbedtls/mbedtls-2.17.0-ssl/library\debug.c **** 
 291              		.loc 1 252 44
 292 0144 9443     		lw	a3,0(a5)
 251:C:/Users/stapi/OneDrive/Desktop/GD32VW553/V1_MQTT_OK/GD32VW55X_Wifi_BLE_SDK/GD32VW55x_RELEASE_V1.0.2/MSDK/mbedtls/mbedtls-2.17.0-ssl/library\debug.c ****                              ( X->p[i - 1] >> ( k << 3 ) ) & 0xFF );
 293              		.loc 1 251 20
 294 0146 B7070000 		lui	a5,%hi(.LC2)
 295 014a 13860700 		addi	a2,a5,%lo(.LC2)
 252:C:/Users/stapi/OneDrive/Desktop/GD32VW553/V1_MQTT_OK/GD32VW55X_Wifi_BLE_SDK/GD32VW55x_RELEASE_V1.0.2/MSDK/mbedtls/mbedtls-2.17.0-ssl/library\debug.c **** 
 296              		.loc 1 252 44
 297 014e B3D67601 		srl	a3,a3,s7
 251:C:/Users/stapi/OneDrive/Desktop/GD32VW553/V1_MQTT_OK/GD32VW55X_Wifi_BLE_SDK/GD32VW55x_RELEASE_V1.0.2/MSDK/mbedtls/mbedtls-2.17.0-ssl/library\debug.c ****                              ( X->p[i - 1] >> ( k << 3 ) ) & 0xFF );
 298              		.loc 1 251 20
 299 0152 93F6F60F 		andi	a3,a3,0xff
 300 0156 97000000 		call	snprintf
 300      E7800000 
 301              	.LVL26:
 251:C:/Users/stapi/OneDrive/Desktop/GD32VW553/V1_MQTT_OK/GD32VW55X_Wifi_BLE_SDK/GD32VW55x_RELEASE_V1.0.2/MSDK/mbedtls/mbedtls-2.17.0-ssl/library\debug.c ****                              ( X->p[i - 1] >> ( k << 3 ) ) & 0xFF );
 302              		.loc 1 251 17
 303 015e 2A94     		add	s0,s0,a0
 304              	.LVL27:
 254:C:/Users/stapi/OneDrive/Desktop/GD32VW553/V1_MQTT_OK/GD32VW55X_Wifi_BLE_SDK/GD32VW55x_RELEASE_V1.0.2/MSDK/mbedtls/mbedtls-2.17.0-ssl/library\debug.c ****         }
 305              		.loc 1 254 13 is_stmt 1
 254:C:/Users/stapi/OneDrive/Desktop/GD32VW553/V1_MQTT_OK/GD32VW55X_Wifi_BLE_SDK/GD32VW55x_RELEASE_V1.0.2/MSDK/mbedtls/mbedtls-2.17.0-ssl/library\debug.c ****         }
 306              		.loc 1 254 14 is_stmt 0
 307 0160 850C     		addi	s9,s9,1
 308              	.LVL28:
 239:C:/Users/stapi/OneDrive/Desktop/GD32VW553/V1_MQTT_OK/GD32VW55X_Wifi_BLE_SDK/GD32VW55x_RELEASE_V1.0.2/MSDK/mbedtls/mbedtls-2.17.0-ssl/library\debug.c **** 
 309              		.loc 1 239 23
 310 0162 0147     		li	a4,0
 311              	.LVL29:
 312              	.L13:
 234:C:/Users/stapi/OneDrive/Desktop/GD32VW553/V1_MQTT_OK/GD32VW55X_Wifi_BLE_SDK/GD32VW55x_RELEASE_V1.0.2/MSDK/mbedtls/mbedtls-2.17.0-ssl/library\debug.c ****         {
 313              		.loc 1 234 58 is_stmt 1
 234:C:/Users/stapi/OneDrive/Desktop/GD32VW553/V1_MQTT_OK/GD32VW55X_Wifi_BLE_SDK/GD32VW55x_RELEASE_V1.0.2/MSDK/mbedtls/mbedtls-2.17.0-ssl/library\debug.c ****         {
 314              		.loc 1 234 50
 234:C:/Users/stapi/OneDrive/Desktop/GD32VW553/V1_MQTT_OK/GD32VW55X_Wifi_BLE_SDK/GD32VW55x_RELEASE_V1.0.2/MSDK/mbedtls/mbedtls-2.17.0-ssl/library\debug.c ****         {
 315              		.loc 1 234 9 is_stmt 0
 316 0164 E11B     		addi	s7,s7,-8
 317 0166 E393BBF9 		bne	s7,s11,.L15
 318              	.L11:
 229:C:/Users/stapi/OneDrive/Desktop/GD32VW553/V1_MQTT_OK/GD32VW55X_Wifi_BLE_SDK/GD32VW55x_RELEASE_V1.0.2/MSDK/mbedtls/mbedtls-2.17.0-ssl/library\debug.c ****     {
 319              		.loc 1 229 35 is_stmt 1
 320              	.LVL30:
 321 016a FD14     		addi	s1,s1,-1
 322              	.LVL31:
 323 016c 11B7     		j	.L9
 324              		.cfi_endproc
 325              	.LFE395:
 327              		.section	.text.mbedtls_debug_set_threshold,"ax",@progbits
 328              		.align	1
 329              		.globl	mbedtls_debug_set_threshold
 331              	mbedtls_debug_set_threshold:
 332              	.LFB383:
  59:C:/Users/stapi/OneDrive/Desktop/GD32VW553/V1_MQTT_OK/GD32VW55X_Wifi_BLE_SDK/GD32VW55x_RELEASE_V1.0.2/MSDK/mbedtls/mbedtls-2.17.0-ssl/library\debug.c ****     debug_threshold = threshold;
 333              		.loc 1 59 1
 334              		.cfi_startproc
 335              	.LVL32:
  60:C:/Users/stapi/OneDrive/Desktop/GD32VW553/V1_MQTT_OK/GD32VW55X_Wifi_BLE_SDK/GD32VW55x_RELEASE_V1.0.2/MSDK/mbedtls/mbedtls-2.17.0-ssl/library\debug.c **** }
 336              		.loc 1 60 5
  60:C:/Users/stapi/OneDrive/Desktop/GD32VW553/V1_MQTT_OK/GD32VW55X_Wifi_BLE_SDK/GD32VW55x_RELEASE_V1.0.2/MSDK/mbedtls/mbedtls-2.17.0-ssl/library\debug.c **** }
 337              		.loc 1 60 21 is_stmt 0
 338 0000 B7070000 		lui	a5,%hi(.LANCHOR0)
 339 0004 23A0A700 		sw	a0,%lo(.LANCHOR0)(a5)
  61:C:/Users/stapi/OneDrive/Desktop/GD32VW553/V1_MQTT_OK/GD32VW55X_Wifi_BLE_SDK/GD32VW55x_RELEASE_V1.0.2/MSDK/mbedtls/mbedtls-2.17.0-ssl/library\debug.c **** 
 340              		.loc 1 61 1
 341 0008 8280     		ret
 342              		.cfi_endproc
 343              	.LFE383:
 345              		.section	.text.mbedtls_debug_print_msg,"ax",@progbits
 346              		.align	1
 347              		.globl	mbedtls_debug_print_msg
 349              	mbedtls_debug_print_msg:
 350              	.LFB385:
  87:C:/Users/stapi/OneDrive/Desktop/GD32VW553/V1_MQTT_OK/GD32VW55X_Wifi_BLE_SDK/GD32VW55x_RELEASE_V1.0.2/MSDK/mbedtls/mbedtls-2.17.0-ssl/library\debug.c ****     va_list argp;
 351              		.loc 1 87 1 is_stmt 1
 352              		.cfi_startproc
 353              	.LVL33:
  88:C:/Users/stapi/OneDrive/Desktop/GD32VW553/V1_MQTT_OK/GD32VW55X_Wifi_BLE_SDK/GD32VW55x_RELEASE_V1.0.2/MSDK/mbedtls/mbedtls-2.17.0-ssl/library\debug.c ****     char str[DEBUG_BUF_SIZE];
 354              		.loc 1 88 5
  89:C:/Users/stapi/OneDrive/Desktop/GD32VW553/V1_MQTT_OK/GD32VW55X_Wifi_BLE_SDK/GD32VW55x_RELEASE_V1.0.2/MSDK/mbedtls/mbedtls-2.17.0-ssl/library\debug.c ****     int ret;
 355              		.loc 1 89 5
  90:C:/Users/stapi/OneDrive/Desktop/GD32VW553/V1_MQTT_OK/GD32VW55X_Wifi_BLE_SDK/GD32VW55x_RELEASE_V1.0.2/MSDK/mbedtls/mbedtls-2.17.0-ssl/library\debug.c **** 
 356              		.loc 1 90 5
  92:C:/Users/stapi/OneDrive/Desktop/GD32VW553/V1_MQTT_OK/GD32VW55X_Wifi_BLE_SDK/GD32VW55x_RELEASE_V1.0.2/MSDK/mbedtls/mbedtls-2.17.0-ssl/library\debug.c ****         return;
 357              		.loc 1 92 5
  87:C:/Users/stapi/OneDrive/Desktop/GD32VW553/V1_MQTT_OK/GD32VW55X_Wifi_BLE_SDK/GD32VW55x_RELEASE_V1.0.2/MSDK/mbedtls/mbedtls-2.17.0-ssl/library\debug.c ****     va_list argp;
 358              		.loc 1 87 1 is_stmt 0
 359 0000 130101DC 		addi	sp,sp,-576
 360              		.cfi_def_cfa_offset 576
 361 0004 23261122 		sw	ra,556(sp)
 362 0008 23248122 		sw	s0,552(sp)
 363 000c 23229122 		sw	s1,548(sp)
 364 0010 23202123 		sw	s2,544(sp)
 365 0014 232E3121 		sw	s3,540(sp)
 366              		.cfi_offset 1, -20
 367              		.cfi_offset 8, -24
 368              		.cfi_offset 9, -28
 369              		.cfi_offset 18, -32
 370              		.cfi_offset 19, -36
  87:C:/Users/stapi/OneDrive/Desktop/GD32VW553/V1_MQTT_OK/GD32VW55X_Wifi_BLE_SDK/GD32VW55x_RELEASE_V1.0.2/MSDK/mbedtls/mbedtls-2.17.0-ssl/library\debug.c ****     va_list argp;
 371              		.loc 1 87 1
 372 0018 232AF122 		sw	a5,564(sp)
 373 001c 232C0123 		sw	a6,568(sp)
 374 0020 232E1123 		sw	a7,572(sp)
  92:C:/Users/stapi/OneDrive/Desktop/GD32VW553/V1_MQTT_OK/GD32VW55X_Wifi_BLE_SDK/GD32VW55x_RELEASE_V1.0.2/MSDK/mbedtls/mbedtls-2.17.0-ssl/library\debug.c ****         return;
 375              		.loc 1 92 7
 376 0024 29CD     		beq	a0,zero,.L37
  92:C:/Users/stapi/OneDrive/Desktop/GD32VW553/V1_MQTT_OK/GD32VW55X_Wifi_BLE_SDK/GD32VW55x_RELEASE_V1.0.2/MSDK/mbedtls/mbedtls-2.17.0-ssl/library\debug.c ****         return;
 377              		.loc 1 92 35 discriminator 1
 378 0026 1C41     		lw	a5,0(a0)
 379 0028 2A84     		mv	s0,a0
  92:C:/Users/stapi/OneDrive/Desktop/GD32VW553/V1_MQTT_OK/GD32VW55X_Wifi_BLE_SDK/GD32VW55x_RELEASE_V1.0.2/MSDK/mbedtls/mbedtls-2.17.0-ssl/library\debug.c ****         return;
 380              		.loc 1 92 21 discriminator 1
 381 002a B1CB     		beq	a5,zero,.L37
  92:C:/Users/stapi/OneDrive/Desktop/GD32VW553/V1_MQTT_OK/GD32VW55X_Wifi_BLE_SDK/GD32VW55x_RELEASE_V1.0.2/MSDK/mbedtls/mbedtls-2.17.0-ssl/library\debug.c ****         return;
 382              		.loc 1 92 42 discriminator 2
 383 002c 9C4B     		lw	a5,16(a5)
 384 002e A1CB     		beq	a5,zero,.L37
  92:C:/Users/stapi/OneDrive/Desktop/GD32VW553/V1_MQTT_OK/GD32VW55X_Wifi_BLE_SDK/GD32VW55x_RELEASE_V1.0.2/MSDK/mbedtls/mbedtls-2.17.0-ssl/library\debug.c ****         return;
 385              		.loc 1 92 70 discriminator 3
 386 0030 B7070000 		lui	a5,%hi(.LANCHOR0)
 387 0034 83A70700 		lw	a5,%lo(.LANCHOR0)(a5)
 388 0038 AE84     		mv	s1,a1
 389 003a 63C2B704 		blt	a5,a1,.L37
 390 003e 3289     		mv	s2,a2
 391 0040 B689     		mv	s3,a3
 392 0042 3A86     		mv	a2,a4
 393              	.LVL34:
  95:C:/Users/stapi/OneDrive/Desktop/GD32VW553/V1_MQTT_OK/GD32VW55X_Wifi_BLE_SDK/GD32VW55x_RELEASE_V1.0.2/MSDK/mbedtls/mbedtls-2.17.0-ssl/library\debug.c ****     ret = mbedtls_vsnprintf( str, DEBUG_BUF_SIZE, format, argp );
 394              		.loc 1 95 5 is_stmt 1
 395 0044 541C     		addi	a3,sp,564
 396              	.LVL35:
  96:C:/Users/stapi/OneDrive/Desktop/GD32VW553/V1_MQTT_OK/GD32VW55X_Wifi_BLE_SDK/GD32VW55x_RELEASE_V1.0.2/MSDK/mbedtls/mbedtls-2.17.0-ssl/library\debug.c ****     va_end( argp );
 397              		.loc 1 96 11 is_stmt 0
 398 0046 93050020 		li	a1,512
 399              	.LVL36:
 400 004a 0808     		addi	a0,sp,16
 401              	.LVL37:
  95:C:/Users/stapi/OneDrive/Desktop/GD32VW553/V1_MQTT_OK/GD32VW55X_Wifi_BLE_SDK/GD32VW55x_RELEASE_V1.0.2/MSDK/mbedtls/mbedtls-2.17.0-ssl/library\debug.c ****     ret = mbedtls_vsnprintf( str, DEBUG_BUF_SIZE, format, argp );
 402              		.loc 1 95 5
 403 004c 36C6     		sw	a3,12(sp)
  96:C:/Users/stapi/OneDrive/Desktop/GD32VW553/V1_MQTT_OK/GD32VW55X_Wifi_BLE_SDK/GD32VW55x_RELEASE_V1.0.2/MSDK/mbedtls/mbedtls-2.17.0-ssl/library\debug.c ****     va_end( argp );
 404              		.loc 1 96 5 is_stmt 1
  96:C:/Users/stapi/OneDrive/Desktop/GD32VW553/V1_MQTT_OK/GD32VW55X_Wifi_BLE_SDK/GD32VW55x_RELEASE_V1.0.2/MSDK/mbedtls/mbedtls-2.17.0-ssl/library\debug.c ****     va_end( argp );
 405              		.loc 1 96 11 is_stmt 0
 406 004e 97000000 		call	vsnprintf
 406      E7800000 
 407              	.LVL38:
  97:C:/Users/stapi/OneDrive/Desktop/GD32VW553/V1_MQTT_OK/GD32VW55X_Wifi_BLE_SDK/GD32VW55x_RELEASE_V1.0.2/MSDK/mbedtls/mbedtls-2.17.0-ssl/library\debug.c **** 
 408              		.loc 1 97 5 is_stmt 1
  99:C:/Users/stapi/OneDrive/Desktop/GD32VW553/V1_MQTT_OK/GD32VW55X_Wifi_BLE_SDK/GD32VW55x_RELEASE_V1.0.2/MSDK/mbedtls/mbedtls-2.17.0-ssl/library\debug.c ****     {
 409              		.loc 1 99 5
  99:C:/Users/stapi/OneDrive/Desktop/GD32VW553/V1_MQTT_OK/GD32VW55X_Wifi_BLE_SDK/GD32VW55x_RELEASE_V1.0.2/MSDK/mbedtls/mbedtls-2.17.0-ssl/library\debug.c ****     {
 410              		.loc 1 99 7 is_stmt 0
 411 0056 9307E01F 		li	a5,510
 412 005a 63E9A700 		bgtu	a0,a5,.L41
 101:C:/Users/stapi/OneDrive/Desktop/GD32VW553/V1_MQTT_OK/GD32VW55X_Wifi_BLE_SDK/GD32VW55x_RELEASE_V1.0.2/MSDK/mbedtls/mbedtls-2.17.0-ssl/library\debug.c ****         str[ret + 1] = '\0';
 413              		.loc 1 101 9 is_stmt 1
 101:C:/Users/stapi/OneDrive/Desktop/GD32VW553/V1_MQTT_OK/GD32VW55X_Wifi_BLE_SDK/GD32VW55x_RELEASE_V1.0.2/MSDK/mbedtls/mbedtls-2.17.0-ssl/library\debug.c ****         str[ret + 1] = '\0';
 414              		.loc 1 101 22 is_stmt 0
 415 005e 1C0C     		addi	a5,sp,528
 416 0060 AA97     		add	a5,a5,a0
 417 0062 2947     		li	a4,10
 418 0064 2380E7E0 		sb	a4,-512(a5)
 102:C:/Users/stapi/OneDrive/Desktop/GD32VW553/V1_MQTT_OK/GD32VW55X_Wifi_BLE_SDK/GD32VW55x_RELEASE_V1.0.2/MSDK/mbedtls/mbedtls-2.17.0-ssl/library\debug.c ****     }
 419              		.loc 1 102 9 is_stmt 1
 102:C:/Users/stapi/OneDrive/Desktop/GD32VW553/V1_MQTT_OK/GD32VW55X_Wifi_BLE_SDK/GD32VW55x_RELEASE_V1.0.2/MSDK/mbedtls/mbedtls-2.17.0-ssl/library\debug.c ****     }
 420              		.loc 1 102 22 is_stmt 0
 421 0068 A38007E0 		sb	zero,-511(a5)
 422              	.L41:
 105:C:/Users/stapi/OneDrive/Desktop/GD32VW553/V1_MQTT_OK/GD32VW55X_Wifi_BLE_SDK/GD32VW55x_RELEASE_V1.0.2/MSDK/mbedtls/mbedtls-2.17.0-ssl/library\debug.c **** }
 423              		.loc 1 105 5 is_stmt 1
 424 006c 1808     		addi	a4,sp,16
 425 006e CE86     		mv	a3,s3
 426 0070 4A86     		mv	a2,s2
 427 0072 A685     		mv	a1,s1
 428 0074 2285     		mv	a0,s0
 429              	.LVL39:
 430 0076 97000000 		call	debug_send_line
 430      E7800000 
 431              	.LVL40:
 432              	.L37:
 106:C:/Users/stapi/OneDrive/Desktop/GD32VW553/V1_MQTT_OK/GD32VW55X_Wifi_BLE_SDK/GD32VW55x_RELEASE_V1.0.2/MSDK/mbedtls/mbedtls-2.17.0-ssl/library\debug.c **** 
 433              		.loc 1 106 1 is_stmt 0
 434 007e 8320C122 		lw	ra,556(sp)
 435              		.cfi_restore 1
 436 0082 03248122 		lw	s0,552(sp)
 437              		.cfi_restore 8
 438 0086 83244122 		lw	s1,548(sp)
 439              		.cfi_restore 9
 440 008a 03290122 		lw	s2,544(sp)
 441              		.cfi_restore 18
 442 008e 8329C121 		lw	s3,540(sp)
 443              		.cfi_restore 19
 444 0092 13010124 		addi	sp,sp,576
 445              		.cfi_def_cfa_offset 0
 446 0096 8280     		jr	ra
 447              		.cfi_endproc
 448              	.LFE385:
 450              		.section	.rodata.mbedtls_debug_print_ret.str1.4,"aMS",@progbits,1
 451              		.align	2
 452              	.LC4:
 453 0000 25732829 		.string	"%s() returned %d (-0x%04x)\r\n"
 453      20726574 
 453      75726E65 
 453      64202564 
 453      20282D30 
 454              		.section	.text.mbedtls_debug_print_ret,"ax",@progbits
 455              		.align	1
 456              		.globl	mbedtls_debug_print_ret
 458              	mbedtls_debug_print_ret:
 459              	.LFB386:
 111:C:/Users/stapi/OneDrive/Desktop/GD32VW553/V1_MQTT_OK/GD32VW55X_Wifi_BLE_SDK/GD32VW55x_RELEASE_V1.0.2/MSDK/mbedtls/mbedtls-2.17.0-ssl/library\debug.c ****     char str[DEBUG_BUF_SIZE];
 460              		.loc 1 111 1 is_stmt 1
 461              		.cfi_startproc
 462              	.LVL41:
 463 0000 17030000 		call	t0,__riscv_save_4
 463      E7020300 
 464              		.cfi_offset 19, -20
 465              		.cfi_offset 18, -16
 466              		.cfi_offset 9, -12
 467              		.cfi_offset 8, -8
 468              		.cfi_offset 1, -4
 469              		.cfi_def_cfa_offset 32
 112:C:/Users/stapi/OneDrive/Desktop/GD32VW553/V1_MQTT_OK/GD32VW55X_Wifi_BLE_SDK/GD32VW55x_RELEASE_V1.0.2/MSDK/mbedtls/mbedtls-2.17.0-ssl/library\debug.c **** 
 470              		.loc 1 112 5
 114:C:/Users/stapi/OneDrive/Desktop/GD32VW553/V1_MQTT_OK/GD32VW55X_Wifi_BLE_SDK/GD32VW55x_RELEASE_V1.0.2/MSDK/mbedtls/mbedtls-2.17.0-ssl/library\debug.c ****         return;
 471              		.loc 1 114 5
 111:C:/Users/stapi/OneDrive/Desktop/GD32VW553/V1_MQTT_OK/GD32VW55X_Wifi_BLE_SDK/GD32VW55x_RELEASE_V1.0.2/MSDK/mbedtls/mbedtls-2.17.0-ssl/library\debug.c ****     char str[DEBUG_BUF_SIZE];
 472              		.loc 1 111 1 is_stmt 0
 473 0008 B689     		mv	s3,a3
 474 000a BA86     		mv	a3,a4
 475              	.LVL42:
 476 000c 3E87     		mv	a4,a5
 477              	.LVL43:
 114:C:/Users/stapi/OneDrive/Desktop/GD32VW553/V1_MQTT_OK/GD32VW55X_Wifi_BLE_SDK/GD32VW55x_RELEASE_V1.0.2/MSDK/mbedtls/mbedtls-2.17.0-ssl/library\debug.c ****         return;
 478              		.loc 1 114 12
 479 000e 1C41     		lw	a5,0(a0)
 480              	.LVL44:
 111:C:/Users/stapi/OneDrive/Desktop/GD32VW553/V1_MQTT_OK/GD32VW55X_Wifi_BLE_SDK/GD32VW55x_RELEASE_V1.0.2/MSDK/mbedtls/mbedtls-2.17.0-ssl/library\debug.c ****     char str[DEBUG_BUF_SIZE];
 481              		.loc 1 111 1
 482 0010 0171     		addi	sp,sp,-512
 483              		.cfi_def_cfa_offset 544
 114:C:/Users/stapi/OneDrive/Desktop/GD32VW553/V1_MQTT_OK/GD32VW55X_Wifi_BLE_SDK/GD32VW55x_RELEASE_V1.0.2/MSDK/mbedtls/mbedtls-2.17.0-ssl/library\debug.c ****         return;
 484              		.loc 1 114 7
 485 0012 B9C7     		beq	a5,zero,.L52
 114:C:/Users/stapi/OneDrive/Desktop/GD32VW553/V1_MQTT_OK/GD32VW55X_Wifi_BLE_SDK/GD32VW55x_RELEASE_V1.0.2/MSDK/mbedtls/mbedtls-2.17.0-ssl/library\debug.c ****         return;
 486              		.loc 1 114 27 discriminator 1
 487 0014 9C4B     		lw	a5,16(a5)
 488 0016 A9C7     		beq	a5,zero,.L52
 114:C:/Users/stapi/OneDrive/Desktop/GD32VW553/V1_MQTT_OK/GD32VW55X_Wifi_BLE_SDK/GD32VW55x_RELEASE_V1.0.2/MSDK/mbedtls/mbedtls-2.17.0-ssl/library\debug.c ****         return;
 489              		.loc 1 114 55 discriminator 2
 490 0018 B7070000 		lui	a5,%hi(.LANCHOR0)
 491 001c 83A70700 		lw	a5,%lo(.LANCHOR0)(a5)
 492 0020 AE84     		mv	s1,a1
 493 0022 63CFB702 		blt	a5,a1,.L52
 122:C:/Users/stapi/OneDrive/Desktop/GD32VW553/V1_MQTT_OK/GD32VW55X_Wifi_BLE_SDK/GD32VW55x_RELEASE_V1.0.2/MSDK/mbedtls/mbedtls-2.17.0-ssl/library\debug.c ****         return;
 494              		.loc 1 122 5 is_stmt 1
 122:C:/Users/stapi/OneDrive/Desktop/GD32VW553/V1_MQTT_OK/GD32VW55X_Wifi_BLE_SDK/GD32VW55x_RELEASE_V1.0.2/MSDK/mbedtls/mbedtls-2.17.0-ssl/library\debug.c ****         return;
 495              		.loc 1 122 7 is_stmt 0
 496 0026 E577     		li	a5,-28672
 497 0028 93870770 		addi	a5,a5,1792
 498 002c 630AF702 		beq	a4,a5,.L52
 499 0030 3289     		mv	s2,a2
 125:C:/Users/stapi/OneDrive/Desktop/GD32VW553/V1_MQTT_OK/GD32VW55X_Wifi_BLE_SDK/GD32VW55x_RELEASE_V1.0.2/MSDK/mbedtls/mbedtls-2.17.0-ssl/library\debug.c ****               text, ret, -ret );
 500              		.loc 1 125 5 is_stmt 1
 501 0032 37060000 		lui	a2,%hi(.LC4)
 502              	.LVL45:
 503 0036 2A84     		mv	s0,a0
 504 0038 B307E040 		neg	a5,a4
 505 003c 13060600 		addi	a2,a2,%lo(.LC4)
 506 0040 93050020 		li	a1,512
 507              	.LVL46:
 508 0044 0A85     		mv	a0,sp
 509              	.LVL47:
 510 0046 97000000 		call	snprintf
 510      E7800000 
 511              	.LVL48:
 128:C:/Users/stapi/OneDrive/Desktop/GD32VW553/V1_MQTT_OK/GD32VW55X_Wifi_BLE_SDK/GD32VW55x_RELEASE_V1.0.2/MSDK/mbedtls/mbedtls-2.17.0-ssl/library\debug.c **** }
 512              		.loc 1 128 5
 513 004e 0A87     		mv	a4,sp
 514 0050 CE86     		mv	a3,s3
 515 0052 4A86     		mv	a2,s2
 516 0054 A685     		mv	a1,s1
 517 0056 2285     		mv	a0,s0
 518 0058 97000000 		call	debug_send_line
 518      E7800000 
 519              	.LVL49:
 520              	.L52:
 129:C:/Users/stapi/OneDrive/Desktop/GD32VW553/V1_MQTT_OK/GD32VW55X_Wifi_BLE_SDK/GD32VW55x_RELEASE_V1.0.2/MSDK/mbedtls/mbedtls-2.17.0-ssl/library\debug.c **** 
 521              		.loc 1 129 1 is_stmt 0
 522 0060 13010120 		addi	sp,sp,512
 523              		.cfi_def_cfa_offset 0
 524 0064 17030000 		tail	__riscv_restore_4
 524      67000300 
 525              		.cfi_restore 19
 526              		.cfi_restore 18
 527              		.cfi_restore 9
 528              		.cfi_restore 8
 529              		.cfi_restore 1
 530              		.cfi_def_cfa_offset -32
 531              		.cfi_endproc
 532              	.LFE386:
 534              		.section	.rodata.mbedtls_debug_print_buf.str1.4,"aMS",@progbits,1
 535              		.align	2
 536              	.LC5:
 537 0000 64756D70 		.string	"dumping '%s' (%u bytes)\r\n"
 537      696E6720 
 537      27257327 
 537      20282575 
 537      20627974 
 538 001a 0000     		.align	2
 539              	.LC6:
 540 001c 20202573 		.string	"  %s\r\n"
 540      0D0A00
 541 0023 00       		.align	2
 542              	.LC7:
 543 0024 25303478 		.string	"%04x: "
 543      3A2000
 544 002b 00       		.align	2
 545              	.LC8:
 546 002c 20202000 		.string	"   "
 547              		.section	.text.mbedtls_debug_print_buf,"ax",@progbits
 548              		.align	1
 549              		.globl	mbedtls_debug_print_buf
 551              	mbedtls_debug_print_buf:
 552              	.LFB387:
 134:C:/Users/stapi/OneDrive/Desktop/GD32VW553/V1_MQTT_OK/GD32VW55X_Wifi_BLE_SDK/GD32VW55x_RELEASE_V1.0.2/MSDK/mbedtls/mbedtls-2.17.0-ssl/library\debug.c ****     char str[DEBUG_BUF_SIZE];
 553              		.loc 1 134 1 is_stmt 1
 554              		.cfi_startproc
 555              	.LVL50:
 556 0000 17030000 		call	t0,__riscv_save_12
 556      E7020300 
 557              		.cfi_offset 27, -52
 558              		.cfi_offset 26, -48
 559              		.cfi_offset 25, -44
 560              		.cfi_offset 24, -40
 561              		.cfi_offset 23, -36
 562              		.cfi_offset 22, -32
 563              		.cfi_offset 21, -28
 564              		.cfi_offset 20, -24
 565              		.cfi_offset 19, -20
 566              		.cfi_offset 18, -16
 567              		.cfi_offset 9, -12
 568              		.cfi_offset 8, -8
 569              		.cfi_offset 1, -4
 570              		.cfi_def_cfa_offset 64
 135:C:/Users/stapi/OneDrive/Desktop/GD32VW553/V1_MQTT_OK/GD32VW55X_Wifi_BLE_SDK/GD32VW55x_RELEASE_V1.0.2/MSDK/mbedtls/mbedtls-2.17.0-ssl/library\debug.c ****     char txt[17];
 571              		.loc 1 135 5
 136:C:/Users/stapi/OneDrive/Desktop/GD32VW553/V1_MQTT_OK/GD32VW55X_Wifi_BLE_SDK/GD32VW55x_RELEASE_V1.0.2/MSDK/mbedtls/mbedtls-2.17.0-ssl/library\debug.c ****     size_t i, idx = 0;
 572              		.loc 1 136 5
 137:C:/Users/stapi/OneDrive/Desktop/GD32VW553/V1_MQTT_OK/GD32VW55X_Wifi_BLE_SDK/GD32VW55x_RELEASE_V1.0.2/MSDK/mbedtls/mbedtls-2.17.0-ssl/library\debug.c **** 
 573              		.loc 1 137 5
 574              	.LVL51:
 139:C:/Users/stapi/OneDrive/Desktop/GD32VW553/V1_MQTT_OK/GD32VW55X_Wifi_BLE_SDK/GD32VW55x_RELEASE_V1.0.2/MSDK/mbedtls/mbedtls-2.17.0-ssl/library\debug.c ****         return;
 575              		.loc 1 139 5
 134:C:/Users/stapi/OneDrive/Desktop/GD32VW553/V1_MQTT_OK/GD32VW55X_Wifi_BLE_SDK/GD32VW55x_RELEASE_V1.0.2/MSDK/mbedtls/mbedtls-2.17.0-ssl/library\debug.c ****     char str[DEBUG_BUF_SIZE];
 576              		.loc 1 134 1 is_stmt 0
 577 0008 130101DD 		addi	sp,sp,-560
 578              		.cfi_def_cfa_offset 624
 134:C:/Users/stapi/OneDrive/Desktop/GD32VW553/V1_MQTT_OK/GD32VW55X_Wifi_BLE_SDK/GD32VW55x_RELEASE_V1.0.2/MSDK/mbedtls/mbedtls-2.17.0-ssl/library\debug.c ****     char str[DEBUG_BUF_SIZE];
 579              		.loc 1 134 1
 580 000c 3EC4     		sw	a5,8(sp)
 139:C:/Users/stapi/OneDrive/Desktop/GD32VW553/V1_MQTT_OK/GD32VW55X_Wifi_BLE_SDK/GD32VW55x_RELEASE_V1.0.2/MSDK/mbedtls/mbedtls-2.17.0-ssl/library\debug.c ****         return;
 581              		.loc 1 139 12
 582 000e 1C41     		lw	a5,0(a0)
 583              	.LVL52:
 139:C:/Users/stapi/OneDrive/Desktop/GD32VW553/V1_MQTT_OK/GD32VW55X_Wifi_BLE_SDK/GD32VW55x_RELEASE_V1.0.2/MSDK/mbedtls/mbedtls-2.17.0-ssl/library\debug.c ****         return;
 584              		.loc 1 139 7
 585 0010 CDCF     		beq	a5,zero,.L62
 139:C:/Users/stapi/OneDrive/Desktop/GD32VW553/V1_MQTT_OK/GD32VW55X_Wifi_BLE_SDK/GD32VW55x_RELEASE_V1.0.2/MSDK/mbedtls/mbedtls-2.17.0-ssl/library\debug.c ****         return;
 586              		.loc 1 139 27 discriminator 1
 587 0012 9C4B     		lw	a5,16(a5)
 588 0014 DDCB     		beq	a5,zero,.L62
 139:C:/Users/stapi/OneDrive/Desktop/GD32VW553/V1_MQTT_OK/GD32VW55X_Wifi_BLE_SDK/GD32VW55x_RELEASE_V1.0.2/MSDK/mbedtls/mbedtls-2.17.0-ssl/library\debug.c ****         return;
 589              		.loc 1 139 55 discriminator 2
 590 0016 B7070000 		lui	a5,%hi(.LANCHOR0)
 591 001a 83A70700 		lw	a5,%lo(.LANCHOR0)(a5)
 592 001e AE84     		mv	s1,a1
 593 0020 63C5B70A 		blt	a5,a1,.L62
 594 0024 3289     		mv	s2,a2
 142:C:/Users/stapi/OneDrive/Desktop/GD32VW553/V1_MQTT_OK/GD32VW55X_Wifi_BLE_SDK/GD32VW55x_RELEASE_V1.0.2/MSDK/mbedtls/mbedtls-2.17.0-ssl/library\debug.c ****               text, (unsigned int) len );
 595              		.loc 1 142 5
 596 0026 37060000 		lui	a2,%hi(.LC5)
 597              	.LVL53:
 598 002a 2A84     		mv	s0,a0
 599 002c B689     		mv	s3,a3
 600 002e 13060600 		addi	a2,a2,%lo(.LC5)
 601 0032 BA86     		mv	a3,a4
 602              	.LVL54:
 603 0034 93050020 		li	a1,512
 604              	.LVL55:
 605 0038 4287     		mv	a4,a6
 606              	.LVL56:
 607 003a 0818     		addi	a0,sp,48
 608              	.LVL57:
 609 003c 428A     		mv	s4,a6
 142:C:/Users/stapi/OneDrive/Desktop/GD32VW553/V1_MQTT_OK/GD32VW55X_Wifi_BLE_SDK/GD32VW55x_RELEASE_V1.0.2/MSDK/mbedtls/mbedtls-2.17.0-ssl/library\debug.c ****               text, (unsigned int) len );
 610              		.loc 1 142 5 is_stmt 1
 611 003e 97000000 		call	snprintf
 611      E7800000 
 612              	.LVL58:
 145:C:/Users/stapi/OneDrive/Desktop/GD32VW553/V1_MQTT_OK/GD32VW55X_Wifi_BLE_SDK/GD32VW55x_RELEASE_V1.0.2/MSDK/mbedtls/mbedtls-2.17.0-ssl/library\debug.c **** 
 613              		.loc 1 145 5
 614 0046 1818     		addi	a4,sp,48
 615 0048 CE86     		mv	a3,s3
 616 004a 4A86     		mv	a2,s2
 617 004c A685     		mv	a1,s1
 618 004e 2285     		mv	a0,s0
 619 0050 97000000 		call	debug_send_line
 619      E7800000 
 620              	.LVL59:
 147:C:/Users/stapi/OneDrive/Desktop/GD32VW553/V1_MQTT_OK/GD32VW55X_Wifi_BLE_SDK/GD32VW55x_RELEASE_V1.0.2/MSDK/mbedtls/mbedtls-2.17.0-ssl/library\debug.c ****     memset( txt, 0, sizeof( txt ) );
 621              		.loc 1 147 5
 148:C:/Users/stapi/OneDrive/Desktop/GD32VW553/V1_MQTT_OK/GD32VW55X_Wifi_BLE_SDK/GD32VW55x_RELEASE_V1.0.2/MSDK/mbedtls/mbedtls-2.17.0-ssl/library\debug.c ****     for( i = 0; i < len; i++ )
 622              		.loc 1 148 5
 147:C:/Users/stapi/OneDrive/Desktop/GD32VW553/V1_MQTT_OK/GD32VW55X_Wifi_BLE_SDK/GD32VW55x_RELEASE_V1.0.2/MSDK/mbedtls/mbedtls-2.17.0-ssl/library\debug.c ****     memset( txt, 0, sizeof( txt ) );
 623              		.loc 1 147 9 is_stmt 0
 624 0058 814B     		li	s7,0
 148:C:/Users/stapi/OneDrive/Desktop/GD32VW553/V1_MQTT_OK/GD32VW55X_Wifi_BLE_SDK/GD32VW55x_RELEASE_V1.0.2/MSDK/mbedtls/mbedtls-2.17.0-ssl/library\debug.c ****     for( i = 0; i < len; i++ )
 625              		.loc 1 148 5
 626 005a 02CE     		sw	zero,28(sp)
 627 005c 02D0     		sw	zero,32(sp)
 628 005e 02D2     		sw	zero,36(sp)
 629 0060 02D4     		sw	zero,40(sp)
 630 0062 23060102 		sb	zero,44(sp)
 149:C:/Users/stapi/OneDrive/Desktop/GD32VW553/V1_MQTT_OK/GD32VW55X_Wifi_BLE_SDK/GD32VW55x_RELEASE_V1.0.2/MSDK/mbedtls/mbedtls-2.17.0-ssl/library\debug.c ****     {
 631              		.loc 1 149 5 is_stmt 1
 632              	.LVL60:
 149:C:/Users/stapi/OneDrive/Desktop/GD32VW553/V1_MQTT_OK/GD32VW55X_Wifi_BLE_SDK/GD32VW55x_RELEASE_V1.0.2/MSDK/mbedtls/mbedtls-2.17.0-ssl/library\debug.c ****     {
 633              		.loc 1 149 12 is_stmt 0
 634 0066 014C     		li	s8,0
 165:C:/Users/stapi/OneDrive/Desktop/GD32VW553/V1_MQTT_OK/GD32VW55X_Wifi_BLE_SDK/GD32VW55x_RELEASE_V1.0.2/MSDK/mbedtls/mbedtls-2.17.0-ssl/library\debug.c ****                              (unsigned int) i );
 635              		.loc 1 165 20
 636 0068 130B0020 		li	s6,512
 158:C:/Users/stapi/OneDrive/Desktop/GD32VW553/V1_MQTT_OK/GD32VW55X_Wifi_BLE_SDK/GD32VW55x_RELEASE_V1.0.2/MSDK/mbedtls/mbedtls-2.17.0-ssl/library\debug.c ****                 debug_send_line( ssl, level, file, line, str );
 637              		.loc 1 158 17
 638 006c B70C0000 		lui	s9,%hi(.LC6)
 170:C:/Users/stapi/OneDrive/Desktop/GD32VW553/V1_MQTT_OK/GD32VW55X_Wifi_BLE_SDK/GD32VW55x_RELEASE_V1.0.2/MSDK/mbedtls/mbedtls-2.17.0-ssl/library\debug.c ****                          (unsigned int) buf[i] );
 639              		.loc 1 170 16
 640 0070 370D0000 		lui	s10,%hi(.LC2)
 172:C:/Users/stapi/OneDrive/Desktop/GD32VW553/V1_MQTT_OK/GD32VW55X_Wifi_BLE_SDK/GD32VW55x_RELEASE_V1.0.2/MSDK/mbedtls/mbedtls-2.17.0-ssl/library\debug.c ****     }
 641              		.loc 1 172 21
 642 0074 930DE005 		li	s11,94
 643              	.LVL61:
 644              	.L67:
 149:C:/Users/stapi/OneDrive/Desktop/GD32VW553/V1_MQTT_OK/GD32VW55X_Wifi_BLE_SDK/GD32VW55x_RELEASE_V1.0.2/MSDK/mbedtls/mbedtls-2.17.0-ssl/library\debug.c ****     {
 645              		.loc 1 149 17 is_stmt 1 discriminator 2
 149:C:/Users/stapi/OneDrive/Desktop/GD32VW553/V1_MQTT_OK/GD32VW55X_Wifi_BLE_SDK/GD32VW55x_RELEASE_V1.0.2/MSDK/mbedtls/mbedtls-2.17.0-ssl/library\debug.c ****     {
 646              		.loc 1 149 5 is_stmt 0 discriminator 2
 647 0078 631F4C05 		bne	s8,s4,.L72
 175:C:/Users/stapi/OneDrive/Desktop/GD32VW553/V1_MQTT_OK/GD32VW55X_Wifi_BLE_SDK/GD32VW55x_RELEASE_V1.0.2/MSDK/mbedtls/mbedtls-2.17.0-ssl/library\debug.c ****     {
 648              		.loc 1 175 5 is_stmt 1
 175:C:/Users/stapi/OneDrive/Desktop/GD32VW553/V1_MQTT_OK/GD32VW55X_Wifi_BLE_SDK/GD32VW55x_RELEASE_V1.0.2/MSDK/mbedtls/mbedtls-2.17.0-ssl/library\debug.c ****     {
 649              		.loc 1 175 7 is_stmt 0
 650 007c 63070C04 		beq	s8,zero,.L62
 178:C:/Users/stapi/OneDrive/Desktop/GD32VW553/V1_MQTT_OK/GD32VW55X_Wifi_BLE_SDK/GD32VW55x_RELEASE_V1.0.2/MSDK/mbedtls/mbedtls-2.17.0-ssl/library\debug.c **** 
 651              		.loc 1 178 20
 652 0080 130A0020 		li	s4,512
 653              	.LVL62:
 654 0084 B70A0000 		lui	s5,%hi(.LC8)
 655              	.L73:
 177:C:/Users/stapi/OneDrive/Desktop/GD32VW553/V1_MQTT_OK/GD32VW55X_Wifi_BLE_SDK/GD32VW55x_RELEASE_V1.0.2/MSDK/mbedtls/mbedtls-2.17.0-ssl/library\debug.c ****             idx += mbedtls_snprintf( str + idx, sizeof( str ) - idx, "   " );
 656              		.loc 1 177 27 is_stmt 1 discriminator 1
 178:C:/Users/stapi/OneDrive/Desktop/GD32VW553/V1_MQTT_OK/GD32VW55X_Wifi_BLE_SDK/GD32VW55x_RELEASE_V1.0.2/MSDK/mbedtls/mbedtls-2.17.0-ssl/library\debug.c **** 
 657              		.loc 1 178 20 is_stmt 0 discriminator 1
 658 0088 1C18     		addi	a5,sp,48
 177:C:/Users/stapi/OneDrive/Desktop/GD32VW553/V1_MQTT_OK/GD32VW55X_Wifi_BLE_SDK/GD32VW55x_RELEASE_V1.0.2/MSDK/mbedtls/mbedtls-2.17.0-ssl/library\debug.c ****             idx += mbedtls_snprintf( str + idx, sizeof( str ) - idx, "   " );
 659              		.loc 1 177 29 discriminator 1
 660 008a 1377FC00 		andi	a4,s8,15
 178:C:/Users/stapi/OneDrive/Desktop/GD32VW553/V1_MQTT_OK/GD32VW55X_Wifi_BLE_SDK/GD32VW55x_RELEASE_V1.0.2/MSDK/mbedtls/mbedtls-2.17.0-ssl/library\debug.c **** 
 661              		.loc 1 178 20 discriminator 1
 662 008e 33857701 		add	a0,a5,s7
 663 0092 B3057A41 		sub	a1,s4,s7
 177:C:/Users/stapi/OneDrive/Desktop/GD32VW553/V1_MQTT_OK/GD32VW55X_Wifi_BLE_SDK/GD32VW55x_RELEASE_V1.0.2/MSDK/mbedtls/mbedtls-2.17.0-ssl/library\debug.c ****             idx += mbedtls_snprintf( str + idx, sizeof( str ) - idx, "   " );
 664              		.loc 1 177 9 discriminator 1
 665 0096 7DE7     		bne	a4,zero,.L74
 666              	.L68:
 667              	.LVL63:
 180:C:/Users/stapi/OneDrive/Desktop/GD32VW553/V1_MQTT_OK/GD32VW55X_Wifi_BLE_SDK/GD32VW55x_RELEASE_V1.0.2/MSDK/mbedtls/mbedtls-2.17.0-ssl/library\debug.c ****         debug_send_line( ssl, level, file, line, str );
 668              		.loc 1 180 9 is_stmt 1
 669 0098 1C18     		addi	a5,sp,48
 670 009a 37060000 		lui	a2,%hi(.LC6)
 671 009e 93050020 		li	a1,512
 672 00a2 7408     		addi	a3,sp,28
 673 00a4 13060600 		addi	a2,a2,%lo(.LC6)
 674 00a8 B3857541 		sub	a1,a1,s7
 675 00ac 33857701 		add	a0,a5,s7
 676 00b0 97000000 		call	snprintf
 676      E7800000 
 677              	.LVL64:
 181:C:/Users/stapi/OneDrive/Desktop/GD32VW553/V1_MQTT_OK/GD32VW55X_Wifi_BLE_SDK/GD32VW55x_RELEASE_V1.0.2/MSDK/mbedtls/mbedtls-2.17.0-ssl/library\debug.c ****     }
 678              		.loc 1 181 9
 679 00b8 1818     		addi	a4,sp,48
 680 00ba CE86     		mv	a3,s3
 681 00bc 4A86     		mv	a2,s2
 682 00be A685     		mv	a1,s1
 683 00c0 2285     		mv	a0,s0
 684 00c2 97000000 		call	debug_send_line
 684      E7800000 
 685              	.LVL65:
 686              	.L62:
 183:C:/Users/stapi/OneDrive/Desktop/GD32VW553/V1_MQTT_OK/GD32VW55X_Wifi_BLE_SDK/GD32VW55x_RELEASE_V1.0.2/MSDK/mbedtls/mbedtls-2.17.0-ssl/library\debug.c **** 
 687              		.loc 1 183 1 is_stmt 0
 688 00ca 13010123 		addi	sp,sp,560
 689              		.cfi_remember_state
 690              		.cfi_def_cfa_offset 0
 691              	.LVL66:
 692 00ce 17030000 		tail	__riscv_restore_12
 692      67000300 
 693              		.cfi_restore 27
 694              		.cfi_restore 26
 695              		.cfi_restore 25
 696              		.cfi_restore 24
 697              		.cfi_restore 23
 698              		.cfi_restore 22
 699              		.cfi_restore 21
 700              		.cfi_restore 20
 701              		.cfi_restore 19
 702              		.cfi_restore 18
 703              		.cfi_restore 9
 704              		.cfi_restore 8
 705              		.cfi_restore 1
 706              		.cfi_def_cfa_offset -64
 707              	.LVL67:
 708              	.L72:
 709              		.cfi_restore_state
 151:C:/Users/stapi/OneDrive/Desktop/GD32VW553/V1_MQTT_OK/GD32VW55X_Wifi_BLE_SDK/GD32VW55x_RELEASE_V1.0.2/MSDK/mbedtls/mbedtls-2.17.0-ssl/library\debug.c ****             break;
 710              		.loc 1 151 9 is_stmt 1
 151:C:/Users/stapi/OneDrive/Desktop/GD32VW553/V1_MQTT_OK/GD32VW55X_Wifi_BLE_SDK/GD32VW55x_RELEASE_V1.0.2/MSDK/mbedtls/mbedtls-2.17.0-ssl/library\debug.c ****             break;
 711              		.loc 1 151 11 is_stmt 0
 712 00d6 8567     		li	a5,4096
 713 00d8 E300FCFC 		beq	s8,a5,.L68
 154:C:/Users/stapi/OneDrive/Desktop/GD32VW553/V1_MQTT_OK/GD32VW55X_Wifi_BLE_SDK/GD32VW55x_RELEASE_V1.0.2/MSDK/mbedtls/mbedtls-2.17.0-ssl/library\debug.c ****         {
 714              		.loc 1 154 9 is_stmt 1
 154:C:/Users/stapi/OneDrive/Desktop/GD32VW553/V1_MQTT_OK/GD32VW55X_Wifi_BLE_SDK/GD32VW55x_RELEASE_V1.0.2/MSDK/mbedtls/mbedtls-2.17.0-ssl/library\debug.c ****         {
 715              		.loc 1 154 15 is_stmt 0
 716 00dc 937AFC00 		andi	s5,s8,15
 154:C:/Users/stapi/OneDrive/Desktop/GD32VW553/V1_MQTT_OK/GD32VW55X_Wifi_BLE_SDK/GD32VW55x_RELEASE_V1.0.2/MSDK/mbedtls/mbedtls-2.17.0-ssl/library\debug.c ****         {
 717              		.loc 1 154 11
 718 00e0 639F0A04 		bne	s5,zero,.L69
 156:C:/Users/stapi/OneDrive/Desktop/GD32VW553/V1_MQTT_OK/GD32VW55X_Wifi_BLE_SDK/GD32VW55x_RELEASE_V1.0.2/MSDK/mbedtls/mbedtls-2.17.0-ssl/library\debug.c ****             {
 719              		.loc 1 156 13 is_stmt 1
 156:C:/Users/stapi/OneDrive/Desktop/GD32VW553/V1_MQTT_OK/GD32VW55X_Wifi_BLE_SDK/GD32VW55x_RELEASE_V1.0.2/MSDK/mbedtls/mbedtls-2.17.0-ssl/library\debug.c ****             {
 720              		.loc 1 156 15 is_stmt 0
 721 00e4 630E0C02 		beq	s8,zero,.L70
 158:C:/Users/stapi/OneDrive/Desktop/GD32VW553/V1_MQTT_OK/GD32VW55X_Wifi_BLE_SDK/GD32VW55x_RELEASE_V1.0.2/MSDK/mbedtls/mbedtls-2.17.0-ssl/library\debug.c ****                 debug_send_line( ssl, level, file, line, str );
 722              		.loc 1 158 17 is_stmt 1
 723 00e8 1C18     		addi	a5,sp,48
 724 00ea B3057B41 		sub	a1,s6,s7
 725 00ee 33857701 		add	a0,a5,s7
 726 00f2 7408     		addi	a3,sp,28
 727 00f4 13860C00 		addi	a2,s9,%lo(.LC6)
 728 00f8 97000000 		call	snprintf
 728      E7800000 
 729              	.LVL68:
 159:C:/Users/stapi/OneDrive/Desktop/GD32VW553/V1_MQTT_OK/GD32VW55X_Wifi_BLE_SDK/GD32VW55x_RELEASE_V1.0.2/MSDK/mbedtls/mbedtls-2.17.0-ssl/library\debug.c **** 
 730              		.loc 1 159 17
 731 0100 1818     		addi	a4,sp,48
 732 0102 CE86     		mv	a3,s3
 733 0104 4A86     		mv	a2,s2
 734 0106 A685     		mv	a1,s1
 735 0108 2285     		mv	a0,s0
 736 010a 97000000 		call	debug_send_line
 736      E7800000 
 737              	.LVL69:
 161:C:/Users/stapi/OneDrive/Desktop/GD32VW553/V1_MQTT_OK/GD32VW55X_Wifi_BLE_SDK/GD32VW55x_RELEASE_V1.0.2/MSDK/mbedtls/mbedtls-2.17.0-ssl/library\debug.c ****                 memset( txt, 0, sizeof( txt ) );
 738              		.loc 1 161 17
 162:C:/Users/stapi/OneDrive/Desktop/GD32VW553/V1_MQTT_OK/GD32VW55X_Wifi_BLE_SDK/GD32VW55x_RELEASE_V1.0.2/MSDK/mbedtls/mbedtls-2.17.0-ssl/library\debug.c ****             }
 739              		.loc 1 162 17
 161:C:/Users/stapi/OneDrive/Desktop/GD32VW553/V1_MQTT_OK/GD32VW55X_Wifi_BLE_SDK/GD32VW55x_RELEASE_V1.0.2/MSDK/mbedtls/mbedtls-2.17.0-ssl/library\debug.c ****                 memset( txt, 0, sizeof( txt ) );
 740              		.loc 1 161 21 is_stmt 0
 741 0112 814B     		li	s7,0
 162:C:/Users/stapi/OneDrive/Desktop/GD32VW553/V1_MQTT_OK/GD32VW55X_Wifi_BLE_SDK/GD32VW55x_RELEASE_V1.0.2/MSDK/mbedtls/mbedtls-2.17.0-ssl/library\debug.c ****             }
 742              		.loc 1 162 17
 743 0114 02CE     		sw	zero,28(sp)
 744 0116 02D0     		sw	zero,32(sp)
 745 0118 02D2     		sw	zero,36(sp)
 746 011a 02D4     		sw	zero,40(sp)
 747 011c 23060102 		sb	zero,44(sp)
 748              	.LVL70:
 749              	.L70:
 165:C:/Users/stapi/OneDrive/Desktop/GD32VW553/V1_MQTT_OK/GD32VW55X_Wifi_BLE_SDK/GD32VW55x_RELEASE_V1.0.2/MSDK/mbedtls/mbedtls-2.17.0-ssl/library\debug.c ****                              (unsigned int) i );
 750              		.loc 1 165 13 is_stmt 1
 165:C:/Users/stapi/OneDrive/Desktop/GD32VW553/V1_MQTT_OK/GD32VW55X_Wifi_BLE_SDK/GD32VW55x_RELEASE_V1.0.2/MSDK/mbedtls/mbedtls-2.17.0-ssl/library\debug.c ****                              (unsigned int) i );
 751              		.loc 1 165 20 is_stmt 0
 752 0120 B7070000 		lui	a5,%hi(.LC7)
 753 0124 13860700 		addi	a2,a5,%lo(.LC7)
 754 0128 1C18     		addi	a5,sp,48
 755 012a B3057B41 		sub	a1,s6,s7
 756 012e 33857701 		add	a0,a5,s7
 757 0132 E286     		mv	a3,s8
 758 0134 97000000 		call	snprintf
 758      E7800000 
 759              	.LVL71:
 165:C:/Users/stapi/OneDrive/Desktop/GD32VW553/V1_MQTT_OK/GD32VW55X_Wifi_BLE_SDK/GD32VW55x_RELEASE_V1.0.2/MSDK/mbedtls/mbedtls-2.17.0-ssl/library\debug.c ****                              (unsigned int) i );
 760              		.loc 1 165 17
 761 013c AA9B     		add	s7,s7,a0
 762              	.LVL72:
 763              	.L69:
 170:C:/Users/stapi/OneDrive/Desktop/GD32VW553/V1_MQTT_OK/GD32VW55X_Wifi_BLE_SDK/GD32VW55x_RELEASE_V1.0.2/MSDK/mbedtls/mbedtls-2.17.0-ssl/library\debug.c ****                          (unsigned int) buf[i] );
 764              		.loc 1 170 9 is_stmt 1
 765 013e A247     		lw	a5,8(sp)
 170:C:/Users/stapi/OneDrive/Desktop/GD32VW553/V1_MQTT_OK/GD32VW55X_Wifi_BLE_SDK/GD32VW55x_RELEASE_V1.0.2/MSDK/mbedtls/mbedtls-2.17.0-ssl/library\debug.c ****                          (unsigned int) buf[i] );
 766              		.loc 1 170 16 is_stmt 0
 767 0140 B3057B41 		sub	a1,s6,s7
 768 0144 13060D00 		addi	a2,s10,%lo(.LC2)
 769 0148 33878701 		add	a4,a5,s8
 770 014c 83460700 		lbu	a3,0(a4)
 771 0150 1C18     		addi	a5,sp,48
 772 0152 33857701 		add	a0,a5,s7
 773 0156 3AC6     		sw	a4,12(sp)
 774 0158 97000000 		call	snprintf
 774      E7800000 
 775              	.LVL73:
 172:C:/Users/stapi/OneDrive/Desktop/GD32VW553/V1_MQTT_OK/GD32VW55X_Wifi_BLE_SDK/GD32VW55x_RELEASE_V1.0.2/MSDK/mbedtls/mbedtls-2.17.0-ssl/library\debug.c ****     }
 776              		.loc 1 172 28
 777 0160 3247     		lw	a4,12(sp)
 170:C:/Users/stapi/OneDrive/Desktop/GD32VW553/V1_MQTT_OK/GD32VW55X_Wifi_BLE_SDK/GD32VW55x_RELEASE_V1.0.2/MSDK/mbedtls/mbedtls-2.17.0-ssl/library\debug.c ****                          (unsigned int) buf[i] );
 778              		.loc 1 170 13
 779 0162 AA9B     		add	s7,s7,a0
 780              	.LVL74:
 172:C:/Users/stapi/OneDrive/Desktop/GD32VW553/V1_MQTT_OK/GD32VW55X_Wifi_BLE_SDK/GD32VW55x_RELEASE_V1.0.2/MSDK/mbedtls/mbedtls-2.17.0-ssl/library\debug.c ****     }
 781              		.loc 1 172 9 is_stmt 1
 172:C:/Users/stapi/OneDrive/Desktop/GD32VW553/V1_MQTT_OK/GD32VW55X_Wifi_BLE_SDK/GD32VW55x_RELEASE_V1.0.2/MSDK/mbedtls/mbedtls-2.17.0-ssl/library\debug.c ****     }
 782              		.loc 1 172 28 is_stmt 0
 783 0164 03470700 		lbu	a4,0(a4)
 172:C:/Users/stapi/OneDrive/Desktop/GD32VW553/V1_MQTT_OK/GD32VW55X_Wifi_BLE_SDK/GD32VW55x_RELEASE_V1.0.2/MSDK/mbedtls/mbedtls-2.17.0-ssl/library\debug.c ****     }
 784              		.loc 1 172 37
 785 0168 930607FE 		addi	a3,a4,-32
 172:C:/Users/stapi/OneDrive/Desktop/GD32VW553/V1_MQTT_OK/GD32VW55X_Wifi_BLE_SDK/GD32VW55x_RELEASE_V1.0.2/MSDK/mbedtls/mbedtls-2.17.0-ssl/library\debug.c ****     }
 786              		.loc 1 172 21
 787 016c 93F6F60F 		andi	a3,a3,0xff
 788 0170 63F4DD00 		bleu	a3,s11,.L71
 789 0174 1307E002 		li	a4,46
 790              	.L71:
 172:C:/Users/stapi/OneDrive/Desktop/GD32VW553/V1_MQTT_OK/GD32VW55X_Wifi_BLE_SDK/GD32VW55x_RELEASE_V1.0.2/MSDK/mbedtls/mbedtls-2.17.0-ssl/library\debug.c ****     }
 791              		.loc 1 172 21 discriminator 4
 792 0178 1C1C     		addi	a5,sp,560
 793              	.LVL75:
 794 017a BE9A     		add	s5,a5,s5
 795 017c 2386EADE 		sb	a4,-532(s5)
 149:C:/Users/stapi/OneDrive/Desktop/GD32VW553/V1_MQTT_OK/GD32VW55X_Wifi_BLE_SDK/GD32VW55x_RELEASE_V1.0.2/MSDK/mbedtls/mbedtls-2.17.0-ssl/library\debug.c ****     {
 796              		.loc 1 149 26 is_stmt 1 discriminator 4
 149:C:/Users/stapi/OneDrive/Desktop/GD32VW553/V1_MQTT_OK/GD32VW55X_Wifi_BLE_SDK/GD32VW55x_RELEASE_V1.0.2/MSDK/mbedtls/mbedtls-2.17.0-ssl/library\debug.c ****     {
 797              		.loc 1 149 27 is_stmt 0 discriminator 4
 798 0180 050C     		addi	s8,s8,1
 799              	.LVL76:
 800 0182 DDBD     		j	.L67
 801              	.LVL77:
 802              	.L74:
 178:C:/Users/stapi/OneDrive/Desktop/GD32VW553/V1_MQTT_OK/GD32VW55X_Wifi_BLE_SDK/GD32VW55x_RELEASE_V1.0.2/MSDK/mbedtls/mbedtls-2.17.0-ssl/library\debug.c **** 
 803              		.loc 1 178 13 is_stmt 1 discriminator 2
 178:C:/Users/stapi/OneDrive/Desktop/GD32VW553/V1_MQTT_OK/GD32VW55X_Wifi_BLE_SDK/GD32VW55x_RELEASE_V1.0.2/MSDK/mbedtls/mbedtls-2.17.0-ssl/library\debug.c **** 
 804              		.loc 1 178 20 is_stmt 0 discriminator 2
 805 0184 13860A00 		addi	a2,s5,%lo(.LC8)
 806 0188 97000000 		call	snprintf
 806      E7800000 
 807              	.LVL78:
 178:C:/Users/stapi/OneDrive/Desktop/GD32VW553/V1_MQTT_OK/GD32VW55X_Wifi_BLE_SDK/GD32VW55x_RELEASE_V1.0.2/MSDK/mbedtls/mbedtls-2.17.0-ssl/library\debug.c **** 
 808              		.loc 1 178 17 discriminator 2
 809 0190 AA9B     		add	s7,s7,a0
 810              	.LVL79:
 177:C:/Users/stapi/OneDrive/Desktop/GD32VW553/V1_MQTT_OK/GD32VW55X_Wifi_BLE_SDK/GD32VW55x_RELEASE_V1.0.2/MSDK/mbedtls/mbedtls-2.17.0-ssl/library\debug.c ****             idx += mbedtls_snprintf( str + idx, sizeof( str ) - idx, "   " );
 811              		.loc 1 177 40 is_stmt 1 discriminator 2
 177:C:/Users/stapi/OneDrive/Desktop/GD32VW553/V1_MQTT_OK/GD32VW55X_Wifi_BLE_SDK/GD32VW55x_RELEASE_V1.0.2/MSDK/mbedtls/mbedtls-2.17.0-ssl/library\debug.c ****             idx += mbedtls_snprintf( str + idx, sizeof( str ) - idx, "   " );
 812              		.loc 1 177 41 is_stmt 0 discriminator 2
 813 0192 050C     		addi	s8,s8,1
 814              	.LVL80:
 815 0194 D5BD     		j	.L73
 816              		.cfi_endproc
 817              	.LFE387:
 819              		.section	.text.mbedtls_debug_print_mpi,"ax",@progbits
 820              		.align	1
 821              		.globl	mbedtls_debug_print_mpi
 823              	mbedtls_debug_print_mpi:
 824              	.LFB389:
 207:C:/Users/stapi/OneDrive/Desktop/GD32VW553/V1_MQTT_OK/GD32VW55X_Wifi_BLE_SDK/GD32VW55x_RELEASE_V1.0.2/MSDK/mbedtls/mbedtls-2.17.0-ssl/library\debug.c ****     char str[DEBUG_BUF_SIZE];
 825              		.loc 1 207 1 is_stmt 1
 826              		.cfi_startproc
 827              	.LVL81:
 208:C:/Users/stapi/OneDrive/Desktop/GD32VW553/V1_MQTT_OK/GD32VW55X_Wifi_BLE_SDK/GD32VW55x_RELEASE_V1.0.2/MSDK/mbedtls/mbedtls-2.17.0-ssl/library\debug.c ****     int j, k, zeros = 1;
 828              		.loc 1 208 5
 209:C:/Users/stapi/OneDrive/Desktop/GD32VW553/V1_MQTT_OK/GD32VW55X_Wifi_BLE_SDK/GD32VW55x_RELEASE_V1.0.2/MSDK/mbedtls/mbedtls-2.17.0-ssl/library\debug.c ****     size_t i, n, idx = 0;
 829              		.loc 1 209 5
 210:C:/Users/stapi/OneDrive/Desktop/GD32VW553/V1_MQTT_OK/GD32VW55X_Wifi_BLE_SDK/GD32VW55x_RELEASE_V1.0.2/MSDK/mbedtls/mbedtls-2.17.0-ssl/library\debug.c **** 
 830              		.loc 1 210 5
 212:C:/Users/stapi/OneDrive/Desktop/GD32VW553/V1_MQTT_OK/GD32VW55X_Wifi_BLE_SDK/GD32VW55x_RELEASE_V1.0.2/MSDK/mbedtls/mbedtls-2.17.0-ssl/library\debug.c ****         return;
 831              		.loc 1 212 5
 212:C:/Users/stapi/OneDrive/Desktop/GD32VW553/V1_MQTT_OK/GD32VW55X_Wifi_BLE_SDK/GD32VW55x_RELEASE_V1.0.2/MSDK/mbedtls/mbedtls-2.17.0-ssl/library\debug.c ****         return;
 832              		.loc 1 212 12 is_stmt 0
 833 0000 03230500 		lw	t1,0(a0)
 212:C:/Users/stapi/OneDrive/Desktop/GD32VW553/V1_MQTT_OK/GD32VW55X_Wifi_BLE_SDK/GD32VW55x_RELEASE_V1.0.2/MSDK/mbedtls/mbedtls-2.17.0-ssl/library\debug.c ****         return;
 834              		.loc 1 212 7
 835 0004 63010302 		beq	t1,zero,.L96
 212:C:/Users/stapi/OneDrive/Desktop/GD32VW553/V1_MQTT_OK/GD32VW55X_Wifi_BLE_SDK/GD32VW55x_RELEASE_V1.0.2/MSDK/mbedtls/mbedtls-2.17.0-ssl/library\debug.c ****         return;
 836              		.loc 1 212 27 discriminator 1
 837 0008 03230301 		lw	t1,16(t1)
 838 000c 630D0300 		beq	t1,zero,.L96
 212:C:/Users/stapi/OneDrive/Desktop/GD32VW553/V1_MQTT_OK/GD32VW55X_Wifi_BLE_SDK/GD32VW55x_RELEASE_V1.0.2/MSDK/mbedtls/mbedtls-2.17.0-ssl/library\debug.c ****         return;
 839              		.loc 1 212 55 discriminator 2
 840 0010 99CB     		beq	a5,zero,.L96
 212:C:/Users/stapi/OneDrive/Desktop/GD32VW553/V1_MQTT_OK/GD32VW55X_Wifi_BLE_SDK/GD32VW55x_RELEASE_V1.0.2/MSDK/mbedtls/mbedtls-2.17.0-ssl/library\debug.c ****         return;
 841              		.loc 1 212 68 discriminator 3
 842 0012 B7080000 		lui	a7,%hi(.LANCHOR0)
 843 0016 83A80800 		lw	a7,%lo(.LANCHOR0)(a7)
 844 001a 63C6B800 		blt	a7,a1,.L96
 845 001e 17030000 		tail	mbedtls_debug_print_mpi.part.0
 845      67000300 
 846              	.LVL82:
 847              	.L96:
 848 0026 8280     		ret
 849              		.cfi_endproc
 850              	.LFE389:
 852              		.section	.rodata.mbedtls_debug_print_ecp.part.0.str1.4,"aMS",@progbits,1
 853              		.align	2
 854              	.LC9:
 855 0000 25732858 		.string	"%s(X)"
 855      2900
 856 0006 0000     		.align	2
 857              	.LC10:
 858 0008 25732859 		.string	"%s(Y)"
 858      2900
 859              		.section	.text.mbedtls_debug_print_ecp.part.0,"ax",@progbits
 860              		.align	1
 862              	mbedtls_debug_print_ecp.part.0:
 863              	.LFB396:
 186:C:/Users/stapi/OneDrive/Desktop/GD32VW553/V1_MQTT_OK/GD32VW55X_Wifi_BLE_SDK/GD32VW55x_RELEASE_V1.0.2/MSDK/mbedtls/mbedtls-2.17.0-ssl/library\debug.c ****                       const char *file, int line,
 864              		.loc 1 186 6 is_stmt 1
 865              		.cfi_startproc
 866              	.LVL83:
 186:C:/Users/stapi/OneDrive/Desktop/GD32VW553/V1_MQTT_OK/GD32VW55X_Wifi_BLE_SDK/GD32VW55x_RELEASE_V1.0.2/MSDK/mbedtls/mbedtls-2.17.0-ssl/library\debug.c ****                       const char *file, int line,
 867              		.loc 1 186 6 is_stmt 0
 868 0000 17030000 		call	t0,__riscv_save_6
 868      E7020300 
 869              		.cfi_offset 21, -28
 870              		.cfi_offset 20, -24
 871              		.cfi_offset 19, -20
 872              		.cfi_offset 18, -16
 873              		.cfi_offset 9, -12
 874              		.cfi_offset 8, -8
 875              		.cfi_offset 1, -4
 876              		.cfi_def_cfa_offset 32
 195:C:/Users/stapi/OneDrive/Desktop/GD32VW553/V1_MQTT_OK/GD32VW55X_Wifi_BLE_SDK/GD32VW55x_RELEASE_V1.0.2/MSDK/mbedtls/mbedtls-2.17.0-ssl/library\debug.c ****     mbedtls_debug_print_mpi( ssl, level, file, line, str, &X->X );
 877              		.loc 1 195 5 is_stmt 1
 186:C:/Users/stapi/OneDrive/Desktop/GD32VW553/V1_MQTT_OK/GD32VW55X_Wifi_BLE_SDK/GD32VW55x_RELEASE_V1.0.2/MSDK/mbedtls/mbedtls-2.17.0-ssl/library\debug.c ****                       const char *file, int line,
 878              		.loc 1 186 6 is_stmt 0
 879 0008 0171     		addi	sp,sp,-512
 880              		.cfi_def_cfa_offset 544
 186:C:/Users/stapi/OneDrive/Desktop/GD32VW553/V1_MQTT_OK/GD32VW55X_Wifi_BLE_SDK/GD32VW55x_RELEASE_V1.0.2/MSDK/mbedtls/mbedtls-2.17.0-ssl/library\debug.c ****                       const char *file, int line,
 881              		.loc 1 186 6
 882 000a 3289     		mv	s2,a2
 195:C:/Users/stapi/OneDrive/Desktop/GD32VW553/V1_MQTT_OK/GD32VW55X_Wifi_BLE_SDK/GD32VW55x_RELEASE_V1.0.2/MSDK/mbedtls/mbedtls-2.17.0-ssl/library\debug.c ****     mbedtls_debug_print_mpi( ssl, level, file, line, str, &X->X );
 883              		.loc 1 195 5
 884 000c 37060000 		lui	a2,%hi(.LC9)
 885              	.LVL84:
 186:C:/Users/stapi/OneDrive/Desktop/GD32VW553/V1_MQTT_OK/GD32VW55X_Wifi_BLE_SDK/GD32VW55x_RELEASE_V1.0.2/MSDK/mbedtls/mbedtls-2.17.0-ssl/library\debug.c ****                       const char *file, int line,
 886              		.loc 1 186 6
 887 0010 2A84     		mv	s0,a0
 888 0012 AE84     		mv	s1,a1
 889 0014 B689     		mv	s3,a3
 195:C:/Users/stapi/OneDrive/Desktop/GD32VW553/V1_MQTT_OK/GD32VW55X_Wifi_BLE_SDK/GD32VW55x_RELEASE_V1.0.2/MSDK/mbedtls/mbedtls-2.17.0-ssl/library\debug.c ****     mbedtls_debug_print_mpi( ssl, level, file, line, str, &X->X );
 890              		.loc 1 195 5
 891 0016 13060600 		addi	a2,a2,%lo(.LC9)
 892 001a BA86     		mv	a3,a4
 893              	.LVL85:
 894 001c 93050020 		li	a1,512
 895              	.LVL86:
 896 0020 0A85     		mv	a0,sp
 897              	.LVL87:
 186:C:/Users/stapi/OneDrive/Desktop/GD32VW553/V1_MQTT_OK/GD32VW55X_Wifi_BLE_SDK/GD32VW55x_RELEASE_V1.0.2/MSDK/mbedtls/mbedtls-2.17.0-ssl/library\debug.c ****                       const char *file, int line,
 898              		.loc 1 186 6
 899 0022 BA8A     		mv	s5,a4
 900 0024 3E8A     		mv	s4,a5
 195:C:/Users/stapi/OneDrive/Desktop/GD32VW553/V1_MQTT_OK/GD32VW55X_Wifi_BLE_SDK/GD32VW55x_RELEASE_V1.0.2/MSDK/mbedtls/mbedtls-2.17.0-ssl/library\debug.c ****     mbedtls_debug_print_mpi( ssl, level, file, line, str, &X->X );
 901              		.loc 1 195 5
 902 0026 97000000 		call	snprintf
 902      E7800000 
 903              	.LVL88:
 196:C:/Users/stapi/OneDrive/Desktop/GD32VW553/V1_MQTT_OK/GD32VW55X_Wifi_BLE_SDK/GD32VW55x_RELEASE_V1.0.2/MSDK/mbedtls/mbedtls-2.17.0-ssl/library\debug.c **** 
 904              		.loc 1 196 5 is_stmt 1
 905 002e D287     		mv	a5,s4
 906 0030 0A87     		mv	a4,sp
 907 0032 CE86     		mv	a3,s3
 908 0034 4A86     		mv	a2,s2
 909 0036 A685     		mv	a1,s1
 910 0038 2285     		mv	a0,s0
 911 003a 97000000 		call	mbedtls_debug_print_mpi
 911      E7800000 
 912              	.LVL89:
 198:C:/Users/stapi/OneDrive/Desktop/GD32VW553/V1_MQTT_OK/GD32VW55X_Wifi_BLE_SDK/GD32VW55x_RELEASE_V1.0.2/MSDK/mbedtls/mbedtls-2.17.0-ssl/library\debug.c ****     mbedtls_debug_print_mpi( ssl, level, file, line, str, &X->Y );
 913              		.loc 1 198 5
 914 0042 37060000 		lui	a2,%hi(.LC10)
 915 0046 D686     		mv	a3,s5
 916 0048 13060600 		addi	a2,a2,%lo(.LC10)
 917 004c 93050020 		li	a1,512
 918 0050 0A85     		mv	a0,sp
 919 0052 97000000 		call	snprintf
 919      E7800000 
 920              	.LVL90:
 199:C:/Users/stapi/OneDrive/Desktop/GD32VW553/V1_MQTT_OK/GD32VW55X_Wifi_BLE_SDK/GD32VW55x_RELEASE_V1.0.2/MSDK/mbedtls/mbedtls-2.17.0-ssl/library\debug.c **** }
 921              		.loc 1 199 5
 922 005a 0A87     		mv	a4,sp
 923 005c 9307CA00 		addi	a5,s4,12
 924 0060 CE86     		mv	a3,s3
 925 0062 4A86     		mv	a2,s2
 926 0064 A685     		mv	a1,s1
 927 0066 2285     		mv	a0,s0
 928 0068 97000000 		call	mbedtls_debug_print_mpi
 928      E7800000 
 929              	.LVL91:
 200:C:/Users/stapi/OneDrive/Desktop/GD32VW553/V1_MQTT_OK/GD32VW55X_Wifi_BLE_SDK/GD32VW55x_RELEASE_V1.0.2/MSDK/mbedtls/mbedtls-2.17.0-ssl/library\debug.c **** #endif /* MBEDTLS_ECP_C */
 930              		.loc 1 200 1 is_stmt 0
 931 0070 13010120 		addi	sp,sp,512
 932              		.cfi_def_cfa_offset 0
 933 0074 17030000 		tail	__riscv_restore_6
 933      67000300 
 934              		.cfi_restore 21
 935              		.cfi_restore 20
 936              		.cfi_restore 19
 937              		.cfi_restore 18
 938              		.cfi_restore 9
 939              		.cfi_restore 8
 940              		.cfi_restore 1
 941              		.cfi_def_cfa_offset -32
 942              		.cfi_endproc
 943              	.LFE396:
 945              		.section	.text.mbedtls_debug_print_ecp,"ax",@progbits
 946              		.align	1
 947              		.globl	mbedtls_debug_print_ecp
 949              	mbedtls_debug_print_ecp:
 950              	.LFB388:
 189:C:/Users/stapi/OneDrive/Desktop/GD32VW553/V1_MQTT_OK/GD32VW55X_Wifi_BLE_SDK/GD32VW55x_RELEASE_V1.0.2/MSDK/mbedtls/mbedtls-2.17.0-ssl/library\debug.c ****     char str[DEBUG_BUF_SIZE];
 951              		.loc 1 189 1 is_stmt 1
 952              		.cfi_startproc
 953              	.LVL92:
 190:C:/Users/stapi/OneDrive/Desktop/GD32VW553/V1_MQTT_OK/GD32VW55X_Wifi_BLE_SDK/GD32VW55x_RELEASE_V1.0.2/MSDK/mbedtls/mbedtls-2.17.0-ssl/library\debug.c **** 
 954              		.loc 1 190 5
 192:C:/Users/stapi/OneDrive/Desktop/GD32VW553/V1_MQTT_OK/GD32VW55X_Wifi_BLE_SDK/GD32VW55x_RELEASE_V1.0.2/MSDK/mbedtls/mbedtls-2.17.0-ssl/library\debug.c ****         return;
 955              		.loc 1 192 5
 192:C:/Users/stapi/OneDrive/Desktop/GD32VW553/V1_MQTT_OK/GD32VW55X_Wifi_BLE_SDK/GD32VW55x_RELEASE_V1.0.2/MSDK/mbedtls/mbedtls-2.17.0-ssl/library\debug.c ****         return;
 956              		.loc 1 192 12 is_stmt 0
 957 0000 83280500 		lw	a7,0(a0)
 192:C:/Users/stapi/OneDrive/Desktop/GD32VW553/V1_MQTT_OK/GD32VW55X_Wifi_BLE_SDK/GD32VW55x_RELEASE_V1.0.2/MSDK/mbedtls/mbedtls-2.17.0-ssl/library\debug.c ****         return;
 958              		.loc 1 192 7
 959 0004 63800802 		beq	a7,zero,.L110
 192:C:/Users/stapi/OneDrive/Desktop/GD32VW553/V1_MQTT_OK/GD32VW55X_Wifi_BLE_SDK/GD32VW55x_RELEASE_V1.0.2/MSDK/mbedtls/mbedtls-2.17.0-ssl/library\debug.c ****         return;
 960              		.loc 1 192 27 discriminator 1
 961 0008 83A80801 		lw	a7,16(a7)
 962 000c 638C0800 		beq	a7,zero,.L110
 192:C:/Users/stapi/OneDrive/Desktop/GD32VW553/V1_MQTT_OK/GD32VW55X_Wifi_BLE_SDK/GD32VW55x_RELEASE_V1.0.2/MSDK/mbedtls/mbedtls-2.17.0-ssl/library\debug.c ****         return;
 963              		.loc 1 192 55 discriminator 2
 964 0010 B7080000 		lui	a7,%hi(.LANCHOR0)
 965 0014 83A80800 		lw	a7,%lo(.LANCHOR0)(a7)
 966 0018 63C6B800 		blt	a7,a1,.L110
 967 001c 17030000 		tail	mbedtls_debug_print_ecp.part.0
 967      67000300 
 968              	.LVL93:
 969              	.L110:
 970 0024 8280     		ret
 971              		.cfi_endproc
 972              	.LFE388:
 974              		.section	.rodata.mbedtls_debug_print_crt.str1.4,"aMS",@progbits,1
 975              		.align	2
 976              	.LC11:
 977 0000 25732023 		.string	"%s #%d:\r\n"
 977      25643A0D 
 977      0A00
 978 000a 0000     		.align	2
 979              	.LC12:
 980 000c 00       		.string	""
 981 000d 000000   		.align	2
 982              	.LC13:
 983 0010 696E7661 		.string	"invalid PK context\r\n"
 983      6C696420 
 983      504B2063 
 983      6F6E7465 
 983      78740D0A 
 984 0025 000000   		.align	2
 985              	.LC14:
 986 0028 6372742D 		.string	"crt->"
 986      3E00
 987 002e 0000     		.align	2
 988              	.LC15:
 989 0030 25732573 		.string	"%s%s"
 989      00
 990 0035 000000   		.align	2
 991              	.LC16:
 992 0038 73686F75 		.string	"should not happen\r\n"
 992      6C64206E 
 992      6F742068 
 992      61707065 
 992      6E0D0A00 
 993              		.section	.text.mbedtls_debug_print_crt,"ax",@progbits
 994              		.align	1
 995              		.globl	mbedtls_debug_print_crt
 997              	mbedtls_debug_print_crt:
 998              	.LFB392:
 265:C:/Users/stapi/OneDrive/Desktop/GD32VW553/V1_MQTT_OK/GD32VW55X_Wifi_BLE_SDK/GD32VW55x_RELEASE_V1.0.2/MSDK/mbedtls/mbedtls-2.17.0-ssl/library\debug.c **** #endif /* MBEDTLS_BIGNUM_C */
 266:C:/Users/stapi/OneDrive/Desktop/GD32VW553/V1_MQTT_OK/GD32VW55X_Wifi_BLE_SDK/GD32VW55x_RELEASE_V1.0.2/MSDK/mbedtls/mbedtls-2.17.0-ssl/library\debug.c **** 
 267:C:/Users/stapi/OneDrive/Desktop/GD32VW553/V1_MQTT_OK/GD32VW55X_Wifi_BLE_SDK/GD32VW55x_RELEASE_V1.0.2/MSDK/mbedtls/mbedtls-2.17.0-ssl/library\debug.c **** #if defined(MBEDTLS_X509_CRT_PARSE_C)
 268:C:/Users/stapi/OneDrive/Desktop/GD32VW553/V1_MQTT_OK/GD32VW55X_Wifi_BLE_SDK/GD32VW55x_RELEASE_V1.0.2/MSDK/mbedtls/mbedtls-2.17.0-ssl/library\debug.c **** static void debug_print_pk( const mbedtls_ssl_context *ssl, int level,
 269:C:/Users/stapi/OneDrive/Desktop/GD32VW553/V1_MQTT_OK/GD32VW55X_Wifi_BLE_SDK/GD32VW55x_RELEASE_V1.0.2/MSDK/mbedtls/mbedtls-2.17.0-ssl/library\debug.c ****                             const char *file, int line,
 270:C:/Users/stapi/OneDrive/Desktop/GD32VW553/V1_MQTT_OK/GD32VW55X_Wifi_BLE_SDK/GD32VW55x_RELEASE_V1.0.2/MSDK/mbedtls/mbedtls-2.17.0-ssl/library\debug.c ****                             const char *text, const mbedtls_pk_context *pk )
 271:C:/Users/stapi/OneDrive/Desktop/GD32VW553/V1_MQTT_OK/GD32VW55X_Wifi_BLE_SDK/GD32VW55x_RELEASE_V1.0.2/MSDK/mbedtls/mbedtls-2.17.0-ssl/library\debug.c **** {
 272:C:/Users/stapi/OneDrive/Desktop/GD32VW553/V1_MQTT_OK/GD32VW55X_Wifi_BLE_SDK/GD32VW55x_RELEASE_V1.0.2/MSDK/mbedtls/mbedtls-2.17.0-ssl/library\debug.c ****     size_t i;
 273:C:/Users/stapi/OneDrive/Desktop/GD32VW553/V1_MQTT_OK/GD32VW55X_Wifi_BLE_SDK/GD32VW55x_RELEASE_V1.0.2/MSDK/mbedtls/mbedtls-2.17.0-ssl/library\debug.c ****     mbedtls_pk_debug_item items[MBEDTLS_PK_DEBUG_MAX_ITEMS];
 274:C:/Users/stapi/OneDrive/Desktop/GD32VW553/V1_MQTT_OK/GD32VW55X_Wifi_BLE_SDK/GD32VW55x_RELEASE_V1.0.2/MSDK/mbedtls/mbedtls-2.17.0-ssl/library\debug.c ****     char name[16];
 275:C:/Users/stapi/OneDrive/Desktop/GD32VW553/V1_MQTT_OK/GD32VW55X_Wifi_BLE_SDK/GD32VW55x_RELEASE_V1.0.2/MSDK/mbedtls/mbedtls-2.17.0-ssl/library\debug.c **** 
 276:C:/Users/stapi/OneDrive/Desktop/GD32VW553/V1_MQTT_OK/GD32VW55X_Wifi_BLE_SDK/GD32VW55x_RELEASE_V1.0.2/MSDK/mbedtls/mbedtls-2.17.0-ssl/library\debug.c ****     memset( items, 0, sizeof( items ) );
 277:C:/Users/stapi/OneDrive/Desktop/GD32VW553/V1_MQTT_OK/GD32VW55X_Wifi_BLE_SDK/GD32VW55x_RELEASE_V1.0.2/MSDK/mbedtls/mbedtls-2.17.0-ssl/library\debug.c **** 
 278:C:/Users/stapi/OneDrive/Desktop/GD32VW553/V1_MQTT_OK/GD32VW55X_Wifi_BLE_SDK/GD32VW55x_RELEASE_V1.0.2/MSDK/mbedtls/mbedtls-2.17.0-ssl/library\debug.c ****     if( mbedtls_pk_debug( pk, items ) != 0 )
 279:C:/Users/stapi/OneDrive/Desktop/GD32VW553/V1_MQTT_OK/GD32VW55X_Wifi_BLE_SDK/GD32VW55x_RELEASE_V1.0.2/MSDK/mbedtls/mbedtls-2.17.0-ssl/library\debug.c ****     {
 280:C:/Users/stapi/OneDrive/Desktop/GD32VW553/V1_MQTT_OK/GD32VW55X_Wifi_BLE_SDK/GD32VW55x_RELEASE_V1.0.2/MSDK/mbedtls/mbedtls-2.17.0-ssl/library\debug.c ****         debug_send_line( ssl, level, file, line,
 281:C:/Users/stapi/OneDrive/Desktop/GD32VW553/V1_MQTT_OK/GD32VW55X_Wifi_BLE_SDK/GD32VW55x_RELEASE_V1.0.2/MSDK/mbedtls/mbedtls-2.17.0-ssl/library\debug.c ****                           "invalid PK context\r\n" );
 282:C:/Users/stapi/OneDrive/Desktop/GD32VW553/V1_MQTT_OK/GD32VW55X_Wifi_BLE_SDK/GD32VW55x_RELEASE_V1.0.2/MSDK/mbedtls/mbedtls-2.17.0-ssl/library\debug.c ****         return;
 283:C:/Users/stapi/OneDrive/Desktop/GD32VW553/V1_MQTT_OK/GD32VW55X_Wifi_BLE_SDK/GD32VW55x_RELEASE_V1.0.2/MSDK/mbedtls/mbedtls-2.17.0-ssl/library\debug.c ****     }
 284:C:/Users/stapi/OneDrive/Desktop/GD32VW553/V1_MQTT_OK/GD32VW55X_Wifi_BLE_SDK/GD32VW55x_RELEASE_V1.0.2/MSDK/mbedtls/mbedtls-2.17.0-ssl/library\debug.c **** 
 285:C:/Users/stapi/OneDrive/Desktop/GD32VW553/V1_MQTT_OK/GD32VW55X_Wifi_BLE_SDK/GD32VW55x_RELEASE_V1.0.2/MSDK/mbedtls/mbedtls-2.17.0-ssl/library\debug.c ****     for( i = 0; i < MBEDTLS_PK_DEBUG_MAX_ITEMS; i++ )
 286:C:/Users/stapi/OneDrive/Desktop/GD32VW553/V1_MQTT_OK/GD32VW55X_Wifi_BLE_SDK/GD32VW55x_RELEASE_V1.0.2/MSDK/mbedtls/mbedtls-2.17.0-ssl/library\debug.c ****     {
 287:C:/Users/stapi/OneDrive/Desktop/GD32VW553/V1_MQTT_OK/GD32VW55X_Wifi_BLE_SDK/GD32VW55x_RELEASE_V1.0.2/MSDK/mbedtls/mbedtls-2.17.0-ssl/library\debug.c ****         if( items[i].type == MBEDTLS_PK_DEBUG_NONE )
 288:C:/Users/stapi/OneDrive/Desktop/GD32VW553/V1_MQTT_OK/GD32VW55X_Wifi_BLE_SDK/GD32VW55x_RELEASE_V1.0.2/MSDK/mbedtls/mbedtls-2.17.0-ssl/library\debug.c ****             return;
 289:C:/Users/stapi/OneDrive/Desktop/GD32VW553/V1_MQTT_OK/GD32VW55X_Wifi_BLE_SDK/GD32VW55x_RELEASE_V1.0.2/MSDK/mbedtls/mbedtls-2.17.0-ssl/library\debug.c **** 
 290:C:/Users/stapi/OneDrive/Desktop/GD32VW553/V1_MQTT_OK/GD32VW55X_Wifi_BLE_SDK/GD32VW55x_RELEASE_V1.0.2/MSDK/mbedtls/mbedtls-2.17.0-ssl/library\debug.c ****         mbedtls_snprintf( name, sizeof( name ), "%s%s", text, items[i].name );
 291:C:/Users/stapi/OneDrive/Desktop/GD32VW553/V1_MQTT_OK/GD32VW55X_Wifi_BLE_SDK/GD32VW55x_RELEASE_V1.0.2/MSDK/mbedtls/mbedtls-2.17.0-ssl/library\debug.c ****         name[sizeof( name ) - 1] = '\0';
 292:C:/Users/stapi/OneDrive/Desktop/GD32VW553/V1_MQTT_OK/GD32VW55X_Wifi_BLE_SDK/GD32VW55x_RELEASE_V1.0.2/MSDK/mbedtls/mbedtls-2.17.0-ssl/library\debug.c **** 
 293:C:/Users/stapi/OneDrive/Desktop/GD32VW553/V1_MQTT_OK/GD32VW55X_Wifi_BLE_SDK/GD32VW55x_RELEASE_V1.0.2/MSDK/mbedtls/mbedtls-2.17.0-ssl/library\debug.c ****         if( items[i].type == MBEDTLS_PK_DEBUG_MPI )
 294:C:/Users/stapi/OneDrive/Desktop/GD32VW553/V1_MQTT_OK/GD32VW55X_Wifi_BLE_SDK/GD32VW55x_RELEASE_V1.0.2/MSDK/mbedtls/mbedtls-2.17.0-ssl/library\debug.c ****             mbedtls_debug_print_mpi( ssl, level, file, line, name, items[i].value );
 295:C:/Users/stapi/OneDrive/Desktop/GD32VW553/V1_MQTT_OK/GD32VW55X_Wifi_BLE_SDK/GD32VW55x_RELEASE_V1.0.2/MSDK/mbedtls/mbedtls-2.17.0-ssl/library\debug.c ****         else
 296:C:/Users/stapi/OneDrive/Desktop/GD32VW553/V1_MQTT_OK/GD32VW55X_Wifi_BLE_SDK/GD32VW55x_RELEASE_V1.0.2/MSDK/mbedtls/mbedtls-2.17.0-ssl/library\debug.c **** #if defined(MBEDTLS_ECP_C)
 297:C:/Users/stapi/OneDrive/Desktop/GD32VW553/V1_MQTT_OK/GD32VW55X_Wifi_BLE_SDK/GD32VW55x_RELEASE_V1.0.2/MSDK/mbedtls/mbedtls-2.17.0-ssl/library\debug.c ****         if( items[i].type == MBEDTLS_PK_DEBUG_ECP )
 298:C:/Users/stapi/OneDrive/Desktop/GD32VW553/V1_MQTT_OK/GD32VW55X_Wifi_BLE_SDK/GD32VW55x_RELEASE_V1.0.2/MSDK/mbedtls/mbedtls-2.17.0-ssl/library\debug.c ****             mbedtls_debug_print_ecp( ssl, level, file, line, name, items[i].value );
 299:C:/Users/stapi/OneDrive/Desktop/GD32VW553/V1_MQTT_OK/GD32VW55X_Wifi_BLE_SDK/GD32VW55x_RELEASE_V1.0.2/MSDK/mbedtls/mbedtls-2.17.0-ssl/library\debug.c ****         else
 300:C:/Users/stapi/OneDrive/Desktop/GD32VW553/V1_MQTT_OK/GD32VW55X_Wifi_BLE_SDK/GD32VW55x_RELEASE_V1.0.2/MSDK/mbedtls/mbedtls-2.17.0-ssl/library\debug.c **** #endif
 301:C:/Users/stapi/OneDrive/Desktop/GD32VW553/V1_MQTT_OK/GD32VW55X_Wifi_BLE_SDK/GD32VW55x_RELEASE_V1.0.2/MSDK/mbedtls/mbedtls-2.17.0-ssl/library\debug.c ****             debug_send_line( ssl, level, file, line,
 302:C:/Users/stapi/OneDrive/Desktop/GD32VW553/V1_MQTT_OK/GD32VW55X_Wifi_BLE_SDK/GD32VW55x_RELEASE_V1.0.2/MSDK/mbedtls/mbedtls-2.17.0-ssl/library\debug.c ****                               "should not happen\r\n" );
 303:C:/Users/stapi/OneDrive/Desktop/GD32VW553/V1_MQTT_OK/GD32VW55X_Wifi_BLE_SDK/GD32VW55x_RELEASE_V1.0.2/MSDK/mbedtls/mbedtls-2.17.0-ssl/library\debug.c ****     }
 304:C:/Users/stapi/OneDrive/Desktop/GD32VW553/V1_MQTT_OK/GD32VW55X_Wifi_BLE_SDK/GD32VW55x_RELEASE_V1.0.2/MSDK/mbedtls/mbedtls-2.17.0-ssl/library\debug.c **** }
 305:C:/Users/stapi/OneDrive/Desktop/GD32VW553/V1_MQTT_OK/GD32VW55X_Wifi_BLE_SDK/GD32VW55x_RELEASE_V1.0.2/MSDK/mbedtls/mbedtls-2.17.0-ssl/library\debug.c **** 
 306:C:/Users/stapi/OneDrive/Desktop/GD32VW553/V1_MQTT_OK/GD32VW55X_Wifi_BLE_SDK/GD32VW55x_RELEASE_V1.0.2/MSDK/mbedtls/mbedtls-2.17.0-ssl/library\debug.c **** static void debug_print_line_by_line( const mbedtls_ssl_context *ssl, int level,
 307:C:/Users/stapi/OneDrive/Desktop/GD32VW553/V1_MQTT_OK/GD32VW55X_Wifi_BLE_SDK/GD32VW55x_RELEASE_V1.0.2/MSDK/mbedtls/mbedtls-2.17.0-ssl/library\debug.c ****                                       const char *file, int line, const char *text )
 308:C:/Users/stapi/OneDrive/Desktop/GD32VW553/V1_MQTT_OK/GD32VW55X_Wifi_BLE_SDK/GD32VW55x_RELEASE_V1.0.2/MSDK/mbedtls/mbedtls-2.17.0-ssl/library\debug.c **** {
 309:C:/Users/stapi/OneDrive/Desktop/GD32VW553/V1_MQTT_OK/GD32VW55X_Wifi_BLE_SDK/GD32VW55x_RELEASE_V1.0.2/MSDK/mbedtls/mbedtls-2.17.0-ssl/library\debug.c ****     char str[DEBUG_BUF_SIZE];
 310:C:/Users/stapi/OneDrive/Desktop/GD32VW553/V1_MQTT_OK/GD32VW55X_Wifi_BLE_SDK/GD32VW55x_RELEASE_V1.0.2/MSDK/mbedtls/mbedtls-2.17.0-ssl/library\debug.c ****     const char *start, *cur;
 311:C:/Users/stapi/OneDrive/Desktop/GD32VW553/V1_MQTT_OK/GD32VW55X_Wifi_BLE_SDK/GD32VW55x_RELEASE_V1.0.2/MSDK/mbedtls/mbedtls-2.17.0-ssl/library\debug.c **** 
 312:C:/Users/stapi/OneDrive/Desktop/GD32VW553/V1_MQTT_OK/GD32VW55X_Wifi_BLE_SDK/GD32VW55x_RELEASE_V1.0.2/MSDK/mbedtls/mbedtls-2.17.0-ssl/library\debug.c ****     start = text;
 313:C:/Users/stapi/OneDrive/Desktop/GD32VW553/V1_MQTT_OK/GD32VW55X_Wifi_BLE_SDK/GD32VW55x_RELEASE_V1.0.2/MSDK/mbedtls/mbedtls-2.17.0-ssl/library\debug.c ****     for( cur = text; *cur != '\0'; cur++ )
 314:C:/Users/stapi/OneDrive/Desktop/GD32VW553/V1_MQTT_OK/GD32VW55X_Wifi_BLE_SDK/GD32VW55x_RELEASE_V1.0.2/MSDK/mbedtls/mbedtls-2.17.0-ssl/library\debug.c ****     {
 315:C:/Users/stapi/OneDrive/Desktop/GD32VW553/V1_MQTT_OK/GD32VW55X_Wifi_BLE_SDK/GD32VW55x_RELEASE_V1.0.2/MSDK/mbedtls/mbedtls-2.17.0-ssl/library\debug.c ****         if( *cur == '\n' )
 316:C:/Users/stapi/OneDrive/Desktop/GD32VW553/V1_MQTT_OK/GD32VW55X_Wifi_BLE_SDK/GD32VW55x_RELEASE_V1.0.2/MSDK/mbedtls/mbedtls-2.17.0-ssl/library\debug.c ****         {
 317:C:/Users/stapi/OneDrive/Desktop/GD32VW553/V1_MQTT_OK/GD32VW55X_Wifi_BLE_SDK/GD32VW55x_RELEASE_V1.0.2/MSDK/mbedtls/mbedtls-2.17.0-ssl/library\debug.c ****             size_t len = cur - start + 1;
 318:C:/Users/stapi/OneDrive/Desktop/GD32VW553/V1_MQTT_OK/GD32VW55X_Wifi_BLE_SDK/GD32VW55x_RELEASE_V1.0.2/MSDK/mbedtls/mbedtls-2.17.0-ssl/library\debug.c ****             if( len > DEBUG_BUF_SIZE - 1 )
 319:C:/Users/stapi/OneDrive/Desktop/GD32VW553/V1_MQTT_OK/GD32VW55X_Wifi_BLE_SDK/GD32VW55x_RELEASE_V1.0.2/MSDK/mbedtls/mbedtls-2.17.0-ssl/library\debug.c ****                 len = DEBUG_BUF_SIZE - 1;
 320:C:/Users/stapi/OneDrive/Desktop/GD32VW553/V1_MQTT_OK/GD32VW55X_Wifi_BLE_SDK/GD32VW55x_RELEASE_V1.0.2/MSDK/mbedtls/mbedtls-2.17.0-ssl/library\debug.c **** 
 321:C:/Users/stapi/OneDrive/Desktop/GD32VW553/V1_MQTT_OK/GD32VW55X_Wifi_BLE_SDK/GD32VW55x_RELEASE_V1.0.2/MSDK/mbedtls/mbedtls-2.17.0-ssl/library\debug.c ****             memcpy( str, start, len );
 322:C:/Users/stapi/OneDrive/Desktop/GD32VW553/V1_MQTT_OK/GD32VW55X_Wifi_BLE_SDK/GD32VW55x_RELEASE_V1.0.2/MSDK/mbedtls/mbedtls-2.17.0-ssl/library\debug.c ****             str[len] = '\0';
 323:C:/Users/stapi/OneDrive/Desktop/GD32VW553/V1_MQTT_OK/GD32VW55X_Wifi_BLE_SDK/GD32VW55x_RELEASE_V1.0.2/MSDK/mbedtls/mbedtls-2.17.0-ssl/library\debug.c **** 
 324:C:/Users/stapi/OneDrive/Desktop/GD32VW553/V1_MQTT_OK/GD32VW55X_Wifi_BLE_SDK/GD32VW55x_RELEASE_V1.0.2/MSDK/mbedtls/mbedtls-2.17.0-ssl/library\debug.c ****             debug_send_line( ssl, level, file, line, str );
 325:C:/Users/stapi/OneDrive/Desktop/GD32VW553/V1_MQTT_OK/GD32VW55X_Wifi_BLE_SDK/GD32VW55x_RELEASE_V1.0.2/MSDK/mbedtls/mbedtls-2.17.0-ssl/library\debug.c **** 
 326:C:/Users/stapi/OneDrive/Desktop/GD32VW553/V1_MQTT_OK/GD32VW55X_Wifi_BLE_SDK/GD32VW55x_RELEASE_V1.0.2/MSDK/mbedtls/mbedtls-2.17.0-ssl/library\debug.c ****             start = cur + 1;
 327:C:/Users/stapi/OneDrive/Desktop/GD32VW553/V1_MQTT_OK/GD32VW55X_Wifi_BLE_SDK/GD32VW55x_RELEASE_V1.0.2/MSDK/mbedtls/mbedtls-2.17.0-ssl/library\debug.c ****         }
 328:C:/Users/stapi/OneDrive/Desktop/GD32VW553/V1_MQTT_OK/GD32VW55X_Wifi_BLE_SDK/GD32VW55x_RELEASE_V1.0.2/MSDK/mbedtls/mbedtls-2.17.0-ssl/library\debug.c ****     }
 329:C:/Users/stapi/OneDrive/Desktop/GD32VW553/V1_MQTT_OK/GD32VW55X_Wifi_BLE_SDK/GD32VW55x_RELEASE_V1.0.2/MSDK/mbedtls/mbedtls-2.17.0-ssl/library\debug.c **** }
 330:C:/Users/stapi/OneDrive/Desktop/GD32VW553/V1_MQTT_OK/GD32VW55X_Wifi_BLE_SDK/GD32VW55x_RELEASE_V1.0.2/MSDK/mbedtls/mbedtls-2.17.0-ssl/library\debug.c **** 
 331:C:/Users/stapi/OneDrive/Desktop/GD32VW553/V1_MQTT_OK/GD32VW55X_Wifi_BLE_SDK/GD32VW55x_RELEASE_V1.0.2/MSDK/mbedtls/mbedtls-2.17.0-ssl/library\debug.c **** void mbedtls_debug_print_crt( const mbedtls_ssl_context *ssl, int level,
 332:C:/Users/stapi/OneDrive/Desktop/GD32VW553/V1_MQTT_OK/GD32VW55X_Wifi_BLE_SDK/GD32VW55x_RELEASE_V1.0.2/MSDK/mbedtls/mbedtls-2.17.0-ssl/library\debug.c ****                       const char *file, int line,
 333:C:/Users/stapi/OneDrive/Desktop/GD32VW553/V1_MQTT_OK/GD32VW55X_Wifi_BLE_SDK/GD32VW55x_RELEASE_V1.0.2/MSDK/mbedtls/mbedtls-2.17.0-ssl/library\debug.c ****                       const char *text, const mbedtls_x509_crt *crt )
 334:C:/Users/stapi/OneDrive/Desktop/GD32VW553/V1_MQTT_OK/GD32VW55X_Wifi_BLE_SDK/GD32VW55x_RELEASE_V1.0.2/MSDK/mbedtls/mbedtls-2.17.0-ssl/library\debug.c **** {
 999              		.loc 1 334 1 is_stmt 1
 1000              		.cfi_startproc
 1001              	.LVL94:
 1002              		.loc 1 334 1 is_stmt 0
 1003 0000 17030000 		call	t0,__riscv_save_12
 1003      E7020300 
 1004              		.cfi_offset 27, -52
 1005              		.cfi_offset 26, -48
 1006              		.cfi_offset 25, -44
 1007              		.cfi_offset 24, -40
 1008              		.cfi_offset 23, -36
 1009              		.cfi_offset 22, -32
 1010              		.cfi_offset 21, -28
 1011              		.cfi_offset 20, -24
 1012              		.cfi_offset 19, -20
 1013              		.cfi_offset 18, -16
 1014              		.cfi_offset 9, -12
 1015              		.cfi_offset 8, -8
 1016              		.cfi_offset 1, -4
 1017              		.cfi_def_cfa_offset 64
 335:C:/Users/stapi/OneDrive/Desktop/GD32VW553/V1_MQTT_OK/GD32VW55X_Wifi_BLE_SDK/GD32VW55x_RELEASE_V1.0.2/MSDK/mbedtls/mbedtls-2.17.0-ssl/library\debug.c ****     char str[DEBUG_BUF_SIZE];
 1018              		.loc 1 335 5 is_stmt 1
 336:C:/Users/stapi/OneDrive/Desktop/GD32VW553/V1_MQTT_OK/GD32VW55X_Wifi_BLE_SDK/GD32VW55x_RELEASE_V1.0.2/MSDK/mbedtls/mbedtls-2.17.0-ssl/library\debug.c ****     int i = 0;
 1019              		.loc 1 336 5
 1020              	.LVL95:
 337:C:/Users/stapi/OneDrive/Desktop/GD32VW553/V1_MQTT_OK/GD32VW55X_Wifi_BLE_SDK/GD32VW55x_RELEASE_V1.0.2/MSDK/mbedtls/mbedtls-2.17.0-ssl/library\debug.c **** 
 338:C:/Users/stapi/OneDrive/Desktop/GD32VW553/V1_MQTT_OK/GD32VW55X_Wifi_BLE_SDK/GD32VW55x_RELEASE_V1.0.2/MSDK/mbedtls/mbedtls-2.17.0-ssl/library\debug.c ****     if( ssl->conf == NULL || ssl->conf->f_dbg == NULL || crt == NULL || level > debug_threshold )
 1021              		.loc 1 338 5
 334:C:/Users/stapi/OneDrive/Desktop/GD32VW553/V1_MQTT_OK/GD32VW55X_Wifi_BLE_SDK/GD32VW55x_RELEASE_V1.0.2/MSDK/mbedtls/mbedtls-2.17.0-ssl/library\debug.c ****     char str[DEBUG_BUF_SIZE];
 1022              		.loc 1 334 1 is_stmt 0
 1023 0008 7D73     		li	t1,-4096
 1024 000a 1303037E 		addi	t1,t1,2016
 1025 000e 3E89     		mv	s2,a5
 1026              		.loc 1 338 12
 1027 0010 1C41     		lw	a5,0(a0)
 1028              	.LVL96:
 334:C:/Users/stapi/OneDrive/Desktop/GD32VW553/V1_MQTT_OK/GD32VW55X_Wifi_BLE_SDK/GD32VW55x_RELEASE_V1.0.2/MSDK/mbedtls/mbedtls-2.17.0-ssl/library\debug.c ****     char str[DEBUG_BUF_SIZE];
 1029              		.loc 1 334 1
 1030 0012 1A91     		add	sp,sp,t1
 1031              		.cfi_def_cfa_offset 2144
 334:C:/Users/stapi/OneDrive/Desktop/GD32VW553/V1_MQTT_OK/GD32VW55X_Wifi_BLE_SDK/GD32VW55x_RELEASE_V1.0.2/MSDK/mbedtls/mbedtls-2.17.0-ssl/library\debug.c ****     char str[DEBUG_BUF_SIZE];
 1032              		.loc 1 334 1
 1033 0014 3AC6     		sw	a4,12(sp)
 1034              		.loc 1 338 7
 1035 0016 F1C7     		beq	a5,zero,.L113
 1036              		.loc 1 338 27 discriminator 1
 1037 0018 9C4B     		lw	a5,16(a5)
 1038 001a E1C7     		beq	a5,zero,.L113
 1039              		.loc 1 338 55 discriminator 2
 1040 001c 6303090C 		beq	s2,zero,.L113
 1041              		.loc 1 338 70 discriminator 3
 1042 0020 B7070000 		lui	a5,%hi(.LANCHOR0)
 1043 0024 83A70700 		lw	a5,%lo(.LANCHOR0)(a5)
 1044 0028 AE84     		mv	s1,a1
 336:C:/Users/stapi/OneDrive/Desktop/GD32VW553/V1_MQTT_OK/GD32VW55X_Wifi_BLE_SDK/GD32VW55x_RELEASE_V1.0.2/MSDK/mbedtls/mbedtls-2.17.0-ssl/library\debug.c ****     int i = 0;
 1045              		.loc 1 336 9 discriminator 3
 1046 002a 014B     		li	s6,0
 1047              		.loc 1 338 70 discriminator 3
 1048 002c 63CBB70A 		blt	a5,a1,.L113
 1049              	.LBB8:
 1050              	.LBB9:
 1051              	.LBB10:
 290:C:/Users/stapi/OneDrive/Desktop/GD32VW553/V1_MQTT_OK/GD32VW55X_Wifi_BLE_SDK/GD32VW55x_RELEASE_V1.0.2/MSDK/mbedtls/mbedtls-2.17.0-ssl/library\debug.c ****         name[sizeof( name ) - 1] = '\0';
 1052              		.loc 1 290 9
 1053 0030 8567     		li	a5,4096
 1054 0032 FD7B     		li	s7,-4096
 1055 0034 93870781 		addi	a5,a5,-2032
 1056 0038 1808     		addi	a4,sp,16
 1057              	.LVL97:
 1058 003a 938A0B7F 		addi	s5,s7,2032
 1059 003e BA97     		add	a5,a5,a4
 1060 0040 2A84     		mv	s0,a0
 1061 0042 B289     		mv	s3,a2
 1062 0044 368A     		mv	s4,a3
 1063 0046 BE9A     		add	s5,a5,s5
 1064              	.LVL98:
 1065              	.L115:
 1066              	.LBE10:
 1067              	.LBE9:
 339:C:/Users/stapi/OneDrive/Desktop/GD32VW553/V1_MQTT_OK/GD32VW55X_Wifi_BLE_SDK/GD32VW55x_RELEASE_V1.0.2/MSDK/mbedtls/mbedtls-2.17.0-ssl/library\debug.c ****         return;
 340:C:/Users/stapi/OneDrive/Desktop/GD32VW553/V1_MQTT_OK/GD32VW55X_Wifi_BLE_SDK/GD32VW55x_RELEASE_V1.0.2/MSDK/mbedtls/mbedtls-2.17.0-ssl/library\debug.c **** 
 341:C:/Users/stapi/OneDrive/Desktop/GD32VW553/V1_MQTT_OK/GD32VW55X_Wifi_BLE_SDK/GD32VW55x_RELEASE_V1.0.2/MSDK/mbedtls/mbedtls-2.17.0-ssl/library\debug.c ****     while( crt != NULL )
 342:C:/Users/stapi/OneDrive/Desktop/GD32VW553/V1_MQTT_OK/GD32VW55X_Wifi_BLE_SDK/GD32VW55x_RELEASE_V1.0.2/MSDK/mbedtls/mbedtls-2.17.0-ssl/library\debug.c ****     {
 343:C:/Users/stapi/OneDrive/Desktop/GD32VW553/V1_MQTT_OK/GD32VW55X_Wifi_BLE_SDK/GD32VW55x_RELEASE_V1.0.2/MSDK/mbedtls/mbedtls-2.17.0-ssl/library\debug.c ****         char buf[1024];
 1068              		.loc 1 343 9 is_stmt 1
 344:C:/Users/stapi/OneDrive/Desktop/GD32VW553/V1_MQTT_OK/GD32VW55X_Wifi_BLE_SDK/GD32VW55x_RELEASE_V1.0.2/MSDK/mbedtls/mbedtls-2.17.0-ssl/library\debug.c **** 
 345:C:/Users/stapi/OneDrive/Desktop/GD32VW553/V1_MQTT_OK/GD32VW55X_Wifi_BLE_SDK/GD32VW55x_RELEASE_V1.0.2/MSDK/mbedtls/mbedtls-2.17.0-ssl/library\debug.c ****         mbedtls_snprintf( str, sizeof( str ), "%s #%d:\r\n", text, ++i );
 1069              		.loc 1 345 9
 1070 0048 B246     		lw	a3,12(sp)
 1071 004a 050B     		addi	s6,s6,1
 1072              	.LVL99:
 1073 004c 37060000 		lui	a2,%hi(.LC11)
 1074 0050 5A87     		mv	a4,s6
 1075 0052 13060600 		addi	a2,a2,%lo(.LC11)
 1076 0056 93050020 		li	a1,512
 1077 005a 0810     		addi	a0,sp,32
 1078 005c 97000000 		call	snprintf
 1078      E7800000 
 1079              	.LVL100:
 346:C:/Users/stapi/OneDrive/Desktop/GD32VW553/V1_MQTT_OK/GD32VW55X_Wifi_BLE_SDK/GD32VW55x_RELEASE_V1.0.2/MSDK/mbedtls/mbedtls-2.17.0-ssl/library\debug.c ****         debug_send_line( ssl, level, file, line, str );
 1080              		.loc 1 346 9
 1081 0064 1810     		addi	a4,sp,32
 1082 0066 D286     		mv	a3,s4
 1083 0068 4E86     		mv	a2,s3
 1084 006a A685     		mv	a1,s1
 1085 006c 2285     		mv	a0,s0
 1086 006e 97000000 		call	debug_send_line
 1086      E7800000 
 1087              	.LVL101:
 347:C:/Users/stapi/OneDrive/Desktop/GD32VW553/V1_MQTT_OK/GD32VW55X_Wifi_BLE_SDK/GD32VW55x_RELEASE_V1.0.2/MSDK/mbedtls/mbedtls-2.17.0-ssl/library\debug.c **** 
 348:C:/Users/stapi/OneDrive/Desktop/GD32VW553/V1_MQTT_OK/GD32VW55X_Wifi_BLE_SDK/GD32VW55x_RELEASE_V1.0.2/MSDK/mbedtls/mbedtls-2.17.0-ssl/library\debug.c ****         mbedtls_x509_crt_info( buf, sizeof( buf ) - 1, "", crt );
 1088              		.loc 1 348 9
 1089 0076 37060000 		lui	a2,%hi(.LC12)
 1090 007a 13060600 		addi	a2,a2,%lo(.LC12)
 1091 007e 9305F03F 		li	a1,1023
 1092 0082 CA86     		mv	a3,s2
 1093 0084 13050142 		addi	a0,sp,1056
 1094 0088 97000000 		call	mbedtls_x509_crt_info
 1094      E7800000 
 1095              	.LVL102:
 349:C:/Users/stapi/OneDrive/Desktop/GD32VW553/V1_MQTT_OK/GD32VW55X_Wifi_BLE_SDK/GD32VW55x_RELEASE_V1.0.2/MSDK/mbedtls/mbedtls-2.17.0-ssl/library\debug.c ****         debug_print_line_by_line( ssl, level, file, line, buf );
 1096              		.loc 1 349 9
 1097              	.LBB13:
 1098              	.LBB14:
 309:C:/Users/stapi/OneDrive/Desktop/GD32VW553/V1_MQTT_OK/GD32VW55X_Wifi_BLE_SDK/GD32VW55x_RELEASE_V1.0.2/MSDK/mbedtls/mbedtls-2.17.0-ssl/library\debug.c ****     const char *start, *cur;
 1099              		.loc 1 309 5
 310:C:/Users/stapi/OneDrive/Desktop/GD32VW553/V1_MQTT_OK/GD32VW55X_Wifi_BLE_SDK/GD32VW55x_RELEASE_V1.0.2/MSDK/mbedtls/mbedtls-2.17.0-ssl/library\debug.c **** 
 1100              		.loc 1 310 5
 312:C:/Users/stapi/OneDrive/Desktop/GD32VW553/V1_MQTT_OK/GD32VW55X_Wifi_BLE_SDK/GD32VW55x_RELEASE_V1.0.2/MSDK/mbedtls/mbedtls-2.17.0-ssl/library\debug.c ****     for( cur = text; *cur != '\0'; cur++ )
 1101              		.loc 1 312 5
 313:C:/Users/stapi/OneDrive/Desktop/GD32VW553/V1_MQTT_OK/GD32VW55X_Wifi_BLE_SDK/GD32VW55x_RELEASE_V1.0.2/MSDK/mbedtls/mbedtls-2.17.0-ssl/library\debug.c ****     {
 1102              		.loc 1 313 5
 313:C:/Users/stapi/OneDrive/Desktop/GD32VW553/V1_MQTT_OK/GD32VW55X_Wifi_BLE_SDK/GD32VW55x_RELEASE_V1.0.2/MSDK/mbedtls/mbedtls-2.17.0-ssl/library\debug.c ****     {
 1103              		.loc 1 313 14 is_stmt 0
 1104 0090 13060142 		addi	a2,sp,1056
 1105              	.LVL103:
 312:C:/Users/stapi/OneDrive/Desktop/GD32VW553/V1_MQTT_OK/GD32VW55X_Wifi_BLE_SDK/GD32VW55x_RELEASE_V1.0.2/MSDK/mbedtls/mbedtls-2.17.0-ssl/library\debug.c ****     for( cur = text; *cur != '\0'; cur++ )
 1106              		.loc 1 312 11
 1107 0094 B285     		mv	a1,a2
 315:C:/Users/stapi/OneDrive/Desktop/GD32VW553/V1_MQTT_OK/GD32VW55X_Wifi_BLE_SDK/GD32VW55x_RELEASE_V1.0.2/MSDK/mbedtls/mbedtls-2.17.0-ssl/library\debug.c ****         {
 1108              		.loc 1 315 11
 1109 0096 294D     		li	s10,10
 1110 0098 930DF01F 		li	s11,511
 1111              	.LVL104:
 1112              	.L116:
 313:C:/Users/stapi/OneDrive/Desktop/GD32VW553/V1_MQTT_OK/GD32VW55X_Wifi_BLE_SDK/GD32VW55x_RELEASE_V1.0.2/MSDK/mbedtls/mbedtls-2.17.0-ssl/library\debug.c ****     {
 1113              		.loc 1 313 22 is_stmt 1
 1114 009c 83070600 		lb	a5,0(a2)
 313:C:/Users/stapi/OneDrive/Desktop/GD32VW553/V1_MQTT_OK/GD32VW55X_Wifi_BLE_SDK/GD32VW55x_RELEASE_V1.0.2/MSDK/mbedtls/mbedtls-2.17.0-ssl/library\debug.c ****     {
 1115              		.loc 1 313 5 is_stmt 0
 1116 00a0 A1EB     		bne	a5,zero,.L118
 1117              	.LVL105:
 1118              	.LBE14:
 1119              	.LBE13:
 350:C:/Users/stapi/OneDrive/Desktop/GD32VW553/V1_MQTT_OK/GD32VW55X_Wifi_BLE_SDK/GD32VW55x_RELEASE_V1.0.2/MSDK/mbedtls/mbedtls-2.17.0-ssl/library\debug.c **** 
 351:C:/Users/stapi/OneDrive/Desktop/GD32VW553/V1_MQTT_OK/GD32VW55X_Wifi_BLE_SDK/GD32VW55x_RELEASE_V1.0.2/MSDK/mbedtls/mbedtls-2.17.0-ssl/library\debug.c ****         debug_print_pk( ssl, level, file, line, "crt->", &crt->pk );
 1120              		.loc 1 351 9 is_stmt 1
 1121              	.LBB18:
 1122              	.LBB11:
 272:C:/Users/stapi/OneDrive/Desktop/GD32VW553/V1_MQTT_OK/GD32VW55X_Wifi_BLE_SDK/GD32VW55x_RELEASE_V1.0.2/MSDK/mbedtls/mbedtls-2.17.0-ssl/library\debug.c ****     mbedtls_pk_debug_item items[MBEDTLS_PK_DEBUG_MAX_ITEMS];
 1123              		.loc 1 272 5
 273:C:/Users/stapi/OneDrive/Desktop/GD32VW553/V1_MQTT_OK/GD32VW55X_Wifi_BLE_SDK/GD32VW55x_RELEASE_V1.0.2/MSDK/mbedtls/mbedtls-2.17.0-ssl/library\debug.c ****     char name[16];
 1124              		.loc 1 273 5
 274:C:/Users/stapi/OneDrive/Desktop/GD32VW553/V1_MQTT_OK/GD32VW55X_Wifi_BLE_SDK/GD32VW55x_RELEASE_V1.0.2/MSDK/mbedtls/mbedtls-2.17.0-ssl/library\debug.c **** 
 1125              		.loc 1 274 5
 276:C:/Users/stapi/OneDrive/Desktop/GD32VW553/V1_MQTT_OK/GD32VW55X_Wifi_BLE_SDK/GD32VW55x_RELEASE_V1.0.2/MSDK/mbedtls/mbedtls-2.17.0-ssl/library\debug.c **** 
 1126              		.loc 1 276 5
 1127 00a2 8145     		li	a1,0
 1128 00a4 13064002 		li	a2,36
 1129 00a8 0814     		addi	a0,sp,544
 1130 00aa 97000000 		call	memset
 1130      E7800000 
 1131              	.LVL106:
 278:C:/Users/stapi/OneDrive/Desktop/GD32VW553/V1_MQTT_OK/GD32VW55X_Wifi_BLE_SDK/GD32VW55x_RELEASE_V1.0.2/MSDK/mbedtls/mbedtls-2.17.0-ssl/library\debug.c ****     {
 1132              		.loc 1 278 5
 278:C:/Users/stapi/OneDrive/Desktop/GD32VW553/V1_MQTT_OK/GD32VW55X_Wifi_BLE_SDK/GD32VW55x_RELEASE_V1.0.2/MSDK/mbedtls/mbedtls-2.17.0-ssl/library\debug.c ****     {
 1133              		.loc 1 278 9 is_stmt 0
 1134 00b2 0C14     		addi	a1,sp,544
 1135 00b4 1305C90C 		addi	a0,s2,204
 1136              	.LVL107:
 1137 00b8 97000000 		call	mbedtls_pk_debug
 1137      E7800000 
 1138              	.LVL108:
 278:C:/Users/stapi/OneDrive/Desktop/GD32VW553/V1_MQTT_OK/GD32VW55X_Wifi_BLE_SDK/GD32VW55x_RELEASE_V1.0.2/MSDK/mbedtls/mbedtls-2.17.0-ssl/library\debug.c ****     {
 1139              		.loc 1 278 7
 1140 00c0 3DC9     		beq	a0,zero,.L119
 280:C:/Users/stapi/OneDrive/Desktop/GD32VW553/V1_MQTT_OK/GD32VW55X_Wifi_BLE_SDK/GD32VW55x_RELEASE_V1.0.2/MSDK/mbedtls/mbedtls-2.17.0-ssl/library\debug.c ****                           "invalid PK context\r\n" );
 1141              		.loc 1 280 9 is_stmt 1
 1142 00c2 37070000 		lui	a4,%hi(.LC13)
 1143 00c6 13070700 		addi	a4,a4,%lo(.LC13)
 1144 00ca D286     		mv	a3,s4
 1145 00cc 4E86     		mv	a2,s3
 1146 00ce A685     		mv	a1,s1
 1147 00d0 2285     		mv	a0,s0
 1148 00d2 97000000 		call	debug_send_line
 1148      E7800000 
 1149              	.LVL109:
 282:C:/Users/stapi/OneDrive/Desktop/GD32VW553/V1_MQTT_OK/GD32VW55X_Wifi_BLE_SDK/GD32VW55x_RELEASE_V1.0.2/MSDK/mbedtls/mbedtls-2.17.0-ssl/library\debug.c ****     }
 1150              		.loc 1 282 9
 1151              	.L120:
 1152              	.LBE11:
 1153              	.LBE18:
 352:C:/Users/stapi/OneDrive/Desktop/GD32VW553/V1_MQTT_OK/GD32VW55X_Wifi_BLE_SDK/GD32VW55x_RELEASE_V1.0.2/MSDK/mbedtls/mbedtls-2.17.0-ssl/library\debug.c **** 
 353:C:/Users/stapi/OneDrive/Desktop/GD32VW553/V1_MQTT_OK/GD32VW55X_Wifi_BLE_SDK/GD32VW55x_RELEASE_V1.0.2/MSDK/mbedtls/mbedtls-2.17.0-ssl/library\debug.c ****         crt = crt->next;
 1154              		.loc 1 353 9
 1155              		.loc 1 353 13 is_stmt 0
 1156 00da 03294914 		lw	s2,324(s2)
 1157              	.LVL110:
 1158              	.LBE8:
 341:C:/Users/stapi/OneDrive/Desktop/GD32VW553/V1_MQTT_OK/GD32VW55X_Wifi_BLE_SDK/GD32VW55x_RELEASE_V1.0.2/MSDK/mbedtls/mbedtls-2.17.0-ssl/library\debug.c ****     {
 1159              		.loc 1 341 10 is_stmt 1
 1160 00de E31509F6 		bne	s2,zero,.L115
 1161              	.LVL111:
 1162              	.L113:
 354:C:/Users/stapi/OneDrive/Desktop/GD32VW553/V1_MQTT_OK/GD32VW55X_Wifi_BLE_SDK/GD32VW55x_RELEASE_V1.0.2/MSDK/mbedtls/mbedtls-2.17.0-ssl/library\debug.c ****     }
 355:C:/Users/stapi/OneDrive/Desktop/GD32VW553/V1_MQTT_OK/GD32VW55X_Wifi_BLE_SDK/GD32VW55x_RELEASE_V1.0.2/MSDK/mbedtls/mbedtls-2.17.0-ssl/library\debug.c **** }
 1163              		.loc 1 355 1 is_stmt 0
 1164 00e2 1301017F 		addi	sp,sp,2032
 1165              		.cfi_remember_state
 1166              		.cfi_def_cfa_offset 112
 1167 00e6 4561     		addi	sp,sp,48
 1168              		.cfi_def_cfa_offset 0
 1169              	.LVL112:
 1170 00e8 17030000 		tail	__riscv_restore_12
 1170      67000300 
 1171              		.cfi_restore 27
 1172              		.cfi_restore 26
 1173              		.cfi_restore 25
 1174              		.cfi_restore 24
 1175              		.cfi_restore 23
 1176              		.cfi_restore 22
 1177              		.cfi_restore 21
 1178              		.cfi_restore 20
 1179              		.cfi_restore 19
 1180              		.cfi_restore 18
 1181              		.cfi_restore 9
 1182              		.cfi_restore 8
 1183              		.cfi_restore 1
 1184              		.cfi_def_cfa_offset -64
 1185              	.LVL113:
 1186              	.L118:
 1187              		.cfi_restore_state
 1188              	.LBB21:
 1189              	.LBB19:
 1190              	.LBB17:
 315:C:/Users/stapi/OneDrive/Desktop/GD32VW553/V1_MQTT_OK/GD32VW55X_Wifi_BLE_SDK/GD32VW55x_RELEASE_V1.0.2/MSDK/mbedtls/mbedtls-2.17.0-ssl/library\debug.c ****         {
 1191              		.loc 1 315 9 is_stmt 1
 1192              	.LBB15:
 326:C:/Users/stapi/OneDrive/Desktop/GD32VW553/V1_MQTT_OK/GD32VW55X_Wifi_BLE_SDK/GD32VW55x_RELEASE_V1.0.2/MSDK/mbedtls/mbedtls-2.17.0-ssl/library\debug.c ****         }
 1193              		.loc 1 326 19 is_stmt 0
 1194 00f0 930C1600 		addi	s9,a2,1
 1195              	.LBE15:
 315:C:/Users/stapi/OneDrive/Desktop/GD32VW553/V1_MQTT_OK/GD32VW55X_Wifi_BLE_SDK/GD32VW55x_RELEASE_V1.0.2/MSDK/mbedtls/mbedtls-2.17.0-ssl/library\debug.c ****         {
 1196              		.loc 1 315 11
 1197 00f4 639FA703 		bne	a5,s10,.L117
 1198              	.LBB16:
 317:C:/Users/stapi/OneDrive/Desktop/GD32VW553/V1_MQTT_OK/GD32VW55X_Wifi_BLE_SDK/GD32VW55x_RELEASE_V1.0.2/MSDK/mbedtls/mbedtls-2.17.0-ssl/library\debug.c ****             if( len > DEBUG_BUF_SIZE - 1 )
 1199              		.loc 1 317 13 is_stmt 1
 317:C:/Users/stapi/OneDrive/Desktop/GD32VW553/V1_MQTT_OK/GD32VW55X_Wifi_BLE_SDK/GD32VW55x_RELEASE_V1.0.2/MSDK/mbedtls/mbedtls-2.17.0-ssl/library\debug.c ****             if( len > DEBUG_BUF_SIZE - 1 )
 1200              		.loc 1 317 30 is_stmt 0
 1201 00f8 330CB640 		sub	s8,a2,a1
 317:C:/Users/stapi/OneDrive/Desktop/GD32VW553/V1_MQTT_OK/GD32VW55X_Wifi_BLE_SDK/GD32VW55x_RELEASE_V1.0.2/MSDK/mbedtls/mbedtls-2.17.0-ssl/library\debug.c ****             if( len > DEBUG_BUF_SIZE - 1 )
 1202              		.loc 1 317 38
 1203 00fc 050C     		addi	s8,s8,1
 1204              	.LVL114:
 318:C:/Users/stapi/OneDrive/Desktop/GD32VW553/V1_MQTT_OK/GD32VW55X_Wifi_BLE_SDK/GD32VW55x_RELEASE_V1.0.2/MSDK/mbedtls/mbedtls-2.17.0-ssl/library\debug.c ****                 len = DEBUG_BUF_SIZE - 1;
 1205              		.loc 1 318 13 is_stmt 1
 1206 00fe 335CBC0B 		minu	s8,s8,s11
 1207              	.LVL115:
 321:C:/Users/stapi/OneDrive/Desktop/GD32VW553/V1_MQTT_OK/GD32VW55X_Wifi_BLE_SDK/GD32VW55x_RELEASE_V1.0.2/MSDK/mbedtls/mbedtls-2.17.0-ssl/library\debug.c ****             str[len] = '\0';
 1208              		.loc 1 321 13
 1209 0102 0814     		addi	a0,sp,544
 1210 0104 6286     		mv	a2,s8
 1211              	.LVL116:
 1212 0106 97000000 		call	memcpy
 1212      E7800000 
 1213              	.LVL117:
 322:C:/Users/stapi/OneDrive/Desktop/GD32VW553/V1_MQTT_OK/GD32VW55X_Wifi_BLE_SDK/GD32VW55x_RELEASE_V1.0.2/MSDK/mbedtls/mbedtls-2.17.0-ssl/library\debug.c **** 
 1214              		.loc 1 322 13
 322:C:/Users/stapi/OneDrive/Desktop/GD32VW553/V1_MQTT_OK/GD32VW55X_Wifi_BLE_SDK/GD32VW55x_RELEASE_V1.0.2/MSDK/mbedtls/mbedtls-2.17.0-ssl/library\debug.c **** 
 1215              		.loc 1 322 22 is_stmt 0
 1216 010e 8567     		li	a5,4096
 1217 0110 1808     		addi	a4,sp,16
 1218 0112 93870781 		addi	a5,a5,-2032
 1219 0116 BA97     		add	a5,a5,a4
 1220 0118 3E9C     		add	s8,a5,s8
 1221              	.LVL118:
 324:C:/Users/stapi/OneDrive/Desktop/GD32VW553/V1_MQTT_OK/GD32VW55X_Wifi_BLE_SDK/GD32VW55x_RELEASE_V1.0.2/MSDK/mbedtls/mbedtls-2.17.0-ssl/library\debug.c **** 
 1222              		.loc 1 324 13
 1223 011a A685     		mv	a1,s1
 322:C:/Users/stapi/OneDrive/Desktop/GD32VW553/V1_MQTT_OK/GD32VW55X_Wifi_BLE_SDK/GD32VW55x_RELEASE_V1.0.2/MSDK/mbedtls/mbedtls-2.17.0-ssl/library\debug.c **** 
 1224              		.loc 1 322 22
 1225 011c 23000CA0 		sb	zero,-1536(s8)
 324:C:/Users/stapi/OneDrive/Desktop/GD32VW553/V1_MQTT_OK/GD32VW55X_Wifi_BLE_SDK/GD32VW55x_RELEASE_V1.0.2/MSDK/mbedtls/mbedtls-2.17.0-ssl/library\debug.c **** 
 1226              		.loc 1 324 13 is_stmt 1
 1227 0120 1814     		addi	a4,sp,544
 1228 0122 D286     		mv	a3,s4
 1229 0124 4E86     		mv	a2,s3
 1230 0126 2285     		mv	a0,s0
 1231 0128 97000000 		call	debug_send_line
 1231      E7800000 
 1232              	.LVL119:
 326:C:/Users/stapi/OneDrive/Desktop/GD32VW553/V1_MQTT_OK/GD32VW55X_Wifi_BLE_SDK/GD32VW55x_RELEASE_V1.0.2/MSDK/mbedtls/mbedtls-2.17.0-ssl/library\debug.c ****         }
 1233              		.loc 1 326 13
 326:C:/Users/stapi/OneDrive/Desktop/GD32VW553/V1_MQTT_OK/GD32VW55X_Wifi_BLE_SDK/GD32VW55x_RELEASE_V1.0.2/MSDK/mbedtls/mbedtls-2.17.0-ssl/library\debug.c ****         }
 1234              		.loc 1 326 19 is_stmt 0
 1235 0130 E685     		mv	a1,s9
 1236              	.LVL120:
 1237              	.L117:
 1238              	.LBE16:
 313:C:/Users/stapi/OneDrive/Desktop/GD32VW553/V1_MQTT_OK/GD32VW55X_Wifi_BLE_SDK/GD32VW55x_RELEASE_V1.0.2/MSDK/mbedtls/mbedtls-2.17.0-ssl/library\debug.c ****     {
 1239              		.loc 1 313 36 is_stmt 1
 313:C:/Users/stapi/OneDrive/Desktop/GD32VW553/V1_MQTT_OK/GD32VW55X_Wifi_BLE_SDK/GD32VW55x_RELEASE_V1.0.2/MSDK/mbedtls/mbedtls-2.17.0-ssl/library\debug.c ****     {
 1240              		.loc 1 313 39 is_stmt 0
 1241 0132 6686     		mv	a2,s9
 1242 0134 A5B7     		j	.L116
 1243              	.LVL121:
 1244              	.L119:
 1245              	.LBE17:
 1246              	.LBE19:
 1247              	.LBB20:
 1248              	.LBB12:
 291:C:/Users/stapi/OneDrive/Desktop/GD32VW553/V1_MQTT_OK/GD32VW55X_Wifi_BLE_SDK/GD32VW55x_RELEASE_V1.0.2/MSDK/mbedtls/mbedtls-2.17.0-ssl/library\debug.c **** 
 1249              		.loc 1 291 34
 1250 0136 8567     		li	a5,4096
 1251 0138 93870781 		addi	a5,a5,-2032
 1252 013c 1808     		addi	a4,sp,16
 1253 013e BA97     		add	a5,a5,a4
 1254 0140 130C0122 		addi	s8,sp,544
 1255 0144 B38C7701 		add	s9,a5,s7
 293:C:/Users/stapi/OneDrive/Desktop/GD32VW553/V1_MQTT_OK/GD32VW55X_Wifi_BLE_SDK/GD32VW55x_RELEASE_V1.0.2/MSDK/mbedtls/mbedtls-2.17.0-ssl/library\debug.c ****             mbedtls_debug_print_mpi( ssl, level, file, line, name, items[i].value );
 1256              		.loc 1 293 11
 1257 0148 054D     		li	s10,1
 301:C:/Users/stapi/OneDrive/Desktop/GD32VW553/V1_MQTT_OK/GD32VW55X_Wifi_BLE_SDK/GD32VW55x_RELEASE_V1.0.2/MSDK/mbedtls/mbedtls-2.17.0-ssl/library\debug.c ****                               "should not happen\r\n" );
 1258              		.loc 1 301 13
 1259 014a B70D0000 		lui	s11,%hi(.LC16)
 1260              	.L124:
 287:C:/Users/stapi/OneDrive/Desktop/GD32VW553/V1_MQTT_OK/GD32VW55X_Wifi_BLE_SDK/GD32VW55x_RELEASE_V1.0.2/MSDK/mbedtls/mbedtls-2.17.0-ssl/library\debug.c ****             return;
 1261              		.loc 1 287 9 is_stmt 1
 287:C:/Users/stapi/OneDrive/Desktop/GD32VW553/V1_MQTT_OK/GD32VW55X_Wifi_BLE_SDK/GD32VW55x_RELEASE_V1.0.2/MSDK/mbedtls/mbedtls-2.17.0-ssl/library\debug.c ****             return;
 1262              		.loc 1 287 11 is_stmt 0
 1263 014e 83270C00 		lw	a5,0(s8)
 1264 0152 C1D7     		beq	a5,zero,.L120
 290:C:/Users/stapi/OneDrive/Desktop/GD32VW553/V1_MQTT_OK/GD32VW55X_Wifi_BLE_SDK/GD32VW55x_RELEASE_V1.0.2/MSDK/mbedtls/mbedtls-2.17.0-ssl/library\debug.c ****         name[sizeof( name ) - 1] = '\0';
 1265              		.loc 1 290 9 is_stmt 1
 1266 0154 B7070000 		lui	a5,%hi(.LC14)
 1267 0158 03274C00 		lw	a4,4(s8)
 1268 015c 93860700 		addi	a3,a5,%lo(.LC14)
 1269 0160 B7070000 		lui	a5,%hi(.LC15)
 1270 0164 13860700 		addi	a2,a5,%lo(.LC15)
 1271 0168 C145     		li	a1,16
 1272 016a 5685     		mv	a0,s5
 1273 016c 97000000 		call	snprintf
 1273      E7800000 
 1274              	.LVL122:
 291:C:/Users/stapi/OneDrive/Desktop/GD32VW553/V1_MQTT_OK/GD32VW55X_Wifi_BLE_SDK/GD32VW55x_RELEASE_V1.0.2/MSDK/mbedtls/mbedtls-2.17.0-ssl/library\debug.c **** 
 1275              		.loc 1 291 9
 293:C:/Users/stapi/OneDrive/Desktop/GD32VW553/V1_MQTT_OK/GD32VW55X_Wifi_BLE_SDK/GD32VW55x_RELEASE_V1.0.2/MSDK/mbedtls/mbedtls-2.17.0-ssl/library\debug.c ****             mbedtls_debug_print_mpi( ssl, level, file, line, name, items[i].value );
 1276              		.loc 1 293 21 is_stmt 0
 1277 0174 83270C00 		lw	a5,0(s8)
 291:C:/Users/stapi/OneDrive/Desktop/GD32VW553/V1_MQTT_OK/GD32VW55X_Wifi_BLE_SDK/GD32VW55x_RELEASE_V1.0.2/MSDK/mbedtls/mbedtls-2.17.0-ssl/library\debug.c **** 
 1278              		.loc 1 291 34
 1279 0178 A38F0C7E 		sb	zero,2047(s9)
 293:C:/Users/stapi/OneDrive/Desktop/GD32VW553/V1_MQTT_OK/GD32VW55X_Wifi_BLE_SDK/GD32VW55x_RELEASE_V1.0.2/MSDK/mbedtls/mbedtls-2.17.0-ssl/library\debug.c ****             mbedtls_debug_print_mpi( ssl, level, file, line, name, items[i].value );
 1280              		.loc 1 293 9 is_stmt 1
 293:C:/Users/stapi/OneDrive/Desktop/GD32VW553/V1_MQTT_OK/GD32VW55X_Wifi_BLE_SDK/GD32VW55x_RELEASE_V1.0.2/MSDK/mbedtls/mbedtls-2.17.0-ssl/library\debug.c ****             mbedtls_debug_print_mpi( ssl, level, file, line, name, items[i].value );
 1281              		.loc 1 293 11 is_stmt 0
 1282 017c 6392A703 		bne	a5,s10,.L121
 294:C:/Users/stapi/OneDrive/Desktop/GD32VW553/V1_MQTT_OK/GD32VW55X_Wifi_BLE_SDK/GD32VW55x_RELEASE_V1.0.2/MSDK/mbedtls/mbedtls-2.17.0-ssl/library\debug.c ****         else
 1283              		.loc 1 294 13 is_stmt 1
 1284 0180 83278C00 		lw	a5,8(s8)
 1285 0184 5687     		mv	a4,s5
 1286 0186 D286     		mv	a3,s4
 1287 0188 4E86     		mv	a2,s3
 1288 018a A685     		mv	a1,s1
 1289 018c 2285     		mv	a0,s0
 1290 018e 97000000 		call	mbedtls_debug_print_mpi
 1290      E7800000 
 1291              	.LVL123:
 1292              	.L122:
 285:C:/Users/stapi/OneDrive/Desktop/GD32VW553/V1_MQTT_OK/GD32VW55X_Wifi_BLE_SDK/GD32VW55x_RELEASE_V1.0.2/MSDK/mbedtls/mbedtls-2.17.0-ssl/library\debug.c ****     {
 1293              		.loc 1 285 49
 285:C:/Users/stapi/OneDrive/Desktop/GD32VW553/V1_MQTT_OK/GD32VW55X_Wifi_BLE_SDK/GD32VW55x_RELEASE_V1.0.2/MSDK/mbedtls/mbedtls-2.17.0-ssl/library\debug.c ****     {
 1294              		.loc 1 285 17
 285:C:/Users/stapi/OneDrive/Desktop/GD32VW553/V1_MQTT_OK/GD32VW55X_Wifi_BLE_SDK/GD32VW55x_RELEASE_V1.0.2/MSDK/mbedtls/mbedtls-2.17.0-ssl/library\debug.c ****     {
 1295              		.loc 1 285 5 is_stmt 0
 1296 0196 310C     		addi	s8,s8,12
 1297 0198 DC04     		addi	a5,sp,580
 1298 019a E39A87FB 		bne	a5,s8,.L124
 1299 019e 35BF     		j	.L120
 1300              	.L121:
 297:C:/Users/stapi/OneDrive/Desktop/GD32VW553/V1_MQTT_OK/GD32VW55X_Wifi_BLE_SDK/GD32VW55x_RELEASE_V1.0.2/MSDK/mbedtls/mbedtls-2.17.0-ssl/library\debug.c ****             mbedtls_debug_print_ecp( ssl, level, file, line, name, items[i].value );
 1301              		.loc 1 297 9 is_stmt 1
 297:C:/Users/stapi/OneDrive/Desktop/GD32VW553/V1_MQTT_OK/GD32VW55X_Wifi_BLE_SDK/GD32VW55x_RELEASE_V1.0.2/MSDK/mbedtls/mbedtls-2.17.0-ssl/library\debug.c ****             mbedtls_debug_print_ecp( ssl, level, file, line, name, items[i].value );
 1302              		.loc 1 297 11 is_stmt 0
 1303 01a0 0947     		li	a4,2
 1304 01a2 639EE700 		bne	a5,a4,.L123
 298:C:/Users/stapi/OneDrive/Desktop/GD32VW553/V1_MQTT_OK/GD32VW55X_Wifi_BLE_SDK/GD32VW55x_RELEASE_V1.0.2/MSDK/mbedtls/mbedtls-2.17.0-ssl/library\debug.c ****         else
 1305              		.loc 1 298 13 is_stmt 1
 1306 01a6 83278C00 		lw	a5,8(s8)
 1307 01aa 5687     		mv	a4,s5
 1308 01ac D286     		mv	a3,s4
 1309 01ae 4E86     		mv	a2,s3
 1310 01b0 A685     		mv	a1,s1
 1311 01b2 2285     		mv	a0,s0
 1312 01b4 97000000 		call	mbedtls_debug_print_ecp
 1312      E7800000 
 1313              	.LVL124:
 1314 01bc E9BF     		j	.L122
 1315              	.L123:
 301:C:/Users/stapi/OneDrive/Desktop/GD32VW553/V1_MQTT_OK/GD32VW55X_Wifi_BLE_SDK/GD32VW55x_RELEASE_V1.0.2/MSDK/mbedtls/mbedtls-2.17.0-ssl/library\debug.c ****                               "should not happen\r\n" );
 1316              		.loc 1 301 13
 1317 01be 13870D00 		addi	a4,s11,%lo(.LC16)
 1318 01c2 D286     		mv	a3,s4
 1319 01c4 4E86     		mv	a2,s3
 1320 01c6 A685     		mv	a1,s1
 1321 01c8 2285     		mv	a0,s0
 1322 01ca 97000000 		call	debug_send_line
 1322      E7800000 
 1323              	.LVL125:
 1324 01d2 D1B7     		j	.L122
 1325              	.LBE12:
 1326              	.LBE20:
 1327              	.LBE21:
 1328              		.cfi_endproc
 1329              	.LFE392:
 1331              		.section	.rodata.mbedtls_debug_printf_ecdh.str1.4,"aMS",@progbits,1
 1332              		.align	2
 1333              	.LC17:
 1334 0000 45434448 		.string	"ECDH: Q"
 1334      3A205100 
 1335              		.align	2
 1336              	.LC18:
 1337 0008 45434448 		.string	"ECDH: Qp"
 1337      3A205170 
 1337      00
 1338 0011 000000   		.align	2
 1339              	.LC19:
 1340 0014 45434448 		.string	"ECDH: z"
 1340      3A207A00 
 1341              		.section	.text.mbedtls_debug_printf_ecdh,"ax",@progbits
 1342              		.align	1
 1343              		.globl	mbedtls_debug_printf_ecdh
 1345              	mbedtls_debug_printf_ecdh:
 1346              	.LFB394:
 356:C:/Users/stapi/OneDrive/Desktop/GD32VW553/V1_MQTT_OK/GD32VW55X_Wifi_BLE_SDK/GD32VW55x_RELEASE_V1.0.2/MSDK/mbedtls/mbedtls-2.17.0-ssl/library\debug.c **** #endif /* MBEDTLS_X509_CRT_PARSE_C */
 357:C:/Users/stapi/OneDrive/Desktop/GD32VW553/V1_MQTT_OK/GD32VW55X_Wifi_BLE_SDK/GD32VW55x_RELEASE_V1.0.2/MSDK/mbedtls/mbedtls-2.17.0-ssl/library\debug.c **** 
 358:C:/Users/stapi/OneDrive/Desktop/GD32VW553/V1_MQTT_OK/GD32VW55X_Wifi_BLE_SDK/GD32VW55x_RELEASE_V1.0.2/MSDK/mbedtls/mbedtls-2.17.0-ssl/library\debug.c **** #if defined(MBEDTLS_ECDH_C)
 359:C:/Users/stapi/OneDrive/Desktop/GD32VW553/V1_MQTT_OK/GD32VW55X_Wifi_BLE_SDK/GD32VW55x_RELEASE_V1.0.2/MSDK/mbedtls/mbedtls-2.17.0-ssl/library\debug.c **** static void mbedtls_debug_printf_ecdh_internal( const mbedtls_ssl_context *ssl,
 360:C:/Users/stapi/OneDrive/Desktop/GD32VW553/V1_MQTT_OK/GD32VW55X_Wifi_BLE_SDK/GD32VW55x_RELEASE_V1.0.2/MSDK/mbedtls/mbedtls-2.17.0-ssl/library\debug.c ****                                                 int level, const char *file,
 361:C:/Users/stapi/OneDrive/Desktop/GD32VW553/V1_MQTT_OK/GD32VW55X_Wifi_BLE_SDK/GD32VW55x_RELEASE_V1.0.2/MSDK/mbedtls/mbedtls-2.17.0-ssl/library\debug.c ****                                                 int line,
 362:C:/Users/stapi/OneDrive/Desktop/GD32VW553/V1_MQTT_OK/GD32VW55X_Wifi_BLE_SDK/GD32VW55x_RELEASE_V1.0.2/MSDK/mbedtls/mbedtls-2.17.0-ssl/library\debug.c ****                                                 const mbedtls_ecdh_context *ecdh,
 363:C:/Users/stapi/OneDrive/Desktop/GD32VW553/V1_MQTT_OK/GD32VW55X_Wifi_BLE_SDK/GD32VW55x_RELEASE_V1.0.2/MSDK/mbedtls/mbedtls-2.17.0-ssl/library\debug.c ****                                                 mbedtls_debug_ecdh_attr attr )
 364:C:/Users/stapi/OneDrive/Desktop/GD32VW553/V1_MQTT_OK/GD32VW55X_Wifi_BLE_SDK/GD32VW55x_RELEASE_V1.0.2/MSDK/mbedtls/mbedtls-2.17.0-ssl/library\debug.c **** {
 365:C:/Users/stapi/OneDrive/Desktop/GD32VW553/V1_MQTT_OK/GD32VW55X_Wifi_BLE_SDK/GD32VW55x_RELEASE_V1.0.2/MSDK/mbedtls/mbedtls-2.17.0-ssl/library\debug.c **** #if defined(MBEDTLS_ECDH_LEGACY_CONTEXT)
 366:C:/Users/stapi/OneDrive/Desktop/GD32VW553/V1_MQTT_OK/GD32VW55X_Wifi_BLE_SDK/GD32VW55x_RELEASE_V1.0.2/MSDK/mbedtls/mbedtls-2.17.0-ssl/library\debug.c ****     const mbedtls_ecdh_context* ctx = ecdh;
 367:C:/Users/stapi/OneDrive/Desktop/GD32VW553/V1_MQTT_OK/GD32VW55X_Wifi_BLE_SDK/GD32VW55x_RELEASE_V1.0.2/MSDK/mbedtls/mbedtls-2.17.0-ssl/library\debug.c **** #else
 368:C:/Users/stapi/OneDrive/Desktop/GD32VW553/V1_MQTT_OK/GD32VW55X_Wifi_BLE_SDK/GD32VW55x_RELEASE_V1.0.2/MSDK/mbedtls/mbedtls-2.17.0-ssl/library\debug.c ****     const mbedtls_ecdh_context_mbed* ctx = &ecdh->ctx.mbed_ecdh;
 369:C:/Users/stapi/OneDrive/Desktop/GD32VW553/V1_MQTT_OK/GD32VW55X_Wifi_BLE_SDK/GD32VW55x_RELEASE_V1.0.2/MSDK/mbedtls/mbedtls-2.17.0-ssl/library\debug.c **** #endif
 370:C:/Users/stapi/OneDrive/Desktop/GD32VW553/V1_MQTT_OK/GD32VW55X_Wifi_BLE_SDK/GD32VW55x_RELEASE_V1.0.2/MSDK/mbedtls/mbedtls-2.17.0-ssl/library\debug.c **** 
 371:C:/Users/stapi/OneDrive/Desktop/GD32VW553/V1_MQTT_OK/GD32VW55X_Wifi_BLE_SDK/GD32VW55x_RELEASE_V1.0.2/MSDK/mbedtls/mbedtls-2.17.0-ssl/library\debug.c ****     switch( attr )
 372:C:/Users/stapi/OneDrive/Desktop/GD32VW553/V1_MQTT_OK/GD32VW55X_Wifi_BLE_SDK/GD32VW55x_RELEASE_V1.0.2/MSDK/mbedtls/mbedtls-2.17.0-ssl/library\debug.c ****     {
 373:C:/Users/stapi/OneDrive/Desktop/GD32VW553/V1_MQTT_OK/GD32VW55X_Wifi_BLE_SDK/GD32VW55x_RELEASE_V1.0.2/MSDK/mbedtls/mbedtls-2.17.0-ssl/library\debug.c ****         case MBEDTLS_DEBUG_ECDH_Q:
 374:C:/Users/stapi/OneDrive/Desktop/GD32VW553/V1_MQTT_OK/GD32VW55X_Wifi_BLE_SDK/GD32VW55x_RELEASE_V1.0.2/MSDK/mbedtls/mbedtls-2.17.0-ssl/library\debug.c ****             mbedtls_debug_print_ecp( ssl, level, file, line, "ECDH: Q",
 375:C:/Users/stapi/OneDrive/Desktop/GD32VW553/V1_MQTT_OK/GD32VW55X_Wifi_BLE_SDK/GD32VW55x_RELEASE_V1.0.2/MSDK/mbedtls/mbedtls-2.17.0-ssl/library\debug.c ****                                      &ctx->Q );
 376:C:/Users/stapi/OneDrive/Desktop/GD32VW553/V1_MQTT_OK/GD32VW55X_Wifi_BLE_SDK/GD32VW55x_RELEASE_V1.0.2/MSDK/mbedtls/mbedtls-2.17.0-ssl/library\debug.c ****             break;
 377:C:/Users/stapi/OneDrive/Desktop/GD32VW553/V1_MQTT_OK/GD32VW55X_Wifi_BLE_SDK/GD32VW55x_RELEASE_V1.0.2/MSDK/mbedtls/mbedtls-2.17.0-ssl/library\debug.c ****         case MBEDTLS_DEBUG_ECDH_QP:
 378:C:/Users/stapi/OneDrive/Desktop/GD32VW553/V1_MQTT_OK/GD32VW55X_Wifi_BLE_SDK/GD32VW55x_RELEASE_V1.0.2/MSDK/mbedtls/mbedtls-2.17.0-ssl/library\debug.c ****             mbedtls_debug_print_ecp( ssl, level, file, line, "ECDH: Qp",
 379:C:/Users/stapi/OneDrive/Desktop/GD32VW553/V1_MQTT_OK/GD32VW55X_Wifi_BLE_SDK/GD32VW55x_RELEASE_V1.0.2/MSDK/mbedtls/mbedtls-2.17.0-ssl/library\debug.c ****                                      &ctx->Qp );
 380:C:/Users/stapi/OneDrive/Desktop/GD32VW553/V1_MQTT_OK/GD32VW55X_Wifi_BLE_SDK/GD32VW55x_RELEASE_V1.0.2/MSDK/mbedtls/mbedtls-2.17.0-ssl/library\debug.c ****             break;
 381:C:/Users/stapi/OneDrive/Desktop/GD32VW553/V1_MQTT_OK/GD32VW55X_Wifi_BLE_SDK/GD32VW55x_RELEASE_V1.0.2/MSDK/mbedtls/mbedtls-2.17.0-ssl/library\debug.c ****         case MBEDTLS_DEBUG_ECDH_Z:
 382:C:/Users/stapi/OneDrive/Desktop/GD32VW553/V1_MQTT_OK/GD32VW55X_Wifi_BLE_SDK/GD32VW55x_RELEASE_V1.0.2/MSDK/mbedtls/mbedtls-2.17.0-ssl/library\debug.c ****             mbedtls_debug_print_mpi( ssl, level, file, line, "ECDH: z",
 383:C:/Users/stapi/OneDrive/Desktop/GD32VW553/V1_MQTT_OK/GD32VW55X_Wifi_BLE_SDK/GD32VW55x_RELEASE_V1.0.2/MSDK/mbedtls/mbedtls-2.17.0-ssl/library\debug.c ****                                      &ctx->z );
 384:C:/Users/stapi/OneDrive/Desktop/GD32VW553/V1_MQTT_OK/GD32VW55X_Wifi_BLE_SDK/GD32VW55x_RELEASE_V1.0.2/MSDK/mbedtls/mbedtls-2.17.0-ssl/library\debug.c ****             break;
 385:C:/Users/stapi/OneDrive/Desktop/GD32VW553/V1_MQTT_OK/GD32VW55X_Wifi_BLE_SDK/GD32VW55x_RELEASE_V1.0.2/MSDK/mbedtls/mbedtls-2.17.0-ssl/library\debug.c ****         default:
 386:C:/Users/stapi/OneDrive/Desktop/GD32VW553/V1_MQTT_OK/GD32VW55X_Wifi_BLE_SDK/GD32VW55x_RELEASE_V1.0.2/MSDK/mbedtls/mbedtls-2.17.0-ssl/library\debug.c ****             break;
 387:C:/Users/stapi/OneDrive/Desktop/GD32VW553/V1_MQTT_OK/GD32VW55X_Wifi_BLE_SDK/GD32VW55x_RELEASE_V1.0.2/MSDK/mbedtls/mbedtls-2.17.0-ssl/library\debug.c ****     }
 388:C:/Users/stapi/OneDrive/Desktop/GD32VW553/V1_MQTT_OK/GD32VW55X_Wifi_BLE_SDK/GD32VW55x_RELEASE_V1.0.2/MSDK/mbedtls/mbedtls-2.17.0-ssl/library\debug.c **** }
 389:C:/Users/stapi/OneDrive/Desktop/GD32VW553/V1_MQTT_OK/GD32VW55X_Wifi_BLE_SDK/GD32VW55x_RELEASE_V1.0.2/MSDK/mbedtls/mbedtls-2.17.0-ssl/library\debug.c **** 
 390:C:/Users/stapi/OneDrive/Desktop/GD32VW553/V1_MQTT_OK/GD32VW55X_Wifi_BLE_SDK/GD32VW55x_RELEASE_V1.0.2/MSDK/mbedtls/mbedtls-2.17.0-ssl/library\debug.c **** void mbedtls_debug_printf_ecdh( const mbedtls_ssl_context *ssl, int level,
 391:C:/Users/stapi/OneDrive/Desktop/GD32VW553/V1_MQTT_OK/GD32VW55X_Wifi_BLE_SDK/GD32VW55x_RELEASE_V1.0.2/MSDK/mbedtls/mbedtls-2.17.0-ssl/library\debug.c ****                                 const char *file, int line,
 392:C:/Users/stapi/OneDrive/Desktop/GD32VW553/V1_MQTT_OK/GD32VW55X_Wifi_BLE_SDK/GD32VW55x_RELEASE_V1.0.2/MSDK/mbedtls/mbedtls-2.17.0-ssl/library\debug.c ****                                 const mbedtls_ecdh_context *ecdh,
 393:C:/Users/stapi/OneDrive/Desktop/GD32VW553/V1_MQTT_OK/GD32VW55X_Wifi_BLE_SDK/GD32VW55x_RELEASE_V1.0.2/MSDK/mbedtls/mbedtls-2.17.0-ssl/library\debug.c ****                                 mbedtls_debug_ecdh_attr attr )
 394:C:/Users/stapi/OneDrive/Desktop/GD32VW553/V1_MQTT_OK/GD32VW55X_Wifi_BLE_SDK/GD32VW55x_RELEASE_V1.0.2/MSDK/mbedtls/mbedtls-2.17.0-ssl/library\debug.c **** {
 1347              		.loc 1 394 1
 1348              		.cfi_startproc
 1349              	.LVL126:
 1350 0000 17030000 		call	t0,__riscv_save_0
 1350      E7020300 
 1351              		.cfi_offset 1, -4
 1352              		.cfi_def_cfa_offset 16
 395:C:/Users/stapi/OneDrive/Desktop/GD32VW553/V1_MQTT_OK/GD32VW55X_Wifi_BLE_SDK/GD32VW55x_RELEASE_V1.0.2/MSDK/mbedtls/mbedtls-2.17.0-ssl/library\debug.c **** #if defined(MBEDTLS_ECDH_LEGACY_CONTEXT)
 396:C:/Users/stapi/OneDrive/Desktop/GD32VW553/V1_MQTT_OK/GD32VW55X_Wifi_BLE_SDK/GD32VW55x_RELEASE_V1.0.2/MSDK/mbedtls/mbedtls-2.17.0-ssl/library\debug.c ****     mbedtls_debug_printf_ecdh_internal( ssl, level, file, line, ecdh, attr );
 1353              		.loc 1 396 5
 1354              	.LVL127:
 1355              	.LBB24:
 1356              	.LBB25:
 366:C:/Users/stapi/OneDrive/Desktop/GD32VW553/V1_MQTT_OK/GD32VW55X_Wifi_BLE_SDK/GD32VW55x_RELEASE_V1.0.2/MSDK/mbedtls/mbedtls-2.17.0-ssl/library\debug.c **** #else
 1357              		.loc 1 366 5
 371:C:/Users/stapi/OneDrive/Desktop/GD32VW553/V1_MQTT_OK/GD32VW55X_Wifi_BLE_SDK/GD32VW55x_RELEASE_V1.0.2/MSDK/mbedtls/mbedtls-2.17.0-ssl/library\debug.c ****     {
 1358              		.loc 1 371 5
 1359 0008 0548     		li	a6,1
 1360 000a 63840703 		beq	a5,a6,.L143
 1361 000e 0948     		li	a6,2
 1362 0010 63880703 		beq	a5,a6,.L144
 1363 0014 99EB     		bne	a5,zero,.L142
 374:C:/Users/stapi/OneDrive/Desktop/GD32VW553/V1_MQTT_OK/GD32VW55X_Wifi_BLE_SDK/GD32VW55x_RELEASE_V1.0.2/MSDK/mbedtls/mbedtls-2.17.0-ssl/library\debug.c ****                                      &ctx->Q );
 1364              		.loc 1 374 13
 1365 0016 93078708 		addi	a5,a4,136
 1366              	.LVL128:
 1367 001a 37070000 		lui	a4,%hi(.LC17)
 1368              	.LVL129:
 1369 001e 13070700 		addi	a4,a4,%lo(.LC17)
 1370              	.LVL130:
 1371              	.L147:
 378:C:/Users/stapi/OneDrive/Desktop/GD32VW553/V1_MQTT_OK/GD32VW55X_Wifi_BLE_SDK/GD32VW55x_RELEASE_V1.0.2/MSDK/mbedtls/mbedtls-2.17.0-ssl/library\debug.c ****                                      &ctx->Qp );
 1372              		.loc 1 378 13 is_stmt 0
 1373 0022 97000000 		call	mbedtls_debug_print_ecp
 1373      E7800000 
 1374              	.LVL131:
 380:C:/Users/stapi/OneDrive/Desktop/GD32VW553/V1_MQTT_OK/GD32VW55X_Wifi_BLE_SDK/GD32VW55x_RELEASE_V1.0.2/MSDK/mbedtls/mbedtls-2.17.0-ssl/library\debug.c ****         case MBEDTLS_DEBUG_ECDH_Z:
 1375              		.loc 1 380 13 is_stmt 1
 1376              	.L142:
 1377              	.LBE25:
 1378              	.LBE24:
 397:C:/Users/stapi/OneDrive/Desktop/GD32VW553/V1_MQTT_OK/GD32VW55X_Wifi_BLE_SDK/GD32VW55x_RELEASE_V1.0.2/MSDK/mbedtls/mbedtls-2.17.0-ssl/library\debug.c **** #else
 398:C:/Users/stapi/OneDrive/Desktop/GD32VW553/V1_MQTT_OK/GD32VW55X_Wifi_BLE_SDK/GD32VW55x_RELEASE_V1.0.2/MSDK/mbedtls/mbedtls-2.17.0-ssl/library\debug.c ****     switch( ecdh->var )
 399:C:/Users/stapi/OneDrive/Desktop/GD32VW553/V1_MQTT_OK/GD32VW55X_Wifi_BLE_SDK/GD32VW55x_RELEASE_V1.0.2/MSDK/mbedtls/mbedtls-2.17.0-ssl/library\debug.c ****     {
 400:C:/Users/stapi/OneDrive/Desktop/GD32VW553/V1_MQTT_OK/GD32VW55X_Wifi_BLE_SDK/GD32VW55x_RELEASE_V1.0.2/MSDK/mbedtls/mbedtls-2.17.0-ssl/library\debug.c ****         default:
 401:C:/Users/stapi/OneDrive/Desktop/GD32VW553/V1_MQTT_OK/GD32VW55X_Wifi_BLE_SDK/GD32VW55x_RELEASE_V1.0.2/MSDK/mbedtls/mbedtls-2.17.0-ssl/library\debug.c ****             mbedtls_debug_printf_ecdh_internal( ssl, level, file, line, ecdh,
 402:C:/Users/stapi/OneDrive/Desktop/GD32VW553/V1_MQTT_OK/GD32VW55X_Wifi_BLE_SDK/GD32VW55x_RELEASE_V1.0.2/MSDK/mbedtls/mbedtls-2.17.0-ssl/library\debug.c ****                                                 attr );
 403:C:/Users/stapi/OneDrive/Desktop/GD32VW553/V1_MQTT_OK/GD32VW55X_Wifi_BLE_SDK/GD32VW55x_RELEASE_V1.0.2/MSDK/mbedtls/mbedtls-2.17.0-ssl/library\debug.c ****     }
 404:C:/Users/stapi/OneDrive/Desktop/GD32VW553/V1_MQTT_OK/GD32VW55X_Wifi_BLE_SDK/GD32VW55x_RELEASE_V1.0.2/MSDK/mbedtls/mbedtls-2.17.0-ssl/library\debug.c **** #endif
 405:C:/Users/stapi/OneDrive/Desktop/GD32VW553/V1_MQTT_OK/GD32VW55X_Wifi_BLE_SDK/GD32VW55x_RELEASE_V1.0.2/MSDK/mbedtls/mbedtls-2.17.0-ssl/library\debug.c **** }
 1379              		.loc 1 405 1 is_stmt 0
 1380 002a 17030000 		tail	__riscv_restore_0
 1380      67000300 
 1381              		.cfi_remember_state
 1382              		.cfi_restore 1
 1383              		.cfi_def_cfa_offset 0
 1384              	.LVL132:
 1385              	.L143:
 1386              		.cfi_restore_state
 1387              	.LBB27:
 1388              	.LBB26:
 378:C:/Users/stapi/OneDrive/Desktop/GD32VW553/V1_MQTT_OK/GD32VW55X_Wifi_BLE_SDK/GD32VW55x_RELEASE_V1.0.2/MSDK/mbedtls/mbedtls-2.17.0-ssl/library\debug.c ****                                      &ctx->Qp );
 1389              		.loc 1 378 13 is_stmt 1
 1390 0032 9307C70A 		addi	a5,a4,172
 1391              	.LVL133:
 1392 0036 37070000 		lui	a4,%hi(.LC18)
 1393              	.LVL134:
 1394 003a 13070700 		addi	a4,a4,%lo(.LC18)
 1395 003e D5B7     		j	.L147
 1396              	.LVL135:
 1397              	.L144:
 382:C:/Users/stapi/OneDrive/Desktop/GD32VW553/V1_MQTT_OK/GD32VW55X_Wifi_BLE_SDK/GD32VW55x_RELEASE_V1.0.2/MSDK/mbedtls/mbedtls-2.17.0-ssl/library\debug.c ****                                      &ctx->z );
 1398              		.loc 1 382 13
 1399 0040 9307070D 		addi	a5,a4,208
 1400              	.LVL136:
 1401 0044 37070000 		lui	a4,%hi(.LC19)
 1402              	.LVL137:
 1403 0048 13070700 		addi	a4,a4,%lo(.LC19)
 1404 004c 97000000 		call	mbedtls_debug_print_mpi
 1404      E7800000 
 1405              	.LVL138:
 384:C:/Users/stapi/OneDrive/Desktop/GD32VW553/V1_MQTT_OK/GD32VW55X_Wifi_BLE_SDK/GD32VW55x_RELEASE_V1.0.2/MSDK/mbedtls/mbedtls-2.17.0-ssl/library\debug.c ****         default:
 1406              		.loc 1 384 13
 1407              	.LBE26:
 1408              	.LBE27:
 1409              		.loc 1 405 1 is_stmt 0
 1410 0054 D9BF     		j	.L142
 1411              		.cfi_endproc
 1412              	.LFE394:
 1414              		.section	.sbss.debug_threshold,"aw",@nobits
 1415              		.align	2
 1416              		.set	.LANCHOR0,. + 0
 1419              	debug_threshold:
 1420 0000 00000000 		.zero	4
 1421              		.text
 1422              	.Letext0:
 1423              		.file 2 "c:\\users\\stapi\\onedrive\\desktop\\gd32vw553\\embeddedbuilder_v1.4.7.26843\\tools\\nucl
 1424              		.file 3 "c:\\users\\stapi\\onedrive\\desktop\\gd32vw553\\embeddedbuilder_v1.4.7.26843\\tools\\nucl
 1425              		.file 4 "c:\\users\\stapi\\onedrive\\desktop\\gd32vw553\\embeddedbuilder_v1.4.7.26843\\tools\\nucl
 1426              		.file 5 "c:\\users\\stapi\\onedrive\\desktop\\gd32vw553\\embeddedbuilder_v1.4.7.26843\\tools\\nucl
 1427              		.file 6 "..\\..\\..\\..\\..\\ROM-EXPORT\\mbedtls-2.17.0-rom\\include/mbedtls/platform_time.h"
 1428              		.file 7 "..\\..\\..\\..\\..\\ROM-EXPORT\\mbedtls-2.17.0-rom\\include/mbedtls/md.h"
 1429              		.file 8 "..\\..\\..\\..\\..\\ROM-EXPORT\\mbedtls-2.17.0-rom\\include/mbedtls/bignum.h"
 1430              		.file 9 "..\\..\\..\\..\\..\\ROM-EXPORT\\mbedtls-2.17.0-rom\\include/mbedtls/ecp.h"
 1431              		.file 10 "..\\..\\..\\..\\..\\ROM-EXPORT\\mbedtls-2.17.0-rom\\include/mbedtls/ecdh.h"
 1432              		.file 11 "..\\..\\..\\..\\..\\ROM-EXPORT\\mbedtls-2.17.0-rom\\include/mbedtls/pk.h"
 1433              		.file 12 "..\\..\\..\\..\\..\\ROM-EXPORT\\mbedtls-2.17.0-rom\\include/mbedtls/asn1.h"
 1434              		.file 13 "..\\..\\..\\..\\..\\ROM-EXPORT\\mbedtls-2.17.0-rom\\include/mbedtls/x509.h"
 1435              		.file 14 "..\\..\\..\\..\\..\\ROM-EXPORT\\mbedtls-2.17.0-rom\\include/mbedtls/x509_crl.h"
 1436              		.file 15 "..\\..\\..\\..\\..\\ROM-EXPORT\\mbedtls-2.17.0-rom\\include/mbedtls/x509_crt.h"
 1437              		.file 16 "..\\..\\..\\..\\..\\ROM-EXPORT\\mbedtls-2.17.0-rom\\include/mbedtls/ssl.h"
 1438              		.file 17 "..\\..\\..\\..\\mbedtls\\mbedtls-2.17.0-ssl\\include/mbedtls/debug.h"
 1439              		.file 18 "c:\\users\\stapi\\onedrive\\desktop\\gd32vw553\\embeddedbuilder_v1.4.7.26843\\tools\\nuc
 1440              		.file 19 "<built-in>"
DEFINED SYMBOLS
                            *ABS*:0000000000000000 debug.c
C:\Users\stapi\AppData\Local\Temp\ccG2cYBF.s:12     .text.debug_send_line:0000000000000000 debug_send_line
C:\Users\stapi\AppData\Local\Temp\ccG2cYBF.s:16     .text.debug_send_line:0000000000000000 .L0 
C:\Users\stapi\AppData\Local\Temp\ccG2cYBF.s:18     .text.debug_send_line:0000000000000000 .L0 
C:\Users\stapi\AppData\Local\Temp\ccG2cYBF.s:19     .text.debug_send_line:0000000000000000 .L0 
C:\Users\stapi\AppData\Local\Temp\ccG2cYBF.s:20     .text.debug_send_line:0000000000000000 .L0 
C:\Users\stapi\AppData\Local\Temp\ccG2cYBF.s:22     .text.debug_send_line:0000000000000002 .L0 
C:\Users\stapi\AppData\Local\Temp\ccG2cYBF.s:27     .text.debug_send_line:000000000000000a .L0 
C:\Users\stapi\AppData\Local\Temp\ccG2cYBF.s:46     .text.mbedtls_debug_print_mpi.part.0:0000000000000000 mbedtls_debug_print_mpi.part.0
C:\Users\stapi\AppData\Local\Temp\ccG2cYBF.s:49     .text.mbedtls_debug_print_mpi.part.0:0000000000000000 .L0 
C:\Users\stapi\AppData\Local\Temp\ccG2cYBF.s:51     .text.mbedtls_debug_print_mpi.part.0:0000000000000000 .L0 
C:\Users\stapi\AppData\Local\Temp\ccG2cYBF.s:52     .text.mbedtls_debug_print_mpi.part.0:0000000000000008 .L0 
C:\Users\stapi\AppData\Local\Temp\ccG2cYBF.s:53     .text.mbedtls_debug_print_mpi.part.0:0000000000000008 .L0 
C:\Users\stapi\AppData\Local\Temp\ccG2cYBF.s:54     .text.mbedtls_debug_print_mpi.part.0:0000000000000008 .L0 
C:\Users\stapi\AppData\Local\Temp\ccG2cYBF.s:55     .text.mbedtls_debug_print_mpi.part.0:0000000000000008 .L0 
C:\Users\stapi\AppData\Local\Temp\ccG2cYBF.s:56     .text.mbedtls_debug_print_mpi.part.0:0000000000000008 .L0 
C:\Users\stapi\AppData\Local\Temp\ccG2cYBF.s:57     .text.mbedtls_debug_print_mpi.part.0:0000000000000008 .L0 
C:\Users\stapi\AppData\Local\Temp\ccG2cYBF.s:58     .text.mbedtls_debug_print_mpi.part.0:0000000000000008 .L0 
C:\Users\stapi\AppData\Local\Temp\ccG2cYBF.s:59     .text.mbedtls_debug_print_mpi.part.0:0000000000000008 .L0 
C:\Users\stapi\AppData\Local\Temp\ccG2cYBF.s:60     .text.mbedtls_debug_print_mpi.part.0:0000000000000008 .L0 
C:\Users\stapi\AppData\Local\Temp\ccG2cYBF.s:61     .text.mbedtls_debug_print_mpi.part.0:0000000000000008 .L0 
C:\Users\stapi\AppData\Local\Temp\ccG2cYBF.s:62     .text.mbedtls_debug_print_mpi.part.0:0000000000000008 .L0 
C:\Users\stapi\AppData\Local\Temp\ccG2cYBF.s:63     .text.mbedtls_debug_print_mpi.part.0:0000000000000008 .L0 
C:\Users\stapi\AppData\Local\Temp\ccG2cYBF.s:64     .text.mbedtls_debug_print_mpi.part.0:0000000000000008 .L0 
C:\Users\stapi\AppData\Local\Temp\ccG2cYBF.s:65     .text.mbedtls_debug_print_mpi.part.0:0000000000000008 .L0 
C:\Users\stapi\AppData\Local\Temp\ccG2cYBF.s:67     .text.mbedtls_debug_print_mpi.part.0:0000000000000008 .L0 
C:\Users\stapi\AppData\Local\Temp\ccG2cYBF.s:68     .text.mbedtls_debug_print_mpi.part.0:0000000000000008 .L0 
C:\Users\stapi\AppData\Local\Temp\ccG2cYBF.s:70     .text.mbedtls_debug_print_mpi.part.0:000000000000000a .L0 
C:\Users\stapi\AppData\Local\Temp\ccG2cYBF.s:72     .text.mbedtls_debug_print_mpi.part.0:000000000000000c .L0 
C:\Users\stapi\AppData\Local\Temp\ccG2cYBF.s:75     .text.mbedtls_debug_print_mpi.part.0:000000000000000e .L0 
C:\Users\stapi\AppData\Local\Temp\ccG2cYBF.s:77     .text.mbedtls_debug_print_mpi.part.0:0000000000000012 .L0 
C:\Users\stapi\AppData\Local\Temp\ccG2cYBF.s:79     .text.mbedtls_debug_print_mpi.part.0:0000000000000012 .L0 
C:\Users\stapi\AppData\Local\Temp\ccG2cYBF.s:85     .text.mbedtls_debug_print_mpi.part.0:000000000000001a .L0 
C:\Users\stapi\AppData\Local\Temp\ccG2cYBF.s:89     .text.mbedtls_debug_print_mpi.part.0:000000000000001c .L0 
C:\Users\stapi\AppData\Local\Temp\ccG2cYBF.s:91     .text.mbedtls_debug_print_mpi.part.0:0000000000000020 .L0 
C:\Users\stapi\AppData\Local\Temp\ccG2cYBF.s:95     .text.mbedtls_debug_print_mpi.part.0:0000000000000022 .L0 
C:\Users\stapi\AppData\Local\Temp\ccG2cYBF.s:96     .text.mbedtls_debug_print_mpi.part.0:0000000000000022 .L0 
C:\Users\stapi\AppData\Local\Temp\ccG2cYBF.s:99     .text.mbedtls_debug_print_mpi.part.0:0000000000000026 .L0 
C:\Users\stapi\AppData\Local\Temp\ccG2cYBF.s:101    .text.mbedtls_debug_print_mpi.part.0:0000000000000028 .L0 
C:\Users\stapi\AppData\Local\Temp\ccG2cYBF.s:105    .text.mbedtls_debug_print_mpi.part.0:000000000000002a .L0 
C:\Users\stapi\AppData\Local\Temp\ccG2cYBF.s:106    .text.mbedtls_debug_print_mpi.part.0:000000000000002a .L0 
C:\Users\stapi\AppData\Local\Temp\ccG2cYBF.s:108    .text.mbedtls_debug_print_mpi.part.0:000000000000002e .L0 
C:\Users\stapi\AppData\Local\Temp\ccG2cYBF.s:110    .text.mbedtls_debug_print_mpi.part.0:0000000000000030 .L0 
C:\Users\stapi\AppData\Local\Temp\ccG2cYBF.s:111    .text.mbedtls_debug_print_mpi.part.0:0000000000000030 .L0 
C:\Users\stapi\AppData\Local\Temp\ccG2cYBF.s:114    .text.mbedtls_debug_print_mpi.part.0:0000000000000032 .L0 
C:\Users\stapi\AppData\Local\Temp\ccG2cYBF.s:115    .text.mbedtls_debug_print_mpi.part.0:0000000000000032 .L0 
C:\Users\stapi\AppData\Local\Temp\ccG2cYBF.s:118    .text.mbedtls_debug_print_mpi.part.0:0000000000000036 .L0 
C:\Users\stapi\AppData\Local\Temp\ccG2cYBF.s:119    .text.mbedtls_debug_print_mpi.part.0:0000000000000036 .L0 
C:\Users\stapi\AppData\Local\Temp\ccG2cYBF.s:121    .text.mbedtls_debug_print_mpi.part.0:000000000000003a .L0 
C:\Users\stapi\AppData\Local\Temp\ccG2cYBF.s:123    .text.mbedtls_debug_print_mpi.part.0:000000000000003c .L0 
C:\Users\stapi\AppData\Local\Temp\ccG2cYBF.s:132    .text.mbedtls_debug_print_mpi.part.0:0000000000000054 .L0 
C:\Users\stapi\AppData\Local\Temp\ccG2cYBF.s:140    .text.mbedtls_debug_print_mpi.part.0:0000000000000066 .L0 
C:\Users\stapi\AppData\Local\Temp\ccG2cYBF.s:141    .text.mbedtls_debug_print_mpi.part.0:0000000000000066 .L0 
C:\Users\stapi\AppData\Local\Temp\ccG2cYBF.s:142    .text.mbedtls_debug_print_mpi.part.0:0000000000000066 .L0 
C:\Users\stapi\AppData\Local\Temp\ccG2cYBF.s:144    .text.mbedtls_debug_print_mpi.part.0:0000000000000068 .L0 
C:\Users\stapi\AppData\Local\Temp\ccG2cYBF.s:146    .text.mbedtls_debug_print_mpi.part.0:000000000000006a .L0 
C:\Users\stapi\AppData\Local\Temp\ccG2cYBF.s:148    .text.mbedtls_debug_print_mpi.part.0:000000000000006c .L0 
C:\Users\stapi\AppData\Local\Temp\ccG2cYBF.s:152    .text.mbedtls_debug_print_mpi.part.0:0000000000000070 .L0 
C:\Users\stapi\AppData\Local\Temp\ccG2cYBF.s:153    .text.mbedtls_debug_print_mpi.part.0:0000000000000070 .L0 
C:\Users\stapi\AppData\Local\Temp\ccG2cYBF.s:156    .text.mbedtls_debug_print_mpi.part.0:0000000000000076 .L0 
C:\Users\stapi\AppData\Local\Temp\ccG2cYBF.s:157    .text.mbedtls_debug_print_mpi.part.0:0000000000000076 .L0 
C:\Users\stapi\AppData\Local\Temp\ccG2cYBF.s:159    .text.mbedtls_debug_print_mpi.part.0:0000000000000078 .L0 
C:\Users\stapi\AppData\Local\Temp\ccG2cYBF.s:160    .text.mbedtls_debug_print_mpi.part.0:0000000000000078 .L0 
C:\Users\stapi\AppData\Local\Temp\ccG2cYBF.s:168    .text.mbedtls_debug_print_mpi.part.0:0000000000000092 .L0 
C:\Users\stapi\AppData\Local\Temp\ccG2cYBF.s:172    .text.mbedtls_debug_print_mpi.part.0:0000000000000094 .L0 
C:\Users\stapi\AppData\Local\Temp\ccG2cYBF.s:180    .text.mbedtls_debug_print_mpi.part.0:00000000000000ae .L0 
C:\Users\stapi\AppData\Local\Temp\ccG2cYBF.s:188    .text.mbedtls_debug_print_mpi.part.0:00000000000000c0 .L0 
C:\Users\stapi\AppData\Local\Temp\ccG2cYBF.s:189    .text.mbedtls_debug_print_mpi.part.0:00000000000000c4 .L0 
C:\Users\stapi\AppData\Local\Temp\ccG2cYBF.s:190    .text.mbedtls_debug_print_mpi.part.0:00000000000000c4 .L0 
C:\Users\stapi\AppData\Local\Temp\ccG2cYBF.s:192    .text.mbedtls_debug_print_mpi.part.0:00000000000000cc .L0 
C:\Users\stapi\AppData\Local\Temp\ccG2cYBF.s:193    .text.mbedtls_debug_print_mpi.part.0:00000000000000cc .L0 
C:\Users\stapi\AppData\Local\Temp\ccG2cYBF.s:194    .text.mbedtls_debug_print_mpi.part.0:00000000000000cc .L0 
C:\Users\stapi\AppData\Local\Temp\ccG2cYBF.s:195    .text.mbedtls_debug_print_mpi.part.0:00000000000000cc .L0 
C:\Users\stapi\AppData\Local\Temp\ccG2cYBF.s:196    .text.mbedtls_debug_print_mpi.part.0:00000000000000cc .L0 
C:\Users\stapi\AppData\Local\Temp\ccG2cYBF.s:197    .text.mbedtls_debug_print_mpi.part.0:00000000000000cc .L0 
C:\Users\stapi\AppData\Local\Temp\ccG2cYBF.s:198    .text.mbedtls_debug_print_mpi.part.0:00000000000000cc .L0 
C:\Users\stapi\AppData\Local\Temp\ccG2cYBF.s:199    .text.mbedtls_debug_print_mpi.part.0:00000000000000cc .L0 
C:\Users\stapi\AppData\Local\Temp\ccG2cYBF.s:200    .text.mbedtls_debug_print_mpi.part.0:00000000000000cc .L0 
C:\Users\stapi\AppData\Local\Temp\ccG2cYBF.s:201    .text.mbedtls_debug_print_mpi.part.0:00000000000000cc .L0 
C:\Users\stapi\AppData\Local\Temp\ccG2cYBF.s:202    .text.mbedtls_debug_print_mpi.part.0:00000000000000cc .L0 
C:\Users\stapi\AppData\Local\Temp\ccG2cYBF.s:203    .text.mbedtls_debug_print_mpi.part.0:00000000000000cc .L0 
C:\Users\stapi\AppData\Local\Temp\ccG2cYBF.s:204    .text.mbedtls_debug_print_mpi.part.0:00000000000000cc .L0 
C:\Users\stapi\AppData\Local\Temp\ccG2cYBF.s:205    .text.mbedtls_debug_print_mpi.part.0:00000000000000cc .L0 
C:\Users\stapi\AppData\Local\Temp\ccG2cYBF.s:208    .text.mbedtls_debug_print_mpi.part.0:00000000000000cc .L0 
C:\Users\stapi\AppData\Local\Temp\ccG2cYBF.s:210    .text.mbedtls_debug_print_mpi.part.0:00000000000000cc .L0 
C:\Users\stapi\AppData\Local\Temp\ccG2cYBF.s:211    .text.mbedtls_debug_print_mpi.part.0:00000000000000cc .L0 
C:\Users\stapi\AppData\Local\Temp\ccG2cYBF.s:213    .text.mbedtls_debug_print_mpi.part.0:00000000000000d0 .L0 
C:\Users\stapi\AppData\Local\Temp\ccG2cYBF.s:216    .text.mbedtls_debug_print_mpi.part.0:00000000000000d4 .L0 
C:\Users\stapi\AppData\Local\Temp\ccG2cYBF.s:217    .text.mbedtls_debug_print_mpi.part.0:00000000000000d4 .L0 
C:\Users\stapi\AppData\Local\Temp\ccG2cYBF.s:223    .text.mbedtls_debug_print_mpi.part.0:00000000000000d8 .L0 
C:\Users\stapi\AppData\Local\Temp\ccG2cYBF.s:225    .text.mbedtls_debug_print_mpi.part.0:00000000000000dc .L0 
C:\Users\stapi\AppData\Local\Temp\ccG2cYBF.s:227    .text.mbedtls_debug_print_mpi.part.0:00000000000000de .L0 
C:\Users\stapi\AppData\Local\Temp\ccG2cYBF.s:230    .text.mbedtls_debug_print_mpi.part.0:00000000000000e4 .L0 
C:\Users\stapi\AppData\Local\Temp\ccG2cYBF.s:234    .text.mbedtls_debug_print_mpi.part.0:00000000000000e8 .L0 
C:\Users\stapi\AppData\Local\Temp\ccG2cYBF.s:236    .text.mbedtls_debug_print_mpi.part.0:00000000000000ea .L0 
C:\Users\stapi\AppData\Local\Temp\ccG2cYBF.s:239    .text.mbedtls_debug_print_mpi.part.0:00000000000000ec .L0 
C:\Users\stapi\AppData\Local\Temp\ccG2cYBF.s:240    .text.mbedtls_debug_print_mpi.part.0:00000000000000ec .L0 
C:\Users\stapi\AppData\Local\Temp\ccG2cYBF.s:243    .text.mbedtls_debug_print_mpi.part.0:00000000000000ee .L0 
C:\Users\stapi\AppData\Local\Temp\ccG2cYBF.s:246    .text.mbedtls_debug_print_mpi.part.0:00000000000000f4 .L0 
C:\Users\stapi\AppData\Local\Temp\ccG2cYBF.s:249    .text.mbedtls_debug_print_mpi.part.0:00000000000000fa .L0 
C:\Users\stapi\AppData\Local\Temp\ccG2cYBF.s:251    .text.mbedtls_debug_print_mpi.part.0:00000000000000fe .L0 
C:\Users\stapi\AppData\Local\Temp\ccG2cYBF.s:255    .text.mbedtls_debug_print_mpi.part.0:0000000000000100 .L0 
C:\Users\stapi\AppData\Local\Temp\ccG2cYBF.s:256    .text.mbedtls_debug_print_mpi.part.0:0000000000000100 .L0 
C:\Users\stapi\AppData\Local\Temp\ccG2cYBF.s:257    .text.mbedtls_debug_print_mpi.part.0:0000000000000100 .L0 
C:\Users\stapi\AppData\Local\Temp\ccG2cYBF.s:259    .text.mbedtls_debug_print_mpi.part.0:0000000000000104 .L0 
C:\Users\stapi\AppData\Local\Temp\ccG2cYBF.s:261    .text.mbedtls_debug_print_mpi.part.0:0000000000000106 .L0 
C:\Users\stapi\AppData\Local\Temp\ccG2cYBF.s:262    .text.mbedtls_debug_print_mpi.part.0:0000000000000106 .L0 
C:\Users\stapi\AppData\Local\Temp\ccG2cYBF.s:264    .text.mbedtls_debug_print_mpi.part.0:000000000000010a .L0 
C:\Users\stapi\AppData\Local\Temp\ccG2cYBF.s:271    .text.mbedtls_debug_print_mpi.part.0:0000000000000122 .L0 
C:\Users\stapi\AppData\Local\Temp\ccG2cYBF.s:279    .text.mbedtls_debug_print_mpi.part.0:0000000000000134 .L0 
C:\Users\stapi\AppData\Local\Temp\ccG2cYBF.s:280    .text.mbedtls_debug_print_mpi.part.0:0000000000000134 .L0 
C:\Users\stapi\AppData\Local\Temp\ccG2cYBF.s:284    .text.mbedtls_debug_print_mpi.part.0:0000000000000136 .L0 
C:\Users\stapi\AppData\Local\Temp\ccG2cYBF.s:285    .text.mbedtls_debug_print_mpi.part.0:0000000000000136 .L0 
C:\Users\stapi\AppData\Local\Temp\ccG2cYBF.s:287    .text.mbedtls_debug_print_mpi.part.0:000000000000013a .L0 
C:\Users\stapi\AppData\Local\Temp\ccG2cYBF.s:290    .text.mbedtls_debug_print_mpi.part.0:0000000000000142 .L0 
C:\Users\stapi\AppData\Local\Temp\ccG2cYBF.s:292    .text.mbedtls_debug_print_mpi.part.0:0000000000000144 .L0 
C:\Users\stapi\AppData\Local\Temp\ccG2cYBF.s:294    .text.mbedtls_debug_print_mpi.part.0:0000000000000146 .L0 
C:\Users\stapi\AppData\Local\Temp\ccG2cYBF.s:297    .text.mbedtls_debug_print_mpi.part.0:000000000000014e .L0 
C:\Users\stapi\AppData\Local\Temp\ccG2cYBF.s:299    .text.mbedtls_debug_print_mpi.part.0:0000000000000152 .L0 
C:\Users\stapi\AppData\Local\Temp\ccG2cYBF.s:303    .text.mbedtls_debug_print_mpi.part.0:000000000000015e .L0 
C:\Users\stapi\AppData\Local\Temp\ccG2cYBF.s:306    .text.mbedtls_debug_print_mpi.part.0:0000000000000160 .L0 
C:\Users\stapi\AppData\Local\Temp\ccG2cYBF.s:307    .text.mbedtls_debug_print_mpi.part.0:0000000000000160 .L0 
C:\Users\stapi\AppData\Local\Temp\ccG2cYBF.s:310    .text.mbedtls_debug_print_mpi.part.0:0000000000000162 .L0 
C:\Users\stapi\AppData\Local\Temp\ccG2cYBF.s:314    .text.mbedtls_debug_print_mpi.part.0:0000000000000164 .L0 
C:\Users\stapi\AppData\Local\Temp\ccG2cYBF.s:315    .text.mbedtls_debug_print_mpi.part.0:0000000000000164 .L0 
C:\Users\stapi\AppData\Local\Temp\ccG2cYBF.s:316    .text.mbedtls_debug_print_mpi.part.0:0000000000000164 .L0 
C:\Users\stapi\AppData\Local\Temp\ccG2cYBF.s:321    .text.mbedtls_debug_print_mpi.part.0:000000000000016a .L0 
C:\Users\stapi\AppData\Local\Temp\ccG2cYBF.s:324    .text.mbedtls_debug_print_mpi.part.0:000000000000016e .L0 
C:\Users\stapi\AppData\Local\Temp\ccG2cYBF.s:331    .text.mbedtls_debug_set_threshold:0000000000000000 mbedtls_debug_set_threshold
C:\Users\stapi\AppData\Local\Temp\ccG2cYBF.s:334    .text.mbedtls_debug_set_threshold:0000000000000000 .L0 
C:\Users\stapi\AppData\Local\Temp\ccG2cYBF.s:336    .text.mbedtls_debug_set_threshold:0000000000000000 .L0 
C:\Users\stapi\AppData\Local\Temp\ccG2cYBF.s:337    .text.mbedtls_debug_set_threshold:0000000000000000 .L0 
C:\Users\stapi\AppData\Local\Temp\ccG2cYBF.s:338    .text.mbedtls_debug_set_threshold:0000000000000000 .L0 
C:\Users\stapi\AppData\Local\Temp\ccG2cYBF.s:341    .text.mbedtls_debug_set_threshold:0000000000000008 .L0 
C:\Users\stapi\AppData\Local\Temp\ccG2cYBF.s:342    .text.mbedtls_debug_set_threshold:000000000000000a .L0 
C:\Users\stapi\AppData\Local\Temp\ccG2cYBF.s:349    .text.mbedtls_debug_print_msg:0000000000000000 mbedtls_debug_print_msg
C:\Users\stapi\AppData\Local\Temp\ccG2cYBF.s:352    .text.mbedtls_debug_print_msg:0000000000000000 .L0 
C:\Users\stapi\AppData\Local\Temp\ccG2cYBF.s:354    .text.mbedtls_debug_print_msg:0000000000000000 .L0 
C:\Users\stapi\AppData\Local\Temp\ccG2cYBF.s:355    .text.mbedtls_debug_print_msg:0000000000000000 .L0 
C:\Users\stapi\AppData\Local\Temp\ccG2cYBF.s:356    .text.mbedtls_debug_print_msg:0000000000000000 .L0 
C:\Users\stapi\AppData\Local\Temp\ccG2cYBF.s:357    .text.mbedtls_debug_print_msg:0000000000000000 .L0 
C:\Users\stapi\AppData\Local\Temp\ccG2cYBF.s:358    .text.mbedtls_debug_print_msg:0000000000000000 .L0 
C:\Users\stapi\AppData\Local\Temp\ccG2cYBF.s:359    .text.mbedtls_debug_print_msg:0000000000000000 .L0 
C:\Users\stapi\AppData\Local\Temp\ccG2cYBF.s:360    .text.mbedtls_debug_print_msg:0000000000000004 .L0 
C:\Users\stapi\AppData\Local\Temp\ccG2cYBF.s:366    .text.mbedtls_debug_print_msg:0000000000000018 .L0 
C:\Users\stapi\AppData\Local\Temp\ccG2cYBF.s:367    .text.mbedtls_debug_print_msg:0000000000000018 .L0 
C:\Users\stapi\AppData\Local\Temp\ccG2cYBF.s:368    .text.mbedtls_debug_print_msg:0000000000000018 .L0 
C:\Users\stapi\AppData\Local\Temp\ccG2cYBF.s:369    .text.mbedtls_debug_print_msg:0000000000000018 .L0 
C:\Users\stapi\AppData\Local\Temp\ccG2cYBF.s:370    .text.mbedtls_debug_print_msg:0000000000000018 .L0 
C:\Users\stapi\AppData\Local\Temp\ccG2cYBF.s:372    .text.mbedtls_debug_print_msg:0000000000000018 .L0 
C:\Users\stapi\AppData\Local\Temp\ccG2cYBF.s:376    .text.mbedtls_debug_print_msg:0000000000000024 .L0 
C:\Users\stapi\AppData\Local\Temp\ccG2cYBF.s:378    .text.mbedtls_debug_print_msg:0000000000000026 .L0 
C:\Users\stapi\AppData\Local\Temp\ccG2cYBF.s:381    .text.mbedtls_debug_print_msg:000000000000002a .L0 
C:\Users\stapi\AppData\Local\Temp\ccG2cYBF.s:383    .text.mbedtls_debug_print_msg:000000000000002c .L0 
C:\Users\stapi\AppData\Local\Temp\ccG2cYBF.s:386    .text.mbedtls_debug_print_msg:0000000000000030 .L0 
C:\Users\stapi\AppData\Local\Temp\ccG2cYBF.s:395    .text.mbedtls_debug_print_msg:0000000000000044 .L0 
C:\Users\stapi\AppData\Local\Temp\ccG2cYBF.s:398    .text.mbedtls_debug_print_msg:0000000000000046 .L0 
C:\Users\stapi\AppData\Local\Temp\ccG2cYBF.s:403    .text.mbedtls_debug_print_msg:000000000000004c .L0 
C:\Users\stapi\AppData\Local\Temp\ccG2cYBF.s:405    .text.mbedtls_debug_print_msg:000000000000004e .L0 
C:\Users\stapi\AppData\Local\Temp\ccG2cYBF.s:406    .text.mbedtls_debug_print_msg:000000000000004e .L0 
C:\Users\stapi\AppData\Local\Temp\ccG2cYBF.s:409    .text.mbedtls_debug_print_msg:0000000000000056 .L0 
C:\Users\stapi\AppData\Local\Temp\ccG2cYBF.s:410    .text.mbedtls_debug_print_msg:0000000000000056 .L0 
C:\Users\stapi\AppData\Local\Temp\ccG2cYBF.s:411    .text.mbedtls_debug_print_msg:0000000000000056 .L0 
C:\Users\stapi\AppData\Local\Temp\ccG2cYBF.s:414    .text.mbedtls_debug_print_msg:000000000000005e .L0 
C:\Users\stapi\AppData\Local\Temp\ccG2cYBF.s:415    .text.mbedtls_debug_print_msg:000000000000005e .L0 
C:\Users\stapi\AppData\Local\Temp\ccG2cYBF.s:420    .text.mbedtls_debug_print_msg:0000000000000068 .L0 
C:\Users\stapi\AppData\Local\Temp\ccG2cYBF.s:421    .text.mbedtls_debug_print_msg:0000000000000068 .L0 
C:\Users\stapi\AppData\Local\Temp\ccG2cYBF.s:424    .text.mbedtls_debug_print_msg:000000000000006c .L0 
C:\Users\stapi\AppData\Local\Temp\ccG2cYBF.s:434    .text.mbedtls_debug_print_msg:000000000000007e .L0 
C:\Users\stapi\AppData\Local\Temp\ccG2cYBF.s:435    .text.mbedtls_debug_print_msg:0000000000000082 .L0 
C:\Users\stapi\AppData\Local\Temp\ccG2cYBF.s:437    .text.mbedtls_debug_print_msg:0000000000000086 .L0 
C:\Users\stapi\AppData\Local\Temp\ccG2cYBF.s:439    .text.mbedtls_debug_print_msg:000000000000008a .L0 
C:\Users\stapi\AppData\Local\Temp\ccG2cYBF.s:441    .text.mbedtls_debug_print_msg:000000000000008e .L0 
C:\Users\stapi\AppData\Local\Temp\ccG2cYBF.s:443    .text.mbedtls_debug_print_msg:0000000000000092 .L0 
C:\Users\stapi\AppData\Local\Temp\ccG2cYBF.s:445    .text.mbedtls_debug_print_msg:0000000000000096 .L0 
C:\Users\stapi\AppData\Local\Temp\ccG2cYBF.s:447    .text.mbedtls_debug_print_msg:0000000000000098 .L0 
C:\Users\stapi\AppData\Local\Temp\ccG2cYBF.s:458    .text.mbedtls_debug_print_ret:0000000000000000 mbedtls_debug_print_ret
C:\Users\stapi\AppData\Local\Temp\ccG2cYBF.s:461    .text.mbedtls_debug_print_ret:0000000000000000 .L0 
C:\Users\stapi\AppData\Local\Temp\ccG2cYBF.s:463    .text.mbedtls_debug_print_ret:0000000000000000 .L0 
C:\Users\stapi\AppData\Local\Temp\ccG2cYBF.s:464    .text.mbedtls_debug_print_ret:0000000000000008 .L0 
C:\Users\stapi\AppData\Local\Temp\ccG2cYBF.s:465    .text.mbedtls_debug_print_ret:0000000000000008 .L0 
C:\Users\stapi\AppData\Local\Temp\ccG2cYBF.s:466    .text.mbedtls_debug_print_ret:0000000000000008 .L0 
C:\Users\stapi\AppData\Local\Temp\ccG2cYBF.s:467    .text.mbedtls_debug_print_ret:0000000000000008 .L0 
C:\Users\stapi\AppData\Local\Temp\ccG2cYBF.s:468    .text.mbedtls_debug_print_ret:0000000000000008 .L0 
C:\Users\stapi\AppData\Local\Temp\ccG2cYBF.s:469    .text.mbedtls_debug_print_ret:0000000000000008 .L0 
C:\Users\stapi\AppData\Local\Temp\ccG2cYBF.s:471    .text.mbedtls_debug_print_ret:0000000000000008 .L0 
C:\Users\stapi\AppData\Local\Temp\ccG2cYBF.s:472    .text.mbedtls_debug_print_ret:0000000000000008 .L0 
C:\Users\stapi\AppData\Local\Temp\ccG2cYBF.s:473    .text.mbedtls_debug_print_ret:0000000000000008 .L0 
C:\Users\stapi\AppData\Local\Temp\ccG2cYBF.s:479    .text.mbedtls_debug_print_ret:000000000000000e .L0 
C:\Users\stapi\AppData\Local\Temp\ccG2cYBF.s:482    .text.mbedtls_debug_print_ret:0000000000000010 .L0 
C:\Users\stapi\AppData\Local\Temp\ccG2cYBF.s:483    .text.mbedtls_debug_print_ret:0000000000000012 .L0 
C:\Users\stapi\AppData\Local\Temp\ccG2cYBF.s:485    .text.mbedtls_debug_print_ret:0000000000000012 .L0 
C:\Users\stapi\AppData\Local\Temp\ccG2cYBF.s:487    .text.mbedtls_debug_print_ret:0000000000000014 .L0 
C:\Users\stapi\AppData\Local\Temp\ccG2cYBF.s:490    .text.mbedtls_debug_print_ret:0000000000000018 .L0 
C:\Users\stapi\AppData\Local\Temp\ccG2cYBF.s:495    .text.mbedtls_debug_print_ret:0000000000000026 .L0 
C:\Users\stapi\AppData\Local\Temp\ccG2cYBF.s:496    .text.mbedtls_debug_print_ret:0000000000000026 .L0 
C:\Users\stapi\AppData\Local\Temp\ccG2cYBF.s:501    .text.mbedtls_debug_print_ret:0000000000000032 .L0 
C:\Users\stapi\AppData\Local\Temp\ccG2cYBF.s:513    .text.mbedtls_debug_print_ret:000000000000004e .L0 
C:\Users\stapi\AppData\Local\Temp\ccG2cYBF.s:522    .text.mbedtls_debug_print_ret:0000000000000060 .L0 
C:\Users\stapi\AppData\Local\Temp\ccG2cYBF.s:523    .text.mbedtls_debug_print_ret:0000000000000064 .L0 
C:\Users\stapi\AppData\Local\Temp\ccG2cYBF.s:525    .text.mbedtls_debug_print_ret:000000000000006c .L0 
C:\Users\stapi\AppData\Local\Temp\ccG2cYBF.s:526    .text.mbedtls_debug_print_ret:000000000000006c .L0 
C:\Users\stapi\AppData\Local\Temp\ccG2cYBF.s:527    .text.mbedtls_debug_print_ret:000000000000006c .L0 
C:\Users\stapi\AppData\Local\Temp\ccG2cYBF.s:528    .text.mbedtls_debug_print_ret:000000000000006c .L0 
C:\Users\stapi\AppData\Local\Temp\ccG2cYBF.s:529    .text.mbedtls_debug_print_ret:000000000000006c .L0 
C:\Users\stapi\AppData\Local\Temp\ccG2cYBF.s:530    .text.mbedtls_debug_print_ret:000000000000006c .L0 
C:\Users\stapi\AppData\Local\Temp\ccG2cYBF.s:531    .text.mbedtls_debug_print_ret:000000000000006c .L0 
C:\Users\stapi\AppData\Local\Temp\ccG2cYBF.s:551    .text.mbedtls_debug_print_buf:0000000000000000 mbedtls_debug_print_buf
C:\Users\stapi\AppData\Local\Temp\ccG2cYBF.s:554    .text.mbedtls_debug_print_buf:0000000000000000 .L0 
C:\Users\stapi\AppData\Local\Temp\ccG2cYBF.s:556    .text.mbedtls_debug_print_buf:0000000000000000 .L0 
C:\Users\stapi\AppData\Local\Temp\ccG2cYBF.s:557    .text.mbedtls_debug_print_buf:0000000000000008 .L0 
C:\Users\stapi\AppData\Local\Temp\ccG2cYBF.s:558    .text.mbedtls_debug_print_buf:0000000000000008 .L0 
C:\Users\stapi\AppData\Local\Temp\ccG2cYBF.s:559    .text.mbedtls_debug_print_buf:0000000000000008 .L0 
C:\Users\stapi\AppData\Local\Temp\ccG2cYBF.s:560    .text.mbedtls_debug_print_buf:0000000000000008 .L0 
C:\Users\stapi\AppData\Local\Temp\ccG2cYBF.s:561    .text.mbedtls_debug_print_buf:0000000000000008 .L0 
C:\Users\stapi\AppData\Local\Temp\ccG2cYBF.s:562    .text.mbedtls_debug_print_buf:0000000000000008 .L0 
C:\Users\stapi\AppData\Local\Temp\ccG2cYBF.s:563    .text.mbedtls_debug_print_buf:0000000000000008 .L0 
C:\Users\stapi\AppData\Local\Temp\ccG2cYBF.s:564    .text.mbedtls_debug_print_buf:0000000000000008 .L0 
C:\Users\stapi\AppData\Local\Temp\ccG2cYBF.s:565    .text.mbedtls_debug_print_buf:0000000000000008 .L0 
C:\Users\stapi\AppData\Local\Temp\ccG2cYBF.s:566    .text.mbedtls_debug_print_buf:0000000000000008 .L0 
C:\Users\stapi\AppData\Local\Temp\ccG2cYBF.s:567    .text.mbedtls_debug_print_buf:0000000000000008 .L0 
C:\Users\stapi\AppData\Local\Temp\ccG2cYBF.s:568    .text.mbedtls_debug_print_buf:0000000000000008 .L0 
C:\Users\stapi\AppData\Local\Temp\ccG2cYBF.s:569    .text.mbedtls_debug_print_buf:0000000000000008 .L0 
C:\Users\stapi\AppData\Local\Temp\ccG2cYBF.s:570    .text.mbedtls_debug_print_buf:0000000000000008 .L0 
C:\Users\stapi\AppData\Local\Temp\ccG2cYBF.s:572    .text.mbedtls_debug_print_buf:0000000000000008 .L0 
C:\Users\stapi\AppData\Local\Temp\ccG2cYBF.s:573    .text.mbedtls_debug_print_buf:0000000000000008 .L0 
C:\Users\stapi\AppData\Local\Temp\ccG2cYBF.s:575    .text.mbedtls_debug_print_buf:0000000000000008 .L0 
C:\Users\stapi\AppData\Local\Temp\ccG2cYBF.s:576    .text.mbedtls_debug_print_buf:0000000000000008 .L0 
C:\Users\stapi\AppData\Local\Temp\ccG2cYBF.s:577    .text.mbedtls_debug_print_buf:0000000000000008 .L0 
C:\Users\stapi\AppData\Local\Temp\ccG2cYBF.s:578    .text.mbedtls_debug_print_buf:000000000000000c .L0 
C:\Users\stapi\AppData\Local\Temp\ccG2cYBF.s:580    .text.mbedtls_debug_print_buf:000000000000000c .L0 
C:\Users\stapi\AppData\Local\Temp\ccG2cYBF.s:582    .text.mbedtls_debug_print_buf:000000000000000e .L0 
C:\Users\stapi\AppData\Local\Temp\ccG2cYBF.s:585    .text.mbedtls_debug_print_buf:0000000000000010 .L0 
C:\Users\stapi\AppData\Local\Temp\ccG2cYBF.s:587    .text.mbedtls_debug_print_buf:0000000000000012 .L0 
C:\Users\stapi\AppData\Local\Temp\ccG2cYBF.s:590    .text.mbedtls_debug_print_buf:0000000000000016 .L0 
C:\Users\stapi\AppData\Local\Temp\ccG2cYBF.s:596    .text.mbedtls_debug_print_buf:0000000000000026 .L0 
C:\Users\stapi\AppData\Local\Temp\ccG2cYBF.s:611    .text.mbedtls_debug_print_buf:000000000000003e .L0 
C:\Users\stapi\AppData\Local\Temp\ccG2cYBF.s:614    .text.mbedtls_debug_print_buf:0000000000000046 .L0 
C:\Users\stapi\AppData\Local\Temp\ccG2cYBF.s:622    .text.mbedtls_debug_print_buf:0000000000000058 .L0 
C:\Users\stapi\AppData\Local\Temp\ccG2cYBF.s:623    .text.mbedtls_debug_print_buf:0000000000000058 .L0 
C:\Users\stapi\AppData\Local\Temp\ccG2cYBF.s:624    .text.mbedtls_debug_print_buf:0000000000000058 .L0 
C:\Users\stapi\AppData\Local\Temp\ccG2cYBF.s:626    .text.mbedtls_debug_print_buf:000000000000005a .L0 
C:\Users\stapi\AppData\Local\Temp\ccG2cYBF.s:633    .text.mbedtls_debug_print_buf:0000000000000066 .L0 
C:\Users\stapi\AppData\Local\Temp\ccG2cYBF.s:634    .text.mbedtls_debug_print_buf:0000000000000066 .L0 
C:\Users\stapi\AppData\Local\Temp\ccG2cYBF.s:636    .text.mbedtls_debug_print_buf:0000000000000068 .L0 
C:\Users\stapi\AppData\Local\Temp\ccG2cYBF.s:638    .text.mbedtls_debug_print_buf:000000000000006c .L0 
C:\Users\stapi\AppData\Local\Temp\ccG2cYBF.s:640    .text.mbedtls_debug_print_buf:0000000000000070 .L0 
C:\Users\stapi\AppData\Local\Temp\ccG2cYBF.s:642    .text.mbedtls_debug_print_buf:0000000000000074 .L0 
C:\Users\stapi\AppData\Local\Temp\ccG2cYBF.s:646    .text.mbedtls_debug_print_buf:0000000000000078 .L0 
C:\Users\stapi\AppData\Local\Temp\ccG2cYBF.s:647    .text.mbedtls_debug_print_buf:0000000000000078 .L0 
C:\Users\stapi\AppData\Local\Temp\ccG2cYBF.s:649    .text.mbedtls_debug_print_buf:000000000000007c .L0 
C:\Users\stapi\AppData\Local\Temp\ccG2cYBF.s:650    .text.mbedtls_debug_print_buf:000000000000007c .L0 
C:\Users\stapi\AppData\Local\Temp\ccG2cYBF.s:652    .text.mbedtls_debug_print_buf:0000000000000080 .L0 
C:\Users\stapi\AppData\Local\Temp\ccG2cYBF.s:657    .text.mbedtls_debug_print_buf:0000000000000088 .L0 
C:\Users\stapi\AppData\Local\Temp\ccG2cYBF.s:658    .text.mbedtls_debug_print_buf:0000000000000088 .L0 
C:\Users\stapi\AppData\Local\Temp\ccG2cYBF.s:660    .text.mbedtls_debug_print_buf:000000000000008a .L0 
C:\Users\stapi\AppData\Local\Temp\ccG2cYBF.s:662    .text.mbedtls_debug_print_buf:000000000000008e .L0 
C:\Users\stapi\AppData\Local\Temp\ccG2cYBF.s:665    .text.mbedtls_debug_print_buf:0000000000000096 .L0 
C:\Users\stapi\AppData\Local\Temp\ccG2cYBF.s:669    .text.mbedtls_debug_print_buf:0000000000000098 .L0 
C:\Users\stapi\AppData\Local\Temp\ccG2cYBF.s:679    .text.mbedtls_debug_print_buf:00000000000000b8 .L0 
C:\Users\stapi\AppData\Local\Temp\ccG2cYBF.s:688    .text.mbedtls_debug_print_buf:00000000000000ca .L0 
C:\Users\stapi\AppData\Local\Temp\ccG2cYBF.s:689    .text.mbedtls_debug_print_buf:00000000000000ce .L0 
C:\Users\stapi\AppData\Local\Temp\ccG2cYBF.s:690    .text.mbedtls_debug_print_buf:00000000000000ce .L0 
C:\Users\stapi\AppData\Local\Temp\ccG2cYBF.s:693    .text.mbedtls_debug_print_buf:00000000000000d6 .L0 
C:\Users\stapi\AppData\Local\Temp\ccG2cYBF.s:694    .text.mbedtls_debug_print_buf:00000000000000d6 .L0 
C:\Users\stapi\AppData\Local\Temp\ccG2cYBF.s:695    .text.mbedtls_debug_print_buf:00000000000000d6 .L0 
C:\Users\stapi\AppData\Local\Temp\ccG2cYBF.s:696    .text.mbedtls_debug_print_buf:00000000000000d6 .L0 
C:\Users\stapi\AppData\Local\Temp\ccG2cYBF.s:697    .text.mbedtls_debug_print_buf:00000000000000d6 .L0 
C:\Users\stapi\AppData\Local\Temp\ccG2cYBF.s:698    .text.mbedtls_debug_print_buf:00000000000000d6 .L0 
C:\Users\stapi\AppData\Local\Temp\ccG2cYBF.s:699    .text.mbedtls_debug_print_buf:00000000000000d6 .L0 
C:\Users\stapi\AppData\Local\Temp\ccG2cYBF.s:700    .text.mbedtls_debug_print_buf:00000000000000d6 .L0 
C:\Users\stapi\AppData\Local\Temp\ccG2cYBF.s:701    .text.mbedtls_debug_print_buf:00000000000000d6 .L0 
C:\Users\stapi\AppData\Local\Temp\ccG2cYBF.s:702    .text.mbedtls_debug_print_buf:00000000000000d6 .L0 
C:\Users\stapi\AppData\Local\Temp\ccG2cYBF.s:703    .text.mbedtls_debug_print_buf:00000000000000d6 .L0 
C:\Users\stapi\AppData\Local\Temp\ccG2cYBF.s:704    .text.mbedtls_debug_print_buf:00000000000000d6 .L0 
C:\Users\stapi\AppData\Local\Temp\ccG2cYBF.s:705    .text.mbedtls_debug_print_buf:00000000000000d6 .L0 
C:\Users\stapi\AppData\Local\Temp\ccG2cYBF.s:706    .text.mbedtls_debug_print_buf:00000000000000d6 .L0 
C:\Users\stapi\AppData\Local\Temp\ccG2cYBF.s:709    .text.mbedtls_debug_print_buf:00000000000000d6 .L0 
C:\Users\stapi\AppData\Local\Temp\ccG2cYBF.s:711    .text.mbedtls_debug_print_buf:00000000000000d6 .L0 
C:\Users\stapi\AppData\Local\Temp\ccG2cYBF.s:712    .text.mbedtls_debug_print_buf:00000000000000d6 .L0 
C:\Users\stapi\AppData\Local\Temp\ccG2cYBF.s:715    .text.mbedtls_debug_print_buf:00000000000000dc .L0 
C:\Users\stapi\AppData\Local\Temp\ccG2cYBF.s:716    .text.mbedtls_debug_print_buf:00000000000000dc .L0 
C:\Users\stapi\AppData\Local\Temp\ccG2cYBF.s:718    .text.mbedtls_debug_print_buf:00000000000000e0 .L0 
C:\Users\stapi\AppData\Local\Temp\ccG2cYBF.s:720    .text.mbedtls_debug_print_buf:00000000000000e4 .L0 
C:\Users\stapi\AppData\Local\Temp\ccG2cYBF.s:721    .text.mbedtls_debug_print_buf:00000000000000e4 .L0 
C:\Users\stapi\AppData\Local\Temp\ccG2cYBF.s:723    .text.mbedtls_debug_print_buf:00000000000000e8 .L0 
C:\Users\stapi\AppData\Local\Temp\ccG2cYBF.s:731    .text.mbedtls_debug_print_buf:0000000000000100 .L0 
C:\Users\stapi\AppData\Local\Temp\ccG2cYBF.s:739    .text.mbedtls_debug_print_buf:0000000000000112 .L0 
C:\Users\stapi\AppData\Local\Temp\ccG2cYBF.s:740    .text.mbedtls_debug_print_buf:0000000000000112 .L0 
C:\Users\stapi\AppData\Local\Temp\ccG2cYBF.s:741    .text.mbedtls_debug_print_buf:0000000000000112 .L0 
C:\Users\stapi\AppData\Local\Temp\ccG2cYBF.s:743    .text.mbedtls_debug_print_buf:0000000000000114 .L0 
C:\Users\stapi\AppData\Local\Temp\ccG2cYBF.s:751    .text.mbedtls_debug_print_buf:0000000000000120 .L0 
C:\Users\stapi\AppData\Local\Temp\ccG2cYBF.s:752    .text.mbedtls_debug_print_buf:0000000000000120 .L0 
C:\Users\stapi\AppData\Local\Temp\ccG2cYBF.s:761    .text.mbedtls_debug_print_buf:000000000000013c .L0 
C:\Users\stapi\AppData\Local\Temp\ccG2cYBF.s:765    .text.mbedtls_debug_print_buf:000000000000013e .L0 
C:\Users\stapi\AppData\Local\Temp\ccG2cYBF.s:767    .text.mbedtls_debug_print_buf:0000000000000140 .L0 
C:\Users\stapi\AppData\Local\Temp\ccG2cYBF.s:777    .text.mbedtls_debug_print_buf:0000000000000160 .L0 
C:\Users\stapi\AppData\Local\Temp\ccG2cYBF.s:779    .text.mbedtls_debug_print_buf:0000000000000162 .L0 
C:\Users\stapi\AppData\Local\Temp\ccG2cYBF.s:782    .text.mbedtls_debug_print_buf:0000000000000164 .L0 
C:\Users\stapi\AppData\Local\Temp\ccG2cYBF.s:783    .text.mbedtls_debug_print_buf:0000000000000164 .L0 
C:\Users\stapi\AppData\Local\Temp\ccG2cYBF.s:785    .text.mbedtls_debug_print_buf:0000000000000168 .L0 
C:\Users\stapi\AppData\Local\Temp\ccG2cYBF.s:787    .text.mbedtls_debug_print_buf:000000000000016c .L0 
C:\Users\stapi\AppData\Local\Temp\ccG2cYBF.s:792    .text.mbedtls_debug_print_buf:0000000000000178 .L0 
C:\Users\stapi\AppData\Local\Temp\ccG2cYBF.s:797    .text.mbedtls_debug_print_buf:0000000000000180 .L0 
C:\Users\stapi\AppData\Local\Temp\ccG2cYBF.s:798    .text.mbedtls_debug_print_buf:0000000000000180 .L0 
C:\Users\stapi\AppData\Local\Temp\ccG2cYBF.s:804    .text.mbedtls_debug_print_buf:0000000000000184 .L0 
C:\Users\stapi\AppData\Local\Temp\ccG2cYBF.s:805    .text.mbedtls_debug_print_buf:0000000000000184 .L0 
C:\Users\stapi\AppData\Local\Temp\ccG2cYBF.s:809    .text.mbedtls_debug_print_buf:0000000000000190 .L0 
C:\Users\stapi\AppData\Local\Temp\ccG2cYBF.s:812    .text.mbedtls_debug_print_buf:0000000000000192 .L0 
C:\Users\stapi\AppData\Local\Temp\ccG2cYBF.s:813    .text.mbedtls_debug_print_buf:0000000000000192 .L0 
C:\Users\stapi\AppData\Local\Temp\ccG2cYBF.s:816    .text.mbedtls_debug_print_buf:0000000000000196 .L0 
C:\Users\stapi\AppData\Local\Temp\ccG2cYBF.s:823    .text.mbedtls_debug_print_mpi:0000000000000000 mbedtls_debug_print_mpi
C:\Users\stapi\AppData\Local\Temp\ccG2cYBF.s:826    .text.mbedtls_debug_print_mpi:0000000000000000 .L0 
C:\Users\stapi\AppData\Local\Temp\ccG2cYBF.s:828    .text.mbedtls_debug_print_mpi:0000000000000000 .L0 
C:\Users\stapi\AppData\Local\Temp\ccG2cYBF.s:829    .text.mbedtls_debug_print_mpi:0000000000000000 .L0 
C:\Users\stapi\AppData\Local\Temp\ccG2cYBF.s:830    .text.mbedtls_debug_print_mpi:0000000000000000 .L0 
C:\Users\stapi\AppData\Local\Temp\ccG2cYBF.s:831    .text.mbedtls_debug_print_mpi:0000000000000000 .L0 
C:\Users\stapi\AppData\Local\Temp\ccG2cYBF.s:832    .text.mbedtls_debug_print_mpi:0000000000000000 .L0 
C:\Users\stapi\AppData\Local\Temp\ccG2cYBF.s:833    .text.mbedtls_debug_print_mpi:0000000000000000 .L0 
C:\Users\stapi\AppData\Local\Temp\ccG2cYBF.s:835    .text.mbedtls_debug_print_mpi:0000000000000004 .L0 
C:\Users\stapi\AppData\Local\Temp\ccG2cYBF.s:837    .text.mbedtls_debug_print_mpi:0000000000000008 .L0 
C:\Users\stapi\AppData\Local\Temp\ccG2cYBF.s:840    .text.mbedtls_debug_print_mpi:0000000000000010 .L0 
C:\Users\stapi\AppData\Local\Temp\ccG2cYBF.s:842    .text.mbedtls_debug_print_mpi:0000000000000012 .L0 
C:\Users\stapi\AppData\Local\Temp\ccG2cYBF.s:849    .text.mbedtls_debug_print_mpi:0000000000000028 .L0 
C:\Users\stapi\AppData\Local\Temp\ccG2cYBF.s:862    .text.mbedtls_debug_print_ecp.part.0:0000000000000000 mbedtls_debug_print_ecp.part.0
C:\Users\stapi\AppData\Local\Temp\ccG2cYBF.s:865    .text.mbedtls_debug_print_ecp.part.0:0000000000000000 .L0 
C:\Users\stapi\AppData\Local\Temp\ccG2cYBF.s:867    .text.mbedtls_debug_print_ecp.part.0:0000000000000000 .L0 
C:\Users\stapi\AppData\Local\Temp\ccG2cYBF.s:868    .text.mbedtls_debug_print_ecp.part.0:0000000000000000 .L0 
C:\Users\stapi\AppData\Local\Temp\ccG2cYBF.s:869    .text.mbedtls_debug_print_ecp.part.0:0000000000000008 .L0 
C:\Users\stapi\AppData\Local\Temp\ccG2cYBF.s:870    .text.mbedtls_debug_print_ecp.part.0:0000000000000008 .L0 
C:\Users\stapi\AppData\Local\Temp\ccG2cYBF.s:871    .text.mbedtls_debug_print_ecp.part.0:0000000000000008 .L0 
C:\Users\stapi\AppData\Local\Temp\ccG2cYBF.s:872    .text.mbedtls_debug_print_ecp.part.0:0000000000000008 .L0 
C:\Users\stapi\AppData\Local\Temp\ccG2cYBF.s:873    .text.mbedtls_debug_print_ecp.part.0:0000000000000008 .L0 
C:\Users\stapi\AppData\Local\Temp\ccG2cYBF.s:874    .text.mbedtls_debug_print_ecp.part.0:0000000000000008 .L0 
C:\Users\stapi\AppData\Local\Temp\ccG2cYBF.s:875    .text.mbedtls_debug_print_ecp.part.0:0000000000000008 .L0 
C:\Users\stapi\AppData\Local\Temp\ccG2cYBF.s:876    .text.mbedtls_debug_print_ecp.part.0:0000000000000008 .L0 
C:\Users\stapi\AppData\Local\Temp\ccG2cYBF.s:878    .text.mbedtls_debug_print_ecp.part.0:0000000000000008 .L0 
C:\Users\stapi\AppData\Local\Temp\ccG2cYBF.s:879    .text.mbedtls_debug_print_ecp.part.0:0000000000000008 .L0 
C:\Users\stapi\AppData\Local\Temp\ccG2cYBF.s:880    .text.mbedtls_debug_print_ecp.part.0:000000000000000a .L0 
C:\Users\stapi\AppData\Local\Temp\ccG2cYBF.s:882    .text.mbedtls_debug_print_ecp.part.0:000000000000000a .L0 
C:\Users\stapi\AppData\Local\Temp\ccG2cYBF.s:884    .text.mbedtls_debug_print_ecp.part.0:000000000000000c .L0 
C:\Users\stapi\AppData\Local\Temp\ccG2cYBF.s:887    .text.mbedtls_debug_print_ecp.part.0:0000000000000010 .L0 
C:\Users\stapi\AppData\Local\Temp\ccG2cYBF.s:891    .text.mbedtls_debug_print_ecp.part.0:0000000000000016 .L0 
C:\Users\stapi\AppData\Local\Temp\ccG2cYBF.s:899    .text.mbedtls_debug_print_ecp.part.0:0000000000000022 .L0 
C:\Users\stapi\AppData\Local\Temp\ccG2cYBF.s:902    .text.mbedtls_debug_print_ecp.part.0:0000000000000026 .L0 
C:\Users\stapi\AppData\Local\Temp\ccG2cYBF.s:905    .text.mbedtls_debug_print_ecp.part.0:000000000000002e .L0 
C:\Users\stapi\AppData\Local\Temp\ccG2cYBF.s:914    .text.mbedtls_debug_print_ecp.part.0:0000000000000042 .L0 
C:\Users\stapi\AppData\Local\Temp\ccG2cYBF.s:922    .text.mbedtls_debug_print_ecp.part.0:000000000000005a .L0 
C:\Users\stapi\AppData\Local\Temp\ccG2cYBF.s:931    .text.mbedtls_debug_print_ecp.part.0:0000000000000070 .L0 
C:\Users\stapi\AppData\Local\Temp\ccG2cYBF.s:932    .text.mbedtls_debug_print_ecp.part.0:0000000000000074 .L0 
C:\Users\stapi\AppData\Local\Temp\ccG2cYBF.s:934    .text.mbedtls_debug_print_ecp.part.0:000000000000007c .L0 
C:\Users\stapi\AppData\Local\Temp\ccG2cYBF.s:935    .text.mbedtls_debug_print_ecp.part.0:000000000000007c .L0 
C:\Users\stapi\AppData\Local\Temp\ccG2cYBF.s:936    .text.mbedtls_debug_print_ecp.part.0:000000000000007c .L0 
C:\Users\stapi\AppData\Local\Temp\ccG2cYBF.s:937    .text.mbedtls_debug_print_ecp.part.0:000000000000007c .L0 
C:\Users\stapi\AppData\Local\Temp\ccG2cYBF.s:938    .text.mbedtls_debug_print_ecp.part.0:000000000000007c .L0 
C:\Users\stapi\AppData\Local\Temp\ccG2cYBF.s:939    .text.mbedtls_debug_print_ecp.part.0:000000000000007c .L0 
C:\Users\stapi\AppData\Local\Temp\ccG2cYBF.s:940    .text.mbedtls_debug_print_ecp.part.0:000000000000007c .L0 
C:\Users\stapi\AppData\Local\Temp\ccG2cYBF.s:941    .text.mbedtls_debug_print_ecp.part.0:000000000000007c .L0 
C:\Users\stapi\AppData\Local\Temp\ccG2cYBF.s:942    .text.mbedtls_debug_print_ecp.part.0:000000000000007c .L0 
C:\Users\stapi\AppData\Local\Temp\ccG2cYBF.s:949    .text.mbedtls_debug_print_ecp:0000000000000000 mbedtls_debug_print_ecp
C:\Users\stapi\AppData\Local\Temp\ccG2cYBF.s:952    .text.mbedtls_debug_print_ecp:0000000000000000 .L0 
C:\Users\stapi\AppData\Local\Temp\ccG2cYBF.s:954    .text.mbedtls_debug_print_ecp:0000000000000000 .L0 
C:\Users\stapi\AppData\Local\Temp\ccG2cYBF.s:955    .text.mbedtls_debug_print_ecp:0000000000000000 .L0 
C:\Users\stapi\AppData\Local\Temp\ccG2cYBF.s:956    .text.mbedtls_debug_print_ecp:0000000000000000 .L0 
C:\Users\stapi\AppData\Local\Temp\ccG2cYBF.s:957    .text.mbedtls_debug_print_ecp:0000000000000000 .L0 
C:\Users\stapi\AppData\Local\Temp\ccG2cYBF.s:959    .text.mbedtls_debug_print_ecp:0000000000000004 .L0 
C:\Users\stapi\AppData\Local\Temp\ccG2cYBF.s:961    .text.mbedtls_debug_print_ecp:0000000000000008 .L0 
C:\Users\stapi\AppData\Local\Temp\ccG2cYBF.s:964    .text.mbedtls_debug_print_ecp:0000000000000010 .L0 
C:\Users\stapi\AppData\Local\Temp\ccG2cYBF.s:971    .text.mbedtls_debug_print_ecp:0000000000000026 .L0 
C:\Users\stapi\AppData\Local\Temp\ccG2cYBF.s:997    .text.mbedtls_debug_print_crt:0000000000000000 mbedtls_debug_print_crt
C:\Users\stapi\AppData\Local\Temp\ccG2cYBF.s:1000   .text.mbedtls_debug_print_crt:0000000000000000 .L0 
C:\Users\stapi\AppData\Local\Temp\ccG2cYBF.s:1002   .text.mbedtls_debug_print_crt:0000000000000000 .L0 
C:\Users\stapi\AppData\Local\Temp\ccG2cYBF.s:1003   .text.mbedtls_debug_print_crt:0000000000000000 .L0 
C:\Users\stapi\AppData\Local\Temp\ccG2cYBF.s:1004   .text.mbedtls_debug_print_crt:0000000000000008 .L0 
C:\Users\stapi\AppData\Local\Temp\ccG2cYBF.s:1005   .text.mbedtls_debug_print_crt:0000000000000008 .L0 
C:\Users\stapi\AppData\Local\Temp\ccG2cYBF.s:1006   .text.mbedtls_debug_print_crt:0000000000000008 .L0 
C:\Users\stapi\AppData\Local\Temp\ccG2cYBF.s:1007   .text.mbedtls_debug_print_crt:0000000000000008 .L0 
C:\Users\stapi\AppData\Local\Temp\ccG2cYBF.s:1008   .text.mbedtls_debug_print_crt:0000000000000008 .L0 
C:\Users\stapi\AppData\Local\Temp\ccG2cYBF.s:1009   .text.mbedtls_debug_print_crt:0000000000000008 .L0 
C:\Users\stapi\AppData\Local\Temp\ccG2cYBF.s:1010   .text.mbedtls_debug_print_crt:0000000000000008 .L0 
C:\Users\stapi\AppData\Local\Temp\ccG2cYBF.s:1011   .text.mbedtls_debug_print_crt:0000000000000008 .L0 
C:\Users\stapi\AppData\Local\Temp\ccG2cYBF.s:1012   .text.mbedtls_debug_print_crt:0000000000000008 .L0 
C:\Users\stapi\AppData\Local\Temp\ccG2cYBF.s:1013   .text.mbedtls_debug_print_crt:0000000000000008 .L0 
C:\Users\stapi\AppData\Local\Temp\ccG2cYBF.s:1014   .text.mbedtls_debug_print_crt:0000000000000008 .L0 
C:\Users\stapi\AppData\Local\Temp\ccG2cYBF.s:1015   .text.mbedtls_debug_print_crt:0000000000000008 .L0 
C:\Users\stapi\AppData\Local\Temp\ccG2cYBF.s:1016   .text.mbedtls_debug_print_crt:0000000000000008 .L0 
C:\Users\stapi\AppData\Local\Temp\ccG2cYBF.s:1017   .text.mbedtls_debug_print_crt:0000000000000008 .L0 
C:\Users\stapi\AppData\Local\Temp\ccG2cYBF.s:1019   .text.mbedtls_debug_print_crt:0000000000000008 .L0 
C:\Users\stapi\AppData\Local\Temp\ccG2cYBF.s:1021   .text.mbedtls_debug_print_crt:0000000000000008 .L0 
C:\Users\stapi\AppData\Local\Temp\ccG2cYBF.s:1022   .text.mbedtls_debug_print_crt:0000000000000008 .L0 
C:\Users\stapi\AppData\Local\Temp\ccG2cYBF.s:1023   .text.mbedtls_debug_print_crt:0000000000000008 .L0 
C:\Users\stapi\AppData\Local\Temp\ccG2cYBF.s:1027   .text.mbedtls_debug_print_crt:0000000000000010 .L0 
C:\Users\stapi\AppData\Local\Temp\ccG2cYBF.s:1030   .text.mbedtls_debug_print_crt:0000000000000012 .L0 
C:\Users\stapi\AppData\Local\Temp\ccG2cYBF.s:1031   .text.mbedtls_debug_print_crt:0000000000000014 .L0 
C:\Users\stapi\AppData\Local\Temp\ccG2cYBF.s:1033   .text.mbedtls_debug_print_crt:0000000000000014 .L0 
C:\Users\stapi\AppData\Local\Temp\ccG2cYBF.s:1035   .text.mbedtls_debug_print_crt:0000000000000016 .L0 
C:\Users\stapi\AppData\Local\Temp\ccG2cYBF.s:1037   .text.mbedtls_debug_print_crt:0000000000000018 .L0 
C:\Users\stapi\AppData\Local\Temp\ccG2cYBF.s:1040   .text.mbedtls_debug_print_crt:000000000000001c .L0 
C:\Users\stapi\AppData\Local\Temp\ccG2cYBF.s:1042   .text.mbedtls_debug_print_crt:0000000000000020 .L0 
C:\Users\stapi\AppData\Local\Temp\ccG2cYBF.s:1046   .text.mbedtls_debug_print_crt:000000000000002a .L0 
C:\Users\stapi\AppData\Local\Temp\ccG2cYBF.s:1048   .text.mbedtls_debug_print_crt:000000000000002c .L0 
C:\Users\stapi\AppData\Local\Temp\ccG2cYBF.s:1053   .text.mbedtls_debug_print_crt:0000000000000030 .L0 
C:\Users\stapi\AppData\Local\Temp\ccG2cYBF.s:1069   .text.mbedtls_debug_print_crt:0000000000000048 .L0 
C:\Users\stapi\AppData\Local\Temp\ccG2cYBF.s:1070   .text.mbedtls_debug_print_crt:0000000000000048 .L0 
C:\Users\stapi\AppData\Local\Temp\ccG2cYBF.s:1081   .text.mbedtls_debug_print_crt:0000000000000064 .L0 
C:\Users\stapi\AppData\Local\Temp\ccG2cYBF.s:1089   .text.mbedtls_debug_print_crt:0000000000000076 .L0 
C:\Users\stapi\AppData\Local\Temp\ccG2cYBF.s:1099   .text.mbedtls_debug_print_crt:0000000000000090 .L0 
C:\Users\stapi\AppData\Local\Temp\ccG2cYBF.s:1100   .text.mbedtls_debug_print_crt:0000000000000090 .L0 
C:\Users\stapi\AppData\Local\Temp\ccG2cYBF.s:1101   .text.mbedtls_debug_print_crt:0000000000000090 .L0 
C:\Users\stapi\AppData\Local\Temp\ccG2cYBF.s:1102   .text.mbedtls_debug_print_crt:0000000000000090 .L0 
C:\Users\stapi\AppData\Local\Temp\ccG2cYBF.s:1103   .text.mbedtls_debug_print_crt:0000000000000090 .L0 
C:\Users\stapi\AppData\Local\Temp\ccG2cYBF.s:1104   .text.mbedtls_debug_print_crt:0000000000000090 .L0 
C:\Users\stapi\AppData\Local\Temp\ccG2cYBF.s:1107   .text.mbedtls_debug_print_crt:0000000000000094 .L0 
C:\Users\stapi\AppData\Local\Temp\ccG2cYBF.s:1109   .text.mbedtls_debug_print_crt:0000000000000096 .L0 
C:\Users\stapi\AppData\Local\Temp\ccG2cYBF.s:1114   .text.mbedtls_debug_print_crt:000000000000009c .L0 
C:\Users\stapi\AppData\Local\Temp\ccG2cYBF.s:1116   .text.mbedtls_debug_print_crt:00000000000000a0 .L0 
C:\Users\stapi\AppData\Local\Temp\ccG2cYBF.s:1123   .text.mbedtls_debug_print_crt:00000000000000a2 .L0 
C:\Users\stapi\AppData\Local\Temp\ccG2cYBF.s:1124   .text.mbedtls_debug_print_crt:00000000000000a2 .L0 
C:\Users\stapi\AppData\Local\Temp\ccG2cYBF.s:1125   .text.mbedtls_debug_print_crt:00000000000000a2 .L0 
C:\Users\stapi\AppData\Local\Temp\ccG2cYBF.s:1126   .text.mbedtls_debug_print_crt:00000000000000a2 .L0 
C:\Users\stapi\AppData\Local\Temp\ccG2cYBF.s:1127   .text.mbedtls_debug_print_crt:00000000000000a2 .L0 
C:\Users\stapi\AppData\Local\Temp\ccG2cYBF.s:1133   .text.mbedtls_debug_print_crt:00000000000000b2 .L0 
C:\Users\stapi\AppData\Local\Temp\ccG2cYBF.s:1134   .text.mbedtls_debug_print_crt:00000000000000b2 .L0 
C:\Users\stapi\AppData\Local\Temp\ccG2cYBF.s:1140   .text.mbedtls_debug_print_crt:00000000000000c0 .L0 
C:\Users\stapi\AppData\Local\Temp\ccG2cYBF.s:1142   .text.mbedtls_debug_print_crt:00000000000000c2 .L0 
C:\Users\stapi\AppData\Local\Temp\ccG2cYBF.s:1154   .text.mbedtls_debug_print_crt:00000000000000da .L0 
C:\Users\stapi\AppData\Local\Temp\ccG2cYBF.s:1155   .text.mbedtls_debug_print_crt:00000000000000da .L0 
C:\Users\stapi\AppData\Local\Temp\ccG2cYBF.s:1156   .text.mbedtls_debug_print_crt:00000000000000da .L0 
C:\Users\stapi\AppData\Local\Temp\ccG2cYBF.s:1160   .text.mbedtls_debug_print_crt:00000000000000de .L0 
C:\Users\stapi\AppData\Local\Temp\ccG2cYBF.s:1164   .text.mbedtls_debug_print_crt:00000000000000e2 .L0 
C:\Users\stapi\AppData\Local\Temp\ccG2cYBF.s:1165   .text.mbedtls_debug_print_crt:00000000000000e6 .L0 
C:\Users\stapi\AppData\Local\Temp\ccG2cYBF.s:1166   .text.mbedtls_debug_print_crt:00000000000000e6 .L0 
C:\Users\stapi\AppData\Local\Temp\ccG2cYBF.s:1168   .text.mbedtls_debug_print_crt:00000000000000e8 .L0 
C:\Users\stapi\AppData\Local\Temp\ccG2cYBF.s:1171   .text.mbedtls_debug_print_crt:00000000000000f0 .L0 
C:\Users\stapi\AppData\Local\Temp\ccG2cYBF.s:1172   .text.mbedtls_debug_print_crt:00000000000000f0 .L0 
C:\Users\stapi\AppData\Local\Temp\ccG2cYBF.s:1173   .text.mbedtls_debug_print_crt:00000000000000f0 .L0 
C:\Users\stapi\AppData\Local\Temp\ccG2cYBF.s:1174   .text.mbedtls_debug_print_crt:00000000000000f0 .L0 
C:\Users\stapi\AppData\Local\Temp\ccG2cYBF.s:1175   .text.mbedtls_debug_print_crt:00000000000000f0 .L0 
C:\Users\stapi\AppData\Local\Temp\ccG2cYBF.s:1176   .text.mbedtls_debug_print_crt:00000000000000f0 .L0 
C:\Users\stapi\AppData\Local\Temp\ccG2cYBF.s:1177   .text.mbedtls_debug_print_crt:00000000000000f0 .L0 
C:\Users\stapi\AppData\Local\Temp\ccG2cYBF.s:1178   .text.mbedtls_debug_print_crt:00000000000000f0 .L0 
C:\Users\stapi\AppData\Local\Temp\ccG2cYBF.s:1179   .text.mbedtls_debug_print_crt:00000000000000f0 .L0 
C:\Users\stapi\AppData\Local\Temp\ccG2cYBF.s:1180   .text.mbedtls_debug_print_crt:00000000000000f0 .L0 
C:\Users\stapi\AppData\Local\Temp\ccG2cYBF.s:1181   .text.mbedtls_debug_print_crt:00000000000000f0 .L0 
C:\Users\stapi\AppData\Local\Temp\ccG2cYBF.s:1182   .text.mbedtls_debug_print_crt:00000000000000f0 .L0 
C:\Users\stapi\AppData\Local\Temp\ccG2cYBF.s:1183   .text.mbedtls_debug_print_crt:00000000000000f0 .L0 
C:\Users\stapi\AppData\Local\Temp\ccG2cYBF.s:1184   .text.mbedtls_debug_print_crt:00000000000000f0 .L0 
C:\Users\stapi\AppData\Local\Temp\ccG2cYBF.s:1187   .text.mbedtls_debug_print_crt:00000000000000f0 .L0 
C:\Users\stapi\AppData\Local\Temp\ccG2cYBF.s:1193   .text.mbedtls_debug_print_crt:00000000000000f0 .L0 
C:\Users\stapi\AppData\Local\Temp\ccG2cYBF.s:1194   .text.mbedtls_debug_print_crt:00000000000000f0 .L0 
C:\Users\stapi\AppData\Local\Temp\ccG2cYBF.s:1197   .text.mbedtls_debug_print_crt:00000000000000f4 .L0 
C:\Users\stapi\AppData\Local\Temp\ccG2cYBF.s:1200   .text.mbedtls_debug_print_crt:00000000000000f8 .L0 
C:\Users\stapi\AppData\Local\Temp\ccG2cYBF.s:1201   .text.mbedtls_debug_print_crt:00000000000000f8 .L0 
C:\Users\stapi\AppData\Local\Temp\ccG2cYBF.s:1203   .text.mbedtls_debug_print_crt:00000000000000fc .L0 
C:\Users\stapi\AppData\Local\Temp\ccG2cYBF.s:1206   .text.mbedtls_debug_print_crt:00000000000000fe .L0 
C:\Users\stapi\AppData\Local\Temp\ccG2cYBF.s:1209   .text.mbedtls_debug_print_crt:0000000000000102 .L0 
C:\Users\stapi\AppData\Local\Temp\ccG2cYBF.s:1215   .text.mbedtls_debug_print_crt:000000000000010e .L0 
C:\Users\stapi\AppData\Local\Temp\ccG2cYBF.s:1216   .text.mbedtls_debug_print_crt:000000000000010e .L0 
C:\Users\stapi\AppData\Local\Temp\ccG2cYBF.s:1223   .text.mbedtls_debug_print_crt:000000000000011a .L0 
C:\Users\stapi\AppData\Local\Temp\ccG2cYBF.s:1225   .text.mbedtls_debug_print_crt:000000000000011c .L0 
C:\Users\stapi\AppData\Local\Temp\ccG2cYBF.s:1227   .text.mbedtls_debug_print_crt:0000000000000120 .L0 
C:\Users\stapi\AppData\Local\Temp\ccG2cYBF.s:1234   .text.mbedtls_debug_print_crt:0000000000000130 .L0 
C:\Users\stapi\AppData\Local\Temp\ccG2cYBF.s:1235   .text.mbedtls_debug_print_crt:0000000000000130 .L0 
C:\Users\stapi\AppData\Local\Temp\ccG2cYBF.s:1240   .text.mbedtls_debug_print_crt:0000000000000132 .L0 
C:\Users\stapi\AppData\Local\Temp\ccG2cYBF.s:1241   .text.mbedtls_debug_print_crt:0000000000000132 .L0 
C:\Users\stapi\AppData\Local\Temp\ccG2cYBF.s:1250   .text.mbedtls_debug_print_crt:0000000000000136 .L0 
C:\Users\stapi\AppData\Local\Temp\ccG2cYBF.s:1257   .text.mbedtls_debug_print_crt:0000000000000148 .L0 
C:\Users\stapi\AppData\Local\Temp\ccG2cYBF.s:1259   .text.mbedtls_debug_print_crt:000000000000014a .L0 
C:\Users\stapi\AppData\Local\Temp\ccG2cYBF.s:1262   .text.mbedtls_debug_print_crt:000000000000014e .L0 
C:\Users\stapi\AppData\Local\Temp\ccG2cYBF.s:1263   .text.mbedtls_debug_print_crt:000000000000014e .L0 
C:\Users\stapi\AppData\Local\Temp\ccG2cYBF.s:1266   .text.mbedtls_debug_print_crt:0000000000000154 .L0 
C:\Users\stapi\AppData\Local\Temp\ccG2cYBF.s:1276   .text.mbedtls_debug_print_crt:0000000000000174 .L0 
C:\Users\stapi\AppData\Local\Temp\ccG2cYBF.s:1277   .text.mbedtls_debug_print_crt:0000000000000174 .L0 
C:\Users\stapi\AppData\Local\Temp\ccG2cYBF.s:1279   .text.mbedtls_debug_print_crt:0000000000000178 .L0 
C:\Users\stapi\AppData\Local\Temp\ccG2cYBF.s:1281   .text.mbedtls_debug_print_crt:000000000000017c .L0 
C:\Users\stapi\AppData\Local\Temp\ccG2cYBF.s:1282   .text.mbedtls_debug_print_crt:000000000000017c .L0 
C:\Users\stapi\AppData\Local\Temp\ccG2cYBF.s:1284   .text.mbedtls_debug_print_crt:0000000000000180 .L0 
C:\Users\stapi\AppData\Local\Temp\ccG2cYBF.s:1294   .text.mbedtls_debug_print_crt:0000000000000196 .L0 
C:\Users\stapi\AppData\Local\Temp\ccG2cYBF.s:1295   .text.mbedtls_debug_print_crt:0000000000000196 .L0 
C:\Users\stapi\AppData\Local\Temp\ccG2cYBF.s:1296   .text.mbedtls_debug_print_crt:0000000000000196 .L0 
C:\Users\stapi\AppData\Local\Temp\ccG2cYBF.s:1302   .text.mbedtls_debug_print_crt:00000000000001a0 .L0 
C:\Users\stapi\AppData\Local\Temp\ccG2cYBF.s:1303   .text.mbedtls_debug_print_crt:00000000000001a0 .L0 
C:\Users\stapi\AppData\Local\Temp\ccG2cYBF.s:1306   .text.mbedtls_debug_print_crt:00000000000001a6 .L0 
C:\Users\stapi\AppData\Local\Temp\ccG2cYBF.s:1317   .text.mbedtls_debug_print_crt:00000000000001be .L0 
C:\Users\stapi\AppData\Local\Temp\ccG2cYBF.s:1328   .text.mbedtls_debug_print_crt:00000000000001d4 .L0 
C:\Users\stapi\AppData\Local\Temp\ccG2cYBF.s:1345   .text.mbedtls_debug_printf_ecdh:0000000000000000 mbedtls_debug_printf_ecdh
C:\Users\stapi\AppData\Local\Temp\ccG2cYBF.s:1348   .text.mbedtls_debug_printf_ecdh:0000000000000000 .L0 
C:\Users\stapi\AppData\Local\Temp\ccG2cYBF.s:1350   .text.mbedtls_debug_printf_ecdh:0000000000000000 .L0 
C:\Users\stapi\AppData\Local\Temp\ccG2cYBF.s:1351   .text.mbedtls_debug_printf_ecdh:0000000000000008 .L0 
C:\Users\stapi\AppData\Local\Temp\ccG2cYBF.s:1352   .text.mbedtls_debug_printf_ecdh:0000000000000008 .L0 
C:\Users\stapi\AppData\Local\Temp\ccG2cYBF.s:1357   .text.mbedtls_debug_printf_ecdh:0000000000000008 .L0 
C:\Users\stapi\AppData\Local\Temp\ccG2cYBF.s:1358   .text.mbedtls_debug_printf_ecdh:0000000000000008 .L0 
C:\Users\stapi\AppData\Local\Temp\ccG2cYBF.s:1359   .text.mbedtls_debug_printf_ecdh:0000000000000008 .L0 
C:\Users\stapi\AppData\Local\Temp\ccG2cYBF.s:1365   .text.mbedtls_debug_printf_ecdh:0000000000000016 .L0 
C:\Users\stapi\AppData\Local\Temp\ccG2cYBF.s:1373   .text.mbedtls_debug_printf_ecdh:0000000000000022 .L0 
C:\Users\stapi\AppData\Local\Temp\ccG2cYBF.s:1379   .text.mbedtls_debug_printf_ecdh:000000000000002a .L0 
C:\Users\stapi\AppData\Local\Temp\ccG2cYBF.s:1380   .text.mbedtls_debug_printf_ecdh:000000000000002a .L0 
C:\Users\stapi\AppData\Local\Temp\ccG2cYBF.s:1381   .text.mbedtls_debug_printf_ecdh:0000000000000032 .L0 
C:\Users\stapi\AppData\Local\Temp\ccG2cYBF.s:1382   .text.mbedtls_debug_printf_ecdh:0000000000000032 .L0 
C:\Users\stapi\AppData\Local\Temp\ccG2cYBF.s:1383   .text.mbedtls_debug_printf_ecdh:0000000000000032 .L0 
C:\Users\stapi\AppData\Local\Temp\ccG2cYBF.s:1386   .text.mbedtls_debug_printf_ecdh:0000000000000032 .L0 
C:\Users\stapi\AppData\Local\Temp\ccG2cYBF.s:1390   .text.mbedtls_debug_printf_ecdh:0000000000000032 .L0 
C:\Users\stapi\AppData\Local\Temp\ccG2cYBF.s:1399   .text.mbedtls_debug_printf_ecdh:0000000000000040 .L0 
C:\Users\stapi\AppData\Local\Temp\ccG2cYBF.s:1409   .text.mbedtls_debug_printf_ecdh:0000000000000054 .L0 
C:\Users\stapi\AppData\Local\Temp\ccG2cYBF.s:1410   .text.mbedtls_debug_printf_ecdh:0000000000000054 .L0 
C:\Users\stapi\AppData\Local\Temp\ccG2cYBF.s:1411   .text.mbedtls_debug_printf_ecdh:0000000000000056 .L0 
C:\Users\stapi\AppData\Local\Temp\ccG2cYBF.s:1416   .sbss.debug_threshold:0000000000000000 .LANCHOR0
C:\Users\stapi\AppData\Local\Temp\ccG2cYBF.s:1419   .sbss.debug_threshold:0000000000000000 debug_threshold
C:\Users\stapi\AppData\Local\Temp\ccG2cYBF.s:30     .text.debug_send_line:000000000000000a .L0 
C:\Users\stapi\AppData\Local\Temp\ccG2cYBF.s:327    .text.mbedtls_debug_print_mpi.part.0:000000000000016e .L0 
C:\Users\stapi\AppData\Local\Temp\ccG2cYBF.s:345    .text.mbedtls_debug_set_threshold:000000000000000a .L0 
C:\Users\stapi\AppData\Local\Temp\ccG2cYBF.s:450    .text.mbedtls_debug_print_msg:0000000000000098 .L0 
C:\Users\stapi\AppData\Local\Temp\ccG2cYBF.s:534    .text.mbedtls_debug_print_ret:000000000000006c .L0 
C:\Users\stapi\AppData\Local\Temp\ccG2cYBF.s:819    .text.mbedtls_debug_print_buf:0000000000000196 .L0 
C:\Users\stapi\AppData\Local\Temp\ccG2cYBF.s:852    .text.mbedtls_debug_print_mpi:0000000000000028 .L0 
C:\Users\stapi\AppData\Local\Temp\ccG2cYBF.s:945    .text.mbedtls_debug_print_ecp.part.0:000000000000007c .L0 
C:\Users\stapi\AppData\Local\Temp\ccG2cYBF.s:974    .text.mbedtls_debug_print_ecp:0000000000000026 .L0 
C:\Users\stapi\AppData\Local\Temp\ccG2cYBF.s:1331   .text.mbedtls_debug_print_crt:00000000000001d4 .L0 
C:\Users\stapi\AppData\Local\Temp\ccG2cYBF.s:1414   .text.mbedtls_debug_printf_ecdh:0000000000000056 .L0 
                     .debug_frame:0000000000000000 .L0 
C:\Users\stapi\AppData\Local\Temp\ccG2cYBF.s:32     .rodata.mbedtls_debug_print_mpi.part.0.str1.4:0000000000000000 .LC0
C:\Users\stapi\AppData\Local\Temp\ccG2cYBF.s:41     .rodata.mbedtls_debug_print_mpi.part.0.str1.4:000000000000002c .LC3
C:\Users\stapi\AppData\Local\Temp\ccG2cYBF.s:35     .rodata.mbedtls_debug_print_mpi.part.0.str1.4:0000000000000020 .LC1
C:\Users\stapi\AppData\Local\Temp\ccG2cYBF.s:38     .rodata.mbedtls_debug_print_mpi.part.0.str1.4:0000000000000024 .LC2
C:\Users\stapi\AppData\Local\Temp\ccG2cYBF.s:207    .text.mbedtls_debug_print_mpi.part.0:00000000000000cc .L6
C:\Users\stapi\AppData\Local\Temp\ccG2cYBF.s:116    .text.mbedtls_debug_print_mpi.part.0:0000000000000036 .L7
C:\Users\stapi\AppData\Local\Temp\ccG2cYBF.s:103    .text.mbedtls_debug_print_mpi.part.0:000000000000002a .L8
C:\Users\stapi\AppData\Local\Temp\ccG2cYBF.s:221    .text.mbedtls_debug_print_mpi.part.0:00000000000000d8 .L16
C:\Users\stapi\AppData\Local\Temp\ccG2cYBF.s:170    .text.mbedtls_debug_print_mpi.part.0:0000000000000094 .L17
C:\Users\stapi\AppData\Local\Temp\ccG2cYBF.s:92     .text.mbedtls_debug_print_mpi.part.0:0000000000000022 .L5
C:\Users\stapi\AppData\Local\Temp\ccG2cYBF.s:87     .text.mbedtls_debug_print_mpi.part.0:000000000000001c .L4
C:\Users\stapi\AppData\Local\Temp\ccG2cYBF.s:232    .text.mbedtls_debug_print_mpi.part.0:00000000000000e8 .L10
C:\Users\stapi\AppData\Local\Temp\ccG2cYBF.s:318    .text.mbedtls_debug_print_mpi.part.0:000000000000016a .L11
C:\Users\stapi\AppData\Local\Temp\ccG2cYBF.s:253    .text.mbedtls_debug_print_mpi.part.0:0000000000000100 .L12
C:\Users\stapi\AppData\Local\Temp\ccG2cYBF.s:312    .text.mbedtls_debug_print_mpi.part.0:0000000000000164 .L13
C:\Users\stapi\AppData\Local\Temp\ccG2cYBF.s:282    .text.mbedtls_debug_print_mpi.part.0:0000000000000136 .L14
C:\Users\stapi\AppData\Local\Temp\ccG2cYBF.s:237    .text.mbedtls_debug_print_mpi.part.0:00000000000000ec .L15
C:\Users\stapi\AppData\Local\Temp\ccG2cYBF.s:150    .text.mbedtls_debug_print_mpi.part.0:0000000000000070 .L9
C:\Users\stapi\AppData\Local\Temp\ccG2cYBF.s:432    .text.mbedtls_debug_print_msg:000000000000007e .L37
C:\Users\stapi\AppData\Local\Temp\ccG2cYBF.s:422    .text.mbedtls_debug_print_msg:000000000000006c .L41
C:\Users\stapi\AppData\Local\Temp\ccG2cYBF.s:452    .rodata.mbedtls_debug_print_ret.str1.4:0000000000000000 .LC4
C:\Users\stapi\AppData\Local\Temp\ccG2cYBF.s:520    .text.mbedtls_debug_print_ret:0000000000000060 .L52
C:\Users\stapi\AppData\Local\Temp\ccG2cYBF.s:536    .rodata.mbedtls_debug_print_buf.str1.4:0000000000000000 .LC5
C:\Users\stapi\AppData\Local\Temp\ccG2cYBF.s:539    .rodata.mbedtls_debug_print_buf.str1.4:000000000000001c .LC6
C:\Users\stapi\AppData\Local\Temp\ccG2cYBF.s:545    .rodata.mbedtls_debug_print_buf.str1.4:000000000000002c .LC8
C:\Users\stapi\AppData\Local\Temp\ccG2cYBF.s:542    .rodata.mbedtls_debug_print_buf.str1.4:0000000000000024 .LC7
C:\Users\stapi\AppData\Local\Temp\ccG2cYBF.s:686    .text.mbedtls_debug_print_buf:00000000000000ca .L62
C:\Users\stapi\AppData\Local\Temp\ccG2cYBF.s:708    .text.mbedtls_debug_print_buf:00000000000000d6 .L72
C:\Users\stapi\AppData\Local\Temp\ccG2cYBF.s:802    .text.mbedtls_debug_print_buf:0000000000000184 .L74
C:\Users\stapi\AppData\Local\Temp\ccG2cYBF.s:666    .text.mbedtls_debug_print_buf:0000000000000098 .L68
C:\Users\stapi\AppData\Local\Temp\ccG2cYBF.s:763    .text.mbedtls_debug_print_buf:000000000000013e .L69
C:\Users\stapi\AppData\Local\Temp\ccG2cYBF.s:749    .text.mbedtls_debug_print_buf:0000000000000120 .L70
C:\Users\stapi\AppData\Local\Temp\ccG2cYBF.s:790    .text.mbedtls_debug_print_buf:0000000000000178 .L71
C:\Users\stapi\AppData\Local\Temp\ccG2cYBF.s:644    .text.mbedtls_debug_print_buf:0000000000000078 .L67
C:\Users\stapi\AppData\Local\Temp\ccG2cYBF.s:655    .text.mbedtls_debug_print_buf:0000000000000088 .L73
C:\Users\stapi\AppData\Local\Temp\ccG2cYBF.s:847    .text.mbedtls_debug_print_mpi:0000000000000026 .L96
C:\Users\stapi\AppData\Local\Temp\ccG2cYBF.s:854    .rodata.mbedtls_debug_print_ecp.part.0.str1.4:0000000000000000 .LC9
C:\Users\stapi\AppData\Local\Temp\ccG2cYBF.s:857    .rodata.mbedtls_debug_print_ecp.part.0.str1.4:0000000000000008 .LC10
C:\Users\stapi\AppData\Local\Temp\ccG2cYBF.s:969    .text.mbedtls_debug_print_ecp:0000000000000024 .L110
C:\Users\stapi\AppData\Local\Temp\ccG2cYBF.s:976    .rodata.mbedtls_debug_print_crt.str1.4:0000000000000000 .LC11
C:\Users\stapi\AppData\Local\Temp\ccG2cYBF.s:979    .rodata.mbedtls_debug_print_crt.str1.4:000000000000000c .LC12
C:\Users\stapi\AppData\Local\Temp\ccG2cYBF.s:982    .rodata.mbedtls_debug_print_crt.str1.4:0000000000000010 .LC13
C:\Users\stapi\AppData\Local\Temp\ccG2cYBF.s:991    .rodata.mbedtls_debug_print_crt.str1.4:0000000000000038 .LC16
C:\Users\stapi\AppData\Local\Temp\ccG2cYBF.s:985    .rodata.mbedtls_debug_print_crt.str1.4:0000000000000028 .LC14
C:\Users\stapi\AppData\Local\Temp\ccG2cYBF.s:988    .rodata.mbedtls_debug_print_crt.str1.4:0000000000000030 .LC15
C:\Users\stapi\AppData\Local\Temp\ccG2cYBF.s:1162   .text.mbedtls_debug_print_crt:00000000000000e2 .L113
C:\Users\stapi\AppData\Local\Temp\ccG2cYBF.s:1186   .text.mbedtls_debug_print_crt:00000000000000f0 .L118
C:\Users\stapi\AppData\Local\Temp\ccG2cYBF.s:1244   .text.mbedtls_debug_print_crt:0000000000000136 .L119
C:\Users\stapi\AppData\Local\Temp\ccG2cYBF.s:1065   .text.mbedtls_debug_print_crt:0000000000000048 .L115
C:\Users\stapi\AppData\Local\Temp\ccG2cYBF.s:1237   .text.mbedtls_debug_print_crt:0000000000000132 .L117
C:\Users\stapi\AppData\Local\Temp\ccG2cYBF.s:1112   .text.mbedtls_debug_print_crt:000000000000009c .L116
C:\Users\stapi\AppData\Local\Temp\ccG2cYBF.s:1151   .text.mbedtls_debug_print_crt:00000000000000da .L120
C:\Users\stapi\AppData\Local\Temp\ccG2cYBF.s:1300   .text.mbedtls_debug_print_crt:00000000000001a0 .L121
C:\Users\stapi\AppData\Local\Temp\ccG2cYBF.s:1260   .text.mbedtls_debug_print_crt:000000000000014e .L124
C:\Users\stapi\AppData\Local\Temp\ccG2cYBF.s:1315   .text.mbedtls_debug_print_crt:00000000000001be .L123
C:\Users\stapi\AppData\Local\Temp\ccG2cYBF.s:1292   .text.mbedtls_debug_print_crt:0000000000000196 .L122
C:\Users\stapi\AppData\Local\Temp\ccG2cYBF.s:1333   .rodata.mbedtls_debug_printf_ecdh.str1.4:0000000000000000 .LC17
C:\Users\stapi\AppData\Local\Temp\ccG2cYBF.s:1336   .rodata.mbedtls_debug_printf_ecdh.str1.4:0000000000000008 .LC18
C:\Users\stapi\AppData\Local\Temp\ccG2cYBF.s:1339   .rodata.mbedtls_debug_printf_ecdh.str1.4:0000000000000014 .LC19
C:\Users\stapi\AppData\Local\Temp\ccG2cYBF.s:1385   .text.mbedtls_debug_printf_ecdh:0000000000000032 .L143
C:\Users\stapi\AppData\Local\Temp\ccG2cYBF.s:1397   .text.mbedtls_debug_printf_ecdh:0000000000000040 .L144
C:\Users\stapi\AppData\Local\Temp\ccG2cYBF.s:1376   .text.mbedtls_debug_printf_ecdh:000000000000002a .L142
C:\Users\stapi\AppData\Local\Temp\ccG2cYBF.s:1371   .text.mbedtls_debug_printf_ecdh:0000000000000022 .L147
C:\Users\stapi\AppData\Local\Temp\ccG2cYBF.s:6666   .debug_abbrev:0000000000000000 .Ldebug_abbrev0
C:\Users\stapi\AppData\Local\Temp\ccG2cYBF.s:10129  .debug_str:000000000000112b .LASF312
C:\Users\stapi\AppData\Local\Temp\ccG2cYBF.s:9583   .debug_str:0000000000000173 .LASF313
C:\Users\stapi\AppData\Local\Temp\ccG2cYBF.s:9763   .debug_str:0000000000000727 .LASF314
C:\Users\stapi\AppData\Local\Temp\ccG2cYBF.s:9465   .debug_ranges:0000000000000000 .Ldebug_ranges0
C:\Users\stapi\AppData\Local\Temp\ccG2cYBF.s:9523   .debug_line:0000000000000000 .Ldebug_line0
C:\Users\stapi\AppData\Local\Temp\ccG2cYBF.s:9937   .debug_str:0000000000000bf2 .LASF2
C:\Users\stapi\AppData\Local\Temp\ccG2cYBF.s:9559   .debug_str:00000000000000d3 .LASF0
C:\Users\stapi\AppData\Local\Temp\ccG2cYBF.s:10105  .debug_str:0000000000001088 .LASF1
C:\Users\stapi\AppData\Local\Temp\ccG2cYBF.s:9999   .debug_str:0000000000000dbe .LASF3
C:\Users\stapi\AppData\Local\Temp\ccG2cYBF.s:10063  .debug_str:0000000000000f7a .LASF4
C:\Users\stapi\AppData\Local\Temp\ccG2cYBF.s:9961   .debug_str:0000000000000ca7 .LASF5
C:\Users\stapi\AppData\Local\Temp\ccG2cYBF.s:9701   .debug_str:0000000000000559 .LASF6
C:\Users\stapi\AppData\Local\Temp\ccG2cYBF.s:10113  .debug_str:00000000000010ca .LASF7
C:\Users\stapi\AppData\Local\Temp\ccG2cYBF.s:9971   .debug_str:0000000000000d00 .LASF8
C:\Users\stapi\AppData\Local\Temp\ccG2cYBF.s:9939   .debug_str:0000000000000bf9 .LASF9
C:\Users\stapi\AppData\Local\Temp\ccG2cYBF.s:10029  .debug_str:0000000000000eaa .LASF10
C:\Users\stapi\AppData\Local\Temp\ccG2cYBF.s:9839   .debug_str:000000000000097b .LASF11
C:\Users\stapi\AppData\Local\Temp\ccG2cYBF.s:9759   .debug_str:000000000000070b .LASF12
C:\Users\stapi\AppData\Local\Temp\ccG2cYBF.s:9683   .debug_str:00000000000004ca .LASF13
C:\Users\stapi\AppData\Local\Temp\ccG2cYBF.s:9815   .debug_str:00000000000008f8 .LASF14
C:\Users\stapi\AppData\Local\Temp\ccG2cYBF.s:9935   .debug_str:0000000000000be9 .LASF15
C:\Users\stapi\AppData\Local\Temp\ccG2cYBF.s:9649   .debug_str:00000000000003ee .LASF16
C:\Users\stapi\AppData\Local\Temp\ccG2cYBF.s:10089  .debug_str:000000000000102a .LASF17
C:\Users\stapi\AppData\Local\Temp\ccG2cYBF.s:9735   .debug_str:000000000000063a .LASF18
C:\Users\stapi\AppData\Local\Temp\ccG2cYBF.s:10121  .debug_str:00000000000010f5 .LASF315
C:\Users\stapi\AppData\Local\Temp\ccG2cYBF.s:9789   .debug_str:0000000000000841 .LASF19
C:\Users\stapi\AppData\Local\Temp\ccG2cYBF.s:9597   .debug_str:0000000000000252 .LASF20
C:\Users\stapi\AppData\Local\Temp\ccG2cYBF.s:9863   .debug_str:0000000000000a0c .LASF21
C:\Users\stapi\AppData\Local\Temp\ccG2cYBF.s:9551   .debug_str:0000000000000099 .LASF22
C:\Users\stapi\AppData\Local\Temp\ccG2cYBF.s:10023  .debug_str:0000000000000e76 .LASF23
C:\Users\stapi\AppData\Local\Temp\ccG2cYBF.s:10025  .debug_str:0000000000000e85 .LASF24
C:\Users\stapi\AppData\Local\Temp\ccG2cYBF.s:10011  .debug_str:0000000000000e0f .LASF25
C:\Users\stapi\AppData\Local\Temp\ccG2cYBF.s:9601   .debug_str:0000000000000270 .LASF26
C:\Users\stapi\AppData\Local\Temp\ccG2cYBF.s:9741   .debug_str:0000000000000661 .LASF27
C:\Users\stapi\AppData\Local\Temp\ccG2cYBF.s:9995   .debug_str:0000000000000d9e .LASF28
C:\Users\stapi\AppData\Local\Temp\ccG2cYBF.s:9689   .debug_str:00000000000004ff .LASF29
C:\Users\stapi\AppData\Local\Temp\ccG2cYBF.s:10109  .debug_str:00000000000010a0 .LASF30
C:\Users\stapi\AppData\Local\Temp\ccG2cYBF.s:9555   .debug_str:00000000000000b8 .LASF31
C:\Users\stapi\AppData\Local\Temp\ccG2cYBF.s:9729   .debug_str:0000000000000619 .LASF32
C:\Users\stapi\AppData\Local\Temp\ccG2cYBF.s:10107  .debug_str:0000000000001094 .LASF33
C:\Users\stapi\AppData\Local\Temp\ccG2cYBF.s:9951   .debug_str:0000000000000c40 .LASF34
C:\Users\stapi\AppData\Local\Temp\ccG2cYBF.s:9687   .debug_str:00000000000004e6 .LASF35
C:\Users\stapi\AppData\Local\Temp\ccG2cYBF.s:10015  .debug_str:0000000000000e24 .LASF36
C:\Users\stapi\AppData\Local\Temp\ccG2cYBF.s:9965   .debug_str:0000000000000cc9 .LASF37
C:\Users\stapi\AppData\Local\Temp\ccG2cYBF.s:9699   .debug_str:0000000000000540 .LASF38
C:\Users\stapi\AppData\Local\Temp\ccG2cYBF.s:9831   .debug_str:000000000000093b .LASF39
C:\Users\stapi\AppData\Local\Temp\ccG2cYBF.s:9977   .debug_str:0000000000000d29 .LASF40
C:\Users\stapi\AppData\Local\Temp\ccG2cYBF.s:9707   .debug_str:000000000000057b .LASF41
C:\Users\stapi\AppData\Local\Temp\ccG2cYBF.s:9567   .debug_str:00000000000000f8 .LASF42
C:\Users\stapi\AppData\Local\Temp\ccG2cYBF.s:9635   .debug_str:000000000000037b .LASF43
C:\Users\stapi\AppData\Local\Temp\ccG2cYBF.s:9715   .debug_str:00000000000005b8 .LASF44
C:\Users\stapi\AppData\Local\Temp\ccG2cYBF.s:10075  .debug_str:0000000000000fb4 .LASF45
C:\Users\stapi\AppData\Local\Temp\ccG2cYBF.s:9663   .debug_str:000000000000043a .LASF46
C:\Users\stapi\AppData\Local\Temp\ccG2cYBF.s:9743   .debug_str:0000000000000673 .LASF47
C:\Users\stapi\AppData\Local\Temp\ccG2cYBF.s:10111  .debug_str:00000000000010b5 .LASF48
C:\Users\stapi\AppData\Local\Temp\ccG2cYBF.s:9677   .debug_str:00000000000004a5 .LASF49
C:\Users\stapi\AppData\Local\Temp\ccG2cYBF.s:10125  .debug_str:000000000000110f .LASF50
C:\Users\stapi\AppData\Local\Temp\ccG2cYBF.s:9883   .debug_str:0000000000000aa5 .LASF51
C:\Users\stapi\AppData\Local\Temp\ccG2cYBF.s:9855   .debug_str:00000000000009df .LASF52
C:\Users\stapi\AppData\Local\Temp\ccG2cYBF.s:9619   .debug_str:0000000000000301 .LASF53
C:\Users\stapi\AppData\Local\Temp\ccG2cYBF.s:9669   .debug_str:000000000000046f .LASF54
C:\Users\stapi\AppData\Local\Temp\ccG2cYBF.s:10135  .debug_str:0000000000001237 .LASF55
C:\Users\stapi\AppData\Local\Temp\ccG2cYBF.s:9859   .debug_str:00000000000009fe .LASF56
C:\Users\stapi\AppData\Local\Temp\ccG2cYBF.s:9767   .debug_str:00000000000007b6 .LASF57
C:\Users\stapi\AppData\Local\Temp\ccG2cYBF.s:9871   .debug_str:0000000000000a4f .LASF58
C:\Users\stapi\AppData\Local\Temp\ccG2cYBF.s:9711   .debug_str:00000000000005a5 .LASF59
C:\Users\stapi\AppData\Local\Temp\ccG2cYBF.s:9771   .debug_str:00000000000007ce .LASF60
C:\Users\stapi\AppData\Local\Temp\ccG2cYBF.s:9599   .debug_str:0000000000000261 .LASF61
C:\Users\stapi\AppData\Local\Temp\ccG2cYBF.s:9691   .debug_str:0000000000000511 .LASF62
C:\Users\stapi\AppData\Local\Temp\ccG2cYBF.s:9537   .debug_str:0000000000000042 .LASF63
C:\Users\stapi\AppData\Local\Temp\ccG2cYBF.s:9769   .debug_str:00000000000007bd .LASF64
C:\Users\stapi\AppData\Local\Temp\ccG2cYBF.s:9709   .debug_str:0000000000000592 .LASF65
C:\Users\stapi\AppData\Local\Temp\ccG2cYBF.s:9879   .debug_str:0000000000000a86 .LASF66
C:\Users\stapi\AppData\Local\Temp\ccG2cYBF.s:10091  .debug_str:0000000000001033 .LASF67
C:\Users\stapi\AppData\Local\Temp\ccG2cYBF.s:9749   .debug_str:00000000000006a4 .LASF68
C:\Users\stapi\AppData\Local\Temp\ccG2cYBF.s:9813   .debug_str:00000000000008e6 .LASF69
C:\Users\stapi\AppData\Local\Temp\ccG2cYBF.s:9843   .debug_str:0000000000000990 .LASF70
C:\Users\stapi\AppData\Local\Temp\ccG2cYBF.s:9975   .debug_str:0000000000000d14 .LASF71
C:\Users\stapi\AppData\Local\Temp\ccG2cYBF.s:9959   .debug_str:0000000000000c92 .LASF72
C:\Users\stapi\AppData\Local\Temp\ccG2cYBF.s:9545   .debug_str:0000000000000070 .LASF73
C:\Users\stapi\AppData\Local\Temp\ccG2cYBF.s:10157  .debug_str:00000000000012be .LASF74
C:\Users\stapi\AppData\Local\Temp\ccG2cYBF.s:10059  .debug_str:0000000000000f6d .LASF75
C:\Users\stapi\AppData\Local\Temp\ccG2cYBF.s:9525   .debug_str:0000000000000000 .LASF76
C:\Users\stapi\AppData\Local\Temp\ccG2cYBF.s:9721   .debug_str:00000000000005e8 .LASF77
C:\Users\stapi\AppData\Local\Temp\ccG2cYBF.s:10019  .debug_str:0000000000000e53 .LASF78
C:\Users\stapi\AppData\Local\Temp\ccG2cYBF.s:9671   .debug_str:0000000000000475 .LASF79
C:\Users\stapi\AppData\Local\Temp\ccG2cYBF.s:9795   .debug_str:0000000000000866 .LASF80
C:\Users\stapi\AppData\Local\Temp\ccG2cYBF.s:10057  .debug_str:0000000000000f66 .LASF81
C:\Users\stapi\AppData\Local\Temp\ccG2cYBF.s:9981   .debug_str:0000000000000d48 .LASF82
C:\Users\stapi\AppData\Local\Temp\ccG2cYBF.s:10001  .debug_str:0000000000000dc8 .LASF83
C:\Users\stapi\AppData\Local\Temp\ccG2cYBF.s:9561   .debug_str:00000000000000e0 .LASF84
C:\Users\stapi\AppData\Local\Temp\ccG2cYBF.s:10087  .debug_str:0000000000001012 .LASF85
C:\Users\stapi\AppData\Local\Temp\ccG2cYBF.s:9739   .debug_str:0000000000000655 .LASF86
C:\Users\stapi\AppData\Local\Temp\ccG2cYBF.s:9647   .debug_str:00000000000003dd .LASF87
C:\Users\stapi\AppData\Local\Temp\ccG2cYBF.s:9835   .debug_str:000000000000095c .LASF88
C:\Users\stapi\AppData\Local\Temp\ccG2cYBF.s:9577   .debug_str:000000000000013e .LASF89
C:\Users\stapi\AppData\Local\Temp\ccG2cYBF.s:9595   .debug_str:0000000000000240 .LASF90
C:\Users\stapi\AppData\Local\Temp\ccG2cYBF.s:10043  .debug_str:0000000000000f16 .LASF91
C:\Users\stapi\AppData\Local\Temp\ccG2cYBF.s:9775   .debug_str:00000000000007eb .LASF92
C:\Users\stapi\AppData\Local\Temp\ccG2cYBF.s:9579   .debug_str:0000000000000154 .LASF93
C:\Users\stapi\AppData\Local\Temp\ccG2cYBF.s:10047  .debug_str:0000000000000f2c .LASF94
C:\Users\stapi\AppData\Local\Temp\ccG2cYBF.s:9725   .debug_str:00000000000005f8 .LASF95
C:\Users\stapi\AppData\Local\Temp\ccG2cYBF.s:9717   .debug_str:00000000000005d1 .LASF96
C:\Users\stapi\AppData\Local\Temp\ccG2cYBF.s:9783   .debug_str:0000000000000815 .LASF97
C:\Users\stapi\AppData\Local\Temp\ccG2cYBF.s:9563   .debug_str:00000000000000e5 .LASF98
C:\Users\stapi\AppData\Local\Temp\ccG2cYBF.s:9581   .debug_str:000000000000016b .LASF99
C:\Users\stapi\AppData\Local\Temp\ccG2cYBF.s:10005  .debug_str:0000000000000de4 .LASF100
C:\Users\stapi\AppData\Local\Temp\ccG2cYBF.s:9823   .debug_str:000000000000091d .LASF101
C:\Users\stapi\AppData\Local\Temp\ccG2cYBF.s:10083  .debug_str:0000000000000ffa .LASF102
C:\Users\stapi\AppData\Local\Temp\ccG2cYBF.s:10073  .debug_str:0000000000000fa8 .LASF103
C:\Users\stapi\AppData\Local\Temp\ccG2cYBF.s:9827   .debug_str:000000000000092c .LASF104
C:\Users\stapi\AppData\Local\Temp\ccG2cYBF.s:10103  .debug_str:0000000000001080 .LASF105
C:\Users\stapi\AppData\Local\Temp\ccG2cYBF.s:9731   .debug_str:000000000000062a .LASF106
C:\Users\stapi\AppData\Local\Temp\ccG2cYBF.s:9989   .debug_str:0000000000000d81 .LASF107
C:\Users\stapi\AppData\Local\Temp\ccG2cYBF.s:9603   .debug_str:0000000000000282 .LASF108
C:\Users\stapi\AppData\Local\Temp\ccG2cYBF.s:9653   .debug_str:0000000000000408 .LASF109
C:\Users\stapi\AppData\Local\Temp\ccG2cYBF.s:9787   .debug_str:0000000000000830 .LASF110
C:\Users\stapi\AppData\Local\Temp\ccG2cYBF.s:9621   .debug_str:0000000000000306 .LASF111
C:\Users\stapi\AppData\Local\Temp\ccG2cYBF.s:9875   .debug_str:0000000000000a6b .LASF112
C:\Users\stapi\AppData\Local\Temp\ccG2cYBF.s:9571   .debug_str:0000000000000123 .LASF113
C:\Users\stapi\AppData\Local\Temp\ccG2cYBF.s:9969   .debug_str:0000000000000cf5 .LASF114
C:\Users\stapi\AppData\Local\Temp\ccG2cYBF.s:9661   .debug_str:0000000000000431 .LASF115
C:\Users\stapi\AppData\Local\Temp\ccG2cYBF.s:9861   .debug_str:0000000000000a05 .LASF116
C:\Users\stapi\AppData\Local\Temp\ccG2cYBF.s:9903   .debug_str:0000000000000b1d .LASF117
C:\Users\stapi\AppData\Local\Temp\ccG2cYBF.s:9541   .debug_str:000000000000005e .LASF118
C:\Users\stapi\AppData\Local\Temp\ccG2cYBF.s:9527   .debug_str:0000000000000005 .LASF119
C:\Users\stapi\AppData\Local\Temp\ccG2cYBF.s:9797   .debug_str:000000000000086e .LASF120
C:\Users\stapi\AppData\Local\Temp\ccG2cYBF.s:9723   .debug_str:00000000000005ee .LASF121
C:\Users\stapi\AppData\Local\Temp\ccG2cYBF.s:9535   .debug_str:0000000000000038 .LASF122
C:\Users\stapi\AppData\Local\Temp\ccG2cYBF.s:9675   .debug_str:0000000000000499 .LASF123
C:\Users\stapi\AppData\Local\Temp\ccG2cYBF.s:9705   .debug_str:0000000000000571 .LASF124
C:\Users\stapi\AppData\Local\Temp\ccG2cYBF.s:9533   .debug_str:000000000000002a .LASF125
C:\Users\stapi\AppData\Local\Temp\ccG2cYBF.s:9837   .debug_str:000000000000096e .LASF126
C:\Users\stapi\AppData\Local\Temp\ccG2cYBF.s:9857   .debug_str:00000000000009e5 .LASF127
C:\Users\stapi\AppData\Local\Temp\ccG2cYBF.s:9737   .debug_str:0000000000000649 .LASF128
C:\Users\stapi\AppData\Local\Temp\ccG2cYBF.s:9777   .debug_str:00000000000007f0 .LASF129
C:\Users\stapi\AppData\Local\Temp\ccG2cYBF.s:9877   .debug_str:0000000000000a77 .LASF130
C:\Users\stapi\AppData\Local\Temp\ccG2cYBF.s:10055  .debug_str:0000000000000f57 .LASF131
C:\Users\stapi\AppData\Local\Temp\ccG2cYBF.s:9985   .debug_str:0000000000000d5f .LASF132
C:\Users\stapi\AppData\Local\Temp\ccG2cYBF.s:9697   .debug_str:000000000000052d .LASF133
C:\Users\stapi\AppData\Local\Temp\ccG2cYBF.s:9753   .debug_str:00000000000006c8 .LASF134
C:\Users\stapi\AppData\Local\Temp\ccG2cYBF.s:9625   .debug_str:000000000000032c .LASF135
C:\Users\stapi\AppData\Local\Temp\ccG2cYBF.s:10041  .debug_str:0000000000000efe .LASF136
C:\Users\stapi\AppData\Local\Temp\ccG2cYBF.s:9613   .debug_str:00000000000002d6 .LASF137
C:\Users\stapi\AppData\Local\Temp\ccG2cYBF.s:10003  .debug_str:0000000000000dde .LASF138
C:\Users\stapi\AppData\Local\Temp\ccG2cYBF.s:9927   .debug_str:0000000000000ba9 .LASF139
C:\Users\stapi\AppData\Local\Temp\ccG2cYBF.s:10097  .debug_str:000000000000105e .LASF140
C:\Users\stapi\AppData\Local\Temp\ccG2cYBF.s:9901   .debug_str:0000000000000b16 .LASF141
C:\Users\stapi\AppData\Local\Temp\ccG2cYBF.s:10035  .debug_str:0000000000000ed4 .LASF142
C:\Users\stapi\AppData\Local\Temp\ccG2cYBF.s:9761   .debug_str:0000000000000716 .LASF143
C:\Users\stapi\AppData\Local\Temp\ccG2cYBF.s:9949   .debug_str:0000000000000c2b .LASF144
C:\Users\stapi\AppData\Local\Temp\ccG2cYBF.s:10027  .debug_str:0000000000000e94 .LASF145
C:\Users\stapi\AppData\Local\Temp\ccG2cYBF.s:10151  .debug_str:000000000000129d .LASF146
C:\Users\stapi\AppData\Local\Temp\ccG2cYBF.s:9821   .debug_str:0000000000000916 .LASF147
C:\Users\stapi\AppData\Local\Temp\ccG2cYBF.s:9931   .debug_str:0000000000000bc9 .LASF148
C:\Users\stapi\AppData\Local\Temp\ccG2cYBF.s:9667   .debug_str:000000000000045f .LASF149
C:\Users\stapi\AppData\Local\Temp\ccG2cYBF.s:9547   .debug_str:0000000000000086 .LASF150
C:\Users\stapi\AppData\Local\Temp\ccG2cYBF.s:10039  .debug_str:0000000000000ef3 .LASF151
C:\Users\stapi\AppData\Local\Temp\ccG2cYBF.s:9751   .debug_str:00000000000006b7 .LASF152
C:\Users\stapi\AppData\Local\Temp\ccG2cYBF.s:9929   .debug_str:0000000000000bb5 .LASF153
C:\Users\stapi\AppData\Local\Temp\ccG2cYBF.s:9531   .debug_str:0000000000000025 .LASF154
C:\Users\stapi\AppData\Local\Temp\ccG2cYBF.s:10049  .debug_str:0000000000000f33 .LASF155
C:\Users\stapi\AppData\Local\Temp\ccG2cYBF.s:9997   .debug_str:0000000000000db0 .LASF156
C:\Users\stapi\AppData\Local\Temp\ccG2cYBF.s:9569   .debug_str:000000000000010f .LASF157
C:\Users\stapi\AppData\Local\Temp\ccG2cYBF.s:9785   .debug_str:0000000000000826 .LASF158
C:\Users\stapi\AppData\Local\Temp\ccG2cYBF.s:10147  .debug_str:0000000000001285 .LASF159
C:\Users\stapi\AppData\Local\Temp\ccG2cYBF.s:9665   .debug_str:0000000000000453 .LASF160
C:\Users\stapi\AppData\Local\Temp\ccG2cYBF.s:10079  .debug_str:0000000000000fe2 .LASF161
C:\Users\stapi\AppData\Local\Temp\ccG2cYBF.s:9897   .debug_str:0000000000000af7 .LASF162
C:\Users\stapi\AppData\Local\Temp\ccG2cYBF.s:9645   .debug_str:00000000000003ce .LASF163
C:\Users\stapi\AppData\Local\Temp\ccG2cYBF.s:9907   .debug_str:0000000000000b30 .LASF164
C:\Users\stapi\AppData\Local\Temp\ccG2cYBF.s:9781   .debug_str:000000000000080a .LASF165
C:\Users\stapi\AppData\Local\Temp\ccG2cYBF.s:10085  .debug_str:0000000000001006 .LASF166
C:\Users\stapi\AppData\Local\Temp\ccG2cYBF.s:9539   .debug_str:0000000000000056 .LASF167
C:\Users\stapi\AppData\Local\Temp\ccG2cYBF.s:9793   .debug_str:0000000000000854 .LASF168
C:\Users\stapi\AppData\Local\Temp\ccG2cYBF.s:9853   .debug_str:00000000000009d5 .LASF169
C:\Users\stapi\AppData\Local\Temp\ccG2cYBF.s:9719   .debug_str:00000000000005db .LASF170
C:\Users\stapi\AppData\Local\Temp\ccG2cYBF.s:9819   .debug_str:0000000000000908 .LASF171
C:\Users\stapi\AppData\Local\Temp\ccG2cYBF.s:9991   .debug_str:0000000000000d88 .LASF172
C:\Users\stapi\AppData\Local\Temp\ccG2cYBF.s:10007  .debug_str:0000000000000def .LASF173
C:\Users\stapi\AppData\Local\Temp\ccG2cYBF.s:9605   .debug_str:0000000000000289 .LASF174
C:\Users\stapi\AppData\Local\Temp\ccG2cYBF.s:9945   .debug_str:0000000000000c12 .LASF175
C:\Users\stapi\AppData\Local\Temp\ccG2cYBF.s:9657   .debug_str:000000000000041f .LASF176
C:\Users\stapi\AppData\Local\Temp\ccG2cYBF.s:9633   .debug_str:0000000000000374 .LASF177
C:\Users\stapi\AppData\Local\Temp\ccG2cYBF.s:9849   .debug_str:00000000000009c3 .LASF178
C:\Users\stapi\AppData\Local\Temp\ccG2cYBF.s:9811   .debug_str:00000000000008df .LASF179
C:\Users\stapi\AppData\Local\Temp\ccG2cYBF.s:9575   .debug_str:0000000000000137 .LASF180
C:\Users\stapi\AppData\Local\Temp\ccG2cYBF.s:9983   .debug_str:0000000000000d59 .LASF181
C:\Users\stapi\AppData\Local\Temp\ccG2cYBF.s:9593   .debug_str:0000000000000239 .LASF182
C:\Users\stapi\AppData\Local\Temp\ccG2cYBF.s:10051  .debug_str:0000000000000f39 .LASF183
C:\Users\stapi\AppData\Local\Temp\ccG2cYBF.s:9587   .debug_str:0000000000000220 .LASF184
C:\Users\stapi\AppData\Local\Temp\ccG2cYBF.s:10127  .debug_str:0000000000001121 .LASF185
C:\Users\stapi\AppData\Local\Temp\ccG2cYBF.s:9979   .debug_str:0000000000000d40 .LASF186
C:\Users\stapi\AppData\Local\Temp\ccG2cYBF.s:9805   .debug_str:00000000000008aa .LASF187
C:\Users\stapi\AppData\Local\Temp\ccG2cYBF.s:9847   .debug_str:00000000000009b0 .LASF188
C:\Users\stapi\AppData\Local\Temp\ccG2cYBF.s:9779   .debug_str:00000000000007fc .LASF189
C:\Users\stapi\AppData\Local\Temp\ccG2cYBF.s:9549   .debug_str:000000000000008f .LASF190
C:\Users\stapi\AppData\Local\Temp\ccG2cYBF.s:9557   .debug_str:00000000000000ca .LASF191
C:\Users\stapi\AppData\Local\Temp\ccG2cYBF.s:10123  .debug_str:0000000000001107 .LASF192
C:\Users\stapi\AppData\Local\Temp\ccG2cYBF.s:9933   .debug_str:0000000000000bd4 .LASF193
C:\Users\stapi\AppData\Local\Temp\ccG2cYBF.s:9611   .debug_str:00000000000002bd .LASF194
C:\Users\stapi\AppData\Local\Temp\ccG2cYBF.s:9817   .debug_str:0000000000000900 .LASF195
C:\Users\stapi\AppData\Local\Temp\ccG2cYBF.s:9867   .debug_str:0000000000000a32 .LASF196
C:\Users\stapi\AppData\Local\Temp\ccG2cYBF.s:9825   .debug_str:0000000000000924 .LASF197
C:\Users\stapi\AppData\Local\Temp\ccG2cYBF.s:9589   .debug_str:000000000000022b .LASF198
C:\Users\stapi\AppData\Local\Temp\ccG2cYBF.s:9841   .debug_str:0000000000000989 .LASF199
C:\Users\stapi\AppData\Local\Temp\ccG2cYBF.s:9799   .debug_str:0000000000000880 .LASF200
C:\Users\stapi\AppData\Local\Temp\ccG2cYBF.s:10131  .debug_str:0000000000001224 .LASF201
C:\Users\stapi\AppData\Local\Temp\ccG2cYBF.s:9565   .debug_str:00000000000000ed .LASF202
C:\Users\stapi\AppData\Local\Temp\ccG2cYBF.s:9745   .debug_str:000000000000068b .LASF203
C:\Users\stapi\AppData\Local\Temp\ccG2cYBF.s:9893   .debug_str:0000000000000ae5 .LASF204
C:\Users\stapi\AppData\Local\Temp\ccG2cYBF.s:9973   .debug_str:0000000000000d09 .LASF205
C:\Users\stapi\AppData\Local\Temp\ccG2cYBF.s:9921   .debug_str:0000000000000b8e .LASF206
C:\Users\stapi\AppData\Local\Temp\ccG2cYBF.s:9829   .debug_str:0000000000000932 .LASF207
C:\Users\stapi\AppData\Local\Temp\ccG2cYBF.s:10009  .debug_str:0000000000000e03 .LASF208
C:\Users\stapi\AppData\Local\Temp\ccG2cYBF.s:10133  .debug_str:0000000000001230 .LASF209
C:\Users\stapi\AppData\Local\Temp\ccG2cYBF.s:10115  .debug_str:00000000000010dd .LASF210
C:\Users\stapi\AppData\Local\Temp\ccG2cYBF.s:9955   .debug_str:0000000000000c63 .LASF211
C:\Users\stapi\AppData\Local\Temp\ccG2cYBF.s:9807   .debug_str:00000000000008b3 .LASF212
C:\Users\stapi\AppData\Local\Temp\ccG2cYBF.s:9747   .debug_str:0000000000000694 .LASF213
C:\Users\stapi\AppData\Local\Temp\ccG2cYBF.s:10081  .debug_str:0000000000000fe9 .LASF214
C:\Users\stapi\AppData\Local\Temp\ccG2cYBF.s:10143  .debug_str:0000000000001264 .LASF215
C:\Users\stapi\AppData\Local\Temp\ccG2cYBF.s:10021  .debug_str:0000000000000e65 .LASF216
C:\Users\stapi\AppData\Local\Temp\ccG2cYBF.s:9889   .debug_str:0000000000000ad1 .LASF217
C:\Users\stapi\AppData\Local\Temp\ccG2cYBF.s:10117  .debug_str:00000000000010e8 .LASF218
C:\Users\stapi\AppData\Local\Temp\ccG2cYBF.s:9765   .debug_str:00000000000007b0 .LASF219
C:\Users\stapi\AppData\Local\Temp\ccG2cYBF.s:9693   .debug_str:0000000000000522 .LASF220
C:\Users\stapi\AppData\Local\Temp\ccG2cYBF.s:9993   .debug_str:0000000000000d92 .LASF221
C:\Users\stapi\AppData\Local\Temp\ccG2cYBF.s:9637   .debug_str:0000000000000395 .LASF222
C:\Users\stapi\AppData\Local\Temp\ccG2cYBF.s:10061  .debug_str:0000000000000f72 .LASF223
C:\Users\stapi\AppData\Local\Temp\ccG2cYBF.s:9615   .debug_str:00000000000002ea .LASF224
C:\Users\stapi\AppData\Local\Temp\ccG2cYBF.s:9895   .debug_str:0000000000000af1 .LASF225
C:\Users\stapi\AppData\Local\Temp\ccG2cYBF.s:9681   .debug_str:00000000000004c3 .LASF226
C:\Users\stapi\AppData\Local\Temp\ccG2cYBF.s:9733   .debug_str:0000000000000633 .LASF227
C:\Users\stapi\AppData\Local\Temp\ccG2cYBF.s:9713   .debug_str:00000000000005b2 .LASF228
C:\Users\stapi\AppData\Local\Temp\ccG2cYBF.s:10065  .debug_str:0000000000000f88 .LASF229
C:\Users\stapi\AppData\Local\Temp\ccG2cYBF.s:9953   .debug_str:0000000000000c54 .LASF230
C:\Users\stapi\AppData\Local\Temp\ccG2cYBF.s:9627   .debug_str:0000000000000344 .LASF231
C:\Users\stapi\AppData\Local\Temp\ccG2cYBF.s:10033  .debug_str:0000000000000ecb .LASF232
C:\Users\stapi\AppData\Local\Temp\ccG2cYBF.s:10139  .debug_str:000000000000124c .LASF233
C:\Users\stapi\AppData\Local\Temp\ccG2cYBF.s:10031  .debug_str:0000000000000ebc .LASF234
C:\Users\stapi\AppData\Local\Temp\ccG2cYBF.s:9905   .debug_str:0000000000000b27 .LASF235
C:\Users\stapi\AppData\Local\Temp\ccG2cYBF.s:10145  .debug_str:0000000000001277 .LASF236
C:\Users\stapi\AppData\Local\Temp\ccG2cYBF.s:10137  .debug_str:000000000000123e .LASF237
C:\Users\stapi\AppData\Local\Temp\ccG2cYBF.s:9947   .debug_str:0000000000000c1e .LASF238
C:\Users\stapi\AppData\Local\Temp\ccG2cYBF.s:9909   .debug_str:0000000000000b36 .LASF239
C:\Users\stapi\AppData\Local\Temp\ccG2cYBF.s:10155  .debug_str:00000000000012b5 .LASF240
C:\Users\stapi\AppData\Local\Temp\ccG2cYBF.s:9915   .debug_str:0000000000000b6c .LASF241
C:\Users\stapi\AppData\Local\Temp\ccG2cYBF.s:9851   .debug_str:00000000000009ca .LASF242
C:\Users\stapi\AppData\Local\Temp\ccG2cYBF.s:9631   .debug_str:0000000000000369 .LASF243
C:\Users\stapi\AppData\Local\Temp\ccG2cYBF.s:9941   .debug_str:0000000000000c04 .LASF244
C:\Users\stapi\AppData\Local\Temp\ccG2cYBF.s:10069  .debug_str:0000000000000f9d .LASF245
C:\Users\stapi\AppData\Local\Temp\ccG2cYBF.s:9943   .debug_str:0000000000000c0a .LASF246
C:\Users\stapi\AppData\Local\Temp\ccG2cYBF.s:9773   .debug_str:00000000000007de .LASF247
C:\Users\stapi\AppData\Local\Temp\ccG2cYBF.s:9651   .debug_str:00000000000003f7 .LASF248
C:\Users\stapi\AppData\Local\Temp\ccG2cYBF.s:9925   .debug_str:0000000000000b9f .LASF249
C:\Users\stapi\AppData\Local\Temp\ccG2cYBF.s:9703   .debug_str:0000000000000564 .LASF250
C:\Users\stapi\AppData\Local\Temp\ccG2cYBF.s:9987   .debug_str:0000000000000d72 .LASF251
C:\Users\stapi\AppData\Local\Temp\ccG2cYBF.s:9643   .debug_str:00000000000003bf .LASF252
C:\Users\stapi\AppData\Local\Temp\ccG2cYBF.s:9967   .debug_str:0000000000000ce2 .LASF253
C:\Users\stapi\AppData\Local\Temp\ccG2cYBF.s:9655   .debug_str:0000000000000411 .LASF254
C:\Users\stapi\AppData\Local\Temp\ccG2cYBF.s:10101  .debug_str:0000000000001073 .LASF255
C:\Users\stapi\AppData\Local\Temp\ccG2cYBF.s:10093  .debug_str:0000000000001045 .LASF256
C:\Users\stapi\AppData\Local\Temp\ccG2cYBF.s:9791   .debug_str:0000000000000846 .LASF257
C:\Users\stapi\AppData\Local\Temp\ccG2cYBF.s:9887   .debug_str:0000000000000ac3 .LASF258
C:\Users\stapi\AppData\Local\Temp\ccG2cYBF.s:10149  .debug_str:000000000000128f .LASF259
C:\Users\stapi\AppData\Local\Temp\ccG2cYBF.s:9639   .debug_str:00000000000003a1 .LASF260
C:\Users\stapi\AppData\Local\Temp\ccG2cYBF.s:10141  .debug_str:000000000000125b .LASF261
C:\Users\stapi\AppData\Local\Temp\ccG2cYBF.s:9845   .debug_str:00000000000009a6 .LASF262
C:\Users\stapi\AppData\Local\Temp\ccG2cYBF.s:9607   .debug_str:0000000000000291 .LASF263
C:\Users\stapi\AppData\Local\Temp\ccG2cYBF.s:9623   .debug_str:0000000000000311 .LASF264
C:\Users\stapi\AppData\Local\Temp\ccG2cYBF.s:9891   .debug_str:0000000000000ad7 .LASF265
C:\Users\stapi\AppData\Local\Temp\ccG2cYBF.s:9573   .debug_str:000000000000012b .LASF266
C:\Users\stapi\AppData\Local\Temp\ccG2cYBF.s:9679   .debug_str:00000000000004b7 .LASF267
C:\Users\stapi\AppData\Local\Temp\ccG2cYBF.s:10077  .debug_str:0000000000000fcd .LASF268
C:\Users\stapi\AppData\Local\Temp\ccG2cYBF.s:10053  .debug_str:0000000000000f41 .LASF269
C:\Users\stapi\AppData\Local\Temp\ccG2cYBF.s:9553   .debug_str:00000000000000a8 .LASF270
C:\Users\stapi\AppData\Local\Temp\ccG2cYBF.s:10099  .debug_str:000000000000106a .LASF271
C:\Users\stapi\AppData\Local\Temp\ccG2cYBF.s:10045  .debug_str:0000000000000f1b .LASF272
C:\Users\stapi\AppData\Local\Temp\ccG2cYBF.s:9629   .debug_str:0000000000000353 .LASF273
C:\Users\stapi\AppData\Local\Temp\ccG2cYBF.s:9801   .debug_str:0000000000000888 .LASF274
C:\Users\stapi\AppData\Local\Temp\ccG2cYBF.s:9869   .debug_str:0000000000000a3a .LASF275
C:\Users\stapi\AppData\Local\Temp\ccG2cYBF.s:9911   .debug_str:0000000000000b3f .LASF276
C:\Users\stapi\AppData\Local\Temp\ccG2cYBF.s:10017  .debug_str:0000000000000e3d .LASF277
C:\Users\stapi\AppData\Local\Temp\ccG2cYBF.s:9919   .debug_str:0000000000000b79 .LASF278
C:\Users\stapi\AppData\Local\Temp\ccG2cYBF.s:9585   .debug_str:0000000000000208 .LASF279
C:\Users\stapi\AppData\Local\Temp\ccG2cYBF.s:9833   .debug_str:0000000000000954 .LASF280
C:\Users\stapi\AppData\Local\Temp\ccG2cYBF.s:9757   .debug_str:00000000000006fb .LASF289
C:\Users\stapi\AppData\Local\Temp\ccG2cYBF.s:9957   .debug_str:0000000000000c78 .LASF286
C:\Users\stapi\AppData\Local\Temp\ccG2cYBF.s:1346   .text.mbedtls_debug_printf_ecdh:0000000000000000 .LFB394
C:\Users\stapi\AppData\Local\Temp\ccG2cYBF.s:1412   .text.mbedtls_debug_printf_ecdh:0000000000000056 .LFE394
C:\Users\stapi\AppData\Local\Temp\ccG2cYBF.s:7699   .debug_loc:0000000000000000 .LLST76
C:\Users\stapi\AppData\Local\Temp\ccG2cYBF.s:9591   .debug_str:0000000000000233 .LASF281
C:\Users\stapi\AppData\Local\Temp\ccG2cYBF.s:7724   .debug_loc:000000000000003a .LLST77
C:\Users\stapi\AppData\Local\Temp\ccG2cYBF.s:9685   .debug_str:00000000000004e1 .LASF282
C:\Users\stapi\AppData\Local\Temp\ccG2cYBF.s:7749   .debug_loc:0000000000000074 .LLST78
C:\Users\stapi\AppData\Local\Temp\ccG2cYBF.s:10071  .debug_str:0000000000000fa3 .LASF283
C:\Users\stapi\AppData\Local\Temp\ccG2cYBF.s:7774   .debug_loc:00000000000000ae .LLST79
C:\Users\stapi\AppData\Local\Temp\ccG2cYBF.s:10013  .debug_str:0000000000000e1f .LASF284
C:\Users\stapi\AppData\Local\Temp\ccG2cYBF.s:7799   .debug_loc:00000000000000e8 .LLST80
C:\Users\stapi\AppData\Local\Temp\ccG2cYBF.s:9695   .debug_str:0000000000000528 .LASF285
C:\Users\stapi\AppData\Local\Temp\ccG2cYBF.s:7846   .debug_loc:0000000000000157 .LLST81
C:\Users\stapi\AppData\Local\Temp\ccG2cYBF.s:1355   .text.mbedtls_debug_printf_ecdh:0000000000000008 .LBB24
C:\Users\stapi\AppData\Local\Temp\ccG2cYBF.s:7882   .debug_loc:00000000000001aa .LLST82
C:\Users\stapi\AppData\Local\Temp\ccG2cYBF.s:7918   .debug_loc:00000000000001fd .LLST83
C:\Users\stapi\AppData\Local\Temp\ccG2cYBF.s:7965   .debug_loc:000000000000026c .LLST84
C:\Users\stapi\AppData\Local\Temp\ccG2cYBF.s:7990   .debug_loc:00000000000002a6 .LLST85
C:\Users\stapi\AppData\Local\Temp\ccG2cYBF.s:8015   .debug_loc:00000000000002e0 .LLST86
C:\Users\stapi\AppData\Local\Temp\ccG2cYBF.s:8040   .debug_loc:000000000000031a .LLST87
C:\Users\stapi\AppData\Local\Temp\ccG2cYBF.s:8065   .debug_loc:0000000000000354 .LLST88
C:\Users\stapi\AppData\Local\Temp\ccG2cYBF.s:1374   .text.mbedtls_debug_printf_ecdh:000000000000002a .LVL131
C:\Users\stapi\AppData\Local\Temp\ccG2cYBF.s:1405   .text.mbedtls_debug_printf_ecdh:0000000000000054 .LVL138
C:\Users\stapi\AppData\Local\Temp\ccG2cYBF.s:9609   .debug_str:000000000000029a .LASF290
C:\Users\stapi\AppData\Local\Temp\ccG2cYBF.s:9755   .debug_str:00000000000006e3 .LASF287
C:\Users\stapi\AppData\Local\Temp\ccG2cYBF.s:998    .text.mbedtls_debug_print_crt:0000000000000000 .LFB392
C:\Users\stapi\AppData\Local\Temp\ccG2cYBF.s:1329   .text.mbedtls_debug_print_crt:00000000000001d4 .LFE392
C:\Users\stapi\AppData\Local\Temp\ccG2cYBF.s:8112   .debug_loc:00000000000003c3 .LLST55
C:\Users\stapi\AppData\Local\Temp\ccG2cYBF.s:8134   .debug_loc:00000000000003fa .LLST56
C:\Users\stapi\AppData\Local\Temp\ccG2cYBF.s:8156   .debug_loc:0000000000000431 .LLST57
C:\Users\stapi\AppData\Local\Temp\ccG2cYBF.s:8178   .debug_loc:0000000000000468 .LLST58
C:\Users\stapi\AppData\Local\Temp\ccG2cYBF.s:9803   .debug_str:00000000000008a5 .LASF288
C:\Users\stapi\AppData\Local\Temp\ccG2cYBF.s:8200   .debug_loc:000000000000049f .LLST59
C:\Users\stapi\AppData\Local\Temp\ccG2cYBF.s:8222   .debug_loc:00000000000004d9 .LLST60
C:\Users\stapi\AppData\Local\Temp\ccG2cYBF.s:8233   .debug_loc:00000000000004f7 .LLST61
C:\Users\stapi\AppData\Local\Temp\ccG2cYBF.s:1050   .text.mbedtls_debug_print_crt:0000000000000030 .LBB9
C:\Users\stapi\AppData\Local\Temp\ccG2cYBF.s:8249   .debug_loc:0000000000000521 .LLST62
C:\Users\stapi\AppData\Local\Temp\ccG2cYBF.s:8264   .debug_loc:0000000000000549 .LLST63
C:\Users\stapi\AppData\Local\Temp\ccG2cYBF.s:8289   .debug_loc:0000000000000586 .LLST64
C:\Users\stapi\AppData\Local\Temp\ccG2cYBF.s:8300   .debug_loc:00000000000005a4 .LLST65
C:\Users\stapi\AppData\Local\Temp\ccG2cYBF.s:8311   .debug_loc:00000000000005c2 .LLST66
C:\Users\stapi\AppData\Local\Temp\ccG2cYBF.s:8322   .debug_loc:00000000000005e0 .LLST67
C:\Users\stapi\AppData\Local\Temp\ccG2cYBF.s:1131   .text.mbedtls_debug_print_crt:00000000000000b2 .LVL106
C:\Users\stapi\AppData\Local\Temp\ccG2cYBF.s:1138   .text.mbedtls_debug_print_crt:00000000000000c0 .LVL108
C:\Users\stapi\AppData\Local\Temp\ccG2cYBF.s:1149   .text.mbedtls_debug_print_crt:00000000000000da .LVL109
C:\Users\stapi\AppData\Local\Temp\ccG2cYBF.s:1274   .text.mbedtls_debug_print_crt:0000000000000174 .LVL122
C:\Users\stapi\AppData\Local\Temp\ccG2cYBF.s:1291   .text.mbedtls_debug_print_crt:0000000000000196 .LVL123
C:\Users\stapi\AppData\Local\Temp\ccG2cYBF.s:1313   .text.mbedtls_debug_print_crt:00000000000001bc .LVL124
C:\Users\stapi\AppData\Local\Temp\ccG2cYBF.s:1323   .text.mbedtls_debug_print_crt:00000000000001d2 .LVL125
C:\Users\stapi\AppData\Local\Temp\ccG2cYBF.s:1097   .text.mbedtls_debug_print_crt:0000000000000090 .LBB13
C:\Users\stapi\AppData\Local\Temp\ccG2cYBF.s:8333   .debug_loc:00000000000005fe .LLST68
C:\Users\stapi\AppData\Local\Temp\ccG2cYBF.s:8358   .debug_loc:000000000000063b .LLST69
C:\Users\stapi\AppData\Local\Temp\ccG2cYBF.s:8369   .debug_loc:0000000000000659 .LLST70
C:\Users\stapi\AppData\Local\Temp\ccG2cYBF.s:8380   .debug_loc:0000000000000677 .LLST71
C:\Users\stapi\AppData\Local\Temp\ccG2cYBF.s:8391   .debug_loc:0000000000000695 .LLST72
C:\Users\stapi\AppData\Local\Temp\ccG2cYBF.s:8402   .debug_loc:00000000000006b3 .LLST73
C:\Users\stapi\AppData\Local\Temp\ccG2cYBF.s:8431   .debug_loc:0000000000000700 .LLST74
C:\Users\stapi\AppData\Local\Temp\ccG2cYBF.s:8460   .debug_loc:0000000000000746 .LLST75
C:\Users\stapi\AppData\Local\Temp\ccG2cYBF.s:1213   .text.mbedtls_debug_print_crt:000000000000010e .LVL117
C:\Users\stapi\AppData\Local\Temp\ccG2cYBF.s:1232   .text.mbedtls_debug_print_crt:0000000000000130 .LVL119
C:\Users\stapi\AppData\Local\Temp\ccG2cYBF.s:1079   .text.mbedtls_debug_print_crt:0000000000000064 .LVL100
C:\Users\stapi\AppData\Local\Temp\ccG2cYBF.s:1087   .text.mbedtls_debug_print_crt:0000000000000076 .LVL101
C:\Users\stapi\AppData\Local\Temp\ccG2cYBF.s:1095   .text.mbedtls_debug_print_crt:0000000000000090 .LVL102
C:\Users\stapi\AppData\Local\Temp\ccG2cYBF.s:9529   .debug_str:000000000000000c .LASF291
C:\Users\stapi\AppData\Local\Temp\ccG2cYBF.s:10067  .debug_str:0000000000000f8e .LASF292
C:\Users\stapi\AppData\Local\Temp\ccG2cYBF.s:9917   .debug_str:0000000000000b73 .LASF293
C:\Users\stapi\AppData\Local\Temp\ccG2cYBF.s:9913   .debug_str:0000000000000b54 .LASF295
C:\Users\stapi\AppData\Local\Temp\ccG2cYBF.s:9659   .debug_str:000000000000042b .LASF294
C:\Users\stapi\AppData\Local\Temp\ccG2cYBF.s:9899   .debug_str:0000000000000afe .LASF296
C:\Users\stapi\AppData\Local\Temp\ccG2cYBF.s:9885   .debug_str:0000000000000aab .LASF297
C:\Users\stapi\AppData\Local\Temp\ccG2cYBF.s:552    .text.mbedtls_debug_print_buf:0000000000000000 .LFB387
C:\Users\stapi\AppData\Local\Temp\ccG2cYBF.s:817    .text.mbedtls_debug_print_buf:0000000000000196 .LFE387
C:\Users\stapi\AppData\Local\Temp\ccG2cYBF.s:8467   .debug_loc:0000000000000759 .LLST28
C:\Users\stapi\AppData\Local\Temp\ccG2cYBF.s:8489   .debug_loc:0000000000000790 .LLST29
C:\Users\stapi\AppData\Local\Temp\ccG2cYBF.s:8511   .debug_loc:00000000000007c7 .LLST30
C:\Users\stapi\AppData\Local\Temp\ccG2cYBF.s:8533   .debug_loc:00000000000007fe .LLST31
C:\Users\stapi\AppData\Local\Temp\ccG2cYBF.s:8555   .debug_loc:0000000000000835 .LLST32
C:\Users\stapi\AppData\Local\Temp\ccG2cYBF.s:8573   .debug_loc:0000000000000861 .LLST33
C:\Users\stapi\AppData\Local\Temp\ccG2cYBF.s:8605   .debug_loc:00000000000008b5 .LLST34
C:\Users\stapi\AppData\Local\Temp\ccG2cYBF.s:8634   .debug_loc:00000000000008fa .LLST35
C:\Users\stapi\AppData\Local\Temp\ccG2cYBF.s:8650   .debug_loc:0000000000000924 .LLST36
C:\Users\stapi\AppData\Local\Temp\ccG2cYBF.s:612    .text.mbedtls_debug_print_buf:0000000000000046 .LVL58
C:\Users\stapi\AppData\Local\Temp\ccG2cYBF.s:620    .text.mbedtls_debug_print_buf:0000000000000058 .LVL59
C:\Users\stapi\AppData\Local\Temp\ccG2cYBF.s:677    .text.mbedtls_debug_print_buf:00000000000000b8 .LVL64
C:\Users\stapi\AppData\Local\Temp\ccG2cYBF.s:685    .text.mbedtls_debug_print_buf:00000000000000ca .LVL65
C:\Users\stapi\AppData\Local\Temp\ccG2cYBF.s:729    .text.mbedtls_debug_print_buf:0000000000000100 .LVL68
C:\Users\stapi\AppData\Local\Temp\ccG2cYBF.s:737    .text.mbedtls_debug_print_buf:0000000000000112 .LVL69
C:\Users\stapi\AppData\Local\Temp\ccG2cYBF.s:759    .text.mbedtls_debug_print_buf:000000000000013c .LVL71
C:\Users\stapi\AppData\Local\Temp\ccG2cYBF.s:775    .text.mbedtls_debug_print_buf:0000000000000160 .LVL73
C:\Users\stapi\AppData\Local\Temp\ccG2cYBF.s:807    .text.mbedtls_debug_print_buf:0000000000000190 .LVL78
C:\Users\stapi\AppData\Local\Temp\ccG2cYBF.s:9963   .debug_str:0000000000000cb1 .LASF298
C:\Users\stapi\AppData\Local\Temp\ccG2cYBF.s:459    .text.mbedtls_debug_print_ret:0000000000000000 .LFB386
C:\Users\stapi\AppData\Local\Temp\ccG2cYBF.s:532    .text.mbedtls_debug_print_ret:000000000000006c .LFE386
C:\Users\stapi\AppData\Local\Temp\ccG2cYBF.s:8675   .debug_loc:0000000000000965 .LLST22
C:\Users\stapi\AppData\Local\Temp\ccG2cYBF.s:8693   .debug_loc:0000000000000991 .LLST23
C:\Users\stapi\AppData\Local\Temp\ccG2cYBF.s:8711   .debug_loc:00000000000009bd .LLST24
C:\Users\stapi\AppData\Local\Temp\ccG2cYBF.s:8729   .debug_loc:00000000000009e9 .LLST25
C:\Users\stapi\AppData\Local\Temp\ccG2cYBF.s:8740   .debug_loc:0000000000000a07 .LLST26
C:\Users\stapi\AppData\Local\Temp\ccG2cYBF.s:8758   .debug_loc:0000000000000a33 .LLST27
C:\Users\stapi\AppData\Local\Temp\ccG2cYBF.s:511    .text.mbedtls_debug_print_ret:000000000000004e .LVL48
C:\Users\stapi\AppData\Local\Temp\ccG2cYBF.s:519    .text.mbedtls_debug_print_ret:0000000000000060 .LVL49
C:\Users\stapi\AppData\Local\Temp\ccG2cYBF.s:10037  .debug_str:0000000000000edb .LASF299
C:\Users\stapi\AppData\Local\Temp\ccG2cYBF.s:350    .text.mbedtls_debug_print_msg:0000000000000000 .LFB385
C:\Users\stapi\AppData\Local\Temp\ccG2cYBF.s:448    .text.mbedtls_debug_print_msg:0000000000000098 .LFE385
C:\Users\stapi\AppData\Local\Temp\ccG2cYBF.s:8776   .debug_loc:0000000000000a5f .LLST16
C:\Users\stapi\AppData\Local\Temp\ccG2cYBF.s:8794   .debug_loc:0000000000000a8b .LLST17
C:\Users\stapi\AppData\Local\Temp\ccG2cYBF.s:8812   .debug_loc:0000000000000ab7 .LLST18
C:\Users\stapi\AppData\Local\Temp\ccG2cYBF.s:8830   .debug_loc:0000000000000ae3 .LLST19
C:\Users\stapi\AppData\Local\Temp\ccG2cYBF.s:9543   .debug_str:0000000000000069 .LASF300
C:\Users\stapi\AppData\Local\Temp\ccG2cYBF.s:8848   .debug_loc:0000000000000b0f .LLST20
C:\Users\stapi\AppData\Local\Temp\ccG2cYBF.s:9923   .debug_str:0000000000000b9a .LASF301
C:\Users\stapi\AppData\Local\Temp\ccG2cYBF.s:8862   .debug_loc:0000000000000b30 .LLST21
C:\Users\stapi\AppData\Local\Temp\ccG2cYBF.s:407    .text.mbedtls_debug_print_msg:0000000000000056 .LVL38
C:\Users\stapi\AppData\Local\Temp\ccG2cYBF.s:431    .text.mbedtls_debug_print_msg:000000000000007e .LVL40
C:\Users\stapi\AppData\Local\Temp\ccG2cYBF.s:9641   .debug_str:00000000000003af .LASF316
C:\Users\stapi\AppData\Local\Temp\ccG2cYBF.s:13     .text.debug_send_line:0000000000000000 .LFB384
C:\Users\stapi\AppData\Local\Temp\ccG2cYBF.s:28     .text.debug_send_line:000000000000000a .LFE384
C:\Users\stapi\AppData\Local\Temp\ccG2cYBF.s:8869   .debug_loc:0000000000000b43 .LLST0
C:\Users\stapi\AppData\Local\Temp\ccG2cYBF.s:8883   .debug_loc:0000000000000b64 .LLST1
C:\Users\stapi\AppData\Local\Temp\ccG2cYBF.s:8897   .debug_loc:0000000000000b85 .LLST2
C:\Users\stapi\AppData\Local\Temp\ccG2cYBF.s:8911   .debug_loc:0000000000000ba6 .LLST3
C:\Users\stapi\AppData\Local\Temp\ccG2cYBF.s:8925   .debug_loc:0000000000000bc7 .LLST4
C:\Users\stapi\AppData\Local\Temp\ccG2cYBF.s:26     .text.debug_send_line:000000000000000a .LVL2
C:\Users\stapi\AppData\Local\Temp\ccG2cYBF.s:9809   .debug_str:00000000000008c3 .LASF302
C:\Users\stapi\AppData\Local\Temp\ccG2cYBF.s:332    .text.mbedtls_debug_set_threshold:0000000000000000 .LFB383
C:\Users\stapi\AppData\Local\Temp\ccG2cYBF.s:343    .text.mbedtls_debug_set_threshold:000000000000000a .LFE383
C:\Users\stapi\AppData\Local\Temp\ccG2cYBF.s:10095  .debug_str:0000000000001054 .LASF303
C:\Users\stapi\AppData\Local\Temp\ccG2cYBF.s:47     .text.mbedtls_debug_print_mpi.part.0:0000000000000000 .LFB395
C:\Users\stapi\AppData\Local\Temp\ccG2cYBF.s:325    .text.mbedtls_debug_print_mpi.part.0:000000000000016e .LFE395
C:\Users\stapi\AppData\Local\Temp\ccG2cYBF.s:8939   .debug_loc:0000000000000be8 .LLST5
C:\Users\stapi\AppData\Local\Temp\ccG2cYBF.s:8958   .debug_loc:0000000000000c1c .LLST6
C:\Users\stapi\AppData\Local\Temp\ccG2cYBF.s:8977   .debug_loc:0000000000000c50 .LLST7
C:\Users\stapi\AppData\Local\Temp\ccG2cYBF.s:8988   .debug_loc:0000000000000c6e .LLST8
C:\Users\stapi\AppData\Local\Temp\ccG2cYBF.s:8999   .debug_loc:0000000000000c8c .LLST9
C:\Users\stapi\AppData\Local\Temp\ccG2cYBF.s:9028   .debug_loc:0000000000000cd1 .LLST10
C:\Users\stapi\AppData\Local\Temp\ccG2cYBF.s:9039   .debug_loc:0000000000000cef .LLST11
C:\Users\stapi\AppData\Local\Temp\ccG2cYBF.s:9064   .debug_loc:0000000000000d30 .LLST12
C:\Users\stapi\AppData\Local\Temp\ccG2cYBF.s:9089   .debug_loc:0000000000000d71 .LLST13
C:\Users\stapi\AppData\Local\Temp\ccG2cYBF.s:9114   .debug_loc:0000000000000dab .LLST14
C:\Users\stapi\AppData\Local\Temp\ccG2cYBF.s:9125   .debug_loc:0000000000000dc9 .LLST15
C:\Users\stapi\AppData\Local\Temp\ccG2cYBF.s:130    .text.mbedtls_debug_print_mpi.part.0:0000000000000054 .LVL11
C:\Users\stapi\AppData\Local\Temp\ccG2cYBF.s:138    .text.mbedtls_debug_print_mpi.part.0:0000000000000066 .LVL12
C:\Users\stapi\AppData\Local\Temp\ccG2cYBF.s:166    .text.mbedtls_debug_print_mpi.part.0:0000000000000092 .LVL14
C:\Users\stapi\AppData\Local\Temp\ccG2cYBF.s:178    .text.mbedtls_debug_print_mpi.part.0:00000000000000ae .LVL16
C:\Users\stapi\AppData\Local\Temp\ccG2cYBF.s:186    .text.mbedtls_debug_print_mpi.part.0:00000000000000c0 .LVL17
C:\Users\stapi\AppData\Local\Temp\ccG2cYBF.s:269    .text.mbedtls_debug_print_mpi.part.0:0000000000000122 .LVL23
C:\Users\stapi\AppData\Local\Temp\ccG2cYBF.s:277    .text.mbedtls_debug_print_mpi.part.0:0000000000000134 .LVL24
C:\Users\stapi\AppData\Local\Temp\ccG2cYBF.s:301    .text.mbedtls_debug_print_mpi.part.0:000000000000015e .LVL26
C:\Users\stapi\AppData\Local\Temp\ccG2cYBF.s:824    .text.mbedtls_debug_print_mpi:0000000000000000 .LFB389
C:\Users\stapi\AppData\Local\Temp\ccG2cYBF.s:850    .text.mbedtls_debug_print_mpi:0000000000000028 .LFE389
C:\Users\stapi\AppData\Local\Temp\ccG2cYBF.s:9150   .debug_loc:0000000000000e0a .LLST37
C:\Users\stapi\AppData\Local\Temp\ccG2cYBF.s:9168   .debug_loc:0000000000000e36 .LLST38
C:\Users\stapi\AppData\Local\Temp\ccG2cYBF.s:9186   .debug_loc:0000000000000e62 .LLST39
C:\Users\stapi\AppData\Local\Temp\ccG2cYBF.s:9204   .debug_loc:0000000000000e8e .LLST40
C:\Users\stapi\AppData\Local\Temp\ccG2cYBF.s:9222   .debug_loc:0000000000000eba .LLST41
C:\Users\stapi\AppData\Local\Temp\ccG2cYBF.s:9240   .debug_loc:0000000000000ee6 .LLST42
C:\Users\stapi\AppData\Local\Temp\ccG2cYBF.s:846    .text.mbedtls_debug_print_mpi:0000000000000026 .LVL82
C:\Users\stapi\AppData\Local\Temp\ccG2cYBF.s:863    .text.mbedtls_debug_print_ecp.part.0:0000000000000000 .LFB396
C:\Users\stapi\AppData\Local\Temp\ccG2cYBF.s:943    .text.mbedtls_debug_print_ecp.part.0:000000000000007c .LFE396
C:\Users\stapi\AppData\Local\Temp\ccG2cYBF.s:9258   .debug_loc:0000000000000f12 .LLST43
C:\Users\stapi\AppData\Local\Temp\ccG2cYBF.s:9269   .debug_loc:0000000000000f30 .LLST44
C:\Users\stapi\AppData\Local\Temp\ccG2cYBF.s:9280   .debug_loc:0000000000000f4e .LLST45
C:\Users\stapi\AppData\Local\Temp\ccG2cYBF.s:9291   .debug_loc:0000000000000f6c .LLST46
C:\Users\stapi\AppData\Local\Temp\ccG2cYBF.s:9302   .debug_loc:0000000000000f8a .LLST47
C:\Users\stapi\AppData\Local\Temp\ccG2cYBF.s:9313   .debug_loc:0000000000000fa8 .LLST48
C:\Users\stapi\AppData\Local\Temp\ccG2cYBF.s:903    .text.mbedtls_debug_print_ecp.part.0:000000000000002e .LVL88
C:\Users\stapi\AppData\Local\Temp\ccG2cYBF.s:912    .text.mbedtls_debug_print_ecp.part.0:0000000000000042 .LVL89
C:\Users\stapi\AppData\Local\Temp\ccG2cYBF.s:920    .text.mbedtls_debug_print_ecp.part.0:000000000000005a .LVL90
C:\Users\stapi\AppData\Local\Temp\ccG2cYBF.s:929    .text.mbedtls_debug_print_ecp.part.0:0000000000000070 .LVL91
C:\Users\stapi\AppData\Local\Temp\ccG2cYBF.s:950    .text.mbedtls_debug_print_ecp:0000000000000000 .LFB388
C:\Users\stapi\AppData\Local\Temp\ccG2cYBF.s:972    .text.mbedtls_debug_print_ecp:0000000000000026 .LFE388
C:\Users\stapi\AppData\Local\Temp\ccG2cYBF.s:9324   .debug_loc:0000000000000fc6 .LLST49
C:\Users\stapi\AppData\Local\Temp\ccG2cYBF.s:9342   .debug_loc:0000000000000ff2 .LLST50
C:\Users\stapi\AppData\Local\Temp\ccG2cYBF.s:9360   .debug_loc:000000000000101e .LLST51
C:\Users\stapi\AppData\Local\Temp\ccG2cYBF.s:9378   .debug_loc:000000000000104a .LLST52
C:\Users\stapi\AppData\Local\Temp\ccG2cYBF.s:9396   .debug_loc:0000000000001076 .LLST53
C:\Users\stapi\AppData\Local\Temp\ccG2cYBF.s:9414   .debug_loc:00000000000010a2 .LLST54
C:\Users\stapi\AppData\Local\Temp\ccG2cYBF.s:968    .text.mbedtls_debug_print_ecp:0000000000000024 .LVL93
C:\Users\stapi\AppData\Local\Temp\ccG2cYBF.s:9873   .debug_str:0000000000000a64 .LASF306
C:\Users\stapi\AppData\Local\Temp\ccG2cYBF.s:9727   .debug_str:0000000000000608 .LASF308
C:\Users\stapi\AppData\Local\Temp\ccG2cYBF.s:9673   .debug_str:0000000000000488 .LASF304
C:\Users\stapi\AppData\Local\Temp\ccG2cYBF.s:9881   .debug_str:0000000000000a9c .LASF305
C:\Users\stapi\AppData\Local\Temp\ccG2cYBF.s:10119  .debug_str:00000000000010ee .LASF307
C:\Users\stapi\AppData\Local\Temp\ccG2cYBF.s:9617   .debug_str:00000000000002f0 .LASF309
C:\Users\stapi\AppData\Local\Temp\ccG2cYBF.s:9865   .debug_str:0000000000000a1c .LASF310
C:\Users\stapi\AppData\Local\Temp\ccG2cYBF.s:10153  .debug_str:00000000000012ab .LASF311
C:\Users\stapi\AppData\Local\Temp\ccG2cYBF.s:1349   .text.mbedtls_debug_printf_ecdh:0000000000000000 .LVL126
C:\Users\stapi\AppData\Local\Temp\ccG2cYBF.s:1384   .text.mbedtls_debug_printf_ecdh:0000000000000032 .LVL132
C:\Users\stapi\AppData\Local\Temp\ccG2cYBF.s:1368   .text.mbedtls_debug_printf_ecdh:000000000000001e .LVL129
C:\Users\stapi\AppData\Local\Temp\ccG2cYBF.s:1370   .text.mbedtls_debug_printf_ecdh:0000000000000022 .LVL130
C:\Users\stapi\AppData\Local\Temp\ccG2cYBF.s:1393   .text.mbedtls_debug_printf_ecdh:000000000000003a .LVL134
C:\Users\stapi\AppData\Local\Temp\ccG2cYBF.s:1396   .text.mbedtls_debug_printf_ecdh:0000000000000040 .LVL135
C:\Users\stapi\AppData\Local\Temp\ccG2cYBF.s:1402   .text.mbedtls_debug_printf_ecdh:0000000000000048 .LVL137
C:\Users\stapi\AppData\Local\Temp\ccG2cYBF.s:1366   .text.mbedtls_debug_printf_ecdh:000000000000001a .LVL128
C:\Users\stapi\AppData\Local\Temp\ccG2cYBF.s:1391   .text.mbedtls_debug_printf_ecdh:0000000000000036 .LVL133
C:\Users\stapi\AppData\Local\Temp\ccG2cYBF.s:1400   .text.mbedtls_debug_printf_ecdh:0000000000000044 .LVL136
C:\Users\stapi\AppData\Local\Temp\ccG2cYBF.s:1354   .text.mbedtls_debug_printf_ecdh:0000000000000008 .LVL127
C:\Users\stapi\AppData\Local\Temp\ccG2cYBF.s:1001   .text.mbedtls_debug_print_crt:0000000000000000 .LVL94
C:\Users\stapi\AppData\Local\Temp\ccG2cYBF.s:1064   .text.mbedtls_debug_print_crt:0000000000000048 .LVL98
C:\Users\stapi\AppData\Local\Temp\ccG2cYBF.s:1161   .text.mbedtls_debug_print_crt:00000000000000e2 .LVL111
C:\Users\stapi\AppData\Local\Temp\ccG2cYBF.s:1185   .text.mbedtls_debug_print_crt:00000000000000f0 .LVL113
C:\Users\stapi\AppData\Local\Temp\ccG2cYBF.s:1057   .text.mbedtls_debug_print_crt:000000000000003a .LVL97
C:\Users\stapi\AppData\Local\Temp\ccG2cYBF.s:1169   .text.mbedtls_debug_print_crt:00000000000000e8 .LVL112
C:\Users\stapi\AppData\Local\Temp\ccG2cYBF.s:1028   .text.mbedtls_debug_print_crt:0000000000000012 .LVL96
C:\Users\stapi\AppData\Local\Temp\ccG2cYBF.s:1020   .text.mbedtls_debug_print_crt:0000000000000008 .LVL95
C:\Users\stapi\AppData\Local\Temp\ccG2cYBF.s:1117   .text.mbedtls_debug_print_crt:00000000000000a2 .LVL105
C:\Users\stapi\AppData\Local\Temp\ccG2cYBF.s:1243   .text.mbedtls_debug_print_crt:0000000000000136 .LVL121
C:\Users\stapi\AppData\Local\Temp\ccG2cYBF.s:1136   .text.mbedtls_debug_print_crt:00000000000000b8 .LVL107
C:\Users\stapi\AppData\Local\Temp\ccG2cYBF.s:1105   .text.mbedtls_debug_print_crt:0000000000000094 .LVL103
C:\Users\stapi\AppData\Local\Temp\ccG2cYBF.s:1111   .text.mbedtls_debug_print_crt:000000000000009c .LVL104
C:\Users\stapi\AppData\Local\Temp\ccG2cYBF.s:1236   .text.mbedtls_debug_print_crt:0000000000000132 .LVL120
C:\Users\stapi\AppData\Local\Temp\ccG2cYBF.s:1211   .text.mbedtls_debug_print_crt:0000000000000106 .LVL116
C:\Users\stapi\AppData\Local\Temp\ccG2cYBF.s:1204   .text.mbedtls_debug_print_crt:00000000000000fe .LVL114
C:\Users\stapi\AppData\Local\Temp\ccG2cYBF.s:1221   .text.mbedtls_debug_print_crt:000000000000011a .LVL118
C:\Users\stapi\AppData\Local\Temp\ccG2cYBF.s:555    .text.mbedtls_debug_print_buf:0000000000000000 .LVL50
C:\Users\stapi\AppData\Local\Temp\ccG2cYBF.s:608    .text.mbedtls_debug_print_buf:000000000000003c .LVL57
C:\Users\stapi\AppData\Local\Temp\ccG2cYBF.s:707    .text.mbedtls_debug_print_buf:00000000000000d6 .LVL67
C:\Users\stapi\AppData\Local\Temp\ccG2cYBF.s:604    .text.mbedtls_debug_print_buf:0000000000000038 .LVL55
C:\Users\stapi\AppData\Local\Temp\ccG2cYBF.s:597    .text.mbedtls_debug_print_buf:000000000000002a .LVL53
C:\Users\stapi\AppData\Local\Temp\ccG2cYBF.s:602    .text.mbedtls_debug_print_buf:0000000000000034 .LVL54
C:\Users\stapi\AppData\Local\Temp\ccG2cYBF.s:606    .text.mbedtls_debug_print_buf:000000000000003a .LVL56
C:\Users\stapi\AppData\Local\Temp\ccG2cYBF.s:583    .text.mbedtls_debug_print_buf:0000000000000010 .LVL52
C:\Users\stapi\AppData\Local\Temp\ccG2cYBF.s:691    .text.mbedtls_debug_print_buf:00000000000000ce .LVL66
C:\Users\stapi\AppData\Local\Temp\ccG2cYBF.s:793    .text.mbedtls_debug_print_buf:000000000000017a .LVL75
C:\Users\stapi\AppData\Local\Temp\ccG2cYBF.s:801    .text.mbedtls_debug_print_buf:0000000000000184 .LVL77
C:\Users\stapi\AppData\Local\Temp\ccG2cYBF.s:653    .text.mbedtls_debug_print_buf:0000000000000084 .LVL62
C:\Users\stapi\AppData\Local\Temp\ccG2cYBF.s:632    .text.mbedtls_debug_print_buf:0000000000000066 .LVL60
C:\Users\stapi\AppData\Local\Temp\ccG2cYBF.s:643    .text.mbedtls_debug_print_buf:0000000000000078 .LVL61
C:\Users\stapi\AppData\Local\Temp\ccG2cYBF.s:667    .text.mbedtls_debug_print_buf:0000000000000098 .LVL63
C:\Users\stapi\AppData\Local\Temp\ccG2cYBF.s:574    .text.mbedtls_debug_print_buf:0000000000000008 .LVL51
C:\Users\stapi\AppData\Local\Temp\ccG2cYBF.s:748    .text.mbedtls_debug_print_buf:0000000000000120 .LVL70
C:\Users\stapi\AppData\Local\Temp\ccG2cYBF.s:462    .text.mbedtls_debug_print_ret:0000000000000000 .LVL41
C:\Users\stapi\AppData\Local\Temp\ccG2cYBF.s:509    .text.mbedtls_debug_print_ret:0000000000000046 .LVL47
C:\Users\stapi\AppData\Local\Temp\ccG2cYBF.s:507    .text.mbedtls_debug_print_ret:0000000000000044 .LVL46
C:\Users\stapi\AppData\Local\Temp\ccG2cYBF.s:502    .text.mbedtls_debug_print_ret:0000000000000036 .LVL45
C:\Users\stapi\AppData\Local\Temp\ccG2cYBF.s:475    .text.mbedtls_debug_print_ret:000000000000000c .LVL42
C:\Users\stapi\AppData\Local\Temp\ccG2cYBF.s:477    .text.mbedtls_debug_print_ret:000000000000000e .LVL43
C:\Users\stapi\AppData\Local\Temp\ccG2cYBF.s:480    .text.mbedtls_debug_print_ret:0000000000000010 .LVL44
C:\Users\stapi\AppData\Local\Temp\ccG2cYBF.s:353    .text.mbedtls_debug_print_msg:0000000000000000 .LVL33
C:\Users\stapi\AppData\Local\Temp\ccG2cYBF.s:401    .text.mbedtls_debug_print_msg:000000000000004c .LVL37
C:\Users\stapi\AppData\Local\Temp\ccG2cYBF.s:399    .text.mbedtls_debug_print_msg:000000000000004a .LVL36
C:\Users\stapi\AppData\Local\Temp\ccG2cYBF.s:393    .text.mbedtls_debug_print_msg:0000000000000044 .LVL34
C:\Users\stapi\AppData\Local\Temp\ccG2cYBF.s:396    .text.mbedtls_debug_print_msg:0000000000000046 .LVL35
C:\Users\stapi\AppData\Local\Temp\ccG2cYBF.s:429    .text.mbedtls_debug_print_msg:0000000000000076 .LVL39
C:\Users\stapi\AppData\Local\Temp\ccG2cYBF.s:17     .text.debug_send_line:0000000000000000 .LVL0
C:\Users\stapi\AppData\Local\Temp\ccG2cYBF.s:24     .text.debug_send_line:0000000000000008 .LVL1
C:\Users\stapi\AppData\Local\Temp\ccG2cYBF.s:50     .text.mbedtls_debug_print_mpi.part.0:0000000000000000 .LVL3
C:\Users\stapi\AppData\Local\Temp\ccG2cYBF.s:128    .text.mbedtls_debug_print_mpi.part.0:000000000000004c .LVL10
C:\Users\stapi\AppData\Local\Temp\ccG2cYBF.s:206    .text.mbedtls_debug_print_mpi.part.0:00000000000000cc .LVL18
C:\Users\stapi\AppData\Local\Temp\ccG2cYBF.s:220    .text.mbedtls_debug_print_mpi.part.0:00000000000000d8 .LVL20
C:\Users\stapi\AppData\Local\Temp\ccG2cYBF.s:102    .text.mbedtls_debug_print_mpi.part.0:000000000000002a .LVL8
C:\Users\stapi\AppData\Local\Temp\ccG2cYBF.s:86     .text.mbedtls_debug_print_mpi.part.0:000000000000001c .LVL6
C:\Users\stapi\AppData\Local\Temp\ccG2cYBF.s:83     .text.mbedtls_debug_print_mpi.part.0:000000000000001a .LVL5
C:\Users\stapi\AppData\Local\Temp\ccG2cYBF.s:73     .text.mbedtls_debug_print_mpi.part.0:000000000000000e .LVL4
C:\Users\stapi\AppData\Local\Temp\ccG2cYBF.s:93     .text.mbedtls_debug_print_mpi.part.0:0000000000000022 .LVL7
C:\Users\stapi\AppData\Local\Temp\ccG2cYBF.s:149    .text.mbedtls_debug_print_mpi.part.0:0000000000000070 .LVL13
C:\Users\stapi\AppData\Local\Temp\ccG2cYBF.s:241    .text.mbedtls_debug_print_mpi.part.0:00000000000000ee .LVL21
C:\Users\stapi\AppData\Local\Temp\ccG2cYBF.s:252    .text.mbedtls_debug_print_mpi.part.0:0000000000000100 .LVL22
C:\Users\stapi\AppData\Local\Temp\ccG2cYBF.s:311    .text.mbedtls_debug_print_mpi.part.0:0000000000000164 .LVL29
C:\Users\stapi\AppData\Local\Temp\ccG2cYBF.s:320    .text.mbedtls_debug_print_mpi.part.0:000000000000016a .LVL30
C:\Users\stapi\AppData\Local\Temp\ccG2cYBF.s:322    .text.mbedtls_debug_print_mpi.part.0:000000000000016c .LVL31
C:\Users\stapi\AppData\Local\Temp\ccG2cYBF.s:281    .text.mbedtls_debug_print_mpi.part.0:0000000000000136 .LVL25
C:\Users\stapi\AppData\Local\Temp\ccG2cYBF.s:827    .text.mbedtls_debug_print_mpi:0000000000000000 .LVL81
C:\Users\stapi\AppData\Local\Temp\ccG2cYBF.s:866    .text.mbedtls_debug_print_ecp.part.0:0000000000000000 .LVL83
C:\Users\stapi\AppData\Local\Temp\ccG2cYBF.s:897    .text.mbedtls_debug_print_ecp.part.0:0000000000000022 .LVL87
C:\Users\stapi\AppData\Local\Temp\ccG2cYBF.s:895    .text.mbedtls_debug_print_ecp.part.0:0000000000000020 .LVL86
C:\Users\stapi\AppData\Local\Temp\ccG2cYBF.s:885    .text.mbedtls_debug_print_ecp.part.0:0000000000000010 .LVL84
C:\Users\stapi\AppData\Local\Temp\ccG2cYBF.s:893    .text.mbedtls_debug_print_ecp.part.0:000000000000001c .LVL85
C:\Users\stapi\AppData\Local\Temp\ccG2cYBF.s:953    .text.mbedtls_debug_print_ecp:0000000000000000 .LVL92
C:\Users\stapi\AppData\Local\Temp\ccG2cYBF.s:1442   .debug_info:0000000000000000 .Ldebug_info0
C:\Users\stapi\AppData\Local\Temp\ccG2cYBF.s:1049   .text.mbedtls_debug_print_crt:0000000000000030 .LBB8
C:\Users\stapi\AppData\Local\Temp\ccG2cYBF.s:1158   .text.mbedtls_debug_print_crt:00000000000000de .LBE8
C:\Users\stapi\AppData\Local\Temp\ccG2cYBF.s:1188   .text.mbedtls_debug_print_crt:00000000000000f0 .LBB21
C:\Users\stapi\AppData\Local\Temp\ccG2cYBF.s:1327   .text.mbedtls_debug_print_crt:00000000000001d4 .LBE21
C:\Users\stapi\AppData\Local\Temp\ccG2cYBF.s:1067   .text.mbedtls_debug_print_crt:0000000000000048 .LBE9
C:\Users\stapi\AppData\Local\Temp\ccG2cYBF.s:1121   .text.mbedtls_debug_print_crt:00000000000000a2 .LBB18
C:\Users\stapi\AppData\Local\Temp\ccG2cYBF.s:1153   .text.mbedtls_debug_print_crt:00000000000000da .LBE18
C:\Users\stapi\AppData\Local\Temp\ccG2cYBF.s:1247   .text.mbedtls_debug_print_crt:0000000000000136 .LBB20
C:\Users\stapi\AppData\Local\Temp\ccG2cYBF.s:1326   .text.mbedtls_debug_print_crt:00000000000001d4 .LBE20
C:\Users\stapi\AppData\Local\Temp\ccG2cYBF.s:1119   .text.mbedtls_debug_print_crt:00000000000000a2 .LBE13
C:\Users\stapi\AppData\Local\Temp\ccG2cYBF.s:1189   .text.mbedtls_debug_print_crt:00000000000000f0 .LBB19
C:\Users\stapi\AppData\Local\Temp\ccG2cYBF.s:1246   .text.mbedtls_debug_print_crt:0000000000000136 .LBE19
C:\Users\stapi\AppData\Local\Temp\ccG2cYBF.s:1192   .text.mbedtls_debug_print_crt:00000000000000f0 .LBB15
C:\Users\stapi\AppData\Local\Temp\ccG2cYBF.s:1195   .text.mbedtls_debug_print_crt:00000000000000f4 .LBE15
C:\Users\stapi\AppData\Local\Temp\ccG2cYBF.s:1198   .text.mbedtls_debug_print_crt:00000000000000f8 .LBB16
C:\Users\stapi\AppData\Local\Temp\ccG2cYBF.s:1238   .text.mbedtls_debug_print_crt:0000000000000132 .LBE16
C:\Users\stapi\AppData\Local\Temp\ccG2cYBF.s:1378   .text.mbedtls_debug_printf_ecdh:000000000000002a .LBE24
C:\Users\stapi\AppData\Local\Temp\ccG2cYBF.s:1387   .text.mbedtls_debug_printf_ecdh:0000000000000032 .LBB27
C:\Users\stapi\AppData\Local\Temp\ccG2cYBF.s:1408   .text.mbedtls_debug_printf_ecdh:0000000000000054 .LBE27

UNDEFINED SYMBOLS
__riscv_save_12
snprintf
__riscv_restore_12
vsnprintf
__riscv_save_4
__riscv_restore_4
__riscv_save_6
__riscv_restore_6
mbedtls_x509_crt_info
memset
mbedtls_pk_debug
memcpy
__riscv_save_0
__riscv_restore_0
