   1              		.file	"mbedtls_patch.c"
   2              		.option nopic
   3              		.attribute arch, "rv32i2p0_m2p0_a2p0_f2p0_c2p0_b_p0p94"
   4              		.attribute unaligned_access, 0
   5              		.attribute stack_align, 16
   6              		.text
   7              	.Ltext0:
   8              		.cfi_sections	.debug_frame
   9              		.section	.text.mbedtls_dhm_init,"ax",@progbits
  10              		.align	1
  11              		.globl	mbedtls_dhm_init
  13              	mbedtls_dhm_init:
  14              	.LFB375:
  15              		.file 1 "C:/Users/stapi/OneDrive/Desktop/GD32VW553/GD32VW55X_Wifi_BLE_SDK/GD32VW55x_RELEASE_V1.0.2
   1:C:/Users/stapi/OneDrive/Desktop/GD32VW553/GD32VW55X_Wifi_BLE_SDK/GD32VW55x_RELEASE_V1.0.2/MSDK/mbedtls/mbedtls-2.17.0-ssl/library\mbedtls_patch.c **** /*!
   2:C:/Users/stapi/OneDrive/Desktop/GD32VW553/GD32VW55X_Wifi_BLE_SDK/GD32VW55x_RELEASE_V1.0.2/MSDK/mbedtls/mbedtls-2.17.0-ssl/library\mbedtls_patch.c ****     \file    mbedtls_patch.c
   3:C:/Users/stapi/OneDrive/Desktop/GD32VW553/GD32VW55X_Wifi_BLE_SDK/GD32VW55x_RELEASE_V1.0.2/MSDK/mbedtls/mbedtls-2.17.0-ssl/library\mbedtls_patch.c ****     \brief   mbedtls patch for GD32VW55x SDK
   4:C:/Users/stapi/OneDrive/Desktop/GD32VW553/GD32VW55X_Wifi_BLE_SDK/GD32VW55x_RELEASE_V1.0.2/MSDK/mbedtls/mbedtls-2.17.0-ssl/library\mbedtls_patch.c **** 
   5:C:/Users/stapi/OneDrive/Desktop/GD32VW553/GD32VW55X_Wifi_BLE_SDK/GD32VW55x_RELEASE_V1.0.2/MSDK/mbedtls/mbedtls-2.17.0-ssl/library\mbedtls_patch.c ****     \version 2023-8-8, V1.0.0, firmware for GD32VW55x
   6:C:/Users/stapi/OneDrive/Desktop/GD32VW553/GD32VW55X_Wifi_BLE_SDK/GD32VW55x_RELEASE_V1.0.2/MSDK/mbedtls/mbedtls-2.17.0-ssl/library\mbedtls_patch.c **** */
   7:C:/Users/stapi/OneDrive/Desktop/GD32VW553/GD32VW55X_Wifi_BLE_SDK/GD32VW55x_RELEASE_V1.0.2/MSDK/mbedtls/mbedtls-2.17.0-ssl/library\mbedtls_patch.c **** 
   8:C:/Users/stapi/OneDrive/Desktop/GD32VW553/GD32VW55X_Wifi_BLE_SDK/GD32VW55x_RELEASE_V1.0.2/MSDK/mbedtls/mbedtls-2.17.0-ssl/library\mbedtls_patch.c **** /*
   9:C:/Users/stapi/OneDrive/Desktop/GD32VW553/GD32VW55X_Wifi_BLE_SDK/GD32VW55x_RELEASE_V1.0.2/MSDK/mbedtls/mbedtls-2.17.0-ssl/library\mbedtls_patch.c ****     Copyright (c) 2023, GigaDevice Semiconductor Inc.
  10:C:/Users/stapi/OneDrive/Desktop/GD32VW553/GD32VW55X_Wifi_BLE_SDK/GD32VW55x_RELEASE_V1.0.2/MSDK/mbedtls/mbedtls-2.17.0-ssl/library\mbedtls_patch.c **** 
  11:C:/Users/stapi/OneDrive/Desktop/GD32VW553/GD32VW55X_Wifi_BLE_SDK/GD32VW55x_RELEASE_V1.0.2/MSDK/mbedtls/mbedtls-2.17.0-ssl/library\mbedtls_patch.c ****     Redistribution and use in source and binary forms, with or without modification,
  12:C:/Users/stapi/OneDrive/Desktop/GD32VW553/GD32VW55X_Wifi_BLE_SDK/GD32VW55x_RELEASE_V1.0.2/MSDK/mbedtls/mbedtls-2.17.0-ssl/library\mbedtls_patch.c **** are permitted provided that the following conditions are met:
  13:C:/Users/stapi/OneDrive/Desktop/GD32VW553/GD32VW55X_Wifi_BLE_SDK/GD32VW55x_RELEASE_V1.0.2/MSDK/mbedtls/mbedtls-2.17.0-ssl/library\mbedtls_patch.c **** 
  14:C:/Users/stapi/OneDrive/Desktop/GD32VW553/GD32VW55X_Wifi_BLE_SDK/GD32VW55x_RELEASE_V1.0.2/MSDK/mbedtls/mbedtls-2.17.0-ssl/library\mbedtls_patch.c ****     1. Redistributions of source code must retain the above copyright notice, this
  15:C:/Users/stapi/OneDrive/Desktop/GD32VW553/GD32VW55X_Wifi_BLE_SDK/GD32VW55x_RELEASE_V1.0.2/MSDK/mbedtls/mbedtls-2.17.0-ssl/library\mbedtls_patch.c ****        list of conditions and the following disclaimer.
  16:C:/Users/stapi/OneDrive/Desktop/GD32VW553/GD32VW55X_Wifi_BLE_SDK/GD32VW55x_RELEASE_V1.0.2/MSDK/mbedtls/mbedtls-2.17.0-ssl/library\mbedtls_patch.c ****     2. Redistributions in binary form must reproduce the above copyright notice,
  17:C:/Users/stapi/OneDrive/Desktop/GD32VW553/GD32VW55X_Wifi_BLE_SDK/GD32VW55x_RELEASE_V1.0.2/MSDK/mbedtls/mbedtls-2.17.0-ssl/library\mbedtls_patch.c ****        this list of conditions and the following disclaimer in the documentation
  18:C:/Users/stapi/OneDrive/Desktop/GD32VW553/GD32VW55X_Wifi_BLE_SDK/GD32VW55x_RELEASE_V1.0.2/MSDK/mbedtls/mbedtls-2.17.0-ssl/library\mbedtls_patch.c ****        and/or other materials provided with the distribution.
  19:C:/Users/stapi/OneDrive/Desktop/GD32VW553/GD32VW55X_Wifi_BLE_SDK/GD32VW55x_RELEASE_V1.0.2/MSDK/mbedtls/mbedtls-2.17.0-ssl/library\mbedtls_patch.c ****     3. Neither the name of the copyright holder nor the names of its contributors
  20:C:/Users/stapi/OneDrive/Desktop/GD32VW553/GD32VW55X_Wifi_BLE_SDK/GD32VW55x_RELEASE_V1.0.2/MSDK/mbedtls/mbedtls-2.17.0-ssl/library\mbedtls_patch.c ****        may be used to endorse or promote products derived from this software without
  21:C:/Users/stapi/OneDrive/Desktop/GD32VW553/GD32VW55X_Wifi_BLE_SDK/GD32VW55x_RELEASE_V1.0.2/MSDK/mbedtls/mbedtls-2.17.0-ssl/library\mbedtls_patch.c ****        specific prior written permission.
  22:C:/Users/stapi/OneDrive/Desktop/GD32VW553/GD32VW55X_Wifi_BLE_SDK/GD32VW55x_RELEASE_V1.0.2/MSDK/mbedtls/mbedtls-2.17.0-ssl/library\mbedtls_patch.c **** 
  23:C:/Users/stapi/OneDrive/Desktop/GD32VW553/GD32VW55X_Wifi_BLE_SDK/GD32VW55x_RELEASE_V1.0.2/MSDK/mbedtls/mbedtls-2.17.0-ssl/library\mbedtls_patch.c ****     THIS SOFTWARE IS PROVIDED BY THE COPYRIGHT HOLDERS AND CONTRIBUTORS "AS IS"
  24:C:/Users/stapi/OneDrive/Desktop/GD32VW553/GD32VW55X_Wifi_BLE_SDK/GD32VW55x_RELEASE_V1.0.2/MSDK/mbedtls/mbedtls-2.17.0-ssl/library\mbedtls_patch.c **** AND ANY EXPRESS OR IMPLIED WARRANTIES, INCLUDING, BUT NOT LIMITED TO, THE IMPLIED
  25:C:/Users/stapi/OneDrive/Desktop/GD32VW553/GD32VW55X_Wifi_BLE_SDK/GD32VW55x_RELEASE_V1.0.2/MSDK/mbedtls/mbedtls-2.17.0-ssl/library\mbedtls_patch.c **** WARRANTIES OF MERCHANTABILITY AND FITNESS FOR A PARTICULAR PURPOSE ARE DISCLAIMED.
  26:C:/Users/stapi/OneDrive/Desktop/GD32VW553/GD32VW55X_Wifi_BLE_SDK/GD32VW55x_RELEASE_V1.0.2/MSDK/mbedtls/mbedtls-2.17.0-ssl/library\mbedtls_patch.c **** IN NO EVENT SHALL THE COPYRIGHT HOLDER OR CONTRIBUTORS BE LIABLE FOR ANY DIRECT,
  27:C:/Users/stapi/OneDrive/Desktop/GD32VW553/GD32VW55X_Wifi_BLE_SDK/GD32VW55x_RELEASE_V1.0.2/MSDK/mbedtls/mbedtls-2.17.0-ssl/library\mbedtls_patch.c **** INDIRECT, INCIDENTAL, SPECIAL, EXEMPLARY, OR CONSEQUENTIAL DAMAGES (INCLUDING, BUT
  28:C:/Users/stapi/OneDrive/Desktop/GD32VW553/GD32VW55X_Wifi_BLE_SDK/GD32VW55x_RELEASE_V1.0.2/MSDK/mbedtls/mbedtls-2.17.0-ssl/library\mbedtls_patch.c **** NOT LIMITED TO, PROCUREMENT OF SUBSTITUTE GOODS OR SERVICES; LOSS OF USE, DATA, OR
  29:C:/Users/stapi/OneDrive/Desktop/GD32VW553/GD32VW55X_Wifi_BLE_SDK/GD32VW55x_RELEASE_V1.0.2/MSDK/mbedtls/mbedtls-2.17.0-ssl/library\mbedtls_patch.c **** PROFITS; OR BUSINESS INTERRUPTION) HOWEVER CAUSED AND ON ANY THEORY OF LIABILITY,
  30:C:/Users/stapi/OneDrive/Desktop/GD32VW553/GD32VW55X_Wifi_BLE_SDK/GD32VW55x_RELEASE_V1.0.2/MSDK/mbedtls/mbedtls-2.17.0-ssl/library\mbedtls_patch.c **** WHETHER IN CONTRACT, STRICT LIABILITY, OR TORT (INCLUDING NEGLIGENCE OR OTHERWISE)
  31:C:/Users/stapi/OneDrive/Desktop/GD32VW553/GD32VW55X_Wifi_BLE_SDK/GD32VW55x_RELEASE_V1.0.2/MSDK/mbedtls/mbedtls-2.17.0-ssl/library\mbedtls_patch.c **** ARISING IN ANY WAY OUT OF THE USE OF THIS SOFTWARE, EVEN IF ADVISED OF THE POSSIBILITY
  32:C:/Users/stapi/OneDrive/Desktop/GD32VW553/GD32VW55X_Wifi_BLE_SDK/GD32VW55x_RELEASE_V1.0.2/MSDK/mbedtls/mbedtls-2.17.0-ssl/library\mbedtls_patch.c **** OF SUCH DAMAGE.
  33:C:/Users/stapi/OneDrive/Desktop/GD32VW553/GD32VW55X_Wifi_BLE_SDK/GD32VW55x_RELEASE_V1.0.2/MSDK/mbedtls/mbedtls-2.17.0-ssl/library\mbedtls_patch.c **** */
  34:C:/Users/stapi/OneDrive/Desktop/GD32VW553/GD32VW55X_Wifi_BLE_SDK/GD32VW55x_RELEASE_V1.0.2/MSDK/mbedtls/mbedtls-2.17.0-ssl/library\mbedtls_patch.c **** 
  35:C:/Users/stapi/OneDrive/Desktop/GD32VW553/GD32VW55X_Wifi_BLE_SDK/GD32VW55x_RELEASE_V1.0.2/MSDK/mbedtls/mbedtls-2.17.0-ssl/library\mbedtls_patch.c **** #include "rom_export_mbedtls.h"
  36:C:/Users/stapi/OneDrive/Desktop/GD32VW553/GD32VW55X_Wifi_BLE_SDK/GD32VW55x_RELEASE_V1.0.2/MSDK/mbedtls/mbedtls-2.17.0-ssl/library\mbedtls_patch.c **** #include "mbedtls/platform_util.h"
  37:C:/Users/stapi/OneDrive/Desktop/GD32VW553/GD32VW55X_Wifi_BLE_SDK/GD32VW55x_RELEASE_V1.0.2/MSDK/mbedtls/mbedtls-2.17.0-ssl/library\mbedtls_patch.c **** 
  38:C:/Users/stapi/OneDrive/Desktop/GD32VW553/GD32VW55X_Wifi_BLE_SDK/GD32VW55x_RELEASE_V1.0.2/MSDK/mbedtls/mbedtls-2.17.0-ssl/library\mbedtls_patch.c **** #define DHM_VALIDATE( cond )        \
  39:C:/Users/stapi/OneDrive/Desktop/GD32VW553/GD32VW55X_Wifi_BLE_SDK/GD32VW55x_RELEASE_V1.0.2/MSDK/mbedtls/mbedtls-2.17.0-ssl/library\mbedtls_patch.c ****     MBEDTLS_INTERNAL_VALIDATE( cond )
  40:C:/Users/stapi/OneDrive/Desktop/GD32VW553/GD32VW55X_Wifi_BLE_SDK/GD32VW55x_RELEASE_V1.0.2/MSDK/mbedtls/mbedtls-2.17.0-ssl/library\mbedtls_patch.c **** 
  41:C:/Users/stapi/OneDrive/Desktop/GD32VW553/GD32VW55X_Wifi_BLE_SDK/GD32VW55x_RELEASE_V1.0.2/MSDK/mbedtls/mbedtls-2.17.0-ssl/library\mbedtls_patch.c **** void mbedtls_dhm_init( mbedtls_dhm_context *ctx )
  42:C:/Users/stapi/OneDrive/Desktop/GD32VW553/GD32VW55X_Wifi_BLE_SDK/GD32VW55x_RELEASE_V1.0.2/MSDK/mbedtls/mbedtls-2.17.0-ssl/library\mbedtls_patch.c **** {
  16              		.loc 1 42 1
  17              		.cfi_startproc
  18              	.LVL0:
  19 0000 17030000 		call	t0,__riscv_save_1
  19      E7020300 
  20              		.cfi_offset 8, -8
  21              		.cfi_offset 1, -4
  22              		.cfi_def_cfa_offset 16
  43:C:/Users/stapi/OneDrive/Desktop/GD32VW553/GD32VW55X_Wifi_BLE_SDK/GD32VW55x_RELEASE_V1.0.2/MSDK/mbedtls/mbedtls-2.17.0-ssl/library\mbedtls_patch.c ****     DHM_VALIDATE( ctx != NULL );
  23              		.loc 1 43 5
  24              		.loc 1 43 5
  25              		.loc 1 43 5
  44:C:/Users/stapi/OneDrive/Desktop/GD32VW553/GD32VW55X_Wifi_BLE_SDK/GD32VW55x_RELEASE_V1.0.2/MSDK/mbedtls/mbedtls-2.17.0-ssl/library\mbedtls_patch.c ****     memset( ctx, 0, sizeof( mbedtls_dhm_context ) );
  26              		.loc 1 44 5
  27 0008 1306C007 		li	a2,124
  28 000c 8145     		li	a1,0
  42:C:/Users/stapi/OneDrive/Desktop/GD32VW553/GD32VW55X_Wifi_BLE_SDK/GD32VW55x_RELEASE_V1.0.2/MSDK/mbedtls/mbedtls-2.17.0-ssl/library\mbedtls_patch.c ****     DHM_VALIDATE( ctx != NULL );
  29              		.loc 1 42 1 is_stmt 0
  30 000e 2A84     		mv	s0,a0
  31              		.loc 1 44 5
  32 0010 97000000 		call	memset
  32      E7800000 
  33              	.LVL1:
  45:C:/Users/stapi/OneDrive/Desktop/GD32VW553/GD32VW55X_Wifi_BLE_SDK/GD32VW55x_RELEASE_V1.0.2/MSDK/mbedtls/mbedtls-2.17.0-ssl/library\mbedtls_patch.c **** 
  46:C:/Users/stapi/OneDrive/Desktop/GD32VW553/GD32VW55X_Wifi_BLE_SDK/GD32VW55x_RELEASE_V1.0.2/MSDK/mbedtls/mbedtls-2.17.0-ssl/library\mbedtls_patch.c ****     mbedtls_mpi_init( &ctx->pX );
  34              		.loc 1 46 5 is_stmt 1
  35 0018 13050407 		addi	a0,s0,112
  36 001c 97000000 		call	mbedtls_mpi_init
  36      E7800000 
  37              	.LVL2:
  47:C:/Users/stapi/OneDrive/Desktop/GD32VW553/GD32VW55X_Wifi_BLE_SDK/GD32VW55x_RELEASE_V1.0.2/MSDK/mbedtls/mbedtls-2.17.0-ssl/library\mbedtls_patch.c ****     mbedtls_mpi_init( &ctx->Vf );
  38              		.loc 1 47 5
  39 0024 13054406 		addi	a0,s0,100
  40 0028 97000000 		call	mbedtls_mpi_init
  40      E7800000 
  41              	.LVL3:
  48:C:/Users/stapi/OneDrive/Desktop/GD32VW553/GD32VW55X_Wifi_BLE_SDK/GD32VW55x_RELEASE_V1.0.2/MSDK/mbedtls/mbedtls-2.17.0-ssl/library\mbedtls_patch.c ****     mbedtls_mpi_init( &ctx->Vi );
  42              		.loc 1 48 5
  43 0030 13058405 		addi	a0,s0,88
  44 0034 97000000 		call	mbedtls_mpi_init
  44      E7800000 
  45              	.LVL4:
  49:C:/Users/stapi/OneDrive/Desktop/GD32VW553/GD32VW55X_Wifi_BLE_SDK/GD32VW55x_RELEASE_V1.0.2/MSDK/mbedtls/mbedtls-2.17.0-ssl/library\mbedtls_patch.c ****     mbedtls_mpi_init( &ctx->RP );
  46              		.loc 1 49 5
  47 003c 1305C404 		addi	a0,s0,76
  48 0040 97000000 		call	mbedtls_mpi_init
  48      E7800000 
  49              	.LVL5:
  50:C:/Users/stapi/OneDrive/Desktop/GD32VW553/GD32VW55X_Wifi_BLE_SDK/GD32VW55x_RELEASE_V1.0.2/MSDK/mbedtls/mbedtls-2.17.0-ssl/library\mbedtls_patch.c ****     mbedtls_mpi_init( &ctx->K  );
  50              		.loc 1 50 5
  51 0048 13050404 		addi	a0,s0,64
  52 004c 97000000 		call	mbedtls_mpi_init
  52      E7800000 
  53              	.LVL6:
  51:C:/Users/stapi/OneDrive/Desktop/GD32VW553/GD32VW55X_Wifi_BLE_SDK/GD32VW55x_RELEASE_V1.0.2/MSDK/mbedtls/mbedtls-2.17.0-ssl/library\mbedtls_patch.c ****     mbedtls_mpi_init( &ctx->GY );
  54              		.loc 1 51 5
  55 0054 13054403 		addi	a0,s0,52
  56 0058 97000000 		call	mbedtls_mpi_init
  56      E7800000 
  57              	.LVL7:
  52:C:/Users/stapi/OneDrive/Desktop/GD32VW553/GD32VW55X_Wifi_BLE_SDK/GD32VW55x_RELEASE_V1.0.2/MSDK/mbedtls/mbedtls-2.17.0-ssl/library\mbedtls_patch.c ****     mbedtls_mpi_init( &ctx->GX );
  58              		.loc 1 52 5
  59 0060 13058402 		addi	a0,s0,40
  60 0064 97000000 		call	mbedtls_mpi_init
  60      E7800000 
  61              	.LVL8:
  53:C:/Users/stapi/OneDrive/Desktop/GD32VW553/GD32VW55X_Wifi_BLE_SDK/GD32VW55x_RELEASE_V1.0.2/MSDK/mbedtls/mbedtls-2.17.0-ssl/library\mbedtls_patch.c ****     mbedtls_mpi_init( &ctx->X  );
  62              		.loc 1 53 5
  63 006c 1305C401 		addi	a0,s0,28
  64 0070 97000000 		call	mbedtls_mpi_init
  64      E7800000 
  65              	.LVL9:
  54:C:/Users/stapi/OneDrive/Desktop/GD32VW553/GD32VW55X_Wifi_BLE_SDK/GD32VW55x_RELEASE_V1.0.2/MSDK/mbedtls/mbedtls-2.17.0-ssl/library\mbedtls_patch.c ****     mbedtls_mpi_init( &ctx->G  );
  66              		.loc 1 54 5
  67 0078 13050401 		addi	a0,s0,16
  68 007c 97000000 		call	mbedtls_mpi_init
  68      E7800000 
  69              	.LVL10:
  55:C:/Users/stapi/OneDrive/Desktop/GD32VW553/GD32VW55X_Wifi_BLE_SDK/GD32VW55x_RELEASE_V1.0.2/MSDK/mbedtls/mbedtls-2.17.0-ssl/library\mbedtls_patch.c ****     mbedtls_mpi_init( &ctx->P  );
  70              		.loc 1 55 5
  71 0084 13054400 		addi	a0,s0,4
  72 0088 97000000 		call	mbedtls_mpi_init
  72      E7800000 
  73              	.LVL11:
  56:C:/Users/stapi/OneDrive/Desktop/GD32VW553/GD32VW55X_Wifi_BLE_SDK/GD32VW55x_RELEASE_V1.0.2/MSDK/mbedtls/mbedtls-2.17.0-ssl/library\mbedtls_patch.c **** }
  74              		.loc 1 56 1 is_stmt 0
  75 0090 17030000 		tail	__riscv_restore_1
  75      67000300 
  76              		.cfi_restore 8
  77              		.cfi_restore 1
  78              		.cfi_def_cfa_offset 0
  79              		.cfi_endproc
  80              	.LFE375:
  82              		.text
  83              	.Letext0:
  84              		.file 2 "c:\\users\\stapi\\onedrive\\desktop\\gd32vw553\\embeddedbuilder_v1.4.7.26843\\tools\\nucl
  85              		.file 3 "c:\\users\\stapi\\onedrive\\desktop\\gd32vw553\\embeddedbuilder_v1.4.7.26843\\tools\\nucl
  86              		.file 4 "c:\\users\\stapi\\onedrive\\desktop\\gd32vw553\\embeddedbuilder_v1.4.7.26843\\tools\\nucl
  87              		.file 5 "..\\..\\..\\..\\..\\ROM-EXPORT\\mbedtls-2.17.0-rom\\include/mbedtls/bignum.h"
  88              		.file 6 "..\\..\\..\\..\\..\\ROM-EXPORT\\mbedtls-2.17.0-rom\\include/mbedtls/dhm.h"
  89              		.file 7 "<built-in>"
DEFINED SYMBOLS
                            *ABS*:0000000000000000 mbedtls_patch.c
C:\Users\stapi\AppData\Local\Temp\ccLjoOha.s:13     .text.mbedtls_dhm_init:0000000000000000 mbedtls_dhm_init
C:\Users\stapi\AppData\Local\Temp\ccLjoOha.s:17     .text.mbedtls_dhm_init:0000000000000000 .L0 
C:\Users\stapi\AppData\Local\Temp\ccLjoOha.s:19     .text.mbedtls_dhm_init:0000000000000000 .L0 
C:\Users\stapi\AppData\Local\Temp\ccLjoOha.s:20     .text.mbedtls_dhm_init:0000000000000008 .L0 
C:\Users\stapi\AppData\Local\Temp\ccLjoOha.s:21     .text.mbedtls_dhm_init:0000000000000008 .L0 
C:\Users\stapi\AppData\Local\Temp\ccLjoOha.s:22     .text.mbedtls_dhm_init:0000000000000008 .L0 
C:\Users\stapi\AppData\Local\Temp\ccLjoOha.s:24     .text.mbedtls_dhm_init:0000000000000008 .L0 
C:\Users\stapi\AppData\Local\Temp\ccLjoOha.s:25     .text.mbedtls_dhm_init:0000000000000008 .L0 
C:\Users\stapi\AppData\Local\Temp\ccLjoOha.s:26     .text.mbedtls_dhm_init:0000000000000008 .L0 
C:\Users\stapi\AppData\Local\Temp\ccLjoOha.s:27     .text.mbedtls_dhm_init:0000000000000008 .L0 
C:\Users\stapi\AppData\Local\Temp\ccLjoOha.s:30     .text.mbedtls_dhm_init:000000000000000e .L0 
C:\Users\stapi\AppData\Local\Temp\ccLjoOha.s:32     .text.mbedtls_dhm_init:0000000000000010 .L0 
C:\Users\stapi\AppData\Local\Temp\ccLjoOha.s:35     .text.mbedtls_dhm_init:0000000000000018 .L0 
C:\Users\stapi\AppData\Local\Temp\ccLjoOha.s:39     .text.mbedtls_dhm_init:0000000000000024 .L0 
C:\Users\stapi\AppData\Local\Temp\ccLjoOha.s:43     .text.mbedtls_dhm_init:0000000000000030 .L0 
C:\Users\stapi\AppData\Local\Temp\ccLjoOha.s:47     .text.mbedtls_dhm_init:000000000000003c .L0 
C:\Users\stapi\AppData\Local\Temp\ccLjoOha.s:51     .text.mbedtls_dhm_init:0000000000000048 .L0 
C:\Users\stapi\AppData\Local\Temp\ccLjoOha.s:55     .text.mbedtls_dhm_init:0000000000000054 .L0 
C:\Users\stapi\AppData\Local\Temp\ccLjoOha.s:59     .text.mbedtls_dhm_init:0000000000000060 .L0 
C:\Users\stapi\AppData\Local\Temp\ccLjoOha.s:63     .text.mbedtls_dhm_init:000000000000006c .L0 
C:\Users\stapi\AppData\Local\Temp\ccLjoOha.s:67     .text.mbedtls_dhm_init:0000000000000078 .L0 
C:\Users\stapi\AppData\Local\Temp\ccLjoOha.s:71     .text.mbedtls_dhm_init:0000000000000084 .L0 
C:\Users\stapi\AppData\Local\Temp\ccLjoOha.s:75     .text.mbedtls_dhm_init:0000000000000090 .L0 
C:\Users\stapi\AppData\Local\Temp\ccLjoOha.s:76     .text.mbedtls_dhm_init:0000000000000098 .L0 
C:\Users\stapi\AppData\Local\Temp\ccLjoOha.s:77     .text.mbedtls_dhm_init:0000000000000098 .L0 
C:\Users\stapi\AppData\Local\Temp\ccLjoOha.s:78     .text.mbedtls_dhm_init:0000000000000098 .L0 
C:\Users\stapi\AppData\Local\Temp\ccLjoOha.s:79     .text.mbedtls_dhm_init:0000000000000098 .L0 
C:\Users\stapi\AppData\Local\Temp\ccLjoOha.s:82     .text.mbedtls_dhm_init:0000000000000098 .L0 
                     .debug_frame:0000000000000000 .L0 
C:\Users\stapi\AppData\Local\Temp\ccLjoOha.s:466    .debug_abbrev:0000000000000000 .Ldebug_abbrev0
C:\Users\stapi\AppData\Local\Temp\ccLjoOha.s:726    .debug_str:000000000000015f .LASF16
C:\Users\stapi\AppData\Local\Temp\ccLjoOha.s:714    .debug_str:0000000000000013 .LASF17
C:\Users\stapi\AppData\Local\Temp\ccLjoOha.s:722    .debug_str:00000000000000d0 .LASF18
C:\Users\stapi\AppData\Local\Temp\ccLjoOha.s:702    .debug_ranges:0000000000000000 .Ldebug_ranges0
C:\Users\stapi\AppData\Local\Temp\ccLjoOha.s:708    .debug_line:0000000000000000 .Ldebug_line0
C:\Users\stapi\AppData\Local\Temp\ccLjoOha.s:710    .debug_str:0000000000000000 .LASF6
C:\Users\stapi\AppData\Local\Temp\ccLjoOha.s:740    .debug_str:00000000000002a9 .LASF0
C:\Users\stapi\AppData\Local\Temp\ccLjoOha.s:718    .debug_str:00000000000000b6 .LASF1
C:\Users\stapi\AppData\Local\Temp\ccLjoOha.s:720    .debug_str:00000000000000c2 .LASF2
C:\Users\stapi\AppData\Local\Temp\ccLjoOha.s:750    .debug_str:00000000000002ee .LASF3
C:\Users\stapi\AppData\Local\Temp\ccLjoOha.s:728    .debug_str:0000000000000258 .LASF4
C:\Users\stapi\AppData\Local\Temp\ccLjoOha.s:752    .debug_str:00000000000002f8 .LASF5
C:\Users\stapi\AppData\Local\Temp\ccLjoOha.s:738    .debug_str:000000000000029e .LASF7
C:\Users\stapi\AppData\Local\Temp\ccLjoOha.s:734    .debug_str:000000000000027b .LASF8
C:\Users\stapi\AppData\Local\Temp\ccLjoOha.s:746    .debug_str:00000000000002cc .LASF9
C:\Users\stapi\AppData\Local\Temp\ccLjoOha.s:754    .debug_str:0000000000000301 .LASF10
C:\Users\stapi\AppData\Local\Temp\ccLjoOha.s:730    .debug_str:000000000000026b .LASF11
C:\Users\stapi\AppData\Local\Temp\ccLjoOha.s:742    .debug_str:00000000000002b6 .LASF12
C:\Users\stapi\AppData\Local\Temp\ccLjoOha.s:744    .debug_str:00000000000002bb .LASF13
C:\Users\stapi\AppData\Local\Temp\ccLjoOha.s:712    .debug_str:0000000000000007 .LASF14
C:\Users\stapi\AppData\Local\Temp\ccLjoOha.s:748    .debug_str:00000000000002da .LASF15
C:\Users\stapi\AppData\Local\Temp\ccLjoOha.s:736    .debug_str:000000000000028d .LASF19
C:\Users\stapi\AppData\Local\Temp\ccLjoOha.s:14     .text.mbedtls_dhm_init:0000000000000000 .LFB375
C:\Users\stapi\AppData\Local\Temp\ccLjoOha.s:80     .text.mbedtls_dhm_init:0000000000000098 .LFE375
C:\Users\stapi\AppData\Local\Temp\ccLjoOha.s:678    .debug_loc:0000000000000000 .LLST0
C:\Users\stapi\AppData\Local\Temp\ccLjoOha.s:33     .text.mbedtls_dhm_init:0000000000000018 .LVL1
C:\Users\stapi\AppData\Local\Temp\ccLjoOha.s:37     .text.mbedtls_dhm_init:0000000000000024 .LVL2
C:\Users\stapi\AppData\Local\Temp\ccLjoOha.s:41     .text.mbedtls_dhm_init:0000000000000030 .LVL3
C:\Users\stapi\AppData\Local\Temp\ccLjoOha.s:45     .text.mbedtls_dhm_init:000000000000003c .LVL4
C:\Users\stapi\AppData\Local\Temp\ccLjoOha.s:49     .text.mbedtls_dhm_init:0000000000000048 .LVL5
C:\Users\stapi\AppData\Local\Temp\ccLjoOha.s:53     .text.mbedtls_dhm_init:0000000000000054 .LVL6
C:\Users\stapi\AppData\Local\Temp\ccLjoOha.s:57     .text.mbedtls_dhm_init:0000000000000060 .LVL7
C:\Users\stapi\AppData\Local\Temp\ccLjoOha.s:61     .text.mbedtls_dhm_init:000000000000006c .LVL8
C:\Users\stapi\AppData\Local\Temp\ccLjoOha.s:65     .text.mbedtls_dhm_init:0000000000000078 .LVL9
C:\Users\stapi\AppData\Local\Temp\ccLjoOha.s:69     .text.mbedtls_dhm_init:0000000000000084 .LVL10
C:\Users\stapi\AppData\Local\Temp\ccLjoOha.s:73     .text.mbedtls_dhm_init:0000000000000090 .LVL11
C:\Users\stapi\AppData\Local\Temp\ccLjoOha.s:732    .debug_str:0000000000000274 .LASF20
C:\Users\stapi\AppData\Local\Temp\ccLjoOha.s:724    .debug_str:000000000000014e .LASF21
C:\Users\stapi\AppData\Local\Temp\ccLjoOha.s:716    .debug_str:00000000000000a5 .LASF22
C:\Users\stapi\AppData\Local\Temp\ccLjoOha.s:18     .text.mbedtls_dhm_init:0000000000000000 .LVL0
C:\Users\stapi\AppData\Local\Temp\ccLjoOha.s:91     .debug_info:0000000000000000 .Ldebug_info0

UNDEFINED SYMBOLS
__riscv_save_1
memset
mbedtls_mpi_init
__riscv_restore_1
