   1              		.file	"net_sockets.c"
   2              		.option nopic
   3              		.attribute arch, "rv32i2p0_m2p0_a2p0_f2p0_c2p0_b_p0p94"
   4              		.attribute unaligned_access, 0
   5              		.attribute stack_align, 16
   6              		.text
   7              	.Ltext0:
   8              		.cfi_sections	.debug_frame
   9              		.section	.text.net_would_block.isra.0,"ax",@progbits
  10              		.align	1
  12              	net_would_block.isra.0:
  13              	.LFB398:
  14              		.file 1 "C:/Users/stapi/OneDrive/Desktop/GD32VW553/GD32VW55X_Wifi_BLE_SDK/GD32VW55x_RELEASE_V1.0.2
   1:C:/Users/stapi/OneDrive/Desktop/GD32VW553/GD32VW55X_Wifi_BLE_SDK/GD32VW55x_RELEASE_V1.0.2/MSDK/mbedtls/mbedtls-2.17.0-ssl/library\net_sockets.c **** /*
   2:C:/Users/stapi/OneDrive/Desktop/GD32VW553/GD32VW55X_Wifi_BLE_SDK/GD32VW55x_RELEASE_V1.0.2/MSDK/mbedtls/mbedtls-2.17.0-ssl/library\net_sockets.c ****  *  TCP/IP or UDP/IP networking functions
   3:C:/Users/stapi/OneDrive/Desktop/GD32VW553/GD32VW55X_Wifi_BLE_SDK/GD32VW55x_RELEASE_V1.0.2/MSDK/mbedtls/mbedtls-2.17.0-ssl/library\net_sockets.c ****  *
   4:C:/Users/stapi/OneDrive/Desktop/GD32VW553/GD32VW55X_Wifi_BLE_SDK/GD32VW55x_RELEASE_V1.0.2/MSDK/mbedtls/mbedtls-2.17.0-ssl/library\net_sockets.c ****  *  Copyright (C) 2006-2015, ARM Limited, All Rights Reserved
   5:C:/Users/stapi/OneDrive/Desktop/GD32VW553/GD32VW55X_Wifi_BLE_SDK/GD32VW55x_RELEASE_V1.0.2/MSDK/mbedtls/mbedtls-2.17.0-ssl/library\net_sockets.c ****  *  SPDX-License-Identifier: Apache-2.0
   6:C:/Users/stapi/OneDrive/Desktop/GD32VW553/GD32VW55X_Wifi_BLE_SDK/GD32VW55x_RELEASE_V1.0.2/MSDK/mbedtls/mbedtls-2.17.0-ssl/library\net_sockets.c ****  *
   7:C:/Users/stapi/OneDrive/Desktop/GD32VW553/GD32VW55X_Wifi_BLE_SDK/GD32VW55x_RELEASE_V1.0.2/MSDK/mbedtls/mbedtls-2.17.0-ssl/library\net_sockets.c ****  *  Licensed under the Apache License, Version 2.0 (the "License"); you may
   8:C:/Users/stapi/OneDrive/Desktop/GD32VW553/GD32VW55X_Wifi_BLE_SDK/GD32VW55x_RELEASE_V1.0.2/MSDK/mbedtls/mbedtls-2.17.0-ssl/library\net_sockets.c ****  *  not use this file except in compliance with the License.
   9:C:/Users/stapi/OneDrive/Desktop/GD32VW553/GD32VW55X_Wifi_BLE_SDK/GD32VW55x_RELEASE_V1.0.2/MSDK/mbedtls/mbedtls-2.17.0-ssl/library\net_sockets.c ****  *  You may obtain a copy of the License at
  10:C:/Users/stapi/OneDrive/Desktop/GD32VW553/GD32VW55X_Wifi_BLE_SDK/GD32VW55x_RELEASE_V1.0.2/MSDK/mbedtls/mbedtls-2.17.0-ssl/library\net_sockets.c ****  *
  11:C:/Users/stapi/OneDrive/Desktop/GD32VW553/GD32VW55X_Wifi_BLE_SDK/GD32VW55x_RELEASE_V1.0.2/MSDK/mbedtls/mbedtls-2.17.0-ssl/library\net_sockets.c ****  *  http://www.apache.org/licenses/LICENSE-2.0
  12:C:/Users/stapi/OneDrive/Desktop/GD32VW553/GD32VW55X_Wifi_BLE_SDK/GD32VW55x_RELEASE_V1.0.2/MSDK/mbedtls/mbedtls-2.17.0-ssl/library\net_sockets.c ****  *
  13:C:/Users/stapi/OneDrive/Desktop/GD32VW553/GD32VW55X_Wifi_BLE_SDK/GD32VW55x_RELEASE_V1.0.2/MSDK/mbedtls/mbedtls-2.17.0-ssl/library\net_sockets.c ****  *  Unless required by applicable law or agreed to in writing, software
  14:C:/Users/stapi/OneDrive/Desktop/GD32VW553/GD32VW55X_Wifi_BLE_SDK/GD32VW55x_RELEASE_V1.0.2/MSDK/mbedtls/mbedtls-2.17.0-ssl/library\net_sockets.c ****  *  distributed under the License is distributed on an "AS IS" BASIS, WITHOUT
  15:C:/Users/stapi/OneDrive/Desktop/GD32VW553/GD32VW55X_Wifi_BLE_SDK/GD32VW55x_RELEASE_V1.0.2/MSDK/mbedtls/mbedtls-2.17.0-ssl/library\net_sockets.c ****  *  WARRANTIES OR CONDITIONS OF ANY KIND, either express or implied.
  16:C:/Users/stapi/OneDrive/Desktop/GD32VW553/GD32VW55X_Wifi_BLE_SDK/GD32VW55x_RELEASE_V1.0.2/MSDK/mbedtls/mbedtls-2.17.0-ssl/library\net_sockets.c ****  *  See the License for the specific language governing permissions and
  17:C:/Users/stapi/OneDrive/Desktop/GD32VW553/GD32VW55X_Wifi_BLE_SDK/GD32VW55x_RELEASE_V1.0.2/MSDK/mbedtls/mbedtls-2.17.0-ssl/library\net_sockets.c ****  *  limitations under the License.
  18:C:/Users/stapi/OneDrive/Desktop/GD32VW553/GD32VW55X_Wifi_BLE_SDK/GD32VW55x_RELEASE_V1.0.2/MSDK/mbedtls/mbedtls-2.17.0-ssl/library\net_sockets.c ****  *
  19:C:/Users/stapi/OneDrive/Desktop/GD32VW553/GD32VW55X_Wifi_BLE_SDK/GD32VW55x_RELEASE_V1.0.2/MSDK/mbedtls/mbedtls-2.17.0-ssl/library\net_sockets.c ****  *  This file is part of mbed TLS (https://tls.mbed.org)
  20:C:/Users/stapi/OneDrive/Desktop/GD32VW553/GD32VW55X_Wifi_BLE_SDK/GD32VW55x_RELEASE_V1.0.2/MSDK/mbedtls/mbedtls-2.17.0-ssl/library\net_sockets.c ****  */
  21:C:/Users/stapi/OneDrive/Desktop/GD32VW553/GD32VW55X_Wifi_BLE_SDK/GD32VW55x_RELEASE_V1.0.2/MSDK/mbedtls/mbedtls-2.17.0-ssl/library\net_sockets.c **** 
  22:C:/Users/stapi/OneDrive/Desktop/GD32VW553/GD32VW55X_Wifi_BLE_SDK/GD32VW55x_RELEASE_V1.0.2/MSDK/mbedtls/mbedtls-2.17.0-ssl/library\net_sockets.c **** /* Enable definition of getaddrinfo() even when compiling with -std=c99. Must
  23:C:/Users/stapi/OneDrive/Desktop/GD32VW553/GD32VW55X_Wifi_BLE_SDK/GD32VW55x_RELEASE_V1.0.2/MSDK/mbedtls/mbedtls-2.17.0-ssl/library\net_sockets.c ****  * be set before config.h, which pulls in glibc's features.h indirectly.
  24:C:/Users/stapi/OneDrive/Desktop/GD32VW553/GD32VW55X_Wifi_BLE_SDK/GD32VW55x_RELEASE_V1.0.2/MSDK/mbedtls/mbedtls-2.17.0-ssl/library\net_sockets.c ****  * Harmless on other platforms. */
  25:C:/Users/stapi/OneDrive/Desktop/GD32VW553/GD32VW55X_Wifi_BLE_SDK/GD32VW55x_RELEASE_V1.0.2/MSDK/mbedtls/mbedtls-2.17.0-ssl/library\net_sockets.c **** #define _POSIX_C_SOURCE 200112L
  26:C:/Users/stapi/OneDrive/Desktop/GD32VW553/GD32VW55X_Wifi_BLE_SDK/GD32VW55x_RELEASE_V1.0.2/MSDK/mbedtls/mbedtls-2.17.0-ssl/library\net_sockets.c **** 
  27:C:/Users/stapi/OneDrive/Desktop/GD32VW553/GD32VW55X_Wifi_BLE_SDK/GD32VW55x_RELEASE_V1.0.2/MSDK/mbedtls/mbedtls-2.17.0-ssl/library\net_sockets.c **** #if !defined(MBEDTLS_CONFIG_FILE)
  28:C:/Users/stapi/OneDrive/Desktop/GD32VW553/GD32VW55X_Wifi_BLE_SDK/GD32VW55x_RELEASE_V1.0.2/MSDK/mbedtls/mbedtls-2.17.0-ssl/library\net_sockets.c **** #include "mbedtls/config.h"
  29:C:/Users/stapi/OneDrive/Desktop/GD32VW553/GD32VW55X_Wifi_BLE_SDK/GD32VW55x_RELEASE_V1.0.2/MSDK/mbedtls/mbedtls-2.17.0-ssl/library\net_sockets.c **** #else
  30:C:/Users/stapi/OneDrive/Desktop/GD32VW553/GD32VW55X_Wifi_BLE_SDK/GD32VW55x_RELEASE_V1.0.2/MSDK/mbedtls/mbedtls-2.17.0-ssl/library\net_sockets.c **** #include MBEDTLS_CONFIG_FILE
  31:C:/Users/stapi/OneDrive/Desktop/GD32VW553/GD32VW55X_Wifi_BLE_SDK/GD32VW55x_RELEASE_V1.0.2/MSDK/mbedtls/mbedtls-2.17.0-ssl/library\net_sockets.c **** #endif
  32:C:/Users/stapi/OneDrive/Desktop/GD32VW553/GD32VW55X_Wifi_BLE_SDK/GD32VW55x_RELEASE_V1.0.2/MSDK/mbedtls/mbedtls-2.17.0-ssl/library\net_sockets.c **** 
  33:C:/Users/stapi/OneDrive/Desktop/GD32VW553/GD32VW55X_Wifi_BLE_SDK/GD32VW55x_RELEASE_V1.0.2/MSDK/mbedtls/mbedtls-2.17.0-ssl/library\net_sockets.c **** #if defined(MBEDTLS_NET_C)
  34:C:/Users/stapi/OneDrive/Desktop/GD32VW553/GD32VW55X_Wifi_BLE_SDK/GD32VW55x_RELEASE_V1.0.2/MSDK/mbedtls/mbedtls-2.17.0-ssl/library\net_sockets.c **** /*
  35:C:/Users/stapi/OneDrive/Desktop/GD32VW553/GD32VW55X_Wifi_BLE_SDK/GD32VW55x_RELEASE_V1.0.2/MSDK/mbedtls/mbedtls-2.17.0-ssl/library\net_sockets.c **** #if !defined(unix) && !defined(__unix__) && !defined(__unix) && \
  36:C:/Users/stapi/OneDrive/Desktop/GD32VW553/GD32VW55X_Wifi_BLE_SDK/GD32VW55x_RELEASE_V1.0.2/MSDK/mbedtls/mbedtls-2.17.0-ssl/library\net_sockets.c ****     !defined(__APPLE__) && !defined(_WIN32)
  37:C:/Users/stapi/OneDrive/Desktop/GD32VW553/GD32VW55X_Wifi_BLE_SDK/GD32VW55x_RELEASE_V1.0.2/MSDK/mbedtls/mbedtls-2.17.0-ssl/library\net_sockets.c **** #error "This module only works on Unix and Windows, see MBEDTLS_NET_C in config.h"
  38:C:/Users/stapi/OneDrive/Desktop/GD32VW553/GD32VW55X_Wifi_BLE_SDK/GD32VW55x_RELEASE_V1.0.2/MSDK/mbedtls/mbedtls-2.17.0-ssl/library\net_sockets.c **** #endif
  39:C:/Users/stapi/OneDrive/Desktop/GD32VW553/GD32VW55X_Wifi_BLE_SDK/GD32VW55x_RELEASE_V1.0.2/MSDK/mbedtls/mbedtls-2.17.0-ssl/library\net_sockets.c **** */
  40:C:/Users/stapi/OneDrive/Desktop/GD32VW553/GD32VW55X_Wifi_BLE_SDK/GD32VW55x_RELEASE_V1.0.2/MSDK/mbedtls/mbedtls-2.17.0-ssl/library\net_sockets.c **** 
  41:C:/Users/stapi/OneDrive/Desktop/GD32VW553/GD32VW55X_Wifi_BLE_SDK/GD32VW55x_RELEASE_V1.0.2/MSDK/mbedtls/mbedtls-2.17.0-ssl/library\net_sockets.c **** #if defined(MBEDTLS_PLATFORM_C)
  42:C:/Users/stapi/OneDrive/Desktop/GD32VW553/GD32VW55X_Wifi_BLE_SDK/GD32VW55x_RELEASE_V1.0.2/MSDK/mbedtls/mbedtls-2.17.0-ssl/library\net_sockets.c **** #include "mbedtls/platform.h"
  43:C:/Users/stapi/OneDrive/Desktop/GD32VW553/GD32VW55X_Wifi_BLE_SDK/GD32VW55x_RELEASE_V1.0.2/MSDK/mbedtls/mbedtls-2.17.0-ssl/library\net_sockets.c **** #else
  44:C:/Users/stapi/OneDrive/Desktop/GD32VW553/GD32VW55X_Wifi_BLE_SDK/GD32VW55x_RELEASE_V1.0.2/MSDK/mbedtls/mbedtls-2.17.0-ssl/library\net_sockets.c **** #include <stdlib.h>
  45:C:/Users/stapi/OneDrive/Desktop/GD32VW553/GD32VW55X_Wifi_BLE_SDK/GD32VW55x_RELEASE_V1.0.2/MSDK/mbedtls/mbedtls-2.17.0-ssl/library\net_sockets.c **** #endif
  46:C:/Users/stapi/OneDrive/Desktop/GD32VW553/GD32VW55X_Wifi_BLE_SDK/GD32VW55x_RELEASE_V1.0.2/MSDK/mbedtls/mbedtls-2.17.0-ssl/library\net_sockets.c **** 
  47:C:/Users/stapi/OneDrive/Desktop/GD32VW553/GD32VW55X_Wifi_BLE_SDK/GD32VW55x_RELEASE_V1.0.2/MSDK/mbedtls/mbedtls-2.17.0-ssl/library\net_sockets.c **** #include "mbedtls/net_sockets.h"
  48:C:/Users/stapi/OneDrive/Desktop/GD32VW553/GD32VW55X_Wifi_BLE_SDK/GD32VW55x_RELEASE_V1.0.2/MSDK/mbedtls/mbedtls-2.17.0-ssl/library\net_sockets.c **** 
  49:C:/Users/stapi/OneDrive/Desktop/GD32VW553/GD32VW55X_Wifi_BLE_SDK/GD32VW55x_RELEASE_V1.0.2/MSDK/mbedtls/mbedtls-2.17.0-ssl/library\net_sockets.c **** #include <string.h>
  50:C:/Users/stapi/OneDrive/Desktop/GD32VW553/GD32VW55X_Wifi_BLE_SDK/GD32VW55x_RELEASE_V1.0.2/MSDK/mbedtls/mbedtls-2.17.0-ssl/library\net_sockets.c **** 
  51:C:/Users/stapi/OneDrive/Desktop/GD32VW553/GD32VW55X_Wifi_BLE_SDK/GD32VW55x_RELEASE_V1.0.2/MSDK/mbedtls/mbedtls-2.17.0-ssl/library\net_sockets.c **** #if (defined(_WIN32) || defined(_WIN32_WCE)) && !defined(EFIX64) && \
  52:C:/Users/stapi/OneDrive/Desktop/GD32VW553/GD32VW55X_Wifi_BLE_SDK/GD32VW55x_RELEASE_V1.0.2/MSDK/mbedtls/mbedtls-2.17.0-ssl/library\net_sockets.c ****     !defined(EFI32)
  53:C:/Users/stapi/OneDrive/Desktop/GD32VW553/GD32VW55X_Wifi_BLE_SDK/GD32VW55x_RELEASE_V1.0.2/MSDK/mbedtls/mbedtls-2.17.0-ssl/library\net_sockets.c **** 
  54:C:/Users/stapi/OneDrive/Desktop/GD32VW553/GD32VW55X_Wifi_BLE_SDK/GD32VW55x_RELEASE_V1.0.2/MSDK/mbedtls/mbedtls-2.17.0-ssl/library\net_sockets.c **** #define IS_EINTR( ret ) ( ( ret ) == WSAEINTR )
  55:C:/Users/stapi/OneDrive/Desktop/GD32VW553/GD32VW55X_Wifi_BLE_SDK/GD32VW55x_RELEASE_V1.0.2/MSDK/mbedtls/mbedtls-2.17.0-ssl/library\net_sockets.c **** 
  56:C:/Users/stapi/OneDrive/Desktop/GD32VW553/GD32VW55X_Wifi_BLE_SDK/GD32VW55x_RELEASE_V1.0.2/MSDK/mbedtls/mbedtls-2.17.0-ssl/library\net_sockets.c **** #if !defined(_WIN32_WINNT) || (_WIN32_WINNT < 0x0501)
  57:C:/Users/stapi/OneDrive/Desktop/GD32VW553/GD32VW55X_Wifi_BLE_SDK/GD32VW55x_RELEASE_V1.0.2/MSDK/mbedtls/mbedtls-2.17.0-ssl/library\net_sockets.c **** #undef _WIN32_WINNT
  58:C:/Users/stapi/OneDrive/Desktop/GD32VW553/GD32VW55X_Wifi_BLE_SDK/GD32VW55x_RELEASE_V1.0.2/MSDK/mbedtls/mbedtls-2.17.0-ssl/library\net_sockets.c **** /* Enables getaddrinfo() & Co */
  59:C:/Users/stapi/OneDrive/Desktop/GD32VW553/GD32VW55X_Wifi_BLE_SDK/GD32VW55x_RELEASE_V1.0.2/MSDK/mbedtls/mbedtls-2.17.0-ssl/library\net_sockets.c **** #define _WIN32_WINNT 0x0501
  60:C:/Users/stapi/OneDrive/Desktop/GD32VW553/GD32VW55X_Wifi_BLE_SDK/GD32VW55x_RELEASE_V1.0.2/MSDK/mbedtls/mbedtls-2.17.0-ssl/library\net_sockets.c **** #endif
  61:C:/Users/stapi/OneDrive/Desktop/GD32VW553/GD32VW55X_Wifi_BLE_SDK/GD32VW55x_RELEASE_V1.0.2/MSDK/mbedtls/mbedtls-2.17.0-ssl/library\net_sockets.c **** 
  62:C:/Users/stapi/OneDrive/Desktop/GD32VW553/GD32VW55X_Wifi_BLE_SDK/GD32VW55x_RELEASE_V1.0.2/MSDK/mbedtls/mbedtls-2.17.0-ssl/library\net_sockets.c **** #include <ws2tcpip.h>
  63:C:/Users/stapi/OneDrive/Desktop/GD32VW553/GD32VW55X_Wifi_BLE_SDK/GD32VW55x_RELEASE_V1.0.2/MSDK/mbedtls/mbedtls-2.17.0-ssl/library\net_sockets.c **** 
  64:C:/Users/stapi/OneDrive/Desktop/GD32VW553/GD32VW55X_Wifi_BLE_SDK/GD32VW55x_RELEASE_V1.0.2/MSDK/mbedtls/mbedtls-2.17.0-ssl/library\net_sockets.c **** #include <winsock2.h>
  65:C:/Users/stapi/OneDrive/Desktop/GD32VW553/GD32VW55X_Wifi_BLE_SDK/GD32VW55x_RELEASE_V1.0.2/MSDK/mbedtls/mbedtls-2.17.0-ssl/library\net_sockets.c **** #include <windows.h>
  66:C:/Users/stapi/OneDrive/Desktop/GD32VW553/GD32VW55X_Wifi_BLE_SDK/GD32VW55x_RELEASE_V1.0.2/MSDK/mbedtls/mbedtls-2.17.0-ssl/library\net_sockets.c **** 
  67:C:/Users/stapi/OneDrive/Desktop/GD32VW553/GD32VW55X_Wifi_BLE_SDK/GD32VW55x_RELEASE_V1.0.2/MSDK/mbedtls/mbedtls-2.17.0-ssl/library\net_sockets.c **** #if defined(_MSC_VER)
  68:C:/Users/stapi/OneDrive/Desktop/GD32VW553/GD32VW55X_Wifi_BLE_SDK/GD32VW55x_RELEASE_V1.0.2/MSDK/mbedtls/mbedtls-2.17.0-ssl/library\net_sockets.c **** #if defined(_WIN32_WCE)
  69:C:/Users/stapi/OneDrive/Desktop/GD32VW553/GD32VW55X_Wifi_BLE_SDK/GD32VW55x_RELEASE_V1.0.2/MSDK/mbedtls/mbedtls-2.17.0-ssl/library\net_sockets.c **** #pragma comment( lib, "ws2.lib" )
  70:C:/Users/stapi/OneDrive/Desktop/GD32VW553/GD32VW55X_Wifi_BLE_SDK/GD32VW55x_RELEASE_V1.0.2/MSDK/mbedtls/mbedtls-2.17.0-ssl/library\net_sockets.c **** #else
  71:C:/Users/stapi/OneDrive/Desktop/GD32VW553/GD32VW55X_Wifi_BLE_SDK/GD32VW55x_RELEASE_V1.0.2/MSDK/mbedtls/mbedtls-2.17.0-ssl/library\net_sockets.c **** #pragma comment( lib, "ws2_32.lib" )
  72:C:/Users/stapi/OneDrive/Desktop/GD32VW553/GD32VW55X_Wifi_BLE_SDK/GD32VW55x_RELEASE_V1.0.2/MSDK/mbedtls/mbedtls-2.17.0-ssl/library\net_sockets.c **** #endif
  73:C:/Users/stapi/OneDrive/Desktop/GD32VW553/GD32VW55X_Wifi_BLE_SDK/GD32VW55x_RELEASE_V1.0.2/MSDK/mbedtls/mbedtls-2.17.0-ssl/library\net_sockets.c **** #endif /* _MSC_VER */
  74:C:/Users/stapi/OneDrive/Desktop/GD32VW553/GD32VW55X_Wifi_BLE_SDK/GD32VW55x_RELEASE_V1.0.2/MSDK/mbedtls/mbedtls-2.17.0-ssl/library\net_sockets.c **** 
  75:C:/Users/stapi/OneDrive/Desktop/GD32VW553/GD32VW55X_Wifi_BLE_SDK/GD32VW55x_RELEASE_V1.0.2/MSDK/mbedtls/mbedtls-2.17.0-ssl/library\net_sockets.c **** #define read(fd,buf,len)        recv( fd, (char*)( buf ), (int)( len ), 0 )
  76:C:/Users/stapi/OneDrive/Desktop/GD32VW553/GD32VW55X_Wifi_BLE_SDK/GD32VW55x_RELEASE_V1.0.2/MSDK/mbedtls/mbedtls-2.17.0-ssl/library\net_sockets.c **** #define write(fd,buf,len)       send( fd, (char*)( buf ), (int)( len ), 0 )
  77:C:/Users/stapi/OneDrive/Desktop/GD32VW553/GD32VW55X_Wifi_BLE_SDK/GD32VW55x_RELEASE_V1.0.2/MSDK/mbedtls/mbedtls-2.17.0-ssl/library\net_sockets.c **** #define close(fd)               closesocket(fd)
  78:C:/Users/stapi/OneDrive/Desktop/GD32VW553/GD32VW55X_Wifi_BLE_SDK/GD32VW55x_RELEASE_V1.0.2/MSDK/mbedtls/mbedtls-2.17.0-ssl/library\net_sockets.c **** 
  79:C:/Users/stapi/OneDrive/Desktop/GD32VW553/GD32VW55X_Wifi_BLE_SDK/GD32VW55x_RELEASE_V1.0.2/MSDK/mbedtls/mbedtls-2.17.0-ssl/library\net_sockets.c **** static int wsa_init_done = 0;
  80:C:/Users/stapi/OneDrive/Desktop/GD32VW553/GD32VW55X_Wifi_BLE_SDK/GD32VW55x_RELEASE_V1.0.2/MSDK/mbedtls/mbedtls-2.17.0-ssl/library\net_sockets.c **** 
  81:C:/Users/stapi/OneDrive/Desktop/GD32VW553/GD32VW55X_Wifi_BLE_SDK/GD32VW55x_RELEASE_V1.0.2/MSDK/mbedtls/mbedtls-2.17.0-ssl/library\net_sockets.c **** #elif defined(__ICCARM__) || defined(__CC_ARM) || (defined(__ARMCC_VERSION) && (__ARMCC_VERSION >= 
  82:C:/Users/stapi/OneDrive/Desktop/GD32VW553/GD32VW55X_Wifi_BLE_SDK/GD32VW55x_RELEASE_V1.0.2/MSDK/mbedtls/mbedtls-2.17.0-ssl/library\net_sockets.c **** 
  83:C:/Users/stapi/OneDrive/Desktop/GD32VW553/GD32VW55X_Wifi_BLE_SDK/GD32VW55x_RELEASE_V1.0.2/MSDK/mbedtls/mbedtls-2.17.0-ssl/library\net_sockets.c **** #include "lwip/sockets.h"
  84:C:/Users/stapi/OneDrive/Desktop/GD32VW553/GD32VW55X_Wifi_BLE_SDK/GD32VW55x_RELEASE_V1.0.2/MSDK/mbedtls/mbedtls-2.17.0-ssl/library\net_sockets.c **** #include "lwip/inet.h"
  85:C:/Users/stapi/OneDrive/Desktop/GD32VW553/GD32VW55X_Wifi_BLE_SDK/GD32VW55x_RELEASE_V1.0.2/MSDK/mbedtls/mbedtls-2.17.0-ssl/library\net_sockets.c **** #include "lwip/netdb.h"
  86:C:/Users/stapi/OneDrive/Desktop/GD32VW553/GD32VW55X_Wifi_BLE_SDK/GD32VW55x_RELEASE_V1.0.2/MSDK/mbedtls/mbedtls-2.17.0-ssl/library\net_sockets.c **** #include <errno.h>
  87:C:/Users/stapi/OneDrive/Desktop/GD32VW553/GD32VW55X_Wifi_BLE_SDK/GD32VW55x_RELEASE_V1.0.2/MSDK/mbedtls/mbedtls-2.17.0-ssl/library\net_sockets.c **** #define IS_EINTR( ret ) ( ( ret ) == EINTR )
  88:C:/Users/stapi/OneDrive/Desktop/GD32VW553/GD32VW55X_Wifi_BLE_SDK/GD32VW55x_RELEASE_V1.0.2/MSDK/mbedtls/mbedtls-2.17.0-ssl/library\net_sockets.c **** 
  89:C:/Users/stapi/OneDrive/Desktop/GD32VW553/GD32VW55X_Wifi_BLE_SDK/GD32VW55x_RELEASE_V1.0.2/MSDK/mbedtls/mbedtls-2.17.0-ssl/library\net_sockets.c **** #else /* ( _WIN32 || _WIN32_WCE ) && !EFIX64 && !EFI32 */
  90:C:/Users/stapi/OneDrive/Desktop/GD32VW553/GD32VW55X_Wifi_BLE_SDK/GD32VW55x_RELEASE_V1.0.2/MSDK/mbedtls/mbedtls-2.17.0-ssl/library\net_sockets.c **** 
  91:C:/Users/stapi/OneDrive/Desktop/GD32VW553/GD32VW55X_Wifi_BLE_SDK/GD32VW55x_RELEASE_V1.0.2/MSDK/mbedtls/mbedtls-2.17.0-ssl/library\net_sockets.c **** #include <sys/types.h>
  92:C:/Users/stapi/OneDrive/Desktop/GD32VW553/GD32VW55X_Wifi_BLE_SDK/GD32VW55x_RELEASE_V1.0.2/MSDK/mbedtls/mbedtls-2.17.0-ssl/library\net_sockets.c **** #include <sys/socket.h>
  93:C:/Users/stapi/OneDrive/Desktop/GD32VW553/GD32VW55X_Wifi_BLE_SDK/GD32VW55x_RELEASE_V1.0.2/MSDK/mbedtls/mbedtls-2.17.0-ssl/library\net_sockets.c **** #include <netinet/in.h>
  94:C:/Users/stapi/OneDrive/Desktop/GD32VW553/GD32VW55X_Wifi_BLE_SDK/GD32VW55x_RELEASE_V1.0.2/MSDK/mbedtls/mbedtls-2.17.0-ssl/library\net_sockets.c **** #include <arpa/inet.h>
  95:C:/Users/stapi/OneDrive/Desktop/GD32VW553/GD32VW55X_Wifi_BLE_SDK/GD32VW55x_RELEASE_V1.0.2/MSDK/mbedtls/mbedtls-2.17.0-ssl/library\net_sockets.c **** #include <sys/time.h>
  96:C:/Users/stapi/OneDrive/Desktop/GD32VW553/GD32VW55X_Wifi_BLE_SDK/GD32VW55x_RELEASE_V1.0.2/MSDK/mbedtls/mbedtls-2.17.0-ssl/library\net_sockets.c **** #include <unistd.h>
  97:C:/Users/stapi/OneDrive/Desktop/GD32VW553/GD32VW55X_Wifi_BLE_SDK/GD32VW55x_RELEASE_V1.0.2/MSDK/mbedtls/mbedtls-2.17.0-ssl/library\net_sockets.c **** #include <signal.h>
  98:C:/Users/stapi/OneDrive/Desktop/GD32VW553/GD32VW55X_Wifi_BLE_SDK/GD32VW55x_RELEASE_V1.0.2/MSDK/mbedtls/mbedtls-2.17.0-ssl/library\net_sockets.c **** #include <fcntl.h>
  99:C:/Users/stapi/OneDrive/Desktop/GD32VW553/GD32VW55X_Wifi_BLE_SDK/GD32VW55x_RELEASE_V1.0.2/MSDK/mbedtls/mbedtls-2.17.0-ssl/library\net_sockets.c **** #include <netdb.h>
 100:C:/Users/stapi/OneDrive/Desktop/GD32VW553/GD32VW55X_Wifi_BLE_SDK/GD32VW55x_RELEASE_V1.0.2/MSDK/mbedtls/mbedtls-2.17.0-ssl/library\net_sockets.c **** #include <errno.h>
 101:C:/Users/stapi/OneDrive/Desktop/GD32VW553/GD32VW55X_Wifi_BLE_SDK/GD32VW55x_RELEASE_V1.0.2/MSDK/mbedtls/mbedtls-2.17.0-ssl/library\net_sockets.c **** 
 102:C:/Users/stapi/OneDrive/Desktop/GD32VW553/GD32VW55X_Wifi_BLE_SDK/GD32VW55x_RELEASE_V1.0.2/MSDK/mbedtls/mbedtls-2.17.0-ssl/library\net_sockets.c **** #define IS_EINTR( ret ) ( ( ret ) == EINTR )
 103:C:/Users/stapi/OneDrive/Desktop/GD32VW553/GD32VW55X_Wifi_BLE_SDK/GD32VW55x_RELEASE_V1.0.2/MSDK/mbedtls/mbedtls-2.17.0-ssl/library\net_sockets.c **** 
 104:C:/Users/stapi/OneDrive/Desktop/GD32VW553/GD32VW55X_Wifi_BLE_SDK/GD32VW55x_RELEASE_V1.0.2/MSDK/mbedtls/mbedtls-2.17.0-ssl/library\net_sockets.c **** #endif /* ( _WIN32 || _WIN32_WCE ) && !EFIX64 && !EFI32 */
 105:C:/Users/stapi/OneDrive/Desktop/GD32VW553/GD32VW55X_Wifi_BLE_SDK/GD32VW55x_RELEASE_V1.0.2/MSDK/mbedtls/mbedtls-2.17.0-ssl/library\net_sockets.c **** 
 106:C:/Users/stapi/OneDrive/Desktop/GD32VW553/GD32VW55X_Wifi_BLE_SDK/GD32VW55x_RELEASE_V1.0.2/MSDK/mbedtls/mbedtls-2.17.0-ssl/library\net_sockets.c **** /* Some MS functions want int and MSVC warns if we pass size_t,
 107:C:/Users/stapi/OneDrive/Desktop/GD32VW553/GD32VW55X_Wifi_BLE_SDK/GD32VW55x_RELEASE_V1.0.2/MSDK/mbedtls/mbedtls-2.17.0-ssl/library\net_sockets.c ****  * but the standard functions use socklen_t, so cast only for MSVC */
 108:C:/Users/stapi/OneDrive/Desktop/GD32VW553/GD32VW55X_Wifi_BLE_SDK/GD32VW55x_RELEASE_V1.0.2/MSDK/mbedtls/mbedtls-2.17.0-ssl/library\net_sockets.c **** #if defined(_MSC_VER)
 109:C:/Users/stapi/OneDrive/Desktop/GD32VW553/GD32VW55X_Wifi_BLE_SDK/GD32VW55x_RELEASE_V1.0.2/MSDK/mbedtls/mbedtls-2.17.0-ssl/library\net_sockets.c **** #define MSVC_INT_CAST   (int)
 110:C:/Users/stapi/OneDrive/Desktop/GD32VW553/GD32VW55X_Wifi_BLE_SDK/GD32VW55x_RELEASE_V1.0.2/MSDK/mbedtls/mbedtls-2.17.0-ssl/library\net_sockets.c **** #else
 111:C:/Users/stapi/OneDrive/Desktop/GD32VW553/GD32VW55X_Wifi_BLE_SDK/GD32VW55x_RELEASE_V1.0.2/MSDK/mbedtls/mbedtls-2.17.0-ssl/library\net_sockets.c **** #define MSVC_INT_CAST
 112:C:/Users/stapi/OneDrive/Desktop/GD32VW553/GD32VW55X_Wifi_BLE_SDK/GD32VW55x_RELEASE_V1.0.2/MSDK/mbedtls/mbedtls-2.17.0-ssl/library\net_sockets.c **** #endif
 113:C:/Users/stapi/OneDrive/Desktop/GD32VW553/GD32VW55X_Wifi_BLE_SDK/GD32VW55x_RELEASE_V1.0.2/MSDK/mbedtls/mbedtls-2.17.0-ssl/library\net_sockets.c **** 
 114:C:/Users/stapi/OneDrive/Desktop/GD32VW553/GD32VW55X_Wifi_BLE_SDK/GD32VW55x_RELEASE_V1.0.2/MSDK/mbedtls/mbedtls-2.17.0-ssl/library\net_sockets.c **** 
 115:C:/Users/stapi/OneDrive/Desktop/GD32VW553/GD32VW55X_Wifi_BLE_SDK/GD32VW55x_RELEASE_V1.0.2/MSDK/mbedtls/mbedtls-2.17.0-ssl/library\net_sockets.c **** #include <stdio.h>
 116:C:/Users/stapi/OneDrive/Desktop/GD32VW553/GD32VW55X_Wifi_BLE_SDK/GD32VW55x_RELEASE_V1.0.2/MSDK/mbedtls/mbedtls-2.17.0-ssl/library\net_sockets.c **** 
 117:C:/Users/stapi/OneDrive/Desktop/GD32VW553/GD32VW55X_Wifi_BLE_SDK/GD32VW55x_RELEASE_V1.0.2/MSDK/mbedtls/mbedtls-2.17.0-ssl/library\net_sockets.c **** #if defined(MBEDTLS_HAVE_TIME)
 118:C:/Users/stapi/OneDrive/Desktop/GD32VW553/GD32VW55X_Wifi_BLE_SDK/GD32VW55x_RELEASE_V1.0.2/MSDK/mbedtls/mbedtls-2.17.0-ssl/library\net_sockets.c **** #include <time.h>
 119:C:/Users/stapi/OneDrive/Desktop/GD32VW553/GD32VW55X_Wifi_BLE_SDK/GD32VW55x_RELEASE_V1.0.2/MSDK/mbedtls/mbedtls-2.17.0-ssl/library\net_sockets.c **** #endif
 120:C:/Users/stapi/OneDrive/Desktop/GD32VW553/GD32VW55X_Wifi_BLE_SDK/GD32VW55x_RELEASE_V1.0.2/MSDK/mbedtls/mbedtls-2.17.0-ssl/library\net_sockets.c **** #include <stdint.h>
 121:C:/Users/stapi/OneDrive/Desktop/GD32VW553/GD32VW55X_Wifi_BLE_SDK/GD32VW55x_RELEASE_V1.0.2/MSDK/mbedtls/mbedtls-2.17.0-ssl/library\net_sockets.c **** 
 122:C:/Users/stapi/OneDrive/Desktop/GD32VW553/GD32VW55X_Wifi_BLE_SDK/GD32VW55x_RELEASE_V1.0.2/MSDK/mbedtls/mbedtls-2.17.0-ssl/library\net_sockets.c **** /*
 123:C:/Users/stapi/OneDrive/Desktop/GD32VW553/GD32VW55X_Wifi_BLE_SDK/GD32VW55x_RELEASE_V1.0.2/MSDK/mbedtls/mbedtls-2.17.0-ssl/library\net_sockets.c ****  * Prepare for using the sockets interface
 124:C:/Users/stapi/OneDrive/Desktop/GD32VW553/GD32VW55X_Wifi_BLE_SDK/GD32VW55x_RELEASE_V1.0.2/MSDK/mbedtls/mbedtls-2.17.0-ssl/library\net_sockets.c ****  */
 125:C:/Users/stapi/OneDrive/Desktop/GD32VW553/GD32VW55X_Wifi_BLE_SDK/GD32VW55x_RELEASE_V1.0.2/MSDK/mbedtls/mbedtls-2.17.0-ssl/library\net_sockets.c **** static int net_prepare( void )
 126:C:/Users/stapi/OneDrive/Desktop/GD32VW553/GD32VW55X_Wifi_BLE_SDK/GD32VW55x_RELEASE_V1.0.2/MSDK/mbedtls/mbedtls-2.17.0-ssl/library\net_sockets.c **** {
 127:C:/Users/stapi/OneDrive/Desktop/GD32VW553/GD32VW55X_Wifi_BLE_SDK/GD32VW55x_RELEASE_V1.0.2/MSDK/mbedtls/mbedtls-2.17.0-ssl/library\net_sockets.c **** #if ( defined(_WIN32) || defined(_WIN32_WCE) ) && !defined(EFIX64) && \
 128:C:/Users/stapi/OneDrive/Desktop/GD32VW553/GD32VW55X_Wifi_BLE_SDK/GD32VW55x_RELEASE_V1.0.2/MSDK/mbedtls/mbedtls-2.17.0-ssl/library\net_sockets.c ****     !defined(EFI32)
 129:C:/Users/stapi/OneDrive/Desktop/GD32VW553/GD32VW55X_Wifi_BLE_SDK/GD32VW55x_RELEASE_V1.0.2/MSDK/mbedtls/mbedtls-2.17.0-ssl/library\net_sockets.c ****     WSADATA wsaData;
 130:C:/Users/stapi/OneDrive/Desktop/GD32VW553/GD32VW55X_Wifi_BLE_SDK/GD32VW55x_RELEASE_V1.0.2/MSDK/mbedtls/mbedtls-2.17.0-ssl/library\net_sockets.c **** 
 131:C:/Users/stapi/OneDrive/Desktop/GD32VW553/GD32VW55X_Wifi_BLE_SDK/GD32VW55x_RELEASE_V1.0.2/MSDK/mbedtls/mbedtls-2.17.0-ssl/library\net_sockets.c ****     if( wsa_init_done == 0 )
 132:C:/Users/stapi/OneDrive/Desktop/GD32VW553/GD32VW55X_Wifi_BLE_SDK/GD32VW55x_RELEASE_V1.0.2/MSDK/mbedtls/mbedtls-2.17.0-ssl/library\net_sockets.c ****     {
 133:C:/Users/stapi/OneDrive/Desktop/GD32VW553/GD32VW55X_Wifi_BLE_SDK/GD32VW55x_RELEASE_V1.0.2/MSDK/mbedtls/mbedtls-2.17.0-ssl/library\net_sockets.c ****         if( WSAStartup( MAKEWORD(2,0), &wsaData ) != 0 )
 134:C:/Users/stapi/OneDrive/Desktop/GD32VW553/GD32VW55X_Wifi_BLE_SDK/GD32VW55x_RELEASE_V1.0.2/MSDK/mbedtls/mbedtls-2.17.0-ssl/library\net_sockets.c ****             return( MBEDTLS_ERR_NET_SOCKET_FAILED );
 135:C:/Users/stapi/OneDrive/Desktop/GD32VW553/GD32VW55X_Wifi_BLE_SDK/GD32VW55x_RELEASE_V1.0.2/MSDK/mbedtls/mbedtls-2.17.0-ssl/library\net_sockets.c **** 
 136:C:/Users/stapi/OneDrive/Desktop/GD32VW553/GD32VW55X_Wifi_BLE_SDK/GD32VW55x_RELEASE_V1.0.2/MSDK/mbedtls/mbedtls-2.17.0-ssl/library\net_sockets.c ****         wsa_init_done = 1;
 137:C:/Users/stapi/OneDrive/Desktop/GD32VW553/GD32VW55X_Wifi_BLE_SDK/GD32VW55x_RELEASE_V1.0.2/MSDK/mbedtls/mbedtls-2.17.0-ssl/library\net_sockets.c ****     }
 138:C:/Users/stapi/OneDrive/Desktop/GD32VW553/GD32VW55X_Wifi_BLE_SDK/GD32VW55x_RELEASE_V1.0.2/MSDK/mbedtls/mbedtls-2.17.0-ssl/library\net_sockets.c **** #else
 139:C:/Users/stapi/OneDrive/Desktop/GD32VW553/GD32VW55X_Wifi_BLE_SDK/GD32VW55x_RELEASE_V1.0.2/MSDK/mbedtls/mbedtls-2.17.0-ssl/library\net_sockets.c **** #if !defined(EFIX64) && !defined(EFI32)
 140:C:/Users/stapi/OneDrive/Desktop/GD32VW553/GD32VW55X_Wifi_BLE_SDK/GD32VW55x_RELEASE_V1.0.2/MSDK/mbedtls/mbedtls-2.17.0-ssl/library\net_sockets.c ****     //signal( SIGPIPE, SIG_IGN );
 141:C:/Users/stapi/OneDrive/Desktop/GD32VW553/GD32VW55X_Wifi_BLE_SDK/GD32VW55x_RELEASE_V1.0.2/MSDK/mbedtls/mbedtls-2.17.0-ssl/library\net_sockets.c **** #endif
 142:C:/Users/stapi/OneDrive/Desktop/GD32VW553/GD32VW55X_Wifi_BLE_SDK/GD32VW55x_RELEASE_V1.0.2/MSDK/mbedtls/mbedtls-2.17.0-ssl/library\net_sockets.c **** #endif
 143:C:/Users/stapi/OneDrive/Desktop/GD32VW553/GD32VW55X_Wifi_BLE_SDK/GD32VW55x_RELEASE_V1.0.2/MSDK/mbedtls/mbedtls-2.17.0-ssl/library\net_sockets.c ****     return( 0 );
 144:C:/Users/stapi/OneDrive/Desktop/GD32VW553/GD32VW55X_Wifi_BLE_SDK/GD32VW55x_RELEASE_V1.0.2/MSDK/mbedtls/mbedtls-2.17.0-ssl/library\net_sockets.c **** }
 145:C:/Users/stapi/OneDrive/Desktop/GD32VW553/GD32VW55X_Wifi_BLE_SDK/GD32VW55x_RELEASE_V1.0.2/MSDK/mbedtls/mbedtls-2.17.0-ssl/library\net_sockets.c **** 
 146:C:/Users/stapi/OneDrive/Desktop/GD32VW553/GD32VW55X_Wifi_BLE_SDK/GD32VW55x_RELEASE_V1.0.2/MSDK/mbedtls/mbedtls-2.17.0-ssl/library\net_sockets.c **** /*
 147:C:/Users/stapi/OneDrive/Desktop/GD32VW553/GD32VW55X_Wifi_BLE_SDK/GD32VW55x_RELEASE_V1.0.2/MSDK/mbedtls/mbedtls-2.17.0-ssl/library\net_sockets.c ****  * Initialize a context
 148:C:/Users/stapi/OneDrive/Desktop/GD32VW553/GD32VW55X_Wifi_BLE_SDK/GD32VW55x_RELEASE_V1.0.2/MSDK/mbedtls/mbedtls-2.17.0-ssl/library\net_sockets.c ****  */
 149:C:/Users/stapi/OneDrive/Desktop/GD32VW553/GD32VW55X_Wifi_BLE_SDK/GD32VW55x_RELEASE_V1.0.2/MSDK/mbedtls/mbedtls-2.17.0-ssl/library\net_sockets.c **** void mbedtls_net_init( mbedtls_net_context *ctx )
 150:C:/Users/stapi/OneDrive/Desktop/GD32VW553/GD32VW55X_Wifi_BLE_SDK/GD32VW55x_RELEASE_V1.0.2/MSDK/mbedtls/mbedtls-2.17.0-ssl/library\net_sockets.c **** {
 151:C:/Users/stapi/OneDrive/Desktop/GD32VW553/GD32VW55X_Wifi_BLE_SDK/GD32VW55x_RELEASE_V1.0.2/MSDK/mbedtls/mbedtls-2.17.0-ssl/library\net_sockets.c ****     ctx->fd = -1;
 152:C:/Users/stapi/OneDrive/Desktop/GD32VW553/GD32VW55X_Wifi_BLE_SDK/GD32VW55x_RELEASE_V1.0.2/MSDK/mbedtls/mbedtls-2.17.0-ssl/library\net_sockets.c **** }
 153:C:/Users/stapi/OneDrive/Desktop/GD32VW553/GD32VW55X_Wifi_BLE_SDK/GD32VW55x_RELEASE_V1.0.2/MSDK/mbedtls/mbedtls-2.17.0-ssl/library\net_sockets.c **** 
 154:C:/Users/stapi/OneDrive/Desktop/GD32VW553/GD32VW55X_Wifi_BLE_SDK/GD32VW55x_RELEASE_V1.0.2/MSDK/mbedtls/mbedtls-2.17.0-ssl/library\net_sockets.c **** /*
 155:C:/Users/stapi/OneDrive/Desktop/GD32VW553/GD32VW55X_Wifi_BLE_SDK/GD32VW55x_RELEASE_V1.0.2/MSDK/mbedtls/mbedtls-2.17.0-ssl/library\net_sockets.c ****  * Initiate a TCP connection with host:port and the given protocol
 156:C:/Users/stapi/OneDrive/Desktop/GD32VW553/GD32VW55X_Wifi_BLE_SDK/GD32VW55x_RELEASE_V1.0.2/MSDK/mbedtls/mbedtls-2.17.0-ssl/library\net_sockets.c ****  */
 157:C:/Users/stapi/OneDrive/Desktop/GD32VW553/GD32VW55X_Wifi_BLE_SDK/GD32VW55x_RELEASE_V1.0.2/MSDK/mbedtls/mbedtls-2.17.0-ssl/library\net_sockets.c **** int mbedtls_net_connect( mbedtls_net_context *ctx, const char *host,
 158:C:/Users/stapi/OneDrive/Desktop/GD32VW553/GD32VW55X_Wifi_BLE_SDK/GD32VW55x_RELEASE_V1.0.2/MSDK/mbedtls/mbedtls-2.17.0-ssl/library\net_sockets.c ****                          const char *port, int proto )
 159:C:/Users/stapi/OneDrive/Desktop/GD32VW553/GD32VW55X_Wifi_BLE_SDK/GD32VW55x_RELEASE_V1.0.2/MSDK/mbedtls/mbedtls-2.17.0-ssl/library\net_sockets.c **** {
 160:C:/Users/stapi/OneDrive/Desktop/GD32VW553/GD32VW55X_Wifi_BLE_SDK/GD32VW55x_RELEASE_V1.0.2/MSDK/mbedtls/mbedtls-2.17.0-ssl/library\net_sockets.c ****     int ret;
 161:C:/Users/stapi/OneDrive/Desktop/GD32VW553/GD32VW55X_Wifi_BLE_SDK/GD32VW55x_RELEASE_V1.0.2/MSDK/mbedtls/mbedtls-2.17.0-ssl/library\net_sockets.c ****     struct addrinfo hints, *addr_list, *cur;
 162:C:/Users/stapi/OneDrive/Desktop/GD32VW553/GD32VW55X_Wifi_BLE_SDK/GD32VW55x_RELEASE_V1.0.2/MSDK/mbedtls/mbedtls-2.17.0-ssl/library\net_sockets.c **** 
 163:C:/Users/stapi/OneDrive/Desktop/GD32VW553/GD32VW55X_Wifi_BLE_SDK/GD32VW55x_RELEASE_V1.0.2/MSDK/mbedtls/mbedtls-2.17.0-ssl/library\net_sockets.c ****     if( ( ret = net_prepare() ) != 0 )
 164:C:/Users/stapi/OneDrive/Desktop/GD32VW553/GD32VW55X_Wifi_BLE_SDK/GD32VW55x_RELEASE_V1.0.2/MSDK/mbedtls/mbedtls-2.17.0-ssl/library\net_sockets.c ****         return( ret );
 165:C:/Users/stapi/OneDrive/Desktop/GD32VW553/GD32VW55X_Wifi_BLE_SDK/GD32VW55x_RELEASE_V1.0.2/MSDK/mbedtls/mbedtls-2.17.0-ssl/library\net_sockets.c **** 
 166:C:/Users/stapi/OneDrive/Desktop/GD32VW553/GD32VW55X_Wifi_BLE_SDK/GD32VW55x_RELEASE_V1.0.2/MSDK/mbedtls/mbedtls-2.17.0-ssl/library\net_sockets.c ****     /* Do name resolution with both IPv6 and IPv4 */
 167:C:/Users/stapi/OneDrive/Desktop/GD32VW553/GD32VW55X_Wifi_BLE_SDK/GD32VW55x_RELEASE_V1.0.2/MSDK/mbedtls/mbedtls-2.17.0-ssl/library\net_sockets.c ****     memset( &hints, 0, sizeof( hints ) );
 168:C:/Users/stapi/OneDrive/Desktop/GD32VW553/GD32VW55X_Wifi_BLE_SDK/GD32VW55x_RELEASE_V1.0.2/MSDK/mbedtls/mbedtls-2.17.0-ssl/library\net_sockets.c ****     hints.ai_family = AF_UNSPEC;
 169:C:/Users/stapi/OneDrive/Desktop/GD32VW553/GD32VW55X_Wifi_BLE_SDK/GD32VW55x_RELEASE_V1.0.2/MSDK/mbedtls/mbedtls-2.17.0-ssl/library\net_sockets.c ****     hints.ai_socktype = proto == MBEDTLS_NET_PROTO_UDP ? SOCK_DGRAM : SOCK_STREAM;
 170:C:/Users/stapi/OneDrive/Desktop/GD32VW553/GD32VW55X_Wifi_BLE_SDK/GD32VW55x_RELEASE_V1.0.2/MSDK/mbedtls/mbedtls-2.17.0-ssl/library\net_sockets.c ****     hints.ai_protocol = proto == MBEDTLS_NET_PROTO_UDP ? IPPROTO_UDP : IPPROTO_TCP;
 171:C:/Users/stapi/OneDrive/Desktop/GD32VW553/GD32VW55X_Wifi_BLE_SDK/GD32VW55x_RELEASE_V1.0.2/MSDK/mbedtls/mbedtls-2.17.0-ssl/library\net_sockets.c **** 
 172:C:/Users/stapi/OneDrive/Desktop/GD32VW553/GD32VW55X_Wifi_BLE_SDK/GD32VW55x_RELEASE_V1.0.2/MSDK/mbedtls/mbedtls-2.17.0-ssl/library\net_sockets.c ****     if( getaddrinfo( host, port, &hints, &addr_list ) != 0 )
 173:C:/Users/stapi/OneDrive/Desktop/GD32VW553/GD32VW55X_Wifi_BLE_SDK/GD32VW55x_RELEASE_V1.0.2/MSDK/mbedtls/mbedtls-2.17.0-ssl/library\net_sockets.c ****         return( MBEDTLS_ERR_NET_UNKNOWN_HOST );
 174:C:/Users/stapi/OneDrive/Desktop/GD32VW553/GD32VW55X_Wifi_BLE_SDK/GD32VW55x_RELEASE_V1.0.2/MSDK/mbedtls/mbedtls-2.17.0-ssl/library\net_sockets.c **** 
 175:C:/Users/stapi/OneDrive/Desktop/GD32VW553/GD32VW55X_Wifi_BLE_SDK/GD32VW55x_RELEASE_V1.0.2/MSDK/mbedtls/mbedtls-2.17.0-ssl/library\net_sockets.c ****     /* Try the sockaddrs until a connection succeeds */
 176:C:/Users/stapi/OneDrive/Desktop/GD32VW553/GD32VW55X_Wifi_BLE_SDK/GD32VW55x_RELEASE_V1.0.2/MSDK/mbedtls/mbedtls-2.17.0-ssl/library\net_sockets.c ****     ret = MBEDTLS_ERR_NET_UNKNOWN_HOST;
 177:C:/Users/stapi/OneDrive/Desktop/GD32VW553/GD32VW55X_Wifi_BLE_SDK/GD32VW55x_RELEASE_V1.0.2/MSDK/mbedtls/mbedtls-2.17.0-ssl/library\net_sockets.c ****     for( cur = addr_list; cur != NULL; cur = cur->ai_next )
 178:C:/Users/stapi/OneDrive/Desktop/GD32VW553/GD32VW55X_Wifi_BLE_SDK/GD32VW55x_RELEASE_V1.0.2/MSDK/mbedtls/mbedtls-2.17.0-ssl/library\net_sockets.c ****     {
 179:C:/Users/stapi/OneDrive/Desktop/GD32VW553/GD32VW55X_Wifi_BLE_SDK/GD32VW55x_RELEASE_V1.0.2/MSDK/mbedtls/mbedtls-2.17.0-ssl/library\net_sockets.c ****         ctx->fd = (int) socket( cur->ai_family, cur->ai_socktype,
 180:C:/Users/stapi/OneDrive/Desktop/GD32VW553/GD32VW55X_Wifi_BLE_SDK/GD32VW55x_RELEASE_V1.0.2/MSDK/mbedtls/mbedtls-2.17.0-ssl/library\net_sockets.c ****                             cur->ai_protocol );
 181:C:/Users/stapi/OneDrive/Desktop/GD32VW553/GD32VW55X_Wifi_BLE_SDK/GD32VW55x_RELEASE_V1.0.2/MSDK/mbedtls/mbedtls-2.17.0-ssl/library\net_sockets.c ****         if( ctx->fd < 0 )
 182:C:/Users/stapi/OneDrive/Desktop/GD32VW553/GD32VW55X_Wifi_BLE_SDK/GD32VW55x_RELEASE_V1.0.2/MSDK/mbedtls/mbedtls-2.17.0-ssl/library\net_sockets.c ****         {
 183:C:/Users/stapi/OneDrive/Desktop/GD32VW553/GD32VW55X_Wifi_BLE_SDK/GD32VW55x_RELEASE_V1.0.2/MSDK/mbedtls/mbedtls-2.17.0-ssl/library\net_sockets.c ****             ret = MBEDTLS_ERR_NET_SOCKET_FAILED;
 184:C:/Users/stapi/OneDrive/Desktop/GD32VW553/GD32VW55X_Wifi_BLE_SDK/GD32VW55x_RELEASE_V1.0.2/MSDK/mbedtls/mbedtls-2.17.0-ssl/library\net_sockets.c ****             continue;
 185:C:/Users/stapi/OneDrive/Desktop/GD32VW553/GD32VW55X_Wifi_BLE_SDK/GD32VW55x_RELEASE_V1.0.2/MSDK/mbedtls/mbedtls-2.17.0-ssl/library\net_sockets.c ****         }
 186:C:/Users/stapi/OneDrive/Desktop/GD32VW553/GD32VW55X_Wifi_BLE_SDK/GD32VW55x_RELEASE_V1.0.2/MSDK/mbedtls/mbedtls-2.17.0-ssl/library\net_sockets.c **** 
 187:C:/Users/stapi/OneDrive/Desktop/GD32VW553/GD32VW55X_Wifi_BLE_SDK/GD32VW55x_RELEASE_V1.0.2/MSDK/mbedtls/mbedtls-2.17.0-ssl/library\net_sockets.c ****         if( connect( ctx->fd, cur->ai_addr, MSVC_INT_CAST cur->ai_addrlen ) == 0 )
 188:C:/Users/stapi/OneDrive/Desktop/GD32VW553/GD32VW55X_Wifi_BLE_SDK/GD32VW55x_RELEASE_V1.0.2/MSDK/mbedtls/mbedtls-2.17.0-ssl/library\net_sockets.c ****         {
 189:C:/Users/stapi/OneDrive/Desktop/GD32VW553/GD32VW55X_Wifi_BLE_SDK/GD32VW55x_RELEASE_V1.0.2/MSDK/mbedtls/mbedtls-2.17.0-ssl/library\net_sockets.c ****             ret = 0;
 190:C:/Users/stapi/OneDrive/Desktop/GD32VW553/GD32VW55X_Wifi_BLE_SDK/GD32VW55x_RELEASE_V1.0.2/MSDK/mbedtls/mbedtls-2.17.0-ssl/library\net_sockets.c ****             break;
 191:C:/Users/stapi/OneDrive/Desktop/GD32VW553/GD32VW55X_Wifi_BLE_SDK/GD32VW55x_RELEASE_V1.0.2/MSDK/mbedtls/mbedtls-2.17.0-ssl/library\net_sockets.c ****         }
 192:C:/Users/stapi/OneDrive/Desktop/GD32VW553/GD32VW55X_Wifi_BLE_SDK/GD32VW55x_RELEASE_V1.0.2/MSDK/mbedtls/mbedtls-2.17.0-ssl/library\net_sockets.c **** 
 193:C:/Users/stapi/OneDrive/Desktop/GD32VW553/GD32VW55X_Wifi_BLE_SDK/GD32VW55x_RELEASE_V1.0.2/MSDK/mbedtls/mbedtls-2.17.0-ssl/library\net_sockets.c ****         close( ctx->fd );
 194:C:/Users/stapi/OneDrive/Desktop/GD32VW553/GD32VW55X_Wifi_BLE_SDK/GD32VW55x_RELEASE_V1.0.2/MSDK/mbedtls/mbedtls-2.17.0-ssl/library\net_sockets.c ****         ret = MBEDTLS_ERR_NET_CONNECT_FAILED;
 195:C:/Users/stapi/OneDrive/Desktop/GD32VW553/GD32VW55X_Wifi_BLE_SDK/GD32VW55x_RELEASE_V1.0.2/MSDK/mbedtls/mbedtls-2.17.0-ssl/library\net_sockets.c ****     }
 196:C:/Users/stapi/OneDrive/Desktop/GD32VW553/GD32VW55X_Wifi_BLE_SDK/GD32VW55x_RELEASE_V1.0.2/MSDK/mbedtls/mbedtls-2.17.0-ssl/library\net_sockets.c **** 
 197:C:/Users/stapi/OneDrive/Desktop/GD32VW553/GD32VW55X_Wifi_BLE_SDK/GD32VW55x_RELEASE_V1.0.2/MSDK/mbedtls/mbedtls-2.17.0-ssl/library\net_sockets.c ****     freeaddrinfo( addr_list );
 198:C:/Users/stapi/OneDrive/Desktop/GD32VW553/GD32VW55X_Wifi_BLE_SDK/GD32VW55x_RELEASE_V1.0.2/MSDK/mbedtls/mbedtls-2.17.0-ssl/library\net_sockets.c **** 
 199:C:/Users/stapi/OneDrive/Desktop/GD32VW553/GD32VW55X_Wifi_BLE_SDK/GD32VW55x_RELEASE_V1.0.2/MSDK/mbedtls/mbedtls-2.17.0-ssl/library\net_sockets.c ****     return( ret );
 200:C:/Users/stapi/OneDrive/Desktop/GD32VW553/GD32VW55X_Wifi_BLE_SDK/GD32VW55x_RELEASE_V1.0.2/MSDK/mbedtls/mbedtls-2.17.0-ssl/library\net_sockets.c **** }
 201:C:/Users/stapi/OneDrive/Desktop/GD32VW553/GD32VW55X_Wifi_BLE_SDK/GD32VW55x_RELEASE_V1.0.2/MSDK/mbedtls/mbedtls-2.17.0-ssl/library\net_sockets.c **** 
 202:C:/Users/stapi/OneDrive/Desktop/GD32VW553/GD32VW55X_Wifi_BLE_SDK/GD32VW55x_RELEASE_V1.0.2/MSDK/mbedtls/mbedtls-2.17.0-ssl/library\net_sockets.c **** /*
 203:C:/Users/stapi/OneDrive/Desktop/GD32VW553/GD32VW55X_Wifi_BLE_SDK/GD32VW55x_RELEASE_V1.0.2/MSDK/mbedtls/mbedtls-2.17.0-ssl/library\net_sockets.c ****  * Create a listening socket on bind_ip:port
 204:C:/Users/stapi/OneDrive/Desktop/GD32VW553/GD32VW55X_Wifi_BLE_SDK/GD32VW55x_RELEASE_V1.0.2/MSDK/mbedtls/mbedtls-2.17.0-ssl/library\net_sockets.c ****  */
 205:C:/Users/stapi/OneDrive/Desktop/GD32VW553/GD32VW55X_Wifi_BLE_SDK/GD32VW55x_RELEASE_V1.0.2/MSDK/mbedtls/mbedtls-2.17.0-ssl/library\net_sockets.c **** int mbedtls_net_bind( mbedtls_net_context *ctx, const char *bind_ip, const char *port, int proto )
 206:C:/Users/stapi/OneDrive/Desktop/GD32VW553/GD32VW55X_Wifi_BLE_SDK/GD32VW55x_RELEASE_V1.0.2/MSDK/mbedtls/mbedtls-2.17.0-ssl/library\net_sockets.c **** {
 207:C:/Users/stapi/OneDrive/Desktop/GD32VW553/GD32VW55X_Wifi_BLE_SDK/GD32VW55x_RELEASE_V1.0.2/MSDK/mbedtls/mbedtls-2.17.0-ssl/library\net_sockets.c ****     int n, ret;
 208:C:/Users/stapi/OneDrive/Desktop/GD32VW553/GD32VW55X_Wifi_BLE_SDK/GD32VW55x_RELEASE_V1.0.2/MSDK/mbedtls/mbedtls-2.17.0-ssl/library\net_sockets.c ****     struct addrinfo hints, *addr_list, *cur;
 209:C:/Users/stapi/OneDrive/Desktop/GD32VW553/GD32VW55X_Wifi_BLE_SDK/GD32VW55x_RELEASE_V1.0.2/MSDK/mbedtls/mbedtls-2.17.0-ssl/library\net_sockets.c **** 
 210:C:/Users/stapi/OneDrive/Desktop/GD32VW553/GD32VW55X_Wifi_BLE_SDK/GD32VW55x_RELEASE_V1.0.2/MSDK/mbedtls/mbedtls-2.17.0-ssl/library\net_sockets.c ****     if( ( ret = net_prepare() ) != 0 )
 211:C:/Users/stapi/OneDrive/Desktop/GD32VW553/GD32VW55X_Wifi_BLE_SDK/GD32VW55x_RELEASE_V1.0.2/MSDK/mbedtls/mbedtls-2.17.0-ssl/library\net_sockets.c ****         return( ret );
 212:C:/Users/stapi/OneDrive/Desktop/GD32VW553/GD32VW55X_Wifi_BLE_SDK/GD32VW55x_RELEASE_V1.0.2/MSDK/mbedtls/mbedtls-2.17.0-ssl/library\net_sockets.c **** 
 213:C:/Users/stapi/OneDrive/Desktop/GD32VW553/GD32VW55X_Wifi_BLE_SDK/GD32VW55x_RELEASE_V1.0.2/MSDK/mbedtls/mbedtls-2.17.0-ssl/library\net_sockets.c ****     /* Bind to IPv6 and/or IPv4, but only in the desired protocol */
 214:C:/Users/stapi/OneDrive/Desktop/GD32VW553/GD32VW55X_Wifi_BLE_SDK/GD32VW55x_RELEASE_V1.0.2/MSDK/mbedtls/mbedtls-2.17.0-ssl/library\net_sockets.c ****     memset( &hints, 0, sizeof( hints ) );
 215:C:/Users/stapi/OneDrive/Desktop/GD32VW553/GD32VW55X_Wifi_BLE_SDK/GD32VW55x_RELEASE_V1.0.2/MSDK/mbedtls/mbedtls-2.17.0-ssl/library\net_sockets.c ****     hints.ai_family = AF_UNSPEC;
 216:C:/Users/stapi/OneDrive/Desktop/GD32VW553/GD32VW55X_Wifi_BLE_SDK/GD32VW55x_RELEASE_V1.0.2/MSDK/mbedtls/mbedtls-2.17.0-ssl/library\net_sockets.c ****     hints.ai_socktype = proto == MBEDTLS_NET_PROTO_UDP ? SOCK_DGRAM : SOCK_STREAM;
 217:C:/Users/stapi/OneDrive/Desktop/GD32VW553/GD32VW55X_Wifi_BLE_SDK/GD32VW55x_RELEASE_V1.0.2/MSDK/mbedtls/mbedtls-2.17.0-ssl/library\net_sockets.c ****     hints.ai_protocol = proto == MBEDTLS_NET_PROTO_UDP ? IPPROTO_UDP : IPPROTO_TCP;
 218:C:/Users/stapi/OneDrive/Desktop/GD32VW553/GD32VW55X_Wifi_BLE_SDK/GD32VW55x_RELEASE_V1.0.2/MSDK/mbedtls/mbedtls-2.17.0-ssl/library\net_sockets.c ****    // if( bind_ip == NULL )
 219:C:/Users/stapi/OneDrive/Desktop/GD32VW553/GD32VW55X_Wifi_BLE_SDK/GD32VW55x_RELEASE_V1.0.2/MSDK/mbedtls/mbedtls-2.17.0-ssl/library\net_sockets.c ****    //     hints.ai_flags = AI_PASSIVE;
 220:C:/Users/stapi/OneDrive/Desktop/GD32VW553/GD32VW55X_Wifi_BLE_SDK/GD32VW55x_RELEASE_V1.0.2/MSDK/mbedtls/mbedtls-2.17.0-ssl/library\net_sockets.c **** 
 221:C:/Users/stapi/OneDrive/Desktop/GD32VW553/GD32VW55X_Wifi_BLE_SDK/GD32VW55x_RELEASE_V1.0.2/MSDK/mbedtls/mbedtls-2.17.0-ssl/library\net_sockets.c ****     if( getaddrinfo( bind_ip, port, &hints, &addr_list ) != 0 )
 222:C:/Users/stapi/OneDrive/Desktop/GD32VW553/GD32VW55X_Wifi_BLE_SDK/GD32VW55x_RELEASE_V1.0.2/MSDK/mbedtls/mbedtls-2.17.0-ssl/library\net_sockets.c ****         return( MBEDTLS_ERR_NET_UNKNOWN_HOST );
 223:C:/Users/stapi/OneDrive/Desktop/GD32VW553/GD32VW55X_Wifi_BLE_SDK/GD32VW55x_RELEASE_V1.0.2/MSDK/mbedtls/mbedtls-2.17.0-ssl/library\net_sockets.c **** 
 224:C:/Users/stapi/OneDrive/Desktop/GD32VW553/GD32VW55X_Wifi_BLE_SDK/GD32VW55x_RELEASE_V1.0.2/MSDK/mbedtls/mbedtls-2.17.0-ssl/library\net_sockets.c ****     /* Try the sockaddrs until a binding succeeds */
 225:C:/Users/stapi/OneDrive/Desktop/GD32VW553/GD32VW55X_Wifi_BLE_SDK/GD32VW55x_RELEASE_V1.0.2/MSDK/mbedtls/mbedtls-2.17.0-ssl/library\net_sockets.c ****     ret = MBEDTLS_ERR_NET_UNKNOWN_HOST;
 226:C:/Users/stapi/OneDrive/Desktop/GD32VW553/GD32VW55X_Wifi_BLE_SDK/GD32VW55x_RELEASE_V1.0.2/MSDK/mbedtls/mbedtls-2.17.0-ssl/library\net_sockets.c ****     for( cur = addr_list; cur != NULL; cur = cur->ai_next )
 227:C:/Users/stapi/OneDrive/Desktop/GD32VW553/GD32VW55X_Wifi_BLE_SDK/GD32VW55x_RELEASE_V1.0.2/MSDK/mbedtls/mbedtls-2.17.0-ssl/library\net_sockets.c ****     {
 228:C:/Users/stapi/OneDrive/Desktop/GD32VW553/GD32VW55X_Wifi_BLE_SDK/GD32VW55x_RELEASE_V1.0.2/MSDK/mbedtls/mbedtls-2.17.0-ssl/library\net_sockets.c ****         ctx->fd = (int) socket( cur->ai_family, cur->ai_socktype,
 229:C:/Users/stapi/OneDrive/Desktop/GD32VW553/GD32VW55X_Wifi_BLE_SDK/GD32VW55x_RELEASE_V1.0.2/MSDK/mbedtls/mbedtls-2.17.0-ssl/library\net_sockets.c ****                             cur->ai_protocol );
 230:C:/Users/stapi/OneDrive/Desktop/GD32VW553/GD32VW55X_Wifi_BLE_SDK/GD32VW55x_RELEASE_V1.0.2/MSDK/mbedtls/mbedtls-2.17.0-ssl/library\net_sockets.c ****         if( ctx->fd < 0 )
 231:C:/Users/stapi/OneDrive/Desktop/GD32VW553/GD32VW55X_Wifi_BLE_SDK/GD32VW55x_RELEASE_V1.0.2/MSDK/mbedtls/mbedtls-2.17.0-ssl/library\net_sockets.c ****         {
 232:C:/Users/stapi/OneDrive/Desktop/GD32VW553/GD32VW55X_Wifi_BLE_SDK/GD32VW55x_RELEASE_V1.0.2/MSDK/mbedtls/mbedtls-2.17.0-ssl/library\net_sockets.c ****             ret = MBEDTLS_ERR_NET_SOCKET_FAILED;
 233:C:/Users/stapi/OneDrive/Desktop/GD32VW553/GD32VW55X_Wifi_BLE_SDK/GD32VW55x_RELEASE_V1.0.2/MSDK/mbedtls/mbedtls-2.17.0-ssl/library\net_sockets.c ****             continue;
 234:C:/Users/stapi/OneDrive/Desktop/GD32VW553/GD32VW55X_Wifi_BLE_SDK/GD32VW55x_RELEASE_V1.0.2/MSDK/mbedtls/mbedtls-2.17.0-ssl/library\net_sockets.c ****         }
 235:C:/Users/stapi/OneDrive/Desktop/GD32VW553/GD32VW55X_Wifi_BLE_SDK/GD32VW55x_RELEASE_V1.0.2/MSDK/mbedtls/mbedtls-2.17.0-ssl/library\net_sockets.c **** 
 236:C:/Users/stapi/OneDrive/Desktop/GD32VW553/GD32VW55X_Wifi_BLE_SDK/GD32VW55x_RELEASE_V1.0.2/MSDK/mbedtls/mbedtls-2.17.0-ssl/library\net_sockets.c ****         n = 1;
 237:C:/Users/stapi/OneDrive/Desktop/GD32VW553/GD32VW55X_Wifi_BLE_SDK/GD32VW55x_RELEASE_V1.0.2/MSDK/mbedtls/mbedtls-2.17.0-ssl/library\net_sockets.c ****         if( setsockopt( ctx->fd, SOL_SOCKET, SO_REUSEADDR,
 238:C:/Users/stapi/OneDrive/Desktop/GD32VW553/GD32VW55X_Wifi_BLE_SDK/GD32VW55x_RELEASE_V1.0.2/MSDK/mbedtls/mbedtls-2.17.0-ssl/library\net_sockets.c ****                         (const char *) &n, sizeof( n ) ) != 0 )
 239:C:/Users/stapi/OneDrive/Desktop/GD32VW553/GD32VW55X_Wifi_BLE_SDK/GD32VW55x_RELEASE_V1.0.2/MSDK/mbedtls/mbedtls-2.17.0-ssl/library\net_sockets.c ****         {
 240:C:/Users/stapi/OneDrive/Desktop/GD32VW553/GD32VW55X_Wifi_BLE_SDK/GD32VW55x_RELEASE_V1.0.2/MSDK/mbedtls/mbedtls-2.17.0-ssl/library\net_sockets.c ****             close( ctx->fd );
 241:C:/Users/stapi/OneDrive/Desktop/GD32VW553/GD32VW55X_Wifi_BLE_SDK/GD32VW55x_RELEASE_V1.0.2/MSDK/mbedtls/mbedtls-2.17.0-ssl/library\net_sockets.c ****             ret = MBEDTLS_ERR_NET_SOCKET_FAILED;
 242:C:/Users/stapi/OneDrive/Desktop/GD32VW553/GD32VW55X_Wifi_BLE_SDK/GD32VW55x_RELEASE_V1.0.2/MSDK/mbedtls/mbedtls-2.17.0-ssl/library\net_sockets.c ****             continue;
 243:C:/Users/stapi/OneDrive/Desktop/GD32VW553/GD32VW55X_Wifi_BLE_SDK/GD32VW55x_RELEASE_V1.0.2/MSDK/mbedtls/mbedtls-2.17.0-ssl/library\net_sockets.c ****         }
 244:C:/Users/stapi/OneDrive/Desktop/GD32VW553/GD32VW55X_Wifi_BLE_SDK/GD32VW55x_RELEASE_V1.0.2/MSDK/mbedtls/mbedtls-2.17.0-ssl/library\net_sockets.c **** 
 245:C:/Users/stapi/OneDrive/Desktop/GD32VW553/GD32VW55X_Wifi_BLE_SDK/GD32VW55x_RELEASE_V1.0.2/MSDK/mbedtls/mbedtls-2.17.0-ssl/library\net_sockets.c ****         if( bind( ctx->fd, cur->ai_addr, MSVC_INT_CAST cur->ai_addrlen ) != 0 )
 246:C:/Users/stapi/OneDrive/Desktop/GD32VW553/GD32VW55X_Wifi_BLE_SDK/GD32VW55x_RELEASE_V1.0.2/MSDK/mbedtls/mbedtls-2.17.0-ssl/library\net_sockets.c ****         {
 247:C:/Users/stapi/OneDrive/Desktop/GD32VW553/GD32VW55X_Wifi_BLE_SDK/GD32VW55x_RELEASE_V1.0.2/MSDK/mbedtls/mbedtls-2.17.0-ssl/library\net_sockets.c ****             close( ctx->fd );
 248:C:/Users/stapi/OneDrive/Desktop/GD32VW553/GD32VW55X_Wifi_BLE_SDK/GD32VW55x_RELEASE_V1.0.2/MSDK/mbedtls/mbedtls-2.17.0-ssl/library\net_sockets.c ****             ret = MBEDTLS_ERR_NET_BIND_FAILED;
 249:C:/Users/stapi/OneDrive/Desktop/GD32VW553/GD32VW55X_Wifi_BLE_SDK/GD32VW55x_RELEASE_V1.0.2/MSDK/mbedtls/mbedtls-2.17.0-ssl/library\net_sockets.c ****             continue;
 250:C:/Users/stapi/OneDrive/Desktop/GD32VW553/GD32VW55X_Wifi_BLE_SDK/GD32VW55x_RELEASE_V1.0.2/MSDK/mbedtls/mbedtls-2.17.0-ssl/library\net_sockets.c ****         }
 251:C:/Users/stapi/OneDrive/Desktop/GD32VW553/GD32VW55X_Wifi_BLE_SDK/GD32VW55x_RELEASE_V1.0.2/MSDK/mbedtls/mbedtls-2.17.0-ssl/library\net_sockets.c **** 
 252:C:/Users/stapi/OneDrive/Desktop/GD32VW553/GD32VW55X_Wifi_BLE_SDK/GD32VW55x_RELEASE_V1.0.2/MSDK/mbedtls/mbedtls-2.17.0-ssl/library\net_sockets.c ****         /* Listen only makes sense for TCP */
 253:C:/Users/stapi/OneDrive/Desktop/GD32VW553/GD32VW55X_Wifi_BLE_SDK/GD32VW55x_RELEASE_V1.0.2/MSDK/mbedtls/mbedtls-2.17.0-ssl/library\net_sockets.c ****         if( proto == MBEDTLS_NET_PROTO_TCP )
 254:C:/Users/stapi/OneDrive/Desktop/GD32VW553/GD32VW55X_Wifi_BLE_SDK/GD32VW55x_RELEASE_V1.0.2/MSDK/mbedtls/mbedtls-2.17.0-ssl/library\net_sockets.c ****         {
 255:C:/Users/stapi/OneDrive/Desktop/GD32VW553/GD32VW55X_Wifi_BLE_SDK/GD32VW55x_RELEASE_V1.0.2/MSDK/mbedtls/mbedtls-2.17.0-ssl/library\net_sockets.c ****             if( listen( ctx->fd, MBEDTLS_NET_LISTEN_BACKLOG ) != 0 )
 256:C:/Users/stapi/OneDrive/Desktop/GD32VW553/GD32VW55X_Wifi_BLE_SDK/GD32VW55x_RELEASE_V1.0.2/MSDK/mbedtls/mbedtls-2.17.0-ssl/library\net_sockets.c ****             {
 257:C:/Users/stapi/OneDrive/Desktop/GD32VW553/GD32VW55X_Wifi_BLE_SDK/GD32VW55x_RELEASE_V1.0.2/MSDK/mbedtls/mbedtls-2.17.0-ssl/library\net_sockets.c ****                 close( ctx->fd );
 258:C:/Users/stapi/OneDrive/Desktop/GD32VW553/GD32VW55X_Wifi_BLE_SDK/GD32VW55x_RELEASE_V1.0.2/MSDK/mbedtls/mbedtls-2.17.0-ssl/library\net_sockets.c ****                 ret = MBEDTLS_ERR_NET_LISTEN_FAILED;
 259:C:/Users/stapi/OneDrive/Desktop/GD32VW553/GD32VW55X_Wifi_BLE_SDK/GD32VW55x_RELEASE_V1.0.2/MSDK/mbedtls/mbedtls-2.17.0-ssl/library\net_sockets.c ****                 continue;
 260:C:/Users/stapi/OneDrive/Desktop/GD32VW553/GD32VW55X_Wifi_BLE_SDK/GD32VW55x_RELEASE_V1.0.2/MSDK/mbedtls/mbedtls-2.17.0-ssl/library\net_sockets.c ****             }
 261:C:/Users/stapi/OneDrive/Desktop/GD32VW553/GD32VW55X_Wifi_BLE_SDK/GD32VW55x_RELEASE_V1.0.2/MSDK/mbedtls/mbedtls-2.17.0-ssl/library\net_sockets.c ****         }
 262:C:/Users/stapi/OneDrive/Desktop/GD32VW553/GD32VW55X_Wifi_BLE_SDK/GD32VW55x_RELEASE_V1.0.2/MSDK/mbedtls/mbedtls-2.17.0-ssl/library\net_sockets.c **** 
 263:C:/Users/stapi/OneDrive/Desktop/GD32VW553/GD32VW55X_Wifi_BLE_SDK/GD32VW55x_RELEASE_V1.0.2/MSDK/mbedtls/mbedtls-2.17.0-ssl/library\net_sockets.c ****         /* Bind was successful */
 264:C:/Users/stapi/OneDrive/Desktop/GD32VW553/GD32VW55X_Wifi_BLE_SDK/GD32VW55x_RELEASE_V1.0.2/MSDK/mbedtls/mbedtls-2.17.0-ssl/library\net_sockets.c ****         ret = 0;
 265:C:/Users/stapi/OneDrive/Desktop/GD32VW553/GD32VW55X_Wifi_BLE_SDK/GD32VW55x_RELEASE_V1.0.2/MSDK/mbedtls/mbedtls-2.17.0-ssl/library\net_sockets.c ****         break;
 266:C:/Users/stapi/OneDrive/Desktop/GD32VW553/GD32VW55X_Wifi_BLE_SDK/GD32VW55x_RELEASE_V1.0.2/MSDK/mbedtls/mbedtls-2.17.0-ssl/library\net_sockets.c ****     }
 267:C:/Users/stapi/OneDrive/Desktop/GD32VW553/GD32VW55X_Wifi_BLE_SDK/GD32VW55x_RELEASE_V1.0.2/MSDK/mbedtls/mbedtls-2.17.0-ssl/library\net_sockets.c **** 
 268:C:/Users/stapi/OneDrive/Desktop/GD32VW553/GD32VW55X_Wifi_BLE_SDK/GD32VW55x_RELEASE_V1.0.2/MSDK/mbedtls/mbedtls-2.17.0-ssl/library\net_sockets.c ****     freeaddrinfo( addr_list );
 269:C:/Users/stapi/OneDrive/Desktop/GD32VW553/GD32VW55X_Wifi_BLE_SDK/GD32VW55x_RELEASE_V1.0.2/MSDK/mbedtls/mbedtls-2.17.0-ssl/library\net_sockets.c **** 
 270:C:/Users/stapi/OneDrive/Desktop/GD32VW553/GD32VW55X_Wifi_BLE_SDK/GD32VW55x_RELEASE_V1.0.2/MSDK/mbedtls/mbedtls-2.17.0-ssl/library\net_sockets.c ****     return( ret );
 271:C:/Users/stapi/OneDrive/Desktop/GD32VW553/GD32VW55X_Wifi_BLE_SDK/GD32VW55x_RELEASE_V1.0.2/MSDK/mbedtls/mbedtls-2.17.0-ssl/library\net_sockets.c **** 
 272:C:/Users/stapi/OneDrive/Desktop/GD32VW553/GD32VW55X_Wifi_BLE_SDK/GD32VW55x_RELEASE_V1.0.2/MSDK/mbedtls/mbedtls-2.17.0-ssl/library\net_sockets.c **** }
 273:C:/Users/stapi/OneDrive/Desktop/GD32VW553/GD32VW55X_Wifi_BLE_SDK/GD32VW55x_RELEASE_V1.0.2/MSDK/mbedtls/mbedtls-2.17.0-ssl/library\net_sockets.c **** 
 274:C:/Users/stapi/OneDrive/Desktop/GD32VW553/GD32VW55X_Wifi_BLE_SDK/GD32VW55x_RELEASE_V1.0.2/MSDK/mbedtls/mbedtls-2.17.0-ssl/library\net_sockets.c **** #if ( defined(_WIN32) || defined(_WIN32_WCE) ) && !defined(EFIX64) && \
 275:C:/Users/stapi/OneDrive/Desktop/GD32VW553/GD32VW55X_Wifi_BLE_SDK/GD32VW55x_RELEASE_V1.0.2/MSDK/mbedtls/mbedtls-2.17.0-ssl/library\net_sockets.c ****     !defined(EFI32)
 276:C:/Users/stapi/OneDrive/Desktop/GD32VW553/GD32VW55X_Wifi_BLE_SDK/GD32VW55x_RELEASE_V1.0.2/MSDK/mbedtls/mbedtls-2.17.0-ssl/library\net_sockets.c **** /*
 277:C:/Users/stapi/OneDrive/Desktop/GD32VW553/GD32VW55X_Wifi_BLE_SDK/GD32VW55x_RELEASE_V1.0.2/MSDK/mbedtls/mbedtls-2.17.0-ssl/library\net_sockets.c ****  * Check if the requested operation would be blocking on a non-blocking socket
 278:C:/Users/stapi/OneDrive/Desktop/GD32VW553/GD32VW55X_Wifi_BLE_SDK/GD32VW55x_RELEASE_V1.0.2/MSDK/mbedtls/mbedtls-2.17.0-ssl/library\net_sockets.c ****  * and thus 'failed' with a negative return value.
 279:C:/Users/stapi/OneDrive/Desktop/GD32VW553/GD32VW55X_Wifi_BLE_SDK/GD32VW55x_RELEASE_V1.0.2/MSDK/mbedtls/mbedtls-2.17.0-ssl/library\net_sockets.c ****  */
 280:C:/Users/stapi/OneDrive/Desktop/GD32VW553/GD32VW55X_Wifi_BLE_SDK/GD32VW55x_RELEASE_V1.0.2/MSDK/mbedtls/mbedtls-2.17.0-ssl/library\net_sockets.c **** static int net_would_block( const mbedtls_net_context *ctx )
 281:C:/Users/stapi/OneDrive/Desktop/GD32VW553/GD32VW55X_Wifi_BLE_SDK/GD32VW55x_RELEASE_V1.0.2/MSDK/mbedtls/mbedtls-2.17.0-ssl/library\net_sockets.c **** {
 282:C:/Users/stapi/OneDrive/Desktop/GD32VW553/GD32VW55X_Wifi_BLE_SDK/GD32VW55x_RELEASE_V1.0.2/MSDK/mbedtls/mbedtls-2.17.0-ssl/library\net_sockets.c ****     ((void) ctx);
 283:C:/Users/stapi/OneDrive/Desktop/GD32VW553/GD32VW55X_Wifi_BLE_SDK/GD32VW55x_RELEASE_V1.0.2/MSDK/mbedtls/mbedtls-2.17.0-ssl/library\net_sockets.c ****     return( WSAGetLastError() == WSAEWOULDBLOCK );
 284:C:/Users/stapi/OneDrive/Desktop/GD32VW553/GD32VW55X_Wifi_BLE_SDK/GD32VW55x_RELEASE_V1.0.2/MSDK/mbedtls/mbedtls-2.17.0-ssl/library\net_sockets.c **** }
 285:C:/Users/stapi/OneDrive/Desktop/GD32VW553/GD32VW55X_Wifi_BLE_SDK/GD32VW55x_RELEASE_V1.0.2/MSDK/mbedtls/mbedtls-2.17.0-ssl/library\net_sockets.c **** #else
 286:C:/Users/stapi/OneDrive/Desktop/GD32VW553/GD32VW55X_Wifi_BLE_SDK/GD32VW55x_RELEASE_V1.0.2/MSDK/mbedtls/mbedtls-2.17.0-ssl/library\net_sockets.c **** /*
 287:C:/Users/stapi/OneDrive/Desktop/GD32VW553/GD32VW55X_Wifi_BLE_SDK/GD32VW55x_RELEASE_V1.0.2/MSDK/mbedtls/mbedtls-2.17.0-ssl/library\net_sockets.c ****  * Check if the requested operation would be blocking on a non-blocking socket
 288:C:/Users/stapi/OneDrive/Desktop/GD32VW553/GD32VW55X_Wifi_BLE_SDK/GD32VW55x_RELEASE_V1.0.2/MSDK/mbedtls/mbedtls-2.17.0-ssl/library\net_sockets.c ****  * and thus 'failed' with a negative return value.
 289:C:/Users/stapi/OneDrive/Desktop/GD32VW553/GD32VW55X_Wifi_BLE_SDK/GD32VW55x_RELEASE_V1.0.2/MSDK/mbedtls/mbedtls-2.17.0-ssl/library\net_sockets.c ****  *
 290:C:/Users/stapi/OneDrive/Desktop/GD32VW553/GD32VW55X_Wifi_BLE_SDK/GD32VW55x_RELEASE_V1.0.2/MSDK/mbedtls/mbedtls-2.17.0-ssl/library\net_sockets.c ****  * Note: on a blocking socket this function always returns 0!
 291:C:/Users/stapi/OneDrive/Desktop/GD32VW553/GD32VW55X_Wifi_BLE_SDK/GD32VW55x_RELEASE_V1.0.2/MSDK/mbedtls/mbedtls-2.17.0-ssl/library\net_sockets.c ****  */
 292:C:/Users/stapi/OneDrive/Desktop/GD32VW553/GD32VW55X_Wifi_BLE_SDK/GD32VW55x_RELEASE_V1.0.2/MSDK/mbedtls/mbedtls-2.17.0-ssl/library\net_sockets.c **** static int net_would_block( const mbedtls_net_context *ctx )
  15              		.loc 1 292 12
  16              		.cfi_startproc
  17 0000 17030000 		call	t0,__riscv_save_2
  17      E7020300 
  18              		.cfi_offset 9, -12
  19              		.cfi_offset 8, -8
  20              		.cfi_offset 1, -4
  21              		.cfi_def_cfa_offset 16
  22              	.LVL0:
 293:C:/Users/stapi/OneDrive/Desktop/GD32VW553/GD32VW55X_Wifi_BLE_SDK/GD32VW55x_RELEASE_V1.0.2/MSDK/mbedtls/mbedtls-2.17.0-ssl/library\net_sockets.c **** {
 294:C:/Users/stapi/OneDrive/Desktop/GD32VW553/GD32VW55X_Wifi_BLE_SDK/GD32VW55x_RELEASE_V1.0.2/MSDK/mbedtls/mbedtls-2.17.0-ssl/library\net_sockets.c ****     int err = errno;
  23              		.loc 1 294 5
  24              		.loc 1 294 9 is_stmt 0
  25 0008 B7040000 		lui	s1,%hi(errno)
  26 000c 03A40400 		lw	s0,%lo(errno)(s1)
  27              	.LVL1:
 295:C:/Users/stapi/OneDrive/Desktop/GD32VW553/GD32VW55X_Wifi_BLE_SDK/GD32VW55x_RELEASE_V1.0.2/MSDK/mbedtls/mbedtls-2.17.0-ssl/library\net_sockets.c **** 
 296:C:/Users/stapi/OneDrive/Desktop/GD32VW553/GD32VW55X_Wifi_BLE_SDK/GD32VW55x_RELEASE_V1.0.2/MSDK/mbedtls/mbedtls-2.17.0-ssl/library\net_sockets.c ****     /*
 297:C:/Users/stapi/OneDrive/Desktop/GD32VW553/GD32VW55X_Wifi_BLE_SDK/GD32VW55x_RELEASE_V1.0.2/MSDK/mbedtls/mbedtls-2.17.0-ssl/library\net_sockets.c ****      * Never return 'WOULD BLOCK' on a non-blocking socket
 298:C:/Users/stapi/OneDrive/Desktop/GD32VW553/GD32VW55X_Wifi_BLE_SDK/GD32VW55x_RELEASE_V1.0.2/MSDK/mbedtls/mbedtls-2.17.0-ssl/library\net_sockets.c ****      */
 299:C:/Users/stapi/OneDrive/Desktop/GD32VW553/GD32VW55X_Wifi_BLE_SDK/GD32VW55x_RELEASE_V1.0.2/MSDK/mbedtls/mbedtls-2.17.0-ssl/library\net_sockets.c ****     if( ( fcntl( ctx->fd, F_GETFL, 0) & O_NONBLOCK ) != O_NONBLOCK )
  28              		.loc 1 299 5 is_stmt 1
  29              		.loc 1 299 11 is_stmt 0
  30 0010 0146     		li	a2,0
  31 0012 8D45     		li	a1,3
  32 0014 97000000 		call	lwip_fcntl
  32      E7800000 
  33              	.LVL2:
  34              		.loc 1 299 39
  35 001c 0589     		andi	a0,a0,1
 300:C:/Users/stapi/OneDrive/Desktop/GD32VW553/GD32VW55X_Wifi_BLE_SDK/GD32VW55x_RELEASE_V1.0.2/MSDK/mbedtls/mbedtls-2.17.0-ssl/library\net_sockets.c ****     {
 301:C:/Users/stapi/OneDrive/Desktop/GD32VW553/GD32VW55X_Wifi_BLE_SDK/GD32VW55x_RELEASE_V1.0.2/MSDK/mbedtls/mbedtls-2.17.0-ssl/library\net_sockets.c ****         errno = err;
  36              		.loc 1 301 15
  37 001e 23A08400 		sw	s0,%lo(errno)(s1)
 299:C:/Users/stapi/OneDrive/Desktop/GD32VW553/GD32VW55X_Wifi_BLE_SDK/GD32VW55x_RELEASE_V1.0.2/MSDK/mbedtls/mbedtls-2.17.0-ssl/library\net_sockets.c ****     {
  38              		.loc 1 299 7
  39 0022 09E5     		bne	a0,zero,.L2
  40              	.L1:
 302:C:/Users/stapi/OneDrive/Desktop/GD32VW553/GD32VW55X_Wifi_BLE_SDK/GD32VW55x_RELEASE_V1.0.2/MSDK/mbedtls/mbedtls-2.17.0-ssl/library\net_sockets.c ****         return( 0 );
 303:C:/Users/stapi/OneDrive/Desktop/GD32VW553/GD32VW55X_Wifi_BLE_SDK/GD32VW55x_RELEASE_V1.0.2/MSDK/mbedtls/mbedtls-2.17.0-ssl/library\net_sockets.c ****     }
 304:C:/Users/stapi/OneDrive/Desktop/GD32VW553/GD32VW55X_Wifi_BLE_SDK/GD32VW55x_RELEASE_V1.0.2/MSDK/mbedtls/mbedtls-2.17.0-ssl/library\net_sockets.c **** 
 305:C:/Users/stapi/OneDrive/Desktop/GD32VW553/GD32VW55X_Wifi_BLE_SDK/GD32VW55x_RELEASE_V1.0.2/MSDK/mbedtls/mbedtls-2.17.0-ssl/library\net_sockets.c ****     switch( errno = err )
 306:C:/Users/stapi/OneDrive/Desktop/GD32VW553/GD32VW55X_Wifi_BLE_SDK/GD32VW55x_RELEASE_V1.0.2/MSDK/mbedtls/mbedtls-2.17.0-ssl/library\net_sockets.c ****     {
 307:C:/Users/stapi/OneDrive/Desktop/GD32VW553/GD32VW55X_Wifi_BLE_SDK/GD32VW55x_RELEASE_V1.0.2/MSDK/mbedtls/mbedtls-2.17.0-ssl/library\net_sockets.c **** #if defined EAGAIN
 308:C:/Users/stapi/OneDrive/Desktop/GD32VW553/GD32VW55X_Wifi_BLE_SDK/GD32VW55x_RELEASE_V1.0.2/MSDK/mbedtls/mbedtls-2.17.0-ssl/library\net_sockets.c ****         case EAGAIN:
 309:C:/Users/stapi/OneDrive/Desktop/GD32VW553/GD32VW55X_Wifi_BLE_SDK/GD32VW55x_RELEASE_V1.0.2/MSDK/mbedtls/mbedtls-2.17.0-ssl/library\net_sockets.c **** #endif
 310:C:/Users/stapi/OneDrive/Desktop/GD32VW553/GD32VW55X_Wifi_BLE_SDK/GD32VW55x_RELEASE_V1.0.2/MSDK/mbedtls/mbedtls-2.17.0-ssl/library\net_sockets.c **** #if defined EWOULDBLOCK && EWOULDBLOCK != EAGAIN
 311:C:/Users/stapi/OneDrive/Desktop/GD32VW553/GD32VW55X_Wifi_BLE_SDK/GD32VW55x_RELEASE_V1.0.2/MSDK/mbedtls/mbedtls-2.17.0-ssl/library\net_sockets.c ****         case EWOULDBLOCK:
 312:C:/Users/stapi/OneDrive/Desktop/GD32VW553/GD32VW55X_Wifi_BLE_SDK/GD32VW55x_RELEASE_V1.0.2/MSDK/mbedtls/mbedtls-2.17.0-ssl/library\net_sockets.c **** #endif
 313:C:/Users/stapi/OneDrive/Desktop/GD32VW553/GD32VW55X_Wifi_BLE_SDK/GD32VW55x_RELEASE_V1.0.2/MSDK/mbedtls/mbedtls-2.17.0-ssl/library\net_sockets.c ****             return( 1 );
 314:C:/Users/stapi/OneDrive/Desktop/GD32VW553/GD32VW55X_Wifi_BLE_SDK/GD32VW55x_RELEASE_V1.0.2/MSDK/mbedtls/mbedtls-2.17.0-ssl/library\net_sockets.c ****     }
 315:C:/Users/stapi/OneDrive/Desktop/GD32VW553/GD32VW55X_Wifi_BLE_SDK/GD32VW55x_RELEASE_V1.0.2/MSDK/mbedtls/mbedtls-2.17.0-ssl/library\net_sockets.c ****     return( 0 );
 316:C:/Users/stapi/OneDrive/Desktop/GD32VW553/GD32VW55X_Wifi_BLE_SDK/GD32VW55x_RELEASE_V1.0.2/MSDK/mbedtls/mbedtls-2.17.0-ssl/library\net_sockets.c **** }
  41              		.loc 1 316 1
  42 0024 17030000 		tail	__riscv_restore_2
  42      67000300 
  43              		.cfi_remember_state
  44              		.cfi_restore 9
  45              		.cfi_restore 8
  46              		.cfi_restore 1
  47              		.cfi_def_cfa_offset 0
  48              	.L2:
  49              		.cfi_restore_state
 305:C:/Users/stapi/OneDrive/Desktop/GD32VW553/GD32VW55X_Wifi_BLE_SDK/GD32VW55x_RELEASE_V1.0.2/MSDK/mbedtls/mbedtls-2.17.0-ssl/library\net_sockets.c ****     {
  50              		.loc 1 305 5 is_stmt 1
  51 002c 130554FF 		addi	a0,s0,-11
  52 0030 13351500 		seqz	a0,a0
  53 0034 C5BF     		j	.L1
  54              		.cfi_endproc
  55              	.LFE398:
  57              		.section	.text.mbedtls_net_init,"ax",@progbits
  58              		.align	1
  59              		.globl	mbedtls_net_init
  61              	mbedtls_net_init:
  62              	.LFB384:
 150:C:/Users/stapi/OneDrive/Desktop/GD32VW553/GD32VW55X_Wifi_BLE_SDK/GD32VW55x_RELEASE_V1.0.2/MSDK/mbedtls/mbedtls-2.17.0-ssl/library\net_sockets.c ****     ctx->fd = -1;
  63              		.loc 1 150 1
  64              		.cfi_startproc
  65              	.LVL3:
 151:C:/Users/stapi/OneDrive/Desktop/GD32VW553/GD32VW55X_Wifi_BLE_SDK/GD32VW55x_RELEASE_V1.0.2/MSDK/mbedtls/mbedtls-2.17.0-ssl/library\net_sockets.c **** }
  66              		.loc 1 151 5
 151:C:/Users/stapi/OneDrive/Desktop/GD32VW553/GD32VW55X_Wifi_BLE_SDK/GD32VW55x_RELEASE_V1.0.2/MSDK/mbedtls/mbedtls-2.17.0-ssl/library\net_sockets.c **** }
  67              		.loc 1 151 13 is_stmt 0
  68 0000 FD57     		li	a5,-1
  69 0002 1CC1     		sw	a5,0(a0)
 152:C:/Users/stapi/OneDrive/Desktop/GD32VW553/GD32VW55X_Wifi_BLE_SDK/GD32VW55x_RELEASE_V1.0.2/MSDK/mbedtls/mbedtls-2.17.0-ssl/library\net_sockets.c **** 
  70              		.loc 1 152 1
  71 0004 8280     		ret
  72              		.cfi_endproc
  73              	.LFE384:
  75              		.section	.text.mbedtls_net_connect,"ax",@progbits
  76              		.align	1
  77              		.globl	mbedtls_net_connect
  79              	mbedtls_net_connect:
  80              	.LFB385:
 159:C:/Users/stapi/OneDrive/Desktop/GD32VW553/GD32VW55X_Wifi_BLE_SDK/GD32VW55x_RELEASE_V1.0.2/MSDK/mbedtls/mbedtls-2.17.0-ssl/library\net_sockets.c ****     int ret;
  81              		.loc 1 159 1 is_stmt 1
  82              		.cfi_startproc
  83              	.LVL4:
  84 0000 17030000 		call	t0,__riscv_save_4
  84      E7020300 
  85              		.cfi_offset 19, -20
  86              		.cfi_offset 18, -16
  87              		.cfi_offset 9, -12
  88              		.cfi_offset 8, -8
  89              		.cfi_offset 1, -4
  90              		.cfi_def_cfa_offset 32
 160:C:/Users/stapi/OneDrive/Desktop/GD32VW553/GD32VW55X_Wifi_BLE_SDK/GD32VW55x_RELEASE_V1.0.2/MSDK/mbedtls/mbedtls-2.17.0-ssl/library\net_sockets.c ****     struct addrinfo hints, *addr_list, *cur;
  91              		.loc 1 160 5
 161:C:/Users/stapi/OneDrive/Desktop/GD32VW553/GD32VW55X_Wifi_BLE_SDK/GD32VW55x_RELEASE_V1.0.2/MSDK/mbedtls/mbedtls-2.17.0-ssl/library\net_sockets.c **** 
  92              		.loc 1 161 5
 163:C:/Users/stapi/OneDrive/Desktop/GD32VW553/GD32VW55X_Wifi_BLE_SDK/GD32VW55x_RELEASE_V1.0.2/MSDK/mbedtls/mbedtls-2.17.0-ssl/library\net_sockets.c ****         return( ret );
  93              		.loc 1 163 5
 143:C:/Users/stapi/OneDrive/Desktop/GD32VW553/GD32VW55X_Wifi_BLE_SDK/GD32VW55x_RELEASE_V1.0.2/MSDK/mbedtls/mbedtls-2.17.0-ssl/library\net_sockets.c **** }
  94              		.loc 1 143 5
  95              	.LVL5:
 167:C:/Users/stapi/OneDrive/Desktop/GD32VW553/GD32VW55X_Wifi_BLE_SDK/GD32VW55x_RELEASE_V1.0.2/MSDK/mbedtls/mbedtls-2.17.0-ssl/library\net_sockets.c ****     hints.ai_family = AF_UNSPEC;
  96              		.loc 1 167 5
 159:C:/Users/stapi/OneDrive/Desktop/GD32VW553/GD32VW55X_Wifi_BLE_SDK/GD32VW55x_RELEASE_V1.0.2/MSDK/mbedtls/mbedtls-2.17.0-ssl/library\net_sockets.c ****     int ret;
  97              		.loc 1 159 1 is_stmt 0
  98 0008 7971     		addi	sp,sp,-48
  99              		.cfi_def_cfa_offset 80
 159:C:/Users/stapi/OneDrive/Desktop/GD32VW553/GD32VW55X_Wifi_BLE_SDK/GD32VW55x_RELEASE_V1.0.2/MSDK/mbedtls/mbedtls-2.17.0-ssl/library\net_sockets.c ****     int ret;
 100              		.loc 1 159 1
 101 000a 2A89     		mv	s2,a0
 102 000c AE84     		mv	s1,a1
 103 000e B289     		mv	s3,a2
 167:C:/Users/stapi/OneDrive/Desktop/GD32VW553/GD32VW55X_Wifi_BLE_SDK/GD32VW55x_RELEASE_V1.0.2/MSDK/mbedtls/mbedtls-2.17.0-ssl/library\net_sockets.c ****     hints.ai_family = AF_UNSPEC;
 104              		.loc 1 167 5
 105 0010 8145     		li	a1,0
 106              	.LVL6:
 107 0012 13060002 		li	a2,32
 108              	.LVL7:
 109 0016 0808     		addi	a0,sp,16
 110              	.LVL8:
 159:C:/Users/stapi/OneDrive/Desktop/GD32VW553/GD32VW55X_Wifi_BLE_SDK/GD32VW55x_RELEASE_V1.0.2/MSDK/mbedtls/mbedtls-2.17.0-ssl/library\net_sockets.c ****     int ret;
 111              		.loc 1 159 1
 112 0018 3684     		mv	s0,a3
 167:C:/Users/stapi/OneDrive/Desktop/GD32VW553/GD32VW55X_Wifi_BLE_SDK/GD32VW55x_RELEASE_V1.0.2/MSDK/mbedtls/mbedtls-2.17.0-ssl/library\net_sockets.c ****     hints.ai_family = AF_UNSPEC;
 113              		.loc 1 167 5
 114 001a 97000000 		call	memset
 114      E7800000 
 115              	.LVL9:
 168:C:/Users/stapi/OneDrive/Desktop/GD32VW553/GD32VW55X_Wifi_BLE_SDK/GD32VW55x_RELEASE_V1.0.2/MSDK/mbedtls/mbedtls-2.17.0-ssl/library\net_sockets.c ****     hints.ai_socktype = proto == MBEDTLS_NET_PROTO_UDP ? SOCK_DGRAM : SOCK_STREAM;
 116              		.loc 1 168 5 is_stmt 1
 169:C:/Users/stapi/OneDrive/Desktop/GD32VW553/GD32VW55X_Wifi_BLE_SDK/GD32VW55x_RELEASE_V1.0.2/MSDK/mbedtls/mbedtls-2.17.0-ssl/library\net_sockets.c ****     hints.ai_protocol = proto == MBEDTLS_NET_PROTO_UDP ? IPPROTO_UDP : IPPROTO_TCP;
 117              		.loc 1 169 5
 169:C:/Users/stapi/OneDrive/Desktop/GD32VW553/GD32VW55X_Wifi_BLE_SDK/GD32VW55x_RELEASE_V1.0.2/MSDK/mbedtls/mbedtls-2.17.0-ssl/library\net_sockets.c ****     hints.ai_protocol = proto == MBEDTLS_NET_PROTO_UDP ? IPPROTO_UDP : IPPROTO_TCP;
 118              		.loc 1 169 69 is_stmt 0
 119 0022 0547     		li	a4,1
 120 0024 8547     		li	a5,1
 121 0026 6313E400 		bne	s0,a4,.L7
 122 002a 8947     		li	a5,2
 123              	.L7:
 169:C:/Users/stapi/OneDrive/Desktop/GD32VW553/GD32VW55X_Wifi_BLE_SDK/GD32VW55x_RELEASE_V1.0.2/MSDK/mbedtls/mbedtls-2.17.0-ssl/library\net_sockets.c ****     hints.ai_protocol = proto == MBEDTLS_NET_PROTO_UDP ? IPPROTO_UDP : IPPROTO_TCP;
 124              		.loc 1 169 23 discriminator 4
 125 002c 3ECC     		sw	a5,24(sp)
 170:C:/Users/stapi/OneDrive/Desktop/GD32VW553/GD32VW55X_Wifi_BLE_SDK/GD32VW55x_RELEASE_V1.0.2/MSDK/mbedtls/mbedtls-2.17.0-ssl/library\net_sockets.c **** 
 126              		.loc 1 170 5 is_stmt 1 discriminator 4
 170:C:/Users/stapi/OneDrive/Desktop/GD32VW553/GD32VW55X_Wifi_BLE_SDK/GD32VW55x_RELEASE_V1.0.2/MSDK/mbedtls/mbedtls-2.17.0-ssl/library\net_sockets.c **** 
 127              		.loc 1 170 70 is_stmt 0 discriminator 4
 128 002e 0547     		li	a4,1
 129 0030 C547     		li	a5,17
 130 0032 6303E400 		beq	s0,a4,.L8
 170:C:/Users/stapi/OneDrive/Desktop/GD32VW553/GD32VW55X_Wifi_BLE_SDK/GD32VW55x_RELEASE_V1.0.2/MSDK/mbedtls/mbedtls-2.17.0-ssl/library\net_sockets.c **** 
 131              		.loc 1 170 70
 132 0036 9947     		li	a5,6
 133              	.L8:
 172:C:/Users/stapi/OneDrive/Desktop/GD32VW553/GD32VW55X_Wifi_BLE_SDK/GD32VW55x_RELEASE_V1.0.2/MSDK/mbedtls/mbedtls-2.17.0-ssl/library\net_sockets.c ****         return( MBEDTLS_ERR_NET_UNKNOWN_HOST );
 134              		.loc 1 172 9 discriminator 4
 135 0038 7400     		addi	a3,sp,12
 136 003a 1008     		addi	a2,sp,16
 137 003c CE85     		mv	a1,s3
 138 003e 2685     		mv	a0,s1
 170:C:/Users/stapi/OneDrive/Desktop/GD32VW553/GD32VW55X_Wifi_BLE_SDK/GD32VW55x_RELEASE_V1.0.2/MSDK/mbedtls/mbedtls-2.17.0-ssl/library\net_sockets.c **** 
 139              		.loc 1 170 23 discriminator 4
 140 0040 3ECE     		sw	a5,28(sp)
 172:C:/Users/stapi/OneDrive/Desktop/GD32VW553/GD32VW55X_Wifi_BLE_SDK/GD32VW55x_RELEASE_V1.0.2/MSDK/mbedtls/mbedtls-2.17.0-ssl/library\net_sockets.c ****         return( MBEDTLS_ERR_NET_UNKNOWN_HOST );
 141              		.loc 1 172 5 is_stmt 1 discriminator 4
 172:C:/Users/stapi/OneDrive/Desktop/GD32VW553/GD32VW55X_Wifi_BLE_SDK/GD32VW55x_RELEASE_V1.0.2/MSDK/mbedtls/mbedtls-2.17.0-ssl/library\net_sockets.c ****         return( MBEDTLS_ERR_NET_UNKNOWN_HOST );
 142              		.loc 1 172 9 is_stmt 0 discriminator 4
 143 0042 97000000 		call	lwip_getaddrinfo
 143      E7800000 
 144              	.LVL10:
 173:C:/Users/stapi/OneDrive/Desktop/GD32VW553/GD32VW55X_Wifi_BLE_SDK/GD32VW55x_RELEASE_V1.0.2/MSDK/mbedtls/mbedtls-2.17.0-ssl/library\net_sockets.c **** 
 145              		.loc 1 173 15 discriminator 4
 146 004a 1304E0FA 		li	s0,-82
 147              	.LVL11:
 172:C:/Users/stapi/OneDrive/Desktop/GD32VW553/GD32VW55X_Wifi_BLE_SDK/GD32VW55x_RELEASE_V1.0.2/MSDK/mbedtls/mbedtls-2.17.0-ssl/library\net_sockets.c ****         return( MBEDTLS_ERR_NET_UNKNOWN_HOST );
 148              		.loc 1 172 7 discriminator 4
 149 004e 01E9     		bne	a0,zero,.L6
 176:C:/Users/stapi/OneDrive/Desktop/GD32VW553/GD32VW55X_Wifi_BLE_SDK/GD32VW55x_RELEASE_V1.0.2/MSDK/mbedtls/mbedtls-2.17.0-ssl/library\net_sockets.c ****     for( cur = addr_list; cur != NULL; cur = cur->ai_next )
 150              		.loc 1 176 5 is_stmt 1
 151              	.LVL12:
 177:C:/Users/stapi/OneDrive/Desktop/GD32VW553/GD32VW55X_Wifi_BLE_SDK/GD32VW55x_RELEASE_V1.0.2/MSDK/mbedtls/mbedtls-2.17.0-ssl/library\net_sockets.c ****     {
 152              		.loc 1 177 5
 177:C:/Users/stapi/OneDrive/Desktop/GD32VW553/GD32VW55X_Wifi_BLE_SDK/GD32VW55x_RELEASE_V1.0.2/MSDK/mbedtls/mbedtls-2.17.0-ssl/library\net_sockets.c ****     {
 153              		.loc 1 177 14 is_stmt 0
 154 0050 B244     		lw	s1,12(sp)
 155              	.LVL13:
 156              	.L10:
 177:C:/Users/stapi/OneDrive/Desktop/GD32VW553/GD32VW55X_Wifi_BLE_SDK/GD32VW55x_RELEASE_V1.0.2/MSDK/mbedtls/mbedtls-2.17.0-ssl/library\net_sockets.c ****     {
 157              		.loc 1 177 27 is_stmt 1 discriminator 1
 177:C:/Users/stapi/OneDrive/Desktop/GD32VW553/GD32VW55X_Wifi_BLE_SDK/GD32VW55x_RELEASE_V1.0.2/MSDK/mbedtls/mbedtls-2.17.0-ssl/library\net_sockets.c ****     {
 158              		.loc 1 177 5 is_stmt 0 discriminator 1
 159 0052 81EC     		bne	s1,zero,.L13
 160              	.LVL14:
 161              	.L12:
 197:C:/Users/stapi/OneDrive/Desktop/GD32VW553/GD32VW55X_Wifi_BLE_SDK/GD32VW55x_RELEASE_V1.0.2/MSDK/mbedtls/mbedtls-2.17.0-ssl/library\net_sockets.c **** 
 162              		.loc 1 197 5 is_stmt 1
 163 0054 3245     		lw	a0,12(sp)
 164 0056 97000000 		call	lwip_freeaddrinfo
 164      E7800000 
 165              	.LVL15:
 199:C:/Users/stapi/OneDrive/Desktop/GD32VW553/GD32VW55X_Wifi_BLE_SDK/GD32VW55x_RELEASE_V1.0.2/MSDK/mbedtls/mbedtls-2.17.0-ssl/library\net_sockets.c **** }
 166              		.loc 1 199 5
 167              	.L6:
 200:C:/Users/stapi/OneDrive/Desktop/GD32VW553/GD32VW55X_Wifi_BLE_SDK/GD32VW55x_RELEASE_V1.0.2/MSDK/mbedtls/mbedtls-2.17.0-ssl/library\net_sockets.c **** 
 168              		.loc 1 200 1 is_stmt 0
 169 005e 2285     		mv	a0,s0
 170 0060 4561     		addi	sp,sp,48
 171              		.cfi_remember_state
 172              		.cfi_def_cfa_offset 0
 173 0062 17030000 		tail	__riscv_restore_4
 173      67000300 
 174              		.cfi_restore 19
 175              		.cfi_restore 18
 176              		.cfi_restore 9
 177              		.cfi_restore 8
 178              		.cfi_restore 1
 179              		.cfi_def_cfa_offset -32
 180              	.LVL16:
 181              	.L13:
 182              		.cfi_restore_state
 179:C:/Users/stapi/OneDrive/Desktop/GD32VW553/GD32VW55X_Wifi_BLE_SDK/GD32VW55x_RELEASE_V1.0.2/MSDK/mbedtls/mbedtls-2.17.0-ssl/library\net_sockets.c ****                             cur->ai_protocol );
 183              		.loc 1 179 9 is_stmt 1
 179:C:/Users/stapi/OneDrive/Desktop/GD32VW553/GD32VW55X_Wifi_BLE_SDK/GD32VW55x_RELEASE_V1.0.2/MSDK/mbedtls/mbedtls-2.17.0-ssl/library\net_sockets.c ****                             cur->ai_protocol );
 184              		.loc 1 179 19 is_stmt 0
 185 006a D044     		lw	a2,12(s1)
 186 006c 8C44     		lw	a1,8(s1)
 187 006e C840     		lw	a0,4(s1)
 188 0070 97000000 		call	lwip_socket
 188      E7800000 
 189              	.LVL17:
 179:C:/Users/stapi/OneDrive/Desktop/GD32VW553/GD32VW55X_Wifi_BLE_SDK/GD32VW55x_RELEASE_V1.0.2/MSDK/mbedtls/mbedtls-2.17.0-ssl/library\net_sockets.c ****                             cur->ai_protocol );
 190              		.loc 1 179 17
 191 0078 2320A900 		sw	a0,0(s2)
 181:C:/Users/stapi/OneDrive/Desktop/GD32VW553/GD32VW55X_Wifi_BLE_SDK/GD32VW55x_RELEASE_V1.0.2/MSDK/mbedtls/mbedtls-2.17.0-ssl/library\net_sockets.c ****         {
 192              		.loc 1 181 9 is_stmt 1
 181:C:/Users/stapi/OneDrive/Desktop/GD32VW553/GD32VW55X_Wifi_BLE_SDK/GD32VW55x_RELEASE_V1.0.2/MSDK/mbedtls/mbedtls-2.17.0-ssl/library\net_sockets.c ****         {
 193              		.loc 1 181 11 is_stmt 0
 194 007c 63440502 		blt	a0,zero,.L17
 187:C:/Users/stapi/OneDrive/Desktop/GD32VW553/GD32VW55X_Wifi_BLE_SDK/GD32VW55x_RELEASE_V1.0.2/MSDK/mbedtls/mbedtls-2.17.0-ssl/library\net_sockets.c ****         {
 195              		.loc 1 187 9 is_stmt 1
 187:C:/Users/stapi/OneDrive/Desktop/GD32VW553/GD32VW55X_Wifi_BLE_SDK/GD32VW55x_RELEASE_V1.0.2/MSDK/mbedtls/mbedtls-2.17.0-ssl/library\net_sockets.c ****         {
 196              		.loc 1 187 13 is_stmt 0
 197 0080 9048     		lw	a2,16(s1)
 198 0082 CC48     		lw	a1,20(s1)
 199 0084 97000000 		call	lwip_connect
 199      E7800000 
 200              	.LVL18:
 201 008c 2A84     		mv	s0,a0
 202              	.LVL19:
 187:C:/Users/stapi/OneDrive/Desktop/GD32VW553/GD32VW55X_Wifi_BLE_SDK/GD32VW55x_RELEASE_V1.0.2/MSDK/mbedtls/mbedtls-2.17.0-ssl/library\net_sockets.c ****         {
 203              		.loc 1 187 11
 204 008e 79D1     		beq	a0,zero,.L12
 193:C:/Users/stapi/OneDrive/Desktop/GD32VW553/GD32VW55X_Wifi_BLE_SDK/GD32VW55x_RELEASE_V1.0.2/MSDK/mbedtls/mbedtls-2.17.0-ssl/library\net_sockets.c ****         ret = MBEDTLS_ERR_NET_CONNECT_FAILED;
 205              		.loc 1 193 9 is_stmt 1
 206 0090 03250900 		lw	a0,0(s2)
 194:C:/Users/stapi/OneDrive/Desktop/GD32VW553/GD32VW55X_Wifi_BLE_SDK/GD32VW55x_RELEASE_V1.0.2/MSDK/mbedtls/mbedtls-2.17.0-ssl/library\net_sockets.c ****     }
 207              		.loc 1 194 13 is_stmt 0
 208 0094 1304C0FB 		li	s0,-68
 193:C:/Users/stapi/OneDrive/Desktop/GD32VW553/GD32VW55X_Wifi_BLE_SDK/GD32VW55x_RELEASE_V1.0.2/MSDK/mbedtls/mbedtls-2.17.0-ssl/library\net_sockets.c ****         ret = MBEDTLS_ERR_NET_CONNECT_FAILED;
 209              		.loc 1 193 9
 210 0098 97000000 		call	lwip_close
 210      E7800000 
 211              	.LVL20:
 194:C:/Users/stapi/OneDrive/Desktop/GD32VW553/GD32VW55X_Wifi_BLE_SDK/GD32VW55x_RELEASE_V1.0.2/MSDK/mbedtls/mbedtls-2.17.0-ssl/library\net_sockets.c ****     }
 212              		.loc 1 194 9 is_stmt 1
 213              	.L11:
 177:C:/Users/stapi/OneDrive/Desktop/GD32VW553/GD32VW55X_Wifi_BLE_SDK/GD32VW55x_RELEASE_V1.0.2/MSDK/mbedtls/mbedtls-2.17.0-ssl/library\net_sockets.c ****     {
 214              		.loc 1 177 40 discriminator 2
 177:C:/Users/stapi/OneDrive/Desktop/GD32VW553/GD32VW55X_Wifi_BLE_SDK/GD32VW55x_RELEASE_V1.0.2/MSDK/mbedtls/mbedtls-2.17.0-ssl/library\net_sockets.c ****     {
 215              		.loc 1 177 44 is_stmt 0 discriminator 2
 216 00a0 C44C     		lw	s1,28(s1)
 217              	.LVL21:
 218 00a2 45BF     		j	.L10
 219              	.L17:
 183:C:/Users/stapi/OneDrive/Desktop/GD32VW553/GD32VW55X_Wifi_BLE_SDK/GD32VW55x_RELEASE_V1.0.2/MSDK/mbedtls/mbedtls-2.17.0-ssl/library\net_sockets.c ****             continue;
 220              		.loc 1 183 17
 221 00a4 1304E0FB 		li	s0,-66
 222              	.LVL22:
 223 00a8 E5BF     		j	.L11
 224              		.cfi_endproc
 225              	.LFE385:
 227              		.section	.text.mbedtls_net_bind,"ax",@progbits
 228              		.align	1
 229              		.globl	mbedtls_net_bind
 231              	mbedtls_net_bind:
 232              	.LFB386:
 206:C:/Users/stapi/OneDrive/Desktop/GD32VW553/GD32VW55X_Wifi_BLE_SDK/GD32VW55x_RELEASE_V1.0.2/MSDK/mbedtls/mbedtls-2.17.0-ssl/library\net_sockets.c ****     int n, ret;
 233              		.loc 1 206 1 is_stmt 1
 234              		.cfi_startproc
 235              	.LVL23:
 236 0000 17030000 		call	t0,__riscv_save_6
 236      E7020300 
 237              		.cfi_offset 21, -28
 238              		.cfi_offset 20, -24
 239              		.cfi_offset 19, -20
 240              		.cfi_offset 18, -16
 241              		.cfi_offset 9, -12
 242              		.cfi_offset 8, -8
 243              		.cfi_offset 1, -4
 244              		.cfi_def_cfa_offset 32
 207:C:/Users/stapi/OneDrive/Desktop/GD32VW553/GD32VW55X_Wifi_BLE_SDK/GD32VW55x_RELEASE_V1.0.2/MSDK/mbedtls/mbedtls-2.17.0-ssl/library\net_sockets.c ****     struct addrinfo hints, *addr_list, *cur;
 245              		.loc 1 207 5
 208:C:/Users/stapi/OneDrive/Desktop/GD32VW553/GD32VW55X_Wifi_BLE_SDK/GD32VW55x_RELEASE_V1.0.2/MSDK/mbedtls/mbedtls-2.17.0-ssl/library\net_sockets.c **** 
 246              		.loc 1 208 5
 210:C:/Users/stapi/OneDrive/Desktop/GD32VW553/GD32VW55X_Wifi_BLE_SDK/GD32VW55x_RELEASE_V1.0.2/MSDK/mbedtls/mbedtls-2.17.0-ssl/library\net_sockets.c ****         return( ret );
 247              		.loc 1 210 5
 143:C:/Users/stapi/OneDrive/Desktop/GD32VW553/GD32VW55X_Wifi_BLE_SDK/GD32VW55x_RELEASE_V1.0.2/MSDK/mbedtls/mbedtls-2.17.0-ssl/library\net_sockets.c **** }
 248              		.loc 1 143 5
 249              	.LVL24:
 214:C:/Users/stapi/OneDrive/Desktop/GD32VW553/GD32VW55X_Wifi_BLE_SDK/GD32VW55x_RELEASE_V1.0.2/MSDK/mbedtls/mbedtls-2.17.0-ssl/library\net_sockets.c ****     hints.ai_family = AF_UNSPEC;
 250              		.loc 1 214 5
 206:C:/Users/stapi/OneDrive/Desktop/GD32VW553/GD32VW55X_Wifi_BLE_SDK/GD32VW55x_RELEASE_V1.0.2/MSDK/mbedtls/mbedtls-2.17.0-ssl/library\net_sockets.c ****     int n, ret;
 251              		.loc 1 206 1 is_stmt 0
 252 0008 7971     		addi	sp,sp,-48
 253              		.cfi_def_cfa_offset 80
 206:C:/Users/stapi/OneDrive/Desktop/GD32VW553/GD32VW55X_Wifi_BLE_SDK/GD32VW55x_RELEASE_V1.0.2/MSDK/mbedtls/mbedtls-2.17.0-ssl/library\net_sockets.c ****     int n, ret;
 254              		.loc 1 206 1
 255 000a 2A89     		mv	s2,a0
 256 000c 2E84     		mv	s0,a1
 257 000e B284     		mv	s1,a2
 214:C:/Users/stapi/OneDrive/Desktop/GD32VW553/GD32VW55X_Wifi_BLE_SDK/GD32VW55x_RELEASE_V1.0.2/MSDK/mbedtls/mbedtls-2.17.0-ssl/library\net_sockets.c ****     hints.ai_family = AF_UNSPEC;
 258              		.loc 1 214 5
 259 0010 8145     		li	a1,0
 260              	.LVL25:
 261 0012 13060002 		li	a2,32
 262              	.LVL26:
 263 0016 0808     		addi	a0,sp,16
 264              	.LVL27:
 206:C:/Users/stapi/OneDrive/Desktop/GD32VW553/GD32VW55X_Wifi_BLE_SDK/GD32VW55x_RELEASE_V1.0.2/MSDK/mbedtls/mbedtls-2.17.0-ssl/library\net_sockets.c ****     int n, ret;
 265              		.loc 1 206 1
 266 0018 B689     		mv	s3,a3
 214:C:/Users/stapi/OneDrive/Desktop/GD32VW553/GD32VW55X_Wifi_BLE_SDK/GD32VW55x_RELEASE_V1.0.2/MSDK/mbedtls/mbedtls-2.17.0-ssl/library\net_sockets.c ****     hints.ai_family = AF_UNSPEC;
 267              		.loc 1 214 5
 268 001a 97000000 		call	memset
 268      E7800000 
 269              	.LVL28:
 215:C:/Users/stapi/OneDrive/Desktop/GD32VW553/GD32VW55X_Wifi_BLE_SDK/GD32VW55x_RELEASE_V1.0.2/MSDK/mbedtls/mbedtls-2.17.0-ssl/library\net_sockets.c ****     hints.ai_socktype = proto == MBEDTLS_NET_PROTO_UDP ? SOCK_DGRAM : SOCK_STREAM;
 270              		.loc 1 215 5 is_stmt 1
 216:C:/Users/stapi/OneDrive/Desktop/GD32VW553/GD32VW55X_Wifi_BLE_SDK/GD32VW55x_RELEASE_V1.0.2/MSDK/mbedtls/mbedtls-2.17.0-ssl/library\net_sockets.c ****     hints.ai_protocol = proto == MBEDTLS_NET_PROTO_UDP ? IPPROTO_UDP : IPPROTO_TCP;
 271              		.loc 1 216 5
 216:C:/Users/stapi/OneDrive/Desktop/GD32VW553/GD32VW55X_Wifi_BLE_SDK/GD32VW55x_RELEASE_V1.0.2/MSDK/mbedtls/mbedtls-2.17.0-ssl/library\net_sockets.c ****     hints.ai_protocol = proto == MBEDTLS_NET_PROTO_UDP ? IPPROTO_UDP : IPPROTO_TCP;
 272              		.loc 1 216 69 is_stmt 0
 273 0022 0547     		li	a4,1
 274 0024 8547     		li	a5,1
 275 0026 6393E900 		bne	s3,a4,.L24
 276 002a 8947     		li	a5,2
 277              	.L24:
 216:C:/Users/stapi/OneDrive/Desktop/GD32VW553/GD32VW55X_Wifi_BLE_SDK/GD32VW55x_RELEASE_V1.0.2/MSDK/mbedtls/mbedtls-2.17.0-ssl/library\net_sockets.c ****     hints.ai_protocol = proto == MBEDTLS_NET_PROTO_UDP ? IPPROTO_UDP : IPPROTO_TCP;
 278              		.loc 1 216 23 discriminator 4
 279 002c 3ECC     		sw	a5,24(sp)
 217:C:/Users/stapi/OneDrive/Desktop/GD32VW553/GD32VW55X_Wifi_BLE_SDK/GD32VW55x_RELEASE_V1.0.2/MSDK/mbedtls/mbedtls-2.17.0-ssl/library\net_sockets.c ****    // if( bind_ip == NULL )
 280              		.loc 1 217 5 is_stmt 1 discriminator 4
 217:C:/Users/stapi/OneDrive/Desktop/GD32VW553/GD32VW55X_Wifi_BLE_SDK/GD32VW55x_RELEASE_V1.0.2/MSDK/mbedtls/mbedtls-2.17.0-ssl/library\net_sockets.c ****    // if( bind_ip == NULL )
 281              		.loc 1 217 70 is_stmt 0 discriminator 4
 282 002e 0547     		li	a4,1
 283 0030 C547     		li	a5,17
 284 0032 6383E900 		beq	s3,a4,.L25
 217:C:/Users/stapi/OneDrive/Desktop/GD32VW553/GD32VW55X_Wifi_BLE_SDK/GD32VW55x_RELEASE_V1.0.2/MSDK/mbedtls/mbedtls-2.17.0-ssl/library\net_sockets.c ****    // if( bind_ip == NULL )
 285              		.loc 1 217 70
 286 0036 9947     		li	a5,6
 287              	.L25:
 221:C:/Users/stapi/OneDrive/Desktop/GD32VW553/GD32VW55X_Wifi_BLE_SDK/GD32VW55x_RELEASE_V1.0.2/MSDK/mbedtls/mbedtls-2.17.0-ssl/library\net_sockets.c ****         return( MBEDTLS_ERR_NET_UNKNOWN_HOST );
 288              		.loc 1 221 9 discriminator 4
 289 0038 2285     		mv	a0,s0
 290 003a 7400     		addi	a3,sp,12
 291 003c 1008     		addi	a2,sp,16
 292 003e A685     		mv	a1,s1
 217:C:/Users/stapi/OneDrive/Desktop/GD32VW553/GD32VW55X_Wifi_BLE_SDK/GD32VW55x_RELEASE_V1.0.2/MSDK/mbedtls/mbedtls-2.17.0-ssl/library\net_sockets.c ****    // if( bind_ip == NULL )
 293              		.loc 1 217 23 discriminator 4
 294 0040 3ECE     		sw	a5,28(sp)
 221:C:/Users/stapi/OneDrive/Desktop/GD32VW553/GD32VW55X_Wifi_BLE_SDK/GD32VW55x_RELEASE_V1.0.2/MSDK/mbedtls/mbedtls-2.17.0-ssl/library\net_sockets.c ****         return( MBEDTLS_ERR_NET_UNKNOWN_HOST );
 295              		.loc 1 221 5 is_stmt 1 discriminator 4
 221:C:/Users/stapi/OneDrive/Desktop/GD32VW553/GD32VW55X_Wifi_BLE_SDK/GD32VW55x_RELEASE_V1.0.2/MSDK/mbedtls/mbedtls-2.17.0-ssl/library\net_sockets.c ****         return( MBEDTLS_ERR_NET_UNKNOWN_HOST );
 296              		.loc 1 221 9 is_stmt 0 discriminator 4
 297 0042 97000000 		call	lwip_getaddrinfo
 297      E7800000 
 298              	.LVL29:
 222:C:/Users/stapi/OneDrive/Desktop/GD32VW553/GD32VW55X_Wifi_BLE_SDK/GD32VW55x_RELEASE_V1.0.2/MSDK/mbedtls/mbedtls-2.17.0-ssl/library\net_sockets.c **** 
 299              		.loc 1 222 15 discriminator 4
 300 004a 1304E0FA 		li	s0,-82
 301              	.LVL30:
 221:C:/Users/stapi/OneDrive/Desktop/GD32VW553/GD32VW55X_Wifi_BLE_SDK/GD32VW55x_RELEASE_V1.0.2/MSDK/mbedtls/mbedtls-2.17.0-ssl/library\net_sockets.c ****         return( MBEDTLS_ERR_NET_UNKNOWN_HOST );
 302              		.loc 1 221 7 discriminator 4
 303 004e 19E9     		bne	a0,zero,.L23
 225:C:/Users/stapi/OneDrive/Desktop/GD32VW553/GD32VW55X_Wifi_BLE_SDK/GD32VW55x_RELEASE_V1.0.2/MSDK/mbedtls/mbedtls-2.17.0-ssl/library\net_sockets.c ****     for( cur = addr_list; cur != NULL; cur = cur->ai_next )
 304              		.loc 1 225 5 is_stmt 1
 305              	.LVL31:
 226:C:/Users/stapi/OneDrive/Desktop/GD32VW553/GD32VW55X_Wifi_BLE_SDK/GD32VW55x_RELEASE_V1.0.2/MSDK/mbedtls/mbedtls-2.17.0-ssl/library\net_sockets.c ****     {
 306              		.loc 1 226 5
 226:C:/Users/stapi/OneDrive/Desktop/GD32VW553/GD32VW55X_Wifi_BLE_SDK/GD32VW55x_RELEASE_V1.0.2/MSDK/mbedtls/mbedtls-2.17.0-ssl/library\net_sockets.c ****     {
 307              		.loc 1 226 14 is_stmt 0
 308 0050 B244     		lw	s1,12(sp)
 309              	.LVL32:
 237:C:/Users/stapi/OneDrive/Desktop/GD32VW553/GD32VW55X_Wifi_BLE_SDK/GD32VW55x_RELEASE_V1.0.2/MSDK/mbedtls/mbedtls-2.17.0-ssl/library\net_sockets.c ****                         (const char *) &n, sizeof( n ) ) != 0 )
 310              		.loc 1 237 13
 311 0052 056A     		li	s4,4096
 236:C:/Users/stapi/OneDrive/Desktop/GD32VW553/GD32VW55X_Wifi_BLE_SDK/GD32VW55x_RELEASE_V1.0.2/MSDK/mbedtls/mbedtls-2.17.0-ssl/library\net_sockets.c ****         if( setsockopt( ctx->fd, SOL_SOCKET, SO_REUSEADDR,
 312              		.loc 1 236 11
 313 0054 854A     		li	s5,1
 237:C:/Users/stapi/OneDrive/Desktop/GD32VW553/GD32VW55X_Wifi_BLE_SDK/GD32VW55x_RELEASE_V1.0.2/MSDK/mbedtls/mbedtls-2.17.0-ssl/library\net_sockets.c ****                         (const char *) &n, sizeof( n ) ) != 0 )
 314              		.loc 1 237 13
 315 0056 7D1A     		addi	s4,s4,-1
 316              	.LVL33:
 317              	.L27:
 226:C:/Users/stapi/OneDrive/Desktop/GD32VW553/GD32VW55X_Wifi_BLE_SDK/GD32VW55x_RELEASE_V1.0.2/MSDK/mbedtls/mbedtls-2.17.0-ssl/library\net_sockets.c ****     {
 318              		.loc 1 226 27 is_stmt 1 discriminator 1
 226:C:/Users/stapi/OneDrive/Desktop/GD32VW553/GD32VW55X_Wifi_BLE_SDK/GD32VW55x_RELEASE_V1.0.2/MSDK/mbedtls/mbedtls-2.17.0-ssl/library\net_sockets.c ****     {
 319              		.loc 1 226 5 is_stmt 0 discriminator 1
 320 0058 81EC     		bne	s1,zero,.L34
 321              	.LVL34:
 322              	.L32:
 268:C:/Users/stapi/OneDrive/Desktop/GD32VW553/GD32VW55X_Wifi_BLE_SDK/GD32VW55x_RELEASE_V1.0.2/MSDK/mbedtls/mbedtls-2.17.0-ssl/library\net_sockets.c **** 
 323              		.loc 1 268 5 is_stmt 1
 324 005a 3245     		lw	a0,12(sp)
 325 005c 97000000 		call	lwip_freeaddrinfo
 325      E7800000 
 326              	.LVL35:
 270:C:/Users/stapi/OneDrive/Desktop/GD32VW553/GD32VW55X_Wifi_BLE_SDK/GD32VW55x_RELEASE_V1.0.2/MSDK/mbedtls/mbedtls-2.17.0-ssl/library\net_sockets.c **** 
 327              		.loc 1 270 5
 328              	.L23:
 272:C:/Users/stapi/OneDrive/Desktop/GD32VW553/GD32VW55X_Wifi_BLE_SDK/GD32VW55x_RELEASE_V1.0.2/MSDK/mbedtls/mbedtls-2.17.0-ssl/library\net_sockets.c **** 
 329              		.loc 1 272 1 is_stmt 0
 330 0064 2285     		mv	a0,s0
 331 0066 4561     		addi	sp,sp,48
 332              		.cfi_remember_state
 333              		.cfi_def_cfa_offset 0
 334 0068 17030000 		tail	__riscv_restore_6
 334      67000300 
 335              		.cfi_restore 21
 336              		.cfi_restore 20
 337              		.cfi_restore 19
 338              		.cfi_restore 18
 339              		.cfi_restore 9
 340              		.cfi_restore 8
 341              		.cfi_restore 1
 342              		.cfi_def_cfa_offset -32
 343              	.LVL36:
 344              	.L34:
 345              		.cfi_restore_state
 228:C:/Users/stapi/OneDrive/Desktop/GD32VW553/GD32VW55X_Wifi_BLE_SDK/GD32VW55x_RELEASE_V1.0.2/MSDK/mbedtls/mbedtls-2.17.0-ssl/library\net_sockets.c ****                             cur->ai_protocol );
 346              		.loc 1 228 9 is_stmt 1
 228:C:/Users/stapi/OneDrive/Desktop/GD32VW553/GD32VW55X_Wifi_BLE_SDK/GD32VW55x_RELEASE_V1.0.2/MSDK/mbedtls/mbedtls-2.17.0-ssl/library\net_sockets.c ****                             cur->ai_protocol );
 347              		.loc 1 228 19 is_stmt 0
 348 0070 D044     		lw	a2,12(s1)
 349 0072 8C44     		lw	a1,8(s1)
 350 0074 C840     		lw	a0,4(s1)
 351 0076 97000000 		call	lwip_socket
 351      E7800000 
 352              	.LVL37:
 228:C:/Users/stapi/OneDrive/Desktop/GD32VW553/GD32VW55X_Wifi_BLE_SDK/GD32VW55x_RELEASE_V1.0.2/MSDK/mbedtls/mbedtls-2.17.0-ssl/library\net_sockets.c ****                             cur->ai_protocol );
 353              		.loc 1 228 17
 354 007e 2320A900 		sw	a0,0(s2)
 230:C:/Users/stapi/OneDrive/Desktop/GD32VW553/GD32VW55X_Wifi_BLE_SDK/GD32VW55x_RELEASE_V1.0.2/MSDK/mbedtls/mbedtls-2.17.0-ssl/library\net_sockets.c ****         {
 355              		.loc 1 230 9 is_stmt 1
 230:C:/Users/stapi/OneDrive/Desktop/GD32VW553/GD32VW55X_Wifi_BLE_SDK/GD32VW55x_RELEASE_V1.0.2/MSDK/mbedtls/mbedtls-2.17.0-ssl/library\net_sockets.c ****         {
 356              		.loc 1 230 11 is_stmt 0
 357 0082 63430502 		blt	a0,zero,.L38
 236:C:/Users/stapi/OneDrive/Desktop/GD32VW553/GD32VW55X_Wifi_BLE_SDK/GD32VW55x_RELEASE_V1.0.2/MSDK/mbedtls/mbedtls-2.17.0-ssl/library\net_sockets.c ****         if( setsockopt( ctx->fd, SOL_SOCKET, SO_REUSEADDR,
 358              		.loc 1 236 9 is_stmt 1
 237:C:/Users/stapi/OneDrive/Desktop/GD32VW553/GD32VW55X_Wifi_BLE_SDK/GD32VW55x_RELEASE_V1.0.2/MSDK/mbedtls/mbedtls-2.17.0-ssl/library\net_sockets.c ****                         (const char *) &n, sizeof( n ) ) != 0 )
 359              		.loc 1 237 13 is_stmt 0
 360 0086 1147     		li	a4,4
 361 0088 3400     		addi	a3,sp,8
 362 008a 1146     		li	a2,4
 363 008c D285     		mv	a1,s4
 236:C:/Users/stapi/OneDrive/Desktop/GD32VW553/GD32VW55X_Wifi_BLE_SDK/GD32VW55x_RELEASE_V1.0.2/MSDK/mbedtls/mbedtls-2.17.0-ssl/library\net_sockets.c ****         if( setsockopt( ctx->fd, SOL_SOCKET, SO_REUSEADDR,
 364              		.loc 1 236 11
 365 008e 56C4     		sw	s5,8(sp)
 237:C:/Users/stapi/OneDrive/Desktop/GD32VW553/GD32VW55X_Wifi_BLE_SDK/GD32VW55x_RELEASE_V1.0.2/MSDK/mbedtls/mbedtls-2.17.0-ssl/library\net_sockets.c ****                         (const char *) &n, sizeof( n ) ) != 0 )
 366              		.loc 1 237 9 is_stmt 1
 237:C:/Users/stapi/OneDrive/Desktop/GD32VW553/GD32VW55X_Wifi_BLE_SDK/GD32VW55x_RELEASE_V1.0.2/MSDK/mbedtls/mbedtls-2.17.0-ssl/library\net_sockets.c ****                         (const char *) &n, sizeof( n ) ) != 0 )
 367              		.loc 1 237 13 is_stmt 0
 368 0090 97000000 		call	lwip_setsockopt
 368      E7800000 
 369              	.LVL38:
 370 0098 AA87     		mv	a5,a0
 371 009a 03250900 		lw	a0,0(s2)
 237:C:/Users/stapi/OneDrive/Desktop/GD32VW553/GD32VW55X_Wifi_BLE_SDK/GD32VW55x_RELEASE_V1.0.2/MSDK/mbedtls/mbedtls-2.17.0-ssl/library\net_sockets.c ****                         (const char *) &n, sizeof( n ) ) != 0 )
 372              		.loc 1 237 11
 373 009e 81CB     		beq	a5,zero,.L29
 240:C:/Users/stapi/OneDrive/Desktop/GD32VW553/GD32VW55X_Wifi_BLE_SDK/GD32VW55x_RELEASE_V1.0.2/MSDK/mbedtls/mbedtls-2.17.0-ssl/library\net_sockets.c ****             ret = MBEDTLS_ERR_NET_SOCKET_FAILED;
 374              		.loc 1 240 13 is_stmt 1
 375 00a0 97000000 		call	lwip_close
 375      E7800000 
 376              	.LVL39:
 241:C:/Users/stapi/OneDrive/Desktop/GD32VW553/GD32VW55X_Wifi_BLE_SDK/GD32VW55x_RELEASE_V1.0.2/MSDK/mbedtls/mbedtls-2.17.0-ssl/library\net_sockets.c ****             continue;
 377              		.loc 1 241 13
 242:C:/Users/stapi/OneDrive/Desktop/GD32VW553/GD32VW55X_Wifi_BLE_SDK/GD32VW55x_RELEASE_V1.0.2/MSDK/mbedtls/mbedtls-2.17.0-ssl/library\net_sockets.c ****         }
 378              		.loc 1 242 13
 379              	.L38:
 232:C:/Users/stapi/OneDrive/Desktop/GD32VW553/GD32VW55X_Wifi_BLE_SDK/GD32VW55x_RELEASE_V1.0.2/MSDK/mbedtls/mbedtls-2.17.0-ssl/library\net_sockets.c ****             continue;
 380              		.loc 1 232 17 is_stmt 0
 381 00a8 1304E0FB 		li	s0,-66
 382 00ac 0DA0     		j	.L28
 383              	.LVL40:
 384              	.L29:
 245:C:/Users/stapi/OneDrive/Desktop/GD32VW553/GD32VW55X_Wifi_BLE_SDK/GD32VW55x_RELEASE_V1.0.2/MSDK/mbedtls/mbedtls-2.17.0-ssl/library\net_sockets.c ****         {
 385              		.loc 1 245 9 is_stmt 1
 245:C:/Users/stapi/OneDrive/Desktop/GD32VW553/GD32VW55X_Wifi_BLE_SDK/GD32VW55x_RELEASE_V1.0.2/MSDK/mbedtls/mbedtls-2.17.0-ssl/library\net_sockets.c ****         {
 386              		.loc 1 245 13 is_stmt 0
 387 00ae 9048     		lw	a2,16(s1)
 388 00b0 CC48     		lw	a1,20(s1)
 389 00b2 97000000 		call	lwip_bind
 389      E7800000 
 390              	.LVL41:
 391 00ba 2A84     		mv	s0,a0
 392              	.LVL42:
 245:C:/Users/stapi/OneDrive/Desktop/GD32VW553/GD32VW55X_Wifi_BLE_SDK/GD32VW55x_RELEASE_V1.0.2/MSDK/mbedtls/mbedtls-2.17.0-ssl/library\net_sockets.c ****         {
 393              		.loc 1 245 11
 394 00bc 19C9     		beq	a0,zero,.L30
 247:C:/Users/stapi/OneDrive/Desktop/GD32VW553/GD32VW55X_Wifi_BLE_SDK/GD32VW55x_RELEASE_V1.0.2/MSDK/mbedtls/mbedtls-2.17.0-ssl/library\net_sockets.c ****             ret = MBEDTLS_ERR_NET_BIND_FAILED;
 395              		.loc 1 247 13 is_stmt 1
 396 00be 03250900 		lw	a0,0(s2)
 248:C:/Users/stapi/OneDrive/Desktop/GD32VW553/GD32VW55X_Wifi_BLE_SDK/GD32VW55x_RELEASE_V1.0.2/MSDK/mbedtls/mbedtls-2.17.0-ssl/library\net_sockets.c ****             continue;
 397              		.loc 1 248 17 is_stmt 0
 398 00c2 1304A0FB 		li	s0,-70
 247:C:/Users/stapi/OneDrive/Desktop/GD32VW553/GD32VW55X_Wifi_BLE_SDK/GD32VW55x_RELEASE_V1.0.2/MSDK/mbedtls/mbedtls-2.17.0-ssl/library\net_sockets.c ****             ret = MBEDTLS_ERR_NET_BIND_FAILED;
 399              		.loc 1 247 13
 400 00c6 97000000 		call	lwip_close
 400      E7800000 
 401              	.LVL43:
 248:C:/Users/stapi/OneDrive/Desktop/GD32VW553/GD32VW55X_Wifi_BLE_SDK/GD32VW55x_RELEASE_V1.0.2/MSDK/mbedtls/mbedtls-2.17.0-ssl/library\net_sockets.c ****             continue;
 402              		.loc 1 248 13 is_stmt 1
 249:C:/Users/stapi/OneDrive/Desktop/GD32VW553/GD32VW55X_Wifi_BLE_SDK/GD32VW55x_RELEASE_V1.0.2/MSDK/mbedtls/mbedtls-2.17.0-ssl/library\net_sockets.c ****         }
 403              		.loc 1 249 13
 404              	.L28:
 226:C:/Users/stapi/OneDrive/Desktop/GD32VW553/GD32VW55X_Wifi_BLE_SDK/GD32VW55x_RELEASE_V1.0.2/MSDK/mbedtls/mbedtls-2.17.0-ssl/library\net_sockets.c ****     {
 405              		.loc 1 226 40 discriminator 2
 226:C:/Users/stapi/OneDrive/Desktop/GD32VW553/GD32VW55X_Wifi_BLE_SDK/GD32VW55x_RELEASE_V1.0.2/MSDK/mbedtls/mbedtls-2.17.0-ssl/library\net_sockets.c ****     {
 406              		.loc 1 226 44 is_stmt 0 discriminator 2
 407 00ce C44C     		lw	s1,28(s1)
 408              	.LVL44:
 409 00d0 61B7     		j	.L27
 410              	.LVL45:
 411              	.L30:
 253:C:/Users/stapi/OneDrive/Desktop/GD32VW553/GD32VW55X_Wifi_BLE_SDK/GD32VW55x_RELEASE_V1.0.2/MSDK/mbedtls/mbedtls-2.17.0-ssl/library\net_sockets.c ****         {
 412              		.loc 1 253 9 is_stmt 1
 253:C:/Users/stapi/OneDrive/Desktop/GD32VW553/GD32VW55X_Wifi_BLE_SDK/GD32VW55x_RELEASE_V1.0.2/MSDK/mbedtls/mbedtls-2.17.0-ssl/library\net_sockets.c ****         {
 413              		.loc 1 253 11 is_stmt 0
 414 00d2 E39409F8 		bne	s3,zero,.L32
 255:C:/Users/stapi/OneDrive/Desktop/GD32VW553/GD32VW55X_Wifi_BLE_SDK/GD32VW55x_RELEASE_V1.0.2/MSDK/mbedtls/mbedtls-2.17.0-ssl/library\net_sockets.c ****             {
 415              		.loc 1 255 13 is_stmt 1
 255:C:/Users/stapi/OneDrive/Desktop/GD32VW553/GD32VW55X_Wifi_BLE_SDK/GD32VW55x_RELEASE_V1.0.2/MSDK/mbedtls/mbedtls-2.17.0-ssl/library\net_sockets.c ****             {
 416              		.loc 1 255 17 is_stmt 0
 417 00d6 03250900 		lw	a0,0(s2)
 418 00da A945     		li	a1,10
 419 00dc 97000000 		call	lwip_listen
 419      E7800000 
 420              	.LVL46:
 255:C:/Users/stapi/OneDrive/Desktop/GD32VW553/GD32VW55X_Wifi_BLE_SDK/GD32VW55x_RELEASE_V1.0.2/MSDK/mbedtls/mbedtls-2.17.0-ssl/library\net_sockets.c ****             {
 421              		.loc 1 255 15
 422 00e4 3DD9     		beq	a0,zero,.L32
 257:C:/Users/stapi/OneDrive/Desktop/GD32VW553/GD32VW55X_Wifi_BLE_SDK/GD32VW55x_RELEASE_V1.0.2/MSDK/mbedtls/mbedtls-2.17.0-ssl/library\net_sockets.c ****                 ret = MBEDTLS_ERR_NET_LISTEN_FAILED;
 423              		.loc 1 257 17 is_stmt 1
 424 00e6 03250900 		lw	a0,0(s2)
 258:C:/Users/stapi/OneDrive/Desktop/GD32VW553/GD32VW55X_Wifi_BLE_SDK/GD32VW55x_RELEASE_V1.0.2/MSDK/mbedtls/mbedtls-2.17.0-ssl/library\net_sockets.c ****                 continue;
 425              		.loc 1 258 21 is_stmt 0
 426 00ea 130480FB 		li	s0,-72
 257:C:/Users/stapi/OneDrive/Desktop/GD32VW553/GD32VW55X_Wifi_BLE_SDK/GD32VW55x_RELEASE_V1.0.2/MSDK/mbedtls/mbedtls-2.17.0-ssl/library\net_sockets.c ****                 ret = MBEDTLS_ERR_NET_LISTEN_FAILED;
 427              		.loc 1 257 17
 428 00ee 97000000 		call	lwip_close
 428      E7800000 
 429              	.LVL47:
 258:C:/Users/stapi/OneDrive/Desktop/GD32VW553/GD32VW55X_Wifi_BLE_SDK/GD32VW55x_RELEASE_V1.0.2/MSDK/mbedtls/mbedtls-2.17.0-ssl/library\net_sockets.c ****                 continue;
 430              		.loc 1 258 17 is_stmt 1
 259:C:/Users/stapi/OneDrive/Desktop/GD32VW553/GD32VW55X_Wifi_BLE_SDK/GD32VW55x_RELEASE_V1.0.2/MSDK/mbedtls/mbedtls-2.17.0-ssl/library\net_sockets.c ****             }
 431              		.loc 1 259 17
 432 00f6 E1BF     		j	.L28
 433              		.cfi_endproc
 434              	.LFE386:
 436              		.section	.text.mbedtls_net_accept,"ax",@progbits
 437              		.align	1
 438              		.globl	mbedtls_net_accept
 440              	mbedtls_net_accept:
 441              	.LFB388:
 317:C:/Users/stapi/OneDrive/Desktop/GD32VW553/GD32VW55X_Wifi_BLE_SDK/GD32VW55x_RELEASE_V1.0.2/MSDK/mbedtls/mbedtls-2.17.0-ssl/library\net_sockets.c **** #endif /* ( _WIN32 || _WIN32_WCE ) && !EFIX64 && !EFI32 */
 318:C:/Users/stapi/OneDrive/Desktop/GD32VW553/GD32VW55X_Wifi_BLE_SDK/GD32VW55x_RELEASE_V1.0.2/MSDK/mbedtls/mbedtls-2.17.0-ssl/library\net_sockets.c **** 
 319:C:/Users/stapi/OneDrive/Desktop/GD32VW553/GD32VW55X_Wifi_BLE_SDK/GD32VW55x_RELEASE_V1.0.2/MSDK/mbedtls/mbedtls-2.17.0-ssl/library\net_sockets.c **** /*
 320:C:/Users/stapi/OneDrive/Desktop/GD32VW553/GD32VW55X_Wifi_BLE_SDK/GD32VW55x_RELEASE_V1.0.2/MSDK/mbedtls/mbedtls-2.17.0-ssl/library\net_sockets.c ****  * Accept a connection from a remote client
 321:C:/Users/stapi/OneDrive/Desktop/GD32VW553/GD32VW55X_Wifi_BLE_SDK/GD32VW55x_RELEASE_V1.0.2/MSDK/mbedtls/mbedtls-2.17.0-ssl/library\net_sockets.c ****  */
 322:C:/Users/stapi/OneDrive/Desktop/GD32VW553/GD32VW55X_Wifi_BLE_SDK/GD32VW55x_RELEASE_V1.0.2/MSDK/mbedtls/mbedtls-2.17.0-ssl/library\net_sockets.c **** int mbedtls_net_accept( mbedtls_net_context *bind_ctx,
 323:C:/Users/stapi/OneDrive/Desktop/GD32VW553/GD32VW55X_Wifi_BLE_SDK/GD32VW55x_RELEASE_V1.0.2/MSDK/mbedtls/mbedtls-2.17.0-ssl/library\net_sockets.c ****                         mbedtls_net_context *client_ctx,
 324:C:/Users/stapi/OneDrive/Desktop/GD32VW553/GD32VW55X_Wifi_BLE_SDK/GD32VW55x_RELEASE_V1.0.2/MSDK/mbedtls/mbedtls-2.17.0-ssl/library\net_sockets.c ****                         void *client_ip, size_t buf_size, size_t *ip_len )
 325:C:/Users/stapi/OneDrive/Desktop/GD32VW553/GD32VW55X_Wifi_BLE_SDK/GD32VW55x_RELEASE_V1.0.2/MSDK/mbedtls/mbedtls-2.17.0-ssl/library\net_sockets.c **** {
 442              		.loc 1 325 1
 443              		.cfi_startproc
 444              	.LVL48:
 445 0000 17030000 		call	t0,__riscv_save_6
 445      E7020300 
 446              		.cfi_offset 21, -28
 447              		.cfi_offset 20, -24
 448              		.cfi_offset 19, -20
 449              		.cfi_offset 18, -16
 450              		.cfi_offset 9, -12
 451              		.cfi_offset 8, -8
 452              		.cfi_offset 1, -4
 453              		.cfi_def_cfa_offset 32
 326:C:/Users/stapi/OneDrive/Desktop/GD32VW553/GD32VW55X_Wifi_BLE_SDK/GD32VW55x_RELEASE_V1.0.2/MSDK/mbedtls/mbedtls-2.17.0-ssl/library\net_sockets.c ****     int ret;
 454              		.loc 1 326 5
 327:C:/Users/stapi/OneDrive/Desktop/GD32VW553/GD32VW55X_Wifi_BLE_SDK/GD32VW55x_RELEASE_V1.0.2/MSDK/mbedtls/mbedtls-2.17.0-ssl/library\net_sockets.c ****     int type;
 455              		.loc 1 327 5
 328:C:/Users/stapi/OneDrive/Desktop/GD32VW553/GD32VW55X_Wifi_BLE_SDK/GD32VW55x_RELEASE_V1.0.2/MSDK/mbedtls/mbedtls-2.17.0-ssl/library\net_sockets.c **** 
 329:C:/Users/stapi/OneDrive/Desktop/GD32VW553/GD32VW55X_Wifi_BLE_SDK/GD32VW55x_RELEASE_V1.0.2/MSDK/mbedtls/mbedtls-2.17.0-ssl/library\net_sockets.c ****     struct sockaddr_storage_tls client_addr;
 456              		.loc 1 329 5
 330:C:/Users/stapi/OneDrive/Desktop/GD32VW553/GD32VW55X_Wifi_BLE_SDK/GD32VW55x_RELEASE_V1.0.2/MSDK/mbedtls/mbedtls-2.17.0-ssl/library\net_sockets.c **** 
 331:C:/Users/stapi/OneDrive/Desktop/GD32VW553/GD32VW55X_Wifi_BLE_SDK/GD32VW55x_RELEASE_V1.0.2/MSDK/mbedtls/mbedtls-2.17.0-ssl/library\net_sockets.c **** #if defined(__socklen_t_defined) || defined(_SOCKLEN_T) ||  \
 332:C:/Users/stapi/OneDrive/Desktop/GD32VW553/GD32VW55X_Wifi_BLE_SDK/GD32VW55x_RELEASE_V1.0.2/MSDK/mbedtls/mbedtls-2.17.0-ssl/library\net_sockets.c ****     defined(_SOCKLEN_T_DECLARED) || defined(__DEFINED_socklen_t)
 333:C:/Users/stapi/OneDrive/Desktop/GD32VW553/GD32VW55X_Wifi_BLE_SDK/GD32VW55x_RELEASE_V1.0.2/MSDK/mbedtls/mbedtls-2.17.0-ssl/library\net_sockets.c ****     socklen_t n = (socklen_t) sizeof( client_addr );
 457              		.loc 1 333 5
 325:C:/Users/stapi/OneDrive/Desktop/GD32VW553/GD32VW55X_Wifi_BLE_SDK/GD32VW55x_RELEASE_V1.0.2/MSDK/mbedtls/mbedtls-2.17.0-ssl/library\net_sockets.c ****     int ret;
 458              		.loc 1 325 1 is_stmt 0
 459 0008 AA84     		mv	s1,a0
 334:C:/Users/stapi/OneDrive/Desktop/GD32VW553/GD32VW55X_Wifi_BLE_SDK/GD32VW55x_RELEASE_V1.0.2/MSDK/mbedtls/mbedtls-2.17.0-ssl/library\net_sockets.c ****     socklen_t type_len = (socklen_t) sizeof( type );
 335:C:/Users/stapi/OneDrive/Desktop/GD32VW553/GD32VW55X_Wifi_BLE_SDK/GD32VW55x_RELEASE_V1.0.2/MSDK/mbedtls/mbedtls-2.17.0-ssl/library\net_sockets.c **** #else
 336:C:/Users/stapi/OneDrive/Desktop/GD32VW553/GD32VW55X_Wifi_BLE_SDK/GD32VW55x_RELEASE_V1.0.2/MSDK/mbedtls/mbedtls-2.17.0-ssl/library\net_sockets.c ****     int n = (int) sizeof( client_addr );
 337:C:/Users/stapi/OneDrive/Desktop/GD32VW553/GD32VW55X_Wifi_BLE_SDK/GD32VW55x_RELEASE_V1.0.2/MSDK/mbedtls/mbedtls-2.17.0-ssl/library\net_sockets.c ****     int type_len = (int) sizeof( type );
 338:C:/Users/stapi/OneDrive/Desktop/GD32VW553/GD32VW55X_Wifi_BLE_SDK/GD32VW55x_RELEASE_V1.0.2/MSDK/mbedtls/mbedtls-2.17.0-ssl/library\net_sockets.c **** #endif
 339:C:/Users/stapi/OneDrive/Desktop/GD32VW553/GD32VW55X_Wifi_BLE_SDK/GD32VW55x_RELEASE_V1.0.2/MSDK/mbedtls/mbedtls-2.17.0-ssl/library\net_sockets.c **** 
 340:C:/Users/stapi/OneDrive/Desktop/GD32VW553/GD32VW55X_Wifi_BLE_SDK/GD32VW55x_RELEASE_V1.0.2/MSDK/mbedtls/mbedtls-2.17.0-ssl/library\net_sockets.c ****     /* Is this a TCP or UDP socket? */
 341:C:/Users/stapi/OneDrive/Desktop/GD32VW553/GD32VW55X_Wifi_BLE_SDK/GD32VW55x_RELEASE_V1.0.2/MSDK/mbedtls/mbedtls-2.17.0-ssl/library\net_sockets.c ****     if( getsockopt( bind_ctx->fd, SOL_SOCKET, SO_TYPE,
 460              		.loc 1 341 9
 461 000a 0841     		lw	a0,0(a0)
 462              	.LVL49:
 325:C:/Users/stapi/OneDrive/Desktop/GD32VW553/GD32VW55X_Wifi_BLE_SDK/GD32VW55x_RELEASE_V1.0.2/MSDK/mbedtls/mbedtls-2.17.0-ssl/library\net_sockets.c ****     int ret;
 463              		.loc 1 325 1
 464 000c 2D71     		addi	sp,sp,-288
 465              		.cfi_def_cfa_offset 320
 333:C:/Users/stapi/OneDrive/Desktop/GD32VW553/GD32VW55X_Wifi_BLE_SDK/GD32VW55x_RELEASE_V1.0.2/MSDK/mbedtls/mbedtls-2.17.0-ssl/library\net_sockets.c ****     socklen_t type_len = (socklen_t) sizeof( type );
 466              		.loc 1 333 15
 467 000e 93072008 		li	a5,130
 325:C:/Users/stapi/OneDrive/Desktop/GD32VW553/GD32VW55X_Wifi_BLE_SDK/GD32VW55x_RELEASE_V1.0.2/MSDK/mbedtls/mbedtls-2.17.0-ssl/library\net_sockets.c ****     int ret;
 468              		.loc 1 325 1
 469 0012 2E89     		mv	s2,a1
 470              		.loc 1 341 9
 471 0014 8565     		li	a1,4096
 472              	.LVL50:
 325:C:/Users/stapi/OneDrive/Desktop/GD32VW553/GD32VW55X_Wifi_BLE_SDK/GD32VW55x_RELEASE_V1.0.2/MSDK/mbedtls/mbedtls-2.17.0-ssl/library\net_sockets.c ****     int ret;
 473              		.loc 1 325 1
 474 0016 B289     		mv	s3,a2
 475 0018 368A     		mv	s4,a3
 476 001a BA8A     		mv	s5,a4
 333:C:/Users/stapi/OneDrive/Desktop/GD32VW553/GD32VW55X_Wifi_BLE_SDK/GD32VW55x_RELEASE_V1.0.2/MSDK/mbedtls/mbedtls-2.17.0-ssl/library\net_sockets.c ****     socklen_t type_len = (socklen_t) sizeof( type );
 477              		.loc 1 333 15
 478 001c 3EC6     		sw	a5,12(sp)
 334:C:/Users/stapi/OneDrive/Desktop/GD32VW553/GD32VW55X_Wifi_BLE_SDK/GD32VW55x_RELEASE_V1.0.2/MSDK/mbedtls/mbedtls-2.17.0-ssl/library\net_sockets.c ****     socklen_t type_len = (socklen_t) sizeof( type );
 479              		.loc 1 334 5 is_stmt 1
 480              		.loc 1 341 9 is_stmt 0
 481 001e 13868500 		addi	a2,a1,8
 482              	.LVL51:
 334:C:/Users/stapi/OneDrive/Desktop/GD32VW553/GD32VW55X_Wifi_BLE_SDK/GD32VW55x_RELEASE_V1.0.2/MSDK/mbedtls/mbedtls-2.17.0-ssl/library\net_sockets.c ****     socklen_t type_len = (socklen_t) sizeof( type );
 483              		.loc 1 334 15
 484 0022 9147     		li	a5,4
 485              		.loc 1 341 9
 486 0024 1808     		addi	a4,sp,16
 487              	.LVL52:
 488 0026 3400     		addi	a3,sp,8
 489              	.LVL53:
 490 0028 FD15     		addi	a1,a1,-1
 334:C:/Users/stapi/OneDrive/Desktop/GD32VW553/GD32VW55X_Wifi_BLE_SDK/GD32VW55x_RELEASE_V1.0.2/MSDK/mbedtls/mbedtls-2.17.0-ssl/library\net_sockets.c ****     socklen_t type_len = (socklen_t) sizeof( type );
 491              		.loc 1 334 15
 492 002a 3EC8     		sw	a5,16(sp)
 493              		.loc 1 341 5 is_stmt 1
 494              		.loc 1 341 9 is_stmt 0
 495 002c 97000000 		call	lwip_getsockopt
 495      E7800000 
 496              	.LVL54:
 497              		.loc 1 341 7
 498 0034 01C5     		beq	a0,zero,.L45
 499              	.L56:
 500              	.LBB6:
 342:C:/Users/stapi/OneDrive/Desktop/GD32VW553/GD32VW55X_Wifi_BLE_SDK/GD32VW55x_RELEASE_V1.0.2/MSDK/mbedtls/mbedtls-2.17.0-ssl/library\net_sockets.c ****                     (void *) &type, &type_len ) != 0 ||
 343:C:/Users/stapi/OneDrive/Desktop/GD32VW553/GD32VW55X_Wifi_BLE_SDK/GD32VW55x_RELEASE_V1.0.2/MSDK/mbedtls/mbedtls-2.17.0-ssl/library\net_sockets.c ****         ( type != SOCK_STREAM && type != SOCK_DGRAM ) )
 344:C:/Users/stapi/OneDrive/Desktop/GD32VW553/GD32VW55X_Wifi_BLE_SDK/GD32VW55x_RELEASE_V1.0.2/MSDK/mbedtls/mbedtls-2.17.0-ssl/library\net_sockets.c ****     {
 345:C:/Users/stapi/OneDrive/Desktop/GD32VW553/GD32VW55X_Wifi_BLE_SDK/GD32VW55x_RELEASE_V1.0.2/MSDK/mbedtls/mbedtls-2.17.0-ssl/library\net_sockets.c ****         return( MBEDTLS_ERR_NET_ACCEPT_FAILED );
 346:C:/Users/stapi/OneDrive/Desktop/GD32VW553/GD32VW55X_Wifi_BLE_SDK/GD32VW55x_RELEASE_V1.0.2/MSDK/mbedtls/mbedtls-2.17.0-ssl/library\net_sockets.c ****     }
 347:C:/Users/stapi/OneDrive/Desktop/GD32VW553/GD32VW55X_Wifi_BLE_SDK/GD32VW55x_RELEASE_V1.0.2/MSDK/mbedtls/mbedtls-2.17.0-ssl/library\net_sockets.c **** 
 348:C:/Users/stapi/OneDrive/Desktop/GD32VW553/GD32VW55X_Wifi_BLE_SDK/GD32VW55x_RELEASE_V1.0.2/MSDK/mbedtls/mbedtls-2.17.0-ssl/library\net_sockets.c ****     if( type == SOCK_STREAM )
 349:C:/Users/stapi/OneDrive/Desktop/GD32VW553/GD32VW55X_Wifi_BLE_SDK/GD32VW55x_RELEASE_V1.0.2/MSDK/mbedtls/mbedtls-2.17.0-ssl/library\net_sockets.c ****     {
 350:C:/Users/stapi/OneDrive/Desktop/GD32VW553/GD32VW55X_Wifi_BLE_SDK/GD32VW55x_RELEASE_V1.0.2/MSDK/mbedtls/mbedtls-2.17.0-ssl/library\net_sockets.c ****         /* TCP: actual accept() */
 351:C:/Users/stapi/OneDrive/Desktop/GD32VW553/GD32VW55X_Wifi_BLE_SDK/GD32VW55x_RELEASE_V1.0.2/MSDK/mbedtls/mbedtls-2.17.0-ssl/library\net_sockets.c ****         ret = client_ctx->fd = (int) accept( bind_ctx->fd,
 352:C:/Users/stapi/OneDrive/Desktop/GD32VW553/GD32VW55X_Wifi_BLE_SDK/GD32VW55x_RELEASE_V1.0.2/MSDK/mbedtls/mbedtls-2.17.0-ssl/library\net_sockets.c ****                                              (struct sockaddr *) &client_addr, &n );
 353:C:/Users/stapi/OneDrive/Desktop/GD32VW553/GD32VW55X_Wifi_BLE_SDK/GD32VW55x_RELEASE_V1.0.2/MSDK/mbedtls/mbedtls-2.17.0-ssl/library\net_sockets.c ****     }
 354:C:/Users/stapi/OneDrive/Desktop/GD32VW553/GD32VW55X_Wifi_BLE_SDK/GD32VW55x_RELEASE_V1.0.2/MSDK/mbedtls/mbedtls-2.17.0-ssl/library\net_sockets.c ****     else
 355:C:/Users/stapi/OneDrive/Desktop/GD32VW553/GD32VW55X_Wifi_BLE_SDK/GD32VW55x_RELEASE_V1.0.2/MSDK/mbedtls/mbedtls-2.17.0-ssl/library\net_sockets.c ****     {
 356:C:/Users/stapi/OneDrive/Desktop/GD32VW553/GD32VW55X_Wifi_BLE_SDK/GD32VW55x_RELEASE_V1.0.2/MSDK/mbedtls/mbedtls-2.17.0-ssl/library\net_sockets.c ****         /* UDP: wait for a message, but keep it in the queue */
 357:C:/Users/stapi/OneDrive/Desktop/GD32VW553/GD32VW55X_Wifi_BLE_SDK/GD32VW55x_RELEASE_V1.0.2/MSDK/mbedtls/mbedtls-2.17.0-ssl/library\net_sockets.c ****         char buf[1] = { 0 };
 358:C:/Users/stapi/OneDrive/Desktop/GD32VW553/GD32VW55X_Wifi_BLE_SDK/GD32VW55x_RELEASE_V1.0.2/MSDK/mbedtls/mbedtls-2.17.0-ssl/library\net_sockets.c **** 
 359:C:/Users/stapi/OneDrive/Desktop/GD32VW553/GD32VW55X_Wifi_BLE_SDK/GD32VW55x_RELEASE_V1.0.2/MSDK/mbedtls/mbedtls-2.17.0-ssl/library\net_sockets.c ****         ret = (int) recvfrom( bind_ctx->fd, buf, sizeof( buf ), MSG_PEEK,
 360:C:/Users/stapi/OneDrive/Desktop/GD32VW553/GD32VW55X_Wifi_BLE_SDK/GD32VW55x_RELEASE_V1.0.2/MSDK/mbedtls/mbedtls-2.17.0-ssl/library\net_sockets.c ****                         (struct sockaddr *) &client_addr, &n );
 361:C:/Users/stapi/OneDrive/Desktop/GD32VW553/GD32VW55X_Wifi_BLE_SDK/GD32VW55x_RELEASE_V1.0.2/MSDK/mbedtls/mbedtls-2.17.0-ssl/library\net_sockets.c **** 
 362:C:/Users/stapi/OneDrive/Desktop/GD32VW553/GD32VW55X_Wifi_BLE_SDK/GD32VW55x_RELEASE_V1.0.2/MSDK/mbedtls/mbedtls-2.17.0-ssl/library\net_sockets.c **** #if defined(_WIN32)
 363:C:/Users/stapi/OneDrive/Desktop/GD32VW553/GD32VW55X_Wifi_BLE_SDK/GD32VW55x_RELEASE_V1.0.2/MSDK/mbedtls/mbedtls-2.17.0-ssl/library\net_sockets.c ****         if( ret == SOCKET_ERROR &&
 364:C:/Users/stapi/OneDrive/Desktop/GD32VW553/GD32VW55X_Wifi_BLE_SDK/GD32VW55x_RELEASE_V1.0.2/MSDK/mbedtls/mbedtls-2.17.0-ssl/library\net_sockets.c ****             WSAGetLastError() == WSAEMSGSIZE )
 365:C:/Users/stapi/OneDrive/Desktop/GD32VW553/GD32VW55X_Wifi_BLE_SDK/GD32VW55x_RELEASE_V1.0.2/MSDK/mbedtls/mbedtls-2.17.0-ssl/library\net_sockets.c ****         {
 366:C:/Users/stapi/OneDrive/Desktop/GD32VW553/GD32VW55X_Wifi_BLE_SDK/GD32VW55x_RELEASE_V1.0.2/MSDK/mbedtls/mbedtls-2.17.0-ssl/library\net_sockets.c ****             /* We know buf is too small, thanks, just peeking here */
 367:C:/Users/stapi/OneDrive/Desktop/GD32VW553/GD32VW55X_Wifi_BLE_SDK/GD32VW55x_RELEASE_V1.0.2/MSDK/mbedtls/mbedtls-2.17.0-ssl/library\net_sockets.c ****             ret = 0;
 368:C:/Users/stapi/OneDrive/Desktop/GD32VW553/GD32VW55X_Wifi_BLE_SDK/GD32VW55x_RELEASE_V1.0.2/MSDK/mbedtls/mbedtls-2.17.0-ssl/library\net_sockets.c ****         }
 369:C:/Users/stapi/OneDrive/Desktop/GD32VW553/GD32VW55X_Wifi_BLE_SDK/GD32VW55x_RELEASE_V1.0.2/MSDK/mbedtls/mbedtls-2.17.0-ssl/library\net_sockets.c **** #endif
 370:C:/Users/stapi/OneDrive/Desktop/GD32VW553/GD32VW55X_Wifi_BLE_SDK/GD32VW55x_RELEASE_V1.0.2/MSDK/mbedtls/mbedtls-2.17.0-ssl/library\net_sockets.c ****     }
 371:C:/Users/stapi/OneDrive/Desktop/GD32VW553/GD32VW55X_Wifi_BLE_SDK/GD32VW55x_RELEASE_V1.0.2/MSDK/mbedtls/mbedtls-2.17.0-ssl/library\net_sockets.c **** 
 372:C:/Users/stapi/OneDrive/Desktop/GD32VW553/GD32VW55X_Wifi_BLE_SDK/GD32VW55x_RELEASE_V1.0.2/MSDK/mbedtls/mbedtls-2.17.0-ssl/library\net_sockets.c ****     if( ret < 0 )
 373:C:/Users/stapi/OneDrive/Desktop/GD32VW553/GD32VW55X_Wifi_BLE_SDK/GD32VW55x_RELEASE_V1.0.2/MSDK/mbedtls/mbedtls-2.17.0-ssl/library\net_sockets.c ****     {
 374:C:/Users/stapi/OneDrive/Desktop/GD32VW553/GD32VW55X_Wifi_BLE_SDK/GD32VW55x_RELEASE_V1.0.2/MSDK/mbedtls/mbedtls-2.17.0-ssl/library\net_sockets.c ****         if( net_would_block( bind_ctx ) != 0 )
 375:C:/Users/stapi/OneDrive/Desktop/GD32VW553/GD32VW55X_Wifi_BLE_SDK/GD32VW55x_RELEASE_V1.0.2/MSDK/mbedtls/mbedtls-2.17.0-ssl/library\net_sockets.c ****             return( MBEDTLS_ERR_SSL_WANT_READ );
 376:C:/Users/stapi/OneDrive/Desktop/GD32VW553/GD32VW55X_Wifi_BLE_SDK/GD32VW55x_RELEASE_V1.0.2/MSDK/mbedtls/mbedtls-2.17.0-ssl/library\net_sockets.c **** 
 377:C:/Users/stapi/OneDrive/Desktop/GD32VW553/GD32VW55X_Wifi_BLE_SDK/GD32VW55x_RELEASE_V1.0.2/MSDK/mbedtls/mbedtls-2.17.0-ssl/library\net_sockets.c ****         return( MBEDTLS_ERR_NET_ACCEPT_FAILED );
 378:C:/Users/stapi/OneDrive/Desktop/GD32VW553/GD32VW55X_Wifi_BLE_SDK/GD32VW55x_RELEASE_V1.0.2/MSDK/mbedtls/mbedtls-2.17.0-ssl/library\net_sockets.c ****     }
 379:C:/Users/stapi/OneDrive/Desktop/GD32VW553/GD32VW55X_Wifi_BLE_SDK/GD32VW55x_RELEASE_V1.0.2/MSDK/mbedtls/mbedtls-2.17.0-ssl/library\net_sockets.c **** 
 380:C:/Users/stapi/OneDrive/Desktop/GD32VW553/GD32VW55X_Wifi_BLE_SDK/GD32VW55x_RELEASE_V1.0.2/MSDK/mbedtls/mbedtls-2.17.0-ssl/library\net_sockets.c ****     /* UDP: hijack the listening socket to communicate with the client,
 381:C:/Users/stapi/OneDrive/Desktop/GD32VW553/GD32VW55X_Wifi_BLE_SDK/GD32VW55x_RELEASE_V1.0.2/MSDK/mbedtls/mbedtls-2.17.0-ssl/library\net_sockets.c ****      * then bind a new socket to accept new connections */
 382:C:/Users/stapi/OneDrive/Desktop/GD32VW553/GD32VW55X_Wifi_BLE_SDK/GD32VW55x_RELEASE_V1.0.2/MSDK/mbedtls/mbedtls-2.17.0-ssl/library\net_sockets.c ****     if( type != SOCK_STREAM )
 383:C:/Users/stapi/OneDrive/Desktop/GD32VW553/GD32VW55X_Wifi_BLE_SDK/GD32VW55x_RELEASE_V1.0.2/MSDK/mbedtls/mbedtls-2.17.0-ssl/library\net_sockets.c ****     {
 384:C:/Users/stapi/OneDrive/Desktop/GD32VW553/GD32VW55X_Wifi_BLE_SDK/GD32VW55x_RELEASE_V1.0.2/MSDK/mbedtls/mbedtls-2.17.0-ssl/library\net_sockets.c ****         struct sockaddr_storage_tls local_addr;
 385:C:/Users/stapi/OneDrive/Desktop/GD32VW553/GD32VW55X_Wifi_BLE_SDK/GD32VW55x_RELEASE_V1.0.2/MSDK/mbedtls/mbedtls-2.17.0-ssl/library\net_sockets.c ****         int one = 1;
 386:C:/Users/stapi/OneDrive/Desktop/GD32VW553/GD32VW55X_Wifi_BLE_SDK/GD32VW55x_RELEASE_V1.0.2/MSDK/mbedtls/mbedtls-2.17.0-ssl/library\net_sockets.c **** 
 387:C:/Users/stapi/OneDrive/Desktop/GD32VW553/GD32VW55X_Wifi_BLE_SDK/GD32VW55x_RELEASE_V1.0.2/MSDK/mbedtls/mbedtls-2.17.0-ssl/library\net_sockets.c ****         if( connect( bind_ctx->fd, (struct sockaddr *) &client_addr, n ) != 0 )
 388:C:/Users/stapi/OneDrive/Desktop/GD32VW553/GD32VW55X_Wifi_BLE_SDK/GD32VW55x_RELEASE_V1.0.2/MSDK/mbedtls/mbedtls-2.17.0-ssl/library\net_sockets.c ****             return( MBEDTLS_ERR_NET_ACCEPT_FAILED );
 501              		.loc 1 388 19
 502 0036 130460FB 		li	s0,-74
 503 003a 59A8     		j	.L44
 504              	.L45:
 505              	.LBE6:
 343:C:/Users/stapi/OneDrive/Desktop/GD32VW553/GD32VW55X_Wifi_BLE_SDK/GD32VW55x_RELEASE_V1.0.2/MSDK/mbedtls/mbedtls-2.17.0-ssl/library\net_sockets.c ****     {
 506              		.loc 1 343 31
 507 003c 2247     		lw	a4,8(sp)
 342:C:/Users/stapi/OneDrive/Desktop/GD32VW553/GD32VW55X_Wifi_BLE_SDK/GD32VW55x_RELEASE_V1.0.2/MSDK/mbedtls/mbedtls-2.17.0-ssl/library\net_sockets.c ****                     (void *) &type, &type_len ) != 0 ||
 508              		.loc 1 342 54
 509 003e 8547     		li	a5,1
 343:C:/Users/stapi/OneDrive/Desktop/GD32VW553/GD32VW55X_Wifi_BLE_SDK/GD32VW55x_RELEASE_V1.0.2/MSDK/mbedtls/mbedtls-2.17.0-ssl/library\net_sockets.c ****     {
 510              		.loc 1 343 31
 511 0040 9306F7FF 		addi	a3,a4,-1
 342:C:/Users/stapi/OneDrive/Desktop/GD32VW553/GD32VW55X_Wifi_BLE_SDK/GD32VW55x_RELEASE_V1.0.2/MSDK/mbedtls/mbedtls-2.17.0-ssl/library\net_sockets.c ****                     (void *) &type, &type_len ) != 0 ||
 512              		.loc 1 342 54
 513 0044 E3E9D7FE 		bgtu	a3,a5,.L56
 514 0048 2A84     		mv	s0,a0
 348:C:/Users/stapi/OneDrive/Desktop/GD32VW553/GD32VW55X_Wifi_BLE_SDK/GD32VW55x_RELEASE_V1.0.2/MSDK/mbedtls/mbedtls-2.17.0-ssl/library\net_sockets.c ****     {
 515              		.loc 1 348 5 is_stmt 1
 351:C:/Users/stapi/OneDrive/Desktop/GD32VW553/GD32VW55X_Wifi_BLE_SDK/GD32VW55x_RELEASE_V1.0.2/MSDK/mbedtls/mbedtls-2.17.0-ssl/library\net_sockets.c ****                                              (struct sockaddr *) &client_addr, &n );
 516              		.loc 1 351 32 is_stmt 0
 517 004a 8840     		lw	a0,0(s1)
 348:C:/Users/stapi/OneDrive/Desktop/GD32VW553/GD32VW55X_Wifi_BLE_SDK/GD32VW55x_RELEASE_V1.0.2/MSDK/mbedtls/mbedtls-2.17.0-ssl/library\net_sockets.c ****     {
 518              		.loc 1 348 7
 519 004c 6316F702 		bne	a4,a5,.L48
 351:C:/Users/stapi/OneDrive/Desktop/GD32VW553/GD32VW55X_Wifi_BLE_SDK/GD32VW55x_RELEASE_V1.0.2/MSDK/mbedtls/mbedtls-2.17.0-ssl/library\net_sockets.c ****                                              (struct sockaddr *) &client_addr, &n );
 520              		.loc 1 351 9 is_stmt 1
 351:C:/Users/stapi/OneDrive/Desktop/GD32VW553/GD32VW55X_Wifi_BLE_SDK/GD32VW55x_RELEASE_V1.0.2/MSDK/mbedtls/mbedtls-2.17.0-ssl/library\net_sockets.c ****                                              (struct sockaddr *) &client_addr, &n );
 521              		.loc 1 351 32 is_stmt 0
 522 0050 7000     		addi	a2,sp,12
 523 0052 2C08     		addi	a1,sp,24
 524 0054 97000000 		call	lwip_accept
 524      E7800000 
 525              	.LVL55:
 351:C:/Users/stapi/OneDrive/Desktop/GD32VW553/GD32VW55X_Wifi_BLE_SDK/GD32VW55x_RELEASE_V1.0.2/MSDK/mbedtls/mbedtls-2.17.0-ssl/library\net_sockets.c ****                                              (struct sockaddr *) &client_addr, &n );
 526              		.loc 1 351 30
 527 005c 2320A900 		sw	a0,0(s2)
 528              	.LVL56:
 529              	.L49:
 372:C:/Users/stapi/OneDrive/Desktop/GD32VW553/GD32VW55X_Wifi_BLE_SDK/GD32VW55x_RELEASE_V1.0.2/MSDK/mbedtls/mbedtls-2.17.0-ssl/library\net_sockets.c ****     {
 530              		.loc 1 372 5 is_stmt 1
 372:C:/Users/stapi/OneDrive/Desktop/GD32VW553/GD32VW55X_Wifi_BLE_SDK/GD32VW55x_RELEASE_V1.0.2/MSDK/mbedtls/mbedtls-2.17.0-ssl/library\net_sockets.c ****     {
 531              		.loc 1 372 7 is_stmt 0
 532 0060 63580502 		bge	a0,zero,.L50
 374:C:/Users/stapi/OneDrive/Desktop/GD32VW553/GD32VW55X_Wifi_BLE_SDK/GD32VW55x_RELEASE_V1.0.2/MSDK/mbedtls/mbedtls-2.17.0-ssl/library\net_sockets.c ****             return( MBEDTLS_ERR_SSL_WANT_READ );
 533              		.loc 1 374 9 is_stmt 1
 374:C:/Users/stapi/OneDrive/Desktop/GD32VW553/GD32VW55X_Wifi_BLE_SDK/GD32VW55x_RELEASE_V1.0.2/MSDK/mbedtls/mbedtls-2.17.0-ssl/library\net_sockets.c ****             return( MBEDTLS_ERR_SSL_WANT_READ );
 534              		.loc 1 374 13 is_stmt 0
 535 0064 8840     		lw	a0,0(s1)
 536              	.LVL57:
 537 0066 97000000 		call	net_would_block.isra.0
 537      E7800000 
 538              	.LVL58:
 374:C:/Users/stapi/OneDrive/Desktop/GD32VW553/GD32VW55X_Wifi_BLE_SDK/GD32VW55x_RELEASE_V1.0.2/MSDK/mbedtls/mbedtls-2.17.0-ssl/library\net_sockets.c ****             return( MBEDTLS_ERR_SSL_WANT_READ );
 539              		.loc 1 374 11
 540 006e 61D5     		beq	a0,zero,.L56
 375:C:/Users/stapi/OneDrive/Desktop/GD32VW553/GD32VW55X_Wifi_BLE_SDK/GD32VW55x_RELEASE_V1.0.2/MSDK/mbedtls/mbedtls-2.17.0-ssl/library\net_sockets.c **** 
 541              		.loc 1 375 19
 542 0070 6574     		li	s0,-28672
 543 0072 13040470 		addi	s0,s0,1792
 544 0076 A9A8     		j	.L44
 545              	.L48:
 546              	.LBB7:
 357:C:/Users/stapi/OneDrive/Desktop/GD32VW553/GD32VW55X_Wifi_BLE_SDK/GD32VW55x_RELEASE_V1.0.2/MSDK/mbedtls/mbedtls-2.17.0-ssl/library\net_sockets.c **** 
 547              		.loc 1 357 9 is_stmt 1
 359:C:/Users/stapi/OneDrive/Desktop/GD32VW553/GD32VW55X_Wifi_BLE_SDK/GD32VW55x_RELEASE_V1.0.2/MSDK/mbedtls/mbedtls-2.17.0-ssl/library\net_sockets.c ****                         (struct sockaddr *) &client_addr, &n );
 548              		.loc 1 359 21 is_stmt 0
 549 0078 7C00     		addi	a5,sp,12
 550 007a 3808     		addi	a4,sp,24
 551 007c 8546     		li	a3,1
 552 007e 0546     		li	a2,1
 553 0080 6C09     		addi	a1,sp,156
 357:C:/Users/stapi/OneDrive/Desktop/GD32VW553/GD32VW55X_Wifi_BLE_SDK/GD32VW55x_RELEASE_V1.0.2/MSDK/mbedtls/mbedtls-2.17.0-ssl/library\net_sockets.c **** 
 554              		.loc 1 357 14
 555 0082 230E0108 		sb	zero,156(sp)
 359:C:/Users/stapi/OneDrive/Desktop/GD32VW553/GD32VW55X_Wifi_BLE_SDK/GD32VW55x_RELEASE_V1.0.2/MSDK/mbedtls/mbedtls-2.17.0-ssl/library\net_sockets.c ****                         (struct sockaddr *) &client_addr, &n );
 556              		.loc 1 359 9 is_stmt 1
 359:C:/Users/stapi/OneDrive/Desktop/GD32VW553/GD32VW55X_Wifi_BLE_SDK/GD32VW55x_RELEASE_V1.0.2/MSDK/mbedtls/mbedtls-2.17.0-ssl/library\net_sockets.c ****                         (struct sockaddr *) &client_addr, &n );
 557              		.loc 1 359 21 is_stmt 0
 558 0086 97000000 		call	lwip_recvfrom
 558      E7800000 
 559              	.LVL59:
 560 008e C9BF     		j	.L49
 561              	.L50:
 562              	.LBE7:
 382:C:/Users/stapi/OneDrive/Desktop/GD32VW553/GD32VW55X_Wifi_BLE_SDK/GD32VW55x_RELEASE_V1.0.2/MSDK/mbedtls/mbedtls-2.17.0-ssl/library\net_sockets.c ****     {
 563              		.loc 1 382 5 is_stmt 1
 382:C:/Users/stapi/OneDrive/Desktop/GD32VW553/GD32VW55X_Wifi_BLE_SDK/GD32VW55x_RELEASE_V1.0.2/MSDK/mbedtls/mbedtls-2.17.0-ssl/library\net_sockets.c ****     {
 564              		.loc 1 382 7 is_stmt 0
 565 0090 2247     		lw	a4,8(sp)
 566 0092 8547     		li	a5,1
 567 0094 6304F708 		beq	a4,a5,.L51
 568              	.LBB8:
 384:C:/Users/stapi/OneDrive/Desktop/GD32VW553/GD32VW55X_Wifi_BLE_SDK/GD32VW55x_RELEASE_V1.0.2/MSDK/mbedtls/mbedtls-2.17.0-ssl/library\net_sockets.c ****         int one = 1;
 569              		.loc 1 384 9 is_stmt 1
 385:C:/Users/stapi/OneDrive/Desktop/GD32VW553/GD32VW55X_Wifi_BLE_SDK/GD32VW55x_RELEASE_V1.0.2/MSDK/mbedtls/mbedtls-2.17.0-ssl/library\net_sockets.c **** 
 570              		.loc 1 385 9
 387:C:/Users/stapi/OneDrive/Desktop/GD32VW553/GD32VW55X_Wifi_BLE_SDK/GD32VW55x_RELEASE_V1.0.2/MSDK/mbedtls/mbedtls-2.17.0-ssl/library\net_sockets.c ****             return( MBEDTLS_ERR_NET_ACCEPT_FAILED );
 571              		.loc 1 387 13 is_stmt 0
 572 0098 3246     		lw	a2,12(sp)
 573 009a 8840     		lw	a0,0(s1)
 574              	.LVL60:
 575 009c 2C08     		addi	a1,sp,24
 385:C:/Users/stapi/OneDrive/Desktop/GD32VW553/GD32VW55X_Wifi_BLE_SDK/GD32VW55x_RELEASE_V1.0.2/MSDK/mbedtls/mbedtls-2.17.0-ssl/library\net_sockets.c **** 
 576              		.loc 1 385 13
 577 009e 3ECA     		sw	a5,20(sp)
 387:C:/Users/stapi/OneDrive/Desktop/GD32VW553/GD32VW55X_Wifi_BLE_SDK/GD32VW55x_RELEASE_V1.0.2/MSDK/mbedtls/mbedtls-2.17.0-ssl/library\net_sockets.c ****             return( MBEDTLS_ERR_NET_ACCEPT_FAILED );
 578              		.loc 1 387 9 is_stmt 1
 387:C:/Users/stapi/OneDrive/Desktop/GD32VW553/GD32VW55X_Wifi_BLE_SDK/GD32VW55x_RELEASE_V1.0.2/MSDK/mbedtls/mbedtls-2.17.0-ssl/library\net_sockets.c ****             return( MBEDTLS_ERR_NET_ACCEPT_FAILED );
 579              		.loc 1 387 13 is_stmt 0
 580 00a0 97000000 		call	lwip_connect
 580      E7800000 
 581              	.LVL61:
 387:C:/Users/stapi/OneDrive/Desktop/GD32VW553/GD32VW55X_Wifi_BLE_SDK/GD32VW55x_RELEASE_V1.0.2/MSDK/mbedtls/mbedtls-2.17.0-ssl/library\net_sockets.c ****             return( MBEDTLS_ERR_NET_ACCEPT_FAILED );
 582              		.loc 1 387 11
 583 00a8 59F5     		bne	a0,zero,.L56
 389:C:/Users/stapi/OneDrive/Desktop/GD32VW553/GD32VW55X_Wifi_BLE_SDK/GD32VW55x_RELEASE_V1.0.2/MSDK/mbedtls/mbedtls-2.17.0-ssl/library\net_sockets.c **** 
 390:C:/Users/stapi/OneDrive/Desktop/GD32VW553/GD32VW55X_Wifi_BLE_SDK/GD32VW55x_RELEASE_V1.0.2/MSDK/mbedtls/mbedtls-2.17.0-ssl/library\net_sockets.c ****         client_ctx->fd = bind_ctx->fd;
 584              		.loc 1 390 9 is_stmt 1
 585              		.loc 1 390 34 is_stmt 0
 586 00aa 9C40     		lw	a5,0(s1)
 391:C:/Users/stapi/OneDrive/Desktop/GD32VW553/GD32VW55X_Wifi_BLE_SDK/GD32VW55x_RELEASE_V1.0.2/MSDK/mbedtls/mbedtls-2.17.0-ssl/library\net_sockets.c ****         bind_ctx->fd   = -1; /* In case we exit early */
 392:C:/Users/stapi/OneDrive/Desktop/GD32VW553/GD32VW55X_Wifi_BLE_SDK/GD32VW55x_RELEASE_V1.0.2/MSDK/mbedtls/mbedtls-2.17.0-ssl/library\net_sockets.c **** 
 393:C:/Users/stapi/OneDrive/Desktop/GD32VW553/GD32VW55X_Wifi_BLE_SDK/GD32VW55x_RELEASE_V1.0.2/MSDK/mbedtls/mbedtls-2.17.0-ssl/library\net_sockets.c ****         n = sizeof( struct sockaddr_storage_tls );
 394:C:/Users/stapi/OneDrive/Desktop/GD32VW553/GD32VW55X_Wifi_BLE_SDK/GD32VW55x_RELEASE_V1.0.2/MSDK/mbedtls/mbedtls-2.17.0-ssl/library\net_sockets.c ****         if( getsockname( client_ctx->fd,
 587              		.loc 1 394 13
 588 00ac 7000     		addi	a2,sp,12
 589 00ae 6C09     		addi	a1,sp,156
 390:C:/Users/stapi/OneDrive/Desktop/GD32VW553/GD32VW55X_Wifi_BLE_SDK/GD32VW55x_RELEASE_V1.0.2/MSDK/mbedtls/mbedtls-2.17.0-ssl/library\net_sockets.c ****         bind_ctx->fd   = -1; /* In case we exit early */
 590              		.loc 1 390 24
 591 00b0 2320F900 		sw	a5,0(s2)
 391:C:/Users/stapi/OneDrive/Desktop/GD32VW553/GD32VW55X_Wifi_BLE_SDK/GD32VW55x_RELEASE_V1.0.2/MSDK/mbedtls/mbedtls-2.17.0-ssl/library\net_sockets.c ****         bind_ctx->fd   = -1; /* In case we exit early */
 592              		.loc 1 391 9 is_stmt 1
 391:C:/Users/stapi/OneDrive/Desktop/GD32VW553/GD32VW55X_Wifi_BLE_SDK/GD32VW55x_RELEASE_V1.0.2/MSDK/mbedtls/mbedtls-2.17.0-ssl/library\net_sockets.c ****         bind_ctx->fd   = -1; /* In case we exit early */
 593              		.loc 1 391 24 is_stmt 0
 594 00b4 FD57     		li	a5,-1
 595 00b6 9CC0     		sw	a5,0(s1)
 393:C:/Users/stapi/OneDrive/Desktop/GD32VW553/GD32VW55X_Wifi_BLE_SDK/GD32VW55x_RELEASE_V1.0.2/MSDK/mbedtls/mbedtls-2.17.0-ssl/library\net_sockets.c ****         if( getsockname( client_ctx->fd,
 596              		.loc 1 393 9 is_stmt 1
 597              		.loc 1 394 13 is_stmt 0
 598 00b8 03250900 		lw	a0,0(s2)
 393:C:/Users/stapi/OneDrive/Desktop/GD32VW553/GD32VW55X_Wifi_BLE_SDK/GD32VW55x_RELEASE_V1.0.2/MSDK/mbedtls/mbedtls-2.17.0-ssl/library\net_sockets.c ****         if( getsockname( client_ctx->fd,
 599              		.loc 1 393 11
 600 00bc 93072008 		li	a5,130
 601 00c0 3EC6     		sw	a5,12(sp)
 602              		.loc 1 394 9 is_stmt 1
 603              		.loc 1 394 13 is_stmt 0
 604 00c2 97000000 		call	lwip_getsockname
 604      E7800000 
 605              	.LVL62:
 606              		.loc 1 394 11
 607 00ca 09C9     		beq	a0,zero,.L53
 608              	.L54:
 395:C:/Users/stapi/OneDrive/Desktop/GD32VW553/GD32VW55X_Wifi_BLE_SDK/GD32VW55x_RELEASE_V1.0.2/MSDK/mbedtls/mbedtls-2.17.0-ssl/library\net_sockets.c ****                          (struct sockaddr *) &local_addr, &n ) != 0 ||
 396:C:/Users/stapi/OneDrive/Desktop/GD32VW553/GD32VW55X_Wifi_BLE_SDK/GD32VW55x_RELEASE_V1.0.2/MSDK/mbedtls/mbedtls-2.17.0-ssl/library\net_sockets.c ****             ( bind_ctx->fd = (int) socket( local_addr.ss_family,
 397:C:/Users/stapi/OneDrive/Desktop/GD32VW553/GD32VW55X_Wifi_BLE_SDK/GD32VW55x_RELEASE_V1.0.2/MSDK/mbedtls/mbedtls-2.17.0-ssl/library\net_sockets.c ****                                            SOCK_DGRAM, IPPROTO_UDP ) ) < 0 ||
 398:C:/Users/stapi/OneDrive/Desktop/GD32VW553/GD32VW55X_Wifi_BLE_SDK/GD32VW55x_RELEASE_V1.0.2/MSDK/mbedtls/mbedtls-2.17.0-ssl/library\net_sockets.c ****             setsockopt( bind_ctx->fd, SOL_SOCKET, SO_REUSEADDR,
 399:C:/Users/stapi/OneDrive/Desktop/GD32VW553/GD32VW55X_Wifi_BLE_SDK/GD32VW55x_RELEASE_V1.0.2/MSDK/mbedtls/mbedtls-2.17.0-ssl/library\net_sockets.c ****                         (const char *) &one, sizeof( one ) ) != 0 )
 400:C:/Users/stapi/OneDrive/Desktop/GD32VW553/GD32VW55X_Wifi_BLE_SDK/GD32VW55x_RELEASE_V1.0.2/MSDK/mbedtls/mbedtls-2.17.0-ssl/library\net_sockets.c ****         {
 401:C:/Users/stapi/OneDrive/Desktop/GD32VW553/GD32VW55X_Wifi_BLE_SDK/GD32VW55x_RELEASE_V1.0.2/MSDK/mbedtls/mbedtls-2.17.0-ssl/library\net_sockets.c ****             return( MBEDTLS_ERR_NET_SOCKET_FAILED );
 609              		.loc 1 401 19
 610 00cc 1304E0FB 		li	s0,-66
 611              	.L44:
 612              	.LBE8:
 402:C:/Users/stapi/OneDrive/Desktop/GD32VW553/GD32VW55X_Wifi_BLE_SDK/GD32VW55x_RELEASE_V1.0.2/MSDK/mbedtls/mbedtls-2.17.0-ssl/library\net_sockets.c ****         }
 403:C:/Users/stapi/OneDrive/Desktop/GD32VW553/GD32VW55X_Wifi_BLE_SDK/GD32VW55x_RELEASE_V1.0.2/MSDK/mbedtls/mbedtls-2.17.0-ssl/library\net_sockets.c **** 
 404:C:/Users/stapi/OneDrive/Desktop/GD32VW553/GD32VW55X_Wifi_BLE_SDK/GD32VW55x_RELEASE_V1.0.2/MSDK/mbedtls/mbedtls-2.17.0-ssl/library\net_sockets.c ****         if( bind( bind_ctx->fd, (struct sockaddr *) &local_addr, n ) != 0 )
 405:C:/Users/stapi/OneDrive/Desktop/GD32VW553/GD32VW55X_Wifi_BLE_SDK/GD32VW55x_RELEASE_V1.0.2/MSDK/mbedtls/mbedtls-2.17.0-ssl/library\net_sockets.c ****         {
 406:C:/Users/stapi/OneDrive/Desktop/GD32VW553/GD32VW55X_Wifi_BLE_SDK/GD32VW55x_RELEASE_V1.0.2/MSDK/mbedtls/mbedtls-2.17.0-ssl/library\net_sockets.c ****             return( MBEDTLS_ERR_NET_BIND_FAILED );
 407:C:/Users/stapi/OneDrive/Desktop/GD32VW553/GD32VW55X_Wifi_BLE_SDK/GD32VW55x_RELEASE_V1.0.2/MSDK/mbedtls/mbedtls-2.17.0-ssl/library\net_sockets.c ****         }
 408:C:/Users/stapi/OneDrive/Desktop/GD32VW553/GD32VW55X_Wifi_BLE_SDK/GD32VW55x_RELEASE_V1.0.2/MSDK/mbedtls/mbedtls-2.17.0-ssl/library\net_sockets.c ****     }
 409:C:/Users/stapi/OneDrive/Desktop/GD32VW553/GD32VW55X_Wifi_BLE_SDK/GD32VW55x_RELEASE_V1.0.2/MSDK/mbedtls/mbedtls-2.17.0-ssl/library\net_sockets.c **** 
 410:C:/Users/stapi/OneDrive/Desktop/GD32VW553/GD32VW55X_Wifi_BLE_SDK/GD32VW55x_RELEASE_V1.0.2/MSDK/mbedtls/mbedtls-2.17.0-ssl/library\net_sockets.c ****     if( client_ip != NULL )
 411:C:/Users/stapi/OneDrive/Desktop/GD32VW553/GD32VW55X_Wifi_BLE_SDK/GD32VW55x_RELEASE_V1.0.2/MSDK/mbedtls/mbedtls-2.17.0-ssl/library\net_sockets.c ****     {
 412:C:/Users/stapi/OneDrive/Desktop/GD32VW553/GD32VW55X_Wifi_BLE_SDK/GD32VW55x_RELEASE_V1.0.2/MSDK/mbedtls/mbedtls-2.17.0-ssl/library\net_sockets.c ****         if( client_addr.ss_family == AF_INET )
 413:C:/Users/stapi/OneDrive/Desktop/GD32VW553/GD32VW55X_Wifi_BLE_SDK/GD32VW55x_RELEASE_V1.0.2/MSDK/mbedtls/mbedtls-2.17.0-ssl/library\net_sockets.c ****         {
 414:C:/Users/stapi/OneDrive/Desktop/GD32VW553/GD32VW55X_Wifi_BLE_SDK/GD32VW55x_RELEASE_V1.0.2/MSDK/mbedtls/mbedtls-2.17.0-ssl/library\net_sockets.c ****             struct sockaddr_in *addr4 = (struct sockaddr_in *) &client_addr;
 415:C:/Users/stapi/OneDrive/Desktop/GD32VW553/GD32VW55X_Wifi_BLE_SDK/GD32VW55x_RELEASE_V1.0.2/MSDK/mbedtls/mbedtls-2.17.0-ssl/library\net_sockets.c ****             *ip_len = sizeof( addr4->sin_addr.s_addr );
 416:C:/Users/stapi/OneDrive/Desktop/GD32VW553/GD32VW55X_Wifi_BLE_SDK/GD32VW55x_RELEASE_V1.0.2/MSDK/mbedtls/mbedtls-2.17.0-ssl/library\net_sockets.c **** 
 417:C:/Users/stapi/OneDrive/Desktop/GD32VW553/GD32VW55X_Wifi_BLE_SDK/GD32VW55x_RELEASE_V1.0.2/MSDK/mbedtls/mbedtls-2.17.0-ssl/library\net_sockets.c ****             if( buf_size < *ip_len )
 418:C:/Users/stapi/OneDrive/Desktop/GD32VW553/GD32VW55X_Wifi_BLE_SDK/GD32VW55x_RELEASE_V1.0.2/MSDK/mbedtls/mbedtls-2.17.0-ssl/library\net_sockets.c ****                 return( MBEDTLS_ERR_NET_BUFFER_TOO_SMALL );
 419:C:/Users/stapi/OneDrive/Desktop/GD32VW553/GD32VW55X_Wifi_BLE_SDK/GD32VW55x_RELEASE_V1.0.2/MSDK/mbedtls/mbedtls-2.17.0-ssl/library\net_sockets.c **** 
 420:C:/Users/stapi/OneDrive/Desktop/GD32VW553/GD32VW55X_Wifi_BLE_SDK/GD32VW55x_RELEASE_V1.0.2/MSDK/mbedtls/mbedtls-2.17.0-ssl/library\net_sockets.c ****             memcpy( client_ip, &addr4->sin_addr.s_addr, *ip_len );
 421:C:/Users/stapi/OneDrive/Desktop/GD32VW553/GD32VW55X_Wifi_BLE_SDK/GD32VW55x_RELEASE_V1.0.2/MSDK/mbedtls/mbedtls-2.17.0-ssl/library\net_sockets.c ****         }
 422:C:/Users/stapi/OneDrive/Desktop/GD32VW553/GD32VW55X_Wifi_BLE_SDK/GD32VW55x_RELEASE_V1.0.2/MSDK/mbedtls/mbedtls-2.17.0-ssl/library\net_sockets.c **** #if defined(MBEDTLS_HAVE_IPV6)
 423:C:/Users/stapi/OneDrive/Desktop/GD32VW553/GD32VW55X_Wifi_BLE_SDK/GD32VW55x_RELEASE_V1.0.2/MSDK/mbedtls/mbedtls-2.17.0-ssl/library\net_sockets.c ****         else
 424:C:/Users/stapi/OneDrive/Desktop/GD32VW553/GD32VW55X_Wifi_BLE_SDK/GD32VW55x_RELEASE_V1.0.2/MSDK/mbedtls/mbedtls-2.17.0-ssl/library\net_sockets.c ****         {
 425:C:/Users/stapi/OneDrive/Desktop/GD32VW553/GD32VW55X_Wifi_BLE_SDK/GD32VW55x_RELEASE_V1.0.2/MSDK/mbedtls/mbedtls-2.17.0-ssl/library\net_sockets.c ****             struct sockaddr_in6 *addr6 = (struct sockaddr_in6 *) &client_addr;
 426:C:/Users/stapi/OneDrive/Desktop/GD32VW553/GD32VW55X_Wifi_BLE_SDK/GD32VW55x_RELEASE_V1.0.2/MSDK/mbedtls/mbedtls-2.17.0-ssl/library\net_sockets.c ****             *ip_len = sizeof( addr6->sin6_addr.s6_addr );
 427:C:/Users/stapi/OneDrive/Desktop/GD32VW553/GD32VW55X_Wifi_BLE_SDK/GD32VW55x_RELEASE_V1.0.2/MSDK/mbedtls/mbedtls-2.17.0-ssl/library\net_sockets.c **** 
 428:C:/Users/stapi/OneDrive/Desktop/GD32VW553/GD32VW55X_Wifi_BLE_SDK/GD32VW55x_RELEASE_V1.0.2/MSDK/mbedtls/mbedtls-2.17.0-ssl/library\net_sockets.c ****             if( buf_size < *ip_len )
 429:C:/Users/stapi/OneDrive/Desktop/GD32VW553/GD32VW55X_Wifi_BLE_SDK/GD32VW55x_RELEASE_V1.0.2/MSDK/mbedtls/mbedtls-2.17.0-ssl/library\net_sockets.c ****                 return( MBEDTLS_ERR_NET_BUFFER_TOO_SMALL );
 430:C:/Users/stapi/OneDrive/Desktop/GD32VW553/GD32VW55X_Wifi_BLE_SDK/GD32VW55x_RELEASE_V1.0.2/MSDK/mbedtls/mbedtls-2.17.0-ssl/library\net_sockets.c **** 
 431:C:/Users/stapi/OneDrive/Desktop/GD32VW553/GD32VW55X_Wifi_BLE_SDK/GD32VW55x_RELEASE_V1.0.2/MSDK/mbedtls/mbedtls-2.17.0-ssl/library\net_sockets.c ****             memcpy( client_ip, &addr6->sin6_addr.s6_addr, *ip_len);
 432:C:/Users/stapi/OneDrive/Desktop/GD32VW553/GD32VW55X_Wifi_BLE_SDK/GD32VW55x_RELEASE_V1.0.2/MSDK/mbedtls/mbedtls-2.17.0-ssl/library\net_sockets.c ****         }
 433:C:/Users/stapi/OneDrive/Desktop/GD32VW553/GD32VW55X_Wifi_BLE_SDK/GD32VW55x_RELEASE_V1.0.2/MSDK/mbedtls/mbedtls-2.17.0-ssl/library\net_sockets.c **** #endif
 434:C:/Users/stapi/OneDrive/Desktop/GD32VW553/GD32VW55X_Wifi_BLE_SDK/GD32VW55x_RELEASE_V1.0.2/MSDK/mbedtls/mbedtls-2.17.0-ssl/library\net_sockets.c ****     }
 435:C:/Users/stapi/OneDrive/Desktop/GD32VW553/GD32VW55X_Wifi_BLE_SDK/GD32VW55x_RELEASE_V1.0.2/MSDK/mbedtls/mbedtls-2.17.0-ssl/library\net_sockets.c **** 
 436:C:/Users/stapi/OneDrive/Desktop/GD32VW553/GD32VW55X_Wifi_BLE_SDK/GD32VW55x_RELEASE_V1.0.2/MSDK/mbedtls/mbedtls-2.17.0-ssl/library\net_sockets.c ****     return( 0 );
 437:C:/Users/stapi/OneDrive/Desktop/GD32VW553/GD32VW55X_Wifi_BLE_SDK/GD32VW55x_RELEASE_V1.0.2/MSDK/mbedtls/mbedtls-2.17.0-ssl/library\net_sockets.c **** }
 613              		.loc 1 437 1
 614 00d0 2285     		mv	a0,s0
 615 00d2 1561     		addi	sp,sp,288
 616              		.cfi_remember_state
 617              		.cfi_def_cfa_offset 0
 618 00d4 17030000 		tail	__riscv_restore_6
 618      67000300 
 619              		.cfi_restore 21
 620              		.cfi_restore 20
 621              		.cfi_restore 19
 622              		.cfi_restore 18
 623              		.cfi_restore 9
 624              		.cfi_restore 8
 625              		.cfi_restore 1
 626              		.cfi_def_cfa_offset -32
 627              	.L53:
 628              		.cfi_restore_state
 629              	.LBB9:
 396:C:/Users/stapi/OneDrive/Desktop/GD32VW553/GD32VW55X_Wifi_BLE_SDK/GD32VW55x_RELEASE_V1.0.2/MSDK/mbedtls/mbedtls-2.17.0-ssl/library\net_sockets.c ****                                            SOCK_DGRAM, IPPROTO_UDP ) ) < 0 ||
 630              		.loc 1 396 30
 631 00dc 0345D109 		lbu	a0,157(sp)
 632 00e0 4546     		li	a2,17
 633 00e2 8945     		li	a1,2
 634 00e4 97000000 		call	lwip_socket
 634      E7800000 
 635              	.LVL63:
 396:C:/Users/stapi/OneDrive/Desktop/GD32VW553/GD32VW55X_Wifi_BLE_SDK/GD32VW55x_RELEASE_V1.0.2/MSDK/mbedtls/mbedtls-2.17.0-ssl/library\net_sockets.c ****                                            SOCK_DGRAM, IPPROTO_UDP ) ) < 0 ||
 636              		.loc 1 396 28
 637 00ec 88C0     		sw	a0,0(s1)
 395:C:/Users/stapi/OneDrive/Desktop/GD32VW553/GD32VW55X_Wifi_BLE_SDK/GD32VW55x_RELEASE_V1.0.2/MSDK/mbedtls/mbedtls-2.17.0-ssl/library\net_sockets.c ****                          (struct sockaddr *) &local_addr, &n ) != 0 ||
 638              		.loc 1 395 69
 639 00ee E34F05FC 		blt	a0,zero,.L54
 398:C:/Users/stapi/OneDrive/Desktop/GD32VW553/GD32VW55X_Wifi_BLE_SDK/GD32VW55x_RELEASE_V1.0.2/MSDK/mbedtls/mbedtls-2.17.0-ssl/library\net_sockets.c ****                         (const char *) &one, sizeof( one ) ) != 0 )
 640              		.loc 1 398 13
 641 00f2 8565     		li	a1,4096
 642 00f4 1147     		li	a4,4
 643 00f6 5408     		addi	a3,sp,20
 644 00f8 1146     		li	a2,4
 645 00fa FD15     		addi	a1,a1,-1
 646 00fc 97000000 		call	lwip_setsockopt
 646      E7800000 
 647              	.LVL64:
 397:C:/Users/stapi/OneDrive/Desktop/GD32VW553/GD32VW55X_Wifi_BLE_SDK/GD32VW55x_RELEASE_V1.0.2/MSDK/mbedtls/mbedtls-2.17.0-ssl/library\net_sockets.c ****             setsockopt( bind_ctx->fd, SOL_SOCKET, SO_REUSEADDR,
 648              		.loc 1 397 76
 649 0104 61F5     		bne	a0,zero,.L54
 404:C:/Users/stapi/OneDrive/Desktop/GD32VW553/GD32VW55X_Wifi_BLE_SDK/GD32VW55x_RELEASE_V1.0.2/MSDK/mbedtls/mbedtls-2.17.0-ssl/library\net_sockets.c ****         {
 650              		.loc 1 404 9 is_stmt 1
 404:C:/Users/stapi/OneDrive/Desktop/GD32VW553/GD32VW55X_Wifi_BLE_SDK/GD32VW55x_RELEASE_V1.0.2/MSDK/mbedtls/mbedtls-2.17.0-ssl/library\net_sockets.c ****         {
 651              		.loc 1 404 13 is_stmt 0
 652 0106 3246     		lw	a2,12(sp)
 653 0108 8840     		lw	a0,0(s1)
 654 010a 6C09     		addi	a1,sp,156
 655 010c 97000000 		call	lwip_bind
 655      E7800000 
 656              	.LVL65:
 404:C:/Users/stapi/OneDrive/Desktop/GD32VW553/GD32VW55X_Wifi_BLE_SDK/GD32VW55x_RELEASE_V1.0.2/MSDK/mbedtls/mbedtls-2.17.0-ssl/library\net_sockets.c ****         {
 657              		.loc 1 404 11
 658 0114 01C5     		beq	a0,zero,.L51
 406:C:/Users/stapi/OneDrive/Desktop/GD32VW553/GD32VW55X_Wifi_BLE_SDK/GD32VW55x_RELEASE_V1.0.2/MSDK/mbedtls/mbedtls-2.17.0-ssl/library\net_sockets.c ****         }
 659              		.loc 1 406 19
 660 0116 1304A0FB 		li	s0,-70
 661 011a 5DBF     		j	.L44
 662              	.L51:
 663              	.LBE9:
 410:C:/Users/stapi/OneDrive/Desktop/GD32VW553/GD32VW55X_Wifi_BLE_SDK/GD32VW55x_RELEASE_V1.0.2/MSDK/mbedtls/mbedtls-2.17.0-ssl/library\net_sockets.c ****     {
 664              		.loc 1 410 5 is_stmt 1
 410:C:/Users/stapi/OneDrive/Desktop/GD32VW553/GD32VW55X_Wifi_BLE_SDK/GD32VW55x_RELEASE_V1.0.2/MSDK/mbedtls/mbedtls-2.17.0-ssl/library\net_sockets.c ****     {
 665              		.loc 1 410 7 is_stmt 0
 666 011c E38A09FA 		beq	s3,zero,.L44
 412:C:/Users/stapi/OneDrive/Desktop/GD32VW553/GD32VW55X_Wifi_BLE_SDK/GD32VW55x_RELEASE_V1.0.2/MSDK/mbedtls/mbedtls-2.17.0-ssl/library\net_sockets.c ****         {
 667              		.loc 1 412 9 is_stmt 1
 412:C:/Users/stapi/OneDrive/Desktop/GD32VW553/GD32VW55X_Wifi_BLE_SDK/GD32VW55x_RELEASE_V1.0.2/MSDK/mbedtls/mbedtls-2.17.0-ssl/library\net_sockets.c ****         {
 668              		.loc 1 412 11 is_stmt 0
 669 0120 03479101 		lbu	a4,25(sp)
 670 0124 8947     		li	a5,2
 671 0126 E315F7FA 		bne	a4,a5,.L44
 672              	.LBB10:
 414:C:/Users/stapi/OneDrive/Desktop/GD32VW553/GD32VW55X_Wifi_BLE_SDK/GD32VW55x_RELEASE_V1.0.2/MSDK/mbedtls/mbedtls-2.17.0-ssl/library\net_sockets.c ****             *ip_len = sizeof( addr4->sin_addr.s_addr );
 673              		.loc 1 414 13 is_stmt 1
 674              	.LVL66:
 415:C:/Users/stapi/OneDrive/Desktop/GD32VW553/GD32VW55X_Wifi_BLE_SDK/GD32VW55x_RELEASE_V1.0.2/MSDK/mbedtls/mbedtls-2.17.0-ssl/library\net_sockets.c **** 
 675              		.loc 1 415 13
 415:C:/Users/stapi/OneDrive/Desktop/GD32VW553/GD32VW55X_Wifi_BLE_SDK/GD32VW55x_RELEASE_V1.0.2/MSDK/mbedtls/mbedtls-2.17.0-ssl/library\net_sockets.c **** 
 676              		.loc 1 415 21 is_stmt 0
 677 012a 9147     		li	a5,4
 678 012c 23A0FA00 		sw	a5,0(s5)
 417:C:/Users/stapi/OneDrive/Desktop/GD32VW553/GD32VW55X_Wifi_BLE_SDK/GD32VW55x_RELEASE_V1.0.2/MSDK/mbedtls/mbedtls-2.17.0-ssl/library\net_sockets.c ****                 return( MBEDTLS_ERR_NET_BUFFER_TOO_SMALL );
 679              		.loc 1 417 13 is_stmt 1
 417:C:/Users/stapi/OneDrive/Desktop/GD32VW553/GD32VW55X_Wifi_BLE_SDK/GD32VW55x_RELEASE_V1.0.2/MSDK/mbedtls/mbedtls-2.17.0-ssl/library\net_sockets.c ****                 return( MBEDTLS_ERR_NET_BUFFER_TOO_SMALL );
 680              		.loc 1 417 15 is_stmt 0
 681 0130 8D47     		li	a5,3
 682 0132 63FA4701 		bleu	s4,a5,.L58
 420:C:/Users/stapi/OneDrive/Desktop/GD32VW553/GD32VW55X_Wifi_BLE_SDK/GD32VW55x_RELEASE_V1.0.2/MSDK/mbedtls/mbedtls-2.17.0-ssl/library\net_sockets.c ****         }
 683              		.loc 1 420 13 is_stmt 1
 684 0136 1146     		li	a2,4
 685 0138 6C08     		addi	a1,sp,28
 686 013a 4E85     		mv	a0,s3
 687 013c 97000000 		call	memcpy
 687      E7800000 
 688              	.LVL67:
 689 0144 71B7     		j	.L44
 690              	.L58:
 418:C:/Users/stapi/OneDrive/Desktop/GD32VW553/GD32VW55X_Wifi_BLE_SDK/GD32VW55x_RELEASE_V1.0.2/MSDK/mbedtls/mbedtls-2.17.0-ssl/library\net_sockets.c **** 
 691              		.loc 1 418 23 is_stmt 0
 692 0146 1304D0FB 		li	s0,-67
 693 014a 59B7     		j	.L44
 694              	.LBE10:
 695              		.cfi_endproc
 696              	.LFE388:
 698              		.section	.text.mbedtls_net_set_block,"ax",@progbits
 699              		.align	1
 700              		.globl	mbedtls_net_set_block
 702              	mbedtls_net_set_block:
 703              	.LFB389:
 438:C:/Users/stapi/OneDrive/Desktop/GD32VW553/GD32VW55X_Wifi_BLE_SDK/GD32VW55x_RELEASE_V1.0.2/MSDK/mbedtls/mbedtls-2.17.0-ssl/library\net_sockets.c **** 
 439:C:/Users/stapi/OneDrive/Desktop/GD32VW553/GD32VW55X_Wifi_BLE_SDK/GD32VW55x_RELEASE_V1.0.2/MSDK/mbedtls/mbedtls-2.17.0-ssl/library\net_sockets.c **** /*
 440:C:/Users/stapi/OneDrive/Desktop/GD32VW553/GD32VW55X_Wifi_BLE_SDK/GD32VW55x_RELEASE_V1.0.2/MSDK/mbedtls/mbedtls-2.17.0-ssl/library\net_sockets.c ****  * Set the socket blocking or non-blocking
 441:C:/Users/stapi/OneDrive/Desktop/GD32VW553/GD32VW55X_Wifi_BLE_SDK/GD32VW55x_RELEASE_V1.0.2/MSDK/mbedtls/mbedtls-2.17.0-ssl/library\net_sockets.c ****  */
 442:C:/Users/stapi/OneDrive/Desktop/GD32VW553/GD32VW55X_Wifi_BLE_SDK/GD32VW55x_RELEASE_V1.0.2/MSDK/mbedtls/mbedtls-2.17.0-ssl/library\net_sockets.c **** int mbedtls_net_set_block( mbedtls_net_context *ctx )
 443:C:/Users/stapi/OneDrive/Desktop/GD32VW553/GD32VW55X_Wifi_BLE_SDK/GD32VW55x_RELEASE_V1.0.2/MSDK/mbedtls/mbedtls-2.17.0-ssl/library\net_sockets.c **** {
 704              		.loc 1 443 1 is_stmt 1
 705              		.cfi_startproc
 706              	.LVL68:
 707 0000 17030000 		call	t0,__riscv_save_1
 707      E7020300 
 708              		.cfi_offset 8, -8
 709              		.cfi_offset 1, -4
 710              		.cfi_def_cfa_offset 16
 444:C:/Users/stapi/OneDrive/Desktop/GD32VW553/GD32VW55X_Wifi_BLE_SDK/GD32VW55x_RELEASE_V1.0.2/MSDK/mbedtls/mbedtls-2.17.0-ssl/library\net_sockets.c **** #if ( defined(_WIN32) || defined(_WIN32_WCE) ) && !defined(EFIX64) && \
 445:C:/Users/stapi/OneDrive/Desktop/GD32VW553/GD32VW55X_Wifi_BLE_SDK/GD32VW55x_RELEASE_V1.0.2/MSDK/mbedtls/mbedtls-2.17.0-ssl/library\net_sockets.c ****     !defined(EFI32)
 446:C:/Users/stapi/OneDrive/Desktop/GD32VW553/GD32VW55X_Wifi_BLE_SDK/GD32VW55x_RELEASE_V1.0.2/MSDK/mbedtls/mbedtls-2.17.0-ssl/library\net_sockets.c ****     u_long n = 0;
 447:C:/Users/stapi/OneDrive/Desktop/GD32VW553/GD32VW55X_Wifi_BLE_SDK/GD32VW55x_RELEASE_V1.0.2/MSDK/mbedtls/mbedtls-2.17.0-ssl/library\net_sockets.c ****     return( ioctlsocket( ctx->fd, FIONBIO, &n ) );
 448:C:/Users/stapi/OneDrive/Desktop/GD32VW553/GD32VW55X_Wifi_BLE_SDK/GD32VW55x_RELEASE_V1.0.2/MSDK/mbedtls/mbedtls-2.17.0-ssl/library\net_sockets.c **** #else
 449:C:/Users/stapi/OneDrive/Desktop/GD32VW553/GD32VW55X_Wifi_BLE_SDK/GD32VW55x_RELEASE_V1.0.2/MSDK/mbedtls/mbedtls-2.17.0-ssl/library\net_sockets.c ****     return( fcntl( ctx->fd, F_SETFL, fcntl( ctx->fd, F_GETFL, 0) & ~O_NONBLOCK ) );
 711              		.loc 1 449 5
 712              		.loc 1 449 13 is_stmt 0
 713 0008 0041     		lw	s0,0(a0)
 714 000a 0146     		li	a2,0
 715 000c 8D45     		li	a1,3
 716 000e 2285     		mv	a0,s0
 717              	.LVL69:
 718 0010 97000000 		call	lwip_fcntl
 718      E7800000 
 719              	.LVL70:
 720 0018 1376E5FF 		andi	a2,a0,-2
 721 001c 9145     		li	a1,4
 722 001e 2285     		mv	a0,s0
 723 0020 97000000 		call	lwip_fcntl
 723      E7800000 
 724              	.LVL71:
 450:C:/Users/stapi/OneDrive/Desktop/GD32VW553/GD32VW55X_Wifi_BLE_SDK/GD32VW55x_RELEASE_V1.0.2/MSDK/mbedtls/mbedtls-2.17.0-ssl/library\net_sockets.c **** #endif
 451:C:/Users/stapi/OneDrive/Desktop/GD32VW553/GD32VW55X_Wifi_BLE_SDK/GD32VW55x_RELEASE_V1.0.2/MSDK/mbedtls/mbedtls-2.17.0-ssl/library\net_sockets.c **** }
 725              		.loc 1 451 1
 726 0028 17030000 		tail	__riscv_restore_1
 726      67000300 
 727              		.cfi_restore 8
 728              		.cfi_restore 1
 729              		.cfi_def_cfa_offset 0
 730              		.cfi_endproc
 731              	.LFE389:
 733              		.section	.text.mbedtls_net_set_nonblock,"ax",@progbits
 734              		.align	1
 735              		.globl	mbedtls_net_set_nonblock
 737              	mbedtls_net_set_nonblock:
 738              	.LFB390:
 452:C:/Users/stapi/OneDrive/Desktop/GD32VW553/GD32VW55X_Wifi_BLE_SDK/GD32VW55x_RELEASE_V1.0.2/MSDK/mbedtls/mbedtls-2.17.0-ssl/library\net_sockets.c **** 
 453:C:/Users/stapi/OneDrive/Desktop/GD32VW553/GD32VW55X_Wifi_BLE_SDK/GD32VW55x_RELEASE_V1.0.2/MSDK/mbedtls/mbedtls-2.17.0-ssl/library\net_sockets.c **** int mbedtls_net_set_nonblock( mbedtls_net_context *ctx )
 454:C:/Users/stapi/OneDrive/Desktop/GD32VW553/GD32VW55X_Wifi_BLE_SDK/GD32VW55x_RELEASE_V1.0.2/MSDK/mbedtls/mbedtls-2.17.0-ssl/library\net_sockets.c **** {
 739              		.loc 1 454 1 is_stmt 1
 740              		.cfi_startproc
 741              	.LVL72:
 742 0000 17030000 		call	t0,__riscv_save_1
 742      E7020300 
 743              		.cfi_offset 8, -8
 744              		.cfi_offset 1, -4
 745              		.cfi_def_cfa_offset 16
 455:C:/Users/stapi/OneDrive/Desktop/GD32VW553/GD32VW55X_Wifi_BLE_SDK/GD32VW55x_RELEASE_V1.0.2/MSDK/mbedtls/mbedtls-2.17.0-ssl/library\net_sockets.c **** #if ( defined(_WIN32) || defined(_WIN32_WCE) ) && !defined(EFIX64) && \
 456:C:/Users/stapi/OneDrive/Desktop/GD32VW553/GD32VW55X_Wifi_BLE_SDK/GD32VW55x_RELEASE_V1.0.2/MSDK/mbedtls/mbedtls-2.17.0-ssl/library\net_sockets.c ****     !defined(EFI32)
 457:C:/Users/stapi/OneDrive/Desktop/GD32VW553/GD32VW55X_Wifi_BLE_SDK/GD32VW55x_RELEASE_V1.0.2/MSDK/mbedtls/mbedtls-2.17.0-ssl/library\net_sockets.c ****     u_long n = 1;
 458:C:/Users/stapi/OneDrive/Desktop/GD32VW553/GD32VW55X_Wifi_BLE_SDK/GD32VW55x_RELEASE_V1.0.2/MSDK/mbedtls/mbedtls-2.17.0-ssl/library\net_sockets.c ****     return( ioctlsocket( ctx->fd, FIONBIO, &n ) );
 459:C:/Users/stapi/OneDrive/Desktop/GD32VW553/GD32VW55X_Wifi_BLE_SDK/GD32VW55x_RELEASE_V1.0.2/MSDK/mbedtls/mbedtls-2.17.0-ssl/library\net_sockets.c **** #else
 460:C:/Users/stapi/OneDrive/Desktop/GD32VW553/GD32VW55X_Wifi_BLE_SDK/GD32VW55x_RELEASE_V1.0.2/MSDK/mbedtls/mbedtls-2.17.0-ssl/library\net_sockets.c ****     return( fcntl( ctx->fd, F_SETFL, fcntl( ctx->fd, F_GETFL, 0) | O_NONBLOCK ) );
 746              		.loc 1 460 5
 747              		.loc 1 460 13 is_stmt 0
 748 0008 0041     		lw	s0,0(a0)
 749 000a 0146     		li	a2,0
 750 000c 8D45     		li	a1,3
 751 000e 2285     		mv	a0,s0
 752              	.LVL73:
 753 0010 97000000 		call	lwip_fcntl
 753      E7800000 
 754              	.LVL74:
 755 0018 13661500 		ori	a2,a0,1
 756 001c 9145     		li	a1,4
 757 001e 2285     		mv	a0,s0
 758 0020 97000000 		call	lwip_fcntl
 758      E7800000 
 759              	.LVL75:
 461:C:/Users/stapi/OneDrive/Desktop/GD32VW553/GD32VW55X_Wifi_BLE_SDK/GD32VW55x_RELEASE_V1.0.2/MSDK/mbedtls/mbedtls-2.17.0-ssl/library\net_sockets.c **** #endif
 462:C:/Users/stapi/OneDrive/Desktop/GD32VW553/GD32VW55X_Wifi_BLE_SDK/GD32VW55x_RELEASE_V1.0.2/MSDK/mbedtls/mbedtls-2.17.0-ssl/library\net_sockets.c **** }
 760              		.loc 1 462 1
 761 0028 17030000 		tail	__riscv_restore_1
 761      67000300 
 762              		.cfi_restore 8
 763              		.cfi_restore 1
 764              		.cfi_def_cfa_offset 0
 765              		.cfi_endproc
 766              	.LFE390:
 768              		.section	.text.mbedtls_net_poll,"ax",@progbits
 769              		.align	1
 770              		.globl	mbedtls_net_poll
 772              	mbedtls_net_poll:
 773              	.LFB391:
 463:C:/Users/stapi/OneDrive/Desktop/GD32VW553/GD32VW55X_Wifi_BLE_SDK/GD32VW55x_RELEASE_V1.0.2/MSDK/mbedtls/mbedtls-2.17.0-ssl/library\net_sockets.c **** 
 464:C:/Users/stapi/OneDrive/Desktop/GD32VW553/GD32VW55X_Wifi_BLE_SDK/GD32VW55x_RELEASE_V1.0.2/MSDK/mbedtls/mbedtls-2.17.0-ssl/library\net_sockets.c **** /*
 465:C:/Users/stapi/OneDrive/Desktop/GD32VW553/GD32VW55X_Wifi_BLE_SDK/GD32VW55x_RELEASE_V1.0.2/MSDK/mbedtls/mbedtls-2.17.0-ssl/library\net_sockets.c ****  * Check if data is available on the socket
 466:C:/Users/stapi/OneDrive/Desktop/GD32VW553/GD32VW55X_Wifi_BLE_SDK/GD32VW55x_RELEASE_V1.0.2/MSDK/mbedtls/mbedtls-2.17.0-ssl/library\net_sockets.c ****  */
 467:C:/Users/stapi/OneDrive/Desktop/GD32VW553/GD32VW55X_Wifi_BLE_SDK/GD32VW55x_RELEASE_V1.0.2/MSDK/mbedtls/mbedtls-2.17.0-ssl/library\net_sockets.c **** 
 468:C:/Users/stapi/OneDrive/Desktop/GD32VW553/GD32VW55X_Wifi_BLE_SDK/GD32VW55x_RELEASE_V1.0.2/MSDK/mbedtls/mbedtls-2.17.0-ssl/library\net_sockets.c **** int mbedtls_net_poll( mbedtls_net_context *ctx, uint32_t rw, uint32_t timeout )
 469:C:/Users/stapi/OneDrive/Desktop/GD32VW553/GD32VW55X_Wifi_BLE_SDK/GD32VW55x_RELEASE_V1.0.2/MSDK/mbedtls/mbedtls-2.17.0-ssl/library\net_sockets.c **** {
 774              		.loc 1 469 1 is_stmt 1
 775              		.cfi_startproc
 776              	.LVL76:
 777 0000 17030000 		call	t0,__riscv_save_4
 777      E7020300 
 778              		.cfi_offset 19, -20
 779              		.cfi_offset 18, -16
 780              		.cfi_offset 9, -12
 781              		.cfi_offset 8, -8
 782              		.cfi_offset 1, -4
 783              		.cfi_def_cfa_offset 32
 470:C:/Users/stapi/OneDrive/Desktop/GD32VW553/GD32VW55X_Wifi_BLE_SDK/GD32VW55x_RELEASE_V1.0.2/MSDK/mbedtls/mbedtls-2.17.0-ssl/library\net_sockets.c ****     int ret;
 784              		.loc 1 470 5
 471:C:/Users/stapi/OneDrive/Desktop/GD32VW553/GD32VW55X_Wifi_BLE_SDK/GD32VW55x_RELEASE_V1.0.2/MSDK/mbedtls/mbedtls-2.17.0-ssl/library\net_sockets.c ****     struct timeval tv;
 785              		.loc 1 471 5
 472:C:/Users/stapi/OneDrive/Desktop/GD32VW553/GD32VW55X_Wifi_BLE_SDK/GD32VW55x_RELEASE_V1.0.2/MSDK/mbedtls/mbedtls-2.17.0-ssl/library\net_sockets.c **** 
 473:C:/Users/stapi/OneDrive/Desktop/GD32VW553/GD32VW55X_Wifi_BLE_SDK/GD32VW55x_RELEASE_V1.0.2/MSDK/mbedtls/mbedtls-2.17.0-ssl/library\net_sockets.c ****     fd_set read_fds;
 786              		.loc 1 473 5
 474:C:/Users/stapi/OneDrive/Desktop/GD32VW553/GD32VW55X_Wifi_BLE_SDK/GD32VW55x_RELEASE_V1.0.2/MSDK/mbedtls/mbedtls-2.17.0-ssl/library\net_sockets.c ****     fd_set write_fds;
 787              		.loc 1 474 5
 475:C:/Users/stapi/OneDrive/Desktop/GD32VW553/GD32VW55X_Wifi_BLE_SDK/GD32VW55x_RELEASE_V1.0.2/MSDK/mbedtls/mbedtls-2.17.0-ssl/library\net_sockets.c **** 
 476:C:/Users/stapi/OneDrive/Desktop/GD32VW553/GD32VW55X_Wifi_BLE_SDK/GD32VW55x_RELEASE_V1.0.2/MSDK/mbedtls/mbedtls-2.17.0-ssl/library\net_sockets.c ****     int fd = ctx->fd;
 788              		.loc 1 476 5
 789              		.loc 1 476 9 is_stmt 0
 790 0008 0041     		lw	s0,0(a0)
 791              	.LVL77:
 477:C:/Users/stapi/OneDrive/Desktop/GD32VW553/GD32VW55X_Wifi_BLE_SDK/GD32VW55x_RELEASE_V1.0.2/MSDK/mbedtls/mbedtls-2.17.0-ssl/library\net_sockets.c **** 
 478:C:/Users/stapi/OneDrive/Desktop/GD32VW553/GD32VW55X_Wifi_BLE_SDK/GD32VW55x_RELEASE_V1.0.2/MSDK/mbedtls/mbedtls-2.17.0-ssl/library\net_sockets.c ****     if( fd < 0 )
 792              		.loc 1 478 5 is_stmt 1
 469:C:/Users/stapi/OneDrive/Desktop/GD32VW553/GD32VW55X_Wifi_BLE_SDK/GD32VW55x_RELEASE_V1.0.2/MSDK/mbedtls/mbedtls-2.17.0-ssl/library\net_sockets.c ****     int ret;
 793              		.loc 1 469 1 is_stmt 0
 794 000a 4111     		addi	sp,sp,-16
 795              		.cfi_def_cfa_offset 48
 479:C:/Users/stapi/OneDrive/Desktop/GD32VW553/GD32VW55X_Wifi_BLE_SDK/GD32VW55x_RELEASE_V1.0.2/MSDK/mbedtls/mbedtls-2.17.0-ssl/library\net_sockets.c ****         return( MBEDTLS_ERR_NET_INVALID_CONTEXT );
 796              		.loc 1 479 15
 797 000c 1305B0FB 		li	a0,-69
 798              	.LVL78:
 478:C:/Users/stapi/OneDrive/Desktop/GD32VW553/GD32VW55X_Wifi_BLE_SDK/GD32VW55x_RELEASE_V1.0.2/MSDK/mbedtls/mbedtls-2.17.0-ssl/library\net_sockets.c ****         return( MBEDTLS_ERR_NET_INVALID_CONTEXT );
 799              		.loc 1 478 7
 800 0010 6345040C 		blt	s0,zero,.L67
 480:C:/Users/stapi/OneDrive/Desktop/GD32VW553/GD32VW55X_Wifi_BLE_SDK/GD32VW55x_RELEASE_V1.0.2/MSDK/mbedtls/mbedtls-2.17.0-ssl/library\net_sockets.c **** 
 481:C:/Users/stapi/OneDrive/Desktop/GD32VW553/GD32VW55X_Wifi_BLE_SDK/GD32VW55x_RELEASE_V1.0.2/MSDK/mbedtls/mbedtls-2.17.0-ssl/library\net_sockets.c **** #if defined(__has_feature)
 482:C:/Users/stapi/OneDrive/Desktop/GD32VW553/GD32VW55X_Wifi_BLE_SDK/GD32VW55x_RELEASE_V1.0.2/MSDK/mbedtls/mbedtls-2.17.0-ssl/library\net_sockets.c **** #if __has_feature(memory_sanitizer)
 483:C:/Users/stapi/OneDrive/Desktop/GD32VW553/GD32VW55X_Wifi_BLE_SDK/GD32VW55x_RELEASE_V1.0.2/MSDK/mbedtls/mbedtls-2.17.0-ssl/library\net_sockets.c ****     /* Ensure that memory sanitizers consider read_fds and write_fds as
 484:C:/Users/stapi/OneDrive/Desktop/GD32VW553/GD32VW55X_Wifi_BLE_SDK/GD32VW55x_RELEASE_V1.0.2/MSDK/mbedtls/mbedtls-2.17.0-ssl/library\net_sockets.c ****      * initialized even on platforms such as Glibc/x86_64 where FD_ZERO
 485:C:/Users/stapi/OneDrive/Desktop/GD32VW553/GD32VW55X_Wifi_BLE_SDK/GD32VW55x_RELEASE_V1.0.2/MSDK/mbedtls/mbedtls-2.17.0-ssl/library\net_sockets.c ****      * is implemented in assembly. */
 486:C:/Users/stapi/OneDrive/Desktop/GD32VW553/GD32VW55X_Wifi_BLE_SDK/GD32VW55x_RELEASE_V1.0.2/MSDK/mbedtls/mbedtls-2.17.0-ssl/library\net_sockets.c ****     memset( &read_fds, 0, sizeof( read_fds ) );
 487:C:/Users/stapi/OneDrive/Desktop/GD32VW553/GD32VW55X_Wifi_BLE_SDK/GD32VW55x_RELEASE_V1.0.2/MSDK/mbedtls/mbedtls-2.17.0-ssl/library\net_sockets.c ****     memset( &write_fds, 0, sizeof( write_fds ) );
 488:C:/Users/stapi/OneDrive/Desktop/GD32VW553/GD32VW55X_Wifi_BLE_SDK/GD32VW55x_RELEASE_V1.0.2/MSDK/mbedtls/mbedtls-2.17.0-ssl/library\net_sockets.c **** #endif
 489:C:/Users/stapi/OneDrive/Desktop/GD32VW553/GD32VW55X_Wifi_BLE_SDK/GD32VW55x_RELEASE_V1.0.2/MSDK/mbedtls/mbedtls-2.17.0-ssl/library\net_sockets.c **** #endif
 490:C:/Users/stapi/OneDrive/Desktop/GD32VW553/GD32VW55X_Wifi_BLE_SDK/GD32VW55x_RELEASE_V1.0.2/MSDK/mbedtls/mbedtls-2.17.0-ssl/library\net_sockets.c **** 
 491:C:/Users/stapi/OneDrive/Desktop/GD32VW553/GD32VW55X_Wifi_BLE_SDK/GD32VW55x_RELEASE_V1.0.2/MSDK/mbedtls/mbedtls-2.17.0-ssl/library\net_sockets.c ****     FD_ZERO( &read_fds );
 801              		.loc 1 491 5 is_stmt 1
 802 0014 23100100 		sh	zero,0(sp)
 492:C:/Users/stapi/OneDrive/Desktop/GD32VW553/GD32VW55X_Wifi_BLE_SDK/GD32VW55x_RELEASE_V1.0.2/MSDK/mbedtls/mbedtls-2.17.0-ssl/library\net_sockets.c ****     if( rw & MBEDTLS_NET_POLL_READ )
 803              		.loc 1 492 5
 804              		.loc 1 492 12 is_stmt 0
 805 0018 93F71500 		andi	a5,a1,1
 806              		.loc 1 492 7
 807 001c 99CF     		beq	a5,zero,.L69
 493:C:/Users/stapi/OneDrive/Desktop/GD32VW553/GD32VW55X_Wifi_BLE_SDK/GD32VW55x_RELEASE_V1.0.2/MSDK/mbedtls/mbedtls-2.17.0-ssl/library\net_sockets.c ****     {
 494:C:/Users/stapi/OneDrive/Desktop/GD32VW553/GD32VW55X_Wifi_BLE_SDK/GD32VW55x_RELEASE_V1.0.2/MSDK/mbedtls/mbedtls-2.17.0-ssl/library\net_sockets.c ****         rw &= ~MBEDTLS_NET_POLL_READ;
 808              		.loc 1 494 9 is_stmt 1
 495:C:/Users/stapi/OneDrive/Desktop/GD32VW553/GD32VW55X_Wifi_BLE_SDK/GD32VW55x_RELEASE_V1.0.2/MSDK/mbedtls/mbedtls-2.17.0-ssl/library\net_sockets.c ****         FD_SET( fd, &read_fds );
 809              		.loc 1 495 9 is_stmt 0
 810 001e AD47     		li	a5,11
 494:C:/Users/stapi/OneDrive/Desktop/GD32VW553/GD32VW55X_Wifi_BLE_SDK/GD32VW55x_RELEASE_V1.0.2/MSDK/mbedtls/mbedtls-2.17.0-ssl/library\net_sockets.c ****         FD_SET( fd, &read_fds );
 811              		.loc 1 494 12
 812 0020 F999     		andi	a1,a1,-2
 813              	.LVL79:
 814              		.loc 1 495 9 is_stmt 1
 815              		.loc 1 495 9
 816 0022 63CC8700 		bgt	s0,a5,.L69
 817              		.loc 1 495 9 discriminator 1
 818 0026 1808     		addi	a4,sp,16
 819 0028 93573440 		srai	a5,s0,3
 820 002c BA97     		add	a5,a4,a5
 821 002e 13777400 		andi	a4,s0,7
 822 0032 3317E028 		bset	a4,x0,a4
 823 0036 2388E7FE 		sb	a4,-16(a5)
 824              	.L69:
 825              		.loc 1 495 9 discriminator 3
 496:C:/Users/stapi/OneDrive/Desktop/GD32VW553/GD32VW55X_Wifi_BLE_SDK/GD32VW55x_RELEASE_V1.0.2/MSDK/mbedtls/mbedtls-2.17.0-ssl/library\net_sockets.c ****     }
 497:C:/Users/stapi/OneDrive/Desktop/GD32VW553/GD32VW55X_Wifi_BLE_SDK/GD32VW55x_RELEASE_V1.0.2/MSDK/mbedtls/mbedtls-2.17.0-ssl/library\net_sockets.c **** 
 498:C:/Users/stapi/OneDrive/Desktop/GD32VW553/GD32VW55X_Wifi_BLE_SDK/GD32VW55x_RELEASE_V1.0.2/MSDK/mbedtls/mbedtls-2.17.0-ssl/library\net_sockets.c ****     FD_ZERO( &write_fds );
 826              		.loc 1 498 5 discriminator 3
 827 003a 23120100 		sh	zero,4(sp)
 499:C:/Users/stapi/OneDrive/Desktop/GD32VW553/GD32VW55X_Wifi_BLE_SDK/GD32VW55x_RELEASE_V1.0.2/MSDK/mbedtls/mbedtls-2.17.0-ssl/library\net_sockets.c ****     if( rw & MBEDTLS_NET_POLL_WRITE )
 828              		.loc 1 499 5 discriminator 3
 829              		.loc 1 499 12 is_stmt 0 discriminator 3
 830 003e 93F72500 		andi	a5,a1,2
 831              		.loc 1 499 7 discriminator 3
 832 0042 8DC3     		beq	a5,zero,.L70
 500:C:/Users/stapi/OneDrive/Desktop/GD32VW553/GD32VW55X_Wifi_BLE_SDK/GD32VW55x_RELEASE_V1.0.2/MSDK/mbedtls/mbedtls-2.17.0-ssl/library\net_sockets.c ****     {
 501:C:/Users/stapi/OneDrive/Desktop/GD32VW553/GD32VW55X_Wifi_BLE_SDK/GD32VW55x_RELEASE_V1.0.2/MSDK/mbedtls/mbedtls-2.17.0-ssl/library\net_sockets.c ****         rw &= ~MBEDTLS_NET_POLL_WRITE;
 833              		.loc 1 501 9 is_stmt 1
 502:C:/Users/stapi/OneDrive/Desktop/GD32VW553/GD32VW55X_Wifi_BLE_SDK/GD32VW55x_RELEASE_V1.0.2/MSDK/mbedtls/mbedtls-2.17.0-ssl/library\net_sockets.c ****         FD_SET( fd, &write_fds );
 834              		.loc 1 502 9 is_stmt 0
 835 0044 AD47     		li	a5,11
 501:C:/Users/stapi/OneDrive/Desktop/GD32VW553/GD32VW55X_Wifi_BLE_SDK/GD32VW55x_RELEASE_V1.0.2/MSDK/mbedtls/mbedtls-2.17.0-ssl/library\net_sockets.c ****         FD_SET( fd, &write_fds );
 836              		.loc 1 501 12
 837 0046 F599     		andi	a1,a1,-3
 838              	.LVL80:
 839              		.loc 1 502 9 is_stmt 1
 840              		.loc 1 502 9
 841 0048 63CE8700 		bgt	s0,a5,.L70
 842              		.loc 1 502 9 discriminator 1
 843 004c 1808     		addi	a4,sp,16
 844 004e 93573440 		srai	a5,s0,3
 845 0052 BA97     		add	a5,a4,a5
 846 0054 83C647FF 		lbu	a3,-12(a5)
 847 0058 13777400 		andi	a4,s0,7
 848 005c 3397E628 		bset	a4,a3,a4
 849 0060 238AE7FE 		sb	a4,-12(a5)
 850              	.L70:
 851              		.loc 1 502 9 discriminator 3
 503:C:/Users/stapi/OneDrive/Desktop/GD32VW553/GD32VW55X_Wifi_BLE_SDK/GD32VW55x_RELEASE_V1.0.2/MSDK/mbedtls/mbedtls-2.17.0-ssl/library\net_sockets.c ****     }
 504:C:/Users/stapi/OneDrive/Desktop/GD32VW553/GD32VW55X_Wifi_BLE_SDK/GD32VW55x_RELEASE_V1.0.2/MSDK/mbedtls/mbedtls-2.17.0-ssl/library\net_sockets.c **** 
 505:C:/Users/stapi/OneDrive/Desktop/GD32VW553/GD32VW55X_Wifi_BLE_SDK/GD32VW55x_RELEASE_V1.0.2/MSDK/mbedtls/mbedtls-2.17.0-ssl/library\net_sockets.c ****     if( rw != 0 )
 852              		.loc 1 505 5 discriminator 3
 506:C:/Users/stapi/OneDrive/Desktop/GD32VW553/GD32VW55X_Wifi_BLE_SDK/GD32VW55x_RELEASE_V1.0.2/MSDK/mbedtls/mbedtls-2.17.0-ssl/library\net_sockets.c ****         return( MBEDTLS_ERR_NET_BAD_INPUT_DATA );
 853              		.loc 1 506 15 is_stmt 0 discriminator 3
 854 0064 130570FB 		li	a0,-73
 505:C:/Users/stapi/OneDrive/Desktop/GD32VW553/GD32VW55X_Wifi_BLE_SDK/GD32VW55x_RELEASE_V1.0.2/MSDK/mbedtls/mbedtls-2.17.0-ssl/library\net_sockets.c ****         return( MBEDTLS_ERR_NET_BAD_INPUT_DATA );
 855              		.loc 1 505 7 discriminator 3
 856 0068 ADE9     		bne	a1,zero,.L67
 507:C:/Users/stapi/OneDrive/Desktop/GD32VW553/GD32VW55X_Wifi_BLE_SDK/GD32VW55x_RELEASE_V1.0.2/MSDK/mbedtls/mbedtls-2.17.0-ssl/library\net_sockets.c **** 
 508:C:/Users/stapi/OneDrive/Desktop/GD32VW553/GD32VW55X_Wifi_BLE_SDK/GD32VW55x_RELEASE_V1.0.2/MSDK/mbedtls/mbedtls-2.17.0-ssl/library\net_sockets.c ****     tv.tv_sec  = timeout / 1000;
 857              		.loc 1 508 5 is_stmt 1
 858              		.loc 1 508 26 is_stmt 0
 859 006a 1307803E 		li	a4,1000
 860 006e B357E602 		divu	a5,a2,a4
 861 0072 8144     		li	s1,0
 862              		.loc 1 508 16
 863 0074 3EC4     		sw	a5,8(sp)
 509:C:/Users/stapi/OneDrive/Desktop/GD32VW553/GD32VW55X_Wifi_BLE_SDK/GD32VW55x_RELEASE_V1.0.2/MSDK/mbedtls/mbedtls-2.17.0-ssl/library\net_sockets.c ****     tv.tv_usec = ( timeout % 1000 ) * 1000;
 864              		.loc 1 509 5 is_stmt 1
 865              		.loc 1 509 28 is_stmt 0
 866 0076 B377E602 		remu	a5,a2,a4
 867              		.loc 1 509 37
 868 007a B387E702 		mul	a5,a5,a4
 869              		.loc 1 509 16
 870 007e 3EC6     		sw	a5,12(sp)
 871 0080 FD57     		li	a5,-1
 872 0082 6303F600 		beq	a2,a5,.L72
 873 0086 2400     		addi	s1,sp,8
 874              	.L72:
 510:C:/Users/stapi/OneDrive/Desktop/GD32VW553/GD32VW55X_Wifi_BLE_SDK/GD32VW55x_RELEASE_V1.0.2/MSDK/mbedtls/mbedtls-2.17.0-ssl/library\net_sockets.c **** 
 511:C:/Users/stapi/OneDrive/Desktop/GD32VW553/GD32VW55X_Wifi_BLE_SDK/GD32VW55x_RELEASE_V1.0.2/MSDK/mbedtls/mbedtls-2.17.0-ssl/library\net_sockets.c ****     do
 512:C:/Users/stapi/OneDrive/Desktop/GD32VW553/GD32VW55X_Wifi_BLE_SDK/GD32VW55x_RELEASE_V1.0.2/MSDK/mbedtls/mbedtls-2.17.0-ssl/library\net_sockets.c ****     {
 513:C:/Users/stapi/OneDrive/Desktop/GD32VW553/GD32VW55X_Wifi_BLE_SDK/GD32VW55x_RELEASE_V1.0.2/MSDK/mbedtls/mbedtls-2.17.0-ssl/library\net_sockets.c ****         ret = select( fd + 1, &read_fds, &write_fds, NULL,
 875              		.loc 1 513 15
 876 0088 93091400 		addi	s3,s0,1
 514:C:/Users/stapi/OneDrive/Desktop/GD32VW553/GD32VW55X_Wifi_BLE_SDK/GD32VW55x_RELEASE_V1.0.2/MSDK/mbedtls/mbedtls-2.17.0-ssl/library\net_sockets.c ****                       timeout == (uint32_t) -1 ? NULL : &tv );
 515:C:/Users/stapi/OneDrive/Desktop/GD32VW553/GD32VW55X_Wifi_BLE_SDK/GD32VW55x_RELEASE_V1.0.2/MSDK/mbedtls/mbedtls-2.17.0-ssl/library\net_sockets.c ****     }
 516:C:/Users/stapi/OneDrive/Desktop/GD32VW553/GD32VW55X_Wifi_BLE_SDK/GD32VW55x_RELEASE_V1.0.2/MSDK/mbedtls/mbedtls-2.17.0-ssl/library\net_sockets.c ****     while( IS_EINTR( ret ) );
 877              		.loc 1 516 5
 878 008c 1149     		li	s2,4
 879              	.LVL81:
 880              	.L73:
 511:C:/Users/stapi/OneDrive/Desktop/GD32VW553/GD32VW55X_Wifi_BLE_SDK/GD32VW55x_RELEASE_V1.0.2/MSDK/mbedtls/mbedtls-2.17.0-ssl/library\net_sockets.c ****     {
 881              		.loc 1 511 5 is_stmt 1
 513:C:/Users/stapi/OneDrive/Desktop/GD32VW553/GD32VW55X_Wifi_BLE_SDK/GD32VW55x_RELEASE_V1.0.2/MSDK/mbedtls/mbedtls-2.17.0-ssl/library\net_sockets.c ****                       timeout == (uint32_t) -1 ? NULL : &tv );
 882              		.loc 1 513 9
 513:C:/Users/stapi/OneDrive/Desktop/GD32VW553/GD32VW55X_Wifi_BLE_SDK/GD32VW55x_RELEASE_V1.0.2/MSDK/mbedtls/mbedtls-2.17.0-ssl/library\net_sockets.c ****                       timeout == (uint32_t) -1 ? NULL : &tv );
 883              		.loc 1 513 15 is_stmt 0
 884 008e 2687     		mv	a4,s1
 885 0090 8146     		li	a3,0
 886 0092 5000     		addi	a2,sp,4
 887 0094 8A85     		mv	a1,sp
 888 0096 4E85     		mv	a0,s3
 889 0098 97000000 		call	lwip_select
 889      E7800000 
 890              	.LVL82:
 891 00a0 AA87     		mv	a5,a0
 892              	.LVL83:
 893              		.loc 1 516 10 is_stmt 1
 894              		.loc 1 516 5 is_stmt 0
 895 00a2 E30625FF 		beq	a0,s2,.L73
 517:C:/Users/stapi/OneDrive/Desktop/GD32VW553/GD32VW55X_Wifi_BLE_SDK/GD32VW55x_RELEASE_V1.0.2/MSDK/mbedtls/mbedtls-2.17.0-ssl/library\net_sockets.c **** 
 518:C:/Users/stapi/OneDrive/Desktop/GD32VW553/GD32VW55X_Wifi_BLE_SDK/GD32VW55x_RELEASE_V1.0.2/MSDK/mbedtls/mbedtls-2.17.0-ssl/library\net_sockets.c ****     if( ret < 0 )
 896              		.loc 1 518 5 is_stmt 1
 519:C:/Users/stapi/OneDrive/Desktop/GD32VW553/GD32VW55X_Wifi_BLE_SDK/GD32VW55x_RELEASE_V1.0.2/MSDK/mbedtls/mbedtls-2.17.0-ssl/library\net_sockets.c ****         return( MBEDTLS_ERR_NET_POLL_FAILED );
 897              		.loc 1 519 15 is_stmt 0
 898 00a6 130590FB 		li	a0,-71
 899              	.LVL84:
 518:C:/Users/stapi/OneDrive/Desktop/GD32VW553/GD32VW55X_Wifi_BLE_SDK/GD32VW55x_RELEASE_V1.0.2/MSDK/mbedtls/mbedtls-2.17.0-ssl/library\net_sockets.c ****         return( MBEDTLS_ERR_NET_POLL_FAILED );
 900              		.loc 1 518 7
 901 00aa 63C80702 		blt	a5,zero,.L67
 520:C:/Users/stapi/OneDrive/Desktop/GD32VW553/GD32VW55X_Wifi_BLE_SDK/GD32VW55x_RELEASE_V1.0.2/MSDK/mbedtls/mbedtls-2.17.0-ssl/library\net_sockets.c **** 
 521:C:/Users/stapi/OneDrive/Desktop/GD32VW553/GD32VW55X_Wifi_BLE_SDK/GD32VW55x_RELEASE_V1.0.2/MSDK/mbedtls/mbedtls-2.17.0-ssl/library\net_sockets.c ****     ret = 0;
 902              		.loc 1 521 5 is_stmt 1
 903              	.LVL85:
 522:C:/Users/stapi/OneDrive/Desktop/GD32VW553/GD32VW55X_Wifi_BLE_SDK/GD32VW55x_RELEASE_V1.0.2/MSDK/mbedtls/mbedtls-2.17.0-ssl/library\net_sockets.c ****     if( FD_ISSET( fd, &read_fds ) )
 904              		.loc 1 522 5
 905              		.loc 1 522 7 is_stmt 0
 906 00ae AD47     		li	a5,11
 521:C:/Users/stapi/OneDrive/Desktop/GD32VW553/GD32VW55X_Wifi_BLE_SDK/GD32VW55x_RELEASE_V1.0.2/MSDK/mbedtls/mbedtls-2.17.0-ssl/library\net_sockets.c ****     if( FD_ISSET( fd, &read_fds ) )
 907              		.loc 1 521 9
 908 00b0 0145     		li	a0,0
 909              		.loc 1 522 7
 910 00b2 63C48702 		bgt	s0,a5,.L67
 911              		.loc 1 522 9 discriminator 1
 912 00b6 93573440 		srai	a5,s0,3
 913 00ba 1808     		addi	a4,sp,16
 914 00bc BA97     		add	a5,a4,a5
 915 00be 03C507FF 		lbu	a0,-16(a5)
 523:C:/Users/stapi/OneDrive/Desktop/GD32VW553/GD32VW55X_Wifi_BLE_SDK/GD32VW55x_RELEASE_V1.0.2/MSDK/mbedtls/mbedtls-2.17.0-ssl/library\net_sockets.c ****         ret |= MBEDTLS_NET_POLL_READ;
 524:C:/Users/stapi/OneDrive/Desktop/GD32VW553/GD32VW55X_Wifi_BLE_SDK/GD32VW55x_RELEASE_V1.0.2/MSDK/mbedtls/mbedtls-2.17.0-ssl/library\net_sockets.c ****     if( FD_ISSET( fd, &write_fds ) )
 916              		.loc 1 524 9 discriminator 1
 917 00c2 83C747FF 		lbu	a5,-12(a5)
 522:C:/Users/stapi/OneDrive/Desktop/GD32VW553/GD32VW55X_Wifi_BLE_SDK/GD32VW55x_RELEASE_V1.0.2/MSDK/mbedtls/mbedtls-2.17.0-ssl/library\net_sockets.c ****         ret |= MBEDTLS_NET_POLL_READ;
 918              		.loc 1 522 9 discriminator 1
 919 00c6 1D88     		andi	s0,s0,7
 920              	.LVL86:
 921 00c8 33558540 		sra	a0,a0,s0
 922              		.loc 1 524 9 discriminator 1
 923 00cc 33D48740 		sra	s0,a5,s0
 924 00d0 0588     		andi	s0,s0,1
 522:C:/Users/stapi/OneDrive/Desktop/GD32VW553/GD32VW55X_Wifi_BLE_SDK/GD32VW55x_RELEASE_V1.0.2/MSDK/mbedtls/mbedtls-2.17.0-ssl/library\net_sockets.c ****         ret |= MBEDTLS_NET_POLL_READ;
 925              		.loc 1 522 9 discriminator 1
 926 00d2 0589     		andi	a0,a0,1
 927              	.LVL87:
 928              		.loc 1 524 5 is_stmt 1 discriminator 1
 929              		.loc 1 524 9 is_stmt 0 discriminator 1
 930 00d4 19C0     		beq	s0,zero,.L67
 525:C:/Users/stapi/OneDrive/Desktop/GD32VW553/GD32VW55X_Wifi_BLE_SDK/GD32VW55x_RELEASE_V1.0.2/MSDK/mbedtls/mbedtls-2.17.0-ssl/library\net_sockets.c ****         ret |= MBEDTLS_NET_POLL_WRITE;
 931              		.loc 1 525 9 is_stmt 1
 932              		.loc 1 525 13 is_stmt 0
 933 00d6 13652500 		ori	a0,a0,2
 934              	.LVL88:
 935              	.L67:
 526:C:/Users/stapi/OneDrive/Desktop/GD32VW553/GD32VW55X_Wifi_BLE_SDK/GD32VW55x_RELEASE_V1.0.2/MSDK/mbedtls/mbedtls-2.17.0-ssl/library\net_sockets.c **** 
 527:C:/Users/stapi/OneDrive/Desktop/GD32VW553/GD32VW55X_Wifi_BLE_SDK/GD32VW55x_RELEASE_V1.0.2/MSDK/mbedtls/mbedtls-2.17.0-ssl/library\net_sockets.c ****     return( ret );
 528:C:/Users/stapi/OneDrive/Desktop/GD32VW553/GD32VW55X_Wifi_BLE_SDK/GD32VW55x_RELEASE_V1.0.2/MSDK/mbedtls/mbedtls-2.17.0-ssl/library\net_sockets.c **** }
 936              		.loc 1 528 1
 937 00da 4101     		addi	sp,sp,16
 938              		.cfi_def_cfa_offset 0
 939 00dc 17030000 		tail	__riscv_restore_4
 939      67000300 
 940              		.cfi_restore 19
 941              		.cfi_restore 18
 942              		.cfi_restore 9
 943              		.cfi_restore 8
 944              		.cfi_restore 1
 945              		.cfi_def_cfa_offset -32
 946              		.cfi_endproc
 947              	.LFE391:
 949              		.section	.text.mbedtls_net_usleep,"ax",@progbits
 950              		.align	1
 951              		.globl	mbedtls_net_usleep
 953              	mbedtls_net_usleep:
 954              	.LFB392:
 529:C:/Users/stapi/OneDrive/Desktop/GD32VW553/GD32VW55X_Wifi_BLE_SDK/GD32VW55x_RELEASE_V1.0.2/MSDK/mbedtls/mbedtls-2.17.0-ssl/library\net_sockets.c **** 
 530:C:/Users/stapi/OneDrive/Desktop/GD32VW553/GD32VW55X_Wifi_BLE_SDK/GD32VW55x_RELEASE_V1.0.2/MSDK/mbedtls/mbedtls-2.17.0-ssl/library\net_sockets.c **** /*
 531:C:/Users/stapi/OneDrive/Desktop/GD32VW553/GD32VW55X_Wifi_BLE_SDK/GD32VW55x_RELEASE_V1.0.2/MSDK/mbedtls/mbedtls-2.17.0-ssl/library\net_sockets.c ****  * Portable usleep helper
 532:C:/Users/stapi/OneDrive/Desktop/GD32VW553/GD32VW55X_Wifi_BLE_SDK/GD32VW55x_RELEASE_V1.0.2/MSDK/mbedtls/mbedtls-2.17.0-ssl/library\net_sockets.c ****  */
 533:C:/Users/stapi/OneDrive/Desktop/GD32VW553/GD32VW55X_Wifi_BLE_SDK/GD32VW55x_RELEASE_V1.0.2/MSDK/mbedtls/mbedtls-2.17.0-ssl/library\net_sockets.c **** void mbedtls_net_usleep( unsigned long usec )
 534:C:/Users/stapi/OneDrive/Desktop/GD32VW553/GD32VW55X_Wifi_BLE_SDK/GD32VW55x_RELEASE_V1.0.2/MSDK/mbedtls/mbedtls-2.17.0-ssl/library\net_sockets.c **** {
 955              		.loc 1 534 1 is_stmt 1
 956              		.cfi_startproc
 957              	.LVL89:
 958 0000 17030000 		call	t0,__riscv_save_0
 958      E7020300 
 959              		.cfi_offset 1, -4
 960              		.cfi_def_cfa_offset 16
 535:C:/Users/stapi/OneDrive/Desktop/GD32VW553/GD32VW55X_Wifi_BLE_SDK/GD32VW55x_RELEASE_V1.0.2/MSDK/mbedtls/mbedtls-2.17.0-ssl/library\net_sockets.c **** #if defined(_WIN32)
 536:C:/Users/stapi/OneDrive/Desktop/GD32VW553/GD32VW55X_Wifi_BLE_SDK/GD32VW55x_RELEASE_V1.0.2/MSDK/mbedtls/mbedtls-2.17.0-ssl/library\net_sockets.c ****     Sleep( ( usec + 999 ) / 1000 );
 537:C:/Users/stapi/OneDrive/Desktop/GD32VW553/GD32VW55X_Wifi_BLE_SDK/GD32VW55x_RELEASE_V1.0.2/MSDK/mbedtls/mbedtls-2.17.0-ssl/library\net_sockets.c **** #else
 538:C:/Users/stapi/OneDrive/Desktop/GD32VW553/GD32VW55X_Wifi_BLE_SDK/GD32VW55x_RELEASE_V1.0.2/MSDK/mbedtls/mbedtls-2.17.0-ssl/library\net_sockets.c ****     struct timeval tv;
 961              		.loc 1 538 5
 539:C:/Users/stapi/OneDrive/Desktop/GD32VW553/GD32VW55X_Wifi_BLE_SDK/GD32VW55x_RELEASE_V1.0.2/MSDK/mbedtls/mbedtls-2.17.0-ssl/library\net_sockets.c ****     tv.tv_sec  = usec / 1000000;
 962              		.loc 1 539 5
 963              		.loc 1 539 23 is_stmt 0
 964 0008 B7470F00 		li	a5,999424
 965 000c 93870724 		addi	a5,a5,576
 966 0010 3357F502 		divu	a4,a0,a5
 534:C:/Users/stapi/OneDrive/Desktop/GD32VW553/GD32VW55X_Wifi_BLE_SDK/GD32VW55x_RELEASE_V1.0.2/MSDK/mbedtls/mbedtls-2.17.0-ssl/library\net_sockets.c **** #if defined(_WIN32)
 967              		.loc 1 534 1
 968 0014 4111     		addi	sp,sp,-16
 969              		.cfi_def_cfa_offset 32
 540:C:/Users/stapi/OneDrive/Desktop/GD32VW553/GD32VW55X_Wifi_BLE_SDK/GD32VW55x_RELEASE_V1.0.2/MSDK/mbedtls/mbedtls-2.17.0-ssl/library\net_sockets.c **** #if defined(__unix__) || defined(__unix) || \
 541:C:/Users/stapi/OneDrive/Desktop/GD32VW553/GD32VW55X_Wifi_BLE_SDK/GD32VW55x_RELEASE_V1.0.2/MSDK/mbedtls/mbedtls-2.17.0-ssl/library\net_sockets.c ****     ( defined(__APPLE__) && defined(__MACH__) )
 542:C:/Users/stapi/OneDrive/Desktop/GD32VW553/GD32VW55X_Wifi_BLE_SDK/GD32VW55x_RELEASE_V1.0.2/MSDK/mbedtls/mbedtls-2.17.0-ssl/library\net_sockets.c ****     tv.tv_usec = (suseconds_t) usec % 1000000;
 543:C:/Users/stapi/OneDrive/Desktop/GD32VW553/GD32VW55X_Wifi_BLE_SDK/GD32VW55x_RELEASE_V1.0.2/MSDK/mbedtls/mbedtls-2.17.0-ssl/library\net_sockets.c **** #else
 544:C:/Users/stapi/OneDrive/Desktop/GD32VW553/GD32VW55X_Wifi_BLE_SDK/GD32VW55x_RELEASE_V1.0.2/MSDK/mbedtls/mbedtls-2.17.0-ssl/library\net_sockets.c ****     tv.tv_usec = usec % 1000000;
 545:C:/Users/stapi/OneDrive/Desktop/GD32VW553/GD32VW55X_Wifi_BLE_SDK/GD32VW55x_RELEASE_V1.0.2/MSDK/mbedtls/mbedtls-2.17.0-ssl/library\net_sockets.c **** #endif
 546:C:/Users/stapi/OneDrive/Desktop/GD32VW553/GD32VW55X_Wifi_BLE_SDK/GD32VW55x_RELEASE_V1.0.2/MSDK/mbedtls/mbedtls-2.17.0-ssl/library\net_sockets.c ****     select( 0, NULL, NULL, NULL, &tv );
 970              		.loc 1 546 5
 971 0016 8146     		li	a3,0
 972 0018 0146     		li	a2,0
 973 001a 8145     		li	a1,0
 544:C:/Users/stapi/OneDrive/Desktop/GD32VW553/GD32VW55X_Wifi_BLE_SDK/GD32VW55x_RELEASE_V1.0.2/MSDK/mbedtls/mbedtls-2.17.0-ssl/library\net_sockets.c **** #endif
 974              		.loc 1 544 23
 975 001c 3375F502 		remu	a0,a0,a5
 976              	.LVL90:
 539:C:/Users/stapi/OneDrive/Desktop/GD32VW553/GD32VW55X_Wifi_BLE_SDK/GD32VW55x_RELEASE_V1.0.2/MSDK/mbedtls/mbedtls-2.17.0-ssl/library\net_sockets.c **** #if defined(__unix__) || defined(__unix) || \
 977              		.loc 1 539 16
 978 0020 3AC4     		sw	a4,8(sp)
 544:C:/Users/stapi/OneDrive/Desktop/GD32VW553/GD32VW55X_Wifi_BLE_SDK/GD32VW55x_RELEASE_V1.0.2/MSDK/mbedtls/mbedtls-2.17.0-ssl/library\net_sockets.c **** #endif
 979              		.loc 1 544 5 is_stmt 1
 980              		.loc 1 546 5 is_stmt 0
 981 0022 3800     		addi	a4,sp,8
 544:C:/Users/stapi/OneDrive/Desktop/GD32VW553/GD32VW55X_Wifi_BLE_SDK/GD32VW55x_RELEASE_V1.0.2/MSDK/mbedtls/mbedtls-2.17.0-ssl/library\net_sockets.c **** #endif
 982              		.loc 1 544 16
 983 0024 2AC6     		sw	a0,12(sp)
 984              		.loc 1 546 5 is_stmt 1
 985 0026 0145     		li	a0,0
 986 0028 97000000 		call	lwip_select
 986      E7800000 
 987              	.LVL91:
 547:C:/Users/stapi/OneDrive/Desktop/GD32VW553/GD32VW55X_Wifi_BLE_SDK/GD32VW55x_RELEASE_V1.0.2/MSDK/mbedtls/mbedtls-2.17.0-ssl/library\net_sockets.c **** #endif
 548:C:/Users/stapi/OneDrive/Desktop/GD32VW553/GD32VW55X_Wifi_BLE_SDK/GD32VW55x_RELEASE_V1.0.2/MSDK/mbedtls/mbedtls-2.17.0-ssl/library\net_sockets.c **** }
 988              		.loc 1 548 1 is_stmt 0
 989 0030 4101     		addi	sp,sp,16
 990              		.cfi_def_cfa_offset 0
 991 0032 17030000 		tail	__riscv_restore_0
 991      67000300 
 992              		.cfi_restore 1
 993              		.cfi_def_cfa_offset -16
 994              		.cfi_endproc
 995              	.LFE392:
 997              		.section	.text.mbedtls_net_recv,"ax",@progbits
 998              		.align	1
 999              		.globl	mbedtls_net_recv
 1001              	mbedtls_net_recv:
 1002              	.LFB393:
 549:C:/Users/stapi/OneDrive/Desktop/GD32VW553/GD32VW55X_Wifi_BLE_SDK/GD32VW55x_RELEASE_V1.0.2/MSDK/mbedtls/mbedtls-2.17.0-ssl/library\net_sockets.c **** 
 550:C:/Users/stapi/OneDrive/Desktop/GD32VW553/GD32VW55X_Wifi_BLE_SDK/GD32VW55x_RELEASE_V1.0.2/MSDK/mbedtls/mbedtls-2.17.0-ssl/library\net_sockets.c **** /*
 551:C:/Users/stapi/OneDrive/Desktop/GD32VW553/GD32VW55X_Wifi_BLE_SDK/GD32VW55x_RELEASE_V1.0.2/MSDK/mbedtls/mbedtls-2.17.0-ssl/library\net_sockets.c ****  * Read at most 'len' characters
 552:C:/Users/stapi/OneDrive/Desktop/GD32VW553/GD32VW55X_Wifi_BLE_SDK/GD32VW55x_RELEASE_V1.0.2/MSDK/mbedtls/mbedtls-2.17.0-ssl/library\net_sockets.c ****  */
 553:C:/Users/stapi/OneDrive/Desktop/GD32VW553/GD32VW55X_Wifi_BLE_SDK/GD32VW55x_RELEASE_V1.0.2/MSDK/mbedtls/mbedtls-2.17.0-ssl/library\net_sockets.c **** int mbedtls_net_recv( void *ctx, unsigned char *buf, size_t len )
 554:C:/Users/stapi/OneDrive/Desktop/GD32VW553/GD32VW55X_Wifi_BLE_SDK/GD32VW55x_RELEASE_V1.0.2/MSDK/mbedtls/mbedtls-2.17.0-ssl/library\net_sockets.c **** {
 1003              		.loc 1 554 1 is_stmt 1
 1004              		.cfi_startproc
 1005              	.LVL92:
 1006 0000 17030000 		call	t0,__riscv_save_1
 1006      E7020300 
 1007              		.cfi_offset 8, -8
 1008              		.cfi_offset 1, -4
 1009              		.cfi_def_cfa_offset 16
 1010              		.loc 1 554 1 is_stmt 0
 1011 0008 2A84     		mv	s0,a0
 555:C:/Users/stapi/OneDrive/Desktop/GD32VW553/GD32VW55X_Wifi_BLE_SDK/GD32VW55x_RELEASE_V1.0.2/MSDK/mbedtls/mbedtls-2.17.0-ssl/library\net_sockets.c ****     int ret;
 1012              		.loc 1 555 5 is_stmt 1
 556:C:/Users/stapi/OneDrive/Desktop/GD32VW553/GD32VW55X_Wifi_BLE_SDK/GD32VW55x_RELEASE_V1.0.2/MSDK/mbedtls/mbedtls-2.17.0-ssl/library\net_sockets.c ****     int fd = ((mbedtls_net_context *) ctx)->fd;
 1013              		.loc 1 556 5
 1014              		.loc 1 556 9 is_stmt 0
 1015 000a 0841     		lw	a0,0(a0)
 1016              	.LVL93:
 557:C:/Users/stapi/OneDrive/Desktop/GD32VW553/GD32VW55X_Wifi_BLE_SDK/GD32VW55x_RELEASE_V1.0.2/MSDK/mbedtls/mbedtls-2.17.0-ssl/library\net_sockets.c **** 
 558:C:/Users/stapi/OneDrive/Desktop/GD32VW553/GD32VW55X_Wifi_BLE_SDK/GD32VW55x_RELEASE_V1.0.2/MSDK/mbedtls/mbedtls-2.17.0-ssl/library\net_sockets.c ****     if( fd < 0 )
 1017              		.loc 1 558 5 is_stmt 1
 1018              		.loc 1 558 7 is_stmt 0
 1019 000c 63450504 		blt	a0,zero,.L93
 559:C:/Users/stapi/OneDrive/Desktop/GD32VW553/GD32VW55X_Wifi_BLE_SDK/GD32VW55x_RELEASE_V1.0.2/MSDK/mbedtls/mbedtls-2.17.0-ssl/library\net_sockets.c ****         return( MBEDTLS_ERR_NET_INVALID_CONTEXT );
 560:C:/Users/stapi/OneDrive/Desktop/GD32VW553/GD32VW55X_Wifi_BLE_SDK/GD32VW55x_RELEASE_V1.0.2/MSDK/mbedtls/mbedtls-2.17.0-ssl/library\net_sockets.c **** 
 561:C:/Users/stapi/OneDrive/Desktop/GD32VW553/GD32VW55X_Wifi_BLE_SDK/GD32VW55x_RELEASE_V1.0.2/MSDK/mbedtls/mbedtls-2.17.0-ssl/library\net_sockets.c ****     ret = (int) read( fd, buf, len );
 1020              		.loc 1 561 5 is_stmt 1
 1021              		.loc 1 561 17 is_stmt 0
 1022 0010 97000000 		call	lwip_read
 1022      E7800000 
 1023              	.LVL94:
 562:C:/Users/stapi/OneDrive/Desktop/GD32VW553/GD32VW55X_Wifi_BLE_SDK/GD32VW55x_RELEASE_V1.0.2/MSDK/mbedtls/mbedtls-2.17.0-ssl/library\net_sockets.c **** 
 563:C:/Users/stapi/OneDrive/Desktop/GD32VW553/GD32VW55X_Wifi_BLE_SDK/GD32VW55x_RELEASE_V1.0.2/MSDK/mbedtls/mbedtls-2.17.0-ssl/library\net_sockets.c ****     if( ret < 0 )
 1024              		.loc 1 563 5 is_stmt 1
 1025              		.loc 1 563 7 is_stmt 0
 1026 0018 63510504 		bge	a0,zero,.L91
 564:C:/Users/stapi/OneDrive/Desktop/GD32VW553/GD32VW55X_Wifi_BLE_SDK/GD32VW55x_RELEASE_V1.0.2/MSDK/mbedtls/mbedtls-2.17.0-ssl/library\net_sockets.c ****     {
 565:C:/Users/stapi/OneDrive/Desktop/GD32VW553/GD32VW55X_Wifi_BLE_SDK/GD32VW55x_RELEASE_V1.0.2/MSDK/mbedtls/mbedtls-2.17.0-ssl/library\net_sockets.c ****         if( net_would_block( ctx ) != 0 )
 1027              		.loc 1 565 9 is_stmt 1
 1028              		.loc 1 565 13 is_stmt 0
 1029 001c 0840     		lw	a0,0(s0)
 1030              	.LVL95:
 1031 001e 97000000 		call	net_would_block.isra.0
 1031      E7800000 
 1032              	.LVL96:
 1033              		.loc 1 565 11
 1034 0026 05E5     		bne	a0,zero,.L97
 1035              	.LVL97:
 1036              	.LBB13:
 1037              	.LBB14:
 566:C:/Users/stapi/OneDrive/Desktop/GD32VW553/GD32VW55X_Wifi_BLE_SDK/GD32VW55x_RELEASE_V1.0.2/MSDK/mbedtls/mbedtls-2.17.0-ssl/library\net_sockets.c ****             return( MBEDTLS_ERR_SSL_WANT_READ );
 567:C:/Users/stapi/OneDrive/Desktop/GD32VW553/GD32VW55X_Wifi_BLE_SDK/GD32VW55x_RELEASE_V1.0.2/MSDK/mbedtls/mbedtls-2.17.0-ssl/library\net_sockets.c **** 
 568:C:/Users/stapi/OneDrive/Desktop/GD32VW553/GD32VW55X_Wifi_BLE_SDK/GD32VW55x_RELEASE_V1.0.2/MSDK/mbedtls/mbedtls-2.17.0-ssl/library\net_sockets.c **** #if ( defined(_WIN32) || defined(_WIN32_WCE) ) && !defined(EFIX64) && \
 569:C:/Users/stapi/OneDrive/Desktop/GD32VW553/GD32VW55X_Wifi_BLE_SDK/GD32VW55x_RELEASE_V1.0.2/MSDK/mbedtls/mbedtls-2.17.0-ssl/library\net_sockets.c ****     !defined(EFI32)
 570:C:/Users/stapi/OneDrive/Desktop/GD32VW553/GD32VW55X_Wifi_BLE_SDK/GD32VW55x_RELEASE_V1.0.2/MSDK/mbedtls/mbedtls-2.17.0-ssl/library\net_sockets.c ****         if( WSAGetLastError() == WSAECONNRESET )
 571:C:/Users/stapi/OneDrive/Desktop/GD32VW553/GD32VW55X_Wifi_BLE_SDK/GD32VW55x_RELEASE_V1.0.2/MSDK/mbedtls/mbedtls-2.17.0-ssl/library\net_sockets.c ****             return( MBEDTLS_ERR_NET_CONN_RESET );
 572:C:/Users/stapi/OneDrive/Desktop/GD32VW553/GD32VW55X_Wifi_BLE_SDK/GD32VW55x_RELEASE_V1.0.2/MSDK/mbedtls/mbedtls-2.17.0-ssl/library\net_sockets.c **** #else
 573:C:/Users/stapi/OneDrive/Desktop/GD32VW553/GD32VW55X_Wifi_BLE_SDK/GD32VW55x_RELEASE_V1.0.2/MSDK/mbedtls/mbedtls-2.17.0-ssl/library\net_sockets.c ****         if( errno == EPIPE || errno == ECONNRESET )
 1038              		.loc 1 573 9 is_stmt 1
 1039              		.loc 1 573 19 is_stmt 0
 1040 0028 B7070000 		lui	a5,%hi(errno)
 1041 002c 83A70700 		lw	a5,%lo(errno)(a5)
 1042              		.loc 1 573 11
 1043 0030 13070002 		li	a4,32
 574:C:/Users/stapi/OneDrive/Desktop/GD32VW553/GD32VW55X_Wifi_BLE_SDK/GD32VW55x_RELEASE_V1.0.2/MSDK/mbedtls/mbedtls-2.17.0-ssl/library\net_sockets.c ****             return( MBEDTLS_ERR_NET_CONN_RESET );
 1044              		.loc 1 574 19
 1045 0034 130500FB 		li	a0,-80
 573:C:/Users/stapi/OneDrive/Desktop/GD32VW553/GD32VW55X_Wifi_BLE_SDK/GD32VW55x_RELEASE_V1.0.2/MSDK/mbedtls/mbedtls-2.17.0-ssl/library\net_sockets.c ****             return( MBEDTLS_ERR_NET_CONN_RESET );
 1046              		.loc 1 573 11
 1047 0038 6381E702 		beq	a5,a4,.L91
 573:C:/Users/stapi/OneDrive/Desktop/GD32VW553/GD32VW55X_Wifi_BLE_SDK/GD32VW55x_RELEASE_V1.0.2/MSDK/mbedtls/mbedtls-2.17.0-ssl/library\net_sockets.c ****             return( MBEDTLS_ERR_NET_CONN_RESET );
 1048              		.loc 1 573 28
 1049 003c 13078006 		li	a4,104
 1050 0040 638DE700 		beq	a5,a4,.L91
 575:C:/Users/stapi/OneDrive/Desktop/GD32VW553/GD32VW55X_Wifi_BLE_SDK/GD32VW55x_RELEASE_V1.0.2/MSDK/mbedtls/mbedtls-2.17.0-ssl/library\net_sockets.c **** 
 576:C:/Users/stapi/OneDrive/Desktop/GD32VW553/GD32VW55X_Wifi_BLE_SDK/GD32VW55x_RELEASE_V1.0.2/MSDK/mbedtls/mbedtls-2.17.0-ssl/library\net_sockets.c ****         if( errno == EINTR )
 1051              		.loc 1 576 9 is_stmt 1
 1052              		.loc 1 576 11 is_stmt 0
 1053 0044 1147     		li	a4,4
 577:C:/Users/stapi/OneDrive/Desktop/GD32VW553/GD32VW55X_Wifi_BLE_SDK/GD32VW55x_RELEASE_V1.0.2/MSDK/mbedtls/mbedtls-2.17.0-ssl/library\net_sockets.c ****             return( MBEDTLS_ERR_SSL_WANT_READ );
 578:C:/Users/stapi/OneDrive/Desktop/GD32VW553/GD32VW55X_Wifi_BLE_SDK/GD32VW55x_RELEASE_V1.0.2/MSDK/mbedtls/mbedtls-2.17.0-ssl/library\net_sockets.c **** #endif
 579:C:/Users/stapi/OneDrive/Desktop/GD32VW553/GD32VW55X_Wifi_BLE_SDK/GD32VW55x_RELEASE_V1.0.2/MSDK/mbedtls/mbedtls-2.17.0-ssl/library\net_sockets.c **** 
 580:C:/Users/stapi/OneDrive/Desktop/GD32VW553/GD32VW55X_Wifi_BLE_SDK/GD32VW55x_RELEASE_V1.0.2/MSDK/mbedtls/mbedtls-2.17.0-ssl/library\net_sockets.c ****         return( MBEDTLS_ERR_NET_RECV_FAILED );
 1054              		.loc 1 580 15
 1055 0046 130540FB 		li	a0,-76
 576:C:/Users/stapi/OneDrive/Desktop/GD32VW553/GD32VW55X_Wifi_BLE_SDK/GD32VW55x_RELEASE_V1.0.2/MSDK/mbedtls/mbedtls-2.17.0-ssl/library\net_sockets.c ****             return( MBEDTLS_ERR_SSL_WANT_READ );
 1056              		.loc 1 576 11
 1057 004a 6398E700 		bne	a5,a4,.L91
 1058              	.LVL98:
 1059              	.L97:
 1060              	.LBE14:
 1061              	.LBE13:
 566:C:/Users/stapi/OneDrive/Desktop/GD32VW553/GD32VW55X_Wifi_BLE_SDK/GD32VW55x_RELEASE_V1.0.2/MSDK/mbedtls/mbedtls-2.17.0-ssl/library\net_sockets.c **** 
 1062              		.loc 1 566 19
 1063 004e 6575     		li	a0,-28672
 1064 0050 13050570 		addi	a0,a0,1792
 1065 0054 19A0     		j	.L91
 1066              	.LVL99:
 1067              	.L93:
 559:C:/Users/stapi/OneDrive/Desktop/GD32VW553/GD32VW55X_Wifi_BLE_SDK/GD32VW55x_RELEASE_V1.0.2/MSDK/mbedtls/mbedtls-2.17.0-ssl/library\net_sockets.c **** 
 1068              		.loc 1 559 15
 1069 0056 1305B0FB 		li	a0,-69
 1070              	.LVL100:
 1071              	.L91:
 581:C:/Users/stapi/OneDrive/Desktop/GD32VW553/GD32VW55X_Wifi_BLE_SDK/GD32VW55x_RELEASE_V1.0.2/MSDK/mbedtls/mbedtls-2.17.0-ssl/library\net_sockets.c ****     }
 582:C:/Users/stapi/OneDrive/Desktop/GD32VW553/GD32VW55X_Wifi_BLE_SDK/GD32VW55x_RELEASE_V1.0.2/MSDK/mbedtls/mbedtls-2.17.0-ssl/library\net_sockets.c **** 
 583:C:/Users/stapi/OneDrive/Desktop/GD32VW553/GD32VW55X_Wifi_BLE_SDK/GD32VW55x_RELEASE_V1.0.2/MSDK/mbedtls/mbedtls-2.17.0-ssl/library\net_sockets.c ****     return( ret );
 584:C:/Users/stapi/OneDrive/Desktop/GD32VW553/GD32VW55X_Wifi_BLE_SDK/GD32VW55x_RELEASE_V1.0.2/MSDK/mbedtls/mbedtls-2.17.0-ssl/library\net_sockets.c **** }
 1072              		.loc 1 584 1
 1073 005a 17030000 		tail	__riscv_restore_1
 1073      67000300 
 1074              		.cfi_restore 8
 1075              		.cfi_restore 1
 1076              		.cfi_def_cfa_offset 0
 1077              		.cfi_endproc
 1078              	.LFE393:
 1080              		.section	.text.mbedtls_net_recv_timeout,"ax",@progbits
 1081              		.align	1
 1082              		.globl	mbedtls_net_recv_timeout
 1084              	mbedtls_net_recv_timeout:
 1085              	.LFB394:
 585:C:/Users/stapi/OneDrive/Desktop/GD32VW553/GD32VW55X_Wifi_BLE_SDK/GD32VW55x_RELEASE_V1.0.2/MSDK/mbedtls/mbedtls-2.17.0-ssl/library\net_sockets.c **** 
 586:C:/Users/stapi/OneDrive/Desktop/GD32VW553/GD32VW55X_Wifi_BLE_SDK/GD32VW55x_RELEASE_V1.0.2/MSDK/mbedtls/mbedtls-2.17.0-ssl/library\net_sockets.c **** /*
 587:C:/Users/stapi/OneDrive/Desktop/GD32VW553/GD32VW55X_Wifi_BLE_SDK/GD32VW55x_RELEASE_V1.0.2/MSDK/mbedtls/mbedtls-2.17.0-ssl/library\net_sockets.c ****  * Read at most 'len' characters, blocking for at most 'timeout' ms
 588:C:/Users/stapi/OneDrive/Desktop/GD32VW553/GD32VW55X_Wifi_BLE_SDK/GD32VW55x_RELEASE_V1.0.2/MSDK/mbedtls/mbedtls-2.17.0-ssl/library\net_sockets.c ****  */
 589:C:/Users/stapi/OneDrive/Desktop/GD32VW553/GD32VW55X_Wifi_BLE_SDK/GD32VW55x_RELEASE_V1.0.2/MSDK/mbedtls/mbedtls-2.17.0-ssl/library\net_sockets.c **** int mbedtls_net_recv_timeout( void *ctx, unsigned char *buf,
 590:C:/Users/stapi/OneDrive/Desktop/GD32VW553/GD32VW55X_Wifi_BLE_SDK/GD32VW55x_RELEASE_V1.0.2/MSDK/mbedtls/mbedtls-2.17.0-ssl/library\net_sockets.c ****                               size_t len, uint32_t timeout )
 591:C:/Users/stapi/OneDrive/Desktop/GD32VW553/GD32VW55X_Wifi_BLE_SDK/GD32VW55x_RELEASE_V1.0.2/MSDK/mbedtls/mbedtls-2.17.0-ssl/library\net_sockets.c **** {
 1086              		.loc 1 591 1 is_stmt 1
 1087              		.cfi_startproc
 1088              	.LVL101:
 592:C:/Users/stapi/OneDrive/Desktop/GD32VW553/GD32VW55X_Wifi_BLE_SDK/GD32VW55x_RELEASE_V1.0.2/MSDK/mbedtls/mbedtls-2.17.0-ssl/library\net_sockets.c ****     int ret;
 1089              		.loc 1 592 5
 593:C:/Users/stapi/OneDrive/Desktop/GD32VW553/GD32VW55X_Wifi_BLE_SDK/GD32VW55x_RELEASE_V1.0.2/MSDK/mbedtls/mbedtls-2.17.0-ssl/library\net_sockets.c ****     struct timeval tv;
 1090              		.loc 1 593 5
 594:C:/Users/stapi/OneDrive/Desktop/GD32VW553/GD32VW55X_Wifi_BLE_SDK/GD32VW55x_RELEASE_V1.0.2/MSDK/mbedtls/mbedtls-2.17.0-ssl/library\net_sockets.c ****     fd_set read_fds;
 1091              		.loc 1 594 5
 595:C:/Users/stapi/OneDrive/Desktop/GD32VW553/GD32VW55X_Wifi_BLE_SDK/GD32VW55x_RELEASE_V1.0.2/MSDK/mbedtls/mbedtls-2.17.0-ssl/library\net_sockets.c ****     int fd = ((mbedtls_net_context *) ctx)->fd;
 1092              		.loc 1 595 5
 1093              		.loc 1 595 9 is_stmt 0
 1094 0000 1C41     		lw	a5,0(a0)
 1095              	.LVL102:
 596:C:/Users/stapi/OneDrive/Desktop/GD32VW553/GD32VW55X_Wifi_BLE_SDK/GD32VW55x_RELEASE_V1.0.2/MSDK/mbedtls/mbedtls-2.17.0-ssl/library\net_sockets.c **** 
 597:C:/Users/stapi/OneDrive/Desktop/GD32VW553/GD32VW55X_Wifi_BLE_SDK/GD32VW55x_RELEASE_V1.0.2/MSDK/mbedtls/mbedtls-2.17.0-ssl/library\net_sockets.c ****     if( fd < 0 )
 1096              		.loc 1 597 5 is_stmt 1
 1097              		.loc 1 597 7 is_stmt 0
 1098 0002 63CB0708 		blt	a5,zero,.L104
 591:C:/Users/stapi/OneDrive/Desktop/GD32VW553/GD32VW55X_Wifi_BLE_SDK/GD32VW55x_RELEASE_V1.0.2/MSDK/mbedtls/mbedtls-2.17.0-ssl/library\net_sockets.c ****     int ret;
 1099              		.loc 1 591 1
 1100 0006 17030000 		call	t0,__riscv_save_3
 1100      E7020300 
 1101              		.cfi_offset 18, -16
 1102              		.cfi_offset 9, -12
 1103              		.cfi_offset 8, -8
 1104              		.cfi_offset 1, -4
 1105              		.cfi_def_cfa_offset 16
 1106 000e 4111     		addi	sp,sp,-16
 1107              		.cfi_def_cfa_offset 32
 598:C:/Users/stapi/OneDrive/Desktop/GD32VW553/GD32VW55X_Wifi_BLE_SDK/GD32VW55x_RELEASE_V1.0.2/MSDK/mbedtls/mbedtls-2.17.0-ssl/library\net_sockets.c ****         return( MBEDTLS_ERR_NET_INVALID_CONTEXT );
 599:C:/Users/stapi/OneDrive/Desktop/GD32VW553/GD32VW55X_Wifi_BLE_SDK/GD32VW55x_RELEASE_V1.0.2/MSDK/mbedtls/mbedtls-2.17.0-ssl/library\net_sockets.c **** 
 600:C:/Users/stapi/OneDrive/Desktop/GD32VW553/GD32VW55X_Wifi_BLE_SDK/GD32VW55x_RELEASE_V1.0.2/MSDK/mbedtls/mbedtls-2.17.0-ssl/library\net_sockets.c ****     FD_ZERO( &read_fds );
 1108              		.loc 1 600 5
 1109 0010 23120100 		sh	zero,4(sp)
 601:C:/Users/stapi/OneDrive/Desktop/GD32VW553/GD32VW55X_Wifi_BLE_SDK/GD32VW55x_RELEASE_V1.0.2/MSDK/mbedtls/mbedtls-2.17.0-ssl/library\net_sockets.c ****     FD_SET( fd, &read_fds );
 1110              		.loc 1 601 5
 1111 0014 2D47     		li	a4,11
 1112 0016 2A84     		mv	s0,a0
 1113 0018 AE84     		mv	s1,a1
 1114 001a 3289     		mv	s2,a2
 600:C:/Users/stapi/OneDrive/Desktop/GD32VW553/GD32VW55X_Wifi_BLE_SDK/GD32VW55x_RELEASE_V1.0.2/MSDK/mbedtls/mbedtls-2.17.0-ssl/library\net_sockets.c ****     FD_SET( fd, &read_fds );
 1115              		.loc 1 600 5 is_stmt 1
 1116              		.loc 1 601 5
 1117              		.loc 1 601 5
 1118 001c 634CF700 		bgt	a5,a4,.L101
 1119              		.loc 1 601 5 discriminator 1
 1120 0020 1008     		addi	a2,sp,16
 1121              	.LVL103:
 1122 0022 13D73740 		srai	a4,a5,3
 1123 0026 3297     		add	a4,a2,a4
 1124 0028 13F67700 		andi	a2,a5,7
 1125 002c 3316C028 		bset	a2,x0,a2
 1126 0030 230AC7FE 		sb	a2,-12(a4)
 1127              	.L101:
 1128              		.loc 1 601 5 discriminator 3
 602:C:/Users/stapi/OneDrive/Desktop/GD32VW553/GD32VW55X_Wifi_BLE_SDK/GD32VW55x_RELEASE_V1.0.2/MSDK/mbedtls/mbedtls-2.17.0-ssl/library\net_sockets.c **** 
 603:C:/Users/stapi/OneDrive/Desktop/GD32VW553/GD32VW55X_Wifi_BLE_SDK/GD32VW55x_RELEASE_V1.0.2/MSDK/mbedtls/mbedtls-2.17.0-ssl/library\net_sockets.c ****     tv.tv_sec  = timeout / 1000;
 1129              		.loc 1 603 5 discriminator 3
 1130              		.loc 1 603 26 is_stmt 0 discriminator 3
 1131 0034 1306803E 		li	a2,1000
 1132 0038 33D7C602 		divu	a4,a3,a2
 604:C:/Users/stapi/OneDrive/Desktop/GD32VW553/GD32VW55X_Wifi_BLE_SDK/GD32VW55x_RELEASE_V1.0.2/MSDK/mbedtls/mbedtls-2.17.0-ssl/library\net_sockets.c ****     tv.tv_usec = ( timeout % 1000 ) * 1000;
 605:C:/Users/stapi/OneDrive/Desktop/GD32VW553/GD32VW55X_Wifi_BLE_SDK/GD32VW55x_RELEASE_V1.0.2/MSDK/mbedtls/mbedtls-2.17.0-ssl/library\net_sockets.c **** 
 606:C:/Users/stapi/OneDrive/Desktop/GD32VW553/GD32VW55X_Wifi_BLE_SDK/GD32VW55x_RELEASE_V1.0.2/MSDK/mbedtls/mbedtls-2.17.0-ssl/library\net_sockets.c ****     ret = select( fd + 1, &read_fds, NULL, NULL, timeout == 0 ? NULL : &tv );
 1133              		.loc 1 606 11 discriminator 3
 1134 003c 13851700 		addi	a0,a5,1
 1135              	.LVL104:
 603:C:/Users/stapi/OneDrive/Desktop/GD32VW553/GD32VW55X_Wifi_BLE_SDK/GD32VW55x_RELEASE_V1.0.2/MSDK/mbedtls/mbedtls-2.17.0-ssl/library\net_sockets.c ****     tv.tv_usec = ( timeout % 1000 ) * 1000;
 1136              		.loc 1 603 16 discriminator 3
 1137 0040 3AC4     		sw	a4,8(sp)
 604:C:/Users/stapi/OneDrive/Desktop/GD32VW553/GD32VW55X_Wifi_BLE_SDK/GD32VW55x_RELEASE_V1.0.2/MSDK/mbedtls/mbedtls-2.17.0-ssl/library\net_sockets.c ****     tv.tv_usec = ( timeout % 1000 ) * 1000;
 1138              		.loc 1 604 5 is_stmt 1 discriminator 3
 604:C:/Users/stapi/OneDrive/Desktop/GD32VW553/GD32VW55X_Wifi_BLE_SDK/GD32VW55x_RELEASE_V1.0.2/MSDK/mbedtls/mbedtls-2.17.0-ssl/library\net_sockets.c ****     tv.tv_usec = ( timeout % 1000 ) * 1000;
 1139              		.loc 1 604 28 is_stmt 0 discriminator 3
 1140 0042 33F7C602 		remu	a4,a3,a2
 604:C:/Users/stapi/OneDrive/Desktop/GD32VW553/GD32VW55X_Wifi_BLE_SDK/GD32VW55x_RELEASE_V1.0.2/MSDK/mbedtls/mbedtls-2.17.0-ssl/library\net_sockets.c ****     tv.tv_usec = ( timeout % 1000 ) * 1000;
 1141              		.loc 1 604 37 discriminator 3
 1142 0046 3307C702 		mul	a4,a4,a2
 604:C:/Users/stapi/OneDrive/Desktop/GD32VW553/GD32VW55X_Wifi_BLE_SDK/GD32VW55x_RELEASE_V1.0.2/MSDK/mbedtls/mbedtls-2.17.0-ssl/library\net_sockets.c ****     tv.tv_usec = ( timeout % 1000 ) * 1000;
 1143              		.loc 1 604 16 discriminator 3
 1144 004a 3AC6     		sw	a4,12(sp)
 1145              		.loc 1 606 5 is_stmt 1 discriminator 3
 1146              		.loc 1 606 11 is_stmt 0 discriminator 3
 1147 004c 3800     		addi	a4,sp,8
 1148 004e 91E2     		bne	a3,zero,.L102
 1149              		.loc 1 606 11
 1150 0050 0147     		li	a4,0
 1151              	.L102:
 1152              		.loc 1 606 11 discriminator 4
 1153 0052 8146     		li	a3,0
 1154              	.LVL105:
 1155 0054 0146     		li	a2,0
 1156 0056 4C00     		addi	a1,sp,4
 1157              	.LVL106:
 1158 0058 97000000 		call	lwip_select
 1158      E7800000 
 1159              	.LVL107:
 607:C:/Users/stapi/OneDrive/Desktop/GD32VW553/GD32VW55X_Wifi_BLE_SDK/GD32VW55x_RELEASE_V1.0.2/MSDK/mbedtls/mbedtls-2.17.0-ssl/library\net_sockets.c **** 
 608:C:/Users/stapi/OneDrive/Desktop/GD32VW553/GD32VW55X_Wifi_BLE_SDK/GD32VW55x_RELEASE_V1.0.2/MSDK/mbedtls/mbedtls-2.17.0-ssl/library\net_sockets.c ****     /* Zero fds ready means we timed out */
 609:C:/Users/stapi/OneDrive/Desktop/GD32VW553/GD32VW55X_Wifi_BLE_SDK/GD32VW55x_RELEASE_V1.0.2/MSDK/mbedtls/mbedtls-2.17.0-ssl/library\net_sockets.c ****     if( ret == 0 )
 1160              		.loc 1 609 5 is_stmt 1 discriminator 4
 1161              		.loc 1 609 7 is_stmt 0 discriminator 4
 1162 0060 1DCD     		beq	a0,zero,.L106
 610:C:/Users/stapi/OneDrive/Desktop/GD32VW553/GD32VW55X_Wifi_BLE_SDK/GD32VW55x_RELEASE_V1.0.2/MSDK/mbedtls/mbedtls-2.17.0-ssl/library\net_sockets.c ****         return( MBEDTLS_ERR_SSL_TIMEOUT );
 611:C:/Users/stapi/OneDrive/Desktop/GD32VW553/GD32VW55X_Wifi_BLE_SDK/GD32VW55x_RELEASE_V1.0.2/MSDK/mbedtls/mbedtls-2.17.0-ssl/library\net_sockets.c **** 
 612:C:/Users/stapi/OneDrive/Desktop/GD32VW553/GD32VW55X_Wifi_BLE_SDK/GD32VW55x_RELEASE_V1.0.2/MSDK/mbedtls/mbedtls-2.17.0-ssl/library\net_sockets.c ****     if( ret < 0 )
 1163              		.loc 1 612 5 is_stmt 1
 1164              		.loc 1 612 7 is_stmt 0
 1165 0062 635F0500 		bge	a0,zero,.L103
 613:C:/Users/stapi/OneDrive/Desktop/GD32VW553/GD32VW55X_Wifi_BLE_SDK/GD32VW55x_RELEASE_V1.0.2/MSDK/mbedtls/mbedtls-2.17.0-ssl/library\net_sockets.c ****     {
 614:C:/Users/stapi/OneDrive/Desktop/GD32VW553/GD32VW55X_Wifi_BLE_SDK/GD32VW55x_RELEASE_V1.0.2/MSDK/mbedtls/mbedtls-2.17.0-ssl/library\net_sockets.c **** #if ( defined(_WIN32) || defined(_WIN32_WCE) ) && !defined(EFIX64) && \
 615:C:/Users/stapi/OneDrive/Desktop/GD32VW553/GD32VW55X_Wifi_BLE_SDK/GD32VW55x_RELEASE_V1.0.2/MSDK/mbedtls/mbedtls-2.17.0-ssl/library\net_sockets.c ****     !defined(EFI32)
 616:C:/Users/stapi/OneDrive/Desktop/GD32VW553/GD32VW55X_Wifi_BLE_SDK/GD32VW55x_RELEASE_V1.0.2/MSDK/mbedtls/mbedtls-2.17.0-ssl/library\net_sockets.c ****         if( WSAGetLastError() == WSAEINTR )
 617:C:/Users/stapi/OneDrive/Desktop/GD32VW553/GD32VW55X_Wifi_BLE_SDK/GD32VW55x_RELEASE_V1.0.2/MSDK/mbedtls/mbedtls-2.17.0-ssl/library\net_sockets.c ****             return( MBEDTLS_ERR_SSL_WANT_READ );
 618:C:/Users/stapi/OneDrive/Desktop/GD32VW553/GD32VW55X_Wifi_BLE_SDK/GD32VW55x_RELEASE_V1.0.2/MSDK/mbedtls/mbedtls-2.17.0-ssl/library\net_sockets.c **** #else
 619:C:/Users/stapi/OneDrive/Desktop/GD32VW553/GD32VW55X_Wifi_BLE_SDK/GD32VW55x_RELEASE_V1.0.2/MSDK/mbedtls/mbedtls-2.17.0-ssl/library\net_sockets.c ****         if( errno == EINTR )
 1166              		.loc 1 619 9 is_stmt 1
 1167              		.loc 1 619 19 is_stmt 0
 1168 0066 B7070000 		lui	a5,%hi(errno)
 1169              		.loc 1 619 11
 1170 006a 03A70700 		lw	a4,%lo(errno)(a5)
 1171 006e 9147     		li	a5,4
 620:C:/Users/stapi/OneDrive/Desktop/GD32VW553/GD32VW55X_Wifi_BLE_SDK/GD32VW55x_RELEASE_V1.0.2/MSDK/mbedtls/mbedtls-2.17.0-ssl/library\net_sockets.c ****             return( MBEDTLS_ERR_SSL_WANT_READ );
 621:C:/Users/stapi/OneDrive/Desktop/GD32VW553/GD32VW55X_Wifi_BLE_SDK/GD32VW55x_RELEASE_V1.0.2/MSDK/mbedtls/mbedtls-2.17.0-ssl/library\net_sockets.c **** #endif
 622:C:/Users/stapi/OneDrive/Desktop/GD32VW553/GD32VW55X_Wifi_BLE_SDK/GD32VW55x_RELEASE_V1.0.2/MSDK/mbedtls/mbedtls-2.17.0-ssl/library\net_sockets.c **** 
 623:C:/Users/stapi/OneDrive/Desktop/GD32VW553/GD32VW55X_Wifi_BLE_SDK/GD32VW55x_RELEASE_V1.0.2/MSDK/mbedtls/mbedtls-2.17.0-ssl/library\net_sockets.c ****         return( MBEDTLS_ERR_NET_RECV_FAILED );
 1172              		.loc 1 623 15
 1173 0070 130540FB 		li	a0,-76
 1174              	.LVL108:
 619:C:/Users/stapi/OneDrive/Desktop/GD32VW553/GD32VW55X_Wifi_BLE_SDK/GD32VW55x_RELEASE_V1.0.2/MSDK/mbedtls/mbedtls-2.17.0-ssl/library\net_sockets.c ****             return( MBEDTLS_ERR_SSL_WANT_READ );
 1175              		.loc 1 619 11
 1176 0074 631DF700 		bne	a4,a5,.L99
 620:C:/Users/stapi/OneDrive/Desktop/GD32VW553/GD32VW55X_Wifi_BLE_SDK/GD32VW55x_RELEASE_V1.0.2/MSDK/mbedtls/mbedtls-2.17.0-ssl/library\net_sockets.c ****             return( MBEDTLS_ERR_SSL_WANT_READ );
 1177              		.loc 1 620 19
 1178 0078 6575     		li	a0,-28672
 1179 007a 13050570 		addi	a0,a0,1792
 1180 007e 01A8     		j	.L99
 1181              	.LVL109:
 1182              	.L103:
 624:C:/Users/stapi/OneDrive/Desktop/GD32VW553/GD32VW55X_Wifi_BLE_SDK/GD32VW55x_RELEASE_V1.0.2/MSDK/mbedtls/mbedtls-2.17.0-ssl/library\net_sockets.c ****     }
 625:C:/Users/stapi/OneDrive/Desktop/GD32VW553/GD32VW55X_Wifi_BLE_SDK/GD32VW55x_RELEASE_V1.0.2/MSDK/mbedtls/mbedtls-2.17.0-ssl/library\net_sockets.c **** 
 626:C:/Users/stapi/OneDrive/Desktop/GD32VW553/GD32VW55X_Wifi_BLE_SDK/GD32VW55x_RELEASE_V1.0.2/MSDK/mbedtls/mbedtls-2.17.0-ssl/library\net_sockets.c ****     /* This call will not block */
 627:C:/Users/stapi/OneDrive/Desktop/GD32VW553/GD32VW55X_Wifi_BLE_SDK/GD32VW55x_RELEASE_V1.0.2/MSDK/mbedtls/mbedtls-2.17.0-ssl/library\net_sockets.c ****     return( mbedtls_net_recv( ctx, buf, len ) );
 1183              		.loc 1 627 5 is_stmt 1
 1184              		.loc 1 627 13 is_stmt 0
 1185 0080 4A86     		mv	a2,s2
 1186 0082 A685     		mv	a1,s1
 1187 0084 2285     		mv	a0,s0
 1188              	.LVL110:
 1189 0086 97000000 		call	mbedtls_net_recv
 1189      E7800000 
 1190              	.LVL111:
 1191              	.L99:
 628:C:/Users/stapi/OneDrive/Desktop/GD32VW553/GD32VW55X_Wifi_BLE_SDK/GD32VW55x_RELEASE_V1.0.2/MSDK/mbedtls/mbedtls-2.17.0-ssl/library\net_sockets.c **** }
 1192              		.loc 1 628 1
 1193 008e 4101     		addi	sp,sp,16
 1194              		.cfi_def_cfa_offset 0
 1195 0090 17030000 		tail	__riscv_restore_3
 1195      67000300 
 1196              		.cfi_restore 18
 1197              		.cfi_restore 9
 1198              		.cfi_restore 8
 1199              		.cfi_restore 1
 1200              		.cfi_def_cfa_offset -16
 1201              	.LVL112:
 1202              	.L104:
 1203              		.cfi_def_cfa_offset 0
 598:C:/Users/stapi/OneDrive/Desktop/GD32VW553/GD32VW55X_Wifi_BLE_SDK/GD32VW55x_RELEASE_V1.0.2/MSDK/mbedtls/mbedtls-2.17.0-ssl/library\net_sockets.c **** 
 1204              		.loc 1 598 15
 1205 0098 1305B0FB 		li	a0,-69
 1206              	.LVL113:
 1207              		.loc 1 628 1
 1208 009c 8280     		ret
 1209              	.LVL114:
 1210              	.L106:
 1211              		.cfi_def_cfa_offset 32
 1212              		.cfi_offset 1, -4
 1213              		.cfi_offset 8, -8
 1214              		.cfi_offset 9, -12
 1215              		.cfi_offset 18, -16
 610:C:/Users/stapi/OneDrive/Desktop/GD32VW553/GD32VW55X_Wifi_BLE_SDK/GD32VW55x_RELEASE_V1.0.2/MSDK/mbedtls/mbedtls-2.17.0-ssl/library\net_sockets.c **** 
 1216              		.loc 1 610 15
 1217 009e 6975     		li	a0,-24576
 1218              	.LVL115:
 1219 00a0 13050580 		addi	a0,a0,-2048
 1220 00a4 EDB7     		j	.L99
 1221              		.cfi_endproc
 1222              	.LFE394:
 1224              		.section	.text.mbedtls_net_send,"ax",@progbits
 1225              		.align	1
 1226              		.globl	mbedtls_net_send
 1228              	mbedtls_net_send:
 1229              	.LFB395:
 629:C:/Users/stapi/OneDrive/Desktop/GD32VW553/GD32VW55X_Wifi_BLE_SDK/GD32VW55x_RELEASE_V1.0.2/MSDK/mbedtls/mbedtls-2.17.0-ssl/library\net_sockets.c **** 
 630:C:/Users/stapi/OneDrive/Desktop/GD32VW553/GD32VW55X_Wifi_BLE_SDK/GD32VW55x_RELEASE_V1.0.2/MSDK/mbedtls/mbedtls-2.17.0-ssl/library\net_sockets.c **** /*
 631:C:/Users/stapi/OneDrive/Desktop/GD32VW553/GD32VW55X_Wifi_BLE_SDK/GD32VW55x_RELEASE_V1.0.2/MSDK/mbedtls/mbedtls-2.17.0-ssl/library\net_sockets.c ****  * Write at most 'len' characters
 632:C:/Users/stapi/OneDrive/Desktop/GD32VW553/GD32VW55X_Wifi_BLE_SDK/GD32VW55x_RELEASE_V1.0.2/MSDK/mbedtls/mbedtls-2.17.0-ssl/library\net_sockets.c ****  */
 633:C:/Users/stapi/OneDrive/Desktop/GD32VW553/GD32VW55X_Wifi_BLE_SDK/GD32VW55x_RELEASE_V1.0.2/MSDK/mbedtls/mbedtls-2.17.0-ssl/library\net_sockets.c **** int mbedtls_net_send( void *ctx, const unsigned char *buf, size_t len )
 634:C:/Users/stapi/OneDrive/Desktop/GD32VW553/GD32VW55X_Wifi_BLE_SDK/GD32VW55x_RELEASE_V1.0.2/MSDK/mbedtls/mbedtls-2.17.0-ssl/library\net_sockets.c **** {
 1230              		.loc 1 634 1 is_stmt 1
 1231              		.cfi_startproc
 1232              	.LVL116:
 1233 0000 17030000 		call	t0,__riscv_save_1
 1233      E7020300 
 1234              		.cfi_offset 8, -8
 1235              		.cfi_offset 1, -4
 1236              		.cfi_def_cfa_offset 16
 635:C:/Users/stapi/OneDrive/Desktop/GD32VW553/GD32VW55X_Wifi_BLE_SDK/GD32VW55x_RELEASE_V1.0.2/MSDK/mbedtls/mbedtls-2.17.0-ssl/library\net_sockets.c ****     int ret;
 1237              		.loc 1 635 5
 636:C:/Users/stapi/OneDrive/Desktop/GD32VW553/GD32VW55X_Wifi_BLE_SDK/GD32VW55x_RELEASE_V1.0.2/MSDK/mbedtls/mbedtls-2.17.0-ssl/library\net_sockets.c ****     int fd = ((mbedtls_net_context *) ctx)->fd;
 1238              		.loc 1 636 5
 634:C:/Users/stapi/OneDrive/Desktop/GD32VW553/GD32VW55X_Wifi_BLE_SDK/GD32VW55x_RELEASE_V1.0.2/MSDK/mbedtls/mbedtls-2.17.0-ssl/library\net_sockets.c ****     int ret;
 1239              		.loc 1 634 1 is_stmt 0
 1240 0008 2A84     		mv	s0,a0
 1241              		.loc 1 636 9
 1242 000a 0841     		lw	a0,0(a0)
 1243              	.LVL117:
 637:C:/Users/stapi/OneDrive/Desktop/GD32VW553/GD32VW55X_Wifi_BLE_SDK/GD32VW55x_RELEASE_V1.0.2/MSDK/mbedtls/mbedtls-2.17.0-ssl/library\net_sockets.c **** 
 638:C:/Users/stapi/OneDrive/Desktop/GD32VW553/GD32VW55X_Wifi_BLE_SDK/GD32VW55x_RELEASE_V1.0.2/MSDK/mbedtls/mbedtls-2.17.0-ssl/library\net_sockets.c ****     if( fd < 0 )
 1244              		.loc 1 638 5 is_stmt 1
 1245              		.loc 1 638 7 is_stmt 0
 1246 000c 63450504 		blt	a0,zero,.L114
 639:C:/Users/stapi/OneDrive/Desktop/GD32VW553/GD32VW55X_Wifi_BLE_SDK/GD32VW55x_RELEASE_V1.0.2/MSDK/mbedtls/mbedtls-2.17.0-ssl/library\net_sockets.c ****         return( MBEDTLS_ERR_NET_INVALID_CONTEXT );
 640:C:/Users/stapi/OneDrive/Desktop/GD32VW553/GD32VW55X_Wifi_BLE_SDK/GD32VW55x_RELEASE_V1.0.2/MSDK/mbedtls/mbedtls-2.17.0-ssl/library\net_sockets.c **** 
 641:C:/Users/stapi/OneDrive/Desktop/GD32VW553/GD32VW55X_Wifi_BLE_SDK/GD32VW55x_RELEASE_V1.0.2/MSDK/mbedtls/mbedtls-2.17.0-ssl/library\net_sockets.c ****     ret = (int) write( fd, buf, len );
 1247              		.loc 1 641 5 is_stmt 1
 1248              		.loc 1 641 17 is_stmt 0
 1249 0010 97000000 		call	lwip_write
 1249      E7800000 
 1250              	.LVL118:
 642:C:/Users/stapi/OneDrive/Desktop/GD32VW553/GD32VW55X_Wifi_BLE_SDK/GD32VW55x_RELEASE_V1.0.2/MSDK/mbedtls/mbedtls-2.17.0-ssl/library\net_sockets.c **** 
 643:C:/Users/stapi/OneDrive/Desktop/GD32VW553/GD32VW55X_Wifi_BLE_SDK/GD32VW55x_RELEASE_V1.0.2/MSDK/mbedtls/mbedtls-2.17.0-ssl/library\net_sockets.c ****     if( ret < 0 )
 1251              		.loc 1 643 5 is_stmt 1
 1252              		.loc 1 643 7 is_stmt 0
 1253 0018 63510504 		bge	a0,zero,.L112
 644:C:/Users/stapi/OneDrive/Desktop/GD32VW553/GD32VW55X_Wifi_BLE_SDK/GD32VW55x_RELEASE_V1.0.2/MSDK/mbedtls/mbedtls-2.17.0-ssl/library\net_sockets.c ****     {
 645:C:/Users/stapi/OneDrive/Desktop/GD32VW553/GD32VW55X_Wifi_BLE_SDK/GD32VW55x_RELEASE_V1.0.2/MSDK/mbedtls/mbedtls-2.17.0-ssl/library\net_sockets.c ****         if( net_would_block( ctx ) != 0 )
 1254              		.loc 1 645 9 is_stmt 1
 1255              		.loc 1 645 13 is_stmt 0
 1256 001c 0840     		lw	a0,0(s0)
 1257              	.LVL119:
 1258 001e 97000000 		call	net_would_block.isra.0
 1258      E7800000 
 1259              	.LVL120:
 1260              		.loc 1 645 11
 1261 0026 05E5     		bne	a0,zero,.L118
 646:C:/Users/stapi/OneDrive/Desktop/GD32VW553/GD32VW55X_Wifi_BLE_SDK/GD32VW55x_RELEASE_V1.0.2/MSDK/mbedtls/mbedtls-2.17.0-ssl/library\net_sockets.c ****             return( MBEDTLS_ERR_SSL_WANT_WRITE );
 647:C:/Users/stapi/OneDrive/Desktop/GD32VW553/GD32VW55X_Wifi_BLE_SDK/GD32VW55x_RELEASE_V1.0.2/MSDK/mbedtls/mbedtls-2.17.0-ssl/library\net_sockets.c **** 
 648:C:/Users/stapi/OneDrive/Desktop/GD32VW553/GD32VW55X_Wifi_BLE_SDK/GD32VW55x_RELEASE_V1.0.2/MSDK/mbedtls/mbedtls-2.17.0-ssl/library\net_sockets.c **** #if ( defined(_WIN32) || defined(_WIN32_WCE) ) && !defined(EFIX64) && \
 649:C:/Users/stapi/OneDrive/Desktop/GD32VW553/GD32VW55X_Wifi_BLE_SDK/GD32VW55x_RELEASE_V1.0.2/MSDK/mbedtls/mbedtls-2.17.0-ssl/library\net_sockets.c ****     !defined(EFI32)
 650:C:/Users/stapi/OneDrive/Desktop/GD32VW553/GD32VW55X_Wifi_BLE_SDK/GD32VW55x_RELEASE_V1.0.2/MSDK/mbedtls/mbedtls-2.17.0-ssl/library\net_sockets.c ****         if( WSAGetLastError() == WSAECONNRESET )
 651:C:/Users/stapi/OneDrive/Desktop/GD32VW553/GD32VW55X_Wifi_BLE_SDK/GD32VW55x_RELEASE_V1.0.2/MSDK/mbedtls/mbedtls-2.17.0-ssl/library\net_sockets.c ****             return( MBEDTLS_ERR_NET_CONN_RESET );
 652:C:/Users/stapi/OneDrive/Desktop/GD32VW553/GD32VW55X_Wifi_BLE_SDK/GD32VW55x_RELEASE_V1.0.2/MSDK/mbedtls/mbedtls-2.17.0-ssl/library\net_sockets.c **** #else
 653:C:/Users/stapi/OneDrive/Desktop/GD32VW553/GD32VW55X_Wifi_BLE_SDK/GD32VW55x_RELEASE_V1.0.2/MSDK/mbedtls/mbedtls-2.17.0-ssl/library\net_sockets.c ****         if( errno == EPIPE || errno == ECONNRESET )
 1262              		.loc 1 653 9 is_stmt 1
 1263              		.loc 1 653 19 is_stmt 0
 1264 0028 B7070000 		lui	a5,%hi(errno)
 1265 002c 83A70700 		lw	a5,%lo(errno)(a5)
 1266              		.loc 1 653 11
 1267 0030 13070002 		li	a4,32
 654:C:/Users/stapi/OneDrive/Desktop/GD32VW553/GD32VW55X_Wifi_BLE_SDK/GD32VW55x_RELEASE_V1.0.2/MSDK/mbedtls/mbedtls-2.17.0-ssl/library\net_sockets.c ****             return( MBEDTLS_ERR_NET_CONN_RESET );
 1268              		.loc 1 654 19
 1269 0034 130500FB 		li	a0,-80
 653:C:/Users/stapi/OneDrive/Desktop/GD32VW553/GD32VW55X_Wifi_BLE_SDK/GD32VW55x_RELEASE_V1.0.2/MSDK/mbedtls/mbedtls-2.17.0-ssl/library\net_sockets.c ****             return( MBEDTLS_ERR_NET_CONN_RESET );
 1270              		.loc 1 653 11
 1271 0038 6381E702 		beq	a5,a4,.L112
 653:C:/Users/stapi/OneDrive/Desktop/GD32VW553/GD32VW55X_Wifi_BLE_SDK/GD32VW55x_RELEASE_V1.0.2/MSDK/mbedtls/mbedtls-2.17.0-ssl/library\net_sockets.c ****             return( MBEDTLS_ERR_NET_CONN_RESET );
 1272              		.loc 1 653 28 discriminator 1
 1273 003c 13078006 		li	a4,104
 1274 0040 638DE700 		beq	a5,a4,.L112
 655:C:/Users/stapi/OneDrive/Desktop/GD32VW553/GD32VW55X_Wifi_BLE_SDK/GD32VW55x_RELEASE_V1.0.2/MSDK/mbedtls/mbedtls-2.17.0-ssl/library\net_sockets.c **** 
 656:C:/Users/stapi/OneDrive/Desktop/GD32VW553/GD32VW55X_Wifi_BLE_SDK/GD32VW55x_RELEASE_V1.0.2/MSDK/mbedtls/mbedtls-2.17.0-ssl/library\net_sockets.c ****         if( errno == EINTR )
 1275              		.loc 1 656 9 is_stmt 1
 1276              		.loc 1 656 11 is_stmt 0
 1277 0044 1147     		li	a4,4
 657:C:/Users/stapi/OneDrive/Desktop/GD32VW553/GD32VW55X_Wifi_BLE_SDK/GD32VW55x_RELEASE_V1.0.2/MSDK/mbedtls/mbedtls-2.17.0-ssl/library\net_sockets.c ****             return( MBEDTLS_ERR_SSL_WANT_WRITE );
 658:C:/Users/stapi/OneDrive/Desktop/GD32VW553/GD32VW55X_Wifi_BLE_SDK/GD32VW55x_RELEASE_V1.0.2/MSDK/mbedtls/mbedtls-2.17.0-ssl/library\net_sockets.c **** #endif
 659:C:/Users/stapi/OneDrive/Desktop/GD32VW553/GD32VW55X_Wifi_BLE_SDK/GD32VW55x_RELEASE_V1.0.2/MSDK/mbedtls/mbedtls-2.17.0-ssl/library\net_sockets.c **** 
 660:C:/Users/stapi/OneDrive/Desktop/GD32VW553/GD32VW55X_Wifi_BLE_SDK/GD32VW55x_RELEASE_V1.0.2/MSDK/mbedtls/mbedtls-2.17.0-ssl/library\net_sockets.c ****         return( MBEDTLS_ERR_NET_SEND_FAILED );
 1278              		.loc 1 660 15
 1279 0046 130520FB 		li	a0,-78
 656:C:/Users/stapi/OneDrive/Desktop/GD32VW553/GD32VW55X_Wifi_BLE_SDK/GD32VW55x_RELEASE_V1.0.2/MSDK/mbedtls/mbedtls-2.17.0-ssl/library\net_sockets.c ****             return( MBEDTLS_ERR_SSL_WANT_WRITE );
 1280              		.loc 1 656 11
 1281 004a 6398E700 		bne	a5,a4,.L112
 1282              	.L118:
 646:C:/Users/stapi/OneDrive/Desktop/GD32VW553/GD32VW55X_Wifi_BLE_SDK/GD32VW55x_RELEASE_V1.0.2/MSDK/mbedtls/mbedtls-2.17.0-ssl/library\net_sockets.c **** 
 1283              		.loc 1 646 19
 1284 004e 6575     		li	a0,-28672
 1285 0050 13050578 		addi	a0,a0,1920
 1286 0054 19A0     		j	.L112
 1287              	.LVL121:
 1288              	.L114:
 639:C:/Users/stapi/OneDrive/Desktop/GD32VW553/GD32VW55X_Wifi_BLE_SDK/GD32VW55x_RELEASE_V1.0.2/MSDK/mbedtls/mbedtls-2.17.0-ssl/library\net_sockets.c **** 
 1289              		.loc 1 639 15
 1290 0056 1305B0FB 		li	a0,-69
 1291              	.LVL122:
 1292              	.L112:
 661:C:/Users/stapi/OneDrive/Desktop/GD32VW553/GD32VW55X_Wifi_BLE_SDK/GD32VW55x_RELEASE_V1.0.2/MSDK/mbedtls/mbedtls-2.17.0-ssl/library\net_sockets.c ****     }
 662:C:/Users/stapi/OneDrive/Desktop/GD32VW553/GD32VW55X_Wifi_BLE_SDK/GD32VW55x_RELEASE_V1.0.2/MSDK/mbedtls/mbedtls-2.17.0-ssl/library\net_sockets.c **** 
 663:C:/Users/stapi/OneDrive/Desktop/GD32VW553/GD32VW55X_Wifi_BLE_SDK/GD32VW55x_RELEASE_V1.0.2/MSDK/mbedtls/mbedtls-2.17.0-ssl/library\net_sockets.c ****     return( ret );
 664:C:/Users/stapi/OneDrive/Desktop/GD32VW553/GD32VW55X_Wifi_BLE_SDK/GD32VW55x_RELEASE_V1.0.2/MSDK/mbedtls/mbedtls-2.17.0-ssl/library\net_sockets.c **** }
 1293              		.loc 1 664 1
 1294 005a 17030000 		tail	__riscv_restore_1
 1294      67000300 
 1295              		.cfi_restore 8
 1296              		.cfi_restore 1
 1297              		.cfi_def_cfa_offset 0
 1298              		.cfi_endproc
 1299              	.LFE395:
 1301              		.section	.text.mbedtls_net_free,"ax",@progbits
 1302              		.align	1
 1303              		.globl	mbedtls_net_free
 1305              	mbedtls_net_free:
 1306              	.LFB396:
 665:C:/Users/stapi/OneDrive/Desktop/GD32VW553/GD32VW55X_Wifi_BLE_SDK/GD32VW55x_RELEASE_V1.0.2/MSDK/mbedtls/mbedtls-2.17.0-ssl/library\net_sockets.c **** 
 666:C:/Users/stapi/OneDrive/Desktop/GD32VW553/GD32VW55X_Wifi_BLE_SDK/GD32VW55x_RELEASE_V1.0.2/MSDK/mbedtls/mbedtls-2.17.0-ssl/library\net_sockets.c **** /*
 667:C:/Users/stapi/OneDrive/Desktop/GD32VW553/GD32VW55X_Wifi_BLE_SDK/GD32VW55x_RELEASE_V1.0.2/MSDK/mbedtls/mbedtls-2.17.0-ssl/library\net_sockets.c ****  * Gracefully close the connection
 668:C:/Users/stapi/OneDrive/Desktop/GD32VW553/GD32VW55X_Wifi_BLE_SDK/GD32VW55x_RELEASE_V1.0.2/MSDK/mbedtls/mbedtls-2.17.0-ssl/library\net_sockets.c ****  */
 669:C:/Users/stapi/OneDrive/Desktop/GD32VW553/GD32VW55X_Wifi_BLE_SDK/GD32VW55x_RELEASE_V1.0.2/MSDK/mbedtls/mbedtls-2.17.0-ssl/library\net_sockets.c **** void mbedtls_net_free( mbedtls_net_context *ctx )
 670:C:/Users/stapi/OneDrive/Desktop/GD32VW553/GD32VW55X_Wifi_BLE_SDK/GD32VW55x_RELEASE_V1.0.2/MSDK/mbedtls/mbedtls-2.17.0-ssl/library\net_sockets.c **** {
 1307              		.loc 1 670 1 is_stmt 1
 1308              		.cfi_startproc
 1309              	.LVL123:
 1310 0000 17030000 		call	t0,__riscv_save_2
 1310      E7020300 
 1311              		.cfi_offset 9, -12
 1312              		.cfi_offset 8, -8
 1313              		.cfi_offset 1, -4
 1314              		.cfi_def_cfa_offset 16
 671:C:/Users/stapi/OneDrive/Desktop/GD32VW553/GD32VW55X_Wifi_BLE_SDK/GD32VW55x_RELEASE_V1.0.2/MSDK/mbedtls/mbedtls-2.17.0-ssl/library\net_sockets.c ****     if( ctx->fd == -1 )
 1315              		.loc 1 671 5
 670:C:/Users/stapi/OneDrive/Desktop/GD32VW553/GD32VW55X_Wifi_BLE_SDK/GD32VW55x_RELEASE_V1.0.2/MSDK/mbedtls/mbedtls-2.17.0-ssl/library\net_sockets.c ****     if( ctx->fd == -1 )
 1316              		.loc 1 670 1 is_stmt 0
 1317 0008 2A84     		mv	s0,a0
 1318              		.loc 1 671 12
 1319 000a 0841     		lw	a0,0(a0)
 1320              	.LVL124:
 1321              		.loc 1 671 7
 1322 000c FD54     		li	s1,-1
 1323 000e 630D9500 		beq	a0,s1,.L120
 672:C:/Users/stapi/OneDrive/Desktop/GD32VW553/GD32VW55X_Wifi_BLE_SDK/GD32VW55x_RELEASE_V1.0.2/MSDK/mbedtls/mbedtls-2.17.0-ssl/library\net_sockets.c ****         return;
 673:C:/Users/stapi/OneDrive/Desktop/GD32VW553/GD32VW55X_Wifi_BLE_SDK/GD32VW55x_RELEASE_V1.0.2/MSDK/mbedtls/mbedtls-2.17.0-ssl/library\net_sockets.c **** 
 674:C:/Users/stapi/OneDrive/Desktop/GD32VW553/GD32VW55X_Wifi_BLE_SDK/GD32VW55x_RELEASE_V1.0.2/MSDK/mbedtls/mbedtls-2.17.0-ssl/library\net_sockets.c ****     shutdown( ctx->fd, 2 );
 1324              		.loc 1 674 5 is_stmt 1
 1325 0012 8945     		li	a1,2
 1326 0014 97000000 		call	lwip_shutdown
 1326      E7800000 
 1327              	.LVL125:
 675:C:/Users/stapi/OneDrive/Desktop/GD32VW553/GD32VW55X_Wifi_BLE_SDK/GD32VW55x_RELEASE_V1.0.2/MSDK/mbedtls/mbedtls-2.17.0-ssl/library\net_sockets.c ****     close( ctx->fd );
 1328              		.loc 1 675 5
 1329 001c 0840     		lw	a0,0(s0)
 1330 001e 97000000 		call	lwip_close
 1330      E7800000 
 1331              	.LVL126:
 676:C:/Users/stapi/OneDrive/Desktop/GD32VW553/GD32VW55X_Wifi_BLE_SDK/GD32VW55x_RELEASE_V1.0.2/MSDK/mbedtls/mbedtls-2.17.0-ssl/library\net_sockets.c **** 
 677:C:/Users/stapi/OneDrive/Desktop/GD32VW553/GD32VW55X_Wifi_BLE_SDK/GD32VW55x_RELEASE_V1.0.2/MSDK/mbedtls/mbedtls-2.17.0-ssl/library\net_sockets.c ****     ctx->fd = -1;
 1332              		.loc 1 677 5
 1333              		.loc 1 677 13 is_stmt 0
 1334 0026 04C0     		sw	s1,0(s0)
 1335              	.L120:
 678:C:/Users/stapi/OneDrive/Desktop/GD32VW553/GD32VW55X_Wifi_BLE_SDK/GD32VW55x_RELEASE_V1.0.2/MSDK/mbedtls/mbedtls-2.17.0-ssl/library\net_sockets.c **** }
 1336              		.loc 1 678 1
 1337 0028 17030000 		tail	__riscv_restore_2
 1337      67000300 
 1338              		.cfi_restore 9
 1339              		.cfi_restore 8
 1340              		.cfi_restore 1
 1341              		.cfi_def_cfa_offset 0
 1342              		.cfi_endproc
 1343              	.LFE396:
 1345              		.text
 1346              	.Letext0:
 1347              		.file 2 "c:\\users\\stapi\\onedrive\\desktop\\gd32vw553\\embeddedbuilder_v1.4.7.26843\\tools\\nucl
 1348              		.file 3 "c:\\users\\stapi\\onedrive\\desktop\\gd32vw553\\embeddedbuilder_v1.4.7.26843\\tools\\nucl
 1349              		.file 4 "c:\\users\\stapi\\onedrive\\desktop\\gd32vw553\\embeddedbuilder_v1.4.7.26843\\tools\\nucl
 1350              		.file 5 "..\\..\\..\\..\\..\\ROM-EXPORT\\mbedtls-2.17.0-rom\\include/mbedtls/net_sockets.h"
 1351              		.file 6 "..\\..\\..\\..\\lwip\\lwip-2.1.2\\src\\include/lwip/arch.h"
 1352              		.file 7 "..\\..\\..\\..\\lwip\\lwip-2.1.2\\src\\include/lwip/inet.h"
 1353              		.file 8 "..\\..\\..\\..\\lwip\\lwip-2.1.2\\src\\include/lwip/sockets.h"
 1354              		.file 9 "..\\..\\..\\..\\lwip\\lwip-2.1.2\\src\\include/lwip/netdb.h"
 1355              		.file 10 "<built-in>"
 1356              		.file 11 "..\\..\\..\\..\\lwip\\lwip-2.1.2\\src\\include/lwip/errno.h"
DEFINED SYMBOLS
                            *ABS*:0000000000000000 net_sockets.c
C:\Users\stapi\AppData\Local\Temp\ccHntkpc.s:12     .text.net_would_block.isra.0:0000000000000000 net_would_block.isra.0
C:\Users\stapi\AppData\Local\Temp\ccHntkpc.s:16     .text.net_would_block.isra.0:0000000000000000 .L0 
C:\Users\stapi\AppData\Local\Temp\ccHntkpc.s:17     .text.net_would_block.isra.0:0000000000000000 .L0 
C:\Users\stapi\AppData\Local\Temp\ccHntkpc.s:18     .text.net_would_block.isra.0:0000000000000008 .L0 
C:\Users\stapi\AppData\Local\Temp\ccHntkpc.s:19     .text.net_would_block.isra.0:0000000000000008 .L0 
C:\Users\stapi\AppData\Local\Temp\ccHntkpc.s:20     .text.net_would_block.isra.0:0000000000000008 .L0 
C:\Users\stapi\AppData\Local\Temp\ccHntkpc.s:21     .text.net_would_block.isra.0:0000000000000008 .L0 
C:\Users\stapi\AppData\Local\Temp\ccHntkpc.s:24     .text.net_would_block.isra.0:0000000000000008 .L0 
C:\Users\stapi\AppData\Local\Temp\ccHntkpc.s:25     .text.net_would_block.isra.0:0000000000000008 .L0 
C:\Users\stapi\AppData\Local\Temp\ccHntkpc.s:29     .text.net_would_block.isra.0:0000000000000010 .L0 
C:\Users\stapi\AppData\Local\Temp\ccHntkpc.s:30     .text.net_would_block.isra.0:0000000000000010 .L0 
C:\Users\stapi\AppData\Local\Temp\ccHntkpc.s:35     .text.net_would_block.isra.0:000000000000001c .L0 
C:\Users\stapi\AppData\Local\Temp\ccHntkpc.s:37     .text.net_would_block.isra.0:000000000000001e .L0 
C:\Users\stapi\AppData\Local\Temp\ccHntkpc.s:39     .text.net_would_block.isra.0:0000000000000022 .L0 
C:\Users\stapi\AppData\Local\Temp\ccHntkpc.s:42     .text.net_would_block.isra.0:0000000000000024 .L0 
C:\Users\stapi\AppData\Local\Temp\ccHntkpc.s:43     .text.net_would_block.isra.0:000000000000002c .L0 
C:\Users\stapi\AppData\Local\Temp\ccHntkpc.s:44     .text.net_would_block.isra.0:000000000000002c .L0 
C:\Users\stapi\AppData\Local\Temp\ccHntkpc.s:45     .text.net_would_block.isra.0:000000000000002c .L0 
C:\Users\stapi\AppData\Local\Temp\ccHntkpc.s:46     .text.net_would_block.isra.0:000000000000002c .L0 
C:\Users\stapi\AppData\Local\Temp\ccHntkpc.s:47     .text.net_would_block.isra.0:000000000000002c .L0 
C:\Users\stapi\AppData\Local\Temp\ccHntkpc.s:49     .text.net_would_block.isra.0:000000000000002c .L0 
C:\Users\stapi\AppData\Local\Temp\ccHntkpc.s:51     .text.net_would_block.isra.0:000000000000002c .L0 
C:\Users\stapi\AppData\Local\Temp\ccHntkpc.s:54     .text.net_would_block.isra.0:0000000000000036 .L0 
C:\Users\stapi\AppData\Local\Temp\ccHntkpc.s:61     .text.mbedtls_net_init:0000000000000000 mbedtls_net_init
C:\Users\stapi\AppData\Local\Temp\ccHntkpc.s:64     .text.mbedtls_net_init:0000000000000000 .L0 
C:\Users\stapi\AppData\Local\Temp\ccHntkpc.s:66     .text.mbedtls_net_init:0000000000000000 .L0 
C:\Users\stapi\AppData\Local\Temp\ccHntkpc.s:67     .text.mbedtls_net_init:0000000000000000 .L0 
C:\Users\stapi\AppData\Local\Temp\ccHntkpc.s:68     .text.mbedtls_net_init:0000000000000000 .L0 
C:\Users\stapi\AppData\Local\Temp\ccHntkpc.s:71     .text.mbedtls_net_init:0000000000000004 .L0 
C:\Users\stapi\AppData\Local\Temp\ccHntkpc.s:72     .text.mbedtls_net_init:0000000000000006 .L0 
C:\Users\stapi\AppData\Local\Temp\ccHntkpc.s:79     .text.mbedtls_net_connect:0000000000000000 mbedtls_net_connect
C:\Users\stapi\AppData\Local\Temp\ccHntkpc.s:82     .text.mbedtls_net_connect:0000000000000000 .L0 
C:\Users\stapi\AppData\Local\Temp\ccHntkpc.s:84     .text.mbedtls_net_connect:0000000000000000 .L0 
C:\Users\stapi\AppData\Local\Temp\ccHntkpc.s:85     .text.mbedtls_net_connect:0000000000000008 .L0 
C:\Users\stapi\AppData\Local\Temp\ccHntkpc.s:86     .text.mbedtls_net_connect:0000000000000008 .L0 
C:\Users\stapi\AppData\Local\Temp\ccHntkpc.s:87     .text.mbedtls_net_connect:0000000000000008 .L0 
C:\Users\stapi\AppData\Local\Temp\ccHntkpc.s:88     .text.mbedtls_net_connect:0000000000000008 .L0 
C:\Users\stapi\AppData\Local\Temp\ccHntkpc.s:89     .text.mbedtls_net_connect:0000000000000008 .L0 
C:\Users\stapi\AppData\Local\Temp\ccHntkpc.s:90     .text.mbedtls_net_connect:0000000000000008 .L0 
C:\Users\stapi\AppData\Local\Temp\ccHntkpc.s:92     .text.mbedtls_net_connect:0000000000000008 .L0 
C:\Users\stapi\AppData\Local\Temp\ccHntkpc.s:93     .text.mbedtls_net_connect:0000000000000008 .L0 
C:\Users\stapi\AppData\Local\Temp\ccHntkpc.s:94     .text.mbedtls_net_connect:0000000000000008 .L0 
C:\Users\stapi\AppData\Local\Temp\ccHntkpc.s:96     .text.mbedtls_net_connect:0000000000000008 .L0 
C:\Users\stapi\AppData\Local\Temp\ccHntkpc.s:97     .text.mbedtls_net_connect:0000000000000008 .L0 
C:\Users\stapi\AppData\Local\Temp\ccHntkpc.s:98     .text.mbedtls_net_connect:0000000000000008 .L0 
C:\Users\stapi\AppData\Local\Temp\ccHntkpc.s:99     .text.mbedtls_net_connect:000000000000000a .L0 
C:\Users\stapi\AppData\Local\Temp\ccHntkpc.s:101    .text.mbedtls_net_connect:000000000000000a .L0 
C:\Users\stapi\AppData\Local\Temp\ccHntkpc.s:105    .text.mbedtls_net_connect:0000000000000010 .L0 
C:\Users\stapi\AppData\Local\Temp\ccHntkpc.s:112    .text.mbedtls_net_connect:0000000000000018 .L0 
C:\Users\stapi\AppData\Local\Temp\ccHntkpc.s:114    .text.mbedtls_net_connect:000000000000001a .L0 
C:\Users\stapi\AppData\Local\Temp\ccHntkpc.s:117    .text.mbedtls_net_connect:0000000000000022 .L0 
C:\Users\stapi\AppData\Local\Temp\ccHntkpc.s:118    .text.mbedtls_net_connect:0000000000000022 .L0 
C:\Users\stapi\AppData\Local\Temp\ccHntkpc.s:119    .text.mbedtls_net_connect:0000000000000022 .L0 
C:\Users\stapi\AppData\Local\Temp\ccHntkpc.s:125    .text.mbedtls_net_connect:000000000000002c .L0 
C:\Users\stapi\AppData\Local\Temp\ccHntkpc.s:127    .text.mbedtls_net_connect:000000000000002e .L0 
C:\Users\stapi\AppData\Local\Temp\ccHntkpc.s:128    .text.mbedtls_net_connect:000000000000002e .L0 
C:\Users\stapi\AppData\Local\Temp\ccHntkpc.s:132    .text.mbedtls_net_connect:0000000000000036 .L0 
C:\Users\stapi\AppData\Local\Temp\ccHntkpc.s:135    .text.mbedtls_net_connect:0000000000000038 .L0 
C:\Users\stapi\AppData\Local\Temp\ccHntkpc.s:140    .text.mbedtls_net_connect:0000000000000040 .L0 
C:\Users\stapi\AppData\Local\Temp\ccHntkpc.s:142    .text.mbedtls_net_connect:0000000000000042 .L0 
C:\Users\stapi\AppData\Local\Temp\ccHntkpc.s:143    .text.mbedtls_net_connect:0000000000000042 .L0 
C:\Users\stapi\AppData\Local\Temp\ccHntkpc.s:146    .text.mbedtls_net_connect:000000000000004a .L0 
C:\Users\stapi\AppData\Local\Temp\ccHntkpc.s:149    .text.mbedtls_net_connect:000000000000004e .L0 
C:\Users\stapi\AppData\Local\Temp\ccHntkpc.s:152    .text.mbedtls_net_connect:0000000000000050 .L0 
C:\Users\stapi\AppData\Local\Temp\ccHntkpc.s:153    .text.mbedtls_net_connect:0000000000000050 .L0 
C:\Users\stapi\AppData\Local\Temp\ccHntkpc.s:154    .text.mbedtls_net_connect:0000000000000050 .L0 
C:\Users\stapi\AppData\Local\Temp\ccHntkpc.s:158    .text.mbedtls_net_connect:0000000000000052 .L0 
C:\Users\stapi\AppData\Local\Temp\ccHntkpc.s:159    .text.mbedtls_net_connect:0000000000000052 .L0 
C:\Users\stapi\AppData\Local\Temp\ccHntkpc.s:163    .text.mbedtls_net_connect:0000000000000054 .L0 
C:\Users\stapi\AppData\Local\Temp\ccHntkpc.s:168    .text.mbedtls_net_connect:000000000000005e .L0 
C:\Users\stapi\AppData\Local\Temp\ccHntkpc.s:169    .text.mbedtls_net_connect:000000000000005e .L0 
C:\Users\stapi\AppData\Local\Temp\ccHntkpc.s:171    .text.mbedtls_net_connect:0000000000000062 .L0 
C:\Users\stapi\AppData\Local\Temp\ccHntkpc.s:172    .text.mbedtls_net_connect:0000000000000062 .L0 
C:\Users\stapi\AppData\Local\Temp\ccHntkpc.s:174    .text.mbedtls_net_connect:000000000000006a .L0 
C:\Users\stapi\AppData\Local\Temp\ccHntkpc.s:175    .text.mbedtls_net_connect:000000000000006a .L0 
C:\Users\stapi\AppData\Local\Temp\ccHntkpc.s:176    .text.mbedtls_net_connect:000000000000006a .L0 
C:\Users\stapi\AppData\Local\Temp\ccHntkpc.s:177    .text.mbedtls_net_connect:000000000000006a .L0 
C:\Users\stapi\AppData\Local\Temp\ccHntkpc.s:178    .text.mbedtls_net_connect:000000000000006a .L0 
C:\Users\stapi\AppData\Local\Temp\ccHntkpc.s:179    .text.mbedtls_net_connect:000000000000006a .L0 
C:\Users\stapi\AppData\Local\Temp\ccHntkpc.s:182    .text.mbedtls_net_connect:000000000000006a .L0 
C:\Users\stapi\AppData\Local\Temp\ccHntkpc.s:184    .text.mbedtls_net_connect:000000000000006a .L0 
C:\Users\stapi\AppData\Local\Temp\ccHntkpc.s:185    .text.mbedtls_net_connect:000000000000006a .L0 
C:\Users\stapi\AppData\Local\Temp\ccHntkpc.s:191    .text.mbedtls_net_connect:0000000000000078 .L0 
C:\Users\stapi\AppData\Local\Temp\ccHntkpc.s:193    .text.mbedtls_net_connect:000000000000007c .L0 
C:\Users\stapi\AppData\Local\Temp\ccHntkpc.s:194    .text.mbedtls_net_connect:000000000000007c .L0 
C:\Users\stapi\AppData\Local\Temp\ccHntkpc.s:196    .text.mbedtls_net_connect:0000000000000080 .L0 
C:\Users\stapi\AppData\Local\Temp\ccHntkpc.s:197    .text.mbedtls_net_connect:0000000000000080 .L0 
C:\Users\stapi\AppData\Local\Temp\ccHntkpc.s:204    .text.mbedtls_net_connect:000000000000008e .L0 
C:\Users\stapi\AppData\Local\Temp\ccHntkpc.s:206    .text.mbedtls_net_connect:0000000000000090 .L0 
C:\Users\stapi\AppData\Local\Temp\ccHntkpc.s:208    .text.mbedtls_net_connect:0000000000000094 .L0 
C:\Users\stapi\AppData\Local\Temp\ccHntkpc.s:210    .text.mbedtls_net_connect:0000000000000098 .L0 
C:\Users\stapi\AppData\Local\Temp\ccHntkpc.s:214    .text.mbedtls_net_connect:00000000000000a0 .L0 
C:\Users\stapi\AppData\Local\Temp\ccHntkpc.s:215    .text.mbedtls_net_connect:00000000000000a0 .L0 
C:\Users\stapi\AppData\Local\Temp\ccHntkpc.s:216    .text.mbedtls_net_connect:00000000000000a0 .L0 
C:\Users\stapi\AppData\Local\Temp\ccHntkpc.s:221    .text.mbedtls_net_connect:00000000000000a4 .L0 
C:\Users\stapi\AppData\Local\Temp\ccHntkpc.s:224    .text.mbedtls_net_connect:00000000000000aa .L0 
C:\Users\stapi\AppData\Local\Temp\ccHntkpc.s:231    .text.mbedtls_net_bind:0000000000000000 mbedtls_net_bind
C:\Users\stapi\AppData\Local\Temp\ccHntkpc.s:234    .text.mbedtls_net_bind:0000000000000000 .L0 
C:\Users\stapi\AppData\Local\Temp\ccHntkpc.s:236    .text.mbedtls_net_bind:0000000000000000 .L0 
C:\Users\stapi\AppData\Local\Temp\ccHntkpc.s:237    .text.mbedtls_net_bind:0000000000000008 .L0 
C:\Users\stapi\AppData\Local\Temp\ccHntkpc.s:238    .text.mbedtls_net_bind:0000000000000008 .L0 
C:\Users\stapi\AppData\Local\Temp\ccHntkpc.s:239    .text.mbedtls_net_bind:0000000000000008 .L0 
C:\Users\stapi\AppData\Local\Temp\ccHntkpc.s:240    .text.mbedtls_net_bind:0000000000000008 .L0 
C:\Users\stapi\AppData\Local\Temp\ccHntkpc.s:241    .text.mbedtls_net_bind:0000000000000008 .L0 
C:\Users\stapi\AppData\Local\Temp\ccHntkpc.s:242    .text.mbedtls_net_bind:0000000000000008 .L0 
C:\Users\stapi\AppData\Local\Temp\ccHntkpc.s:243    .text.mbedtls_net_bind:0000000000000008 .L0 
C:\Users\stapi\AppData\Local\Temp\ccHntkpc.s:244    .text.mbedtls_net_bind:0000000000000008 .L0 
C:\Users\stapi\AppData\Local\Temp\ccHntkpc.s:246    .text.mbedtls_net_bind:0000000000000008 .L0 
C:\Users\stapi\AppData\Local\Temp\ccHntkpc.s:247    .text.mbedtls_net_bind:0000000000000008 .L0 
C:\Users\stapi\AppData\Local\Temp\ccHntkpc.s:248    .text.mbedtls_net_bind:0000000000000008 .L0 
C:\Users\stapi\AppData\Local\Temp\ccHntkpc.s:250    .text.mbedtls_net_bind:0000000000000008 .L0 
C:\Users\stapi\AppData\Local\Temp\ccHntkpc.s:251    .text.mbedtls_net_bind:0000000000000008 .L0 
C:\Users\stapi\AppData\Local\Temp\ccHntkpc.s:252    .text.mbedtls_net_bind:0000000000000008 .L0 
C:\Users\stapi\AppData\Local\Temp\ccHntkpc.s:253    .text.mbedtls_net_bind:000000000000000a .L0 
C:\Users\stapi\AppData\Local\Temp\ccHntkpc.s:255    .text.mbedtls_net_bind:000000000000000a .L0 
C:\Users\stapi\AppData\Local\Temp\ccHntkpc.s:259    .text.mbedtls_net_bind:0000000000000010 .L0 
C:\Users\stapi\AppData\Local\Temp\ccHntkpc.s:266    .text.mbedtls_net_bind:0000000000000018 .L0 
C:\Users\stapi\AppData\Local\Temp\ccHntkpc.s:268    .text.mbedtls_net_bind:000000000000001a .L0 
C:\Users\stapi\AppData\Local\Temp\ccHntkpc.s:271    .text.mbedtls_net_bind:0000000000000022 .L0 
C:\Users\stapi\AppData\Local\Temp\ccHntkpc.s:272    .text.mbedtls_net_bind:0000000000000022 .L0 
C:\Users\stapi\AppData\Local\Temp\ccHntkpc.s:273    .text.mbedtls_net_bind:0000000000000022 .L0 
C:\Users\stapi\AppData\Local\Temp\ccHntkpc.s:279    .text.mbedtls_net_bind:000000000000002c .L0 
C:\Users\stapi\AppData\Local\Temp\ccHntkpc.s:281    .text.mbedtls_net_bind:000000000000002e .L0 
C:\Users\stapi\AppData\Local\Temp\ccHntkpc.s:282    .text.mbedtls_net_bind:000000000000002e .L0 
C:\Users\stapi\AppData\Local\Temp\ccHntkpc.s:286    .text.mbedtls_net_bind:0000000000000036 .L0 
C:\Users\stapi\AppData\Local\Temp\ccHntkpc.s:289    .text.mbedtls_net_bind:0000000000000038 .L0 
C:\Users\stapi\AppData\Local\Temp\ccHntkpc.s:294    .text.mbedtls_net_bind:0000000000000040 .L0 
C:\Users\stapi\AppData\Local\Temp\ccHntkpc.s:296    .text.mbedtls_net_bind:0000000000000042 .L0 
C:\Users\stapi\AppData\Local\Temp\ccHntkpc.s:297    .text.mbedtls_net_bind:0000000000000042 .L0 
C:\Users\stapi\AppData\Local\Temp\ccHntkpc.s:300    .text.mbedtls_net_bind:000000000000004a .L0 
C:\Users\stapi\AppData\Local\Temp\ccHntkpc.s:303    .text.mbedtls_net_bind:000000000000004e .L0 
C:\Users\stapi\AppData\Local\Temp\ccHntkpc.s:306    .text.mbedtls_net_bind:0000000000000050 .L0 
C:\Users\stapi\AppData\Local\Temp\ccHntkpc.s:307    .text.mbedtls_net_bind:0000000000000050 .L0 
C:\Users\stapi\AppData\Local\Temp\ccHntkpc.s:308    .text.mbedtls_net_bind:0000000000000050 .L0 
C:\Users\stapi\AppData\Local\Temp\ccHntkpc.s:311    .text.mbedtls_net_bind:0000000000000052 .L0 
C:\Users\stapi\AppData\Local\Temp\ccHntkpc.s:313    .text.mbedtls_net_bind:0000000000000054 .L0 
C:\Users\stapi\AppData\Local\Temp\ccHntkpc.s:315    .text.mbedtls_net_bind:0000000000000056 .L0 
C:\Users\stapi\AppData\Local\Temp\ccHntkpc.s:319    .text.mbedtls_net_bind:0000000000000058 .L0 
C:\Users\stapi\AppData\Local\Temp\ccHntkpc.s:320    .text.mbedtls_net_bind:0000000000000058 .L0 
C:\Users\stapi\AppData\Local\Temp\ccHntkpc.s:324    .text.mbedtls_net_bind:000000000000005a .L0 
C:\Users\stapi\AppData\Local\Temp\ccHntkpc.s:329    .text.mbedtls_net_bind:0000000000000064 .L0 
C:\Users\stapi\AppData\Local\Temp\ccHntkpc.s:330    .text.mbedtls_net_bind:0000000000000064 .L0 
C:\Users\stapi\AppData\Local\Temp\ccHntkpc.s:332    .text.mbedtls_net_bind:0000000000000068 .L0 
C:\Users\stapi\AppData\Local\Temp\ccHntkpc.s:333    .text.mbedtls_net_bind:0000000000000068 .L0 
C:\Users\stapi\AppData\Local\Temp\ccHntkpc.s:335    .text.mbedtls_net_bind:0000000000000070 .L0 
C:\Users\stapi\AppData\Local\Temp\ccHntkpc.s:336    .text.mbedtls_net_bind:0000000000000070 .L0 
C:\Users\stapi\AppData\Local\Temp\ccHntkpc.s:337    .text.mbedtls_net_bind:0000000000000070 .L0 
C:\Users\stapi\AppData\Local\Temp\ccHntkpc.s:338    .text.mbedtls_net_bind:0000000000000070 .L0 
C:\Users\stapi\AppData\Local\Temp\ccHntkpc.s:339    .text.mbedtls_net_bind:0000000000000070 .L0 
C:\Users\stapi\AppData\Local\Temp\ccHntkpc.s:340    .text.mbedtls_net_bind:0000000000000070 .L0 
C:\Users\stapi\AppData\Local\Temp\ccHntkpc.s:341    .text.mbedtls_net_bind:0000000000000070 .L0 
C:\Users\stapi\AppData\Local\Temp\ccHntkpc.s:342    .text.mbedtls_net_bind:0000000000000070 .L0 
C:\Users\stapi\AppData\Local\Temp\ccHntkpc.s:345    .text.mbedtls_net_bind:0000000000000070 .L0 
C:\Users\stapi\AppData\Local\Temp\ccHntkpc.s:347    .text.mbedtls_net_bind:0000000000000070 .L0 
C:\Users\stapi\AppData\Local\Temp\ccHntkpc.s:348    .text.mbedtls_net_bind:0000000000000070 .L0 
C:\Users\stapi\AppData\Local\Temp\ccHntkpc.s:354    .text.mbedtls_net_bind:000000000000007e .L0 
C:\Users\stapi\AppData\Local\Temp\ccHntkpc.s:356    .text.mbedtls_net_bind:0000000000000082 .L0 
C:\Users\stapi\AppData\Local\Temp\ccHntkpc.s:357    .text.mbedtls_net_bind:0000000000000082 .L0 
C:\Users\stapi\AppData\Local\Temp\ccHntkpc.s:359    .text.mbedtls_net_bind:0000000000000086 .L0 
C:\Users\stapi\AppData\Local\Temp\ccHntkpc.s:360    .text.mbedtls_net_bind:0000000000000086 .L0 
C:\Users\stapi\AppData\Local\Temp\ccHntkpc.s:365    .text.mbedtls_net_bind:000000000000008e .L0 
C:\Users\stapi\AppData\Local\Temp\ccHntkpc.s:367    .text.mbedtls_net_bind:0000000000000090 .L0 
C:\Users\stapi\AppData\Local\Temp\ccHntkpc.s:368    .text.mbedtls_net_bind:0000000000000090 .L0 
C:\Users\stapi\AppData\Local\Temp\ccHntkpc.s:373    .text.mbedtls_net_bind:000000000000009e .L0 
C:\Users\stapi\AppData\Local\Temp\ccHntkpc.s:375    .text.mbedtls_net_bind:00000000000000a0 .L0 
C:\Users\stapi\AppData\Local\Temp\ccHntkpc.s:378    .text.mbedtls_net_bind:00000000000000a8 .L0 
C:\Users\stapi\AppData\Local\Temp\ccHntkpc.s:380    .text.mbedtls_net_bind:00000000000000a8 .L0 
C:\Users\stapi\AppData\Local\Temp\ccHntkpc.s:381    .text.mbedtls_net_bind:00000000000000a8 .L0 
C:\Users\stapi\AppData\Local\Temp\ccHntkpc.s:386    .text.mbedtls_net_bind:00000000000000ae .L0 
C:\Users\stapi\AppData\Local\Temp\ccHntkpc.s:387    .text.mbedtls_net_bind:00000000000000ae .L0 
C:\Users\stapi\AppData\Local\Temp\ccHntkpc.s:394    .text.mbedtls_net_bind:00000000000000bc .L0 
C:\Users\stapi\AppData\Local\Temp\ccHntkpc.s:396    .text.mbedtls_net_bind:00000000000000be .L0 
C:\Users\stapi\AppData\Local\Temp\ccHntkpc.s:398    .text.mbedtls_net_bind:00000000000000c2 .L0 
C:\Users\stapi\AppData\Local\Temp\ccHntkpc.s:400    .text.mbedtls_net_bind:00000000000000c6 .L0 
C:\Users\stapi\AppData\Local\Temp\ccHntkpc.s:403    .text.mbedtls_net_bind:00000000000000ce .L0 
C:\Users\stapi\AppData\Local\Temp\ccHntkpc.s:405    .text.mbedtls_net_bind:00000000000000ce .L0 
C:\Users\stapi\AppData\Local\Temp\ccHntkpc.s:406    .text.mbedtls_net_bind:00000000000000ce .L0 
C:\Users\stapi\AppData\Local\Temp\ccHntkpc.s:407    .text.mbedtls_net_bind:00000000000000ce .L0 
C:\Users\stapi\AppData\Local\Temp\ccHntkpc.s:413    .text.mbedtls_net_bind:00000000000000d2 .L0 
C:\Users\stapi\AppData\Local\Temp\ccHntkpc.s:414    .text.mbedtls_net_bind:00000000000000d2 .L0 
C:\Users\stapi\AppData\Local\Temp\ccHntkpc.s:416    .text.mbedtls_net_bind:00000000000000d6 .L0 
C:\Users\stapi\AppData\Local\Temp\ccHntkpc.s:417    .text.mbedtls_net_bind:00000000000000d6 .L0 
C:\Users\stapi\AppData\Local\Temp\ccHntkpc.s:422    .text.mbedtls_net_bind:00000000000000e4 .L0 
C:\Users\stapi\AppData\Local\Temp\ccHntkpc.s:424    .text.mbedtls_net_bind:00000000000000e6 .L0 
C:\Users\stapi\AppData\Local\Temp\ccHntkpc.s:426    .text.mbedtls_net_bind:00000000000000ea .L0 
C:\Users\stapi\AppData\Local\Temp\ccHntkpc.s:428    .text.mbedtls_net_bind:00000000000000ee .L0 
C:\Users\stapi\AppData\Local\Temp\ccHntkpc.s:431    .text.mbedtls_net_bind:00000000000000f6 .L0 
C:\Users\stapi\AppData\Local\Temp\ccHntkpc.s:432    .text.mbedtls_net_bind:00000000000000f6 .L0 
C:\Users\stapi\AppData\Local\Temp\ccHntkpc.s:433    .text.mbedtls_net_bind:00000000000000f8 .L0 
C:\Users\stapi\AppData\Local\Temp\ccHntkpc.s:440    .text.mbedtls_net_accept:0000000000000000 mbedtls_net_accept
C:\Users\stapi\AppData\Local\Temp\ccHntkpc.s:443    .text.mbedtls_net_accept:0000000000000000 .L0 
C:\Users\stapi\AppData\Local\Temp\ccHntkpc.s:445    .text.mbedtls_net_accept:0000000000000000 .L0 
C:\Users\stapi\AppData\Local\Temp\ccHntkpc.s:446    .text.mbedtls_net_accept:0000000000000008 .L0 
C:\Users\stapi\AppData\Local\Temp\ccHntkpc.s:447    .text.mbedtls_net_accept:0000000000000008 .L0 
C:\Users\stapi\AppData\Local\Temp\ccHntkpc.s:448    .text.mbedtls_net_accept:0000000000000008 .L0 
C:\Users\stapi\AppData\Local\Temp\ccHntkpc.s:449    .text.mbedtls_net_accept:0000000000000008 .L0 
C:\Users\stapi\AppData\Local\Temp\ccHntkpc.s:450    .text.mbedtls_net_accept:0000000000000008 .L0 
C:\Users\stapi\AppData\Local\Temp\ccHntkpc.s:451    .text.mbedtls_net_accept:0000000000000008 .L0 
C:\Users\stapi\AppData\Local\Temp\ccHntkpc.s:452    .text.mbedtls_net_accept:0000000000000008 .L0 
C:\Users\stapi\AppData\Local\Temp\ccHntkpc.s:453    .text.mbedtls_net_accept:0000000000000008 .L0 
C:\Users\stapi\AppData\Local\Temp\ccHntkpc.s:455    .text.mbedtls_net_accept:0000000000000008 .L0 
C:\Users\stapi\AppData\Local\Temp\ccHntkpc.s:456    .text.mbedtls_net_accept:0000000000000008 .L0 
C:\Users\stapi\AppData\Local\Temp\ccHntkpc.s:457    .text.mbedtls_net_accept:0000000000000008 .L0 
C:\Users\stapi\AppData\Local\Temp\ccHntkpc.s:458    .text.mbedtls_net_accept:0000000000000008 .L0 
C:\Users\stapi\AppData\Local\Temp\ccHntkpc.s:459    .text.mbedtls_net_accept:0000000000000008 .L0 
C:\Users\stapi\AppData\Local\Temp\ccHntkpc.s:461    .text.mbedtls_net_accept:000000000000000a .L0 
C:\Users\stapi\AppData\Local\Temp\ccHntkpc.s:464    .text.mbedtls_net_accept:000000000000000c .L0 
C:\Users\stapi\AppData\Local\Temp\ccHntkpc.s:465    .text.mbedtls_net_accept:000000000000000e .L0 
C:\Users\stapi\AppData\Local\Temp\ccHntkpc.s:467    .text.mbedtls_net_accept:000000000000000e .L0 
C:\Users\stapi\AppData\Local\Temp\ccHntkpc.s:469    .text.mbedtls_net_accept:0000000000000012 .L0 
C:\Users\stapi\AppData\Local\Temp\ccHntkpc.s:471    .text.mbedtls_net_accept:0000000000000014 .L0 
C:\Users\stapi\AppData\Local\Temp\ccHntkpc.s:474    .text.mbedtls_net_accept:0000000000000016 .L0 
C:\Users\stapi\AppData\Local\Temp\ccHntkpc.s:478    .text.mbedtls_net_accept:000000000000001c .L0 
C:\Users\stapi\AppData\Local\Temp\ccHntkpc.s:480    .text.mbedtls_net_accept:000000000000001e .L0 
C:\Users\stapi\AppData\Local\Temp\ccHntkpc.s:481    .text.mbedtls_net_accept:000000000000001e .L0 
C:\Users\stapi\AppData\Local\Temp\ccHntkpc.s:484    .text.mbedtls_net_accept:0000000000000022 .L0 
C:\Users\stapi\AppData\Local\Temp\ccHntkpc.s:486    .text.mbedtls_net_accept:0000000000000024 .L0 
C:\Users\stapi\AppData\Local\Temp\ccHntkpc.s:492    .text.mbedtls_net_accept:000000000000002a .L0 
C:\Users\stapi\AppData\Local\Temp\ccHntkpc.s:494    .text.mbedtls_net_accept:000000000000002c .L0 
C:\Users\stapi\AppData\Local\Temp\ccHntkpc.s:495    .text.mbedtls_net_accept:000000000000002c .L0 
C:\Users\stapi\AppData\Local\Temp\ccHntkpc.s:498    .text.mbedtls_net_accept:0000000000000034 .L0 
C:\Users\stapi\AppData\Local\Temp\ccHntkpc.s:502    .text.mbedtls_net_accept:0000000000000036 .L0 
C:\Users\stapi\AppData\Local\Temp\ccHntkpc.s:507    .text.mbedtls_net_accept:000000000000003c .L0 
C:\Users\stapi\AppData\Local\Temp\ccHntkpc.s:509    .text.mbedtls_net_accept:000000000000003e .L0 
C:\Users\stapi\AppData\Local\Temp\ccHntkpc.s:511    .text.mbedtls_net_accept:0000000000000040 .L0 
C:\Users\stapi\AppData\Local\Temp\ccHntkpc.s:513    .text.mbedtls_net_accept:0000000000000044 .L0 
C:\Users\stapi\AppData\Local\Temp\ccHntkpc.s:516    .text.mbedtls_net_accept:000000000000004a .L0 
C:\Users\stapi\AppData\Local\Temp\ccHntkpc.s:517    .text.mbedtls_net_accept:000000000000004a .L0 
C:\Users\stapi\AppData\Local\Temp\ccHntkpc.s:519    .text.mbedtls_net_accept:000000000000004c .L0 
C:\Users\stapi\AppData\Local\Temp\ccHntkpc.s:521    .text.mbedtls_net_accept:0000000000000050 .L0 
C:\Users\stapi\AppData\Local\Temp\ccHntkpc.s:522    .text.mbedtls_net_accept:0000000000000050 .L0 
C:\Users\stapi\AppData\Local\Temp\ccHntkpc.s:527    .text.mbedtls_net_accept:000000000000005c .L0 
C:\Users\stapi\AppData\Local\Temp\ccHntkpc.s:531    .text.mbedtls_net_accept:0000000000000060 .L0 
C:\Users\stapi\AppData\Local\Temp\ccHntkpc.s:532    .text.mbedtls_net_accept:0000000000000060 .L0 
C:\Users\stapi\AppData\Local\Temp\ccHntkpc.s:534    .text.mbedtls_net_accept:0000000000000064 .L0 
C:\Users\stapi\AppData\Local\Temp\ccHntkpc.s:535    .text.mbedtls_net_accept:0000000000000064 .L0 
C:\Users\stapi\AppData\Local\Temp\ccHntkpc.s:540    .text.mbedtls_net_accept:000000000000006e .L0 
C:\Users\stapi\AppData\Local\Temp\ccHntkpc.s:542    .text.mbedtls_net_accept:0000000000000070 .L0 
C:\Users\stapi\AppData\Local\Temp\ccHntkpc.s:548    .text.mbedtls_net_accept:0000000000000078 .L0 
C:\Users\stapi\AppData\Local\Temp\ccHntkpc.s:549    .text.mbedtls_net_accept:0000000000000078 .L0 
C:\Users\stapi\AppData\Local\Temp\ccHntkpc.s:555    .text.mbedtls_net_accept:0000000000000082 .L0 
C:\Users\stapi\AppData\Local\Temp\ccHntkpc.s:557    .text.mbedtls_net_accept:0000000000000086 .L0 
C:\Users\stapi\AppData\Local\Temp\ccHntkpc.s:558    .text.mbedtls_net_accept:0000000000000086 .L0 
C:\Users\stapi\AppData\Local\Temp\ccHntkpc.s:564    .text.mbedtls_net_accept:0000000000000090 .L0 
C:\Users\stapi\AppData\Local\Temp\ccHntkpc.s:565    .text.mbedtls_net_accept:0000000000000090 .L0 
C:\Users\stapi\AppData\Local\Temp\ccHntkpc.s:570    .text.mbedtls_net_accept:0000000000000098 .L0 
C:\Users\stapi\AppData\Local\Temp\ccHntkpc.s:571    .text.mbedtls_net_accept:0000000000000098 .L0 
C:\Users\stapi\AppData\Local\Temp\ccHntkpc.s:572    .text.mbedtls_net_accept:0000000000000098 .L0 
C:\Users\stapi\AppData\Local\Temp\ccHntkpc.s:577    .text.mbedtls_net_accept:000000000000009e .L0 
C:\Users\stapi\AppData\Local\Temp\ccHntkpc.s:579    .text.mbedtls_net_accept:00000000000000a0 .L0 
C:\Users\stapi\AppData\Local\Temp\ccHntkpc.s:580    .text.mbedtls_net_accept:00000000000000a0 .L0 
C:\Users\stapi\AppData\Local\Temp\ccHntkpc.s:583    .text.mbedtls_net_accept:00000000000000a8 .L0 
C:\Users\stapi\AppData\Local\Temp\ccHntkpc.s:585    .text.mbedtls_net_accept:00000000000000aa .L0 
C:\Users\stapi\AppData\Local\Temp\ccHntkpc.s:586    .text.mbedtls_net_accept:00000000000000aa .L0 
C:\Users\stapi\AppData\Local\Temp\ccHntkpc.s:588    .text.mbedtls_net_accept:00000000000000ac .L0 
C:\Users\stapi\AppData\Local\Temp\ccHntkpc.s:591    .text.mbedtls_net_accept:00000000000000b0 .L0 
C:\Users\stapi\AppData\Local\Temp\ccHntkpc.s:593    .text.mbedtls_net_accept:00000000000000b4 .L0 
C:\Users\stapi\AppData\Local\Temp\ccHntkpc.s:594    .text.mbedtls_net_accept:00000000000000b4 .L0 
C:\Users\stapi\AppData\Local\Temp\ccHntkpc.s:597    .text.mbedtls_net_accept:00000000000000b8 .L0 
C:\Users\stapi\AppData\Local\Temp\ccHntkpc.s:598    .text.mbedtls_net_accept:00000000000000b8 .L0 
C:\Users\stapi\AppData\Local\Temp\ccHntkpc.s:600    .text.mbedtls_net_accept:00000000000000bc .L0 
C:\Users\stapi\AppData\Local\Temp\ccHntkpc.s:603    .text.mbedtls_net_accept:00000000000000c2 .L0 
C:\Users\stapi\AppData\Local\Temp\ccHntkpc.s:604    .text.mbedtls_net_accept:00000000000000c2 .L0 
C:\Users\stapi\AppData\Local\Temp\ccHntkpc.s:607    .text.mbedtls_net_accept:00000000000000ca .L0 
C:\Users\stapi\AppData\Local\Temp\ccHntkpc.s:610    .text.mbedtls_net_accept:00000000000000cc .L0 
C:\Users\stapi\AppData\Local\Temp\ccHntkpc.s:614    .text.mbedtls_net_accept:00000000000000d0 .L0 
C:\Users\stapi\AppData\Local\Temp\ccHntkpc.s:616    .text.mbedtls_net_accept:00000000000000d4 .L0 
C:\Users\stapi\AppData\Local\Temp\ccHntkpc.s:617    .text.mbedtls_net_accept:00000000000000d4 .L0 
C:\Users\stapi\AppData\Local\Temp\ccHntkpc.s:619    .text.mbedtls_net_accept:00000000000000dc .L0 
C:\Users\stapi\AppData\Local\Temp\ccHntkpc.s:620    .text.mbedtls_net_accept:00000000000000dc .L0 
C:\Users\stapi\AppData\Local\Temp\ccHntkpc.s:621    .text.mbedtls_net_accept:00000000000000dc .L0 
C:\Users\stapi\AppData\Local\Temp\ccHntkpc.s:622    .text.mbedtls_net_accept:00000000000000dc .L0 
C:\Users\stapi\AppData\Local\Temp\ccHntkpc.s:623    .text.mbedtls_net_accept:00000000000000dc .L0 
C:\Users\stapi\AppData\Local\Temp\ccHntkpc.s:624    .text.mbedtls_net_accept:00000000000000dc .L0 
C:\Users\stapi\AppData\Local\Temp\ccHntkpc.s:625    .text.mbedtls_net_accept:00000000000000dc .L0 
C:\Users\stapi\AppData\Local\Temp\ccHntkpc.s:626    .text.mbedtls_net_accept:00000000000000dc .L0 
C:\Users\stapi\AppData\Local\Temp\ccHntkpc.s:628    .text.mbedtls_net_accept:00000000000000dc .L0 
C:\Users\stapi\AppData\Local\Temp\ccHntkpc.s:631    .text.mbedtls_net_accept:00000000000000dc .L0 
C:\Users\stapi\AppData\Local\Temp\ccHntkpc.s:637    .text.mbedtls_net_accept:00000000000000ec .L0 
C:\Users\stapi\AppData\Local\Temp\ccHntkpc.s:639    .text.mbedtls_net_accept:00000000000000ee .L0 
C:\Users\stapi\AppData\Local\Temp\ccHntkpc.s:641    .text.mbedtls_net_accept:00000000000000f2 .L0 
C:\Users\stapi\AppData\Local\Temp\ccHntkpc.s:649    .text.mbedtls_net_accept:0000000000000104 .L0 
C:\Users\stapi\AppData\Local\Temp\ccHntkpc.s:651    .text.mbedtls_net_accept:0000000000000106 .L0 
C:\Users\stapi\AppData\Local\Temp\ccHntkpc.s:652    .text.mbedtls_net_accept:0000000000000106 .L0 
C:\Users\stapi\AppData\Local\Temp\ccHntkpc.s:658    .text.mbedtls_net_accept:0000000000000114 .L0 
C:\Users\stapi\AppData\Local\Temp\ccHntkpc.s:660    .text.mbedtls_net_accept:0000000000000116 .L0 
C:\Users\stapi\AppData\Local\Temp\ccHntkpc.s:665    .text.mbedtls_net_accept:000000000000011c .L0 
C:\Users\stapi\AppData\Local\Temp\ccHntkpc.s:666    .text.mbedtls_net_accept:000000000000011c .L0 
C:\Users\stapi\AppData\Local\Temp\ccHntkpc.s:668    .text.mbedtls_net_accept:0000000000000120 .L0 
C:\Users\stapi\AppData\Local\Temp\ccHntkpc.s:669    .text.mbedtls_net_accept:0000000000000120 .L0 
C:\Users\stapi\AppData\Local\Temp\ccHntkpc.s:675    .text.mbedtls_net_accept:000000000000012a .L0 
C:\Users\stapi\AppData\Local\Temp\ccHntkpc.s:676    .text.mbedtls_net_accept:000000000000012a .L0 
C:\Users\stapi\AppData\Local\Temp\ccHntkpc.s:677    .text.mbedtls_net_accept:000000000000012a .L0 
C:\Users\stapi\AppData\Local\Temp\ccHntkpc.s:680    .text.mbedtls_net_accept:0000000000000130 .L0 
C:\Users\stapi\AppData\Local\Temp\ccHntkpc.s:681    .text.mbedtls_net_accept:0000000000000130 .L0 
C:\Users\stapi\AppData\Local\Temp\ccHntkpc.s:684    .text.mbedtls_net_accept:0000000000000136 .L0 
C:\Users\stapi\AppData\Local\Temp\ccHntkpc.s:692    .text.mbedtls_net_accept:0000000000000146 .L0 
C:\Users\stapi\AppData\Local\Temp\ccHntkpc.s:695    .text.mbedtls_net_accept:000000000000014c .L0 
C:\Users\stapi\AppData\Local\Temp\ccHntkpc.s:702    .text.mbedtls_net_set_block:0000000000000000 mbedtls_net_set_block
C:\Users\stapi\AppData\Local\Temp\ccHntkpc.s:705    .text.mbedtls_net_set_block:0000000000000000 .L0 
C:\Users\stapi\AppData\Local\Temp\ccHntkpc.s:707    .text.mbedtls_net_set_block:0000000000000000 .L0 
C:\Users\stapi\AppData\Local\Temp\ccHntkpc.s:708    .text.mbedtls_net_set_block:0000000000000008 .L0 
C:\Users\stapi\AppData\Local\Temp\ccHntkpc.s:709    .text.mbedtls_net_set_block:0000000000000008 .L0 
C:\Users\stapi\AppData\Local\Temp\ccHntkpc.s:710    .text.mbedtls_net_set_block:0000000000000008 .L0 
C:\Users\stapi\AppData\Local\Temp\ccHntkpc.s:712    .text.mbedtls_net_set_block:0000000000000008 .L0 
C:\Users\stapi\AppData\Local\Temp\ccHntkpc.s:713    .text.mbedtls_net_set_block:0000000000000008 .L0 
C:\Users\stapi\AppData\Local\Temp\ccHntkpc.s:726    .text.mbedtls_net_set_block:0000000000000028 .L0 
C:\Users\stapi\AppData\Local\Temp\ccHntkpc.s:727    .text.mbedtls_net_set_block:0000000000000030 .L0 
C:\Users\stapi\AppData\Local\Temp\ccHntkpc.s:728    .text.mbedtls_net_set_block:0000000000000030 .L0 
C:\Users\stapi\AppData\Local\Temp\ccHntkpc.s:729    .text.mbedtls_net_set_block:0000000000000030 .L0 
C:\Users\stapi\AppData\Local\Temp\ccHntkpc.s:730    .text.mbedtls_net_set_block:0000000000000030 .L0 
C:\Users\stapi\AppData\Local\Temp\ccHntkpc.s:737    .text.mbedtls_net_set_nonblock:0000000000000000 mbedtls_net_set_nonblock
C:\Users\stapi\AppData\Local\Temp\ccHntkpc.s:740    .text.mbedtls_net_set_nonblock:0000000000000000 .L0 
C:\Users\stapi\AppData\Local\Temp\ccHntkpc.s:742    .text.mbedtls_net_set_nonblock:0000000000000000 .L0 
C:\Users\stapi\AppData\Local\Temp\ccHntkpc.s:743    .text.mbedtls_net_set_nonblock:0000000000000008 .L0 
C:\Users\stapi\AppData\Local\Temp\ccHntkpc.s:744    .text.mbedtls_net_set_nonblock:0000000000000008 .L0 
C:\Users\stapi\AppData\Local\Temp\ccHntkpc.s:745    .text.mbedtls_net_set_nonblock:0000000000000008 .L0 
C:\Users\stapi\AppData\Local\Temp\ccHntkpc.s:747    .text.mbedtls_net_set_nonblock:0000000000000008 .L0 
C:\Users\stapi\AppData\Local\Temp\ccHntkpc.s:748    .text.mbedtls_net_set_nonblock:0000000000000008 .L0 
C:\Users\stapi\AppData\Local\Temp\ccHntkpc.s:761    .text.mbedtls_net_set_nonblock:0000000000000028 .L0 
C:\Users\stapi\AppData\Local\Temp\ccHntkpc.s:762    .text.mbedtls_net_set_nonblock:0000000000000030 .L0 
C:\Users\stapi\AppData\Local\Temp\ccHntkpc.s:763    .text.mbedtls_net_set_nonblock:0000000000000030 .L0 
C:\Users\stapi\AppData\Local\Temp\ccHntkpc.s:764    .text.mbedtls_net_set_nonblock:0000000000000030 .L0 
C:\Users\stapi\AppData\Local\Temp\ccHntkpc.s:765    .text.mbedtls_net_set_nonblock:0000000000000030 .L0 
C:\Users\stapi\AppData\Local\Temp\ccHntkpc.s:772    .text.mbedtls_net_poll:0000000000000000 mbedtls_net_poll
C:\Users\stapi\AppData\Local\Temp\ccHntkpc.s:775    .text.mbedtls_net_poll:0000000000000000 .L0 
C:\Users\stapi\AppData\Local\Temp\ccHntkpc.s:777    .text.mbedtls_net_poll:0000000000000000 .L0 
C:\Users\stapi\AppData\Local\Temp\ccHntkpc.s:778    .text.mbedtls_net_poll:0000000000000008 .L0 
C:\Users\stapi\AppData\Local\Temp\ccHntkpc.s:779    .text.mbedtls_net_poll:0000000000000008 .L0 
C:\Users\stapi\AppData\Local\Temp\ccHntkpc.s:780    .text.mbedtls_net_poll:0000000000000008 .L0 
C:\Users\stapi\AppData\Local\Temp\ccHntkpc.s:781    .text.mbedtls_net_poll:0000000000000008 .L0 
C:\Users\stapi\AppData\Local\Temp\ccHntkpc.s:782    .text.mbedtls_net_poll:0000000000000008 .L0 
C:\Users\stapi\AppData\Local\Temp\ccHntkpc.s:783    .text.mbedtls_net_poll:0000000000000008 .L0 
C:\Users\stapi\AppData\Local\Temp\ccHntkpc.s:785    .text.mbedtls_net_poll:0000000000000008 .L0 
C:\Users\stapi\AppData\Local\Temp\ccHntkpc.s:786    .text.mbedtls_net_poll:0000000000000008 .L0 
C:\Users\stapi\AppData\Local\Temp\ccHntkpc.s:787    .text.mbedtls_net_poll:0000000000000008 .L0 
C:\Users\stapi\AppData\Local\Temp\ccHntkpc.s:788    .text.mbedtls_net_poll:0000000000000008 .L0 
C:\Users\stapi\AppData\Local\Temp\ccHntkpc.s:789    .text.mbedtls_net_poll:0000000000000008 .L0 
C:\Users\stapi\AppData\Local\Temp\ccHntkpc.s:790    .text.mbedtls_net_poll:0000000000000008 .L0 
C:\Users\stapi\AppData\Local\Temp\ccHntkpc.s:793    .text.mbedtls_net_poll:000000000000000a .L0 
C:\Users\stapi\AppData\Local\Temp\ccHntkpc.s:794    .text.mbedtls_net_poll:000000000000000a .L0 
C:\Users\stapi\AppData\Local\Temp\ccHntkpc.s:795    .text.mbedtls_net_poll:000000000000000c .L0 
C:\Users\stapi\AppData\Local\Temp\ccHntkpc.s:797    .text.mbedtls_net_poll:000000000000000c .L0 
C:\Users\stapi\AppData\Local\Temp\ccHntkpc.s:800    .text.mbedtls_net_poll:0000000000000010 .L0 
C:\Users\stapi\AppData\Local\Temp\ccHntkpc.s:802    .text.mbedtls_net_poll:0000000000000014 .L0 
C:\Users\stapi\AppData\Local\Temp\ccHntkpc.s:804    .text.mbedtls_net_poll:0000000000000018 .L0 
C:\Users\stapi\AppData\Local\Temp\ccHntkpc.s:805    .text.mbedtls_net_poll:0000000000000018 .L0 
C:\Users\stapi\AppData\Local\Temp\ccHntkpc.s:807    .text.mbedtls_net_poll:000000000000001c .L0 
C:\Users\stapi\AppData\Local\Temp\ccHntkpc.s:809    .text.mbedtls_net_poll:000000000000001e .L0 
C:\Users\stapi\AppData\Local\Temp\ccHntkpc.s:810    .text.mbedtls_net_poll:000000000000001e .L0 
C:\Users\stapi\AppData\Local\Temp\ccHntkpc.s:812    .text.mbedtls_net_poll:0000000000000020 .L0 
C:\Users\stapi\AppData\Local\Temp\ccHntkpc.s:815    .text.mbedtls_net_poll:0000000000000022 .L0 
C:\Users\stapi\AppData\Local\Temp\ccHntkpc.s:816    .text.mbedtls_net_poll:0000000000000022 .L0 
C:\Users\stapi\AppData\Local\Temp\ccHntkpc.s:818    .text.mbedtls_net_poll:0000000000000026 .L0 
C:\Users\stapi\AppData\Local\Temp\ccHntkpc.s:826    .text.mbedtls_net_poll:000000000000003a .L0 
C:\Users\stapi\AppData\Local\Temp\ccHntkpc.s:827    .text.mbedtls_net_poll:000000000000003a .L0 
C:\Users\stapi\AppData\Local\Temp\ccHntkpc.s:829    .text.mbedtls_net_poll:000000000000003e .L0 
C:\Users\stapi\AppData\Local\Temp\ccHntkpc.s:830    .text.mbedtls_net_poll:000000000000003e .L0 
C:\Users\stapi\AppData\Local\Temp\ccHntkpc.s:832    .text.mbedtls_net_poll:0000000000000042 .L0 
C:\Users\stapi\AppData\Local\Temp\ccHntkpc.s:834    .text.mbedtls_net_poll:0000000000000044 .L0 
C:\Users\stapi\AppData\Local\Temp\ccHntkpc.s:835    .text.mbedtls_net_poll:0000000000000044 .L0 
C:\Users\stapi\AppData\Local\Temp\ccHntkpc.s:837    .text.mbedtls_net_poll:0000000000000046 .L0 
C:\Users\stapi\AppData\Local\Temp\ccHntkpc.s:840    .text.mbedtls_net_poll:0000000000000048 .L0 
C:\Users\stapi\AppData\Local\Temp\ccHntkpc.s:841    .text.mbedtls_net_poll:0000000000000048 .L0 
C:\Users\stapi\AppData\Local\Temp\ccHntkpc.s:843    .text.mbedtls_net_poll:000000000000004c .L0 
C:\Users\stapi\AppData\Local\Temp\ccHntkpc.s:852    .text.mbedtls_net_poll:0000000000000064 .L0 
C:\Users\stapi\AppData\Local\Temp\ccHntkpc.s:853    .text.mbedtls_net_poll:0000000000000064 .L0 
C:\Users\stapi\AppData\Local\Temp\ccHntkpc.s:854    .text.mbedtls_net_poll:0000000000000064 .L0 
C:\Users\stapi\AppData\Local\Temp\ccHntkpc.s:856    .text.mbedtls_net_poll:0000000000000068 .L0 
C:\Users\stapi\AppData\Local\Temp\ccHntkpc.s:858    .text.mbedtls_net_poll:000000000000006a .L0 
C:\Users\stapi\AppData\Local\Temp\ccHntkpc.s:859    .text.mbedtls_net_poll:000000000000006a .L0 
C:\Users\stapi\AppData\Local\Temp\ccHntkpc.s:863    .text.mbedtls_net_poll:0000000000000074 .L0 
C:\Users\stapi\AppData\Local\Temp\ccHntkpc.s:865    .text.mbedtls_net_poll:0000000000000076 .L0 
C:\Users\stapi\AppData\Local\Temp\ccHntkpc.s:866    .text.mbedtls_net_poll:0000000000000076 .L0 
C:\Users\stapi\AppData\Local\Temp\ccHntkpc.s:868    .text.mbedtls_net_poll:000000000000007a .L0 
C:\Users\stapi\AppData\Local\Temp\ccHntkpc.s:870    .text.mbedtls_net_poll:000000000000007e .L0 
C:\Users\stapi\AppData\Local\Temp\ccHntkpc.s:876    .text.mbedtls_net_poll:0000000000000088 .L0 
C:\Users\stapi\AppData\Local\Temp\ccHntkpc.s:878    .text.mbedtls_net_poll:000000000000008c .L0 
C:\Users\stapi\AppData\Local\Temp\ccHntkpc.s:882    .text.mbedtls_net_poll:000000000000008e .L0 
C:\Users\stapi\AppData\Local\Temp\ccHntkpc.s:883    .text.mbedtls_net_poll:000000000000008e .L0 
C:\Users\stapi\AppData\Local\Temp\ccHntkpc.s:884    .text.mbedtls_net_poll:000000000000008e .L0 
C:\Users\stapi\AppData\Local\Temp\ccHntkpc.s:894    .text.mbedtls_net_poll:00000000000000a2 .L0 
C:\Users\stapi\AppData\Local\Temp\ccHntkpc.s:895    .text.mbedtls_net_poll:00000000000000a2 .L0 
C:\Users\stapi\AppData\Local\Temp\ccHntkpc.s:897    .text.mbedtls_net_poll:00000000000000a6 .L0 
C:\Users\stapi\AppData\Local\Temp\ccHntkpc.s:898    .text.mbedtls_net_poll:00000000000000a6 .L0 
C:\Users\stapi\AppData\Local\Temp\ccHntkpc.s:901    .text.mbedtls_net_poll:00000000000000aa .L0 
C:\Users\stapi\AppData\Local\Temp\ccHntkpc.s:904    .text.mbedtls_net_poll:00000000000000ae .L0 
C:\Users\stapi\AppData\Local\Temp\ccHntkpc.s:905    .text.mbedtls_net_poll:00000000000000ae .L0 
C:\Users\stapi\AppData\Local\Temp\ccHntkpc.s:906    .text.mbedtls_net_poll:00000000000000ae .L0 
C:\Users\stapi\AppData\Local\Temp\ccHntkpc.s:908    .text.mbedtls_net_poll:00000000000000b0 .L0 
C:\Users\stapi\AppData\Local\Temp\ccHntkpc.s:910    .text.mbedtls_net_poll:00000000000000b2 .L0 
C:\Users\stapi\AppData\Local\Temp\ccHntkpc.s:912    .text.mbedtls_net_poll:00000000000000b6 .L0 
C:\Users\stapi\AppData\Local\Temp\ccHntkpc.s:917    .text.mbedtls_net_poll:00000000000000c2 .L0 
C:\Users\stapi\AppData\Local\Temp\ccHntkpc.s:919    .text.mbedtls_net_poll:00000000000000c6 .L0 
C:\Users\stapi\AppData\Local\Temp\ccHntkpc.s:923    .text.mbedtls_net_poll:00000000000000cc .L0 
C:\Users\stapi\AppData\Local\Temp\ccHntkpc.s:926    .text.mbedtls_net_poll:00000000000000d2 .L0 
C:\Users\stapi\AppData\Local\Temp\ccHntkpc.s:929    .text.mbedtls_net_poll:00000000000000d4 .L0 
C:\Users\stapi\AppData\Local\Temp\ccHntkpc.s:930    .text.mbedtls_net_poll:00000000000000d4 .L0 
C:\Users\stapi\AppData\Local\Temp\ccHntkpc.s:932    .text.mbedtls_net_poll:00000000000000d6 .L0 
C:\Users\stapi\AppData\Local\Temp\ccHntkpc.s:933    .text.mbedtls_net_poll:00000000000000d6 .L0 
C:\Users\stapi\AppData\Local\Temp\ccHntkpc.s:937    .text.mbedtls_net_poll:00000000000000da .L0 
C:\Users\stapi\AppData\Local\Temp\ccHntkpc.s:938    .text.mbedtls_net_poll:00000000000000dc .L0 
C:\Users\stapi\AppData\Local\Temp\ccHntkpc.s:940    .text.mbedtls_net_poll:00000000000000e4 .L0 
C:\Users\stapi\AppData\Local\Temp\ccHntkpc.s:941    .text.mbedtls_net_poll:00000000000000e4 .L0 
C:\Users\stapi\AppData\Local\Temp\ccHntkpc.s:942    .text.mbedtls_net_poll:00000000000000e4 .L0 
C:\Users\stapi\AppData\Local\Temp\ccHntkpc.s:943    .text.mbedtls_net_poll:00000000000000e4 .L0 
C:\Users\stapi\AppData\Local\Temp\ccHntkpc.s:944    .text.mbedtls_net_poll:00000000000000e4 .L0 
C:\Users\stapi\AppData\Local\Temp\ccHntkpc.s:945    .text.mbedtls_net_poll:00000000000000e4 .L0 
C:\Users\stapi\AppData\Local\Temp\ccHntkpc.s:946    .text.mbedtls_net_poll:00000000000000e4 .L0 
C:\Users\stapi\AppData\Local\Temp\ccHntkpc.s:953    .text.mbedtls_net_usleep:0000000000000000 mbedtls_net_usleep
C:\Users\stapi\AppData\Local\Temp\ccHntkpc.s:956    .text.mbedtls_net_usleep:0000000000000000 .L0 
C:\Users\stapi\AppData\Local\Temp\ccHntkpc.s:958    .text.mbedtls_net_usleep:0000000000000000 .L0 
C:\Users\stapi\AppData\Local\Temp\ccHntkpc.s:959    .text.mbedtls_net_usleep:0000000000000008 .L0 
C:\Users\stapi\AppData\Local\Temp\ccHntkpc.s:960    .text.mbedtls_net_usleep:0000000000000008 .L0 
C:\Users\stapi\AppData\Local\Temp\ccHntkpc.s:962    .text.mbedtls_net_usleep:0000000000000008 .L0 
C:\Users\stapi\AppData\Local\Temp\ccHntkpc.s:963    .text.mbedtls_net_usleep:0000000000000008 .L0 
C:\Users\stapi\AppData\Local\Temp\ccHntkpc.s:964    .text.mbedtls_net_usleep:0000000000000008 .L0 
C:\Users\stapi\AppData\Local\Temp\ccHntkpc.s:968    .text.mbedtls_net_usleep:0000000000000014 .L0 
C:\Users\stapi\AppData\Local\Temp\ccHntkpc.s:969    .text.mbedtls_net_usleep:0000000000000016 .L0 
C:\Users\stapi\AppData\Local\Temp\ccHntkpc.s:971    .text.mbedtls_net_usleep:0000000000000016 .L0 
C:\Users\stapi\AppData\Local\Temp\ccHntkpc.s:975    .text.mbedtls_net_usleep:000000000000001c .L0 
C:\Users\stapi\AppData\Local\Temp\ccHntkpc.s:978    .text.mbedtls_net_usleep:0000000000000020 .L0 
C:\Users\stapi\AppData\Local\Temp\ccHntkpc.s:980    .text.mbedtls_net_usleep:0000000000000022 .L0 
C:\Users\stapi\AppData\Local\Temp\ccHntkpc.s:981    .text.mbedtls_net_usleep:0000000000000022 .L0 
C:\Users\stapi\AppData\Local\Temp\ccHntkpc.s:983    .text.mbedtls_net_usleep:0000000000000024 .L0 
C:\Users\stapi\AppData\Local\Temp\ccHntkpc.s:985    .text.mbedtls_net_usleep:0000000000000026 .L0 
C:\Users\stapi\AppData\Local\Temp\ccHntkpc.s:989    .text.mbedtls_net_usleep:0000000000000030 .L0 
C:\Users\stapi\AppData\Local\Temp\ccHntkpc.s:990    .text.mbedtls_net_usleep:0000000000000032 .L0 
C:\Users\stapi\AppData\Local\Temp\ccHntkpc.s:992    .text.mbedtls_net_usleep:000000000000003a .L0 
C:\Users\stapi\AppData\Local\Temp\ccHntkpc.s:993    .text.mbedtls_net_usleep:000000000000003a .L0 
C:\Users\stapi\AppData\Local\Temp\ccHntkpc.s:994    .text.mbedtls_net_usleep:000000000000003a .L0 
C:\Users\stapi\AppData\Local\Temp\ccHntkpc.s:1001   .text.mbedtls_net_recv:0000000000000000 mbedtls_net_recv
C:\Users\stapi\AppData\Local\Temp\ccHntkpc.s:1004   .text.mbedtls_net_recv:0000000000000000 .L0 
C:\Users\stapi\AppData\Local\Temp\ccHntkpc.s:1006   .text.mbedtls_net_recv:0000000000000000 .L0 
C:\Users\stapi\AppData\Local\Temp\ccHntkpc.s:1007   .text.mbedtls_net_recv:0000000000000008 .L0 
C:\Users\stapi\AppData\Local\Temp\ccHntkpc.s:1008   .text.mbedtls_net_recv:0000000000000008 .L0 
C:\Users\stapi\AppData\Local\Temp\ccHntkpc.s:1009   .text.mbedtls_net_recv:0000000000000008 .L0 
C:\Users\stapi\AppData\Local\Temp\ccHntkpc.s:1011   .text.mbedtls_net_recv:0000000000000008 .L0 
C:\Users\stapi\AppData\Local\Temp\ccHntkpc.s:1013   .text.mbedtls_net_recv:000000000000000a .L0 
C:\Users\stapi\AppData\Local\Temp\ccHntkpc.s:1014   .text.mbedtls_net_recv:000000000000000a .L0 
C:\Users\stapi\AppData\Local\Temp\ccHntkpc.s:1015   .text.mbedtls_net_recv:000000000000000a .L0 
C:\Users\stapi\AppData\Local\Temp\ccHntkpc.s:1018   .text.mbedtls_net_recv:000000000000000c .L0 
C:\Users\stapi\AppData\Local\Temp\ccHntkpc.s:1019   .text.mbedtls_net_recv:000000000000000c .L0 
C:\Users\stapi\AppData\Local\Temp\ccHntkpc.s:1021   .text.mbedtls_net_recv:0000000000000010 .L0 
C:\Users\stapi\AppData\Local\Temp\ccHntkpc.s:1022   .text.mbedtls_net_recv:0000000000000010 .L0 
C:\Users\stapi\AppData\Local\Temp\ccHntkpc.s:1025   .text.mbedtls_net_recv:0000000000000018 .L0 
C:\Users\stapi\AppData\Local\Temp\ccHntkpc.s:1026   .text.mbedtls_net_recv:0000000000000018 .L0 
C:\Users\stapi\AppData\Local\Temp\ccHntkpc.s:1028   .text.mbedtls_net_recv:000000000000001c .L0 
C:\Users\stapi\AppData\Local\Temp\ccHntkpc.s:1029   .text.mbedtls_net_recv:000000000000001c .L0 
C:\Users\stapi\AppData\Local\Temp\ccHntkpc.s:1034   .text.mbedtls_net_recv:0000000000000026 .L0 
C:\Users\stapi\AppData\Local\Temp\ccHntkpc.s:1039   .text.mbedtls_net_recv:0000000000000028 .L0 
C:\Users\stapi\AppData\Local\Temp\ccHntkpc.s:1040   .text.mbedtls_net_recv:0000000000000028 .L0 
C:\Users\stapi\AppData\Local\Temp\ccHntkpc.s:1043   .text.mbedtls_net_recv:0000000000000030 .L0 
C:\Users\stapi\AppData\Local\Temp\ccHntkpc.s:1045   .text.mbedtls_net_recv:0000000000000034 .L0 
C:\Users\stapi\AppData\Local\Temp\ccHntkpc.s:1047   .text.mbedtls_net_recv:0000000000000038 .L0 
C:\Users\stapi\AppData\Local\Temp\ccHntkpc.s:1049   .text.mbedtls_net_recv:000000000000003c .L0 
C:\Users\stapi\AppData\Local\Temp\ccHntkpc.s:1052   .text.mbedtls_net_recv:0000000000000044 .L0 
C:\Users\stapi\AppData\Local\Temp\ccHntkpc.s:1053   .text.mbedtls_net_recv:0000000000000044 .L0 
C:\Users\stapi\AppData\Local\Temp\ccHntkpc.s:1055   .text.mbedtls_net_recv:0000000000000046 .L0 
C:\Users\stapi\AppData\Local\Temp\ccHntkpc.s:1057   .text.mbedtls_net_recv:000000000000004a .L0 
C:\Users\stapi\AppData\Local\Temp\ccHntkpc.s:1063   .text.mbedtls_net_recv:000000000000004e .L0 
C:\Users\stapi\AppData\Local\Temp\ccHntkpc.s:1069   .text.mbedtls_net_recv:0000000000000056 .L0 
C:\Users\stapi\AppData\Local\Temp\ccHntkpc.s:1073   .text.mbedtls_net_recv:000000000000005a .L0 
C:\Users\stapi\AppData\Local\Temp\ccHntkpc.s:1074   .text.mbedtls_net_recv:0000000000000062 .L0 
C:\Users\stapi\AppData\Local\Temp\ccHntkpc.s:1075   .text.mbedtls_net_recv:0000000000000062 .L0 
C:\Users\stapi\AppData\Local\Temp\ccHntkpc.s:1076   .text.mbedtls_net_recv:0000000000000062 .L0 
C:\Users\stapi\AppData\Local\Temp\ccHntkpc.s:1077   .text.mbedtls_net_recv:0000000000000062 .L0 
C:\Users\stapi\AppData\Local\Temp\ccHntkpc.s:1084   .text.mbedtls_net_recv_timeout:0000000000000000 mbedtls_net_recv_timeout
C:\Users\stapi\AppData\Local\Temp\ccHntkpc.s:1087   .text.mbedtls_net_recv_timeout:0000000000000000 .L0 
C:\Users\stapi\AppData\Local\Temp\ccHntkpc.s:1089   .text.mbedtls_net_recv_timeout:0000000000000000 .L0 
C:\Users\stapi\AppData\Local\Temp\ccHntkpc.s:1090   .text.mbedtls_net_recv_timeout:0000000000000000 .L0 
C:\Users\stapi\AppData\Local\Temp\ccHntkpc.s:1091   .text.mbedtls_net_recv_timeout:0000000000000000 .L0 
C:\Users\stapi\AppData\Local\Temp\ccHntkpc.s:1092   .text.mbedtls_net_recv_timeout:0000000000000000 .L0 
C:\Users\stapi\AppData\Local\Temp\ccHntkpc.s:1093   .text.mbedtls_net_recv_timeout:0000000000000000 .L0 
C:\Users\stapi\AppData\Local\Temp\ccHntkpc.s:1094   .text.mbedtls_net_recv_timeout:0000000000000000 .L0 
C:\Users\stapi\AppData\Local\Temp\ccHntkpc.s:1097   .text.mbedtls_net_recv_timeout:0000000000000002 .L0 
C:\Users\stapi\AppData\Local\Temp\ccHntkpc.s:1098   .text.mbedtls_net_recv_timeout:0000000000000002 .L0 
C:\Users\stapi\AppData\Local\Temp\ccHntkpc.s:1100   .text.mbedtls_net_recv_timeout:0000000000000006 .L0 
C:\Users\stapi\AppData\Local\Temp\ccHntkpc.s:1101   .text.mbedtls_net_recv_timeout:000000000000000e .L0 
C:\Users\stapi\AppData\Local\Temp\ccHntkpc.s:1102   .text.mbedtls_net_recv_timeout:000000000000000e .L0 
C:\Users\stapi\AppData\Local\Temp\ccHntkpc.s:1103   .text.mbedtls_net_recv_timeout:000000000000000e .L0 
C:\Users\stapi\AppData\Local\Temp\ccHntkpc.s:1104   .text.mbedtls_net_recv_timeout:000000000000000e .L0 
C:\Users\stapi\AppData\Local\Temp\ccHntkpc.s:1105   .text.mbedtls_net_recv_timeout:000000000000000e .L0 
C:\Users\stapi\AppData\Local\Temp\ccHntkpc.s:1107   .text.mbedtls_net_recv_timeout:0000000000000010 .L0 
C:\Users\stapi\AppData\Local\Temp\ccHntkpc.s:1109   .text.mbedtls_net_recv_timeout:0000000000000010 .L0 
C:\Users\stapi\AppData\Local\Temp\ccHntkpc.s:1111   .text.mbedtls_net_recv_timeout:0000000000000014 .L0 
C:\Users\stapi\AppData\Local\Temp\ccHntkpc.s:1116   .text.mbedtls_net_recv_timeout:000000000000001c .L0 
C:\Users\stapi\AppData\Local\Temp\ccHntkpc.s:1117   .text.mbedtls_net_recv_timeout:000000000000001c .L0 
C:\Users\stapi\AppData\Local\Temp\ccHntkpc.s:1118   .text.mbedtls_net_recv_timeout:000000000000001c .L0 
C:\Users\stapi\AppData\Local\Temp\ccHntkpc.s:1120   .text.mbedtls_net_recv_timeout:0000000000000020 .L0 
C:\Users\stapi\AppData\Local\Temp\ccHntkpc.s:1129   .text.mbedtls_net_recv_timeout:0000000000000034 .L0 
C:\Users\stapi\AppData\Local\Temp\ccHntkpc.s:1130   .text.mbedtls_net_recv_timeout:0000000000000034 .L0 
C:\Users\stapi\AppData\Local\Temp\ccHntkpc.s:1131   .text.mbedtls_net_recv_timeout:0000000000000034 .L0 
C:\Users\stapi\AppData\Local\Temp\ccHntkpc.s:1134   .text.mbedtls_net_recv_timeout:000000000000003c .L0 
C:\Users\stapi\AppData\Local\Temp\ccHntkpc.s:1137   .text.mbedtls_net_recv_timeout:0000000000000040 .L0 
C:\Users\stapi\AppData\Local\Temp\ccHntkpc.s:1139   .text.mbedtls_net_recv_timeout:0000000000000042 .L0 
C:\Users\stapi\AppData\Local\Temp\ccHntkpc.s:1140   .text.mbedtls_net_recv_timeout:0000000000000042 .L0 
C:\Users\stapi\AppData\Local\Temp\ccHntkpc.s:1142   .text.mbedtls_net_recv_timeout:0000000000000046 .L0 
C:\Users\stapi\AppData\Local\Temp\ccHntkpc.s:1144   .text.mbedtls_net_recv_timeout:000000000000004a .L0 
C:\Users\stapi\AppData\Local\Temp\ccHntkpc.s:1146   .text.mbedtls_net_recv_timeout:000000000000004c .L0 
C:\Users\stapi\AppData\Local\Temp\ccHntkpc.s:1147   .text.mbedtls_net_recv_timeout:000000000000004c .L0 
C:\Users\stapi\AppData\Local\Temp\ccHntkpc.s:1150   .text.mbedtls_net_recv_timeout:0000000000000050 .L0 
C:\Users\stapi\AppData\Local\Temp\ccHntkpc.s:1153   .text.mbedtls_net_recv_timeout:0000000000000052 .L0 
C:\Users\stapi\AppData\Local\Temp\ccHntkpc.s:1161   .text.mbedtls_net_recv_timeout:0000000000000060 .L0 
C:\Users\stapi\AppData\Local\Temp\ccHntkpc.s:1162   .text.mbedtls_net_recv_timeout:0000000000000060 .L0 
C:\Users\stapi\AppData\Local\Temp\ccHntkpc.s:1164   .text.mbedtls_net_recv_timeout:0000000000000062 .L0 
C:\Users\stapi\AppData\Local\Temp\ccHntkpc.s:1165   .text.mbedtls_net_recv_timeout:0000000000000062 .L0 
C:\Users\stapi\AppData\Local\Temp\ccHntkpc.s:1167   .text.mbedtls_net_recv_timeout:0000000000000066 .L0 
C:\Users\stapi\AppData\Local\Temp\ccHntkpc.s:1168   .text.mbedtls_net_recv_timeout:0000000000000066 .L0 
C:\Users\stapi\AppData\Local\Temp\ccHntkpc.s:1170   .text.mbedtls_net_recv_timeout:000000000000006a .L0 
C:\Users\stapi\AppData\Local\Temp\ccHntkpc.s:1173   .text.mbedtls_net_recv_timeout:0000000000000070 .L0 
C:\Users\stapi\AppData\Local\Temp\ccHntkpc.s:1176   .text.mbedtls_net_recv_timeout:0000000000000074 .L0 
C:\Users\stapi\AppData\Local\Temp\ccHntkpc.s:1178   .text.mbedtls_net_recv_timeout:0000000000000078 .L0 
C:\Users\stapi\AppData\Local\Temp\ccHntkpc.s:1184   .text.mbedtls_net_recv_timeout:0000000000000080 .L0 
C:\Users\stapi\AppData\Local\Temp\ccHntkpc.s:1185   .text.mbedtls_net_recv_timeout:0000000000000080 .L0 
C:\Users\stapi\AppData\Local\Temp\ccHntkpc.s:1193   .text.mbedtls_net_recv_timeout:000000000000008e .L0 
C:\Users\stapi\AppData\Local\Temp\ccHntkpc.s:1194   .text.mbedtls_net_recv_timeout:0000000000000090 .L0 
C:\Users\stapi\AppData\Local\Temp\ccHntkpc.s:1196   .text.mbedtls_net_recv_timeout:0000000000000098 .L0 
C:\Users\stapi\AppData\Local\Temp\ccHntkpc.s:1197   .text.mbedtls_net_recv_timeout:0000000000000098 .L0 
C:\Users\stapi\AppData\Local\Temp\ccHntkpc.s:1198   .text.mbedtls_net_recv_timeout:0000000000000098 .L0 
C:\Users\stapi\AppData\Local\Temp\ccHntkpc.s:1199   .text.mbedtls_net_recv_timeout:0000000000000098 .L0 
C:\Users\stapi\AppData\Local\Temp\ccHntkpc.s:1200   .text.mbedtls_net_recv_timeout:0000000000000098 .L0 
C:\Users\stapi\AppData\Local\Temp\ccHntkpc.s:1203   .text.mbedtls_net_recv_timeout:0000000000000098 .L0 
C:\Users\stapi\AppData\Local\Temp\ccHntkpc.s:1205   .text.mbedtls_net_recv_timeout:0000000000000098 .L0 
C:\Users\stapi\AppData\Local\Temp\ccHntkpc.s:1208   .text.mbedtls_net_recv_timeout:000000000000009c .L0 
C:\Users\stapi\AppData\Local\Temp\ccHntkpc.s:1211   .text.mbedtls_net_recv_timeout:000000000000009e .L0 
C:\Users\stapi\AppData\Local\Temp\ccHntkpc.s:1212   .text.mbedtls_net_recv_timeout:000000000000009e .L0 
C:\Users\stapi\AppData\Local\Temp\ccHntkpc.s:1213   .text.mbedtls_net_recv_timeout:000000000000009e .L0 
C:\Users\stapi\AppData\Local\Temp\ccHntkpc.s:1214   .text.mbedtls_net_recv_timeout:000000000000009e .L0 
C:\Users\stapi\AppData\Local\Temp\ccHntkpc.s:1215   .text.mbedtls_net_recv_timeout:000000000000009e .L0 
C:\Users\stapi\AppData\Local\Temp\ccHntkpc.s:1217   .text.mbedtls_net_recv_timeout:000000000000009e .L0 
C:\Users\stapi\AppData\Local\Temp\ccHntkpc.s:1221   .text.mbedtls_net_recv_timeout:00000000000000a6 .L0 
C:\Users\stapi\AppData\Local\Temp\ccHntkpc.s:1228   .text.mbedtls_net_send:0000000000000000 mbedtls_net_send
C:\Users\stapi\AppData\Local\Temp\ccHntkpc.s:1231   .text.mbedtls_net_send:0000000000000000 .L0 
C:\Users\stapi\AppData\Local\Temp\ccHntkpc.s:1233   .text.mbedtls_net_send:0000000000000000 .L0 
C:\Users\stapi\AppData\Local\Temp\ccHntkpc.s:1234   .text.mbedtls_net_send:0000000000000008 .L0 
C:\Users\stapi\AppData\Local\Temp\ccHntkpc.s:1235   .text.mbedtls_net_send:0000000000000008 .L0 
C:\Users\stapi\AppData\Local\Temp\ccHntkpc.s:1236   .text.mbedtls_net_send:0000000000000008 .L0 
C:\Users\stapi\AppData\Local\Temp\ccHntkpc.s:1238   .text.mbedtls_net_send:0000000000000008 .L0 
C:\Users\stapi\AppData\Local\Temp\ccHntkpc.s:1239   .text.mbedtls_net_send:0000000000000008 .L0 
C:\Users\stapi\AppData\Local\Temp\ccHntkpc.s:1240   .text.mbedtls_net_send:0000000000000008 .L0 
C:\Users\stapi\AppData\Local\Temp\ccHntkpc.s:1242   .text.mbedtls_net_send:000000000000000a .L0 
C:\Users\stapi\AppData\Local\Temp\ccHntkpc.s:1245   .text.mbedtls_net_send:000000000000000c .L0 
C:\Users\stapi\AppData\Local\Temp\ccHntkpc.s:1246   .text.mbedtls_net_send:000000000000000c .L0 
C:\Users\stapi\AppData\Local\Temp\ccHntkpc.s:1248   .text.mbedtls_net_send:0000000000000010 .L0 
C:\Users\stapi\AppData\Local\Temp\ccHntkpc.s:1249   .text.mbedtls_net_send:0000000000000010 .L0 
C:\Users\stapi\AppData\Local\Temp\ccHntkpc.s:1252   .text.mbedtls_net_send:0000000000000018 .L0 
C:\Users\stapi\AppData\Local\Temp\ccHntkpc.s:1253   .text.mbedtls_net_send:0000000000000018 .L0 
C:\Users\stapi\AppData\Local\Temp\ccHntkpc.s:1255   .text.mbedtls_net_send:000000000000001c .L0 
C:\Users\stapi\AppData\Local\Temp\ccHntkpc.s:1256   .text.mbedtls_net_send:000000000000001c .L0 
C:\Users\stapi\AppData\Local\Temp\ccHntkpc.s:1261   .text.mbedtls_net_send:0000000000000026 .L0 
C:\Users\stapi\AppData\Local\Temp\ccHntkpc.s:1263   .text.mbedtls_net_send:0000000000000028 .L0 
C:\Users\stapi\AppData\Local\Temp\ccHntkpc.s:1264   .text.mbedtls_net_send:0000000000000028 .L0 
C:\Users\stapi\AppData\Local\Temp\ccHntkpc.s:1267   .text.mbedtls_net_send:0000000000000030 .L0 
C:\Users\stapi\AppData\Local\Temp\ccHntkpc.s:1269   .text.mbedtls_net_send:0000000000000034 .L0 
C:\Users\stapi\AppData\Local\Temp\ccHntkpc.s:1271   .text.mbedtls_net_send:0000000000000038 .L0 
C:\Users\stapi\AppData\Local\Temp\ccHntkpc.s:1273   .text.mbedtls_net_send:000000000000003c .L0 
C:\Users\stapi\AppData\Local\Temp\ccHntkpc.s:1276   .text.mbedtls_net_send:0000000000000044 .L0 
C:\Users\stapi\AppData\Local\Temp\ccHntkpc.s:1277   .text.mbedtls_net_send:0000000000000044 .L0 
C:\Users\stapi\AppData\Local\Temp\ccHntkpc.s:1279   .text.mbedtls_net_send:0000000000000046 .L0 
C:\Users\stapi\AppData\Local\Temp\ccHntkpc.s:1281   .text.mbedtls_net_send:000000000000004a .L0 
C:\Users\stapi\AppData\Local\Temp\ccHntkpc.s:1284   .text.mbedtls_net_send:000000000000004e .L0 
C:\Users\stapi\AppData\Local\Temp\ccHntkpc.s:1290   .text.mbedtls_net_send:0000000000000056 .L0 
C:\Users\stapi\AppData\Local\Temp\ccHntkpc.s:1294   .text.mbedtls_net_send:000000000000005a .L0 
C:\Users\stapi\AppData\Local\Temp\ccHntkpc.s:1295   .text.mbedtls_net_send:0000000000000062 .L0 
C:\Users\stapi\AppData\Local\Temp\ccHntkpc.s:1296   .text.mbedtls_net_send:0000000000000062 .L0 
C:\Users\stapi\AppData\Local\Temp\ccHntkpc.s:1297   .text.mbedtls_net_send:0000000000000062 .L0 
C:\Users\stapi\AppData\Local\Temp\ccHntkpc.s:1298   .text.mbedtls_net_send:0000000000000062 .L0 
C:\Users\stapi\AppData\Local\Temp\ccHntkpc.s:1305   .text.mbedtls_net_free:0000000000000000 mbedtls_net_free
C:\Users\stapi\AppData\Local\Temp\ccHntkpc.s:1308   .text.mbedtls_net_free:0000000000000000 .L0 
C:\Users\stapi\AppData\Local\Temp\ccHntkpc.s:1310   .text.mbedtls_net_free:0000000000000000 .L0 
C:\Users\stapi\AppData\Local\Temp\ccHntkpc.s:1311   .text.mbedtls_net_free:0000000000000008 .L0 
C:\Users\stapi\AppData\Local\Temp\ccHntkpc.s:1312   .text.mbedtls_net_free:0000000000000008 .L0 
C:\Users\stapi\AppData\Local\Temp\ccHntkpc.s:1313   .text.mbedtls_net_free:0000000000000008 .L0 
C:\Users\stapi\AppData\Local\Temp\ccHntkpc.s:1314   .text.mbedtls_net_free:0000000000000008 .L0 
C:\Users\stapi\AppData\Local\Temp\ccHntkpc.s:1316   .text.mbedtls_net_free:0000000000000008 .L0 
C:\Users\stapi\AppData\Local\Temp\ccHntkpc.s:1317   .text.mbedtls_net_free:0000000000000008 .L0 
C:\Users\stapi\AppData\Local\Temp\ccHntkpc.s:1319   .text.mbedtls_net_free:000000000000000a .L0 
C:\Users\stapi\AppData\Local\Temp\ccHntkpc.s:1322   .text.mbedtls_net_free:000000000000000c .L0 
C:\Users\stapi\AppData\Local\Temp\ccHntkpc.s:1325   .text.mbedtls_net_free:0000000000000012 .L0 
C:\Users\stapi\AppData\Local\Temp\ccHntkpc.s:1329   .text.mbedtls_net_free:000000000000001c .L0 
C:\Users\stapi\AppData\Local\Temp\ccHntkpc.s:1333   .text.mbedtls_net_free:0000000000000026 .L0 
C:\Users\stapi\AppData\Local\Temp\ccHntkpc.s:1334   .text.mbedtls_net_free:0000000000000026 .L0 
C:\Users\stapi\AppData\Local\Temp\ccHntkpc.s:1337   .text.mbedtls_net_free:0000000000000028 .L0 
C:\Users\stapi\AppData\Local\Temp\ccHntkpc.s:1338   .text.mbedtls_net_free:0000000000000030 .L0 
C:\Users\stapi\AppData\Local\Temp\ccHntkpc.s:1339   .text.mbedtls_net_free:0000000000000030 .L0 
C:\Users\stapi\AppData\Local\Temp\ccHntkpc.s:1340   .text.mbedtls_net_free:0000000000000030 .L0 
C:\Users\stapi\AppData\Local\Temp\ccHntkpc.s:1341   .text.mbedtls_net_free:0000000000000030 .L0 
C:\Users\stapi\AppData\Local\Temp\ccHntkpc.s:1342   .text.mbedtls_net_free:0000000000000030 .L0 
C:\Users\stapi\AppData\Local\Temp\ccHntkpc.s:57     .text.net_would_block.isra.0:0000000000000036 .L0 
C:\Users\stapi\AppData\Local\Temp\ccHntkpc.s:75     .text.mbedtls_net_init:0000000000000006 .L0 
C:\Users\stapi\AppData\Local\Temp\ccHntkpc.s:227    .text.mbedtls_net_connect:00000000000000aa .L0 
C:\Users\stapi\AppData\Local\Temp\ccHntkpc.s:436    .text.mbedtls_net_bind:00000000000000f8 .L0 
C:\Users\stapi\AppData\Local\Temp\ccHntkpc.s:698    .text.mbedtls_net_accept:000000000000014c .L0 
C:\Users\stapi\AppData\Local\Temp\ccHntkpc.s:733    .text.mbedtls_net_set_block:0000000000000030 .L0 
C:\Users\stapi\AppData\Local\Temp\ccHntkpc.s:768    .text.mbedtls_net_set_nonblock:0000000000000030 .L0 
C:\Users\stapi\AppData\Local\Temp\ccHntkpc.s:949    .text.mbedtls_net_poll:00000000000000e4 .L0 
C:\Users\stapi\AppData\Local\Temp\ccHntkpc.s:997    .text.mbedtls_net_usleep:000000000000003a .L0 
C:\Users\stapi\AppData\Local\Temp\ccHntkpc.s:1080   .text.mbedtls_net_recv:0000000000000062 .L0 
C:\Users\stapi\AppData\Local\Temp\ccHntkpc.s:1224   .text.mbedtls_net_recv_timeout:00000000000000a6 .L0 
C:\Users\stapi\AppData\Local\Temp\ccHntkpc.s:1301   .text.mbedtls_net_send:0000000000000062 .L0 
C:\Users\stapi\AppData\Local\Temp\ccHntkpc.s:1345   .text.mbedtls_net_free:0000000000000030 .L0 
                     .debug_frame:0000000000000000 .L0 
C:\Users\stapi\AppData\Local\Temp\ccHntkpc.s:48     .text.net_would_block.isra.0:000000000000002c .L2
C:\Users\stapi\AppData\Local\Temp\ccHntkpc.s:40     .text.net_would_block.isra.0:0000000000000024 .L1
C:\Users\stapi\AppData\Local\Temp\ccHntkpc.s:123    .text.mbedtls_net_connect:000000000000002c .L7
C:\Users\stapi\AppData\Local\Temp\ccHntkpc.s:133    .text.mbedtls_net_connect:0000000000000038 .L8
C:\Users\stapi\AppData\Local\Temp\ccHntkpc.s:167    .text.mbedtls_net_connect:000000000000005e .L6
C:\Users\stapi\AppData\Local\Temp\ccHntkpc.s:181    .text.mbedtls_net_connect:000000000000006a .L13
C:\Users\stapi\AppData\Local\Temp\ccHntkpc.s:219    .text.mbedtls_net_connect:00000000000000a4 .L17
C:\Users\stapi\AppData\Local\Temp\ccHntkpc.s:161    .text.mbedtls_net_connect:0000000000000054 .L12
C:\Users\stapi\AppData\Local\Temp\ccHntkpc.s:156    .text.mbedtls_net_connect:0000000000000052 .L10
C:\Users\stapi\AppData\Local\Temp\ccHntkpc.s:213    .text.mbedtls_net_connect:00000000000000a0 .L11
C:\Users\stapi\AppData\Local\Temp\ccHntkpc.s:277    .text.mbedtls_net_bind:000000000000002c .L24
C:\Users\stapi\AppData\Local\Temp\ccHntkpc.s:287    .text.mbedtls_net_bind:0000000000000038 .L25
C:\Users\stapi\AppData\Local\Temp\ccHntkpc.s:328    .text.mbedtls_net_bind:0000000000000064 .L23
C:\Users\stapi\AppData\Local\Temp\ccHntkpc.s:344    .text.mbedtls_net_bind:0000000000000070 .L34
C:\Users\stapi\AppData\Local\Temp\ccHntkpc.s:379    .text.mbedtls_net_bind:00000000000000a8 .L38
C:\Users\stapi\AppData\Local\Temp\ccHntkpc.s:384    .text.mbedtls_net_bind:00000000000000ae .L29
C:\Users\stapi\AppData\Local\Temp\ccHntkpc.s:404    .text.mbedtls_net_bind:00000000000000ce .L28
C:\Users\stapi\AppData\Local\Temp\ccHntkpc.s:411    .text.mbedtls_net_bind:00000000000000d2 .L30
C:\Users\stapi\AppData\Local\Temp\ccHntkpc.s:317    .text.mbedtls_net_bind:0000000000000058 .L27
C:\Users\stapi\AppData\Local\Temp\ccHntkpc.s:322    .text.mbedtls_net_bind:000000000000005a .L32
C:\Users\stapi\AppData\Local\Temp\ccHntkpc.s:504    .text.mbedtls_net_accept:000000000000003c .L45
C:\Users\stapi\AppData\Local\Temp\ccHntkpc.s:611    .text.mbedtls_net_accept:00000000000000d0 .L44
C:\Users\stapi\AppData\Local\Temp\ccHntkpc.s:499    .text.mbedtls_net_accept:0000000000000036 .L56
C:\Users\stapi\AppData\Local\Temp\ccHntkpc.s:545    .text.mbedtls_net_accept:0000000000000078 .L48
C:\Users\stapi\AppData\Local\Temp\ccHntkpc.s:561    .text.mbedtls_net_accept:0000000000000090 .L50
C:\Users\stapi\AppData\Local\Temp\ccHntkpc.s:529    .text.mbedtls_net_accept:0000000000000060 .L49
C:\Users\stapi\AppData\Local\Temp\ccHntkpc.s:662    .text.mbedtls_net_accept:000000000000011c .L51
C:\Users\stapi\AppData\Local\Temp\ccHntkpc.s:627    .text.mbedtls_net_accept:00000000000000dc .L53
C:\Users\stapi\AppData\Local\Temp\ccHntkpc.s:608    .text.mbedtls_net_accept:00000000000000cc .L54
C:\Users\stapi\AppData\Local\Temp\ccHntkpc.s:690    .text.mbedtls_net_accept:0000000000000146 .L58
C:\Users\stapi\AppData\Local\Temp\ccHntkpc.s:935    .text.mbedtls_net_poll:00000000000000da .L67
C:\Users\stapi\AppData\Local\Temp\ccHntkpc.s:824    .text.mbedtls_net_poll:000000000000003a .L69
C:\Users\stapi\AppData\Local\Temp\ccHntkpc.s:850    .text.mbedtls_net_poll:0000000000000064 .L70
C:\Users\stapi\AppData\Local\Temp\ccHntkpc.s:874    .text.mbedtls_net_poll:0000000000000088 .L72
C:\Users\stapi\AppData\Local\Temp\ccHntkpc.s:880    .text.mbedtls_net_poll:000000000000008e .L73
C:\Users\stapi\AppData\Local\Temp\ccHntkpc.s:1067   .text.mbedtls_net_recv:0000000000000056 .L93
C:\Users\stapi\AppData\Local\Temp\ccHntkpc.s:1071   .text.mbedtls_net_recv:000000000000005a .L91
C:\Users\stapi\AppData\Local\Temp\ccHntkpc.s:1059   .text.mbedtls_net_recv:000000000000004e .L97
C:\Users\stapi\AppData\Local\Temp\ccHntkpc.s:1202   .text.mbedtls_net_recv_timeout:0000000000000098 .L104
C:\Users\stapi\AppData\Local\Temp\ccHntkpc.s:1127   .text.mbedtls_net_recv_timeout:0000000000000034 .L101
C:\Users\stapi\AppData\Local\Temp\ccHntkpc.s:1151   .text.mbedtls_net_recv_timeout:0000000000000052 .L102
C:\Users\stapi\AppData\Local\Temp\ccHntkpc.s:1210   .text.mbedtls_net_recv_timeout:000000000000009e .L106
C:\Users\stapi\AppData\Local\Temp\ccHntkpc.s:1182   .text.mbedtls_net_recv_timeout:0000000000000080 .L103
C:\Users\stapi\AppData\Local\Temp\ccHntkpc.s:1191   .text.mbedtls_net_recv_timeout:000000000000008e .L99
C:\Users\stapi\AppData\Local\Temp\ccHntkpc.s:1288   .text.mbedtls_net_send:0000000000000056 .L114
C:\Users\stapi\AppData\Local\Temp\ccHntkpc.s:1292   .text.mbedtls_net_send:000000000000005a .L112
C:\Users\stapi\AppData\Local\Temp\ccHntkpc.s:1282   .text.mbedtls_net_send:000000000000004e .L118
C:\Users\stapi\AppData\Local\Temp\ccHntkpc.s:1335   .text.mbedtls_net_free:0000000000000028 .L120
C:\Users\stapi\AppData\Local\Temp\ccHntkpc.s:3275   .debug_abbrev:0000000000000000 .Ldebug_abbrev0
C:\Users\stapi\AppData\Local\Temp\ccHntkpc.s:4941   .debug_str:00000000000001c1 .LASF107
C:\Users\stapi\AppData\Local\Temp\ccHntkpc.s:5085   .debug_str:000000000000064f .LASF108
C:\Users\stapi\AppData\Local\Temp\ccHntkpc.s:5073   .debug_str:0000000000000595 .LASF109
C:\Users\stapi\AppData\Local\Temp\ccHntkpc.s:4823   .debug_ranges:0000000000000000 .Ldebug_ranges0
C:\Users\stapi\AppData\Local\Temp\ccHntkpc.s:4861   .debug_line:0000000000000000 .Ldebug_line0
C:\Users\stapi\AppData\Local\Temp\ccHntkpc.s:4873   .debug_str:000000000000003a .LASF2
C:\Users\stapi\AppData\Local\Temp\ccHntkpc.s:4935   .debug_str:000000000000019d .LASF0
C:\Users\stapi\AppData\Local\Temp\ccHntkpc.s:4903   .debug_str:0000000000000107 .LASF1
C:\Users\stapi\AppData\Local\Temp\ccHntkpc.s:4879   .debug_str:000000000000005a .LASF3
C:\Users\stapi\AppData\Local\Temp\ccHntkpc.s:5007   .debug_str:0000000000000413 .LASF4
C:\Users\stapi\AppData\Local\Temp\ccHntkpc.s:5011   .debug_str:0000000000000429 .LASF5
C:\Users\stapi\AppData\Local\Temp\ccHntkpc.s:5037   .debug_str:00000000000004c6 .LASF6
C:\Users\stapi\AppData\Local\Temp\ccHntkpc.s:4955   .debug_str:0000000000000307 .LASF7
C:\Users\stapi\AppData\Local\Temp\ccHntkpc.s:4909   .debug_str:0000000000000126 .LASF8
C:\Users\stapi\AppData\Local\Temp\ccHntkpc.s:4921   .debug_str:0000000000000162 .LASF9
C:\Users\stapi\AppData\Local\Temp\ccHntkpc.s:4945   .debug_str:00000000000002c6 .LASF10
C:\Users\stapi\AppData\Local\Temp\ccHntkpc.s:4913   .debug_str:0000000000000136 .LASF11
C:\Users\stapi\AppData\Local\Temp\ccHntkpc.s:4889   .debug_str:0000000000000098 .LASF12
C:\Users\stapi\AppData\Local\Temp\ccHntkpc.s:5069   .debug_str:000000000000057c .LASF13
C:\Users\stapi\AppData\Local\Temp\ccHntkpc.s:4915   .debug_str:0000000000000144 .LASF14
C:\Users\stapi\AppData\Local\Temp\ccHntkpc.s:5025   .debug_str:0000000000000481 .LASF15
C:\Users\stapi\AppData\Local\Temp\ccHntkpc.s:5031   .debug_str:00000000000004a6 .LASF16
C:\Users\stapi\AppData\Local\Temp\ccHntkpc.s:4899   .debug_str:00000000000000e7 .LASF17
C:\Users\stapi\AppData\Local\Temp\ccHntkpc.s:5013   .debug_str:0000000000000433 .LASF18
C:\Users\stapi\AppData\Local\Temp\ccHntkpc.s:5043   .debug_str:00000000000004e2 .LASF19
C:\Users\stapi\AppData\Local\Temp\ccHntkpc.s:5033   .debug_str:00000000000004ab .LASF20
C:\Users\stapi\AppData\Local\Temp\ccHntkpc.s:4863   .debug_str:0000000000000000 .LASF21
C:\Users\stapi\AppData\Local\Temp\ccHntkpc.s:4979   .debug_str:0000000000000380 .LASF22
C:\Users\stapi\AppData\Local\Temp\ccHntkpc.s:4907   .debug_str:0000000000000120 .LASF23
C:\Users\stapi\AppData\Local\Temp\ccHntkpc.s:4949   .debug_str:00000000000002f1 .LASF24
C:\Users\stapi\AppData\Local\Temp\ccHntkpc.s:4891   .debug_str:00000000000000af .LASF25
C:\Users\stapi\AppData\Local\Temp\ccHntkpc.s:5089   .debug_str:00000000000006f0 .LASF26
C:\Users\stapi\AppData\Local\Temp\ccHntkpc.s:4937   .debug_str:00000000000001aa .LASF27
C:\Users\stapi\AppData\Local\Temp\ccHntkpc.s:4971   .debug_str:000000000000035c .LASF110
C:\Users\stapi\AppData\Local\Temp\ccHntkpc.s:5055   .debug_str:0000000000000534 .LASF28
C:\Users\stapi\AppData\Local\Temp\ccHntkpc.s:4969   .debug_str:0000000000000352 .LASF29
C:\Users\stapi\AppData\Local\Temp\ccHntkpc.s:5067   .debug_str:0000000000000570 .LASF30
C:\Users\stapi\AppData\Local\Temp\ccHntkpc.s:4993   .debug_str:00000000000003c6 .LASF31
C:\Users\stapi\AppData\Local\Temp\ccHntkpc.s:4977   .debug_str:0000000000000375 .LASF32
C:\Users\stapi\AppData\Local\Temp\ccHntkpc.s:5001   .debug_str:00000000000003e7 .LASF33
C:\Users\stapi\AppData\Local\Temp\ccHntkpc.s:4957   .debug_str:000000000000031a .LASF34
C:\Users\stapi\AppData\Local\Temp\ccHntkpc.s:4923   .debug_str:000000000000016d .LASF35
C:\Users\stapi\AppData\Local\Temp\ccHntkpc.s:5065   .debug_str:0000000000000567 .LASF36
C:\Users\stapi\AppData\Local\Temp\ccHntkpc.s:4975   .debug_str:000000000000036e .LASF37
C:\Users\stapi\AppData\Local\Temp\ccHntkpc.s:5003   .debug_str:00000000000003f0 .LASF38
C:\Users\stapi\AppData\Local\Temp\ccHntkpc.s:5075   .debug_str:0000000000000613 .LASF39
C:\Users\stapi\AppData\Local\Temp\ccHntkpc.s:4895   .debug_str:00000000000000ca .LASF40
C:\Users\stapi\AppData\Local\Temp\ccHntkpc.s:4933   .debug_str:0000000000000196 .LASF41
C:\Users\stapi\AppData\Local\Temp\ccHntkpc.s:4961   .debug_str:0000000000000328 .LASF42
C:\Users\stapi\AppData\Local\Temp\ccHntkpc.s:4953   .debug_str:00000000000002ff .LASF43
C:\Users\stapi\AppData\Local\Temp\ccHntkpc.s:4985   .debug_str:0000000000000398 .LASF44
C:\Users\stapi\AppData\Local\Temp\ccHntkpc.s:5023   .debug_str:0000000000000479 .LASF45
C:\Users\stapi\AppData\Local\Temp\ccHntkpc.s:4885   .debug_str:000000000000007e .LASF46
C:\Users\stapi\AppData\Local\Temp\ccHntkpc.s:4869   .debug_str:0000000000000026 .LASF47
C:\Users\stapi\AppData\Local\Temp\ccHntkpc.s:5041   .debug_str:00000000000004d8 .LASF48
C:\Users\stapi\AppData\Local\Temp\ccHntkpc.s:4943   .debug_str:00000000000002ba .LASF49
C:\Users\stapi\AppData\Local\Temp\ccHntkpc.s:4989   .debug_str:00000000000003b0 .LASF50
C:\Users\stapi\AppData\Local\Temp\ccHntkpc.s:4997   .debug_str:00000000000003d3 .LASF51
C:\Users\stapi\AppData\Local\Temp\ccHntkpc.s:5009   .debug_str:0000000000000421 .LASF52
C:\Users\stapi\AppData\Local\Temp\ccHntkpc.s:5077   .debug_str:000000000000061b .LASF53
C:\Users\stapi\AppData\Local\Temp\ccHntkpc.s:5017   .debug_str:0000000000000459 .LASF54
C:\Users\stapi\AppData\Local\Temp\ccHntkpc.s:5035   .debug_str:00000000000004b5 .LASF59
C:\Users\stapi\AppData\Local\Temp\ccHntkpc.s:1306   .text.mbedtls_net_free:0000000000000000 .LFB396
C:\Users\stapi\AppData\Local\Temp\ccHntkpc.s:1343   .text.mbedtls_net_free:0000000000000030 .LFE396
C:\Users\stapi\AppData\Local\Temp\ccHntkpc.s:4095   .debug_loc:0000000000000000 .LLST45
C:\Users\stapi\AppData\Local\Temp\ccHntkpc.s:1327   .text.mbedtls_net_free:000000000000001c .LVL125
C:\Users\stapi\AppData\Local\Temp\ccHntkpc.s:1331   .text.mbedtls_net_free:0000000000000026 .LVL126
C:\Users\stapi\AppData\Local\Temp\ccHntkpc.s:5047   .debug_str:00000000000004fc .LASF55
C:\Users\stapi\AppData\Local\Temp\ccHntkpc.s:1229   .text.mbedtls_net_send:0000000000000000 .LFB395
C:\Users\stapi\AppData\Local\Temp\ccHntkpc.s:1299   .text.mbedtls_net_send:0000000000000062 .LFE395
C:\Users\stapi\AppData\Local\Temp\ccHntkpc.s:4106   .debug_loc:000000000000001e .LLST40
C:\Users\stapi\AppData\Local\Temp\ccHntkpc.s:4117   .debug_loc:000000000000003c .LLST41
C:\Users\stapi\AppData\Local\Temp\ccHntkpc.s:4142   .debug_loc:0000000000000076 .LLST42
C:\Users\stapi\AppData\Local\Temp\ccHntkpc.s:4167   .debug_loc:00000000000000b0 .LLST43
C:\Users\stapi\AppData\Local\Temp\ccHntkpc.s:4174   .debug_loc:00000000000000c3 .LLST44
C:\Users\stapi\AppData\Local\Temp\ccHntkpc.s:1250   .text.mbedtls_net_send:0000000000000018 .LVL118
C:\Users\stapi\AppData\Local\Temp\ccHntkpc.s:1259   .text.mbedtls_net_send:0000000000000026 .LVL120
C:\Users\stapi\AppData\Local\Temp\ccHntkpc.s:5005   .debug_str:00000000000003fa .LASF56
C:\Users\stapi\AppData\Local\Temp\ccHntkpc.s:1085   .text.mbedtls_net_recv_timeout:0000000000000000 .LFB394
C:\Users\stapi\AppData\Local\Temp\ccHntkpc.s:1222   .text.mbedtls_net_recv_timeout:00000000000000a6 .LFE394
C:\Users\stapi\AppData\Local\Temp\ccHntkpc.s:4185   .debug_loc:00000000000000e1 .LLST34
C:\Users\stapi\AppData\Local\Temp\ccHntkpc.s:4211   .debug_loc:0000000000000123 .LLST35
C:\Users\stapi\AppData\Local\Temp\ccHntkpc.s:4230   .debug_loc:0000000000000157 .LLST36
C:\Users\stapi\AppData\Local\Temp\ccHntkpc.s:4951   .debug_str:00000000000002f7 .LASF57
C:\Users\stapi\AppData\Local\Temp\ccHntkpc.s:4249   .debug_loc:000000000000018b .LLST37
C:\Users\stapi\AppData\Local\Temp\ccHntkpc.s:4274   .debug_loc:00000000000001c5 .LLST38
C:\Users\stapi\AppData\Local\Temp\ccHntkpc.s:4877   .debug_str:0000000000000051 .LASF58
C:\Users\stapi\AppData\Local\Temp\ccHntkpc.s:4289   .debug_loc:00000000000001ee .LLST39
C:\Users\stapi\AppData\Local\Temp\ccHntkpc.s:1159   .text.mbedtls_net_recv_timeout:0000000000000060 .LVL107
C:\Users\stapi\AppData\Local\Temp\ccHntkpc.s:1190   .text.mbedtls_net_recv_timeout:000000000000008e .LVL111
C:\Users\stapi\AppData\Local\Temp\ccHntkpc.s:4987   .debug_str:000000000000039f .LASF111
C:\Users\stapi\AppData\Local\Temp\ccHntkpc.s:5045   .debug_str:00000000000004e9 .LASF60
C:\Users\stapi\AppData\Local\Temp\ccHntkpc.s:954    .text.mbedtls_net_usleep:0000000000000000 .LFB392
C:\Users\stapi\AppData\Local\Temp\ccHntkpc.s:995    .text.mbedtls_net_usleep:000000000000003a .LFE392
C:\Users\stapi\AppData\Local\Temp\ccHntkpc.s:4995   .debug_str:00000000000003ce .LASF61
C:\Users\stapi\AppData\Local\Temp\ccHntkpc.s:4300   .debug_loc:000000000000020c .LLST25
C:\Users\stapi\AppData\Local\Temp\ccHntkpc.s:987    .text.mbedtls_net_usleep:0000000000000030 .LVL91
C:\Users\stapi\AppData\Local\Temp\ccHntkpc.s:4893   .debug_str:00000000000000b9 .LASF62
C:\Users\stapi\AppData\Local\Temp\ccHntkpc.s:773    .text.mbedtls_net_poll:0000000000000000 .LFB391
C:\Users\stapi\AppData\Local\Temp\ccHntkpc.s:947    .text.mbedtls_net_poll:00000000000000e4 .LFE391
C:\Users\stapi\AppData\Local\Temp\ccHntkpc.s:4314   .debug_loc:000000000000022d .LLST20
C:\Users\stapi\AppData\Local\Temp\ccHntkpc.s:4328   .debug_loc:000000000000024e .LLST21
C:\Users\stapi\AppData\Local\Temp\ccHntkpc.s:4339   .debug_loc:000000000000026c .LLST22
C:\Users\stapi\AppData\Local\Temp\ccHntkpc.s:4353   .debug_loc:000000000000028d .LLST23
C:\Users\stapi\AppData\Local\Temp\ccHntkpc.s:4991   .debug_str:00000000000003bc .LASF63
C:\Users\stapi\AppData\Local\Temp\ccHntkpc.s:4373   .debug_loc:00000000000002c2 .LLST24
C:\Users\stapi\AppData\Local\Temp\ccHntkpc.s:890    .text.mbedtls_net_poll:00000000000000a0 .LVL82
C:\Users\stapi\AppData\Local\Temp\ccHntkpc.s:4947   .debug_str:00000000000002d8 .LASF64
C:\Users\stapi\AppData\Local\Temp\ccHntkpc.s:738    .text.mbedtls_net_set_nonblock:0000000000000000 .LFB390
C:\Users\stapi\AppData\Local\Temp\ccHntkpc.s:766    .text.mbedtls_net_set_nonblock:0000000000000030 .LFE390
C:\Users\stapi\AppData\Local\Temp\ccHntkpc.s:4386   .debug_loc:00000000000002e2 .LLST19
C:\Users\stapi\AppData\Local\Temp\ccHntkpc.s:754    .text.mbedtls_net_set_nonblock:0000000000000018 .LVL74
C:\Users\stapi\AppData\Local\Temp\ccHntkpc.s:759    .text.mbedtls_net_set_nonblock:0000000000000028 .LVL75
C:\Users\stapi\AppData\Local\Temp\ccHntkpc.s:5053   .debug_str:000000000000051e .LASF65
C:\Users\stapi\AppData\Local\Temp\ccHntkpc.s:703    .text.mbedtls_net_set_block:0000000000000000 .LFB389
C:\Users\stapi\AppData\Local\Temp\ccHntkpc.s:731    .text.mbedtls_net_set_block:0000000000000030 .LFE389
C:\Users\stapi\AppData\Local\Temp\ccHntkpc.s:4400   .debug_loc:0000000000000303 .LLST18
C:\Users\stapi\AppData\Local\Temp\ccHntkpc.s:719    .text.mbedtls_net_set_block:0000000000000018 .LVL70
C:\Users\stapi\AppData\Local\Temp\ccHntkpc.s:724    .text.mbedtls_net_set_block:0000000000000028 .LVL71
C:\Users\stapi\AppData\Local\Temp\ccHntkpc.s:4897   .debug_str:00000000000000d4 .LASF66
C:\Users\stapi\AppData\Local\Temp\ccHntkpc.s:441    .text.mbedtls_net_accept:0000000000000000 .LFB388
C:\Users\stapi\AppData\Local\Temp\ccHntkpc.s:696    .text.mbedtls_net_accept:000000000000014c .LFE388
C:\Users\stapi\AppData\Local\Temp\ccHntkpc.s:4999   .debug_str:00000000000003de .LASF67
C:\Users\stapi\AppData\Local\Temp\ccHntkpc.s:4414   .debug_loc:0000000000000324 .LLST12
C:\Users\stapi\AppData\Local\Temp\ccHntkpc.s:4919   .debug_str:0000000000000157 .LASF68
C:\Users\stapi\AppData\Local\Temp\ccHntkpc.s:4425   .debug_loc:0000000000000342 .LLST13
C:\Users\stapi\AppData\Local\Temp\ccHntkpc.s:4929   .debug_str:0000000000000187 .LASF69
C:\Users\stapi\AppData\Local\Temp\ccHntkpc.s:4436   .debug_loc:0000000000000360 .LLST14
C:\Users\stapi\AppData\Local\Temp\ccHntkpc.s:4983   .debug_str:000000000000038f .LASF70
C:\Users\stapi\AppData\Local\Temp\ccHntkpc.s:4447   .debug_loc:000000000000037e .LLST15
C:\Users\stapi\AppData\Local\Temp\ccHntkpc.s:5039   .debug_str:00000000000004d1 .LASF71
C:\Users\stapi\AppData\Local\Temp\ccHntkpc.s:4458   .debug_loc:000000000000039c .LLST16
C:\Users\stapi\AppData\Local\Temp\ccHntkpc.s:4469   .debug_loc:00000000000003ba .LLST17
C:\Users\stapi\AppData\Local\Temp\ccHntkpc.s:4959   .debug_str:0000000000000323 .LASF72
C:\Users\stapi\AppData\Local\Temp\ccHntkpc.s:4973   .debug_str:0000000000000362 .LASF73
C:\Users\stapi\AppData\Local\Temp\ccHntkpc.s:5051   .debug_str:0000000000000515 .LASF74
C:\Users\stapi\AppData\Local\Temp\ccHntkpc.s:546    .text.mbedtls_net_accept:0000000000000078 .LBB7
C:\Users\stapi\AppData\Local\Temp\ccHntkpc.s:562    .text.mbedtls_net_accept:0000000000000090 .LBE7
C:\Users\stapi\AppData\Local\Temp\ccHntkpc.s:559    .text.mbedtls_net_accept:000000000000008e .LVL59
C:\Users\stapi\AppData\Local\Temp\ccHntkpc.s:5079   .debug_str:0000000000000628 .LASF75
C:\Users\stapi\AppData\Local\Temp\ccHntkpc.s:581    .text.mbedtls_net_accept:00000000000000a8 .LVL61
C:\Users\stapi\AppData\Local\Temp\ccHntkpc.s:605    .text.mbedtls_net_accept:00000000000000ca .LVL62
C:\Users\stapi\AppData\Local\Temp\ccHntkpc.s:635    .text.mbedtls_net_accept:00000000000000ec .LVL63
C:\Users\stapi\AppData\Local\Temp\ccHntkpc.s:647    .text.mbedtls_net_accept:0000000000000104 .LVL64
C:\Users\stapi\AppData\Local\Temp\ccHntkpc.s:656    .text.mbedtls_net_accept:0000000000000114 .LVL65
C:\Users\stapi\AppData\Local\Temp\ccHntkpc.s:672    .text.mbedtls_net_accept:000000000000012a .LBB10
C:\Users\stapi\AppData\Local\Temp\ccHntkpc.s:694    .text.mbedtls_net_accept:000000000000014c .LBE10
C:\Users\stapi\AppData\Local\Temp\ccHntkpc.s:4965   .debug_str:000000000000033b .LASF76
C:\Users\stapi\AppData\Local\Temp\ccHntkpc.s:688    .text.mbedtls_net_accept:0000000000000144 .LVL67
C:\Users\stapi\AppData\Local\Temp\ccHntkpc.s:496    .text.mbedtls_net_accept:0000000000000034 .LVL54
C:\Users\stapi\AppData\Local\Temp\ccHntkpc.s:525    .text.mbedtls_net_accept:000000000000005c .LVL55
C:\Users\stapi\AppData\Local\Temp\ccHntkpc.s:538    .text.mbedtls_net_accept:000000000000006e .LVL58
C:\Users\stapi\AppData\Local\Temp\ccHntkpc.s:4875   .debug_str:0000000000000041 .LASF112
C:\Users\stapi\AppData\Local\Temp\ccHntkpc.s:5083   .debug_str:000000000000063e .LASF77
C:\Users\stapi\AppData\Local\Temp\ccHntkpc.s:232    .text.mbedtls_net_bind:0000000000000000 .LFB386
C:\Users\stapi\AppData\Local\Temp\ccHntkpc.s:434    .text.mbedtls_net_bind:00000000000000f8 .LFE386
C:\Users\stapi\AppData\Local\Temp\ccHntkpc.s:4480   .debug_loc:00000000000003d8 .LLST6
C:\Users\stapi\AppData\Local\Temp\ccHntkpc.s:5049   .debug_str:000000000000050d .LASF78
C:\Users\stapi\AppData\Local\Temp\ccHntkpc.s:4491   .debug_loc:00000000000003f6 .LLST7
C:\Users\stapi\AppData\Local\Temp\ccHntkpc.s:4927   .debug_str:0000000000000182 .LASF79
C:\Users\stapi\AppData\Local\Temp\ccHntkpc.s:4509   .debug_loc:0000000000000422 .LLST8
C:\Users\stapi\AppData\Local\Temp\ccHntkpc.s:5019   .debug_str:0000000000000461 .LASF80
C:\Users\stapi\AppData\Local\Temp\ccHntkpc.s:4527   .debug_loc:000000000000044e .LLST9
C:\Users\stapi\AppData\Local\Temp\ccHntkpc.s:4538   .debug_loc:000000000000046c .LLST10
C:\Users\stapi\AppData\Local\Temp\ccHntkpc.s:5057   .debug_str:0000000000000540 .LASF81
C:\Users\stapi\AppData\Local\Temp\ccHntkpc.s:4865   .debug_str:0000000000000008 .LASF82
C:\Users\stapi\AppData\Local\Temp\ccHntkpc.s:4574   .debug_loc:00000000000004c6 .LLST11
C:\Users\stapi\AppData\Local\Temp\ccHntkpc.s:269    .text.mbedtls_net_bind:0000000000000022 .LVL28
C:\Users\stapi\AppData\Local\Temp\ccHntkpc.s:298    .text.mbedtls_net_bind:000000000000004a .LVL29
C:\Users\stapi\AppData\Local\Temp\ccHntkpc.s:326    .text.mbedtls_net_bind:0000000000000064 .LVL35
C:\Users\stapi\AppData\Local\Temp\ccHntkpc.s:352    .text.mbedtls_net_bind:000000000000007e .LVL37
C:\Users\stapi\AppData\Local\Temp\ccHntkpc.s:369    .text.mbedtls_net_bind:0000000000000098 .LVL38
C:\Users\stapi\AppData\Local\Temp\ccHntkpc.s:376    .text.mbedtls_net_bind:00000000000000a8 .LVL39
C:\Users\stapi\AppData\Local\Temp\ccHntkpc.s:390    .text.mbedtls_net_bind:00000000000000ba .LVL41
C:\Users\stapi\AppData\Local\Temp\ccHntkpc.s:401    .text.mbedtls_net_bind:00000000000000ce .LVL43
C:\Users\stapi\AppData\Local\Temp\ccHntkpc.s:420    .text.mbedtls_net_bind:00000000000000e4 .LVL46
C:\Users\stapi\AppData\Local\Temp\ccHntkpc.s:429    .text.mbedtls_net_bind:00000000000000f6 .LVL47
C:\Users\stapi\AppData\Local\Temp\ccHntkpc.s:4867   .debug_str:0000000000000012 .LASF83
C:\Users\stapi\AppData\Local\Temp\ccHntkpc.s:80     .text.mbedtls_net_connect:0000000000000000 .LFB385
C:\Users\stapi\AppData\Local\Temp\ccHntkpc.s:225    .text.mbedtls_net_connect:00000000000000aa .LFE385
C:\Users\stapi\AppData\Local\Temp\ccHntkpc.s:4585   .debug_loc:00000000000004e4 .LLST0
C:\Users\stapi\AppData\Local\Temp\ccHntkpc.s:4931   .debug_str:0000000000000191 .LASF84
C:\Users\stapi\AppData\Local\Temp\ccHntkpc.s:4596   .debug_loc:0000000000000502 .LLST1
C:\Users\stapi\AppData\Local\Temp\ccHntkpc.s:4614   .debug_loc:000000000000052e .LLST2
C:\Users\stapi\AppData\Local\Temp\ccHntkpc.s:4625   .debug_loc:000000000000054c .LLST3
C:\Users\stapi\AppData\Local\Temp\ccHntkpc.s:4643   .debug_loc:0000000000000578 .LLST4
C:\Users\stapi\AppData\Local\Temp\ccHntkpc.s:4669   .debug_loc:00000000000005ba .LLST5
C:\Users\stapi\AppData\Local\Temp\ccHntkpc.s:115    .text.mbedtls_net_connect:0000000000000022 .LVL9
C:\Users\stapi\AppData\Local\Temp\ccHntkpc.s:144    .text.mbedtls_net_connect:000000000000004a .LVL10
C:\Users\stapi\AppData\Local\Temp\ccHntkpc.s:165    .text.mbedtls_net_connect:000000000000005e .LVL15
C:\Users\stapi\AppData\Local\Temp\ccHntkpc.s:189    .text.mbedtls_net_connect:0000000000000078 .LVL17
C:\Users\stapi\AppData\Local\Temp\ccHntkpc.s:200    .text.mbedtls_net_connect:000000000000008c .LVL18
C:\Users\stapi\AppData\Local\Temp\ccHntkpc.s:211    .text.mbedtls_net_connect:00000000000000a0 .LVL20
C:\Users\stapi\AppData\Local\Temp\ccHntkpc.s:5015   .debug_str:0000000000000448 .LASF85
C:\Users\stapi\AppData\Local\Temp\ccHntkpc.s:62     .text.mbedtls_net_init:0000000000000000 .LFB384
C:\Users\stapi\AppData\Local\Temp\ccHntkpc.s:73     .text.mbedtls_net_init:0000000000000006 .LFE384
C:\Users\stapi\AppData\Local\Temp\ccHntkpc.s:4883   .debug_str:0000000000000072 .LASF113
C:\Users\stapi\AppData\Local\Temp\ccHntkpc.s:13     .text.net_would_block.isra.0:0000000000000000 .LFB398
C:\Users\stapi\AppData\Local\Temp\ccHntkpc.s:55     .text.net_would_block.isra.0:0000000000000036 .LFE398
C:\Users\stapi\AppData\Local\Temp\ccHntkpc.s:33     .text.net_would_block.isra.0:000000000000001c .LVL2
C:\Users\stapi\AppData\Local\Temp\ccHntkpc.s:1002   .text.mbedtls_net_recv:0000000000000000 .LFB393
C:\Users\stapi\AppData\Local\Temp\ccHntkpc.s:1078   .text.mbedtls_net_recv:0000000000000062 .LFE393
C:\Users\stapi\AppData\Local\Temp\ccHntkpc.s:4680   .debug_loc:00000000000005d8 .LLST26
C:\Users\stapi\AppData\Local\Temp\ccHntkpc.s:4691   .debug_loc:00000000000005f6 .LLST27
C:\Users\stapi\AppData\Local\Temp\ccHntkpc.s:4716   .debug_loc:0000000000000630 .LLST28
C:\Users\stapi\AppData\Local\Temp\ccHntkpc.s:4741   .debug_loc:000000000000066a .LLST29
C:\Users\stapi\AppData\Local\Temp\ccHntkpc.s:4748   .debug_loc:000000000000067d .LLST30
C:\Users\stapi\AppData\Local\Temp\ccHntkpc.s:1036   .text.mbedtls_net_recv:0000000000000028 .LBB13
C:\Users\stapi\AppData\Local\Temp\ccHntkpc.s:1061   .text.mbedtls_net_recv:000000000000004e .LBE13
C:\Users\stapi\AppData\Local\Temp\ccHntkpc.s:4759   .debug_loc:000000000000069b .LLST31
C:\Users\stapi\AppData\Local\Temp\ccHntkpc.s:4766   .debug_loc:00000000000006ae .LLST32
C:\Users\stapi\AppData\Local\Temp\ccHntkpc.s:4776   .debug_loc:00000000000006c4 .LLST33
C:\Users\stapi\AppData\Local\Temp\ccHntkpc.s:1023   .text.mbedtls_net_recv:0000000000000018 .LVL94
C:\Users\stapi\AppData\Local\Temp\ccHntkpc.s:1032   .text.mbedtls_net_recv:0000000000000026 .LVL96
C:\Users\stapi\AppData\Local\Temp\ccHntkpc.s:5063   .debug_str:0000000000000559 .LASF86
C:\Users\stapi\AppData\Local\Temp\ccHntkpc.s:4963   .debug_str:0000000000000330 .LASF87
C:\Users\stapi\AppData\Local\Temp\ccHntkpc.s:5081   .debug_str:0000000000000633 .LASF88
C:\Users\stapi\AppData\Local\Temp\ccHntkpc.s:4925   .debug_str:0000000000000176 .LASF89
C:\Users\stapi\AppData\Local\Temp\ccHntkpc.s:4871   .debug_str:000000000000002f .LASF90
C:\Users\stapi\AppData\Local\Temp\ccHntkpc.s:4881   .debug_str:0000000000000064 .LASF91
C:\Users\stapi\AppData\Local\Temp\ccHntkpc.s:4905   .debug_str:0000000000000113 .LASF92
C:\Users\stapi\AppData\Local\Temp\ccHntkpc.s:5071   .debug_str:0000000000000584 .LASF93
C:\Users\stapi\AppData\Local\Temp\ccHntkpc.s:5061   .debug_str:000000000000054d .LASF94
C:\Users\stapi\AppData\Local\Temp\ccHntkpc.s:5029   .debug_str:0000000000000496 .LASF95
C:\Users\stapi\AppData\Local\Temp\ccHntkpc.s:4917   .debug_str:000000000000014d .LASF96
C:\Users\stapi\AppData\Local\Temp\ccHntkpc.s:4911   .debug_str:000000000000012f .LASF99
C:\Users\stapi\AppData\Local\Temp\ccHntkpc.s:4967   .debug_str:0000000000000341 .LASF101
C:\Users\stapi\AppData\Local\Temp\ccHntkpc.s:4939   .debug_str:00000000000001b1 .LASF97
C:\Users\stapi\AppData\Local\Temp\ccHntkpc.s:5027   .debug_str:000000000000048a .LASF98
C:\Users\stapi\AppData\Local\Temp\ccHntkpc.s:5059   .debug_str:0000000000000546 .LASF100
C:\Users\stapi\AppData\Local\Temp\ccHntkpc.s:4887   .debug_str:0000000000000087 .LASF102
C:\Users\stapi\AppData\Local\Temp\ccHntkpc.s:5087   .debug_str:00000000000006df .LASF103
C:\Users\stapi\AppData\Local\Temp\ccHntkpc.s:5021   .debug_str:0000000000000467 .LASF104
C:\Users\stapi\AppData\Local\Temp\ccHntkpc.s:4901   .debug_str:00000000000000fb .LASF105
C:\Users\stapi\AppData\Local\Temp\ccHntkpc.s:4981   .debug_str:0000000000000385 .LASF106
C:\Users\stapi\AppData\Local\Temp\ccHntkpc.s:1309   .text.mbedtls_net_free:0000000000000000 .LVL123
C:\Users\stapi\AppData\Local\Temp\ccHntkpc.s:1320   .text.mbedtls_net_free:000000000000000c .LVL124
C:\Users\stapi\AppData\Local\Temp\ccHntkpc.s:1232   .text.mbedtls_net_send:0000000000000000 .LVL116
C:\Users\stapi\AppData\Local\Temp\ccHntkpc.s:1243   .text.mbedtls_net_send:000000000000000c .LVL117
C:\Users\stapi\AppData\Local\Temp\ccHntkpc.s:1287   .text.mbedtls_net_send:0000000000000056 .LVL121
C:\Users\stapi\AppData\Local\Temp\ccHntkpc.s:1291   .text.mbedtls_net_send:000000000000005a .LVL122
C:\Users\stapi\AppData\Local\Temp\ccHntkpc.s:1257   .text.mbedtls_net_send:000000000000001e .LVL119
C:\Users\stapi\AppData\Local\Temp\ccHntkpc.s:1088   .text.mbedtls_net_recv_timeout:0000000000000000 .LVL101
C:\Users\stapi\AppData\Local\Temp\ccHntkpc.s:1135   .text.mbedtls_net_recv_timeout:0000000000000040 .LVL104
C:\Users\stapi\AppData\Local\Temp\ccHntkpc.s:1201   .text.mbedtls_net_recv_timeout:0000000000000098 .LVL112
C:\Users\stapi\AppData\Local\Temp\ccHntkpc.s:1206   .text.mbedtls_net_recv_timeout:000000000000009c .LVL113
C:\Users\stapi\AppData\Local\Temp\ccHntkpc.s:1209   .text.mbedtls_net_recv_timeout:000000000000009e .LVL114
C:\Users\stapi\AppData\Local\Temp\ccHntkpc.s:1157   .text.mbedtls_net_recv_timeout:0000000000000058 .LVL106
C:\Users\stapi\AppData\Local\Temp\ccHntkpc.s:1121   .text.mbedtls_net_recv_timeout:0000000000000022 .LVL103
C:\Users\stapi\AppData\Local\Temp\ccHntkpc.s:1154   .text.mbedtls_net_recv_timeout:0000000000000054 .LVL105
C:\Users\stapi\AppData\Local\Temp\ccHntkpc.s:1174   .text.mbedtls_net_recv_timeout:0000000000000074 .LVL108
C:\Users\stapi\AppData\Local\Temp\ccHntkpc.s:1181   .text.mbedtls_net_recv_timeout:0000000000000080 .LVL109
C:\Users\stapi\AppData\Local\Temp\ccHntkpc.s:1188   .text.mbedtls_net_recv_timeout:0000000000000086 .LVL110
C:\Users\stapi\AppData\Local\Temp\ccHntkpc.s:1218   .text.mbedtls_net_recv_timeout:00000000000000a0 .LVL115
C:\Users\stapi\AppData\Local\Temp\ccHntkpc.s:1095   .text.mbedtls_net_recv_timeout:0000000000000002 .LVL102
C:\Users\stapi\AppData\Local\Temp\ccHntkpc.s:957    .text.mbedtls_net_usleep:0000000000000000 .LVL89
C:\Users\stapi\AppData\Local\Temp\ccHntkpc.s:976    .text.mbedtls_net_usleep:0000000000000020 .LVL90
C:\Users\stapi\AppData\Local\Temp\ccHntkpc.s:776    .text.mbedtls_net_poll:0000000000000000 .LVL76
C:\Users\stapi\AppData\Local\Temp\ccHntkpc.s:798    .text.mbedtls_net_poll:0000000000000010 .LVL78
C:\Users\stapi\AppData\Local\Temp\ccHntkpc.s:813    .text.mbedtls_net_poll:0000000000000022 .LVL79
C:\Users\stapi\AppData\Local\Temp\ccHntkpc.s:879    .text.mbedtls_net_poll:000000000000008e .LVL81
C:\Users\stapi\AppData\Local\Temp\ccHntkpc.s:892    .text.mbedtls_net_poll:00000000000000a2 .LVL83
C:\Users\stapi\AppData\Local\Temp\ccHntkpc.s:899    .text.mbedtls_net_poll:00000000000000aa .LVL84
C:\Users\stapi\AppData\Local\Temp\ccHntkpc.s:903    .text.mbedtls_net_poll:00000000000000ae .LVL85
C:\Users\stapi\AppData\Local\Temp\ccHntkpc.s:927    .text.mbedtls_net_poll:00000000000000d4 .LVL87
C:\Users\stapi\AppData\Local\Temp\ccHntkpc.s:934    .text.mbedtls_net_poll:00000000000000da .LVL88
C:\Users\stapi\AppData\Local\Temp\ccHntkpc.s:791    .text.mbedtls_net_poll:000000000000000a .LVL77
C:\Users\stapi\AppData\Local\Temp\ccHntkpc.s:920    .text.mbedtls_net_poll:00000000000000c8 .LVL86
C:\Users\stapi\AppData\Local\Temp\ccHntkpc.s:741    .text.mbedtls_net_set_nonblock:0000000000000000 .LVL72
C:\Users\stapi\AppData\Local\Temp\ccHntkpc.s:752    .text.mbedtls_net_set_nonblock:0000000000000010 .LVL73
C:\Users\stapi\AppData\Local\Temp\ccHntkpc.s:706    .text.mbedtls_net_set_block:0000000000000000 .LVL68
C:\Users\stapi\AppData\Local\Temp\ccHntkpc.s:717    .text.mbedtls_net_set_block:0000000000000010 .LVL69
C:\Users\stapi\AppData\Local\Temp\ccHntkpc.s:444    .text.mbedtls_net_accept:0000000000000000 .LVL48
C:\Users\stapi\AppData\Local\Temp\ccHntkpc.s:462    .text.mbedtls_net_accept:000000000000000c .LVL49
C:\Users\stapi\AppData\Local\Temp\ccHntkpc.s:472    .text.mbedtls_net_accept:0000000000000016 .LVL50
C:\Users\stapi\AppData\Local\Temp\ccHntkpc.s:482    .text.mbedtls_net_accept:0000000000000022 .LVL51
C:\Users\stapi\AppData\Local\Temp\ccHntkpc.s:489    .text.mbedtls_net_accept:0000000000000028 .LVL53
C:\Users\stapi\AppData\Local\Temp\ccHntkpc.s:487    .text.mbedtls_net_accept:0000000000000026 .LVL52
C:\Users\stapi\AppData\Local\Temp\ccHntkpc.s:528    .text.mbedtls_net_accept:0000000000000060 .LVL56
C:\Users\stapi\AppData\Local\Temp\ccHntkpc.s:536    .text.mbedtls_net_accept:0000000000000066 .LVL57
C:\Users\stapi\AppData\Local\Temp\ccHntkpc.s:574    .text.mbedtls_net_accept:000000000000009c .LVL60
C:\Users\stapi\AppData\Local\Temp\ccHntkpc.s:235    .text.mbedtls_net_bind:0000000000000000 .LVL23
C:\Users\stapi\AppData\Local\Temp\ccHntkpc.s:264    .text.mbedtls_net_bind:0000000000000018 .LVL27
C:\Users\stapi\AppData\Local\Temp\ccHntkpc.s:260    .text.mbedtls_net_bind:0000000000000012 .LVL25
C:\Users\stapi\AppData\Local\Temp\ccHntkpc.s:301    .text.mbedtls_net_bind:000000000000004e .LVL30
C:\Users\stapi\AppData\Local\Temp\ccHntkpc.s:262    .text.mbedtls_net_bind:0000000000000016 .LVL26
C:\Users\stapi\AppData\Local\Temp\ccHntkpc.s:309    .text.mbedtls_net_bind:0000000000000052 .LVL32
C:\Users\stapi\AppData\Local\Temp\ccHntkpc.s:249    .text.mbedtls_net_bind:0000000000000008 .LVL24
C:\Users\stapi\AppData\Local\Temp\ccHntkpc.s:305    .text.mbedtls_net_bind:0000000000000050 .LVL31
C:\Users\stapi\AppData\Local\Temp\ccHntkpc.s:316    .text.mbedtls_net_bind:0000000000000058 .LVL33
C:\Users\stapi\AppData\Local\Temp\ccHntkpc.s:343    .text.mbedtls_net_bind:0000000000000070 .LVL36
C:\Users\stapi\AppData\Local\Temp\ccHntkpc.s:383    .text.mbedtls_net_bind:00000000000000ae .LVL40
C:\Users\stapi\AppData\Local\Temp\ccHntkpc.s:392    .text.mbedtls_net_bind:00000000000000bc .LVL42
C:\Users\stapi\AppData\Local\Temp\ccHntkpc.s:410    .text.mbedtls_net_bind:00000000000000d2 .LVL45
C:\Users\stapi\AppData\Local\Temp\ccHntkpc.s:83     .text.mbedtls_net_connect:0000000000000000 .LVL4
C:\Users\stapi\AppData\Local\Temp\ccHntkpc.s:110    .text.mbedtls_net_connect:0000000000000018 .LVL8
C:\Users\stapi\AppData\Local\Temp\ccHntkpc.s:106    .text.mbedtls_net_connect:0000000000000012 .LVL6
C:\Users\stapi\AppData\Local\Temp\ccHntkpc.s:155    .text.mbedtls_net_connect:0000000000000052 .LVL13
C:\Users\stapi\AppData\Local\Temp\ccHntkpc.s:108    .text.mbedtls_net_connect:0000000000000016 .LVL7
C:\Users\stapi\AppData\Local\Temp\ccHntkpc.s:147    .text.mbedtls_net_connect:000000000000004e .LVL11
C:\Users\stapi\AppData\Local\Temp\ccHntkpc.s:95     .text.mbedtls_net_connect:0000000000000008 .LVL5
C:\Users\stapi\AppData\Local\Temp\ccHntkpc.s:151    .text.mbedtls_net_connect:0000000000000050 .LVL12
C:\Users\stapi\AppData\Local\Temp\ccHntkpc.s:180    .text.mbedtls_net_connect:000000000000006a .LVL16
C:\Users\stapi\AppData\Local\Temp\ccHntkpc.s:202    .text.mbedtls_net_connect:000000000000008e .LVL19
C:\Users\stapi\AppData\Local\Temp\ccHntkpc.s:222    .text.mbedtls_net_connect:00000000000000a8 .LVL22
C:\Users\stapi\AppData\Local\Temp\ccHntkpc.s:1005   .text.mbedtls_net_recv:0000000000000000 .LVL92
C:\Users\stapi\AppData\Local\Temp\ccHntkpc.s:1016   .text.mbedtls_net_recv:000000000000000c .LVL93
C:\Users\stapi\AppData\Local\Temp\ccHntkpc.s:1066   .text.mbedtls_net_recv:0000000000000056 .LVL99
C:\Users\stapi\AppData\Local\Temp\ccHntkpc.s:1070   .text.mbedtls_net_recv:000000000000005a .LVL100
C:\Users\stapi\AppData\Local\Temp\ccHntkpc.s:1030   .text.mbedtls_net_recv:000000000000001e .LVL95
C:\Users\stapi\AppData\Local\Temp\ccHntkpc.s:1035   .text.mbedtls_net_recv:0000000000000028 .LVL97
C:\Users\stapi\AppData\Local\Temp\ccHntkpc.s:1058   .text.mbedtls_net_recv:000000000000004e .LVL98
C:\Users\stapi\AppData\Local\Temp\ccHntkpc.s:1358   .debug_info:0000000000000000 .Ldebug_info0
C:\Users\stapi\AppData\Local\Temp\ccHntkpc.s:500    .text.mbedtls_net_accept:0000000000000036 .LBB6
C:\Users\stapi\AppData\Local\Temp\ccHntkpc.s:505    .text.mbedtls_net_accept:000000000000003c .LBE6
C:\Users\stapi\AppData\Local\Temp\ccHntkpc.s:568    .text.mbedtls_net_accept:0000000000000098 .LBB8
C:\Users\stapi\AppData\Local\Temp\ccHntkpc.s:612    .text.mbedtls_net_accept:00000000000000d0 .LBE8
C:\Users\stapi\AppData\Local\Temp\ccHntkpc.s:629    .text.mbedtls_net_accept:00000000000000dc .LBB9
C:\Users\stapi\AppData\Local\Temp\ccHntkpc.s:663    .text.mbedtls_net_accept:000000000000011c .LBE9

UNDEFINED SYMBOLS
__riscv_save_2
errno
lwip_fcntl
__riscv_restore_2
__riscv_save_4
memset
lwip_getaddrinfo
lwip_freeaddrinfo
__riscv_restore_4
lwip_socket
lwip_connect
lwip_close
__riscv_save_6
__riscv_restore_6
lwip_setsockopt
lwip_bind
lwip_listen
lwip_getsockopt
lwip_accept
lwip_recvfrom
lwip_getsockname
memcpy
__riscv_save_1
__riscv_restore_1
lwip_select
__riscv_save_0
__riscv_restore_0
lwip_read
__riscv_save_3
__riscv_restore_3
lwip_write
lwip_shutdown
