   1              		.file	"ssl_ticket.c"
   2              		.option nopic
   3              		.attribute arch, "rv32i2p0_m2p0_a2p0_f2p0_c2p0_b_p0p94"
   4              		.attribute unaligned_access, 0
   5              		.attribute stack_align, 16
   6              		.text
   7              	.Ltext0:
   8              		.cfi_sections	.debug_frame
   9              		.section	.text.ssl_ticket_gen_key,"ax",@progbits
  10              		.align	1
  12              	ssl_ticket_gen_key:
  13              	.LFB384:
  14              		.file 1 "C:/Users/stapi/OneDrive/Desktop/GD32VW553/V1_MQTT_OK/GD32VW55X_Wifi_BLE_SDK/GD32VW55x_REL
   1:C:/Users/stapi/OneDrive/Desktop/GD32VW553/V1_MQTT_OK/GD32VW55X_Wifi_BLE_SDK/GD32VW55x_RELEASE_V1.0.2/MSDK/mbedtls/mbedtls-2.17.0-ssl/library\ssl_ticket.c **** /*
   2:C:/Users/stapi/OneDrive/Desktop/GD32VW553/V1_MQTT_OK/GD32VW55X_Wifi_BLE_SDK/GD32VW55x_RELEASE_V1.0.2/MSDK/mbedtls/mbedtls-2.17.0-ssl/library\ssl_ticket.c ****  *  TLS server tickets callbacks implementation
   3:C:/Users/stapi/OneDrive/Desktop/GD32VW553/V1_MQTT_OK/GD32VW55X_Wifi_BLE_SDK/GD32VW55x_RELEASE_V1.0.2/MSDK/mbedtls/mbedtls-2.17.0-ssl/library\ssl_ticket.c ****  *
   4:C:/Users/stapi/OneDrive/Desktop/GD32VW553/V1_MQTT_OK/GD32VW55X_Wifi_BLE_SDK/GD32VW55x_RELEASE_V1.0.2/MSDK/mbedtls/mbedtls-2.17.0-ssl/library\ssl_ticket.c ****  *  Copyright (C) 2006-2015, ARM Limited, All Rights Reserved
   5:C:/Users/stapi/OneDrive/Desktop/GD32VW553/V1_MQTT_OK/GD32VW55X_Wifi_BLE_SDK/GD32VW55x_RELEASE_V1.0.2/MSDK/mbedtls/mbedtls-2.17.0-ssl/library\ssl_ticket.c ****  *  SPDX-License-Identifier: Apache-2.0
   6:C:/Users/stapi/OneDrive/Desktop/GD32VW553/V1_MQTT_OK/GD32VW55X_Wifi_BLE_SDK/GD32VW55x_RELEASE_V1.0.2/MSDK/mbedtls/mbedtls-2.17.0-ssl/library\ssl_ticket.c ****  *
   7:C:/Users/stapi/OneDrive/Desktop/GD32VW553/V1_MQTT_OK/GD32VW55X_Wifi_BLE_SDK/GD32VW55x_RELEASE_V1.0.2/MSDK/mbedtls/mbedtls-2.17.0-ssl/library\ssl_ticket.c ****  *  Licensed under the Apache License, Version 2.0 (the "License"); you may
   8:C:/Users/stapi/OneDrive/Desktop/GD32VW553/V1_MQTT_OK/GD32VW55X_Wifi_BLE_SDK/GD32VW55x_RELEASE_V1.0.2/MSDK/mbedtls/mbedtls-2.17.0-ssl/library\ssl_ticket.c ****  *  not use this file except in compliance with the License.
   9:C:/Users/stapi/OneDrive/Desktop/GD32VW553/V1_MQTT_OK/GD32VW55X_Wifi_BLE_SDK/GD32VW55x_RELEASE_V1.0.2/MSDK/mbedtls/mbedtls-2.17.0-ssl/library\ssl_ticket.c ****  *  You may obtain a copy of the License at
  10:C:/Users/stapi/OneDrive/Desktop/GD32VW553/V1_MQTT_OK/GD32VW55X_Wifi_BLE_SDK/GD32VW55x_RELEASE_V1.0.2/MSDK/mbedtls/mbedtls-2.17.0-ssl/library\ssl_ticket.c ****  *
  11:C:/Users/stapi/OneDrive/Desktop/GD32VW553/V1_MQTT_OK/GD32VW55X_Wifi_BLE_SDK/GD32VW55x_RELEASE_V1.0.2/MSDK/mbedtls/mbedtls-2.17.0-ssl/library\ssl_ticket.c ****  *  http://www.apache.org/licenses/LICENSE-2.0
  12:C:/Users/stapi/OneDrive/Desktop/GD32VW553/V1_MQTT_OK/GD32VW55X_Wifi_BLE_SDK/GD32VW55x_RELEASE_V1.0.2/MSDK/mbedtls/mbedtls-2.17.0-ssl/library\ssl_ticket.c ****  *
  13:C:/Users/stapi/OneDrive/Desktop/GD32VW553/V1_MQTT_OK/GD32VW55X_Wifi_BLE_SDK/GD32VW55x_RELEASE_V1.0.2/MSDK/mbedtls/mbedtls-2.17.0-ssl/library\ssl_ticket.c ****  *  Unless required by applicable law or agreed to in writing, software
  14:C:/Users/stapi/OneDrive/Desktop/GD32VW553/V1_MQTT_OK/GD32VW55X_Wifi_BLE_SDK/GD32VW55x_RELEASE_V1.0.2/MSDK/mbedtls/mbedtls-2.17.0-ssl/library\ssl_ticket.c ****  *  distributed under the License is distributed on an "AS IS" BASIS, WITHOUT
  15:C:/Users/stapi/OneDrive/Desktop/GD32VW553/V1_MQTT_OK/GD32VW55X_Wifi_BLE_SDK/GD32VW55x_RELEASE_V1.0.2/MSDK/mbedtls/mbedtls-2.17.0-ssl/library\ssl_ticket.c ****  *  WARRANTIES OR CONDITIONS OF ANY KIND, either express or implied.
  16:C:/Users/stapi/OneDrive/Desktop/GD32VW553/V1_MQTT_OK/GD32VW55X_Wifi_BLE_SDK/GD32VW55x_RELEASE_V1.0.2/MSDK/mbedtls/mbedtls-2.17.0-ssl/library\ssl_ticket.c ****  *  See the License for the specific language governing permissions and
  17:C:/Users/stapi/OneDrive/Desktop/GD32VW553/V1_MQTT_OK/GD32VW55X_Wifi_BLE_SDK/GD32VW55x_RELEASE_V1.0.2/MSDK/mbedtls/mbedtls-2.17.0-ssl/library\ssl_ticket.c ****  *  limitations under the License.
  18:C:/Users/stapi/OneDrive/Desktop/GD32VW553/V1_MQTT_OK/GD32VW55X_Wifi_BLE_SDK/GD32VW55x_RELEASE_V1.0.2/MSDK/mbedtls/mbedtls-2.17.0-ssl/library\ssl_ticket.c ****  *
  19:C:/Users/stapi/OneDrive/Desktop/GD32VW553/V1_MQTT_OK/GD32VW55X_Wifi_BLE_SDK/GD32VW55x_RELEASE_V1.0.2/MSDK/mbedtls/mbedtls-2.17.0-ssl/library\ssl_ticket.c ****  *  This file is part of mbed TLS (https://tls.mbed.org)
  20:C:/Users/stapi/OneDrive/Desktop/GD32VW553/V1_MQTT_OK/GD32VW55X_Wifi_BLE_SDK/GD32VW55x_RELEASE_V1.0.2/MSDK/mbedtls/mbedtls-2.17.0-ssl/library\ssl_ticket.c ****  */
  21:C:/Users/stapi/OneDrive/Desktop/GD32VW553/V1_MQTT_OK/GD32VW55X_Wifi_BLE_SDK/GD32VW55x_RELEASE_V1.0.2/MSDK/mbedtls/mbedtls-2.17.0-ssl/library\ssl_ticket.c **** 
  22:C:/Users/stapi/OneDrive/Desktop/GD32VW553/V1_MQTT_OK/GD32VW55X_Wifi_BLE_SDK/GD32VW55x_RELEASE_V1.0.2/MSDK/mbedtls/mbedtls-2.17.0-ssl/library\ssl_ticket.c **** #if !defined(MBEDTLS_CONFIG_FILE)
  23:C:/Users/stapi/OneDrive/Desktop/GD32VW553/V1_MQTT_OK/GD32VW55X_Wifi_BLE_SDK/GD32VW55x_RELEASE_V1.0.2/MSDK/mbedtls/mbedtls-2.17.0-ssl/library\ssl_ticket.c **** #include "mbedtls/config.h"
  24:C:/Users/stapi/OneDrive/Desktop/GD32VW553/V1_MQTT_OK/GD32VW55X_Wifi_BLE_SDK/GD32VW55x_RELEASE_V1.0.2/MSDK/mbedtls/mbedtls-2.17.0-ssl/library\ssl_ticket.c **** #else
  25:C:/Users/stapi/OneDrive/Desktop/GD32VW553/V1_MQTT_OK/GD32VW55X_Wifi_BLE_SDK/GD32VW55x_RELEASE_V1.0.2/MSDK/mbedtls/mbedtls-2.17.0-ssl/library\ssl_ticket.c **** #include MBEDTLS_CONFIG_FILE
  26:C:/Users/stapi/OneDrive/Desktop/GD32VW553/V1_MQTT_OK/GD32VW55X_Wifi_BLE_SDK/GD32VW55x_RELEASE_V1.0.2/MSDK/mbedtls/mbedtls-2.17.0-ssl/library\ssl_ticket.c **** #endif
  27:C:/Users/stapi/OneDrive/Desktop/GD32VW553/V1_MQTT_OK/GD32VW55X_Wifi_BLE_SDK/GD32VW55x_RELEASE_V1.0.2/MSDK/mbedtls/mbedtls-2.17.0-ssl/library\ssl_ticket.c **** 
  28:C:/Users/stapi/OneDrive/Desktop/GD32VW553/V1_MQTT_OK/GD32VW55X_Wifi_BLE_SDK/GD32VW55x_RELEASE_V1.0.2/MSDK/mbedtls/mbedtls-2.17.0-ssl/library\ssl_ticket.c **** #if defined(MBEDTLS_SSL_TICKET_C)
  29:C:/Users/stapi/OneDrive/Desktop/GD32VW553/V1_MQTT_OK/GD32VW55X_Wifi_BLE_SDK/GD32VW55x_RELEASE_V1.0.2/MSDK/mbedtls/mbedtls-2.17.0-ssl/library\ssl_ticket.c **** 
  30:C:/Users/stapi/OneDrive/Desktop/GD32VW553/V1_MQTT_OK/GD32VW55X_Wifi_BLE_SDK/GD32VW55x_RELEASE_V1.0.2/MSDK/mbedtls/mbedtls-2.17.0-ssl/library\ssl_ticket.c **** #if defined(MBEDTLS_PLATFORM_C)
  31:C:/Users/stapi/OneDrive/Desktop/GD32VW553/V1_MQTT_OK/GD32VW55X_Wifi_BLE_SDK/GD32VW55x_RELEASE_V1.0.2/MSDK/mbedtls/mbedtls-2.17.0-ssl/library\ssl_ticket.c **** #include "mbedtls/platform.h"
  32:C:/Users/stapi/OneDrive/Desktop/GD32VW553/V1_MQTT_OK/GD32VW55X_Wifi_BLE_SDK/GD32VW55x_RELEASE_V1.0.2/MSDK/mbedtls/mbedtls-2.17.0-ssl/library\ssl_ticket.c **** #else
  33:C:/Users/stapi/OneDrive/Desktop/GD32VW553/V1_MQTT_OK/GD32VW55X_Wifi_BLE_SDK/GD32VW55x_RELEASE_V1.0.2/MSDK/mbedtls/mbedtls-2.17.0-ssl/library\ssl_ticket.c **** #include <stdlib.h>
  34:C:/Users/stapi/OneDrive/Desktop/GD32VW553/V1_MQTT_OK/GD32VW55X_Wifi_BLE_SDK/GD32VW55x_RELEASE_V1.0.2/MSDK/mbedtls/mbedtls-2.17.0-ssl/library\ssl_ticket.c **** #define mbedtls_calloc    calloc
  35:C:/Users/stapi/OneDrive/Desktop/GD32VW553/V1_MQTT_OK/GD32VW55X_Wifi_BLE_SDK/GD32VW55x_RELEASE_V1.0.2/MSDK/mbedtls/mbedtls-2.17.0-ssl/library\ssl_ticket.c **** #define mbedtls_free      free
  36:C:/Users/stapi/OneDrive/Desktop/GD32VW553/V1_MQTT_OK/GD32VW55X_Wifi_BLE_SDK/GD32VW55x_RELEASE_V1.0.2/MSDK/mbedtls/mbedtls-2.17.0-ssl/library\ssl_ticket.c **** #endif
  37:C:/Users/stapi/OneDrive/Desktop/GD32VW553/V1_MQTT_OK/GD32VW55X_Wifi_BLE_SDK/GD32VW55x_RELEASE_V1.0.2/MSDK/mbedtls/mbedtls-2.17.0-ssl/library\ssl_ticket.c **** 
  38:C:/Users/stapi/OneDrive/Desktop/GD32VW553/V1_MQTT_OK/GD32VW55X_Wifi_BLE_SDK/GD32VW55x_RELEASE_V1.0.2/MSDK/mbedtls/mbedtls-2.17.0-ssl/library\ssl_ticket.c **** #include "mbedtls/ssl_ticket.h"
  39:C:/Users/stapi/OneDrive/Desktop/GD32VW553/V1_MQTT_OK/GD32VW55X_Wifi_BLE_SDK/GD32VW55x_RELEASE_V1.0.2/MSDK/mbedtls/mbedtls-2.17.0-ssl/library\ssl_ticket.c **** #include "mbedtls/platform_util.h"
  40:C:/Users/stapi/OneDrive/Desktop/GD32VW553/V1_MQTT_OK/GD32VW55X_Wifi_BLE_SDK/GD32VW55x_RELEASE_V1.0.2/MSDK/mbedtls/mbedtls-2.17.0-ssl/library\ssl_ticket.c **** 
  41:C:/Users/stapi/OneDrive/Desktop/GD32VW553/V1_MQTT_OK/GD32VW55X_Wifi_BLE_SDK/GD32VW55x_RELEASE_V1.0.2/MSDK/mbedtls/mbedtls-2.17.0-ssl/library\ssl_ticket.c **** #include <string.h>
  42:C:/Users/stapi/OneDrive/Desktop/GD32VW553/V1_MQTT_OK/GD32VW55X_Wifi_BLE_SDK/GD32VW55x_RELEASE_V1.0.2/MSDK/mbedtls/mbedtls-2.17.0-ssl/library\ssl_ticket.c **** 
  43:C:/Users/stapi/OneDrive/Desktop/GD32VW553/V1_MQTT_OK/GD32VW55X_Wifi_BLE_SDK/GD32VW55x_RELEASE_V1.0.2/MSDK/mbedtls/mbedtls-2.17.0-ssl/library\ssl_ticket.c **** /*
  44:C:/Users/stapi/OneDrive/Desktop/GD32VW553/V1_MQTT_OK/GD32VW55X_Wifi_BLE_SDK/GD32VW55x_RELEASE_V1.0.2/MSDK/mbedtls/mbedtls-2.17.0-ssl/library\ssl_ticket.c ****  * Initialze context
  45:C:/Users/stapi/OneDrive/Desktop/GD32VW553/V1_MQTT_OK/GD32VW55X_Wifi_BLE_SDK/GD32VW55x_RELEASE_V1.0.2/MSDK/mbedtls/mbedtls-2.17.0-ssl/library\ssl_ticket.c ****  */
  46:C:/Users/stapi/OneDrive/Desktop/GD32VW553/V1_MQTT_OK/GD32VW55X_Wifi_BLE_SDK/GD32VW55x_RELEASE_V1.0.2/MSDK/mbedtls/mbedtls-2.17.0-ssl/library\ssl_ticket.c **** void mbedtls_ssl_ticket_init( mbedtls_ssl_ticket_context *ctx )
  47:C:/Users/stapi/OneDrive/Desktop/GD32VW553/V1_MQTT_OK/GD32VW55X_Wifi_BLE_SDK/GD32VW55x_RELEASE_V1.0.2/MSDK/mbedtls/mbedtls-2.17.0-ssl/library\ssl_ticket.c **** {
  48:C:/Users/stapi/OneDrive/Desktop/GD32VW553/V1_MQTT_OK/GD32VW55X_Wifi_BLE_SDK/GD32VW55x_RELEASE_V1.0.2/MSDK/mbedtls/mbedtls-2.17.0-ssl/library\ssl_ticket.c ****     memset( ctx, 0, sizeof( mbedtls_ssl_ticket_context ) );
  49:C:/Users/stapi/OneDrive/Desktop/GD32VW553/V1_MQTT_OK/GD32VW55X_Wifi_BLE_SDK/GD32VW55x_RELEASE_V1.0.2/MSDK/mbedtls/mbedtls-2.17.0-ssl/library\ssl_ticket.c **** 
  50:C:/Users/stapi/OneDrive/Desktop/GD32VW553/V1_MQTT_OK/GD32VW55X_Wifi_BLE_SDK/GD32VW55x_RELEASE_V1.0.2/MSDK/mbedtls/mbedtls-2.17.0-ssl/library\ssl_ticket.c **** #if defined(MBEDTLS_THREADING_C)
  51:C:/Users/stapi/OneDrive/Desktop/GD32VW553/V1_MQTT_OK/GD32VW55X_Wifi_BLE_SDK/GD32VW55x_RELEASE_V1.0.2/MSDK/mbedtls/mbedtls-2.17.0-ssl/library\ssl_ticket.c ****     mbedtls_mutex_init( &ctx->mutex );
  52:C:/Users/stapi/OneDrive/Desktop/GD32VW553/V1_MQTT_OK/GD32VW55X_Wifi_BLE_SDK/GD32VW55x_RELEASE_V1.0.2/MSDK/mbedtls/mbedtls-2.17.0-ssl/library\ssl_ticket.c **** #endif
  53:C:/Users/stapi/OneDrive/Desktop/GD32VW553/V1_MQTT_OK/GD32VW55X_Wifi_BLE_SDK/GD32VW55x_RELEASE_V1.0.2/MSDK/mbedtls/mbedtls-2.17.0-ssl/library\ssl_ticket.c **** }
  54:C:/Users/stapi/OneDrive/Desktop/GD32VW553/V1_MQTT_OK/GD32VW55X_Wifi_BLE_SDK/GD32VW55x_RELEASE_V1.0.2/MSDK/mbedtls/mbedtls-2.17.0-ssl/library\ssl_ticket.c **** 
  55:C:/Users/stapi/OneDrive/Desktop/GD32VW553/V1_MQTT_OK/GD32VW55X_Wifi_BLE_SDK/GD32VW55x_RELEASE_V1.0.2/MSDK/mbedtls/mbedtls-2.17.0-ssl/library\ssl_ticket.c **** #define MAX_KEY_BYTES 32    /* 256 bits */
  56:C:/Users/stapi/OneDrive/Desktop/GD32VW553/V1_MQTT_OK/GD32VW55X_Wifi_BLE_SDK/GD32VW55x_RELEASE_V1.0.2/MSDK/mbedtls/mbedtls-2.17.0-ssl/library\ssl_ticket.c **** 
  57:C:/Users/stapi/OneDrive/Desktop/GD32VW553/V1_MQTT_OK/GD32VW55X_Wifi_BLE_SDK/GD32VW55x_RELEASE_V1.0.2/MSDK/mbedtls/mbedtls-2.17.0-ssl/library\ssl_ticket.c **** #define TICKET_KEY_NAME_BYTES    4
  58:C:/Users/stapi/OneDrive/Desktop/GD32VW553/V1_MQTT_OK/GD32VW55X_Wifi_BLE_SDK/GD32VW55x_RELEASE_V1.0.2/MSDK/mbedtls/mbedtls-2.17.0-ssl/library\ssl_ticket.c **** #define TICKET_IV_BYTES         12
  59:C:/Users/stapi/OneDrive/Desktop/GD32VW553/V1_MQTT_OK/GD32VW55X_Wifi_BLE_SDK/GD32VW55x_RELEASE_V1.0.2/MSDK/mbedtls/mbedtls-2.17.0-ssl/library\ssl_ticket.c **** #define TICKET_CRYPT_LEN_BYTES   2
  60:C:/Users/stapi/OneDrive/Desktop/GD32VW553/V1_MQTT_OK/GD32VW55X_Wifi_BLE_SDK/GD32VW55x_RELEASE_V1.0.2/MSDK/mbedtls/mbedtls-2.17.0-ssl/library\ssl_ticket.c **** #define TICKET_AUTH_TAG_BYTES   16
  61:C:/Users/stapi/OneDrive/Desktop/GD32VW553/V1_MQTT_OK/GD32VW55X_Wifi_BLE_SDK/GD32VW55x_RELEASE_V1.0.2/MSDK/mbedtls/mbedtls-2.17.0-ssl/library\ssl_ticket.c **** 
  62:C:/Users/stapi/OneDrive/Desktop/GD32VW553/V1_MQTT_OK/GD32VW55X_Wifi_BLE_SDK/GD32VW55x_RELEASE_V1.0.2/MSDK/mbedtls/mbedtls-2.17.0-ssl/library\ssl_ticket.c **** #define TICKET_MIN_LEN ( TICKET_KEY_NAME_BYTES  +        \
  63:C:/Users/stapi/OneDrive/Desktop/GD32VW553/V1_MQTT_OK/GD32VW55X_Wifi_BLE_SDK/GD32VW55x_RELEASE_V1.0.2/MSDK/mbedtls/mbedtls-2.17.0-ssl/library\ssl_ticket.c ****                          TICKET_IV_BYTES        +        \
  64:C:/Users/stapi/OneDrive/Desktop/GD32VW553/V1_MQTT_OK/GD32VW55X_Wifi_BLE_SDK/GD32VW55x_RELEASE_V1.0.2/MSDK/mbedtls/mbedtls-2.17.0-ssl/library\ssl_ticket.c ****                          TICKET_CRYPT_LEN_BYTES +        \
  65:C:/Users/stapi/OneDrive/Desktop/GD32VW553/V1_MQTT_OK/GD32VW55X_Wifi_BLE_SDK/GD32VW55x_RELEASE_V1.0.2/MSDK/mbedtls/mbedtls-2.17.0-ssl/library\ssl_ticket.c ****                          TICKET_AUTH_TAG_BYTES )
  66:C:/Users/stapi/OneDrive/Desktop/GD32VW553/V1_MQTT_OK/GD32VW55X_Wifi_BLE_SDK/GD32VW55x_RELEASE_V1.0.2/MSDK/mbedtls/mbedtls-2.17.0-ssl/library\ssl_ticket.c **** #define TICKET_ADD_DATA_LEN ( TICKET_KEY_NAME_BYTES  +        \
  67:C:/Users/stapi/OneDrive/Desktop/GD32VW553/V1_MQTT_OK/GD32VW55X_Wifi_BLE_SDK/GD32VW55x_RELEASE_V1.0.2/MSDK/mbedtls/mbedtls-2.17.0-ssl/library\ssl_ticket.c ****                               TICKET_IV_BYTES        +        \
  68:C:/Users/stapi/OneDrive/Desktop/GD32VW553/V1_MQTT_OK/GD32VW55X_Wifi_BLE_SDK/GD32VW55x_RELEASE_V1.0.2/MSDK/mbedtls/mbedtls-2.17.0-ssl/library\ssl_ticket.c ****                               TICKET_CRYPT_LEN_BYTES )
  69:C:/Users/stapi/OneDrive/Desktop/GD32VW553/V1_MQTT_OK/GD32VW55X_Wifi_BLE_SDK/GD32VW55x_RELEASE_V1.0.2/MSDK/mbedtls/mbedtls-2.17.0-ssl/library\ssl_ticket.c **** 
  70:C:/Users/stapi/OneDrive/Desktop/GD32VW553/V1_MQTT_OK/GD32VW55X_Wifi_BLE_SDK/GD32VW55x_RELEASE_V1.0.2/MSDK/mbedtls/mbedtls-2.17.0-ssl/library\ssl_ticket.c **** /*
  71:C:/Users/stapi/OneDrive/Desktop/GD32VW553/V1_MQTT_OK/GD32VW55X_Wifi_BLE_SDK/GD32VW55x_RELEASE_V1.0.2/MSDK/mbedtls/mbedtls-2.17.0-ssl/library\ssl_ticket.c ****  * Generate/update a key
  72:C:/Users/stapi/OneDrive/Desktop/GD32VW553/V1_MQTT_OK/GD32VW55X_Wifi_BLE_SDK/GD32VW55x_RELEASE_V1.0.2/MSDK/mbedtls/mbedtls-2.17.0-ssl/library\ssl_ticket.c ****  */
  73:C:/Users/stapi/OneDrive/Desktop/GD32VW553/V1_MQTT_OK/GD32VW55X_Wifi_BLE_SDK/GD32VW55x_RELEASE_V1.0.2/MSDK/mbedtls/mbedtls-2.17.0-ssl/library\ssl_ticket.c **** static int ssl_ticket_gen_key( mbedtls_ssl_ticket_context *ctx,
  74:C:/Users/stapi/OneDrive/Desktop/GD32VW553/V1_MQTT_OK/GD32VW55X_Wifi_BLE_SDK/GD32VW55x_RELEASE_V1.0.2/MSDK/mbedtls/mbedtls-2.17.0-ssl/library\ssl_ticket.c ****                                unsigned char index )
  75:C:/Users/stapi/OneDrive/Desktop/GD32VW553/V1_MQTT_OK/GD32VW55X_Wifi_BLE_SDK/GD32VW55x_RELEASE_V1.0.2/MSDK/mbedtls/mbedtls-2.17.0-ssl/library\ssl_ticket.c **** {
  15              		.loc 1 75 1
  16              		.cfi_startproc
  17              	.LVL0:
  18 0000 17030000 		call	t0,__riscv_save_2
  18      E7020300 
  19              		.cfi_offset 9, -12
  20              		.cfi_offset 8, -8
  21              		.cfi_offset 1, -4
  22              		.cfi_def_cfa_offset 16
  76:C:/Users/stapi/OneDrive/Desktop/GD32VW553/V1_MQTT_OK/GD32VW55X_Wifi_BLE_SDK/GD32VW55x_RELEASE_V1.0.2/MSDK/mbedtls/mbedtls-2.17.0-ssl/library\ssl_ticket.c ****     int ret;
  23              		.loc 1 76 5
  77:C:/Users/stapi/OneDrive/Desktop/GD32VW553/V1_MQTT_OK/GD32VW55X_Wifi_BLE_SDK/GD32VW55x_RELEASE_V1.0.2/MSDK/mbedtls/mbedtls-2.17.0-ssl/library\ssl_ticket.c ****     unsigned char buf[MAX_KEY_BYTES];
  24              		.loc 1 77 5
  78:C:/Users/stapi/OneDrive/Desktop/GD32VW553/V1_MQTT_OK/GD32VW55X_Wifi_BLE_SDK/GD32VW55x_RELEASE_V1.0.2/MSDK/mbedtls/mbedtls-2.17.0-ssl/library\ssl_ticket.c ****     mbedtls_ssl_ticket_key *key = ctx->keys + index;
  25              		.loc 1 78 5
  75:C:/Users/stapi/OneDrive/Desktop/GD32VW553/V1_MQTT_OK/GD32VW55X_Wifi_BLE_SDK/GD32VW55x_RELEASE_V1.0.2/MSDK/mbedtls/mbedtls-2.17.0-ssl/library\ssl_ticket.c ****     int ret;
  26              		.loc 1 75 1 is_stmt 0
  27 0008 2A84     		mv	s0,a0
  28              		.loc 1 78 29
  29 000a 93078004 		li	a5,72
  75:C:/Users/stapi/OneDrive/Desktop/GD32VW553/V1_MQTT_OK/GD32VW55X_Wifi_BLE_SDK/GD32VW55x_RELEASE_V1.0.2/MSDK/mbedtls/mbedtls-2.17.0-ssl/library\ssl_ticket.c ****     int ret;
  30              		.loc 1 75 1
  31 000e 7971     		addi	sp,sp,-48
  32              		.cfi_def_cfa_offset 64
  33              		.loc 1 78 29
  34 0010 AA84     		mv	s1,a0
  79:C:/Users/stapi/OneDrive/Desktop/GD32VW553/V1_MQTT_OK/GD32VW55X_Wifi_BLE_SDK/GD32VW55x_RELEASE_V1.0.2/MSDK/mbedtls/mbedtls-2.17.0-ssl/library\ssl_ticket.c **** 
  80:C:/Users/stapi/OneDrive/Desktop/GD32VW553/V1_MQTT_OK/GD32VW55X_Wifi_BLE_SDK/GD32VW55x_RELEASE_V1.0.2/MSDK/mbedtls/mbedtls-2.17.0-ssl/library\ssl_ticket.c **** #if defined(MBEDTLS_HAVE_TIME)
  81:C:/Users/stapi/OneDrive/Desktop/GD32VW553/V1_MQTT_OK/GD32VW55X_Wifi_BLE_SDK/GD32VW55x_RELEASE_V1.0.2/MSDK/mbedtls/mbedtls-2.17.0-ssl/library\ssl_ticket.c ****     key->generation_time = (uint32_t) mbedtls_time( NULL );
  35              		.loc 1 81 39
  36 0012 0145     		li	a0,0
  37              	.LVL1:
  78:C:/Users/stapi/OneDrive/Desktop/GD32VW553/V1_MQTT_OK/GD32VW55X_Wifi_BLE_SDK/GD32VW55x_RELEASE_V1.0.2/MSDK/mbedtls/mbedtls-2.17.0-ssl/library\ssl_ticket.c **** 
  38              		.loc 1 78 29
  39 0014 FF94F5C4 		maddr32	s1, a1, a5
  40              	.LVL2:
  41              		.loc 1 81 5 is_stmt 1
  42              		.loc 1 81 39 is_stmt 0
  43 0018 97000000 		call	mbedtls_time
  43      E7800000 
  44              	.LVL3:
  45              		.loc 1 81 26
  46 0020 C8C0     		sw	a0,4(s1)
  82:C:/Users/stapi/OneDrive/Desktop/GD32VW553/V1_MQTT_OK/GD32VW55X_Wifi_BLE_SDK/GD32VW55x_RELEASE_V1.0.2/MSDK/mbedtls/mbedtls-2.17.0-ssl/library\ssl_ticket.c **** #endif
  83:C:/Users/stapi/OneDrive/Desktop/GD32VW553/V1_MQTT_OK/GD32VW55X_Wifi_BLE_SDK/GD32VW55x_RELEASE_V1.0.2/MSDK/mbedtls/mbedtls-2.17.0-ssl/library\ssl_ticket.c **** 
  84:C:/Users/stapi/OneDrive/Desktop/GD32VW553/V1_MQTT_OK/GD32VW55X_Wifi_BLE_SDK/GD32VW55x_RELEASE_V1.0.2/MSDK/mbedtls/mbedtls-2.17.0-ssl/library\ssl_ticket.c ****     if( ( ret = ctx->f_rng( ctx->p_rng, key->name, sizeof( key->name ) ) ) != 0 )
  47              		.loc 1 84 5 is_stmt 1
  48              		.loc 1 84 17 is_stmt 0
  49 0022 83278409 		lw	a5,152(s0)
  50 0026 0325C409 		lw	a0,156(s0)
  51 002a 1146     		li	a2,4
  52 002c A685     		mv	a1,s1
  53 002e 8297     		jalr	a5
  54              	.LVL4:
  55 0030 2A86     		mv	a2,a0
  56              	.LVL5:
  57              		.loc 1 84 7
  58 0032 1DED     		bne	a0,zero,.L1
  85:C:/Users/stapi/OneDrive/Desktop/GD32VW553/V1_MQTT_OK/GD32VW55X_Wifi_BLE_SDK/GD32VW55x_RELEASE_V1.0.2/MSDK/mbedtls/mbedtls-2.17.0-ssl/library\ssl_ticket.c ****         return( ret );
  86:C:/Users/stapi/OneDrive/Desktop/GD32VW553/V1_MQTT_OK/GD32VW55X_Wifi_BLE_SDK/GD32VW55x_RELEASE_V1.0.2/MSDK/mbedtls/mbedtls-2.17.0-ssl/library\ssl_ticket.c **** 
  87:C:/Users/stapi/OneDrive/Desktop/GD32VW553/V1_MQTT_OK/GD32VW55X_Wifi_BLE_SDK/GD32VW55x_RELEASE_V1.0.2/MSDK/mbedtls/mbedtls-2.17.0-ssl/library\ssl_ticket.c ****     if( ( ret = ctx->f_rng( ctx->p_rng, buf, sizeof( buf ) ) ) != 0 )
  59              		.loc 1 87 5 is_stmt 1
  60              		.loc 1 87 17 is_stmt 0
  61 0034 83278409 		lw	a5,152(s0)
  62 0038 0325C409 		lw	a0,156(s0)
  63              	.LVL6:
  64 003c 13060002 		li	a2,32
  65              	.LVL7:
  66 0040 0C08     		addi	a1,sp,16
  67 0042 8297     		jalr	a5
  68              	.LVL8:
  69 0044 2A86     		mv	a2,a0
  70              	.LVL9:
  71              		.loc 1 87 7
  72 0046 0DE5     		bne	a0,zero,.L1
  88:C:/Users/stapi/OneDrive/Desktop/GD32VW553/V1_MQTT_OK/GD32VW55X_Wifi_BLE_SDK/GD32VW55x_RELEASE_V1.0.2/MSDK/mbedtls/mbedtls-2.17.0-ssl/library\ssl_ticket.c ****         return( ret );
  89:C:/Users/stapi/OneDrive/Desktop/GD32VW553/V1_MQTT_OK/GD32VW55X_Wifi_BLE_SDK/GD32VW55x_RELEASE_V1.0.2/MSDK/mbedtls/mbedtls-2.17.0-ssl/library\ssl_ticket.c **** 
  90:C:/Users/stapi/OneDrive/Desktop/GD32VW553/V1_MQTT_OK/GD32VW55X_Wifi_BLE_SDK/GD32VW55x_RELEASE_V1.0.2/MSDK/mbedtls/mbedtls-2.17.0-ssl/library\ssl_ticket.c ****     /* With GCM and CCM, same context can encrypt & decrypt */
  91:C:/Users/stapi/OneDrive/Desktop/GD32VW553/V1_MQTT_OK/GD32VW55X_Wifi_BLE_SDK/GD32VW55x_RELEASE_V1.0.2/MSDK/mbedtls/mbedtls-2.17.0-ssl/library\ssl_ticket.c ****     ret = mbedtls_cipher_setkey( &key->ctx, buf,
  73              		.loc 1 91 5 is_stmt 1
  74 0048 9C44     		lw	a5,8(s1)
  75              		.loc 1 91 11 is_stmt 0
  76 004a 13858400 		addi	a0,s1,8
  77              	.LVL10:
  78              	.LBB5:
  79              	.LBB6:
  80              		.file 2 "..\\..\\..\\..\\..\\ROM-EXPORT\\mbedtls-2.17.0-rom\\include/mbedtls/cipher.h"
   1:..\..\..\..\..\ROM-EXPORT\mbedtls-2.17.0-rom\include/mbedtls/cipher.h **** /**
   2:..\..\..\..\..\ROM-EXPORT\mbedtls-2.17.0-rom\include/mbedtls/cipher.h ****  * \file cipher.h
   3:..\..\..\..\..\ROM-EXPORT\mbedtls-2.17.0-rom\include/mbedtls/cipher.h ****  *
   4:..\..\..\..\..\ROM-EXPORT\mbedtls-2.17.0-rom\include/mbedtls/cipher.h ****  * \brief This file contains an abstraction interface for use with the cipher
   5:..\..\..\..\..\ROM-EXPORT\mbedtls-2.17.0-rom\include/mbedtls/cipher.h ****  * primitives provided by the library. It provides a common interface to all of
   6:..\..\..\..\..\ROM-EXPORT\mbedtls-2.17.0-rom\include/mbedtls/cipher.h ****  * the available cipher operations.
   7:..\..\..\..\..\ROM-EXPORT\mbedtls-2.17.0-rom\include/mbedtls/cipher.h ****  *
   8:..\..\..\..\..\ROM-EXPORT\mbedtls-2.17.0-rom\include/mbedtls/cipher.h ****  * \author Adriaan de Jong <dejong@fox-it.com>
   9:..\..\..\..\..\ROM-EXPORT\mbedtls-2.17.0-rom\include/mbedtls/cipher.h ****  */
  10:..\..\..\..\..\ROM-EXPORT\mbedtls-2.17.0-rom\include/mbedtls/cipher.h **** /*
  11:..\..\..\..\..\ROM-EXPORT\mbedtls-2.17.0-rom\include/mbedtls/cipher.h ****  *  Copyright (C) 2006-2018, Arm Limited (or its affiliates), All Rights Reserved
  12:..\..\..\..\..\ROM-EXPORT\mbedtls-2.17.0-rom\include/mbedtls/cipher.h ****  *  SPDX-License-Identifier: Apache-2.0
  13:..\..\..\..\..\ROM-EXPORT\mbedtls-2.17.0-rom\include/mbedtls/cipher.h ****  *
  14:..\..\..\..\..\ROM-EXPORT\mbedtls-2.17.0-rom\include/mbedtls/cipher.h ****  *  Licensed under the Apache License, Version 2.0 (the "License"); you may
  15:..\..\..\..\..\ROM-EXPORT\mbedtls-2.17.0-rom\include/mbedtls/cipher.h ****  *  not use this file except in compliance with the License.
  16:..\..\..\..\..\ROM-EXPORT\mbedtls-2.17.0-rom\include/mbedtls/cipher.h ****  *  You may obtain a copy of the License at
  17:..\..\..\..\..\ROM-EXPORT\mbedtls-2.17.0-rom\include/mbedtls/cipher.h ****  *
  18:..\..\..\..\..\ROM-EXPORT\mbedtls-2.17.0-rom\include/mbedtls/cipher.h ****  *  http://www.apache.org/licenses/LICENSE-2.0
  19:..\..\..\..\..\ROM-EXPORT\mbedtls-2.17.0-rom\include/mbedtls/cipher.h ****  *
  20:..\..\..\..\..\ROM-EXPORT\mbedtls-2.17.0-rom\include/mbedtls/cipher.h ****  *  Unless required by applicable law or agreed to in writing, software
  21:..\..\..\..\..\ROM-EXPORT\mbedtls-2.17.0-rom\include/mbedtls/cipher.h ****  *  distributed under the License is distributed on an "AS IS" BASIS, WITHOUT
  22:..\..\..\..\..\ROM-EXPORT\mbedtls-2.17.0-rom\include/mbedtls/cipher.h ****  *  WARRANTIES OR CONDITIONS OF ANY KIND, either express or implied.
  23:..\..\..\..\..\ROM-EXPORT\mbedtls-2.17.0-rom\include/mbedtls/cipher.h ****  *  See the License for the specific language governing permissions and
  24:..\..\..\..\..\ROM-EXPORT\mbedtls-2.17.0-rom\include/mbedtls/cipher.h ****  *  limitations under the License.
  25:..\..\..\..\..\ROM-EXPORT\mbedtls-2.17.0-rom\include/mbedtls/cipher.h ****  *
  26:..\..\..\..\..\ROM-EXPORT\mbedtls-2.17.0-rom\include/mbedtls/cipher.h ****  *  This file is part of Mbed TLS (https://tls.mbed.org)
  27:..\..\..\..\..\ROM-EXPORT\mbedtls-2.17.0-rom\include/mbedtls/cipher.h ****  */
  28:..\..\..\..\..\ROM-EXPORT\mbedtls-2.17.0-rom\include/mbedtls/cipher.h **** 
  29:..\..\..\..\..\ROM-EXPORT\mbedtls-2.17.0-rom\include/mbedtls/cipher.h **** #ifndef MBEDTLS_CIPHER_H
  30:..\..\..\..\..\ROM-EXPORT\mbedtls-2.17.0-rom\include/mbedtls/cipher.h **** #define MBEDTLS_CIPHER_H
  31:..\..\..\..\..\ROM-EXPORT\mbedtls-2.17.0-rom\include/mbedtls/cipher.h **** 
  32:..\..\..\..\..\ROM-EXPORT\mbedtls-2.17.0-rom\include/mbedtls/cipher.h **** #if !defined(MBEDTLS_CONFIG_FILE)
  33:..\..\..\..\..\ROM-EXPORT\mbedtls-2.17.0-rom\include/mbedtls/cipher.h **** #include "config.h"
  34:..\..\..\..\..\ROM-EXPORT\mbedtls-2.17.0-rom\include/mbedtls/cipher.h **** #else
  35:..\..\..\..\..\ROM-EXPORT\mbedtls-2.17.0-rom\include/mbedtls/cipher.h **** #include MBEDTLS_CONFIG_FILE
  36:..\..\..\..\..\ROM-EXPORT\mbedtls-2.17.0-rom\include/mbedtls/cipher.h **** #endif
  37:..\..\..\..\..\ROM-EXPORT\mbedtls-2.17.0-rom\include/mbedtls/cipher.h **** 
  38:..\..\..\..\..\ROM-EXPORT\mbedtls-2.17.0-rom\include/mbedtls/cipher.h **** #ifndef MBEDTLS_ROM_TEST
  39:..\..\..\..\..\ROM-EXPORT\mbedtls-2.17.0-rom\include/mbedtls/cipher.h **** #include <stddef.h>
  40:..\..\..\..\..\ROM-EXPORT\mbedtls-2.17.0-rom\include/mbedtls/cipher.h **** #endif
  41:..\..\..\..\..\ROM-EXPORT\mbedtls-2.17.0-rom\include/mbedtls/cipher.h **** 
  42:..\..\..\..\..\ROM-EXPORT\mbedtls-2.17.0-rom\include/mbedtls/cipher.h **** #include "platform_util.h"
  43:..\..\..\..\..\ROM-EXPORT\mbedtls-2.17.0-rom\include/mbedtls/cipher.h **** 
  44:..\..\..\..\..\ROM-EXPORT\mbedtls-2.17.0-rom\include/mbedtls/cipher.h **** #if defined(MBEDTLS_GCM_C) || defined(MBEDTLS_CCM_C) || defined(MBEDTLS_CHACHAPOLY_C)
  45:..\..\..\..\..\ROM-EXPORT\mbedtls-2.17.0-rom\include/mbedtls/cipher.h **** #define MBEDTLS_CIPHER_MODE_AEAD
  46:..\..\..\..\..\ROM-EXPORT\mbedtls-2.17.0-rom\include/mbedtls/cipher.h **** #endif
  47:..\..\..\..\..\ROM-EXPORT\mbedtls-2.17.0-rom\include/mbedtls/cipher.h **** 
  48:..\..\..\..\..\ROM-EXPORT\mbedtls-2.17.0-rom\include/mbedtls/cipher.h **** #if defined(MBEDTLS_CIPHER_MODE_CBC)
  49:..\..\..\..\..\ROM-EXPORT\mbedtls-2.17.0-rom\include/mbedtls/cipher.h **** #define MBEDTLS_CIPHER_MODE_WITH_PADDING
  50:..\..\..\..\..\ROM-EXPORT\mbedtls-2.17.0-rom\include/mbedtls/cipher.h **** #endif
  51:..\..\..\..\..\ROM-EXPORT\mbedtls-2.17.0-rom\include/mbedtls/cipher.h **** 
  52:..\..\..\..\..\ROM-EXPORT\mbedtls-2.17.0-rom\include/mbedtls/cipher.h **** #if defined(MBEDTLS_ARC4_C) || defined(MBEDTLS_CIPHER_NULL_CIPHER) || \
  53:..\..\..\..\..\ROM-EXPORT\mbedtls-2.17.0-rom\include/mbedtls/cipher.h ****     defined(MBEDTLS_CHACHA20_C)
  54:..\..\..\..\..\ROM-EXPORT\mbedtls-2.17.0-rom\include/mbedtls/cipher.h **** #define MBEDTLS_CIPHER_MODE_STREAM
  55:..\..\..\..\..\ROM-EXPORT\mbedtls-2.17.0-rom\include/mbedtls/cipher.h **** #endif
  56:..\..\..\..\..\ROM-EXPORT\mbedtls-2.17.0-rom\include/mbedtls/cipher.h **** 
  57:..\..\..\..\..\ROM-EXPORT\mbedtls-2.17.0-rom\include/mbedtls/cipher.h **** #if ( defined(__ARMCC_VERSION) || defined(_MSC_VER) ) && \
  58:..\..\..\..\..\ROM-EXPORT\mbedtls-2.17.0-rom\include/mbedtls/cipher.h ****     !defined(inline) && !defined(__cplusplus)
  59:..\..\..\..\..\ROM-EXPORT\mbedtls-2.17.0-rom\include/mbedtls/cipher.h **** #define inline __inline
  60:..\..\..\..\..\ROM-EXPORT\mbedtls-2.17.0-rom\include/mbedtls/cipher.h **** #endif
  61:..\..\..\..\..\ROM-EXPORT\mbedtls-2.17.0-rom\include/mbedtls/cipher.h **** 
  62:..\..\..\..\..\ROM-EXPORT\mbedtls-2.17.0-rom\include/mbedtls/cipher.h **** #define MBEDTLS_ERR_CIPHER_FEATURE_UNAVAILABLE  -0x6080  /**< The selected feature is not available
  63:..\..\..\..\..\ROM-EXPORT\mbedtls-2.17.0-rom\include/mbedtls/cipher.h **** #define MBEDTLS_ERR_CIPHER_BAD_INPUT_DATA       -0x6100  /**< Bad input parameters. */
  64:..\..\..\..\..\ROM-EXPORT\mbedtls-2.17.0-rom\include/mbedtls/cipher.h **** #define MBEDTLS_ERR_CIPHER_ALLOC_FAILED         -0x6180  /**< Failed to allocate memory. */
  65:..\..\..\..\..\ROM-EXPORT\mbedtls-2.17.0-rom\include/mbedtls/cipher.h **** #define MBEDTLS_ERR_CIPHER_INVALID_PADDING      -0x6200  /**< Input data contains invalid padding a
  66:..\..\..\..\..\ROM-EXPORT\mbedtls-2.17.0-rom\include/mbedtls/cipher.h **** #define MBEDTLS_ERR_CIPHER_FULL_BLOCK_EXPECTED  -0x6280  /**< Decryption of block requires a full b
  67:..\..\..\..\..\ROM-EXPORT\mbedtls-2.17.0-rom\include/mbedtls/cipher.h **** #define MBEDTLS_ERR_CIPHER_AUTH_FAILED          -0x6300  /**< Authentication failed (for AEAD modes
  68:..\..\..\..\..\ROM-EXPORT\mbedtls-2.17.0-rom\include/mbedtls/cipher.h **** #define MBEDTLS_ERR_CIPHER_INVALID_CONTEXT      -0x6380  /**< The context is invalid. For example, 
  69:..\..\..\..\..\ROM-EXPORT\mbedtls-2.17.0-rom\include/mbedtls/cipher.h **** 
  70:..\..\..\..\..\ROM-EXPORT\mbedtls-2.17.0-rom\include/mbedtls/cipher.h **** /* MBEDTLS_ERR_CIPHER_HW_ACCEL_FAILED is deprecated and should not be used. */
  71:..\..\..\..\..\ROM-EXPORT\mbedtls-2.17.0-rom\include/mbedtls/cipher.h **** #define MBEDTLS_ERR_CIPHER_HW_ACCEL_FAILED      -0x6400  /**< Cipher hardware accelerator failed. *
  72:..\..\..\..\..\ROM-EXPORT\mbedtls-2.17.0-rom\include/mbedtls/cipher.h **** 
  73:..\..\..\..\..\ROM-EXPORT\mbedtls-2.17.0-rom\include/mbedtls/cipher.h **** #define MBEDTLS_CIPHER_VARIABLE_IV_LEN     0x01    /**< Cipher accepts IVs of variable length. */
  74:..\..\..\..\..\ROM-EXPORT\mbedtls-2.17.0-rom\include/mbedtls/cipher.h **** #define MBEDTLS_CIPHER_VARIABLE_KEY_LEN    0x02    /**< Cipher accepts keys of variable length. */
  75:..\..\..\..\..\ROM-EXPORT\mbedtls-2.17.0-rom\include/mbedtls/cipher.h **** 
  76:..\..\..\..\..\ROM-EXPORT\mbedtls-2.17.0-rom\include/mbedtls/cipher.h **** #ifdef __cplusplus
  77:..\..\..\..\..\ROM-EXPORT\mbedtls-2.17.0-rom\include/mbedtls/cipher.h **** extern "C" {
  78:..\..\..\..\..\ROM-EXPORT\mbedtls-2.17.0-rom\include/mbedtls/cipher.h **** #endif
  79:..\..\..\..\..\ROM-EXPORT\mbedtls-2.17.0-rom\include/mbedtls/cipher.h **** 
  80:..\..\..\..\..\ROM-EXPORT\mbedtls-2.17.0-rom\include/mbedtls/cipher.h **** /**
  81:..\..\..\..\..\ROM-EXPORT\mbedtls-2.17.0-rom\include/mbedtls/cipher.h ****  * \brief     Supported cipher types.
  82:..\..\..\..\..\ROM-EXPORT\mbedtls-2.17.0-rom\include/mbedtls/cipher.h ****  *
  83:..\..\..\..\..\ROM-EXPORT\mbedtls-2.17.0-rom\include/mbedtls/cipher.h ****  * \warning   RC4 and DES are considered weak ciphers and their use
  84:..\..\..\..\..\ROM-EXPORT\mbedtls-2.17.0-rom\include/mbedtls/cipher.h ****  *            constitutes a security risk. Arm recommends considering stronger
  85:..\..\..\..\..\ROM-EXPORT\mbedtls-2.17.0-rom\include/mbedtls/cipher.h ****  *            ciphers instead.
  86:..\..\..\..\..\ROM-EXPORT\mbedtls-2.17.0-rom\include/mbedtls/cipher.h ****  */
  87:..\..\..\..\..\ROM-EXPORT\mbedtls-2.17.0-rom\include/mbedtls/cipher.h **** typedef enum {
  88:..\..\..\..\..\ROM-EXPORT\mbedtls-2.17.0-rom\include/mbedtls/cipher.h ****     MBEDTLS_CIPHER_ID_NONE = 0,  /**< Placeholder to mark the end of cipher ID lists. */
  89:..\..\..\..\..\ROM-EXPORT\mbedtls-2.17.0-rom\include/mbedtls/cipher.h ****     MBEDTLS_CIPHER_ID_NULL,      /**< The identity cipher, treated as a stream cipher. */
  90:..\..\..\..\..\ROM-EXPORT\mbedtls-2.17.0-rom\include/mbedtls/cipher.h ****     MBEDTLS_CIPHER_ID_AES,       /**< The AES cipher. */
  91:..\..\..\..\..\ROM-EXPORT\mbedtls-2.17.0-rom\include/mbedtls/cipher.h ****     MBEDTLS_CIPHER_ID_DES,       /**< The DES cipher. */
  92:..\..\..\..\..\ROM-EXPORT\mbedtls-2.17.0-rom\include/mbedtls/cipher.h ****     MBEDTLS_CIPHER_ID_3DES,      /**< The Triple DES cipher. */
  93:..\..\..\..\..\ROM-EXPORT\mbedtls-2.17.0-rom\include/mbedtls/cipher.h ****     MBEDTLS_CIPHER_ID_CAMELLIA,  /**< The Camellia cipher. */
  94:..\..\..\..\..\ROM-EXPORT\mbedtls-2.17.0-rom\include/mbedtls/cipher.h ****     MBEDTLS_CIPHER_ID_BLOWFISH,  /**< The Blowfish cipher. */
  95:..\..\..\..\..\ROM-EXPORT\mbedtls-2.17.0-rom\include/mbedtls/cipher.h ****     MBEDTLS_CIPHER_ID_ARC4,      /**< The RC4 cipher. */
  96:..\..\..\..\..\ROM-EXPORT\mbedtls-2.17.0-rom\include/mbedtls/cipher.h ****     MBEDTLS_CIPHER_ID_ARIA,      /**< The Aria cipher. */
  97:..\..\..\..\..\ROM-EXPORT\mbedtls-2.17.0-rom\include/mbedtls/cipher.h ****     MBEDTLS_CIPHER_ID_CHACHA20,  /**< The ChaCha20 cipher. */
  98:..\..\..\..\..\ROM-EXPORT\mbedtls-2.17.0-rom\include/mbedtls/cipher.h **** } mbedtls_cipher_id_t;
  99:..\..\..\..\..\ROM-EXPORT\mbedtls-2.17.0-rom\include/mbedtls/cipher.h **** 
 100:..\..\..\..\..\ROM-EXPORT\mbedtls-2.17.0-rom\include/mbedtls/cipher.h **** /**
 101:..\..\..\..\..\ROM-EXPORT\mbedtls-2.17.0-rom\include/mbedtls/cipher.h ****  * \brief     Supported {cipher type, cipher mode} pairs.
 102:..\..\..\..\..\ROM-EXPORT\mbedtls-2.17.0-rom\include/mbedtls/cipher.h ****  *
 103:..\..\..\..\..\ROM-EXPORT\mbedtls-2.17.0-rom\include/mbedtls/cipher.h ****  * \warning   RC4 and DES are considered weak ciphers and their use
 104:..\..\..\..\..\ROM-EXPORT\mbedtls-2.17.0-rom\include/mbedtls/cipher.h ****  *            constitutes a security risk. Arm recommends considering stronger
 105:..\..\..\..\..\ROM-EXPORT\mbedtls-2.17.0-rom\include/mbedtls/cipher.h ****  *            ciphers instead.
 106:..\..\..\..\..\ROM-EXPORT\mbedtls-2.17.0-rom\include/mbedtls/cipher.h ****  */
 107:..\..\..\..\..\ROM-EXPORT\mbedtls-2.17.0-rom\include/mbedtls/cipher.h **** typedef enum {
 108:..\..\..\..\..\ROM-EXPORT\mbedtls-2.17.0-rom\include/mbedtls/cipher.h ****     MBEDTLS_CIPHER_NONE = 0,             /**< Placeholder to mark the end of cipher-pair lists. */
 109:..\..\..\..\..\ROM-EXPORT\mbedtls-2.17.0-rom\include/mbedtls/cipher.h ****     MBEDTLS_CIPHER_NULL,                 /**< The identity stream cipher. */
 110:..\..\..\..\..\ROM-EXPORT\mbedtls-2.17.0-rom\include/mbedtls/cipher.h ****     MBEDTLS_CIPHER_AES_128_ECB,          /**< AES cipher with 128-bit ECB mode. */
 111:..\..\..\..\..\ROM-EXPORT\mbedtls-2.17.0-rom\include/mbedtls/cipher.h ****     MBEDTLS_CIPHER_AES_192_ECB,          /**< AES cipher with 192-bit ECB mode. */
 112:..\..\..\..\..\ROM-EXPORT\mbedtls-2.17.0-rom\include/mbedtls/cipher.h ****     MBEDTLS_CIPHER_AES_256_ECB,          /**< AES cipher with 256-bit ECB mode. */
 113:..\..\..\..\..\ROM-EXPORT\mbedtls-2.17.0-rom\include/mbedtls/cipher.h ****     MBEDTLS_CIPHER_AES_128_CBC,          /**< AES cipher with 128-bit CBC mode. */
 114:..\..\..\..\..\ROM-EXPORT\mbedtls-2.17.0-rom\include/mbedtls/cipher.h ****     MBEDTLS_CIPHER_AES_192_CBC,          /**< AES cipher with 192-bit CBC mode. */
 115:..\..\..\..\..\ROM-EXPORT\mbedtls-2.17.0-rom\include/mbedtls/cipher.h ****     MBEDTLS_CIPHER_AES_256_CBC,          /**< AES cipher with 256-bit CBC mode. */
 116:..\..\..\..\..\ROM-EXPORT\mbedtls-2.17.0-rom\include/mbedtls/cipher.h ****     MBEDTLS_CIPHER_AES_128_CFB128,       /**< AES cipher with 128-bit CFB128 mode. */
 117:..\..\..\..\..\ROM-EXPORT\mbedtls-2.17.0-rom\include/mbedtls/cipher.h ****     MBEDTLS_CIPHER_AES_192_CFB128,       /**< AES cipher with 192-bit CFB128 mode. */
 118:..\..\..\..\..\ROM-EXPORT\mbedtls-2.17.0-rom\include/mbedtls/cipher.h ****     MBEDTLS_CIPHER_AES_256_CFB128,       /**< AES cipher with 256-bit CFB128 mode. */
 119:..\..\..\..\..\ROM-EXPORT\mbedtls-2.17.0-rom\include/mbedtls/cipher.h ****     MBEDTLS_CIPHER_AES_128_CTR,          /**< AES cipher with 128-bit CTR mode. */
 120:..\..\..\..\..\ROM-EXPORT\mbedtls-2.17.0-rom\include/mbedtls/cipher.h ****     MBEDTLS_CIPHER_AES_192_CTR,          /**< AES cipher with 192-bit CTR mode. */
 121:..\..\..\..\..\ROM-EXPORT\mbedtls-2.17.0-rom\include/mbedtls/cipher.h ****     MBEDTLS_CIPHER_AES_256_CTR,          /**< AES cipher with 256-bit CTR mode. */
 122:..\..\..\..\..\ROM-EXPORT\mbedtls-2.17.0-rom\include/mbedtls/cipher.h ****     MBEDTLS_CIPHER_AES_128_GCM,          /**< AES cipher with 128-bit GCM mode. */
 123:..\..\..\..\..\ROM-EXPORT\mbedtls-2.17.0-rom\include/mbedtls/cipher.h ****     MBEDTLS_CIPHER_AES_192_GCM,          /**< AES cipher with 192-bit GCM mode. */
 124:..\..\..\..\..\ROM-EXPORT\mbedtls-2.17.0-rom\include/mbedtls/cipher.h ****     MBEDTLS_CIPHER_AES_256_GCM,          /**< AES cipher with 256-bit GCM mode. */
 125:..\..\..\..\..\ROM-EXPORT\mbedtls-2.17.0-rom\include/mbedtls/cipher.h ****     MBEDTLS_CIPHER_CAMELLIA_128_ECB,     /**< Camellia cipher with 128-bit ECB mode. */
 126:..\..\..\..\..\ROM-EXPORT\mbedtls-2.17.0-rom\include/mbedtls/cipher.h ****     MBEDTLS_CIPHER_CAMELLIA_192_ECB,     /**< Camellia cipher with 192-bit ECB mode. */
 127:..\..\..\..\..\ROM-EXPORT\mbedtls-2.17.0-rom\include/mbedtls/cipher.h ****     MBEDTLS_CIPHER_CAMELLIA_256_ECB,     /**< Camellia cipher with 256-bit ECB mode. */
 128:..\..\..\..\..\ROM-EXPORT\mbedtls-2.17.0-rom\include/mbedtls/cipher.h ****     MBEDTLS_CIPHER_CAMELLIA_128_CBC,     /**< Camellia cipher with 128-bit CBC mode. */
 129:..\..\..\..\..\ROM-EXPORT\mbedtls-2.17.0-rom\include/mbedtls/cipher.h ****     MBEDTLS_CIPHER_CAMELLIA_192_CBC,     /**< Camellia cipher with 192-bit CBC mode. */
 130:..\..\..\..\..\ROM-EXPORT\mbedtls-2.17.0-rom\include/mbedtls/cipher.h ****     MBEDTLS_CIPHER_CAMELLIA_256_CBC,     /**< Camellia cipher with 256-bit CBC mode. */
 131:..\..\..\..\..\ROM-EXPORT\mbedtls-2.17.0-rom\include/mbedtls/cipher.h ****     MBEDTLS_CIPHER_CAMELLIA_128_CFB128,  /**< Camellia cipher with 128-bit CFB128 mode. */
 132:..\..\..\..\..\ROM-EXPORT\mbedtls-2.17.0-rom\include/mbedtls/cipher.h ****     MBEDTLS_CIPHER_CAMELLIA_192_CFB128,  /**< Camellia cipher with 192-bit CFB128 mode. */
 133:..\..\..\..\..\ROM-EXPORT\mbedtls-2.17.0-rom\include/mbedtls/cipher.h ****     MBEDTLS_CIPHER_CAMELLIA_256_CFB128,  /**< Camellia cipher with 256-bit CFB128 mode. */
 134:..\..\..\..\..\ROM-EXPORT\mbedtls-2.17.0-rom\include/mbedtls/cipher.h ****     MBEDTLS_CIPHER_CAMELLIA_128_CTR,     /**< Camellia cipher with 128-bit CTR mode. */
 135:..\..\..\..\..\ROM-EXPORT\mbedtls-2.17.0-rom\include/mbedtls/cipher.h ****     MBEDTLS_CIPHER_CAMELLIA_192_CTR,     /**< Camellia cipher with 192-bit CTR mode. */
 136:..\..\..\..\..\ROM-EXPORT\mbedtls-2.17.0-rom\include/mbedtls/cipher.h ****     MBEDTLS_CIPHER_CAMELLIA_256_CTR,     /**< Camellia cipher with 256-bit CTR mode. */
 137:..\..\..\..\..\ROM-EXPORT\mbedtls-2.17.0-rom\include/mbedtls/cipher.h ****     MBEDTLS_CIPHER_CAMELLIA_128_GCM,     /**< Camellia cipher with 128-bit GCM mode. */
 138:..\..\..\..\..\ROM-EXPORT\mbedtls-2.17.0-rom\include/mbedtls/cipher.h ****     MBEDTLS_CIPHER_CAMELLIA_192_GCM,     /**< Camellia cipher with 192-bit GCM mode. */
 139:..\..\..\..\..\ROM-EXPORT\mbedtls-2.17.0-rom\include/mbedtls/cipher.h ****     MBEDTLS_CIPHER_CAMELLIA_256_GCM,     /**< Camellia cipher with 256-bit GCM mode. */
 140:..\..\..\..\..\ROM-EXPORT\mbedtls-2.17.0-rom\include/mbedtls/cipher.h ****     MBEDTLS_CIPHER_DES_ECB,              /**< DES cipher with ECB mode. */
 141:..\..\..\..\..\ROM-EXPORT\mbedtls-2.17.0-rom\include/mbedtls/cipher.h ****     MBEDTLS_CIPHER_DES_CBC,              /**< DES cipher with CBC mode. */
 142:..\..\..\..\..\ROM-EXPORT\mbedtls-2.17.0-rom\include/mbedtls/cipher.h ****     MBEDTLS_CIPHER_DES_EDE_ECB,          /**< DES cipher with EDE ECB mode. */
 143:..\..\..\..\..\ROM-EXPORT\mbedtls-2.17.0-rom\include/mbedtls/cipher.h ****     MBEDTLS_CIPHER_DES_EDE_CBC,          /**< DES cipher with EDE CBC mode. */
 144:..\..\..\..\..\ROM-EXPORT\mbedtls-2.17.0-rom\include/mbedtls/cipher.h ****     MBEDTLS_CIPHER_DES_EDE3_ECB,         /**< DES cipher with EDE3 ECB mode. */
 145:..\..\..\..\..\ROM-EXPORT\mbedtls-2.17.0-rom\include/mbedtls/cipher.h ****     MBEDTLS_CIPHER_DES_EDE3_CBC,         /**< DES cipher with EDE3 CBC mode. */
 146:..\..\..\..\..\ROM-EXPORT\mbedtls-2.17.0-rom\include/mbedtls/cipher.h ****     MBEDTLS_CIPHER_BLOWFISH_ECB,         /**< Blowfish cipher with ECB mode. */
 147:..\..\..\..\..\ROM-EXPORT\mbedtls-2.17.0-rom\include/mbedtls/cipher.h ****     MBEDTLS_CIPHER_BLOWFISH_CBC,         /**< Blowfish cipher with CBC mode. */
 148:..\..\..\..\..\ROM-EXPORT\mbedtls-2.17.0-rom\include/mbedtls/cipher.h ****     MBEDTLS_CIPHER_BLOWFISH_CFB64,       /**< Blowfish cipher with CFB64 mode. */
 149:..\..\..\..\..\ROM-EXPORT\mbedtls-2.17.0-rom\include/mbedtls/cipher.h ****     MBEDTLS_CIPHER_BLOWFISH_CTR,         /**< Blowfish cipher with CTR mode. */
 150:..\..\..\..\..\ROM-EXPORT\mbedtls-2.17.0-rom\include/mbedtls/cipher.h ****     MBEDTLS_CIPHER_ARC4_128,             /**< RC4 cipher with 128-bit mode. */
 151:..\..\..\..\..\ROM-EXPORT\mbedtls-2.17.0-rom\include/mbedtls/cipher.h ****     MBEDTLS_CIPHER_AES_128_CCM,          /**< AES cipher with 128-bit CCM mode. */
 152:..\..\..\..\..\ROM-EXPORT\mbedtls-2.17.0-rom\include/mbedtls/cipher.h ****     MBEDTLS_CIPHER_AES_192_CCM,          /**< AES cipher with 192-bit CCM mode. */
 153:..\..\..\..\..\ROM-EXPORT\mbedtls-2.17.0-rom\include/mbedtls/cipher.h ****     MBEDTLS_CIPHER_AES_256_CCM,          /**< AES cipher with 256-bit CCM mode. */
 154:..\..\..\..\..\ROM-EXPORT\mbedtls-2.17.0-rom\include/mbedtls/cipher.h ****     MBEDTLS_CIPHER_CAMELLIA_128_CCM,     /**< Camellia cipher with 128-bit CCM mode. */
 155:..\..\..\..\..\ROM-EXPORT\mbedtls-2.17.0-rom\include/mbedtls/cipher.h ****     MBEDTLS_CIPHER_CAMELLIA_192_CCM,     /**< Camellia cipher with 192-bit CCM mode. */
 156:..\..\..\..\..\ROM-EXPORT\mbedtls-2.17.0-rom\include/mbedtls/cipher.h ****     MBEDTLS_CIPHER_CAMELLIA_256_CCM,     /**< Camellia cipher with 256-bit CCM mode. */
 157:..\..\..\..\..\ROM-EXPORT\mbedtls-2.17.0-rom\include/mbedtls/cipher.h ****     MBEDTLS_CIPHER_ARIA_128_ECB,         /**< Aria cipher with 128-bit key and ECB mode. */
 158:..\..\..\..\..\ROM-EXPORT\mbedtls-2.17.0-rom\include/mbedtls/cipher.h ****     MBEDTLS_CIPHER_ARIA_192_ECB,         /**< Aria cipher with 192-bit key and ECB mode. */
 159:..\..\..\..\..\ROM-EXPORT\mbedtls-2.17.0-rom\include/mbedtls/cipher.h ****     MBEDTLS_CIPHER_ARIA_256_ECB,         /**< Aria cipher with 256-bit key and ECB mode. */
 160:..\..\..\..\..\ROM-EXPORT\mbedtls-2.17.0-rom\include/mbedtls/cipher.h ****     MBEDTLS_CIPHER_ARIA_128_CBC,         /**< Aria cipher with 128-bit key and CBC mode. */
 161:..\..\..\..\..\ROM-EXPORT\mbedtls-2.17.0-rom\include/mbedtls/cipher.h ****     MBEDTLS_CIPHER_ARIA_192_CBC,         /**< Aria cipher with 192-bit key and CBC mode. */
 162:..\..\..\..\..\ROM-EXPORT\mbedtls-2.17.0-rom\include/mbedtls/cipher.h ****     MBEDTLS_CIPHER_ARIA_256_CBC,         /**< Aria cipher with 256-bit key and CBC mode. */
 163:..\..\..\..\..\ROM-EXPORT\mbedtls-2.17.0-rom\include/mbedtls/cipher.h ****     MBEDTLS_CIPHER_ARIA_128_CFB128,      /**< Aria cipher with 128-bit key and CFB-128 mode. */
 164:..\..\..\..\..\ROM-EXPORT\mbedtls-2.17.0-rom\include/mbedtls/cipher.h ****     MBEDTLS_CIPHER_ARIA_192_CFB128,      /**< Aria cipher with 192-bit key and CFB-128 mode. */
 165:..\..\..\..\..\ROM-EXPORT\mbedtls-2.17.0-rom\include/mbedtls/cipher.h ****     MBEDTLS_CIPHER_ARIA_256_CFB128,      /**< Aria cipher with 256-bit key and CFB-128 mode. */
 166:..\..\..\..\..\ROM-EXPORT\mbedtls-2.17.0-rom\include/mbedtls/cipher.h ****     MBEDTLS_CIPHER_ARIA_128_CTR,         /**< Aria cipher with 128-bit key and CTR mode. */
 167:..\..\..\..\..\ROM-EXPORT\mbedtls-2.17.0-rom\include/mbedtls/cipher.h ****     MBEDTLS_CIPHER_ARIA_192_CTR,         /**< Aria cipher with 192-bit key and CTR mode. */
 168:..\..\..\..\..\ROM-EXPORT\mbedtls-2.17.0-rom\include/mbedtls/cipher.h ****     MBEDTLS_CIPHER_ARIA_256_CTR,         /**< Aria cipher with 256-bit key and CTR mode. */
 169:..\..\..\..\..\ROM-EXPORT\mbedtls-2.17.0-rom\include/mbedtls/cipher.h ****     MBEDTLS_CIPHER_ARIA_128_GCM,         /**< Aria cipher with 128-bit key and GCM mode. */
 170:..\..\..\..\..\ROM-EXPORT\mbedtls-2.17.0-rom\include/mbedtls/cipher.h ****     MBEDTLS_CIPHER_ARIA_192_GCM,         /**< Aria cipher with 192-bit key and GCM mode. */
 171:..\..\..\..\..\ROM-EXPORT\mbedtls-2.17.0-rom\include/mbedtls/cipher.h ****     MBEDTLS_CIPHER_ARIA_256_GCM,         /**< Aria cipher with 256-bit key and GCM mode. */
 172:..\..\..\..\..\ROM-EXPORT\mbedtls-2.17.0-rom\include/mbedtls/cipher.h ****     MBEDTLS_CIPHER_ARIA_128_CCM,         /**< Aria cipher with 128-bit key and CCM mode. */
 173:..\..\..\..\..\ROM-EXPORT\mbedtls-2.17.0-rom\include/mbedtls/cipher.h ****     MBEDTLS_CIPHER_ARIA_192_CCM,         /**< Aria cipher with 192-bit key and CCM mode. */
 174:..\..\..\..\..\ROM-EXPORT\mbedtls-2.17.0-rom\include/mbedtls/cipher.h ****     MBEDTLS_CIPHER_ARIA_256_CCM,         /**< Aria cipher with 256-bit key and CCM mode. */
 175:..\..\..\..\..\ROM-EXPORT\mbedtls-2.17.0-rom\include/mbedtls/cipher.h ****     MBEDTLS_CIPHER_AES_128_OFB,          /**< AES 128-bit cipher in OFB mode. */
 176:..\..\..\..\..\ROM-EXPORT\mbedtls-2.17.0-rom\include/mbedtls/cipher.h ****     MBEDTLS_CIPHER_AES_192_OFB,          /**< AES 192-bit cipher in OFB mode. */
 177:..\..\..\..\..\ROM-EXPORT\mbedtls-2.17.0-rom\include/mbedtls/cipher.h ****     MBEDTLS_CIPHER_AES_256_OFB,          /**< AES 256-bit cipher in OFB mode. */
 178:..\..\..\..\..\ROM-EXPORT\mbedtls-2.17.0-rom\include/mbedtls/cipher.h ****     MBEDTLS_CIPHER_AES_128_XTS,          /**< AES 128-bit cipher in XTS block mode. */
 179:..\..\..\..\..\ROM-EXPORT\mbedtls-2.17.0-rom\include/mbedtls/cipher.h ****     MBEDTLS_CIPHER_AES_256_XTS,          /**< AES 256-bit cipher in XTS block mode. */
 180:..\..\..\..\..\ROM-EXPORT\mbedtls-2.17.0-rom\include/mbedtls/cipher.h ****     MBEDTLS_CIPHER_CHACHA20,             /**< ChaCha20 stream cipher. */
 181:..\..\..\..\..\ROM-EXPORT\mbedtls-2.17.0-rom\include/mbedtls/cipher.h ****     MBEDTLS_CIPHER_CHACHA20_POLY1305,    /**< ChaCha20-Poly1305 AEAD cipher. */
 182:..\..\..\..\..\ROM-EXPORT\mbedtls-2.17.0-rom\include/mbedtls/cipher.h **** } mbedtls_cipher_type_t;
 183:..\..\..\..\..\ROM-EXPORT\mbedtls-2.17.0-rom\include/mbedtls/cipher.h **** 
 184:..\..\..\..\..\ROM-EXPORT\mbedtls-2.17.0-rom\include/mbedtls/cipher.h **** /** Supported cipher modes. */
 185:..\..\..\..\..\ROM-EXPORT\mbedtls-2.17.0-rom\include/mbedtls/cipher.h **** typedef enum {
 186:..\..\..\..\..\ROM-EXPORT\mbedtls-2.17.0-rom\include/mbedtls/cipher.h ****     MBEDTLS_MODE_NONE = 0,               /**< None.                        */
 187:..\..\..\..\..\ROM-EXPORT\mbedtls-2.17.0-rom\include/mbedtls/cipher.h ****     MBEDTLS_MODE_ECB,                    /**< The ECB cipher mode.         */
 188:..\..\..\..\..\ROM-EXPORT\mbedtls-2.17.0-rom\include/mbedtls/cipher.h ****     MBEDTLS_MODE_CBC,                    /**< The CBC cipher mode.         */
 189:..\..\..\..\..\ROM-EXPORT\mbedtls-2.17.0-rom\include/mbedtls/cipher.h ****     MBEDTLS_MODE_CFB,                    /**< The CFB cipher mode.         */
 190:..\..\..\..\..\ROM-EXPORT\mbedtls-2.17.0-rom\include/mbedtls/cipher.h ****     MBEDTLS_MODE_OFB,                    /**< The OFB cipher mode.         */
 191:..\..\..\..\..\ROM-EXPORT\mbedtls-2.17.0-rom\include/mbedtls/cipher.h ****     MBEDTLS_MODE_CTR,                    /**< The CTR cipher mode.         */
 192:..\..\..\..\..\ROM-EXPORT\mbedtls-2.17.0-rom\include/mbedtls/cipher.h ****     MBEDTLS_MODE_GCM,                    /**< The GCM cipher mode.         */
 193:..\..\..\..\..\ROM-EXPORT\mbedtls-2.17.0-rom\include/mbedtls/cipher.h ****     MBEDTLS_MODE_STREAM,                 /**< The stream cipher mode.      */
 194:..\..\..\..\..\ROM-EXPORT\mbedtls-2.17.0-rom\include/mbedtls/cipher.h ****     MBEDTLS_MODE_CCM,                    /**< The CCM cipher mode.         */
 195:..\..\..\..\..\ROM-EXPORT\mbedtls-2.17.0-rom\include/mbedtls/cipher.h ****     MBEDTLS_MODE_XTS,                    /**< The XTS cipher mode.         */
 196:..\..\..\..\..\ROM-EXPORT\mbedtls-2.17.0-rom\include/mbedtls/cipher.h ****     MBEDTLS_MODE_CHACHAPOLY,             /**< The ChaCha-Poly cipher mode. */
 197:..\..\..\..\..\ROM-EXPORT\mbedtls-2.17.0-rom\include/mbedtls/cipher.h **** } mbedtls_cipher_mode_t;
 198:..\..\..\..\..\ROM-EXPORT\mbedtls-2.17.0-rom\include/mbedtls/cipher.h **** 
 199:..\..\..\..\..\ROM-EXPORT\mbedtls-2.17.0-rom\include/mbedtls/cipher.h **** /** Supported cipher padding types. */
 200:..\..\..\..\..\ROM-EXPORT\mbedtls-2.17.0-rom\include/mbedtls/cipher.h **** typedef enum {
 201:..\..\..\..\..\ROM-EXPORT\mbedtls-2.17.0-rom\include/mbedtls/cipher.h ****     MBEDTLS_PADDING_PKCS7 = 0,     /**< PKCS7 padding (default).        */
 202:..\..\..\..\..\ROM-EXPORT\mbedtls-2.17.0-rom\include/mbedtls/cipher.h ****     MBEDTLS_PADDING_ONE_AND_ZEROS, /**< ISO/IEC 7816-4 padding.         */
 203:..\..\..\..\..\ROM-EXPORT\mbedtls-2.17.0-rom\include/mbedtls/cipher.h ****     MBEDTLS_PADDING_ZEROS_AND_LEN, /**< ANSI X.923 padding.             */
 204:..\..\..\..\..\ROM-EXPORT\mbedtls-2.17.0-rom\include/mbedtls/cipher.h ****     MBEDTLS_PADDING_ZEROS,         /**< Zero padding (not reversible). */
 205:..\..\..\..\..\ROM-EXPORT\mbedtls-2.17.0-rom\include/mbedtls/cipher.h ****     MBEDTLS_PADDING_NONE,          /**< Never pad (full blocks only).   */
 206:..\..\..\..\..\ROM-EXPORT\mbedtls-2.17.0-rom\include/mbedtls/cipher.h **** } mbedtls_cipher_padding_t;
 207:..\..\..\..\..\ROM-EXPORT\mbedtls-2.17.0-rom\include/mbedtls/cipher.h **** 
 208:..\..\..\..\..\ROM-EXPORT\mbedtls-2.17.0-rom\include/mbedtls/cipher.h **** /** Type of operation. */
 209:..\..\..\..\..\ROM-EXPORT\mbedtls-2.17.0-rom\include/mbedtls/cipher.h **** typedef enum {
 210:..\..\..\..\..\ROM-EXPORT\mbedtls-2.17.0-rom\include/mbedtls/cipher.h ****     MBEDTLS_OPERATION_NONE = -1,
 211:..\..\..\..\..\ROM-EXPORT\mbedtls-2.17.0-rom\include/mbedtls/cipher.h ****     MBEDTLS_DECRYPT = 0,
 212:..\..\..\..\..\ROM-EXPORT\mbedtls-2.17.0-rom\include/mbedtls/cipher.h ****     MBEDTLS_ENCRYPT,
 213:..\..\..\..\..\ROM-EXPORT\mbedtls-2.17.0-rom\include/mbedtls/cipher.h **** } mbedtls_operation_t;
 214:..\..\..\..\..\ROM-EXPORT\mbedtls-2.17.0-rom\include/mbedtls/cipher.h **** 
 215:..\..\..\..\..\ROM-EXPORT\mbedtls-2.17.0-rom\include/mbedtls/cipher.h **** enum {
 216:..\..\..\..\..\ROM-EXPORT\mbedtls-2.17.0-rom\include/mbedtls/cipher.h ****     /** Undefined key length. */
 217:..\..\..\..\..\ROM-EXPORT\mbedtls-2.17.0-rom\include/mbedtls/cipher.h ****     MBEDTLS_KEY_LENGTH_NONE = 0,
 218:..\..\..\..\..\ROM-EXPORT\mbedtls-2.17.0-rom\include/mbedtls/cipher.h ****     /** Key length, in bits (including parity), for DES keys. */
 219:..\..\..\..\..\ROM-EXPORT\mbedtls-2.17.0-rom\include/mbedtls/cipher.h ****     MBEDTLS_KEY_LENGTH_DES  = 64,
 220:..\..\..\..\..\ROM-EXPORT\mbedtls-2.17.0-rom\include/mbedtls/cipher.h ****     /** Key length in bits, including parity, for DES in two-key EDE. */
 221:..\..\..\..\..\ROM-EXPORT\mbedtls-2.17.0-rom\include/mbedtls/cipher.h ****     MBEDTLS_KEY_LENGTH_DES_EDE = 128,
 222:..\..\..\..\..\ROM-EXPORT\mbedtls-2.17.0-rom\include/mbedtls/cipher.h ****     /** Key length in bits, including parity, for DES in three-key EDE. */
 223:..\..\..\..\..\ROM-EXPORT\mbedtls-2.17.0-rom\include/mbedtls/cipher.h ****     MBEDTLS_KEY_LENGTH_DES_EDE3 = 192,
 224:..\..\..\..\..\ROM-EXPORT\mbedtls-2.17.0-rom\include/mbedtls/cipher.h **** };
 225:..\..\..\..\..\ROM-EXPORT\mbedtls-2.17.0-rom\include/mbedtls/cipher.h **** 
 226:..\..\..\..\..\ROM-EXPORT\mbedtls-2.17.0-rom\include/mbedtls/cipher.h **** /** Maximum length of any IV, in Bytes. */
 227:..\..\..\..\..\ROM-EXPORT\mbedtls-2.17.0-rom\include/mbedtls/cipher.h **** #define MBEDTLS_MAX_IV_LENGTH      16
 228:..\..\..\..\..\ROM-EXPORT\mbedtls-2.17.0-rom\include/mbedtls/cipher.h **** /** Maximum block size of any cipher, in Bytes. */
 229:..\..\..\..\..\ROM-EXPORT\mbedtls-2.17.0-rom\include/mbedtls/cipher.h **** #define MBEDTLS_MAX_BLOCK_LENGTH   16
 230:..\..\..\..\..\ROM-EXPORT\mbedtls-2.17.0-rom\include/mbedtls/cipher.h **** 
 231:..\..\..\..\..\ROM-EXPORT\mbedtls-2.17.0-rom\include/mbedtls/cipher.h **** /**
 232:..\..\..\..\..\ROM-EXPORT\mbedtls-2.17.0-rom\include/mbedtls/cipher.h ****  * Base cipher information (opaque struct).
 233:..\..\..\..\..\ROM-EXPORT\mbedtls-2.17.0-rom\include/mbedtls/cipher.h ****  */
 234:..\..\..\..\..\ROM-EXPORT\mbedtls-2.17.0-rom\include/mbedtls/cipher.h **** typedef struct mbedtls_cipher_base_t mbedtls_cipher_base_t;
 235:..\..\..\..\..\ROM-EXPORT\mbedtls-2.17.0-rom\include/mbedtls/cipher.h **** 
 236:..\..\..\..\..\ROM-EXPORT\mbedtls-2.17.0-rom\include/mbedtls/cipher.h **** /**
 237:..\..\..\..\..\ROM-EXPORT\mbedtls-2.17.0-rom\include/mbedtls/cipher.h ****  * CMAC context (opaque struct).
 238:..\..\..\..\..\ROM-EXPORT\mbedtls-2.17.0-rom\include/mbedtls/cipher.h ****  */
 239:..\..\..\..\..\ROM-EXPORT\mbedtls-2.17.0-rom\include/mbedtls/cipher.h **** typedef struct mbedtls_cmac_context_t mbedtls_cmac_context_t;
 240:..\..\..\..\..\ROM-EXPORT\mbedtls-2.17.0-rom\include/mbedtls/cipher.h **** 
 241:..\..\..\..\..\ROM-EXPORT\mbedtls-2.17.0-rom\include/mbedtls/cipher.h **** /**
 242:..\..\..\..\..\ROM-EXPORT\mbedtls-2.17.0-rom\include/mbedtls/cipher.h ****  * Cipher information. Allows calling cipher functions
 243:..\..\..\..\..\ROM-EXPORT\mbedtls-2.17.0-rom\include/mbedtls/cipher.h ****  * in a generic way.
 244:..\..\..\..\..\ROM-EXPORT\mbedtls-2.17.0-rom\include/mbedtls/cipher.h ****  */
 245:..\..\..\..\..\ROM-EXPORT\mbedtls-2.17.0-rom\include/mbedtls/cipher.h **** typedef struct mbedtls_cipher_info_t
 246:..\..\..\..\..\ROM-EXPORT\mbedtls-2.17.0-rom\include/mbedtls/cipher.h **** {
 247:..\..\..\..\..\ROM-EXPORT\mbedtls-2.17.0-rom\include/mbedtls/cipher.h ****     /** Full cipher identifier. For example,
 248:..\..\..\..\..\ROM-EXPORT\mbedtls-2.17.0-rom\include/mbedtls/cipher.h ****      * MBEDTLS_CIPHER_AES_256_CBC.
 249:..\..\..\..\..\ROM-EXPORT\mbedtls-2.17.0-rom\include/mbedtls/cipher.h ****      */
 250:..\..\..\..\..\ROM-EXPORT\mbedtls-2.17.0-rom\include/mbedtls/cipher.h ****     mbedtls_cipher_type_t type;
 251:..\..\..\..\..\ROM-EXPORT\mbedtls-2.17.0-rom\include/mbedtls/cipher.h **** 
 252:..\..\..\..\..\ROM-EXPORT\mbedtls-2.17.0-rom\include/mbedtls/cipher.h ****     /** The cipher mode. For example, MBEDTLS_MODE_CBC. */
 253:..\..\..\..\..\ROM-EXPORT\mbedtls-2.17.0-rom\include/mbedtls/cipher.h ****     mbedtls_cipher_mode_t mode;
 254:..\..\..\..\..\ROM-EXPORT\mbedtls-2.17.0-rom\include/mbedtls/cipher.h **** 
 255:..\..\..\..\..\ROM-EXPORT\mbedtls-2.17.0-rom\include/mbedtls/cipher.h ****     /** The cipher key length, in bits. This is the
 256:..\..\..\..\..\ROM-EXPORT\mbedtls-2.17.0-rom\include/mbedtls/cipher.h ****      * default length for variable sized ciphers.
 257:..\..\..\..\..\ROM-EXPORT\mbedtls-2.17.0-rom\include/mbedtls/cipher.h ****      * Includes parity bits for ciphers like DES.
 258:..\..\..\..\..\ROM-EXPORT\mbedtls-2.17.0-rom\include/mbedtls/cipher.h ****      */
 259:..\..\..\..\..\ROM-EXPORT\mbedtls-2.17.0-rom\include/mbedtls/cipher.h ****     unsigned int key_bitlen;
 260:..\..\..\..\..\ROM-EXPORT\mbedtls-2.17.0-rom\include/mbedtls/cipher.h **** 
 261:..\..\..\..\..\ROM-EXPORT\mbedtls-2.17.0-rom\include/mbedtls/cipher.h ****     /** Name of the cipher. */
 262:..\..\..\..\..\ROM-EXPORT\mbedtls-2.17.0-rom\include/mbedtls/cipher.h ****     const char * name;
 263:..\..\..\..\..\ROM-EXPORT\mbedtls-2.17.0-rom\include/mbedtls/cipher.h **** 
 264:..\..\..\..\..\ROM-EXPORT\mbedtls-2.17.0-rom\include/mbedtls/cipher.h ****     /** IV or nonce size, in Bytes.
 265:..\..\..\..\..\ROM-EXPORT\mbedtls-2.17.0-rom\include/mbedtls/cipher.h ****      * For ciphers that accept variable IV sizes,
 266:..\..\..\..\..\ROM-EXPORT\mbedtls-2.17.0-rom\include/mbedtls/cipher.h ****      * this is the recommended size.
 267:..\..\..\..\..\ROM-EXPORT\mbedtls-2.17.0-rom\include/mbedtls/cipher.h ****      */
 268:..\..\..\..\..\ROM-EXPORT\mbedtls-2.17.0-rom\include/mbedtls/cipher.h ****     unsigned int iv_size;
 269:..\..\..\..\..\ROM-EXPORT\mbedtls-2.17.0-rom\include/mbedtls/cipher.h **** 
 270:..\..\..\..\..\ROM-EXPORT\mbedtls-2.17.0-rom\include/mbedtls/cipher.h ****     /** Bitflag comprised of MBEDTLS_CIPHER_VARIABLE_IV_LEN and
 271:..\..\..\..\..\ROM-EXPORT\mbedtls-2.17.0-rom\include/mbedtls/cipher.h ****      *  MBEDTLS_CIPHER_VARIABLE_KEY_LEN indicating whether the
 272:..\..\..\..\..\ROM-EXPORT\mbedtls-2.17.0-rom\include/mbedtls/cipher.h ****      *  cipher supports variable IV or variable key sizes, respectively.
 273:..\..\..\..\..\ROM-EXPORT\mbedtls-2.17.0-rom\include/mbedtls/cipher.h ****      */
 274:..\..\..\..\..\ROM-EXPORT\mbedtls-2.17.0-rom\include/mbedtls/cipher.h ****     int flags;
 275:..\..\..\..\..\ROM-EXPORT\mbedtls-2.17.0-rom\include/mbedtls/cipher.h **** 
 276:..\..\..\..\..\ROM-EXPORT\mbedtls-2.17.0-rom\include/mbedtls/cipher.h ****     /** The block size, in Bytes. */
 277:..\..\..\..\..\ROM-EXPORT\mbedtls-2.17.0-rom\include/mbedtls/cipher.h ****     unsigned int block_size;
 278:..\..\..\..\..\ROM-EXPORT\mbedtls-2.17.0-rom\include/mbedtls/cipher.h **** 
 279:..\..\..\..\..\ROM-EXPORT\mbedtls-2.17.0-rom\include/mbedtls/cipher.h ****     /** Struct for base cipher information and functions. */
 280:..\..\..\..\..\ROM-EXPORT\mbedtls-2.17.0-rom\include/mbedtls/cipher.h ****     const mbedtls_cipher_base_t *base;
 281:..\..\..\..\..\ROM-EXPORT\mbedtls-2.17.0-rom\include/mbedtls/cipher.h **** 
 282:..\..\..\..\..\ROM-EXPORT\mbedtls-2.17.0-rom\include/mbedtls/cipher.h **** } mbedtls_cipher_info_t;
 283:..\..\..\..\..\ROM-EXPORT\mbedtls-2.17.0-rom\include/mbedtls/cipher.h **** 
 284:..\..\..\..\..\ROM-EXPORT\mbedtls-2.17.0-rom\include/mbedtls/cipher.h **** /**
 285:..\..\..\..\..\ROM-EXPORT\mbedtls-2.17.0-rom\include/mbedtls/cipher.h ****  * Generic cipher context.
 286:..\..\..\..\..\ROM-EXPORT\mbedtls-2.17.0-rom\include/mbedtls/cipher.h ****  */
 287:..\..\..\..\..\ROM-EXPORT\mbedtls-2.17.0-rom\include/mbedtls/cipher.h **** typedef struct mbedtls_cipher_context_t
 288:..\..\..\..\..\ROM-EXPORT\mbedtls-2.17.0-rom\include/mbedtls/cipher.h **** {
 289:..\..\..\..\..\ROM-EXPORT\mbedtls-2.17.0-rom\include/mbedtls/cipher.h ****     /** Information about the associated cipher. */
 290:..\..\..\..\..\ROM-EXPORT\mbedtls-2.17.0-rom\include/mbedtls/cipher.h ****     const mbedtls_cipher_info_t *cipher_info;
 291:..\..\..\..\..\ROM-EXPORT\mbedtls-2.17.0-rom\include/mbedtls/cipher.h **** 
 292:..\..\..\..\..\ROM-EXPORT\mbedtls-2.17.0-rom\include/mbedtls/cipher.h ****     /** Key length to use. */
 293:..\..\..\..\..\ROM-EXPORT\mbedtls-2.17.0-rom\include/mbedtls/cipher.h ****     int key_bitlen;
 294:..\..\..\..\..\ROM-EXPORT\mbedtls-2.17.0-rom\include/mbedtls/cipher.h **** 
 295:..\..\..\..\..\ROM-EXPORT\mbedtls-2.17.0-rom\include/mbedtls/cipher.h ****     /** Operation that the key of the context has been
 296:..\..\..\..\..\ROM-EXPORT\mbedtls-2.17.0-rom\include/mbedtls/cipher.h ****      * initialized for.
 297:..\..\..\..\..\ROM-EXPORT\mbedtls-2.17.0-rom\include/mbedtls/cipher.h ****      */
 298:..\..\..\..\..\ROM-EXPORT\mbedtls-2.17.0-rom\include/mbedtls/cipher.h ****     mbedtls_operation_t operation;
 299:..\..\..\..\..\ROM-EXPORT\mbedtls-2.17.0-rom\include/mbedtls/cipher.h **** 
 300:..\..\..\..\..\ROM-EXPORT\mbedtls-2.17.0-rom\include/mbedtls/cipher.h **** #if defined(MBEDTLS_CIPHER_MODE_WITH_PADDING)
 301:..\..\..\..\..\ROM-EXPORT\mbedtls-2.17.0-rom\include/mbedtls/cipher.h ****     /** Padding functions to use, if relevant for
 302:..\..\..\..\..\ROM-EXPORT\mbedtls-2.17.0-rom\include/mbedtls/cipher.h ****      * the specific cipher mode.
 303:..\..\..\..\..\ROM-EXPORT\mbedtls-2.17.0-rom\include/mbedtls/cipher.h ****      */
 304:..\..\..\..\..\ROM-EXPORT\mbedtls-2.17.0-rom\include/mbedtls/cipher.h ****     void (*add_padding)( unsigned char *output, size_t olen, size_t data_len );
 305:..\..\..\..\..\ROM-EXPORT\mbedtls-2.17.0-rom\include/mbedtls/cipher.h ****     int (*get_padding)( unsigned char *input, size_t ilen, size_t *data_len );
 306:..\..\..\..\..\ROM-EXPORT\mbedtls-2.17.0-rom\include/mbedtls/cipher.h **** #endif
 307:..\..\..\..\..\ROM-EXPORT\mbedtls-2.17.0-rom\include/mbedtls/cipher.h **** 
 308:..\..\..\..\..\ROM-EXPORT\mbedtls-2.17.0-rom\include/mbedtls/cipher.h ****     /** Buffer for input that has not been processed yet. */
 309:..\..\..\..\..\ROM-EXPORT\mbedtls-2.17.0-rom\include/mbedtls/cipher.h ****     unsigned char unprocessed_data[MBEDTLS_MAX_BLOCK_LENGTH];
 310:..\..\..\..\..\ROM-EXPORT\mbedtls-2.17.0-rom\include/mbedtls/cipher.h **** 
 311:..\..\..\..\..\ROM-EXPORT\mbedtls-2.17.0-rom\include/mbedtls/cipher.h ****     /** Number of Bytes that have not been processed yet. */
 312:..\..\..\..\..\ROM-EXPORT\mbedtls-2.17.0-rom\include/mbedtls/cipher.h ****     size_t unprocessed_len;
 313:..\..\..\..\..\ROM-EXPORT\mbedtls-2.17.0-rom\include/mbedtls/cipher.h **** 
 314:..\..\..\..\..\ROM-EXPORT\mbedtls-2.17.0-rom\include/mbedtls/cipher.h ****     /** Current IV or NONCE_COUNTER for CTR-mode, data unit (or sector) number
 315:..\..\..\..\..\ROM-EXPORT\mbedtls-2.17.0-rom\include/mbedtls/cipher.h ****      * for XTS-mode. */
 316:..\..\..\..\..\ROM-EXPORT\mbedtls-2.17.0-rom\include/mbedtls/cipher.h ****     unsigned char iv[MBEDTLS_MAX_IV_LENGTH];
 317:..\..\..\..\..\ROM-EXPORT\mbedtls-2.17.0-rom\include/mbedtls/cipher.h **** 
 318:..\..\..\..\..\ROM-EXPORT\mbedtls-2.17.0-rom\include/mbedtls/cipher.h ****     /** IV size in Bytes, for ciphers with variable-length IVs. */
 319:..\..\..\..\..\ROM-EXPORT\mbedtls-2.17.0-rom\include/mbedtls/cipher.h ****     size_t iv_size;
 320:..\..\..\..\..\ROM-EXPORT\mbedtls-2.17.0-rom\include/mbedtls/cipher.h **** 
 321:..\..\..\..\..\ROM-EXPORT\mbedtls-2.17.0-rom\include/mbedtls/cipher.h ****     /** The cipher-specific context. */
 322:..\..\..\..\..\ROM-EXPORT\mbedtls-2.17.0-rom\include/mbedtls/cipher.h ****     void *cipher_ctx;
 323:..\..\..\..\..\ROM-EXPORT\mbedtls-2.17.0-rom\include/mbedtls/cipher.h **** 
 324:..\..\..\..\..\ROM-EXPORT\mbedtls-2.17.0-rom\include/mbedtls/cipher.h **** #if defined(MBEDTLS_CMAC_C)
 325:..\..\..\..\..\ROM-EXPORT\mbedtls-2.17.0-rom\include/mbedtls/cipher.h ****     /** CMAC-specific context. */
 326:..\..\..\..\..\ROM-EXPORT\mbedtls-2.17.0-rom\include/mbedtls/cipher.h ****     mbedtls_cmac_context_t *cmac_ctx;
 327:..\..\..\..\..\ROM-EXPORT\mbedtls-2.17.0-rom\include/mbedtls/cipher.h **** #endif
 328:..\..\..\..\..\ROM-EXPORT\mbedtls-2.17.0-rom\include/mbedtls/cipher.h **** 
 329:..\..\..\..\..\ROM-EXPORT\mbedtls-2.17.0-rom\include/mbedtls/cipher.h **** #if defined(MBEDTLS_USE_PSA_CRYPTO)
 330:..\..\..\..\..\ROM-EXPORT\mbedtls-2.17.0-rom\include/mbedtls/cipher.h ****     /** Indicates whether the cipher operations should be performed
 331:..\..\..\..\..\ROM-EXPORT\mbedtls-2.17.0-rom\include/mbedtls/cipher.h ****      *  by Mbed TLS' own crypto library or an external implementation
 332:..\..\..\..\..\ROM-EXPORT\mbedtls-2.17.0-rom\include/mbedtls/cipher.h ****      *  of the PSA Crypto API.
 333:..\..\..\..\..\ROM-EXPORT\mbedtls-2.17.0-rom\include/mbedtls/cipher.h ****      *  This is unset if the cipher context was established through
 334:..\..\..\..\..\ROM-EXPORT\mbedtls-2.17.0-rom\include/mbedtls/cipher.h ****      *  mbedtls_cipher_setup(), and set if it was established through
 335:..\..\..\..\..\ROM-EXPORT\mbedtls-2.17.0-rom\include/mbedtls/cipher.h ****      *  mbedtls_cipher_setup_psa().
 336:..\..\..\..\..\ROM-EXPORT\mbedtls-2.17.0-rom\include/mbedtls/cipher.h ****      */
 337:..\..\..\..\..\ROM-EXPORT\mbedtls-2.17.0-rom\include/mbedtls/cipher.h ****     unsigned char psa_enabled;
 338:..\..\..\..\..\ROM-EXPORT\mbedtls-2.17.0-rom\include/mbedtls/cipher.h **** #endif /* MBEDTLS_USE_PSA_CRYPTO */
 339:..\..\..\..\..\ROM-EXPORT\mbedtls-2.17.0-rom\include/mbedtls/cipher.h **** 
 340:..\..\..\..\..\ROM-EXPORT\mbedtls-2.17.0-rom\include/mbedtls/cipher.h **** } mbedtls_cipher_context_t;
 341:..\..\..\..\..\ROM-EXPORT\mbedtls-2.17.0-rom\include/mbedtls/cipher.h **** 
 342:..\..\..\..\..\ROM-EXPORT\mbedtls-2.17.0-rom\include/mbedtls/cipher.h **** /**
 343:..\..\..\..\..\ROM-EXPORT\mbedtls-2.17.0-rom\include/mbedtls/cipher.h ****  * \brief This function retrieves the list of ciphers supported
 344:..\..\..\..\..\ROM-EXPORT\mbedtls-2.17.0-rom\include/mbedtls/cipher.h ****  *        by the generic cipher module.
 345:..\..\..\..\..\ROM-EXPORT\mbedtls-2.17.0-rom\include/mbedtls/cipher.h ****  *
 346:..\..\..\..\..\ROM-EXPORT\mbedtls-2.17.0-rom\include/mbedtls/cipher.h ****  *        For any cipher identifier in the returned list, you can
 347:..\..\..\..\..\ROM-EXPORT\mbedtls-2.17.0-rom\include/mbedtls/cipher.h ****  *        obtain the corresponding generic cipher information structure
 348:..\..\..\..\..\ROM-EXPORT\mbedtls-2.17.0-rom\include/mbedtls/cipher.h ****  *        via mbedtls_cipher_info_from_type(), which can then be used
 349:..\..\..\..\..\ROM-EXPORT\mbedtls-2.17.0-rom\include/mbedtls/cipher.h ****  *        to prepare a cipher context via mbedtls_cipher_setup().
 350:..\..\..\..\..\ROM-EXPORT\mbedtls-2.17.0-rom\include/mbedtls/cipher.h ****  *
 351:..\..\..\..\..\ROM-EXPORT\mbedtls-2.17.0-rom\include/mbedtls/cipher.h ****  *
 352:..\..\..\..\..\ROM-EXPORT\mbedtls-2.17.0-rom\include/mbedtls/cipher.h ****  * \return      A statically-allocated array of cipher identifiers
 353:..\..\..\..\..\ROM-EXPORT\mbedtls-2.17.0-rom\include/mbedtls/cipher.h ****  *              of type cipher_type_t. The last entry is zero.
 354:..\..\..\..\..\ROM-EXPORT\mbedtls-2.17.0-rom\include/mbedtls/cipher.h ****  */
 355:..\..\..\..\..\ROM-EXPORT\mbedtls-2.17.0-rom\include/mbedtls/cipher.h **** const int *mbedtls_cipher_list( void );
 356:..\..\..\..\..\ROM-EXPORT\mbedtls-2.17.0-rom\include/mbedtls/cipher.h **** 
 357:..\..\..\..\..\ROM-EXPORT\mbedtls-2.17.0-rom\include/mbedtls/cipher.h **** /**
 358:..\..\..\..\..\ROM-EXPORT\mbedtls-2.17.0-rom\include/mbedtls/cipher.h ****  * \brief               This function retrieves the cipher-information
 359:..\..\..\..\..\ROM-EXPORT\mbedtls-2.17.0-rom\include/mbedtls/cipher.h ****  *                      structure associated with the given cipher name.
 360:..\..\..\..\..\ROM-EXPORT\mbedtls-2.17.0-rom\include/mbedtls/cipher.h ****  *
 361:..\..\..\..\..\ROM-EXPORT\mbedtls-2.17.0-rom\include/mbedtls/cipher.h ****  * \param cipher_name   Name of the cipher to search for. This must not be
 362:..\..\..\..\..\ROM-EXPORT\mbedtls-2.17.0-rom\include/mbedtls/cipher.h ****  *                      \c NULL.
 363:..\..\..\..\..\ROM-EXPORT\mbedtls-2.17.0-rom\include/mbedtls/cipher.h ****  *
 364:..\..\..\..\..\ROM-EXPORT\mbedtls-2.17.0-rom\include/mbedtls/cipher.h ****  * \return              The cipher information structure associated with the
 365:..\..\..\..\..\ROM-EXPORT\mbedtls-2.17.0-rom\include/mbedtls/cipher.h ****  *                      given \p cipher_name.
 366:..\..\..\..\..\ROM-EXPORT\mbedtls-2.17.0-rom\include/mbedtls/cipher.h ****  * \return              \c NULL if the associated cipher information is not found.
 367:..\..\..\..\..\ROM-EXPORT\mbedtls-2.17.0-rom\include/mbedtls/cipher.h ****  */
 368:..\..\..\..\..\ROM-EXPORT\mbedtls-2.17.0-rom\include/mbedtls/cipher.h **** const mbedtls_cipher_info_t *mbedtls_cipher_info_from_string( const char *cipher_name );
 369:..\..\..\..\..\ROM-EXPORT\mbedtls-2.17.0-rom\include/mbedtls/cipher.h **** 
 370:..\..\..\..\..\ROM-EXPORT\mbedtls-2.17.0-rom\include/mbedtls/cipher.h **** /**
 371:..\..\..\..\..\ROM-EXPORT\mbedtls-2.17.0-rom\include/mbedtls/cipher.h ****  * \brief               This function retrieves the cipher-information
 372:..\..\..\..\..\ROM-EXPORT\mbedtls-2.17.0-rom\include/mbedtls/cipher.h ****  *                      structure associated with the given cipher type.
 373:..\..\..\..\..\ROM-EXPORT\mbedtls-2.17.0-rom\include/mbedtls/cipher.h ****  *
 374:..\..\..\..\..\ROM-EXPORT\mbedtls-2.17.0-rom\include/mbedtls/cipher.h ****  * \param cipher_type   Type of the cipher to search for.
 375:..\..\..\..\..\ROM-EXPORT\mbedtls-2.17.0-rom\include/mbedtls/cipher.h ****  *
 376:..\..\..\..\..\ROM-EXPORT\mbedtls-2.17.0-rom\include/mbedtls/cipher.h ****  * \return              The cipher information structure associated with the
 377:..\..\..\..\..\ROM-EXPORT\mbedtls-2.17.0-rom\include/mbedtls/cipher.h ****  *                      given \p cipher_type.
 378:..\..\..\..\..\ROM-EXPORT\mbedtls-2.17.0-rom\include/mbedtls/cipher.h ****  * \return              \c NULL if the associated cipher information is not found.
 379:..\..\..\..\..\ROM-EXPORT\mbedtls-2.17.0-rom\include/mbedtls/cipher.h ****  */
 380:..\..\..\..\..\ROM-EXPORT\mbedtls-2.17.0-rom\include/mbedtls/cipher.h **** const mbedtls_cipher_info_t *mbedtls_cipher_info_from_type( const mbedtls_cipher_type_t cipher_type
 381:..\..\..\..\..\ROM-EXPORT\mbedtls-2.17.0-rom\include/mbedtls/cipher.h **** 
 382:..\..\..\..\..\ROM-EXPORT\mbedtls-2.17.0-rom\include/mbedtls/cipher.h **** /**
 383:..\..\..\..\..\ROM-EXPORT\mbedtls-2.17.0-rom\include/mbedtls/cipher.h ****  * \brief               This function retrieves the cipher-information
 384:..\..\..\..\..\ROM-EXPORT\mbedtls-2.17.0-rom\include/mbedtls/cipher.h ****  *                      structure associated with the given cipher ID,
 385:..\..\..\..\..\ROM-EXPORT\mbedtls-2.17.0-rom\include/mbedtls/cipher.h ****  *                      key size and mode.
 386:..\..\..\..\..\ROM-EXPORT\mbedtls-2.17.0-rom\include/mbedtls/cipher.h ****  *
 387:..\..\..\..\..\ROM-EXPORT\mbedtls-2.17.0-rom\include/mbedtls/cipher.h ****  * \param cipher_id     The ID of the cipher to search for. For example,
 388:..\..\..\..\..\ROM-EXPORT\mbedtls-2.17.0-rom\include/mbedtls/cipher.h ****  *                      #MBEDTLS_CIPHER_ID_AES.
 389:..\..\..\..\..\ROM-EXPORT\mbedtls-2.17.0-rom\include/mbedtls/cipher.h ****  * \param key_bitlen    The length of the key in bits.
 390:..\..\..\..\..\ROM-EXPORT\mbedtls-2.17.0-rom\include/mbedtls/cipher.h ****  * \param mode          The cipher mode. For example, #MBEDTLS_MODE_CBC.
 391:..\..\..\..\..\ROM-EXPORT\mbedtls-2.17.0-rom\include/mbedtls/cipher.h ****  *
 392:..\..\..\..\..\ROM-EXPORT\mbedtls-2.17.0-rom\include/mbedtls/cipher.h ****  * \return              The cipher information structure associated with the
 393:..\..\..\..\..\ROM-EXPORT\mbedtls-2.17.0-rom\include/mbedtls/cipher.h ****  *                      given \p cipher_id.
 394:..\..\..\..\..\ROM-EXPORT\mbedtls-2.17.0-rom\include/mbedtls/cipher.h ****  * \return              \c NULL if the associated cipher information is not found.
 395:..\..\..\..\..\ROM-EXPORT\mbedtls-2.17.0-rom\include/mbedtls/cipher.h ****  */
 396:..\..\..\..\..\ROM-EXPORT\mbedtls-2.17.0-rom\include/mbedtls/cipher.h **** const mbedtls_cipher_info_t *mbedtls_cipher_info_from_values( const mbedtls_cipher_id_t cipher_id,
 397:..\..\..\..\..\ROM-EXPORT\mbedtls-2.17.0-rom\include/mbedtls/cipher.h ****                                               int key_bitlen,
 398:..\..\..\..\..\ROM-EXPORT\mbedtls-2.17.0-rom\include/mbedtls/cipher.h ****                                               const mbedtls_cipher_mode_t mode );
 399:..\..\..\..\..\ROM-EXPORT\mbedtls-2.17.0-rom\include/mbedtls/cipher.h **** 
 400:..\..\..\..\..\ROM-EXPORT\mbedtls-2.17.0-rom\include/mbedtls/cipher.h **** /**
 401:..\..\..\..\..\ROM-EXPORT\mbedtls-2.17.0-rom\include/mbedtls/cipher.h ****  * \brief               This function initializes a \p cipher_context as NONE.
 402:..\..\..\..\..\ROM-EXPORT\mbedtls-2.17.0-rom\include/mbedtls/cipher.h ****  *
 403:..\..\..\..\..\ROM-EXPORT\mbedtls-2.17.0-rom\include/mbedtls/cipher.h ****  * \param ctx           The context to be initialized. This must not be \c NULL.
 404:..\..\..\..\..\ROM-EXPORT\mbedtls-2.17.0-rom\include/mbedtls/cipher.h ****  */
 405:..\..\..\..\..\ROM-EXPORT\mbedtls-2.17.0-rom\include/mbedtls/cipher.h **** void mbedtls_cipher_init( mbedtls_cipher_context_t *ctx );
 406:..\..\..\..\..\ROM-EXPORT\mbedtls-2.17.0-rom\include/mbedtls/cipher.h **** 
 407:..\..\..\..\..\ROM-EXPORT\mbedtls-2.17.0-rom\include/mbedtls/cipher.h **** /**
 408:..\..\..\..\..\ROM-EXPORT\mbedtls-2.17.0-rom\include/mbedtls/cipher.h ****  * \brief               This function frees and clears the cipher-specific
 409:..\..\..\..\..\ROM-EXPORT\mbedtls-2.17.0-rom\include/mbedtls/cipher.h ****  *                      context of \p ctx. Freeing \p ctx itself remains the
 410:..\..\..\..\..\ROM-EXPORT\mbedtls-2.17.0-rom\include/mbedtls/cipher.h ****  *                      responsibility of the caller.
 411:..\..\..\..\..\ROM-EXPORT\mbedtls-2.17.0-rom\include/mbedtls/cipher.h ****  *
 412:..\..\..\..\..\ROM-EXPORT\mbedtls-2.17.0-rom\include/mbedtls/cipher.h ****  * \param ctx           The context to be freed. If this is \c NULL, the
 413:..\..\..\..\..\ROM-EXPORT\mbedtls-2.17.0-rom\include/mbedtls/cipher.h ****  *                      function has no effect, otherwise this must point to an
 414:..\..\..\..\..\ROM-EXPORT\mbedtls-2.17.0-rom\include/mbedtls/cipher.h ****  *                      initialized context.
 415:..\..\..\..\..\ROM-EXPORT\mbedtls-2.17.0-rom\include/mbedtls/cipher.h ****  */
 416:..\..\..\..\..\ROM-EXPORT\mbedtls-2.17.0-rom\include/mbedtls/cipher.h **** void mbedtls_cipher_free( mbedtls_cipher_context_t *ctx );
 417:..\..\..\..\..\ROM-EXPORT\mbedtls-2.17.0-rom\include/mbedtls/cipher.h **** 
 418:..\..\..\..\..\ROM-EXPORT\mbedtls-2.17.0-rom\include/mbedtls/cipher.h **** 
 419:..\..\..\..\..\ROM-EXPORT\mbedtls-2.17.0-rom\include/mbedtls/cipher.h **** /**
 420:..\..\..\..\..\ROM-EXPORT\mbedtls-2.17.0-rom\include/mbedtls/cipher.h ****  * \brief               This function initializes a cipher context for
 421:..\..\..\..\..\ROM-EXPORT\mbedtls-2.17.0-rom\include/mbedtls/cipher.h ****  *                      use with the given cipher primitive.
 422:..\..\..\..\..\ROM-EXPORT\mbedtls-2.17.0-rom\include/mbedtls/cipher.h ****  *
 423:..\..\..\..\..\ROM-EXPORT\mbedtls-2.17.0-rom\include/mbedtls/cipher.h ****  * \param ctx           The context to initialize. This must be initialized.
 424:..\..\..\..\..\ROM-EXPORT\mbedtls-2.17.0-rom\include/mbedtls/cipher.h ****  * \param cipher_info   The cipher to use.
 425:..\..\..\..\..\ROM-EXPORT\mbedtls-2.17.0-rom\include/mbedtls/cipher.h ****  *
 426:..\..\..\..\..\ROM-EXPORT\mbedtls-2.17.0-rom\include/mbedtls/cipher.h ****  * \return              \c 0 on success.
 427:..\..\..\..\..\ROM-EXPORT\mbedtls-2.17.0-rom\include/mbedtls/cipher.h ****  * \return              #MBEDTLS_ERR_CIPHER_BAD_INPUT_DATA on
 428:..\..\..\..\..\ROM-EXPORT\mbedtls-2.17.0-rom\include/mbedtls/cipher.h ****  *                      parameter-verification failure.
 429:..\..\..\..\..\ROM-EXPORT\mbedtls-2.17.0-rom\include/mbedtls/cipher.h ****  * \return              #MBEDTLS_ERR_CIPHER_ALLOC_FAILED if allocation of the
 430:..\..\..\..\..\ROM-EXPORT\mbedtls-2.17.0-rom\include/mbedtls/cipher.h ****  *                      cipher-specific context fails.
 431:..\..\..\..\..\ROM-EXPORT\mbedtls-2.17.0-rom\include/mbedtls/cipher.h ****  *
 432:..\..\..\..\..\ROM-EXPORT\mbedtls-2.17.0-rom\include/mbedtls/cipher.h ****  * \internal Currently, the function also clears the structure.
 433:..\..\..\..\..\ROM-EXPORT\mbedtls-2.17.0-rom\include/mbedtls/cipher.h ****  * In future versions, the caller will be required to call
 434:..\..\..\..\..\ROM-EXPORT\mbedtls-2.17.0-rom\include/mbedtls/cipher.h ****  * mbedtls_cipher_init() on the structure first.
 435:..\..\..\..\..\ROM-EXPORT\mbedtls-2.17.0-rom\include/mbedtls/cipher.h ****  */
 436:..\..\..\..\..\ROM-EXPORT\mbedtls-2.17.0-rom\include/mbedtls/cipher.h **** int mbedtls_cipher_setup( mbedtls_cipher_context_t *ctx,
 437:..\..\..\..\..\ROM-EXPORT\mbedtls-2.17.0-rom\include/mbedtls/cipher.h ****                           const mbedtls_cipher_info_t *cipher_info );
 438:..\..\..\..\..\ROM-EXPORT\mbedtls-2.17.0-rom\include/mbedtls/cipher.h **** 
 439:..\..\..\..\..\ROM-EXPORT\mbedtls-2.17.0-rom\include/mbedtls/cipher.h **** #if defined(MBEDTLS_USE_PSA_CRYPTO)
 440:..\..\..\..\..\ROM-EXPORT\mbedtls-2.17.0-rom\include/mbedtls/cipher.h **** /**
 441:..\..\..\..\..\ROM-EXPORT\mbedtls-2.17.0-rom\include/mbedtls/cipher.h ****  * \brief               This function initializes a cipher context for
 442:..\..\..\..\..\ROM-EXPORT\mbedtls-2.17.0-rom\include/mbedtls/cipher.h ****  *                      PSA-based use with the given cipher primitive.
 443:..\..\..\..\..\ROM-EXPORT\mbedtls-2.17.0-rom\include/mbedtls/cipher.h ****  *
 444:..\..\..\..\..\ROM-EXPORT\mbedtls-2.17.0-rom\include/mbedtls/cipher.h ****  * \note                See #MBEDTLS_USE_PSA_CRYPTO for information on PSA.
 445:..\..\..\..\..\ROM-EXPORT\mbedtls-2.17.0-rom\include/mbedtls/cipher.h ****  *
 446:..\..\..\..\..\ROM-EXPORT\mbedtls-2.17.0-rom\include/mbedtls/cipher.h ****  * \param ctx           The context to initialize. May not be \c NULL.
 447:..\..\..\..\..\ROM-EXPORT\mbedtls-2.17.0-rom\include/mbedtls/cipher.h ****  * \param cipher_info   The cipher to use.
 448:..\..\..\..\..\ROM-EXPORT\mbedtls-2.17.0-rom\include/mbedtls/cipher.h ****  * \param taglen        For AEAD ciphers, the length in bytes of the
 449:..\..\..\..\..\ROM-EXPORT\mbedtls-2.17.0-rom\include/mbedtls/cipher.h ****  *                      authentication tag to use. Subsequent uses of
 450:..\..\..\..\..\ROM-EXPORT\mbedtls-2.17.0-rom\include/mbedtls/cipher.h ****  *                      mbedtls_cipher_auth_encrypt() or
 451:..\..\..\..\..\ROM-EXPORT\mbedtls-2.17.0-rom\include/mbedtls/cipher.h ****  *                      mbedtls_cipher_auth_decrypt() must provide
 452:..\..\..\..\..\ROM-EXPORT\mbedtls-2.17.0-rom\include/mbedtls/cipher.h ****  *                      the same tag length.
 453:..\..\..\..\..\ROM-EXPORT\mbedtls-2.17.0-rom\include/mbedtls/cipher.h ****  *                      For non-AEAD ciphers, the value must be \c 0.
 454:..\..\..\..\..\ROM-EXPORT\mbedtls-2.17.0-rom\include/mbedtls/cipher.h ****  *
 455:..\..\..\..\..\ROM-EXPORT\mbedtls-2.17.0-rom\include/mbedtls/cipher.h ****  * \return              \c 0 on success.
 456:..\..\..\..\..\ROM-EXPORT\mbedtls-2.17.0-rom\include/mbedtls/cipher.h ****  * \return              #MBEDTLS_ERR_CIPHER_BAD_INPUT_DATA on
 457:..\..\..\..\..\ROM-EXPORT\mbedtls-2.17.0-rom\include/mbedtls/cipher.h ****  *                      parameter-verification failure.
 458:..\..\..\..\..\ROM-EXPORT\mbedtls-2.17.0-rom\include/mbedtls/cipher.h ****  * \return              #MBEDTLS_ERR_CIPHER_ALLOC_FAILED if allocation of the
 459:..\..\..\..\..\ROM-EXPORT\mbedtls-2.17.0-rom\include/mbedtls/cipher.h ****  *                      cipher-specific context fails.
 460:..\..\..\..\..\ROM-EXPORT\mbedtls-2.17.0-rom\include/mbedtls/cipher.h ****  */
 461:..\..\..\..\..\ROM-EXPORT\mbedtls-2.17.0-rom\include/mbedtls/cipher.h **** int mbedtls_cipher_setup_psa( mbedtls_cipher_context_t *ctx,
 462:..\..\..\..\..\ROM-EXPORT\mbedtls-2.17.0-rom\include/mbedtls/cipher.h ****                               const mbedtls_cipher_info_t *cipher_info,
 463:..\..\..\..\..\ROM-EXPORT\mbedtls-2.17.0-rom\include/mbedtls/cipher.h ****                               size_t taglen );
 464:..\..\..\..\..\ROM-EXPORT\mbedtls-2.17.0-rom\include/mbedtls/cipher.h **** #endif /* MBEDTLS_USE_PSA_CRYPTO */
 465:..\..\..\..\..\ROM-EXPORT\mbedtls-2.17.0-rom\include/mbedtls/cipher.h **** 
 466:..\..\..\..\..\ROM-EXPORT\mbedtls-2.17.0-rom\include/mbedtls/cipher.h **** /**
 467:..\..\..\..\..\ROM-EXPORT\mbedtls-2.17.0-rom\include/mbedtls/cipher.h ****  * \brief        This function returns the block size of the given cipher.
 468:..\..\..\..\..\ROM-EXPORT\mbedtls-2.17.0-rom\include/mbedtls/cipher.h ****  *
 469:..\..\..\..\..\ROM-EXPORT\mbedtls-2.17.0-rom\include/mbedtls/cipher.h ****  * \param ctx    The context of the cipher. This must be initialized.
 470:..\..\..\..\..\ROM-EXPORT\mbedtls-2.17.0-rom\include/mbedtls/cipher.h ****  *
 471:..\..\..\..\..\ROM-EXPORT\mbedtls-2.17.0-rom\include/mbedtls/cipher.h ****  * \return       The block size of the underlying cipher.
 472:..\..\..\..\..\ROM-EXPORT\mbedtls-2.17.0-rom\include/mbedtls/cipher.h ****  * \return       \c 0 if \p ctx has not been initialized.
 473:..\..\..\..\..\ROM-EXPORT\mbedtls-2.17.0-rom\include/mbedtls/cipher.h ****  */
 474:..\..\..\..\..\ROM-EXPORT\mbedtls-2.17.0-rom\include/mbedtls/cipher.h **** static inline unsigned int mbedtls_cipher_get_block_size(
 475:..\..\..\..\..\ROM-EXPORT\mbedtls-2.17.0-rom\include/mbedtls/cipher.h ****     const mbedtls_cipher_context_t *ctx )
 476:..\..\..\..\..\ROM-EXPORT\mbedtls-2.17.0-rom\include/mbedtls/cipher.h **** {
 477:..\..\..\..\..\ROM-EXPORT\mbedtls-2.17.0-rom\include/mbedtls/cipher.h ****     MBEDTLS_INTERNAL_VALIDATE_RET( ctx != NULL, 0 );
 478:..\..\..\..\..\ROM-EXPORT\mbedtls-2.17.0-rom\include/mbedtls/cipher.h ****     if( ctx->cipher_info == NULL )
 479:..\..\..\..\..\ROM-EXPORT\mbedtls-2.17.0-rom\include/mbedtls/cipher.h ****         return 0;
 480:..\..\..\..\..\ROM-EXPORT\mbedtls-2.17.0-rom\include/mbedtls/cipher.h **** 
 481:..\..\..\..\..\ROM-EXPORT\mbedtls-2.17.0-rom\include/mbedtls/cipher.h ****     return ctx->cipher_info->block_size;
 482:..\..\..\..\..\ROM-EXPORT\mbedtls-2.17.0-rom\include/mbedtls/cipher.h **** }
 483:..\..\..\..\..\ROM-EXPORT\mbedtls-2.17.0-rom\include/mbedtls/cipher.h **** 
 484:..\..\..\..\..\ROM-EXPORT\mbedtls-2.17.0-rom\include/mbedtls/cipher.h **** /**
 485:..\..\..\..\..\ROM-EXPORT\mbedtls-2.17.0-rom\include/mbedtls/cipher.h ****  * \brief        This function returns the mode of operation for
 486:..\..\..\..\..\ROM-EXPORT\mbedtls-2.17.0-rom\include/mbedtls/cipher.h ****  *               the cipher. For example, MBEDTLS_MODE_CBC.
 487:..\..\..\..\..\ROM-EXPORT\mbedtls-2.17.0-rom\include/mbedtls/cipher.h ****  *
 488:..\..\..\..\..\ROM-EXPORT\mbedtls-2.17.0-rom\include/mbedtls/cipher.h ****  * \param ctx    The context of the cipher. This must be initialized.
 489:..\..\..\..\..\ROM-EXPORT\mbedtls-2.17.0-rom\include/mbedtls/cipher.h ****  *
 490:..\..\..\..\..\ROM-EXPORT\mbedtls-2.17.0-rom\include/mbedtls/cipher.h ****  * \return       The mode of operation.
 491:..\..\..\..\..\ROM-EXPORT\mbedtls-2.17.0-rom\include/mbedtls/cipher.h ****  * \return       #MBEDTLS_MODE_NONE if \p ctx has not been initialized.
 492:..\..\..\..\..\ROM-EXPORT\mbedtls-2.17.0-rom\include/mbedtls/cipher.h ****  */
 493:..\..\..\..\..\ROM-EXPORT\mbedtls-2.17.0-rom\include/mbedtls/cipher.h **** static inline mbedtls_cipher_mode_t mbedtls_cipher_get_cipher_mode(
 494:..\..\..\..\..\ROM-EXPORT\mbedtls-2.17.0-rom\include/mbedtls/cipher.h ****     const mbedtls_cipher_context_t *ctx )
 495:..\..\..\..\..\ROM-EXPORT\mbedtls-2.17.0-rom\include/mbedtls/cipher.h **** {
 496:..\..\..\..\..\ROM-EXPORT\mbedtls-2.17.0-rom\include/mbedtls/cipher.h ****     MBEDTLS_INTERNAL_VALIDATE_RET( ctx != NULL, MBEDTLS_MODE_NONE );
 497:..\..\..\..\..\ROM-EXPORT\mbedtls-2.17.0-rom\include/mbedtls/cipher.h ****     if( ctx->cipher_info == NULL )
 498:..\..\..\..\..\ROM-EXPORT\mbedtls-2.17.0-rom\include/mbedtls/cipher.h ****         return MBEDTLS_MODE_NONE;
 499:..\..\..\..\..\ROM-EXPORT\mbedtls-2.17.0-rom\include/mbedtls/cipher.h **** 
 500:..\..\..\..\..\ROM-EXPORT\mbedtls-2.17.0-rom\include/mbedtls/cipher.h ****     return ctx->cipher_info->mode;
 501:..\..\..\..\..\ROM-EXPORT\mbedtls-2.17.0-rom\include/mbedtls/cipher.h **** }
 502:..\..\..\..\..\ROM-EXPORT\mbedtls-2.17.0-rom\include/mbedtls/cipher.h **** 
 503:..\..\..\..\..\ROM-EXPORT\mbedtls-2.17.0-rom\include/mbedtls/cipher.h **** /**
 504:..\..\..\..\..\ROM-EXPORT\mbedtls-2.17.0-rom\include/mbedtls/cipher.h ****  * \brief       This function returns the size of the IV or nonce
 505:..\..\..\..\..\ROM-EXPORT\mbedtls-2.17.0-rom\include/mbedtls/cipher.h ****  *              of the cipher, in Bytes.
 506:..\..\..\..\..\ROM-EXPORT\mbedtls-2.17.0-rom\include/mbedtls/cipher.h ****  *
 507:..\..\..\..\..\ROM-EXPORT\mbedtls-2.17.0-rom\include/mbedtls/cipher.h ****  * \param ctx   The context of the cipher. This must be initialized.
 508:..\..\..\..\..\ROM-EXPORT\mbedtls-2.17.0-rom\include/mbedtls/cipher.h ****  *
 509:..\..\..\..\..\ROM-EXPORT\mbedtls-2.17.0-rom\include/mbedtls/cipher.h ****  * \return      The recommended IV size if no IV has been set.
 510:..\..\..\..\..\ROM-EXPORT\mbedtls-2.17.0-rom\include/mbedtls/cipher.h ****  * \return      \c 0 for ciphers not using an IV or a nonce.
 511:..\..\..\..\..\ROM-EXPORT\mbedtls-2.17.0-rom\include/mbedtls/cipher.h ****  * \return      The actual size if an IV has been set.
 512:..\..\..\..\..\ROM-EXPORT\mbedtls-2.17.0-rom\include/mbedtls/cipher.h ****  */
 513:..\..\..\..\..\ROM-EXPORT\mbedtls-2.17.0-rom\include/mbedtls/cipher.h **** static inline int mbedtls_cipher_get_iv_size(
 514:..\..\..\..\..\ROM-EXPORT\mbedtls-2.17.0-rom\include/mbedtls/cipher.h ****     const mbedtls_cipher_context_t *ctx )
 515:..\..\..\..\..\ROM-EXPORT\mbedtls-2.17.0-rom\include/mbedtls/cipher.h **** {
 516:..\..\..\..\..\ROM-EXPORT\mbedtls-2.17.0-rom\include/mbedtls/cipher.h ****     MBEDTLS_INTERNAL_VALIDATE_RET( ctx != NULL, 0 );
 517:..\..\..\..\..\ROM-EXPORT\mbedtls-2.17.0-rom\include/mbedtls/cipher.h ****     if( ctx->cipher_info == NULL )
 518:..\..\..\..\..\ROM-EXPORT\mbedtls-2.17.0-rom\include/mbedtls/cipher.h ****         return 0;
 519:..\..\..\..\..\ROM-EXPORT\mbedtls-2.17.0-rom\include/mbedtls/cipher.h **** 
 520:..\..\..\..\..\ROM-EXPORT\mbedtls-2.17.0-rom\include/mbedtls/cipher.h ****     if( ctx->iv_size != 0 )
 521:..\..\..\..\..\ROM-EXPORT\mbedtls-2.17.0-rom\include/mbedtls/cipher.h ****         return (int) ctx->iv_size;
 522:..\..\..\..\..\ROM-EXPORT\mbedtls-2.17.0-rom\include/mbedtls/cipher.h **** 
 523:..\..\..\..\..\ROM-EXPORT\mbedtls-2.17.0-rom\include/mbedtls/cipher.h ****     return (int) ctx->cipher_info->iv_size;
 524:..\..\..\..\..\ROM-EXPORT\mbedtls-2.17.0-rom\include/mbedtls/cipher.h **** }
 525:..\..\..\..\..\ROM-EXPORT\mbedtls-2.17.0-rom\include/mbedtls/cipher.h **** 
 526:..\..\..\..\..\ROM-EXPORT\mbedtls-2.17.0-rom\include/mbedtls/cipher.h **** /**
 527:..\..\..\..\..\ROM-EXPORT\mbedtls-2.17.0-rom\include/mbedtls/cipher.h ****  * \brief               This function returns the type of the given cipher.
 528:..\..\..\..\..\ROM-EXPORT\mbedtls-2.17.0-rom\include/mbedtls/cipher.h ****  *
 529:..\..\..\..\..\ROM-EXPORT\mbedtls-2.17.0-rom\include/mbedtls/cipher.h ****  * \param ctx           The context of the cipher. This must be initialized.
 530:..\..\..\..\..\ROM-EXPORT\mbedtls-2.17.0-rom\include/mbedtls/cipher.h ****  *
 531:..\..\..\..\..\ROM-EXPORT\mbedtls-2.17.0-rom\include/mbedtls/cipher.h ****  * \return              The type of the cipher.
 532:..\..\..\..\..\ROM-EXPORT\mbedtls-2.17.0-rom\include/mbedtls/cipher.h ****  * \return              #MBEDTLS_CIPHER_NONE if \p ctx has not been initialized.
 533:..\..\..\..\..\ROM-EXPORT\mbedtls-2.17.0-rom\include/mbedtls/cipher.h ****  */
 534:..\..\..\..\..\ROM-EXPORT\mbedtls-2.17.0-rom\include/mbedtls/cipher.h **** static inline mbedtls_cipher_type_t mbedtls_cipher_get_type(
 535:..\..\..\..\..\ROM-EXPORT\mbedtls-2.17.0-rom\include/mbedtls/cipher.h ****     const mbedtls_cipher_context_t *ctx )
 536:..\..\..\..\..\ROM-EXPORT\mbedtls-2.17.0-rom\include/mbedtls/cipher.h **** {
 537:..\..\..\..\..\ROM-EXPORT\mbedtls-2.17.0-rom\include/mbedtls/cipher.h ****     MBEDTLS_INTERNAL_VALIDATE_RET(
 538:..\..\..\..\..\ROM-EXPORT\mbedtls-2.17.0-rom\include/mbedtls/cipher.h ****         ctx != NULL, MBEDTLS_CIPHER_NONE );
 539:..\..\..\..\..\ROM-EXPORT\mbedtls-2.17.0-rom\include/mbedtls/cipher.h ****     if( ctx->cipher_info == NULL )
 540:..\..\..\..\..\ROM-EXPORT\mbedtls-2.17.0-rom\include/mbedtls/cipher.h ****         return MBEDTLS_CIPHER_NONE;
 541:..\..\..\..\..\ROM-EXPORT\mbedtls-2.17.0-rom\include/mbedtls/cipher.h **** 
 542:..\..\..\..\..\ROM-EXPORT\mbedtls-2.17.0-rom\include/mbedtls/cipher.h ****     return ctx->cipher_info->type;
 543:..\..\..\..\..\ROM-EXPORT\mbedtls-2.17.0-rom\include/mbedtls/cipher.h **** }
 544:..\..\..\..\..\ROM-EXPORT\mbedtls-2.17.0-rom\include/mbedtls/cipher.h **** 
 545:..\..\..\..\..\ROM-EXPORT\mbedtls-2.17.0-rom\include/mbedtls/cipher.h **** /**
 546:..\..\..\..\..\ROM-EXPORT\mbedtls-2.17.0-rom\include/mbedtls/cipher.h ****  * \brief               This function returns the name of the given cipher
 547:..\..\..\..\..\ROM-EXPORT\mbedtls-2.17.0-rom\include/mbedtls/cipher.h ****  *                      as a string.
 548:..\..\..\..\..\ROM-EXPORT\mbedtls-2.17.0-rom\include/mbedtls/cipher.h ****  *
 549:..\..\..\..\..\ROM-EXPORT\mbedtls-2.17.0-rom\include/mbedtls/cipher.h ****  * \param ctx           The context of the cipher. This must be initialized.
 550:..\..\..\..\..\ROM-EXPORT\mbedtls-2.17.0-rom\include/mbedtls/cipher.h ****  *
 551:..\..\..\..\..\ROM-EXPORT\mbedtls-2.17.0-rom\include/mbedtls/cipher.h ****  * \return              The name of the cipher.
 552:..\..\..\..\..\ROM-EXPORT\mbedtls-2.17.0-rom\include/mbedtls/cipher.h ****  * \return              NULL if \p ctx has not been not initialized.
 553:..\..\..\..\..\ROM-EXPORT\mbedtls-2.17.0-rom\include/mbedtls/cipher.h ****  */
 554:..\..\..\..\..\ROM-EXPORT\mbedtls-2.17.0-rom\include/mbedtls/cipher.h **** static inline const char *mbedtls_cipher_get_name(
 555:..\..\..\..\..\ROM-EXPORT\mbedtls-2.17.0-rom\include/mbedtls/cipher.h ****     const mbedtls_cipher_context_t *ctx )
 556:..\..\..\..\..\ROM-EXPORT\mbedtls-2.17.0-rom\include/mbedtls/cipher.h **** {
 557:..\..\..\..\..\ROM-EXPORT\mbedtls-2.17.0-rom\include/mbedtls/cipher.h ****     MBEDTLS_INTERNAL_VALIDATE_RET( ctx != NULL, 0 );
 558:..\..\..\..\..\ROM-EXPORT\mbedtls-2.17.0-rom\include/mbedtls/cipher.h ****     if( ctx->cipher_info == NULL )
 559:..\..\..\..\..\ROM-EXPORT\mbedtls-2.17.0-rom\include/mbedtls/cipher.h ****         return 0;
 560:..\..\..\..\..\ROM-EXPORT\mbedtls-2.17.0-rom\include/mbedtls/cipher.h **** 
 561:..\..\..\..\..\ROM-EXPORT\mbedtls-2.17.0-rom\include/mbedtls/cipher.h ****     return ctx->cipher_info->name;
 562:..\..\..\..\..\ROM-EXPORT\mbedtls-2.17.0-rom\include/mbedtls/cipher.h **** }
 563:..\..\..\..\..\ROM-EXPORT\mbedtls-2.17.0-rom\include/mbedtls/cipher.h **** 
 564:..\..\..\..\..\ROM-EXPORT\mbedtls-2.17.0-rom\include/mbedtls/cipher.h **** /**
 565:..\..\..\..\..\ROM-EXPORT\mbedtls-2.17.0-rom\include/mbedtls/cipher.h ****  * \brief               This function returns the key length of the cipher.
 566:..\..\..\..\..\ROM-EXPORT\mbedtls-2.17.0-rom\include/mbedtls/cipher.h ****  *
 567:..\..\..\..\..\ROM-EXPORT\mbedtls-2.17.0-rom\include/mbedtls/cipher.h ****  * \param ctx           The context of the cipher. This must be initialized.
 568:..\..\..\..\..\ROM-EXPORT\mbedtls-2.17.0-rom\include/mbedtls/cipher.h ****  *
 569:..\..\..\..\..\ROM-EXPORT\mbedtls-2.17.0-rom\include/mbedtls/cipher.h ****  * \return              The key length of the cipher in bits.
 570:..\..\..\..\..\ROM-EXPORT\mbedtls-2.17.0-rom\include/mbedtls/cipher.h ****  * \return              #MBEDTLS_KEY_LENGTH_NONE if ctx \p has not been
 571:..\..\..\..\..\ROM-EXPORT\mbedtls-2.17.0-rom\include/mbedtls/cipher.h ****  *                      initialized.
 572:..\..\..\..\..\ROM-EXPORT\mbedtls-2.17.0-rom\include/mbedtls/cipher.h ****  */
 573:..\..\..\..\..\ROM-EXPORT\mbedtls-2.17.0-rom\include/mbedtls/cipher.h **** static inline int mbedtls_cipher_get_key_bitlen(
 574:..\..\..\..\..\ROM-EXPORT\mbedtls-2.17.0-rom\include/mbedtls/cipher.h ****     const mbedtls_cipher_context_t *ctx )
 575:..\..\..\..\..\ROM-EXPORT\mbedtls-2.17.0-rom\include/mbedtls/cipher.h **** {
 576:..\..\..\..\..\ROM-EXPORT\mbedtls-2.17.0-rom\include/mbedtls/cipher.h ****     MBEDTLS_INTERNAL_VALIDATE_RET(
  81              		.loc 2 576 5 is_stmt 1
  82              		.loc 2 576 5
  83              		.loc 2 576 5
 577:..\..\..\..\..\ROM-EXPORT\mbedtls-2.17.0-rom\include/mbedtls/cipher.h ****         ctx != NULL, MBEDTLS_KEY_LENGTH_NONE );
 578:..\..\..\..\..\ROM-EXPORT\mbedtls-2.17.0-rom\include/mbedtls/cipher.h ****     if( ctx->cipher_info == NULL )
  84              		.loc 2 578 5
  85              		.loc 2 578 7 is_stmt 0
  86 004e 91C3     		beq	a5,zero,.L3
 579:..\..\..\..\..\ROM-EXPORT\mbedtls-2.17.0-rom\include/mbedtls/cipher.h ****         return MBEDTLS_KEY_LENGTH_NONE;
 580:..\..\..\..\..\ROM-EXPORT\mbedtls-2.17.0-rom\include/mbedtls/cipher.h **** 
 581:..\..\..\..\..\ROM-EXPORT\mbedtls-2.17.0-rom\include/mbedtls/cipher.h ****     return (int) ctx->cipher_info->key_bitlen;
  87              		.loc 2 581 5 is_stmt 1
  88              		.loc 2 581 12 is_stmt 0
  89 0050 9047     		lw	a2,8(a5)
  90              	.LVL11:
  91              	.L3:
  92              	.LBE6:
  93              	.LBE5:
  94              		.loc 1 91 11
  95 0052 8546     		li	a3,1
  96 0054 0C08     		addi	a1,sp,16
  97 0056 97000000 		call	mbedtls_cipher_setkey
  97      E7800000 
  98              	.LVL12:
  99 005e 2AC6     		sw	a0,12(sp)
 100              	.LVL13:
  92:C:/Users/stapi/OneDrive/Desktop/GD32VW553/V1_MQTT_OK/GD32VW55X_Wifi_BLE_SDK/GD32VW55x_RELEASE_V1.0.2/MSDK/mbedtls/mbedtls-2.17.0-ssl/library\ssl_ticket.c ****                                  mbedtls_cipher_get_key_bitlen( &key->ctx ),
  93:C:/Users/stapi/OneDrive/Desktop/GD32VW553/V1_MQTT_OK/GD32VW55X_Wifi_BLE_SDK/GD32VW55x_RELEASE_V1.0.2/MSDK/mbedtls/mbedtls-2.17.0-ssl/library\ssl_ticket.c ****                                  MBEDTLS_ENCRYPT );
  94:C:/Users/stapi/OneDrive/Desktop/GD32VW553/V1_MQTT_OK/GD32VW55X_Wifi_BLE_SDK/GD32VW55x_RELEASE_V1.0.2/MSDK/mbedtls/mbedtls-2.17.0-ssl/library\ssl_ticket.c **** 
  95:C:/Users/stapi/OneDrive/Desktop/GD32VW553/V1_MQTT_OK/GD32VW55X_Wifi_BLE_SDK/GD32VW55x_RELEASE_V1.0.2/MSDK/mbedtls/mbedtls-2.17.0-ssl/library\ssl_ticket.c ****     mbedtls_platform_zeroize( buf, sizeof( buf ) );
 101              		.loc 1 95 5 is_stmt 1
 102 0060 93050002 		li	a1,32
 103 0064 0808     		addi	a0,sp,16
 104              	.LVL14:
 105 0066 97000000 		call	mbedtls_platform_zeroize
 105      E7800000 
 106              	.LVL15:
 107 006e 3246     		lw	a2,12(sp)
  96:C:/Users/stapi/OneDrive/Desktop/GD32VW553/V1_MQTT_OK/GD32VW55X_Wifi_BLE_SDK/GD32VW55x_RELEASE_V1.0.2/MSDK/mbedtls/mbedtls-2.17.0-ssl/library\ssl_ticket.c **** 
  97:C:/Users/stapi/OneDrive/Desktop/GD32VW553/V1_MQTT_OK/GD32VW55X_Wifi_BLE_SDK/GD32VW55x_RELEASE_V1.0.2/MSDK/mbedtls/mbedtls-2.17.0-ssl/library\ssl_ticket.c ****     return( ret );
 108              		.loc 1 97 5
 109              	.LVL16:
 110              	.L1:
  98:C:/Users/stapi/OneDrive/Desktop/GD32VW553/V1_MQTT_OK/GD32VW55X_Wifi_BLE_SDK/GD32VW55x_RELEASE_V1.0.2/MSDK/mbedtls/mbedtls-2.17.0-ssl/library\ssl_ticket.c **** }
 111              		.loc 1 98 1 is_stmt 0
 112 0070 3285     		mv	a0,a2
 113 0072 4561     		addi	sp,sp,48
 114              		.cfi_def_cfa_offset 0
 115 0074 17030000 		tail	__riscv_restore_2
 115      67000300 
 116              		.cfi_restore 9
 117              		.cfi_restore 8
 118              		.cfi_restore 1
 119              		.cfi_def_cfa_offset -16
 120              		.cfi_endproc
 121              	.LFE384:
 123              		.section	.text.ssl_ticket_update_keys.part.0,"ax",@progbits
 124              		.align	1
 126              	ssl_ticket_update_keys.part.0:
 127              	.LFB393:
  99:C:/Users/stapi/OneDrive/Desktop/GD32VW553/V1_MQTT_OK/GD32VW55X_Wifi_BLE_SDK/GD32VW55x_RELEASE_V1.0.2/MSDK/mbedtls/mbedtls-2.17.0-ssl/library\ssl_ticket.c **** 
 100:C:/Users/stapi/OneDrive/Desktop/GD32VW553/V1_MQTT_OK/GD32VW55X_Wifi_BLE_SDK/GD32VW55x_RELEASE_V1.0.2/MSDK/mbedtls/mbedtls-2.17.0-ssl/library\ssl_ticket.c **** /*
 101:C:/Users/stapi/OneDrive/Desktop/GD32VW553/V1_MQTT_OK/GD32VW55X_Wifi_BLE_SDK/GD32VW55x_RELEASE_V1.0.2/MSDK/mbedtls/mbedtls-2.17.0-ssl/library\ssl_ticket.c ****  * Rotate/generate keys if necessary
 102:C:/Users/stapi/OneDrive/Desktop/GD32VW553/V1_MQTT_OK/GD32VW55X_Wifi_BLE_SDK/GD32VW55x_RELEASE_V1.0.2/MSDK/mbedtls/mbedtls-2.17.0-ssl/library\ssl_ticket.c ****  */
 103:C:/Users/stapi/OneDrive/Desktop/GD32VW553/V1_MQTT_OK/GD32VW55X_Wifi_BLE_SDK/GD32VW55x_RELEASE_V1.0.2/MSDK/mbedtls/mbedtls-2.17.0-ssl/library\ssl_ticket.c **** static int ssl_ticket_update_keys( mbedtls_ssl_ticket_context *ctx )
 128              		.loc 1 103 12 is_stmt 1
 129              		.cfi_startproc
 130              	.LVL17:
 131 0000 17030000 		call	t0,__riscv_save_1
 131      E7020300 
 132              		.cfi_offset 8, -8
 133              		.cfi_offset 1, -4
 134              		.cfi_def_cfa_offset 16
 135              	.LBB7:
 104:C:/Users/stapi/OneDrive/Desktop/GD32VW553/V1_MQTT_OK/GD32VW55X_Wifi_BLE_SDK/GD32VW55x_RELEASE_V1.0.2/MSDK/mbedtls/mbedtls-2.17.0-ssl/library\ssl_ticket.c **** {
 105:C:/Users/stapi/OneDrive/Desktop/GD32VW553/V1_MQTT_OK/GD32VW55X_Wifi_BLE_SDK/GD32VW55x_RELEASE_V1.0.2/MSDK/mbedtls/mbedtls-2.17.0-ssl/library\ssl_ticket.c **** #if !defined(MBEDTLS_HAVE_TIME)
 106:C:/Users/stapi/OneDrive/Desktop/GD32VW553/V1_MQTT_OK/GD32VW55X_Wifi_BLE_SDK/GD32VW55x_RELEASE_V1.0.2/MSDK/mbedtls/mbedtls-2.17.0-ssl/library\ssl_ticket.c ****     ((void) ctx);
 107:C:/Users/stapi/OneDrive/Desktop/GD32VW553/V1_MQTT_OK/GD32VW55X_Wifi_BLE_SDK/GD32VW55x_RELEASE_V1.0.2/MSDK/mbedtls/mbedtls-2.17.0-ssl/library\ssl_ticket.c **** #else
 108:C:/Users/stapi/OneDrive/Desktop/GD32VW553/V1_MQTT_OK/GD32VW55X_Wifi_BLE_SDK/GD32VW55x_RELEASE_V1.0.2/MSDK/mbedtls/mbedtls-2.17.0-ssl/library\ssl_ticket.c ****     if( ctx->ticket_lifetime != 0 )
 109:C:/Users/stapi/OneDrive/Desktop/GD32VW553/V1_MQTT_OK/GD32VW55X_Wifi_BLE_SDK/GD32VW55x_RELEASE_V1.0.2/MSDK/mbedtls/mbedtls-2.17.0-ssl/library\ssl_ticket.c ****     {
 110:C:/Users/stapi/OneDrive/Desktop/GD32VW553/V1_MQTT_OK/GD32VW55X_Wifi_BLE_SDK/GD32VW55x_RELEASE_V1.0.2/MSDK/mbedtls/mbedtls-2.17.0-ssl/library\ssl_ticket.c ****         uint32_t current_time = (uint32_t) mbedtls_time( NULL );
 136              		.loc 1 110 9
 137              	.LBE7:
 103:C:/Users/stapi/OneDrive/Desktop/GD32VW553/V1_MQTT_OK/GD32VW55X_Wifi_BLE_SDK/GD32VW55x_RELEASE_V1.0.2/MSDK/mbedtls/mbedtls-2.17.0-ssl/library\ssl_ticket.c **** {
 138              		.loc 1 103 12 is_stmt 0
 139 0008 2A84     		mv	s0,a0
 140              	.LBB8:
 141              		.loc 1 110 44
 142 000a 0145     		li	a0,0
 143              	.LVL18:
 144 000c 97000000 		call	mbedtls_time
 144      E7800000 
 145              	.LVL19:
 111:C:/Users/stapi/OneDrive/Desktop/GD32VW553/V1_MQTT_OK/GD32VW55X_Wifi_BLE_SDK/GD32VW55x_RELEASE_V1.0.2/MSDK/mbedtls/mbedtls-2.17.0-ssl/library\ssl_ticket.c ****         uint32_t key_time = ctx->keys[ctx->active].generation_time;
 146              		.loc 1 111 9 is_stmt 1
 147              		.loc 1 111 42 is_stmt 0
 148 0014 03470409 		lbu	a4,144(s0)
 149              		.loc 1 111 18
 150 0018 93068004 		li	a3,72
 151 001c A287     		mv	a5,s0
 152 001e FF17D7C4 		maddr32	a5, a4, a3
 153 0022 DC43     		lw	a5,4(a5)
 154              	.LVL20:
 112:C:/Users/stapi/OneDrive/Desktop/GD32VW553/V1_MQTT_OK/GD32VW55X_Wifi_BLE_SDK/GD32VW55x_RELEASE_V1.0.2/MSDK/mbedtls/mbedtls-2.17.0-ssl/library\ssl_ticket.c **** 
 113:C:/Users/stapi/OneDrive/Desktop/GD32VW553/V1_MQTT_OK/GD32VW55X_Wifi_BLE_SDK/GD32VW55x_RELEASE_V1.0.2/MSDK/mbedtls/mbedtls-2.17.0-ssl/library\ssl_ticket.c ****         if( current_time >= key_time &&
 155              		.loc 1 113 9 is_stmt 1
 156              		.loc 1 113 11 is_stmt 0
 157 0024 6369F500 		bltu	a0,a5,.L9
 158              		.loc 1 113 38
 159 0028 83264409 		lw	a3,148(s0)
 114:C:/Users/stapi/OneDrive/Desktop/GD32VW553/V1_MQTT_OK/GD32VW55X_Wifi_BLE_SDK/GD32VW55x_RELEASE_V1.0.2/MSDK/mbedtls/mbedtls-2.17.0-ssl/library\ssl_ticket.c ****             current_time - key_time < ctx->ticket_lifetime )
 160              		.loc 1 114 26
 161 002c B307F540 		sub	a5,a0,a5
 162              	.LVL21:
 115:C:/Users/stapi/OneDrive/Desktop/GD32VW553/V1_MQTT_OK/GD32VW55X_Wifi_BLE_SDK/GD32VW55x_RELEASE_V1.0.2/MSDK/mbedtls/mbedtls-2.17.0-ssl/library\ssl_ticket.c ****         {
 116:C:/Users/stapi/OneDrive/Desktop/GD32VW553/V1_MQTT_OK/GD32VW55X_Wifi_BLE_SDK/GD32VW55x_RELEASE_V1.0.2/MSDK/mbedtls/mbedtls-2.17.0-ssl/library\ssl_ticket.c ****             return( 0 );
 163              		.loc 1 116 19
 164 0030 0145     		li	a0,0
 165              	.LVL22:
 113:C:/Users/stapi/OneDrive/Desktop/GD32VW553/V1_MQTT_OK/GD32VW55X_Wifi_BLE_SDK/GD32VW55x_RELEASE_V1.0.2/MSDK/mbedtls/mbedtls-2.17.0-ssl/library\ssl_ticket.c ****             current_time - key_time < ctx->ticket_lifetime )
 166              		.loc 1 113 38
 167 0032 63EDD700 		bltu	a5,a3,.L8
 168              	.L9:
 117:C:/Users/stapi/OneDrive/Desktop/GD32VW553/V1_MQTT_OK/GD32VW55X_Wifi_BLE_SDK/GD32VW55x_RELEASE_V1.0.2/MSDK/mbedtls/mbedtls-2.17.0-ssl/library\ssl_ticket.c ****         }
 118:C:/Users/stapi/OneDrive/Desktop/GD32VW553/V1_MQTT_OK/GD32VW55X_Wifi_BLE_SDK/GD32VW55x_RELEASE_V1.0.2/MSDK/mbedtls/mbedtls-2.17.0-ssl/library\ssl_ticket.c **** 
 119:C:/Users/stapi/OneDrive/Desktop/GD32VW553/V1_MQTT_OK/GD32VW55X_Wifi_BLE_SDK/GD32VW55x_RELEASE_V1.0.2/MSDK/mbedtls/mbedtls-2.17.0-ssl/library\ssl_ticket.c ****         ctx->active = 1 - ctx->active;
 169              		.loc 1 119 9 is_stmt 1
 170              		.loc 1 119 25 is_stmt 0
 171 0036 8545     		li	a1,1
 172 0038 998D     		sub	a1,a1,a4
 173 003a 93F5F50F 		andi	a1,a1,0xff
 174              		.loc 1 119 21
 175 003e 2308B408 		sb	a1,144(s0)
 176              	.LVL23:
 120:C:/Users/stapi/OneDrive/Desktop/GD32VW553/V1_MQTT_OK/GD32VW55X_Wifi_BLE_SDK/GD32VW55x_RELEASE_V1.0.2/MSDK/mbedtls/mbedtls-2.17.0-ssl/library\ssl_ticket.c **** 
 121:C:/Users/stapi/OneDrive/Desktop/GD32VW553/V1_MQTT_OK/GD32VW55X_Wifi_BLE_SDK/GD32VW55x_RELEASE_V1.0.2/MSDK/mbedtls/mbedtls-2.17.0-ssl/library\ssl_ticket.c ****         return( ssl_ticket_gen_key( ctx, ctx->active ) );
 177              		.loc 1 121 9 is_stmt 1
 178              		.loc 1 121 17 is_stmt 0
 179 0042 2285     		mv	a0,s0
 180 0044 97000000 		call	ssl_ticket_gen_key
 180      E7800000 
 181              	.LVL24:
 182              	.L8:
 183              	.LBE8:
 122:C:/Users/stapi/OneDrive/Desktop/GD32VW553/V1_MQTT_OK/GD32VW55X_Wifi_BLE_SDK/GD32VW55x_RELEASE_V1.0.2/MSDK/mbedtls/mbedtls-2.17.0-ssl/library\ssl_ticket.c ****     }
 123:C:/Users/stapi/OneDrive/Desktop/GD32VW553/V1_MQTT_OK/GD32VW55X_Wifi_BLE_SDK/GD32VW55x_RELEASE_V1.0.2/MSDK/mbedtls/mbedtls-2.17.0-ssl/library\ssl_ticket.c ****     else
 124:C:/Users/stapi/OneDrive/Desktop/GD32VW553/V1_MQTT_OK/GD32VW55X_Wifi_BLE_SDK/GD32VW55x_RELEASE_V1.0.2/MSDK/mbedtls/mbedtls-2.17.0-ssl/library\ssl_ticket.c **** #endif /* MBEDTLS_HAVE_TIME */
 125:C:/Users/stapi/OneDrive/Desktop/GD32VW553/V1_MQTT_OK/GD32VW55X_Wifi_BLE_SDK/GD32VW55x_RELEASE_V1.0.2/MSDK/mbedtls/mbedtls-2.17.0-ssl/library\ssl_ticket.c ****         return( 0 );
 126:C:/Users/stapi/OneDrive/Desktop/GD32VW553/V1_MQTT_OK/GD32VW55X_Wifi_BLE_SDK/GD32VW55x_RELEASE_V1.0.2/MSDK/mbedtls/mbedtls-2.17.0-ssl/library\ssl_ticket.c **** }
 184              		.loc 1 126 1
 185 004c 17030000 		tail	__riscv_restore_1
 185      67000300 
 186              		.cfi_restore 8
 187              		.cfi_restore 1
 188              		.cfi_def_cfa_offset 0
 189              		.cfi_endproc
 190              	.LFE393:
 192              		.section	.text.mbedtls_ssl_ticket_init,"ax",@progbits
 193              		.align	1
 194              		.globl	mbedtls_ssl_ticket_init
 196              	mbedtls_ssl_ticket_init:
 197              	.LFB383:
  47:C:/Users/stapi/OneDrive/Desktop/GD32VW553/V1_MQTT_OK/GD32VW55X_Wifi_BLE_SDK/GD32VW55x_RELEASE_V1.0.2/MSDK/mbedtls/mbedtls-2.17.0-ssl/library\ssl_ticket.c ****     memset( ctx, 0, sizeof( mbedtls_ssl_ticket_context ) );
 198              		.loc 1 47 1 is_stmt 1
 199              		.cfi_startproc
 200              	.LVL25:
  48:C:/Users/stapi/OneDrive/Desktop/GD32VW553/V1_MQTT_OK/GD32VW55X_Wifi_BLE_SDK/GD32VW55x_RELEASE_V1.0.2/MSDK/mbedtls/mbedtls-2.17.0-ssl/library\ssl_ticket.c **** 
 201              		.loc 1 48 5
 202 0000 1306000A 		li	a2,160
 203 0004 8145     		li	a1,0
 204 0006 17030000 		tail	memset
 204      67000300 
 205              	.LVL26:
 206              		.cfi_endproc
 207              	.LFE383:
 209              		.section	.text.mbedtls_ssl_ticket_setup,"ax",@progbits
 210              		.align	1
 211              		.globl	mbedtls_ssl_ticket_setup
 213              	mbedtls_ssl_ticket_setup:
 214              	.LFB386:
 127:C:/Users/stapi/OneDrive/Desktop/GD32VW553/V1_MQTT_OK/GD32VW55X_Wifi_BLE_SDK/GD32VW55x_RELEASE_V1.0.2/MSDK/mbedtls/mbedtls-2.17.0-ssl/library\ssl_ticket.c **** 
 128:C:/Users/stapi/OneDrive/Desktop/GD32VW553/V1_MQTT_OK/GD32VW55X_Wifi_BLE_SDK/GD32VW55x_RELEASE_V1.0.2/MSDK/mbedtls/mbedtls-2.17.0-ssl/library\ssl_ticket.c **** /*
 129:C:/Users/stapi/OneDrive/Desktop/GD32VW553/V1_MQTT_OK/GD32VW55X_Wifi_BLE_SDK/GD32VW55x_RELEASE_V1.0.2/MSDK/mbedtls/mbedtls-2.17.0-ssl/library\ssl_ticket.c ****  * Setup context for actual use
 130:C:/Users/stapi/OneDrive/Desktop/GD32VW553/V1_MQTT_OK/GD32VW55X_Wifi_BLE_SDK/GD32VW55x_RELEASE_V1.0.2/MSDK/mbedtls/mbedtls-2.17.0-ssl/library\ssl_ticket.c ****  */
 131:C:/Users/stapi/OneDrive/Desktop/GD32VW553/V1_MQTT_OK/GD32VW55X_Wifi_BLE_SDK/GD32VW55x_RELEASE_V1.0.2/MSDK/mbedtls/mbedtls-2.17.0-ssl/library\ssl_ticket.c **** int mbedtls_ssl_ticket_setup( mbedtls_ssl_ticket_context *ctx,
 132:C:/Users/stapi/OneDrive/Desktop/GD32VW553/V1_MQTT_OK/GD32VW55X_Wifi_BLE_SDK/GD32VW55x_RELEASE_V1.0.2/MSDK/mbedtls/mbedtls-2.17.0-ssl/library\ssl_ticket.c ****     int (*f_rng)(void *, unsigned char *, size_t), void *p_rng,
 133:C:/Users/stapi/OneDrive/Desktop/GD32VW553/V1_MQTT_OK/GD32VW55X_Wifi_BLE_SDK/GD32VW55x_RELEASE_V1.0.2/MSDK/mbedtls/mbedtls-2.17.0-ssl/library\ssl_ticket.c ****     mbedtls_cipher_type_t cipher,
 134:C:/Users/stapi/OneDrive/Desktop/GD32VW553/V1_MQTT_OK/GD32VW55X_Wifi_BLE_SDK/GD32VW55x_RELEASE_V1.0.2/MSDK/mbedtls/mbedtls-2.17.0-ssl/library\ssl_ticket.c ****     uint32_t lifetime )
 135:C:/Users/stapi/OneDrive/Desktop/GD32VW553/V1_MQTT_OK/GD32VW55X_Wifi_BLE_SDK/GD32VW55x_RELEASE_V1.0.2/MSDK/mbedtls/mbedtls-2.17.0-ssl/library\ssl_ticket.c **** {
 215              		.loc 1 135 1
 216              		.cfi_startproc
 217              	.LVL27:
 218 0000 17030000 		call	t0,__riscv_save_1
 218      E7020300 
 219              		.cfi_offset 8, -8
 220              		.cfi_offset 1, -4
 221              		.cfi_def_cfa_offset 16
 136:C:/Users/stapi/OneDrive/Desktop/GD32VW553/V1_MQTT_OK/GD32VW55X_Wifi_BLE_SDK/GD32VW55x_RELEASE_V1.0.2/MSDK/mbedtls/mbedtls-2.17.0-ssl/library\ssl_ticket.c ****     int ret;
 222              		.loc 1 136 5
 137:C:/Users/stapi/OneDrive/Desktop/GD32VW553/V1_MQTT_OK/GD32VW55X_Wifi_BLE_SDK/GD32VW55x_RELEASE_V1.0.2/MSDK/mbedtls/mbedtls-2.17.0-ssl/library\ssl_ticket.c ****     const mbedtls_cipher_info_t *cipher_info;
 223              		.loc 1 137 5
 138:C:/Users/stapi/OneDrive/Desktop/GD32VW553/V1_MQTT_OK/GD32VW55X_Wifi_BLE_SDK/GD32VW55x_RELEASE_V1.0.2/MSDK/mbedtls/mbedtls-2.17.0-ssl/library\ssl_ticket.c **** 
 139:C:/Users/stapi/OneDrive/Desktop/GD32VW553/V1_MQTT_OK/GD32VW55X_Wifi_BLE_SDK/GD32VW55x_RELEASE_V1.0.2/MSDK/mbedtls/mbedtls-2.17.0-ssl/library\ssl_ticket.c ****     ctx->f_rng = f_rng;
 224              		.loc 1 139 5
 135:C:/Users/stapi/OneDrive/Desktop/GD32VW553/V1_MQTT_OK/GD32VW55X_Wifi_BLE_SDK/GD32VW55x_RELEASE_V1.0.2/MSDK/mbedtls/mbedtls-2.17.0-ssl/library\ssl_ticket.c ****     int ret;
 225              		.loc 1 135 1 is_stmt 0
 226 0008 4111     		addi	sp,sp,-16
 227              		.cfi_def_cfa_offset 32
 135:C:/Users/stapi/OneDrive/Desktop/GD32VW553/V1_MQTT_OK/GD32VW55X_Wifi_BLE_SDK/GD32VW55x_RELEASE_V1.0.2/MSDK/mbedtls/mbedtls-2.17.0-ssl/library\ssl_ticket.c ****     int ret;
 228              		.loc 1 135 1
 229 000a 2A84     		mv	s0,a0
 230              		.loc 1 139 16
 231 000c 232CB508 		sw	a1,152(a0)
 140:C:/Users/stapi/OneDrive/Desktop/GD32VW553/V1_MQTT_OK/GD32VW55X_Wifi_BLE_SDK/GD32VW55x_RELEASE_V1.0.2/MSDK/mbedtls/mbedtls-2.17.0-ssl/library\ssl_ticket.c ****     ctx->p_rng = p_rng;
 232              		.loc 1 140 5 is_stmt 1
 233              		.loc 1 140 16 is_stmt 0
 234 0010 232EC508 		sw	a2,156(a0)
 141:C:/Users/stapi/OneDrive/Desktop/GD32VW553/V1_MQTT_OK/GD32VW55X_Wifi_BLE_SDK/GD32VW55x_RELEASE_V1.0.2/MSDK/mbedtls/mbedtls-2.17.0-ssl/library\ssl_ticket.c **** 
 142:C:/Users/stapi/OneDrive/Desktop/GD32VW553/V1_MQTT_OK/GD32VW55X_Wifi_BLE_SDK/GD32VW55x_RELEASE_V1.0.2/MSDK/mbedtls/mbedtls-2.17.0-ssl/library\ssl_ticket.c ****     ctx->ticket_lifetime = lifetime;
 235              		.loc 1 142 5 is_stmt 1
 236              		.loc 1 142 26 is_stmt 0
 237 0014 232AE508 		sw	a4,148(a0)
 143:C:/Users/stapi/OneDrive/Desktop/GD32VW553/V1_MQTT_OK/GD32VW55X_Wifi_BLE_SDK/GD32VW55x_RELEASE_V1.0.2/MSDK/mbedtls/mbedtls-2.17.0-ssl/library\ssl_ticket.c **** 
 144:C:/Users/stapi/OneDrive/Desktop/GD32VW553/V1_MQTT_OK/GD32VW55X_Wifi_BLE_SDK/GD32VW55x_RELEASE_V1.0.2/MSDK/mbedtls/mbedtls-2.17.0-ssl/library\ssl_ticket.c ****     cipher_info = mbedtls_cipher_info_from_type( cipher);
 238              		.loc 1 144 5 is_stmt 1
 239              		.loc 1 144 19 is_stmt 0
 240 0018 3685     		mv	a0,a3
 241              	.LVL28:
 242 001a 97000000 		call	mbedtls_cipher_info_from_type
 242      E7800000 
 243              	.LVL29:
 145:C:/Users/stapi/OneDrive/Desktop/GD32VW553/V1_MQTT_OK/GD32VW55X_Wifi_BLE_SDK/GD32VW55x_RELEASE_V1.0.2/MSDK/mbedtls/mbedtls-2.17.0-ssl/library\ssl_ticket.c ****     if( cipher_info == NULL )
 244              		.loc 1 145 5 is_stmt 1
 245              		.loc 1 145 7 is_stmt 0
 246 0022 29CD     		beq	a0,zero,.L19
 146:C:/Users/stapi/OneDrive/Desktop/GD32VW553/V1_MQTT_OK/GD32VW55X_Wifi_BLE_SDK/GD32VW55x_RELEASE_V1.0.2/MSDK/mbedtls/mbedtls-2.17.0-ssl/library\ssl_ticket.c ****         return( MBEDTLS_ERR_SSL_BAD_INPUT_DATA );
 147:C:/Users/stapi/OneDrive/Desktop/GD32VW553/V1_MQTT_OK/GD32VW55X_Wifi_BLE_SDK/GD32VW55x_RELEASE_V1.0.2/MSDK/mbedtls/mbedtls-2.17.0-ssl/library\ssl_ticket.c **** 
 148:C:/Users/stapi/OneDrive/Desktop/GD32VW553/V1_MQTT_OK/GD32VW55X_Wifi_BLE_SDK/GD32VW55x_RELEASE_V1.0.2/MSDK/mbedtls/mbedtls-2.17.0-ssl/library\ssl_ticket.c ****     if( cipher_info->mode != MBEDTLS_MODE_GCM &&
 247              		.loc 1 148 7
 248 0024 5C41     		lw	a5,4(a0)
 249 0026 AA85     		mv	a1,a0
 250              		.loc 1 148 5 is_stmt 1
 251              		.loc 1 148 7 is_stmt 0
 252 0028 E917     		addi	a5,a5,-6
 253 002a F59B     		andi	a5,a5,-3
 254 002c A1EB     		bne	a5,zero,.L19
 149:C:/Users/stapi/OneDrive/Desktop/GD32VW553/V1_MQTT_OK/GD32VW55X_Wifi_BLE_SDK/GD32VW55x_RELEASE_V1.0.2/MSDK/mbedtls/mbedtls-2.17.0-ssl/library\ssl_ticket.c ****         cipher_info->mode != MBEDTLS_MODE_CCM )
 150:C:/Users/stapi/OneDrive/Desktop/GD32VW553/V1_MQTT_OK/GD32VW55X_Wifi_BLE_SDK/GD32VW55x_RELEASE_V1.0.2/MSDK/mbedtls/mbedtls-2.17.0-ssl/library\ssl_ticket.c ****     {
 151:C:/Users/stapi/OneDrive/Desktop/GD32VW553/V1_MQTT_OK/GD32VW55X_Wifi_BLE_SDK/GD32VW55x_RELEASE_V1.0.2/MSDK/mbedtls/mbedtls-2.17.0-ssl/library\ssl_ticket.c ****         return( MBEDTLS_ERR_SSL_BAD_INPUT_DATA );
 152:C:/Users/stapi/OneDrive/Desktop/GD32VW553/V1_MQTT_OK/GD32VW55X_Wifi_BLE_SDK/GD32VW55x_RELEASE_V1.0.2/MSDK/mbedtls/mbedtls-2.17.0-ssl/library\ssl_ticket.c ****     }
 153:C:/Users/stapi/OneDrive/Desktop/GD32VW553/V1_MQTT_OK/GD32VW55X_Wifi_BLE_SDK/GD32VW55x_RELEASE_V1.0.2/MSDK/mbedtls/mbedtls-2.17.0-ssl/library\ssl_ticket.c **** 
 154:C:/Users/stapi/OneDrive/Desktop/GD32VW553/V1_MQTT_OK/GD32VW55X_Wifi_BLE_SDK/GD32VW55x_RELEASE_V1.0.2/MSDK/mbedtls/mbedtls-2.17.0-ssl/library\ssl_ticket.c ****     if( cipher_info->key_bitlen > 8 * MAX_KEY_BYTES )
 255              		.loc 1 154 5 is_stmt 1
 256              		.loc 1 154 7 is_stmt 0
 257 002e 1845     		lw	a4,8(a0)
 258 0030 93070010 		li	a5,256
 259 0034 63E4E704 		bgtu	a4,a5,.L19
 155:C:/Users/stapi/OneDrive/Desktop/GD32VW553/V1_MQTT_OK/GD32VW55X_Wifi_BLE_SDK/GD32VW55x_RELEASE_V1.0.2/MSDK/mbedtls/mbedtls-2.17.0-ssl/library\ssl_ticket.c ****         return( MBEDTLS_ERR_SSL_BAD_INPUT_DATA );
 156:C:/Users/stapi/OneDrive/Desktop/GD32VW553/V1_MQTT_OK/GD32VW55X_Wifi_BLE_SDK/GD32VW55x_RELEASE_V1.0.2/MSDK/mbedtls/mbedtls-2.17.0-ssl/library\ssl_ticket.c **** 
 157:C:/Users/stapi/OneDrive/Desktop/GD32VW553/V1_MQTT_OK/GD32VW55X_Wifi_BLE_SDK/GD32VW55x_RELEASE_V1.0.2/MSDK/mbedtls/mbedtls-2.17.0-ssl/library\ssl_ticket.c **** #if defined(MBEDTLS_USE_PSA_CRYPTO)
 158:C:/Users/stapi/OneDrive/Desktop/GD32VW553/V1_MQTT_OK/GD32VW55X_Wifi_BLE_SDK/GD32VW55x_RELEASE_V1.0.2/MSDK/mbedtls/mbedtls-2.17.0-ssl/library\ssl_ticket.c ****     ret = mbedtls_cipher_setup_psa( &ctx->keys[0].ctx,
 159:C:/Users/stapi/OneDrive/Desktop/GD32VW553/V1_MQTT_OK/GD32VW55X_Wifi_BLE_SDK/GD32VW55x_RELEASE_V1.0.2/MSDK/mbedtls/mbedtls-2.17.0-ssl/library\ssl_ticket.c ****                                     cipher_info, TICKET_AUTH_TAG_BYTES );
 160:C:/Users/stapi/OneDrive/Desktop/GD32VW553/V1_MQTT_OK/GD32VW55X_Wifi_BLE_SDK/GD32VW55x_RELEASE_V1.0.2/MSDK/mbedtls/mbedtls-2.17.0-ssl/library\ssl_ticket.c ****     if( ret != 0 && ret != MBEDTLS_ERR_CIPHER_FEATURE_UNAVAILABLE )
 161:C:/Users/stapi/OneDrive/Desktop/GD32VW553/V1_MQTT_OK/GD32VW55X_Wifi_BLE_SDK/GD32VW55x_RELEASE_V1.0.2/MSDK/mbedtls/mbedtls-2.17.0-ssl/library\ssl_ticket.c ****         return( ret );
 162:C:/Users/stapi/OneDrive/Desktop/GD32VW553/V1_MQTT_OK/GD32VW55X_Wifi_BLE_SDK/GD32VW55x_RELEASE_V1.0.2/MSDK/mbedtls/mbedtls-2.17.0-ssl/library\ssl_ticket.c ****     /* We don't yet expect to support all ciphers through PSA,
 163:C:/Users/stapi/OneDrive/Desktop/GD32VW553/V1_MQTT_OK/GD32VW55X_Wifi_BLE_SDK/GD32VW55x_RELEASE_V1.0.2/MSDK/mbedtls/mbedtls-2.17.0-ssl/library\ssl_ticket.c ****      * so allow fallback to ordinary mbedtls_cipher_setup(). */
 164:C:/Users/stapi/OneDrive/Desktop/GD32VW553/V1_MQTT_OK/GD32VW55X_Wifi_BLE_SDK/GD32VW55x_RELEASE_V1.0.2/MSDK/mbedtls/mbedtls-2.17.0-ssl/library\ssl_ticket.c ****     if( ret == MBEDTLS_ERR_CIPHER_FEATURE_UNAVAILABLE )
 165:C:/Users/stapi/OneDrive/Desktop/GD32VW553/V1_MQTT_OK/GD32VW55X_Wifi_BLE_SDK/GD32VW55x_RELEASE_V1.0.2/MSDK/mbedtls/mbedtls-2.17.0-ssl/library\ssl_ticket.c **** #endif /* MBEDTLS_USE_PSA_CRYPTO */
 166:C:/Users/stapi/OneDrive/Desktop/GD32VW553/V1_MQTT_OK/GD32VW55X_Wifi_BLE_SDK/GD32VW55x_RELEASE_V1.0.2/MSDK/mbedtls/mbedtls-2.17.0-ssl/library\ssl_ticket.c ****     if( ( ret = mbedtls_cipher_setup( &ctx->keys[0].ctx, cipher_info ) ) != 0 )
 260              		.loc 1 166 5 is_stmt 1
 261              		.loc 1 166 17 is_stmt 0
 262 0038 2AC6     		sw	a0,12(sp)
 263 003a 13058400 		addi	a0,s0,8
 264              	.LVL30:
 265 003e 97000000 		call	mbedtls_cipher_setup
 265      E7800000 
 266              	.LVL31:
 267              		.loc 1 166 7
 268 0046 15E5     		bne	a0,zero,.L15
 167:C:/Users/stapi/OneDrive/Desktop/GD32VW553/V1_MQTT_OK/GD32VW55X_Wifi_BLE_SDK/GD32VW55x_RELEASE_V1.0.2/MSDK/mbedtls/mbedtls-2.17.0-ssl/library\ssl_ticket.c ****         return( ret );
 168:C:/Users/stapi/OneDrive/Desktop/GD32VW553/V1_MQTT_OK/GD32VW55X_Wifi_BLE_SDK/GD32VW55x_RELEASE_V1.0.2/MSDK/mbedtls/mbedtls-2.17.0-ssl/library\ssl_ticket.c **** 
 169:C:/Users/stapi/OneDrive/Desktop/GD32VW553/V1_MQTT_OK/GD32VW55X_Wifi_BLE_SDK/GD32VW55x_RELEASE_V1.0.2/MSDK/mbedtls/mbedtls-2.17.0-ssl/library\ssl_ticket.c **** #if defined(MBEDTLS_USE_PSA_CRYPTO)
 170:C:/Users/stapi/OneDrive/Desktop/GD32VW553/V1_MQTT_OK/GD32VW55X_Wifi_BLE_SDK/GD32VW55x_RELEASE_V1.0.2/MSDK/mbedtls/mbedtls-2.17.0-ssl/library\ssl_ticket.c ****     ret = mbedtls_cipher_setup_psa( &ctx->keys[1].ctx,
 171:C:/Users/stapi/OneDrive/Desktop/GD32VW553/V1_MQTT_OK/GD32VW55X_Wifi_BLE_SDK/GD32VW55x_RELEASE_V1.0.2/MSDK/mbedtls/mbedtls-2.17.0-ssl/library\ssl_ticket.c ****                                     cipher_info, TICKET_AUTH_TAG_BYTES );
 172:C:/Users/stapi/OneDrive/Desktop/GD32VW553/V1_MQTT_OK/GD32VW55X_Wifi_BLE_SDK/GD32VW55x_RELEASE_V1.0.2/MSDK/mbedtls/mbedtls-2.17.0-ssl/library\ssl_ticket.c ****     if( ret != 0 && ret != MBEDTLS_ERR_CIPHER_FEATURE_UNAVAILABLE )
 173:C:/Users/stapi/OneDrive/Desktop/GD32VW553/V1_MQTT_OK/GD32VW55X_Wifi_BLE_SDK/GD32VW55x_RELEASE_V1.0.2/MSDK/mbedtls/mbedtls-2.17.0-ssl/library\ssl_ticket.c ****         return( ret );
 174:C:/Users/stapi/OneDrive/Desktop/GD32VW553/V1_MQTT_OK/GD32VW55X_Wifi_BLE_SDK/GD32VW55x_RELEASE_V1.0.2/MSDK/mbedtls/mbedtls-2.17.0-ssl/library\ssl_ticket.c ****     if( ret == MBEDTLS_ERR_CIPHER_FEATURE_UNAVAILABLE )
 175:C:/Users/stapi/OneDrive/Desktop/GD32VW553/V1_MQTT_OK/GD32VW55X_Wifi_BLE_SDK/GD32VW55x_RELEASE_V1.0.2/MSDK/mbedtls/mbedtls-2.17.0-ssl/library\ssl_ticket.c **** #endif /* MBEDTLS_USE_PSA_CRYPTO */
 176:C:/Users/stapi/OneDrive/Desktop/GD32VW553/V1_MQTT_OK/GD32VW55X_Wifi_BLE_SDK/GD32VW55x_RELEASE_V1.0.2/MSDK/mbedtls/mbedtls-2.17.0-ssl/library\ssl_ticket.c ****     if( ( ret = mbedtls_cipher_setup( &ctx->keys[1].ctx, cipher_info ) ) != 0 )
 269              		.loc 1 176 5 is_stmt 1
 270              		.loc 1 176 17 is_stmt 0
 271 0048 B245     		lw	a1,12(sp)
 272 004a 13050405 		addi	a0,s0,80
 273              	.LVL32:
 274 004e 97000000 		call	mbedtls_cipher_setup
 274      E7800000 
 275              	.LVL33:
 276              		.loc 1 176 7
 277 0056 11ED     		bne	a0,zero,.L15
 177:C:/Users/stapi/OneDrive/Desktop/GD32VW553/V1_MQTT_OK/GD32VW55X_Wifi_BLE_SDK/GD32VW55x_RELEASE_V1.0.2/MSDK/mbedtls/mbedtls-2.17.0-ssl/library\ssl_ticket.c ****         return( ret );
 178:C:/Users/stapi/OneDrive/Desktop/GD32VW553/V1_MQTT_OK/GD32VW55X_Wifi_BLE_SDK/GD32VW55x_RELEASE_V1.0.2/MSDK/mbedtls/mbedtls-2.17.0-ssl/library\ssl_ticket.c **** 
 179:C:/Users/stapi/OneDrive/Desktop/GD32VW553/V1_MQTT_OK/GD32VW55X_Wifi_BLE_SDK/GD32VW55x_RELEASE_V1.0.2/MSDK/mbedtls/mbedtls-2.17.0-ssl/library\ssl_ticket.c ****     if( ( ret = ssl_ticket_gen_key( ctx, 0 ) ) != 0 ||
 278              		.loc 1 179 5 is_stmt 1
 279              		.loc 1 179 17 is_stmt 0
 280 0058 8145     		li	a1,0
 281 005a 2285     		mv	a0,s0
 282              	.LVL34:
 283 005c 97000000 		call	ssl_ticket_gen_key
 283      E7800000 
 284              	.LVL35:
 285              		.loc 1 179 7
 286 0064 19E5     		bne	a0,zero,.L15
 180:C:/Users/stapi/OneDrive/Desktop/GD32VW553/V1_MQTT_OK/GD32VW55X_Wifi_BLE_SDK/GD32VW55x_RELEASE_V1.0.2/MSDK/mbedtls/mbedtls-2.17.0-ssl/library\ssl_ticket.c ****         ( ret = ssl_ticket_gen_key( ctx, 1 ) ) != 0 )
 287              		.loc 1 180 17 discriminator 1
 288 0066 8545     		li	a1,1
 289 0068 2285     		mv	a0,s0
 290              	.LVL36:
 291 006a 97000000 		call	ssl_ticket_gen_key
 291      E7800000 
 292              	.LVL37:
 293              	.L15:
 181:C:/Users/stapi/OneDrive/Desktop/GD32VW553/V1_MQTT_OK/GD32VW55X_Wifi_BLE_SDK/GD32VW55x_RELEASE_V1.0.2/MSDK/mbedtls/mbedtls-2.17.0-ssl/library\ssl_ticket.c ****     {
 182:C:/Users/stapi/OneDrive/Desktop/GD32VW553/V1_MQTT_OK/GD32VW55X_Wifi_BLE_SDK/GD32VW55x_RELEASE_V1.0.2/MSDK/mbedtls/mbedtls-2.17.0-ssl/library\ssl_ticket.c ****         return( ret );
 183:C:/Users/stapi/OneDrive/Desktop/GD32VW553/V1_MQTT_OK/GD32VW55X_Wifi_BLE_SDK/GD32VW55x_RELEASE_V1.0.2/MSDK/mbedtls/mbedtls-2.17.0-ssl/library\ssl_ticket.c ****     }
 184:C:/Users/stapi/OneDrive/Desktop/GD32VW553/V1_MQTT_OK/GD32VW55X_Wifi_BLE_SDK/GD32VW55x_RELEASE_V1.0.2/MSDK/mbedtls/mbedtls-2.17.0-ssl/library\ssl_ticket.c **** 
 185:C:/Users/stapi/OneDrive/Desktop/GD32VW553/V1_MQTT_OK/GD32VW55X_Wifi_BLE_SDK/GD32VW55x_RELEASE_V1.0.2/MSDK/mbedtls/mbedtls-2.17.0-ssl/library\ssl_ticket.c ****     return( 0 );
 186:C:/Users/stapi/OneDrive/Desktop/GD32VW553/V1_MQTT_OK/GD32VW55X_Wifi_BLE_SDK/GD32VW55x_RELEASE_V1.0.2/MSDK/mbedtls/mbedtls-2.17.0-ssl/library\ssl_ticket.c **** }
 294              		.loc 1 186 1
 295 0072 4101     		addi	sp,sp,16
 296              		.cfi_remember_state
 297              		.cfi_def_cfa_offset 0
 298 0074 17030000 		tail	__riscv_restore_1
 298      67000300 
 299              		.cfi_restore 8
 300              		.cfi_restore 1
 301              		.cfi_def_cfa_offset -16
 302              	.LVL38:
 303              	.L19:
 304              		.cfi_restore_state
 146:C:/Users/stapi/OneDrive/Desktop/GD32VW553/V1_MQTT_OK/GD32VW55X_Wifi_BLE_SDK/GD32VW55x_RELEASE_V1.0.2/MSDK/mbedtls/mbedtls-2.17.0-ssl/library\ssl_ticket.c **** 
 305              		.loc 1 146 15
 306 007c 6575     		li	a0,-28672
 307              	.LVL39:
 308 007e 130505F0 		addi	a0,a0,-256
 309 0082 C5BF     		j	.L15
 310              		.cfi_endproc
 311              	.LFE386:
 313              		.section	.text.mbedtls_ssl_ticket_write,"ax",@progbits
 314              		.align	1
 315              		.globl	mbedtls_ssl_ticket_write
 317              	mbedtls_ssl_ticket_write:
 318              	.LFB389:
 187:C:/Users/stapi/OneDrive/Desktop/GD32VW553/V1_MQTT_OK/GD32VW55X_Wifi_BLE_SDK/GD32VW55x_RELEASE_V1.0.2/MSDK/mbedtls/mbedtls-2.17.0-ssl/library\ssl_ticket.c **** 
 188:C:/Users/stapi/OneDrive/Desktop/GD32VW553/V1_MQTT_OK/GD32VW55X_Wifi_BLE_SDK/GD32VW55x_RELEASE_V1.0.2/MSDK/mbedtls/mbedtls-2.17.0-ssl/library\ssl_ticket.c **** /*
 189:C:/Users/stapi/OneDrive/Desktop/GD32VW553/V1_MQTT_OK/GD32VW55X_Wifi_BLE_SDK/GD32VW55x_RELEASE_V1.0.2/MSDK/mbedtls/mbedtls-2.17.0-ssl/library\ssl_ticket.c ****  * Serialize a session in the following format:
 190:C:/Users/stapi/OneDrive/Desktop/GD32VW553/V1_MQTT_OK/GD32VW55X_Wifi_BLE_SDK/GD32VW55x_RELEASE_V1.0.2/MSDK/mbedtls/mbedtls-2.17.0-ssl/library\ssl_ticket.c ****  *
 191:C:/Users/stapi/OneDrive/Desktop/GD32VW553/V1_MQTT_OK/GD32VW55X_Wifi_BLE_SDK/GD32VW55x_RELEASE_V1.0.2/MSDK/mbedtls/mbedtls-2.17.0-ssl/library\ssl_ticket.c ****  * - If MBEDTLS_SSL_KEEP_PEER_CERTIFICATE is enabled:
 192:C:/Users/stapi/OneDrive/Desktop/GD32VW553/V1_MQTT_OK/GD32VW55X_Wifi_BLE_SDK/GD32VW55x_RELEASE_V1.0.2/MSDK/mbedtls/mbedtls-2.17.0-ssl/library\ssl_ticket.c ****  *    0       .   n-1   session structure, n = sizeof(mbedtls_ssl_session)
 193:C:/Users/stapi/OneDrive/Desktop/GD32VW553/V1_MQTT_OK/GD32VW55X_Wifi_BLE_SDK/GD32VW55x_RELEASE_V1.0.2/MSDK/mbedtls/mbedtls-2.17.0-ssl/library\ssl_ticket.c ****  *    n       .   n+2   peer_cert length = m (0 if no certificate)
 194:C:/Users/stapi/OneDrive/Desktop/GD32VW553/V1_MQTT_OK/GD32VW55X_Wifi_BLE_SDK/GD32VW55x_RELEASE_V1.0.2/MSDK/mbedtls/mbedtls-2.17.0-ssl/library\ssl_ticket.c ****  *    n+3     .   n+2+m peer cert ASN.1
 195:C:/Users/stapi/OneDrive/Desktop/GD32VW553/V1_MQTT_OK/GD32VW55X_Wifi_BLE_SDK/GD32VW55x_RELEASE_V1.0.2/MSDK/mbedtls/mbedtls-2.17.0-ssl/library\ssl_ticket.c ****  *
 196:C:/Users/stapi/OneDrive/Desktop/GD32VW553/V1_MQTT_OK/GD32VW55X_Wifi_BLE_SDK/GD32VW55x_RELEASE_V1.0.2/MSDK/mbedtls/mbedtls-2.17.0-ssl/library\ssl_ticket.c ****  * - If MBEDTLS_SSL_KEEP_PEER_CERTIFICATE is disabled:
 197:C:/Users/stapi/OneDrive/Desktop/GD32VW553/V1_MQTT_OK/GD32VW55X_Wifi_BLE_SDK/GD32VW55x_RELEASE_V1.0.2/MSDK/mbedtls/mbedtls-2.17.0-ssl/library\ssl_ticket.c ****  *    0       .   n-1   session structure, n = sizeof(mbedtls_ssl_session)
 198:C:/Users/stapi/OneDrive/Desktop/GD32VW553/V1_MQTT_OK/GD32VW55X_Wifi_BLE_SDK/GD32VW55x_RELEASE_V1.0.2/MSDK/mbedtls/mbedtls-2.17.0-ssl/library\ssl_ticket.c ****  *    n       .   n     length of peer certificate digest = k (0 if no digest)
 199:C:/Users/stapi/OneDrive/Desktop/GD32VW553/V1_MQTT_OK/GD32VW55X_Wifi_BLE_SDK/GD32VW55x_RELEASE_V1.0.2/MSDK/mbedtls/mbedtls-2.17.0-ssl/library\ssl_ticket.c ****  *    n+1     .   n+k   peer certificate digest (digest type encoded in session)
 200:C:/Users/stapi/OneDrive/Desktop/GD32VW553/V1_MQTT_OK/GD32VW55X_Wifi_BLE_SDK/GD32VW55x_RELEASE_V1.0.2/MSDK/mbedtls/mbedtls-2.17.0-ssl/library\ssl_ticket.c ****  */
 201:C:/Users/stapi/OneDrive/Desktop/GD32VW553/V1_MQTT_OK/GD32VW55X_Wifi_BLE_SDK/GD32VW55x_RELEASE_V1.0.2/MSDK/mbedtls/mbedtls-2.17.0-ssl/library\ssl_ticket.c **** static int ssl_save_session( const mbedtls_ssl_session *session,
 202:C:/Users/stapi/OneDrive/Desktop/GD32VW553/V1_MQTT_OK/GD32VW55X_Wifi_BLE_SDK/GD32VW55x_RELEASE_V1.0.2/MSDK/mbedtls/mbedtls-2.17.0-ssl/library\ssl_ticket.c ****                              unsigned char *buf, size_t buf_len,
 203:C:/Users/stapi/OneDrive/Desktop/GD32VW553/V1_MQTT_OK/GD32VW55X_Wifi_BLE_SDK/GD32VW55x_RELEASE_V1.0.2/MSDK/mbedtls/mbedtls-2.17.0-ssl/library\ssl_ticket.c ****                              size_t *olen )
 204:C:/Users/stapi/OneDrive/Desktop/GD32VW553/V1_MQTT_OK/GD32VW55X_Wifi_BLE_SDK/GD32VW55x_RELEASE_V1.0.2/MSDK/mbedtls/mbedtls-2.17.0-ssl/library\ssl_ticket.c **** {
 205:C:/Users/stapi/OneDrive/Desktop/GD32VW553/V1_MQTT_OK/GD32VW55X_Wifi_BLE_SDK/GD32VW55x_RELEASE_V1.0.2/MSDK/mbedtls/mbedtls-2.17.0-ssl/library\ssl_ticket.c ****     unsigned char *p = buf;
 206:C:/Users/stapi/OneDrive/Desktop/GD32VW553/V1_MQTT_OK/GD32VW55X_Wifi_BLE_SDK/GD32VW55x_RELEASE_V1.0.2/MSDK/mbedtls/mbedtls-2.17.0-ssl/library\ssl_ticket.c ****     size_t left = buf_len;
 207:C:/Users/stapi/OneDrive/Desktop/GD32VW553/V1_MQTT_OK/GD32VW55X_Wifi_BLE_SDK/GD32VW55x_RELEASE_V1.0.2/MSDK/mbedtls/mbedtls-2.17.0-ssl/library\ssl_ticket.c **** #if defined(MBEDTLS_X509_CRT_PARSE_C)
 208:C:/Users/stapi/OneDrive/Desktop/GD32VW553/V1_MQTT_OK/GD32VW55X_Wifi_BLE_SDK/GD32VW55x_RELEASE_V1.0.2/MSDK/mbedtls/mbedtls-2.17.0-ssl/library\ssl_ticket.c **** #if defined(MBEDTLS_SSL_KEEP_PEER_CERTIFICATE)
 209:C:/Users/stapi/OneDrive/Desktop/GD32VW553/V1_MQTT_OK/GD32VW55X_Wifi_BLE_SDK/GD32VW55x_RELEASE_V1.0.2/MSDK/mbedtls/mbedtls-2.17.0-ssl/library\ssl_ticket.c ****     size_t cert_len;
 210:C:/Users/stapi/OneDrive/Desktop/GD32VW553/V1_MQTT_OK/GD32VW55X_Wifi_BLE_SDK/GD32VW55x_RELEASE_V1.0.2/MSDK/mbedtls/mbedtls-2.17.0-ssl/library\ssl_ticket.c **** #else
 211:C:/Users/stapi/OneDrive/Desktop/GD32VW553/V1_MQTT_OK/GD32VW55X_Wifi_BLE_SDK/GD32VW55x_RELEASE_V1.0.2/MSDK/mbedtls/mbedtls-2.17.0-ssl/library\ssl_ticket.c ****     size_t cert_digest_len;
 212:C:/Users/stapi/OneDrive/Desktop/GD32VW553/V1_MQTT_OK/GD32VW55X_Wifi_BLE_SDK/GD32VW55x_RELEASE_V1.0.2/MSDK/mbedtls/mbedtls-2.17.0-ssl/library\ssl_ticket.c **** #endif /* MBEDTLS_SSL_KEEP_PEER_CERTIFICATE */
 213:C:/Users/stapi/OneDrive/Desktop/GD32VW553/V1_MQTT_OK/GD32VW55X_Wifi_BLE_SDK/GD32VW55x_RELEASE_V1.0.2/MSDK/mbedtls/mbedtls-2.17.0-ssl/library\ssl_ticket.c **** #endif /* MBEDTLS_X509_CRT_PARSE_C */
 214:C:/Users/stapi/OneDrive/Desktop/GD32VW553/V1_MQTT_OK/GD32VW55X_Wifi_BLE_SDK/GD32VW55x_RELEASE_V1.0.2/MSDK/mbedtls/mbedtls-2.17.0-ssl/library\ssl_ticket.c **** 
 215:C:/Users/stapi/OneDrive/Desktop/GD32VW553/V1_MQTT_OK/GD32VW55X_Wifi_BLE_SDK/GD32VW55x_RELEASE_V1.0.2/MSDK/mbedtls/mbedtls-2.17.0-ssl/library\ssl_ticket.c ****     if( left < sizeof( mbedtls_ssl_session ) )
 216:C:/Users/stapi/OneDrive/Desktop/GD32VW553/V1_MQTT_OK/GD32VW55X_Wifi_BLE_SDK/GD32VW55x_RELEASE_V1.0.2/MSDK/mbedtls/mbedtls-2.17.0-ssl/library\ssl_ticket.c ****         return( MBEDTLS_ERR_SSL_BUFFER_TOO_SMALL );
 217:C:/Users/stapi/OneDrive/Desktop/GD32VW553/V1_MQTT_OK/GD32VW55X_Wifi_BLE_SDK/GD32VW55x_RELEASE_V1.0.2/MSDK/mbedtls/mbedtls-2.17.0-ssl/library\ssl_ticket.c **** 
 218:C:/Users/stapi/OneDrive/Desktop/GD32VW553/V1_MQTT_OK/GD32VW55X_Wifi_BLE_SDK/GD32VW55x_RELEASE_V1.0.2/MSDK/mbedtls/mbedtls-2.17.0-ssl/library\ssl_ticket.c ****     /* This also copies the values of pointer fields in the
 219:C:/Users/stapi/OneDrive/Desktop/GD32VW553/V1_MQTT_OK/GD32VW55X_Wifi_BLE_SDK/GD32VW55x_RELEASE_V1.0.2/MSDK/mbedtls/mbedtls-2.17.0-ssl/library\ssl_ticket.c ****      * session to be serialized, but they'll be ignored when
 220:C:/Users/stapi/OneDrive/Desktop/GD32VW553/V1_MQTT_OK/GD32VW55X_Wifi_BLE_SDK/GD32VW55x_RELEASE_V1.0.2/MSDK/mbedtls/mbedtls-2.17.0-ssl/library\ssl_ticket.c ****      * loading the session through ssl_load_session(). */
 221:C:/Users/stapi/OneDrive/Desktop/GD32VW553/V1_MQTT_OK/GD32VW55X_Wifi_BLE_SDK/GD32VW55x_RELEASE_V1.0.2/MSDK/mbedtls/mbedtls-2.17.0-ssl/library\ssl_ticket.c ****     memcpy( p, session, sizeof( mbedtls_ssl_session ) );
 222:C:/Users/stapi/OneDrive/Desktop/GD32VW553/V1_MQTT_OK/GD32VW55X_Wifi_BLE_SDK/GD32VW55x_RELEASE_V1.0.2/MSDK/mbedtls/mbedtls-2.17.0-ssl/library\ssl_ticket.c ****     p += sizeof( mbedtls_ssl_session );
 223:C:/Users/stapi/OneDrive/Desktop/GD32VW553/V1_MQTT_OK/GD32VW55X_Wifi_BLE_SDK/GD32VW55x_RELEASE_V1.0.2/MSDK/mbedtls/mbedtls-2.17.0-ssl/library\ssl_ticket.c ****     left -= sizeof( mbedtls_ssl_session );
 224:C:/Users/stapi/OneDrive/Desktop/GD32VW553/V1_MQTT_OK/GD32VW55X_Wifi_BLE_SDK/GD32VW55x_RELEASE_V1.0.2/MSDK/mbedtls/mbedtls-2.17.0-ssl/library\ssl_ticket.c **** 
 225:C:/Users/stapi/OneDrive/Desktop/GD32VW553/V1_MQTT_OK/GD32VW55X_Wifi_BLE_SDK/GD32VW55x_RELEASE_V1.0.2/MSDK/mbedtls/mbedtls-2.17.0-ssl/library\ssl_ticket.c **** #if defined(MBEDTLS_X509_CRT_PARSE_C)
 226:C:/Users/stapi/OneDrive/Desktop/GD32VW553/V1_MQTT_OK/GD32VW55X_Wifi_BLE_SDK/GD32VW55x_RELEASE_V1.0.2/MSDK/mbedtls/mbedtls-2.17.0-ssl/library\ssl_ticket.c **** #if defined(MBEDTLS_SSL_KEEP_PEER_CERTIFICATE)
 227:C:/Users/stapi/OneDrive/Desktop/GD32VW553/V1_MQTT_OK/GD32VW55X_Wifi_BLE_SDK/GD32VW55x_RELEASE_V1.0.2/MSDK/mbedtls/mbedtls-2.17.0-ssl/library\ssl_ticket.c ****     if( session->peer_cert == NULL )
 228:C:/Users/stapi/OneDrive/Desktop/GD32VW553/V1_MQTT_OK/GD32VW55X_Wifi_BLE_SDK/GD32VW55x_RELEASE_V1.0.2/MSDK/mbedtls/mbedtls-2.17.0-ssl/library\ssl_ticket.c ****         cert_len = 0;
 229:C:/Users/stapi/OneDrive/Desktop/GD32VW553/V1_MQTT_OK/GD32VW55X_Wifi_BLE_SDK/GD32VW55x_RELEASE_V1.0.2/MSDK/mbedtls/mbedtls-2.17.0-ssl/library\ssl_ticket.c ****     else
 230:C:/Users/stapi/OneDrive/Desktop/GD32VW553/V1_MQTT_OK/GD32VW55X_Wifi_BLE_SDK/GD32VW55x_RELEASE_V1.0.2/MSDK/mbedtls/mbedtls-2.17.0-ssl/library\ssl_ticket.c ****         cert_len = session->peer_cert->raw.len;
 231:C:/Users/stapi/OneDrive/Desktop/GD32VW553/V1_MQTT_OK/GD32VW55X_Wifi_BLE_SDK/GD32VW55x_RELEASE_V1.0.2/MSDK/mbedtls/mbedtls-2.17.0-ssl/library\ssl_ticket.c **** 
 232:C:/Users/stapi/OneDrive/Desktop/GD32VW553/V1_MQTT_OK/GD32VW55X_Wifi_BLE_SDK/GD32VW55x_RELEASE_V1.0.2/MSDK/mbedtls/mbedtls-2.17.0-ssl/library\ssl_ticket.c ****     if( left < 3 + cert_len )
 233:C:/Users/stapi/OneDrive/Desktop/GD32VW553/V1_MQTT_OK/GD32VW55X_Wifi_BLE_SDK/GD32VW55x_RELEASE_V1.0.2/MSDK/mbedtls/mbedtls-2.17.0-ssl/library\ssl_ticket.c ****         return( MBEDTLS_ERR_SSL_BUFFER_TOO_SMALL );
 234:C:/Users/stapi/OneDrive/Desktop/GD32VW553/V1_MQTT_OK/GD32VW55X_Wifi_BLE_SDK/GD32VW55x_RELEASE_V1.0.2/MSDK/mbedtls/mbedtls-2.17.0-ssl/library\ssl_ticket.c **** 
 235:C:/Users/stapi/OneDrive/Desktop/GD32VW553/V1_MQTT_OK/GD32VW55X_Wifi_BLE_SDK/GD32VW55x_RELEASE_V1.0.2/MSDK/mbedtls/mbedtls-2.17.0-ssl/library\ssl_ticket.c ****     *p++ = (unsigned char)( ( cert_len >> 16 ) & 0xFF );
 236:C:/Users/stapi/OneDrive/Desktop/GD32VW553/V1_MQTT_OK/GD32VW55X_Wifi_BLE_SDK/GD32VW55x_RELEASE_V1.0.2/MSDK/mbedtls/mbedtls-2.17.0-ssl/library\ssl_ticket.c ****     *p++ = (unsigned char)( ( cert_len >>  8 ) & 0xFF );
 237:C:/Users/stapi/OneDrive/Desktop/GD32VW553/V1_MQTT_OK/GD32VW55X_Wifi_BLE_SDK/GD32VW55x_RELEASE_V1.0.2/MSDK/mbedtls/mbedtls-2.17.0-ssl/library\ssl_ticket.c ****     *p++ = (unsigned char)( ( cert_len       ) & 0xFF );
 238:C:/Users/stapi/OneDrive/Desktop/GD32VW553/V1_MQTT_OK/GD32VW55X_Wifi_BLE_SDK/GD32VW55x_RELEASE_V1.0.2/MSDK/mbedtls/mbedtls-2.17.0-ssl/library\ssl_ticket.c ****     left -= 3;
 239:C:/Users/stapi/OneDrive/Desktop/GD32VW553/V1_MQTT_OK/GD32VW55X_Wifi_BLE_SDK/GD32VW55x_RELEASE_V1.0.2/MSDK/mbedtls/mbedtls-2.17.0-ssl/library\ssl_ticket.c **** 
 240:C:/Users/stapi/OneDrive/Desktop/GD32VW553/V1_MQTT_OK/GD32VW55X_Wifi_BLE_SDK/GD32VW55x_RELEASE_V1.0.2/MSDK/mbedtls/mbedtls-2.17.0-ssl/library\ssl_ticket.c ****     if( session->peer_cert != NULL )
 241:C:/Users/stapi/OneDrive/Desktop/GD32VW553/V1_MQTT_OK/GD32VW55X_Wifi_BLE_SDK/GD32VW55x_RELEASE_V1.0.2/MSDK/mbedtls/mbedtls-2.17.0-ssl/library\ssl_ticket.c ****         memcpy( p, session->peer_cert->raw.p, cert_len );
 242:C:/Users/stapi/OneDrive/Desktop/GD32VW553/V1_MQTT_OK/GD32VW55X_Wifi_BLE_SDK/GD32VW55x_RELEASE_V1.0.2/MSDK/mbedtls/mbedtls-2.17.0-ssl/library\ssl_ticket.c **** 
 243:C:/Users/stapi/OneDrive/Desktop/GD32VW553/V1_MQTT_OK/GD32VW55X_Wifi_BLE_SDK/GD32VW55x_RELEASE_V1.0.2/MSDK/mbedtls/mbedtls-2.17.0-ssl/library\ssl_ticket.c ****     p += cert_len;
 244:C:/Users/stapi/OneDrive/Desktop/GD32VW553/V1_MQTT_OK/GD32VW55X_Wifi_BLE_SDK/GD32VW55x_RELEASE_V1.0.2/MSDK/mbedtls/mbedtls-2.17.0-ssl/library\ssl_ticket.c ****     left -= cert_len;
 245:C:/Users/stapi/OneDrive/Desktop/GD32VW553/V1_MQTT_OK/GD32VW55X_Wifi_BLE_SDK/GD32VW55x_RELEASE_V1.0.2/MSDK/mbedtls/mbedtls-2.17.0-ssl/library\ssl_ticket.c **** #else /* MBEDTLS_SSL_KEEP_PEER_CERTIFICATE */
 246:C:/Users/stapi/OneDrive/Desktop/GD32VW553/V1_MQTT_OK/GD32VW55X_Wifi_BLE_SDK/GD32VW55x_RELEASE_V1.0.2/MSDK/mbedtls/mbedtls-2.17.0-ssl/library\ssl_ticket.c ****     if( session->peer_cert_digest != NULL )
 247:C:/Users/stapi/OneDrive/Desktop/GD32VW553/V1_MQTT_OK/GD32VW55X_Wifi_BLE_SDK/GD32VW55x_RELEASE_V1.0.2/MSDK/mbedtls/mbedtls-2.17.0-ssl/library\ssl_ticket.c ****         cert_digest_len = 0;
 248:C:/Users/stapi/OneDrive/Desktop/GD32VW553/V1_MQTT_OK/GD32VW55X_Wifi_BLE_SDK/GD32VW55x_RELEASE_V1.0.2/MSDK/mbedtls/mbedtls-2.17.0-ssl/library\ssl_ticket.c ****     else
 249:C:/Users/stapi/OneDrive/Desktop/GD32VW553/V1_MQTT_OK/GD32VW55X_Wifi_BLE_SDK/GD32VW55x_RELEASE_V1.0.2/MSDK/mbedtls/mbedtls-2.17.0-ssl/library\ssl_ticket.c ****         cert_digest_len = session->peer_cert_digest_len;
 250:C:/Users/stapi/OneDrive/Desktop/GD32VW553/V1_MQTT_OK/GD32VW55X_Wifi_BLE_SDK/GD32VW55x_RELEASE_V1.0.2/MSDK/mbedtls/mbedtls-2.17.0-ssl/library\ssl_ticket.c **** 
 251:C:/Users/stapi/OneDrive/Desktop/GD32VW553/V1_MQTT_OK/GD32VW55X_Wifi_BLE_SDK/GD32VW55x_RELEASE_V1.0.2/MSDK/mbedtls/mbedtls-2.17.0-ssl/library\ssl_ticket.c ****     if( left < 1 + cert_digest_len )
 252:C:/Users/stapi/OneDrive/Desktop/GD32VW553/V1_MQTT_OK/GD32VW55X_Wifi_BLE_SDK/GD32VW55x_RELEASE_V1.0.2/MSDK/mbedtls/mbedtls-2.17.0-ssl/library\ssl_ticket.c ****         return( MBEDTLS_ERR_SSL_BUFFER_TOO_SMALL );
 253:C:/Users/stapi/OneDrive/Desktop/GD32VW553/V1_MQTT_OK/GD32VW55X_Wifi_BLE_SDK/GD32VW55x_RELEASE_V1.0.2/MSDK/mbedtls/mbedtls-2.17.0-ssl/library\ssl_ticket.c **** 
 254:C:/Users/stapi/OneDrive/Desktop/GD32VW553/V1_MQTT_OK/GD32VW55X_Wifi_BLE_SDK/GD32VW55x_RELEASE_V1.0.2/MSDK/mbedtls/mbedtls-2.17.0-ssl/library\ssl_ticket.c ****     *p++ = (unsigned char) cert_digest_len;
 255:C:/Users/stapi/OneDrive/Desktop/GD32VW553/V1_MQTT_OK/GD32VW55X_Wifi_BLE_SDK/GD32VW55x_RELEASE_V1.0.2/MSDK/mbedtls/mbedtls-2.17.0-ssl/library\ssl_ticket.c ****     left--;
 256:C:/Users/stapi/OneDrive/Desktop/GD32VW553/V1_MQTT_OK/GD32VW55X_Wifi_BLE_SDK/GD32VW55x_RELEASE_V1.0.2/MSDK/mbedtls/mbedtls-2.17.0-ssl/library\ssl_ticket.c **** 
 257:C:/Users/stapi/OneDrive/Desktop/GD32VW553/V1_MQTT_OK/GD32VW55X_Wifi_BLE_SDK/GD32VW55x_RELEASE_V1.0.2/MSDK/mbedtls/mbedtls-2.17.0-ssl/library\ssl_ticket.c ****     if( session->peer_cert_digest != NULL )
 258:C:/Users/stapi/OneDrive/Desktop/GD32VW553/V1_MQTT_OK/GD32VW55X_Wifi_BLE_SDK/GD32VW55x_RELEASE_V1.0.2/MSDK/mbedtls/mbedtls-2.17.0-ssl/library\ssl_ticket.c ****         memcpy( p, session->peer_cert_digest, cert_digest_len );
 259:C:/Users/stapi/OneDrive/Desktop/GD32VW553/V1_MQTT_OK/GD32VW55X_Wifi_BLE_SDK/GD32VW55x_RELEASE_V1.0.2/MSDK/mbedtls/mbedtls-2.17.0-ssl/library\ssl_ticket.c **** 
 260:C:/Users/stapi/OneDrive/Desktop/GD32VW553/V1_MQTT_OK/GD32VW55X_Wifi_BLE_SDK/GD32VW55x_RELEASE_V1.0.2/MSDK/mbedtls/mbedtls-2.17.0-ssl/library\ssl_ticket.c ****     p    += cert_digest_len;
 261:C:/Users/stapi/OneDrive/Desktop/GD32VW553/V1_MQTT_OK/GD32VW55X_Wifi_BLE_SDK/GD32VW55x_RELEASE_V1.0.2/MSDK/mbedtls/mbedtls-2.17.0-ssl/library\ssl_ticket.c ****     left -= cert_digest_len;
 262:C:/Users/stapi/OneDrive/Desktop/GD32VW553/V1_MQTT_OK/GD32VW55X_Wifi_BLE_SDK/GD32VW55x_RELEASE_V1.0.2/MSDK/mbedtls/mbedtls-2.17.0-ssl/library\ssl_ticket.c **** #endif /* !MBEDTLS_SSL_KEEP_PEER_CERTIFICATE */
 263:C:/Users/stapi/OneDrive/Desktop/GD32VW553/V1_MQTT_OK/GD32VW55X_Wifi_BLE_SDK/GD32VW55x_RELEASE_V1.0.2/MSDK/mbedtls/mbedtls-2.17.0-ssl/library\ssl_ticket.c **** #endif /* MBEDTLS_X509_CRT_PARSE_C */
 264:C:/Users/stapi/OneDrive/Desktop/GD32VW553/V1_MQTT_OK/GD32VW55X_Wifi_BLE_SDK/GD32VW55x_RELEASE_V1.0.2/MSDK/mbedtls/mbedtls-2.17.0-ssl/library\ssl_ticket.c **** 
 265:C:/Users/stapi/OneDrive/Desktop/GD32VW553/V1_MQTT_OK/GD32VW55X_Wifi_BLE_SDK/GD32VW55x_RELEASE_V1.0.2/MSDK/mbedtls/mbedtls-2.17.0-ssl/library\ssl_ticket.c ****     *olen = p - buf;
 266:C:/Users/stapi/OneDrive/Desktop/GD32VW553/V1_MQTT_OK/GD32VW55X_Wifi_BLE_SDK/GD32VW55x_RELEASE_V1.0.2/MSDK/mbedtls/mbedtls-2.17.0-ssl/library\ssl_ticket.c **** 
 267:C:/Users/stapi/OneDrive/Desktop/GD32VW553/V1_MQTT_OK/GD32VW55X_Wifi_BLE_SDK/GD32VW55x_RELEASE_V1.0.2/MSDK/mbedtls/mbedtls-2.17.0-ssl/library\ssl_ticket.c ****     return( 0 );
 268:C:/Users/stapi/OneDrive/Desktop/GD32VW553/V1_MQTT_OK/GD32VW55X_Wifi_BLE_SDK/GD32VW55x_RELEASE_V1.0.2/MSDK/mbedtls/mbedtls-2.17.0-ssl/library\ssl_ticket.c **** }
 269:C:/Users/stapi/OneDrive/Desktop/GD32VW553/V1_MQTT_OK/GD32VW55X_Wifi_BLE_SDK/GD32VW55x_RELEASE_V1.0.2/MSDK/mbedtls/mbedtls-2.17.0-ssl/library\ssl_ticket.c **** 
 270:C:/Users/stapi/OneDrive/Desktop/GD32VW553/V1_MQTT_OK/GD32VW55X_Wifi_BLE_SDK/GD32VW55x_RELEASE_V1.0.2/MSDK/mbedtls/mbedtls-2.17.0-ssl/library\ssl_ticket.c **** /*
 271:C:/Users/stapi/OneDrive/Desktop/GD32VW553/V1_MQTT_OK/GD32VW55X_Wifi_BLE_SDK/GD32VW55x_RELEASE_V1.0.2/MSDK/mbedtls/mbedtls-2.17.0-ssl/library\ssl_ticket.c ****  * Unserialise session, see ssl_save_session()
 272:C:/Users/stapi/OneDrive/Desktop/GD32VW553/V1_MQTT_OK/GD32VW55X_Wifi_BLE_SDK/GD32VW55x_RELEASE_V1.0.2/MSDK/mbedtls/mbedtls-2.17.0-ssl/library\ssl_ticket.c ****  */
 273:C:/Users/stapi/OneDrive/Desktop/GD32VW553/V1_MQTT_OK/GD32VW55X_Wifi_BLE_SDK/GD32VW55x_RELEASE_V1.0.2/MSDK/mbedtls/mbedtls-2.17.0-ssl/library\ssl_ticket.c **** static int ssl_load_session( mbedtls_ssl_session *session,
 274:C:/Users/stapi/OneDrive/Desktop/GD32VW553/V1_MQTT_OK/GD32VW55X_Wifi_BLE_SDK/GD32VW55x_RELEASE_V1.0.2/MSDK/mbedtls/mbedtls-2.17.0-ssl/library\ssl_ticket.c ****                              const unsigned char *buf, size_t len )
 275:C:/Users/stapi/OneDrive/Desktop/GD32VW553/V1_MQTT_OK/GD32VW55X_Wifi_BLE_SDK/GD32VW55x_RELEASE_V1.0.2/MSDK/mbedtls/mbedtls-2.17.0-ssl/library\ssl_ticket.c **** {
 276:C:/Users/stapi/OneDrive/Desktop/GD32VW553/V1_MQTT_OK/GD32VW55X_Wifi_BLE_SDK/GD32VW55x_RELEASE_V1.0.2/MSDK/mbedtls/mbedtls-2.17.0-ssl/library\ssl_ticket.c ****     const unsigned char *p = buf;
 277:C:/Users/stapi/OneDrive/Desktop/GD32VW553/V1_MQTT_OK/GD32VW55X_Wifi_BLE_SDK/GD32VW55x_RELEASE_V1.0.2/MSDK/mbedtls/mbedtls-2.17.0-ssl/library\ssl_ticket.c ****     const unsigned char * const end = buf + len;
 278:C:/Users/stapi/OneDrive/Desktop/GD32VW553/V1_MQTT_OK/GD32VW55X_Wifi_BLE_SDK/GD32VW55x_RELEASE_V1.0.2/MSDK/mbedtls/mbedtls-2.17.0-ssl/library\ssl_ticket.c **** #if defined(MBEDTLS_X509_CRT_PARSE_C)
 279:C:/Users/stapi/OneDrive/Desktop/GD32VW553/V1_MQTT_OK/GD32VW55X_Wifi_BLE_SDK/GD32VW55x_RELEASE_V1.0.2/MSDK/mbedtls/mbedtls-2.17.0-ssl/library\ssl_ticket.c **** #if defined(MBEDTLS_SSL_KEEP_PEER_CERTIFICATE)
 280:C:/Users/stapi/OneDrive/Desktop/GD32VW553/V1_MQTT_OK/GD32VW55X_Wifi_BLE_SDK/GD32VW55x_RELEASE_V1.0.2/MSDK/mbedtls/mbedtls-2.17.0-ssl/library\ssl_ticket.c ****     size_t cert_len;
 281:C:/Users/stapi/OneDrive/Desktop/GD32VW553/V1_MQTT_OK/GD32VW55X_Wifi_BLE_SDK/GD32VW55x_RELEASE_V1.0.2/MSDK/mbedtls/mbedtls-2.17.0-ssl/library\ssl_ticket.c **** #else
 282:C:/Users/stapi/OneDrive/Desktop/GD32VW553/V1_MQTT_OK/GD32VW55X_Wifi_BLE_SDK/GD32VW55x_RELEASE_V1.0.2/MSDK/mbedtls/mbedtls-2.17.0-ssl/library\ssl_ticket.c ****     size_t cert_digest_len;
 283:C:/Users/stapi/OneDrive/Desktop/GD32VW553/V1_MQTT_OK/GD32VW55X_Wifi_BLE_SDK/GD32VW55x_RELEASE_V1.0.2/MSDK/mbedtls/mbedtls-2.17.0-ssl/library\ssl_ticket.c **** #endif /* MBEDTLS_SSL_KEEP_PEER_CERTIFICATE */
 284:C:/Users/stapi/OneDrive/Desktop/GD32VW553/V1_MQTT_OK/GD32VW55X_Wifi_BLE_SDK/GD32VW55x_RELEASE_V1.0.2/MSDK/mbedtls/mbedtls-2.17.0-ssl/library\ssl_ticket.c **** #endif /* MBEDTLS_X509_CRT_PARSE_C */
 285:C:/Users/stapi/OneDrive/Desktop/GD32VW553/V1_MQTT_OK/GD32VW55X_Wifi_BLE_SDK/GD32VW55x_RELEASE_V1.0.2/MSDK/mbedtls/mbedtls-2.17.0-ssl/library\ssl_ticket.c **** 
 286:C:/Users/stapi/OneDrive/Desktop/GD32VW553/V1_MQTT_OK/GD32VW55X_Wifi_BLE_SDK/GD32VW55x_RELEASE_V1.0.2/MSDK/mbedtls/mbedtls-2.17.0-ssl/library\ssl_ticket.c ****     if( sizeof( mbedtls_ssl_session ) > (size_t)( end - p ) )
 287:C:/Users/stapi/OneDrive/Desktop/GD32VW553/V1_MQTT_OK/GD32VW55X_Wifi_BLE_SDK/GD32VW55x_RELEASE_V1.0.2/MSDK/mbedtls/mbedtls-2.17.0-ssl/library\ssl_ticket.c ****         return( MBEDTLS_ERR_SSL_BAD_INPUT_DATA );
 288:C:/Users/stapi/OneDrive/Desktop/GD32VW553/V1_MQTT_OK/GD32VW55X_Wifi_BLE_SDK/GD32VW55x_RELEASE_V1.0.2/MSDK/mbedtls/mbedtls-2.17.0-ssl/library\ssl_ticket.c **** 
 289:C:/Users/stapi/OneDrive/Desktop/GD32VW553/V1_MQTT_OK/GD32VW55X_Wifi_BLE_SDK/GD32VW55x_RELEASE_V1.0.2/MSDK/mbedtls/mbedtls-2.17.0-ssl/library\ssl_ticket.c ****     memcpy( session, p, sizeof( mbedtls_ssl_session ) );
 290:C:/Users/stapi/OneDrive/Desktop/GD32VW553/V1_MQTT_OK/GD32VW55X_Wifi_BLE_SDK/GD32VW55x_RELEASE_V1.0.2/MSDK/mbedtls/mbedtls-2.17.0-ssl/library\ssl_ticket.c ****     p += sizeof( mbedtls_ssl_session );
 291:C:/Users/stapi/OneDrive/Desktop/GD32VW553/V1_MQTT_OK/GD32VW55X_Wifi_BLE_SDK/GD32VW55x_RELEASE_V1.0.2/MSDK/mbedtls/mbedtls-2.17.0-ssl/library\ssl_ticket.c **** 
 292:C:/Users/stapi/OneDrive/Desktop/GD32VW553/V1_MQTT_OK/GD32VW55X_Wifi_BLE_SDK/GD32VW55x_RELEASE_V1.0.2/MSDK/mbedtls/mbedtls-2.17.0-ssl/library\ssl_ticket.c ****     /* Non-NULL pointer fields of `session` are meaningless
 293:C:/Users/stapi/OneDrive/Desktop/GD32VW553/V1_MQTT_OK/GD32VW55X_Wifi_BLE_SDK/GD32VW55x_RELEASE_V1.0.2/MSDK/mbedtls/mbedtls-2.17.0-ssl/library\ssl_ticket.c ****      * and potentially harmful. Zeroize them for safety. */
 294:C:/Users/stapi/OneDrive/Desktop/GD32VW553/V1_MQTT_OK/GD32VW55X_Wifi_BLE_SDK/GD32VW55x_RELEASE_V1.0.2/MSDK/mbedtls/mbedtls-2.17.0-ssl/library\ssl_ticket.c **** #if defined(MBEDTLS_X509_CRT_PARSE_C)
 295:C:/Users/stapi/OneDrive/Desktop/GD32VW553/V1_MQTT_OK/GD32VW55X_Wifi_BLE_SDK/GD32VW55x_RELEASE_V1.0.2/MSDK/mbedtls/mbedtls-2.17.0-ssl/library\ssl_ticket.c **** #if defined(MBEDTLS_SSL_KEEP_PEER_CERTIFICATE)
 296:C:/Users/stapi/OneDrive/Desktop/GD32VW553/V1_MQTT_OK/GD32VW55X_Wifi_BLE_SDK/GD32VW55x_RELEASE_V1.0.2/MSDK/mbedtls/mbedtls-2.17.0-ssl/library\ssl_ticket.c ****     session->peer_cert = NULL;
 297:C:/Users/stapi/OneDrive/Desktop/GD32VW553/V1_MQTT_OK/GD32VW55X_Wifi_BLE_SDK/GD32VW55x_RELEASE_V1.0.2/MSDK/mbedtls/mbedtls-2.17.0-ssl/library\ssl_ticket.c **** #else
 298:C:/Users/stapi/OneDrive/Desktop/GD32VW553/V1_MQTT_OK/GD32VW55X_Wifi_BLE_SDK/GD32VW55x_RELEASE_V1.0.2/MSDK/mbedtls/mbedtls-2.17.0-ssl/library\ssl_ticket.c ****     session->peer_cert_digest = NULL;
 299:C:/Users/stapi/OneDrive/Desktop/GD32VW553/V1_MQTT_OK/GD32VW55X_Wifi_BLE_SDK/GD32VW55x_RELEASE_V1.0.2/MSDK/mbedtls/mbedtls-2.17.0-ssl/library\ssl_ticket.c **** #endif /* !MBEDTLS_SSL_KEEP_PEER_CERTIFICATE */
 300:C:/Users/stapi/OneDrive/Desktop/GD32VW553/V1_MQTT_OK/GD32VW55X_Wifi_BLE_SDK/GD32VW55x_RELEASE_V1.0.2/MSDK/mbedtls/mbedtls-2.17.0-ssl/library\ssl_ticket.c **** #endif /* MBEDTLS_X509_CRT_PARSE_C */
 301:C:/Users/stapi/OneDrive/Desktop/GD32VW553/V1_MQTT_OK/GD32VW55X_Wifi_BLE_SDK/GD32VW55x_RELEASE_V1.0.2/MSDK/mbedtls/mbedtls-2.17.0-ssl/library\ssl_ticket.c **** #if defined(MBEDTLS_SSL_SESSION_TICKETS) && defined(MBEDTLS_SSL_CLI_C)
 302:C:/Users/stapi/OneDrive/Desktop/GD32VW553/V1_MQTT_OK/GD32VW55X_Wifi_BLE_SDK/GD32VW55x_RELEASE_V1.0.2/MSDK/mbedtls/mbedtls-2.17.0-ssl/library\ssl_ticket.c ****     session->ticket = NULL;
 303:C:/Users/stapi/OneDrive/Desktop/GD32VW553/V1_MQTT_OK/GD32VW55X_Wifi_BLE_SDK/GD32VW55x_RELEASE_V1.0.2/MSDK/mbedtls/mbedtls-2.17.0-ssl/library\ssl_ticket.c **** #endif /* MBEDTLS_SSL_SESSION_TICKETS && MBEDTLS_SSL_CLI_C */
 304:C:/Users/stapi/OneDrive/Desktop/GD32VW553/V1_MQTT_OK/GD32VW55X_Wifi_BLE_SDK/GD32VW55x_RELEASE_V1.0.2/MSDK/mbedtls/mbedtls-2.17.0-ssl/library\ssl_ticket.c **** 
 305:C:/Users/stapi/OneDrive/Desktop/GD32VW553/V1_MQTT_OK/GD32VW55X_Wifi_BLE_SDK/GD32VW55x_RELEASE_V1.0.2/MSDK/mbedtls/mbedtls-2.17.0-ssl/library\ssl_ticket.c **** #if defined(MBEDTLS_X509_CRT_PARSE_C)
 306:C:/Users/stapi/OneDrive/Desktop/GD32VW553/V1_MQTT_OK/GD32VW55X_Wifi_BLE_SDK/GD32VW55x_RELEASE_V1.0.2/MSDK/mbedtls/mbedtls-2.17.0-ssl/library\ssl_ticket.c **** #if defined(MBEDTLS_SSL_KEEP_PEER_CERTIFICATE)
 307:C:/Users/stapi/OneDrive/Desktop/GD32VW553/V1_MQTT_OK/GD32VW55X_Wifi_BLE_SDK/GD32VW55x_RELEASE_V1.0.2/MSDK/mbedtls/mbedtls-2.17.0-ssl/library\ssl_ticket.c ****     /* Deserialize CRT from the end of the ticket. */
 308:C:/Users/stapi/OneDrive/Desktop/GD32VW553/V1_MQTT_OK/GD32VW55X_Wifi_BLE_SDK/GD32VW55x_RELEASE_V1.0.2/MSDK/mbedtls/mbedtls-2.17.0-ssl/library\ssl_ticket.c ****     if( 3 > (size_t)( end - p ) )
 309:C:/Users/stapi/OneDrive/Desktop/GD32VW553/V1_MQTT_OK/GD32VW55X_Wifi_BLE_SDK/GD32VW55x_RELEASE_V1.0.2/MSDK/mbedtls/mbedtls-2.17.0-ssl/library\ssl_ticket.c ****         return( MBEDTLS_ERR_SSL_BAD_INPUT_DATA );
 310:C:/Users/stapi/OneDrive/Desktop/GD32VW553/V1_MQTT_OK/GD32VW55X_Wifi_BLE_SDK/GD32VW55x_RELEASE_V1.0.2/MSDK/mbedtls/mbedtls-2.17.0-ssl/library\ssl_ticket.c **** 
 311:C:/Users/stapi/OneDrive/Desktop/GD32VW553/V1_MQTT_OK/GD32VW55X_Wifi_BLE_SDK/GD32VW55x_RELEASE_V1.0.2/MSDK/mbedtls/mbedtls-2.17.0-ssl/library\ssl_ticket.c ****     cert_len = ( p[0] << 16 ) | ( p[1] << 8 ) | p[2];
 312:C:/Users/stapi/OneDrive/Desktop/GD32VW553/V1_MQTT_OK/GD32VW55X_Wifi_BLE_SDK/GD32VW55x_RELEASE_V1.0.2/MSDK/mbedtls/mbedtls-2.17.0-ssl/library\ssl_ticket.c ****     p += 3;
 313:C:/Users/stapi/OneDrive/Desktop/GD32VW553/V1_MQTT_OK/GD32VW55X_Wifi_BLE_SDK/GD32VW55x_RELEASE_V1.0.2/MSDK/mbedtls/mbedtls-2.17.0-ssl/library\ssl_ticket.c **** 
 314:C:/Users/stapi/OneDrive/Desktop/GD32VW553/V1_MQTT_OK/GD32VW55X_Wifi_BLE_SDK/GD32VW55x_RELEASE_V1.0.2/MSDK/mbedtls/mbedtls-2.17.0-ssl/library\ssl_ticket.c ****     if( cert_len != 0 )
 315:C:/Users/stapi/OneDrive/Desktop/GD32VW553/V1_MQTT_OK/GD32VW55X_Wifi_BLE_SDK/GD32VW55x_RELEASE_V1.0.2/MSDK/mbedtls/mbedtls-2.17.0-ssl/library\ssl_ticket.c ****     {
 316:C:/Users/stapi/OneDrive/Desktop/GD32VW553/V1_MQTT_OK/GD32VW55X_Wifi_BLE_SDK/GD32VW55x_RELEASE_V1.0.2/MSDK/mbedtls/mbedtls-2.17.0-ssl/library\ssl_ticket.c ****         int ret;
 317:C:/Users/stapi/OneDrive/Desktop/GD32VW553/V1_MQTT_OK/GD32VW55X_Wifi_BLE_SDK/GD32VW55x_RELEASE_V1.0.2/MSDK/mbedtls/mbedtls-2.17.0-ssl/library\ssl_ticket.c **** 
 318:C:/Users/stapi/OneDrive/Desktop/GD32VW553/V1_MQTT_OK/GD32VW55X_Wifi_BLE_SDK/GD32VW55x_RELEASE_V1.0.2/MSDK/mbedtls/mbedtls-2.17.0-ssl/library\ssl_ticket.c ****         if( cert_len > (size_t)( end - p ) )
 319:C:/Users/stapi/OneDrive/Desktop/GD32VW553/V1_MQTT_OK/GD32VW55X_Wifi_BLE_SDK/GD32VW55x_RELEASE_V1.0.2/MSDK/mbedtls/mbedtls-2.17.0-ssl/library\ssl_ticket.c ****             return( MBEDTLS_ERR_SSL_BAD_INPUT_DATA );
 320:C:/Users/stapi/OneDrive/Desktop/GD32VW553/V1_MQTT_OK/GD32VW55X_Wifi_BLE_SDK/GD32VW55x_RELEASE_V1.0.2/MSDK/mbedtls/mbedtls-2.17.0-ssl/library\ssl_ticket.c **** 
 321:C:/Users/stapi/OneDrive/Desktop/GD32VW553/V1_MQTT_OK/GD32VW55X_Wifi_BLE_SDK/GD32VW55x_RELEASE_V1.0.2/MSDK/mbedtls/mbedtls-2.17.0-ssl/library\ssl_ticket.c ****         session->peer_cert = mbedtls_calloc( 1, sizeof( mbedtls_x509_crt ) );
 322:C:/Users/stapi/OneDrive/Desktop/GD32VW553/V1_MQTT_OK/GD32VW55X_Wifi_BLE_SDK/GD32VW55x_RELEASE_V1.0.2/MSDK/mbedtls/mbedtls-2.17.0-ssl/library\ssl_ticket.c **** 
 323:C:/Users/stapi/OneDrive/Desktop/GD32VW553/V1_MQTT_OK/GD32VW55X_Wifi_BLE_SDK/GD32VW55x_RELEASE_V1.0.2/MSDK/mbedtls/mbedtls-2.17.0-ssl/library\ssl_ticket.c ****         if( session->peer_cert == NULL )
 324:C:/Users/stapi/OneDrive/Desktop/GD32VW553/V1_MQTT_OK/GD32VW55X_Wifi_BLE_SDK/GD32VW55x_RELEASE_V1.0.2/MSDK/mbedtls/mbedtls-2.17.0-ssl/library\ssl_ticket.c ****             return( MBEDTLS_ERR_SSL_ALLOC_FAILED );
 325:C:/Users/stapi/OneDrive/Desktop/GD32VW553/V1_MQTT_OK/GD32VW55X_Wifi_BLE_SDK/GD32VW55x_RELEASE_V1.0.2/MSDK/mbedtls/mbedtls-2.17.0-ssl/library\ssl_ticket.c **** 
 326:C:/Users/stapi/OneDrive/Desktop/GD32VW553/V1_MQTT_OK/GD32VW55X_Wifi_BLE_SDK/GD32VW55x_RELEASE_V1.0.2/MSDK/mbedtls/mbedtls-2.17.0-ssl/library\ssl_ticket.c ****         mbedtls_x509_crt_init( session->peer_cert );
 327:C:/Users/stapi/OneDrive/Desktop/GD32VW553/V1_MQTT_OK/GD32VW55X_Wifi_BLE_SDK/GD32VW55x_RELEASE_V1.0.2/MSDK/mbedtls/mbedtls-2.17.0-ssl/library\ssl_ticket.c **** 
 328:C:/Users/stapi/OneDrive/Desktop/GD32VW553/V1_MQTT_OK/GD32VW55X_Wifi_BLE_SDK/GD32VW55x_RELEASE_V1.0.2/MSDK/mbedtls/mbedtls-2.17.0-ssl/library\ssl_ticket.c ****         if( ( ret = mbedtls_x509_crt_parse_der( session->peer_cert,
 329:C:/Users/stapi/OneDrive/Desktop/GD32VW553/V1_MQTT_OK/GD32VW55X_Wifi_BLE_SDK/GD32VW55x_RELEASE_V1.0.2/MSDK/mbedtls/mbedtls-2.17.0-ssl/library\ssl_ticket.c ****                                                 p, cert_len ) ) != 0 )
 330:C:/Users/stapi/OneDrive/Desktop/GD32VW553/V1_MQTT_OK/GD32VW55X_Wifi_BLE_SDK/GD32VW55x_RELEASE_V1.0.2/MSDK/mbedtls/mbedtls-2.17.0-ssl/library\ssl_ticket.c ****         {
 331:C:/Users/stapi/OneDrive/Desktop/GD32VW553/V1_MQTT_OK/GD32VW55X_Wifi_BLE_SDK/GD32VW55x_RELEASE_V1.0.2/MSDK/mbedtls/mbedtls-2.17.0-ssl/library\ssl_ticket.c ****             mbedtls_x509_crt_free( session->peer_cert );
 332:C:/Users/stapi/OneDrive/Desktop/GD32VW553/V1_MQTT_OK/GD32VW55X_Wifi_BLE_SDK/GD32VW55x_RELEASE_V1.0.2/MSDK/mbedtls/mbedtls-2.17.0-ssl/library\ssl_ticket.c ****             mbedtls_free( session->peer_cert );
 333:C:/Users/stapi/OneDrive/Desktop/GD32VW553/V1_MQTT_OK/GD32VW55X_Wifi_BLE_SDK/GD32VW55x_RELEASE_V1.0.2/MSDK/mbedtls/mbedtls-2.17.0-ssl/library\ssl_ticket.c ****             session->peer_cert = NULL;
 334:C:/Users/stapi/OneDrive/Desktop/GD32VW553/V1_MQTT_OK/GD32VW55X_Wifi_BLE_SDK/GD32VW55x_RELEASE_V1.0.2/MSDK/mbedtls/mbedtls-2.17.0-ssl/library\ssl_ticket.c ****             return( ret );
 335:C:/Users/stapi/OneDrive/Desktop/GD32VW553/V1_MQTT_OK/GD32VW55X_Wifi_BLE_SDK/GD32VW55x_RELEASE_V1.0.2/MSDK/mbedtls/mbedtls-2.17.0-ssl/library\ssl_ticket.c ****         }
 336:C:/Users/stapi/OneDrive/Desktop/GD32VW553/V1_MQTT_OK/GD32VW55X_Wifi_BLE_SDK/GD32VW55x_RELEASE_V1.0.2/MSDK/mbedtls/mbedtls-2.17.0-ssl/library\ssl_ticket.c **** 
 337:C:/Users/stapi/OneDrive/Desktop/GD32VW553/V1_MQTT_OK/GD32VW55X_Wifi_BLE_SDK/GD32VW55x_RELEASE_V1.0.2/MSDK/mbedtls/mbedtls-2.17.0-ssl/library\ssl_ticket.c ****         p += cert_len;
 338:C:/Users/stapi/OneDrive/Desktop/GD32VW553/V1_MQTT_OK/GD32VW55X_Wifi_BLE_SDK/GD32VW55x_RELEASE_V1.0.2/MSDK/mbedtls/mbedtls-2.17.0-ssl/library\ssl_ticket.c ****     }
 339:C:/Users/stapi/OneDrive/Desktop/GD32VW553/V1_MQTT_OK/GD32VW55X_Wifi_BLE_SDK/GD32VW55x_RELEASE_V1.0.2/MSDK/mbedtls/mbedtls-2.17.0-ssl/library\ssl_ticket.c **** #else /* MBEDTLS_SSL_KEEP_PEER_CERTIFICATE */
 340:C:/Users/stapi/OneDrive/Desktop/GD32VW553/V1_MQTT_OK/GD32VW55X_Wifi_BLE_SDK/GD32VW55x_RELEASE_V1.0.2/MSDK/mbedtls/mbedtls-2.17.0-ssl/library\ssl_ticket.c ****     /* Deserialize CRT digest from the end of the ticket. */
 341:C:/Users/stapi/OneDrive/Desktop/GD32VW553/V1_MQTT_OK/GD32VW55X_Wifi_BLE_SDK/GD32VW55x_RELEASE_V1.0.2/MSDK/mbedtls/mbedtls-2.17.0-ssl/library\ssl_ticket.c ****     if( 1 > (size_t)( end - p ) )
 342:C:/Users/stapi/OneDrive/Desktop/GD32VW553/V1_MQTT_OK/GD32VW55X_Wifi_BLE_SDK/GD32VW55x_RELEASE_V1.0.2/MSDK/mbedtls/mbedtls-2.17.0-ssl/library\ssl_ticket.c ****         return( MBEDTLS_ERR_SSL_BAD_INPUT_DATA );
 343:C:/Users/stapi/OneDrive/Desktop/GD32VW553/V1_MQTT_OK/GD32VW55X_Wifi_BLE_SDK/GD32VW55x_RELEASE_V1.0.2/MSDK/mbedtls/mbedtls-2.17.0-ssl/library\ssl_ticket.c **** 
 344:C:/Users/stapi/OneDrive/Desktop/GD32VW553/V1_MQTT_OK/GD32VW55X_Wifi_BLE_SDK/GD32VW55x_RELEASE_V1.0.2/MSDK/mbedtls/mbedtls-2.17.0-ssl/library\ssl_ticket.c ****     cert_digest_len = (size_t) p[0];
 345:C:/Users/stapi/OneDrive/Desktop/GD32VW553/V1_MQTT_OK/GD32VW55X_Wifi_BLE_SDK/GD32VW55x_RELEASE_V1.0.2/MSDK/mbedtls/mbedtls-2.17.0-ssl/library\ssl_ticket.c ****     p++;
 346:C:/Users/stapi/OneDrive/Desktop/GD32VW553/V1_MQTT_OK/GD32VW55X_Wifi_BLE_SDK/GD32VW55x_RELEASE_V1.0.2/MSDK/mbedtls/mbedtls-2.17.0-ssl/library\ssl_ticket.c **** 
 347:C:/Users/stapi/OneDrive/Desktop/GD32VW553/V1_MQTT_OK/GD32VW55X_Wifi_BLE_SDK/GD32VW55x_RELEASE_V1.0.2/MSDK/mbedtls/mbedtls-2.17.0-ssl/library\ssl_ticket.c ****     if( cert_digest_len != 0 )
 348:C:/Users/stapi/OneDrive/Desktop/GD32VW553/V1_MQTT_OK/GD32VW55X_Wifi_BLE_SDK/GD32VW55x_RELEASE_V1.0.2/MSDK/mbedtls/mbedtls-2.17.0-ssl/library\ssl_ticket.c ****     {
 349:C:/Users/stapi/OneDrive/Desktop/GD32VW553/V1_MQTT_OK/GD32VW55X_Wifi_BLE_SDK/GD32VW55x_RELEASE_V1.0.2/MSDK/mbedtls/mbedtls-2.17.0-ssl/library\ssl_ticket.c ****         if( cert_digest_len > (size_t)( end - p ) ||
 350:C:/Users/stapi/OneDrive/Desktop/GD32VW553/V1_MQTT_OK/GD32VW55X_Wifi_BLE_SDK/GD32VW55x_RELEASE_V1.0.2/MSDK/mbedtls/mbedtls-2.17.0-ssl/library\ssl_ticket.c ****             cert_digest_len != session->peer_cert_digest_len )
 351:C:/Users/stapi/OneDrive/Desktop/GD32VW553/V1_MQTT_OK/GD32VW55X_Wifi_BLE_SDK/GD32VW55x_RELEASE_V1.0.2/MSDK/mbedtls/mbedtls-2.17.0-ssl/library\ssl_ticket.c ****         {
 352:C:/Users/stapi/OneDrive/Desktop/GD32VW553/V1_MQTT_OK/GD32VW55X_Wifi_BLE_SDK/GD32VW55x_RELEASE_V1.0.2/MSDK/mbedtls/mbedtls-2.17.0-ssl/library\ssl_ticket.c ****             return( MBEDTLS_ERR_SSL_BAD_INPUT_DATA );
 353:C:/Users/stapi/OneDrive/Desktop/GD32VW553/V1_MQTT_OK/GD32VW55X_Wifi_BLE_SDK/GD32VW55x_RELEASE_V1.0.2/MSDK/mbedtls/mbedtls-2.17.0-ssl/library\ssl_ticket.c ****         }
 354:C:/Users/stapi/OneDrive/Desktop/GD32VW553/V1_MQTT_OK/GD32VW55X_Wifi_BLE_SDK/GD32VW55x_RELEASE_V1.0.2/MSDK/mbedtls/mbedtls-2.17.0-ssl/library\ssl_ticket.c **** 
 355:C:/Users/stapi/OneDrive/Desktop/GD32VW553/V1_MQTT_OK/GD32VW55X_Wifi_BLE_SDK/GD32VW55x_RELEASE_V1.0.2/MSDK/mbedtls/mbedtls-2.17.0-ssl/library\ssl_ticket.c ****         session->peer_cert_digest = mbedtls_calloc( 1, cert_digest_len );
 356:C:/Users/stapi/OneDrive/Desktop/GD32VW553/V1_MQTT_OK/GD32VW55X_Wifi_BLE_SDK/GD32VW55x_RELEASE_V1.0.2/MSDK/mbedtls/mbedtls-2.17.0-ssl/library\ssl_ticket.c ****         if( session->peer_cert_digest == NULL )
 357:C:/Users/stapi/OneDrive/Desktop/GD32VW553/V1_MQTT_OK/GD32VW55X_Wifi_BLE_SDK/GD32VW55x_RELEASE_V1.0.2/MSDK/mbedtls/mbedtls-2.17.0-ssl/library\ssl_ticket.c ****             return( MBEDTLS_ERR_SSL_ALLOC_FAILED );
 358:C:/Users/stapi/OneDrive/Desktop/GD32VW553/V1_MQTT_OK/GD32VW55X_Wifi_BLE_SDK/GD32VW55x_RELEASE_V1.0.2/MSDK/mbedtls/mbedtls-2.17.0-ssl/library\ssl_ticket.c **** 
 359:C:/Users/stapi/OneDrive/Desktop/GD32VW553/V1_MQTT_OK/GD32VW55X_Wifi_BLE_SDK/GD32VW55x_RELEASE_V1.0.2/MSDK/mbedtls/mbedtls-2.17.0-ssl/library\ssl_ticket.c ****         memcpy( session->peer_cert_digest, p, cert_digest_len );
 360:C:/Users/stapi/OneDrive/Desktop/GD32VW553/V1_MQTT_OK/GD32VW55X_Wifi_BLE_SDK/GD32VW55x_RELEASE_V1.0.2/MSDK/mbedtls/mbedtls-2.17.0-ssl/library\ssl_ticket.c ****         p += cert_digest_len;
 361:C:/Users/stapi/OneDrive/Desktop/GD32VW553/V1_MQTT_OK/GD32VW55X_Wifi_BLE_SDK/GD32VW55x_RELEASE_V1.0.2/MSDK/mbedtls/mbedtls-2.17.0-ssl/library\ssl_ticket.c ****     }
 362:C:/Users/stapi/OneDrive/Desktop/GD32VW553/V1_MQTT_OK/GD32VW55X_Wifi_BLE_SDK/GD32VW55x_RELEASE_V1.0.2/MSDK/mbedtls/mbedtls-2.17.0-ssl/library\ssl_ticket.c **** #endif /* MBEDTLS_SSL_KEEP_PEER_CERTIFICATE */
 363:C:/Users/stapi/OneDrive/Desktop/GD32VW553/V1_MQTT_OK/GD32VW55X_Wifi_BLE_SDK/GD32VW55x_RELEASE_V1.0.2/MSDK/mbedtls/mbedtls-2.17.0-ssl/library\ssl_ticket.c **** #endif /* MBEDTLS_X509_CRT_PARSE_C */
 364:C:/Users/stapi/OneDrive/Desktop/GD32VW553/V1_MQTT_OK/GD32VW55X_Wifi_BLE_SDK/GD32VW55x_RELEASE_V1.0.2/MSDK/mbedtls/mbedtls-2.17.0-ssl/library\ssl_ticket.c **** 
 365:C:/Users/stapi/OneDrive/Desktop/GD32VW553/V1_MQTT_OK/GD32VW55X_Wifi_BLE_SDK/GD32VW55x_RELEASE_V1.0.2/MSDK/mbedtls/mbedtls-2.17.0-ssl/library\ssl_ticket.c ****     if( p != end )
 366:C:/Users/stapi/OneDrive/Desktop/GD32VW553/V1_MQTT_OK/GD32VW55X_Wifi_BLE_SDK/GD32VW55x_RELEASE_V1.0.2/MSDK/mbedtls/mbedtls-2.17.0-ssl/library\ssl_ticket.c ****         return( MBEDTLS_ERR_SSL_BAD_INPUT_DATA );
 367:C:/Users/stapi/OneDrive/Desktop/GD32VW553/V1_MQTT_OK/GD32VW55X_Wifi_BLE_SDK/GD32VW55x_RELEASE_V1.0.2/MSDK/mbedtls/mbedtls-2.17.0-ssl/library\ssl_ticket.c **** 
 368:C:/Users/stapi/OneDrive/Desktop/GD32VW553/V1_MQTT_OK/GD32VW55X_Wifi_BLE_SDK/GD32VW55x_RELEASE_V1.0.2/MSDK/mbedtls/mbedtls-2.17.0-ssl/library\ssl_ticket.c ****     return( 0 );
 369:C:/Users/stapi/OneDrive/Desktop/GD32VW553/V1_MQTT_OK/GD32VW55X_Wifi_BLE_SDK/GD32VW55x_RELEASE_V1.0.2/MSDK/mbedtls/mbedtls-2.17.0-ssl/library\ssl_ticket.c **** }
 370:C:/Users/stapi/OneDrive/Desktop/GD32VW553/V1_MQTT_OK/GD32VW55X_Wifi_BLE_SDK/GD32VW55x_RELEASE_V1.0.2/MSDK/mbedtls/mbedtls-2.17.0-ssl/library\ssl_ticket.c **** 
 371:C:/Users/stapi/OneDrive/Desktop/GD32VW553/V1_MQTT_OK/GD32VW55X_Wifi_BLE_SDK/GD32VW55x_RELEASE_V1.0.2/MSDK/mbedtls/mbedtls-2.17.0-ssl/library\ssl_ticket.c **** /*
 372:C:/Users/stapi/OneDrive/Desktop/GD32VW553/V1_MQTT_OK/GD32VW55X_Wifi_BLE_SDK/GD32VW55x_RELEASE_V1.0.2/MSDK/mbedtls/mbedtls-2.17.0-ssl/library\ssl_ticket.c ****  * Create session ticket, with the following structure:
 373:C:/Users/stapi/OneDrive/Desktop/GD32VW553/V1_MQTT_OK/GD32VW55X_Wifi_BLE_SDK/GD32VW55x_RELEASE_V1.0.2/MSDK/mbedtls/mbedtls-2.17.0-ssl/library\ssl_ticket.c ****  *
 374:C:/Users/stapi/OneDrive/Desktop/GD32VW553/V1_MQTT_OK/GD32VW55X_Wifi_BLE_SDK/GD32VW55x_RELEASE_V1.0.2/MSDK/mbedtls/mbedtls-2.17.0-ssl/library\ssl_ticket.c ****  *    struct {
 375:C:/Users/stapi/OneDrive/Desktop/GD32VW553/V1_MQTT_OK/GD32VW55X_Wifi_BLE_SDK/GD32VW55x_RELEASE_V1.0.2/MSDK/mbedtls/mbedtls-2.17.0-ssl/library\ssl_ticket.c ****  *        opaque key_name[4];
 376:C:/Users/stapi/OneDrive/Desktop/GD32VW553/V1_MQTT_OK/GD32VW55X_Wifi_BLE_SDK/GD32VW55x_RELEASE_V1.0.2/MSDK/mbedtls/mbedtls-2.17.0-ssl/library\ssl_ticket.c ****  *        opaque iv[12];
 377:C:/Users/stapi/OneDrive/Desktop/GD32VW553/V1_MQTT_OK/GD32VW55X_Wifi_BLE_SDK/GD32VW55x_RELEASE_V1.0.2/MSDK/mbedtls/mbedtls-2.17.0-ssl/library\ssl_ticket.c ****  *        opaque encrypted_state<0..2^16-1>;
 378:C:/Users/stapi/OneDrive/Desktop/GD32VW553/V1_MQTT_OK/GD32VW55X_Wifi_BLE_SDK/GD32VW55x_RELEASE_V1.0.2/MSDK/mbedtls/mbedtls-2.17.0-ssl/library\ssl_ticket.c ****  *        opaque tag[16];
 379:C:/Users/stapi/OneDrive/Desktop/GD32VW553/V1_MQTT_OK/GD32VW55X_Wifi_BLE_SDK/GD32VW55x_RELEASE_V1.0.2/MSDK/mbedtls/mbedtls-2.17.0-ssl/library\ssl_ticket.c ****  *    } ticket;
 380:C:/Users/stapi/OneDrive/Desktop/GD32VW553/V1_MQTT_OK/GD32VW55X_Wifi_BLE_SDK/GD32VW55x_RELEASE_V1.0.2/MSDK/mbedtls/mbedtls-2.17.0-ssl/library\ssl_ticket.c ****  *
 381:C:/Users/stapi/OneDrive/Desktop/GD32VW553/V1_MQTT_OK/GD32VW55X_Wifi_BLE_SDK/GD32VW55x_RELEASE_V1.0.2/MSDK/mbedtls/mbedtls-2.17.0-ssl/library\ssl_ticket.c ****  * The key_name, iv, and length of encrypted_state are the additional
 382:C:/Users/stapi/OneDrive/Desktop/GD32VW553/V1_MQTT_OK/GD32VW55X_Wifi_BLE_SDK/GD32VW55x_RELEASE_V1.0.2/MSDK/mbedtls/mbedtls-2.17.0-ssl/library\ssl_ticket.c ****  * authenticated data.
 383:C:/Users/stapi/OneDrive/Desktop/GD32VW553/V1_MQTT_OK/GD32VW55X_Wifi_BLE_SDK/GD32VW55x_RELEASE_V1.0.2/MSDK/mbedtls/mbedtls-2.17.0-ssl/library\ssl_ticket.c ****  */
 384:C:/Users/stapi/OneDrive/Desktop/GD32VW553/V1_MQTT_OK/GD32VW55X_Wifi_BLE_SDK/GD32VW55x_RELEASE_V1.0.2/MSDK/mbedtls/mbedtls-2.17.0-ssl/library\ssl_ticket.c **** 
 385:C:/Users/stapi/OneDrive/Desktop/GD32VW553/V1_MQTT_OK/GD32VW55X_Wifi_BLE_SDK/GD32VW55x_RELEASE_V1.0.2/MSDK/mbedtls/mbedtls-2.17.0-ssl/library\ssl_ticket.c **** int mbedtls_ssl_ticket_write( void *p_ticket,
 386:C:/Users/stapi/OneDrive/Desktop/GD32VW553/V1_MQTT_OK/GD32VW55X_Wifi_BLE_SDK/GD32VW55x_RELEASE_V1.0.2/MSDK/mbedtls/mbedtls-2.17.0-ssl/library\ssl_ticket.c ****                               const mbedtls_ssl_session *session,
 387:C:/Users/stapi/OneDrive/Desktop/GD32VW553/V1_MQTT_OK/GD32VW55X_Wifi_BLE_SDK/GD32VW55x_RELEASE_V1.0.2/MSDK/mbedtls/mbedtls-2.17.0-ssl/library\ssl_ticket.c ****                               unsigned char *start,
 388:C:/Users/stapi/OneDrive/Desktop/GD32VW553/V1_MQTT_OK/GD32VW55X_Wifi_BLE_SDK/GD32VW55x_RELEASE_V1.0.2/MSDK/mbedtls/mbedtls-2.17.0-ssl/library\ssl_ticket.c ****                               const unsigned char *end,
 389:C:/Users/stapi/OneDrive/Desktop/GD32VW553/V1_MQTT_OK/GD32VW55X_Wifi_BLE_SDK/GD32VW55x_RELEASE_V1.0.2/MSDK/mbedtls/mbedtls-2.17.0-ssl/library\ssl_ticket.c ****                               size_t *tlen,
 390:C:/Users/stapi/OneDrive/Desktop/GD32VW553/V1_MQTT_OK/GD32VW55X_Wifi_BLE_SDK/GD32VW55x_RELEASE_V1.0.2/MSDK/mbedtls/mbedtls-2.17.0-ssl/library\ssl_ticket.c ****                               uint32_t *ticket_lifetime )
 391:C:/Users/stapi/OneDrive/Desktop/GD32VW553/V1_MQTT_OK/GD32VW55X_Wifi_BLE_SDK/GD32VW55x_RELEASE_V1.0.2/MSDK/mbedtls/mbedtls-2.17.0-ssl/library\ssl_ticket.c **** {
 319              		.loc 1 391 1 is_stmt 1
 320              		.cfi_startproc
 321              	.LVL40:
 322 0000 17030000 		call	t0,__riscv_save_10
 322      E7020300 
 323              		.cfi_offset 25, -44
 324              		.cfi_offset 24, -40
 325              		.cfi_offset 23, -36
 326              		.cfi_offset 22, -32
 327              		.cfi_offset 21, -28
 328              		.cfi_offset 20, -24
 329              		.cfi_offset 19, -20
 330              		.cfi_offset 18, -16
 331              		.cfi_offset 9, -12
 332              		.cfi_offset 8, -8
 333              		.cfi_offset 1, -4
 334              		.cfi_def_cfa_offset 48
 392:C:/Users/stapi/OneDrive/Desktop/GD32VW553/V1_MQTT_OK/GD32VW55X_Wifi_BLE_SDK/GD32VW55x_RELEASE_V1.0.2/MSDK/mbedtls/mbedtls-2.17.0-ssl/library\ssl_ticket.c ****     int ret;
 335              		.loc 1 392 5
 393:C:/Users/stapi/OneDrive/Desktop/GD32VW553/V1_MQTT_OK/GD32VW55X_Wifi_BLE_SDK/GD32VW55x_RELEASE_V1.0.2/MSDK/mbedtls/mbedtls-2.17.0-ssl/library\ssl_ticket.c ****     mbedtls_ssl_ticket_context *ctx = p_ticket;
 336              		.loc 1 393 5
 337              	.LVL41:
 394:C:/Users/stapi/OneDrive/Desktop/GD32VW553/V1_MQTT_OK/GD32VW55X_Wifi_BLE_SDK/GD32VW55x_RELEASE_V1.0.2/MSDK/mbedtls/mbedtls-2.17.0-ssl/library\ssl_ticket.c ****     mbedtls_ssl_ticket_key *key;
 338              		.loc 1 394 5
 395:C:/Users/stapi/OneDrive/Desktop/GD32VW553/V1_MQTT_OK/GD32VW55X_Wifi_BLE_SDK/GD32VW55x_RELEASE_V1.0.2/MSDK/mbedtls/mbedtls-2.17.0-ssl/library\ssl_ticket.c ****     unsigned char *key_name = start;
 339              		.loc 1 395 5
 396:C:/Users/stapi/OneDrive/Desktop/GD32VW553/V1_MQTT_OK/GD32VW55X_Wifi_BLE_SDK/GD32VW55x_RELEASE_V1.0.2/MSDK/mbedtls/mbedtls-2.17.0-ssl/library\ssl_ticket.c ****     unsigned char *iv = start + TICKET_KEY_NAME_BYTES;
 340              		.loc 1 396 5
 397:C:/Users/stapi/OneDrive/Desktop/GD32VW553/V1_MQTT_OK/GD32VW55X_Wifi_BLE_SDK/GD32VW55x_RELEASE_V1.0.2/MSDK/mbedtls/mbedtls-2.17.0-ssl/library\ssl_ticket.c ****     unsigned char *state_len_bytes = iv + TICKET_IV_BYTES;
 341              		.loc 1 397 5
 398:C:/Users/stapi/OneDrive/Desktop/GD32VW553/V1_MQTT_OK/GD32VW55X_Wifi_BLE_SDK/GD32VW55x_RELEASE_V1.0.2/MSDK/mbedtls/mbedtls-2.17.0-ssl/library\ssl_ticket.c ****     unsigned char *state = state_len_bytes + TICKET_CRYPT_LEN_BYTES;
 342              		.loc 1 398 5
 399:C:/Users/stapi/OneDrive/Desktop/GD32VW553/V1_MQTT_OK/GD32VW55X_Wifi_BLE_SDK/GD32VW55x_RELEASE_V1.0.2/MSDK/mbedtls/mbedtls-2.17.0-ssl/library\ssl_ticket.c ****     unsigned char *tag;
 343              		.loc 1 399 5
 400:C:/Users/stapi/OneDrive/Desktop/GD32VW553/V1_MQTT_OK/GD32VW55X_Wifi_BLE_SDK/GD32VW55x_RELEASE_V1.0.2/MSDK/mbedtls/mbedtls-2.17.0-ssl/library\ssl_ticket.c ****     size_t clear_len, ciph_len;
 344              		.loc 1 400 5
 401:C:/Users/stapi/OneDrive/Desktop/GD32VW553/V1_MQTT_OK/GD32VW55X_Wifi_BLE_SDK/GD32VW55x_RELEASE_V1.0.2/MSDK/mbedtls/mbedtls-2.17.0-ssl/library\ssl_ticket.c **** 
 402:C:/Users/stapi/OneDrive/Desktop/GD32VW553/V1_MQTT_OK/GD32VW55X_Wifi_BLE_SDK/GD32VW55x_RELEASE_V1.0.2/MSDK/mbedtls/mbedtls-2.17.0-ssl/library\ssl_ticket.c ****     *tlen = 0;
 345              		.loc 1 402 5
 346              		.loc 1 402 11 is_stmt 0
 347 0008 23200700 		sw	zero,0(a4)
 403:C:/Users/stapi/OneDrive/Desktop/GD32VW553/V1_MQTT_OK/GD32VW55X_Wifi_BLE_SDK/GD32VW55x_RELEASE_V1.0.2/MSDK/mbedtls/mbedtls-2.17.0-ssl/library\ssl_ticket.c **** 
 404:C:/Users/stapi/OneDrive/Desktop/GD32VW553/V1_MQTT_OK/GD32VW55X_Wifi_BLE_SDK/GD32VW55x_RELEASE_V1.0.2/MSDK/mbedtls/mbedtls-2.17.0-ssl/library\ssl_ticket.c ****     if( ctx == NULL || ctx->f_rng == NULL )
 348              		.loc 1 404 5 is_stmt 1
 391:C:/Users/stapi/OneDrive/Desktop/GD32VW553/V1_MQTT_OK/GD32VW55X_Wifi_BLE_SDK/GD32VW55x_RELEASE_V1.0.2/MSDK/mbedtls/mbedtls-2.17.0-ssl/library\ssl_ticket.c ****     int ret;
 349              		.loc 1 391 1 is_stmt 0
 350 000c 0111     		addi	sp,sp,-32
 351              		.cfi_def_cfa_offset 80
 352              		.loc 1 404 7
 353 000e 63050512 		beq	a0,zero,.L31
 354 0012 3E8C     		mv	s8,a5
 355              		.loc 1 404 21 discriminator 1
 356 0014 83278509 		lw	a5,152(a0)
 357              	.LVL42:
 358 0018 AA84     		mv	s1,a0
 359 001a 638F0710 		beq	a5,zero,.L31
 360 001e 3A8B     		mv	s6,a4
 405:C:/Users/stapi/OneDrive/Desktop/GD32VW553/V1_MQTT_OK/GD32VW55X_Wifi_BLE_SDK/GD32VW55x_RELEASE_V1.0.2/MSDK/mbedtls/mbedtls-2.17.0-ssl/library\ssl_ticket.c ****         return( MBEDTLS_ERR_SSL_BAD_INPUT_DATA );
 406:C:/Users/stapi/OneDrive/Desktop/GD32VW553/V1_MQTT_OK/GD32VW55X_Wifi_BLE_SDK/GD32VW55x_RELEASE_V1.0.2/MSDK/mbedtls/mbedtls-2.17.0-ssl/library\ssl_ticket.c **** 
 407:C:/Users/stapi/OneDrive/Desktop/GD32VW553/V1_MQTT_OK/GD32VW55X_Wifi_BLE_SDK/GD32VW55x_RELEASE_V1.0.2/MSDK/mbedtls/mbedtls-2.17.0-ssl/library\ssl_ticket.c ****     /* We need at least 4 bytes for key_name, 12 for IV, 2 for len 16 for tag,
 408:C:/Users/stapi/OneDrive/Desktop/GD32VW553/V1_MQTT_OK/GD32VW55X_Wifi_BLE_SDK/GD32VW55x_RELEASE_V1.0.2/MSDK/mbedtls/mbedtls-2.17.0-ssl/library\ssl_ticket.c ****      * in addition to session itself, that will be checked when writing it. */
 409:C:/Users/stapi/OneDrive/Desktop/GD32VW553/V1_MQTT_OK/GD32VW55X_Wifi_BLE_SDK/GD32VW55x_RELEASE_V1.0.2/MSDK/mbedtls/mbedtls-2.17.0-ssl/library\ssl_ticket.c ****     if( end - start < TICKET_MIN_LEN )
 361              		.loc 1 409 5 is_stmt 1
 362              		.loc 1 409 13 is_stmt 0
 363 0020 B387C640 		sub	a5,a3,a2
 364              		.loc 1 409 7
 365 0024 13071002 		li	a4,33
 366              	.LVL43:
 367 0028 3289     		mv	s2,a2
 368 002a B689     		mv	s3,a3
 369 002c 634BF700 		bgt	a5,a4,.L23
 370              	.LVL44:
 371              	.L27:
 410:C:/Users/stapi/OneDrive/Desktop/GD32VW553/V1_MQTT_OK/GD32VW55X_Wifi_BLE_SDK/GD32VW55x_RELEASE_V1.0.2/MSDK/mbedtls/mbedtls-2.17.0-ssl/library\ssl_ticket.c ****         return( MBEDTLS_ERR_SSL_BUFFER_TOO_SMALL );
 372              		.loc 1 410 15
 373 0030 6574     		li	s0,-28672
 374 0032 13040460 		addi	s0,s0,1536
 375              	.LVL45:
 376              	.L21:
 411:C:/Users/stapi/OneDrive/Desktop/GD32VW553/V1_MQTT_OK/GD32VW55X_Wifi_BLE_SDK/GD32VW55x_RELEASE_V1.0.2/MSDK/mbedtls/mbedtls-2.17.0-ssl/library\ssl_ticket.c **** 
 412:C:/Users/stapi/OneDrive/Desktop/GD32VW553/V1_MQTT_OK/GD32VW55X_Wifi_BLE_SDK/GD32VW55x_RELEASE_V1.0.2/MSDK/mbedtls/mbedtls-2.17.0-ssl/library\ssl_ticket.c **** #if defined(MBEDTLS_THREADING_C)
 413:C:/Users/stapi/OneDrive/Desktop/GD32VW553/V1_MQTT_OK/GD32VW55X_Wifi_BLE_SDK/GD32VW55x_RELEASE_V1.0.2/MSDK/mbedtls/mbedtls-2.17.0-ssl/library\ssl_ticket.c ****     if( ( ret = mbedtls_mutex_lock( &ctx->mutex ) ) != 0 )
 414:C:/Users/stapi/OneDrive/Desktop/GD32VW553/V1_MQTT_OK/GD32VW55X_Wifi_BLE_SDK/GD32VW55x_RELEASE_V1.0.2/MSDK/mbedtls/mbedtls-2.17.0-ssl/library\ssl_ticket.c ****         return( ret );
 415:C:/Users/stapi/OneDrive/Desktop/GD32VW553/V1_MQTT_OK/GD32VW55X_Wifi_BLE_SDK/GD32VW55x_RELEASE_V1.0.2/MSDK/mbedtls/mbedtls-2.17.0-ssl/library\ssl_ticket.c **** #endif
 416:C:/Users/stapi/OneDrive/Desktop/GD32VW553/V1_MQTT_OK/GD32VW55X_Wifi_BLE_SDK/GD32VW55x_RELEASE_V1.0.2/MSDK/mbedtls/mbedtls-2.17.0-ssl/library\ssl_ticket.c **** 
 417:C:/Users/stapi/OneDrive/Desktop/GD32VW553/V1_MQTT_OK/GD32VW55X_Wifi_BLE_SDK/GD32VW55x_RELEASE_V1.0.2/MSDK/mbedtls/mbedtls-2.17.0-ssl/library\ssl_ticket.c ****     if( ( ret = ssl_ticket_update_keys( ctx ) ) != 0 )
 418:C:/Users/stapi/OneDrive/Desktop/GD32VW553/V1_MQTT_OK/GD32VW55X_Wifi_BLE_SDK/GD32VW55x_RELEASE_V1.0.2/MSDK/mbedtls/mbedtls-2.17.0-ssl/library\ssl_ticket.c ****         goto cleanup;
 419:C:/Users/stapi/OneDrive/Desktop/GD32VW553/V1_MQTT_OK/GD32VW55X_Wifi_BLE_SDK/GD32VW55x_RELEASE_V1.0.2/MSDK/mbedtls/mbedtls-2.17.0-ssl/library\ssl_ticket.c **** 
 420:C:/Users/stapi/OneDrive/Desktop/GD32VW553/V1_MQTT_OK/GD32VW55X_Wifi_BLE_SDK/GD32VW55x_RELEASE_V1.0.2/MSDK/mbedtls/mbedtls-2.17.0-ssl/library\ssl_ticket.c ****     key = &ctx->keys[ctx->active];
 421:C:/Users/stapi/OneDrive/Desktop/GD32VW553/V1_MQTT_OK/GD32VW55X_Wifi_BLE_SDK/GD32VW55x_RELEASE_V1.0.2/MSDK/mbedtls/mbedtls-2.17.0-ssl/library\ssl_ticket.c **** 
 422:C:/Users/stapi/OneDrive/Desktop/GD32VW553/V1_MQTT_OK/GD32VW55X_Wifi_BLE_SDK/GD32VW55x_RELEASE_V1.0.2/MSDK/mbedtls/mbedtls-2.17.0-ssl/library\ssl_ticket.c ****     *ticket_lifetime = ctx->ticket_lifetime;
 423:C:/Users/stapi/OneDrive/Desktop/GD32VW553/V1_MQTT_OK/GD32VW55X_Wifi_BLE_SDK/GD32VW55x_RELEASE_V1.0.2/MSDK/mbedtls/mbedtls-2.17.0-ssl/library\ssl_ticket.c **** 
 424:C:/Users/stapi/OneDrive/Desktop/GD32VW553/V1_MQTT_OK/GD32VW55X_Wifi_BLE_SDK/GD32VW55x_RELEASE_V1.0.2/MSDK/mbedtls/mbedtls-2.17.0-ssl/library\ssl_ticket.c ****     memcpy( key_name, key->name, TICKET_KEY_NAME_BYTES );
 425:C:/Users/stapi/OneDrive/Desktop/GD32VW553/V1_MQTT_OK/GD32VW55X_Wifi_BLE_SDK/GD32VW55x_RELEASE_V1.0.2/MSDK/mbedtls/mbedtls-2.17.0-ssl/library\ssl_ticket.c **** 
 426:C:/Users/stapi/OneDrive/Desktop/GD32VW553/V1_MQTT_OK/GD32VW55X_Wifi_BLE_SDK/GD32VW55x_RELEASE_V1.0.2/MSDK/mbedtls/mbedtls-2.17.0-ssl/library\ssl_ticket.c ****     if( ( ret = ctx->f_rng( ctx->p_rng, iv, TICKET_IV_BYTES ) ) != 0 )
 427:C:/Users/stapi/OneDrive/Desktop/GD32VW553/V1_MQTT_OK/GD32VW55X_Wifi_BLE_SDK/GD32VW55x_RELEASE_V1.0.2/MSDK/mbedtls/mbedtls-2.17.0-ssl/library\ssl_ticket.c ****         goto cleanup;
 428:C:/Users/stapi/OneDrive/Desktop/GD32VW553/V1_MQTT_OK/GD32VW55X_Wifi_BLE_SDK/GD32VW55x_RELEASE_V1.0.2/MSDK/mbedtls/mbedtls-2.17.0-ssl/library\ssl_ticket.c **** 
 429:C:/Users/stapi/OneDrive/Desktop/GD32VW553/V1_MQTT_OK/GD32VW55X_Wifi_BLE_SDK/GD32VW55x_RELEASE_V1.0.2/MSDK/mbedtls/mbedtls-2.17.0-ssl/library\ssl_ticket.c ****     /* Dump session state */
 430:C:/Users/stapi/OneDrive/Desktop/GD32VW553/V1_MQTT_OK/GD32VW55X_Wifi_BLE_SDK/GD32VW55x_RELEASE_V1.0.2/MSDK/mbedtls/mbedtls-2.17.0-ssl/library\ssl_ticket.c ****     if( ( ret = ssl_save_session( session,
 431:C:/Users/stapi/OneDrive/Desktop/GD32VW553/V1_MQTT_OK/GD32VW55X_Wifi_BLE_SDK/GD32VW55x_RELEASE_V1.0.2/MSDK/mbedtls/mbedtls-2.17.0-ssl/library\ssl_ticket.c ****                                   state, end - state, &clear_len ) ) != 0 ||
 432:C:/Users/stapi/OneDrive/Desktop/GD32VW553/V1_MQTT_OK/GD32VW55X_Wifi_BLE_SDK/GD32VW55x_RELEASE_V1.0.2/MSDK/mbedtls/mbedtls-2.17.0-ssl/library\ssl_ticket.c ****         (unsigned long) clear_len > 65535 )
 433:C:/Users/stapi/OneDrive/Desktop/GD32VW553/V1_MQTT_OK/GD32VW55X_Wifi_BLE_SDK/GD32VW55x_RELEASE_V1.0.2/MSDK/mbedtls/mbedtls-2.17.0-ssl/library\ssl_ticket.c ****     {
 434:C:/Users/stapi/OneDrive/Desktop/GD32VW553/V1_MQTT_OK/GD32VW55X_Wifi_BLE_SDK/GD32VW55x_RELEASE_V1.0.2/MSDK/mbedtls/mbedtls-2.17.0-ssl/library\ssl_ticket.c ****          goto cleanup;
 435:C:/Users/stapi/OneDrive/Desktop/GD32VW553/V1_MQTT_OK/GD32VW55X_Wifi_BLE_SDK/GD32VW55x_RELEASE_V1.0.2/MSDK/mbedtls/mbedtls-2.17.0-ssl/library\ssl_ticket.c ****     }
 436:C:/Users/stapi/OneDrive/Desktop/GD32VW553/V1_MQTT_OK/GD32VW55X_Wifi_BLE_SDK/GD32VW55x_RELEASE_V1.0.2/MSDK/mbedtls/mbedtls-2.17.0-ssl/library\ssl_ticket.c ****     state_len_bytes[0] = ( clear_len >> 8 ) & 0xff;
 437:C:/Users/stapi/OneDrive/Desktop/GD32VW553/V1_MQTT_OK/GD32VW55X_Wifi_BLE_SDK/GD32VW55x_RELEASE_V1.0.2/MSDK/mbedtls/mbedtls-2.17.0-ssl/library\ssl_ticket.c ****     state_len_bytes[1] = ( clear_len      ) & 0xff;
 438:C:/Users/stapi/OneDrive/Desktop/GD32VW553/V1_MQTT_OK/GD32VW55X_Wifi_BLE_SDK/GD32VW55x_RELEASE_V1.0.2/MSDK/mbedtls/mbedtls-2.17.0-ssl/library\ssl_ticket.c **** 
 439:C:/Users/stapi/OneDrive/Desktop/GD32VW553/V1_MQTT_OK/GD32VW55X_Wifi_BLE_SDK/GD32VW55x_RELEASE_V1.0.2/MSDK/mbedtls/mbedtls-2.17.0-ssl/library\ssl_ticket.c ****     /* Encrypt and authenticate */
 440:C:/Users/stapi/OneDrive/Desktop/GD32VW553/V1_MQTT_OK/GD32VW55X_Wifi_BLE_SDK/GD32VW55x_RELEASE_V1.0.2/MSDK/mbedtls/mbedtls-2.17.0-ssl/library\ssl_ticket.c ****     tag = state + clear_len;
 441:C:/Users/stapi/OneDrive/Desktop/GD32VW553/V1_MQTT_OK/GD32VW55X_Wifi_BLE_SDK/GD32VW55x_RELEASE_V1.0.2/MSDK/mbedtls/mbedtls-2.17.0-ssl/library\ssl_ticket.c ****     if( ( ret = mbedtls_cipher_auth_encrypt( &key->ctx,
 442:C:/Users/stapi/OneDrive/Desktop/GD32VW553/V1_MQTT_OK/GD32VW55X_Wifi_BLE_SDK/GD32VW55x_RELEASE_V1.0.2/MSDK/mbedtls/mbedtls-2.17.0-ssl/library\ssl_ticket.c ****                     iv, TICKET_IV_BYTES,
 443:C:/Users/stapi/OneDrive/Desktop/GD32VW553/V1_MQTT_OK/GD32VW55X_Wifi_BLE_SDK/GD32VW55x_RELEASE_V1.0.2/MSDK/mbedtls/mbedtls-2.17.0-ssl/library\ssl_ticket.c ****                     /* Additional data: key name, IV and length */
 444:C:/Users/stapi/OneDrive/Desktop/GD32VW553/V1_MQTT_OK/GD32VW55X_Wifi_BLE_SDK/GD32VW55x_RELEASE_V1.0.2/MSDK/mbedtls/mbedtls-2.17.0-ssl/library\ssl_ticket.c ****                     key_name, TICKET_ADD_DATA_LEN,
 445:C:/Users/stapi/OneDrive/Desktop/GD32VW553/V1_MQTT_OK/GD32VW55X_Wifi_BLE_SDK/GD32VW55x_RELEASE_V1.0.2/MSDK/mbedtls/mbedtls-2.17.0-ssl/library\ssl_ticket.c ****                     state, clear_len, state, &ciph_len,
 446:C:/Users/stapi/OneDrive/Desktop/GD32VW553/V1_MQTT_OK/GD32VW55X_Wifi_BLE_SDK/GD32VW55x_RELEASE_V1.0.2/MSDK/mbedtls/mbedtls-2.17.0-ssl/library\ssl_ticket.c ****                     tag, TICKET_AUTH_TAG_BYTES ) ) != 0 )
 447:C:/Users/stapi/OneDrive/Desktop/GD32VW553/V1_MQTT_OK/GD32VW55X_Wifi_BLE_SDK/GD32VW55x_RELEASE_V1.0.2/MSDK/mbedtls/mbedtls-2.17.0-ssl/library\ssl_ticket.c ****     {
 448:C:/Users/stapi/OneDrive/Desktop/GD32VW553/V1_MQTT_OK/GD32VW55X_Wifi_BLE_SDK/GD32VW55x_RELEASE_V1.0.2/MSDK/mbedtls/mbedtls-2.17.0-ssl/library\ssl_ticket.c ****         goto cleanup;
 449:C:/Users/stapi/OneDrive/Desktop/GD32VW553/V1_MQTT_OK/GD32VW55X_Wifi_BLE_SDK/GD32VW55x_RELEASE_V1.0.2/MSDK/mbedtls/mbedtls-2.17.0-ssl/library\ssl_ticket.c ****     }
 450:C:/Users/stapi/OneDrive/Desktop/GD32VW553/V1_MQTT_OK/GD32VW55X_Wifi_BLE_SDK/GD32VW55x_RELEASE_V1.0.2/MSDK/mbedtls/mbedtls-2.17.0-ssl/library\ssl_ticket.c ****     if( ciph_len != clear_len )
 451:C:/Users/stapi/OneDrive/Desktop/GD32VW553/V1_MQTT_OK/GD32VW55X_Wifi_BLE_SDK/GD32VW55x_RELEASE_V1.0.2/MSDK/mbedtls/mbedtls-2.17.0-ssl/library\ssl_ticket.c ****     {
 452:C:/Users/stapi/OneDrive/Desktop/GD32VW553/V1_MQTT_OK/GD32VW55X_Wifi_BLE_SDK/GD32VW55x_RELEASE_V1.0.2/MSDK/mbedtls/mbedtls-2.17.0-ssl/library\ssl_ticket.c ****         ret = MBEDTLS_ERR_SSL_INTERNAL_ERROR;
 453:C:/Users/stapi/OneDrive/Desktop/GD32VW553/V1_MQTT_OK/GD32VW55X_Wifi_BLE_SDK/GD32VW55x_RELEASE_V1.0.2/MSDK/mbedtls/mbedtls-2.17.0-ssl/library\ssl_ticket.c ****         goto cleanup;
 454:C:/Users/stapi/OneDrive/Desktop/GD32VW553/V1_MQTT_OK/GD32VW55X_Wifi_BLE_SDK/GD32VW55x_RELEASE_V1.0.2/MSDK/mbedtls/mbedtls-2.17.0-ssl/library\ssl_ticket.c ****     }
 455:C:/Users/stapi/OneDrive/Desktop/GD32VW553/V1_MQTT_OK/GD32VW55X_Wifi_BLE_SDK/GD32VW55x_RELEASE_V1.0.2/MSDK/mbedtls/mbedtls-2.17.0-ssl/library\ssl_ticket.c **** 
 456:C:/Users/stapi/OneDrive/Desktop/GD32VW553/V1_MQTT_OK/GD32VW55X_Wifi_BLE_SDK/GD32VW55x_RELEASE_V1.0.2/MSDK/mbedtls/mbedtls-2.17.0-ssl/library\ssl_ticket.c ****     *tlen = TICKET_MIN_LEN + ciph_len;
 457:C:/Users/stapi/OneDrive/Desktop/GD32VW553/V1_MQTT_OK/GD32VW55X_Wifi_BLE_SDK/GD32VW55x_RELEASE_V1.0.2/MSDK/mbedtls/mbedtls-2.17.0-ssl/library\ssl_ticket.c **** 
 458:C:/Users/stapi/OneDrive/Desktop/GD32VW553/V1_MQTT_OK/GD32VW55X_Wifi_BLE_SDK/GD32VW55x_RELEASE_V1.0.2/MSDK/mbedtls/mbedtls-2.17.0-ssl/library\ssl_ticket.c **** cleanup:
 459:C:/Users/stapi/OneDrive/Desktop/GD32VW553/V1_MQTT_OK/GD32VW55X_Wifi_BLE_SDK/GD32VW55x_RELEASE_V1.0.2/MSDK/mbedtls/mbedtls-2.17.0-ssl/library\ssl_ticket.c **** #if defined(MBEDTLS_THREADING_C)
 460:C:/Users/stapi/OneDrive/Desktop/GD32VW553/V1_MQTT_OK/GD32VW55X_Wifi_BLE_SDK/GD32VW55x_RELEASE_V1.0.2/MSDK/mbedtls/mbedtls-2.17.0-ssl/library\ssl_ticket.c ****     if( mbedtls_mutex_unlock( &ctx->mutex ) != 0 )
 461:C:/Users/stapi/OneDrive/Desktop/GD32VW553/V1_MQTT_OK/GD32VW55X_Wifi_BLE_SDK/GD32VW55x_RELEASE_V1.0.2/MSDK/mbedtls/mbedtls-2.17.0-ssl/library\ssl_ticket.c ****         return( MBEDTLS_ERR_THREADING_MUTEX_ERROR );
 462:C:/Users/stapi/OneDrive/Desktop/GD32VW553/V1_MQTT_OK/GD32VW55X_Wifi_BLE_SDK/GD32VW55x_RELEASE_V1.0.2/MSDK/mbedtls/mbedtls-2.17.0-ssl/library\ssl_ticket.c **** #endif
 463:C:/Users/stapi/OneDrive/Desktop/GD32VW553/V1_MQTT_OK/GD32VW55X_Wifi_BLE_SDK/GD32VW55x_RELEASE_V1.0.2/MSDK/mbedtls/mbedtls-2.17.0-ssl/library\ssl_ticket.c **** 
 464:C:/Users/stapi/OneDrive/Desktop/GD32VW553/V1_MQTT_OK/GD32VW55X_Wifi_BLE_SDK/GD32VW55x_RELEASE_V1.0.2/MSDK/mbedtls/mbedtls-2.17.0-ssl/library\ssl_ticket.c ****     return( ret );
 465:C:/Users/stapi/OneDrive/Desktop/GD32VW553/V1_MQTT_OK/GD32VW55X_Wifi_BLE_SDK/GD32VW55x_RELEASE_V1.0.2/MSDK/mbedtls/mbedtls-2.17.0-ssl/library\ssl_ticket.c **** }
 377              		.loc 1 465 1
 378 0036 2285     		mv	a0,s0
 379 0038 0561     		addi	sp,sp,32
 380              		.cfi_remember_state
 381              		.cfi_def_cfa_offset 0
 382 003a 17030000 		tail	__riscv_restore_10
 382      67000300 
 383              		.cfi_restore 25
 384              		.cfi_restore 24
 385              		.cfi_restore 23
 386              		.cfi_restore 22
 387              		.cfi_restore 21
 388              		.cfi_restore 20
 389              		.cfi_restore 19
 390              		.cfi_restore 18
 391              		.cfi_restore 9
 392              		.cfi_restore 8
 393              		.cfi_restore 1
 394              		.cfi_def_cfa_offset -48
 395              	.LVL46:
 396              	.L23:
 397              		.cfi_restore_state
 398              	.LBB13:
 399              	.LBB14:
 108:C:/Users/stapi/OneDrive/Desktop/GD32VW553/V1_MQTT_OK/GD32VW55X_Wifi_BLE_SDK/GD32VW55x_RELEASE_V1.0.2/MSDK/mbedtls/mbedtls-2.17.0-ssl/library\ssl_ticket.c ****     {
 400              		.loc 1 108 7
 401 0042 83274509 		lw	a5,148(a0)
 402 0046 AE8A     		mv	s5,a1
 403              	.LBE14:
 404              	.LBE13:
 417:C:/Users/stapi/OneDrive/Desktop/GD32VW553/V1_MQTT_OK/GD32VW55X_Wifi_BLE_SDK/GD32VW55x_RELEASE_V1.0.2/MSDK/mbedtls/mbedtls-2.17.0-ssl/library\ssl_ticket.c ****         goto cleanup;
 405              		.loc 1 417 5 is_stmt 1
 406              	.LVL47:
 407              	.LBB17:
 408              	.LBB15:
 108:C:/Users/stapi/OneDrive/Desktop/GD32VW553/V1_MQTT_OK/GD32VW55X_Wifi_BLE_SDK/GD32VW55x_RELEASE_V1.0.2/MSDK/mbedtls/mbedtls-2.17.0-ssl/library\ssl_ticket.c ****     {
 409              		.loc 1 108 5
 108:C:/Users/stapi/OneDrive/Desktop/GD32VW553/V1_MQTT_OK/GD32VW55X_Wifi_BLE_SDK/GD32VW55x_RELEASE_V1.0.2/MSDK/mbedtls/mbedtls-2.17.0-ssl/library\ssl_ticket.c ****     {
 410              		.loc 1 108 7 is_stmt 0
 411 0048 EDE3     		bne	a5,zero,.L24
 412              	.LVL48:
 413              	.L26:
 414              	.LBE15:
 415              	.LBE17:
 420:C:/Users/stapi/OneDrive/Desktop/GD32VW553/V1_MQTT_OK/GD32VW55X_Wifi_BLE_SDK/GD32VW55x_RELEASE_V1.0.2/MSDK/mbedtls/mbedtls-2.17.0-ssl/library\ssl_ticket.c **** 
 416              		.loc 1 420 25
 417 004a 03CA0409 		lbu	s4,144(s1)
 418 004e 13058004 		li	a0,72
 422:C:/Users/stapi/OneDrive/Desktop/GD32VW553/V1_MQTT_OK/GD32VW55X_Wifi_BLE_SDK/GD32VW55x_RELEASE_V1.0.2/MSDK/mbedtls/mbedtls-2.17.0-ssl/library\ssl_ticket.c **** 
 419              		.loc 1 422 27
 420 0052 83A74409 		lw	a5,148(s1)
 421 0056 330AAA02 		mul	s4,s4,a0
 424:C:/Users/stapi/OneDrive/Desktop/GD32VW553/V1_MQTT_OK/GD32VW55X_Wifi_BLE_SDK/GD32VW55x_RELEASE_V1.0.2/MSDK/mbedtls/mbedtls-2.17.0-ssl/library\ssl_ticket.c **** 
 422              		.loc 1 424 5
 423 005a 1146     		li	a2,4
 422:C:/Users/stapi/OneDrive/Desktop/GD32VW553/V1_MQTT_OK/GD32VW55X_Wifi_BLE_SDK/GD32VW55x_RELEASE_V1.0.2/MSDK/mbedtls/mbedtls-2.17.0-ssl/library\ssl_ticket.c **** 
 424              		.loc 1 422 22
 425 005c 2320FC00 		sw	a5,0(s8)
 424:C:/Users/stapi/OneDrive/Desktop/GD32VW553/V1_MQTT_OK/GD32VW55X_Wifi_BLE_SDK/GD32VW55x_RELEASE_V1.0.2/MSDK/mbedtls/mbedtls-2.17.0-ssl/library\ssl_ticket.c **** 
 426              		.loc 1 424 5
 427 0060 4A85     		mv	a0,s2
 396:C:/Users/stapi/OneDrive/Desktop/GD32VW553/V1_MQTT_OK/GD32VW55X_Wifi_BLE_SDK/GD32VW55x_RELEASE_V1.0.2/MSDK/mbedtls/mbedtls-2.17.0-ssl/library\ssl_ticket.c ****     unsigned char *state_len_bytes = iv + TICKET_IV_BYTES;
 428              		.loc 1 396 20
 429 0062 930B4900 		addi	s7,s2,4
 420:C:/Users/stapi/OneDrive/Desktop/GD32VW553/V1_MQTT_OK/GD32VW55X_Wifi_BLE_SDK/GD32VW55x_RELEASE_V1.0.2/MSDK/mbedtls/mbedtls-2.17.0-ssl/library\ssl_ticket.c **** 
 430              		.loc 1 420 5 is_stmt 1
 431              	.LVL49:
 422:C:/Users/stapi/OneDrive/Desktop/GD32VW553/V1_MQTT_OK/GD32VW55X_Wifi_BLE_SDK/GD32VW55x_RELEASE_V1.0.2/MSDK/mbedtls/mbedtls-2.17.0-ssl/library\ssl_ticket.c **** 
 432              		.loc 1 422 5
 424:C:/Users/stapi/OneDrive/Desktop/GD32VW553/V1_MQTT_OK/GD32VW55X_Wifi_BLE_SDK/GD32VW55x_RELEASE_V1.0.2/MSDK/mbedtls/mbedtls-2.17.0-ssl/library\ssl_ticket.c **** 
 433              		.loc 1 424 5
 434 0066 B3854401 		add	a1,s1,s4
 435 006a 97000000 		call	memcpy
 435      E7800000 
 436              	.LVL50:
 426:C:/Users/stapi/OneDrive/Desktop/GD32VW553/V1_MQTT_OK/GD32VW55X_Wifi_BLE_SDK/GD32VW55x_RELEASE_V1.0.2/MSDK/mbedtls/mbedtls-2.17.0-ssl/library\ssl_ticket.c ****         goto cleanup;
 437              		.loc 1 426 5
 426:C:/Users/stapi/OneDrive/Desktop/GD32VW553/V1_MQTT_OK/GD32VW55X_Wifi_BLE_SDK/GD32VW55x_RELEASE_V1.0.2/MSDK/mbedtls/mbedtls-2.17.0-ssl/library\ssl_ticket.c ****         goto cleanup;
 438              		.loc 1 426 17 is_stmt 0
 439 0072 83A78409 		lw	a5,152(s1)
 440 0076 03A5C409 		lw	a0,156(s1)
 441 007a 3146     		li	a2,12
 442 007c DE85     		mv	a1,s7
 443 007e 8297     		jalr	a5
 444              	.LVL51:
 445 0080 2A84     		mv	s0,a0
 446              	.LVL52:
 426:C:/Users/stapi/OneDrive/Desktop/GD32VW553/V1_MQTT_OK/GD32VW55X_Wifi_BLE_SDK/GD32VW55x_RELEASE_V1.0.2/MSDK/mbedtls/mbedtls-2.17.0-ssl/library\ssl_ticket.c ****         goto cleanup;
 447              		.loc 1 426 7
 448 0082 55F9     		bne	a0,zero,.L21
 398:C:/Users/stapi/OneDrive/Desktop/GD32VW553/V1_MQTT_OK/GD32VW55X_Wifi_BLE_SDK/GD32VW55x_RELEASE_V1.0.2/MSDK/mbedtls/mbedtls-2.17.0-ssl/library\ssl_ticket.c ****     unsigned char *tag;
 449              		.loc 1 398 20
 450 0084 930C2901 		addi	s9,s2,18
 430:C:/Users/stapi/OneDrive/Desktop/GD32VW553/V1_MQTT_OK/GD32VW55X_Wifi_BLE_SDK/GD32VW55x_RELEASE_V1.0.2/MSDK/mbedtls/mbedtls-2.17.0-ssl/library\ssl_ticket.c ****                                   state, end - state, &clear_len ) ) != 0 ||
 451              		.loc 1 430 5 is_stmt 1
 431:C:/Users/stapi/OneDrive/Desktop/GD32VW553/V1_MQTT_OK/GD32VW55X_Wifi_BLE_SDK/GD32VW55x_RELEASE_V1.0.2/MSDK/mbedtls/mbedtls-2.17.0-ssl/library\ssl_ticket.c ****         (unsigned long) clear_len > 65535 )
 452              		.loc 1 431 46 is_stmt 0
 453 0088 B3899941 		sub	s3,s3,s9
 454              	.LVL53:
 455              	.LBB18:
 456              	.LBB19:
 205:C:/Users/stapi/OneDrive/Desktop/GD32VW553/V1_MQTT_OK/GD32VW55X_Wifi_BLE_SDK/GD32VW55x_RELEASE_V1.0.2/MSDK/mbedtls/mbedtls-2.17.0-ssl/library\ssl_ticket.c ****     size_t left = buf_len;
 457              		.loc 1 205 5 is_stmt 1
 206:C:/Users/stapi/OneDrive/Desktop/GD32VW553/V1_MQTT_OK/GD32VW55X_Wifi_BLE_SDK/GD32VW55x_RELEASE_V1.0.2/MSDK/mbedtls/mbedtls-2.17.0-ssl/library\ssl_ticket.c **** #if defined(MBEDTLS_X509_CRT_PARSE_C)
 458              		.loc 1 206 5
 211:C:/Users/stapi/OneDrive/Desktop/GD32VW553/V1_MQTT_OK/GD32VW55X_Wifi_BLE_SDK/GD32VW55x_RELEASE_V1.0.2/MSDK/mbedtls/mbedtls-2.17.0-ssl/library\ssl_ticket.c **** #endif /* MBEDTLS_SSL_KEEP_PEER_CERTIFICATE */
 459              		.loc 1 211 5
 215:C:/Users/stapi/OneDrive/Desktop/GD32VW553/V1_MQTT_OK/GD32VW55X_Wifi_BLE_SDK/GD32VW55x_RELEASE_V1.0.2/MSDK/mbedtls/mbedtls-2.17.0-ssl/library\ssl_ticket.c ****         return( MBEDTLS_ERR_SSL_BUFFER_TOO_SMALL );
 460              		.loc 1 215 5
 215:C:/Users/stapi/OneDrive/Desktop/GD32VW553/V1_MQTT_OK/GD32VW55X_Wifi_BLE_SDK/GD32VW55x_RELEASE_V1.0.2/MSDK/mbedtls/mbedtls-2.17.0-ssl/library\ssl_ticket.c ****         return( MBEDTLS_ERR_SSL_BUFFER_TOO_SMALL );
 461              		.loc 1 215 7 is_stmt 0
 462 008c 93077008 		li	a5,135
 463 0090 E3F037FB 		bleu	s3,a5,.L27
 221:C:/Users/stapi/OneDrive/Desktop/GD32VW553/V1_MQTT_OK/GD32VW55X_Wifi_BLE_SDK/GD32VW55x_RELEASE_V1.0.2/MSDK/mbedtls/mbedtls-2.17.0-ssl/library\ssl_ticket.c ****     p += sizeof( mbedtls_ssl_session );
 464              		.loc 1 221 5 is_stmt 1
 465 0094 13068008 		li	a2,136
 466 0098 D685     		mv	a1,s5
 467 009a 6685     		mv	a0,s9
 468 009c 97000000 		call	memcpy
 468      E7800000 
 469              	.LVL54:
 222:C:/Users/stapi/OneDrive/Desktop/GD32VW553/V1_MQTT_OK/GD32VW55X_Wifi_BLE_SDK/GD32VW55x_RELEASE_V1.0.2/MSDK/mbedtls/mbedtls-2.17.0-ssl/library\ssl_ticket.c ****     left -= sizeof( mbedtls_ssl_session );
 470              		.loc 1 222 5
 223:C:/Users/stapi/OneDrive/Desktop/GD32VW553/V1_MQTT_OK/GD32VW55X_Wifi_BLE_SDK/GD32VW55x_RELEASE_V1.0.2/MSDK/mbedtls/mbedtls-2.17.0-ssl/library\ssl_ticket.c **** 
 471              		.loc 1 223 5
 246:C:/Users/stapi/OneDrive/Desktop/GD32VW553/V1_MQTT_OK/GD32VW55X_Wifi_BLE_SDK/GD32VW55x_RELEASE_V1.0.2/MSDK/mbedtls/mbedtls-2.17.0-ssl/library\ssl_ticket.c ****         cert_digest_len = 0;
 472              		.loc 1 246 7 is_stmt 0
 473 00a4 83A70A06 		lw	a5,96(s5)
 223:C:/Users/stapi/OneDrive/Desktop/GD32VW553/V1_MQTT_OK/GD32VW55X_Wifi_BLE_SDK/GD32VW55x_RELEASE_V1.0.2/MSDK/mbedtls/mbedtls-2.17.0-ssl/library\ssl_ticket.c **** 
 474              		.loc 1 223 10
 475 00a8 938989F7 		addi	s3,s3,-136
 476              	.LVL55:
 246:C:/Users/stapi/OneDrive/Desktop/GD32VW553/V1_MQTT_OK/GD32VW55X_Wifi_BLE_SDK/GD32VW55x_RELEASE_V1.0.2/MSDK/mbedtls/mbedtls-2.17.0-ssl/library\ssl_ticket.c ****         cert_digest_len = 0;
 477              		.loc 1 246 5 is_stmt 1
 247:C:/Users/stapi/OneDrive/Desktop/GD32VW553/V1_MQTT_OK/GD32VW55X_Wifi_BLE_SDK/GD32VW55x_RELEASE_V1.0.2/MSDK/mbedtls/mbedtls-2.17.0-ssl/library\ssl_ticket.c ****     else
 478              		.loc 1 247 25 is_stmt 0
 479 00ac 014C     		li	s8,0
 480              	.LVL56:
 246:C:/Users/stapi/OneDrive/Desktop/GD32VW553/V1_MQTT_OK/GD32VW55X_Wifi_BLE_SDK/GD32VW55x_RELEASE_V1.0.2/MSDK/mbedtls/mbedtls-2.17.0-ssl/library\ssl_ticket.c ****         cert_digest_len = 0;
 481              		.loc 1 246 7
 482 00ae 99E3     		bne	a5,zero,.L28
 249:C:/Users/stapi/OneDrive/Desktop/GD32VW553/V1_MQTT_OK/GD32VW55X_Wifi_BLE_SDK/GD32VW55x_RELEASE_V1.0.2/MSDK/mbedtls/mbedtls-2.17.0-ssl/library\ssl_ticket.c **** 
 483              		.loc 1 249 9 is_stmt 1
 249:C:/Users/stapi/OneDrive/Desktop/GD32VW553/V1_MQTT_OK/GD32VW55X_Wifi_BLE_SDK/GD32VW55x_RELEASE_V1.0.2/MSDK/mbedtls/mbedtls-2.17.0-ssl/library\ssl_ticket.c **** 
 484              		.loc 1 249 25 is_stmt 0
 485 00b0 03AC4A06 		lw	s8,100(s5)
 486              	.LVL57:
 487              	.L28:
 251:C:/Users/stapi/OneDrive/Desktop/GD32VW553/V1_MQTT_OK/GD32VW55X_Wifi_BLE_SDK/GD32VW55x_RELEASE_V1.0.2/MSDK/mbedtls/mbedtls-2.17.0-ssl/library\ssl_ticket.c ****         return( MBEDTLS_ERR_SSL_BUFFER_TOO_SMALL );
 488              		.loc 1 251 5 is_stmt 1
 251:C:/Users/stapi/OneDrive/Desktop/GD32VW553/V1_MQTT_OK/GD32VW55X_Wifi_BLE_SDK/GD32VW55x_RELEASE_V1.0.2/MSDK/mbedtls/mbedtls-2.17.0-ssl/library\ssl_ticket.c ****         return( MBEDTLS_ERR_SSL_BUFFER_TOO_SMALL );
 489              		.loc 1 251 18 is_stmt 0
 490 00b4 93071C00 		addi	a5,s8,1
 251:C:/Users/stapi/OneDrive/Desktop/GD32VW553/V1_MQTT_OK/GD32VW55X_Wifi_BLE_SDK/GD32VW55x_RELEASE_V1.0.2/MSDK/mbedtls/mbedtls-2.17.0-ssl/library\ssl_ticket.c ****         return( MBEDTLS_ERR_SSL_BUFFER_TOO_SMALL );
 491              		.loc 1 251 7
 492 00b8 E3ECF9F6 		bltu	s3,a5,.L27
 254:C:/Users/stapi/OneDrive/Desktop/GD32VW553/V1_MQTT_OK/GD32VW55X_Wifi_BLE_SDK/GD32VW55x_RELEASE_V1.0.2/MSDK/mbedtls/mbedtls-2.17.0-ssl/library\ssl_ticket.c ****     left--;
 493              		.loc 1 254 5 is_stmt 1
 254:C:/Users/stapi/OneDrive/Desktop/GD32VW553/V1_MQTT_OK/GD32VW55X_Wifi_BLE_SDK/GD32VW55x_RELEASE_V1.0.2/MSDK/mbedtls/mbedtls-2.17.0-ssl/library\ssl_ticket.c ****     left--;
 494              		.loc 1 254 12 is_stmt 0
 495 00bc 230D8909 		sb	s8,154(s2)
 257:C:/Users/stapi/OneDrive/Desktop/GD32VW553/V1_MQTT_OK/GD32VW55X_Wifi_BLE_SDK/GD32VW55x_RELEASE_V1.0.2/MSDK/mbedtls/mbedtls-2.17.0-ssl/library\ssl_ticket.c ****         memcpy( p, session->peer_cert_digest, cert_digest_len );
 496              		.loc 1 257 16
 497 00c0 83A50A06 		lw	a1,96(s5)
 254:C:/Users/stapi/OneDrive/Desktop/GD32VW553/V1_MQTT_OK/GD32VW55X_Wifi_BLE_SDK/GD32VW55x_RELEASE_V1.0.2/MSDK/mbedtls/mbedtls-2.17.0-ssl/library\ssl_ticket.c ****     left--;
 498              		.loc 1 254 7
 499 00c4 9307B909 		addi	a5,s2,155
 500              	.LVL58:
 255:C:/Users/stapi/OneDrive/Desktop/GD32VW553/V1_MQTT_OK/GD32VW55X_Wifi_BLE_SDK/GD32VW55x_RELEASE_V1.0.2/MSDK/mbedtls/mbedtls-2.17.0-ssl/library\ssl_ticket.c **** 
 501              		.loc 1 255 5 is_stmt 1
 257:C:/Users/stapi/OneDrive/Desktop/GD32VW553/V1_MQTT_OK/GD32VW55X_Wifi_BLE_SDK/GD32VW55x_RELEASE_V1.0.2/MSDK/mbedtls/mbedtls-2.17.0-ssl/library\ssl_ticket.c ****         memcpy( p, session->peer_cert_digest, cert_digest_len );
 502              		.loc 1 257 5
 257:C:/Users/stapi/OneDrive/Desktop/GD32VW553/V1_MQTT_OK/GD32VW55X_Wifi_BLE_SDK/GD32VW55x_RELEASE_V1.0.2/MSDK/mbedtls/mbedtls-2.17.0-ssl/library\ssl_ticket.c ****         memcpy( p, session->peer_cert_digest, cert_digest_len );
 503              		.loc 1 257 7 is_stmt 0
 504 00c8 81C9     		beq	a1,zero,.L29
 258:C:/Users/stapi/OneDrive/Desktop/GD32VW553/V1_MQTT_OK/GD32VW55X_Wifi_BLE_SDK/GD32VW55x_RELEASE_V1.0.2/MSDK/mbedtls/mbedtls-2.17.0-ssl/library\ssl_ticket.c **** 
 505              		.loc 1 258 9 is_stmt 1
 506 00ca 3E85     		mv	a0,a5
 507 00cc 6286     		mv	a2,s8
 508 00ce 97000000 		call	memcpy
 508      E7800000 
 509              	.LVL59:
 510 00d6 AA87     		mv	a5,a0
 511              	.L29:
 260:C:/Users/stapi/OneDrive/Desktop/GD32VW553/V1_MQTT_OK/GD32VW55X_Wifi_BLE_SDK/GD32VW55x_RELEASE_V1.0.2/MSDK/mbedtls/mbedtls-2.17.0-ssl/library\ssl_ticket.c ****     left -= cert_digest_len;
 512              		.loc 1 260 5
 260:C:/Users/stapi/OneDrive/Desktop/GD32VW553/V1_MQTT_OK/GD32VW55X_Wifi_BLE_SDK/GD32VW55x_RELEASE_V1.0.2/MSDK/mbedtls/mbedtls-2.17.0-ssl/library\ssl_ticket.c ****     left -= cert_digest_len;
 513              		.loc 1 260 10 is_stmt 0
 514 00d8 E297     		add	a5,a5,s8
 515              	.LVL60:
 261:C:/Users/stapi/OneDrive/Desktop/GD32VW553/V1_MQTT_OK/GD32VW55X_Wifi_BLE_SDK/GD32VW55x_RELEASE_V1.0.2/MSDK/mbedtls/mbedtls-2.17.0-ssl/library\ssl_ticket.c **** #endif /* !MBEDTLS_SSL_KEEP_PEER_CERTIFICATE */
 516              		.loc 1 261 5 is_stmt 1
 265:C:/Users/stapi/OneDrive/Desktop/GD32VW553/V1_MQTT_OK/GD32VW55X_Wifi_BLE_SDK/GD32VW55x_RELEASE_V1.0.2/MSDK/mbedtls/mbedtls-2.17.0-ssl/library\ssl_ticket.c **** 
 517              		.loc 1 265 5
 265:C:/Users/stapi/OneDrive/Desktop/GD32VW553/V1_MQTT_OK/GD32VW55X_Wifi_BLE_SDK/GD32VW55x_RELEASE_V1.0.2/MSDK/mbedtls/mbedtls-2.17.0-ssl/library\ssl_ticket.c **** 
 518              		.loc 1 265 15 is_stmt 0
 519 00da B3899741 		sub	s3,a5,s9
 520              	.LVL61:
 267:C:/Users/stapi/OneDrive/Desktop/GD32VW553/V1_MQTT_OK/GD32VW55X_Wifi_BLE_SDK/GD32VW55x_RELEASE_V1.0.2/MSDK/mbedtls/mbedtls-2.17.0-ssl/library\ssl_ticket.c **** }
 521              		.loc 1 267 5 is_stmt 1
 522              	.LBE19:
 523              	.LBE18:
 431:C:/Users/stapi/OneDrive/Desktop/GD32VW553/V1_MQTT_OK/GD32VW55X_Wifi_BLE_SDK/GD32VW55x_RELEASE_V1.0.2/MSDK/mbedtls/mbedtls-2.17.0-ssl/library\ssl_ticket.c ****         (unsigned long) clear_len > 65535 )
 524              		.loc 1 431 75 is_stmt 0
 525 00de 4167     		li	a4,65536
 526 00e0 E3FBE9F4 		bgeu	s3,a4,.L21
 436:C:/Users/stapi/OneDrive/Desktop/GD32VW553/V1_MQTT_OK/GD32VW55X_Wifi_BLE_SDK/GD32VW55x_RELEASE_V1.0.2/MSDK/mbedtls/mbedtls-2.17.0-ssl/library\ssl_ticket.c ****     state_len_bytes[1] = ( clear_len      ) & 0xff;
 527              		.loc 1 436 5 is_stmt 1
 436:C:/Users/stapi/OneDrive/Desktop/GD32VW553/V1_MQTT_OK/GD32VW55X_Wifi_BLE_SDK/GD32VW55x_RELEASE_V1.0.2/MSDK/mbedtls/mbedtls-2.17.0-ssl/library\ssl_ticket.c ****     state_len_bytes[1] = ( clear_len      ) & 0xff;
 528              		.loc 1 436 38 is_stmt 0
 529 00e4 13D78900 		srli	a4,s3,8
 436:C:/Users/stapi/OneDrive/Desktop/GD32VW553/V1_MQTT_OK/GD32VW55X_Wifi_BLE_SDK/GD32VW55x_RELEASE_V1.0.2/MSDK/mbedtls/mbedtls-2.17.0-ssl/library\ssl_ticket.c ****     state_len_bytes[1] = ( clear_len      ) & 0xff;
 530              		.loc 1 436 24
 531 00e8 2308E900 		sb	a4,16(s2)
 437:C:/Users/stapi/OneDrive/Desktop/GD32VW553/V1_MQTT_OK/GD32VW55X_Wifi_BLE_SDK/GD32VW55x_RELEASE_V1.0.2/MSDK/mbedtls/mbedtls-2.17.0-ssl/library\ssl_ticket.c **** 
 532              		.loc 1 437 5 is_stmt 1
 437:C:/Users/stapi/OneDrive/Desktop/GD32VW553/V1_MQTT_OK/GD32VW55X_Wifi_BLE_SDK/GD32VW55x_RELEASE_V1.0.2/MSDK/mbedtls/mbedtls-2.17.0-ssl/library\ssl_ticket.c **** 
 533              		.loc 1 437 24 is_stmt 0
 534 00ec A3083901 		sb	s3,17(s2)
 440:C:/Users/stapi/OneDrive/Desktop/GD32VW553/V1_MQTT_OK/GD32VW55X_Wifi_BLE_SDK/GD32VW55x_RELEASE_V1.0.2/MSDK/mbedtls/mbedtls-2.17.0-ssl/library\ssl_ticket.c ****     if( ( ret = mbedtls_cipher_auth_encrypt( &key->ctx,
 535              		.loc 1 440 5 is_stmt 1
 536              	.LVL62:
 441:C:/Users/stapi/OneDrive/Desktop/GD32VW553/V1_MQTT_OK/GD32VW55X_Wifi_BLE_SDK/GD32VW55x_RELEASE_V1.0.2/MSDK/mbedtls/mbedtls-2.17.0-ssl/library\ssl_ticket.c ****                     iv, TICKET_IV_BYTES,
 537              		.loc 1 441 5
 441:C:/Users/stapi/OneDrive/Desktop/GD32VW553/V1_MQTT_OK/GD32VW55X_Wifi_BLE_SDK/GD32VW55x_RELEASE_V1.0.2/MSDK/mbedtls/mbedtls-2.17.0-ssl/library\ssl_ticket.c ****                     iv, TICKET_IV_BYTES,
 538              		.loc 1 441 17 is_stmt 0
 539 00f0 4147     		li	a4,16
 540 00f2 3EC2     		sw	a5,4(sp)
 541 00f4 13058A00 		addi	a0,s4,8
 542 00f8 7C08     		addi	a5,sp,28
 543              	.LVL63:
 544 00fa 3AC4     		sw	a4,8(sp)
 545 00fc 3EC0     		sw	a5,0(sp)
 546 00fe E688     		mv	a7,s9
 547 0100 4E88     		mv	a6,s3
 548 0102 E687     		mv	a5,s9
 549 0104 4947     		li	a4,18
 550 0106 CA86     		mv	a3,s2
 551 0108 3146     		li	a2,12
 552 010a DE85     		mv	a1,s7
 553 010c 2695     		add	a0,s1,a0
 554 010e 97000000 		call	mbedtls_cipher_auth_encrypt
 554      E7800000 
 555              	.LVL64:
 556 0116 2A84     		mv	s0,a0
 557              	.LVL65:
 441:C:/Users/stapi/OneDrive/Desktop/GD32VW553/V1_MQTT_OK/GD32VW55X_Wifi_BLE_SDK/GD32VW55x_RELEASE_V1.0.2/MSDK/mbedtls/mbedtls-2.17.0-ssl/library\ssl_ticket.c ****                     iv, TICKET_IV_BYTES,
 558              		.loc 1 441 7
 559 0118 19FD     		bne	a0,zero,.L21
 450:C:/Users/stapi/OneDrive/Desktop/GD32VW553/V1_MQTT_OK/GD32VW55X_Wifi_BLE_SDK/GD32VW55x_RELEASE_V1.0.2/MSDK/mbedtls/mbedtls-2.17.0-ssl/library\ssl_ticket.c ****     {
 560              		.loc 1 450 5 is_stmt 1
 450:C:/Users/stapi/OneDrive/Desktop/GD32VW553/V1_MQTT_OK/GD32VW55X_Wifi_BLE_SDK/GD32VW55x_RELEASE_V1.0.2/MSDK/mbedtls/mbedtls-2.17.0-ssl/library\ssl_ticket.c ****     {
 561              		.loc 1 450 7 is_stmt 0
 562 011a F247     		lw	a5,28(sp)
 563 011c 63923703 		bne	a5,s3,.L33
 456:C:/Users/stapi/OneDrive/Desktop/GD32VW553/V1_MQTT_OK/GD32VW55X_Wifi_BLE_SDK/GD32VW55x_RELEASE_V1.0.2/MSDK/mbedtls/mbedtls-2.17.0-ssl/library\ssl_ticket.c **** 
 564              		.loc 1 456 5 is_stmt 1
 456:C:/Users/stapi/OneDrive/Desktop/GD32VW553/V1_MQTT_OK/GD32VW55X_Wifi_BLE_SDK/GD32VW55x_RELEASE_V1.0.2/MSDK/mbedtls/mbedtls-2.17.0-ssl/library\ssl_ticket.c **** 
 565              		.loc 1 456 28 is_stmt 0
 566 0120 93872702 		addi	a5,a5,34
 456:C:/Users/stapi/OneDrive/Desktop/GD32VW553/V1_MQTT_OK/GD32VW55X_Wifi_BLE_SDK/GD32VW55x_RELEASE_V1.0.2/MSDK/mbedtls/mbedtls-2.17.0-ssl/library\ssl_ticket.c **** 
 567              		.loc 1 456 11
 568 0124 2320FB00 		sw	a5,0(s6)
 569 0128 39B7     		j	.L21
 570              	.LVL66:
 571              	.L24:
 572              	.LBB20:
 573              	.LBB16:
 574 012a 97000000 		call	ssl_ticket_update_keys.part.0
 574      E7800000 
 575              	.LVL67:
 576 0132 2A84     		mv	s0,a0
 577              	.LVL68:
 578              	.LBE16:
 579              	.LBE20:
 417:C:/Users/stapi/OneDrive/Desktop/GD32VW553/V1_MQTT_OK/GD32VW55X_Wifi_BLE_SDK/GD32VW55x_RELEASE_V1.0.2/MSDK/mbedtls/mbedtls-2.17.0-ssl/library\ssl_ticket.c ****         goto cleanup;
 580              		.loc 1 417 7
 581 0134 09F1     		bne	a0,zero,.L21
 582 0136 11BF     		j	.L26
 583              	.LVL69:
 584              	.L31:
 405:C:/Users/stapi/OneDrive/Desktop/GD32VW553/V1_MQTT_OK/GD32VW55X_Wifi_BLE_SDK/GD32VW55x_RELEASE_V1.0.2/MSDK/mbedtls/mbedtls-2.17.0-ssl/library\ssl_ticket.c **** 
 585              		.loc 1 405 15
 586 0138 6574     		li	s0,-28672
 587 013a 130404F0 		addi	s0,s0,-256
 588 013e E5BD     		j	.L21
 589              	.LVL70:
 590              	.L33:
 452:C:/Users/stapi/OneDrive/Desktop/GD32VW553/V1_MQTT_OK/GD32VW55X_Wifi_BLE_SDK/GD32VW55x_RELEASE_V1.0.2/MSDK/mbedtls/mbedtls-2.17.0-ssl/library\ssl_ticket.c ****         goto cleanup;
 591              		.loc 1 452 13
 592 0140 6574     		li	s0,-28672
 593              	.LVL71:
 594 0142 13040440 		addi	s0,s0,1024
 595              	.LVL72:
 596 0146 C5BD     		j	.L21
 597              		.cfi_endproc
 598              	.LFE389:
 600              		.section	.text.mbedtls_ssl_ticket_parse,"ax",@progbits
 601              		.align	1
 602              		.globl	mbedtls_ssl_ticket_parse
 604              	mbedtls_ssl_ticket_parse:
 605              	.LFB391:
 466:C:/Users/stapi/OneDrive/Desktop/GD32VW553/V1_MQTT_OK/GD32VW55X_Wifi_BLE_SDK/GD32VW55x_RELEASE_V1.0.2/MSDK/mbedtls/mbedtls-2.17.0-ssl/library\ssl_ticket.c **** 
 467:C:/Users/stapi/OneDrive/Desktop/GD32VW553/V1_MQTT_OK/GD32VW55X_Wifi_BLE_SDK/GD32VW55x_RELEASE_V1.0.2/MSDK/mbedtls/mbedtls-2.17.0-ssl/library\ssl_ticket.c **** /*
 468:C:/Users/stapi/OneDrive/Desktop/GD32VW553/V1_MQTT_OK/GD32VW55X_Wifi_BLE_SDK/GD32VW55x_RELEASE_V1.0.2/MSDK/mbedtls/mbedtls-2.17.0-ssl/library\ssl_ticket.c ****  * Select key based on name
 469:C:/Users/stapi/OneDrive/Desktop/GD32VW553/V1_MQTT_OK/GD32VW55X_Wifi_BLE_SDK/GD32VW55x_RELEASE_V1.0.2/MSDK/mbedtls/mbedtls-2.17.0-ssl/library\ssl_ticket.c ****  */
 470:C:/Users/stapi/OneDrive/Desktop/GD32VW553/V1_MQTT_OK/GD32VW55X_Wifi_BLE_SDK/GD32VW55x_RELEASE_V1.0.2/MSDK/mbedtls/mbedtls-2.17.0-ssl/library\ssl_ticket.c **** static mbedtls_ssl_ticket_key *ssl_ticket_select_key(
 471:C:/Users/stapi/OneDrive/Desktop/GD32VW553/V1_MQTT_OK/GD32VW55X_Wifi_BLE_SDK/GD32VW55x_RELEASE_V1.0.2/MSDK/mbedtls/mbedtls-2.17.0-ssl/library\ssl_ticket.c ****         mbedtls_ssl_ticket_context *ctx,
 472:C:/Users/stapi/OneDrive/Desktop/GD32VW553/V1_MQTT_OK/GD32VW55X_Wifi_BLE_SDK/GD32VW55x_RELEASE_V1.0.2/MSDK/mbedtls/mbedtls-2.17.0-ssl/library\ssl_ticket.c ****         const unsigned char name[4] )
 473:C:/Users/stapi/OneDrive/Desktop/GD32VW553/V1_MQTT_OK/GD32VW55X_Wifi_BLE_SDK/GD32VW55x_RELEASE_V1.0.2/MSDK/mbedtls/mbedtls-2.17.0-ssl/library\ssl_ticket.c **** {
 474:C:/Users/stapi/OneDrive/Desktop/GD32VW553/V1_MQTT_OK/GD32VW55X_Wifi_BLE_SDK/GD32VW55x_RELEASE_V1.0.2/MSDK/mbedtls/mbedtls-2.17.0-ssl/library\ssl_ticket.c ****     unsigned char i;
 475:C:/Users/stapi/OneDrive/Desktop/GD32VW553/V1_MQTT_OK/GD32VW55X_Wifi_BLE_SDK/GD32VW55x_RELEASE_V1.0.2/MSDK/mbedtls/mbedtls-2.17.0-ssl/library\ssl_ticket.c **** 
 476:C:/Users/stapi/OneDrive/Desktop/GD32VW553/V1_MQTT_OK/GD32VW55X_Wifi_BLE_SDK/GD32VW55x_RELEASE_V1.0.2/MSDK/mbedtls/mbedtls-2.17.0-ssl/library\ssl_ticket.c ****     for( i = 0; i < sizeof( ctx->keys ) / sizeof( *ctx->keys ); i++ )
 477:C:/Users/stapi/OneDrive/Desktop/GD32VW553/V1_MQTT_OK/GD32VW55X_Wifi_BLE_SDK/GD32VW55x_RELEASE_V1.0.2/MSDK/mbedtls/mbedtls-2.17.0-ssl/library\ssl_ticket.c ****         if( memcmp( name, ctx->keys[i].name, 4 ) == 0 )
 478:C:/Users/stapi/OneDrive/Desktop/GD32VW553/V1_MQTT_OK/GD32VW55X_Wifi_BLE_SDK/GD32VW55x_RELEASE_V1.0.2/MSDK/mbedtls/mbedtls-2.17.0-ssl/library\ssl_ticket.c ****             return( &ctx->keys[i] );
 479:C:/Users/stapi/OneDrive/Desktop/GD32VW553/V1_MQTT_OK/GD32VW55X_Wifi_BLE_SDK/GD32VW55x_RELEASE_V1.0.2/MSDK/mbedtls/mbedtls-2.17.0-ssl/library\ssl_ticket.c **** 
 480:C:/Users/stapi/OneDrive/Desktop/GD32VW553/V1_MQTT_OK/GD32VW55X_Wifi_BLE_SDK/GD32VW55x_RELEASE_V1.0.2/MSDK/mbedtls/mbedtls-2.17.0-ssl/library\ssl_ticket.c ****     return( NULL );
 481:C:/Users/stapi/OneDrive/Desktop/GD32VW553/V1_MQTT_OK/GD32VW55X_Wifi_BLE_SDK/GD32VW55x_RELEASE_V1.0.2/MSDK/mbedtls/mbedtls-2.17.0-ssl/library\ssl_ticket.c **** }
 482:C:/Users/stapi/OneDrive/Desktop/GD32VW553/V1_MQTT_OK/GD32VW55X_Wifi_BLE_SDK/GD32VW55x_RELEASE_V1.0.2/MSDK/mbedtls/mbedtls-2.17.0-ssl/library\ssl_ticket.c **** 
 483:C:/Users/stapi/OneDrive/Desktop/GD32VW553/V1_MQTT_OK/GD32VW55X_Wifi_BLE_SDK/GD32VW55x_RELEASE_V1.0.2/MSDK/mbedtls/mbedtls-2.17.0-ssl/library\ssl_ticket.c **** /*
 484:C:/Users/stapi/OneDrive/Desktop/GD32VW553/V1_MQTT_OK/GD32VW55X_Wifi_BLE_SDK/GD32VW55x_RELEASE_V1.0.2/MSDK/mbedtls/mbedtls-2.17.0-ssl/library\ssl_ticket.c ****  * Load session ticket (see mbedtls_ssl_ticket_write for structure)
 485:C:/Users/stapi/OneDrive/Desktop/GD32VW553/V1_MQTT_OK/GD32VW55X_Wifi_BLE_SDK/GD32VW55x_RELEASE_V1.0.2/MSDK/mbedtls/mbedtls-2.17.0-ssl/library\ssl_ticket.c ****  */
 486:C:/Users/stapi/OneDrive/Desktop/GD32VW553/V1_MQTT_OK/GD32VW55X_Wifi_BLE_SDK/GD32VW55x_RELEASE_V1.0.2/MSDK/mbedtls/mbedtls-2.17.0-ssl/library\ssl_ticket.c **** int mbedtls_ssl_ticket_parse( void *p_ticket,
 487:C:/Users/stapi/OneDrive/Desktop/GD32VW553/V1_MQTT_OK/GD32VW55X_Wifi_BLE_SDK/GD32VW55x_RELEASE_V1.0.2/MSDK/mbedtls/mbedtls-2.17.0-ssl/library\ssl_ticket.c ****                               mbedtls_ssl_session *session,
 488:C:/Users/stapi/OneDrive/Desktop/GD32VW553/V1_MQTT_OK/GD32VW55X_Wifi_BLE_SDK/GD32VW55x_RELEASE_V1.0.2/MSDK/mbedtls/mbedtls-2.17.0-ssl/library\ssl_ticket.c ****                               unsigned char *buf,
 489:C:/Users/stapi/OneDrive/Desktop/GD32VW553/V1_MQTT_OK/GD32VW55X_Wifi_BLE_SDK/GD32VW55x_RELEASE_V1.0.2/MSDK/mbedtls/mbedtls-2.17.0-ssl/library\ssl_ticket.c ****                               size_t len )
 490:C:/Users/stapi/OneDrive/Desktop/GD32VW553/V1_MQTT_OK/GD32VW55X_Wifi_BLE_SDK/GD32VW55x_RELEASE_V1.0.2/MSDK/mbedtls/mbedtls-2.17.0-ssl/library\ssl_ticket.c **** {
 606              		.loc 1 490 1 is_stmt 1
 607              		.cfi_startproc
 608              	.LVL73:
 609 0000 17030000 		call	t0,__riscv_save_8
 609      E7020300 
 610              		.cfi_offset 23, -36
 611              		.cfi_offset 22, -32
 612              		.cfi_offset 21, -28
 613              		.cfi_offset 20, -24
 614              		.cfi_offset 19, -20
 615              		.cfi_offset 18, -16
 616              		.cfi_offset 9, -12
 617              		.cfi_offset 8, -8
 618              		.cfi_offset 1, -4
 619              		.cfi_def_cfa_offset 48
 491:C:/Users/stapi/OneDrive/Desktop/GD32VW553/V1_MQTT_OK/GD32VW55X_Wifi_BLE_SDK/GD32VW55x_RELEASE_V1.0.2/MSDK/mbedtls/mbedtls-2.17.0-ssl/library\ssl_ticket.c ****     int ret;
 620              		.loc 1 491 5
 492:C:/Users/stapi/OneDrive/Desktop/GD32VW553/V1_MQTT_OK/GD32VW55X_Wifi_BLE_SDK/GD32VW55x_RELEASE_V1.0.2/MSDK/mbedtls/mbedtls-2.17.0-ssl/library\ssl_ticket.c ****     mbedtls_ssl_ticket_context *ctx = p_ticket;
 621              		.loc 1 492 5
 622              	.LVL74:
 493:C:/Users/stapi/OneDrive/Desktop/GD32VW553/V1_MQTT_OK/GD32VW55X_Wifi_BLE_SDK/GD32VW55x_RELEASE_V1.0.2/MSDK/mbedtls/mbedtls-2.17.0-ssl/library\ssl_ticket.c ****     mbedtls_ssl_ticket_key *key;
 623              		.loc 1 493 5
 494:C:/Users/stapi/OneDrive/Desktop/GD32VW553/V1_MQTT_OK/GD32VW55X_Wifi_BLE_SDK/GD32VW55x_RELEASE_V1.0.2/MSDK/mbedtls/mbedtls-2.17.0-ssl/library\ssl_ticket.c ****     unsigned char *key_name = buf;
 624              		.loc 1 494 5
 495:C:/Users/stapi/OneDrive/Desktop/GD32VW553/V1_MQTT_OK/GD32VW55X_Wifi_BLE_SDK/GD32VW55x_RELEASE_V1.0.2/MSDK/mbedtls/mbedtls-2.17.0-ssl/library\ssl_ticket.c ****     unsigned char *iv = buf + TICKET_KEY_NAME_BYTES;
 625              		.loc 1 495 5
 496:C:/Users/stapi/OneDrive/Desktop/GD32VW553/V1_MQTT_OK/GD32VW55X_Wifi_BLE_SDK/GD32VW55x_RELEASE_V1.0.2/MSDK/mbedtls/mbedtls-2.17.0-ssl/library\ssl_ticket.c ****     unsigned char *enc_len_p = iv + TICKET_IV_BYTES;
 626              		.loc 1 496 5
 497:C:/Users/stapi/OneDrive/Desktop/GD32VW553/V1_MQTT_OK/GD32VW55X_Wifi_BLE_SDK/GD32VW55x_RELEASE_V1.0.2/MSDK/mbedtls/mbedtls-2.17.0-ssl/library\ssl_ticket.c ****     unsigned char *ticket = enc_len_p + TICKET_CRYPT_LEN_BYTES;
 627              		.loc 1 497 5
 498:C:/Users/stapi/OneDrive/Desktop/GD32VW553/V1_MQTT_OK/GD32VW55X_Wifi_BLE_SDK/GD32VW55x_RELEASE_V1.0.2/MSDK/mbedtls/mbedtls-2.17.0-ssl/library\ssl_ticket.c ****     unsigned char *tag;
 628              		.loc 1 498 5
 499:C:/Users/stapi/OneDrive/Desktop/GD32VW553/V1_MQTT_OK/GD32VW55X_Wifi_BLE_SDK/GD32VW55x_RELEASE_V1.0.2/MSDK/mbedtls/mbedtls-2.17.0-ssl/library\ssl_ticket.c ****     size_t enc_len, clear_len;
 629              		.loc 1 499 5
 500:C:/Users/stapi/OneDrive/Desktop/GD32VW553/V1_MQTT_OK/GD32VW55X_Wifi_BLE_SDK/GD32VW55x_RELEASE_V1.0.2/MSDK/mbedtls/mbedtls-2.17.0-ssl/library\ssl_ticket.c **** 
 501:C:/Users/stapi/OneDrive/Desktop/GD32VW553/V1_MQTT_OK/GD32VW55X_Wifi_BLE_SDK/GD32VW55x_RELEASE_V1.0.2/MSDK/mbedtls/mbedtls-2.17.0-ssl/library\ssl_ticket.c ****     if( ctx == NULL || ctx->f_rng == NULL )
 630              		.loc 1 501 5
 490:C:/Users/stapi/OneDrive/Desktop/GD32VW553/V1_MQTT_OK/GD32VW55X_Wifi_BLE_SDK/GD32VW55x_RELEASE_V1.0.2/MSDK/mbedtls/mbedtls-2.17.0-ssl/library\ssl_ticket.c ****     int ret;
 631              		.loc 1 490 1 is_stmt 0
 632 0008 0111     		addi	sp,sp,-32
 633              		.cfi_def_cfa_offset 80
 634              		.loc 1 501 7
 635 000a 11E9     		bne	a0,zero,.L40
 636              	.LVL75:
 637              	.L42:
 502:C:/Users/stapi/OneDrive/Desktop/GD32VW553/V1_MQTT_OK/GD32VW55X_Wifi_BLE_SDK/GD32VW55x_RELEASE_V1.0.2/MSDK/mbedtls/mbedtls-2.17.0-ssl/library\ssl_ticket.c ****         return( MBEDTLS_ERR_SSL_BAD_INPUT_DATA );
 638              		.loc 1 502 15
 639 000c 6574     		li	s0,-28672
 640 000e 130404F0 		addi	s0,s0,-256
 641              	.L39:
 503:C:/Users/stapi/OneDrive/Desktop/GD32VW553/V1_MQTT_OK/GD32VW55X_Wifi_BLE_SDK/GD32VW55x_RELEASE_V1.0.2/MSDK/mbedtls/mbedtls-2.17.0-ssl/library\ssl_ticket.c **** 
 504:C:/Users/stapi/OneDrive/Desktop/GD32VW553/V1_MQTT_OK/GD32VW55X_Wifi_BLE_SDK/GD32VW55x_RELEASE_V1.0.2/MSDK/mbedtls/mbedtls-2.17.0-ssl/library\ssl_ticket.c ****     if( len < TICKET_MIN_LEN )
 505:C:/Users/stapi/OneDrive/Desktop/GD32VW553/V1_MQTT_OK/GD32VW55X_Wifi_BLE_SDK/GD32VW55x_RELEASE_V1.0.2/MSDK/mbedtls/mbedtls-2.17.0-ssl/library\ssl_ticket.c ****         return( MBEDTLS_ERR_SSL_BAD_INPUT_DATA );
 506:C:/Users/stapi/OneDrive/Desktop/GD32VW553/V1_MQTT_OK/GD32VW55X_Wifi_BLE_SDK/GD32VW55x_RELEASE_V1.0.2/MSDK/mbedtls/mbedtls-2.17.0-ssl/library\ssl_ticket.c **** 
 507:C:/Users/stapi/OneDrive/Desktop/GD32VW553/V1_MQTT_OK/GD32VW55X_Wifi_BLE_SDK/GD32VW55x_RELEASE_V1.0.2/MSDK/mbedtls/mbedtls-2.17.0-ssl/library\ssl_ticket.c **** #if defined(MBEDTLS_THREADING_C)
 508:C:/Users/stapi/OneDrive/Desktop/GD32VW553/V1_MQTT_OK/GD32VW55X_Wifi_BLE_SDK/GD32VW55x_RELEASE_V1.0.2/MSDK/mbedtls/mbedtls-2.17.0-ssl/library\ssl_ticket.c ****     if( ( ret = mbedtls_mutex_lock( &ctx->mutex ) ) != 0 )
 509:C:/Users/stapi/OneDrive/Desktop/GD32VW553/V1_MQTT_OK/GD32VW55X_Wifi_BLE_SDK/GD32VW55x_RELEASE_V1.0.2/MSDK/mbedtls/mbedtls-2.17.0-ssl/library\ssl_ticket.c ****         return( ret );
 510:C:/Users/stapi/OneDrive/Desktop/GD32VW553/V1_MQTT_OK/GD32VW55X_Wifi_BLE_SDK/GD32VW55x_RELEASE_V1.0.2/MSDK/mbedtls/mbedtls-2.17.0-ssl/library\ssl_ticket.c **** #endif
 511:C:/Users/stapi/OneDrive/Desktop/GD32VW553/V1_MQTT_OK/GD32VW55X_Wifi_BLE_SDK/GD32VW55x_RELEASE_V1.0.2/MSDK/mbedtls/mbedtls-2.17.0-ssl/library\ssl_ticket.c **** 
 512:C:/Users/stapi/OneDrive/Desktop/GD32VW553/V1_MQTT_OK/GD32VW55X_Wifi_BLE_SDK/GD32VW55x_RELEASE_V1.0.2/MSDK/mbedtls/mbedtls-2.17.0-ssl/library\ssl_ticket.c ****     if( ( ret = ssl_ticket_update_keys( ctx ) ) != 0 )
 513:C:/Users/stapi/OneDrive/Desktop/GD32VW553/V1_MQTT_OK/GD32VW55X_Wifi_BLE_SDK/GD32VW55x_RELEASE_V1.0.2/MSDK/mbedtls/mbedtls-2.17.0-ssl/library\ssl_ticket.c ****         goto cleanup;
 514:C:/Users/stapi/OneDrive/Desktop/GD32VW553/V1_MQTT_OK/GD32VW55X_Wifi_BLE_SDK/GD32VW55x_RELEASE_V1.0.2/MSDK/mbedtls/mbedtls-2.17.0-ssl/library\ssl_ticket.c **** 
 515:C:/Users/stapi/OneDrive/Desktop/GD32VW553/V1_MQTT_OK/GD32VW55X_Wifi_BLE_SDK/GD32VW55x_RELEASE_V1.0.2/MSDK/mbedtls/mbedtls-2.17.0-ssl/library\ssl_ticket.c ****     enc_len = ( enc_len_p[0] << 8 ) | enc_len_p[1];
 516:C:/Users/stapi/OneDrive/Desktop/GD32VW553/V1_MQTT_OK/GD32VW55X_Wifi_BLE_SDK/GD32VW55x_RELEASE_V1.0.2/MSDK/mbedtls/mbedtls-2.17.0-ssl/library\ssl_ticket.c ****     tag = ticket + enc_len;
 517:C:/Users/stapi/OneDrive/Desktop/GD32VW553/V1_MQTT_OK/GD32VW55X_Wifi_BLE_SDK/GD32VW55x_RELEASE_V1.0.2/MSDK/mbedtls/mbedtls-2.17.0-ssl/library\ssl_ticket.c **** 
 518:C:/Users/stapi/OneDrive/Desktop/GD32VW553/V1_MQTT_OK/GD32VW55X_Wifi_BLE_SDK/GD32VW55x_RELEASE_V1.0.2/MSDK/mbedtls/mbedtls-2.17.0-ssl/library\ssl_ticket.c ****     if( len != TICKET_MIN_LEN + enc_len )
 519:C:/Users/stapi/OneDrive/Desktop/GD32VW553/V1_MQTT_OK/GD32VW55X_Wifi_BLE_SDK/GD32VW55x_RELEASE_V1.0.2/MSDK/mbedtls/mbedtls-2.17.0-ssl/library\ssl_ticket.c ****     {
 520:C:/Users/stapi/OneDrive/Desktop/GD32VW553/V1_MQTT_OK/GD32VW55X_Wifi_BLE_SDK/GD32VW55x_RELEASE_V1.0.2/MSDK/mbedtls/mbedtls-2.17.0-ssl/library\ssl_ticket.c ****         ret = MBEDTLS_ERR_SSL_BAD_INPUT_DATA;
 521:C:/Users/stapi/OneDrive/Desktop/GD32VW553/V1_MQTT_OK/GD32VW55X_Wifi_BLE_SDK/GD32VW55x_RELEASE_V1.0.2/MSDK/mbedtls/mbedtls-2.17.0-ssl/library\ssl_ticket.c ****         goto cleanup;
 522:C:/Users/stapi/OneDrive/Desktop/GD32VW553/V1_MQTT_OK/GD32VW55X_Wifi_BLE_SDK/GD32VW55x_RELEASE_V1.0.2/MSDK/mbedtls/mbedtls-2.17.0-ssl/library\ssl_ticket.c ****     }
 523:C:/Users/stapi/OneDrive/Desktop/GD32VW553/V1_MQTT_OK/GD32VW55X_Wifi_BLE_SDK/GD32VW55x_RELEASE_V1.0.2/MSDK/mbedtls/mbedtls-2.17.0-ssl/library\ssl_ticket.c **** 
 524:C:/Users/stapi/OneDrive/Desktop/GD32VW553/V1_MQTT_OK/GD32VW55X_Wifi_BLE_SDK/GD32VW55x_RELEASE_V1.0.2/MSDK/mbedtls/mbedtls-2.17.0-ssl/library\ssl_ticket.c ****     /* Select key */
 525:C:/Users/stapi/OneDrive/Desktop/GD32VW553/V1_MQTT_OK/GD32VW55X_Wifi_BLE_SDK/GD32VW55x_RELEASE_V1.0.2/MSDK/mbedtls/mbedtls-2.17.0-ssl/library\ssl_ticket.c ****     if( ( key = ssl_ticket_select_key( ctx, key_name ) ) == NULL )
 526:C:/Users/stapi/OneDrive/Desktop/GD32VW553/V1_MQTT_OK/GD32VW55X_Wifi_BLE_SDK/GD32VW55x_RELEASE_V1.0.2/MSDK/mbedtls/mbedtls-2.17.0-ssl/library\ssl_ticket.c ****     {
 527:C:/Users/stapi/OneDrive/Desktop/GD32VW553/V1_MQTT_OK/GD32VW55X_Wifi_BLE_SDK/GD32VW55x_RELEASE_V1.0.2/MSDK/mbedtls/mbedtls-2.17.0-ssl/library\ssl_ticket.c ****         /* We can't know for sure but this is a likely option unless we're
 528:C:/Users/stapi/OneDrive/Desktop/GD32VW553/V1_MQTT_OK/GD32VW55X_Wifi_BLE_SDK/GD32VW55x_RELEASE_V1.0.2/MSDK/mbedtls/mbedtls-2.17.0-ssl/library\ssl_ticket.c ****          * under attack - this is only informative anyway */
 529:C:/Users/stapi/OneDrive/Desktop/GD32VW553/V1_MQTT_OK/GD32VW55X_Wifi_BLE_SDK/GD32VW55x_RELEASE_V1.0.2/MSDK/mbedtls/mbedtls-2.17.0-ssl/library\ssl_ticket.c ****         ret = MBEDTLS_ERR_SSL_SESSION_TICKET_EXPIRED;
 530:C:/Users/stapi/OneDrive/Desktop/GD32VW553/V1_MQTT_OK/GD32VW55X_Wifi_BLE_SDK/GD32VW55x_RELEASE_V1.0.2/MSDK/mbedtls/mbedtls-2.17.0-ssl/library\ssl_ticket.c ****         goto cleanup;
 531:C:/Users/stapi/OneDrive/Desktop/GD32VW553/V1_MQTT_OK/GD32VW55X_Wifi_BLE_SDK/GD32VW55x_RELEASE_V1.0.2/MSDK/mbedtls/mbedtls-2.17.0-ssl/library\ssl_ticket.c ****     }
 532:C:/Users/stapi/OneDrive/Desktop/GD32VW553/V1_MQTT_OK/GD32VW55X_Wifi_BLE_SDK/GD32VW55x_RELEASE_V1.0.2/MSDK/mbedtls/mbedtls-2.17.0-ssl/library\ssl_ticket.c **** 
 533:C:/Users/stapi/OneDrive/Desktop/GD32VW553/V1_MQTT_OK/GD32VW55X_Wifi_BLE_SDK/GD32VW55x_RELEASE_V1.0.2/MSDK/mbedtls/mbedtls-2.17.0-ssl/library\ssl_ticket.c ****     /* Decrypt and authenticate */
 534:C:/Users/stapi/OneDrive/Desktop/GD32VW553/V1_MQTT_OK/GD32VW55X_Wifi_BLE_SDK/GD32VW55x_RELEASE_V1.0.2/MSDK/mbedtls/mbedtls-2.17.0-ssl/library\ssl_ticket.c ****     if( ( ret = mbedtls_cipher_auth_decrypt( &key->ctx,
 535:C:/Users/stapi/OneDrive/Desktop/GD32VW553/V1_MQTT_OK/GD32VW55X_Wifi_BLE_SDK/GD32VW55x_RELEASE_V1.0.2/MSDK/mbedtls/mbedtls-2.17.0-ssl/library\ssl_ticket.c ****                     iv, TICKET_IV_BYTES,
 536:C:/Users/stapi/OneDrive/Desktop/GD32VW553/V1_MQTT_OK/GD32VW55X_Wifi_BLE_SDK/GD32VW55x_RELEASE_V1.0.2/MSDK/mbedtls/mbedtls-2.17.0-ssl/library\ssl_ticket.c ****                     /* Additional data: key name, IV and length */
 537:C:/Users/stapi/OneDrive/Desktop/GD32VW553/V1_MQTT_OK/GD32VW55X_Wifi_BLE_SDK/GD32VW55x_RELEASE_V1.0.2/MSDK/mbedtls/mbedtls-2.17.0-ssl/library\ssl_ticket.c ****                     key_name, TICKET_ADD_DATA_LEN,
 538:C:/Users/stapi/OneDrive/Desktop/GD32VW553/V1_MQTT_OK/GD32VW55X_Wifi_BLE_SDK/GD32VW55x_RELEASE_V1.0.2/MSDK/mbedtls/mbedtls-2.17.0-ssl/library\ssl_ticket.c ****                     ticket, enc_len,
 539:C:/Users/stapi/OneDrive/Desktop/GD32VW553/V1_MQTT_OK/GD32VW55X_Wifi_BLE_SDK/GD32VW55x_RELEASE_V1.0.2/MSDK/mbedtls/mbedtls-2.17.0-ssl/library\ssl_ticket.c ****                     ticket, &clear_len,
 540:C:/Users/stapi/OneDrive/Desktop/GD32VW553/V1_MQTT_OK/GD32VW55X_Wifi_BLE_SDK/GD32VW55x_RELEASE_V1.0.2/MSDK/mbedtls/mbedtls-2.17.0-ssl/library\ssl_ticket.c ****                     tag, TICKET_AUTH_TAG_BYTES ) ) != 0 )
 541:C:/Users/stapi/OneDrive/Desktop/GD32VW553/V1_MQTT_OK/GD32VW55X_Wifi_BLE_SDK/GD32VW55x_RELEASE_V1.0.2/MSDK/mbedtls/mbedtls-2.17.0-ssl/library\ssl_ticket.c ****     {
 542:C:/Users/stapi/OneDrive/Desktop/GD32VW553/V1_MQTT_OK/GD32VW55X_Wifi_BLE_SDK/GD32VW55x_RELEASE_V1.0.2/MSDK/mbedtls/mbedtls-2.17.0-ssl/library\ssl_ticket.c ****         if( ret == MBEDTLS_ERR_CIPHER_AUTH_FAILED )
 543:C:/Users/stapi/OneDrive/Desktop/GD32VW553/V1_MQTT_OK/GD32VW55X_Wifi_BLE_SDK/GD32VW55x_RELEASE_V1.0.2/MSDK/mbedtls/mbedtls-2.17.0-ssl/library\ssl_ticket.c ****             ret = MBEDTLS_ERR_SSL_INVALID_MAC;
 544:C:/Users/stapi/OneDrive/Desktop/GD32VW553/V1_MQTT_OK/GD32VW55X_Wifi_BLE_SDK/GD32VW55x_RELEASE_V1.0.2/MSDK/mbedtls/mbedtls-2.17.0-ssl/library\ssl_ticket.c **** 
 545:C:/Users/stapi/OneDrive/Desktop/GD32VW553/V1_MQTT_OK/GD32VW55X_Wifi_BLE_SDK/GD32VW55x_RELEASE_V1.0.2/MSDK/mbedtls/mbedtls-2.17.0-ssl/library\ssl_ticket.c ****         goto cleanup;
 546:C:/Users/stapi/OneDrive/Desktop/GD32VW553/V1_MQTT_OK/GD32VW55X_Wifi_BLE_SDK/GD32VW55x_RELEASE_V1.0.2/MSDK/mbedtls/mbedtls-2.17.0-ssl/library\ssl_ticket.c ****     }
 547:C:/Users/stapi/OneDrive/Desktop/GD32VW553/V1_MQTT_OK/GD32VW55X_Wifi_BLE_SDK/GD32VW55x_RELEASE_V1.0.2/MSDK/mbedtls/mbedtls-2.17.0-ssl/library\ssl_ticket.c ****     if( clear_len != enc_len )
 548:C:/Users/stapi/OneDrive/Desktop/GD32VW553/V1_MQTT_OK/GD32VW55X_Wifi_BLE_SDK/GD32VW55x_RELEASE_V1.0.2/MSDK/mbedtls/mbedtls-2.17.0-ssl/library\ssl_ticket.c ****     {
 549:C:/Users/stapi/OneDrive/Desktop/GD32VW553/V1_MQTT_OK/GD32VW55X_Wifi_BLE_SDK/GD32VW55x_RELEASE_V1.0.2/MSDK/mbedtls/mbedtls-2.17.0-ssl/library\ssl_ticket.c ****         ret = MBEDTLS_ERR_SSL_INTERNAL_ERROR;
 550:C:/Users/stapi/OneDrive/Desktop/GD32VW553/V1_MQTT_OK/GD32VW55X_Wifi_BLE_SDK/GD32VW55x_RELEASE_V1.0.2/MSDK/mbedtls/mbedtls-2.17.0-ssl/library\ssl_ticket.c ****         goto cleanup;
 551:C:/Users/stapi/OneDrive/Desktop/GD32VW553/V1_MQTT_OK/GD32VW55X_Wifi_BLE_SDK/GD32VW55x_RELEASE_V1.0.2/MSDK/mbedtls/mbedtls-2.17.0-ssl/library\ssl_ticket.c ****     }
 552:C:/Users/stapi/OneDrive/Desktop/GD32VW553/V1_MQTT_OK/GD32VW55X_Wifi_BLE_SDK/GD32VW55x_RELEASE_V1.0.2/MSDK/mbedtls/mbedtls-2.17.0-ssl/library\ssl_ticket.c **** 
 553:C:/Users/stapi/OneDrive/Desktop/GD32VW553/V1_MQTT_OK/GD32VW55X_Wifi_BLE_SDK/GD32VW55x_RELEASE_V1.0.2/MSDK/mbedtls/mbedtls-2.17.0-ssl/library\ssl_ticket.c ****     /* Actually load session */
 554:C:/Users/stapi/OneDrive/Desktop/GD32VW553/V1_MQTT_OK/GD32VW55X_Wifi_BLE_SDK/GD32VW55x_RELEASE_V1.0.2/MSDK/mbedtls/mbedtls-2.17.0-ssl/library\ssl_ticket.c ****     if( ( ret = ssl_load_session( session, ticket, clear_len ) ) != 0 )
 555:C:/Users/stapi/OneDrive/Desktop/GD32VW553/V1_MQTT_OK/GD32VW55X_Wifi_BLE_SDK/GD32VW55x_RELEASE_V1.0.2/MSDK/mbedtls/mbedtls-2.17.0-ssl/library\ssl_ticket.c ****         goto cleanup;
 556:C:/Users/stapi/OneDrive/Desktop/GD32VW553/V1_MQTT_OK/GD32VW55X_Wifi_BLE_SDK/GD32VW55x_RELEASE_V1.0.2/MSDK/mbedtls/mbedtls-2.17.0-ssl/library\ssl_ticket.c **** 
 557:C:/Users/stapi/OneDrive/Desktop/GD32VW553/V1_MQTT_OK/GD32VW55X_Wifi_BLE_SDK/GD32VW55x_RELEASE_V1.0.2/MSDK/mbedtls/mbedtls-2.17.0-ssl/library\ssl_ticket.c **** #if defined(MBEDTLS_HAVE_TIME)
 558:C:/Users/stapi/OneDrive/Desktop/GD32VW553/V1_MQTT_OK/GD32VW55X_Wifi_BLE_SDK/GD32VW55x_RELEASE_V1.0.2/MSDK/mbedtls/mbedtls-2.17.0-ssl/library\ssl_ticket.c ****     {
 559:C:/Users/stapi/OneDrive/Desktop/GD32VW553/V1_MQTT_OK/GD32VW55X_Wifi_BLE_SDK/GD32VW55x_RELEASE_V1.0.2/MSDK/mbedtls/mbedtls-2.17.0-ssl/library\ssl_ticket.c ****         /* Check for expiration */
 560:C:/Users/stapi/OneDrive/Desktop/GD32VW553/V1_MQTT_OK/GD32VW55X_Wifi_BLE_SDK/GD32VW55x_RELEASE_V1.0.2/MSDK/mbedtls/mbedtls-2.17.0-ssl/library\ssl_ticket.c ****         mbedtls_time_t current_time = mbedtls_time( NULL );
 561:C:/Users/stapi/OneDrive/Desktop/GD32VW553/V1_MQTT_OK/GD32VW55X_Wifi_BLE_SDK/GD32VW55x_RELEASE_V1.0.2/MSDK/mbedtls/mbedtls-2.17.0-ssl/library\ssl_ticket.c **** 
 562:C:/Users/stapi/OneDrive/Desktop/GD32VW553/V1_MQTT_OK/GD32VW55X_Wifi_BLE_SDK/GD32VW55x_RELEASE_V1.0.2/MSDK/mbedtls/mbedtls-2.17.0-ssl/library\ssl_ticket.c ****         if( current_time < session->start ||
 563:C:/Users/stapi/OneDrive/Desktop/GD32VW553/V1_MQTT_OK/GD32VW55X_Wifi_BLE_SDK/GD32VW55x_RELEASE_V1.0.2/MSDK/mbedtls/mbedtls-2.17.0-ssl/library\ssl_ticket.c ****             (uint32_t)( current_time - session->start ) > ctx->ticket_lifetime )
 564:C:/Users/stapi/OneDrive/Desktop/GD32VW553/V1_MQTT_OK/GD32VW55X_Wifi_BLE_SDK/GD32VW55x_RELEASE_V1.0.2/MSDK/mbedtls/mbedtls-2.17.0-ssl/library\ssl_ticket.c ****         {
 565:C:/Users/stapi/OneDrive/Desktop/GD32VW553/V1_MQTT_OK/GD32VW55X_Wifi_BLE_SDK/GD32VW55x_RELEASE_V1.0.2/MSDK/mbedtls/mbedtls-2.17.0-ssl/library\ssl_ticket.c ****             ret = MBEDTLS_ERR_SSL_SESSION_TICKET_EXPIRED;
 566:C:/Users/stapi/OneDrive/Desktop/GD32VW553/V1_MQTT_OK/GD32VW55X_Wifi_BLE_SDK/GD32VW55x_RELEASE_V1.0.2/MSDK/mbedtls/mbedtls-2.17.0-ssl/library\ssl_ticket.c ****             goto cleanup;
 567:C:/Users/stapi/OneDrive/Desktop/GD32VW553/V1_MQTT_OK/GD32VW55X_Wifi_BLE_SDK/GD32VW55x_RELEASE_V1.0.2/MSDK/mbedtls/mbedtls-2.17.0-ssl/library\ssl_ticket.c ****         }
 568:C:/Users/stapi/OneDrive/Desktop/GD32VW553/V1_MQTT_OK/GD32VW55X_Wifi_BLE_SDK/GD32VW55x_RELEASE_V1.0.2/MSDK/mbedtls/mbedtls-2.17.0-ssl/library\ssl_ticket.c ****     }
 569:C:/Users/stapi/OneDrive/Desktop/GD32VW553/V1_MQTT_OK/GD32VW55X_Wifi_BLE_SDK/GD32VW55x_RELEASE_V1.0.2/MSDK/mbedtls/mbedtls-2.17.0-ssl/library\ssl_ticket.c **** #endif
 570:C:/Users/stapi/OneDrive/Desktop/GD32VW553/V1_MQTT_OK/GD32VW55X_Wifi_BLE_SDK/GD32VW55x_RELEASE_V1.0.2/MSDK/mbedtls/mbedtls-2.17.0-ssl/library\ssl_ticket.c **** 
 571:C:/Users/stapi/OneDrive/Desktop/GD32VW553/V1_MQTT_OK/GD32VW55X_Wifi_BLE_SDK/GD32VW55x_RELEASE_V1.0.2/MSDK/mbedtls/mbedtls-2.17.0-ssl/library\ssl_ticket.c **** cleanup:
 572:C:/Users/stapi/OneDrive/Desktop/GD32VW553/V1_MQTT_OK/GD32VW55X_Wifi_BLE_SDK/GD32VW55x_RELEASE_V1.0.2/MSDK/mbedtls/mbedtls-2.17.0-ssl/library\ssl_ticket.c **** #if defined(MBEDTLS_THREADING_C)
 573:C:/Users/stapi/OneDrive/Desktop/GD32VW553/V1_MQTT_OK/GD32VW55X_Wifi_BLE_SDK/GD32VW55x_RELEASE_V1.0.2/MSDK/mbedtls/mbedtls-2.17.0-ssl/library\ssl_ticket.c ****     if( mbedtls_mutex_unlock( &ctx->mutex ) != 0 )
 574:C:/Users/stapi/OneDrive/Desktop/GD32VW553/V1_MQTT_OK/GD32VW55X_Wifi_BLE_SDK/GD32VW55x_RELEASE_V1.0.2/MSDK/mbedtls/mbedtls-2.17.0-ssl/library\ssl_ticket.c ****         return( MBEDTLS_ERR_THREADING_MUTEX_ERROR );
 575:C:/Users/stapi/OneDrive/Desktop/GD32VW553/V1_MQTT_OK/GD32VW55X_Wifi_BLE_SDK/GD32VW55x_RELEASE_V1.0.2/MSDK/mbedtls/mbedtls-2.17.0-ssl/library\ssl_ticket.c **** #endif
 576:C:/Users/stapi/OneDrive/Desktop/GD32VW553/V1_MQTT_OK/GD32VW55X_Wifi_BLE_SDK/GD32VW55x_RELEASE_V1.0.2/MSDK/mbedtls/mbedtls-2.17.0-ssl/library\ssl_ticket.c **** 
 577:C:/Users/stapi/OneDrive/Desktop/GD32VW553/V1_MQTT_OK/GD32VW55X_Wifi_BLE_SDK/GD32VW55x_RELEASE_V1.0.2/MSDK/mbedtls/mbedtls-2.17.0-ssl/library\ssl_ticket.c ****     return( ret );
 578:C:/Users/stapi/OneDrive/Desktop/GD32VW553/V1_MQTT_OK/GD32VW55X_Wifi_BLE_SDK/GD32VW55x_RELEASE_V1.0.2/MSDK/mbedtls/mbedtls-2.17.0-ssl/library\ssl_ticket.c **** }
 642              		.loc 1 578 1
 643 0012 2285     		mv	a0,s0
 644 0014 0561     		addi	sp,sp,32
 645              		.cfi_remember_state
 646              		.cfi_def_cfa_offset 0
 647 0016 17030000 		tail	__riscv_restore_8
 647      67000300 
 648              		.cfi_restore 23
 649              		.cfi_restore 22
 650              		.cfi_restore 21
 651              		.cfi_restore 20
 652              		.cfi_restore 19
 653              		.cfi_restore 18
 654              		.cfi_restore 9
 655              		.cfi_restore 8
 656              		.cfi_restore 1
 657              		.cfi_def_cfa_offset -48
 658              	.LVL76:
 659              	.L40:
 660              		.cfi_restore_state
 501:C:/Users/stapi/OneDrive/Desktop/GD32VW553/V1_MQTT_OK/GD32VW55X_Wifi_BLE_SDK/GD32VW55x_RELEASE_V1.0.2/MSDK/mbedtls/mbedtls-2.17.0-ssl/library\ssl_ticket.c ****         return( MBEDTLS_ERR_SSL_BAD_INPUT_DATA );
 661              		.loc 1 501 21 discriminator 1
 662 001e 83278509 		lw	a5,152(a0)
 663 0022 2A89     		mv	s2,a0
 664 0024 E5D7     		beq	a5,zero,.L42
 504:C:/Users/stapi/OneDrive/Desktop/GD32VW553/V1_MQTT_OK/GD32VW55X_Wifi_BLE_SDK/GD32VW55x_RELEASE_V1.0.2/MSDK/mbedtls/mbedtls-2.17.0-ssl/library\ssl_ticket.c ****         return( MBEDTLS_ERR_SSL_BAD_INPUT_DATA );
 665              		.loc 1 504 7
 666 0026 93071002 		li	a5,33
 667 002a B68B     		mv	s7,a3
 504:C:/Users/stapi/OneDrive/Desktop/GD32VW553/V1_MQTT_OK/GD32VW55X_Wifi_BLE_SDK/GD32VW55x_RELEASE_V1.0.2/MSDK/mbedtls/mbedtls-2.17.0-ssl/library\ssl_ticket.c ****         return( MBEDTLS_ERR_SSL_BAD_INPUT_DATA );
 668              		.loc 1 504 5 is_stmt 1
 504:C:/Users/stapi/OneDrive/Desktop/GD32VW553/V1_MQTT_OK/GD32VW55X_Wifi_BLE_SDK/GD32VW55x_RELEASE_V1.0.2/MSDK/mbedtls/mbedtls-2.17.0-ssl/library\ssl_ticket.c ****         return( MBEDTLS_ERR_SSL_BAD_INPUT_DATA );
 669              		.loc 1 504 7 is_stmt 0
 670 002c E3F0D7FE 		bleu	a3,a5,.L42
 671              	.LBB28:
 672              	.LBB29:
 108:C:/Users/stapi/OneDrive/Desktop/GD32VW553/V1_MQTT_OK/GD32VW55X_Wifi_BLE_SDK/GD32VW55x_RELEASE_V1.0.2/MSDK/mbedtls/mbedtls-2.17.0-ssl/library\ssl_ticket.c ****     {
 673              		.loc 1 108 7
 674 0030 83274509 		lw	a5,148(a0)
 675 0034 2E8A     		mv	s4,a1
 676 0036 B284     		mv	s1,a2
 677              	.LBE29:
 678              	.LBE28:
 512:C:/Users/stapi/OneDrive/Desktop/GD32VW553/V1_MQTT_OK/GD32VW55X_Wifi_BLE_SDK/GD32VW55x_RELEASE_V1.0.2/MSDK/mbedtls/mbedtls-2.17.0-ssl/library\ssl_ticket.c ****         goto cleanup;
 679              		.loc 1 512 5 is_stmt 1
 680              	.LVL77:
 681              	.LBB32:
 682              	.LBB30:
 108:C:/Users/stapi/OneDrive/Desktop/GD32VW553/V1_MQTT_OK/GD32VW55X_Wifi_BLE_SDK/GD32VW55x_RELEASE_V1.0.2/MSDK/mbedtls/mbedtls-2.17.0-ssl/library\ssl_ticket.c ****     {
 683              		.loc 1 108 5
 108:C:/Users/stapi/OneDrive/Desktop/GD32VW553/V1_MQTT_OK/GD32VW55X_Wifi_BLE_SDK/GD32VW55x_RELEASE_V1.0.2/MSDK/mbedtls/mbedtls-2.17.0-ssl/library\ssl_ticket.c ****     {
 684              		.loc 1 108 7 is_stmt 0
 685 0038 C9EF     		bne	a5,zero,.L43
 686              	.LVL78:
 687              	.L45:
 688              	.LBE30:
 689              	.LBE32:
 515:C:/Users/stapi/OneDrive/Desktop/GD32VW553/V1_MQTT_OK/GD32VW55X_Wifi_BLE_SDK/GD32VW55x_RELEASE_V1.0.2/MSDK/mbedtls/mbedtls-2.17.0-ssl/library\ssl_ticket.c ****     tag = ticket + enc_len;
 690              		.loc 1 515 13
 691 003a 03C81401 		lbu	a6,17(s1)
 692 003e 83C90401 		lbu	s3,16(s1)
 497:C:/Users/stapi/OneDrive/Desktop/GD32VW553/V1_MQTT_OK/GD32VW55X_Wifi_BLE_SDK/GD32VW55x_RELEASE_V1.0.2/MSDK/mbedtls/mbedtls-2.17.0-ssl/library\ssl_ticket.c ****     unsigned char *tag;
 693              		.loc 1 497 20
 694 0042 938A2401 		addi	s5,s1,18
 515:C:/Users/stapi/OneDrive/Desktop/GD32VW553/V1_MQTT_OK/GD32VW55X_Wifi_BLE_SDK/GD32VW55x_RELEASE_V1.0.2/MSDK/mbedtls/mbedtls-2.17.0-ssl/library\ssl_ticket.c ****     tag = ticket + enc_len;
 695              		.loc 1 515 5 is_stmt 1
 515:C:/Users/stapi/OneDrive/Desktop/GD32VW553/V1_MQTT_OK/GD32VW55X_Wifi_BLE_SDK/GD32VW55x_RELEASE_V1.0.2/MSDK/mbedtls/mbedtls-2.17.0-ssl/library\ssl_ticket.c ****     tag = ticket + enc_len;
 696              		.loc 1 515 13 is_stmt 0
 697 0046 2208     		slli	a6,a6,8
 698 0048 33683801 		or	a6,a6,s3
 699 004c 93198800 		slli	s3,a6,8
 700 0050 13588800 		srli	a6,a6,8
 701 0054 B3E90901 		or	s3,s3,a6
 702 0058 B3C90908 		zext.h	s3,s3
 703              	.LVL79:
 516:C:/Users/stapi/OneDrive/Desktop/GD32VW553/V1_MQTT_OK/GD32VW55X_Wifi_BLE_SDK/GD32VW55x_RELEASE_V1.0.2/MSDK/mbedtls/mbedtls-2.17.0-ssl/library\ssl_ticket.c **** 
 704              		.loc 1 516 5 is_stmt 1
 518:C:/Users/stapi/OneDrive/Desktop/GD32VW553/V1_MQTT_OK/GD32VW55X_Wifi_BLE_SDK/GD32VW55x_RELEASE_V1.0.2/MSDK/mbedtls/mbedtls-2.17.0-ssl/library\ssl_ticket.c ****     {
 705              		.loc 1 518 31 is_stmt 0
 706 005c 93872902 		addi	a5,s3,34
 516:C:/Users/stapi/OneDrive/Desktop/GD32VW553/V1_MQTT_OK/GD32VW55X_Wifi_BLE_SDK/GD32VW55x_RELEASE_V1.0.2/MSDK/mbedtls/mbedtls-2.17.0-ssl/library\ssl_ticket.c **** 
 707              		.loc 1 516 9
 708 0060 338B3A01 		add	s6,s5,s3
 709              	.LVL80:
 518:C:/Users/stapi/OneDrive/Desktop/GD32VW553/V1_MQTT_OK/GD32VW55X_Wifi_BLE_SDK/GD32VW55x_RELEASE_V1.0.2/MSDK/mbedtls/mbedtls-2.17.0-ssl/library\ssl_ticket.c ****     {
 710              		.loc 1 518 5 is_stmt 1
 518:C:/Users/stapi/OneDrive/Desktop/GD32VW553/V1_MQTT_OK/GD32VW55X_Wifi_BLE_SDK/GD32VW55x_RELEASE_V1.0.2/MSDK/mbedtls/mbedtls-2.17.0-ssl/library\ssl_ticket.c ****     {
 711              		.loc 1 518 7 is_stmt 0
 712 0064 E39477FB 		bne	a5,s7,.L42
 713              	.LVL81:
 714              	.LBB33:
 715              	.LBB34:
 476:C:/Users/stapi/OneDrive/Desktop/GD32VW553/V1_MQTT_OK/GD32VW55X_Wifi_BLE_SDK/GD32VW55x_RELEASE_V1.0.2/MSDK/mbedtls/mbedtls-2.17.0-ssl/library\ssl_ticket.c ****         if( memcmp( name, ctx->keys[i].name, 4 ) == 0 )
 716              		.loc 1 476 17 is_stmt 1
 477:C:/Users/stapi/OneDrive/Desktop/GD32VW553/V1_MQTT_OK/GD32VW55X_Wifi_BLE_SDK/GD32VW55x_RELEASE_V1.0.2/MSDK/mbedtls/mbedtls-2.17.0-ssl/library\ssl_ticket.c ****             return( &ctx->keys[i] );
 717              		.loc 1 477 9
 477:C:/Users/stapi/OneDrive/Desktop/GD32VW553/V1_MQTT_OK/GD32VW55X_Wifi_BLE_SDK/GD32VW55x_RELEASE_V1.0.2/MSDK/mbedtls/mbedtls-2.17.0-ssl/library\ssl_ticket.c ****             return( &ctx->keys[i] );
 718              		.loc 1 477 13 is_stmt 0
 719 0068 1146     		li	a2,4
 720 006a CA85     		mv	a1,s2
 721 006c 2685     		mv	a0,s1
 722 006e 97000000 		call	memcmp
 722      E7800000 
 723              	.LVL82:
 477:C:/Users/stapi/OneDrive/Desktop/GD32VW553/V1_MQTT_OK/GD32VW55X_Wifi_BLE_SDK/GD32VW55x_RELEASE_V1.0.2/MSDK/mbedtls/mbedtls-2.17.0-ssl/library\ssl_ticket.c ****             return( &ctx->keys[i] );
 724              		.loc 1 477 11
 725 0076 19C9     		beq	a0,zero,.L46
 476:C:/Users/stapi/OneDrive/Desktop/GD32VW553/V1_MQTT_OK/GD32VW55X_Wifi_BLE_SDK/GD32VW55x_RELEASE_V1.0.2/MSDK/mbedtls/mbedtls-2.17.0-ssl/library\ssl_ticket.c ****         if( memcmp( name, ctx->keys[i].name, 4 ) == 0 )
 726              		.loc 1 476 65 is_stmt 1
 727              	.LVL83:
 476:C:/Users/stapi/OneDrive/Desktop/GD32VW553/V1_MQTT_OK/GD32VW55X_Wifi_BLE_SDK/GD32VW55x_RELEASE_V1.0.2/MSDK/mbedtls/mbedtls-2.17.0-ssl/library\ssl_ticket.c ****         if( memcmp( name, ctx->keys[i].name, 4 ) == 0 )
 728              		.loc 1 476 17
 477:C:/Users/stapi/OneDrive/Desktop/GD32VW553/V1_MQTT_OK/GD32VW55X_Wifi_BLE_SDK/GD32VW55x_RELEASE_V1.0.2/MSDK/mbedtls/mbedtls-2.17.0-ssl/library\ssl_ticket.c ****             return( &ctx->keys[i] );
 729              		.loc 1 477 9
 477:C:/Users/stapi/OneDrive/Desktop/GD32VW553/V1_MQTT_OK/GD32VW55X_Wifi_BLE_SDK/GD32VW55x_RELEASE_V1.0.2/MSDK/mbedtls/mbedtls-2.17.0-ssl/library\ssl_ticket.c ****             return( &ctx->keys[i] );
 730              		.loc 1 477 13 is_stmt 0
 731 0078 1146     		li	a2,4
 732 007a 93058904 		addi	a1,s2,72
 733 007e 2685     		mv	a0,s1
 734 0080 97000000 		call	memcmp
 734      E7800000 
 735              	.LVL84:
 477:C:/Users/stapi/OneDrive/Desktop/GD32VW553/V1_MQTT_OK/GD32VW55X_Wifi_BLE_SDK/GD32VW55x_RELEASE_V1.0.2/MSDK/mbedtls/mbedtls-2.17.0-ssl/library\ssl_ticket.c ****             return( &ctx->keys[i] );
 736              		.loc 1 477 11
 737 0088 6DE1     		bne	a0,zero,.L47
 477:C:/Users/stapi/OneDrive/Desktop/GD32VW553/V1_MQTT_OK/GD32VW55X_Wifi_BLE_SDK/GD32VW55x_RELEASE_V1.0.2/MSDK/mbedtls/mbedtls-2.17.0-ssl/library\ssl_ticket.c ****             return( &ctx->keys[i] );
 738              		.loc 1 477 39
 739 008a 0545     		li	a0,1
 740              	.LVL85:
 741              	.L46:
 478:C:/Users/stapi/OneDrive/Desktop/GD32VW553/V1_MQTT_OK/GD32VW55X_Wifi_BLE_SDK/GD32VW55x_RELEASE_V1.0.2/MSDK/mbedtls/mbedtls-2.17.0-ssl/library\ssl_ticket.c **** 
 742              		.loc 1 478 13 is_stmt 1
 743              	.LBE34:
 744              	.LBE33:
 534:C:/Users/stapi/OneDrive/Desktop/GD32VW553/V1_MQTT_OK/GD32VW55X_Wifi_BLE_SDK/GD32VW55x_RELEASE_V1.0.2/MSDK/mbedtls/mbedtls-2.17.0-ssl/library\ssl_ticket.c ****                     iv, TICKET_IV_BYTES,
 745              		.loc 1 534 5
 534:C:/Users/stapi/OneDrive/Desktop/GD32VW553/V1_MQTT_OK/GD32VW55X_Wifi_BLE_SDK/GD32VW55x_RELEASE_V1.0.2/MSDK/mbedtls/mbedtls-2.17.0-ssl/library\ssl_ticket.c ****                     iv, TICKET_IV_BYTES,
 746              		.loc 1 534 17 is_stmt 0
 747 008c 93078004 		li	a5,72
 748 0090 4A83     		mv	t1,s2
 749 0092 7F13F5C4 		maddr32	t1, a0, a5
 750              	.LVL86:
 751 0096 C147     		li	a5,16
 752 0098 3EC4     		sw	a5,8(sp)
 753 009a 7C08     		addi	a5,sp,28
 754 009c 3EC0     		sw	a5,0(sp)
 755 009e 5AC2     		sw	s6,4(sp)
 756 00a0 D688     		mv	a7,s5
 757 00a2 4E88     		mv	a6,s3
 758 00a4 D687     		mv	a5,s5
 759 00a6 4947     		li	a4,18
 760 00a8 A686     		mv	a3,s1
 761 00aa 3146     		li	a2,12
 762 00ac 93854400 		addi	a1,s1,4
 763 00b0 13058300 		addi	a0,t1,8
 764 00b4 97000000 		call	mbedtls_cipher_auth_decrypt
 764      E7800000 
 765              	.LVL87:
 766 00bc 2A84     		mv	s0,a0
 767              	.LVL88:
 534:C:/Users/stapi/OneDrive/Desktop/GD32VW553/V1_MQTT_OK/GD32VW55X_Wifi_BLE_SDK/GD32VW55x_RELEASE_V1.0.2/MSDK/mbedtls/mbedtls-2.17.0-ssl/library\ssl_ticket.c ****                     iv, TICKET_IV_BYTES,
 768              		.loc 1 534 7
 769 00be 0DC1     		beq	a0,zero,.L48
 542:C:/Users/stapi/OneDrive/Desktop/GD32VW553/V1_MQTT_OK/GD32VW55X_Wifi_BLE_SDK/GD32VW55x_RELEASE_V1.0.2/MSDK/mbedtls/mbedtls-2.17.0-ssl/library\ssl_ticket.c ****             ret = MBEDTLS_ERR_SSL_INVALID_MAC;
 770              		.loc 1 542 9 is_stmt 1
 542:C:/Users/stapi/OneDrive/Desktop/GD32VW553/V1_MQTT_OK/GD32VW55X_Wifi_BLE_SDK/GD32VW55x_RELEASE_V1.0.2/MSDK/mbedtls/mbedtls-2.17.0-ssl/library\ssl_ticket.c ****             ret = MBEDTLS_ERR_SSL_INVALID_MAC;
 771              		.loc 1 542 11 is_stmt 0
 772 00c0 E977     		li	a5,-24576
 773 00c2 938707D0 		addi	a5,a5,-768
 774 00c6 E316F5F4 		bne	a0,a5,.L39
 543:C:/Users/stapi/OneDrive/Desktop/GD32VW553/V1_MQTT_OK/GD32VW55X_Wifi_BLE_SDK/GD32VW55x_RELEASE_V1.0.2/MSDK/mbedtls/mbedtls-2.17.0-ssl/library\ssl_ticket.c **** 
 775              		.loc 1 543 17
 776 00ca 6574     		li	s0,-28672
 777              	.LVL89:
 778 00cc 130404E8 		addi	s0,s0,-384
 779 00d0 89B7     		j	.L39
 780              	.LVL90:
 781              	.L43:
 782              	.LBB35:
 783              	.LBB31:
 784 00d2 97000000 		call	ssl_ticket_update_keys.part.0
 784      E7800000 
 785              	.LVL91:
 786 00da 2A84     		mv	s0,a0
 787              	.LVL92:
 788              	.LBE31:
 789              	.LBE35:
 512:C:/Users/stapi/OneDrive/Desktop/GD32VW553/V1_MQTT_OK/GD32VW55X_Wifi_BLE_SDK/GD32VW55x_RELEASE_V1.0.2/MSDK/mbedtls/mbedtls-2.17.0-ssl/library\ssl_ticket.c ****         goto cleanup;
 790              		.loc 1 512 7
 791 00dc 1DF9     		bne	a0,zero,.L39
 792 00de B1BF     		j	.L45
 793              	.LVL93:
 794              	.L48:
 547:C:/Users/stapi/OneDrive/Desktop/GD32VW553/V1_MQTT_OK/GD32VW55X_Wifi_BLE_SDK/GD32VW55x_RELEASE_V1.0.2/MSDK/mbedtls/mbedtls-2.17.0-ssl/library\ssl_ticket.c ****     {
 795              		.loc 1 547 5 is_stmt 1
 547:C:/Users/stapi/OneDrive/Desktop/GD32VW553/V1_MQTT_OK/GD32VW55X_Wifi_BLE_SDK/GD32VW55x_RELEASE_V1.0.2/MSDK/mbedtls/mbedtls-2.17.0-ssl/library\ssl_ticket.c ****     {
 796              		.loc 1 547 7 is_stmt 0
 797 00e0 F247     		lw	a5,28(sp)
 798 00e2 63983709 		bne	a5,s3,.L50
 554:C:/Users/stapi/OneDrive/Desktop/GD32VW553/V1_MQTT_OK/GD32VW55X_Wifi_BLE_SDK/GD32VW55x_RELEASE_V1.0.2/MSDK/mbedtls/mbedtls-2.17.0-ssl/library\ssl_ticket.c ****         goto cleanup;
 799              		.loc 1 554 5 is_stmt 1
 800              	.LVL94:
 801              	.LBB36:
 802              	.LBB37:
 276:C:/Users/stapi/OneDrive/Desktop/GD32VW553/V1_MQTT_OK/GD32VW55X_Wifi_BLE_SDK/GD32VW55x_RELEASE_V1.0.2/MSDK/mbedtls/mbedtls-2.17.0-ssl/library\ssl_ticket.c ****     const unsigned char * const end = buf + len;
 803              		.loc 1 276 5
 277:C:/Users/stapi/OneDrive/Desktop/GD32VW553/V1_MQTT_OK/GD32VW55X_Wifi_BLE_SDK/GD32VW55x_RELEASE_V1.0.2/MSDK/mbedtls/mbedtls-2.17.0-ssl/library\ssl_ticket.c **** #if defined(MBEDTLS_X509_CRT_PARSE_C)
 804              		.loc 1 277 5
 282:C:/Users/stapi/OneDrive/Desktop/GD32VW553/V1_MQTT_OK/GD32VW55X_Wifi_BLE_SDK/GD32VW55x_RELEASE_V1.0.2/MSDK/mbedtls/mbedtls-2.17.0-ssl/library\ssl_ticket.c **** #endif /* MBEDTLS_SSL_KEEP_PEER_CERTIFICATE */
 805              		.loc 1 282 5
 286:C:/Users/stapi/OneDrive/Desktop/GD32VW553/V1_MQTT_OK/GD32VW55X_Wifi_BLE_SDK/GD32VW55x_RELEASE_V1.0.2/MSDK/mbedtls/mbedtls-2.17.0-ssl/library\ssl_ticket.c ****         return( MBEDTLS_ERR_SSL_BAD_INPUT_DATA );
 806              		.loc 1 286 5
 286:C:/Users/stapi/OneDrive/Desktop/GD32VW553/V1_MQTT_OK/GD32VW55X_Wifi_BLE_SDK/GD32VW55x_RELEASE_V1.0.2/MSDK/mbedtls/mbedtls-2.17.0-ssl/library\ssl_ticket.c ****         return( MBEDTLS_ERR_SSL_BAD_INPUT_DATA );
 807              		.loc 1 286 7 is_stmt 0
 808 00e6 93077008 		li	a5,135
 809 00ea E3F137F3 		bleu	s3,a5,.L42
 289:C:/Users/stapi/OneDrive/Desktop/GD32VW553/V1_MQTT_OK/GD32VW55X_Wifi_BLE_SDK/GD32VW55x_RELEASE_V1.0.2/MSDK/mbedtls/mbedtls-2.17.0-ssl/library\ssl_ticket.c ****     p += sizeof( mbedtls_ssl_session );
 810              		.loc 1 289 5 is_stmt 1
 811 00ee 13068008 		li	a2,136
 812 00f2 D685     		mv	a1,s5
 813 00f4 5285     		mv	a0,s4
 814 00f6 97000000 		call	memcpy
 814      E7800000 
 815              	.LVL95:
 290:C:/Users/stapi/OneDrive/Desktop/GD32VW553/V1_MQTT_OK/GD32VW55X_Wifi_BLE_SDK/GD32VW55x_RELEASE_V1.0.2/MSDK/mbedtls/mbedtls-2.17.0-ssl/library\ssl_ticket.c **** 
 816              		.loc 1 290 5
 298:C:/Users/stapi/OneDrive/Desktop/GD32VW553/V1_MQTT_OK/GD32VW55X_Wifi_BLE_SDK/GD32VW55x_RELEASE_V1.0.2/MSDK/mbedtls/mbedtls-2.17.0-ssl/library\ssl_ticket.c **** #endif /* !MBEDTLS_SSL_KEEP_PEER_CERTIFICATE */
 817              		.loc 1 298 5
 290:C:/Users/stapi/OneDrive/Desktop/GD32VW553/V1_MQTT_OK/GD32VW55X_Wifi_BLE_SDK/GD32VW55x_RELEASE_V1.0.2/MSDK/mbedtls/mbedtls-2.17.0-ssl/library\ssl_ticket.c **** 
 818              		.loc 1 290 7 is_stmt 0
 819 00fe 9387A409 		addi	a5,s1,154
 820              	.LVL96:
 298:C:/Users/stapi/OneDrive/Desktop/GD32VW553/V1_MQTT_OK/GD32VW55X_Wifi_BLE_SDK/GD32VW55x_RELEASE_V1.0.2/MSDK/mbedtls/mbedtls-2.17.0-ssl/library\ssl_ticket.c **** #endif /* !MBEDTLS_SSL_KEEP_PEER_CERTIFICATE */
 821              		.loc 1 298 31
 822 0102 23200A06 		sw	zero,96(s4)
 302:C:/Users/stapi/OneDrive/Desktop/GD32VW553/V1_MQTT_OK/GD32VW55X_Wifi_BLE_SDK/GD32VW55x_RELEASE_V1.0.2/MSDK/mbedtls/mbedtls-2.17.0-ssl/library\ssl_ticket.c **** #endif /* MBEDTLS_SSL_SESSION_TICKETS && MBEDTLS_SSL_CLI_C */
 823              		.loc 1 302 5 is_stmt 1
 302:C:/Users/stapi/OneDrive/Desktop/GD32VW553/V1_MQTT_OK/GD32VW55X_Wifi_BLE_SDK/GD32VW55x_RELEASE_V1.0.2/MSDK/mbedtls/mbedtls-2.17.0-ssl/library\ssl_ticket.c **** #endif /* MBEDTLS_SSL_SESSION_TICKETS && MBEDTLS_SSL_CLI_C */
 824              		.loc 1 302 21 is_stmt 0
 825 0106 23280A06 		sw	zero,112(s4)
 341:C:/Users/stapi/OneDrive/Desktop/GD32VW553/V1_MQTT_OK/GD32VW55X_Wifi_BLE_SDK/GD32VW55x_RELEASE_V1.0.2/MSDK/mbedtls/mbedtls-2.17.0-ssl/library\ssl_ticket.c ****         return( MBEDTLS_ERR_SSL_BAD_INPUT_DATA );
 826              		.loc 1 341 5 is_stmt 1
 341:C:/Users/stapi/OneDrive/Desktop/GD32VW553/V1_MQTT_OK/GD32VW55X_Wifi_BLE_SDK/GD32VW55x_RELEASE_V1.0.2/MSDK/mbedtls/mbedtls-2.17.0-ssl/library\ssl_ticket.c ****         return( MBEDTLS_ERR_SSL_BAD_INPUT_DATA );
 827              		.loc 1 341 7 is_stmt 0
 828 010a E301FBF0 		beq	s6,a5,.L42
 344:C:/Users/stapi/OneDrive/Desktop/GD32VW553/V1_MQTT_OK/GD32VW55X_Wifi_BLE_SDK/GD32VW55x_RELEASE_V1.0.2/MSDK/mbedtls/mbedtls-2.17.0-ssl/library\ssl_ticket.c ****     p++;
 829              		.loc 1 344 5 is_stmt 1
 344:C:/Users/stapi/OneDrive/Desktop/GD32VW553/V1_MQTT_OK/GD32VW55X_Wifi_BLE_SDK/GD32VW55x_RELEASE_V1.0.2/MSDK/mbedtls/mbedtls-2.17.0-ssl/library\ssl_ticket.c ****     p++;
 830              		.loc 1 344 21 is_stmt 0
 831 010e 83C9A409 		lbu	s3,154(s1)
 832              	.LVL97:
 345:C:/Users/stapi/OneDrive/Desktop/GD32VW553/V1_MQTT_OK/GD32VW55X_Wifi_BLE_SDK/GD32VW55x_RELEASE_V1.0.2/MSDK/mbedtls/mbedtls-2.17.0-ssl/library\ssl_ticket.c **** 
 833              		.loc 1 345 5 is_stmt 1
 345:C:/Users/stapi/OneDrive/Desktop/GD32VW553/V1_MQTT_OK/GD32VW55X_Wifi_BLE_SDK/GD32VW55x_RELEASE_V1.0.2/MSDK/mbedtls/mbedtls-2.17.0-ssl/library\ssl_ticket.c **** 
 834              		.loc 1 345 6 is_stmt 0
 835 0112 9384B409 		addi	s1,s1,155
 836              	.LVL98:
 347:C:/Users/stapi/OneDrive/Desktop/GD32VW553/V1_MQTT_OK/GD32VW55X_Wifi_BLE_SDK/GD32VW55x_RELEASE_V1.0.2/MSDK/mbedtls/mbedtls-2.17.0-ssl/library\ssl_ticket.c ****     {
 837              		.loc 1 347 5 is_stmt 1
 347:C:/Users/stapi/OneDrive/Desktop/GD32VW553/V1_MQTT_OK/GD32VW55X_Wifi_BLE_SDK/GD32VW55x_RELEASE_V1.0.2/MSDK/mbedtls/mbedtls-2.17.0-ssl/library\ssl_ticket.c ****     {
 838              		.loc 1 347 7 is_stmt 0
 839 0116 638A0902 		beq	s3,zero,.L49
 349:C:/Users/stapi/OneDrive/Desktop/GD32VW553/V1_MQTT_OK/GD32VW55X_Wifi_BLE_SDK/GD32VW55x_RELEASE_V1.0.2/MSDK/mbedtls/mbedtls-2.17.0-ssl/library\ssl_ticket.c ****             cert_digest_len != session->peer_cert_digest_len )
 840              		.loc 1 349 9 is_stmt 1
 349:C:/Users/stapi/OneDrive/Desktop/GD32VW553/V1_MQTT_OK/GD32VW55X_Wifi_BLE_SDK/GD32VW55x_RELEASE_V1.0.2/MSDK/mbedtls/mbedtls-2.17.0-ssl/library\ssl_ticket.c ****             cert_digest_len != session->peer_cert_digest_len )
 841              		.loc 1 349 45 is_stmt 0
 842 011a B3079B40 		sub	a5,s6,s1
 349:C:/Users/stapi/OneDrive/Desktop/GD32VW553/V1_MQTT_OK/GD32VW55X_Wifi_BLE_SDK/GD32VW55x_RELEASE_V1.0.2/MSDK/mbedtls/mbedtls-2.17.0-ssl/library\ssl_ticket.c ****             cert_digest_len != session->peer_cert_digest_len )
 843              		.loc 1 349 11
 844 011e E3E737EF 		bgtu	s3,a5,.L42
 349:C:/Users/stapi/OneDrive/Desktop/GD32VW553/V1_MQTT_OK/GD32VW55X_Wifi_BLE_SDK/GD32VW55x_RELEASE_V1.0.2/MSDK/mbedtls/mbedtls-2.17.0-ssl/library\ssl_ticket.c ****             cert_digest_len != session->peer_cert_digest_len )
 845              		.loc 1 349 51
 846 0122 83274A06 		lw	a5,100(s4)
 847 0126 E393F9EE 		bne	s3,a5,.L42
 355:C:/Users/stapi/OneDrive/Desktop/GD32VW553/V1_MQTT_OK/GD32VW55X_Wifi_BLE_SDK/GD32VW55x_RELEASE_V1.0.2/MSDK/mbedtls/mbedtls-2.17.0-ssl/library\ssl_ticket.c ****         if( session->peer_cert_digest == NULL )
 848              		.loc 1 355 9 is_stmt 1
 355:C:/Users/stapi/OneDrive/Desktop/GD32VW553/V1_MQTT_OK/GD32VW55X_Wifi_BLE_SDK/GD32VW55x_RELEASE_V1.0.2/MSDK/mbedtls/mbedtls-2.17.0-ssl/library\ssl_ticket.c ****         if( session->peer_cert_digest == NULL )
 849              		.loc 1 355 37 is_stmt 0
 850 012a CE85     		mv	a1,s3
 851 012c 0545     		li	a0,1
 852 012e 97000000 		call	mbedtls_calloc
 852      E7800000 
 853              	.LVL99:
 355:C:/Users/stapi/OneDrive/Desktop/GD32VW553/V1_MQTT_OK/GD32VW55X_Wifi_BLE_SDK/GD32VW55x_RELEASE_V1.0.2/MSDK/mbedtls/mbedtls-2.17.0-ssl/library\ssl_ticket.c ****         if( session->peer_cert_digest == NULL )
 854              		.loc 1 355 35
 855 0136 2320AA06 		sw	a0,96(s4)
 356:C:/Users/stapi/OneDrive/Desktop/GD32VW553/V1_MQTT_OK/GD32VW55X_Wifi_BLE_SDK/GD32VW55x_RELEASE_V1.0.2/MSDK/mbedtls/mbedtls-2.17.0-ssl/library\ssl_ticket.c ****             return( MBEDTLS_ERR_SSL_ALLOC_FAILED );
 856              		.loc 1 356 9 is_stmt 1
 356:C:/Users/stapi/OneDrive/Desktop/GD32VW553/V1_MQTT_OK/GD32VW55X_Wifi_BLE_SDK/GD32VW55x_RELEASE_V1.0.2/MSDK/mbedtls/mbedtls-2.17.0-ssl/library\ssl_ticket.c ****             return( MBEDTLS_ERR_SSL_ALLOC_FAILED );
 857              		.loc 1 356 11 is_stmt 0
 858 013a 21C1     		beq	a0,zero,.L51
 359:C:/Users/stapi/OneDrive/Desktop/GD32VW553/V1_MQTT_OK/GD32VW55X_Wifi_BLE_SDK/GD32VW55x_RELEASE_V1.0.2/MSDK/mbedtls/mbedtls-2.17.0-ssl/library\ssl_ticket.c ****         p += cert_digest_len;
 859              		.loc 1 359 9 is_stmt 1
 860 013c A685     		mv	a1,s1
 861 013e 4E86     		mv	a2,s3
 862 0140 97000000 		call	memcpy
 862      E7800000 
 863              	.LVL100:
 360:C:/Users/stapi/OneDrive/Desktop/GD32VW553/V1_MQTT_OK/GD32VW55X_Wifi_BLE_SDK/GD32VW55x_RELEASE_V1.0.2/MSDK/mbedtls/mbedtls-2.17.0-ssl/library\ssl_ticket.c ****     }
 864              		.loc 1 360 9
 360:C:/Users/stapi/OneDrive/Desktop/GD32VW553/V1_MQTT_OK/GD32VW55X_Wifi_BLE_SDK/GD32VW55x_RELEASE_V1.0.2/MSDK/mbedtls/mbedtls-2.17.0-ssl/library\ssl_ticket.c ****     }
 865              		.loc 1 360 11 is_stmt 0
 866 0148 CE94     		add	s1,s1,s3
 867              	.LVL101:
 868              	.L49:
 365:C:/Users/stapi/OneDrive/Desktop/GD32VW553/V1_MQTT_OK/GD32VW55X_Wifi_BLE_SDK/GD32VW55x_RELEASE_V1.0.2/MSDK/mbedtls/mbedtls-2.17.0-ssl/library\ssl_ticket.c ****         return( MBEDTLS_ERR_SSL_BAD_INPUT_DATA );
 869              		.loc 1 365 5 is_stmt 1
 365:C:/Users/stapi/OneDrive/Desktop/GD32VW553/V1_MQTT_OK/GD32VW55X_Wifi_BLE_SDK/GD32VW55x_RELEASE_V1.0.2/MSDK/mbedtls/mbedtls-2.17.0-ssl/library\ssl_ticket.c ****         return( MBEDTLS_ERR_SSL_BAD_INPUT_DATA );
 870              		.loc 1 365 7 is_stmt 0
 871 014a E3119BEC 		bne	s6,s1,.L42
 872              	.LVL102:
 873              	.LBE37:
 874              	.LBE36:
 875              	.LBB39:
 560:C:/Users/stapi/OneDrive/Desktop/GD32VW553/V1_MQTT_OK/GD32VW55X_Wifi_BLE_SDK/GD32VW55x_RELEASE_V1.0.2/MSDK/mbedtls/mbedtls-2.17.0-ssl/library\ssl_ticket.c **** 
 876              		.loc 1 560 9 is_stmt 1
 560:C:/Users/stapi/OneDrive/Desktop/GD32VW553/V1_MQTT_OK/GD32VW55X_Wifi_BLE_SDK/GD32VW55x_RELEASE_V1.0.2/MSDK/mbedtls/mbedtls-2.17.0-ssl/library\ssl_ticket.c **** 
 877              		.loc 1 560 39 is_stmt 0
 878 014e 0145     		li	a0,0
 879 0150 97000000 		call	mbedtls_time
 879      E7800000 
 880              	.LVL103:
 562:C:/Users/stapi/OneDrive/Desktop/GD32VW553/V1_MQTT_OK/GD32VW55X_Wifi_BLE_SDK/GD32VW55x_RELEASE_V1.0.2/MSDK/mbedtls/mbedtls-2.17.0-ssl/library\ssl_ticket.c ****             (uint32_t)( current_time - session->start ) > ctx->ticket_lifetime )
 881              		.loc 1 562 9 is_stmt 1
 562:C:/Users/stapi/OneDrive/Desktop/GD32VW553/V1_MQTT_OK/GD32VW55X_Wifi_BLE_SDK/GD32VW55x_RELEASE_V1.0.2/MSDK/mbedtls/mbedtls-2.17.0-ssl/library\ssl_ticket.c ****             (uint32_t)( current_time - session->start ) > ctx->ticket_lifetime )
 882              		.loc 1 562 35 is_stmt 0
 883 0158 83270A00 		lw	a5,0(s4)
 562:C:/Users/stapi/OneDrive/Desktop/GD32VW553/V1_MQTT_OK/GD32VW55X_Wifi_BLE_SDK/GD32VW55x_RELEASE_V1.0.2/MSDK/mbedtls/mbedtls-2.17.0-ssl/library\ssl_ticket.c ****             (uint32_t)( current_time - session->start ) > ctx->ticket_lifetime )
 884              		.loc 1 562 11
 885 015c 6367F500 		bgtu	a5,a0,.L47
 563:C:/Users/stapi/OneDrive/Desktop/GD32VW553/V1_MQTT_OK/GD32VW55X_Wifi_BLE_SDK/GD32VW55x_RELEASE_V1.0.2/MSDK/mbedtls/mbedtls-2.17.0-ssl/library\ssl_ticket.c ****         {
 886              		.loc 1 563 38 discriminator 1
 887 0160 1D8D     		sub	a0,a0,a5
 888              	.LVL104:
 562:C:/Users/stapi/OneDrive/Desktop/GD32VW553/V1_MQTT_OK/GD32VW55X_Wifi_BLE_SDK/GD32VW55x_RELEASE_V1.0.2/MSDK/mbedtls/mbedtls-2.17.0-ssl/library\ssl_ticket.c ****             (uint32_t)( current_time - session->start ) > ctx->ticket_lifetime )
 889              		.loc 1 562 43 discriminator 1
 890 0162 83274909 		lw	a5,148(s2)
 891 0166 E3F6A7EA 		bleu	a0,a5,.L39
 892              	.LVL105:
 893              	.L47:
 565:C:/Users/stapi/OneDrive/Desktop/GD32VW553/V1_MQTT_OK/GD32VW55X_Wifi_BLE_SDK/GD32VW55x_RELEASE_V1.0.2/MSDK/mbedtls/mbedtls-2.17.0-ssl/library\ssl_ticket.c ****             goto cleanup;
 894              		.loc 1 565 13 is_stmt 1
 566:C:/Users/stapi/OneDrive/Desktop/GD32VW553/V1_MQTT_OK/GD32VW55X_Wifi_BLE_SDK/GD32VW55x_RELEASE_V1.0.2/MSDK/mbedtls/mbedtls-2.17.0-ssl/library\ssl_ticket.c ****         }
 895              		.loc 1 566 13
 565:C:/Users/stapi/OneDrive/Desktop/GD32VW553/V1_MQTT_OK/GD32VW55X_Wifi_BLE_SDK/GD32VW55x_RELEASE_V1.0.2/MSDK/mbedtls/mbedtls-2.17.0-ssl/library\ssl_ticket.c ****             goto cleanup;
 896              		.loc 1 565 17 is_stmt 0
 897 016a 6574     		li	s0,-28672
 898 016c 13040428 		addi	s0,s0,640
 566:C:/Users/stapi/OneDrive/Desktop/GD32VW553/V1_MQTT_OK/GD32VW55X_Wifi_BLE_SDK/GD32VW55x_RELEASE_V1.0.2/MSDK/mbedtls/mbedtls-2.17.0-ssl/library\ssl_ticket.c ****         }
 899              		.loc 1 566 13
 900 0170 4DB5     		j	.L39
 901              	.LVL106:
 902              	.L50:
 903              	.LBE39:
 549:C:/Users/stapi/OneDrive/Desktop/GD32VW553/V1_MQTT_OK/GD32VW55X_Wifi_BLE_SDK/GD32VW55x_RELEASE_V1.0.2/MSDK/mbedtls/mbedtls-2.17.0-ssl/library\ssl_ticket.c ****         goto cleanup;
 904              		.loc 1 549 13
 905 0172 6574     		li	s0,-28672
 906              	.LVL107:
 907 0174 13040440 		addi	s0,s0,1024
 908 0178 69BD     		j	.L39
 909              	.LVL108:
 910              	.L51:
 911              	.LBB40:
 912              	.LBB38:
 357:C:/Users/stapi/OneDrive/Desktop/GD32VW553/V1_MQTT_OK/GD32VW55X_Wifi_BLE_SDK/GD32VW55x_RELEASE_V1.0.2/MSDK/mbedtls/mbedtls-2.17.0-ssl/library\ssl_ticket.c **** 
 913              		.loc 1 357 19
 914 017a 6174     		li	s0,-32768
 915              	.LVL109:
 916 017c 13040410 		addi	s0,s0,256
 917              	.LVL110:
 918 0180 49BD     		j	.L39
 919              	.LBE38:
 920              	.LBE40:
 921              		.cfi_endproc
 922              	.LFE391:
 924              		.section	.text.mbedtls_ssl_ticket_free,"ax",@progbits
 925              		.align	1
 926              		.globl	mbedtls_ssl_ticket_free
 928              	mbedtls_ssl_ticket_free:
 929              	.LFB392:
 579:C:/Users/stapi/OneDrive/Desktop/GD32VW553/V1_MQTT_OK/GD32VW55X_Wifi_BLE_SDK/GD32VW55x_RELEASE_V1.0.2/MSDK/mbedtls/mbedtls-2.17.0-ssl/library\ssl_ticket.c **** 
 580:C:/Users/stapi/OneDrive/Desktop/GD32VW553/V1_MQTT_OK/GD32VW55X_Wifi_BLE_SDK/GD32VW55x_RELEASE_V1.0.2/MSDK/mbedtls/mbedtls-2.17.0-ssl/library\ssl_ticket.c **** /*
 581:C:/Users/stapi/OneDrive/Desktop/GD32VW553/V1_MQTT_OK/GD32VW55X_Wifi_BLE_SDK/GD32VW55x_RELEASE_V1.0.2/MSDK/mbedtls/mbedtls-2.17.0-ssl/library\ssl_ticket.c ****  * Free context
 582:C:/Users/stapi/OneDrive/Desktop/GD32VW553/V1_MQTT_OK/GD32VW55X_Wifi_BLE_SDK/GD32VW55x_RELEASE_V1.0.2/MSDK/mbedtls/mbedtls-2.17.0-ssl/library\ssl_ticket.c ****  */
 583:C:/Users/stapi/OneDrive/Desktop/GD32VW553/V1_MQTT_OK/GD32VW55X_Wifi_BLE_SDK/GD32VW55x_RELEASE_V1.0.2/MSDK/mbedtls/mbedtls-2.17.0-ssl/library\ssl_ticket.c **** void mbedtls_ssl_ticket_free( mbedtls_ssl_ticket_context *ctx )
 584:C:/Users/stapi/OneDrive/Desktop/GD32VW553/V1_MQTT_OK/GD32VW55X_Wifi_BLE_SDK/GD32VW55x_RELEASE_V1.0.2/MSDK/mbedtls/mbedtls-2.17.0-ssl/library\ssl_ticket.c **** {
 930              		.loc 1 584 1 is_stmt 1
 931              		.cfi_startproc
 932              	.LVL111:
 933 0000 17030000 		call	t0,__riscv_save_1
 933      E7020300 
 934              		.cfi_offset 8, -8
 935              		.cfi_offset 1, -4
 936              		.cfi_def_cfa_offset 16
 585:C:/Users/stapi/OneDrive/Desktop/GD32VW553/V1_MQTT_OK/GD32VW55X_Wifi_BLE_SDK/GD32VW55x_RELEASE_V1.0.2/MSDK/mbedtls/mbedtls-2.17.0-ssl/library\ssl_ticket.c ****     mbedtls_cipher_free( &ctx->keys[0].ctx );
 937              		.loc 1 585 5
 584:C:/Users/stapi/OneDrive/Desktop/GD32VW553/V1_MQTT_OK/GD32VW55X_Wifi_BLE_SDK/GD32VW55x_RELEASE_V1.0.2/MSDK/mbedtls/mbedtls-2.17.0-ssl/library\ssl_ticket.c ****     mbedtls_cipher_free( &ctx->keys[0].ctx );
 938              		.loc 1 584 1 is_stmt 0
 939 0008 2A84     		mv	s0,a0
 940              		.loc 1 585 5
