   1              		.file	"ssl_cache.c"
   2              		.option nopic
   3              		.attribute arch, "rv32i2p0_m2p0_a2p0_f2p0_c2p0_b_p0p94"
   4              		.attribute unaligned_access, 0
   5              		.attribute stack_align, 16
   6              		.text
   7              	.Ltext0:
   8              		.cfi_sections	.debug_frame
   9              		.section	.text.mbedtls_ssl_cache_init,"ax",@progbits
  10              		.align	1
  11              		.globl	mbedtls_ssl_cache_init
  13              	mbedtls_ssl_cache_init:
  14              	.LFB389:
  15              		.file 1 "C:/Users/stapi/OneDrive/Desktop/GD32VW553/GD32VW55X_Wifi_BLE_SDK/GD32VW55x_RELEASE_V1.0.2
   1:C:/Users/stapi/OneDrive/Desktop/GD32VW553/GD32VW55X_Wifi_BLE_SDK/GD32VW55x_RELEASE_V1.0.2/MSDK/mbedtls/mbedtls-2.17.0-ssl/library\ssl_cache.c **** /*
   2:C:/Users/stapi/OneDrive/Desktop/GD32VW553/GD32VW55X_Wifi_BLE_SDK/GD32VW55x_RELEASE_V1.0.2/MSDK/mbedtls/mbedtls-2.17.0-ssl/library\ssl_cache.c ****  *  SSL session cache implementation
   3:C:/Users/stapi/OneDrive/Desktop/GD32VW553/GD32VW55X_Wifi_BLE_SDK/GD32VW55x_RELEASE_V1.0.2/MSDK/mbedtls/mbedtls-2.17.0-ssl/library\ssl_cache.c ****  *
   4:C:/Users/stapi/OneDrive/Desktop/GD32VW553/GD32VW55X_Wifi_BLE_SDK/GD32VW55x_RELEASE_V1.0.2/MSDK/mbedtls/mbedtls-2.17.0-ssl/library\ssl_cache.c ****  *  Copyright (C) 2006-2015, ARM Limited, All Rights Reserved
   5:C:/Users/stapi/OneDrive/Desktop/GD32VW553/GD32VW55X_Wifi_BLE_SDK/GD32VW55x_RELEASE_V1.0.2/MSDK/mbedtls/mbedtls-2.17.0-ssl/library\ssl_cache.c ****  *  SPDX-License-Identifier: Apache-2.0
   6:C:/Users/stapi/OneDrive/Desktop/GD32VW553/GD32VW55X_Wifi_BLE_SDK/GD32VW55x_RELEASE_V1.0.2/MSDK/mbedtls/mbedtls-2.17.0-ssl/library\ssl_cache.c ****  *
   7:C:/Users/stapi/OneDrive/Desktop/GD32VW553/GD32VW55X_Wifi_BLE_SDK/GD32VW55x_RELEASE_V1.0.2/MSDK/mbedtls/mbedtls-2.17.0-ssl/library\ssl_cache.c ****  *  Licensed under the Apache License, Version 2.0 (the "License"); you may
   8:C:/Users/stapi/OneDrive/Desktop/GD32VW553/GD32VW55X_Wifi_BLE_SDK/GD32VW55x_RELEASE_V1.0.2/MSDK/mbedtls/mbedtls-2.17.0-ssl/library\ssl_cache.c ****  *  not use this file except in compliance with the License.
   9:C:/Users/stapi/OneDrive/Desktop/GD32VW553/GD32VW55X_Wifi_BLE_SDK/GD32VW55x_RELEASE_V1.0.2/MSDK/mbedtls/mbedtls-2.17.0-ssl/library\ssl_cache.c ****  *  You may obtain a copy of the License at
  10:C:/Users/stapi/OneDrive/Desktop/GD32VW553/GD32VW55X_Wifi_BLE_SDK/GD32VW55x_RELEASE_V1.0.2/MSDK/mbedtls/mbedtls-2.17.0-ssl/library\ssl_cache.c ****  *
  11:C:/Users/stapi/OneDrive/Desktop/GD32VW553/GD32VW55X_Wifi_BLE_SDK/GD32VW55x_RELEASE_V1.0.2/MSDK/mbedtls/mbedtls-2.17.0-ssl/library\ssl_cache.c ****  *  http://www.apache.org/licenses/LICENSE-2.0
  12:C:/Users/stapi/OneDrive/Desktop/GD32VW553/GD32VW55X_Wifi_BLE_SDK/GD32VW55x_RELEASE_V1.0.2/MSDK/mbedtls/mbedtls-2.17.0-ssl/library\ssl_cache.c ****  *
  13:C:/Users/stapi/OneDrive/Desktop/GD32VW553/GD32VW55X_Wifi_BLE_SDK/GD32VW55x_RELEASE_V1.0.2/MSDK/mbedtls/mbedtls-2.17.0-ssl/library\ssl_cache.c ****  *  Unless required by applicable law or agreed to in writing, software
  14:C:/Users/stapi/OneDrive/Desktop/GD32VW553/GD32VW55X_Wifi_BLE_SDK/GD32VW55x_RELEASE_V1.0.2/MSDK/mbedtls/mbedtls-2.17.0-ssl/library\ssl_cache.c ****  *  distributed under the License is distributed on an "AS IS" BASIS, WITHOUT
  15:C:/Users/stapi/OneDrive/Desktop/GD32VW553/GD32VW55X_Wifi_BLE_SDK/GD32VW55x_RELEASE_V1.0.2/MSDK/mbedtls/mbedtls-2.17.0-ssl/library\ssl_cache.c ****  *  WARRANTIES OR CONDITIONS OF ANY KIND, either express or implied.
  16:C:/Users/stapi/OneDrive/Desktop/GD32VW553/GD32VW55X_Wifi_BLE_SDK/GD32VW55x_RELEASE_V1.0.2/MSDK/mbedtls/mbedtls-2.17.0-ssl/library\ssl_cache.c ****  *  See the License for the specific language governing permissions and
  17:C:/Users/stapi/OneDrive/Desktop/GD32VW553/GD32VW55X_Wifi_BLE_SDK/GD32VW55x_RELEASE_V1.0.2/MSDK/mbedtls/mbedtls-2.17.0-ssl/library\ssl_cache.c ****  *  limitations under the License.
  18:C:/Users/stapi/OneDrive/Desktop/GD32VW553/GD32VW55X_Wifi_BLE_SDK/GD32VW55x_RELEASE_V1.0.2/MSDK/mbedtls/mbedtls-2.17.0-ssl/library\ssl_cache.c ****  *
  19:C:/Users/stapi/OneDrive/Desktop/GD32VW553/GD32VW55X_Wifi_BLE_SDK/GD32VW55x_RELEASE_V1.0.2/MSDK/mbedtls/mbedtls-2.17.0-ssl/library\ssl_cache.c ****  *  This file is part of mbed TLS (https://tls.mbed.org)
  20:C:/Users/stapi/OneDrive/Desktop/GD32VW553/GD32VW55X_Wifi_BLE_SDK/GD32VW55x_RELEASE_V1.0.2/MSDK/mbedtls/mbedtls-2.17.0-ssl/library\ssl_cache.c ****  */
  21:C:/Users/stapi/OneDrive/Desktop/GD32VW553/GD32VW55X_Wifi_BLE_SDK/GD32VW55x_RELEASE_V1.0.2/MSDK/mbedtls/mbedtls-2.17.0-ssl/library\ssl_cache.c **** /*
  22:C:/Users/stapi/OneDrive/Desktop/GD32VW553/GD32VW55X_Wifi_BLE_SDK/GD32VW55x_RELEASE_V1.0.2/MSDK/mbedtls/mbedtls-2.17.0-ssl/library\ssl_cache.c ****  * These session callbacks use a simple chained list
  23:C:/Users/stapi/OneDrive/Desktop/GD32VW553/GD32VW55X_Wifi_BLE_SDK/GD32VW55x_RELEASE_V1.0.2/MSDK/mbedtls/mbedtls-2.17.0-ssl/library\ssl_cache.c ****  * to store and retrieve the session information.
  24:C:/Users/stapi/OneDrive/Desktop/GD32VW553/GD32VW55X_Wifi_BLE_SDK/GD32VW55x_RELEASE_V1.0.2/MSDK/mbedtls/mbedtls-2.17.0-ssl/library\ssl_cache.c ****  */
  25:C:/Users/stapi/OneDrive/Desktop/GD32VW553/GD32VW55X_Wifi_BLE_SDK/GD32VW55x_RELEASE_V1.0.2/MSDK/mbedtls/mbedtls-2.17.0-ssl/library\ssl_cache.c **** 
  26:C:/Users/stapi/OneDrive/Desktop/GD32VW553/GD32VW55X_Wifi_BLE_SDK/GD32VW55x_RELEASE_V1.0.2/MSDK/mbedtls/mbedtls-2.17.0-ssl/library\ssl_cache.c **** #if !defined(MBEDTLS_CONFIG_FILE)
  27:C:/Users/stapi/OneDrive/Desktop/GD32VW553/GD32VW55X_Wifi_BLE_SDK/GD32VW55x_RELEASE_V1.0.2/MSDK/mbedtls/mbedtls-2.17.0-ssl/library\ssl_cache.c **** #include "mbedtls/config.h"
  28:C:/Users/stapi/OneDrive/Desktop/GD32VW553/GD32VW55X_Wifi_BLE_SDK/GD32VW55x_RELEASE_V1.0.2/MSDK/mbedtls/mbedtls-2.17.0-ssl/library\ssl_cache.c **** #else
  29:C:/Users/stapi/OneDrive/Desktop/GD32VW553/GD32VW55X_Wifi_BLE_SDK/GD32VW55x_RELEASE_V1.0.2/MSDK/mbedtls/mbedtls-2.17.0-ssl/library\ssl_cache.c **** #include MBEDTLS_CONFIG_FILE
  30:C:/Users/stapi/OneDrive/Desktop/GD32VW553/GD32VW55X_Wifi_BLE_SDK/GD32VW55x_RELEASE_V1.0.2/MSDK/mbedtls/mbedtls-2.17.0-ssl/library\ssl_cache.c **** #endif
  31:C:/Users/stapi/OneDrive/Desktop/GD32VW553/GD32VW55X_Wifi_BLE_SDK/GD32VW55x_RELEASE_V1.0.2/MSDK/mbedtls/mbedtls-2.17.0-ssl/library\ssl_cache.c **** 
  32:C:/Users/stapi/OneDrive/Desktop/GD32VW553/GD32VW55X_Wifi_BLE_SDK/GD32VW55x_RELEASE_V1.0.2/MSDK/mbedtls/mbedtls-2.17.0-ssl/library\ssl_cache.c **** #if defined(MBEDTLS_SSL_CACHE_C)
  33:C:/Users/stapi/OneDrive/Desktop/GD32VW553/GD32VW55X_Wifi_BLE_SDK/GD32VW55x_RELEASE_V1.0.2/MSDK/mbedtls/mbedtls-2.17.0-ssl/library\ssl_cache.c **** 
  34:C:/Users/stapi/OneDrive/Desktop/GD32VW553/GD32VW55X_Wifi_BLE_SDK/GD32VW55x_RELEASE_V1.0.2/MSDK/mbedtls/mbedtls-2.17.0-ssl/library\ssl_cache.c **** #if defined(MBEDTLS_PLATFORM_C)
  35:C:/Users/stapi/OneDrive/Desktop/GD32VW553/GD32VW55X_Wifi_BLE_SDK/GD32VW55x_RELEASE_V1.0.2/MSDK/mbedtls/mbedtls-2.17.0-ssl/library\ssl_cache.c **** #include "mbedtls/platform.h"
  36:C:/Users/stapi/OneDrive/Desktop/GD32VW553/GD32VW55X_Wifi_BLE_SDK/GD32VW55x_RELEASE_V1.0.2/MSDK/mbedtls/mbedtls-2.17.0-ssl/library\ssl_cache.c **** #else
  37:C:/Users/stapi/OneDrive/Desktop/GD32VW553/GD32VW55X_Wifi_BLE_SDK/GD32VW55x_RELEASE_V1.0.2/MSDK/mbedtls/mbedtls-2.17.0-ssl/library\ssl_cache.c **** #include <stdlib.h>
  38:C:/Users/stapi/OneDrive/Desktop/GD32VW553/GD32VW55X_Wifi_BLE_SDK/GD32VW55x_RELEASE_V1.0.2/MSDK/mbedtls/mbedtls-2.17.0-ssl/library\ssl_cache.c **** #define mbedtls_calloc    calloc
  39:C:/Users/stapi/OneDrive/Desktop/GD32VW553/GD32VW55X_Wifi_BLE_SDK/GD32VW55x_RELEASE_V1.0.2/MSDK/mbedtls/mbedtls-2.17.0-ssl/library\ssl_cache.c **** #define mbedtls_free      free
  40:C:/Users/stapi/OneDrive/Desktop/GD32VW553/GD32VW55X_Wifi_BLE_SDK/GD32VW55x_RELEASE_V1.0.2/MSDK/mbedtls/mbedtls-2.17.0-ssl/library\ssl_cache.c **** #endif
  41:C:/Users/stapi/OneDrive/Desktop/GD32VW553/GD32VW55X_Wifi_BLE_SDK/GD32VW55x_RELEASE_V1.0.2/MSDK/mbedtls/mbedtls-2.17.0-ssl/library\ssl_cache.c **** 
  42:C:/Users/stapi/OneDrive/Desktop/GD32VW553/GD32VW55X_Wifi_BLE_SDK/GD32VW55x_RELEASE_V1.0.2/MSDK/mbedtls/mbedtls-2.17.0-ssl/library\ssl_cache.c **** #include "mbedtls/ssl_cache.h"
  43:C:/Users/stapi/OneDrive/Desktop/GD32VW553/GD32VW55X_Wifi_BLE_SDK/GD32VW55x_RELEASE_V1.0.2/MSDK/mbedtls/mbedtls-2.17.0-ssl/library\ssl_cache.c **** #include "mbedtls/ssl_internal.h"
  44:C:/Users/stapi/OneDrive/Desktop/GD32VW553/GD32VW55X_Wifi_BLE_SDK/GD32VW55x_RELEASE_V1.0.2/MSDK/mbedtls/mbedtls-2.17.0-ssl/library\ssl_cache.c **** 
  45:C:/Users/stapi/OneDrive/Desktop/GD32VW553/GD32VW55X_Wifi_BLE_SDK/GD32VW55x_RELEASE_V1.0.2/MSDK/mbedtls/mbedtls-2.17.0-ssl/library\ssl_cache.c **** #include <string.h>
  46:C:/Users/stapi/OneDrive/Desktop/GD32VW553/GD32VW55X_Wifi_BLE_SDK/GD32VW55x_RELEASE_V1.0.2/MSDK/mbedtls/mbedtls-2.17.0-ssl/library\ssl_cache.c **** 
  47:C:/Users/stapi/OneDrive/Desktop/GD32VW553/GD32VW55X_Wifi_BLE_SDK/GD32VW55x_RELEASE_V1.0.2/MSDK/mbedtls/mbedtls-2.17.0-ssl/library\ssl_cache.c **** void mbedtls_ssl_cache_init( mbedtls_ssl_cache_context *cache )
  48:C:/Users/stapi/OneDrive/Desktop/GD32VW553/GD32VW55X_Wifi_BLE_SDK/GD32VW55x_RELEASE_V1.0.2/MSDK/mbedtls/mbedtls-2.17.0-ssl/library\ssl_cache.c **** {
  16              		.loc 1 48 1
  17              		.cfi_startproc
  18              	.LVL0:
  19 0000 17030000 		call	t0,__riscv_save_1
  19      E7020300 
  20              		.cfi_offset 8, -8
  21              		.cfi_offset 1, -4
  22              		.cfi_def_cfa_offset 16
  49:C:/Users/stapi/OneDrive/Desktop/GD32VW553/GD32VW55X_Wifi_BLE_SDK/GD32VW55x_RELEASE_V1.0.2/MSDK/mbedtls/mbedtls-2.17.0-ssl/library\ssl_cache.c ****     memset( cache, 0, sizeof( mbedtls_ssl_cache_context ) );
  23              		.loc 1 49 5
  24 0008 3146     		li	a2,12
  25 000a 8145     		li	a1,0
  48:C:/Users/stapi/OneDrive/Desktop/GD32VW553/GD32VW55X_Wifi_BLE_SDK/GD32VW55x_RELEASE_V1.0.2/MSDK/mbedtls/mbedtls-2.17.0-ssl/library\ssl_cache.c ****     memset( cache, 0, sizeof( mbedtls_ssl_cache_context ) );
  26              		.loc 1 48 1 is_stmt 0
  27 000c 2A84     		mv	s0,a0
  28              		.loc 1 49 5
  29 000e 97000000 		call	memset
  29      E7800000 
  30              	.LVL1:
  50:C:/Users/stapi/OneDrive/Desktop/GD32VW553/GD32VW55X_Wifi_BLE_SDK/GD32VW55x_RELEASE_V1.0.2/MSDK/mbedtls/mbedtls-2.17.0-ssl/library\ssl_cache.c **** 
  51:C:/Users/stapi/OneDrive/Desktop/GD32VW553/GD32VW55X_Wifi_BLE_SDK/GD32VW55x_RELEASE_V1.0.2/MSDK/mbedtls/mbedtls-2.17.0-ssl/library\ssl_cache.c ****     cache->timeout = MBEDTLS_SSL_CACHE_DEFAULT_TIMEOUT;
  31              		.loc 1 51 5 is_stmt 1
  32              		.loc 1 51 20 is_stmt 0
  33 0016 D567     		li	a5,86016
  34 0018 93870718 		addi	a5,a5,384
  35 001c 5CC0     		sw	a5,4(s0)
  52:C:/Users/stapi/OneDrive/Desktop/GD32VW553/GD32VW55X_Wifi_BLE_SDK/GD32VW55x_RELEASE_V1.0.2/MSDK/mbedtls/mbedtls-2.17.0-ssl/library\ssl_cache.c ****     cache->max_entries = MBEDTLS_SSL_CACHE_DEFAULT_MAX_ENTRIES;
  36              		.loc 1 52 5 is_stmt 1
  37              		.loc 1 52 24 is_stmt 0
  38 001e 93072003 		li	a5,50
  39 0022 1CC4     		sw	a5,8(s0)
  53:C:/Users/stapi/OneDrive/Desktop/GD32VW553/GD32VW55X_Wifi_BLE_SDK/GD32VW55x_RELEASE_V1.0.2/MSDK/mbedtls/mbedtls-2.17.0-ssl/library\ssl_cache.c **** 
  54:C:/Users/stapi/OneDrive/Desktop/GD32VW553/GD32VW55X_Wifi_BLE_SDK/GD32VW55x_RELEASE_V1.0.2/MSDK/mbedtls/mbedtls-2.17.0-ssl/library\ssl_cache.c **** #if defined(MBEDTLS_THREADING_C)
  55:C:/Users/stapi/OneDrive/Desktop/GD32VW553/GD32VW55X_Wifi_BLE_SDK/GD32VW55x_RELEASE_V1.0.2/MSDK/mbedtls/mbedtls-2.17.0-ssl/library\ssl_cache.c ****     mbedtls_mutex_init( &cache->mutex );
  56:C:/Users/stapi/OneDrive/Desktop/GD32VW553/GD32VW55X_Wifi_BLE_SDK/GD32VW55x_RELEASE_V1.0.2/MSDK/mbedtls/mbedtls-2.17.0-ssl/library\ssl_cache.c **** #endif
  57:C:/Users/stapi/OneDrive/Desktop/GD32VW553/GD32VW55X_Wifi_BLE_SDK/GD32VW55x_RELEASE_V1.0.2/MSDK/mbedtls/mbedtls-2.17.0-ssl/library\ssl_cache.c **** }
  40              		.loc 1 57 1
  41 0024 17030000 		tail	__riscv_restore_1
  41      67000300 
  42              		.cfi_restore 8
  43              		.cfi_restore 1
  44              		.cfi_def_cfa_offset 0
  45              		.cfi_endproc
  46              	.LFE389:
  48              		.section	.text.mbedtls_ssl_cache_get,"ax",@progbits
  49              		.align	1
  50              		.globl	mbedtls_ssl_cache_get
  52              	mbedtls_ssl_cache_get:
  53              	.LFB390:
  58:C:/Users/stapi/OneDrive/Desktop/GD32VW553/GD32VW55X_Wifi_BLE_SDK/GD32VW55x_RELEASE_V1.0.2/MSDK/mbedtls/mbedtls-2.17.0-ssl/library\ssl_cache.c **** 
  59:C:/Users/stapi/OneDrive/Desktop/GD32VW553/GD32VW55X_Wifi_BLE_SDK/GD32VW55x_RELEASE_V1.0.2/MSDK/mbedtls/mbedtls-2.17.0-ssl/library\ssl_cache.c **** int mbedtls_ssl_cache_get( void *data, mbedtls_ssl_session *session )
  60:C:/Users/stapi/OneDrive/Desktop/GD32VW553/GD32VW55X_Wifi_BLE_SDK/GD32VW55x_RELEASE_V1.0.2/MSDK/mbedtls/mbedtls-2.17.0-ssl/library\ssl_cache.c **** {
  54              		.loc 1 60 1 is_stmt 1
  55              		.cfi_startproc
  56              	.LVL2:
  57 0000 17030000 		call	t0,__riscv_save_6
  57      E7020300 
  58              		.cfi_offset 21, -28
  59              		.cfi_offset 20, -24
  60              		.cfi_offset 19, -20
  61              		.cfi_offset 18, -16
  62              		.cfi_offset 9, -12
  63              		.cfi_offset 8, -8
  64              		.cfi_offset 1, -4
  65              		.cfi_def_cfa_offset 32
  61:C:/Users/stapi/OneDrive/Desktop/GD32VW553/GD32VW55X_Wifi_BLE_SDK/GD32VW55x_RELEASE_V1.0.2/MSDK/mbedtls/mbedtls-2.17.0-ssl/library\ssl_cache.c ****     int ret = 1;
  66              		.loc 1 61 5
  67              	.LVL3:
  62:C:/Users/stapi/OneDrive/Desktop/GD32VW553/GD32VW55X_Wifi_BLE_SDK/GD32VW55x_RELEASE_V1.0.2/MSDK/mbedtls/mbedtls-2.17.0-ssl/library\ssl_cache.c **** #if defined(MBEDTLS_HAVE_TIME)
  63:C:/Users/stapi/OneDrive/Desktop/GD32VW553/GD32VW55X_Wifi_BLE_SDK/GD32VW55x_RELEASE_V1.0.2/MSDK/mbedtls/mbedtls-2.17.0-ssl/library\ssl_cache.c ****     mbedtls_time_t t = mbedtls_time( NULL );
  68              		.loc 1 63 5
  60:C:/Users/stapi/OneDrive/Desktop/GD32VW553/GD32VW55X_Wifi_BLE_SDK/GD32VW55x_RELEASE_V1.0.2/MSDK/mbedtls/mbedtls-2.17.0-ssl/library\ssl_cache.c ****     int ret = 1;
  69              		.loc 1 60 1 is_stmt 0
  70 0008 AA89     		mv	s3,a0
  71              		.loc 1 63 24
  72 000a 0145     		li	a0,0
  73              	.LVL4:
  60:C:/Users/stapi/OneDrive/Desktop/GD32VW553/GD32VW55X_Wifi_BLE_SDK/GD32VW55x_RELEASE_V1.0.2/MSDK/mbedtls/mbedtls-2.17.0-ssl/library\ssl_cache.c ****     int ret = 1;
  74              		.loc 1 60 1
  75 000c AE84     		mv	s1,a1
  76              		.loc 1 63 24
  77 000e 97000000 		call	mbedtls_time
  77      E7800000 
  78              	.LVL5:
  64:C:/Users/stapi/OneDrive/Desktop/GD32VW553/GD32VW55X_Wifi_BLE_SDK/GD32VW55x_RELEASE_V1.0.2/MSDK/mbedtls/mbedtls-2.17.0-ssl/library\ssl_cache.c **** #endif
  65:C:/Users/stapi/OneDrive/Desktop/GD32VW553/GD32VW55X_Wifi_BLE_SDK/GD32VW55x_RELEASE_V1.0.2/MSDK/mbedtls/mbedtls-2.17.0-ssl/library\ssl_cache.c ****     mbedtls_ssl_cache_context *cache = (mbedtls_ssl_cache_context *) data;
  66:C:/Users/stapi/OneDrive/Desktop/GD32VW553/GD32VW55X_Wifi_BLE_SDK/GD32VW55x_RELEASE_V1.0.2/MSDK/mbedtls/mbedtls-2.17.0-ssl/library\ssl_cache.c ****     mbedtls_ssl_cache_entry *cur, *entry;
  67:C:/Users/stapi/OneDrive/Desktop/GD32VW553/GD32VW55X_Wifi_BLE_SDK/GD32VW55x_RELEASE_V1.0.2/MSDK/mbedtls/mbedtls-2.17.0-ssl/library\ssl_cache.c **** 
  68:C:/Users/stapi/OneDrive/Desktop/GD32VW553/GD32VW55X_Wifi_BLE_SDK/GD32VW55x_RELEASE_V1.0.2/MSDK/mbedtls/mbedtls-2.17.0-ssl/library\ssl_cache.c **** #if defined(MBEDTLS_THREADING_C)
  69:C:/Users/stapi/OneDrive/Desktop/GD32VW553/GD32VW55X_Wifi_BLE_SDK/GD32VW55x_RELEASE_V1.0.2/MSDK/mbedtls/mbedtls-2.17.0-ssl/library\ssl_cache.c ****     if( mbedtls_mutex_lock( &cache->mutex ) != 0 )
  70:C:/Users/stapi/OneDrive/Desktop/GD32VW553/GD32VW55X_Wifi_BLE_SDK/GD32VW55x_RELEASE_V1.0.2/MSDK/mbedtls/mbedtls-2.17.0-ssl/library\ssl_cache.c ****         return( 1 );
  71:C:/Users/stapi/OneDrive/Desktop/GD32VW553/GD32VW55X_Wifi_BLE_SDK/GD32VW55x_RELEASE_V1.0.2/MSDK/mbedtls/mbedtls-2.17.0-ssl/library\ssl_cache.c **** #endif
  72:C:/Users/stapi/OneDrive/Desktop/GD32VW553/GD32VW55X_Wifi_BLE_SDK/GD32VW55x_RELEASE_V1.0.2/MSDK/mbedtls/mbedtls-2.17.0-ssl/library\ssl_cache.c **** 
  73:C:/Users/stapi/OneDrive/Desktop/GD32VW553/GD32VW55X_Wifi_BLE_SDK/GD32VW55x_RELEASE_V1.0.2/MSDK/mbedtls/mbedtls-2.17.0-ssl/library\ssl_cache.c ****     cur = cache->chain;
  79              		.loc 1 73 9
  80 0016 03A40900 		lw	s0,0(s3)
  63:C:/Users/stapi/OneDrive/Desktop/GD32VW553/GD32VW55X_Wifi_BLE_SDK/GD32VW55x_RELEASE_V1.0.2/MSDK/mbedtls/mbedtls-2.17.0-ssl/library\ssl_cache.c **** #endif
  81              		.loc 1 63 24
  82 001a 2A8A     		mv	s4,a0
  83              	.LVL6:
  65:C:/Users/stapi/OneDrive/Desktop/GD32VW553/GD32VW55X_Wifi_BLE_SDK/GD32VW55x_RELEASE_V1.0.2/MSDK/mbedtls/mbedtls-2.17.0-ssl/library\ssl_cache.c ****     mbedtls_ssl_cache_entry *cur, *entry;
  84              		.loc 1 65 5 is_stmt 1
  66:C:/Users/stapi/OneDrive/Desktop/GD32VW553/GD32VW55X_Wifi_BLE_SDK/GD32VW55x_RELEASE_V1.0.2/MSDK/mbedtls/mbedtls-2.17.0-ssl/library\ssl_cache.c **** 
  85              		.loc 1 66 5
  86              		.loc 1 73 5
  74:C:/Users/stapi/OneDrive/Desktop/GD32VW553/GD32VW55X_Wifi_BLE_SDK/GD32VW55x_RELEASE_V1.0.2/MSDK/mbedtls/mbedtls-2.17.0-ssl/library\ssl_cache.c ****     entry = NULL;
  87              		.loc 1 74 5
  75:C:/Users/stapi/OneDrive/Desktop/GD32VW553/GD32VW55X_Wifi_BLE_SDK/GD32VW55x_RELEASE_V1.0.2/MSDK/mbedtls/mbedtls-2.17.0-ssl/library\ssl_cache.c **** 
  76:C:/Users/stapi/OneDrive/Desktop/GD32VW553/GD32VW55X_Wifi_BLE_SDK/GD32VW55x_RELEASE_V1.0.2/MSDK/mbedtls/mbedtls-2.17.0-ssl/library\ssl_cache.c ****     while( cur != NULL )
  88              		.loc 1 76 5
  77:C:/Users/stapi/OneDrive/Desktop/GD32VW553/GD32VW55X_Wifi_BLE_SDK/GD32VW55x_RELEASE_V1.0.2/MSDK/mbedtls/mbedtls-2.17.0-ssl/library\ssl_cache.c ****     {
  78:C:/Users/stapi/OneDrive/Desktop/GD32VW553/GD32VW55X_Wifi_BLE_SDK/GD32VW55x_RELEASE_V1.0.2/MSDK/mbedtls/mbedtls-2.17.0-ssl/library\ssl_cache.c ****         entry = cur;
  79:C:/Users/stapi/OneDrive/Desktop/GD32VW553/GD32VW55X_Wifi_BLE_SDK/GD32VW55x_RELEASE_V1.0.2/MSDK/mbedtls/mbedtls-2.17.0-ssl/library\ssl_cache.c ****         cur = cur->next;
  80:C:/Users/stapi/OneDrive/Desktop/GD32VW553/GD32VW55X_Wifi_BLE_SDK/GD32VW55x_RELEASE_V1.0.2/MSDK/mbedtls/mbedtls-2.17.0-ssl/library\ssl_cache.c **** 
  81:C:/Users/stapi/OneDrive/Desktop/GD32VW553/GD32VW55X_Wifi_BLE_SDK/GD32VW55x_RELEASE_V1.0.2/MSDK/mbedtls/mbedtls-2.17.0-ssl/library\ssl_cache.c **** #if defined(MBEDTLS_HAVE_TIME)
  82:C:/Users/stapi/OneDrive/Desktop/GD32VW553/GD32VW55X_Wifi_BLE_SDK/GD32VW55x_RELEASE_V1.0.2/MSDK/mbedtls/mbedtls-2.17.0-ssl/library\ssl_cache.c ****         if( cache->timeout != 0 &&
  83:C:/Users/stapi/OneDrive/Desktop/GD32VW553/GD32VW55X_Wifi_BLE_SDK/GD32VW55x_RELEASE_V1.0.2/MSDK/mbedtls/mbedtls-2.17.0-ssl/library\ssl_cache.c ****             (int) ( t - entry->timestamp ) > cache->timeout )
  84:C:/Users/stapi/OneDrive/Desktop/GD32VW553/GD32VW55X_Wifi_BLE_SDK/GD32VW55x_RELEASE_V1.0.2/MSDK/mbedtls/mbedtls-2.17.0-ssl/library\ssl_cache.c ****             continue;
  85:C:/Users/stapi/OneDrive/Desktop/GD32VW553/GD32VW55X_Wifi_BLE_SDK/GD32VW55x_RELEASE_V1.0.2/MSDK/mbedtls/mbedtls-2.17.0-ssl/library\ssl_cache.c **** #endif
  86:C:/Users/stapi/OneDrive/Desktop/GD32VW553/GD32VW55X_Wifi_BLE_SDK/GD32VW55x_RELEASE_V1.0.2/MSDK/mbedtls/mbedtls-2.17.0-ssl/library\ssl_cache.c **** 
  87:C:/Users/stapi/OneDrive/Desktop/GD32VW553/GD32VW55X_Wifi_BLE_SDK/GD32VW55x_RELEASE_V1.0.2/MSDK/mbedtls/mbedtls-2.17.0-ssl/library\ssl_cache.c ****         if( session->ciphersuite != entry->session.ciphersuite ||
  88:C:/Users/stapi/OneDrive/Desktop/GD32VW553/GD32VW55X_Wifi_BLE_SDK/GD32VW55x_RELEASE_V1.0.2/MSDK/mbedtls/mbedtls-2.17.0-ssl/library\ssl_cache.c ****             session->compression != entry->session.compression ||
  89:C:/Users/stapi/OneDrive/Desktop/GD32VW553/GD32VW55X_Wifi_BLE_SDK/GD32VW55x_RELEASE_V1.0.2/MSDK/mbedtls/mbedtls-2.17.0-ssl/library\ssl_cache.c ****             session->id_len != entry->session.id_len )
  90:C:/Users/stapi/OneDrive/Desktop/GD32VW553/GD32VW55X_Wifi_BLE_SDK/GD32VW55x_RELEASE_V1.0.2/MSDK/mbedtls/mbedtls-2.17.0-ssl/library\ssl_cache.c ****             continue;
  91:C:/Users/stapi/OneDrive/Desktop/GD32VW553/GD32VW55X_Wifi_BLE_SDK/GD32VW55x_RELEASE_V1.0.2/MSDK/mbedtls/mbedtls-2.17.0-ssl/library\ssl_cache.c **** 
  92:C:/Users/stapi/OneDrive/Desktop/GD32VW553/GD32VW55X_Wifi_BLE_SDK/GD32VW55x_RELEASE_V1.0.2/MSDK/mbedtls/mbedtls-2.17.0-ssl/library\ssl_cache.c ****         if( memcmp( session->id, entry->session.id,
  89              		.loc 1 92 13 is_stmt 0
  90 001c 938A0401 		addi	s5,s1,16
  91              	.LVL7:
  92              	.L16:
  76:C:/Users/stapi/OneDrive/Desktop/GD32VW553/GD32VW55X_Wifi_BLE_SDK/GD32VW55x_RELEASE_V1.0.2/MSDK/mbedtls/mbedtls-2.17.0-ssl/library\ssl_cache.c ****     {
  93              		.loc 1 76 10 is_stmt 1
  94 0020 19E0     		bne	s0,zero,.L7
  95              	.L6:
  93:C:/Users/stapi/OneDrive/Desktop/GD32VW553/GD32VW55X_Wifi_BLE_SDK/GD32VW55x_RELEASE_V1.0.2/MSDK/mbedtls/mbedtls-2.17.0-ssl/library\ssl_cache.c ****                     entry->session.id_len ) != 0 )
  94:C:/Users/stapi/OneDrive/Desktop/GD32VW553/GD32VW55X_Wifi_BLE_SDK/GD32VW55x_RELEASE_V1.0.2/MSDK/mbedtls/mbedtls-2.17.0-ssl/library\ssl_cache.c ****             continue;
  95:C:/Users/stapi/OneDrive/Desktop/GD32VW553/GD32VW55X_Wifi_BLE_SDK/GD32VW55x_RELEASE_V1.0.2/MSDK/mbedtls/mbedtls-2.17.0-ssl/library\ssl_cache.c **** 
  96:C:/Users/stapi/OneDrive/Desktop/GD32VW553/GD32VW55X_Wifi_BLE_SDK/GD32VW55x_RELEASE_V1.0.2/MSDK/mbedtls/mbedtls-2.17.0-ssl/library\ssl_cache.c ****         ret = mbedtls_ssl_session_copy( session, &entry->session );
  97:C:/Users/stapi/OneDrive/Desktop/GD32VW553/GD32VW55X_Wifi_BLE_SDK/GD32VW55x_RELEASE_V1.0.2/MSDK/mbedtls/mbedtls-2.17.0-ssl/library\ssl_cache.c ****         if( ret != 0 )
  98:C:/Users/stapi/OneDrive/Desktop/GD32VW553/GD32VW55X_Wifi_BLE_SDK/GD32VW55x_RELEASE_V1.0.2/MSDK/mbedtls/mbedtls-2.17.0-ssl/library\ssl_cache.c ****         {
  99:C:/Users/stapi/OneDrive/Desktop/GD32VW553/GD32VW55X_Wifi_BLE_SDK/GD32VW55x_RELEASE_V1.0.2/MSDK/mbedtls/mbedtls-2.17.0-ssl/library\ssl_cache.c ****             ret = 1;
 100:C:/Users/stapi/OneDrive/Desktop/GD32VW553/GD32VW55X_Wifi_BLE_SDK/GD32VW55x_RELEASE_V1.0.2/MSDK/mbedtls/mbedtls-2.17.0-ssl/library\ssl_cache.c ****             goto exit;
 101:C:/Users/stapi/OneDrive/Desktop/GD32VW553/GD32VW55X_Wifi_BLE_SDK/GD32VW55x_RELEASE_V1.0.2/MSDK/mbedtls/mbedtls-2.17.0-ssl/library\ssl_cache.c ****         }
 102:C:/Users/stapi/OneDrive/Desktop/GD32VW553/GD32VW55X_Wifi_BLE_SDK/GD32VW55x_RELEASE_V1.0.2/MSDK/mbedtls/mbedtls-2.17.0-ssl/library\ssl_cache.c **** 
 103:C:/Users/stapi/OneDrive/Desktop/GD32VW553/GD32VW55X_Wifi_BLE_SDK/GD32VW55x_RELEASE_V1.0.2/MSDK/mbedtls/mbedtls-2.17.0-ssl/library\ssl_cache.c **** #if defined(MBEDTLS_X509_CRT_PARSE_C) && \
 104:C:/Users/stapi/OneDrive/Desktop/GD32VW553/GD32VW55X_Wifi_BLE_SDK/GD32VW55x_RELEASE_V1.0.2/MSDK/mbedtls/mbedtls-2.17.0-ssl/library\ssl_cache.c ****     defined(MBEDTLS_SSL_KEEP_PEER_CERTIFICATE)
 105:C:/Users/stapi/OneDrive/Desktop/GD32VW553/GD32VW55X_Wifi_BLE_SDK/GD32VW55x_RELEASE_V1.0.2/MSDK/mbedtls/mbedtls-2.17.0-ssl/library\ssl_cache.c ****         /*
 106:C:/Users/stapi/OneDrive/Desktop/GD32VW553/GD32VW55X_Wifi_BLE_SDK/GD32VW55x_RELEASE_V1.0.2/MSDK/mbedtls/mbedtls-2.17.0-ssl/library\ssl_cache.c ****          * Restore peer certificate (without rest of the original chain)
 107:C:/Users/stapi/OneDrive/Desktop/GD32VW553/GD32VW55X_Wifi_BLE_SDK/GD32VW55x_RELEASE_V1.0.2/MSDK/mbedtls/mbedtls-2.17.0-ssl/library\ssl_cache.c ****          */
 108:C:/Users/stapi/OneDrive/Desktop/GD32VW553/GD32VW55X_Wifi_BLE_SDK/GD32VW55x_RELEASE_V1.0.2/MSDK/mbedtls/mbedtls-2.17.0-ssl/library\ssl_cache.c ****         if( entry->peer_cert.p != NULL )
 109:C:/Users/stapi/OneDrive/Desktop/GD32VW553/GD32VW55X_Wifi_BLE_SDK/GD32VW55x_RELEASE_V1.0.2/MSDK/mbedtls/mbedtls-2.17.0-ssl/library\ssl_cache.c ****         {
 110:C:/Users/stapi/OneDrive/Desktop/GD32VW553/GD32VW55X_Wifi_BLE_SDK/GD32VW55x_RELEASE_V1.0.2/MSDK/mbedtls/mbedtls-2.17.0-ssl/library\ssl_cache.c ****             /* `session->peer_cert` is NULL after the call to
 111:C:/Users/stapi/OneDrive/Desktop/GD32VW553/GD32VW55X_Wifi_BLE_SDK/GD32VW55x_RELEASE_V1.0.2/MSDK/mbedtls/mbedtls-2.17.0-ssl/library\ssl_cache.c ****              * mbedtls_ssl_session_copy(), because cache entries
 112:C:/Users/stapi/OneDrive/Desktop/GD32VW553/GD32VW55X_Wifi_BLE_SDK/GD32VW55x_RELEASE_V1.0.2/MSDK/mbedtls/mbedtls-2.17.0-ssl/library\ssl_cache.c ****              * have the `peer_cert` field set to NULL. */
 113:C:/Users/stapi/OneDrive/Desktop/GD32VW553/GD32VW55X_Wifi_BLE_SDK/GD32VW55x_RELEASE_V1.0.2/MSDK/mbedtls/mbedtls-2.17.0-ssl/library\ssl_cache.c **** 
 114:C:/Users/stapi/OneDrive/Desktop/GD32VW553/GD32VW55X_Wifi_BLE_SDK/GD32VW55x_RELEASE_V1.0.2/MSDK/mbedtls/mbedtls-2.17.0-ssl/library\ssl_cache.c ****             if( ( session->peer_cert = mbedtls_calloc( 1,
 115:C:/Users/stapi/OneDrive/Desktop/GD32VW553/GD32VW55X_Wifi_BLE_SDK/GD32VW55x_RELEASE_V1.0.2/MSDK/mbedtls/mbedtls-2.17.0-ssl/library\ssl_cache.c ****                                  sizeof(mbedtls_x509_crt) ) ) == NULL )
 116:C:/Users/stapi/OneDrive/Desktop/GD32VW553/GD32VW55X_Wifi_BLE_SDK/GD32VW55x_RELEASE_V1.0.2/MSDK/mbedtls/mbedtls-2.17.0-ssl/library\ssl_cache.c ****             {
 117:C:/Users/stapi/OneDrive/Desktop/GD32VW553/GD32VW55X_Wifi_BLE_SDK/GD32VW55x_RELEASE_V1.0.2/MSDK/mbedtls/mbedtls-2.17.0-ssl/library\ssl_cache.c ****                 ret = 1;
 118:C:/Users/stapi/OneDrive/Desktop/GD32VW553/GD32VW55X_Wifi_BLE_SDK/GD32VW55x_RELEASE_V1.0.2/MSDK/mbedtls/mbedtls-2.17.0-ssl/library\ssl_cache.c ****                 goto exit;
 119:C:/Users/stapi/OneDrive/Desktop/GD32VW553/GD32VW55X_Wifi_BLE_SDK/GD32VW55x_RELEASE_V1.0.2/MSDK/mbedtls/mbedtls-2.17.0-ssl/library\ssl_cache.c ****             }
 120:C:/Users/stapi/OneDrive/Desktop/GD32VW553/GD32VW55X_Wifi_BLE_SDK/GD32VW55x_RELEASE_V1.0.2/MSDK/mbedtls/mbedtls-2.17.0-ssl/library\ssl_cache.c **** 
 121:C:/Users/stapi/OneDrive/Desktop/GD32VW553/GD32VW55X_Wifi_BLE_SDK/GD32VW55x_RELEASE_V1.0.2/MSDK/mbedtls/mbedtls-2.17.0-ssl/library\ssl_cache.c ****             mbedtls_x509_crt_init( session->peer_cert );
 122:C:/Users/stapi/OneDrive/Desktop/GD32VW553/GD32VW55X_Wifi_BLE_SDK/GD32VW55x_RELEASE_V1.0.2/MSDK/mbedtls/mbedtls-2.17.0-ssl/library\ssl_cache.c ****             if( mbedtls_x509_crt_parse( session->peer_cert, entry->peer_cert.p,
 123:C:/Users/stapi/OneDrive/Desktop/GD32VW553/GD32VW55X_Wifi_BLE_SDK/GD32VW55x_RELEASE_V1.0.2/MSDK/mbedtls/mbedtls-2.17.0-ssl/library\ssl_cache.c ****                                 entry->peer_cert.len ) != 0 )
 124:C:/Users/stapi/OneDrive/Desktop/GD32VW553/GD32VW55X_Wifi_BLE_SDK/GD32VW55x_RELEASE_V1.0.2/MSDK/mbedtls/mbedtls-2.17.0-ssl/library\ssl_cache.c ****             {
 125:C:/Users/stapi/OneDrive/Desktop/GD32VW553/GD32VW55X_Wifi_BLE_SDK/GD32VW55x_RELEASE_V1.0.2/MSDK/mbedtls/mbedtls-2.17.0-ssl/library\ssl_cache.c ****                 mbedtls_free( session->peer_cert );
 126:C:/Users/stapi/OneDrive/Desktop/GD32VW553/GD32VW55X_Wifi_BLE_SDK/GD32VW55x_RELEASE_V1.0.2/MSDK/mbedtls/mbedtls-2.17.0-ssl/library\ssl_cache.c ****                 session->peer_cert = NULL;
 127:C:/Users/stapi/OneDrive/Desktop/GD32VW553/GD32VW55X_Wifi_BLE_SDK/GD32VW55x_RELEASE_V1.0.2/MSDK/mbedtls/mbedtls-2.17.0-ssl/library\ssl_cache.c ****                 ret = 1;
 128:C:/Users/stapi/OneDrive/Desktop/GD32VW553/GD32VW55X_Wifi_BLE_SDK/GD32VW55x_RELEASE_V1.0.2/MSDK/mbedtls/mbedtls-2.17.0-ssl/library\ssl_cache.c ****                 goto exit;
 129:C:/Users/stapi/OneDrive/Desktop/GD32VW553/GD32VW55X_Wifi_BLE_SDK/GD32VW55x_RELEASE_V1.0.2/MSDK/mbedtls/mbedtls-2.17.0-ssl/library\ssl_cache.c ****             }
 130:C:/Users/stapi/OneDrive/Desktop/GD32VW553/GD32VW55X_Wifi_BLE_SDK/GD32VW55x_RELEASE_V1.0.2/MSDK/mbedtls/mbedtls-2.17.0-ssl/library\ssl_cache.c ****         }
 131:C:/Users/stapi/OneDrive/Desktop/GD32VW553/GD32VW55X_Wifi_BLE_SDK/GD32VW55x_RELEASE_V1.0.2/MSDK/mbedtls/mbedtls-2.17.0-ssl/library\ssl_cache.c **** #endif /* MBEDTLS_X509_CRT_PARSE_C && MBEDTLS_SSL_KEEP_PEER_CERTIFICATE */
 132:C:/Users/stapi/OneDrive/Desktop/GD32VW553/GD32VW55X_Wifi_BLE_SDK/GD32VW55x_RELEASE_V1.0.2/MSDK/mbedtls/mbedtls-2.17.0-ssl/library\ssl_cache.c **** 
 133:C:/Users/stapi/OneDrive/Desktop/GD32VW553/GD32VW55X_Wifi_BLE_SDK/GD32VW55x_RELEASE_V1.0.2/MSDK/mbedtls/mbedtls-2.17.0-ssl/library\ssl_cache.c ****         ret = 0;
 134:C:/Users/stapi/OneDrive/Desktop/GD32VW553/GD32VW55X_Wifi_BLE_SDK/GD32VW55x_RELEASE_V1.0.2/MSDK/mbedtls/mbedtls-2.17.0-ssl/library\ssl_cache.c ****         goto exit;
 135:C:/Users/stapi/OneDrive/Desktop/GD32VW553/GD32VW55X_Wifi_BLE_SDK/GD32VW55x_RELEASE_V1.0.2/MSDK/mbedtls/mbedtls-2.17.0-ssl/library\ssl_cache.c ****     }
 136:C:/Users/stapi/OneDrive/Desktop/GD32VW553/GD32VW55X_Wifi_BLE_SDK/GD32VW55x_RELEASE_V1.0.2/MSDK/mbedtls/mbedtls-2.17.0-ssl/library\ssl_cache.c **** 
 137:C:/Users/stapi/OneDrive/Desktop/GD32VW553/GD32VW55X_Wifi_BLE_SDK/GD32VW55x_RELEASE_V1.0.2/MSDK/mbedtls/mbedtls-2.17.0-ssl/library\ssl_cache.c **** exit:
 138:C:/Users/stapi/OneDrive/Desktop/GD32VW553/GD32VW55X_Wifi_BLE_SDK/GD32VW55x_RELEASE_V1.0.2/MSDK/mbedtls/mbedtls-2.17.0-ssl/library\ssl_cache.c **** #if defined(MBEDTLS_THREADING_C)
 139:C:/Users/stapi/OneDrive/Desktop/GD32VW553/GD32VW55X_Wifi_BLE_SDK/GD32VW55x_RELEASE_V1.0.2/MSDK/mbedtls/mbedtls-2.17.0-ssl/library\ssl_cache.c ****     if( mbedtls_mutex_unlock( &cache->mutex ) != 0 )
 140:C:/Users/stapi/OneDrive/Desktop/GD32VW553/GD32VW55X_Wifi_BLE_SDK/GD32VW55x_RELEASE_V1.0.2/MSDK/mbedtls/mbedtls-2.17.0-ssl/library\ssl_cache.c ****         ret = 1;
 141:C:/Users/stapi/OneDrive/Desktop/GD32VW553/GD32VW55X_Wifi_BLE_SDK/GD32VW55x_RELEASE_V1.0.2/MSDK/mbedtls/mbedtls-2.17.0-ssl/library\ssl_cache.c **** #endif
 142:C:/Users/stapi/OneDrive/Desktop/GD32VW553/GD32VW55X_Wifi_BLE_SDK/GD32VW55x_RELEASE_V1.0.2/MSDK/mbedtls/mbedtls-2.17.0-ssl/library\ssl_cache.c **** 
 143:C:/Users/stapi/OneDrive/Desktop/GD32VW553/GD32VW55X_Wifi_BLE_SDK/GD32VW55x_RELEASE_V1.0.2/MSDK/mbedtls/mbedtls-2.17.0-ssl/library\ssl_cache.c ****     return( ret );
  96              		.loc 1 143 5
  61:C:/Users/stapi/OneDrive/Desktop/GD32VW553/GD32VW55X_Wifi_BLE_SDK/GD32VW55x_RELEASE_V1.0.2/MSDK/mbedtls/mbedtls-2.17.0-ssl/library\ssl_cache.c **** #if defined(MBEDTLS_HAVE_TIME)
  97              		.loc 1 61 9 is_stmt 0
  98 0022 0545     		li	a0,1
  99              		.loc 1 143 11
 100 0024 81A8     		j	.L3
 101              	.L7:
  78:C:/Users/stapi/OneDrive/Desktop/GD32VW553/GD32VW55X_Wifi_BLE_SDK/GD32VW55x_RELEASE_V1.0.2/MSDK/mbedtls/mbedtls-2.17.0-ssl/library\ssl_cache.c ****         cur = cur->next;
 102              		.loc 1 78 9 is_stmt 1
 103              	.LVL8:
  79:C:/Users/stapi/OneDrive/Desktop/GD32VW553/GD32VW55X_Wifi_BLE_SDK/GD32VW55x_RELEASE_V1.0.2/MSDK/mbedtls/mbedtls-2.17.0-ssl/library\ssl_cache.c **** 
 104              		.loc 1 79 9
  82:C:/Users/stapi/OneDrive/Desktop/GD32VW553/GD32VW55X_Wifi_BLE_SDK/GD32VW55x_RELEASE_V1.0.2/MSDK/mbedtls/mbedtls-2.17.0-ssl/library\ssl_cache.c ****             (int) ( t - entry->timestamp ) > cache->timeout )
 105              		.loc 1 82 18 is_stmt 0
 106 0026 03A74900 		lw	a4,4(s3)
  79:C:/Users/stapi/OneDrive/Desktop/GD32VW553/GD32VW55X_Wifi_BLE_SDK/GD32VW55x_RELEASE_V1.0.2/MSDK/mbedtls/mbedtls-2.17.0-ssl/library\ssl_cache.c **** 
 107              		.loc 1 79 13
 108 002a 0329C408 		lw	s2,140(s0)
 109              	.LVL9:
  82:C:/Users/stapi/OneDrive/Desktop/GD32VW553/GD32VW55X_Wifi_BLE_SDK/GD32VW55x_RELEASE_V1.0.2/MSDK/mbedtls/mbedtls-2.17.0-ssl/library\ssl_cache.c ****             (int) ( t - entry->timestamp ) > cache->timeout )
 110              		.loc 1 82 9 is_stmt 1
  82:C:/Users/stapi/OneDrive/Desktop/GD32VW553/GD32VW55X_Wifi_BLE_SDK/GD32VW55x_RELEASE_V1.0.2/MSDK/mbedtls/mbedtls-2.17.0-ssl/library\ssl_cache.c ****             (int) ( t - entry->timestamp ) > cache->timeout )
 111              		.loc 1 82 11 is_stmt 0
 112 002e 11C7     		beq	a4,zero,.L5
  83:C:/Users/stapi/OneDrive/Desktop/GD32VW553/GD32VW55X_Wifi_BLE_SDK/GD32VW55x_RELEASE_V1.0.2/MSDK/mbedtls/mbedtls-2.17.0-ssl/library\ssl_cache.c ****             continue;
 113              		.loc 1 83 23 discriminator 1
 114 0030 1C40     		lw	a5,0(s0)
 115 0032 B307FA40 		sub	a5,s4,a5
  82:C:/Users/stapi/OneDrive/Desktop/GD32VW553/GD32VW55X_Wifi_BLE_SDK/GD32VW55x_RELEASE_V1.0.2/MSDK/mbedtls/mbedtls-2.17.0-ssl/library\ssl_cache.c ****             (int) ( t - entry->timestamp ) > cache->timeout )
 116              		.loc 1 82 33 discriminator 1
 117 0036 6343F704 		blt	a4,a5,.L12
 118              	.L5:
  87:C:/Users/stapi/OneDrive/Desktop/GD32VW553/GD32VW55X_Wifi_BLE_SDK/GD32VW55x_RELEASE_V1.0.2/MSDK/mbedtls/mbedtls-2.17.0-ssl/library\ssl_cache.c ****             session->compression != entry->session.compression ||
 119              		.loc 1 87 9 is_stmt 1
  87:C:/Users/stapi/OneDrive/Desktop/GD32VW553/GD32VW55X_Wifi_BLE_SDK/GD32VW55x_RELEASE_V1.0.2/MSDK/mbedtls/mbedtls-2.17.0-ssl/library\ssl_cache.c ****             session->compression != entry->session.compression ||
 120              		.loc 1 87 11 is_stmt 0
 121 003a D840     		lw	a4,4(s1)
 122 003c 1C44     		lw	a5,8(s0)
 123 003e 631FF702 		bne	a4,a5,.L12
  87:C:/Users/stapi/OneDrive/Desktop/GD32VW553/GD32VW55X_Wifi_BLE_SDK/GD32VW55x_RELEASE_V1.0.2/MSDK/mbedtls/mbedtls-2.17.0-ssl/library\ssl_cache.c ****             session->compression != entry->session.compression ||
 124              		.loc 1 87 64 discriminator 1
 125 0042 9844     		lw	a4,8(s1)
 126 0044 5C44     		lw	a5,12(s0)
 127 0046 631BF702 		bne	a4,a5,.L12
  89:C:/Users/stapi/OneDrive/Desktop/GD32VW553/GD32VW55X_Wifi_BLE_SDK/GD32VW55x_RELEASE_V1.0.2/MSDK/mbedtls/mbedtls-2.17.0-ssl/library\ssl_cache.c ****             continue;
 128              		.loc 1 89 46
 129 004a 1C48     		lw	a5,16(s0)
  88:C:/Users/stapi/OneDrive/Desktop/GD32VW553/GD32VW55X_Wifi_BLE_SDK/GD32VW55x_RELEASE_V1.0.2/MSDK/mbedtls/mbedtls-2.17.0-ssl/library\ssl_cache.c ****             session->id_len != entry->session.id_len )
 130              		.loc 1 88 64
 131 004c D044     		lw	a2,12(s1)
 132 004e 6317F602 		bne	a2,a5,.L12
  92:C:/Users/stapi/OneDrive/Desktop/GD32VW553/GD32VW55X_Wifi_BLE_SDK/GD32VW55x_RELEASE_V1.0.2/MSDK/mbedtls/mbedtls-2.17.0-ssl/library\ssl_cache.c ****                     entry->session.id_len ) != 0 )
 133              		.loc 1 92 9 is_stmt 1
  92:C:/Users/stapi/OneDrive/Desktop/GD32VW553/GD32VW55X_Wifi_BLE_SDK/GD32VW55x_RELEASE_V1.0.2/MSDK/mbedtls/mbedtls-2.17.0-ssl/library\ssl_cache.c ****                     entry->session.id_len ) != 0 )
 134              		.loc 1 92 13 is_stmt 0
 135 0052 93054401 		addi	a1,s0,20
 136 0056 5685     		mv	a0,s5
 137 0058 97000000 		call	memcmp
 137      E7800000 
 138              	.LVL10:
  92:C:/Users/stapi/OneDrive/Desktop/GD32VW553/GD32VW55X_Wifi_BLE_SDK/GD32VW55x_RELEASE_V1.0.2/MSDK/mbedtls/mbedtls-2.17.0-ssl/library\ssl_cache.c ****                     entry->session.id_len ) != 0 )
 139              		.loc 1 92 11
 140 0060 11ED     		bne	a0,zero,.L12
  96:C:/Users/stapi/OneDrive/Desktop/GD32VW553/GD32VW55X_Wifi_BLE_SDK/GD32VW55x_RELEASE_V1.0.2/MSDK/mbedtls/mbedtls-2.17.0-ssl/library\ssl_cache.c ****         if( ret != 0 )
 141              		.loc 1 96 9 is_stmt 1
  96:C:/Users/stapi/OneDrive/Desktop/GD32VW553/GD32VW55X_Wifi_BLE_SDK/GD32VW55x_RELEASE_V1.0.2/MSDK/mbedtls/mbedtls-2.17.0-ssl/library\ssl_cache.c ****         if( ret != 0 )
 142              		.loc 1 96 15 is_stmt 0
 143 0062 93054400 		addi	a1,s0,4
 144 0066 2685     		mv	a0,s1
 145 0068 97000000 		call	mbedtls_ssl_session_copy
 145      E7800000 
 146              	.LVL11:
  97:C:/Users/stapi/OneDrive/Desktop/GD32VW553/GD32VW55X_Wifi_BLE_SDK/GD32VW55x_RELEASE_V1.0.2/MSDK/mbedtls/mbedtls-2.17.0-ssl/library\ssl_cache.c ****         {
 147              		.loc 1 97 9 is_stmt 1
  97:C:/Users/stapi/OneDrive/Desktop/GD32VW553/GD32VW55X_Wifi_BLE_SDK/GD32VW55x_RELEASE_V1.0.2/MSDK/mbedtls/mbedtls-2.17.0-ssl/library\ssl_cache.c ****         {
 148              		.loc 1 97 11 is_stmt 0
 149 0070 3335A000 		snez	a0,a0
 150              	.LVL12:
 151              	.L3:
 144:C:/Users/stapi/OneDrive/Desktop/GD32VW553/GD32VW55X_Wifi_BLE_SDK/GD32VW55x_RELEASE_V1.0.2/MSDK/mbedtls/mbedtls-2.17.0-ssl/library\ssl_cache.c **** }
 152              		.loc 1 144 1
 153 0074 17030000 		tail	__riscv_restore_6
 153      67000300 
 154              		.cfi_remember_state
 155              		.cfi_restore 21
 156              		.cfi_restore 20
 157              		.cfi_restore 19
 158              		.cfi_restore 18
 159              		.cfi_restore 9
 160              		.cfi_restore 8
 161              		.cfi_restore 1
 162              		.cfi_def_cfa_offset 0
 163              	.LVL13:
 164              	.L12:
 165              		.cfi_restore_state
 166 007c 4A84     		mv	s0,s2
 167              	.LVL14:
 168 007e 4DB7     		j	.L16
 169              		.cfi_endproc
 170              	.LFE390:
 172              		.section	.text.mbedtls_ssl_cache_set,"ax",@progbits
 173              		.align	1
 174              		.globl	mbedtls_ssl_cache_set
 176              	mbedtls_ssl_cache_set:
 177              	.LFB391:
 145:C:/Users/stapi/OneDrive/Desktop/GD32VW553/GD32VW55X_Wifi_BLE_SDK/GD32VW55x_RELEASE_V1.0.2/MSDK/mbedtls/mbedtls-2.17.0-ssl/library\ssl_cache.c **** 
 146:C:/Users/stapi/OneDrive/Desktop/GD32VW553/GD32VW55X_Wifi_BLE_SDK/GD32VW55x_RELEASE_V1.0.2/MSDK/mbedtls/mbedtls-2.17.0-ssl/library\ssl_cache.c **** int mbedtls_ssl_cache_set( void *data, const mbedtls_ssl_session *session )
 147:C:/Users/stapi/OneDrive/Desktop/GD32VW553/GD32VW55X_Wifi_BLE_SDK/GD32VW55x_RELEASE_V1.0.2/MSDK/mbedtls/mbedtls-2.17.0-ssl/library\ssl_cache.c **** {
 178              		.loc 1 147 1 is_stmt 1
 179              		.cfi_startproc
 180              	.LVL15:
 181 0000 17030000 		call	t0,__riscv_save_9
 181      E7020300 
 182              		.cfi_offset 24, -40
 183              		.cfi_offset 23, -36
 184              		.cfi_offset 22, -32
 185              		.cfi_offset 21, -28
 186              		.cfi_offset 20, -24
 187              		.cfi_offset 19, -20
 188              		.cfi_offset 18, -16
 189              		.cfi_offset 9, -12
 190              		.cfi_offset 8, -8
 191              		.cfi_offset 1, -4
 192              		.cfi_def_cfa_offset 48
 148:C:/Users/stapi/OneDrive/Desktop/GD32VW553/GD32VW55X_Wifi_BLE_SDK/GD32VW55x_RELEASE_V1.0.2/MSDK/mbedtls/mbedtls-2.17.0-ssl/library\ssl_cache.c ****     int ret = 1;
 193              		.loc 1 148 5
 194              	.LVL16:
 149:C:/Users/stapi/OneDrive/Desktop/GD32VW553/GD32VW55X_Wifi_BLE_SDK/GD32VW55x_RELEASE_V1.0.2/MSDK/mbedtls/mbedtls-2.17.0-ssl/library\ssl_cache.c **** #if defined(MBEDTLS_HAVE_TIME)
 150:C:/Users/stapi/OneDrive/Desktop/GD32VW553/GD32VW55X_Wifi_BLE_SDK/GD32VW55x_RELEASE_V1.0.2/MSDK/mbedtls/mbedtls-2.17.0-ssl/library\ssl_cache.c ****     mbedtls_time_t t = mbedtls_time( NULL ), oldest = 0;
 195              		.loc 1 150 5
 147:C:/Users/stapi/OneDrive/Desktop/GD32VW553/GD32VW55X_Wifi_BLE_SDK/GD32VW55x_RELEASE_V1.0.2/MSDK/mbedtls/mbedtls-2.17.0-ssl/library\ssl_cache.c ****     int ret = 1;
 196              		.loc 1 147 1 is_stmt 0
 197 0008 2A89     		mv	s2,a0
 198              		.loc 1 150 24
 199 000a 0145     		li	a0,0
 200              	.LVL17:
 147:C:/Users/stapi/OneDrive/Desktop/GD32VW553/GD32VW55X_Wifi_BLE_SDK/GD32VW55x_RELEASE_V1.0.2/MSDK/mbedtls/mbedtls-2.17.0-ssl/library\ssl_cache.c ****     int ret = 1;
 201              		.loc 1 147 1
 202 000c 2E8A     		mv	s4,a1
 203              		.loc 1 150 24
 204 000e 97000000 		call	mbedtls_time
 204      E7800000 
 205              	.LVL18:
 151:C:/Users/stapi/OneDrive/Desktop/GD32VW553/GD32VW55X_Wifi_BLE_SDK/GD32VW55x_RELEASE_V1.0.2/MSDK/mbedtls/mbedtls-2.17.0-ssl/library\ssl_cache.c ****     mbedtls_ssl_cache_entry *old = NULL;
 152:C:/Users/stapi/OneDrive/Desktop/GD32VW553/GD32VW55X_Wifi_BLE_SDK/GD32VW55x_RELEASE_V1.0.2/MSDK/mbedtls/mbedtls-2.17.0-ssl/library\ssl_cache.c **** #endif
 153:C:/Users/stapi/OneDrive/Desktop/GD32VW553/GD32VW55X_Wifi_BLE_SDK/GD32VW55x_RELEASE_V1.0.2/MSDK/mbedtls/mbedtls-2.17.0-ssl/library\ssl_cache.c ****     mbedtls_ssl_cache_context *cache = (mbedtls_ssl_cache_context *) data;
 154:C:/Users/stapi/OneDrive/Desktop/GD32VW553/GD32VW55X_Wifi_BLE_SDK/GD32VW55x_RELEASE_V1.0.2/MSDK/mbedtls/mbedtls-2.17.0-ssl/library\ssl_cache.c ****     mbedtls_ssl_cache_entry *cur, *prv;
 155:C:/Users/stapi/OneDrive/Desktop/GD32VW553/GD32VW55X_Wifi_BLE_SDK/GD32VW55x_RELEASE_V1.0.2/MSDK/mbedtls/mbedtls-2.17.0-ssl/library\ssl_cache.c ****     int count = 0;
 156:C:/Users/stapi/OneDrive/Desktop/GD32VW553/GD32VW55X_Wifi_BLE_SDK/GD32VW55x_RELEASE_V1.0.2/MSDK/mbedtls/mbedtls-2.17.0-ssl/library\ssl_cache.c **** 
 157:C:/Users/stapi/OneDrive/Desktop/GD32VW553/GD32VW55X_Wifi_BLE_SDK/GD32VW55x_RELEASE_V1.0.2/MSDK/mbedtls/mbedtls-2.17.0-ssl/library\ssl_cache.c **** #if defined(MBEDTLS_THREADING_C)
 158:C:/Users/stapi/OneDrive/Desktop/GD32VW553/GD32VW55X_Wifi_BLE_SDK/GD32VW55x_RELEASE_V1.0.2/MSDK/mbedtls/mbedtls-2.17.0-ssl/library\ssl_cache.c ****     if( ( ret = mbedtls_mutex_lock( &cache->mutex ) ) != 0 )
 159:C:/Users/stapi/OneDrive/Desktop/GD32VW553/GD32VW55X_Wifi_BLE_SDK/GD32VW55x_RELEASE_V1.0.2/MSDK/mbedtls/mbedtls-2.17.0-ssl/library\ssl_cache.c ****         return( ret );
 160:C:/Users/stapi/OneDrive/Desktop/GD32VW553/GD32VW55X_Wifi_BLE_SDK/GD32VW55x_RELEASE_V1.0.2/MSDK/mbedtls/mbedtls-2.17.0-ssl/library\ssl_cache.c **** #endif
 161:C:/Users/stapi/OneDrive/Desktop/GD32VW553/GD32VW55X_Wifi_BLE_SDK/GD32VW55x_RELEASE_V1.0.2/MSDK/mbedtls/mbedtls-2.17.0-ssl/library\ssl_cache.c **** 
 162:C:/Users/stapi/OneDrive/Desktop/GD32VW553/GD32VW55X_Wifi_BLE_SDK/GD32VW55x_RELEASE_V1.0.2/MSDK/mbedtls/mbedtls-2.17.0-ssl/library\ssl_cache.c ****     cur = cache->chain;
 206              		.loc 1 162 9
 207 0016 03240900 		lw	s0,0(s2)
 150:C:/Users/stapi/OneDrive/Desktop/GD32VW553/GD32VW55X_Wifi_BLE_SDK/GD32VW55x_RELEASE_V1.0.2/MSDK/mbedtls/mbedtls-2.17.0-ssl/library\ssl_cache.c ****     mbedtls_ssl_cache_entry *old = NULL;
 208              		.loc 1 150 24
 209 001a AA89     		mv	s3,a0
 210              	.LVL19:
 151:C:/Users/stapi/OneDrive/Desktop/GD32VW553/GD32VW55X_Wifi_BLE_SDK/GD32VW55x_RELEASE_V1.0.2/MSDK/mbedtls/mbedtls-2.17.0-ssl/library\ssl_cache.c ****     mbedtls_ssl_cache_entry *old = NULL;
 211              		.loc 1 151 5 is_stmt 1
 153:C:/Users/stapi/OneDrive/Desktop/GD32VW553/GD32VW55X_Wifi_BLE_SDK/GD32VW55x_RELEASE_V1.0.2/MSDK/mbedtls/mbedtls-2.17.0-ssl/library\ssl_cache.c ****     mbedtls_ssl_cache_entry *cur, *prv;
 212              		.loc 1 153 5
 154:C:/Users/stapi/OneDrive/Desktop/GD32VW553/GD32VW55X_Wifi_BLE_SDK/GD32VW55x_RELEASE_V1.0.2/MSDK/mbedtls/mbedtls-2.17.0-ssl/library\ssl_cache.c ****     int count = 0;
 213              		.loc 1 154 5
 155:C:/Users/stapi/OneDrive/Desktop/GD32VW553/GD32VW55X_Wifi_BLE_SDK/GD32VW55x_RELEASE_V1.0.2/MSDK/mbedtls/mbedtls-2.17.0-ssl/library\ssl_cache.c **** 
 214              		.loc 1 155 5
 215              		.loc 1 162 5
 163:C:/Users/stapi/OneDrive/Desktop/GD32VW553/GD32VW55X_Wifi_BLE_SDK/GD32VW55x_RELEASE_V1.0.2/MSDK/mbedtls/mbedtls-2.17.0-ssl/library\ssl_cache.c ****     prv = NULL;
 216              		.loc 1 163 5
 164:C:/Users/stapi/OneDrive/Desktop/GD32VW553/GD32VW55X_Wifi_BLE_SDK/GD32VW55x_RELEASE_V1.0.2/MSDK/mbedtls/mbedtls-2.17.0-ssl/library\ssl_cache.c **** 
 165:C:/Users/stapi/OneDrive/Desktop/GD32VW553/GD32VW55X_Wifi_BLE_SDK/GD32VW55x_RELEASE_V1.0.2/MSDK/mbedtls/mbedtls-2.17.0-ssl/library\ssl_cache.c ****     while( cur != NULL )
 217              		.loc 1 165 5
 155:C:/Users/stapi/OneDrive/Desktop/GD32VW553/GD32VW55X_Wifi_BLE_SDK/GD32VW55x_RELEASE_V1.0.2/MSDK/mbedtls/mbedtls-2.17.0-ssl/library\ssl_cache.c **** 
 218              		.loc 1 155 9 is_stmt 0
 219 001c 814B     		li	s7,0
 163:C:/Users/stapi/OneDrive/Desktop/GD32VW553/GD32VW55X_Wifi_BLE_SDK/GD32VW55x_RELEASE_V1.0.2/MSDK/mbedtls/mbedtls-2.17.0-ssl/library\ssl_cache.c ****     prv = NULL;
 220              		.loc 1 163 9
 221 001e 014B     		li	s6,0
 151:C:/Users/stapi/OneDrive/Desktop/GD32VW553/GD32VW55X_Wifi_BLE_SDK/GD32VW55x_RELEASE_V1.0.2/MSDK/mbedtls/mbedtls-2.17.0-ssl/library\ssl_cache.c **** #endif
 222              		.loc 1 151 30
 223 0020 8144     		li	s1,0
 150:C:/Users/stapi/OneDrive/Desktop/GD32VW553/GD32VW55X_Wifi_BLE_SDK/GD32VW55x_RELEASE_V1.0.2/MSDK/mbedtls/mbedtls-2.17.0-ssl/library\ssl_cache.c ****     mbedtls_ssl_cache_entry *old = NULL;
 224              		.loc 1 150 46
 225 0022 814A     		li	s5,0
 166:C:/Users/stapi/OneDrive/Desktop/GD32VW553/GD32VW55X_Wifi_BLE_SDK/GD32VW55x_RELEASE_V1.0.2/MSDK/mbedtls/mbedtls-2.17.0-ssl/library\ssl_cache.c ****     {
 167:C:/Users/stapi/OneDrive/Desktop/GD32VW553/GD32VW55X_Wifi_BLE_SDK/GD32VW55x_RELEASE_V1.0.2/MSDK/mbedtls/mbedtls-2.17.0-ssl/library\ssl_cache.c ****         count++;
 168:C:/Users/stapi/OneDrive/Desktop/GD32VW553/GD32VW55X_Wifi_BLE_SDK/GD32VW55x_RELEASE_V1.0.2/MSDK/mbedtls/mbedtls-2.17.0-ssl/library\ssl_cache.c **** 
 169:C:/Users/stapi/OneDrive/Desktop/GD32VW553/GD32VW55X_Wifi_BLE_SDK/GD32VW55x_RELEASE_V1.0.2/MSDK/mbedtls/mbedtls-2.17.0-ssl/library\ssl_cache.c **** #if defined(MBEDTLS_HAVE_TIME)
 170:C:/Users/stapi/OneDrive/Desktop/GD32VW553/GD32VW55X_Wifi_BLE_SDK/GD32VW55x_RELEASE_V1.0.2/MSDK/mbedtls/mbedtls-2.17.0-ssl/library\ssl_cache.c ****         if( cache->timeout != 0 &&
 171:C:/Users/stapi/OneDrive/Desktop/GD32VW553/GD32VW55X_Wifi_BLE_SDK/GD32VW55x_RELEASE_V1.0.2/MSDK/mbedtls/mbedtls-2.17.0-ssl/library\ssl_cache.c ****             (int) ( t - cur->timestamp ) > cache->timeout )
 172:C:/Users/stapi/OneDrive/Desktop/GD32VW553/GD32VW55X_Wifi_BLE_SDK/GD32VW55x_RELEASE_V1.0.2/MSDK/mbedtls/mbedtls-2.17.0-ssl/library\ssl_cache.c ****         {
 173:C:/Users/stapi/OneDrive/Desktop/GD32VW553/GD32VW55X_Wifi_BLE_SDK/GD32VW55x_RELEASE_V1.0.2/MSDK/mbedtls/mbedtls-2.17.0-ssl/library\ssl_cache.c ****             cur->timestamp = t;
 174:C:/Users/stapi/OneDrive/Desktop/GD32VW553/GD32VW55X_Wifi_BLE_SDK/GD32VW55x_RELEASE_V1.0.2/MSDK/mbedtls/mbedtls-2.17.0-ssl/library\ssl_cache.c ****             break; /* expired, reuse this slot, update timestamp */
 175:C:/Users/stapi/OneDrive/Desktop/GD32VW553/GD32VW55X_Wifi_BLE_SDK/GD32VW55x_RELEASE_V1.0.2/MSDK/mbedtls/mbedtls-2.17.0-ssl/library\ssl_cache.c ****         }
 176:C:/Users/stapi/OneDrive/Desktop/GD32VW553/GD32VW55X_Wifi_BLE_SDK/GD32VW55x_RELEASE_V1.0.2/MSDK/mbedtls/mbedtls-2.17.0-ssl/library\ssl_cache.c **** #endif
 177:C:/Users/stapi/OneDrive/Desktop/GD32VW553/GD32VW55X_Wifi_BLE_SDK/GD32VW55x_RELEASE_V1.0.2/MSDK/mbedtls/mbedtls-2.17.0-ssl/library\ssl_cache.c **** 
 178:C:/Users/stapi/OneDrive/Desktop/GD32VW553/GD32VW55X_Wifi_BLE_SDK/GD32VW55x_RELEASE_V1.0.2/MSDK/mbedtls/mbedtls-2.17.0-ssl/library\ssl_cache.c ****         if( memcmp( session->id, cur->session.id, cur->session.id_len ) == 0 )
 226              		.loc 1 178 13
 227 0024 130C0A01 		addi	s8,s4,16
 228              	.LVL20:
 229              	.L19:
 165:C:/Users/stapi/OneDrive/Desktop/GD32VW553/GD32VW55X_Wifi_BLE_SDK/GD32VW55x_RELEASE_V1.0.2/MSDK/mbedtls/mbedtls-2.17.0-ssl/library\ssl_cache.c ****     {
 230              		.loc 1 165 10 is_stmt 1
 231 0028 15E4     		bne	s0,zero,.L23
 179:C:/Users/stapi/OneDrive/Desktop/GD32VW553/GD32VW55X_Wifi_BLE_SDK/GD32VW55x_RELEASE_V1.0.2/MSDK/mbedtls/mbedtls-2.17.0-ssl/library\ssl_cache.c ****             break; /* client reconnected, keep timestamp for session id */
 180:C:/Users/stapi/OneDrive/Desktop/GD32VW553/GD32VW55X_Wifi_BLE_SDK/GD32VW55x_RELEASE_V1.0.2/MSDK/mbedtls/mbedtls-2.17.0-ssl/library\ssl_cache.c **** 
 181:C:/Users/stapi/OneDrive/Desktop/GD32VW553/GD32VW55X_Wifi_BLE_SDK/GD32VW55x_RELEASE_V1.0.2/MSDK/mbedtls/mbedtls-2.17.0-ssl/library\ssl_cache.c **** #if defined(MBEDTLS_HAVE_TIME)
 182:C:/Users/stapi/OneDrive/Desktop/GD32VW553/GD32VW55X_Wifi_BLE_SDK/GD32VW55x_RELEASE_V1.0.2/MSDK/mbedtls/mbedtls-2.17.0-ssl/library\ssl_cache.c ****         if( oldest == 0 || cur->timestamp < oldest )
 183:C:/Users/stapi/OneDrive/Desktop/GD32VW553/GD32VW55X_Wifi_BLE_SDK/GD32VW55x_RELEASE_V1.0.2/MSDK/mbedtls/mbedtls-2.17.0-ssl/library\ssl_cache.c ****         {
 184:C:/Users/stapi/OneDrive/Desktop/GD32VW553/GD32VW55X_Wifi_BLE_SDK/GD32VW55x_RELEASE_V1.0.2/MSDK/mbedtls/mbedtls-2.17.0-ssl/library\ssl_cache.c ****             oldest = cur->timestamp;
 185:C:/Users/stapi/OneDrive/Desktop/GD32VW553/GD32VW55X_Wifi_BLE_SDK/GD32VW55x_RELEASE_V1.0.2/MSDK/mbedtls/mbedtls-2.17.0-ssl/library\ssl_cache.c ****             old = cur;
 186:C:/Users/stapi/OneDrive/Desktop/GD32VW553/GD32VW55X_Wifi_BLE_SDK/GD32VW55x_RELEASE_V1.0.2/MSDK/mbedtls/mbedtls-2.17.0-ssl/library\ssl_cache.c ****         }
 187:C:/Users/stapi/OneDrive/Desktop/GD32VW553/GD32VW55X_Wifi_BLE_SDK/GD32VW55x_RELEASE_V1.0.2/MSDK/mbedtls/mbedtls-2.17.0-ssl/library\ssl_cache.c **** #endif
 188:C:/Users/stapi/OneDrive/Desktop/GD32VW553/GD32VW55X_Wifi_BLE_SDK/GD32VW55x_RELEASE_V1.0.2/MSDK/mbedtls/mbedtls-2.17.0-ssl/library\ssl_cache.c **** 
 189:C:/Users/stapi/OneDrive/Desktop/GD32VW553/GD32VW55X_Wifi_BLE_SDK/GD32VW55x_RELEASE_V1.0.2/MSDK/mbedtls/mbedtls-2.17.0-ssl/library\ssl_cache.c ****         prv = cur;
 190:C:/Users/stapi/OneDrive/Desktop/GD32VW553/GD32VW55X_Wifi_BLE_SDK/GD32VW55x_RELEASE_V1.0.2/MSDK/mbedtls/mbedtls-2.17.0-ssl/library\ssl_cache.c ****         cur = cur->next;
 191:C:/Users/stapi/OneDrive/Desktop/GD32VW553/GD32VW55X_Wifi_BLE_SDK/GD32VW55x_RELEASE_V1.0.2/MSDK/mbedtls/mbedtls-2.17.0-ssl/library\ssl_cache.c ****     }
 192:C:/Users/stapi/OneDrive/Desktop/GD32VW553/GD32VW55X_Wifi_BLE_SDK/GD32VW55x_RELEASE_V1.0.2/MSDK/mbedtls/mbedtls-2.17.0-ssl/library\ssl_cache.c **** 
 193:C:/Users/stapi/OneDrive/Desktop/GD32VW553/GD32VW55X_Wifi_BLE_SDK/GD32VW55x_RELEASE_V1.0.2/MSDK/mbedtls/mbedtls-2.17.0-ssl/library\ssl_cache.c ****     if( cur == NULL )
 232              		.loc 1 193 5
 194:C:/Users/stapi/OneDrive/Desktop/GD32VW553/GD32VW55X_Wifi_BLE_SDK/GD32VW55x_RELEASE_V1.0.2/MSDK/mbedtls/mbedtls-2.17.0-ssl/library\ssl_cache.c ****     {
 195:C:/Users/stapi/OneDrive/Desktop/GD32VW553/GD32VW55X_Wifi_BLE_SDK/GD32VW55x_RELEASE_V1.0.2/MSDK/mbedtls/mbedtls-2.17.0-ssl/library\ssl_cache.c **** #if defined(MBEDTLS_HAVE_TIME)
 196:C:/Users/stapi/OneDrive/Desktop/GD32VW553/GD32VW55X_Wifi_BLE_SDK/GD32VW55x_RELEASE_V1.0.2/MSDK/mbedtls/mbedtls-2.17.0-ssl/library\ssl_cache.c ****         /*
 197:C:/Users/stapi/OneDrive/Desktop/GD32VW553/GD32VW55X_Wifi_BLE_SDK/GD32VW55x_RELEASE_V1.0.2/MSDK/mbedtls/mbedtls-2.17.0-ssl/library\ssl_cache.c ****          * Reuse oldest entry if max_entries reached
 198:C:/Users/stapi/OneDrive/Desktop/GD32VW553/GD32VW55X_Wifi_BLE_SDK/GD32VW55x_RELEASE_V1.0.2/MSDK/mbedtls/mbedtls-2.17.0-ssl/library\ssl_cache.c ****          */
 199:C:/Users/stapi/OneDrive/Desktop/GD32VW553/GD32VW55X_Wifi_BLE_SDK/GD32VW55x_RELEASE_V1.0.2/MSDK/mbedtls/mbedtls-2.17.0-ssl/library\ssl_cache.c ****         if( count >= cache->max_entries )
 233              		.loc 1 199 9
 234              		.loc 1 199 11 is_stmt 0
 235 002a 83278900 		lw	a5,8(s2)
 236 002e 63DEFB06 		ble	a5,s7,.L29
 200:C:/Users/stapi/OneDrive/Desktop/GD32VW553/GD32VW55X_Wifi_BLE_SDK/GD32VW55x_RELEASE_V1.0.2/MSDK/mbedtls/mbedtls-2.17.0-ssl/library\ssl_cache.c ****         {
 201:C:/Users/stapi/OneDrive/Desktop/GD32VW553/GD32VW55X_Wifi_BLE_SDK/GD32VW55x_RELEASE_V1.0.2/MSDK/mbedtls/mbedtls-2.17.0-ssl/library\ssl_cache.c ****             if( old == NULL )
 202:C:/Users/stapi/OneDrive/Desktop/GD32VW553/GD32VW55X_Wifi_BLE_SDK/GD32VW55x_RELEASE_V1.0.2/MSDK/mbedtls/mbedtls-2.17.0-ssl/library\ssl_cache.c ****             {
 203:C:/Users/stapi/OneDrive/Desktop/GD32VW553/GD32VW55X_Wifi_BLE_SDK/GD32VW55x_RELEASE_V1.0.2/MSDK/mbedtls/mbedtls-2.17.0-ssl/library\ssl_cache.c ****                 ret = 1;
 204:C:/Users/stapi/OneDrive/Desktop/GD32VW553/GD32VW55X_Wifi_BLE_SDK/GD32VW55x_RELEASE_V1.0.2/MSDK/mbedtls/mbedtls-2.17.0-ssl/library\ssl_cache.c ****                 goto exit;
 205:C:/Users/stapi/OneDrive/Desktop/GD32VW553/GD32VW55X_Wifi_BLE_SDK/GD32VW55x_RELEASE_V1.0.2/MSDK/mbedtls/mbedtls-2.17.0-ssl/library\ssl_cache.c ****             }
 206:C:/Users/stapi/OneDrive/Desktop/GD32VW553/GD32VW55X_Wifi_BLE_SDK/GD32VW55x_RELEASE_V1.0.2/MSDK/mbedtls/mbedtls-2.17.0-ssl/library\ssl_cache.c **** 
 207:C:/Users/stapi/OneDrive/Desktop/GD32VW553/GD32VW55X_Wifi_BLE_SDK/GD32VW55x_RELEASE_V1.0.2/MSDK/mbedtls/mbedtls-2.17.0-ssl/library\ssl_cache.c ****             cur = old;
 208:C:/Users/stapi/OneDrive/Desktop/GD32VW553/GD32VW55X_Wifi_BLE_SDK/GD32VW55x_RELEASE_V1.0.2/MSDK/mbedtls/mbedtls-2.17.0-ssl/library\ssl_cache.c ****         }
 209:C:/Users/stapi/OneDrive/Desktop/GD32VW553/GD32VW55X_Wifi_BLE_SDK/GD32VW55x_RELEASE_V1.0.2/MSDK/mbedtls/mbedtls-2.17.0-ssl/library\ssl_cache.c **** #else /* MBEDTLS_HAVE_TIME */
 210:C:/Users/stapi/OneDrive/Desktop/GD32VW553/GD32VW55X_Wifi_BLE_SDK/GD32VW55x_RELEASE_V1.0.2/MSDK/mbedtls/mbedtls-2.17.0-ssl/library\ssl_cache.c ****         /*
 211:C:/Users/stapi/OneDrive/Desktop/GD32VW553/GD32VW55X_Wifi_BLE_SDK/GD32VW55x_RELEASE_V1.0.2/MSDK/mbedtls/mbedtls-2.17.0-ssl/library\ssl_cache.c ****          * Reuse first entry in chain if max_entries reached,
 212:C:/Users/stapi/OneDrive/Desktop/GD32VW553/GD32VW55X_Wifi_BLE_SDK/GD32VW55x_RELEASE_V1.0.2/MSDK/mbedtls/mbedtls-2.17.0-ssl/library\ssl_cache.c ****          * but move to last place
 213:C:/Users/stapi/OneDrive/Desktop/GD32VW553/GD32VW55X_Wifi_BLE_SDK/GD32VW55x_RELEASE_V1.0.2/MSDK/mbedtls/mbedtls-2.17.0-ssl/library\ssl_cache.c ****          */
 214:C:/Users/stapi/OneDrive/Desktop/GD32VW553/GD32VW55X_Wifi_BLE_SDK/GD32VW55x_RELEASE_V1.0.2/MSDK/mbedtls/mbedtls-2.17.0-ssl/library\ssl_cache.c ****         if( count >= cache->max_entries )
 215:C:/Users/stapi/OneDrive/Desktop/GD32VW553/GD32VW55X_Wifi_BLE_SDK/GD32VW55x_RELEASE_V1.0.2/MSDK/mbedtls/mbedtls-2.17.0-ssl/library\ssl_cache.c ****         {
 216:C:/Users/stapi/OneDrive/Desktop/GD32VW553/GD32VW55X_Wifi_BLE_SDK/GD32VW55x_RELEASE_V1.0.2/MSDK/mbedtls/mbedtls-2.17.0-ssl/library\ssl_cache.c ****             if( cache->chain == NULL )
 217:C:/Users/stapi/OneDrive/Desktop/GD32VW553/GD32VW55X_Wifi_BLE_SDK/GD32VW55x_RELEASE_V1.0.2/MSDK/mbedtls/mbedtls-2.17.0-ssl/library\ssl_cache.c ****             {
 218:C:/Users/stapi/OneDrive/Desktop/GD32VW553/GD32VW55X_Wifi_BLE_SDK/GD32VW55x_RELEASE_V1.0.2/MSDK/mbedtls/mbedtls-2.17.0-ssl/library\ssl_cache.c ****                 ret = 1;
 219:C:/Users/stapi/OneDrive/Desktop/GD32VW553/GD32VW55X_Wifi_BLE_SDK/GD32VW55x_RELEASE_V1.0.2/MSDK/mbedtls/mbedtls-2.17.0-ssl/library\ssl_cache.c ****                 goto exit;
 220:C:/Users/stapi/OneDrive/Desktop/GD32VW553/GD32VW55X_Wifi_BLE_SDK/GD32VW55x_RELEASE_V1.0.2/MSDK/mbedtls/mbedtls-2.17.0-ssl/library\ssl_cache.c ****             }
 221:C:/Users/stapi/OneDrive/Desktop/GD32VW553/GD32VW55X_Wifi_BLE_SDK/GD32VW55x_RELEASE_V1.0.2/MSDK/mbedtls/mbedtls-2.17.0-ssl/library\ssl_cache.c **** 
 222:C:/Users/stapi/OneDrive/Desktop/GD32VW553/GD32VW55X_Wifi_BLE_SDK/GD32VW55x_RELEASE_V1.0.2/MSDK/mbedtls/mbedtls-2.17.0-ssl/library\ssl_cache.c ****             cur = cache->chain;
 223:C:/Users/stapi/OneDrive/Desktop/GD32VW553/GD32VW55X_Wifi_BLE_SDK/GD32VW55x_RELEASE_V1.0.2/MSDK/mbedtls/mbedtls-2.17.0-ssl/library\ssl_cache.c ****             cache->chain = cur->next;
 224:C:/Users/stapi/OneDrive/Desktop/GD32VW553/GD32VW55X_Wifi_BLE_SDK/GD32VW55x_RELEASE_V1.0.2/MSDK/mbedtls/mbedtls-2.17.0-ssl/library\ssl_cache.c ****             cur->next = NULL;
 225:C:/Users/stapi/OneDrive/Desktop/GD32VW553/GD32VW55X_Wifi_BLE_SDK/GD32VW55x_RELEASE_V1.0.2/MSDK/mbedtls/mbedtls-2.17.0-ssl/library\ssl_cache.c ****             prv->next = cur;
 226:C:/Users/stapi/OneDrive/Desktop/GD32VW553/GD32VW55X_Wifi_BLE_SDK/GD32VW55x_RELEASE_V1.0.2/MSDK/mbedtls/mbedtls-2.17.0-ssl/library\ssl_cache.c ****         }
 227:C:/Users/stapi/OneDrive/Desktop/GD32VW553/GD32VW55X_Wifi_BLE_SDK/GD32VW55x_RELEASE_V1.0.2/MSDK/mbedtls/mbedtls-2.17.0-ssl/library\ssl_cache.c **** #endif /* MBEDTLS_HAVE_TIME */
 228:C:/Users/stapi/OneDrive/Desktop/GD32VW553/GD32VW55X_Wifi_BLE_SDK/GD32VW55x_RELEASE_V1.0.2/MSDK/mbedtls/mbedtls-2.17.0-ssl/library\ssl_cache.c ****         else
 229:C:/Users/stapi/OneDrive/Desktop/GD32VW553/GD32VW55X_Wifi_BLE_SDK/GD32VW55x_RELEASE_V1.0.2/MSDK/mbedtls/mbedtls-2.17.0-ssl/library\ssl_cache.c ****         {
 230:C:/Users/stapi/OneDrive/Desktop/GD32VW553/GD32VW55X_Wifi_BLE_SDK/GD32VW55x_RELEASE_V1.0.2/MSDK/mbedtls/mbedtls-2.17.0-ssl/library\ssl_cache.c ****             /*
 231:C:/Users/stapi/OneDrive/Desktop/GD32VW553/GD32VW55X_Wifi_BLE_SDK/GD32VW55x_RELEASE_V1.0.2/MSDK/mbedtls/mbedtls-2.17.0-ssl/library\ssl_cache.c ****              * max_entries not reached, create new entry
 232:C:/Users/stapi/OneDrive/Desktop/GD32VW553/GD32VW55X_Wifi_BLE_SDK/GD32VW55x_RELEASE_V1.0.2/MSDK/mbedtls/mbedtls-2.17.0-ssl/library\ssl_cache.c ****              */
 233:C:/Users/stapi/OneDrive/Desktop/GD32VW553/GD32VW55X_Wifi_BLE_SDK/GD32VW55x_RELEASE_V1.0.2/MSDK/mbedtls/mbedtls-2.17.0-ssl/library\ssl_cache.c ****             cur = mbedtls_calloc( 1, sizeof(mbedtls_ssl_cache_entry) );
 237              		.loc 1 233 13 is_stmt 1
 238              		.loc 1 233 19 is_stmt 0
 239 0032 93050009 		li	a1,144
 240 0036 0545     		li	a0,1
 241 0038 97000000 		call	mbedtls_calloc
 241      E7800000 
 242              	.LVL21:
 243 0040 AA84     		mv	s1,a0
 244              	.LVL22:
 234:C:/Users/stapi/OneDrive/Desktop/GD32VW553/GD32VW55X_Wifi_BLE_SDK/GD32VW55x_RELEASE_V1.0.2/MSDK/mbedtls/mbedtls-2.17.0-ssl/library\ssl_cache.c ****             if( cur == NULL )
 245              		.loc 1 234 13 is_stmt 1
 246              		.loc 1 234 15 is_stmt 0
 247 0042 2DC5     		beq	a0,zero,.L27
 235:C:/Users/stapi/OneDrive/Desktop/GD32VW553/GD32VW55X_Wifi_BLE_SDK/GD32VW55x_RELEASE_V1.0.2/MSDK/mbedtls/mbedtls-2.17.0-ssl/library\ssl_cache.c ****             {
 236:C:/Users/stapi/OneDrive/Desktop/GD32VW553/GD32VW55X_Wifi_BLE_SDK/GD32VW55x_RELEASE_V1.0.2/MSDK/mbedtls/mbedtls-2.17.0-ssl/library\ssl_cache.c ****                 ret = 1;
 237:C:/Users/stapi/OneDrive/Desktop/GD32VW553/GD32VW55X_Wifi_BLE_SDK/GD32VW55x_RELEASE_V1.0.2/MSDK/mbedtls/mbedtls-2.17.0-ssl/library\ssl_cache.c ****                 goto exit;
 238:C:/Users/stapi/OneDrive/Desktop/GD32VW553/GD32VW55X_Wifi_BLE_SDK/GD32VW55x_RELEASE_V1.0.2/MSDK/mbedtls/mbedtls-2.17.0-ssl/library\ssl_cache.c ****             }
 239:C:/Users/stapi/OneDrive/Desktop/GD32VW553/GD32VW55X_Wifi_BLE_SDK/GD32VW55x_RELEASE_V1.0.2/MSDK/mbedtls/mbedtls-2.17.0-ssl/library\ssl_cache.c **** 
 240:C:/Users/stapi/OneDrive/Desktop/GD32VW553/GD32VW55X_Wifi_BLE_SDK/GD32VW55x_RELEASE_V1.0.2/MSDK/mbedtls/mbedtls-2.17.0-ssl/library\ssl_cache.c ****             if( prv == NULL )
 248              		.loc 1 240 13 is_stmt 1
 249              		.loc 1 240 15 is_stmt 0
 250 0044 63190B06 		bne	s6,zero,.L28
 241:C:/Users/stapi/OneDrive/Desktop/GD32VW553/GD32VW55X_Wifi_BLE_SDK/GD32VW55x_RELEASE_V1.0.2/MSDK/mbedtls/mbedtls-2.17.0-ssl/library\ssl_cache.c ****                 cache->chain = cur;
 251              		.loc 1 241 17 is_stmt 1
 252              		.loc 1 241 30 is_stmt 0
 253 0048 2320A900 		sw	a0,0(s2)
 254              	.LVL23:
 255              	.L25:
 242:C:/Users/stapi/OneDrive/Desktop/GD32VW553/GD32VW55X_Wifi_BLE_SDK/GD32VW55x_RELEASE_V1.0.2/MSDK/mbedtls/mbedtls-2.17.0-ssl/library\ssl_cache.c ****             else
 243:C:/Users/stapi/OneDrive/Desktop/GD32VW553/GD32VW55X_Wifi_BLE_SDK/GD32VW55x_RELEASE_V1.0.2/MSDK/mbedtls/mbedtls-2.17.0-ssl/library\ssl_cache.c ****                 prv->next = cur;
 244:C:/Users/stapi/OneDrive/Desktop/GD32VW553/GD32VW55X_Wifi_BLE_SDK/GD32VW55x_RELEASE_V1.0.2/MSDK/mbedtls/mbedtls-2.17.0-ssl/library\ssl_cache.c ****         }
 245:C:/Users/stapi/OneDrive/Desktop/GD32VW553/GD32VW55X_Wifi_BLE_SDK/GD32VW55x_RELEASE_V1.0.2/MSDK/mbedtls/mbedtls-2.17.0-ssl/library\ssl_cache.c **** 
 246:C:/Users/stapi/OneDrive/Desktop/GD32VW553/GD32VW55X_Wifi_BLE_SDK/GD32VW55x_RELEASE_V1.0.2/MSDK/mbedtls/mbedtls-2.17.0-ssl/library\ssl_cache.c **** #if defined(MBEDTLS_HAVE_TIME)
 247:C:/Users/stapi/OneDrive/Desktop/GD32VW553/GD32VW55X_Wifi_BLE_SDK/GD32VW55x_RELEASE_V1.0.2/MSDK/mbedtls/mbedtls-2.17.0-ssl/library\ssl_cache.c ****         cur->timestamp = t;
 256              		.loc 1 247 9 is_stmt 1
 257              		.loc 1 247 24 is_stmt 0
 258 004c 23A03401 		sw	s3,0(s1)
 259 0050 2684     		mv	s0,s1
 260 0052 21A8     		j	.L21
 261              	.LVL24:
 262              	.L23:
 167:C:/Users/stapi/OneDrive/Desktop/GD32VW553/GD32VW55X_Wifi_BLE_SDK/GD32VW55x_RELEASE_V1.0.2/MSDK/mbedtls/mbedtls-2.17.0-ssl/library\ssl_cache.c **** 
 263              		.loc 1 167 9 is_stmt 1
 170:C:/Users/stapi/OneDrive/Desktop/GD32VW553/GD32VW55X_Wifi_BLE_SDK/GD32VW55x_RELEASE_V1.0.2/MSDK/mbedtls/mbedtls-2.17.0-ssl/library\ssl_cache.c ****             (int) ( t - cur->timestamp ) > cache->timeout )
 264              		.loc 1 170 18 is_stmt 0
 265 0054 03274900 		lw	a4,4(s2)
 167:C:/Users/stapi/OneDrive/Desktop/GD32VW553/GD32VW55X_Wifi_BLE_SDK/GD32VW55x_RELEASE_V1.0.2/MSDK/mbedtls/mbedtls-2.17.0-ssl/library\ssl_cache.c **** 
 266              		.loc 1 167 14
 267 0058 850B     		addi	s7,s7,1
 268              	.LVL25:
 170:C:/Users/stapi/OneDrive/Desktop/GD32VW553/GD32VW55X_Wifi_BLE_SDK/GD32VW55x_RELEASE_V1.0.2/MSDK/mbedtls/mbedtls-2.17.0-ssl/library\ssl_cache.c ****             (int) ( t - cur->timestamp ) > cache->timeout )
 269              		.loc 1 170 9 is_stmt 1
 170:C:/Users/stapi/OneDrive/Desktop/GD32VW553/GD32VW55X_Wifi_BLE_SDK/GD32VW55x_RELEASE_V1.0.2/MSDK/mbedtls/mbedtls-2.17.0-ssl/library\ssl_cache.c ****             (int) ( t - cur->timestamp ) > cache->timeout )
 270              		.loc 1 170 11 is_stmt 0
 271 005a 15C3     		beq	a4,zero,.L20
 171:C:/Users/stapi/OneDrive/Desktop/GD32VW553/GD32VW55X_Wifi_BLE_SDK/GD32VW55x_RELEASE_V1.0.2/MSDK/mbedtls/mbedtls-2.17.0-ssl/library\ssl_cache.c ****         {
 272              		.loc 1 171 23 discriminator 1
 273 005c 1C40     		lw	a5,0(s0)
 274 005e B387F940 		sub	a5,s3,a5
 170:C:/Users/stapi/OneDrive/Desktop/GD32VW553/GD32VW55X_Wifi_BLE_SDK/GD32VW55x_RELEASE_V1.0.2/MSDK/mbedtls/mbedtls-2.17.0-ssl/library\ssl_cache.c ****             (int) ( t - cur->timestamp ) > cache->timeout )
 275              		.loc 1 170 33 discriminator 1
 276 0062 635EF700 		bge	a4,a5,.L20
 173:C:/Users/stapi/OneDrive/Desktop/GD32VW553/GD32VW55X_Wifi_BLE_SDK/GD32VW55x_RELEASE_V1.0.2/MSDK/mbedtls/mbedtls-2.17.0-ssl/library\ssl_cache.c ****             break; /* expired, reuse this slot, update timestamp */
 277              		.loc 1 173 13 is_stmt 1
 173:C:/Users/stapi/OneDrive/Desktop/GD32VW553/GD32VW55X_Wifi_BLE_SDK/GD32VW55x_RELEASE_V1.0.2/MSDK/mbedtls/mbedtls-2.17.0-ssl/library\ssl_cache.c ****             break; /* expired, reuse this slot, update timestamp */
 278              		.loc 1 173 28 is_stmt 0
 279 0066 23203401 		sw	s3,0(s0)
 174:C:/Users/stapi/OneDrive/Desktop/GD32VW553/GD32VW55X_Wifi_BLE_SDK/GD32VW55x_RELEASE_V1.0.2/MSDK/mbedtls/mbedtls-2.17.0-ssl/library\ssl_cache.c ****         }
 280              		.loc 1 174 13 is_stmt 1
 281              	.LVL26:
 282              	.L21:
 283              	.L26:
 248:C:/Users/stapi/OneDrive/Desktop/GD32VW553/GD32VW55X_Wifi_BLE_SDK/GD32VW55x_RELEASE_V1.0.2/MSDK/mbedtls/mbedtls-2.17.0-ssl/library\ssl_cache.c **** #endif
 249:C:/Users/stapi/OneDrive/Desktop/GD32VW553/GD32VW55X_Wifi_BLE_SDK/GD32VW55x_RELEASE_V1.0.2/MSDK/mbedtls/mbedtls-2.17.0-ssl/library\ssl_cache.c ****     }
 250:C:/Users/stapi/OneDrive/Desktop/GD32VW553/GD32VW55X_Wifi_BLE_SDK/GD32VW55x_RELEASE_V1.0.2/MSDK/mbedtls/mbedtls-2.17.0-ssl/library\ssl_cache.c **** 
 251:C:/Users/stapi/OneDrive/Desktop/GD32VW553/GD32VW55X_Wifi_BLE_SDK/GD32VW55x_RELEASE_V1.0.2/MSDK/mbedtls/mbedtls-2.17.0-ssl/library\ssl_cache.c **** #if defined(MBEDTLS_X509_CRT_PARSE_C) && \
 252:C:/Users/stapi/OneDrive/Desktop/GD32VW553/GD32VW55X_Wifi_BLE_SDK/GD32VW55x_RELEASE_V1.0.2/MSDK/mbedtls/mbedtls-2.17.0-ssl/library\ssl_cache.c ****     defined(MBEDTLS_SSL_KEEP_PEER_CERTIFICATE)
 253:C:/Users/stapi/OneDrive/Desktop/GD32VW553/GD32VW55X_Wifi_BLE_SDK/GD32VW55x_RELEASE_V1.0.2/MSDK/mbedtls/mbedtls-2.17.0-ssl/library\ssl_cache.c ****     /*
 254:C:/Users/stapi/OneDrive/Desktop/GD32VW553/GD32VW55X_Wifi_BLE_SDK/GD32VW55x_RELEASE_V1.0.2/MSDK/mbedtls/mbedtls-2.17.0-ssl/library\ssl_cache.c ****      * If we're reusing an entry, free its certificate first
 255:C:/Users/stapi/OneDrive/Desktop/GD32VW553/GD32VW55X_Wifi_BLE_SDK/GD32VW55x_RELEASE_V1.0.2/MSDK/mbedtls/mbedtls-2.17.0-ssl/library\ssl_cache.c ****      */
 256:C:/Users/stapi/OneDrive/Desktop/GD32VW553/GD32VW55X_Wifi_BLE_SDK/GD32VW55x_RELEASE_V1.0.2/MSDK/mbedtls/mbedtls-2.17.0-ssl/library\ssl_cache.c ****     if( cur->peer_cert.p != NULL )
 257:C:/Users/stapi/OneDrive/Desktop/GD32VW553/GD32VW55X_Wifi_BLE_SDK/GD32VW55x_RELEASE_V1.0.2/MSDK/mbedtls/mbedtls-2.17.0-ssl/library\ssl_cache.c ****     {
 258:C:/Users/stapi/OneDrive/Desktop/GD32VW553/GD32VW55X_Wifi_BLE_SDK/GD32VW55x_RELEASE_V1.0.2/MSDK/mbedtls/mbedtls-2.17.0-ssl/library\ssl_cache.c ****         mbedtls_free( cur->peer_cert.p );
 259:C:/Users/stapi/OneDrive/Desktop/GD32VW553/GD32VW55X_Wifi_BLE_SDK/GD32VW55x_RELEASE_V1.0.2/MSDK/mbedtls/mbedtls-2.17.0-ssl/library\ssl_cache.c ****         memset( &cur->peer_cert, 0, sizeof(mbedtls_x509_buf) );
 260:C:/Users/stapi/OneDrive/Desktop/GD32VW553/GD32VW55X_Wifi_BLE_SDK/GD32VW55x_RELEASE_V1.0.2/MSDK/mbedtls/mbedtls-2.17.0-ssl/library\ssl_cache.c ****     }
 261:C:/Users/stapi/OneDrive/Desktop/GD32VW553/GD32VW55X_Wifi_BLE_SDK/GD32VW55x_RELEASE_V1.0.2/MSDK/mbedtls/mbedtls-2.17.0-ssl/library\ssl_cache.c **** #endif /* MBEDTLS_X509_CRT_PARSE_C && MBEDTLS_SSL_KEEP_PEER_CERTIFICATE */
 262:C:/Users/stapi/OneDrive/Desktop/GD32VW553/GD32VW55X_Wifi_BLE_SDK/GD32VW55x_RELEASE_V1.0.2/MSDK/mbedtls/mbedtls-2.17.0-ssl/library\ssl_cache.c **** 
 263:C:/Users/stapi/OneDrive/Desktop/GD32VW553/GD32VW55X_Wifi_BLE_SDK/GD32VW55x_RELEASE_V1.0.2/MSDK/mbedtls/mbedtls-2.17.0-ssl/library\ssl_cache.c ****     /* Copy the entire session; this temporarily makes a copy of the
 264:C:/Users/stapi/OneDrive/Desktop/GD32VW553/GD32VW55X_Wifi_BLE_SDK/GD32VW55x_RELEASE_V1.0.2/MSDK/mbedtls/mbedtls-2.17.0-ssl/library\ssl_cache.c ****      * X.509 CRT structure even though we only want to store the raw CRT.
 265:C:/Users/stapi/OneDrive/Desktop/GD32VW553/GD32VW55X_Wifi_BLE_SDK/GD32VW55x_RELEASE_V1.0.2/MSDK/mbedtls/mbedtls-2.17.0-ssl/library\ssl_cache.c ****      * This inefficiency will go away as soon as we implement on-demand
 266:C:/Users/stapi/OneDrive/Desktop/GD32VW553/GD32VW55X_Wifi_BLE_SDK/GD32VW55x_RELEASE_V1.0.2/MSDK/mbedtls/mbedtls-2.17.0-ssl/library\ssl_cache.c ****      * parsing of CRTs, in which case there's no need for the `peer_cert`
 267:C:/Users/stapi/OneDrive/Desktop/GD32VW553/GD32VW55X_Wifi_BLE_SDK/GD32VW55x_RELEASE_V1.0.2/MSDK/mbedtls/mbedtls-2.17.0-ssl/library\ssl_cache.c ****      * field anymore in the first place, and we're done after this call. */
 268:C:/Users/stapi/OneDrive/Desktop/GD32VW553/GD32VW55X_Wifi_BLE_SDK/GD32VW55x_RELEASE_V1.0.2/MSDK/mbedtls/mbedtls-2.17.0-ssl/library\ssl_cache.c ****     ret = mbedtls_ssl_session_copy( &cur->session, session );
 284              		.loc 1 268 5
 285              		.loc 1 268 11 is_stmt 0
 286 006a D285     		mv	a1,s4
 287 006c 13054400 		addi	a0,s0,4
 288 0070 97000000 		call	mbedtls_ssl_session_copy
 288      E7800000 
 289              	.LVL27:
 269:C:/Users/stapi/OneDrive/Desktop/GD32VW553/GD32VW55X_Wifi_BLE_SDK/GD32VW55x_RELEASE_V1.0.2/MSDK/mbedtls/mbedtls-2.17.0-ssl/library\ssl_cache.c ****     if( ret != 0 )
 290              		.loc 1 269 5 is_stmt 1
 291              		.loc 1 269 7 is_stmt 0
 292 0078 3335A000 		snez	a0,a0
 293              	.LVL28:
 270:C:/Users/stapi/OneDrive/Desktop/GD32VW553/GD32VW55X_Wifi_BLE_SDK/GD32VW55x_RELEASE_V1.0.2/MSDK/mbedtls/mbedtls-2.17.0-ssl/library\ssl_cache.c ****     {
 271:C:/Users/stapi/OneDrive/Desktop/GD32VW553/GD32VW55X_Wifi_BLE_SDK/GD32VW55x_RELEASE_V1.0.2/MSDK/mbedtls/mbedtls-2.17.0-ssl/library\ssl_cache.c ****         ret = 1;
 272:C:/Users/stapi/OneDrive/Desktop/GD32VW553/GD32VW55X_Wifi_BLE_SDK/GD32VW55x_RELEASE_V1.0.2/MSDK/mbedtls/mbedtls-2.17.0-ssl/library\ssl_cache.c ****         goto exit;
 273:C:/Users/stapi/OneDrive/Desktop/GD32VW553/GD32VW55X_Wifi_BLE_SDK/GD32VW55x_RELEASE_V1.0.2/MSDK/mbedtls/mbedtls-2.17.0-ssl/library\ssl_cache.c ****     }
 274:C:/Users/stapi/OneDrive/Desktop/GD32VW553/GD32VW55X_Wifi_BLE_SDK/GD32VW55x_RELEASE_V1.0.2/MSDK/mbedtls/mbedtls-2.17.0-ssl/library\ssl_cache.c **** 
 275:C:/Users/stapi/OneDrive/Desktop/GD32VW553/GD32VW55X_Wifi_BLE_SDK/GD32VW55x_RELEASE_V1.0.2/MSDK/mbedtls/mbedtls-2.17.0-ssl/library\ssl_cache.c **** #if defined(MBEDTLS_X509_CRT_PARSE_C) && \
 276:C:/Users/stapi/OneDrive/Desktop/GD32VW553/GD32VW55X_Wifi_BLE_SDK/GD32VW55x_RELEASE_V1.0.2/MSDK/mbedtls/mbedtls-2.17.0-ssl/library\ssl_cache.c ****     defined(MBEDTLS_SSL_KEEP_PEER_CERTIFICATE)
 277:C:/Users/stapi/OneDrive/Desktop/GD32VW553/GD32VW55X_Wifi_BLE_SDK/GD32VW55x_RELEASE_V1.0.2/MSDK/mbedtls/mbedtls-2.17.0-ssl/library\ssl_cache.c ****     /* If present, free the X.509 structure and only store the raw CRT data. */
 278:C:/Users/stapi/OneDrive/Desktop/GD32VW553/GD32VW55X_Wifi_BLE_SDK/GD32VW55x_RELEASE_V1.0.2/MSDK/mbedtls/mbedtls-2.17.0-ssl/library\ssl_cache.c ****     if( cur->session.peer_cert != NULL )
 279:C:/Users/stapi/OneDrive/Desktop/GD32VW553/GD32VW55X_Wifi_BLE_SDK/GD32VW55x_RELEASE_V1.0.2/MSDK/mbedtls/mbedtls-2.17.0-ssl/library\ssl_cache.c ****     {
 280:C:/Users/stapi/OneDrive/Desktop/GD32VW553/GD32VW55X_Wifi_BLE_SDK/GD32VW55x_RELEASE_V1.0.2/MSDK/mbedtls/mbedtls-2.17.0-ssl/library\ssl_cache.c ****         cur->peer_cert.p =
 281:C:/Users/stapi/OneDrive/Desktop/GD32VW553/GD32VW55X_Wifi_BLE_SDK/GD32VW55x_RELEASE_V1.0.2/MSDK/mbedtls/mbedtls-2.17.0-ssl/library\ssl_cache.c ****             mbedtls_calloc( 1, cur->session.peer_cert->raw.len );
 282:C:/Users/stapi/OneDrive/Desktop/GD32VW553/GD32VW55X_Wifi_BLE_SDK/GD32VW55x_RELEASE_V1.0.2/MSDK/mbedtls/mbedtls-2.17.0-ssl/library\ssl_cache.c ****         if( cur->peer_cert.p == NULL )
 283:C:/Users/stapi/OneDrive/Desktop/GD32VW553/GD32VW55X_Wifi_BLE_SDK/GD32VW55x_RELEASE_V1.0.2/MSDK/mbedtls/mbedtls-2.17.0-ssl/library\ssl_cache.c ****         {
 284:C:/Users/stapi/OneDrive/Desktop/GD32VW553/GD32VW55X_Wifi_BLE_SDK/GD32VW55x_RELEASE_V1.0.2/MSDK/mbedtls/mbedtls-2.17.0-ssl/library\ssl_cache.c ****             ret = 1;
 285:C:/Users/stapi/OneDrive/Desktop/GD32VW553/GD32VW55X_Wifi_BLE_SDK/GD32VW55x_RELEASE_V1.0.2/MSDK/mbedtls/mbedtls-2.17.0-ssl/library\ssl_cache.c ****             goto exit;
 286:C:/Users/stapi/OneDrive/Desktop/GD32VW553/GD32VW55X_Wifi_BLE_SDK/GD32VW55x_RELEASE_V1.0.2/MSDK/mbedtls/mbedtls-2.17.0-ssl/library\ssl_cache.c ****         }
 287:C:/Users/stapi/OneDrive/Desktop/GD32VW553/GD32VW55X_Wifi_BLE_SDK/GD32VW55x_RELEASE_V1.0.2/MSDK/mbedtls/mbedtls-2.17.0-ssl/library\ssl_cache.c **** 
 288:C:/Users/stapi/OneDrive/Desktop/GD32VW553/GD32VW55X_Wifi_BLE_SDK/GD32VW55x_RELEASE_V1.0.2/MSDK/mbedtls/mbedtls-2.17.0-ssl/library\ssl_cache.c ****         memcpy( cur->peer_cert.p,
 289:C:/Users/stapi/OneDrive/Desktop/GD32VW553/GD32VW55X_Wifi_BLE_SDK/GD32VW55x_RELEASE_V1.0.2/MSDK/mbedtls/mbedtls-2.17.0-ssl/library\ssl_cache.c ****                 cur->session.peer_cert->raw.p,
 290:C:/Users/stapi/OneDrive/Desktop/GD32VW553/GD32VW55X_Wifi_BLE_SDK/GD32VW55x_RELEASE_V1.0.2/MSDK/mbedtls/mbedtls-2.17.0-ssl/library\ssl_cache.c ****                 cur->session.peer_cert->raw.len );
 291:C:/Users/stapi/OneDrive/Desktop/GD32VW553/GD32VW55X_Wifi_BLE_SDK/GD32VW55x_RELEASE_V1.0.2/MSDK/mbedtls/mbedtls-2.17.0-ssl/library\ssl_cache.c ****         cur->peer_cert.len = session->peer_cert->raw.len;
 292:C:/Users/stapi/OneDrive/Desktop/GD32VW553/GD32VW55X_Wifi_BLE_SDK/GD32VW55x_RELEASE_V1.0.2/MSDK/mbedtls/mbedtls-2.17.0-ssl/library\ssl_cache.c **** 
 293:C:/Users/stapi/OneDrive/Desktop/GD32VW553/GD32VW55X_Wifi_BLE_SDK/GD32VW55x_RELEASE_V1.0.2/MSDK/mbedtls/mbedtls-2.17.0-ssl/library\ssl_cache.c ****         mbedtls_x509_crt_free( cur->session.peer_cert );
 294:C:/Users/stapi/OneDrive/Desktop/GD32VW553/GD32VW55X_Wifi_BLE_SDK/GD32VW55x_RELEASE_V1.0.2/MSDK/mbedtls/mbedtls-2.17.0-ssl/library\ssl_cache.c ****         mbedtls_free( cur->session.peer_cert );
 295:C:/Users/stapi/OneDrive/Desktop/GD32VW553/GD32VW55X_Wifi_BLE_SDK/GD32VW55x_RELEASE_V1.0.2/MSDK/mbedtls/mbedtls-2.17.0-ssl/library\ssl_cache.c ****         cur->session.peer_cert = NULL;
 296:C:/Users/stapi/OneDrive/Desktop/GD32VW553/GD32VW55X_Wifi_BLE_SDK/GD32VW55x_RELEASE_V1.0.2/MSDK/mbedtls/mbedtls-2.17.0-ssl/library\ssl_cache.c ****     }
 297:C:/Users/stapi/OneDrive/Desktop/GD32VW553/GD32VW55X_Wifi_BLE_SDK/GD32VW55x_RELEASE_V1.0.2/MSDK/mbedtls/mbedtls-2.17.0-ssl/library\ssl_cache.c **** #endif /* MBEDTLS_X509_CRT_PARSE_C && MBEDTLS_SSL_KEEP_PEER_CERTIFICATE */
 298:C:/Users/stapi/OneDrive/Desktop/GD32VW553/GD32VW55X_Wifi_BLE_SDK/GD32VW55x_RELEASE_V1.0.2/MSDK/mbedtls/mbedtls-2.17.0-ssl/library\ssl_cache.c **** 
 299:C:/Users/stapi/OneDrive/Desktop/GD32VW553/GD32VW55X_Wifi_BLE_SDK/GD32VW55x_RELEASE_V1.0.2/MSDK/mbedtls/mbedtls-2.17.0-ssl/library\ssl_cache.c ****     ret = 0;
 300:C:/Users/stapi/OneDrive/Desktop/GD32VW553/GD32VW55X_Wifi_BLE_SDK/GD32VW55x_RELEASE_V1.0.2/MSDK/mbedtls/mbedtls-2.17.0-ssl/library\ssl_cache.c **** 
 301:C:/Users/stapi/OneDrive/Desktop/GD32VW553/GD32VW55X_Wifi_BLE_SDK/GD32VW55x_RELEASE_V1.0.2/MSDK/mbedtls/mbedtls-2.17.0-ssl/library\ssl_cache.c **** exit:
 302:C:/Users/stapi/OneDrive/Desktop/GD32VW553/GD32VW55X_Wifi_BLE_SDK/GD32VW55x_RELEASE_V1.0.2/MSDK/mbedtls/mbedtls-2.17.0-ssl/library\ssl_cache.c **** #if defined(MBEDTLS_THREADING_C)
 303:C:/Users/stapi/OneDrive/Desktop/GD32VW553/GD32VW55X_Wifi_BLE_SDK/GD32VW55x_RELEASE_V1.0.2/MSDK/mbedtls/mbedtls-2.17.0-ssl/library\ssl_cache.c ****     if( mbedtls_mutex_unlock( &cache->mutex ) != 0 )
 304:C:/Users/stapi/OneDrive/Desktop/GD32VW553/GD32VW55X_Wifi_BLE_SDK/GD32VW55x_RELEASE_V1.0.2/MSDK/mbedtls/mbedtls-2.17.0-ssl/library\ssl_cache.c ****         ret = 1;
 305:C:/Users/stapi/OneDrive/Desktop/GD32VW553/GD32VW55X_Wifi_BLE_SDK/GD32VW55x_RELEASE_V1.0.2/MSDK/mbedtls/mbedtls-2.17.0-ssl/library\ssl_cache.c **** #endif
 306:C:/Users/stapi/OneDrive/Desktop/GD32VW553/GD32VW55X_Wifi_BLE_SDK/GD32VW55x_RELEASE_V1.0.2/MSDK/mbedtls/mbedtls-2.17.0-ssl/library\ssl_cache.c **** 
 307:C:/Users/stapi/OneDrive/Desktop/GD32VW553/GD32VW55X_Wifi_BLE_SDK/GD32VW55x_RELEASE_V1.0.2/MSDK/mbedtls/mbedtls-2.17.0-ssl/library\ssl_cache.c ****     return( ret );
 294              		.loc 1 307 5 is_stmt 1
 295              		.loc 1 307 11 is_stmt 0
 296 007c 0DA8     		j	.L18
 297              	.LVL29:
 298              	.L20:
 178:C:/Users/stapi/OneDrive/Desktop/GD32VW553/GD32VW55X_Wifi_BLE_SDK/GD32VW55x_RELEASE_V1.0.2/MSDK/mbedtls/mbedtls-2.17.0-ssl/library\ssl_cache.c ****             break; /* client reconnected, keep timestamp for session id */
 299              		.loc 1 178 9 is_stmt 1
 178:C:/Users/stapi/OneDrive/Desktop/GD32VW553/GD32VW55X_Wifi_BLE_SDK/GD32VW55x_RELEASE_V1.0.2/MSDK/mbedtls/mbedtls-2.17.0-ssl/library\ssl_cache.c ****             break; /* client reconnected, keep timestamp for session id */
 300              		.loc 1 178 13 is_stmt 0
 301 007e 1048     		lw	a2,16(s0)
 302 0080 93054401 		addi	a1,s0,20
 303 0084 6285     		mv	a0,s8
 304 0086 97000000 		call	memcmp
 304      E7800000 
 305              	.LVL30:
 178:C:/Users/stapi/OneDrive/Desktop/GD32VW553/GD32VW55X_Wifi_BLE_SDK/GD32VW55x_RELEASE_V1.0.2/MSDK/mbedtls/mbedtls-2.17.0-ssl/library\ssl_cache.c ****             break; /* client reconnected, keep timestamp for session id */
 306              		.loc 1 178 11
 307 008e 71DD     		beq	a0,zero,.L21
 182:C:/Users/stapi/OneDrive/Desktop/GD32VW553/GD32VW55X_Wifi_BLE_SDK/GD32VW55x_RELEASE_V1.0.2/MSDK/mbedtls/mbedtls-2.17.0-ssl/library\ssl_cache.c ****         {
 308              		.loc 1 182 9 is_stmt 1
 171:C:/Users/stapi/OneDrive/Desktop/GD32VW553/GD32VW55X_Wifi_BLE_SDK/GD32VW55x_RELEASE_V1.0.2/MSDK/mbedtls/mbedtls-2.17.0-ssl/library\ssl_cache.c ****         {
 309              		.loc 1 171 28 is_stmt 0
 310 0090 1C40     		lw	a5,0(s0)
 182:C:/Users/stapi/OneDrive/Desktop/GD32VW553/GD32VW55X_Wifi_BLE_SDK/GD32VW55x_RELEASE_V1.0.2/MSDK/mbedtls/mbedtls-2.17.0-ssl/library\ssl_cache.c ****         {
 311              		.loc 1 182 11
 312 0092 638A0A00 		beq	s5,zero,.L32
 182:C:/Users/stapi/OneDrive/Desktop/GD32VW553/GD32VW55X_Wifi_BLE_SDK/GD32VW55x_RELEASE_V1.0.2/MSDK/mbedtls/mbedtls-2.17.0-ssl/library\ssl_cache.c ****         {
 313              		.loc 1 182 25 discriminator 1
 314 0096 63E85701 		bgtu	s5,a5,.L32
 182:C:/Users/stapi/OneDrive/Desktop/GD32VW553/GD32VW55X_Wifi_BLE_SDK/GD32VW55x_RELEASE_V1.0.2/MSDK/mbedtls/mbedtls-2.17.0-ssl/library\ssl_cache.c ****         {
 315              		.loc 1 182 25
 316 009a D687     		mv	a5,s5
 317              	.LVL31:
 318              	.L22:
 189:C:/Users/stapi/OneDrive/Desktop/GD32VW553/GD32VW55X_Wifi_BLE_SDK/GD32VW55x_RELEASE_V1.0.2/MSDK/mbedtls/mbedtls-2.17.0-ssl/library\ssl_cache.c ****         cur = cur->next;
 319              		.loc 1 189 9 is_stmt 1
 190:C:/Users/stapi/OneDrive/Desktop/GD32VW553/GD32VW55X_Wifi_BLE_SDK/GD32VW55x_RELEASE_V1.0.2/MSDK/mbedtls/mbedtls-2.17.0-ssl/library\ssl_cache.c ****     }
 320              		.loc 1 190 9
 190:C:/Users/stapi/OneDrive/Desktop/GD32VW553/GD32VW55X_Wifi_BLE_SDK/GD32VW55x_RELEASE_V1.0.2/MSDK/mbedtls/mbedtls-2.17.0-ssl/library\ssl_cache.c ****     }
 321              		.loc 1 190 13 is_stmt 0
 322 009c 228B     		mv	s6,s0
 323 009e BE8A     		mv	s5,a5
 324 00a0 0324C408 		lw	s0,140(s0)
 325              	.LVL32:
 326 00a4 51B7     		j	.L19
 327              	.LVL33:
 328              	.L32:
 329 00a6 A284     		mv	s1,s0
 330              	.LVL34:
 331 00a8 D5BF     		j	.L22
 332              	.LVL35:
 333              	.L29:
 201:C:/Users/stapi/OneDrive/Desktop/GD32VW553/GD32VW55X_Wifi_BLE_SDK/GD32VW55x_RELEASE_V1.0.2/MSDK/mbedtls/mbedtls-2.17.0-ssl/library\ssl_cache.c ****             {
 334              		.loc 1 201 13 is_stmt 1
 201:C:/Users/stapi/OneDrive/Desktop/GD32VW553/GD32VW55X_Wifi_BLE_SDK/GD32VW55x_RELEASE_V1.0.2/MSDK/mbedtls/mbedtls-2.17.0-ssl/library\ssl_cache.c ****             {
 335              		.loc 1 201 15 is_stmt 0
 336 00aa CDF0     		bne	s1,zero,.L25
 337              	.LVL36:
 338              	.L27:
 203:C:/Users/stapi/OneDrive/Desktop/GD32VW553/GD32VW55X_Wifi_BLE_SDK/GD32VW55x_RELEASE_V1.0.2/MSDK/mbedtls/mbedtls-2.17.0-ssl/library\ssl_cache.c ****                 goto exit;
 339              		.loc 1 203 21
 340 00ac 0545     		li	a0,1
 341              	.LVL37:
 342              	.L18:
 308:C:/Users/stapi/OneDrive/Desktop/GD32VW553/GD32VW55X_Wifi_BLE_SDK/GD32VW55x_RELEASE_V1.0.2/MSDK/mbedtls/mbedtls-2.17.0-ssl/library\ssl_cache.c **** }
 343              		.loc 1 308 1
 344 00ae 17030000 		tail	__riscv_restore_9
 344      67000300 
 345              		.cfi_remember_state
 346              		.cfi_restore 24
 347              		.cfi_restore 23
 348              		.cfi_restore 22
 349              		.cfi_restore 21
 350              		.cfi_restore 20
 351              		.cfi_restore 19
 352              		.cfi_restore 18
 353              		.cfi_restore 9
 354              		.cfi_restore 8
 355              		.cfi_restore 1
 356              		.cfi_def_cfa_offset 0
 357              	.LVL38:
 358              	.L28:
 359              		.cfi_restore_state
 243:C:/Users/stapi/OneDrive/Desktop/GD32VW553/GD32VW55X_Wifi_BLE_SDK/GD32VW55x_RELEASE_V1.0.2/MSDK/mbedtls/mbedtls-2.17.0-ssl/library\ssl_cache.c ****         }
 360              		.loc 1 243 17 is_stmt 1
 243:C:/Users/stapi/OneDrive/Desktop/GD32VW553/GD32VW55X_Wifi_BLE_SDK/GD32VW55x_RELEASE_V1.0.2/MSDK/mbedtls/mbedtls-2.17.0-ssl/library\ssl_cache.c ****         }
 361              		.loc 1 243 27 is_stmt 0
 362 00b6 2326AB08 		sw	a0,140(s6)
 363 00ba 49BF     		j	.L25
 364              		.cfi_endproc
 365              	.LFE391:
 367              		.section	.text.mbedtls_ssl_cache_set_timeout,"ax",@progbits
 368              		.align	1
 369              		.globl	mbedtls_ssl_cache_set_timeout
 371              	mbedtls_ssl_cache_set_timeout:
 372              	.LFB392:
 309:C:/Users/stapi/OneDrive/Desktop/GD32VW553/GD32VW55X_Wifi_BLE_SDK/GD32VW55x_RELEASE_V1.0.2/MSDK/mbedtls/mbedtls-2.17.0-ssl/library\ssl_cache.c **** 
 310:C:/Users/stapi/OneDrive/Desktop/GD32VW553/GD32VW55X_Wifi_BLE_SDK/GD32VW55x_RELEASE_V1.0.2/MSDK/mbedtls/mbedtls-2.17.0-ssl/library\ssl_cache.c **** #if defined(MBEDTLS_HAVE_TIME)
 311:C:/Users/stapi/OneDrive/Desktop/GD32VW553/GD32VW55X_Wifi_BLE_SDK/GD32VW55x_RELEASE_V1.0.2/MSDK/mbedtls/mbedtls-2.17.0-ssl/library\ssl_cache.c **** void mbedtls_ssl_cache_set_timeout( mbedtls_ssl_cache_context *cache, int timeout )
 312:C:/Users/stapi/OneDrive/Desktop/GD32VW553/GD32VW55X_Wifi_BLE_SDK/GD32VW55x_RELEASE_V1.0.2/MSDK/mbedtls/mbedtls-2.17.0-ssl/library\ssl_cache.c **** {
 373              		.loc 1 312 1 is_stmt 1
 374              		.cfi_startproc
 375              	.LVL39:
 313:C:/Users/stapi/OneDrive/Desktop/GD32VW553/GD32VW55X_Wifi_BLE_SDK/GD32VW55x_RELEASE_V1.0.2/MSDK/mbedtls/mbedtls-2.17.0-ssl/library\ssl_cache.c ****     if( timeout < 0 ) timeout = 0;
 376              		.loc 1 313 5
 314:C:/Users/stapi/OneDrive/Desktop/GD32VW553/GD32VW55X_Wifi_BLE_SDK/GD32VW55x_RELEASE_V1.0.2/MSDK/mbedtls/mbedtls-2.17.0-ssl/library\ssl_cache.c **** 
 315:C:/Users/stapi/OneDrive/Desktop/GD32VW553/GD32VW55X_Wifi_BLE_SDK/GD32VW55x_RELEASE_V1.0.2/MSDK/mbedtls/mbedtls-2.17.0-ssl/library\ssl_cache.c ****     cache->timeout = timeout;
 377              		.loc 1 315 5
 378              		.loc 1 315 20 is_stmt 0
 379 0000 8147     		li	a5,0
 380 0002 B3E5F50A 		max	a1,a1,a5
 381              	.LVL40:
 382 0006 4CC1     		sw	a1,4(a0)
 316:C:/Users/stapi/OneDrive/Desktop/GD32VW553/GD32VW55X_Wifi_BLE_SDK/GD32VW55x_RELEASE_V1.0.2/MSDK/mbedtls/mbedtls-2.17.0-ssl/library\ssl_cache.c **** }
 383              		.loc 1 316 1
 384 0008 8280     		ret
 385              		.cfi_endproc
 386              	.LFE392:
 388              		.section	.text.mbedtls_ssl_cache_set_max_entries,"ax",@progbits
 389              		.align	1
 390              		.globl	mbedtls_ssl_cache_set_max_entries
 392              	mbedtls_ssl_cache_set_max_entries:
 393              	.LFB393:
 317:C:/Users/stapi/OneDrive/Desktop/GD32VW553/GD32VW55X_Wifi_BLE_SDK/GD32VW55x_RELEASE_V1.0.2/MSDK/mbedtls/mbedtls-2.17.0-ssl/library\ssl_cache.c **** #endif /* MBEDTLS_HAVE_TIME */
 318:C:/Users/stapi/OneDrive/Desktop/GD32VW553/GD32VW55X_Wifi_BLE_SDK/GD32VW55x_RELEASE_V1.0.2/MSDK/mbedtls/mbedtls-2.17.0-ssl/library\ssl_cache.c **** 
 319:C:/Users/stapi/OneDrive/Desktop/GD32VW553/GD32VW55X_Wifi_BLE_SDK/GD32VW55x_RELEASE_V1.0.2/MSDK/mbedtls/mbedtls-2.17.0-ssl/library\ssl_cache.c **** void mbedtls_ssl_cache_set_max_entries( mbedtls_ssl_cache_context *cache, int max )
 320:C:/Users/stapi/OneDrive/Desktop/GD32VW553/GD32VW55X_Wifi_BLE_SDK/GD32VW55x_RELEASE_V1.0.2/MSDK/mbedtls/mbedtls-2.17.0-ssl/library\ssl_cache.c **** {
 394              		.loc 1 320 1 is_stmt 1
 395              		.cfi_startproc
 396              	.LVL41:
 321:C:/Users/stapi/OneDrive/Desktop/GD32VW553/GD32VW55X_Wifi_BLE_SDK/GD32VW55x_RELEASE_V1.0.2/MSDK/mbedtls/mbedtls-2.17.0-ssl/library\ssl_cache.c ****     if( max < 0 ) max = 0;
 397              		.loc 1 321 5
 322:C:/Users/stapi/OneDrive/Desktop/GD32VW553/GD32VW55X_Wifi_BLE_SDK/GD32VW55x_RELEASE_V1.0.2/MSDK/mbedtls/mbedtls-2.17.0-ssl/library\ssl_cache.c **** 
 323:C:/Users/stapi/OneDrive/Desktop/GD32VW553/GD32VW55X_Wifi_BLE_SDK/GD32VW55x_RELEASE_V1.0.2/MSDK/mbedtls/mbedtls-2.17.0-ssl/library\ssl_cache.c ****     cache->max_entries = max;
 398              		.loc 1 323 5
 399              		.loc 1 323 24 is_stmt 0
 400 0000 8147     		li	a5,0
 401 0002 B3E5F50A 		max	a1,a1,a5
 402              	.LVL42:
 403 0006 0CC5     		sw	a1,8(a0)
 324:C:/Users/stapi/OneDrive/Desktop/GD32VW553/GD32VW55X_Wifi_BLE_SDK/GD32VW55x_RELEASE_V1.0.2/MSDK/mbedtls/mbedtls-2.17.0-ssl/library\ssl_cache.c **** }
 404              		.loc 1 324 1
 405 0008 8280     		ret
 406              		.cfi_endproc
 407              	.LFE393:
 409              		.section	.text.mbedtls_ssl_cache_free,"ax",@progbits
 410              		.align	1
 411              		.globl	mbedtls_ssl_cache_free
 413              	mbedtls_ssl_cache_free:
 414              	.LFB394:
 325:C:/Users/stapi/OneDrive/Desktop/GD32VW553/GD32VW55X_Wifi_BLE_SDK/GD32VW55x_RELEASE_V1.0.2/MSDK/mbedtls/mbedtls-2.17.0-ssl/library\ssl_cache.c **** 
 326:C:/Users/stapi/OneDrive/Desktop/GD32VW553/GD32VW55X_Wifi_BLE_SDK/GD32VW55x_RELEASE_V1.0.2/MSDK/mbedtls/mbedtls-2.17.0-ssl/library\ssl_cache.c **** void mbedtls_ssl_cache_free( mbedtls_ssl_cache_context *cache )
 327:C:/Users/stapi/OneDrive/Desktop/GD32VW553/GD32VW55X_Wifi_BLE_SDK/GD32VW55x_RELEASE_V1.0.2/MSDK/mbedtls/mbedtls-2.17.0-ssl/library\ssl_cache.c **** {
 415              		.loc 1 327 1 is_stmt 1
 416              		.cfi_startproc
 417              	.LVL43:
 418 0000 17030000 		call	t0,__riscv_save_3
 418      E7020300 
 419              		.cfi_offset 18, -16
 420              		.cfi_offset 9, -12
 421              		.cfi_offset 8, -8
 422              		.cfi_offset 1, -4
 423              		.cfi_def_cfa_offset 16
 328:C:/Users/stapi/OneDrive/Desktop/GD32VW553/GD32VW55X_Wifi_BLE_SDK/GD32VW55x_RELEASE_V1.0.2/MSDK/mbedtls/mbedtls-2.17.0-ssl/library\ssl_cache.c ****     mbedtls_ssl_cache_entry *cur, *prv;
 424              		.loc 1 328 5
 329:C:/Users/stapi/OneDrive/Desktop/GD32VW553/GD32VW55X_Wifi_BLE_SDK/GD32VW55x_RELEASE_V1.0.2/MSDK/mbedtls/mbedtls-2.17.0-ssl/library\ssl_cache.c **** 
 330:C:/Users/stapi/OneDrive/Desktop/GD32VW553/GD32VW55X_Wifi_BLE_SDK/GD32VW55x_RELEASE_V1.0.2/MSDK/mbedtls/mbedtls-2.17.0-ssl/library\ssl_cache.c ****     cur = cache->chain;
 425              		.loc 1 330 5
 426              		.loc 1 330 9 is_stmt 0
 427 0008 0041     		lw	s0,0(a0)
 428              	.LVL44:
 331:C:/Users/stapi/OneDrive/Desktop/GD32VW553/GD32VW55X_Wifi_BLE_SDK/GD32VW55x_RELEASE_V1.0.2/MSDK/mbedtls/mbedtls-2.17.0-ssl/library\ssl_cache.c **** 
 332:C:/Users/stapi/OneDrive/Desktop/GD32VW553/GD32VW55X_Wifi_BLE_SDK/GD32VW55x_RELEASE_V1.0.2/MSDK/mbedtls/mbedtls-2.17.0-ssl/library\ssl_cache.c ****     while( cur != NULL )
 429              		.loc 1 332 5 is_stmt 1
 327:C:/Users/stapi/OneDrive/Desktop/GD32VW553/GD32VW55X_Wifi_BLE_SDK/GD32VW55x_RELEASE_V1.0.2/MSDK/mbedtls/mbedtls-2.17.0-ssl/library\ssl_cache.c ****     mbedtls_ssl_cache_entry *cur, *prv;
 430              		.loc 1 327 1 is_stmt 0
 431 000a AA84     		mv	s1,a0
 432              	.LVL45:
 433              	.L48:
 434              		.loc 1 332 10 is_stmt 1
 435 000c 19E4     		bne	s0,zero,.L49
 333:C:/Users/stapi/OneDrive/Desktop/GD32VW553/GD32VW55X_Wifi_BLE_SDK/GD32VW55x_RELEASE_V1.0.2/MSDK/mbedtls/mbedtls-2.17.0-ssl/library\ssl_cache.c ****     {
 334:C:/Users/stapi/OneDrive/Desktop/GD32VW553/GD32VW55X_Wifi_BLE_SDK/GD32VW55x_RELEASE_V1.0.2/MSDK/mbedtls/mbedtls-2.17.0-ssl/library\ssl_cache.c ****         prv = cur;
 335:C:/Users/stapi/OneDrive/Desktop/GD32VW553/GD32VW55X_Wifi_BLE_SDK/GD32VW55x_RELEASE_V1.0.2/MSDK/mbedtls/mbedtls-2.17.0-ssl/library\ssl_cache.c ****         cur = cur->next;
 336:C:/Users/stapi/OneDrive/Desktop/GD32VW553/GD32VW55X_Wifi_BLE_SDK/GD32VW55x_RELEASE_V1.0.2/MSDK/mbedtls/mbedtls-2.17.0-ssl/library\ssl_cache.c **** 
 337:C:/Users/stapi/OneDrive/Desktop/GD32VW553/GD32VW55X_Wifi_BLE_SDK/GD32VW55x_RELEASE_V1.0.2/MSDK/mbedtls/mbedtls-2.17.0-ssl/library\ssl_cache.c ****         mbedtls_ssl_session_free( &prv->session );
 338:C:/Users/stapi/OneDrive/Desktop/GD32VW553/GD32VW55X_Wifi_BLE_SDK/GD32VW55x_RELEASE_V1.0.2/MSDK/mbedtls/mbedtls-2.17.0-ssl/library\ssl_cache.c **** 
 339:C:/Users/stapi/OneDrive/Desktop/GD32VW553/GD32VW55X_Wifi_BLE_SDK/GD32VW55x_RELEASE_V1.0.2/MSDK/mbedtls/mbedtls-2.17.0-ssl/library\ssl_cache.c **** #if defined(MBEDTLS_X509_CRT_PARSE_C) && \
 340:C:/Users/stapi/OneDrive/Desktop/GD32VW553/GD32VW55X_Wifi_BLE_SDK/GD32VW55x_RELEASE_V1.0.2/MSDK/mbedtls/mbedtls-2.17.0-ssl/library\ssl_cache.c ****     defined(MBEDTLS_SSL_KEEP_PEER_CERTIFICATE)
 341:C:/Users/stapi/OneDrive/Desktop/GD32VW553/GD32VW55X_Wifi_BLE_SDK/GD32VW55x_RELEASE_V1.0.2/MSDK/mbedtls/mbedtls-2.17.0-ssl/library\ssl_cache.c ****         mbedtls_free( prv->peer_cert.p );
 342:C:/Users/stapi/OneDrive/Desktop/GD32VW553/GD32VW55X_Wifi_BLE_SDK/GD32VW55x_RELEASE_V1.0.2/MSDK/mbedtls/mbedtls-2.17.0-ssl/library\ssl_cache.c **** #endif /* MBEDTLS_X509_CRT_PARSE_C && MBEDTLS_SSL_KEEP_PEER_CERTIFICATE */
 343:C:/Users/stapi/OneDrive/Desktop/GD32VW553/GD32VW55X_Wifi_BLE_SDK/GD32VW55x_RELEASE_V1.0.2/MSDK/mbedtls/mbedtls-2.17.0-ssl/library\ssl_cache.c **** 
 344:C:/Users/stapi/OneDrive/Desktop/GD32VW553/GD32VW55X_Wifi_BLE_SDK/GD32VW55x_RELEASE_V1.0.2/MSDK/mbedtls/mbedtls-2.17.0-ssl/library\ssl_cache.c ****         mbedtls_free( prv );
 345:C:/Users/stapi/OneDrive/Desktop/GD32VW553/GD32VW55X_Wifi_BLE_SDK/GD32VW55x_RELEASE_V1.0.2/MSDK/mbedtls/mbedtls-2.17.0-ssl/library\ssl_cache.c ****     }
 346:C:/Users/stapi/OneDrive/Desktop/GD32VW553/GD32VW55X_Wifi_BLE_SDK/GD32VW55x_RELEASE_V1.0.2/MSDK/mbedtls/mbedtls-2.17.0-ssl/library\ssl_cache.c **** 
 347:C:/Users/stapi/OneDrive/Desktop/GD32VW553/GD32VW55X_Wifi_BLE_SDK/GD32VW55x_RELEASE_V1.0.2/MSDK/mbedtls/mbedtls-2.17.0-ssl/library\ssl_cache.c **** #if defined(MBEDTLS_THREADING_C)
 348:C:/Users/stapi/OneDrive/Desktop/GD32VW553/GD32VW55X_Wifi_BLE_SDK/GD32VW55x_RELEASE_V1.0.2/MSDK/mbedtls/mbedtls-2.17.0-ssl/library\ssl_cache.c ****     mbedtls_mutex_free( &cache->mutex );
 349:C:/Users/stapi/OneDrive/Desktop/GD32VW553/GD32VW55X_Wifi_BLE_SDK/GD32VW55x_RELEASE_V1.0.2/MSDK/mbedtls/mbedtls-2.17.0-ssl/library\ssl_cache.c **** #endif
 350:C:/Users/stapi/OneDrive/Desktop/GD32VW553/GD32VW55X_Wifi_BLE_SDK/GD32VW55x_RELEASE_V1.0.2/MSDK/mbedtls/mbedtls-2.17.0-ssl/library\ssl_cache.c ****     cache->chain = NULL;
 436              		.loc 1 350 5
 437              		.loc 1 350 18 is_stmt 0
 438 000e 23A00400 		sw	zero,0(s1)
 351:C:/Users/stapi/OneDrive/Desktop/GD32VW553/GD32VW55X_Wifi_BLE_SDK/GD32VW55x_RELEASE_V1.0.2/MSDK/mbedtls/mbedtls-2.17.0-ssl/library\ssl_cache.c **** }
 439              		.loc 1 351 1
 440 0012 17030000 		tail	__riscv_restore_3
 440      67000300 
 441              		.cfi_remember_state
 442              		.cfi_restore 18
 443              		.cfi_restore 9
 444              		.cfi_restore 8
 445              		.cfi_restore 1
 446              		.cfi_def_cfa_offset 0
 447              	.L49:
 448              		.cfi_restore_state
 334:C:/Users/stapi/OneDrive/Desktop/GD32VW553/GD32VW55X_Wifi_BLE_SDK/GD32VW55x_RELEASE_V1.0.2/MSDK/mbedtls/mbedtls-2.17.0-ssl/library\ssl_cache.c ****         cur = cur->next;
 449              		.loc 1 334 9 is_stmt 1
 450              	.LVL46:
 335:C:/Users/stapi/OneDrive/Desktop/GD32VW553/GD32VW55X_Wifi_BLE_SDK/GD32VW55x_RELEASE_V1.0.2/MSDK/mbedtls/mbedtls-2.17.0-ssl/library\ssl_cache.c **** 
 451              		.loc 1 335 9
 337:C:/Users/stapi/OneDrive/Desktop/GD32VW553/GD32VW55X_Wifi_BLE_SDK/GD32VW55x_RELEASE_V1.0.2/MSDK/mbedtls/mbedtls-2.17.0-ssl/library\ssl_cache.c **** 
 452              		.loc 1 337 9 is_stmt 0
 453 001a 13054400 		addi	a0,s0,4
 335:C:/Users/stapi/OneDrive/Desktop/GD32VW553/GD32VW55X_Wifi_BLE_SDK/GD32VW55x_RELEASE_V1.0.2/MSDK/mbedtls/mbedtls-2.17.0-ssl/library\ssl_cache.c **** 
 454              		.loc 1 335 13
 455 001e 0329C408 		lw	s2,140(s0)
 456              	.LVL47:
 337:C:/Users/stapi/OneDrive/Desktop/GD32VW553/GD32VW55X_Wifi_BLE_SDK/GD32VW55x_RELEASE_V1.0.2/MSDK/mbedtls/mbedtls-2.17.0-ssl/library\ssl_cache.c **** 
 457              		.loc 1 337 9 is_stmt 1
 458 0022 97000000 		call	mbedtls_ssl_session_free
 458      E7800000 
 459              	.LVL48:
 344:C:/Users/stapi/OneDrive/Desktop/GD32VW553/GD32VW55X_Wifi_BLE_SDK/GD32VW55x_RELEASE_V1.0.2/MSDK/mbedtls/mbedtls-2.17.0-ssl/library\ssl_cache.c ****     }
 460              		.loc 1 344 9
 461 002a 2285     		mv	a0,s0
 462 002c 97000000 		call	mbedtls_free
 462      E7800000 
 463              	.LVL49:
 335:C:/Users/stapi/OneDrive/Desktop/GD32VW553/GD32VW55X_Wifi_BLE_SDK/GD32VW55x_RELEASE_V1.0.2/MSDK/mbedtls/mbedtls-2.17.0-ssl/library\ssl_cache.c **** 
 464              		.loc 1 335 13 is_stmt 0
 465 0034 4A84     		mv	s0,s2
 466              	.LVL50:
 467 0036 D9BF     		j	.L48
 468              		.cfi_endproc
 469              	.LFE394:
 471              		.text
 472              	.Letext0:
 473              		.file 2 "c:\\users\\stapi\\onedrive\\desktop\\gd32vw553\\embeddedbuilder_v1.4.7.26843\\tools\\nucl
 474              		.file 3 "c:\\users\\stapi\\onedrive\\desktop\\gd32vw553\\embeddedbuilder_v1.4.7.26843\\tools\\nucl
 475              		.file 4 "c:\\users\\stapi\\onedrive\\desktop\\gd32vw553\\embeddedbuilder_v1.4.7.26843\\tools\\nucl
 476              		.file 5 "..\\..\\..\\..\\..\\ROM-EXPORT\\mbedtls-2.17.0-rom\\include/mbedtls/platform_time.h"
 477              		.file 6 "..\\..\\..\\..\\..\\ROM-EXPORT\\mbedtls-2.17.0-rom\\include/mbedtls/md.h"
 478              		.file 7 "..\\..\\..\\..\\..\\ROM-EXPORT\\mbedtls-2.17.0-rom\\include/mbedtls/ssl.h"
 479              		.file 8 "..\\..\\..\\..\\mbedtls\\mbedtls-2.17.0-ssl\\include/mbedtls/ssl_cache.h"
 480              		.file 9 "..\\..\\..\\..\\..\\ROM-EXPORT\\mbedtls-2.17.0-rom\\include/mbedtls/platform.h"
 481              		.file 10 "..\\..\\..\\..\\mbedtls\\mbedtls-2.17.0-ssl\\include/mbedtls/ssl_internal.h"
 482              		.file 11 "c:\\users\\stapi\\onedrive\\desktop\\gd32vw553\\embeddedbuilder_v1.4.7.26843\\tools\\nuc
 483              		.file 12 "<built-in>"