   1              		.file	"aos_support.c"
   2              		.option nopic
   3              		.attribute arch, "rv32i2p0_m2p0_a2p0_f2p0_c2p0_b_p0p94"
   4              		.attribute unaligned_access, 0
   5              		.attribute stack_align, 16
   6              		.text
   7              	.Ltext0:
   8              		.cfi_sections	.debug_frame
   9              		.section	.rodata.aos_get_version_info.str1.4,"aMS",@progbits,1
  10              		.align	2
  11              	.LC0:
  12 0000 31313131 		.string	"1111111111222222222233333333334444444444"
  12      31313131 
  12      31313232 
  12      32323232 
  12      32323232 
  13              		.section	.text.aos_get_version_info,"ax",@progbits
  14              		.align	1
  15              		.globl	aos_get_version_info
  17              	aos_get_version_info:
  18              	.LFB20:
  19              		.file 1 "C:/Users/stapi/OneDrive/Desktop/GD32VW553/V1_MQTT_OK/GD32VW55X_Wifi_BLE_SDK/GD32VW55x_REL
   1:C:/Users/stapi/OneDrive/Desktop/GD32VW553/V1_MQTT_OK/GD32VW55X_Wifi_BLE_SDK/GD32VW55x_RELEASE_V1.0.2/MSDK/cloud/alicloud/src/infra/system\aos_support.c **** #include "iot_import.h"
   2:C:/Users/stapi/OneDrive/Desktop/GD32VW553/V1_MQTT_OK/GD32VW55X_Wifi_BLE_SDK/GD32VW55x_RELEASE_V1.0.2/MSDK/cloud/alicloud/src/infra/system\aos_support.c **** #include "iot_export.h"
   3:C:/Users/stapi/OneDrive/Desktop/GD32VW553/V1_MQTT_OK/GD32VW55X_Wifi_BLE_SDK/GD32VW55x_RELEASE_V1.0.2/MSDK/cloud/alicloud/src/infra/system\aos_support.c **** #include "iotx_utils.h"
   4:C:/Users/stapi/OneDrive/Desktop/GD32VW553/V1_MQTT_OK/GD32VW55X_Wifi_BLE_SDK/GD32VW55x_RELEASE_V1.0.2/MSDK/cloud/alicloud/src/infra/system\aos_support.c **** #include "utils_sysinfo.h"
   5:C:/Users/stapi/OneDrive/Desktop/GD32VW553/V1_MQTT_OK/GD32VW55X_Wifi_BLE_SDK/GD32VW55x_RELEASE_V1.0.2/MSDK/cloud/alicloud/src/infra/system\aos_support.c **** /* AOS activation data report */
   6:C:/Users/stapi/OneDrive/Desktop/GD32VW553/V1_MQTT_OK/GD32VW55X_Wifi_BLE_SDK/GD32VW55x_RELEASE_V1.0.2/MSDK/cloud/alicloud/src/infra/system\aos_support.c **** // aos will implement this function
   7:C:/Users/stapi/OneDrive/Desktop/GD32VW553/V1_MQTT_OK/GD32VW55X_Wifi_BLE_SDK/GD32VW55x_RELEASE_V1.0.2/MSDK/cloud/alicloud/src/infra/system\aos_support.c **** #ifndef BUILD_AOS
   8:C:/Users/stapi/OneDrive/Desktop/GD32VW553/V1_MQTT_OK/GD32VW55X_Wifi_BLE_SDK/GD32VW55x_RELEASE_V1.0.2/MSDK/cloud/alicloud/src/infra/system\aos_support.c **** unsigned int aos_get_version_info(unsigned char version_num[VERSION_NUM_SIZE],
   9:C:/Users/stapi/OneDrive/Desktop/GD32VW553/V1_MQTT_OK/GD32VW55X_Wifi_BLE_SDK/GD32VW55x_RELEASE_V1.0.2/MSDK/cloud/alicloud/src/infra/system\aos_support.c ****                                   unsigned char random_num[RANDOM_NUM_SIZE], unsigned char mac_addr
  10:C:/Users/stapi/OneDrive/Desktop/GD32VW553/V1_MQTT_OK/GD32VW55X_Wifi_BLE_SDK/GD32VW55x_RELEASE_V1.0.2/MSDK/cloud/alicloud/src/infra/system\aos_support.c ****                                   unsigned char chip_code[CHIP_CODE_SIZE], unsigned char *output_bu
  11:C:/Users/stapi/OneDrive/Desktop/GD32VW553/V1_MQTT_OK/GD32VW55X_Wifi_BLE_SDK/GD32VW55x_RELEASE_V1.0.2/MSDK/cloud/alicloud/src/infra/system\aos_support.c **** {
  20              		.loc 1 11 1
  21              		.cfi_startproc
  22              	.LVL0:
  23 0000 17030000 		call	t0,__riscv_save_5
  23      E7020300 
  24              		.cfi_offset 20, -24
  25              		.cfi_offset 19, -20
  26              		.cfi_offset 18, -16
  27              		.cfi_offset 9, -12
  28              		.cfi_offset 8, -8
  29              		.cfi_offset 1, -4
  30              		.cfi_def_cfa_offset 32
  31              		.loc 1 11 1 is_stmt 0
  32 0008 3289     		mv	s2,a2
  12:C:/Users/stapi/OneDrive/Desktop/GD32VW553/V1_MQTT_OK/GD32VW55X_Wifi_BLE_SDK/GD32VW55x_RELEASE_V1.0.2/MSDK/cloud/alicloud/src/infra/system\aos_support.c ****     char *p = (char *)output_buffer;
  33              		.loc 1 12 5 is_stmt 1
  34              	.LVL1:
  13:C:/Users/stapi/OneDrive/Desktop/GD32VW553/V1_MQTT_OK/GD32VW55X_Wifi_BLE_SDK/GD32VW55x_RELEASE_V1.0.2/MSDK/cloud/alicloud/src/infra/system\aos_support.c **** 
  14:C:/Users/stapi/OneDrive/Desktop/GD32VW553/V1_MQTT_OK/GD32VW55X_Wifi_BLE_SDK/GD32VW55x_RELEASE_V1.0.2/MSDK/cloud/alicloud/src/infra/system\aos_support.c ****     if (output_buffer_size < AOS_ACTIVE_INFO_LEN) {
  35              		.loc 1 14 5
  11:C:/Users/stapi/OneDrive/Desktop/GD32VW553/V1_MQTT_OK/GD32VW55X_Wifi_BLE_SDK/GD32VW55x_RELEASE_V1.0.2/MSDK/cloud/alicloud/src/infra/system\aos_support.c ****     char *p = (char *)output_buffer;
  36              		.loc 1 11 1 is_stmt 0
  37 000a 3E86     		mv	a2,a5
  38              	.LVL2:
  39              		.loc 1 14 8
  40 000c 93070005 		li	a5,80
  41              	.LVL3:
  42 0010 63FEC706 		bleu	a2,a5,.L3
  43 0014 2A8A     		mv	s4,a0
  44 0016 AE89     		mv	s3,a1
  15:C:/Users/stapi/OneDrive/Desktop/GD32VW553/V1_MQTT_OK/GD32VW55X_Wifi_BLE_SDK/GD32VW55x_RELEASE_V1.0.2/MSDK/cloud/alicloud/src/infra/system\aos_support.c ****         return 1;
  16:C:/Users/stapi/OneDrive/Desktop/GD32VW553/V1_MQTT_OK/GD32VW55X_Wifi_BLE_SDK/GD32VW55x_RELEASE_V1.0.2/MSDK/cloud/alicloud/src/infra/system\aos_support.c ****     }
  17:C:/Users/stapi/OneDrive/Desktop/GD32VW553/V1_MQTT_OK/GD32VW55X_Wifi_BLE_SDK/GD32VW55x_RELEASE_V1.0.2/MSDK/cloud/alicloud/src/infra/system\aos_support.c **** 
  18:C:/Users/stapi/OneDrive/Desktop/GD32VW553/V1_MQTT_OK/GD32VW55X_Wifi_BLE_SDK/GD32VW55x_RELEASE_V1.0.2/MSDK/cloud/alicloud/src/infra/system\aos_support.c ****     memset(p, 0, output_buffer_size);
  45              		.loc 1 18 5
  46 0018 3A85     		mv	a0,a4
  47              	.LVL4:
  48 001a 8145     		li	a1,0
  49              	.LVL5:
  50 001c 3A84     		mv	s0,a4
  51              		.loc 1 18 5 is_stmt 1
  52 001e B684     		mv	s1,a3
  53 0020 97000000 		call	memset
  53      E7800000 
  54              	.LVL6:
  19:C:/Users/stapi/OneDrive/Desktop/GD32VW553/V1_MQTT_OK/GD32VW55X_Wifi_BLE_SDK/GD32VW55x_RELEASE_V1.0.2/MSDK/cloud/alicloud/src/infra/system\aos_support.c **** 
  20:C:/Users/stapi/OneDrive/Desktop/GD32VW553/V1_MQTT_OK/GD32VW55X_Wifi_BLE_SDK/GD32VW55x_RELEASE_V1.0.2/MSDK/cloud/alicloud/src/infra/system\aos_support.c ****     LITE_hexbuf_convert(version_num, p, VERSION_NUM_SIZE, 1);
  55              		.loc 1 20 5
  56 0028 8546     		li	a3,1
  57 002a 1146     		li	a2,4
  58 002c A285     		mv	a1,s0
  59 002e 5285     		mv	a0,s4
  60 0030 97000000 		call	LITE_hexbuf_convert
  60      E7800000 
  61              	.LVL7:
  21:C:/Users/stapi/OneDrive/Desktop/GD32VW553/V1_MQTT_OK/GD32VW55X_Wifi_BLE_SDK/GD32VW55x_RELEASE_V1.0.2/MSDK/cloud/alicloud/src/infra/system\aos_support.c ****     p += VERSION_NUM_SIZE * 2;
  62              		.loc 1 21 5
  22:C:/Users/stapi/OneDrive/Desktop/GD32VW553/V1_MQTT_OK/GD32VW55X_Wifi_BLE_SDK/GD32VW55x_RELEASE_V1.0.2/MSDK/cloud/alicloud/src/infra/system\aos_support.c ****     LITE_hexbuf_convert(random_num, p, RANDOM_NUM_SIZE, 1);
  63              		.loc 1 22 5
  64 0038 8546     		li	a3,1
  65 003a 1146     		li	a2,4
  66 003c 93058400 		addi	a1,s0,8
  67              	.LVL8:
  68 0040 4E85     		mv	a0,s3
  69 0042 97000000 		call	LITE_hexbuf_convert
  69      E7800000 
  70              	.LVL9:
  23:C:/Users/stapi/OneDrive/Desktop/GD32VW553/V1_MQTT_OK/GD32VW55X_Wifi_BLE_SDK/GD32VW55x_RELEASE_V1.0.2/MSDK/cloud/alicloud/src/infra/system\aos_support.c ****     p += RANDOM_NUM_SIZE * 2;
  71              		.loc 1 23 5
  24:C:/Users/stapi/OneDrive/Desktop/GD32VW553/V1_MQTT_OK/GD32VW55X_Wifi_BLE_SDK/GD32VW55x_RELEASE_V1.0.2/MSDK/cloud/alicloud/src/infra/system\aos_support.c ****     LITE_hexbuf_convert(mac_address, p, MAC_ADDRESS_SIZE, 1);
  72              		.loc 1 24 5
  73 004a 8546     		li	a3,1
  74 004c 2146     		li	a2,8
  75 004e 93050401 		addi	a1,s0,16
  76              	.LVL10:
  77 0052 4A85     		mv	a0,s2
  78 0054 97000000 		call	LITE_hexbuf_convert
  78      E7800000 
  79              	.LVL11:
  25:C:/Users/stapi/OneDrive/Desktop/GD32VW553/V1_MQTT_OK/GD32VW55X_Wifi_BLE_SDK/GD32VW55x_RELEASE_V1.0.2/MSDK/cloud/alicloud/src/infra/system\aos_support.c ****     p += MAC_ADDRESS_SIZE * 2;
  80              		.loc 1 25 5
  26:C:/Users/stapi/OneDrive/Desktop/GD32VW553/V1_MQTT_OK/GD32VW55X_Wifi_BLE_SDK/GD32VW55x_RELEASE_V1.0.2/MSDK/cloud/alicloud/src/infra/system\aos_support.c ****     LITE_hexbuf_convert(chip_code, p, CHIP_CODE_SIZE, 1);
  81              		.loc 1 26 5
  82 005c 8546     		li	a3,1
  83 005e 1146     		li	a2,4
  84 0060 93050402 		addi	a1,s0,32
  85              	.LVL12:
  86 0064 2685     		mv	a0,s1
  87 0066 97000000 		call	LITE_hexbuf_convert
  87      E7800000 
  88              	.LVL13:
  27:C:/Users/stapi/OneDrive/Desktop/GD32VW553/V1_MQTT_OK/GD32VW55X_Wifi_BLE_SDK/GD32VW55x_RELEASE_V1.0.2/MSDK/cloud/alicloud/src/infra/system\aos_support.c ****     p += CHIP_CODE_SIZE * 2;
  89              		.loc 1 27 5
  28:C:/Users/stapi/OneDrive/Desktop/GD32VW553/V1_MQTT_OK/GD32VW55X_Wifi_BLE_SDK/GD32VW55x_RELEASE_V1.0.2/MSDK/cloud/alicloud/src/infra/system\aos_support.c ****     strcat(p, "1111111111222222222233333333334444444444");
  90              		.loc 1 28 5
  91 006e B7050000 		lui	a1,%hi(.LC0)
  92 0072 93850500 		addi	a1,a1,%lo(.LC0)
  93 0076 13058402 		addi	a0,s0,40
  94              	.LVL14:
  95 007a 97000000 		call	strcat
  95      E7800000 
  96              	.LVL15:
  29:C:/Users/stapi/OneDrive/Desktop/GD32VW553/V1_MQTT_OK/GD32VW55X_Wifi_BLE_SDK/GD32VW55x_RELEASE_V1.0.2/MSDK/cloud/alicloud/src/infra/system\aos_support.c **** 
  30:C:/Users/stapi/OneDrive/Desktop/GD32VW553/V1_MQTT_OK/GD32VW55X_Wifi_BLE_SDK/GD32VW55x_RELEASE_V1.0.2/MSDK/cloud/alicloud/src/infra/system\aos_support.c ****     return 0;
  97              		.loc 1 30 5
  98              		.loc 1 30 12 is_stmt 0
  99 0082 0145     		li	a0,0
 100              	.LVL16:
 101              	.L1:
  31:C:/Users/stapi/OneDrive/Desktop/GD32VW553/V1_MQTT_OK/GD32VW55X_Wifi_BLE_SDK/GD32VW55x_RELEASE_V1.0.2/MSDK/cloud/alicloud/src/infra/system\aos_support.c **** }
 102              		.loc 1 31 1
 103 0084 17030000 		tail	__riscv_restore_5
 103      67000300 
 104              		.cfi_remember_state
 105              		.cfi_restore 20
 106              		.cfi_restore 19
 107              		.cfi_restore 18
 108              		.cfi_restore 9
 109              		.cfi_restore 8
 110              		.cfi_restore 1
 111              		.cfi_def_cfa_offset 0
 112              	.LVL17:
 113              	.L3:
 114              		.cfi_restore_state
  15:C:/Users/stapi/OneDrive/Desktop/GD32VW553/V1_MQTT_OK/GD32VW55X_Wifi_BLE_SDK/GD32VW55x_RELEASE_V1.0.2/MSDK/cloud/alicloud/src/infra/system\aos_support.c ****     }
 115              		.loc 1 15 16
 116 008c 0545     		li	a0,1
 117              	.LVL18:
 118 008e DDBF     		j	.L1
 119              		.cfi_endproc
 120              	.LFE20:
 122              		.text
 123              	.Letext0:
 124              		.file 2 "..\\..\\..\\..\\cloud\\alicloud\\src\\infra\\utils/iotx_utils.h"
 125              		.file 3 "c:\\users\\stapi\\onedrive\\desktop\\gd32vw553\\embeddedbuilder_v1.4.7.26843\\tools\\nucl
 126              		.file 4 "<built-in>"