   1              		.file	"device.c"
   2              		.option nopic
   3              		.attribute arch, "rv32i2p0_m2p0_a2p0_f2p0_c2p0_b_p0p94"
   4              		.attribute unaligned_access, 0
   5              		.attribute stack_align, 16
   6              		.text
   7              	.Ltext0:
   8              		.cfi_sections	.debug_frame
   9              		.section	.text.iotx_device_info_get,"ax",@progbits
  10              		.align	1
  11              		.globl	iotx_device_info_get
  13              	iotx_device_info_get:
  14              	.LFB20:
  15              		.file 1 "C:/Users/stapi/OneDrive/Desktop/GD32VW553/V1_MQTT_OK/GD32VW55X_Wifi_BLE_SDK/GD32VW55x_REL
   1:C:/Users/stapi/OneDrive/Desktop/GD32VW553/V1_MQTT_OK/GD32VW55X_Wifi_BLE_SDK/GD32VW55x_RELEASE_V1.0.2/MSDK/cloud/alicloud/src/infra/system\device.c **** /*
   2:C:/Users/stapi/OneDrive/Desktop/GD32VW553/V1_MQTT_OK/GD32VW55X_Wifi_BLE_SDK/GD32VW55x_RELEASE_V1.0.2/MSDK/cloud/alicloud/src/infra/system\device.c ****  * Copyright (C) 2015-2018 Alibaba Group Holding Limited
   3:C:/Users/stapi/OneDrive/Desktop/GD32VW553/V1_MQTT_OK/GD32VW55X_Wifi_BLE_SDK/GD32VW55x_RELEASE_V1.0.2/MSDK/cloud/alicloud/src/infra/system\device.c ****  */
   4:C:/Users/stapi/OneDrive/Desktop/GD32VW553/V1_MQTT_OK/GD32VW55X_Wifi_BLE_SDK/GD32VW55x_RELEASE_V1.0.2/MSDK/cloud/alicloud/src/infra/system\device.c **** 
   5:C:/Users/stapi/OneDrive/Desktop/GD32VW553/V1_MQTT_OK/GD32VW55X_Wifi_BLE_SDK/GD32VW55x_RELEASE_V1.0.2/MSDK/cloud/alicloud/src/infra/system\device.c **** 
   6:C:/Users/stapi/OneDrive/Desktop/GD32VW553/V1_MQTT_OK/GD32VW55X_Wifi_BLE_SDK/GD32VW55x_RELEASE_V1.0.2/MSDK/cloud/alicloud/src/infra/system\device.c **** 
   7:C:/Users/stapi/OneDrive/Desktop/GD32VW553/V1_MQTT_OK/GD32VW55X_Wifi_BLE_SDK/GD32VW55x_RELEASE_V1.0.2/MSDK/cloud/alicloud/src/infra/system\device.c **** 
   8:C:/Users/stapi/OneDrive/Desktop/GD32VW553/V1_MQTT_OK/GD32VW55X_Wifi_BLE_SDK/GD32VW55x_RELEASE_V1.0.2/MSDK/cloud/alicloud/src/infra/system\device.c **** #include <string.h>
   9:C:/Users/stapi/OneDrive/Desktop/GD32VW553/V1_MQTT_OK/GD32VW55X_Wifi_BLE_SDK/GD32VW55x_RELEASE_V1.0.2/MSDK/cloud/alicloud/src/infra/system\device.c **** 
  10:C:/Users/stapi/OneDrive/Desktop/GD32VW553/V1_MQTT_OK/GD32VW55X_Wifi_BLE_SDK/GD32VW55x_RELEASE_V1.0.2/MSDK/cloud/alicloud/src/infra/system\device.c **** #include "iotx_system_internal.h"
  11:C:/Users/stapi/OneDrive/Desktop/GD32VW553/V1_MQTT_OK/GD32VW55X_Wifi_BLE_SDK/GD32VW55x_RELEASE_V1.0.2/MSDK/cloud/alicloud/src/infra/system\device.c **** 
  12:C:/Users/stapi/OneDrive/Desktop/GD32VW553/V1_MQTT_OK/GD32VW55X_Wifi_BLE_SDK/GD32VW55x_RELEASE_V1.0.2/MSDK/cloud/alicloud/src/infra/system\device.c **** static iotx_conn_info_t     iotx_conn_info = {0, 0, NULL, NULL, NULL, NULL, NULL};
  13:C:/Users/stapi/OneDrive/Desktop/GD32VW553/V1_MQTT_OK/GD32VW55X_Wifi_BLE_SDK/GD32VW55x_RELEASE_V1.0.2/MSDK/cloud/alicloud/src/infra/system\device.c **** 
  14:C:/Users/stapi/OneDrive/Desktop/GD32VW553/V1_MQTT_OK/GD32VW55X_Wifi_BLE_SDK/GD32VW55x_RELEASE_V1.0.2/MSDK/cloud/alicloud/src/infra/system\device.c **** int iotx_device_info_get(iotx_device_info_t *device_info)
  15:C:/Users/stapi/OneDrive/Desktop/GD32VW553/V1_MQTT_OK/GD32VW55X_Wifi_BLE_SDK/GD32VW55x_RELEASE_V1.0.2/MSDK/cloud/alicloud/src/infra/system\device.c **** {
  16              		.loc 1 15 1
  17              		.cfi_startproc
  18              	.LVL0:
  16:C:/Users/stapi/OneDrive/Desktop/GD32VW553/V1_MQTT_OK/GD32VW55X_Wifi_BLE_SDK/GD32VW55x_RELEASE_V1.0.2/MSDK/cloud/alicloud/src/infra/system\device.c ****     if (device_info == NULL) {
  19              		.loc 1 16 5
  20              		.loc 1 16 8 is_stmt 0
  21 0000 29C9     		beq	a0,zero,.L3
  15:C:/Users/stapi/OneDrive/Desktop/GD32VW553/V1_MQTT_OK/GD32VW55X_Wifi_BLE_SDK/GD32VW55x_RELEASE_V1.0.2/MSDK/cloud/alicloud/src/infra/system\device.c ****     if (device_info == NULL) {
  22              		.loc 1 15 1
  23 0002 17030000 		call	t0,__riscv_save_1
  23      E7020300 
  24              		.cfi_offset 8, -8
  25              		.cfi_offset 1, -4
  26              		.cfi_def_cfa_offset 16
  17:C:/Users/stapi/OneDrive/Desktop/GD32VW553/V1_MQTT_OK/GD32VW55X_Wifi_BLE_SDK/GD32VW55x_RELEASE_V1.0.2/MSDK/cloud/alicloud/src/infra/system\device.c ****         return -1;
  18:C:/Users/stapi/OneDrive/Desktop/GD32VW553/V1_MQTT_OK/GD32VW55X_Wifi_BLE_SDK/GD32VW55x_RELEASE_V1.0.2/MSDK/cloud/alicloud/src/infra/system\device.c ****     }
  19:C:/Users/stapi/OneDrive/Desktop/GD32VW553/V1_MQTT_OK/GD32VW55X_Wifi_BLE_SDK/GD32VW55x_RELEASE_V1.0.2/MSDK/cloud/alicloud/src/infra/system\device.c ****     memset(device_info, 0x0, sizeof(iotx_device_info_t));
  27              		.loc 1 19 5
  28 000a 1306900D 		li	a2,217
  29 000e 8145     		li	a1,0
  30 0010 2A84     		mv	s0,a0
  31              		.loc 1 19 5 is_stmt 1
  32 0012 97000000 		call	memset
  32      E7800000 
  33              	.LVL1:
  20:C:/Users/stapi/OneDrive/Desktop/GD32VW553/V1_MQTT_OK/GD32VW55X_Wifi_BLE_SDK/GD32VW55x_RELEASE_V1.0.2/MSDK/cloud/alicloud/src/infra/system\device.c ****     HAL_GetProductKey(device_info->product_key);
  34              		.loc 1 20 5
  35 001a 2285     		mv	a0,s0
  36 001c 97000000 		call	HAL_GetProductKey
  36      E7800000 
  37              	.LVL2:
  21:C:/Users/stapi/OneDrive/Desktop/GD32VW553/V1_MQTT_OK/GD32VW55X_Wifi_BLE_SDK/GD32VW55x_RELEASE_V1.0.2/MSDK/cloud/alicloud/src/infra/system\device.c ****     HAL_GetDeviceName(device_info->device_name);
  38              		.loc 1 21 5
  39 0024 13055401 		addi	a0,s0,21
  40 0028 97000000 		call	HAL_GetDeviceName
  40      E7800000 
  41              	.LVL3:
  22:C:/Users/stapi/OneDrive/Desktop/GD32VW553/V1_MQTT_OK/GD32VW55X_Wifi_BLE_SDK/GD32VW55x_RELEASE_V1.0.2/MSDK/cloud/alicloud/src/infra/system\device.c ****     HAL_GetDeviceSecret(device_info->device_secret);
  42              		.loc 1 22 5
  43 0030 13057407 		addi	a0,s0,119
  44 0034 97000000 		call	HAL_GetDeviceSecret
  44      E7800000 
  45              	.LVL4:
  23:C:/Users/stapi/OneDrive/Desktop/GD32VW553/V1_MQTT_OK/GD32VW55X_Wifi_BLE_SDK/GD32VW55x_RELEASE_V1.0.2/MSDK/cloud/alicloud/src/infra/system\device.c ****     HAL_GetDeviceID(device_info->device_id);
  46              		.loc 1 23 5
  47 003c 13056403 		addi	a0,s0,54
  48 0040 97000000 		call	HAL_GetDeviceID
  48      E7800000 
  49              	.LVL5:
  24:C:/Users/stapi/OneDrive/Desktop/GD32VW553/V1_MQTT_OK/GD32VW55X_Wifi_BLE_SDK/GD32VW55x_RELEASE_V1.0.2/MSDK/cloud/alicloud/src/infra/system\device.c **** 
  25:C:/Users/stapi/OneDrive/Desktop/GD32VW553/V1_MQTT_OK/GD32VW55X_Wifi_BLE_SDK/GD32VW55x_RELEASE_V1.0.2/MSDK/cloud/alicloud/src/infra/system\device.c ****     return 0;
  50              		.loc 1 25 5
  51              		.loc 1 25 12 is_stmt 0
  52 0048 0145     		li	a0,0
  26:C:/Users/stapi/OneDrive/Desktop/GD32VW553/V1_MQTT_OK/GD32VW55X_Wifi_BLE_SDK/GD32VW55x_RELEASE_V1.0.2/MSDK/cloud/alicloud/src/infra/system\device.c **** }
  53              		.loc 1 26 1
  54 004a 17030000 		tail	__riscv_restore_1
  54      67000300 
  55              		.cfi_restore 8
  56              		.cfi_restore 1
  57              		.cfi_def_cfa_offset 0
  58              	.LVL6:
  59              	.L3:
  17:C:/Users/stapi/OneDrive/Desktop/GD32VW553/V1_MQTT_OK/GD32VW55X_Wifi_BLE_SDK/GD32VW55x_RELEASE_V1.0.2/MSDK/cloud/alicloud/src/infra/system\device.c ****     }
  60              		.loc 1 17 16
  61 0052 7D55     		li	a0,-1
  62              	.LVL7:
  63              		.loc 1 26 1
  64 0054 8280     		ret
  65              		.cfi_endproc
  66              	.LFE20:
  68              		.section	.text.iotx_conn_info_get,"ax",@progbits
  69              		.align	1
  70              		.globl	iotx_conn_info_get
  72              	iotx_conn_info_get:
  73              	.LFB21:
  27:C:/Users/stapi/OneDrive/Desktop/GD32VW553/V1_MQTT_OK/GD32VW55X_Wifi_BLE_SDK/GD32VW55x_RELEASE_V1.0.2/MSDK/cloud/alicloud/src/infra/system\device.c **** 
  28:C:/Users/stapi/OneDrive/Desktop/GD32VW553/V1_MQTT_OK/GD32VW55X_Wifi_BLE_SDK/GD32VW55x_RELEASE_V1.0.2/MSDK/cloud/alicloud/src/infra/system\device.c **** iotx_conn_info_pt iotx_conn_info_get(void)
  29:C:/Users/stapi/OneDrive/Desktop/GD32VW553/V1_MQTT_OK/GD32VW55X_Wifi_BLE_SDK/GD32VW55x_RELEASE_V1.0.2/MSDK/cloud/alicloud/src/infra/system\device.c **** {
  74              		.loc 1 29 1 is_stmt 1
  75              		.cfi_startproc
  30:C:/Users/stapi/OneDrive/Desktop/GD32VW553/V1_MQTT_OK/GD32VW55X_Wifi_BLE_SDK/GD32VW55x_RELEASE_V1.0.2/MSDK/cloud/alicloud/src/infra/system\device.c ****     return &iotx_conn_info;
  76              		.loc 1 30 5
  77              		.loc 1 30 12 is_stmt 0
  78 0000 37050000 		lui	a0,%hi(.LANCHOR0)
  31:C:/Users/stapi/OneDrive/Desktop/GD32VW553/V1_MQTT_OK/GD32VW55X_Wifi_BLE_SDK/GD32VW55x_RELEASE_V1.0.2/MSDK/cloud/alicloud/src/infra/system\device.c **** }
  79              		.loc 1 31 1
  80 0004 13050500 		addi	a0,a0,%lo(.LANCHOR0)
  81 0008 8280     		ret
  82              		.cfi_endproc
  83              	.LFE21:
  85              		.section	.text.iotx_conn_info_release,"ax",@progbits
  86              		.align	1
  87              		.globl	iotx_conn_info_release
  89              	iotx_conn_info_release:
  90              	.LFB22:
  32:C:/Users/stapi/OneDrive/Desktop/GD32VW553/V1_MQTT_OK/GD32VW55X_Wifi_BLE_SDK/GD32VW55x_RELEASE_V1.0.2/MSDK/cloud/alicloud/src/infra/system\device.c **** 
  33:C:/Users/stapi/OneDrive/Desktop/GD32VW553/V1_MQTT_OK/GD32VW55X_Wifi_BLE_SDK/GD32VW55x_RELEASE_V1.0.2/MSDK/cloud/alicloud/src/infra/system\device.c **** void iotx_conn_info_release(void)
  34:C:/Users/stapi/OneDrive/Desktop/GD32VW553/V1_MQTT_OK/GD32VW55X_Wifi_BLE_SDK/GD32VW55x_RELEASE_V1.0.2/MSDK/cloud/alicloud/src/infra/system\device.c **** {
  91              		.loc 1 34 1 is_stmt 1
  92              		.cfi_startproc
  93 0000 17030000 		call	t0,__riscv_save_2
  93      E7020300 
  94              		.cfi_offset 9, -12
  95              		.cfi_offset 8, -8
  96              		.cfi_offset 1, -4
  97              		.cfi_def_cfa_offset 16
  35:C:/Users/stapi/OneDrive/Desktop/GD32VW553/V1_MQTT_OK/GD32VW55X_Wifi_BLE_SDK/GD32VW55x_RELEASE_V1.0.2/MSDK/cloud/alicloud/src/infra/system\device.c ****     if (iotx_conn_info.host_name != NULL) {
  98              		.loc 1 35 5
  99              		.loc 1 35 23 is_stmt 0
 100 0008 37040000 		lui	s0,%hi(.LANCHOR0)
 101 000c 93070400 		addi	a5,s0,%lo(.LANCHOR0)
 102 0010 C843     		lw	a0,4(a5)
 103 0012 93040400 		addi	s1,s0,%lo(.LANCHOR0)
 104              		.loc 1 35 8
 105 0016 09C5     		beq	a0,zero,.L10
  36:C:/Users/stapi/OneDrive/Desktop/GD32VW553/V1_MQTT_OK/GD32VW55X_Wifi_BLE_SDK/GD32VW55x_RELEASE_V1.0.2/MSDK/cloud/alicloud/src/infra/system\device.c ****         LITE_free(iotx_conn_info.host_name);
 106              		.loc 1 36 9 is_stmt 1
 107 0018 97000000 		call	LITE_free_internal
 107      E7800000 
 108              	.LVL8:
 109              	.L10:
  37:C:/Users/stapi/OneDrive/Desktop/GD32VW553/V1_MQTT_OK/GD32VW55X_Wifi_BLE_SDK/GD32VW55x_RELEASE_V1.0.2/MSDK/cloud/alicloud/src/infra/system\device.c ****     }
  38:C:/Users/stapi/OneDrive/Desktop/GD32VW553/V1_MQTT_OK/GD32VW55X_Wifi_BLE_SDK/GD32VW55x_RELEASE_V1.0.2/MSDK/cloud/alicloud/src/infra/system\device.c ****     if (iotx_conn_info.username != NULL) {
 110              		.loc 1 38 5
 111              		.loc 1 38 23 is_stmt 0
 112 0020 C844     		lw	a0,12(s1)
 113              		.loc 1 38 8
 114 0022 09C5     		beq	a0,zero,.L11
  39:C:/Users/stapi/OneDrive/Desktop/GD32VW553/V1_MQTT_OK/GD32VW55X_Wifi_BLE_SDK/GD32VW55x_RELEASE_V1.0.2/MSDK/cloud/alicloud/src/infra/system\device.c ****         LITE_free(iotx_conn_info.username);
 115              		.loc 1 39 9 is_stmt 1
 116 0024 97000000 		call	LITE_free_internal
 116      E7800000 
 117              	.LVL9:
 118              	.L11:
  40:C:/Users/stapi/OneDrive/Desktop/GD32VW553/V1_MQTT_OK/GD32VW55X_Wifi_BLE_SDK/GD32VW55x_RELEASE_V1.0.2/MSDK/cloud/alicloud/src/infra/system\device.c ****     }
  41:C:/Users/stapi/OneDrive/Desktop/GD32VW553/V1_MQTT_OK/GD32VW55X_Wifi_BLE_SDK/GD32VW55x_RELEASE_V1.0.2/MSDK/cloud/alicloud/src/infra/system\device.c ****     if (iotx_conn_info.password != NULL) {
 119              		.loc 1 41 5
 120              		.loc 1 41 23 is_stmt 0
 121 002c 8848     		lw	a0,16(s1)
 122              		.loc 1 41 8
 123 002e 09C5     		beq	a0,zero,.L12
  42:C:/Users/stapi/OneDrive/Desktop/GD32VW553/V1_MQTT_OK/GD32VW55X_Wifi_BLE_SDK/GD32VW55x_RELEASE_V1.0.2/MSDK/cloud/alicloud/src/infra/system\device.c ****         LITE_free(iotx_conn_info.password);
 124              		.loc 1 42 9 is_stmt 1
 125 0030 97000000 		call	LITE_free_internal
 125      E7800000 
 126              	.LVL10:
 127              	.L12:
  43:C:/Users/stapi/OneDrive/Desktop/GD32VW553/V1_MQTT_OK/GD32VW55X_Wifi_BLE_SDK/GD32VW55x_RELEASE_V1.0.2/MSDK/cloud/alicloud/src/infra/system\device.c ****     }
  44:C:/Users/stapi/OneDrive/Desktop/GD32VW553/V1_MQTT_OK/GD32VW55X_Wifi_BLE_SDK/GD32VW55x_RELEASE_V1.0.2/MSDK/cloud/alicloud/src/infra/system\device.c ****     if (iotx_conn_info.client_id != NULL) {
 128              		.loc 1 44 5
 129              		.loc 1 44 23 is_stmt 0
 130 0038 8844     		lw	a0,8(s1)
 131              		.loc 1 44 8
 132 003a 09C5     		beq	a0,zero,.L13
  45:C:/Users/stapi/OneDrive/Desktop/GD32VW553/V1_MQTT_OK/GD32VW55X_Wifi_BLE_SDK/GD32VW55x_RELEASE_V1.0.2/MSDK/cloud/alicloud/src/infra/system\device.c ****         LITE_free(iotx_conn_info.client_id);
 133              		.loc 1 45 9 is_stmt 1
 134 003c 97000000 		call	LITE_free_internal
 134      E7800000 
 135              	.LVL11:
 136              	.L13:
  46:C:/Users/stapi/OneDrive/Desktop/GD32VW553/V1_MQTT_OK/GD32VW55X_Wifi_BLE_SDK/GD32VW55x_RELEASE_V1.0.2/MSDK/cloud/alicloud/src/infra/system\device.c ****     }
  47:C:/Users/stapi/OneDrive/Desktop/GD32VW553/V1_MQTT_OK/GD32VW55X_Wifi_BLE_SDK/GD32VW55x_RELEASE_V1.0.2/MSDK/cloud/alicloud/src/infra/system\device.c ****     memset(&iotx_conn_info, 0, sizeof(iotx_conn_info));
 137              		.loc 1 47 5
 138 0044 6146     		li	a2,24
 139 0046 8145     		li	a1,0
 140 0048 13050400 		addi	a0,s0,%lo(.LANCHOR0)
 141 004c 97000000 		call	memset
 141      E7800000 
 142              	.LVL12:
  48:C:/Users/stapi/OneDrive/Desktop/GD32VW553/V1_MQTT_OK/GD32VW55X_Wifi_BLE_SDK/GD32VW55x_RELEASE_V1.0.2/MSDK/cloud/alicloud/src/infra/system\device.c **** }
 143              		.loc 1 48 1 is_stmt 0
 144 0054 17030000 		tail	__riscv_restore_2
 144      67000300 
 145              		.cfi_restore 9
 146              		.cfi_restore 8
 147              		.cfi_restore 1
 148              		.cfi_def_cfa_offset 0
 149              		.cfi_endproc
 150              	.LFE22:
 152              		.section	.text.iotx_conn_info_reload,"ax",@progbits
 153              		.align	1
 154              		.globl	iotx_conn_info_reload
 156              	iotx_conn_info_reload:
 157              	.LFB23:
  49:C:/Users/stapi/OneDrive/Desktop/GD32VW553/V1_MQTT_OK/GD32VW55X_Wifi_BLE_SDK/GD32VW55x_RELEASE_V1.0.2/MSDK/cloud/alicloud/src/infra/system\device.c **** 
  50:C:/Users/stapi/OneDrive/Desktop/GD32VW553/V1_MQTT_OK/GD32VW55X_Wifi_BLE_SDK/GD32VW55x_RELEASE_V1.0.2/MSDK/cloud/alicloud/src/infra/system\device.c **** iotx_conn_info_pt iotx_conn_info_reload(void (*cb)(void *), void* client)
  51:C:/Users/stapi/OneDrive/Desktop/GD32VW553/V1_MQTT_OK/GD32VW55X_Wifi_BLE_SDK/GD32VW55x_RELEASE_V1.0.2/MSDK/cloud/alicloud/src/infra/system\device.c **** {
 158              		.loc 1 51 1 is_stmt 1
 159              		.cfi_startproc
 160              	.LVL13:
 161 0000 17030000 		call	t0,__riscv_save_3
 161      E7020300 
 162              		.cfi_offset 18, -16
 163              		.cfi_offset 9, -12
 164              		.cfi_offset 8, -8
 165              		.cfi_offset 1, -4
 166              		.cfi_def_cfa_offset 16
  52:C:/Users/stapi/OneDrive/Desktop/GD32VW553/V1_MQTT_OK/GD32VW55X_Wifi_BLE_SDK/GD32VW55x_RELEASE_V1.0.2/MSDK/cloud/alicloud/src/infra/system\device.c ****     iotx_conn_info_release();
 167              		.loc 1 52 5
  51:C:/Users/stapi/OneDrive/Desktop/GD32VW553/V1_MQTT_OK/GD32VW55X_Wifi_BLE_SDK/GD32VW55x_RELEASE_V1.0.2/MSDK/cloud/alicloud/src/infra/system\device.c ****     iotx_conn_info_release();
 168              		.loc 1 51 1 is_stmt 0
 169 0008 4111     		addi	sp,sp,-16
 170              		.cfi_def_cfa_offset 32
  51:C:/Users/stapi/OneDrive/Desktop/GD32VW553/V1_MQTT_OK/GD32VW55X_Wifi_BLE_SDK/GD32VW55x_RELEASE_V1.0.2/MSDK/cloud/alicloud/src/infra/system\device.c ****     iotx_conn_info_release();
 171              		.loc 1 51 1
 172 000a AA84     		mv	s1,a0
 173 000c 2EC6     		sw	a1,12(sp)
 174              		.loc 1 52 5
 175 000e 97000000 		call	iotx_conn_info_release
 175      E7800000 
 176              	.LVL14:
  53:C:/Users/stapi/OneDrive/Desktop/GD32VW553/V1_MQTT_OK/GD32VW55X_Wifi_BLE_SDK/GD32VW55x_RELEASE_V1.0.2/MSDK/cloud/alicloud/src/infra/system\device.c ****     if (iotx_guider_authenticate(&iotx_conn_info, cb, client) < 0  || iotx_conn_info.init == 0) {
 177              		.loc 1 53 5 is_stmt 1
 178              		.loc 1 53 9 is_stmt 0
 179 0016 3246     		lw	a2,12(sp)
 180 0018 37040000 		lui	s0,%hi(.LANCHOR0)
 181 001c A685     		mv	a1,s1
 182 001e 13050400 		addi	a0,s0,%lo(.LANCHOR0)
 183 0022 97000000 		call	iotx_guider_authenticate
 183      E7800000 
 184              	.LVL15:
 185              		.loc 1 53 8
 186 002a 634F0500 		blt	a0,zero,.L29
 187 002e 13090400 		addi	s2,s0,%lo(.LANCHOR0)
 188              		.loc 1 53 68 discriminator 1
 189 0032 83472900 		lbu	a5,2(s2)
  54:C:/Users/stapi/OneDrive/Desktop/GD32VW553/V1_MQTT_OK/GD32VW55X_Wifi_BLE_SDK/GD32VW55x_RELEASE_V1.0.2/MSDK/cloud/alicloud/src/infra/system\device.c ****         return NULL;
 190              		.loc 1 54 16 discriminator 1
 191 0036 0145     		li	a0,0
  53:C:/Users/stapi/OneDrive/Desktop/GD32VW553/V1_MQTT_OK/GD32VW55X_Wifi_BLE_SDK/GD32VW55x_RELEASE_V1.0.2/MSDK/cloud/alicloud/src/infra/system\device.c ****     if (iotx_guider_authenticate(&iotx_conn_info, cb, client) < 0  || iotx_conn_info.init == 0) {
 192              		.loc 1 53 68 discriminator 1
 193 0038 99C3     		beq	a5,zero,.L27
  55:C:/Users/stapi/OneDrive/Desktop/GD32VW553/V1_MQTT_OK/GD32VW55X_Wifi_BLE_SDK/GD32VW55x_RELEASE_V1.0.2/MSDK/cloud/alicloud/src/infra/system\device.c ****     }
  56:C:/Users/stapi/OneDrive/Desktop/GD32VW553/V1_MQTT_OK/GD32VW55X_Wifi_BLE_SDK/GD32VW55x_RELEASE_V1.0.2/MSDK/cloud/alicloud/src/infra/system\device.c ****     return &iotx_conn_info;
 194              		.loc 1 56 12
 195 003a 13050400 		addi	a0,s0,%lo(.LANCHOR0)
 196              	.L27:
  57:C:/Users/stapi/OneDrive/Desktop/GD32VW553/V1_MQTT_OK/GD32VW55X_Wifi_BLE_SDK/GD32VW55x_RELEASE_V1.0.2/MSDK/cloud/alicloud/src/infra/system\device.c **** }
 197              		.loc 1 57 1
 198 003e 4101     		addi	sp,sp,16
 199              		.cfi_remember_state
 200              		.cfi_def_cfa_offset 0
 201              	.LVL16:
 202 0040 17030000 		tail	__riscv_restore_3
 202      67000300 
 203              		.cfi_restore 18
 204              		.cfi_restore 9
 205              		.cfi_restore 8
 206              		.cfi_restore 1
 207              		.cfi_def_cfa_offset -16
 208              	.LVL17:
 209              	.L29:
 210              		.cfi_restore_state
  54:C:/Users/stapi/OneDrive/Desktop/GD32VW553/V1_MQTT_OK/GD32VW55X_Wifi_BLE_SDK/GD32VW55x_RELEASE_V1.0.2/MSDK/cloud/alicloud/src/infra/system\device.c ****         return NULL;
 211              		.loc 1 54 16
 212 0048 0145     		li	a0,0
 213 004a D5BF     		j	.L27
 214              		.cfi_endproc
 215              	.LFE23:
 217              		.section	.bss.iotx_conn_info,"aw",@nobits
 218              		.align	2
 219              		.set	.LANCHOR0,. + 0
 222              	iotx_conn_info:
 223 0000 00000000 		.zero	24
 223      00000000 
 223      00000000 
 223      00000000 
 223      00000000 
 224              		.text
 225              	.Letext0:
 226              		.file 2 "c:\\users\\stapi\\onedrive\\desktop\\gd32vw553\\embeddedbuilder_v1.4.7.26843\\tools\\nucl
 227              		.file 3 "c:\\users\\stapi\\onedrive\\desktop\\gd32vw553\\embeddedbuilder_v1.4.7.26843\\tools\\nucl
 228              		.file 4 "..\\..\\..\\..\\cloud\\alicloud\\include/iot_export.h"
 229              		.file 5 "C:/Users/stapi/OneDrive/Desktop/GD32VW553/V1_MQTT_OK/GD32VW55X_Wifi_BLE_SDK/GD32VW55x_REL
 230              		.file 6 "..\\..\\..\\..\\cloud\\alicloud\\src\\infra\\utils/iotx_utils.h"
 231              		.file 7 "..\\..\\..\\..\\cloud\\alicloud\\include/imports/iot_import_product.h"
 232              		.file 8 "<built-in>"
DEFINED SYMBOLS
                            *ABS*:0000000000000000 device.c
C:\Users\stapi\AppData\Local\Temp\ccjq5fWe.s:13     .text.iotx_device_info_get:0000000000000000 iotx_device_info_get
C:\Users\stapi\AppData\Local\Temp\ccjq5fWe.s:17     .text.iotx_device_info_get:0000000000000000 .L0 
C:\Users\stapi\AppData\Local\Temp\ccjq5fWe.s:19     .text.iotx_device_info_get:0000000000000000 .L0 
C:\Users\stapi\AppData\Local\Temp\ccjq5fWe.s:20     .text.iotx_device_info_get:0000000000000000 .L0 
C:\Users\stapi\AppData\Local\Temp\ccjq5fWe.s:21     .text.iotx_device_info_get:0000000000000000 .L0 
C:\Users\stapi\AppData\Local\Temp\ccjq5fWe.s:23     .text.iotx_device_info_get:0000000000000002 .L0 
C:\Users\stapi\AppData\Local\Temp\ccjq5fWe.s:24     .text.iotx_device_info_get:000000000000000a .L0 
C:\Users\stapi\AppData\Local\Temp\ccjq5fWe.s:25     .text.iotx_device_info_get:000000000000000a .L0 
C:\Users\stapi\AppData\Local\Temp\ccjq5fWe.s:26     .text.iotx_device_info_get:000000000000000a .L0 
C:\Users\stapi\AppData\Local\Temp\ccjq5fWe.s:28     .text.iotx_device_info_get:000000000000000a .L0 
C:\Users\stapi\AppData\Local\Temp\ccjq5fWe.s:32     .text.iotx_device_info_get:0000000000000012 .L0 
C:\Users\stapi\AppData\Local\Temp\ccjq5fWe.s:35     .text.iotx_device_info_get:000000000000001a .L0 
C:\Users\stapi\AppData\Local\Temp\ccjq5fWe.s:39     .text.iotx_device_info_get:0000000000000024 .L0 
C:\Users\stapi\AppData\Local\Temp\ccjq5fWe.s:43     .text.iotx_device_info_get:0000000000000030 .L0 
C:\Users\stapi\AppData\Local\Temp\ccjq5fWe.s:47     .text.iotx_device_info_get:000000000000003c .L0 
C:\Users\stapi\AppData\Local\Temp\ccjq5fWe.s:51     .text.iotx_device_info_get:0000000000000048 .L0 
C:\Users\stapi\AppData\Local\Temp\ccjq5fWe.s:52     .text.iotx_device_info_get:0000000000000048 .L0 
C:\Users\stapi\AppData\Local\Temp\ccjq5fWe.s:54     .text.iotx_device_info_get:000000000000004a .L0 
C:\Users\stapi\AppData\Local\Temp\ccjq5fWe.s:55     .text.iotx_device_info_get:0000000000000052 .L0 
C:\Users\stapi\AppData\Local\Temp\ccjq5fWe.s:56     .text.iotx_device_info_get:0000000000000052 .L0 
C:\Users\stapi\AppData\Local\Temp\ccjq5fWe.s:57     .text.iotx_device_info_get:0000000000000052 .L0 
C:\Users\stapi\AppData\Local\Temp\ccjq5fWe.s:61     .text.iotx_device_info_get:0000000000000052 .L0 
C:\Users\stapi\AppData\Local\Temp\ccjq5fWe.s:64     .text.iotx_device_info_get:0000000000000054 .L0 
C:\Users\stapi\AppData\Local\Temp\ccjq5fWe.s:65     .text.iotx_device_info_get:0000000000000056 .L0 
C:\Users\stapi\AppData\Local\Temp\ccjq5fWe.s:72     .text.iotx_conn_info_get:0000000000000000 iotx_conn_info_get
C:\Users\stapi\AppData\Local\Temp\ccjq5fWe.s:75     .text.iotx_conn_info_get:0000000000000000 .L0 
C:\Users\stapi\AppData\Local\Temp\ccjq5fWe.s:76     .text.iotx_conn_info_get:0000000000000000 .L0 
C:\Users\stapi\AppData\Local\Temp\ccjq5fWe.s:77     .text.iotx_conn_info_get:0000000000000000 .L0 
C:\Users\stapi\AppData\Local\Temp\ccjq5fWe.s:78     .text.iotx_conn_info_get:0000000000000000 .L0 
C:\Users\stapi\AppData\Local\Temp\ccjq5fWe.s:80     .text.iotx_conn_info_get:0000000000000004 .L0 
C:\Users\stapi\AppData\Local\Temp\ccjq5fWe.s:82     .text.iotx_conn_info_get:000000000000000a .L0 
C:\Users\stapi\AppData\Local\Temp\ccjq5fWe.s:89     .text.iotx_conn_info_release:0000000000000000 iotx_conn_info_release
C:\Users\stapi\AppData\Local\Temp\ccjq5fWe.s:92     .text.iotx_conn_info_release:0000000000000000 .L0 
C:\Users\stapi\AppData\Local\Temp\ccjq5fWe.s:93     .text.iotx_conn_info_release:0000000000000000 .L0 
C:\Users\stapi\AppData\Local\Temp\ccjq5fWe.s:94     .text.iotx_conn_info_release:0000000000000008 .L0 
C:\Users\stapi\AppData\Local\Temp\ccjq5fWe.s:95     .text.iotx_conn_info_release:0000000000000008 .L0 
C:\Users\stapi\AppData\Local\Temp\ccjq5fWe.s:96     .text.iotx_conn_info_release:0000000000000008 .L0 
C:\Users\stapi\AppData\Local\Temp\ccjq5fWe.s:97     .text.iotx_conn_info_release:0000000000000008 .L0 
C:\Users\stapi\AppData\Local\Temp\ccjq5fWe.s:99     .text.iotx_conn_info_release:0000000000000008 .L0 
C:\Users\stapi\AppData\Local\Temp\ccjq5fWe.s:100    .text.iotx_conn_info_release:0000000000000008 .L0 
C:\Users\stapi\AppData\Local\Temp\ccjq5fWe.s:105    .text.iotx_conn_info_release:0000000000000016 .L0 
C:\Users\stapi\AppData\Local\Temp\ccjq5fWe.s:107    .text.iotx_conn_info_release:0000000000000018 .L0 
C:\Users\stapi\AppData\Local\Temp\ccjq5fWe.s:111    .text.iotx_conn_info_release:0000000000000020 .L0 
C:\Users\stapi\AppData\Local\Temp\ccjq5fWe.s:112    .text.iotx_conn_info_release:0000000000000020 .L0 
C:\Users\stapi\AppData\Local\Temp\ccjq5fWe.s:114    .text.iotx_conn_info_release:0000000000000022 .L0 
C:\Users\stapi\AppData\Local\Temp\ccjq5fWe.s:116    .text.iotx_conn_info_release:0000000000000024 .L0 
C:\Users\stapi\AppData\Local\Temp\ccjq5fWe.s:120    .text.iotx_conn_info_release:000000000000002c .L0 
C:\Users\stapi\AppData\Local\Temp\ccjq5fWe.s:121    .text.iotx_conn_info_release:000000000000002c .L0 
C:\Users\stapi\AppData\Local\Temp\ccjq5fWe.s:123    .text.iotx_conn_info_release:000000000000002e .L0 
C:\Users\stapi\AppData\Local\Temp\ccjq5fWe.s:125    .text.iotx_conn_info_release:0000000000000030 .L0 
C:\Users\stapi\AppData\Local\Temp\ccjq5fWe.s:129    .text.iotx_conn_info_release:0000000000000038 .L0 
C:\Users\stapi\AppData\Local\Temp\ccjq5fWe.s:130    .text.iotx_conn_info_release:0000000000000038 .L0 
C:\Users\stapi\AppData\Local\Temp\ccjq5fWe.s:132    .text.iotx_conn_info_release:000000000000003a .L0 
C:\Users\stapi\AppData\Local\Temp\ccjq5fWe.s:134    .text.iotx_conn_info_release:000000000000003c .L0 
C:\Users\stapi\AppData\Local\Temp\ccjq5fWe.s:138    .text.iotx_conn_info_release:0000000000000044 .L0 
C:\Users\stapi\AppData\Local\Temp\ccjq5fWe.s:144    .text.iotx_conn_info_release:0000000000000054 .L0 
C:\Users\stapi\AppData\Local\Temp\ccjq5fWe.s:145    .text.iotx_conn_info_release:000000000000005c .L0 
C:\Users\stapi\AppData\Local\Temp\ccjq5fWe.s:146    .text.iotx_conn_info_release:000000000000005c .L0 
C:\Users\stapi\AppData\Local\Temp\ccjq5fWe.s:147    .text.iotx_conn_info_release:000000000000005c .L0 
C:\Users\stapi\AppData\Local\Temp\ccjq5fWe.s:148    .text.iotx_conn_info_release:000000000000005c .L0 
C:\Users\stapi\AppData\Local\Temp\ccjq5fWe.s:149    .text.iotx_conn_info_release:000000000000005c .L0 
C:\Users\stapi\AppData\Local\Temp\ccjq5fWe.s:156    .text.iotx_conn_info_reload:0000000000000000 iotx_conn_info_reload
C:\Users\stapi\AppData\Local\Temp\ccjq5fWe.s:159    .text.iotx_conn_info_reload:0000000000000000 .L0 
C:\Users\stapi\AppData\Local\Temp\ccjq5fWe.s:161    .text.iotx_conn_info_reload:0000000000000000 .L0 
C:\Users\stapi\AppData\Local\Temp\ccjq5fWe.s:162    .text.iotx_conn_info_reload:0000000000000008 .L0 
C:\Users\stapi\AppData\Local\Temp\ccjq5fWe.s:163    .text.iotx_conn_info_reload:0000000000000008 .L0 
C:\Users\stapi\AppData\Local\Temp\ccjq5fWe.s:164    .text.iotx_conn_info_reload:0000000000000008 .L0 
C:\Users\stapi\AppData\Local\Temp\ccjq5fWe.s:165    .text.iotx_conn_info_reload:0000000000000008 .L0 
C:\Users\stapi\AppData\Local\Temp\ccjq5fWe.s:166    .text.iotx_conn_info_reload:0000000000000008 .L0 
C:\Users\stapi\AppData\Local\Temp\ccjq5fWe.s:168    .text.iotx_conn_info_reload:0000000000000008 .L0 
C:\Users\stapi\AppData\Local\Temp\ccjq5fWe.s:169    .text.iotx_conn_info_reload:0000000000000008 .L0 
C:\Users\stapi\AppData\Local\Temp\ccjq5fWe.s:170    .text.iotx_conn_info_reload:000000000000000a .L0 
C:\Users\stapi\AppData\Local\Temp\ccjq5fWe.s:172    .text.iotx_conn_info_reload:000000000000000a .L0 
C:\Users\stapi\AppData\Local\Temp\ccjq5fWe.s:175    .text.iotx_conn_info_reload:000000000000000e .L0 
C:\Users\stapi\AppData\Local\Temp\ccjq5fWe.s:178    .text.iotx_conn_info_reload:0000000000000016 .L0 
C:\Users\stapi\AppData\Local\Temp\ccjq5fWe.s:179    .text.iotx_conn_info_reload:0000000000000016 .L0 
C:\Users\stapi\AppData\Local\Temp\ccjq5fWe.s:186    .text.iotx_conn_info_reload:000000000000002a .L0 
C:\Users\stapi\AppData\Local\Temp\ccjq5fWe.s:189    .text.iotx_conn_info_reload:0000000000000032 .L0 
C:\Users\stapi\AppData\Local\Temp\ccjq5fWe.s:191    .text.iotx_conn_info_reload:0000000000000036 .L0 
C:\Users\stapi\AppData\Local\Temp\ccjq5fWe.s:193    .text.iotx_conn_info_reload:0000000000000038 .L0 
C:\Users\stapi\AppData\Local\Temp\ccjq5fWe.s:195    .text.iotx_conn_info_reload:000000000000003a .L0 
C:\Users\stapi\AppData\Local\Temp\ccjq5fWe.s:198    .text.iotx_conn_info_reload:000000000000003e .L0 
C:\Users\stapi\AppData\Local\Temp\ccjq5fWe.s:199    .text.iotx_conn_info_reload:0000000000000040 .L0 
C:\Users\stapi\AppData\Local\Temp\ccjq5fWe.s:200    .text.iotx_conn_info_reload:0000000000000040 .L0 
C:\Users\stapi\AppData\Local\Temp\ccjq5fWe.s:203    .text.iotx_conn_info_reload:0000000000000048 .L0 
C:\Users\stapi\AppData\Local\Temp\ccjq5fWe.s:204    .text.iotx_conn_info_reload:0000000000000048 .L0 
C:\Users\stapi\AppData\Local\Temp\ccjq5fWe.s:205    .text.iotx_conn_info_reload:0000000000000048 .L0 
C:\Users\stapi\AppData\Local\Temp\ccjq5fWe.s:206    .text.iotx_conn_info_reload:0000000000000048 .L0 
C:\Users\stapi\AppData\Local\Temp\ccjq5fWe.s:207    .text.iotx_conn_info_reload:0000000000000048 .L0 
C:\Users\stapi\AppData\Local\Temp\ccjq5fWe.s:210    .text.iotx_conn_info_reload:0000000000000048 .L0 
C:\Users\stapi\AppData\Local\Temp\ccjq5fWe.s:212    .text.iotx_conn_info_reload:0000000000000048 .L0 
C:\Users\stapi\AppData\Local\Temp\ccjq5fWe.s:214    .text.iotx_conn_info_reload:000000000000004c .L0 
C:\Users\stapi\AppData\Local\Temp\ccjq5fWe.s:219    .bss.iotx_conn_info:0000000000000000 .LANCHOR0
C:\Users\stapi\AppData\Local\Temp\ccjq5fWe.s:222    .bss.iotx_conn_info:0000000000000000 iotx_conn_info
C:\Users\stapi\AppData\Local\Temp\ccjq5fWe.s:68     .text.iotx_device_info_get:0000000000000056 .L0 
C:\Users\stapi\AppData\Local\Temp\ccjq5fWe.s:85     .text.iotx_conn_info_get:000000000000000a .L0 
C:\Users\stapi\AppData\Local\Temp\ccjq5fWe.s:152    .text.iotx_conn_info_release:000000000000005c .L0 
C:\Users\stapi\AppData\Local\Temp\ccjq5fWe.s:217    .text.iotx_conn_info_reload:000000000000004c .L0 
                     .debug_frame:0000000000000000 .L0 
C:\Users\stapi\AppData\Local\Temp\ccjq5fWe.s:59     .text.iotx_device_info_get:0000000000000052 .L3
C:\Users\stapi\AppData\Local\Temp\ccjq5fWe.s:109    .text.iotx_conn_info_release:0000000000000020 .L10
C:\Users\stapi\AppData\Local\Temp\ccjq5fWe.s:118    .text.iotx_conn_info_release:000000000000002c .L11
C:\Users\stapi\AppData\Local\Temp\ccjq5fWe.s:127    .text.iotx_conn_info_release:0000000000000038 .L12
C:\Users\stapi\AppData\Local\Temp\ccjq5fWe.s:136    .text.iotx_conn_info_release:0000000000000044 .L13
C:\Users\stapi\AppData\Local\Temp\ccjq5fWe.s:209    .text.iotx_conn_info_reload:0000000000000048 .L29
C:\Users\stapi\AppData\Local\Temp\ccjq5fWe.s:196    .text.iotx_conn_info_reload:000000000000003e .L27
C:\Users\stapi\AppData\Local\Temp\ccjq5fWe.s:721    .debug_abbrev:0000000000000000 .Ldebug_abbrev0
C:\Users\stapi\AppData\Local\Temp\ccjq5fWe.s:1238   .debug_str:000000000000025e .LASF40
C:\Users\stapi\AppData\Local\Temp\ccjq5fWe.s:1258   .debug_str:00000000000003d7 .LASF41
C:\Users\stapi\AppData\Local\Temp\ccjq5fWe.s:1170   .debug_str:0000000000000023 .LASF42
C:\Users\stapi\AppData\Local\Temp\ccjq5fWe.s:1152   .debug_ranges:0000000000000000 .Ldebug_ranges0
C:\Users\stapi\AppData\Local\Temp\ccjq5fWe.s:1164   .debug_line:0000000000000000 .Ldebug_line0
C:\Users\stapi\AppData\Local\Temp\ccjq5fWe.s:1176   .debug_str:00000000000000db .LASF0
C:\Users\stapi\AppData\Local\Temp\ccjq5fWe.s:1252   .debug_str:00000000000003a9 .LASF1
C:\Users\stapi\AppData\Local\Temp\ccjq5fWe.s:1168   .debug_str:0000000000000019 .LASF4
C:\Users\stapi\AppData\Local\Temp\ccjq5fWe.s:1192   .debug_str:0000000000000151 .LASF2
C:\Users\stapi\AppData\Local\Temp\ccjq5fWe.s:1212   .debug_str:00000000000001da .LASF3
C:\Users\stapi\AppData\Local\Temp\ccjq5fWe.s:1208   .debug_str:00000000000001c3 .LASF5
C:\Users\stapi\AppData\Local\Temp\ccjq5fWe.s:1172   .debug_str:00000000000000b4 .LASF6
C:\Users\stapi\AppData\Local\Temp\ccjq5fWe.s:1246   .debug_str:0000000000000377 .LASF7
C:\Users\stapi\AppData\Local\Temp\ccjq5fWe.s:1196   .debug_str:0000000000000170 .LASF8
C:\Users\stapi\AppData\Local\Temp\ccjq5fWe.s:1230   .debug_str:000000000000023d .LASF9
C:\Users\stapi\AppData\Local\Temp\ccjq5fWe.s:1188   .debug_str:0000000000000129 .LASF10
C:\Users\stapi\AppData\Local\Temp\ccjq5fWe.s:1220   .debug_str:000000000000020c .LASF11
C:\Users\stapi\AppData\Local\Temp\ccjq5fWe.s:1222   .debug_str:0000000000000211 .LASF12
C:\Users\stapi\AppData\Local\Temp\ccjq5fWe.s:1236   .debug_str:0000000000000255 .LASF13
C:\Users\stapi\AppData\Local\Temp\ccjq5fWe.s:1210   .debug_str:00000000000001ce .LASF14
C:\Users\stapi\AppData\Local\Temp\ccjq5fWe.s:1198   .debug_str:0000000000000182 .LASF15
C:\Users\stapi\AppData\Local\Temp\ccjq5fWe.s:1226   .debug_str:000000000000022c .LASF16
C:\Users\stapi\AppData\Local\Temp\ccjq5fWe.s:1214   .debug_str:00000000000001e4 .LASF17
C:\Users\stapi\AppData\Local\Temp\ccjq5fWe.s:1242   .debug_str:000000000000034f .LASF18
C:\Users\stapi\AppData\Local\Temp\ccjq5fWe.s:1248   .debug_str:0000000000000380 .LASF19
C:\Users\stapi\AppData\Local\Temp\ccjq5fWe.s:1234   .debug_str:0000000000000250 .LASF20
C:\Users\stapi\AppData\Local\Temp\ccjq5fWe.s:1232   .debug_str:000000000000024b .LASF21
C:\Users\stapi\AppData\Local\Temp\ccjq5fWe.s:1240   .debug_str:0000000000000345 .LASF22
C:\Users\stapi\AppData\Local\Temp\ccjq5fWe.s:1204   .debug_str:00000000000001b2 .LASF23
C:\Users\stapi\AppData\Local\Temp\ccjq5fWe.s:1184   .debug_str:0000000000000110 .LASF24
C:\Users\stapi\AppData\Local\Temp\ccjq5fWe.s:1260   .debug_str:000000000000046a .LASF25
C:\Users\stapi\AppData\Local\Temp\ccjq5fWe.s:1218   .debug_str:0000000000000204 .LASF26
C:\Users\stapi\AppData\Local\Temp\ccjq5fWe.s:1190   .debug_str:0000000000000140 .LASF27
C:\Users\stapi\AppData\Local\Temp\ccjq5fWe.s:1202   .debug_str:00000000000001a0 .LASF28
C:\Users\stapi\AppData\Local\Temp\ccjq5fWe.s:1178   .debug_str:00000000000000e8 .LASF29
C:\Users\stapi\AppData\Local\Temp\ccjq5fWe.s:1254   .debug_str:00000000000003b5 .LASF43
C:\Users\stapi\AppData\Local\Temp\ccjq5fWe.s:1250   .debug_str:0000000000000393 .LASF31
C:\Users\stapi\AppData\Local\Temp\ccjq5fWe.s:157    .text.iotx_conn_info_reload:0000000000000000 .LFB23
C:\Users\stapi\AppData\Local\Temp\ccjq5fWe.s:215    .text.iotx_conn_info_reload:000000000000004c .LFE23
C:\Users\stapi\AppData\Local\Temp\ccjq5fWe.s:1078   .debug_loc:0000000000000000 .LLST1
C:\Users\stapi\AppData\Local\Temp\ccjq5fWe.s:1228   .debug_str:0000000000000236 .LASF30
C:\Users\stapi\AppData\Local\Temp\ccjq5fWe.s:1089   .debug_loc:000000000000001e .LLST2
C:\Users\stapi\AppData\Local\Temp\ccjq5fWe.s:176    .text.iotx_conn_info_reload:0000000000000016 .LVL14
C:\Users\stapi\AppData\Local\Temp\ccjq5fWe.s:184    .text.iotx_conn_info_reload:000000000000002a .LVL15
C:\Users\stapi\AppData\Local\Temp\ccjq5fWe.s:1244   .debug_str:0000000000000360 .LASF44
C:\Users\stapi\AppData\Local\Temp\ccjq5fWe.s:90     .text.iotx_conn_info_release:0000000000000000 .LFB22
C:\Users\stapi\AppData\Local\Temp\ccjq5fWe.s:150    .text.iotx_conn_info_release:000000000000005c .LFE22
C:\Users\stapi\AppData\Local\Temp\ccjq5fWe.s:108    .text.iotx_conn_info_release:0000000000000020 .LVL8
C:\Users\stapi\AppData\Local\Temp\ccjq5fWe.s:117    .text.iotx_conn_info_release:000000000000002c .LVL9
C:\Users\stapi\AppData\Local\Temp\ccjq5fWe.s:126    .text.iotx_conn_info_release:0000000000000038 .LVL10
C:\Users\stapi\AppData\Local\Temp\ccjq5fWe.s:135    .text.iotx_conn_info_release:0000000000000044 .LVL11
C:\Users\stapi\AppData\Local\Temp\ccjq5fWe.s:142    .text.iotx_conn_info_release:0000000000000054 .LVL12
C:\Users\stapi\AppData\Local\Temp\ccjq5fWe.s:1224   .debug_str:0000000000000219 .LASF45
C:\Users\stapi\AppData\Local\Temp\ccjq5fWe.s:73     .text.iotx_conn_info_get:0000000000000000 .LFB21
C:\Users\stapi\AppData\Local\Temp\ccjq5fWe.s:83     .text.iotx_conn_info_get:000000000000000a .LFE21
C:\Users\stapi\AppData\Local\Temp\ccjq5fWe.s:1182   .debug_str:00000000000000fb .LASF32
C:\Users\stapi\AppData\Local\Temp\ccjq5fWe.s:14     .text.iotx_device_info_get:0000000000000000 .LFB20
C:\Users\stapi\AppData\Local\Temp\ccjq5fWe.s:66     .text.iotx_device_info_get:0000000000000056 .LFE20
C:\Users\stapi\AppData\Local\Temp\ccjq5fWe.s:1180   .debug_str:00000000000000ef .LASF33
C:\Users\stapi\AppData\Local\Temp\ccjq5fWe.s:1111   .debug_loc:0000000000000055 .LLST0
C:\Users\stapi\AppData\Local\Temp\ccjq5fWe.s:33     .text.iotx_device_info_get:000000000000001a .LVL1
C:\Users\stapi\AppData\Local\Temp\ccjq5fWe.s:37     .text.iotx_device_info_get:0000000000000024 .LVL2
C:\Users\stapi\AppData\Local\Temp\ccjq5fWe.s:41     .text.iotx_device_info_get:0000000000000030 .LVL3
C:\Users\stapi\AppData\Local\Temp\ccjq5fWe.s:45     .text.iotx_device_info_get:000000000000003c .LVL4
C:\Users\stapi\AppData\Local\Temp\ccjq5fWe.s:49     .text.iotx_device_info_get:0000000000000048 .LVL5
C:\Users\stapi\AppData\Local\Temp\ccjq5fWe.s:1166   .debug_str:0000000000000000 .LASF34
C:\Users\stapi\AppData\Local\Temp\ccjq5fWe.s:1256   .debug_str:00000000000003c4 .LASF35
C:\Users\stapi\AppData\Local\Temp\ccjq5fWe.s:1206   .debug_str:00000000000001bc .LASF46
C:\Users\stapi\AppData\Local\Temp\ccjq5fWe.s:1194   .debug_str:000000000000015f .LASF47
C:\Users\stapi\AppData\Local\Temp\ccjq5fWe.s:1200   .debug_str:000000000000018e .LASF36
C:\Users\stapi\AppData\Local\Temp\ccjq5fWe.s:1216   .debug_str:00000000000001f2 .LASF37
C:\Users\stapi\AppData\Local\Temp\ccjq5fWe.s:1174   .debug_str:00000000000000c7 .LASF38
C:\Users\stapi\AppData\Local\Temp\ccjq5fWe.s:1186   .debug_str:0000000000000119 .LASF39
C:\Users\stapi\AppData\Local\Temp\ccjq5fWe.s:160    .text.iotx_conn_info_reload:0000000000000000 .LVL13
C:\Users\stapi\AppData\Local\Temp\ccjq5fWe.s:201    .text.iotx_conn_info_reload:0000000000000040 .LVL16
C:\Users\stapi\AppData\Local\Temp\ccjq5fWe.s:208    .text.iotx_conn_info_reload:0000000000000048 .LVL17
C:\Users\stapi\AppData\Local\Temp\ccjq5fWe.s:18     .text.iotx_device_info_get:0000000000000000 .LVL0
C:\Users\stapi\AppData\Local\Temp\ccjq5fWe.s:58     .text.iotx_device_info_get:0000000000000052 .LVL6
C:\Users\stapi\AppData\Local\Temp\ccjq5fWe.s:62     .text.iotx_device_info_get:0000000000000054 .LVL7
C:\Users\stapi\AppData\Local\Temp\ccjq5fWe.s:234    .debug_info:0000000000000000 .Ldebug_info0

UNDEFINED SYMBOLS
__riscv_save_1
memset
HAL_GetProductKey
HAL_GetDeviceName
HAL_GetDeviceSecret
HAL_GetDeviceID
__riscv_restore_1
__riscv_save_2
LITE_free_internal
__riscv_restore_2
__riscv_save_3
iotx_guider_authenticate
__riscv_restore_3
