   1              		.file	"event.c"
   2              		.option nopic
   3              		.attribute arch, "rv32i2p0_m2p0_a2p0_f2p0_c2p0_b_p0p94"
   4              		.attribute unaligned_access, 0
   5              		.attribute stack_align, 16
   6              		.text
   7              	.Ltext0:
   8              		.cfi_sections	.debug_frame
   9              		.section	.text.iotx_event_callback,"ax",@progbits
  10              		.align	1
  11              		.globl	iotx_event_callback
  13              	iotx_event_callback:
  14              	.LFB4:
  15              		.file 1 "C:/Users/stapi/OneDrive/Desktop/GD32VW553/V1_MQTT_OK/GD32VW55X_Wifi_BLE_SDK/GD32VW55x_REL
   1:C:/Users/stapi/OneDrive/Desktop/GD32VW553/V1_MQTT_OK/GD32VW55X_Wifi_BLE_SDK/GD32VW55x_RELEASE_V1.0.2/MSDK/cloud/alicloud/src/infra/system\event.c **** #include <string.h>
   2:C:/Users/stapi/OneDrive/Desktop/GD32VW553/V1_MQTT_OK/GD32VW55X_Wifi_BLE_SDK/GD32VW55x_RELEASE_V1.0.2/MSDK/cloud/alicloud/src/infra/system\event.c **** #include "iot_export.h"
   3:C:/Users/stapi/OneDrive/Desktop/GD32VW553/V1_MQTT_OK/GD32VW55X_Wifi_BLE_SDK/GD32VW55x_RELEASE_V1.0.2/MSDK/cloud/alicloud/src/infra/system\event.c **** 
   4:C:/Users/stapi/OneDrive/Desktop/GD32VW553/V1_MQTT_OK/GD32VW55X_Wifi_BLE_SDK/GD32VW55x_RELEASE_V1.0.2/MSDK/cloud/alicloud/src/infra/system\event.c **** typedef struct {
   5:C:/Users/stapi/OneDrive/Desktop/GD32VW553/V1_MQTT_OK/GD32VW55X_Wifi_BLE_SDK/GD32VW55x_RELEASE_V1.0.2/MSDK/cloud/alicloud/src/infra/system\event.c ****     int eventid;
   6:C:/Users/stapi/OneDrive/Desktop/GD32VW553/V1_MQTT_OK/GD32VW55X_Wifi_BLE_SDK/GD32VW55x_RELEASE_V1.0.2/MSDK/cloud/alicloud/src/infra/system\event.c ****     void *callback;
   7:C:/Users/stapi/OneDrive/Desktop/GD32VW553/V1_MQTT_OK/GD32VW55X_Wifi_BLE_SDK/GD32VW55x_RELEASE_V1.0.2/MSDK/cloud/alicloud/src/infra/system\event.c **** } impl_event_map_t;
   8:C:/Users/stapi/OneDrive/Desktop/GD32VW553/V1_MQTT_OK/GD32VW55X_Wifi_BLE_SDK/GD32VW55x_RELEASE_V1.0.2/MSDK/cloud/alicloud/src/infra/system\event.c **** 
   9:C:/Users/stapi/OneDrive/Desktop/GD32VW553/V1_MQTT_OK/GD32VW55X_Wifi_BLE_SDK/GD32VW55x_RELEASE_V1.0.2/MSDK/cloud/alicloud/src/infra/system\event.c **** static impl_event_map_t g_impl_event_map[] = {
  10:C:/Users/stapi/OneDrive/Desktop/GD32VW553/V1_MQTT_OK/GD32VW55X_Wifi_BLE_SDK/GD32VW55x_RELEASE_V1.0.2/MSDK/cloud/alicloud/src/infra/system\event.c ****     {ITE_AWSS_STATUS,          NULL},
  11:C:/Users/stapi/OneDrive/Desktop/GD32VW553/V1_MQTT_OK/GD32VW55X_Wifi_BLE_SDK/GD32VW55x_RELEASE_V1.0.2/MSDK/cloud/alicloud/src/infra/system\event.c ****     {ITE_CONNECT_SUCC,         NULL},
  12:C:/Users/stapi/OneDrive/Desktop/GD32VW553/V1_MQTT_OK/GD32VW55X_Wifi_BLE_SDK/GD32VW55x_RELEASE_V1.0.2/MSDK/cloud/alicloud/src/infra/system\event.c ****     {ITE_CONNECT_FAIL,         NULL},
  13:C:/Users/stapi/OneDrive/Desktop/GD32VW553/V1_MQTT_OK/GD32VW55X_Wifi_BLE_SDK/GD32VW55x_RELEASE_V1.0.2/MSDK/cloud/alicloud/src/infra/system\event.c ****     {ITE_DISCONNECTED,         NULL},
  14:C:/Users/stapi/OneDrive/Desktop/GD32VW553/V1_MQTT_OK/GD32VW55X_Wifi_BLE_SDK/GD32VW55x_RELEASE_V1.0.2/MSDK/cloud/alicloud/src/infra/system\event.c ****     {ITE_REDIRECT,             NULL},
  15:C:/Users/stapi/OneDrive/Desktop/GD32VW553/V1_MQTT_OK/GD32VW55X_Wifi_BLE_SDK/GD32VW55x_RELEASE_V1.0.2/MSDK/cloud/alicloud/src/infra/system\event.c ****     {ITE_OFFLINE_RESET,        NULL},
  16:C:/Users/stapi/OneDrive/Desktop/GD32VW553/V1_MQTT_OK/GD32VW55X_Wifi_BLE_SDK/GD32VW55x_RELEASE_V1.0.2/MSDK/cloud/alicloud/src/infra/system\event.c ****     {ITE_RAWDATA_ARRIVED,      NULL},
  17:C:/Users/stapi/OneDrive/Desktop/GD32VW553/V1_MQTT_OK/GD32VW55X_Wifi_BLE_SDK/GD32VW55x_RELEASE_V1.0.2/MSDK/cloud/alicloud/src/infra/system\event.c **** #ifndef LINK_VISUAL_ENABLE
  18:C:/Users/stapi/OneDrive/Desktop/GD32VW553/V1_MQTT_OK/GD32VW55X_Wifi_BLE_SDK/GD32VW55x_RELEASE_V1.0.2/MSDK/cloud/alicloud/src/infra/system\event.c ****     {ITE_SERVICE_REQUEST,      NULL},
  19:C:/Users/stapi/OneDrive/Desktop/GD32VW553/V1_MQTT_OK/GD32VW55X_Wifi_BLE_SDK/GD32VW55x_RELEASE_V1.0.2/MSDK/cloud/alicloud/src/infra/system\event.c **** #else
  20:C:/Users/stapi/OneDrive/Desktop/GD32VW553/V1_MQTT_OK/GD32VW55X_Wifi_BLE_SDK/GD32VW55x_RELEASE_V1.0.2/MSDK/cloud/alicloud/src/infra/system\event.c ****     {ITE_SERVICE_REQUST,       NULL},
  21:C:/Users/stapi/OneDrive/Desktop/GD32VW553/V1_MQTT_OK/GD32VW55X_Wifi_BLE_SDK/GD32VW55x_RELEASE_V1.0.2/MSDK/cloud/alicloud/src/infra/system\event.c **** #endif
  22:C:/Users/stapi/OneDrive/Desktop/GD32VW553/V1_MQTT_OK/GD32VW55X_Wifi_BLE_SDK/GD32VW55x_RELEASE_V1.0.2/MSDK/cloud/alicloud/src/infra/system\event.c ****     {ITE_PROPERTY_SET,         NULL},
  23:C:/Users/stapi/OneDrive/Desktop/GD32VW553/V1_MQTT_OK/GD32VW55X_Wifi_BLE_SDK/GD32VW55x_RELEASE_V1.0.2/MSDK/cloud/alicloud/src/infra/system\event.c ****     {ITE_PROPERTY_GET,         NULL},
  24:C:/Users/stapi/OneDrive/Desktop/GD32VW553/V1_MQTT_OK/GD32VW55X_Wifi_BLE_SDK/GD32VW55x_RELEASE_V1.0.2/MSDK/cloud/alicloud/src/infra/system\event.c ****     {ITE_REPORT_REPLY,         NULL},
  25:C:/Users/stapi/OneDrive/Desktop/GD32VW553/V1_MQTT_OK/GD32VW55X_Wifi_BLE_SDK/GD32VW55x_RELEASE_V1.0.2/MSDK/cloud/alicloud/src/infra/system\event.c ****     {ITE_TRIGGER_EVENT_REPLY,  NULL},
  26:C:/Users/stapi/OneDrive/Desktop/GD32VW553/V1_MQTT_OK/GD32VW55X_Wifi_BLE_SDK/GD32VW55x_RELEASE_V1.0.2/MSDK/cloud/alicloud/src/infra/system\event.c ****     {ITE_TIMESTAMP_REPLY,      NULL},
  27:C:/Users/stapi/OneDrive/Desktop/GD32VW553/V1_MQTT_OK/GD32VW55X_Wifi_BLE_SDK/GD32VW55x_RELEASE_V1.0.2/MSDK/cloud/alicloud/src/infra/system\event.c ****     {ITE_TOPOLIST_REPLY,       NULL},
  28:C:/Users/stapi/OneDrive/Desktop/GD32VW553/V1_MQTT_OK/GD32VW55X_Wifi_BLE_SDK/GD32VW55x_RELEASE_V1.0.2/MSDK/cloud/alicloud/src/infra/system\event.c ****     {ITE_TOPO_CHANGE,          NULL},
  29:C:/Users/stapi/OneDrive/Desktop/GD32VW553/V1_MQTT_OK/GD32VW55X_Wifi_BLE_SDK/GD32VW55x_RELEASE_V1.0.2/MSDK/cloud/alicloud/src/infra/system\event.c ****     {ITE_SUBDEV_MISC_OPS,      NULL},
  30:C:/Users/stapi/OneDrive/Desktop/GD32VW553/V1_MQTT_OK/GD32VW55X_Wifi_BLE_SDK/GD32VW55x_RELEASE_V1.0.2/MSDK/cloud/alicloud/src/infra/system\event.c ****     {ITE_PERMIT_JOIN,          NULL},
  31:C:/Users/stapi/OneDrive/Desktop/GD32VW553/V1_MQTT_OK/GD32VW55X_Wifi_BLE_SDK/GD32VW55x_RELEASE_V1.0.2/MSDK/cloud/alicloud/src/infra/system\event.c ****     {ITE_INITIALIZE_COMPLETED, NULL},
  32:C:/Users/stapi/OneDrive/Desktop/GD32VW553/V1_MQTT_OK/GD32VW55X_Wifi_BLE_SDK/GD32VW55x_RELEASE_V1.0.2/MSDK/cloud/alicloud/src/infra/system\event.c ****     {ITE_FOTA,                 NULL},
  33:C:/Users/stapi/OneDrive/Desktop/GD32VW553/V1_MQTT_OK/GD32VW55X_Wifi_BLE_SDK/GD32VW55x_RELEASE_V1.0.2/MSDK/cloud/alicloud/src/infra/system\event.c ****     {ITE_COTA,                 NULL},
  34:C:/Users/stapi/OneDrive/Desktop/GD32VW553/V1_MQTT_OK/GD32VW55X_Wifi_BLE_SDK/GD32VW55x_RELEASE_V1.0.2/MSDK/cloud/alicloud/src/infra/system\event.c ****     {ITE_MQTT_CONNECT_SUCC,    NULL},
  35:C:/Users/stapi/OneDrive/Desktop/GD32VW553/V1_MQTT_OK/GD32VW55X_Wifi_BLE_SDK/GD32VW55x_RELEASE_V1.0.2/MSDK/cloud/alicloud/src/infra/system\event.c ****     {ITE_EVENT_NOTIFY,         NULL},
  36:C:/Users/stapi/OneDrive/Desktop/GD32VW553/V1_MQTT_OK/GD32VW55X_Wifi_BLE_SDK/GD32VW55x_RELEASE_V1.0.2/MSDK/cloud/alicloud/src/infra/system\event.c **** #ifdef LINK_VISUAL_ENABLE
  37:C:/Users/stapi/OneDrive/Desktop/GD32VW553/V1_MQTT_OK/GD32VW55X_Wifi_BLE_SDK/GD32VW55x_RELEASE_V1.0.2/MSDK/cloud/alicloud/src/infra/system\event.c ****     {ITE_LINK_VISUAL,          NULL},
  38:C:/Users/stapi/OneDrive/Desktop/GD32VW553/V1_MQTT_OK/GD32VW55X_Wifi_BLE_SDK/GD32VW55x_RELEASE_V1.0.2/MSDK/cloud/alicloud/src/infra/system\event.c **** #endif
  39:C:/Users/stapi/OneDrive/Desktop/GD32VW553/V1_MQTT_OK/GD32VW55X_Wifi_BLE_SDK/GD32VW55x_RELEASE_V1.0.2/MSDK/cloud/alicloud/src/infra/system\event.c ****     {ITE_CLOUD_ERROR,          NULL},
  40:C:/Users/stapi/OneDrive/Desktop/GD32VW553/V1_MQTT_OK/GD32VW55X_Wifi_BLE_SDK/GD32VW55x_RELEASE_V1.0.2/MSDK/cloud/alicloud/src/infra/system\event.c ****     {ITE_STATE_EVERYTHING,     NULL},
  41:C:/Users/stapi/OneDrive/Desktop/GD32VW553/V1_MQTT_OK/GD32VW55X_Wifi_BLE_SDK/GD32VW55x_RELEASE_V1.0.2/MSDK/cloud/alicloud/src/infra/system\event.c ****     {ITE_STATE_USER_INPUT,     NULL},
  42:C:/Users/stapi/OneDrive/Desktop/GD32VW553/V1_MQTT_OK/GD32VW55X_Wifi_BLE_SDK/GD32VW55x_RELEASE_V1.0.2/MSDK/cloud/alicloud/src/infra/system\event.c ****     {ITE_STATE_SYS_DEPEND,     NULL},
  43:C:/Users/stapi/OneDrive/Desktop/GD32VW553/V1_MQTT_OK/GD32VW55X_Wifi_BLE_SDK/GD32VW55x_RELEASE_V1.0.2/MSDK/cloud/alicloud/src/infra/system\event.c ****     {ITE_STATE_MQTT_COMM,      NULL},
  44:C:/Users/stapi/OneDrive/Desktop/GD32VW553/V1_MQTT_OK/GD32VW55X_Wifi_BLE_SDK/GD32VW55x_RELEASE_V1.0.2/MSDK/cloud/alicloud/src/infra/system\event.c ****     {ITE_STATE_WIFI_PROV,      NULL},
  45:C:/Users/stapi/OneDrive/Desktop/GD32VW553/V1_MQTT_OK/GD32VW55X_Wifi_BLE_SDK/GD32VW55x_RELEASE_V1.0.2/MSDK/cloud/alicloud/src/infra/system\event.c ****     {ITE_STATE_COAP_LOCAL,     NULL},
  46:C:/Users/stapi/OneDrive/Desktop/GD32VW553/V1_MQTT_OK/GD32VW55X_Wifi_BLE_SDK/GD32VW55x_RELEASE_V1.0.2/MSDK/cloud/alicloud/src/infra/system\event.c ****     {ITE_STATE_HTTP_COMM,      NULL},
  47:C:/Users/stapi/OneDrive/Desktop/GD32VW553/V1_MQTT_OK/GD32VW55X_Wifi_BLE_SDK/GD32VW55x_RELEASE_V1.0.2/MSDK/cloud/alicloud/src/infra/system\event.c ****     {ITE_STATE_OTA,            NULL},
  48:C:/Users/stapi/OneDrive/Desktop/GD32VW553/V1_MQTT_OK/GD32VW55X_Wifi_BLE_SDK/GD32VW55x_RELEASE_V1.0.2/MSDK/cloud/alicloud/src/infra/system\event.c ****     {ITE_STATE_DEV_BIND,       NULL},
  49:C:/Users/stapi/OneDrive/Desktop/GD32VW553/V1_MQTT_OK/GD32VW55X_Wifi_BLE_SDK/GD32VW55x_RELEASE_V1.0.2/MSDK/cloud/alicloud/src/infra/system\event.c ****     {ITE_STATE_SUB_DEVICE,     NULL},
  50:C:/Users/stapi/OneDrive/Desktop/GD32VW553/V1_MQTT_OK/GD32VW55X_Wifi_BLE_SDK/GD32VW55x_RELEASE_V1.0.2/MSDK/cloud/alicloud/src/infra/system\event.c **** 
  51:C:/Users/stapi/OneDrive/Desktop/GD32VW553/V1_MQTT_OK/GD32VW55X_Wifi_BLE_SDK/GD32VW55x_RELEASE_V1.0.2/MSDK/cloud/alicloud/src/infra/system\event.c **** #ifdef DM_UNIFIED_SERVICE_POST
  52:C:/Users/stapi/OneDrive/Desktop/GD32VW553/V1_MQTT_OK/GD32VW55X_Wifi_BLE_SDK/GD32VW55x_RELEASE_V1.0.2/MSDK/cloud/alicloud/src/infra/system\event.c ****     {ITE_UNIFIED_SERVICE_POST, NULL},
  53:C:/Users/stapi/OneDrive/Desktop/GD32VW553/V1_MQTT_OK/GD32VW55X_Wifi_BLE_SDK/GD32VW55x_RELEASE_V1.0.2/MSDK/cloud/alicloud/src/infra/system\event.c **** #endif
  54:C:/Users/stapi/OneDrive/Desktop/GD32VW553/V1_MQTT_OK/GD32VW55X_Wifi_BLE_SDK/GD32VW55x_RELEASE_V1.0.2/MSDK/cloud/alicloud/src/infra/system\event.c **** 
  55:C:/Users/stapi/OneDrive/Desktop/GD32VW553/V1_MQTT_OK/GD32VW55X_Wifi_BLE_SDK/GD32VW55x_RELEASE_V1.0.2/MSDK/cloud/alicloud/src/infra/system\event.c ****     {ITE_STATE_DEV_MODEL,      NULL}        /* DEV_MODEL must be last entry */
  56:C:/Users/stapi/OneDrive/Desktop/GD32VW553/V1_MQTT_OK/GD32VW55X_Wifi_BLE_SDK/GD32VW55x_RELEASE_V1.0.2/MSDK/cloud/alicloud/src/infra/system\event.c **** };
  57:C:/Users/stapi/OneDrive/Desktop/GD32VW553/V1_MQTT_OK/GD32VW55X_Wifi_BLE_SDK/GD32VW55x_RELEASE_V1.0.2/MSDK/cloud/alicloud/src/infra/system\event.c **** 
  58:C:/Users/stapi/OneDrive/Desktop/GD32VW553/V1_MQTT_OK/GD32VW55X_Wifi_BLE_SDK/GD32VW55x_RELEASE_V1.0.2/MSDK/cloud/alicloud/src/infra/system\event.c **** void *iotx_event_callback(int evt)
  59:C:/Users/stapi/OneDrive/Desktop/GD32VW553/V1_MQTT_OK/GD32VW55X_Wifi_BLE_SDK/GD32VW55x_RELEASE_V1.0.2/MSDK/cloud/alicloud/src/infra/system\event.c **** {
  16              		.loc 1 59 1
  17              		.cfi_startproc
  18              	.LVL0:
  60:C:/Users/stapi/OneDrive/Desktop/GD32VW553/V1_MQTT_OK/GD32VW55X_Wifi_BLE_SDK/GD32VW55x_RELEASE_V1.0.2/MSDK/cloud/alicloud/src/infra/system\event.c ****     if (evt < 0 || evt >= sizeof(g_impl_event_map) / sizeof(impl_event_map_t)) {
  19              		.loc 1 60 5
  20              		.loc 1 60 8 is_stmt 0
  21 0000 93071002 		li	a5,33
  22 0004 63EAA700 		bgtu	a0,a5,.L3
  61:C:/Users/stapi/OneDrive/Desktop/GD32VW553/V1_MQTT_OK/GD32VW55X_Wifi_BLE_SDK/GD32VW55x_RELEASE_V1.0.2/MSDK/cloud/alicloud/src/infra/system\event.c ****         return NULL;
  62:C:/Users/stapi/OneDrive/Desktop/GD32VW553/V1_MQTT_OK/GD32VW55X_Wifi_BLE_SDK/GD32VW55x_RELEASE_V1.0.2/MSDK/cloud/alicloud/src/infra/system\event.c ****     }
  63:C:/Users/stapi/OneDrive/Desktop/GD32VW553/V1_MQTT_OK/GD32VW55X_Wifi_BLE_SDK/GD32VW55x_RELEASE_V1.0.2/MSDK/cloud/alicloud/src/infra/system\event.c ****     return g_impl_event_map[evt].callback;
  23              		.loc 1 63 5 is_stmt 1
  24              		.loc 1 63 33 is_stmt 0
  25 0008 B7070000 		lui	a5,%hi(.LANCHOR0)
  26 000c 93870700 		addi	a5,a5,%lo(.LANCHOR0)
  27 0010 3365F520 		sh3add	a0,a0,a5
  28              	.LVL1:
  29 0014 4841     		lw	a0,4(a0)
  30 0016 8280     		ret
  31              	.LVL2:
  32              	.L3:
  61:C:/Users/stapi/OneDrive/Desktop/GD32VW553/V1_MQTT_OK/GD32VW55X_Wifi_BLE_SDK/GD32VW55x_RELEASE_V1.0.2/MSDK/cloud/alicloud/src/infra/system\event.c ****         return NULL;
  33              		.loc 1 61 16
  34 0018 0145     		li	a0,0
  35              	.LVL3:
  64:C:/Users/stapi/OneDrive/Desktop/GD32VW553/V1_MQTT_OK/GD32VW55X_Wifi_BLE_SDK/GD32VW55x_RELEASE_V1.0.2/MSDK/cloud/alicloud/src/infra/system\event.c **** }
  36              		.loc 1 64 1
  37 001a 8280     		ret
  38              		.cfi_endproc
  39              	.LFE4:
  41              		.section	.text.iotx_register_for_ITE_AWSS_STATUS,"ax",@progbits
  42              		.align	1
  43              		.globl	iotx_register_for_ITE_AWSS_STATUS
  45              	iotx_register_for_ITE_AWSS_STATUS:
  46              	.LFB5:
  65:C:/Users/stapi/OneDrive/Desktop/GD32VW553/V1_MQTT_OK/GD32VW55X_Wifi_BLE_SDK/GD32VW55x_RELEASE_V1.0.2/MSDK/cloud/alicloud/src/infra/system\event.c **** 
  66:C:/Users/stapi/OneDrive/Desktop/GD32VW553/V1_MQTT_OK/GD32VW55X_Wifi_BLE_SDK/GD32VW55x_RELEASE_V1.0.2/MSDK/cloud/alicloud/src/infra/system\event.c **** DEFINE_EVENT_CALLBACK(ITE_AWSS_STATUS,          int (*callback)(int))
  47              		.loc 1 66 1 is_stmt 1
  48              		.cfi_startproc
  49              	.LVL4:
  50              		.loc 1 66 1
  51              		.loc 1 66 1
  52 0000 B7070000 		lui	a5,%hi(.LANCHOR0+4)
  53 0004 23A2A700 		sw	a0,%lo(.LANCHOR0+4)(a5)
  54              		.loc 1 66 1
  55 0008 0145     		li	a0,0
  56              	.LVL5:
  57 000a 8280     		ret
  58              		.cfi_endproc
  59              	.LFE5:
  61              		.section	.text.iotx_register_for_ITE_CONNECT_SUCC,"ax",@progbits
  62              		.align	1
  63              		.globl	iotx_register_for_ITE_CONNECT_SUCC
  65              	iotx_register_for_ITE_CONNECT_SUCC:
  66              	.LFB6:
  67:C:/Users/stapi/OneDrive/Desktop/GD32VW553/V1_MQTT_OK/GD32VW55X_Wifi_BLE_SDK/GD32VW55x_RELEASE_V1.0.2/MSDK/cloud/alicloud/src/infra/system\event.c **** DEFINE_EVENT_CALLBACK(ITE_CONNECT_SUCC,         int (*callback)(void))
  67              		.loc 1 67 1
  68              		.cfi_startproc
  69              	.LVL6:
  70              		.loc 1 67 1
  71              		.loc 1 67 1
  72 0000 B7070000 		lui	a5,%hi(.LANCHOR0+12)
  73 0004 23A6A700 		sw	a0,%lo(.LANCHOR0+12)(a5)
  74              		.loc 1 67 1
  75 0008 0145     		li	a0,0
  76              	.LVL7:
  77 000a 8280     		ret
  78              		.cfi_endproc
  79              	.LFE6:
  81              		.section	.text.iotx_register_for_ITE_CONNECT_FAIL,"ax",@progbits
  82              		.align	1
  83              		.globl	iotx_register_for_ITE_CONNECT_FAIL
  85              	iotx_register_for_ITE_CONNECT_FAIL:
  86              	.LFB7:
  68:C:/Users/stapi/OneDrive/Desktop/GD32VW553/V1_MQTT_OK/GD32VW55X_Wifi_BLE_SDK/GD32VW55x_RELEASE_V1.0.2/MSDK/cloud/alicloud/src/infra/system\event.c **** DEFINE_EVENT_CALLBACK(ITE_CONNECT_FAIL,         int (*callback)(void))
  87              		.loc 1 68 1
  88              		.cfi_startproc
  89              	.LVL8:
  90              		.loc 1 68 1
  91              		.loc 1 68 1
  92 0000 B7070000 		lui	a5,%hi(.LANCHOR0+20)
  93 0004 23AAA700 		sw	a0,%lo(.LANCHOR0+20)(a5)
  94              		.loc 1 68 1
  95 0008 0145     		li	a0,0
  96              	.LVL9:
  97 000a 8280     		ret
  98              		.cfi_endproc
  99              	.LFE7:
 101              		.section	.text.iotx_register_for_ITE_DISCONNECTED,"ax",@progbits
 102              		.align	1
 103              		.globl	iotx_register_for_ITE_DISCONNECTED
 105              	iotx_register_for_ITE_DISCONNECTED:
 106              	.LFB8:
  69:C:/Users/stapi/OneDrive/Desktop/GD32VW553/V1_MQTT_OK/GD32VW55X_Wifi_BLE_SDK/GD32VW55x_RELEASE_V1.0.2/MSDK/cloud/alicloud/src/infra/system\event.c **** DEFINE_EVENT_CALLBACK(ITE_DISCONNECTED,         int (*callback)(void))
 107              		.loc 1 69 1
 108              		.cfi_startproc
 109              	.LVL10:
 110              		.loc 1 69 1
 111              		.loc 1 69 1
 112 0000 B7070000 		lui	a5,%hi(.LANCHOR0+28)
 113 0004 23AEA700 		sw	a0,%lo(.LANCHOR0+28)(a5)
 114              		.loc 1 69 1
 115 0008 0145     		li	a0,0
 116              	.LVL11:
 117 000a 8280     		ret
 118              		.cfi_endproc
 119              	.LFE8:
 121              		.section	.text.iotx_register_for_ITE_REDIRECT,"ax",@progbits
 122              		.align	1
 123              		.globl	iotx_register_for_ITE_REDIRECT
 125              	iotx_register_for_ITE_REDIRECT:
 126              	.LFB9:
  70:C:/Users/stapi/OneDrive/Desktop/GD32VW553/V1_MQTT_OK/GD32VW55X_Wifi_BLE_SDK/GD32VW55x_RELEASE_V1.0.2/MSDK/cloud/alicloud/src/infra/system\event.c **** DEFINE_EVENT_CALLBACK(ITE_REDIRECT,             int (*callback)(void))
 127              		.loc 1 70 1
 128              		.cfi_startproc
 129              	.LVL12:
 130              		.loc 1 70 1
 131              		.loc 1 70 1
 132 0000 B7070000 		lui	a5,%hi(.LANCHOR0+36)
 133 0004 23A2A702 		sw	a0,%lo(.LANCHOR0+36)(a5)
 134              		.loc 1 70 1
 135 0008 0145     		li	a0,0
 136              	.LVL13:
 137 000a 8280     		ret
 138              		.cfi_endproc
 139              	.LFE9:
 141              		.section	.text.iotx_register_for_ITE_OFFLINE_RESET,"ax",@progbits
 142              		.align	1
 143              		.globl	iotx_register_for_ITE_OFFLINE_RESET
 145              	iotx_register_for_ITE_OFFLINE_RESET:
 146              	.LFB10:
  71:C:/Users/stapi/OneDrive/Desktop/GD32VW553/V1_MQTT_OK/GD32VW55X_Wifi_BLE_SDK/GD32VW55x_RELEASE_V1.0.2/MSDK/cloud/alicloud/src/infra/system\event.c **** DEFINE_EVENT_CALLBACK(ITE_OFFLINE_RESET,        int (*callback)(void))
 147              		.loc 1 71 1
 148              		.cfi_startproc
 149              	.LVL14:
 150              		.loc 1 71 1
 151              		.loc 1 71 1
 152 0000 B7070000 		lui	a5,%hi(.LANCHOR0+44)
 153 0004 23A6A702 		sw	a0,%lo(.LANCHOR0+44)(a5)
 154              		.loc 1 71 1
 155 0008 0145     		li	a0,0
 156              	.LVL15:
 157 000a 8280     		ret
 158              		.cfi_endproc
 159              	.LFE10:
 161              		.section	.text.iotx_register_for_ITE_RAWDATA_ARRIVED,"ax",@progbits
 162              		.align	1
 163              		.globl	iotx_register_for_ITE_RAWDATA_ARRIVED
 165              	iotx_register_for_ITE_RAWDATA_ARRIVED:
 166              	.LFB11:
  72:C:/Users/stapi/OneDrive/Desktop/GD32VW553/V1_MQTT_OK/GD32VW55X_Wifi_BLE_SDK/GD32VW55x_RELEASE_V1.0.2/MSDK/cloud/alicloud/src/infra/system\event.c **** DEFINE_EVENT_CALLBACK(ITE_RAWDATA_ARRIVED,      int (*callback)(const int, const unsigned char *, c
 167              		.loc 1 72 1
 168              		.cfi_startproc
 169              	.LVL16:
 170              		.loc 1 72 1
 171              		.loc 1 72 1
 172 0000 B7070000 		lui	a5,%hi(.LANCHOR0+52)
 173 0004 23AAA702 		sw	a0,%lo(.LANCHOR0+52)(a5)
 174              		.loc 1 72 1
 175 0008 0145     		li	a0,0
 176              	.LVL17:
 177 000a 8280     		ret
 178              		.cfi_endproc
 179              	.LFE11:
 181              		.section	.text.iotx_register_for_ITE_SERVICE_REQUEST,"ax",@progbits
 182              		.align	1
 183              		.globl	iotx_register_for_ITE_SERVICE_REQUEST
 185              	iotx_register_for_ITE_SERVICE_REQUEST:
 186              	.LFB12:
  73:C:/Users/stapi/OneDrive/Desktop/GD32VW553/V1_MQTT_OK/GD32VW55X_Wifi_BLE_SDK/GD32VW55x_RELEASE_V1.0.2/MSDK/cloud/alicloud/src/infra/system\event.c **** #ifndef LINK_VISUAL_ENABLE
  74:C:/Users/stapi/OneDrive/Desktop/GD32VW553/V1_MQTT_OK/GD32VW55X_Wifi_BLE_SDK/GD32VW55x_RELEASE_V1.0.2/MSDK/cloud/alicloud/src/infra/system\event.c **** DEFINE_EVENT_CALLBACK(ITE_SERVICE_REQUEST,       int (*callback)(const int, const char *, const int
 187              		.loc 1 74 1
 188              		.cfi_startproc
 189              	.LVL18:
 190              		.loc 1 74 1
 191              		.loc 1 74 1
 192 0000 B7070000 		lui	a5,%hi(.LANCHOR0+60)
 193 0004 23AEA702 		sw	a0,%lo(.LANCHOR0+60)(a5)
 194              		.loc 1 74 1
 195 0008 0145     		li	a0,0
 196              	.LVL19:
 197 000a 8280     		ret
 198              		.cfi_endproc
 199              	.LFE12:
 201              		.section	.text.iotx_register_for_ITE_PROPERTY_SET,"ax",@progbits
 202              		.align	1
 203              		.globl	iotx_register_for_ITE_PROPERTY_SET
 205              	iotx_register_for_ITE_PROPERTY_SET:
 206              	.LFB13:
  75:C:/Users/stapi/OneDrive/Desktop/GD32VW553/V1_MQTT_OK/GD32VW55X_Wifi_BLE_SDK/GD32VW55x_RELEASE_V1.0.2/MSDK/cloud/alicloud/src/infra/system\event.c ****                       const int, char **, int *))
  76:C:/Users/stapi/OneDrive/Desktop/GD32VW553/V1_MQTT_OK/GD32VW55X_Wifi_BLE_SDK/GD32VW55x_RELEASE_V1.0.2/MSDK/cloud/alicloud/src/infra/system\event.c **** #else
  77:C:/Users/stapi/OneDrive/Desktop/GD32VW553/V1_MQTT_OK/GD32VW55X_Wifi_BLE_SDK/GD32VW55x_RELEASE_V1.0.2/MSDK/cloud/alicloud/src/infra/system\event.c **** DEFINE_EVENT_CALLBACK(ITE_LINK_VISUAL,          int (*callback)(const int, const char *, const int,
  78:C:/Users/stapi/OneDrive/Desktop/GD32VW553/V1_MQTT_OK/GD32VW55X_Wifi_BLE_SDK/GD32VW55x_RELEASE_V1.0.2/MSDK/cloud/alicloud/src/infra/system\event.c **** DEFINE_EVENT_CALLBACK(ITE_SERVICE_REQUST,       int (*callback)(const int, const char *, const int,
  79:C:/Users/stapi/OneDrive/Desktop/GD32VW553/V1_MQTT_OK/GD32VW55X_Wifi_BLE_SDK/GD32VW55x_RELEASE_V1.0.2/MSDK/cloud/alicloud/src/infra/system\event.c ****                         const char *, const int, const char *, const int, char **, int *))
  80:C:/Users/stapi/OneDrive/Desktop/GD32VW553/V1_MQTT_OK/GD32VW55X_Wifi_BLE_SDK/GD32VW55x_RELEASE_V1.0.2/MSDK/cloud/alicloud/src/infra/system\event.c **** #endif
  81:C:/Users/stapi/OneDrive/Desktop/GD32VW553/V1_MQTT_OK/GD32VW55X_Wifi_BLE_SDK/GD32VW55x_RELEASE_V1.0.2/MSDK/cloud/alicloud/src/infra/system\event.c **** DEFINE_EVENT_CALLBACK(ITE_PROPERTY_SET,         int (*callback)(const int, const char *, const int)
 207              		.loc 1 81 1
 208              		.cfi_startproc
 209              	.LVL20:
 210              		.loc 1 81 1
 211              		.loc 1 81 1
 212 0000 B7070000 		lui	a5,%hi(.LANCHOR0+68)
 213 0004 23A2A704 		sw	a0,%lo(.LANCHOR0+68)(a5)
 214              		.loc 1 81 1
 215 0008 0145     		li	a0,0
 216              	.LVL21:
 217 000a 8280     		ret
 218              		.cfi_endproc
 219              	.LFE13:
 221              		.section	.text.iotx_register_for_ITE_PROPERTY_GET,"ax",@progbits
 222              		.align	1
 223              		.globl	iotx_register_for_ITE_PROPERTY_GET
 225              	iotx_register_for_ITE_PROPERTY_GET:
 226              	.LFB14:
  82:C:/Users/stapi/OneDrive/Desktop/GD32VW553/V1_MQTT_OK/GD32VW55X_Wifi_BLE_SDK/GD32VW55x_RELEASE_V1.0.2/MSDK/cloud/alicloud/src/infra/system\event.c **** DEFINE_EVENT_CALLBACK(ITE_PROPERTY_GET,         int (*callback)(const int, const char *, const int,
 227              		.loc 1 82 1
 228              		.cfi_startproc
 229              	.LVL22:
 230              		.loc 1 82 1
 231              		.loc 1 82 1
 232 0000 B7070000 		lui	a5,%hi(.LANCHOR0+76)
 233 0004 23A6A704 		sw	a0,%lo(.LANCHOR0+76)(a5)
 234              		.loc 1 82 1
 235 0008 0145     		li	a0,0
 236              	.LVL23:
 237 000a 8280     		ret
 238              		.cfi_endproc
 239              	.LFE14:
 241              		.section	.text.iotx_register_for_ITE_REPORT_REPLY,"ax",@progbits
 242              		.align	1
 243              		.globl	iotx_register_for_ITE_REPORT_REPLY
 245              	iotx_register_for_ITE_REPORT_REPLY:
 246              	.LFB15:
  83:C:/Users/stapi/OneDrive/Desktop/GD32VW553/V1_MQTT_OK/GD32VW55X_Wifi_BLE_SDK/GD32VW55x_RELEASE_V1.0.2/MSDK/cloud/alicloud/src/infra/system\event.c **** DEFINE_EVENT_CALLBACK(ITE_REPORT_REPLY,         int (*callback)(const int, const int, const int, co
 247              		.loc 1 83 1
 248              		.cfi_startproc
 249              	.LVL24:
 250              		.loc 1 83 1
 251              		.loc 1 83 1
 252 0000 B7070000 		lui	a5,%hi(.LANCHOR0+84)
 253 0004 23AAA704 		sw	a0,%lo(.LANCHOR0+84)(a5)
 254              		.loc 1 83 1
 255 0008 0145     		li	a0,0
 256              	.LVL25:
 257 000a 8280     		ret
 258              		.cfi_endproc
 259              	.LFE15:
 261              		.section	.text.iotx_register_for_ITE_TRIGGER_EVENT_REPLY,"ax",@progbits
 262              		.align	1
 263              		.globl	iotx_register_for_ITE_TRIGGER_EVENT_REPLY
 265              	iotx_register_for_ITE_TRIGGER_EVENT_REPLY:
 266              	.LFB16:
  84:C:/Users/stapi/OneDrive/Desktop/GD32VW553/V1_MQTT_OK/GD32VW55X_Wifi_BLE_SDK/GD32VW55x_RELEASE_V1.0.2/MSDK/cloud/alicloud/src/infra/system\event.c ****                       const int))
  85:C:/Users/stapi/OneDrive/Desktop/GD32VW553/V1_MQTT_OK/GD32VW55X_Wifi_BLE_SDK/GD32VW55x_RELEASE_V1.0.2/MSDK/cloud/alicloud/src/infra/system\event.c **** DEFINE_EVENT_CALLBACK(ITE_TRIGGER_EVENT_REPLY,  int (*callback)(const int, const int, const int, co
 267              		.loc 1 85 1
 268              		.cfi_startproc
 269              	.LVL26:
 270              		.loc 1 85 1
 271              		.loc 1 85 1
 272 0000 B7070000 		lui	a5,%hi(.LANCHOR0+92)
 273 0004 23AEA704 		sw	a0,%lo(.LANCHOR0+92)(a5)
 274              		.loc 1 85 1
 275 0008 0145     		li	a0,0
 276              	.LVL27:
 277 000a 8280     		ret
 278              		.cfi_endproc
 279              	.LFE16:
 281              		.section	.text.iotx_register_for_ITE_TIMESTAMP_REPLY,"ax",@progbits
 282              		.align	1
 283              		.globl	iotx_register_for_ITE_TIMESTAMP_REPLY
 285              	iotx_register_for_ITE_TIMESTAMP_REPLY:
 286              	.LFB17:
  86:C:/Users/stapi/OneDrive/Desktop/GD32VW553/V1_MQTT_OK/GD32VW55X_Wifi_BLE_SDK/GD32VW55x_RELEASE_V1.0.2/MSDK/cloud/alicloud/src/infra/system\event.c ****                       const int, const char *, const int))
  87:C:/Users/stapi/OneDrive/Desktop/GD32VW553/V1_MQTT_OK/GD32VW55X_Wifi_BLE_SDK/GD32VW55x_RELEASE_V1.0.2/MSDK/cloud/alicloud/src/infra/system\event.c **** DEFINE_EVENT_CALLBACK(ITE_TIMESTAMP_REPLY,      int (*callback)(const char *))
 287              		.loc 1 87 1
 288              		.cfi_startproc
 289              	.LVL28:
 290              		.loc 1 87 1
 291              		.loc 1 87 1
 292 0000 B7070000 		lui	a5,%hi(.LANCHOR0+100)
 293 0004 23A2A706 		sw	a0,%lo(.LANCHOR0+100)(a5)
 294              		.loc 1 87 1
 295 0008 0145     		li	a0,0
 296              	.LVL29:
 297 000a 8280     		ret
 298              		.cfi_endproc
 299              	.LFE17:
 301              		.section	.text.iotx_register_for_ITE_TOPOLIST_REPLY,"ax",@progbits
 302              		.align	1
 303              		.globl	iotx_register_for_ITE_TOPOLIST_REPLY
 305              	iotx_register_for_ITE_TOPOLIST_REPLY:
 306              	.LFB18:
  88:C:/Users/stapi/OneDrive/Desktop/GD32VW553/V1_MQTT_OK/GD32VW55X_Wifi_BLE_SDK/GD32VW55x_RELEASE_V1.0.2/MSDK/cloud/alicloud/src/infra/system\event.c **** DEFINE_EVENT_CALLBACK(ITE_TOPOLIST_REPLY,       int (*callback)(const int, const int, const int, co
 307              		.loc 1 88 1
 308              		.cfi_startproc
 309              	.LVL30:
 310              		.loc 1 88 1
 311              		.loc 1 88 1
 312 0000 B7070000 		lui	a5,%hi(.LANCHOR0+108)
 313 0004 23A6A706 		sw	a0,%lo(.LANCHOR0+108)(a5)
 314              		.loc 1 88 1
 315 0008 0145     		li	a0,0
 316              	.LVL31:
 317 000a 8280     		ret
 318              		.cfi_endproc
 319              	.LFE18:
 321              		.section	.text.iotx_register_for_ITE_TOPO_CHANGE,"ax",@progbits
 322              		.align	1
 323              		.globl	iotx_register_for_ITE_TOPO_CHANGE
 325              	iotx_register_for_ITE_TOPO_CHANGE:
 326              	.LFB19:
  89:C:/Users/stapi/OneDrive/Desktop/GD32VW553/V1_MQTT_OK/GD32VW55X_Wifi_BLE_SDK/GD32VW55x_RELEASE_V1.0.2/MSDK/cloud/alicloud/src/infra/system\event.c ****                       const int))
  90:C:/Users/stapi/OneDrive/Desktop/GD32VW553/V1_MQTT_OK/GD32VW55X_Wifi_BLE_SDK/GD32VW55x_RELEASE_V1.0.2/MSDK/cloud/alicloud/src/infra/system\event.c **** DEFINE_EVENT_CALLBACK(ITE_TOPO_CHANGE,          int (*callback)(const int, const char *, const int)
 327              		.loc 1 90 1
 328              		.cfi_startproc
 329              	.LVL32:
 330              		.loc 1 90 1
 331              		.loc 1 90 1
 332 0000 B7070000 		lui	a5,%hi(.LANCHOR0+116)
 333 0004 23AAA706 		sw	a0,%lo(.LANCHOR0+116)(a5)
 334              		.loc 1 90 1
 335 0008 0145     		li	a0,0
 336              	.LVL33:
 337 000a 8280     		ret
 338              		.cfi_endproc
 339              	.LFE19:
 341              		.section	.text.iotx_register_for_ITE_SUBDEV_MISC_OPS,"ax",@progbits
 342              		.align	1
 343              		.globl	iotx_register_for_ITE_SUBDEV_MISC_OPS
 345              	iotx_register_for_ITE_SUBDEV_MISC_OPS:
 346              	.LFB20:
  91:C:/Users/stapi/OneDrive/Desktop/GD32VW553/V1_MQTT_OK/GD32VW55X_Wifi_BLE_SDK/GD32VW55x_RELEASE_V1.0.2/MSDK/cloud/alicloud/src/infra/system\event.c **** DEFINE_EVENT_CALLBACK(ITE_SUBDEV_MISC_OPS,      int (*callback)(const int, const int, const int, co
 347              		.loc 1 91 1
 348              		.cfi_startproc
 349              	.LVL34:
 350              		.loc 1 91 1
 351              		.loc 1 91 1
 352 0000 B7070000 		lui	a5,%hi(.LANCHOR0+132)
 353 0004 23A2A708 		sw	a0,%lo(.LANCHOR0+132)(a5)
 354              		.loc 1 91 1
 355 0008 0145     		li	a0,0
 356              	.LVL35:
 357 000a 8280     		ret
 358              		.cfi_endproc
 359              	.LFE20:
 361              		.section	.text.iotx_register_for_ITE_PERMIT_JOIN,"ax",@progbits
 362              		.align	1
 363              		.globl	iotx_register_for_ITE_PERMIT_JOIN
 365              	iotx_register_for_ITE_PERMIT_JOIN:
 366              	.LFB21:
  92:C:/Users/stapi/OneDrive/Desktop/GD32VW553/V1_MQTT_OK/GD32VW55X_Wifi_BLE_SDK/GD32VW55x_RELEASE_V1.0.2/MSDK/cloud/alicloud/src/infra/system\event.c ****                       const int))
  93:C:/Users/stapi/OneDrive/Desktop/GD32VW553/V1_MQTT_OK/GD32VW55X_Wifi_BLE_SDK/GD32VW55x_RELEASE_V1.0.2/MSDK/cloud/alicloud/src/infra/system\event.c **** DEFINE_EVENT_CALLBACK(ITE_PERMIT_JOIN,          int (*callback)(const char *, int))
 367              		.loc 1 93 1
 368              		.cfi_startproc
 369              	.LVL36:
 370              		.loc 1 93 1
 371              		.loc 1 93 1
 372 0000 B7070000 		lui	a5,%hi(.LANCHOR0+124)
 373 0004 23AEA706 		sw	a0,%lo(.LANCHOR0+124)(a5)
 374              		.loc 1 93 1
 375 0008 0145     		li	a0,0
 376              	.LVL37:
 377 000a 8280     		ret
 378              		.cfi_endproc
 379              	.LFE21:
 381              		.section	.text.iotx_register_for_ITE_INITIALIZE_COMPLETED,"ax",@progbits
 382              		.align	1
 383              		.globl	iotx_register_for_ITE_INITIALIZE_COMPLETED
 385              	iotx_register_for_ITE_INITIALIZE_COMPLETED:
 386              	.LFB22:
  94:C:/Users/stapi/OneDrive/Desktop/GD32VW553/V1_MQTT_OK/GD32VW55X_Wifi_BLE_SDK/GD32VW55x_RELEASE_V1.0.2/MSDK/cloud/alicloud/src/infra/system\event.c **** DEFINE_EVENT_CALLBACK(ITE_INITIALIZE_COMPLETED, int (*callback)(const int))
 387              		.loc 1 94 1
 388              		.cfi_startproc
 389              	.LVL38:
 390              		.loc 1 94 1
 391              		.loc 1 94 1
 392 0000 B7070000 		lui	a5,%hi(.LANCHOR0+140)
 393 0004 23A6A708 		sw	a0,%lo(.LANCHOR0+140)(a5)
 394              		.loc 1 94 1
 395 0008 0145     		li	a0,0
 396              	.LVL39:
 397 000a 8280     		ret
 398              		.cfi_endproc
 399              	.LFE22:
 401              		.section	.text.iotx_register_for_ITE_FOTA,"ax",@progbits
 402              		.align	1
 403              		.globl	iotx_register_for_ITE_FOTA
 405              	iotx_register_for_ITE_FOTA:
 406              	.LFB23:
  95:C:/Users/stapi/OneDrive/Desktop/GD32VW553/V1_MQTT_OK/GD32VW55X_Wifi_BLE_SDK/GD32VW55x_RELEASE_V1.0.2/MSDK/cloud/alicloud/src/infra/system\event.c **** DEFINE_EVENT_CALLBACK(ITE_FOTA,                 int (*callback)(const int, const char *))
 407              		.loc 1 95 1
 408              		.cfi_startproc
 409              	.LVL40:
 410              		.loc 1 95 1
 411              		.loc 1 95 1
 412 0000 B7070000 		lui	a5,%hi(.LANCHOR0+148)
 413 0004 23AAA708 		sw	a0,%lo(.LANCHOR0+148)(a5)
 414              		.loc 1 95 1
 415 0008 0145     		li	a0,0
 416              	.LVL41:
 417 000a 8280     		ret
 418              		.cfi_endproc
 419              	.LFE23:
 421              		.section	.text.iotx_register_for_ITE_COTA,"ax",@progbits
 422              		.align	1
 423              		.globl	iotx_register_for_ITE_COTA
 425              	iotx_register_for_ITE_COTA:
 426              	.LFB24:
  96:C:/Users/stapi/OneDrive/Desktop/GD32VW553/V1_MQTT_OK/GD32VW55X_Wifi_BLE_SDK/GD32VW55x_RELEASE_V1.0.2/MSDK/cloud/alicloud/src/infra/system\event.c **** DEFINE_EVENT_CALLBACK(ITE_COTA,                 int (*callback)(const int, const char *, int, const
 427              		.loc 1 96 1
 428              		.cfi_startproc
 429              	.LVL42:
 430              		.loc 1 96 1
 431              		.loc 1 96 1
 432 0000 B7070000 		lui	a5,%hi(.LANCHOR0+156)
 433 0004 23AEA708 		sw	a0,%lo(.LANCHOR0+156)(a5)
 434              		.loc 1 96 1
 435 0008 0145     		li	a0,0
 436              	.LVL43:
 437 000a 8280     		ret
 438              		.cfi_endproc
 439              	.LFE24:
 441              		.section	.text.iotx_register_for_ITE_MQTT_CONNECT_SUCC,"ax",@progbits
 442              		.align	1
 443              		.globl	iotx_register_for_ITE_MQTT_CONNECT_SUCC
 445              	iotx_register_for_ITE_MQTT_CONNECT_SUCC:
 446              	.LFB25:
  97:C:/Users/stapi/OneDrive/Desktop/GD32VW553/V1_MQTT_OK/GD32VW55X_Wifi_BLE_SDK/GD32VW55x_RELEASE_V1.0.2/MSDK/cloud/alicloud/src/infra/system\event.c ****                       const char *, const char *, const char *))
  98:C:/Users/stapi/OneDrive/Desktop/GD32VW553/V1_MQTT_OK/GD32VW55X_Wifi_BLE_SDK/GD32VW55x_RELEASE_V1.0.2/MSDK/cloud/alicloud/src/infra/system\event.c **** DEFINE_EVENT_CALLBACK(ITE_MQTT_CONNECT_SUCC,    int (*callback)(void))
 447              		.loc 1 98 1
 448              		.cfi_startproc
 449              	.LVL44:
 450              		.loc 1 98 1
 451              		.loc 1 98 1
 452 0000 B7070000 		lui	a5,%hi(.LANCHOR0+164)
 453 0004 23A2A70A 		sw	a0,%lo(.LANCHOR0+164)(a5)
 454              		.loc 1 98 1
 455 0008 0145     		li	a0,0
 456              	.LVL45:
 457 000a 8280     		ret
 458              		.cfi_endproc
 459              	.LFE25:
 461              		.section	.text.iotx_register_for_ITE_CLOUD_ERROR,"ax",@progbits
 462              		.align	1
 463              		.globl	iotx_register_for_ITE_CLOUD_ERROR
 465              	iotx_register_for_ITE_CLOUD_ERROR:
 466              	.LFB26:
  99:C:/Users/stapi/OneDrive/Desktop/GD32VW553/V1_MQTT_OK/GD32VW55X_Wifi_BLE_SDK/GD32VW55x_RELEASE_V1.0.2/MSDK/cloud/alicloud/src/infra/system\event.c **** DEFINE_EVENT_CALLBACK(ITE_CLOUD_ERROR,          int (*callback)(const int, const char *, const char
 467              		.loc 1 99 1
 468              		.cfi_startproc
 469              	.LVL46:
 470              		.loc 1 99 1
 471              		.loc 1 99 1
 472 0000 B7070000 		lui	a5,%hi(.LANCHOR0+180)
 473 0004 23AAA70A 		sw	a0,%lo(.LANCHOR0+180)(a5)
 474              		.loc 1 99 1
 475 0008 0145     		li	a0,0
 476              	.LVL47:
 477 000a 8280     		ret
 478              		.cfi_endproc
 479              	.LFE26:
 481              		.section	.text.iotx_register_for_ITE_EVENT_NOTIFY,"ax",@progbits
 482              		.align	1
 483              		.globl	iotx_register_for_ITE_EVENT_NOTIFY
 485              	iotx_register_for_ITE_EVENT_NOTIFY:
 486              	.LFB27:
 100:C:/Users/stapi/OneDrive/Desktop/GD32VW553/V1_MQTT_OK/GD32VW55X_Wifi_BLE_SDK/GD32VW55x_RELEASE_V1.0.2/MSDK/cloud/alicloud/src/infra/system\event.c **** DEFINE_EVENT_CALLBACK(ITE_EVENT_NOTIFY,         int (*callback)(const int, const char *, const int)
 487              		.loc 1 100 1
 488              		.cfi_startproc
 489              	.LVL48:
 490              		.loc 1 100 1
 491              		.loc 1 100 1
 492 0000 B7070000 		lui	a5,%hi(.LANCHOR0+172)
 493 0004 23A6A70A 		sw	a0,%lo(.LANCHOR0+172)(a5)
 494              		.loc 1 100 1
 495 0008 0145     		li	a0,0
 496              	.LVL49:
 497 000a 8280     		ret
 498              		.cfi_endproc
 499              	.LFE27:
 501              		.section	.text.iotx_register_for_ITE_STATE_EVERYTHING,"ax",@progbits
 502              		.align	1
 503              		.globl	iotx_register_for_ITE_STATE_EVERYTHING
 505              	iotx_register_for_ITE_STATE_EVERYTHING:
 506              	.LFB28:
 101:C:/Users/stapi/OneDrive/Desktop/GD32VW553/V1_MQTT_OK/GD32VW55X_Wifi_BLE_SDK/GD32VW55x_RELEASE_V1.0.2/MSDK/cloud/alicloud/src/infra/system\event.c **** 
 102:C:/Users/stapi/OneDrive/Desktop/GD32VW553/V1_MQTT_OK/GD32VW55X_Wifi_BLE_SDK/GD32VW55x_RELEASE_V1.0.2/MSDK/cloud/alicloud/src/infra/system\event.c **** #ifdef DM_UNIFIED_SERVICE_POST
 103:C:/Users/stapi/OneDrive/Desktop/GD32VW553/V1_MQTT_OK/GD32VW55X_Wifi_BLE_SDK/GD32VW55x_RELEASE_V1.0.2/MSDK/cloud/alicloud/src/infra/system\event.c **** DEFINE_EVENT_CALLBACK(ITE_UNIFIED_SERVICE_POST,         int (*callback)(const int, const int, const
 104:C:/Users/stapi/OneDrive/Desktop/GD32VW553/V1_MQTT_OK/GD32VW55X_Wifi_BLE_SDK/GD32VW55x_RELEASE_V1.0.2/MSDK/cloud/alicloud/src/infra/system\event.c **** #endif
 105:C:/Users/stapi/OneDrive/Desktop/GD32VW553/V1_MQTT_OK/GD32VW55X_Wifi_BLE_SDK/GD32VW55x_RELEASE_V1.0.2/MSDK/cloud/alicloud/src/infra/system\event.c **** 
 106:C:/Users/stapi/OneDrive/Desktop/GD32VW553/V1_MQTT_OK/GD32VW55X_Wifi_BLE_SDK/GD32VW55x_RELEASE_V1.0.2/MSDK/cloud/alicloud/src/infra/system\event.c **** int iotx_register_for_ITE_STATE_EVERYTHING(state_handler_t callback)
 107:C:/Users/stapi/OneDrive/Desktop/GD32VW553/V1_MQTT_OK/GD32VW55X_Wifi_BLE_SDK/GD32VW55x_RELEASE_V1.0.2/MSDK/cloud/alicloud/src/infra/system\event.c **** {
 507              		.loc 1 107 1
 508              		.cfi_startproc
 509              	.LVL50:
 108:C:/Users/stapi/OneDrive/Desktop/GD32VW553/V1_MQTT_OK/GD32VW55X_Wifi_BLE_SDK/GD32VW55x_RELEASE_V1.0.2/MSDK/cloud/alicloud/src/infra/system\event.c ****     int idx = 0;
 510              		.loc 1 108 5
 109:C:/Users/stapi/OneDrive/Desktop/GD32VW553/V1_MQTT_OK/GD32VW55X_Wifi_BLE_SDK/GD32VW55x_RELEASE_V1.0.2/MSDK/cloud/alicloud/src/infra/system\event.c **** 
 110:C:/Users/stapi/OneDrive/Desktop/GD32VW553/V1_MQTT_OK/GD32VW55X_Wifi_BLE_SDK/GD32VW55x_RELEASE_V1.0.2/MSDK/cloud/alicloud/src/infra/system\event.c ****     for (idx = ITE_STATE_EVERYTHING; idx <= ITE_STATE_DEV_MODEL; idx++) {
 511              		.loc 1 110 5
 512              		.loc 1 110 38
 513 0000 B7070000 		lui	a5,%hi(.LANCHOR0)
 514 0004 93870700 		addi	a5,a5,%lo(.LANCHOR0)
 515 0008 13878705 		addi	a4,a5,88
 516              	.LVL51:
 517              	.L28:
 111:C:/Users/stapi/OneDrive/Desktop/GD32VW553/V1_MQTT_OK/GD32VW55X_Wifi_BLE_SDK/GD32VW55x_RELEASE_V1.0.2/MSDK/cloud/alicloud/src/infra/system\event.c ****         g_impl_event_map[idx].callback = (void *)callback;
 518              		.loc 1 111 9 discriminator 3
 519              		.loc 1 111 40 is_stmt 0 discriminator 3
 520 000c 23AEA70A 		sw	a0,188(a5)
 110:C:/Users/stapi/OneDrive/Desktop/GD32VW553/V1_MQTT_OK/GD32VW55X_Wifi_BLE_SDK/GD32VW55x_RELEASE_V1.0.2/MSDK/cloud/alicloud/src/infra/system\event.c ****         g_impl_event_map[idx].callback = (void *)callback;
 521              		.loc 1 110 66 is_stmt 1 discriminator 3
 110:C:/Users/stapi/OneDrive/Desktop/GD32VW553/V1_MQTT_OK/GD32VW55X_Wifi_BLE_SDK/GD32VW55x_RELEASE_V1.0.2/MSDK/cloud/alicloud/src/infra/system\event.c ****         g_impl_event_map[idx].callback = (void *)callback;
 522              		.loc 1 110 38 discriminator 3
 110:C:/Users/stapi/OneDrive/Desktop/GD32VW553/V1_MQTT_OK/GD32VW55X_Wifi_BLE_SDK/GD32VW55x_RELEASE_V1.0.2/MSDK/cloud/alicloud/src/infra/system\event.c ****         g_impl_event_map[idx].callback = (void *)callback;
 523              		.loc 1 110 5 is_stmt 0 discriminator 3
 524 0010 A107     		addi	a5,a5,8
 525 0012 E39DE7FE 		bne	a5,a4,.L28
 112:C:/Users/stapi/OneDrive/Desktop/GD32VW553/V1_MQTT_OK/GD32VW55X_Wifi_BLE_SDK/GD32VW55x_RELEASE_V1.0.2/MSDK/cloud/alicloud/src/infra/system\event.c ****     }
 113:C:/Users/stapi/OneDrive/Desktop/GD32VW553/V1_MQTT_OK/GD32VW55X_Wifi_BLE_SDK/GD32VW55x_RELEASE_V1.0.2/MSDK/cloud/alicloud/src/infra/system\event.c **** 
 114:C:/Users/stapi/OneDrive/Desktop/GD32VW553/V1_MQTT_OK/GD32VW55X_Wifi_BLE_SDK/GD32VW55x_RELEASE_V1.0.2/MSDK/cloud/alicloud/src/infra/system\event.c ****     return 0;
 526              		.loc 1 114 5 is_stmt 1
 115:C:/Users/stapi/OneDrive/Desktop/GD32VW553/V1_MQTT_OK/GD32VW55X_Wifi_BLE_SDK/GD32VW55x_RELEASE_V1.0.2/MSDK/cloud/alicloud/src/infra/system\event.c **** }
 527              		.loc 1 115 1 is_stmt 0
 528 0016 0145     		li	a0,0
 529              	.LVL52:
 530 0018 8280     		ret
 531              		.cfi_endproc
 532              	.LFE28:
 534              		.section	.text.iotx_register_for_ITE_STATE_USER_INPUT,"ax",@progbits
 535              		.align	1
 536              		.globl	iotx_register_for_ITE_STATE_USER_INPUT
 538              	iotx_register_for_ITE_STATE_USER_INPUT:
 539              	.LFB29:
 116:C:/Users/stapi/OneDrive/Desktop/GD32VW553/V1_MQTT_OK/GD32VW55X_Wifi_BLE_SDK/GD32VW55x_RELEASE_V1.0.2/MSDK/cloud/alicloud/src/infra/system\event.c **** 
 117:C:/Users/stapi/OneDrive/Desktop/GD32VW553/V1_MQTT_OK/GD32VW55X_Wifi_BLE_SDK/GD32VW55x_RELEASE_V1.0.2/MSDK/cloud/alicloud/src/infra/system\event.c **** DEFINE_EVENT_CALLBACK(ITE_STATE_USER_INPUT, state_handler_t callback)
 540              		.loc 1 117 1 is_stmt 1
 541              		.cfi_startproc
 542              	.LVL53:
 543              		.loc 1 117 1
 544              		.loc 1 117 1
 545 0000 B7070000 		lui	a5,%hi(.LANCHOR0+196)
 546 0004 23A2A70C 		sw	a0,%lo(.LANCHOR0+196)(a5)
 547              		.loc 1 117 1
 548 0008 0145     		li	a0,0
 549              	.LVL54:
 550 000a 8280     		ret
 551              		.cfi_endproc
 552              	.LFE29:
 554              		.section	.text.iotx_register_for_ITE_STATE_SYS_DEPEND,"ax",@progbits
 555              		.align	1
 556              		.globl	iotx_register_for_ITE_STATE_SYS_DEPEND
 558              	iotx_register_for_ITE_STATE_SYS_DEPEND:
 559              	.LFB30:
 118:C:/Users/stapi/OneDrive/Desktop/GD32VW553/V1_MQTT_OK/GD32VW55X_Wifi_BLE_SDK/GD32VW55x_RELEASE_V1.0.2/MSDK/cloud/alicloud/src/infra/system\event.c **** DEFINE_EVENT_CALLBACK(ITE_STATE_SYS_DEPEND, state_handler_t callback)
 560              		.loc 1 118 1
 561              		.cfi_startproc
 562              	.LVL55:
 563              		.loc 1 118 1
 564              		.loc 1 118 1
 565 0000 B7070000 		lui	a5,%hi(.LANCHOR0+204)
 566 0004 23A6A70C 		sw	a0,%lo(.LANCHOR0+204)(a5)
 567              		.loc 1 118 1
 568 0008 0145     		li	a0,0
 569              	.LVL56:
 570 000a 8280     		ret
 571              		.cfi_endproc
 572              	.LFE30:
 574              		.section	.text.iotx_register_for_ITE_STATE_MQTT_COMM,"ax",@progbits
 575              		.align	1
 576              		.globl	iotx_register_for_ITE_STATE_MQTT_COMM
 578              	iotx_register_for_ITE_STATE_MQTT_COMM:
 579              	.LFB31:
 119:C:/Users/stapi/OneDrive/Desktop/GD32VW553/V1_MQTT_OK/GD32VW55X_Wifi_BLE_SDK/GD32VW55x_RELEASE_V1.0.2/MSDK/cloud/alicloud/src/infra/system\event.c **** DEFINE_EVENT_CALLBACK(ITE_STATE_MQTT_COMM,  state_handler_t callback)
 580              		.loc 1 119 1
 581              		.cfi_startproc
 582              	.LVL57:
 583              		.loc 1 119 1
 584              		.loc 1 119 1
 585 0000 B7070000 		lui	a5,%hi(.LANCHOR0+212)
 586 0004 23AAA70C 		sw	a0,%lo(.LANCHOR0+212)(a5)
 587              		.loc 1 119 1
 588 0008 0145     		li	a0,0
 589              	.LVL58:
 590 000a 8280     		ret
 591              		.cfi_endproc
 592              	.LFE31:
 594              		.section	.text.iotx_register_for_ITE_STATE_WIFI_PROV,"ax",@progbits
 595              		.align	1
 596              		.globl	iotx_register_for_ITE_STATE_WIFI_PROV
 598              	iotx_register_for_ITE_STATE_WIFI_PROV:
 599              	.LFB32:
 120:C:/Users/stapi/OneDrive/Desktop/GD32VW553/V1_MQTT_OK/GD32VW55X_Wifi_BLE_SDK/GD32VW55x_RELEASE_V1.0.2/MSDK/cloud/alicloud/src/infra/system\event.c **** DEFINE_EVENT_CALLBACK(ITE_STATE_WIFI_PROV,  state_handler_t callback)
 600              		.loc 1 120 1
 601              		.cfi_startproc
 602              	.LVL59:
 603              		.loc 1 120 1
 604              		.loc 1 120 1
 605 0000 B7070000 		lui	a5,%hi(.LANCHOR0+220)
 606 0004 23AEA70C 		sw	a0,%lo(.LANCHOR0+220)(a5)
 607              		.loc 1 120 1
 608 0008 0145     		li	a0,0
 609              	.LVL60:
 610 000a 8280     		ret
 611              		.cfi_endproc
 612              	.LFE32:
 614              		.section	.text.iotx_register_for_ITE_STATE_COAP_LOCAL,"ax",@progbits
 615              		.align	1
 616              		.globl	iotx_register_for_ITE_STATE_COAP_LOCAL
 618              	iotx_register_for_ITE_STATE_COAP_LOCAL:
 619              	.LFB33:
 121:C:/Users/stapi/OneDrive/Desktop/GD32VW553/V1_MQTT_OK/GD32VW55X_Wifi_BLE_SDK/GD32VW55x_RELEASE_V1.0.2/MSDK/cloud/alicloud/src/infra/system\event.c **** DEFINE_EVENT_CALLBACK(ITE_STATE_COAP_LOCAL, state_handler_t callback)
 620              		.loc 1 121 1
 621              		.cfi_startproc
 622              	.LVL61:
 623              		.loc 1 121 1
 624              		.loc 1 121 1
 625 0000 B7070000 		lui	a5,%hi(.LANCHOR0+228)
 626 0004 23A2A70E 		sw	a0,%lo(.LANCHOR0+228)(a5)
 627              		.loc 1 121 1
 628 0008 0145     		li	a0,0
 629              	.LVL62:
 630 000a 8280     		ret
 631              		.cfi_endproc
 632              	.LFE33:
 634              		.section	.text.iotx_register_for_ITE_STATE_HTTP_COMM,"ax",@progbits
 635              		.align	1
 636              		.globl	iotx_register_for_ITE_STATE_HTTP_COMM
 638              	iotx_register_for_ITE_STATE_HTTP_COMM:
 639              	.LFB34:
 122:C:/Users/stapi/OneDrive/Desktop/GD32VW553/V1_MQTT_OK/GD32VW55X_Wifi_BLE_SDK/GD32VW55x_RELEASE_V1.0.2/MSDK/cloud/alicloud/src/infra/system\event.c **** DEFINE_EVENT_CALLBACK(ITE_STATE_HTTP_COMM,  state_handler_t callback)
 640              		.loc 1 122 1
 641              		.cfi_startproc
 642              	.LVL63:
 643              		.loc 1 122 1
 644              		.loc 1 122 1
 645 0000 B7070000 		lui	a5,%hi(.LANCHOR0+236)
 646 0004 23A6A70E 		sw	a0,%lo(.LANCHOR0+236)(a5)
 647              		.loc 1 122 1
 648 0008 0145     		li	a0,0
 649              	.LVL64:
 650 000a 8280     		ret
 651              		.cfi_endproc
 652              	.LFE34:
 654              		.section	.text.iotx_register_for_ITE_STATE_OTA,"ax",@progbits
 655              		.align	1
 656              		.globl	iotx_register_for_ITE_STATE_OTA
 658              	iotx_register_for_ITE_STATE_OTA:
 659              	.LFB35:
 123:C:/Users/stapi/OneDrive/Desktop/GD32VW553/V1_MQTT_OK/GD32VW55X_Wifi_BLE_SDK/GD32VW55x_RELEASE_V1.0.2/MSDK/cloud/alicloud/src/infra/system\event.c **** DEFINE_EVENT_CALLBACK(ITE_STATE_OTA,        state_handler_t callback)
 660              		.loc 1 123 1
 661              		.cfi_startproc
 662              	.LVL65:
 663              		.loc 1 123 1
 664              		.loc 1 123 1
 665 0000 B7070000 		lui	a5,%hi(.LANCHOR0+244)
 666 0004 23AAA70E 		sw	a0,%lo(.LANCHOR0+244)(a5)
 667              		.loc 1 123 1
 668 0008 0145     		li	a0,0
 669              	.LVL66:
 670 000a 8280     		ret
 671              		.cfi_endproc
 672              	.LFE35:
 674              		.section	.text.iotx_register_for_ITE_STATE_DEV_BIND,"ax",@progbits
 675              		.align	1
 676              		.globl	iotx_register_for_ITE_STATE_DEV_BIND
 678              	iotx_register_for_ITE_STATE_DEV_BIND:
 679              	.LFB36:
 124:C:/Users/stapi/OneDrive/Desktop/GD32VW553/V1_MQTT_OK/GD32VW55X_Wifi_BLE_SDK/GD32VW55x_RELEASE_V1.0.2/MSDK/cloud/alicloud/src/infra/system\event.c **** DEFINE_EVENT_CALLBACK(ITE_STATE_DEV_BIND,   state_handler_t callback)
 680              		.loc 1 124 1
 681              		.cfi_startproc
 682              	.LVL67:
 683              		.loc 1 124 1
 684              		.loc 1 124 1
 685 0000 B7070000 		lui	a5,%hi(.LANCHOR0+252)
 686 0004 23AEA70E 		sw	a0,%lo(.LANCHOR0+252)(a5)
 687              		.loc 1 124 1
 688 0008 0145     		li	a0,0
 689              	.LVL68:
 690 000a 8280     		ret
 691              		.cfi_endproc
 692              	.LFE36:
 694              		.section	.text.iotx_register_for_ITE_STATE_SUB_DEVICE,"ax",@progbits
 695              		.align	1
 696              		.globl	iotx_register_for_ITE_STATE_SUB_DEVICE
 698              	iotx_register_for_ITE_STATE_SUB_DEVICE:
 699              	.LFB37:
 125:C:/Users/stapi/OneDrive/Desktop/GD32VW553/V1_MQTT_OK/GD32VW55X_Wifi_BLE_SDK/GD32VW55x_RELEASE_V1.0.2/MSDK/cloud/alicloud/src/infra/system\event.c **** DEFINE_EVENT_CALLBACK(ITE_STATE_SUB_DEVICE, state_handler_t callback)
 700              		.loc 1 125 1
 701              		.cfi_startproc
 702              	.LVL69:
 703              		.loc 1 125 1
 704              		.loc 1 125 1
 705 0000 B7070000 		lui	a5,%hi(.LANCHOR0+260)
 706 0004 23A2A710 		sw	a0,%lo(.LANCHOR0+260)(a5)
 707              		.loc 1 125 1
 708 0008 0145     		li	a0,0
 709              	.LVL70:
 710 000a 8280     		ret
 711              		.cfi_endproc
 712              	.LFE37:
 714              		.section	.text.iotx_register_for_ITE_STATE_DEV_MODEL,"ax",@progbits
 715              		.align	1
 716              		.globl	iotx_register_for_ITE_STATE_DEV_MODEL
 718              	iotx_register_for_ITE_STATE_DEV_MODEL:
 719              	.LFB38:
 126:C:/Users/stapi/OneDrive/Desktop/GD32VW553/V1_MQTT_OK/GD32VW55X_Wifi_BLE_SDK/GD32VW55x_RELEASE_V1.0.2/MSDK/cloud/alicloud/src/infra/system\event.c **** DEFINE_EVENT_CALLBACK(ITE_STATE_DEV_MODEL,  state_handler_t callback)
 720              		.loc 1 126 1
 721              		.cfi_startproc
 722              	.LVL71:
 723              		.loc 1 126 1
 724              		.loc 1 126 1
 725 0000 B7070000 		lui	a5,%hi(.LANCHOR0+268)
 726 0004 23A6A710 		sw	a0,%lo(.LANCHOR0+268)(a5)
 727              		.loc 1 126 1
 728 0008 0145     		li	a0,0
 729              	.LVL72:
 730 000a 8280     		ret
 731              		.cfi_endproc
 732              	.LFE38:
 734              		.section	.text.iotx_state_event,"ax",@progbits
 735              		.align	1
 736              		.globl	iotx_state_event
 738              	iotx_state_event:
 739              	.LFB39:
 127:C:/Users/stapi/OneDrive/Desktop/GD32VW553/V1_MQTT_OK/GD32VW55X_Wifi_BLE_SDK/GD32VW55x_RELEASE_V1.0.2/MSDK/cloud/alicloud/src/infra/system\event.c **** 
 128:C:/Users/stapi/OneDrive/Desktop/GD32VW553/V1_MQTT_OK/GD32VW55X_Wifi_BLE_SDK/GD32VW55x_RELEASE_V1.0.2/MSDK/cloud/alicloud/src/infra/system\event.c **** #define IOTX_STATE_EVENT_MESSAGE_MAXLEN         DEV_ERRCODE_MSG_MAX_LEN
 129:C:/Users/stapi/OneDrive/Desktop/GD32VW553/V1_MQTT_OK/GD32VW55X_Wifi_BLE_SDK/GD32VW55x_RELEASE_V1.0.2/MSDK/cloud/alicloud/src/infra/system\event.c **** int iotx_state_event(const int event, const int code, const char *msg_format, ...)
 130:C:/Users/stapi/OneDrive/Desktop/GD32VW553/V1_MQTT_OK/GD32VW55X_Wifi_BLE_SDK/GD32VW55x_RELEASE_V1.0.2/MSDK/cloud/alicloud/src/infra/system\event.c **** {
 740              		.loc 1 130 1
 741              		.cfi_startproc
 742              	.LVL73:
 131:C:/Users/stapi/OneDrive/Desktop/GD32VW553/V1_MQTT_OK/GD32VW55X_Wifi_BLE_SDK/GD32VW55x_RELEASE_V1.0.2/MSDK/cloud/alicloud/src/infra/system\event.c ****     char message[IOTX_STATE_EVENT_MESSAGE_MAXLEN + 1] = {0};
 743              		.loc 1 131 5
 130:C:/Users/stapi/OneDrive/Desktop/GD32VW553/V1_MQTT_OK/GD32VW55X_Wifi_BLE_SDK/GD32VW55x_RELEASE_V1.0.2/MSDK/cloud/alicloud/src/infra/system\event.c ****     char message[IOTX_STATE_EVENT_MESSAGE_MAXLEN + 1] = {0};
 744              		.loc 1 130 1 is_stmt 0
 745 0000 7571     		addi	sp,sp,-144
 746              		.cfi_def_cfa_offset 144
 747 0002 A2D4     		sw	s0,104(sp)
 748 0004 A6D2     		sw	s1,100(sp)
 749 0006 CAD0     		sw	s2,96(sp)
 750              		.cfi_offset 8, -40
 751              		.cfi_offset 9, -44
 752              		.cfi_offset 18, -48
 753 0008 AA84     		mv	s1,a0
 754 000a 2E89     		mv	s2,a1
 755 000c 3284     		mv	s0,a2
 756              		.loc 1 131 10
 757 000e 8145     		li	a1,0
 758              	.LVL74:
 759 0010 1306D003 		li	a2,61
 760              	.LVL75:
 761 0014 0808     		addi	a0,sp,16
 762              	.LVL76:
 130:C:/Users/stapi/OneDrive/Desktop/GD32VW553/V1_MQTT_OK/GD32VW55X_Wifi_BLE_SDK/GD32VW55x_RELEASE_V1.0.2/MSDK/cloud/alicloud/src/infra/system\event.c ****     char message[IOTX_STATE_EVENT_MESSAGE_MAXLEN + 1] = {0};
 763              		.loc 1 130 1
 764 0016 CECE     		sw	s3,92(sp)
 765 0018 86D6     		sw	ra,108(sp)
 766              		.cfi_offset 19, -52
 767              		.cfi_offset 1, -36
 130:C:/Users/stapi/OneDrive/Desktop/GD32VW553/V1_MQTT_OK/GD32VW55X_Wifi_BLE_SDK/GD32VW55x_RELEASE_V1.0.2/MSDK/cloud/alicloud/src/infra/system\event.c ****     char message[IOTX_STATE_EVENT_MESSAGE_MAXLEN + 1] = {0};
 768              		.loc 1 130 1
 769 001a 3EC3     		sw	a5,132(sp)
 770 001c B6DE     		sw	a3,124(sp)
 771 001e 3AC1     		sw	a4,128(sp)
 772 0020 42C5     		sw	a6,136(sp)
 773 0022 46C7     		sw	a7,140(sp)
 774              		.loc 1 131 10
 775 0024 02C6     		sw	zero,12(sp)
 776 0026 97000000 		call	memset
 776      E7800000 
 777              	.LVL77:
 132:C:/Users/stapi/OneDrive/Desktop/GD32VW553/V1_MQTT_OK/GD32VW55X_Wifi_BLE_SDK/GD32VW55x_RELEASE_V1.0.2/MSDK/cloud/alicloud/src/infra/system\event.c ****     char *msg_report = NULL;
 778              		.loc 1 132 5 is_stmt 1
 133:C:/Users/stapi/OneDrive/Desktop/GD32VW553/V1_MQTT_OK/GD32VW55X_Wifi_BLE_SDK/GD32VW55x_RELEASE_V1.0.2/MSDK/cloud/alicloud/src/infra/system\event.c ****     void *everything_state_handler = iotx_event_callback(ITE_STATE_EVERYTHING);
 779              		.loc 1 133 5
 780              	.LBB4:
 781              	.LBB5:
  60:C:/Users/stapi/OneDrive/Desktop/GD32VW553/V1_MQTT_OK/GD32VW55X_Wifi_BLE_SDK/GD32VW55x_RELEASE_V1.0.2/MSDK/cloud/alicloud/src/infra/system\event.c ****         return NULL;
 782              		.loc 1 60 5
  63:C:/Users/stapi/OneDrive/Desktop/GD32VW553/V1_MQTT_OK/GD32VW55X_Wifi_BLE_SDK/GD32VW55x_RELEASE_V1.0.2/MSDK/cloud/alicloud/src/infra/system\event.c **** }
 783              		.loc 1 63 5
  63:C:/Users/stapi/OneDrive/Desktop/GD32VW553/V1_MQTT_OK/GD32VW55X_Wifi_BLE_SDK/GD32VW55x_RELEASE_V1.0.2/MSDK/cloud/alicloud/src/infra/system\event.c **** }
 784              		.loc 1 63 33 is_stmt 0
 785 002e B7070000 		lui	a5,%hi(.LANCHOR0+188)
 786              	.LBE5:
 787              	.LBE4:
 134:C:/Users/stapi/OneDrive/Desktop/GD32VW553/V1_MQTT_OK/GD32VW55X_Wifi_BLE_SDK/GD32VW55x_RELEASE_V1.0.2/MSDK/cloud/alicloud/src/infra/system\event.c ****     void *state_handler = iotx_event_callback(event);
 788              		.loc 1 134 27
 789 0032 2685     		mv	a0,s1
 790              	.LBB7:
 791              	.LBB6:
  63:C:/Users/stapi/OneDrive/Desktop/GD32VW553/V1_MQTT_OK/GD32VW55X_Wifi_BLE_SDK/GD32VW55x_RELEASE_V1.0.2/MSDK/cloud/alicloud/src/infra/system\event.c **** }
 792              		.loc 1 63 33
 793 0034 83A9C70B 		lw	s3,%lo(.LANCHOR0+188)(a5)
 794              	.LVL78:
 795              	.LBE6:
 796              	.LBE7:
 797              		.loc 1 134 5 is_stmt 1
 798              		.loc 1 134 27 is_stmt 0
 799 0038 97000000 		call	iotx_event_callback
 799      E7800000 
 800              	.LVL79:
 135:C:/Users/stapi/OneDrive/Desktop/GD32VW553/V1_MQTT_OK/GD32VW55X_Wifi_BLE_SDK/GD32VW55x_RELEASE_V1.0.2/MSDK/cloud/alicloud/src/infra/system\event.c ****     va_list     args;
 801              		.loc 1 135 5 is_stmt 1
 136:C:/Users/stapi/OneDrive/Desktop/GD32VW553/V1_MQTT_OK/GD32VW55X_Wifi_BLE_SDK/GD32VW55x_RELEASE_V1.0.2/MSDK/cloud/alicloud/src/infra/system\event.c **** 
 137:C:/Users/stapi/OneDrive/Desktop/GD32VW553/V1_MQTT_OK/GD32VW55X_Wifi_BLE_SDK/GD32VW55x_RELEASE_V1.0.2/MSDK/cloud/alicloud/src/infra/system\event.c ****     if (state_handler == NULL) {
 802              		.loc 1 137 5
 803              		.loc 1 137 8 is_stmt 0
 804 0040 29C1     		beq	a0,zero,.L43
 805 0042 AA84     		mv	s1,a0
 806              	.LVL80:
 138:C:/Users/stapi/OneDrive/Desktop/GD32VW553/V1_MQTT_OK/GD32VW55X_Wifi_BLE_SDK/GD32VW55x_RELEASE_V1.0.2/MSDK/cloud/alicloud/src/infra/system\event.c ****         return -1;
 139:C:/Users/stapi/OneDrive/Desktop/GD32VW553/V1_MQTT_OK/GD32VW55X_Wifi_BLE_SDK/GD32VW55x_RELEASE_V1.0.2/MSDK/cloud/alicloud/src/infra/system\event.c ****     }
 140:C:/Users/stapi/OneDrive/Desktop/GD32VW553/V1_MQTT_OK/GD32VW55X_Wifi_BLE_SDK/GD32VW55x_RELEASE_V1.0.2/MSDK/cloud/alicloud/src/infra/system\event.c **** 
 141:C:/Users/stapi/OneDrive/Desktop/GD32VW553/V1_MQTT_OK/GD32VW55X_Wifi_BLE_SDK/GD32VW55x_RELEASE_V1.0.2/MSDK/cloud/alicloud/src/infra/system\event.c ****     if (msg_format != NULL) {
 807              		.loc 1 141 5 is_stmt 1
 808              		.loc 1 141 8 is_stmt 0
 809 0044 01CC     		beq	s0,zero,.L42
 142:C:/Users/stapi/OneDrive/Desktop/GD32VW553/V1_MQTT_OK/GD32VW55X_Wifi_BLE_SDK/GD32VW55x_RELEASE_V1.0.2/MSDK/cloud/alicloud/src/infra/system\event.c ****         memset(message, 0, sizeof(message));
 810              		.loc 1 142 9 is_stmt 1
 143:C:/Users/stapi/OneDrive/Desktop/GD32VW553/V1_MQTT_OK/GD32VW55X_Wifi_BLE_SDK/GD32VW55x_RELEASE_V1.0.2/MSDK/cloud/alicloud/src/infra/system\event.c ****         va_start(args, msg_format);
 811              		.loc 1 143 9
 812 0046 F418     		addi	a3,sp,124
 144:C:/Users/stapi/OneDrive/Desktop/GD32VW553/V1_MQTT_OK/GD32VW55X_Wifi_BLE_SDK/GD32VW55x_RELEASE_V1.0.2/MSDK/cloud/alicloud/src/infra/system\event.c ****         vsnprintf(message, IOTX_STATE_EVENT_MESSAGE_MAXLEN, msg_format, args);
 813              		.loc 1 144 9 is_stmt 0
 814 0048 2286     		mv	a2,s0
 815 004a 93050004 		li	a1,64
 816 004e 6800     		addi	a0,sp,12
 817              	.LVL81:
 143:C:/Users/stapi/OneDrive/Desktop/GD32VW553/V1_MQTT_OK/GD32VW55X_Wifi_BLE_SDK/GD32VW55x_RELEASE_V1.0.2/MSDK/cloud/alicloud/src/infra/system\event.c ****         va_start(args, msg_format);
 818              		.loc 1 143 9
 819 0050 36C4     		sw	a3,8(sp)
 820              		.loc 1 144 9 is_stmt 1
 145:C:/Users/stapi/OneDrive/Desktop/GD32VW553/V1_MQTT_OK/GD32VW55X_Wifi_BLE_SDK/GD32VW55x_RELEASE_V1.0.2/MSDK/cloud/alicloud/src/infra/system\event.c ****         va_end(args);
 146:C:/Users/stapi/OneDrive/Desktop/GD32VW553/V1_MQTT_OK/GD32VW55X_Wifi_BLE_SDK/GD32VW55x_RELEASE_V1.0.2/MSDK/cloud/alicloud/src/infra/system\event.c ****         msg_report = message;
 821              		.loc 1 146 20 is_stmt 0
 822 0052 6000     		addi	s0,sp,12
 823              	.LVL82:
 144:C:/Users/stapi/OneDrive/Desktop/GD32VW553/V1_MQTT_OK/GD32VW55X_Wifi_BLE_SDK/GD32VW55x_RELEASE_V1.0.2/MSDK/cloud/alicloud/src/infra/system\event.c ****         vsnprintf(message, IOTX_STATE_EVENT_MESSAGE_MAXLEN, msg_format, args);
 824              		.loc 1 144 9
 825 0054 97000000 		call	vsnprintf
 825      E7800000 
 826              	.LVL83:
 145:C:/Users/stapi/OneDrive/Desktop/GD32VW553/V1_MQTT_OK/GD32VW55X_Wifi_BLE_SDK/GD32VW55x_RELEASE_V1.0.2/MSDK/cloud/alicloud/src/infra/system\event.c ****         va_end(args);
 827              		.loc 1 145 9 is_stmt 1
 828              		.loc 1 146 9
 829              	.L42:
 147:C:/Users/stapi/OneDrive/Desktop/GD32VW553/V1_MQTT_OK/GD32VW55X_Wifi_BLE_SDK/GD32VW55x_RELEASE_V1.0.2/MSDK/cloud/alicloud/src/infra/system\event.c ****     }
 148:C:/Users/stapi/OneDrive/Desktop/GD32VW553/V1_MQTT_OK/GD32VW55X_Wifi_BLE_SDK/GD32VW55x_RELEASE_V1.0.2/MSDK/cloud/alicloud/src/infra/system\event.c **** 
 149:C:/Users/stapi/OneDrive/Desktop/GD32VW553/V1_MQTT_OK/GD32VW55X_Wifi_BLE_SDK/GD32VW55x_RELEASE_V1.0.2/MSDK/cloud/alicloud/src/infra/system\event.c ****     ((state_handler_t)state_handler)(code, msg_report);
 830              		.loc 1 149 5
 831              		.loc 1 149 6 is_stmt 0
 832 005c A285     		mv	a1,s0
 833 005e 4A85     		mv	a0,s2
 834 0060 8294     		jalr	s1
 835              	.LVL84:
 150:C:/Users/stapi/OneDrive/Desktop/GD32VW553/V1_MQTT_OK/GD32VW55X_Wifi_BLE_SDK/GD32VW55x_RELEASE_V1.0.2/MSDK/cloud/alicloud/src/infra/system\event.c **** 
 151:C:/Users/stapi/OneDrive/Desktop/GD32VW553/V1_MQTT_OK/GD32VW55X_Wifi_BLE_SDK/GD32VW55x_RELEASE_V1.0.2/MSDK/cloud/alicloud/src/infra/system\event.c ****     if (everything_state_handler && everything_state_handler != state_handler) {
 836              		.loc 1 151 5 is_stmt 1
 152:C:/Users/stapi/OneDrive/Desktop/GD32VW553/V1_MQTT_OK/GD32VW55X_Wifi_BLE_SDK/GD32VW55x_RELEASE_V1.0.2/MSDK/cloud/alicloud/src/infra/system\event.c ****         ((state_handler_t)everything_state_handler)(code, msg_report);
 153:C:/Users/stapi/OneDrive/Desktop/GD32VW553/V1_MQTT_OK/GD32VW55X_Wifi_BLE_SDK/GD32VW55x_RELEASE_V1.0.2/MSDK/cloud/alicloud/src/infra/system\event.c ****     }
 154:C:/Users/stapi/OneDrive/Desktop/GD32VW553/V1_MQTT_OK/GD32VW55X_Wifi_BLE_SDK/GD32VW55x_RELEASE_V1.0.2/MSDK/cloud/alicloud/src/infra/system\event.c **** 
 155:C:/Users/stapi/OneDrive/Desktop/GD32VW553/V1_MQTT_OK/GD32VW55X_Wifi_BLE_SDK/GD32VW55x_RELEASE_V1.0.2/MSDK/cloud/alicloud/src/infra/system\event.c ****     return 0;
 837              		.loc 1 155 12 is_stmt 0
 838 0062 0145     		li	a0,0
 151:C:/Users/stapi/OneDrive/Desktop/GD32VW553/V1_MQTT_OK/GD32VW55X_Wifi_BLE_SDK/GD32VW55x_RELEASE_V1.0.2/MSDK/cloud/alicloud/src/infra/system\event.c ****         ((state_handler_t)everything_state_handler)(code, msg_report);
 839              		.loc 1 151 8
 840 0064 63880900 		beq	s3,zero,.L40
 151:C:/Users/stapi/OneDrive/Desktop/GD32VW553/V1_MQTT_OK/GD32VW55X_Wifi_BLE_SDK/GD32VW55x_RELEASE_V1.0.2/MSDK/cloud/alicloud/src/infra/system\event.c ****         ((state_handler_t)everything_state_handler)(code, msg_report);
 841              		.loc 1 151 34 discriminator 1
 842 0068 63869900 		beq	s3,s1,.L40
 152:C:/Users/stapi/OneDrive/Desktop/GD32VW553/V1_MQTT_OK/GD32VW55X_Wifi_BLE_SDK/GD32VW55x_RELEASE_V1.0.2/MSDK/cloud/alicloud/src/infra/system\event.c ****         ((state_handler_t)everything_state_handler)(code, msg_report);
 843              		.loc 1 152 9 is_stmt 1
 152:C:/Users/stapi/OneDrive/Desktop/GD32VW553/V1_MQTT_OK/GD32VW55X_Wifi_BLE_SDK/GD32VW55x_RELEASE_V1.0.2/MSDK/cloud/alicloud/src/infra/system\event.c ****         ((state_handler_t)everything_state_handler)(code, msg_report);
 844              		.loc 1 152 10 is_stmt 0
 845 006c A285     		mv	a1,s0
 846 006e 4A85     		mv	a0,s2
 847 0070 8299     		jalr	s3
 848              	.LVL85:
 849              		.loc 1 155 12
 850 0072 0145     		li	a0,0
 851              	.LVL86:
 852              	.L40:
 156:C:/Users/stapi/OneDrive/Desktop/GD32VW553/V1_MQTT_OK/GD32VW55X_Wifi_BLE_SDK/GD32VW55x_RELEASE_V1.0.2/MSDK/cloud/alicloud/src/infra/system\event.c **** }
 853              		.loc 1 156 1
 854 0074 B650     		lw	ra,108(sp)
 855              		.cfi_remember_state
 856              		.cfi_restore 1
 857 0076 2654     		lw	s0,104(sp)
 858              		.cfi_restore 8
 859 0078 9654     		lw	s1,100(sp)
 860              		.cfi_restore 9
 861 007a 0659     		lw	s2,96(sp)
 862              		.cfi_restore 18
 863              	.LVL87:
 864 007c F649     		lw	s3,92(sp)
 865              		.cfi_restore 19
 866              	.LVL88:
 867 007e 4961     		addi	sp,sp,144
 868              		.cfi_def_cfa_offset 0
 869 0080 8280     		jr	ra
 870              	.LVL89:
 871              	.L43:
 872              		.cfi_restore_state
 138:C:/Users/stapi/OneDrive/Desktop/GD32VW553/V1_MQTT_OK/GD32VW55X_Wifi_BLE_SDK/GD32VW55x_RELEASE_V1.0.2/MSDK/cloud/alicloud/src/infra/system\event.c ****     }
 873              		.loc 1 138 16
 874 0082 7D55     		li	a0,-1
 875              	.LVL90:
 876 0084 C5BF     		j	.L40
 877              		.cfi_endproc
 878              	.LFE39:
 880              		.section	.data.g_impl_event_map,"aw"
 881              		.align	2
 882              		.set	.LANCHOR0,. + 0
 885              	g_impl_event_map:
 886 0000 00000000 		.word	0
 887 0004 00000000 		.word	0
 888 0008 01000000 		.word	1
 889 000c 00000000 		.word	0
 890 0010 02000000 		.word	2
 891 0014 00000000 		.word	0
 892 0018 03000000 		.word	3
 893 001c 00000000 		.word	0
 894 0020 04000000 		.word	4
 895 0024 00000000 		.word	0
 896 0028 05000000 		.word	5
 897 002c 00000000 		.word	0
 898 0030 06000000 		.word	6
 899 0034 00000000 		.word	0
 900 0038 07000000 		.word	7
 901 003c 00000000 		.word	0
 902 0040 08000000 		.word	8
 903 0044 00000000 		.word	0
 904 0048 09000000 		.word	9
 905 004c 00000000 		.word	0
 906 0050 0A000000 		.word	10
 907 0054 00000000 		.word	0
 908 0058 0B000000 		.word	11
 909 005c 00000000 		.word	0
 910 0060 0C000000 		.word	12
 911 0064 00000000 		.word	0
 912 0068 0D000000 		.word	13
 913 006c 00000000 		.word	0
 914 0070 0E000000 		.word	14
 915 0074 00000000 		.word	0
 916 0078 10000000 		.word	16
 917 007c 00000000 		.word	0
 918 0080 0F000000 		.word	15
 919 0084 00000000 		.word	0
 920 0088 11000000 		.word	17
 921 008c 00000000 		.word	0
 922 0090 12000000 		.word	18
 923 0094 00000000 		.word	0
 924 0098 13000000 		.word	19
 925 009c 00000000 		.word	0
 926 00a0 14000000 		.word	20
 927 00a4 00000000 		.word	0
 928 00a8 15000000 		.word	21
 929 00ac 00000000 		.word	0
 930 00b0 16000000 		.word	22
 931 00b4 00000000 		.word	0
 932 00b8 17000000 		.word	23
 933 00bc 00000000 		.word	0
 934 00c0 18000000 		.word	24
 935 00c4 00000000 		.word	0
 936 00c8 19000000 		.word	25
 937 00cc 00000000 		.word	0
 938 00d0 1A000000 		.word	26
 939 00d4 00000000 		.word	0
 940 00d8 1B000000 		.word	27
 941 00dc 00000000 		.word	0
 942 00e0 1C000000 		.word	28
 943 00e4 00000000 		.word	0
 944 00e8 1D000000 		.word	29
 945 00ec 00000000 		.word	0
 946 00f0 1E000000 		.word	30
 947 00f4 00000000 		.word	0
 948 00f8 1F000000 		.word	31
 949 00fc 00000000 		.word	0
 950 0100 20000000 		.word	32
 951 0104 00000000 		.word	0
 952 0108 21000000 		.word	33
 953 010c 00000000 		.word	0
 954              		.text
 955              	.Letext0:
 956              		.file 2 "..\\..\\..\\..\\cloud\\alicloud\\include/iot_export.h"
 957              		.file 3 "c:\\users\\stapi\\onedrive\\desktop\\gd32vw553\\embeddedbuilder_v1.4.7.26843\\tools\\nucl
 958              		.file 4 "<built-in>"
 959              		.file 5 "c:\\users\\stapi\\onedrive\\desktop\\gd32vw553\\embeddedbuilder_v1.4.7.26843\\tools\\nucl