   1              		.file	"fac_string.c"
   2              		.option nopic
   3              		.attribute arch, "rv32i2p0_m2p0_a2p0_f2p0_c2p0_b_p0p94"
   4              		.attribute unaligned_access, 0
   5              		.attribute stack_align, 16
   6              		.text
   7              	.Ltext0:
   8              		.cfi_sections	.debug_frame
   9              		.section	.rodata.iotx_facility_json_print.str1.4,"aMS",@progbits,1
  10              		.align	2
  11              	.LC0:
  12 0000 1B00     		.string	"\033"
  13 0002 0000     		.align	2
  14              	.LC1:
  15 0004 25732573 		.string	"%s%s"
  15      00
  16 0009 000000   		.align	2
  17              	.LC2:
  18 000c 0D0A00   		.string	"\r\n"
  19 000f 00       		.align	2
  20              	.LC3:
  21 0010 257300   		.string	"%s"
  22 0013 00       		.align	2
  23              	.LC4:
  24 0014 25632000 		.string	"%c "
  25              		.align	2
  26              	.LC5:
  27 0018 20202020 		.string	"    "
  27      00
  28 001d 000000   		.align	2
  29              	.LC6:
  30 0020 2000     		.string	" "
  31 0022 0000     		.align	2
  32              	.LC7:
  33 0024 0D0A0D0A 		.string	"\r\n\r\n"
  33      00
  34 0029 000000   		.align	2
  35              	.LC8:
  36 002c 1B5B306D 		.string	"\033[0m"
  36      00
  37              		.section	.text.iotx_facility_json_print,"ax",@progbits
  38              		.align	1
  39              		.globl	iotx_facility_json_print
  41              	iotx_facility_json_print:
  42              	.LFB20:
  43              		.file 1 "C:/Users/stapi/OneDrive/Desktop/GD32VW553/V1_MQTT_OK/GD32VW55X_Wifi_BLE_SDK/GD32VW55x_REL
   1:C:/Users/stapi/OneDrive/Desktop/GD32VW553/V1_MQTT_OK/GD32VW55X_Wifi_BLE_SDK/GD32VW55x_RELEASE_V1.0.2/MSDK/cloud/alicloud/src/infra/system/facility\fac_string.c **** /*
   2:C:/Users/stapi/OneDrive/Desktop/GD32VW553/V1_MQTT_OK/GD32VW55X_Wifi_BLE_SDK/GD32VW55x_RELEASE_V1.0.2/MSDK/cloud/alicloud/src/infra/system/facility\fac_string.c ****  * Copyright (C) 2015-2018 Alibaba Group Holding Limited
   3:C:/Users/stapi/OneDrive/Desktop/GD32VW553/V1_MQTT_OK/GD32VW55X_Wifi_BLE_SDK/GD32VW55x_RELEASE_V1.0.2/MSDK/cloud/alicloud/src/infra/system/facility\fac_string.c ****  */
   4:C:/Users/stapi/OneDrive/Desktop/GD32VW553/V1_MQTT_OK/GD32VW55X_Wifi_BLE_SDK/GD32VW55x_RELEASE_V1.0.2/MSDK/cloud/alicloud/src/infra/system/facility\fac_string.c **** 
   5:C:/Users/stapi/OneDrive/Desktop/GD32VW553/V1_MQTT_OK/GD32VW55X_Wifi_BLE_SDK/GD32VW55x_RELEASE_V1.0.2/MSDK/cloud/alicloud/src/infra/system/facility\fac_string.c **** #include "iotx_system_internal.h"
   6:C:/Users/stapi/OneDrive/Desktop/GD32VW553/V1_MQTT_OK/GD32VW55X_Wifi_BLE_SDK/GD32VW55x_RELEASE_V1.0.2/MSDK/cloud/alicloud/src/infra/system/facility\fac_string.c **** 
   7:C:/Users/stapi/OneDrive/Desktop/GD32VW553/V1_MQTT_OK/GD32VW55X_Wifi_BLE_SDK/GD32VW55x_RELEASE_V1.0.2/MSDK/cloud/alicloud/src/infra/system/facility\fac_string.c **** #define JSON_NEWLINE            "\r\n"
   8:C:/Users/stapi/OneDrive/Desktop/GD32VW553/V1_MQTT_OK/GD32VW55X_Wifi_BLE_SDK/GD32VW55x_RELEASE_V1.0.2/MSDK/cloud/alicloud/src/infra/system/facility\fac_string.c **** #define JSON_INDENT             "    "
   9:C:/Users/stapi/OneDrive/Desktop/GD32VW553/V1_MQTT_OK/GD32VW55X_Wifi_BLE_SDK/GD32VW55x_RELEASE_V1.0.2/MSDK/cloud/alicloud/src/infra/system/facility\fac_string.c **** 
  10:C:/Users/stapi/OneDrive/Desktop/GD32VW553/V1_MQTT_OK/GD32VW55X_Wifi_BLE_SDK/GD32VW55x_RELEASE_V1.0.2/MSDK/cloud/alicloud/src/infra/system/facility\fac_string.c **** #define JSON_PRINT_NEWSTR       HAL_Printf("%s", newstr);
  11:C:/Users/stapi/OneDrive/Desktop/GD32VW553/V1_MQTT_OK/GD32VW55X_Wifi_BLE_SDK/GD32VW55x_RELEASE_V1.0.2/MSDK/cloud/alicloud/src/infra/system/facility\fac_string.c **** #define JSON_PRINT_NEWLINE      \
  12:C:/Users/stapi/OneDrive/Desktop/GD32VW553/V1_MQTT_OK/GD32VW55X_Wifi_BLE_SDK/GD32VW55x_RELEASE_V1.0.2/MSDK/cloud/alicloud/src/infra/system/facility\fac_string.c ****     do { \
  13:C:/Users/stapi/OneDrive/Desktop/GD32VW553/V1_MQTT_OK/GD32VW55X_Wifi_BLE_SDK/GD32VW55x_RELEASE_V1.0.2/MSDK/cloud/alicloud/src/infra/system/facility\fac_string.c ****         HAL_Printf("%s", JSON_NEWLINE); \
  14:C:/Users/stapi/OneDrive/Desktop/GD32VW553/V1_MQTT_OK/GD32VW55X_Wifi_BLE_SDK/GD32VW55x_RELEASE_V1.0.2/MSDK/cloud/alicloud/src/infra/system/facility\fac_string.c ****         if (mark == '>' || mark == '<' || mark == ':') { \
  15:C:/Users/stapi/OneDrive/Desktop/GD32VW553/V1_MQTT_OK/GD32VW55X_Wifi_BLE_SDK/GD32VW55x_RELEASE_V1.0.2/MSDK/cloud/alicloud/src/infra/system/facility\fac_string.c ****             HAL_Printf("%c ", mark); \
  16:C:/Users/stapi/OneDrive/Desktop/GD32VW553/V1_MQTT_OK/GD32VW55X_Wifi_BLE_SDK/GD32VW55x_RELEASE_V1.0.2/MSDK/cloud/alicloud/src/infra/system/facility\fac_string.c ****         } \
  17:C:/Users/stapi/OneDrive/Desktop/GD32VW553/V1_MQTT_OK/GD32VW55X_Wifi_BLE_SDK/GD32VW55x_RELEASE_V1.0.2/MSDK/cloud/alicloud/src/infra/system/facility\fac_string.c ****     } while(0)
  18:C:/Users/stapi/OneDrive/Desktop/GD32VW553/V1_MQTT_OK/GD32VW55X_Wifi_BLE_SDK/GD32VW55x_RELEASE_V1.0.2/MSDK/cloud/alicloud/src/infra/system/facility\fac_string.c **** 
  19:C:/Users/stapi/OneDrive/Desktop/GD32VW553/V1_MQTT_OK/GD32VW55X_Wifi_BLE_SDK/GD32VW55x_RELEASE_V1.0.2/MSDK/cloud/alicloud/src/infra/system/facility\fac_string.c **** int iotx_facility_json_print(const char *str, int level, ...)
  20:C:/Users/stapi/OneDrive/Desktop/GD32VW553/V1_MQTT_OK/GD32VW55X_Wifi_BLE_SDK/GD32VW55x_RELEASE_V1.0.2/MSDK/cloud/alicloud/src/infra/system/facility\fac_string.c **** {
  44              		.loc 1 20 1
  45              		.cfi_startproc
  46              	.LVL0:
  21:C:/Users/stapi/OneDrive/Desktop/GD32VW553/V1_MQTT_OK/GD32VW55X_Wifi_BLE_SDK/GD32VW55x_RELEASE_V1.0.2/MSDK/cloud/alicloud/src/infra/system/facility\fac_string.c ****     int             length = 0;
  47              		.loc 1 21 5
  22:C:/Users/stapi/OneDrive/Desktop/GD32VW553/V1_MQTT_OK/GD32VW55X_Wifi_BLE_SDK/GD32VW55x_RELEASE_V1.0.2/MSDK/cloud/alicloud/src/infra/system/facility\fac_string.c ****     char            newstr[2];
  48              		.loc 1 22 5
  23:C:/Users/stapi/OneDrive/Desktop/GD32VW553/V1_MQTT_OK/GD32VW55X_Wifi_BLE_SDK/GD32VW55x_RELEASE_V1.0.2/MSDK/cloud/alicloud/src/infra/system/facility\fac_string.c ****     int             quoted  = 0;
  49              		.loc 1 23 5
  24:C:/Users/stapi/OneDrive/Desktop/GD32VW553/V1_MQTT_OK/GD32VW55X_Wifi_BLE_SDK/GD32VW55x_RELEASE_V1.0.2/MSDK/cloud/alicloud/src/infra/system/facility\fac_string.c ****     int             escaped = 0;
  50              		.loc 1 24 5
  25:C:/Users/stapi/OneDrive/Desktop/GD32VW553/V1_MQTT_OK/GD32VW55X_Wifi_BLE_SDK/GD32VW55x_RELEASE_V1.0.2/MSDK/cloud/alicloud/src/infra/system/facility\fac_string.c ****     int             indent  = 0;
  51              		.loc 1 25 5
  26:C:/Users/stapi/OneDrive/Desktop/GD32VW553/V1_MQTT_OK/GD32VW55X_Wifi_BLE_SDK/GD32VW55x_RELEASE_V1.0.2/MSDK/cloud/alicloud/src/infra/system/facility\fac_string.c ****     int             i = 0, j = 0;
  52              		.loc 1 26 5
  27:C:/Users/stapi/OneDrive/Desktop/GD32VW553/V1_MQTT_OK/GD32VW55X_Wifi_BLE_SDK/GD32VW55x_RELEASE_V1.0.2/MSDK/cloud/alicloud/src/infra/system/facility\fac_string.c ****     int             curr_level = LITE_get_loglevel();
  53              		.loc 1 27 5
  20:C:/Users/stapi/OneDrive/Desktop/GD32VW553/V1_MQTT_OK/GD32VW55X_Wifi_BLE_SDK/GD32VW55x_RELEASE_V1.0.2/MSDK/cloud/alicloud/src/infra/system/facility\fac_string.c ****     int             length = 0;
  54              		.loc 1 20 1 is_stmt 0
  55 0000 3571     		addi	sp,sp,-160
  56              		.cfi_def_cfa_offset 160
  57 0002 A2DC     		sw	s0,120(sp)
  58 0004 A6DA     		sw	s1,116(sp)
  59 0006 CED6     		sw	s3,108(sp)
  60 0008 86DE     		sw	ra,124(sp)
  61 000a CAD8     		sw	s2,112(sp)
  62 000c D2D4     		sw	s4,104(sp)
  63 000e D6D2     		sw	s5,100(sp)
  64 0010 DAD0     		sw	s6,96(sp)
  65 0012 DECE     		sw	s7,92(sp)
  66 0014 E2CC     		sw	s8,88(sp)
  67 0016 E6CA     		sw	s9,84(sp)
  68 0018 EAC8     		sw	s10,80(sp)
  69 001a EEC6     		sw	s11,76(sp)
  70              		.cfi_offset 8, -40
  71              		.cfi_offset 9, -44
  72              		.cfi_offset 19, -52
  73              		.cfi_offset 1, -36
  74              		.cfi_offset 18, -48
  75              		.cfi_offset 20, -56
  76              		.cfi_offset 21, -60
  77              		.cfi_offset 22, -64
  78              		.cfi_offset 23, -68
  79              		.cfi_offset 24, -72
  80              		.cfi_offset 25, -76
  81              		.cfi_offset 26, -80
  82              		.cfi_offset 27, -84
  20:C:/Users/stapi/OneDrive/Desktop/GD32VW553/V1_MQTT_OK/GD32VW55X_Wifi_BLE_SDK/GD32VW55x_RELEASE_V1.0.2/MSDK/cloud/alicloud/src/infra/system/facility\fac_string.c ****     int             length = 0;
  83              		.loc 1 20 1
  84 001c AA84     		mv	s1,a0
  85 001e 2E84     		mv	s0,a1
  86 0020 32C5     		sw	a2,136(sp)
  87 0022 36C7     		sw	a3,140(sp)
  88 0024 3AC9     		sw	a4,144(sp)
  89 0026 3ECB     		sw	a5,148(sp)
  90 0028 42CD     		sw	a6,152(sp)
  91 002a 46CF     		sw	a7,156(sp)
  92              		.loc 1 27 34
  93 002c 97000000 		call	LITE_get_loglevel
  93      E7800000 
  94              	.LVL1:
  28:C:/Users/stapi/OneDrive/Desktop/GD32VW553/V1_MQTT_OK/GD32VW55X_Wifi_BLE_SDK/GD32VW55x_RELEASE_V1.0.2/MSDK/cloud/alicloud/src/infra/system/facility\fac_string.c ****     int             res = -1;
  95              		.loc 1 28 5 is_stmt 1
  29:C:/Users/stapi/OneDrive/Desktop/GD32VW553/V1_MQTT_OK/GD32VW55X_Wifi_BLE_SDK/GD32VW55x_RELEASE_V1.0.2/MSDK/cloud/alicloud/src/infra/system/facility\fac_string.c ****     lite_cjson_t    lite;
  96              		.loc 1 29 5
  30:C:/Users/stapi/OneDrive/Desktop/GD32VW553/V1_MQTT_OK/GD32VW55X_Wifi_BLE_SDK/GD32VW55x_RELEASE_V1.0.2/MSDK/cloud/alicloud/src/infra/system/facility\fac_string.c ****     va_list         ap;
  97              		.loc 1 30 5
  31:C:/Users/stapi/OneDrive/Desktop/GD32VW553/V1_MQTT_OK/GD32VW55X_Wifi_BLE_SDK/GD32VW55x_RELEASE_V1.0.2/MSDK/cloud/alicloud/src/infra/system/facility\fac_string.c ****     int             mark = ' ';
  98              		.loc 1 31 5
  32:C:/Users/stapi/OneDrive/Desktop/GD32VW553/V1_MQTT_OK/GD32VW55X_Wifi_BLE_SDK/GD32VW55x_RELEASE_V1.0.2/MSDK/cloud/alicloud/src/infra/system/facility\fac_string.c **** 
  33:C:/Users/stapi/OneDrive/Desktop/GD32VW553/V1_MQTT_OK/GD32VW55X_Wifi_BLE_SDK/GD32VW55x_RELEASE_V1.0.2/MSDK/cloud/alicloud/src/infra/system/facility\fac_string.c ****     newstr[0] = 0x00;
  99              		.loc 1 33 5
  34:C:/Users/stapi/OneDrive/Desktop/GD32VW553/V1_MQTT_OK/GD32VW55X_Wifi_BLE_SDK/GD32VW55x_RELEASE_V1.0.2/MSDK/cloud/alicloud/src/infra/system/facility\fac_string.c ****     newstr[1] = 0x00;
 100              		.loc 1 34 5
  33:C:/Users/stapi/OneDrive/Desktop/GD32VW553/V1_MQTT_OK/GD32VW55X_Wifi_BLE_SDK/GD32VW55x_RELEASE_V1.0.2/MSDK/cloud/alicloud/src/infra/system/facility\fac_string.c ****     newstr[1] = 0x00;
 101              		.loc 1 33 15 is_stmt 0
 102 0034 231C0100 		sh	zero,24(sp)
  35:C:/Users/stapi/OneDrive/Desktop/GD32VW553/V1_MQTT_OK/GD32VW55X_Wifi_BLE_SDK/GD32VW55x_RELEASE_V1.0.2/MSDK/cloud/alicloud/src/infra/system/facility\fac_string.c **** 
  36:C:/Users/stapi/OneDrive/Desktop/GD32VW553/V1_MQTT_OK/GD32VW55X_Wifi_BLE_SDK/GD32VW55x_RELEASE_V1.0.2/MSDK/cloud/alicloud/src/infra/system/facility\fac_string.c ****     if (curr_level < level) {
 103              		.loc 1 36 5 is_stmt 1
  37:C:/Users/stapi/OneDrive/Desktop/GD32VW553/V1_MQTT_OK/GD32VW55X_Wifi_BLE_SDK/GD32VW55x_RELEASE_V1.0.2/MSDK/cloud/alicloud/src/infra/system/facility\fac_string.c ****         return 1;
 104              		.loc 1 37 16 is_stmt 0
 105 0038 8549     		li	s3,1
  36:C:/Users/stapi/OneDrive/Desktop/GD32VW553/V1_MQTT_OK/GD32VW55X_Wifi_BLE_SDK/GD32VW55x_RELEASE_V1.0.2/MSDK/cloud/alicloud/src/infra/system/facility\fac_string.c ****         return 1;
 106              		.loc 1 36 8
 107 003a 63468502 		blt	a0,s0,.L1
  38:C:/Users/stapi/OneDrive/Desktop/GD32VW553/V1_MQTT_OK/GD32VW55X_Wifi_BLE_SDK/GD32VW55x_RELEASE_V1.0.2/MSDK/cloud/alicloud/src/infra/system/facility\fac_string.c ****     }
  39:C:/Users/stapi/OneDrive/Desktop/GD32VW553/V1_MQTT_OK/GD32VW55X_Wifi_BLE_SDK/GD32VW55x_RELEASE_V1.0.2/MSDK/cloud/alicloud/src/infra/system/facility\fac_string.c **** 
  40:C:/Users/stapi/OneDrive/Desktop/GD32VW553/V1_MQTT_OK/GD32VW55X_Wifi_BLE_SDK/GD32VW55x_RELEASE_V1.0.2/MSDK/cloud/alicloud/src/infra/system/facility\fac_string.c ****     if (str == NULL || strlen(str) == 0) {
 108              		.loc 1 40 5 is_stmt 1
  41:C:/Users/stapi/OneDrive/Desktop/GD32VW553/V1_MQTT_OK/GD32VW55X_Wifi_BLE_SDK/GD32VW55x_RELEASE_V1.0.2/MSDK/cloud/alicloud/src/infra/system/facility\fac_string.c ****         return -1;
 109              		.loc 1 41 16 is_stmt 0
 110 003e FD59     		li	s3,-1
  40:C:/Users/stapi/OneDrive/Desktop/GD32VW553/V1_MQTT_OK/GD32VW55X_Wifi_BLE_SDK/GD32VW55x_RELEASE_V1.0.2/MSDK/cloud/alicloud/src/infra/system/facility\fac_string.c ****         return -1;
 111              		.loc 1 40 8
 112 0040 9DC0     		beq	s1,zero,.L1
  40:C:/Users/stapi/OneDrive/Desktop/GD32VW553/V1_MQTT_OK/GD32VW55X_Wifi_BLE_SDK/GD32VW55x_RELEASE_V1.0.2/MSDK/cloud/alicloud/src/infra/system/facility\fac_string.c ****         return -1;
 113              		.loc 1 40 21 discriminator 1
 114 0042 83870400 		lb	a5,0(s1)
 115 0046 85C3     		beq	a5,zero,.L1
  42:C:/Users/stapi/OneDrive/Desktop/GD32VW553/V1_MQTT_OK/GD32VW55X_Wifi_BLE_SDK/GD32VW55x_RELEASE_V1.0.2/MSDK/cloud/alicloud/src/infra/system/facility\fac_string.c ****     }
  43:C:/Users/stapi/OneDrive/Desktop/GD32VW553/V1_MQTT_OK/GD32VW55X_Wifi_BLE_SDK/GD32VW55x_RELEASE_V1.0.2/MSDK/cloud/alicloud/src/infra/system/facility\fac_string.c **** 
  44:C:/Users/stapi/OneDrive/Desktop/GD32VW553/V1_MQTT_OK/GD32VW55X_Wifi_BLE_SDK/GD32VW55x_RELEASE_V1.0.2/MSDK/cloud/alicloud/src/infra/system/facility\fac_string.c ****     res = lite_cjson_parse(str, strlen(str), &lite);
 116              		.loc 1 44 5 is_stmt 1
 117              		.loc 1 44 33 is_stmt 0
 118 0048 2685     		mv	a0,s1
 119              	.LVL2:
 120 004a 97000000 		call	strlen
 120      E7800000 
 121              	.LVL3:
 122 0052 AA85     		mv	a1,a0
 123              		.loc 1 44 11
 124 0054 1010     		addi	a2,sp,32
 125 0056 2685     		mv	a0,s1
 126 0058 97000000 		call	lite_cjson_parse
 126      E7800000 
 127              	.LVL4:
 128 0060 AA89     		mv	s3,a0
 129              	.LVL5:
  45:C:/Users/stapi/OneDrive/Desktop/GD32VW553/V1_MQTT_OK/GD32VW55X_Wifi_BLE_SDK/GD32VW55x_RELEASE_V1.0.2/MSDK/cloud/alicloud/src/infra/system/facility\fac_string.c ****     if (res != SUCCESS_RETURN || !lite_cjson_is_object(&lite)) {
 130              		.loc 1 45 5 is_stmt 1
 131              		.loc 1 45 8 is_stmt 0
 132 0062 15C1     		beq	a0,zero,.L3
 133              	.LVL6:
 134              	.L4:
  46:C:/Users/stapi/OneDrive/Desktop/GD32VW553/V1_MQTT_OK/GD32VW55X_Wifi_BLE_SDK/GD32VW55x_RELEASE_V1.0.2/MSDK/cloud/alicloud/src/infra/system/facility\fac_string.c ****         return -2;
 135              		.loc 1 46 16
 136 0064 F959     		li	s3,-2
 137              	.LVL7:
 138              	.L1:
  47:C:/Users/stapi/OneDrive/Desktop/GD32VW553/V1_MQTT_OK/GD32VW55X_Wifi_BLE_SDK/GD32VW55x_RELEASE_V1.0.2/MSDK/cloud/alicloud/src/infra/system/facility\fac_string.c ****     }
  48:C:/Users/stapi/OneDrive/Desktop/GD32VW553/V1_MQTT_OK/GD32VW55X_Wifi_BLE_SDK/GD32VW55x_RELEASE_V1.0.2/MSDK/cloud/alicloud/src/infra/system/facility\fac_string.c **** 
  49:C:/Users/stapi/OneDrive/Desktop/GD32VW553/V1_MQTT_OK/GD32VW55X_Wifi_BLE_SDK/GD32VW55x_RELEASE_V1.0.2/MSDK/cloud/alicloud/src/infra/system/facility\fac_string.c ****     length = strlen(str);
  50:C:/Users/stapi/OneDrive/Desktop/GD32VW553/V1_MQTT_OK/GD32VW55X_Wifi_BLE_SDK/GD32VW55x_RELEASE_V1.0.2/MSDK/cloud/alicloud/src/infra/system/facility\fac_string.c ****     HAL_Printf("%s%s", "\033", lvl_color[level]);
  51:C:/Users/stapi/OneDrive/Desktop/GD32VW553/V1_MQTT_OK/GD32VW55X_Wifi_BLE_SDK/GD32VW55x_RELEASE_V1.0.2/MSDK/cloud/alicloud/src/infra/system/facility\fac_string.c ****     va_start(ap, level);
  52:C:/Users/stapi/OneDrive/Desktop/GD32VW553/V1_MQTT_OK/GD32VW55X_Wifi_BLE_SDK/GD32VW55x_RELEASE_V1.0.2/MSDK/cloud/alicloud/src/infra/system/facility\fac_string.c ****     mark = va_arg(ap, int);
  53:C:/Users/stapi/OneDrive/Desktop/GD32VW553/V1_MQTT_OK/GD32VW55X_Wifi_BLE_SDK/GD32VW55x_RELEASE_V1.0.2/MSDK/cloud/alicloud/src/infra/system/facility\fac_string.c ****     JSON_PRINT_NEWLINE;
  54:C:/Users/stapi/OneDrive/Desktop/GD32VW553/V1_MQTT_OK/GD32VW55X_Wifi_BLE_SDK/GD32VW55x_RELEASE_V1.0.2/MSDK/cloud/alicloud/src/infra/system/facility\fac_string.c ****     va_end(ap);
  55:C:/Users/stapi/OneDrive/Desktop/GD32VW553/V1_MQTT_OK/GD32VW55X_Wifi_BLE_SDK/GD32VW55x_RELEASE_V1.0.2/MSDK/cloud/alicloud/src/infra/system/facility\fac_string.c **** 
  56:C:/Users/stapi/OneDrive/Desktop/GD32VW553/V1_MQTT_OK/GD32VW55X_Wifi_BLE_SDK/GD32VW55x_RELEASE_V1.0.2/MSDK/cloud/alicloud/src/infra/system/facility\fac_string.c ****     for (i = 0 ; i < length ; i++) {
  57:C:/Users/stapi/OneDrive/Desktop/GD32VW553/V1_MQTT_OK/GD32VW55X_Wifi_BLE_SDK/GD32VW55x_RELEASE_V1.0.2/MSDK/cloud/alicloud/src/infra/system/facility\fac_string.c ****         char ch = str[i];
  58:C:/Users/stapi/OneDrive/Desktop/GD32VW553/V1_MQTT_OK/GD32VW55X_Wifi_BLE_SDK/GD32VW55x_RELEASE_V1.0.2/MSDK/cloud/alicloud/src/infra/system/facility\fac_string.c ****         switch (ch) {
  59:C:/Users/stapi/OneDrive/Desktop/GD32VW553/V1_MQTT_OK/GD32VW55X_Wifi_BLE_SDK/GD32VW55x_RELEASE_V1.0.2/MSDK/cloud/alicloud/src/infra/system/facility\fac_string.c ****             case '{':
  60:C:/Users/stapi/OneDrive/Desktop/GD32VW553/V1_MQTT_OK/GD32VW55X_Wifi_BLE_SDK/GD32VW55x_RELEASE_V1.0.2/MSDK/cloud/alicloud/src/infra/system/facility\fac_string.c ****             case '[':
  61:C:/Users/stapi/OneDrive/Desktop/GD32VW553/V1_MQTT_OK/GD32VW55X_Wifi_BLE_SDK/GD32VW55x_RELEASE_V1.0.2/MSDK/cloud/alicloud/src/infra/system/facility\fac_string.c ****                 newstr[0] = ch;
  62:C:/Users/stapi/OneDrive/Desktop/GD32VW553/V1_MQTT_OK/GD32VW55X_Wifi_BLE_SDK/GD32VW55x_RELEASE_V1.0.2/MSDK/cloud/alicloud/src/infra/system/facility\fac_string.c ****                 JSON_PRINT_NEWSTR;
  63:C:/Users/stapi/OneDrive/Desktop/GD32VW553/V1_MQTT_OK/GD32VW55X_Wifi_BLE_SDK/GD32VW55x_RELEASE_V1.0.2/MSDK/cloud/alicloud/src/infra/system/facility\fac_string.c **** 
  64:C:/Users/stapi/OneDrive/Desktop/GD32VW553/V1_MQTT_OK/GD32VW55X_Wifi_BLE_SDK/GD32VW55x_RELEASE_V1.0.2/MSDK/cloud/alicloud/src/infra/system/facility\fac_string.c ****                 if (!quoted) {
  65:C:/Users/stapi/OneDrive/Desktop/GD32VW553/V1_MQTT_OK/GD32VW55X_Wifi_BLE_SDK/GD32VW55x_RELEASE_V1.0.2/MSDK/cloud/alicloud/src/infra/system/facility\fac_string.c ****                     JSON_PRINT_NEWLINE;
  66:C:/Users/stapi/OneDrive/Desktop/GD32VW553/V1_MQTT_OK/GD32VW55X_Wifi_BLE_SDK/GD32VW55x_RELEASE_V1.0.2/MSDK/cloud/alicloud/src/infra/system/facility\fac_string.c **** 
  67:C:/Users/stapi/OneDrive/Desktop/GD32VW553/V1_MQTT_OK/GD32VW55X_Wifi_BLE_SDK/GD32VW55x_RELEASE_V1.0.2/MSDK/cloud/alicloud/src/infra/system/facility\fac_string.c ****                     if (!(str[i + 1] == '}' || str[i + 1] == ']')) {
  68:C:/Users/stapi/OneDrive/Desktop/GD32VW553/V1_MQTT_OK/GD32VW55X_Wifi_BLE_SDK/GD32VW55x_RELEASE_V1.0.2/MSDK/cloud/alicloud/src/infra/system/facility\fac_string.c ****                         ++indent;
  69:C:/Users/stapi/OneDrive/Desktop/GD32VW553/V1_MQTT_OK/GD32VW55X_Wifi_BLE_SDK/GD32VW55x_RELEASE_V1.0.2/MSDK/cloud/alicloud/src/infra/system/facility\fac_string.c **** 
  70:C:/Users/stapi/OneDrive/Desktop/GD32VW553/V1_MQTT_OK/GD32VW55X_Wifi_BLE_SDK/GD32VW55x_RELEASE_V1.0.2/MSDK/cloud/alicloud/src/infra/system/facility\fac_string.c ****                         for (j = 0 ; j < indent ; j++) {
  71:C:/Users/stapi/OneDrive/Desktop/GD32VW553/V1_MQTT_OK/GD32VW55X_Wifi_BLE_SDK/GD32VW55x_RELEASE_V1.0.2/MSDK/cloud/alicloud/src/infra/system/facility\fac_string.c ****                             HAL_Printf("%s", JSON_INDENT);
  72:C:/Users/stapi/OneDrive/Desktop/GD32VW553/V1_MQTT_OK/GD32VW55X_Wifi_BLE_SDK/GD32VW55x_RELEASE_V1.0.2/MSDK/cloud/alicloud/src/infra/system/facility\fac_string.c ****                         }
  73:C:/Users/stapi/OneDrive/Desktop/GD32VW553/V1_MQTT_OK/GD32VW55X_Wifi_BLE_SDK/GD32VW55x_RELEASE_V1.0.2/MSDK/cloud/alicloud/src/infra/system/facility\fac_string.c ****                     }
  74:C:/Users/stapi/OneDrive/Desktop/GD32VW553/V1_MQTT_OK/GD32VW55X_Wifi_BLE_SDK/GD32VW55x_RELEASE_V1.0.2/MSDK/cloud/alicloud/src/infra/system/facility\fac_string.c ****                 }
  75:C:/Users/stapi/OneDrive/Desktop/GD32VW553/V1_MQTT_OK/GD32VW55X_Wifi_BLE_SDK/GD32VW55x_RELEASE_V1.0.2/MSDK/cloud/alicloud/src/infra/system/facility\fac_string.c **** 
  76:C:/Users/stapi/OneDrive/Desktop/GD32VW553/V1_MQTT_OK/GD32VW55X_Wifi_BLE_SDK/GD32VW55x_RELEASE_V1.0.2/MSDK/cloud/alicloud/src/infra/system/facility\fac_string.c ****                 break;
  77:C:/Users/stapi/OneDrive/Desktop/GD32VW553/V1_MQTT_OK/GD32VW55X_Wifi_BLE_SDK/GD32VW55x_RELEASE_V1.0.2/MSDK/cloud/alicloud/src/infra/system/facility\fac_string.c **** 
  78:C:/Users/stapi/OneDrive/Desktop/GD32VW553/V1_MQTT_OK/GD32VW55X_Wifi_BLE_SDK/GD32VW55x_RELEASE_V1.0.2/MSDK/cloud/alicloud/src/infra/system/facility\fac_string.c ****             case '}':
  79:C:/Users/stapi/OneDrive/Desktop/GD32VW553/V1_MQTT_OK/GD32VW55X_Wifi_BLE_SDK/GD32VW55x_RELEASE_V1.0.2/MSDK/cloud/alicloud/src/infra/system/facility\fac_string.c ****             case ']':
  80:C:/Users/stapi/OneDrive/Desktop/GD32VW553/V1_MQTT_OK/GD32VW55X_Wifi_BLE_SDK/GD32VW55x_RELEASE_V1.0.2/MSDK/cloud/alicloud/src/infra/system/facility\fac_string.c ****                 if (!quoted) {
  81:C:/Users/stapi/OneDrive/Desktop/GD32VW553/V1_MQTT_OK/GD32VW55X_Wifi_BLE_SDK/GD32VW55x_RELEASE_V1.0.2/MSDK/cloud/alicloud/src/infra/system/facility\fac_string.c ****                     if ((i > 0) && (!(str[i - 1] == '{' || str[i - 1] == '['))) {
  82:C:/Users/stapi/OneDrive/Desktop/GD32VW553/V1_MQTT_OK/GD32VW55X_Wifi_BLE_SDK/GD32VW55x_RELEASE_V1.0.2/MSDK/cloud/alicloud/src/infra/system/facility\fac_string.c ****                         JSON_PRINT_NEWLINE;
  83:C:/Users/stapi/OneDrive/Desktop/GD32VW553/V1_MQTT_OK/GD32VW55X_Wifi_BLE_SDK/GD32VW55x_RELEASE_V1.0.2/MSDK/cloud/alicloud/src/infra/system/facility\fac_string.c ****                         --indent;
  84:C:/Users/stapi/OneDrive/Desktop/GD32VW553/V1_MQTT_OK/GD32VW55X_Wifi_BLE_SDK/GD32VW55x_RELEASE_V1.0.2/MSDK/cloud/alicloud/src/infra/system/facility\fac_string.c **** 
  85:C:/Users/stapi/OneDrive/Desktop/GD32VW553/V1_MQTT_OK/GD32VW55X_Wifi_BLE_SDK/GD32VW55x_RELEASE_V1.0.2/MSDK/cloud/alicloud/src/infra/system/facility\fac_string.c ****                         for (j = 0 ; j < indent ; j++) {
  86:C:/Users/stapi/OneDrive/Desktop/GD32VW553/V1_MQTT_OK/GD32VW55X_Wifi_BLE_SDK/GD32VW55x_RELEASE_V1.0.2/MSDK/cloud/alicloud/src/infra/system/facility\fac_string.c ****                             HAL_Printf("%s", JSON_INDENT);
  87:C:/Users/stapi/OneDrive/Desktop/GD32VW553/V1_MQTT_OK/GD32VW55X_Wifi_BLE_SDK/GD32VW55x_RELEASE_V1.0.2/MSDK/cloud/alicloud/src/infra/system/facility\fac_string.c ****                         }
  88:C:/Users/stapi/OneDrive/Desktop/GD32VW553/V1_MQTT_OK/GD32VW55X_Wifi_BLE_SDK/GD32VW55x_RELEASE_V1.0.2/MSDK/cloud/alicloud/src/infra/system/facility\fac_string.c ****                     } else if ((i > 0) && ((str[i - 1] == '[' && ch == ']') || (str[i - 1] == '{' &
  89:C:/Users/stapi/OneDrive/Desktop/GD32VW553/V1_MQTT_OK/GD32VW55X_Wifi_BLE_SDK/GD32VW55x_RELEASE_V1.0.2/MSDK/cloud/alicloud/src/infra/system/facility\fac_string.c ****                         for (j = 0 ; j < indent ; j++) {
  90:C:/Users/stapi/OneDrive/Desktop/GD32VW553/V1_MQTT_OK/GD32VW55X_Wifi_BLE_SDK/GD32VW55x_RELEASE_V1.0.2/MSDK/cloud/alicloud/src/infra/system/facility\fac_string.c ****                             HAL_Printf("%s", JSON_INDENT);
  91:C:/Users/stapi/OneDrive/Desktop/GD32VW553/V1_MQTT_OK/GD32VW55X_Wifi_BLE_SDK/GD32VW55x_RELEASE_V1.0.2/MSDK/cloud/alicloud/src/infra/system/facility\fac_string.c ****                         }
  92:C:/Users/stapi/OneDrive/Desktop/GD32VW553/V1_MQTT_OK/GD32VW55X_Wifi_BLE_SDK/GD32VW55x_RELEASE_V1.0.2/MSDK/cloud/alicloud/src/infra/system/facility\fac_string.c ****                     }
  93:C:/Users/stapi/OneDrive/Desktop/GD32VW553/V1_MQTT_OK/GD32VW55X_Wifi_BLE_SDK/GD32VW55x_RELEASE_V1.0.2/MSDK/cloud/alicloud/src/infra/system/facility\fac_string.c ****                 }
  94:C:/Users/stapi/OneDrive/Desktop/GD32VW553/V1_MQTT_OK/GD32VW55X_Wifi_BLE_SDK/GD32VW55x_RELEASE_V1.0.2/MSDK/cloud/alicloud/src/infra/system/facility\fac_string.c **** 
  95:C:/Users/stapi/OneDrive/Desktop/GD32VW553/V1_MQTT_OK/GD32VW55X_Wifi_BLE_SDK/GD32VW55x_RELEASE_V1.0.2/MSDK/cloud/alicloud/src/infra/system/facility\fac_string.c ****                 newstr[0] = ch;
  96:C:/Users/stapi/OneDrive/Desktop/GD32VW553/V1_MQTT_OK/GD32VW55X_Wifi_BLE_SDK/GD32VW55x_RELEASE_V1.0.2/MSDK/cloud/alicloud/src/infra/system/facility\fac_string.c ****                 JSON_PRINT_NEWSTR;
  97:C:/Users/stapi/OneDrive/Desktop/GD32VW553/V1_MQTT_OK/GD32VW55X_Wifi_BLE_SDK/GD32VW55x_RELEASE_V1.0.2/MSDK/cloud/alicloud/src/infra/system/facility\fac_string.c **** 
  98:C:/Users/stapi/OneDrive/Desktop/GD32VW553/V1_MQTT_OK/GD32VW55X_Wifi_BLE_SDK/GD32VW55x_RELEASE_V1.0.2/MSDK/cloud/alicloud/src/infra/system/facility\fac_string.c ****                 break;
  99:C:/Users/stapi/OneDrive/Desktop/GD32VW553/V1_MQTT_OK/GD32VW55X_Wifi_BLE_SDK/GD32VW55x_RELEASE_V1.0.2/MSDK/cloud/alicloud/src/infra/system/facility\fac_string.c **** 
 100:C:/Users/stapi/OneDrive/Desktop/GD32VW553/V1_MQTT_OK/GD32VW55X_Wifi_BLE_SDK/GD32VW55x_RELEASE_V1.0.2/MSDK/cloud/alicloud/src/infra/system/facility\fac_string.c ****             case '"':
 101:C:/Users/stapi/OneDrive/Desktop/GD32VW553/V1_MQTT_OK/GD32VW55X_Wifi_BLE_SDK/GD32VW55x_RELEASE_V1.0.2/MSDK/cloud/alicloud/src/infra/system/facility\fac_string.c ****                 newstr[0] = ch;
 102:C:/Users/stapi/OneDrive/Desktop/GD32VW553/V1_MQTT_OK/GD32VW55X_Wifi_BLE_SDK/GD32VW55x_RELEASE_V1.0.2/MSDK/cloud/alicloud/src/infra/system/facility\fac_string.c ****                 JSON_PRINT_NEWSTR;
 103:C:/Users/stapi/OneDrive/Desktop/GD32VW553/V1_MQTT_OK/GD32VW55X_Wifi_BLE_SDK/GD32VW55x_RELEASE_V1.0.2/MSDK/cloud/alicloud/src/infra/system/facility\fac_string.c ****                 escaped = 1;
 104:C:/Users/stapi/OneDrive/Desktop/GD32VW553/V1_MQTT_OK/GD32VW55X_Wifi_BLE_SDK/GD32VW55x_RELEASE_V1.0.2/MSDK/cloud/alicloud/src/infra/system/facility\fac_string.c **** 
 105:C:/Users/stapi/OneDrive/Desktop/GD32VW553/V1_MQTT_OK/GD32VW55X_Wifi_BLE_SDK/GD32VW55x_RELEASE_V1.0.2/MSDK/cloud/alicloud/src/infra/system/facility\fac_string.c ****                 if (i > 0 && str[i - 1] == '\\') {
 106:C:/Users/stapi/OneDrive/Desktop/GD32VW553/V1_MQTT_OK/GD32VW55X_Wifi_BLE_SDK/GD32VW55x_RELEASE_V1.0.2/MSDK/cloud/alicloud/src/infra/system/facility\fac_string.c ****                     escaped = !escaped;
 107:C:/Users/stapi/OneDrive/Desktop/GD32VW553/V1_MQTT_OK/GD32VW55X_Wifi_BLE_SDK/GD32VW55x_RELEASE_V1.0.2/MSDK/cloud/alicloud/src/infra/system/facility\fac_string.c ****                 }
 108:C:/Users/stapi/OneDrive/Desktop/GD32VW553/V1_MQTT_OK/GD32VW55X_Wifi_BLE_SDK/GD32VW55x_RELEASE_V1.0.2/MSDK/cloud/alicloud/src/infra/system/facility\fac_string.c **** 
 109:C:/Users/stapi/OneDrive/Desktop/GD32VW553/V1_MQTT_OK/GD32VW55X_Wifi_BLE_SDK/GD32VW55x_RELEASE_V1.0.2/MSDK/cloud/alicloud/src/infra/system/facility\fac_string.c ****                 if (!escaped) {
 110:C:/Users/stapi/OneDrive/Desktop/GD32VW553/V1_MQTT_OK/GD32VW55X_Wifi_BLE_SDK/GD32VW55x_RELEASE_V1.0.2/MSDK/cloud/alicloud/src/infra/system/facility\fac_string.c ****                     quoted = !quoted;
 111:C:/Users/stapi/OneDrive/Desktop/GD32VW553/V1_MQTT_OK/GD32VW55X_Wifi_BLE_SDK/GD32VW55x_RELEASE_V1.0.2/MSDK/cloud/alicloud/src/infra/system/facility\fac_string.c ****                 }
 112:C:/Users/stapi/OneDrive/Desktop/GD32VW553/V1_MQTT_OK/GD32VW55X_Wifi_BLE_SDK/GD32VW55x_RELEASE_V1.0.2/MSDK/cloud/alicloud/src/infra/system/facility\fac_string.c **** 
 113:C:/Users/stapi/OneDrive/Desktop/GD32VW553/V1_MQTT_OK/GD32VW55X_Wifi_BLE_SDK/GD32VW55x_RELEASE_V1.0.2/MSDK/cloud/alicloud/src/infra/system/facility\fac_string.c ****                 break;
 114:C:/Users/stapi/OneDrive/Desktop/GD32VW553/V1_MQTT_OK/GD32VW55X_Wifi_BLE_SDK/GD32VW55x_RELEASE_V1.0.2/MSDK/cloud/alicloud/src/infra/system/facility\fac_string.c **** 
 115:C:/Users/stapi/OneDrive/Desktop/GD32VW553/V1_MQTT_OK/GD32VW55X_Wifi_BLE_SDK/GD32VW55x_RELEASE_V1.0.2/MSDK/cloud/alicloud/src/infra/system/facility\fac_string.c ****             case ',':
 116:C:/Users/stapi/OneDrive/Desktop/GD32VW553/V1_MQTT_OK/GD32VW55X_Wifi_BLE_SDK/GD32VW55x_RELEASE_V1.0.2/MSDK/cloud/alicloud/src/infra/system/facility\fac_string.c ****                 newstr[0] = ch;
 117:C:/Users/stapi/OneDrive/Desktop/GD32VW553/V1_MQTT_OK/GD32VW55X_Wifi_BLE_SDK/GD32VW55x_RELEASE_V1.0.2/MSDK/cloud/alicloud/src/infra/system/facility\fac_string.c ****                 JSON_PRINT_NEWSTR;
 118:C:/Users/stapi/OneDrive/Desktop/GD32VW553/V1_MQTT_OK/GD32VW55X_Wifi_BLE_SDK/GD32VW55x_RELEASE_V1.0.2/MSDK/cloud/alicloud/src/infra/system/facility\fac_string.c ****                 if (!quoted) {
 119:C:/Users/stapi/OneDrive/Desktop/GD32VW553/V1_MQTT_OK/GD32VW55X_Wifi_BLE_SDK/GD32VW55x_RELEASE_V1.0.2/MSDK/cloud/alicloud/src/infra/system/facility\fac_string.c ****                     JSON_PRINT_NEWLINE;
 120:C:/Users/stapi/OneDrive/Desktop/GD32VW553/V1_MQTT_OK/GD32VW55X_Wifi_BLE_SDK/GD32VW55x_RELEASE_V1.0.2/MSDK/cloud/alicloud/src/infra/system/facility\fac_string.c **** 
 121:C:/Users/stapi/OneDrive/Desktop/GD32VW553/V1_MQTT_OK/GD32VW55X_Wifi_BLE_SDK/GD32VW55x_RELEASE_V1.0.2/MSDK/cloud/alicloud/src/infra/system/facility\fac_string.c ****                     for (j = 0 ; j < indent ; j++) {
 122:C:/Users/stapi/OneDrive/Desktop/GD32VW553/V1_MQTT_OK/GD32VW55X_Wifi_BLE_SDK/GD32VW55x_RELEASE_V1.0.2/MSDK/cloud/alicloud/src/infra/system/facility\fac_string.c ****                         HAL_Printf("%s", JSON_INDENT);
 123:C:/Users/stapi/OneDrive/Desktop/GD32VW553/V1_MQTT_OK/GD32VW55X_Wifi_BLE_SDK/GD32VW55x_RELEASE_V1.0.2/MSDK/cloud/alicloud/src/infra/system/facility\fac_string.c ****                     }
 124:C:/Users/stapi/OneDrive/Desktop/GD32VW553/V1_MQTT_OK/GD32VW55X_Wifi_BLE_SDK/GD32VW55x_RELEASE_V1.0.2/MSDK/cloud/alicloud/src/infra/system/facility\fac_string.c ****                 }
 125:C:/Users/stapi/OneDrive/Desktop/GD32VW553/V1_MQTT_OK/GD32VW55X_Wifi_BLE_SDK/GD32VW55x_RELEASE_V1.0.2/MSDK/cloud/alicloud/src/infra/system/facility\fac_string.c **** 
 126:C:/Users/stapi/OneDrive/Desktop/GD32VW553/V1_MQTT_OK/GD32VW55X_Wifi_BLE_SDK/GD32VW55x_RELEASE_V1.0.2/MSDK/cloud/alicloud/src/infra/system/facility\fac_string.c ****                 break;
 127:C:/Users/stapi/OneDrive/Desktop/GD32VW553/V1_MQTT_OK/GD32VW55X_Wifi_BLE_SDK/GD32VW55x_RELEASE_V1.0.2/MSDK/cloud/alicloud/src/infra/system/facility\fac_string.c **** 
 128:C:/Users/stapi/OneDrive/Desktop/GD32VW553/V1_MQTT_OK/GD32VW55X_Wifi_BLE_SDK/GD32VW55x_RELEASE_V1.0.2/MSDK/cloud/alicloud/src/infra/system/facility\fac_string.c ****             case ':':
 129:C:/Users/stapi/OneDrive/Desktop/GD32VW553/V1_MQTT_OK/GD32VW55X_Wifi_BLE_SDK/GD32VW55x_RELEASE_V1.0.2/MSDK/cloud/alicloud/src/infra/system/facility\fac_string.c ****                 newstr[0] = ch;
 130:C:/Users/stapi/OneDrive/Desktop/GD32VW553/V1_MQTT_OK/GD32VW55X_Wifi_BLE_SDK/GD32VW55x_RELEASE_V1.0.2/MSDK/cloud/alicloud/src/infra/system/facility\fac_string.c ****                 JSON_PRINT_NEWSTR;
 131:C:/Users/stapi/OneDrive/Desktop/GD32VW553/V1_MQTT_OK/GD32VW55X_Wifi_BLE_SDK/GD32VW55x_RELEASE_V1.0.2/MSDK/cloud/alicloud/src/infra/system/facility\fac_string.c ****                 if (!quoted) {
 132:C:/Users/stapi/OneDrive/Desktop/GD32VW553/V1_MQTT_OK/GD32VW55X_Wifi_BLE_SDK/GD32VW55x_RELEASE_V1.0.2/MSDK/cloud/alicloud/src/infra/system/facility\fac_string.c ****                     HAL_Printf("%s", " ");
 133:C:/Users/stapi/OneDrive/Desktop/GD32VW553/V1_MQTT_OK/GD32VW55X_Wifi_BLE_SDK/GD32VW55x_RELEASE_V1.0.2/MSDK/cloud/alicloud/src/infra/system/facility\fac_string.c ****                 }
 134:C:/Users/stapi/OneDrive/Desktop/GD32VW553/V1_MQTT_OK/GD32VW55X_Wifi_BLE_SDK/GD32VW55x_RELEASE_V1.0.2/MSDK/cloud/alicloud/src/infra/system/facility\fac_string.c **** 
 135:C:/Users/stapi/OneDrive/Desktop/GD32VW553/V1_MQTT_OK/GD32VW55X_Wifi_BLE_SDK/GD32VW55x_RELEASE_V1.0.2/MSDK/cloud/alicloud/src/infra/system/facility\fac_string.c ****                 break;
 136:C:/Users/stapi/OneDrive/Desktop/GD32VW553/V1_MQTT_OK/GD32VW55X_Wifi_BLE_SDK/GD32VW55x_RELEASE_V1.0.2/MSDK/cloud/alicloud/src/infra/system/facility\fac_string.c **** 
 137:C:/Users/stapi/OneDrive/Desktop/GD32VW553/V1_MQTT_OK/GD32VW55X_Wifi_BLE_SDK/GD32VW55x_RELEASE_V1.0.2/MSDK/cloud/alicloud/src/infra/system/facility\fac_string.c ****             default:
 138:C:/Users/stapi/OneDrive/Desktop/GD32VW553/V1_MQTT_OK/GD32VW55X_Wifi_BLE_SDK/GD32VW55x_RELEASE_V1.0.2/MSDK/cloud/alicloud/src/infra/system/facility\fac_string.c ****                 newstr[0] = ch;
 139:C:/Users/stapi/OneDrive/Desktop/GD32VW553/V1_MQTT_OK/GD32VW55X_Wifi_BLE_SDK/GD32VW55x_RELEASE_V1.0.2/MSDK/cloud/alicloud/src/infra/system/facility\fac_string.c ****                 JSON_PRINT_NEWSTR;
 140:C:/Users/stapi/OneDrive/Desktop/GD32VW553/V1_MQTT_OK/GD32VW55X_Wifi_BLE_SDK/GD32VW55x_RELEASE_V1.0.2/MSDK/cloud/alicloud/src/infra/system/facility\fac_string.c **** 
 141:C:/Users/stapi/OneDrive/Desktop/GD32VW553/V1_MQTT_OK/GD32VW55X_Wifi_BLE_SDK/GD32VW55x_RELEASE_V1.0.2/MSDK/cloud/alicloud/src/infra/system/facility\fac_string.c ****                 break;
 142:C:/Users/stapi/OneDrive/Desktop/GD32VW553/V1_MQTT_OK/GD32VW55X_Wifi_BLE_SDK/GD32VW55x_RELEASE_V1.0.2/MSDK/cloud/alicloud/src/infra/system/facility\fac_string.c ****         }
 143:C:/Users/stapi/OneDrive/Desktop/GD32VW553/V1_MQTT_OK/GD32VW55X_Wifi_BLE_SDK/GD32VW55x_RELEASE_V1.0.2/MSDK/cloud/alicloud/src/infra/system/facility\fac_string.c ****     }
 144:C:/Users/stapi/OneDrive/Desktop/GD32VW553/V1_MQTT_OK/GD32VW55X_Wifi_BLE_SDK/GD32VW55x_RELEASE_V1.0.2/MSDK/cloud/alicloud/src/infra/system/facility\fac_string.c **** 
 145:C:/Users/stapi/OneDrive/Desktop/GD32VW553/V1_MQTT_OK/GD32VW55X_Wifi_BLE_SDK/GD32VW55x_RELEASE_V1.0.2/MSDK/cloud/alicloud/src/infra/system/facility\fac_string.c ****     HAL_Printf("%s", JSON_NEWLINE JSON_NEWLINE);
 146:C:/Users/stapi/OneDrive/Desktop/GD32VW553/V1_MQTT_OK/GD32VW55X_Wifi_BLE_SDK/GD32VW55x_RELEASE_V1.0.2/MSDK/cloud/alicloud/src/infra/system/facility\fac_string.c ****     HAL_Printf("%s", "\033[0m");
 147:C:/Users/stapi/OneDrive/Desktop/GD32VW553/V1_MQTT_OK/GD32VW55X_Wifi_BLE_SDK/GD32VW55x_RELEASE_V1.0.2/MSDK/cloud/alicloud/src/infra/system/facility\fac_string.c ****     return 0;
 148:C:/Users/stapi/OneDrive/Desktop/GD32VW553/V1_MQTT_OK/GD32VW55X_Wifi_BLE_SDK/GD32VW55x_RELEASE_V1.0.2/MSDK/cloud/alicloud/src/infra/system/facility\fac_string.c **** }
 139              		.loc 1 148 1
 140 0066 F650     		lw	ra,124(sp)
 141              		.cfi_remember_state
 142              		.cfi_restore 1
 143 0068 6654     		lw	s0,120(sp)
 144              		.cfi_restore 8
 145 006a D654     		lw	s1,116(sp)
 146              		.cfi_restore 9
 147 006c 4659     		lw	s2,112(sp)
 148              		.cfi_restore 18
 149 006e 265A     		lw	s4,104(sp)
 150              		.cfi_restore 20
 151 0070 965A     		lw	s5,100(sp)
 152              		.cfi_restore 21
 153 0072 065B     		lw	s6,96(sp)
 154              		.cfi_restore 22
 155 0074 F64B     		lw	s7,92(sp)
 156              		.cfi_restore 23
 157 0076 664C     		lw	s8,88(sp)
 158              		.cfi_restore 24
 159 0078 D64C     		lw	s9,84(sp)
 160              		.cfi_restore 25
 161 007a 464D     		lw	s10,80(sp)
 162              		.cfi_restore 26
 163 007c B64D     		lw	s11,76(sp)
 164              		.cfi_restore 27
 165 007e 4E85     		mv	a0,s3
 166 0080 B659     		lw	s3,108(sp)
 167              		.cfi_restore 19
 168 0082 0D61     		addi	sp,sp,160
 169              		.cfi_def_cfa_offset 0
 170 0084 8280     		jr	ra
 171              	.LVL8:
 172              	.L3:
 173              		.cfi_restore_state
  45:C:/Users/stapi/OneDrive/Desktop/GD32VW553/V1_MQTT_OK/GD32VW55X_Wifi_BLE_SDK/GD32VW55x_RELEASE_V1.0.2/MSDK/cloud/alicloud/src/infra/system/facility\fac_string.c ****         return -2;
 174              		.loc 1 45 35 discriminator 1
 175 0086 0810     		addi	a0,sp,32
 176              	.LVL9:
 177 0088 97000000 		call	lite_cjson_is_object
 177      E7800000 
 178              	.LVL10:
  45:C:/Users/stapi/OneDrive/Desktop/GD32VW553/V1_MQTT_OK/GD32VW55X_Wifi_BLE_SDK/GD32VW55x_RELEASE_V1.0.2/MSDK/cloud/alicloud/src/infra/system/facility\fac_string.c ****         return -2;
 179              		.loc 1 45 31 discriminator 1
 180 0090 71D9     		beq	a0,zero,.L4
  49:C:/Users/stapi/OneDrive/Desktop/GD32VW553/V1_MQTT_OK/GD32VW55X_Wifi_BLE_SDK/GD32VW55x_RELEASE_V1.0.2/MSDK/cloud/alicloud/src/infra/system/facility\fac_string.c ****     HAL_Printf("%s%s", "\033", lvl_color[level]);
 181              		.loc 1 49 5 is_stmt 1
  49:C:/Users/stapi/OneDrive/Desktop/GD32VW553/V1_MQTT_OK/GD32VW55X_Wifi_BLE_SDK/GD32VW55x_RELEASE_V1.0.2/MSDK/cloud/alicloud/src/infra/system/facility\fac_string.c ****     HAL_Printf("%s%s", "\033", lvl_color[level]);
 182              		.loc 1 49 14 is_stmt 0
 183 0092 2685     		mv	a0,s1
 184 0094 97000000 		call	strlen
 184      E7800000 
 185              	.LVL11:
  50:C:/Users/stapi/OneDrive/Desktop/GD32VW553/V1_MQTT_OK/GD32VW55X_Wifi_BLE_SDK/GD32VW55x_RELEASE_V1.0.2/MSDK/cloud/alicloud/src/infra/system/facility\fac_string.c ****     va_start(ap, level);
 186              		.loc 1 50 5
 187 009c B7050000 		lui	a1,%hi(lvl_color)
 188 00a0 93850500 		addi	a1,a1,%lo(lvl_color)
 189 00a4 3344B420 		sh2add	s0,s0,a1
 190              	.LVL12:
 191 00a8 1040     		lw	a2,0(s0)
  49:C:/Users/stapi/OneDrive/Desktop/GD32VW553/V1_MQTT_OK/GD32VW55X_Wifi_BLE_SDK/GD32VW55x_RELEASE_V1.0.2/MSDK/cloud/alicloud/src/infra/system/facility\fac_string.c ****     HAL_Printf("%s%s", "\033", lvl_color[level]);
 192              		.loc 1 49 14
 193 00aa 2AC4     		sw	a0,8(sp)
 194              	.LVL13:
  50:C:/Users/stapi/OneDrive/Desktop/GD32VW553/V1_MQTT_OK/GD32VW55X_Wifi_BLE_SDK/GD32VW55x_RELEASE_V1.0.2/MSDK/cloud/alicloud/src/infra/system/facility\fac_string.c ****     va_start(ap, level);
 195              		.loc 1 50 5 is_stmt 1
 196 00ac B7050000 		lui	a1,%hi(.LC0)
 197 00b0 37050000 		lui	a0,%hi(.LC1)
 198              	.LVL14:
 199 00b4 93850500 		addi	a1,a1,%lo(.LC0)
 200 00b8 13050500 		addi	a0,a0,%lo(.LC1)
 201 00bc 97000000 		call	HAL_Printf
 201      E7800000 
 202              	.LVL15:
  51:C:/Users/stapi/OneDrive/Desktop/GD32VW553/V1_MQTT_OK/GD32VW55X_Wifi_BLE_SDK/GD32VW55x_RELEASE_V1.0.2/MSDK/cloud/alicloud/src/infra/system/facility\fac_string.c ****     mark = va_arg(ap, int);
 203              		.loc 1 51 5
  53:C:/Users/stapi/OneDrive/Desktop/GD32VW553/V1_MQTT_OK/GD32VW55X_Wifi_BLE_SDK/GD32VW55x_RELEASE_V1.0.2/MSDK/cloud/alicloud/src/infra/system/facility\fac_string.c ****     va_end(ap);
 204              		.loc 1 53 5 is_stmt 0
 205 00c4 370A0000 		lui	s4,%hi(.LC2)
 206 00c8 37040000 		lui	s0,%hi(.LC3)
  51:C:/Users/stapi/OneDrive/Desktop/GD32VW553/V1_MQTT_OK/GD32VW55X_Wifi_BLE_SDK/GD32VW55x_RELEASE_V1.0.2/MSDK/cloud/alicloud/src/infra/system/facility\fac_string.c ****     mark = va_arg(ap, int);
 207              		.loc 1 51 5
 208 00cc 3C01     		addi	a5,sp,136
  52:C:/Users/stapi/OneDrive/Desktop/GD32VW553/V1_MQTT_OK/GD32VW55X_Wifi_BLE_SDK/GD32VW55x_RELEASE_V1.0.2/MSDK/cloud/alicloud/src/infra/system/facility\fac_string.c ****     JSON_PRINT_NEWLINE;
 209              		.loc 1 52 10
 210 00ce 2A49     		lw	s2,136(sp)
  53:C:/Users/stapi/OneDrive/Desktop/GD32VW553/V1_MQTT_OK/GD32VW55X_Wifi_BLE_SDK/GD32VW55x_RELEASE_V1.0.2/MSDK/cloud/alicloud/src/infra/system/facility\fac_string.c ****     va_end(ap);
 211              		.loc 1 53 5
 212 00d0 93050A00 		addi	a1,s4,%lo(.LC2)
 213 00d4 13050400 		addi	a0,s0,%lo(.LC3)
  51:C:/Users/stapi/OneDrive/Desktop/GD32VW553/V1_MQTT_OK/GD32VW55X_Wifi_BLE_SDK/GD32VW55x_RELEASE_V1.0.2/MSDK/cloud/alicloud/src/infra/system/facility\fac_string.c ****     mark = va_arg(ap, int);
 214              		.loc 1 51 5
 215 00d8 3ECE     		sw	a5,28(sp)
  52:C:/Users/stapi/OneDrive/Desktop/GD32VW553/V1_MQTT_OK/GD32VW55X_Wifi_BLE_SDK/GD32VW55x_RELEASE_V1.0.2/MSDK/cloud/alicloud/src/infra/system/facility\fac_string.c ****     JSON_PRINT_NEWLINE;
 216              		.loc 1 52 5 is_stmt 1
 217              	.LVL16:
  53:C:/Users/stapi/OneDrive/Desktop/GD32VW553/V1_MQTT_OK/GD32VW55X_Wifi_BLE_SDK/GD32VW55x_RELEASE_V1.0.2/MSDK/cloud/alicloud/src/infra/system/facility\fac_string.c ****     va_end(ap);
 218              		.loc 1 53 5
  53:C:/Users/stapi/OneDrive/Desktop/GD32VW553/V1_MQTT_OK/GD32VW55X_Wifi_BLE_SDK/GD32VW55x_RELEASE_V1.0.2/MSDK/cloud/alicloud/src/infra/system/facility\fac_string.c ****     va_end(ap);
 219              		.loc 1 53 5
 220 00da 97000000 		call	HAL_Printf
 220      E7800000 
 221              	.LVL17:
  53:C:/Users/stapi/OneDrive/Desktop/GD32VW553/V1_MQTT_OK/GD32VW55X_Wifi_BLE_SDK/GD32VW55x_RELEASE_V1.0.2/MSDK/cloud/alicloud/src/infra/system/facility\fac_string.c ****     va_end(ap);
 222              		.loc 1 53 5
 223 00e2 9307C003 		li	a5,60
 224 00e6 52C2     		sw	s4,4(sp)
 225 00e8 6308F900 		beq	s2,a5,.L5
  53:C:/Users/stapi/OneDrive/Desktop/GD32VW553/V1_MQTT_OK/GD32VW55X_Wifi_BLE_SDK/GD32VW55x_RELEASE_V1.0.2/MSDK/cloud/alicloud/src/infra/system/facility\fac_string.c ****     va_end(ap);
 226              		.loc 1 53 5 is_stmt 0 discriminator 4
 227 00ec 9377B9FF 		andi	a5,s2,-5
 228 00f0 1307A003 		li	a4,58
 229 00f4 639BE700 		bne	a5,a4,.L6
 230              	.L5:
  53:C:/Users/stapi/OneDrive/Desktop/GD32VW553/V1_MQTT_OK/GD32VW55X_Wifi_BLE_SDK/GD32VW55x_RELEASE_V1.0.2/MSDK/cloud/alicloud/src/infra/system/facility\fac_string.c ****     va_end(ap);
 231              		.loc 1 53 5 is_stmt 1 discriminator 5
 232 00f8 37050000 		lui	a0,%hi(.LC4)
 233 00fc CA85     		mv	a1,s2
 234 00fe 13050500 		addi	a0,a0,%lo(.LC4)
 235 0102 97000000 		call	HAL_Printf
 235      E7800000 
 236              	.LVL18:
 237              	.L6:
  53:C:/Users/stapi/OneDrive/Desktop/GD32VW553/V1_MQTT_OK/GD32VW55X_Wifi_BLE_SDK/GD32VW55x_RELEASE_V1.0.2/MSDK/cloud/alicloud/src/infra/system/facility\fac_string.c ****     va_end(ap);
 238              		.loc 1 53 5 discriminator 7
  54:C:/Users/stapi/OneDrive/Desktop/GD32VW553/V1_MQTT_OK/GD32VW55X_Wifi_BLE_SDK/GD32VW55x_RELEASE_V1.0.2/MSDK/cloud/alicloud/src/infra/system/facility\fac_string.c **** 
 239              		.loc 1 54 5 discriminator 7
  56:C:/Users/stapi/OneDrive/Desktop/GD32VW553/V1_MQTT_OK/GD32VW55X_Wifi_BLE_SDK/GD32VW55x_RELEASE_V1.0.2/MSDK/cloud/alicloud/src/infra/system/facility\fac_string.c ****         char ch = str[i];
 240              		.loc 1 56 5 discriminator 7
  56:C:/Users/stapi/OneDrive/Desktop/GD32VW553/V1_MQTT_OK/GD32VW55X_Wifi_BLE_SDK/GD32VW55x_RELEASE_V1.0.2/MSDK/cloud/alicloud/src/infra/system/facility\fac_string.c ****         char ch = str[i];
 241              		.loc 1 56 12 is_stmt 0 discriminator 7
 242 010a 814B     		li	s7,0
  25:C:/Users/stapi/OneDrive/Desktop/GD32VW553/V1_MQTT_OK/GD32VW55X_Wifi_BLE_SDK/GD32VW55x_RELEASE_V1.0.2/MSDK/cloud/alicloud/src/infra/system/facility\fac_string.c ****     int             i = 0, j = 0;
 243              		.loc 1 25 21 discriminator 7
 244 010c 014A     		li	s4,0
  23:C:/Users/stapi/OneDrive/Desktop/GD32VW553/V1_MQTT_OK/GD32VW55X_Wifi_BLE_SDK/GD32VW55x_RELEASE_V1.0.2/MSDK/cloud/alicloud/src/infra/system/facility\fac_string.c ****     int             escaped = 0;
 245              		.loc 1 23 21 discriminator 7
 246 010e 814A     		li	s5,0
 247              	.LBB2:
  58:C:/Users/stapi/OneDrive/Desktop/GD32VW553/V1_MQTT_OK/GD32VW55X_Wifi_BLE_SDK/GD32VW55x_RELEASE_V1.0.2/MSDK/cloud/alicloud/src/infra/system/facility\fac_string.c ****             case '{':
 248              		.loc 1 58 9 discriminator 7
 249 0110 130BA003 		li	s6,58
  71:C:/Users/stapi/OneDrive/Desktop/GD32VW553/V1_MQTT_OK/GD32VW55X_Wifi_BLE_SDK/GD32VW55x_RELEASE_V1.0.2/MSDK/cloud/alicloud/src/infra/system/facility\fac_string.c ****                         }
 250              		.loc 1 71 29 discriminator 7
 251 0114 370C0000 		lui	s8,%hi(.LC5)
  65:C:/Users/stapi/OneDrive/Desktop/GD32VW553/V1_MQTT_OK/GD32VW55X_Wifi_BLE_SDK/GD32VW55x_RELEASE_V1.0.2/MSDK/cloud/alicloud/src/infra/system/facility\fac_string.c **** 
 252              		.loc 1 65 21 discriminator 7
 253 0118 370D0000 		lui	s10,%hi(.LC4)
 254 011c 937DB9FF 		andi	s11,s2,-5
 255              	.LVL19:
 256              	.L7:
 257              	.LBE2:
  56:C:/Users/stapi/OneDrive/Desktop/GD32VW553/V1_MQTT_OK/GD32VW55X_Wifi_BLE_SDK/GD32VW55x_RELEASE_V1.0.2/MSDK/cloud/alicloud/src/infra/system/facility\fac_string.c ****         char ch = str[i];
 258              		.loc 1 56 18 is_stmt 1 discriminator 1
  56:C:/Users/stapi/OneDrive/Desktop/GD32VW553/V1_MQTT_OK/GD32VW55X_Wifi_BLE_SDK/GD32VW55x_RELEASE_V1.0.2/MSDK/cloud/alicloud/src/infra/system/facility\fac_string.c ****         char ch = str[i];
 259              		.loc 1 56 5 is_stmt 0 discriminator 1
 260 0120 A247     		lw	a5,8(sp)
 261 0122 63C7FB02 		blt	s7,a5,.L35
 145:C:/Users/stapi/OneDrive/Desktop/GD32VW553/V1_MQTT_OK/GD32VW55X_Wifi_BLE_SDK/GD32VW55x_RELEASE_V1.0.2/MSDK/cloud/alicloud/src/infra/system/facility\fac_string.c ****     HAL_Printf("%s", "\033[0m");
 262              		.loc 1 145 5 is_stmt 1
 263 0126 B7050000 		lui	a1,%hi(.LC7)
 264 012a 13050400 		addi	a0,s0,%lo(.LC3)
 265 012e 93850500 		addi	a1,a1,%lo(.LC7)
 266 0132 97000000 		call	HAL_Printf
 266      E7800000 
 267              	.LVL20:
 146:C:/Users/stapi/OneDrive/Desktop/GD32VW553/V1_MQTT_OK/GD32VW55X_Wifi_BLE_SDK/GD32VW55x_RELEASE_V1.0.2/MSDK/cloud/alicloud/src/infra/system/facility\fac_string.c ****     return 0;
 268              		.loc 1 146 5
 269 013a B7050000 		lui	a1,%hi(.LC8)
 270 013e 93850500 		addi	a1,a1,%lo(.LC8)
 271 0142 13050400 		addi	a0,s0,%lo(.LC3)
 272 0146 97000000 		call	HAL_Printf
 272      E7800000 
 273              	.LVL21:
 147:C:/Users/stapi/OneDrive/Desktop/GD32VW553/V1_MQTT_OK/GD32VW55X_Wifi_BLE_SDK/GD32VW55x_RELEASE_V1.0.2/MSDK/cloud/alicloud/src/infra/system/facility\fac_string.c **** }
 274              		.loc 1 147 5
 147:C:/Users/stapi/OneDrive/Desktop/GD32VW553/V1_MQTT_OK/GD32VW55X_Wifi_BLE_SDK/GD32VW55x_RELEASE_V1.0.2/MSDK/cloud/alicloud/src/infra/system/facility\fac_string.c **** }
 275              		.loc 1 147 12 is_stmt 0
 276 014e 21BF     		j	.L1
 277              	.L35:
 278              	.LBB3:
  57:C:/Users/stapi/OneDrive/Desktop/GD32VW553/V1_MQTT_OK/GD32VW55X_Wifi_BLE_SDK/GD32VW55x_RELEASE_V1.0.2/MSDK/cloud/alicloud/src/infra/system/facility\fac_string.c ****         switch (ch) {
 279              		.loc 1 57 9 is_stmt 1
  57:C:/Users/stapi/OneDrive/Desktop/GD32VW553/V1_MQTT_OK/GD32VW55X_Wifi_BLE_SDK/GD32VW55x_RELEASE_V1.0.2/MSDK/cloud/alicloud/src/infra/system/facility\fac_string.c ****         switch (ch) {
 280              		.loc 1 57 14 is_stmt 0
 281 0150 838C0400 		lb	s9,0(s1)
 282              	.LVL22:
  58:C:/Users/stapi/OneDrive/Desktop/GD32VW553/V1_MQTT_OK/GD32VW55X_Wifi_BLE_SDK/GD32VW55x_RELEASE_V1.0.2/MSDK/cloud/alicloud/src/infra/system/facility\fac_string.c ****             case '{':
 283              		.loc 1 58 9 is_stmt 1
 284 0154 638B6C1D 		beq	s9,s6,.L8
 285 0158 634E9B01 		bgt	s9,s6,.L9
 286 015c 13072002 		li	a4,34
 287 0160 6383EC14 		beq	s9,a4,.L10
 288 0164 1307C002 		li	a4,44
 289 0168 6383EC16 		beq	s9,a4,.L11
 290              	.L12:
 138:C:/Users/stapi/OneDrive/Desktop/GD32VW553/V1_MQTT_OK/GD32VW55X_Wifi_BLE_SDK/GD32VW55x_RELEASE_V1.0.2/MSDK/cloud/alicloud/src/infra/system/facility\fac_string.c ****                 JSON_PRINT_NEWSTR;
 291              		.loc 1 138 17
 138:C:/Users/stapi/OneDrive/Desktop/GD32VW553/V1_MQTT_OK/GD32VW55X_Wifi_BLE_SDK/GD32VW55x_RELEASE_V1.0.2/MSDK/cloud/alicloud/src/infra/system/facility\fac_string.c ****                 JSON_PRINT_NEWSTR;
 292              		.loc 1 138 27 is_stmt 0
 293 016c 230C9101 		sb	s9,24(sp)
 139:C:/Users/stapi/OneDrive/Desktop/GD32VW553/V1_MQTT_OK/GD32VW55X_Wifi_BLE_SDK/GD32VW55x_RELEASE_V1.0.2/MSDK/cloud/alicloud/src/infra/system/facility\fac_string.c **** 
 294              		.loc 1 139 17 is_stmt 1
 295 0170 2C08     		addi	a1,sp,24
 296 0172 D9AA     		j	.L53
 297              	.L9:
  58:C:/Users/stapi/OneDrive/Desktop/GD32VW553/V1_MQTT_OK/GD32VW55X_Wifi_BLE_SDK/GD32VW55x_RELEASE_V1.0.2/MSDK/cloud/alicloud/src/infra/system/facility\fac_string.c ****             case '{':
 298              		.loc 1 58 9 is_stmt 0
 299 0174 9307B007 		li	a5,123
 300 0178 6380FC08 		beq	s9,a5,.L13
 301 017c 1307D007 		li	a4,125
 302 0180 63C89701 		bgt	s9,a5,.L52
 303 0184 1307B005 		li	a4,91
 304 0188 6388EC06 		beq	s9,a4,.L13
 305 018c 1307D005 		li	a4,93
 306              	.L52:
 307 0190 E39EECFC 		bne	s9,a4,.L12
  80:C:/Users/stapi/OneDrive/Desktop/GD32VW553/V1_MQTT_OK/GD32VW55X_Wifi_BLE_SDK/GD32VW55x_RELEASE_V1.0.2/MSDK/cloud/alicloud/src/infra/system/facility\fac_string.c ****                     if ((i > 0) && (!(str[i - 1] == '{' || str[i - 1] == '['))) {
 308              		.loc 1 80 17 is_stmt 1
  80:C:/Users/stapi/OneDrive/Desktop/GD32VW553/V1_MQTT_OK/GD32VW55X_Wifi_BLE_SDK/GD32VW55x_RELEASE_V1.0.2/MSDK/cloud/alicloud/src/infra/system/facility\fac_string.c ****                     if ((i > 0) && (!(str[i - 1] == '{' || str[i - 1] == '['))) {
 309              		.loc 1 80 20 is_stmt 0
 310 0194 E39C0AFC 		bne	s5,zero,.L12
  81:C:/Users/stapi/OneDrive/Desktop/GD32VW553/V1_MQTT_OK/GD32VW55X_Wifi_BLE_SDK/GD32VW55x_RELEASE_V1.0.2/MSDK/cloud/alicloud/src/infra/system/facility\fac_string.c ****                         JSON_PRINT_NEWLINE;
 311              		.loc 1 81 21 is_stmt 1
  81:C:/Users/stapi/OneDrive/Desktop/GD32VW553/V1_MQTT_OK/GD32VW55X_Wifi_BLE_SDK/GD32VW55x_RELEASE_V1.0.2/MSDK/cloud/alicloud/src/infra/system/facility\fac_string.c ****                         JSON_PRINT_NEWLINE;
 312              		.loc 1 81 24 is_stmt 0
 313 0198 E38A0BFC 		beq	s7,zero,.L12
  81:C:/Users/stapi/OneDrive/Desktop/GD32VW553/V1_MQTT_OK/GD32VW55X_Wifi_BLE_SDK/GD32VW55x_RELEASE_V1.0.2/MSDK/cloud/alicloud/src/infra/system/facility\fac_string.c ****                         JSON_PRINT_NEWLINE;
 314              		.loc 1 81 42 discriminator 1
 315 019c 0387F4FF 		lb	a4,-1(s1)
  81:C:/Users/stapi/OneDrive/Desktop/GD32VW553/V1_MQTT_OK/GD32VW55X_Wifi_BLE_SDK/GD32VW55x_RELEASE_V1.0.2/MSDK/cloud/alicloud/src/infra/system/facility\fac_string.c ****                         JSON_PRINT_NEWLINE;
 316              		.loc 1 81 37 discriminator 1
 317 01a0 1306B005 		li	a2,91
 318 01a4 9376F7FD 		andi	a3,a4,-33
 319 01a8 6382C60C 		beq	a3,a2,.L22
  82:C:/Users/stapi/OneDrive/Desktop/GD32VW553/V1_MQTT_OK/GD32VW55X_Wifi_BLE_SDK/GD32VW55x_RELEASE_V1.0.2/MSDK/cloud/alicloud/src/infra/system/facility\fac_string.c ****                         --indent;
 320              		.loc 1 82 25 is_stmt 1
  82:C:/Users/stapi/OneDrive/Desktop/GD32VW553/V1_MQTT_OK/GD32VW55X_Wifi_BLE_SDK/GD32VW55x_RELEASE_V1.0.2/MSDK/cloud/alicloud/src/infra/system/facility\fac_string.c ****                         --indent;
 321              		.loc 1 82 25
 322 01ac 9247     		lw	a5,4(sp)
 323 01ae 13050400 		addi	a0,s0,%lo(.LC3)
 324 01b2 93850700 		addi	a1,a5,%lo(.LC2)
 325 01b6 97000000 		call	HAL_Printf
 325      E7800000 
 326              	.LVL23:
  82:C:/Users/stapi/OneDrive/Desktop/GD32VW553/V1_MQTT_OK/GD32VW55X_Wifi_BLE_SDK/GD32VW55x_RELEASE_V1.0.2/MSDK/cloud/alicloud/src/infra/system/facility\fac_string.c ****                         --indent;
 327              		.loc 1 82 25
 328 01be 1307C003 		li	a4,60
 329 01c2 6304E900 		beq	s2,a4,.L23
  82:C:/Users/stapi/OneDrive/Desktop/GD32VW553/V1_MQTT_OK/GD32VW55X_Wifi_BLE_SDK/GD32VW55x_RELEASE_V1.0.2/MSDK/cloud/alicloud/src/infra/system/facility\fac_string.c ****                         --indent;
 330              		.loc 1 82 25 is_stmt 0 discriminator 4
 331 01c6 63996D01 		bne	s11,s6,.L24
 332              	.L23:
  82:C:/Users/stapi/OneDrive/Desktop/GD32VW553/V1_MQTT_OK/GD32VW55X_Wifi_BLE_SDK/GD32VW55x_RELEASE_V1.0.2/MSDK/cloud/alicloud/src/infra/system/facility\fac_string.c ****                         --indent;
 333              		.loc 1 82 25 is_stmt 1 discriminator 5
 334 01ca CA85     		mv	a1,s2
 335 01cc 13050D00 		addi	a0,s10,%lo(.LC4)
 336 01d0 97000000 		call	HAL_Printf
 336      E7800000 
 337              	.LVL24:
 338              	.L24:
  82:C:/Users/stapi/OneDrive/Desktop/GD32VW553/V1_MQTT_OK/GD32VW55X_Wifi_BLE_SDK/GD32VW55x_RELEASE_V1.0.2/MSDK/cloud/alicloud/src/infra/system/facility\fac_string.c ****                         --indent;
 339              		.loc 1 82 25 discriminator 7
  83:C:/Users/stapi/OneDrive/Desktop/GD32VW553/V1_MQTT_OK/GD32VW55X_Wifi_BLE_SDK/GD32VW55x_RELEASE_V1.0.2/MSDK/cloud/alicloud/src/infra/system/facility\fac_string.c **** 
 340              		.loc 1 83 25 discriminator 7
 341 01d8 7D1A     		addi	s4,s4,-1
 342              	.LVL25:
  85:C:/Users/stapi/OneDrive/Desktop/GD32VW553/V1_MQTT_OK/GD32VW55X_Wifi_BLE_SDK/GD32VW55x_RELEASE_V1.0.2/MSDK/cloud/alicloud/src/infra/system/facility\fac_string.c ****                             HAL_Printf("%s", JSON_INDENT);
 343              		.loc 1 85 25 discriminator 7
  85:C:/Users/stapi/OneDrive/Desktop/GD32VW553/V1_MQTT_OK/GD32VW55X_Wifi_BLE_SDK/GD32VW55x_RELEASE_V1.0.2/MSDK/cloud/alicloud/src/infra/system/facility\fac_string.c ****                             HAL_Printf("%s", JSON_INDENT);
 344              		.loc 1 85 32 is_stmt 0 discriminator 7
 345 01da 0147     		li	a4,0
 346              	.LVL26:
 347              	.L25:
  85:C:/Users/stapi/OneDrive/Desktop/GD32VW553/V1_MQTT_OK/GD32VW55X_Wifi_BLE_SDK/GD32VW55x_RELEASE_V1.0.2/MSDK/cloud/alicloud/src/infra/system/facility\fac_string.c ****                             HAL_Printf("%s", JSON_INDENT);
 348              		.loc 1 85 38 is_stmt 1 discriminator 1
  85:C:/Users/stapi/OneDrive/Desktop/GD32VW553/V1_MQTT_OK/GD32VW55X_Wifi_BLE_SDK/GD32VW55x_RELEASE_V1.0.2/MSDK/cloud/alicloud/src/infra/system/facility\fac_string.c ****                             HAL_Printf("%s", JSON_INDENT);
 349              		.loc 1 85 25 is_stmt 0 discriminator 1
 350 01dc E35847F9 		bge	a4,s4,.L12
  86:C:/Users/stapi/OneDrive/Desktop/GD32VW553/V1_MQTT_OK/GD32VW55X_Wifi_BLE_SDK/GD32VW55x_RELEASE_V1.0.2/MSDK/cloud/alicloud/src/infra/system/facility\fac_string.c ****                         }
 351              		.loc 1 86 29 discriminator 3
 352 01e0 93050C00 		addi	a1,s8,%lo(.LC5)
 353 01e4 13050400 		addi	a0,s0,%lo(.LC3)
 354 01e8 3AC6     		sw	a4,12(sp)
  86:C:/Users/stapi/OneDrive/Desktop/GD32VW553/V1_MQTT_OK/GD32VW55X_Wifi_BLE_SDK/GD32VW55x_RELEASE_V1.0.2/MSDK/cloud/alicloud/src/infra/system/facility\fac_string.c ****                         }
 355              		.loc 1 86 29 is_stmt 1 discriminator 3
 356 01ea 97000000 		call	HAL_Printf
 356      E7800000 
 357              	.LVL27:
  85:C:/Users/stapi/OneDrive/Desktop/GD32VW553/V1_MQTT_OK/GD32VW55X_Wifi_BLE_SDK/GD32VW55x_RELEASE_V1.0.2/MSDK/cloud/alicloud/src/infra/system/facility\fac_string.c ****                             HAL_Printf("%s", JSON_INDENT);
 358              		.loc 1 85 51 discriminator 3
  85:C:/Users/stapi/OneDrive/Desktop/GD32VW553/V1_MQTT_OK/GD32VW55X_Wifi_BLE_SDK/GD32VW55x_RELEASE_V1.0.2/MSDK/cloud/alicloud/src/infra/system/facility\fac_string.c ****                             HAL_Printf("%s", JSON_INDENT);
 359              		.loc 1 85 52 is_stmt 0 discriminator 3
 360 01f2 3247     		lw	a4,12(sp)
 361 01f4 0507     		addi	a4,a4,1
 362              	.LVL28:
 363 01f6 DDB7     		j	.L25
 364              	.LVL29:
 365              	.L13:
  61:C:/Users/stapi/OneDrive/Desktop/GD32VW553/V1_MQTT_OK/GD32VW55X_Wifi_BLE_SDK/GD32VW55x_RELEASE_V1.0.2/MSDK/cloud/alicloud/src/infra/system/facility\fac_string.c ****                 JSON_PRINT_NEWSTR;
 366              		.loc 1 61 17 is_stmt 1
  62:C:/Users/stapi/OneDrive/Desktop/GD32VW553/V1_MQTT_OK/GD32VW55X_Wifi_BLE_SDK/GD32VW55x_RELEASE_V1.0.2/MSDK/cloud/alicloud/src/infra/system/facility\fac_string.c **** 
 367              		.loc 1 62 17 is_stmt 0
 368 01f8 2C08     		addi	a1,sp,24
 369 01fa 13050400 		addi	a0,s0,%lo(.LC3)
  61:C:/Users/stapi/OneDrive/Desktop/GD32VW553/V1_MQTT_OK/GD32VW55X_Wifi_BLE_SDK/GD32VW55x_RELEASE_V1.0.2/MSDK/cloud/alicloud/src/infra/system/facility\fac_string.c ****                 JSON_PRINT_NEWSTR;
 370              		.loc 1 61 27
 371 01fe 230C9101 		sb	s9,24(sp)
  62:C:/Users/stapi/OneDrive/Desktop/GD32VW553/V1_MQTT_OK/GD32VW55X_Wifi_BLE_SDK/GD32VW55x_RELEASE_V1.0.2/MSDK/cloud/alicloud/src/infra/system/facility\fac_string.c **** 
 372              		.loc 1 62 17 is_stmt 1
 373 0202 97000000 		call	HAL_Printf
 373      E7800000 
 374              	.LVL30:
  62:C:/Users/stapi/OneDrive/Desktop/GD32VW553/V1_MQTT_OK/GD32VW55X_Wifi_BLE_SDK/GD32VW55x_RELEASE_V1.0.2/MSDK/cloud/alicloud/src/infra/system/facility\fac_string.c **** 
 375              		.loc 1 62 34
  64:C:/Users/stapi/OneDrive/Desktop/GD32VW553/V1_MQTT_OK/GD32VW55X_Wifi_BLE_SDK/GD32VW55x_RELEASE_V1.0.2/MSDK/cloud/alicloud/src/infra/system/facility\fac_string.c ****                     JSON_PRINT_NEWLINE;
 376              		.loc 1 64 17
  64:C:/Users/stapi/OneDrive/Desktop/GD32VW553/V1_MQTT_OK/GD32VW55X_Wifi_BLE_SDK/GD32VW55x_RELEASE_V1.0.2/MSDK/cloud/alicloud/src/infra/system/facility\fac_string.c ****                     JSON_PRINT_NEWLINE;
 377              		.loc 1 64 20 is_stmt 0
 378 020a 63940A04 		bne	s5,zero,.L16
  65:C:/Users/stapi/OneDrive/Desktop/GD32VW553/V1_MQTT_OK/GD32VW55X_Wifi_BLE_SDK/GD32VW55x_RELEASE_V1.0.2/MSDK/cloud/alicloud/src/infra/system/facility\fac_string.c **** 
 379              		.loc 1 65 21 is_stmt 1
  65:C:/Users/stapi/OneDrive/Desktop/GD32VW553/V1_MQTT_OK/GD32VW55X_Wifi_BLE_SDK/GD32VW55x_RELEASE_V1.0.2/MSDK/cloud/alicloud/src/infra/system/facility\fac_string.c **** 
 380              		.loc 1 65 21
 381 020e 9247     		lw	a5,4(sp)
 382 0210 13050400 		addi	a0,s0,%lo(.LC3)
 383 0214 93850700 		addi	a1,a5,%lo(.LC2)
 384 0218 97000000 		call	HAL_Printf
 384      E7800000 
 385              	.LVL31:
  65:C:/Users/stapi/OneDrive/Desktop/GD32VW553/V1_MQTT_OK/GD32VW55X_Wifi_BLE_SDK/GD32VW55x_RELEASE_V1.0.2/MSDK/cloud/alicloud/src/infra/system/facility\fac_string.c **** 
 386              		.loc 1 65 21
 387 0220 9307C003 		li	a5,60
 388 0224 6304F900 		beq	s2,a5,.L17
  65:C:/Users/stapi/OneDrive/Desktop/GD32VW553/V1_MQTT_OK/GD32VW55X_Wifi_BLE_SDK/GD32VW55x_RELEASE_V1.0.2/MSDK/cloud/alicloud/src/infra/system/facility\fac_string.c **** 
 389              		.loc 1 65 21 is_stmt 0 discriminator 4
 390 0228 63996D01 		bne	s11,s6,.L18
 391              	.L17:
  65:C:/Users/stapi/OneDrive/Desktop/GD32VW553/V1_MQTT_OK/GD32VW55X_Wifi_BLE_SDK/GD32VW55x_RELEASE_V1.0.2/MSDK/cloud/alicloud/src/infra/system/facility\fac_string.c **** 
 392              		.loc 1 65 21 is_stmt 1 discriminator 5
 393 022c CA85     		mv	a1,s2
 394 022e 13050D00 		addi	a0,s10,%lo(.LC4)
 395 0232 97000000 		call	HAL_Printf
 395      E7800000 
 396              	.LVL32:
 397              	.L18:
  65:C:/Users/stapi/OneDrive/Desktop/GD32VW553/V1_MQTT_OK/GD32VW55X_Wifi_BLE_SDK/GD32VW55x_RELEASE_V1.0.2/MSDK/cloud/alicloud/src/infra/system/facility\fac_string.c **** 
 398              		.loc 1 65 21 discriminator 7
  67:C:/Users/stapi/OneDrive/Desktop/GD32VW553/V1_MQTT_OK/GD32VW55X_Wifi_BLE_SDK/GD32VW55x_RELEASE_V1.0.2/MSDK/cloud/alicloud/src/infra/system/facility\fac_string.c ****                         ++indent;
 399              		.loc 1 67 21 discriminator 7
  67:C:/Users/stapi/OneDrive/Desktop/GD32VW553/V1_MQTT_OK/GD32VW55X_Wifi_BLE_SDK/GD32VW55x_RELEASE_V1.0.2/MSDK/cloud/alicloud/src/infra/system/facility\fac_string.c ****                         ++indent;
 400              		.loc 1 67 25 is_stmt 0 discriminator 7
 401 023a 83871400 		lb	a5,1(s1)
 402 023e 1307D005 		li	a4,93
 403 0242 93F7F7FD 		andi	a5,a5,-33
 404 0246 6386E700 		beq	a5,a4,.L16
  68:C:/Users/stapi/OneDrive/Desktop/GD32VW553/V1_MQTT_OK/GD32VW55X_Wifi_BLE_SDK/GD32VW55x_RELEASE_V1.0.2/MSDK/cloud/alicloud/src/infra/system/facility\fac_string.c **** 
 405              		.loc 1 68 25 is_stmt 1
 406 024a 050A     		addi	s4,s4,1
 407              	.LVL33:
  70:C:/Users/stapi/OneDrive/Desktop/GD32VW553/V1_MQTT_OK/GD32VW55X_Wifi_BLE_SDK/GD32VW55x_RELEASE_V1.0.2/MSDK/cloud/alicloud/src/infra/system/facility\fac_string.c ****                             HAL_Printf("%s", JSON_INDENT);
 408              		.loc 1 70 25
  70:C:/Users/stapi/OneDrive/Desktop/GD32VW553/V1_MQTT_OK/GD32VW55X_Wifi_BLE_SDK/GD32VW55x_RELEASE_V1.0.2/MSDK/cloud/alicloud/src/infra/system/facility\fac_string.c ****                             HAL_Printf("%s", JSON_INDENT);
 409              		.loc 1 70 32 is_stmt 0
 410 024c 814C     		li	s9,0
 411              	.LVL34:
 412              	.L19:
  70:C:/Users/stapi/OneDrive/Desktop/GD32VW553/V1_MQTT_OK/GD32VW55X_Wifi_BLE_SDK/GD32VW55x_RELEASE_V1.0.2/MSDK/cloud/alicloud/src/infra/system/facility\fac_string.c ****                             HAL_Printf("%s", JSON_INDENT);
 413              		.loc 1 70 38 is_stmt 1 discriminator 1
  70:C:/Users/stapi/OneDrive/Desktop/GD32VW553/V1_MQTT_OK/GD32VW55X_Wifi_BLE_SDK/GD32VW55x_RELEASE_V1.0.2/MSDK/cloud/alicloud/src/infra/system/facility\fac_string.c ****                             HAL_Printf("%s", JSON_INDENT);
 414              		.loc 1 70 25 is_stmt 0 discriminator 1
 415 024e 63C54C01 		blt	s9,s4,.L20
 416              	.LVL35:
 417              	.L16:
 418              	.LBE3:
  56:C:/Users/stapi/OneDrive/Desktop/GD32VW553/V1_MQTT_OK/GD32VW55X_Wifi_BLE_SDK/GD32VW55x_RELEASE_V1.0.2/MSDK/cloud/alicloud/src/infra/system/facility\fac_string.c ****         char ch = str[i];
 419              		.loc 1 56 31 is_stmt 1 discriminator 2
  56:C:/Users/stapi/OneDrive/Desktop/GD32VW553/V1_MQTT_OK/GD32VW55X_Wifi_BLE_SDK/GD32VW55x_RELEASE_V1.0.2/MSDK/cloud/alicloud/src/infra/system/facility\fac_string.c ****         char ch = str[i];
 420              		.loc 1 56 32 is_stmt 0 discriminator 2
 421 0252 850B     		addi	s7,s7,1
 422              	.LVL36:
 423 0254 8504     		addi	s1,s1,1
 424 0256 E9B5     		j	.L7
 425              	.LVL37:
 426              	.L20:
 427              	.LBB4:
  71:C:/Users/stapi/OneDrive/Desktop/GD32VW553/V1_MQTT_OK/GD32VW55X_Wifi_BLE_SDK/GD32VW55x_RELEASE_V1.0.2/MSDK/cloud/alicloud/src/infra/system/facility\fac_string.c ****                         }
 428              		.loc 1 71 29 is_stmt 1 discriminator 3
 429 0258 93050C00 		addi	a1,s8,%lo(.LC5)
 430 025c 13050400 		addi	a0,s0,%lo(.LC3)
 431 0260 97000000 		call	HAL_Printf
 431      E7800000 
 432              	.LVL38:
  70:C:/Users/stapi/OneDrive/Desktop/GD32VW553/V1_MQTT_OK/GD32VW55X_Wifi_BLE_SDK/GD32VW55x_RELEASE_V1.0.2/MSDK/cloud/alicloud/src/infra/system/facility\fac_string.c ****                             HAL_Printf("%s", JSON_INDENT);
 433              		.loc 1 70 51 discriminator 3
  70:C:/Users/stapi/OneDrive/Desktop/GD32VW553/V1_MQTT_OK/GD32VW55X_Wifi_BLE_SDK/GD32VW55x_RELEASE_V1.0.2/MSDK/cloud/alicloud/src/infra/system/facility\fac_string.c ****                             HAL_Printf("%s", JSON_INDENT);
 434              		.loc 1 70 52 is_stmt 0 discriminator 3
 435 0268 850C     		addi	s9,s9,1
 436              	.LVL39:
 437 026a D5B7     		j	.L19
 438              	.LVL40:
 439              	.L22:
  88:C:/Users/stapi/OneDrive/Desktop/GD32VW553/V1_MQTT_OK/GD32VW55X_Wifi_BLE_SDK/GD32VW55x_RELEASE_V1.0.2/MSDK/cloud/alicloud/src/infra/system/facility\fac_string.c ****                         for (j = 0 ; j < indent ; j++) {
 440              		.loc 1 88 28 is_stmt 1 discriminator 1
  88:C:/Users/stapi/OneDrive/Desktop/GD32VW553/V1_MQTT_OK/GD32VW55X_Wifi_BLE_SDK/GD32VW55x_RELEASE_V1.0.2/MSDK/cloud/alicloud/src/infra/system/facility\fac_string.c ****                         for (j = 0 ; j < indent ; j++) {
 441              		.loc 1 88 40 is_stmt 0 discriminator 1
 442 026c 6318D700 		bne	a4,a3,.L27
  88:C:/Users/stapi/OneDrive/Desktop/GD32VW553/V1_MQTT_OK/GD32VW55X_Wifi_BLE_SDK/GD32VW55x_RELEASE_V1.0.2/MSDK/cloud/alicloud/src/infra/system/facility\fac_string.c ****                         for (j = 0 ; j < indent ; j++) {
 443              		.loc 1 88 63 discriminator 2
 444 0270 1307D005 		li	a4,93
 445              	.L55:
  88:C:/Users/stapi/OneDrive/Desktop/GD32VW553/V1_MQTT_OK/GD32VW55X_Wifi_BLE_SDK/GD32VW55x_RELEASE_V1.0.2/MSDK/cloud/alicloud/src/infra/system/facility\fac_string.c ****                         for (j = 0 ; j < indent ; j++) {
 446              		.loc 1 88 99 discriminator 5
 447 0274 E39CECEE 		bne	s9,a4,.L12
 448 0278 0147     		li	a4,0
 449 027a 1DA0     		j	.L29
 450              	.L27:
  88:C:/Users/stapi/OneDrive/Desktop/GD32VW553/V1_MQTT_OK/GD32VW55X_Wifi_BLE_SDK/GD32VW55x_RELEASE_V1.0.2/MSDK/cloud/alicloud/src/infra/system/facility\fac_string.c ****                         for (j = 0 ; j < indent ; j++) {
 451              		.loc 1 88 77 discriminator 4
 452 027c 9307B007 		li	a5,123
 453 0280 E316F7EE 		bne	a4,a5,.L12
  88:C:/Users/stapi/OneDrive/Desktop/GD32VW553/V1_MQTT_OK/GD32VW55X_Wifi_BLE_SDK/GD32VW55x_RELEASE_V1.0.2/MSDK/cloud/alicloud/src/infra/system/facility\fac_string.c ****                         for (j = 0 ; j < indent ; j++) {
 454              		.loc 1 88 99 discriminator 5
 455 0284 1307D007 		li	a4,125
 456 0288 F5B7     		j	.L55
 457              	.LVL41:
 458              	.L30:
  90:C:/Users/stapi/OneDrive/Desktop/GD32VW553/V1_MQTT_OK/GD32VW55X_Wifi_BLE_SDK/GD32VW55x_RELEASE_V1.0.2/MSDK/cloud/alicloud/src/infra/system/facility\fac_string.c ****                         }
 459              		.loc 1 90 29 discriminator 3
 460 028a 93050C00 		addi	a1,s8,%lo(.LC5)
 461 028e 13050400 		addi	a0,s0,%lo(.LC3)
 462 0292 3AC6     		sw	a4,12(sp)
  90:C:/Users/stapi/OneDrive/Desktop/GD32VW553/V1_MQTT_OK/GD32VW55X_Wifi_BLE_SDK/GD32VW55x_RELEASE_V1.0.2/MSDK/cloud/alicloud/src/infra/system/facility\fac_string.c ****                         }
 463              		.loc 1 90 29 is_stmt 1 discriminator 3
 464 0294 97000000 		call	HAL_Printf
 464      E7800000 
 465              	.LVL42:
  89:C:/Users/stapi/OneDrive/Desktop/GD32VW553/V1_MQTT_OK/GD32VW55X_Wifi_BLE_SDK/GD32VW55x_RELEASE_V1.0.2/MSDK/cloud/alicloud/src/infra/system/facility\fac_string.c ****                             HAL_Printf("%s", JSON_INDENT);
 466              		.loc 1 89 51 discriminator 3
  89:C:/Users/stapi/OneDrive/Desktop/GD32VW553/V1_MQTT_OK/GD32VW55X_Wifi_BLE_SDK/GD32VW55x_RELEASE_V1.0.2/MSDK/cloud/alicloud/src/infra/system/facility\fac_string.c ****                             HAL_Printf("%s", JSON_INDENT);
 467              		.loc 1 89 52 is_stmt 0 discriminator 3
 468 029c 3247     		lw	a4,12(sp)
 469 029e 0507     		addi	a4,a4,1
 470              	.LVL43:
 471              	.L29:
  89:C:/Users/stapi/OneDrive/Desktop/GD32VW553/V1_MQTT_OK/GD32VW55X_Wifi_BLE_SDK/GD32VW55x_RELEASE_V1.0.2/MSDK/cloud/alicloud/src/infra/system/facility\fac_string.c ****                             HAL_Printf("%s", JSON_INDENT);
 472              		.loc 1 89 38 is_stmt 1 discriminator 1
  89:C:/Users/stapi/OneDrive/Desktop/GD32VW553/V1_MQTT_OK/GD32VW55X_Wifi_BLE_SDK/GD32VW55x_RELEASE_V1.0.2/MSDK/cloud/alicloud/src/infra/system/facility\fac_string.c ****                             HAL_Printf("%s", JSON_INDENT);
 473              		.loc 1 89 25 is_stmt 0 discriminator 1
 474 02a0 E34547FF 		bgt	s4,a4,.L30
 475 02a4 E1B5     		j	.L12
 476              	.LVL44:
 477              	.L10:
 101:C:/Users/stapi/OneDrive/Desktop/GD32VW553/V1_MQTT_OK/GD32VW55X_Wifi_BLE_SDK/GD32VW55x_RELEASE_V1.0.2/MSDK/cloud/alicloud/src/infra/system/facility\fac_string.c ****                 JSON_PRINT_NEWSTR;
 478              		.loc 1 101 17 is_stmt 1
 102:C:/Users/stapi/OneDrive/Desktop/GD32VW553/V1_MQTT_OK/GD32VW55X_Wifi_BLE_SDK/GD32VW55x_RELEASE_V1.0.2/MSDK/cloud/alicloud/src/infra/system/facility\fac_string.c ****                 escaped = 1;
 479              		.loc 1 102 17 is_stmt 0
 480 02a6 2C08     		addi	a1,sp,24
 481 02a8 13050400 		addi	a0,s0,%lo(.LC3)
 101:C:/Users/stapi/OneDrive/Desktop/GD32VW553/V1_MQTT_OK/GD32VW55X_Wifi_BLE_SDK/GD32VW55x_RELEASE_V1.0.2/MSDK/cloud/alicloud/src/infra/system/facility\fac_string.c ****                 JSON_PRINT_NEWSTR;
 482              		.loc 1 101 27
 483 02ac 230C9101 		sb	s9,24(sp)
 102:C:/Users/stapi/OneDrive/Desktop/GD32VW553/V1_MQTT_OK/GD32VW55X_Wifi_BLE_SDK/GD32VW55x_RELEASE_V1.0.2/MSDK/cloud/alicloud/src/infra/system/facility\fac_string.c ****                 escaped = 1;
 484              		.loc 1 102 17 is_stmt 1
 485 02b0 97000000 		call	HAL_Printf
 485      E7800000 
 486              	.LVL45:
 102:C:/Users/stapi/OneDrive/Desktop/GD32VW553/V1_MQTT_OK/GD32VW55X_Wifi_BLE_SDK/GD32VW55x_RELEASE_V1.0.2/MSDK/cloud/alicloud/src/infra/system/facility\fac_string.c ****                 escaped = 1;
 487              		.loc 1 102 34
 103:C:/Users/stapi/OneDrive/Desktop/GD32VW553/V1_MQTT_OK/GD32VW55X_Wifi_BLE_SDK/GD32VW55x_RELEASE_V1.0.2/MSDK/cloud/alicloud/src/infra/system/facility\fac_string.c **** 
 488              		.loc 1 103 17
 105:C:/Users/stapi/OneDrive/Desktop/GD32VW553/V1_MQTT_OK/GD32VW55X_Wifi_BLE_SDK/GD32VW55x_RELEASE_V1.0.2/MSDK/cloud/alicloud/src/infra/system/facility\fac_string.c ****                     escaped = !escaped;
 489              		.loc 1 105 17
 105:C:/Users/stapi/OneDrive/Desktop/GD32VW553/V1_MQTT_OK/GD32VW55X_Wifi_BLE_SDK/GD32VW55x_RELEASE_V1.0.2/MSDK/cloud/alicloud/src/infra/system/facility\fac_string.c ****                     escaped = !escaped;
 490              		.loc 1 105 20 is_stmt 0
 491 02b8 E38D0BF8 		beq	s7,zero,.L16
 105:C:/Users/stapi/OneDrive/Desktop/GD32VW553/V1_MQTT_OK/GD32VW55X_Wifi_BLE_SDK/GD32VW55x_RELEASE_V1.0.2/MSDK/cloud/alicloud/src/infra/system/facility\fac_string.c ****                     escaped = !escaped;
 492              		.loc 1 105 27 discriminator 1
 493 02bc 9307C005 		li	a5,92
 494 02c0 0387F4FF 		lb	a4,-1(s1)
 495 02c4 E317F7F8 		bne	a4,a5,.L16
 106:C:/Users/stapi/OneDrive/Desktop/GD32VW553/V1_MQTT_OK/GD32VW55X_Wifi_BLE_SDK/GD32VW55x_RELEASE_V1.0.2/MSDK/cloud/alicloud/src/infra/system/facility\fac_string.c ****                 }
 496              		.loc 1 106 21 is_stmt 1
 497              	.LVL46:
 109:C:/Users/stapi/OneDrive/Desktop/GD32VW553/V1_MQTT_OK/GD32VW55X_Wifi_BLE_SDK/GD32VW55x_RELEASE_V1.0.2/MSDK/cloud/alicloud/src/infra/system/facility\fac_string.c ****                     quoted = !quoted;
 498              		.loc 1 109 17
 110:C:/Users/stapi/OneDrive/Desktop/GD32VW553/V1_MQTT_OK/GD32VW55X_Wifi_BLE_SDK/GD32VW55x_RELEASE_V1.0.2/MSDK/cloud/alicloud/src/infra/system/facility\fac_string.c ****                 }
 499              		.loc 1 110 21
 110:C:/Users/stapi/OneDrive/Desktop/GD32VW553/V1_MQTT_OK/GD32VW55X_Wifi_BLE_SDK/GD32VW55x_RELEASE_V1.0.2/MSDK/cloud/alicloud/src/infra/system/facility\fac_string.c ****                 }
 500              		.loc 1 110 30 is_stmt 0
 501 02c8 93CA1A00 		xori	s5,s5,1
 502              	.LVL47:
 503 02cc 59B7     		j	.L16
 504              	.LVL48:
 505              	.L11:
 116:C:/Users/stapi/OneDrive/Desktop/GD32VW553/V1_MQTT_OK/GD32VW55X_Wifi_BLE_SDK/GD32VW55x_RELEASE_V1.0.2/MSDK/cloud/alicloud/src/infra/system/facility\fac_string.c ****                 JSON_PRINT_NEWSTR;
 506              		.loc 1 116 17 is_stmt 1
 117:C:/Users/stapi/OneDrive/Desktop/GD32VW553/V1_MQTT_OK/GD32VW55X_Wifi_BLE_SDK/GD32VW55x_RELEASE_V1.0.2/MSDK/cloud/alicloud/src/infra/system/facility\fac_string.c ****                 if (!quoted) {
 507              		.loc 1 117 17 is_stmt 0
 508 02ce 2C08     		addi	a1,sp,24
 509 02d0 13050400 		addi	a0,s0,%lo(.LC3)
 116:C:/Users/stapi/OneDrive/Desktop/GD32VW553/V1_MQTT_OK/GD32VW55X_Wifi_BLE_SDK/GD32VW55x_RELEASE_V1.0.2/MSDK/cloud/alicloud/src/infra/system/facility\fac_string.c ****                 JSON_PRINT_NEWSTR;
 510              		.loc 1 116 27
 511 02d4 230C9101 		sb	s9,24(sp)
 117:C:/Users/stapi/OneDrive/Desktop/GD32VW553/V1_MQTT_OK/GD32VW55X_Wifi_BLE_SDK/GD32VW55x_RELEASE_V1.0.2/MSDK/cloud/alicloud/src/infra/system/facility\fac_string.c ****                 if (!quoted) {
 512              		.loc 1 117 17 is_stmt 1
 513 02d8 97000000 		call	HAL_Printf
 513      E7800000 
 514              	.LVL49:
 117:C:/Users/stapi/OneDrive/Desktop/GD32VW553/V1_MQTT_OK/GD32VW55X_Wifi_BLE_SDK/GD32VW55x_RELEASE_V1.0.2/MSDK/cloud/alicloud/src/infra/system/facility\fac_string.c ****                 if (!quoted) {
 515              		.loc 1 117 34
 118:C:/Users/stapi/OneDrive/Desktop/GD32VW553/V1_MQTT_OK/GD32VW55X_Wifi_BLE_SDK/GD32VW55x_RELEASE_V1.0.2/MSDK/cloud/alicloud/src/infra/system/facility\fac_string.c ****                     JSON_PRINT_NEWLINE;
 516              		.loc 1 118 17
 118:C:/Users/stapi/OneDrive/Desktop/GD32VW553/V1_MQTT_OK/GD32VW55X_Wifi_BLE_SDK/GD32VW55x_RELEASE_V1.0.2/MSDK/cloud/alicloud/src/infra/system/facility\fac_string.c ****                     JSON_PRINT_NEWLINE;
 517              		.loc 1 118 20 is_stmt 0
 518 02e0 E3990AF6 		bne	s5,zero,.L16
 119:C:/Users/stapi/OneDrive/Desktop/GD32VW553/V1_MQTT_OK/GD32VW55X_Wifi_BLE_SDK/GD32VW55x_RELEASE_V1.0.2/MSDK/cloud/alicloud/src/infra/system/facility\fac_string.c **** 
 519              		.loc 1 119 21 is_stmt 1
 119:C:/Users/stapi/OneDrive/Desktop/GD32VW553/V1_MQTT_OK/GD32VW55X_Wifi_BLE_SDK/GD32VW55x_RELEASE_V1.0.2/MSDK/cloud/alicloud/src/infra/system/facility\fac_string.c **** 
 520              		.loc 1 119 21
 521 02e4 9247     		lw	a5,4(sp)
 522 02e6 13050400 		addi	a0,s0,%lo(.LC3)
 523 02ea 93850700 		addi	a1,a5,%lo(.LC2)
 524 02ee 97000000 		call	HAL_Printf
 524      E7800000 
 525              	.LVL50:
 119:C:/Users/stapi/OneDrive/Desktop/GD32VW553/V1_MQTT_OK/GD32VW55X_Wifi_BLE_SDK/GD32VW55x_RELEASE_V1.0.2/MSDK/cloud/alicloud/src/infra/system/facility\fac_string.c **** 
 526              		.loc 1 119 21
 527 02f6 9307C003 		li	a5,60
 528 02fa 6304F900 		beq	s2,a5,.L31
 119:C:/Users/stapi/OneDrive/Desktop/GD32VW553/V1_MQTT_OK/GD32VW55X_Wifi_BLE_SDK/GD32VW55x_RELEASE_V1.0.2/MSDK/cloud/alicloud/src/infra/system/facility\fac_string.c **** 
 529              		.loc 1 119 21 is_stmt 0 discriminator 4
 530 02fe 63996D01 		bne	s11,s6,.L32
 531              	.L31:
 119:C:/Users/stapi/OneDrive/Desktop/GD32VW553/V1_MQTT_OK/GD32VW55X_Wifi_BLE_SDK/GD32VW55x_RELEASE_V1.0.2/MSDK/cloud/alicloud/src/infra/system/facility\fac_string.c **** 
 532              		.loc 1 119 21 is_stmt 1 discriminator 5
 533 0302 CA85     		mv	a1,s2
 534 0304 13050D00 		addi	a0,s10,%lo(.LC4)
 535 0308 97000000 		call	HAL_Printf
 535      E7800000 
 536              	.LVL51:
 537              	.L32:
 538 0310 814C     		li	s9,0
 539              	.LVL52:
 540              	.L33:
 121:C:/Users/stapi/OneDrive/Desktop/GD32VW553/V1_MQTT_OK/GD32VW55X_Wifi_BLE_SDK/GD32VW55x_RELEASE_V1.0.2/MSDK/cloud/alicloud/src/infra/system/facility\fac_string.c ****                         HAL_Printf("%s", JSON_INDENT);
 541              		.loc 1 121 34 discriminator 1
 121:C:/Users/stapi/OneDrive/Desktop/GD32VW553/V1_MQTT_OK/GD32VW55X_Wifi_BLE_SDK/GD32VW55x_RELEASE_V1.0.2/MSDK/cloud/alicloud/src/infra/system/facility\fac_string.c ****                         HAL_Printf("%s", JSON_INDENT);
 542              		.loc 1 121 21 is_stmt 0 discriminator 1
 543 0312 E3D04CF5 		ble	s4,s9,.L16
 122:C:/Users/stapi/OneDrive/Desktop/GD32VW553/V1_MQTT_OK/GD32VW55X_Wifi_BLE_SDK/GD32VW55x_RELEASE_V1.0.2/MSDK/cloud/alicloud/src/infra/system/facility\fac_string.c ****                     }
 544              		.loc 1 122 25 is_stmt 1 discriminator 3
 545 0316 93050C00 		addi	a1,s8,%lo(.LC5)
 546 031a 13050400 		addi	a0,s0,%lo(.LC3)
 547 031e 97000000 		call	HAL_Printf
 547      E7800000 
 548              	.LVL53:
 121:C:/Users/stapi/OneDrive/Desktop/GD32VW553/V1_MQTT_OK/GD32VW55X_Wifi_BLE_SDK/GD32VW55x_RELEASE_V1.0.2/MSDK/cloud/alicloud/src/infra/system/facility\fac_string.c ****                         HAL_Printf("%s", JSON_INDENT);
 549              		.loc 1 121 47 discriminator 3
 121:C:/Users/stapi/OneDrive/Desktop/GD32VW553/V1_MQTT_OK/GD32VW55X_Wifi_BLE_SDK/GD32VW55x_RELEASE_V1.0.2/MSDK/cloud/alicloud/src/infra/system/facility\fac_string.c ****                         HAL_Printf("%s", JSON_INDENT);
 550              		.loc 1 121 48 is_stmt 0 discriminator 3
 551 0326 850C     		addi	s9,s9,1
 552              	.LVL54:
 553 0328 EDB7     		j	.L33
 554              	.LVL55:
 555              	.L8:
 129:C:/Users/stapi/OneDrive/Desktop/GD32VW553/V1_MQTT_OK/GD32VW55X_Wifi_BLE_SDK/GD32VW55x_RELEASE_V1.0.2/MSDK/cloud/alicloud/src/infra/system/facility\fac_string.c ****                 JSON_PRINT_NEWSTR;
 556              		.loc 1 129 17 is_stmt 1
 130:C:/Users/stapi/OneDrive/Desktop/GD32VW553/V1_MQTT_OK/GD32VW55X_Wifi_BLE_SDK/GD32VW55x_RELEASE_V1.0.2/MSDK/cloud/alicloud/src/infra/system/facility\fac_string.c ****                 if (!quoted) {
 557              		.loc 1 130 17 is_stmt 0
 558 032a 2C08     		addi	a1,sp,24
 559 032c 13050400 		addi	a0,s0,%lo(.LC3)
 129:C:/Users/stapi/OneDrive/Desktop/GD32VW553/V1_MQTT_OK/GD32VW55X_Wifi_BLE_SDK/GD32VW55x_RELEASE_V1.0.2/MSDK/cloud/alicloud/src/infra/system/facility\fac_string.c ****                 JSON_PRINT_NEWSTR;
 560              		.loc 1 129 27
 561 0330 230C6101 		sb	s6,24(sp)
 130:C:/Users/stapi/OneDrive/Desktop/GD32VW553/V1_MQTT_OK/GD32VW55X_Wifi_BLE_SDK/GD32VW55x_RELEASE_V1.0.2/MSDK/cloud/alicloud/src/infra/system/facility\fac_string.c ****                 if (!quoted) {
 562              		.loc 1 130 17 is_stmt 1
 563 0334 97000000 		call	HAL_Printf
 563      E7800000 
 564              	.LVL56:
 130:C:/Users/stapi/OneDrive/Desktop/GD32VW553/V1_MQTT_OK/GD32VW55X_Wifi_BLE_SDK/GD32VW55x_RELEASE_V1.0.2/MSDK/cloud/alicloud/src/infra/system/facility\fac_string.c ****                 if (!quoted) {
 565              		.loc 1 130 34
 131:C:/Users/stapi/OneDrive/Desktop/GD32VW553/V1_MQTT_OK/GD32VW55X_Wifi_BLE_SDK/GD32VW55x_RELEASE_V1.0.2/MSDK/cloud/alicloud/src/infra/system/facility\fac_string.c ****                     HAL_Printf("%s", " ");
 566              		.loc 1 131 17
 131:C:/Users/stapi/OneDrive/Desktop/GD32VW553/V1_MQTT_OK/GD32VW55X_Wifi_BLE_SDK/GD32VW55x_RELEASE_V1.0.2/MSDK/cloud/alicloud/src/infra/system/facility\fac_string.c ****                     HAL_Printf("%s", " ");
 567              		.loc 1 131 20 is_stmt 0
 568 033c E39B0AF0 		bne	s5,zero,.L16
 132:C:/Users/stapi/OneDrive/Desktop/GD32VW553/V1_MQTT_OK/GD32VW55X_Wifi_BLE_SDK/GD32VW55x_RELEASE_V1.0.2/MSDK/cloud/alicloud/src/infra/system/facility\fac_string.c ****                 }
 569              		.loc 1 132 21 is_stmt 1
 570 0340 B7070000 		lui	a5,%hi(.LC6)
 571 0344 93850700 		addi	a1,a5,%lo(.LC6)
 572              	.L53:
 139:C:/Users/stapi/OneDrive/Desktop/GD32VW553/V1_MQTT_OK/GD32VW55X_Wifi_BLE_SDK/GD32VW55x_RELEASE_V1.0.2/MSDK/cloud/alicloud/src/infra/system/facility\fac_string.c **** 
 573              		.loc 1 139 17 is_stmt 0
 574 0348 13050400 		addi	a0,s0,%lo(.LC3)
 575 034c 97000000 		call	HAL_Printf
 575      E7800000 
 576              	.LVL57:
 139:C:/Users/stapi/OneDrive/Desktop/GD32VW553/V1_MQTT_OK/GD32VW55X_Wifi_BLE_SDK/GD32VW55x_RELEASE_V1.0.2/MSDK/cloud/alicloud/src/infra/system/facility\fac_string.c **** 
 577              		.loc 1 139 34 is_stmt 1
 141:C:/Users/stapi/OneDrive/Desktop/GD32VW553/V1_MQTT_OK/GD32VW55X_Wifi_BLE_SDK/GD32VW55x_RELEASE_V1.0.2/MSDK/cloud/alicloud/src/infra/system/facility\fac_string.c ****         }
 578              		.loc 1 141 17
 579 0354 FDBD     		j	.L16
 580              	.LBE4:
 581              		.cfi_endproc
 582              	.LFE20:
 584              		.text
 585              	.Letext0:
 586              		.file 2 "c:\\users\\stapi\\onedrive\\desktop\\gd32vw553\\embeddedbuilder_v1.4.7.26843\\tools\\nucl
 587              		.file 3 "..\\..\\..\\..\\cloud\\alicloud\\src\\infra\\utils\\misc/lite-cjson.h"
 588              		.file 4 "..\\..\\..\\..\\cloud\\alicloud\\include/iot_import.h"
 589              		.file 5 "..\\..\\..\\..\\cloud\\alicloud\\src\\infra\\log/iotx_log.h"
 590              		.file 6 "c:\\users\\stapi\\onedrive\\desktop\\gd32vw553\\embeddedbuilder_v1.4.7.26843\\tools\\nucl
 591              		.file 7 "..\\..\\..\\..\\cloud\\alicloud\\include/exports/iot_export_errno.h"