   1              		.file	"fac_string.c"
   2              		.option nopic
   3              		.attribute arch, "rv32i2p0_m2p0_a2p0_f2p0_c2p0_b_p0p94"
   4              		.attribute unaligned_access, 0
   5              		.attribute stack_align, 16
   6              		.text
   7              	.Ltext0:
   8              		.cfi_sections	.debug_frame
   9              		.section	.rodata.iotx_facility_json_print.str1.4,"aMS",@progbits,1
  10              		.align	2
  11              	.LC0:
  12 0000 1B00     		.string	"\033"
  13 0002 0000     		.align	2
  14              	.LC1:
  15 0004 25732573 		.string	"%s%s"
  15      00
  16 0009 000000   		.align	2
  17              	.LC2:
  18 000c 0D0A00   		.string	"\r\n"
  19 000f 00       		.align	2
  20              	.LC3:
  21 0010 257300   		.string	"%s"
  22 0013 00       		.align	2
  23              	.LC4:
  24 0014 25632000 		.string	"%c "
  25              		.align	2
  26              	.LC5:
  27 0018 20202020 		.string	"    "
  27      00
  28 001d 000000   		.align	2
  29              	.LC6:
  30 0020 2000     		.string	" "
  31 0022 0000     		.align	2
  32              	.LC7:
  33 0024 0D0A0D0A 		.string	"\r\n\r\n"
  33      00
  34 0029 000000   		.align	2
  35              	.LC8:
  36 002c 1B5B306D 		.string	"\033[0m"
  36      00
  37              		.section	.text.iotx_facility_json_print,"ax",@progbits
  38              		.align	1
  39              		.globl	iotx_facility_json_print
  41              	iotx_facility_json_print:
  42              	.LFB20:
  43              		.file 1 "C:/Users/stapi/OneDrive/Desktop/GD32VW553/V1_MQTT_OK/GD32VW55X_Wifi_BLE_SDK/GD32VW55x_REL
   1:C:/Users/stapi/OneDrive/Desktop/GD32VW553/V1_MQTT_OK/GD32VW55X_Wifi_BLE_SDK/GD32VW55x_RELEASE_V1.0.2/MSDK/cloud/alicloud/src/infra/system/facility\fac_string.c **** /*
   2:C:/Users/stapi/OneDrive/Desktop/GD32VW553/V1_MQTT_OK/GD32VW55X_Wifi_BLE_SDK/GD32VW55x_RELEASE_V1.0.2/MSDK/cloud/alicloud/src/infra/system/facility\fac_string.c ****  * Copyright (C) 2015-2018 Alibaba Group Holding Limited
   3:C:/Users/stapi/OneDrive/Desktop/GD32VW553/V1_MQTT_OK/GD32VW55X_Wifi_BLE_SDK/GD32VW55x_RELEASE_V1.0.2/MSDK/cloud/alicloud/src/infra/system/facility\fac_string.c ****  */
   4:C:/Users/stapi/OneDrive/Desktop/GD32VW553/V1_MQTT_OK/GD32VW55X_Wifi_BLE_SDK/GD32VW55x_RELEASE_V1.0.2/MSDK/cloud/alicloud/src/infra/system/facility\fac_string.c **** 
   5:C:/Users/stapi/OneDrive/Desktop/GD32VW553/V1_MQTT_OK/GD32VW55X_Wifi_BLE_SDK/GD32VW55x_RELEASE_V1.0.2/MSDK/cloud/alicloud/src/infra/system/facility\fac_string.c **** #include "iotx_system_internal.h"
   6:C:/Users/stapi/OneDrive/Desktop/GD32VW553/V1_MQTT_OK/GD32VW55X_Wifi_BLE_SDK/GD32VW55x_RELEASE_V1.0.2/MSDK/cloud/alicloud/src/infra/system/facility\fac_string.c **** 
   7:C:/Users/stapi/OneDrive/Desktop/GD32VW553/V1_MQTT_OK/GD32VW55X_Wifi_BLE_SDK/GD32VW55x_RELEASE_V1.0.2/MSDK/cloud/alicloud/src/infra/system/facility\fac_string.c **** #define JSON_NEWLINE            "\r\n"
   8:C:/Users/stapi/OneDrive/Desktop/GD32VW553/V1_MQTT_OK/GD32VW55X_Wifi_BLE_SDK/GD32VW55x_RELEASE_V1.0.2/MSDK/cloud/alicloud/src/infra/system/facility\fac_string.c **** #define JSON_INDENT             "    "
   9:C:/Users/stapi/OneDrive/Desktop/GD32VW553/V1_MQTT_OK/GD32VW55X_Wifi_BLE_SDK/GD32VW55x_RELEASE_V1.0.2/MSDK/cloud/alicloud/src/infra/system/facility\fac_string.c **** 
  10:C:/Users/stapi/OneDrive/Desktop/GD32VW553/V1_MQTT_OK/GD32VW55X_Wifi_BLE_SDK/GD32VW55x_RELEASE_V1.0.2/MSDK/cloud/alicloud/src/infra/system/facility\fac_string.c **** #define JSON_PRINT_NEWSTR       HAL_Printf("%s", newstr);
  11:C:/Users/stapi/OneDrive/Desktop/GD32VW553/V1_MQTT_OK/GD32VW55X_Wifi_BLE_SDK/GD32VW55x_RELEASE_V1.0.2/MSDK/cloud/alicloud/src/infra/system/facility\fac_string.c **** #define JSON_PRINT_NEWLINE      \
  12:C:/Users/stapi/OneDrive/Desktop/GD32VW553/V1_MQTT_OK/GD32VW55X_Wifi_BLE_SDK/GD32VW55x_RELEASE_V1.0.2/MSDK/cloud/alicloud/src/infra/system/facility\fac_string.c ****     do { \
  13:C:/Users/stapi/OneDrive/Desktop/GD32VW553/V1_MQTT_OK/GD32VW55X_Wifi_BLE_SDK/GD32VW55x_RELEASE_V1.0.2/MSDK/cloud/alicloud/src/infra/system/facility\fac_string.c ****         HAL_Printf("%s", JSON_NEWLINE); \
  14:C:/Users/stapi/OneDrive/Desktop/GD32VW553/V1_MQTT_OK/GD32VW55X_Wifi_BLE_SDK/GD32VW55x_RELEASE_V1.0.2/MSDK/cloud/alicloud/src/infra/system/facility\fac_string.c ****         if (mark == '>' || mark == '<' || mark == ':') { \
  15:C:/Users/stapi/OneDrive/Desktop/GD32VW553/V1_MQTT_OK/GD32VW55X_Wifi_BLE_SDK/GD32VW55x_RELEASE_V1.0.2/MSDK/cloud/alicloud/src/infra/system/facility\fac_string.c ****             HAL_Printf("%c ", mark); \
  16:C:/Users/stapi/OneDrive/Desktop/GD32VW553/V1_MQTT_OK/GD32VW55X_Wifi_BLE_SDK/GD32VW55x_RELEASE_V1.0.2/MSDK/cloud/alicloud/src/infra/system/facility\fac_string.c ****         } \
  17:C:/Users/stapi/OneDrive/Desktop/GD32VW553/V1_MQTT_OK/GD32VW55X_Wifi_BLE_SDK/GD32VW55x_RELEASE_V1.0.2/MSDK/cloud/alicloud/src/infra/system/facility\fac_string.c ****     } while(0)
  18:C:/Users/stapi/OneDrive/Desktop/GD32VW553/V1_MQTT_OK/GD32VW55X_Wifi_BLE_SDK/GD32VW55x_RELEASE_V1.0.2/MSDK/cloud/alicloud/src/infra/system/facility\fac_string.c **** 
  19:C:/Users/stapi/OneDrive/Desktop/GD32VW553/V1_MQTT_OK/GD32VW55X_Wifi_BLE_SDK/GD32VW55x_RELEASE_V1.0.2/MSDK/cloud/alicloud/src/infra/system/facility\fac_string.c **** int iotx_facility_json_print(const char *str, int level, ...)
  20:C:/Users/stapi/OneDrive/Desktop/GD32VW553/V1_MQTT_OK/GD32VW55X_Wifi_BLE_SDK/GD32VW55x_RELEASE_V1.0.2/MSDK/cloud/alicloud/src/infra/system/facility\fac_string.c **** {
  44              		.loc 1 20 1
  45              		.cfi_startproc
  46              	.LVL0:
  21:C:/Users/stapi/OneDrive/Desktop/GD32VW553/V1_MQTT_OK/GD32VW55X_Wifi_BLE_SDK/GD32VW55x_RELEASE_V1.0.2/MSDK/cloud/alicloud/src/infra/system/facility\fac_string.c ****     int             length = 0;
  47              		.loc 1 21 5
  22:C:/Users/stapi/OneDrive/Desktop/GD32VW553/V1_MQTT_OK/GD32VW55X_Wifi_BLE_SDK/GD32VW55x_RELEASE_V1.0.2/MSDK/cloud/alicloud/src/infra/system/facility\fac_string.c ****     char            newstr[2];
  48              		.loc 1 22 5
  23:C:/Users/stapi/OneDrive/Desktop/GD32VW553/V1_MQTT_OK/GD32VW55X_Wifi_BLE_SDK/GD32VW55x_RELEASE_V1.0.2/MSDK/cloud/alicloud/src/infra/system/facility\fac_string.c ****     int             quoted  = 0;
  49              		.loc 1 23 5
  24:C:/Users/stapi/OneDrive/Desktop/GD32VW553/V1_MQTT_OK/GD32VW55X_Wifi_BLE_SDK/GD32VW55x_RELEASE_V1.0.2/MSDK/cloud/alicloud/src/infra/system/facility\fac_string.c ****     int             escaped = 0;
  50              		.loc 1 24 5
  25:C:/Users/stapi/OneDrive/Desktop/GD32VW553/V1_MQTT_OK/GD32VW55X_Wifi_BLE_SDK/GD32VW55x_RELEASE_V1.0.2/MSDK/cloud/alicloud/src/infra/system/facility\fac_string.c ****     int             indent  = 0;
  51              		.loc 1 25 5
  26:C:/Users/stapi/OneDrive/Desktop/GD32VW553/V1_MQTT_OK/GD32VW55X_Wifi_BLE_SDK/GD32VW55x_RELEASE_V1.0.2/MSDK/cloud/alicloud/src/infra/system/facility\fac_string.c ****     int             i = 0, j = 0;
  52              		.loc 1 26 5
  27:C:/Users/stapi/OneDrive/Desktop/GD32VW553/V1_MQTT_OK/GD32VW55X_Wifi_BLE_SDK/GD32VW55x_RELEASE_V1.0.2/MSDK/cloud/alicloud/src/infra/system/facility\fac_string.c ****     int             curr_level = LITE_get_loglevel();
  53              		.loc 1 27 5
  20:C:/Users/stapi/OneDrive/Desktop/GD32VW553/V1_MQTT_OK/GD32VW55X_Wifi_BLE_SDK/GD32VW55x_RELEASE_V1.0.2/MSDK/cloud/alicloud/src/infra/system/facility\fac_string.c ****     int             length = 0;
  54              		.loc 1 20 1 is_stmt 0
  55 0000 3571     		addi	sp,sp,-160
  56              		.cfi_def_cfa_offset 160
  57 0002 A2DC     		sw	s0,120(sp)
  58 0004 A6DA     		sw	s1,116(sp)
  59 0006 CED6     		sw	s3,108(sp)
  60 0008 86DE     		sw	ra,124(sp)
  61 000a CAD8     		sw	s2,112(sp)
  62 000c D2D4     		sw	s4,104(sp)
  63 000e D6D2     		sw	s5,100(sp)
  64 0010 DAD0     		sw	s6,96(sp)
  65 0012 DECE     		sw	s7,92(sp)
  66 0014 E2CC     		sw	s8,88(sp)
  67 0016 E6CA     		sw	s9,84(sp)
  68 0018 EAC8     		sw	s10,80(sp)
  69 001a EEC6     		sw	s11,76(sp)
  70              		.cfi_offset 8, -40
  71              		.cfi_offset 9, -44
  72              		.cfi_offset 19, -52
  73              		.cfi_offset 1, -36
  74              		.cfi_offset 18, -48
  75              		.cfi_offset 20, -56
  76              		.cfi_offset 21, -60
  77              		.cfi_offset 22, -64
  78              		.cfi_offset 23, -68
  79              		.cfi_offset 24, -72
  80              		.cfi_offset 25, -76
  81              		.cfi_offset 26, -80
  82              		.cfi_offset 27, -84
  20:C:/Users/stapi/OneDrive/Desktop/GD32VW553/V1_MQTT_OK/GD32VW55X_Wifi_BLE_SDK/GD32VW55x_RELEASE_V1.0.2/MSDK/cloud/alicloud/src/infra/system/facility\fac_string.c ****     int             length = 0;
  83              		.loc 1 20 1
  84 001c AA84     		mv	s1,a0
  85 001e 2E84     		mv	s0,a1
  86 0020 32C5     		sw	a2,136(sp)
  87 0022 36C7     		sw	a3,140(sp)
  88 0024 3AC9     		sw	a4,144(sp)
  89 0026 3ECB     		sw	a5,148(sp)
  90 0028 42CD     		sw	a6,152(sp)
  91 002a 46CF     		sw	a7,156(sp)
  92              		.loc 1 27 34
  93 002c 97000000 		call	LITE_get_loglevel
  93      E7800000 
  94              	.LVL1:
  28:C:/Users/stapi/OneDrive/Desktop/GD32VW553/V1_MQTT_OK/GD32VW55X_Wifi_BLE_SDK/GD32VW55x_RELEASE_V1.0.2/MSDK/cloud/alicloud/src/infra/system/facility\fac_string.c ****     int             res = -1;
  95              		.loc 1 28 5 is_stmt 1
  29:C:/Users/stapi/OneDrive/Desktop/GD32VW553/V1_MQTT_OK/GD32VW55X_Wifi_BLE_SDK/GD32VW55x_RELEASE_V1.0.2/MSDK/cloud/alicloud/src/infra/system/facility\fac_string.c ****     lite_cjson_t    lite;
  96              		.loc 1 29 5
  30:C:/Users/stapi/OneDrive/Desktop/GD32VW553/V1_MQTT_OK/GD32VW55X_Wifi_BLE_SDK/GD32VW55x_RELEASE_V1.0.2/MSDK/cloud/alicloud/src/infra/system/facility\fac_string.c ****     va_list         ap;
  97              		.loc 1 30 5
  31:C:/Users/stapi/OneDrive/Desktop/GD32VW553/V1_MQTT_OK/GD32VW55X_Wifi_BLE_SDK/GD32VW55x_RELEASE_V1.0.2/MSDK/cloud/alicloud/src/infra/system/facility\fac_string.c ****     int             mark = ' ';
  98              		.loc 1 31 5
  32:C:/Users/stapi/OneDrive/Desktop/GD32VW553/V1_MQTT_OK/GD32VW55X_Wifi_BLE_SDK/GD32VW55x_RELEASE_V1.0.2/MSDK/cloud/alicloud/src/infra/system/facility\fac_string.c **** 
  33:C:/Users/stapi/OneDrive/Desktop/GD32VW553/V1_MQTT_OK/GD32VW55X_Wifi_BLE_SDK/GD32VW55x_RELEASE_V1.0.2/MSDK/cloud/alicloud/src/infra/system/facility\fac_string.c ****     newstr[0] = 0x00;
  99              		.loc 1 33 5
  34:C:/Users/stapi/OneDrive/Desktop/GD32VW553/V1_MQTT_OK/GD32VW55X_Wifi_BLE_SDK/GD32VW55x_RELEASE_V1.0.2/MSDK/cloud/alicloud/src/infra/system/facility\fac_string.c ****     newstr[1] = 0x00;
 100              		.loc 1 34 5
  33:C:/Users/stapi/OneDrive/Desktop/GD32VW553/V1_MQTT_OK/GD32VW55X_Wifi_BLE_SDK/GD32VW55x_RELEASE_V1.0.2/MSDK/cloud/alicloud/src/infra/system/facility\fac_string.c ****     newstr[1] = 0x00;
 101              		.loc 1 33 15 is_stmt 0
 102 0034 231C0100 		sh	zero,24(sp)
  35:C:/Users/stapi/OneDrive/Desktop/GD32VW553/V1_MQTT_OK/GD32VW55X_Wifi_BLE_SDK/GD32VW55x_RELEASE_V1.0.2/MSDK/cloud/alicloud/src/infra/system/facility\fac_string.c **** 
  36:C:/Users/stapi/OneDrive/Desktop/GD32VW553/V1_MQTT_OK/GD32VW55X_Wifi_BLE_SDK/GD32VW55x_RELEASE_V1.0.2/MSDK/cloud/alicloud/src/infra/system/facility\fac_string.c ****     if (curr_level < level) {
 103              		.loc 1 36 5 is_stmt 1
  37:C:/Users/stapi/OneDrive/Desktop/GD32VW553/V1_MQTT_OK/GD32VW55X_Wifi_BLE_SDK/GD32VW55x_RELEASE_V1.0.2/MSDK/cloud/alicloud/src/infra/system/facility\fac_string.c ****         return 1;
 104              		.loc 1 37 16 is_stmt 0
 105 0038 8549     		li	s3,1
  36:C:/Users/stapi/OneDrive/Desktop/GD32VW553/V1_MQTT_OK/GD32VW55X_Wifi_BLE_SDK/GD32VW55x_RELEASE_V1.0.2/MSDK/cloud/alicloud/src/infra/system/facility\fac_string.c ****         return 1;
 106              		.loc 1 36 8
 107 003a 63468502 		blt	a0,s0,.L1
  38:C:/Users/stapi/OneDrive/Desktop/GD32VW553/V1_MQTT_OK/GD32VW55X_Wifi_BLE_SDK/GD32VW55x_RELEASE_V1.0.2/MSDK/cloud/alicloud/src/infra/system/facility\fac_string.c ****     }
  39:C:/Users/stapi/OneDrive/Desktop/GD32VW553/V1_MQTT_OK/GD32VW55X_Wifi_BLE_SDK/GD32VW55x_RELEASE_V1.0.2/MSDK/cloud/alicloud/src/infra/system/facility\fac_string.c **** 
  40:C:/Users/stapi/OneDrive/Desktop/GD32VW553/V1_MQTT_OK/GD32VW55X_Wifi_BLE_SDK/GD32VW55x_RELEASE_V1.0.2/MSDK/cloud/alicloud/src/infra/system/facility\fac_string.c ****     if (str == NULL || strlen(str) == 0) {
 108              		.loc 1 40 5 is_stmt 1
  41:C:/Users/stapi/OneDrive/Desktop/GD32VW553/V1_MQTT_OK/GD32VW55X_Wifi_BLE_SDK/GD32VW55x_RELEASE_V1.0.2/MSDK/cloud/alicloud/src/infra/system/facility\fac_string.c ****         return -1;
 109              		.loc 1 41 16 is_stmt 0
 110 003e FD59     		li	s3,-1
  40:C:/Users/stapi/OneDrive/Desktop/GD32VW553/V1_MQTT_OK/GD32VW55X_Wifi_BLE_SDK/GD32VW55x_RELEASE_V1.0.2/MSDK/cloud/alicloud/src/infra/system/facility\fac_string.c ****         return -1;
 111              		.loc 1 40 8
 112 0040 9DC0     		beq	s1,zero,.L1
  40:C:/Users/stapi/OneDrive/Desktop/GD32VW553/V1_MQTT_OK/GD32VW55X_Wifi_BLE_SDK/GD32VW55x_RELEASE_V1.0.2/MSDK/cloud/alicloud/src/infra/system/facility\fac_string.c ****         return -1;
 113              		.loc 1 40 21 discriminator 1
 114 0042 83870400 		lb	a5,0(s1)
 115 0046 85C3     		beq	a5,zero,.L1
  42:C:/Users/stapi/OneDrive/Desktop/GD32VW553/V1_MQTT_OK/GD32VW55X_Wifi_BLE_SDK/GD32VW55x_RELEASE_V1.0.2/MSDK/cloud/alicloud/src/infra/system/facility\fac_string.c ****     }
  43:C:/Users/stapi/OneDrive/Desktop/GD32VW553/V1_MQTT_OK/GD32VW55X_Wifi_BLE_SDK/GD32VW55x_RELEASE_V1.0.2/MSDK/cloud/alicloud/src/infra/system/facility\fac_string.c **** 
  44:C:/Users/stapi/OneDrive/Desktop/GD32VW553/V1_MQTT_OK/GD32VW55X_Wifi_BLE_SDK/GD32VW55x_RELEASE_V1.0.2/MSDK/cloud/alicloud/src/infra/system/facility\fac_string.c ****     res = lite_cjson_parse(str, strlen(str), &lite);
 116              		.loc 1 44 5 is_stmt 1
 117              		.loc 1 44 33 is_stmt 0
 118 0048 2685     		mv	a0,s1
 119              	.LVL2:
 120 004a 97000000 		call	strlen
 120      E7800000 
 121              	.LVL3:
 122 0052 AA85     		mv	a1,a0
 123              		.loc 1 44 11
 124 0054 1010     		addi	a2,sp,32
 125 0056 2685     		mv	a0,s1
 126 0058 97000000 		call	lite_cjson_parse
 126      E7800000 
 127              	.LVL4:
 128 0060 AA89     		mv	s3,a0
 129              	.LVL5:
  45:C:/Users/stapi/OneDrive/Desktop/GD32VW553/V1_MQTT_OK/GD32VW55X_Wifi_BLE_SDK/GD32VW55x_RELEASE_V1.0.2/MSDK/cloud/alicloud/src/infra/system/facility\fac_string.c ****     if (res != SUCCESS_RETURN || !lite_cjson_is_object(&lite)) {
 130              		.loc 1 45 5 is_stmt 1
 131              		.loc 1 45 8 is_stmt 0
 132 0062 15C1     		beq	a0,zero,.L3
 133              	.LVL6:
 134              	.L4:
  46:C:/Users/stapi/OneDrive/Desktop/GD32VW553/V1_MQTT_OK/GD32VW55X_Wifi_BLE_SDK/GD32VW55x_RELEASE_V1.0.2/MSDK/cloud/alicloud/src/infra/system/facility\fac_string.c ****         return -2;
 135              		.loc 1 46 16
 136 0064 F959     		li	s3,-2
 137              	.LVL7:
 138              	.L1:
  47:C:/Users/stapi/OneDrive/Desktop/GD32VW553/V1_MQTT_OK/GD32VW55X_Wifi_BLE_SDK/GD32VW55x_RELEASE_V1.0.2/MSDK/cloud/alicloud/src/infra/system/facility\fac_string.c ****     }
  48:C:/Users/stapi/OneDrive/Desktop/GD32VW553/V1_MQTT_OK/GD32VW55X_Wifi_BLE_SDK/GD32VW55x_RELEASE_V1.0.2/MSDK/cloud/alicloud/src/infra/system/facility\fac_string.c **** 
  49:C:/Users/stapi/OneDrive/Desktop/GD32VW553/V1_MQTT_OK/GD32VW55X_Wifi_BLE_SDK/GD32VW55x_RELEASE_V1.0.2/MSDK/cloud/alicloud/src/infra/system/facility\fac_string.c ****     length = strlen(str);
  50:C:/Users/stapi/OneDrive/Desktop/GD32VW553/V1_MQTT_OK/GD32VW55X_Wifi_BLE_SDK/GD32VW55x_RELEASE_V1.0.2/MSDK/cloud/alicloud/src/infra/system/facility\fac_string.c ****     HAL_Printf("%s%s", "\033", lvl_color[level]);
  51:C:/Users/stapi/OneDrive/Desktop/GD32VW553/V1_MQTT_OK/GD32VW55X_Wifi_BLE_SDK/GD32VW55x_RELEASE_V1.0.2/MSDK/cloud/alicloud/src/infra/system/facility\fac_string.c ****     va_start(ap, level);
  52:C:/Users/stapi/OneDrive/Desktop/GD32VW553/V1_MQTT_OK/GD32VW55X_Wifi_BLE_SDK/GD32VW55x_RELEASE_V1.0.2/MSDK/cloud/alicloud/src/infra/system/facility\fac_string.c ****     mark = va_arg(ap, int);
  53:C:/Users/stapi/OneDrive/Desktop/GD32VW553/V1_MQTT_OK/GD32VW55X_Wifi_BLE_SDK/GD32VW55x_RELEASE_V1.0.2/MSDK/cloud/alicloud/src/infra/system/facility\fac_string.c ****     JSON_PRINT_NEWLINE;
  54:C:/Users/stapi/OneDrive/Desktop/GD32VW553/V1_MQTT_OK/GD32VW55X_Wifi_BLE_SDK/GD32VW55x_RELEASE_V1.0.2/MSDK/cloud/alicloud/src/infra/system/facility\fac_string.c ****     va_end(ap);
  55:C:/Users/stapi/OneDrive/Desktop/GD32VW553/V1_MQTT_OK/GD32VW55X_Wifi_BLE_SDK/GD32VW55x_RELEASE_V1.0.2/MSDK/cloud/alicloud/src/infra/system/facility\fac_string.c **** 
  56:C:/Users/stapi/OneDrive/Desktop/GD32VW553/V1_MQTT_OK/GD32VW55X_Wifi_BLE_SDK/GD32VW55x_RELEASE_V1.0.2/MSDK/cloud/alicloud/src/infra/system/facility\fac_string.c ****     for (i = 0 ; i < length ; i++) {
  57:C:/Users/stapi/OneDrive/Desktop/GD32VW553/V1_MQTT_OK/GD32VW55X_Wifi_BLE_SDK/GD32VW55x_RELEASE_V1.0.2/MSDK/cloud/alicloud/src/infra/system/facility\fac_string.c ****         char ch = str[i];
  58:C:/Users/stapi/OneDrive/Desktop/GD32VW553/V1_MQTT_OK/GD32VW55X_Wifi_BLE_SDK/GD32VW55x_RELEASE_V1.0.2/MSDK/cloud/alicloud/src/infra/system/facility\fac_string.c ****         switch (ch) {
  59:C:/Users/stapi/OneDrive/Desktop/GD32VW553/V1_MQTT_OK/GD32VW55X_Wifi_BLE_SDK/GD32VW55x_RELEASE_V1.0.2/MSDK/cloud/alicloud/src/infra/system/facility\fac_string.c ****             case '{':
  60:C:/Users/stapi/OneDrive/Desktop/GD32VW553/V1_MQTT_OK/GD32VW55X_Wifi_BLE_SDK/GD32VW55x_RELEASE_V1.0.2/MSDK/cloud/alicloud/src/infra/system/facility\fac_string.c ****             case '[':
  61:C:/Users/stapi/OneDrive/Desktop/GD32VW553/V1_MQTT_OK/GD32VW55X_Wifi_BLE_SDK/GD32VW55x_RELEASE_V1.0.2/MSDK/cloud/alicloud/src/infra/system/facility\fac_string.c ****                 newstr[0] = ch;
  62:C:/Users/stapi/OneDrive/Desktop/GD32VW553/V1_MQTT_OK/GD32VW55X_Wifi_BLE_SDK/GD32VW55x_RELEASE_V1.0.2/MSDK/cloud/alicloud/src/infra/system/facility\fac_string.c ****                 JSON_PRINT_NEWSTR;
  63:C:/Users/stapi/OneDrive/Desktop/GD32VW553/V1_MQTT_OK/GD32VW55X_Wifi_BLE_SDK/GD32VW55x_RELEASE_V1.0.2/MSDK/cloud/alicloud/src/infra/system/facility\fac_string.c **** 
  64:C:/Users/stapi/OneDrive/Desktop/GD32VW553/V1_MQTT_OK/GD32VW55X_Wifi_BLE_SDK/GD32VW55x_RELEASE_V1.0.2/MSDK/cloud/alicloud/src/infra/system/facility\fac_string.c ****                 if (!quoted) {
  65:C:/Users/stapi/OneDrive/Desktop/GD32VW553/V1_MQTT_OK/GD32VW55X_Wifi_BLE_SDK/GD32VW55x_RELEASE_V1.0.2/MSDK/cloud/alicloud/src/infra/system/facility\fac_string.c ****                     JSON_PRINT_NEWLINE;
  66:C:/Users/stapi/OneDrive/Desktop/GD32VW553/V1_MQTT_OK/GD32VW55X_Wifi_BLE_SDK/GD32VW55x_RELEASE_V1.0.2/MSDK/cloud/alicloud/src/infra/system/facility\fac_string.c **** 
  67:C:/Users/stapi/OneDrive/Desktop/GD32VW553/V1_MQTT_OK/GD32VW55X_Wifi_BLE_SDK/GD32VW55x_RELEASE_V1.0.2/MSDK/cloud/alicloud/src/infra/system/facility\fac_string.c ****                     if (!(str[i + 1] == '}' || str[i + 1] == ']')) {
  68:C:/Users/stapi/OneDrive/Desktop/GD32VW553/V1_MQTT_OK/GD32VW55X_Wifi_BLE_SDK/GD32VW55x_RELEASE_V1.0.2/MSDK/cloud/alicloud/src/infra/system/facility\fac_string.c ****                         ++indent;
  69:C:/Users/stapi/OneDrive/Desktop/GD32VW553/V1_MQTT_OK/GD32VW55X_Wifi_BLE_SDK/GD32VW55x_RELEASE_V1.0.2/MSDK/cloud/alicloud/src/infra/system/facility\fac_string.c **** 
  70:C:/Users/stapi/OneDrive/Desktop/GD32VW553/V1_MQTT_OK/GD32VW55X_Wifi_BLE_SDK/GD32VW55x_RELEASE_V1.0.2/MSDK/cloud/alicloud/src/infra/system/facility\fac_string.c ****                         for (j = 0 ; j < indent ; j++) {
  71:C:/Users/stapi/OneDrive/Desktop/GD32VW553/V1_MQTT_OK/GD32VW55X_Wifi_BLE_SDK/GD32VW55x_RELEASE_V1.0.2/MSDK/cloud/alicloud/src/infra/system/facility\fac_string.c ****                             HAL_Printf("%s", JSON_INDENT);
  72:C:/Users/stapi/OneDrive/Desktop/GD32VW553/V1_MQTT_OK/GD32VW55X_Wifi_BLE_SDK/GD32VW55x_RELEASE_V1.0.2/MSDK/cloud/alicloud/src/infra/system/facility\fac_string.c ****                         }
  73:C:/Users/stapi/OneDrive/Desktop/GD32VW553/V1_MQTT_OK/GD32VW55X_Wifi_BLE_SDK/GD32VW55x_RELEASE_V1.0.2/MSDK/cloud/alicloud/src/infra/system/facility\fac_string.c ****                     }
  74:C:/Users/stapi/OneDrive/Desktop/GD32VW553/V1_MQTT_OK/GD32VW55X_Wifi_BLE_SDK/GD32VW55x_RELEASE_V1.0.2/MSDK/cloud/alicloud/src/infra/system/facility\fac_string.c ****                 }
  75:C:/Users/stapi/OneDrive/Desktop/GD32VW553/V1_MQTT_OK/GD32VW55X_Wifi_BLE_SDK/GD32VW55x_RELEASE_V1.0.2/MSDK/cloud/alicloud/src/infra/system/facility\fac_string.c **** 
  76:C:/Users/stapi/OneDrive/Desktop/GD32VW553/V1_MQTT_OK/GD32VW55X_Wifi_BLE_SDK/GD32VW55x_RELEASE_V1.0.2/MSDK/cloud/alicloud/src/infra/system/facility\fac_string.c ****                 break;
  77:C:/Users/stapi/OneDrive/Desktop/GD32VW553/V1_MQTT_OK/GD32VW55X_Wifi_BLE_SDK/GD32VW55x_RELEASE_V1.0.2/MSDK/cloud/alicloud/src/infra/system/facility\fac_string.c **** 
  78:C:/Users/stapi/OneDrive/Desktop/GD32VW553/V1_MQTT_OK/GD32VW55X_Wifi_BLE_SDK/GD32VW55x_RELEASE_V1.0.2/MSDK/cloud/alicloud/src/infra/system/facility\fac_string.c ****             case '}':
  79:C:/Users/stapi/OneDrive/Desktop/GD32VW553/V1_MQTT_OK/GD32VW55X_Wifi_BLE_SDK/GD32VW55x_RELEASE_V1.0.2/MSDK/cloud/alicloud/src/infra/system/facility\fac_string.c ****             case ']':
  80:C:/Users/stapi/OneDrive/Desktop/GD32VW553/V1_MQTT_OK/GD32VW55X_Wifi_BLE_SDK/GD32VW55x_RELEASE_V1.0.2/MSDK/cloud/alicloud/src/infra/system/facility\fac_string.c ****                 if (!quoted) {
  81:C:/Users/stapi/OneDrive/Desktop/GD32VW553/V1_MQTT_OK/GD32VW55X_Wifi_BLE_SDK/GD32VW55x_RELEASE_V1.0.2/MSDK/cloud/alicloud/src/infra/system/facility\fac_string.c ****                     if ((i > 0) && (!(str[i - 1] == '{' || str[i - 1] == '['))) {
  82:C:/Users/stapi/OneDrive/Desktop/GD32VW553/V1_MQTT_OK/GD32VW55X_Wifi_BLE_SDK/GD32VW55x_RELEASE_V1.0.2/MSDK/cloud/alicloud/src/infra/system/facility\fac_string.c ****                         JSON_PRINT_NEWLINE;
  83:C:/Users/stapi/OneDrive/Desktop/GD32VW553/V1_MQTT_OK/GD32VW55X_Wifi_BLE_SDK/GD32VW55x_RELEASE_V1.0.2/MSDK/cloud/alicloud/src/infra/system/facility\fac_string.c ****                         --indent;
  84:C:/Users/stapi/OneDrive/Desktop/GD32VW553/V1_MQTT_OK/GD32VW55X_Wifi_BLE_SDK/GD32VW55x_RELEASE_V1.0.2/MSDK/cloud/alicloud/src/infra/system/facility\fac_string.c **** 
  85:C:/Users/stapi/OneDrive/Desktop/GD32VW553/V1_MQTT_OK/GD32VW55X_Wifi_BLE_SDK/GD32VW55x_RELEASE_V1.0.2/MSDK/cloud/alicloud/src/infra/system/facility\fac_string.c ****                         for (j = 0 ; j < indent ; j++) {
  86:C:/Users/stapi/OneDrive/Desktop/GD32VW553/V1_MQTT_OK/GD32VW55X_Wifi_BLE_SDK/GD32VW55x_RELEASE_V1.0.2/MSDK/cloud/alicloud/src/infra/system/facility\fac_string.c ****                             HAL_Printf("%s", JSON_INDENT);
  87:C:/Users/stapi/OneDrive/Desktop/GD32VW553/V1_MQTT_OK/GD32VW55X_Wifi_BLE_SDK/GD32VW55x_RELEASE_V1.0.2/MSDK/cloud/alicloud/src/infra/system/facility\fac_string.c ****                         }
  88:C:/Users/stapi/OneDrive/Desktop/GD32VW553/V1_MQTT_OK/GD32VW55X_Wifi_BLE_SDK/GD32VW55x_RELEASE_V1.0.2/MSDK/cloud/alicloud/src/infra/system/facility\fac_string.c ****                     } else if ((i > 0) && ((str[i - 1] == '[' && ch == ']') || (str[i - 1] == '{' &
  89:C:/Users/stapi/OneDrive/Desktop/GD32VW553/V1_MQTT_OK/GD32VW55X_Wifi_BLE_SDK/GD32VW55x_RELEASE_V1.0.2/MSDK/cloud/alicloud/src/infra/system/facility\fac_string.c ****                         for (j = 0 ; j < indent ; j++) {
  90:C:/Users/stapi/OneDrive/Desktop/GD32VW553/V1_MQTT_OK/GD32VW55X_Wifi_BLE_SDK/GD32VW55x_RELEASE_V1.0.2/MSDK/cloud/alicloud/src/infra/system/facility\fac_string.c ****                             HAL_Printf("%s", JSON_INDENT);
  91:C:/Users/stapi/OneDrive/Desktop/GD32VW553/V1_MQTT_OK/GD32VW55X_Wifi_BLE_SDK/GD32VW55x_RELEASE_V1.0.2/MSDK/cloud/alicloud/src/infra/system/facility\fac_string.c ****                         }
  92:C:/Users/stapi/OneDrive/Desktop/GD32VW553/V1_MQTT_OK/GD32VW55X_Wifi_BLE_SDK/GD32VW55x_RELEASE_V1.0.2/MSDK/cloud/alicloud/src/infra/system/facility\fac_string.c ****                     }
  93:C:/Users/stapi/OneDrive/Desktop/GD32VW553/V1_MQTT_OK/GD32VW55X_Wifi_BLE_SDK/GD32VW55x_RELEASE_V1.0.2/MSDK/cloud/alicloud/src/infra/system/facility\fac_string.c ****                 }
  94:C:/Users/stapi/OneDrive/Desktop/GD32VW553/V1_MQTT_OK/GD32VW55X_Wifi_BLE_SDK/GD32VW55x_RELEASE_V1.0.2/MSDK/cloud/alicloud/src/infra/system/facility\fac_string.c **** 
  95:C:/Users/stapi/OneDrive/Desktop/GD32VW553/V1_MQTT_OK/GD32VW55X_Wifi_BLE_SDK/GD32VW55x_RELEASE_V1.0.2/MSDK/cloud/alicloud/src/infra/system/facility\fac_string.c ****                 newstr[0] = ch;
  96:C:/Users/stapi/OneDrive/Desktop/GD32VW553/V1_MQTT_OK/GD32VW55X_Wifi_BLE_SDK/GD32VW55x_RELEASE_V1.0.2/MSDK/cloud/alicloud/src/infra/system/facility\fac_string.c ****                 JSON_PRINT_NEWSTR;
  97:C:/Users/stapi/OneDrive/Desktop/GD32VW553/V1_MQTT_OK/GD32VW55X_Wifi_BLE_SDK/GD32VW55x_RELEASE_V1.0.2/MSDK/cloud/alicloud/src/infra/system/facility\fac_string.c **** 
  98:C:/Users/stapi/OneDrive/Desktop/GD32VW553/V1_MQTT_OK/GD32VW55X_Wifi_BLE_SDK/GD32VW55x_RELEASE_V1.0.2/MSDK/cloud/alicloud/src/infra/system/facility\fac_string.c ****                 break;
  99:C:/Users/stapi/OneDrive/Desktop/GD32VW553/V1_MQTT_OK/GD32VW55X_Wifi_BLE_SDK/GD32VW55x_RELEASE_V1.0.2/MSDK/cloud/alicloud/src/infra/system/facility\fac_string.c **** 
 100:C:/Users/stapi/OneDrive/Desktop/GD32VW553/V1_MQTT_OK/GD32VW55X_Wifi_BLE_SDK/GD32VW55x_RELEASE_V1.0.2/MSDK/cloud/alicloud/src/infra/system/facility\fac_string.c ****             case '"':
 101:C:/Users/stapi/OneDrive/Desktop/GD32VW553/V1_MQTT_OK/GD32VW55X_Wifi_BLE_SDK/GD32VW55x_RELEASE_V1.0.2/MSDK/cloud/alicloud/src/infra/system/facility\fac_string.c ****                 newstr[0] = ch;
 102:C:/Users/stapi/OneDrive/Desktop/GD32VW553/V1_MQTT_OK/GD32VW55X_Wifi_BLE_SDK/GD32VW55x_RELEASE_V1.0.2/MSDK/cloud/alicloud/src/infra/system/facility\fac_string.c ****                 JSON_PRINT_NEWSTR;
 103:C:/Users/stapi/OneDrive/Desktop/GD32VW553/V1_MQTT_OK/GD32VW55X_Wifi_BLE_SDK/GD32VW55x_RELEASE_V1.0.2/MSDK/cloud/alicloud/src/infra/system/facility\fac_string.c ****                 escaped = 1;
 104:C:/Users/stapi/OneDrive/Desktop/GD32VW553/V1_MQTT_OK/GD32VW55X_Wifi_BLE_SDK/GD32VW55x_RELEASE_V1.0.2/MSDK/cloud/alicloud/src/infra/system/facility\fac_string.c **** 
 105:C:/Users/stapi/OneDrive/Desktop/GD32VW553/V1_MQTT_OK/GD32VW55X_Wifi_BLE_SDK/GD32VW55x_RELEASE_V1.0.2/MSDK/cloud/alicloud/src/infra/system/facility\fac_string.c ****                 if (i > 0 && str[i - 1] == '\\') {
 106:C:/Users/stapi/OneDrive/Desktop/GD32VW553/V1_MQTT_OK/GD32VW55X_Wifi_BLE_SDK/GD32VW55x_RELEASE_V1.0.2/MSDK/cloud/alicloud/src/infra/system/facility\fac_string.c ****                     escaped = !escaped;
 107:C:/Users/stapi/OneDrive/Desktop/GD32VW553/V1_MQTT_OK/GD32VW55X_Wifi_BLE_SDK/GD32VW55x_RELEASE_V1.0.2/MSDK/cloud/alicloud/src/infra/system/facility\fac_string.c ****                 }
 108:C:/Users/stapi/OneDrive/Desktop/GD32VW553/V1_MQTT_OK/GD32VW55X_Wifi_BLE_SDK/GD32VW55x_RELEASE_V1.0.2/MSDK/cloud/alicloud/src/infra/system/facility\fac_string.c **** 
 109:C:/Users/stapi/OneDrive/Desktop/GD32VW553/V1_MQTT_OK/GD32VW55X_Wifi_BLE_SDK/GD32VW55x_RELEASE_V1.0.2/MSDK/cloud/alicloud/src/infra/system/facility\fac_string.c ****                 if (!escaped) {
 110:C:/Users/stapi/OneDrive/Desktop/GD32VW553/V1_MQTT_OK/GD32VW55X_Wifi_BLE_SDK/GD32VW55x_RELEASE_V1.0.2/MSDK/cloud/alicloud/src/infra/system/facility\fac_string.c ****                     quoted = !quoted;
 111:C:/Users/stapi/OneDrive/Desktop/GD32VW553/V1_MQTT_OK/GD32VW55X_Wifi_BLE_SDK/GD32VW55x_RELEASE_V1.0.2/MSDK/cloud/alicloud/src/infra/system/facility\fac_string.c ****                 }
 112:C:/Users/stapi/OneDrive/Desktop/GD32VW553/V1_MQTT_OK/GD32VW55X_Wifi_BLE_SDK/GD32VW55x_RELEASE_V1.0.2/MSDK/cloud/alicloud/src/infra/system/facility\fac_string.c **** 
 113:C:/Users/stapi/OneDrive/Desktop/GD32VW553/V1_MQTT_OK/GD32VW55X_Wifi_BLE_SDK/GD32VW55x_RELEASE_V1.0.2/MSDK/cloud/alicloud/src/infra/system/facility\fac_string.c ****                 break;
 114:C:/Users/stapi/OneDrive/Desktop/GD32VW553/V1_MQTT_OK/GD32VW55X_Wifi_BLE_SDK/GD32VW55x_RELEASE_V1.0.2/MSDK/cloud/alicloud/src/infra/system/facility\fac_string.c **** 
 115:C:/Users/stapi/OneDrive/Desktop/GD32VW553/V1_MQTT_OK/GD32VW55X_Wifi_BLE_SDK/GD32VW55x_RELEASE_V1.0.2/MSDK/cloud/alicloud/src/infra/system/facility\fac_string.c ****             case ',':
 116:C:/Users/stapi/OneDrive/Desktop/GD32VW553/V1_MQTT_OK/GD32VW55X_Wifi_BLE_SDK/GD32VW55x_RELEASE_V1.0.2/MSDK/cloud/alicloud/src/infra/system/facility\fac_string.c ****                 newstr[0] = ch;
 117:C:/Users/stapi/OneDrive/Desktop/GD32VW553/V1_MQTT_OK/GD32VW55X_Wifi_BLE_SDK/GD32VW55x_RELEASE_V1.0.2/MSDK/cloud/alicloud/src/infra/system/facility\fac_string.c ****                 JSON_PRINT_NEWSTR;
 118:C:/Users/stapi/OneDrive/Desktop/GD32VW553/V1_MQTT_OK/GD32VW55X_Wifi_BLE_SDK/GD32VW55x_RELEASE_V1.0.2/MSDK/cloud/alicloud/src/infra/system/facility\fac_string.c ****                 if (!quoted) {
 119:C:/Users/stapi/OneDrive/Desktop/GD32VW553/V1_MQTT_OK/GD32VW55X_Wifi_BLE_SDK/GD32VW55x_RELEASE_V1.0.2/MSDK/cloud/alicloud/src/infra/system/facility\fac_string.c ****                     JSON_PRINT_NEWLINE;
 120:C:/Users/stapi/OneDrive/Desktop/GD32VW553/V1_MQTT_OK/GD32VW55X_Wifi_BLE_SDK/GD32VW55x_RELEASE_V1.0.2/MSDK/cloud/alicloud/src/infra/system/facility\fac_string.c **** 
 121:C:/Users/stapi/OneDrive/Desktop/GD32VW553/V1_MQTT_OK/GD32VW55X_Wifi_BLE_SDK/GD32VW55x_RELEASE_V1.0.2/MSDK/cloud/alicloud/src/infra/system/facility\fac_string.c ****                     for (j = 0 ; j < indent ; j++) {
 122:C:/Users/stapi/OneDrive/Desktop/GD32VW553/V1_MQTT_OK/GD32VW55X_Wifi_BLE_SDK/GD32VW55x_RELEASE_V1.0.2/MSDK/cloud/alicloud/src/infra/system/facility\fac_string.c ****                         HAL_Printf("%s", JSON_INDENT);
 123:C:/Users/stapi/OneDrive/Desktop/GD32VW553/V1_MQTT_OK/GD32VW55X_Wifi_BLE_SDK/GD32VW55x_RELEASE_V1.0.2/MSDK/cloud/alicloud/src/infra/system/facility\fac_string.c ****                     }
 124:C:/Users/stapi/OneDrive/Desktop/GD32VW553/V1_MQTT_OK/GD32VW55X_Wifi_BLE_SDK/GD32VW55x_RELEASE_V1.0.2/MSDK/cloud/alicloud/src/infra/system/facility\fac_string.c ****                 }
 125:C:/Users/stapi/OneDrive/Desktop/GD32VW553/V1_MQTT_OK/GD32VW55X_Wifi_BLE_SDK/GD32VW55x_RELEASE_V1.0.2/MSDK/cloud/alicloud/src/infra/system/facility\fac_string.c **** 
 126:C:/Users/stapi/OneDrive/Desktop/GD32VW553/V1_MQTT_OK/GD32VW55X_Wifi_BLE_SDK/GD32VW55x_RELEASE_V1.0.2/MSDK/cloud/alicloud/src/infra/system/facility\fac_string.c ****                 break;
 127:C:/Users/stapi/OneDrive/Desktop/GD32VW553/V1_MQTT_OK/GD32VW55X_Wifi_BLE_SDK/GD32VW55x_RELEASE_V1.0.2/MSDK/cloud/alicloud/src/infra/system/facility\fac_string.c **** 
 128:C:/Users/stapi/OneDrive/Desktop/GD32VW553/V1_MQTT_OK/GD32VW55X_Wifi_BLE_SDK/GD32VW55x_RELEASE_V1.0.2/MSDK/cloud/alicloud/src/infra/system/facility\fac_string.c ****             case ':':
 129:C:/Users/stapi/OneDrive/Desktop/GD32VW553/V1_MQTT_OK/GD32VW55X_Wifi_BLE_SDK/GD32VW55x_RELEASE_V1.0.2/MSDK/cloud/alicloud/src/infra/system/facility\fac_string.c ****                 newstr[0] = ch;
 130:C:/Users/stapi/OneDrive/Desktop/GD32VW553/V1_MQTT_OK/GD32VW55X_Wifi_BLE_SDK/GD32VW55x_RELEASE_V1.0.2/MSDK/cloud/alicloud/src/infra/system/facility\fac_string.c ****                 JSON_PRINT_NEWSTR;
 131:C:/Users/stapi/OneDrive/Desktop/GD32VW553/V1_MQTT_OK/GD32VW55X_Wifi_BLE_SDK/GD32VW55x_RELEASE_V1.0.2/MSDK/cloud/alicloud/src/infra/system/facility\fac_string.c ****                 if (!quoted) {
 132:C:/Users/stapi/OneDrive/Desktop/GD32VW553/V1_MQTT_OK/GD32VW55X_Wifi_BLE_SDK/GD32VW55x_RELEASE_V1.0.2/MSDK/cloud/alicloud/src/infra/system/facility\fac_string.c ****                     HAL_Printf("%s", " ");
 133:C:/Users/stapi/OneDrive/Desktop/GD32VW553/V1_MQTT_OK/GD32VW55X_Wifi_BLE_SDK/GD32VW55x_RELEASE_V1.0.2/MSDK/cloud/alicloud/src/infra/system/facility\fac_string.c ****                 }
 134:C:/Users/stapi/OneDrive/Desktop/GD32VW553/V1_MQTT_OK/GD32VW55X_Wifi_BLE_SDK/GD32VW55x_RELEASE_V1.0.2/MSDK/cloud/alicloud/src/infra/system/facility\fac_string.c **** 
 135:C:/Users/stapi/OneDrive/Desktop/GD32VW553/V1_MQTT_OK/GD32VW55X_Wifi_BLE_SDK/GD32VW55x_RELEASE_V1.0.2/MSDK/cloud/alicloud/src/infra/system/facility\fac_string.c ****                 break;
 136:C:/Users/stapi/OneDrive/Desktop/GD32VW553/V1_MQTT_OK/GD32VW55X_Wifi_BLE_SDK/GD32VW55x_RELEASE_V1.0.2/MSDK/cloud/alicloud/src/infra/system/facility\fac_string.c **** 
 137:C:/Users/stapi/OneDrive/Desktop/GD32VW553/V1_MQTT_OK/GD32VW55X_Wifi_BLE_SDK/GD32VW55x_RELEASE_V1.0.2/MSDK/cloud/alicloud/src/infra/system/facility\fac_string.c ****             default:
 138:C:/Users/stapi/OneDrive/Desktop/GD32VW553/V1_MQTT_OK/GD32VW55X_Wifi_BLE_SDK/GD32VW55x_RELEASE_V1.0.2/MSDK/cloud/alicloud/src/infra/system/facility\fac_string.c ****                 newstr[0] = ch;
 139:C:/Users/stapi/OneDrive/Desktop/GD32VW553/V1_MQTT_OK/GD32VW55X_Wifi_BLE_SDK/GD32VW55x_RELEASE_V1.0.2/MSDK/cloud/alicloud/src/infra/system/facility\fac_string.c ****                 JSON_PRINT_NEWSTR;
 140:C:/Users/stapi/OneDrive/Desktop/GD32VW553/V1_MQTT_OK/GD32VW55X_Wifi_BLE_SDK/GD32VW55x_RELEASE_V1.0.2/MSDK/cloud/alicloud/src/infra/system/facility\fac_string.c **** 
 141:C:/Users/stapi/OneDrive/Desktop/GD32VW553/V1_MQTT_OK/GD32VW55X_Wifi_BLE_SDK/GD32VW55x_RELEASE_V1.0.2/MSDK/cloud/alicloud/src/infra/system/facility\fac_string.c ****                 break;
 142:C:/Users/stapi/OneDrive/Desktop/GD32VW553/V1_MQTT_OK/GD32VW55X_Wifi_BLE_SDK/GD32VW55x_RELEASE_V1.0.2/MSDK/cloud/alicloud/src/infra/system/facility\fac_string.c ****         }
 143:C:/Users/stapi/OneDrive/Desktop/GD32VW553/V1_MQTT_OK/GD32VW55X_Wifi_BLE_SDK/GD32VW55x_RELEASE_V1.0.2/MSDK/cloud/alicloud/src/infra/system/facility\fac_string.c ****     }
 144:C:/Users/stapi/OneDrive/Desktop/GD32VW553/V1_MQTT_OK/GD32VW55X_Wifi_BLE_SDK/GD32VW55x_RELEASE_V1.0.2/MSDK/cloud/alicloud/src/infra/system/facility\fac_string.c **** 
 145:C:/Users/stapi/OneDrive/Desktop/GD32VW553/V1_MQTT_OK/GD32VW55X_Wifi_BLE_SDK/GD32VW55x_RELEASE_V1.0.2/MSDK/cloud/alicloud/src/infra/system/facility\fac_string.c ****     HAL_Printf("%s", JSON_NEWLINE JSON_NEWLINE);
 146:C:/Users/stapi/OneDrive/Desktop/GD32VW553/V1_MQTT_OK/GD32VW55X_Wifi_BLE_SDK/GD32VW55x_RELEASE_V1.0.2/MSDK/cloud/alicloud/src/infra/system/facility\fac_string.c ****     HAL_Printf("%s", "\033[0m");
 147:C:/Users/stapi/OneDrive/Desktop/GD32VW553/V1_MQTT_OK/GD32VW55X_Wifi_BLE_SDK/GD32VW55x_RELEASE_V1.0.2/MSDK/cloud/alicloud/src/infra/system/facility\fac_string.c ****     return 0;
 148:C:/Users/stapi/OneDrive/Desktop/GD32VW553/V1_MQTT_OK/GD32VW55X_Wifi_BLE_SDK/GD32VW55x_RELEASE_V1.0.2/MSDK/cloud/alicloud/src/infra/system/facility\fac_string.c **** }
 139              		.loc 1 148 1
 140 0066 F650     		lw	ra,124(sp)
 141              		.cfi_remember_state
 142              		.cfi_restore 1
 143 0068 6654     		lw	s0,120(sp)
 144              		.cfi_restore 8
 145 006a D654     		lw	s1,116(sp)
 146              		.cfi_restore 9
 147 006c 4659     		lw	s2,112(sp)
 148              		.cfi_restore 18
 149 006e 265A     		lw	s4,104(sp)
 150              		.cfi_restore 20
 151 0070 965A     		lw	s5,100(sp)
 152              		.cfi_restore 21
 153 0072 065B     		lw	s6,96(sp)
 154              		.cfi_restore 22
 155 0074 F64B     		lw	s7,92(sp)
 156              		.cfi_restore 23
 157 0076 664C     		lw	s8,88(sp)
 158              		.cfi_restore 24
 159 0078 D64C     		lw	s9,84(sp)
 160              		.cfi_restore 25
 161 007a 464D     		lw	s10,80(sp)
 162              		.cfi_restore 26
 163 007c B64D     		lw	s11,76(sp)
 164              		.cfi_restore 27
 165 007e 4E85     		mv	a0,s3
 166 0080 B659     		lw	s3,108(sp)
 167              		.cfi_restore 19
 168 0082 0D61     		addi	sp,sp,160
 169              		.cfi_def_cfa_offset 0
 170 0084 8280     		jr	ra
 171              	.LVL8:
 172              	.L3:
 173              		.cfi_restore_state
  45:C:/Users/stapi/OneDrive/Desktop/GD32VW553/V1_MQTT_OK/GD32VW55X_Wifi_BLE_SDK/GD32VW55x_RELEASE_V1.0.2/MSDK/cloud/alicloud/src/infra/system/facility\fac_string.c ****         return -2;
 174              		.loc 1 45 35 discriminator 1
 175 0086 0810     		addi	a0,sp,32
 176              	.LVL9:
 177 0088 97000000 		call	lite_cjson_is_object
 177      E7800000 
 178              	.LVL10:
  45:C:/Users/stapi/OneDrive/Desktop/GD32VW553/V1_MQTT_OK/GD32VW55X_Wifi_BLE_SDK/GD32VW55x_RELEASE_V1.0.2/MSDK/cloud/alicloud/src/infra/system/facility\fac_string.c ****         return -2;
 179              		.loc 1 45 31 discriminator 1
 180 0090 71D9     		beq	a0,zero,.L4
  49:C:/Users/stapi/OneDrive/Desktop/GD32VW553/V1_MQTT_OK/GD32VW55X_Wifi_BLE_SDK/GD32VW55x_RELEASE_V1.0.2/MSDK/cloud/alicloud/src/infra/system/facility\fac_string.c ****     HAL_Printf("%s%s", "\033", lvl_color[level]);
 181              		.loc 1 49 5 is_stmt 1
  49:C:/Users/stapi/OneDrive/Desktop/GD32VW553/V1_MQTT_OK/GD32VW55X_Wifi_BLE_SDK/GD32VW55x_RELEASE_V1.0.2/MSDK/cloud/alicloud/src/infra/system/facility\fac_string.c ****     HAL_Printf("%s%s", "\033", lvl_color[level]);
 182              		.loc 1 49 14 is_stmt 0
 183 0092 2685     		mv	a0,s1
 184 0094 97000000 		call	strlen
 184      E7800000 
 185              	.LVL11:
  50:C:/Users/stapi/OneDrive/Desktop/GD32VW553/V1_MQTT_OK/GD32VW55X_Wifi_BLE_SDK/GD32VW55x_RELEASE_V1.0.2/MSDK/cloud/alicloud/src/infra/system/facility\fac_string.c ****     va_start(ap, level);
 186              		.loc 1 50 5
 187 009c B7050000 		lui	a1,%hi(lvl_color)
 188 00a0 93850500 		addi	a1,a1,%lo(lvl_color)
 189 00a4 3344B420 		sh2add	s0,s0,a1
 190              	.LVL12:
 191 00a8 1040     		lw	a2,0(s0)
  49:C:/Users/stapi/OneDrive/Desktop/GD32VW553/V1_MQTT_OK/GD32VW55X_Wifi_BLE_SDK/GD32VW55x_RELEASE_V1.0.2/MSDK/cloud/alicloud/src/infra/system/facility\fac_string.c ****     HAL_Printf("%s%s", "\033", lvl_color[level]);
 192              		.loc 1 49 14
 193 00aa 2AC4     		sw	a0,8(sp)
 194              	.LVL13:
  50:C:/Users/stapi/OneDrive/Desktop/GD32VW553/V1_MQTT_OK/GD32VW55X_Wifi_BLE_SDK/GD32VW55x_RELEASE_V1.0.2/MSDK/cloud/alicloud/src/infra/system/facility\fac_string.c ****     va_start(ap, level);
 195              		.loc 1 50 5 is_stmt 1
 196 00ac B7050000 		lui	a1,%hi(.LC0)
 197 00b0 37050000 		lui	a0,%hi(.LC1)
 198              	.LVL14:
 199 00b4 93850500 		addi	a1,a1,%lo(.LC0)
 200 00b8 13050500 		addi	a0,a0,%lo(.LC1)
 201 00bc 97000000 		call	HAL_Printf
 201      E7800000 
 202              	.LVL15:
  51:C:/Users/stapi/OneDrive/Desktop/GD32VW553/V1_MQTT_OK/GD32VW55X_Wifi_BLE_SDK/GD32VW55x_RELEASE_V1.0.2/MSDK/cloud/alicloud/src/infra/system/facility\fac_string.c ****     mark = va_arg(ap, int);
 203              		.loc 1 51 5
  53:C:/Users/stapi/OneDrive/Desktop/GD32VW553/V1_MQTT_OK/GD32VW55X_Wifi_BLE_SDK/GD32VW55x_RELEASE_V1.0.2/MSDK/cloud/alicloud/src/infra/system/facility\fac_string.c ****     va_end(ap);
 204              		.loc 1 53 5 is_stmt 0
 205 00c4 370A0000 		lui	s4,%hi(.LC2)
 206 00c8 37040000 		lui	s0,%hi(.LC3)
  51:C:/Users/stapi/OneDrive/Desktop/GD32VW553/V1_MQTT_OK/GD32VW55X_Wifi_BLE_SDK/GD32VW55x_RELEASE_V1.0.2/MSDK/cloud/alicloud/src/infra/system/facility\fac_string.c ****     mark = va_arg(ap, int);
 207              		.loc 1 51 5
 208 00cc 3C01     		addi	a5,sp,136
  52:C:/Users/stapi/OneDrive/Desktop/GD32VW553/V1_MQTT_OK/GD32VW55X_Wifi_BLE_SDK/GD32VW55x_RELEASE_V1.0.2/MSDK/cloud/alicloud/src/infra/system/facility\fac_string.c ****     JSON_PRINT_NEWLINE;
 209              		.loc 1 52 10
 210 00ce 2A49     		lw	s2,136(sp)
  53:C:/Users/stapi/OneDrive/Desktop/GD32VW553/V1_MQTT_OK/GD32VW55X_Wifi_BLE_SDK/GD32VW55x_RELEASE_V1.0.2/MSDK/cloud/alicloud/src/infra/system/facility\fac_string.c ****     va_end(ap);
 211              		.loc 1 53 5
 212 00d0 93050A00 		addi	a1,s4,%lo(.LC2)
 213 00d4 13050400 		addi	a0,s0,%lo(.LC3)
  51:C:/Users/stapi/OneDrive/Desktop/GD32VW553/V1_MQTT_OK/GD32VW55X_Wifi_BLE_SDK/GD32VW55x_RELEASE_V1.0.2/MSDK/cloud/alicloud/src/infra/system/facility\fac_string.c ****     mark = va_arg(ap, int);
 214              		.loc 1 51 5
 215 00d8 3ECE     		sw	a5,28(sp)
  52:C:/Users/stapi/OneDrive/Desktop/GD32VW553/V1_MQTT_OK/GD32VW55X_Wifi_BLE_SDK/GD32VW55x_RELEASE_V1.0.2/MSDK/cloud/alicloud/src/infra/system/facility\fac_string.c ****     JSON_PRINT_NEWLINE;
 216              		.loc 1 52 5 is_stmt 1
 217              	.LVL16:
  53:C:/Users/stapi/OneDrive/Desktop/GD32VW553/V1_MQTT_OK/GD32VW55X_Wifi_BLE_SDK/GD32VW55x_RELEASE_V1.0.2/MSDK/cloud/alicloud/src/infra/system/facility\fac_string.c ****     va_end(ap);
 218              		.loc 1 53 5
  53:C:/Users/stapi/OneDrive/Desktop/GD32VW553/V1_MQTT_OK/GD32VW55X_Wifi_BLE_SDK/GD32VW55x_RELEASE_V1.0.2/MSDK/cloud/alicloud/src/infra/system/facility\fac_string.c ****     va_end(ap);
 219              		.loc 1 53 5
 220 00da 97000000 		call	HAL_Printf
 220      E7800000 
 221              	.LVL17:
  53:C:/Users/stapi/OneDrive/Desktop/GD32VW553/V1_MQTT_OK/GD32VW55X_Wifi_BLE_SDK/GD32VW55x_RELEASE_V1.0.2/MSDK/cloud/alicloud/src/infra/system/facility\fac_string.c ****     va_end(ap);
 222              		.loc 1 53 5
 223 00e2 9307C003 		li	a5,60
 224 00e6 52C2     		sw	s4,4(sp)
 225 00e8 6308F900 		beq	s2,a5,.L5
  53:C:/Users/stapi/OneDrive/Desktop/GD32VW553/V1_MQTT_OK/GD32VW55X_Wifi_BLE_SDK/GD32VW55x_RELEASE_V1.0.2/MSDK/cloud/alicloud/src/infra/system/facility\fac_string.c ****     va_end(ap);
 226              		.loc 1 53 5 is_stmt 0 discriminator 4
 227 00ec 9377B9FF 		andi	a5,s2,-5
 228 00f0 1307A003 		li	a4,58
 229 00f4 639BE700 		bne	a5,a4,.L6
 230              	.L5:
  53:C:/Users/stapi/OneDrive/Desktop/GD32VW553/V1_MQTT_OK/GD32VW55X_Wifi_BLE_SDK/GD32VW55x_RELEASE_V1.0.2/MSDK/cloud/alicloud/src/infra/system/facility\fac_string.c ****     va_end(ap);
 231              		.loc 1 53 5 is_stmt 1 discriminator 5
 232 00f8 37050000 		lui	a0,%hi(.LC4)
 233 00fc CA85     		mv	a1,s2
 234 00fe 13050500 		addi	a0,a0,%lo(.LC4)
 235 0102 97000000 		call	HAL_Printf
 235      E7800000 
 236              	.LVL18:
 237              	.L6:
  53:C:/Users/stapi/OneDrive/Desktop/GD32VW553/V1_MQTT_OK/GD32VW55X_Wifi_BLE_SDK/GD32VW55x_RELEASE_V1.0.2/MSDK/cloud/alicloud/src/infra/system/facility\fac_string.c ****     va_end(ap);
 238              		.loc 1 53 5 discriminator 7
  54:C:/Users/stapi/OneDrive/Desktop/GD32VW553/V1_MQTT_OK/GD32VW55X_Wifi_BLE_SDK/GD32VW55x_RELEASE_V1.0.2/MSDK/cloud/alicloud/src/infra/system/facility\fac_string.c **** 
 239              		.loc 1 54 5 discriminator 7
  56:C:/Users/stapi/OneDrive/Desktop/GD32VW553/V1_MQTT_OK/GD32VW55X_Wifi_BLE_SDK/GD32VW55x_RELEASE_V1.0.2/MSDK/cloud/alicloud/src/infra/system/facility\fac_string.c ****         char ch = str[i];
 240              		.loc 1 56 5 discriminator 7
  56:C:/Users/stapi/OneDrive/Desktop/GD32VW553/V1_MQTT_OK/GD32VW55X_Wifi_BLE_SDK/GD32VW55x_RELEASE_V1.0.2/MSDK/cloud/alicloud/src/infra/system/facility\fac_string.c ****         char ch = str[i];
 241              		.loc 1 56 12 is_stmt 0 discriminator 7
 242 010a 814B     		li	s7,0
  25:C:/Users/stapi/OneDrive/Desktop/GD32VW553/V1_MQTT_OK/GD32VW55X_Wifi_BLE_SDK/GD32VW55x_RELEASE_V1.0.2/MSDK/cloud/alicloud/src/infra/system/facility\fac_string.c ****     int             i = 0, j = 0;
 243              		.loc 1 25 21 discriminator 7
 244 010c 014A     		li	s4,0
  23:C:/Users/stapi/OneDrive/Desktop/GD32VW553/V1_MQTT_OK/GD32VW55X_Wifi_BLE_SDK/GD32VW55x_RELEASE_V1.0.2/MSDK/cloud/alicloud/src/infra/system/facility\fac_string.c ****     int             escaped = 0;
 245              		.loc 1 23 21 discriminator 7
 246 010e 814A     		li	s5,0
 247              	.LBB2:
  58:C:/Users/stapi/OneDrive/Desktop/GD32VW553/V1_MQTT_OK/GD32VW55X_Wifi_BLE_SDK/GD32VW55x_RELEASE_V1.0.2/MSDK/cloud/alicloud/src/infra/system/facility\fac_string.c ****             case '{':
 248              		.loc 1 58 9 discriminator 7
 249 0110 130BA003 		li	s6,58
  71:C:/Users/stapi/OneDrive/Desktop/GD32VW553/V1_MQTT_OK/GD32VW55X_Wifi_BLE_SDK/GD32VW55x_RELEASE_V1.0.2/MSDK/cloud/alicloud/src/infra/system/facility\fac_string.c ****                         }
 250              		.loc 1 71 29 discriminator 7
 251 0114 370C0000 		lui	s8,%hi(.LC5)
  65:C:/Users/stapi/OneDrive/Desktop/GD32VW553/V1_MQTT_OK/GD32VW55X_Wifi_BLE_SDK/GD32VW55x_RELEASE_V1.0.2/MSDK/cloud/alicloud/src/infra/system/facility\fac_string.c **** 
 252              		.loc 1 65 21 discriminator 7
 253 0118 370D0000 		lui	s10,%hi(.LC4)
 254 011c 937DB9FF 		andi	s11,s2,-5
 255              	.LVL19:
 256              	.L7:
 257              	.LBE2:
  56:C:/Users/stapi/OneDrive/Desktop/GD32VW553/V1_MQTT_OK/GD32VW55X_Wifi_BLE_SDK/GD32VW55x_RELEASE_V1.0.2/MSDK/cloud/alicloud/src/infra/system/facility\fac_string.c ****         char ch = str[i];
 258              		.loc 1 56 18 is_stmt 1 discriminator 1
  56:C:/Users/stapi/OneDrive/Desktop/GD32VW553/V1_MQTT_OK/GD32VW55X_Wifi_BLE_SDK/GD32VW55x_RELEASE_V1.0.2/MSDK/cloud/alicloud/src/infra/system/facility\fac_string.c ****         char ch = str[i];
 259              		.loc 1 56 5 is_stmt 0 discriminator 1
 260 0120 A247     		lw	a5,8(sp)
 261 0122 63C7FB02 		blt	s7,a5,.L35
 145:C:/Users/stapi/OneDrive/Desktop/GD32VW553/V1_MQTT_OK/GD32VW55X_Wifi_BLE_SDK/GD32VW55x_RELEASE_V1.0.2/MSDK/cloud/alicloud/src/infra/system/facility\fac_string.c ****     HAL_Printf("%s", "\033[0m");
 262              		.loc 1 145 5 is_stmt 1
 263 0126 B7050000 		lui	a1,%hi(.LC7)
 264 012a 13050400 		addi	a0,s0,%lo(.LC3)
 265 012e 93850500 		addi	a1,a1,%lo(.LC7)
 266 0132 97000000 		call	HAL_Printf
 266      E7800000 
 267              	.LVL20:
 146:C:/Users/stapi/OneDrive/Desktop/GD32VW553/V1_MQTT_OK/GD32VW55X_Wifi_BLE_SDK/GD32VW55x_RELEASE_V1.0.2/MSDK/cloud/alicloud/src/infra/system/facility\fac_string.c ****     return 0;
 268              		.loc 1 146 5
 269 013a B7050000 		lui	a1,%hi(.LC8)
 270 013e 93850500 		addi	a1,a1,%lo(.LC8)
 271 0142 13050400 		addi	a0,s0,%lo(.LC3)
 272 0146 97000000 		call	HAL_Printf
 272      E7800000 
 273              	.LVL21:
 147:C:/Users/stapi/OneDrive/Desktop/GD32VW553/V1_MQTT_OK/GD32VW55X_Wifi_BLE_SDK/GD32VW55x_RELEASE_V1.0.2/MSDK/cloud/alicloud/src/infra/system/facility\fac_string.c **** }
 274              		.loc 1 147 5
 147:C:/Users/stapi/OneDrive/Desktop/GD32VW553/V1_MQTT_OK/GD32VW55X_Wifi_BLE_SDK/GD32VW55x_RELEASE_V1.0.2/MSDK/cloud/alicloud/src/infra/system/facility\fac_string.c **** }
 275              		.loc 1 147 12 is_stmt 0
 276 014e 21BF     		j	.L1
 277              	.L35:
 278              	.LBB3:
  57:C:/Users/stapi/OneDrive/Desktop/GD32VW553/V1_MQTT_OK/GD32VW55X_Wifi_BLE_SDK/GD32VW55x_RELEASE_V1.0.2/MSDK/cloud/alicloud/src/infra/system/facility\fac_string.c ****         switch (ch) {
 279              		.loc 1 57 9 is_stmt 1
  57:C:/Users/stapi/OneDrive/Desktop/GD32VW553/V1_MQTT_OK/GD32VW55X_Wifi_BLE_SDK/GD32VW55x_RELEASE_V1.0.2/MSDK/cloud/alicloud/src/infra/system/facility\fac_string.c ****         switch (ch) {
 280              		.loc 1 57 14 is_stmt 0
 281 0150 838C0400 		lb	s9,0(s1)
 282              	.LVL22:
  58:C:/Users/stapi/OneDrive/Desktop/GD32VW553/V1_MQTT_OK/GD32VW55X_Wifi_BLE_SDK/GD32VW55x_RELEASE_V1.0.2/MSDK/cloud/alicloud/src/infra/system/facility\fac_string.c ****             case '{':
 283              		.loc 1 58 9 is_stmt 1
 284 0154 638B6C1D 		beq	s9,s6,.L8
 285 0158 634E9B01 		bgt	s9,s6,.L9
 286 015c 13072002 		li	a4,34
 287 0160 6383EC14 		beq	s9,a4,.L10
 288 0164 1307C002 		li	a4,44
 289 0168 6383EC16 		beq	s9,a4,.L11
 290              	.L12:
 138:C:/Users/stapi/OneDrive/Desktop/GD32VW553/V1_MQTT_OK/GD32VW55X_Wifi_BLE_SDK/GD32VW55x_RELEASE_V1.0.2/MSDK/cloud/alicloud/src/infra/system/facility\fac_string.c ****                 JSON_PRINT_NEWSTR;
 291              		.loc 1 138 17
 138:C:/Users/stapi/OneDrive/Desktop/GD32VW553/V1_MQTT_OK/GD32VW55X_Wifi_BLE_SDK/GD32VW55x_RELEASE_V1.0.2/MSDK/cloud/alicloud/src/infra/system/facility\fac_string.c ****                 JSON_PRINT_NEWSTR;
 292              		.loc 1 138 27 is_stmt 0
 293 016c 230C9101 		sb	s9,24(sp)
 139:C:/Users/stapi/OneDrive/Desktop/GD32VW553/V1_MQTT_OK/GD32VW55X_Wifi_BLE_SDK/GD32VW55x_RELEASE_V1.0.2/MSDK/cloud/alicloud/src/infra/system/facility\fac_string.c **** 
 294              		.loc 1 139 17 is_stmt 1
 295 0170 2C08     		addi	a1,sp,24
 296 0172 D9AA     		j	.L53
 297              	.L9:
  58:C:/Users/stapi/OneDrive/Desktop/GD32VW553/V1_MQTT_OK/GD32VW55X_Wifi_BLE_SDK/GD32VW55x_RELEASE_V1.0.2/MSDK/cloud/alicloud/src/infra/system/facility\fac_string.c ****             case '{':
 298              		.loc 1 58 9 is_stmt 0
 299 0174 9307B007 		li	a5,123
 300 0178 6380FC08 		beq	s9,a5,.L13
 301 017c 1307D007 		li	a4,125
 302 0180 63C89701 		bgt	s9,a5,.L52
 303 0184 1307B005 		li	a4,91
 304 0188 6388EC06 		beq	s9,a4,.L13
 305 018c 1307D005 		li	a4,93
 306              	.L52:
 307 0190 E39EECFC 		bne	s9,a4,.L12
  80:C:/Users/stapi/OneDrive/Desktop/GD32VW553/V1_MQTT_OK/GD32VW55X_Wifi_BLE_SDK/GD32VW55x_RELEASE_V1.0.2/MSDK/cloud/alicloud/src/infra/system/facility\fac_string.c ****                     if ((i > 0) && (!(str[i - 1] == '{' || str[i - 1] == '['))) {
 308              		.loc 1 80 17 is_stmt 1
  80:C:/Users/stapi/OneDrive/Desktop/GD32VW553/V1_MQTT_OK/GD32VW55X_Wifi_BLE_SDK/GD32VW55x_RELEASE_V1.0.2/MSDK/cloud/alicloud/src/infra/system/facility\fac_string.c ****                     if ((i > 0) && (!(str[i - 1] == '{' || str[i - 1] == '['))) {
 309              		.loc 1 80 20 is_stmt 0
 310 0194 E39C0AFC 		bne	s5,zero,.L12
  81:C:/Users/stapi/OneDrive/Desktop/GD32VW553/V1_MQTT_OK/GD32VW55X_Wifi_BLE_SDK/GD32VW55x_RELEASE_V1.0.2/MSDK/cloud/alicloud/src/infra/system/facility\fac_string.c ****                         JSON_PRINT_NEWLINE;
 311              		.loc 1 81 21 is_stmt 1
  81:C:/Users/stapi/OneDrive/Desktop/GD32VW553/V1_MQTT_OK/GD32VW55X_Wifi_BLE_SDK/GD32VW55x_RELEASE_V1.0.2/MSDK/cloud/alicloud/src/infra/system/facility\fac_string.c ****                         JSON_PRINT_NEWLINE;
 312              		.loc 1 81 24 is_stmt 0
 313 0198 E38A0BFC 		beq	s7,zero,.L12
  81:C:/Users/stapi/OneDrive/Desktop/GD32VW553/V1_MQTT_OK/GD32VW55X_Wifi_BLE_SDK/GD32VW55x_RELEASE_V1.0.2/MSDK/cloud/alicloud/src/infra/system/facility\fac_string.c ****                         JSON_PRINT_NEWLINE;
 314              		.loc 1 81 42 discriminator 1
 315 019c 0387F4FF 		lb	a4,-1(s1)
  81:C:/Users/stapi/OneDrive/Desktop/GD32VW553/V1_MQTT_OK/GD32VW55X_Wifi_BLE_SDK/GD32VW55x_RELEASE_V1.0.2/MSDK/cloud/alicloud/src/infra/system/facility\fac_string.c ****                         JSON_PRINT_NEWLINE;
 316              		.loc 1 81 37 discriminator 1
 317 01a0 1306B005 		li	a2,91
 318 01a4 9376F7FD 		andi	a3,a4,-33
 319 01a8 6382C60C 		beq	a3,a2,.L22
  82:C:/Users/stapi/OneDrive/Desktop/GD32VW553/V1_MQTT_OK/GD32VW55X_Wifi_BLE_SDK/GD32VW55x_RELEASE_V1.0.2/MSDK/cloud/alicloud/src/infra/system/facility\fac_string.c ****                         --indent;
 320              		.loc 1 82 25 is_stmt 1
  82:C:/Users/stapi/OneDrive/Desktop/GD32VW553/V1_MQTT_OK/GD32VW55X_Wifi_BLE_SDK/GD32VW55x_RELEASE_V1.0.2/MSDK/cloud/alicloud/src/infra/system/facility\fac_string.c ****                         --indent;
 321              		.loc 1 82 25
 322 01ac 9247     		lw	a5,4(sp)
 323 01ae 13050400 		addi	a0,s0,%lo(.LC3)
 324 01b2 93850700 		addi	a1,a5,%lo(.LC2)
 325 01b6 97000000 		call	HAL_Printf
 325      E7800000 
 326              	.LVL23:
  82:C:/Users/stapi/OneDrive/Desktop/GD32VW553/V1_MQTT_OK/GD32VW55X_Wifi_BLE_SDK/GD32VW55x_RELEASE_V1.0.2/MSDK/cloud/alicloud/src/infra/system/facility\fac_string.c ****                         --indent;
 327              		.loc 1 82 25
 328 01be 1307C003 		li	a4,60
 329 01c2 6304E900 		beq	s2,a4,.L23
  82:C:/Users/stapi/OneDrive/Desktop/GD32VW553/V1_MQTT_OK/GD32VW55X_Wifi_BLE_SDK/GD32VW55x_RELEASE_V1.0.2/MSDK/cloud/alicloud/src/infra/system/facility\fac_string.c ****                         --indent;
 330              		.loc 1 82 25 is_stmt 0 discriminator 4
 331 01c6 63996D01 		bne	s11,s6,.L24
 332              	.L23:
  82:C:/Users/stapi/OneDrive/Desktop/GD32VW553/V1_MQTT_OK/GD32VW55X_Wifi_BLE_SDK/GD32VW55x_RELEASE_V1.0.2/MSDK/cloud/alicloud/src/infra/system/facility\fac_string.c ****                         --indent;
 333              		.loc 1 82 25 is_stmt 1 discriminator 5
 334 01ca CA85     		mv	a1,s2
 335 01cc 13050D00 		addi	a0,s10,%lo(.LC4)
 336 01d0 97000000 		call	HAL_Printf
 336      E7800000 
 337              	.LVL24:
 338              	.L24:
  82:C:/Users/stapi/OneDrive/Desktop/GD32VW553/V1_MQTT_OK/GD32VW55X_Wifi_BLE_SDK/GD32VW55x_RELEASE_V1.0.2/MSDK/cloud/alicloud/src/infra/system/facility\fac_string.c ****                         --indent;
 339              		.loc 1 82 25 discriminator 7
  83:C:/Users/stapi/OneDrive/Desktop/GD32VW553/V1_MQTT_OK/GD32VW55X_Wifi_BLE_SDK/GD32VW55x_RELEASE_V1.0.2/MSDK/cloud/alicloud/src/infra/system/facility\fac_string.c **** 
 340              		.loc 1 83 25 discriminator 7
 341 01d8 7D1A     		addi	s4,s4,-1
 342              	.LVL25:
  85:C:/Users/stapi/OneDrive/Desktop/GD32VW553/V1_MQTT_OK/GD32VW55X_Wifi_BLE_SDK/GD32VW55x_RELEASE_V1.0.2/MSDK/cloud/alicloud/src/infra/system/facility\fac_string.c ****                             HAL_Printf("%s", JSON_INDENT);
 343              		.loc 1 85 25 discriminator 7
  85:C:/Users/stapi/OneDrive/Desktop/GD32VW553/V1_MQTT_OK/GD32VW55X_Wifi_BLE_SDK/GD32VW55x_RELEASE_V1.0.2/MSDK/cloud/alicloud/src/infra/system/facility\fac_string.c ****                             HAL_Printf("%s", JSON_INDENT);
 344              		.loc 1 85 32 is_stmt 0 discriminator 7
 345 01da 0147     		li	a4,0
 346              	.LVL26:
 347              	.L25:
  85:C:/Users/stapi/OneDrive/Desktop/GD32VW553/V1_MQTT_OK/GD32VW55X_Wifi_BLE_SDK/GD32VW55x_RELEASE_V1.0.2/MSDK/cloud/alicloud/src/infra/system/facility\fac_string.c ****                             HAL_Printf("%s", JSON_INDENT);
 348              		.loc 1 85 38 is_stmt 1 discriminator 1
  85:C:/Users/stapi/OneDrive/Desktop/GD32VW553/V1_MQTT_OK/GD32VW55X_Wifi_BLE_SDK/GD32VW55x_RELEASE_V1.0.2/MSDK/cloud/alicloud/src/infra/system/facility\fac_string.c ****                             HAL_Printf("%s", JSON_INDENT);
 349              		.loc 1 85 25 is_stmt 0 discriminator 1
 350 01dc E35847F9 		bge	a4,s4,.L12
  86:C:/Users/stapi/OneDrive/Desktop/GD32VW553/V1_MQTT_OK/GD32VW55X_Wifi_BLE_SDK/GD32VW55x_RELEASE_V1.0.2/MSDK/cloud/alicloud/src/infra/system/facility\fac_string.c ****                         }
 351              		.loc 1 86 29 discriminator 3
 352 01e0 93050C00 		addi	a1,s8,%lo(.LC5)
 353 01e4 13050400 		addi	a0,s0,%lo(.LC3)
 354 01e8 3AC6     		sw	a4,12(sp)
  86:C:/Users/stapi/OneDrive/Desktop/GD32VW553/V1_MQTT_OK/GD32VW55X_Wifi_BLE_SDK/GD32VW55x_RELEASE_V1.0.2/MSDK/cloud/alicloud/src/infra/system/facility\fac_string.c ****                         }
 355              		.loc 1 86 29 is_stmt 1 discriminator 3
 356 01ea 97000000 		call	HAL_Printf
 356      E7800000 
 357              	.LVL27:
  85:C:/Users/stapi/OneDrive/Desktop/GD32VW553/V1_MQTT_OK/GD32VW55X_Wifi_BLE_SDK/GD32VW55x_RELEASE_V1.0.2/MSDK/cloud/alicloud/src/infra/system/facility\fac_string.c ****                             HAL_Printf("%s", JSON_INDENT);
 358              		.loc 1 85 51 discriminator 3
  85:C:/Users/stapi/OneDrive/Desktop/GD32VW553/V1_MQTT_OK/GD32VW55X_Wifi_BLE_SDK/GD32VW55x_RELEASE_V1.0.2/MSDK/cloud/alicloud/src/infra/system/facility\fac_string.c ****                             HAL_Printf("%s", JSON_INDENT);
 359              		.loc 1 85 52 is_stmt 0 discriminator 3
 360 01f2 3247     		lw	a4,12(sp)
 361 01f4 0507     		addi	a4,a4,1
 362              	.LVL28:
 363 01f6 DDB7     		j	.L25
 364              	.LVL29:
 365              	.L13:
  61:C:/Users/stapi/OneDrive/Desktop/GD32VW553/V1_MQTT_OK/GD32VW55X_Wifi_BLE_SDK/GD32VW55x_RELEASE_V1.0.2/MSDK/cloud/alicloud/src/infra/system/facility\fac_string.c ****                 JSON_PRINT_NEWSTR;
 366              		.loc 1 61 17 is_stmt 1
  62:C:/Users/stapi/OneDrive/Desktop/GD32VW553/V1_MQTT_OK/GD32VW55X_Wifi_BLE_SDK/GD32VW55x_RELEASE_V1.0.2/MSDK/cloud/alicloud/src/infra/system/facility\fac_string.c **** 
 367              		.loc 1 62 17 is_stmt 0
 368 01f8 2C08     		addi	a1,sp,24
 369 01fa 13050400 		addi	a0,s0,%lo(.LC3)
  61:C:/Users/stapi/OneDrive/Desktop/GD32VW553/V1_MQTT_OK/GD32VW55X_Wifi_BLE_SDK/GD32VW55x_RELEASE_V1.0.2/MSDK/cloud/alicloud/src/infra/system/facility\fac_string.c ****                 JSON_PRINT_NEWSTR;
 370              		.loc 1 61 27
 371 01fe 230C9101 		sb	s9,24(sp)
  62:C:/Users/stapi/OneDrive/Desktop/GD32VW553/V1_MQTT_OK/GD32VW55X_Wifi_BLE_SDK/GD32VW55x_RELEASE_V1.0.2/MSDK/cloud/alicloud/src/infra/system/facility\fac_string.c **** 
 372              		.loc 1 62 17 is_stmt 1
 373 0202 97000000 		call	HAL_Printf
 373      E7800000 
 374              	.LVL30:
  62:C:/Users/stapi/OneDrive/Desktop/GD32VW553/V1_MQTT_OK/GD32VW55X_Wifi_BLE_SDK/GD32VW55x_RELEASE_V1.0.2/MSDK/cloud/alicloud/src/infra/system/facility\fac_string.c **** 
 375              		.loc 1 62 34
  64:C:/Users/stapi/OneDrive/Desktop/GD32VW553/V1_MQTT_OK/GD32VW55X_Wifi_BLE_SDK/GD32VW55x_RELEASE_V1.0.2/MSDK/cloud/alicloud/src/infra/system/facility\fac_string.c ****                     JSON_PRINT_NEWLINE;
 376              		.loc 1 64 17
  64:C:/Users/stapi/OneDrive/Desktop/GD32VW553/V1_MQTT_OK/GD32VW55X_Wifi_BLE_SDK/GD32VW55x_RELEASE_V1.0.2/MSDK/cloud/alicloud/src/infra/system/facility\fac_string.c ****                     JSON_PRINT_NEWLINE;
 377              		.loc 1 64 20 is_stmt 0
 378 020a 63940A04 		bne	s5,zero,.L16
  65:C:/Users/stapi/OneDrive/Desktop/GD32VW553/V1_MQTT_OK/GD32VW55X_Wifi_BLE_SDK/GD32VW55x_RELEASE_V1.0.2/MSDK/cloud/alicloud/src/infra/system/facility\fac_string.c **** 
 379              		.loc 1 65 21 is_stmt 1
  65:C:/Users/stapi/OneDrive/Desktop/GD32VW553/V1_MQTT_OK/GD32VW55X_Wifi_BLE_SDK/GD32VW55x_RELEASE_V1.0.2/MSDK/cloud/alicloud/src/infra/system/facility\fac_string.c **** 
 380              		.loc 1 65 21
 381 020e 9247     		lw	a5,4(sp)
 382 0210 13050400 		addi	a0,s0,%lo(.LC3)
 383 0214 93850700 		addi	a1,a5,%lo(.LC2)
 384 0218 97000000 		call	HAL_Printf
 384      E7800000 
 385              	.LVL31:
  65:C:/Users/stapi/OneDrive/Desktop/GD32VW553/V1_MQTT_OK/GD32VW55X_Wifi_BLE_SDK/GD32VW55x_RELEASE_V1.0.2/MSDK/cloud/alicloud/src/infra/system/facility\fac_string.c **** 
 386              		.loc 1 65 21
 387 0220 9307C003 		li	a5,60
 388 0224 6304F900 		beq	s2,a5,.L17
  65:C:/Users/stapi/OneDrive/Desktop/GD32VW553/V1_MQTT_OK/GD32VW55X_Wifi_BLE_SDK/GD32VW55x_RELEASE_V1.0.2/MSDK/cloud/alicloud/src/infra/system/facility\fac_string.c **** 
 389              		.loc 1 65 21 is_stmt 0 discriminator 4
 390 0228 63996D01 		bne	s11,s6,.L18
 391              	.L17:
  65:C:/Users/stapi/OneDrive/Desktop/GD32VW553/V1_MQTT_OK/GD32VW55X_Wifi_BLE_SDK/GD32VW55x_RELEASE_V1.0.2/MSDK/cloud/alicloud/src/infra/system/facility\fac_string.c **** 
 392              		.loc 1 65 21 is_stmt 1 discriminator 5
 393 022c CA85     		mv	a1,s2
 394 022e 13050D00 		addi	a0,s10,%lo(.LC4)
 395 0232 97000000 		call	HAL_Printf
 395      E7800000 
 396              	.LVL32:
 397              	.L18:
  65:C:/Users/stapi/OneDrive/Desktop/GD32VW553/V1_MQTT_OK/GD32VW55X_Wifi_BLE_SDK/GD32VW55x_RELEASE_V1.0.2/MSDK/cloud/alicloud/src/infra/system/facility\fac_string.c **** 
 398              		.loc 1 65 21 discriminator 7
  67:C:/Users/stapi/OneDrive/Desktop/GD32VW553/V1_MQTT_OK/GD32VW55X_Wifi_BLE_SDK/GD32VW55x_RELEASE_V1.0.2/MSDK/cloud/alicloud/src/infra/system/facility\fac_string.c ****                         ++indent;
 399              		.loc 1 67 21 discriminator 7
  67:C:/Users/stapi/OneDrive/Desktop/GD32VW553/V1_MQTT_OK/GD32VW55X_Wifi_BLE_SDK/GD32VW55x_RELEASE_V1.0.2/MSDK/cloud/alicloud/src/infra/system/facility\fac_string.c ****                         ++indent;
 400              		.loc 1 67 25 is_stmt 0 discriminator 7
 401 023a 83871400 		lb	a5,1(s1)
 402 023e 1307D005 		li	a4,93
 403 0242 93F7F7FD 		andi	a5,a5,-33
 404 0246 6386E700 		beq	a5,a4,.L16
  68:C:/Users/stapi/OneDrive/Desktop/GD32VW553/V1_MQTT_OK/GD32VW55X_Wifi_BLE_SDK/GD32VW55x_RELEASE_V1.0.2/MSDK/cloud/alicloud/src/infra/system/facility\fac_string.c **** 
 405              		.loc 1 68 25 is_stmt 1
 406 024a 050A     		addi	s4,s4,1
 407              	.LVL33:
  70:C:/Users/stapi/OneDrive/Desktop/GD32VW553/V1_MQTT_OK/GD32VW55X_Wifi_BLE_SDK/GD32VW55x_RELEASE_V1.0.2/MSDK/cloud/alicloud/src/infra/system/facility\fac_string.c ****                             HAL_Printf("%s", JSON_INDENT);
 408              		.loc 1 70 25
  70:C:/Users/stapi/OneDrive/Desktop/GD32VW553/V1_MQTT_OK/GD32VW55X_Wifi_BLE_SDK/GD32VW55x_RELEASE_V1.0.2/MSDK/cloud/alicloud/src/infra/system/facility\fac_string.c ****                             HAL_Printf("%s", JSON_INDENT);
 409              		.loc 1 70 32 is_stmt 0
 410 024c 814C     		li	s9,0
 411              	.LVL34:
 412              	.L19:
  70:C:/Users/stapi/OneDrive/Desktop/GD32VW553/V1_MQTT_OK/GD32VW55X_Wifi_BLE_SDK/GD32VW55x_RELEASE_V1.0.2/MSDK/cloud/alicloud/src/infra/system/facility\fac_string.c ****                             HAL_Printf("%s", JSON_INDENT);
 413              		.loc 1 70 38 is_stmt 1 discriminator 1
  70:C:/Users/stapi/OneDrive/Desktop/GD32VW553/V1_MQTT_OK/GD32VW55X_Wifi_BLE_SDK/GD32VW55x_RELEASE_V1.0.2/MSDK/cloud/alicloud/src/infra/system/facility\fac_string.c ****                             HAL_Printf("%s", JSON_INDENT);
 414              		.loc 1 70 25 is_stmt 0 discriminator 1
 415 024e 63C54C01 		blt	s9,s4,.L20
 416              	.LVL35:
 417              	.L16:
 418              	.LBE3:
  56:C:/Users/stapi/OneDrive/Desktop/GD32VW553/V1_MQTT_OK/GD32VW55X_Wifi_BLE_SDK/GD32VW55x_RELEASE_V1.0.2/MSDK/cloud/alicloud/src/infra/system/facility\fac_string.c ****         char ch = str[i];
 419              		.loc 1 56 31 is_stmt 1 discriminator 2
  56:C:/Users/stapi/OneDrive/Desktop/GD32VW553/V1_MQTT_OK/GD32VW55X_Wifi_BLE_SDK/GD32VW55x_RELEASE_V1.0.2/MSDK/cloud/alicloud/src/infra/system/facility\fac_string.c ****         char ch = str[i];
 420              		.loc 1 56 32 is_stmt 0 discriminator 2
 421 0252 850B     		addi	s7,s7,1
 422              	.LVL36:
 423 0254 8504     		addi	s1,s1,1
 424 0256 E9B5     		j	.L7
 425              	.LVL37:
 426              	.L20:
 427              	.LBB4:
  71:C:/Users/stapi/OneDrive/Desktop/GD32VW553/V1_MQTT_OK/GD32VW55X_Wifi_BLE_SDK/GD32VW55x_RELEASE_V1.0.2/MSDK/cloud/alicloud/src/infra/system/facility\fac_string.c ****                         }
 428              		.loc 1 71 29 is_stmt 1 discriminator 3
 429 0258 93050C00 		addi	a1,s8,%lo(.LC5)
 430 025c 13050400 		addi	a0,s0,%lo(.LC3)
 431 0260 97000000 		call	HAL_Printf
 431      E7800000 
 432              	.LVL38:
  70:C:/Users/stapi/OneDrive/Desktop/GD32VW553/V1_MQTT_OK/GD32VW55X_Wifi_BLE_SDK/GD32VW55x_RELEASE_V1.0.2/MSDK/cloud/alicloud/src/infra/system/facility\fac_string.c ****                             HAL_Printf("%s", JSON_INDENT);
 433              		.loc 1 70 51 discriminator 3
  70:C:/Users/stapi/OneDrive/Desktop/GD32VW553/V1_MQTT_OK/GD32VW55X_Wifi_BLE_SDK/GD32VW55x_RELEASE_V1.0.2/MSDK/cloud/alicloud/src/infra/system/facility\fac_string.c ****                             HAL_Printf("%s", JSON_INDENT);
 434              		.loc 1 70 52 is_stmt 0 discriminator 3
 435 0268 850C     		addi	s9,s9,1
 436              	.LVL39:
 437 026a D5B7     		j	.L19
 438              	.LVL40:
 439              	.L22:
  88:C:/Users/stapi/OneDrive/Desktop/GD32VW553/V1_MQTT_OK/GD32VW55X_Wifi_BLE_SDK/GD32VW55x_RELEASE_V1.0.2/MSDK/cloud/alicloud/src/infra/system/facility\fac_string.c ****                         for (j = 0 ; j < indent ; j++) {
 440              		.loc 1 88 28 is_stmt 1 discriminator 1
  88:C:/Users/stapi/OneDrive/Desktop/GD32VW553/V1_MQTT_OK/GD32VW55X_Wifi_BLE_SDK/GD32VW55x_RELEASE_V1.0.2/MSDK/cloud/alicloud/src/infra/system/facility\fac_string.c ****                         for (j = 0 ; j < indent ; j++) {
 441              		.loc 1 88 40 is_stmt 0 discriminator 1
 442 026c 6318D700 		bne	a4,a3,.L27
  88:C:/Users/stapi/OneDrive/Desktop/GD32VW553/V1_MQTT_OK/GD32VW55X_Wifi_BLE_SDK/GD32VW55x_RELEASE_V1.0.2/MSDK/cloud/alicloud/src/infra/system/facility\fac_string.c ****                         for (j = 0 ; j < indent ; j++) {
 443              		.loc 1 88 63 discriminator 2
 444 0270 1307D005 		li	a4,93
 445              	.L55:
  88:C:/Users/stapi/OneDrive/Desktop/GD32VW553/V1_MQTT_OK/GD32VW55X_Wifi_BLE_SDK/GD32VW55x_RELEASE_V1.0.2/MSDK/cloud/alicloud/src/infra/system/facility\fac_string.c ****                         for (j = 0 ; j < indent ; j++) {
 446              		.loc 1 88 99 discriminator 5
 447 0274 E39CECEE 		bne	s9,a4,.L12
 448 0278 0147     		li	a4,0
 449 027a 1DA0     		j	.L29
 450              	.L27:
  88:C:/Users/stapi/OneDrive/Desktop/GD32VW553/V1_MQTT_OK/GD32VW55X_Wifi_BLE_SDK/GD32VW55x_RELEASE_V1.0.2/MSDK/cloud/alicloud/src/infra/system/facility\fac_string.c ****                         for (j = 0 ; j < indent ; j++) {
 451              		.loc 1 88 77 discriminator 4
 452 027c 9307B007 		li	a5,123
 453 0280 E316F7EE 		bne	a4,a5,.L12
  88:C:/Users/stapi/OneDrive/Desktop/GD32VW553/V1_MQTT_OK/GD32VW55X_Wifi_BLE_SDK/GD32VW55x_RELEASE_V1.0.2/MSDK/cloud/alicloud/src/infra/system/facility\fac_string.c ****                         for (j = 0 ; j < indent ; j++) {
 454              		.loc 1 88 99 discriminator 5
 455 0284 1307D007 		li	a4,125
 456 0288 F5B7     		j	.L55
 457              	.LVL41:
 458              	.L30:
  90:C:/Users/stapi/OneDrive/Desktop/GD32VW553/V1_MQTT_OK/GD32VW55X_Wifi_BLE_SDK/GD32VW55x_RELEASE_V1.0.2/MSDK/cloud/alicloud/src/infra/system/facility\fac_string.c ****                         }
 459              		.loc 1 90 29 discriminator 3
 460 028a 93050C00 		addi	a1,s8,%lo(.LC5)
 461 028e 13050400 		addi	a0,s0,%lo(.LC3)
 462 0292 3AC6     		sw	a4,12(sp)
  90:C:/Users/stapi/OneDrive/Desktop/GD32VW553/V1_MQTT_OK/GD32VW55X_Wifi_BLE_SDK/GD32VW55x_RELEASE_V1.0.2/MSDK/cloud/alicloud/src/infra/system/facility\fac_string.c ****                         }
 463              		.loc 1 90 29 is_stmt 1 discriminator 3
 464 0294 97000000 		call	HAL_Printf
 464      E7800000 
 465              	.LVL42:
  89:C:/Users/stapi/OneDrive/Desktop/GD32VW553/V1_MQTT_OK/GD32VW55X_Wifi_BLE_SDK/GD32VW55x_RELEASE_V1.0.2/MSDK/cloud/alicloud/src/infra/system/facility\fac_string.c ****                             HAL_Printf("%s", JSON_INDENT);
 466              		.loc 1 89 51 discriminator 3
  89:C:/Users/stapi/OneDrive/Desktop/GD32VW553/V1_MQTT_OK/GD32VW55X_Wifi_BLE_SDK/GD32VW55x_RELEASE_V1.0.2/MSDK/cloud/alicloud/src/infra/system/facility\fac_string.c ****                             HAL_Printf("%s", JSON_INDENT);
 467              		.loc 1 89 52 is_stmt 0 discriminator 3
 468 029c 3247     		lw	a4,12(sp)
 469 029e 0507     		addi	a4,a4,1
 470              	.LVL43:
 471              	.L29:
  89:C:/Users/stapi/OneDrive/Desktop/GD32VW553/V1_MQTT_OK/GD32VW55X_Wifi_BLE_SDK/GD32VW55x_RELEASE_V1.0.2/MSDK/cloud/alicloud/src/infra/system/facility\fac_string.c ****                             HAL_Printf("%s", JSON_INDENT);
 472              		.loc 1 89 38 is_stmt 1 discriminator 1
  89:C:/Users/stapi/OneDrive/Desktop/GD32VW553/V1_MQTT_OK/GD32VW55X_Wifi_BLE_SDK/GD32VW55x_RELEASE_V1.0.2/MSDK/cloud/alicloud/src/infra/system/facility\fac_string.c ****                             HAL_Printf("%s", JSON_INDENT);
 473              		.loc 1 89 25 is_stmt 0 discriminator 1
 474 02a0 E34547FF 		bgt	s4,a4,.L30
 475 02a4 E1B5     		j	.L12
 476              	.LVL44:
 477              	.L10:
 101:C:/Users/stapi/OneDrive/Desktop/GD32VW553/V1_MQTT_OK/GD32VW55X_Wifi_BLE_SDK/GD32VW55x_RELEASE_V1.0.2/MSDK/cloud/alicloud/src/infra/system/facility\fac_string.c ****                 JSON_PRINT_NEWSTR;
 478              		.loc 1 101 17 is_stmt 1
 102:C:/Users/stapi/OneDrive/Desktop/GD32VW553/V1_MQTT_OK/GD32VW55X_Wifi_BLE_SDK/GD32VW55x_RELEASE_V1.0.2/MSDK/cloud/alicloud/src/infra/system/facility\fac_string.c ****                 escaped = 1;
 479              		.loc 1 102 17 is_stmt 0
 480 02a6 2C08     		addi	a1,sp,24
 481 02a8 13050400 		addi	a0,s0,%lo(.LC3)
 101:C:/Users/stapi/OneDrive/Desktop/GD32VW553/V1_MQTT_OK/GD32VW55X_Wifi_BLE_SDK/GD32VW55x_RELEASE_V1.0.2/MSDK/cloud/alicloud/src/infra/system/facility\fac_string.c ****                 JSON_PRINT_NEWSTR;
 482              		.loc 1 101 27
 483 02ac 230C9101 		sb	s9,24(sp)
 102:C:/Users/stapi/OneDrive/Desktop/GD32VW553/V1_MQTT_OK/GD32VW55X_Wifi_BLE_SDK/GD32VW55x_RELEASE_V1.0.2/MSDK/cloud/alicloud/src/infra/system/facility\fac_string.c ****                 escaped = 1;
 484              		.loc 1 102 17 is_stmt 1
 485 02b0 97000000 		call	HAL_Printf
 485      E7800000 
 486              	.LVL45:
 102:C:/Users/stapi/OneDrive/Desktop/GD32VW553/V1_MQTT_OK/GD32VW55X_Wifi_BLE_SDK/GD32VW55x_RELEASE_V1.0.2/MSDK/cloud/alicloud/src/infra/system/facility\fac_string.c ****                 escaped = 1;
 487              		.loc 1 102 34
 103:C:/Users/stapi/OneDrive/Desktop/GD32VW553/V1_MQTT_OK/GD32VW55X_Wifi_BLE_SDK/GD32VW55x_RELEASE_V1.0.2/MSDK/cloud/alicloud/src/infra/system/facility\fac_string.c **** 
 488              		.loc 1 103 17
 105:C:/Users/stapi/OneDrive/Desktop/GD32VW553/V1_MQTT_OK/GD32VW55X_Wifi_BLE_SDK/GD32VW55x_RELEASE_V1.0.2/MSDK/cloud/alicloud/src/infra/system/facility\fac_string.c ****                     escaped = !escaped;
 489              		.loc 1 105 17
 105:C:/Users/stapi/OneDrive/Desktop/GD32VW553/V1_MQTT_OK/GD32VW55X_Wifi_BLE_SDK/GD32VW55x_RELEASE_V1.0.2/MSDK/cloud/alicloud/src/infra/system/facility\fac_string.c ****                     escaped = !escaped;
 490              		.loc 1 105 20 is_stmt 0
 491 02b8 E38D0BF8 		beq	s7,zero,.L16
 105:C:/Users/stapi/OneDrive/Desktop/GD32VW553/V1_MQTT_OK/GD32VW55X_Wifi_BLE_SDK/GD32VW55x_RELEASE_V1.0.2/MSDK/cloud/alicloud/src/infra/system/facility\fac_string.c ****                     escaped = !escaped;
 492              		.loc 1 105 27 discriminator 1
 493 02bc 9307C005 		li	a5,92
 494 02c0 0387F4FF 		lb	a4,-1(s1)
 495 02c4 E317F7F8 		bne	a4,a5,.L16
 106:C:/Users/stapi/OneDrive/Desktop/GD32VW553/V1_MQTT_OK/GD32VW55X_Wifi_BLE_SDK/GD32VW55x_RELEASE_V1.0.2/MSDK/cloud/alicloud/src/infra/system/facility\fac_string.c ****                 }
 496              		.loc 1 106 21 is_stmt 1
 497              	.LVL46:
 109:C:/Users/stapi/OneDrive/Desktop/GD32VW553/V1_MQTT_OK/GD32VW55X_Wifi_BLE_SDK/GD32VW55x_RELEASE_V1.0.2/MSDK/cloud/alicloud/src/infra/system/facility\fac_string.c ****                     quoted = !quoted;
 498              		.loc 1 109 17
 110:C:/Users/stapi/OneDrive/Desktop/GD32VW553/V1_MQTT_OK/GD32VW55X_Wifi_BLE_SDK/GD32VW55x_RELEASE_V1.0.2/MSDK/cloud/alicloud/src/infra/system/facility\fac_string.c ****                 }
 499              		.loc 1 110 21
 110:C:/Users/stapi/OneDrive/Desktop/GD32VW553/V1_MQTT_OK/GD32VW55X_Wifi_BLE_SDK/GD32VW55x_RELEASE_V1.0.2/MSDK/cloud/alicloud/src/infra/system/facility\fac_string.c ****                 }
 500              		.loc 1 110 30 is_stmt 0
 501 02c8 93CA1A00 		xori	s5,s5,1
 502              	.LVL47:
 503 02cc 59B7     		j	.L16
 504              	.LVL48:
 505              	.L11:
 116:C:/Users/stapi/OneDrive/Desktop/GD32VW553/V1_MQTT_OK/GD32VW55X_Wifi_BLE_SDK/GD32VW55x_RELEASE_V1.0.2/MSDK/cloud/alicloud/src/infra/system/facility\fac_string.c ****                 JSON_PRINT_NEWSTR;
 506              		.loc 1 116 17 is_stmt 1
 117:C:/Users/stapi/OneDrive/Desktop/GD32VW553/V1_MQTT_OK/GD32VW55X_Wifi_BLE_SDK/GD32VW55x_RELEASE_V1.0.2/MSDK/cloud/alicloud/src/infra/system/facility\fac_string.c ****                 if (!quoted) {
 507              		.loc 1 117 17 is_stmt 0
 508 02ce 2C08     		addi	a1,sp,24
 509 02d0 13050400 		addi	a0,s0,%lo(.LC3)
 116:C:/Users/stapi/OneDrive/Desktop/GD32VW553/V1_MQTT_OK/GD32VW55X_Wifi_BLE_SDK/GD32VW55x_RELEASE_V1.0.2/MSDK/cloud/alicloud/src/infra/system/facility\fac_string.c ****                 JSON_PRINT_NEWSTR;
 510              		.loc 1 116 27
 511 02d4 230C9101 		sb	s9,24(sp)
 117:C:/Users/stapi/OneDrive/Desktop/GD32VW553/V1_MQTT_OK/GD32VW55X_Wifi_BLE_SDK/GD32VW55x_RELEASE_V1.0.2/MSDK/cloud/alicloud/src/infra/system/facility\fac_string.c ****                 if (!quoted) {
 512              		.loc 1 117 17 is_stmt 1
 513 02d8 97000000 		call	HAL_Printf
 513      E7800000 
 514              	.LVL49:
 117:C:/Users/stapi/OneDrive/Desktop/GD32VW553/V1_MQTT_OK/GD32VW55X_Wifi_BLE_SDK/GD32VW55x_RELEASE_V1.0.2/MSDK/cloud/alicloud/src/infra/system/facility\fac_string.c ****                 if (!quoted) {
 515              		.loc 1 117 34
 118:C:/Users/stapi/OneDrive/Desktop/GD32VW553/V1_MQTT_OK/GD32VW55X_Wifi_BLE_SDK/GD32VW55x_RELEASE_V1.0.2/MSDK/cloud/alicloud/src/infra/system/facility\fac_string.c ****                     JSON_PRINT_NEWLINE;
 516              		.loc 1 118 17
 118:C:/Users/stapi/OneDrive/Desktop/GD32VW553/V1_MQTT_OK/GD32VW55X_Wifi_BLE_SDK/GD32VW55x_RELEASE_V1.0.2/MSDK/cloud/alicloud/src/infra/system/facility\fac_string.c ****                     JSON_PRINT_NEWLINE;
 517              		.loc 1 118 20 is_stmt 0
 518 02e0 E3990AF6 		bne	s5,zero,.L16
 119:C:/Users/stapi/OneDrive/Desktop/GD32VW553/V1_MQTT_OK/GD32VW55X_Wifi_BLE_SDK/GD32VW55x_RELEASE_V1.0.2/MSDK/cloud/alicloud/src/infra/system/facility\fac_string.c **** 
 519              		.loc 1 119 21 is_stmt 1
 119:C:/Users/stapi/OneDrive/Desktop/GD32VW553/V1_MQTT_OK/GD32VW55X_Wifi_BLE_SDK/GD32VW55x_RELEASE_V1.0.2/MSDK/cloud/alicloud/src/infra/system/facility\fac_string.c **** 
 520              		.loc 1 119 21
 521 02e4 9247     		lw	a5,4(sp)
 522 02e6 13050400 		addi	a0,s0,%lo(.LC3)
 523 02ea 93850700 		addi	a1,a5,%lo(.LC2)
 524 02ee 97000000 		call	HAL_Printf
 524      E7800000 
 525              	.LVL50:
 119:C:/Users/stapi/OneDrive/Desktop/GD32VW553/V1_MQTT_OK/GD32VW55X_Wifi_BLE_SDK/GD32VW55x_RELEASE_V1.0.2/MSDK/cloud/alicloud/src/infra/system/facility\fac_string.c **** 
 526              		.loc 1 119 21
 527 02f6 9307C003 		li	a5,60
 528 02fa 6304F900 		beq	s2,a5,.L31
 119:C:/Users/stapi/OneDrive/Desktop/GD32VW553/V1_MQTT_OK/GD32VW55X_Wifi_BLE_SDK/GD32VW55x_RELEASE_V1.0.2/MSDK/cloud/alicloud/src/infra/system/facility\fac_string.c **** 
 529              		.loc 1 119 21 is_stmt 0 discriminator 4
 530 02fe 63996D01 		bne	s11,s6,.L32
 531              	.L31:
 119:C:/Users/stapi/OneDrive/Desktop/GD32VW553/V1_MQTT_OK/GD32VW55X_Wifi_BLE_SDK/GD32VW55x_RELEASE_V1.0.2/MSDK/cloud/alicloud/src/infra/system/facility\fac_string.c **** 
 532              		.loc 1 119 21 is_stmt 1 discriminator 5
 533 0302 CA85     		mv	a1,s2
 534 0304 13050D00 		addi	a0,s10,%lo(.LC4)
 535 0308 97000000 		call	HAL_Printf
 535      E7800000 
 536              	.LVL51:
 537              	.L32:
 538 0310 814C     		li	s9,0
 539              	.LVL52:
 540              	.L33:
 121:C:/Users/stapi/OneDrive/Desktop/GD32VW553/V1_MQTT_OK/GD32VW55X_Wifi_BLE_SDK/GD32VW55x_RELEASE_V1.0.2/MSDK/cloud/alicloud/src/infra/system/facility\fac_string.c ****                         HAL_Printf("%s", JSON_INDENT);
 541              		.loc 1 121 34 discriminator 1
 121:C:/Users/stapi/OneDrive/Desktop/GD32VW553/V1_MQTT_OK/GD32VW55X_Wifi_BLE_SDK/GD32VW55x_RELEASE_V1.0.2/MSDK/cloud/alicloud/src/infra/system/facility\fac_string.c ****                         HAL_Printf("%s", JSON_INDENT);
 542              		.loc 1 121 21 is_stmt 0 discriminator 1
 543 0312 E3D04CF5 		ble	s4,s9,.L16
 122:C:/Users/stapi/OneDrive/Desktop/GD32VW553/V1_MQTT_OK/GD32VW55X_Wifi_BLE_SDK/GD32VW55x_RELEASE_V1.0.2/MSDK/cloud/alicloud/src/infra/system/facility\fac_string.c ****                     }
 544              		.loc 1 122 25 is_stmt 1 discriminator 3
 545 0316 93050C00 		addi	a1,s8,%lo(.LC5)
 546 031a 13050400 		addi	a0,s0,%lo(.LC3)
 547 031e 97000000 		call	HAL_Printf
 547      E7800000 
 548              	.LVL53:
 121:C:/Users/stapi/OneDrive/Desktop/GD32VW553/V1_MQTT_OK/GD32VW55X_Wifi_BLE_SDK/GD32VW55x_RELEASE_V1.0.2/MSDK/cloud/alicloud/src/infra/system/facility\fac_string.c ****                         HAL_Printf("%s", JSON_INDENT);
 549              		.loc 1 121 47 discriminator 3
 121:C:/Users/stapi/OneDrive/Desktop/GD32VW553/V1_MQTT_OK/GD32VW55X_Wifi_BLE_SDK/GD32VW55x_RELEASE_V1.0.2/MSDK/cloud/alicloud/src/infra/system/facility\fac_string.c ****                         HAL_Printf("%s", JSON_INDENT);
 550              		.loc 1 121 48 is_stmt 0 discriminator 3
 551 0326 850C     		addi	s9,s9,1
 552              	.LVL54:
 553 0328 EDB7     		j	.L33
 554              	.LVL55:
 555              	.L8:
 129:C:/Users/stapi/OneDrive/Desktop/GD32VW553/V1_MQTT_OK/GD32VW55X_Wifi_BLE_SDK/GD32VW55x_RELEASE_V1.0.2/MSDK/cloud/alicloud/src/infra/system/facility\fac_string.c ****                 JSON_PRINT_NEWSTR;
 556              		.loc 1 129 17 is_stmt 1
 130:C:/Users/stapi/OneDrive/Desktop/GD32VW553/V1_MQTT_OK/GD32VW55X_Wifi_BLE_SDK/GD32VW55x_RELEASE_V1.0.2/MSDK/cloud/alicloud/src/infra/system/facility\fac_string.c ****                 if (!quoted) {
 557              		.loc 1 130 17 is_stmt 0
 558 032a 2C08     		addi	a1,sp,24
 559 032c 13050400 		addi	a0,s0,%lo(.LC3)
 129:C:/Users/stapi/OneDrive/Desktop/GD32VW553/V1_MQTT_OK/GD32VW55X_Wifi_BLE_SDK/GD32VW55x_RELEASE_V1.0.2/MSDK/cloud/alicloud/src/infra/system/facility\fac_string.c ****                 JSON_PRINT_NEWSTR;
 560              		.loc 1 129 27
 561 0330 230C6101 		sb	s6,24(sp)
 130:C:/Users/stapi/OneDrive/Desktop/GD32VW553/V1_MQTT_OK/GD32VW55X_Wifi_BLE_SDK/GD32VW55x_RELEASE_V1.0.2/MSDK/cloud/alicloud/src/infra/system/facility\fac_string.c ****                 if (!quoted) {
 562              		.loc 1 130 17 is_stmt 1
 563 0334 97000000 		call	HAL_Printf
 563      E7800000 
 564              	.LVL56:
 130:C:/Users/stapi/OneDrive/Desktop/GD32VW553/V1_MQTT_OK/GD32VW55X_Wifi_BLE_SDK/GD32VW55x_RELEASE_V1.0.2/MSDK/cloud/alicloud/src/infra/system/facility\fac_string.c ****                 if (!quoted) {
 565              		.loc 1 130 34
 131:C:/Users/stapi/OneDrive/Desktop/GD32VW553/V1_MQTT_OK/GD32VW55X_Wifi_BLE_SDK/GD32VW55x_RELEASE_V1.0.2/MSDK/cloud/alicloud/src/infra/system/facility\fac_string.c ****                     HAL_Printf("%s", " ");
 566              		.loc 1 131 17
 131:C:/Users/stapi/OneDrive/Desktop/GD32VW553/V1_MQTT_OK/GD32VW55X_Wifi_BLE_SDK/GD32VW55x_RELEASE_V1.0.2/MSDK/cloud/alicloud/src/infra/system/facility\fac_string.c ****                     HAL_Printf("%s", " ");
 567              		.loc 1 131 20 is_stmt 0
 568 033c E39B0AF0 		bne	s5,zero,.L16
 132:C:/Users/stapi/OneDrive/Desktop/GD32VW553/V1_MQTT_OK/GD32VW55X_Wifi_BLE_SDK/GD32VW55x_RELEASE_V1.0.2/MSDK/cloud/alicloud/src/infra/system/facility\fac_string.c ****                 }
 569              		.loc 1 132 21 is_stmt 1
 570 0340 B7070000 		lui	a5,%hi(.LC6)
 571 0344 93850700 		addi	a1,a5,%lo(.LC6)
 572              	.L53:
 139:C:/Users/stapi/OneDrive/Desktop/GD32VW553/V1_MQTT_OK/GD32VW55X_Wifi_BLE_SDK/GD32VW55x_RELEASE_V1.0.2/MSDK/cloud/alicloud/src/infra/system/facility\fac_string.c **** 
 573              		.loc 1 139 17 is_stmt 0
 574 0348 13050400 		addi	a0,s0,%lo(.LC3)
 575 034c 97000000 		call	HAL_Printf
 575      E7800000 
 576              	.LVL57:
 139:C:/Users/stapi/OneDrive/Desktop/GD32VW553/V1_MQTT_OK/GD32VW55X_Wifi_BLE_SDK/GD32VW55x_RELEASE_V1.0.2/MSDK/cloud/alicloud/src/infra/system/facility\fac_string.c **** 
 577              		.loc 1 139 34 is_stmt 1
 141:C:/Users/stapi/OneDrive/Desktop/GD32VW553/V1_MQTT_OK/GD32VW55X_Wifi_BLE_SDK/GD32VW55x_RELEASE_V1.0.2/MSDK/cloud/alicloud/src/infra/system/facility\fac_string.c ****         }
 578              		.loc 1 141 17
 579 0354 FDBD     		j	.L16
 580              	.LBE4:
 581              		.cfi_endproc
 582              	.LFE20:
 584              		.text
 585              	.Letext0:
 586              		.file 2 "c:\\users\\stapi\\onedrive\\desktop\\gd32vw553\\embeddedbuilder_v1.4.7.26843\\tools\\nucl
 587              		.file 3 "..\\..\\..\\..\\cloud\\alicloud\\src\\infra\\utils\\misc/lite-cjson.h"
 588              		.file 4 "..\\..\\..\\..\\cloud\\alicloud\\include/iot_import.h"
 589              		.file 5 "..\\..\\..\\..\\cloud\\alicloud\\src\\infra\\log/iotx_log.h"
 590              		.file 6 "c:\\users\\stapi\\onedrive\\desktop\\gd32vw553\\embeddedbuilder_v1.4.7.26843\\tools\\nucl
 591              		.file 7 "..\\..\\..\\..\\cloud\\alicloud\\include/exports/iot_export_errno.h"
DEFINED SYMBOLS
                            *ABS*:0000000000000000 fac_string.c
C:\Users\stapi\AppData\Local\Temp\ccB9f98p.s:41     .text.iotx_facility_json_print:0000000000000000 iotx_facility_json_print
C:\Users\stapi\AppData\Local\Temp\ccB9f98p.s:45     .text.iotx_facility_json_print:0000000000000000 .L0 
C:\Users\stapi\AppData\Local\Temp\ccB9f98p.s:47     .text.iotx_facility_json_print:0000000000000000 .L0 
C:\Users\stapi\AppData\Local\Temp\ccB9f98p.s:48     .text.iotx_facility_json_print:0000000000000000 .L0 
C:\Users\stapi\AppData\Local\Temp\ccB9f98p.s:49     .text.iotx_facility_json_print:0000000000000000 .L0 
C:\Users\stapi\AppData\Local\Temp\ccB9f98p.s:50     .text.iotx_facility_json_print:0000000000000000 .L0 
C:\Users\stapi\AppData\Local\Temp\ccB9f98p.s:51     .text.iotx_facility_json_print:0000000000000000 .L0 
C:\Users\stapi\AppData\Local\Temp\ccB9f98p.s:52     .text.iotx_facility_json_print:0000000000000000 .L0 
C:\Users\stapi\AppData\Local\Temp\ccB9f98p.s:53     .text.iotx_facility_json_print:0000000000000000 .L0 
C:\Users\stapi\AppData\Local\Temp\ccB9f98p.s:54     .text.iotx_facility_json_print:0000000000000000 .L0 
C:\Users\stapi\AppData\Local\Temp\ccB9f98p.s:55     .text.iotx_facility_json_print:0000000000000000 .L0 
C:\Users\stapi\AppData\Local\Temp\ccB9f98p.s:56     .text.iotx_facility_json_print:0000000000000002 .L0 
C:\Users\stapi\AppData\Local\Temp\ccB9f98p.s:70     .text.iotx_facility_json_print:000000000000001c .L0 
C:\Users\stapi\AppData\Local\Temp\ccB9f98p.s:71     .text.iotx_facility_json_print:000000000000001c .L0 
C:\Users\stapi\AppData\Local\Temp\ccB9f98p.s:72     .text.iotx_facility_json_print:000000000000001c .L0 
C:\Users\stapi\AppData\Local\Temp\ccB9f98p.s:73     .text.iotx_facility_json_print:000000000000001c .L0 
C:\Users\stapi\AppData\Local\Temp\ccB9f98p.s:74     .text.iotx_facility_json_print:000000000000001c .L0 
C:\Users\stapi\AppData\Local\Temp\ccB9f98p.s:75     .text.iotx_facility_json_print:000000000000001c .L0 
C:\Users\stapi\AppData\Local\Temp\ccB9f98p.s:76     .text.iotx_facility_json_print:000000000000001c .L0 
C:\Users\stapi\AppData\Local\Temp\ccB9f98p.s:77     .text.iotx_facility_json_print:000000000000001c .L0 
C:\Users\stapi\AppData\Local\Temp\ccB9f98p.s:78     .text.iotx_facility_json_print:000000000000001c .L0 
C:\Users\stapi\AppData\Local\Temp\ccB9f98p.s:79     .text.iotx_facility_json_print:000000000000001c .L0 
C:\Users\stapi\AppData\Local\Temp\ccB9f98p.s:80     .text.iotx_facility_json_print:000000000000001c .L0 
C:\Users\stapi\AppData\Local\Temp\ccB9f98p.s:81     .text.iotx_facility_json_print:000000000000001c .L0 
C:\Users\stapi\AppData\Local\Temp\ccB9f98p.s:82     .text.iotx_facility_json_print:000000000000001c .L0 
C:\Users\stapi\AppData\Local\Temp\ccB9f98p.s:84     .text.iotx_facility_json_print:000000000000001c .L0 
C:\Users\stapi\AppData\Local\Temp\ccB9f98p.s:93     .text.iotx_facility_json_print:000000000000002c .L0 
C:\Users\stapi\AppData\Local\Temp\ccB9f98p.s:96     .text.iotx_facility_json_print:0000000000000034 .L0 
C:\Users\stapi\AppData\Local\Temp\ccB9f98p.s:97     .text.iotx_facility_json_print:0000000000000034 .L0 
C:\Users\stapi\AppData\Local\Temp\ccB9f98p.s:98     .text.iotx_facility_json_print:0000000000000034 .L0 
C:\Users\stapi\AppData\Local\Temp\ccB9f98p.s:99     .text.iotx_facility_json_print:0000000000000034 .L0 
C:\Users\stapi\AppData\Local\Temp\ccB9f98p.s:100    .text.iotx_facility_json_print:0000000000000034 .L0 
C:\Users\stapi\AppData\Local\Temp\ccB9f98p.s:101    .text.iotx_facility_json_print:0000000000000034 .L0 
C:\Users\stapi\AppData\Local\Temp\ccB9f98p.s:102    .text.iotx_facility_json_print:0000000000000034 .L0 
C:\Users\stapi\AppData\Local\Temp\ccB9f98p.s:104    .text.iotx_facility_json_print:0000000000000038 .L0 
C:\Users\stapi\AppData\Local\Temp\ccB9f98p.s:105    .text.iotx_facility_json_print:0000000000000038 .L0 
C:\Users\stapi\AppData\Local\Temp\ccB9f98p.s:107    .text.iotx_facility_json_print:000000000000003a .L0 
C:\Users\stapi\AppData\Local\Temp\ccB9f98p.s:109    .text.iotx_facility_json_print:000000000000003e .L0 
C:\Users\stapi\AppData\Local\Temp\ccB9f98p.s:110    .text.iotx_facility_json_print:000000000000003e .L0 
C:\Users\stapi\AppData\Local\Temp\ccB9f98p.s:112    .text.iotx_facility_json_print:0000000000000040 .L0 
C:\Users\stapi\AppData\Local\Temp\ccB9f98p.s:114    .text.iotx_facility_json_print:0000000000000042 .L0 
C:\Users\stapi\AppData\Local\Temp\ccB9f98p.s:117    .text.iotx_facility_json_print:0000000000000048 .L0 
C:\Users\stapi\AppData\Local\Temp\ccB9f98p.s:118    .text.iotx_facility_json_print:0000000000000048 .L0 
C:\Users\stapi\AppData\Local\Temp\ccB9f98p.s:124    .text.iotx_facility_json_print:0000000000000054 .L0 
C:\Users\stapi\AppData\Local\Temp\ccB9f98p.s:131    .text.iotx_facility_json_print:0000000000000062 .L0 
C:\Users\stapi\AppData\Local\Temp\ccB9f98p.s:132    .text.iotx_facility_json_print:0000000000000062 .L0 
C:\Users\stapi\AppData\Local\Temp\ccB9f98p.s:136    .text.iotx_facility_json_print:0000000000000064 .L0 
C:\Users\stapi\AppData\Local\Temp\ccB9f98p.s:140    .text.iotx_facility_json_print:0000000000000066 .L0 
C:\Users\stapi\AppData\Local\Temp\ccB9f98p.s:141    .text.iotx_facility_json_print:0000000000000068 .L0 
C:\Users\stapi\AppData\Local\Temp\ccB9f98p.s:142    .text.iotx_facility_json_print:0000000000000068 .L0 
C:\Users\stapi\AppData\Local\Temp\ccB9f98p.s:144    .text.iotx_facility_json_print:000000000000006a .L0 
C:\Users\stapi\AppData\Local\Temp\ccB9f98p.s:146    .text.iotx_facility_json_print:000000000000006c .L0 
C:\Users\stapi\AppData\Local\Temp\ccB9f98p.s:148    .text.iotx_facility_json_print:000000000000006e .L0 
C:\Users\stapi\AppData\Local\Temp\ccB9f98p.s:150    .text.iotx_facility_json_print:0000000000000070 .L0 
C:\Users\stapi\AppData\Local\Temp\ccB9f98p.s:152    .text.iotx_facility_json_print:0000000000000072 .L0 
C:\Users\stapi\AppData\Local\Temp\ccB9f98p.s:154    .text.iotx_facility_json_print:0000000000000074 .L0 
C:\Users\stapi\AppData\Local\Temp\ccB9f98p.s:156    .text.iotx_facility_json_print:0000000000000076 .L0 
C:\Users\stapi\AppData\Local\Temp\ccB9f98p.s:158    .text.iotx_facility_json_print:0000000000000078 .L0 
C:\Users\stapi\AppData\Local\Temp\ccB9f98p.s:160    .text.iotx_facility_json_print:000000000000007a .L0 
C:\Users\stapi\AppData\Local\Temp\ccB9f98p.s:162    .text.iotx_facility_json_print:000000000000007c .L0 
C:\Users\stapi\AppData\Local\Temp\ccB9f98p.s:164    .text.iotx_facility_json_print:000000000000007e .L0 
C:\Users\stapi\AppData\Local\Temp\ccB9f98p.s:167    .text.iotx_facility_json_print:0000000000000082 .L0 
C:\Users\stapi\AppData\Local\Temp\ccB9f98p.s:169    .text.iotx_facility_json_print:0000000000000084 .L0 
C:\Users\stapi\AppData\Local\Temp\ccB9f98p.s:173    .text.iotx_facility_json_print:0000000000000086 .L0 
C:\Users\stapi\AppData\Local\Temp\ccB9f98p.s:175    .text.iotx_facility_json_print:0000000000000086 .L0 
C:\Users\stapi\AppData\Local\Temp\ccB9f98p.s:180    .text.iotx_facility_json_print:0000000000000090 .L0 
C:\Users\stapi\AppData\Local\Temp\ccB9f98p.s:182    .text.iotx_facility_json_print:0000000000000092 .L0 
C:\Users\stapi\AppData\Local\Temp\ccB9f98p.s:183    .text.iotx_facility_json_print:0000000000000092 .L0 
C:\Users\stapi\AppData\Local\Temp\ccB9f98p.s:187    .text.iotx_facility_json_print:000000000000009c .L0 
C:\Users\stapi\AppData\Local\Temp\ccB9f98p.s:193    .text.iotx_facility_json_print:00000000000000aa .L0 
C:\Users\stapi\AppData\Local\Temp\ccB9f98p.s:196    .text.iotx_facility_json_print:00000000000000ac .L0 
C:\Users\stapi\AppData\Local\Temp\ccB9f98p.s:204    .text.iotx_facility_json_print:00000000000000c4 .L0 
C:\Users\stapi\AppData\Local\Temp\ccB9f98p.s:205    .text.iotx_facility_json_print:00000000000000c4 .L0 
C:\Users\stapi\AppData\Local\Temp\ccB9f98p.s:208    .text.iotx_facility_json_print:00000000000000cc .L0 
C:\Users\stapi\AppData\Local\Temp\ccB9f98p.s:210    .text.iotx_facility_json_print:00000000000000ce .L0 
C:\Users\stapi\AppData\Local\Temp\ccB9f98p.s:212    .text.iotx_facility_json_print:00000000000000d0 .L0 
C:\Users\stapi\AppData\Local\Temp\ccB9f98p.s:215    .text.iotx_facility_json_print:00000000000000d8 .L0 
C:\Users\stapi\AppData\Local\Temp\ccB9f98p.s:218    .text.iotx_facility_json_print:00000000000000da .L0 
C:\Users\stapi\AppData\Local\Temp\ccB9f98p.s:219    .text.iotx_facility_json_print:00000000000000da .L0 
C:\Users\stapi\AppData\Local\Temp\ccB9f98p.s:220    .text.iotx_facility_json_print:00000000000000da .L0 
C:\Users\stapi\AppData\Local\Temp\ccB9f98p.s:223    .text.iotx_facility_json_print:00000000000000e2 .L0 
C:\Users\stapi\AppData\Local\Temp\ccB9f98p.s:227    .text.iotx_facility_json_print:00000000000000ec .L0 
C:\Users\stapi\AppData\Local\Temp\ccB9f98p.s:232    .text.iotx_facility_json_print:00000000000000f8 .L0 
C:\Users\stapi\AppData\Local\Temp\ccB9f98p.s:239    .text.iotx_facility_json_print:000000000000010a .L0 
C:\Users\stapi\AppData\Local\Temp\ccB9f98p.s:240    .text.iotx_facility_json_print:000000000000010a .L0 
C:\Users\stapi\AppData\Local\Temp\ccB9f98p.s:241    .text.iotx_facility_json_print:000000000000010a .L0 
C:\Users\stapi\AppData\Local\Temp\ccB9f98p.s:242    .text.iotx_facility_json_print:000000000000010a .L0 
C:\Users\stapi\AppData\Local\Temp\ccB9f98p.s:244    .text.iotx_facility_json_print:000000000000010c .L0 
C:\Users\stapi\AppData\Local\Temp\ccB9f98p.s:246    .text.iotx_facility_json_print:000000000000010e .L0 
C:\Users\stapi\AppData\Local\Temp\ccB9f98p.s:249    .text.iotx_facility_json_print:0000000000000110 .L0 
C:\Users\stapi\AppData\Local\Temp\ccB9f98p.s:251    .text.iotx_facility_json_print:0000000000000114 .L0 
C:\Users\stapi\AppData\Local\Temp\ccB9f98p.s:253    .text.iotx_facility_json_print:0000000000000118 .L0 
C:\Users\stapi\AppData\Local\Temp\ccB9f98p.s:259    .text.iotx_facility_json_print:0000000000000120 .L0 
C:\Users\stapi\AppData\Local\Temp\ccB9f98p.s:260    .text.iotx_facility_json_print:0000000000000120 .L0 
C:\Users\stapi\AppData\Local\Temp\ccB9f98p.s:263    .text.iotx_facility_json_print:0000000000000126 .L0 
C:\Users\stapi\AppData\Local\Temp\ccB9f98p.s:269    .text.iotx_facility_json_print:000000000000013a .L0 
C:\Users\stapi\AppData\Local\Temp\ccB9f98p.s:275    .text.iotx_facility_json_print:000000000000014e .L0 
C:\Users\stapi\AppData\Local\Temp\ccB9f98p.s:276    .text.iotx_facility_json_print:000000000000014e .L0 
C:\Users\stapi\AppData\Local\Temp\ccB9f98p.s:280    .text.iotx_facility_json_print:0000000000000150 .L0 
C:\Users\stapi\AppData\Local\Temp\ccB9f98p.s:281    .text.iotx_facility_json_print:0000000000000150 .L0 
C:\Users\stapi\AppData\Local\Temp\ccB9f98p.s:284    .text.iotx_facility_json_print:0000000000000154 .L0 
C:\Users\stapi\AppData\Local\Temp\ccB9f98p.s:292    .text.iotx_facility_json_print:000000000000016c .L0 
C:\Users\stapi\AppData\Local\Temp\ccB9f98p.s:293    .text.iotx_facility_json_print:000000000000016c .L0 
C:\Users\stapi\AppData\Local\Temp\ccB9f98p.s:295    .text.iotx_facility_json_print:0000000000000170 .L0 
C:\Users\stapi\AppData\Local\Temp\ccB9f98p.s:299    .text.iotx_facility_json_print:0000000000000174 .L0 
C:\Users\stapi\AppData\Local\Temp\ccB9f98p.s:309    .text.iotx_facility_json_print:0000000000000194 .L0 
C:\Users\stapi\AppData\Local\Temp\ccB9f98p.s:310    .text.iotx_facility_json_print:0000000000000194 .L0 
C:\Users\stapi\AppData\Local\Temp\ccB9f98p.s:312    .text.iotx_facility_json_print:0000000000000198 .L0 
C:\Users\stapi\AppData\Local\Temp\ccB9f98p.s:313    .text.iotx_facility_json_print:0000000000000198 .L0 
C:\Users\stapi\AppData\Local\Temp\ccB9f98p.s:315    .text.iotx_facility_json_print:000000000000019c .L0 
C:\Users\stapi\AppData\Local\Temp\ccB9f98p.s:317    .text.iotx_facility_json_print:00000000000001a0 .L0 
C:\Users\stapi\AppData\Local\Temp\ccB9f98p.s:321    .text.iotx_facility_json_print:00000000000001ac .L0 
C:\Users\stapi\AppData\Local\Temp\ccB9f98p.s:322    .text.iotx_facility_json_print:00000000000001ac .L0 
C:\Users\stapi\AppData\Local\Temp\ccB9f98p.s:328    .text.iotx_facility_json_print:00000000000001be .L0 
C:\Users\stapi\AppData\Local\Temp\ccB9f98p.s:331    .text.iotx_facility_json_print:00000000000001c6 .L0 
C:\Users\stapi\AppData\Local\Temp\ccB9f98p.s:334    .text.iotx_facility_json_print:00000000000001ca .L0 
C:\Users\stapi\AppData\Local\Temp\ccB9f98p.s:340    .text.iotx_facility_json_print:00000000000001d8 .L0 
C:\Users\stapi\AppData\Local\Temp\ccB9f98p.s:341    .text.iotx_facility_json_print:00000000000001d8 .L0 
C:\Users\stapi\AppData\Local\Temp\ccB9f98p.s:344    .text.iotx_facility_json_print:00000000000001da .L0 
C:\Users\stapi\AppData\Local\Temp\ccB9f98p.s:345    .text.iotx_facility_json_print:00000000000001da .L0 
C:\Users\stapi\AppData\Local\Temp\ccB9f98p.s:349    .text.iotx_facility_json_print:00000000000001dc .L0 
C:\Users\stapi\AppData\Local\Temp\ccB9f98p.s:350    .text.iotx_facility_json_print:00000000000001dc .L0 
C:\Users\stapi\AppData\Local\Temp\ccB9f98p.s:352    .text.iotx_facility_json_print:00000000000001e0 .L0 
C:\Users\stapi\AppData\Local\Temp\ccB9f98p.s:356    .text.iotx_facility_json_print:00000000000001ea .L0 
C:\Users\stapi\AppData\Local\Temp\ccB9f98p.s:359    .text.iotx_facility_json_print:00000000000001f2 .L0 
C:\Users\stapi\AppData\Local\Temp\ccB9f98p.s:360    .text.iotx_facility_json_print:00000000000001f2 .L0 
C:\Users\stapi\AppData\Local\Temp\ccB9f98p.s:367    .text.iotx_facility_json_print:00000000000001f8 .L0 
C:\Users\stapi\AppData\Local\Temp\ccB9f98p.s:368    .text.iotx_facility_json_print:00000000000001f8 .L0 
C:\Users\stapi\AppData\Local\Temp\ccB9f98p.s:371    .text.iotx_facility_json_print:00000000000001fe .L0 
C:\Users\stapi\AppData\Local\Temp\ccB9f98p.s:373    .text.iotx_facility_json_print:0000000000000202 .L0 
C:\Users\stapi\AppData\Local\Temp\ccB9f98p.s:376    .text.iotx_facility_json_print:000000000000020a .L0 
C:\Users\stapi\AppData\Local\Temp\ccB9f98p.s:377    .text.iotx_facility_json_print:000000000000020a .L0 
C:\Users\stapi\AppData\Local\Temp\ccB9f98p.s:378    .text.iotx_facility_json_print:000000000000020a .L0 
C:\Users\stapi\AppData\Local\Temp\ccB9f98p.s:380    .text.iotx_facility_json_print:000000000000020e .L0 
C:\Users\stapi\AppData\Local\Temp\ccB9f98p.s:381    .text.iotx_facility_json_print:000000000000020e .L0 
C:\Users\stapi\AppData\Local\Temp\ccB9f98p.s:387    .text.iotx_facility_json_print:0000000000000220 .L0 
C:\Users\stapi\AppData\Local\Temp\ccB9f98p.s:390    .text.iotx_facility_json_print:0000000000000228 .L0 
C:\Users\stapi\AppData\Local\Temp\ccB9f98p.s:393    .text.iotx_facility_json_print:000000000000022c .L0 
C:\Users\stapi\AppData\Local\Temp\ccB9f98p.s:399    .text.iotx_facility_json_print:000000000000023a .L0 
C:\Users\stapi\AppData\Local\Temp\ccB9f98p.s:400    .text.iotx_facility_json_print:000000000000023a .L0 
C:\Users\stapi\AppData\Local\Temp\ccB9f98p.s:401    .text.iotx_facility_json_print:000000000000023a .L0 
C:\Users\stapi\AppData\Local\Temp\ccB9f98p.s:406    .text.iotx_facility_json_print:000000000000024a .L0 
C:\Users\stapi\AppData\Local\Temp\ccB9f98p.s:409    .text.iotx_facility_json_print:000000000000024c .L0 
C:\Users\stapi\AppData\Local\Temp\ccB9f98p.s:410    .text.iotx_facility_json_print:000000000000024c .L0 
C:\Users\stapi\AppData\Local\Temp\ccB9f98p.s:414    .text.iotx_facility_json_print:000000000000024e .L0 
C:\Users\stapi\AppData\Local\Temp\ccB9f98p.s:415    .text.iotx_facility_json_print:000000000000024e .L0 
C:\Users\stapi\AppData\Local\Temp\ccB9f98p.s:420    .text.iotx_facility_json_print:0000000000000252 .L0 
C:\Users\stapi\AppData\Local\Temp\ccB9f98p.s:421    .text.iotx_facility_json_print:0000000000000252 .L0 
C:\Users\stapi\AppData\Local\Temp\ccB9f98p.s:429    .text.iotx_facility_json_print:0000000000000258 .L0 
C:\Users\stapi\AppData\Local\Temp\ccB9f98p.s:434    .text.iotx_facility_json_print:0000000000000268 .L0 
C:\Users\stapi\AppData\Local\Temp\ccB9f98p.s:435    .text.iotx_facility_json_print:0000000000000268 .L0 
C:\Users\stapi\AppData\Local\Temp\ccB9f98p.s:441    .text.iotx_facility_json_print:000000000000026c .L0 
C:\Users\stapi\AppData\Local\Temp\ccB9f98p.s:442    .text.iotx_facility_json_print:000000000000026c .L0 
C:\Users\stapi\AppData\Local\Temp\ccB9f98p.s:444    .text.iotx_facility_json_print:0000000000000270 .L0 
C:\Users\stapi\AppData\Local\Temp\ccB9f98p.s:447    .text.iotx_facility_json_print:0000000000000274 .L0 
C:\Users\stapi\AppData\Local\Temp\ccB9f98p.s:452    .text.iotx_facility_json_print:000000000000027c .L0 
C:\Users\stapi\AppData\Local\Temp\ccB9f98p.s:455    .text.iotx_facility_json_print:0000000000000284 .L0 
C:\Users\stapi\AppData\Local\Temp\ccB9f98p.s:460    .text.iotx_facility_json_print:000000000000028a .L0 
C:\Users\stapi\AppData\Local\Temp\ccB9f98p.s:464    .text.iotx_facility_json_print:0000000000000294 .L0 
C:\Users\stapi\AppData\Local\Temp\ccB9f98p.s:467    .text.iotx_facility_json_print:000000000000029c .L0 
C:\Users\stapi\AppData\Local\Temp\ccB9f98p.s:468    .text.iotx_facility_json_print:000000000000029c .L0 
C:\Users\stapi\AppData\Local\Temp\ccB9f98p.s:473    .text.iotx_facility_json_print:00000000000002a0 .L0 
C:\Users\stapi\AppData\Local\Temp\ccB9f98p.s:474    .text.iotx_facility_json_print:00000000000002a0 .L0 
C:\Users\stapi\AppData\Local\Temp\ccB9f98p.s:479    .text.iotx_facility_json_print:00000000000002a6 .L0 
C:\Users\stapi\AppData\Local\Temp\ccB9f98p.s:480    .text.iotx_facility_json_print:00000000000002a6 .L0 
C:\Users\stapi\AppData\Local\Temp\ccB9f98p.s:483    .text.iotx_facility_json_print:00000000000002ac .L0 
C:\Users\stapi\AppData\Local\Temp\ccB9f98p.s:485    .text.iotx_facility_json_print:00000000000002b0 .L0 
C:\Users\stapi\AppData\Local\Temp\ccB9f98p.s:488    .text.iotx_facility_json_print:00000000000002b8 .L0 
C:\Users\stapi\AppData\Local\Temp\ccB9f98p.s:489    .text.iotx_facility_json_print:00000000000002b8 .L0 
C:\Users\stapi\AppData\Local\Temp\ccB9f98p.s:490    .text.iotx_facility_json_print:00000000000002b8 .L0 
C:\Users\stapi\AppData\Local\Temp\ccB9f98p.s:491    .text.iotx_facility_json_print:00000000000002b8 .L0 
C:\Users\stapi\AppData\Local\Temp\ccB9f98p.s:493    .text.iotx_facility_json_print:00000000000002bc .L0 
C:\Users\stapi\AppData\Local\Temp\ccB9f98p.s:498    .text.iotx_facility_json_print:00000000000002c8 .L0 
C:\Users\stapi\AppData\Local\Temp\ccB9f98p.s:499    .text.iotx_facility_json_print:00000000000002c8 .L0 
C:\Users\stapi\AppData\Local\Temp\ccB9f98p.s:500    .text.iotx_facility_json_print:00000000000002c8 .L0 
C:\Users\stapi\AppData\Local\Temp\ccB9f98p.s:501    .text.iotx_facility_json_print:00000000000002c8 .L0 
C:\Users\stapi\AppData\Local\Temp\ccB9f98p.s:507    .text.iotx_facility_json_print:00000000000002ce .L0 
C:\Users\stapi\AppData\Local\Temp\ccB9f98p.s:508    .text.iotx_facility_json_print:00000000000002ce .L0 
C:\Users\stapi\AppData\Local\Temp\ccB9f98p.s:511    .text.iotx_facility_json_print:00000000000002d4 .L0 
C:\Users\stapi\AppData\Local\Temp\ccB9f98p.s:513    .text.iotx_facility_json_print:00000000000002d8 .L0 
C:\Users\stapi\AppData\Local\Temp\ccB9f98p.s:516    .text.iotx_facility_json_print:00000000000002e0 .L0 
C:\Users\stapi\AppData\Local\Temp\ccB9f98p.s:517    .text.iotx_facility_json_print:00000000000002e0 .L0 
C:\Users\stapi\AppData\Local\Temp\ccB9f98p.s:518    .text.iotx_facility_json_print:00000000000002e0 .L0 
C:\Users\stapi\AppData\Local\Temp\ccB9f98p.s:520    .text.iotx_facility_json_print:00000000000002e4 .L0 
C:\Users\stapi\AppData\Local\Temp\ccB9f98p.s:521    .text.iotx_facility_json_print:00000000000002e4 .L0 
C:\Users\stapi\AppData\Local\Temp\ccB9f98p.s:527    .text.iotx_facility_json_print:00000000000002f6 .L0 
C:\Users\stapi\AppData\Local\Temp\ccB9f98p.s:530    .text.iotx_facility_json_print:00000000000002fe .L0 
C:\Users\stapi\AppData\Local\Temp\ccB9f98p.s:533    .text.iotx_facility_json_print:0000000000000302 .L0 
C:\Users\stapi\AppData\Local\Temp\ccB9f98p.s:542    .text.iotx_facility_json_print:0000000000000312 .L0 
C:\Users\stapi\AppData\Local\Temp\ccB9f98p.s:543    .text.iotx_facility_json_print:0000000000000312 .L0 
C:\Users\stapi\AppData\Local\Temp\ccB9f98p.s:545    .text.iotx_facility_json_print:0000000000000316 .L0 
C:\Users\stapi\AppData\Local\Temp\ccB9f98p.s:550    .text.iotx_facility_json_print:0000000000000326 .L0 
C:\Users\stapi\AppData\Local\Temp\ccB9f98p.s:551    .text.iotx_facility_json_print:0000000000000326 .L0 
C:\Users\stapi\AppData\Local\Temp\ccB9f98p.s:557    .text.iotx_facility_json_print:000000000000032a .L0 
C:\Users\stapi\AppData\Local\Temp\ccB9f98p.s:558    .text.iotx_facility_json_print:000000000000032a .L0 
C:\Users\stapi\AppData\Local\Temp\ccB9f98p.s:561    .text.iotx_facility_json_print:0000000000000330 .L0 
C:\Users\stapi\AppData\Local\Temp\ccB9f98p.s:563    .text.iotx_facility_json_print:0000000000000334 .L0 
C:\Users\stapi\AppData\Local\Temp\ccB9f98p.s:566    .text.iotx_facility_json_print:000000000000033c .L0 
C:\Users\stapi\AppData\Local\Temp\ccB9f98p.s:567    .text.iotx_facility_json_print:000000000000033c .L0 
C:\Users\stapi\AppData\Local\Temp\ccB9f98p.s:568    .text.iotx_facility_json_print:000000000000033c .L0 
C:\Users\stapi\AppData\Local\Temp\ccB9f98p.s:570    .text.iotx_facility_json_print:0000000000000340 .L0 
C:\Users\stapi\AppData\Local\Temp\ccB9f98p.s:574    .text.iotx_facility_json_print:0000000000000348 .L0 
C:\Users\stapi\AppData\Local\Temp\ccB9f98p.s:578    .text.iotx_facility_json_print:0000000000000354 .L0 
C:\Users\stapi\AppData\Local\Temp\ccB9f98p.s:579    .text.iotx_facility_json_print:0000000000000354 .L0 
C:\Users\stapi\AppData\Local\Temp\ccB9f98p.s:581    .text.iotx_facility_json_print:0000000000000356 .L0 
C:\Users\stapi\AppData\Local\Temp\ccB9f98p.s:584    .text.iotx_facility_json_print:0000000000000356 .L0 
                     .debug_frame:0000000000000000 .L0 
C:\Users\stapi\AppData\Local\Temp\ccB9f98p.s:11     .rodata.iotx_facility_json_print.str1.4:0000000000000000 .LC0
C:\Users\stapi\AppData\Local\Temp\ccB9f98p.s:14     .rodata.iotx_facility_json_print.str1.4:0000000000000004 .LC1
C:\Users\stapi\AppData\Local\Temp\ccB9f98p.s:17     .rodata.iotx_facility_json_print.str1.4:000000000000000c .LC2
C:\Users\stapi\AppData\Local\Temp\ccB9f98p.s:20     .rodata.iotx_facility_json_print.str1.4:0000000000000010 .LC3
C:\Users\stapi\AppData\Local\Temp\ccB9f98p.s:23     .rodata.iotx_facility_json_print.str1.4:0000000000000014 .LC4
C:\Users\stapi\AppData\Local\Temp\ccB9f98p.s:26     .rodata.iotx_facility_json_print.str1.4:0000000000000018 .LC5
C:\Users\stapi\AppData\Local\Temp\ccB9f98p.s:32     .rodata.iotx_facility_json_print.str1.4:0000000000000024 .LC7
C:\Users\stapi\AppData\Local\Temp\ccB9f98p.s:35     .rodata.iotx_facility_json_print.str1.4:000000000000002c .LC8
C:\Users\stapi\AppData\Local\Temp\ccB9f98p.s:29     .rodata.iotx_facility_json_print.str1.4:0000000000000020 .LC6
C:\Users\stapi\AppData\Local\Temp\ccB9f98p.s:138    .text.iotx_facility_json_print:0000000000000066 .L1
C:\Users\stapi\AppData\Local\Temp\ccB9f98p.s:172    .text.iotx_facility_json_print:0000000000000086 .L3
C:\Users\stapi\AppData\Local\Temp\ccB9f98p.s:134    .text.iotx_facility_json_print:0000000000000064 .L4
C:\Users\stapi\AppData\Local\Temp\ccB9f98p.s:230    .text.iotx_facility_json_print:00000000000000f8 .L5
C:\Users\stapi\AppData\Local\Temp\ccB9f98p.s:237    .text.iotx_facility_json_print:000000000000010a .L6
C:\Users\stapi\AppData\Local\Temp\ccB9f98p.s:277    .text.iotx_facility_json_print:0000000000000150 .L35
C:\Users\stapi\AppData\Local\Temp\ccB9f98p.s:555    .text.iotx_facility_json_print:000000000000032a .L8
C:\Users\stapi\AppData\Local\Temp\ccB9f98p.s:297    .text.iotx_facility_json_print:0000000000000174 .L9
C:\Users\stapi\AppData\Local\Temp\ccB9f98p.s:477    .text.iotx_facility_json_print:00000000000002a6 .L10
C:\Users\stapi\AppData\Local\Temp\ccB9f98p.s:505    .text.iotx_facility_json_print:00000000000002ce .L11
C:\Users\stapi\AppData\Local\Temp\ccB9f98p.s:572    .text.iotx_facility_json_print:0000000000000348 .L53
C:\Users\stapi\AppData\Local\Temp\ccB9f98p.s:365    .text.iotx_facility_json_print:00000000000001f8 .L13
C:\Users\stapi\AppData\Local\Temp\ccB9f98p.s:306    .text.iotx_facility_json_print:0000000000000190 .L52
C:\Users\stapi\AppData\Local\Temp\ccB9f98p.s:290    .text.iotx_facility_json_print:000000000000016c .L12
C:\Users\stapi\AppData\Local\Temp\ccB9f98p.s:439    .text.iotx_facility_json_print:000000000000026c .L22
C:\Users\stapi\AppData\Local\Temp\ccB9f98p.s:332    .text.iotx_facility_json_print:00000000000001ca .L23
C:\Users\stapi\AppData\Local\Temp\ccB9f98p.s:338    .text.iotx_facility_json_print:00000000000001d8 .L24
C:\Users\stapi\AppData\Local\Temp\ccB9f98p.s:347    .text.iotx_facility_json_print:00000000000001dc .L25
C:\Users\stapi\AppData\Local\Temp\ccB9f98p.s:417    .text.iotx_facility_json_print:0000000000000252 .L16
C:\Users\stapi\AppData\Local\Temp\ccB9f98p.s:391    .text.iotx_facility_json_print:000000000000022c .L17
C:\Users\stapi\AppData\Local\Temp\ccB9f98p.s:397    .text.iotx_facility_json_print:000000000000023a .L18
C:\Users\stapi\AppData\Local\Temp\ccB9f98p.s:426    .text.iotx_facility_json_print:0000000000000258 .L20
C:\Users\stapi\AppData\Local\Temp\ccB9f98p.s:256    .text.iotx_facility_json_print:0000000000000120 .L7
C:\Users\stapi\AppData\Local\Temp\ccB9f98p.s:412    .text.iotx_facility_json_print:000000000000024e .L19
C:\Users\stapi\AppData\Local\Temp\ccB9f98p.s:450    .text.iotx_facility_json_print:000000000000027c .L27
C:\Users\stapi\AppData\Local\Temp\ccB9f98p.s:471    .text.iotx_facility_json_print:00000000000002a0 .L29
C:\Users\stapi\AppData\Local\Temp\ccB9f98p.s:445    .text.iotx_facility_json_print:0000000000000274 .L55
C:\Users\stapi\AppData\Local\Temp\ccB9f98p.s:458    .text.iotx_facility_json_print:000000000000028a .L30
C:\Users\stapi\AppData\Local\Temp\ccB9f98p.s:531    .text.iotx_facility_json_print:0000000000000302 .L31
C:\Users\stapi\AppData\Local\Temp\ccB9f98p.s:537    .text.iotx_facility_json_print:0000000000000310 .L32
C:\Users\stapi\AppData\Local\Temp\ccB9f98p.s:540    .text.iotx_facility_json_print:0000000000000312 .L33
C:\Users\stapi\AppData\Local\Temp\ccB9f98p.s:1867   .debug_abbrev:0000000000000000 .Ldebug_abbrev0
C:\Users\stapi\AppData\Local\Temp\ccB9f98p.s:3012   .debug_str:0000000000001540 .LASF221
C:\Users\stapi\AppData\Local\Temp\ccB9f98p.s:2618   .debug_str:0000000000000125 .LASF222
C:\Users\stapi\AppData\Local\Temp\ccB9f98p.s:2768   .debug_str:00000000000008a0 .LASF223
C:\Users\stapi\AppData\Local\Temp\ccB9f98p.s:2578   .debug_ranges:0000000000000000 .Ldebug_ranges0
C:\Users\stapi\AppData\Local\Temp\ccB9f98p.s:2592   .debug_line:0000000000000000 .Ldebug_line0
C:\Users\stapi\AppData\Local\Temp\ccB9f98p.s:2736   .debug_str:000000000000073f .LASF0
C:\Users\stapi\AppData\Local\Temp\ccB9f98p.s:2652   .debug_str:000000000000034d .LASF1
C:\Users\stapi\AppData\Local\Temp\ccB9f98p.s:2886   .debug_str:0000000000000f0f .LASF2
C:\Users\stapi\AppData\Local\Temp\ccB9f98p.s:2894   .debug_str:0000000000000f67 .LASF3
C:\Users\stapi\AppData\Local\Temp\ccB9f98p.s:2962   .debug_str:0000000000001297 .LASF4
C:\Users\stapi\AppData\Local\Temp\ccB9f98p.s:2676   .debug_str:0000000000000476 .LASF5
C:\Users\stapi\AppData\Local\Temp\ccB9f98p.s:2746   .debug_str:00000000000007c3 .LASF6
C:\Users\stapi\AppData\Local\Temp\ccB9f98p.s:2650   .debug_str:000000000000033f .LASF7
C:\Users\stapi\AppData\Local\Temp\ccB9f98p.s:2730   .debug_str:00000000000006fa .LASF8
C:\Users\stapi\AppData\Local\Temp\ccB9f98p.s:2686   .debug_str:00000000000004e3 .LASF224
C:\Users\stapi\AppData\Local\Temp\ccB9f98p.s:2934   .debug_str:000000000000112d .LASF9
C:\Users\stapi\AppData\Local\Temp\ccB9f98p.s:2920   .debug_str:0000000000001095 .LASF10
C:\Users\stapi\AppData\Local\Temp\ccB9f98p.s:2612   .debug_str:00000000000000f7 .LASF11
C:\Users\stapi\AppData\Local\Temp\ccB9f98p.s:2604   .debug_str:000000000000008b .LASF225
C:\Users\stapi\AppData\Local\Temp\ccB9f98p.s:2688   .debug_str:00000000000004f5 .LASF12
C:\Users\stapi\AppData\Local\Temp\ccB9f98p.s:2912   .debug_str:0000000000001032 .LASF13
C:\Users\stapi\AppData\Local\Temp\ccB9f98p.s:2938   .debug_str:0000000000001146 .LASF14
C:\Users\stapi\AppData\Local\Temp\ccB9f98p.s:2878   .debug_str:0000000000000eb6 .LASF15
C:\Users\stapi\AppData\Local\Temp\ccB9f98p.s:2826   .debug_str:0000000000000c08 .LASF16
C:\Users\stapi\AppData\Local\Temp\ccB9f98p.s:2628   .debug_str:0000000000000218 .LASF17
C:\Users\stapi\AppData\Local\Temp\ccB9f98p.s:2794   .debug_str:0000000000000a71 .LASF18
C:\Users\stapi\AppData\Local\Temp\ccB9f98p.s:2986   .debug_str:00000000000013db .LASF19
C:\Users\stapi\AppData\Local\Temp\ccB9f98p.s:3050   .debug_str:000000000000181f .LASF20
C:\Users\stapi\AppData\Local\Temp\ccB9f98p.s:2728   .debug_str:00000000000006eb .LASF21
C:\Users\stapi\AppData\Local\Temp\ccB9f98p.s:2714   .debug_str:000000000000062b .LASF22
C:\Users\stapi\AppData\Local\Temp\ccB9f98p.s:2846   .debug_str:0000000000000cfd .LASF23
C:\Users\stapi\AppData\Local\Temp\ccB9f98p.s:2710   .debug_str:0000000000000602 .LASF24
C:\Users\stapi\AppData\Local\Temp\ccB9f98p.s:2976   .debug_str:0000000000001349 .LASF25
C:\Users\stapi\AppData\Local\Temp\ccB9f98p.s:2608   .debug_str:00000000000000bd .LASF26
C:\Users\stapi\AppData\Local\Temp\ccB9f98p.s:2610   .debug_str:00000000000000d5 .LASF27
C:\Users\stapi\AppData\Local\Temp\ccB9f98p.s:3018   .debug_str:0000000000001653 .LASF28
C:\Users\stapi\AppData\Local\Temp\ccB9f98p.s:3044   .debug_str:00000000000017b7 .LASF29
C:\Users\stapi\AppData\Local\Temp\ccB9f98p.s:2672   .debug_str:000000000000042e .LASF30
C:\Users\stapi\AppData\Local\Temp\ccB9f98p.s:2654   .debug_str:0000000000000359 .LASF31
C:\Users\stapi\AppData\Local\Temp\ccB9f98p.s:3034   .debug_str:0000000000001732 .LASF32
C:\Users\stapi\AppData\Local\Temp\ccB9f98p.s:2960   .debug_str:0000000000001275 .LASF33
C:\Users\stapi\AppData\Local\Temp\ccB9f98p.s:2796   .debug_str:0000000000000a80 .LASF34
C:\Users\stapi\AppData\Local\Temp\ccB9f98p.s:2682   .debug_str:00000000000004b4 .LASF35
C:\Users\stapi\AppData\Local\Temp\ccB9f98p.s:2678   .debug_str:000000000000047f .LASF36
C:\Users\stapi\AppData\Local\Temp\ccB9f98p.s:2980   .debug_str:0000000000001387 .LASF37
C:\Users\stapi\AppData\Local\Temp\ccB9f98p.s:3002   .debug_str:00000000000014ba .LASF38
C:\Users\stapi\AppData\Local\Temp\ccB9f98p.s:2944   .debug_str:0000000000001197 .LASF39
C:\Users\stapi\AppData\Local\Temp\ccB9f98p.s:2668   .debug_str:00000000000003fc .LASF40
C:\Users\stapi\AppData\Local\Temp\ccB9f98p.s:2814   .debug_str:0000000000000b63 .LASF41
C:\Users\stapi\AppData\Local\Temp\ccB9f98p.s:2970   .debug_str:00000000000012f3 .LASF42
C:\Users\stapi\AppData\Local\Temp\ccB9f98p.s:2898   .debug_str:0000000000000f8b .LASF43
C:\Users\stapi\AppData\Local\Temp\ccB9f98p.s:3008   .debug_str:0000000000001506 .LASF44
C:\Users\stapi\AppData\Local\Temp\ccB9f98p.s:2662   .debug_str:00000000000003b7 .LASF45
C:\Users\stapi\AppData\Local\Temp\ccB9f98p.s:2924   .debug_str:00000000000010c1 .LASF46
C:\Users\stapi\AppData\Local\Temp\ccB9f98p.s:3022   .debug_str:0000000000001686 .LASF47
C:\Users\stapi\AppData\Local\Temp\ccB9f98p.s:2952   .debug_str:00000000000011ff .LASF48
C:\Users\stapi\AppData\Local\Temp\ccB9f98p.s:2724   .debug_str:00000000000006aa .LASF49
C:\Users\stapi\AppData\Local\Temp\ccB9f98p.s:2738   .debug_str:000000000000074c .LASF50
C:\Users\stapi\AppData\Local\Temp\ccB9f98p.s:2864   .debug_str:0000000000000de5 .LASF51
C:\Users\stapi\AppData\Local\Temp\ccB9f98p.s:2634   .debug_str:0000000000000269 .LASF52
C:\Users\stapi\AppData\Local\Temp\ccB9f98p.s:2996   .debug_str:000000000000146f .LASF53
C:\Users\stapi\AppData\Local\Temp\ccB9f98p.s:3036   .debug_str:0000000000001752 .LASF54
C:\Users\stapi\AppData\Local\Temp\ccB9f98p.s:2704   .debug_str:00000000000005bb .LASF55
C:\Users\stapi\AppData\Local\Temp\ccB9f98p.s:2638   .debug_str:00000000000002a6 .LASF56
C:\Users\stapi\AppData\Local\Temp\ccB9f98p.s:2706   .debug_str:00000000000005d2 .LASF57
C:\Users\stapi\AppData\Local\Temp\ccB9f98p.s:2848   .debug_str:0000000000000d14 .LASF58
C:\Users\stapi\AppData\Local\Temp\ccB9f98p.s:2784   .debug_str:0000000000000a01 .LASF59
C:\Users\stapi\AppData\Local\Temp\ccB9f98p.s:2636   .debug_str:000000000000028b .LASF60
C:\Users\stapi\AppData\Local\Temp\ccB9f98p.s:3032   .debug_str:000000000000171a .LASF61
C:\Users\stapi\AppData\Local\Temp\ccB9f98p.s:2700   .debug_str:0000000000000594 .LASF62
C:\Users\stapi\AppData\Local\Temp\ccB9f98p.s:3000   .debug_str:000000000000149f .LASF63
C:\Users\stapi\AppData\Local\Temp\ccB9f98p.s:3020   .debug_str:000000000000166e .LASF64
C:\Users\stapi\AppData\Local\Temp\ccB9f98p.s:2718   .debug_str:0000000000000653 .LASF65
C:\Users\stapi\AppData\Local\Temp\ccB9f98p.s:3014   .debug_str:0000000000001627 .LASF66
C:\Users\stapi\AppData\Local\Temp\ccB9f98p.s:2954   .debug_str:000000000000121d .LASF67
C:\Users\stapi\AppData\Local\Temp\ccB9f98p.s:2834   .debug_str:0000000000000c74 .LASF68
C:\Users\stapi\AppData\Local\Temp\ccB9f98p.s:2902   .debug_str:0000000000000fbf .LASF69
C:\Users\stapi\AppData\Local\Temp\ccB9f98p.s:2744   .debug_str:00000000000007a3 .LASF70
C:\Users\stapi\AppData\Local\Temp\ccB9f98p.s:2818   .debug_str:0000000000000b9d .LASF71
C:\Users\stapi\AppData\Local\Temp\ccB9f98p.s:2792   .debug_str:0000000000000a52 .LASF72
C:\Users\stapi\AppData\Local\Temp\ccB9f98p.s:2910   .debug_str:000000000000101d .LASF73
C:\Users\stapi\AppData\Local\Temp\ccB9f98p.s:2908   .debug_str:0000000000001005 .LASF74
C:\Users\stapi\AppData\Local\Temp\ccB9f98p.s:2780   .debug_str:00000000000009cd .LASF75
C:\Users\stapi\AppData\Local\Temp\ccB9f98p.s:2850   .debug_str:0000000000000d2d .LASF76
C:\Users\stapi\AppData\Local\Temp\ccB9f98p.s:3024   .debug_str:000000000000169d .LASF77
C:\Users\stapi\AppData\Local\Temp\ccB9f98p.s:3006   .debug_str:00000000000014e6 .LASF78
C:\Users\stapi\AppData\Local\Temp\ccB9f98p.s:2750   .debug_str:00000000000007f6 .LASF79
C:\Users\stapi\AppData\Local\Temp\ccB9f98p.s:2632   .debug_str:000000000000024b .LASF80
C:\Users\stapi\AppData\Local\Temp\ccB9f98p.s:2720   .debug_str:000000000000066f .LASF81
C:\Users\stapi\AppData\Local\Temp\ccB9f98p.s:2770   .debug_str:0000000000000931 .LASF82
C:\Users\stapi\AppData\Local\Temp\ccB9f98p.s:2888   .debug_str:0000000000000f1d .LASF83
C:\Users\stapi\AppData\Local\Temp\ccB9f98p.s:2596   .debug_str:0000000000000026 .LASF84
C:\Users\stapi\AppData\Local\Temp\ccB9f98p.s:2602   .debug_str:000000000000006b .LASF85
C:\Users\stapi\AppData\Local\Temp\ccB9f98p.s:2876   .debug_str:0000000000000e97 .LASF86
C:\Users\stapi\AppData\Local\Temp\ccB9f98p.s:2822   .debug_str:0000000000000bce .LASF87
C:\Users\stapi\AppData\Local\Temp\ccB9f98p.s:2640   .debug_str:00000000000002be .LASF88
C:\Users\stapi\AppData\Local\Temp\ccB9f98p.s:2896   .debug_str:0000000000000f71 .LASF89
C:\Users\stapi\AppData\Local\Temp\ccB9f98p.s:2844   .debug_str:0000000000000ce4 .LASF90
C:\Users\stapi\AppData\Local\Temp\ccB9f98p.s:2598   .debug_str:0000000000000042 .LASF91
C:\Users\stapi\AppData\Local\Temp\ccB9f98p.s:2964   .debug_str:00000000000012aa .LASF92
C:\Users\stapi\AppData\Local\Temp\ccB9f98p.s:3048   .debug_str:0000000000001800 .LASF93
C:\Users\stapi\AppData\Local\Temp\ccB9f98p.s:2716   .debug_str:000000000000063a .LASF94
C:\Users\stapi\AppData\Local\Temp\ccB9f98p.s:2990   .debug_str:000000000000140c .LASF95
C:\Users\stapi\AppData\Local\Temp\ccB9f98p.s:2810   .debug_str:0000000000000b42 .LASF96
C:\Users\stapi\AppData\Local\Temp\ccB9f98p.s:2786   .debug_str:0000000000000a1b .LASF97
C:\Users\stapi\AppData\Local\Temp\ccB9f98p.s:2658   .debug_str:0000000000000384 .LASF98
C:\Users\stapi\AppData\Local\Temp\ccB9f98p.s:2674   .debug_str:0000000000000455 .LASF99
C:\Users\stapi\AppData\Local\Temp\ccB9f98p.s:2644   .debug_str:00000000000002f8 .LASF100
C:\Users\stapi\AppData\Local\Temp\ccB9f98p.s:2772   .debug_str:0000000000000959 .LASF101
C:\Users\stapi\AppData\Local\Temp\ccB9f98p.s:2916   .debug_str:000000000000106b .LASF102
C:\Users\stapi\AppData\Local\Temp\ccB9f98p.s:2684   .debug_str:00000000000004cd .LASF103
C:\Users\stapi\AppData\Local\Temp\ccB9f98p.s:2900   .debug_str:0000000000000fa6 .LASF104
C:\Users\stapi\AppData\Local\Temp\ccB9f98p.s:2870   .debug_str:0000000000000e33 .LASF105
C:\Users\stapi\AppData\Local\Temp\ccB9f98p.s:2742   .debug_str:0000000000000782 .LASF106
C:\Users\stapi\AppData\Local\Temp\ccB9f98p.s:2696   .debug_str:0000000000000552 .LASF107
C:\Users\stapi\AppData\Local\Temp\ccB9f98p.s:2974   .debug_str:000000000000132b .LASF108
C:\Users\stapi\AppData\Local\Temp\ccB9f98p.s:2816   .debug_str:0000000000000b7f .LASF109
C:\Users\stapi\AppData\Local\Temp\ccB9f98p.s:2966   .debug_str:00000000000012c4 .LASF110
C:\Users\stapi\AppData\Local\Temp\ccB9f98p.s:2708   .debug_str:00000000000005ee .LASF111
C:\Users\stapi\AppData\Local\Temp\ccB9f98p.s:2800   .debug_str:0000000000000ab3 .LASF112
C:\Users\stapi\AppData\Local\Temp\ccB9f98p.s:2764   .debug_str:000000000000086b .LASF113
C:\Users\stapi\AppData\Local\Temp\ccB9f98p.s:2906   .debug_str:0000000000000fea .LASF114
C:\Users\stapi\AppData\Local\Temp\ccB9f98p.s:3046   .debug_str:00000000000017e8 .LASF115
C:\Users\stapi\AppData\Local\Temp\ccB9f98p.s:2972   .debug_str:0000000000001313 .LASF116
C:\Users\stapi\AppData\Local\Temp\ccB9f98p.s:2994   .debug_str:0000000000001452 .LASF117
C:\Users\stapi\AppData\Local\Temp\ccB9f98p.s:3040   .debug_str:0000000000001786 .LASF118
C:\Users\stapi\AppData\Local\Temp\ccB9f98p.s:2950   .debug_str:00000000000011e2 .LASF119
C:\Users\stapi\AppData\Local\Temp\ccB9f98p.s:2680   .debug_str:0000000000000496 .LASF120
C:\Users\stapi\AppData\Local\Temp\ccB9f98p.s:2992   .debug_str:000000000000142a .LASF121
C:\Users\stapi\AppData\Local\Temp\ccB9f98p.s:2734   .debug_str:0000000000000717 .LASF122
C:\Users\stapi\AppData\Local\Temp\ccB9f98p.s:2740   .debug_str:000000000000076a .LASF123
C:\Users\stapi\AppData\Local\Temp\ccB9f98p.s:3042   .debug_str:000000000000179c .LASF124
C:\Users\stapi\AppData\Local\Temp\ccB9f98p.s:2670   .debug_str:000000000000040d .LASF125
C:\Users\stapi\AppData\Local\Temp\ccB9f98p.s:3028   .debug_str:00000000000016e3 .LASF126
C:\Users\stapi\AppData\Local\Temp\ccB9f98p.s:2914   .debug_str:0000000000001044 .LASF127
C:\Users\stapi\AppData\Local\Temp\ccB9f98p.s:3038   .debug_str:000000000000176e .LASF128
C:\Users\stapi\AppData\Local\Temp\ccB9f98p.s:2798   .debug_str:0000000000000a93 .LASF129
C:\Users\stapi\AppData\Local\Temp\ccB9f98p.s:2838   .debug_str:0000000000000ca4 .LASF130
C:\Users\stapi\AppData\Local\Temp\ccB9f98p.s:2922   .debug_str:00000000000010a4 .LASF131
C:\Users\stapi\AppData\Local\Temp\ccB9f98p.s:2940   .debug_str:000000000000115d .LASF132
C:\Users\stapi\AppData\Local\Temp\ccB9f98p.s:2808   .debug_str:0000000000000b23 .LASF133
C:\Users\stapi\AppData\Local\Temp\ccB9f98p.s:2840   .debug_str:0000000000000cbf .LASF134
C:\Users\stapi\AppData\Local\Temp\ccB9f98p.s:2854   .debug_str:0000000000000d5b .LASF135
C:\Users\stapi\AppData\Local\Temp\ccB9f98p.s:3030   .debug_str:0000000000001703 .LASF136
C:\Users\stapi\AppData\Local\Temp\ccB9f98p.s:2984   .debug_str:00000000000013c4 .LASF137
C:\Users\stapi\AppData\Local\Temp\ccB9f98p.s:2820   .debug_str:0000000000000bb7 .LASF138
C:\Users\stapi\AppData\Local\Temp\ccB9f98p.s:2968   .debug_str:00000000000012dc .LASF139
C:\Users\stapi\AppData\Local\Temp\ccB9f98p.s:2666   .debug_str:00000000000003dc .LASF140
C:\Users\stapi\AppData\Local\Temp\ccB9f98p.s:2748   .debug_str:00000000000007d5 .LASF141
C:\Users\stapi\AppData\Local\Temp\ccB9f98p.s:2694   .debug_str:0000000000000538 .LASF142
C:\Users\stapi\AppData\Local\Temp\ccB9f98p.s:2932   .debug_str:0000000000001119 .LASF143
C:\Users\stapi\AppData\Local\Temp\ccB9f98p.s:2942   .debug_str:0000000000001178 .LASF144
C:\Users\stapi\AppData\Local\Temp\ccB9f98p.s:2802   .debug_str:0000000000000ad3 .LASF145
C:\Users\stapi\AppData\Local\Temp\ccB9f98p.s:2630   .debug_str:000000000000022a .LASF146
C:\Users\stapi\AppData\Local\Temp\ccB9f98p.s:2866   .debug_str:0000000000000e03 .LASF147
C:\Users\stapi\AppData\Local\Temp\ccB9f98p.s:2758   .debug_str:000000000000082a .LASF148
C:\Users\stapi\AppData\Local\Temp\ccB9f98p.s:2874   .debug_str:0000000000000e73 .LASF149
C:\Users\stapi\AppData\Local\Temp\ccB9f98p.s:2614   .debug_str:00000000000000ff .LASF150
C:\Users\stapi\AppData\Local\Temp\ccB9f98p.s:2690   .debug_str:000000000000050c .LASF151
C:\Users\stapi\AppData\Local\Temp\ccB9f98p.s:2626   .debug_str:00000000000001f8 .LASF152
C:\Users\stapi\AppData\Local\Temp\ccB9f98p.s:2726   .debug_str:00000000000006c9 .LASF153
C:\Users\stapi\AppData\Local\Temp\ccB9f98p.s:2890   .debug_str:0000000000000f39 .LASF154
C:\Users\stapi\AppData\Local\Temp\ccB9f98p.s:2606   .debug_str:000000000000009c .LASF155
C:\Users\stapi\AppData\Local\Temp\ccB9f98p.s:2982   .debug_str:00000000000013a1 .LASF156
C:\Users\stapi\AppData\Local\Temp\ccB9f98p.s:2804   .debug_str:0000000000000ae9 .LASF157
C:\Users\stapi\AppData\Local\Temp\ccB9f98p.s:2622   .debug_str:00000000000001ca .LASF158
C:\Users\stapi\AppData\Local\Temp\ccB9f98p.s:2988   .debug_str:00000000000013ec .LASF159
C:\Users\stapi\AppData\Local\Temp\ccB9f98p.s:2594   .debug_str:0000000000000000 .LASF160
C:\Users\stapi\AppData\Local\Temp\ccB9f98p.s:2648   .debug_str:0000000000000324 .LASF161
C:\Users\stapi\AppData\Local\Temp\ccB9f98p.s:2698   .debug_str:000000000000056a .LASF162
C:\Users\stapi\AppData\Local\Temp\ccB9f98p.s:2956   .debug_str:0000000000001241 .LASF163
C:\Users\stapi\AppData\Local\Temp\ccB9f98p.s:2936   .debug_str:0000000000001132 .LASF164
C:\Users\stapi\AppData\Local\Temp\ccB9f98p.s:2824   .debug_str:0000000000000be2 .LASF165
C:\Users\stapi\AppData\Local\Temp\ccB9f98p.s:2880   .debug_str:0000000000000ecf .LASF166
C:\Users\stapi\AppData\Local\Temp\ccB9f98p.s:2642   .debug_str:00000000000002d5 .LASF167
C:\Users\stapi\AppData\Local\Temp\ccB9f98p.s:2978   .debug_str:0000000000001361 .LASF168
C:\Users\stapi\AppData\Local\Temp\ccB9f98p.s:3026   .debug_str:00000000000016c0 .LASF169
C:\Users\stapi\AppData\Local\Temp\ccB9f98p.s:2948   .debug_str:00000000000011cc .LASF170
C:\Users\stapi\AppData\Local\Temp\ccB9f98p.s:2788   .debug_str:0000000000000a33 .LASF171
C:\Users\stapi\AppData\Local\Temp\ccB9f98p.s:2766   .debug_str:0000000000000883 .LASF172
C:\Users\stapi\AppData\Local\Temp\ccB9f98p.s:2872   .debug_str:0000000000000e4b .LASF173
C:\Users\stapi\AppData\Local\Temp\ccB9f98p.s:3010   .debug_str:000000000000151f .LASF174
C:\Users\stapi\AppData\Local\Temp\ccB9f98p.s:2860   .debug_str:0000000000000d95 .LASF175
C:\Users\stapi\AppData\Local\Temp\ccB9f98p.s:2926   .debug_str:00000000000010db .LASF176
C:\Users\stapi\AppData\Local\Temp\ccB9f98p.s:2998   .debug_str:0000000000001482 .LASF177
C:\Users\stapi\AppData\Local\Temp\ccB9f98p.s:2828   .debug_str:0000000000000c19 .LASF178
C:\Users\stapi\AppData\Local\Temp\ccB9f98p.s:2904   .debug_str:0000000000000fdd .LASF179
C:\Users\stapi\AppData\Local\Temp\ccB9f98p.s:2946   .debug_str:00000000000011b2 .LASF180
C:\Users\stapi\AppData\Local\Temp\ccB9f98p.s:2892   .debug_str:0000000000000f5a .LASF181
C:\Users\stapi\AppData\Local\Temp\ccB9f98p.s:2882   .debug_str:0000000000000eeb .LASF182
C:\Users\stapi\AppData\Local\Temp\ccB9f98p.s:2778   .debug_str:000000000000099a .LASF183
C:\Users\stapi\AppData\Local\Temp\ccB9f98p.s:2832   .debug_str:0000000000000c47 .LASF184
C:\Users\stapi\AppData\Local\Temp\ccB9f98p.s:2862   .debug_str:0000000000000db3 .LASF185
C:\Users\stapi\AppData\Local\Temp\ccB9f98p.s:2836   .debug_str:0000000000000c93 .LASF186
C:\Users\stapi\AppData\Local\Temp\ccB9f98p.s:2958   .debug_str:0000000000001260 .LASF187
C:\Users\stapi\AppData\Local\Temp\ccB9f98p.s:2760   .debug_str:000000000000084d .LASF188
C:\Users\stapi\AppData\Local\Temp\ccB9f98p.s:2646   .debug_str:0000000000000313 .LASF189
C:\Users\stapi\AppData\Local\Temp\ccB9f98p.s:2884   .debug_str:0000000000000eff .LASF190
C:\Users\stapi\AppData\Local\Temp\ccB9f98p.s:2830   .debug_str:0000000000000c36 .LASF191
C:\Users\stapi\AppData\Local\Temp\ccB9f98p.s:2722   .debug_str:0000000000000690 .LASF192
C:\Users\stapi\AppData\Local\Temp\ccB9f98p.s:2928   .debug_str:0000000000001101 .LASF193
C:\Users\stapi\AppData\Local\Temp\ccB9f98p.s:2712   .debug_str:0000000000000620 .LASF194
C:\Users\stapi\AppData\Local\Temp\ccB9f98p.s:2660   .debug_str:00000000000003a5 .LASF195
C:\Users\stapi\AppData\Local\Temp\ccB9f98p.s:2782   .debug_str:00000000000009f0 .LASF196
C:\Users\stapi\AppData\Local\Temp\ccB9f98p.s:2868   .debug_str:0000000000000e27 .LASF197
C:\Users\stapi\AppData\Local\Temp\ccB9f98p.s:2600   .debug_str:000000000000005c .LASF198
C:\Users\stapi\AppData\Local\Temp\ccB9f98p.s:2692   .debug_str:000000000000052e .LASF226
C:\Users\stapi\AppData\Local\Temp\ccB9f98p.s:3004   .debug_str:00000000000014d8 .LASF227
C:\Users\stapi\AppData\Local\Temp\ccB9f98p.s:2620   .debug_str:00000000000001c5 .LASF199
C:\Users\stapi\AppData\Local\Temp\ccB9f98p.s:2732   .debug_str:0000000000000711 .LASF200
C:\Users\stapi\AppData\Local\Temp\ccB9f98p.s:3016   .debug_str:0000000000001646 .LASF201
C:\Users\stapi\AppData\Local\Temp\ccB9f98p.s:2754   .debug_str:000000000000081b .LASF202
C:\Users\stapi\AppData\Local\Temp\ccB9f98p.s:2776   .debug_str:000000000000098d .LASF203
C:\Users\stapi\AppData\Local\Temp\ccB9f98p.s:2756   .debug_str:0000000000000820 .LASF204
C:\Users\stapi\AppData\Local\Temp\ccB9f98p.s:2702   .debug_str:00000000000005b4 .LASF205
C:\Users\stapi\AppData\Local\Temp\ccB9f98p.s:2762   .debug_str:000000000000085e .LASF206
C:\Users\stapi\AppData\Local\Temp\ccB9f98p.s:2806   .debug_str:0000000000000b0a .LASF228
C:\Users\stapi\AppData\Local\Temp\ccB9f98p.s:42     .text.iotx_facility_json_print:0000000000000000 .LFB20
C:\Users\stapi\AppData\Local\Temp\ccB9f98p.s:582    .text.iotx_facility_json_print:0000000000000356 .LFE20
C:\Users\stapi\AppData\Local\Temp\ccB9f98p.s:2288   .debug_loc:0000000000000000 .LLST0
C:\Users\stapi\AppData\Local\Temp\ccB9f98p.s:2752   .debug_str:0000000000000815 .LASF207
C:\Users\stapi\AppData\Local\Temp\ccB9f98p.s:2317   .debug_loc:0000000000000045 .LLST1
C:\Users\stapi\AppData\Local\Temp\ccB9f98p.s:2930   .debug_str:0000000000001112 .LASF208
C:\Users\stapi\AppData\Local\Temp\ccB9f98p.s:2346   .debug_loc:000000000000008a .LLST2
C:\Users\stapi\AppData\Local\Temp\ccB9f98p.s:2664   .debug_str:00000000000003d5 .LASF209
C:\Users\stapi\AppData\Local\Temp\ccB9f98p.s:2858   .debug_str:0000000000000d8e .LASF210
C:\Users\stapi\AppData\Local\Temp\ccB9f98p.s:2368   .debug_loc:00000000000000c2 .LLST3
C:\Users\stapi\AppData\Local\Temp\ccB9f98p.s:2842   .debug_str:0000000000000cdc .LASF211
C:\Users\stapi\AppData\Local\Temp\ccB9f98p.s:2385   .debug_loc:00000000000000ed .LLST4
C:\Users\stapi\AppData\Local\Temp\ccB9f98p.s:2790   .debug_str:0000000000000a4b .LASF212
C:\Users\stapi\AppData\Local\Temp\ccB9f98p.s:2408   .debug_loc:0000000000000125 .LLST5
C:\Users\stapi\AppData\Local\Temp\ccB9f98p.s:2425   .debug_loc:0000000000000150 .LLST6
C:\Users\stapi\AppData\Local\Temp\ccB9f98p.s:2442   .debug_loc:000000000000017b .LLST7
C:\Users\stapi\AppData\Local\Temp\ccB9f98p.s:2918   .debug_str:000000000000108a .LASF213
C:\Users\stapi\AppData\Local\Temp\ccB9f98p.s:2503   .debug_loc:000000000000021a .LLST8
C:\Users\stapi\AppData\Local\Temp\ccB9f98p.s:2510   .debug_loc:000000000000022d .LLST9
C:\Users\stapi\AppData\Local\Temp\ccB9f98p.s:2616   .debug_str:0000000000000120 .LASF214
C:\Users\stapi\AppData\Local\Temp\ccB9f98p.s:2656   .debug_str:000000000000037f .LASF215
C:\Users\stapi\AppData\Local\Temp\ccB9f98p.s:2535   .debug_loc:000000000000026e .LLST10
C:\Users\stapi\AppData\Local\Temp\ccB9f98p.s:2550   .debug_loc:0000000000000290 .LLST11
C:\Users\stapi\AppData\Local\Temp\ccB9f98p.s:326    .text.iotx_facility_json_print:00000000000001be .LVL23
C:\Users\stapi\AppData\Local\Temp\ccB9f98p.s:337    .text.iotx_facility_json_print:00000000000001d8 .LVL24
C:\Users\stapi\AppData\Local\Temp\ccB9f98p.s:357    .text.iotx_facility_json_print:00000000000001f2 .LVL27
C:\Users\stapi\AppData\Local\Temp\ccB9f98p.s:374    .text.iotx_facility_json_print:000000000000020a .LVL30
C:\Users\stapi\AppData\Local\Temp\ccB9f98p.s:385    .text.iotx_facility_json_print:0000000000000220 .LVL31
C:\Users\stapi\AppData\Local\Temp\ccB9f98p.s:396    .text.iotx_facility_json_print:000000000000023a .LVL32
C:\Users\stapi\AppData\Local\Temp\ccB9f98p.s:432    .text.iotx_facility_json_print:0000000000000268 .LVL38
C:\Users\stapi\AppData\Local\Temp\ccB9f98p.s:465    .text.iotx_facility_json_print:000000000000029c .LVL42
C:\Users\stapi\AppData\Local\Temp\ccB9f98p.s:486    .text.iotx_facility_json_print:00000000000002b8 .LVL45
C:\Users\stapi\AppData\Local\Temp\ccB9f98p.s:514    .text.iotx_facility_json_print:00000000000002e0 .LVL49
C:\Users\stapi\AppData\Local\Temp\ccB9f98p.s:525    .text.iotx_facility_json_print:00000000000002f6 .LVL50
C:\Users\stapi\AppData\Local\Temp\ccB9f98p.s:536    .text.iotx_facility_json_print:0000000000000310 .LVL51
C:\Users\stapi\AppData\Local\Temp\ccB9f98p.s:548    .text.iotx_facility_json_print:0000000000000326 .LVL53
C:\Users\stapi\AppData\Local\Temp\ccB9f98p.s:564    .text.iotx_facility_json_print:000000000000033c .LVL56
C:\Users\stapi\AppData\Local\Temp\ccB9f98p.s:576    .text.iotx_facility_json_print:0000000000000354 .LVL57
C:\Users\stapi\AppData\Local\Temp\ccB9f98p.s:94     .text.iotx_facility_json_print:0000000000000034 .LVL1
C:\Users\stapi\AppData\Local\Temp\ccB9f98p.s:121    .text.iotx_facility_json_print:0000000000000052 .LVL3
C:\Users\stapi\AppData\Local\Temp\ccB9f98p.s:127    .text.iotx_facility_json_print:0000000000000060 .LVL4
C:\Users\stapi\AppData\Local\Temp\ccB9f98p.s:178    .text.iotx_facility_json_print:0000000000000090 .LVL10
C:\Users\stapi\AppData\Local\Temp\ccB9f98p.s:185    .text.iotx_facility_json_print:000000000000009c .LVL11
C:\Users\stapi\AppData\Local\Temp\ccB9f98p.s:202    .text.iotx_facility_json_print:00000000000000c4 .LVL15
C:\Users\stapi\AppData\Local\Temp\ccB9f98p.s:221    .text.iotx_facility_json_print:00000000000000e2 .LVL17
C:\Users\stapi\AppData\Local\Temp\ccB9f98p.s:236    .text.iotx_facility_json_print:000000000000010a .LVL18
C:\Users\stapi\AppData\Local\Temp\ccB9f98p.s:267    .text.iotx_facility_json_print:000000000000013a .LVL20
C:\Users\stapi\AppData\Local\Temp\ccB9f98p.s:273    .text.iotx_facility_json_print:000000000000014e .LVL21
C:\Users\stapi\AppData\Local\Temp\ccB9f98p.s:2624   .debug_str:00000000000001ed .LASF216
C:\Users\stapi\AppData\Local\Temp\ccB9f98p.s:2774   .debug_str:000000000000097b .LASF217
C:\Users\stapi\AppData\Local\Temp\ccB9f98p.s:2812   .debug_str:0000000000000b5c .LASF218
C:\Users\stapi\AppData\Local\Temp\ccB9f98p.s:2852   .debug_str:0000000000000d4a .LASF219
C:\Users\stapi\AppData\Local\Temp\ccB9f98p.s:2856   .debug_str:0000000000000d79 .LASF220
C:\Users\stapi\AppData\Local\Temp\ccB9f98p.s:46     .text.iotx_facility_json_print:0000000000000000 .LVL0
C:\Users\stapi\AppData\Local\Temp\ccB9f98p.s:137    .text.iotx_facility_json_print:0000000000000066 .LVL7
C:\Users\stapi\AppData\Local\Temp\ccB9f98p.s:171    .text.iotx_facility_json_print:0000000000000086 .LVL8
C:\Users\stapi\AppData\Local\Temp\ccB9f98p.s:255    .text.iotx_facility_json_print:0000000000000120 .LVL19
C:\Users\stapi\AppData\Local\Temp\ccB9f98p.s:190    .text.iotx_facility_json_print:00000000000000a8 .LVL12
C:\Users\stapi\AppData\Local\Temp\ccB9f98p.s:194    .text.iotx_facility_json_print:00000000000000ac .LVL13
C:\Users\stapi\AppData\Local\Temp\ccB9f98p.s:198    .text.iotx_facility_json_print:00000000000000b4 .LVL14
C:\Users\stapi\AppData\Local\Temp\ccB9f98p.s:497    .text.iotx_facility_json_print:00000000000002c8 .LVL46
C:\Users\stapi\AppData\Local\Temp\ccB9f98p.s:504    .text.iotx_facility_json_print:00000000000002ce .LVL48
C:\Users\stapi\AppData\Local\Temp\ccB9f98p.s:342    .text.iotx_facility_json_print:00000000000001da .LVL25
C:\Users\stapi\AppData\Local\Temp\ccB9f98p.s:346    .text.iotx_facility_json_print:00000000000001dc .LVL26
C:\Users\stapi\AppData\Local\Temp\ccB9f98p.s:362    .text.iotx_facility_json_print:00000000000001f6 .LVL28
C:\Users\stapi\AppData\Local\Temp\ccB9f98p.s:364    .text.iotx_facility_json_print:00000000000001f8 .LVL29
C:\Users\stapi\AppData\Local\Temp\ccB9f98p.s:407    .text.iotx_facility_json_print:000000000000024c .LVL33
C:\Users\stapi\AppData\Local\Temp\ccB9f98p.s:411    .text.iotx_facility_json_print:000000000000024e .LVL34
C:\Users\stapi\AppData\Local\Temp\ccB9f98p.s:416    .text.iotx_facility_json_print:0000000000000252 .LVL35
C:\Users\stapi\AppData\Local\Temp\ccB9f98p.s:425    .text.iotx_facility_json_print:0000000000000258 .LVL37
C:\Users\stapi\AppData\Local\Temp\ccB9f98p.s:438    .text.iotx_facility_json_print:000000000000026c .LVL40
C:\Users\stapi\AppData\Local\Temp\ccB9f98p.s:457    .text.iotx_facility_json_print:000000000000028a .LVL41
C:\Users\stapi\AppData\Local\Temp\ccB9f98p.s:470    .text.iotx_facility_json_print:00000000000002a0 .LVL43
C:\Users\stapi\AppData\Local\Temp\ccB9f98p.s:476    .text.iotx_facility_json_print:00000000000002a6 .LVL44
C:\Users\stapi\AppData\Local\Temp\ccB9f98p.s:539    .text.iotx_facility_json_print:0000000000000312 .LVL52
C:\Users\stapi\AppData\Local\Temp\ccB9f98p.s:554    .text.iotx_facility_json_print:000000000000032a .LVL55
C:\Users\stapi\AppData\Local\Temp\ccB9f98p.s:119    .text.iotx_facility_json_print:000000000000004a .LVL2
C:\Users\stapi\AppData\Local\Temp\ccB9f98p.s:129    .text.iotx_facility_json_print:0000000000000062 .LVL5
C:\Users\stapi\AppData\Local\Temp\ccB9f98p.s:133    .text.iotx_facility_json_print:0000000000000064 .LVL6
C:\Users\stapi\AppData\Local\Temp\ccB9f98p.s:176    .text.iotx_facility_json_print:0000000000000088 .LVL9
C:\Users\stapi\AppData\Local\Temp\ccB9f98p.s:217    .text.iotx_facility_json_print:00000000000000da .LVL16
C:\Users\stapi\AppData\Local\Temp\ccB9f98p.s:282    .text.iotx_facility_json_print:0000000000000154 .LVL22
C:\Users\stapi\AppData\Local\Temp\ccB9f98p.s:593    .debug_info:0000000000000000 .Ldebug_info0
C:\Users\stapi\AppData\Local\Temp\ccB9f98p.s:247    .text.iotx_facility_json_print:0000000000000110 .LBB2
C:\Users\stapi\AppData\Local\Temp\ccB9f98p.s:257    .text.iotx_facility_json_print:0000000000000120 .LBE2
C:\Users\stapi\AppData\Local\Temp\ccB9f98p.s:278    .text.iotx_facility_json_print:0000000000000150 .LBB3
C:\Users\stapi\AppData\Local\Temp\ccB9f98p.s:418    .text.iotx_facility_json_print:0000000000000252 .LBE3
C:\Users\stapi\AppData\Local\Temp\ccB9f98p.s:427    .text.iotx_facility_json_print:0000000000000258 .LBB4
C:\Users\stapi\AppData\Local\Temp\ccB9f98p.s:580    .text.iotx_facility_json_print:0000000000000356 .LBE4

UNDEFINED SYMBOLS
LITE_get_loglevel
strlen
lite_cjson_parse
lite_cjson_is_object
lvl_color
HAL_Printf
