   1              		.file	"guider.c"
   2              		.option nopic
   3              		.attribute arch, "rv32i2p0_m2p0_a2p0_f2p0_c2p0_b_p0p94"
   4              		.attribute unaligned_access, 0
   5              		.attribute stack_align, 16
   6              		.text
   7              	.Ltext0:
   8              		.cfi_sections	.debug_frame
   9              		.section	.rodata.printf_parting_line.isra.0.str1.4,"aMS",@progbits,1
  10              		.align	2
  11              	.LC0:
  12 0000 2E2E2E2E 		.string	".................................\r"
  12      2E2E2E2E 
  12      2E2E2E2E 
  12      2E2E2E2E 
  12      2E2E2E2E 
  13              		.section	.text.printf_parting_line.isra.0,"ax",@progbits
  14              		.align	1
  16              	printf_parting_line.isra.0:
  17              	.LFB51:
  18              		.file 1 "C:/Users/stapi/OneDrive/Desktop/GD32VW553/V1_MQTT_OK/GD32VW55X_Wifi_BLE_SDK/GD32VW55x_REL
   1:C:/Users/stapi/OneDrive/Desktop/GD32VW553/V1_MQTT_OK/GD32VW55X_Wifi_BLE_SDK/GD32VW55x_RELEASE_V1.0.2/MSDK/cloud/alicloud/src/infra/system\guider.c **** /*
   2:C:/Users/stapi/OneDrive/Desktop/GD32VW553/V1_MQTT_OK/GD32VW55X_Wifi_BLE_SDK/GD32VW55x_RELEASE_V1.0.2/MSDK/cloud/alicloud/src/infra/system\guider.c ****  * Copyright (C) 2015-2019 Alibaba Group Holding Limited
   3:C:/Users/stapi/OneDrive/Desktop/GD32VW553/V1_MQTT_OK/GD32VW55X_Wifi_BLE_SDK/GD32VW55x_RELEASE_V1.0.2/MSDK/cloud/alicloud/src/infra/system\guider.c ****  */
   4:C:/Users/stapi/OneDrive/Desktop/GD32VW553/V1_MQTT_OK/GD32VW55X_Wifi_BLE_SDK/GD32VW55x_RELEASE_V1.0.2/MSDK/cloud/alicloud/src/infra/system\guider.c **** #include <ctype.h>
   5:C:/Users/stapi/OneDrive/Desktop/GD32VW553/V1_MQTT_OK/GD32VW55X_Wifi_BLE_SDK/GD32VW55x_RELEASE_V1.0.2/MSDK/cloud/alicloud/src/infra/system\guider.c **** #include <stdint.h>
   6:C:/Users/stapi/OneDrive/Desktop/GD32VW553/V1_MQTT_OK/GD32VW55X_Wifi_BLE_SDK/GD32VW55x_RELEASE_V1.0.2/MSDK/cloud/alicloud/src/infra/system\guider.c **** 
   7:C:/Users/stapi/OneDrive/Desktop/GD32VW553/V1_MQTT_OK/GD32VW55X_Wifi_BLE_SDK/GD32VW55x_RELEASE_V1.0.2/MSDK/cloud/alicloud/src/infra/system\guider.c **** #include "iot_export.h"
   8:C:/Users/stapi/OneDrive/Desktop/GD32VW553/V1_MQTT_OK/GD32VW55X_Wifi_BLE_SDK/GD32VW55x_RELEASE_V1.0.2/MSDK/cloud/alicloud/src/infra/system\guider.c **** #include "passwd.h"
   9:C:/Users/stapi/OneDrive/Desktop/GD32VW553/V1_MQTT_OK/GD32VW55X_Wifi_BLE_SDK/GD32VW55x_RELEASE_V1.0.2/MSDK/cloud/alicloud/src/infra/system\guider.c **** 
  10:C:/Users/stapi/OneDrive/Desktop/GD32VW553/V1_MQTT_OK/GD32VW55X_Wifi_BLE_SDK/GD32VW55x_RELEASE_V1.0.2/MSDK/cloud/alicloud/src/infra/system\guider.c **** #include "sdk-impl_internal.h"
  11:C:/Users/stapi/OneDrive/Desktop/GD32VW553/V1_MQTT_OK/GD32VW55X_Wifi_BLE_SDK/GD32VW55x_RELEASE_V1.0.2/MSDK/cloud/alicloud/src/infra/system\guider.c **** #include "iotx_system_internal.h"
  12:C:/Users/stapi/OneDrive/Desktop/GD32VW553/V1_MQTT_OK/GD32VW55X_Wifi_BLE_SDK/GD32VW55x_RELEASE_V1.0.2/MSDK/cloud/alicloud/src/infra/system\guider.c **** 
  13:C:/Users/stapi/OneDrive/Desktop/GD32VW553/V1_MQTT_OK/GD32VW55X_Wifi_BLE_SDK/GD32VW55x_RELEASE_V1.0.2/MSDK/cloud/alicloud/src/infra/system\guider.c **** #define SYS_GUIDER_MALLOC(size) LITE_malloc(size, MEM_MAGIC, "guider")
  14:C:/Users/stapi/OneDrive/Desktop/GD32VW553/V1_MQTT_OK/GD32VW55X_Wifi_BLE_SDK/GD32VW55x_RELEASE_V1.0.2/MSDK/cloud/alicloud/src/infra/system\guider.c **** #define SYS_GUIDER_FREE(ptr) LITE_free(ptr)
  15:C:/Users/stapi/OneDrive/Desktop/GD32VW553/V1_MQTT_OK/GD32VW55X_Wifi_BLE_SDK/GD32VW55x_RELEASE_V1.0.2/MSDK/cloud/alicloud/src/infra/system\guider.c **** 
  16:C:/Users/stapi/OneDrive/Desktop/GD32VW553/V1_MQTT_OK/GD32VW55X_Wifi_BLE_SDK/GD32VW55x_RELEASE_V1.0.2/MSDK/cloud/alicloud/src/infra/system\guider.c **** #ifndef CONFIG_GUIDER_AUTH_TIMEOUT
  17:C:/Users/stapi/OneDrive/Desktop/GD32VW553/V1_MQTT_OK/GD32VW55X_Wifi_BLE_SDK/GD32VW55x_RELEASE_V1.0.2/MSDK/cloud/alicloud/src/infra/system\guider.c **** #define CONFIG_GUIDER_AUTH_TIMEOUT (10 * 1000)
  18:C:/Users/stapi/OneDrive/Desktop/GD32VW553/V1_MQTT_OK/GD32VW55X_Wifi_BLE_SDK/GD32VW55x_RELEASE_V1.0.2/MSDK/cloud/alicloud/src/infra/system\guider.c **** #endif
  19:C:/Users/stapi/OneDrive/Desktop/GD32VW553/V1_MQTT_OK/GD32VW55X_Wifi_BLE_SDK/GD32VW55x_RELEASE_V1.0.2/MSDK/cloud/alicloud/src/infra/system\guider.c **** 
  20:C:/Users/stapi/OneDrive/Desktop/GD32VW553/V1_MQTT_OK/GD32VW55X_Wifi_BLE_SDK/GD32VW55x_RELEASE_V1.0.2/MSDK/cloud/alicloud/src/infra/system\guider.c **** #ifndef CONFIG_GUIDER_DUMP_SECRET
  21:C:/Users/stapi/OneDrive/Desktop/GD32VW553/V1_MQTT_OK/GD32VW55X_Wifi_BLE_SDK/GD32VW55x_RELEASE_V1.0.2/MSDK/cloud/alicloud/src/infra/system\guider.c **** #define CONFIG_GUIDER_DUMP_SECRET (0)
  22:C:/Users/stapi/OneDrive/Desktop/GD32VW553/V1_MQTT_OK/GD32VW55X_Wifi_BLE_SDK/GD32VW55x_RELEASE_V1.0.2/MSDK/cloud/alicloud/src/infra/system\guider.c **** #endif
  23:C:/Users/stapi/OneDrive/Desktop/GD32VW553/V1_MQTT_OK/GD32VW55X_Wifi_BLE_SDK/GD32VW55x_RELEASE_V1.0.2/MSDK/cloud/alicloud/src/infra/system\guider.c **** 
  24:C:/Users/stapi/OneDrive/Desktop/GD32VW553/V1_MQTT_OK/GD32VW55X_Wifi_BLE_SDK/GD32VW55x_RELEASE_V1.0.2/MSDK/cloud/alicloud/src/infra/system\guider.c **** #define CUSTOME_DOMAIN_LEN_MAX (60)
  25:C:/Users/stapi/OneDrive/Desktop/GD32VW553/V1_MQTT_OK/GD32VW55X_Wifi_BLE_SDK/GD32VW55x_RELEASE_V1.0.2/MSDK/cloud/alicloud/src/infra/system\guider.c **** 
  26:C:/Users/stapi/OneDrive/Desktop/GD32VW553/V1_MQTT_OK/GD32VW55X_Wifi_BLE_SDK/GD32VW55x_RELEASE_V1.0.2/MSDK/cloud/alicloud/src/infra/system\guider.c **** static connect_method_e bootup_connect_method = CONNECT_DIRECT;
  27:C:/Users/stapi/OneDrive/Desktop/GD32VW553/V1_MQTT_OK/GD32VW55X_Wifi_BLE_SDK/GD32VW55x_RELEASE_V1.0.2/MSDK/cloud/alicloud/src/infra/system\guider.c **** static unsigned char direct_connect_count = 0;
  28:C:/Users/stapi/OneDrive/Desktop/GD32VW553/V1_MQTT_OK/GD32VW55X_Wifi_BLE_SDK/GD32VW55x_RELEASE_V1.0.2/MSDK/cloud/alicloud/src/infra/system\guider.c **** static unsigned char is_request_mqtt_host_by_regionid = 0;
  29:C:/Users/stapi/OneDrive/Desktop/GD32VW553/V1_MQTT_OK/GD32VW55X_Wifi_BLE_SDK/GD32VW55x_RELEASE_V1.0.2/MSDK/cloud/alicloud/src/infra/system\guider.c **** static guider_env_e guider_env = GUIDER_ENV_ONLINE;
  30:C:/Users/stapi/OneDrive/Desktop/GD32VW553/V1_MQTT_OK/GD32VW55X_Wifi_BLE_SDK/GD32VW55x_RELEASE_V1.0.2/MSDK/cloud/alicloud/src/infra/system\guider.c **** 
  31:C:/Users/stapi/OneDrive/Desktop/GD32VW553/V1_MQTT_OK/GD32VW55X_Wifi_BLE_SDK/GD32VW55x_RELEASE_V1.0.2/MSDK/cloud/alicloud/src/infra/system\guider.c **** static char *get_secure_mode_str(secure_mode_e secure_mode)
  32:C:/Users/stapi/OneDrive/Desktop/GD32VW553/V1_MQTT_OK/GD32VW55X_Wifi_BLE_SDK/GD32VW55x_RELEASE_V1.0.2/MSDK/cloud/alicloud/src/infra/system\guider.c **** {
  33:C:/Users/stapi/OneDrive/Desktop/GD32VW553/V1_MQTT_OK/GD32VW55X_Wifi_BLE_SDK/GD32VW55x_RELEASE_V1.0.2/MSDK/cloud/alicloud/src/infra/system\guider.c ****     static char *secure_mode_str = NULL;
  34:C:/Users/stapi/OneDrive/Desktop/GD32VW553/V1_MQTT_OK/GD32VW55X_Wifi_BLE_SDK/GD32VW55x_RELEASE_V1.0.2/MSDK/cloud/alicloud/src/infra/system\guider.c **** 
  35:C:/Users/stapi/OneDrive/Desktop/GD32VW553/V1_MQTT_OK/GD32VW55X_Wifi_BLE_SDK/GD32VW55x_RELEASE_V1.0.2/MSDK/cloud/alicloud/src/infra/system\guider.c ****     switch (secure_mode)
  36:C:/Users/stapi/OneDrive/Desktop/GD32VW553/V1_MQTT_OK/GD32VW55X_Wifi_BLE_SDK/GD32VW55x_RELEASE_V1.0.2/MSDK/cloud/alicloud/src/infra/system\guider.c ****     {
  37:C:/Users/stapi/OneDrive/Desktop/GD32VW553/V1_MQTT_OK/GD32VW55X_Wifi_BLE_SDK/GD32VW55x_RELEASE_V1.0.2/MSDK/cloud/alicloud/src/infra/system\guider.c ****     case MODE_TLS_GUIDER:
  38:C:/Users/stapi/OneDrive/Desktop/GD32VW553/V1_MQTT_OK/GD32VW55X_Wifi_BLE_SDK/GD32VW55x_RELEASE_V1.0.2/MSDK/cloud/alicloud/src/infra/system\guider.c ****     {
  39:C:/Users/stapi/OneDrive/Desktop/GD32VW553/V1_MQTT_OK/GD32VW55X_Wifi_BLE_SDK/GD32VW55x_RELEASE_V1.0.2/MSDK/cloud/alicloud/src/infra/system\guider.c ****         secure_mode_str = "TLS + Guider";
  40:C:/Users/stapi/OneDrive/Desktop/GD32VW553/V1_MQTT_OK/GD32VW55X_Wifi_BLE_SDK/GD32VW55x_RELEASE_V1.0.2/MSDK/cloud/alicloud/src/infra/system\guider.c ****     }
  41:C:/Users/stapi/OneDrive/Desktop/GD32VW553/V1_MQTT_OK/GD32VW55X_Wifi_BLE_SDK/GD32VW55x_RELEASE_V1.0.2/MSDK/cloud/alicloud/src/infra/system\guider.c ****     break;
  42:C:/Users/stapi/OneDrive/Desktop/GD32VW553/V1_MQTT_OK/GD32VW55X_Wifi_BLE_SDK/GD32VW55x_RELEASE_V1.0.2/MSDK/cloud/alicloud/src/infra/system\guider.c ****     case MODE_TCP_GUIDER_PLAIN:
  43:C:/Users/stapi/OneDrive/Desktop/GD32VW553/V1_MQTT_OK/GD32VW55X_Wifi_BLE_SDK/GD32VW55x_RELEASE_V1.0.2/MSDK/cloud/alicloud/src/infra/system\guider.c ****     {
  44:C:/Users/stapi/OneDrive/Desktop/GD32VW553/V1_MQTT_OK/GD32VW55X_Wifi_BLE_SDK/GD32VW55x_RELEASE_V1.0.2/MSDK/cloud/alicloud/src/infra/system\guider.c ****         secure_mode_str = "TCP + Guider + Plain";
  45:C:/Users/stapi/OneDrive/Desktop/GD32VW553/V1_MQTT_OK/GD32VW55X_Wifi_BLE_SDK/GD32VW55x_RELEASE_V1.0.2/MSDK/cloud/alicloud/src/infra/system\guider.c ****     }
  46:C:/Users/stapi/OneDrive/Desktop/GD32VW553/V1_MQTT_OK/GD32VW55X_Wifi_BLE_SDK/GD32VW55x_RELEASE_V1.0.2/MSDK/cloud/alicloud/src/infra/system\guider.c ****     break;
  47:C:/Users/stapi/OneDrive/Desktop/GD32VW553/V1_MQTT_OK/GD32VW55X_Wifi_BLE_SDK/GD32VW55x_RELEASE_V1.0.2/MSDK/cloud/alicloud/src/infra/system\guider.c ****     case MODE_TCP_GUIDER_ID2_ENCRYPT:
  48:C:/Users/stapi/OneDrive/Desktop/GD32VW553/V1_MQTT_OK/GD32VW55X_Wifi_BLE_SDK/GD32VW55x_RELEASE_V1.0.2/MSDK/cloud/alicloud/src/infra/system\guider.c ****     {
  49:C:/Users/stapi/OneDrive/Desktop/GD32VW553/V1_MQTT_OK/GD32VW55X_Wifi_BLE_SDK/GD32VW55x_RELEASE_V1.0.2/MSDK/cloud/alicloud/src/infra/system\guider.c ****         secure_mode_str = "TCP + Guider + ID2";
  50:C:/Users/stapi/OneDrive/Desktop/GD32VW553/V1_MQTT_OK/GD32VW55X_Wifi_BLE_SDK/GD32VW55x_RELEASE_V1.0.2/MSDK/cloud/alicloud/src/infra/system\guider.c ****     }
  51:C:/Users/stapi/OneDrive/Desktop/GD32VW553/V1_MQTT_OK/GD32VW55X_Wifi_BLE_SDK/GD32VW55x_RELEASE_V1.0.2/MSDK/cloud/alicloud/src/infra/system\guider.c ****     break;
  52:C:/Users/stapi/OneDrive/Desktop/GD32VW553/V1_MQTT_OK/GD32VW55X_Wifi_BLE_SDK/GD32VW55x_RELEASE_V1.0.2/MSDK/cloud/alicloud/src/infra/system\guider.c ****     case MODE_TLS_DIRECT:
  53:C:/Users/stapi/OneDrive/Desktop/GD32VW553/V1_MQTT_OK/GD32VW55X_Wifi_BLE_SDK/GD32VW55x_RELEASE_V1.0.2/MSDK/cloud/alicloud/src/infra/system\guider.c ****     {
  54:C:/Users/stapi/OneDrive/Desktop/GD32VW553/V1_MQTT_OK/GD32VW55X_Wifi_BLE_SDK/GD32VW55x_RELEASE_V1.0.2/MSDK/cloud/alicloud/src/infra/system\guider.c ****         secure_mode_str = "TLS + Direct";
  55:C:/Users/stapi/OneDrive/Desktop/GD32VW553/V1_MQTT_OK/GD32VW55X_Wifi_BLE_SDK/GD32VW55x_RELEASE_V1.0.2/MSDK/cloud/alicloud/src/infra/system\guider.c ****     }
  56:C:/Users/stapi/OneDrive/Desktop/GD32VW553/V1_MQTT_OK/GD32VW55X_Wifi_BLE_SDK/GD32VW55x_RELEASE_V1.0.2/MSDK/cloud/alicloud/src/infra/system\guider.c ****     break;
  57:C:/Users/stapi/OneDrive/Desktop/GD32VW553/V1_MQTT_OK/GD32VW55X_Wifi_BLE_SDK/GD32VW55x_RELEASE_V1.0.2/MSDK/cloud/alicloud/src/infra/system\guider.c ****     case MODE_TCP_DIRECT_PLAIN:
  58:C:/Users/stapi/OneDrive/Desktop/GD32VW553/V1_MQTT_OK/GD32VW55X_Wifi_BLE_SDK/GD32VW55x_RELEASE_V1.0.2/MSDK/cloud/alicloud/src/infra/system\guider.c ****     {
  59:C:/Users/stapi/OneDrive/Desktop/GD32VW553/V1_MQTT_OK/GD32VW55X_Wifi_BLE_SDK/GD32VW55x_RELEASE_V1.0.2/MSDK/cloud/alicloud/src/infra/system\guider.c ****         secure_mode_str = "TCP + Direct + Plain";
  60:C:/Users/stapi/OneDrive/Desktop/GD32VW553/V1_MQTT_OK/GD32VW55X_Wifi_BLE_SDK/GD32VW55x_RELEASE_V1.0.2/MSDK/cloud/alicloud/src/infra/system\guider.c ****     }
  61:C:/Users/stapi/OneDrive/Desktop/GD32VW553/V1_MQTT_OK/GD32VW55X_Wifi_BLE_SDK/GD32VW55x_RELEASE_V1.0.2/MSDK/cloud/alicloud/src/infra/system\guider.c ****     break;
  62:C:/Users/stapi/OneDrive/Desktop/GD32VW553/V1_MQTT_OK/GD32VW55X_Wifi_BLE_SDK/GD32VW55x_RELEASE_V1.0.2/MSDK/cloud/alicloud/src/infra/system\guider.c ****     case MODE_TCP_DIRECT_ID2_ENCRYPT:
  63:C:/Users/stapi/OneDrive/Desktop/GD32VW553/V1_MQTT_OK/GD32VW55X_Wifi_BLE_SDK/GD32VW55x_RELEASE_V1.0.2/MSDK/cloud/alicloud/src/infra/system\guider.c ****     {
  64:C:/Users/stapi/OneDrive/Desktop/GD32VW553/V1_MQTT_OK/GD32VW55X_Wifi_BLE_SDK/GD32VW55x_RELEASE_V1.0.2/MSDK/cloud/alicloud/src/infra/system\guider.c ****         secure_mode_str = "TCP + Direct + ID2";
  65:C:/Users/stapi/OneDrive/Desktop/GD32VW553/V1_MQTT_OK/GD32VW55X_Wifi_BLE_SDK/GD32VW55x_RELEASE_V1.0.2/MSDK/cloud/alicloud/src/infra/system\guider.c ****     }
  66:C:/Users/stapi/OneDrive/Desktop/GD32VW553/V1_MQTT_OK/GD32VW55X_Wifi_BLE_SDK/GD32VW55x_RELEASE_V1.0.2/MSDK/cloud/alicloud/src/infra/system\guider.c ****     break;
  67:C:/Users/stapi/OneDrive/Desktop/GD32VW553/V1_MQTT_OK/GD32VW55X_Wifi_BLE_SDK/GD32VW55x_RELEASE_V1.0.2/MSDK/cloud/alicloud/src/infra/system\guider.c ****     case MODE_TLS_GUIDER_ID2_ENCRYPT:
  68:C:/Users/stapi/OneDrive/Desktop/GD32VW553/V1_MQTT_OK/GD32VW55X_Wifi_BLE_SDK/GD32VW55x_RELEASE_V1.0.2/MSDK/cloud/alicloud/src/infra/system\guider.c ****     {
  69:C:/Users/stapi/OneDrive/Desktop/GD32VW553/V1_MQTT_OK/GD32VW55X_Wifi_BLE_SDK/GD32VW55x_RELEASE_V1.0.2/MSDK/cloud/alicloud/src/infra/system\guider.c ****         secure_mode_str = "TLS + Guider + ID2";
  70:C:/Users/stapi/OneDrive/Desktop/GD32VW553/V1_MQTT_OK/GD32VW55X_Wifi_BLE_SDK/GD32VW55x_RELEASE_V1.0.2/MSDK/cloud/alicloud/src/infra/system\guider.c ****     }
  71:C:/Users/stapi/OneDrive/Desktop/GD32VW553/V1_MQTT_OK/GD32VW55X_Wifi_BLE_SDK/GD32VW55x_RELEASE_V1.0.2/MSDK/cloud/alicloud/src/infra/system\guider.c ****     break;
  72:C:/Users/stapi/OneDrive/Desktop/GD32VW553/V1_MQTT_OK/GD32VW55X_Wifi_BLE_SDK/GD32VW55x_RELEASE_V1.0.2/MSDK/cloud/alicloud/src/infra/system\guider.c ****     case MODE_TLS_DIRECT_ID2_ENCRYPT:
  73:C:/Users/stapi/OneDrive/Desktop/GD32VW553/V1_MQTT_OK/GD32VW55X_Wifi_BLE_SDK/GD32VW55x_RELEASE_V1.0.2/MSDK/cloud/alicloud/src/infra/system\guider.c ****     {
  74:C:/Users/stapi/OneDrive/Desktop/GD32VW553/V1_MQTT_OK/GD32VW55X_Wifi_BLE_SDK/GD32VW55x_RELEASE_V1.0.2/MSDK/cloud/alicloud/src/infra/system\guider.c ****         secure_mode_str = "TLS + Guider + ID2";
  75:C:/Users/stapi/OneDrive/Desktop/GD32VW553/V1_MQTT_OK/GD32VW55X_Wifi_BLE_SDK/GD32VW55x_RELEASE_V1.0.2/MSDK/cloud/alicloud/src/infra/system\guider.c ****     }
  76:C:/Users/stapi/OneDrive/Desktop/GD32VW553/V1_MQTT_OK/GD32VW55X_Wifi_BLE_SDK/GD32VW55x_RELEASE_V1.0.2/MSDK/cloud/alicloud/src/infra/system\guider.c ****     break;
  77:C:/Users/stapi/OneDrive/Desktop/GD32VW553/V1_MQTT_OK/GD32VW55X_Wifi_BLE_SDK/GD32VW55x_RELEASE_V1.0.2/MSDK/cloud/alicloud/src/infra/system\guider.c ****     case MODE_ITLS_DNS_ID2:
  78:C:/Users/stapi/OneDrive/Desktop/GD32VW553/V1_MQTT_OK/GD32VW55X_Wifi_BLE_SDK/GD32VW55x_RELEASE_V1.0.2/MSDK/cloud/alicloud/src/infra/system\guider.c ****     {
  79:C:/Users/stapi/OneDrive/Desktop/GD32VW553/V1_MQTT_OK/GD32VW55X_Wifi_BLE_SDK/GD32VW55x_RELEASE_V1.0.2/MSDK/cloud/alicloud/src/infra/system\guider.c ****         secure_mode_str = "ITLS + DNS + ID2";
  80:C:/Users/stapi/OneDrive/Desktop/GD32VW553/V1_MQTT_OK/GD32VW55X_Wifi_BLE_SDK/GD32VW55x_RELEASE_V1.0.2/MSDK/cloud/alicloud/src/infra/system\guider.c ****     }
  81:C:/Users/stapi/OneDrive/Desktop/GD32VW553/V1_MQTT_OK/GD32VW55X_Wifi_BLE_SDK/GD32VW55x_RELEASE_V1.0.2/MSDK/cloud/alicloud/src/infra/system\guider.c ****     break;
  82:C:/Users/stapi/OneDrive/Desktop/GD32VW553/V1_MQTT_OK/GD32VW55X_Wifi_BLE_SDK/GD32VW55x_RELEASE_V1.0.2/MSDK/cloud/alicloud/src/infra/system\guider.c ****     default:
  83:C:/Users/stapi/OneDrive/Desktop/GD32VW553/V1_MQTT_OK/GD32VW55X_Wifi_BLE_SDK/GD32VW55x_RELEASE_V1.0.2/MSDK/cloud/alicloud/src/infra/system\guider.c ****         break;
  84:C:/Users/stapi/OneDrive/Desktop/GD32VW553/V1_MQTT_OK/GD32VW55X_Wifi_BLE_SDK/GD32VW55x_RELEASE_V1.0.2/MSDK/cloud/alicloud/src/infra/system\guider.c ****     }
  85:C:/Users/stapi/OneDrive/Desktop/GD32VW553/V1_MQTT_OK/GD32VW55X_Wifi_BLE_SDK/GD32VW55x_RELEASE_V1.0.2/MSDK/cloud/alicloud/src/infra/system\guider.c **** 
  86:C:/Users/stapi/OneDrive/Desktop/GD32VW553/V1_MQTT_OK/GD32VW55X_Wifi_BLE_SDK/GD32VW55x_RELEASE_V1.0.2/MSDK/cloud/alicloud/src/infra/system\guider.c ****     return secure_mode_str;
  87:C:/Users/stapi/OneDrive/Desktop/GD32VW553/V1_MQTT_OK/GD32VW55X_Wifi_BLE_SDK/GD32VW55x_RELEASE_V1.0.2/MSDK/cloud/alicloud/src/infra/system\guider.c **** }
  88:C:/Users/stapi/OneDrive/Desktop/GD32VW553/V1_MQTT_OK/GD32VW55X_Wifi_BLE_SDK/GD32VW55x_RELEASE_V1.0.2/MSDK/cloud/alicloud/src/infra/system\guider.c **** 
  89:C:/Users/stapi/OneDrive/Desktop/GD32VW553/V1_MQTT_OK/GD32VW55X_Wifi_BLE_SDK/GD32VW55x_RELEASE_V1.0.2/MSDK/cloud/alicloud/src/infra/system\guider.c **** const char *domain_mqtt_direct[] = {
  90:C:/Users/stapi/OneDrive/Desktop/GD32VW553/V1_MQTT_OK/GD32VW55X_Wifi_BLE_SDK/GD32VW55x_RELEASE_V1.0.2/MSDK/cloud/alicloud/src/infra/system\guider.c ****     "iot-as-mqtt.cn-shanghai.aliyuncs.com",    /* Shanghai */
  91:C:/Users/stapi/OneDrive/Desktop/GD32VW553/V1_MQTT_OK/GD32VW55X_Wifi_BLE_SDK/GD32VW55x_RELEASE_V1.0.2/MSDK/cloud/alicloud/src/infra/system\guider.c ****     "iot-as-mqtt.ap-southeast-1.aliyuncs.com", /* Singapore */
  92:C:/Users/stapi/OneDrive/Desktop/GD32VW553/V1_MQTT_OK/GD32VW55X_Wifi_BLE_SDK/GD32VW55x_RELEASE_V1.0.2/MSDK/cloud/alicloud/src/infra/system\guider.c ****     "iot-as-mqtt.ap-northeast-1.aliyuncs.com", /* Japan */
  93:C:/Users/stapi/OneDrive/Desktop/GD32VW553/V1_MQTT_OK/GD32VW55X_Wifi_BLE_SDK/GD32VW55x_RELEASE_V1.0.2/MSDK/cloud/alicloud/src/infra/system\guider.c ****     "iot-as-mqtt.us-east-1.aliyuncs.com",      /* America East*/
  94:C:/Users/stapi/OneDrive/Desktop/GD32VW553/V1_MQTT_OK/GD32VW55X_Wifi_BLE_SDK/GD32VW55x_RELEASE_V1.0.2/MSDK/cloud/alicloud/src/infra/system\guider.c ****     "iot-as-mqtt.eu-central-1.aliyuncs.com",   /* Germany */
  95:C:/Users/stapi/OneDrive/Desktop/GD32VW553/V1_MQTT_OK/GD32VW55X_Wifi_BLE_SDK/GD32VW55x_RELEASE_V1.0.2/MSDK/cloud/alicloud/src/infra/system\guider.c ****     "iot-as-mqtt.us-west-1.aliyuncs.com",      /* America West*/
  96:C:/Users/stapi/OneDrive/Desktop/GD32VW553/V1_MQTT_OK/GD32VW55X_Wifi_BLE_SDK/GD32VW55x_RELEASE_V1.0.2/MSDK/cloud/alicloud/src/infra/system\guider.c **** };
  97:C:/Users/stapi/OneDrive/Desktop/GD32VW553/V1_MQTT_OK/GD32VW55X_Wifi_BLE_SDK/GD32VW55x_RELEASE_V1.0.2/MSDK/cloud/alicloud/src/infra/system\guider.c **** 
  98:C:/Users/stapi/OneDrive/Desktop/GD32VW553/V1_MQTT_OK/GD32VW55X_Wifi_BLE_SDK/GD32VW55x_RELEASE_V1.0.2/MSDK/cloud/alicloud/src/infra/system\guider.c **** #define GUIDER_DIRECT_DOMAIN_DAILY "iot-test-daily.iot-as-mqtt.unify.aliyuncs.com"
  99:C:/Users/stapi/OneDrive/Desktop/GD32VW553/V1_MQTT_OK/GD32VW55X_Wifi_BLE_SDK/GD32VW55x_RELEASE_V1.0.2/MSDK/cloud/alicloud/src/infra/system\guider.c **** #define GUIDER_DIRECT_DOMAIN_ITLS_DAILY "11.158.130.135"
 100:C:/Users/stapi/OneDrive/Desktop/GD32VW553/V1_MQTT_OK/GD32VW55X_Wifi_BLE_SDK/GD32VW55x_RELEASE_V1.0.2/MSDK/cloud/alicloud/src/infra/system\guider.c **** 
 101:C:/Users/stapi/OneDrive/Desktop/GD32VW553/V1_MQTT_OK/GD32VW55X_Wifi_BLE_SDK/GD32VW55x_RELEASE_V1.0.2/MSDK/cloud/alicloud/src/infra/system\guider.c **** const char *domain_mqtt_direct_pre[] = {
 102:C:/Users/stapi/OneDrive/Desktop/GD32VW553/V1_MQTT_OK/GD32VW55X_Wifi_BLE_SDK/GD32VW55x_RELEASE_V1.0.2/MSDK/cloud/alicloud/src/infra/system\guider.c ****     "iot-test-pre.iot-as-mqtt.unify.aliyuncs.com",    /* Shanghai */
 103:C:/Users/stapi/OneDrive/Desktop/GD32VW553/V1_MQTT_OK/GD32VW55X_Wifi_BLE_SDK/GD32VW55x_RELEASE_V1.0.2/MSDK/cloud/alicloud/src/infra/system\guider.c ****     "iot-test-sg-pre.iot-as-mqtt.unify.aliyuncs.com",    /* Singapore */
 104:C:/Users/stapi/OneDrive/Desktop/GD32VW553/V1_MQTT_OK/GD32VW55X_Wifi_BLE_SDK/GD32VW55x_RELEASE_V1.0.2/MSDK/cloud/alicloud/src/infra/system\guider.c ****     "pre.Japan",        /* Japan */
 105:C:/Users/stapi/OneDrive/Desktop/GD32VW553/V1_MQTT_OK/GD32VW55X_Wifi_BLE_SDK/GD32VW55x_RELEASE_V1.0.2/MSDK/cloud/alicloud/src/infra/system\guider.c ****     "pre.America.east", /* America east*/
 106:C:/Users/stapi/OneDrive/Desktop/GD32VW553/V1_MQTT_OK/GD32VW55X_Wifi_BLE_SDK/GD32VW55x_RELEASE_V1.0.2/MSDK/cloud/alicloud/src/infra/system\guider.c ****     "iot-test-de-pre.iot-as-mqtt.unify.aliyuncs.com",   /* Germany */
 107:C:/Users/stapi/OneDrive/Desktop/GD32VW553/V1_MQTT_OK/GD32VW55X_Wifi_BLE_SDK/GD32VW55x_RELEASE_V1.0.2/MSDK/cloud/alicloud/src/infra/system\guider.c ****     "pre.America.west", /* America west*/
 108:C:/Users/stapi/OneDrive/Desktop/GD32VW553/V1_MQTT_OK/GD32VW55X_Wifi_BLE_SDK/GD32VW55x_RELEASE_V1.0.2/MSDK/cloud/alicloud/src/infra/system\guider.c **** };
 109:C:/Users/stapi/OneDrive/Desktop/GD32VW553/V1_MQTT_OK/GD32VW55X_Wifi_BLE_SDK/GD32VW55x_RELEASE_V1.0.2/MSDK/cloud/alicloud/src/infra/system\guider.c **** 
 110:C:/Users/stapi/OneDrive/Desktop/GD32VW553/V1_MQTT_OK/GD32VW55X_Wifi_BLE_SDK/GD32VW55x_RELEASE_V1.0.2/MSDK/cloud/alicloud/src/infra/system\guider.c **** #define GUIDER_HTTP_AUTH_DAILY "iot-auth.alibaba.net"
 111:C:/Users/stapi/OneDrive/Desktop/GD32VW553/V1_MQTT_OK/GD32VW55X_Wifi_BLE_SDK/GD32VW55x_RELEASE_V1.0.2/MSDK/cloud/alicloud/src/infra/system\guider.c **** #define GUIDER_HTTP_AUTH_PRERELEASE "iot-auth-pre.cn-shanghai.aliyuncs.com"
 112:C:/Users/stapi/OneDrive/Desktop/GD32VW553/V1_MQTT_OK/GD32VW55X_Wifi_BLE_SDK/GD32VW55x_RELEASE_V1.0.2/MSDK/cloud/alicloud/src/infra/system\guider.c **** #define GUIDER_HTTP_AUTH_ONLINE "iot-auth-global.aliyuncs.com"
 113:C:/Users/stapi/OneDrive/Desktop/GD32VW553/V1_MQTT_OK/GD32VW55X_Wifi_BLE_SDK/GD32VW55x_RELEASE_V1.0.2/MSDK/cloud/alicloud/src/infra/system\guider.c **** #define GUIDER_HTTP_AUTH_DYNAMIC_REGSTER_ONLINE "iot-auth.cn-shanghai.aliyuncs.com"
 114:C:/Users/stapi/OneDrive/Desktop/GD32VW553/V1_MQTT_OK/GD32VW55X_Wifi_BLE_SDK/GD32VW55x_RELEASE_V1.0.2/MSDK/cloud/alicloud/src/infra/system\guider.c **** 
 115:C:/Users/stapi/OneDrive/Desktop/GD32VW553/V1_MQTT_OK/GD32VW55X_Wifi_BLE_SDK/GD32VW55x_RELEASE_V1.0.2/MSDK/cloud/alicloud/src/infra/system\guider.c **** #define GUIDER_DIRECT_DOMAIN_ITLS_PRE "100.67.207.143"
 116:C:/Users/stapi/OneDrive/Desktop/GD32VW553/V1_MQTT_OK/GD32VW55X_Wifi_BLE_SDK/GD32VW55x_RELEASE_V1.0.2/MSDK/cloud/alicloud/src/infra/system\guider.c **** #define GUIDER_DIRECT_DOMAIN_ITLS "itls.cn-shanghai.aliyuncs.com"
 117:C:/Users/stapi/OneDrive/Desktop/GD32VW553/V1_MQTT_OK/GD32VW55X_Wifi_BLE_SDK/GD32VW55x_RELEASE_V1.0.2/MSDK/cloud/alicloud/src/infra/system\guider.c **** 
 118:C:/Users/stapi/OneDrive/Desktop/GD32VW553/V1_MQTT_OK/GD32VW55X_Wifi_BLE_SDK/GD32VW55x_RELEASE_V1.0.2/MSDK/cloud/alicloud/src/infra/system\guider.c **** static char iotx_domain_custom[GUIDER_DOMAIN_MAX][CUSTOME_DOMAIN_LEN_MAX] = {{0}};
 119:C:/Users/stapi/OneDrive/Desktop/GD32VW553/V1_MQTT_OK/GD32VW55X_Wifi_BLE_SDK/GD32VW55x_RELEASE_V1.0.2/MSDK/cloud/alicloud/src/infra/system\guider.c **** 
 120:C:/Users/stapi/OneDrive/Desktop/GD32VW553/V1_MQTT_OK/GD32VW55X_Wifi_BLE_SDK/GD32VW55x_RELEASE_V1.0.2/MSDK/cloud/alicloud/src/infra/system\guider.c **** iotx_cloud_region_types_t iotx_guider_get_region(void)
 121:C:/Users/stapi/OneDrive/Desktop/GD32VW553/V1_MQTT_OK/GD32VW55X_Wifi_BLE_SDK/GD32VW55x_RELEASE_V1.0.2/MSDK/cloud/alicloud/src/infra/system\guider.c **** {
 122:C:/Users/stapi/OneDrive/Desktop/GD32VW553/V1_MQTT_OK/GD32VW55X_Wifi_BLE_SDK/GD32VW55x_RELEASE_V1.0.2/MSDK/cloud/alicloud/src/infra/system\guider.c ****     iotx_cloud_region_types_t region_type;
 123:C:/Users/stapi/OneDrive/Desktop/GD32VW553/V1_MQTT_OK/GD32VW55X_Wifi_BLE_SDK/GD32VW55x_RELEASE_V1.0.2/MSDK/cloud/alicloud/src/infra/system\guider.c **** 
 124:C:/Users/stapi/OneDrive/Desktop/GD32VW553/V1_MQTT_OK/GD32VW55X_Wifi_BLE_SDK/GD32VW55x_RELEASE_V1.0.2/MSDK/cloud/alicloud/src/infra/system\guider.c ****     IOT_Ioctl(IOTX_IOCTL_GET_REGION, &region_type);
 125:C:/Users/stapi/OneDrive/Desktop/GD32VW553/V1_MQTT_OK/GD32VW55X_Wifi_BLE_SDK/GD32VW55x_RELEASE_V1.0.2/MSDK/cloud/alicloud/src/infra/system\guider.c **** 
 126:C:/Users/stapi/OneDrive/Desktop/GD32VW553/V1_MQTT_OK/GD32VW55X_Wifi_BLE_SDK/GD32VW55x_RELEASE_V1.0.2/MSDK/cloud/alicloud/src/infra/system\guider.c ****     return region_type;
 127:C:/Users/stapi/OneDrive/Desktop/GD32VW553/V1_MQTT_OK/GD32VW55X_Wifi_BLE_SDK/GD32VW55x_RELEASE_V1.0.2/MSDK/cloud/alicloud/src/infra/system\guider.c **** }
 128:C:/Users/stapi/OneDrive/Desktop/GD32VW553/V1_MQTT_OK/GD32VW55X_Wifi_BLE_SDK/GD32VW55x_RELEASE_V1.0.2/MSDK/cloud/alicloud/src/infra/system\guider.c **** 
 129:C:/Users/stapi/OneDrive/Desktop/GD32VW553/V1_MQTT_OK/GD32VW55X_Wifi_BLE_SDK/GD32VW55x_RELEASE_V1.0.2/MSDK/cloud/alicloud/src/infra/system\guider.c **** static int guider_get_dynamic_mqtt_url(char *p_mqtt_url, int mqtt_url_buff_len)
 130:C:/Users/stapi/OneDrive/Desktop/GD32VW553/V1_MQTT_OK/GD32VW55X_Wifi_BLE_SDK/GD32VW55x_RELEASE_V1.0.2/MSDK/cloud/alicloud/src/infra/system\guider.c **** {
 131:C:/Users/stapi/OneDrive/Desktop/GD32VW553/V1_MQTT_OK/GD32VW55X_Wifi_BLE_SDK/GD32VW55x_RELEASE_V1.0.2/MSDK/cloud/alicloud/src/infra/system\guider.c ****     int len = mqtt_url_buff_len;
 132:C:/Users/stapi/OneDrive/Desktop/GD32VW553/V1_MQTT_OK/GD32VW55X_Wifi_BLE_SDK/GD32VW55x_RELEASE_V1.0.2/MSDK/cloud/alicloud/src/infra/system\guider.c **** 
 133:C:/Users/stapi/OneDrive/Desktop/GD32VW553/V1_MQTT_OK/GD32VW55X_Wifi_BLE_SDK/GD32VW55x_RELEASE_V1.0.2/MSDK/cloud/alicloud/src/infra/system\guider.c ****     return HAL_Kv_Get(KV_MQTT_URL_KEY, p_mqtt_url, &len);
 134:C:/Users/stapi/OneDrive/Desktop/GD32VW553/V1_MQTT_OK/GD32VW55X_Wifi_BLE_SDK/GD32VW55x_RELEASE_V1.0.2/MSDK/cloud/alicloud/src/infra/system\guider.c **** }
 135:C:/Users/stapi/OneDrive/Desktop/GD32VW553/V1_MQTT_OK/GD32VW55X_Wifi_BLE_SDK/GD32VW55x_RELEASE_V1.0.2/MSDK/cloud/alicloud/src/infra/system\guider.c **** 
 136:C:/Users/stapi/OneDrive/Desktop/GD32VW553/V1_MQTT_OK/GD32VW55X_Wifi_BLE_SDK/GD32VW55x_RELEASE_V1.0.2/MSDK/cloud/alicloud/src/infra/system\guider.c **** int guider_set_direct_connect_count(unsigned char count)
 137:C:/Users/stapi/OneDrive/Desktop/GD32VW553/V1_MQTT_OK/GD32VW55X_Wifi_BLE_SDK/GD32VW55x_RELEASE_V1.0.2/MSDK/cloud/alicloud/src/infra/system\guider.c **** {
 138:C:/Users/stapi/OneDrive/Desktop/GD32VW553/V1_MQTT_OK/GD32VW55X_Wifi_BLE_SDK/GD32VW55x_RELEASE_V1.0.2/MSDK/cloud/alicloud/src/infra/system\guider.c ****     direct_connect_count = count;
 139:C:/Users/stapi/OneDrive/Desktop/GD32VW553/V1_MQTT_OK/GD32VW55X_Wifi_BLE_SDK/GD32VW55x_RELEASE_V1.0.2/MSDK/cloud/alicloud/src/infra/system\guider.c **** 
 140:C:/Users/stapi/OneDrive/Desktop/GD32VW553/V1_MQTT_OK/GD32VW55X_Wifi_BLE_SDK/GD32VW55x_RELEASE_V1.0.2/MSDK/cloud/alicloud/src/infra/system\guider.c ****     return 0;
 141:C:/Users/stapi/OneDrive/Desktop/GD32VW553/V1_MQTT_OK/GD32VW55X_Wifi_BLE_SDK/GD32VW55x_RELEASE_V1.0.2/MSDK/cloud/alicloud/src/infra/system\guider.c **** }
 142:C:/Users/stapi/OneDrive/Desktop/GD32VW553/V1_MQTT_OK/GD32VW55X_Wifi_BLE_SDK/GD32VW55x_RELEASE_V1.0.2/MSDK/cloud/alicloud/src/infra/system\guider.c **** 
 143:C:/Users/stapi/OneDrive/Desktop/GD32VW553/V1_MQTT_OK/GD32VW55X_Wifi_BLE_SDK/GD32VW55x_RELEASE_V1.0.2/MSDK/cloud/alicloud/src/infra/system\guider.c **** int iotx_guider_get_kv_env(void)
 144:C:/Users/stapi/OneDrive/Desktop/GD32VW553/V1_MQTT_OK/GD32VW55X_Wifi_BLE_SDK/GD32VW55x_RELEASE_V1.0.2/MSDK/cloud/alicloud/src/infra/system\guider.c **** {
 145:C:/Users/stapi/OneDrive/Desktop/GD32VW553/V1_MQTT_OK/GD32VW55X_Wifi_BLE_SDK/GD32VW55x_RELEASE_V1.0.2/MSDK/cloud/alicloud/src/infra/system\guider.c ****     int ret = 0;
 146:C:/Users/stapi/OneDrive/Desktop/GD32VW553/V1_MQTT_OK/GD32VW55X_Wifi_BLE_SDK/GD32VW55x_RELEASE_V1.0.2/MSDK/cloud/alicloud/src/infra/system\guider.c ****     int len = GUIDER_ENV_LEN;
 147:C:/Users/stapi/OneDrive/Desktop/GD32VW553/V1_MQTT_OK/GD32VW55X_Wifi_BLE_SDK/GD32VW55x_RELEASE_V1.0.2/MSDK/cloud/alicloud/src/infra/system\guider.c ****     char guider_env_buff[GUIDER_ENV_LEN] = {0};
 148:C:/Users/stapi/OneDrive/Desktop/GD32VW553/V1_MQTT_OK/GD32VW55X_Wifi_BLE_SDK/GD32VW55x_RELEASE_V1.0.2/MSDK/cloud/alicloud/src/infra/system\guider.c **** 
 149:C:/Users/stapi/OneDrive/Desktop/GD32VW553/V1_MQTT_OK/GD32VW55X_Wifi_BLE_SDK/GD32VW55x_RELEASE_V1.0.2/MSDK/cloud/alicloud/src/infra/system\guider.c **** #if defined(ON_DAILY)
 150:C:/Users/stapi/OneDrive/Desktop/GD32VW553/V1_MQTT_OK/GD32VW55X_Wifi_BLE_SDK/GD32VW55x_RELEASE_V1.0.2/MSDK/cloud/alicloud/src/infra/system\guider.c ****     guider_env = GUIDER_ENV_DAILY;
 151:C:/Users/stapi/OneDrive/Desktop/GD32VW553/V1_MQTT_OK/GD32VW55X_Wifi_BLE_SDK/GD32VW55x_RELEASE_V1.0.2/MSDK/cloud/alicloud/src/infra/system\guider.c **** #elif defined(ON_PRE)
 152:C:/Users/stapi/OneDrive/Desktop/GD32VW553/V1_MQTT_OK/GD32VW55X_Wifi_BLE_SDK/GD32VW55x_RELEASE_V1.0.2/MSDK/cloud/alicloud/src/infra/system\guider.c ****     guider_env = GUIDER_ENV_PRERELEASE;
 153:C:/Users/stapi/OneDrive/Desktop/GD32VW553/V1_MQTT_OK/GD32VW55X_Wifi_BLE_SDK/GD32VW55x_RELEASE_V1.0.2/MSDK/cloud/alicloud/src/infra/system\guider.c **** #else
 154:C:/Users/stapi/OneDrive/Desktop/GD32VW553/V1_MQTT_OK/GD32VW55X_Wifi_BLE_SDK/GD32VW55x_RELEASE_V1.0.2/MSDK/cloud/alicloud/src/infra/system\guider.c **** #ifdef GUIDER_SUPPORT_KV_SET_ENV
 155:C:/Users/stapi/OneDrive/Desktop/GD32VW553/V1_MQTT_OK/GD32VW55X_Wifi_BLE_SDK/GD32VW55x_RELEASE_V1.0.2/MSDK/cloud/alicloud/src/infra/system\guider.c ****     ret = HAL_Kv_Get(GUIDER_ENV_KEY, guider_env_buff, &len);
 156:C:/Users/stapi/OneDrive/Desktop/GD32VW553/V1_MQTT_OK/GD32VW55X_Wifi_BLE_SDK/GD32VW55x_RELEASE_V1.0.2/MSDK/cloud/alicloud/src/infra/system\guider.c ****     if (0 == ret)
 157:C:/Users/stapi/OneDrive/Desktop/GD32VW553/V1_MQTT_OK/GD32VW55X_Wifi_BLE_SDK/GD32VW55x_RELEASE_V1.0.2/MSDK/cloud/alicloud/src/infra/system\guider.c ****     {
 158:C:/Users/stapi/OneDrive/Desktop/GD32VW553/V1_MQTT_OK/GD32VW55X_Wifi_BLE_SDK/GD32VW55x_RELEASE_V1.0.2/MSDK/cloud/alicloud/src/infra/system\guider.c ****         if (!strncmp(guider_env_buff, "daily", 5))
 159:C:/Users/stapi/OneDrive/Desktop/GD32VW553/V1_MQTT_OK/GD32VW55X_Wifi_BLE_SDK/GD32VW55x_RELEASE_V1.0.2/MSDK/cloud/alicloud/src/infra/system\guider.c ****         {
 160:C:/Users/stapi/OneDrive/Desktop/GD32VW553/V1_MQTT_OK/GD32VW55X_Wifi_BLE_SDK/GD32VW55x_RELEASE_V1.0.2/MSDK/cloud/alicloud/src/infra/system\guider.c ****             guider_env = GUIDER_ENV_DAILY;
 161:C:/Users/stapi/OneDrive/Desktop/GD32VW553/V1_MQTT_OK/GD32VW55X_Wifi_BLE_SDK/GD32VW55x_RELEASE_V1.0.2/MSDK/cloud/alicloud/src/infra/system\guider.c ****         }
 162:C:/Users/stapi/OneDrive/Desktop/GD32VW553/V1_MQTT_OK/GD32VW55X_Wifi_BLE_SDK/GD32VW55x_RELEASE_V1.0.2/MSDK/cloud/alicloud/src/infra/system\guider.c ****         else if (!strncmp(guider_env_buff, "pre", 3))
 163:C:/Users/stapi/OneDrive/Desktop/GD32VW553/V1_MQTT_OK/GD32VW55X_Wifi_BLE_SDK/GD32VW55x_RELEASE_V1.0.2/MSDK/cloud/alicloud/src/infra/system\guider.c ****         {
 164:C:/Users/stapi/OneDrive/Desktop/GD32VW553/V1_MQTT_OK/GD32VW55X_Wifi_BLE_SDK/GD32VW55x_RELEASE_V1.0.2/MSDK/cloud/alicloud/src/infra/system\guider.c ****             guider_env = GUIDER_ENV_PRERELEASE;
 165:C:/Users/stapi/OneDrive/Desktop/GD32VW553/V1_MQTT_OK/GD32VW55X_Wifi_BLE_SDK/GD32VW55x_RELEASE_V1.0.2/MSDK/cloud/alicloud/src/infra/system\guider.c ****         }
 166:C:/Users/stapi/OneDrive/Desktop/GD32VW553/V1_MQTT_OK/GD32VW55X_Wifi_BLE_SDK/GD32VW55x_RELEASE_V1.0.2/MSDK/cloud/alicloud/src/infra/system\guider.c ****         else
 167:C:/Users/stapi/OneDrive/Desktop/GD32VW553/V1_MQTT_OK/GD32VW55X_Wifi_BLE_SDK/GD32VW55x_RELEASE_V1.0.2/MSDK/cloud/alicloud/src/infra/system\guider.c ****         {
 168:C:/Users/stapi/OneDrive/Desktop/GD32VW553/V1_MQTT_OK/GD32VW55X_Wifi_BLE_SDK/GD32VW55x_RELEASE_V1.0.2/MSDK/cloud/alicloud/src/infra/system\guider.c ****             guider_env = GUIDER_ENV_ONLINE;
 169:C:/Users/stapi/OneDrive/Desktop/GD32VW553/V1_MQTT_OK/GD32VW55X_Wifi_BLE_SDK/GD32VW55x_RELEASE_V1.0.2/MSDK/cloud/alicloud/src/infra/system\guider.c ****         }
 170:C:/Users/stapi/OneDrive/Desktop/GD32VW553/V1_MQTT_OK/GD32VW55X_Wifi_BLE_SDK/GD32VW55x_RELEASE_V1.0.2/MSDK/cloud/alicloud/src/infra/system\guider.c ****     }
 171:C:/Users/stapi/OneDrive/Desktop/GD32VW553/V1_MQTT_OK/GD32VW55X_Wifi_BLE_SDK/GD32VW55x_RELEASE_V1.0.2/MSDK/cloud/alicloud/src/infra/system\guider.c **** #else
 172:C:/Users/stapi/OneDrive/Desktop/GD32VW553/V1_MQTT_OK/GD32VW55X_Wifi_BLE_SDK/GD32VW55x_RELEASE_V1.0.2/MSDK/cloud/alicloud/src/infra/system\guider.c ****     guider_env = GUIDER_ENV_ONLINE;
 173:C:/Users/stapi/OneDrive/Desktop/GD32VW553/V1_MQTT_OK/GD32VW55X_Wifi_BLE_SDK/GD32VW55x_RELEASE_V1.0.2/MSDK/cloud/alicloud/src/infra/system\guider.c **** #endif
 174:C:/Users/stapi/OneDrive/Desktop/GD32VW553/V1_MQTT_OK/GD32VW55X_Wifi_BLE_SDK/GD32VW55x_RELEASE_V1.0.2/MSDK/cloud/alicloud/src/infra/system\guider.c **** #endif
 175:C:/Users/stapi/OneDrive/Desktop/GD32VW553/V1_MQTT_OK/GD32VW55X_Wifi_BLE_SDK/GD32VW55x_RELEASE_V1.0.2/MSDK/cloud/alicloud/src/infra/system\guider.c **** 
 176:C:/Users/stapi/OneDrive/Desktop/GD32VW553/V1_MQTT_OK/GD32VW55X_Wifi_BLE_SDK/GD32VW55x_RELEASE_V1.0.2/MSDK/cloud/alicloud/src/infra/system\guider.c ****     sdk_info("guider set env:%d", guider_env);
 177:C:/Users/stapi/OneDrive/Desktop/GD32VW553/V1_MQTT_OK/GD32VW55X_Wifi_BLE_SDK/GD32VW55x_RELEASE_V1.0.2/MSDK/cloud/alicloud/src/infra/system\guider.c **** 
 178:C:/Users/stapi/OneDrive/Desktop/GD32VW553/V1_MQTT_OK/GD32VW55X_Wifi_BLE_SDK/GD32VW55x_RELEASE_V1.0.2/MSDK/cloud/alicloud/src/infra/system\guider.c ****     return ret;
 179:C:/Users/stapi/OneDrive/Desktop/GD32VW553/V1_MQTT_OK/GD32VW55X_Wifi_BLE_SDK/GD32VW55x_RELEASE_V1.0.2/MSDK/cloud/alicloud/src/infra/system\guider.c **** }
 180:C:/Users/stapi/OneDrive/Desktop/GD32VW553/V1_MQTT_OK/GD32VW55X_Wifi_BLE_SDK/GD32VW55x_RELEASE_V1.0.2/MSDK/cloud/alicloud/src/infra/system\guider.c **** 
 181:C:/Users/stapi/OneDrive/Desktop/GD32VW553/V1_MQTT_OK/GD32VW55X_Wifi_BLE_SDK/GD32VW55x_RELEASE_V1.0.2/MSDK/cloud/alicloud/src/infra/system\guider.c **** guider_env_e iotx_guider_get_env(void)
 182:C:/Users/stapi/OneDrive/Desktop/GD32VW553/V1_MQTT_OK/GD32VW55X_Wifi_BLE_SDK/GD32VW55x_RELEASE_V1.0.2/MSDK/cloud/alicloud/src/infra/system\guider.c **** {
 183:C:/Users/stapi/OneDrive/Desktop/GD32VW553/V1_MQTT_OK/GD32VW55X_Wifi_BLE_SDK/GD32VW55x_RELEASE_V1.0.2/MSDK/cloud/alicloud/src/infra/system\guider.c ****     return guider_env;
 184:C:/Users/stapi/OneDrive/Desktop/GD32VW553/V1_MQTT_OK/GD32VW55X_Wifi_BLE_SDK/GD32VW55x_RELEASE_V1.0.2/MSDK/cloud/alicloud/src/infra/system\guider.c **** }
 185:C:/Users/stapi/OneDrive/Desktop/GD32VW553/V1_MQTT_OK/GD32VW55X_Wifi_BLE_SDK/GD32VW55x_RELEASE_V1.0.2/MSDK/cloud/alicloud/src/infra/system\guider.c **** 
 186:C:/Users/stapi/OneDrive/Desktop/GD32VW553/V1_MQTT_OK/GD32VW55X_Wifi_BLE_SDK/GD32VW55x_RELEASE_V1.0.2/MSDK/cloud/alicloud/src/infra/system\guider.c **** int iotx_guider_set_dynamic_mqtt_url(char *p_mqtt_url)
 187:C:/Users/stapi/OneDrive/Desktop/GD32VW553/V1_MQTT_OK/GD32VW55X_Wifi_BLE_SDK/GD32VW55x_RELEASE_V1.0.2/MSDK/cloud/alicloud/src/infra/system\guider.c **** {
 188:C:/Users/stapi/OneDrive/Desktop/GD32VW553/V1_MQTT_OK/GD32VW55X_Wifi_BLE_SDK/GD32VW55x_RELEASE_V1.0.2/MSDK/cloud/alicloud/src/infra/system\guider.c ****     int len = 0;
 189:C:/Users/stapi/OneDrive/Desktop/GD32VW553/V1_MQTT_OK/GD32VW55X_Wifi_BLE_SDK/GD32VW55x_RELEASE_V1.0.2/MSDK/cloud/alicloud/src/infra/system\guider.c ****     int ret = 0;
 190:C:/Users/stapi/OneDrive/Desktop/GD32VW553/V1_MQTT_OK/GD32VW55X_Wifi_BLE_SDK/GD32VW55x_RELEASE_V1.0.2/MSDK/cloud/alicloud/src/infra/system\guider.c **** 
 191:C:/Users/stapi/OneDrive/Desktop/GD32VW553/V1_MQTT_OK/GD32VW55X_Wifi_BLE_SDK/GD32VW55x_RELEASE_V1.0.2/MSDK/cloud/alicloud/src/infra/system\guider.c ****     if (!p_mqtt_url)
 192:C:/Users/stapi/OneDrive/Desktop/GD32VW553/V1_MQTT_OK/GD32VW55X_Wifi_BLE_SDK/GD32VW55x_RELEASE_V1.0.2/MSDK/cloud/alicloud/src/infra/system\guider.c ****         return -1;
 193:C:/Users/stapi/OneDrive/Desktop/GD32VW553/V1_MQTT_OK/GD32VW55X_Wifi_BLE_SDK/GD32VW55x_RELEASE_V1.0.2/MSDK/cloud/alicloud/src/infra/system\guider.c **** 
 194:C:/Users/stapi/OneDrive/Desktop/GD32VW553/V1_MQTT_OK/GD32VW55X_Wifi_BLE_SDK/GD32VW55x_RELEASE_V1.0.2/MSDK/cloud/alicloud/src/infra/system\guider.c ****     len = strlen(p_mqtt_url) + 1;
 195:C:/Users/stapi/OneDrive/Desktop/GD32VW553/V1_MQTT_OK/GD32VW55X_Wifi_BLE_SDK/GD32VW55x_RELEASE_V1.0.2/MSDK/cloud/alicloud/src/infra/system\guider.c ****     if (len > GUIDER_DYNAMIC_URL_LEN - 2)
 196:C:/Users/stapi/OneDrive/Desktop/GD32VW553/V1_MQTT_OK/GD32VW55X_Wifi_BLE_SDK/GD32VW55x_RELEASE_V1.0.2/MSDK/cloud/alicloud/src/infra/system\guider.c ****     {
 197:C:/Users/stapi/OneDrive/Desktop/GD32VW553/V1_MQTT_OK/GD32VW55X_Wifi_BLE_SDK/GD32VW55x_RELEASE_V1.0.2/MSDK/cloud/alicloud/src/infra/system\guider.c ****         sys_err("len is err");
 198:C:/Users/stapi/OneDrive/Desktop/GD32VW553/V1_MQTT_OK/GD32VW55X_Wifi_BLE_SDK/GD32VW55x_RELEASE_V1.0.2/MSDK/cloud/alicloud/src/infra/system\guider.c ****         return -1;
 199:C:/Users/stapi/OneDrive/Desktop/GD32VW553/V1_MQTT_OK/GD32VW55X_Wifi_BLE_SDK/GD32VW55x_RELEASE_V1.0.2/MSDK/cloud/alicloud/src/infra/system\guider.c ****     }
 200:C:/Users/stapi/OneDrive/Desktop/GD32VW553/V1_MQTT_OK/GD32VW55X_Wifi_BLE_SDK/GD32VW55x_RELEASE_V1.0.2/MSDK/cloud/alicloud/src/infra/system\guider.c **** 
 201:C:/Users/stapi/OneDrive/Desktop/GD32VW553/V1_MQTT_OK/GD32VW55X_Wifi_BLE_SDK/GD32VW55x_RELEASE_V1.0.2/MSDK/cloud/alicloud/src/infra/system\guider.c ****     ret = HAL_Kv_Set(KV_MQTT_URL_KEY, p_mqtt_url, len, 1);
 202:C:/Users/stapi/OneDrive/Desktop/GD32VW553/V1_MQTT_OK/GD32VW55X_Wifi_BLE_SDK/GD32VW55x_RELEASE_V1.0.2/MSDK/cloud/alicloud/src/infra/system\guider.c ****     sys_debug("set dyna mqtt:%s,ret=%d, len=%d\r\n", p_mqtt_url, ret, len);
 203:C:/Users/stapi/OneDrive/Desktop/GD32VW553/V1_MQTT_OK/GD32VW55X_Wifi_BLE_SDK/GD32VW55x_RELEASE_V1.0.2/MSDK/cloud/alicloud/src/infra/system\guider.c **** 
 204:C:/Users/stapi/OneDrive/Desktop/GD32VW553/V1_MQTT_OK/GD32VW55X_Wifi_BLE_SDK/GD32VW55x_RELEASE_V1.0.2/MSDK/cloud/alicloud/src/infra/system\guider.c ****     if (0 == ret)
 205:C:/Users/stapi/OneDrive/Desktop/GD32VW553/V1_MQTT_OK/GD32VW55X_Wifi_BLE_SDK/GD32VW55x_RELEASE_V1.0.2/MSDK/cloud/alicloud/src/infra/system\guider.c ****     {
 206:C:/Users/stapi/OneDrive/Desktop/GD32VW553/V1_MQTT_OK/GD32VW55X_Wifi_BLE_SDK/GD32VW55x_RELEASE_V1.0.2/MSDK/cloud/alicloud/src/infra/system\guider.c ****         bootup_connect_method = CONNECT_DIRECT;
 207:C:/Users/stapi/OneDrive/Desktop/GD32VW553/V1_MQTT_OK/GD32VW55X_Wifi_BLE_SDK/GD32VW55x_RELEASE_V1.0.2/MSDK/cloud/alicloud/src/infra/system\guider.c ****     }
 208:C:/Users/stapi/OneDrive/Desktop/GD32VW553/V1_MQTT_OK/GD32VW55X_Wifi_BLE_SDK/GD32VW55x_RELEASE_V1.0.2/MSDK/cloud/alicloud/src/infra/system\guider.c **** 
 209:C:/Users/stapi/OneDrive/Desktop/GD32VW553/V1_MQTT_OK/GD32VW55X_Wifi_BLE_SDK/GD32VW55x_RELEASE_V1.0.2/MSDK/cloud/alicloud/src/infra/system\guider.c ****     return ret;
 210:C:/Users/stapi/OneDrive/Desktop/GD32VW553/V1_MQTT_OK/GD32VW55X_Wifi_BLE_SDK/GD32VW55x_RELEASE_V1.0.2/MSDK/cloud/alicloud/src/infra/system\guider.c **** }
 211:C:/Users/stapi/OneDrive/Desktop/GD32VW553/V1_MQTT_OK/GD32VW55X_Wifi_BLE_SDK/GD32VW55x_RELEASE_V1.0.2/MSDK/cloud/alicloud/src/infra/system\guider.c **** 
 212:C:/Users/stapi/OneDrive/Desktop/GD32VW553/V1_MQTT_OK/GD32VW55X_Wifi_BLE_SDK/GD32VW55x_RELEASE_V1.0.2/MSDK/cloud/alicloud/src/infra/system\guider.c **** static char *guider_itoa_decimal(int value, char *string)
 213:C:/Users/stapi/OneDrive/Desktop/GD32VW553/V1_MQTT_OK/GD32VW55X_Wifi_BLE_SDK/GD32VW55x_RELEASE_V1.0.2/MSDK/cloud/alicloud/src/infra/system\guider.c **** {
 214:C:/Users/stapi/OneDrive/Desktop/GD32VW553/V1_MQTT_OK/GD32VW55X_Wifi_BLE_SDK/GD32VW55x_RELEASE_V1.0.2/MSDK/cloud/alicloud/src/infra/system\guider.c ****     int i, d;
 215:C:/Users/stapi/OneDrive/Desktop/GD32VW553/V1_MQTT_OK/GD32VW55X_Wifi_BLE_SDK/GD32VW55x_RELEASE_V1.0.2/MSDK/cloud/alicloud/src/infra/system\guider.c ****     int flag = 0;
 216:C:/Users/stapi/OneDrive/Desktop/GD32VW553/V1_MQTT_OK/GD32VW55X_Wifi_BLE_SDK/GD32VW55x_RELEASE_V1.0.2/MSDK/cloud/alicloud/src/infra/system\guider.c ****     char *ptr = string;
 217:C:/Users/stapi/OneDrive/Desktop/GD32VW553/V1_MQTT_OK/GD32VW55X_Wifi_BLE_SDK/GD32VW55x_RELEASE_V1.0.2/MSDK/cloud/alicloud/src/infra/system\guider.c **** 
 218:C:/Users/stapi/OneDrive/Desktop/GD32VW553/V1_MQTT_OK/GD32VW55X_Wifi_BLE_SDK/GD32VW55x_RELEASE_V1.0.2/MSDK/cloud/alicloud/src/infra/system\guider.c ****     if (!value)
 219:C:/Users/stapi/OneDrive/Desktop/GD32VW553/V1_MQTT_OK/GD32VW55X_Wifi_BLE_SDK/GD32VW55x_RELEASE_V1.0.2/MSDK/cloud/alicloud/src/infra/system\guider.c ****     {
 220:C:/Users/stapi/OneDrive/Desktop/GD32VW553/V1_MQTT_OK/GD32VW55X_Wifi_BLE_SDK/GD32VW55x_RELEASE_V1.0.2/MSDK/cloud/alicloud/src/infra/system\guider.c ****         *ptr++ = 0x30;
 221:C:/Users/stapi/OneDrive/Desktop/GD32VW553/V1_MQTT_OK/GD32VW55X_Wifi_BLE_SDK/GD32VW55x_RELEASE_V1.0.2/MSDK/cloud/alicloud/src/infra/system\guider.c ****         *ptr = 0;
 222:C:/Users/stapi/OneDrive/Desktop/GD32VW553/V1_MQTT_OK/GD32VW55X_Wifi_BLE_SDK/GD32VW55x_RELEASE_V1.0.2/MSDK/cloud/alicloud/src/infra/system\guider.c ****         return string;
 223:C:/Users/stapi/OneDrive/Desktop/GD32VW553/V1_MQTT_OK/GD32VW55X_Wifi_BLE_SDK/GD32VW55x_RELEASE_V1.0.2/MSDK/cloud/alicloud/src/infra/system\guider.c ****     }
 224:C:/Users/stapi/OneDrive/Desktop/GD32VW553/V1_MQTT_OK/GD32VW55X_Wifi_BLE_SDK/GD32VW55x_RELEASE_V1.0.2/MSDK/cloud/alicloud/src/infra/system\guider.c **** 
 225:C:/Users/stapi/OneDrive/Desktop/GD32VW553/V1_MQTT_OK/GD32VW55X_Wifi_BLE_SDK/GD32VW55x_RELEASE_V1.0.2/MSDK/cloud/alicloud/src/infra/system\guider.c ****     /* if this is a negative value insert the minus sign. */
 226:C:/Users/stapi/OneDrive/Desktop/GD32VW553/V1_MQTT_OK/GD32VW55X_Wifi_BLE_SDK/GD32VW55x_RELEASE_V1.0.2/MSDK/cloud/alicloud/src/infra/system\guider.c ****     if (value < 0)
 227:C:/Users/stapi/OneDrive/Desktop/GD32VW553/V1_MQTT_OK/GD32VW55X_Wifi_BLE_SDK/GD32VW55x_RELEASE_V1.0.2/MSDK/cloud/alicloud/src/infra/system\guider.c ****     {
 228:C:/Users/stapi/OneDrive/Desktop/GD32VW553/V1_MQTT_OK/GD32VW55X_Wifi_BLE_SDK/GD32VW55x_RELEASE_V1.0.2/MSDK/cloud/alicloud/src/infra/system\guider.c ****         *ptr++ = '-';
 229:C:/Users/stapi/OneDrive/Desktop/GD32VW553/V1_MQTT_OK/GD32VW55X_Wifi_BLE_SDK/GD32VW55x_RELEASE_V1.0.2/MSDK/cloud/alicloud/src/infra/system\guider.c **** 
 230:C:/Users/stapi/OneDrive/Desktop/GD32VW553/V1_MQTT_OK/GD32VW55X_Wifi_BLE_SDK/GD32VW55x_RELEASE_V1.0.2/MSDK/cloud/alicloud/src/infra/system\guider.c ****         /* Make the value positive. */
 231:C:/Users/stapi/OneDrive/Desktop/GD32VW553/V1_MQTT_OK/GD32VW55X_Wifi_BLE_SDK/GD32VW55x_RELEASE_V1.0.2/MSDK/cloud/alicloud/src/infra/system\guider.c ****         value *= -1;
 232:C:/Users/stapi/OneDrive/Desktop/GD32VW553/V1_MQTT_OK/GD32VW55X_Wifi_BLE_SDK/GD32VW55x_RELEASE_V1.0.2/MSDK/cloud/alicloud/src/infra/system\guider.c ****     }
 233:C:/Users/stapi/OneDrive/Desktop/GD32VW553/V1_MQTT_OK/GD32VW55X_Wifi_BLE_SDK/GD32VW55x_RELEASE_V1.0.2/MSDK/cloud/alicloud/src/infra/system\guider.c **** 
 234:C:/Users/stapi/OneDrive/Desktop/GD32VW553/V1_MQTT_OK/GD32VW55X_Wifi_BLE_SDK/GD32VW55x_RELEASE_V1.0.2/MSDK/cloud/alicloud/src/infra/system\guider.c ****     for (i = 10000; i > 0; i /= 10)
 235:C:/Users/stapi/OneDrive/Desktop/GD32VW553/V1_MQTT_OK/GD32VW55X_Wifi_BLE_SDK/GD32VW55x_RELEASE_V1.0.2/MSDK/cloud/alicloud/src/infra/system\guider.c ****     {
 236:C:/Users/stapi/OneDrive/Desktop/GD32VW553/V1_MQTT_OK/GD32VW55X_Wifi_BLE_SDK/GD32VW55x_RELEASE_V1.0.2/MSDK/cloud/alicloud/src/infra/system\guider.c ****         d = value / i;
 237:C:/Users/stapi/OneDrive/Desktop/GD32VW553/V1_MQTT_OK/GD32VW55X_Wifi_BLE_SDK/GD32VW55x_RELEASE_V1.0.2/MSDK/cloud/alicloud/src/infra/system\guider.c **** 
 238:C:/Users/stapi/OneDrive/Desktop/GD32VW553/V1_MQTT_OK/GD32VW55X_Wifi_BLE_SDK/GD32VW55x_RELEASE_V1.0.2/MSDK/cloud/alicloud/src/infra/system\guider.c ****         if (d || flag)
 239:C:/Users/stapi/OneDrive/Desktop/GD32VW553/V1_MQTT_OK/GD32VW55X_Wifi_BLE_SDK/GD32VW55x_RELEASE_V1.0.2/MSDK/cloud/alicloud/src/infra/system\guider.c ****         {
 240:C:/Users/stapi/OneDrive/Desktop/GD32VW553/V1_MQTT_OK/GD32VW55X_Wifi_BLE_SDK/GD32VW55x_RELEASE_V1.0.2/MSDK/cloud/alicloud/src/infra/system\guider.c ****             *ptr++ = (char)(d + 0x30);
 241:C:/Users/stapi/OneDrive/Desktop/GD32VW553/V1_MQTT_OK/GD32VW55X_Wifi_BLE_SDK/GD32VW55x_RELEASE_V1.0.2/MSDK/cloud/alicloud/src/infra/system\guider.c ****             value -= (d * i);
 242:C:/Users/stapi/OneDrive/Desktop/GD32VW553/V1_MQTT_OK/GD32VW55X_Wifi_BLE_SDK/GD32VW55x_RELEASE_V1.0.2/MSDK/cloud/alicloud/src/infra/system\guider.c ****             flag = 1;
 243:C:/Users/stapi/OneDrive/Desktop/GD32VW553/V1_MQTT_OK/GD32VW55X_Wifi_BLE_SDK/GD32VW55x_RELEASE_V1.0.2/MSDK/cloud/alicloud/src/infra/system\guider.c ****             printf("ptr:%s\r\n", ptr);
 244:C:/Users/stapi/OneDrive/Desktop/GD32VW553/V1_MQTT_OK/GD32VW55X_Wifi_BLE_SDK/GD32VW55x_RELEASE_V1.0.2/MSDK/cloud/alicloud/src/infra/system\guider.c ****         }
 245:C:/Users/stapi/OneDrive/Desktop/GD32VW553/V1_MQTT_OK/GD32VW55X_Wifi_BLE_SDK/GD32VW55x_RELEASE_V1.0.2/MSDK/cloud/alicloud/src/infra/system\guider.c ****     }
 246:C:/Users/stapi/OneDrive/Desktop/GD32VW553/V1_MQTT_OK/GD32VW55X_Wifi_BLE_SDK/GD32VW55x_RELEASE_V1.0.2/MSDK/cloud/alicloud/src/infra/system\guider.c **** 
 247:C:/Users/stapi/OneDrive/Desktop/GD32VW553/V1_MQTT_OK/GD32VW55X_Wifi_BLE_SDK/GD32VW55x_RELEASE_V1.0.2/MSDK/cloud/alicloud/src/infra/system\guider.c ****     /* Null terminate the string. */
 248:C:/Users/stapi/OneDrive/Desktop/GD32VW553/V1_MQTT_OK/GD32VW55X_Wifi_BLE_SDK/GD32VW55x_RELEASE_V1.0.2/MSDK/cloud/alicloud/src/infra/system\guider.c ****     *ptr = 0;
 249:C:/Users/stapi/OneDrive/Desktop/GD32VW553/V1_MQTT_OK/GD32VW55X_Wifi_BLE_SDK/GD32VW55x_RELEASE_V1.0.2/MSDK/cloud/alicloud/src/infra/system\guider.c **** 
 250:C:/Users/stapi/OneDrive/Desktop/GD32VW553/V1_MQTT_OK/GD32VW55X_Wifi_BLE_SDK/GD32VW55x_RELEASE_V1.0.2/MSDK/cloud/alicloud/src/infra/system\guider.c ****     return string;
 251:C:/Users/stapi/OneDrive/Desktop/GD32VW553/V1_MQTT_OK/GD32VW55X_Wifi_BLE_SDK/GD32VW55x_RELEASE_V1.0.2/MSDK/cloud/alicloud/src/infra/system\guider.c **** }
 252:C:/Users/stapi/OneDrive/Desktop/GD32VW553/V1_MQTT_OK/GD32VW55X_Wifi_BLE_SDK/GD32VW55x_RELEASE_V1.0.2/MSDK/cloud/alicloud/src/infra/system\guider.c **** 
 253:C:/Users/stapi/OneDrive/Desktop/GD32VW553/V1_MQTT_OK/GD32VW55X_Wifi_BLE_SDK/GD32VW55x_RELEASE_V1.0.2/MSDK/cloud/alicloud/src/infra/system\guider.c **** static int guider_set_region_id(int regionid)
 254:C:/Users/stapi/OneDrive/Desktop/GD32VW553/V1_MQTT_OK/GD32VW55X_Wifi_BLE_SDK/GD32VW55x_RELEASE_V1.0.2/MSDK/cloud/alicloud/src/infra/system\guider.c **** {
 255:C:/Users/stapi/OneDrive/Desktop/GD32VW553/V1_MQTT_OK/GD32VW55X_Wifi_BLE_SDK/GD32VW55x_RELEASE_V1.0.2/MSDK/cloud/alicloud/src/infra/system\guider.c ****     int ret = 0;
 256:C:/Users/stapi/OneDrive/Desktop/GD32VW553/V1_MQTT_OK/GD32VW55X_Wifi_BLE_SDK/GD32VW55x_RELEASE_V1.0.2/MSDK/cloud/alicloud/src/infra/system\guider.c ****     char region_id_str[KV_REGION_ID_VALUE_LEN] = {0};
 257:C:/Users/stapi/OneDrive/Desktop/GD32VW553/V1_MQTT_OK/GD32VW55X_Wifi_BLE_SDK/GD32VW55x_RELEASE_V1.0.2/MSDK/cloud/alicloud/src/infra/system\guider.c **** 
 258:C:/Users/stapi/OneDrive/Desktop/GD32VW553/V1_MQTT_OK/GD32VW55X_Wifi_BLE_SDK/GD32VW55x_RELEASE_V1.0.2/MSDK/cloud/alicloud/src/infra/system\guider.c ****     guider_itoa_decimal(regionid, region_id_str);
 259:C:/Users/stapi/OneDrive/Desktop/GD32VW553/V1_MQTT_OK/GD32VW55X_Wifi_BLE_SDK/GD32VW55x_RELEASE_V1.0.2/MSDK/cloud/alicloud/src/infra/system\guider.c **** 
 260:C:/Users/stapi/OneDrive/Desktop/GD32VW553/V1_MQTT_OK/GD32VW55X_Wifi_BLE_SDK/GD32VW55x_RELEASE_V1.0.2/MSDK/cloud/alicloud/src/infra/system\guider.c ****     ret = HAL_Kv_Set(KV_REGION_ID_KEY, region_id_str, KV_REGION_ID_VALUE_LEN, 1);
 261:C:/Users/stapi/OneDrive/Desktop/GD32VW553/V1_MQTT_OK/GD32VW55X_Wifi_BLE_SDK/GD32VW55x_RELEASE_V1.0.2/MSDK/cloud/alicloud/src/infra/system\guider.c ****     sys_info("set regionid:%d,ret=%d", regionid, ret);
 262:C:/Users/stapi/OneDrive/Desktop/GD32VW553/V1_MQTT_OK/GD32VW55X_Wifi_BLE_SDK/GD32VW55x_RELEASE_V1.0.2/MSDK/cloud/alicloud/src/infra/system\guider.c **** 
 263:C:/Users/stapi/OneDrive/Desktop/GD32VW553/V1_MQTT_OK/GD32VW55X_Wifi_BLE_SDK/GD32VW55x_RELEASE_V1.0.2/MSDK/cloud/alicloud/src/infra/system\guider.c ****     return ret;
 264:C:/Users/stapi/OneDrive/Desktop/GD32VW553/V1_MQTT_OK/GD32VW55X_Wifi_BLE_SDK/GD32VW55x_RELEASE_V1.0.2/MSDK/cloud/alicloud/src/infra/system\guider.c **** }
 265:C:/Users/stapi/OneDrive/Desktop/GD32VW553/V1_MQTT_OK/GD32VW55X_Wifi_BLE_SDK/GD32VW55x_RELEASE_V1.0.2/MSDK/cloud/alicloud/src/infra/system\guider.c **** 
 266:C:/Users/stapi/OneDrive/Desktop/GD32VW553/V1_MQTT_OK/GD32VW55X_Wifi_BLE_SDK/GD32VW55x_RELEASE_V1.0.2/MSDK/cloud/alicloud/src/infra/system\guider.c **** int iotx_guider_get_region_id(void)
 267:C:/Users/stapi/OneDrive/Desktop/GD32VW553/V1_MQTT_OK/GD32VW55X_Wifi_BLE_SDK/GD32VW55x_RELEASE_V1.0.2/MSDK/cloud/alicloud/src/infra/system\guider.c **** {
 268:C:/Users/stapi/OneDrive/Desktop/GD32VW553/V1_MQTT_OK/GD32VW55X_Wifi_BLE_SDK/GD32VW55x_RELEASE_V1.0.2/MSDK/cloud/alicloud/src/infra/system\guider.c ****     int region_id = -1;
 269:C:/Users/stapi/OneDrive/Desktop/GD32VW553/V1_MQTT_OK/GD32VW55X_Wifi_BLE_SDK/GD32VW55x_RELEASE_V1.0.2/MSDK/cloud/alicloud/src/infra/system\guider.c ****     int len = KV_REGION_ID_VALUE_LEN;
 270:C:/Users/stapi/OneDrive/Desktop/GD32VW553/V1_MQTT_OK/GD32VW55X_Wifi_BLE_SDK/GD32VW55x_RELEASE_V1.0.2/MSDK/cloud/alicloud/src/infra/system\guider.c ****     char region_id_str[KV_REGION_ID_VALUE_LEN] = {0};
 271:C:/Users/stapi/OneDrive/Desktop/GD32VW553/V1_MQTT_OK/GD32VW55X_Wifi_BLE_SDK/GD32VW55x_RELEASE_V1.0.2/MSDK/cloud/alicloud/src/infra/system\guider.c **** 
 272:C:/Users/stapi/OneDrive/Desktop/GD32VW553/V1_MQTT_OK/GD32VW55X_Wifi_BLE_SDK/GD32VW55x_RELEASE_V1.0.2/MSDK/cloud/alicloud/src/infra/system\guider.c ****     if (0 != HAL_Kv_Get(KV_REGION_ID_KEY, region_id_str, &len))
 273:C:/Users/stapi/OneDrive/Desktop/GD32VW553/V1_MQTT_OK/GD32VW55X_Wifi_BLE_SDK/GD32VW55x_RELEASE_V1.0.2/MSDK/cloud/alicloud/src/infra/system\guider.c ****     {
 274:C:/Users/stapi/OneDrive/Desktop/GD32VW553/V1_MQTT_OK/GD32VW55X_Wifi_BLE_SDK/GD32VW55x_RELEASE_V1.0.2/MSDK/cloud/alicloud/src/infra/system\guider.c ****         sdk_warning("kv get region id fail");
 275:C:/Users/stapi/OneDrive/Desktop/GD32VW553/V1_MQTT_OK/GD32VW55X_Wifi_BLE_SDK/GD32VW55x_RELEASE_V1.0.2/MSDK/cloud/alicloud/src/infra/system\guider.c ****         return -1;
 276:C:/Users/stapi/OneDrive/Desktop/GD32VW553/V1_MQTT_OK/GD32VW55X_Wifi_BLE_SDK/GD32VW55x_RELEASE_V1.0.2/MSDK/cloud/alicloud/src/infra/system\guider.c ****     }
 277:C:/Users/stapi/OneDrive/Desktop/GD32VW553/V1_MQTT_OK/GD32VW55X_Wifi_BLE_SDK/GD32VW55x_RELEASE_V1.0.2/MSDK/cloud/alicloud/src/infra/system\guider.c **** 
 278:C:/Users/stapi/OneDrive/Desktop/GD32VW553/V1_MQTT_OK/GD32VW55X_Wifi_BLE_SDK/GD32VW55x_RELEASE_V1.0.2/MSDK/cloud/alicloud/src/infra/system\guider.c ****     region_id = atoi(region_id_str);
 279:C:/Users/stapi/OneDrive/Desktop/GD32VW553/V1_MQTT_OK/GD32VW55X_Wifi_BLE_SDK/GD32VW55x_RELEASE_V1.0.2/MSDK/cloud/alicloud/src/infra/system\guider.c ****     if (region_id < 0 || region_id > IOTX_CLOUD_REGION_MAX)
 280:C:/Users/stapi/OneDrive/Desktop/GD32VW553/V1_MQTT_OK/GD32VW55X_Wifi_BLE_SDK/GD32VW55x_RELEASE_V1.0.2/MSDK/cloud/alicloud/src/infra/system\guider.c ****     {
 281:C:/Users/stapi/OneDrive/Desktop/GD32VW553/V1_MQTT_OK/GD32VW55X_Wifi_BLE_SDK/GD32VW55x_RELEASE_V1.0.2/MSDK/cloud/alicloud/src/infra/system\guider.c ****         sdk_warning("invalid regionid:%d", region_id);
 282:C:/Users/stapi/OneDrive/Desktop/GD32VW553/V1_MQTT_OK/GD32VW55X_Wifi_BLE_SDK/GD32VW55x_RELEASE_V1.0.2/MSDK/cloud/alicloud/src/infra/system\guider.c ****         return -1;
 283:C:/Users/stapi/OneDrive/Desktop/GD32VW553/V1_MQTT_OK/GD32VW55X_Wifi_BLE_SDK/GD32VW55x_RELEASE_V1.0.2/MSDK/cloud/alicloud/src/infra/system\guider.c ****     }
 284:C:/Users/stapi/OneDrive/Desktop/GD32VW553/V1_MQTT_OK/GD32VW55X_Wifi_BLE_SDK/GD32VW55x_RELEASE_V1.0.2/MSDK/cloud/alicloud/src/infra/system\guider.c **** 
 285:C:/Users/stapi/OneDrive/Desktop/GD32VW553/V1_MQTT_OK/GD32VW55X_Wifi_BLE_SDK/GD32VW55x_RELEASE_V1.0.2/MSDK/cloud/alicloud/src/infra/system\guider.c ****     sdk_info("region id(%d)", region_id);
 286:C:/Users/stapi/OneDrive/Desktop/GD32VW553/V1_MQTT_OK/GD32VW55X_Wifi_BLE_SDK/GD32VW55x_RELEASE_V1.0.2/MSDK/cloud/alicloud/src/infra/system\guider.c **** 
 287:C:/Users/stapi/OneDrive/Desktop/GD32VW553/V1_MQTT_OK/GD32VW55X_Wifi_BLE_SDK/GD32VW55x_RELEASE_V1.0.2/MSDK/cloud/alicloud/src/infra/system\guider.c ****     return region_id;
 288:C:/Users/stapi/OneDrive/Desktop/GD32VW553/V1_MQTT_OK/GD32VW55X_Wifi_BLE_SDK/GD32VW55x_RELEASE_V1.0.2/MSDK/cloud/alicloud/src/infra/system\guider.c **** }
 289:C:/Users/stapi/OneDrive/Desktop/GD32VW553/V1_MQTT_OK/GD32VW55X_Wifi_BLE_SDK/GD32VW55x_RELEASE_V1.0.2/MSDK/cloud/alicloud/src/infra/system\guider.c **** 
 290:C:/Users/stapi/OneDrive/Desktop/GD32VW553/V1_MQTT_OK/GD32VW55X_Wifi_BLE_SDK/GD32VW55x_RELEASE_V1.0.2/MSDK/cloud/alicloud/src/infra/system\guider.c **** int iotx_guider_set_dynamic_region(int region)
 291:C:/Users/stapi/OneDrive/Desktop/GD32VW553/V1_MQTT_OK/GD32VW55X_Wifi_BLE_SDK/GD32VW55x_RELEASE_V1.0.2/MSDK/cloud/alicloud/src/infra/system\guider.c **** {
 292:C:/Users/stapi/OneDrive/Desktop/GD32VW553/V1_MQTT_OK/GD32VW55X_Wifi_BLE_SDK/GD32VW55x_RELEASE_V1.0.2/MSDK/cloud/alicloud/src/infra/system\guider.c ****     int ret = 0;
 293:C:/Users/stapi/OneDrive/Desktop/GD32VW553/V1_MQTT_OK/GD32VW55X_Wifi_BLE_SDK/GD32VW55x_RELEASE_V1.0.2/MSDK/cloud/alicloud/src/infra/system\guider.c ****     char *p_dynamic_mqtt_url = NULL;
 294:C:/Users/stapi/OneDrive/Desktop/GD32VW553/V1_MQTT_OK/GD32VW55X_Wifi_BLE_SDK/GD32VW55x_RELEASE_V1.0.2/MSDK/cloud/alicloud/src/infra/system\guider.c ****     char product_key[PRODUCT_KEY_LEN];
 295:C:/Users/stapi/OneDrive/Desktop/GD32VW553/V1_MQTT_OK/GD32VW55X_Wifi_BLE_SDK/GD32VW55x_RELEASE_V1.0.2/MSDK/cloud/alicloud/src/infra/system\guider.c **** 
 296:C:/Users/stapi/OneDrive/Desktop/GD32VW553/V1_MQTT_OK/GD32VW55X_Wifi_BLE_SDK/GD32VW55x_RELEASE_V1.0.2/MSDK/cloud/alicloud/src/infra/system\guider.c ****     if (region == IOTX_CLOUD_REGION_INVALID)
 297:C:/Users/stapi/OneDrive/Desktop/GD32VW553/V1_MQTT_OK/GD32VW55X_Wifi_BLE_SDK/GD32VW55x_RELEASE_V1.0.2/MSDK/cloud/alicloud/src/infra/system\guider.c ****     {
 298:C:/Users/stapi/OneDrive/Desktop/GD32VW553/V1_MQTT_OK/GD32VW55X_Wifi_BLE_SDK/GD32VW55x_RELEASE_V1.0.2/MSDK/cloud/alicloud/src/infra/system\guider.c ****         sys_info("no region from app so clear region in kv");
 299:C:/Users/stapi/OneDrive/Desktop/GD32VW553/V1_MQTT_OK/GD32VW55X_Wifi_BLE_SDK/GD32VW55x_RELEASE_V1.0.2/MSDK/cloud/alicloud/src/infra/system\guider.c ****         iotx_guider_clear_dynamic_url();
 300:C:/Users/stapi/OneDrive/Desktop/GD32VW553/V1_MQTT_OK/GD32VW55X_Wifi_BLE_SDK/GD32VW55x_RELEASE_V1.0.2/MSDK/cloud/alicloud/src/infra/system\guider.c ****         return 0;
 301:C:/Users/stapi/OneDrive/Desktop/GD32VW553/V1_MQTT_OK/GD32VW55X_Wifi_BLE_SDK/GD32VW55x_RELEASE_V1.0.2/MSDK/cloud/alicloud/src/infra/system\guider.c ****     }
 302:C:/Users/stapi/OneDrive/Desktop/GD32VW553/V1_MQTT_OK/GD32VW55X_Wifi_BLE_SDK/GD32VW55x_RELEASE_V1.0.2/MSDK/cloud/alicloud/src/infra/system\guider.c **** 
 303:C:/Users/stapi/OneDrive/Desktop/GD32VW553/V1_MQTT_OK/GD32VW55X_Wifi_BLE_SDK/GD32VW55x_RELEASE_V1.0.2/MSDK/cloud/alicloud/src/infra/system\guider.c ****     if (region < 0 || region > IOTX_CLOUD_REGION_MAX)
 304:C:/Users/stapi/OneDrive/Desktop/GD32VW553/V1_MQTT_OK/GD32VW55X_Wifi_BLE_SDK/GD32VW55x_RELEASE_V1.0.2/MSDK/cloud/alicloud/src/infra/system\guider.c ****     {
 305:C:/Users/stapi/OneDrive/Desktop/GD32VW553/V1_MQTT_OK/GD32VW55X_Wifi_BLE_SDK/GD32VW55x_RELEASE_V1.0.2/MSDK/cloud/alicloud/src/infra/system\guider.c ****         sys_err("region:%d err", region);
 306:C:/Users/stapi/OneDrive/Desktop/GD32VW553/V1_MQTT_OK/GD32VW55X_Wifi_BLE_SDK/GD32VW55x_RELEASE_V1.0.2/MSDK/cloud/alicloud/src/infra/system\guider.c ****         return -1;
 307:C:/Users/stapi/OneDrive/Desktop/GD32VW553/V1_MQTT_OK/GD32VW55X_Wifi_BLE_SDK/GD32VW55x_RELEASE_V1.0.2/MSDK/cloud/alicloud/src/infra/system\guider.c ****     }
 308:C:/Users/stapi/OneDrive/Desktop/GD32VW553/V1_MQTT_OK/GD32VW55X_Wifi_BLE_SDK/GD32VW55x_RELEASE_V1.0.2/MSDK/cloud/alicloud/src/infra/system\guider.c **** 
 309:C:/Users/stapi/OneDrive/Desktop/GD32VW553/V1_MQTT_OK/GD32VW55X_Wifi_BLE_SDK/GD32VW55x_RELEASE_V1.0.2/MSDK/cloud/alicloud/src/infra/system\guider.c ****     sys_info("APP region id:%d", region);
 310:C:/Users/stapi/OneDrive/Desktop/GD32VW553/V1_MQTT_OK/GD32VW55X_Wifi_BLE_SDK/GD32VW55x_RELEASE_V1.0.2/MSDK/cloud/alicloud/src/infra/system\guider.c **** 
 311:C:/Users/stapi/OneDrive/Desktop/GD32VW553/V1_MQTT_OK/GD32VW55X_Wifi_BLE_SDK/GD32VW55x_RELEASE_V1.0.2/MSDK/cloud/alicloud/src/infra/system\guider.c ****     ret = guider_set_region_id(region);
 312:C:/Users/stapi/OneDrive/Desktop/GD32VW553/V1_MQTT_OK/GD32VW55X_Wifi_BLE_SDK/GD32VW55x_RELEASE_V1.0.2/MSDK/cloud/alicloud/src/infra/system\guider.c **** 
 313:C:/Users/stapi/OneDrive/Desktop/GD32VW553/V1_MQTT_OK/GD32VW55X_Wifi_BLE_SDK/GD32VW55x_RELEASE_V1.0.2/MSDK/cloud/alicloud/src/infra/system\guider.c ****     if (region > IOTX_CLOUD_REGION_USA_WEST)
 314:C:/Users/stapi/OneDrive/Desktop/GD32VW553/V1_MQTT_OK/GD32VW55X_Wifi_BLE_SDK/GD32VW55x_RELEASE_V1.0.2/MSDK/cloud/alicloud/src/infra/system\guider.c ****     {
 315:C:/Users/stapi/OneDrive/Desktop/GD32VW553/V1_MQTT_OK/GD32VW55X_Wifi_BLE_SDK/GD32VW55x_RELEASE_V1.0.2/MSDK/cloud/alicloud/src/infra/system\guider.c ****         ret = HAL_Kv_Del(KV_MQTT_URL_KEY);
 316:C:/Users/stapi/OneDrive/Desktop/GD32VW553/V1_MQTT_OK/GD32VW55X_Wifi_BLE_SDK/GD32VW55x_RELEASE_V1.0.2/MSDK/cloud/alicloud/src/infra/system\guider.c ****         sys_warning("del mqtt_url:%d", ret);
 317:C:/Users/stapi/OneDrive/Desktop/GD32VW553/V1_MQTT_OK/GD32VW55X_Wifi_BLE_SDK/GD32VW55x_RELEASE_V1.0.2/MSDK/cloud/alicloud/src/infra/system\guider.c ****         return 0;
 318:C:/Users/stapi/OneDrive/Desktop/GD32VW553/V1_MQTT_OK/GD32VW55X_Wifi_BLE_SDK/GD32VW55x_RELEASE_V1.0.2/MSDK/cloud/alicloud/src/infra/system\guider.c ****     }
 319:C:/Users/stapi/OneDrive/Desktop/GD32VW553/V1_MQTT_OK/GD32VW55X_Wifi_BLE_SDK/GD32VW55x_RELEASE_V1.0.2/MSDK/cloud/alicloud/src/infra/system\guider.c **** 
 320:C:/Users/stapi/OneDrive/Desktop/GD32VW553/V1_MQTT_OK/GD32VW55X_Wifi_BLE_SDK/GD32VW55x_RELEASE_V1.0.2/MSDK/cloud/alicloud/src/infra/system\guider.c ****     p_dynamic_mqtt_url = SYS_GUIDER_MALLOC(GUIDER_URL_LEN);
 321:C:/Users/stapi/OneDrive/Desktop/GD32VW553/V1_MQTT_OK/GD32VW55X_Wifi_BLE_SDK/GD32VW55x_RELEASE_V1.0.2/MSDK/cloud/alicloud/src/infra/system\guider.c ****     if (!p_dynamic_mqtt_url)
 322:C:/Users/stapi/OneDrive/Desktop/GD32VW553/V1_MQTT_OK/GD32VW55X_Wifi_BLE_SDK/GD32VW55x_RELEASE_V1.0.2/MSDK/cloud/alicloud/src/infra/system\guider.c ****     {
 323:C:/Users/stapi/OneDrive/Desktop/GD32VW553/V1_MQTT_OK/GD32VW55X_Wifi_BLE_SDK/GD32VW55x_RELEASE_V1.0.2/MSDK/cloud/alicloud/src/infra/system\guider.c ****         sdk_err("no mem");
 324:C:/Users/stapi/OneDrive/Desktop/GD32VW553/V1_MQTT_OK/GD32VW55X_Wifi_BLE_SDK/GD32VW55x_RELEASE_V1.0.2/MSDK/cloud/alicloud/src/infra/system\guider.c ****         return -1;
 325:C:/Users/stapi/OneDrive/Desktop/GD32VW553/V1_MQTT_OK/GD32VW55X_Wifi_BLE_SDK/GD32VW55x_RELEASE_V1.0.2/MSDK/cloud/alicloud/src/infra/system\guider.c ****     }
 326:C:/Users/stapi/OneDrive/Desktop/GD32VW553/V1_MQTT_OK/GD32VW55X_Wifi_BLE_SDK/GD32VW55x_RELEASE_V1.0.2/MSDK/cloud/alicloud/src/infra/system\guider.c **** 
 327:C:/Users/stapi/OneDrive/Desktop/GD32VW553/V1_MQTT_OK/GD32VW55X_Wifi_BLE_SDK/GD32VW55x_RELEASE_V1.0.2/MSDK/cloud/alicloud/src/infra/system\guider.c ****     iotx_guider_get_kv_env(); //update guider_env
 328:C:/Users/stapi/OneDrive/Desktop/GD32VW553/V1_MQTT_OK/GD32VW55X_Wifi_BLE_SDK/GD32VW55x_RELEASE_V1.0.2/MSDK/cloud/alicloud/src/infra/system\guider.c ****     HAL_GetProductKey(product_key);
 329:C:/Users/stapi/OneDrive/Desktop/GD32VW553/V1_MQTT_OK/GD32VW55X_Wifi_BLE_SDK/GD32VW55x_RELEASE_V1.0.2/MSDK/cloud/alicloud/src/infra/system\guider.c ****     memset(p_dynamic_mqtt_url, '\0', GUIDER_URL_LEN);
 330:C:/Users/stapi/OneDrive/Desktop/GD32VW553/V1_MQTT_OK/GD32VW55X_Wifi_BLE_SDK/GD32VW55x_RELEASE_V1.0.2/MSDK/cloud/alicloud/src/infra/system\guider.c **** 
 331:C:/Users/stapi/OneDrive/Desktop/GD32VW553/V1_MQTT_OK/GD32VW55X_Wifi_BLE_SDK/GD32VW55x_RELEASE_V1.0.2/MSDK/cloud/alicloud/src/infra/system\guider.c ****     if (GUIDER_ENV_PRERELEASE == iotx_guider_get_env())
 332:C:/Users/stapi/OneDrive/Desktop/GD32VW553/V1_MQTT_OK/GD32VW55X_Wifi_BLE_SDK/GD32VW55x_RELEASE_V1.0.2/MSDK/cloud/alicloud/src/infra/system\guider.c ****     {
 333:C:/Users/stapi/OneDrive/Desktop/GD32VW553/V1_MQTT_OK/GD32VW55X_Wifi_BLE_SDK/GD32VW55x_RELEASE_V1.0.2/MSDK/cloud/alicloud/src/infra/system\guider.c ****         int port = 80;
 334:C:/Users/stapi/OneDrive/Desktop/GD32VW553/V1_MQTT_OK/GD32VW55X_Wifi_BLE_SDK/GD32VW55x_RELEASE_V1.0.2/MSDK/cloud/alicloud/src/infra/system\guider.c **** 
 335:C:/Users/stapi/OneDrive/Desktop/GD32VW553/V1_MQTT_OK/GD32VW55X_Wifi_BLE_SDK/GD32VW55x_RELEASE_V1.0.2/MSDK/cloud/alicloud/src/infra/system\guider.c ****         if (!strcmp("iot-test-pre.iot-as-mqtt.unify.aliyuncs.com", domain_mqtt_direct_pre[region]))
 336:C:/Users/stapi/OneDrive/Desktop/GD32VW553/V1_MQTT_OK/GD32VW55X_Wifi_BLE_SDK/GD32VW55x_RELEASE_V1.0.2/MSDK/cloud/alicloud/src/infra/system\guider.c ****         {
 337:C:/Users/stapi/OneDrive/Desktop/GD32VW553/V1_MQTT_OK/GD32VW55X_Wifi_BLE_SDK/GD32VW55x_RELEASE_V1.0.2/MSDK/cloud/alicloud/src/infra/system\guider.c ****             port = 1883;
 338:C:/Users/stapi/OneDrive/Desktop/GD32VW553/V1_MQTT_OK/GD32VW55X_Wifi_BLE_SDK/GD32VW55x_RELEASE_V1.0.2/MSDK/cloud/alicloud/src/infra/system\guider.c ****         }
 339:C:/Users/stapi/OneDrive/Desktop/GD32VW553/V1_MQTT_OK/GD32VW55X_Wifi_BLE_SDK/GD32VW55x_RELEASE_V1.0.2/MSDK/cloud/alicloud/src/infra/system\guider.c **** 
 340:C:/Users/stapi/OneDrive/Desktop/GD32VW553/V1_MQTT_OK/GD32VW55X_Wifi_BLE_SDK/GD32VW55x_RELEASE_V1.0.2/MSDK/cloud/alicloud/src/infra/system\guider.c ****         HAL_Snprintf(p_dynamic_mqtt_url, GUIDER_URL_LEN, "%s:%d", domain_mqtt_direct_pre[region], p
 341:C:/Users/stapi/OneDrive/Desktop/GD32VW553/V1_MQTT_OK/GD32VW55X_Wifi_BLE_SDK/GD32VW55x_RELEASE_V1.0.2/MSDK/cloud/alicloud/src/infra/system\guider.c ****     }
 342:C:/Users/stapi/OneDrive/Desktop/GD32VW553/V1_MQTT_OK/GD32VW55X_Wifi_BLE_SDK/GD32VW55x_RELEASE_V1.0.2/MSDK/cloud/alicloud/src/infra/system\guider.c ****     else
 343:C:/Users/stapi/OneDrive/Desktop/GD32VW553/V1_MQTT_OK/GD32VW55X_Wifi_BLE_SDK/GD32VW55x_RELEASE_V1.0.2/MSDK/cloud/alicloud/src/infra/system\guider.c ****     {
 344:C:/Users/stapi/OneDrive/Desktop/GD32VW553/V1_MQTT_OK/GD32VW55X_Wifi_BLE_SDK/GD32VW55x_RELEASE_V1.0.2/MSDK/cloud/alicloud/src/infra/system\guider.c ****         HAL_Snprintf(p_dynamic_mqtt_url, GUIDER_URL_LEN, "%s.%s", product_key, domain_mqtt_direct[r
 345:C:/Users/stapi/OneDrive/Desktop/GD32VW553/V1_MQTT_OK/GD32VW55X_Wifi_BLE_SDK/GD32VW55x_RELEASE_V1.0.2/MSDK/cloud/alicloud/src/infra/system\guider.c ****     }
 346:C:/Users/stapi/OneDrive/Desktop/GD32VW553/V1_MQTT_OK/GD32VW55X_Wifi_BLE_SDK/GD32VW55x_RELEASE_V1.0.2/MSDK/cloud/alicloud/src/infra/system\guider.c **** 
 347:C:/Users/stapi/OneDrive/Desktop/GD32VW553/V1_MQTT_OK/GD32VW55X_Wifi_BLE_SDK/GD32VW55x_RELEASE_V1.0.2/MSDK/cloud/alicloud/src/infra/system\guider.c ****     ret |= iotx_guider_set_dynamic_mqtt_url(p_dynamic_mqtt_url);
 348:C:/Users/stapi/OneDrive/Desktop/GD32VW553/V1_MQTT_OK/GD32VW55X_Wifi_BLE_SDK/GD32VW55x_RELEASE_V1.0.2/MSDK/cloud/alicloud/src/infra/system\guider.c ****     if (p_dynamic_mqtt_url)
 349:C:/Users/stapi/OneDrive/Desktop/GD32VW553/V1_MQTT_OK/GD32VW55X_Wifi_BLE_SDK/GD32VW55x_RELEASE_V1.0.2/MSDK/cloud/alicloud/src/infra/system\guider.c ****         SYS_GUIDER_FREE(p_dynamic_mqtt_url);
 350:C:/Users/stapi/OneDrive/Desktop/GD32VW553/V1_MQTT_OK/GD32VW55X_Wifi_BLE_SDK/GD32VW55x_RELEASE_V1.0.2/MSDK/cloud/alicloud/src/infra/system\guider.c **** 
 351:C:/Users/stapi/OneDrive/Desktop/GD32VW553/V1_MQTT_OK/GD32VW55X_Wifi_BLE_SDK/GD32VW55x_RELEASE_V1.0.2/MSDK/cloud/alicloud/src/infra/system\guider.c ****     return ret;
 352:C:/Users/stapi/OneDrive/Desktop/GD32VW553/V1_MQTT_OK/GD32VW55X_Wifi_BLE_SDK/GD32VW55x_RELEASE_V1.0.2/MSDK/cloud/alicloud/src/infra/system\guider.c **** }
 353:C:/Users/stapi/OneDrive/Desktop/GD32VW553/V1_MQTT_OK/GD32VW55X_Wifi_BLE_SDK/GD32VW55x_RELEASE_V1.0.2/MSDK/cloud/alicloud/src/infra/system\guider.c **** 
 354:C:/Users/stapi/OneDrive/Desktop/GD32VW553/V1_MQTT_OK/GD32VW55X_Wifi_BLE_SDK/GD32VW55x_RELEASE_V1.0.2/MSDK/cloud/alicloud/src/infra/system\guider.c **** int iotx_guider_clear_dynamic_url(void)
 355:C:/Users/stapi/OneDrive/Desktop/GD32VW553/V1_MQTT_OK/GD32VW55X_Wifi_BLE_SDK/GD32VW55x_RELEASE_V1.0.2/MSDK/cloud/alicloud/src/infra/system\guider.c **** {
 356:C:/Users/stapi/OneDrive/Desktop/GD32VW553/V1_MQTT_OK/GD32VW55X_Wifi_BLE_SDK/GD32VW55x_RELEASE_V1.0.2/MSDK/cloud/alicloud/src/infra/system\guider.c ****     int ret = 0;
 357:C:/Users/stapi/OneDrive/Desktop/GD32VW553/V1_MQTT_OK/GD32VW55X_Wifi_BLE_SDK/GD32VW55x_RELEASE_V1.0.2/MSDK/cloud/alicloud/src/infra/system\guider.c **** 
 358:C:/Users/stapi/OneDrive/Desktop/GD32VW553/V1_MQTT_OK/GD32VW55X_Wifi_BLE_SDK/GD32VW55x_RELEASE_V1.0.2/MSDK/cloud/alicloud/src/infra/system\guider.c ****     ret = HAL_Kv_Del(KV_MQTT_URL_KEY);
 359:C:/Users/stapi/OneDrive/Desktop/GD32VW553/V1_MQTT_OK/GD32VW55X_Wifi_BLE_SDK/GD32VW55x_RELEASE_V1.0.2/MSDK/cloud/alicloud/src/infra/system\guider.c ****     ret |= HAL_Kv_Del(KV_REGION_ID_KEY);
 360:C:/Users/stapi/OneDrive/Desktop/GD32VW553/V1_MQTT_OK/GD32VW55X_Wifi_BLE_SDK/GD32VW55x_RELEASE_V1.0.2/MSDK/cloud/alicloud/src/infra/system\guider.c **** 
 361:C:/Users/stapi/OneDrive/Desktop/GD32VW553/V1_MQTT_OK/GD32VW55X_Wifi_BLE_SDK/GD32VW55x_RELEASE_V1.0.2/MSDK/cloud/alicloud/src/infra/system\guider.c ****     sys_debug("reset dyna url and regionid:%d", ret);
 362:C:/Users/stapi/OneDrive/Desktop/GD32VW553/V1_MQTT_OK/GD32VW55X_Wifi_BLE_SDK/GD32VW55x_RELEASE_V1.0.2/MSDK/cloud/alicloud/src/infra/system\guider.c **** 
 363:C:/Users/stapi/OneDrive/Desktop/GD32VW553/V1_MQTT_OK/GD32VW55X_Wifi_BLE_SDK/GD32VW55x_RELEASE_V1.0.2/MSDK/cloud/alicloud/src/infra/system\guider.c ****     return ret;
 364:C:/Users/stapi/OneDrive/Desktop/GD32VW553/V1_MQTT_OK/GD32VW55X_Wifi_BLE_SDK/GD32VW55x_RELEASE_V1.0.2/MSDK/cloud/alicloud/src/infra/system\guider.c **** }
 365:C:/Users/stapi/OneDrive/Desktop/GD32VW553/V1_MQTT_OK/GD32VW55X_Wifi_BLE_SDK/GD32VW55x_RELEASE_V1.0.2/MSDK/cloud/alicloud/src/infra/system\guider.c **** 
 366:C:/Users/stapi/OneDrive/Desktop/GD32VW553/V1_MQTT_OK/GD32VW55X_Wifi_BLE_SDK/GD32VW55x_RELEASE_V1.0.2/MSDK/cloud/alicloud/src/infra/system\guider.c **** /* return domain of mqtt direct or http auth */
 367:C:/Users/stapi/OneDrive/Desktop/GD32VW553/V1_MQTT_OK/GD32VW55X_Wifi_BLE_SDK/GD32VW55x_RELEASE_V1.0.2/MSDK/cloud/alicloud/src/infra/system\guider.c **** const char *iotx_guider_get_domain(domain_type_t domain_type)
 368:C:/Users/stapi/OneDrive/Desktop/GD32VW553/V1_MQTT_OK/GD32VW55X_Wifi_BLE_SDK/GD32VW55x_RELEASE_V1.0.2/MSDK/cloud/alicloud/src/infra/system\guider.c **** {
 369:C:/Users/stapi/OneDrive/Desktop/GD32VW553/V1_MQTT_OK/GD32VW55X_Wifi_BLE_SDK/GD32VW55x_RELEASE_V1.0.2/MSDK/cloud/alicloud/src/infra/system\guider.c ****     iotx_cloud_region_types_t region_type;
 370:C:/Users/stapi/OneDrive/Desktop/GD32VW553/V1_MQTT_OK/GD32VW55X_Wifi_BLE_SDK/GD32VW55x_RELEASE_V1.0.2/MSDK/cloud/alicloud/src/infra/system\guider.c **** 
 371:C:/Users/stapi/OneDrive/Desktop/GD32VW553/V1_MQTT_OK/GD32VW55X_Wifi_BLE_SDK/GD32VW55x_RELEASE_V1.0.2/MSDK/cloud/alicloud/src/infra/system\guider.c ****     region_type = iotx_guider_get_region();
 372:C:/Users/stapi/OneDrive/Desktop/GD32VW553/V1_MQTT_OK/GD32VW55X_Wifi_BLE_SDK/GD32VW55x_RELEASE_V1.0.2/MSDK/cloud/alicloud/src/infra/system\guider.c **** 
 373:C:/Users/stapi/OneDrive/Desktop/GD32VW553/V1_MQTT_OK/GD32VW55X_Wifi_BLE_SDK/GD32VW55x_RELEASE_V1.0.2/MSDK/cloud/alicloud/src/infra/system\guider.c ****     if (IOTX_CLOUD_REGION_CUSTOM == region_type)
 374:C:/Users/stapi/OneDrive/Desktop/GD32VW553/V1_MQTT_OK/GD32VW55X_Wifi_BLE_SDK/GD32VW55x_RELEASE_V1.0.2/MSDK/cloud/alicloud/src/infra/system\guider.c ****     {
 375:C:/Users/stapi/OneDrive/Desktop/GD32VW553/V1_MQTT_OK/GD32VW55X_Wifi_BLE_SDK/GD32VW55x_RELEASE_V1.0.2/MSDK/cloud/alicloud/src/infra/system\guider.c ****         return iotx_domain_custom[domain_type];
 376:C:/Users/stapi/OneDrive/Desktop/GD32VW553/V1_MQTT_OK/GD32VW55X_Wifi_BLE_SDK/GD32VW55x_RELEASE_V1.0.2/MSDK/cloud/alicloud/src/infra/system\guider.c ****     }
 377:C:/Users/stapi/OneDrive/Desktop/GD32VW553/V1_MQTT_OK/GD32VW55X_Wifi_BLE_SDK/GD32VW55x_RELEASE_V1.0.2/MSDK/cloud/alicloud/src/infra/system\guider.c **** 
 378:C:/Users/stapi/OneDrive/Desktop/GD32VW553/V1_MQTT_OK/GD32VW55X_Wifi_BLE_SDK/GD32VW55x_RELEASE_V1.0.2/MSDK/cloud/alicloud/src/infra/system\guider.c ****     if (GUIDER_DOMAIN_MQTT == domain_type)
 379:C:/Users/stapi/OneDrive/Desktop/GD32VW553/V1_MQTT_OK/GD32VW55X_Wifi_BLE_SDK/GD32VW55x_RELEASE_V1.0.2/MSDK/cloud/alicloud/src/infra/system\guider.c ****     {
 380:C:/Users/stapi/OneDrive/Desktop/GD32VW553/V1_MQTT_OK/GD32VW55X_Wifi_BLE_SDK/GD32VW55x_RELEASE_V1.0.2/MSDK/cloud/alicloud/src/infra/system\guider.c ****         if (GUIDER_ENV_PRERELEASE == iotx_guider_get_env())
 381:C:/Users/stapi/OneDrive/Desktop/GD32VW553/V1_MQTT_OK/GD32VW55X_Wifi_BLE_SDK/GD32VW55x_RELEASE_V1.0.2/MSDK/cloud/alicloud/src/infra/system\guider.c ****         {
 382:C:/Users/stapi/OneDrive/Desktop/GD32VW553/V1_MQTT_OK/GD32VW55X_Wifi_BLE_SDK/GD32VW55x_RELEASE_V1.0.2/MSDK/cloud/alicloud/src/infra/system\guider.c ****             return (char *)domain_mqtt_direct_pre[region_type];
 383:C:/Users/stapi/OneDrive/Desktop/GD32VW553/V1_MQTT_OK/GD32VW55X_Wifi_BLE_SDK/GD32VW55x_RELEASE_V1.0.2/MSDK/cloud/alicloud/src/infra/system\guider.c ****         }
 384:C:/Users/stapi/OneDrive/Desktop/GD32VW553/V1_MQTT_OK/GD32VW55X_Wifi_BLE_SDK/GD32VW55x_RELEASE_V1.0.2/MSDK/cloud/alicloud/src/infra/system\guider.c ****         else
 385:C:/Users/stapi/OneDrive/Desktop/GD32VW553/V1_MQTT_OK/GD32VW55X_Wifi_BLE_SDK/GD32VW55x_RELEASE_V1.0.2/MSDK/cloud/alicloud/src/infra/system\guider.c ****         {
 386:C:/Users/stapi/OneDrive/Desktop/GD32VW553/V1_MQTT_OK/GD32VW55X_Wifi_BLE_SDK/GD32VW55x_RELEASE_V1.0.2/MSDK/cloud/alicloud/src/infra/system\guider.c ****             return (char *)domain_mqtt_direct[region_type];
 387:C:/Users/stapi/OneDrive/Desktop/GD32VW553/V1_MQTT_OK/GD32VW55X_Wifi_BLE_SDK/GD32VW55x_RELEASE_V1.0.2/MSDK/cloud/alicloud/src/infra/system\guider.c ****         }
 388:C:/Users/stapi/OneDrive/Desktop/GD32VW553/V1_MQTT_OK/GD32VW55X_Wifi_BLE_SDK/GD32VW55x_RELEASE_V1.0.2/MSDK/cloud/alicloud/src/infra/system\guider.c ****     }
 389:C:/Users/stapi/OneDrive/Desktop/GD32VW553/V1_MQTT_OK/GD32VW55X_Wifi_BLE_SDK/GD32VW55x_RELEASE_V1.0.2/MSDK/cloud/alicloud/src/infra/system\guider.c ****     else if (GUIDER_DOMAIN_HTTP == domain_type)
 390:C:/Users/stapi/OneDrive/Desktop/GD32VW553/V1_MQTT_OK/GD32VW55X_Wifi_BLE_SDK/GD32VW55x_RELEASE_V1.0.2/MSDK/cloud/alicloud/src/infra/system\guider.c ****     {
 391:C:/Users/stapi/OneDrive/Desktop/GD32VW553/V1_MQTT_OK/GD32VW55X_Wifi_BLE_SDK/GD32VW55x_RELEASE_V1.0.2/MSDK/cloud/alicloud/src/infra/system\guider.c ****         if (GUIDER_ENV_PRERELEASE == iotx_guider_get_env())
 392:C:/Users/stapi/OneDrive/Desktop/GD32VW553/V1_MQTT_OK/GD32VW55X_Wifi_BLE_SDK/GD32VW55x_RELEASE_V1.0.2/MSDK/cloud/alicloud/src/infra/system\guider.c ****         {
 393:C:/Users/stapi/OneDrive/Desktop/GD32VW553/V1_MQTT_OK/GD32VW55X_Wifi_BLE_SDK/GD32VW55x_RELEASE_V1.0.2/MSDK/cloud/alicloud/src/infra/system\guider.c ****             return GUIDER_HTTP_AUTH_PRERELEASE;
 394:C:/Users/stapi/OneDrive/Desktop/GD32VW553/V1_MQTT_OK/GD32VW55X_Wifi_BLE_SDK/GD32VW55x_RELEASE_V1.0.2/MSDK/cloud/alicloud/src/infra/system\guider.c ****         }
 395:C:/Users/stapi/OneDrive/Desktop/GD32VW553/V1_MQTT_OK/GD32VW55X_Wifi_BLE_SDK/GD32VW55x_RELEASE_V1.0.2/MSDK/cloud/alicloud/src/infra/system\guider.c ****         else if (GUIDER_ENV_DAILY == iotx_guider_get_env())
 396:C:/Users/stapi/OneDrive/Desktop/GD32VW553/V1_MQTT_OK/GD32VW55X_Wifi_BLE_SDK/GD32VW55x_RELEASE_V1.0.2/MSDK/cloud/alicloud/src/infra/system\guider.c ****         {
 397:C:/Users/stapi/OneDrive/Desktop/GD32VW553/V1_MQTT_OK/GD32VW55X_Wifi_BLE_SDK/GD32VW55x_RELEASE_V1.0.2/MSDK/cloud/alicloud/src/infra/system\guider.c ****             return GUIDER_HTTP_AUTH_DAILY;
 398:C:/Users/stapi/OneDrive/Desktop/GD32VW553/V1_MQTT_OK/GD32VW55X_Wifi_BLE_SDK/GD32VW55x_RELEASE_V1.0.2/MSDK/cloud/alicloud/src/infra/system\guider.c ****         }
 399:C:/Users/stapi/OneDrive/Desktop/GD32VW553/V1_MQTT_OK/GD32VW55X_Wifi_BLE_SDK/GD32VW55x_RELEASE_V1.0.2/MSDK/cloud/alicloud/src/infra/system\guider.c ****         else
 400:C:/Users/stapi/OneDrive/Desktop/GD32VW553/V1_MQTT_OK/GD32VW55X_Wifi_BLE_SDK/GD32VW55x_RELEASE_V1.0.2/MSDK/cloud/alicloud/src/infra/system\guider.c ****         {
 401:C:/Users/stapi/OneDrive/Desktop/GD32VW553/V1_MQTT_OK/GD32VW55X_Wifi_BLE_SDK/GD32VW55x_RELEASE_V1.0.2/MSDK/cloud/alicloud/src/infra/system\guider.c ****             return GUIDER_HTTP_AUTH_ONLINE;
 402:C:/Users/stapi/OneDrive/Desktop/GD32VW553/V1_MQTT_OK/GD32VW55X_Wifi_BLE_SDK/GD32VW55x_RELEASE_V1.0.2/MSDK/cloud/alicloud/src/infra/system\guider.c ****         }
 403:C:/Users/stapi/OneDrive/Desktop/GD32VW553/V1_MQTT_OK/GD32VW55X_Wifi_BLE_SDK/GD32VW55x_RELEASE_V1.0.2/MSDK/cloud/alicloud/src/infra/system\guider.c ****     }
 404:C:/Users/stapi/OneDrive/Desktop/GD32VW553/V1_MQTT_OK/GD32VW55X_Wifi_BLE_SDK/GD32VW55x_RELEASE_V1.0.2/MSDK/cloud/alicloud/src/infra/system\guider.c ****     else if (GUIDER_DOMAIN_DYNAMIC_REGISTER_HTTP == domain_type)
 405:C:/Users/stapi/OneDrive/Desktop/GD32VW553/V1_MQTT_OK/GD32VW55X_Wifi_BLE_SDK/GD32VW55x_RELEASE_V1.0.2/MSDK/cloud/alicloud/src/infra/system\guider.c ****     {
 406:C:/Users/stapi/OneDrive/Desktop/GD32VW553/V1_MQTT_OK/GD32VW55X_Wifi_BLE_SDK/GD32VW55x_RELEASE_V1.0.2/MSDK/cloud/alicloud/src/infra/system\guider.c ****         if (GUIDER_ENV_PRERELEASE == iotx_guider_get_env())
 407:C:/Users/stapi/OneDrive/Desktop/GD32VW553/V1_MQTT_OK/GD32VW55X_Wifi_BLE_SDK/GD32VW55x_RELEASE_V1.0.2/MSDK/cloud/alicloud/src/infra/system\guider.c ****         {
 408:C:/Users/stapi/OneDrive/Desktop/GD32VW553/V1_MQTT_OK/GD32VW55X_Wifi_BLE_SDK/GD32VW55x_RELEASE_V1.0.2/MSDK/cloud/alicloud/src/infra/system\guider.c ****             return GUIDER_HTTP_AUTH_PRERELEASE;
 409:C:/Users/stapi/OneDrive/Desktop/GD32VW553/V1_MQTT_OK/GD32VW55X_Wifi_BLE_SDK/GD32VW55x_RELEASE_V1.0.2/MSDK/cloud/alicloud/src/infra/system\guider.c ****         }
 410:C:/Users/stapi/OneDrive/Desktop/GD32VW553/V1_MQTT_OK/GD32VW55X_Wifi_BLE_SDK/GD32VW55x_RELEASE_V1.0.2/MSDK/cloud/alicloud/src/infra/system\guider.c ****         else if (GUIDER_ENV_DAILY == iotx_guider_get_env())
 411:C:/Users/stapi/OneDrive/Desktop/GD32VW553/V1_MQTT_OK/GD32VW55X_Wifi_BLE_SDK/GD32VW55x_RELEASE_V1.0.2/MSDK/cloud/alicloud/src/infra/system\guider.c ****         {
 412:C:/Users/stapi/OneDrive/Desktop/GD32VW553/V1_MQTT_OK/GD32VW55X_Wifi_BLE_SDK/GD32VW55x_RELEASE_V1.0.2/MSDK/cloud/alicloud/src/infra/system\guider.c ****             return GUIDER_HTTP_AUTH_DAILY;
 413:C:/Users/stapi/OneDrive/Desktop/GD32VW553/V1_MQTT_OK/GD32VW55X_Wifi_BLE_SDK/GD32VW55x_RELEASE_V1.0.2/MSDK/cloud/alicloud/src/infra/system\guider.c ****         }
 414:C:/Users/stapi/OneDrive/Desktop/GD32VW553/V1_MQTT_OK/GD32VW55X_Wifi_BLE_SDK/GD32VW55x_RELEASE_V1.0.2/MSDK/cloud/alicloud/src/infra/system\guider.c ****         else
 415:C:/Users/stapi/OneDrive/Desktop/GD32VW553/V1_MQTT_OK/GD32VW55X_Wifi_BLE_SDK/GD32VW55x_RELEASE_V1.0.2/MSDK/cloud/alicloud/src/infra/system\guider.c ****         {
 416:C:/Users/stapi/OneDrive/Desktop/GD32VW553/V1_MQTT_OK/GD32VW55X_Wifi_BLE_SDK/GD32VW55x_RELEASE_V1.0.2/MSDK/cloud/alicloud/src/infra/system\guider.c ****             return GUIDER_HTTP_AUTH_DYNAMIC_REGSTER_ONLINE;
 417:C:/Users/stapi/OneDrive/Desktop/GD32VW553/V1_MQTT_OK/GD32VW55X_Wifi_BLE_SDK/GD32VW55x_RELEASE_V1.0.2/MSDK/cloud/alicloud/src/infra/system\guider.c ****         }
 418:C:/Users/stapi/OneDrive/Desktop/GD32VW553/V1_MQTT_OK/GD32VW55X_Wifi_BLE_SDK/GD32VW55x_RELEASE_V1.0.2/MSDK/cloud/alicloud/src/infra/system\guider.c ****     }
 419:C:/Users/stapi/OneDrive/Desktop/GD32VW553/V1_MQTT_OK/GD32VW55X_Wifi_BLE_SDK/GD32VW55x_RELEASE_V1.0.2/MSDK/cloud/alicloud/src/infra/system\guider.c ****     else
 420:C:/Users/stapi/OneDrive/Desktop/GD32VW553/V1_MQTT_OK/GD32VW55X_Wifi_BLE_SDK/GD32VW55x_RELEASE_V1.0.2/MSDK/cloud/alicloud/src/infra/system\guider.c ****     {
 421:C:/Users/stapi/OneDrive/Desktop/GD32VW553/V1_MQTT_OK/GD32VW55X_Wifi_BLE_SDK/GD32VW55x_RELEASE_V1.0.2/MSDK/cloud/alicloud/src/infra/system\guider.c ****         sys_err("domain type err");
 422:C:/Users/stapi/OneDrive/Desktop/GD32VW553/V1_MQTT_OK/GD32VW55X_Wifi_BLE_SDK/GD32VW55x_RELEASE_V1.0.2/MSDK/cloud/alicloud/src/infra/system\guider.c ****         return NULL;
 423:C:/Users/stapi/OneDrive/Desktop/GD32VW553/V1_MQTT_OK/GD32VW55X_Wifi_BLE_SDK/GD32VW55x_RELEASE_V1.0.2/MSDK/cloud/alicloud/src/infra/system\guider.c ****     }
 424:C:/Users/stapi/OneDrive/Desktop/GD32VW553/V1_MQTT_OK/GD32VW55X_Wifi_BLE_SDK/GD32VW55x_RELEASE_V1.0.2/MSDK/cloud/alicloud/src/infra/system\guider.c **** }
 425:C:/Users/stapi/OneDrive/Desktop/GD32VW553/V1_MQTT_OK/GD32VW55X_Wifi_BLE_SDK/GD32VW55x_RELEASE_V1.0.2/MSDK/cloud/alicloud/src/infra/system\guider.c **** 
 426:C:/Users/stapi/OneDrive/Desktop/GD32VW553/V1_MQTT_OK/GD32VW55X_Wifi_BLE_SDK/GD32VW55x_RELEASE_V1.0.2/MSDK/cloud/alicloud/src/infra/system\guider.c **** int iotx_guider_set_custom_domain(int domain_type, const char *domain)
 427:C:/Users/stapi/OneDrive/Desktop/GD32VW553/V1_MQTT_OK/GD32VW55X_Wifi_BLE_SDK/GD32VW55x_RELEASE_V1.0.2/MSDK/cloud/alicloud/src/infra/system\guider.c **** {
 428:C:/Users/stapi/OneDrive/Desktop/GD32VW553/V1_MQTT_OK/GD32VW55X_Wifi_BLE_SDK/GD32VW55x_RELEASE_V1.0.2/MSDK/cloud/alicloud/src/infra/system\guider.c ****     if ((domain_type >= GUIDER_DOMAIN_MAX) || (domain == NULL))
 429:C:/Users/stapi/OneDrive/Desktop/GD32VW553/V1_MQTT_OK/GD32VW55X_Wifi_BLE_SDK/GD32VW55x_RELEASE_V1.0.2/MSDK/cloud/alicloud/src/infra/system\guider.c ****     {
 430:C:/Users/stapi/OneDrive/Desktop/GD32VW553/V1_MQTT_OK/GD32VW55X_Wifi_BLE_SDK/GD32VW55x_RELEASE_V1.0.2/MSDK/cloud/alicloud/src/infra/system\guider.c ****         return FAIL_RETURN;
 431:C:/Users/stapi/OneDrive/Desktop/GD32VW553/V1_MQTT_OK/GD32VW55X_Wifi_BLE_SDK/GD32VW55x_RELEASE_V1.0.2/MSDK/cloud/alicloud/src/infra/system\guider.c ****     }
 432:C:/Users/stapi/OneDrive/Desktop/GD32VW553/V1_MQTT_OK/GD32VW55X_Wifi_BLE_SDK/GD32VW55x_RELEASE_V1.0.2/MSDK/cloud/alicloud/src/infra/system\guider.c **** 
 433:C:/Users/stapi/OneDrive/Desktop/GD32VW553/V1_MQTT_OK/GD32VW55X_Wifi_BLE_SDK/GD32VW55x_RELEASE_V1.0.2/MSDK/cloud/alicloud/src/infra/system\guider.c ****     int len = strlen(domain);
 434:C:/Users/stapi/OneDrive/Desktop/GD32VW553/V1_MQTT_OK/GD32VW55X_Wifi_BLE_SDK/GD32VW55x_RELEASE_V1.0.2/MSDK/cloud/alicloud/src/infra/system\guider.c ****     if (len >= CUSTOME_DOMAIN_LEN_MAX)
 435:C:/Users/stapi/OneDrive/Desktop/GD32VW553/V1_MQTT_OK/GD32VW55X_Wifi_BLE_SDK/GD32VW55x_RELEASE_V1.0.2/MSDK/cloud/alicloud/src/infra/system\guider.c ****     {
 436:C:/Users/stapi/OneDrive/Desktop/GD32VW553/V1_MQTT_OK/GD32VW55X_Wifi_BLE_SDK/GD32VW55x_RELEASE_V1.0.2/MSDK/cloud/alicloud/src/infra/system\guider.c ****         return FAIL_RETURN;
 437:C:/Users/stapi/OneDrive/Desktop/GD32VW553/V1_MQTT_OK/GD32VW55X_Wifi_BLE_SDK/GD32VW55x_RELEASE_V1.0.2/MSDK/cloud/alicloud/src/infra/system\guider.c ****     }
 438:C:/Users/stapi/OneDrive/Desktop/GD32VW553/V1_MQTT_OK/GD32VW55X_Wifi_BLE_SDK/GD32VW55x_RELEASE_V1.0.2/MSDK/cloud/alicloud/src/infra/system\guider.c **** 
 439:C:/Users/stapi/OneDrive/Desktop/GD32VW553/V1_MQTT_OK/GD32VW55X_Wifi_BLE_SDK/GD32VW55x_RELEASE_V1.0.2/MSDK/cloud/alicloud/src/infra/system\guider.c ****     memset(iotx_domain_custom[domain_type], 0, CUSTOME_DOMAIN_LEN_MAX);
 440:C:/Users/stapi/OneDrive/Desktop/GD32VW553/V1_MQTT_OK/GD32VW55X_Wifi_BLE_SDK/GD32VW55x_RELEASE_V1.0.2/MSDK/cloud/alicloud/src/infra/system\guider.c ****     memcpy(iotx_domain_custom[domain_type], domain, len);
 441:C:/Users/stapi/OneDrive/Desktop/GD32VW553/V1_MQTT_OK/GD32VW55X_Wifi_BLE_SDK/GD32VW55x_RELEASE_V1.0.2/MSDK/cloud/alicloud/src/infra/system\guider.c **** 
 442:C:/Users/stapi/OneDrive/Desktop/GD32VW553/V1_MQTT_OK/GD32VW55X_Wifi_BLE_SDK/GD32VW55x_RELEASE_V1.0.2/MSDK/cloud/alicloud/src/infra/system\guider.c ****     return SUCCESS_RETURN;
 443:C:/Users/stapi/OneDrive/Desktop/GD32VW553/V1_MQTT_OK/GD32VW55X_Wifi_BLE_SDK/GD32VW55x_RELEASE_V1.0.2/MSDK/cloud/alicloud/src/infra/system\guider.c **** }
 444:C:/Users/stapi/OneDrive/Desktop/GD32VW553/V1_MQTT_OK/GD32VW55X_Wifi_BLE_SDK/GD32VW55x_RELEASE_V1.0.2/MSDK/cloud/alicloud/src/infra/system\guider.c **** 
 445:C:/Users/stapi/OneDrive/Desktop/GD32VW553/V1_MQTT_OK/GD32VW55X_Wifi_BLE_SDK/GD32VW55x_RELEASE_V1.0.2/MSDK/cloud/alicloud/src/infra/system\guider.c **** static int _calc_hmac_signature(char *hmac_sigbuf, const int hmac_buflen,
 446:C:/Users/stapi/OneDrive/Desktop/GD32VW553/V1_MQTT_OK/GD32VW55X_Wifi_BLE_SDK/GD32VW55x_RELEASE_V1.0.2/MSDK/cloud/alicloud/src/infra/system\guider.c ****                                 const char *timestamp_str, iotx_device_info_t *p_dev_info, ext_para
 447:C:/Users/stapi/OneDrive/Desktop/GD32VW553/V1_MQTT_OK/GD32VW55X_Wifi_BLE_SDK/GD32VW55x_RELEASE_V1.0.2/MSDK/cloud/alicloud/src/infra/system\guider.c **** {
 448:C:/Users/stapi/OneDrive/Desktop/GD32VW553/V1_MQTT_OK/GD32VW55X_Wifi_BLE_SDK/GD32VW55x_RELEASE_V1.0.2/MSDK/cloud/alicloud/src/infra/system\guider.c ****     int rc = -1;
 449:C:/Users/stapi/OneDrive/Desktop/GD32VW553/V1_MQTT_OK/GD32VW55X_Wifi_BLE_SDK/GD32VW55x_RELEASE_V1.0.2/MSDK/cloud/alicloud/src/infra/system\guider.c ****     char *hmac_source_buf = NULL;
 450:C:/Users/stapi/OneDrive/Desktop/GD32VW553/V1_MQTT_OK/GD32VW55X_Wifi_BLE_SDK/GD32VW55x_RELEASE_V1.0.2/MSDK/cloud/alicloud/src/infra/system\guider.c **** 
 451:C:/Users/stapi/OneDrive/Desktop/GD32VW553/V1_MQTT_OK/GD32VW55X_Wifi_BLE_SDK/GD32VW55x_RELEASE_V1.0.2/MSDK/cloud/alicloud/src/infra/system\guider.c ****     hmac_source_buf = SYS_GUIDER_MALLOC(GUIDER_SIGN_SOURCE_LEN);
 452:C:/Users/stapi/OneDrive/Desktop/GD32VW553/V1_MQTT_OK/GD32VW55X_Wifi_BLE_SDK/GD32VW55x_RELEASE_V1.0.2/MSDK/cloud/alicloud/src/infra/system\guider.c ****     if (!hmac_source_buf)
 453:C:/Users/stapi/OneDrive/Desktop/GD32VW553/V1_MQTT_OK/GD32VW55X_Wifi_BLE_SDK/GD32VW55x_RELEASE_V1.0.2/MSDK/cloud/alicloud/src/infra/system\guider.c ****     {
 454:C:/Users/stapi/OneDrive/Desktop/GD32VW553/V1_MQTT_OK/GD32VW55X_Wifi_BLE_SDK/GD32VW55x_RELEASE_V1.0.2/MSDK/cloud/alicloud/src/infra/system\guider.c ****         sys_err("no mem");
 455:C:/Users/stapi/OneDrive/Desktop/GD32VW553/V1_MQTT_OK/GD32VW55X_Wifi_BLE_SDK/GD32VW55x_RELEASE_V1.0.2/MSDK/cloud/alicloud/src/infra/system\guider.c ****         return -1;
 456:C:/Users/stapi/OneDrive/Desktop/GD32VW553/V1_MQTT_OK/GD32VW55X_Wifi_BLE_SDK/GD32VW55x_RELEASE_V1.0.2/MSDK/cloud/alicloud/src/infra/system\guider.c ****     }
 457:C:/Users/stapi/OneDrive/Desktop/GD32VW553/V1_MQTT_OK/GD32VW55X_Wifi_BLE_SDK/GD32VW55x_RELEASE_V1.0.2/MSDK/cloud/alicloud/src/infra/system\guider.c **** 
 458:C:/Users/stapi/OneDrive/Desktop/GD32VW553/V1_MQTT_OK/GD32VW55X_Wifi_BLE_SDK/GD32VW55x_RELEASE_V1.0.2/MSDK/cloud/alicloud/src/infra/system\guider.c ****     memset(hmac_source_buf, 0, GUIDER_SIGN_SOURCE_LEN);
 459:C:/Users/stapi/OneDrive/Desktop/GD32VW553/V1_MQTT_OK/GD32VW55X_Wifi_BLE_SDK/GD32VW55x_RELEASE_V1.0.2/MSDK/cloud/alicloud/src/infra/system\guider.c **** 
 460:C:/Users/stapi/OneDrive/Desktop/GD32VW553/V1_MQTT_OK/GD32VW55X_Wifi_BLE_SDK/GD32VW55x_RELEASE_V1.0.2/MSDK/cloud/alicloud/src/infra/system\guider.c ****     if (EXT_SMART_ROUTE == ext_params)
 461:C:/Users/stapi/OneDrive/Desktop/GD32VW553/V1_MQTT_OK/GD32VW55X_Wifi_BLE_SDK/GD32VW55x_RELEASE_V1.0.2/MSDK/cloud/alicloud/src/infra/system\guider.c ****     {
 462:C:/Users/stapi/OneDrive/Desktop/GD32VW553/V1_MQTT_OK/GD32VW55X_Wifi_BLE_SDK/GD32VW55x_RELEASE_V1.0.2/MSDK/cloud/alicloud/src/infra/system\guider.c ****         rc = HAL_Snprintf(hmac_source_buf,
 463:C:/Users/stapi/OneDrive/Desktop/GD32VW553/V1_MQTT_OK/GD32VW55X_Wifi_BLE_SDK/GD32VW55x_RELEASE_V1.0.2/MSDK/cloud/alicloud/src/infra/system\guider.c ****                           GUIDER_SIGN_SOURCE_LEN,
 464:C:/Users/stapi/OneDrive/Desktop/GD32VW553/V1_MQTT_OK/GD32VW55X_Wifi_BLE_SDK/GD32VW55x_RELEASE_V1.0.2/MSDK/cloud/alicloud/src/infra/system\guider.c ****                           "clientId%s"
 465:C:/Users/stapi/OneDrive/Desktop/GD32VW553/V1_MQTT_OK/GD32VW55X_Wifi_BLE_SDK/GD32VW55x_RELEASE_V1.0.2/MSDK/cloud/alicloud/src/infra/system\guider.c ****                           "deviceName%s"
 466:C:/Users/stapi/OneDrive/Desktop/GD32VW553/V1_MQTT_OK/GD32VW55X_Wifi_BLE_SDK/GD32VW55x_RELEASE_V1.0.2/MSDK/cloud/alicloud/src/infra/system\guider.c ****                           "ext%d"
 467:C:/Users/stapi/OneDrive/Desktop/GD32VW553/V1_MQTT_OK/GD32VW55X_Wifi_BLE_SDK/GD32VW55x_RELEASE_V1.0.2/MSDK/cloud/alicloud/src/infra/system\guider.c ****                           "productKey%s"
 468:C:/Users/stapi/OneDrive/Desktop/GD32VW553/V1_MQTT_OK/GD32VW55X_Wifi_BLE_SDK/GD32VW55x_RELEASE_V1.0.2/MSDK/cloud/alicloud/src/infra/system\guider.c ****                           "timestamp%s",
 469:C:/Users/stapi/OneDrive/Desktop/GD32VW553/V1_MQTT_OK/GD32VW55X_Wifi_BLE_SDK/GD32VW55x_RELEASE_V1.0.2/MSDK/cloud/alicloud/src/infra/system\guider.c ****                           p_dev_info->device_id,
 470:C:/Users/stapi/OneDrive/Desktop/GD32VW553/V1_MQTT_OK/GD32VW55X_Wifi_BLE_SDK/GD32VW55x_RELEASE_V1.0.2/MSDK/cloud/alicloud/src/infra/system\guider.c ****                           p_dev_info->device_name,
 471:C:/Users/stapi/OneDrive/Desktop/GD32VW553/V1_MQTT_OK/GD32VW55X_Wifi_BLE_SDK/GD32VW55x_RELEASE_V1.0.2/MSDK/cloud/alicloud/src/infra/system\guider.c ****                           ext_params,
 472:C:/Users/stapi/OneDrive/Desktop/GD32VW553/V1_MQTT_OK/GD32VW55X_Wifi_BLE_SDK/GD32VW55x_RELEASE_V1.0.2/MSDK/cloud/alicloud/src/infra/system\guider.c ****                           p_dev_info->product_key,
 473:C:/Users/stapi/OneDrive/Desktop/GD32VW553/V1_MQTT_OK/GD32VW55X_Wifi_BLE_SDK/GD32VW55x_RELEASE_V1.0.2/MSDK/cloud/alicloud/src/infra/system\guider.c ****                           timestamp_str);
 474:C:/Users/stapi/OneDrive/Desktop/GD32VW553/V1_MQTT_OK/GD32VW55X_Wifi_BLE_SDK/GD32VW55x_RELEASE_V1.0.2/MSDK/cloud/alicloud/src/infra/system\guider.c ****     }
 475:C:/Users/stapi/OneDrive/Desktop/GD32VW553/V1_MQTT_OK/GD32VW55X_Wifi_BLE_SDK/GD32VW55x_RELEASE_V1.0.2/MSDK/cloud/alicloud/src/infra/system\guider.c ****     else
 476:C:/Users/stapi/OneDrive/Desktop/GD32VW553/V1_MQTT_OK/GD32VW55X_Wifi_BLE_SDK/GD32VW55x_RELEASE_V1.0.2/MSDK/cloud/alicloud/src/infra/system\guider.c ****     {
 477:C:/Users/stapi/OneDrive/Desktop/GD32VW553/V1_MQTT_OK/GD32VW55X_Wifi_BLE_SDK/GD32VW55x_RELEASE_V1.0.2/MSDK/cloud/alicloud/src/infra/system\guider.c ****         rc = HAL_Snprintf(hmac_source_buf,
 478:C:/Users/stapi/OneDrive/Desktop/GD32VW553/V1_MQTT_OK/GD32VW55X_Wifi_BLE_SDK/GD32VW55x_RELEASE_V1.0.2/MSDK/cloud/alicloud/src/infra/system\guider.c ****                           GUIDER_SIGN_SOURCE_LEN,
 479:C:/Users/stapi/OneDrive/Desktop/GD32VW553/V1_MQTT_OK/GD32VW55X_Wifi_BLE_SDK/GD32VW55x_RELEASE_V1.0.2/MSDK/cloud/alicloud/src/infra/system\guider.c ****                           "clientId%s"
 480:C:/Users/stapi/OneDrive/Desktop/GD32VW553/V1_MQTT_OK/GD32VW55X_Wifi_BLE_SDK/GD32VW55x_RELEASE_V1.0.2/MSDK/cloud/alicloud/src/infra/system\guider.c ****                           "deviceName%s"
 481:C:/Users/stapi/OneDrive/Desktop/GD32VW553/V1_MQTT_OK/GD32VW55X_Wifi_BLE_SDK/GD32VW55x_RELEASE_V1.0.2/MSDK/cloud/alicloud/src/infra/system\guider.c ****                           "productKey%s"
 482:C:/Users/stapi/OneDrive/Desktop/GD32VW553/V1_MQTT_OK/GD32VW55X_Wifi_BLE_SDK/GD32VW55x_RELEASE_V1.0.2/MSDK/cloud/alicloud/src/infra/system\guider.c ****                           "timestamp%s",
 483:C:/Users/stapi/OneDrive/Desktop/GD32VW553/V1_MQTT_OK/GD32VW55X_Wifi_BLE_SDK/GD32VW55x_RELEASE_V1.0.2/MSDK/cloud/alicloud/src/infra/system\guider.c ****                           p_dev_info->device_id,
 484:C:/Users/stapi/OneDrive/Desktop/GD32VW553/V1_MQTT_OK/GD32VW55X_Wifi_BLE_SDK/GD32VW55x_RELEASE_V1.0.2/MSDK/cloud/alicloud/src/infra/system\guider.c ****                           p_dev_info->device_name,
 485:C:/Users/stapi/OneDrive/Desktop/GD32VW553/V1_MQTT_OK/GD32VW55X_Wifi_BLE_SDK/GD32VW55x_RELEASE_V1.0.2/MSDK/cloud/alicloud/src/infra/system\guider.c ****                           p_dev_info->product_key,
 486:C:/Users/stapi/OneDrive/Desktop/GD32VW553/V1_MQTT_OK/GD32VW55X_Wifi_BLE_SDK/GD32VW55x_RELEASE_V1.0.2/MSDK/cloud/alicloud/src/infra/system\guider.c ****                           timestamp_str);
 487:C:/Users/stapi/OneDrive/Desktop/GD32VW553/V1_MQTT_OK/GD32VW55X_Wifi_BLE_SDK/GD32VW55x_RELEASE_V1.0.2/MSDK/cloud/alicloud/src/infra/system\guider.c ****     }
 488:C:/Users/stapi/OneDrive/Desktop/GD32VW553/V1_MQTT_OK/GD32VW55X_Wifi_BLE_SDK/GD32VW55x_RELEASE_V1.0.2/MSDK/cloud/alicloud/src/infra/system\guider.c **** 
 489:C:/Users/stapi/OneDrive/Desktop/GD32VW553/V1_MQTT_OK/GD32VW55X_Wifi_BLE_SDK/GD32VW55x_RELEASE_V1.0.2/MSDK/cloud/alicloud/src/infra/system\guider.c ****     LITE_ASSERT(rc < GUIDER_SIGN_SOURCE_LEN);
 490:C:/Users/stapi/OneDrive/Desktop/GD32VW553/V1_MQTT_OK/GD32VW55X_Wifi_BLE_SDK/GD32VW55x_RELEASE_V1.0.2/MSDK/cloud/alicloud/src/infra/system\guider.c **** 
 491:C:/Users/stapi/OneDrive/Desktop/GD32VW553/V1_MQTT_OK/GD32VW55X_Wifi_BLE_SDK/GD32VW55x_RELEASE_V1.0.2/MSDK/cloud/alicloud/src/infra/system\guider.c ****     utils_hmac_sha1(hmac_source_buf, strlen(hmac_source_buf), hmac_sigbuf,
 492:C:/Users/stapi/OneDrive/Desktop/GD32VW553/V1_MQTT_OK/GD32VW55X_Wifi_BLE_SDK/GD32VW55x_RELEASE_V1.0.2/MSDK/cloud/alicloud/src/infra/system\guider.c ****                     p_dev_info->device_secret, strlen(p_dev_info->device_secret));
 493:C:/Users/stapi/OneDrive/Desktop/GD32VW553/V1_MQTT_OK/GD32VW55X_Wifi_BLE_SDK/GD32VW55x_RELEASE_V1.0.2/MSDK/cloud/alicloud/src/infra/system\guider.c **** 
 494:C:/Users/stapi/OneDrive/Desktop/GD32VW553/V1_MQTT_OK/GD32VW55X_Wifi_BLE_SDK/GD32VW55x_RELEASE_V1.0.2/MSDK/cloud/alicloud/src/infra/system\guider.c ****     if (hmac_source_buf)
 495:C:/Users/stapi/OneDrive/Desktop/GD32VW553/V1_MQTT_OK/GD32VW55X_Wifi_BLE_SDK/GD32VW55x_RELEASE_V1.0.2/MSDK/cloud/alicloud/src/infra/system\guider.c ****     {
 496:C:/Users/stapi/OneDrive/Desktop/GD32VW553/V1_MQTT_OK/GD32VW55X_Wifi_BLE_SDK/GD32VW55x_RELEASE_V1.0.2/MSDK/cloud/alicloud/src/infra/system\guider.c ****         SYS_GUIDER_FREE(hmac_source_buf);
 497:C:/Users/stapi/OneDrive/Desktop/GD32VW553/V1_MQTT_OK/GD32VW55X_Wifi_BLE_SDK/GD32VW55x_RELEASE_V1.0.2/MSDK/cloud/alicloud/src/infra/system\guider.c ****     }
 498:C:/Users/stapi/OneDrive/Desktop/GD32VW553/V1_MQTT_OK/GD32VW55X_Wifi_BLE_SDK/GD32VW55x_RELEASE_V1.0.2/MSDK/cloud/alicloud/src/infra/system\guider.c **** 
 499:C:/Users/stapi/OneDrive/Desktop/GD32VW553/V1_MQTT_OK/GD32VW55X_Wifi_BLE_SDK/GD32VW55x_RELEASE_V1.0.2/MSDK/cloud/alicloud/src/infra/system\guider.c ****     return 0;
 500:C:/Users/stapi/OneDrive/Desktop/GD32VW553/V1_MQTT_OK/GD32VW55X_Wifi_BLE_SDK/GD32VW55x_RELEASE_V1.0.2/MSDK/cloud/alicloud/src/infra/system\guider.c **** }
 501:C:/Users/stapi/OneDrive/Desktop/GD32VW553/V1_MQTT_OK/GD32VW55X_Wifi_BLE_SDK/GD32VW55x_RELEASE_V1.0.2/MSDK/cloud/alicloud/src/infra/system\guider.c **** 
 502:C:/Users/stapi/OneDrive/Desktop/GD32VW553/V1_MQTT_OK/GD32VW55X_Wifi_BLE_SDK/GD32VW55x_RELEASE_V1.0.2/MSDK/cloud/alicloud/src/infra/system\guider.c **** static int _http_response(char *response_buf,
 503:C:/Users/stapi/OneDrive/Desktop/GD32VW553/V1_MQTT_OK/GD32VW55X_Wifi_BLE_SDK/GD32VW55x_RELEASE_V1.0.2/MSDK/cloud/alicloud/src/infra/system\guider.c ****                           const int response_buf_len,
 504:C:/Users/stapi/OneDrive/Desktop/GD32VW553/V1_MQTT_OK/GD32VW55X_Wifi_BLE_SDK/GD32VW55x_RELEASE_V1.0.2/MSDK/cloud/alicloud/src/infra/system\guider.c ****                           const char *request_string,
 505:C:/Users/stapi/OneDrive/Desktop/GD32VW553/V1_MQTT_OK/GD32VW55X_Wifi_BLE_SDK/GD32VW55x_RELEASE_V1.0.2/MSDK/cloud/alicloud/src/infra/system\guider.c ****                           const char *url,
 506:C:/Users/stapi/OneDrive/Desktop/GD32VW553/V1_MQTT_OK/GD32VW55X_Wifi_BLE_SDK/GD32VW55x_RELEASE_V1.0.2/MSDK/cloud/alicloud/src/infra/system\guider.c ****                           const int port_num,
 507:C:/Users/stapi/OneDrive/Desktop/GD32VW553/V1_MQTT_OK/GD32VW55X_Wifi_BLE_SDK/GD32VW55x_RELEASE_V1.0.2/MSDK/cloud/alicloud/src/infra/system\guider.c ****                           const char *pkey)
 508:C:/Users/stapi/OneDrive/Desktop/GD32VW553/V1_MQTT_OK/GD32VW55X_Wifi_BLE_SDK/GD32VW55x_RELEASE_V1.0.2/MSDK/cloud/alicloud/src/infra/system\guider.c **** {
 509:C:/Users/stapi/OneDrive/Desktop/GD32VW553/V1_MQTT_OK/GD32VW55X_Wifi_BLE_SDK/GD32VW55x_RELEASE_V1.0.2/MSDK/cloud/alicloud/src/infra/system\guider.c ****     int ret = -1;
 510:C:/Users/stapi/OneDrive/Desktop/GD32VW553/V1_MQTT_OK/GD32VW55X_Wifi_BLE_SDK/GD32VW55x_RELEASE_V1.0.2/MSDK/cloud/alicloud/src/infra/system\guider.c ****     httpclient_t httpc;
 511:C:/Users/stapi/OneDrive/Desktop/GD32VW553/V1_MQTT_OK/GD32VW55X_Wifi_BLE_SDK/GD32VW55x_RELEASE_V1.0.2/MSDK/cloud/alicloud/src/infra/system\guider.c ****     httpclient_data_t httpc_data;
 512:C:/Users/stapi/OneDrive/Desktop/GD32VW553/V1_MQTT_OK/GD32VW55X_Wifi_BLE_SDK/GD32VW55x_RELEASE_V1.0.2/MSDK/cloud/alicloud/src/infra/system\guider.c **** 
 513:C:/Users/stapi/OneDrive/Desktop/GD32VW553/V1_MQTT_OK/GD32VW55X_Wifi_BLE_SDK/GD32VW55x_RELEASE_V1.0.2/MSDK/cloud/alicloud/src/infra/system\guider.c ****     memset(&httpc, 0, sizeof(httpclient_t));
 514:C:/Users/stapi/OneDrive/Desktop/GD32VW553/V1_MQTT_OK/GD32VW55X_Wifi_BLE_SDK/GD32VW55x_RELEASE_V1.0.2/MSDK/cloud/alicloud/src/infra/system\guider.c ****     memset(&httpc_data, 0, sizeof(httpclient_data_t));
 515:C:/Users/stapi/OneDrive/Desktop/GD32VW553/V1_MQTT_OK/GD32VW55X_Wifi_BLE_SDK/GD32VW55x_RELEASE_V1.0.2/MSDK/cloud/alicloud/src/infra/system\guider.c **** 
 516:C:/Users/stapi/OneDrive/Desktop/GD32VW553/V1_MQTT_OK/GD32VW55X_Wifi_BLE_SDK/GD32VW55x_RELEASE_V1.0.2/MSDK/cloud/alicloud/src/infra/system\guider.c ****     httpc.header = "Accept: application/json\r\n";
 517:C:/Users/stapi/OneDrive/Desktop/GD32VW553/V1_MQTT_OK/GD32VW55X_Wifi_BLE_SDK/GD32VW55x_RELEASE_V1.0.2/MSDK/cloud/alicloud/src/infra/system\guider.c **** 
 518:C:/Users/stapi/OneDrive/Desktop/GD32VW553/V1_MQTT_OK/GD32VW55X_Wifi_BLE_SDK/GD32VW55x_RELEASE_V1.0.2/MSDK/cloud/alicloud/src/infra/system\guider.c ****     httpc_data.response_buf = response_buf;
 519:C:/Users/stapi/OneDrive/Desktop/GD32VW553/V1_MQTT_OK/GD32VW55X_Wifi_BLE_SDK/GD32VW55x_RELEASE_V1.0.2/MSDK/cloud/alicloud/src/infra/system\guider.c ****     httpc_data.response_buf_len = GUIDER_PREAUTH_RESPONSE_LEN;
 520:C:/Users/stapi/OneDrive/Desktop/GD32VW553/V1_MQTT_OK/GD32VW55X_Wifi_BLE_SDK/GD32VW55x_RELEASE_V1.0.2/MSDK/cloud/alicloud/src/infra/system\guider.c **** 
 521:C:/Users/stapi/OneDrive/Desktop/GD32VW553/V1_MQTT_OK/GD32VW55X_Wifi_BLE_SDK/GD32VW55x_RELEASE_V1.0.2/MSDK/cloud/alicloud/src/infra/system\guider.c ****     if (NULL == request_string) //Have valid region id
 522:C:/Users/stapi/OneDrive/Desktop/GD32VW553/V1_MQTT_OK/GD32VW55X_Wifi_BLE_SDK/GD32VW55x_RELEASE_V1.0.2/MSDK/cloud/alicloud/src/infra/system\guider.c ****     {
 523:C:/Users/stapi/OneDrive/Desktop/GD32VW553/V1_MQTT_OK/GD32VW55X_Wifi_BLE_SDK/GD32VW55x_RELEASE_V1.0.2/MSDK/cloud/alicloud/src/infra/system\guider.c ****         ret = httpclient_common(&httpc, url, port_num, pkey, HTTPCLIENT_GET,
 524:C:/Users/stapi/OneDrive/Desktop/GD32VW553/V1_MQTT_OK/GD32VW55X_Wifi_BLE_SDK/GD32VW55x_RELEASE_V1.0.2/MSDK/cloud/alicloud/src/infra/system\guider.c ****                                 CONFIG_GUIDER_AUTH_TIMEOUT, &httpc_data);
 525:C:/Users/stapi/OneDrive/Desktop/GD32VW553/V1_MQTT_OK/GD32VW55X_Wifi_BLE_SDK/GD32VW55x_RELEASE_V1.0.2/MSDK/cloud/alicloud/src/infra/system\guider.c ****     }
 526:C:/Users/stapi/OneDrive/Desktop/GD32VW553/V1_MQTT_OK/GD32VW55X_Wifi_BLE_SDK/GD32VW55x_RELEASE_V1.0.2/MSDK/cloud/alicloud/src/infra/system\guider.c ****     else
 527:C:/Users/stapi/OneDrive/Desktop/GD32VW553/V1_MQTT_OK/GD32VW55X_Wifi_BLE_SDK/GD32VW55x_RELEASE_V1.0.2/MSDK/cloud/alicloud/src/infra/system\guider.c ****     {
 528:C:/Users/stapi/OneDrive/Desktop/GD32VW553/V1_MQTT_OK/GD32VW55X_Wifi_BLE_SDK/GD32VW55x_RELEASE_V1.0.2/MSDK/cloud/alicloud/src/infra/system\guider.c ****         httpc_data.post_content_type = "application/x-www-form-urlencoded;charset=utf-8";
 529:C:/Users/stapi/OneDrive/Desktop/GD32VW553/V1_MQTT_OK/GD32VW55X_Wifi_BLE_SDK/GD32VW55x_RELEASE_V1.0.2/MSDK/cloud/alicloud/src/infra/system\guider.c ****         httpc_data.post_buf = (char *)request_string;
 530:C:/Users/stapi/OneDrive/Desktop/GD32VW553/V1_MQTT_OK/GD32VW55X_Wifi_BLE_SDK/GD32VW55x_RELEASE_V1.0.2/MSDK/cloud/alicloud/src/infra/system\guider.c ****         httpc_data.post_buf_len = strlen(request_string);
 531:C:/Users/stapi/OneDrive/Desktop/GD32VW553/V1_MQTT_OK/GD32VW55X_Wifi_BLE_SDK/GD32VW55x_RELEASE_V1.0.2/MSDK/cloud/alicloud/src/infra/system\guider.c ****         ret = httpclient_common(&httpc, url, port_num, pkey, HTTPCLIENT_POST,
 532:C:/Users/stapi/OneDrive/Desktop/GD32VW553/V1_MQTT_OK/GD32VW55X_Wifi_BLE_SDK/GD32VW55x_RELEASE_V1.0.2/MSDK/cloud/alicloud/src/infra/system\guider.c ****                                 CONFIG_GUIDER_AUTH_TIMEOUT, &httpc_data);
 533:C:/Users/stapi/OneDrive/Desktop/GD32VW553/V1_MQTT_OK/GD32VW55X_Wifi_BLE_SDK/GD32VW55x_RELEASE_V1.0.2/MSDK/cloud/alicloud/src/infra/system\guider.c ****     }
 534:C:/Users/stapi/OneDrive/Desktop/GD32VW553/V1_MQTT_OK/GD32VW55X_Wifi_BLE_SDK/GD32VW55x_RELEASE_V1.0.2/MSDK/cloud/alicloud/src/infra/system\guider.c **** 
 535:C:/Users/stapi/OneDrive/Desktop/GD32VW553/V1_MQTT_OK/GD32VW55X_Wifi_BLE_SDK/GD32VW55x_RELEASE_V1.0.2/MSDK/cloud/alicloud/src/infra/system\guider.c ****     httpclient_close(&httpc);
 536:C:/Users/stapi/OneDrive/Desktop/GD32VW553/V1_MQTT_OK/GD32VW55X_Wifi_BLE_SDK/GD32VW55x_RELEASE_V1.0.2/MSDK/cloud/alicloud/src/infra/system\guider.c **** 
 537:C:/Users/stapi/OneDrive/Desktop/GD32VW553/V1_MQTT_OK/GD32VW55X_Wifi_BLE_SDK/GD32VW55x_RELEASE_V1.0.2/MSDK/cloud/alicloud/src/infra/system\guider.c ****     return ret;
 538:C:/Users/stapi/OneDrive/Desktop/GD32VW553/V1_MQTT_OK/GD32VW55X_Wifi_BLE_SDK/GD32VW55x_RELEASE_V1.0.2/MSDK/cloud/alicloud/src/infra/system\guider.c **** }
 539:C:/Users/stapi/OneDrive/Desktop/GD32VW553/V1_MQTT_OK/GD32VW55X_Wifi_BLE_SDK/GD32VW55x_RELEASE_V1.0.2/MSDK/cloud/alicloud/src/infra/system\guider.c **** 
 540:C:/Users/stapi/OneDrive/Desktop/GD32VW553/V1_MQTT_OK/GD32VW55X_Wifi_BLE_SDK/GD32VW55x_RELEASE_V1.0.2/MSDK/cloud/alicloud/src/infra/system\guider.c **** int iotx_guider_fill_conn_string(char *dst, int len, const char *fmt, ...)
 541:C:/Users/stapi/OneDrive/Desktop/GD32VW553/V1_MQTT_OK/GD32VW55X_Wifi_BLE_SDK/GD32VW55x_RELEASE_V1.0.2/MSDK/cloud/alicloud/src/infra/system\guider.c **** {
 542:C:/Users/stapi/OneDrive/Desktop/GD32VW553/V1_MQTT_OK/GD32VW55X_Wifi_BLE_SDK/GD32VW55x_RELEASE_V1.0.2/MSDK/cloud/alicloud/src/infra/system\guider.c ****     int rc = -1;
 543:C:/Users/stapi/OneDrive/Desktop/GD32VW553/V1_MQTT_OK/GD32VW55X_Wifi_BLE_SDK/GD32VW55x_RELEASE_V1.0.2/MSDK/cloud/alicloud/src/infra/system\guider.c ****     va_list ap;
 544:C:/Users/stapi/OneDrive/Desktop/GD32VW553/V1_MQTT_OK/GD32VW55X_Wifi_BLE_SDK/GD32VW55x_RELEASE_V1.0.2/MSDK/cloud/alicloud/src/infra/system\guider.c ****     char *ptr = NULL;
 545:C:/Users/stapi/OneDrive/Desktop/GD32VW553/V1_MQTT_OK/GD32VW55X_Wifi_BLE_SDK/GD32VW55x_RELEASE_V1.0.2/MSDK/cloud/alicloud/src/infra/system\guider.c **** 
 546:C:/Users/stapi/OneDrive/Desktop/GD32VW553/V1_MQTT_OK/GD32VW55X_Wifi_BLE_SDK/GD32VW55x_RELEASE_V1.0.2/MSDK/cloud/alicloud/src/infra/system\guider.c ****     va_start(ap, fmt);
 547:C:/Users/stapi/OneDrive/Desktop/GD32VW553/V1_MQTT_OK/GD32VW55X_Wifi_BLE_SDK/GD32VW55x_RELEASE_V1.0.2/MSDK/cloud/alicloud/src/infra/system\guider.c ****     rc = HAL_Vsnprintf(dst, len, fmt, ap);
 548:C:/Users/stapi/OneDrive/Desktop/GD32VW553/V1_MQTT_OK/GD32VW55X_Wifi_BLE_SDK/GD32VW55x_RELEASE_V1.0.2/MSDK/cloud/alicloud/src/infra/system\guider.c ****     va_end(ap);
 549:C:/Users/stapi/OneDrive/Desktop/GD32VW553/V1_MQTT_OK/GD32VW55X_Wifi_BLE_SDK/GD32VW55x_RELEASE_V1.0.2/MSDK/cloud/alicloud/src/infra/system\guider.c ****     LITE_ASSERT(rc <= len);
 550:C:/Users/stapi/OneDrive/Desktop/GD32VW553/V1_MQTT_OK/GD32VW55X_Wifi_BLE_SDK/GD32VW55x_RELEASE_V1.0.2/MSDK/cloud/alicloud/src/infra/system\guider.c **** 
 551:C:/Users/stapi/OneDrive/Desktop/GD32VW553/V1_MQTT_OK/GD32VW55X_Wifi_BLE_SDK/GD32VW55x_RELEASE_V1.0.2/MSDK/cloud/alicloud/src/infra/system\guider.c ****     ptr = strstr(dst, "||");
 552:C:/Users/stapi/OneDrive/Desktop/GD32VW553/V1_MQTT_OK/GD32VW55X_Wifi_BLE_SDK/GD32VW55x_RELEASE_V1.0.2/MSDK/cloud/alicloud/src/infra/system\guider.c ****     if (ptr)
 553:C:/Users/stapi/OneDrive/Desktop/GD32VW553/V1_MQTT_OK/GD32VW55X_Wifi_BLE_SDK/GD32VW55x_RELEASE_V1.0.2/MSDK/cloud/alicloud/src/infra/system\guider.c ****     {
 554:C:/Users/stapi/OneDrive/Desktop/GD32VW553/V1_MQTT_OK/GD32VW55X_Wifi_BLE_SDK/GD32VW55x_RELEASE_V1.0.2/MSDK/cloud/alicloud/src/infra/system\guider.c ****         *ptr = '\0';
 555:C:/Users/stapi/OneDrive/Desktop/GD32VW553/V1_MQTT_OK/GD32VW55X_Wifi_BLE_SDK/GD32VW55x_RELEASE_V1.0.2/MSDK/cloud/alicloud/src/infra/system\guider.c ****     }
 556:C:/Users/stapi/OneDrive/Desktop/GD32VW553/V1_MQTT_OK/GD32VW55X_Wifi_BLE_SDK/GD32VW55x_RELEASE_V1.0.2/MSDK/cloud/alicloud/src/infra/system\guider.c **** 
 557:C:/Users/stapi/OneDrive/Desktop/GD32VW553/V1_MQTT_OK/GD32VW55X_Wifi_BLE_SDK/GD32VW55x_RELEASE_V1.0.2/MSDK/cloud/alicloud/src/infra/system\guider.c ****     return 0;
 558:C:/Users/stapi/OneDrive/Desktop/GD32VW553/V1_MQTT_OK/GD32VW55X_Wifi_BLE_SDK/GD32VW55x_RELEASE_V1.0.2/MSDK/cloud/alicloud/src/infra/system\guider.c **** }
 559:C:/Users/stapi/OneDrive/Desktop/GD32VW553/V1_MQTT_OK/GD32VW55X_Wifi_BLE_SDK/GD32VW55x_RELEASE_V1.0.2/MSDK/cloud/alicloud/src/infra/system\guider.c **** 
 560:C:/Users/stapi/OneDrive/Desktop/GD32VW553/V1_MQTT_OK/GD32VW55X_Wifi_BLE_SDK/GD32VW55x_RELEASE_V1.0.2/MSDK/cloud/alicloud/src/infra/system\guider.c **** static int printf_parting_line(void)
  19              		.loc 1 560 12
  20              		.cfi_startproc
 561:C:/Users/stapi/OneDrive/Desktop/GD32VW553/V1_MQTT_OK/GD32VW55X_Wifi_BLE_SDK/GD32VW55x_RELEASE_V1.0.2/MSDK/cloud/alicloud/src/infra/system\guider.c **** {
 562:C:/Users/stapi/OneDrive/Desktop/GD32VW553/V1_MQTT_OK/GD32VW55X_Wifi_BLE_SDK/GD32VW55x_RELEASE_V1.0.2/MSDK/cloud/alicloud/src/infra/system\guider.c ****     return printf("%s", ".................................\r\n");
  21              		.loc 1 562 5
  22              		.loc 1 562 12 is_stmt 0
  23 0000 37050000 		lui	a0,%hi(.LC0)
  24 0004 13050500 		addi	a0,a0,%lo(.LC0)
  25 0008 17030000 		tail	puts
  25      67000300 
  26              	.LVL0:
  27              		.cfi_endproc
  28              	.LFE51:
  30              		.section	.rodata.guider_print_dev_guider_info.constprop.0.str1.4,"aMS",@progbits,1
  31              		.align	2
  32              	.LC1:
  33 0000 504B00   		.string	"PK"
  34 0003 00       		.align	2
  35              	.LC2:
  36 0004 25357320 		.string	"%5s : %-s\r\n"
  36      3A20252D 
  36      730D0A00 
  37              		.align	2
  38              	.LC3:
  39 0010 444E00   		.string	"DN"
  40 0013 00       		.align	2
  41              	.LC4:
  42 0014 445300   		.string	"DS"
  43 0017 00       		.align	2
  44              	.LC5:
  45 0018 50494400 		.string	"PID"
  46              		.align	2
  47              	.LC6:
  48 001c 4D494400 		.string	"MID"
  49              		.align	2
  50              	.LC7:
  51 0020 55524C00 		.string	"URL"
  52              		.align	2
  53              	.LC8:
  54 0024 25357320 		.string	"%5s : %s\r\n"
  54      3A202573 
  54      0D0A00
  55 002f 00       		.align	2
  56              	.LC9:
  57 0030 544C5320 		.string	"TLS + Guider"
  57      2B204775 
  57      69646572 
  57      00
  58 003d 000000   		.align	2
  59              	.LC10:
  60 0040 54435020 		.string	"TCP + Guider + Plain"
  60      2B204775 
  60      69646572 
  60      202B2050 
  60      6C61696E 
  61 0055 000000   		.align	2
  62              	.LC11:
  63 0058 54435020 		.string	"TCP + Guider + ID2"
  63      2B204775 
  63      69646572 
  63      202B2049 
  63      443200
  64 006b 00       		.align	2
  65              	.LC12:
  66 006c 544C5320 		.string	"TLS + Direct"
  66      2B204469 
  66      72656374 
  66      00
  67 0079 000000   		.align	2
  68              	.LC13:
  69 007c 534D00   		.string	"SM"
  70 007f 00       		.align	2
  71              	.LC14:
  72 0080 545300   		.string	"TS"
  73              		.section	.text.guider_print_dev_guider_info.constprop.0,"ax",@progbits
  74              		.align	1
  76              	guider_print_dev_guider_info.constprop.0:
  77              	.LFB56:
 563:C:/Users/stapi/OneDrive/Desktop/GD32VW553/V1_MQTT_OK/GD32VW55X_Wifi_BLE_SDK/GD32VW55x_RELEASE_V1.0.2/MSDK/cloud/alicloud/src/infra/system\guider.c **** }
 564:C:/Users/stapi/OneDrive/Desktop/GD32VW553/V1_MQTT_OK/GD32VW55X_Wifi_BLE_SDK/GD32VW55x_RELEASE_V1.0.2/MSDK/cloud/alicloud/src/infra/system\guider.c **** 
 565:C:/Users/stapi/OneDrive/Desktop/GD32VW553/V1_MQTT_OK/GD32VW55X_Wifi_BLE_SDK/GD32VW55x_RELEASE_V1.0.2/MSDK/cloud/alicloud/src/infra/system\guider.c **** static void guider_print_conn_info(iotx_conn_info_t *conn)
 566:C:/Users/stapi/OneDrive/Desktop/GD32VW553/V1_MQTT_OK/GD32VW55X_Wifi_BLE_SDK/GD32VW55x_RELEASE_V1.0.2/MSDK/cloud/alicloud/src/infra/system\guider.c **** {
 567:C:/Users/stapi/OneDrive/Desktop/GD32VW553/V1_MQTT_OK/GD32VW55X_Wifi_BLE_SDK/GD32VW55x_RELEASE_V1.0.2/MSDK/cloud/alicloud/src/infra/system\guider.c ****     int pub_key_len = 0;
 568:C:/Users/stapi/OneDrive/Desktop/GD32VW553/V1_MQTT_OK/GD32VW55X_Wifi_BLE_SDK/GD32VW55x_RELEASE_V1.0.2/MSDK/cloud/alicloud/src/infra/system\guider.c **** 
 569:C:/Users/stapi/OneDrive/Desktop/GD32VW553/V1_MQTT_OK/GD32VW55X_Wifi_BLE_SDK/GD32VW55x_RELEASE_V1.0.2/MSDK/cloud/alicloud/src/infra/system\guider.c ****     LITE_ASSERT(conn);
 570:C:/Users/stapi/OneDrive/Desktop/GD32VW553/V1_MQTT_OK/GD32VW55X_Wifi_BLE_SDK/GD32VW55x_RELEASE_V1.0.2/MSDK/cloud/alicloud/src/infra/system\guider.c ****     printf_parting_line();
 571:C:/Users/stapi/OneDrive/Desktop/GD32VW553/V1_MQTT_OK/GD32VW55X_Wifi_BLE_SDK/GD32VW55x_RELEASE_V1.0.2/MSDK/cloud/alicloud/src/infra/system\guider.c ****     printf("%10s : %-s\r\n", "Host", conn->host_name);
 572:C:/Users/stapi/OneDrive/Desktop/GD32VW553/V1_MQTT_OK/GD32VW55X_Wifi_BLE_SDK/GD32VW55x_RELEASE_V1.0.2/MSDK/cloud/alicloud/src/infra/system\guider.c ****     printf("%10s : %d\r\n", "Port", conn->port);
 573:C:/Users/stapi/OneDrive/Desktop/GD32VW553/V1_MQTT_OK/GD32VW55X_Wifi_BLE_SDK/GD32VW55x_RELEASE_V1.0.2/MSDK/cloud/alicloud/src/infra/system\guider.c **** #if CONFIG_GUIDER_DUMP_SECRET
 574:C:/Users/stapi/OneDrive/Desktop/GD32VW553/V1_MQTT_OK/GD32VW55X_Wifi_BLE_SDK/GD32VW55x_RELEASE_V1.0.2/MSDK/cloud/alicloud/src/infra/system\guider.c ****     printf("%10s : %-s\r\n", "User", conn->username);
 575:C:/Users/stapi/OneDrive/Desktop/GD32VW553/V1_MQTT_OK/GD32VW55X_Wifi_BLE_SDK/GD32VW55x_RELEASE_V1.0.2/MSDK/cloud/alicloud/src/infra/system\guider.c ****     printf("%10s : %-s\r\n", "PW", conn->password);
 576:C:/Users/stapi/OneDrive/Desktop/GD32VW553/V1_MQTT_OK/GD32VW55X_Wifi_BLE_SDK/GD32VW55x_RELEASE_V1.0.2/MSDK/cloud/alicloud/src/infra/system\guider.c **** #endif
 577:C:/Users/stapi/OneDrive/Desktop/GD32VW553/V1_MQTT_OK/GD32VW55X_Wifi_BLE_SDK/GD32VW55x_RELEASE_V1.0.2/MSDK/cloud/alicloud/src/infra/system\guider.c ****     HAL_Printf("%10s : %-s\r\n", "ClientID", conn->client_id);
 578:C:/Users/stapi/OneDrive/Desktop/GD32VW553/V1_MQTT_OK/GD32VW55X_Wifi_BLE_SDK/GD32VW55x_RELEASE_V1.0.2/MSDK/cloud/alicloud/src/infra/system\guider.c ****     if (conn->pub_key)
 579:C:/Users/stapi/OneDrive/Desktop/GD32VW553/V1_MQTT_OK/GD32VW55X_Wifi_BLE_SDK/GD32VW55x_RELEASE_V1.0.2/MSDK/cloud/alicloud/src/infra/system\guider.c ****     {
 580:C:/Users/stapi/OneDrive/Desktop/GD32VW553/V1_MQTT_OK/GD32VW55X_Wifi_BLE_SDK/GD32VW55x_RELEASE_V1.0.2/MSDK/cloud/alicloud/src/infra/system\guider.c ****         pub_key_len = strlen(conn->pub_key);
 581:C:/Users/stapi/OneDrive/Desktop/GD32VW553/V1_MQTT_OK/GD32VW55X_Wifi_BLE_SDK/GD32VW55x_RELEASE_V1.0.2/MSDK/cloud/alicloud/src/infra/system\guider.c ****         if (pub_key_len > 63)
 582:C:/Users/stapi/OneDrive/Desktop/GD32VW553/V1_MQTT_OK/GD32VW55X_Wifi_BLE_SDK/GD32VW55x_RELEASE_V1.0.2/MSDK/cloud/alicloud/src/infra/system\guider.c ****             HAL_Printf("%10s : ('... %.16s ...')\r\n", "CA", conn->pub_key + strlen(conn->pub_key) 
 583:C:/Users/stapi/OneDrive/Desktop/GD32VW553/V1_MQTT_OK/GD32VW55X_Wifi_BLE_SDK/GD32VW55x_RELEASE_V1.0.2/MSDK/cloud/alicloud/src/infra/system\guider.c ****     }
 584:C:/Users/stapi/OneDrive/Desktop/GD32VW553/V1_MQTT_OK/GD32VW55X_Wifi_BLE_SDK/GD32VW55x_RELEASE_V1.0.2/MSDK/cloud/alicloud/src/infra/system\guider.c **** 
 585:C:/Users/stapi/OneDrive/Desktop/GD32VW553/V1_MQTT_OK/GD32VW55X_Wifi_BLE_SDK/GD32VW55x_RELEASE_V1.0.2/MSDK/cloud/alicloud/src/infra/system\guider.c ****     printf_parting_line();
 586:C:/Users/stapi/OneDrive/Desktop/GD32VW553/V1_MQTT_OK/GD32VW55X_Wifi_BLE_SDK/GD32VW55x_RELEASE_V1.0.2/MSDK/cloud/alicloud/src/infra/system\guider.c **** }
 587:C:/Users/stapi/OneDrive/Desktop/GD32VW553/V1_MQTT_OK/GD32VW55X_Wifi_BLE_SDK/GD32VW55x_RELEASE_V1.0.2/MSDK/cloud/alicloud/src/infra/system\guider.c **** 
 588:C:/Users/stapi/OneDrive/Desktop/GD32VW553/V1_MQTT_OK/GD32VW55X_Wifi_BLE_SDK/GD32VW55x_RELEASE_V1.0.2/MSDK/cloud/alicloud/src/infra/system\guider.c **** static void guider_print_dev_guider_info(iotx_device_info_t *dev,
  78              		.loc 1 588 13 is_stmt 1
  79              		.cfi_startproc
  80              	.LVL1:
  81 0000 17030000 		call	t0,__riscv_save_7
  81      E7020300 
  82              		.cfi_offset 22, -32
  83              		.cfi_offset 21, -28
  84              		.cfi_offset 20, -24
  85              		.cfi_offset 19, -20
  86              		.cfi_offset 18, -16
  87              		.cfi_offset 9, -12
  88              		.cfi_offset 8, -8
  89              		.cfi_offset 1, -4
  90              		.cfi_def_cfa_offset 32
  91              	.LVL2:
 589:C:/Users/stapi/OneDrive/Desktop/GD32VW553/V1_MQTT_OK/GD32VW55X_Wifi_BLE_SDK/GD32VW55x_RELEASE_V1.0.2/MSDK/cloud/alicloud/src/infra/system\guider.c ****                                          char *partner_id,
 590:C:/Users/stapi/OneDrive/Desktop/GD32VW553/V1_MQTT_OK/GD32VW55X_Wifi_BLE_SDK/GD32VW55x_RELEASE_V1.0.2/MSDK/cloud/alicloud/src/infra/system\guider.c ****                                          char *module_id,
 591:C:/Users/stapi/OneDrive/Desktop/GD32VW553/V1_MQTT_OK/GD32VW55X_Wifi_BLE_SDK/GD32VW55x_RELEASE_V1.0.2/MSDK/cloud/alicloud/src/infra/system\guider.c ****                                          char *guider_url,
 592:C:/Users/stapi/OneDrive/Desktop/GD32VW553/V1_MQTT_OK/GD32VW55X_Wifi_BLE_SDK/GD32VW55x_RELEASE_V1.0.2/MSDK/cloud/alicloud/src/infra/system\guider.c ****                                          int secure_mode,
 593:C:/Users/stapi/OneDrive/Desktop/GD32VW553/V1_MQTT_OK/GD32VW55X_Wifi_BLE_SDK/GD32VW55x_RELEASE_V1.0.2/MSDK/cloud/alicloud/src/infra/system\guider.c ****                                          char *time_stamp,
 594:C:/Users/stapi/OneDrive/Desktop/GD32VW553/V1_MQTT_OK/GD32VW55X_Wifi_BLE_SDK/GD32VW55x_RELEASE_V1.0.2/MSDK/cloud/alicloud/src/infra/system\guider.c ****                                          char *guider_sign)
 595:C:/Users/stapi/OneDrive/Desktop/GD32VW553/V1_MQTT_OK/GD32VW55X_Wifi_BLE_SDK/GD32VW55x_RELEASE_V1.0.2/MSDK/cloud/alicloud/src/infra/system\guider.c **** {
 596:C:/Users/stapi/OneDrive/Desktop/GD32VW553/V1_MQTT_OK/GD32VW55X_Wifi_BLE_SDK/GD32VW55x_RELEASE_V1.0.2/MSDK/cloud/alicloud/src/infra/system\guider.c ****     char ds[11];
  92              		.loc 1 596 5
 597:C:/Users/stapi/OneDrive/Desktop/GD32VW553/V1_MQTT_OK/GD32VW55X_Wifi_BLE_SDK/GD32VW55x_RELEASE_V1.0.2/MSDK/cloud/alicloud/src/infra/system\guider.c **** 
 598:C:/Users/stapi/OneDrive/Desktop/GD32VW553/V1_MQTT_OK/GD32VW55X_Wifi_BLE_SDK/GD32VW55x_RELEASE_V1.0.2/MSDK/cloud/alicloud/src/infra/system\guider.c ****     memset(ds, 0, sizeof(ds));
  93              		.loc 1 598 5
 588:C:/Users/stapi/OneDrive/Desktop/GD32VW553/V1_MQTT_OK/GD32VW55X_Wifi_BLE_SDK/GD32VW55x_RELEASE_V1.0.2/MSDK/cloud/alicloud/src/infra/system\guider.c ****                                          char *partner_id,
  94              		.loc 1 588 13 is_stmt 0
  95 0008 4111     		addi	sp,sp,-16
  96              		.cfi_def_cfa_offset 48
 588:C:/Users/stapi/OneDrive/Desktop/GD32VW553/V1_MQTT_OK/GD32VW55X_Wifi_BLE_SDK/GD32VW55x_RELEASE_V1.0.2/MSDK/cloud/alicloud/src/infra/system\guider.c ****                                          char *partner_id,
  97              		.loc 1 588 13
  98 000a AA89     		mv	s3,a0
  99 000c 2E8B     		mv	s6,a1
 100 000e B28A     		mv	s5,a2
 599:C:/Users/stapi/OneDrive/Desktop/GD32VW553/V1_MQTT_OK/GD32VW55X_Wifi_BLE_SDK/GD32VW55x_RELEASE_V1.0.2/MSDK/cloud/alicloud/src/infra/system\guider.c ****     memcpy(ds, dev->device_secret, sizeof(ds) - 1);
 101              		.loc 1 599 5
 102 0010 93057507 		addi	a1,a0,119
 103              	.LVL3:
 104 0014 2946     		li	a2,10
 105              	.LVL4:
 106 0016 4800     		addi	a0,sp,4
 107              	.LVL5:
 588:C:/Users/stapi/OneDrive/Desktop/GD32VW553/V1_MQTT_OK/GD32VW55X_Wifi_BLE_SDK/GD32VW55x_RELEASE_V1.0.2/MSDK/cloud/alicloud/src/infra/system\guider.c ****                                          char *partner_id,
 108              		.loc 1 588 13
 109 0018 B684     		mv	s1,a3
 110 001a 3A84     		mv	s0,a4
 111 001c 3E8A     		mv	s4,a5
 112 001e 23070100 		sb	zero,14(sp)
 113              		.loc 1 599 5 is_stmt 1
 114 0022 97000000 		call	memcpy
 114      E7800000 
 115              	.LVL6:
 600:C:/Users/stapi/OneDrive/Desktop/GD32VW553/V1_MQTT_OK/GD32VW55X_Wifi_BLE_SDK/GD32VW55x_RELEASE_V1.0.2/MSDK/cloud/alicloud/src/infra/system\guider.c **** 
 601:C:/Users/stapi/OneDrive/Desktop/GD32VW553/V1_MQTT_OK/GD32VW55X_Wifi_BLE_SDK/GD32VW55x_RELEASE_V1.0.2/MSDK/cloud/alicloud/src/infra/system\guider.c ****     printf_parting_line();
 116              		.loc 1 601 5
 117 002a 97000000 		call	printf_parting_line.isra.0
 117      E7800000 
 118              	.LVL7:
 602:C:/Users/stapi/OneDrive/Desktop/GD32VW553/V1_MQTT_OK/GD32VW55X_Wifi_BLE_SDK/GD32VW55x_RELEASE_V1.0.2/MSDK/cloud/alicloud/src/infra/system\guider.c ****     printf("%5s : %-s\r\n", "PK", dev->product_key);
 119              		.loc 1 602 5
 120 0032 37090000 		lui	s2,%hi(.LC2)
 121 0036 B7050000 		lui	a1,%hi(.LC1)
 122 003a 4E86     		mv	a2,s3
 123 003c 93850500 		addi	a1,a1,%lo(.LC1)
 124 0040 13050900 		addi	a0,s2,%lo(.LC2)
 125 0044 97000000 		call	printf
 125      E7800000 
 126              	.LVL8:
 603:C:/Users/stapi/OneDrive/Desktop/GD32VW553/V1_MQTT_OK/GD32VW55X_Wifi_BLE_SDK/GD32VW55x_RELEASE_V1.0.2/MSDK/cloud/alicloud/src/infra/system\guider.c ****     printf("%5s : %-s\r\n", "DN", dev->device_name);
 127              		.loc 1 603 5
 128 004c B7050000 		lui	a1,%hi(.LC3)
 129 0050 13865901 		addi	a2,s3,21
 130 0054 93850500 		addi	a1,a1,%lo(.LC3)
 131 0058 13050900 		addi	a0,s2,%lo(.LC2)
 132 005c 97000000 		call	printf
 132      E7800000 
 133              	.LVL9:
 604:C:/Users/stapi/OneDrive/Desktop/GD32VW553/V1_MQTT_OK/GD32VW55X_Wifi_BLE_SDK/GD32VW55x_RELEASE_V1.0.2/MSDK/cloud/alicloud/src/infra/system\guider.c ****     printf("%5s : %-s\r\n", "DS", ds);
 134              		.loc 1 604 5
 135 0064 B7050000 		lui	a1,%hi(.LC4)
 136 0068 5000     		addi	a2,sp,4
 137 006a 93850500 		addi	a1,a1,%lo(.LC4)
 138 006e 13050900 		addi	a0,s2,%lo(.LC2)
 139 0072 97000000 		call	printf
 139      E7800000 
 140              	.LVL10:
 605:C:/Users/stapi/OneDrive/Desktop/GD32VW553/V1_MQTT_OK/GD32VW55X_Wifi_BLE_SDK/GD32VW55x_RELEASE_V1.0.2/MSDK/cloud/alicloud/src/infra/system\guider.c ****     printf("%5s : %-s\r\n", "PID", partner_id);
 141              		.loc 1 605 5
 142 007a B7050000 		lui	a1,%hi(.LC5)
 143 007e 5A86     		mv	a2,s6
 144 0080 93850500 		addi	a1,a1,%lo(.LC5)
 145 0084 13050900 		addi	a0,s2,%lo(.LC2)
 146 0088 97000000 		call	printf
 146      E7800000 
 147              	.LVL11:
 606:C:/Users/stapi/OneDrive/Desktop/GD32VW553/V1_MQTT_OK/GD32VW55X_Wifi_BLE_SDK/GD32VW55x_RELEASE_V1.0.2/MSDK/cloud/alicloud/src/infra/system\guider.c ****     printf("%5s : %-s\r\n", "MID", module_id);
 148              		.loc 1 606 5
 149 0090 B7050000 		lui	a1,%hi(.LC6)
 150 0094 13050900 		addi	a0,s2,%lo(.LC2)
 151 0098 5686     		mv	a2,s5
 152 009a 93850500 		addi	a1,a1,%lo(.LC6)
 153 009e 97000000 		call	printf
 153      E7800000 
 154              	.LVL12:
 607:C:/Users/stapi/OneDrive/Desktop/GD32VW553/V1_MQTT_OK/GD32VW55X_Wifi_BLE_SDK/GD32VW55x_RELEASE_V1.0.2/MSDK/cloud/alicloud/src/infra/system\guider.c **** 
 608:C:/Users/stapi/OneDrive/Desktop/GD32VW553/V1_MQTT_OK/GD32VW55X_Wifi_BLE_SDK/GD32VW55x_RELEASE_V1.0.2/MSDK/cloud/alicloud/src/infra/system\guider.c ****     if (guider_url && strlen(guider_url) > 0)
 155              		.loc 1 608 5
 156 00a6 37090000 		lui	s2,%hi(.LC8)
 157              		.loc 1 608 8 is_stmt 0
 158 00aa 99CC     		beq	s1,zero,.L4
 159              		.loc 1 608 20
 160 00ac 83870400 		lb	a5,0(s1)
 161 00b0 81CF     		beq	a5,zero,.L4
 609:C:/Users/stapi/OneDrive/Desktop/GD32VW553/V1_MQTT_OK/GD32VW55X_Wifi_BLE_SDK/GD32VW55x_RELEASE_V1.0.2/MSDK/cloud/alicloud/src/infra/system\guider.c ****     {
 610:C:/Users/stapi/OneDrive/Desktop/GD32VW553/V1_MQTT_OK/GD32VW55X_Wifi_BLE_SDK/GD32VW55x_RELEASE_V1.0.2/MSDK/cloud/alicloud/src/infra/system\guider.c ****         HAL_Printf("%5s : %s\r\n", "URL", guider_url);
 162              		.loc 1 610 9 is_stmt 1
 163 00b2 B7050000 		lui	a1,%hi(.LC7)
 164 00b6 2686     		mv	a2,s1
 165 00b8 93850500 		addi	a1,a1,%lo(.LC7)
 166 00bc 13050900 		addi	a0,s2,%lo(.LC8)
 167 00c0 97000000 		call	HAL_Printf
 167      E7800000 
 168              	.LVL13:
 169              	.L4:
 611:C:/Users/stapi/OneDrive/Desktop/GD32VW553/V1_MQTT_OK/GD32VW55X_Wifi_BLE_SDK/GD32VW55x_RELEASE_V1.0.2/MSDK/cloud/alicloud/src/infra/system\guider.c ****     }
 612:C:/Users/stapi/OneDrive/Desktop/GD32VW553/V1_MQTT_OK/GD32VW55X_Wifi_BLE_SDK/GD32VW55x_RELEASE_V1.0.2/MSDK/cloud/alicloud/src/infra/system\guider.c **** 
 613:C:/Users/stapi/OneDrive/Desktop/GD32VW553/V1_MQTT_OK/GD32VW55X_Wifi_BLE_SDK/GD32VW55x_RELEASE_V1.0.2/MSDK/cloud/alicloud/src/infra/system\guider.c ****     printf("%5s : %s\r\n", "SM", get_secure_mode_str(secure_mode));
 170              		.loc 1 613 5
 171              	.LBB35:
 172              	.LBB36:
  33:C:/Users/stapi/OneDrive/Desktop/GD32VW553/V1_MQTT_OK/GD32VW55X_Wifi_BLE_SDK/GD32VW55x_RELEASE_V1.0.2/MSDK/cloud/alicloud/src/infra/system\guider.c **** 
 173              		.loc 1 33 5
  35:C:/Users/stapi/OneDrive/Desktop/GD32VW553/V1_MQTT_OK/GD32VW55X_Wifi_BLE_SDK/GD32VW55x_RELEASE_V1.0.2/MSDK/cloud/alicloud/src/infra/system\guider.c ****     {
 174              		.loc 1 35 5
 175 00c8 B7060000 		lui	a3,%hi(.LANCHOR0)
 176 00cc 8547     		li	a5,1
 177 00ce 93860600 		addi	a3,a3,%lo(.LANCHOR0)
 178 00d2 630FF404 		beq	s0,a5,.L5
 179 00d6 8947     		li	a5,2
 180 00d8 6301F406 		beq	s0,a5,.L6
 181 00dc 29C4     		beq	s0,zero,.L7
  39:C:/Users/stapi/OneDrive/Desktop/GD32VW553/V1_MQTT_OK/GD32VW55X_Wifi_BLE_SDK/GD32VW55x_RELEASE_V1.0.2/MSDK/cloud/alicloud/src/infra/system\guider.c ****     }
 182              		.loc 1 39 9
  39:C:/Users/stapi/OneDrive/Desktop/GD32VW553/V1_MQTT_OK/GD32VW55X_Wifi_BLE_SDK/GD32VW55x_RELEASE_V1.0.2/MSDK/cloud/alicloud/src/infra/system\guider.c ****     }
 183              		.loc 1 39 25 is_stmt 0
 184 00de B7070000 		lui	a5,%hi(.LC9)
 185 00e2 93870700 		addi	a5,a5,%lo(.LC9)
 186              	.L16:
  54:C:/Users/stapi/OneDrive/Desktop/GD32VW553/V1_MQTT_OK/GD32VW55X_Wifi_BLE_SDK/GD32VW55x_RELEASE_V1.0.2/MSDK/cloud/alicloud/src/infra/system\guider.c ****     }
 187              		.loc 1 54 25
 188 00e6 9CC2     		sw	a5,0(a3)
  56:C:/Users/stapi/OneDrive/Desktop/GD32VW553/V1_MQTT_OK/GD32VW55X_Wifi_BLE_SDK/GD32VW55x_RELEASE_V1.0.2/MSDK/cloud/alicloud/src/infra/system\guider.c ****     case MODE_TCP_DIRECT_PLAIN:
 189              		.loc 1 56 5 is_stmt 1
  86:C:/Users/stapi/OneDrive/Desktop/GD32VW553/V1_MQTT_OK/GD32VW55X_Wifi_BLE_SDK/GD32VW55x_RELEASE_V1.0.2/MSDK/cloud/alicloud/src/infra/system\guider.c **** }
 190              		.loc 1 86 5
 191              	.LVL14:
 192              	.LBE36:
 193              	.LBE35:
 194              		.loc 1 613 5 is_stmt 0
 195 00e8 9042     		lw	a2,0(a3)
 196 00ea B7050000 		lui	a1,%hi(.LC13)
 197 00ee 93850500 		addi	a1,a1,%lo(.LC13)
 198 00f2 13050900 		addi	a0,s2,%lo(.LC8)
 199 00f6 97000000 		call	printf
 199      E7800000 
 200              	.LVL15:
 614:C:/Users/stapi/OneDrive/Desktop/GD32VW553/V1_MQTT_OK/GD32VW55X_Wifi_BLE_SDK/GD32VW55x_RELEASE_V1.0.2/MSDK/cloud/alicloud/src/infra/system\guider.c ****     printf("%5s : %s\r\n", "TS", time_stamp);
 201              		.loc 1 614 5 is_stmt 1
 202 00fe B7050000 		lui	a1,%hi(.LC14)
 203 0102 5286     		mv	a2,s4
 204 0104 93850500 		addi	a1,a1,%lo(.LC14)
 205 0108 13050900 		addi	a0,s2,%lo(.LC8)
 206 010c 97000000 		call	printf
 206      E7800000 
 207              	.LVL16:
 615:C:/Users/stapi/OneDrive/Desktop/GD32VW553/V1_MQTT_OK/GD32VW55X_Wifi_BLE_SDK/GD32VW55x_RELEASE_V1.0.2/MSDK/cloud/alicloud/src/infra/system\guider.c **** #if CONFIG_GUIDER_DUMP_SECRET
 616:C:/Users/stapi/OneDrive/Desktop/GD32VW553/V1_MQTT_OK/GD32VW55X_Wifi_BLE_SDK/GD32VW55x_RELEASE_V1.0.2/MSDK/cloud/alicloud/src/infra/system\guider.c ****     printf("%5s : %s\r\n", "Sign", guider_sign);
 617:C:/Users/stapi/OneDrive/Desktop/GD32VW553/V1_MQTT_OK/GD32VW55X_Wifi_BLE_SDK/GD32VW55x_RELEASE_V1.0.2/MSDK/cloud/alicloud/src/infra/system\guider.c **** #endif
 618:C:/Users/stapi/OneDrive/Desktop/GD32VW553/V1_MQTT_OK/GD32VW55X_Wifi_BLE_SDK/GD32VW55x_RELEASE_V1.0.2/MSDK/cloud/alicloud/src/infra/system\guider.c ****     printf_parting_line();
 208              		.loc 1 618 5
 209 0114 97000000 		call	printf_parting_line.isra.0
 209      E7800000 
 210              	.LVL17:
 619:C:/Users/stapi/OneDrive/Desktop/GD32VW553/V1_MQTT_OK/GD32VW55X_Wifi_BLE_SDK/GD32VW55x_RELEASE_V1.0.2/MSDK/cloud/alicloud/src/infra/system\guider.c **** 
 620:C:/Users/stapi/OneDrive/Desktop/GD32VW553/V1_MQTT_OK/GD32VW55X_Wifi_BLE_SDK/GD32VW55x_RELEASE_V1.0.2/MSDK/cloud/alicloud/src/infra/system\guider.c ****     return;
 211              		.loc 1 620 5
 621:C:/Users/stapi/OneDrive/Desktop/GD32VW553/V1_MQTT_OK/GD32VW55X_Wifi_BLE_SDK/GD32VW55x_RELEASE_V1.0.2/MSDK/cloud/alicloud/src/infra/system\guider.c **** }
 212              		.loc 1 621 1 is_stmt 0
 213 011c 4101     		addi	sp,sp,16
 214              		.cfi_remember_state
 215              		.cfi_def_cfa_offset 0
 216 011e 17030000 		tail	__riscv_restore_7
 216      67000300 
 217              		.cfi_restore 22
 218              		.cfi_restore 21
 219              		.cfi_restore 20
 220              		.cfi_restore 19
 221              		.cfi_restore 18
 222              		.cfi_restore 9
 223              		.cfi_restore 8
 224              		.cfi_restore 1
 225              		.cfi_def_cfa_offset -32
 226              	.LVL18:
 227              	.L7:
 228              		.cfi_restore_state
 229              	.LBB38:
 230              	.LBB37:
  44:C:/Users/stapi/OneDrive/Desktop/GD32VW553/V1_MQTT_OK/GD32VW55X_Wifi_BLE_SDK/GD32VW55x_RELEASE_V1.0.2/MSDK/cloud/alicloud/src/infra/system\guider.c ****     }
 231              		.loc 1 44 9 is_stmt 1
  44:C:/Users/stapi/OneDrive/Desktop/GD32VW553/V1_MQTT_OK/GD32VW55X_Wifi_BLE_SDK/GD32VW55x_RELEASE_V1.0.2/MSDK/cloud/alicloud/src/infra/system\guider.c ****     }
 232              		.loc 1 44 25 is_stmt 0
 233 0126 B7070000 		lui	a5,%hi(.LC10)
 234 012a 93870700 		addi	a5,a5,%lo(.LC10)
 235 012e 65BF     		j	.L16
 236              	.L5:
  49:C:/Users/stapi/OneDrive/Desktop/GD32VW553/V1_MQTT_OK/GD32VW55X_Wifi_BLE_SDK/GD32VW55x_RELEASE_V1.0.2/MSDK/cloud/alicloud/src/infra/system\guider.c ****     }
 237              		.loc 1 49 9 is_stmt 1
  49:C:/Users/stapi/OneDrive/Desktop/GD32VW553/V1_MQTT_OK/GD32VW55X_Wifi_BLE_SDK/GD32VW55x_RELEASE_V1.0.2/MSDK/cloud/alicloud/src/infra/system\guider.c ****     }
 238              		.loc 1 49 25 is_stmt 0
 239 0130 B7070000 		lui	a5,%hi(.LC11)
 240 0134 93870700 		addi	a5,a5,%lo(.LC11)
 241 0138 7DB7     		j	.L16
 242              	.L6:
  54:C:/Users/stapi/OneDrive/Desktop/GD32VW553/V1_MQTT_OK/GD32VW55X_Wifi_BLE_SDK/GD32VW55x_RELEASE_V1.0.2/MSDK/cloud/alicloud/src/infra/system\guider.c ****     }
 243              		.loc 1 54 9 is_stmt 1
  54:C:/Users/stapi/OneDrive/Desktop/GD32VW553/V1_MQTT_OK/GD32VW55X_Wifi_BLE_SDK/GD32VW55x_RELEASE_V1.0.2/MSDK/cloud/alicloud/src/infra/system\guider.c ****     }
 244              		.loc 1 54 25 is_stmt 0
 245 013a B7070000 		lui	a5,%hi(.LC12)
 246 013e 93870700 		addi	a5,a5,%lo(.LC12)
 247 0142 55B7     		j	.L16
 248              	.LBE37:
 249              	.LBE38:
 250              		.cfi_endproc
 251              	.LFE56:
 253              		.section	.text.iotx_guider_get_region,"ax",@progbits
 254              		.align	1
 255              		.globl	iotx_guider_get_region
 257              	iotx_guider_get_region:
 258              	.LFB21:
 121:C:/Users/stapi/OneDrive/Desktop/GD32VW553/V1_MQTT_OK/GD32VW55X_Wifi_BLE_SDK/GD32VW55x_RELEASE_V1.0.2/MSDK/cloud/alicloud/src/infra/system\guider.c ****     iotx_cloud_region_types_t region_type;
 259              		.loc 1 121 1 is_stmt 1
 260              		.cfi_startproc
 261 0000 17030000 		call	t0,__riscv_save_0
 261      E7020300 
 262              		.cfi_offset 1, -4
 263              		.cfi_def_cfa_offset 16
 122:C:/Users/stapi/OneDrive/Desktop/GD32VW553/V1_MQTT_OK/GD32VW55X_Wifi_BLE_SDK/GD32VW55x_RELEASE_V1.0.2/MSDK/cloud/alicloud/src/infra/system\guider.c **** 
 264              		.loc 1 122 5
 124:C:/Users/stapi/OneDrive/Desktop/GD32VW553/V1_MQTT_OK/GD32VW55X_Wifi_BLE_SDK/GD32VW55x_RELEASE_V1.0.2/MSDK/cloud/alicloud/src/infra/system\guider.c **** 
 265              		.loc 1 124 5
 121:C:/Users/stapi/OneDrive/Desktop/GD32VW553/V1_MQTT_OK/GD32VW55X_Wifi_BLE_SDK/GD32VW55x_RELEASE_V1.0.2/MSDK/cloud/alicloud/src/infra/system\guider.c ****     iotx_cloud_region_types_t region_type;
 266              		.loc 1 121 1 is_stmt 0
 267 0008 4111     		addi	sp,sp,-16
 268              		.cfi_def_cfa_offset 32
 124:C:/Users/stapi/OneDrive/Desktop/GD32VW553/V1_MQTT_OK/GD32VW55X_Wifi_BLE_SDK/GD32VW55x_RELEASE_V1.0.2/MSDK/cloud/alicloud/src/infra/system\guider.c **** 
 269              		.loc 1 124 5
 270 000a 6C00     		addi	a1,sp,12
 271 000c 0545     		li	a0,1
 272 000e 97000000 		call	IOT_Ioctl
 272      E7800000 
 273              	.LVL19:
 126:C:/Users/stapi/OneDrive/Desktop/GD32VW553/V1_MQTT_OK/GD32VW55X_Wifi_BLE_SDK/GD32VW55x_RELEASE_V1.0.2/MSDK/cloud/alicloud/src/infra/system\guider.c **** }
 274              		.loc 1 126 5 is_stmt 1
 127:C:/Users/stapi/OneDrive/Desktop/GD32VW553/V1_MQTT_OK/GD32VW55X_Wifi_BLE_SDK/GD32VW55x_RELEASE_V1.0.2/MSDK/cloud/alicloud/src/infra/system\guider.c **** 
 275              		.loc 1 127 1 is_stmt 0
 276 0016 3245     		lw	a0,12(sp)
 277 0018 4101     		addi	sp,sp,16
 278              		.cfi_def_cfa_offset 0
 279 001a 17030000 		tail	__riscv_restore_0
 279      67000300 
 280              		.cfi_restore 1
 281              		.cfi_def_cfa_offset -16
 282              		.cfi_endproc
 283              	.LFE21:
 285              		.section	.text.guider_set_direct_connect_count,"ax",@progbits
 286              		.align	1
 287              		.globl	guider_set_direct_connect_count
 289              	guider_set_direct_connect_count:
 290              	.LFB23:
 137:C:/Users/stapi/OneDrive/Desktop/GD32VW553/V1_MQTT_OK/GD32VW55X_Wifi_BLE_SDK/GD32VW55x_RELEASE_V1.0.2/MSDK/cloud/alicloud/src/infra/system\guider.c ****     direct_connect_count = count;
 291              		.loc 1 137 1 is_stmt 1
 292              		.cfi_startproc
 293              	.LVL20:
 138:C:/Users/stapi/OneDrive/Desktop/GD32VW553/V1_MQTT_OK/GD32VW55X_Wifi_BLE_SDK/GD32VW55x_RELEASE_V1.0.2/MSDK/cloud/alicloud/src/infra/system\guider.c **** 
 294              		.loc 1 138 5
 138:C:/Users/stapi/OneDrive/Desktop/GD32VW553/V1_MQTT_OK/GD32VW55X_Wifi_BLE_SDK/GD32VW55x_RELEASE_V1.0.2/MSDK/cloud/alicloud/src/infra/system\guider.c **** 
 295              		.loc 1 138 26 is_stmt 0
 296 0000 B7070000 		lui	a5,%hi(.LANCHOR1)
 297 0004 2380A700 		sb	a0,%lo(.LANCHOR1)(a5)
 140:C:/Users/stapi/OneDrive/Desktop/GD32VW553/V1_MQTT_OK/GD32VW55X_Wifi_BLE_SDK/GD32VW55x_RELEASE_V1.0.2/MSDK/cloud/alicloud/src/infra/system\guider.c **** }
 298              		.loc 1 140 5 is_stmt 1
 141:C:/Users/stapi/OneDrive/Desktop/GD32VW553/V1_MQTT_OK/GD32VW55X_Wifi_BLE_SDK/GD32VW55x_RELEASE_V1.0.2/MSDK/cloud/alicloud/src/infra/system\guider.c **** 
 299              		.loc 1 141 1 is_stmt 0
 300 0008 0145     		li	a0,0
 301              	.LVL21:
 302 000a 8280     		ret
 303              		.cfi_endproc
 304              	.LFE23:
 306              		.section	.rodata.iotx_guider_get_kv_env.str1.4,"aMS",@progbits,1
 307              		.align	2
 308              	.LC15:
 309 0000 5B696E66 		.string	"[inf] "
 309      5D2000
 310 0007 00       		.align	2
 311              	.LC16:
 312 0008 67756964 		.string	"guider set env:%d"
 312      65722073 
 312      65742065 
 312      6E763A25 
 312      6400
 313 001a 0000     		.align	2
 314              	.LC17:
 315 001c 0D0A00   		.string	"\r\n"
 316              		.section	.text.iotx_guider_get_kv_env,"ax",@progbits
 317              		.align	1
 318              		.globl	iotx_guider_get_kv_env
 320              	iotx_guider_get_kv_env:
 321              	.LFB24:
 144:C:/Users/stapi/OneDrive/Desktop/GD32VW553/V1_MQTT_OK/GD32VW55X_Wifi_BLE_SDK/GD32VW55x_RELEASE_V1.0.2/MSDK/cloud/alicloud/src/infra/system\guider.c ****     int ret = 0;
 322              		.loc 1 144 1 is_stmt 1
 323              		.cfi_startproc
 324 0000 17030000 		call	t0,__riscv_save_1
 324      E7020300 
 325              		.cfi_offset 8, -8
 326              		.cfi_offset 1, -4
 327              		.cfi_def_cfa_offset 16
 145:C:/Users/stapi/OneDrive/Desktop/GD32VW553/V1_MQTT_OK/GD32VW55X_Wifi_BLE_SDK/GD32VW55x_RELEASE_V1.0.2/MSDK/cloud/alicloud/src/infra/system\guider.c ****     int len = GUIDER_ENV_LEN;
 328              		.loc 1 145 5
 329              	.LVL22:
 146:C:/Users/stapi/OneDrive/Desktop/GD32VW553/V1_MQTT_OK/GD32VW55X_Wifi_BLE_SDK/GD32VW55x_RELEASE_V1.0.2/MSDK/cloud/alicloud/src/infra/system\guider.c ****     char guider_env_buff[GUIDER_ENV_LEN] = {0};
 330              		.loc 1 146 5
 147:C:/Users/stapi/OneDrive/Desktop/GD32VW553/V1_MQTT_OK/GD32VW55X_Wifi_BLE_SDK/GD32VW55x_RELEASE_V1.0.2/MSDK/cloud/alicloud/src/infra/system\guider.c **** 
 331              		.loc 1 147 5
 172:C:/Users/stapi/OneDrive/Desktop/GD32VW553/V1_MQTT_OK/GD32VW55X_Wifi_BLE_SDK/GD32VW55x_RELEASE_V1.0.2/MSDK/cloud/alicloud/src/infra/system\guider.c **** #endif
 332              		.loc 1 172 5
 172:C:/Users/stapi/OneDrive/Desktop/GD32VW553/V1_MQTT_OK/GD32VW55X_Wifi_BLE_SDK/GD32VW55x_RELEASE_V1.0.2/MSDK/cloud/alicloud/src/infra/system\guider.c **** #endif
 333              		.loc 1 172 16 is_stmt 0
 334 0008 37040000 		lui	s0,%hi(.LANCHOR2)
 176:C:/Users/stapi/OneDrive/Desktop/GD32VW553/V1_MQTT_OK/GD32VW55X_Wifi_BLE_SDK/GD32VW55x_RELEASE_V1.0.2/MSDK/cloud/alicloud/src/infra/system\guider.c **** 
 335              		.loc 1 176 5
 336 000c 37050000 		lui	a0,%hi(.LC15)
 172:C:/Users/stapi/OneDrive/Desktop/GD32VW553/V1_MQTT_OK/GD32VW55X_Wifi_BLE_SDK/GD32VW55x_RELEASE_V1.0.2/MSDK/cloud/alicloud/src/infra/system\guider.c **** #endif
 337              		.loc 1 172 16
 338 0010 8D47     		li	a5,3
 339 0012 13040400 		addi	s0,s0,%lo(.LANCHOR2)
 176:C:/Users/stapi/OneDrive/Desktop/GD32VW553/V1_MQTT_OK/GD32VW55X_Wifi_BLE_SDK/GD32VW55x_RELEASE_V1.0.2/MSDK/cloud/alicloud/src/infra/system\guider.c **** 
 340              		.loc 1 176 5
 341 0016 13050500 		addi	a0,a0,%lo(.LC15)
 172:C:/Users/stapi/OneDrive/Desktop/GD32VW553/V1_MQTT_OK/GD32VW55X_Wifi_BLE_SDK/GD32VW55x_RELEASE_V1.0.2/MSDK/cloud/alicloud/src/infra/system\guider.c **** #endif
 342              		.loc 1 172 16
 343 001a 1CC0     		sw	a5,0(s0)
 176:C:/Users/stapi/OneDrive/Desktop/GD32VW553/V1_MQTT_OK/GD32VW55X_Wifi_BLE_SDK/GD32VW55x_RELEASE_V1.0.2/MSDK/cloud/alicloud/src/infra/system\guider.c **** 
 344              		.loc 1 176 5 is_stmt 1
 176:C:/Users/stapi/OneDrive/Desktop/GD32VW553/V1_MQTT_OK/GD32VW55X_Wifi_BLE_SDK/GD32VW55x_RELEASE_V1.0.2/MSDK/cloud/alicloud/src/infra/system\guider.c **** 
 345              		.loc 1 176 5
 346 001c 97000000 		call	HAL_Printf
 346      E7800000 
 347              	.LVL23:
 176:C:/Users/stapi/OneDrive/Desktop/GD32VW553/V1_MQTT_OK/GD32VW55X_Wifi_BLE_SDK/GD32VW55x_RELEASE_V1.0.2/MSDK/cloud/alicloud/src/infra/system\guider.c **** 
 348              		.loc 1 176 5
 349 0024 0C40     		lw	a1,0(s0)
 350 0026 37050000 		lui	a0,%hi(.LC16)
 351 002a 13050500 		addi	a0,a0,%lo(.LC16)
 352 002e 97000000 		call	HAL_Printf
 352      E7800000 
 353              	.LVL24:
 176:C:/Users/stapi/OneDrive/Desktop/GD32VW553/V1_MQTT_OK/GD32VW55X_Wifi_BLE_SDK/GD32VW55x_RELEASE_V1.0.2/MSDK/cloud/alicloud/src/infra/system\guider.c **** 
 354              		.loc 1 176 5
 355 0036 37050000 		lui	a0,%hi(.LC17)
 356 003a 13050500 		addi	a0,a0,%lo(.LC17)
 357 003e 97000000 		call	HAL_Printf
 357      E7800000 
 358              	.LVL25:
 176:C:/Users/stapi/OneDrive/Desktop/GD32VW553/V1_MQTT_OK/GD32VW55X_Wifi_BLE_SDK/GD32VW55x_RELEASE_V1.0.2/MSDK/cloud/alicloud/src/infra/system\guider.c **** 
 359              		.loc 1 176 5
 178:C:/Users/stapi/OneDrive/Desktop/GD32VW553/V1_MQTT_OK/GD32VW55X_Wifi_BLE_SDK/GD32VW55x_RELEASE_V1.0.2/MSDK/cloud/alicloud/src/infra/system\guider.c **** }
 360              		.loc 1 178 5
 179:C:/Users/stapi/OneDrive/Desktop/GD32VW553/V1_MQTT_OK/GD32VW55X_Wifi_BLE_SDK/GD32VW55x_RELEASE_V1.0.2/MSDK/cloud/alicloud/src/infra/system\guider.c **** 
 361              		.loc 1 179 1 is_stmt 0
 362 0046 0145     		li	a0,0
 363 0048 17030000 		tail	__riscv_restore_1
 363      67000300 
 364              		.cfi_restore 8
 365              		.cfi_restore 1
 366              		.cfi_def_cfa_offset 0
 367              		.cfi_endproc
 368              	.LFE24:
 370              		.section	.text.iotx_guider_get_env,"ax",@progbits
 371              		.align	1
 372              		.globl	iotx_guider_get_env
 374              	iotx_guider_get_env:
 375              	.LFB25:
 182:C:/Users/stapi/OneDrive/Desktop/GD32VW553/V1_MQTT_OK/GD32VW55X_Wifi_BLE_SDK/GD32VW55x_RELEASE_V1.0.2/MSDK/cloud/alicloud/src/infra/system\guider.c ****     return guider_env;
 376              		.loc 1 182 1 is_stmt 1
 377              		.cfi_startproc
 183:C:/Users/stapi/OneDrive/Desktop/GD32VW553/V1_MQTT_OK/GD32VW55X_Wifi_BLE_SDK/GD32VW55x_RELEASE_V1.0.2/MSDK/cloud/alicloud/src/infra/system\guider.c **** }
 378              		.loc 1 183 5
 184:C:/Users/stapi/OneDrive/Desktop/GD32VW553/V1_MQTT_OK/GD32VW55X_Wifi_BLE_SDK/GD32VW55x_RELEASE_V1.0.2/MSDK/cloud/alicloud/src/infra/system\guider.c **** 
 379              		.loc 1 184 1 is_stmt 0
 380 0000 B7070000 		lui	a5,%hi(.LANCHOR2)
 381 0004 03A50700 		lw	a0,%lo(.LANCHOR2)(a5)
 382 0008 8280     		ret
 383              		.cfi_endproc
 384              	.LFE25:
 386              		.section	.rodata.iotx_guider_set_dynamic_mqtt_url.str1.4,"aMS",@progbits,1
 387              		.align	2
 388              	.LC18:
 389 0000 5B657272 		.string	"[err] "
 389      5D2000
 390 0007 00       		.align	2
 391              	.LC19:
 392 0008 6C656E20 		.string	"len is err"
 392      69732065 
 392      727200
 393 0013 00       		.align	2
 394              	.LC20:
 395 0014 6D717474 		.string	"mqtt_url"
 395      5F75726C 
 395      00
 396 001d 000000   		.align	2
 397              	.LC21:
 398 0020 73657420 		.string	"set dyna mqtt:%s,ret=%d, len=%d\r\n"
 398      64796E61 
 398      206D7174 
 398      743A2573 
 398      2C726574 
 399 0042 0000     		.align	2
 400              	.LC22:
 401 0044 73797300 		.string	"sys"
 402              		.section	.text.iotx_guider_set_dynamic_mqtt_url,"ax",@progbits
 403              		.align	1
 404              		.globl	iotx_guider_set_dynamic_mqtt_url
 406              	iotx_guider_set_dynamic_mqtt_url:
 407              	.LFB26:
 187:C:/Users/stapi/OneDrive/Desktop/GD32VW553/V1_MQTT_OK/GD32VW55X_Wifi_BLE_SDK/GD32VW55x_RELEASE_V1.0.2/MSDK/cloud/alicloud/src/infra/system\guider.c ****     int len = 0;
 408              		.loc 1 187 1 is_stmt 1
 409              		.cfi_startproc
 410              	.LVL26:
 411 0000 17030000 		call	t0,__riscv_save_2
 411      E7020300 
 412              		.cfi_offset 9, -12
 413              		.cfi_offset 8, -8
 414              		.cfi_offset 1, -4
 415              		.cfi_def_cfa_offset 16
 188:C:/Users/stapi/OneDrive/Desktop/GD32VW553/V1_MQTT_OK/GD32VW55X_Wifi_BLE_SDK/GD32VW55x_RELEASE_V1.0.2/MSDK/cloud/alicloud/src/infra/system\guider.c ****     int ret = 0;
 416              		.loc 1 188 5
 417              	.LVL27:
 189:C:/Users/stapi/OneDrive/Desktop/GD32VW553/V1_MQTT_OK/GD32VW55X_Wifi_BLE_SDK/GD32VW55x_RELEASE_V1.0.2/MSDK/cloud/alicloud/src/infra/system\guider.c **** 
 418              		.loc 1 189 5
 191:C:/Users/stapi/OneDrive/Desktop/GD32VW553/V1_MQTT_OK/GD32VW55X_Wifi_BLE_SDK/GD32VW55x_RELEASE_V1.0.2/MSDK/cloud/alicloud/src/infra/system\guider.c ****         return -1;
 419              		.loc 1 191 5
 187:C:/Users/stapi/OneDrive/Desktop/GD32VW553/V1_MQTT_OK/GD32VW55X_Wifi_BLE_SDK/GD32VW55x_RELEASE_V1.0.2/MSDK/cloud/alicloud/src/infra/system\guider.c ****     int len = 0;
 420              		.loc 1 187 1 is_stmt 0
 421 0008 4111     		addi	sp,sp,-16
 422              		.cfi_def_cfa_offset 32
 191:C:/Users/stapi/OneDrive/Desktop/GD32VW553/V1_MQTT_OK/GD32VW55X_Wifi_BLE_SDK/GD32VW55x_RELEASE_V1.0.2/MSDK/cloud/alicloud/src/infra/system\guider.c ****         return -1;
 423              		.loc 1 191 8
 424 000a 21C5     		beq	a0,zero,.L26
 425 000c AA84     		mv	s1,a0
 194:C:/Users/stapi/OneDrive/Desktop/GD32VW553/V1_MQTT_OK/GD32VW55X_Wifi_BLE_SDK/GD32VW55x_RELEASE_V1.0.2/MSDK/cloud/alicloud/src/infra/system\guider.c ****     if (len > GUIDER_DYNAMIC_URL_LEN - 2)
 426              		.loc 1 194 5 is_stmt 1
 194:C:/Users/stapi/OneDrive/Desktop/GD32VW553/V1_MQTT_OK/GD32VW55X_Wifi_BLE_SDK/GD32VW55x_RELEASE_V1.0.2/MSDK/cloud/alicloud/src/infra/system\guider.c ****     if (len > GUIDER_DYNAMIC_URL_LEN - 2)
 427              		.loc 1 194 11 is_stmt 0
 428 000e 97000000 		call	strlen
 428      E7800000 
 429              	.LVL28:
 194:C:/Users/stapi/OneDrive/Desktop/GD32VW553/V1_MQTT_OK/GD32VW55X_Wifi_BLE_SDK/GD32VW55x_RELEASE_V1.0.2/MSDK/cloud/alicloud/src/infra/system\guider.c ****     if (len > GUIDER_DYNAMIC_URL_LEN - 2)
 430              		.loc 1 194 30
 431 0016 93081500 		addi	a7,a0,1
 432              	.LVL29:
 195:C:/Users/stapi/OneDrive/Desktop/GD32VW553/V1_MQTT_OK/GD32VW55X_Wifi_BLE_SDK/GD32VW55x_RELEASE_V1.0.2/MSDK/cloud/alicloud/src/infra/system\guider.c ****     {
 433              		.loc 1 195 5 is_stmt 1
 195:C:/Users/stapi/OneDrive/Desktop/GD32VW553/V1_MQTT_OK/GD32VW55X_Wifi_BLE_SDK/GD32VW55x_RELEASE_V1.0.2/MSDK/cloud/alicloud/src/infra/system\guider.c ****     {
 434              		.loc 1 195 8 is_stmt 0
 435 001a 9307E00F 		li	a5,254
 436 001e 63FC1703 		bleu	a7,a5,.L25
 197:C:/Users/stapi/OneDrive/Desktop/GD32VW553/V1_MQTT_OK/GD32VW55X_Wifi_BLE_SDK/GD32VW55x_RELEASE_V1.0.2/MSDK/cloud/alicloud/src/infra/system\guider.c ****         return -1;
 437              		.loc 1 197 9 is_stmt 1
 197:C:/Users/stapi/OneDrive/Desktop/GD32VW553/V1_MQTT_OK/GD32VW55X_Wifi_BLE_SDK/GD32VW55x_RELEASE_V1.0.2/MSDK/cloud/alicloud/src/infra/system\guider.c ****         return -1;
 438              		.loc 1 197 9
 439 0022 37050000 		lui	a0,%hi(.LC18)
 440 0026 13050500 		addi	a0,a0,%lo(.LC18)
 441 002a 97000000 		call	HAL_Printf
 441      E7800000 
 442              	.LVL30:
 197:C:/Users/stapi/OneDrive/Desktop/GD32VW553/V1_MQTT_OK/GD32VW55X_Wifi_BLE_SDK/GD32VW55x_RELEASE_V1.0.2/MSDK/cloud/alicloud/src/infra/system\guider.c ****         return -1;
 443              		.loc 1 197 9
 444 0032 37050000 		lui	a0,%hi(.LC19)
 445 0036 13050500 		addi	a0,a0,%lo(.LC19)
 446 003a 97000000 		call	HAL_Printf
 446      E7800000 
 447              	.LVL31:
 197:C:/Users/stapi/OneDrive/Desktop/GD32VW553/V1_MQTT_OK/GD32VW55X_Wifi_BLE_SDK/GD32VW55x_RELEASE_V1.0.2/MSDK/cloud/alicloud/src/infra/system\guider.c ****         return -1;
 448              		.loc 1 197 9
 449 0042 37050000 		lui	a0,%hi(.LC17)
 450 0046 13050500 		addi	a0,a0,%lo(.LC17)
 451 004a 97000000 		call	HAL_Printf
 451      E7800000 
 452              	.LVL32:
 197:C:/Users/stapi/OneDrive/Desktop/GD32VW553/V1_MQTT_OK/GD32VW55X_Wifi_BLE_SDK/GD32VW55x_RELEASE_V1.0.2/MSDK/cloud/alicloud/src/infra/system\guider.c ****         return -1;
 453              		.loc 1 197 9
 198:C:/Users/stapi/OneDrive/Desktop/GD32VW553/V1_MQTT_OK/GD32VW55X_Wifi_BLE_SDK/GD32VW55x_RELEASE_V1.0.2/MSDK/cloud/alicloud/src/infra/system\guider.c ****     }
 454              		.loc 1 198 9
 455              	.L26:
 192:C:/Users/stapi/OneDrive/Desktop/GD32VW553/V1_MQTT_OK/GD32VW55X_Wifi_BLE_SDK/GD32VW55x_RELEASE_V1.0.2/MSDK/cloud/alicloud/src/infra/system\guider.c **** 
 456              		.loc 1 192 16 is_stmt 0
 457 0052 7D54     		li	s0,-1
 458 0054 91A8     		j	.L23
 459              	.LVL33:
 460              	.L25:
 201:C:/Users/stapi/OneDrive/Desktop/GD32VW553/V1_MQTT_OK/GD32VW55X_Wifi_BLE_SDK/GD32VW55x_RELEASE_V1.0.2/MSDK/cloud/alicloud/src/infra/system\guider.c ****     sys_debug("set dyna mqtt:%s,ret=%d, len=%d\r\n", p_mqtt_url, ret, len);
 461              		.loc 1 201 5 is_stmt 1
 201:C:/Users/stapi/OneDrive/Desktop/GD32VW553/V1_MQTT_OK/GD32VW55X_Wifi_BLE_SDK/GD32VW55x_RELEASE_V1.0.2/MSDK/cloud/alicloud/src/infra/system\guider.c ****     sys_debug("set dyna mqtt:%s,ret=%d, len=%d\r\n", p_mqtt_url, ret, len);
 462              		.loc 1 201 11 is_stmt 0
 463 0056 37050000 		lui	a0,%hi(.LC20)
 464 005a 4686     		mv	a2,a7
 465 005c 8546     		li	a3,1
 466 005e A685     		mv	a1,s1
 467 0060 13050500 		addi	a0,a0,%lo(.LC20)
 468 0064 46C6     		sw	a7,12(sp)
 469 0066 97000000 		call	aos_kv_set
 469      E7800000 
 470              	.LVL34:
 202:C:/Users/stapi/OneDrive/Desktop/GD32VW553/V1_MQTT_OK/GD32VW55X_Wifi_BLE_SDK/GD32VW55x_RELEASE_V1.0.2/MSDK/cloud/alicloud/src/infra/system\guider.c **** 
 471              		.loc 1 202 5
 472 006e B248     		lw	a7,12(sp)
 201:C:/Users/stapi/OneDrive/Desktop/GD32VW553/V1_MQTT_OK/GD32VW55X_Wifi_BLE_SDK/GD32VW55x_RELEASE_V1.0.2/MSDK/cloud/alicloud/src/infra/system\guider.c ****     sys_debug("set dyna mqtt:%s,ret=%d, len=%d\r\n", p_mqtt_url, ret, len);
 473              		.loc 1 201 11
 474 0070 2A84     		mv	s0,a0
 475              	.LVL35:
 202:C:/Users/stapi/OneDrive/Desktop/GD32VW553/V1_MQTT_OK/GD32VW55X_Wifi_BLE_SDK/GD32VW55x_RELEASE_V1.0.2/MSDK/cloud/alicloud/src/infra/system\guider.c **** 
 476              		.loc 1 202 5 is_stmt 1
 477 0072 2A88     		mv	a6,a0
 478 0074 37070000 		lui	a4,%hi(.LC21)
 479 0078 B7050000 		lui	a1,%hi(.LANCHOR3)
 480 007c 37050000 		lui	a0,%hi(.LC22)
 481 0080 A687     		mv	a5,s1
 482 0082 13070700 		addi	a4,a4,%lo(.LC21)
 483 0086 9546     		li	a3,5
 484 0088 1306A00C 		li	a2,202
 485 008c 93850500 		addi	a1,a1,%lo(.LANCHOR3)
 486 0090 13050500 		addi	a0,a0,%lo(.LC22)
 487 0094 97000000 		call	LITE_syslog
 487      E7800000 
 488              	.LVL36:
 204:C:/Users/stapi/OneDrive/Desktop/GD32VW553/V1_MQTT_OK/GD32VW55X_Wifi_BLE_SDK/GD32VW55x_RELEASE_V1.0.2/MSDK/cloud/alicloud/src/infra/system\guider.c ****     {
 489              		.loc 1 204 5
 204:C:/Users/stapi/OneDrive/Desktop/GD32VW553/V1_MQTT_OK/GD32VW55X_Wifi_BLE_SDK/GD32VW55x_RELEASE_V1.0.2/MSDK/cloud/alicloud/src/infra/system\guider.c ****     {
 490              		.loc 1 204 8 is_stmt 0
 491 009c 11E4     		bne	s0,zero,.L23
 206:C:/Users/stapi/OneDrive/Desktop/GD32VW553/V1_MQTT_OK/GD32VW55X_Wifi_BLE_SDK/GD32VW55x_RELEASE_V1.0.2/MSDK/cloud/alicloud/src/infra/system\guider.c ****     }
 492              		.loc 1 206 9 is_stmt 1
 206:C:/Users/stapi/OneDrive/Desktop/GD32VW553/V1_MQTT_OK/GD32VW55X_Wifi_BLE_SDK/GD32VW55x_RELEASE_V1.0.2/MSDK/cloud/alicloud/src/infra/system\guider.c ****     }
 493              		.loc 1 206 31 is_stmt 0
 494 009e B7070000 		lui	a5,%hi(.LANCHOR4)
 495 00a2 0547     		li	a4,1
 496 00a4 23A0E700 		sw	a4,%lo(.LANCHOR4)(a5)
 497              	.LVL37:
 498              	.L23:
 210:C:/Users/stapi/OneDrive/Desktop/GD32VW553/V1_MQTT_OK/GD32VW55X_Wifi_BLE_SDK/GD32VW55x_RELEASE_V1.0.2/MSDK/cloud/alicloud/src/infra/system\guider.c **** 
 499              		.loc 1 210 1
 500 00a8 2285     		mv	a0,s0
 501 00aa 4101     		addi	sp,sp,16
 502              		.cfi_def_cfa_offset 0
 503 00ac 17030000 		tail	__riscv_restore_2
 503      67000300 
 504              		.cfi_restore 9
 505              		.cfi_restore 8
 506              		.cfi_restore 1
 507              		.cfi_def_cfa_offset -16
 508              		.cfi_endproc
 509              	.LFE26:
 511              		.section	.rodata.iotx_guider_get_region_id.str1.4,"aMS",@progbits,1
 512              		.align	2
 513              	.LC23:
 514 0000 72656769 		.string	"regionid"
 514      6F6E6964 
 514      00
 515 0009 000000   		.align	2
 516              	.LC24:
 517 000c 5B77726E 		.string	"[wrn] "
 517      5D2000
 518 0013 00       		.align	2
 519              	.LC25:
 520 0014 6B762067 		.string	"kv get region id fail"
 520      65742072 
 520      6567696F 
 520      6E206964 
 520      20666169 
 521 002a 0000     		.align	2
 522              	.LC26:
 523 002c 696E7661 		.string	"invalid regionid:%d"
 523      6C696420 
 523      72656769 
 523      6F6E6964 
 523      3A256400 
 524              		.align	2
 525              	.LC27:
 526 0040 72656769 		.string	"region id(%d)"
 526      6F6E2069 
 526      64282564 
 526      2900
 527              		.section	.text.iotx_guider_get_region_id,"ax",@progbits
 528              		.align	1
 529              		.globl	iotx_guider_get_region_id
 531              	iotx_guider_get_region_id:
 532              	.LFB29:
 267:C:/Users/stapi/OneDrive/Desktop/GD32VW553/V1_MQTT_OK/GD32VW55X_Wifi_BLE_SDK/GD32VW55x_RELEASE_V1.0.2/MSDK/cloud/alicloud/src/infra/system\guider.c ****     int region_id = -1;
 533              		.loc 1 267 1 is_stmt 1
 534              		.cfi_startproc
 535 0000 17030000 		call	t0,__riscv_save_2
 535      E7020300 
 536              		.cfi_offset 9, -12
 537              		.cfi_offset 8, -8
 538              		.cfi_offset 1, -4
 539              		.cfi_def_cfa_offset 16
 268:C:/Users/stapi/OneDrive/Desktop/GD32VW553/V1_MQTT_OK/GD32VW55X_Wifi_BLE_SDK/GD32VW55x_RELEASE_V1.0.2/MSDK/cloud/alicloud/src/infra/system\guider.c ****     int len = KV_REGION_ID_VALUE_LEN;
 540              		.loc 1 268 5
 541              	.LVL38:
 269:C:/Users/stapi/OneDrive/Desktop/GD32VW553/V1_MQTT_OK/GD32VW55X_Wifi_BLE_SDK/GD32VW55x_RELEASE_V1.0.2/MSDK/cloud/alicloud/src/infra/system\guider.c ****     char region_id_str[KV_REGION_ID_VALUE_LEN] = {0};
 542              		.loc 1 269 5
 267:C:/Users/stapi/OneDrive/Desktop/GD32VW553/V1_MQTT_OK/GD32VW55X_Wifi_BLE_SDK/GD32VW55x_RELEASE_V1.0.2/MSDK/cloud/alicloud/src/infra/system\guider.c ****     int region_id = -1;
 543              		.loc 1 267 1 is_stmt 0
 544 0008 4111     		addi	sp,sp,-16
 545              		.cfi_def_cfa_offset 32
 272:C:/Users/stapi/OneDrive/Desktop/GD32VW553/V1_MQTT_OK/GD32VW55X_Wifi_BLE_SDK/GD32VW55x_RELEASE_V1.0.2/MSDK/cloud/alicloud/src/infra/system\guider.c ****     {
 546              		.loc 1 272 14
 547 000a 37050000 		lui	a0,%hi(.LC23)
 269:C:/Users/stapi/OneDrive/Desktop/GD32VW553/V1_MQTT_OK/GD32VW55X_Wifi_BLE_SDK/GD32VW55x_RELEASE_V1.0.2/MSDK/cloud/alicloud/src/infra/system\guider.c ****     char region_id_str[KV_REGION_ID_VALUE_LEN] = {0};
 548              		.loc 1 269 9
 549 000e 9947     		li	a5,6
 272:C:/Users/stapi/OneDrive/Desktop/GD32VW553/V1_MQTT_OK/GD32VW55X_Wifi_BLE_SDK/GD32VW55x_RELEASE_V1.0.2/MSDK/cloud/alicloud/src/infra/system\guider.c ****     {
 550              		.loc 1 272 14
 551 0010 5000     		addi	a2,sp,4
 552 0012 2C00     		addi	a1,sp,8
 553 0014 13050500 		addi	a0,a0,%lo(.LC23)
 269:C:/Users/stapi/OneDrive/Desktop/GD32VW553/V1_MQTT_OK/GD32VW55X_Wifi_BLE_SDK/GD32VW55x_RELEASE_V1.0.2/MSDK/cloud/alicloud/src/infra/system\guider.c ****     char region_id_str[KV_REGION_ID_VALUE_LEN] = {0};
 554              		.loc 1 269 9
 555 0018 3EC2     		sw	a5,4(sp)
 270:C:/Users/stapi/OneDrive/Desktop/GD32VW553/V1_MQTT_OK/GD32VW55X_Wifi_BLE_SDK/GD32VW55x_RELEASE_V1.0.2/MSDK/cloud/alicloud/src/infra/system\guider.c **** 
 556              		.loc 1 270 5 is_stmt 1
 270:C:/Users/stapi/OneDrive/Desktop/GD32VW553/V1_MQTT_OK/GD32VW55X_Wifi_BLE_SDK/GD32VW55x_RELEASE_V1.0.2/MSDK/cloud/alicloud/src/infra/system\guider.c **** 
 557              		.loc 1 270 10 is_stmt 0
 558 001a 02C4     		sw	zero,8(sp)
 559 001c 23160100 		sh	zero,12(sp)
 272:C:/Users/stapi/OneDrive/Desktop/GD32VW553/V1_MQTT_OK/GD32VW55X_Wifi_BLE_SDK/GD32VW55x_RELEASE_V1.0.2/MSDK/cloud/alicloud/src/infra/system\guider.c ****     {
 560              		.loc 1 272 5 is_stmt 1
 272:C:/Users/stapi/OneDrive/Desktop/GD32VW553/V1_MQTT_OK/GD32VW55X_Wifi_BLE_SDK/GD32VW55x_RELEASE_V1.0.2/MSDK/cloud/alicloud/src/infra/system\guider.c ****     {
 561              		.loc 1 272 14 is_stmt 0
 562 0020 97000000 		call	aos_kv_get
 562      E7800000 
 563              	.LVL39:
 564 0028 B7040000 		lui	s1,%hi(.LC17)
 272:C:/Users/stapi/OneDrive/Desktop/GD32VW553/V1_MQTT_OK/GD32VW55X_Wifi_BLE_SDK/GD32VW55x_RELEASE_V1.0.2/MSDK/cloud/alicloud/src/infra/system\guider.c ****     {
 565              		.loc 1 272 8
 566 002c 15CD     		beq	a0,zero,.L29
 274:C:/Users/stapi/OneDrive/Desktop/GD32VW553/V1_MQTT_OK/GD32VW55X_Wifi_BLE_SDK/GD32VW55x_RELEASE_V1.0.2/MSDK/cloud/alicloud/src/infra/system\guider.c ****         return -1;
 567              		.loc 1 274 9 is_stmt 1
 274:C:/Users/stapi/OneDrive/Desktop/GD32VW553/V1_MQTT_OK/GD32VW55X_Wifi_BLE_SDK/GD32VW55x_RELEASE_V1.0.2/MSDK/cloud/alicloud/src/infra/system\guider.c ****         return -1;
 568              		.loc 1 274 9
 569 002e 37050000 		lui	a0,%hi(.LC24)
 570 0032 13050500 		addi	a0,a0,%lo(.LC24)
 571 0036 97000000 		call	HAL_Printf
 571      E7800000 
 572              	.LVL40:
 274:C:/Users/stapi/OneDrive/Desktop/GD32VW553/V1_MQTT_OK/GD32VW55X_Wifi_BLE_SDK/GD32VW55x_RELEASE_V1.0.2/MSDK/cloud/alicloud/src/infra/system\guider.c ****         return -1;
 573              		.loc 1 274 9
 574 003e 37050000 		lui	a0,%hi(.LC25)
 575 0042 13050500 		addi	a0,a0,%lo(.LC25)
 576 0046 97000000 		call	HAL_Printf
 576      E7800000 
 577              	.LVL41:
 274:C:/Users/stapi/OneDrive/Desktop/GD32VW553/V1_MQTT_OK/GD32VW55X_Wifi_BLE_SDK/GD32VW55x_RELEASE_V1.0.2/MSDK/cloud/alicloud/src/infra/system\guider.c ****         return -1;
 578              		.loc 1 274 9
 579              	.L33:
 281:C:/Users/stapi/OneDrive/Desktop/GD32VW553/V1_MQTT_OK/GD32VW55X_Wifi_BLE_SDK/GD32VW55x_RELEASE_V1.0.2/MSDK/cloud/alicloud/src/infra/system\guider.c ****         return -1;
 580              		.loc 1 281 9
 581 004e 13850400 		addi	a0,s1,%lo(.LC17)
 582 0052 97000000 		call	HAL_Printf
 582      E7800000 
 583              	.LVL42:
 281:C:/Users/stapi/OneDrive/Desktop/GD32VW553/V1_MQTT_OK/GD32VW55X_Wifi_BLE_SDK/GD32VW55x_RELEASE_V1.0.2/MSDK/cloud/alicloud/src/infra/system\guider.c ****         return -1;
 584              		.loc 1 281 9
 282:C:/Users/stapi/OneDrive/Desktop/GD32VW553/V1_MQTT_OK/GD32VW55X_Wifi_BLE_SDK/GD32VW55x_RELEASE_V1.0.2/MSDK/cloud/alicloud/src/infra/system\guider.c ****     }
 585              		.loc 1 282 9
 282:C:/Users/stapi/OneDrive/Desktop/GD32VW553/V1_MQTT_OK/GD32VW55X_Wifi_BLE_SDK/GD32VW55x_RELEASE_V1.0.2/MSDK/cloud/alicloud/src/infra/system\guider.c ****     }
 586              		.loc 1 282 16 is_stmt 0
 587 005a 7D54     		li	s0,-1
 588              	.L28:
 288:C:/Users/stapi/OneDrive/Desktop/GD32VW553/V1_MQTT_OK/GD32VW55X_Wifi_BLE_SDK/GD32VW55x_RELEASE_V1.0.2/MSDK/cloud/alicloud/src/infra/system\guider.c **** 
 589              		.loc 1 288 1
 590 005c 2285     		mv	a0,s0
 591 005e 4101     		addi	sp,sp,16
 592              		.cfi_remember_state
 593              		.cfi_def_cfa_offset 0
 594 0060 17030000 		tail	__riscv_restore_2
 594      67000300 
 595              		.cfi_restore 9
 596              		.cfi_restore 8
 597              		.cfi_restore 1
 598              		.cfi_def_cfa_offset -16
 599              	.LVL43:
 600              	.L29:
 601              		.cfi_restore_state
 278:C:/Users/stapi/OneDrive/Desktop/GD32VW553/V1_MQTT_OK/GD32VW55X_Wifi_BLE_SDK/GD32VW55x_RELEASE_V1.0.2/MSDK/cloud/alicloud/src/infra/system\guider.c ****     if (region_id < 0 || region_id > IOTX_CLOUD_REGION_MAX)
 602              		.loc 1 278 5 is_stmt 1
 278:C:/Users/stapi/OneDrive/Desktop/GD32VW553/V1_MQTT_OK/GD32VW55X_Wifi_BLE_SDK/GD32VW55x_RELEASE_V1.0.2/MSDK/cloud/alicloud/src/infra/system\guider.c ****     if (region_id < 0 || region_id > IOTX_CLOUD_REGION_MAX)
 603              		.loc 1 278 17 is_stmt 0
 604 0068 2800     		addi	a0,sp,8
 605 006a 97000000 		call	atoi
 605      E7800000 
 606              	.LVL44:
 279:C:/Users/stapi/OneDrive/Desktop/GD32VW553/V1_MQTT_OK/GD32VW55X_Wifi_BLE_SDK/GD32VW55x_RELEASE_V1.0.2/MSDK/cloud/alicloud/src/infra/system\guider.c ****     {
 607              		.loc 1 279 8
 608 0072 9567     		li	a5,20480
 609 0074 9387F7E1 		addi	a5,a5,-481
 278:C:/Users/stapi/OneDrive/Desktop/GD32VW553/V1_MQTT_OK/GD32VW55X_Wifi_BLE_SDK/GD32VW55x_RELEASE_V1.0.2/MSDK/cloud/alicloud/src/infra/system\guider.c ****     if (region_id < 0 || region_id > IOTX_CLOUD_REGION_MAX)
 610              		.loc 1 278 17
 611 0078 2A84     		mv	s0,a0
 612              	.LVL45:
 279:C:/Users/stapi/OneDrive/Desktop/GD32VW553/V1_MQTT_OK/GD32VW55X_Wifi_BLE_SDK/GD32VW55x_RELEASE_V1.0.2/MSDK/cloud/alicloud/src/infra/system\guider.c ****     {
 613              		.loc 1 279 5 is_stmt 1
 279:C:/Users/stapi/OneDrive/Desktop/GD32VW553/V1_MQTT_OK/GD32VW55X_Wifi_BLE_SDK/GD32VW55x_RELEASE_V1.0.2/MSDK/cloud/alicloud/src/infra/system\guider.c ****     {
 614              		.loc 1 279 8 is_stmt 0
 615 007a 63F4A702 		bleu	a0,a5,.L31
 281:C:/Users/stapi/OneDrive/Desktop/GD32VW553/V1_MQTT_OK/GD32VW55X_Wifi_BLE_SDK/GD32VW55x_RELEASE_V1.0.2/MSDK/cloud/alicloud/src/infra/system\guider.c ****         return -1;
 616              		.loc 1 281 9 is_stmt 1
 281:C:/Users/stapi/OneDrive/Desktop/GD32VW553/V1_MQTT_OK/GD32VW55X_Wifi_BLE_SDK/GD32VW55x_RELEASE_V1.0.2/MSDK/cloud/alicloud/src/infra/system\guider.c ****         return -1;
 617              		.loc 1 281 9
 618 007e 37050000 		lui	a0,%hi(.LC24)
 619 0082 13050500 		addi	a0,a0,%lo(.LC24)
 620 0086 97000000 		call	HAL_Printf
 620      E7800000 
 621              	.LVL46:
 281:C:/Users/stapi/OneDrive/Desktop/GD32VW553/V1_MQTT_OK/GD32VW55X_Wifi_BLE_SDK/GD32VW55x_RELEASE_V1.0.2/MSDK/cloud/alicloud/src/infra/system\guider.c ****         return -1;
 622              		.loc 1 281 9
 623 008e 37050000 		lui	a0,%hi(.LC26)
 624 0092 A285     		mv	a1,s0
 625 0094 13050500 		addi	a0,a0,%lo(.LC26)
 626 0098 97000000 		call	HAL_Printf
 626      E7800000 
 627              	.LVL47:
 628 00a0 7DB7     		j	.L33
 629              	.L31:
 285:C:/Users/stapi/OneDrive/Desktop/GD32VW553/V1_MQTT_OK/GD32VW55X_Wifi_BLE_SDK/GD32VW55x_RELEASE_V1.0.2/MSDK/cloud/alicloud/src/infra/system\guider.c **** 
 630              		.loc 1 285 5
 285:C:/Users/stapi/OneDrive/Desktop/GD32VW553/V1_MQTT_OK/GD32VW55X_Wifi_BLE_SDK/GD32VW55x_RELEASE_V1.0.2/MSDK/cloud/alicloud/src/infra/system\guider.c **** 
 631              		.loc 1 285 5
 632 00a2 37050000 		lui	a0,%hi(.LC15)
 633 00a6 13050500 		addi	a0,a0,%lo(.LC15)
 634 00aa 97000000 		call	HAL_Printf
 634      E7800000 
 635              	.LVL48:
 285:C:/Users/stapi/OneDrive/Desktop/GD32VW553/V1_MQTT_OK/GD32VW55X_Wifi_BLE_SDK/GD32VW55x_RELEASE_V1.0.2/MSDK/cloud/alicloud/src/infra/system\guider.c **** 
 636              		.loc 1 285 5
 637 00b2 37050000 		lui	a0,%hi(.LC27)
 638 00b6 A285     		mv	a1,s0
 639 00b8 13050500 		addi	a0,a0,%lo(.LC27)
 640 00bc 97000000 		call	HAL_Printf
 640      E7800000 
 641              	.LVL49:
 285:C:/Users/stapi/OneDrive/Desktop/GD32VW553/V1_MQTT_OK/GD32VW55X_Wifi_BLE_SDK/GD32VW55x_RELEASE_V1.0.2/MSDK/cloud/alicloud/src/infra/system\guider.c **** 
 642              		.loc 1 285 5
 643 00c4 13850400 		addi	a0,s1,%lo(.LC17)
 644 00c8 97000000 		call	HAL_Printf
 644      E7800000 
 645              	.LVL50:
 285:C:/Users/stapi/OneDrive/Desktop/GD32VW553/V1_MQTT_OK/GD32VW55X_Wifi_BLE_SDK/GD32VW55x_RELEASE_V1.0.2/MSDK/cloud/alicloud/src/infra/system\guider.c **** 
 646              		.loc 1 285 5
 287:C:/Users/stapi/OneDrive/Desktop/GD32VW553/V1_MQTT_OK/GD32VW55X_Wifi_BLE_SDK/GD32VW55x_RELEASE_V1.0.2/MSDK/cloud/alicloud/src/infra/system\guider.c **** }
 647              		.loc 1 287 5
 287:C:/Users/stapi/OneDrive/Desktop/GD32VW553/V1_MQTT_OK/GD32VW55X_Wifi_BLE_SDK/GD32VW55x_RELEASE_V1.0.2/MSDK/cloud/alicloud/src/infra/system\guider.c **** }
 648              		.loc 1 287 12 is_stmt 0
 649 00d0 71B7     		j	.L28
 650              		.cfi_endproc
 651              	.LFE29:
 653              		.section	.rodata.iotx_guider_clear_dynamic_url.str1.4,"aMS",@progbits,1
 654              		.align	2
 655              	.LC28:
 656 0000 72657365 		.string	"reset dyna url and regionid:%d"
 656      74206479 
 656      6E612075 
 656      726C2061 
 656      6E642072 
 657              		.section	.text.iotx_guider_clear_dynamic_url,"ax",@progbits
 658              		.align	1
 659              		.globl	iotx_guider_clear_dynamic_url
 661              	iotx_guider_clear_dynamic_url:
 662              	.LFB31:
 355:C:/Users/stapi/OneDrive/Desktop/GD32VW553/V1_MQTT_OK/GD32VW55X_Wifi_BLE_SDK/GD32VW55x_RELEASE_V1.0.2/MSDK/cloud/alicloud/src/infra/system\guider.c ****     int ret = 0;
 663              		.loc 1 355 1 is_stmt 1
 664              		.cfi_startproc
 665 0000 17030000 		call	t0,__riscv_save_1
 665      E7020300 
 666              		.cfi_offset 8, -8
 667              		.cfi_offset 1, -4
 668              		.cfi_def_cfa_offset 16
 356:C:/Users/stapi/OneDrive/Desktop/GD32VW553/V1_MQTT_OK/GD32VW55X_Wifi_BLE_SDK/GD32VW55x_RELEASE_V1.0.2/MSDK/cloud/alicloud/src/infra/system\guider.c **** 
 669              		.loc 1 356 5
 670              	.LVL51:
 358:C:/Users/stapi/OneDrive/Desktop/GD32VW553/V1_MQTT_OK/GD32VW55X_Wifi_BLE_SDK/GD32VW55x_RELEASE_V1.0.2/MSDK/cloud/alicloud/src/infra/system\guider.c ****     ret |= HAL_Kv_Del(KV_REGION_ID_KEY);
 671              		.loc 1 358 5
 358:C:/Users/stapi/OneDrive/Desktop/GD32VW553/V1_MQTT_OK/GD32VW55X_Wifi_BLE_SDK/GD32VW55x_RELEASE_V1.0.2/MSDK/cloud/alicloud/src/infra/system\guider.c ****     ret |= HAL_Kv_Del(KV_REGION_ID_KEY);
 672              		.loc 1 358 11 is_stmt 0
 673 0008 37050000 		lui	a0,%hi(.LC20)
 674 000c 13050500 		addi	a0,a0,%lo(.LC20)
 675 0010 97000000 		call	aos_kv_del
 675      E7800000 
 676              	.LVL52:
 677 0018 2A84     		mv	s0,a0
 678              	.LVL53:
 359:C:/Users/stapi/OneDrive/Desktop/GD32VW553/V1_MQTT_OK/GD32VW55X_Wifi_BLE_SDK/GD32VW55x_RELEASE_V1.0.2/MSDK/cloud/alicloud/src/infra/system\guider.c **** 
 679              		.loc 1 359 5 is_stmt 1
 359:C:/Users/stapi/OneDrive/Desktop/GD32VW553/V1_MQTT_OK/GD32VW55X_Wifi_BLE_SDK/GD32VW55x_RELEASE_V1.0.2/MSDK/cloud/alicloud/src/infra/system\guider.c **** 
 680              		.loc 1 359 12 is_stmt 0
 681 001a 37050000 		lui	a0,%hi(.LC23)
 682 001e 13050500 		addi	a0,a0,%lo(.LC23)
 683 0022 97000000 		call	aos_kv_del
 683      E7800000 
 684              	.LVL54:
 359:C:/Users/stapi/OneDrive/Desktop/GD32VW553/V1_MQTT_OK/GD32VW55X_Wifi_BLE_SDK/GD32VW55x_RELEASE_V1.0.2/MSDK/cloud/alicloud/src/infra/system\guider.c **** 
 685              		.loc 1 359 9
 686 002a 498C     		or	s0,s0,a0
 687              	.LVL55:
 361:C:/Users/stapi/OneDrive/Desktop/GD32VW553/V1_MQTT_OK/GD32VW55X_Wifi_BLE_SDK/GD32VW55x_RELEASE_V1.0.2/MSDK/cloud/alicloud/src/infra/system\guider.c **** 
 688              		.loc 1 361 5 is_stmt 1
 689 002c 37070000 		lui	a4,%hi(.LC28)
 690 0030 B7050000 		lui	a1,%hi(.LANCHOR5)
 691 0034 37050000 		lui	a0,%hi(.LC22)
 692 0038 A287     		mv	a5,s0
 693 003a 13070700 		addi	a4,a4,%lo(.LC28)
 694 003e 9546     		li	a3,5
 695 0040 13069016 		li	a2,361
 696 0044 93850500 		addi	a1,a1,%lo(.LANCHOR5)
 697 0048 13050500 		addi	a0,a0,%lo(.LC22)
 698 004c 97000000 		call	LITE_syslog
 698      E7800000 
 699              	.LVL56:
 363:C:/Users/stapi/OneDrive/Desktop/GD32VW553/V1_MQTT_OK/GD32VW55X_Wifi_BLE_SDK/GD32VW55x_RELEASE_V1.0.2/MSDK/cloud/alicloud/src/infra/system\guider.c **** }
 700              		.loc 1 363 5
 364:C:/Users/stapi/OneDrive/Desktop/GD32VW553/V1_MQTT_OK/GD32VW55X_Wifi_BLE_SDK/GD32VW55x_RELEASE_V1.0.2/MSDK/cloud/alicloud/src/infra/system\guider.c **** 
 701              		.loc 1 364 1 is_stmt 0
 702 0054 2285     		mv	a0,s0
 703 0056 17030000 		tail	__riscv_restore_1
 703      67000300 
 704              		.cfi_restore 8
 705              		.cfi_restore 1
 706              		.cfi_def_cfa_offset 0
 707              		.cfi_endproc
 708              	.LFE31:
 710              		.section	.rodata.iotx_guider_set_dynamic_region.str1.4,"aMS",@progbits,1
 711              		.align	2
 712              	.LC29:
 713 0000 6E6F2072 		.string	"no region from app so clear region in kv"
 713      6567696F 
 713      6E206672 
 713      6F6D2061 
 713      70702073 
 714 0029 000000   		.align	2
 715              	.LC30:
 716 002c 72656769 		.string	"region:%d err"
 716      6F6E3A25 
 716      64206572 
 716      7200
 717 003a 0000     		.align	2
 718              	.LC31:
 719 003c 41505020 		.string	"APP region id:%d"
 719      72656769 
 719      6F6E2069 
 719      643A2564 
 719      00
 720 004d 000000   		.align	2
 721              	.LC32:
 722 0050 7074723A 		.string	"ptr:%s\r\n"
 722      25730D0A 
 722      00
 723 0059 000000   		.align	2
 724              	.LC33:
 725 005c 73657420 		.string	"set regionid:%d,ret=%d"
 725      72656769 
 725      6F6E6964 
 725      3A25642C 
 725      7265743D 
 726 0073 00       		.align	2
 727              	.LC34:
 728 0074 64656C20 		.string	"del mqtt_url:%d"
 728      6D717474 
 728      5F75726C 
 728      3A256400 
 729              		.align	2
 730              	.LC35:
 731 0084 6E6F206D 		.string	"no mem"
 731      656D00
 732 008b 00       		.align	2
 733              	.LC36:
 734 008c 696F742D 		.string	"iot-test-pre.iot-as-mqtt.unify.aliyuncs.com"
 734      74657374 
 734      2D707265 
 734      2E696F74 
 734      2D61732D 
 735              		.align	2
 736              	.LC37:
 737 00b8 25733A25 		.string	"%s:%d"
 737      6400
 738 00be 0000     		.align	2
 739              	.LC38:
 740 00c0 25732E25 		.string	"%s.%s"
 740      7300
 741              		.section	.text.iotx_guider_set_dynamic_region,"ax",@progbits
 742              		.align	1
 743              		.globl	iotx_guider_set_dynamic_region
 745              	iotx_guider_set_dynamic_region:
 746              	.LFB30:
 291:C:/Users/stapi/OneDrive/Desktop/GD32VW553/V1_MQTT_OK/GD32VW55X_Wifi_BLE_SDK/GD32VW55x_RELEASE_V1.0.2/MSDK/cloud/alicloud/src/infra/system\guider.c ****     int ret = 0;
 747              		.loc 1 291 1 is_stmt 1
 748              		.cfi_startproc
 749              	.LVL57:
 750 0000 17030000 		call	t0,__riscv_save_9
 750      E7020300 
 751              		.cfi_offset 24, -40
 752              		.cfi_offset 23, -36
 753              		.cfi_offset 22, -32
 754              		.cfi_offset 21, -28
 755              		.cfi_offset 20, -24
 756              		.cfi_offset 19, -20
 757              		.cfi_offset 18, -16
 758              		.cfi_offset 9, -12
 759              		.cfi_offset 8, -8
 760              		.cfi_offset 1, -4
 761              		.cfi_def_cfa_offset 48
 292:C:/Users/stapi/OneDrive/Desktop/GD32VW553/V1_MQTT_OK/GD32VW55X_Wifi_BLE_SDK/GD32VW55x_RELEASE_V1.0.2/MSDK/cloud/alicloud/src/infra/system\guider.c ****     char *p_dynamic_mqtt_url = NULL;
 762              		.loc 1 292 5
 763              	.LVL58:
 293:C:/Users/stapi/OneDrive/Desktop/GD32VW553/V1_MQTT_OK/GD32VW55X_Wifi_BLE_SDK/GD32VW55x_RELEASE_V1.0.2/MSDK/cloud/alicloud/src/infra/system\guider.c ****     char product_key[PRODUCT_KEY_LEN];
 764              		.loc 1 293 5
 294:C:/Users/stapi/OneDrive/Desktop/GD32VW553/V1_MQTT_OK/GD32VW55X_Wifi_BLE_SDK/GD32VW55x_RELEASE_V1.0.2/MSDK/cloud/alicloud/src/infra/system\guider.c **** 
 765              		.loc 1 294 5
 296:C:/Users/stapi/OneDrive/Desktop/GD32VW553/V1_MQTT_OK/GD32VW55X_Wifi_BLE_SDK/GD32VW55x_RELEASE_V1.0.2/MSDK/cloud/alicloud/src/infra/system\guider.c ****     {
 766              		.loc 1 296 5
 296:C:/Users/stapi/OneDrive/Desktop/GD32VW553/V1_MQTT_OK/GD32VW55X_Wifi_BLE_SDK/GD32VW55x_RELEASE_V1.0.2/MSDK/cloud/alicloud/src/infra/system\guider.c ****     {
 767              		.loc 1 296 8 is_stmt 0
 768 0008 9307C0F9 		li	a5,-100
 291:C:/Users/stapi/OneDrive/Desktop/GD32VW553/V1_MQTT_OK/GD32VW55X_Wifi_BLE_SDK/GD32VW55x_RELEASE_V1.0.2/MSDK/cloud/alicloud/src/infra/system\guider.c ****     int ret = 0;
 769              		.loc 1 291 1
 770 000c 7971     		addi	sp,sp,-48
 771              		.cfi_def_cfa_offset 96
 772 000e 37090000 		lui	s2,%hi(.LC17)
 296:C:/Users/stapi/OneDrive/Desktop/GD32VW553/V1_MQTT_OK/GD32VW55X_Wifi_BLE_SDK/GD32VW55x_RELEASE_V1.0.2/MSDK/cloud/alicloud/src/infra/system\guider.c ****     {
 773              		.loc 1 296 8
 774 0012 6313F504 		bne	a0,a5,.L37
 298:C:/Users/stapi/OneDrive/Desktop/GD32VW553/V1_MQTT_OK/GD32VW55X_Wifi_BLE_SDK/GD32VW55x_RELEASE_V1.0.2/MSDK/cloud/alicloud/src/infra/system\guider.c ****         iotx_guider_clear_dynamic_url();
 775              		.loc 1 298 9 is_stmt 1
 298:C:/Users/stapi/OneDrive/Desktop/GD32VW553/V1_MQTT_OK/GD32VW55X_Wifi_BLE_SDK/GD32VW55x_RELEASE_V1.0.2/MSDK/cloud/alicloud/src/infra/system\guider.c ****         iotx_guider_clear_dynamic_url();
 776              		.loc 1 298 9
 777 0016 37050000 		lui	a0,%hi(.LC15)
 778              	.LVL59:
 779 001a 13050500 		addi	a0,a0,%lo(.LC15)
 780 001e 97000000 		call	HAL_Printf
 780      E7800000 
 781              	.LVL60:
 298:C:/Users/stapi/OneDrive/Desktop/GD32VW553/V1_MQTT_OK/GD32VW55X_Wifi_BLE_SDK/GD32VW55x_RELEASE_V1.0.2/MSDK/cloud/alicloud/src/infra/system\guider.c ****         iotx_guider_clear_dynamic_url();
 782              		.loc 1 298 9
 783 0026 37050000 		lui	a0,%hi(.LC29)
 784 002a 13050500 		addi	a0,a0,%lo(.LC29)
 785 002e 97000000 		call	HAL_Printf
 785      E7800000 
 786              	.LVL61:
 298:C:/Users/stapi/OneDrive/Desktop/GD32VW553/V1_MQTT_OK/GD32VW55X_Wifi_BLE_SDK/GD32VW55x_RELEASE_V1.0.2/MSDK/cloud/alicloud/src/infra/system\guider.c ****         iotx_guider_clear_dynamic_url();
 787              		.loc 1 298 9
 788 0036 13050900 		addi	a0,s2,%lo(.LC17)
 789 003a 97000000 		call	HAL_Printf
 789      E7800000 
 790              	.LVL62:
 298:C:/Users/stapi/OneDrive/Desktop/GD32VW553/V1_MQTT_OK/GD32VW55X_Wifi_BLE_SDK/GD32VW55x_RELEASE_V1.0.2/MSDK/cloud/alicloud/src/infra/system\guider.c ****         iotx_guider_clear_dynamic_url();
 791              		.loc 1 298 9
 299:C:/Users/stapi/OneDrive/Desktop/GD32VW553/V1_MQTT_OK/GD32VW55X_Wifi_BLE_SDK/GD32VW55x_RELEASE_V1.0.2/MSDK/cloud/alicloud/src/infra/system\guider.c ****         return 0;
 792              		.loc 1 299 9
 793 0042 97000000 		call	iotx_guider_clear_dynamic_url
 793      E7800000 
 794              	.LVL63:
 300:C:/Users/stapi/OneDrive/Desktop/GD32VW553/V1_MQTT_OK/GD32VW55X_Wifi_BLE_SDK/GD32VW55x_RELEASE_V1.0.2/MSDK/cloud/alicloud/src/infra/system\guider.c ****     }
 795              		.loc 1 300 9
 796              	.L56:
 316:C:/Users/stapi/OneDrive/Desktop/GD32VW553/V1_MQTT_OK/GD32VW55X_Wifi_BLE_SDK/GD32VW55x_RELEASE_V1.0.2/MSDK/cloud/alicloud/src/infra/system\guider.c ****         return 0;
 797              		.loc 1 316 9
 317:C:/Users/stapi/OneDrive/Desktop/GD32VW553/V1_MQTT_OK/GD32VW55X_Wifi_BLE_SDK/GD32VW55x_RELEASE_V1.0.2/MSDK/cloud/alicloud/src/infra/system\guider.c ****     }
 798              		.loc 1 317 9
 317:C:/Users/stapi/OneDrive/Desktop/GD32VW553/V1_MQTT_OK/GD32VW55X_Wifi_BLE_SDK/GD32VW55x_RELEASE_V1.0.2/MSDK/cloud/alicloud/src/infra/system\guider.c ****     }
 799              		.loc 1 317 16 is_stmt 0
 800 004a 8149     		li	s3,0
 801              	.LVL64:
 802              	.L36:
 352:C:/Users/stapi/OneDrive/Desktop/GD32VW553/V1_MQTT_OK/GD32VW55X_Wifi_BLE_SDK/GD32VW55x_RELEASE_V1.0.2/MSDK/cloud/alicloud/src/infra/system\guider.c **** 
 803              		.loc 1 352 1
 804 004c 4E85     		mv	a0,s3
 805 004e 4561     		addi	sp,sp,48
 806              		.cfi_remember_state
 807              		.cfi_def_cfa_offset 0
 808 0050 17030000 		tail	__riscv_restore_9
 808      67000300 
 809              		.cfi_restore 24
 810              		.cfi_restore 23
 811              		.cfi_restore 22
 812              		.cfi_restore 21
 813              		.cfi_restore 20
 814              		.cfi_restore 19
 815              		.cfi_restore 18
 816              		.cfi_restore 9
 817              		.cfi_restore 8
 818              		.cfi_restore 1
 819              		.cfi_def_cfa_offset -48
 820              	.LVL65:
 821              	.L37:
 822              		.cfi_restore_state
 303:C:/Users/stapi/OneDrive/Desktop/GD32VW553/V1_MQTT_OK/GD32VW55X_Wifi_BLE_SDK/GD32VW55x_RELEASE_V1.0.2/MSDK/cloud/alicloud/src/infra/system\guider.c ****     {
 823              		.loc 1 303 8
 824 0058 9567     		li	a5,20480
 825 005a 9387F7E1 		addi	a5,a5,-481
 826 005e 2A84     		mv	s0,a0
 303:C:/Users/stapi/OneDrive/Desktop/GD32VW553/V1_MQTT_OK/GD32VW55X_Wifi_BLE_SDK/GD32VW55x_RELEASE_V1.0.2/MSDK/cloud/alicloud/src/infra/system\guider.c ****     {
 827              		.loc 1 303 5 is_stmt 1
 303:C:/Users/stapi/OneDrive/Desktop/GD32VW553/V1_MQTT_OK/GD32VW55X_Wifi_BLE_SDK/GD32VW55x_RELEASE_V1.0.2/MSDK/cloud/alicloud/src/infra/system\guider.c ****     {
 828              		.loc 1 303 8 is_stmt 0
 829 0060 63FBA702 		bleu	a0,a5,.L39
 830              	.LVL66:
 305:C:/Users/stapi/OneDrive/Desktop/GD32VW553/V1_MQTT_OK/GD32VW55X_Wifi_BLE_SDK/GD32VW55x_RELEASE_V1.0.2/MSDK/cloud/alicloud/src/infra/system\guider.c ****         return -1;
 831              		.loc 1 305 9 is_stmt 1
 305:C:/Users/stapi/OneDrive/Desktop/GD32VW553/V1_MQTT_OK/GD32VW55X_Wifi_BLE_SDK/GD32VW55x_RELEASE_V1.0.2/MSDK/cloud/alicloud/src/infra/system\guider.c ****         return -1;
 832              		.loc 1 305 9
 833 0064 37050000 		lui	a0,%hi(.LC18)
 834 0068 13050500 		addi	a0,a0,%lo(.LC18)
 835 006c 97000000 		call	HAL_Printf
 835      E7800000 
 836              	.LVL67:
 305:C:/Users/stapi/OneDrive/Desktop/GD32VW553/V1_MQTT_OK/GD32VW55X_Wifi_BLE_SDK/GD32VW55x_RELEASE_V1.0.2/MSDK/cloud/alicloud/src/infra/system\guider.c ****         return -1;
 837              		.loc 1 305 9
 838 0074 37050000 		lui	a0,%hi(.LC30)
 839 0078 A285     		mv	a1,s0
 840 007a 13050500 		addi	a0,a0,%lo(.LC30)
 841 007e 97000000 		call	HAL_Printf
 841      E7800000 
 842              	.LVL68:
 305:C:/Users/stapi/OneDrive/Desktop/GD32VW553/V1_MQTT_OK/GD32VW55X_Wifi_BLE_SDK/GD32VW55x_RELEASE_V1.0.2/MSDK/cloud/alicloud/src/infra/system\guider.c ****         return -1;
 843              		.loc 1 305 9
 844              	.L57:
 323:C:/Users/stapi/OneDrive/Desktop/GD32VW553/V1_MQTT_OK/GD32VW55X_Wifi_BLE_SDK/GD32VW55x_RELEASE_V1.0.2/MSDK/cloud/alicloud/src/infra/system\guider.c ****         return -1;
 845              		.loc 1 323 9
 846 0086 13050900 		addi	a0,s2,%lo(.LC17)
 847 008a 97000000 		call	HAL_Printf
 847      E7800000 
 848              	.LVL69:
 323:C:/Users/stapi/OneDrive/Desktop/GD32VW553/V1_MQTT_OK/GD32VW55X_Wifi_BLE_SDK/GD32VW55x_RELEASE_V1.0.2/MSDK/cloud/alicloud/src/infra/system\guider.c ****         return -1;
 849              		.loc 1 323 9
 324:C:/Users/stapi/OneDrive/Desktop/GD32VW553/V1_MQTT_OK/GD32VW55X_Wifi_BLE_SDK/GD32VW55x_RELEASE_V1.0.2/MSDK/cloud/alicloud/src/infra/system\guider.c ****     }
 850              		.loc 1 324 9
 324:C:/Users/stapi/OneDrive/Desktop/GD32VW553/V1_MQTT_OK/GD32VW55X_Wifi_BLE_SDK/GD32VW55x_RELEASE_V1.0.2/MSDK/cloud/alicloud/src/infra/system\guider.c ****     }
 851              		.loc 1 324 16 is_stmt 0
 852 0092 FD59     		li	s3,-1
 853 0094 65BF     		j	.L36
 854              	.LVL70:
 855              	.L39:
 309:C:/Users/stapi/OneDrive/Desktop/GD32VW553/V1_MQTT_OK/GD32VW55X_Wifi_BLE_SDK/GD32VW55x_RELEASE_V1.0.2/MSDK/cloud/alicloud/src/infra/system\guider.c **** 
 856              		.loc 1 309 5 is_stmt 1
 309:C:/Users/stapi/OneDrive/Desktop/GD32VW553/V1_MQTT_OK/GD32VW55X_Wifi_BLE_SDK/GD32VW55x_RELEASE_V1.0.2/MSDK/cloud/alicloud/src/infra/system\guider.c **** 
 857              		.loc 1 309 5
 858 0096 370A0000 		lui	s4,%hi(.LC15)
 859 009a 13050A00 		addi	a0,s4,%lo(.LC15)
 860 009e 97000000 		call	HAL_Printf
 860      E7800000 
 861              	.LVL71:
 309:C:/Users/stapi/OneDrive/Desktop/GD32VW553/V1_MQTT_OK/GD32VW55X_Wifi_BLE_SDK/GD32VW55x_RELEASE_V1.0.2/MSDK/cloud/alicloud/src/infra/system\guider.c **** 
 862              		.loc 1 309 5
 863 00a6 37050000 		lui	a0,%hi(.LC31)
 864 00aa A285     		mv	a1,s0
 865 00ac 13050500 		addi	a0,a0,%lo(.LC31)
 866 00b0 97000000 		call	HAL_Printf
 866      E7800000 
 867              	.LVL72:
 309:C:/Users/stapi/OneDrive/Desktop/GD32VW553/V1_MQTT_OK/GD32VW55X_Wifi_BLE_SDK/GD32VW55x_RELEASE_V1.0.2/MSDK/cloud/alicloud/src/infra/system\guider.c **** 
 868              		.loc 1 309 5
 869 00b8 13050900 		addi	a0,s2,%lo(.LC17)
 870 00bc 97000000 		call	HAL_Printf
 870      E7800000 
 871              	.LVL73:
 309:C:/Users/stapi/OneDrive/Desktop/GD32VW553/V1_MQTT_OK/GD32VW55X_Wifi_BLE_SDK/GD32VW55x_RELEASE_V1.0.2/MSDK/cloud/alicloud/src/infra/system\guider.c **** 
 872              		.loc 1 309 5
 311:C:/Users/stapi/OneDrive/Desktop/GD32VW553/V1_MQTT_OK/GD32VW55X_Wifi_BLE_SDK/GD32VW55x_RELEASE_V1.0.2/MSDK/cloud/alicloud/src/infra/system\guider.c **** 
 873              		.loc 1 311 5
 874              	.LBB46:
 875              	.LBB47:
 255:C:/Users/stapi/OneDrive/Desktop/GD32VW553/V1_MQTT_OK/GD32VW55X_Wifi_BLE_SDK/GD32VW55x_RELEASE_V1.0.2/MSDK/cloud/alicloud/src/infra/system\guider.c ****     char region_id_str[KV_REGION_ID_VALUE_LEN] = {0};
 876              		.loc 1 255 5
 256:C:/Users/stapi/OneDrive/Desktop/GD32VW553/V1_MQTT_OK/GD32VW55X_Wifi_BLE_SDK/GD32VW55x_RELEASE_V1.0.2/MSDK/cloud/alicloud/src/infra/system\guider.c **** 
 877              		.loc 1 256 5
 256:C:/Users/stapi/OneDrive/Desktop/GD32VW553/V1_MQTT_OK/GD32VW55X_Wifi_BLE_SDK/GD32VW55x_RELEASE_V1.0.2/MSDK/cloud/alicloud/src/infra/system\guider.c **** 
 878              		.loc 1 256 10 is_stmt 0
 879 00c4 02CE     		sw	zero,28(sp)
 880 00c6 23100102 		sh	zero,32(sp)
 258:C:/Users/stapi/OneDrive/Desktop/GD32VW553/V1_MQTT_OK/GD32VW55X_Wifi_BLE_SDK/GD32VW55x_RELEASE_V1.0.2/MSDK/cloud/alicloud/src/infra/system\guider.c **** 
 881              		.loc 1 258 5 is_stmt 1
 882              	.LVL74:
 883              	.LBB48:
 884              	.LBB49:
 214:C:/Users/stapi/OneDrive/Desktop/GD32VW553/V1_MQTT_OK/GD32VW55X_Wifi_BLE_SDK/GD32VW55x_RELEASE_V1.0.2/MSDK/cloud/alicloud/src/infra/system\guider.c ****     int flag = 0;
 885              		.loc 1 214 5
 215:C:/Users/stapi/OneDrive/Desktop/GD32VW553/V1_MQTT_OK/GD32VW55X_Wifi_BLE_SDK/GD32VW55x_RELEASE_V1.0.2/MSDK/cloud/alicloud/src/infra/system\guider.c ****     char *ptr = string;
 886              		.loc 1 215 5
 216:C:/Users/stapi/OneDrive/Desktop/GD32VW553/V1_MQTT_OK/GD32VW55X_Wifi_BLE_SDK/GD32VW55x_RELEASE_V1.0.2/MSDK/cloud/alicloud/src/infra/system\guider.c **** 
 887              		.loc 1 216 5
 218:C:/Users/stapi/OneDrive/Desktop/GD32VW553/V1_MQTT_OK/GD32VW55X_Wifi_BLE_SDK/GD32VW55x_RELEASE_V1.0.2/MSDK/cloud/alicloud/src/infra/system\guider.c ****     {
 888              		.loc 1 218 5
 218:C:/Users/stapi/OneDrive/Desktop/GD32VW553/V1_MQTT_OK/GD32VW55X_Wifi_BLE_SDK/GD32VW55x_RELEASE_V1.0.2/MSDK/cloud/alicloud/src/infra/system\guider.c ****     {
 889              		.loc 1 218 8 is_stmt 0
 890 00ca 59E8     		bne	s0,zero,.L48
 220:C:/Users/stapi/OneDrive/Desktop/GD32VW553/V1_MQTT_OK/GD32VW55X_Wifi_BLE_SDK/GD32VW55x_RELEASE_V1.0.2/MSDK/cloud/alicloud/src/infra/system\guider.c ****         *ptr = 0;
 891              		.loc 1 220 9 is_stmt 1
 892              	.LVL75:
 220:C:/Users/stapi/OneDrive/Desktop/GD32VW553/V1_MQTT_OK/GD32VW55X_Wifi_BLE_SDK/GD32VW55x_RELEASE_V1.0.2/MSDK/cloud/alicloud/src/infra/system\guider.c ****         *ptr = 0;
 893              		.loc 1 220 16 is_stmt 0
 894 00cc 93070003 		li	a5,48
 895 00d0 230EF100 		sb	a5,28(sp)
 221:C:/Users/stapi/OneDrive/Desktop/GD32VW553/V1_MQTT_OK/GD32VW55X_Wifi_BLE_SDK/GD32VW55x_RELEASE_V1.0.2/MSDK/cloud/alicloud/src/infra/system\guider.c ****         return string;
 896              		.loc 1 221 9 is_stmt 1
 222:C:/Users/stapi/OneDrive/Desktop/GD32VW553/V1_MQTT_OK/GD32VW55X_Wifi_BLE_SDK/GD32VW55x_RELEASE_V1.0.2/MSDK/cloud/alicloud/src/infra/system\guider.c ****     }
 897              		.loc 1 222 9
 898              	.LVL76:
 899              	.L41:
 900              	.LBE49:
 901              	.LBE48:
 260:C:/Users/stapi/OneDrive/Desktop/GD32VW553/V1_MQTT_OK/GD32VW55X_Wifi_BLE_SDK/GD32VW55x_RELEASE_V1.0.2/MSDK/cloud/alicloud/src/infra/system\guider.c ****     sys_info("set regionid:%d,ret=%d", regionid, ret);
 902              		.loc 1 260 5
 260:C:/Users/stapi/OneDrive/Desktop/GD32VW553/V1_MQTT_OK/GD32VW55X_Wifi_BLE_SDK/GD32VW55x_RELEASE_V1.0.2/MSDK/cloud/alicloud/src/infra/system\guider.c ****     sys_info("set regionid:%d,ret=%d", regionid, ret);
 903              		.loc 1 260 11 is_stmt 0
 904 00d4 37050000 		lui	a0,%hi(.LC23)
 905 00d8 8546     		li	a3,1
 906 00da 1946     		li	a2,6
 907 00dc 6C08     		addi	a1,sp,28
 908 00de 13050500 		addi	a0,a0,%lo(.LC23)
 909 00e2 97000000 		call	aos_kv_set
 909      E7800000 
 910              	.LVL77:
 911 00ea AA89     		mv	s3,a0
 912              	.LVL78:
 261:C:/Users/stapi/OneDrive/Desktop/GD32VW553/V1_MQTT_OK/GD32VW55X_Wifi_BLE_SDK/GD32VW55x_RELEASE_V1.0.2/MSDK/cloud/alicloud/src/infra/system\guider.c **** 
 913              		.loc 1 261 5 is_stmt 1
 261:C:/Users/stapi/OneDrive/Desktop/GD32VW553/V1_MQTT_OK/GD32VW55X_Wifi_BLE_SDK/GD32VW55x_RELEASE_V1.0.2/MSDK/cloud/alicloud/src/infra/system\guider.c **** 
 914              		.loc 1 261 5
 915 00ec 13050A00 		addi	a0,s4,%lo(.LC15)
 916              	.LVL79:
 917 00f0 97000000 		call	HAL_Printf
 917      E7800000 
 918              	.LVL80:
 261:C:/Users/stapi/OneDrive/Desktop/GD32VW553/V1_MQTT_OK/GD32VW55X_Wifi_BLE_SDK/GD32VW55x_RELEASE_V1.0.2/MSDK/cloud/alicloud/src/infra/system\guider.c **** 
 919              		.loc 1 261 5
 920 00f8 37050000 		lui	a0,%hi(.LC33)
 921 00fc 4E86     		mv	a2,s3
 922 00fe A285     		mv	a1,s0
 923 0100 13050500 		addi	a0,a0,%lo(.LC33)
 924 0104 97000000 		call	HAL_Printf
 924      E7800000 
 925              	.LVL81:
 261:C:/Users/stapi/OneDrive/Desktop/GD32VW553/V1_MQTT_OK/GD32VW55X_Wifi_BLE_SDK/GD32VW55x_RELEASE_V1.0.2/MSDK/cloud/alicloud/src/infra/system\guider.c **** 
 926              		.loc 1 261 5
 927 010c 13050900 		addi	a0,s2,%lo(.LC17)
 928 0110 97000000 		call	HAL_Printf
 928      E7800000 
 929              	.LVL82:
 261:C:/Users/stapi/OneDrive/Desktop/GD32VW553/V1_MQTT_OK/GD32VW55X_Wifi_BLE_SDK/GD32VW55x_RELEASE_V1.0.2/MSDK/cloud/alicloud/src/infra/system\guider.c **** 
 930              		.loc 1 261 5
 263:C:/Users/stapi/OneDrive/Desktop/GD32VW553/V1_MQTT_OK/GD32VW55X_Wifi_BLE_SDK/GD32VW55x_RELEASE_V1.0.2/MSDK/cloud/alicloud/src/infra/system\guider.c **** }
 931              		.loc 1 263 5
 932              	.LBE47:
 933              	.LBE46:
 313:C:/Users/stapi/OneDrive/Desktop/GD32VW553/V1_MQTT_OK/GD32VW55X_Wifi_BLE_SDK/GD32VW55x_RELEASE_V1.0.2/MSDK/cloud/alicloud/src/infra/system\guider.c ****     {
 934              		.loc 1 313 5
 313:C:/Users/stapi/OneDrive/Desktop/GD32VW553/V1_MQTT_OK/GD32VW55X_Wifi_BLE_SDK/GD32VW55x_RELEASE_V1.0.2/MSDK/cloud/alicloud/src/infra/system\guider.c ****     {
 935              		.loc 1 313 8 is_stmt 0
 936 0118 9547     		li	a5,5
 937 011a 63DA8708 		ble	s0,a5,.L43
 315:C:/Users/stapi/OneDrive/Desktop/GD32VW553/V1_MQTT_OK/GD32VW55X_Wifi_BLE_SDK/GD32VW55x_RELEASE_V1.0.2/MSDK/cloud/alicloud/src/infra/system\guider.c ****         sys_warning("del mqtt_url:%d", ret);
 938              		.loc 1 315 9 is_stmt 1
 315:C:/Users/stapi/OneDrive/Desktop/GD32VW553/V1_MQTT_OK/GD32VW55X_Wifi_BLE_SDK/GD32VW55x_RELEASE_V1.0.2/MSDK/cloud/alicloud/src/infra/system\guider.c ****         sys_warning("del mqtt_url:%d", ret);
 939              		.loc 1 315 15 is_stmt 0
 940 011e 37050000 		lui	a0,%hi(.LC20)
 941 0122 13050500 		addi	a0,a0,%lo(.LC20)
 942 0126 97000000 		call	aos_kv_del
 942      E7800000 
 943              	.LVL83:
 944 012e 2AC6     		sw	a0,12(sp)
 945              	.LVL84:
 316:C:/Users/stapi/OneDrive/Desktop/GD32VW553/V1_MQTT_OK/GD32VW55X_Wifi_BLE_SDK/GD32VW55x_RELEASE_V1.0.2/MSDK/cloud/alicloud/src/infra/system\guider.c ****         return 0;
 946              		.loc 1 316 9 is_stmt 1
 316:C:/Users/stapi/OneDrive/Desktop/GD32VW553/V1_MQTT_OK/GD32VW55X_Wifi_BLE_SDK/GD32VW55x_RELEASE_V1.0.2/MSDK/cloud/alicloud/src/infra/system\guider.c ****         return 0;
 947              		.loc 1 316 9
 948 0130 37050000 		lui	a0,%hi(.LC24)
 949              	.LVL85:
 950 0134 13050500 		addi	a0,a0,%lo(.LC24)
 951 0138 97000000 		call	HAL_Printf
 951      E7800000 
 952              	.LVL86:
 316:C:/Users/stapi/OneDrive/Desktop/GD32VW553/V1_MQTT_OK/GD32VW55X_Wifi_BLE_SDK/GD32VW55x_RELEASE_V1.0.2/MSDK/cloud/alicloud/src/infra/system\guider.c ****         return 0;
 953              		.loc 1 316 9
 954 0140 B245     		lw	a1,12(sp)
 955 0142 37050000 		lui	a0,%hi(.LC34)
 956 0146 13050500 		addi	a0,a0,%lo(.LC34)
 957 014a 97000000 		call	HAL_Printf
 957      E7800000 
 958              	.LVL87:
 316:C:/Users/stapi/OneDrive/Desktop/GD32VW553/V1_MQTT_OK/GD32VW55X_Wifi_BLE_SDK/GD32VW55x_RELEASE_V1.0.2/MSDK/cloud/alicloud/src/infra/system\guider.c ****         return 0;
 959              		.loc 1 316 9
 960 0152 13050900 		addi	a0,s2,%lo(.LC17)
 961 0156 97000000 		call	HAL_Printf
 961      E7800000 
 962              	.LVL88:
 963 015e F5B5     		j	.L56
 964              	.LVL89:
 965              	.L48:
 966              	.LBB53:
 967              	.LBB52:
 968              	.LBB51:
 969              	.LBB50:
 970 0160 8964     		li	s1,8192
 971 0162 A28A     		mv	s5,s0
 972 0164 9549     		li	s3,5
 973 0166 7C08     		addi	a5,sp,28
 974              	.LVL90:
 975 0168 0147     		li	a4,0
 976 016a 93840471 		addi	s1,s1,1808
 243:C:/Users/stapi/OneDrive/Desktop/GD32VW553/V1_MQTT_OK/GD32VW55X_Wifi_BLE_SDK/GD32VW55x_RELEASE_V1.0.2/MSDK/cloud/alicloud/src/infra/system\guider.c ****         }
 977              		.loc 1 243 13 is_stmt 0
 978 016e 370C0000 		lui	s8,%hi(.LC32)
 234:C:/Users/stapi/OneDrive/Desktop/GD32VW553/V1_MQTT_OK/GD32VW55X_Wifi_BLE_SDK/GD32VW55x_RELEASE_V1.0.2/MSDK/cloud/alicloud/src/infra/system\guider.c ****     {
 979              		.loc 1 234 30
 980 0172 A94B     		li	s7,10
 981              	.LVL91:
 982              	.L40:
 236:C:/Users/stapi/OneDrive/Desktop/GD32VW553/V1_MQTT_OK/GD32VW55X_Wifi_BLE_SDK/GD32VW55x_RELEASE_V1.0.2/MSDK/cloud/alicloud/src/infra/system\guider.c **** 
 983              		.loc 1 236 9 is_stmt 1
 236:C:/Users/stapi/OneDrive/Desktop/GD32VW553/V1_MQTT_OK/GD32VW55X_Wifi_BLE_SDK/GD32VW55x_RELEASE_V1.0.2/MSDK/cloud/alicloud/src/infra/system\guider.c **** 
 984              		.loc 1 236 11 is_stmt 0
 985 0174 B3C69A02 		div	a3,s5,s1
 986              	.LVL92:
 238:C:/Users/stapi/OneDrive/Desktop/GD32VW553/V1_MQTT_OK/GD32VW55X_Wifi_BLE_SDK/GD32VW55x_RELEASE_V1.0.2/MSDK/cloud/alicloud/src/infra/system\guider.c ****         {
 987              		.loc 1 238 9 is_stmt 1
 988 0178 558F     		or	a4,a4,a3
 989              	.LVL93:
 238:C:/Users/stapi/OneDrive/Desktop/GD32VW553/V1_MQTT_OK/GD32VW55X_Wifi_BLE_SDK/GD32VW55x_RELEASE_V1.0.2/MSDK/cloud/alicloud/src/infra/system\guider.c ****         {
 990              		.loc 1 238 12 is_stmt 0
 991 017a 15C3     		beq	a4,zero,.L42
 240:C:/Users/stapi/OneDrive/Desktop/GD32VW553/V1_MQTT_OK/GD32VW55X_Wifi_BLE_SDK/GD32VW55x_RELEASE_V1.0.2/MSDK/cloud/alicloud/src/infra/system\guider.c ****             value -= (d * i);
 992              		.loc 1 240 13 is_stmt 1
 993 017c B3EA9A02 		rem	s5,s5,s1
 994              	.LVL94:
 240:C:/Users/stapi/OneDrive/Desktop/GD32VW553/V1_MQTT_OK/GD32VW55X_Wifi_BLE_SDK/GD32VW55x_RELEASE_V1.0.2/MSDK/cloud/alicloud/src/infra/system\guider.c ****             value -= (d * i);
 995              		.loc 1 240 17 is_stmt 0
 996 0180 138B1700 		addi	s6,a5,1
 997              	.LVL95:
 240:C:/Users/stapi/OneDrive/Desktop/GD32VW553/V1_MQTT_OK/GD32VW55X_Wifi_BLE_SDK/GD32VW55x_RELEASE_V1.0.2/MSDK/cloud/alicloud/src/infra/system\guider.c ****             value -= (d * i);
 998              		.loc 1 240 31
 999 0184 93860603 		addi	a3,a3,48
 1000              	.LVL96:
 240:C:/Users/stapi/OneDrive/Desktop/GD32VW553/V1_MQTT_OK/GD32VW55X_Wifi_BLE_SDK/GD32VW55x_RELEASE_V1.0.2/MSDK/cloud/alicloud/src/infra/system\guider.c ****             value -= (d * i);
 1001              		.loc 1 240 20
 1002 0188 2380D700 		sb	a3,0(a5)
 241:C:/Users/stapi/OneDrive/Desktop/GD32VW553/V1_MQTT_OK/GD32VW55X_Wifi_BLE_SDK/GD32VW55x_RELEASE_V1.0.2/MSDK/cloud/alicloud/src/infra/system\guider.c ****             flag = 1;
 1003              		.loc 1 241 13 is_stmt 1
 1004              	.LVL97:
 242:C:/Users/stapi/OneDrive/Desktop/GD32VW553/V1_MQTT_OK/GD32VW55X_Wifi_BLE_SDK/GD32VW55x_RELEASE_V1.0.2/MSDK/cloud/alicloud/src/infra/system\guider.c ****             printf("ptr:%s\r\n", ptr);
 1005              		.loc 1 242 13
 243:C:/Users/stapi/OneDrive/Desktop/GD32VW553/V1_MQTT_OK/GD32VW55X_Wifi_BLE_SDK/GD32VW55x_RELEASE_V1.0.2/MSDK/cloud/alicloud/src/infra/system\guider.c ****         }
 1006              		.loc 1 243 13
 1007 018c DA85     		mv	a1,s6
 1008 018e 13050C00 		addi	a0,s8,%lo(.LC32)
 1009 0192 97000000 		call	printf
 1009      E7800000 
 1010              	.LVL98:
 240:C:/Users/stapi/OneDrive/Desktop/GD32VW553/V1_MQTT_OK/GD32VW55X_Wifi_BLE_SDK/GD32VW55x_RELEASE_V1.0.2/MSDK/cloud/alicloud/src/infra/system\guider.c ****             value -= (d * i);
 1011              		.loc 1 240 17 is_stmt 0
 1012 019a DA87     		mv	a5,s6
 242:C:/Users/stapi/OneDrive/Desktop/GD32VW553/V1_MQTT_OK/GD32VW55X_Wifi_BLE_SDK/GD32VW55x_RELEASE_V1.0.2/MSDK/cloud/alicloud/src/infra/system\guider.c ****             printf("ptr:%s\r\n", ptr);
 1013              		.loc 1 242 18
 1014 019c 0547     		li	a4,1
 1015              	.LVL99:
 1016              	.L42:
 234:C:/Users/stapi/OneDrive/Desktop/GD32VW553/V1_MQTT_OK/GD32VW55X_Wifi_BLE_SDK/GD32VW55x_RELEASE_V1.0.2/MSDK/cloud/alicloud/src/infra/system\guider.c ****     {
 1017              		.loc 1 234 28 is_stmt 1
 234:C:/Users/stapi/OneDrive/Desktop/GD32VW553/V1_MQTT_OK/GD32VW55X_Wifi_BLE_SDK/GD32VW55x_RELEASE_V1.0.2/MSDK/cloud/alicloud/src/infra/system\guider.c ****     {
 1018              		.loc 1 234 5 is_stmt 0
 1019 019e FD19     		addi	s3,s3,-1
 234:C:/Users/stapi/OneDrive/Desktop/GD32VW553/V1_MQTT_OK/GD32VW55X_Wifi_BLE_SDK/GD32VW55x_RELEASE_V1.0.2/MSDK/cloud/alicloud/src/infra/system\guider.c ****     {
 1020              		.loc 1 234 30
 1021 01a0 B3C47403 		div	s1,s1,s7
 1022              	.LVL100:
 234:C:/Users/stapi/OneDrive/Desktop/GD32VW553/V1_MQTT_OK/GD32VW55X_Wifi_BLE_SDK/GD32VW55x_RELEASE_V1.0.2/MSDK/cloud/alicloud/src/infra/system\guider.c ****     {
 1023              		.loc 1 234 21 is_stmt 1
 234:C:/Users/stapi/OneDrive/Desktop/GD32VW553/V1_MQTT_OK/GD32VW55X_Wifi_BLE_SDK/GD32VW55x_RELEASE_V1.0.2/MSDK/cloud/alicloud/src/infra/system\guider.c ****     {
 1024              		.loc 1 234 5 is_stmt 0
 1025 01a4 E39809FC 		bne	s3,zero,.L40
 248:C:/Users/stapi/OneDrive/Desktop/GD32VW553/V1_MQTT_OK/GD32VW55X_Wifi_BLE_SDK/GD32VW55x_RELEASE_V1.0.2/MSDK/cloud/alicloud/src/infra/system\guider.c **** 
 1026              		.loc 1 248 5 is_stmt 1
 248:C:/Users/stapi/OneDrive/Desktop/GD32VW553/V1_MQTT_OK/GD32VW55X_Wifi_BLE_SDK/GD32VW55x_RELEASE_V1.0.2/MSDK/cloud/alicloud/src/infra/system\guider.c **** 
 1027              		.loc 1 248 10 is_stmt 0
 1028 01a8 23800700 		sb	zero,0(a5)
 250:C:/Users/stapi/OneDrive/Desktop/GD32VW553/V1_MQTT_OK/GD32VW55X_Wifi_BLE_SDK/GD32VW55x_RELEASE_V1.0.2/MSDK/cloud/alicloud/src/infra/system\guider.c **** }
 1029              		.loc 1 250 5 is_stmt 1
 250:C:/Users/stapi/OneDrive/Desktop/GD32VW553/V1_MQTT_OK/GD32VW55X_Wifi_BLE_SDK/GD32VW55x_RELEASE_V1.0.2/MSDK/cloud/alicloud/src/infra/system\guider.c **** }
 1030              		.loc 1 250 12 is_stmt 0
 1031 01ac 25B7     		j	.L41
 1032              	.LVL101:
 1033              	.L43:
 1034              	.LBE50:
 1035              	.LBE51:
 1036              	.LBE52:
 1037              	.LBE53:
 320:C:/Users/stapi/OneDrive/Desktop/GD32VW553/V1_MQTT_OK/GD32VW55X_Wifi_BLE_SDK/GD32VW55x_RELEASE_V1.0.2/MSDK/cloud/alicloud/src/infra/system\guider.c ****     if (!p_dynamic_mqtt_url)
 1038              		.loc 1 320 5 is_stmt 1
 320:C:/Users/stapi/OneDrive/Desktop/GD32VW553/V1_MQTT_OK/GD32VW55X_Wifi_BLE_SDK/GD32VW55x_RELEASE_V1.0.2/MSDK/cloud/alicloud/src/infra/system\guider.c ****     if (!p_dynamic_mqtt_url)
 1039              		.loc 1 320 26 is_stmt 0
 1040 01ae 13060008 		li	a2,128
 1041 01b2 8145     		li	a1,0
 1042 01b4 0145     		li	a0,0
 1043 01b6 97000000 		call	LITE_malloc_internal
 1043      E7800000 
 1044              	.LVL102:
 1045 01be AA84     		mv	s1,a0
 1046              	.LVL103:
 321:C:/Users/stapi/OneDrive/Desktop/GD32VW553/V1_MQTT_OK/GD32VW55X_Wifi_BLE_SDK/GD32VW55x_RELEASE_V1.0.2/MSDK/cloud/alicloud/src/infra/system\guider.c ****     {
 1047              		.loc 1 321 5 is_stmt 1
 321:C:/Users/stapi/OneDrive/Desktop/GD32VW553/V1_MQTT_OK/GD32VW55X_Wifi_BLE_SDK/GD32VW55x_RELEASE_V1.0.2/MSDK/cloud/alicloud/src/infra/system\guider.c ****     {
 1048              		.loc 1 321 8 is_stmt 0
 1049 01c0 15E1     		bne	a0,zero,.L44
 323:C:/Users/stapi/OneDrive/Desktop/GD32VW553/V1_MQTT_OK/GD32VW55X_Wifi_BLE_SDK/GD32VW55x_RELEASE_V1.0.2/MSDK/cloud/alicloud/src/infra/system\guider.c ****         return -1;
 1050              		.loc 1 323 9 is_stmt 1
 323:C:/Users/stapi/OneDrive/Desktop/GD32VW553/V1_MQTT_OK/GD32VW55X_Wifi_BLE_SDK/GD32VW55x_RELEASE_V1.0.2/MSDK/cloud/alicloud/src/infra/system\guider.c ****         return -1;
 1051              		.loc 1 323 9
 1052 01c2 37050000 		lui	a0,%hi(.LC18)
 1053 01c6 13050500 		addi	a0,a0,%lo(.LC18)
 1054 01ca 97000000 		call	HAL_Printf
 1054      E7800000 
 1055              	.LVL104:
 323:C:/Users/stapi/OneDrive/Desktop/GD32VW553/V1_MQTT_OK/GD32VW55X_Wifi_BLE_SDK/GD32VW55x_RELEASE_V1.0.2/MSDK/cloud/alicloud/src/infra/system\guider.c ****         return -1;
 1056              		.loc 1 323 9
 1057 01d2 37050000 		lui	a0,%hi(.LC35)
 1058 01d6 13050500 		addi	a0,a0,%lo(.LC35)
 1059 01da 97000000 		call	HAL_Printf
 1059      E7800000 
 1060              	.LVL105:
 1061 01e2 55B5     		j	.L57
 1062              	.L44:
 327:C:/Users/stapi/OneDrive/Desktop/GD32VW553/V1_MQTT_OK/GD32VW55X_Wifi_BLE_SDK/GD32VW55x_RELEASE_V1.0.2/MSDK/cloud/alicloud/src/infra/system\guider.c ****     HAL_GetProductKey(product_key);
 1063              		.loc 1 327 5
 1064 01e4 97000000 		call	iotx_guider_get_kv_env
 1064      E7800000 
 1065              	.LVL106:
 328:C:/Users/stapi/OneDrive/Desktop/GD32VW553/V1_MQTT_OK/GD32VW55X_Wifi_BLE_SDK/GD32VW55x_RELEASE_V1.0.2/MSDK/cloud/alicloud/src/infra/system\guider.c ****     memset(p_dynamic_mqtt_url, '\0', GUIDER_URL_LEN);
 1066              		.loc 1 328 5
 1067 01ec 6808     		addi	a0,sp,28
 1068 01ee 97000000 		call	HAL_GetProductKey
 1068      E7800000 
 1069              	.LVL107:
 329:C:/Users/stapi/OneDrive/Desktop/GD32VW553/V1_MQTT_OK/GD32VW55X_Wifi_BLE_SDK/GD32VW55x_RELEASE_V1.0.2/MSDK/cloud/alicloud/src/infra/system\guider.c **** 
 1070              		.loc 1 329 5
 1071 01f6 13060008 		li	a2,128
 1072 01fa 8145     		li	a1,0
 1073 01fc 2685     		mv	a0,s1
 1074 01fe 97000000 		call	memset
 1074      E7800000 
 1075              	.LVL108:
 331:C:/Users/stapi/OneDrive/Desktop/GD32VW553/V1_MQTT_OK/GD32VW55X_Wifi_BLE_SDK/GD32VW55x_RELEASE_V1.0.2/MSDK/cloud/alicloud/src/infra/system\guider.c ****     {
 1076              		.loc 1 331 5
 1077              	.LBB54:
 1078              	.LBB55:
 183:C:/Users/stapi/OneDrive/Desktop/GD32VW553/V1_MQTT_OK/GD32VW55X_Wifi_BLE_SDK/GD32VW55x_RELEASE_V1.0.2/MSDK/cloud/alicloud/src/infra/system\guider.c **** }
 1079              		.loc 1 183 5
 1080              	.LBE55:
 1081              	.LBE54:
 331:C:/Users/stapi/OneDrive/Desktop/GD32VW553/V1_MQTT_OK/GD32VW55X_Wifi_BLE_SDK/GD32VW55x_RELEASE_V1.0.2/MSDK/cloud/alicloud/src/infra/system\guider.c ****     {
 1082              		.loc 1 331 8 is_stmt 0
 1083 0206 B7070000 		lui	a5,%hi(.LANCHOR2)
 1084 020a 03A70700 		lw	a4,%lo(.LANCHOR2)(a5)
 1085 020e 8947     		li	a5,2
 1086 0210 0A04     		slli	s0,s0,2
 1087              	.LVL109:
 1088 0212 6310F706 		bne	a4,a5,.L45
 1089              	.LBB56:
 333:C:/Users/stapi/OneDrive/Desktop/GD32VW553/V1_MQTT_OK/GD32VW55X_Wifi_BLE_SDK/GD32VW55x_RELEASE_V1.0.2/MSDK/cloud/alicloud/src/infra/system\guider.c **** 
 1090              		.loc 1 333 9 is_stmt 1
 1091              	.LVL110:
 335:C:/Users/stapi/OneDrive/Desktop/GD32VW553/V1_MQTT_OK/GD32VW55X_Wifi_BLE_SDK/GD32VW55x_RELEASE_V1.0.2/MSDK/cloud/alicloud/src/infra/system\guider.c ****         {
 1092              		.loc 1 335 9
 335:C:/Users/stapi/OneDrive/Desktop/GD32VW553/V1_MQTT_OK/GD32VW55X_Wifi_BLE_SDK/GD32VW55x_RELEASE_V1.0.2/MSDK/cloud/alicloud/src/infra/system\guider.c ****         {
 1093              		.loc 1 335 14 is_stmt 0
 1094 0216 B7070000 		lui	a5,%hi(.LANCHOR6)
 1095 021a 93870700 		addi	a5,a5,%lo(.LANCHOR6)
 1096 021e 3E94     		add	s0,a5,s0
 1097 0220 1440     		lw	a3,0(s0)
 1098 0222 37050000 		lui	a0,%hi(.LC36)
 1099 0226 13050500 		addi	a0,a0,%lo(.LC36)
 1100 022a B685     		mv	a1,a3
 1101 022c 36C6     		sw	a3,12(sp)
 1102 022e 97000000 		call	strcmp
 1102      E7800000 
 1103              	.LVL111:
 335:C:/Users/stapi/OneDrive/Desktop/GD32VW553/V1_MQTT_OK/GD32VW55X_Wifi_BLE_SDK/GD32VW55x_RELEASE_V1.0.2/MSDK/cloud/alicloud/src/infra/system\guider.c ****         {
 1104              		.loc 1 335 12
 1105 0236 B246     		lw	a3,12(sp)
 333:C:/Users/stapi/OneDrive/Desktop/GD32VW553/V1_MQTT_OK/GD32VW55X_Wifi_BLE_SDK/GD32VW55x_RELEASE_V1.0.2/MSDK/cloud/alicloud/src/infra/system\guider.c **** 
 1106              		.loc 1 333 13
 1107 0238 13070005 		li	a4,80
 335:C:/Users/stapi/OneDrive/Desktop/GD32VW553/V1_MQTT_OK/GD32VW55X_Wifi_BLE_SDK/GD32VW55x_RELEASE_V1.0.2/MSDK/cloud/alicloud/src/infra/system\guider.c ****         {
 1108              		.loc 1 335 12
 1109 023c 19E1     		bne	a0,zero,.L46
 337:C:/Users/stapi/OneDrive/Desktop/GD32VW553/V1_MQTT_OK/GD32VW55X_Wifi_BLE_SDK/GD32VW55x_RELEASE_V1.0.2/MSDK/cloud/alicloud/src/infra/system\guider.c ****         }
 1110              		.loc 1 337 18
 1111 023e 1307B075 		li	a4,1883
 1112              	.L46:
 1113              	.LVL112:
 340:C:/Users/stapi/OneDrive/Desktop/GD32VW553/V1_MQTT_OK/GD32VW55X_Wifi_BLE_SDK/GD32VW55x_RELEASE_V1.0.2/MSDK/cloud/alicloud/src/infra/system\guider.c ****     }
 1114              		.loc 1 340 9 is_stmt 1
 1115 0242 37060000 		lui	a2,%hi(.LC37)
 1116 0246 13060600 		addi	a2,a2,%lo(.LC37)
 1117              	.LVL113:
 1118              	.L55:
 1119              	.LBE56:
 344:C:/Users/stapi/OneDrive/Desktop/GD32VW553/V1_MQTT_OK/GD32VW55X_Wifi_BLE_SDK/GD32VW55x_RELEASE_V1.0.2/MSDK/cloud/alicloud/src/infra/system\guider.c ****     }
 1120              		.loc 1 344 9 is_stmt 0
 1121 024a 93050008 		li	a1,128
 1122 024e 2685     		mv	a0,s1
 1123 0250 97000000 		call	HAL_Snprintf
 1123      E7800000 
 1124              	.LVL114:
 347:C:/Users/stapi/OneDrive/Desktop/GD32VW553/V1_MQTT_OK/GD32VW55X_Wifi_BLE_SDK/GD32VW55x_RELEASE_V1.0.2/MSDK/cloud/alicloud/src/infra/system\guider.c ****     if (p_dynamic_mqtt_url)
 1125              		.loc 1 347 5 is_stmt 1
 347:C:/Users/stapi/OneDrive/Desktop/GD32VW553/V1_MQTT_OK/GD32VW55X_Wifi_BLE_SDK/GD32VW55x_RELEASE_V1.0.2/MSDK/cloud/alicloud/src/infra/system\guider.c ****     if (p_dynamic_mqtt_url)
 1126              		.loc 1 347 12 is_stmt 0
 1127 0258 2685     		mv	a0,s1
 1128 025a 97000000 		call	iotx_guider_set_dynamic_mqtt_url
 1128      E7800000 
 1129              	.LVL115:
 347:C:/Users/stapi/OneDrive/Desktop/GD32VW553/V1_MQTT_OK/GD32VW55X_Wifi_BLE_SDK/GD32VW55x_RELEASE_V1.0.2/MSDK/cloud/alicloud/src/infra/system\guider.c ****     if (p_dynamic_mqtt_url)
 1130              		.loc 1 347 9
 1131 0262 B3693501 		or	s3,a0,s3
 1132              	.LVL116:
 348:C:/Users/stapi/OneDrive/Desktop/GD32VW553/V1_MQTT_OK/GD32VW55X_Wifi_BLE_SDK/GD32VW55x_RELEASE_V1.0.2/MSDK/cloud/alicloud/src/infra/system\guider.c ****         SYS_GUIDER_FREE(p_dynamic_mqtt_url);
 1133              		.loc 1 348 5 is_stmt 1
 349:C:/Users/stapi/OneDrive/Desktop/GD32VW553/V1_MQTT_OK/GD32VW55X_Wifi_BLE_SDK/GD32VW55x_RELEASE_V1.0.2/MSDK/cloud/alicloud/src/infra/system\guider.c **** 
 1134              		.loc 1 349 9
 1135 0266 2685     		mv	a0,s1
 1136 0268 97000000 		call	LITE_free_internal
 1136      E7800000 
 1137              	.LVL117:
 351:C:/Users/stapi/OneDrive/Desktop/GD32VW553/V1_MQTT_OK/GD32VW55X_Wifi_BLE_SDK/GD32VW55x_RELEASE_V1.0.2/MSDK/cloud/alicloud/src/infra/system\guider.c **** }
 1138              		.loc 1 351 5
 351:C:/Users/stapi/OneDrive/Desktop/GD32VW553/V1_MQTT_OK/GD32VW55X_Wifi_BLE_SDK/GD32VW55x_RELEASE_V1.0.2/MSDK/cloud/alicloud/src/infra/system\guider.c **** }
 1139              		.loc 1 351 12 is_stmt 0
 1140 0270 F1BB     		j	.L36
 1141              	.L45:
 344:C:/Users/stapi/OneDrive/Desktop/GD32VW553/V1_MQTT_OK/GD32VW55X_Wifi_BLE_SDK/GD32VW55x_RELEASE_V1.0.2/MSDK/cloud/alicloud/src/infra/system\guider.c ****     }
 1142              		.loc 1 344 9 is_stmt 1
 1143 0272 B7070000 		lui	a5,%hi(.LANCHOR7)
 1144 0276 93870700 		addi	a5,a5,%lo(.LANCHOR7)
 1145 027a 3E94     		add	s0,a5,s0
 1146 027c 37060000 		lui	a2,%hi(.LC38)
 1147 0280 1840     		lw	a4,0(s0)
 1148 0282 7408     		addi	a3,sp,28
 1149 0284 13060600 		addi	a2,a2,%lo(.LC38)
 1150 0288 C9B7     		j	.L55
 1151              		.cfi_endproc
 1152              	.LFE30:
 1154              		.section	.rodata.iotx_guider_get_domain.str1.4,"aMS",@progbits,1
 1155              		.align	2
 1156              	.LC39:
 1157 0000 696F742D 		.string	"iot-auth-pre.cn-shanghai.aliyuncs.com"
 1157      61757468 
 1157      2D707265 
 1157      2E636E2D 
 1157      7368616E 
 1158 0026 0000     		.align	2
 1159              	.LC40:
 1160 0028 696F742D 		.string	"iot-auth-global.aliyuncs.com"
 1160      61757468 
 1160      2D676C6F 
 1160      62616C2E 
 1160      616C6979 
 1161 0045 000000   		.align	2
 1162              	.LC41:
 1163 0048 696F742D 		.string	"iot-auth.alibaba.net"
 1163      61757468 
 1163      2E616C69 
 1163      62616261 
 1163      2E6E6574 
 1164 005d 000000   		.align	2
 1165              	.LC42:
 1166 0060 696F742D 		.string	"iot-auth.cn-shanghai.aliyuncs.com"
 1166      61757468 
 1166      2E636E2D 
 1166      7368616E 
 1166      67686169 
 1167 0082 0000     		.align	2
 1168              	.LC43:
 1169 0084 646F6D61 		.string	"domain type err"
 1169      696E2074 
 1169      79706520 
 1169      65727200 
 1170              		.section	.text.iotx_guider_get_domain,"ax",@progbits
 1171              		.align	1
 1172              		.globl	iotx_guider_get_domain
 1174              	iotx_guider_get_domain:
 1175              	.LFB32:
 368:C:/Users/stapi/OneDrive/Desktop/GD32VW553/V1_MQTT_OK/GD32VW55X_Wifi_BLE_SDK/GD32VW55x_RELEASE_V1.0.2/MSDK/cloud/alicloud/src/infra/system\guider.c ****     iotx_cloud_region_types_t region_type;
 1176              		.loc 1 368 1
 1177              		.cfi_startproc
 1178              	.LVL118:
 1179 0000 17030000 		call	t0,__riscv_save_1
 1179      E7020300 
 1180              		.cfi_offset 8, -8
 1181              		.cfi_offset 1, -4
 1182              		.cfi_def_cfa_offset 16
 369:C:/Users/stapi/OneDrive/Desktop/GD32VW553/V1_MQTT_OK/GD32VW55X_Wifi_BLE_SDK/GD32VW55x_RELEASE_V1.0.2/MSDK/cloud/alicloud/src/infra/system\guider.c **** 
 1183              		.loc 1 369 5
 371:C:/Users/stapi/OneDrive/Desktop/GD32VW553/V1_MQTT_OK/GD32VW55X_Wifi_BLE_SDK/GD32VW55x_RELEASE_V1.0.2/MSDK/cloud/alicloud/src/infra/system\guider.c **** 
 1184              		.loc 1 371 5
 368:C:/Users/stapi/OneDrive/Desktop/GD32VW553/V1_MQTT_OK/GD32VW55X_Wifi_BLE_SDK/GD32VW55x_RELEASE_V1.0.2/MSDK/cloud/alicloud/src/infra/system\guider.c ****     iotx_cloud_region_types_t region_type;
 1185              		.loc 1 368 1 is_stmt 0
 1186 0008 2A84     		mv	s0,a0
 371:C:/Users/stapi/OneDrive/Desktop/GD32VW553/V1_MQTT_OK/GD32VW55X_Wifi_BLE_SDK/GD32VW55x_RELEASE_V1.0.2/MSDK/cloud/alicloud/src/infra/system\guider.c **** 
 1187              		.loc 1 371 19
 1188 000a 97000000 		call	iotx_guider_get_region
 1188      E7800000 
 1189              	.LVL119:
 373:C:/Users/stapi/OneDrive/Desktop/GD32VW553/V1_MQTT_OK/GD32VW55X_Wifi_BLE_SDK/GD32VW55x_RELEASE_V1.0.2/MSDK/cloud/alicloud/src/infra/system\guider.c ****     {
 1190              		.loc 1 373 5 is_stmt 1
 373:C:/Users/stapi/OneDrive/Desktop/GD32VW553/V1_MQTT_OK/GD32VW55X_Wifi_BLE_SDK/GD32VW55x_RELEASE_V1.0.2/MSDK/cloud/alicloud/src/infra/system\guider.c ****     {
 1191              		.loc 1 373 8 is_stmt 0
 1192 0012 9567     		li	a5,20480
 1193 0014 938707E2 		addi	a5,a5,-480
 1194 0018 631EF500 		bne	a0,a5,.L59
 375:C:/Users/stapi/OneDrive/Desktop/GD32VW553/V1_MQTT_OK/GD32VW55X_Wifi_BLE_SDK/GD32VW55x_RELEASE_V1.0.2/MSDK/cloud/alicloud/src/infra/system\guider.c ****     }
 1195              		.loc 1 375 9 is_stmt 1
 375:C:/Users/stapi/OneDrive/Desktop/GD32VW553/V1_MQTT_OK/GD32VW55X_Wifi_BLE_SDK/GD32VW55x_RELEASE_V1.0.2/MSDK/cloud/alicloud/src/infra/system\guider.c ****     }
 1196              		.loc 1 375 16 is_stmt 0
 1197 001c 37050000 		lui	a0,%hi(.LANCHOR8)
 1198              	.LVL120:
 1199 0020 13050500 		addi	a0,a0,%lo(.LANCHOR8)
 1200 0024 9307C003 		li	a5,60
 1201 0028 7F15F4C4 		maddr32	a0, s0, a5
 1202              	.L58:
 424:C:/Users/stapi/OneDrive/Desktop/GD32VW553/V1_MQTT_OK/GD32VW55X_Wifi_BLE_SDK/GD32VW55x_RELEASE_V1.0.2/MSDK/cloud/alicloud/src/infra/system\guider.c **** 
 1203              		.loc 1 424 1
 1204 002c 17030000 		tail	__riscv_restore_1
 1204      67000300 
 1205              		.cfi_remember_state
 1206              		.cfi_restore 8
 1207              		.cfi_restore 1
 1208              		.cfi_def_cfa_offset 0
 1209              	.LVL121:
 1210              	.L59:
 1211              		.cfi_restore_state
 378:C:/Users/stapi/OneDrive/Desktop/GD32VW553/V1_MQTT_OK/GD32VW55X_Wifi_BLE_SDK/GD32VW55x_RELEASE_V1.0.2/MSDK/cloud/alicloud/src/infra/system\guider.c ****     {
 1212              		.loc 1 378 5 is_stmt 1
 378:C:/Users/stapi/OneDrive/Desktop/GD32VW553/V1_MQTT_OK/GD32VW55X_Wifi_BLE_SDK/GD32VW55x_RELEASE_V1.0.2/MSDK/cloud/alicloud/src/infra/system\guider.c ****     {
 1213              		.loc 1 378 8 is_stmt 0
 1214 0034 0DE4     		bne	s0,zero,.L61
 380:C:/Users/stapi/OneDrive/Desktop/GD32VW553/V1_MQTT_OK/GD32VW55X_Wifi_BLE_SDK/GD32VW55x_RELEASE_V1.0.2/MSDK/cloud/alicloud/src/infra/system\guider.c ****         {
 1215              		.loc 1 380 9 is_stmt 1
 1216              	.LBB73:
 1217              	.LBB74:
 183:C:/Users/stapi/OneDrive/Desktop/GD32VW553/V1_MQTT_OK/GD32VW55X_Wifi_BLE_SDK/GD32VW55x_RELEASE_V1.0.2/MSDK/cloud/alicloud/src/infra/system\guider.c **** }
 1218              		.loc 1 183 5
 1219              	.LBE74:
 1220              	.LBE73:
 380:C:/Users/stapi/OneDrive/Desktop/GD32VW553/V1_MQTT_OK/GD32VW55X_Wifi_BLE_SDK/GD32VW55x_RELEASE_V1.0.2/MSDK/cloud/alicloud/src/infra/system\guider.c ****         {
 1221              		.loc 1 380 12 is_stmt 0
 1222 0036 B7070000 		lui	a5,%hi(.LANCHOR2)
 1223 003a 03A70700 		lw	a4,%lo(.LANCHOR2)(a5)
 1224 003e 8947     		li	a5,2
 1225 0040 0A05     		slli	a0,a0,2
 1226              	.LVL122:
 1227 0042 6319F700 		bne	a4,a5,.L62
 382:C:/Users/stapi/OneDrive/Desktop/GD32VW553/V1_MQTT_OK/GD32VW55X_Wifi_BLE_SDK/GD32VW55x_RELEASE_V1.0.2/MSDK/cloud/alicloud/src/infra/system\guider.c ****         }
 1228              		.loc 1 382 13 is_stmt 1
 382:C:/Users/stapi/OneDrive/Desktop/GD32VW553/V1_MQTT_OK/GD32VW55X_Wifi_BLE_SDK/GD32VW55x_RELEASE_V1.0.2/MSDK/cloud/alicloud/src/infra/system\guider.c ****         }
 1229              		.loc 1 382 20 is_stmt 0
 1230 0046 B7070000 		lui	a5,%hi(.LANCHOR6)
 1231 004a 93870700 		addi	a5,a5,%lo(.LANCHOR6)
 1232              	.L70:
 386:C:/Users/stapi/OneDrive/Desktop/GD32VW553/V1_MQTT_OK/GD32VW55X_Wifi_BLE_SDK/GD32VW55x_RELEASE_V1.0.2/MSDK/cloud/alicloud/src/infra/system\guider.c ****         }
 1233              		.loc 1 386 20
 1234 004e 3E95     		add	a0,a5,a0
 1235 0050 0841     		lw	a0,0(a0)
 1236 0052 E9BF     		j	.L58
 1237              	.L62:
 386:C:/Users/stapi/OneDrive/Desktop/GD32VW553/V1_MQTT_OK/GD32VW55X_Wifi_BLE_SDK/GD32VW55x_RELEASE_V1.0.2/MSDK/cloud/alicloud/src/infra/system\guider.c ****         }
 1238              		.loc 1 386 13 is_stmt 1
 386:C:/Users/stapi/OneDrive/Desktop/GD32VW553/V1_MQTT_OK/GD32VW55X_Wifi_BLE_SDK/GD32VW55x_RELEASE_V1.0.2/MSDK/cloud/alicloud/src/infra/system\guider.c ****         }
 1239              		.loc 1 386 20 is_stmt 0
 1240 0054 B7070000 		lui	a5,%hi(.LANCHOR7)
 1241 0058 93870700 		addi	a5,a5,%lo(.LANCHOR7)
 1242 005c CDBF     		j	.L70
 1243              	.LVL123:
 1244              	.L61:
 389:C:/Users/stapi/OneDrive/Desktop/GD32VW553/V1_MQTT_OK/GD32VW55X_Wifi_BLE_SDK/GD32VW55x_RELEASE_V1.0.2/MSDK/cloud/alicloud/src/infra/system\guider.c ****     {
 1245              		.loc 1 389 10 is_stmt 1
 389:C:/Users/stapi/OneDrive/Desktop/GD32VW553/V1_MQTT_OK/GD32VW55X_Wifi_BLE_SDK/GD32VW55x_RELEASE_V1.0.2/MSDK/cloud/alicloud/src/infra/system\guider.c ****     {
 1246              		.loc 1 389 13 is_stmt 0
 1247 005e 8547     		li	a5,1
 1248 0060 6310F402 		bne	s0,a5,.L63
 391:C:/Users/stapi/OneDrive/Desktop/GD32VW553/V1_MQTT_OK/GD32VW55X_Wifi_BLE_SDK/GD32VW55x_RELEASE_V1.0.2/MSDK/cloud/alicloud/src/infra/system\guider.c ****         {
 1249              		.loc 1 391 9 is_stmt 1
 1250              	.LBB75:
 1251              	.LBB76:
 183:C:/Users/stapi/OneDrive/Desktop/GD32VW553/V1_MQTT_OK/GD32VW55X_Wifi_BLE_SDK/GD32VW55x_RELEASE_V1.0.2/MSDK/cloud/alicloud/src/infra/system\guider.c **** }
 1252              		.loc 1 183 5
 183:C:/Users/stapi/OneDrive/Desktop/GD32VW553/V1_MQTT_OK/GD32VW55X_Wifi_BLE_SDK/GD32VW55x_RELEASE_V1.0.2/MSDK/cloud/alicloud/src/infra/system\guider.c **** }
 1253              		.loc 1 183 12 is_stmt 0
 1254 0064 B7070000 		lui	a5,%hi(.LANCHOR2)
 1255 0068 83A70700 		lw	a5,%lo(.LANCHOR2)(a5)
 1256              	.LBE76:
 1257              	.LBE75:
 391:C:/Users/stapi/OneDrive/Desktop/GD32VW553/V1_MQTT_OK/GD32VW55X_Wifi_BLE_SDK/GD32VW55x_RELEASE_V1.0.2/MSDK/cloud/alicloud/src/infra/system\guider.c ****         {
 1258              		.loc 1 391 12
 1259 006c 0947     		li	a4,2
 1260 006e 6383E706 		beq	a5,a4,.L67
 395:C:/Users/stapi/OneDrive/Desktop/GD32VW553/V1_MQTT_OK/GD32VW55X_Wifi_BLE_SDK/GD32VW55x_RELEASE_V1.0.2/MSDK/cloud/alicloud/src/infra/system\guider.c ****         {
 1261              		.loc 1 395 14 is_stmt 1
 183:C:/Users/stapi/OneDrive/Desktop/GD32VW553/V1_MQTT_OK/GD32VW55X_Wifi_BLE_SDK/GD32VW55x_RELEASE_V1.0.2/MSDK/cloud/alicloud/src/infra/system\guider.c **** }
 1262              		.loc 1 183 5
 395:C:/Users/stapi/OneDrive/Desktop/GD32VW553/V1_MQTT_OK/GD32VW55X_Wifi_BLE_SDK/GD32VW55x_RELEASE_V1.0.2/MSDK/cloud/alicloud/src/infra/system\guider.c ****         {
 1263              		.loc 1 395 17 is_stmt 0
 1264 0072 63868706 		beq	a5,s0,.L68
 401:C:/Users/stapi/OneDrive/Desktop/GD32VW553/V1_MQTT_OK/GD32VW55X_Wifi_BLE_SDK/GD32VW55x_RELEASE_V1.0.2/MSDK/cloud/alicloud/src/infra/system\guider.c ****         }
 1265              		.loc 1 401 20
 1266 0076 37050000 		lui	a0,%hi(.LC40)
 1267              	.LVL124:
 1268 007a 13050500 		addi	a0,a0,%lo(.LC40)
 1269 007e 7DB7     		j	.L58
 1270              	.LVL125:
 1271              	.L63:
 1272              	.LBB77:
 1273              	.LBB78:
 404:C:/Users/stapi/OneDrive/Desktop/GD32VW553/V1_MQTT_OK/GD32VW55X_Wifi_BLE_SDK/GD32VW55x_RELEASE_V1.0.2/MSDK/cloud/alicloud/src/infra/system\guider.c ****     {
 1274              		.loc 1 404 10 is_stmt 1
 404:C:/Users/stapi/OneDrive/Desktop/GD32VW553/V1_MQTT_OK/GD32VW55X_Wifi_BLE_SDK/GD32VW55x_RELEASE_V1.0.2/MSDK/cloud/alicloud/src/infra/system\guider.c ****     {
 1275              		.loc 1 404 13 is_stmt 0
 1276 0080 0947     		li	a4,2
 1277 0082 631FE400 		bne	s0,a4,.L64
 406:C:/Users/stapi/OneDrive/Desktop/GD32VW553/V1_MQTT_OK/GD32VW55X_Wifi_BLE_SDK/GD32VW55x_RELEASE_V1.0.2/MSDK/cloud/alicloud/src/infra/system\guider.c ****         {
 1278              		.loc 1 406 9 is_stmt 1
 1279              	.LBB79:
 1280              	.LBB80:
 183:C:/Users/stapi/OneDrive/Desktop/GD32VW553/V1_MQTT_OK/GD32VW55X_Wifi_BLE_SDK/GD32VW55x_RELEASE_V1.0.2/MSDK/cloud/alicloud/src/infra/system\guider.c **** }
 1281              		.loc 1 183 5
 183:C:/Users/stapi/OneDrive/Desktop/GD32VW553/V1_MQTT_OK/GD32VW55X_Wifi_BLE_SDK/GD32VW55x_RELEASE_V1.0.2/MSDK/cloud/alicloud/src/infra/system\guider.c **** }
 1282              		.loc 1 183 12 is_stmt 0
 1283 0086 37070000 		lui	a4,%hi(.LANCHOR2)
 1284 008a 03270700 		lw	a4,%lo(.LANCHOR2)(a4)
 1285              	.LBE80:
 1286              	.LBE79:
 406:C:/Users/stapi/OneDrive/Desktop/GD32VW553/V1_MQTT_OK/GD32VW55X_Wifi_BLE_SDK/GD32VW55x_RELEASE_V1.0.2/MSDK/cloud/alicloud/src/infra/system\guider.c ****         {
 1287              		.loc 1 406 12
 1288 008e 63038704 		beq	a4,s0,.L67
 410:C:/Users/stapi/OneDrive/Desktop/GD32VW553/V1_MQTT_OK/GD32VW55X_Wifi_BLE_SDK/GD32VW55x_RELEASE_V1.0.2/MSDK/cloud/alicloud/src/infra/system\guider.c ****         {
 1289              		.loc 1 410 14 is_stmt 1
 1290              	.LBE78:
 1291              	.LBE77:
 183:C:/Users/stapi/OneDrive/Desktop/GD32VW553/V1_MQTT_OK/GD32VW55X_Wifi_BLE_SDK/GD32VW55x_RELEASE_V1.0.2/MSDK/cloud/alicloud/src/infra/system\guider.c **** }
 1292              		.loc 1 183 5
 1293              	.LBB82:
 1294              	.LBB81:
 410:C:/Users/stapi/OneDrive/Desktop/GD32VW553/V1_MQTT_OK/GD32VW55X_Wifi_BLE_SDK/GD32VW55x_RELEASE_V1.0.2/MSDK/cloud/alicloud/src/infra/system\guider.c ****         {
 1295              		.loc 1 410 17 is_stmt 0
 1296 0092 6306F704 		beq	a4,a5,.L68
 416:C:/Users/stapi/OneDrive/Desktop/GD32VW553/V1_MQTT_OK/GD32VW55X_Wifi_BLE_SDK/GD32VW55x_RELEASE_V1.0.2/MSDK/cloud/alicloud/src/infra/system\guider.c ****         }
 1297              		.loc 1 416 20
 1298 0096 37050000 		lui	a0,%hi(.LC42)
 1299              	.LVL126:
 1300 009a 13050500 		addi	a0,a0,%lo(.LC42)
 1301 009e 79B7     		j	.L58
 1302              	.LVL127:
 1303              	.L64:
 421:C:/Users/stapi/OneDrive/Desktop/GD32VW553/V1_MQTT_OK/GD32VW55X_Wifi_BLE_SDK/GD32VW55x_RELEASE_V1.0.2/MSDK/cloud/alicloud/src/infra/system\guider.c ****         return NULL;
 1304              		.loc 1 421 9 is_stmt 1
 421:C:/Users/stapi/OneDrive/Desktop/GD32VW553/V1_MQTT_OK/GD32VW55X_Wifi_BLE_SDK/GD32VW55x_RELEASE_V1.0.2/MSDK/cloud/alicloud/src/infra/system\guider.c ****         return NULL;
 1305              		.loc 1 421 9
 1306 00a0 37050000 		lui	a0,%hi(.LC18)
 1307              	.LVL128:
 1308 00a4 13050500 		addi	a0,a0,%lo(.LC18)
 1309 00a8 97000000 		call	HAL_Printf
 1309      E7800000 
 1310              	.LVL129:
 421:C:/Users/stapi/OneDrive/Desktop/GD32VW553/V1_MQTT_OK/GD32VW55X_Wifi_BLE_SDK/GD32VW55x_RELEASE_V1.0.2/MSDK/cloud/alicloud/src/infra/system\guider.c ****         return NULL;
 1311              		.loc 1 421 9
 1312 00b0 37050000 		lui	a0,%hi(.LC43)
 1313 00b4 13050500 		addi	a0,a0,%lo(.LC43)
 1314 00b8 97000000 		call	HAL_Printf
 1314      E7800000 
 1315              	.LVL130:
 421:C:/Users/stapi/OneDrive/Desktop/GD32VW553/V1_MQTT_OK/GD32VW55X_Wifi_BLE_SDK/GD32VW55x_RELEASE_V1.0.2/MSDK/cloud/alicloud/src/infra/system\guider.c ****         return NULL;
 1316              		.loc 1 421 9
 1317 00c0 37050000 		lui	a0,%hi(.LC17)
 1318 00c4 13050500 		addi	a0,a0,%lo(.LC17)
 1319 00c8 97000000 		call	HAL_Printf
 1319      E7800000 
 1320              	.LVL131:
 421:C:/Users/stapi/OneDrive/Desktop/GD32VW553/V1_MQTT_OK/GD32VW55X_Wifi_BLE_SDK/GD32VW55x_RELEASE_V1.0.2/MSDK/cloud/alicloud/src/infra/system\guider.c ****         return NULL;
 1321              		.loc 1 421 9
 422:C:/Users/stapi/OneDrive/Desktop/GD32VW553/V1_MQTT_OK/GD32VW55X_Wifi_BLE_SDK/GD32VW55x_RELEASE_V1.0.2/MSDK/cloud/alicloud/src/infra/system\guider.c ****     }
 1322              		.loc 1 422 9
 422:C:/Users/stapi/OneDrive/Desktop/GD32VW553/V1_MQTT_OK/GD32VW55X_Wifi_BLE_SDK/GD32VW55x_RELEASE_V1.0.2/MSDK/cloud/alicloud/src/infra/system\guider.c ****     }
 1323              		.loc 1 422 16 is_stmt 0
 1324 00d0 0145     		li	a0,0
 1325 00d2 A9BF     		j	.L58
 1326              	.LVL132:
 1327              	.L67:
 1328              	.LBE81:
 1329              	.LBE82:
 393:C:/Users/stapi/OneDrive/Desktop/GD32VW553/V1_MQTT_OK/GD32VW55X_Wifi_BLE_SDK/GD32VW55x_RELEASE_V1.0.2/MSDK/cloud/alicloud/src/infra/system\guider.c ****         }
 1330              		.loc 1 393 20
 1331 00d4 37050000 		lui	a0,%hi(.LC39)
 1332              	.LVL133:
 1333 00d8 13050500 		addi	a0,a0,%lo(.LC39)
 1334 00dc 81BF     		j	.L58
 1335              	.LVL134:
 1336              	.L68:
 397:C:/Users/stapi/OneDrive/Desktop/GD32VW553/V1_MQTT_OK/GD32VW55X_Wifi_BLE_SDK/GD32VW55x_RELEASE_V1.0.2/MSDK/cloud/alicloud/src/infra/system\guider.c ****         }
 1337              		.loc 1 397 20
 1338 00de 37050000 		lui	a0,%hi(.LC41)
 1339              	.LVL135:
 1340 00e2 13050500 		addi	a0,a0,%lo(.LC41)
 1341 00e6 99B7     		j	.L58
 1342              		.cfi_endproc
 1343              	.LFE32:
 1345              		.section	.text.iotx_guider_set_custom_domain,"ax",@progbits
 1346              		.align	1
 1347              		.globl	iotx_guider_set_custom_domain
 1349              	iotx_guider_set_custom_domain:
 1350              	.LFB33:
 427:C:/Users/stapi/OneDrive/Desktop/GD32VW553/V1_MQTT_OK/GD32VW55X_Wifi_BLE_SDK/GD32VW55x_RELEASE_V1.0.2/MSDK/cloud/alicloud/src/infra/system\guider.c ****     if ((domain_type >= GUIDER_DOMAIN_MAX) || (domain == NULL))
 1351              		.loc 1 427 1 is_stmt 1
 1352              		.cfi_startproc
 1353              	.LVL136:
 428:C:/Users/stapi/OneDrive/Desktop/GD32VW553/V1_MQTT_OK/GD32VW55X_Wifi_BLE_SDK/GD32VW55x_RELEASE_V1.0.2/MSDK/cloud/alicloud/src/infra/system\guider.c ****     {
 1354              		.loc 1 428 5
 428:C:/Users/stapi/OneDrive/Desktop/GD32VW553/V1_MQTT_OK/GD32VW55X_Wifi_BLE_SDK/GD32VW55x_RELEASE_V1.0.2/MSDK/cloud/alicloud/src/infra/system\guider.c ****     {
 1355              		.loc 1 428 8 is_stmt 0
 1356 0000 8947     		li	a5,2
 1357 0002 63C0A706 		bgt	a0,a5,.L73
 427:C:/Users/stapi/OneDrive/Desktop/GD32VW553/V1_MQTT_OK/GD32VW55X_Wifi_BLE_SDK/GD32VW55x_RELEASE_V1.0.2/MSDK/cloud/alicloud/src/infra/system\guider.c ****     if ((domain_type >= GUIDER_DOMAIN_MAX) || (domain == NULL))
 1358              		.loc 1 427 1 discriminator 1
 1359 0006 17030000 		call	t0,__riscv_save_3
 1359      E7020300 
 1360              		.cfi_offset 18, -16
 1361              		.cfi_offset 9, -12
 1362              		.cfi_offset 8, -8
 1363              		.cfi_offset 1, -4
 1364              		.cfi_def_cfa_offset 16
 1365 000e 2A89     		mv	s2,a0
 1366 0010 2E84     		mv	s0,a1
 430:C:/Users/stapi/OneDrive/Desktop/GD32VW553/V1_MQTT_OK/GD32VW55X_Wifi_BLE_SDK/GD32VW55x_RELEASE_V1.0.2/MSDK/cloud/alicloud/src/infra/system\guider.c ****     }
 1367              		.loc 1 430 16 discriminator 1
 1368 0012 7D55     		li	a0,-1
 1369              	.LVL137:
 428:C:/Users/stapi/OneDrive/Desktop/GD32VW553/V1_MQTT_OK/GD32VW55X_Wifi_BLE_SDK/GD32VW55x_RELEASE_V1.0.2/MSDK/cloud/alicloud/src/infra/system\guider.c ****     {
 1370              		.loc 1 428 44 discriminator 1
 1371 0014 B9C1     		beq	a1,zero,.L71
 433:C:/Users/stapi/OneDrive/Desktop/GD32VW553/V1_MQTT_OK/GD32VW55X_Wifi_BLE_SDK/GD32VW55x_RELEASE_V1.0.2/MSDK/cloud/alicloud/src/infra/system\guider.c ****     if (len >= CUSTOME_DOMAIN_LEN_MAX)
 1372              		.loc 1 433 5 is_stmt 1
 433:C:/Users/stapi/OneDrive/Desktop/GD32VW553/V1_MQTT_OK/GD32VW55X_Wifi_BLE_SDK/GD32VW55x_RELEASE_V1.0.2/MSDK/cloud/alicloud/src/infra/system\guider.c ****     if (len >= CUSTOME_DOMAIN_LEN_MAX)
 1373              		.loc 1 433 15 is_stmt 0
 1374 0016 2E85     		mv	a0,a1
 1375 0018 97000000 		call	strlen
 1375      E7800000 
 1376              	.LVL138:
 1377 0020 AA84     		mv	s1,a0
 1378              	.LVL139:
 434:C:/Users/stapi/OneDrive/Desktop/GD32VW553/V1_MQTT_OK/GD32VW55X_Wifi_BLE_SDK/GD32VW55x_RELEASE_V1.0.2/MSDK/cloud/alicloud/src/infra/system\guider.c ****     {
 1379              		.loc 1 434 5 is_stmt 1
 434:C:/Users/stapi/OneDrive/Desktop/GD32VW553/V1_MQTT_OK/GD32VW55X_Wifi_BLE_SDK/GD32VW55x_RELEASE_V1.0.2/MSDK/cloud/alicloud/src/infra/system\guider.c ****     {
 1380              		.loc 1 434 8 is_stmt 0
 1381 0022 9307B003 		li	a5,59
 430:C:/Users/stapi/OneDrive/Desktop/GD32VW553/V1_MQTT_OK/GD32VW55X_Wifi_BLE_SDK/GD32VW55x_RELEASE_V1.0.2/MSDK/cloud/alicloud/src/infra/system\guider.c ****     }
 1382              		.loc 1 430 16
 1383 0026 7D55     		li	a0,-1
 434:C:/Users/stapi/OneDrive/Desktop/GD32VW553/V1_MQTT_OK/GD32VW55X_Wifi_BLE_SDK/GD32VW55x_RELEASE_V1.0.2/MSDK/cloud/alicloud/src/infra/system\guider.c ****     {
 1384              		.loc 1 434 8
 1385 0028 63E99702 		bgtu	s1,a5,.L71
 439:C:/Users/stapi/OneDrive/Desktop/GD32VW553/V1_MQTT_OK/GD32VW55X_Wifi_BLE_SDK/GD32VW55x_RELEASE_V1.0.2/MSDK/cloud/alicloud/src/infra/system\guider.c ****     memcpy(iotx_domain_custom[domain_type], domain, len);
 1386              		.loc 1 439 5 is_stmt 1
 439:C:/Users/stapi/OneDrive/Desktop/GD32VW553/V1_MQTT_OK/GD32VW55X_Wifi_BLE_SDK/GD32VW55x_RELEASE_V1.0.2/MSDK/cloud/alicloud/src/infra/system\guider.c ****     memcpy(iotx_domain_custom[domain_type], domain, len);
 1387              		.loc 1 439 30 is_stmt 0
 1388 002c B7070000 		lui	a5,%hi(.LANCHOR8)
 1389 0030 1307C003 		li	a4,60
 1390 0034 93870700 		addi	a5,a5,%lo(.LANCHOR8)
 1391 0038 FF17E9C4 		maddr32	a5, s2, a4
 439:C:/Users/stapi/OneDrive/Desktop/GD32VW553/V1_MQTT_OK/GD32VW55X_Wifi_BLE_SDK/GD32VW55x_RELEASE_V1.0.2/MSDK/cloud/alicloud/src/infra/system\guider.c ****     memcpy(iotx_domain_custom[domain_type], domain, len);
 1392              		.loc 1 439 5
 1393 003c 1306C003 		li	a2,60
 1394 0040 8145     		li	a1,0
 1395 0042 3E85     		mv	a0,a5
 1396 0044 97000000 		call	memset
 1396      E7800000 
 1397              	.LVL140:
 440:C:/Users/stapi/OneDrive/Desktop/GD32VW553/V1_MQTT_OK/GD32VW55X_Wifi_BLE_SDK/GD32VW55x_RELEASE_V1.0.2/MSDK/cloud/alicloud/src/infra/system\guider.c **** 
 1398              		.loc 1 440 5 is_stmt 1
 1399 004c 2686     		mv	a2,s1
 1400 004e A285     		mv	a1,s0
 1401 0050 97000000 		call	memcpy
 1401      E7800000 
 1402              	.LVL141:
 442:C:/Users/stapi/OneDrive/Desktop/GD32VW553/V1_MQTT_OK/GD32VW55X_Wifi_BLE_SDK/GD32VW55x_RELEASE_V1.0.2/MSDK/cloud/alicloud/src/infra/system\guider.c **** }
 1403              		.loc 1 442 5
 442:C:/Users/stapi/OneDrive/Desktop/GD32VW553/V1_MQTT_OK/GD32VW55X_Wifi_BLE_SDK/GD32VW55x_RELEASE_V1.0.2/MSDK/cloud/alicloud/src/infra/system\guider.c **** }
 1404              		.loc 1 442 12 is_stmt 0
 1405 0058 0145     		li	a0,0
 1406              	.LVL142:
 1407              	.L71:
 443:C:/Users/stapi/OneDrive/Desktop/GD32VW553/V1_MQTT_OK/GD32VW55X_Wifi_BLE_SDK/GD32VW55x_RELEASE_V1.0.2/MSDK/cloud/alicloud/src/infra/system\guider.c **** 
 1408              		.loc 1 443 1
 1409 005a 17030000 		tail	__riscv_restore_3
 1409      67000300 
 1410              		.cfi_restore 18
 1411              		.cfi_restore 9
 1412              		.cfi_restore 8
 1413              		.cfi_restore 1
 1414              		.cfi_def_cfa_offset 0
 1415              	.LVL143:
 1416              	.L73:
 430:C:/Users/stapi/OneDrive/Desktop/GD32VW553/V1_MQTT_OK/GD32VW55X_Wifi_BLE_SDK/GD32VW55x_RELEASE_V1.0.2/MSDK/cloud/alicloud/src/infra/system\guider.c ****     }
 1417              		.loc 1 430 16
 1418 0062 7D55     		li	a0,-1
 1419              	.LVL144:
 443:C:/Users/stapi/OneDrive/Desktop/GD32VW553/V1_MQTT_OK/GD32VW55X_Wifi_BLE_SDK/GD32VW55x_RELEASE_V1.0.2/MSDK/cloud/alicloud/src/infra/system\guider.c **** 
 1420              		.loc 1 443 1
 1421 0064 8280     		ret
 1422              		.cfi_endproc
 1423              	.LFE33:
 1425              		.section	.rodata.iotx_guider_fill_conn_string.str1.4,"aMS",@progbits,1
 1426              		.align	2
 1427              	.LC44:
 1428 0000 7263203C 		.string	"rc <= len"
 1428      3D206C65 
 1428      6E00
 1429 000a 0000     		.align	2
 1430              	.LC45:
 1431 000c 433A2F55 		.string	"C:/Users/stapi/OneDrive/Desktop/GD32VW553/V1_MQTT_OK/GD32VW55X_Wifi_BLE_SDK/GD32VW55x_REL
 1431      73657273 
 1431      2F737461 
 1431      70692F4F 
 1431      6E654472 
 1432 009f 00       		.align	2
 1433              	.LC46:
 1434 00a0 23232320 		.string	"### %s | %s(%d): ASSERT FAILED ###: %s is FALSE\r\n"
 1434      2573207C 
 1434      20257328 
 1434      2564293A 
 1434      20415353 
 1435 00d2 0000     		.align	2
 1436              	.LC47:
 1437 00d4 7C7C00   		.string	"||"
 1438              		.section	.text.iotx_guider_fill_conn_string,"ax",@progbits
 1439              		.align	1
 1440              		.globl	iotx_guider_fill_conn_string
 1442              	iotx_guider_fill_conn_string:
 1443              	.LFB36:
 541:C:/Users/stapi/OneDrive/Desktop/GD32VW553/V1_MQTT_OK/GD32VW55X_Wifi_BLE_SDK/GD32VW55x_RELEASE_V1.0.2/MSDK/cloud/alicloud/src/infra/system\guider.c ****     int rc = -1;
 1444              		.loc 1 541 1 is_stmt 1
 1445              		.cfi_startproc
 1446              	.LVL145:
 542:C:/Users/stapi/OneDrive/Desktop/GD32VW553/V1_MQTT_OK/GD32VW55X_Wifi_BLE_SDK/GD32VW55x_RELEASE_V1.0.2/MSDK/cloud/alicloud/src/infra/system\guider.c ****     va_list ap;
 1447              		.loc 1 542 5
 543:C:/Users/stapi/OneDrive/Desktop/GD32VW553/V1_MQTT_OK/GD32VW55X_Wifi_BLE_SDK/GD32VW55x_RELEASE_V1.0.2/MSDK/cloud/alicloud/src/infra/system\guider.c ****     char *ptr = NULL;
 1448              		.loc 1 543 5
 544:C:/Users/stapi/OneDrive/Desktop/GD32VW553/V1_MQTT_OK/GD32VW55X_Wifi_BLE_SDK/GD32VW55x_RELEASE_V1.0.2/MSDK/cloud/alicloud/src/infra/system\guider.c **** 
 1449              		.loc 1 544 5
 546:C:/Users/stapi/OneDrive/Desktop/GD32VW553/V1_MQTT_OK/GD32VW55X_Wifi_BLE_SDK/GD32VW55x_RELEASE_V1.0.2/MSDK/cloud/alicloud/src/infra/system\guider.c ****     rc = HAL_Vsnprintf(dst, len, fmt, ap);
 1450              		.loc 1 546 5
 541:C:/Users/stapi/OneDrive/Desktop/GD32VW553/V1_MQTT_OK/GD32VW55X_Wifi_BLE_SDK/GD32VW55x_RELEASE_V1.0.2/MSDK/cloud/alicloud/src/infra/system\guider.c ****     int rc = -1;
 1451              		.loc 1 541 1 is_stmt 0
 1452 0000 3971     		addi	sp,sp,-64
 1453              		.cfi_def_cfa_offset 64
 1454 0002 36D6     		sw	a3,44(sp)
 546:C:/Users/stapi/OneDrive/Desktop/GD32VW553/V1_MQTT_OK/GD32VW55X_Wifi_BLE_SDK/GD32VW55x_RELEASE_V1.0.2/MSDK/cloud/alicloud/src/infra/system\guider.c ****     rc = HAL_Vsnprintf(dst, len, fmt, ap);
 1455              		.loc 1 546 5
 1456 0004 7410     		addi	a3,sp,44
 541:C:/Users/stapi/OneDrive/Desktop/GD32VW553/V1_MQTT_OK/GD32VW55X_Wifi_BLE_SDK/GD32VW55x_RELEASE_V1.0.2/MSDK/cloud/alicloud/src/infra/system\guider.c ****     int rc = -1;
 1457              		.loc 1 541 1
 1458 0006 22CC     		sw	s0,24(sp)
 1459 0008 26CA     		sw	s1,20(sp)
 1460 000a 06CE     		sw	ra,28(sp)
 1461              		.cfi_offset 8, -40
 1462              		.cfi_offset 9, -44
 1463              		.cfi_offset 1, -36
 541:C:/Users/stapi/OneDrive/Desktop/GD32VW553/V1_MQTT_OK/GD32VW55X_Wifi_BLE_SDK/GD32VW55x_RELEASE_V1.0.2/MSDK/cloud/alicloud/src/infra/system\guider.c ****     int rc = -1;
 1464              		.loc 1 541 1
 1465 000c AE84     		mv	s1,a1
 1466 000e 2A84     		mv	s0,a0
 1467 0010 3AD8     		sw	a4,48(sp)
 1468 0012 3EDA     		sw	a5,52(sp)
 1469 0014 42DC     		sw	a6,56(sp)
 1470 0016 46DE     		sw	a7,60(sp)
 546:C:/Users/stapi/OneDrive/Desktop/GD32VW553/V1_MQTT_OK/GD32VW55X_Wifi_BLE_SDK/GD32VW55x_RELEASE_V1.0.2/MSDK/cloud/alicloud/src/infra/system\guider.c ****     rc = HAL_Vsnprintf(dst, len, fmt, ap);
 1471              		.loc 1 546 5
 1472 0018 36C6     		sw	a3,12(sp)
 547:C:/Users/stapi/OneDrive/Desktop/GD32VW553/V1_MQTT_OK/GD32VW55X_Wifi_BLE_SDK/GD32VW55x_RELEASE_V1.0.2/MSDK/cloud/alicloud/src/infra/system\guider.c ****     va_end(ap);
 1473              		.loc 1 547 5 is_stmt 1
 547:C:/Users/stapi/OneDrive/Desktop/GD32VW553/V1_MQTT_OK/GD32VW55X_Wifi_BLE_SDK/GD32VW55x_RELEASE_V1.0.2/MSDK/cloud/alicloud/src/infra/system\guider.c ****     va_end(ap);
 1474              		.loc 1 547 10 is_stmt 0
 1475 001a 97000000 		call	HAL_Vsnprintf
 1475      E7800000 
 1476              	.LVL146:
 548:C:/Users/stapi/OneDrive/Desktop/GD32VW553/V1_MQTT_OK/GD32VW55X_Wifi_BLE_SDK/GD32VW55x_RELEASE_V1.0.2/MSDK/cloud/alicloud/src/infra/system\guider.c ****     LITE_ASSERT(rc <= len);
 1477              		.loc 1 548 5 is_stmt 1
 549:C:/Users/stapi/OneDrive/Desktop/GD32VW553/V1_MQTT_OK/GD32VW55X_Wifi_BLE_SDK/GD32VW55x_RELEASE_V1.0.2/MSDK/cloud/alicloud/src/infra/system\guider.c **** 
 1478              		.loc 1 549 5
 549:C:/Users/stapi/OneDrive/Desktop/GD32VW553/V1_MQTT_OK/GD32VW55X_Wifi_BLE_SDK/GD32VW55x_RELEASE_V1.0.2/MSDK/cloud/alicloud/src/infra/system\guider.c **** 
 1479              		.loc 1 549 5
 1480 0022 63D8A402 		bge	s1,a0,.L81
 549:C:/Users/stapi/OneDrive/Desktop/GD32VW553/V1_MQTT_OK/GD32VW55X_Wifi_BLE_SDK/GD32VW55x_RELEASE_V1.0.2/MSDK/cloud/alicloud/src/infra/system\guider.c **** 
 1481              		.loc 1 549 5 discriminator 1
 1482 0026 37070000 		lui	a4,%hi(.LC44)
 1483 002a 37060000 		lui	a2,%hi(.LANCHOR9)
 1484 002e B7050000 		lui	a1,%hi(.LC45)
 1485 0032 37050000 		lui	a0,%hi(.LC46)
 1486              	.LVL147:
 1487 0036 13070700 		addi	a4,a4,%lo(.LC44)
 1488 003a 93065022 		li	a3,549
 1489 003e 13060600 		addi	a2,a2,%lo(.LANCHOR9)
 1490 0042 93850500 		addi	a1,a1,%lo(.LC45)
 1491 0046 13050500 		addi	a0,a0,%lo(.LC46)
 1492 004a 97000000 		call	HAL_Printf
 1492      E7800000 
 1493              	.LVL148:
 1494              	.L81:
 549:C:/Users/stapi/OneDrive/Desktop/GD32VW553/V1_MQTT_OK/GD32VW55X_Wifi_BLE_SDK/GD32VW55x_RELEASE_V1.0.2/MSDK/cloud/alicloud/src/infra/system\guider.c **** 
 1495              		.loc 1 549 5 discriminator 3
 551:C:/Users/stapi/OneDrive/Desktop/GD32VW553/V1_MQTT_OK/GD32VW55X_Wifi_BLE_SDK/GD32VW55x_RELEASE_V1.0.2/MSDK/cloud/alicloud/src/infra/system\guider.c ****     if (ptr)
 1496              		.loc 1 551 5 discriminator 3
 551:C:/Users/stapi/OneDrive/Desktop/GD32VW553/V1_MQTT_OK/GD32VW55X_Wifi_BLE_SDK/GD32VW55x_RELEASE_V1.0.2/MSDK/cloud/alicloud/src/infra/system\guider.c ****     if (ptr)
 1497              		.loc 1 551 11 is_stmt 0 discriminator 3
 1498 0052 B7050000 		lui	a1,%hi(.LC47)
 1499 0056 93850500 		addi	a1,a1,%lo(.LC47)
 1500 005a 2285     		mv	a0,s0
 1501 005c 97000000 		call	strstr
 1501      E7800000 
 1502              	.LVL149:
 552:C:/Users/stapi/OneDrive/Desktop/GD32VW553/V1_MQTT_OK/GD32VW55X_Wifi_BLE_SDK/GD32VW55x_RELEASE_V1.0.2/MSDK/cloud/alicloud/src/infra/system\guider.c ****     {
 1503              		.loc 1 552 5 is_stmt 1 discriminator 3
 552:C:/Users/stapi/OneDrive/Desktop/GD32VW553/V1_MQTT_OK/GD32VW55X_Wifi_BLE_SDK/GD32VW55x_RELEASE_V1.0.2/MSDK/cloud/alicloud/src/infra/system\guider.c ****     {
 1504              		.loc 1 552 8 is_stmt 0 discriminator 3
 1505 0064 19C1     		beq	a0,zero,.L82
 554:C:/Users/stapi/OneDrive/Desktop/GD32VW553/V1_MQTT_OK/GD32VW55X_Wifi_BLE_SDK/GD32VW55x_RELEASE_V1.0.2/MSDK/cloud/alicloud/src/infra/system\guider.c ****     }
 1506              		.loc 1 554 9 is_stmt 1
 554:C:/Users/stapi/OneDrive/Desktop/GD32VW553/V1_MQTT_OK/GD32VW55X_Wifi_BLE_SDK/GD32VW55x_RELEASE_V1.0.2/MSDK/cloud/alicloud/src/infra/system\guider.c ****     }
 1507              		.loc 1 554 14 is_stmt 0
 1508 0066 23000500 		sb	zero,0(a0)
 1509              	.L82:
 557:C:/Users/stapi/OneDrive/Desktop/GD32VW553/V1_MQTT_OK/GD32VW55X_Wifi_BLE_SDK/GD32VW55x_RELEASE_V1.0.2/MSDK/cloud/alicloud/src/infra/system\guider.c **** }
 1510              		.loc 1 557 5 is_stmt 1
 558:C:/Users/stapi/OneDrive/Desktop/GD32VW553/V1_MQTT_OK/GD32VW55X_Wifi_BLE_SDK/GD32VW55x_RELEASE_V1.0.2/MSDK/cloud/alicloud/src/infra/system\guider.c **** 
 1511              		.loc 1 558 1 is_stmt 0
 1512 006a F240     		lw	ra,28(sp)
 1513              		.cfi_restore 1
 1514 006c 6244     		lw	s0,24(sp)
 1515              		.cfi_restore 8
 1516              	.LVL150:
 1517 006e D244     		lw	s1,20(sp)
 1518              		.cfi_restore 9
 1519              	.LVL151:
 1520 0070 0145     		li	a0,0
 1521              	.LVL152:
 1522 0072 2161     		addi	sp,sp,64
 1523              		.cfi_def_cfa_offset 0
 1524 0074 8280     		jr	ra
 1525              		.cfi_endproc
 1526              	.LFE36:
 1528              		.section	.rodata.iotx_guider_authenticate.str1.4,"aMS",@progbits,1
 1529              		.align	2
 1530              	.LC48:
 1531 0000 636F6E6E 		.string	"conn_info"
 1531      5F696E66 
 1531      6F00
 1532 000a 0000     		.align	2
 1533              	.LC49:
 1534 000c 636F6E6E 		.string	"conn info inited!"
 1534      20696E66 
 1534      6F20696E 
 1534      69746564 
 1534      2100
 1535 001e 0000     		.align	2
 1536              	.LC50:
 1537 0020 64796E61 		.string	"dyna url:%s count:%d"
 1537      2075726C 
 1537      3A257320 
 1537      636F756E 
 1537      743A2564 
 1538 0035 000000   		.align	2
 1539              	.LC51:
 1540 0038 6E6F2064 		.string	"no dyna url in kv"
 1540      796E6120 
 1540      75726C20 
 1540      696E206B 
 1540      7600
 1541 004a 0000     		.align	2
 1542              	.LC52:
 1543 004c 32353234 		.string	"2524608000000"
 1543      36303830 
 1543      30303030 
 1543      3000
 1544 005a 0000     		.align	2
 1545              	.LC53:
 1546 005c 257300   		.string	"%s"
 1547 005f 00       		.align	2
 1548              	.LC54:
 1549 0060 68747470 		.string	"https://%s/auth/bootstrap/regionId/%d"
 1549      733A2F2F 
 1549      25732F61 
 1549      7574682F 
 1549      626F6F74 
 1550 0086 0000     		.align	2
 1551              	.LC55:
 1552 0088 68747470 		.string	"https://%s/auth/bootstrap"
 1552      733A2F2F 
 1552      25732F61 
 1552      7574682F 
 1552      626F6F74 
 1553 00a2 0000     		.align	2
 1554              	.LC56:
 1555 00a4 70726F64 		.string	"productKey=%s&deviceName=%s&clientId=%s&timestamp=%s&resources=mqtt"
 1555      7563744B 
 1555      65793D25 
 1555      73266465 
 1555      76696365 
 1556              		.align	2
 1557              	.LC57:
 1558 00e8 7263203C 		.string	"rc < GUIDER_PREAUTH_REQUEST_LEN"
 1558      20475549 
 1558      4445525F 
 1558      50524541 
 1558      5554485F 
 1559              		.align	2
 1560              	.LC58:
 1561 0108 7265715F 		.string	"req_str = '%s'"
 1561      73747220 
 1561      3D202725 
 1561      732700
 1562 0117 00       		.align	2
 1563              	.LC59:
 1564 0118 696F7478 		.string	"iotx_payload"
 1564      5F706179 
 1564      6C6F6164 
 1564      00
 1565 0125 000000   		.align	2
 1566              	.LC60:
 1567 0128 41636365 		.string	"Accept: application/json\r\n"
 1567      70743A20 
 1567      6170706C 
 1567      69636174 
 1567      696F6E2F 
 1568 0143 00       		.align	2
 1569              	.LC61:
 1570 0144 6170706C 		.string	"application/x-www-form-urlencoded;charset=utf-8"
 1570      69636174 
 1570      696F6E2F 
 1570      782D7777 
 1570      772D666F 
 1571              		.align	2
 1572              	.LC62:
 1573 0174 4D515454 		.string	"MQTT URL:"
 1573      2055524C 
 1573      3A00
 1574 017e 0000     		.align	2
 1575              	.LC63:
 1576 0180 7379732E 		.string	"sys.preauth"
 1576      70726561 
 1576      75746800 
 1577              		.align	2
 1578              	.LC64:
 1579 018c 636F6465 		.string	"code"
 1579      00
 1580 0191 000000   		.align	2
 1581              	.LC65:
 1582 0194 6E6F2063 		.string	"no code in resp"
 1582      6F646520 
 1582      696E2072 
 1582      65737000 
 1583              		.align	2
 1584              	.LC66:
 1585 01a4 7265745F 		.string	"ret_code = %d (!= 200), abort!"
 1585      636F6465 
 1585      203D2025 
 1585      64202821 
 1585      3D203230 
 1586 01c3 00       		.align	2
 1587              	.LC67:
 1588 01c4 64617461 		.string	"data.resources.mqtt.host"
 1588      2E726573 
 1588      6F757263 
 1588      65732E6D 
 1588      7174742E 
 1589 01dd 000000   		.align	2
 1590              	.LC68:
 1591 01e0 6E6F2072 		.string	"no resources.mqtt.host in resp"
 1591      65736F75 
 1591      72636573 
 1591      2E6D7174 
 1591      742E686F 
 1592 01ff 00       		.align	2
 1593              	.LC69:
 1594 0200 64617461 		.string	"data.resources.mqtt.port"
 1594      2E726573 
 1594      6F757263 
 1594      65732E6D 
 1594      7174742E 
 1595 0219 000000   		.align	2
 1596              	.LC70:
 1597 021c 6E6F2072 		.string	"no resources.mqtt.port in resp"
 1597      65736F75 
 1597      72636573 
 1597      2E6D7174 
 1597      742E706F 
 1598 023b 00       		.align	2
 1599              	.LC71:
 1600 023c 52657175 		.string	"Request MQTT URL failed:%d"
 1600      65737420 
 1600      4D515454 
 1600      2055524C 
 1600      20666169 
 1601 0257 00       		.align	2
 1602              	.LC72:
 1603 0258 696F742D 		.string	"iot-test-daily.iot-as-mqtt.unify.aliyuncs.com"
 1603      74657374 
 1603      2D646169 
 1603      6C792E69 
 1603      6F742D61 
 1604 0286 0000     		.align	2
 1605              	.LC73:
 1606 0288 3A2F2F00 		.string	"://"
 1607              		.align	2
 1608              	.LC74:
 1609 028c 686F7374 		.string	"host info err"
 1609      20696E66 
 1609      6F206572 
 1609      7200
 1610 029a 0000     		.align	2
 1611              	.LC75:
 1612 029c 636C6965 		.string	"clientId%sdeviceName%sproductKey%stimestamp%s"
 1612      6E744964 
 1612      25736465 
 1612      76696365 
 1612      4E616D65 
 1613 02ca 0000     		.align	2
 1614              	.LC76:
 1615 02cc 7263203C 		.string	"rc < GUIDER_SIGN_SOURCE_LEN"
 1615      20475549 
 1615      4445525F 
 1615      5349474E 
 1615      5F534F55 
 1616              		.align	2
 1617              	.LC77:
 1618 02e8 25732625 		.string	"%s&%s"
 1618      7300
 1619 02ee 0000     		.align	2
 1620              	.LC78:
 1621 02f0 2C726573 		.string	",reset=%d,tokenType=%d,token=%s"
 1621      65743D25 
 1621      642C746F 
 1621      6B656E54 
 1621      7970653D 
 1622              		.align	2
 1623              	.LC79:
 1624 0310 2C726573 		.string	",reset=%d"
 1624      65743D25 
 1624      6400
 1625 031a 0000     		.align	2
 1626              	.LC80:
 1627 031c 2C746F6B 		.string	",tokenType=%d,token=%s"
 1627      656E5479 
 1627      70653D25 
 1627      642C746F 
 1627      6B656E3D 
 1628 0333 00       		.align	2
 1629              	.LC81:
 1630 0334 25737C73 		.string	"%s|securemode=%d%s,_v=sdk-c-2.3.0_FY_1.6.6-9,timestamp=%s,signmethod=hmacsha1,lan=C,pid=%
 1630      65637572 
 1630      656D6F64 
 1630      653D2564 
 1630      25732C5F 
 1631 03a6 0000     		.align	2
 1632              	.LC82:
 1633 03a8 312E362E 		.string	"1.6.6-9"
 1633      362D3900 
 1634              		.align	2
 1635              	.LC83:
 1636 03b0 2C617574 		.string	",authtype=custom-ilop"
 1636      68747970 
 1636      653D6375 
 1636      73746F6D 
 1636      2D696C6F 
 1637 03c6 0000     		.align	2
 1638              	.LC84:
 1639 03c8 486F7374 		.string	"Host"
 1639      00
 1640 03cd 000000   		.align	2
 1641              	.LC85:
 1642 03d0 25313073 		.string	"%10s : %-s\r\n"
 1642      203A2025 
 1642      2D730D0A 
 1642      00
 1643 03dd 000000   		.align	2
 1644              	.LC86:
 1645 03e0 506F7274 		.string	"Port"
 1645      00
 1646 03e5 000000   		.align	2
 1647              	.LC87:
 1648 03e8 25313073 		.string	"%10s : %d\r\n"
 1648      203A2025 
 1648      640D0A00 
 1649              		.align	2
 1650              	.LC88:
 1651 03f4 436C6965 		.string	"ClientID"
 1651      6E744944 
 1651      00
 1652 03fd 000000   		.align	2
 1653              	.LC89:
 1654 0400 434100   		.string	"CA"
 1655 0403 00       		.align	2
 1656              	.LC90:
 1657 0404 25313073 		.string	"%10s : ('... %.16s ...')\r\n"
 1657      203A2028 
 1657      272E2E2E 
 1657      20252E31 
 1657      3673202E 
 1658 041f 00       		.align	2
 1659              	.LC91:
 1660 0420 67756964 		.string	"guider auth fail"
 1660      65722061 
 1660      75746820 
 1660      6661696C 
 1660      00
 1661              		.section	.text.iotx_guider_authenticate,"ax",@progbits
 1662              		.align	1
 1663              		.globl	iotx_guider_authenticate
 1665              	iotx_guider_authenticate:
 1666              	.LFB48:
 622:C:/Users/stapi/OneDrive/Desktop/GD32VW553/V1_MQTT_OK/GD32VW55X_Wifi_BLE_SDK/GD32VW55x_RELEASE_V1.0.2/MSDK/cloud/alicloud/src/infra/system\guider.c **** 
 623:C:/Users/stapi/OneDrive/Desktop/GD32VW553/V1_MQTT_OK/GD32VW55X_Wifi_BLE_SDK/GD32VW55x_RELEASE_V1.0.2/MSDK/cloud/alicloud/src/infra/system\guider.c **** static void guider_get_timestamp_str(char *buf, int len)
 624:C:/Users/stapi/OneDrive/Desktop/GD32VW553/V1_MQTT_OK/GD32VW55X_Wifi_BLE_SDK/GD32VW55x_RELEASE_V1.0.2/MSDK/cloud/alicloud/src/infra/system\guider.c **** {
 625:C:/Users/stapi/OneDrive/Desktop/GD32VW553/V1_MQTT_OK/GD32VW55X_Wifi_BLE_SDK/GD32VW55x_RELEASE_V1.0.2/MSDK/cloud/alicloud/src/infra/system\guider.c ****     HAL_Snprintf(buf, len, "%s", GUIDER_DEFAULT_TS_STR);
 626:C:/Users/stapi/OneDrive/Desktop/GD32VW553/V1_MQTT_OK/GD32VW55X_Wifi_BLE_SDK/GD32VW55x_RELEASE_V1.0.2/MSDK/cloud/alicloud/src/infra/system\guider.c **** 
 627:C:/Users/stapi/OneDrive/Desktop/GD32VW553/V1_MQTT_OK/GD32VW55X_Wifi_BLE_SDK/GD32VW55x_RELEASE_V1.0.2/MSDK/cloud/alicloud/src/infra/system\guider.c ****     return;
 628:C:/Users/stapi/OneDrive/Desktop/GD32VW553/V1_MQTT_OK/GD32VW55X_Wifi_BLE_SDK/GD32VW55x_RELEASE_V1.0.2/MSDK/cloud/alicloud/src/infra/system\guider.c **** }
 629:C:/Users/stapi/OneDrive/Desktop/GD32VW553/V1_MQTT_OK/GD32VW55X_Wifi_BLE_SDK/GD32VW55x_RELEASE_V1.0.2/MSDK/cloud/alicloud/src/infra/system\guider.c **** 
 630:C:/Users/stapi/OneDrive/Desktop/GD32VW553/V1_MQTT_OK/GD32VW55X_Wifi_BLE_SDK/GD32VW55x_RELEASE_V1.0.2/MSDK/cloud/alicloud/src/infra/system\guider.c **** static connect_method_e get_connect_method(char *p_mqtt_url)
 631:C:/Users/stapi/OneDrive/Desktop/GD32VW553/V1_MQTT_OK/GD32VW55X_Wifi_BLE_SDK/GD32VW55x_RELEASE_V1.0.2/MSDK/cloud/alicloud/src/infra/system\guider.c **** {
 632:C:/Users/stapi/OneDrive/Desktop/GD32VW553/V1_MQTT_OK/GD32VW55X_Wifi_BLE_SDK/GD32VW55x_RELEASE_V1.0.2/MSDK/cloud/alicloud/src/infra/system\guider.c ****     connect_method_e connect_method = CONNECT_PREAUTH;
 633:C:/Users/stapi/OneDrive/Desktop/GD32VW553/V1_MQTT_OK/GD32VW55X_Wifi_BLE_SDK/GD32VW55x_RELEASE_V1.0.2/MSDK/cloud/alicloud/src/infra/system\guider.c **** 
 634:C:/Users/stapi/OneDrive/Desktop/GD32VW553/V1_MQTT_OK/GD32VW55X_Wifi_BLE_SDK/GD32VW55x_RELEASE_V1.0.2/MSDK/cloud/alicloud/src/infra/system\guider.c ****     if (GUIDER_ENV_DAILY == iotx_guider_get_env())
 635:C:/Users/stapi/OneDrive/Desktop/GD32VW553/V1_MQTT_OK/GD32VW55X_Wifi_BLE_SDK/GD32VW55x_RELEASE_V1.0.2/MSDK/cloud/alicloud/src/infra/system\guider.c ****     {
 636:C:/Users/stapi/OneDrive/Desktop/GD32VW553/V1_MQTT_OK/GD32VW55X_Wifi_BLE_SDK/GD32VW55x_RELEASE_V1.0.2/MSDK/cloud/alicloud/src/infra/system\guider.c ****         return CONNECT_DIRECT;
 637:C:/Users/stapi/OneDrive/Desktop/GD32VW553/V1_MQTT_OK/GD32VW55X_Wifi_BLE_SDK/GD32VW55x_RELEASE_V1.0.2/MSDK/cloud/alicloud/src/infra/system\guider.c ****     }
 638:C:/Users/stapi/OneDrive/Desktop/GD32VW553/V1_MQTT_OK/GD32VW55X_Wifi_BLE_SDK/GD32VW55x_RELEASE_V1.0.2/MSDK/cloud/alicloud/src/infra/system\guider.c **** 
 639:C:/Users/stapi/OneDrive/Desktop/GD32VW553/V1_MQTT_OK/GD32VW55X_Wifi_BLE_SDK/GD32VW55x_RELEASE_V1.0.2/MSDK/cloud/alicloud/src/infra/system\guider.c ****     if (p_mqtt_url && strlen(p_mqtt_url) > 0)
 640:C:/Users/stapi/OneDrive/Desktop/GD32VW553/V1_MQTT_OK/GD32VW55X_Wifi_BLE_SDK/GD32VW55x_RELEASE_V1.0.2/MSDK/cloud/alicloud/src/infra/system\guider.c ****     {
 641:C:/Users/stapi/OneDrive/Desktop/GD32VW553/V1_MQTT_OK/GD32VW55X_Wifi_BLE_SDK/GD32VW55x_RELEASE_V1.0.2/MSDK/cloud/alicloud/src/infra/system\guider.c ****         connect_method = CONNECT_DIRECT;
 642:C:/Users/stapi/OneDrive/Desktop/GD32VW553/V1_MQTT_OK/GD32VW55X_Wifi_BLE_SDK/GD32VW55x_RELEASE_V1.0.2/MSDK/cloud/alicloud/src/infra/system\guider.c ****     }
 643:C:/Users/stapi/OneDrive/Desktop/GD32VW553/V1_MQTT_OK/GD32VW55X_Wifi_BLE_SDK/GD32VW55x_RELEASE_V1.0.2/MSDK/cloud/alicloud/src/infra/system\guider.c **** 
 644:C:/Users/stapi/OneDrive/Desktop/GD32VW553/V1_MQTT_OK/GD32VW55X_Wifi_BLE_SDK/GD32VW55x_RELEASE_V1.0.2/MSDK/cloud/alicloud/src/infra/system\guider.c **** #ifdef SUPPORT_ITLS
 645:C:/Users/stapi/OneDrive/Desktop/GD32VW553/V1_MQTT_OK/GD32VW55X_Wifi_BLE_SDK/GD32VW55x_RELEASE_V1.0.2/MSDK/cloud/alicloud/src/infra/system\guider.c ****     return CONNECT_DIRECT;
 646:C:/Users/stapi/OneDrive/Desktop/GD32VW553/V1_MQTT_OK/GD32VW55X_Wifi_BLE_SDK/GD32VW55x_RELEASE_V1.0.2/MSDK/cloud/alicloud/src/infra/system\guider.c **** #else
 647:C:/Users/stapi/OneDrive/Desktop/GD32VW553/V1_MQTT_OK/GD32VW55X_Wifi_BLE_SDK/GD32VW55x_RELEASE_V1.0.2/MSDK/cloud/alicloud/src/infra/system\guider.c ****     return connect_method;
 648:C:/Users/stapi/OneDrive/Desktop/GD32VW553/V1_MQTT_OK/GD32VW55X_Wifi_BLE_SDK/GD32VW55x_RELEASE_V1.0.2/MSDK/cloud/alicloud/src/infra/system\guider.c **** #endif
 649:C:/Users/stapi/OneDrive/Desktop/GD32VW553/V1_MQTT_OK/GD32VW55X_Wifi_BLE_SDK/GD32VW55x_RELEASE_V1.0.2/MSDK/cloud/alicloud/src/infra/system\guider.c **** }
 650:C:/Users/stapi/OneDrive/Desktop/GD32VW553/V1_MQTT_OK/GD32VW55X_Wifi_BLE_SDK/GD32VW55x_RELEASE_V1.0.2/MSDK/cloud/alicloud/src/infra/system\guider.c **** 
 651:C:/Users/stapi/OneDrive/Desktop/GD32VW553/V1_MQTT_OK/GD32VW55X_Wifi_BLE_SDK/GD32VW55x_RELEASE_V1.0.2/MSDK/cloud/alicloud/src/infra/system\guider.c **** static secure_mode_e guider_get_secure_mode(connect_method_e connect_method)
 652:C:/Users/stapi/OneDrive/Desktop/GD32VW553/V1_MQTT_OK/GD32VW55X_Wifi_BLE_SDK/GD32VW55x_RELEASE_V1.0.2/MSDK/cloud/alicloud/src/infra/system\guider.c **** {
 653:C:/Users/stapi/OneDrive/Desktop/GD32VW553/V1_MQTT_OK/GD32VW55X_Wifi_BLE_SDK/GD32VW55x_RELEASE_V1.0.2/MSDK/cloud/alicloud/src/infra/system\guider.c ****     secure_mode_e secure_mode = MODE_TLS_GUIDER;
 654:C:/Users/stapi/OneDrive/Desktop/GD32VW553/V1_MQTT_OK/GD32VW55X_Wifi_BLE_SDK/GD32VW55x_RELEASE_V1.0.2/MSDK/cloud/alicloud/src/infra/system\guider.c **** 
 655:C:/Users/stapi/OneDrive/Desktop/GD32VW553/V1_MQTT_OK/GD32VW55X_Wifi_BLE_SDK/GD32VW55x_RELEASE_V1.0.2/MSDK/cloud/alicloud/src/infra/system\guider.c ****     if (CONNECT_PREAUTH == connect_method)
 656:C:/Users/stapi/OneDrive/Desktop/GD32VW553/V1_MQTT_OK/GD32VW55X_Wifi_BLE_SDK/GD32VW55x_RELEASE_V1.0.2/MSDK/cloud/alicloud/src/infra/system\guider.c ****     {
 657:C:/Users/stapi/OneDrive/Desktop/GD32VW553/V1_MQTT_OK/GD32VW55X_Wifi_BLE_SDK/GD32VW55x_RELEASE_V1.0.2/MSDK/cloud/alicloud/src/infra/system\guider.c **** #ifdef SUPPORT_TLS
 658:C:/Users/stapi/OneDrive/Desktop/GD32VW553/V1_MQTT_OK/GD32VW55X_Wifi_BLE_SDK/GD32VW55x_RELEASE_V1.0.2/MSDK/cloud/alicloud/src/infra/system\guider.c ****         secure_mode = MODE_TLS_GUIDER;
 659:C:/Users/stapi/OneDrive/Desktop/GD32VW553/V1_MQTT_OK/GD32VW55X_Wifi_BLE_SDK/GD32VW55x_RELEASE_V1.0.2/MSDK/cloud/alicloud/src/infra/system\guider.c **** #else
 660:C:/Users/stapi/OneDrive/Desktop/GD32VW553/V1_MQTT_OK/GD32VW55X_Wifi_BLE_SDK/GD32VW55x_RELEASE_V1.0.2/MSDK/cloud/alicloud/src/infra/system\guider.c ****         secure_mode = MODE_TCP_GUIDER_PLAIN;
 661:C:/Users/stapi/OneDrive/Desktop/GD32VW553/V1_MQTT_OK/GD32VW55X_Wifi_BLE_SDK/GD32VW55x_RELEASE_V1.0.2/MSDK/cloud/alicloud/src/infra/system\guider.c **** #endif
 662:C:/Users/stapi/OneDrive/Desktop/GD32VW553/V1_MQTT_OK/GD32VW55X_Wifi_BLE_SDK/GD32VW55x_RELEASE_V1.0.2/MSDK/cloud/alicloud/src/infra/system\guider.c ****     }
 663:C:/Users/stapi/OneDrive/Desktop/GD32VW553/V1_MQTT_OK/GD32VW55X_Wifi_BLE_SDK/GD32VW55x_RELEASE_V1.0.2/MSDK/cloud/alicloud/src/infra/system\guider.c ****     else
 664:C:/Users/stapi/OneDrive/Desktop/GD32VW553/V1_MQTT_OK/GD32VW55X_Wifi_BLE_SDK/GD32VW55x_RELEASE_V1.0.2/MSDK/cloud/alicloud/src/infra/system\guider.c ****     {
 665:C:/Users/stapi/OneDrive/Desktop/GD32VW553/V1_MQTT_OK/GD32VW55X_Wifi_BLE_SDK/GD32VW55x_RELEASE_V1.0.2/MSDK/cloud/alicloud/src/infra/system\guider.c **** #ifdef SUPPORT_ITLS
 666:C:/Users/stapi/OneDrive/Desktop/GD32VW553/V1_MQTT_OK/GD32VW55X_Wifi_BLE_SDK/GD32VW55x_RELEASE_V1.0.2/MSDK/cloud/alicloud/src/infra/system\guider.c ****         secure_mode = MODE_ITLS_DNS_ID2;
 667:C:/Users/stapi/OneDrive/Desktop/GD32VW553/V1_MQTT_OK/GD32VW55X_Wifi_BLE_SDK/GD32VW55x_RELEASE_V1.0.2/MSDK/cloud/alicloud/src/infra/system\guider.c **** #else
 668:C:/Users/stapi/OneDrive/Desktop/GD32VW553/V1_MQTT_OK/GD32VW55X_Wifi_BLE_SDK/GD32VW55x_RELEASE_V1.0.2/MSDK/cloud/alicloud/src/infra/system\guider.c **** #ifdef SUPPORT_TLS
 669:C:/Users/stapi/OneDrive/Desktop/GD32VW553/V1_MQTT_OK/GD32VW55X_Wifi_BLE_SDK/GD32VW55x_RELEASE_V1.0.2/MSDK/cloud/alicloud/src/infra/system\guider.c ****         secure_mode = MODE_TLS_DIRECT;
 670:C:/Users/stapi/OneDrive/Desktop/GD32VW553/V1_MQTT_OK/GD32VW55X_Wifi_BLE_SDK/GD32VW55x_RELEASE_V1.0.2/MSDK/cloud/alicloud/src/infra/system\guider.c **** #else
 671:C:/Users/stapi/OneDrive/Desktop/GD32VW553/V1_MQTT_OK/GD32VW55X_Wifi_BLE_SDK/GD32VW55x_RELEASE_V1.0.2/MSDK/cloud/alicloud/src/infra/system\guider.c ****         secure_mode = MODE_TCP_DIRECT_PLAIN;
 672:C:/Users/stapi/OneDrive/Desktop/GD32VW553/V1_MQTT_OK/GD32VW55X_Wifi_BLE_SDK/GD32VW55x_RELEASE_V1.0.2/MSDK/cloud/alicloud/src/infra/system\guider.c **** #endif
 673:C:/Users/stapi/OneDrive/Desktop/GD32VW553/V1_MQTT_OK/GD32VW55X_Wifi_BLE_SDK/GD32VW55x_RELEASE_V1.0.2/MSDK/cloud/alicloud/src/infra/system\guider.c **** #endif
 674:C:/Users/stapi/OneDrive/Desktop/GD32VW553/V1_MQTT_OK/GD32VW55X_Wifi_BLE_SDK/GD32VW55x_RELEASE_V1.0.2/MSDK/cloud/alicloud/src/infra/system\guider.c ****     }
 675:C:/Users/stapi/OneDrive/Desktop/GD32VW553/V1_MQTT_OK/GD32VW55X_Wifi_BLE_SDK/GD32VW55x_RELEASE_V1.0.2/MSDK/cloud/alicloud/src/infra/system\guider.c **** 
 676:C:/Users/stapi/OneDrive/Desktop/GD32VW553/V1_MQTT_OK/GD32VW55X_Wifi_BLE_SDK/GD32VW55x_RELEASE_V1.0.2/MSDK/cloud/alicloud/src/infra/system\guider.c ****     return secure_mode;
 677:C:/Users/stapi/OneDrive/Desktop/GD32VW553/V1_MQTT_OK/GD32VW55X_Wifi_BLE_SDK/GD32VW55x_RELEASE_V1.0.2/MSDK/cloud/alicloud/src/infra/system\guider.c **** }
 678:C:/Users/stapi/OneDrive/Desktop/GD32VW553/V1_MQTT_OK/GD32VW55X_Wifi_BLE_SDK/GD32VW55x_RELEASE_V1.0.2/MSDK/cloud/alicloud/src/infra/system\guider.c **** 
 679:C:/Users/stapi/OneDrive/Desktop/GD32VW553/V1_MQTT_OK/GD32VW55X_Wifi_BLE_SDK/GD32VW55x_RELEASE_V1.0.2/MSDK/cloud/alicloud/src/infra/system\guider.c **** static int guider_set_auth_req_str(char *request_buf, iotx_device_info_t *p_dev, char ts[])
 680:C:/Users/stapi/OneDrive/Desktop/GD32VW553/V1_MQTT_OK/GD32VW55X_Wifi_BLE_SDK/GD32VW55x_RELEASE_V1.0.2/MSDK/cloud/alicloud/src/infra/system\guider.c **** {
 681:C:/Users/stapi/OneDrive/Desktop/GD32VW553/V1_MQTT_OK/GD32VW55X_Wifi_BLE_SDK/GD32VW55x_RELEASE_V1.0.2/MSDK/cloud/alicloud/src/infra/system\guider.c ****     int rc = -1;
 682:C:/Users/stapi/OneDrive/Desktop/GD32VW553/V1_MQTT_OK/GD32VW55X_Wifi_BLE_SDK/GD32VW55x_RELEASE_V1.0.2/MSDK/cloud/alicloud/src/infra/system\guider.c **** 
 683:C:/Users/stapi/OneDrive/Desktop/GD32VW553/V1_MQTT_OK/GD32VW55X_Wifi_BLE_SDK/GD32VW55x_RELEASE_V1.0.2/MSDK/cloud/alicloud/src/infra/system\guider.c ****     rc = HAL_Snprintf(request_buf, GUIDER_PREAUTH_REQUEST_LEN,
 684:C:/Users/stapi/OneDrive/Desktop/GD32VW553/V1_MQTT_OK/GD32VW55X_Wifi_BLE_SDK/GD32VW55x_RELEASE_V1.0.2/MSDK/cloud/alicloud/src/infra/system\guider.c ****                       "productKey=%s&"
 685:C:/Users/stapi/OneDrive/Desktop/GD32VW553/V1_MQTT_OK/GD32VW55X_Wifi_BLE_SDK/GD32VW55x_RELEASE_V1.0.2/MSDK/cloud/alicloud/src/infra/system\guider.c ****                       "deviceName=%s&"
 686:C:/Users/stapi/OneDrive/Desktop/GD32VW553/V1_MQTT_OK/GD32VW55X_Wifi_BLE_SDK/GD32VW55x_RELEASE_V1.0.2/MSDK/cloud/alicloud/src/infra/system\guider.c ****                       "clientId=%s&"
 687:C:/Users/stapi/OneDrive/Desktop/GD32VW553/V1_MQTT_OK/GD32VW55X_Wifi_BLE_SDK/GD32VW55x_RELEASE_V1.0.2/MSDK/cloud/alicloud/src/infra/system\guider.c ****                       "timestamp=%s&"
 688:C:/Users/stapi/OneDrive/Desktop/GD32VW553/V1_MQTT_OK/GD32VW55X_Wifi_BLE_SDK/GD32VW55x_RELEASE_V1.0.2/MSDK/cloud/alicloud/src/infra/system\guider.c ****                       "resources=mqtt",
 689:C:/Users/stapi/OneDrive/Desktop/GD32VW553/V1_MQTT_OK/GD32VW55X_Wifi_BLE_SDK/GD32VW55x_RELEASE_V1.0.2/MSDK/cloud/alicloud/src/infra/system\guider.c ****                       p_dev->product_key, p_dev->device_name, p_dev->device_id, ts);
 690:C:/Users/stapi/OneDrive/Desktop/GD32VW553/V1_MQTT_OK/GD32VW55X_Wifi_BLE_SDK/GD32VW55x_RELEASE_V1.0.2/MSDK/cloud/alicloud/src/infra/system\guider.c **** 
 691:C:/Users/stapi/OneDrive/Desktop/GD32VW553/V1_MQTT_OK/GD32VW55X_Wifi_BLE_SDK/GD32VW55x_RELEASE_V1.0.2/MSDK/cloud/alicloud/src/infra/system\guider.c ****     LITE_ASSERT(rc < GUIDER_PREAUTH_REQUEST_LEN);
 692:C:/Users/stapi/OneDrive/Desktop/GD32VW553/V1_MQTT_OK/GD32VW55X_Wifi_BLE_SDK/GD32VW55x_RELEASE_V1.0.2/MSDK/cloud/alicloud/src/infra/system\guider.c **** 
 693:C:/Users/stapi/OneDrive/Desktop/GD32VW553/V1_MQTT_OK/GD32VW55X_Wifi_BLE_SDK/GD32VW55x_RELEASE_V1.0.2/MSDK/cloud/alicloud/src/infra/system\guider.c ****     return 0;
 694:C:/Users/stapi/OneDrive/Desktop/GD32VW553/V1_MQTT_OK/GD32VW55X_Wifi_BLE_SDK/GD32VW55x_RELEASE_V1.0.2/MSDK/cloud/alicloud/src/infra/system\guider.c **** }
 695:C:/Users/stapi/OneDrive/Desktop/GD32VW553/V1_MQTT_OK/GD32VW55X_Wifi_BLE_SDK/GD32VW55x_RELEASE_V1.0.2/MSDK/cloud/alicloud/src/infra/system\guider.c **** 
 696:C:/Users/stapi/OneDrive/Desktop/GD32VW553/V1_MQTT_OK/GD32VW55X_Wifi_BLE_SDK/GD32VW55x_RELEASE_V1.0.2/MSDK/cloud/alicloud/src/infra/system\guider.c **** static int guider_get_host_port(
 697:C:/Users/stapi/OneDrive/Desktop/GD32VW553/V1_MQTT_OK/GD32VW55X_Wifi_BLE_SDK/GD32VW55x_RELEASE_V1.0.2/MSDK/cloud/alicloud/src/infra/system\guider.c ****     const char *guider_addr,
 698:C:/Users/stapi/OneDrive/Desktop/GD32VW553/V1_MQTT_OK/GD32VW55X_Wifi_BLE_SDK/GD32VW55x_RELEASE_V1.0.2/MSDK/cloud/alicloud/src/infra/system\guider.c ****     const char *request_string,
 699:C:/Users/stapi/OneDrive/Desktop/GD32VW553/V1_MQTT_OK/GD32VW55X_Wifi_BLE_SDK/GD32VW55x_RELEASE_V1.0.2/MSDK/cloud/alicloud/src/infra/system\guider.c ****     char *host,
 700:C:/Users/stapi/OneDrive/Desktop/GD32VW553/V1_MQTT_OK/GD32VW55X_Wifi_BLE_SDK/GD32VW55x_RELEASE_V1.0.2/MSDK/cloud/alicloud/src/infra/system\guider.c ****     uint16_t *pport)
 701:C:/Users/stapi/OneDrive/Desktop/GD32VW553/V1_MQTT_OK/GD32VW55X_Wifi_BLE_SDK/GD32VW55x_RELEASE_V1.0.2/MSDK/cloud/alicloud/src/infra/system\guider.c **** {
 702:C:/Users/stapi/OneDrive/Desktop/GD32VW553/V1_MQTT_OK/GD32VW55X_Wifi_BLE_SDK/GD32VW55x_RELEASE_V1.0.2/MSDK/cloud/alicloud/src/infra/system\guider.c ****     int ret = -1;
 703:C:/Users/stapi/OneDrive/Desktop/GD32VW553/V1_MQTT_OK/GD32VW55X_Wifi_BLE_SDK/GD32VW55x_RELEASE_V1.0.2/MSDK/cloud/alicloud/src/infra/system\guider.c ****     int iotx_port = 443;
 704:C:/Users/stapi/OneDrive/Desktop/GD32VW553/V1_MQTT_OK/GD32VW55X_Wifi_BLE_SDK/GD32VW55x_RELEASE_V1.0.2/MSDK/cloud/alicloud/src/infra/system\guider.c ****     int ret_code = 0;
 705:C:/Users/stapi/OneDrive/Desktop/GD32VW553/V1_MQTT_OK/GD32VW55X_Wifi_BLE_SDK/GD32VW55x_RELEASE_V1.0.2/MSDK/cloud/alicloud/src/infra/system\guider.c ****     char port_str[6];
 706:C:/Users/stapi/OneDrive/Desktop/GD32VW553/V1_MQTT_OK/GD32VW55X_Wifi_BLE_SDK/GD32VW55x_RELEASE_V1.0.2/MSDK/cloud/alicloud/src/infra/system\guider.c ****     char *iotx_payload = NULL;
 707:C:/Users/stapi/OneDrive/Desktop/GD32VW553/V1_MQTT_OK/GD32VW55X_Wifi_BLE_SDK/GD32VW55x_RELEASE_V1.0.2/MSDK/cloud/alicloud/src/infra/system\guider.c ****     const char *pvalue;
 708:C:/Users/stapi/OneDrive/Desktop/GD32VW553/V1_MQTT_OK/GD32VW55X_Wifi_BLE_SDK/GD32VW55x_RELEASE_V1.0.2/MSDK/cloud/alicloud/src/infra/system\guider.c **** 
 709:C:/Users/stapi/OneDrive/Desktop/GD32VW553/V1_MQTT_OK/GD32VW55X_Wifi_BLE_SDK/GD32VW55x_RELEASE_V1.0.2/MSDK/cloud/alicloud/src/infra/system\guider.c **** #ifndef SUPPORT_TLS
 710:C:/Users/stapi/OneDrive/Desktop/GD32VW553/V1_MQTT_OK/GD32VW55X_Wifi_BLE_SDK/GD32VW55x_RELEASE_V1.0.2/MSDK/cloud/alicloud/src/infra/system\guider.c ****     iotx_port = 80;
 711:C:/Users/stapi/OneDrive/Desktop/GD32VW553/V1_MQTT_OK/GD32VW55X_Wifi_BLE_SDK/GD32VW55x_RELEASE_V1.0.2/MSDK/cloud/alicloud/src/infra/system\guider.c **** #endif
 712:C:/Users/stapi/OneDrive/Desktop/GD32VW553/V1_MQTT_OK/GD32VW55X_Wifi_BLE_SDK/GD32VW55x_RELEASE_V1.0.2/MSDK/cloud/alicloud/src/infra/system\guider.c **** 
 713:C:/Users/stapi/OneDrive/Desktop/GD32VW553/V1_MQTT_OK/GD32VW55X_Wifi_BLE_SDK/GD32VW55x_RELEASE_V1.0.2/MSDK/cloud/alicloud/src/infra/system\guider.c **** #if defined(TEST_OTA_PRE)
 714:C:/Users/stapi/OneDrive/Desktop/GD32VW553/V1_MQTT_OK/GD32VW55X_Wifi_BLE_SDK/GD32VW55x_RELEASE_V1.0.2/MSDK/cloud/alicloud/src/infra/system\guider.c ****     iotx_port = 80;
 715:C:/Users/stapi/OneDrive/Desktop/GD32VW553/V1_MQTT_OK/GD32VW55X_Wifi_BLE_SDK/GD32VW55x_RELEASE_V1.0.2/MSDK/cloud/alicloud/src/infra/system\guider.c **** #endif
 716:C:/Users/stapi/OneDrive/Desktop/GD32VW553/V1_MQTT_OK/GD32VW55X_Wifi_BLE_SDK/GD32VW55x_RELEASE_V1.0.2/MSDK/cloud/alicloud/src/infra/system\guider.c **** 
 717:C:/Users/stapi/OneDrive/Desktop/GD32VW553/V1_MQTT_OK/GD32VW55X_Wifi_BLE_SDK/GD32VW55x_RELEASE_V1.0.2/MSDK/cloud/alicloud/src/infra/system\guider.c ****     /*
 718:C:/Users/stapi/OneDrive/Desktop/GD32VW553/V1_MQTT_OK/GD32VW55X_Wifi_BLE_SDK/GD32VW55x_RELEASE_V1.0.2/MSDK/cloud/alicloud/src/infra/system\guider.c ****     {
 719:C:/Users/stapi/OneDrive/Desktop/GD32VW553/V1_MQTT_OK/GD32VW55X_Wifi_BLE_SDK/GD32VW55x_RELEASE_V1.0.2/MSDK/cloud/alicloud/src/infra/system\guider.c ****         "code": 200,
 720:C:/Users/stapi/OneDrive/Desktop/GD32VW553/V1_MQTT_OK/GD32VW55X_Wifi_BLE_SDK/GD32VW55x_RELEASE_V1.0.2/MSDK/cloud/alicloud/src/infra/system\guider.c ****         "data": {
 721:C:/Users/stapi/OneDrive/Desktop/GD32VW553/V1_MQTT_OK/GD32VW55X_Wifi_BLE_SDK/GD32VW55x_RELEASE_V1.0.2/MSDK/cloud/alicloud/src/infra/system\guider.c ****             "resources": {
 722:C:/Users/stapi/OneDrive/Desktop/GD32VW553/V1_MQTT_OK/GD32VW55X_Wifi_BLE_SDK/GD32VW55x_RELEASE_V1.0.2/MSDK/cloud/alicloud/src/infra/system\guider.c ****                 "mqtt": {
 723:C:/Users/stapi/OneDrive/Desktop/GD32VW553/V1_MQTT_OK/GD32VW55X_Wifi_BLE_SDK/GD32VW55x_RELEASE_V1.0.2/MSDK/cloud/alicloud/src/infra/system\guider.c ****                         "host":"public.iot-as-mqtt.cn-shanghai.aliyuncs.com",
 724:C:/Users/stapi/OneDrive/Desktop/GD32VW553/V1_MQTT_OK/GD32VW55X_Wifi_BLE_SDK/GD32VW55x_RELEASE_V1.0.2/MSDK/cloud/alicloud/src/infra/system\guider.c ****                         "port":1883
 725:C:/Users/stapi/OneDrive/Desktop/GD32VW553/V1_MQTT_OK/GD32VW55X_Wifi_BLE_SDK/GD32VW55x_RELEASE_V1.0.2/MSDK/cloud/alicloud/src/infra/system\guider.c ****                     }
 726:C:/Users/stapi/OneDrive/Desktop/GD32VW553/V1_MQTT_OK/GD32VW55X_Wifi_BLE_SDK/GD32VW55x_RELEASE_V1.0.2/MSDK/cloud/alicloud/src/infra/system\guider.c ****                 }
 727:C:/Users/stapi/OneDrive/Desktop/GD32VW553/V1_MQTT_OK/GD32VW55X_Wifi_BLE_SDK/GD32VW55x_RELEASE_V1.0.2/MSDK/cloud/alicloud/src/infra/system\guider.c ****         },
 728:C:/Users/stapi/OneDrive/Desktop/GD32VW553/V1_MQTT_OK/GD32VW55X_Wifi_BLE_SDK/GD32VW55x_RELEASE_V1.0.2/MSDK/cloud/alicloud/src/infra/system\guider.c ****         "message":"success"
 729:C:/Users/stapi/OneDrive/Desktop/GD32VW553/V1_MQTT_OK/GD32VW55X_Wifi_BLE_SDK/GD32VW55x_RELEASE_V1.0.2/MSDK/cloud/alicloud/src/infra/system\guider.c ****     }
 730:C:/Users/stapi/OneDrive/Desktop/GD32VW553/V1_MQTT_OK/GD32VW55X_Wifi_BLE_SDK/GD32VW55x_RELEASE_V1.0.2/MSDK/cloud/alicloud/src/infra/system\guider.c ****     */
 731:C:/Users/stapi/OneDrive/Desktop/GD32VW553/V1_MQTT_OK/GD32VW55X_Wifi_BLE_SDK/GD32VW55x_RELEASE_V1.0.2/MSDK/cloud/alicloud/src/infra/system\guider.c ****     iotx_payload = SYS_GUIDER_MALLOC(GUIDER_PREAUTH_RESPONSE_LEN);
 732:C:/Users/stapi/OneDrive/Desktop/GD32VW553/V1_MQTT_OK/GD32VW55X_Wifi_BLE_SDK/GD32VW55x_RELEASE_V1.0.2/MSDK/cloud/alicloud/src/infra/system\guider.c ****     LITE_ASSERT(iotx_payload);
 733:C:/Users/stapi/OneDrive/Desktop/GD32VW553/V1_MQTT_OK/GD32VW55X_Wifi_BLE_SDK/GD32VW55x_RELEASE_V1.0.2/MSDK/cloud/alicloud/src/infra/system\guider.c ****     memset(iotx_payload, 0, GUIDER_PREAUTH_RESPONSE_LEN);
 734:C:/Users/stapi/OneDrive/Desktop/GD32VW553/V1_MQTT_OK/GD32VW55X_Wifi_BLE_SDK/GD32VW55x_RELEASE_V1.0.2/MSDK/cloud/alicloud/src/infra/system\guider.c ****     _http_response(iotx_payload,
 735:C:/Users/stapi/OneDrive/Desktop/GD32VW553/V1_MQTT_OK/GD32VW55X_Wifi_BLE_SDK/GD32VW55x_RELEASE_V1.0.2/MSDK/cloud/alicloud/src/infra/system\guider.c ****                    GUIDER_PREAUTH_RESPONSE_LEN,
 736:C:/Users/stapi/OneDrive/Desktop/GD32VW553/V1_MQTT_OK/GD32VW55X_Wifi_BLE_SDK/GD32VW55x_RELEASE_V1.0.2/MSDK/cloud/alicloud/src/infra/system\guider.c ****                    request_string,
 737:C:/Users/stapi/OneDrive/Desktop/GD32VW553/V1_MQTT_OK/GD32VW55X_Wifi_BLE_SDK/GD32VW55x_RELEASE_V1.0.2/MSDK/cloud/alicloud/src/infra/system\guider.c ****                    guider_addr,
 738:C:/Users/stapi/OneDrive/Desktop/GD32VW553/V1_MQTT_OK/GD32VW55X_Wifi_BLE_SDK/GD32VW55x_RELEASE_V1.0.2/MSDK/cloud/alicloud/src/infra/system\guider.c ****                    iotx_port,
 739:C:/Users/stapi/OneDrive/Desktop/GD32VW553/V1_MQTT_OK/GD32VW55X_Wifi_BLE_SDK/GD32VW55x_RELEASE_V1.0.2/MSDK/cloud/alicloud/src/infra/system\guider.c **** #if defined(TEST_OTA_PRE)
 740:C:/Users/stapi/OneDrive/Desktop/GD32VW553/V1_MQTT_OK/GD32VW55X_Wifi_BLE_SDK/GD32VW55x_RELEASE_V1.0.2/MSDK/cloud/alicloud/src/infra/system\guider.c ****                    NULL
 741:C:/Users/stapi/OneDrive/Desktop/GD32VW553/V1_MQTT_OK/GD32VW55X_Wifi_BLE_SDK/GD32VW55x_RELEASE_V1.0.2/MSDK/cloud/alicloud/src/infra/system\guider.c **** #else
 742:C:/Users/stapi/OneDrive/Desktop/GD32VW553/V1_MQTT_OK/GD32VW55X_Wifi_BLE_SDK/GD32VW55x_RELEASE_V1.0.2/MSDK/cloud/alicloud/src/infra/system\guider.c ****                    iotx_ca_get()
 743:C:/Users/stapi/OneDrive/Desktop/GD32VW553/V1_MQTT_OK/GD32VW55X_Wifi_BLE_SDK/GD32VW55x_RELEASE_V1.0.2/MSDK/cloud/alicloud/src/infra/system\guider.c **** #endif
 744:C:/Users/stapi/OneDrive/Desktop/GD32VW553/V1_MQTT_OK/GD32VW55X_Wifi_BLE_SDK/GD32VW55x_RELEASE_V1.0.2/MSDK/cloud/alicloud/src/infra/system\guider.c ****     );
 745:C:/Users/stapi/OneDrive/Desktop/GD32VW553/V1_MQTT_OK/GD32VW55X_Wifi_BLE_SDK/GD32VW55x_RELEASE_V1.0.2/MSDK/cloud/alicloud/src/infra/system\guider.c ****     sys_info("MQTT URL:");
 746:C:/Users/stapi/OneDrive/Desktop/GD32VW553/V1_MQTT_OK/GD32VW55X_Wifi_BLE_SDK/GD32VW55x_RELEASE_V1.0.2/MSDK/cloud/alicloud/src/infra/system\guider.c ****     iotx_facility_json_print(iotx_payload, LOG_INFO_LEVEL, '>');
 747:C:/Users/stapi/OneDrive/Desktop/GD32VW553/V1_MQTT_OK/GD32VW55X_Wifi_BLE_SDK/GD32VW55x_RELEASE_V1.0.2/MSDK/cloud/alicloud/src/infra/system\guider.c **** 
 748:C:/Users/stapi/OneDrive/Desktop/GD32VW553/V1_MQTT_OK/GD32VW55X_Wifi_BLE_SDK/GD32VW55x_RELEASE_V1.0.2/MSDK/cloud/alicloud/src/infra/system\guider.c ****     pvalue = LITE_json_value_of("code", iotx_payload, MEM_MAGIC, "sys.preauth");
 749:C:/Users/stapi/OneDrive/Desktop/GD32VW553/V1_MQTT_OK/GD32VW55X_Wifi_BLE_SDK/GD32VW55x_RELEASE_V1.0.2/MSDK/cloud/alicloud/src/infra/system\guider.c ****     if (!pvalue)
 750:C:/Users/stapi/OneDrive/Desktop/GD32VW553/V1_MQTT_OK/GD32VW55X_Wifi_BLE_SDK/GD32VW55x_RELEASE_V1.0.2/MSDK/cloud/alicloud/src/infra/system\guider.c ****     {
 751:C:/Users/stapi/OneDrive/Desktop/GD32VW553/V1_MQTT_OK/GD32VW55X_Wifi_BLE_SDK/GD32VW55x_RELEASE_V1.0.2/MSDK/cloud/alicloud/src/infra/system\guider.c ****         dump_http_status(STATE_HTTP_PREAUTH_TIMEOUT_FAIL, "no code in resp");
 752:C:/Users/stapi/OneDrive/Desktop/GD32VW553/V1_MQTT_OK/GD32VW55X_Wifi_BLE_SDK/GD32VW55x_RELEASE_V1.0.2/MSDK/cloud/alicloud/src/infra/system\guider.c ****         goto EXIT;
 753:C:/Users/stapi/OneDrive/Desktop/GD32VW553/V1_MQTT_OK/GD32VW55X_Wifi_BLE_SDK/GD32VW55x_RELEASE_V1.0.2/MSDK/cloud/alicloud/src/infra/system\guider.c ****     }
 754:C:/Users/stapi/OneDrive/Desktop/GD32VW553/V1_MQTT_OK/GD32VW55X_Wifi_BLE_SDK/GD32VW55x_RELEASE_V1.0.2/MSDK/cloud/alicloud/src/infra/system\guider.c **** 
 755:C:/Users/stapi/OneDrive/Desktop/GD32VW553/V1_MQTT_OK/GD32VW55X_Wifi_BLE_SDK/GD32VW55x_RELEASE_V1.0.2/MSDK/cloud/alicloud/src/infra/system\guider.c ****     ret_code = atoi(pvalue);
 756:C:/Users/stapi/OneDrive/Desktop/GD32VW553/V1_MQTT_OK/GD32VW55X_Wifi_BLE_SDK/GD32VW55x_RELEASE_V1.0.2/MSDK/cloud/alicloud/src/infra/system\guider.c ****     LITE_free(pvalue);
 757:C:/Users/stapi/OneDrive/Desktop/GD32VW553/V1_MQTT_OK/GD32VW55X_Wifi_BLE_SDK/GD32VW55x_RELEASE_V1.0.2/MSDK/cloud/alicloud/src/infra/system\guider.c ****     pvalue = NULL;
 758:C:/Users/stapi/OneDrive/Desktop/GD32VW553/V1_MQTT_OK/GD32VW55X_Wifi_BLE_SDK/GD32VW55x_RELEASE_V1.0.2/MSDK/cloud/alicloud/src/infra/system\guider.c **** 
 759:C:/Users/stapi/OneDrive/Desktop/GD32VW553/V1_MQTT_OK/GD32VW55X_Wifi_BLE_SDK/GD32VW55x_RELEASE_V1.0.2/MSDK/cloud/alicloud/src/infra/system\guider.c ****     if (200 != ret_code)
 760:C:/Users/stapi/OneDrive/Desktop/GD32VW553/V1_MQTT_OK/GD32VW55X_Wifi_BLE_SDK/GD32VW55x_RELEASE_V1.0.2/MSDK/cloud/alicloud/src/infra/system\guider.c ****     {
 761:C:/Users/stapi/OneDrive/Desktop/GD32VW553/V1_MQTT_OK/GD32VW55X_Wifi_BLE_SDK/GD32VW55x_RELEASE_V1.0.2/MSDK/cloud/alicloud/src/infra/system\guider.c ****         dump_http_status(STATE_HTTP_PREAUTH_IDENT_AUTH_FAIL, "ret_code = %d (!= 200), abort!", ret_
 762:C:/Users/stapi/OneDrive/Desktop/GD32VW553/V1_MQTT_OK/GD32VW55X_Wifi_BLE_SDK/GD32VW55x_RELEASE_V1.0.2/MSDK/cloud/alicloud/src/infra/system\guider.c ****         goto EXIT;
 763:C:/Users/stapi/OneDrive/Desktop/GD32VW553/V1_MQTT_OK/GD32VW55X_Wifi_BLE_SDK/GD32VW55x_RELEASE_V1.0.2/MSDK/cloud/alicloud/src/infra/system\guider.c ****     }
 764:C:/Users/stapi/OneDrive/Desktop/GD32VW553/V1_MQTT_OK/GD32VW55X_Wifi_BLE_SDK/GD32VW55x_RELEASE_V1.0.2/MSDK/cloud/alicloud/src/infra/system\guider.c **** 
 765:C:/Users/stapi/OneDrive/Desktop/GD32VW553/V1_MQTT_OK/GD32VW55X_Wifi_BLE_SDK/GD32VW55x_RELEASE_V1.0.2/MSDK/cloud/alicloud/src/infra/system\guider.c ****     pvalue = LITE_json_value_of("data.resources.mqtt.host", iotx_payload, MEM_MAGIC, "sys.preauth")
 766:C:/Users/stapi/OneDrive/Desktop/GD32VW553/V1_MQTT_OK/GD32VW55X_Wifi_BLE_SDK/GD32VW55x_RELEASE_V1.0.2/MSDK/cloud/alicloud/src/infra/system\guider.c ****     if (NULL == pvalue)
 767:C:/Users/stapi/OneDrive/Desktop/GD32VW553/V1_MQTT_OK/GD32VW55X_Wifi_BLE_SDK/GD32VW55x_RELEASE_V1.0.2/MSDK/cloud/alicloud/src/infra/system\guider.c ****     {
 768:C:/Users/stapi/OneDrive/Desktop/GD32VW553/V1_MQTT_OK/GD32VW55X_Wifi_BLE_SDK/GD32VW55x_RELEASE_V1.0.2/MSDK/cloud/alicloud/src/infra/system\guider.c ****         dump_http_status(STATE_HTTP_PREAUTH_TIMEOUT_FAIL, "no resources.mqtt.host in resp");
 769:C:/Users/stapi/OneDrive/Desktop/GD32VW553/V1_MQTT_OK/GD32VW55X_Wifi_BLE_SDK/GD32VW55x_RELEASE_V1.0.2/MSDK/cloud/alicloud/src/infra/system\guider.c ****         goto EXIT;
 770:C:/Users/stapi/OneDrive/Desktop/GD32VW553/V1_MQTT_OK/GD32VW55X_Wifi_BLE_SDK/GD32VW55x_RELEASE_V1.0.2/MSDK/cloud/alicloud/src/infra/system\guider.c ****     }
 771:C:/Users/stapi/OneDrive/Desktop/GD32VW553/V1_MQTT_OK/GD32VW55X_Wifi_BLE_SDK/GD32VW55x_RELEASE_V1.0.2/MSDK/cloud/alicloud/src/infra/system\guider.c ****     strcpy(host, pvalue);
 772:C:/Users/stapi/OneDrive/Desktop/GD32VW553/V1_MQTT_OK/GD32VW55X_Wifi_BLE_SDK/GD32VW55x_RELEASE_V1.0.2/MSDK/cloud/alicloud/src/infra/system\guider.c ****     LITE_free(pvalue);
 773:C:/Users/stapi/OneDrive/Desktop/GD32VW553/V1_MQTT_OK/GD32VW55X_Wifi_BLE_SDK/GD32VW55x_RELEASE_V1.0.2/MSDK/cloud/alicloud/src/infra/system\guider.c ****     pvalue = NULL;
 774:C:/Users/stapi/OneDrive/Desktop/GD32VW553/V1_MQTT_OK/GD32VW55X_Wifi_BLE_SDK/GD32VW55x_RELEASE_V1.0.2/MSDK/cloud/alicloud/src/infra/system\guider.c **** 
 775:C:/Users/stapi/OneDrive/Desktop/GD32VW553/V1_MQTT_OK/GD32VW55X_Wifi_BLE_SDK/GD32VW55x_RELEASE_V1.0.2/MSDK/cloud/alicloud/src/infra/system\guider.c ****     pvalue = LITE_json_value_of("data.resources.mqtt.port", iotx_payload, MEM_MAGIC, "sys.preauth")
 776:C:/Users/stapi/OneDrive/Desktop/GD32VW553/V1_MQTT_OK/GD32VW55X_Wifi_BLE_SDK/GD32VW55x_RELEASE_V1.0.2/MSDK/cloud/alicloud/src/infra/system\guider.c ****     if (NULL == pvalue)
 777:C:/Users/stapi/OneDrive/Desktop/GD32VW553/V1_MQTT_OK/GD32VW55X_Wifi_BLE_SDK/GD32VW55x_RELEASE_V1.0.2/MSDK/cloud/alicloud/src/infra/system\guider.c ****     {
 778:C:/Users/stapi/OneDrive/Desktop/GD32VW553/V1_MQTT_OK/GD32VW55X_Wifi_BLE_SDK/GD32VW55x_RELEASE_V1.0.2/MSDK/cloud/alicloud/src/infra/system\guider.c ****         dump_http_status(STATE_HTTP_PREAUTH_TIMEOUT_FAIL, "no resources.mqtt.port in resp");
 779:C:/Users/stapi/OneDrive/Desktop/GD32VW553/V1_MQTT_OK/GD32VW55X_Wifi_BLE_SDK/GD32VW55x_RELEASE_V1.0.2/MSDK/cloud/alicloud/src/infra/system\guider.c ****         goto EXIT;
 780:C:/Users/stapi/OneDrive/Desktop/GD32VW553/V1_MQTT_OK/GD32VW55X_Wifi_BLE_SDK/GD32VW55x_RELEASE_V1.0.2/MSDK/cloud/alicloud/src/infra/system\guider.c ****     }
 781:C:/Users/stapi/OneDrive/Desktop/GD32VW553/V1_MQTT_OK/GD32VW55X_Wifi_BLE_SDK/GD32VW55x_RELEASE_V1.0.2/MSDK/cloud/alicloud/src/infra/system\guider.c ****     strcpy(port_str, pvalue);
 782:C:/Users/stapi/OneDrive/Desktop/GD32VW553/V1_MQTT_OK/GD32VW55X_Wifi_BLE_SDK/GD32VW55x_RELEASE_V1.0.2/MSDK/cloud/alicloud/src/infra/system\guider.c ****     LITE_free(pvalue);
 783:C:/Users/stapi/OneDrive/Desktop/GD32VW553/V1_MQTT_OK/GD32VW55X_Wifi_BLE_SDK/GD32VW55x_RELEASE_V1.0.2/MSDK/cloud/alicloud/src/infra/system\guider.c ****     pvalue = NULL;
 784:C:/Users/stapi/OneDrive/Desktop/GD32VW553/V1_MQTT_OK/GD32VW55X_Wifi_BLE_SDK/GD32VW55x_RELEASE_V1.0.2/MSDK/cloud/alicloud/src/infra/system\guider.c ****     *pport = atoi(port_str);
 785:C:/Users/stapi/OneDrive/Desktop/GD32VW553/V1_MQTT_OK/GD32VW55X_Wifi_BLE_SDK/GD32VW55x_RELEASE_V1.0.2/MSDK/cloud/alicloud/src/infra/system\guider.c **** 
 786:C:/Users/stapi/OneDrive/Desktop/GD32VW553/V1_MQTT_OK/GD32VW55X_Wifi_BLE_SDK/GD32VW55x_RELEASE_V1.0.2/MSDK/cloud/alicloud/src/infra/system\guider.c ****     ret = 0;
 787:C:/Users/stapi/OneDrive/Desktop/GD32VW553/V1_MQTT_OK/GD32VW55X_Wifi_BLE_SDK/GD32VW55x_RELEASE_V1.0.2/MSDK/cloud/alicloud/src/infra/system\guider.c **** 
 788:C:/Users/stapi/OneDrive/Desktop/GD32VW553/V1_MQTT_OK/GD32VW55X_Wifi_BLE_SDK/GD32VW55x_RELEASE_V1.0.2/MSDK/cloud/alicloud/src/infra/system\guider.c **** EXIT:
 789:C:/Users/stapi/OneDrive/Desktop/GD32VW553/V1_MQTT_OK/GD32VW55X_Wifi_BLE_SDK/GD32VW55x_RELEASE_V1.0.2/MSDK/cloud/alicloud/src/infra/system\guider.c ****     if (iotx_payload)
 790:C:/Users/stapi/OneDrive/Desktop/GD32VW553/V1_MQTT_OK/GD32VW55X_Wifi_BLE_SDK/GD32VW55x_RELEASE_V1.0.2/MSDK/cloud/alicloud/src/infra/system\guider.c ****     {
 791:C:/Users/stapi/OneDrive/Desktop/GD32VW553/V1_MQTT_OK/GD32VW55X_Wifi_BLE_SDK/GD32VW55x_RELEASE_V1.0.2/MSDK/cloud/alicloud/src/infra/system\guider.c ****         LITE_free(iotx_payload);
 792:C:/Users/stapi/OneDrive/Desktop/GD32VW553/V1_MQTT_OK/GD32VW55X_Wifi_BLE_SDK/GD32VW55x_RELEASE_V1.0.2/MSDK/cloud/alicloud/src/infra/system\guider.c ****         iotx_payload = NULL;
 793:C:/Users/stapi/OneDrive/Desktop/GD32VW553/V1_MQTT_OK/GD32VW55X_Wifi_BLE_SDK/GD32VW55x_RELEASE_V1.0.2/MSDK/cloud/alicloud/src/infra/system\guider.c ****     }
 794:C:/Users/stapi/OneDrive/Desktop/GD32VW553/V1_MQTT_OK/GD32VW55X_Wifi_BLE_SDK/GD32VW55x_RELEASE_V1.0.2/MSDK/cloud/alicloud/src/infra/system\guider.c ****     if (pvalue)
 795:C:/Users/stapi/OneDrive/Desktop/GD32VW553/V1_MQTT_OK/GD32VW55X_Wifi_BLE_SDK/GD32VW55x_RELEASE_V1.0.2/MSDK/cloud/alicloud/src/infra/system\guider.c ****     {
 796:C:/Users/stapi/OneDrive/Desktop/GD32VW553/V1_MQTT_OK/GD32VW55X_Wifi_BLE_SDK/GD32VW55x_RELEASE_V1.0.2/MSDK/cloud/alicloud/src/infra/system\guider.c ****         LITE_free(pvalue);
 797:C:/Users/stapi/OneDrive/Desktop/GD32VW553/V1_MQTT_OK/GD32VW55X_Wifi_BLE_SDK/GD32VW55x_RELEASE_V1.0.2/MSDK/cloud/alicloud/src/infra/system\guider.c ****         pvalue = NULL;
 798:C:/Users/stapi/OneDrive/Desktop/GD32VW553/V1_MQTT_OK/GD32VW55X_Wifi_BLE_SDK/GD32VW55x_RELEASE_V1.0.2/MSDK/cloud/alicloud/src/infra/system\guider.c ****     }
 799:C:/Users/stapi/OneDrive/Desktop/GD32VW553/V1_MQTT_OK/GD32VW55X_Wifi_BLE_SDK/GD32VW55x_RELEASE_V1.0.2/MSDK/cloud/alicloud/src/infra/system\guider.c **** 
 800:C:/Users/stapi/OneDrive/Desktop/GD32VW553/V1_MQTT_OK/GD32VW55X_Wifi_BLE_SDK/GD32VW55x_RELEASE_V1.0.2/MSDK/cloud/alicloud/src/infra/system\guider.c ****     return ret;
 801:C:/Users/stapi/OneDrive/Desktop/GD32VW553/V1_MQTT_OK/GD32VW55X_Wifi_BLE_SDK/GD32VW55x_RELEASE_V1.0.2/MSDK/cloud/alicloud/src/infra/system\guider.c **** }
 802:C:/Users/stapi/OneDrive/Desktop/GD32VW553/V1_MQTT_OK/GD32VW55X_Wifi_BLE_SDK/GD32VW55x_RELEASE_V1.0.2/MSDK/cloud/alicloud/src/infra/system\guider.c **** 
 803:C:/Users/stapi/OneDrive/Desktop/GD32VW553/V1_MQTT_OK/GD32VW55X_Wifi_BLE_SDK/GD32VW55x_RELEASE_V1.0.2/MSDK/cloud/alicloud/src/infra/system\guider.c **** #if defined(SUPPORT_ITLS)
 804:C:/Users/stapi/OneDrive/Desktop/GD32VW553/V1_MQTT_OK/GD32VW55X_Wifi_BLE_SDK/GD32VW55x_RELEASE_V1.0.2/MSDK/cloud/alicloud/src/infra/system\guider.c **** static int get_itls_host_and_port(char *product_key, iotx_conn_info_t *conn)
 805:C:/Users/stapi/OneDrive/Desktop/GD32VW553/V1_MQTT_OK/GD32VW55X_Wifi_BLE_SDK/GD32VW55x_RELEASE_V1.0.2/MSDK/cloud/alicloud/src/infra/system\guider.c **** {
 806:C:/Users/stapi/OneDrive/Desktop/GD32VW553/V1_MQTT_OK/GD32VW55X_Wifi_BLE_SDK/GD32VW55x_RELEASE_V1.0.2/MSDK/cloud/alicloud/src/infra/system\guider.c ****     if (GUIDER_ENV_DAILY == iotx_guider_get_env())
 807:C:/Users/stapi/OneDrive/Desktop/GD32VW553/V1_MQTT_OK/GD32VW55X_Wifi_BLE_SDK/GD32VW55x_RELEASE_V1.0.2/MSDK/cloud/alicloud/src/infra/system\guider.c ****     {
 808:C:/Users/stapi/OneDrive/Desktop/GD32VW553/V1_MQTT_OK/GD32VW55X_Wifi_BLE_SDK/GD32VW55x_RELEASE_V1.0.2/MSDK/cloud/alicloud/src/infra/system\guider.c ****         conn->port = 1883; //Is 1883 or 443
 809:C:/Users/stapi/OneDrive/Desktop/GD32VW553/V1_MQTT_OK/GD32VW55X_Wifi_BLE_SDK/GD32VW55x_RELEASE_V1.0.2/MSDK/cloud/alicloud/src/infra/system\guider.c ****         conn->host_name = SYS_GUIDER_MALLOC(sizeof(GUIDER_DIRECT_DOMAIN_ITLS_DAILY));
 810:C:/Users/stapi/OneDrive/Desktop/GD32VW553/V1_MQTT_OK/GD32VW55X_Wifi_BLE_SDK/GD32VW55x_RELEASE_V1.0.2/MSDK/cloud/alicloud/src/infra/system\guider.c ****         if (conn->host_name == NULL)
 811:C:/Users/stapi/OneDrive/Desktop/GD32VW553/V1_MQTT_OK/GD32VW55X_Wifi_BLE_SDK/GD32VW55x_RELEASE_V1.0.2/MSDK/cloud/alicloud/src/infra/system\guider.c ****         {
 812:C:/Users/stapi/OneDrive/Desktop/GD32VW553/V1_MQTT_OK/GD32VW55X_Wifi_BLE_SDK/GD32VW55x_RELEASE_V1.0.2/MSDK/cloud/alicloud/src/infra/system\guider.c ****             return -1;
 813:C:/Users/stapi/OneDrive/Desktop/GD32VW553/V1_MQTT_OK/GD32VW55X_Wifi_BLE_SDK/GD32VW55x_RELEASE_V1.0.2/MSDK/cloud/alicloud/src/infra/system\guider.c ****         }
 814:C:/Users/stapi/OneDrive/Desktop/GD32VW553/V1_MQTT_OK/GD32VW55X_Wifi_BLE_SDK/GD32VW55x_RELEASE_V1.0.2/MSDK/cloud/alicloud/src/infra/system\guider.c ****         iotx_guider_fill_conn_string(conn->host_name, sizeof(GUIDER_DIRECT_DOMAIN_ITLS_DAILY),
 815:C:/Users/stapi/OneDrive/Desktop/GD32VW553/V1_MQTT_OK/GD32VW55X_Wifi_BLE_SDK/GD32VW55x_RELEASE_V1.0.2/MSDK/cloud/alicloud/src/infra/system\guider.c ****                                      GUIDER_DIRECT_DOMAIN_ITLS_DAILY);
 816:C:/Users/stapi/OneDrive/Desktop/GD32VW553/V1_MQTT_OK/GD32VW55X_Wifi_BLE_SDK/GD32VW55x_RELEASE_V1.0.2/MSDK/cloud/alicloud/src/infra/system\guider.c ****     }
 817:C:/Users/stapi/OneDrive/Desktop/GD32VW553/V1_MQTT_OK/GD32VW55X_Wifi_BLE_SDK/GD32VW55x_RELEASE_V1.0.2/MSDK/cloud/alicloud/src/infra/system\guider.c ****     else if (GUIDER_ENV_PRERELEASE == iotx_guider_get_env())
 818:C:/Users/stapi/OneDrive/Desktop/GD32VW553/V1_MQTT_OK/GD32VW55X_Wifi_BLE_SDK/GD32VW55x_RELEASE_V1.0.2/MSDK/cloud/alicloud/src/infra/system\guider.c ****     {
 819:C:/Users/stapi/OneDrive/Desktop/GD32VW553/V1_MQTT_OK/GD32VW55X_Wifi_BLE_SDK/GD32VW55x_RELEASE_V1.0.2/MSDK/cloud/alicloud/src/infra/system\guider.c ****         conn->port = 1883;
 820:C:/Users/stapi/OneDrive/Desktop/GD32VW553/V1_MQTT_OK/GD32VW55X_Wifi_BLE_SDK/GD32VW55x_RELEASE_V1.0.2/MSDK/cloud/alicloud/src/infra/system\guider.c ****         conn->host_name = SYS_GUIDER_MALLOC(sizeof(GUIDER_DIRECT_DOMAIN_ITLS_PRE));
 821:C:/Users/stapi/OneDrive/Desktop/GD32VW553/V1_MQTT_OK/GD32VW55X_Wifi_BLE_SDK/GD32VW55x_RELEASE_V1.0.2/MSDK/cloud/alicloud/src/infra/system\guider.c ****         if (conn->host_name == NULL)
 822:C:/Users/stapi/OneDrive/Desktop/GD32VW553/V1_MQTT_OK/GD32VW55X_Wifi_BLE_SDK/GD32VW55x_RELEASE_V1.0.2/MSDK/cloud/alicloud/src/infra/system\guider.c ****         {
 823:C:/Users/stapi/OneDrive/Desktop/GD32VW553/V1_MQTT_OK/GD32VW55X_Wifi_BLE_SDK/GD32VW55x_RELEASE_V1.0.2/MSDK/cloud/alicloud/src/infra/system\guider.c ****             return -1;
 824:C:/Users/stapi/OneDrive/Desktop/GD32VW553/V1_MQTT_OK/GD32VW55X_Wifi_BLE_SDK/GD32VW55x_RELEASE_V1.0.2/MSDK/cloud/alicloud/src/infra/system\guider.c ****         }
 825:C:/Users/stapi/OneDrive/Desktop/GD32VW553/V1_MQTT_OK/GD32VW55X_Wifi_BLE_SDK/GD32VW55x_RELEASE_V1.0.2/MSDK/cloud/alicloud/src/infra/system\guider.c ****         iotx_guider_fill_conn_string(conn->host_name, sizeof(GUIDER_DIRECT_DOMAIN_ITLS_PRE),
 826:C:/Users/stapi/OneDrive/Desktop/GD32VW553/V1_MQTT_OK/GD32VW55X_Wifi_BLE_SDK/GD32VW55x_RELEASE_V1.0.2/MSDK/cloud/alicloud/src/infra/system\guider.c ****                                      GUIDER_DIRECT_DOMAIN_ITLS_PRE);
 827:C:/Users/stapi/OneDrive/Desktop/GD32VW553/V1_MQTT_OK/GD32VW55X_Wifi_BLE_SDK/GD32VW55x_RELEASE_V1.0.2/MSDK/cloud/alicloud/src/infra/system\guider.c ****     }
 828:C:/Users/stapi/OneDrive/Desktop/GD32VW553/V1_MQTT_OK/GD32VW55X_Wifi_BLE_SDK/GD32VW55x_RELEASE_V1.0.2/MSDK/cloud/alicloud/src/infra/system\guider.c ****     else
 829:C:/Users/stapi/OneDrive/Desktop/GD32VW553/V1_MQTT_OK/GD32VW55X_Wifi_BLE_SDK/GD32VW55x_RELEASE_V1.0.2/MSDK/cloud/alicloud/src/infra/system\guider.c ****     {
 830:C:/Users/stapi/OneDrive/Desktop/GD32VW553/V1_MQTT_OK/GD32VW55X_Wifi_BLE_SDK/GD32VW55x_RELEASE_V1.0.2/MSDK/cloud/alicloud/src/infra/system\guider.c ****         int host_name_len = 0;
 831:C:/Users/stapi/OneDrive/Desktop/GD32VW553/V1_MQTT_OK/GD32VW55X_Wifi_BLE_SDK/GD32VW55x_RELEASE_V1.0.2/MSDK/cloud/alicloud/src/infra/system\guider.c **** 
 832:C:/Users/stapi/OneDrive/Desktop/GD32VW553/V1_MQTT_OK/GD32VW55X_Wifi_BLE_SDK/GD32VW55x_RELEASE_V1.0.2/MSDK/cloud/alicloud/src/infra/system\guider.c ****         conn->port = 1883;
 833:C:/Users/stapi/OneDrive/Desktop/GD32VW553/V1_MQTT_OK/GD32VW55X_Wifi_BLE_SDK/GD32VW55x_RELEASE_V1.0.2/MSDK/cloud/alicloud/src/infra/system\guider.c ****         host_name_len = strlen(product_key) + 1 + sizeof(GUIDER_DIRECT_DOMAIN_ITLS);
 834:C:/Users/stapi/OneDrive/Desktop/GD32VW553/V1_MQTT_OK/GD32VW55X_Wifi_BLE_SDK/GD32VW55x_RELEASE_V1.0.2/MSDK/cloud/alicloud/src/infra/system\guider.c ****         conn->host_name = SYS_GUIDER_MALLOC(host_name_len);
 835:C:/Users/stapi/OneDrive/Desktop/GD32VW553/V1_MQTT_OK/GD32VW55X_Wifi_BLE_SDK/GD32VW55x_RELEASE_V1.0.2/MSDK/cloud/alicloud/src/infra/system\guider.c ****         if (conn->host_name == NULL)
 836:C:/Users/stapi/OneDrive/Desktop/GD32VW553/V1_MQTT_OK/GD32VW55X_Wifi_BLE_SDK/GD32VW55x_RELEASE_V1.0.2/MSDK/cloud/alicloud/src/infra/system\guider.c ****         {
 837:C:/Users/stapi/OneDrive/Desktop/GD32VW553/V1_MQTT_OK/GD32VW55X_Wifi_BLE_SDK/GD32VW55x_RELEASE_V1.0.2/MSDK/cloud/alicloud/src/infra/system\guider.c ****             return -1;
 838:C:/Users/stapi/OneDrive/Desktop/GD32VW553/V1_MQTT_OK/GD32VW55X_Wifi_BLE_SDK/GD32VW55x_RELEASE_V1.0.2/MSDK/cloud/alicloud/src/infra/system\guider.c ****         }
 839:C:/Users/stapi/OneDrive/Desktop/GD32VW553/V1_MQTT_OK/GD32VW55X_Wifi_BLE_SDK/GD32VW55x_RELEASE_V1.0.2/MSDK/cloud/alicloud/src/infra/system\guider.c ****         iotx_guider_fill_conn_string(conn->host_name, host_name_len,
 840:C:/Users/stapi/OneDrive/Desktop/GD32VW553/V1_MQTT_OK/GD32VW55X_Wifi_BLE_SDK/GD32VW55x_RELEASE_V1.0.2/MSDK/cloud/alicloud/src/infra/system\guider.c ****                                      "%s.%s",
 841:C:/Users/stapi/OneDrive/Desktop/GD32VW553/V1_MQTT_OK/GD32VW55X_Wifi_BLE_SDK/GD32VW55x_RELEASE_V1.0.2/MSDK/cloud/alicloud/src/infra/system\guider.c ****                                      product_key,
 842:C:/Users/stapi/OneDrive/Desktop/GD32VW553/V1_MQTT_OK/GD32VW55X_Wifi_BLE_SDK/GD32VW55x_RELEASE_V1.0.2/MSDK/cloud/alicloud/src/infra/system\guider.c ****                                      GUIDER_DIRECT_DOMAIN_ITLS);
 843:C:/Users/stapi/OneDrive/Desktop/GD32VW553/V1_MQTT_OK/GD32VW55X_Wifi_BLE_SDK/GD32VW55x_RELEASE_V1.0.2/MSDK/cloud/alicloud/src/infra/system\guider.c ****     }
 844:C:/Users/stapi/OneDrive/Desktop/GD32VW553/V1_MQTT_OK/GD32VW55X_Wifi_BLE_SDK/GD32VW55x_RELEASE_V1.0.2/MSDK/cloud/alicloud/src/infra/system\guider.c **** 
 845:C:/Users/stapi/OneDrive/Desktop/GD32VW553/V1_MQTT_OK/GD32VW55X_Wifi_BLE_SDK/GD32VW55x_RELEASE_V1.0.2/MSDK/cloud/alicloud/src/infra/system\guider.c ****     return 0;
 846:C:/Users/stapi/OneDrive/Desktop/GD32VW553/V1_MQTT_OK/GD32VW55X_Wifi_BLE_SDK/GD32VW55x_RELEASE_V1.0.2/MSDK/cloud/alicloud/src/infra/system\guider.c **** }
 847:C:/Users/stapi/OneDrive/Desktop/GD32VW553/V1_MQTT_OK/GD32VW55X_Wifi_BLE_SDK/GD32VW55x_RELEASE_V1.0.2/MSDK/cloud/alicloud/src/infra/system\guider.c **** #else
 848:C:/Users/stapi/OneDrive/Desktop/GD32VW553/V1_MQTT_OK/GD32VW55X_Wifi_BLE_SDK/GD32VW55x_RELEASE_V1.0.2/MSDK/cloud/alicloud/src/infra/system\guider.c **** static int get_non_itls_host_and_port(sdk_impl_ctx_t *ctx, char *product_key, iotx_conn_info_t *con
 849:C:/Users/stapi/OneDrive/Desktop/GD32VW553/V1_MQTT_OK/GD32VW55X_Wifi_BLE_SDK/GD32VW55x_RELEASE_V1.0.2/MSDK/cloud/alicloud/src/infra/system\guider.c **** {
 850:C:/Users/stapi/OneDrive/Desktop/GD32VW553/V1_MQTT_OK/GD32VW55X_Wifi_BLE_SDK/GD32VW55x_RELEASE_V1.0.2/MSDK/cloud/alicloud/src/infra/system\guider.c ****     int port_num = 0;
 851:C:/Users/stapi/OneDrive/Desktop/GD32VW553/V1_MQTT_OK/GD32VW55X_Wifi_BLE_SDK/GD32VW55x_RELEASE_V1.0.2/MSDK/cloud/alicloud/src/infra/system\guider.c ****     int host_name_len = 0;
 852:C:/Users/stapi/OneDrive/Desktop/GD32VW553/V1_MQTT_OK/GD32VW55X_Wifi_BLE_SDK/GD32VW55x_RELEASE_V1.0.2/MSDK/cloud/alicloud/src/infra/system\guider.c ****     char *p_port = NULL;
 853:C:/Users/stapi/OneDrive/Desktop/GD32VW553/V1_MQTT_OK/GD32VW55X_Wifi_BLE_SDK/GD32VW55x_RELEASE_V1.0.2/MSDK/cloud/alicloud/src/infra/system\guider.c ****     char *p_host = NULL;
 854:C:/Users/stapi/OneDrive/Desktop/GD32VW553/V1_MQTT_OK/GD32VW55X_Wifi_BLE_SDK/GD32VW55x_RELEASE_V1.0.2/MSDK/cloud/alicloud/src/infra/system\guider.c **** 
 855:C:/Users/stapi/OneDrive/Desktop/GD32VW553/V1_MQTT_OK/GD32VW55X_Wifi_BLE_SDK/GD32VW55x_RELEASE_V1.0.2/MSDK/cloud/alicloud/src/infra/system\guider.c ****     if (GUIDER_ENV_DAILY == iotx_guider_get_env())
 856:C:/Users/stapi/OneDrive/Desktop/GD32VW553/V1_MQTT_OK/GD32VW55X_Wifi_BLE_SDK/GD32VW55x_RELEASE_V1.0.2/MSDK/cloud/alicloud/src/infra/system\guider.c ****     {
 857:C:/Users/stapi/OneDrive/Desktop/GD32VW553/V1_MQTT_OK/GD32VW55X_Wifi_BLE_SDK/GD32VW55x_RELEASE_V1.0.2/MSDK/cloud/alicloud/src/infra/system\guider.c ****         conn->port = 1883;
 858:C:/Users/stapi/OneDrive/Desktop/GD32VW553/V1_MQTT_OK/GD32VW55X_Wifi_BLE_SDK/GD32VW55x_RELEASE_V1.0.2/MSDK/cloud/alicloud/src/infra/system\guider.c ****         conn->host_name = SYS_GUIDER_MALLOC(sizeof(GUIDER_DIRECT_DOMAIN_DAILY));
 859:C:/Users/stapi/OneDrive/Desktop/GD32VW553/V1_MQTT_OK/GD32VW55X_Wifi_BLE_SDK/GD32VW55x_RELEASE_V1.0.2/MSDK/cloud/alicloud/src/infra/system\guider.c ****         if (conn->host_name == NULL)
 860:C:/Users/stapi/OneDrive/Desktop/GD32VW553/V1_MQTT_OK/GD32VW55X_Wifi_BLE_SDK/GD32VW55x_RELEASE_V1.0.2/MSDK/cloud/alicloud/src/infra/system\guider.c ****         {
 861:C:/Users/stapi/OneDrive/Desktop/GD32VW553/V1_MQTT_OK/GD32VW55X_Wifi_BLE_SDK/GD32VW55x_RELEASE_V1.0.2/MSDK/cloud/alicloud/src/infra/system\guider.c ****             return -1;
 862:C:/Users/stapi/OneDrive/Desktop/GD32VW553/V1_MQTT_OK/GD32VW55X_Wifi_BLE_SDK/GD32VW55x_RELEASE_V1.0.2/MSDK/cloud/alicloud/src/infra/system\guider.c ****         }
 863:C:/Users/stapi/OneDrive/Desktop/GD32VW553/V1_MQTT_OK/GD32VW55X_Wifi_BLE_SDK/GD32VW55x_RELEASE_V1.0.2/MSDK/cloud/alicloud/src/infra/system\guider.c ****         iotx_guider_fill_conn_string(conn->host_name, sizeof(GUIDER_DIRECT_DOMAIN_DAILY),
 864:C:/Users/stapi/OneDrive/Desktop/GD32VW553/V1_MQTT_OK/GD32VW55X_Wifi_BLE_SDK/GD32VW55x_RELEASE_V1.0.2/MSDK/cloud/alicloud/src/infra/system\guider.c ****                                      GUIDER_DIRECT_DOMAIN_DAILY);
 865:C:/Users/stapi/OneDrive/Desktop/GD32VW553/V1_MQTT_OK/GD32VW55X_Wifi_BLE_SDK/GD32VW55x_RELEASE_V1.0.2/MSDK/cloud/alicloud/src/infra/system\guider.c ****     }
 866:C:/Users/stapi/OneDrive/Desktop/GD32VW553/V1_MQTT_OK/GD32VW55X_Wifi_BLE_SDK/GD32VW55x_RELEASE_V1.0.2/MSDK/cloud/alicloud/src/infra/system\guider.c ****     else
 867:C:/Users/stapi/OneDrive/Desktop/GD32VW553/V1_MQTT_OK/GD32VW55X_Wifi_BLE_SDK/GD32VW55x_RELEASE_V1.0.2/MSDK/cloud/alicloud/src/infra/system\guider.c ****     {
 868:C:/Users/stapi/OneDrive/Desktop/GD32VW553/V1_MQTT_OK/GD32VW55X_Wifi_BLE_SDK/GD32VW55x_RELEASE_V1.0.2/MSDK/cloud/alicloud/src/infra/system\guider.c ****         if (NULL != ctx)
 869:C:/Users/stapi/OneDrive/Desktop/GD32VW553/V1_MQTT_OK/GD32VW55X_Wifi_BLE_SDK/GD32VW55x_RELEASE_V1.0.2/MSDK/cloud/alicloud/src/infra/system\guider.c ****         {
 870:C:/Users/stapi/OneDrive/Desktop/GD32VW553/V1_MQTT_OK/GD32VW55X_Wifi_BLE_SDK/GD32VW55x_RELEASE_V1.0.2/MSDK/cloud/alicloud/src/infra/system\guider.c ****             port_num = ctx->mqtt_port_num;
 871:C:/Users/stapi/OneDrive/Desktop/GD32VW553/V1_MQTT_OK/GD32VW55X_Wifi_BLE_SDK/GD32VW55x_RELEASE_V1.0.2/MSDK/cloud/alicloud/src/infra/system\guider.c ****             if (0 != port_num)
 872:C:/Users/stapi/OneDrive/Desktop/GD32VW553/V1_MQTT_OK/GD32VW55X_Wifi_BLE_SDK/GD32VW55x_RELEASE_V1.0.2/MSDK/cloud/alicloud/src/infra/system\guider.c ****             {
 873:C:/Users/stapi/OneDrive/Desktop/GD32VW553/V1_MQTT_OK/GD32VW55X_Wifi_BLE_SDK/GD32VW55x_RELEASE_V1.0.2/MSDK/cloud/alicloud/src/infra/system\guider.c ****                 conn->port = port_num;
 874:C:/Users/stapi/OneDrive/Desktop/GD32VW553/V1_MQTT_OK/GD32VW55X_Wifi_BLE_SDK/GD32VW55x_RELEASE_V1.0.2/MSDK/cloud/alicloud/src/infra/system\guider.c ****             }
 875:C:/Users/stapi/OneDrive/Desktop/GD32VW553/V1_MQTT_OK/GD32VW55X_Wifi_BLE_SDK/GD32VW55x_RELEASE_V1.0.2/MSDK/cloud/alicloud/src/infra/system\guider.c ****         }
 876:C:/Users/stapi/OneDrive/Desktop/GD32VW553/V1_MQTT_OK/GD32VW55X_Wifi_BLE_SDK/GD32VW55x_RELEASE_V1.0.2/MSDK/cloud/alicloud/src/infra/system\guider.c **** 
 877:C:/Users/stapi/OneDrive/Desktop/GD32VW553/V1_MQTT_OK/GD32VW55X_Wifi_BLE_SDK/GD32VW55x_RELEASE_V1.0.2/MSDK/cloud/alicloud/src/infra/system\guider.c ****         if (0 == conn->port)
 878:C:/Users/stapi/OneDrive/Desktop/GD32VW553/V1_MQTT_OK/GD32VW55X_Wifi_BLE_SDK/GD32VW55x_RELEASE_V1.0.2/MSDK/cloud/alicloud/src/infra/system\guider.c ****         {
 879:C:/Users/stapi/OneDrive/Desktop/GD32VW553/V1_MQTT_OK/GD32VW55X_Wifi_BLE_SDK/GD32VW55x_RELEASE_V1.0.2/MSDK/cloud/alicloud/src/infra/system\guider.c **** #ifdef SUPPORT_TLS
 880:C:/Users/stapi/OneDrive/Desktop/GD32VW553/V1_MQTT_OK/GD32VW55X_Wifi_BLE_SDK/GD32VW55x_RELEASE_V1.0.2/MSDK/cloud/alicloud/src/infra/system\guider.c ****             conn->port = 443;
 881:C:/Users/stapi/OneDrive/Desktop/GD32VW553/V1_MQTT_OK/GD32VW55X_Wifi_BLE_SDK/GD32VW55x_RELEASE_V1.0.2/MSDK/cloud/alicloud/src/infra/system\guider.c **** #else
 882:C:/Users/stapi/OneDrive/Desktop/GD32VW553/V1_MQTT_OK/GD32VW55X_Wifi_BLE_SDK/GD32VW55x_RELEASE_V1.0.2/MSDK/cloud/alicloud/src/infra/system\guider.c ****             conn->port = 1883;
 883:C:/Users/stapi/OneDrive/Desktop/GD32VW553/V1_MQTT_OK/GD32VW55X_Wifi_BLE_SDK/GD32VW55x_RELEASE_V1.0.2/MSDK/cloud/alicloud/src/infra/system\guider.c **** #endif
 884:C:/Users/stapi/OneDrive/Desktop/GD32VW553/V1_MQTT_OK/GD32VW55X_Wifi_BLE_SDK/GD32VW55x_RELEASE_V1.0.2/MSDK/cloud/alicloud/src/infra/system\guider.c ****         }
 885:C:/Users/stapi/OneDrive/Desktop/GD32VW553/V1_MQTT_OK/GD32VW55X_Wifi_BLE_SDK/GD32VW55x_RELEASE_V1.0.2/MSDK/cloud/alicloud/src/infra/system\guider.c **** 
 886:C:/Users/stapi/OneDrive/Desktop/GD32VW553/V1_MQTT_OK/GD32VW55X_Wifi_BLE_SDK/GD32VW55x_RELEASE_V1.0.2/MSDK/cloud/alicloud/src/infra/system\guider.c ****         if (p_dynamic_mqtt_url && strlen(p_dynamic_mqtt_url) > 0)
 887:C:/Users/stapi/OneDrive/Desktop/GD32VW553/V1_MQTT_OK/GD32VW55X_Wifi_BLE_SDK/GD32VW55x_RELEASE_V1.0.2/MSDK/cloud/alicloud/src/infra/system\guider.c ****         {
 888:C:/Users/stapi/OneDrive/Desktop/GD32VW553/V1_MQTT_OK/GD32VW55X_Wifi_BLE_SDK/GD32VW55x_RELEASE_V1.0.2/MSDK/cloud/alicloud/src/infra/system\guider.c ****             host_name_len = strlen(p_dynamic_mqtt_url) + 1;
 889:C:/Users/stapi/OneDrive/Desktop/GD32VW553/V1_MQTT_OK/GD32VW55X_Wifi_BLE_SDK/GD32VW55x_RELEASE_V1.0.2/MSDK/cloud/alicloud/src/infra/system\guider.c ****             conn->host_name = SYS_GUIDER_MALLOC(host_name_len);
 890:C:/Users/stapi/OneDrive/Desktop/GD32VW553/V1_MQTT_OK/GD32VW55X_Wifi_BLE_SDK/GD32VW55x_RELEASE_V1.0.2/MSDK/cloud/alicloud/src/infra/system\guider.c ****             if (conn->host_name == NULL)
 891:C:/Users/stapi/OneDrive/Desktop/GD32VW553/V1_MQTT_OK/GD32VW55X_Wifi_BLE_SDK/GD32VW55x_RELEASE_V1.0.2/MSDK/cloud/alicloud/src/infra/system\guider.c ****             {
 892:C:/Users/stapi/OneDrive/Desktop/GD32VW553/V1_MQTT_OK/GD32VW55X_Wifi_BLE_SDK/GD32VW55x_RELEASE_V1.0.2/MSDK/cloud/alicloud/src/infra/system\guider.c ****                 return -1;
 893:C:/Users/stapi/OneDrive/Desktop/GD32VW553/V1_MQTT_OK/GD32VW55X_Wifi_BLE_SDK/GD32VW55x_RELEASE_V1.0.2/MSDK/cloud/alicloud/src/infra/system\guider.c ****             }
 894:C:/Users/stapi/OneDrive/Desktop/GD32VW553/V1_MQTT_OK/GD32VW55X_Wifi_BLE_SDK/GD32VW55x_RELEASE_V1.0.2/MSDK/cloud/alicloud/src/infra/system\guider.c **** 
 895:C:/Users/stapi/OneDrive/Desktop/GD32VW553/V1_MQTT_OK/GD32VW55X_Wifi_BLE_SDK/GD32VW55x_RELEASE_V1.0.2/MSDK/cloud/alicloud/src/infra/system\guider.c ****             p_port = strrchr(p_dynamic_mqtt_url, ':');
 896:C:/Users/stapi/OneDrive/Desktop/GD32VW553/V1_MQTT_OK/GD32VW55X_Wifi_BLE_SDK/GD32VW55x_RELEASE_V1.0.2/MSDK/cloud/alicloud/src/infra/system\guider.c ****             if (p_port)
 897:C:/Users/stapi/OneDrive/Desktop/GD32VW553/V1_MQTT_OK/GD32VW55X_Wifi_BLE_SDK/GD32VW55x_RELEASE_V1.0.2/MSDK/cloud/alicloud/src/infra/system\guider.c ****             {
 898:C:/Users/stapi/OneDrive/Desktop/GD32VW553/V1_MQTT_OK/GD32VW55X_Wifi_BLE_SDK/GD32VW55x_RELEASE_V1.0.2/MSDK/cloud/alicloud/src/infra/system\guider.c ****                 port_num = atoi(p_port + 1);
 899:C:/Users/stapi/OneDrive/Desktop/GD32VW553/V1_MQTT_OK/GD32VW55X_Wifi_BLE_SDK/GD32VW55x_RELEASE_V1.0.2/MSDK/cloud/alicloud/src/infra/system\guider.c ****                 if (port_num > 0 && port_num < UINT16_MAX)
 900:C:/Users/stapi/OneDrive/Desktop/GD32VW553/V1_MQTT_OK/GD32VW55X_Wifi_BLE_SDK/GD32VW55x_RELEASE_V1.0.2/MSDK/cloud/alicloud/src/infra/system\guider.c ****                 {
 901:C:/Users/stapi/OneDrive/Desktop/GD32VW553/V1_MQTT_OK/GD32VW55X_Wifi_BLE_SDK/GD32VW55x_RELEASE_V1.0.2/MSDK/cloud/alicloud/src/infra/system\guider.c ****                     conn->port = port_num;
 902:C:/Users/stapi/OneDrive/Desktop/GD32VW553/V1_MQTT_OK/GD32VW55X_Wifi_BLE_SDK/GD32VW55x_RELEASE_V1.0.2/MSDK/cloud/alicloud/src/infra/system\guider.c ****                 }
 903:C:/Users/stapi/OneDrive/Desktop/GD32VW553/V1_MQTT_OK/GD32VW55X_Wifi_BLE_SDK/GD32VW55x_RELEASE_V1.0.2/MSDK/cloud/alicloud/src/infra/system\guider.c ****                 //delete chars behind of :
 904:C:/Users/stapi/OneDrive/Desktop/GD32VW553/V1_MQTT_OK/GD32VW55X_Wifi_BLE_SDK/GD32VW55x_RELEASE_V1.0.2/MSDK/cloud/alicloud/src/infra/system\guider.c ****                 *(p_dynamic_mqtt_url + (p_port - p_dynamic_mqtt_url)) = '\0';
 905:C:/Users/stapi/OneDrive/Desktop/GD32VW553/V1_MQTT_OK/GD32VW55X_Wifi_BLE_SDK/GD32VW55x_RELEASE_V1.0.2/MSDK/cloud/alicloud/src/infra/system\guider.c ****             }
 906:C:/Users/stapi/OneDrive/Desktop/GD32VW553/V1_MQTT_OK/GD32VW55X_Wifi_BLE_SDK/GD32VW55x_RELEASE_V1.0.2/MSDK/cloud/alicloud/src/infra/system\guider.c **** 
 907:C:/Users/stapi/OneDrive/Desktop/GD32VW553/V1_MQTT_OK/GD32VW55X_Wifi_BLE_SDK/GD32VW55x_RELEASE_V1.0.2/MSDK/cloud/alicloud/src/infra/system\guider.c ****             p_host = strstr(p_dynamic_mqtt_url, "://");
 908:C:/Users/stapi/OneDrive/Desktop/GD32VW553/V1_MQTT_OK/GD32VW55X_Wifi_BLE_SDK/GD32VW55x_RELEASE_V1.0.2/MSDK/cloud/alicloud/src/infra/system\guider.c ****             if (p_host)
 909:C:/Users/stapi/OneDrive/Desktop/GD32VW553/V1_MQTT_OK/GD32VW55X_Wifi_BLE_SDK/GD32VW55x_RELEASE_V1.0.2/MSDK/cloud/alicloud/src/infra/system\guider.c ****             {
 910:C:/Users/stapi/OneDrive/Desktop/GD32VW553/V1_MQTT_OK/GD32VW55X_Wifi_BLE_SDK/GD32VW55x_RELEASE_V1.0.2/MSDK/cloud/alicloud/src/infra/system\guider.c ****                 p_dynamic_mqtt_url = p_host + 3;
 911:C:/Users/stapi/OneDrive/Desktop/GD32VW553/V1_MQTT_OK/GD32VW55X_Wifi_BLE_SDK/GD32VW55x_RELEASE_V1.0.2/MSDK/cloud/alicloud/src/infra/system\guider.c ****             }
 912:C:/Users/stapi/OneDrive/Desktop/GD32VW553/V1_MQTT_OK/GD32VW55X_Wifi_BLE_SDK/GD32VW55x_RELEASE_V1.0.2/MSDK/cloud/alicloud/src/infra/system\guider.c **** 
 913:C:/Users/stapi/OneDrive/Desktop/GD32VW553/V1_MQTT_OK/GD32VW55X_Wifi_BLE_SDK/GD32VW55x_RELEASE_V1.0.2/MSDK/cloud/alicloud/src/infra/system\guider.c ****             iotx_guider_fill_conn_string(conn->host_name, host_name_len,
 914:C:/Users/stapi/OneDrive/Desktop/GD32VW553/V1_MQTT_OK/GD32VW55X_Wifi_BLE_SDK/GD32VW55x_RELEASE_V1.0.2/MSDK/cloud/alicloud/src/infra/system\guider.c ****                                          "%s", p_dynamic_mqtt_url);
 915:C:/Users/stapi/OneDrive/Desktop/GD32VW553/V1_MQTT_OK/GD32VW55X_Wifi_BLE_SDK/GD32VW55x_RELEASE_V1.0.2/MSDK/cloud/alicloud/src/infra/system\guider.c ****         }
 916:C:/Users/stapi/OneDrive/Desktop/GD32VW553/V1_MQTT_OK/GD32VW55X_Wifi_BLE_SDK/GD32VW55x_RELEASE_V1.0.2/MSDK/cloud/alicloud/src/infra/system\guider.c ****         else
 917:C:/Users/stapi/OneDrive/Desktop/GD32VW553/V1_MQTT_OK/GD32VW55X_Wifi_BLE_SDK/GD32VW55x_RELEASE_V1.0.2/MSDK/cloud/alicloud/src/infra/system\guider.c ****         {
 918:C:/Users/stapi/OneDrive/Desktop/GD32VW553/V1_MQTT_OK/GD32VW55X_Wifi_BLE_SDK/GD32VW55x_RELEASE_V1.0.2/MSDK/cloud/alicloud/src/infra/system\guider.c ****             if (GUIDER_ENV_PRERELEASE == iotx_guider_get_env())
 919:C:/Users/stapi/OneDrive/Desktop/GD32VW553/V1_MQTT_OK/GD32VW55X_Wifi_BLE_SDK/GD32VW55x_RELEASE_V1.0.2/MSDK/cloud/alicloud/src/infra/system\guider.c ****             {
 920:C:/Users/stapi/OneDrive/Desktop/GD32VW553/V1_MQTT_OK/GD32VW55X_Wifi_BLE_SDK/GD32VW55x_RELEASE_V1.0.2/MSDK/cloud/alicloud/src/infra/system\guider.c ****                 conn->port = 80;
 921:C:/Users/stapi/OneDrive/Desktop/GD32VW553/V1_MQTT_OK/GD32VW55X_Wifi_BLE_SDK/GD32VW55x_RELEASE_V1.0.2/MSDK/cloud/alicloud/src/infra/system\guider.c ****                 host_name_len = strlen(iotx_guider_get_domain(GUIDER_DOMAIN_MQTT)) + 1;
 922:C:/Users/stapi/OneDrive/Desktop/GD32VW553/V1_MQTT_OK/GD32VW55X_Wifi_BLE_SDK/GD32VW55x_RELEASE_V1.0.2/MSDK/cloud/alicloud/src/infra/system\guider.c ****                 conn->host_name = SYS_GUIDER_MALLOC(host_name_len);
 923:C:/Users/stapi/OneDrive/Desktop/GD32VW553/V1_MQTT_OK/GD32VW55X_Wifi_BLE_SDK/GD32VW55x_RELEASE_V1.0.2/MSDK/cloud/alicloud/src/infra/system\guider.c ****                 if (conn->host_name == NULL)
 924:C:/Users/stapi/OneDrive/Desktop/GD32VW553/V1_MQTT_OK/GD32VW55X_Wifi_BLE_SDK/GD32VW55x_RELEASE_V1.0.2/MSDK/cloud/alicloud/src/infra/system\guider.c ****                 {
 925:C:/Users/stapi/OneDrive/Desktop/GD32VW553/V1_MQTT_OK/GD32VW55X_Wifi_BLE_SDK/GD32VW55x_RELEASE_V1.0.2/MSDK/cloud/alicloud/src/infra/system\guider.c ****                     return -1;
 926:C:/Users/stapi/OneDrive/Desktop/GD32VW553/V1_MQTT_OK/GD32VW55X_Wifi_BLE_SDK/GD32VW55x_RELEASE_V1.0.2/MSDK/cloud/alicloud/src/infra/system\guider.c ****                 }
 927:C:/Users/stapi/OneDrive/Desktop/GD32VW553/V1_MQTT_OK/GD32VW55X_Wifi_BLE_SDK/GD32VW55x_RELEASE_V1.0.2/MSDK/cloud/alicloud/src/infra/system\guider.c **** 
 928:C:/Users/stapi/OneDrive/Desktop/GD32VW553/V1_MQTT_OK/GD32VW55X_Wifi_BLE_SDK/GD32VW55x_RELEASE_V1.0.2/MSDK/cloud/alicloud/src/infra/system\guider.c ****                 iotx_guider_fill_conn_string(conn->host_name, host_name_len,
 929:C:/Users/stapi/OneDrive/Desktop/GD32VW553/V1_MQTT_OK/GD32VW55X_Wifi_BLE_SDK/GD32VW55x_RELEASE_V1.0.2/MSDK/cloud/alicloud/src/infra/system\guider.c ****                                              "%s", iotx_guider_get_domain(GUIDER_DOMAIN_MQTT));
 930:C:/Users/stapi/OneDrive/Desktop/GD32VW553/V1_MQTT_OK/GD32VW55X_Wifi_BLE_SDK/GD32VW55x_RELEASE_V1.0.2/MSDK/cloud/alicloud/src/infra/system\guider.c ****             }
 931:C:/Users/stapi/OneDrive/Desktop/GD32VW553/V1_MQTT_OK/GD32VW55X_Wifi_BLE_SDK/GD32VW55x_RELEASE_V1.0.2/MSDK/cloud/alicloud/src/infra/system\guider.c ****             else
 932:C:/Users/stapi/OneDrive/Desktop/GD32VW553/V1_MQTT_OK/GD32VW55X_Wifi_BLE_SDK/GD32VW55x_RELEASE_V1.0.2/MSDK/cloud/alicloud/src/infra/system\guider.c ****             {
 933:C:/Users/stapi/OneDrive/Desktop/GD32VW553/V1_MQTT_OK/GD32VW55X_Wifi_BLE_SDK/GD32VW55x_RELEASE_V1.0.2/MSDK/cloud/alicloud/src/infra/system\guider.c ****                 host_name_len = strlen(product_key) + 2 + strlen(iotx_guider_get_domain(GUIDER_DOMA
 934:C:/Users/stapi/OneDrive/Desktop/GD32VW553/V1_MQTT_OK/GD32VW55X_Wifi_BLE_SDK/GD32VW55x_RELEASE_V1.0.2/MSDK/cloud/alicloud/src/infra/system\guider.c ****                 conn->host_name = SYS_GUIDER_MALLOC(host_name_len);
 935:C:/Users/stapi/OneDrive/Desktop/GD32VW553/V1_MQTT_OK/GD32VW55X_Wifi_BLE_SDK/GD32VW55x_RELEASE_V1.0.2/MSDK/cloud/alicloud/src/infra/system\guider.c ****                 if (conn->host_name == NULL)
 936:C:/Users/stapi/OneDrive/Desktop/GD32VW553/V1_MQTT_OK/GD32VW55X_Wifi_BLE_SDK/GD32VW55x_RELEASE_V1.0.2/MSDK/cloud/alicloud/src/infra/system\guider.c ****                 {
 937:C:/Users/stapi/OneDrive/Desktop/GD32VW553/V1_MQTT_OK/GD32VW55X_Wifi_BLE_SDK/GD32VW55x_RELEASE_V1.0.2/MSDK/cloud/alicloud/src/infra/system\guider.c ****                     return -1;
 938:C:/Users/stapi/OneDrive/Desktop/GD32VW553/V1_MQTT_OK/GD32VW55X_Wifi_BLE_SDK/GD32VW55x_RELEASE_V1.0.2/MSDK/cloud/alicloud/src/infra/system\guider.c ****                 }
 939:C:/Users/stapi/OneDrive/Desktop/GD32VW553/V1_MQTT_OK/GD32VW55X_Wifi_BLE_SDK/GD32VW55x_RELEASE_V1.0.2/MSDK/cloud/alicloud/src/infra/system\guider.c **** 
 940:C:/Users/stapi/OneDrive/Desktop/GD32VW553/V1_MQTT_OK/GD32VW55X_Wifi_BLE_SDK/GD32VW55x_RELEASE_V1.0.2/MSDK/cloud/alicloud/src/infra/system\guider.c ****                 iotx_guider_fill_conn_string(conn->host_name, host_name_len,
 941:C:/Users/stapi/OneDrive/Desktop/GD32VW553/V1_MQTT_OK/GD32VW55X_Wifi_BLE_SDK/GD32VW55x_RELEASE_V1.0.2/MSDK/cloud/alicloud/src/infra/system\guider.c ****                                              "%s.%s", product_key,
 942:C:/Users/stapi/OneDrive/Desktop/GD32VW553/V1_MQTT_OK/GD32VW55X_Wifi_BLE_SDK/GD32VW55x_RELEASE_V1.0.2/MSDK/cloud/alicloud/src/infra/system\guider.c ****                                              iotx_guider_get_domain(GUIDER_DOMAIN_MQTT));
 943:C:/Users/stapi/OneDrive/Desktop/GD32VW553/V1_MQTT_OK/GD32VW55X_Wifi_BLE_SDK/GD32VW55x_RELEASE_V1.0.2/MSDK/cloud/alicloud/src/infra/system\guider.c ****             }
 944:C:/Users/stapi/OneDrive/Desktop/GD32VW553/V1_MQTT_OK/GD32VW55X_Wifi_BLE_SDK/GD32VW55x_RELEASE_V1.0.2/MSDK/cloud/alicloud/src/infra/system\guider.c ****         }
 945:C:/Users/stapi/OneDrive/Desktop/GD32VW553/V1_MQTT_OK/GD32VW55X_Wifi_BLE_SDK/GD32VW55x_RELEASE_V1.0.2/MSDK/cloud/alicloud/src/infra/system\guider.c ****     }
 946:C:/Users/stapi/OneDrive/Desktop/GD32VW553/V1_MQTT_OK/GD32VW55X_Wifi_BLE_SDK/GD32VW55x_RELEASE_V1.0.2/MSDK/cloud/alicloud/src/infra/system\guider.c **** 
 947:C:/Users/stapi/OneDrive/Desktop/GD32VW553/V1_MQTT_OK/GD32VW55X_Wifi_BLE_SDK/GD32VW55x_RELEASE_V1.0.2/MSDK/cloud/alicloud/src/infra/system\guider.c ****     return 0;
 948:C:/Users/stapi/OneDrive/Desktop/GD32VW553/V1_MQTT_OK/GD32VW55X_Wifi_BLE_SDK/GD32VW55x_RELEASE_V1.0.2/MSDK/cloud/alicloud/src/infra/system\guider.c **** }
 949:C:/Users/stapi/OneDrive/Desktop/GD32VW553/V1_MQTT_OK/GD32VW55X_Wifi_BLE_SDK/GD32VW55x_RELEASE_V1.0.2/MSDK/cloud/alicloud/src/infra/system\guider.c **** #endif
 950:C:/Users/stapi/OneDrive/Desktop/GD32VW553/V1_MQTT_OK/GD32VW55X_Wifi_BLE_SDK/GD32VW55x_RELEASE_V1.0.2/MSDK/cloud/alicloud/src/infra/system\guider.c **** 
 951:C:/Users/stapi/OneDrive/Desktop/GD32VW553/V1_MQTT_OK/GD32VW55X_Wifi_BLE_SDK/GD32VW55x_RELEASE_V1.0.2/MSDK/cloud/alicloud/src/infra/system\guider.c **** #ifdef REPORT_UUID_ENABLE
 952:C:/Users/stapi/OneDrive/Desktop/GD32VW553/V1_MQTT_OK/GD32VW55X_Wifi_BLE_SDK/GD32VW55x_RELEASE_V1.0.2/MSDK/cloud/alicloud/src/infra/system\guider.c **** #define UUID_STRLEN_MAX (256)
 953:C:/Users/stapi/OneDrive/Desktop/GD32VW553/V1_MQTT_OK/GD32VW55X_Wifi_BLE_SDK/GD32VW55x_RELEASE_V1.0.2/MSDK/cloud/alicloud/src/infra/system\guider.c **** void _ident_uuid(char *buf, int len, sdk_impl_ctx_t *ctx)
 954:C:/Users/stapi/OneDrive/Desktop/GD32VW553/V1_MQTT_OK/GD32VW55X_Wifi_BLE_SDK/GD32VW55x_RELEASE_V1.0.2/MSDK/cloud/alicloud/src/infra/system\guider.c **** {
 955:C:/Users/stapi/OneDrive/Desktop/GD32VW553/V1_MQTT_OK/GD32VW55X_Wifi_BLE_SDK/GD32VW55x_RELEASE_V1.0.2/MSDK/cloud/alicloud/src/infra/system\guider.c ****     uint8_t sign_source[UUID_STRLEN_MAX] = {0};
 956:C:/Users/stapi/OneDrive/Desktop/GD32VW553/V1_MQTT_OK/GD32VW55X_Wifi_BLE_SDK/GD32VW55x_RELEASE_V1.0.2/MSDK/cloud/alicloud/src/infra/system\guider.c ****     unsigned char sign[64] = {0};
 957:C:/Users/stapi/OneDrive/Desktop/GD32VW553/V1_MQTT_OK/GD32VW55X_Wifi_BLE_SDK/GD32VW55x_RELEASE_V1.0.2/MSDK/cloud/alicloud/src/infra/system\guider.c ****     char out_sign[64] = {0};
 958:C:/Users/stapi/OneDrive/Desktop/GD32VW553/V1_MQTT_OK/GD32VW55X_Wifi_BLE_SDK/GD32VW55x_RELEASE_V1.0.2/MSDK/cloud/alicloud/src/infra/system\guider.c **** 
 959:C:/Users/stapi/OneDrive/Desktop/GD32VW553/V1_MQTT_OK/GD32VW55X_Wifi_BLE_SDK/GD32VW55x_RELEASE_V1.0.2/MSDK/cloud/alicloud/src/infra/system\guider.c ****     int source_len = 0;
 960:C:/Users/stapi/OneDrive/Desktop/GD32VW553/V1_MQTT_OK/GD32VW55X_Wifi_BLE_SDK/GD32VW55x_RELEASE_V1.0.2/MSDK/cloud/alicloud/src/infra/system\guider.c **** 
 961:C:/Users/stapi/OneDrive/Desktop/GD32VW553/V1_MQTT_OK/GD32VW55X_Wifi_BLE_SDK/GD32VW55x_RELEASE_V1.0.2/MSDK/cloud/alicloud/src/infra/system\guider.c ****     if (NULL == ctx || 1 != ctx->uuid_enabled)
 962:C:/Users/stapi/OneDrive/Desktop/GD32VW553/V1_MQTT_OK/GD32VW55X_Wifi_BLE_SDK/GD32VW55x_RELEASE_V1.0.2/MSDK/cloud/alicloud/src/infra/system\guider.c ****     {
 963:C:/Users/stapi/OneDrive/Desktop/GD32VW553/V1_MQTT_OK/GD32VW55X_Wifi_BLE_SDK/GD32VW55x_RELEASE_V1.0.2/MSDK/cloud/alicloud/src/infra/system\guider.c ****         return;
 964:C:/Users/stapi/OneDrive/Desktop/GD32VW553/V1_MQTT_OK/GD32VW55X_Wifi_BLE_SDK/GD32VW55x_RELEASE_V1.0.2/MSDK/cloud/alicloud/src/infra/system\guider.c ****     }
 965:C:/Users/stapi/OneDrive/Desktop/GD32VW553/V1_MQTT_OK/GD32VW55X_Wifi_BLE_SDK/GD32VW55x_RELEASE_V1.0.2/MSDK/cloud/alicloud/src/infra/system\guider.c ****     sys_info("uuid enabled\n");
 966:C:/Users/stapi/OneDrive/Desktop/GD32VW553/V1_MQTT_OK/GD32VW55X_Wifi_BLE_SDK/GD32VW55x_RELEASE_V1.0.2/MSDK/cloud/alicloud/src/infra/system\guider.c **** 
 967:C:/Users/stapi/OneDrive/Desktop/GD32VW553/V1_MQTT_OK/GD32VW55X_Wifi_BLE_SDK/GD32VW55x_RELEASE_V1.0.2/MSDK/cloud/alicloud/src/infra/system\guider.c ****     source_len = HAL_GetUUID(sign_source, UUID_STRLEN_MAX);
 968:C:/Users/stapi/OneDrive/Desktop/GD32VW553/V1_MQTT_OK/GD32VW55X_Wifi_BLE_SDK/GD32VW55x_RELEASE_V1.0.2/MSDK/cloud/alicloud/src/infra/system\guider.c ****     if (source_len <= 0 || source_len > UUID_STRLEN_MAX)
 969:C:/Users/stapi/OneDrive/Desktop/GD32VW553/V1_MQTT_OK/GD32VW55X_Wifi_BLE_SDK/GD32VW55x_RELEASE_V1.0.2/MSDK/cloud/alicloud/src/infra/system\guider.c ****     {
 970:C:/Users/stapi/OneDrive/Desktop/GD32VW553/V1_MQTT_OK/GD32VW55X_Wifi_BLE_SDK/GD32VW55x_RELEASE_V1.0.2/MSDK/cloud/alicloud/src/infra/system\guider.c ****         sys_info("uuid return len %d, skip\n", source_len);
 971:C:/Users/stapi/OneDrive/Desktop/GD32VW553/V1_MQTT_OK/GD32VW55X_Wifi_BLE_SDK/GD32VW55x_RELEASE_V1.0.2/MSDK/cloud/alicloud/src/infra/system\guider.c ****         return;
 972:C:/Users/stapi/OneDrive/Desktop/GD32VW553/V1_MQTT_OK/GD32VW55X_Wifi_BLE_SDK/GD32VW55x_RELEASE_V1.0.2/MSDK/cloud/alicloud/src/infra/system\guider.c ****     }
 973:C:/Users/stapi/OneDrive/Desktop/GD32VW553/V1_MQTT_OK/GD32VW55X_Wifi_BLE_SDK/GD32VW55x_RELEASE_V1.0.2/MSDK/cloud/alicloud/src/infra/system\guider.c **** 
 974:C:/Users/stapi/OneDrive/Desktop/GD32VW553/V1_MQTT_OK/GD32VW55X_Wifi_BLE_SDK/GD32VW55x_RELEASE_V1.0.2/MSDK/cloud/alicloud/src/infra/system\guider.c ****     utils_md5((unsigned char *)sign_source, source_len, sign);
 975:C:/Users/stapi/OneDrive/Desktop/GD32VW553/V1_MQTT_OK/GD32VW55X_Wifi_BLE_SDK/GD32VW55x_RELEASE_V1.0.2/MSDK/cloud/alicloud/src/infra/system\guider.c ****     LITE_hexbuf_convert(sign, out_sign, 16, 1);
 976:C:/Users/stapi/OneDrive/Desktop/GD32VW553/V1_MQTT_OK/GD32VW55X_Wifi_BLE_SDK/GD32VW55x_RELEASE_V1.0.2/MSDK/cloud/alicloud/src/infra/system\guider.c ****     snprintf(buf, UUID_STRLEN_MAX, ",_uuid=%s", out_sign);
 977:C:/Users/stapi/OneDrive/Desktop/GD32VW553/V1_MQTT_OK/GD32VW55X_Wifi_BLE_SDK/GD32VW55x_RELEASE_V1.0.2/MSDK/cloud/alicloud/src/infra/system\guider.c ****     sys_info("add uuid into clientId:%s", buf);
 978:C:/Users/stapi/OneDrive/Desktop/GD32VW553/V1_MQTT_OK/GD32VW55X_Wifi_BLE_SDK/GD32VW55x_RELEASE_V1.0.2/MSDK/cloud/alicloud/src/infra/system\guider.c ****     return;
 979:C:/Users/stapi/OneDrive/Desktop/GD32VW553/V1_MQTT_OK/GD32VW55X_Wifi_BLE_SDK/GD32VW55x_RELEASE_V1.0.2/MSDK/cloud/alicloud/src/infra/system\guider.c **** }
 980:C:/Users/stapi/OneDrive/Desktop/GD32VW553/V1_MQTT_OK/GD32VW55X_Wifi_BLE_SDK/GD32VW55x_RELEASE_V1.0.2/MSDK/cloud/alicloud/src/infra/system\guider.c **** #endif
 981:C:/Users/stapi/OneDrive/Desktop/GD32VW553/V1_MQTT_OK/GD32VW55X_Wifi_BLE_SDK/GD32VW55x_RELEASE_V1.0.2/MSDK/cloud/alicloud/src/infra/system\guider.c **** 
 982:C:/Users/stapi/OneDrive/Desktop/GD32VW553/V1_MQTT_OK/GD32VW55X_Wifi_BLE_SDK/GD32VW55x_RELEASE_V1.0.2/MSDK/cloud/alicloud/src/infra/system\guider.c **** static int direct_get_conn_info(iotx_conn_info_t *conn, iotx_device_info_t *p_dev,
 983:C:/Users/stapi/OneDrive/Desktop/GD32VW553/V1_MQTT_OK/GD32VW55X_Wifi_BLE_SDK/GD32VW55x_RELEASE_V1.0.2/MSDK/cloud/alicloud/src/infra/system\guider.c ****                                 char *p_pid, char *p_mid, char *p_guider_url,
 984:C:/Users/stapi/OneDrive/Desktop/GD32VW553/V1_MQTT_OK/GD32VW55X_Wifi_BLE_SDK/GD32VW55x_RELEASE_V1.0.2/MSDK/cloud/alicloud/src/infra/system\guider.c ****                                 char *p_guider_sign, secure_mode_e secure_mode, char *p_dynamic_mqt
 985:C:/Users/stapi/OneDrive/Desktop/GD32VW553/V1_MQTT_OK/GD32VW55X_Wifi_BLE_SDK/GD32VW55x_RELEASE_V1.0.2/MSDK/cloud/alicloud/src/infra/system\guider.c **** {
 986:C:/Users/stapi/OneDrive/Desktop/GD32VW553/V1_MQTT_OK/GD32VW55X_Wifi_BLE_SDK/GD32VW55x_RELEASE_V1.0.2/MSDK/cloud/alicloud/src/infra/system\guider.c ****     int rc = -1;
 987:C:/Users/stapi/OneDrive/Desktop/GD32VW553/V1_MQTT_OK/GD32VW55X_Wifi_BLE_SDK/GD32VW55x_RELEASE_V1.0.2/MSDK/cloud/alicloud/src/infra/system\guider.c ****     int len = 0;
 988:C:/Users/stapi/OneDrive/Desktop/GD32VW553/V1_MQTT_OK/GD32VW55X_Wifi_BLE_SDK/GD32VW55x_RELEASE_V1.0.2/MSDK/cloud/alicloud/src/infra/system\guider.c **** 
 989:C:/Users/stapi/OneDrive/Desktop/GD32VW553/V1_MQTT_OK/GD32VW55X_Wifi_BLE_SDK/GD32VW55x_RELEASE_V1.0.2/MSDK/cloud/alicloud/src/infra/system\guider.c ****     char *authtype = "";
 990:C:/Users/stapi/OneDrive/Desktop/GD32VW553/V1_MQTT_OK/GD32VW55X_Wifi_BLE_SDK/GD32VW55x_RELEASE_V1.0.2/MSDK/cloud/alicloud/src/infra/system\guider.c ****     char timestamp_str[GUIDER_TS_LEN] = {0};
 991:C:/Users/stapi/OneDrive/Desktop/GD32VW553/V1_MQTT_OK/GD32VW55X_Wifi_BLE_SDK/GD32VW55x_RELEASE_V1.0.2/MSDK/cloud/alicloud/src/infra/system\guider.c **** #ifdef REPORT_UUID_ENABLE
 992:C:/Users/stapi/OneDrive/Desktop/GD32VW553/V1_MQTT_OK/GD32VW55X_Wifi_BLE_SDK/GD32VW55x_RELEASE_V1.0.2/MSDK/cloud/alicloud/src/infra/system\guider.c ****     char uuid[UUID_STRLEN_MAX] = {0};
 993:C:/Users/stapi/OneDrive/Desktop/GD32VW553/V1_MQTT_OK/GD32VW55X_Wifi_BLE_SDK/GD32VW55x_RELEASE_V1.0.2/MSDK/cloud/alicloud/src/infra/system\guider.c **** #endif
 994:C:/Users/stapi/OneDrive/Desktop/GD32VW553/V1_MQTT_OK/GD32VW55X_Wifi_BLE_SDK/GD32VW55x_RELEASE_V1.0.2/MSDK/cloud/alicloud/src/infra/system\guider.c ****     unsigned char token_str[RANDOM_STR_MAX_LEN] = {0};
 995:C:/Users/stapi/OneDrive/Desktop/GD32VW553/V1_MQTT_OK/GD32VW55X_Wifi_BLE_SDK/GD32VW55x_RELEASE_V1.0.2/MSDK/cloud/alicloud/src/infra/system\guider.c ****     bind_token_type_t token_type;
 996:C:/Users/stapi/OneDrive/Desktop/GD32VW553/V1_MQTT_OK/GD32VW55X_Wifi_BLE_SDK/GD32VW55x_RELEASE_V1.0.2/MSDK/cloud/alicloud/src/infra/system\guider.c **** 
 997:C:/Users/stapi/OneDrive/Desktop/GD32VW553/V1_MQTT_OK/GD32VW55X_Wifi_BLE_SDK/GD32VW55x_RELEASE_V1.0.2/MSDK/cloud/alicloud/src/infra/system\guider.c ****     char reset_and_token[GUIDER_RESET_AND_TOKEN_LEN] = {0};
 998:C:/Users/stapi/OneDrive/Desktop/GD32VW553/V1_MQTT_OK/GD32VW55X_Wifi_BLE_SDK/GD32VW55x_RELEASE_V1.0.2/MSDK/cloud/alicloud/src/infra/system\guider.c **** 
 999:C:/Users/stapi/OneDrive/Desktop/GD32VW553/V1_MQTT_OK/GD32VW55X_Wifi_BLE_SDK/GD32VW55x_RELEASE_V1.0.2/MSDK/cloud/alicloud/src/infra/system\guider.c ****     sdk_impl_ctx_t *ctx = sdk_impl_get_ctx();
1000:C:/Users/stapi/OneDrive/Desktop/GD32VW553/V1_MQTT_OK/GD32VW55X_Wifi_BLE_SDK/GD32VW55x_RELEASE_V1.0.2/MSDK/cloud/alicloud/src/infra/system\guider.c ****     iotx_vendor_dev_reset_type_t reset_type = IOTX_VENDOR_DEV_RESET_TYPE_INVALID;
1001:C:/Users/stapi/OneDrive/Desktop/GD32VW553/V1_MQTT_OK/GD32VW55X_Wifi_BLE_SDK/GD32VW55x_RELEASE_V1.0.2/MSDK/cloud/alicloud/src/infra/system\guider.c **** 
1002:C:/Users/stapi/OneDrive/Desktop/GD32VW553/V1_MQTT_OK/GD32VW55X_Wifi_BLE_SDK/GD32VW55x_RELEASE_V1.0.2/MSDK/cloud/alicloud/src/infra/system\guider.c ****     guider_get_timestamp_str(timestamp_str, sizeof(timestamp_str));
1003:C:/Users/stapi/OneDrive/Desktop/GD32VW553/V1_MQTT_OK/GD32VW55X_Wifi_BLE_SDK/GD32VW55x_RELEASE_V1.0.2/MSDK/cloud/alicloud/src/infra/system\guider.c **** 
1004:C:/Users/stapi/OneDrive/Desktop/GD32VW553/V1_MQTT_OK/GD32VW55X_Wifi_BLE_SDK/GD32VW55x_RELEASE_V1.0.2/MSDK/cloud/alicloud/src/infra/system\guider.c **** #if defined(SUPPORT_ITLS)
1005:C:/Users/stapi/OneDrive/Desktop/GD32VW553/V1_MQTT_OK/GD32VW55X_Wifi_BLE_SDK/GD32VW55x_RELEASE_V1.0.2/MSDK/cloud/alicloud/src/infra/system\guider.c ****     rc = get_itls_host_and_port(p_dev->product_key, conn);
1006:C:/Users/stapi/OneDrive/Desktop/GD32VW553/V1_MQTT_OK/GD32VW55X_Wifi_BLE_SDK/GD32VW55x_RELEASE_V1.0.2/MSDK/cloud/alicloud/src/infra/system\guider.c ****     if (rc < 0)
1007:C:/Users/stapi/OneDrive/Desktop/GD32VW553/V1_MQTT_OK/GD32VW55X_Wifi_BLE_SDK/GD32VW55x_RELEASE_V1.0.2/MSDK/cloud/alicloud/src/infra/system\guider.c ****     {
1008:C:/Users/stapi/OneDrive/Desktop/GD32VW553/V1_MQTT_OK/GD32VW55X_Wifi_BLE_SDK/GD32VW55x_RELEASE_V1.0.2/MSDK/cloud/alicloud/src/infra/system\guider.c ****         sys_err("host info err");
1009:C:/Users/stapi/OneDrive/Desktop/GD32VW553/V1_MQTT_OK/GD32VW55X_Wifi_BLE_SDK/GD32VW55x_RELEASE_V1.0.2/MSDK/cloud/alicloud/src/infra/system\guider.c ****         return -1;
1010:C:/Users/stapi/OneDrive/Desktop/GD32VW553/V1_MQTT_OK/GD32VW55X_Wifi_BLE_SDK/GD32VW55x_RELEASE_V1.0.2/MSDK/cloud/alicloud/src/infra/system\guider.c ****     }
1011:C:/Users/stapi/OneDrive/Desktop/GD32VW553/V1_MQTT_OK/GD32VW55X_Wifi_BLE_SDK/GD32VW55x_RELEASE_V1.0.2/MSDK/cloud/alicloud/src/infra/system\guider.c **** #else
1012:C:/Users/stapi/OneDrive/Desktop/GD32VW553/V1_MQTT_OK/GD32VW55X_Wifi_BLE_SDK/GD32VW55x_RELEASE_V1.0.2/MSDK/cloud/alicloud/src/infra/system\guider.c ****     rc = get_non_itls_host_and_port(ctx, p_dev->product_key, conn, p_dynamic_mqtt_url);
1013:C:/Users/stapi/OneDrive/Desktop/GD32VW553/V1_MQTT_OK/GD32VW55X_Wifi_BLE_SDK/GD32VW55x_RELEASE_V1.0.2/MSDK/cloud/alicloud/src/infra/system\guider.c ****     if (rc < 0)
1014:C:/Users/stapi/OneDrive/Desktop/GD32VW553/V1_MQTT_OK/GD32VW55X_Wifi_BLE_SDK/GD32VW55x_RELEASE_V1.0.2/MSDK/cloud/alicloud/src/infra/system\guider.c ****     {
1015:C:/Users/stapi/OneDrive/Desktop/GD32VW553/V1_MQTT_OK/GD32VW55X_Wifi_BLE_SDK/GD32VW55x_RELEASE_V1.0.2/MSDK/cloud/alicloud/src/infra/system\guider.c ****         sys_err("host info err");
1016:C:/Users/stapi/OneDrive/Desktop/GD32VW553/V1_MQTT_OK/GD32VW55X_Wifi_BLE_SDK/GD32VW55x_RELEASE_V1.0.2/MSDK/cloud/alicloud/src/infra/system\guider.c ****         return -1;
1017:C:/Users/stapi/OneDrive/Desktop/GD32VW553/V1_MQTT_OK/GD32VW55X_Wifi_BLE_SDK/GD32VW55x_RELEASE_V1.0.2/MSDK/cloud/alicloud/src/infra/system\guider.c ****     }
1018:C:/Users/stapi/OneDrive/Desktop/GD32VW553/V1_MQTT_OK/GD32VW55X_Wifi_BLE_SDK/GD32VW55x_RELEASE_V1.0.2/MSDK/cloud/alicloud/src/infra/system\guider.c **** #endif
1019:C:/Users/stapi/OneDrive/Desktop/GD32VW553/V1_MQTT_OK/GD32VW55X_Wifi_BLE_SDK/GD32VW55x_RELEASE_V1.0.2/MSDK/cloud/alicloud/src/infra/system\guider.c **** 
1020:C:/Users/stapi/OneDrive/Desktop/GD32VW553/V1_MQTT_OK/GD32VW55X_Wifi_BLE_SDK/GD32VW55x_RELEASE_V1.0.2/MSDK/cloud/alicloud/src/infra/system\guider.c ****     _calc_hmac_signature(p_guider_sign, GUIDER_SIGN_LEN, timestamp_str, p_dev, EXT_PLAIN_ROUTE);
1021:C:/Users/stapi/OneDrive/Desktop/GD32VW553/V1_MQTT_OK/GD32VW55X_Wifi_BLE_SDK/GD32VW55x_RELEASE_V1.0.2/MSDK/cloud/alicloud/src/infra/system\guider.c **** 
1022:C:/Users/stapi/OneDrive/Desktop/GD32VW553/V1_MQTT_OK/GD32VW55X_Wifi_BLE_SDK/GD32VW55x_RELEASE_V1.0.2/MSDK/cloud/alicloud/src/infra/system\guider.c ****     guider_print_dev_guider_info(p_dev, p_pid, p_mid, p_guider_url, secure_mode,
1023:C:/Users/stapi/OneDrive/Desktop/GD32VW553/V1_MQTT_OK/GD32VW55X_Wifi_BLE_SDK/GD32VW55x_RELEASE_V1.0.2/MSDK/cloud/alicloud/src/infra/system\guider.c ****                                  timestamp_str, p_guider_sign);
1024:C:/Users/stapi/OneDrive/Desktop/GD32VW553/V1_MQTT_OK/GD32VW55X_Wifi_BLE_SDK/GD32VW55x_RELEASE_V1.0.2/MSDK/cloud/alicloud/src/infra/system\guider.c **** 
1025:C:/Users/stapi/OneDrive/Desktop/GD32VW553/V1_MQTT_OK/GD32VW55X_Wifi_BLE_SDK/GD32VW55x_RELEASE_V1.0.2/MSDK/cloud/alicloud/src/infra/system\guider.c ****     len = strlen(p_dev->device_name) + strlen(p_dev->product_key) + 2;
1026:C:/Users/stapi/OneDrive/Desktop/GD32VW553/V1_MQTT_OK/GD32VW55X_Wifi_BLE_SDK/GD32VW55x_RELEASE_V1.0.2/MSDK/cloud/alicloud/src/infra/system\guider.c ****     conn->username = SYS_GUIDER_MALLOC(len);
1027:C:/Users/stapi/OneDrive/Desktop/GD32VW553/V1_MQTT_OK/GD32VW55X_Wifi_BLE_SDK/GD32VW55x_RELEASE_V1.0.2/MSDK/cloud/alicloud/src/infra/system\guider.c ****     if (conn->username == NULL)
1028:C:/Users/stapi/OneDrive/Desktop/GD32VW553/V1_MQTT_OK/GD32VW55X_Wifi_BLE_SDK/GD32VW55x_RELEASE_V1.0.2/MSDK/cloud/alicloud/src/infra/system\guider.c ****     {
1029:C:/Users/stapi/OneDrive/Desktop/GD32VW553/V1_MQTT_OK/GD32VW55X_Wifi_BLE_SDK/GD32VW55x_RELEASE_V1.0.2/MSDK/cloud/alicloud/src/infra/system\guider.c ****         goto FAILED;
1030:C:/Users/stapi/OneDrive/Desktop/GD32VW553/V1_MQTT_OK/GD32VW55X_Wifi_BLE_SDK/GD32VW55x_RELEASE_V1.0.2/MSDK/cloud/alicloud/src/infra/system\guider.c ****     }
1031:C:/Users/stapi/OneDrive/Desktop/GD32VW553/V1_MQTT_OK/GD32VW55X_Wifi_BLE_SDK/GD32VW55x_RELEASE_V1.0.2/MSDK/cloud/alicloud/src/infra/system\guider.c **** 
1032:C:/Users/stapi/OneDrive/Desktop/GD32VW553/V1_MQTT_OK/GD32VW55X_Wifi_BLE_SDK/GD32VW55x_RELEASE_V1.0.2/MSDK/cloud/alicloud/src/infra/system\guider.c ****     /* fill up username and password */
1033:C:/Users/stapi/OneDrive/Desktop/GD32VW553/V1_MQTT_OK/GD32VW55X_Wifi_BLE_SDK/GD32VW55x_RELEASE_V1.0.2/MSDK/cloud/alicloud/src/infra/system\guider.c ****     iotx_guider_fill_conn_string(conn->username, len,
1034:C:/Users/stapi/OneDrive/Desktop/GD32VW553/V1_MQTT_OK/GD32VW55X_Wifi_BLE_SDK/GD32VW55x_RELEASE_V1.0.2/MSDK/cloud/alicloud/src/infra/system\guider.c ****                                  "%s&%s",
1035:C:/Users/stapi/OneDrive/Desktop/GD32VW553/V1_MQTT_OK/GD32VW55X_Wifi_BLE_SDK/GD32VW55x_RELEASE_V1.0.2/MSDK/cloud/alicloud/src/infra/system\guider.c ****                                  p_dev->device_name,
1036:C:/Users/stapi/OneDrive/Desktop/GD32VW553/V1_MQTT_OK/GD32VW55X_Wifi_BLE_SDK/GD32VW55x_RELEASE_V1.0.2/MSDK/cloud/alicloud/src/infra/system\guider.c ****                                  p_dev->product_key);
1037:C:/Users/stapi/OneDrive/Desktop/GD32VW553/V1_MQTT_OK/GD32VW55X_Wifi_BLE_SDK/GD32VW55x_RELEASE_V1.0.2/MSDK/cloud/alicloud/src/infra/system\guider.c **** 
1038:C:/Users/stapi/OneDrive/Desktop/GD32VW553/V1_MQTT_OK/GD32VW55X_Wifi_BLE_SDK/GD32VW55x_RELEASE_V1.0.2/MSDK/cloud/alicloud/src/infra/system\guider.c ****     len = GUIDER_SIGN_LEN + 1;
1039:C:/Users/stapi/OneDrive/Desktop/GD32VW553/V1_MQTT_OK/GD32VW55X_Wifi_BLE_SDK/GD32VW55x_RELEASE_V1.0.2/MSDK/cloud/alicloud/src/infra/system\guider.c ****     conn->password = SYS_GUIDER_MALLOC(len);
1040:C:/Users/stapi/OneDrive/Desktop/GD32VW553/V1_MQTT_OK/GD32VW55X_Wifi_BLE_SDK/GD32VW55x_RELEASE_V1.0.2/MSDK/cloud/alicloud/src/infra/system\guider.c ****     if (conn->password == NULL)
1041:C:/Users/stapi/OneDrive/Desktop/GD32VW553/V1_MQTT_OK/GD32VW55X_Wifi_BLE_SDK/GD32VW55x_RELEASE_V1.0.2/MSDK/cloud/alicloud/src/infra/system\guider.c ****     {
1042:C:/Users/stapi/OneDrive/Desktop/GD32VW553/V1_MQTT_OK/GD32VW55X_Wifi_BLE_SDK/GD32VW55x_RELEASE_V1.0.2/MSDK/cloud/alicloud/src/infra/system\guider.c ****         goto FAILED;
1043:C:/Users/stapi/OneDrive/Desktop/GD32VW553/V1_MQTT_OK/GD32VW55X_Wifi_BLE_SDK/GD32VW55x_RELEASE_V1.0.2/MSDK/cloud/alicloud/src/infra/system\guider.c ****     }
1044:C:/Users/stapi/OneDrive/Desktop/GD32VW553/V1_MQTT_OK/GD32VW55X_Wifi_BLE_SDK/GD32VW55x_RELEASE_V1.0.2/MSDK/cloud/alicloud/src/infra/system\guider.c **** 
1045:C:/Users/stapi/OneDrive/Desktop/GD32VW553/V1_MQTT_OK/GD32VW55X_Wifi_BLE_SDK/GD32VW55x_RELEASE_V1.0.2/MSDK/cloud/alicloud/src/infra/system\guider.c ****     iotx_guider_fill_conn_string(conn->password, len,
1046:C:/Users/stapi/OneDrive/Desktop/GD32VW553/V1_MQTT_OK/GD32VW55X_Wifi_BLE_SDK/GD32VW55x_RELEASE_V1.0.2/MSDK/cloud/alicloud/src/infra/system\guider.c ****                                  "%s", p_guider_sign);
1047:C:/Users/stapi/OneDrive/Desktop/GD32VW553/V1_MQTT_OK/GD32VW55X_Wifi_BLE_SDK/GD32VW55x_RELEASE_V1.0.2/MSDK/cloud/alicloud/src/infra/system\guider.c **** 
1048:C:/Users/stapi/OneDrive/Desktop/GD32VW553/V1_MQTT_OK/GD32VW55X_Wifi_BLE_SDK/GD32VW55x_RELEASE_V1.0.2/MSDK/cloud/alicloud/src/infra/system\guider.c ****     conn->pub_key = iotx_ca_get();
1049:C:/Users/stapi/OneDrive/Desktop/GD32VW553/V1_MQTT_OK/GD32VW55X_Wifi_BLE_SDK/GD32VW55x_RELEASE_V1.0.2/MSDK/cloud/alicloud/src/infra/system\guider.c **** 
1050:C:/Users/stapi/OneDrive/Desktop/GD32VW553/V1_MQTT_OK/GD32VW55X_Wifi_BLE_SDK/GD32VW55x_RELEASE_V1.0.2/MSDK/cloud/alicloud/src/infra/system\guider.c ****     conn->client_id = SYS_GUIDER_MALLOC(CLIENT_ID_LEN);
1051:C:/Users/stapi/OneDrive/Desktop/GD32VW553/V1_MQTT_OK/GD32VW55X_Wifi_BLE_SDK/GD32VW55x_RELEASE_V1.0.2/MSDK/cloud/alicloud/src/infra/system\guider.c ****     if (conn->client_id == NULL)
1052:C:/Users/stapi/OneDrive/Desktop/GD32VW553/V1_MQTT_OK/GD32VW55X_Wifi_BLE_SDK/GD32VW55x_RELEASE_V1.0.2/MSDK/cloud/alicloud/src/infra/system\guider.c ****     {
1053:C:/Users/stapi/OneDrive/Desktop/GD32VW553/V1_MQTT_OK/GD32VW55X_Wifi_BLE_SDK/GD32VW55x_RELEASE_V1.0.2/MSDK/cloud/alicloud/src/infra/system\guider.c ****         goto FAILED;
1054:C:/Users/stapi/OneDrive/Desktop/GD32VW553/V1_MQTT_OK/GD32VW55X_Wifi_BLE_SDK/GD32VW55x_RELEASE_V1.0.2/MSDK/cloud/alicloud/src/infra/system\guider.c ****     }
1055:C:/Users/stapi/OneDrive/Desktop/GD32VW553/V1_MQTT_OK/GD32VW55X_Wifi_BLE_SDK/GD32VW55x_RELEASE_V1.0.2/MSDK/cloud/alicloud/src/infra/system\guider.c **** 
1056:C:/Users/stapi/OneDrive/Desktop/GD32VW553/V1_MQTT_OK/GD32VW55X_Wifi_BLE_SDK/GD32VW55x_RELEASE_V1.0.2/MSDK/cloud/alicloud/src/infra/system\guider.c **** #ifdef SUPPORT_ITLS
1057:C:/Users/stapi/OneDrive/Desktop/GD32VW553/V1_MQTT_OK/GD32VW55X_Wifi_BLE_SDK/GD32VW55x_RELEASE_V1.0.2/MSDK/cloud/alicloud/src/infra/system\guider.c ****     authtype = ",authtype=id2";
1058:C:/Users/stapi/OneDrive/Desktop/GD32VW553/V1_MQTT_OK/GD32VW55X_Wifi_BLE_SDK/GD32VW55x_RELEASE_V1.0.2/MSDK/cloud/alicloud/src/infra/system\guider.c **** #else
1059:C:/Users/stapi/OneDrive/Desktop/GD32VW553/V1_MQTT_OK/GD32VW55X_Wifi_BLE_SDK/GD32VW55x_RELEASE_V1.0.2/MSDK/cloud/alicloud/src/infra/system\guider.c ****     authtype = ",authtype=custom-ilop";
1060:C:/Users/stapi/OneDrive/Desktop/GD32VW553/V1_MQTT_OK/GD32VW55X_Wifi_BLE_SDK/GD32VW55x_RELEASE_V1.0.2/MSDK/cloud/alicloud/src/infra/system\guider.c **** #endif
1061:C:/Users/stapi/OneDrive/Desktop/GD32VW553/V1_MQTT_OK/GD32VW55X_Wifi_BLE_SDK/GD32VW55x_RELEASE_V1.0.2/MSDK/cloud/alicloud/src/infra/system\guider.c **** 
1062:C:/Users/stapi/OneDrive/Desktop/GD32VW553/V1_MQTT_OK/GD32VW55X_Wifi_BLE_SDK/GD32VW55x_RELEASE_V1.0.2/MSDK/cloud/alicloud/src/infra/system\guider.c ****     awss_check_reset(&reset_type);
1063:C:/Users/stapi/OneDrive/Desktop/GD32VW553/V1_MQTT_OK/GD32VW55X_Wifi_BLE_SDK/GD32VW55x_RELEASE_V1.0.2/MSDK/cloud/alicloud/src/infra/system\guider.c ****     awss_get_token(token_str, RANDOM_STR_MAX_LEN, &token_type);
1064:C:/Users/stapi/OneDrive/Desktop/GD32VW553/V1_MQTT_OK/GD32VW55X_Wifi_BLE_SDK/GD32VW55x_RELEASE_V1.0.2/MSDK/cloud/alicloud/src/infra/system\guider.c **** 
1065:C:/Users/stapi/OneDrive/Desktop/GD32VW553/V1_MQTT_OK/GD32VW55X_Wifi_BLE_SDK/GD32VW55x_RELEASE_V1.0.2/MSDK/cloud/alicloud/src/infra/system\guider.c ****     if ((reset_type != IOTX_VENDOR_DEV_RESET_TYPE_INVALID))
1066:C:/Users/stapi/OneDrive/Desktop/GD32VW553/V1_MQTT_OK/GD32VW55X_Wifi_BLE_SDK/GD32VW55x_RELEASE_V1.0.2/MSDK/cloud/alicloud/src/infra/system\guider.c ****     {
1067:C:/Users/stapi/OneDrive/Desktop/GD32VW553/V1_MQTT_OK/GD32VW55X_Wifi_BLE_SDK/GD32VW55x_RELEASE_V1.0.2/MSDK/cloud/alicloud/src/infra/system\guider.c ****         if (TOKEN_TYPE_NOT_CLOUD == token_type || TOKEN_TYPE_CLOUD == token_type)
1068:C:/Users/stapi/OneDrive/Desktop/GD32VW553/V1_MQTT_OK/GD32VW55X_Wifi_BLE_SDK/GD32VW55x_RELEASE_V1.0.2/MSDK/cloud/alicloud/src/infra/system\guider.c ****         {
1069:C:/Users/stapi/OneDrive/Desktop/GD32VW553/V1_MQTT_OK/GD32VW55X_Wifi_BLE_SDK/GD32VW55x_RELEASE_V1.0.2/MSDK/cloud/alicloud/src/infra/system\guider.c ****             HAL_Snprintf(reset_and_token, GUIDER_RESET_AND_TOKEN_LEN, ",reset=%d,tokenType=%d,token
1070:C:/Users/stapi/OneDrive/Desktop/GD32VW553/V1_MQTT_OK/GD32VW55X_Wifi_BLE_SDK/GD32VW55x_RELEASE_V1.0.2/MSDK/cloud/alicloud/src/infra/system\guider.c ****         }
1071:C:/Users/stapi/OneDrive/Desktop/GD32VW553/V1_MQTT_OK/GD32VW55X_Wifi_BLE_SDK/GD32VW55x_RELEASE_V1.0.2/MSDK/cloud/alicloud/src/infra/system\guider.c ****         else
1072:C:/Users/stapi/OneDrive/Desktop/GD32VW553/V1_MQTT_OK/GD32VW55X_Wifi_BLE_SDK/GD32VW55x_RELEASE_V1.0.2/MSDK/cloud/alicloud/src/infra/system\guider.c ****         {
1073:C:/Users/stapi/OneDrive/Desktop/GD32VW553/V1_MQTT_OK/GD32VW55X_Wifi_BLE_SDK/GD32VW55x_RELEASE_V1.0.2/MSDK/cloud/alicloud/src/infra/system\guider.c ****             HAL_Snprintf(reset_and_token, GUIDER_RESET_AND_TOKEN_LEN, ",reset=%d", reset_type);
1074:C:/Users/stapi/OneDrive/Desktop/GD32VW553/V1_MQTT_OK/GD32VW55X_Wifi_BLE_SDK/GD32VW55x_RELEASE_V1.0.2/MSDK/cloud/alicloud/src/infra/system\guider.c ****         }
1075:C:/Users/stapi/OneDrive/Desktop/GD32VW553/V1_MQTT_OK/GD32VW55X_Wifi_BLE_SDK/GD32VW55x_RELEASE_V1.0.2/MSDK/cloud/alicloud/src/infra/system\guider.c ****     }
1076:C:/Users/stapi/OneDrive/Desktop/GD32VW553/V1_MQTT_OK/GD32VW55X_Wifi_BLE_SDK/GD32VW55x_RELEASE_V1.0.2/MSDK/cloud/alicloud/src/infra/system\guider.c ****     else
1077:C:/Users/stapi/OneDrive/Desktop/GD32VW553/V1_MQTT_OK/GD32VW55X_Wifi_BLE_SDK/GD32VW55x_RELEASE_V1.0.2/MSDK/cloud/alicloud/src/infra/system\guider.c ****     {
1078:C:/Users/stapi/OneDrive/Desktop/GD32VW553/V1_MQTT_OK/GD32VW55X_Wifi_BLE_SDK/GD32VW55x_RELEASE_V1.0.2/MSDK/cloud/alicloud/src/infra/system\guider.c ****         if (TOKEN_TYPE_NOT_CLOUD == token_type || TOKEN_TYPE_CLOUD == token_type)
1079:C:/Users/stapi/OneDrive/Desktop/GD32VW553/V1_MQTT_OK/GD32VW55X_Wifi_BLE_SDK/GD32VW55x_RELEASE_V1.0.2/MSDK/cloud/alicloud/src/infra/system\guider.c ****         {
1080:C:/Users/stapi/OneDrive/Desktop/GD32VW553/V1_MQTT_OK/GD32VW55X_Wifi_BLE_SDK/GD32VW55x_RELEASE_V1.0.2/MSDK/cloud/alicloud/src/infra/system\guider.c ****             HAL_Snprintf(reset_and_token, GUIDER_RESET_AND_TOKEN_LEN, ",tokenType=%d,token=%s", tok
1081:C:/Users/stapi/OneDrive/Desktop/GD32VW553/V1_MQTT_OK/GD32VW55X_Wifi_BLE_SDK/GD32VW55x_RELEASE_V1.0.2/MSDK/cloud/alicloud/src/infra/system\guider.c ****         }
1082:C:/Users/stapi/OneDrive/Desktop/GD32VW553/V1_MQTT_OK/GD32VW55X_Wifi_BLE_SDK/GD32VW55x_RELEASE_V1.0.2/MSDK/cloud/alicloud/src/infra/system\guider.c ****     }
1083:C:/Users/stapi/OneDrive/Desktop/GD32VW553/V1_MQTT_OK/GD32VW55X_Wifi_BLE_SDK/GD32VW55x_RELEASE_V1.0.2/MSDK/cloud/alicloud/src/infra/system\guider.c **** 
1084:C:/Users/stapi/OneDrive/Desktop/GD32VW553/V1_MQTT_OK/GD32VW55X_Wifi_BLE_SDK/GD32VW55x_RELEASE_V1.0.2/MSDK/cloud/alicloud/src/infra/system\guider.c **** #ifdef REPORT_UUID_ENABLE
1085:C:/Users/stapi/OneDrive/Desktop/GD32VW553/V1_MQTT_OK/GD32VW55X_Wifi_BLE_SDK/GD32VW55x_RELEASE_V1.0.2/MSDK/cloud/alicloud/src/infra/system\guider.c ****     _ident_uuid(uuid, sizeof(uuid), ctx);
1086:C:/Users/stapi/OneDrive/Desktop/GD32VW553/V1_MQTT_OK/GD32VW55X_Wifi_BLE_SDK/GD32VW55x_RELEASE_V1.0.2/MSDK/cloud/alicloud/src/infra/system\guider.c **** #endif
1087:C:/Users/stapi/OneDrive/Desktop/GD32VW553/V1_MQTT_OK/GD32VW55X_Wifi_BLE_SDK/GD32VW55x_RELEASE_V1.0.2/MSDK/cloud/alicloud/src/infra/system\guider.c ****     iotx_guider_fill_conn_string(conn->client_id, CLIENT_ID_LEN,
1088:C:/Users/stapi/OneDrive/Desktop/GD32VW553/V1_MQTT_OK/GD32VW55X_Wifi_BLE_SDK/GD32VW55x_RELEASE_V1.0.2/MSDK/cloud/alicloud/src/infra/system\guider.c ****                                  "%s"
1089:C:/Users/stapi/OneDrive/Desktop/GD32VW553/V1_MQTT_OK/GD32VW55X_Wifi_BLE_SDK/GD32VW55x_RELEASE_V1.0.2/MSDK/cloud/alicloud/src/infra/system\guider.c ****                                  "|securemode=%d"
1090:C:/Users/stapi/OneDrive/Desktop/GD32VW553/V1_MQTT_OK/GD32VW55X_Wifi_BLE_SDK/GD32VW55x_RELEASE_V1.0.2/MSDK/cloud/alicloud/src/infra/system\guider.c ****                                  "%s"
1091:C:/Users/stapi/OneDrive/Desktop/GD32VW553/V1_MQTT_OK/GD32VW55X_Wifi_BLE_SDK/GD32VW55x_RELEASE_V1.0.2/MSDK/cloud/alicloud/src/infra/system\guider.c ****                                  ",_v=sdk-c-" LINKKIT_VERSION
1092:C:/Users/stapi/OneDrive/Desktop/GD32VW553/V1_MQTT_OK/GD32VW55X_Wifi_BLE_SDK/GD32VW55x_RELEASE_V1.0.2/MSDK/cloud/alicloud/src/infra/system\guider.c ****                                  ",timestamp=%s"
1093:C:/Users/stapi/OneDrive/Desktop/GD32VW553/V1_MQTT_OK/GD32VW55X_Wifi_BLE_SDK/GD32VW55x_RELEASE_V1.0.2/MSDK/cloud/alicloud/src/infra/system\guider.c ****                                  ",signmethod=" SHA_METHOD ",lan=C"
1094:C:/Users/stapi/OneDrive/Desktop/GD32VW553/V1_MQTT_OK/GD32VW55X_Wifi_BLE_SDK/GD32VW55x_RELEASE_V1.0.2/MSDK/cloud/alicloud/src/infra/system\guider.c ****                                  ",pid=%s"
1095:C:/Users/stapi/OneDrive/Desktop/GD32VW553/V1_MQTT_OK/GD32VW55X_Wifi_BLE_SDK/GD32VW55x_RELEASE_V1.0.2/MSDK/cloud/alicloud/src/infra/system\guider.c ****                                  ",mid=%s"
1096:C:/Users/stapi/OneDrive/Desktop/GD32VW553/V1_MQTT_OK/GD32VW55X_Wifi_BLE_SDK/GD32VW55x_RELEASE_V1.0.2/MSDK/cloud/alicloud/src/infra/system\guider.c ****                                  "%s"
1097:C:/Users/stapi/OneDrive/Desktop/GD32VW553/V1_MQTT_OK/GD32VW55X_Wifi_BLE_SDK/GD32VW55x_RELEASE_V1.0.2/MSDK/cloud/alicloud/src/infra/system\guider.c ****                                  ",_fy=%s"
1098:C:/Users/stapi/OneDrive/Desktop/GD32VW553/V1_MQTT_OK/GD32VW55X_Wifi_BLE_SDK/GD32VW55x_RELEASE_V1.0.2/MSDK/cloud/alicloud/src/infra/system\guider.c **** #ifdef MQTT_AUTO_SUBSCRIBE
1099:C:/Users/stapi/OneDrive/Desktop/GD32VW553/V1_MQTT_OK/GD32VW55X_Wifi_BLE_SDK/GD32VW55x_RELEASE_V1.0.2/MSDK/cloud/alicloud/src/infra/system\guider.c ****                                  ",_ss=1"
1100:C:/Users/stapi/OneDrive/Desktop/GD32VW553/V1_MQTT_OK/GD32VW55X_Wifi_BLE_SDK/GD32VW55x_RELEASE_V1.0.2/MSDK/cloud/alicloud/src/infra/system\guider.c **** #endif
1101:C:/Users/stapi/OneDrive/Desktop/GD32VW553/V1_MQTT_OK/GD32VW55X_Wifi_BLE_SDK/GD32VW55x_RELEASE_V1.0.2/MSDK/cloud/alicloud/src/infra/system\guider.c **** #ifdef REPORT_UUID_ENABLE
1102:C:/Users/stapi/OneDrive/Desktop/GD32VW553/V1_MQTT_OK/GD32VW55X_Wifi_BLE_SDK/GD32VW55x_RELEASE_V1.0.2/MSDK/cloud/alicloud/src/infra/system\guider.c ****                                  "%s"
1103:C:/Users/stapi/OneDrive/Desktop/GD32VW553/V1_MQTT_OK/GD32VW55X_Wifi_BLE_SDK/GD32VW55x_RELEASE_V1.0.2/MSDK/cloud/alicloud/src/infra/system\guider.c **** #endif
1104:C:/Users/stapi/OneDrive/Desktop/GD32VW553/V1_MQTT_OK/GD32VW55X_Wifi_BLE_SDK/GD32VW55x_RELEASE_V1.0.2/MSDK/cloud/alicloud/src/infra/system\guider.c ****                                  "|",
1105:C:/Users/stapi/OneDrive/Desktop/GD32VW553/V1_MQTT_OK/GD32VW55X_Wifi_BLE_SDK/GD32VW55x_RELEASE_V1.0.2/MSDK/cloud/alicloud/src/infra/system\guider.c ****                                  p_dev->device_id, secure_mode, reset_and_token, timestamp_str, p_p
1106:C:/Users/stapi/OneDrive/Desktop/GD32VW553/V1_MQTT_OK/GD32VW55X_Wifi_BLE_SDK/GD32VW55x_RELEASE_V1.0.2/MSDK/cloud/alicloud/src/infra/system\guider.c **** #if (defined(TG7100CEVB)) // report chip info, dont change please!!!
1107:C:/Users/stapi/OneDrive/Desktop/GD32VW553/V1_MQTT_OK/GD32VW55X_Wifi_BLE_SDK/GD32VW55x_RELEASE_V1.0.2/MSDK/cloud/alicloud/src/infra/system\guider.c ****                                  "TG7100CEVB",
1108:C:/Users/stapi/OneDrive/Desktop/GD32VW553/V1_MQTT_OK/GD32VW55X_Wifi_BLE_SDK/GD32VW55x_RELEASE_V1.0.2/MSDK/cloud/alicloud/src/infra/system\guider.c **** #else
1109:C:/Users/stapi/OneDrive/Desktop/GD32VW553/V1_MQTT_OK/GD32VW55X_Wifi_BLE_SDK/GD32VW55x_RELEASE_V1.0.2/MSDK/cloud/alicloud/src/infra/system\guider.c ****                                  p_mid,
1110:C:/Users/stapi/OneDrive/Desktop/GD32VW553/V1_MQTT_OK/GD32VW55X_Wifi_BLE_SDK/GD32VW55x_RELEASE_V1.0.2/MSDK/cloud/alicloud/src/infra/system\guider.c **** #endif
1111:C:/Users/stapi/OneDrive/Desktop/GD32VW553/V1_MQTT_OK/GD32VW55X_Wifi_BLE_SDK/GD32VW55x_RELEASE_V1.0.2/MSDK/cloud/alicloud/src/infra/system\guider.c ****                                  authtype, LIVING_SDK_VERSION
1112:C:/Users/stapi/OneDrive/Desktop/GD32VW553/V1_MQTT_OK/GD32VW55X_Wifi_BLE_SDK/GD32VW55x_RELEASE_V1.0.2/MSDK/cloud/alicloud/src/infra/system\guider.c **** #ifdef REPORT_UUID_ENABLE
1113:C:/Users/stapi/OneDrive/Desktop/GD32VW553/V1_MQTT_OK/GD32VW55X_Wifi_BLE_SDK/GD32VW55x_RELEASE_V1.0.2/MSDK/cloud/alicloud/src/infra/system\guider.c ****                                  ,
1114:C:/Users/stapi/OneDrive/Desktop/GD32VW553/V1_MQTT_OK/GD32VW55X_Wifi_BLE_SDK/GD32VW55x_RELEASE_V1.0.2/MSDK/cloud/alicloud/src/infra/system\guider.c ****                                  uuid
1115:C:/Users/stapi/OneDrive/Desktop/GD32VW553/V1_MQTT_OK/GD32VW55X_Wifi_BLE_SDK/GD32VW55x_RELEASE_V1.0.2/MSDK/cloud/alicloud/src/infra/system\guider.c **** #endif
1116:C:/Users/stapi/OneDrive/Desktop/GD32VW553/V1_MQTT_OK/GD32VW55X_Wifi_BLE_SDK/GD32VW55x_RELEASE_V1.0.2/MSDK/cloud/alicloud/src/infra/system\guider.c ****     );
1117:C:/Users/stapi/OneDrive/Desktop/GD32VW553/V1_MQTT_OK/GD32VW55X_Wifi_BLE_SDK/GD32VW55x_RELEASE_V1.0.2/MSDK/cloud/alicloud/src/infra/system\guider.c **** 
1118:C:/Users/stapi/OneDrive/Desktop/GD32VW553/V1_MQTT_OK/GD32VW55X_Wifi_BLE_SDK/GD32VW55x_RELEASE_V1.0.2/MSDK/cloud/alicloud/src/infra/system\guider.c ****     guider_print_conn_info(conn);
1119:C:/Users/stapi/OneDrive/Desktop/GD32VW553/V1_MQTT_OK/GD32VW55X_Wifi_BLE_SDK/GD32VW55x_RELEASE_V1.0.2/MSDK/cloud/alicloud/src/infra/system\guider.c **** 
1120:C:/Users/stapi/OneDrive/Desktop/GD32VW553/V1_MQTT_OK/GD32VW55X_Wifi_BLE_SDK/GD32VW55x_RELEASE_V1.0.2/MSDK/cloud/alicloud/src/infra/system\guider.c ****     return 0;
1121:C:/Users/stapi/OneDrive/Desktop/GD32VW553/V1_MQTT_OK/GD32VW55X_Wifi_BLE_SDK/GD32VW55x_RELEASE_V1.0.2/MSDK/cloud/alicloud/src/infra/system\guider.c **** 
1122:C:/Users/stapi/OneDrive/Desktop/GD32VW553/V1_MQTT_OK/GD32VW55X_Wifi_BLE_SDK/GD32VW55x_RELEASE_V1.0.2/MSDK/cloud/alicloud/src/infra/system\guider.c **** FAILED:
1123:C:/Users/stapi/OneDrive/Desktop/GD32VW553/V1_MQTT_OK/GD32VW55X_Wifi_BLE_SDK/GD32VW55x_RELEASE_V1.0.2/MSDK/cloud/alicloud/src/infra/system\guider.c ****     if (conn->username)
1124:C:/Users/stapi/OneDrive/Desktop/GD32VW553/V1_MQTT_OK/GD32VW55X_Wifi_BLE_SDK/GD32VW55x_RELEASE_V1.0.2/MSDK/cloud/alicloud/src/infra/system\guider.c ****     {
1125:C:/Users/stapi/OneDrive/Desktop/GD32VW553/V1_MQTT_OK/GD32VW55X_Wifi_BLE_SDK/GD32VW55x_RELEASE_V1.0.2/MSDK/cloud/alicloud/src/infra/system\guider.c ****         SYS_GUIDER_FREE(conn->username);
1126:C:/Users/stapi/OneDrive/Desktop/GD32VW553/V1_MQTT_OK/GD32VW55X_Wifi_BLE_SDK/GD32VW55x_RELEASE_V1.0.2/MSDK/cloud/alicloud/src/infra/system\guider.c ****     }
1127:C:/Users/stapi/OneDrive/Desktop/GD32VW553/V1_MQTT_OK/GD32VW55X_Wifi_BLE_SDK/GD32VW55x_RELEASE_V1.0.2/MSDK/cloud/alicloud/src/infra/system\guider.c ****     if (conn->password)
1128:C:/Users/stapi/OneDrive/Desktop/GD32VW553/V1_MQTT_OK/GD32VW55X_Wifi_BLE_SDK/GD32VW55x_RELEASE_V1.0.2/MSDK/cloud/alicloud/src/infra/system\guider.c ****     {
1129:C:/Users/stapi/OneDrive/Desktop/GD32VW553/V1_MQTT_OK/GD32VW55X_Wifi_BLE_SDK/GD32VW55x_RELEASE_V1.0.2/MSDK/cloud/alicloud/src/infra/system\guider.c ****         SYS_GUIDER_FREE(conn->password);
1130:C:/Users/stapi/OneDrive/Desktop/GD32VW553/V1_MQTT_OK/GD32VW55X_Wifi_BLE_SDK/GD32VW55x_RELEASE_V1.0.2/MSDK/cloud/alicloud/src/infra/system\guider.c ****     }
1131:C:/Users/stapi/OneDrive/Desktop/GD32VW553/V1_MQTT_OK/GD32VW55X_Wifi_BLE_SDK/GD32VW55x_RELEASE_V1.0.2/MSDK/cloud/alicloud/src/infra/system\guider.c ****     if (conn->client_id)
1132:C:/Users/stapi/OneDrive/Desktop/GD32VW553/V1_MQTT_OK/GD32VW55X_Wifi_BLE_SDK/GD32VW55x_RELEASE_V1.0.2/MSDK/cloud/alicloud/src/infra/system\guider.c ****     {
1133:C:/Users/stapi/OneDrive/Desktop/GD32VW553/V1_MQTT_OK/GD32VW55X_Wifi_BLE_SDK/GD32VW55x_RELEASE_V1.0.2/MSDK/cloud/alicloud/src/infra/system\guider.c ****         SYS_GUIDER_FREE(conn->client_id);
1134:C:/Users/stapi/OneDrive/Desktop/GD32VW553/V1_MQTT_OK/GD32VW55X_Wifi_BLE_SDK/GD32VW55x_RELEASE_V1.0.2/MSDK/cloud/alicloud/src/infra/system\guider.c ****     }
1135:C:/Users/stapi/OneDrive/Desktop/GD32VW553/V1_MQTT_OK/GD32VW55X_Wifi_BLE_SDK/GD32VW55x_RELEASE_V1.0.2/MSDK/cloud/alicloud/src/infra/system\guider.c **** 
1136:C:/Users/stapi/OneDrive/Desktop/GD32VW553/V1_MQTT_OK/GD32VW55X_Wifi_BLE_SDK/GD32VW55x_RELEASE_V1.0.2/MSDK/cloud/alicloud/src/infra/system\guider.c ****     return -1;
1137:C:/Users/stapi/OneDrive/Desktop/GD32VW553/V1_MQTT_OK/GD32VW55X_Wifi_BLE_SDK/GD32VW55x_RELEASE_V1.0.2/MSDK/cloud/alicloud/src/infra/system\guider.c **** }
1138:C:/Users/stapi/OneDrive/Desktop/GD32VW553/V1_MQTT_OK/GD32VW55X_Wifi_BLE_SDK/GD32VW55x_RELEASE_V1.0.2/MSDK/cloud/alicloud/src/infra/system\guider.c **** 
1139:C:/Users/stapi/OneDrive/Desktop/GD32VW553/V1_MQTT_OK/GD32VW55X_Wifi_BLE_SDK/GD32VW55x_RELEASE_V1.0.2/MSDK/cloud/alicloud/src/infra/system\guider.c **** static int guider_get_conn_info(iotx_conn_info_t *conn, iotx_device_info_t *p_dev,
1140:C:/Users/stapi/OneDrive/Desktop/GD32VW553/V1_MQTT_OK/GD32VW55X_Wifi_BLE_SDK/GD32VW55x_RELEASE_V1.0.2/MSDK/cloud/alicloud/src/infra/system\guider.c ****                                 char *p_pid, char *p_mid, char *p_guider_url,
1141:C:/Users/stapi/OneDrive/Desktop/GD32VW553/V1_MQTT_OK/GD32VW55X_Wifi_BLE_SDK/GD32VW55x_RELEASE_V1.0.2/MSDK/cloud/alicloud/src/infra/system\guider.c ****                                 secure_mode_e secure_mode)
1142:C:/Users/stapi/OneDrive/Desktop/GD32VW553/V1_MQTT_OK/GD32VW55X_Wifi_BLE_SDK/GD32VW55x_RELEASE_V1.0.2/MSDK/cloud/alicloud/src/infra/system\guider.c **** {
1143:C:/Users/stapi/OneDrive/Desktop/GD32VW553/V1_MQTT_OK/GD32VW55X_Wifi_BLE_SDK/GD32VW55x_RELEASE_V1.0.2/MSDK/cloud/alicloud/src/infra/system\guider.c ****     int gw = 0;
1144:C:/Users/stapi/OneDrive/Desktop/GD32VW553/V1_MQTT_OK/GD32VW55X_Wifi_BLE_SDK/GD32VW55x_RELEASE_V1.0.2/MSDK/cloud/alicloud/src/infra/system\guider.c ****     int ext = 0;
1145:C:/Users/stapi/OneDrive/Desktop/GD32VW553/V1_MQTT_OK/GD32VW55X_Wifi_BLE_SDK/GD32VW55x_RELEASE_V1.0.2/MSDK/cloud/alicloud/src/infra/system\guider.c ****     int len = 0;
1146:C:/Users/stapi/OneDrive/Desktop/GD32VW553/V1_MQTT_OK/GD32VW55X_Wifi_BLE_SDK/GD32VW55x_RELEASE_V1.0.2/MSDK/cloud/alicloud/src/infra/system\guider.c ****     int rc = -1;
1147:C:/Users/stapi/OneDrive/Desktop/GD32VW553/V1_MQTT_OK/GD32VW55X_Wifi_BLE_SDK/GD32VW55x_RELEASE_V1.0.2/MSDK/cloud/alicloud/src/infra/system\guider.c ****     int region_id = -1;
1148:C:/Users/stapi/OneDrive/Desktop/GD32VW553/V1_MQTT_OK/GD32VW55X_Wifi_BLE_SDK/GD32VW55x_RELEASE_V1.0.2/MSDK/cloud/alicloud/src/infra/system\guider.c ****     char *p_request_buf = NULL;
1149:C:/Users/stapi/OneDrive/Desktop/GD32VW553/V1_MQTT_OK/GD32VW55X_Wifi_BLE_SDK/GD32VW55x_RELEASE_V1.0.2/MSDK/cloud/alicloud/src/infra/system\guider.c ****     char timestamp_str[GUIDER_TS_LEN] = {0};
1150:C:/Users/stapi/OneDrive/Desktop/GD32VW553/V1_MQTT_OK/GD32VW55X_Wifi_BLE_SDK/GD32VW55x_RELEASE_V1.0.2/MSDK/cloud/alicloud/src/infra/system\guider.c ****     sdk_impl_ctx_t *ctx = sdk_impl_get_ctx();
1151:C:/Users/stapi/OneDrive/Desktop/GD32VW553/V1_MQTT_OK/GD32VW55X_Wifi_BLE_SDK/GD32VW55x_RELEASE_V1.0.2/MSDK/cloud/alicloud/src/infra/system\guider.c **** 
1152:C:/Users/stapi/OneDrive/Desktop/GD32VW553/V1_MQTT_OK/GD32VW55X_Wifi_BLE_SDK/GD32VW55x_RELEASE_V1.0.2/MSDK/cloud/alicloud/src/infra/system\guider.c ****     const char *p_domain = NULL;
1153:C:/Users/stapi/OneDrive/Desktop/GD32VW553/V1_MQTT_OK/GD32VW55X_Wifi_BLE_SDK/GD32VW55x_RELEASE_V1.0.2/MSDK/cloud/alicloud/src/infra/system\guider.c ****     uint16_t iotx_conn_port = 1883;
1154:C:/Users/stapi/OneDrive/Desktop/GD32VW553/V1_MQTT_OK/GD32VW55X_Wifi_BLE_SDK/GD32VW55x_RELEASE_V1.0.2/MSDK/cloud/alicloud/src/infra/system\guider.c **** 
1155:C:/Users/stapi/OneDrive/Desktop/GD32VW553/V1_MQTT_OK/GD32VW55X_Wifi_BLE_SDK/GD32VW55x_RELEASE_V1.0.2/MSDK/cloud/alicloud/src/infra/system\guider.c ****     char *p_iotx_conn_host = NULL;
1156:C:/Users/stapi/OneDrive/Desktop/GD32VW553/V1_MQTT_OK/GD32VW55X_Wifi_BLE_SDK/GD32VW55x_RELEASE_V1.0.2/MSDK/cloud/alicloud/src/infra/system\guider.c ****     char *p_mqtt_url = NULL;
1157:C:/Users/stapi/OneDrive/Desktop/GD32VW553/V1_MQTT_OK/GD32VW55X_Wifi_BLE_SDK/GD32VW55x_RELEASE_V1.0.2/MSDK/cloud/alicloud/src/infra/system\guider.c **** 
1158:C:/Users/stapi/OneDrive/Desktop/GD32VW553/V1_MQTT_OK/GD32VW55X_Wifi_BLE_SDK/GD32VW55x_RELEASE_V1.0.2/MSDK/cloud/alicloud/src/infra/system\guider.c ****     region_id = iotx_guider_get_region_id();
1159:C:/Users/stapi/OneDrive/Desktop/GD32VW553/V1_MQTT_OK/GD32VW55X_Wifi_BLE_SDK/GD32VW55x_RELEASE_V1.0.2/MSDK/cloud/alicloud/src/infra/system\guider.c ****     guider_get_timestamp_str(timestamp_str, sizeof(timestamp_str));
1160:C:/Users/stapi/OneDrive/Desktop/GD32VW553/V1_MQTT_OK/GD32VW55X_Wifi_BLE_SDK/GD32VW55x_RELEASE_V1.0.2/MSDK/cloud/alicloud/src/infra/system\guider.c ****     p_domain = iotx_guider_get_domain(GUIDER_DOMAIN_HTTP);
1161:C:/Users/stapi/OneDrive/Desktop/GD32VW553/V1_MQTT_OK/GD32VW55X_Wifi_BLE_SDK/GD32VW55x_RELEASE_V1.0.2/MSDK/cloud/alicloud/src/infra/system\guider.c **** 
1162:C:/Users/stapi/OneDrive/Desktop/GD32VW553/V1_MQTT_OK/GD32VW55X_Wifi_BLE_SDK/GD32VW55x_RELEASE_V1.0.2/MSDK/cloud/alicloud/src/infra/system\guider.c ****     if (-1 != region_id) //Have valid region id
1163:C:/Users/stapi/OneDrive/Desktop/GD32VW553/V1_MQTT_OK/GD32VW55X_Wifi_BLE_SDK/GD32VW55x_RELEASE_V1.0.2/MSDK/cloud/alicloud/src/infra/system\guider.c ****     {
1164:C:/Users/stapi/OneDrive/Desktop/GD32VW553/V1_MQTT_OK/GD32VW55X_Wifi_BLE_SDK/GD32VW55x_RELEASE_V1.0.2/MSDK/cloud/alicloud/src/infra/system\guider.c ****         HAL_Snprintf(p_guider_url, GUIDER_URL_LEN, GUIDER_PREAUTH_GET_URL_FMT, p_domain, region_id)
1165:C:/Users/stapi/OneDrive/Desktop/GD32VW553/V1_MQTT_OK/GD32VW55X_Wifi_BLE_SDK/GD32VW55x_RELEASE_V1.0.2/MSDK/cloud/alicloud/src/infra/system\guider.c ****     }
1166:C:/Users/stapi/OneDrive/Desktop/GD32VW553/V1_MQTT_OK/GD32VW55X_Wifi_BLE_SDK/GD32VW55x_RELEASE_V1.0.2/MSDK/cloud/alicloud/src/infra/system\guider.c ****     else
1167:C:/Users/stapi/OneDrive/Desktop/GD32VW553/V1_MQTT_OK/GD32VW55X_Wifi_BLE_SDK/GD32VW55x_RELEASE_V1.0.2/MSDK/cloud/alicloud/src/infra/system\guider.c ****     {
1168:C:/Users/stapi/OneDrive/Desktop/GD32VW553/V1_MQTT_OK/GD32VW55X_Wifi_BLE_SDK/GD32VW55x_RELEASE_V1.0.2/MSDK/cloud/alicloud/src/infra/system\guider.c ****         HAL_Snprintf(p_guider_url, GUIDER_URL_LEN, GUIDER_PREAUTH_URL_FMT, p_domain);
1169:C:/Users/stapi/OneDrive/Desktop/GD32VW553/V1_MQTT_OK/GD32VW55X_Wifi_BLE_SDK/GD32VW55x_RELEASE_V1.0.2/MSDK/cloud/alicloud/src/infra/system\guider.c **** 
1170:C:/Users/stapi/OneDrive/Desktop/GD32VW553/V1_MQTT_OK/GD32VW55X_Wifi_BLE_SDK/GD32VW55x_RELEASE_V1.0.2/MSDK/cloud/alicloud/src/infra/system\guider.c ****         p_request_buf = SYS_GUIDER_MALLOC(GUIDER_PREAUTH_REQUEST_LEN);
1171:C:/Users/stapi/OneDrive/Desktop/GD32VW553/V1_MQTT_OK/GD32VW55X_Wifi_BLE_SDK/GD32VW55x_RELEASE_V1.0.2/MSDK/cloud/alicloud/src/infra/system\guider.c ****         if (!p_request_buf)
1172:C:/Users/stapi/OneDrive/Desktop/GD32VW553/V1_MQTT_OK/GD32VW55X_Wifi_BLE_SDK/GD32VW55x_RELEASE_V1.0.2/MSDK/cloud/alicloud/src/infra/system\guider.c ****         {
1173:C:/Users/stapi/OneDrive/Desktop/GD32VW553/V1_MQTT_OK/GD32VW55X_Wifi_BLE_SDK/GD32VW55x_RELEASE_V1.0.2/MSDK/cloud/alicloud/src/infra/system\guider.c ****             rc = -1;
1174:C:/Users/stapi/OneDrive/Desktop/GD32VW553/V1_MQTT_OK/GD32VW55X_Wifi_BLE_SDK/GD32VW55x_RELEASE_V1.0.2/MSDK/cloud/alicloud/src/infra/system\guider.c ****             goto EXIT;
1175:C:/Users/stapi/OneDrive/Desktop/GD32VW553/V1_MQTT_OK/GD32VW55X_Wifi_BLE_SDK/GD32VW55x_RELEASE_V1.0.2/MSDK/cloud/alicloud/src/infra/system\guider.c ****         }
1176:C:/Users/stapi/OneDrive/Desktop/GD32VW553/V1_MQTT_OK/GD32VW55X_Wifi_BLE_SDK/GD32VW55x_RELEASE_V1.0.2/MSDK/cloud/alicloud/src/infra/system\guider.c ****         memset(p_request_buf, 0, GUIDER_PREAUTH_REQUEST_LEN);
1177:C:/Users/stapi/OneDrive/Desktop/GD32VW553/V1_MQTT_OK/GD32VW55X_Wifi_BLE_SDK/GD32VW55x_RELEASE_V1.0.2/MSDK/cloud/alicloud/src/infra/system\guider.c **** 
1178:C:/Users/stapi/OneDrive/Desktop/GD32VW553/V1_MQTT_OK/GD32VW55X_Wifi_BLE_SDK/GD32VW55x_RELEASE_V1.0.2/MSDK/cloud/alicloud/src/infra/system\guider.c ****         guider_set_auth_req_str(p_request_buf, p_dev, timestamp_str);
1179:C:/Users/stapi/OneDrive/Desktop/GD32VW553/V1_MQTT_OK/GD32VW55X_Wifi_BLE_SDK/GD32VW55x_RELEASE_V1.0.2/MSDK/cloud/alicloud/src/infra/system\guider.c **** 
1180:C:/Users/stapi/OneDrive/Desktop/GD32VW553/V1_MQTT_OK/GD32VW55X_Wifi_BLE_SDK/GD32VW55x_RELEASE_V1.0.2/MSDK/cloud/alicloud/src/infra/system\guider.c ****         sys_debug("req_str = '%s'", p_request_buf);
1181:C:/Users/stapi/OneDrive/Desktop/GD32VW553/V1_MQTT_OK/GD32VW55X_Wifi_BLE_SDK/GD32VW55x_RELEASE_V1.0.2/MSDK/cloud/alicloud/src/infra/system\guider.c ****     }
1182:C:/Users/stapi/OneDrive/Desktop/GD32VW553/V1_MQTT_OK/GD32VW55X_Wifi_BLE_SDK/GD32VW55x_RELEASE_V1.0.2/MSDK/cloud/alicloud/src/infra/system\guider.c **** 
1183:C:/Users/stapi/OneDrive/Desktop/GD32VW553/V1_MQTT_OK/GD32VW55X_Wifi_BLE_SDK/GD32VW55x_RELEASE_V1.0.2/MSDK/cloud/alicloud/src/infra/system\guider.c ****     guider_print_dev_guider_info(p_dev, p_pid, p_mid, p_guider_url, secure_mode,
1184:C:/Users/stapi/OneDrive/Desktop/GD32VW553/V1_MQTT_OK/GD32VW55X_Wifi_BLE_SDK/GD32VW55x_RELEASE_V1.0.2/MSDK/cloud/alicloud/src/infra/system\guider.c ****                                  timestamp_str, "no sign");
1185:C:/Users/stapi/OneDrive/Desktop/GD32VW553/V1_MQTT_OK/GD32VW55X_Wifi_BLE_SDK/GD32VW55x_RELEASE_V1.0.2/MSDK/cloud/alicloud/src/infra/system\guider.c **** 
1186:C:/Users/stapi/OneDrive/Desktop/GD32VW553/V1_MQTT_OK/GD32VW55X_Wifi_BLE_SDK/GD32VW55x_RELEASE_V1.0.2/MSDK/cloud/alicloud/src/infra/system\guider.c ****     p_iotx_conn_host = SYS_GUIDER_MALLOC(HOST_ADDRESS_LEN);
1187:C:/Users/stapi/OneDrive/Desktop/GD32VW553/V1_MQTT_OK/GD32VW55X_Wifi_BLE_SDK/GD32VW55x_RELEASE_V1.0.2/MSDK/cloud/alicloud/src/infra/system\guider.c ****     if (!p_iotx_conn_host)
1188:C:/Users/stapi/OneDrive/Desktop/GD32VW553/V1_MQTT_OK/GD32VW55X_Wifi_BLE_SDK/GD32VW55x_RELEASE_V1.0.2/MSDK/cloud/alicloud/src/infra/system\guider.c ****     {
1189:C:/Users/stapi/OneDrive/Desktop/GD32VW553/V1_MQTT_OK/GD32VW55X_Wifi_BLE_SDK/GD32VW55x_RELEASE_V1.0.2/MSDK/cloud/alicloud/src/infra/system\guider.c ****         rc = -1;
1190:C:/Users/stapi/OneDrive/Desktop/GD32VW553/V1_MQTT_OK/GD32VW55X_Wifi_BLE_SDK/GD32VW55x_RELEASE_V1.0.2/MSDK/cloud/alicloud/src/infra/system\guider.c ****         goto EXIT;
1191:C:/Users/stapi/OneDrive/Desktop/GD32VW553/V1_MQTT_OK/GD32VW55X_Wifi_BLE_SDK/GD32VW55x_RELEASE_V1.0.2/MSDK/cloud/alicloud/src/infra/system\guider.c ****     }
1192:C:/Users/stapi/OneDrive/Desktop/GD32VW553/V1_MQTT_OK/GD32VW55X_Wifi_BLE_SDK/GD32VW55x_RELEASE_V1.0.2/MSDK/cloud/alicloud/src/infra/system\guider.c **** 
1193:C:/Users/stapi/OneDrive/Desktop/GD32VW553/V1_MQTT_OK/GD32VW55X_Wifi_BLE_SDK/GD32VW55x_RELEASE_V1.0.2/MSDK/cloud/alicloud/src/infra/system\guider.c ****     if (0 != guider_get_host_port(p_guider_url, p_request_buf,
1194:C:/Users/stapi/OneDrive/Desktop/GD32VW553/V1_MQTT_OK/GD32VW55X_Wifi_BLE_SDK/GD32VW55x_RELEASE_V1.0.2/MSDK/cloud/alicloud/src/infra/system\guider.c ****                                   p_iotx_conn_host, &iotx_conn_port))
1195:C:/Users/stapi/OneDrive/Desktop/GD32VW553/V1_MQTT_OK/GD32VW55X_Wifi_BLE_SDK/GD32VW55x_RELEASE_V1.0.2/MSDK/cloud/alicloud/src/infra/system\guider.c ****     {
1196:C:/Users/stapi/OneDrive/Desktop/GD32VW553/V1_MQTT_OK/GD32VW55X_Wifi_BLE_SDK/GD32VW55x_RELEASE_V1.0.2/MSDK/cloud/alicloud/src/infra/system\guider.c ****         sys_err("Request MQTT URL failed:%d", region_id);
1197:C:/Users/stapi/OneDrive/Desktop/GD32VW553/V1_MQTT_OK/GD32VW55X_Wifi_BLE_SDK/GD32VW55x_RELEASE_V1.0.2/MSDK/cloud/alicloud/src/infra/system\guider.c ****         if (-1 != region_id)
1198:C:/Users/stapi/OneDrive/Desktop/GD32VW553/V1_MQTT_OK/GD32VW55X_Wifi_BLE_SDK/GD32VW55x_RELEASE_V1.0.2/MSDK/cloud/alicloud/src/infra/system\guider.c ****         {
1199:C:/Users/stapi/OneDrive/Desktop/GD32VW553/V1_MQTT_OK/GD32VW55X_Wifi_BLE_SDK/GD32VW55x_RELEASE_V1.0.2/MSDK/cloud/alicloud/src/infra/system\guider.c ****             //clear dynamic url info when can not get mqtt connect info by regionid
1200:C:/Users/stapi/OneDrive/Desktop/GD32VW553/V1_MQTT_OK/GD32VW55X_Wifi_BLE_SDK/GD32VW55x_RELEASE_V1.0.2/MSDK/cloud/alicloud/src/infra/system\guider.c ****             iotx_guider_clear_dynamic_url();
1201:C:/Users/stapi/OneDrive/Desktop/GD32VW553/V1_MQTT_OK/GD32VW55X_Wifi_BLE_SDK/GD32VW55x_RELEASE_V1.0.2/MSDK/cloud/alicloud/src/infra/system\guider.c ****         }
1202:C:/Users/stapi/OneDrive/Desktop/GD32VW553/V1_MQTT_OK/GD32VW55X_Wifi_BLE_SDK/GD32VW55x_RELEASE_V1.0.2/MSDK/cloud/alicloud/src/infra/system\guider.c ****         goto EXIT;
1203:C:/Users/stapi/OneDrive/Desktop/GD32VW553/V1_MQTT_OK/GD32VW55X_Wifi_BLE_SDK/GD32VW55x_RELEASE_V1.0.2/MSDK/cloud/alicloud/src/infra/system\guider.c ****     }
1204:C:/Users/stapi/OneDrive/Desktop/GD32VW553/V1_MQTT_OK/GD32VW55X_Wifi_BLE_SDK/GD32VW55x_RELEASE_V1.0.2/MSDK/cloud/alicloud/src/infra/system\guider.c **** 
1205:C:/Users/stapi/OneDrive/Desktop/GD32VW553/V1_MQTT_OK/GD32VW55X_Wifi_BLE_SDK/GD32VW55x_RELEASE_V1.0.2/MSDK/cloud/alicloud/src/infra/system\guider.c ****     p_mqtt_url = SYS_GUIDER_MALLOC(GUIDER_URL_LEN);
1206:C:/Users/stapi/OneDrive/Desktop/GD32VW553/V1_MQTT_OK/GD32VW55X_Wifi_BLE_SDK/GD32VW55x_RELEASE_V1.0.2/MSDK/cloud/alicloud/src/infra/system\guider.c ****     if (!p_mqtt_url)
1207:C:/Users/stapi/OneDrive/Desktop/GD32VW553/V1_MQTT_OK/GD32VW55X_Wifi_BLE_SDK/GD32VW55x_RELEASE_V1.0.2/MSDK/cloud/alicloud/src/infra/system\guider.c ****     {
1208:C:/Users/stapi/OneDrive/Desktop/GD32VW553/V1_MQTT_OK/GD32VW55X_Wifi_BLE_SDK/GD32VW55x_RELEASE_V1.0.2/MSDK/cloud/alicloud/src/infra/system\guider.c ****         sys_err("no mem");
1209:C:/Users/stapi/OneDrive/Desktop/GD32VW553/V1_MQTT_OK/GD32VW55X_Wifi_BLE_SDK/GD32VW55x_RELEASE_V1.0.2/MSDK/cloud/alicloud/src/infra/system\guider.c ****         goto EXIT;
1210:C:/Users/stapi/OneDrive/Desktop/GD32VW553/V1_MQTT_OK/GD32VW55X_Wifi_BLE_SDK/GD32VW55x_RELEASE_V1.0.2/MSDK/cloud/alicloud/src/infra/system\guider.c ****     }
1211:C:/Users/stapi/OneDrive/Desktop/GD32VW553/V1_MQTT_OK/GD32VW55X_Wifi_BLE_SDK/GD32VW55x_RELEASE_V1.0.2/MSDK/cloud/alicloud/src/infra/system\guider.c **** 
1212:C:/Users/stapi/OneDrive/Desktop/GD32VW553/V1_MQTT_OK/GD32VW55X_Wifi_BLE_SDK/GD32VW55x_RELEASE_V1.0.2/MSDK/cloud/alicloud/src/infra/system\guider.c ****     memset(p_mqtt_url, '\0', GUIDER_URL_LEN);
1213:C:/Users/stapi/OneDrive/Desktop/GD32VW553/V1_MQTT_OK/GD32VW55X_Wifi_BLE_SDK/GD32VW55x_RELEASE_V1.0.2/MSDK/cloud/alicloud/src/infra/system\guider.c ****     HAL_Snprintf(p_mqtt_url, GUIDER_URL_LEN, "%s:%d", p_iotx_conn_host, iotx_conn_port);
1214:C:/Users/stapi/OneDrive/Desktop/GD32VW553/V1_MQTT_OK/GD32VW55X_Wifi_BLE_SDK/GD32VW55x_RELEASE_V1.0.2/MSDK/cloud/alicloud/src/infra/system\guider.c **** 
1215:C:/Users/stapi/OneDrive/Desktop/GD32VW553/V1_MQTT_OK/GD32VW55X_Wifi_BLE_SDK/GD32VW55x_RELEASE_V1.0.2/MSDK/cloud/alicloud/src/infra/system\guider.c ****     if (0 == iotx_guider_set_dynamic_mqtt_url(p_mqtt_url))
1216:C:/Users/stapi/OneDrive/Desktop/GD32VW553/V1_MQTT_OK/GD32VW55X_Wifi_BLE_SDK/GD32VW55x_RELEASE_V1.0.2/MSDK/cloud/alicloud/src/infra/system\guider.c ****     {
1217:C:/Users/stapi/OneDrive/Desktop/GD32VW553/V1_MQTT_OK/GD32VW55X_Wifi_BLE_SDK/GD32VW55x_RELEASE_V1.0.2/MSDK/cloud/alicloud/src/infra/system\guider.c ****         bootup_connect_method = CONNECT_DIRECT; //reset this flag for do direct connect immediately
1218:C:/Users/stapi/OneDrive/Desktop/GD32VW553/V1_MQTT_OK/GD32VW55X_Wifi_BLE_SDK/GD32VW55x_RELEASE_V1.0.2/MSDK/cloud/alicloud/src/infra/system\guider.c ****         if (-1 != region_id)
1219:C:/Users/stapi/OneDrive/Desktop/GD32VW553/V1_MQTT_OK/GD32VW55X_Wifi_BLE_SDK/GD32VW55x_RELEASE_V1.0.2/MSDK/cloud/alicloud/src/infra/system\guider.c ****         {
1220:C:/Users/stapi/OneDrive/Desktop/GD32VW553/V1_MQTT_OK/GD32VW55X_Wifi_BLE_SDK/GD32VW55x_RELEASE_V1.0.2/MSDK/cloud/alicloud/src/infra/system\guider.c ****             is_request_mqtt_host_by_regionid = 1;
1221:C:/Users/stapi/OneDrive/Desktop/GD32VW553/V1_MQTT_OK/GD32VW55X_Wifi_BLE_SDK/GD32VW55x_RELEASE_V1.0.2/MSDK/cloud/alicloud/src/infra/system\guider.c ****         }
1222:C:/Users/stapi/OneDrive/Desktop/GD32VW553/V1_MQTT_OK/GD32VW55X_Wifi_BLE_SDK/GD32VW55x_RELEASE_V1.0.2/MSDK/cloud/alicloud/src/infra/system\guider.c ****         else
1223:C:/Users/stapi/OneDrive/Desktop/GD32VW553/V1_MQTT_OK/GD32VW55X_Wifi_BLE_SDK/GD32VW55x_RELEASE_V1.0.2/MSDK/cloud/alicloud/src/infra/system\guider.c ****         {
1224:C:/Users/stapi/OneDrive/Desktop/GD32VW553/V1_MQTT_OK/GD32VW55X_Wifi_BLE_SDK/GD32VW55x_RELEASE_V1.0.2/MSDK/cloud/alicloud/src/infra/system\guider.c ****             is_request_mqtt_host_by_regionid = 0;
1225:C:/Users/stapi/OneDrive/Desktop/GD32VW553/V1_MQTT_OK/GD32VW55X_Wifi_BLE_SDK/GD32VW55x_RELEASE_V1.0.2/MSDK/cloud/alicloud/src/infra/system\guider.c ****         }
1226:C:/Users/stapi/OneDrive/Desktop/GD32VW553/V1_MQTT_OK/GD32VW55X_Wifi_BLE_SDK/GD32VW55x_RELEASE_V1.0.2/MSDK/cloud/alicloud/src/infra/system\guider.c ****     }
1227:C:/Users/stapi/OneDrive/Desktop/GD32VW553/V1_MQTT_OK/GD32VW55X_Wifi_BLE_SDK/GD32VW55x_RELEASE_V1.0.2/MSDK/cloud/alicloud/src/infra/system\guider.c **** 
1228:C:/Users/stapi/OneDrive/Desktop/GD32VW553/V1_MQTT_OK/GD32VW55X_Wifi_BLE_SDK/GD32VW55x_RELEASE_V1.0.2/MSDK/cloud/alicloud/src/infra/system\guider.c ****     if (p_request_buf)
1229:C:/Users/stapi/OneDrive/Desktop/GD32VW553/V1_MQTT_OK/GD32VW55X_Wifi_BLE_SDK/GD32VW55x_RELEASE_V1.0.2/MSDK/cloud/alicloud/src/infra/system\guider.c ****     {
1230:C:/Users/stapi/OneDrive/Desktop/GD32VW553/V1_MQTT_OK/GD32VW55X_Wifi_BLE_SDK/GD32VW55x_RELEASE_V1.0.2/MSDK/cloud/alicloud/src/infra/system\guider.c ****         SYS_GUIDER_FREE(p_request_buf);
1231:C:/Users/stapi/OneDrive/Desktop/GD32VW553/V1_MQTT_OK/GD32VW55X_Wifi_BLE_SDK/GD32VW55x_RELEASE_V1.0.2/MSDK/cloud/alicloud/src/infra/system\guider.c ****     }
1232:C:/Users/stapi/OneDrive/Desktop/GD32VW553/V1_MQTT_OK/GD32VW55X_Wifi_BLE_SDK/GD32VW55x_RELEASE_V1.0.2/MSDK/cloud/alicloud/src/infra/system\guider.c ****     if (p_iotx_conn_host != NULL)
1233:C:/Users/stapi/OneDrive/Desktop/GD32VW553/V1_MQTT_OK/GD32VW55X_Wifi_BLE_SDK/GD32VW55x_RELEASE_V1.0.2/MSDK/cloud/alicloud/src/infra/system\guider.c ****     {
1234:C:/Users/stapi/OneDrive/Desktop/GD32VW553/V1_MQTT_OK/GD32VW55X_Wifi_BLE_SDK/GD32VW55x_RELEASE_V1.0.2/MSDK/cloud/alicloud/src/infra/system\guider.c ****         SYS_GUIDER_FREE(p_iotx_conn_host);
1235:C:/Users/stapi/OneDrive/Desktop/GD32VW553/V1_MQTT_OK/GD32VW55X_Wifi_BLE_SDK/GD32VW55x_RELEASE_V1.0.2/MSDK/cloud/alicloud/src/infra/system\guider.c ****     }
1236:C:/Users/stapi/OneDrive/Desktop/GD32VW553/V1_MQTT_OK/GD32VW55X_Wifi_BLE_SDK/GD32VW55x_RELEASE_V1.0.2/MSDK/cloud/alicloud/src/infra/system\guider.c ****     if (p_mqtt_url != NULL)
1237:C:/Users/stapi/OneDrive/Desktop/GD32VW553/V1_MQTT_OK/GD32VW55X_Wifi_BLE_SDK/GD32VW55x_RELEASE_V1.0.2/MSDK/cloud/alicloud/src/infra/system\guider.c ****     {
1238:C:/Users/stapi/OneDrive/Desktop/GD32VW553/V1_MQTT_OK/GD32VW55X_Wifi_BLE_SDK/GD32VW55x_RELEASE_V1.0.2/MSDK/cloud/alicloud/src/infra/system\guider.c ****         SYS_GUIDER_FREE(p_mqtt_url);
1239:C:/Users/stapi/OneDrive/Desktop/GD32VW553/V1_MQTT_OK/GD32VW55X_Wifi_BLE_SDK/GD32VW55x_RELEASE_V1.0.2/MSDK/cloud/alicloud/src/infra/system\guider.c ****     }
1240:C:/Users/stapi/OneDrive/Desktop/GD32VW553/V1_MQTT_OK/GD32VW55X_Wifi_BLE_SDK/GD32VW55x_RELEASE_V1.0.2/MSDK/cloud/alicloud/src/infra/system\guider.c **** 
1241:C:/Users/stapi/OneDrive/Desktop/GD32VW553/V1_MQTT_OK/GD32VW55X_Wifi_BLE_SDK/GD32VW55x_RELEASE_V1.0.2/MSDK/cloud/alicloud/src/infra/system\guider.c ****     if (bootup_connect_method == CONNECT_DIRECT)
1242:C:/Users/stapi/OneDrive/Desktop/GD32VW553/V1_MQTT_OK/GD32VW55X_Wifi_BLE_SDK/GD32VW55x_RELEASE_V1.0.2/MSDK/cloud/alicloud/src/infra/system\guider.c ****     {
1243:C:/Users/stapi/OneDrive/Desktop/GD32VW553/V1_MQTT_OK/GD32VW55X_Wifi_BLE_SDK/GD32VW55x_RELEASE_V1.0.2/MSDK/cloud/alicloud/src/infra/system\guider.c ****         return GUIDER_BOOTSTRAP_DONE; //Will do mqtt connect immediately
1244:C:/Users/stapi/OneDrive/Desktop/GD32VW553/V1_MQTT_OK/GD32VW55X_Wifi_BLE_SDK/GD32VW55x_RELEASE_V1.0.2/MSDK/cloud/alicloud/src/infra/system\guider.c ****     }
1245:C:/Users/stapi/OneDrive/Desktop/GD32VW553/V1_MQTT_OK/GD32VW55X_Wifi_BLE_SDK/GD32VW55x_RELEASE_V1.0.2/MSDK/cloud/alicloud/src/infra/system\guider.c ****     else
1246:C:/Users/stapi/OneDrive/Desktop/GD32VW553/V1_MQTT_OK/GD32VW55X_Wifi_BLE_SDK/GD32VW55x_RELEASE_V1.0.2/MSDK/cloud/alicloud/src/infra/system\guider.c ****     {
1247:C:/Users/stapi/OneDrive/Desktop/GD32VW553/V1_MQTT_OK/GD32VW55X_Wifi_BLE_SDK/GD32VW55x_RELEASE_V1.0.2/MSDK/cloud/alicloud/src/infra/system\guider.c ****         return -1;
1248:C:/Users/stapi/OneDrive/Desktop/GD32VW553/V1_MQTT_OK/GD32VW55X_Wifi_BLE_SDK/GD32VW55x_RELEASE_V1.0.2/MSDK/cloud/alicloud/src/infra/system\guider.c ****     }
1249:C:/Users/stapi/OneDrive/Desktop/GD32VW553/V1_MQTT_OK/GD32VW55X_Wifi_BLE_SDK/GD32VW55x_RELEASE_V1.0.2/MSDK/cloud/alicloud/src/infra/system\guider.c **** 
1250:C:/Users/stapi/OneDrive/Desktop/GD32VW553/V1_MQTT_OK/GD32VW55X_Wifi_BLE_SDK/GD32VW55x_RELEASE_V1.0.2/MSDK/cloud/alicloud/src/infra/system\guider.c **** EXIT:
1251:C:/Users/stapi/OneDrive/Desktop/GD32VW553/V1_MQTT_OK/GD32VW55X_Wifi_BLE_SDK/GD32VW55x_RELEASE_V1.0.2/MSDK/cloud/alicloud/src/infra/system\guider.c ****     if (p_request_buf)
1252:C:/Users/stapi/OneDrive/Desktop/GD32VW553/V1_MQTT_OK/GD32VW55X_Wifi_BLE_SDK/GD32VW55x_RELEASE_V1.0.2/MSDK/cloud/alicloud/src/infra/system\guider.c ****     {
1253:C:/Users/stapi/OneDrive/Desktop/GD32VW553/V1_MQTT_OK/GD32VW55X_Wifi_BLE_SDK/GD32VW55x_RELEASE_V1.0.2/MSDK/cloud/alicloud/src/infra/system\guider.c ****         SYS_GUIDER_FREE(p_request_buf);
1254:C:/Users/stapi/OneDrive/Desktop/GD32VW553/V1_MQTT_OK/GD32VW55X_Wifi_BLE_SDK/GD32VW55x_RELEASE_V1.0.2/MSDK/cloud/alicloud/src/infra/system\guider.c ****     }
1255:C:/Users/stapi/OneDrive/Desktop/GD32VW553/V1_MQTT_OK/GD32VW55X_Wifi_BLE_SDK/GD32VW55x_RELEASE_V1.0.2/MSDK/cloud/alicloud/src/infra/system\guider.c ****     if (p_iotx_conn_host != NULL)
1256:C:/Users/stapi/OneDrive/Desktop/GD32VW553/V1_MQTT_OK/GD32VW55X_Wifi_BLE_SDK/GD32VW55x_RELEASE_V1.0.2/MSDK/cloud/alicloud/src/infra/system\guider.c ****     {
1257:C:/Users/stapi/OneDrive/Desktop/GD32VW553/V1_MQTT_OK/GD32VW55X_Wifi_BLE_SDK/GD32VW55x_RELEASE_V1.0.2/MSDK/cloud/alicloud/src/infra/system\guider.c ****         SYS_GUIDER_FREE(p_iotx_conn_host);
1258:C:/Users/stapi/OneDrive/Desktop/GD32VW553/V1_MQTT_OK/GD32VW55X_Wifi_BLE_SDK/GD32VW55x_RELEASE_V1.0.2/MSDK/cloud/alicloud/src/infra/system\guider.c ****     }
1259:C:/Users/stapi/OneDrive/Desktop/GD32VW553/V1_MQTT_OK/GD32VW55X_Wifi_BLE_SDK/GD32VW55x_RELEASE_V1.0.2/MSDK/cloud/alicloud/src/infra/system\guider.c ****     if (p_mqtt_url != NULL)
1260:C:/Users/stapi/OneDrive/Desktop/GD32VW553/V1_MQTT_OK/GD32VW55X_Wifi_BLE_SDK/GD32VW55x_RELEASE_V1.0.2/MSDK/cloud/alicloud/src/infra/system\guider.c ****     {
1261:C:/Users/stapi/OneDrive/Desktop/GD32VW553/V1_MQTT_OK/GD32VW55X_Wifi_BLE_SDK/GD32VW55x_RELEASE_V1.0.2/MSDK/cloud/alicloud/src/infra/system\guider.c ****         SYS_GUIDER_FREE(p_mqtt_url);
1262:C:/Users/stapi/OneDrive/Desktop/GD32VW553/V1_MQTT_OK/GD32VW55X_Wifi_BLE_SDK/GD32VW55x_RELEASE_V1.0.2/MSDK/cloud/alicloud/src/infra/system\guider.c ****     }
1263:C:/Users/stapi/OneDrive/Desktop/GD32VW553/V1_MQTT_OK/GD32VW55X_Wifi_BLE_SDK/GD32VW55x_RELEASE_V1.0.2/MSDK/cloud/alicloud/src/infra/system\guider.c **** 
1264:C:/Users/stapi/OneDrive/Desktop/GD32VW553/V1_MQTT_OK/GD32VW55X_Wifi_BLE_SDK/GD32VW55x_RELEASE_V1.0.2/MSDK/cloud/alicloud/src/infra/system\guider.c ****     return -1;
1265:C:/Users/stapi/OneDrive/Desktop/GD32VW553/V1_MQTT_OK/GD32VW55X_Wifi_BLE_SDK/GD32VW55x_RELEASE_V1.0.2/MSDK/cloud/alicloud/src/infra/system\guider.c **** }
1266:C:/Users/stapi/OneDrive/Desktop/GD32VW553/V1_MQTT_OK/GD32VW55X_Wifi_BLE_SDK/GD32VW55x_RELEASE_V1.0.2/MSDK/cloud/alicloud/src/infra/system\guider.c **** 
1267:C:/Users/stapi/OneDrive/Desktop/GD32VW553/V1_MQTT_OK/GD32VW55X_Wifi_BLE_SDK/GD32VW55x_RELEASE_V1.0.2/MSDK/cloud/alicloud/src/infra/system\guider.c **** int iotx_guider_authenticate(iotx_conn_info_t *conn_info, void (*cb)(void *), void *client)
1268:C:/Users/stapi/OneDrive/Desktop/GD32VW553/V1_MQTT_OK/GD32VW55X_Wifi_BLE_SDK/GD32VW55x_RELEASE_V1.0.2/MSDK/cloud/alicloud/src/infra/system\guider.c **** {
 1667              		.loc 1 1268 1 is_stmt 1
 1668              		.cfi_startproc
 1669              	.LVL153:
 1670 0000 17030000 		call	t0,__riscv_save_12
 1670      E7020300 
 1671              		.cfi_offset 27, -52
 1672              		.cfi_offset 26, -48
 1673              		.cfi_offset 25, -44
 1674              		.cfi_offset 24, -40
 1675              		.cfi_offset 23, -36
 1676              		.cfi_offset 22, -32
 1677              		.cfi_offset 21, -28
 1678              		.cfi_offset 20, -24
 1679              		.cfi_offset 19, -20
 1680              		.cfi_offset 18, -16
 1681              		.cfi_offset 9, -12
 1682              		.cfi_offset 8, -8
 1683              		.cfi_offset 1, -4
 1684              		.cfi_def_cfa_offset 64
1269:C:/Users/stapi/OneDrive/Desktop/GD32VW553/V1_MQTT_OK/GD32VW55X_Wifi_BLE_SDK/GD32VW55x_RELEASE_V1.0.2/MSDK/cloud/alicloud/src/infra/system\guider.c ****     int ret = -1;
 1685              		.loc 1 1269 5
 1686              	.LVL154:
1270:C:/Users/stapi/OneDrive/Desktop/GD32VW553/V1_MQTT_OK/GD32VW55X_Wifi_BLE_SDK/GD32VW55x_RELEASE_V1.0.2/MSDK/cloud/alicloud/src/infra/system\guider.c ****     char *p_pid = NULL;
 1687              		.loc 1 1270 5
1271:C:/Users/stapi/OneDrive/Desktop/GD32VW553/V1_MQTT_OK/GD32VW55X_Wifi_BLE_SDK/GD32VW55x_RELEASE_V1.0.2/MSDK/cloud/alicloud/src/infra/system\guider.c ****     char *p_mid = NULL;
 1688              		.loc 1 1271 5
1272:C:/Users/stapi/OneDrive/Desktop/GD32VW553/V1_MQTT_OK/GD32VW55X_Wifi_BLE_SDK/GD32VW55x_RELEASE_V1.0.2/MSDK/cloud/alicloud/src/infra/system\guider.c ****     char *p_guider_url = NULL;
 1689              		.loc 1 1272 5
1273:C:/Users/stapi/OneDrive/Desktop/GD32VW553/V1_MQTT_OK/GD32VW55X_Wifi_BLE_SDK/GD32VW55x_RELEASE_V1.0.2/MSDK/cloud/alicloud/src/infra/system\guider.c ****     char *p_guider_sign = NULL;
 1690              		.loc 1 1273 5
1274:C:/Users/stapi/OneDrive/Desktop/GD32VW553/V1_MQTT_OK/GD32VW55X_Wifi_BLE_SDK/GD32VW55x_RELEASE_V1.0.2/MSDK/cloud/alicloud/src/infra/system\guider.c ****     char *p_dynamic_mqtt_url = NULL;
 1691              		.loc 1 1274 5
1275:C:/Users/stapi/OneDrive/Desktop/GD32VW553/V1_MQTT_OK/GD32VW55X_Wifi_BLE_SDK/GD32VW55x_RELEASE_V1.0.2/MSDK/cloud/alicloud/src/infra/system\guider.c **** 
1276:C:/Users/stapi/OneDrive/Desktop/GD32VW553/V1_MQTT_OK/GD32VW55X_Wifi_BLE_SDK/GD32VW55x_RELEASE_V1.0.2/MSDK/cloud/alicloud/src/infra/system\guider.c ****     iotx_device_info_t *p_dev = NULL;
 1692              		.loc 1 1276 5
1277:C:/Users/stapi/OneDrive/Desktop/GD32VW553/V1_MQTT_OK/GD32VW55X_Wifi_BLE_SDK/GD32VW55x_RELEASE_V1.0.2/MSDK/cloud/alicloud/src/infra/system\guider.c ****     secure_mode_e secure_mode;
 1693              		.loc 1 1277 5
1278:C:/Users/stapi/OneDrive/Desktop/GD32VW553/V1_MQTT_OK/GD32VW55X_Wifi_BLE_SDK/GD32VW55x_RELEASE_V1.0.2/MSDK/cloud/alicloud/src/infra/system\guider.c ****     connect_method_e connect_method;
 1694              		.loc 1 1278 5
1279:C:/Users/stapi/OneDrive/Desktop/GD32VW553/V1_MQTT_OK/GD32VW55X_Wifi_BLE_SDK/GD32VW55x_RELEASE_V1.0.2/MSDK/cloud/alicloud/src/infra/system\guider.c ****     iotx_cloud_region_types_t region_type;
 1695              		.loc 1 1279 5
1280:C:/Users/stapi/OneDrive/Desktop/GD32VW553/V1_MQTT_OK/GD32VW55X_Wifi_BLE_SDK/GD32VW55x_RELEASE_V1.0.2/MSDK/cloud/alicloud/src/infra/system\guider.c **** 
1281:C:/Users/stapi/OneDrive/Desktop/GD32VW553/V1_MQTT_OK/GD32VW55X_Wifi_BLE_SDK/GD32VW55x_RELEASE_V1.0.2/MSDK/cloud/alicloud/src/infra/system\guider.c ****     LITE_ASSERT(conn_info);
 1696              		.loc 1 1281 5
 1697              		.loc 1 1281 5
1268:C:/Users/stapi/OneDrive/Desktop/GD32VW553/V1_MQTT_OK/GD32VW55X_Wifi_BLE_SDK/GD32VW55x_RELEASE_V1.0.2/MSDK/cloud/alicloud/src/infra/system\guider.c ****     int ret = -1;
 1698              		.loc 1 1268 1 is_stmt 0
 1699 0008 7171     		addi	sp,sp,-176
 1700              		.cfi_def_cfa_offset 240
1268:C:/Users/stapi/OneDrive/Desktop/GD32VW553/V1_MQTT_OK/GD32VW55X_Wifi_BLE_SDK/GD32VW55x_RELEASE_V1.0.2/MSDK/cloud/alicloud/src/infra/system\guider.c ****     int ret = -1;
 1701              		.loc 1 1268 1
 1702 000a 2ECE     		sw	a1,28(sp)
 1703 000c 32D2     		sw	a2,36(sp)
 1704 000e 2A84     		mv	s0,a0
 1705              		.loc 1 1281 5
 1706 0010 1DE5     		bne	a0,zero,.L88
 1707              		.loc 1 1281 5 is_stmt 1 discriminator 1
 1708 0012 37070000 		lui	a4,%hi(.LC48)
 1709 0016 37060000 		lui	a2,%hi(.LANCHOR10)
 1710              	.LVL155:
 1711 001a B7050000 		lui	a1,%hi(.LC45)
 1712              	.LVL156:
 1713 001e 37050000 		lui	a0,%hi(.LC46)
 1714              	.LVL157:
 1715 0022 13070700 		addi	a4,a4,%lo(.LC48)
 1716 0026 93061050 		li	a3,1281
 1717 002a 13060600 		addi	a2,a2,%lo(.LANCHOR10)
 1718 002e 93850500 		addi	a1,a1,%lo(.LC45)
 1719 0032 13050500 		addi	a0,a0,%lo(.LC46)
 1720 0036 97000000 		call	HAL_Printf
 1720      E7800000 
 1721              	.LVL158:
 1722              	.L88:
 1723              		.loc 1 1281 5 discriminator 3
1282:C:/Users/stapi/OneDrive/Desktop/GD32VW553/V1_MQTT_OK/GD32VW55X_Wifi_BLE_SDK/GD32VW55x_RELEASE_V1.0.2/MSDK/cloud/alicloud/src/infra/system\guider.c **** 
1283:C:/Users/stapi/OneDrive/Desktop/GD32VW553/V1_MQTT_OK/GD32VW55X_Wifi_BLE_SDK/GD32VW55x_RELEASE_V1.0.2/MSDK/cloud/alicloud/src/infra/system\guider.c ****     if (conn_info->init != 0)
 1724              		.loc 1 1283 5 discriminator 3
 1725              		.loc 1 1283 8 is_stmt 0 discriminator 3
 1726 003e 83472400 		lbu	a5,2(s0)
 1727 0042 A1C3     		beq	a5,zero,.L89
1284:C:/Users/stapi/OneDrive/Desktop/GD32VW553/V1_MQTT_OK/GD32VW55X_Wifi_BLE_SDK/GD32VW55x_RELEASE_V1.0.2/MSDK/cloud/alicloud/src/infra/system\guider.c ****     {
1285:C:/Users/stapi/OneDrive/Desktop/GD32VW553/V1_MQTT_OK/GD32VW55X_Wifi_BLE_SDK/GD32VW55x_RELEASE_V1.0.2/MSDK/cloud/alicloud/src/infra/system\guider.c ****         sys_warning("conn info inited!");
 1728              		.loc 1 1285 9 is_stmt 1
 1729              		.loc 1 1285 9
 1730 0044 37050000 		lui	a0,%hi(.LC24)
 1731 0048 13050500 		addi	a0,a0,%lo(.LC24)
 1732 004c 97000000 		call	HAL_Printf
 1732      E7800000 
 1733              	.LVL159:
 1734              		.loc 1 1285 9
 1735 0054 37050000 		lui	a0,%hi(.LC49)
 1736 0058 13050500 		addi	a0,a0,%lo(.LC49)
 1737 005c 97000000 		call	HAL_Printf
 1737      E7800000 
 1738              	.LVL160:
 1739              		.loc 1 1285 9
 1740 0064 37050000 		lui	a0,%hi(.LC17)
 1741 0068 13050500 		addi	a0,a0,%lo(.LC17)
 1742 006c 97000000 		call	HAL_Printf
 1742      E7800000 
 1743              	.LVL161:
 1744              		.loc 1 1285 9
1286:C:/Users/stapi/OneDrive/Desktop/GD32VW553/V1_MQTT_OK/GD32VW55X_Wifi_BLE_SDK/GD32VW55x_RELEASE_V1.0.2/MSDK/cloud/alicloud/src/infra/system\guider.c ****         return 0;
 1745              		.loc 1 1286 9
 1746              		.loc 1 1286 16 is_stmt 0
 1747 0074 014A     		li	s4,0
 1748              	.LVL162:
 1749              	.L87:
1287:C:/Users/stapi/OneDrive/Desktop/GD32VW553/V1_MQTT_OK/GD32VW55X_Wifi_BLE_SDK/GD32VW55x_RELEASE_V1.0.2/MSDK/cloud/alicloud/src/infra/system\guider.c ****     }
1288:C:/Users/stapi/OneDrive/Desktop/GD32VW553/V1_MQTT_OK/GD32VW55X_Wifi_BLE_SDK/GD32VW55x_RELEASE_V1.0.2/MSDK/cloud/alicloud/src/infra/system\guider.c **** 
1289:C:/Users/stapi/OneDrive/Desktop/GD32VW553/V1_MQTT_OK/GD32VW55X_Wifi_BLE_SDK/GD32VW55x_RELEASE_V1.0.2/MSDK/cloud/alicloud/src/infra/system\guider.c ****     p_pid = SYS_GUIDER_MALLOC(PID_STRLEN_MAX);
1290:C:/Users/stapi/OneDrive/Desktop/GD32VW553/V1_MQTT_OK/GD32VW55X_Wifi_BLE_SDK/GD32VW55x_RELEASE_V1.0.2/MSDK/cloud/alicloud/src/infra/system\guider.c ****     if (!p_pid)
1291:C:/Users/stapi/OneDrive/Desktop/GD32VW553/V1_MQTT_OK/GD32VW55X_Wifi_BLE_SDK/GD32VW55x_RELEASE_V1.0.2/MSDK/cloud/alicloud/src/infra/system\guider.c ****     {
1292:C:/Users/stapi/OneDrive/Desktop/GD32VW553/V1_MQTT_OK/GD32VW55X_Wifi_BLE_SDK/GD32VW55x_RELEASE_V1.0.2/MSDK/cloud/alicloud/src/infra/system\guider.c ****         ret = -1;
1293:C:/Users/stapi/OneDrive/Desktop/GD32VW553/V1_MQTT_OK/GD32VW55X_Wifi_BLE_SDK/GD32VW55x_RELEASE_V1.0.2/MSDK/cloud/alicloud/src/infra/system\guider.c ****         goto EXIT;
1294:C:/Users/stapi/OneDrive/Desktop/GD32VW553/V1_MQTT_OK/GD32VW55X_Wifi_BLE_SDK/GD32VW55x_RELEASE_V1.0.2/MSDK/cloud/alicloud/src/infra/system\guider.c ****     }
1295:C:/Users/stapi/OneDrive/Desktop/GD32VW553/V1_MQTT_OK/GD32VW55X_Wifi_BLE_SDK/GD32VW55x_RELEASE_V1.0.2/MSDK/cloud/alicloud/src/infra/system\guider.c ****     HAL_GetPartnerID(p_pid);
1296:C:/Users/stapi/OneDrive/Desktop/GD32VW553/V1_MQTT_OK/GD32VW55X_Wifi_BLE_SDK/GD32VW55x_RELEASE_V1.0.2/MSDK/cloud/alicloud/src/infra/system\guider.c **** 
1297:C:/Users/stapi/OneDrive/Desktop/GD32VW553/V1_MQTT_OK/GD32VW55X_Wifi_BLE_SDK/GD32VW55x_RELEASE_V1.0.2/MSDK/cloud/alicloud/src/infra/system\guider.c ****     p_mid = SYS_GUIDER_MALLOC(MID_STRLEN_MAX);
1298:C:/Users/stapi/OneDrive/Desktop/GD32VW553/V1_MQTT_OK/GD32VW55X_Wifi_BLE_SDK/GD32VW55x_RELEASE_V1.0.2/MSDK/cloud/alicloud/src/infra/system\guider.c ****     if (!p_mid)
1299:C:/Users/stapi/OneDrive/Desktop/GD32VW553/V1_MQTT_OK/GD32VW55X_Wifi_BLE_SDK/GD32VW55x_RELEASE_V1.0.2/MSDK/cloud/alicloud/src/infra/system\guider.c ****     {
1300:C:/Users/stapi/OneDrive/Desktop/GD32VW553/V1_MQTT_OK/GD32VW55X_Wifi_BLE_SDK/GD32VW55x_RELEASE_V1.0.2/MSDK/cloud/alicloud/src/infra/system\guider.c ****         ret = -1;
1301:C:/Users/stapi/OneDrive/Desktop/GD32VW553/V1_MQTT_OK/GD32VW55X_Wifi_BLE_SDK/GD32VW55x_RELEASE_V1.0.2/MSDK/cloud/alicloud/src/infra/system\guider.c ****         goto EXIT;
1302:C:/Users/stapi/OneDrive/Desktop/GD32VW553/V1_MQTT_OK/GD32VW55X_Wifi_BLE_SDK/GD32VW55x_RELEASE_V1.0.2/MSDK/cloud/alicloud/src/infra/system\guider.c ****     }
1303:C:/Users/stapi/OneDrive/Desktop/GD32VW553/V1_MQTT_OK/GD32VW55X_Wifi_BLE_SDK/GD32VW55x_RELEASE_V1.0.2/MSDK/cloud/alicloud/src/infra/system\guider.c ****     HAL_GetModuleID(p_mid);
1304:C:/Users/stapi/OneDrive/Desktop/GD32VW553/V1_MQTT_OK/GD32VW55X_Wifi_BLE_SDK/GD32VW55x_RELEASE_V1.0.2/MSDK/cloud/alicloud/src/infra/system\guider.c **** 
1305:C:/Users/stapi/OneDrive/Desktop/GD32VW553/V1_MQTT_OK/GD32VW55X_Wifi_BLE_SDK/GD32VW55x_RELEASE_V1.0.2/MSDK/cloud/alicloud/src/infra/system\guider.c ****     p_dev = SYS_GUIDER_MALLOC(sizeof(iotx_device_info_t));
1306:C:/Users/stapi/OneDrive/Desktop/GD32VW553/V1_MQTT_OK/GD32VW55X_Wifi_BLE_SDK/GD32VW55x_RELEASE_V1.0.2/MSDK/cloud/alicloud/src/infra/system\guider.c ****     if (!p_dev)
1307:C:/Users/stapi/OneDrive/Desktop/GD32VW553/V1_MQTT_OK/GD32VW55X_Wifi_BLE_SDK/GD32VW55x_RELEASE_V1.0.2/MSDK/cloud/alicloud/src/infra/system\guider.c ****     {
1308:C:/Users/stapi/OneDrive/Desktop/GD32VW553/V1_MQTT_OK/GD32VW55X_Wifi_BLE_SDK/GD32VW55x_RELEASE_V1.0.2/MSDK/cloud/alicloud/src/infra/system\guider.c ****         ret = -1;
1309:C:/Users/stapi/OneDrive/Desktop/GD32VW553/V1_MQTT_OK/GD32VW55X_Wifi_BLE_SDK/GD32VW55x_RELEASE_V1.0.2/MSDK/cloud/alicloud/src/infra/system\guider.c ****         goto EXIT;
1310:C:/Users/stapi/OneDrive/Desktop/GD32VW553/V1_MQTT_OK/GD32VW55X_Wifi_BLE_SDK/GD32VW55x_RELEASE_V1.0.2/MSDK/cloud/alicloud/src/infra/system\guider.c ****     }
1311:C:/Users/stapi/OneDrive/Desktop/GD32VW553/V1_MQTT_OK/GD32VW55X_Wifi_BLE_SDK/GD32VW55x_RELEASE_V1.0.2/MSDK/cloud/alicloud/src/infra/system\guider.c ****     memset(p_dev, '\0', sizeof(iotx_device_info_t));
1312:C:/Users/stapi/OneDrive/Desktop/GD32VW553/V1_MQTT_OK/GD32VW55X_Wifi_BLE_SDK/GD32VW55x_RELEASE_V1.0.2/MSDK/cloud/alicloud/src/infra/system\guider.c ****     ret = iotx_device_info_get(p_dev);
1313:C:/Users/stapi/OneDrive/Desktop/GD32VW553/V1_MQTT_OK/GD32VW55X_Wifi_BLE_SDK/GD32VW55x_RELEASE_V1.0.2/MSDK/cloud/alicloud/src/infra/system\guider.c ****     if (ret < 0)
1314:C:/Users/stapi/OneDrive/Desktop/GD32VW553/V1_MQTT_OK/GD32VW55X_Wifi_BLE_SDK/GD32VW55x_RELEASE_V1.0.2/MSDK/cloud/alicloud/src/infra/system\guider.c ****     {
1315:C:/Users/stapi/OneDrive/Desktop/GD32VW553/V1_MQTT_OK/GD32VW55X_Wifi_BLE_SDK/GD32VW55x_RELEASE_V1.0.2/MSDK/cloud/alicloud/src/infra/system\guider.c ****         ret = -1;
1316:C:/Users/stapi/OneDrive/Desktop/GD32VW553/V1_MQTT_OK/GD32VW55X_Wifi_BLE_SDK/GD32VW55x_RELEASE_V1.0.2/MSDK/cloud/alicloud/src/infra/system\guider.c ****         goto EXIT;
1317:C:/Users/stapi/OneDrive/Desktop/GD32VW553/V1_MQTT_OK/GD32VW55X_Wifi_BLE_SDK/GD32VW55x_RELEASE_V1.0.2/MSDK/cloud/alicloud/src/infra/system\guider.c ****     }
1318:C:/Users/stapi/OneDrive/Desktop/GD32VW553/V1_MQTT_OK/GD32VW55X_Wifi_BLE_SDK/GD32VW55x_RELEASE_V1.0.2/MSDK/cloud/alicloud/src/infra/system\guider.c **** 
1319:C:/Users/stapi/OneDrive/Desktop/GD32VW553/V1_MQTT_OK/GD32VW55X_Wifi_BLE_SDK/GD32VW55x_RELEASE_V1.0.2/MSDK/cloud/alicloud/src/infra/system\guider.c ****     p_guider_sign = SYS_GUIDER_MALLOC(GUIDER_SIGN_LEN);
1320:C:/Users/stapi/OneDrive/Desktop/GD32VW553/V1_MQTT_OK/GD32VW55X_Wifi_BLE_SDK/GD32VW55x_RELEASE_V1.0.2/MSDK/cloud/alicloud/src/infra/system\guider.c ****     if (!p_guider_sign)
1321:C:/Users/stapi/OneDrive/Desktop/GD32VW553/V1_MQTT_OK/GD32VW55X_Wifi_BLE_SDK/GD32VW55x_RELEASE_V1.0.2/MSDK/cloud/alicloud/src/infra/system\guider.c ****     {
1322:C:/Users/stapi/OneDrive/Desktop/GD32VW553/V1_MQTT_OK/GD32VW55X_Wifi_BLE_SDK/GD32VW55x_RELEASE_V1.0.2/MSDK/cloud/alicloud/src/infra/system\guider.c ****         ret = -1;
1323:C:/Users/stapi/OneDrive/Desktop/GD32VW553/V1_MQTT_OK/GD32VW55X_Wifi_BLE_SDK/GD32VW55x_RELEASE_V1.0.2/MSDK/cloud/alicloud/src/infra/system\guider.c ****         goto EXIT;
1324:C:/Users/stapi/OneDrive/Desktop/GD32VW553/V1_MQTT_OK/GD32VW55X_Wifi_BLE_SDK/GD32VW55x_RELEASE_V1.0.2/MSDK/cloud/alicloud/src/infra/system\guider.c ****     }
1325:C:/Users/stapi/OneDrive/Desktop/GD32VW553/V1_MQTT_OK/GD32VW55X_Wifi_BLE_SDK/GD32VW55x_RELEASE_V1.0.2/MSDK/cloud/alicloud/src/infra/system\guider.c ****     memset(p_guider_sign, 0, GUIDER_SIGN_LEN);
1326:C:/Users/stapi/OneDrive/Desktop/GD32VW553/V1_MQTT_OK/GD32VW55X_Wifi_BLE_SDK/GD32VW55x_RELEASE_V1.0.2/MSDK/cloud/alicloud/src/infra/system\guider.c **** 
1327:C:/Users/stapi/OneDrive/Desktop/GD32VW553/V1_MQTT_OK/GD32VW55X_Wifi_BLE_SDK/GD32VW55x_RELEASE_V1.0.2/MSDK/cloud/alicloud/src/infra/system\guider.c ****     p_dynamic_mqtt_url = SYS_GUIDER_MALLOC(GUIDER_DYNAMIC_URL_LEN);
1328:C:/Users/stapi/OneDrive/Desktop/GD32VW553/V1_MQTT_OK/GD32VW55X_Wifi_BLE_SDK/GD32VW55x_RELEASE_V1.0.2/MSDK/cloud/alicloud/src/infra/system\guider.c ****     if (!p_dynamic_mqtt_url)
1329:C:/Users/stapi/OneDrive/Desktop/GD32VW553/V1_MQTT_OK/GD32VW55X_Wifi_BLE_SDK/GD32VW55x_RELEASE_V1.0.2/MSDK/cloud/alicloud/src/infra/system\guider.c ****     {
1330:C:/Users/stapi/OneDrive/Desktop/GD32VW553/V1_MQTT_OK/GD32VW55X_Wifi_BLE_SDK/GD32VW55x_RELEASE_V1.0.2/MSDK/cloud/alicloud/src/infra/system\guider.c ****         ret = -1;
1331:C:/Users/stapi/OneDrive/Desktop/GD32VW553/V1_MQTT_OK/GD32VW55X_Wifi_BLE_SDK/GD32VW55x_RELEASE_V1.0.2/MSDK/cloud/alicloud/src/infra/system\guider.c ****         goto EXIT;
1332:C:/Users/stapi/OneDrive/Desktop/GD32VW553/V1_MQTT_OK/GD32VW55X_Wifi_BLE_SDK/GD32VW55x_RELEASE_V1.0.2/MSDK/cloud/alicloud/src/infra/system\guider.c ****     }
1333:C:/Users/stapi/OneDrive/Desktop/GD32VW553/V1_MQTT_OK/GD32VW55X_Wifi_BLE_SDK/GD32VW55x_RELEASE_V1.0.2/MSDK/cloud/alicloud/src/infra/system\guider.c **** 
1334:C:/Users/stapi/OneDrive/Desktop/GD32VW553/V1_MQTT_OK/GD32VW55X_Wifi_BLE_SDK/GD32VW55x_RELEASE_V1.0.2/MSDK/cloud/alicloud/src/infra/system\guider.c ****     memset(p_dynamic_mqtt_url, '\0', GUIDER_DYNAMIC_URL_LEN);
1335:C:/Users/stapi/OneDrive/Desktop/GD32VW553/V1_MQTT_OK/GD32VW55X_Wifi_BLE_SDK/GD32VW55x_RELEASE_V1.0.2/MSDK/cloud/alicloud/src/infra/system\guider.c **** 
1336:C:/Users/stapi/OneDrive/Desktop/GD32VW553/V1_MQTT_OK/GD32VW55X_Wifi_BLE_SDK/GD32VW55x_RELEASE_V1.0.2/MSDK/cloud/alicloud/src/infra/system\guider.c ****     if (CONNECT_DIRECT == bootup_connect_method)
1337:C:/Users/stapi/OneDrive/Desktop/GD32VW553/V1_MQTT_OK/GD32VW55X_Wifi_BLE_SDK/GD32VW55x_RELEASE_V1.0.2/MSDK/cloud/alicloud/src/infra/system\guider.c ****     {
1338:C:/Users/stapi/OneDrive/Desktop/GD32VW553/V1_MQTT_OK/GD32VW55X_Wifi_BLE_SDK/GD32VW55x_RELEASE_V1.0.2/MSDK/cloud/alicloud/src/infra/system\guider.c ****         ret = guider_get_dynamic_mqtt_url(p_dynamic_mqtt_url, GUIDER_DYNAMIC_URL_LEN - 1);
1339:C:/Users/stapi/OneDrive/Desktop/GD32VW553/V1_MQTT_OK/GD32VW55X_Wifi_BLE_SDK/GD32VW55x_RELEASE_V1.0.2/MSDK/cloud/alicloud/src/infra/system\guider.c ****         if (ret != 0)
1340:C:/Users/stapi/OneDrive/Desktop/GD32VW553/V1_MQTT_OK/GD32VW55X_Wifi_BLE_SDK/GD32VW55x_RELEASE_V1.0.2/MSDK/cloud/alicloud/src/infra/system\guider.c ****         {
1341:C:/Users/stapi/OneDrive/Desktop/GD32VW553/V1_MQTT_OK/GD32VW55X_Wifi_BLE_SDK/GD32VW55x_RELEASE_V1.0.2/MSDK/cloud/alicloud/src/infra/system\guider.c ****             memset(p_dynamic_mqtt_url, '\0', GUIDER_DYNAMIC_URL_LEN);
1342:C:/Users/stapi/OneDrive/Desktop/GD32VW553/V1_MQTT_OK/GD32VW55X_Wifi_BLE_SDK/GD32VW55x_RELEASE_V1.0.2/MSDK/cloud/alicloud/src/infra/system\guider.c ****         }
1343:C:/Users/stapi/OneDrive/Desktop/GD32VW553/V1_MQTT_OK/GD32VW55X_Wifi_BLE_SDK/GD32VW55x_RELEASE_V1.0.2/MSDK/cloud/alicloud/src/infra/system\guider.c **** 
1344:C:/Users/stapi/OneDrive/Desktop/GD32VW553/V1_MQTT_OK/GD32VW55X_Wifi_BLE_SDK/GD32VW55x_RELEASE_V1.0.2/MSDK/cloud/alicloud/src/infra/system\guider.c ****         if (strlen(p_dynamic_mqtt_url) > 0)
1345:C:/Users/stapi/OneDrive/Desktop/GD32VW553/V1_MQTT_OK/GD32VW55X_Wifi_BLE_SDK/GD32VW55x_RELEASE_V1.0.2/MSDK/cloud/alicloud/src/infra/system\guider.c ****         {
1346:C:/Users/stapi/OneDrive/Desktop/GD32VW553/V1_MQTT_OK/GD32VW55X_Wifi_BLE_SDK/GD32VW55x_RELEASE_V1.0.2/MSDK/cloud/alicloud/src/infra/system\guider.c ****             direct_connect_count += 1;
1347:C:/Users/stapi/OneDrive/Desktop/GD32VW553/V1_MQTT_OK/GD32VW55X_Wifi_BLE_SDK/GD32VW55x_RELEASE_V1.0.2/MSDK/cloud/alicloud/src/infra/system\guider.c ****             sys_info("dyna url:%s count:%d", p_dynamic_mqtt_url, direct_connect_count);
1348:C:/Users/stapi/OneDrive/Desktop/GD32VW553/V1_MQTT_OK/GD32VW55X_Wifi_BLE_SDK/GD32VW55x_RELEASE_V1.0.2/MSDK/cloud/alicloud/src/infra/system\guider.c ****             if (direct_connect_count > GUIDER_MAX_DIRECT_CONNECT_COUNT)
1349:C:/Users/stapi/OneDrive/Desktop/GD32VW553/V1_MQTT_OK/GD32VW55X_Wifi_BLE_SDK/GD32VW55x_RELEASE_V1.0.2/MSDK/cloud/alicloud/src/infra/system\guider.c ****             {
1350:C:/Users/stapi/OneDrive/Desktop/GD32VW553/V1_MQTT_OK/GD32VW55X_Wifi_BLE_SDK/GD32VW55x_RELEASE_V1.0.2/MSDK/cloud/alicloud/src/infra/system\guider.c ****                 direct_connect_count = 0;
1351:C:/Users/stapi/OneDrive/Desktop/GD32VW553/V1_MQTT_OK/GD32VW55X_Wifi_BLE_SDK/GD32VW55x_RELEASE_V1.0.2/MSDK/cloud/alicloud/src/infra/system\guider.c ****                 bootup_connect_method = CONNECT_PREAUTH;
1352:C:/Users/stapi/OneDrive/Desktop/GD32VW553/V1_MQTT_OK/GD32VW55X_Wifi_BLE_SDK/GD32VW55x_RELEASE_V1.0.2/MSDK/cloud/alicloud/src/infra/system\guider.c ****                 memset(p_dynamic_mqtt_url, '\0', GUIDER_DYNAMIC_URL_LEN); //for do bootstrap
1353:C:/Users/stapi/OneDrive/Desktop/GD32VW553/V1_MQTT_OK/GD32VW55X_Wifi_BLE_SDK/GD32VW55x_RELEASE_V1.0.2/MSDK/cloud/alicloud/src/infra/system\guider.c ****                 if (is_request_mqtt_host_by_regionid == 1)
1354:C:/Users/stapi/OneDrive/Desktop/GD32VW553/V1_MQTT_OK/GD32VW55X_Wifi_BLE_SDK/GD32VW55x_RELEASE_V1.0.2/MSDK/cloud/alicloud/src/infra/system\guider.c ****                 {
1355:C:/Users/stapi/OneDrive/Desktop/GD32VW553/V1_MQTT_OK/GD32VW55X_Wifi_BLE_SDK/GD32VW55x_RELEASE_V1.0.2/MSDK/cloud/alicloud/src/infra/system\guider.c ****                     iotx_guider_clear_dynamic_url();
1356:C:/Users/stapi/OneDrive/Desktop/GD32VW553/V1_MQTT_OK/GD32VW55X_Wifi_BLE_SDK/GD32VW55x_RELEASE_V1.0.2/MSDK/cloud/alicloud/src/infra/system\guider.c ****                     is_request_mqtt_host_by_regionid = 0;
1357:C:/Users/stapi/OneDrive/Desktop/GD32VW553/V1_MQTT_OK/GD32VW55X_Wifi_BLE_SDK/GD32VW55x_RELEASE_V1.0.2/MSDK/cloud/alicloud/src/infra/system\guider.c ****                 }
1358:C:/Users/stapi/OneDrive/Desktop/GD32VW553/V1_MQTT_OK/GD32VW55X_Wifi_BLE_SDK/GD32VW55x_RELEASE_V1.0.2/MSDK/cloud/alicloud/src/infra/system\guider.c ****             }
1359:C:/Users/stapi/OneDrive/Desktop/GD32VW553/V1_MQTT_OK/GD32VW55X_Wifi_BLE_SDK/GD32VW55x_RELEASE_V1.0.2/MSDK/cloud/alicloud/src/infra/system\guider.c ****         }
1360:C:/Users/stapi/OneDrive/Desktop/GD32VW553/V1_MQTT_OK/GD32VW55X_Wifi_BLE_SDK/GD32VW55x_RELEASE_V1.0.2/MSDK/cloud/alicloud/src/infra/system\guider.c ****         else
1361:C:/Users/stapi/OneDrive/Desktop/GD32VW553/V1_MQTT_OK/GD32VW55X_Wifi_BLE_SDK/GD32VW55x_RELEASE_V1.0.2/MSDK/cloud/alicloud/src/infra/system\guider.c ****         {
1362:C:/Users/stapi/OneDrive/Desktop/GD32VW553/V1_MQTT_OK/GD32VW55X_Wifi_BLE_SDK/GD32VW55x_RELEASE_V1.0.2/MSDK/cloud/alicloud/src/infra/system\guider.c ****             sys_warning("no dyna url in kv");
1363:C:/Users/stapi/OneDrive/Desktop/GD32VW553/V1_MQTT_OK/GD32VW55X_Wifi_BLE_SDK/GD32VW55x_RELEASE_V1.0.2/MSDK/cloud/alicloud/src/infra/system\guider.c ****         }
1364:C:/Users/stapi/OneDrive/Desktop/GD32VW553/V1_MQTT_OK/GD32VW55X_Wifi_BLE_SDK/GD32VW55x_RELEASE_V1.0.2/MSDK/cloud/alicloud/src/infra/system\guider.c ****     }
1365:C:/Users/stapi/OneDrive/Desktop/GD32VW553/V1_MQTT_OK/GD32VW55X_Wifi_BLE_SDK/GD32VW55x_RELEASE_V1.0.2/MSDK/cloud/alicloud/src/infra/system\guider.c **** 
1366:C:/Users/stapi/OneDrive/Desktop/GD32VW553/V1_MQTT_OK/GD32VW55X_Wifi_BLE_SDK/GD32VW55x_RELEASE_V1.0.2/MSDK/cloud/alicloud/src/infra/system\guider.c ****     connect_method = get_connect_method(p_dynamic_mqtt_url);
1367:C:/Users/stapi/OneDrive/Desktop/GD32VW553/V1_MQTT_OK/GD32VW55X_Wifi_BLE_SDK/GD32VW55x_RELEASE_V1.0.2/MSDK/cloud/alicloud/src/infra/system\guider.c ****     secure_mode = guider_get_secure_mode(connect_method);
1368:C:/Users/stapi/OneDrive/Desktop/GD32VW553/V1_MQTT_OK/GD32VW55X_Wifi_BLE_SDK/GD32VW55x_RELEASE_V1.0.2/MSDK/cloud/alicloud/src/infra/system\guider.c ****     if (CONNECT_PREAUTH == connect_method)
1369:C:/Users/stapi/OneDrive/Desktop/GD32VW553/V1_MQTT_OK/GD32VW55X_Wifi_BLE_SDK/GD32VW55x_RELEASE_V1.0.2/MSDK/cloud/alicloud/src/infra/system\guider.c ****     {
1370:C:/Users/stapi/OneDrive/Desktop/GD32VW553/V1_MQTT_OK/GD32VW55X_Wifi_BLE_SDK/GD32VW55x_RELEASE_V1.0.2/MSDK/cloud/alicloud/src/infra/system\guider.c ****         p_guider_url = SYS_GUIDER_MALLOC(GUIDER_URL_LEN);
1371:C:/Users/stapi/OneDrive/Desktop/GD32VW553/V1_MQTT_OK/GD32VW55X_Wifi_BLE_SDK/GD32VW55x_RELEASE_V1.0.2/MSDK/cloud/alicloud/src/infra/system\guider.c ****         if (!p_guider_url)
1372:C:/Users/stapi/OneDrive/Desktop/GD32VW553/V1_MQTT_OK/GD32VW55X_Wifi_BLE_SDK/GD32VW55x_RELEASE_V1.0.2/MSDK/cloud/alicloud/src/infra/system\guider.c ****         {
1373:C:/Users/stapi/OneDrive/Desktop/GD32VW553/V1_MQTT_OK/GD32VW55X_Wifi_BLE_SDK/GD32VW55x_RELEASE_V1.0.2/MSDK/cloud/alicloud/src/infra/system\guider.c ****             ret = -1;
1374:C:/Users/stapi/OneDrive/Desktop/GD32VW553/V1_MQTT_OK/GD32VW55X_Wifi_BLE_SDK/GD32VW55x_RELEASE_V1.0.2/MSDK/cloud/alicloud/src/infra/system\guider.c ****             goto EXIT;
1375:C:/Users/stapi/OneDrive/Desktop/GD32VW553/V1_MQTT_OK/GD32VW55X_Wifi_BLE_SDK/GD32VW55x_RELEASE_V1.0.2/MSDK/cloud/alicloud/src/infra/system\guider.c ****         }
1376:C:/Users/stapi/OneDrive/Desktop/GD32VW553/V1_MQTT_OK/GD32VW55X_Wifi_BLE_SDK/GD32VW55x_RELEASE_V1.0.2/MSDK/cloud/alicloud/src/infra/system\guider.c **** 
1377:C:/Users/stapi/OneDrive/Desktop/GD32VW553/V1_MQTT_OK/GD32VW55X_Wifi_BLE_SDK/GD32VW55x_RELEASE_V1.0.2/MSDK/cloud/alicloud/src/infra/system\guider.c ****         ret = guider_get_conn_info(conn_info, p_dev, p_pid, p_mid, p_guider_url, secure_mode);
1378:C:/Users/stapi/OneDrive/Desktop/GD32VW553/V1_MQTT_OK/GD32VW55X_Wifi_BLE_SDK/GD32VW55x_RELEASE_V1.0.2/MSDK/cloud/alicloud/src/infra/system\guider.c ****     }
1379:C:/Users/stapi/OneDrive/Desktop/GD32VW553/V1_MQTT_OK/GD32VW55X_Wifi_BLE_SDK/GD32VW55x_RELEASE_V1.0.2/MSDK/cloud/alicloud/src/infra/system\guider.c ****     else
1380:C:/Users/stapi/OneDrive/Desktop/GD32VW553/V1_MQTT_OK/GD32VW55X_Wifi_BLE_SDK/GD32VW55x_RELEASE_V1.0.2/MSDK/cloud/alicloud/src/infra/system\guider.c ****     {
1381:C:/Users/stapi/OneDrive/Desktop/GD32VW553/V1_MQTT_OK/GD32VW55X_Wifi_BLE_SDK/GD32VW55x_RELEASE_V1.0.2/MSDK/cloud/alicloud/src/infra/system\guider.c ****         ret = direct_get_conn_info(conn_info, p_dev, p_pid, p_mid, NULL, p_guider_sign, secure_mode
1382:C:/Users/stapi/OneDrive/Desktop/GD32VW553/V1_MQTT_OK/GD32VW55X_Wifi_BLE_SDK/GD32VW55x_RELEASE_V1.0.2/MSDK/cloud/alicloud/src/infra/system\guider.c ****     }
1383:C:/Users/stapi/OneDrive/Desktop/GD32VW553/V1_MQTT_OK/GD32VW55X_Wifi_BLE_SDK/GD32VW55x_RELEASE_V1.0.2/MSDK/cloud/alicloud/src/infra/system\guider.c **** 
1384:C:/Users/stapi/OneDrive/Desktop/GD32VW553/V1_MQTT_OK/GD32VW55X_Wifi_BLE_SDK/GD32VW55x_RELEASE_V1.0.2/MSDK/cloud/alicloud/src/infra/system\guider.c **** EXIT:
1385:C:/Users/stapi/OneDrive/Desktop/GD32VW553/V1_MQTT_OK/GD32VW55X_Wifi_BLE_SDK/GD32VW55x_RELEASE_V1.0.2/MSDK/cloud/alicloud/src/infra/system\guider.c ****     if (p_pid)
1386:C:/Users/stapi/OneDrive/Desktop/GD32VW553/V1_MQTT_OK/GD32VW55X_Wifi_BLE_SDK/GD32VW55x_RELEASE_V1.0.2/MSDK/cloud/alicloud/src/infra/system\guider.c ****     {
1387:C:/Users/stapi/OneDrive/Desktop/GD32VW553/V1_MQTT_OK/GD32VW55X_Wifi_BLE_SDK/GD32VW55x_RELEASE_V1.0.2/MSDK/cloud/alicloud/src/infra/system\guider.c ****         SYS_GUIDER_FREE(p_pid);
1388:C:/Users/stapi/OneDrive/Desktop/GD32VW553/V1_MQTT_OK/GD32VW55X_Wifi_BLE_SDK/GD32VW55x_RELEASE_V1.0.2/MSDK/cloud/alicloud/src/infra/system\guider.c ****     }
1389:C:/Users/stapi/OneDrive/Desktop/GD32VW553/V1_MQTT_OK/GD32VW55X_Wifi_BLE_SDK/GD32VW55x_RELEASE_V1.0.2/MSDK/cloud/alicloud/src/infra/system\guider.c ****     if (p_mid)
1390:C:/Users/stapi/OneDrive/Desktop/GD32VW553/V1_MQTT_OK/GD32VW55X_Wifi_BLE_SDK/GD32VW55x_RELEASE_V1.0.2/MSDK/cloud/alicloud/src/infra/system\guider.c ****     {
1391:C:/Users/stapi/OneDrive/Desktop/GD32VW553/V1_MQTT_OK/GD32VW55X_Wifi_BLE_SDK/GD32VW55x_RELEASE_V1.0.2/MSDK/cloud/alicloud/src/infra/system\guider.c ****         SYS_GUIDER_FREE(p_mid);
1392:C:/Users/stapi/OneDrive/Desktop/GD32VW553/V1_MQTT_OK/GD32VW55X_Wifi_BLE_SDK/GD32VW55x_RELEASE_V1.0.2/MSDK/cloud/alicloud/src/infra/system\guider.c ****     }
1393:C:/Users/stapi/OneDrive/Desktop/GD32VW553/V1_MQTT_OK/GD32VW55X_Wifi_BLE_SDK/GD32VW55x_RELEASE_V1.0.2/MSDK/cloud/alicloud/src/infra/system\guider.c ****     if (p_dev)
1394:C:/Users/stapi/OneDrive/Desktop/GD32VW553/V1_MQTT_OK/GD32VW55X_Wifi_BLE_SDK/GD32VW55x_RELEASE_V1.0.2/MSDK/cloud/alicloud/src/infra/system\guider.c ****     {
1395:C:/Users/stapi/OneDrive/Desktop/GD32VW553/V1_MQTT_OK/GD32VW55X_Wifi_BLE_SDK/GD32VW55x_RELEASE_V1.0.2/MSDK/cloud/alicloud/src/infra/system\guider.c ****         SYS_GUIDER_FREE(p_dev);
1396:C:/Users/stapi/OneDrive/Desktop/GD32VW553/V1_MQTT_OK/GD32VW55X_Wifi_BLE_SDK/GD32VW55x_RELEASE_V1.0.2/MSDK/cloud/alicloud/src/infra/system\guider.c ****     }
1397:C:/Users/stapi/OneDrive/Desktop/GD32VW553/V1_MQTT_OK/GD32VW55X_Wifi_BLE_SDK/GD32VW55x_RELEASE_V1.0.2/MSDK/cloud/alicloud/src/infra/system\guider.c ****     if (p_guider_sign)
1398:C:/Users/stapi/OneDrive/Desktop/GD32VW553/V1_MQTT_OK/GD32VW55X_Wifi_BLE_SDK/GD32VW55x_RELEASE_V1.0.2/MSDK/cloud/alicloud/src/infra/system\guider.c ****     {
1399:C:/Users/stapi/OneDrive/Desktop/GD32VW553/V1_MQTT_OK/GD32VW55X_Wifi_BLE_SDK/GD32VW55x_RELEASE_V1.0.2/MSDK/cloud/alicloud/src/infra/system\guider.c ****         SYS_GUIDER_FREE(p_guider_sign);
1400:C:/Users/stapi/OneDrive/Desktop/GD32VW553/V1_MQTT_OK/GD32VW55X_Wifi_BLE_SDK/GD32VW55x_RELEASE_V1.0.2/MSDK/cloud/alicloud/src/infra/system\guider.c ****     }
1401:C:/Users/stapi/OneDrive/Desktop/GD32VW553/V1_MQTT_OK/GD32VW55X_Wifi_BLE_SDK/GD32VW55x_RELEASE_V1.0.2/MSDK/cloud/alicloud/src/infra/system\guider.c ****     if (p_guider_url)
1402:C:/Users/stapi/OneDrive/Desktop/GD32VW553/V1_MQTT_OK/GD32VW55X_Wifi_BLE_SDK/GD32VW55x_RELEASE_V1.0.2/MSDK/cloud/alicloud/src/infra/system\guider.c ****     {
1403:C:/Users/stapi/OneDrive/Desktop/GD32VW553/V1_MQTT_OK/GD32VW55X_Wifi_BLE_SDK/GD32VW55x_RELEASE_V1.0.2/MSDK/cloud/alicloud/src/infra/system\guider.c ****         SYS_GUIDER_FREE(p_guider_url);
1404:C:/Users/stapi/OneDrive/Desktop/GD32VW553/V1_MQTT_OK/GD32VW55X_Wifi_BLE_SDK/GD32VW55x_RELEASE_V1.0.2/MSDK/cloud/alicloud/src/infra/system\guider.c ****     }
1405:C:/Users/stapi/OneDrive/Desktop/GD32VW553/V1_MQTT_OK/GD32VW55X_Wifi_BLE_SDK/GD32VW55x_RELEASE_V1.0.2/MSDK/cloud/alicloud/src/infra/system\guider.c ****     if (p_dynamic_mqtt_url)
1406:C:/Users/stapi/OneDrive/Desktop/GD32VW553/V1_MQTT_OK/GD32VW55X_Wifi_BLE_SDK/GD32VW55x_RELEASE_V1.0.2/MSDK/cloud/alicloud/src/infra/system\guider.c ****     {
1407:C:/Users/stapi/OneDrive/Desktop/GD32VW553/V1_MQTT_OK/GD32VW55X_Wifi_BLE_SDK/GD32VW55x_RELEASE_V1.0.2/MSDK/cloud/alicloud/src/infra/system\guider.c ****         SYS_GUIDER_FREE(p_dynamic_mqtt_url);
1408:C:/Users/stapi/OneDrive/Desktop/GD32VW553/V1_MQTT_OK/GD32VW55X_Wifi_BLE_SDK/GD32VW55x_RELEASE_V1.0.2/MSDK/cloud/alicloud/src/infra/system\guider.c ****     }
1409:C:/Users/stapi/OneDrive/Desktop/GD32VW553/V1_MQTT_OK/GD32VW55X_Wifi_BLE_SDK/GD32VW55x_RELEASE_V1.0.2/MSDK/cloud/alicloud/src/infra/system\guider.c **** 
1410:C:/Users/stapi/OneDrive/Desktop/GD32VW553/V1_MQTT_OK/GD32VW55X_Wifi_BLE_SDK/GD32VW55x_RELEASE_V1.0.2/MSDK/cloud/alicloud/src/infra/system\guider.c ****     if (ret == GUIDER_BOOTSTRAP_DONE)
1411:C:/Users/stapi/OneDrive/Desktop/GD32VW553/V1_MQTT_OK/GD32VW55X_Wifi_BLE_SDK/GD32VW55x_RELEASE_V1.0.2/MSDK/cloud/alicloud/src/infra/system\guider.c ****     {
1412:C:/Users/stapi/OneDrive/Desktop/GD32VW553/V1_MQTT_OK/GD32VW55X_Wifi_BLE_SDK/GD32VW55x_RELEASE_V1.0.2/MSDK/cloud/alicloud/src/infra/system\guider.c ****         // ret = iotx_guider_authenticate(conn_info);
1413:C:/Users/stapi/OneDrive/Desktop/GD32VW553/V1_MQTT_OK/GD32VW55X_Wifi_BLE_SDK/GD32VW55x_RELEASE_V1.0.2/MSDK/cloud/alicloud/src/infra/system\guider.c ****         if ( cb != NULL)
1414:C:/Users/stapi/OneDrive/Desktop/GD32VW553/V1_MQTT_OK/GD32VW55X_Wifi_BLE_SDK/GD32VW55x_RELEASE_V1.0.2/MSDK/cloud/alicloud/src/infra/system\guider.c ****         {
1415:C:/Users/stapi/OneDrive/Desktop/GD32VW553/V1_MQTT_OK/GD32VW55X_Wifi_BLE_SDK/GD32VW55x_RELEASE_V1.0.2/MSDK/cloud/alicloud/src/infra/system\guider.c ****             cb(client);
1416:C:/Users/stapi/OneDrive/Desktop/GD32VW553/V1_MQTT_OK/GD32VW55X_Wifi_BLE_SDK/GD32VW55x_RELEASE_V1.0.2/MSDK/cloud/alicloud/src/infra/system\guider.c ****         }
1417:C:/Users/stapi/OneDrive/Desktop/GD32VW553/V1_MQTT_OK/GD32VW55X_Wifi_BLE_SDK/GD32VW55x_RELEASE_V1.0.2/MSDK/cloud/alicloud/src/infra/system\guider.c ****         return ret;
1418:C:/Users/stapi/OneDrive/Desktop/GD32VW553/V1_MQTT_OK/GD32VW55X_Wifi_BLE_SDK/GD32VW55x_RELEASE_V1.0.2/MSDK/cloud/alicloud/src/infra/system\guider.c ****     }
1419:C:/Users/stapi/OneDrive/Desktop/GD32VW553/V1_MQTT_OK/GD32VW55X_Wifi_BLE_SDK/GD32VW55x_RELEASE_V1.0.2/MSDK/cloud/alicloud/src/infra/system\guider.c **** 
1420:C:/Users/stapi/OneDrive/Desktop/GD32VW553/V1_MQTT_OK/GD32VW55X_Wifi_BLE_SDK/GD32VW55x_RELEASE_V1.0.2/MSDK/cloud/alicloud/src/infra/system\guider.c ****     if (ret < 0)
1421:C:/Users/stapi/OneDrive/Desktop/GD32VW553/V1_MQTT_OK/GD32VW55X_Wifi_BLE_SDK/GD32VW55x_RELEASE_V1.0.2/MSDK/cloud/alicloud/src/infra/system\guider.c ****     {
1422:C:/Users/stapi/OneDrive/Desktop/GD32VW553/V1_MQTT_OK/GD32VW55X_Wifi_BLE_SDK/GD32VW55x_RELEASE_V1.0.2/MSDK/cloud/alicloud/src/infra/system\guider.c ****         sys_err("guider auth fail");
1423:C:/Users/stapi/OneDrive/Desktop/GD32VW553/V1_MQTT_OK/GD32VW55X_Wifi_BLE_SDK/GD32VW55x_RELEASE_V1.0.2/MSDK/cloud/alicloud/src/infra/system\guider.c ****     }
1424:C:/Users/stapi/OneDrive/Desktop/GD32VW553/V1_MQTT_OK/GD32VW55X_Wifi_BLE_SDK/GD32VW55x_RELEASE_V1.0.2/MSDK/cloud/alicloud/src/infra/system\guider.c ****     else
1425:C:/Users/stapi/OneDrive/Desktop/GD32VW553/V1_MQTT_OK/GD32VW55X_Wifi_BLE_SDK/GD32VW55x_RELEASE_V1.0.2/MSDK/cloud/alicloud/src/infra/system\guider.c ****     {
1426:C:/Users/stapi/OneDrive/Desktop/GD32VW553/V1_MQTT_OK/GD32VW55X_Wifi_BLE_SDK/GD32VW55x_RELEASE_V1.0.2/MSDK/cloud/alicloud/src/infra/system\guider.c ****         conn_info->init = 1;
1427:C:/Users/stapi/OneDrive/Desktop/GD32VW553/V1_MQTT_OK/GD32VW55X_Wifi_BLE_SDK/GD32VW55x_RELEASE_V1.0.2/MSDK/cloud/alicloud/src/infra/system\guider.c ****     }
1428:C:/Users/stapi/OneDrive/Desktop/GD32VW553/V1_MQTT_OK/GD32VW55X_Wifi_BLE_SDK/GD32VW55x_RELEASE_V1.0.2/MSDK/cloud/alicloud/src/infra/system\guider.c **** 
1429:C:/Users/stapi/OneDrive/Desktop/GD32VW553/V1_MQTT_OK/GD32VW55X_Wifi_BLE_SDK/GD32VW55x_RELEASE_V1.0.2/MSDK/cloud/alicloud/src/infra/system\guider.c ****     return ret;
1430:C:/Users/stapi/OneDrive/Desktop/GD32VW553/V1_MQTT_OK/GD32VW55X_Wifi_BLE_SDK/GD32VW55x_RELEASE_V1.0.2/MSDK/cloud/alicloud/src/infra/system\guider.c **** }
 1750              		.loc 1 1430 1
 1751 0076 5285     		mv	a0,s4
 1752 0078 4D61     		addi	sp,sp,176
 1753              		.cfi_remember_state
 1754              		.cfi_def_cfa_offset 0
 1755              	.LVL163:
 1756 007a 17030000 		tail	__riscv_restore_12
 1756      67000300 
 1757              		.cfi_restore 27
 1758              		.cfi_restore 26
 1759              		.cfi_restore 25
 1760              		.cfi_restore 24
 1761              		.cfi_restore 23
 1762              		.cfi_restore 22
 1763              		.cfi_restore 21
 1764              		.cfi_restore 20
 1765              		.cfi_restore 19
 1766              		.cfi_restore 18
 1767              		.cfi_restore 9
 1768              		.cfi_restore 8
 1769              		.cfi_restore 1
 1770              		.cfi_def_cfa_offset -64
 1771              	.LVL164:
 1772              	.L89:
 1773              		.cfi_restore_state
1289:C:/Users/stapi/OneDrive/Desktop/GD32VW553/V1_MQTT_OK/GD32VW55X_Wifi_BLE_SDK/GD32VW55x_RELEASE_V1.0.2/MSDK/cloud/alicloud/src/infra/system\guider.c ****     if (!p_pid)
 1774              		.loc 1 1289 5 is_stmt 1
1289:C:/Users/stapi/OneDrive/Desktop/GD32VW553/V1_MQTT_OK/GD32VW55X_Wifi_BLE_SDK/GD32VW55x_RELEASE_V1.0.2/MSDK/cloud/alicloud/src/infra/system\guider.c ****     if (!p_pid)
 1775              		.loc 1 1289 13 is_stmt 0
 1776 0082 13060004 		li	a2,64
 1777 0086 8145     		li	a1,0
 1778 0088 0145     		li	a0,0
 1779 008a 97000000 		call	LITE_malloc_internal
 1779      E7800000 
 1780              	.LVL165:
 1781 0092 AA8C     		mv	s9,a0
 1782              	.LVL166:
1290:C:/Users/stapi/OneDrive/Desktop/GD32VW553/V1_MQTT_OK/GD32VW55X_Wifi_BLE_SDK/GD32VW55x_RELEASE_V1.0.2/MSDK/cloud/alicloud/src/infra/system\guider.c ****     {
 1783              		.loc 1 1290 5 is_stmt 1
1292:C:/Users/stapi/OneDrive/Desktop/GD32VW553/V1_MQTT_OK/GD32VW55X_Wifi_BLE_SDK/GD32VW55x_RELEASE_V1.0.2/MSDK/cloud/alicloud/src/infra/system\guider.c ****         goto EXIT;
 1784              		.loc 1 1292 13 is_stmt 0
 1785 0094 7D5A     		li	s4,-1
1290:C:/Users/stapi/OneDrive/Desktop/GD32VW553/V1_MQTT_OK/GD32VW55X_Wifi_BLE_SDK/GD32VW55x_RELEASE_V1.0.2/MSDK/cloud/alicloud/src/infra/system\guider.c ****     {
 1786              		.loc 1 1290 8
 1787 0096 6308056C 		beq	a0,zero,.L143
1295:C:/Users/stapi/OneDrive/Desktop/GD32VW553/V1_MQTT_OK/GD32VW55X_Wifi_BLE_SDK/GD32VW55x_RELEASE_V1.0.2/MSDK/cloud/alicloud/src/infra/system\guider.c **** 
 1788              		.loc 1 1295 5 is_stmt 1
 1789 009a 97000000 		call	HAL_GetPartnerID
 1789      E7800000 
 1790              	.LVL167:
1297:C:/Users/stapi/OneDrive/Desktop/GD32VW553/V1_MQTT_OK/GD32VW55X_Wifi_BLE_SDK/GD32VW55x_RELEASE_V1.0.2/MSDK/cloud/alicloud/src/infra/system\guider.c ****     if (!p_mid)
 1791              		.loc 1 1297 5
1297:C:/Users/stapi/OneDrive/Desktop/GD32VW553/V1_MQTT_OK/GD32VW55X_Wifi_BLE_SDK/GD32VW55x_RELEASE_V1.0.2/MSDK/cloud/alicloud/src/infra/system\guider.c ****     if (!p_mid)
 1792              		.loc 1 1297 13 is_stmt 0
 1793 00a2 13060004 		li	a2,64
 1794 00a6 8145     		li	a1,0
 1795 00a8 0145     		li	a0,0
 1796 00aa 97000000 		call	LITE_malloc_internal
 1796      E7800000 
 1797              	.LVL168:
 1798 00b2 AA8B     		mv	s7,a0
 1799              	.LVL169:
1298:C:/Users/stapi/OneDrive/Desktop/GD32VW553/V1_MQTT_OK/GD32VW55X_Wifi_BLE_SDK/GD32VW55x_RELEASE_V1.0.2/MSDK/cloud/alicloud/src/infra/system\guider.c ****     {
 1800              		.loc 1 1298 5 is_stmt 1
1298:C:/Users/stapi/OneDrive/Desktop/GD32VW553/V1_MQTT_OK/GD32VW55X_Wifi_BLE_SDK/GD32VW55x_RELEASE_V1.0.2/MSDK/cloud/alicloud/src/infra/system\guider.c ****     {
 1801              		.loc 1 1298 8 is_stmt 0
 1802 00b4 E3070518 		beq	a0,zero,.L154
1303:C:/Users/stapi/OneDrive/Desktop/GD32VW553/V1_MQTT_OK/GD32VW55X_Wifi_BLE_SDK/GD32VW55x_RELEASE_V1.0.2/MSDK/cloud/alicloud/src/infra/system\guider.c **** 
 1803              		.loc 1 1303 5 is_stmt 1
 1804 00b8 97000000 		call	HAL_GetModuleID
 1804      E7800000 
 1805              	.LVL170:
1305:C:/Users/stapi/OneDrive/Desktop/GD32VW553/V1_MQTT_OK/GD32VW55X_Wifi_BLE_SDK/GD32VW55x_RELEASE_V1.0.2/MSDK/cloud/alicloud/src/infra/system\guider.c ****     if (!p_dev)
 1806              		.loc 1 1305 5
1305:C:/Users/stapi/OneDrive/Desktop/GD32VW553/V1_MQTT_OK/GD32VW55X_Wifi_BLE_SDK/GD32VW55x_RELEASE_V1.0.2/MSDK/cloud/alicloud/src/infra/system\guider.c ****     if (!p_dev)
 1807              		.loc 1 1305 13 is_stmt 0
 1808 00c0 1306900D 		li	a2,217
 1809 00c4 8145     		li	a1,0
 1810 00c6 0145     		li	a0,0
 1811 00c8 97000000 		call	LITE_malloc_internal
 1811      E7800000 
 1812              	.LVL171:
 1813 00d0 AA84     		mv	s1,a0
 1814              	.LVL172:
1306:C:/Users/stapi/OneDrive/Desktop/GD32VW553/V1_MQTT_OK/GD32VW55X_Wifi_BLE_SDK/GD32VW55x_RELEASE_V1.0.2/MSDK/cloud/alicloud/src/infra/system\guider.c ****     {
 1815              		.loc 1 1306 5 is_stmt 1
1306:C:/Users/stapi/OneDrive/Desktop/GD32VW553/V1_MQTT_OK/GD32VW55X_Wifi_BLE_SDK/GD32VW55x_RELEASE_V1.0.2/MSDK/cloud/alicloud/src/infra/system\guider.c ****     {
 1816              		.loc 1 1306 8 is_stmt 0
 1817 00d2 E3090516 		beq	a0,zero,.L156
1311:C:/Users/stapi/OneDrive/Desktop/GD32VW553/V1_MQTT_OK/GD32VW55X_Wifi_BLE_SDK/GD32VW55x_RELEASE_V1.0.2/MSDK/cloud/alicloud/src/infra/system\guider.c ****     ret = iotx_device_info_get(p_dev);
 1818              		.loc 1 1311 5 is_stmt 1
 1819 00d6 1306900D 		li	a2,217
 1820 00da 8145     		li	a1,0
 1821 00dc 97000000 		call	memset
 1821      E7800000 
 1822              	.LVL173:
1312:C:/Users/stapi/OneDrive/Desktop/GD32VW553/V1_MQTT_OK/GD32VW55X_Wifi_BLE_SDK/GD32VW55x_RELEASE_V1.0.2/MSDK/cloud/alicloud/src/infra/system\guider.c ****     if (ret < 0)
 1823              		.loc 1 1312 5
1312:C:/Users/stapi/OneDrive/Desktop/GD32VW553/V1_MQTT_OK/GD32VW55X_Wifi_BLE_SDK/GD32VW55x_RELEASE_V1.0.2/MSDK/cloud/alicloud/src/infra/system\guider.c ****     if (ret < 0)
 1824              		.loc 1 1312 11 is_stmt 0
 1825 00e4 2685     		mv	a0,s1
 1826 00e6 97000000 		call	iotx_device_info_get
 1826      E7800000 
 1827              	.LVL174:
1313:C:/Users/stapi/OneDrive/Desktop/GD32VW553/V1_MQTT_OK/GD32VW55X_Wifi_BLE_SDK/GD32VW55x_RELEASE_V1.0.2/MSDK/cloud/alicloud/src/infra/system\guider.c ****     {
 1828              		.loc 1 1313 5 is_stmt 1
1313:C:/Users/stapi/OneDrive/Desktop/GD32VW553/V1_MQTT_OK/GD32VW55X_Wifi_BLE_SDK/GD32VW55x_RELEASE_V1.0.2/MSDK/cloud/alicloud/src/infra/system\guider.c ****     {
 1829              		.loc 1 1313 8 is_stmt 0
 1830 00ee E34B0514 		blt	a0,zero,.L156
1319:C:/Users/stapi/OneDrive/Desktop/GD32VW553/V1_MQTT_OK/GD32VW55X_Wifi_BLE_SDK/GD32VW55x_RELEASE_V1.0.2/MSDK/cloud/alicloud/src/infra/system\guider.c ****     if (!p_guider_sign)
 1831              		.loc 1 1319 5 is_stmt 1
1319:C:/Users/stapi/OneDrive/Desktop/GD32VW553/V1_MQTT_OK/GD32VW55X_Wifi_BLE_SDK/GD32VW55x_RELEASE_V1.0.2/MSDK/cloud/alicloud/src/infra/system\guider.c ****     if (!p_guider_sign)
 1832              		.loc 1 1319 21 is_stmt 0
 1833 00f2 13060003 		li	a2,48
 1834 00f6 8145     		li	a1,0
 1835 00f8 0145     		li	a0,0
 1836              	.LVL175:
 1837 00fa 97000000 		call	LITE_malloc_internal
 1837      E7800000 
 1838              	.LVL176:
 1839 0102 AA8A     		mv	s5,a0
 1840              	.LVL177:
1320:C:/Users/stapi/OneDrive/Desktop/GD32VW553/V1_MQTT_OK/GD32VW55X_Wifi_BLE_SDK/GD32VW55x_RELEASE_V1.0.2/MSDK/cloud/alicloud/src/infra/system\guider.c ****     {
 1841              		.loc 1 1320 5 is_stmt 1
1320:C:/Users/stapi/OneDrive/Desktop/GD32VW553/V1_MQTT_OK/GD32VW55X_Wifi_BLE_SDK/GD32VW55x_RELEASE_V1.0.2/MSDK/cloud/alicloud/src/infra/system\guider.c ****     {
 1842              		.loc 1 1320 8 is_stmt 0
 1843 0104 E3040514 		beq	a0,zero,.L157
1325:C:/Users/stapi/OneDrive/Desktop/GD32VW553/V1_MQTT_OK/GD32VW55X_Wifi_BLE_SDK/GD32VW55x_RELEASE_V1.0.2/MSDK/cloud/alicloud/src/infra/system\guider.c **** 
 1844              		.loc 1 1325 5 is_stmt 1
 1845 0108 13060003 		li	a2,48
 1846 010c 8145     		li	a1,0
 1847 010e 97000000 		call	memset
 1847      E7800000 
 1848              	.LVL178:
1327:C:/Users/stapi/OneDrive/Desktop/GD32VW553/V1_MQTT_OK/GD32VW55X_Wifi_BLE_SDK/GD32VW55x_RELEASE_V1.0.2/MSDK/cloud/alicloud/src/infra/system\guider.c ****     if (!p_dynamic_mqtt_url)
 1849              		.loc 1 1327 5
1327:C:/Users/stapi/OneDrive/Desktop/GD32VW553/V1_MQTT_OK/GD32VW55X_Wifi_BLE_SDK/GD32VW55x_RELEASE_V1.0.2/MSDK/cloud/alicloud/src/infra/system\guider.c ****     if (!p_dynamic_mqtt_url)
 1850              		.loc 1 1327 26 is_stmt 0
 1851 0116 13060010 		li	a2,256
 1852 011a 8145     		li	a1,0
 1853 011c 0145     		li	a0,0
 1854 011e 97000000 		call	LITE_malloc_internal
 1854      E7800000 
 1855              	.LVL179:
 1856 0126 2A89     		mv	s2,a0
 1857              	.LVL180:
1328:C:/Users/stapi/OneDrive/Desktop/GD32VW553/V1_MQTT_OK/GD32VW55X_Wifi_BLE_SDK/GD32VW55x_RELEASE_V1.0.2/MSDK/cloud/alicloud/src/infra/system\guider.c ****     {
 1858              		.loc 1 1328 5 is_stmt 1
1328:C:/Users/stapi/OneDrive/Desktop/GD32VW553/V1_MQTT_OK/GD32VW55X_Wifi_BLE_SDK/GD32VW55x_RELEASE_V1.0.2/MSDK/cloud/alicloud/src/infra/system\guider.c ****     {
 1859              		.loc 1 1328 8 is_stmt 0
 1860 0128 E3000512 		beq	a0,zero,.L158
1334:C:/Users/stapi/OneDrive/Desktop/GD32VW553/V1_MQTT_OK/GD32VW55X_Wifi_BLE_SDK/GD32VW55x_RELEASE_V1.0.2/MSDK/cloud/alicloud/src/infra/system\guider.c **** 
 1861              		.loc 1 1334 5 is_stmt 1
 1862 012c 13060010 		li	a2,256
 1863 0130 8145     		li	a1,0
 1864 0132 97000000 		call	memset
 1864      E7800000 
 1865              	.LVL181:
1336:C:/Users/stapi/OneDrive/Desktop/GD32VW553/V1_MQTT_OK/GD32VW55X_Wifi_BLE_SDK/GD32VW55x_RELEASE_V1.0.2/MSDK/cloud/alicloud/src/infra/system\guider.c ****     {
 1866              		.loc 1 1336 5
1336:C:/Users/stapi/OneDrive/Desktop/GD32VW553/V1_MQTT_OK/GD32VW55X_Wifi_BLE_SDK/GD32VW55x_RELEASE_V1.0.2/MSDK/cloud/alicloud/src/infra/system\guider.c ****     {
 1867              		.loc 1 1336 24 is_stmt 0
 1868 013a B7070000 		lui	a5,%hi(.LANCHOR4)
1336:C:/Users/stapi/OneDrive/Desktop/GD32VW553/V1_MQTT_OK/GD32VW55X_Wifi_BLE_SDK/GD32VW55x_RELEASE_V1.0.2/MSDK/cloud/alicloud/src/infra/system\guider.c ****     {
 1869              		.loc 1 1336 8
 1870 013e 83A60700 		lw	a3,%lo(.LANCHOR4)(a5)
 1871 0142 93870700 		addi	a5,a5,%lo(.LANCHOR4)
 1872 0146 0547     		li	a4,1
 1873 0148 3ECC     		sw	a5,24(sp)
 1874 014a 6391E60C 		bne	a3,a4,.L94
1338:C:/Users/stapi/OneDrive/Desktop/GD32VW553/V1_MQTT_OK/GD32VW55X_Wifi_BLE_SDK/GD32VW55x_RELEASE_V1.0.2/MSDK/cloud/alicloud/src/infra/system\guider.c ****         if (ret != 0)
 1875              		.loc 1 1338 9 is_stmt 1
 1876              	.LVL182:
 1877              	.LBB113:
 1878              	.LBB114:
 131:C:/Users/stapi/OneDrive/Desktop/GD32VW553/V1_MQTT_OK/GD32VW55X_Wifi_BLE_SDK/GD32VW55x_RELEASE_V1.0.2/MSDK/cloud/alicloud/src/infra/system\guider.c **** 
 1879              		.loc 1 131 5
 133:C:/Users/stapi/OneDrive/Desktop/GD32VW553/V1_MQTT_OK/GD32VW55X_Wifi_BLE_SDK/GD32VW55x_RELEASE_V1.0.2/MSDK/cloud/alicloud/src/infra/system\guider.c **** }
 1880              		.loc 1 133 12 is_stmt 0
 1881 014e 37050000 		lui	a0,%hi(.LC20)
 131:C:/Users/stapi/OneDrive/Desktop/GD32VW553/V1_MQTT_OK/GD32VW55X_Wifi_BLE_SDK/GD32VW55x_RELEASE_V1.0.2/MSDK/cloud/alicloud/src/infra/system\guider.c **** 
 1882              		.loc 1 131 9
 1883 0152 9307F00F 		li	a5,255
 133:C:/Users/stapi/OneDrive/Desktop/GD32VW553/V1_MQTT_OK/GD32VW55X_Wifi_BLE_SDK/GD32VW55x_RELEASE_V1.0.2/MSDK/cloud/alicloud/src/infra/system\guider.c **** }
 1884              		.loc 1 133 12
 1885 0156 9018     		addi	a2,sp,112
 1886 0158 CA85     		mv	a1,s2
 1887 015a 13050500 		addi	a0,a0,%lo(.LC20)
 131:C:/Users/stapi/OneDrive/Desktop/GD32VW553/V1_MQTT_OK/GD32VW55X_Wifi_BLE_SDK/GD32VW55x_RELEASE_V1.0.2/MSDK/cloud/alicloud/src/infra/system\guider.c **** 
 1888              		.loc 1 131 9
 1889 015e BED8     		sw	a5,112(sp)
 133:C:/Users/stapi/OneDrive/Desktop/GD32VW553/V1_MQTT_OK/GD32VW55X_Wifi_BLE_SDK/GD32VW55x_RELEASE_V1.0.2/MSDK/cloud/alicloud/src/infra/system\guider.c **** }
 1890              		.loc 1 133 5 is_stmt 1
 133:C:/Users/stapi/OneDrive/Desktop/GD32VW553/V1_MQTT_OK/GD32VW55X_Wifi_BLE_SDK/GD32VW55x_RELEASE_V1.0.2/MSDK/cloud/alicloud/src/infra/system\guider.c **** }
 1891              		.loc 1 133 12 is_stmt 0
 1892 0160 97000000 		call	aos_kv_get
 1892      E7800000 
 1893              	.LVL183:
 1894              	.LBE114:
 1895              	.LBE113:
1339:C:/Users/stapi/OneDrive/Desktop/GD32VW553/V1_MQTT_OK/GD32VW55X_Wifi_BLE_SDK/GD32VW55x_RELEASE_V1.0.2/MSDK/cloud/alicloud/src/infra/system\guider.c ****         {
 1896              		.loc 1 1339 9 is_stmt 1
1339:C:/Users/stapi/OneDrive/Desktop/GD32VW553/V1_MQTT_OK/GD32VW55X_Wifi_BLE_SDK/GD32VW55x_RELEASE_V1.0.2/MSDK/cloud/alicloud/src/infra/system\guider.c ****         {
 1897              		.loc 1 1339 12 is_stmt 0
 1898 0168 09C9     		beq	a0,zero,.L95
1341:C:/Users/stapi/OneDrive/Desktop/GD32VW553/V1_MQTT_OK/GD32VW55X_Wifi_BLE_SDK/GD32VW55x_RELEASE_V1.0.2/MSDK/cloud/alicloud/src/infra/system\guider.c ****         }
 1899              		.loc 1 1341 13 is_stmt 1
 1900 016a 13060010 		li	a2,256
 1901 016e 8145     		li	a1,0
 1902 0170 4A85     		mv	a0,s2
 1903              	.LVL184:
 1904 0172 97000000 		call	memset
 1904      E7800000 
 1905              	.LVL185:
 1906              	.L95:
1344:C:/Users/stapi/OneDrive/Desktop/GD32VW553/V1_MQTT_OK/GD32VW55X_Wifi_BLE_SDK/GD32VW55x_RELEASE_V1.0.2/MSDK/cloud/alicloud/src/infra/system\guider.c ****         {
 1907              		.loc 1 1344 9
 1908 017a 370A0000 		lui	s4,%hi(.LC17)
1344:C:/Users/stapi/OneDrive/Desktop/GD32VW553/V1_MQTT_OK/GD32VW55X_Wifi_BLE_SDK/GD32VW55x_RELEASE_V1.0.2/MSDK/cloud/alicloud/src/infra/system\guider.c ****         {
 1909              		.loc 1 1344 12 is_stmt 0
 1910 017e 83070900 		lb	a5,0(s2)
 1911 0182 63810728 		beq	a5,zero,.L96
1346:C:/Users/stapi/OneDrive/Desktop/GD32VW553/V1_MQTT_OK/GD32VW55X_Wifi_BLE_SDK/GD32VW55x_RELEASE_V1.0.2/MSDK/cloud/alicloud/src/infra/system\guider.c ****             sys_info("dyna url:%s count:%d", p_dynamic_mqtt_url, direct_connect_count);
 1912              		.loc 1 1346 13 is_stmt 1
1346:C:/Users/stapi/OneDrive/Desktop/GD32VW553/V1_MQTT_OK/GD32VW55X_Wifi_BLE_SDK/GD32VW55x_RELEASE_V1.0.2/MSDK/cloud/alicloud/src/infra/system\guider.c ****             sys_info("dyna url:%s count:%d", p_dynamic_mqtt_url, direct_connect_count);
 1913              		.loc 1 1346 34 is_stmt 0
 1914 0186 B7090000 		lui	s3,%hi(.LANCHOR1)
 1915 018a 93890900 		addi	s3,s3,%lo(.LANCHOR1)
 1916 018e 83C70900 		lbu	a5,0(s3)
1347:C:/Users/stapi/OneDrive/Desktop/GD32VW553/V1_MQTT_OK/GD32VW55X_Wifi_BLE_SDK/GD32VW55x_RELEASE_V1.0.2/MSDK/cloud/alicloud/src/infra/system\guider.c ****             if (direct_connect_count > GUIDER_MAX_DIRECT_CONNECT_COUNT)
 1917              		.loc 1 1347 13
 1918 0192 37050000 		lui	a0,%hi(.LC15)
 1919 0196 13050500 		addi	a0,a0,%lo(.LC15)
1346:C:/Users/stapi/OneDrive/Desktop/GD32VW553/V1_MQTT_OK/GD32VW55X_Wifi_BLE_SDK/GD32VW55x_RELEASE_V1.0.2/MSDK/cloud/alicloud/src/infra/system\guider.c ****             sys_info("dyna url:%s count:%d", p_dynamic_mqtt_url, direct_connect_count);
 1920              		.loc 1 1346 34
 1921 019a 8507     		addi	a5,a5,1
 1922 019c 2380F900 		sb	a5,0(s3)
1347:C:/Users/stapi/OneDrive/Desktop/GD32VW553/V1_MQTT_OK/GD32VW55X_Wifi_BLE_SDK/GD32VW55x_RELEASE_V1.0.2/MSDK/cloud/alicloud/src/infra/system\guider.c ****             if (direct_connect_count > GUIDER_MAX_DIRECT_CONNECT_COUNT)
 1923              		.loc 1 1347 13 is_stmt 1
1347:C:/Users/stapi/OneDrive/Desktop/GD32VW553/V1_MQTT_OK/GD32VW55X_Wifi_BLE_SDK/GD32VW55x_RELEASE_V1.0.2/MSDK/cloud/alicloud/src/infra/system\guider.c ****             if (direct_connect_count > GUIDER_MAX_DIRECT_CONNECT_COUNT)
 1924              		.loc 1 1347 13
 1925 01a0 97000000 		call	HAL_Printf
 1925      E7800000 
 1926              	.LVL186:
1347:C:/Users/stapi/OneDrive/Desktop/GD32VW553/V1_MQTT_OK/GD32VW55X_Wifi_BLE_SDK/GD32VW55x_RELEASE_V1.0.2/MSDK/cloud/alicloud/src/infra/system\guider.c ****             if (direct_connect_count > GUIDER_MAX_DIRECT_CONNECT_COUNT)
 1927              		.loc 1 1347 13
 1928 01a8 03C60900 		lbu	a2,0(s3)
 1929 01ac 37050000 		lui	a0,%hi(.LC50)
 1930 01b0 CA85     		mv	a1,s2
 1931 01b2 13050500 		addi	a0,a0,%lo(.LC50)
 1932 01b6 97000000 		call	HAL_Printf
 1932      E7800000 
 1933              	.LVL187:
1347:C:/Users/stapi/OneDrive/Desktop/GD32VW553/V1_MQTT_OK/GD32VW55X_Wifi_BLE_SDK/GD32VW55x_RELEASE_V1.0.2/MSDK/cloud/alicloud/src/infra/system\guider.c ****             if (direct_connect_count > GUIDER_MAX_DIRECT_CONNECT_COUNT)
 1934              		.loc 1 1347 13
 1935 01be 13050A00 		addi	a0,s4,%lo(.LC17)
 1936 01c2 97000000 		call	HAL_Printf
 1936      E7800000 
 1937              	.LVL188:
1347:C:/Users/stapi/OneDrive/Desktop/GD32VW553/V1_MQTT_OK/GD32VW55X_Wifi_BLE_SDK/GD32VW55x_RELEASE_V1.0.2/MSDK/cloud/alicloud/src/infra/system\guider.c ****             if (direct_connect_count > GUIDER_MAX_DIRECT_CONNECT_COUNT)
 1938              		.loc 1 1347 13
1348:C:/Users/stapi/OneDrive/Desktop/GD32VW553/V1_MQTT_OK/GD32VW55X_Wifi_BLE_SDK/GD32VW55x_RELEASE_V1.0.2/MSDK/cloud/alicloud/src/infra/system\guider.c ****             {
 1939              		.loc 1 1348 13
1348:C:/Users/stapi/OneDrive/Desktop/GD32VW553/V1_MQTT_OK/GD32VW55X_Wifi_BLE_SDK/GD32VW55x_RELEASE_V1.0.2/MSDK/cloud/alicloud/src/infra/system\guider.c ****             {
 1940              		.loc 1 1348 16 is_stmt 0
 1941 01ca 03C70900 		lbu	a4,0(s3)
 1942 01ce 9947     		li	a5,6
 1943 01d0 63FEE702 		bleu	a4,a5,.L94
1350:C:/Users/stapi/OneDrive/Desktop/GD32VW553/V1_MQTT_OK/GD32VW55X_Wifi_BLE_SDK/GD32VW55x_RELEASE_V1.0.2/MSDK/cloud/alicloud/src/infra/system\guider.c ****                 bootup_connect_method = CONNECT_PREAUTH;
 1944              		.loc 1 1350 17 is_stmt 1
1351:C:/Users/stapi/OneDrive/Desktop/GD32VW553/V1_MQTT_OK/GD32VW55X_Wifi_BLE_SDK/GD32VW55x_RELEASE_V1.0.2/MSDK/cloud/alicloud/src/infra/system\guider.c ****                 memset(p_dynamic_mqtt_url, '\0', GUIDER_DYNAMIC_URL_LEN); //for do bootstrap
 1945              		.loc 1 1351 39 is_stmt 0
 1946 01d4 E247     		lw	a5,24(sp)
1350:C:/Users/stapi/OneDrive/Desktop/GD32VW553/V1_MQTT_OK/GD32VW55X_Wifi_BLE_SDK/GD32VW55x_RELEASE_V1.0.2/MSDK/cloud/alicloud/src/infra/system\guider.c ****                 bootup_connect_method = CONNECT_PREAUTH;
 1947              		.loc 1 1350 38
 1948 01d6 23800900 		sb	zero,0(s3)
1351:C:/Users/stapi/OneDrive/Desktop/GD32VW553/V1_MQTT_OK/GD32VW55X_Wifi_BLE_SDK/GD32VW55x_RELEASE_V1.0.2/MSDK/cloud/alicloud/src/infra/system\guider.c ****                 memset(p_dynamic_mqtt_url, '\0', GUIDER_DYNAMIC_URL_LEN); //for do bootstrap
 1949              		.loc 1 1351 17 is_stmt 1
1352:C:/Users/stapi/OneDrive/Desktop/GD32VW553/V1_MQTT_OK/GD32VW55X_Wifi_BLE_SDK/GD32VW55x_RELEASE_V1.0.2/MSDK/cloud/alicloud/src/infra/system\guider.c ****                 if (is_request_mqtt_host_by_regionid == 1)
 1950              		.loc 1 1352 17 is_stmt 0
 1951 01da 13060010 		li	a2,256
 1952 01de 8145     		li	a1,0
 1953 01e0 4A85     		mv	a0,s2
1353:C:/Users/stapi/OneDrive/Desktop/GD32VW553/V1_MQTT_OK/GD32VW55X_Wifi_BLE_SDK/GD32VW55x_RELEASE_V1.0.2/MSDK/cloud/alicloud/src/infra/system\guider.c ****                 {
 1954              		.loc 1 1353 54
 1955 01e2 B7090000 		lui	s3,%hi(.LANCHOR11)
1351:C:/Users/stapi/OneDrive/Desktop/GD32VW553/V1_MQTT_OK/GD32VW55X_Wifi_BLE_SDK/GD32VW55x_RELEASE_V1.0.2/MSDK/cloud/alicloud/src/infra/system\guider.c ****                 memset(p_dynamic_mqtt_url, '\0', GUIDER_DYNAMIC_URL_LEN); //for do bootstrap
 1956              		.loc 1 1351 39
 1957 01e6 23A00700 		sw	zero,0(a5)
1352:C:/Users/stapi/OneDrive/Desktop/GD32VW553/V1_MQTT_OK/GD32VW55X_Wifi_BLE_SDK/GD32VW55x_RELEASE_V1.0.2/MSDK/cloud/alicloud/src/infra/system\guider.c ****                 if (is_request_mqtt_host_by_regionid == 1)
 1958              		.loc 1 1352 17 is_stmt 1
1353:C:/Users/stapi/OneDrive/Desktop/GD32VW553/V1_MQTT_OK/GD32VW55X_Wifi_BLE_SDK/GD32VW55x_RELEASE_V1.0.2/MSDK/cloud/alicloud/src/infra/system\guider.c ****                 {
 1959              		.loc 1 1353 54 is_stmt 0
 1960 01ea 93890900 		addi	s3,s3,%lo(.LANCHOR11)
1352:C:/Users/stapi/OneDrive/Desktop/GD32VW553/V1_MQTT_OK/GD32VW55X_Wifi_BLE_SDK/GD32VW55x_RELEASE_V1.0.2/MSDK/cloud/alicloud/src/infra/system\guider.c ****                 if (is_request_mqtt_host_by_regionid == 1)
 1961              		.loc 1 1352 17
 1962 01ee 97000000 		call	memset
 1962      E7800000 
 1963              	.LVL189:
1353:C:/Users/stapi/OneDrive/Desktop/GD32VW553/V1_MQTT_OK/GD32VW55X_Wifi_BLE_SDK/GD32VW55x_RELEASE_V1.0.2/MSDK/cloud/alicloud/src/infra/system\guider.c ****                 {
 1964              		.loc 1 1353 17 is_stmt 1
1353:C:/Users/stapi/OneDrive/Desktop/GD32VW553/V1_MQTT_OK/GD32VW55X_Wifi_BLE_SDK/GD32VW55x_RELEASE_V1.0.2/MSDK/cloud/alicloud/src/infra/system\guider.c ****                 {
 1965              		.loc 1 1353 20 is_stmt 0
 1966 01f6 03C70900 		lbu	a4,0(s3)
 1967 01fa 8547     		li	a5,1
 1968 01fc 6318F700 		bne	a4,a5,.L94
1355:C:/Users/stapi/OneDrive/Desktop/GD32VW553/V1_MQTT_OK/GD32VW55X_Wifi_BLE_SDK/GD32VW55x_RELEASE_V1.0.2/MSDK/cloud/alicloud/src/infra/system\guider.c ****                     is_request_mqtt_host_by_regionid = 0;
 1969              		.loc 1 1355 21 is_stmt 1
 1970 0200 97000000 		call	iotx_guider_clear_dynamic_url
 1970      E7800000 
 1971              	.LVL190:
1356:C:/Users/stapi/OneDrive/Desktop/GD32VW553/V1_MQTT_OK/GD32VW55X_Wifi_BLE_SDK/GD32VW55x_RELEASE_V1.0.2/MSDK/cloud/alicloud/src/infra/system\guider.c ****                 }
 1972              		.loc 1 1356 21
1356:C:/Users/stapi/OneDrive/Desktop/GD32VW553/V1_MQTT_OK/GD32VW55X_Wifi_BLE_SDK/GD32VW55x_RELEASE_V1.0.2/MSDK/cloud/alicloud/src/infra/system\guider.c ****                 }
 1973              		.loc 1 1356 54 is_stmt 0
 1974 0208 23800900 		sb	zero,0(s3)
 1975              	.L94:
1362:C:/Users/stapi/OneDrive/Desktop/GD32VW553/V1_MQTT_OK/GD32VW55X_Wifi_BLE_SDK/GD32VW55x_RELEASE_V1.0.2/MSDK/cloud/alicloud/src/infra/system\guider.c ****         }
 1976              		.loc 1 1362 13 is_stmt 1 discriminator 1
1366:C:/Users/stapi/OneDrive/Desktop/GD32VW553/V1_MQTT_OK/GD32VW55X_Wifi_BLE_SDK/GD32VW55x_RELEASE_V1.0.2/MSDK/cloud/alicloud/src/infra/system\guider.c ****     secure_mode = guider_get_secure_mode(connect_method);
 1977              		.loc 1 1366 5 discriminator 1
 1978              	.LVL191:
 1979              	.LBB115:
 1980              	.LBB116:
 632:C:/Users/stapi/OneDrive/Desktop/GD32VW553/V1_MQTT_OK/GD32VW55X_Wifi_BLE_SDK/GD32VW55x_RELEASE_V1.0.2/MSDK/cloud/alicloud/src/infra/system\guider.c **** 
 1981              		.loc 1 632 5 discriminator 1
 634:C:/Users/stapi/OneDrive/Desktop/GD32VW553/V1_MQTT_OK/GD32VW55X_Wifi_BLE_SDK/GD32VW55x_RELEASE_V1.0.2/MSDK/cloud/alicloud/src/infra/system\guider.c ****     {
 1982              		.loc 1 634 5 discriminator 1
 1983              	.LBB117:
 1984              	.LBB118:
 183:C:/Users/stapi/OneDrive/Desktop/GD32VW553/V1_MQTT_OK/GD32VW55X_Wifi_BLE_SDK/GD32VW55x_RELEASE_V1.0.2/MSDK/cloud/alicloud/src/infra/system\guider.c **** }
 1985              		.loc 1 183 5 discriminator 1
 183:C:/Users/stapi/OneDrive/Desktop/GD32VW553/V1_MQTT_OK/GD32VW55X_Wifi_BLE_SDK/GD32VW55x_RELEASE_V1.0.2/MSDK/cloud/alicloud/src/infra/system\guider.c **** }
 1986              		.loc 1 183 12 is_stmt 0 discriminator 1
 1987 020c B7070000 		lui	a5,%hi(.LANCHOR2)
 1988              	.LBE118:
 1989              	.LBE117:
 634:C:/Users/stapi/OneDrive/Desktop/GD32VW553/V1_MQTT_OK/GD32VW55X_Wifi_BLE_SDK/GD32VW55x_RELEASE_V1.0.2/MSDK/cloud/alicloud/src/infra/system\guider.c ****     {
 1990              		.loc 1 634 8 discriminator 1
 1991 0210 83A60700 		lw	a3,%lo(.LANCHOR2)(a5)
 1992 0214 0547     		li	a4,1
 1993 0216 93890700 		addi	s3,a5,%lo(.LANCHOR2)
 1994 021a E38EE602 		beq	a3,a4,.L98
 639:C:/Users/stapi/OneDrive/Desktop/GD32VW553/V1_MQTT_OK/GD32VW55X_Wifi_BLE_SDK/GD32VW55x_RELEASE_V1.0.2/MSDK/cloud/alicloud/src/infra/system\guider.c ****     {
 1995              		.loc 1 639 5 is_stmt 1
 639:C:/Users/stapi/OneDrive/Desktop/GD32VW553/V1_MQTT_OK/GD32VW55X_Wifi_BLE_SDK/GD32VW55x_RELEASE_V1.0.2/MSDK/cloud/alicloud/src/infra/system\guider.c ****     {
 1996              		.loc 1 639 20 is_stmt 0
 1997 021e 83070900 		lb	a5,0(s2)
 1998 0222 E39A0702 		bne	a5,zero,.L98
 1999              	.LVL192:
 2000              	.LBE116:
 2001              	.LBE115:
1367:C:/Users/stapi/OneDrive/Desktop/GD32VW553/V1_MQTT_OK/GD32VW55X_Wifi_BLE_SDK/GD32VW55x_RELEASE_V1.0.2/MSDK/cloud/alicloud/src/infra/system\guider.c ****     if (CONNECT_PREAUTH == connect_method)
 2002              		.loc 1 1367 5 is_stmt 1
 653:C:/Users/stapi/OneDrive/Desktop/GD32VW553/V1_MQTT_OK/GD32VW55X_Wifi_BLE_SDK/GD32VW55x_RELEASE_V1.0.2/MSDK/cloud/alicloud/src/infra/system\guider.c **** 
 2003              		.loc 1 653 5
 655:C:/Users/stapi/OneDrive/Desktop/GD32VW553/V1_MQTT_OK/GD32VW55X_Wifi_BLE_SDK/GD32VW55x_RELEASE_V1.0.2/MSDK/cloud/alicloud/src/infra/system\guider.c ****     {
 2004              		.loc 1 655 5
 676:C:/Users/stapi/OneDrive/Desktop/GD32VW553/V1_MQTT_OK/GD32VW55X_Wifi_BLE_SDK/GD32VW55x_RELEASE_V1.0.2/MSDK/cloud/alicloud/src/infra/system\guider.c **** }
 2005              		.loc 1 676 5
1368:C:/Users/stapi/OneDrive/Desktop/GD32VW553/V1_MQTT_OK/GD32VW55X_Wifi_BLE_SDK/GD32VW55x_RELEASE_V1.0.2/MSDK/cloud/alicloud/src/infra/system\guider.c ****     {
 2006              		.loc 1 1368 5
1370:C:/Users/stapi/OneDrive/Desktop/GD32VW553/V1_MQTT_OK/GD32VW55X_Wifi_BLE_SDK/GD32VW55x_RELEASE_V1.0.2/MSDK/cloud/alicloud/src/infra/system\guider.c ****         if (!p_guider_url)
 2007              		.loc 1 1370 9
1370:C:/Users/stapi/OneDrive/Desktop/GD32VW553/V1_MQTT_OK/GD32VW55X_Wifi_BLE_SDK/GD32VW55x_RELEASE_V1.0.2/MSDK/cloud/alicloud/src/infra/system\guider.c ****         if (!p_guider_url)
 2008              		.loc 1 1370 24 is_stmt 0
 2009 0226 13060008 		li	a2,128
 2010 022a 8145     		li	a1,0
 2011 022c 0145     		li	a0,0
 2012 022e 97000000 		call	LITE_malloc_internal
 2012      E7800000 
 2013              	.LVL193:
 2014 0236 AA89     		mv	s3,a0
 2015              	.LVL194:
1371:C:/Users/stapi/OneDrive/Desktop/GD32VW553/V1_MQTT_OK/GD32VW55X_Wifi_BLE_SDK/GD32VW55x_RELEASE_V1.0.2/MSDK/cloud/alicloud/src/infra/system\guider.c ****         {
 2016              		.loc 1 1371 9 is_stmt 1
1373:C:/Users/stapi/OneDrive/Desktop/GD32VW553/V1_MQTT_OK/GD32VW55X_Wifi_BLE_SDK/GD32VW55x_RELEASE_V1.0.2/MSDK/cloud/alicloud/src/infra/system\guider.c ****             goto EXIT;
 2017              		.loc 1 1373 17 is_stmt 0
 2018 0238 7D5A     		li	s4,-1
1371:C:/Users/stapi/OneDrive/Desktop/GD32VW553/V1_MQTT_OK/GD32VW55X_Wifi_BLE_SDK/GD32VW55x_RELEASE_V1.0.2/MSDK/cloud/alicloud/src/infra/system\guider.c ****         {
 2019              		.loc 1 1371 12
 2020 023a 630F054C 		beq	a0,zero,.L92
1377:C:/Users/stapi/OneDrive/Desktop/GD32VW553/V1_MQTT_OK/GD32VW55X_Wifi_BLE_SDK/GD32VW55x_RELEASE_V1.0.2/MSDK/cloud/alicloud/src/infra/system\guider.c ****     }
 2021              		.loc 1 1377 9 is_stmt 1
 2022              	.LVL195:
 2023              	.LBB119:
 2024              	.LBB120:
1143:C:/Users/stapi/OneDrive/Desktop/GD32VW553/V1_MQTT_OK/GD32VW55X_Wifi_BLE_SDK/GD32VW55x_RELEASE_V1.0.2/MSDK/cloud/alicloud/src/infra/system\guider.c ****     int ext = 0;
 2025              		.loc 1 1143 5
1144:C:/Users/stapi/OneDrive/Desktop/GD32VW553/V1_MQTT_OK/GD32VW55X_Wifi_BLE_SDK/GD32VW55x_RELEASE_V1.0.2/MSDK/cloud/alicloud/src/infra/system\guider.c ****     int len = 0;
 2026              		.loc 1 1144 5
1145:C:/Users/stapi/OneDrive/Desktop/GD32VW553/V1_MQTT_OK/GD32VW55X_Wifi_BLE_SDK/GD32VW55x_RELEASE_V1.0.2/MSDK/cloud/alicloud/src/infra/system\guider.c ****     int rc = -1;
 2027              		.loc 1 1145 5
1146:C:/Users/stapi/OneDrive/Desktop/GD32VW553/V1_MQTT_OK/GD32VW55X_Wifi_BLE_SDK/GD32VW55x_RELEASE_V1.0.2/MSDK/cloud/alicloud/src/infra/system\guider.c ****     int region_id = -1;
 2028              		.loc 1 1146 5
1147:C:/Users/stapi/OneDrive/Desktop/GD32VW553/V1_MQTT_OK/GD32VW55X_Wifi_BLE_SDK/GD32VW55x_RELEASE_V1.0.2/MSDK/cloud/alicloud/src/infra/system\guider.c ****     char *p_request_buf = NULL;
 2029              		.loc 1 1147 5
1148:C:/Users/stapi/OneDrive/Desktop/GD32VW553/V1_MQTT_OK/GD32VW55X_Wifi_BLE_SDK/GD32VW55x_RELEASE_V1.0.2/MSDK/cloud/alicloud/src/infra/system\guider.c ****     char timestamp_str[GUIDER_TS_LEN] = {0};
 2030              		.loc 1 1148 5
1149:C:/Users/stapi/OneDrive/Desktop/GD32VW553/V1_MQTT_OK/GD32VW55X_Wifi_BLE_SDK/GD32VW55x_RELEASE_V1.0.2/MSDK/cloud/alicloud/src/infra/system\guider.c ****     sdk_impl_ctx_t *ctx = sdk_impl_get_ctx();
 2031              		.loc 1 1149 5
1149:C:/Users/stapi/OneDrive/Desktop/GD32VW553/V1_MQTT_OK/GD32VW55X_Wifi_BLE_SDK/GD32VW55x_RELEASE_V1.0.2/MSDK/cloud/alicloud/src/infra/system\guider.c ****     sdk_impl_ctx_t *ctx = sdk_impl_get_ctx();
 2032              		.loc 1 1149 10 is_stmt 0
 2033 023e 02DC     		sw	zero,56(sp)
 2034 0240 02DE     		sw	zero,60(sp)
 2035 0242 82C0     		sw	zero,64(sp)
 2036 0244 82C2     		sw	zero,68(sp)
1150:C:/Users/stapi/OneDrive/Desktop/GD32VW553/V1_MQTT_OK/GD32VW55X_Wifi_BLE_SDK/GD32VW55x_RELEASE_V1.0.2/MSDK/cloud/alicloud/src/infra/system\guider.c **** 
 2037              		.loc 1 1150 5 is_stmt 1
1150:C:/Users/stapi/OneDrive/Desktop/GD32VW553/V1_MQTT_OK/GD32VW55X_Wifi_BLE_SDK/GD32VW55x_RELEASE_V1.0.2/MSDK/cloud/alicloud/src/infra/system\guider.c **** 
 2038              		.loc 1 1150 27 is_stmt 0
 2039 0246 97000000 		call	sdk_impl_get_ctx
 2039      E7800000 
 2040              	.LVL196:
1152:C:/Users/stapi/OneDrive/Desktop/GD32VW553/V1_MQTT_OK/GD32VW55X_Wifi_BLE_SDK/GD32VW55x_RELEASE_V1.0.2/MSDK/cloud/alicloud/src/infra/system\guider.c ****     uint16_t iotx_conn_port = 1883;
 2041              		.loc 1 1152 5 is_stmt 1
1153:C:/Users/stapi/OneDrive/Desktop/GD32VW553/V1_MQTT_OK/GD32VW55X_Wifi_BLE_SDK/GD32VW55x_RELEASE_V1.0.2/MSDK/cloud/alicloud/src/infra/system\guider.c **** 
 2042              		.loc 1 1153 5
1155:C:/Users/stapi/OneDrive/Desktop/GD32VW553/V1_MQTT_OK/GD32VW55X_Wifi_BLE_SDK/GD32VW55x_RELEASE_V1.0.2/MSDK/cloud/alicloud/src/infra/system\guider.c ****     char *p_mqtt_url = NULL;
 2043              		.loc 1 1155 5
1156:C:/Users/stapi/OneDrive/Desktop/GD32VW553/V1_MQTT_OK/GD32VW55X_Wifi_BLE_SDK/GD32VW55x_RELEASE_V1.0.2/MSDK/cloud/alicloud/src/infra/system\guider.c **** 
 2044              		.loc 1 1156 5
1158:C:/Users/stapi/OneDrive/Desktop/GD32VW553/V1_MQTT_OK/GD32VW55X_Wifi_BLE_SDK/GD32VW55x_RELEASE_V1.0.2/MSDK/cloud/alicloud/src/infra/system\guider.c ****     guider_get_timestamp_str(timestamp_str, sizeof(timestamp_str));
 2045              		.loc 1 1158 5
1158:C:/Users/stapi/OneDrive/Desktop/GD32VW553/V1_MQTT_OK/GD32VW55X_Wifi_BLE_SDK/GD32VW55x_RELEASE_V1.0.2/MSDK/cloud/alicloud/src/infra/system\guider.c ****     guider_get_timestamp_str(timestamp_str, sizeof(timestamp_str));
 2046              		.loc 1 1158 17 is_stmt 0
 2047 024e 97000000 		call	iotx_guider_get_region_id
 2047      E7800000 
 2048              	.LVL197:
 2049              	.LBB121:
 2050              	.LBB122:
 625:C:/Users/stapi/OneDrive/Desktop/GD32VW553/V1_MQTT_OK/GD32VW55X_Wifi_BLE_SDK/GD32VW55x_RELEASE_V1.0.2/MSDK/cloud/alicloud/src/infra/system\guider.c **** 
 2051              		.loc 1 625 5
 2052 0256 B7060000 		lui	a3,%hi(.LC52)
 2053 025a 37060000 		lui	a2,%hi(.LC53)
 2054 025e 93860600 		addi	a3,a3,%lo(.LC52)
 2055 0262 13060600 		addi	a2,a2,%lo(.LC53)
 2056 0266 C145     		li	a1,16
 2057              	.LBE122:
 2058              	.LBE121:
1158:C:/Users/stapi/OneDrive/Desktop/GD32VW553/V1_MQTT_OK/GD32VW55X_Wifi_BLE_SDK/GD32VW55x_RELEASE_V1.0.2/MSDK/cloud/alicloud/src/infra/system\guider.c ****     guider_get_timestamp_str(timestamp_str, sizeof(timestamp_str));
 2059              		.loc 1 1158 17
 2060 0268 2A8D     		mv	s10,a0
 2061              	.LVL198:
1159:C:/Users/stapi/OneDrive/Desktop/GD32VW553/V1_MQTT_OK/GD32VW55X_Wifi_BLE_SDK/GD32VW55x_RELEASE_V1.0.2/MSDK/cloud/alicloud/src/infra/system\guider.c ****     p_domain = iotx_guider_get_domain(GUIDER_DOMAIN_HTTP);
 2062              		.loc 1 1159 5 is_stmt 1
 2063              	.LBB124:
 2064              	.LBB123:
 625:C:/Users/stapi/OneDrive/Desktop/GD32VW553/V1_MQTT_OK/GD32VW55X_Wifi_BLE_SDK/GD32VW55x_RELEASE_V1.0.2/MSDK/cloud/alicloud/src/infra/system\guider.c **** 
 2065              		.loc 1 625 5
 2066 026a 2818     		addi	a0,sp,56
 2067              	.LVL199:
 2068 026c 97000000 		call	HAL_Snprintf
 2068      E7800000 
 2069              	.LVL200:
 627:C:/Users/stapi/OneDrive/Desktop/GD32VW553/V1_MQTT_OK/GD32VW55X_Wifi_BLE_SDK/GD32VW55x_RELEASE_V1.0.2/MSDK/cloud/alicloud/src/infra/system\guider.c **** }
 2070              		.loc 1 627 5
 2071              	.LBE123:
 2072              	.LBE124:
1160:C:/Users/stapi/OneDrive/Desktop/GD32VW553/V1_MQTT_OK/GD32VW55X_Wifi_BLE_SDK/GD32VW55x_RELEASE_V1.0.2/MSDK/cloud/alicloud/src/infra/system\guider.c **** 
 2073              		.loc 1 1160 5
1160:C:/Users/stapi/OneDrive/Desktop/GD32VW553/V1_MQTT_OK/GD32VW55X_Wifi_BLE_SDK/GD32VW55x_RELEASE_V1.0.2/MSDK/cloud/alicloud/src/infra/system\guider.c **** 
 2074              		.loc 1 1160 16 is_stmt 0
 2075 0274 0545     		li	a0,1
 2076 0276 97000000 		call	iotx_guider_get_domain
 2076      E7800000 
 2077              	.LVL201:
1162:C:/Users/stapi/OneDrive/Desktop/GD32VW553/V1_MQTT_OK/GD32VW55X_Wifi_BLE_SDK/GD32VW55x_RELEASE_V1.0.2/MSDK/cloud/alicloud/src/infra/system\guider.c ****     {
 2078              		.loc 1 1162 8
 2079 027e FD57     		li	a5,-1
1160:C:/Users/stapi/OneDrive/Desktop/GD32VW553/V1_MQTT_OK/GD32VW55X_Wifi_BLE_SDK/GD32VW55x_RELEASE_V1.0.2/MSDK/cloud/alicloud/src/infra/system\guider.c **** 
 2080              		.loc 1 1160 16
 2081 0280 AA86     		mv	a3,a0
 2082              	.LVL202:
1162:C:/Users/stapi/OneDrive/Desktop/GD32VW553/V1_MQTT_OK/GD32VW55X_Wifi_BLE_SDK/GD32VW55x_RELEASE_V1.0.2/MSDK/cloud/alicloud/src/infra/system\guider.c ****     {
 2083              		.loc 1 1162 5 is_stmt 1
1162:C:/Users/stapi/OneDrive/Desktop/GD32VW553/V1_MQTT_OK/GD32VW55X_Wifi_BLE_SDK/GD32VW55x_RELEASE_V1.0.2/MSDK/cloud/alicloud/src/infra/system\guider.c ****     {
 2084              		.loc 1 1162 8 is_stmt 0
 2085 0282 6308FD1A 		beq	s10,a5,.L100
1164:C:/Users/stapi/OneDrive/Desktop/GD32VW553/V1_MQTT_OK/GD32VW55X_Wifi_BLE_SDK/GD32VW55x_RELEASE_V1.0.2/MSDK/cloud/alicloud/src/infra/system\guider.c ****     }
 2086              		.loc 1 1164 9 is_stmt 1
 2087 0286 37060000 		lui	a2,%hi(.LC54)
 2088 028a 6A87     		mv	a4,s10
 2089 028c 13060600 		addi	a2,a2,%lo(.LC54)
 2090 0290 93050008 		li	a1,128
 2091 0294 4E85     		mv	a0,s3
 2092              	.LVL203:
 2093 0296 97000000 		call	HAL_Snprintf
 2093      E7800000 
 2094              	.LVL204:
1148:C:/Users/stapi/OneDrive/Desktop/GD32VW553/V1_MQTT_OK/GD32VW55X_Wifi_BLE_SDK/GD32VW55x_RELEASE_V1.0.2/MSDK/cloud/alicloud/src/infra/system\guider.c ****     char timestamp_str[GUIDER_TS_LEN] = {0};
 2095              		.loc 1 1148 11 is_stmt 0
 2096 029e 014A     		li	s4,0
 2097              	.LVL205:
 2098              	.L101:
1183:C:/Users/stapi/OneDrive/Desktop/GD32VW553/V1_MQTT_OK/GD32VW55X_Wifi_BLE_SDK/GD32VW55x_RELEASE_V1.0.2/MSDK/cloud/alicloud/src/infra/system\guider.c ****                                  timestamp_str, "no sign");
 2099              		.loc 1 1183 5 is_stmt 1
 2100 02a0 3C18     		addi	a5,sp,56
 2101 02a2 7D57     		li	a4,-1
 2102 02a4 CE86     		mv	a3,s3
 2103 02a6 5E86     		mv	a2,s7
 2104 02a8 E685     		mv	a1,s9
 2105 02aa 2685     		mv	a0,s1
 2106 02ac 97000000 		call	guider_print_dev_guider_info.constprop.0
 2106      E7800000 
 2107              	.LVL206:
1186:C:/Users/stapi/OneDrive/Desktop/GD32VW553/V1_MQTT_OK/GD32VW55X_Wifi_BLE_SDK/GD32VW55x_RELEASE_V1.0.2/MSDK/cloud/alicloud/src/infra/system\guider.c ****     if (!p_iotx_conn_host)
 2108              		.loc 1 1186 5
1186:C:/Users/stapi/OneDrive/Desktop/GD32VW553/V1_MQTT_OK/GD32VW55X_Wifi_BLE_SDK/GD32VW55x_RELEASE_V1.0.2/MSDK/cloud/alicloud/src/infra/system\guider.c ****     if (!p_iotx_conn_host)
 2109              		.loc 1 1186 24 is_stmt 0
 2110 02b4 13060008 		li	a2,128
 2111 02b8 8145     		li	a1,0
 2112 02ba 0145     		li	a0,0
 2113 02bc 97000000 		call	LITE_malloc_internal
 2113      E7800000 
 2114              	.LVL207:
 2115 02c4 2A8C     		mv	s8,a0
 2116              	.LVL208:
1187:C:/Users/stapi/OneDrive/Desktop/GD32VW553/V1_MQTT_OK/GD32VW55X_Wifi_BLE_SDK/GD32VW55x_RELEASE_V1.0.2/MSDK/cloud/alicloud/src/infra/system\guider.c ****     {
 2117              		.loc 1 1187 5 is_stmt 1
1187:C:/Users/stapi/OneDrive/Desktop/GD32VW553/V1_MQTT_OK/GD32VW55X_Wifi_BLE_SDK/GD32VW55x_RELEASE_V1.0.2/MSDK/cloud/alicloud/src/infra/system\guider.c ****     {
 2118              		.loc 1 1187 8 is_stmt 0
 2119 02c6 63050578 		beq	a0,zero,.L105
1193:C:/Users/stapi/OneDrive/Desktop/GD32VW553/V1_MQTT_OK/GD32VW55X_Wifi_BLE_SDK/GD32VW55x_RELEASE_V1.0.2/MSDK/cloud/alicloud/src/infra/system\guider.c ****                                   p_iotx_conn_host, &iotx_conn_port))
 2120              		.loc 1 1193 5 is_stmt 1
 2121              	.LVL209:
 2122              	.LBB125:
 2123              	.LBB126:
 702:C:/Users/stapi/OneDrive/Desktop/GD32VW553/V1_MQTT_OK/GD32VW55X_Wifi_BLE_SDK/GD32VW55x_RELEASE_V1.0.2/MSDK/cloud/alicloud/src/infra/system\guider.c ****     int iotx_port = 443;
 2124              		.loc 1 702 5
 703:C:/Users/stapi/OneDrive/Desktop/GD32VW553/V1_MQTT_OK/GD32VW55X_Wifi_BLE_SDK/GD32VW55x_RELEASE_V1.0.2/MSDK/cloud/alicloud/src/infra/system\guider.c ****     int ret_code = 0;
 2125              		.loc 1 703 5
 704:C:/Users/stapi/OneDrive/Desktop/GD32VW553/V1_MQTT_OK/GD32VW55X_Wifi_BLE_SDK/GD32VW55x_RELEASE_V1.0.2/MSDK/cloud/alicloud/src/infra/system\guider.c ****     char port_str[6];
 2126              		.loc 1 704 5
 705:C:/Users/stapi/OneDrive/Desktop/GD32VW553/V1_MQTT_OK/GD32VW55X_Wifi_BLE_SDK/GD32VW55x_RELEASE_V1.0.2/MSDK/cloud/alicloud/src/infra/system\guider.c ****     char *iotx_payload = NULL;
 2127              		.loc 1 705 5
 706:C:/Users/stapi/OneDrive/Desktop/GD32VW553/V1_MQTT_OK/GD32VW55X_Wifi_BLE_SDK/GD32VW55x_RELEASE_V1.0.2/MSDK/cloud/alicloud/src/infra/system\guider.c ****     const char *pvalue;
 2128              		.loc 1 706 5
 707:C:/Users/stapi/OneDrive/Desktop/GD32VW553/V1_MQTT_OK/GD32VW55X_Wifi_BLE_SDK/GD32VW55x_RELEASE_V1.0.2/MSDK/cloud/alicloud/src/infra/system\guider.c **** 
 2129              		.loc 1 707 5
 731:C:/Users/stapi/OneDrive/Desktop/GD32VW553/V1_MQTT_OK/GD32VW55X_Wifi_BLE_SDK/GD32VW55x_RELEASE_V1.0.2/MSDK/cloud/alicloud/src/infra/system\guider.c ****     LITE_ASSERT(iotx_payload);
 2130              		.loc 1 731 5
 731:C:/Users/stapi/OneDrive/Desktop/GD32VW553/V1_MQTT_OK/GD32VW55X_Wifi_BLE_SDK/GD32VW55x_RELEASE_V1.0.2/MSDK/cloud/alicloud/src/infra/system\guider.c ****     LITE_ASSERT(iotx_payload);
 2131              		.loc 1 731 20 is_stmt 0
 2132 02ca 13060020 		li	a2,512
 2133 02ce 8145     		li	a1,0
 2134 02d0 0145     		li	a0,0
 2135              	.LVL210:
 2136 02d2 97000000 		call	LITE_malloc_internal
 2136      E7800000 
 2137              	.LVL211:
 2138 02da 2A8B     		mv	s6,a0
 2139              	.LVL212:
 732:C:/Users/stapi/OneDrive/Desktop/GD32VW553/V1_MQTT_OK/GD32VW55X_Wifi_BLE_SDK/GD32VW55x_RELEASE_V1.0.2/MSDK/cloud/alicloud/src/infra/system\guider.c ****     memset(iotx_payload, 0, GUIDER_PREAUTH_RESPONSE_LEN);
 2140              		.loc 1 732 5 is_stmt 1
 732:C:/Users/stapi/OneDrive/Desktop/GD32VW553/V1_MQTT_OK/GD32VW55X_Wifi_BLE_SDK/GD32VW55x_RELEASE_V1.0.2/MSDK/cloud/alicloud/src/infra/system\guider.c ****     memset(iotx_payload, 0, GUIDER_PREAUTH_RESPONSE_LEN);
 2141              		.loc 1 732 5
 2142 02dc 1DE5     		bne	a0,zero,.L106
 732:C:/Users/stapi/OneDrive/Desktop/GD32VW553/V1_MQTT_OK/GD32VW55X_Wifi_BLE_SDK/GD32VW55x_RELEASE_V1.0.2/MSDK/cloud/alicloud/src/infra/system\guider.c ****     memset(iotx_payload, 0, GUIDER_PREAUTH_RESPONSE_LEN);
 2143              		.loc 1 732 5
 2144 02de 37070000 		lui	a4,%hi(.LC59)
 2145 02e2 37060000 		lui	a2,%hi(.LANCHOR14)
 2146 02e6 B7050000 		lui	a1,%hi(.LC45)
 2147 02ea 37050000 		lui	a0,%hi(.LC46)
 2148              	.LVL213:
 2149 02ee 13070700 		addi	a4,a4,%lo(.LC59)
 2150 02f2 9306C02D 		li	a3,732
 2151 02f6 13060600 		addi	a2,a2,%lo(.LANCHOR14)
 2152 02fa 93850500 		addi	a1,a1,%lo(.LC45)
 2153 02fe 13050500 		addi	a0,a0,%lo(.LC46)
 2154 0302 97000000 		call	HAL_Printf
 2154      E7800000 
 2155              	.LVL214:
 2156              	.L106:
 732:C:/Users/stapi/OneDrive/Desktop/GD32VW553/V1_MQTT_OK/GD32VW55X_Wifi_BLE_SDK/GD32VW55x_RELEASE_V1.0.2/MSDK/cloud/alicloud/src/infra/system\guider.c ****     memset(iotx_payload, 0, GUIDER_PREAUTH_RESPONSE_LEN);
 2157              		.loc 1 732 5
 733:C:/Users/stapi/OneDrive/Desktop/GD32VW553/V1_MQTT_OK/GD32VW55X_Wifi_BLE_SDK/GD32VW55x_RELEASE_V1.0.2/MSDK/cloud/alicloud/src/infra/system\guider.c ****     _http_response(iotx_payload,
 2158              		.loc 1 733 5
 2159 030a 13060020 		li	a2,512
 2160 030e 8145     		li	a1,0
 2161 0310 5A85     		mv	a0,s6
 2162 0312 97000000 		call	memset
 2162      E7800000 
 2163              	.LVL215:
 734:C:/Users/stapi/OneDrive/Desktop/GD32VW553/V1_MQTT_OK/GD32VW55X_Wifi_BLE_SDK/GD32VW55x_RELEASE_V1.0.2/MSDK/cloud/alicloud/src/infra/system\guider.c ****                    GUIDER_PREAUTH_RESPONSE_LEN,
 2164              		.loc 1 734 5
 2165 031a 97000000 		call	iotx_ca_get
 2165      E7800000 
 2166              	.LVL216:
 2167 0322 2AD0     		sw	a0,32(sp)
 2168              	.LVL217:
 2169              	.LBB127:
 2170              	.LBB128:
 509:C:/Users/stapi/OneDrive/Desktop/GD32VW553/V1_MQTT_OK/GD32VW55X_Wifi_BLE_SDK/GD32VW55x_RELEASE_V1.0.2/MSDK/cloud/alicloud/src/infra/system\guider.c ****     httpclient_t httpc;
 2171              		.loc 1 509 5
 510:C:/Users/stapi/OneDrive/Desktop/GD32VW553/V1_MQTT_OK/GD32VW55X_Wifi_BLE_SDK/GD32VW55x_RELEASE_V1.0.2/MSDK/cloud/alicloud/src/infra/system\guider.c ****     httpclient_data_t httpc_data;
 2172              		.loc 1 510 5
 511:C:/Users/stapi/OneDrive/Desktop/GD32VW553/V1_MQTT_OK/GD32VW55X_Wifi_BLE_SDK/GD32VW55x_RELEASE_V1.0.2/MSDK/cloud/alicloud/src/infra/system\guider.c **** 
 2173              		.loc 1 511 5
 513:C:/Users/stapi/OneDrive/Desktop/GD32VW553/V1_MQTT_OK/GD32VW55X_Wifi_BLE_SDK/GD32VW55x_RELEASE_V1.0.2/MSDK/cloud/alicloud/src/infra/system\guider.c ****     memset(&httpc_data, 0, sizeof(httpclient_data_t));
 2174              		.loc 1 513 5
 2175 0324 13064003 		li	a2,52
 2176 0328 8145     		li	a1,0
 2177 032a 8818     		addi	a0,sp,112
 2178              	.LVL218:
 2179 032c 97000000 		call	memset
 2179      E7800000 
 2180              	.LVL219:
 514:C:/Users/stapi/OneDrive/Desktop/GD32VW553/V1_MQTT_OK/GD32VW55X_Wifi_BLE_SDK/GD32VW55x_RELEASE_V1.0.2/MSDK/cloud/alicloud/src/infra/system\guider.c **** 
 2181              		.loc 1 514 5
 2182 0334 13064002 		li	a2,36
 2183 0338 8145     		li	a1,0
 2184 033a A800     		addi	a0,sp,72
 2185 033c 97000000 		call	memset
 2185      E7800000 
 2186              	.LVL220:
 516:C:/Users/stapi/OneDrive/Desktop/GD32VW553/V1_MQTT_OK/GD32VW55X_Wifi_BLE_SDK/GD32VW55x_RELEASE_V1.0.2/MSDK/cloud/alicloud/src/infra/system\guider.c **** 
 2187              		.loc 1 516 5
 516:C:/Users/stapi/OneDrive/Desktop/GD32VW553/V1_MQTT_OK/GD32VW55X_Wifi_BLE_SDK/GD32VW55x_RELEASE_V1.0.2/MSDK/cloud/alicloud/src/infra/system\guider.c **** 
 2188              		.loc 1 516 18 is_stmt 0
 2189 0344 B7070000 		lui	a5,%hi(.LC60)
 2190 0348 93870700 		addi	a5,a5,%lo(.LC60)
 2191 034c 3ECD     		sw	a5,152(sp)
 518:C:/Users/stapi/OneDrive/Desktop/GD32VW553/V1_MQTT_OK/GD32VW55X_Wifi_BLE_SDK/GD32VW55x_RELEASE_V1.0.2/MSDK/cloud/alicloud/src/infra/system\guider.c ****     httpc_data.response_buf_len = GUIDER_PREAUTH_RESPONSE_LEN;
 2192              		.loc 1 518 5 is_stmt 1
 519:C:/Users/stapi/OneDrive/Desktop/GD32VW553/V1_MQTT_OK/GD32VW55X_Wifi_BLE_SDK/GD32VW55x_RELEASE_V1.0.2/MSDK/cloud/alicloud/src/infra/system\guider.c **** 
 2193              		.loc 1 519 33 is_stmt 0
 2194 034e 93070020 		li	a5,512
 518:C:/Users/stapi/OneDrive/Desktop/GD32VW553/V1_MQTT_OK/GD32VW55X_Wifi_BLE_SDK/GD32VW55x_RELEASE_V1.0.2/MSDK/cloud/alicloud/src/infra/system\guider.c ****     httpc_data.response_buf_len = GUIDER_PREAUTH_RESPONSE_LEN;
 2195              		.loc 1 518 29
 2196 0352 DAD6     		sw	s6,108(sp)
 519:C:/Users/stapi/OneDrive/Desktop/GD32VW553/V1_MQTT_OK/GD32VW55X_Wifi_BLE_SDK/GD32VW55x_RELEASE_V1.0.2/MSDK/cloud/alicloud/src/infra/system\guider.c **** 
 2197              		.loc 1 519 5 is_stmt 1
 519:C:/Users/stapi/OneDrive/Desktop/GD32VW553/V1_MQTT_OK/GD32VW55X_Wifi_BLE_SDK/GD32VW55x_RELEASE_V1.0.2/MSDK/cloud/alicloud/src/infra/system\guider.c **** 
 2198              		.loc 1 519 33 is_stmt 0
 2199 0354 BED0     		sw	a5,96(sp)
 521:C:/Users/stapi/OneDrive/Desktop/GD32VW553/V1_MQTT_OK/GD32VW55X_Wifi_BLE_SDK/GD32VW55x_RELEASE_V1.0.2/MSDK/cloud/alicloud/src/infra/system\guider.c ****     {
 2200              		.loc 1 521 5 is_stmt 1
 521:C:/Users/stapi/OneDrive/Desktop/GD32VW553/V1_MQTT_OK/GD32VW55X_Wifi_BLE_SDK/GD32VW55x_RELEASE_V1.0.2/MSDK/cloud/alicloud/src/infra/system\guider.c ****     {
 2201              		.loc 1 521 8 is_stmt 0
 2202 0356 8256     		lw	a3,32(sp)
 2203 0358 631C0A18 		bne	s4,zero,.L107
 523:C:/Users/stapi/OneDrive/Desktop/GD32VW553/V1_MQTT_OK/GD32VW55X_Wifi_BLE_SDK/GD32VW55x_RELEASE_V1.0.2/MSDK/cloud/alicloud/src/infra/system\guider.c ****                                 CONFIG_GUIDER_AUTH_TIMEOUT, &httpc_data);
 2204              		.loc 1 523 9 is_stmt 1
 523:C:/Users/stapi/OneDrive/Desktop/GD32VW553/V1_MQTT_OK/GD32VW55X_Wifi_BLE_SDK/GD32VW55x_RELEASE_V1.0.2/MSDK/cloud/alicloud/src/infra/system\guider.c ****                                 CONFIG_GUIDER_AUTH_TIMEOUT, &httpc_data);
 2205              		.loc 1 523 15 is_stmt 0
 2206 035c 8967     		li	a5,8192
 2207 035e 13088104 		addi	a6,sp,72
 2208 0362 93870771 		addi	a5,a5,1808
 2209 0366 0147     		li	a4,0
 2210              	.LVL221:
 2211              	.L231:
 531:C:/Users/stapi/OneDrive/Desktop/GD32VW553/V1_MQTT_OK/GD32VW55X_Wifi_BLE_SDK/GD32VW55x_RELEASE_V1.0.2/MSDK/cloud/alicloud/src/infra/system\guider.c ****                                 CONFIG_GUIDER_AUTH_TIMEOUT, &httpc_data);
 2212              		.loc 1 531 15
 2213 0368 1306B01B 		li	a2,443
 2214 036c CE85     		mv	a1,s3
 2215 036e 8818     		addi	a0,sp,112
 2216 0370 97000000 		call	httpclient_common
 2216      E7800000 
 2217              	.LVL222:
 535:C:/Users/stapi/OneDrive/Desktop/GD32VW553/V1_MQTT_OK/GD32VW55X_Wifi_BLE_SDK/GD32VW55x_RELEASE_V1.0.2/MSDK/cloud/alicloud/src/infra/system\guider.c **** 
 2218              		.loc 1 535 5 is_stmt 1
 2219 0378 8818     		addi	a0,sp,112
 2220 037a 97000000 		call	httpclient_close
 2220      E7800000 
 2221              	.LVL223:
 537:C:/Users/stapi/OneDrive/Desktop/GD32VW553/V1_MQTT_OK/GD32VW55X_Wifi_BLE_SDK/GD32VW55x_RELEASE_V1.0.2/MSDK/cloud/alicloud/src/infra/system\guider.c **** }
 2222              		.loc 1 537 5
 2223              	.LBE128:
 2224              	.LBE127:
 745:C:/Users/stapi/OneDrive/Desktop/GD32VW553/V1_MQTT_OK/GD32VW55X_Wifi_BLE_SDK/GD32VW55x_RELEASE_V1.0.2/MSDK/cloud/alicloud/src/infra/system\guider.c ****     iotx_facility_json_print(iotx_payload, LOG_INFO_LEVEL, '>');
 2225              		.loc 1 745 5
 745:C:/Users/stapi/OneDrive/Desktop/GD32VW553/V1_MQTT_OK/GD32VW55X_Wifi_BLE_SDK/GD32VW55x_RELEASE_V1.0.2/MSDK/cloud/alicloud/src/infra/system\guider.c ****     iotx_facility_json_print(iotx_payload, LOG_INFO_LEVEL, '>');
 2226              		.loc 1 745 5
 2227 0382 37050000 		lui	a0,%hi(.LC15)
 2228 0386 13050500 		addi	a0,a0,%lo(.LC15)
 2229 038a 97000000 		call	HAL_Printf
 2229      E7800000 
 2230              	.LVL224:
 745:C:/Users/stapi/OneDrive/Desktop/GD32VW553/V1_MQTT_OK/GD32VW55X_Wifi_BLE_SDK/GD32VW55x_RELEASE_V1.0.2/MSDK/cloud/alicloud/src/infra/system\guider.c ****     iotx_facility_json_print(iotx_payload, LOG_INFO_LEVEL, '>');
 2231              		.loc 1 745 5
 2232 0392 37050000 		lui	a0,%hi(.LC62)
 2233 0396 13050500 		addi	a0,a0,%lo(.LC62)
 2234 039a 97000000 		call	HAL_Printf
 2234      E7800000 
 2235              	.LVL225:
 745:C:/Users/stapi/OneDrive/Desktop/GD32VW553/V1_MQTT_OK/GD32VW55X_Wifi_BLE_SDK/GD32VW55x_RELEASE_V1.0.2/MSDK/cloud/alicloud/src/infra/system\guider.c ****     iotx_facility_json_print(iotx_payload, LOG_INFO_LEVEL, '>');
 2236              		.loc 1 745 5
 2237 03a2 37070000 		lui	a4,%hi(.LC17)
 2238 03a6 13050700 		addi	a0,a4,%lo(.LC17)
 2239 03aa 97000000 		call	HAL_Printf
 2239      E7800000 
 2240              	.LVL226:
 745:C:/Users/stapi/OneDrive/Desktop/GD32VW553/V1_MQTT_OK/GD32VW55X_Wifi_BLE_SDK/GD32VW55x_RELEASE_V1.0.2/MSDK/cloud/alicloud/src/infra/system\guider.c ****     iotx_facility_json_print(iotx_payload, LOG_INFO_LEVEL, '>');
 2241              		.loc 1 745 5
 746:C:/Users/stapi/OneDrive/Desktop/GD32VW553/V1_MQTT_OK/GD32VW55X_Wifi_BLE_SDK/GD32VW55x_RELEASE_V1.0.2/MSDK/cloud/alicloud/src/infra/system\guider.c **** 
 2242              		.loc 1 746 5
 2243 03b2 1306E003 		li	a2,62
 2244 03b6 9145     		li	a1,4
 2245 03b8 5A85     		mv	a0,s6
 2246 03ba 97000000 		call	iotx_facility_json_print
 2246      E7800000 
 2247              	.LVL227:
 748:C:/Users/stapi/OneDrive/Desktop/GD32VW553/V1_MQTT_OK/GD32VW55X_Wifi_BLE_SDK/GD32VW55x_RELEASE_V1.0.2/MSDK/cloud/alicloud/src/infra/system\guider.c ****     if (!pvalue)
 2248              		.loc 1 748 5
 748:C:/Users/stapi/OneDrive/Desktop/GD32VW553/V1_MQTT_OK/GD32VW55X_Wifi_BLE_SDK/GD32VW55x_RELEASE_V1.0.2/MSDK/cloud/alicloud/src/infra/system\guider.c ****     if (!pvalue)
 2249              		.loc 1 748 14 is_stmt 0
 2250 03c2 8567     		li	a5,4096
 2251 03c4 B70D0000 		lui	s11,%hi(.LC63)
 2252 03c8 37050000 		lui	a0,%hi(.LC64)
 2253 03cc 93860D00 		addi	a3,s11,%lo(.LC63)
 2254 03d0 13864723 		addi	a2,a5,564
 2255 03d4 DA85     		mv	a1,s6
 2256 03d6 13050500 		addi	a0,a0,%lo(.LC64)
 2257 03da 97000000 		call	LITE_json_value_of
 2257      E7800000 
 2258              	.LVL228:
 749:C:/Users/stapi/OneDrive/Desktop/GD32VW553/V1_MQTT_OK/GD32VW55X_Wifi_BLE_SDK/GD32VW55x_RELEASE_V1.0.2/MSDK/cloud/alicloud/src/infra/system\guider.c ****     {
 2259              		.loc 1 749 5 is_stmt 1
 2260 03e2 37070000 		lui	a4,%hi(.LC17)
 2261 03e6 3AD0     		sw	a4,32(sp)
 749:C:/Users/stapi/OneDrive/Desktop/GD32VW553/V1_MQTT_OK/GD32VW55X_Wifi_BLE_SDK/GD32VW55x_RELEASE_V1.0.2/MSDK/cloud/alicloud/src/infra/system\guider.c ****     {
 2262              		.loc 1 749 8 is_stmt 0
 2263 03e8 63190512 		bne	a0,zero,.L109
 751:C:/Users/stapi/OneDrive/Desktop/GD32VW553/V1_MQTT_OK/GD32VW55X_Wifi_BLE_SDK/GD32VW55x_RELEASE_V1.0.2/MSDK/cloud/alicloud/src/infra/system\guider.c ****         goto EXIT;
 2264              		.loc 1 751 9 is_stmt 1
 2265 03ec 37060000 		lui	a2,%hi(.LC65)
 2266 03f0 13060600 		addi	a2,a2,%lo(.LC65)
 2267              	.LVL229:
 2268              	.L235:
 778:C:/Users/stapi/OneDrive/Desktop/GD32VW553/V1_MQTT_OK/GD32VW55X_Wifi_BLE_SDK/GD32VW55x_RELEASE_V1.0.2/MSDK/cloud/alicloud/src/infra/system\guider.c ****         goto EXIT;
 2269              		.loc 1 778 9 is_stmt 0
 2270 03f4 9305E09B 		li	a1,-1602
 2271 03f8 7545     		li	a0,29
 2272              	.LVL230:
 2273 03fa 97000000 		call	iotx_state_event
 2273      E7800000 
 2274              	.LVL231:
 779:C:/Users/stapi/OneDrive/Desktop/GD32VW553/V1_MQTT_OK/GD32VW55X_Wifi_BLE_SDK/GD32VW55x_RELEASE_V1.0.2/MSDK/cloud/alicloud/src/infra/system\guider.c ****     }
 2275              		.loc 1 779 9 is_stmt 1
 2276 0402 81AA     		j	.L232
 2277              	.LVL232:
 2278              	.L96:
 2279              	.LBE126:
 2280              	.LBE125:
 2281              	.LBE120:
 2282              	.LBE119:
1362:C:/Users/stapi/OneDrive/Desktop/GD32VW553/V1_MQTT_OK/GD32VW55X_Wifi_BLE_SDK/GD32VW55x_RELEASE_V1.0.2/MSDK/cloud/alicloud/src/infra/system\guider.c ****         }
 2283              		.loc 1 1362 13
1362:C:/Users/stapi/OneDrive/Desktop/GD32VW553/V1_MQTT_OK/GD32VW55X_Wifi_BLE_SDK/GD32VW55x_RELEASE_V1.0.2/MSDK/cloud/alicloud/src/infra/system\guider.c ****         }
 2284              		.loc 1 1362 13
 2285 0404 37050000 		lui	a0,%hi(.LC24)
 2286 0408 13050500 		addi	a0,a0,%lo(.LC24)
 2287 040c 97000000 		call	HAL_Printf
 2287      E7800000 
 2288              	.LVL233:
1362:C:/Users/stapi/OneDrive/Desktop/GD32VW553/V1_MQTT_OK/GD32VW55X_Wifi_BLE_SDK/GD32VW55x_RELEASE_V1.0.2/MSDK/cloud/alicloud/src/infra/system\guider.c ****         }
 2289              		.loc 1 1362 13
 2290 0414 37050000 		lui	a0,%hi(.LC51)
 2291 0418 13050500 		addi	a0,a0,%lo(.LC51)
 2292 041c 97000000 		call	HAL_Printf
 2292      E7800000 
 2293              	.LVL234:
1362:C:/Users/stapi/OneDrive/Desktop/GD32VW553/V1_MQTT_OK/GD32VW55X_Wifi_BLE_SDK/GD32VW55x_RELEASE_V1.0.2/MSDK/cloud/alicloud/src/infra/system\guider.c ****         }
 2294              		.loc 1 1362 13
 2295 0424 13050A00 		addi	a0,s4,%lo(.LC17)
 2296 0428 97000000 		call	HAL_Printf
 2296      E7800000 
 2297              	.LVL235:
 2298 0430 F1BB     		j	.L94
 2299              	.LVL236:
 2300              	.L100:
 2301              	.LBB146:
 2302              	.LBB141:
1168:C:/Users/stapi/OneDrive/Desktop/GD32VW553/V1_MQTT_OK/GD32VW55X_Wifi_BLE_SDK/GD32VW55x_RELEASE_V1.0.2/MSDK/cloud/alicloud/src/infra/system\guider.c **** 
 2303              		.loc 1 1168 9
 2304 0432 37060000 		lui	a2,%hi(.LC55)
 2305 0436 13060600 		addi	a2,a2,%lo(.LC55)
 2306 043a 93050008 		li	a1,128
 2307 043e 4E85     		mv	a0,s3
 2308              	.LVL237:
 2309 0440 97000000 		call	HAL_Snprintf
 2309      E7800000 
 2310              	.LVL238:
1170:C:/Users/stapi/OneDrive/Desktop/GD32VW553/V1_MQTT_OK/GD32VW55X_Wifi_BLE_SDK/GD32VW55x_RELEASE_V1.0.2/MSDK/cloud/alicloud/src/infra/system\guider.c ****         if (!p_request_buf)
 2311              		.loc 1 1170 9
1170:C:/Users/stapi/OneDrive/Desktop/GD32VW553/V1_MQTT_OK/GD32VW55X_Wifi_BLE_SDK/GD32VW55x_RELEASE_V1.0.2/MSDK/cloud/alicloud/src/infra/system\guider.c ****         if (!p_request_buf)
 2312              		.loc 1 1170 25 is_stmt 0
 2313 0448 13060010 		li	a2,256
 2314 044c 8145     		li	a1,0
 2315 044e 0145     		li	a0,0
 2316 0450 97000000 		call	LITE_malloc_internal
 2316      E7800000 
 2317              	.LVL239:
 2318 0458 2A8A     		mv	s4,a0
 2319              	.LVL240:
1171:C:/Users/stapi/OneDrive/Desktop/GD32VW553/V1_MQTT_OK/GD32VW55X_Wifi_BLE_SDK/GD32VW55x_RELEASE_V1.0.2/MSDK/cloud/alicloud/src/infra/system\guider.c ****         {
 2320              		.loc 1 1171 9 is_stmt 1
1171:C:/Users/stapi/OneDrive/Desktop/GD32VW553/V1_MQTT_OK/GD32VW55X_Wifi_BLE_SDK/GD32VW55x_RELEASE_V1.0.2/MSDK/cloud/alicloud/src/infra/system\guider.c ****         {
 2321              		.loc 1 1171 12 is_stmt 0
 2322 045a 19E1     		bne	a0,zero,.L102
 2323              	.LVL241:
 2324              	.L234:
 2325              	.LBE141:
 2326              	.LBE146:
1330:C:/Users/stapi/OneDrive/Desktop/GD32VW553/V1_MQTT_OK/GD32VW55X_Wifi_BLE_SDK/GD32VW55x_RELEASE_V1.0.2/MSDK/cloud/alicloud/src/infra/system\guider.c ****         goto EXIT;
 2327              		.loc 1 1330 13
 2328 045c 7D5A     		li	s4,-1
 2329 045e 6DAC     		j	.L92
 2330              	.LVL242:
 2331              	.L102:
 2332              	.LBB147:
 2333              	.LBB142:
1176:C:/Users/stapi/OneDrive/Desktop/GD32VW553/V1_MQTT_OK/GD32VW55X_Wifi_BLE_SDK/GD32VW55x_RELEASE_V1.0.2/MSDK/cloud/alicloud/src/infra/system\guider.c **** 
 2334              		.loc 1 1176 9 is_stmt 1
 2335 0460 13060010 		li	a2,256
 2336 0464 8145     		li	a1,0
 2337 0466 97000000 		call	memset
 2337      E7800000 
 2338              	.LVL243:
1178:C:/Users/stapi/OneDrive/Desktop/GD32VW553/V1_MQTT_OK/GD32VW55X_Wifi_BLE_SDK/GD32VW55x_RELEASE_V1.0.2/MSDK/cloud/alicloud/src/infra/system\guider.c **** 
 2339              		.loc 1 1178 9
 2340              	.LBB134:
 2341              	.LBB135:
 681:C:/Users/stapi/OneDrive/Desktop/GD32VW553/V1_MQTT_OK/GD32VW55X_Wifi_BLE_SDK/GD32VW55x_RELEASE_V1.0.2/MSDK/cloud/alicloud/src/infra/system\guider.c **** 
 2342              		.loc 1 681 5
 683:C:/Users/stapi/OneDrive/Desktop/GD32VW553/V1_MQTT_OK/GD32VW55X_Wifi_BLE_SDK/GD32VW55x_RELEASE_V1.0.2/MSDK/cloud/alicloud/src/infra/system\guider.c ****                       "productKey=%s&"
 2343              		.loc 1 683 5
 683:C:/Users/stapi/OneDrive/Desktop/GD32VW553/V1_MQTT_OK/GD32VW55X_Wifi_BLE_SDK/GD32VW55x_RELEASE_V1.0.2/MSDK/cloud/alicloud/src/infra/system\guider.c ****                       "productKey=%s&"
 2344              		.loc 1 683 10 is_stmt 0
 2345 046e 37060000 		lui	a2,%hi(.LC56)
 2346 0472 93876403 		addi	a5,s1,54
 2347 0476 13088103 		addi	a6,sp,56
 2348              	.LVL244:
 2349 047a 13875401 		addi	a4,s1,21
 2350 047e A686     		mv	a3,s1
 2351 0480 13060600 		addi	a2,a2,%lo(.LC56)
 2352 0484 93050010 		li	a1,256
 2353 0488 5285     		mv	a0,s4
 2354 048a 97000000 		call	HAL_Snprintf
 2354      E7800000 
 2355              	.LVL245:
 691:C:/Users/stapi/OneDrive/Desktop/GD32VW553/V1_MQTT_OK/GD32VW55X_Wifi_BLE_SDK/GD32VW55x_RELEASE_V1.0.2/MSDK/cloud/alicloud/src/infra/system\guider.c **** 
 2356              		.loc 1 691 5 is_stmt 1
 691:C:/Users/stapi/OneDrive/Desktop/GD32VW553/V1_MQTT_OK/GD32VW55X_Wifi_BLE_SDK/GD32VW55x_RELEASE_V1.0.2/MSDK/cloud/alicloud/src/infra/system\guider.c **** 
 2357              		.loc 1 691 5
 2358 0492 9307F00F 		li	a5,255
 2359 0496 63D8A702 		ble	a0,a5,.L104
 691:C:/Users/stapi/OneDrive/Desktop/GD32VW553/V1_MQTT_OK/GD32VW55X_Wifi_BLE_SDK/GD32VW55x_RELEASE_V1.0.2/MSDK/cloud/alicloud/src/infra/system\guider.c **** 
 2360              		.loc 1 691 5
 2361 049a 37070000 		lui	a4,%hi(.LC57)
 2362 049e 37060000 		lui	a2,%hi(.LANCHOR12)
 2363 04a2 B7050000 		lui	a1,%hi(.LC45)
 2364 04a6 37050000 		lui	a0,%hi(.LC46)
 2365              	.LVL246:
 2366 04aa 13070700 		addi	a4,a4,%lo(.LC57)
 2367 04ae 9306302B 		li	a3,691
 2368 04b2 13060600 		addi	a2,a2,%lo(.LANCHOR12)
 2369 04b6 93850500 		addi	a1,a1,%lo(.LC45)
 2370 04ba 13050500 		addi	a0,a0,%lo(.LC46)
 2371 04be 97000000 		call	HAL_Printf
 2371      E7800000 
 2372              	.LVL247:
 2373              	.L104:
 691:C:/Users/stapi/OneDrive/Desktop/GD32VW553/V1_MQTT_OK/GD32VW55X_Wifi_BLE_SDK/GD32VW55x_RELEASE_V1.0.2/MSDK/cloud/alicloud/src/infra/system\guider.c **** 
 2374              		.loc 1 691 5
 693:C:/Users/stapi/OneDrive/Desktop/GD32VW553/V1_MQTT_OK/GD32VW55X_Wifi_BLE_SDK/GD32VW55x_RELEASE_V1.0.2/MSDK/cloud/alicloud/src/infra/system\guider.c **** }
 2375              		.loc 1 693 5
 2376              	.LBE135:
 2377              	.LBE134:
1180:C:/Users/stapi/OneDrive/Desktop/GD32VW553/V1_MQTT_OK/GD32VW55X_Wifi_BLE_SDK/GD32VW55x_RELEASE_V1.0.2/MSDK/cloud/alicloud/src/infra/system\guider.c ****     }
 2378              		.loc 1 1180 9
 2379 04c6 37070000 		lui	a4,%hi(.LC58)
 2380 04ca B7050000 		lui	a1,%hi(.LANCHOR13)
 2381 04ce 37050000 		lui	a0,%hi(.LC22)
 2382 04d2 D287     		mv	a5,s4
 2383 04d4 13070700 		addi	a4,a4,%lo(.LC58)
 2384 04d8 9546     		li	a3,5
 2385 04da 1306C049 		li	a2,1180
 2386 04de 93850500 		addi	a1,a1,%lo(.LANCHOR13)
 2387 04e2 13050500 		addi	a0,a0,%lo(.LC22)
 2388 04e6 97000000 		call	LITE_syslog
 2388      E7800000 
 2389              	.LVL248:
 2390 04ee 4DBB     		j	.L101
 2391              	.LVL249:
 2392              	.L107:
 2393              	.LBB137:
 2394              	.LBB131:
 2395              	.LBB130:
 2396              	.LBB129:
 528:C:/Users/stapi/OneDrive/Desktop/GD32VW553/V1_MQTT_OK/GD32VW55X_Wifi_BLE_SDK/GD32VW55x_RELEASE_V1.0.2/MSDK/cloud/alicloud/src/infra/system\guider.c ****         httpc_data.post_buf = (char *)request_string;
 2397              		.loc 1 528 38 is_stmt 0
 2398 04f0 B7070000 		lui	a5,%hi(.LC61)
 2399 04f4 93870700 		addi	a5,a5,%lo(.LC61)
 530:C:/Users/stapi/OneDrive/Desktop/GD32VW553/V1_MQTT_OK/GD32VW55X_Wifi_BLE_SDK/GD32VW55x_RELEASE_V1.0.2/MSDK/cloud/alicloud/src/infra/system\guider.c ****         ret = httpclient_common(&httpc, url, port_num, pkey, HTTPCLIENT_POST,
 2400              		.loc 1 530 35
 2401 04f8 5285     		mv	a0,s4
 2402 04fa 36D0     		sw	a3,32(sp)
 2403              	.LVL250:
 528:C:/Users/stapi/OneDrive/Desktop/GD32VW553/V1_MQTT_OK/GD32VW55X_Wifi_BLE_SDK/GD32VW55x_RELEASE_V1.0.2/MSDK/cloud/alicloud/src/infra/system\guider.c ****         httpc_data.post_buf = (char *)request_string;
 2404              		.loc 1 528 9 is_stmt 1
 528:C:/Users/stapi/OneDrive/Desktop/GD32VW553/V1_MQTT_OK/GD32VW55X_Wifi_BLE_SDK/GD32VW55x_RELEASE_V1.0.2/MSDK/cloud/alicloud/src/infra/system\guider.c ****         httpc_data.post_buf = (char *)request_string;
 2405              		.loc 1 528 38 is_stmt 0
 2406 04fc BED2     		sw	a5,100(sp)
 529:C:/Users/stapi/OneDrive/Desktop/GD32VW553/V1_MQTT_OK/GD32VW55X_Wifi_BLE_SDK/GD32VW55x_RELEASE_V1.0.2/MSDK/cloud/alicloud/src/infra/system\guider.c ****         httpc_data.post_buf_len = strlen(request_string);
 2407              		.loc 1 529 9 is_stmt 1
 529:C:/Users/stapi/OneDrive/Desktop/GD32VW553/V1_MQTT_OK/GD32VW55X_Wifi_BLE_SDK/GD32VW55x_RELEASE_V1.0.2/MSDK/cloud/alicloud/src/infra/system\guider.c ****         httpc_data.post_buf_len = strlen(request_string);
 2408              		.loc 1 529 29 is_stmt 0
 2409 04fe D2D4     		sw	s4,104(sp)
 530:C:/Users/stapi/OneDrive/Desktop/GD32VW553/V1_MQTT_OK/GD32VW55X_Wifi_BLE_SDK/GD32VW55x_RELEASE_V1.0.2/MSDK/cloud/alicloud/src/infra/system\guider.c ****         ret = httpclient_common(&httpc, url, port_num, pkey, HTTPCLIENT_POST,
 2410              		.loc 1 530 9 is_stmt 1
 530:C:/Users/stapi/OneDrive/Desktop/GD32VW553/V1_MQTT_OK/GD32VW55X_Wifi_BLE_SDK/GD32VW55x_RELEASE_V1.0.2/MSDK/cloud/alicloud/src/infra/system\guider.c ****         ret = httpclient_common(&httpc, url, port_num, pkey, HTTPCLIENT_POST,
 2411              		.loc 1 530 35 is_stmt 0
 2412 0500 97000000 		call	strlen
 2412      E7800000 
 2413              	.LVL251:
 531:C:/Users/stapi/OneDrive/Desktop/GD32VW553/V1_MQTT_OK/GD32VW55X_Wifi_BLE_SDK/GD32VW55x_RELEASE_V1.0.2/MSDK/cloud/alicloud/src/infra/system\guider.c ****                                 CONFIG_GUIDER_AUTH_TIMEOUT, &httpc_data);
 2414              		.loc 1 531 15
 2415 0508 8967     		li	a5,8192
 2416 050a 8256     		lw	a3,32(sp)
 530:C:/Users/stapi/OneDrive/Desktop/GD32VW553/V1_MQTT_OK/GD32VW55X_Wifi_BLE_SDK/GD32VW55x_RELEASE_V1.0.2/MSDK/cloud/alicloud/src/infra/system\guider.c ****         ret = httpclient_common(&httpc, url, port_num, pkey, HTTPCLIENT_POST,
 2417              		.loc 1 530 33
 2418 050c AACE     		sw	a0,92(sp)
 531:C:/Users/stapi/OneDrive/Desktop/GD32VW553/V1_MQTT_OK/GD32VW55X_Wifi_BLE_SDK/GD32VW55x_RELEASE_V1.0.2/MSDK/cloud/alicloud/src/infra/system\guider.c ****                                 CONFIG_GUIDER_AUTH_TIMEOUT, &httpc_data);
 2419              		.loc 1 531 9 is_stmt 1
 531:C:/Users/stapi/OneDrive/Desktop/GD32VW553/V1_MQTT_OK/GD32VW55X_Wifi_BLE_SDK/GD32VW55x_RELEASE_V1.0.2/MSDK/cloud/alicloud/src/infra/system\guider.c ****                                 CONFIG_GUIDER_AUTH_TIMEOUT, &httpc_data);
 2420              		.loc 1 531 15 is_stmt 0
 2421 050e 13088104 		addi	a6,sp,72
 2422 0512 93870771 		addi	a5,a5,1808
 2423 0516 0547     		li	a4,1
 2424 0518 81BD     		j	.L231
 2425              	.LVL252:
 2426              	.L109:
 2427 051a 2AD6     		sw	a0,44(sp)
 2428              	.LBE129:
 2429              	.LBE130:
 755:C:/Users/stapi/OneDrive/Desktop/GD32VW553/V1_MQTT_OK/GD32VW55X_Wifi_BLE_SDK/GD32VW55x_RELEASE_V1.0.2/MSDK/cloud/alicloud/src/infra/system\guider.c ****     LITE_free(pvalue);
 2430              		.loc 1 755 5 is_stmt 1
 755:C:/Users/stapi/OneDrive/Desktop/GD32VW553/V1_MQTT_OK/GD32VW55X_Wifi_BLE_SDK/GD32VW55x_RELEASE_V1.0.2/MSDK/cloud/alicloud/src/infra/system\guider.c ****     LITE_free(pvalue);
 2431              		.loc 1 755 16 is_stmt 0
 2432 051c 97000000 		call	atoi
 2432      E7800000 
 2433              	.LVL253:
 756:C:/Users/stapi/OneDrive/Desktop/GD32VW553/V1_MQTT_OK/GD32VW55X_Wifi_BLE_SDK/GD32VW55x_RELEASE_V1.0.2/MSDK/cloud/alicloud/src/infra/system\guider.c ****     pvalue = NULL;
 2434              		.loc 1 756 5
 2435 0524 B257     		lw	a5,44(sp)
 755:C:/Users/stapi/OneDrive/Desktop/GD32VW553/V1_MQTT_OK/GD32VW55X_Wifi_BLE_SDK/GD32VW55x_RELEASE_V1.0.2/MSDK/cloud/alicloud/src/infra/system\guider.c ****     LITE_free(pvalue);
 2436              		.loc 1 755 16
 2437 0526 2AD4     		sw	a0,40(sp)
 2438              	.LVL254:
 756:C:/Users/stapi/OneDrive/Desktop/GD32VW553/V1_MQTT_OK/GD32VW55X_Wifi_BLE_SDK/GD32VW55x_RELEASE_V1.0.2/MSDK/cloud/alicloud/src/infra/system\guider.c ****     pvalue = NULL;
 2439              		.loc 1 756 5 is_stmt 1
 2440 0528 3E85     		mv	a0,a5
 2441              	.LVL255:
 2442 052a 97000000 		call	LITE_free_internal
 2442      E7800000 
 2443              	.LVL256:
 757:C:/Users/stapi/OneDrive/Desktop/GD32VW553/V1_MQTT_OK/GD32VW55X_Wifi_BLE_SDK/GD32VW55x_RELEASE_V1.0.2/MSDK/cloud/alicloud/src/infra/system\guider.c **** 
 2444              		.loc 1 757 5
 759:C:/Users/stapi/OneDrive/Desktop/GD32VW553/V1_MQTT_OK/GD32VW55X_Wifi_BLE_SDK/GD32VW55x_RELEASE_V1.0.2/MSDK/cloud/alicloud/src/infra/system\guider.c ****     {
 2445              		.loc 1 759 5
 759:C:/Users/stapi/OneDrive/Desktop/GD32VW553/V1_MQTT_OK/GD32VW55X_Wifi_BLE_SDK/GD32VW55x_RELEASE_V1.0.2/MSDK/cloud/alicloud/src/infra/system\guider.c ****     {
 2446              		.loc 1 759 8 is_stmt 0
 2447 0532 A256     		lw	a3,40(sp)
 2448 0534 9307800C 		li	a5,200
 2449 0538 6386F608 		beq	a3,a5,.L111
 761:C:/Users/stapi/OneDrive/Desktop/GD32VW553/V1_MQTT_OK/GD32VW55X_Wifi_BLE_SDK/GD32VW55x_RELEASE_V1.0.2/MSDK/cloud/alicloud/src/infra/system\guider.c ****         goto EXIT;
 2450              		.loc 1 761 9 is_stmt 1
 2451 053c 37060000 		lui	a2,%hi(.LC66)
 2452 0540 13060600 		addi	a2,a2,%lo(.LC66)
 2453 0544 9305D09B 		li	a1,-1603
 2454 0548 7545     		li	a0,29
 2455 054a 97000000 		call	iotx_state_event
 2455      E7800000 
 2456              	.LVL257:
 2457              	.L232:
 762:C:/Users/stapi/OneDrive/Desktop/GD32VW553/V1_MQTT_OK/GD32VW55X_Wifi_BLE_SDK/GD32VW55x_RELEASE_V1.0.2/MSDK/cloud/alicloud/src/infra/system\guider.c ****     }
 2458              		.loc 1 762 9
 2459              	.LBE131:
 2460              	.LBE137:
1153:C:/Users/stapi/OneDrive/Desktop/GD32VW553/V1_MQTT_OK/GD32VW55X_Wifi_BLE_SDK/GD32VW55x_RELEASE_V1.0.2/MSDK/cloud/alicloud/src/infra/system\guider.c **** 
 2461              		.loc 1 1153 14 is_stmt 0
 2462 0552 930DB075 		li	s11,1883
 2463              	.LBB138:
 2464              	.LBB132:
 702:C:/Users/stapi/OneDrive/Desktop/GD32VW553/V1_MQTT_OK/GD32VW55X_Wifi_BLE_SDK/GD32VW55x_RELEASE_V1.0.2/MSDK/cloud/alicloud/src/infra/system\guider.c ****     int iotx_port = 443;
 2465              		.loc 1 702 9
 2466 0556 FD57     		li	a5,-1
 2467              	.LVL258:
 2468              	.L110:
 791:C:/Users/stapi/OneDrive/Desktop/GD32VW553/V1_MQTT_OK/GD32VW55X_Wifi_BLE_SDK/GD32VW55x_RELEASE_V1.0.2/MSDK/cloud/alicloud/src/infra/system\guider.c ****         iotx_payload = NULL;
 2469              		.loc 1 791 9
 2470 0558 5A85     		mv	a0,s6
 2471 055a 3ED4     		sw	a5,40(sp)
 2472              	.LVL259:
 789:C:/Users/stapi/OneDrive/Desktop/GD32VW553/V1_MQTT_OK/GD32VW55X_Wifi_BLE_SDK/GD32VW55x_RELEASE_V1.0.2/MSDK/cloud/alicloud/src/infra/system\guider.c ****     {
 2473              		.loc 1 789 5 is_stmt 1
 791:C:/Users/stapi/OneDrive/Desktop/GD32VW553/V1_MQTT_OK/GD32VW55X_Wifi_BLE_SDK/GD32VW55x_RELEASE_V1.0.2/MSDK/cloud/alicloud/src/infra/system\guider.c ****         iotx_payload = NULL;
 2474              		.loc 1 791 9
 2475 055c 97000000 		call	LITE_free_internal
 2475      E7800000 
 2476              	.LVL260:
 792:C:/Users/stapi/OneDrive/Desktop/GD32VW553/V1_MQTT_OK/GD32VW55X_Wifi_BLE_SDK/GD32VW55x_RELEASE_V1.0.2/MSDK/cloud/alicloud/src/infra/system\guider.c ****     }
 2477              		.loc 1 792 9
 794:C:/Users/stapi/OneDrive/Desktop/GD32VW553/V1_MQTT_OK/GD32VW55X_Wifi_BLE_SDK/GD32VW55x_RELEASE_V1.0.2/MSDK/cloud/alicloud/src/infra/system\guider.c ****     {
 2478              		.loc 1 794 5
 800:C:/Users/stapi/OneDrive/Desktop/GD32VW553/V1_MQTT_OK/GD32VW55X_Wifi_BLE_SDK/GD32VW55x_RELEASE_V1.0.2/MSDK/cloud/alicloud/src/infra/system\guider.c **** }
 2479              		.loc 1 800 5
 2480              	.LBE132:
 2481              	.LBE138:
1193:C:/Users/stapi/OneDrive/Desktop/GD32VW553/V1_MQTT_OK/GD32VW55X_Wifi_BLE_SDK/GD32VW55x_RELEASE_V1.0.2/MSDK/cloud/alicloud/src/infra/system\guider.c ****                                   p_iotx_conn_host, &iotx_conn_port))
 2482              		.loc 1 1193 8 is_stmt 0
 2483 0564 A257     		lw	a5,40(sp)
 2484 0566 EDCB     		beq	a5,zero,.L114
1196:C:/Users/stapi/OneDrive/Desktop/GD32VW553/V1_MQTT_OK/GD32VW55X_Wifi_BLE_SDK/GD32VW55x_RELEASE_V1.0.2/MSDK/cloud/alicloud/src/infra/system\guider.c ****         if (-1 != region_id)
 2485              		.loc 1 1196 9 is_stmt 1
1196:C:/Users/stapi/OneDrive/Desktop/GD32VW553/V1_MQTT_OK/GD32VW55X_Wifi_BLE_SDK/GD32VW55x_RELEASE_V1.0.2/MSDK/cloud/alicloud/src/infra/system\guider.c ****         if (-1 != region_id)
 2486              		.loc 1 1196 9
 2487 0568 37050000 		lui	a0,%hi(.LC18)
 2488 056c 13050500 		addi	a0,a0,%lo(.LC18)
 2489 0570 97000000 		call	HAL_Printf
 2489      E7800000 
 2490              	.LVL261:
1196:C:/Users/stapi/OneDrive/Desktop/GD32VW553/V1_MQTT_OK/GD32VW55X_Wifi_BLE_SDK/GD32VW55x_RELEASE_V1.0.2/MSDK/cloud/alicloud/src/infra/system\guider.c ****         if (-1 != region_id)
 2491              		.loc 1 1196 9
 2492 0578 37050000 		lui	a0,%hi(.LC71)
 2493 057c EA85     		mv	a1,s10
 2494 057e 13050500 		addi	a0,a0,%lo(.LC71)
 2495 0582 97000000 		call	HAL_Printf
 2495      E7800000 
 2496              	.LVL262:
1196:C:/Users/stapi/OneDrive/Desktop/GD32VW553/V1_MQTT_OK/GD32VW55X_Wifi_BLE_SDK/GD32VW55x_RELEASE_V1.0.2/MSDK/cloud/alicloud/src/infra/system\guider.c ****         if (-1 != region_id)
 2497              		.loc 1 1196 9
 2498 058a 8257     		lw	a5,32(sp)
 2499 058c 13850700 		addi	a0,a5,%lo(.LC17)
 2500 0590 97000000 		call	HAL_Printf
 2500      E7800000 
 2501              	.LVL263:
1196:C:/Users/stapi/OneDrive/Desktop/GD32VW553/V1_MQTT_OK/GD32VW55X_Wifi_BLE_SDK/GD32VW55x_RELEASE_V1.0.2/MSDK/cloud/alicloud/src/infra/system\guider.c ****         if (-1 != region_id)
 2502              		.loc 1 1196 9
1197:C:/Users/stapi/OneDrive/Desktop/GD32VW553/V1_MQTT_OK/GD32VW55X_Wifi_BLE_SDK/GD32VW55x_RELEASE_V1.0.2/MSDK/cloud/alicloud/src/infra/system\guider.c ****         {
 2503              		.loc 1 1197 9
1197:C:/Users/stapi/OneDrive/Desktop/GD32VW553/V1_MQTT_OK/GD32VW55X_Wifi_BLE_SDK/GD32VW55x_RELEASE_V1.0.2/MSDK/cloud/alicloud/src/infra/system\guider.c ****         {
 2504              		.loc 1 1197 12 is_stmt 0
 2505 0598 FD57     		li	a5,-1
 2506 059a 6306FD00 		beq	s10,a5,.L115
1200:C:/Users/stapi/OneDrive/Desktop/GD32VW553/V1_MQTT_OK/GD32VW55X_Wifi_BLE_SDK/GD32VW55x_RELEASE_V1.0.2/MSDK/cloud/alicloud/src/infra/system\guider.c ****         }
 2507              		.loc 1 1200 13 is_stmt 1
 2508 059e 97000000 		call	iotx_guider_clear_dynamic_url
 2508      E7800000 
 2509              	.LVL264:
 2510              	.L115:
1251:C:/Users/stapi/OneDrive/Desktop/GD32VW553/V1_MQTT_OK/GD32VW55X_Wifi_BLE_SDK/GD32VW55x_RELEASE_V1.0.2/MSDK/cloud/alicloud/src/infra/system\guider.c ****     {
 2511              		.loc 1 1251 5
1251:C:/Users/stapi/OneDrive/Desktop/GD32VW553/V1_MQTT_OK/GD32VW55X_Wifi_BLE_SDK/GD32VW55x_RELEASE_V1.0.2/MSDK/cloud/alicloud/src/infra/system\guider.c ****     {
 2512              		.loc 1 1251 8 is_stmt 0
 2513 05a6 63090A00 		beq	s4,zero,.L149
 2514              	.LVL265:
 2515              	.L148:
1253:C:/Users/stapi/OneDrive/Desktop/GD32VW553/V1_MQTT_OK/GD32VW55X_Wifi_BLE_SDK/GD32VW55x_RELEASE_V1.0.2/MSDK/cloud/alicloud/src/infra/system\guider.c ****     }
 2516              		.loc 1 1253 9 is_stmt 1
 2517 05aa 5285     		mv	a0,s4
 2518 05ac 97000000 		call	LITE_free_internal
 2518      E7800000 
 2519              	.LVL266:
1255:C:/Users/stapi/OneDrive/Desktop/GD32VW553/V1_MQTT_OK/GD32VW55X_Wifi_BLE_SDK/GD32VW55x_RELEASE_V1.0.2/MSDK/cloud/alicloud/src/infra/system\guider.c ****     {
 2520              		.loc 1 1255 5
1255:C:/Users/stapi/OneDrive/Desktop/GD32VW553/V1_MQTT_OK/GD32VW55X_Wifi_BLE_SDK/GD32VW55x_RELEASE_V1.0.2/MSDK/cloud/alicloud/src/infra/system\guider.c ****     {
 2521              		.loc 1 1255 8 is_stmt 0
 2522 05b4 E3040CEA 		beq	s8,zero,.L234
 2523              	.L149:
1257:C:/Users/stapi/OneDrive/Desktop/GD32VW553/V1_MQTT_OK/GD32VW55X_Wifi_BLE_SDK/GD32VW55x_RELEASE_V1.0.2/MSDK/cloud/alicloud/src/infra/system\guider.c ****     }
 2524              		.loc 1 1257 9 is_stmt 1
 2525 05b8 6285     		mv	a0,s8
 2526 05ba 97000000 		call	LITE_free_internal
 2526      E7800000 
 2527              	.LVL267:
 2528 05c2 69BD     		j	.L234
 2529              	.LVL268:
 2530              	.L111:
 2531              	.LBB139:
 2532              	.LBB133:
 765:C:/Users/stapi/OneDrive/Desktop/GD32VW553/V1_MQTT_OK/GD32VW55X_Wifi_BLE_SDK/GD32VW55x_RELEASE_V1.0.2/MSDK/cloud/alicloud/src/infra/system\guider.c ****     if (NULL == pvalue)
 2533              		.loc 1 765 5
 765:C:/Users/stapi/OneDrive/Desktop/GD32VW553/V1_MQTT_OK/GD32VW55X_Wifi_BLE_SDK/GD32VW55x_RELEASE_V1.0.2/MSDK/cloud/alicloud/src/infra/system\guider.c ****     if (NULL == pvalue)
 2534              		.loc 1 765 14 is_stmt 0
 2535 05c4 8567     		li	a5,4096
 2536 05c6 37050000 		lui	a0,%hi(.LC67)
 2537 05ca DA85     		mv	a1,s6
 2538 05cc 93860D00 		addi	a3,s11,%lo(.LC63)
 2539 05d0 13864723 		addi	a2,a5,564
 2540 05d4 13050500 		addi	a0,a0,%lo(.LC67)
 2541 05d8 97000000 		call	LITE_json_value_of
 2541      E7800000 
 2542              	.LVL269:
 2543 05e0 AA85     		mv	a1,a0
 2544              	.LVL270:
 766:C:/Users/stapi/OneDrive/Desktop/GD32VW553/V1_MQTT_OK/GD32VW55X_Wifi_BLE_SDK/GD32VW55x_RELEASE_V1.0.2/MSDK/cloud/alicloud/src/infra/system\guider.c ****     {
 2545              		.loc 1 766 5 is_stmt 1
 766:C:/Users/stapi/OneDrive/Desktop/GD32VW553/V1_MQTT_OK/GD32VW55X_Wifi_BLE_SDK/GD32VW55x_RELEASE_V1.0.2/MSDK/cloud/alicloud/src/infra/system\guider.c ****     {
 2546              		.loc 1 766 8 is_stmt 0
 2547 05e2 11E5     		bne	a0,zero,.L112
 768:C:/Users/stapi/OneDrive/Desktop/GD32VW553/V1_MQTT_OK/GD32VW55X_Wifi_BLE_SDK/GD32VW55x_RELEASE_V1.0.2/MSDK/cloud/alicloud/src/infra/system\guider.c ****         goto EXIT;
 2548              		.loc 1 768 9 is_stmt 1
 2549 05e4 37060000 		lui	a2,%hi(.LC68)
 2550 05e8 13060600 		addi	a2,a2,%lo(.LC68)
 2551 05ec 21B5     		j	.L235
 2552              	.L112:
 771:C:/Users/stapi/OneDrive/Desktop/GD32VW553/V1_MQTT_OK/GD32VW55X_Wifi_BLE_SDK/GD32VW55x_RELEASE_V1.0.2/MSDK/cloud/alicloud/src/infra/system\guider.c ****     LITE_free(pvalue);
 2553              		.loc 1 771 5
 2554 05ee 2AD4     		sw	a0,40(sp)
 2555              	.LVL271:
 2556 05f0 6285     		mv	a0,s8
 2557              	.LVL272:
 2558 05f2 97000000 		call	strcpy
 2558      E7800000 
 2559              	.LVL273:
 772:C:/Users/stapi/OneDrive/Desktop/GD32VW553/V1_MQTT_OK/GD32VW55X_Wifi_BLE_SDK/GD32VW55x_RELEASE_V1.0.2/MSDK/cloud/alicloud/src/infra/system\guider.c ****     pvalue = NULL;
 2560              		.loc 1 772 5
 2561 05fa A255     		lw	a1,40(sp)
 2562 05fc 2E85     		mv	a0,a1
 2563 05fe 97000000 		call	LITE_free_internal
 2563      E7800000 
 2564              	.LVL274:
 773:C:/Users/stapi/OneDrive/Desktop/GD32VW553/V1_MQTT_OK/GD32VW55X_Wifi_BLE_SDK/GD32VW55x_RELEASE_V1.0.2/MSDK/cloud/alicloud/src/infra/system\guider.c **** 
 2565              		.loc 1 773 5
 775:C:/Users/stapi/OneDrive/Desktop/GD32VW553/V1_MQTT_OK/GD32VW55X_Wifi_BLE_SDK/GD32VW55x_RELEASE_V1.0.2/MSDK/cloud/alicloud/src/infra/system\guider.c ****     if (NULL == pvalue)
 2566              		.loc 1 775 5
 775:C:/Users/stapi/OneDrive/Desktop/GD32VW553/V1_MQTT_OK/GD32VW55X_Wifi_BLE_SDK/GD32VW55x_RELEASE_V1.0.2/MSDK/cloud/alicloud/src/infra/system\guider.c ****     if (NULL == pvalue)
 2567              		.loc 1 775 14 is_stmt 0
 2568 0606 8567     		li	a5,4096
 2569 0608 37050000 		lui	a0,%hi(.LC69)
 2570 060c 93860D00 		addi	a3,s11,%lo(.LC63)
 2571 0610 13864723 		addi	a2,a5,564
 2572 0614 DA85     		mv	a1,s6
 2573 0616 13050500 		addi	a0,a0,%lo(.LC69)
 2574 061a 97000000 		call	LITE_json_value_of
 2574      E7800000 
 2575              	.LVL275:
 2576 0622 AA8D     		mv	s11,a0
 2577              	.LVL276:
 776:C:/Users/stapi/OneDrive/Desktop/GD32VW553/V1_MQTT_OK/GD32VW55X_Wifi_BLE_SDK/GD32VW55x_RELEASE_V1.0.2/MSDK/cloud/alicloud/src/infra/system\guider.c ****     {
 2578              		.loc 1 776 5 is_stmt 1
 776:C:/Users/stapi/OneDrive/Desktop/GD32VW553/V1_MQTT_OK/GD32VW55X_Wifi_BLE_SDK/GD32VW55x_RELEASE_V1.0.2/MSDK/cloud/alicloud/src/infra/system\guider.c ****     {
 2579              		.loc 1 776 8 is_stmt 0
 2580 0624 11E5     		bne	a0,zero,.L113
 778:C:/Users/stapi/OneDrive/Desktop/GD32VW553/V1_MQTT_OK/GD32VW55X_Wifi_BLE_SDK/GD32VW55x_RELEASE_V1.0.2/MSDK/cloud/alicloud/src/infra/system\guider.c ****         goto EXIT;
 2581              		.loc 1 778 9 is_stmt 1
 2582 0626 37060000 		lui	a2,%hi(.LC70)
 2583 062a 13060600 		addi	a2,a2,%lo(.LC70)
 2584 062e D9B3     		j	.L235
 2585              	.L113:
 781:C:/Users/stapi/OneDrive/Desktop/GD32VW553/V1_MQTT_OK/GD32VW55X_Wifi_BLE_SDK/GD32VW55x_RELEASE_V1.0.2/MSDK/cloud/alicloud/src/infra/system\guider.c ****     LITE_free(pvalue);
 2586              		.loc 1 781 5
 2587 0630 AA85     		mv	a1,a0
 2588 0632 8818     		addi	a0,sp,112
 2589              	.LVL277:
 2590 0634 97000000 		call	strcpy
 2590      E7800000 
 2591              	.LVL278:
 782:C:/Users/stapi/OneDrive/Desktop/GD32VW553/V1_MQTT_OK/GD32VW55X_Wifi_BLE_SDK/GD32VW55x_RELEASE_V1.0.2/MSDK/cloud/alicloud/src/infra/system\guider.c ****     pvalue = NULL;
 2592              		.loc 1 782 5
 2593 063c 6E85     		mv	a0,s11
 2594 063e 97000000 		call	LITE_free_internal
 2594      E7800000 
 2595              	.LVL279:
 783:C:/Users/stapi/OneDrive/Desktop/GD32VW553/V1_MQTT_OK/GD32VW55X_Wifi_BLE_SDK/GD32VW55x_RELEASE_V1.0.2/MSDK/cloud/alicloud/src/infra/system\guider.c ****     *pport = atoi(port_str);
 2596              		.loc 1 783 5
 784:C:/Users/stapi/OneDrive/Desktop/GD32VW553/V1_MQTT_OK/GD32VW55X_Wifi_BLE_SDK/GD32VW55x_RELEASE_V1.0.2/MSDK/cloud/alicloud/src/infra/system\guider.c **** 
 2597              		.loc 1 784 5
 784:C:/Users/stapi/OneDrive/Desktop/GD32VW553/V1_MQTT_OK/GD32VW55X_Wifi_BLE_SDK/GD32VW55x_RELEASE_V1.0.2/MSDK/cloud/alicloud/src/infra/system\guider.c **** 
 2598              		.loc 1 784 14 is_stmt 0
 2599 0646 8818     		addi	a0,sp,112
 2600 0648 97000000 		call	atoi
 2600      E7800000 
 2601              	.LVL280:
 786:C:/Users/stapi/OneDrive/Desktop/GD32VW553/V1_MQTT_OK/GD32VW55X_Wifi_BLE_SDK/GD32VW55x_RELEASE_V1.0.2/MSDK/cloud/alicloud/src/infra/system\guider.c **** 
 2602              		.loc 1 786 9
 2603 0650 8147     		li	a5,0
 784:C:/Users/stapi/OneDrive/Desktop/GD32VW553/V1_MQTT_OK/GD32VW55X_Wifi_BLE_SDK/GD32VW55x_RELEASE_V1.0.2/MSDK/cloud/alicloud/src/infra/system\guider.c **** 
 2604              		.loc 1 784 12
 2605 0652 B34D0508 		zext.h	s11,a0
 2606              	.LVL281:
 786:C:/Users/stapi/OneDrive/Desktop/GD32VW553/V1_MQTT_OK/GD32VW55X_Wifi_BLE_SDK/GD32VW55x_RELEASE_V1.0.2/MSDK/cloud/alicloud/src/infra/system\guider.c **** 
 2607              		.loc 1 786 5 is_stmt 1
 2608 0656 09B7     		j	.L110
 2609              	.LVL282:
 2610              	.L114:
 2611              	.LBE133:
 2612              	.LBE139:
1205:C:/Users/stapi/OneDrive/Desktop/GD32VW553/V1_MQTT_OK/GD32VW55X_Wifi_BLE_SDK/GD32VW55x_RELEASE_V1.0.2/MSDK/cloud/alicloud/src/infra/system\guider.c ****     if (!p_mqtt_url)
 2613              		.loc 1 1205 5
1205:C:/Users/stapi/OneDrive/Desktop/GD32VW553/V1_MQTT_OK/GD32VW55X_Wifi_BLE_SDK/GD32VW55x_RELEASE_V1.0.2/MSDK/cloud/alicloud/src/infra/system\guider.c ****     if (!p_mqtt_url)
 2614              		.loc 1 1205 18 is_stmt 0
 2615 0658 13060008 		li	a2,128
 2616 065c 8145     		li	a1,0
 2617 065e 0145     		li	a0,0
 2618 0660 97000000 		call	LITE_malloc_internal
 2618      E7800000 
 2619              	.LVL283:
 2620 0668 2A8B     		mv	s6,a0
 2621              	.LVL284:
1206:C:/Users/stapi/OneDrive/Desktop/GD32VW553/V1_MQTT_OK/GD32VW55X_Wifi_BLE_SDK/GD32VW55x_RELEASE_V1.0.2/MSDK/cloud/alicloud/src/infra/system\guider.c ****     {
 2622              		.loc 1 1206 5 is_stmt 1
1206:C:/Users/stapi/OneDrive/Desktop/GD32VW553/V1_MQTT_OK/GD32VW55X_Wifi_BLE_SDK/GD32VW55x_RELEASE_V1.0.2/MSDK/cloud/alicloud/src/infra/system\guider.c ****     {
 2623              		.loc 1 1206 8 is_stmt 0
 2624 066a 0DE9     		bne	a0,zero,.L116
1208:C:/Users/stapi/OneDrive/Desktop/GD32VW553/V1_MQTT_OK/GD32VW55X_Wifi_BLE_SDK/GD32VW55x_RELEASE_V1.0.2/MSDK/cloud/alicloud/src/infra/system\guider.c ****         goto EXIT;
 2625              		.loc 1 1208 9 is_stmt 1
1208:C:/Users/stapi/OneDrive/Desktop/GD32VW553/V1_MQTT_OK/GD32VW55X_Wifi_BLE_SDK/GD32VW55x_RELEASE_V1.0.2/MSDK/cloud/alicloud/src/infra/system\guider.c ****         goto EXIT;
 2626              		.loc 1 1208 9
 2627 066c 37050000 		lui	a0,%hi(.LC18)
 2628              	.LVL285:
 2629 0670 13050500 		addi	a0,a0,%lo(.LC18)
 2630 0674 97000000 		call	HAL_Printf
 2630      E7800000 
 2631              	.LVL286:
1208:C:/Users/stapi/OneDrive/Desktop/GD32VW553/V1_MQTT_OK/GD32VW55X_Wifi_BLE_SDK/GD32VW55x_RELEASE_V1.0.2/MSDK/cloud/alicloud/src/infra/system\guider.c ****         goto EXIT;
 2632              		.loc 1 1208 9
 2633 067c 37050000 		lui	a0,%hi(.LC35)
 2634 0680 13050500 		addi	a0,a0,%lo(.LC35)
 2635 0684 97000000 		call	HAL_Printf
 2635      E7800000 
 2636              	.LVL287:
1208:C:/Users/stapi/OneDrive/Desktop/GD32VW553/V1_MQTT_OK/GD32VW55X_Wifi_BLE_SDK/GD32VW55x_RELEASE_V1.0.2/MSDK/cloud/alicloud/src/infra/system\guider.c ****         goto EXIT;
 2637              		.loc 1 1208 9
 2638 068c 8257     		lw	a5,32(sp)
 2639 068e 13850700 		addi	a0,a5,%lo(.LC17)
 2640 0692 97000000 		call	HAL_Printf
 2640      E7800000 
 2641              	.LVL288:
1208:C:/Users/stapi/OneDrive/Desktop/GD32VW553/V1_MQTT_OK/GD32VW55X_Wifi_BLE_SDK/GD32VW55x_RELEASE_V1.0.2/MSDK/cloud/alicloud/src/infra/system\guider.c ****         goto EXIT;
 2642              		.loc 1 1208 9
1209:C:/Users/stapi/OneDrive/Desktop/GD32VW553/V1_MQTT_OK/GD32VW55X_Wifi_BLE_SDK/GD32VW55x_RELEASE_V1.0.2/MSDK/cloud/alicloud/src/infra/system\guider.c ****     }
 2643              		.loc 1 1209 9
 2644 069a 31B7     		j	.L115
 2645              	.LVL289:
 2646              	.L116:
1212:C:/Users/stapi/OneDrive/Desktop/GD32VW553/V1_MQTT_OK/GD32VW55X_Wifi_BLE_SDK/GD32VW55x_RELEASE_V1.0.2/MSDK/cloud/alicloud/src/infra/system\guider.c ****     HAL_Snprintf(p_mqtt_url, GUIDER_URL_LEN, "%s:%d", p_iotx_conn_host, iotx_conn_port);
 2647              		.loc 1 1212 5
 2648 069c 13060008 		li	a2,128
 2649 06a0 8145     		li	a1,0
 2650 06a2 97000000 		call	memset
 2650      E7800000 
 2651              	.LVL290:
1213:C:/Users/stapi/OneDrive/Desktop/GD32VW553/V1_MQTT_OK/GD32VW55X_Wifi_BLE_SDK/GD32VW55x_RELEASE_V1.0.2/MSDK/cloud/alicloud/src/infra/system\guider.c **** 
 2652              		.loc 1 1213 5
 2653 06aa 37060000 		lui	a2,%hi(.LC37)
 2654 06ae 6E87     		mv	a4,s11
 2655 06b0 E286     		mv	a3,s8
 2656 06b2 13060600 		addi	a2,a2,%lo(.LC37)
 2657 06b6 93050008 		li	a1,128
 2658 06ba 5A85     		mv	a0,s6
 2659 06bc 97000000 		call	HAL_Snprintf
 2659      E7800000 
 2660              	.LVL291:
1215:C:/Users/stapi/OneDrive/Desktop/GD32VW553/V1_MQTT_OK/GD32VW55X_Wifi_BLE_SDK/GD32VW55x_RELEASE_V1.0.2/MSDK/cloud/alicloud/src/infra/system\guider.c ****     {
 2661              		.loc 1 1215 5
1215:C:/Users/stapi/OneDrive/Desktop/GD32VW553/V1_MQTT_OK/GD32VW55X_Wifi_BLE_SDK/GD32VW55x_RELEASE_V1.0.2/MSDK/cloud/alicloud/src/infra/system\guider.c ****     {
 2662              		.loc 1 1215 14 is_stmt 0
 2663 06c4 5A85     		mv	a0,s6
 2664 06c6 97000000 		call	iotx_guider_set_dynamic_mqtt_url
 2664      E7800000 
 2665              	.LVL292:
1215:C:/Users/stapi/OneDrive/Desktop/GD32VW553/V1_MQTT_OK/GD32VW55X_Wifi_BLE_SDK/GD32VW55x_RELEASE_V1.0.2/MSDK/cloud/alicloud/src/infra/system\guider.c ****     {
 2666              		.loc 1 1215 8
 2667 06ce 09ED     		bne	a0,zero,.L117
1217:C:/Users/stapi/OneDrive/Desktop/GD32VW553/V1_MQTT_OK/GD32VW55X_Wifi_BLE_SDK/GD32VW55x_RELEASE_V1.0.2/MSDK/cloud/alicloud/src/infra/system\guider.c ****         if (-1 != region_id)
 2668              		.loc 1 1217 9 is_stmt 1
1217:C:/Users/stapi/OneDrive/Desktop/GD32VW553/V1_MQTT_OK/GD32VW55X_Wifi_BLE_SDK/GD32VW55x_RELEASE_V1.0.2/MSDK/cloud/alicloud/src/infra/system\guider.c ****         if (-1 != region_id)
 2669              		.loc 1 1217 31 is_stmt 0
 2670 06d0 E247     		lw	a5,24(sp)
 2671 06d2 0547     		li	a4,1
1218:C:/Users/stapi/OneDrive/Desktop/GD32VW553/V1_MQTT_OK/GD32VW55X_Wifi_BLE_SDK/GD32VW55x_RELEASE_V1.0.2/MSDK/cloud/alicloud/src/infra/system\guider.c ****         {
 2672              		.loc 1 1218 12
 2673 06d4 FD56     		li	a3,-1
1217:C:/Users/stapi/OneDrive/Desktop/GD32VW553/V1_MQTT_OK/GD32VW55X_Wifi_BLE_SDK/GD32VW55x_RELEASE_V1.0.2/MSDK/cloud/alicloud/src/infra/system\guider.c ****         if (-1 != region_id)
 2674              		.loc 1 1217 31
 2675 06d6 98C3     		sw	a4,0(a5)
1218:C:/Users/stapi/OneDrive/Desktop/GD32VW553/V1_MQTT_OK/GD32VW55X_Wifi_BLE_SDK/GD32VW55x_RELEASE_V1.0.2/MSDK/cloud/alicloud/src/infra/system\guider.c ****         {
 2676              		.loc 1 1218 9 is_stmt 1
 2677 06d8 B7070000 		lui	a5,%hi(.LANCHOR11)
 2678 06dc 93870700 		addi	a5,a5,%lo(.LANCHOR11)
1218:C:/Users/stapi/OneDrive/Desktop/GD32VW553/V1_MQTT_OK/GD32VW55X_Wifi_BLE_SDK/GD32VW55x_RELEASE_V1.0.2/MSDK/cloud/alicloud/src/infra/system\guider.c ****         {
 2679              		.loc 1 1218 12 is_stmt 0
 2680 06e0 630DDD08 		beq	s10,a3,.L118
1220:C:/Users/stapi/OneDrive/Desktop/GD32VW553/V1_MQTT_OK/GD32VW55X_Wifi_BLE_SDK/GD32VW55x_RELEASE_V1.0.2/MSDK/cloud/alicloud/src/infra/system\guider.c ****         }
 2681              		.loc 1 1220 13 is_stmt 1
1220:C:/Users/stapi/OneDrive/Desktop/GD32VW553/V1_MQTT_OK/GD32VW55X_Wifi_BLE_SDK/GD32VW55x_RELEASE_V1.0.2/MSDK/cloud/alicloud/src/infra/system\guider.c ****         }
 2682              		.loc 1 1220 46 is_stmt 0
 2683 06e4 2380E700 		sb	a4,0(a5)
 2684              	.L117:
1228:C:/Users/stapi/OneDrive/Desktop/GD32VW553/V1_MQTT_OK/GD32VW55X_Wifi_BLE_SDK/GD32VW55x_RELEASE_V1.0.2/MSDK/cloud/alicloud/src/infra/system\guider.c ****     {
 2685              		.loc 1 1228 5 is_stmt 1
1228:C:/Users/stapi/OneDrive/Desktop/GD32VW553/V1_MQTT_OK/GD32VW55X_Wifi_BLE_SDK/GD32VW55x_RELEASE_V1.0.2/MSDK/cloud/alicloud/src/infra/system\guider.c ****     {
 2686              		.loc 1 1228 8 is_stmt 0
 2687 06e8 63070A00 		beq	s4,zero,.L119
1230:C:/Users/stapi/OneDrive/Desktop/GD32VW553/V1_MQTT_OK/GD32VW55X_Wifi_BLE_SDK/GD32VW55x_RELEASE_V1.0.2/MSDK/cloud/alicloud/src/infra/system\guider.c ****     }
 2688              		.loc 1 1230 9 is_stmt 1
 2689 06ec 5285     		mv	a0,s4
 2690 06ee 97000000 		call	LITE_free_internal
 2690      E7800000 
 2691              	.LVL293:
 2692              	.L119:
1232:C:/Users/stapi/OneDrive/Desktop/GD32VW553/V1_MQTT_OK/GD32VW55X_Wifi_BLE_SDK/GD32VW55x_RELEASE_V1.0.2/MSDK/cloud/alicloud/src/infra/system\guider.c ****     {
 2693              		.loc 1 1232 5
1234:C:/Users/stapi/OneDrive/Desktop/GD32VW553/V1_MQTT_OK/GD32VW55X_Wifi_BLE_SDK/GD32VW55x_RELEASE_V1.0.2/MSDK/cloud/alicloud/src/infra/system\guider.c ****     }
 2694              		.loc 1 1234 9
 2695 06f6 6285     		mv	a0,s8
 2696 06f8 97000000 		call	LITE_free_internal
 2696      E7800000 
 2697              	.LVL294:
1236:C:/Users/stapi/OneDrive/Desktop/GD32VW553/V1_MQTT_OK/GD32VW55X_Wifi_BLE_SDK/GD32VW55x_RELEASE_V1.0.2/MSDK/cloud/alicloud/src/infra/system\guider.c ****     {
 2698              		.loc 1 1236 5
1238:C:/Users/stapi/OneDrive/Desktop/GD32VW553/V1_MQTT_OK/GD32VW55X_Wifi_BLE_SDK/GD32VW55x_RELEASE_V1.0.2/MSDK/cloud/alicloud/src/infra/system\guider.c ****     }
 2699              		.loc 1 1238 9
 2700 0700 5A85     		mv	a0,s6
 2701 0702 97000000 		call	LITE_free_internal
 2701      E7800000 
 2702              	.LVL295:
1241:C:/Users/stapi/OneDrive/Desktop/GD32VW553/V1_MQTT_OK/GD32VW55X_Wifi_BLE_SDK/GD32VW55x_RELEASE_V1.0.2/MSDK/cloud/alicloud/src/infra/system\guider.c ****     {
 2703              		.loc 1 1241 5
1241:C:/Users/stapi/OneDrive/Desktop/GD32VW553/V1_MQTT_OK/GD32VW55X_Wifi_BLE_SDK/GD32VW55x_RELEASE_V1.0.2/MSDK/cloud/alicloud/src/infra/system\guider.c ****     {
 2704              		.loc 1 1241 8 is_stmt 0
 2705 070a E247     		lw	a5,24(sp)
1243:C:/Users/stapi/OneDrive/Desktop/GD32VW553/V1_MQTT_OK/GD32VW55X_Wifi_BLE_SDK/GD32VW55x_RELEASE_V1.0.2/MSDK/cloud/alicloud/src/infra/system\guider.c ****     }
 2706              		.loc 1 1243 16
 2707 070c 130A8069 		li	s4,1688
 2708              	.LVL296:
1241:C:/Users/stapi/OneDrive/Desktop/GD32VW553/V1_MQTT_OK/GD32VW55X_Wifi_BLE_SDK/GD32VW55x_RELEASE_V1.0.2/MSDK/cloud/alicloud/src/infra/system\guider.c ****     {
 2709              		.loc 1 1241 8
 2710 0710 9843     		lw	a4,0(a5)
 2711 0712 8547     		li	a5,1
 2712 0714 E314F7D4 		bne	a4,a5,.L234
 2713              	.LVL297:
 2714              	.L92:
 2715              	.LBE142:
 2716              	.LBE147:
1385:C:/Users/stapi/OneDrive/Desktop/GD32VW553/V1_MQTT_OK/GD32VW55X_Wifi_BLE_SDK/GD32VW55x_RELEASE_V1.0.2/MSDK/cloud/alicloud/src/infra/system\guider.c ****     {
 2717              		.loc 1 1385 5 is_stmt 1
1387:C:/Users/stapi/OneDrive/Desktop/GD32VW553/V1_MQTT_OK/GD32VW55X_Wifi_BLE_SDK/GD32VW55x_RELEASE_V1.0.2/MSDK/cloud/alicloud/src/infra/system\guider.c ****     }
 2718              		.loc 1 1387 9
 2719 0718 6685     		mv	a0,s9
 2720 071a 97000000 		call	LITE_free_internal
 2720      E7800000 
 2721              	.LVL298:
1389:C:/Users/stapi/OneDrive/Desktop/GD32VW553/V1_MQTT_OK/GD32VW55X_Wifi_BLE_SDK/GD32VW55x_RELEASE_V1.0.2/MSDK/cloud/alicloud/src/infra/system\guider.c ****     {
 2722              		.loc 1 1389 5
1389:C:/Users/stapi/OneDrive/Desktop/GD32VW553/V1_MQTT_OK/GD32VW55X_Wifi_BLE_SDK/GD32VW55x_RELEASE_V1.0.2/MSDK/cloud/alicloud/src/infra/system\guider.c ****     {
 2723              		.loc 1 1389 8 is_stmt 0
 2724 0722 63870B00 		beq	s7,zero,.L147
1391:C:/Users/stapi/OneDrive/Desktop/GD32VW553/V1_MQTT_OK/GD32VW55X_Wifi_BLE_SDK/GD32VW55x_RELEASE_V1.0.2/MSDK/cloud/alicloud/src/infra/system\guider.c ****     }
 2725              		.loc 1 1391 9 is_stmt 1
 2726 0726 5E85     		mv	a0,s7
 2727 0728 97000000 		call	LITE_free_internal
 2727      E7800000 
 2728              	.LVL299:
 2729              	.L147:
1393:C:/Users/stapi/OneDrive/Desktop/GD32VW553/V1_MQTT_OK/GD32VW55X_Wifi_BLE_SDK/GD32VW55x_RELEASE_V1.0.2/MSDK/cloud/alicloud/src/infra/system\guider.c ****     {
 2730              		.loc 1 1393 5
1393:C:/Users/stapi/OneDrive/Desktop/GD32VW553/V1_MQTT_OK/GD32VW55X_Wifi_BLE_SDK/GD32VW55x_RELEASE_V1.0.2/MSDK/cloud/alicloud/src/infra/system\guider.c ****     {
 2731              		.loc 1 1393 8 is_stmt 0
 2732 0730 91C4     		beq	s1,zero,.L141
1395:C:/Users/stapi/OneDrive/Desktop/GD32VW553/V1_MQTT_OK/GD32VW55X_Wifi_BLE_SDK/GD32VW55x_RELEASE_V1.0.2/MSDK/cloud/alicloud/src/infra/system\guider.c ****     }
 2733              		.loc 1 1395 9 is_stmt 1
 2734 0732 2685     		mv	a0,s1
 2735 0734 97000000 		call	LITE_free_internal
 2735      E7800000 
 2736              	.LVL300:
 2737              	.L141:
1397:C:/Users/stapi/OneDrive/Desktop/GD32VW553/V1_MQTT_OK/GD32VW55X_Wifi_BLE_SDK/GD32VW55x_RELEASE_V1.0.2/MSDK/cloud/alicloud/src/infra/system\guider.c ****     {
 2738              		.loc 1 1397 5
1397:C:/Users/stapi/OneDrive/Desktop/GD32VW553/V1_MQTT_OK/GD32VW55X_Wifi_BLE_SDK/GD32VW55x_RELEASE_V1.0.2/MSDK/cloud/alicloud/src/infra/system\guider.c ****     {
 2739              		.loc 1 1397 8 is_stmt 0
 2740 073c 63870A00 		beq	s5,zero,.L91
1399:C:/Users/stapi/OneDrive/Desktop/GD32VW553/V1_MQTT_OK/GD32VW55X_Wifi_BLE_SDK/GD32VW55x_RELEASE_V1.0.2/MSDK/cloud/alicloud/src/infra/system\guider.c ****     }
 2741              		.loc 1 1399 9 is_stmt 1
 2742 0740 5685     		mv	a0,s5
 2743 0742 97000000 		call	LITE_free_internal
 2743      E7800000 
 2744              	.LVL301:
 2745              	.L91:
1401:C:/Users/stapi/OneDrive/Desktop/GD32VW553/V1_MQTT_OK/GD32VW55X_Wifi_BLE_SDK/GD32VW55x_RELEASE_V1.0.2/MSDK/cloud/alicloud/src/infra/system\guider.c ****     {
 2746              		.loc 1 1401 5
1401:C:/Users/stapi/OneDrive/Desktop/GD32VW553/V1_MQTT_OK/GD32VW55X_Wifi_BLE_SDK/GD32VW55x_RELEASE_V1.0.2/MSDK/cloud/alicloud/src/infra/system\guider.c ****     {
 2747              		.loc 1 1401 8 is_stmt 0
 2748 074a 63870900 		beq	s3,zero,.L142
1403:C:/Users/stapi/OneDrive/Desktop/GD32VW553/V1_MQTT_OK/GD32VW55X_Wifi_BLE_SDK/GD32VW55x_RELEASE_V1.0.2/MSDK/cloud/alicloud/src/infra/system\guider.c ****     }
 2749              		.loc 1 1403 9 is_stmt 1
 2750 074e 4E85     		mv	a0,s3
 2751 0750 97000000 		call	LITE_free_internal
 2751      E7800000 
 2752              	.LVL302:
 2753              	.L142:
1405:C:/Users/stapi/OneDrive/Desktop/GD32VW553/V1_MQTT_OK/GD32VW55X_Wifi_BLE_SDK/GD32VW55x_RELEASE_V1.0.2/MSDK/cloud/alicloud/src/infra/system\guider.c ****     {
 2754              		.loc 1 1405 5
1405:C:/Users/stapi/OneDrive/Desktop/GD32VW553/V1_MQTT_OK/GD32VW55X_Wifi_BLE_SDK/GD32VW55x_RELEASE_V1.0.2/MSDK/cloud/alicloud/src/infra/system\guider.c ****     {
 2755              		.loc 1 1405 8 is_stmt 0
 2756 0758 63070900 		beq	s2,zero,.L143
1407:C:/Users/stapi/OneDrive/Desktop/GD32VW553/V1_MQTT_OK/GD32VW55X_Wifi_BLE_SDK/GD32VW55x_RELEASE_V1.0.2/MSDK/cloud/alicloud/src/infra/system\guider.c ****     }
 2757              		.loc 1 1407 9 is_stmt 1
 2758 075c 4A85     		mv	a0,s2
 2759 075e 97000000 		call	LITE_free_internal
 2759      E7800000 
 2760              	.LVL303:
 2761              	.L143:
1410:C:/Users/stapi/OneDrive/Desktop/GD32VW553/V1_MQTT_OK/GD32VW55X_Wifi_BLE_SDK/GD32VW55x_RELEASE_V1.0.2/MSDK/cloud/alicloud/src/infra/system\guider.c ****     {
 2762              		.loc 1 1410 5
1410:C:/Users/stapi/OneDrive/Desktop/GD32VW553/V1_MQTT_OK/GD32VW55X_Wifi_BLE_SDK/GD32VW55x_RELEASE_V1.0.2/MSDK/cloud/alicloud/src/infra/system\guider.c ****     {
 2763              		.loc 1 1410 8 is_stmt 0
 2764 0766 93078069 		li	a5,1688
 2765 076a 631AFA28 		bne	s4,a5,.L144
1413:C:/Users/stapi/OneDrive/Desktop/GD32VW553/V1_MQTT_OK/GD32VW55X_Wifi_BLE_SDK/GD32VW55x_RELEASE_V1.0.2/MSDK/cloud/alicloud/src/infra/system\guider.c ****         {
 2766              		.loc 1 1413 9 is_stmt 1
1413:C:/Users/stapi/OneDrive/Desktop/GD32VW553/V1_MQTT_OK/GD32VW55X_Wifi_BLE_SDK/GD32VW55x_RELEASE_V1.0.2/MSDK/cloud/alicloud/src/infra/system\guider.c ****         {
 2767              		.loc 1 1413 12 is_stmt 0
 2768 076e F247     		lw	a5,28(sp)
 2769 0770 E3830790 		beq	a5,zero,.L87
1415:C:/Users/stapi/OneDrive/Desktop/GD32VW553/V1_MQTT_OK/GD32VW55X_Wifi_BLE_SDK/GD32VW55x_RELEASE_V1.0.2/MSDK/cloud/alicloud/src/infra/system\guider.c ****         }
 2770              		.loc 1 1415 13 is_stmt 1
 2771 0774 1255     		lw	a0,36(sp)
 2772 0776 8297     		jalr	a5
 2773              	.LVL304:
 2774 0778 FDB8     		j	.L87
 2775              	.LVL305:
 2776              	.L118:
 2777              	.LBB148:
 2778              	.LBB143:
1224:C:/Users/stapi/OneDrive/Desktop/GD32VW553/V1_MQTT_OK/GD32VW55X_Wifi_BLE_SDK/GD32VW55x_RELEASE_V1.0.2/MSDK/cloud/alicloud/src/infra/system\guider.c ****         }
 2779              		.loc 1 1224 13
1224:C:/Users/stapi/OneDrive/Desktop/GD32VW553/V1_MQTT_OK/GD32VW55X_Wifi_BLE_SDK/GD32VW55x_RELEASE_V1.0.2/MSDK/cloud/alicloud/src/infra/system\guider.c ****         }
 2780              		.loc 1 1224 46 is_stmt 0
 2781 077a 23800700 		sb	zero,0(a5)
 2782 077e ADB7     		j	.L117
 2783              	.LVL306:
 2784              	.L228:
 2785              	.LBE143:
 2786              	.LBE148:
 2787              	.LBB149:
 2788              	.LBB150:
 2789              	.LBB151:
 2790              	.LBB152:
 868:C:/Users/stapi/OneDrive/Desktop/GD32VW553/V1_MQTT_OK/GD32VW55X_Wifi_BLE_SDK/GD32VW55x_RELEASE_V1.0.2/MSDK/cloud/alicloud/src/infra/system\guider.c ****         {
 2791              		.loc 1 868 9 is_stmt 1
 868:C:/Users/stapi/OneDrive/Desktop/GD32VW553/V1_MQTT_OK/GD32VW55X_Wifi_BLE_SDK/GD32VW55x_RELEASE_V1.0.2/MSDK/cloud/alicloud/src/infra/system\guider.c ****         {
 2792              		.loc 1 868 12 is_stmt 0
 2793 0780 63070B00 		beq	s6,zero,.L123
 870:C:/Users/stapi/OneDrive/Desktop/GD32VW553/V1_MQTT_OK/GD32VW55X_Wifi_BLE_SDK/GD32VW55x_RELEASE_V1.0.2/MSDK/cloud/alicloud/src/infra/system\guider.c ****             if (0 != port_num)
 2794              		.loc 1 870 13 is_stmt 1
 870:C:/Users/stapi/OneDrive/Desktop/GD32VW553/V1_MQTT_OK/GD32VW55X_Wifi_BLE_SDK/GD32VW55x_RELEASE_V1.0.2/MSDK/cloud/alicloud/src/infra/system\guider.c ****             if (0 != port_num)
 2795              		.loc 1 870 22 is_stmt 0
 2796 0784 03274B00 		lw	a4,4(s6)
 2797              	.LVL307:
 871:C:/Users/stapi/OneDrive/Desktop/GD32VW553/V1_MQTT_OK/GD32VW55X_Wifi_BLE_SDK/GD32VW55x_RELEASE_V1.0.2/MSDK/cloud/alicloud/src/infra/system\guider.c ****             {
 2798              		.loc 1 871 13 is_stmt 1
 871:C:/Users/stapi/OneDrive/Desktop/GD32VW553/V1_MQTT_OK/GD32VW55X_Wifi_BLE_SDK/GD32VW55x_RELEASE_V1.0.2/MSDK/cloud/alicloud/src/infra/system\guider.c ****             {
 2799              		.loc 1 871 16 is_stmt 0
 2800 0788 19C3     		beq	a4,zero,.L123
 873:C:/Users/stapi/OneDrive/Desktop/GD32VW553/V1_MQTT_OK/GD32VW55X_Wifi_BLE_SDK/GD32VW55x_RELEASE_V1.0.2/MSDK/cloud/alicloud/src/infra/system\guider.c ****             }
 2801              		.loc 1 873 17 is_stmt 1
 873:C:/Users/stapi/OneDrive/Desktop/GD32VW553/V1_MQTT_OK/GD32VW55X_Wifi_BLE_SDK/GD32VW55x_RELEASE_V1.0.2/MSDK/cloud/alicloud/src/infra/system\guider.c ****             }
 2802              		.loc 1 873 28 is_stmt 0
 2803 078a 2310E400 		sh	a4,0(s0)
 2804              	.LVL308:
 2805              	.L123:
 877:C:/Users/stapi/OneDrive/Desktop/GD32VW553/V1_MQTT_OK/GD32VW55X_Wifi_BLE_SDK/GD32VW55x_RELEASE_V1.0.2/MSDK/cloud/alicloud/src/infra/system\guider.c ****         {
 2806              		.loc 1 877 9 is_stmt 1
 877:C:/Users/stapi/OneDrive/Desktop/GD32VW553/V1_MQTT_OK/GD32VW55X_Wifi_BLE_SDK/GD32VW55x_RELEASE_V1.0.2/MSDK/cloud/alicloud/src/infra/system\guider.c ****         {
 2807              		.loc 1 877 12 is_stmt 0
 2808 078e 03570400 		lhu	a4,0(s0)
 2809 0792 09E7     		bne	a4,zero,.L124
 880:C:/Users/stapi/OneDrive/Desktop/GD32VW553/V1_MQTT_OK/GD32VW55X_Wifi_BLE_SDK/GD32VW55x_RELEASE_V1.0.2/MSDK/cloud/alicloud/src/infra/system\guider.c **** #else
 2810              		.loc 1 880 13 is_stmt 1
 880:C:/Users/stapi/OneDrive/Desktop/GD32VW553/V1_MQTT_OK/GD32VW55X_Wifi_BLE_SDK/GD32VW55x_RELEASE_V1.0.2/MSDK/cloud/alicloud/src/infra/system\guider.c **** #else
 2811              		.loc 1 880 24 is_stmt 0
 2812 0794 1307B01B 		li	a4,443
 2813 0798 2310E400 		sh	a4,0(s0)
 2814              	.L124:
 886:C:/Users/stapi/OneDrive/Desktop/GD32VW553/V1_MQTT_OK/GD32VW55X_Wifi_BLE_SDK/GD32VW55x_RELEASE_V1.0.2/MSDK/cloud/alicloud/src/infra/system\guider.c ****         {
 2815              		.loc 1 886 9 is_stmt 1
 886:C:/Users/stapi/OneDrive/Desktop/GD32VW553/V1_MQTT_OK/GD32VW55X_Wifi_BLE_SDK/GD32VW55x_RELEASE_V1.0.2/MSDK/cloud/alicloud/src/infra/system\guider.c ****         {
 2816              		.loc 1 886 32 is_stmt 0
 2817 079c 03070900 		lb	a4,0(s2)
 2818 07a0 41C3     		beq	a4,zero,.L125
 888:C:/Users/stapi/OneDrive/Desktop/GD32VW553/V1_MQTT_OK/GD32VW55X_Wifi_BLE_SDK/GD32VW55x_RELEASE_V1.0.2/MSDK/cloud/alicloud/src/infra/system\guider.c ****             conn->host_name = SYS_GUIDER_MALLOC(host_name_len);
 2819              		.loc 1 888 13 is_stmt 1
 888:C:/Users/stapi/OneDrive/Desktop/GD32VW553/V1_MQTT_OK/GD32VW55X_Wifi_BLE_SDK/GD32VW55x_RELEASE_V1.0.2/MSDK/cloud/alicloud/src/infra/system\guider.c ****             conn->host_name = SYS_GUIDER_MALLOC(host_name_len);
 2820              		.loc 1 888 29 is_stmt 0
 2821 07a2 4A85     		mv	a0,s2
 2822 07a4 97000000 		call	strlen
 2822      E7800000 
 2823              	.LVL309:
 888:C:/Users/stapi/OneDrive/Desktop/GD32VW553/V1_MQTT_OK/GD32VW55X_Wifi_BLE_SDK/GD32VW55x_RELEASE_V1.0.2/MSDK/cloud/alicloud/src/infra/system\guider.c ****             conn->host_name = SYS_GUIDER_MALLOC(host_name_len);
 2824              		.loc 1 888 56
 2825 07ac 130B1500 		addi	s6,a0,1
 2826              	.LVL310:
 889:C:/Users/stapi/OneDrive/Desktop/GD32VW553/V1_MQTT_OK/GD32VW55X_Wifi_BLE_SDK/GD32VW55x_RELEASE_V1.0.2/MSDK/cloud/alicloud/src/infra/system\guider.c ****             if (conn->host_name == NULL)
 2827              		.loc 1 889 13 is_stmt 1
 889:C:/Users/stapi/OneDrive/Desktop/GD32VW553/V1_MQTT_OK/GD32VW55X_Wifi_BLE_SDK/GD32VW55x_RELEASE_V1.0.2/MSDK/cloud/alicloud/src/infra/system\guider.c ****             if (conn->host_name == NULL)
 2828              		.loc 1 889 31 is_stmt 0
 2829 07b0 5A86     		mv	a2,s6
 2830 07b2 8145     		li	a1,0
 2831 07b4 0145     		li	a0,0
 2832 07b6 97000000 		call	LITE_malloc_internal
 2832      E7800000 
 2833              	.LVL311:
 889:C:/Users/stapi/OneDrive/Desktop/GD32VW553/V1_MQTT_OK/GD32VW55X_Wifi_BLE_SDK/GD32VW55x_RELEASE_V1.0.2/MSDK/cloud/alicloud/src/infra/system\guider.c ****             if (conn->host_name == NULL)
 2834              		.loc 1 889 29
 2835 07be 48C0     		sw	a0,4(s0)
 890:C:/Users/stapi/OneDrive/Desktop/GD32VW553/V1_MQTT_OK/GD32VW55X_Wifi_BLE_SDK/GD32VW55x_RELEASE_V1.0.2/MSDK/cloud/alicloud/src/infra/system\guider.c ****             {
 2836              		.loc 1 890 13 is_stmt 1
 890:C:/Users/stapi/OneDrive/Desktop/GD32VW553/V1_MQTT_OK/GD32VW55X_Wifi_BLE_SDK/GD32VW55x_RELEASE_V1.0.2/MSDK/cloud/alicloud/src/infra/system\guider.c ****             {
 2837              		.loc 1 890 16 is_stmt 0
 2838 07c0 63040510 		beq	a0,zero,.L121
 895:C:/Users/stapi/OneDrive/Desktop/GD32VW553/V1_MQTT_OK/GD32VW55X_Wifi_BLE_SDK/GD32VW55x_RELEASE_V1.0.2/MSDK/cloud/alicloud/src/infra/system\guider.c ****             if (p_port)
 2839              		.loc 1 895 13 is_stmt 1
 895:C:/Users/stapi/OneDrive/Desktop/GD32VW553/V1_MQTT_OK/GD32VW55X_Wifi_BLE_SDK/GD32VW55x_RELEASE_V1.0.2/MSDK/cloud/alicloud/src/infra/system\guider.c ****             if (p_port)
 2840              		.loc 1 895 22 is_stmt 0
 2841 07c4 9305A003 		li	a1,58
 2842 07c8 4A85     		mv	a0,s2
 2843 07ca 97000000 		call	strrchr
 2843      E7800000 
 2844              	.LVL312:
 2845 07d2 AA89     		mv	s3,a0
 2846              	.LVL313:
 896:C:/Users/stapi/OneDrive/Desktop/GD32VW553/V1_MQTT_OK/GD32VW55X_Wifi_BLE_SDK/GD32VW55x_RELEASE_V1.0.2/MSDK/cloud/alicloud/src/infra/system\guider.c ****             {
 2847              		.loc 1 896 13 is_stmt 1
 896:C:/Users/stapi/OneDrive/Desktop/GD32VW553/V1_MQTT_OK/GD32VW55X_Wifi_BLE_SDK/GD32VW55x_RELEASE_V1.0.2/MSDK/cloud/alicloud/src/infra/system\guider.c ****             {
 2848              		.loc 1 896 16 is_stmt 0
 2849 07d4 05C1     		beq	a0,zero,.L126
 898:C:/Users/stapi/OneDrive/Desktop/GD32VW553/V1_MQTT_OK/GD32VW55X_Wifi_BLE_SDK/GD32VW55x_RELEASE_V1.0.2/MSDK/cloud/alicloud/src/infra/system\guider.c ****                 if (port_num > 0 && port_num < UINT16_MAX)
 2850              		.loc 1 898 17 is_stmt 1
 898:C:/Users/stapi/OneDrive/Desktop/GD32VW553/V1_MQTT_OK/GD32VW55X_Wifi_BLE_SDK/GD32VW55x_RELEASE_V1.0.2/MSDK/cloud/alicloud/src/infra/system\guider.c ****                 if (port_num > 0 && port_num < UINT16_MAX)
 2851              		.loc 1 898 28 is_stmt 0
 2852 07d6 0505     		addi	a0,a0,1
 2853              	.LVL314:
 2854 07d8 97000000 		call	atoi
 2854      E7800000 
 2855              	.LVL315:
 899:C:/Users/stapi/OneDrive/Desktop/GD32VW553/V1_MQTT_OK/GD32VW55X_Wifi_BLE_SDK/GD32VW55x_RELEASE_V1.0.2/MSDK/cloud/alicloud/src/infra/system\guider.c ****                 {
 2856              		.loc 1 899 17 is_stmt 1
 899:C:/Users/stapi/OneDrive/Desktop/GD32VW553/V1_MQTT_OK/GD32VW55X_Wifi_BLE_SDK/GD32VW55x_RELEASE_V1.0.2/MSDK/cloud/alicloud/src/infra/system\guider.c ****                 {
 2857              		.loc 1 899 20 is_stmt 0
 2858 07e0 C167     		li	a5,65536
 899:C:/Users/stapi/OneDrive/Desktop/GD32VW553/V1_MQTT_OK/GD32VW55X_Wifi_BLE_SDK/GD32VW55x_RELEASE_V1.0.2/MSDK/cloud/alicloud/src/infra/system\guider.c ****                 {
 2859              		.loc 1 899 34
 2860 07e2 1307F5FF 		addi	a4,a0,-1
 899:C:/Users/stapi/OneDrive/Desktop/GD32VW553/V1_MQTT_OK/GD32VW55X_Wifi_BLE_SDK/GD32VW55x_RELEASE_V1.0.2/MSDK/cloud/alicloud/src/infra/system\guider.c ****                 {
 2861              		.loc 1 899 20
 2862 07e6 F517     		addi	a5,a5,-3
 2863 07e8 63E4E700 		bgtu	a4,a5,.L127
 901:C:/Users/stapi/OneDrive/Desktop/GD32VW553/V1_MQTT_OK/GD32VW55X_Wifi_BLE_SDK/GD32VW55x_RELEASE_V1.0.2/MSDK/cloud/alicloud/src/infra/system\guider.c ****                 }
 2864              		.loc 1 901 21 is_stmt 1
 901:C:/Users/stapi/OneDrive/Desktop/GD32VW553/V1_MQTT_OK/GD32VW55X_Wifi_BLE_SDK/GD32VW55x_RELEASE_V1.0.2/MSDK/cloud/alicloud/src/infra/system\guider.c ****                 }
 2865              		.loc 1 901 32 is_stmt 0
 2866 07ec 2310A400 		sh	a0,0(s0)
 2867              	.L127:
 904:C:/Users/stapi/OneDrive/Desktop/GD32VW553/V1_MQTT_OK/GD32VW55X_Wifi_BLE_SDK/GD32VW55x_RELEASE_V1.0.2/MSDK/cloud/alicloud/src/infra/system\guider.c ****             }
 2868              		.loc 1 904 17 is_stmt 1
 904:C:/Users/stapi/OneDrive/Desktop/GD32VW553/V1_MQTT_OK/GD32VW55X_Wifi_BLE_SDK/GD32VW55x_RELEASE_V1.0.2/MSDK/cloud/alicloud/src/infra/system\guider.c ****             }
 2869              		.loc 1 904 71 is_stmt 0
 2870 07f0 23800900 		sb	zero,0(s3)
 2871              	.LVL316:
 2872              	.L126:
 907:C:/Users/stapi/OneDrive/Desktop/GD32VW553/V1_MQTT_OK/GD32VW55X_Wifi_BLE_SDK/GD32VW55x_RELEASE_V1.0.2/MSDK/cloud/alicloud/src/infra/system\guider.c ****             if (p_host)
 2873              		.loc 1 907 13 is_stmt 1
 907:C:/Users/stapi/OneDrive/Desktop/GD32VW553/V1_MQTT_OK/GD32VW55X_Wifi_BLE_SDK/GD32VW55x_RELEASE_V1.0.2/MSDK/cloud/alicloud/src/infra/system\guider.c ****             if (p_host)
 2874              		.loc 1 907 22 is_stmt 0
 2875 07f4 B7050000 		lui	a1,%hi(.LC73)
 2876 07f8 93850500 		addi	a1,a1,%lo(.LC73)
 2877 07fc 4A85     		mv	a0,s2
 2878 07fe 97000000 		call	strstr
 2878      E7800000 
 2879              	.LVL317:
 908:C:/Users/stapi/OneDrive/Desktop/GD32VW553/V1_MQTT_OK/GD32VW55X_Wifi_BLE_SDK/GD32VW55x_RELEASE_V1.0.2/MSDK/cloud/alicloud/src/infra/system\guider.c ****             {
 2880              		.loc 1 908 13 is_stmt 1
 2881 0806 CA86     		mv	a3,s2
 908:C:/Users/stapi/OneDrive/Desktop/GD32VW553/V1_MQTT_OK/GD32VW55X_Wifi_BLE_SDK/GD32VW55x_RELEASE_V1.0.2/MSDK/cloud/alicloud/src/infra/system\guider.c ****             {
 2882              		.loc 1 908 16 is_stmt 0
 2883 0808 19C1     		beq	a0,zero,.L128
 2884              	.LVL318:
 910:C:/Users/stapi/OneDrive/Desktop/GD32VW553/V1_MQTT_OK/GD32VW55X_Wifi_BLE_SDK/GD32VW55x_RELEASE_V1.0.2/MSDK/cloud/alicloud/src/infra/system\guider.c ****             }
 2885              		.loc 1 910 17 is_stmt 1
 910:C:/Users/stapi/OneDrive/Desktop/GD32VW553/V1_MQTT_OK/GD32VW55X_Wifi_BLE_SDK/GD32VW55x_RELEASE_V1.0.2/MSDK/cloud/alicloud/src/infra/system\guider.c ****             }
 2886              		.loc 1 910 36 is_stmt 0
 2887 080a 93063500 		addi	a3,a0,3
 2888              	.LVL319:
 2889              	.L128:
 913:C:/Users/stapi/OneDrive/Desktop/GD32VW553/V1_MQTT_OK/GD32VW55X_Wifi_BLE_SDK/GD32VW55x_RELEASE_V1.0.2/MSDK/cloud/alicloud/src/infra/system\guider.c ****                                          "%s", p_dynamic_mqtt_url);
 2890              		.loc 1 913 13 is_stmt 1
 2891 080e 4840     		lw	a0,4(s0)
 2892              	.LVL320:
 2893 0810 13060A00 		addi	a2,s4,%lo(.LC53)
 2894 0814 DA85     		mv	a1,s6
 2895              	.LVL321:
 2896              	.L233:
 928:C:/Users/stapi/OneDrive/Desktop/GD32VW553/V1_MQTT_OK/GD32VW55X_Wifi_BLE_SDK/GD32VW55x_RELEASE_V1.0.2/MSDK/cloud/alicloud/src/infra/system\guider.c ****                                              "%s", iotx_guider_get_domain(GUIDER_DOMAIN_MQTT));
 2897              		.loc 1 928 17 is_stmt 0
 2898 0816 97000000 		call	iotx_guider_fill_conn_string
 2898      E7800000 
 2899              	.LVL322:
 2900              	.LBE152:
 2901              	.LBE151:
1013:C:/Users/stapi/OneDrive/Desktop/GD32VW553/V1_MQTT_OK/GD32VW55X_Wifi_BLE_SDK/GD32VW55x_RELEASE_V1.0.2/MSDK/cloud/alicloud/src/infra/system\guider.c ****     {
 2902              		.loc 1 1013 5 is_stmt 1
 2903 081e E1A4     		j	.L122
 2904              	.LVL323:
 2905              	.L125:
 2906              	.LBB158:
 2907              	.LBB155:
 918:C:/Users/stapi/OneDrive/Desktop/GD32VW553/V1_MQTT_OK/GD32VW55X_Wifi_BLE_SDK/GD32VW55x_RELEASE_V1.0.2/MSDK/cloud/alicloud/src/infra/system\guider.c ****             {
 2908              		.loc 1 918 13
 2909              	.LBE155:
 2910              	.LBE158:
 2911              	.LBE150:
 2912              	.LBE149:
 183:C:/Users/stapi/OneDrive/Desktop/GD32VW553/V1_MQTT_OK/GD32VW55X_Wifi_BLE_SDK/GD32VW55x_RELEASE_V1.0.2/MSDK/cloud/alicloud/src/infra/system\guider.c **** }
 2913              		.loc 1 183 5
 2914              	.LBB181:
 2915              	.LBB177:
 2916              	.LBB159:
 2917              	.LBB156:
 918:C:/Users/stapi/OneDrive/Desktop/GD32VW553/V1_MQTT_OK/GD32VW55X_Wifi_BLE_SDK/GD32VW55x_RELEASE_V1.0.2/MSDK/cloud/alicloud/src/infra/system\guider.c ****             {
 2918              		.loc 1 918 16 is_stmt 0
 2919 0820 0947     		li	a4,2
 2920 0822 6396E704 		bne	a5,a4,.L129
 920:C:/Users/stapi/OneDrive/Desktop/GD32VW553/V1_MQTT_OK/GD32VW55X_Wifi_BLE_SDK/GD32VW55x_RELEASE_V1.0.2/MSDK/cloud/alicloud/src/infra/system\guider.c ****                 host_name_len = strlen(iotx_guider_get_domain(GUIDER_DOMAIN_MQTT)) + 1;
 2921              		.loc 1 920 17 is_stmt 1
 920:C:/Users/stapi/OneDrive/Desktop/GD32VW553/V1_MQTT_OK/GD32VW55X_Wifi_BLE_SDK/GD32VW55x_RELEASE_V1.0.2/MSDK/cloud/alicloud/src/infra/system\guider.c ****                 host_name_len = strlen(iotx_guider_get_domain(GUIDER_DOMAIN_MQTT)) + 1;
 2922              		.loc 1 920 28 is_stmt 0
 2923 0826 93070005 		li	a5,80
 2924 082a 2310F400 		sh	a5,0(s0)
 921:C:/Users/stapi/OneDrive/Desktop/GD32VW553/V1_MQTT_OK/GD32VW55X_Wifi_BLE_SDK/GD32VW55x_RELEASE_V1.0.2/MSDK/cloud/alicloud/src/infra/system\guider.c ****                 conn->host_name = SYS_GUIDER_MALLOC(host_name_len);
 2925              		.loc 1 921 17 is_stmt 1
 921:C:/Users/stapi/OneDrive/Desktop/GD32VW553/V1_MQTT_OK/GD32VW55X_Wifi_BLE_SDK/GD32VW55x_RELEASE_V1.0.2/MSDK/cloud/alicloud/src/infra/system\guider.c ****                 conn->host_name = SYS_GUIDER_MALLOC(host_name_len);
 2926              		.loc 1 921 33 is_stmt 0
 2927 082e 0145     		li	a0,0
 2928 0830 97000000 		call	iotx_guider_get_domain
 2928      E7800000 
 2929              	.LVL324:
 2930 0838 97000000 		call	strlen
 2930      E7800000 
 2931              	.LVL325:
 921:C:/Users/stapi/OneDrive/Desktop/GD32VW553/V1_MQTT_OK/GD32VW55X_Wifi_BLE_SDK/GD32VW55x_RELEASE_V1.0.2/MSDK/cloud/alicloud/src/infra/system\guider.c ****                 conn->host_name = SYS_GUIDER_MALLOC(host_name_len);
 2932              		.loc 1 921 84
 2933 0840 130B1500 		addi	s6,a0,1
 2934              	.LVL326:
 922:C:/Users/stapi/OneDrive/Desktop/GD32VW553/V1_MQTT_OK/GD32VW55X_Wifi_BLE_SDK/GD32VW55x_RELEASE_V1.0.2/MSDK/cloud/alicloud/src/infra/system\guider.c ****                 if (conn->host_name == NULL)
 2935              		.loc 1 922 17 is_stmt 1
 922:C:/Users/stapi/OneDrive/Desktop/GD32VW553/V1_MQTT_OK/GD32VW55X_Wifi_BLE_SDK/GD32VW55x_RELEASE_V1.0.2/MSDK/cloud/alicloud/src/infra/system\guider.c ****                 if (conn->host_name == NULL)
 2936              		.loc 1 922 35 is_stmt 0
 2937 0844 5A86     		mv	a2,s6
 2938 0846 8145     		li	a1,0
 2939 0848 0145     		li	a0,0
 2940 084a 97000000 		call	LITE_malloc_internal
 2940      E7800000 
 2941              	.LVL327:
 922:C:/Users/stapi/OneDrive/Desktop/GD32VW553/V1_MQTT_OK/GD32VW55X_Wifi_BLE_SDK/GD32VW55x_RELEASE_V1.0.2/MSDK/cloud/alicloud/src/infra/system\guider.c ****                 if (conn->host_name == NULL)
 2942              		.loc 1 922 33
 2943 0852 48C0     		sw	a0,4(s0)
 923:C:/Users/stapi/OneDrive/Desktop/GD32VW553/V1_MQTT_OK/GD32VW55X_Wifi_BLE_SDK/GD32VW55x_RELEASE_V1.0.2/MSDK/cloud/alicloud/src/infra/system\guider.c ****                 {
 2944              		.loc 1 923 17 is_stmt 1
 922:C:/Users/stapi/OneDrive/Desktop/GD32VW553/V1_MQTT_OK/GD32VW55X_Wifi_BLE_SDK/GD32VW55x_RELEASE_V1.0.2/MSDK/cloud/alicloud/src/infra/system\guider.c ****                 if (conn->host_name == NULL)
 2945              		.loc 1 922 35 is_stmt 0
 2946 0854 AA89     		mv	s3,a0
 923:C:/Users/stapi/OneDrive/Desktop/GD32VW553/V1_MQTT_OK/GD32VW55X_Wifi_BLE_SDK/GD32VW55x_RELEASE_V1.0.2/MSDK/cloud/alicloud/src/infra/system\guider.c ****                 {
 2947              		.loc 1 923 20
 2948 0856 2DC9     		beq	a0,zero,.L121
 928:C:/Users/stapi/OneDrive/Desktop/GD32VW553/V1_MQTT_OK/GD32VW55X_Wifi_BLE_SDK/GD32VW55x_RELEASE_V1.0.2/MSDK/cloud/alicloud/src/infra/system\guider.c ****                                              "%s", iotx_guider_get_domain(GUIDER_DOMAIN_MQTT));
 2949              		.loc 1 928 17 is_stmt 1
 2950 0858 0145     		li	a0,0
 2951 085a 97000000 		call	iotx_guider_get_domain
 2951      E7800000 
 2952              	.LVL328:
 2953 0862 AA86     		mv	a3,a0
 2954 0864 13060A00 		addi	a2,s4,%lo(.LC53)
 2955 0868 DA85     		mv	a1,s6
 2956 086a 4E85     		mv	a0,s3
 2957 086c 6DB7     		j	.L233
 2958              	.LVL329:
 2959              	.L129:
 933:C:/Users/stapi/OneDrive/Desktop/GD32VW553/V1_MQTT_OK/GD32VW55X_Wifi_BLE_SDK/GD32VW55x_RELEASE_V1.0.2/MSDK/cloud/alicloud/src/infra/system\guider.c ****                 conn->host_name = SYS_GUIDER_MALLOC(host_name_len);
 2960              		.loc 1 933 17
 933:C:/Users/stapi/OneDrive/Desktop/GD32VW553/V1_MQTT_OK/GD32VW55X_Wifi_BLE_SDK/GD32VW55x_RELEASE_V1.0.2/MSDK/cloud/alicloud/src/infra/system\guider.c ****                 conn->host_name = SYS_GUIDER_MALLOC(host_name_len);
 2961              		.loc 1 933 33 is_stmt 0
 2962 086e 2685     		mv	a0,s1
 2963 0870 97000000 		call	strlen
 2963      E7800000 
 2964              	.LVL330:
 2965 0878 AA89     		mv	s3,a0
 933:C:/Users/stapi/OneDrive/Desktop/GD32VW553/V1_MQTT_OK/GD32VW55X_Wifi_BLE_SDK/GD32VW55x_RELEASE_V1.0.2/MSDK/cloud/alicloud/src/infra/system\guider.c ****                 conn->host_name = SYS_GUIDER_MALLOC(host_name_len);
 2966              		.loc 1 933 59
 2967 087a 0145     		li	a0,0
 2968 087c 97000000 		call	iotx_guider_get_domain
 2968      E7800000 
 2969              	.LVL331:
 2970 0884 97000000 		call	strlen
 2970      E7800000 
 2971              	.LVL332:
 933:C:/Users/stapi/OneDrive/Desktop/GD32VW553/V1_MQTT_OK/GD32VW55X_Wifi_BLE_SDK/GD32VW55x_RELEASE_V1.0.2/MSDK/cloud/alicloud/src/infra/system\guider.c ****                 conn->host_name = SYS_GUIDER_MALLOC(host_name_len);
 2972              		.loc 1 933 57
 2973 088c AA99     		add	s3,s3,a0
 2974 088e 8909     		addi	s3,s3,2
 2975              	.LVL333:
 934:C:/Users/stapi/OneDrive/Desktop/GD32VW553/V1_MQTT_OK/GD32VW55X_Wifi_BLE_SDK/GD32VW55x_RELEASE_V1.0.2/MSDK/cloud/alicloud/src/infra/system\guider.c ****                 if (conn->host_name == NULL)
 2976              		.loc 1 934 17 is_stmt 1
 934:C:/Users/stapi/OneDrive/Desktop/GD32VW553/V1_MQTT_OK/GD32VW55X_Wifi_BLE_SDK/GD32VW55x_RELEASE_V1.0.2/MSDK/cloud/alicloud/src/infra/system\guider.c ****                 if (conn->host_name == NULL)
 2977              		.loc 1 934 35 is_stmt 0
 2978 0890 4E86     		mv	a2,s3
 2979 0892 8145     		li	a1,0
 2980 0894 0145     		li	a0,0
 2981 0896 97000000 		call	LITE_malloc_internal
 2981      E7800000 
 2982              	.LVL334:
 934:C:/Users/stapi/OneDrive/Desktop/GD32VW553/V1_MQTT_OK/GD32VW55X_Wifi_BLE_SDK/GD32VW55x_RELEASE_V1.0.2/MSDK/cloud/alicloud/src/infra/system\guider.c ****                 if (conn->host_name == NULL)
 2983              		.loc 1 934 33
 2984 089e 48C0     		sw	a0,4(s0)
 935:C:/Users/stapi/OneDrive/Desktop/GD32VW553/V1_MQTT_OK/GD32VW55X_Wifi_BLE_SDK/GD32VW55x_RELEASE_V1.0.2/MSDK/cloud/alicloud/src/infra/system\guider.c ****                 {
 2985              		.loc 1 935 17 is_stmt 1
 934:C:/Users/stapi/OneDrive/Desktop/GD32VW553/V1_MQTT_OK/GD32VW55X_Wifi_BLE_SDK/GD32VW55x_RELEASE_V1.0.2/MSDK/cloud/alicloud/src/infra/system\guider.c ****                 if (conn->host_name == NULL)
 2986              		.loc 1 934 35 is_stmt 0
 2987 08a0 2A8B     		mv	s6,a0
 2988              	.LVL335:
 935:C:/Users/stapi/OneDrive/Desktop/GD32VW553/V1_MQTT_OK/GD32VW55X_Wifi_BLE_SDK/GD32VW55x_RELEASE_V1.0.2/MSDK/cloud/alicloud/src/infra/system\guider.c ****                 {
 2989              		.loc 1 935 20
 2990 08a2 1DC1     		beq	a0,zero,.L121
 940:C:/Users/stapi/OneDrive/Desktop/GD32VW553/V1_MQTT_OK/GD32VW55X_Wifi_BLE_SDK/GD32VW55x_RELEASE_V1.0.2/MSDK/cloud/alicloud/src/infra/system\guider.c ****                                              "%s.%s", product_key,
 2991              		.loc 1 940 17 is_stmt 1
 2992 08a4 0145     		li	a0,0
 2993 08a6 97000000 		call	iotx_guider_get_domain
 2993      E7800000 
 2994              	.LVL336:
 2995 08ae 37060000 		lui	a2,%hi(.LC38)
 2996 08b2 2A87     		mv	a4,a0
 2997 08b4 A686     		mv	a3,s1
 2998 08b6 13060600 		addi	a2,a2,%lo(.LC38)
 2999 08ba CE85     		mv	a1,s3
 3000 08bc 5A85     		mv	a0,s6
 3001 08be 97000000 		call	iotx_guider_fill_conn_string
 3001      E7800000 
 3002              	.LVL337:
 3003              	.LBE156:
 3004              	.LBE159:
1013:C:/Users/stapi/OneDrive/Desktop/GD32VW553/V1_MQTT_OK/GD32VW55X_Wifi_BLE_SDK/GD32VW55x_RELEASE_V1.0.2/MSDK/cloud/alicloud/src/infra/system\guider.c ****     {
 3005              		.loc 1 1013 5
 3006 08c6 05A4     		j	.L122
 3007              	.LVL338:
 3008              	.L121:
1015:C:/Users/stapi/OneDrive/Desktop/GD32VW553/V1_MQTT_OK/GD32VW55X_Wifi_BLE_SDK/GD32VW55x_RELEASE_V1.0.2/MSDK/cloud/alicloud/src/infra/system\guider.c ****         return -1;
 3009              		.loc 1 1015 9
1015:C:/Users/stapi/OneDrive/Desktop/GD32VW553/V1_MQTT_OK/GD32VW55X_Wifi_BLE_SDK/GD32VW55x_RELEASE_V1.0.2/MSDK/cloud/alicloud/src/infra/system\guider.c ****         return -1;
 3010              		.loc 1 1015 9
 3011 08c8 37050000 		lui	a0,%hi(.LC18)
 3012 08cc 13050500 		addi	a0,a0,%lo(.LC18)
 3013 08d0 97000000 		call	HAL_Printf
 3013      E7800000 
 3014              	.LVL339:
1015:C:/Users/stapi/OneDrive/Desktop/GD32VW553/V1_MQTT_OK/GD32VW55X_Wifi_BLE_SDK/GD32VW55x_RELEASE_V1.0.2/MSDK/cloud/alicloud/src/infra/system\guider.c ****         return -1;
 3015              		.loc 1 1015 9
 3016 08d8 37050000 		lui	a0,%hi(.LC74)
 3017 08dc 13050500 		addi	a0,a0,%lo(.LC74)
 3018 08e0 97000000 		call	HAL_Printf
 3018      E7800000 
 3019              	.LVL340:
1015:C:/Users/stapi/OneDrive/Desktop/GD32VW553/V1_MQTT_OK/GD32VW55X_Wifi_BLE_SDK/GD32VW55x_RELEASE_V1.0.2/MSDK/cloud/alicloud/src/infra/system\guider.c ****         return -1;
 3020              		.loc 1 1015 9
 3021 08e8 37050000 		lui	a0,%hi(.LC17)
 3022 08ec 13050500 		addi	a0,a0,%lo(.LC17)
 3023 08f0 97000000 		call	HAL_Printf
 3023      E7800000 
 3024              	.LVL341:
1015:C:/Users/stapi/OneDrive/Desktop/GD32VW553/V1_MQTT_OK/GD32VW55X_Wifi_BLE_SDK/GD32VW55x_RELEASE_V1.0.2/MSDK/cloud/alicloud/src/infra/system\guider.c ****         return -1;
 3025              		.loc 1 1015 9
1016:C:/Users/stapi/OneDrive/Desktop/GD32VW553/V1_MQTT_OK/GD32VW55X_Wifi_BLE_SDK/GD32VW55x_RELEASE_V1.0.2/MSDK/cloud/alicloud/src/infra/system\guider.c ****     }
 3026              		.loc 1 1016 9
1016:C:/Users/stapi/OneDrive/Desktop/GD32VW553/V1_MQTT_OK/GD32VW55X_Wifi_BLE_SDK/GD32VW55x_RELEASE_V1.0.2/MSDK/cloud/alicloud/src/infra/system\guider.c ****     }
 3027              		.loc 1 1016 16 is_stmt 0
 3028 08f8 7D5A     		li	s4,-1
 3029              	.LVL342:
 3030              	.L130:
 3031              	.LBE177:
 3032              	.LBE181:
1272:C:/Users/stapi/OneDrive/Desktop/GD32VW553/V1_MQTT_OK/GD32VW55X_Wifi_BLE_SDK/GD32VW55x_RELEASE_V1.0.2/MSDK/cloud/alicloud/src/infra/system\guider.c ****     char *p_guider_sign = NULL;
 3033              		.loc 1 1272 11
 3034 08fa 8149     		li	s3,0
 3035 08fc 31BD     		j	.L92
 3036              	.LVL343:
 3037              	.L131:
 3038              	.LBB182:
 3039              	.LBB178:
 3040              	.LBB160:
 3041              	.LBB161:
 458:C:/Users/stapi/OneDrive/Desktop/GD32VW553/V1_MQTT_OK/GD32VW55X_Wifi_BLE_SDK/GD32VW55x_RELEASE_V1.0.2/MSDK/cloud/alicloud/src/infra/system\guider.c **** 
 3042              		.loc 1 458 5 is_stmt 1
 3043 08fe 13060010 		li	a2,256
 3044 0902 8145     		li	a1,0
 3045 0904 97000000 		call	memset
 3045      E7800000 
 3046              	.LVL344:
 460:C:/Users/stapi/OneDrive/Desktop/GD32VW553/V1_MQTT_OK/GD32VW55X_Wifi_BLE_SDK/GD32VW55x_RELEASE_V1.0.2/MSDK/cloud/alicloud/src/infra/system\guider.c ****     {
 3047              		.loc 1 460 5
 477:C:/Users/stapi/OneDrive/Desktop/GD32VW553/V1_MQTT_OK/GD32VW55X_Wifi_BLE_SDK/GD32VW55x_RELEASE_V1.0.2/MSDK/cloud/alicloud/src/infra/system\guider.c ****                           GUIDER_SIGN_SOURCE_LEN,
 3048              		.loc 1 477 9
 477:C:/Users/stapi/OneDrive/Desktop/GD32VW553/V1_MQTT_OK/GD32VW55X_Wifi_BLE_SDK/GD32VW55x_RELEASE_V1.0.2/MSDK/cloud/alicloud/src/infra/system\guider.c ****                           GUIDER_SIGN_SOURCE_LEN,
 3049              		.loc 1 477 14 is_stmt 0
 3050 090c 37060000 		lui	a2,%hi(.LC75)
 3051 0910 A687     		mv	a5,s1
 3052 0912 13088103 		addi	a6,sp,56
 3053              	.LVL345:
 3054 0916 5A87     		mv	a4,s6
 3055 0918 93866403 		addi	a3,s1,54
 3056 091c 13060600 		addi	a2,a2,%lo(.LC75)
 3057 0920 93050010 		li	a1,256
 3058 0924 4E85     		mv	a0,s3
 3059 0926 97000000 		call	HAL_Snprintf
 3059      E7800000 
 3060              	.LVL346:
 489:C:/Users/stapi/OneDrive/Desktop/GD32VW553/V1_MQTT_OK/GD32VW55X_Wifi_BLE_SDK/GD32VW55x_RELEASE_V1.0.2/MSDK/cloud/alicloud/src/infra/system\guider.c **** 
 3061              		.loc 1 489 5 is_stmt 1
 489:C:/Users/stapi/OneDrive/Desktop/GD32VW553/V1_MQTT_OK/GD32VW55X_Wifi_BLE_SDK/GD32VW55x_RELEASE_V1.0.2/MSDK/cloud/alicloud/src/infra/system\guider.c **** 
 3062              		.loc 1 489 5
 3063 092e 9307F00F 		li	a5,255
 3064 0932 63D8A702 		ble	a0,a5,.L133
 489:C:/Users/stapi/OneDrive/Desktop/GD32VW553/V1_MQTT_OK/GD32VW55X_Wifi_BLE_SDK/GD32VW55x_RELEASE_V1.0.2/MSDK/cloud/alicloud/src/infra/system\guider.c **** 
 3065              		.loc 1 489 5
 3066 0936 37070000 		lui	a4,%hi(.LC76)
 3067 093a 37060000 		lui	a2,%hi(.LANCHOR15)
 3068 093e B7050000 		lui	a1,%hi(.LC45)
 3069 0942 37050000 		lui	a0,%hi(.LC46)
 3070              	.LVL347:
 3071 0946 13070700 		addi	a4,a4,%lo(.LC76)
 3072 094a 9306901E 		li	a3,489
 3073 094e 13060600 		addi	a2,a2,%lo(.LANCHOR15)
 3074 0952 93850500 		addi	a1,a1,%lo(.LC45)
 3075 0956 13050500 		addi	a0,a0,%lo(.LC46)
 3076 095a 97000000 		call	HAL_Printf
 3076      E7800000 
 3077              	.LVL348:
 3078              	.L133:
 489:C:/Users/stapi/OneDrive/Desktop/GD32VW553/V1_MQTT_OK/GD32VW55X_Wifi_BLE_SDK/GD32VW55x_RELEASE_V1.0.2/MSDK/cloud/alicloud/src/infra/system\guider.c **** 
 3079              		.loc 1 489 5
 491:C:/Users/stapi/OneDrive/Desktop/GD32VW553/V1_MQTT_OK/GD32VW55X_Wifi_BLE_SDK/GD32VW55x_RELEASE_V1.0.2/MSDK/cloud/alicloud/src/infra/system\guider.c ****                     p_dev_info->device_secret, strlen(p_dev_info->device_secret));
 3080              		.loc 1 491 5
 491:C:/Users/stapi/OneDrive/Desktop/GD32VW553/V1_MQTT_OK/GD32VW55X_Wifi_BLE_SDK/GD32VW55x_RELEASE_V1.0.2/MSDK/cloud/alicloud/src/infra/system\guider.c ****                     p_dev_info->device_secret, strlen(p_dev_info->device_secret));
 3081              		.loc 1 491 38 is_stmt 0
 3082 0962 4E85     		mv	a0,s3
 3083 0964 97000000 		call	strlen
 3083      E7800000 
 3084              	.LVL349:
 492:C:/Users/stapi/OneDrive/Desktop/GD32VW553/V1_MQTT_OK/GD32VW55X_Wifi_BLE_SDK/GD32VW55x_RELEASE_V1.0.2/MSDK/cloud/alicloud/src/infra/system\guider.c **** 
 3085              		.loc 1 492 31
 3086 096c 93867407 		addi	a3,s1,119
 491:C:/Users/stapi/OneDrive/Desktop/GD32VW553/V1_MQTT_OK/GD32VW55X_Wifi_BLE_SDK/GD32VW55x_RELEASE_V1.0.2/MSDK/cloud/alicloud/src/infra/system\guider.c ****                     p_dev_info->device_secret, strlen(p_dev_info->device_secret));
 3087              		.loc 1 491 38
 3088 0970 2AD0     		sw	a0,32(sp)
 492:C:/Users/stapi/OneDrive/Desktop/GD32VW553/V1_MQTT_OK/GD32VW55X_Wifi_BLE_SDK/GD32VW55x_RELEASE_V1.0.2/MSDK/cloud/alicloud/src/infra/system\guider.c **** 
 3089              		.loc 1 492 48
 3090 0972 3685     		mv	a0,a3
 3091 0974 36CC     		sw	a3,24(sp)
 3092 0976 97000000 		call	strlen
 3092      E7800000 
 3093              	.LVL350:
 491:C:/Users/stapi/OneDrive/Desktop/GD32VW553/V1_MQTT_OK/GD32VW55X_Wifi_BLE_SDK/GD32VW55x_RELEASE_V1.0.2/MSDK/cloud/alicloud/src/infra/system\guider.c ****                     p_dev_info->device_secret, strlen(p_dev_info->device_secret));
 3094              		.loc 1 491 5
 3095 097e E246     		lw	a3,24(sp)
 3096 0980 8255     		lw	a1,32(sp)
 492:C:/Users/stapi/OneDrive/Desktop/GD32VW553/V1_MQTT_OK/GD32VW55X_Wifi_BLE_SDK/GD32VW55x_RELEASE_V1.0.2/MSDK/cloud/alicloud/src/infra/system\guider.c **** 
 3097              		.loc 1 492 48
 3098 0982 2A87     		mv	a4,a0
 491:C:/Users/stapi/OneDrive/Desktop/GD32VW553/V1_MQTT_OK/GD32VW55X_Wifi_BLE_SDK/GD32VW55x_RELEASE_V1.0.2/MSDK/cloud/alicloud/src/infra/system\guider.c ****                     p_dev_info->device_secret, strlen(p_dev_info->device_secret));
 3099              		.loc 1 491 5
 3100 0984 5686     		mv	a2,s5
 3101 0986 4E85     		mv	a0,s3
 3102 0988 97000000 		call	utils_hmac_sha1
 3102      E7800000 
 3103              	.LVL351:
 494:C:/Users/stapi/OneDrive/Desktop/GD32VW553/V1_MQTT_OK/GD32VW55X_Wifi_BLE_SDK/GD32VW55x_RELEASE_V1.0.2/MSDK/cloud/alicloud/src/infra/system\guider.c ****     {
 3104              		.loc 1 494 5 is_stmt 1
 496:C:/Users/stapi/OneDrive/Desktop/GD32VW553/V1_MQTT_OK/GD32VW55X_Wifi_BLE_SDK/GD32VW55x_RELEASE_V1.0.2/MSDK/cloud/alicloud/src/infra/system\guider.c ****     }
 3105              		.loc 1 496 9
 3106 0990 4E85     		mv	a0,s3
 3107 0992 97000000 		call	LITE_free_internal
 3107      E7800000 
 3108              	.LVL352:
 499:C:/Users/stapi/OneDrive/Desktop/GD32VW553/V1_MQTT_OK/GD32VW55X_Wifi_BLE_SDK/GD32VW55x_RELEASE_V1.0.2/MSDK/cloud/alicloud/src/infra/system\guider.c **** }
 3109              		.loc 1 499 5
 499:C:/Users/stapi/OneDrive/Desktop/GD32VW553/V1_MQTT_OK/GD32VW55X_Wifi_BLE_SDK/GD32VW55x_RELEASE_V1.0.2/MSDK/cloud/alicloud/src/infra/system\guider.c **** }
 3110              		.loc 1 499 12 is_stmt 0
 3111 099a 59AA     		j	.L132
 3112              	.LVL353:
 3113              	.L136:
 3114              	.LBE161:
 3115              	.LBE160:
1073:C:/Users/stapi/OneDrive/Desktop/GD32VW553/V1_MQTT_OK/GD32VW55X_Wifi_BLE_SDK/GD32VW55x_RELEASE_V1.0.2/MSDK/cloud/alicloud/src/infra/system\guider.c ****         }
 3116              		.loc 1 1073 13 is_stmt 1
 3117 099c 37060000 		lui	a2,%hi(.LC79)
 3118 09a0 13060600 		addi	a2,a2,%lo(.LC79)
 3119 09a4 93050004 		li	a1,64
 3120 09a8 8818     		addi	a0,sp,112
 3121 09aa 97000000 		call	HAL_Snprintf
 3121      E7800000 
 3122              	.LVL354:
 3123 09b2 8DA4     		j	.L137
 3124              	.L135:
1078:C:/Users/stapi/OneDrive/Desktop/GD32VW553/V1_MQTT_OK/GD32VW55X_Wifi_BLE_SDK/GD32VW55x_RELEASE_V1.0.2/MSDK/cloud/alicloud/src/infra/system\guider.c ****         {
 3125              		.loc 1 1078 9
1078:C:/Users/stapi/OneDrive/Desktop/GD32VW553/V1_MQTT_OK/GD32VW55X_Wifi_BLE_SDK/GD32VW55x_RELEASE_V1.0.2/MSDK/cloud/alicloud/src/infra/system\guider.c ****         {
 3126              		.loc 1 1078 12 is_stmt 0
 3127 09b4 8547     		li	a5,1
 3128 09b6 63EFC724 		bgtu	a2,a5,.L137
1080:C:/Users/stapi/OneDrive/Desktop/GD32VW553/V1_MQTT_OK/GD32VW55X_Wifi_BLE_SDK/GD32VW55x_RELEASE_V1.0.2/MSDK/cloud/alicloud/src/infra/system\guider.c ****         }
 3129              		.loc 1 1080 13 is_stmt 1
 3130 09ba B286     		mv	a3,a2
 3131 09bc 37060000 		lui	a2,%hi(.LC80)
 3132 09c0 B800     		addi	a4,sp,72
 3133 09c2 13060600 		addi	a2,a2,%lo(.LC80)
 3134 09c6 93050004 		li	a1,64
 3135 09ca 8818     		addi	a0,sp,112
 3136 09cc 97000000 		call	HAL_Snprintf
 3136      E7800000 
 3137              	.LVL355:
 3138 09d4 81A4     		j	.L137
 3139              	.LVL356:
 3140              	.L134:
 3141              	.LDL1:
1123:C:/Users/stapi/OneDrive/Desktop/GD32VW553/V1_MQTT_OK/GD32VW55X_Wifi_BLE_SDK/GD32VW55x_RELEASE_V1.0.2/MSDK/cloud/alicloud/src/infra/system\guider.c ****     {
 3142              		.loc 1 1123 5
1123:C:/Users/stapi/OneDrive/Desktop/GD32VW553/V1_MQTT_OK/GD32VW55X_Wifi_BLE_SDK/GD32VW55x_RELEASE_V1.0.2/MSDK/cloud/alicloud/src/infra/system\guider.c ****     {
 3143              		.loc 1 1123 13 is_stmt 0
 3144 09d6 4844     		lw	a0,12(s0)
1123:C:/Users/stapi/OneDrive/Desktop/GD32VW553/V1_MQTT_OK/GD32VW55X_Wifi_BLE_SDK/GD32VW55x_RELEASE_V1.0.2/MSDK/cloud/alicloud/src/infra/system\guider.c ****     {
 3145              		.loc 1 1123 8
 3146 09d8 09C5     		beq	a0,zero,.L139
1125:C:/Users/stapi/OneDrive/Desktop/GD32VW553/V1_MQTT_OK/GD32VW55X_Wifi_BLE_SDK/GD32VW55x_RELEASE_V1.0.2/MSDK/cloud/alicloud/src/infra/system\guider.c ****     }
 3147              		.loc 1 1125 9 is_stmt 1
 3148 09da 97000000 		call	LITE_free_internal
 3148      E7800000 
 3149              	.LVL357:
 3150              	.L139:
1127:C:/Users/stapi/OneDrive/Desktop/GD32VW553/V1_MQTT_OK/GD32VW55X_Wifi_BLE_SDK/GD32VW55x_RELEASE_V1.0.2/MSDK/cloud/alicloud/src/infra/system\guider.c ****     {
 3151              		.loc 1 1127 5
1127:C:/Users/stapi/OneDrive/Desktop/GD32VW553/V1_MQTT_OK/GD32VW55X_Wifi_BLE_SDK/GD32VW55x_RELEASE_V1.0.2/MSDK/cloud/alicloud/src/infra/system\guider.c ****     {
 3152              		.loc 1 1127 13 is_stmt 0
 3153 09e2 0848     		lw	a0,16(s0)
1127:C:/Users/stapi/OneDrive/Desktop/GD32VW553/V1_MQTT_OK/GD32VW55X_Wifi_BLE_SDK/GD32VW55x_RELEASE_V1.0.2/MSDK/cloud/alicloud/src/infra/system\guider.c ****     {
 3154              		.loc 1 1127 8
 3155 09e4 09C5     		beq	a0,zero,.L140
1129:C:/Users/stapi/OneDrive/Desktop/GD32VW553/V1_MQTT_OK/GD32VW55X_Wifi_BLE_SDK/GD32VW55x_RELEASE_V1.0.2/MSDK/cloud/alicloud/src/infra/system\guider.c ****     }
 3156              		.loc 1 1129 9 is_stmt 1
 3157 09e6 97000000 		call	LITE_free_internal
 3157      E7800000 
 3158              	.LVL358:
 3159              	.L140:
1131:C:/Users/stapi/OneDrive/Desktop/GD32VW553/V1_MQTT_OK/GD32VW55X_Wifi_BLE_SDK/GD32VW55x_RELEASE_V1.0.2/MSDK/cloud/alicloud/src/infra/system\guider.c ****     {
 3160              		.loc 1 1131 5
1131:C:/Users/stapi/OneDrive/Desktop/GD32VW553/V1_MQTT_OK/GD32VW55X_Wifi_BLE_SDK/GD32VW55x_RELEASE_V1.0.2/MSDK/cloud/alicloud/src/infra/system\guider.c ****     {
 3161              		.loc 1 1131 13 is_stmt 0
 3162 09ee 0844     		lw	a0,8(s0)
1136:C:/Users/stapi/OneDrive/Desktop/GD32VW553/V1_MQTT_OK/GD32VW55X_Wifi_BLE_SDK/GD32VW55x_RELEASE_V1.0.2/MSDK/cloud/alicloud/src/infra/system\guider.c **** }
 3163              		.loc 1 1136 12
 3164 09f0 7D5A     		li	s4,-1
1131:C:/Users/stapi/OneDrive/Desktop/GD32VW553/V1_MQTT_OK/GD32VW55X_Wifi_BLE_SDK/GD32VW55x_RELEASE_V1.0.2/MSDK/cloud/alicloud/src/infra/system\guider.c ****     {
 3165              		.loc 1 1131 8
 3166 09f2 01D5     		beq	a0,zero,.L130
1133:C:/Users/stapi/OneDrive/Desktop/GD32VW553/V1_MQTT_OK/GD32VW55X_Wifi_BLE_SDK/GD32VW55x_RELEASE_V1.0.2/MSDK/cloud/alicloud/src/infra/system\guider.c ****     }
 3167              		.loc 1 1133 9 is_stmt 1
 3168 09f4 97000000 		call	LITE_free_internal
 3168      E7800000 
 3169              	.LVL359:
 3170 09fc FDBD     		j	.L130
 3171              	.LVL360:
 3172              	.L144:
 3173              	.LBE178:
 3174              	.LBE182:
1420:C:/Users/stapi/OneDrive/Desktop/GD32VW553/V1_MQTT_OK/GD32VW55X_Wifi_BLE_SDK/GD32VW55x_RELEASE_V1.0.2/MSDK/cloud/alicloud/src/infra/system\guider.c ****     {
 3175              		.loc 1 1420 5
1420:C:/Users/stapi/OneDrive/Desktop/GD32VW553/V1_MQTT_OK/GD32VW55X_Wifi_BLE_SDK/GD32VW55x_RELEASE_V1.0.2/MSDK/cloud/alicloud/src/infra/system\guider.c ****     {
 3176              		.loc 1 1420 8 is_stmt 0
 3177 09fe FD57     		li	a5,-1
 3178 0a00 631CFA02 		bne	s4,a5,.L145
1422:C:/Users/stapi/OneDrive/Desktop/GD32VW553/V1_MQTT_OK/GD32VW55X_Wifi_BLE_SDK/GD32VW55x_RELEASE_V1.0.2/MSDK/cloud/alicloud/src/infra/system\guider.c ****     }
 3179              		.loc 1 1422 9 is_stmt 1
1422:C:/Users/stapi/OneDrive/Desktop/GD32VW553/V1_MQTT_OK/GD32VW55X_Wifi_BLE_SDK/GD32VW55x_RELEASE_V1.0.2/MSDK/cloud/alicloud/src/infra/system\guider.c ****     }
 3180              		.loc 1 1422 9
 3181 0a04 37050000 		lui	a0,%hi(.LC18)
 3182 0a08 13050500 		addi	a0,a0,%lo(.LC18)
 3183 0a0c 97000000 		call	HAL_Printf
 3183      E7800000 
 3184              	.LVL361:
1422:C:/Users/stapi/OneDrive/Desktop/GD32VW553/V1_MQTT_OK/GD32VW55X_Wifi_BLE_SDK/GD32VW55x_RELEASE_V1.0.2/MSDK/cloud/alicloud/src/infra/system\guider.c ****     }
 3185              		.loc 1 1422 9
 3186 0a14 37050000 		lui	a0,%hi(.LC91)
 3187 0a18 13050500 		addi	a0,a0,%lo(.LC91)
 3188 0a1c 97000000 		call	HAL_Printf
 3188      E7800000 
 3189              	.LVL362:
1422:C:/Users/stapi/OneDrive/Desktop/GD32VW553/V1_MQTT_OK/GD32VW55X_Wifi_BLE_SDK/GD32VW55x_RELEASE_V1.0.2/MSDK/cloud/alicloud/src/infra/system\guider.c ****     }
 3190              		.loc 1 1422 9
 3191 0a24 37050000 		lui	a0,%hi(.LC17)
 3192 0a28 13050500 		addi	a0,a0,%lo(.LC17)
 3193 0a2c 97000000 		call	HAL_Printf
 3193      E7800000 
 3194              	.LVL363:
1422:C:/Users/stapi/OneDrive/Desktop/GD32VW553/V1_MQTT_OK/GD32VW55X_Wifi_BLE_SDK/GD32VW55x_RELEASE_V1.0.2/MSDK/cloud/alicloud/src/infra/system\guider.c ****     }
 3195              		.loc 1 1422 9
 3196 0a34 6FF02FE4 		j	.L87
 3197              	.L145:
1426:C:/Users/stapi/OneDrive/Desktop/GD32VW553/V1_MQTT_OK/GD32VW55X_Wifi_BLE_SDK/GD32VW55x_RELEASE_V1.0.2/MSDK/cloud/alicloud/src/infra/system\guider.c ****     }
 3198              		.loc 1 1426 9
1426:C:/Users/stapi/OneDrive/Desktop/GD32VW553/V1_MQTT_OK/GD32VW55X_Wifi_BLE_SDK/GD32VW55x_RELEASE_V1.0.2/MSDK/cloud/alicloud/src/infra/system\guider.c ****     }
 3199              		.loc 1 1426 25 is_stmt 0
 3200 0a38 8547     		li	a5,1
 3201 0a3a 2301F400 		sb	a5,2(s0)
 3202 0a3e 6FF08FE3 		j	.L87
 3203              	.LVL364:
 3204              	.L154:
1276:C:/Users/stapi/OneDrive/Desktop/GD32VW553/V1_MQTT_OK/GD32VW55X_Wifi_BLE_SDK/GD32VW55x_RELEASE_V1.0.2/MSDK/cloud/alicloud/src/infra/system\guider.c ****     secure_mode_e secure_mode;
 3205              		.loc 1 1276 25
 3206 0a42 8144     		li	s1,0
 3207              	.LVL365:
 3208              	.L156:
1274:C:/Users/stapi/OneDrive/Desktop/GD32VW553/V1_MQTT_OK/GD32VW55X_Wifi_BLE_SDK/GD32VW55x_RELEASE_V1.0.2/MSDK/cloud/alicloud/src/infra/system\guider.c **** 
 3209              		.loc 1 1274 11
 3210 0a44 0149     		li	s2,0
1273:C:/Users/stapi/OneDrive/Desktop/GD32VW553/V1_MQTT_OK/GD32VW55X_Wifi_BLE_SDK/GD32VW55x_RELEASE_V1.0.2/MSDK/cloud/alicloud/src/infra/system\guider.c ****     char *p_dynamic_mqtt_url = NULL;
 3211              		.loc 1 1273 11
 3212 0a46 814A     		li	s5,0
 3213              	.LVL366:
 3214              	.L158:
1272:C:/Users/stapi/OneDrive/Desktop/GD32VW553/V1_MQTT_OK/GD32VW55X_Wifi_BLE_SDK/GD32VW55x_RELEASE_V1.0.2/MSDK/cloud/alicloud/src/infra/system\guider.c ****     char *p_guider_sign = NULL;
 3215              		.loc 1 1272 11
 3216 0a48 8149     		li	s3,0
 3217 0a4a 09BC     		j	.L234
 3218              	.LVL367:
 3219              	.L157:
1274:C:/Users/stapi/OneDrive/Desktop/GD32VW553/V1_MQTT_OK/GD32VW55X_Wifi_BLE_SDK/GD32VW55x_RELEASE_V1.0.2/MSDK/cloud/alicloud/src/infra/system\guider.c **** 
 3220              		.loc 1 1274 11
 3221 0a4c 0149     		li	s2,0
 3222 0a4e EDBF     		j	.L158
 3223              	.LVL368:
 3224              	.L105:
 3225              	.LBB183:
 3226              	.LBB144:
1251:C:/Users/stapi/OneDrive/Desktop/GD32VW553/V1_MQTT_OK/GD32VW55X_Wifi_BLE_SDK/GD32VW55x_RELEASE_V1.0.2/MSDK/cloud/alicloud/src/infra/system\guider.c ****     {
 3227              		.loc 1 1251 5 is_stmt 1
1251:C:/Users/stapi/OneDrive/Desktop/GD32VW553/V1_MQTT_OK/GD32VW55X_Wifi_BLE_SDK/GD32VW55x_RELEASE_V1.0.2/MSDK/cloud/alicloud/src/infra/system\guider.c ****     {
 3228              		.loc 1 1251 8 is_stmt 0
 3229 0a50 E31D0AB4 		bne	s4,zero,.L148
 3230 0a54 21B4     		j	.L234
 3231              	.LVL369:
 3232              	.L98:
 3233              	.LBE144:
 3234              	.LBE183:
 669:C:/Users/stapi/OneDrive/Desktop/GD32VW553/V1_MQTT_OK/GD32VW55X_Wifi_BLE_SDK/GD32VW55x_RELEASE_V1.0.2/MSDK/cloud/alicloud/src/infra/system\guider.c **** #else
 3235              		.loc 1 669 9 is_stmt 1
 676:C:/Users/stapi/OneDrive/Desktop/GD32VW553/V1_MQTT_OK/GD32VW55X_Wifi_BLE_SDK/GD32VW55x_RELEASE_V1.0.2/MSDK/cloud/alicloud/src/infra/system\guider.c **** }
 3236              		.loc 1 676 5
1368:C:/Users/stapi/OneDrive/Desktop/GD32VW553/V1_MQTT_OK/GD32VW55X_Wifi_BLE_SDK/GD32VW55x_RELEASE_V1.0.2/MSDK/cloud/alicloud/src/infra/system\guider.c ****     {
 3237              		.loc 1 1368 5
1381:C:/Users/stapi/OneDrive/Desktop/GD32VW553/V1_MQTT_OK/GD32VW55X_Wifi_BLE_SDK/GD32VW55x_RELEASE_V1.0.2/MSDK/cloud/alicloud/src/infra/system\guider.c ****     }
 3238              		.loc 1 1381 9
 3239              	.LBB184:
 3240              	.LBB179:
 986:C:/Users/stapi/OneDrive/Desktop/GD32VW553/V1_MQTT_OK/GD32VW55X_Wifi_BLE_SDK/GD32VW55x_RELEASE_V1.0.2/MSDK/cloud/alicloud/src/infra/system\guider.c ****     int len = 0;
 3241              		.loc 1 986 5
 987:C:/Users/stapi/OneDrive/Desktop/GD32VW553/V1_MQTT_OK/GD32VW55X_Wifi_BLE_SDK/GD32VW55x_RELEASE_V1.0.2/MSDK/cloud/alicloud/src/infra/system\guider.c **** 
 3242              		.loc 1 987 5
 989:C:/Users/stapi/OneDrive/Desktop/GD32VW553/V1_MQTT_OK/GD32VW55X_Wifi_BLE_SDK/GD32VW55x_RELEASE_V1.0.2/MSDK/cloud/alicloud/src/infra/system\guider.c ****     char timestamp_str[GUIDER_TS_LEN] = {0};
 3243              		.loc 1 989 5
 990:C:/Users/stapi/OneDrive/Desktop/GD32VW553/V1_MQTT_OK/GD32VW55X_Wifi_BLE_SDK/GD32VW55x_RELEASE_V1.0.2/MSDK/cloud/alicloud/src/infra/system\guider.c **** #ifdef REPORT_UUID_ENABLE
 3244              		.loc 1 990 5
 994:C:/Users/stapi/OneDrive/Desktop/GD32VW553/V1_MQTT_OK/GD32VW55X_Wifi_BLE_SDK/GD32VW55x_RELEASE_V1.0.2/MSDK/cloud/alicloud/src/infra/system\guider.c ****     bind_token_type_t token_type;
 3245              		.loc 1 994 19 is_stmt 0
 3246 0a56 7546     		li	a2,29
 3247 0a58 8145     		li	a1,0
 3248 0a5a E800     		addi	a0,sp,76
 990:C:/Users/stapi/OneDrive/Desktop/GD32VW553/V1_MQTT_OK/GD32VW55X_Wifi_BLE_SDK/GD32VW55x_RELEASE_V1.0.2/MSDK/cloud/alicloud/src/infra/system\guider.c **** #ifdef REPORT_UUID_ENABLE
 3249              		.loc 1 990 10
 3250 0a5c 02DC     		sw	zero,56(sp)
 3251 0a5e 02DE     		sw	zero,60(sp)
 3252 0a60 82C0     		sw	zero,64(sp)
 3253 0a62 82C2     		sw	zero,68(sp)
 994:C:/Users/stapi/OneDrive/Desktop/GD32VW553/V1_MQTT_OK/GD32VW55X_Wifi_BLE_SDK/GD32VW55x_RELEASE_V1.0.2/MSDK/cloud/alicloud/src/infra/system\guider.c ****     bind_token_type_t token_type;
 3254              		.loc 1 994 5 is_stmt 1
 994:C:/Users/stapi/OneDrive/Desktop/GD32VW553/V1_MQTT_OK/GD32VW55X_Wifi_BLE_SDK/GD32VW55x_RELEASE_V1.0.2/MSDK/cloud/alicloud/src/infra/system\guider.c ****     bind_token_type_t token_type;
 3255              		.loc 1 994 19 is_stmt 0
 3256 0a64 82C4     		sw	zero,72(sp)
 3257 0a66 97000000 		call	memset
 3257      E7800000 
 3258              	.LVL370:
 995:C:/Users/stapi/OneDrive/Desktop/GD32VW553/V1_MQTT_OK/GD32VW55X_Wifi_BLE_SDK/GD32VW55x_RELEASE_V1.0.2/MSDK/cloud/alicloud/src/infra/system\guider.c **** 
 3259              		.loc 1 995 5 is_stmt 1
 997:C:/Users/stapi/OneDrive/Desktop/GD32VW553/V1_MQTT_OK/GD32VW55X_Wifi_BLE_SDK/GD32VW55x_RELEASE_V1.0.2/MSDK/cloud/alicloud/src/infra/system\guider.c **** 
 3260              		.loc 1 997 5
 997:C:/Users/stapi/OneDrive/Desktop/GD32VW553/V1_MQTT_OK/GD32VW55X_Wifi_BLE_SDK/GD32VW55x_RELEASE_V1.0.2/MSDK/cloud/alicloud/src/infra/system\guider.c **** 
 3261              		.loc 1 997 10 is_stmt 0
 3262 0a6e 1306C003 		li	a2,60
 3263 0a72 8145     		li	a1,0
 3264 0a74 C818     		addi	a0,sp,116
 3265 0a76 82D8     		sw	zero,112(sp)
 3266 0a78 97000000 		call	memset
 3266      E7800000 
 3267              	.LVL371:
 999:C:/Users/stapi/OneDrive/Desktop/GD32VW553/V1_MQTT_OK/GD32VW55X_Wifi_BLE_SDK/GD32VW55x_RELEASE_V1.0.2/MSDK/cloud/alicloud/src/infra/system\guider.c ****     iotx_vendor_dev_reset_type_t reset_type = IOTX_VENDOR_DEV_RESET_TYPE_INVALID;
 3268              		.loc 1 999 5 is_stmt 1
 999:C:/Users/stapi/OneDrive/Desktop/GD32VW553/V1_MQTT_OK/GD32VW55X_Wifi_BLE_SDK/GD32VW55x_RELEASE_V1.0.2/MSDK/cloud/alicloud/src/infra/system\guider.c ****     iotx_vendor_dev_reset_type_t reset_type = IOTX_VENDOR_DEV_RESET_TYPE_INVALID;
 3269              		.loc 1 999 27 is_stmt 0
 3270 0a80 97000000 		call	sdk_impl_get_ctx
 3270      E7800000 
 3271              	.LVL372:
 3272              	.LBB164:
 3273              	.LBB165:
 625:C:/Users/stapi/OneDrive/Desktop/GD32VW553/V1_MQTT_OK/GD32VW55X_Wifi_BLE_SDK/GD32VW55x_RELEASE_V1.0.2/MSDK/cloud/alicloud/src/infra/system\guider.c **** 
 3274              		.loc 1 625 5
 3275 0a88 B7060000 		lui	a3,%hi(.LC52)
 3276 0a8c 370A0000 		lui	s4,%hi(.LC53)
 3277              	.LBE165:
 3278              	.LBE164:
1000:C:/Users/stapi/OneDrive/Desktop/GD32VW553/V1_MQTT_OK/GD32VW55X_Wifi_BLE_SDK/GD32VW55x_RELEASE_V1.0.2/MSDK/cloud/alicloud/src/infra/system\guider.c **** 
 3279              		.loc 1 1000 34
 3280 0a90 B547     		li	a5,13
 999:C:/Users/stapi/OneDrive/Desktop/GD32VW553/V1_MQTT_OK/GD32VW55X_Wifi_BLE_SDK/GD32VW55x_RELEASE_V1.0.2/MSDK/cloud/alicloud/src/infra/system\guider.c ****     iotx_vendor_dev_reset_type_t reset_type = IOTX_VENDOR_DEV_RESET_TYPE_INVALID;
 3281              		.loc 1 999 27
 3282 0a92 2A8B     		mv	s6,a0
 3283              	.LVL373:
1000:C:/Users/stapi/OneDrive/Desktop/GD32VW553/V1_MQTT_OK/GD32VW55X_Wifi_BLE_SDK/GD32VW55x_RELEASE_V1.0.2/MSDK/cloud/alicloud/src/infra/system\guider.c **** 
 3284              		.loc 1 1000 5 is_stmt 1
 3285              	.LBB168:
 3286              	.LBB166:
 625:C:/Users/stapi/OneDrive/Desktop/GD32VW553/V1_MQTT_OK/GD32VW55X_Wifi_BLE_SDK/GD32VW55x_RELEASE_V1.0.2/MSDK/cloud/alicloud/src/infra/system\guider.c **** 
 3287              		.loc 1 625 5 is_stmt 0
 3288 0a94 93860600 		addi	a3,a3,%lo(.LC52)
 3289 0a98 13060A00 		addi	a2,s4,%lo(.LC53)
 3290 0a9c C145     		li	a1,16
 3291 0a9e 2818     		addi	a0,sp,56
 3292              	.LVL374:
 3293              	.LBE166:
 3294              	.LBE168:
1000:C:/Users/stapi/OneDrive/Desktop/GD32VW553/V1_MQTT_OK/GD32VW55X_Wifi_BLE_SDK/GD32VW55x_RELEASE_V1.0.2/MSDK/cloud/alicloud/src/infra/system\guider.c **** 
 3295              		.loc 1 1000 34
 3296 0aa0 3EDA     		sw	a5,52(sp)
1002:C:/Users/stapi/OneDrive/Desktop/GD32VW553/V1_MQTT_OK/GD32VW55X_Wifi_BLE_SDK/GD32VW55x_RELEASE_V1.0.2/MSDK/cloud/alicloud/src/infra/system\guider.c **** 
 3297              		.loc 1 1002 5 is_stmt 1
 3298              	.LVL375:
 3299              	.LBB169:
 3300              	.LBB167:
 625:C:/Users/stapi/OneDrive/Desktop/GD32VW553/V1_MQTT_OK/GD32VW55X_Wifi_BLE_SDK/GD32VW55x_RELEASE_V1.0.2/MSDK/cloud/alicloud/src/infra/system\guider.c **** 
 3301              		.loc 1 625 5
 3302 0aa2 97000000 		call	HAL_Snprintf
 3302      E7800000 
 3303              	.LVL376:
 627:C:/Users/stapi/OneDrive/Desktop/GD32VW553/V1_MQTT_OK/GD32VW55X_Wifi_BLE_SDK/GD32VW55x_RELEASE_V1.0.2/MSDK/cloud/alicloud/src/infra/system\guider.c **** }
 3304              		.loc 1 627 5
 3305              	.LBE167:
 3306              	.LBE169:
1012:C:/Users/stapi/OneDrive/Desktop/GD32VW553/V1_MQTT_OK/GD32VW55X_Wifi_BLE_SDK/GD32VW55x_RELEASE_V1.0.2/MSDK/cloud/alicloud/src/infra/system\guider.c ****     if (rc < 0)
 3307              		.loc 1 1012 5
 3308              	.LBB170:
 3309              	.LBB157:
 850:C:/Users/stapi/OneDrive/Desktop/GD32VW553/V1_MQTT_OK/GD32VW55X_Wifi_BLE_SDK/GD32VW55x_RELEASE_V1.0.2/MSDK/cloud/alicloud/src/infra/system\guider.c ****     int host_name_len = 0;
 3310              		.loc 1 850 5
 851:C:/Users/stapi/OneDrive/Desktop/GD32VW553/V1_MQTT_OK/GD32VW55X_Wifi_BLE_SDK/GD32VW55x_RELEASE_V1.0.2/MSDK/cloud/alicloud/src/infra/system\guider.c ****     char *p_port = NULL;
 3311              		.loc 1 851 5
 852:C:/Users/stapi/OneDrive/Desktop/GD32VW553/V1_MQTT_OK/GD32VW55X_Wifi_BLE_SDK/GD32VW55x_RELEASE_V1.0.2/MSDK/cloud/alicloud/src/infra/system\guider.c ****     char *p_host = NULL;
 3312              		.loc 1 852 5
 853:C:/Users/stapi/OneDrive/Desktop/GD32VW553/V1_MQTT_OK/GD32VW55X_Wifi_BLE_SDK/GD32VW55x_RELEASE_V1.0.2/MSDK/cloud/alicloud/src/infra/system\guider.c **** 
 3313              		.loc 1 853 5
 855:C:/Users/stapi/OneDrive/Desktop/GD32VW553/V1_MQTT_OK/GD32VW55X_Wifi_BLE_SDK/GD32VW55x_RELEASE_V1.0.2/MSDK/cloud/alicloud/src/infra/system\guider.c ****     {
 3314              		.loc 1 855 5
 3315              	.LBB153:
 3316              	.LBB154:
 183:C:/Users/stapi/OneDrive/Desktop/GD32VW553/V1_MQTT_OK/GD32VW55X_Wifi_BLE_SDK/GD32VW55x_RELEASE_V1.0.2/MSDK/cloud/alicloud/src/infra/system\guider.c **** }
 3317              		.loc 1 183 5
 183:C:/Users/stapi/OneDrive/Desktop/GD32VW553/V1_MQTT_OK/GD32VW55X_Wifi_BLE_SDK/GD32VW55x_RELEASE_V1.0.2/MSDK/cloud/alicloud/src/infra/system\guider.c **** }
 3318              		.loc 1 183 12 is_stmt 0
 3319 0aaa 83A70900 		lw	a5,0(s3)
 3320              	.LBE154:
 3321              	.LBE153:
 855:C:/Users/stapi/OneDrive/Desktop/GD32VW553/V1_MQTT_OK/GD32VW55X_Wifi_BLE_SDK/GD32VW55x_RELEASE_V1.0.2/MSDK/cloud/alicloud/src/infra/system\guider.c ****     {
 3322              		.loc 1 855 8
 3323 0aae 0547     		li	a4,1
 3324 0ab0 E398E7CC 		bne	a5,a4,.L228
 857:C:/Users/stapi/OneDrive/Desktop/GD32VW553/V1_MQTT_OK/GD32VW55X_Wifi_BLE_SDK/GD32VW55x_RELEASE_V1.0.2/MSDK/cloud/alicloud/src/infra/system\guider.c ****         conn->host_name = SYS_GUIDER_MALLOC(sizeof(GUIDER_DIRECT_DOMAIN_DAILY));
 3325              		.loc 1 857 9 is_stmt 1
 857:C:/Users/stapi/OneDrive/Desktop/GD32VW553/V1_MQTT_OK/GD32VW55X_Wifi_BLE_SDK/GD32VW55x_RELEASE_V1.0.2/MSDK/cloud/alicloud/src/infra/system\guider.c ****         conn->host_name = SYS_GUIDER_MALLOC(sizeof(GUIDER_DIRECT_DOMAIN_DAILY));
 3326              		.loc 1 857 20 is_stmt 0
 3327 0ab4 9307B075 		li	a5,1883
 3328 0ab8 2310F400 		sh	a5,0(s0)
 858:C:/Users/stapi/OneDrive/Desktop/GD32VW553/V1_MQTT_OK/GD32VW55X_Wifi_BLE_SDK/GD32VW55x_RELEASE_V1.0.2/MSDK/cloud/alicloud/src/infra/system\guider.c ****         if (conn->host_name == NULL)
 3329              		.loc 1 858 9 is_stmt 1
 858:C:/Users/stapi/OneDrive/Desktop/GD32VW553/V1_MQTT_OK/GD32VW55X_Wifi_BLE_SDK/GD32VW55x_RELEASE_V1.0.2/MSDK/cloud/alicloud/src/infra/system\guider.c ****         if (conn->host_name == NULL)
 3330              		.loc 1 858 27 is_stmt 0
 3331 0abc 1306E002 		li	a2,46
 3332 0ac0 8145     		li	a1,0
 3333 0ac2 0145     		li	a0,0
 3334 0ac4 97000000 		call	LITE_malloc_internal
 3334      E7800000 
 3335              	.LVL377:
 858:C:/Users/stapi/OneDrive/Desktop/GD32VW553/V1_MQTT_OK/GD32VW55X_Wifi_BLE_SDK/GD32VW55x_RELEASE_V1.0.2/MSDK/cloud/alicloud/src/infra/system\guider.c ****         if (conn->host_name == NULL)
 3336              		.loc 1 858 25
 3337 0acc 48C0     		sw	a0,4(s0)
 859:C:/Users/stapi/OneDrive/Desktop/GD32VW553/V1_MQTT_OK/GD32VW55X_Wifi_BLE_SDK/GD32VW55x_RELEASE_V1.0.2/MSDK/cloud/alicloud/src/infra/system\guider.c ****         {
 3338              		.loc 1 859 9 is_stmt 1
 859:C:/Users/stapi/OneDrive/Desktop/GD32VW553/V1_MQTT_OK/GD32VW55X_Wifi_BLE_SDK/GD32VW55x_RELEASE_V1.0.2/MSDK/cloud/alicloud/src/infra/system\guider.c ****         {
 3339              		.loc 1 859 12 is_stmt 0
 3340 0ace E30D05DE 		beq	a0,zero,.L121
 863:C:/Users/stapi/OneDrive/Desktop/GD32VW553/V1_MQTT_OK/GD32VW55X_Wifi_BLE_SDK/GD32VW55x_RELEASE_V1.0.2/MSDK/cloud/alicloud/src/infra/system\guider.c ****                                      GUIDER_DIRECT_DOMAIN_DAILY);
 3341              		.loc 1 863 9 is_stmt 1
 3342 0ad2 37060000 		lui	a2,%hi(.LC72)
 3343 0ad6 13060600 		addi	a2,a2,%lo(.LC72)
 3344 0ada 9305E002 		li	a1,46
 3345 0ade 97000000 		call	iotx_guider_fill_conn_string
 3345      E7800000 
 3346              	.LVL378:
 3347              	.LBE157:
 3348              	.LBE170:
1013:C:/Users/stapi/OneDrive/Desktop/GD32VW553/V1_MQTT_OK/GD32VW55X_Wifi_BLE_SDK/GD32VW55x_RELEASE_V1.0.2/MSDK/cloud/alicloud/src/infra/system\guider.c ****     {
 3349              		.loc 1 1013 5
 3350              	.L122:
1020:C:/Users/stapi/OneDrive/Desktop/GD32VW553/V1_MQTT_OK/GD32VW55X_Wifi_BLE_SDK/GD32VW55x_RELEASE_V1.0.2/MSDK/cloud/alicloud/src/infra/system\guider.c **** 
 3351              		.loc 1 1020 5
 3352              	.LBB171:
 3353              	.LBB162:
 448:C:/Users/stapi/OneDrive/Desktop/GD32VW553/V1_MQTT_OK/GD32VW55X_Wifi_BLE_SDK/GD32VW55x_RELEASE_V1.0.2/MSDK/cloud/alicloud/src/infra/system\guider.c ****     char *hmac_source_buf = NULL;
 3354              		.loc 1 448 5
 449:C:/Users/stapi/OneDrive/Desktop/GD32VW553/V1_MQTT_OK/GD32VW55X_Wifi_BLE_SDK/GD32VW55x_RELEASE_V1.0.2/MSDK/cloud/alicloud/src/infra/system\guider.c **** 
 3355              		.loc 1 449 5
 451:C:/Users/stapi/OneDrive/Desktop/GD32VW553/V1_MQTT_OK/GD32VW55X_Wifi_BLE_SDK/GD32VW55x_RELEASE_V1.0.2/MSDK/cloud/alicloud/src/infra/system\guider.c ****     if (!hmac_source_buf)
 3356              		.loc 1 451 5
 451:C:/Users/stapi/OneDrive/Desktop/GD32VW553/V1_MQTT_OK/GD32VW55X_Wifi_BLE_SDK/GD32VW55x_RELEASE_V1.0.2/MSDK/cloud/alicloud/src/infra/system\guider.c ****     if (!hmac_source_buf)
 3357              		.loc 1 451 23 is_stmt 0
 3358 0ae6 13060010 		li	a2,256
 3359 0aea 8145     		li	a1,0
 3360 0aec 0145     		li	a0,0
 3361 0aee 97000000 		call	LITE_malloc_internal
 3361      E7800000 
 3362              	.LVL379:
 3363 0af6 AA89     		mv	s3,a0
 3364              	.LVL380:
 452:C:/Users/stapi/OneDrive/Desktop/GD32VW553/V1_MQTT_OK/GD32VW55X_Wifi_BLE_SDK/GD32VW55x_RELEASE_V1.0.2/MSDK/cloud/alicloud/src/infra/system\guider.c ****     {
 3365              		.loc 1 452 5 is_stmt 1
 3366              	.LBE162:
 3367              	.LBE171:
 3368              	.LBE179:
 3369              	.LBE184:
 3370              	.LBB185:
 3371              	.LBB145:
 3372              	.LBB140:
 3373              	.LBB136:
 689:C:/Users/stapi/OneDrive/Desktop/GD32VW553/V1_MQTT_OK/GD32VW55X_Wifi_BLE_SDK/GD32VW55x_RELEASE_V1.0.2/MSDK/cloud/alicloud/src/infra/system\guider.c **** 
 3374              		.loc 1 689 48 is_stmt 0
 3375 0af8 138B5401 		addi	s6,s1,21
 3376              	.LBE136:
 3377              	.LBE140:
 3378              	.LBE145:
 3379              	.LBE185:
 3380              	.LBB186:
 3381              	.LBB180:
 3382              	.LBB172:
 3383              	.LBB163:
 452:C:/Users/stapi/OneDrive/Desktop/GD32VW553/V1_MQTT_OK/GD32VW55X_Wifi_BLE_SDK/GD32VW55x_RELEASE_V1.0.2/MSDK/cloud/alicloud/src/infra/system\guider.c ****     {
 3384              		.loc 1 452 8
 3385 0afc E31105E0 		bne	a0,zero,.L131
 454:C:/Users/stapi/OneDrive/Desktop/GD32VW553/V1_MQTT_OK/GD32VW55X_Wifi_BLE_SDK/GD32VW55x_RELEASE_V1.0.2/MSDK/cloud/alicloud/src/infra/system\guider.c ****         return -1;
 3386              		.loc 1 454 9 is_stmt 1
 454:C:/Users/stapi/OneDrive/Desktop/GD32VW553/V1_MQTT_OK/GD32VW55X_Wifi_BLE_SDK/GD32VW55x_RELEASE_V1.0.2/MSDK/cloud/alicloud/src/infra/system\guider.c ****         return -1;
 3387              		.loc 1 454 9
 3388 0b00 37050000 		lui	a0,%hi(.LC18)
 3389              	.LVL381:
 3390 0b04 13050500 		addi	a0,a0,%lo(.LC18)
 3391 0b08 97000000 		call	HAL_Printf
 3391      E7800000 
 3392              	.LVL382:
 454:C:/Users/stapi/OneDrive/Desktop/GD32VW553/V1_MQTT_OK/GD32VW55X_Wifi_BLE_SDK/GD32VW55x_RELEASE_V1.0.2/MSDK/cloud/alicloud/src/infra/system\guider.c ****         return -1;
 3393              		.loc 1 454 9
 3394 0b10 37050000 		lui	a0,%hi(.LC35)
 3395 0b14 13050500 		addi	a0,a0,%lo(.LC35)
 3396 0b18 97000000 		call	HAL_Printf
 3396      E7800000 
 3397              	.LVL383:
 454:C:/Users/stapi/OneDrive/Desktop/GD32VW553/V1_MQTT_OK/GD32VW55X_Wifi_BLE_SDK/GD32VW55x_RELEASE_V1.0.2/MSDK/cloud/alicloud/src/infra/system\guider.c ****         return -1;
 3398              		.loc 1 454 9
 3399 0b20 37050000 		lui	a0,%hi(.LC17)
 3400 0b24 13050500 		addi	a0,a0,%lo(.LC17)
 3401 0b28 97000000 		call	HAL_Printf
 3401      E7800000 
 3402              	.LVL384:
 454:C:/Users/stapi/OneDrive/Desktop/GD32VW553/V1_MQTT_OK/GD32VW55X_Wifi_BLE_SDK/GD32VW55x_RELEASE_V1.0.2/MSDK/cloud/alicloud/src/infra/system\guider.c ****         return -1;
 3403              		.loc 1 454 9
 455:C:/Users/stapi/OneDrive/Desktop/GD32VW553/V1_MQTT_OK/GD32VW55X_Wifi_BLE_SDK/GD32VW55x_RELEASE_V1.0.2/MSDK/cloud/alicloud/src/infra/system\guider.c ****     }
 3404              		.loc 1 455 9
 3405              	.L132:
 3406              	.LBE163:
 3407              	.LBE172:
1022:C:/Users/stapi/OneDrive/Desktop/GD32VW553/V1_MQTT_OK/GD32VW55X_Wifi_BLE_SDK/GD32VW55x_RELEASE_V1.0.2/MSDK/cloud/alicloud/src/infra/system\guider.c ****                                  timestamp_str, p_guider_sign);
 3408              		.loc 1 1022 5
 3409 0b30 3C18     		addi	a5,sp,56
 3410 0b32 0947     		li	a4,2
 3411 0b34 8146     		li	a3,0
 3412 0b36 5E86     		mv	a2,s7
 3413 0b38 E685     		mv	a1,s9
 3414 0b3a 2685     		mv	a0,s1
 3415 0b3c 97000000 		call	guider_print_dev_guider_info.constprop.0
 3415      E7800000 
 3416              	.LVL385:
1025:C:/Users/stapi/OneDrive/Desktop/GD32VW553/V1_MQTT_OK/GD32VW55X_Wifi_BLE_SDK/GD32VW55x_RELEASE_V1.0.2/MSDK/cloud/alicloud/src/infra/system\guider.c ****     conn->username = SYS_GUIDER_MALLOC(len);
 3417              		.loc 1 1025 5
1025:C:/Users/stapi/OneDrive/Desktop/GD32VW553/V1_MQTT_OK/GD32VW55X_Wifi_BLE_SDK/GD32VW55x_RELEASE_V1.0.2/MSDK/cloud/alicloud/src/infra/system\guider.c ****     conn->username = SYS_GUIDER_MALLOC(len);
 3418              		.loc 1 1025 11 is_stmt 0
 3419 0b44 5A85     		mv	a0,s6
 3420 0b46 97000000 		call	strlen
 3420      E7800000 
 3421              	.LVL386:
 3422 0b4e AA89     		mv	s3,a0
1025:C:/Users/stapi/OneDrive/Desktop/GD32VW553/V1_MQTT_OK/GD32VW55X_Wifi_BLE_SDK/GD32VW55x_RELEASE_V1.0.2/MSDK/cloud/alicloud/src/infra/system\guider.c ****     conn->username = SYS_GUIDER_MALLOC(len);
 3423              		.loc 1 1025 40
 3424 0b50 2685     		mv	a0,s1
 3425 0b52 97000000 		call	strlen
 3425      E7800000 
 3426              	.LVL387:
1025:C:/Users/stapi/OneDrive/Desktop/GD32VW553/V1_MQTT_OK/GD32VW55X_Wifi_BLE_SDK/GD32VW55x_RELEASE_V1.0.2/MSDK/cloud/alicloud/src/infra/system\guider.c ****     conn->username = SYS_GUIDER_MALLOC(len);
 3427              		.loc 1 1025 38
 3428 0b5a AA99     		add	s3,s3,a0
1025:C:/Users/stapi/OneDrive/Desktop/GD32VW553/V1_MQTT_OK/GD32VW55X_Wifi_BLE_SDK/GD32VW55x_RELEASE_V1.0.2/MSDK/cloud/alicloud/src/infra/system\guider.c ****     conn->username = SYS_GUIDER_MALLOC(len);
 3429              		.loc 1 1025 67
 3430 0b5c 8909     		addi	s3,s3,2
 3431              	.LVL388:
1026:C:/Users/stapi/OneDrive/Desktop/GD32VW553/V1_MQTT_OK/GD32VW55X_Wifi_BLE_SDK/GD32VW55x_RELEASE_V1.0.2/MSDK/cloud/alicloud/src/infra/system\guider.c ****     if (conn->username == NULL)
 3432              		.loc 1 1026 5 is_stmt 1
1026:C:/Users/stapi/OneDrive/Desktop/GD32VW553/V1_MQTT_OK/GD32VW55X_Wifi_BLE_SDK/GD32VW55x_RELEASE_V1.0.2/MSDK/cloud/alicloud/src/infra/system\guider.c ****     if (conn->username == NULL)
 3433              		.loc 1 1026 22 is_stmt 0
 3434 0b5e 4E86     		mv	a2,s3
 3435 0b60 8145     		li	a1,0
 3436 0b62 0145     		li	a0,0
 3437 0b64 97000000 		call	LITE_malloc_internal
 3437      E7800000 
 3438              	.LVL389:
1026:C:/Users/stapi/OneDrive/Desktop/GD32VW553/V1_MQTT_OK/GD32VW55X_Wifi_BLE_SDK/GD32VW55x_RELEASE_V1.0.2/MSDK/cloud/alicloud/src/infra/system\guider.c ****     if (conn->username == NULL)
 3439              		.loc 1 1026 20
 3440 0b6c 48C4     		sw	a0,12(s0)
1027:C:/Users/stapi/OneDrive/Desktop/GD32VW553/V1_MQTT_OK/GD32VW55X_Wifi_BLE_SDK/GD32VW55x_RELEASE_V1.0.2/MSDK/cloud/alicloud/src/infra/system\guider.c ****     {
 3441              		.loc 1 1027 5 is_stmt 1
1027:C:/Users/stapi/OneDrive/Desktop/GD32VW553/V1_MQTT_OK/GD32VW55X_Wifi_BLE_SDK/GD32VW55x_RELEASE_V1.0.2/MSDK/cloud/alicloud/src/infra/system\guider.c ****     {
 3442              		.loc 1 1027 8 is_stmt 0
 3443 0b6e E30405E6 		beq	a0,zero,.L134
1033:C:/Users/stapi/OneDrive/Desktop/GD32VW553/V1_MQTT_OK/GD32VW55X_Wifi_BLE_SDK/GD32VW55x_RELEASE_V1.0.2/MSDK/cloud/alicloud/src/infra/system\guider.c ****                                  "%s&%s",
 3444              		.loc 1 1033 5 is_stmt 1
 3445 0b72 37060000 		lui	a2,%hi(.LC77)
 3446 0b76 2687     		mv	a4,s1
 3447 0b78 DA86     		mv	a3,s6
 3448 0b7a 13060600 		addi	a2,a2,%lo(.LC77)
 3449 0b7e CE85     		mv	a1,s3
 3450 0b80 97000000 		call	iotx_guider_fill_conn_string
 3450      E7800000 
 3451              	.LVL390:
1038:C:/Users/stapi/OneDrive/Desktop/GD32VW553/V1_MQTT_OK/GD32VW55X_Wifi_BLE_SDK/GD32VW55x_RELEASE_V1.0.2/MSDK/cloud/alicloud/src/infra/system\guider.c ****     conn->password = SYS_GUIDER_MALLOC(len);
 3452              		.loc 1 1038 5
1039:C:/Users/stapi/OneDrive/Desktop/GD32VW553/V1_MQTT_OK/GD32VW55X_Wifi_BLE_SDK/GD32VW55x_RELEASE_V1.0.2/MSDK/cloud/alicloud/src/infra/system\guider.c ****     if (conn->password == NULL)
 3453              		.loc 1 1039 5
1039:C:/Users/stapi/OneDrive/Desktop/GD32VW553/V1_MQTT_OK/GD32VW55X_Wifi_BLE_SDK/GD32VW55x_RELEASE_V1.0.2/MSDK/cloud/alicloud/src/infra/system\guider.c ****     if (conn->password == NULL)
 3454              		.loc 1 1039 22 is_stmt 0
 3455 0b88 13061003 		li	a2,49
 3456 0b8c 8145     		li	a1,0
 3457 0b8e 0145     		li	a0,0
 3458 0b90 97000000 		call	LITE_malloc_internal
 3458      E7800000 
 3459              	.LVL391:
1039:C:/Users/stapi/OneDrive/Desktop/GD32VW553/V1_MQTT_OK/GD32VW55X_Wifi_BLE_SDK/GD32VW55x_RELEASE_V1.0.2/MSDK/cloud/alicloud/src/infra/system\guider.c ****     if (conn->password == NULL)
 3460              		.loc 1 1039 20
 3461 0b98 08C8     		sw	a0,16(s0)
1040:C:/Users/stapi/OneDrive/Desktop/GD32VW553/V1_MQTT_OK/GD32VW55X_Wifi_BLE_SDK/GD32VW55x_RELEASE_V1.0.2/MSDK/cloud/alicloud/src/infra/system\guider.c ****     {
 3462              		.loc 1 1040 5 is_stmt 1
1040:C:/Users/stapi/OneDrive/Desktop/GD32VW553/V1_MQTT_OK/GD32VW55X_Wifi_BLE_SDK/GD32VW55x_RELEASE_V1.0.2/MSDK/cloud/alicloud/src/infra/system\guider.c ****     {
 3463              		.loc 1 1040 8 is_stmt 0
 3464 0b9a E30E05E2 		beq	a0,zero,.L134
1045:C:/Users/stapi/OneDrive/Desktop/GD32VW553/V1_MQTT_OK/GD32VW55X_Wifi_BLE_SDK/GD32VW55x_RELEASE_V1.0.2/MSDK/cloud/alicloud/src/infra/system\guider.c ****                                  "%s", p_guider_sign);
 3465              		.loc 1 1045 5 is_stmt 1
 3466 0b9e D686     		mv	a3,s5
 3467 0ba0 13060A00 		addi	a2,s4,%lo(.LC53)
 3468 0ba4 93051003 		li	a1,49
 3469 0ba8 97000000 		call	iotx_guider_fill_conn_string
 3469      E7800000 
 3470              	.LVL392:
1048:C:/Users/stapi/OneDrive/Desktop/GD32VW553/V1_MQTT_OK/GD32VW55X_Wifi_BLE_SDK/GD32VW55x_RELEASE_V1.0.2/MSDK/cloud/alicloud/src/infra/system\guider.c **** 
 3471              		.loc 1 1048 5
1048:C:/Users/stapi/OneDrive/Desktop/GD32VW553/V1_MQTT_OK/GD32VW55X_Wifi_BLE_SDK/GD32VW55x_RELEASE_V1.0.2/MSDK/cloud/alicloud/src/infra/system\guider.c **** 
 3472              		.loc 1 1048 21 is_stmt 0
 3473 0bb0 97000000 		call	iotx_ca_get
 3473      E7800000 
 3474              	.LVL393:
1048:C:/Users/stapi/OneDrive/Desktop/GD32VW553/V1_MQTT_OK/GD32VW55X_Wifi_BLE_SDK/GD32VW55x_RELEASE_V1.0.2/MSDK/cloud/alicloud/src/infra/system\guider.c **** 
 3475              		.loc 1 1048 19
 3476 0bb8 48C8     		sw	a0,20(s0)
1050:C:/Users/stapi/OneDrive/Desktop/GD32VW553/V1_MQTT_OK/GD32VW55X_Wifi_BLE_SDK/GD32VW55x_RELEASE_V1.0.2/MSDK/cloud/alicloud/src/infra/system\guider.c ****     if (conn->client_id == NULL)
 3477              		.loc 1 1050 5 is_stmt 1
1050:C:/Users/stapi/OneDrive/Desktop/GD32VW553/V1_MQTT_OK/GD32VW55X_Wifi_BLE_SDK/GD32VW55x_RELEASE_V1.0.2/MSDK/cloud/alicloud/src/infra/system\guider.c ****     if (conn->client_id == NULL)
 3478              		.loc 1 1050 23 is_stmt 0
 3479 0bba 13060018 		li	a2,384
 3480 0bbe 8145     		li	a1,0
 3481 0bc0 0145     		li	a0,0
 3482 0bc2 97000000 		call	LITE_malloc_internal
 3482      E7800000 
 3483              	.LVL394:
1050:C:/Users/stapi/OneDrive/Desktop/GD32VW553/V1_MQTT_OK/GD32VW55X_Wifi_BLE_SDK/GD32VW55x_RELEASE_V1.0.2/MSDK/cloud/alicloud/src/infra/system\guider.c ****     if (conn->client_id == NULL)
 3484              		.loc 1 1050 21
 3485 0bca 08C4     		sw	a0,8(s0)
1051:C:/Users/stapi/OneDrive/Desktop/GD32VW553/V1_MQTT_OK/GD32VW55X_Wifi_BLE_SDK/GD32VW55x_RELEASE_V1.0.2/MSDK/cloud/alicloud/src/infra/system\guider.c ****     {
 3486              		.loc 1 1051 5 is_stmt 1
1051:C:/Users/stapi/OneDrive/Desktop/GD32VW553/V1_MQTT_OK/GD32VW55X_Wifi_BLE_SDK/GD32VW55x_RELEASE_V1.0.2/MSDK/cloud/alicloud/src/infra/system\guider.c ****     {
 3487              		.loc 1 1051 8 is_stmt 0
 3488 0bcc E30505E0 		beq	a0,zero,.L134
1059:C:/Users/stapi/OneDrive/Desktop/GD32VW553/V1_MQTT_OK/GD32VW55X_Wifi_BLE_SDK/GD32VW55x_RELEASE_V1.0.2/MSDK/cloud/alicloud/src/infra/system\guider.c **** #endif
 3489              		.loc 1 1059 5 is_stmt 1
 3490              	.LVL395:
1062:C:/Users/stapi/OneDrive/Desktop/GD32VW553/V1_MQTT_OK/GD32VW55X_Wifi_BLE_SDK/GD32VW55x_RELEASE_V1.0.2/MSDK/cloud/alicloud/src/infra/system\guider.c ****     awss_get_token(token_str, RANDOM_STR_MAX_LEN, &token_type);
 3491              		.loc 1 1062 5
 3492 0bd0 4818     		addi	a0,sp,52
 3493 0bd2 97000000 		call	awss_check_reset
 3493      E7800000 
 3494              	.LVL396:
1063:C:/Users/stapi/OneDrive/Desktop/GD32VW553/V1_MQTT_OK/GD32VW55X_Wifi_BLE_SDK/GD32VW55x_RELEASE_V1.0.2/MSDK/cloud/alicloud/src/infra/system\guider.c **** 
 3495              		.loc 1 1063 5
 3496 0bda 1018     		addi	a2,sp,48
 3497 0bdc 93051002 		li	a1,33
 3498 0be0 A800     		addi	a0,sp,72
 3499 0be2 97000000 		call	awss_get_token
 3499      E7800000 
 3500              	.LVL397:
1065:C:/Users/stapi/OneDrive/Desktop/GD32VW553/V1_MQTT_OK/GD32VW55X_Wifi_BLE_SDK/GD32VW55x_RELEASE_V1.0.2/MSDK/cloud/alicloud/src/infra/system\guider.c ****     {
 3501              		.loc 1 1065 5
1065:C:/Users/stapi/OneDrive/Desktop/GD32VW553/V1_MQTT_OK/GD32VW55X_Wifi_BLE_SDK/GD32VW55x_RELEASE_V1.0.2/MSDK/cloud/alicloud/src/infra/system\guider.c ****     {
 3502              		.loc 1 1065 21 is_stmt 0
 3503 0bea D256     		lw	a3,52(sp)
1065:C:/Users/stapi/OneDrive/Desktop/GD32VW553/V1_MQTT_OK/GD32VW55X_Wifi_BLE_SDK/GD32VW55x_RELEASE_V1.0.2/MSDK/cloud/alicloud/src/infra/system\guider.c ****     {
 3504              		.loc 1 1065 8
 3505 0bec B547     		li	a5,13
 3506 0bee 4256     		lw	a2,48(sp)
 3507 0bf0 E382F6DC 		beq	a3,a5,.L135
1067:C:/Users/stapi/OneDrive/Desktop/GD32VW553/V1_MQTT_OK/GD32VW55X_Wifi_BLE_SDK/GD32VW55x_RELEASE_V1.0.2/MSDK/cloud/alicloud/src/infra/system\guider.c ****         {
 3508              		.loc 1 1067 9 is_stmt 1
1067:C:/Users/stapi/OneDrive/Desktop/GD32VW553/V1_MQTT_OK/GD32VW55X_Wifi_BLE_SDK/GD32VW55x_RELEASE_V1.0.2/MSDK/cloud/alicloud/src/infra/system\guider.c ****         {
 3509              		.loc 1 1067 12 is_stmt 0
 3510 0bf4 8547     		li	a5,1
 3511 0bf6 E3E3C7DA 		bgtu	a2,a5,.L136
1069:C:/Users/stapi/OneDrive/Desktop/GD32VW553/V1_MQTT_OK/GD32VW55X_Wifi_BLE_SDK/GD32VW55x_RELEASE_V1.0.2/MSDK/cloud/alicloud/src/infra/system\guider.c ****         }
 3512              		.loc 1 1069 13 is_stmt 1
 3513 0bfa 3287     		mv	a4,a2
 3514 0bfc 37060000 		lui	a2,%hi(.LC78)
 3515 0c00 BC00     		addi	a5,sp,72
 3516 0c02 13060600 		addi	a2,a2,%lo(.LC78)
 3517 0c06 93050004 		li	a1,64
 3518 0c0a 8818     		addi	a0,sp,112
 3519 0c0c 97000000 		call	HAL_Snprintf
 3519      E7800000 
 3520              	.LVL398:
 3521              	.L137:
1087:C:/Users/stapi/OneDrive/Desktop/GD32VW553/V1_MQTT_OK/GD32VW55X_Wifi_BLE_SDK/GD32VW55x_RELEASE_V1.0.2/MSDK/cloud/alicloud/src/infra/system\guider.c ****                                  "%s"
 3522              		.loc 1 1087 5
 3523 0c14 B7070000 		lui	a5,%hi(.LC82)
 3524 0c18 93870700 		addi	a5,a5,%lo(.LC82)
 3525 0c1c 3EC4     		sw	a5,8(sp)
 3526 0c1e 0844     		lw	a0,8(s0)
 3527 0c20 B7070000 		lui	a5,%hi(.LC83)
 3528 0c24 93870700 		addi	a5,a5,%lo(.LC83)
 3529 0c28 37060000 		lui	a2,%hi(.LC81)
 3530 0c2c E688     		mv	a7,s9
 3531 0c2e 13088103 		addi	a6,sp,56
 3532 0c32 0947     		li	a4,2
 3533 0c34 93866403 		addi	a3,s1,54
 3534 0c38 13060600 		addi	a2,a2,%lo(.LC81)
 3535 0c3c 93050018 		li	a1,384
 3536 0c40 3EC2     		sw	a5,4(sp)
 3537 0c42 5EC0     		sw	s7,0(sp)
 3538 0c44 9C18     		addi	a5,sp,112
 3539 0c46 97000000 		call	iotx_guider_fill_conn_string
 3539      E7800000 
 3540              	.LVL399:
1118:C:/Users/stapi/OneDrive/Desktop/GD32VW553/V1_MQTT_OK/GD32VW55X_Wifi_BLE_SDK/GD32VW55x_RELEASE_V1.0.2/MSDK/cloud/alicloud/src/infra/system\guider.c **** 
 3541              		.loc 1 1118 5
 3542              	.LBB173:
 3543              	.LBB174:
 567:C:/Users/stapi/OneDrive/Desktop/GD32VW553/V1_MQTT_OK/GD32VW55X_Wifi_BLE_SDK/GD32VW55x_RELEASE_V1.0.2/MSDK/cloud/alicloud/src/infra/system\guider.c **** 
 3544              		.loc 1 567 5
 569:C:/Users/stapi/OneDrive/Desktop/GD32VW553/V1_MQTT_OK/GD32VW55X_Wifi_BLE_SDK/GD32VW55x_RELEASE_V1.0.2/MSDK/cloud/alicloud/src/infra/system\guider.c ****     printf_parting_line();
 3545              		.loc 1 569 5
 569:C:/Users/stapi/OneDrive/Desktop/GD32VW553/V1_MQTT_OK/GD32VW55X_Wifi_BLE_SDK/GD32VW55x_RELEASE_V1.0.2/MSDK/cloud/alicloud/src/infra/system\guider.c ****     printf_parting_line();
 3546              		.loc 1 569 5
 569:C:/Users/stapi/OneDrive/Desktop/GD32VW553/V1_MQTT_OK/GD32VW55X_Wifi_BLE_SDK/GD32VW55x_RELEASE_V1.0.2/MSDK/cloud/alicloud/src/infra/system\guider.c ****     printf_parting_line();
 3547              		.loc 1 569 5
 570:C:/Users/stapi/OneDrive/Desktop/GD32VW553/V1_MQTT_OK/GD32VW55X_Wifi_BLE_SDK/GD32VW55x_RELEASE_V1.0.2/MSDK/cloud/alicloud/src/infra/system\guider.c ****     printf("%10s : %-s\r\n", "Host", conn->host_name);
 3548              		.loc 1 570 5
 3549 0c4e 97000000 		call	printf_parting_line.isra.0
 3549      E7800000 
 3550              	.LVL400:
 571:C:/Users/stapi/OneDrive/Desktop/GD32VW553/V1_MQTT_OK/GD32VW55X_Wifi_BLE_SDK/GD32VW55x_RELEASE_V1.0.2/MSDK/cloud/alicloud/src/infra/system\guider.c ****     printf("%10s : %d\r\n", "Port", conn->port);
 3551              		.loc 1 571 5
 3552 0c56 5040     		lw	a2,4(s0)
 3553 0c58 B7090000 		lui	s3,%hi(.LC85)
 3554 0c5c B7050000 		lui	a1,%hi(.LC84)
 3555 0c60 93850500 		addi	a1,a1,%lo(.LC84)
 3556 0c64 13850900 		addi	a0,s3,%lo(.LC85)
 3557 0c68 97000000 		call	printf
 3557      E7800000 
 3558              	.LVL401:
 572:C:/Users/stapi/OneDrive/Desktop/GD32VW553/V1_MQTT_OK/GD32VW55X_Wifi_BLE_SDK/GD32VW55x_RELEASE_V1.0.2/MSDK/cloud/alicloud/src/infra/system\guider.c **** #if CONFIG_GUIDER_DUMP_SECRET
 3559              		.loc 1 572 5
 3560 0c70 03560400 		lhu	a2,0(s0)
 3561 0c74 B7050000 		lui	a1,%hi(.LC86)
 3562 0c78 37050000 		lui	a0,%hi(.LC87)
 3563 0c7c 93850500 		addi	a1,a1,%lo(.LC86)
 3564 0c80 13050500 		addi	a0,a0,%lo(.LC87)
 3565 0c84 97000000 		call	printf
 3565      E7800000 
 3566              	.LVL402:
 577:C:/Users/stapi/OneDrive/Desktop/GD32VW553/V1_MQTT_OK/GD32VW55X_Wifi_BLE_SDK/GD32VW55x_RELEASE_V1.0.2/MSDK/cloud/alicloud/src/infra/system\guider.c ****     if (conn->pub_key)
 3567              		.loc 1 577 5
 3568 0c8c 1044     		lw	a2,8(s0)
 3569 0c8e B7050000 		lui	a1,%hi(.LC88)
 3570 0c92 13850900 		addi	a0,s3,%lo(.LC85)
 3571 0c96 93850500 		addi	a1,a1,%lo(.LC88)
 3572 0c9a 97000000 		call	HAL_Printf
 3572      E7800000 
 3573              	.LVL403:
 578:C:/Users/stapi/OneDrive/Desktop/GD32VW553/V1_MQTT_OK/GD32VW55X_Wifi_BLE_SDK/GD32VW55x_RELEASE_V1.0.2/MSDK/cloud/alicloud/src/infra/system\guider.c ****     {
 3574              		.loc 1 578 5
 578:C:/Users/stapi/OneDrive/Desktop/GD32VW553/V1_MQTT_OK/GD32VW55X_Wifi_BLE_SDK/GD32VW55x_RELEASE_V1.0.2/MSDK/cloud/alicloud/src/infra/system\guider.c ****     {
 3575              		.loc 1 578 13 is_stmt 0
 3576 0ca2 83294401 		lw	s3,20(s0)
 578:C:/Users/stapi/OneDrive/Desktop/GD32VW553/V1_MQTT_OK/GD32VW55X_Wifi_BLE_SDK/GD32VW55x_RELEASE_V1.0.2/MSDK/cloud/alicloud/src/infra/system\guider.c ****     {
 3577              		.loc 1 578 8
 3578 0ca6 638B0902 		beq	s3,zero,.L138
 580:C:/Users/stapi/OneDrive/Desktop/GD32VW553/V1_MQTT_OK/GD32VW55X_Wifi_BLE_SDK/GD32VW55x_RELEASE_V1.0.2/MSDK/cloud/alicloud/src/infra/system\guider.c ****         if (pub_key_len > 63)
 3579              		.loc 1 580 9 is_stmt 1
 580:C:/Users/stapi/OneDrive/Desktop/GD32VW553/V1_MQTT_OK/GD32VW55X_Wifi_BLE_SDK/GD32VW55x_RELEASE_V1.0.2/MSDK/cloud/alicloud/src/infra/system\guider.c ****         if (pub_key_len > 63)
 3580              		.loc 1 580 23 is_stmt 0
 3581 0caa 4E85     		mv	a0,s3
 3582 0cac 97000000 		call	strlen
 3582      E7800000 
 3583              	.LVL404:
 581:C:/Users/stapi/OneDrive/Desktop/GD32VW553/V1_MQTT_OK/GD32VW55X_Wifi_BLE_SDK/GD32VW55x_RELEASE_V1.0.2/MSDK/cloud/alicloud/src/infra/system\guider.c ****             HAL_Printf("%10s : ('... %.16s ...')\r\n", "CA", conn->pub_key + strlen(conn->pub_key) 
 3584              		.loc 1 581 9 is_stmt 1
 581:C:/Users/stapi/OneDrive/Desktop/GD32VW553/V1_MQTT_OK/GD32VW55X_Wifi_BLE_SDK/GD32VW55x_RELEASE_V1.0.2/MSDK/cloud/alicloud/src/infra/system\guider.c ****             HAL_Printf("%10s : ('... %.16s ...')\r\n", "CA", conn->pub_key + strlen(conn->pub_key) 
 3585              		.loc 1 581 12 is_stmt 0
 3586 0cb4 9307F003 		li	a5,63
 3587 0cb8 63F2A702 		bleu	a0,a5,.L138
 582:C:/Users/stapi/OneDrive/Desktop/GD32VW553/V1_MQTT_OK/GD32VW55X_Wifi_BLE_SDK/GD32VW55x_RELEASE_V1.0.2/MSDK/cloud/alicloud/src/infra/system\guider.c ****     }
 3588              		.loc 1 582 13 is_stmt 1
 582:C:/Users/stapi/OneDrive/Desktop/GD32VW553/V1_MQTT_OK/GD32VW55X_Wifi_BLE_SDK/GD32VW55x_RELEASE_V1.0.2/MSDK/cloud/alicloud/src/infra/system\guider.c ****     }
 3589              		.loc 1 582 100 is_stmt 0
 3590 0cbc 130515FC 		addi	a0,a0,-63
 3591              	.LVL405:
 582:C:/Users/stapi/OneDrive/Desktop/GD32VW553/V1_MQTT_OK/GD32VW55X_Wifi_BLE_SDK/GD32VW55x_RELEASE_V1.0.2/MSDK/cloud/alicloud/src/infra/system\guider.c ****     }
 3592              		.loc 1 582 13
 3593 0cc0 3386A900 		add	a2,s3,a0
 3594 0cc4 B7050000 		lui	a1,%hi(.LC89)
 3595 0cc8 37050000 		lui	a0,%hi(.LC90)
 3596              	.LVL406:
 3597 0ccc 93850500 		addi	a1,a1,%lo(.LC89)
 3598 0cd0 13050500 		addi	a0,a0,%lo(.LC90)
 3599 0cd4 97000000 		call	HAL_Printf
 3599      E7800000 
 3600              	.LVL407:
 3601              	.L138:
 585:C:/Users/stapi/OneDrive/Desktop/GD32VW553/V1_MQTT_OK/GD32VW55X_Wifi_BLE_SDK/GD32VW55x_RELEASE_V1.0.2/MSDK/cloud/alicloud/src/infra/system\guider.c **** }
 3602              		.loc 1 585 5 is_stmt 1
 3603 0cdc 97000000 		call	printf_parting_line.isra.0
 3603      E7800000 
 3604              	.LVL408:
 3605              	.LBE174:
 3606              	.LBE173:
1120:C:/Users/stapi/OneDrive/Desktop/GD32VW553/V1_MQTT_OK/GD32VW55X_Wifi_BLE_SDK/GD32VW55x_RELEASE_V1.0.2/MSDK/cloud/alicloud/src/infra/system\guider.c **** 
 3607              		.loc 1 1120 12 is_stmt 0
 3608 0ce4 014A     		li	s4,0
 3609              	.LBB176:
 3610              	.LBB175:
 586:C:/Users/stapi/OneDrive/Desktop/GD32VW553/V1_MQTT_OK/GD32VW55X_Wifi_BLE_SDK/GD32VW55x_RELEASE_V1.0.2/MSDK/cloud/alicloud/src/infra/system\guider.c **** 
 3611              		.loc 1 586 1
 3612 0ce6 11B9     		j	.L130
 3613              	.LBE175:
 3614              	.LBE176:
 3615              	.LBE180:
 3616              	.LBE186:
 3617              		.cfi_endproc
 3618              	.LFE48:
 3620              		.globl	domain_mqtt_direct_pre
 3621              		.section	.rodata.str1.4,"aMS",@progbits,1
 3622              		.align	2
 3623              	.LC92:
 3624 0000 696F742D 		.string	"iot-test-sg-pre.iot-as-mqtt.unify.aliyuncs.com"
 3624      74657374 
 3624      2D73672D 
 3624      7072652E 
 3624      696F742D 
 3625 002f 00       		.align	2
 3626              	.LC93:
 3627 0030 7072652E 		.string	"pre.Japan"
 3627      4A617061 
 3627      6E00
 3628 003a 0000     		.align	2
 3629              	.LC94:
 3630 003c 7072652E 		.string	"pre.America.east"
 3630      416D6572 
 3630      6963612E 
 3630      65617374 
 3630      00
 3631 004d 000000   		.align	2
 3632              	.LC95:
 3633 0050 696F742D 		.string	"iot-test-de-pre.iot-as-mqtt.unify.aliyuncs.com"
 3633      74657374 
 3633      2D64652D 
 3633      7072652E 
 3633      696F742D 
 3634 007f 00       		.align	2
 3635              	.LC96:
 3636 0080 7072652E 		.string	"pre.America.west"
 3636      416D6572 
 3636      6963612E 
 3636      77657374 
 3636      00
 3637              		.globl	domain_mqtt_direct
 3638 0091 000000   		.align	2
 3639              	.LC97:
 3640 0094 696F742D 		.string	"iot-as-mqtt.cn-shanghai.aliyuncs.com"
 3640      61732D6D 
 3640      7174742E 
 3640      636E2D73 
 3640      68616E67 
 3641 00b9 000000   		.align	2
 3642              	.LC98:
 3643 00bc 696F742D 		.string	"iot-as-mqtt.ap-southeast-1.aliyuncs.com"
 3643      61732D6D 
 3643      7174742E 
 3643      61702D73 
 3643      6F757468 
 3644              		.align	2
 3645              	.LC99:
 3646 00e4 696F742D 		.string	"iot-as-mqtt.ap-northeast-1.aliyuncs.com"
 3646      61732D6D 
 3646      7174742E 
 3646      61702D6E 
 3646      6F727468 
 3647              		.align	2
 3648              	.LC100:
 3649 010c 696F742D 		.string	"iot-as-mqtt.us-east-1.aliyuncs.com"
 3649      61732D6D 
 3649      7174742E 
 3649      75732D65 
 3649      6173742D 
 3650 012f 00       		.align	2
 3651              	.LC101:
 3652 0130 696F742D 		.string	"iot-as-mqtt.eu-central-1.aliyuncs.com"
 3652      61732D6D 
 3652      7174742E 
 3652      65752D63 
 3652      656E7472 
 3653 0156 0000     		.align	2
 3654              	.LC102:
 3655 0158 696F742D 		.string	"iot-as-mqtt.us-west-1.aliyuncs.com"
 3655      61732D6D 
 3655      7174742E 
 3655      75732D77 
 3655      6573742D 
 3656              		.section	.bss.iotx_domain_custom,"aw",@nobits
 3657              		.align	2
 3658              		.set	.LANCHOR8,. + 0
 3661              	iotx_domain_custom:
 3662 0000 00000000 		.zero	180
 3662      00000000 
 3662      00000000 
 3662      00000000 
 3662      00000000 
 3663              		.section	.data.domain_mqtt_direct,"aw"
 3664              		.align	2
 3665              		.set	.LANCHOR7,. + 0
 3668              	domain_mqtt_direct:
 3669 0000 00000000 		.word	.LC97
 3670 0004 00000000 		.word	.LC98
 3671 0008 00000000 		.word	.LC99
 3672 000c 00000000 		.word	.LC100
 3673 0010 00000000 		.word	.LC101
 3674 0014 00000000 		.word	.LC102
 3675              		.section	.data.domain_mqtt_direct_pre,"aw"
 3676              		.align	2
 3677              		.set	.LANCHOR6,. + 0
 3680              	domain_mqtt_direct_pre:
 3681 0000 00000000 		.word	.LC36
 3682 0004 00000000 		.word	.LC92
 3683 0008 00000000 		.word	.LC93
 3684 000c 00000000 		.word	.LC94
 3685 0010 00000000 		.word	.LC95
 3686 0014 00000000 		.word	.LC96
 3687              		.section	.rodata.__FUNCTION__.5,"a"
 3688              		.align	2
 3689              		.set	.LANCHOR13,. + 0
 3692              	__FUNCTION__.5:
 3693 0000 67756964 		.string	"guider_get_conn_info"
 3693      65725F67 
 3693      65745F63 
 3693      6F6E6E5F 
 3693      696E666F 
 3694              		.section	.rodata.__FUNCTION__.8,"a"
 3695              		.align	2
 3696              		.set	.LANCHOR5,. + 0
 3699              	__FUNCTION__.8:
 3700 0000 696F7478 		.string	"iotx_guider_clear_dynamic_url"
 3700      5F677569 
 3700      6465725F 
 3700      636C6561 
 3700      725F6479 
 3701              		.section	.rodata.__FUNCTION__.9,"a"
 3702              		.align	2
 3703              		.set	.LANCHOR3,. + 0
 3706              	__FUNCTION__.9:
 3707 0000 696F7478 		.string	"iotx_guider_set_dynamic_mqtt_url"
 3707      5F677569 
 3707      6465725F 
 3707      7365745F 
 3707      64796E61 
 3708              		.section	.rodata.__func__.1,"a"
 3709              		.align	2
 3710              		.set	.LANCHOR15,. + 0
 3713              	__func__.1:
 3714 0000 5F63616C 		.string	"_calc_hmac_signature"
 3714      635F686D 
 3714      61635F73 
 3714      69676E61 
 3714      74757265 
 3715              		.section	.rodata.__func__.2,"a"
 3716              		.align	2
 3717              		.set	.LANCHOR14,. + 0
 3720              	__func__.2:
 3721 0000 67756964 		.string	"guider_get_host_port"
 3721      65725F67 
 3721      65745F68 
 3721      6F73745F 
 3721      706F7274 
 3722              		.section	.rodata.__func__.4,"a"
 3723              		.align	2
 3724              		.set	.LANCHOR12,. + 0
 3727              	__func__.4:
 3728 0000 67756964 		.string	"guider_set_auth_req_str"
 3728      65725F73 
 3728      65745F61 
 3728      7574685F 
 3728      7265715F 
 3729              		.section	.rodata.__func__.6,"a"
 3730              		.align	2
 3731              		.set	.LANCHOR10,. + 0
 3734              	__func__.6:
 3735 0000 696F7478 		.string	"iotx_guider_authenticate"
 3735      5F677569 
 3735      6465725F 
 3735      61757468 
 3735      656E7469 
 3736              		.section	.rodata.__func__.7,"a"
 3737              		.align	2
 3738              		.set	.LANCHOR9,. + 0
 3741              	__func__.7:
 3742 0000 696F7478 		.string	"iotx_guider_fill_conn_string"
 3742      5F677569 
 3742      6465725F 
 3742      66696C6C 
 3742      5F636F6E 
 3743              		.section	.sbss.direct_connect_count,"aw",@nobits
 3744              		.set	.LANCHOR1,. + 0
 3747              	direct_connect_count:
 3748 0000 00       		.zero	1
 3749              		.section	.sbss.is_request_mqtt_host_by_regionid,"aw",@nobits
 3750              		.set	.LANCHOR11,. + 0
 3753              	is_request_mqtt_host_by_regionid:
 3754 0000 00       		.zero	1
 3755              		.section	.sbss.secure_mode_str.3,"aw",@nobits
 3756              		.align	2
 3757              		.set	.LANCHOR0,. + 0
 3760              	secure_mode_str.3:
 3761 0000 00000000 		.zero	4
 3762              		.section	.sdata.bootup_connect_method,"aw"
 3763              		.align	2
 3764              		.set	.LANCHOR4,. + 0
 3767              	bootup_connect_method:
 3768 0000 01000000 		.word	1
 3769              		.section	.sdata.guider_env,"aw"
 3770              		.align	2
 3771              		.set	.LANCHOR2,. + 0
 3774              	guider_env:
 3775 0000 03000000 		.word	3
 3776              		.text
 3777              	.Letext0:
 3778              		.file 2 "c:\\users\\stapi\\onedrive\\desktop\\gd32vw553\\embeddedbuilder_v1.4.7.26843\\tools\\nucl
 3779              		.file 3 "c:\\users\\stapi\\onedrive\\desktop\\gd32vw553\\embeddedbuilder_v1.4.7.26843\\tools\\nucl
 3780              		.file 4 "..\\..\\..\\..\\cloud\\alicloud\\include/iot_export.h"
 3781              		.file 5 "..\\..\\..\\..\\cloud\\alicloud\\include/exports/iot_export_errno.h"
 3782              		.file 6 "..\\..\\..\\..\\cloud\\alicloud\\include/exports/iot_export_awss.h"
 3783              		.file 7 "c:\\users\\stapi\\onedrive\\desktop\\gd32vw553\\embeddedbuilder_v1.4.7.26843\\tools\\nucl
 3784              		.file 8 "..\\..\\..\\..\\cloud\\alicloud\\include/exports/iot_export_guider.h"
 3785              		.file 9 "..\\..\\..\\..\\cloud\\alicloud\\src\\services\\dev_bind/passwd.h"
 3786              		.file 10 "..\\..\\..\\..\\cloud\\alicloud\\src\\infra\\utils\\misc/utils_net.h"
 3787              		.file 11 "..\\..\\..\\..\\cloud\\alicloud\\src\\infra\\utils\\misc/utils_httpc.h"
 3788              		.file 12 "..\\..\\..\\..\\cloud\\alicloud\\src\\infra\\system/iotx_system.h"
 3789              		.file 13 "..\\..\\..\\..\\cloud\\alicloud\\src\\sdk-impl/sdk-impl_internal.h"
 3790              		.file 14 "C:/Users/stapi/OneDrive/Desktop/GD32VW553/V1_MQTT_OK/GD32VW55X_Wifi_BLE_SDK/GD32VW55x_RE
 3791              		.file 15 "..\\..\\..\\..\\cloud\\alicloud\\include/imports/iot_import_kv.h"
 3792              		.file 16 "..\\..\\..\\..\\cloud\\alicloud\\include/iot_import.h"
 3793              		.file 17 "c:\\users\\stapi\\onedrive\\desktop\\gd32vw553\\embeddedbuilder_v1.4.7.26843\\tools\\nuc
 3794              		.file 18 "..\\..\\..\\..\\cloud\\alicloud\\src\\infra\\utils/iotx_utils.h"
 3795              		.file 19 "c:\\users\\stapi\\onedrive\\desktop\\gd32vw553\\embeddedbuilder_v1.4.7.26843\\tools\\nuc
 3796              		.file 20 "..\\..\\..\\..\\cloud\\alicloud\\src\\infra\\log/iotx_log.h"
 3797              		.file 21 "..\\..\\..\\..\\cloud\\alicloud\\src\\infra\\utils\\digest/utils_hmac.h"
 3798              		.file 22 "c:\\users\\stapi\\onedrive\\desktop\\gd32vw553\\embeddedbuilder_v1.4.7.26843\\tools\\nuc
 3799              		.file 23 "..\\..\\..\\..\\cloud\\alicloud\\include/imports/iot_import_product.h"
 3800              		.file 24 "<built-in>"
DEFINED SYMBOLS
                            *ABS*:0000000000000000 guider.c
C:\Users\stapi\AppData\Local\Temp\ccJ15vUB.s:16     .text.printf_parting_line.isra.0:0000000000000000 printf_parting_line.isra.0
C:\Users\stapi\AppData\Local\Temp\ccJ15vUB.s:20     .text.printf_parting_line.isra.0:0000000000000000 .L0 
C:\Users\stapi\AppData\Local\Temp\ccJ15vUB.s:21     .text.printf_parting_line.isra.0:0000000000000000 .L0 
C:\Users\stapi\AppData\Local\Temp\ccJ15vUB.s:22     .text.printf_parting_line.isra.0:0000000000000000 .L0 
C:\Users\stapi\AppData\Local\Temp\ccJ15vUB.s:23     .text.printf_parting_line.isra.0:0000000000000000 .L0 
C:\Users\stapi\AppData\Local\Temp\ccJ15vUB.s:27     .text.printf_parting_line.isra.0:0000000000000010 .L0 
C:\Users\stapi\AppData\Local\Temp\ccJ15vUB.s:76     .text.guider_print_dev_guider_info.constprop.0:0000000000000000 guider_print_dev_guider_info.constprop.0
C:\Users\stapi\AppData\Local\Temp\ccJ15vUB.s:79     .text.guider_print_dev_guider_info.constprop.0:0000000000000000 .L0 
C:\Users\stapi\AppData\Local\Temp\ccJ15vUB.s:81     .text.guider_print_dev_guider_info.constprop.0:0000000000000000 .L0 
C:\Users\stapi\AppData\Local\Temp\ccJ15vUB.s:82     .text.guider_print_dev_guider_info.constprop.0:0000000000000008 .L0 
C:\Users\stapi\AppData\Local\Temp\ccJ15vUB.s:83     .text.guider_print_dev_guider_info.constprop.0:0000000000000008 .L0 
C:\Users\stapi\AppData\Local\Temp\ccJ15vUB.s:84     .text.guider_print_dev_guider_info.constprop.0:0000000000000008 .L0 
C:\Users\stapi\AppData\Local\Temp\ccJ15vUB.s:85     .text.guider_print_dev_guider_info.constprop.0:0000000000000008 .L0 
C:\Users\stapi\AppData\Local\Temp\ccJ15vUB.s:86     .text.guider_print_dev_guider_info.constprop.0:0000000000000008 .L0 
C:\Users\stapi\AppData\Local\Temp\ccJ15vUB.s:87     .text.guider_print_dev_guider_info.constprop.0:0000000000000008 .L0 
C:\Users\stapi\AppData\Local\Temp\ccJ15vUB.s:88     .text.guider_print_dev_guider_info.constprop.0:0000000000000008 .L0 
C:\Users\stapi\AppData\Local\Temp\ccJ15vUB.s:89     .text.guider_print_dev_guider_info.constprop.0:0000000000000008 .L0 
C:\Users\stapi\AppData\Local\Temp\ccJ15vUB.s:90     .text.guider_print_dev_guider_info.constprop.0:0000000000000008 .L0 
C:\Users\stapi\AppData\Local\Temp\ccJ15vUB.s:93     .text.guider_print_dev_guider_info.constprop.0:0000000000000008 .L0 
C:\Users\stapi\AppData\Local\Temp\ccJ15vUB.s:94     .text.guider_print_dev_guider_info.constprop.0:0000000000000008 .L0 
C:\Users\stapi\AppData\Local\Temp\ccJ15vUB.s:95     .text.guider_print_dev_guider_info.constprop.0:0000000000000008 .L0 
C:\Users\stapi\AppData\Local\Temp\ccJ15vUB.s:96     .text.guider_print_dev_guider_info.constprop.0:000000000000000a .L0 
C:\Users\stapi\AppData\Local\Temp\ccJ15vUB.s:98     .text.guider_print_dev_guider_info.constprop.0:000000000000000a .L0 
C:\Users\stapi\AppData\Local\Temp\ccJ15vUB.s:102    .text.guider_print_dev_guider_info.constprop.0:0000000000000010 .L0 
C:\Users\stapi\AppData\Local\Temp\ccJ15vUB.s:109    .text.guider_print_dev_guider_info.constprop.0:0000000000000018 .L0 
C:\Users\stapi\AppData\Local\Temp\ccJ15vUB.s:114    .text.guider_print_dev_guider_info.constprop.0:0000000000000022 .L0 
C:\Users\stapi\AppData\Local\Temp\ccJ15vUB.s:117    .text.guider_print_dev_guider_info.constprop.0:000000000000002a .L0 
C:\Users\stapi\AppData\Local\Temp\ccJ15vUB.s:120    .text.guider_print_dev_guider_info.constprop.0:0000000000000032 .L0 
C:\Users\stapi\AppData\Local\Temp\ccJ15vUB.s:128    .text.guider_print_dev_guider_info.constprop.0:000000000000004c .L0 
C:\Users\stapi\AppData\Local\Temp\ccJ15vUB.s:135    .text.guider_print_dev_guider_info.constprop.0:0000000000000064 .L0 
C:\Users\stapi\AppData\Local\Temp\ccJ15vUB.s:142    .text.guider_print_dev_guider_info.constprop.0:000000000000007a .L0 
C:\Users\stapi\AppData\Local\Temp\ccJ15vUB.s:149    .text.guider_print_dev_guider_info.constprop.0:0000000000000090 .L0 
C:\Users\stapi\AppData\Local\Temp\ccJ15vUB.s:156    .text.guider_print_dev_guider_info.constprop.0:00000000000000a6 .L0 
C:\Users\stapi\AppData\Local\Temp\ccJ15vUB.s:158    .text.guider_print_dev_guider_info.constprop.0:00000000000000aa .L0 
C:\Users\stapi\AppData\Local\Temp\ccJ15vUB.s:160    .text.guider_print_dev_guider_info.constprop.0:00000000000000ac .L0 
C:\Users\stapi\AppData\Local\Temp\ccJ15vUB.s:163    .text.guider_print_dev_guider_info.constprop.0:00000000000000b2 .L0 
C:\Users\stapi\AppData\Local\Temp\ccJ15vUB.s:173    .text.guider_print_dev_guider_info.constprop.0:00000000000000c8 .L0 
C:\Users\stapi\AppData\Local\Temp\ccJ15vUB.s:174    .text.guider_print_dev_guider_info.constprop.0:00000000000000c8 .L0 
C:\Users\stapi\AppData\Local\Temp\ccJ15vUB.s:175    .text.guider_print_dev_guider_info.constprop.0:00000000000000c8 .L0 
C:\Users\stapi\AppData\Local\Temp\ccJ15vUB.s:183    .text.guider_print_dev_guider_info.constprop.0:00000000000000de .L0 
C:\Users\stapi\AppData\Local\Temp\ccJ15vUB.s:184    .text.guider_print_dev_guider_info.constprop.0:00000000000000de .L0 
C:\Users\stapi\AppData\Local\Temp\ccJ15vUB.s:188    .text.guider_print_dev_guider_info.constprop.0:00000000000000e6 .L0 
C:\Users\stapi\AppData\Local\Temp\ccJ15vUB.s:190    .text.guider_print_dev_guider_info.constprop.0:00000000000000e8 .L0 
C:\Users\stapi\AppData\Local\Temp\ccJ15vUB.s:194    .text.guider_print_dev_guider_info.constprop.0:00000000000000e8 .L0 
C:\Users\stapi\AppData\Local\Temp\ccJ15vUB.s:195    .text.guider_print_dev_guider_info.constprop.0:00000000000000e8 .L0 
C:\Users\stapi\AppData\Local\Temp\ccJ15vUB.s:202    .text.guider_print_dev_guider_info.constprop.0:00000000000000fe .L0 
C:\Users\stapi\AppData\Local\Temp\ccJ15vUB.s:209    .text.guider_print_dev_guider_info.constprop.0:0000000000000114 .L0 
C:\Users\stapi\AppData\Local\Temp\ccJ15vUB.s:212    .text.guider_print_dev_guider_info.constprop.0:000000000000011c .L0 
C:\Users\stapi\AppData\Local\Temp\ccJ15vUB.s:213    .text.guider_print_dev_guider_info.constprop.0:000000000000011c .L0 
C:\Users\stapi\AppData\Local\Temp\ccJ15vUB.s:214    .text.guider_print_dev_guider_info.constprop.0:000000000000011e .L0 
C:\Users\stapi\AppData\Local\Temp\ccJ15vUB.s:215    .text.guider_print_dev_guider_info.constprop.0:000000000000011e .L0 
C:\Users\stapi\AppData\Local\Temp\ccJ15vUB.s:217    .text.guider_print_dev_guider_info.constprop.0:0000000000000126 .L0 
C:\Users\stapi\AppData\Local\Temp\ccJ15vUB.s:218    .text.guider_print_dev_guider_info.constprop.0:0000000000000126 .L0 
C:\Users\stapi\AppData\Local\Temp\ccJ15vUB.s:219    .text.guider_print_dev_guider_info.constprop.0:0000000000000126 .L0 
C:\Users\stapi\AppData\Local\Temp\ccJ15vUB.s:220    .text.guider_print_dev_guider_info.constprop.0:0000000000000126 .L0 
C:\Users\stapi\AppData\Local\Temp\ccJ15vUB.s:221    .text.guider_print_dev_guider_info.constprop.0:0000000000000126 .L0 
C:\Users\stapi\AppData\Local\Temp\ccJ15vUB.s:222    .text.guider_print_dev_guider_info.constprop.0:0000000000000126 .L0 
C:\Users\stapi\AppData\Local\Temp\ccJ15vUB.s:223    .text.guider_print_dev_guider_info.constprop.0:0000000000000126 .L0 
C:\Users\stapi\AppData\Local\Temp\ccJ15vUB.s:224    .text.guider_print_dev_guider_info.constprop.0:0000000000000126 .L0 
C:\Users\stapi\AppData\Local\Temp\ccJ15vUB.s:225    .text.guider_print_dev_guider_info.constprop.0:0000000000000126 .L0 
C:\Users\stapi\AppData\Local\Temp\ccJ15vUB.s:228    .text.guider_print_dev_guider_info.constprop.0:0000000000000126 .L0 
C:\Users\stapi\AppData\Local\Temp\ccJ15vUB.s:232    .text.guider_print_dev_guider_info.constprop.0:0000000000000126 .L0 
C:\Users\stapi\AppData\Local\Temp\ccJ15vUB.s:233    .text.guider_print_dev_guider_info.constprop.0:0000000000000126 .L0 
C:\Users\stapi\AppData\Local\Temp\ccJ15vUB.s:238    .text.guider_print_dev_guider_info.constprop.0:0000000000000130 .L0 
C:\Users\stapi\AppData\Local\Temp\ccJ15vUB.s:239    .text.guider_print_dev_guider_info.constprop.0:0000000000000130 .L0 
C:\Users\stapi\AppData\Local\Temp\ccJ15vUB.s:244    .text.guider_print_dev_guider_info.constprop.0:000000000000013a .L0 
C:\Users\stapi\AppData\Local\Temp\ccJ15vUB.s:245    .text.guider_print_dev_guider_info.constprop.0:000000000000013a .L0 
C:\Users\stapi\AppData\Local\Temp\ccJ15vUB.s:250    .text.guider_print_dev_guider_info.constprop.0:0000000000000144 .L0 
C:\Users\stapi\AppData\Local\Temp\ccJ15vUB.s:257    .text.iotx_guider_get_region:0000000000000000 iotx_guider_get_region
C:\Users\stapi\AppData\Local\Temp\ccJ15vUB.s:260    .text.iotx_guider_get_region:0000000000000000 .L0 
C:\Users\stapi\AppData\Local\Temp\ccJ15vUB.s:261    .text.iotx_guider_get_region:0000000000000000 .L0 
C:\Users\stapi\AppData\Local\Temp\ccJ15vUB.s:262    .text.iotx_guider_get_region:0000000000000008 .L0 
C:\Users\stapi\AppData\Local\Temp\ccJ15vUB.s:263    .text.iotx_guider_get_region:0000000000000008 .L0 
C:\Users\stapi\AppData\Local\Temp\ccJ15vUB.s:265    .text.iotx_guider_get_region:0000000000000008 .L0 
C:\Users\stapi\AppData\Local\Temp\ccJ15vUB.s:266    .text.iotx_guider_get_region:0000000000000008 .L0 
C:\Users\stapi\AppData\Local\Temp\ccJ15vUB.s:267    .text.iotx_guider_get_region:0000000000000008 .L0 
C:\Users\stapi\AppData\Local\Temp\ccJ15vUB.s:268    .text.iotx_guider_get_region:000000000000000a .L0 
C:\Users\stapi\AppData\Local\Temp\ccJ15vUB.s:270    .text.iotx_guider_get_region:000000000000000a .L0 
C:\Users\stapi\AppData\Local\Temp\ccJ15vUB.s:275    .text.iotx_guider_get_region:0000000000000016 .L0 
C:\Users\stapi\AppData\Local\Temp\ccJ15vUB.s:276    .text.iotx_guider_get_region:0000000000000016 .L0 
C:\Users\stapi\AppData\Local\Temp\ccJ15vUB.s:278    .text.iotx_guider_get_region:000000000000001a .L0 
C:\Users\stapi\AppData\Local\Temp\ccJ15vUB.s:280    .text.iotx_guider_get_region:0000000000000022 .L0 
C:\Users\stapi\AppData\Local\Temp\ccJ15vUB.s:281    .text.iotx_guider_get_region:0000000000000022 .L0 
C:\Users\stapi\AppData\Local\Temp\ccJ15vUB.s:282    .text.iotx_guider_get_region:0000000000000022 .L0 
C:\Users\stapi\AppData\Local\Temp\ccJ15vUB.s:289    .text.guider_set_direct_connect_count:0000000000000000 guider_set_direct_connect_count
C:\Users\stapi\AppData\Local\Temp\ccJ15vUB.s:292    .text.guider_set_direct_connect_count:0000000000000000 .L0 
C:\Users\stapi\AppData\Local\Temp\ccJ15vUB.s:294    .text.guider_set_direct_connect_count:0000000000000000 .L0 
C:\Users\stapi\AppData\Local\Temp\ccJ15vUB.s:295    .text.guider_set_direct_connect_count:0000000000000000 .L0 
C:\Users\stapi\AppData\Local\Temp\ccJ15vUB.s:296    .text.guider_set_direct_connect_count:0000000000000000 .L0 
C:\Users\stapi\AppData\Local\Temp\ccJ15vUB.s:299    .text.guider_set_direct_connect_count:0000000000000008 .L0 
C:\Users\stapi\AppData\Local\Temp\ccJ15vUB.s:300    .text.guider_set_direct_connect_count:0000000000000008 .L0 
C:\Users\stapi\AppData\Local\Temp\ccJ15vUB.s:303    .text.guider_set_direct_connect_count:000000000000000c .L0 
C:\Users\stapi\AppData\Local\Temp\ccJ15vUB.s:320    .text.iotx_guider_get_kv_env:0000000000000000 iotx_guider_get_kv_env
C:\Users\stapi\AppData\Local\Temp\ccJ15vUB.s:323    .text.iotx_guider_get_kv_env:0000000000000000 .L0 
C:\Users\stapi\AppData\Local\Temp\ccJ15vUB.s:324    .text.iotx_guider_get_kv_env:0000000000000000 .L0 
C:\Users\stapi\AppData\Local\Temp\ccJ15vUB.s:325    .text.iotx_guider_get_kv_env:0000000000000008 .L0 
C:\Users\stapi\AppData\Local\Temp\ccJ15vUB.s:326    .text.iotx_guider_get_kv_env:0000000000000008 .L0 
C:\Users\stapi\AppData\Local\Temp\ccJ15vUB.s:327    .text.iotx_guider_get_kv_env:0000000000000008 .L0 
C:\Users\stapi\AppData\Local\Temp\ccJ15vUB.s:330    .text.iotx_guider_get_kv_env:0000000000000008 .L0 
C:\Users\stapi\AppData\Local\Temp\ccJ15vUB.s:331    .text.iotx_guider_get_kv_env:0000000000000008 .L0 
C:\Users\stapi\AppData\Local\Temp\ccJ15vUB.s:332    .text.iotx_guider_get_kv_env:0000000000000008 .L0 
C:\Users\stapi\AppData\Local\Temp\ccJ15vUB.s:333    .text.iotx_guider_get_kv_env:0000000000000008 .L0 
C:\Users\stapi\AppData\Local\Temp\ccJ15vUB.s:334    .text.iotx_guider_get_kv_env:0000000000000008 .L0 
C:\Users\stapi\AppData\Local\Temp\ccJ15vUB.s:336    .text.iotx_guider_get_kv_env:000000000000000c .L0 
C:\Users\stapi\AppData\Local\Temp\ccJ15vUB.s:338    .text.iotx_guider_get_kv_env:0000000000000010 .L0 
C:\Users\stapi\AppData\Local\Temp\ccJ15vUB.s:341    .text.iotx_guider_get_kv_env:0000000000000016 .L0 
C:\Users\stapi\AppData\Local\Temp\ccJ15vUB.s:343    .text.iotx_guider_get_kv_env:000000000000001a .L0 
C:\Users\stapi\AppData\Local\Temp\ccJ15vUB.s:345    .text.iotx_guider_get_kv_env:000000000000001c .L0 
C:\Users\stapi\AppData\Local\Temp\ccJ15vUB.s:346    .text.iotx_guider_get_kv_env:000000000000001c .L0 
C:\Users\stapi\AppData\Local\Temp\ccJ15vUB.s:349    .text.iotx_guider_get_kv_env:0000000000000024 .L0 
C:\Users\stapi\AppData\Local\Temp\ccJ15vUB.s:355    .text.iotx_guider_get_kv_env:0000000000000036 .L0 
C:\Users\stapi\AppData\Local\Temp\ccJ15vUB.s:360    .text.iotx_guider_get_kv_env:0000000000000046 .L0 
C:\Users\stapi\AppData\Local\Temp\ccJ15vUB.s:361    .text.iotx_guider_get_kv_env:0000000000000046 .L0 
C:\Users\stapi\AppData\Local\Temp\ccJ15vUB.s:362    .text.iotx_guider_get_kv_env:0000000000000046 .L0 
C:\Users\stapi\AppData\Local\Temp\ccJ15vUB.s:364    .text.iotx_guider_get_kv_env:0000000000000050 .L0 
C:\Users\stapi\AppData\Local\Temp\ccJ15vUB.s:365    .text.iotx_guider_get_kv_env:0000000000000050 .L0 
C:\Users\stapi\AppData\Local\Temp\ccJ15vUB.s:366    .text.iotx_guider_get_kv_env:0000000000000050 .L0 
C:\Users\stapi\AppData\Local\Temp\ccJ15vUB.s:367    .text.iotx_guider_get_kv_env:0000000000000050 .L0 
C:\Users\stapi\AppData\Local\Temp\ccJ15vUB.s:374    .text.iotx_guider_get_env:0000000000000000 iotx_guider_get_env
C:\Users\stapi\AppData\Local\Temp\ccJ15vUB.s:377    .text.iotx_guider_get_env:0000000000000000 .L0 
C:\Users\stapi\AppData\Local\Temp\ccJ15vUB.s:378    .text.iotx_guider_get_env:0000000000000000 .L0 
C:\Users\stapi\AppData\Local\Temp\ccJ15vUB.s:379    .text.iotx_guider_get_env:0000000000000000 .L0 
C:\Users\stapi\AppData\Local\Temp\ccJ15vUB.s:380    .text.iotx_guider_get_env:0000000000000000 .L0 
C:\Users\stapi\AppData\Local\Temp\ccJ15vUB.s:383    .text.iotx_guider_get_env:000000000000000a .L0 
C:\Users\stapi\AppData\Local\Temp\ccJ15vUB.s:406    .text.iotx_guider_set_dynamic_mqtt_url:0000000000000000 iotx_guider_set_dynamic_mqtt_url
C:\Users\stapi\AppData\Local\Temp\ccJ15vUB.s:409    .text.iotx_guider_set_dynamic_mqtt_url:0000000000000000 .L0 
C:\Users\stapi\AppData\Local\Temp\ccJ15vUB.s:411    .text.iotx_guider_set_dynamic_mqtt_url:0000000000000000 .L0 
C:\Users\stapi\AppData\Local\Temp\ccJ15vUB.s:412    .text.iotx_guider_set_dynamic_mqtt_url:0000000000000008 .L0 
C:\Users\stapi\AppData\Local\Temp\ccJ15vUB.s:413    .text.iotx_guider_set_dynamic_mqtt_url:0000000000000008 .L0 
C:\Users\stapi\AppData\Local\Temp\ccJ15vUB.s:414    .text.iotx_guider_set_dynamic_mqtt_url:0000000000000008 .L0 
C:\Users\stapi\AppData\Local\Temp\ccJ15vUB.s:415    .text.iotx_guider_set_dynamic_mqtt_url:0000000000000008 .L0 
C:\Users\stapi\AppData\Local\Temp\ccJ15vUB.s:418    .text.iotx_guider_set_dynamic_mqtt_url:0000000000000008 .L0 
C:\Users\stapi\AppData\Local\Temp\ccJ15vUB.s:419    .text.iotx_guider_set_dynamic_mqtt_url:0000000000000008 .L0 
C:\Users\stapi\AppData\Local\Temp\ccJ15vUB.s:420    .text.iotx_guider_set_dynamic_mqtt_url:0000000000000008 .L0 
C:\Users\stapi\AppData\Local\Temp\ccJ15vUB.s:421    .text.iotx_guider_set_dynamic_mqtt_url:0000000000000008 .L0 
C:\Users\stapi\AppData\Local\Temp\ccJ15vUB.s:422    .text.iotx_guider_set_dynamic_mqtt_url:000000000000000a .L0 
C:\Users\stapi\AppData\Local\Temp\ccJ15vUB.s:424    .text.iotx_guider_set_dynamic_mqtt_url:000000000000000a .L0 
C:\Users\stapi\AppData\Local\Temp\ccJ15vUB.s:427    .text.iotx_guider_set_dynamic_mqtt_url:000000000000000e .L0 
C:\Users\stapi\AppData\Local\Temp\ccJ15vUB.s:428    .text.iotx_guider_set_dynamic_mqtt_url:000000000000000e .L0 
C:\Users\stapi\AppData\Local\Temp\ccJ15vUB.s:431    .text.iotx_guider_set_dynamic_mqtt_url:0000000000000016 .L0 
C:\Users\stapi\AppData\Local\Temp\ccJ15vUB.s:434    .text.iotx_guider_set_dynamic_mqtt_url:000000000000001a .L0 
C:\Users\stapi\AppData\Local\Temp\ccJ15vUB.s:435    .text.iotx_guider_set_dynamic_mqtt_url:000000000000001a .L0 
C:\Users\stapi\AppData\Local\Temp\ccJ15vUB.s:438    .text.iotx_guider_set_dynamic_mqtt_url:0000000000000022 .L0 
C:\Users\stapi\AppData\Local\Temp\ccJ15vUB.s:439    .text.iotx_guider_set_dynamic_mqtt_url:0000000000000022 .L0 
C:\Users\stapi\AppData\Local\Temp\ccJ15vUB.s:444    .text.iotx_guider_set_dynamic_mqtt_url:0000000000000032 .L0 
C:\Users\stapi\AppData\Local\Temp\ccJ15vUB.s:449    .text.iotx_guider_set_dynamic_mqtt_url:0000000000000042 .L0 
C:\Users\stapi\AppData\Local\Temp\ccJ15vUB.s:454    .text.iotx_guider_set_dynamic_mqtt_url:0000000000000052 .L0 
C:\Users\stapi\AppData\Local\Temp\ccJ15vUB.s:456    .text.iotx_guider_set_dynamic_mqtt_url:0000000000000052 .L0 
C:\Users\stapi\AppData\Local\Temp\ccJ15vUB.s:457    .text.iotx_guider_set_dynamic_mqtt_url:0000000000000052 .L0 
C:\Users\stapi\AppData\Local\Temp\ccJ15vUB.s:462    .text.iotx_guider_set_dynamic_mqtt_url:0000000000000056 .L0 
C:\Users\stapi\AppData\Local\Temp\ccJ15vUB.s:463    .text.iotx_guider_set_dynamic_mqtt_url:0000000000000056 .L0 
C:\Users\stapi\AppData\Local\Temp\ccJ15vUB.s:472    .text.iotx_guider_set_dynamic_mqtt_url:000000000000006e .L0 
C:\Users\stapi\AppData\Local\Temp\ccJ15vUB.s:474    .text.iotx_guider_set_dynamic_mqtt_url:0000000000000070 .L0 
C:\Users\stapi\AppData\Local\Temp\ccJ15vUB.s:477    .text.iotx_guider_set_dynamic_mqtt_url:0000000000000072 .L0 
C:\Users\stapi\AppData\Local\Temp\ccJ15vUB.s:490    .text.iotx_guider_set_dynamic_mqtt_url:000000000000009c .L0 
C:\Users\stapi\AppData\Local\Temp\ccJ15vUB.s:491    .text.iotx_guider_set_dynamic_mqtt_url:000000000000009c .L0 
C:\Users\stapi\AppData\Local\Temp\ccJ15vUB.s:493    .text.iotx_guider_set_dynamic_mqtt_url:000000000000009e .L0 
C:\Users\stapi\AppData\Local\Temp\ccJ15vUB.s:494    .text.iotx_guider_set_dynamic_mqtt_url:000000000000009e .L0 
C:\Users\stapi\AppData\Local\Temp\ccJ15vUB.s:500    .text.iotx_guider_set_dynamic_mqtt_url:00000000000000a8 .L0 
C:\Users\stapi\AppData\Local\Temp\ccJ15vUB.s:502    .text.iotx_guider_set_dynamic_mqtt_url:00000000000000ac .L0 
C:\Users\stapi\AppData\Local\Temp\ccJ15vUB.s:504    .text.iotx_guider_set_dynamic_mqtt_url:00000000000000b4 .L0 
C:\Users\stapi\AppData\Local\Temp\ccJ15vUB.s:505    .text.iotx_guider_set_dynamic_mqtt_url:00000000000000b4 .L0 
C:\Users\stapi\AppData\Local\Temp\ccJ15vUB.s:506    .text.iotx_guider_set_dynamic_mqtt_url:00000000000000b4 .L0 
C:\Users\stapi\AppData\Local\Temp\ccJ15vUB.s:507    .text.iotx_guider_set_dynamic_mqtt_url:00000000000000b4 .L0 
C:\Users\stapi\AppData\Local\Temp\ccJ15vUB.s:508    .text.iotx_guider_set_dynamic_mqtt_url:00000000000000b4 .L0 
C:\Users\stapi\AppData\Local\Temp\ccJ15vUB.s:531    .text.iotx_guider_get_region_id:0000000000000000 iotx_guider_get_region_id
C:\Users\stapi\AppData\Local\Temp\ccJ15vUB.s:534    .text.iotx_guider_get_region_id:0000000000000000 .L0 
C:\Users\stapi\AppData\Local\Temp\ccJ15vUB.s:535    .text.iotx_guider_get_region_id:0000000000000000 .L0 
C:\Users\stapi\AppData\Local\Temp\ccJ15vUB.s:536    .text.iotx_guider_get_region_id:0000000000000008 .L0 
C:\Users\stapi\AppData\Local\Temp\ccJ15vUB.s:537    .text.iotx_guider_get_region_id:0000000000000008 .L0 
C:\Users\stapi\AppData\Local\Temp\ccJ15vUB.s:538    .text.iotx_guider_get_region_id:0000000000000008 .L0 
C:\Users\stapi\AppData\Local\Temp\ccJ15vUB.s:539    .text.iotx_guider_get_region_id:0000000000000008 .L0 
C:\Users\stapi\AppData\Local\Temp\ccJ15vUB.s:542    .text.iotx_guider_get_region_id:0000000000000008 .L0 
C:\Users\stapi\AppData\Local\Temp\ccJ15vUB.s:543    .text.iotx_guider_get_region_id:0000000000000008 .L0 
C:\Users\stapi\AppData\Local\Temp\ccJ15vUB.s:544    .text.iotx_guider_get_region_id:0000000000000008 .L0 
C:\Users\stapi\AppData\Local\Temp\ccJ15vUB.s:545    .text.iotx_guider_get_region_id:000000000000000a .L0 
C:\Users\stapi\AppData\Local\Temp\ccJ15vUB.s:547    .text.iotx_guider_get_region_id:000000000000000a .L0 
C:\Users\stapi\AppData\Local\Temp\ccJ15vUB.s:549    .text.iotx_guider_get_region_id:000000000000000e .L0 
C:\Users\stapi\AppData\Local\Temp\ccJ15vUB.s:551    .text.iotx_guider_get_region_id:0000000000000010 .L0 
C:\Users\stapi\AppData\Local\Temp\ccJ15vUB.s:555    .text.iotx_guider_get_region_id:0000000000000018 .L0 
C:\Users\stapi\AppData\Local\Temp\ccJ15vUB.s:557    .text.iotx_guider_get_region_id:000000000000001a .L0 
C:\Users\stapi\AppData\Local\Temp\ccJ15vUB.s:558    .text.iotx_guider_get_region_id:000000000000001a .L0 
C:\Users\stapi\AppData\Local\Temp\ccJ15vUB.s:561    .text.iotx_guider_get_region_id:0000000000000020 .L0 
C:\Users\stapi\AppData\Local\Temp\ccJ15vUB.s:562    .text.iotx_guider_get_region_id:0000000000000020 .L0 
C:\Users\stapi\AppData\Local\Temp\ccJ15vUB.s:566    .text.iotx_guider_get_region_id:000000000000002c .L0 
C:\Users\stapi\AppData\Local\Temp\ccJ15vUB.s:568    .text.iotx_guider_get_region_id:000000000000002e .L0 
C:\Users\stapi\AppData\Local\Temp\ccJ15vUB.s:569    .text.iotx_guider_get_region_id:000000000000002e .L0 
C:\Users\stapi\AppData\Local\Temp\ccJ15vUB.s:574    .text.iotx_guider_get_region_id:000000000000003e .L0 
C:\Users\stapi\AppData\Local\Temp\ccJ15vUB.s:580    .text.iotx_guider_get_region_id:000000000000004e .L0 
C:\Users\stapi\AppData\Local\Temp\ccJ15vUB.s:581    .text.iotx_guider_get_region_id:000000000000004e .L0 
C:\Users\stapi\AppData\Local\Temp\ccJ15vUB.s:585    .text.iotx_guider_get_region_id:000000000000005a .L0 
C:\Users\stapi\AppData\Local\Temp\ccJ15vUB.s:586    .text.iotx_guider_get_region_id:000000000000005a .L0 
C:\Users\stapi\AppData\Local\Temp\ccJ15vUB.s:587    .text.iotx_guider_get_region_id:000000000000005a .L0 
C:\Users\stapi\AppData\Local\Temp\ccJ15vUB.s:590    .text.iotx_guider_get_region_id:000000000000005c .L0 
C:\Users\stapi\AppData\Local\Temp\ccJ15vUB.s:592    .text.iotx_guider_get_region_id:0000000000000060 .L0 
C:\Users\stapi\AppData\Local\Temp\ccJ15vUB.s:593    .text.iotx_guider_get_region_id:0000000000000060 .L0 
C:\Users\stapi\AppData\Local\Temp\ccJ15vUB.s:595    .text.iotx_guider_get_region_id:0000000000000068 .L0 
C:\Users\stapi\AppData\Local\Temp\ccJ15vUB.s:596    .text.iotx_guider_get_region_id:0000000000000068 .L0 
C:\Users\stapi\AppData\Local\Temp\ccJ15vUB.s:597    .text.iotx_guider_get_region_id:0000000000000068 .L0 
C:\Users\stapi\AppData\Local\Temp\ccJ15vUB.s:598    .text.iotx_guider_get_region_id:0000000000000068 .L0 
C:\Users\stapi\AppData\Local\Temp\ccJ15vUB.s:601    .text.iotx_guider_get_region_id:0000000000000068 .L0 
C:\Users\stapi\AppData\Local\Temp\ccJ15vUB.s:603    .text.iotx_guider_get_region_id:0000000000000068 .L0 
C:\Users\stapi\AppData\Local\Temp\ccJ15vUB.s:604    .text.iotx_guider_get_region_id:0000000000000068 .L0 
C:\Users\stapi\AppData\Local\Temp\ccJ15vUB.s:608    .text.iotx_guider_get_region_id:0000000000000072 .L0 
C:\Users\stapi\AppData\Local\Temp\ccJ15vUB.s:611    .text.iotx_guider_get_region_id:0000000000000078 .L0 
C:\Users\stapi\AppData\Local\Temp\ccJ15vUB.s:614    .text.iotx_guider_get_region_id:000000000000007a .L0 
C:\Users\stapi\AppData\Local\Temp\ccJ15vUB.s:615    .text.iotx_guider_get_region_id:000000000000007a .L0 
C:\Users\stapi\AppData\Local\Temp\ccJ15vUB.s:617    .text.iotx_guider_get_region_id:000000000000007e .L0 
C:\Users\stapi\AppData\Local\Temp\ccJ15vUB.s:618    .text.iotx_guider_get_region_id:000000000000007e .L0 
C:\Users\stapi\AppData\Local\Temp\ccJ15vUB.s:623    .text.iotx_guider_get_region_id:000000000000008e .L0 
C:\Users\stapi\AppData\Local\Temp\ccJ15vUB.s:631    .text.iotx_guider_get_region_id:00000000000000a2 .L0 
C:\Users\stapi\AppData\Local\Temp\ccJ15vUB.s:632    .text.iotx_guider_get_region_id:00000000000000a2 .L0 
C:\Users\stapi\AppData\Local\Temp\ccJ15vUB.s:637    .text.iotx_guider_get_region_id:00000000000000b2 .L0 
C:\Users\stapi\AppData\Local\Temp\ccJ15vUB.s:643    .text.iotx_guider_get_region_id:00000000000000c4 .L0 
C:\Users\stapi\AppData\Local\Temp\ccJ15vUB.s:647    .text.iotx_guider_get_region_id:00000000000000d0 .L0 
C:\Users\stapi\AppData\Local\Temp\ccJ15vUB.s:648    .text.iotx_guider_get_region_id:00000000000000d0 .L0 
C:\Users\stapi\AppData\Local\Temp\ccJ15vUB.s:649    .text.iotx_guider_get_region_id:00000000000000d0 .L0 
C:\Users\stapi\AppData\Local\Temp\ccJ15vUB.s:650    .text.iotx_guider_get_region_id:00000000000000d2 .L0 
C:\Users\stapi\AppData\Local\Temp\ccJ15vUB.s:661    .text.iotx_guider_clear_dynamic_url:0000000000000000 iotx_guider_clear_dynamic_url
C:\Users\stapi\AppData\Local\Temp\ccJ15vUB.s:664    .text.iotx_guider_clear_dynamic_url:0000000000000000 .L0 
C:\Users\stapi\AppData\Local\Temp\ccJ15vUB.s:665    .text.iotx_guider_clear_dynamic_url:0000000000000000 .L0 
C:\Users\stapi\AppData\Local\Temp\ccJ15vUB.s:666    .text.iotx_guider_clear_dynamic_url:0000000000000008 .L0 
C:\Users\stapi\AppData\Local\Temp\ccJ15vUB.s:667    .text.iotx_guider_clear_dynamic_url:0000000000000008 .L0 
C:\Users\stapi\AppData\Local\Temp\ccJ15vUB.s:668    .text.iotx_guider_clear_dynamic_url:0000000000000008 .L0 
C:\Users\stapi\AppData\Local\Temp\ccJ15vUB.s:671    .text.iotx_guider_clear_dynamic_url:0000000000000008 .L0 
C:\Users\stapi\AppData\Local\Temp\ccJ15vUB.s:672    .text.iotx_guider_clear_dynamic_url:0000000000000008 .L0 
C:\Users\stapi\AppData\Local\Temp\ccJ15vUB.s:673    .text.iotx_guider_clear_dynamic_url:0000000000000008 .L0 
C:\Users\stapi\AppData\Local\Temp\ccJ15vUB.s:680    .text.iotx_guider_clear_dynamic_url:000000000000001a .L0 
C:\Users\stapi\AppData\Local\Temp\ccJ15vUB.s:681    .text.iotx_guider_clear_dynamic_url:000000000000001a .L0 
C:\Users\stapi\AppData\Local\Temp\ccJ15vUB.s:686    .text.iotx_guider_clear_dynamic_url:000000000000002a .L0 
C:\Users\stapi\AppData\Local\Temp\ccJ15vUB.s:689    .text.iotx_guider_clear_dynamic_url:000000000000002c .L0 
C:\Users\stapi\AppData\Local\Temp\ccJ15vUB.s:701    .text.iotx_guider_clear_dynamic_url:0000000000000054 .L0 
C:\Users\stapi\AppData\Local\Temp\ccJ15vUB.s:702    .text.iotx_guider_clear_dynamic_url:0000000000000054 .L0 
C:\Users\stapi\AppData\Local\Temp\ccJ15vUB.s:704    .text.iotx_guider_clear_dynamic_url:000000000000005e .L0 
C:\Users\stapi\AppData\Local\Temp\ccJ15vUB.s:705    .text.iotx_guider_clear_dynamic_url:000000000000005e .L0 
C:\Users\stapi\AppData\Local\Temp\ccJ15vUB.s:706    .text.iotx_guider_clear_dynamic_url:000000000000005e .L0 
C:\Users\stapi\AppData\Local\Temp\ccJ15vUB.s:707    .text.iotx_guider_clear_dynamic_url:000000000000005e .L0 
C:\Users\stapi\AppData\Local\Temp\ccJ15vUB.s:745    .text.iotx_guider_set_dynamic_region:0000000000000000 iotx_guider_set_dynamic_region
C:\Users\stapi\AppData\Local\Temp\ccJ15vUB.s:748    .text.iotx_guider_set_dynamic_region:0000000000000000 .L0 
C:\Users\stapi\AppData\Local\Temp\ccJ15vUB.s:750    .text.iotx_guider_set_dynamic_region:0000000000000000 .L0 
C:\Users\stapi\AppData\Local\Temp\ccJ15vUB.s:751    .text.iotx_guider_set_dynamic_region:0000000000000008 .L0 
C:\Users\stapi\AppData\Local\Temp\ccJ15vUB.s:752    .text.iotx_guider_set_dynamic_region:0000000000000008 .L0 
C:\Users\stapi\AppData\Local\Temp\ccJ15vUB.s:753    .text.iotx_guider_set_dynamic_region:0000000000000008 .L0 
C:\Users\stapi\AppData\Local\Temp\ccJ15vUB.s:754    .text.iotx_guider_set_dynamic_region:0000000000000008 .L0 
C:\Users\stapi\AppData\Local\Temp\ccJ15vUB.s:755    .text.iotx_guider_set_dynamic_region:0000000000000008 .L0 
C:\Users\stapi\AppData\Local\Temp\ccJ15vUB.s:756    .text.iotx_guider_set_dynamic_region:0000000000000008 .L0 
C:\Users\stapi\AppData\Local\Temp\ccJ15vUB.s:757    .text.iotx_guider_set_dynamic_region:0000000000000008 .L0 
C:\Users\stapi\AppData\Local\Temp\ccJ15vUB.s:758    .text.iotx_guider_set_dynamic_region:0000000000000008 .L0 
C:\Users\stapi\AppData\Local\Temp\ccJ15vUB.s:759    .text.iotx_guider_set_dynamic_region:0000000000000008 .L0 
C:\Users\stapi\AppData\Local\Temp\ccJ15vUB.s:760    .text.iotx_guider_set_dynamic_region:0000000000000008 .L0 
C:\Users\stapi\AppData\Local\Temp\ccJ15vUB.s:761    .text.iotx_guider_set_dynamic_region:0000000000000008 .L0 
C:\Users\stapi\AppData\Local\Temp\ccJ15vUB.s:764    .text.iotx_guider_set_dynamic_region:0000000000000008 .L0 
C:\Users\stapi\AppData\Local\Temp\ccJ15vUB.s:765    .text.iotx_guider_set_dynamic_region:0000000000000008 .L0 
C:\Users\stapi\AppData\Local\Temp\ccJ15vUB.s:766    .text.iotx_guider_set_dynamic_region:0000000000000008 .L0 
C:\Users\stapi\AppData\Local\Temp\ccJ15vUB.s:767    .text.iotx_guider_set_dynamic_region:0000000000000008 .L0 
C:\Users\stapi\AppData\Local\Temp\ccJ15vUB.s:768    .text.iotx_guider_set_dynamic_region:0000000000000008 .L0 
C:\Users\stapi\AppData\Local\Temp\ccJ15vUB.s:770    .text.iotx_guider_set_dynamic_region:000000000000000c .L0 
C:\Users\stapi\AppData\Local\Temp\ccJ15vUB.s:771    .text.iotx_guider_set_dynamic_region:000000000000000e .L0 
C:\Users\stapi\AppData\Local\Temp\ccJ15vUB.s:774    .text.iotx_guider_set_dynamic_region:0000000000000012 .L0 
C:\Users\stapi\AppData\Local\Temp\ccJ15vUB.s:776    .text.iotx_guider_set_dynamic_region:0000000000000016 .L0 
C:\Users\stapi\AppData\Local\Temp\ccJ15vUB.s:777    .text.iotx_guider_set_dynamic_region:0000000000000016 .L0 
C:\Users\stapi\AppData\Local\Temp\ccJ15vUB.s:783    .text.iotx_guider_set_dynamic_region:0000000000000026 .L0 
C:\Users\stapi\AppData\Local\Temp\ccJ15vUB.s:788    .text.iotx_guider_set_dynamic_region:0000000000000036 .L0 
C:\Users\stapi\AppData\Local\Temp\ccJ15vUB.s:792    .text.iotx_guider_set_dynamic_region:0000000000000042 .L0 
C:\Users\stapi\AppData\Local\Temp\ccJ15vUB.s:793    .text.iotx_guider_set_dynamic_region:0000000000000042 .L0 
C:\Users\stapi\AppData\Local\Temp\ccJ15vUB.s:797    .text.iotx_guider_set_dynamic_region:000000000000004a .L0 
C:\Users\stapi\AppData\Local\Temp\ccJ15vUB.s:798    .text.iotx_guider_set_dynamic_region:000000000000004a .L0 
C:\Users\stapi\AppData\Local\Temp\ccJ15vUB.s:799    .text.iotx_guider_set_dynamic_region:000000000000004a .L0 
C:\Users\stapi\AppData\Local\Temp\ccJ15vUB.s:800    .text.iotx_guider_set_dynamic_region:000000000000004a .L0 
C:\Users\stapi\AppData\Local\Temp\ccJ15vUB.s:804    .text.iotx_guider_set_dynamic_region:000000000000004c .L0 
C:\Users\stapi\AppData\Local\Temp\ccJ15vUB.s:806    .text.iotx_guider_set_dynamic_region:0000000000000050 .L0 
C:\Users\stapi\AppData\Local\Temp\ccJ15vUB.s:807    .text.iotx_guider_set_dynamic_region:0000000000000050 .L0 
C:\Users\stapi\AppData\Local\Temp\ccJ15vUB.s:809    .text.iotx_guider_set_dynamic_region:0000000000000058 .L0 
C:\Users\stapi\AppData\Local\Temp\ccJ15vUB.s:810    .text.iotx_guider_set_dynamic_region:0000000000000058 .L0 
C:\Users\stapi\AppData\Local\Temp\ccJ15vUB.s:811    .text.iotx_guider_set_dynamic_region:0000000000000058 .L0 
C:\Users\stapi\AppData\Local\Temp\ccJ15vUB.s:812    .text.iotx_guider_set_dynamic_region:0000000000000058 .L0 
C:\Users\stapi\AppData\Local\Temp\ccJ15vUB.s:813    .text.iotx_guider_set_dynamic_region:0000000000000058 .L0 
C:\Users\stapi\AppData\Local\Temp\ccJ15vUB.s:814    .text.iotx_guider_set_dynamic_region:0000000000000058 .L0 
C:\Users\stapi\AppData\Local\Temp\ccJ15vUB.s:815    .text.iotx_guider_set_dynamic_region:0000000000000058 .L0 
C:\Users\stapi\AppData\Local\Temp\ccJ15vUB.s:816    .text.iotx_guider_set_dynamic_region:0000000000000058 .L0 
C:\Users\stapi\AppData\Local\Temp\ccJ15vUB.s:817    .text.iotx_guider_set_dynamic_region:0000000000000058 .L0 
C:\Users\stapi\AppData\Local\Temp\ccJ15vUB.s:818    .text.iotx_guider_set_dynamic_region:0000000000000058 .L0 
C:\Users\stapi\AppData\Local\Temp\ccJ15vUB.s:819    .text.iotx_guider_set_dynamic_region:0000000000000058 .L0 
C:\Users\stapi\AppData\Local\Temp\ccJ15vUB.s:822    .text.iotx_guider_set_dynamic_region:0000000000000058 .L0 
C:\Users\stapi\AppData\Local\Temp\ccJ15vUB.s:824    .text.iotx_guider_set_dynamic_region:0000000000000058 .L0 
C:\Users\stapi\AppData\Local\Temp\ccJ15vUB.s:828    .text.iotx_guider_set_dynamic_region:0000000000000060 .L0 
C:\Users\stapi\AppData\Local\Temp\ccJ15vUB.s:829    .text.iotx_guider_set_dynamic_region:0000000000000060 .L0 
C:\Users\stapi\AppData\Local\Temp\ccJ15vUB.s:832    .text.iotx_guider_set_dynamic_region:0000000000000064 .L0 
C:\Users\stapi\AppData\Local\Temp\ccJ15vUB.s:833    .text.iotx_guider_set_dynamic_region:0000000000000064 .L0 
C:\Users\stapi\AppData\Local\Temp\ccJ15vUB.s:838    .text.iotx_guider_set_dynamic_region:0000000000000074 .L0 
C:\Users\stapi\AppData\Local\Temp\ccJ15vUB.s:845    .text.iotx_guider_set_dynamic_region:0000000000000086 .L0 
C:\Users\stapi\AppData\Local\Temp\ccJ15vUB.s:846    .text.iotx_guider_set_dynamic_region:0000000000000086 .L0 
C:\Users\stapi\AppData\Local\Temp\ccJ15vUB.s:850    .text.iotx_guider_set_dynamic_region:0000000000000092 .L0 
C:\Users\stapi\AppData\Local\Temp\ccJ15vUB.s:851    .text.iotx_guider_set_dynamic_region:0000000000000092 .L0 
C:\Users\stapi\AppData\Local\Temp\ccJ15vUB.s:852    .text.iotx_guider_set_dynamic_region:0000000000000092 .L0 
C:\Users\stapi\AppData\Local\Temp\ccJ15vUB.s:857    .text.iotx_guider_set_dynamic_region:0000000000000096 .L0 
C:\Users\stapi\AppData\Local\Temp\ccJ15vUB.s:858    .text.iotx_guider_set_dynamic_region:0000000000000096 .L0 
C:\Users\stapi\AppData\Local\Temp\ccJ15vUB.s:863    .text.iotx_guider_set_dynamic_region:00000000000000a6 .L0 
C:\Users\stapi\AppData\Local\Temp\ccJ15vUB.s:869    .text.iotx_guider_set_dynamic_region:00000000000000b8 .L0 
C:\Users\stapi\AppData\Local\Temp\ccJ15vUB.s:873    .text.iotx_guider_set_dynamic_region:00000000000000c4 .L0 
C:\Users\stapi\AppData\Local\Temp\ccJ15vUB.s:876    .text.iotx_guider_set_dynamic_region:00000000000000c4 .L0 
C:\Users\stapi\AppData\Local\Temp\ccJ15vUB.s:877    .text.iotx_guider_set_dynamic_region:00000000000000c4 .L0 
C:\Users\stapi\AppData\Local\Temp\ccJ15vUB.s:878    .text.iotx_guider_set_dynamic_region:00000000000000c4 .L0 
C:\Users\stapi\AppData\Local\Temp\ccJ15vUB.s:879    .text.iotx_guider_set_dynamic_region:00000000000000c4 .L0 
C:\Users\stapi\AppData\Local\Temp\ccJ15vUB.s:885    .text.iotx_guider_set_dynamic_region:00000000000000ca .L0 
C:\Users\stapi\AppData\Local\Temp\ccJ15vUB.s:886    .text.iotx_guider_set_dynamic_region:00000000000000ca .L0 
C:\Users\stapi\AppData\Local\Temp\ccJ15vUB.s:887    .text.iotx_guider_set_dynamic_region:00000000000000ca .L0 
C:\Users\stapi\AppData\Local\Temp\ccJ15vUB.s:888    .text.iotx_guider_set_dynamic_region:00000000000000ca .L0 
C:\Users\stapi\AppData\Local\Temp\ccJ15vUB.s:889    .text.iotx_guider_set_dynamic_region:00000000000000ca .L0 
C:\Users\stapi\AppData\Local\Temp\ccJ15vUB.s:890    .text.iotx_guider_set_dynamic_region:00000000000000ca .L0 
C:\Users\stapi\AppData\Local\Temp\ccJ15vUB.s:893    .text.iotx_guider_set_dynamic_region:00000000000000cc .L0 
C:\Users\stapi\AppData\Local\Temp\ccJ15vUB.s:894    .text.iotx_guider_set_dynamic_region:00000000000000cc .L0 
C:\Users\stapi\AppData\Local\Temp\ccJ15vUB.s:897    .text.iotx_guider_set_dynamic_region:00000000000000d4 .L0 
C:\Users\stapi\AppData\Local\Temp\ccJ15vUB.s:902    .text.iotx_guider_set_dynamic_region:00000000000000d4 .L0 
C:\Users\stapi\AppData\Local\Temp\ccJ15vUB.s:903    .text.iotx_guider_set_dynamic_region:00000000000000d4 .L0 
C:\Users\stapi\AppData\Local\Temp\ccJ15vUB.s:904    .text.iotx_guider_set_dynamic_region:00000000000000d4 .L0 
C:\Users\stapi\AppData\Local\Temp\ccJ15vUB.s:914    .text.iotx_guider_set_dynamic_region:00000000000000ec .L0 
C:\Users\stapi\AppData\Local\Temp\ccJ15vUB.s:915    .text.iotx_guider_set_dynamic_region:00000000000000ec .L0 
C:\Users\stapi\AppData\Local\Temp\ccJ15vUB.s:920    .text.iotx_guider_set_dynamic_region:00000000000000f8 .L0 
C:\Users\stapi\AppData\Local\Temp\ccJ15vUB.s:927    .text.iotx_guider_set_dynamic_region:000000000000010c .L0 
C:\Users\stapi\AppData\Local\Temp\ccJ15vUB.s:931    .text.iotx_guider_set_dynamic_region:0000000000000118 .L0 
C:\Users\stapi\AppData\Local\Temp\ccJ15vUB.s:934    .text.iotx_guider_set_dynamic_region:0000000000000118 .L0 
C:\Users\stapi\AppData\Local\Temp\ccJ15vUB.s:935    .text.iotx_guider_set_dynamic_region:0000000000000118 .L0 
C:\Users\stapi\AppData\Local\Temp\ccJ15vUB.s:936    .text.iotx_guider_set_dynamic_region:0000000000000118 .L0 
C:\Users\stapi\AppData\Local\Temp\ccJ15vUB.s:939    .text.iotx_guider_set_dynamic_region:000000000000011e .L0 
C:\Users\stapi\AppData\Local\Temp\ccJ15vUB.s:940    .text.iotx_guider_set_dynamic_region:000000000000011e .L0 
C:\Users\stapi\AppData\Local\Temp\ccJ15vUB.s:947    .text.iotx_guider_set_dynamic_region:0000000000000130 .L0 
C:\Users\stapi\AppData\Local\Temp\ccJ15vUB.s:948    .text.iotx_guider_set_dynamic_region:0000000000000130 .L0 
C:\Users\stapi\AppData\Local\Temp\ccJ15vUB.s:954    .text.iotx_guider_set_dynamic_region:0000000000000140 .L0 
C:\Users\stapi\AppData\Local\Temp\ccJ15vUB.s:960    .text.iotx_guider_set_dynamic_region:0000000000000152 .L0 
C:\Users\stapi\AppData\Local\Temp\ccJ15vUB.s:978    .text.iotx_guider_set_dynamic_region:000000000000016e .L0 
C:\Users\stapi\AppData\Local\Temp\ccJ15vUB.s:980    .text.iotx_guider_set_dynamic_region:0000000000000172 .L0 
C:\Users\stapi\AppData\Local\Temp\ccJ15vUB.s:984    .text.iotx_guider_set_dynamic_region:0000000000000174 .L0 
C:\Users\stapi\AppData\Local\Temp\ccJ15vUB.s:985    .text.iotx_guider_set_dynamic_region:0000000000000174 .L0 
C:\Users\stapi\AppData\Local\Temp\ccJ15vUB.s:988    .text.iotx_guider_set_dynamic_region:0000000000000178 .L0 
C:\Users\stapi\AppData\Local\Temp\ccJ15vUB.s:991    .text.iotx_guider_set_dynamic_region:000000000000017a .L0 
C:\Users\stapi\AppData\Local\Temp\ccJ15vUB.s:993    .text.iotx_guider_set_dynamic_region:000000000000017c .L0 
C:\Users\stapi\AppData\Local\Temp\ccJ15vUB.s:996    .text.iotx_guider_set_dynamic_region:0000000000000180 .L0 
C:\Users\stapi\AppData\Local\Temp\ccJ15vUB.s:999    .text.iotx_guider_set_dynamic_region:0000000000000184 .L0 
C:\Users\stapi\AppData\Local\Temp\ccJ15vUB.s:1002   .text.iotx_guider_set_dynamic_region:0000000000000188 .L0 
C:\Users\stapi\AppData\Local\Temp\ccJ15vUB.s:1005   .text.iotx_guider_set_dynamic_region:000000000000018c .L0 
C:\Users\stapi\AppData\Local\Temp\ccJ15vUB.s:1006   .text.iotx_guider_set_dynamic_region:000000000000018c .L0 
C:\Users\stapi\AppData\Local\Temp\ccJ15vUB.s:1007   .text.iotx_guider_set_dynamic_region:000000000000018c .L0 
C:\Users\stapi\AppData\Local\Temp\ccJ15vUB.s:1012   .text.iotx_guider_set_dynamic_region:000000000000019a .L0 
C:\Users\stapi\AppData\Local\Temp\ccJ15vUB.s:1014   .text.iotx_guider_set_dynamic_region:000000000000019c .L0 
C:\Users\stapi\AppData\Local\Temp\ccJ15vUB.s:1018   .text.iotx_guider_set_dynamic_region:000000000000019e .L0 
C:\Users\stapi\AppData\Local\Temp\ccJ15vUB.s:1019   .text.iotx_guider_set_dynamic_region:000000000000019e .L0 
C:\Users\stapi\AppData\Local\Temp\ccJ15vUB.s:1021   .text.iotx_guider_set_dynamic_region:00000000000001a0 .L0 
C:\Users\stapi\AppData\Local\Temp\ccJ15vUB.s:1024   .text.iotx_guider_set_dynamic_region:00000000000001a4 .L0 
C:\Users\stapi\AppData\Local\Temp\ccJ15vUB.s:1025   .text.iotx_guider_set_dynamic_region:00000000000001a4 .L0 
C:\Users\stapi\AppData\Local\Temp\ccJ15vUB.s:1027   .text.iotx_guider_set_dynamic_region:00000000000001a8 .L0 
C:\Users\stapi\AppData\Local\Temp\ccJ15vUB.s:1028   .text.iotx_guider_set_dynamic_region:00000000000001a8 .L0 
C:\Users\stapi\AppData\Local\Temp\ccJ15vUB.s:1030   .text.iotx_guider_set_dynamic_region:00000000000001ac .L0 
C:\Users\stapi\AppData\Local\Temp\ccJ15vUB.s:1031   .text.iotx_guider_set_dynamic_region:00000000000001ac .L0 
C:\Users\stapi\AppData\Local\Temp\ccJ15vUB.s:1039   .text.iotx_guider_set_dynamic_region:00000000000001ae .L0 
C:\Users\stapi\AppData\Local\Temp\ccJ15vUB.s:1040   .text.iotx_guider_set_dynamic_region:00000000000001ae .L0 
C:\Users\stapi\AppData\Local\Temp\ccJ15vUB.s:1048   .text.iotx_guider_set_dynamic_region:00000000000001c0 .L0 
C:\Users\stapi\AppData\Local\Temp\ccJ15vUB.s:1049   .text.iotx_guider_set_dynamic_region:00000000000001c0 .L0 
C:\Users\stapi\AppData\Local\Temp\ccJ15vUB.s:1051   .text.iotx_guider_set_dynamic_region:00000000000001c2 .L0 
C:\Users\stapi\AppData\Local\Temp\ccJ15vUB.s:1052   .text.iotx_guider_set_dynamic_region:00000000000001c2 .L0 
C:\Users\stapi\AppData\Local\Temp\ccJ15vUB.s:1057   .text.iotx_guider_set_dynamic_region:00000000000001d2 .L0 
C:\Users\stapi\AppData\Local\Temp\ccJ15vUB.s:1064   .text.iotx_guider_set_dynamic_region:00000000000001e4 .L0 
C:\Users\stapi\AppData\Local\Temp\ccJ15vUB.s:1067   .text.iotx_guider_set_dynamic_region:00000000000001ec .L0 
C:\Users\stapi\AppData\Local\Temp\ccJ15vUB.s:1071   .text.iotx_guider_set_dynamic_region:00000000000001f6 .L0 
C:\Users\stapi\AppData\Local\Temp\ccJ15vUB.s:1079   .text.iotx_guider_set_dynamic_region:0000000000000206 .L0 
C:\Users\stapi\AppData\Local\Temp\ccJ15vUB.s:1082   .text.iotx_guider_set_dynamic_region:0000000000000206 .L0 
C:\Users\stapi\AppData\Local\Temp\ccJ15vUB.s:1083   .text.iotx_guider_set_dynamic_region:0000000000000206 .L0 
C:\Users\stapi\AppData\Local\Temp\ccJ15vUB.s:1092   .text.iotx_guider_set_dynamic_region:0000000000000216 .L0 
C:\Users\stapi\AppData\Local\Temp\ccJ15vUB.s:1093   .text.iotx_guider_set_dynamic_region:0000000000000216 .L0 
C:\Users\stapi\AppData\Local\Temp\ccJ15vUB.s:1094   .text.iotx_guider_set_dynamic_region:0000000000000216 .L0 
C:\Users\stapi\AppData\Local\Temp\ccJ15vUB.s:1105   .text.iotx_guider_set_dynamic_region:0000000000000236 .L0 
C:\Users\stapi\AppData\Local\Temp\ccJ15vUB.s:1107   .text.iotx_guider_set_dynamic_region:0000000000000238 .L0 
C:\Users\stapi\AppData\Local\Temp\ccJ15vUB.s:1109   .text.iotx_guider_set_dynamic_region:000000000000023c .L0 
C:\Users\stapi\AppData\Local\Temp\ccJ15vUB.s:1111   .text.iotx_guider_set_dynamic_region:000000000000023e .L0 
C:\Users\stapi\AppData\Local\Temp\ccJ15vUB.s:1115   .text.iotx_guider_set_dynamic_region:0000000000000242 .L0 
C:\Users\stapi\AppData\Local\Temp\ccJ15vUB.s:1121   .text.iotx_guider_set_dynamic_region:000000000000024a .L0 
C:\Users\stapi\AppData\Local\Temp\ccJ15vUB.s:1126   .text.iotx_guider_set_dynamic_region:0000000000000258 .L0 
C:\Users\stapi\AppData\Local\Temp\ccJ15vUB.s:1127   .text.iotx_guider_set_dynamic_region:0000000000000258 .L0 
C:\Users\stapi\AppData\Local\Temp\ccJ15vUB.s:1131   .text.iotx_guider_set_dynamic_region:0000000000000262 .L0 
C:\Users\stapi\AppData\Local\Temp\ccJ15vUB.s:1134   .text.iotx_guider_set_dynamic_region:0000000000000266 .L0 
C:\Users\stapi\AppData\Local\Temp\ccJ15vUB.s:1135   .text.iotx_guider_set_dynamic_region:0000000000000266 .L0 
C:\Users\stapi\AppData\Local\Temp\ccJ15vUB.s:1139   .text.iotx_guider_set_dynamic_region:0000000000000270 .L0 
C:\Users\stapi\AppData\Local\Temp\ccJ15vUB.s:1140   .text.iotx_guider_set_dynamic_region:0000000000000270 .L0 
C:\Users\stapi\AppData\Local\Temp\ccJ15vUB.s:1143   .text.iotx_guider_set_dynamic_region:0000000000000272 .L0 
C:\Users\stapi\AppData\Local\Temp\ccJ15vUB.s:1151   .text.iotx_guider_set_dynamic_region:000000000000028a .L0 
C:\Users\stapi\AppData\Local\Temp\ccJ15vUB.s:1174   .text.iotx_guider_get_domain:0000000000000000 iotx_guider_get_domain
C:\Users\stapi\AppData\Local\Temp\ccJ15vUB.s:1177   .text.iotx_guider_get_domain:0000000000000000 .L0 
C:\Users\stapi\AppData\Local\Temp\ccJ15vUB.s:1179   .text.iotx_guider_get_domain:0000000000000000 .L0 
C:\Users\stapi\AppData\Local\Temp\ccJ15vUB.s:1180   .text.iotx_guider_get_domain:0000000000000008 .L0 
C:\Users\stapi\AppData\Local\Temp\ccJ15vUB.s:1181   .text.iotx_guider_get_domain:0000000000000008 .L0 
C:\Users\stapi\AppData\Local\Temp\ccJ15vUB.s:1182   .text.iotx_guider_get_domain:0000000000000008 .L0 
C:\Users\stapi\AppData\Local\Temp\ccJ15vUB.s:1184   .text.iotx_guider_get_domain:0000000000000008 .L0 
C:\Users\stapi\AppData\Local\Temp\ccJ15vUB.s:1185   .text.iotx_guider_get_domain:0000000000000008 .L0 
C:\Users\stapi\AppData\Local\Temp\ccJ15vUB.s:1186   .text.iotx_guider_get_domain:0000000000000008 .L0 
C:\Users\stapi\AppData\Local\Temp\ccJ15vUB.s:1188   .text.iotx_guider_get_domain:000000000000000a .L0 
C:\Users\stapi\AppData\Local\Temp\ccJ15vUB.s:1191   .text.iotx_guider_get_domain:0000000000000012 .L0 
C:\Users\stapi\AppData\Local\Temp\ccJ15vUB.s:1192   .text.iotx_guider_get_domain:0000000000000012 .L0 
C:\Users\stapi\AppData\Local\Temp\ccJ15vUB.s:1196   .text.iotx_guider_get_domain:000000000000001c .L0 
C:\Users\stapi\AppData\Local\Temp\ccJ15vUB.s:1197   .text.iotx_guider_get_domain:000000000000001c .L0 
C:\Users\stapi\AppData\Local\Temp\ccJ15vUB.s:1204   .text.iotx_guider_get_domain:000000000000002c .L0 
C:\Users\stapi\AppData\Local\Temp\ccJ15vUB.s:1205   .text.iotx_guider_get_domain:0000000000000034 .L0 
C:\Users\stapi\AppData\Local\Temp\ccJ15vUB.s:1206   .text.iotx_guider_get_domain:0000000000000034 .L0 
C:\Users\stapi\AppData\Local\Temp\ccJ15vUB.s:1207   .text.iotx_guider_get_domain:0000000000000034 .L0 
C:\Users\stapi\AppData\Local\Temp\ccJ15vUB.s:1208   .text.iotx_guider_get_domain:0000000000000034 .L0 
C:\Users\stapi\AppData\Local\Temp\ccJ15vUB.s:1211   .text.iotx_guider_get_domain:0000000000000034 .L0 
C:\Users\stapi\AppData\Local\Temp\ccJ15vUB.s:1213   .text.iotx_guider_get_domain:0000000000000034 .L0 
C:\Users\stapi\AppData\Local\Temp\ccJ15vUB.s:1214   .text.iotx_guider_get_domain:0000000000000034 .L0 
C:\Users\stapi\AppData\Local\Temp\ccJ15vUB.s:1218   .text.iotx_guider_get_domain:0000000000000036 .L0 
C:\Users\stapi\AppData\Local\Temp\ccJ15vUB.s:1221   .text.iotx_guider_get_domain:0000000000000036 .L0 
C:\Users\stapi\AppData\Local\Temp\ccJ15vUB.s:1222   .text.iotx_guider_get_domain:0000000000000036 .L0 
C:\Users\stapi\AppData\Local\Temp\ccJ15vUB.s:1229   .text.iotx_guider_get_domain:0000000000000046 .L0 
C:\Users\stapi\AppData\Local\Temp\ccJ15vUB.s:1230   .text.iotx_guider_get_domain:0000000000000046 .L0 
C:\Users\stapi\AppData\Local\Temp\ccJ15vUB.s:1234   .text.iotx_guider_get_domain:000000000000004e .L0 
C:\Users\stapi\AppData\Local\Temp\ccJ15vUB.s:1239   .text.iotx_guider_get_domain:0000000000000054 .L0 
C:\Users\stapi\AppData\Local\Temp\ccJ15vUB.s:1240   .text.iotx_guider_get_domain:0000000000000054 .L0 
C:\Users\stapi\AppData\Local\Temp\ccJ15vUB.s:1246   .text.iotx_guider_get_domain:000000000000005e .L0 
C:\Users\stapi\AppData\Local\Temp\ccJ15vUB.s:1247   .text.iotx_guider_get_domain:000000000000005e .L0 
C:\Users\stapi\AppData\Local\Temp\ccJ15vUB.s:1252   .text.iotx_guider_get_domain:0000000000000064 .L0 
C:\Users\stapi\AppData\Local\Temp\ccJ15vUB.s:1253   .text.iotx_guider_get_domain:0000000000000064 .L0 
C:\Users\stapi\AppData\Local\Temp\ccJ15vUB.s:1254   .text.iotx_guider_get_domain:0000000000000064 .L0 
C:\Users\stapi\AppData\Local\Temp\ccJ15vUB.s:1259   .text.iotx_guider_get_domain:000000000000006c .L0 
C:\Users\stapi\AppData\Local\Temp\ccJ15vUB.s:1262   .text.iotx_guider_get_domain:0000000000000072 .L0 
C:\Users\stapi\AppData\Local\Temp\ccJ15vUB.s:1263   .text.iotx_guider_get_domain:0000000000000072 .L0 
C:\Users\stapi\AppData\Local\Temp\ccJ15vUB.s:1264   .text.iotx_guider_get_domain:0000000000000072 .L0 
C:\Users\stapi\AppData\Local\Temp\ccJ15vUB.s:1266   .text.iotx_guider_get_domain:0000000000000076 .L0 
C:\Users\stapi\AppData\Local\Temp\ccJ15vUB.s:1275   .text.iotx_guider_get_domain:0000000000000080 .L0 
C:\Users\stapi\AppData\Local\Temp\ccJ15vUB.s:1276   .text.iotx_guider_get_domain:0000000000000080 .L0 
C:\Users\stapi\AppData\Local\Temp\ccJ15vUB.s:1281   .text.iotx_guider_get_domain:0000000000000086 .L0 
C:\Users\stapi\AppData\Local\Temp\ccJ15vUB.s:1282   .text.iotx_guider_get_domain:0000000000000086 .L0 
C:\Users\stapi\AppData\Local\Temp\ccJ15vUB.s:1283   .text.iotx_guider_get_domain:0000000000000086 .L0 
C:\Users\stapi\AppData\Local\Temp\ccJ15vUB.s:1288   .text.iotx_guider_get_domain:000000000000008e .L0 
C:\Users\stapi\AppData\Local\Temp\ccJ15vUB.s:1292   .text.iotx_guider_get_domain:0000000000000092 .L0 
C:\Users\stapi\AppData\Local\Temp\ccJ15vUB.s:1295   .text.iotx_guider_get_domain:0000000000000092 .L0 
C:\Users\stapi\AppData\Local\Temp\ccJ15vUB.s:1296   .text.iotx_guider_get_domain:0000000000000092 .L0 
C:\Users\stapi\AppData\Local\Temp\ccJ15vUB.s:1298   .text.iotx_guider_get_domain:0000000000000096 .L0 
C:\Users\stapi\AppData\Local\Temp\ccJ15vUB.s:1305   .text.iotx_guider_get_domain:00000000000000a0 .L0 
C:\Users\stapi\AppData\Local\Temp\ccJ15vUB.s:1306   .text.iotx_guider_get_domain:00000000000000a0 .L0 
C:\Users\stapi\AppData\Local\Temp\ccJ15vUB.s:1312   .text.iotx_guider_get_domain:00000000000000b0 .L0 
C:\Users\stapi\AppData\Local\Temp\ccJ15vUB.s:1317   .text.iotx_guider_get_domain:00000000000000c0 .L0 
C:\Users\stapi\AppData\Local\Temp\ccJ15vUB.s:1322   .text.iotx_guider_get_domain:00000000000000d0 .L0 
C:\Users\stapi\AppData\Local\Temp\ccJ15vUB.s:1323   .text.iotx_guider_get_domain:00000000000000d0 .L0 
C:\Users\stapi\AppData\Local\Temp\ccJ15vUB.s:1324   .text.iotx_guider_get_domain:00000000000000d0 .L0 
C:\Users\stapi\AppData\Local\Temp\ccJ15vUB.s:1331   .text.iotx_guider_get_domain:00000000000000d4 .L0 
C:\Users\stapi\AppData\Local\Temp\ccJ15vUB.s:1338   .text.iotx_guider_get_domain:00000000000000de .L0 
C:\Users\stapi\AppData\Local\Temp\ccJ15vUB.s:1342   .text.iotx_guider_get_domain:00000000000000e8 .L0 
C:\Users\stapi\AppData\Local\Temp\ccJ15vUB.s:1349   .text.iotx_guider_set_custom_domain:0000000000000000 iotx_guider_set_custom_domain
C:\Users\stapi\AppData\Local\Temp\ccJ15vUB.s:1352   .text.iotx_guider_set_custom_domain:0000000000000000 .L0 
C:\Users\stapi\AppData\Local\Temp\ccJ15vUB.s:1354   .text.iotx_guider_set_custom_domain:0000000000000000 .L0 
C:\Users\stapi\AppData\Local\Temp\ccJ15vUB.s:1355   .text.iotx_guider_set_custom_domain:0000000000000000 .L0 
C:\Users\stapi\AppData\Local\Temp\ccJ15vUB.s:1356   .text.iotx_guider_set_custom_domain:0000000000000000 .L0 
C:\Users\stapi\AppData\Local\Temp\ccJ15vUB.s:1359   .text.iotx_guider_set_custom_domain:0000000000000006 .L0 
C:\Users\stapi\AppData\Local\Temp\ccJ15vUB.s:1360   .text.iotx_guider_set_custom_domain:000000000000000e .L0 
C:\Users\stapi\AppData\Local\Temp\ccJ15vUB.s:1361   .text.iotx_guider_set_custom_domain:000000000000000e .L0 
C:\Users\stapi\AppData\Local\Temp\ccJ15vUB.s:1362   .text.iotx_guider_set_custom_domain:000000000000000e .L0 
C:\Users\stapi\AppData\Local\Temp\ccJ15vUB.s:1363   .text.iotx_guider_set_custom_domain:000000000000000e .L0 
C:\Users\stapi\AppData\Local\Temp\ccJ15vUB.s:1364   .text.iotx_guider_set_custom_domain:000000000000000e .L0 
C:\Users\stapi\AppData\Local\Temp\ccJ15vUB.s:1368   .text.iotx_guider_set_custom_domain:0000000000000012 .L0 
C:\Users\stapi\AppData\Local\Temp\ccJ15vUB.s:1371   .text.iotx_guider_set_custom_domain:0000000000000014 .L0 
C:\Users\stapi\AppData\Local\Temp\ccJ15vUB.s:1373   .text.iotx_guider_set_custom_domain:0000000000000016 .L0 
C:\Users\stapi\AppData\Local\Temp\ccJ15vUB.s:1374   .text.iotx_guider_set_custom_domain:0000000000000016 .L0 
C:\Users\stapi\AppData\Local\Temp\ccJ15vUB.s:1380   .text.iotx_guider_set_custom_domain:0000000000000022 .L0 
C:\Users\stapi\AppData\Local\Temp\ccJ15vUB.s:1381   .text.iotx_guider_set_custom_domain:0000000000000022 .L0 
C:\Users\stapi\AppData\Local\Temp\ccJ15vUB.s:1383   .text.iotx_guider_set_custom_domain:0000000000000026 .L0 
C:\Users\stapi\AppData\Local\Temp\ccJ15vUB.s:1385   .text.iotx_guider_set_custom_domain:0000000000000028 .L0 
C:\Users\stapi\AppData\Local\Temp\ccJ15vUB.s:1387   .text.iotx_guider_set_custom_domain:000000000000002c .L0 
C:\Users\stapi\AppData\Local\Temp\ccJ15vUB.s:1388   .text.iotx_guider_set_custom_domain:000000000000002c .L0 
C:\Users\stapi\AppData\Local\Temp\ccJ15vUB.s:1393   .text.iotx_guider_set_custom_domain:000000000000003c .L0 
C:\Users\stapi\AppData\Local\Temp\ccJ15vUB.s:1399   .text.iotx_guider_set_custom_domain:000000000000004c .L0 
C:\Users\stapi\AppData\Local\Temp\ccJ15vUB.s:1404   .text.iotx_guider_set_custom_domain:0000000000000058 .L0 
C:\Users\stapi\AppData\Local\Temp\ccJ15vUB.s:1405   .text.iotx_guider_set_custom_domain:0000000000000058 .L0 
C:\Users\stapi\AppData\Local\Temp\ccJ15vUB.s:1409   .text.iotx_guider_set_custom_domain:000000000000005a .L0 
C:\Users\stapi\AppData\Local\Temp\ccJ15vUB.s:1410   .text.iotx_guider_set_custom_domain:0000000000000062 .L0 
C:\Users\stapi\AppData\Local\Temp\ccJ15vUB.s:1411   .text.iotx_guider_set_custom_domain:0000000000000062 .L0 
C:\Users\stapi\AppData\Local\Temp\ccJ15vUB.s:1412   .text.iotx_guider_set_custom_domain:0000000000000062 .L0 
C:\Users\stapi\AppData\Local\Temp\ccJ15vUB.s:1413   .text.iotx_guider_set_custom_domain:0000000000000062 .L0 
C:\Users\stapi\AppData\Local\Temp\ccJ15vUB.s:1414   .text.iotx_guider_set_custom_domain:0000000000000062 .L0 
C:\Users\stapi\AppData\Local\Temp\ccJ15vUB.s:1418   .text.iotx_guider_set_custom_domain:0000000000000062 .L0 
C:\Users\stapi\AppData\Local\Temp\ccJ15vUB.s:1421   .text.iotx_guider_set_custom_domain:0000000000000064 .L0 
C:\Users\stapi\AppData\Local\Temp\ccJ15vUB.s:1422   .text.iotx_guider_set_custom_domain:0000000000000066 .L0 
C:\Users\stapi\AppData\Local\Temp\ccJ15vUB.s:1442   .text.iotx_guider_fill_conn_string:0000000000000000 iotx_guider_fill_conn_string
C:\Users\stapi\AppData\Local\Temp\ccJ15vUB.s:1445   .text.iotx_guider_fill_conn_string:0000000000000000 .L0 
C:\Users\stapi\AppData\Local\Temp\ccJ15vUB.s:1447   .text.iotx_guider_fill_conn_string:0000000000000000 .L0 
C:\Users\stapi\AppData\Local\Temp\ccJ15vUB.s:1448   .text.iotx_guider_fill_conn_string:0000000000000000 .L0 
C:\Users\stapi\AppData\Local\Temp\ccJ15vUB.s:1449   .text.iotx_guider_fill_conn_string:0000000000000000 .L0 
C:\Users\stapi\AppData\Local\Temp\ccJ15vUB.s:1450   .text.iotx_guider_fill_conn_string:0000000000000000 .L0 
C:\Users\stapi\AppData\Local\Temp\ccJ15vUB.s:1451   .text.iotx_guider_fill_conn_string:0000000000000000 .L0 
C:\Users\stapi\AppData\Local\Temp\ccJ15vUB.s:1452   .text.iotx_guider_fill_conn_string:0000000000000000 .L0 
C:\Users\stapi\AppData\Local\Temp\ccJ15vUB.s:1453   .text.iotx_guider_fill_conn_string:0000000000000002 .L0 
C:\Users\stapi\AppData\Local\Temp\ccJ15vUB.s:1456   .text.iotx_guider_fill_conn_string:0000000000000004 .L0 
C:\Users\stapi\AppData\Local\Temp\ccJ15vUB.s:1458   .text.iotx_guider_fill_conn_string:0000000000000006 .L0 
C:\Users\stapi\AppData\Local\Temp\ccJ15vUB.s:1461   .text.iotx_guider_fill_conn_string:000000000000000c .L0 
C:\Users\stapi\AppData\Local\Temp\ccJ15vUB.s:1462   .text.iotx_guider_fill_conn_string:000000000000000c .L0 
C:\Users\stapi\AppData\Local\Temp\ccJ15vUB.s:1463   .text.iotx_guider_fill_conn_string:000000000000000c .L0 
C:\Users\stapi\AppData\Local\Temp\ccJ15vUB.s:1465   .text.iotx_guider_fill_conn_string:000000000000000c .L0 
C:\Users\stapi\AppData\Local\Temp\ccJ15vUB.s:1472   .text.iotx_guider_fill_conn_string:0000000000000018 .L0 
C:\Users\stapi\AppData\Local\Temp\ccJ15vUB.s:1474   .text.iotx_guider_fill_conn_string:000000000000001a .L0 
C:\Users\stapi\AppData\Local\Temp\ccJ15vUB.s:1475   .text.iotx_guider_fill_conn_string:000000000000001a .L0 
C:\Users\stapi\AppData\Local\Temp\ccJ15vUB.s:1478   .text.iotx_guider_fill_conn_string:0000000000000022 .L0 
C:\Users\stapi\AppData\Local\Temp\ccJ15vUB.s:1479   .text.iotx_guider_fill_conn_string:0000000000000022 .L0 
C:\Users\stapi\AppData\Local\Temp\ccJ15vUB.s:1480   .text.iotx_guider_fill_conn_string:0000000000000022 .L0 
C:\Users\stapi\AppData\Local\Temp\ccJ15vUB.s:1482   .text.iotx_guider_fill_conn_string:0000000000000026 .L0 
C:\Users\stapi\AppData\Local\Temp\ccJ15vUB.s:1496   .text.iotx_guider_fill_conn_string:0000000000000052 .L0 
C:\Users\stapi\AppData\Local\Temp\ccJ15vUB.s:1497   .text.iotx_guider_fill_conn_string:0000000000000052 .L0 
C:\Users\stapi\AppData\Local\Temp\ccJ15vUB.s:1498   .text.iotx_guider_fill_conn_string:0000000000000052 .L0 
C:\Users\stapi\AppData\Local\Temp\ccJ15vUB.s:1504   .text.iotx_guider_fill_conn_string:0000000000000064 .L0 
C:\Users\stapi\AppData\Local\Temp\ccJ15vUB.s:1505   .text.iotx_guider_fill_conn_string:0000000000000064 .L0 
C:\Users\stapi\AppData\Local\Temp\ccJ15vUB.s:1507   .text.iotx_guider_fill_conn_string:0000000000000066 .L0 
C:\Users\stapi\AppData\Local\Temp\ccJ15vUB.s:1508   .text.iotx_guider_fill_conn_string:0000000000000066 .L0 
C:\Users\stapi\AppData\Local\Temp\ccJ15vUB.s:1511   .text.iotx_guider_fill_conn_string:000000000000006a .L0 
C:\Users\stapi\AppData\Local\Temp\ccJ15vUB.s:1512   .text.iotx_guider_fill_conn_string:000000000000006a .L0 
C:\Users\stapi\AppData\Local\Temp\ccJ15vUB.s:1513   .text.iotx_guider_fill_conn_string:000000000000006c .L0 
C:\Users\stapi\AppData\Local\Temp\ccJ15vUB.s:1515   .text.iotx_guider_fill_conn_string:000000000000006e .L0 
C:\Users\stapi\AppData\Local\Temp\ccJ15vUB.s:1518   .text.iotx_guider_fill_conn_string:0000000000000070 .L0 
C:\Users\stapi\AppData\Local\Temp\ccJ15vUB.s:1523   .text.iotx_guider_fill_conn_string:0000000000000074 .L0 
C:\Users\stapi\AppData\Local\Temp\ccJ15vUB.s:1525   .text.iotx_guider_fill_conn_string:0000000000000076 .L0 
C:\Users\stapi\AppData\Local\Temp\ccJ15vUB.s:1665   .text.iotx_guider_authenticate:0000000000000000 iotx_guider_authenticate
C:\Users\stapi\AppData\Local\Temp\ccJ15vUB.s:1668   .text.iotx_guider_authenticate:0000000000000000 .L0 
C:\Users\stapi\AppData\Local\Temp\ccJ15vUB.s:1670   .text.iotx_guider_authenticate:0000000000000000 .L0 
C:\Users\stapi\AppData\Local\Temp\ccJ15vUB.s:1671   .text.iotx_guider_authenticate:0000000000000008 .L0 
C:\Users\stapi\AppData\Local\Temp\ccJ15vUB.s:1672   .text.iotx_guider_authenticate:0000000000000008 .L0 
C:\Users\stapi\AppData\Local\Temp\ccJ15vUB.s:1673   .text.iotx_guider_authenticate:0000000000000008 .L0 
C:\Users\stapi\AppData\Local\Temp\ccJ15vUB.s:1674   .text.iotx_guider_authenticate:0000000000000008 .L0 
C:\Users\stapi\AppData\Local\Temp\ccJ15vUB.s:1675   .text.iotx_guider_authenticate:0000000000000008 .L0 
C:\Users\stapi\AppData\Local\Temp\ccJ15vUB.s:1676   .text.iotx_guider_authenticate:0000000000000008 .L0 
C:\Users\stapi\AppData\Local\Temp\ccJ15vUB.s:1677   .text.iotx_guider_authenticate:0000000000000008 .L0 
C:\Users\stapi\AppData\Local\Temp\ccJ15vUB.s:1678   .text.iotx_guider_authenticate:0000000000000008 .L0 
C:\Users\stapi\AppData\Local\Temp\ccJ15vUB.s:1679   .text.iotx_guider_authenticate:0000000000000008 .L0 
C:\Users\stapi\AppData\Local\Temp\ccJ15vUB.s:1680   .text.iotx_guider_authenticate:0000000000000008 .L0 
C:\Users\stapi\AppData\Local\Temp\ccJ15vUB.s:1681   .text.iotx_guider_authenticate:0000000000000008 .L0 
C:\Users\stapi\AppData\Local\Temp\ccJ15vUB.s:1682   .text.iotx_guider_authenticate:0000000000000008 .L0 
C:\Users\stapi\AppData\Local\Temp\ccJ15vUB.s:1683   .text.iotx_guider_authenticate:0000000000000008 .L0 
C:\Users\stapi\AppData\Local\Temp\ccJ15vUB.s:1684   .text.iotx_guider_authenticate:0000000000000008 .L0 
C:\Users\stapi\AppData\Local\Temp\ccJ15vUB.s:1687   .text.iotx_guider_authenticate:0000000000000008 .L0 
C:\Users\stapi\AppData\Local\Temp\ccJ15vUB.s:1688   .text.iotx_guider_authenticate:0000000000000008 .L0 
C:\Users\stapi\AppData\Local\Temp\ccJ15vUB.s:1689   .text.iotx_guider_authenticate:0000000000000008 .L0 
C:\Users\stapi\AppData\Local\Temp\ccJ15vUB.s:1690   .text.iotx_guider_authenticate:0000000000000008 .L0 
C:\Users\stapi\AppData\Local\Temp\ccJ15vUB.s:1691   .text.iotx_guider_authenticate:0000000000000008 .L0 
C:\Users\stapi\AppData\Local\Temp\ccJ15vUB.s:1692   .text.iotx_guider_authenticate:0000000000000008 .L0 
C:\Users\stapi\AppData\Local\Temp\ccJ15vUB.s:1693   .text.iotx_guider_authenticate:0000000000000008 .L0 
C:\Users\stapi\AppData\Local\Temp\ccJ15vUB.s:1694   .text.iotx_guider_authenticate:0000000000000008 .L0 
C:\Users\stapi\AppData\Local\Temp\ccJ15vUB.s:1695   .text.iotx_guider_authenticate:0000000000000008 .L0 
C:\Users\stapi\AppData\Local\Temp\ccJ15vUB.s:1696   .text.iotx_guider_authenticate:0000000000000008 .L0 
C:\Users\stapi\AppData\Local\Temp\ccJ15vUB.s:1697   .text.iotx_guider_authenticate:0000000000000008 .L0 
C:\Users\stapi\AppData\Local\Temp\ccJ15vUB.s:1698   .text.iotx_guider_authenticate:0000000000000008 .L0 
C:\Users\stapi\AppData\Local\Temp\ccJ15vUB.s:1699   .text.iotx_guider_authenticate:0000000000000008 .L0 
C:\Users\stapi\AppData\Local\Temp\ccJ15vUB.s:1700   .text.iotx_guider_authenticate:000000000000000a .L0 
C:\Users\stapi\AppData\Local\Temp\ccJ15vUB.s:1702   .text.iotx_guider_authenticate:000000000000000a .L0 
C:\Users\stapi\AppData\Local\Temp\ccJ15vUB.s:1706   .text.iotx_guider_authenticate:0000000000000010 .L0 
C:\Users\stapi\AppData\Local\Temp\ccJ15vUB.s:1708   .text.iotx_guider_authenticate:0000000000000012 .L0 
C:\Users\stapi\AppData\Local\Temp\ccJ15vUB.s:1724   .text.iotx_guider_authenticate:000000000000003e .L0 
C:\Users\stapi\AppData\Local\Temp\ccJ15vUB.s:1725   .text.iotx_guider_authenticate:000000000000003e .L0 
C:\Users\stapi\AppData\Local\Temp\ccJ15vUB.s:1726   .text.iotx_guider_authenticate:000000000000003e .L0 
C:\Users\stapi\AppData\Local\Temp\ccJ15vUB.s:1729   .text.iotx_guider_authenticate:0000000000000044 .L0 
C:\Users\stapi\AppData\Local\Temp\ccJ15vUB.s:1730   .text.iotx_guider_authenticate:0000000000000044 .L0 
C:\Users\stapi\AppData\Local\Temp\ccJ15vUB.s:1735   .text.iotx_guider_authenticate:0000000000000054 .L0 
C:\Users\stapi\AppData\Local\Temp\ccJ15vUB.s:1740   .text.iotx_guider_authenticate:0000000000000064 .L0 
C:\Users\stapi\AppData\Local\Temp\ccJ15vUB.s:1745   .text.iotx_guider_authenticate:0000000000000074 .L0 
C:\Users\stapi\AppData\Local\Temp\ccJ15vUB.s:1746   .text.iotx_guider_authenticate:0000000000000074 .L0 
C:\Users\stapi\AppData\Local\Temp\ccJ15vUB.s:1747   .text.iotx_guider_authenticate:0000000000000074 .L0 
C:\Users\stapi\AppData\Local\Temp\ccJ15vUB.s:1751   .text.iotx_guider_authenticate:0000000000000076 .L0 
C:\Users\stapi\AppData\Local\Temp\ccJ15vUB.s:1753   .text.iotx_guider_authenticate:000000000000007a .L0 
C:\Users\stapi\AppData\Local\Temp\ccJ15vUB.s:1754   .text.iotx_guider_authenticate:000000000000007a .L0 
C:\Users\stapi\AppData\Local\Temp\ccJ15vUB.s:1757   .text.iotx_guider_authenticate:0000000000000082 .L0 
C:\Users\stapi\AppData\Local\Temp\ccJ15vUB.s:1758   .text.iotx_guider_authenticate:0000000000000082 .L0 
C:\Users\stapi\AppData\Local\Temp\ccJ15vUB.s:1759   .text.iotx_guider_authenticate:0000000000000082 .L0 
C:\Users\stapi\AppData\Local\Temp\ccJ15vUB.s:1760   .text.iotx_guider_authenticate:0000000000000082 .L0 
C:\Users\stapi\AppData\Local\Temp\ccJ15vUB.s:1761   .text.iotx_guider_authenticate:0000000000000082 .L0 
C:\Users\stapi\AppData\Local\Temp\ccJ15vUB.s:1762   .text.iotx_guider_authenticate:0000000000000082 .L0 
C:\Users\stapi\AppData\Local\Temp\ccJ15vUB.s:1763   .text.iotx_guider_authenticate:0000000000000082 .L0 
C:\Users\stapi\AppData\Local\Temp\ccJ15vUB.s:1764   .text.iotx_guider_authenticate:0000000000000082 .L0 
C:\Users\stapi\AppData\Local\Temp\ccJ15vUB.s:1765   .text.iotx_guider_authenticate:0000000000000082 .L0 
C:\Users\stapi\AppData\Local\Temp\ccJ15vUB.s:1766   .text.iotx_guider_authenticate:0000000000000082 .L0 
C:\Users\stapi\AppData\Local\Temp\ccJ15vUB.s:1767   .text.iotx_guider_authenticate:0000000000000082 .L0 
C:\Users\stapi\AppData\Local\Temp\ccJ15vUB.s:1768   .text.iotx_guider_authenticate:0000000000000082 .L0 
C:\Users\stapi\AppData\Local\Temp\ccJ15vUB.s:1769   .text.iotx_guider_authenticate:0000000000000082 .L0 
C:\Users\stapi\AppData\Local\Temp\ccJ15vUB.s:1770   .text.iotx_guider_authenticate:0000000000000082 .L0 
C:\Users\stapi\AppData\Local\Temp\ccJ15vUB.s:1773   .text.iotx_guider_authenticate:0000000000000082 .L0 
C:\Users\stapi\AppData\Local\Temp\ccJ15vUB.s:1775   .text.iotx_guider_authenticate:0000000000000082 .L0 
C:\Users\stapi\AppData\Local\Temp\ccJ15vUB.s:1776   .text.iotx_guider_authenticate:0000000000000082 .L0 
C:\Users\stapi\AppData\Local\Temp\ccJ15vUB.s:1784   .text.iotx_guider_authenticate:0000000000000094 .L0 
C:\Users\stapi\AppData\Local\Temp\ccJ15vUB.s:1785   .text.iotx_guider_authenticate:0000000000000094 .L0 
C:\Users\stapi\AppData\Local\Temp\ccJ15vUB.s:1787   .text.iotx_guider_authenticate:0000000000000096 .L0 
C:\Users\stapi\AppData\Local\Temp\ccJ15vUB.s:1789   .text.iotx_guider_authenticate:000000000000009a .L0 
C:\Users\stapi\AppData\Local\Temp\ccJ15vUB.s:1792   .text.iotx_guider_authenticate:00000000000000a2 .L0 
C:\Users\stapi\AppData\Local\Temp\ccJ15vUB.s:1793   .text.iotx_guider_authenticate:00000000000000a2 .L0 
C:\Users\stapi\AppData\Local\Temp\ccJ15vUB.s:1801   .text.iotx_guider_authenticate:00000000000000b4 .L0 
C:\Users\stapi\AppData\Local\Temp\ccJ15vUB.s:1802   .text.iotx_guider_authenticate:00000000000000b4 .L0 
C:\Users\stapi\AppData\Local\Temp\ccJ15vUB.s:1804   .text.iotx_guider_authenticate:00000000000000b8 .L0 
C:\Users\stapi\AppData\Local\Temp\ccJ15vUB.s:1807   .text.iotx_guider_authenticate:00000000000000c0 .L0 
C:\Users\stapi\AppData\Local\Temp\ccJ15vUB.s:1808   .text.iotx_guider_authenticate:00000000000000c0 .L0 
C:\Users\stapi\AppData\Local\Temp\ccJ15vUB.s:1816   .text.iotx_guider_authenticate:00000000000000d2 .L0 
C:\Users\stapi\AppData\Local\Temp\ccJ15vUB.s:1817   .text.iotx_guider_authenticate:00000000000000d2 .L0 
C:\Users\stapi\AppData\Local\Temp\ccJ15vUB.s:1819   .text.iotx_guider_authenticate:00000000000000d6 .L0 
C:\Users\stapi\AppData\Local\Temp\ccJ15vUB.s:1824   .text.iotx_guider_authenticate:00000000000000e4 .L0 
C:\Users\stapi\AppData\Local\Temp\ccJ15vUB.s:1825   .text.iotx_guider_authenticate:00000000000000e4 .L0 
C:\Users\stapi\AppData\Local\Temp\ccJ15vUB.s:1829   .text.iotx_guider_authenticate:00000000000000ee .L0 
C:\Users\stapi\AppData\Local\Temp\ccJ15vUB.s:1830   .text.iotx_guider_authenticate:00000000000000ee .L0 
C:\Users\stapi\AppData\Local\Temp\ccJ15vUB.s:1832   .text.iotx_guider_authenticate:00000000000000f2 .L0 
C:\Users\stapi\AppData\Local\Temp\ccJ15vUB.s:1833   .text.iotx_guider_authenticate:00000000000000f2 .L0 
C:\Users\stapi\AppData\Local\Temp\ccJ15vUB.s:1842   .text.iotx_guider_authenticate:0000000000000104 .L0 
C:\Users\stapi\AppData\Local\Temp\ccJ15vUB.s:1843   .text.iotx_guider_authenticate:0000000000000104 .L0 
C:\Users\stapi\AppData\Local\Temp\ccJ15vUB.s:1845   .text.iotx_guider_authenticate:0000000000000108 .L0 
C:\Users\stapi\AppData\Local\Temp\ccJ15vUB.s:1850   .text.iotx_guider_authenticate:0000000000000116 .L0 
C:\Users\stapi\AppData\Local\Temp\ccJ15vUB.s:1851   .text.iotx_guider_authenticate:0000000000000116 .L0 
C:\Users\stapi\AppData\Local\Temp\ccJ15vUB.s:1859   .text.iotx_guider_authenticate:0000000000000128 .L0 
C:\Users\stapi\AppData\Local\Temp\ccJ15vUB.s:1860   .text.iotx_guider_authenticate:0000000000000128 .L0 
C:\Users\stapi\AppData\Local\Temp\ccJ15vUB.s:1862   .text.iotx_guider_authenticate:000000000000012c .L0 
C:\Users\stapi\AppData\Local\Temp\ccJ15vUB.s:1867   .text.iotx_guider_authenticate:000000000000013a .L0 
C:\Users\stapi\AppData\Local\Temp\ccJ15vUB.s:1868   .text.iotx_guider_authenticate:000000000000013a .L0 
C:\Users\stapi\AppData\Local\Temp\ccJ15vUB.s:1870   .text.iotx_guider_authenticate:000000000000013e .L0 
C:\Users\stapi\AppData\Local\Temp\ccJ15vUB.s:1879   .text.iotx_guider_authenticate:000000000000014e .L0 
C:\Users\stapi\AppData\Local\Temp\ccJ15vUB.s:1880   .text.iotx_guider_authenticate:000000000000014e .L0 
C:\Users\stapi\AppData\Local\Temp\ccJ15vUB.s:1881   .text.iotx_guider_authenticate:000000000000014e .L0 
C:\Users\stapi\AppData\Local\Temp\ccJ15vUB.s:1883   .text.iotx_guider_authenticate:0000000000000152 .L0 
C:\Users\stapi\AppData\Local\Temp\ccJ15vUB.s:1885   .text.iotx_guider_authenticate:0000000000000156 .L0 
C:\Users\stapi\AppData\Local\Temp\ccJ15vUB.s:1889   .text.iotx_guider_authenticate:000000000000015e .L0 
C:\Users\stapi\AppData\Local\Temp\ccJ15vUB.s:1891   .text.iotx_guider_authenticate:0000000000000160 .L0 
C:\Users\stapi\AppData\Local\Temp\ccJ15vUB.s:1892   .text.iotx_guider_authenticate:0000000000000160 .L0 
C:\Users\stapi\AppData\Local\Temp\ccJ15vUB.s:1897   .text.iotx_guider_authenticate:0000000000000168 .L0 
C:\Users\stapi\AppData\Local\Temp\ccJ15vUB.s:1898   .text.iotx_guider_authenticate:0000000000000168 .L0 
C:\Users\stapi\AppData\Local\Temp\ccJ15vUB.s:1900   .text.iotx_guider_authenticate:000000000000016a .L0 
C:\Users\stapi\AppData\Local\Temp\ccJ15vUB.s:1908   .text.iotx_guider_authenticate:000000000000017a .L0 
C:\Users\stapi\AppData\Local\Temp\ccJ15vUB.s:1910   .text.iotx_guider_authenticate:000000000000017e .L0 
C:\Users\stapi\AppData\Local\Temp\ccJ15vUB.s:1913   .text.iotx_guider_authenticate:0000000000000186 .L0 
C:\Users\stapi\AppData\Local\Temp\ccJ15vUB.s:1914   .text.iotx_guider_authenticate:0000000000000186 .L0 
C:\Users\stapi\AppData\Local\Temp\ccJ15vUB.s:1918   .text.iotx_guider_authenticate:0000000000000192 .L0 
C:\Users\stapi\AppData\Local\Temp\ccJ15vUB.s:1921   .text.iotx_guider_authenticate:000000000000019a .L0 
C:\Users\stapi\AppData\Local\Temp\ccJ15vUB.s:1924   .text.iotx_guider_authenticate:00000000000001a0 .L0 
C:\Users\stapi\AppData\Local\Temp\ccJ15vUB.s:1925   .text.iotx_guider_authenticate:00000000000001a0 .L0 
C:\Users\stapi\AppData\Local\Temp\ccJ15vUB.s:1928   .text.iotx_guider_authenticate:00000000000001a8 .L0 
C:\Users\stapi\AppData\Local\Temp\ccJ15vUB.s:1935   .text.iotx_guider_authenticate:00000000000001be .L0 
C:\Users\stapi\AppData\Local\Temp\ccJ15vUB.s:1939   .text.iotx_guider_authenticate:00000000000001ca .L0 
C:\Users\stapi\AppData\Local\Temp\ccJ15vUB.s:1940   .text.iotx_guider_authenticate:00000000000001ca .L0 
C:\Users\stapi\AppData\Local\Temp\ccJ15vUB.s:1941   .text.iotx_guider_authenticate:00000000000001ca .L0 
C:\Users\stapi\AppData\Local\Temp\ccJ15vUB.s:1945   .text.iotx_guider_authenticate:00000000000001d4 .L0 
C:\Users\stapi\AppData\Local\Temp\ccJ15vUB.s:1946   .text.iotx_guider_authenticate:00000000000001d4 .L0 
C:\Users\stapi\AppData\Local\Temp\ccJ15vUB.s:1948   .text.iotx_guider_authenticate:00000000000001d6 .L0 
C:\Users\stapi\AppData\Local\Temp\ccJ15vUB.s:1950   .text.iotx_guider_authenticate:00000000000001da .L0 
C:\Users\stapi\AppData\Local\Temp\ccJ15vUB.s:1951   .text.iotx_guider_authenticate:00000000000001da .L0 
C:\Users\stapi\AppData\Local\Temp\ccJ15vUB.s:1955   .text.iotx_guider_authenticate:00000000000001e2 .L0 
C:\Users\stapi\AppData\Local\Temp\ccJ15vUB.s:1957   .text.iotx_guider_authenticate:00000000000001e6 .L0 
C:\Users\stapi\AppData\Local\Temp\ccJ15vUB.s:1959   .text.iotx_guider_authenticate:00000000000001ea .L0 
C:\Users\stapi\AppData\Local\Temp\ccJ15vUB.s:1960   .text.iotx_guider_authenticate:00000000000001ea .L0 
C:\Users\stapi\AppData\Local\Temp\ccJ15vUB.s:1962   .text.iotx_guider_authenticate:00000000000001ee .L0 
C:\Users\stapi\AppData\Local\Temp\ccJ15vUB.s:1965   .text.iotx_guider_authenticate:00000000000001f6 .L0 
C:\Users\stapi\AppData\Local\Temp\ccJ15vUB.s:1966   .text.iotx_guider_authenticate:00000000000001f6 .L0 
C:\Users\stapi\AppData\Local\Temp\ccJ15vUB.s:1970   .text.iotx_guider_authenticate:0000000000000200 .L0 
C:\Users\stapi\AppData\Local\Temp\ccJ15vUB.s:1973   .text.iotx_guider_authenticate:0000000000000208 .L0 
C:\Users\stapi\AppData\Local\Temp\ccJ15vUB.s:1974   .text.iotx_guider_authenticate:0000000000000208 .L0 
C:\Users\stapi\AppData\Local\Temp\ccJ15vUB.s:1977   .text.iotx_guider_authenticate:000000000000020c .L0 
C:\Users\stapi\AppData\Local\Temp\ccJ15vUB.s:1981   .text.iotx_guider_authenticate:000000000000020c .L0 
C:\Users\stapi\AppData\Local\Temp\ccJ15vUB.s:1982   .text.iotx_guider_authenticate:000000000000020c .L0 
C:\Users\stapi\AppData\Local\Temp\ccJ15vUB.s:1985   .text.iotx_guider_authenticate:000000000000020c .L0 
C:\Users\stapi\AppData\Local\Temp\ccJ15vUB.s:1986   .text.iotx_guider_authenticate:000000000000020c .L0 
C:\Users\stapi\AppData\Local\Temp\ccJ15vUB.s:1987   .text.iotx_guider_authenticate:000000000000020c .L0 
C:\Users\stapi\AppData\Local\Temp\ccJ15vUB.s:1991   .text.iotx_guider_authenticate:0000000000000210 .L0 
C:\Users\stapi\AppData\Local\Temp\ccJ15vUB.s:1996   .text.iotx_guider_authenticate:000000000000021e .L0 
C:\Users\stapi\AppData\Local\Temp\ccJ15vUB.s:1997   .text.iotx_guider_authenticate:000000000000021e .L0 
C:\Users\stapi\AppData\Local\Temp\ccJ15vUB.s:2003   .text.iotx_guider_authenticate:0000000000000226 .L0 
C:\Users\stapi\AppData\Local\Temp\ccJ15vUB.s:2004   .text.iotx_guider_authenticate:0000000000000226 .L0 
C:\Users\stapi\AppData\Local\Temp\ccJ15vUB.s:2005   .text.iotx_guider_authenticate:0000000000000226 .L0 
C:\Users\stapi\AppData\Local\Temp\ccJ15vUB.s:2006   .text.iotx_guider_authenticate:0000000000000226 .L0 
C:\Users\stapi\AppData\Local\Temp\ccJ15vUB.s:2007   .text.iotx_guider_authenticate:0000000000000226 .L0 
C:\Users\stapi\AppData\Local\Temp\ccJ15vUB.s:2008   .text.iotx_guider_authenticate:0000000000000226 .L0 
C:\Users\stapi\AppData\Local\Temp\ccJ15vUB.s:2009   .text.iotx_guider_authenticate:0000000000000226 .L0 
C:\Users\stapi\AppData\Local\Temp\ccJ15vUB.s:2017   .text.iotx_guider_authenticate:0000000000000238 .L0 
C:\Users\stapi\AppData\Local\Temp\ccJ15vUB.s:2018   .text.iotx_guider_authenticate:0000000000000238 .L0 
C:\Users\stapi\AppData\Local\Temp\ccJ15vUB.s:2020   .text.iotx_guider_authenticate:000000000000023a .L0 
C:\Users\stapi\AppData\Local\Temp\ccJ15vUB.s:2025   .text.iotx_guider_authenticate:000000000000023e .L0 
C:\Users\stapi\AppData\Local\Temp\ccJ15vUB.s:2026   .text.iotx_guider_authenticate:000000000000023e .L0 
C:\Users\stapi\AppData\Local\Temp\ccJ15vUB.s:2027   .text.iotx_guider_authenticate:000000000000023e .L0 
C:\Users\stapi\AppData\Local\Temp\ccJ15vUB.s:2028   .text.iotx_guider_authenticate:000000000000023e .L0 
C:\Users\stapi\AppData\Local\Temp\ccJ15vUB.s:2029   .text.iotx_guider_authenticate:000000000000023e .L0 
C:\Users\stapi\AppData\Local\Temp\ccJ15vUB.s:2030   .text.iotx_guider_authenticate:000000000000023e .L0 
C:\Users\stapi\AppData\Local\Temp\ccJ15vUB.s:2031   .text.iotx_guider_authenticate:000000000000023e .L0 
C:\Users\stapi\AppData\Local\Temp\ccJ15vUB.s:2032   .text.iotx_guider_authenticate:000000000000023e .L0 
C:\Users\stapi\AppData\Local\Temp\ccJ15vUB.s:2033   .text.iotx_guider_authenticate:000000000000023e .L0 
C:\Users\stapi\AppData\Local\Temp\ccJ15vUB.s:2038   .text.iotx_guider_authenticate:0000000000000246 .L0 
C:\Users\stapi\AppData\Local\Temp\ccJ15vUB.s:2039   .text.iotx_guider_authenticate:0000000000000246 .L0 
C:\Users\stapi\AppData\Local\Temp\ccJ15vUB.s:2042   .text.iotx_guider_authenticate:000000000000024e .L0 
C:\Users\stapi\AppData\Local\Temp\ccJ15vUB.s:2043   .text.iotx_guider_authenticate:000000000000024e .L0 
C:\Users\stapi\AppData\Local\Temp\ccJ15vUB.s:2044   .text.iotx_guider_authenticate:000000000000024e .L0 
C:\Users\stapi\AppData\Local\Temp\ccJ15vUB.s:2045   .text.iotx_guider_authenticate:000000000000024e .L0 
C:\Users\stapi\AppData\Local\Temp\ccJ15vUB.s:2046   .text.iotx_guider_authenticate:000000000000024e .L0 
C:\Users\stapi\AppData\Local\Temp\ccJ15vUB.s:2047   .text.iotx_guider_authenticate:000000000000024e .L0 
C:\Users\stapi\AppData\Local\Temp\ccJ15vUB.s:2052   .text.iotx_guider_authenticate:0000000000000256 .L0 
C:\Users\stapi\AppData\Local\Temp\ccJ15vUB.s:2060   .text.iotx_guider_authenticate:0000000000000268 .L0 
C:\Users\stapi\AppData\Local\Temp\ccJ15vUB.s:2065   .text.iotx_guider_authenticate:000000000000026a .L0 
C:\Users\stapi\AppData\Local\Temp\ccJ15vUB.s:2066   .text.iotx_guider_authenticate:000000000000026a .L0 
C:\Users\stapi\AppData\Local\Temp\ccJ15vUB.s:2073   .text.iotx_guider_authenticate:0000000000000274 .L0 
C:\Users\stapi\AppData\Local\Temp\ccJ15vUB.s:2074   .text.iotx_guider_authenticate:0000000000000274 .L0 
C:\Users\stapi\AppData\Local\Temp\ccJ15vUB.s:2075   .text.iotx_guider_authenticate:0000000000000274 .L0 
C:\Users\stapi\AppData\Local\Temp\ccJ15vUB.s:2079   .text.iotx_guider_authenticate:000000000000027e .L0 
C:\Users\stapi\AppData\Local\Temp\ccJ15vUB.s:2081   .text.iotx_guider_authenticate:0000000000000280 .L0 
C:\Users\stapi\AppData\Local\Temp\ccJ15vUB.s:2084   .text.iotx_guider_authenticate:0000000000000282 .L0 
C:\Users\stapi\AppData\Local\Temp\ccJ15vUB.s:2085   .text.iotx_guider_authenticate:0000000000000282 .L0 
C:\Users\stapi\AppData\Local\Temp\ccJ15vUB.s:2087   .text.iotx_guider_authenticate:0000000000000286 .L0 
C:\Users\stapi\AppData\Local\Temp\ccJ15vUB.s:2096   .text.iotx_guider_authenticate:000000000000029e .L0 
C:\Users\stapi\AppData\Local\Temp\ccJ15vUB.s:2100   .text.iotx_guider_authenticate:00000000000002a0 .L0 
C:\Users\stapi\AppData\Local\Temp\ccJ15vUB.s:2109   .text.iotx_guider_authenticate:00000000000002b4 .L0 
C:\Users\stapi\AppData\Local\Temp\ccJ15vUB.s:2110   .text.iotx_guider_authenticate:00000000000002b4 .L0 
C:\Users\stapi\AppData\Local\Temp\ccJ15vUB.s:2118   .text.iotx_guider_authenticate:00000000000002c6 .L0 
C:\Users\stapi\AppData\Local\Temp\ccJ15vUB.s:2119   .text.iotx_guider_authenticate:00000000000002c6 .L0 
C:\Users\stapi\AppData\Local\Temp\ccJ15vUB.s:2124   .text.iotx_guider_authenticate:00000000000002ca .L0 
C:\Users\stapi\AppData\Local\Temp\ccJ15vUB.s:2125   .text.iotx_guider_authenticate:00000000000002ca .L0 
C:\Users\stapi\AppData\Local\Temp\ccJ15vUB.s:2126   .text.iotx_guider_authenticate:00000000000002ca .L0 
C:\Users\stapi\AppData\Local\Temp\ccJ15vUB.s:2127   .text.iotx_guider_authenticate:00000000000002ca .L0 
C:\Users\stapi\AppData\Local\Temp\ccJ15vUB.s:2128   .text.iotx_guider_authenticate:00000000000002ca .L0 
C:\Users\stapi\AppData\Local\Temp\ccJ15vUB.s:2129   .text.iotx_guider_authenticate:00000000000002ca .L0 
C:\Users\stapi\AppData\Local\Temp\ccJ15vUB.s:2130   .text.iotx_guider_authenticate:00000000000002ca .L0 
C:\Users\stapi\AppData\Local\Temp\ccJ15vUB.s:2131   .text.iotx_guider_authenticate:00000000000002ca .L0 
C:\Users\stapi\AppData\Local\Temp\ccJ15vUB.s:2132   .text.iotx_guider_authenticate:00000000000002ca .L0 
C:\Users\stapi\AppData\Local\Temp\ccJ15vUB.s:2141   .text.iotx_guider_authenticate:00000000000002dc .L0 
C:\Users\stapi\AppData\Local\Temp\ccJ15vUB.s:2142   .text.iotx_guider_authenticate:00000000000002dc .L0 
C:\Users\stapi\AppData\Local\Temp\ccJ15vUB.s:2144   .text.iotx_guider_authenticate:00000000000002de .L0 
C:\Users\stapi\AppData\Local\Temp\ccJ15vUB.s:2158   .text.iotx_guider_authenticate:000000000000030a .L0 
C:\Users\stapi\AppData\Local\Temp\ccJ15vUB.s:2159   .text.iotx_guider_authenticate:000000000000030a .L0 
C:\Users\stapi\AppData\Local\Temp\ccJ15vUB.s:2165   .text.iotx_guider_authenticate:000000000000031a .L0 
C:\Users\stapi\AppData\Local\Temp\ccJ15vUB.s:2172   .text.iotx_guider_authenticate:0000000000000324 .L0 
C:\Users\stapi\AppData\Local\Temp\ccJ15vUB.s:2173   .text.iotx_guider_authenticate:0000000000000324 .L0 
C:\Users\stapi\AppData\Local\Temp\ccJ15vUB.s:2174   .text.iotx_guider_authenticate:0000000000000324 .L0 
C:\Users\stapi\AppData\Local\Temp\ccJ15vUB.s:2175   .text.iotx_guider_authenticate:0000000000000324 .L0 
C:\Users\stapi\AppData\Local\Temp\ccJ15vUB.s:2182   .text.iotx_guider_authenticate:0000000000000334 .L0 
C:\Users\stapi\AppData\Local\Temp\ccJ15vUB.s:2188   .text.iotx_guider_authenticate:0000000000000344 .L0 
C:\Users\stapi\AppData\Local\Temp\ccJ15vUB.s:2189   .text.iotx_guider_authenticate:0000000000000344 .L0 
C:\Users\stapi\AppData\Local\Temp\ccJ15vUB.s:2193   .text.iotx_guider_authenticate:000000000000034e .L0 
C:\Users\stapi\AppData\Local\Temp\ccJ15vUB.s:2194   .text.iotx_guider_authenticate:000000000000034e .L0 
C:\Users\stapi\AppData\Local\Temp\ccJ15vUB.s:2196   .text.iotx_guider_authenticate:0000000000000352 .L0 
C:\Users\stapi\AppData\Local\Temp\ccJ15vUB.s:2198   .text.iotx_guider_authenticate:0000000000000354 .L0 
C:\Users\stapi\AppData\Local\Temp\ccJ15vUB.s:2199   .text.iotx_guider_authenticate:0000000000000354 .L0 
C:\Users\stapi\AppData\Local\Temp\ccJ15vUB.s:2201   .text.iotx_guider_authenticate:0000000000000356 .L0 
C:\Users\stapi\AppData\Local\Temp\ccJ15vUB.s:2202   .text.iotx_guider_authenticate:0000000000000356 .L0 
C:\Users\stapi\AppData\Local\Temp\ccJ15vUB.s:2205   .text.iotx_guider_authenticate:000000000000035c .L0 
C:\Users\stapi\AppData\Local\Temp\ccJ15vUB.s:2206   .text.iotx_guider_authenticate:000000000000035c .L0 
C:\Users\stapi\AppData\Local\Temp\ccJ15vUB.s:2213   .text.iotx_guider_authenticate:0000000000000368 .L0 
C:\Users\stapi\AppData\Local\Temp\ccJ15vUB.s:2219   .text.iotx_guider_authenticate:0000000000000378 .L0 
C:\Users\stapi\AppData\Local\Temp\ccJ15vUB.s:2225   .text.iotx_guider_authenticate:0000000000000382 .L0 
C:\Users\stapi\AppData\Local\Temp\ccJ15vUB.s:2226   .text.iotx_guider_authenticate:0000000000000382 .L0 
C:\Users\stapi\AppData\Local\Temp\ccJ15vUB.s:2227   .text.iotx_guider_authenticate:0000000000000382 .L0 
C:\Users\stapi\AppData\Local\Temp\ccJ15vUB.s:2232   .text.iotx_guider_authenticate:0000000000000392 .L0 
C:\Users\stapi\AppData\Local\Temp\ccJ15vUB.s:2237   .text.iotx_guider_authenticate:00000000000003a2 .L0 
C:\Users\stapi\AppData\Local\Temp\ccJ15vUB.s:2242   .text.iotx_guider_authenticate:00000000000003b2 .L0 
C:\Users\stapi\AppData\Local\Temp\ccJ15vUB.s:2243   .text.iotx_guider_authenticate:00000000000003b2 .L0 
C:\Users\stapi\AppData\Local\Temp\ccJ15vUB.s:2249   .text.iotx_guider_authenticate:00000000000003c2 .L0 
C:\Users\stapi\AppData\Local\Temp\ccJ15vUB.s:2250   .text.iotx_guider_authenticate:00000000000003c2 .L0 
C:\Users\stapi\AppData\Local\Temp\ccJ15vUB.s:2260   .text.iotx_guider_authenticate:00000000000003e2 .L0 
C:\Users\stapi\AppData\Local\Temp\ccJ15vUB.s:2263   .text.iotx_guider_authenticate:00000000000003e8 .L0 
C:\Users\stapi\AppData\Local\Temp\ccJ15vUB.s:2265   .text.iotx_guider_authenticate:00000000000003ec .L0 
C:\Users\stapi\AppData\Local\Temp\ccJ15vUB.s:2270   .text.iotx_guider_authenticate:00000000000003f4 .L0 
C:\Users\stapi\AppData\Local\Temp\ccJ15vUB.s:2276   .text.iotx_guider_authenticate:0000000000000402 .L0 
C:\Users\stapi\AppData\Local\Temp\ccJ15vUB.s:2284   .text.iotx_guider_authenticate:0000000000000404 .L0 
C:\Users\stapi\AppData\Local\Temp\ccJ15vUB.s:2285   .text.iotx_guider_authenticate:0000000000000404 .L0 
C:\Users\stapi\AppData\Local\Temp\ccJ15vUB.s:2290   .text.iotx_guider_authenticate:0000000000000414 .L0 
C:\Users\stapi\AppData\Local\Temp\ccJ15vUB.s:2295   .text.iotx_guider_authenticate:0000000000000424 .L0 
C:\Users\stapi\AppData\Local\Temp\ccJ15vUB.s:2304   .text.iotx_guider_authenticate:0000000000000432 .L0 
C:\Users\stapi\AppData\Local\Temp\ccJ15vUB.s:2312   .text.iotx_guider_authenticate:0000000000000448 .L0 
C:\Users\stapi\AppData\Local\Temp\ccJ15vUB.s:2313   .text.iotx_guider_authenticate:0000000000000448 .L0 
C:\Users\stapi\AppData\Local\Temp\ccJ15vUB.s:2321   .text.iotx_guider_authenticate:000000000000045a .L0 
C:\Users\stapi\AppData\Local\Temp\ccJ15vUB.s:2322   .text.iotx_guider_authenticate:000000000000045a .L0 
C:\Users\stapi\AppData\Local\Temp\ccJ15vUB.s:2328   .text.iotx_guider_authenticate:000000000000045c .L0 
C:\Users\stapi\AppData\Local\Temp\ccJ15vUB.s:2335   .text.iotx_guider_authenticate:0000000000000460 .L0 
C:\Users\stapi\AppData\Local\Temp\ccJ15vUB.s:2342   .text.iotx_guider_authenticate:000000000000046e .L0 
C:\Users\stapi\AppData\Local\Temp\ccJ15vUB.s:2343   .text.iotx_guider_authenticate:000000000000046e .L0 
C:\Users\stapi\AppData\Local\Temp\ccJ15vUB.s:2344   .text.iotx_guider_authenticate:000000000000046e .L0 
C:\Users\stapi\AppData\Local\Temp\ccJ15vUB.s:2345   .text.iotx_guider_authenticate:000000000000046e .L0 
C:\Users\stapi\AppData\Local\Temp\ccJ15vUB.s:2357   .text.iotx_guider_authenticate:0000000000000492 .L0 
C:\Users\stapi\AppData\Local\Temp\ccJ15vUB.s:2358   .text.iotx_guider_authenticate:0000000000000492 .L0 
C:\Users\stapi\AppData\Local\Temp\ccJ15vUB.s:2361   .text.iotx_guider_authenticate:000000000000049a .L0 
C:\Users\stapi\AppData\Local\Temp\ccJ15vUB.s:2375   .text.iotx_guider_authenticate:00000000000004c6 .L0 
C:\Users\stapi\AppData\Local\Temp\ccJ15vUB.s:2378   .text.iotx_guider_authenticate:00000000000004c6 .L0 
C:\Users\stapi\AppData\Local\Temp\ccJ15vUB.s:2379   .text.iotx_guider_authenticate:00000000000004c6 .L0 
C:\Users\stapi\AppData\Local\Temp\ccJ15vUB.s:2398   .text.iotx_guider_authenticate:00000000000004f0 .L0 
C:\Users\stapi\AppData\Local\Temp\ccJ15vUB.s:2401   .text.iotx_guider_authenticate:00000000000004f8 .L0 
C:\Users\stapi\AppData\Local\Temp\ccJ15vUB.s:2405   .text.iotx_guider_authenticate:00000000000004fc .L0 
C:\Users\stapi\AppData\Local\Temp\ccJ15vUB.s:2406   .text.iotx_guider_authenticate:00000000000004fc .L0 
C:\Users\stapi\AppData\Local\Temp\ccJ15vUB.s:2408   .text.iotx_guider_authenticate:00000000000004fe .L0 
C:\Users\stapi\AppData\Local\Temp\ccJ15vUB.s:2409   .text.iotx_guider_authenticate:00000000000004fe .L0 
C:\Users\stapi\AppData\Local\Temp\ccJ15vUB.s:2411   .text.iotx_guider_authenticate:0000000000000500 .L0 
C:\Users\stapi\AppData\Local\Temp\ccJ15vUB.s:2412   .text.iotx_guider_authenticate:0000000000000500 .L0 
C:\Users\stapi\AppData\Local\Temp\ccJ15vUB.s:2415   .text.iotx_guider_authenticate:0000000000000508 .L0 
C:\Users\stapi\AppData\Local\Temp\ccJ15vUB.s:2418   .text.iotx_guider_authenticate:000000000000050c .L0 
C:\Users\stapi\AppData\Local\Temp\ccJ15vUB.s:2420   .text.iotx_guider_authenticate:000000000000050e .L0 
C:\Users\stapi\AppData\Local\Temp\ccJ15vUB.s:2421   .text.iotx_guider_authenticate:000000000000050e .L0 
C:\Users\stapi\AppData\Local\Temp\ccJ15vUB.s:2431   .text.iotx_guider_authenticate:000000000000051c .L0 
C:\Users\stapi\AppData\Local\Temp\ccJ15vUB.s:2432   .text.iotx_guider_authenticate:000000000000051c .L0 
C:\Users\stapi\AppData\Local\Temp\ccJ15vUB.s:2435   .text.iotx_guider_authenticate:0000000000000524 .L0 
C:\Users\stapi\AppData\Local\Temp\ccJ15vUB.s:2437   .text.iotx_guider_authenticate:0000000000000526 .L0 
C:\Users\stapi\AppData\Local\Temp\ccJ15vUB.s:2440   .text.iotx_guider_authenticate:0000000000000528 .L0 
C:\Users\stapi\AppData\Local\Temp\ccJ15vUB.s:2445   .text.iotx_guider_authenticate:0000000000000532 .L0 
C:\Users\stapi\AppData\Local\Temp\ccJ15vUB.s:2446   .text.iotx_guider_authenticate:0000000000000532 .L0 
C:\Users\stapi\AppData\Local\Temp\ccJ15vUB.s:2447   .text.iotx_guider_authenticate:0000000000000532 .L0 
C:\Users\stapi\AppData\Local\Temp\ccJ15vUB.s:2451   .text.iotx_guider_authenticate:000000000000053c .L0 
C:\Users\stapi\AppData\Local\Temp\ccJ15vUB.s:2461   .text.iotx_guider_authenticate:0000000000000552 .L0 
C:\Users\stapi\AppData\Local\Temp\ccJ15vUB.s:2462   .text.iotx_guider_authenticate:0000000000000552 .L0 
C:\Users\stapi\AppData\Local\Temp\ccJ15vUB.s:2466   .text.iotx_guider_authenticate:0000000000000556 .L0 
C:\Users\stapi\AppData\Local\Temp\ccJ15vUB.s:2470   .text.iotx_guider_authenticate:0000000000000558 .L0 
C:\Users\stapi\AppData\Local\Temp\ccJ15vUB.s:2474   .text.iotx_guider_authenticate:000000000000055c .L0 
C:\Users\stapi\AppData\Local\Temp\ccJ15vUB.s:2475   .text.iotx_guider_authenticate:000000000000055c .L0 
C:\Users\stapi\AppData\Local\Temp\ccJ15vUB.s:2478   .text.iotx_guider_authenticate:0000000000000564 .L0 
C:\Users\stapi\AppData\Local\Temp\ccJ15vUB.s:2479   .text.iotx_guider_authenticate:0000000000000564 .L0 
C:\Users\stapi\AppData\Local\Temp\ccJ15vUB.s:2482   .text.iotx_guider_authenticate:0000000000000564 .L0 
C:\Users\stapi\AppData\Local\Temp\ccJ15vUB.s:2483   .text.iotx_guider_authenticate:0000000000000564 .L0 
C:\Users\stapi\AppData\Local\Temp\ccJ15vUB.s:2486   .text.iotx_guider_authenticate:0000000000000568 .L0 
C:\Users\stapi\AppData\Local\Temp\ccJ15vUB.s:2487   .text.iotx_guider_authenticate:0000000000000568 .L0 
C:\Users\stapi\AppData\Local\Temp\ccJ15vUB.s:2492   .text.iotx_guider_authenticate:0000000000000578 .L0 
C:\Users\stapi\AppData\Local\Temp\ccJ15vUB.s:2498   .text.iotx_guider_authenticate:000000000000058a .L0 
C:\Users\stapi\AppData\Local\Temp\ccJ15vUB.s:2503   .text.iotx_guider_authenticate:0000000000000598 .L0 
C:\Users\stapi\AppData\Local\Temp\ccJ15vUB.s:2504   .text.iotx_guider_authenticate:0000000000000598 .L0 
C:\Users\stapi\AppData\Local\Temp\ccJ15vUB.s:2505   .text.iotx_guider_authenticate:0000000000000598 .L0 
C:\Users\stapi\AppData\Local\Temp\ccJ15vUB.s:2508   .text.iotx_guider_authenticate:000000000000059e .L0 
C:\Users\stapi\AppData\Local\Temp\ccJ15vUB.s:2512   .text.iotx_guider_authenticate:00000000000005a6 .L0 
C:\Users\stapi\AppData\Local\Temp\ccJ15vUB.s:2513   .text.iotx_guider_authenticate:00000000000005a6 .L0 
C:\Users\stapi\AppData\Local\Temp\ccJ15vUB.s:2517   .text.iotx_guider_authenticate:00000000000005aa .L0 
C:\Users\stapi\AppData\Local\Temp\ccJ15vUB.s:2521   .text.iotx_guider_authenticate:00000000000005b4 .L0 
C:\Users\stapi\AppData\Local\Temp\ccJ15vUB.s:2522   .text.iotx_guider_authenticate:00000000000005b4 .L0 
C:\Users\stapi\AppData\Local\Temp\ccJ15vUB.s:2525   .text.iotx_guider_authenticate:00000000000005b8 .L0 
C:\Users\stapi\AppData\Local\Temp\ccJ15vUB.s:2534   .text.iotx_guider_authenticate:00000000000005c4 .L0 
C:\Users\stapi\AppData\Local\Temp\ccJ15vUB.s:2535   .text.iotx_guider_authenticate:00000000000005c4 .L0 
C:\Users\stapi\AppData\Local\Temp\ccJ15vUB.s:2546   .text.iotx_guider_authenticate:00000000000005e2 .L0 
C:\Users\stapi\AppData\Local\Temp\ccJ15vUB.s:2547   .text.iotx_guider_authenticate:00000000000005e2 .L0 
C:\Users\stapi\AppData\Local\Temp\ccJ15vUB.s:2549   .text.iotx_guider_authenticate:00000000000005e4 .L0 
C:\Users\stapi\AppData\Local\Temp\ccJ15vUB.s:2554   .text.iotx_guider_authenticate:00000000000005ee .L0 
C:\Users\stapi\AppData\Local\Temp\ccJ15vUB.s:2561   .text.iotx_guider_authenticate:00000000000005fa .L0 
C:\Users\stapi\AppData\Local\Temp\ccJ15vUB.s:2566   .text.iotx_guider_authenticate:0000000000000606 .L0 
C:\Users\stapi\AppData\Local\Temp\ccJ15vUB.s:2567   .text.iotx_guider_authenticate:0000000000000606 .L0 
C:\Users\stapi\AppData\Local\Temp\ccJ15vUB.s:2568   .text.iotx_guider_authenticate:0000000000000606 .L0 
C:\Users\stapi\AppData\Local\Temp\ccJ15vUB.s:2579   .text.iotx_guider_authenticate:0000000000000624 .L0 
C:\Users\stapi\AppData\Local\Temp\ccJ15vUB.s:2580   .text.iotx_guider_authenticate:0000000000000624 .L0 
C:\Users\stapi\AppData\Local\Temp\ccJ15vUB.s:2582   .text.iotx_guider_authenticate:0000000000000626 .L0 
C:\Users\stapi\AppData\Local\Temp\ccJ15vUB.s:2587   .text.iotx_guider_authenticate:0000000000000630 .L0 
C:\Users\stapi\AppData\Local\Temp\ccJ15vUB.s:2593   .text.iotx_guider_authenticate:000000000000063c .L0 
C:\Users\stapi\AppData\Local\Temp\ccJ15vUB.s:2597   .text.iotx_guider_authenticate:0000000000000646 .L0 
C:\Users\stapi\AppData\Local\Temp\ccJ15vUB.s:2598   .text.iotx_guider_authenticate:0000000000000646 .L0 
C:\Users\stapi\AppData\Local\Temp\ccJ15vUB.s:2599   .text.iotx_guider_authenticate:0000000000000646 .L0 
C:\Users\stapi\AppData\Local\Temp\ccJ15vUB.s:2603   .text.iotx_guider_authenticate:0000000000000650 .L0 
C:\Users\stapi\AppData\Local\Temp\ccJ15vUB.s:2605   .text.iotx_guider_authenticate:0000000000000652 .L0 
C:\Users\stapi\AppData\Local\Temp\ccJ15vUB.s:2608   .text.iotx_guider_authenticate:0000000000000656 .L0 
C:\Users\stapi\AppData\Local\Temp\ccJ15vUB.s:2614   .text.iotx_guider_authenticate:0000000000000658 .L0 
C:\Users\stapi\AppData\Local\Temp\ccJ15vUB.s:2615   .text.iotx_guider_authenticate:0000000000000658 .L0 
C:\Users\stapi\AppData\Local\Temp\ccJ15vUB.s:2623   .text.iotx_guider_authenticate:000000000000066a .L0 
C:\Users\stapi\AppData\Local\Temp\ccJ15vUB.s:2624   .text.iotx_guider_authenticate:000000000000066a .L0 
C:\Users\stapi\AppData\Local\Temp\ccJ15vUB.s:2626   .text.iotx_guider_authenticate:000000000000066c .L0 
C:\Users\stapi\AppData\Local\Temp\ccJ15vUB.s:2627   .text.iotx_guider_authenticate:000000000000066c .L0 
C:\Users\stapi\AppData\Local\Temp\ccJ15vUB.s:2633   .text.iotx_guider_authenticate:000000000000067c .L0 
C:\Users\stapi\AppData\Local\Temp\ccJ15vUB.s:2638   .text.iotx_guider_authenticate:000000000000068c .L0 
C:\Users\stapi\AppData\Local\Temp\ccJ15vUB.s:2643   .text.iotx_guider_authenticate:000000000000069a .L0 
C:\Users\stapi\AppData\Local\Temp\ccJ15vUB.s:2644   .text.iotx_guider_authenticate:000000000000069a .L0 
C:\Users\stapi\AppData\Local\Temp\ccJ15vUB.s:2648   .text.iotx_guider_authenticate:000000000000069c .L0 
C:\Users\stapi\AppData\Local\Temp\ccJ15vUB.s:2653   .text.iotx_guider_authenticate:00000000000006aa .L0 
C:\Users\stapi\AppData\Local\Temp\ccJ15vUB.s:2662   .text.iotx_guider_authenticate:00000000000006c4 .L0 
C:\Users\stapi\AppData\Local\Temp\ccJ15vUB.s:2663   .text.iotx_guider_authenticate:00000000000006c4 .L0 
C:\Users\stapi\AppData\Local\Temp\ccJ15vUB.s:2667   .text.iotx_guider_authenticate:00000000000006ce .L0 
C:\Users\stapi\AppData\Local\Temp\ccJ15vUB.s:2669   .text.iotx_guider_authenticate:00000000000006d0 .L0 
C:\Users\stapi\AppData\Local\Temp\ccJ15vUB.s:2670   .text.iotx_guider_authenticate:00000000000006d0 .L0 
C:\Users\stapi\AppData\Local\Temp\ccJ15vUB.s:2673   .text.iotx_guider_authenticate:00000000000006d4 .L0 
C:\Users\stapi\AppData\Local\Temp\ccJ15vUB.s:2675   .text.iotx_guider_authenticate:00000000000006d6 .L0 
C:\Users\stapi\AppData\Local\Temp\ccJ15vUB.s:2677   .text.iotx_guider_authenticate:00000000000006d8 .L0 
C:\Users\stapi\AppData\Local\Temp\ccJ15vUB.s:2680   .text.iotx_guider_authenticate:00000000000006e0 .L0 
C:\Users\stapi\AppData\Local\Temp\ccJ15vUB.s:2682   .text.iotx_guider_authenticate:00000000000006e4 .L0 
C:\Users\stapi\AppData\Local\Temp\ccJ15vUB.s:2683   .text.iotx_guider_authenticate:00000000000006e4 .L0 
C:\Users\stapi\AppData\Local\Temp\ccJ15vUB.s:2686   .text.iotx_guider_authenticate:00000000000006e8 .L0 
C:\Users\stapi\AppData\Local\Temp\ccJ15vUB.s:2687   .text.iotx_guider_authenticate:00000000000006e8 .L0 
C:\Users\stapi\AppData\Local\Temp\ccJ15vUB.s:2689   .text.iotx_guider_authenticate:00000000000006ec .L0 
C:\Users\stapi\AppData\Local\Temp\ccJ15vUB.s:2694   .text.iotx_guider_authenticate:00000000000006f6 .L0 
C:\Users\stapi\AppData\Local\Temp\ccJ15vUB.s:2695   .text.iotx_guider_authenticate:00000000000006f6 .L0 
C:\Users\stapi\AppData\Local\Temp\ccJ15vUB.s:2699   .text.iotx_guider_authenticate:0000000000000700 .L0 
C:\Users\stapi\AppData\Local\Temp\ccJ15vUB.s:2700   .text.iotx_guider_authenticate:0000000000000700 .L0 
C:\Users\stapi\AppData\Local\Temp\ccJ15vUB.s:2704   .text.iotx_guider_authenticate:000000000000070a .L0 
C:\Users\stapi\AppData\Local\Temp\ccJ15vUB.s:2705   .text.iotx_guider_authenticate:000000000000070a .L0 
C:\Users\stapi\AppData\Local\Temp\ccJ15vUB.s:2707   .text.iotx_guider_authenticate:000000000000070c .L0 
C:\Users\stapi\AppData\Local\Temp\ccJ15vUB.s:2710   .text.iotx_guider_authenticate:0000000000000710 .L0 
C:\Users\stapi\AppData\Local\Temp\ccJ15vUB.s:2718   .text.iotx_guider_authenticate:0000000000000718 .L0 
C:\Users\stapi\AppData\Local\Temp\ccJ15vUB.s:2719   .text.iotx_guider_authenticate:0000000000000718 .L0 
C:\Users\stapi\AppData\Local\Temp\ccJ15vUB.s:2723   .text.iotx_guider_authenticate:0000000000000722 .L0 
C:\Users\stapi\AppData\Local\Temp\ccJ15vUB.s:2724   .text.iotx_guider_authenticate:0000000000000722 .L0 
C:\Users\stapi\AppData\Local\Temp\ccJ15vUB.s:2726   .text.iotx_guider_authenticate:0000000000000726 .L0 
C:\Users\stapi\AppData\Local\Temp\ccJ15vUB.s:2731   .text.iotx_guider_authenticate:0000000000000730 .L0 
C:\Users\stapi\AppData\Local\Temp\ccJ15vUB.s:2732   .text.iotx_guider_authenticate:0000000000000730 .L0 
C:\Users\stapi\AppData\Local\Temp\ccJ15vUB.s:2734   .text.iotx_guider_authenticate:0000000000000732 .L0 
C:\Users\stapi\AppData\Local\Temp\ccJ15vUB.s:2739   .text.iotx_guider_authenticate:000000000000073c .L0 
C:\Users\stapi\AppData\Local\Temp\ccJ15vUB.s:2740   .text.iotx_guider_authenticate:000000000000073c .L0 
C:\Users\stapi\AppData\Local\Temp\ccJ15vUB.s:2742   .text.iotx_guider_authenticate:0000000000000740 .L0 
C:\Users\stapi\AppData\Local\Temp\ccJ15vUB.s:2747   .text.iotx_guider_authenticate:000000000000074a .L0 
C:\Users\stapi\AppData\Local\Temp\ccJ15vUB.s:2748   .text.iotx_guider_authenticate:000000000000074a .L0 
C:\Users\stapi\AppData\Local\Temp\ccJ15vUB.s:2750   .text.iotx_guider_authenticate:000000000000074e .L0 
C:\Users\stapi\AppData\Local\Temp\ccJ15vUB.s:2755   .text.iotx_guider_authenticate:0000000000000758 .L0 
C:\Users\stapi\AppData\Local\Temp\ccJ15vUB.s:2756   .text.iotx_guider_authenticate:0000000000000758 .L0 
C:\Users\stapi\AppData\Local\Temp\ccJ15vUB.s:2758   .text.iotx_guider_authenticate:000000000000075c .L0 
C:\Users\stapi\AppData\Local\Temp\ccJ15vUB.s:2763   .text.iotx_guider_authenticate:0000000000000766 .L0 
C:\Users\stapi\AppData\Local\Temp\ccJ15vUB.s:2764   .text.iotx_guider_authenticate:0000000000000766 .L0 
C:\Users\stapi\AppData\Local\Temp\ccJ15vUB.s:2767   .text.iotx_guider_authenticate:000000000000076e .L0 
C:\Users\stapi\AppData\Local\Temp\ccJ15vUB.s:2768   .text.iotx_guider_authenticate:000000000000076e .L0 
C:\Users\stapi\AppData\Local\Temp\ccJ15vUB.s:2771   .text.iotx_guider_authenticate:0000000000000774 .L0 
C:\Users\stapi\AppData\Local\Temp\ccJ15vUB.s:2780   .text.iotx_guider_authenticate:000000000000077a .L0 
C:\Users\stapi\AppData\Local\Temp\ccJ15vUB.s:2781   .text.iotx_guider_authenticate:000000000000077a .L0 
C:\Users\stapi\AppData\Local\Temp\ccJ15vUB.s:2792   .text.iotx_guider_authenticate:0000000000000780 .L0 
C:\Users\stapi\AppData\Local\Temp\ccJ15vUB.s:2793   .text.iotx_guider_authenticate:0000000000000780 .L0 
C:\Users\stapi\AppData\Local\Temp\ccJ15vUB.s:2795   .text.iotx_guider_authenticate:0000000000000784 .L0 
C:\Users\stapi\AppData\Local\Temp\ccJ15vUB.s:2796   .text.iotx_guider_authenticate:0000000000000784 .L0 
C:\Users\stapi\AppData\Local\Temp\ccJ15vUB.s:2799   .text.iotx_guider_authenticate:0000000000000788 .L0 
C:\Users\stapi\AppData\Local\Temp\ccJ15vUB.s:2800   .text.iotx_guider_authenticate:0000000000000788 .L0 
C:\Users\stapi\AppData\Local\Temp\ccJ15vUB.s:2802   .text.iotx_guider_authenticate:000000000000078a .L0 
C:\Users\stapi\AppData\Local\Temp\ccJ15vUB.s:2803   .text.iotx_guider_authenticate:000000000000078a .L0 
C:\Users\stapi\AppData\Local\Temp\ccJ15vUB.s:2807   .text.iotx_guider_authenticate:000000000000078e .L0 
C:\Users\stapi\AppData\Local\Temp\ccJ15vUB.s:2808   .text.iotx_guider_authenticate:000000000000078e .L0 
C:\Users\stapi\AppData\Local\Temp\ccJ15vUB.s:2811   .text.iotx_guider_authenticate:0000000000000794 .L0 
C:\Users\stapi\AppData\Local\Temp\ccJ15vUB.s:2812   .text.iotx_guider_authenticate:0000000000000794 .L0 
C:\Users\stapi\AppData\Local\Temp\ccJ15vUB.s:2816   .text.iotx_guider_authenticate:000000000000079c .L0 
C:\Users\stapi\AppData\Local\Temp\ccJ15vUB.s:2817   .text.iotx_guider_authenticate:000000000000079c .L0 
C:\Users\stapi\AppData\Local\Temp\ccJ15vUB.s:2820   .text.iotx_guider_authenticate:00000000000007a2 .L0 
C:\Users\stapi\AppData\Local\Temp\ccJ15vUB.s:2821   .text.iotx_guider_authenticate:00000000000007a2 .L0 
C:\Users\stapi\AppData\Local\Temp\ccJ15vUB.s:2825   .text.iotx_guider_authenticate:00000000000007ac .L0 
C:\Users\stapi\AppData\Local\Temp\ccJ15vUB.s:2828   .text.iotx_guider_authenticate:00000000000007b0 .L0 
C:\Users\stapi\AppData\Local\Temp\ccJ15vUB.s:2829   .text.iotx_guider_authenticate:00000000000007b0 .L0 
C:\Users\stapi\AppData\Local\Temp\ccJ15vUB.s:2835   .text.iotx_guider_authenticate:00000000000007be .L0 
C:\Users\stapi\AppData\Local\Temp\ccJ15vUB.s:2837   .text.iotx_guider_authenticate:00000000000007c0 .L0 
C:\Users\stapi\AppData\Local\Temp\ccJ15vUB.s:2838   .text.iotx_guider_authenticate:00000000000007c0 .L0 
C:\Users\stapi\AppData\Local\Temp\ccJ15vUB.s:2840   .text.iotx_guider_authenticate:00000000000007c4 .L0 
C:\Users\stapi\AppData\Local\Temp\ccJ15vUB.s:2841   .text.iotx_guider_authenticate:00000000000007c4 .L0 
C:\Users\stapi\AppData\Local\Temp\ccJ15vUB.s:2848   .text.iotx_guider_authenticate:00000000000007d4 .L0 
C:\Users\stapi\AppData\Local\Temp\ccJ15vUB.s:2849   .text.iotx_guider_authenticate:00000000000007d4 .L0 
C:\Users\stapi\AppData\Local\Temp\ccJ15vUB.s:2851   .text.iotx_guider_authenticate:00000000000007d6 .L0 
C:\Users\stapi\AppData\Local\Temp\ccJ15vUB.s:2852   .text.iotx_guider_authenticate:00000000000007d6 .L0 
C:\Users\stapi\AppData\Local\Temp\ccJ15vUB.s:2857   .text.iotx_guider_authenticate:00000000000007e0 .L0 
C:\Users\stapi\AppData\Local\Temp\ccJ15vUB.s:2858   .text.iotx_guider_authenticate:00000000000007e0 .L0 
C:\Users\stapi\AppData\Local\Temp\ccJ15vUB.s:2860   .text.iotx_guider_authenticate:00000000000007e2 .L0 
C:\Users\stapi\AppData\Local\Temp\ccJ15vUB.s:2862   .text.iotx_guider_authenticate:00000000000007e6 .L0 
C:\Users\stapi\AppData\Local\Temp\ccJ15vUB.s:2865   .text.iotx_guider_authenticate:00000000000007ec .L0 
C:\Users\stapi\AppData\Local\Temp\ccJ15vUB.s:2866   .text.iotx_guider_authenticate:00000000000007ec .L0 
C:\Users\stapi\AppData\Local\Temp\ccJ15vUB.s:2869   .text.iotx_guider_authenticate:00000000000007f0 .L0 
C:\Users\stapi\AppData\Local\Temp\ccJ15vUB.s:2870   .text.iotx_guider_authenticate:00000000000007f0 .L0 
C:\Users\stapi\AppData\Local\Temp\ccJ15vUB.s:2874   .text.iotx_guider_authenticate:00000000000007f4 .L0 
C:\Users\stapi\AppData\Local\Temp\ccJ15vUB.s:2875   .text.iotx_guider_authenticate:00000000000007f4 .L0 
C:\Users\stapi\AppData\Local\Temp\ccJ15vUB.s:2881   .text.iotx_guider_authenticate:0000000000000806 .L0 
C:\Users\stapi\AppData\Local\Temp\ccJ15vUB.s:2883   .text.iotx_guider_authenticate:0000000000000808 .L0 
C:\Users\stapi\AppData\Local\Temp\ccJ15vUB.s:2886   .text.iotx_guider_authenticate:000000000000080a .L0 
C:\Users\stapi\AppData\Local\Temp\ccJ15vUB.s:2887   .text.iotx_guider_authenticate:000000000000080a .L0 
C:\Users\stapi\AppData\Local\Temp\ccJ15vUB.s:2891   .text.iotx_guider_authenticate:000000000000080e .L0 
C:\Users\stapi\AppData\Local\Temp\ccJ15vUB.s:2898   .text.iotx_guider_authenticate:0000000000000816 .L0 
C:\Users\stapi\AppData\Local\Temp\ccJ15vUB.s:2903   .text.iotx_guider_authenticate:000000000000081e .L0 
C:\Users\stapi\AppData\Local\Temp\ccJ15vUB.s:2913   .text.iotx_guider_authenticate:0000000000000820 .L0 
C:\Users\stapi\AppData\Local\Temp\ccJ15vUB.s:2918   .text.iotx_guider_authenticate:0000000000000820 .L0 
C:\Users\stapi\AppData\Local\Temp\ccJ15vUB.s:2919   .text.iotx_guider_authenticate:0000000000000820 .L0 
C:\Users\stapi\AppData\Local\Temp\ccJ15vUB.s:2922   .text.iotx_guider_authenticate:0000000000000826 .L0 
C:\Users\stapi\AppData\Local\Temp\ccJ15vUB.s:2923   .text.iotx_guider_authenticate:0000000000000826 .L0 
C:\Users\stapi\AppData\Local\Temp\ccJ15vUB.s:2926   .text.iotx_guider_authenticate:000000000000082e .L0 
C:\Users\stapi\AppData\Local\Temp\ccJ15vUB.s:2927   .text.iotx_guider_authenticate:000000000000082e .L0 
C:\Users\stapi\AppData\Local\Temp\ccJ15vUB.s:2933   .text.iotx_guider_authenticate:0000000000000840 .L0 
C:\Users\stapi\AppData\Local\Temp\ccJ15vUB.s:2936   .text.iotx_guider_authenticate:0000000000000844 .L0 
C:\Users\stapi\AppData\Local\Temp\ccJ15vUB.s:2937   .text.iotx_guider_authenticate:0000000000000844 .L0 
C:\Users\stapi\AppData\Local\Temp\ccJ15vUB.s:2943   .text.iotx_guider_authenticate:0000000000000852 .L0 
C:\Users\stapi\AppData\Local\Temp\ccJ15vUB.s:2945   .text.iotx_guider_authenticate:0000000000000854 .L0 
C:\Users\stapi\AppData\Local\Temp\ccJ15vUB.s:2946   .text.iotx_guider_authenticate:0000000000000854 .L0 
C:\Users\stapi\AppData\Local\Temp\ccJ15vUB.s:2948   .text.iotx_guider_authenticate:0000000000000856 .L0 
C:\Users\stapi\AppData\Local\Temp\ccJ15vUB.s:2950   .text.iotx_guider_authenticate:0000000000000858 .L0 
C:\Users\stapi\AppData\Local\Temp\ccJ15vUB.s:2961   .text.iotx_guider_authenticate:000000000000086e .L0 
C:\Users\stapi\AppData\Local\Temp\ccJ15vUB.s:2962   .text.iotx_guider_authenticate:000000000000086e .L0 
C:\Users\stapi\AppData\Local\Temp\ccJ15vUB.s:2967   .text.iotx_guider_authenticate:000000000000087a .L0 
C:\Users\stapi\AppData\Local\Temp\ccJ15vUB.s:2973   .text.iotx_guider_authenticate:000000000000088c .L0 
C:\Users\stapi\AppData\Local\Temp\ccJ15vUB.s:2977   .text.iotx_guider_authenticate:0000000000000890 .L0 
C:\Users\stapi\AppData\Local\Temp\ccJ15vUB.s:2978   .text.iotx_guider_authenticate:0000000000000890 .L0 
C:\Users\stapi\AppData\Local\Temp\ccJ15vUB.s:2984   .text.iotx_guider_authenticate:000000000000089e .L0 
C:\Users\stapi\AppData\Local\Temp\ccJ15vUB.s:2986   .text.iotx_guider_authenticate:00000000000008a0 .L0 
C:\Users\stapi\AppData\Local\Temp\ccJ15vUB.s:2987   .text.iotx_guider_authenticate:00000000000008a0 .L0 
C:\Users\stapi\AppData\Local\Temp\ccJ15vUB.s:2990   .text.iotx_guider_authenticate:00000000000008a2 .L0 
C:\Users\stapi\AppData\Local\Temp\ccJ15vUB.s:2992   .text.iotx_guider_authenticate:00000000000008a4 .L0 
C:\Users\stapi\AppData\Local\Temp\ccJ15vUB.s:3006   .text.iotx_guider_authenticate:00000000000008c6 .L0 
C:\Users\stapi\AppData\Local\Temp\ccJ15vUB.s:3010   .text.iotx_guider_authenticate:00000000000008c8 .L0 
C:\Users\stapi\AppData\Local\Temp\ccJ15vUB.s:3011   .text.iotx_guider_authenticate:00000000000008c8 .L0 
C:\Users\stapi\AppData\Local\Temp\ccJ15vUB.s:3016   .text.iotx_guider_authenticate:00000000000008d8 .L0 
C:\Users\stapi\AppData\Local\Temp\ccJ15vUB.s:3021   .text.iotx_guider_authenticate:00000000000008e8 .L0 
C:\Users\stapi\AppData\Local\Temp\ccJ15vUB.s:3026   .text.iotx_guider_authenticate:00000000000008f8 .L0 
C:\Users\stapi\AppData\Local\Temp\ccJ15vUB.s:3027   .text.iotx_guider_authenticate:00000000000008f8 .L0 
C:\Users\stapi\AppData\Local\Temp\ccJ15vUB.s:3028   .text.iotx_guider_authenticate:00000000000008f8 .L0 
C:\Users\stapi\AppData\Local\Temp\ccJ15vUB.s:3034   .text.iotx_guider_authenticate:00000000000008fa .L0 
C:\Users\stapi\AppData\Local\Temp\ccJ15vUB.s:3043   .text.iotx_guider_authenticate:00000000000008fe .L0 
C:\Users\stapi\AppData\Local\Temp\ccJ15vUB.s:3048   .text.iotx_guider_authenticate:000000000000090c .L0 
C:\Users\stapi\AppData\Local\Temp\ccJ15vUB.s:3049   .text.iotx_guider_authenticate:000000000000090c .L0 
C:\Users\stapi\AppData\Local\Temp\ccJ15vUB.s:3050   .text.iotx_guider_authenticate:000000000000090c .L0 
C:\Users\stapi\AppData\Local\Temp\ccJ15vUB.s:3062   .text.iotx_guider_authenticate:000000000000092e .L0 
C:\Users\stapi\AppData\Local\Temp\ccJ15vUB.s:3063   .text.iotx_guider_authenticate:000000000000092e .L0 
C:\Users\stapi\AppData\Local\Temp\ccJ15vUB.s:3066   .text.iotx_guider_authenticate:0000000000000936 .L0 
C:\Users\stapi\AppData\Local\Temp\ccJ15vUB.s:3080   .text.iotx_guider_authenticate:0000000000000962 .L0 
C:\Users\stapi\AppData\Local\Temp\ccJ15vUB.s:3081   .text.iotx_guider_authenticate:0000000000000962 .L0 
C:\Users\stapi\AppData\Local\Temp\ccJ15vUB.s:3082   .text.iotx_guider_authenticate:0000000000000962 .L0 
C:\Users\stapi\AppData\Local\Temp\ccJ15vUB.s:3086   .text.iotx_guider_authenticate:000000000000096c .L0 
C:\Users\stapi\AppData\Local\Temp\ccJ15vUB.s:3088   .text.iotx_guider_authenticate:0000000000000970 .L0 
C:\Users\stapi\AppData\Local\Temp\ccJ15vUB.s:3090   .text.iotx_guider_authenticate:0000000000000972 .L0 
C:\Users\stapi\AppData\Local\Temp\ccJ15vUB.s:3095   .text.iotx_guider_authenticate:000000000000097e .L0 
C:\Users\stapi\AppData\Local\Temp\ccJ15vUB.s:3098   .text.iotx_guider_authenticate:0000000000000982 .L0 
C:\Users\stapi\AppData\Local\Temp\ccJ15vUB.s:3100   .text.iotx_guider_authenticate:0000000000000984 .L0 
C:\Users\stapi\AppData\Local\Temp\ccJ15vUB.s:3105   .text.iotx_guider_authenticate:0000000000000990 .L0 
C:\Users\stapi\AppData\Local\Temp\ccJ15vUB.s:3106   .text.iotx_guider_authenticate:0000000000000990 .L0 
C:\Users\stapi\AppData\Local\Temp\ccJ15vUB.s:3110   .text.iotx_guider_authenticate:000000000000099a .L0 
C:\Users\stapi\AppData\Local\Temp\ccJ15vUB.s:3111   .text.iotx_guider_authenticate:000000000000099a .L0 
C:\Users\stapi\AppData\Local\Temp\ccJ15vUB.s:3117   .text.iotx_guider_authenticate:000000000000099c .L0 
C:\Users\stapi\AppData\Local\Temp\ccJ15vUB.s:3126   .text.iotx_guider_authenticate:00000000000009b4 .L0 
C:\Users\stapi\AppData\Local\Temp\ccJ15vUB.s:3127   .text.iotx_guider_authenticate:00000000000009b4 .L0 
C:\Users\stapi\AppData\Local\Temp\ccJ15vUB.s:3130   .text.iotx_guider_authenticate:00000000000009ba .L0 
C:\Users\stapi\AppData\Local\Temp\ccJ15vUB.s:3143   .text.iotx_guider_authenticate:00000000000009d6 .L0 
C:\Users\stapi\AppData\Local\Temp\ccJ15vUB.s:3144   .text.iotx_guider_authenticate:00000000000009d6 .L0 
C:\Users\stapi\AppData\Local\Temp\ccJ15vUB.s:3146   .text.iotx_guider_authenticate:00000000000009d8 .L0 
C:\Users\stapi\AppData\Local\Temp\ccJ15vUB.s:3148   .text.iotx_guider_authenticate:00000000000009da .L0 
C:\Users\stapi\AppData\Local\Temp\ccJ15vUB.s:3152   .text.iotx_guider_authenticate:00000000000009e2 .L0 
C:\Users\stapi\AppData\Local\Temp\ccJ15vUB.s:3153   .text.iotx_guider_authenticate:00000000000009e2 .L0 
C:\Users\stapi\AppData\Local\Temp\ccJ15vUB.s:3155   .text.iotx_guider_authenticate:00000000000009e4 .L0 
C:\Users\stapi\AppData\Local\Temp\ccJ15vUB.s:3157   .text.iotx_guider_authenticate:00000000000009e6 .L0 
C:\Users\stapi\AppData\Local\Temp\ccJ15vUB.s:3161   .text.iotx_guider_authenticate:00000000000009ee .L0 
C:\Users\stapi\AppData\Local\Temp\ccJ15vUB.s:3162   .text.iotx_guider_authenticate:00000000000009ee .L0 
C:\Users\stapi\AppData\Local\Temp\ccJ15vUB.s:3164   .text.iotx_guider_authenticate:00000000000009f0 .L0 
C:\Users\stapi\AppData\Local\Temp\ccJ15vUB.s:3166   .text.iotx_guider_authenticate:00000000000009f2 .L0 
C:\Users\stapi\AppData\Local\Temp\ccJ15vUB.s:3168   .text.iotx_guider_authenticate:00000000000009f4 .L0 
C:\Users\stapi\AppData\Local\Temp\ccJ15vUB.s:3176   .text.iotx_guider_authenticate:00000000000009fe .L0 
C:\Users\stapi\AppData\Local\Temp\ccJ15vUB.s:3177   .text.iotx_guider_authenticate:00000000000009fe .L0 
C:\Users\stapi\AppData\Local\Temp\ccJ15vUB.s:3180   .text.iotx_guider_authenticate:0000000000000a04 .L0 
C:\Users\stapi\AppData\Local\Temp\ccJ15vUB.s:3181   .text.iotx_guider_authenticate:0000000000000a04 .L0 
C:\Users\stapi\AppData\Local\Temp\ccJ15vUB.s:3186   .text.iotx_guider_authenticate:0000000000000a14 .L0 
C:\Users\stapi\AppData\Local\Temp\ccJ15vUB.s:3191   .text.iotx_guider_authenticate:0000000000000a24 .L0 
C:\Users\stapi\AppData\Local\Temp\ccJ15vUB.s:3196   .text.iotx_guider_authenticate:0000000000000a34 .L0 
C:\Users\stapi\AppData\Local\Temp\ccJ15vUB.s:3199   .text.iotx_guider_authenticate:0000000000000a38 .L0 
C:\Users\stapi\AppData\Local\Temp\ccJ15vUB.s:3200   .text.iotx_guider_authenticate:0000000000000a38 .L0 
C:\Users\stapi\AppData\Local\Temp\ccJ15vUB.s:3206   .text.iotx_guider_authenticate:0000000000000a42 .L0 
C:\Users\stapi\AppData\Local\Temp\ccJ15vUB.s:3210   .text.iotx_guider_authenticate:0000000000000a44 .L0 
C:\Users\stapi\AppData\Local\Temp\ccJ15vUB.s:3212   .text.iotx_guider_authenticate:0000000000000a46 .L0 
C:\Users\stapi\AppData\Local\Temp\ccJ15vUB.s:3216   .text.iotx_guider_authenticate:0000000000000a48 .L0 
C:\Users\stapi\AppData\Local\Temp\ccJ15vUB.s:3221   .text.iotx_guider_authenticate:0000000000000a4c .L0 
C:\Users\stapi\AppData\Local\Temp\ccJ15vUB.s:3228   .text.iotx_guider_authenticate:0000000000000a50 .L0 
C:\Users\stapi\AppData\Local\Temp\ccJ15vUB.s:3229   .text.iotx_guider_authenticate:0000000000000a50 .L0 
C:\Users\stapi\AppData\Local\Temp\ccJ15vUB.s:3236   .text.iotx_guider_authenticate:0000000000000a56 .L0 
C:\Users\stapi\AppData\Local\Temp\ccJ15vUB.s:3237   .text.iotx_guider_authenticate:0000000000000a56 .L0 
C:\Users\stapi\AppData\Local\Temp\ccJ15vUB.s:3238   .text.iotx_guider_authenticate:0000000000000a56 .L0 
C:\Users\stapi\AppData\Local\Temp\ccJ15vUB.s:3241   .text.iotx_guider_authenticate:0000000000000a56 .L0 
C:\Users\stapi\AppData\Local\Temp\ccJ15vUB.s:3242   .text.iotx_guider_authenticate:0000000000000a56 .L0 
C:\Users\stapi\AppData\Local\Temp\ccJ15vUB.s:3243   .text.iotx_guider_authenticate:0000000000000a56 .L0 
C:\Users\stapi\AppData\Local\Temp\ccJ15vUB.s:3244   .text.iotx_guider_authenticate:0000000000000a56 .L0 
C:\Users\stapi\AppData\Local\Temp\ccJ15vUB.s:3245   .text.iotx_guider_authenticate:0000000000000a56 .L0 
C:\Users\stapi\AppData\Local\Temp\ccJ15vUB.s:3246   .text.iotx_guider_authenticate:0000000000000a56 .L0 
C:\Users\stapi\AppData\Local\Temp\ccJ15vUB.s:3250   .text.iotx_guider_authenticate:0000000000000a5c .L0 
C:\Users\stapi\AppData\Local\Temp\ccJ15vUB.s:3255   .text.iotx_guider_authenticate:0000000000000a64 .L0 
C:\Users\stapi\AppData\Local\Temp\ccJ15vUB.s:3256   .text.iotx_guider_authenticate:0000000000000a64 .L0 
C:\Users\stapi\AppData\Local\Temp\ccJ15vUB.s:3260   .text.iotx_guider_authenticate:0000000000000a6e .L0 
C:\Users\stapi\AppData\Local\Temp\ccJ15vUB.s:3261   .text.iotx_guider_authenticate:0000000000000a6e .L0 
C:\Users\stapi\AppData\Local\Temp\ccJ15vUB.s:3262   .text.iotx_guider_authenticate:0000000000000a6e .L0 
C:\Users\stapi\AppData\Local\Temp\ccJ15vUB.s:3269   .text.iotx_guider_authenticate:0000000000000a80 .L0 
C:\Users\stapi\AppData\Local\Temp\ccJ15vUB.s:3270   .text.iotx_guider_authenticate:0000000000000a80 .L0 
C:\Users\stapi\AppData\Local\Temp\ccJ15vUB.s:3275   .text.iotx_guider_authenticate:0000000000000a88 .L0 
C:\Users\stapi\AppData\Local\Temp\ccJ15vUB.s:3280   .text.iotx_guider_authenticate:0000000000000a90 .L0 
C:\Users\stapi\AppData\Local\Temp\ccJ15vUB.s:3282   .text.iotx_guider_authenticate:0000000000000a92 .L0 
C:\Users\stapi\AppData\Local\Temp\ccJ15vUB.s:3287   .text.iotx_guider_authenticate:0000000000000a94 .L0 
C:\Users\stapi\AppData\Local\Temp\ccJ15vUB.s:3288   .text.iotx_guider_authenticate:0000000000000a94 .L0 
C:\Users\stapi\AppData\Local\Temp\ccJ15vUB.s:3296   .text.iotx_guider_authenticate:0000000000000aa0 .L0 
C:\Users\stapi\AppData\Local\Temp\ccJ15vUB.s:3301   .text.iotx_guider_authenticate:0000000000000aa2 .L0 
C:\Users\stapi\AppData\Local\Temp\ccJ15vUB.s:3302   .text.iotx_guider_authenticate:0000000000000aa2 .L0 
C:\Users\stapi\AppData\Local\Temp\ccJ15vUB.s:3307   .text.iotx_guider_authenticate:0000000000000aaa .L0 
C:\Users\stapi\AppData\Local\Temp\ccJ15vUB.s:3310   .text.iotx_guider_authenticate:0000000000000aaa .L0 
C:\Users\stapi\AppData\Local\Temp\ccJ15vUB.s:3311   .text.iotx_guider_authenticate:0000000000000aaa .L0 
C:\Users\stapi\AppData\Local\Temp\ccJ15vUB.s:3312   .text.iotx_guider_authenticate:0000000000000aaa .L0 
C:\Users\stapi\AppData\Local\Temp\ccJ15vUB.s:3313   .text.iotx_guider_authenticate:0000000000000aaa .L0 
C:\Users\stapi\AppData\Local\Temp\ccJ15vUB.s:3314   .text.iotx_guider_authenticate:0000000000000aaa .L0 
C:\Users\stapi\AppData\Local\Temp\ccJ15vUB.s:3317   .text.iotx_guider_authenticate:0000000000000aaa .L0 
C:\Users\stapi\AppData\Local\Temp\ccJ15vUB.s:3318   .text.iotx_guider_authenticate:0000000000000aaa .L0 
C:\Users\stapi\AppData\Local\Temp\ccJ15vUB.s:3319   .text.iotx_guider_authenticate:0000000000000aaa .L0 
C:\Users\stapi\AppData\Local\Temp\ccJ15vUB.s:3323   .text.iotx_guider_authenticate:0000000000000aae .L0 
C:\Users\stapi\AppData\Local\Temp\ccJ15vUB.s:3326   .text.iotx_guider_authenticate:0000000000000ab4 .L0 
C:\Users\stapi\AppData\Local\Temp\ccJ15vUB.s:3327   .text.iotx_guider_authenticate:0000000000000ab4 .L0 
C:\Users\stapi\AppData\Local\Temp\ccJ15vUB.s:3330   .text.iotx_guider_authenticate:0000000000000abc .L0 
C:\Users\stapi\AppData\Local\Temp\ccJ15vUB.s:3331   .text.iotx_guider_authenticate:0000000000000abc .L0 
C:\Users\stapi\AppData\Local\Temp\ccJ15vUB.s:3337   .text.iotx_guider_authenticate:0000000000000acc .L0 
C:\Users\stapi\AppData\Local\Temp\ccJ15vUB.s:3339   .text.iotx_guider_authenticate:0000000000000ace .L0 
C:\Users\stapi\AppData\Local\Temp\ccJ15vUB.s:3340   .text.iotx_guider_authenticate:0000000000000ace .L0 
C:\Users\stapi\AppData\Local\Temp\ccJ15vUB.s:3342   .text.iotx_guider_authenticate:0000000000000ad2 .L0 
C:\Users\stapi\AppData\Local\Temp\ccJ15vUB.s:3351   .text.iotx_guider_authenticate:0000000000000ae6 .L0 
C:\Users\stapi\AppData\Local\Temp\ccJ15vUB.s:3354   .text.iotx_guider_authenticate:0000000000000ae6 .L0 
C:\Users\stapi\AppData\Local\Temp\ccJ15vUB.s:3355   .text.iotx_guider_authenticate:0000000000000ae6 .L0 
C:\Users\stapi\AppData\Local\Temp\ccJ15vUB.s:3356   .text.iotx_guider_authenticate:0000000000000ae6 .L0 
C:\Users\stapi\AppData\Local\Temp\ccJ15vUB.s:3357   .text.iotx_guider_authenticate:0000000000000ae6 .L0 
C:\Users\stapi\AppData\Local\Temp\ccJ15vUB.s:3358   .text.iotx_guider_authenticate:0000000000000ae6 .L0 
C:\Users\stapi\AppData\Local\Temp\ccJ15vUB.s:3374   .text.iotx_guider_authenticate:0000000000000af8 .L0 
C:\Users\stapi\AppData\Local\Temp\ccJ15vUB.s:3375   .text.iotx_guider_authenticate:0000000000000af8 .L0 
C:\Users\stapi\AppData\Local\Temp\ccJ15vUB.s:3385   .text.iotx_guider_authenticate:0000000000000afc .L0 
C:\Users\stapi\AppData\Local\Temp\ccJ15vUB.s:3387   .text.iotx_guider_authenticate:0000000000000b00 .L0 
C:\Users\stapi\AppData\Local\Temp\ccJ15vUB.s:3388   .text.iotx_guider_authenticate:0000000000000b00 .L0 
C:\Users\stapi\AppData\Local\Temp\ccJ15vUB.s:3394   .text.iotx_guider_authenticate:0000000000000b10 .L0 
C:\Users\stapi\AppData\Local\Temp\ccJ15vUB.s:3399   .text.iotx_guider_authenticate:0000000000000b20 .L0 
C:\Users\stapi\AppData\Local\Temp\ccJ15vUB.s:3404   .text.iotx_guider_authenticate:0000000000000b30 .L0 
C:\Users\stapi\AppData\Local\Temp\ccJ15vUB.s:3408   .text.iotx_guider_authenticate:0000000000000b30 .L0 
C:\Users\stapi\AppData\Local\Temp\ccJ15vUB.s:3409   .text.iotx_guider_authenticate:0000000000000b30 .L0 
C:\Users\stapi\AppData\Local\Temp\ccJ15vUB.s:3418   .text.iotx_guider_authenticate:0000000000000b44 .L0 
C:\Users\stapi\AppData\Local\Temp\ccJ15vUB.s:3419   .text.iotx_guider_authenticate:0000000000000b44 .L0 
C:\Users\stapi\AppData\Local\Temp\ccJ15vUB.s:3424   .text.iotx_guider_authenticate:0000000000000b50 .L0 
C:\Users\stapi\AppData\Local\Temp\ccJ15vUB.s:3428   .text.iotx_guider_authenticate:0000000000000b5a .L0 
C:\Users\stapi\AppData\Local\Temp\ccJ15vUB.s:3430   .text.iotx_guider_authenticate:0000000000000b5c .L0 
C:\Users\stapi\AppData\Local\Temp\ccJ15vUB.s:3433   .text.iotx_guider_authenticate:0000000000000b5e .L0 
C:\Users\stapi\AppData\Local\Temp\ccJ15vUB.s:3434   .text.iotx_guider_authenticate:0000000000000b5e .L0 
C:\Users\stapi\AppData\Local\Temp\ccJ15vUB.s:3440   .text.iotx_guider_authenticate:0000000000000b6c .L0 
C:\Users\stapi\AppData\Local\Temp\ccJ15vUB.s:3442   .text.iotx_guider_authenticate:0000000000000b6e .L0 
C:\Users\stapi\AppData\Local\Temp\ccJ15vUB.s:3443   .text.iotx_guider_authenticate:0000000000000b6e .L0 
C:\Users\stapi\AppData\Local\Temp\ccJ15vUB.s:3445   .text.iotx_guider_authenticate:0000000000000b72 .L0 
C:\Users\stapi\AppData\Local\Temp\ccJ15vUB.s:3453   .text.iotx_guider_authenticate:0000000000000b88 .L0 
C:\Users\stapi\AppData\Local\Temp\ccJ15vUB.s:3454   .text.iotx_guider_authenticate:0000000000000b88 .L0 
C:\Users\stapi\AppData\Local\Temp\ccJ15vUB.s:3455   .text.iotx_guider_authenticate:0000000000000b88 .L0 
C:\Users\stapi\AppData\Local\Temp\ccJ15vUB.s:3461   .text.iotx_guider_authenticate:0000000000000b98 .L0 
C:\Users\stapi\AppData\Local\Temp\ccJ15vUB.s:3463   .text.iotx_guider_authenticate:0000000000000b9a .L0 
C:\Users\stapi\AppData\Local\Temp\ccJ15vUB.s:3464   .text.iotx_guider_authenticate:0000000000000b9a .L0 
C:\Users\stapi\AppData\Local\Temp\ccJ15vUB.s:3466   .text.iotx_guider_authenticate:0000000000000b9e .L0 
C:\Users\stapi\AppData\Local\Temp\ccJ15vUB.s:3472   .text.iotx_guider_authenticate:0000000000000bb0 .L0 
C:\Users\stapi\AppData\Local\Temp\ccJ15vUB.s:3473   .text.iotx_guider_authenticate:0000000000000bb0 .L0 
C:\Users\stapi\AppData\Local\Temp\ccJ15vUB.s:3476   .text.iotx_guider_authenticate:0000000000000bb8 .L0 
C:\Users\stapi\AppData\Local\Temp\ccJ15vUB.s:3478   .text.iotx_guider_authenticate:0000000000000bba .L0 
C:\Users\stapi\AppData\Local\Temp\ccJ15vUB.s:3479   .text.iotx_guider_authenticate:0000000000000bba .L0 
C:\Users\stapi\AppData\Local\Temp\ccJ15vUB.s:3485   .text.iotx_guider_authenticate:0000000000000bca .L0 
C:\Users\stapi\AppData\Local\Temp\ccJ15vUB.s:3487   .text.iotx_guider_authenticate:0000000000000bcc .L0 
C:\Users\stapi\AppData\Local\Temp\ccJ15vUB.s:3488   .text.iotx_guider_authenticate:0000000000000bcc .L0 
C:\Users\stapi\AppData\Local\Temp\ccJ15vUB.s:3491   .text.iotx_guider_authenticate:0000000000000bd0 .L0 
C:\Users\stapi\AppData\Local\Temp\ccJ15vUB.s:3492   .text.iotx_guider_authenticate:0000000000000bd0 .L0 
C:\Users\stapi\AppData\Local\Temp\ccJ15vUB.s:3496   .text.iotx_guider_authenticate:0000000000000bda .L0 
C:\Users\stapi\AppData\Local\Temp\ccJ15vUB.s:3502   .text.iotx_guider_authenticate:0000000000000bea .L0 
C:\Users\stapi\AppData\Local\Temp\ccJ15vUB.s:3503   .text.iotx_guider_authenticate:0000000000000bea .L0 
C:\Users\stapi\AppData\Local\Temp\ccJ15vUB.s:3505   .text.iotx_guider_authenticate:0000000000000bec .L0 
C:\Users\stapi\AppData\Local\Temp\ccJ15vUB.s:3509   .text.iotx_guider_authenticate:0000000000000bf4 .L0 
C:\Users\stapi\AppData\Local\Temp\ccJ15vUB.s:3510   .text.iotx_guider_authenticate:0000000000000bf4 .L0 
C:\Users\stapi\AppData\Local\Temp\ccJ15vUB.s:3513   .text.iotx_guider_authenticate:0000000000000bfa .L0 
C:\Users\stapi\AppData\Local\Temp\ccJ15vUB.s:3523   .text.iotx_guider_authenticate:0000000000000c14 .L0 
C:\Users\stapi\AppData\Local\Temp\ccJ15vUB.s:3544   .text.iotx_guider_authenticate:0000000000000c4e .L0 
C:\Users\stapi\AppData\Local\Temp\ccJ15vUB.s:3545   .text.iotx_guider_authenticate:0000000000000c4e .L0 
C:\Users\stapi\AppData\Local\Temp\ccJ15vUB.s:3546   .text.iotx_guider_authenticate:0000000000000c4e .L0 
C:\Users\stapi\AppData\Local\Temp\ccJ15vUB.s:3547   .text.iotx_guider_authenticate:0000000000000c4e .L0 
C:\Users\stapi\AppData\Local\Temp\ccJ15vUB.s:3548   .text.iotx_guider_authenticate:0000000000000c4e .L0 
C:\Users\stapi\AppData\Local\Temp\ccJ15vUB.s:3549   .text.iotx_guider_authenticate:0000000000000c4e .L0 
C:\Users\stapi\AppData\Local\Temp\ccJ15vUB.s:3552   .text.iotx_guider_authenticate:0000000000000c56 .L0 
C:\Users\stapi\AppData\Local\Temp\ccJ15vUB.s:3560   .text.iotx_guider_authenticate:0000000000000c70 .L0 
C:\Users\stapi\AppData\Local\Temp\ccJ15vUB.s:3568   .text.iotx_guider_authenticate:0000000000000c8c .L0 
C:\Users\stapi\AppData\Local\Temp\ccJ15vUB.s:3575   .text.iotx_guider_authenticate:0000000000000ca2 .L0 
C:\Users\stapi\AppData\Local\Temp\ccJ15vUB.s:3576   .text.iotx_guider_authenticate:0000000000000ca2 .L0 
C:\Users\stapi\AppData\Local\Temp\ccJ15vUB.s:3578   .text.iotx_guider_authenticate:0000000000000ca6 .L0 
C:\Users\stapi\AppData\Local\Temp\ccJ15vUB.s:3580   .text.iotx_guider_authenticate:0000000000000caa .L0 
C:\Users\stapi\AppData\Local\Temp\ccJ15vUB.s:3581   .text.iotx_guider_authenticate:0000000000000caa .L0 
C:\Users\stapi\AppData\Local\Temp\ccJ15vUB.s:3585   .text.iotx_guider_authenticate:0000000000000cb4 .L0 
C:\Users\stapi\AppData\Local\Temp\ccJ15vUB.s:3586   .text.iotx_guider_authenticate:0000000000000cb4 .L0 
C:\Users\stapi\AppData\Local\Temp\ccJ15vUB.s:3589   .text.iotx_guider_authenticate:0000000000000cbc .L0 
C:\Users\stapi\AppData\Local\Temp\ccJ15vUB.s:3590   .text.iotx_guider_authenticate:0000000000000cbc .L0 
C:\Users\stapi\AppData\Local\Temp\ccJ15vUB.s:3593   .text.iotx_guider_authenticate:0000000000000cc0 .L0 
C:\Users\stapi\AppData\Local\Temp\ccJ15vUB.s:3603   .text.iotx_guider_authenticate:0000000000000cdc .L0 
C:\Users\stapi\AppData\Local\Temp\ccJ15vUB.s:3608   .text.iotx_guider_authenticate:0000000000000ce4 .L0 
C:\Users\stapi\AppData\Local\Temp\ccJ15vUB.s:3612   .text.iotx_guider_authenticate:0000000000000ce6 .L0 
C:\Users\stapi\AppData\Local\Temp\ccJ15vUB.s:3617   .text.iotx_guider_authenticate:0000000000000ce8 .L0 
C:\Users\stapi\AppData\Local\Temp\ccJ15vUB.s:3680   .data.domain_mqtt_direct_pre:0000000000000000 domain_mqtt_direct_pre
C:\Users\stapi\AppData\Local\Temp\ccJ15vUB.s:3668   .data.domain_mqtt_direct:0000000000000000 domain_mqtt_direct
C:\Users\stapi\AppData\Local\Temp\ccJ15vUB.s:3658   .bss.iotx_domain_custom:0000000000000000 .LANCHOR8
C:\Users\stapi\AppData\Local\Temp\ccJ15vUB.s:3661   .bss.iotx_domain_custom:0000000000000000 iotx_domain_custom
C:\Users\stapi\AppData\Local\Temp\ccJ15vUB.s:3665   .data.domain_mqtt_direct:0000000000000000 .LANCHOR7
C:\Users\stapi\AppData\Local\Temp\ccJ15vUB.s:3677   .data.domain_mqtt_direct_pre:0000000000000000 .LANCHOR6
C:\Users\stapi\AppData\Local\Temp\ccJ15vUB.s:3689   .rodata.__FUNCTION__.5:0000000000000000 .LANCHOR13
C:\Users\stapi\AppData\Local\Temp\ccJ15vUB.s:3692   .rodata.__FUNCTION__.5:0000000000000000 __FUNCTION__.5
C:\Users\stapi\AppData\Local\Temp\ccJ15vUB.s:3696   .rodata.__FUNCTION__.8:0000000000000000 .LANCHOR5
C:\Users\stapi\AppData\Local\Temp\ccJ15vUB.s:3699   .rodata.__FUNCTION__.8:0000000000000000 __FUNCTION__.8
C:\Users\stapi\AppData\Local\Temp\ccJ15vUB.s:3703   .rodata.__FUNCTION__.9:0000000000000000 .LANCHOR3
C:\Users\stapi\AppData\Local\Temp\ccJ15vUB.s:3706   .rodata.__FUNCTION__.9:0000000000000000 __FUNCTION__.9
C:\Users\stapi\AppData\Local\Temp\ccJ15vUB.s:3710   .rodata.__func__.1:0000000000000000 .LANCHOR15
C:\Users\stapi\AppData\Local\Temp\ccJ15vUB.s:3713   .rodata.__func__.1:0000000000000000 __func__.1
C:\Users\stapi\AppData\Local\Temp\ccJ15vUB.s:3717   .rodata.__func__.2:0000000000000000 .LANCHOR14
C:\Users\stapi\AppData\Local\Temp\ccJ15vUB.s:3720   .rodata.__func__.2:0000000000000000 __func__.2
C:\Users\stapi\AppData\Local\Temp\ccJ15vUB.s:3724   .rodata.__func__.4:0000000000000000 .LANCHOR12
C:\Users\stapi\AppData\Local\Temp\ccJ15vUB.s:3727   .rodata.__func__.4:0000000000000000 __func__.4
C:\Users\stapi\AppData\Local\Temp\ccJ15vUB.s:3731   .rodata.__func__.6:0000000000000000 .LANCHOR10
C:\Users\stapi\AppData\Local\Temp\ccJ15vUB.s:3734   .rodata.__func__.6:0000000000000000 __func__.6
C:\Users\stapi\AppData\Local\Temp\ccJ15vUB.s:3738   .rodata.__func__.7:0000000000000000 .LANCHOR9
C:\Users\stapi\AppData\Local\Temp\ccJ15vUB.s:3741   .rodata.__func__.7:0000000000000000 __func__.7
C:\Users\stapi\AppData\Local\Temp\ccJ15vUB.s:3744   .sbss.direct_connect_count:0000000000000000 .LANCHOR1
C:\Users\stapi\AppData\Local\Temp\ccJ15vUB.s:3747   .sbss.direct_connect_count:0000000000000000 direct_connect_count
C:\Users\stapi\AppData\Local\Temp\ccJ15vUB.s:3750   .sbss.is_request_mqtt_host_by_regionid:0000000000000000 .LANCHOR11
C:\Users\stapi\AppData\Local\Temp\ccJ15vUB.s:3753   .sbss.is_request_mqtt_host_by_regionid:0000000000000000 is_request_mqtt_host_by_regionid
C:\Users\stapi\AppData\Local\Temp\ccJ15vUB.s:3757   .sbss.secure_mode_str.3:0000000000000000 .LANCHOR0
C:\Users\stapi\AppData\Local\Temp\ccJ15vUB.s:3760   .sbss.secure_mode_str.3:0000000000000000 secure_mode_str.3
C:\Users\stapi\AppData\Local\Temp\ccJ15vUB.s:3764   .sdata.bootup_connect_method:0000000000000000 .LANCHOR4
C:\Users\stapi\AppData\Local\Temp\ccJ15vUB.s:3767   .sdata.bootup_connect_method:0000000000000000 bootup_connect_method
C:\Users\stapi\AppData\Local\Temp\ccJ15vUB.s:3771   .sdata.guider_env:0000000000000000 .LANCHOR2
C:\Users\stapi\AppData\Local\Temp\ccJ15vUB.s:3774   .sdata.guider_env:0000000000000000 guider_env
C:\Users\stapi\AppData\Local\Temp\ccJ15vUB.s:30     .text.printf_parting_line.isra.0:0000000000000010 .L0 
C:\Users\stapi\AppData\Local\Temp\ccJ15vUB.s:253    .text.guider_print_dev_guider_info.constprop.0:0000000000000144 .L0 
C:\Users\stapi\AppData\Local\Temp\ccJ15vUB.s:285    .text.iotx_guider_get_region:0000000000000022 .L0 
C:\Users\stapi\AppData\Local\Temp\ccJ15vUB.s:306    .text.guider_set_direct_connect_count:000000000000000c .L0 
C:\Users\stapi\AppData\Local\Temp\ccJ15vUB.s:370    .text.iotx_guider_get_kv_env:0000000000000050 .L0 
C:\Users\stapi\AppData\Local\Temp\ccJ15vUB.s:386    .text.iotx_guider_get_env:000000000000000a .L0 
C:\Users\stapi\AppData\Local\Temp\ccJ15vUB.s:511    .text.iotx_guider_set_dynamic_mqtt_url:00000000000000b4 .L0 
C:\Users\stapi\AppData\Local\Temp\ccJ15vUB.s:653    .text.iotx_guider_get_region_id:00000000000000d2 .L0 
C:\Users\stapi\AppData\Local\Temp\ccJ15vUB.s:710    .text.iotx_guider_clear_dynamic_url:000000000000005e .L0 
C:\Users\stapi\AppData\Local\Temp\ccJ15vUB.s:1154   .text.iotx_guider_set_dynamic_region:000000000000028a .L0 
C:\Users\stapi\AppData\Local\Temp\ccJ15vUB.s:1345   .text.iotx_guider_get_domain:00000000000000e8 .L0 
C:\Users\stapi\AppData\Local\Temp\ccJ15vUB.s:1425   .text.iotx_guider_set_custom_domain:0000000000000066 .L0 
C:\Users\stapi\AppData\Local\Temp\ccJ15vUB.s:1528   .text.iotx_guider_fill_conn_string:0000000000000076 .L0 
C:\Users\stapi\AppData\Local\Temp\ccJ15vUB.s:3621   .text.iotx_guider_authenticate:0000000000000ce8 .L0 
                     .debug_frame:0000000000000000 .L0 
C:\Users\stapi\AppData\Local\Temp\ccJ15vUB.s:11     .rodata.printf_parting_line.isra.0.str1.4:0000000000000000 .LC0
C:\Users\stapi\AppData\Local\Temp\ccJ15vUB.s:35     .rodata.guider_print_dev_guider_info.constprop.0.str1.4:0000000000000004 .LC2
C:\Users\stapi\AppData\Local\Temp\ccJ15vUB.s:32     .rodata.guider_print_dev_guider_info.constprop.0.str1.4:0000000000000000 .LC1
C:\Users\stapi\AppData\Local\Temp\ccJ15vUB.s:38     .rodata.guider_print_dev_guider_info.constprop.0.str1.4:0000000000000010 .LC3
C:\Users\stapi\AppData\Local\Temp\ccJ15vUB.s:41     .rodata.guider_print_dev_guider_info.constprop.0.str1.4:0000000000000014 .LC4
C:\Users\stapi\AppData\Local\Temp\ccJ15vUB.s:44     .rodata.guider_print_dev_guider_info.constprop.0.str1.4:0000000000000018 .LC5
C:\Users\stapi\AppData\Local\Temp\ccJ15vUB.s:47     .rodata.guider_print_dev_guider_info.constprop.0.str1.4:000000000000001c .LC6
C:\Users\stapi\AppData\Local\Temp\ccJ15vUB.s:53     .rodata.guider_print_dev_guider_info.constprop.0.str1.4:0000000000000024 .LC8
C:\Users\stapi\AppData\Local\Temp\ccJ15vUB.s:50     .rodata.guider_print_dev_guider_info.constprop.0.str1.4:0000000000000020 .LC7
C:\Users\stapi\AppData\Local\Temp\ccJ15vUB.s:56     .rodata.guider_print_dev_guider_info.constprop.0.str1.4:0000000000000030 .LC9
C:\Users\stapi\AppData\Local\Temp\ccJ15vUB.s:68     .rodata.guider_print_dev_guider_info.constprop.0.str1.4:000000000000007c .LC13
C:\Users\stapi\AppData\Local\Temp\ccJ15vUB.s:71     .rodata.guider_print_dev_guider_info.constprop.0.str1.4:0000000000000080 .LC14
C:\Users\stapi\AppData\Local\Temp\ccJ15vUB.s:59     .rodata.guider_print_dev_guider_info.constprop.0.str1.4:0000000000000040 .LC10
C:\Users\stapi\AppData\Local\Temp\ccJ15vUB.s:62     .rodata.guider_print_dev_guider_info.constprop.0.str1.4:0000000000000058 .LC11
C:\Users\stapi\AppData\Local\Temp\ccJ15vUB.s:65     .rodata.guider_print_dev_guider_info.constprop.0.str1.4:000000000000006c .LC12
C:\Users\stapi\AppData\Local\Temp\ccJ15vUB.s:169    .text.guider_print_dev_guider_info.constprop.0:00000000000000c8 .L4
C:\Users\stapi\AppData\Local\Temp\ccJ15vUB.s:236    .text.guider_print_dev_guider_info.constprop.0:0000000000000130 .L5
C:\Users\stapi\AppData\Local\Temp\ccJ15vUB.s:242    .text.guider_print_dev_guider_info.constprop.0:000000000000013a .L6
C:\Users\stapi\AppData\Local\Temp\ccJ15vUB.s:227    .text.guider_print_dev_guider_info.constprop.0:0000000000000126 .L7
C:\Users\stapi\AppData\Local\Temp\ccJ15vUB.s:186    .text.guider_print_dev_guider_info.constprop.0:00000000000000e6 .L16
C:\Users\stapi\AppData\Local\Temp\ccJ15vUB.s:308    .rodata.iotx_guider_get_kv_env.str1.4:0000000000000000 .LC15
C:\Users\stapi\AppData\Local\Temp\ccJ15vUB.s:311    .rodata.iotx_guider_get_kv_env.str1.4:0000000000000008 .LC16
C:\Users\stapi\AppData\Local\Temp\ccJ15vUB.s:314    .rodata.iotx_guider_get_kv_env.str1.4:000000000000001c .LC17
C:\Users\stapi\AppData\Local\Temp\ccJ15vUB.s:388    .rodata.iotx_guider_set_dynamic_mqtt_url.str1.4:0000000000000000 .LC18
C:\Users\stapi\AppData\Local\Temp\ccJ15vUB.s:391    .rodata.iotx_guider_set_dynamic_mqtt_url.str1.4:0000000000000008 .LC19
C:\Users\stapi\AppData\Local\Temp\ccJ15vUB.s:394    .rodata.iotx_guider_set_dynamic_mqtt_url.str1.4:0000000000000014 .LC20
C:\Users\stapi\AppData\Local\Temp\ccJ15vUB.s:397    .rodata.iotx_guider_set_dynamic_mqtt_url.str1.4:0000000000000020 .LC21
C:\Users\stapi\AppData\Local\Temp\ccJ15vUB.s:400    .rodata.iotx_guider_set_dynamic_mqtt_url.str1.4:0000000000000044 .LC22
C:\Users\stapi\AppData\Local\Temp\ccJ15vUB.s:455    .text.iotx_guider_set_dynamic_mqtt_url:0000000000000052 .L26
C:\Users\stapi\AppData\Local\Temp\ccJ15vUB.s:460    .text.iotx_guider_set_dynamic_mqtt_url:0000000000000056 .L25
C:\Users\stapi\AppData\Local\Temp\ccJ15vUB.s:498    .text.iotx_guider_set_dynamic_mqtt_url:00000000000000a8 .L23
C:\Users\stapi\AppData\Local\Temp\ccJ15vUB.s:513    .rodata.iotx_guider_get_region_id.str1.4:0000000000000000 .LC23
C:\Users\stapi\AppData\Local\Temp\ccJ15vUB.s:516    .rodata.iotx_guider_get_region_id.str1.4:000000000000000c .LC24
C:\Users\stapi\AppData\Local\Temp\ccJ15vUB.s:519    .rodata.iotx_guider_get_region_id.str1.4:0000000000000014 .LC25
C:\Users\stapi\AppData\Local\Temp\ccJ15vUB.s:522    .rodata.iotx_guider_get_region_id.str1.4:000000000000002c .LC26
C:\Users\stapi\AppData\Local\Temp\ccJ15vUB.s:525    .rodata.iotx_guider_get_region_id.str1.4:0000000000000040 .LC27
C:\Users\stapi\AppData\Local\Temp\ccJ15vUB.s:600    .text.iotx_guider_get_region_id:0000000000000068 .L29
C:\Users\stapi\AppData\Local\Temp\ccJ15vUB.s:629    .text.iotx_guider_get_region_id:00000000000000a2 .L31
C:\Users\stapi\AppData\Local\Temp\ccJ15vUB.s:579    .text.iotx_guider_get_region_id:000000000000004e .L33
C:\Users\stapi\AppData\Local\Temp\ccJ15vUB.s:588    .text.iotx_guider_get_region_id:000000000000005c .L28
C:\Users\stapi\AppData\Local\Temp\ccJ15vUB.s:655    .rodata.iotx_guider_clear_dynamic_url.str1.4:0000000000000000 .LC28
C:\Users\stapi\AppData\Local\Temp\ccJ15vUB.s:712    .rodata.iotx_guider_set_dynamic_region.str1.4:0000000000000000 .LC29
C:\Users\stapi\AppData\Local\Temp\ccJ15vUB.s:715    .rodata.iotx_guider_set_dynamic_region.str1.4:000000000000002c .LC30
C:\Users\stapi\AppData\Local\Temp\ccJ15vUB.s:718    .rodata.iotx_guider_set_dynamic_region.str1.4:000000000000003c .LC31
C:\Users\stapi\AppData\Local\Temp\ccJ15vUB.s:724    .rodata.iotx_guider_set_dynamic_region.str1.4:000000000000005c .LC33
C:\Users\stapi\AppData\Local\Temp\ccJ15vUB.s:727    .rodata.iotx_guider_set_dynamic_region.str1.4:0000000000000074 .LC34
C:\Users\stapi\AppData\Local\Temp\ccJ15vUB.s:721    .rodata.iotx_guider_set_dynamic_region.str1.4:0000000000000050 .LC32
C:\Users\stapi\AppData\Local\Temp\ccJ15vUB.s:730    .rodata.iotx_guider_set_dynamic_region.str1.4:0000000000000084 .LC35
C:\Users\stapi\AppData\Local\Temp\ccJ15vUB.s:733    .rodata.iotx_guider_set_dynamic_region.str1.4:000000000000008c .LC36
C:\Users\stapi\AppData\Local\Temp\ccJ15vUB.s:736    .rodata.iotx_guider_set_dynamic_region.str1.4:00000000000000b8 .LC37
C:\Users\stapi\AppData\Local\Temp\ccJ15vUB.s:739    .rodata.iotx_guider_set_dynamic_region.str1.4:00000000000000c0 .LC38
C:\Users\stapi\AppData\Local\Temp\ccJ15vUB.s:821    .text.iotx_guider_set_dynamic_region:0000000000000058 .L37
C:\Users\stapi\AppData\Local\Temp\ccJ15vUB.s:855    .text.iotx_guider_set_dynamic_region:0000000000000096 .L39
C:\Users\stapi\AppData\Local\Temp\ccJ15vUB.s:802    .text.iotx_guider_set_dynamic_region:000000000000004c .L36
C:\Users\stapi\AppData\Local\Temp\ccJ15vUB.s:965    .text.iotx_guider_set_dynamic_region:0000000000000160 .L48
C:\Users\stapi\AppData\Local\Temp\ccJ15vUB.s:1033   .text.iotx_guider_set_dynamic_region:00000000000001ae .L43
C:\Users\stapi\AppData\Local\Temp\ccJ15vUB.s:796    .text.iotx_guider_set_dynamic_region:000000000000004a .L56
C:\Users\stapi\AppData\Local\Temp\ccJ15vUB.s:1016   .text.iotx_guider_set_dynamic_region:000000000000019e .L42
C:\Users\stapi\AppData\Local\Temp\ccJ15vUB.s:982    .text.iotx_guider_set_dynamic_region:0000000000000174 .L40
C:\Users\stapi\AppData\Local\Temp\ccJ15vUB.s:899    .text.iotx_guider_set_dynamic_region:00000000000000d4 .L41
C:\Users\stapi\AppData\Local\Temp\ccJ15vUB.s:1062   .text.iotx_guider_set_dynamic_region:00000000000001e4 .L44
C:\Users\stapi\AppData\Local\Temp\ccJ15vUB.s:844    .text.iotx_guider_set_dynamic_region:0000000000000086 .L57
C:\Users\stapi\AppData\Local\Temp\ccJ15vUB.s:1141   .text.iotx_guider_set_dynamic_region:0000000000000272 .L45
C:\Users\stapi\AppData\Local\Temp\ccJ15vUB.s:1112   .text.iotx_guider_set_dynamic_region:0000000000000242 .L46
C:\Users\stapi\AppData\Local\Temp\ccJ15vUB.s:1118   .text.iotx_guider_set_dynamic_region:000000000000024a .L55
C:\Users\stapi\AppData\Local\Temp\ccJ15vUB.s:1159   .rodata.iotx_guider_get_domain.str1.4:0000000000000028 .LC40
C:\Users\stapi\AppData\Local\Temp\ccJ15vUB.s:1165   .rodata.iotx_guider_get_domain.str1.4:0000000000000060 .LC42
C:\Users\stapi\AppData\Local\Temp\ccJ15vUB.s:1168   .rodata.iotx_guider_get_domain.str1.4:0000000000000084 .LC43
C:\Users\stapi\AppData\Local\Temp\ccJ15vUB.s:1156   .rodata.iotx_guider_get_domain.str1.4:0000000000000000 .LC39
C:\Users\stapi\AppData\Local\Temp\ccJ15vUB.s:1162   .rodata.iotx_guider_get_domain.str1.4:0000000000000048 .LC41
C:\Users\stapi\AppData\Local\Temp\ccJ15vUB.s:1210   .text.iotx_guider_get_domain:0000000000000034 .L59
C:\Users\stapi\AppData\Local\Temp\ccJ15vUB.s:1244   .text.iotx_guider_get_domain:000000000000005e .L61
C:\Users\stapi\AppData\Local\Temp\ccJ15vUB.s:1237   .text.iotx_guider_get_domain:0000000000000054 .L62
C:\Users\stapi\AppData\Local\Temp\ccJ15vUB.s:1202   .text.iotx_guider_get_domain:000000000000002c .L58
C:\Users\stapi\AppData\Local\Temp\ccJ15vUB.s:1232   .text.iotx_guider_get_domain:000000000000004e .L70
C:\Users\stapi\AppData\Local\Temp\ccJ15vUB.s:1271   .text.iotx_guider_get_domain:0000000000000080 .L63
C:\Users\stapi\AppData\Local\Temp\ccJ15vUB.s:1327   .text.iotx_guider_get_domain:00000000000000d4 .L67
C:\Users\stapi\AppData\Local\Temp\ccJ15vUB.s:1336   .text.iotx_guider_get_domain:00000000000000de .L68
C:\Users\stapi\AppData\Local\Temp\ccJ15vUB.s:1303   .text.iotx_guider_get_domain:00000000000000a0 .L64
C:\Users\stapi\AppData\Local\Temp\ccJ15vUB.s:1416   .text.iotx_guider_set_custom_domain:0000000000000062 .L73
C:\Users\stapi\AppData\Local\Temp\ccJ15vUB.s:1407   .text.iotx_guider_set_custom_domain:000000000000005a .L71
C:\Users\stapi\AppData\Local\Temp\ccJ15vUB.s:1427   .rodata.iotx_guider_fill_conn_string.str1.4:0000000000000000 .LC44
C:\Users\stapi\AppData\Local\Temp\ccJ15vUB.s:1430   .rodata.iotx_guider_fill_conn_string.str1.4:000000000000000c .LC45
C:\Users\stapi\AppData\Local\Temp\ccJ15vUB.s:1433   .rodata.iotx_guider_fill_conn_string.str1.4:00000000000000a0 .LC46
C:\Users\stapi\AppData\Local\Temp\ccJ15vUB.s:1436   .rodata.iotx_guider_fill_conn_string.str1.4:00000000000000d4 .LC47
C:\Users\stapi\AppData\Local\Temp\ccJ15vUB.s:1494   .text.iotx_guider_fill_conn_string:0000000000000052 .L81
C:\Users\stapi\AppData\Local\Temp\ccJ15vUB.s:1509   .text.iotx_guider_fill_conn_string:000000000000006a .L82
C:\Users\stapi\AppData\Local\Temp\ccJ15vUB.s:1530   .rodata.iotx_guider_authenticate.str1.4:0000000000000000 .LC48
C:\Users\stapi\AppData\Local\Temp\ccJ15vUB.s:1533   .rodata.iotx_guider_authenticate.str1.4:000000000000000c .LC49
C:\Users\stapi\AppData\Local\Temp\ccJ15vUB.s:1536   .rodata.iotx_guider_authenticate.str1.4:0000000000000020 .LC50
C:\Users\stapi\AppData\Local\Temp\ccJ15vUB.s:1542   .rodata.iotx_guider_authenticate.str1.4:000000000000004c .LC52
C:\Users\stapi\AppData\Local\Temp\ccJ15vUB.s:1545   .rodata.iotx_guider_authenticate.str1.4:000000000000005c .LC53
C:\Users\stapi\AppData\Local\Temp\ccJ15vUB.s:1548   .rodata.iotx_guider_authenticate.str1.4:0000000000000060 .LC54
C:\Users\stapi\AppData\Local\Temp\ccJ15vUB.s:1563   .rodata.iotx_guider_authenticate.str1.4:0000000000000118 .LC59
C:\Users\stapi\AppData\Local\Temp\ccJ15vUB.s:1566   .rodata.iotx_guider_authenticate.str1.4:0000000000000128 .LC60
C:\Users\stapi\AppData\Local\Temp\ccJ15vUB.s:1572   .rodata.iotx_guider_authenticate.str1.4:0000000000000174 .LC62
C:\Users\stapi\AppData\Local\Temp\ccJ15vUB.s:1575   .rodata.iotx_guider_authenticate.str1.4:0000000000000180 .LC63
C:\Users\stapi\AppData\Local\Temp\ccJ15vUB.s:1578   .rodata.iotx_guider_authenticate.str1.4:000000000000018c .LC64
C:\Users\stapi\AppData\Local\Temp\ccJ15vUB.s:1581   .rodata.iotx_guider_authenticate.str1.4:0000000000000194 .LC65
C:\Users\stapi\AppData\Local\Temp\ccJ15vUB.s:1539   .rodata.iotx_guider_authenticate.str1.4:0000000000000038 .LC51
C:\Users\stapi\AppData\Local\Temp\ccJ15vUB.s:1551   .rodata.iotx_guider_authenticate.str1.4:0000000000000088 .LC55
C:\Users\stapi\AppData\Local\Temp\ccJ15vUB.s:1554   .rodata.iotx_guider_authenticate.str1.4:00000000000000a4 .LC56
C:\Users\stapi\AppData\Local\Temp\ccJ15vUB.s:1557   .rodata.iotx_guider_authenticate.str1.4:00000000000000e8 .LC57
C:\Users\stapi\AppData\Local\Temp\ccJ15vUB.s:1560   .rodata.iotx_guider_authenticate.str1.4:0000000000000108 .LC58
C:\Users\stapi\AppData\Local\Temp\ccJ15vUB.s:1569   .rodata.iotx_guider_authenticate.str1.4:0000000000000144 .LC61
C:\Users\stapi\AppData\Local\Temp\ccJ15vUB.s:1584   .rodata.iotx_guider_authenticate.str1.4:00000000000001a4 .LC66
C:\Users\stapi\AppData\Local\Temp\ccJ15vUB.s:1599   .rodata.iotx_guider_authenticate.str1.4:000000000000023c .LC71
C:\Users\stapi\AppData\Local\Temp\ccJ15vUB.s:1587   .rodata.iotx_guider_authenticate.str1.4:00000000000001c4 .LC67
C:\Users\stapi\AppData\Local\Temp\ccJ15vUB.s:1590   .rodata.iotx_guider_authenticate.str1.4:00000000000001e0 .LC68
C:\Users\stapi\AppData\Local\Temp\ccJ15vUB.s:1593   .rodata.iotx_guider_authenticate.str1.4:0000000000000200 .LC69
C:\Users\stapi\AppData\Local\Temp\ccJ15vUB.s:1596   .rodata.iotx_guider_authenticate.str1.4:000000000000021c .LC70
C:\Users\stapi\AppData\Local\Temp\ccJ15vUB.s:1605   .rodata.iotx_guider_authenticate.str1.4:0000000000000288 .LC73
C:\Users\stapi\AppData\Local\Temp\ccJ15vUB.s:1608   .rodata.iotx_guider_authenticate.str1.4:000000000000028c .LC74
C:\Users\stapi\AppData\Local\Temp\ccJ15vUB.s:1611   .rodata.iotx_guider_authenticate.str1.4:000000000000029c .LC75
C:\Users\stapi\AppData\Local\Temp\ccJ15vUB.s:1614   .rodata.iotx_guider_authenticate.str1.4:00000000000002cc .LC76
C:\Users\stapi\AppData\Local\Temp\ccJ15vUB.s:1623   .rodata.iotx_guider_authenticate.str1.4:0000000000000310 .LC79
C:\Users\stapi\AppData\Local\Temp\ccJ15vUB.s:1626   .rodata.iotx_guider_authenticate.str1.4:000000000000031c .LC80
C:\Users\stapi\AppData\Local\Temp\ccJ15vUB.s:1659   .rodata.iotx_guider_authenticate.str1.4:0000000000000420 .LC91
C:\Users\stapi\AppData\Local\Temp\ccJ15vUB.s:1602   .rodata.iotx_guider_authenticate.str1.4:0000000000000258 .LC72
C:\Users\stapi\AppData\Local\Temp\ccJ15vUB.s:1617   .rodata.iotx_guider_authenticate.str1.4:00000000000002e8 .LC77
C:\Users\stapi\AppData\Local\Temp\ccJ15vUB.s:1620   .rodata.iotx_guider_authenticate.str1.4:00000000000002f0 .LC78
C:\Users\stapi\AppData\Local\Temp\ccJ15vUB.s:1632   .rodata.iotx_guider_authenticate.str1.4:00000000000003a8 .LC82
C:\Users\stapi\AppData\Local\Temp\ccJ15vUB.s:1635   .rodata.iotx_guider_authenticate.str1.4:00000000000003b0 .LC83
C:\Users\stapi\AppData\Local\Temp\ccJ15vUB.s:1629   .rodata.iotx_guider_authenticate.str1.4:0000000000000334 .LC81
C:\Users\stapi\AppData\Local\Temp\ccJ15vUB.s:1641   .rodata.iotx_guider_authenticate.str1.4:00000000000003d0 .LC85
C:\Users\stapi\AppData\Local\Temp\ccJ15vUB.s:1638   .rodata.iotx_guider_authenticate.str1.4:00000000000003c8 .LC84
C:\Users\stapi\AppData\Local\Temp\ccJ15vUB.s:1644   .rodata.iotx_guider_authenticate.str1.4:00000000000003e0 .LC86
C:\Users\stapi\AppData\Local\Temp\ccJ15vUB.s:1647   .rodata.iotx_guider_authenticate.str1.4:00000000000003e8 .LC87
C:\Users\stapi\AppData\Local\Temp\ccJ15vUB.s:1650   .rodata.iotx_guider_authenticate.str1.4:00000000000003f4 .LC88
C:\Users\stapi\AppData\Local\Temp\ccJ15vUB.s:1653   .rodata.iotx_guider_authenticate.str1.4:0000000000000400 .LC89
C:\Users\stapi\AppData\Local\Temp\ccJ15vUB.s:1656   .rodata.iotx_guider_authenticate.str1.4:0000000000000404 .LC90
C:\Users\stapi\AppData\Local\Temp\ccJ15vUB.s:1722   .text.iotx_guider_authenticate:000000000000003e .L88
C:\Users\stapi\AppData\Local\Temp\ccJ15vUB.s:1772   .text.iotx_guider_authenticate:0000000000000082 .L89
C:\Users\stapi\AppData\Local\Temp\ccJ15vUB.s:2761   .text.iotx_guider_authenticate:0000000000000766 .L143
C:\Users\stapi\AppData\Local\Temp\ccJ15vUB.s:3204   .text.iotx_guider_authenticate:0000000000000a42 .L154
C:\Users\stapi\AppData\Local\Temp\ccJ15vUB.s:3208   .text.iotx_guider_authenticate:0000000000000a44 .L156
C:\Users\stapi\AppData\Local\Temp\ccJ15vUB.s:3219   .text.iotx_guider_authenticate:0000000000000a4c .L157
C:\Users\stapi\AppData\Local\Temp\ccJ15vUB.s:3214   .text.iotx_guider_authenticate:0000000000000a48 .L158
C:\Users\stapi\AppData\Local\Temp\ccJ15vUB.s:1975   .text.iotx_guider_authenticate:000000000000020c .L94
C:\Users\stapi\AppData\Local\Temp\ccJ15vUB.s:1906   .text.iotx_guider_authenticate:000000000000017a .L95
C:\Users\stapi\AppData\Local\Temp\ccJ15vUB.s:2278   .text.iotx_guider_authenticate:0000000000000404 .L96
C:\Users\stapi\AppData\Local\Temp\ccJ15vUB.s:3232   .text.iotx_guider_authenticate:0000000000000a56 .L98
C:\Users\stapi\AppData\Local\Temp\ccJ15vUB.s:2714   .text.iotx_guider_authenticate:0000000000000718 .L92
C:\Users\stapi\AppData\Local\Temp\ccJ15vUB.s:2300   .text.iotx_guider_authenticate:0000000000000432 .L100
C:\Users\stapi\AppData\Local\Temp\ccJ15vUB.s:3224   .text.iotx_guider_authenticate:0000000000000a50 .L105
C:\Users\stapi\AppData\Local\Temp\ccJ15vUB.s:2156   .text.iotx_guider_authenticate:000000000000030a .L106
C:\Users\stapi\AppData\Local\Temp\ccJ15vUB.s:2392   .text.iotx_guider_authenticate:00000000000004f0 .L107
C:\Users\stapi\AppData\Local\Temp\ccJ15vUB.s:2426   .text.iotx_guider_authenticate:000000000000051a .L109
C:\Users\stapi\AppData\Local\Temp\ccJ15vUB.s:2457   .text.iotx_guider_authenticate:0000000000000552 .L232
C:\Users\stapi\AppData\Local\Temp\ccJ15vUB.s:2331   .text.iotx_guider_authenticate:0000000000000460 .L102
C:\Users\stapi\AppData\Local\Temp\ccJ15vUB.s:2373   .text.iotx_guider_authenticate:00000000000004c6 .L104
C:\Users\stapi\AppData\Local\Temp\ccJ15vUB.s:2098   .text.iotx_guider_authenticate:00000000000002a0 .L101
C:\Users\stapi\AppData\Local\Temp\ccJ15vUB.s:2211   .text.iotx_guider_authenticate:0000000000000368 .L231
C:\Users\stapi\AppData\Local\Temp\ccJ15vUB.s:2530   .text.iotx_guider_authenticate:00000000000005c4 .L111
C:\Users\stapi\AppData\Local\Temp\ccJ15vUB.s:2610   .text.iotx_guider_authenticate:0000000000000658 .L114
C:\Users\stapi\AppData\Local\Temp\ccJ15vUB.s:2510   .text.iotx_guider_authenticate:00000000000005a6 .L115
C:\Users\stapi\AppData\Local\Temp\ccJ15vUB.s:2523   .text.iotx_guider_authenticate:00000000000005b8 .L149
C:\Users\stapi\AppData\Local\Temp\ccJ15vUB.s:2324   .text.iotx_guider_authenticate:000000000000045c .L234
C:\Users\stapi\AppData\Local\Temp\ccJ15vUB.s:2552   .text.iotx_guider_authenticate:00000000000005ee .L112
C:\Users\stapi\AppData\Local\Temp\ccJ15vUB.s:2268   .text.iotx_guider_authenticate:00000000000003f4 .L235
C:\Users\stapi\AppData\Local\Temp\ccJ15vUB.s:2585   .text.iotx_guider_authenticate:0000000000000630 .L113
C:\Users\stapi\AppData\Local\Temp\ccJ15vUB.s:2468   .text.iotx_guider_authenticate:0000000000000558 .L110
C:\Users\stapi\AppData\Local\Temp\ccJ15vUB.s:2646   .text.iotx_guider_authenticate:000000000000069c .L116
C:\Users\stapi\AppData\Local\Temp\ccJ15vUB.s:2684   .text.iotx_guider_authenticate:00000000000006e8 .L117
C:\Users\stapi\AppData\Local\Temp\ccJ15vUB.s:2776   .text.iotx_guider_authenticate:000000000000077a .L118
C:\Users\stapi\AppData\Local\Temp\ccJ15vUB.s:2692   .text.iotx_guider_authenticate:00000000000006f6 .L119
C:\Users\stapi\AppData\Local\Temp\ccJ15vUB.s:2729   .text.iotx_guider_authenticate:0000000000000730 .L147
C:\Users\stapi\AppData\Local\Temp\ccJ15vUB.s:2737   .text.iotx_guider_authenticate:000000000000073c .L141
C:\Users\stapi\AppData\Local\Temp\ccJ15vUB.s:2745   .text.iotx_guider_authenticate:000000000000074a .L91
C:\Users\stapi\AppData\Local\Temp\ccJ15vUB.s:2753   .text.iotx_guider_authenticate:0000000000000758 .L142
C:\Users\stapi\AppData\Local\Temp\ccJ15vUB.s:3172   .text.iotx_guider_authenticate:00000000000009fe .L144
C:\Users\stapi\AppData\Local\Temp\ccJ15vUB.s:1749   .text.iotx_guider_authenticate:0000000000000076 .L87
C:\Users\stapi\AppData\Local\Temp\ccJ15vUB.s:2805   .text.iotx_guider_authenticate:000000000000078e .L123
C:\Users\stapi\AppData\Local\Temp\ccJ15vUB.s:2814   .text.iotx_guider_authenticate:000000000000079c .L124
C:\Users\stapi\AppData\Local\Temp\ccJ15vUB.s:2905   .text.iotx_guider_authenticate:0000000000000820 .L125
C:\Users\stapi\AppData\Local\Temp\ccJ15vUB.s:3008   .text.iotx_guider_authenticate:00000000000008c8 .L121
C:\Users\stapi\AppData\Local\Temp\ccJ15vUB.s:2872   .text.iotx_guider_authenticate:00000000000007f4 .L126
C:\Users\stapi\AppData\Local\Temp\ccJ15vUB.s:2867   .text.iotx_guider_authenticate:00000000000007f0 .L127
C:\Users\stapi\AppData\Local\Temp\ccJ15vUB.s:2889   .text.iotx_guider_authenticate:000000000000080e .L128
C:\Users\stapi\AppData\Local\Temp\ccJ15vUB.s:3350   .text.iotx_guider_authenticate:0000000000000ae6 .L122
C:\Users\stapi\AppData\Local\Temp\ccJ15vUB.s:2959   .text.iotx_guider_authenticate:000000000000086e .L129
C:\Users\stapi\AppData\Local\Temp\ccJ15vUB.s:2896   .text.iotx_guider_authenticate:0000000000000816 .L233
C:\Users\stapi\AppData\Local\Temp\ccJ15vUB.s:3078   .text.iotx_guider_authenticate:0000000000000962 .L133
C:\Users\stapi\AppData\Local\Temp\ccJ15vUB.s:3405   .text.iotx_guider_authenticate:0000000000000b30 .L132
C:\Users\stapi\AppData\Local\Temp\ccJ15vUB.s:3521   .text.iotx_guider_authenticate:0000000000000c14 .L137
C:\Users\stapi\AppData\Local\Temp\ccJ15vUB.s:3150   .text.iotx_guider_authenticate:00000000000009e2 .L139
C:\Users\stapi\AppData\Local\Temp\ccJ15vUB.s:3159   .text.iotx_guider_authenticate:00000000000009ee .L140
C:\Users\stapi\AppData\Local\Temp\ccJ15vUB.s:3030   .text.iotx_guider_authenticate:00000000000008fa .L130
C:\Users\stapi\AppData\Local\Temp\ccJ15vUB.s:3197   .text.iotx_guider_authenticate:0000000000000a38 .L145
C:\Users\stapi\AppData\Local\Temp\ccJ15vUB.s:2515   .text.iotx_guider_authenticate:00000000000005aa .L148
C:\Users\stapi\AppData\Local\Temp\ccJ15vUB.s:2784   .text.iotx_guider_authenticate:0000000000000780 .L228
C:\Users\stapi\AppData\Local\Temp\ccJ15vUB.s:3037   .text.iotx_guider_authenticate:00000000000008fe .L131
C:\Users\stapi\AppData\Local\Temp\ccJ15vUB.s:3140   .text.iotx_guider_authenticate:00000000000009d6 .L134
C:\Users\stapi\AppData\Local\Temp\ccJ15vUB.s:3124   .text.iotx_guider_authenticate:00000000000009b4 .L135
C:\Users\stapi\AppData\Local\Temp\ccJ15vUB.s:3113   .text.iotx_guider_authenticate:000000000000099c .L136
C:\Users\stapi\AppData\Local\Temp\ccJ15vUB.s:3601   .text.iotx_guider_authenticate:0000000000000cdc .L138
C:\Users\stapi\AppData\Local\Temp\ccJ15vUB.s:3639   .rodata.str1.4:0000000000000094 .LC97
C:\Users\stapi\AppData\Local\Temp\ccJ15vUB.s:3642   .rodata.str1.4:00000000000000bc .LC98
C:\Users\stapi\AppData\Local\Temp\ccJ15vUB.s:3645   .rodata.str1.4:00000000000000e4 .LC99
C:\Users\stapi\AppData\Local\Temp\ccJ15vUB.s:3648   .rodata.str1.4:000000000000010c .LC100
C:\Users\stapi\AppData\Local\Temp\ccJ15vUB.s:3651   .rodata.str1.4:0000000000000130 .LC101
C:\Users\stapi\AppData\Local\Temp\ccJ15vUB.s:3654   .rodata.str1.4:0000000000000158 .LC102
C:\Users\stapi\AppData\Local\Temp\ccJ15vUB.s:3623   .rodata.str1.4:0000000000000000 .LC92
C:\Users\stapi\AppData\Local\Temp\ccJ15vUB.s:3626   .rodata.str1.4:0000000000000030 .LC93
C:\Users\stapi\AppData\Local\Temp\ccJ15vUB.s:3629   .rodata.str1.4:000000000000003c .LC94
C:\Users\stapi\AppData\Local\Temp\ccJ15vUB.s:3632   .rodata.str1.4:0000000000000050 .LC95
C:\Users\stapi\AppData\Local\Temp\ccJ15vUB.s:3635   .rodata.str1.4:0000000000000080 .LC96
C:\Users\stapi\AppData\Local\Temp\ccJ15vUB.s:11379  .debug_abbrev:0000000000000000 .Ldebug_abbrev0
C:\Users\stapi\AppData\Local\Temp\ccJ15vUB.s:15187  .debug_str:00000000000001a3 .LASF502
C:\Users\stapi\AppData\Local\Temp\ccJ15vUB.s:15665  .debug_str:000000000000162a .LASF503
C:\Users\stapi\AppData\Local\Temp\ccJ15vUB.s:15791  .debug_str:0000000000001b2a .LASF504
C:\Users\stapi\AppData\Local\Temp\ccJ15vUB.s:15007  .debug_ranges:0000000000000000 .Ldebug_ranges0
C:\Users\stapi\AppData\Local\Temp\ccJ15vUB.s:15149  .debug_line:0000000000000000 .Ldebug_line0
C:\Users\stapi\AppData\Local\Temp\ccJ15vUB.s:15365  .debug_str:00000000000009eb .LASF0
C:\Users\stapi\AppData\Local\Temp\ccJ15vUB.s:15273  .debug_str:000000000000064d .LASF3
C:\Users\stapi\AppData\Local\Temp\ccJ15vUB.s:15389  .debug_str:0000000000000aea .LASF1
C:\Users\stapi\AppData\Local\Temp\ccJ15vUB.s:15981  .debug_str:0000000000002369 .LASF2
C:\Users\stapi\AppData\Local\Temp\ccJ15vUB.s:15465  .debug_str:0000000000000df5 .LASF4
C:\Users\stapi\AppData\Local\Temp\ccJ15vUB.s:16101  .debug_str:0000000000002862 .LASF5
C:\Users\stapi\AppData\Local\Temp\ccJ15vUB.s:15291  .debug_str:000000000000071a .LASF6
C:\Users\stapi\AppData\Local\Temp\ccJ15vUB.s:15657  .debug_str:00000000000015f6 .LASF7
C:\Users\stapi\AppData\Local\Temp\ccJ15vUB.s:15599  .debug_str:00000000000013a2 .LASF8
C:\Users\stapi\AppData\Local\Temp\ccJ15vUB.s:15663  .debug_str:000000000000161c .LASF9
C:\Users\stapi\AppData\Local\Temp\ccJ15vUB.s:15867  .debug_str:0000000000001f18 .LASF10
C:\Users\stapi\AppData\Local\Temp\ccJ15vUB.s:15937  .debug_str:00000000000021b8 .LASF11
C:\Users\stapi\AppData\Local\Temp\ccJ15vUB.s:15727  .debug_str:00000000000018c9 .LASF12
C:\Users\stapi\AppData\Local\Temp\ccJ15vUB.s:15439  .debug_str:0000000000000d19 .LASF13
C:\Users\stapi\AppData\Local\Temp\ccJ15vUB.s:15367  .debug_str:00000000000009f7 .LASF14
C:\Users\stapi\AppData\Local\Temp\ccJ15vUB.s:15877  .debug_str:0000000000001f99 .LASF15
C:\Users\stapi\AppData\Local\Temp\ccJ15vUB.s:16073  .debug_str:000000000000271b .LASF16
C:\Users\stapi\AppData\Local\Temp\ccJ15vUB.s:15623  .debug_str:0000000000001479 .LASF17
C:\Users\stapi\AppData\Local\Temp\ccJ15vUB.s:15255  .debug_str:0000000000000562 .LASF91
C:\Users\stapi\AppData\Local\Temp\ccJ15vUB.s:15241  .debug_str:00000000000004d5 .LASF18
C:\Users\stapi\AppData\Local\Temp\ccJ15vUB.s:16003  .debug_str:0000000000002436 .LASF19
C:\Users\stapi\AppData\Local\Temp\ccJ15vUB.s:15573  .debug_str:0000000000001296 .LASF20
C:\Users\stapi\AppData\Local\Temp\ccJ15vUB.s:15935  .debug_str:000000000000219d .LASF21
C:\Users\stapi\AppData\Local\Temp\ccJ15vUB.s:15585  .debug_str:0000000000001316 .LASF22
C:\Users\stapi\AppData\Local\Temp\ccJ15vUB.s:15839  .debug_str:0000000000001db9 .LASF23
C:\Users\stapi\AppData\Local\Temp\ccJ15vUB.s:15419  .debug_str:0000000000000c4f .LASF24
C:\Users\stapi\AppData\Local\Temp\ccJ15vUB.s:15391  .debug_str:0000000000000af8 .LASF25
C:\Users\stapi\AppData\Local\Temp\ccJ15vUB.s:15521  .debug_str:000000000000102f .LASF26
C:\Users\stapi\AppData\Local\Temp\ccJ15vUB.s:15169  .debug_str:00000000000000c7 .LASF27
C:\Users\stapi\AppData\Local\Temp\ccJ15vUB.s:15461  .debug_str:0000000000000dd2 .LASF28
C:\Users\stapi\AppData\Local\Temp\ccJ15vUB.s:15537  .debug_str:00000000000010fa .LASF29
C:\Users\stapi\AppData\Local\Temp\ccJ15vUB.s:15905  .debug_str:0000000000002084 .LASF30
C:\Users\stapi\AppData\Local\Temp\ccJ15vUB.s:15451  .debug_str:0000000000000d56 .LASF31
C:\Users\stapi\AppData\Local\Temp\ccJ15vUB.s:15355  .debug_str:000000000000099a .LASF32
C:\Users\stapi\AppData\Local\Temp\ccJ15vUB.s:15189  .debug_str:000000000000028a .LASF33
C:\Users\stapi\AppData\Local\Temp\ccJ15vUB.s:15977  .debug_str:000000000000234c .LASF34
C:\Users\stapi\AppData\Local\Temp\ccJ15vUB.s:15943  .debug_str:00000000000021e5 .LASF35
C:\Users\stapi\AppData\Local\Temp\ccJ15vUB.s:15771  .debug_str:0000000000001a56 .LASF36
C:\Users\stapi\AppData\Local\Temp\ccJ15vUB.s:15583  .debug_str:000000000000130c .LASF37
C:\Users\stapi\AppData\Local\Temp\ccJ15vUB.s:16103  .debug_str:0000000000002875 .LASF38
C:\Users\stapi\AppData\Local\Temp\ccJ15vUB.s:15985  .debug_str:0000000000002389 .LASF39
C:\Users\stapi\AppData\Local\Temp\ccJ15vUB.s:15553  .debug_str:00000000000011a5 .LASF40
C:\Users\stapi\AppData\Local\Temp\ccJ15vUB.s:15471  .debug_str:0000000000000e2e .LASF41
C:\Users\stapi\AppData\Local\Temp\ccJ15vUB.s:15843  .debug_str:0000000000001ddf .LASF42
C:\Users\stapi\AppData\Local\Temp\ccJ15vUB.s:15303  .debug_str:0000000000000778 .LASF43
C:\Users\stapi\AppData\Local\Temp\ccJ15vUB.s:15225  .debug_str:0000000000000417 .LASF44
C:\Users\stapi\AppData\Local\Temp\ccJ15vUB.s:15415  .debug_str:0000000000000c1c .LASF45
C:\Users\stapi\AppData\Local\Temp\ccJ15vUB.s:15253  .debug_str:000000000000054f .LASF46
C:\Users\stapi\AppData\Local\Temp\ccJ15vUB.s:15615  .debug_str:0000000000001436 .LASF47
C:\Users\stapi\AppData\Local\Temp\ccJ15vUB.s:15467  .debug_str:0000000000000e00 .LASF48
C:\Users\stapi\AppData\Local\Temp\ccJ15vUB.s:15901  .debug_str:000000000000205e .LASF49
C:\Users\stapi\AppData\Local\Temp\ccJ15vUB.s:15319  .debug_str:0000000000000825 .LASF50
C:\Users\stapi\AppData\Local\Temp\ccJ15vUB.s:15325  .debug_str:0000000000000864 .LASF51
C:\Users\stapi\AppData\Local\Temp\ccJ15vUB.s:15753  .debug_str:00000000000019bf .LASF52
C:\Users\stapi\AppData\Local\Temp\ccJ15vUB.s:15405  .debug_str:0000000000000b98 .LASF53
C:\Users\stapi\AppData\Local\Temp\ccJ15vUB.s:15879  .debug_str:0000000000001fa2 .LASF54
C:\Users\stapi\AppData\Local\Temp\ccJ15vUB.s:15593  .debug_str:0000000000001371 .LASF55
C:\Users\stapi\AppData\Local\Temp\ccJ15vUB.s:15691  .debug_str:0000000000001780 .LASF56
C:\Users\stapi\AppData\Local\Temp\ccJ15vUB.s:15907  .debug_str:000000000000208e .LASF57
C:\Users\stapi\AppData\Local\Temp\ccJ15vUB.s:15787  .debug_str:0000000000001b04 .LASF58
C:\Users\stapi\AppData\Local\Temp\ccJ15vUB.s:15377  .debug_str:0000000000000a74 .LASF59
C:\Users\stapi\AppData\Local\Temp\ccJ15vUB.s:15373  .debug_str:0000000000000a31 .LASF60
C:\Users\stapi\AppData\Local\Temp\ccJ15vUB.s:16121  .debug_str:000000000000291a .LASF61
C:\Users\stapi\AppData\Local\Temp\ccJ15vUB.s:15151  .debug_str:0000000000000000 .LASF62
C:\Users\stapi\AppData\Local\Temp\ccJ15vUB.s:16047  .debug_str:00000000000025eb .LASF63
C:\Users\stapi\AppData\Local\Temp\ccJ15vUB.s:15267  .debug_str:0000000000000607 .LASF64
C:\Users\stapi\AppData\Local\Temp\ccJ15vUB.s:16011  .debug_str:000000000000248e .LASF65
C:\Users\stapi\AppData\Local\Temp\ccJ15vUB.s:15609  .debug_str:0000000000001407 .LASF66
C:\Users\stapi\AppData\Local\Temp\ccJ15vUB.s:15987  .debug_str:0000000000002392 .LASF67
C:\Users\stapi\AppData\Local\Temp\ccJ15vUB.s:15487  .debug_str:0000000000000ed0 .LASF68
C:\Users\stapi\AppData\Local\Temp\ccJ15vUB.s:16089  .debug_str:00000000000027de .LASF69
C:\Users\stapi\AppData\Local\Temp\ccJ15vUB.s:15321  .debug_str:0000000000000840 .LASF70
C:\Users\stapi\AppData\Local\Temp\ccJ15vUB.s:15395  .debug_str:0000000000000b30 .LASF71
C:\Users\stapi\AppData\Local\Temp\ccJ15vUB.s:15363  .debug_str:00000000000009db .LASF72
C:\Users\stapi\AppData\Local\Temp\ccJ15vUB.s:15489  .debug_str:0000000000000ee8 .LASF73
C:\Users\stapi\AppData\Local\Temp\ccJ15vUB.s:15641  .debug_str:0000000000001549 .LASF74
C:\Users\stapi\AppData\Local\Temp\ccJ15vUB.s:15627  .debug_str:0000000000001498 .LASF75
C:\Users\stapi\AppData\Local\Temp\ccJ15vUB.s:16105  .debug_str:000000000000287e .LASF76
C:\Users\stapi\AppData\Local\Temp\ccJ15vUB.s:15733  .debug_str:0000000000001908 .LASF77
C:\Users\stapi\AppData\Local\Temp\ccJ15vUB.s:15323  .debug_str:0000000000000853 .LASF78
C:\Users\stapi\AppData\Local\Temp\ccJ15vUB.s:15883  .debug_str:0000000000001fce .LASF79
C:\Users\stapi\AppData\Local\Temp\ccJ15vUB.s:15233  .debug_str:000000000000046f .LASF80
C:\Users\stapi\AppData\Local\Temp\ccJ15vUB.s:15785  .debug_str:0000000000001aef .LASF81
C:\Users\stapi\AppData\Local\Temp\ccJ15vUB.s:15957  .debug_str:000000000000227f .LASF82
C:\Users\stapi\AppData\Local\Temp\ccJ15vUB.s:15761  .debug_str:0000000000001a03 .LASF83
C:\Users\stapi\AppData\Local\Temp\ccJ15vUB.s:16033  .debug_str:000000000000255c .LASF84
C:\Users\stapi\AppData\Local\Temp\ccJ15vUB.s:15589  .debug_str:0000000000001344 .LASF85
C:\Users\stapi\AppData\Local\Temp\ccJ15vUB.s:16097  .debug_str:000000000000283d .LASF86
C:\Users\stapi\AppData\Local\Temp\ccJ15vUB.s:15643  .debug_str:0000000000001562 .LASF87
C:\Users\stapi\AppData\Local\Temp\ccJ15vUB.s:16125  .debug_str:0000000000002938 .LASF88
C:\Users\stapi\AppData\Local\Temp\ccJ15vUB.s:16083  .debug_str:0000000000002791 .LASF89
C:\Users\stapi\AppData\Local\Temp\ccJ15vUB.s:16029  .debug_str:0000000000002527 .LASF90
C:\Users\stapi\AppData\Local\Temp\ccJ15vUB.s:15165  .debug_str:000000000000009b .LASF92
C:\Users\stapi\AppData\Local\Temp\ccJ15vUB.s:15369  .debug_str:00000000000009ff .LASF93
C:\Users\stapi\AppData\Local\Temp\ccJ15vUB.s:15699  .debug_str:00000000000017de .LASF94
C:\Users\stapi\AppData\Local\Temp\ccJ15vUB.s:15801  .debug_str:0000000000001c21 .LASF95
C:\Users\stapi\AppData\Local\Temp\ccJ15vUB.s:15519  .debug_str:0000000000001016 .LASF96
C:\Users\stapi\AppData\Local\Temp\ccJ15vUB.s:16069  .debug_str:00000000000026f2 .LASF97
C:\Users\stapi\AppData\Local\Temp\ccJ15vUB.s:15649  .debug_str:0000000000001595 .LASF98
C:\Users\stapi\AppData\Local\Temp\ccJ15vUB.s:15153  .debug_str:0000000000000012 .LASF99
C:\Users\stapi\AppData\Local\Temp\ccJ15vUB.s:15931  .debug_str:0000000000002183 .LASF100
C:\Users\stapi\AppData\Local\Temp\ccJ15vUB.s:16095  .debug_str:000000000000282e .LASF101
C:\Users\stapi\AppData\Local\Temp\ccJ15vUB.s:15959  .debug_str:0000000000002294 .LASF102
C:\Users\stapi\AppData\Local\Temp\ccJ15vUB.s:15889  .debug_str:0000000000001ffe .LASF103
C:\Users\stapi\AppData\Local\Temp\ccJ15vUB.s:15459  .debug_str:0000000000000dbb .LASF104
C:\Users\stapi\AppData\Local\Temp\ccJ15vUB.s:15811  .debug_str:0000000000001c8b .LASF105
C:\Users\stapi\AppData\Local\Temp\ccJ15vUB.s:15891  .debug_str:000000000000200d .LASF106
C:\Users\stapi\AppData\Local\Temp\ccJ15vUB.s:15591  .debug_str:0000000000001359 .LASF107
C:\Users\stapi\AppData\Local\Temp\ccJ15vUB.s:16109  .debug_str:00000000000028a1 .LASF108
C:\Users\stapi\AppData\Local\Temp\ccJ15vUB.s:15667  .debug_str:00000000000016bd .LASF109
C:\Users\stapi\AppData\Local\Temp\ccJ15vUB.s:15849  .debug_str:0000000000001e21 .LASF110
C:\Users\stapi\AppData\Local\Temp\ccJ15vUB.s:15413  .debug_str:0000000000000bf5 .LASF111
C:\Users\stapi\AppData\Local\Temp\ccJ15vUB.s:15963  .debug_str:00000000000022ad .LASF112
C:\Users\stapi\AppData\Local\Temp\ccJ15vUB.s:15171  .debug_str:00000000000000e1 .LASF113
C:\Users\stapi\AppData\Local\Temp\ccJ15vUB.s:15285  .debug_str:00000000000006ac .LASF114
C:\Users\stapi\AppData\Local\Temp\ccJ15vUB.s:15909  .debug_str:000000000000209e .LASF115
C:\Users\stapi\AppData\Local\Temp\ccJ15vUB.s:15403  .debug_str:0000000000000b7f .LASF116
C:\Users\stapi\AppData\Local\Temp\ccJ15vUB.s:15579  .debug_str:00000000000012e4 .LASF117
C:\Users\stapi\AppData\Local\Temp\ccJ15vUB.s:15871  .debug_str:0000000000001f55 .LASF118
C:\Users\stapi\AppData\Local\Temp\ccJ15vUB.s:15205  .debug_str:000000000000032c .LASF119
C:\Users\stapi\AppData\Local\Temp\ccJ15vUB.s:16009  .debug_str:0000000000002473 .LASF120
C:\Users\stapi\AppData\Local\Temp\ccJ15vUB.s:15737  .debug_str:0000000000001929 .LASF121
C:\Users\stapi\AppData\Local\Temp\ccJ15vUB.s:15453  .debug_str:0000000000000d64 .LASF122
C:\Users\stapi\AppData\Local\Temp\ccJ15vUB.s:15305  .debug_str:000000000000078e .LASF123
C:\Users\stapi\AppData\Local\Temp\ccJ15vUB.s:15259  .debug_str:0000000000000599 .LASF124
C:\Users\stapi\AppData\Local\Temp\ccJ15vUB.s:15847  .debug_str:0000000000001e08 .LASF125
C:\Users\stapi\AppData\Local\Temp\ccJ15vUB.s:16041  .debug_str:00000000000025ad .LASF126
C:\Users\stapi\AppData\Local\Temp\ccJ15vUB.s:15823  .debug_str:0000000000001d2c .LASF127
C:\Users\stapi\AppData\Local\Temp\ccJ15vUB.s:15155  .debug_str:0000000000000021 .LASF128
C:\Users\stapi\AppData\Local\Temp\ccJ15vUB.s:15227  .debug_str:0000000000000432 .LASF129
C:\Users\stapi\AppData\Local\Temp\ccJ15vUB.s:15249  .debug_str:0000000000000522 .LASF130
C:\Users\stapi\AppData\Local\Temp\ccJ15vUB.s:15857  .debug_str:0000000000001e8e .LASF131
C:\Users\stapi\AppData\Local\Temp\ccJ15vUB.s:15481  .debug_str:0000000000000e89 .LASF132
C:\Users\stapi\AppData\Local\Temp\ccJ15vUB.s:15655  .debug_str:00000000000015d4 .LASF133
C:\Users\stapi\AppData\Local\Temp\ccJ15vUB.s:15317  .debug_str:0000000000000812 .LASF134
C:\Users\stapi\AppData\Local\Temp\ccJ15vUB.s:16093  .debug_str:0000000000002812 .LASF135
C:\Users\stapi\AppData\Local\Temp\ccJ15vUB.s:16113  .debug_str:00000000000028cc .LASF136
C:\Users\stapi\AppData\Local\Temp\ccJ15vUB.s:15979  .debug_str:0000000000002351 .LASF137
C:\Users\stapi\AppData\Local\Temp\ccJ15vUB.s:16077  .debug_str:0000000000002735 .LASF138
C:\Users\stapi\AppData\Local\Temp\ccJ15vUB.s:15401  .debug_str:0000000000000b66 .LASF139
C:\Users\stapi\AppData\Local\Temp\ccJ15vUB.s:15485  .debug_str:0000000000000eb6 .LASF140
C:\Users\stapi\AppData\Local\Temp\ccJ15vUB.s:15777  .debug_str:0000000000001aa1 .LASF141
C:\Users\stapi\AppData\Local\Temp\ccJ15vUB.s:15341  .debug_str:000000000000090e .LASF142
C:\Users\stapi\AppData\Local\Temp\ccJ15vUB.s:15513  .debug_str:0000000000000fbf .LASF143
C:\Users\stapi\AppData\Local\Temp\ccJ15vUB.s:15371  .debug_str:0000000000000a16 .LASF144
C:\Users\stapi\AppData\Local\Temp\ccJ15vUB.s:15917  .debug_str:00000000000020ee .LASF145
C:\Users\stapi\AppData\Local\Temp\ccJ15vUB.s:15429  .debug_str:0000000000000cb3 .LASF146
C:\Users\stapi\AppData\Local\Temp\ccJ15vUB.s:15245  .debug_str:00000000000004f5 .LASF147
C:\Users\stapi\AppData\Local\Temp\ccJ15vUB.s:15997  .debug_str:00000000000023e4 .LASF148
C:\Users\stapi\AppData\Local\Temp\ccJ15vUB.s:15569  .debug_str:0000000000001269 .LASF149
C:\Users\stapi\AppData\Local\Temp\ccJ15vUB.s:15565  .debug_str:000000000000122b .LASF150
C:\Users\stapi\AppData\Local\Temp\ccJ15vUB.s:15407  .debug_str:0000000000000bb3 .LASF151
C:\Users\stapi\AppData\Local\Temp\ccJ15vUB.s:15969  .debug_str:00000000000022ea .LASF152
C:\Users\stapi\AppData\Local\Temp\ccJ15vUB.s:15993  .debug_str:00000000000023bc .LASF153
C:\Users\stapi\AppData\Local\Temp\ccJ15vUB.s:15971  .debug_str:0000000000002304 .LASF154
C:\Users\stapi\AppData\Local\Temp\ccJ15vUB.s:15359  .debug_str:00000000000009b8 .LASF155
C:\Users\stapi\AppData\Local\Temp\ccJ15vUB.s:16081  .debug_str:000000000000276e .LASF156
C:\Users\stapi\AppData\Local\Temp\ccJ15vUB.s:16079  .debug_str:0000000000002751 .LASF157
C:\Users\stapi\AppData\Local\Temp\ccJ15vUB.s:15815  .debug_str:0000000000001cbe .LASF158
C:\Users\stapi\AppData\Local\Temp\ccJ15vUB.s:16091  .debug_str:00000000000027f2 .LASF159
C:\Users\stapi\AppData\Local\Temp\ccJ15vUB.s:15707  .debug_str:000000000000181c .LASF160
C:\Users\stapi\AppData\Local\Temp\ccJ15vUB.s:15713  .debug_str:0000000000001864 .LASF161
C:\Users\stapi\AppData\Local\Temp\ccJ15vUB.s:15531  .debug_str:0000000000001098 .LASF162
C:\Users\stapi\AppData\Local\Temp\ccJ15vUB.s:15173  .debug_str:0000000000000101 .LASF163
C:\Users\stapi\AppData\Local\Temp\ccJ15vUB.s:16037  .debug_str:000000000000257b .LASF164
C:\Users\stapi\AppData\Local\Temp\ccJ15vUB.s:15817  .debug_str:0000000000001ce1 .LASF165
C:\Users\stapi\AppData\Local\Temp\ccJ15vUB.s:15567  .debug_str:0000000000001249 .LASF166
C:\Users\stapi\AppData\Local\Temp\ccJ15vUB.s:15563  .debug_str:000000000000120c .LASF167
C:\Users\stapi\AppData\Local\Temp\ccJ15vUB.s:15679  .debug_str:000000000000171f .LASF168
C:\Users\stapi\AppData\Local\Temp\ccJ15vUB.s:15217  .debug_str:00000000000003b4 .LASF169
C:\Users\stapi\AppData\Local\Temp\ccJ15vUB.s:16085  .debug_str:00000000000027a6 .LASF170
C:\Users\stapi\AppData\Local\Temp\ccJ15vUB.s:15293  .debug_str:0000000000000723 .LASF171
C:\Users\stapi\AppData\Local\Temp\ccJ15vUB.s:15779  .debug_str:0000000000001abc .LASF172
C:\Users\stapi\AppData\Local\Temp\ccJ15vUB.s:16063  .debug_str:00000000000026ad .LASF173
C:\Users\stapi\AppData\Local\Temp\ccJ15vUB.s:15197  .debug_str:00000000000002d5 .LASF174
C:\Users\stapi\AppData\Local\Temp\ccJ15vUB.s:16043  .debug_str:00000000000025cb .LASF175
C:\Users\stapi\AppData\Local\Temp\ccJ15vUB.s:16087  .debug_str:00000000000027c0 .LASF176
C:\Users\stapi\AppData\Local\Temp\ccJ15vUB.s:15163  .debug_str:0000000000000081 .LASF177
C:\Users\stapi\AppData\Local\Temp\ccJ15vUB.s:15647  .debug_str:000000000000157d .LASF178
C:\Users\stapi\AppData\Local\Temp\ccJ15vUB.s:15309  .debug_str:00000000000007bf .LASF179
C:\Users\stapi\AppData\Local\Temp\ccJ15vUB.s:16159  .debug_str:0000000000002a7e .LASF180
C:\Users\stapi\AppData\Local\Temp\ccJ15vUB.s:15337  .debug_str:00000000000008d6 .LASF181
C:\Users\stapi\AppData\Local\Temp\ccJ15vUB.s:15829  .debug_str:0000000000001d69 .LASF182
C:\Users\stapi\AppData\Local\Temp\ccJ15vUB.s:16147  .debug_str:0000000000002a05 .LASF183
C:\Users\stapi\AppData\Local\Temp\ccJ15vUB.s:16139  .debug_str:00000000000029a2 .LASF184
C:\Users\stapi\AppData\Local\Temp\ccJ15vUB.s:15295  .debug_str:000000000000073c .LASF185
C:\Users\stapi\AppData\Local\Temp\ccJ15vUB.s:15711  .debug_str:000000000000184c .LASF186
C:\Users\stapi\AppData\Local\Temp\ccJ15vUB.s:15557  .debug_str:00000000000011ce .LASF187
C:\Users\stapi\AppData\Local\Temp\ccJ15vUB.s:15279  .debug_str:0000000000000677 .LASF188
C:\Users\stapi\AppData\Local\Temp\ccJ15vUB.s:15435  .debug_str:0000000000000ce6 .LASF189
C:\Users\stapi\AppData\Local\Temp\ccJ15vUB.s:15265  .debug_str:00000000000005e9 .LASF190
C:\Users\stapi\AppData\Local\Temp\ccJ15vUB.s:15327  .debug_str:0000000000000880 .LASF191
C:\Users\stapi\AppData\Local\Temp\ccJ15vUB.s:16067  .debug_str:00000000000026de .LASF192
C:\Users\stapi\AppData\Local\Temp\ccJ15vUB.s:15209  .debug_str:0000000000000350 .LASF193
C:\Users\stapi\AppData\Local\Temp\ccJ15vUB.s:15161  .debug_str:0000000000000069 .LASF194
C:\Users\stapi\AppData\Local\Temp\ccJ15vUB.s:15353  .debug_str:000000000000097f .LASF195
C:\Users\stapi\AppData\Local\Temp\ccJ15vUB.s:16071  .debug_str:0000000000002703 .LASF196
C:\Users\stapi\AppData\Local\Temp\ccJ15vUB.s:15283  .debug_str:0000000000000694 .LASF197
C:\Users\stapi\AppData\Local\Temp\ccJ15vUB.s:15551  .debug_str:0000000000001188 .LASF198
C:\Users\stapi\AppData\Local\Temp\ccJ15vUB.s:15183  .debug_str:000000000000017b .LASF199
C:\Users\stapi\AppData\Local\Temp\ccJ15vUB.s:15343  .debug_str:0000000000000926 .LASF200
C:\Users\stapi\AppData\Local\Temp\ccJ15vUB.s:16001  .debug_str:0000000000002418 .LASF201
C:\Users\stapi\AppData\Local\Temp\ccJ15vUB.s:15511  .debug_str:0000000000000f97 .LASF202
C:\Users\stapi\AppData\Local\Temp\ccJ15vUB.s:16059  .debug_str:000000000000266a .LASF203
C:\Users\stapi\AppData\Local\Temp\ccJ15vUB.s:15457  .debug_str:0000000000000da3 .LASF204
C:\Users\stapi\AppData\Local\Temp\ccJ15vUB.s:16061  .debug_str:0000000000002692 .LASF205
C:\Users\stapi\AppData\Local\Temp\ccJ15vUB.s:15545  .debug_str:000000000000113e .LASF206
C:\Users\stapi\AppData\Local\Temp\ccJ15vUB.s:16169  .debug_str:0000000000002b01 .LASF207
C:\Users\stapi\AppData\Local\Temp\ccJ15vUB.s:15263  .debug_str:00000000000005c2 .LASF208
C:\Users\stapi\AppData\Local\Temp\ccJ15vUB.s:15653  .debug_str:00000000000015bc .LASF209
C:\Users\stapi\AppData\Local\Temp\ccJ15vUB.s:15819  .debug_str:0000000000001cfd .LASF210
C:\Users\stapi\AppData\Local\Temp\ccJ15vUB.s:15479  .debug_str:0000000000000e6e .LASF211
C:\Users\stapi\AppData\Local\Temp\ccJ15vUB.s:15851  .debug_str:0000000000001e52 .LASF212
C:\Users\stapi\AppData\Local\Temp\ccJ15vUB.s:15423  .debug_str:0000000000000c6c .LASF213
C:\Users\stapi\AppData\Local\Temp\ccJ15vUB.s:15803  .debug_str:0000000000001c38 .LASF214
C:\Users\stapi\AppData\Local\Temp\ccJ15vUB.s:15287  .debug_str:00000000000006ce .LASF215
C:\Users\stapi\AppData\Local\Temp\ccJ15vUB.s:15269  .debug_str:000000000000061b .LASF216
C:\Users\stapi\AppData\Local\Temp\ccJ15vUB.s:15533  .debug_str:00000000000010b9 .LASF217
C:\Users\stapi\AppData\Local\Temp\ccJ15vUB.s:15611  .debug_str:0000000000001418 .LASF218
C:\Users\stapi\AppData\Local\Temp\ccJ15vUB.s:16065  .debug_str:00000000000026c7 .LASF219
C:\Users\stapi\AppData\Local\Temp\ccJ15vUB.s:16137  .debug_str:000000000000298b .LASF220
C:\Users\stapi\AppData\Local\Temp\ccJ15vUB.s:15689  .debug_str:0000000000001760 .LASF221
C:\Users\stapi\AppData\Local\Temp\ccJ15vUB.s:15743  .debug_str:0000000000001951 .LASF222
C:\Users\stapi\AppData\Local\Temp\ccJ15vUB.s:15549  .debug_str:000000000000116e .LASF223
C:\Users\stapi\AppData\Local\Temp\ccJ15vUB.s:15925  .debug_str:0000000000002135 .LASF224
C:\Users\stapi\AppData\Local\Temp\ccJ15vUB.s:15237  .debug_str:0000000000000489 .LASF225
C:\Users\stapi\AppData\Local\Temp\ccJ15vUB.s:16119  .debug_str:0000000000002904 .LASF226
C:\Users\stapi\AppData\Local\Temp\ccJ15vUB.s:16027  .debug_str:0000000000002506 .LASF227
C:\Users\stapi\AppData\Local\Temp\ccJ15vUB.s:15495  .debug_str:0000000000000f13 .LASF228
C:\Users\stapi\AppData\Local\Temp\ccJ15vUB.s:15379  .debug_str:0000000000000a85 .LASF229
C:\Users\stapi\AppData\Local\Temp\ccJ15vUB.s:16057  .debug_str:0000000000002646 .LASF230
C:\Users\stapi\AppData\Local\Temp\ccJ15vUB.s:15555  .debug_str:00000000000011ad .LASF231
C:\Users\stapi\AppData\Local\Temp\ccJ15vUB.s:15631  .debug_str:00000000000014bd .LASF232
C:\Users\stapi\AppData\Local\Temp\ccJ15vUB.s:15675  .debug_str:00000000000016f3 .LASF233
C:\Users\stapi\AppData\Local\Temp\ccJ15vUB.s:15223  .debug_str:00000000000003f5 .LASF234
C:\Users\stapi\AppData\Local\Temp\ccJ15vUB.s:16031  .debug_str:000000000000253b .LASF235
C:\Users\stapi\AppData\Local\Temp\ccJ15vUB.s:16155  .debug_str:0000000000002a4d .LASF236
C:\Users\stapi\AppData\Local\Temp\ccJ15vUB.s:15455  .debug_str:0000000000000d80 .LASF237
C:\Users\stapi\AppData\Local\Temp\ccJ15vUB.s:15575  .debug_str:00000000000012ae .LASF238
C:\Users\stapi\AppData\Local\Temp\ccJ15vUB.s:15203  .debug_str:0000000000000309 .LASF239
C:\Users\stapi\AppData\Local\Temp\ccJ15vUB.s:15729  .debug_str:00000000000018d6 .LASF240
C:\Users\stapi\AppData\Local\Temp\ccJ15vUB.s:15869  .debug_str:0000000000001f2f .LASF241
C:\Users\stapi\AppData\Local\Temp\ccJ15vUB.s:16151  .debug_str:0000000000002a2b .LASF242
C:\Users\stapi\AppData\Local\Temp\ccJ15vUB.s:15953  .debug_str:000000000000224a .LASF243
C:\Users\stapi\AppData\Local\Temp\ccJ15vUB.s:15393  .debug_str:0000000000000b11 .LASF244
C:\Users\stapi\AppData\Local\Temp\ccJ15vUB.s:15523  .debug_str:000000000000104c .LASF245
C:\Users\stapi\AppData\Local\Temp\ccJ15vUB.s:15973  .debug_str:0000000000002319 .LASF246
C:\Users\stapi\AppData\Local\Temp\ccJ15vUB.s:15629  .debug_str:00000000000014a1 .LASF247
C:\Users\stapi\AppData\Local\Temp\ccJ15vUB.s:15773  .debug_str:0000000000001a60 .LASF248
C:\Users\stapi\AppData\Local\Temp\ccJ15vUB.s:15515  .debug_str:0000000000000fdf .LASF249
C:\Users\stapi\AppData\Local\Temp\ccJ15vUB.s:15911  .debug_str:00000000000020b1 .LASF250
C:\Users\stapi\AppData\Local\Temp\ccJ15vUB.s:15885  .debug_str:0000000000001fde .LASF251
C:\Users\stapi\AppData\Local\Temp\ccJ15vUB.s:16017  .debug_str:00000000000024b3 .LASF252
C:\Users\stapi\AppData\Local\Temp\ccJ15vUB.s:15339  .debug_str:00000000000008f1 .LASF253
C:\Users\stapi\AppData\Local\Temp\ccJ15vUB.s:15607  .debug_str:00000000000013df .LASF254
C:\Users\stapi\AppData\Local\Temp\ccJ15vUB.s:16053  .debug_str:0000000000002615 .LASF255
C:\Users\stapi\AppData\Local\Temp\ccJ15vUB.s:15539  .debug_str:0000000000001106 .LASF256
C:\Users\stapi\AppData\Local\Temp\ccJ15vUB.s:16165  .debug_str:0000000000002ac6 .LASF257
C:\Users\stapi\AppData\Local\Temp\ccJ15vUB.s:15425  .debug_str:0000000000000c87 .LASF258
C:\Users\stapi\AppData\Local\Temp\ccJ15vUB.s:15191  .debug_str:000000000000029d .LASF259
C:\Users\stapi\AppData\Local\Temp\ccJ15vUB.s:15619  .debug_str:0000000000001460 .LASF260
C:\Users\stapi\AppData\Local\Temp\ccJ15vUB.s:15417  .debug_str:0000000000000c35 .LASF261
C:\Users\stapi\AppData\Local\Temp\ccJ15vUB.s:15357  .debug_str:00000000000009ab .LASF262
C:\Users\stapi\AppData\Local\Temp\ccJ15vUB.s:16143  .debug_str:00000000000029bf .LASF263
C:\Users\stapi\AppData\Local\Temp\ccJ15vUB.s:15949  .debug_str:0000000000002202 .LASF264
C:\Users\stapi\AppData\Local\Temp\ccJ15vUB.s:15239  .debug_str:00000000000004a8 .LASF265
C:\Users\stapi\AppData\Local\Temp\ccJ15vUB.s:16145  .debug_str:00000000000029d3 .LASF266
C:\Users\stapi\AppData\Local\Temp\ccJ15vUB.s:15945  .debug_str:00000000000021ea .LASF267
C:\Users\stapi\AppData\Local\Temp\ccJ15vUB.s:15813  .debug_str:0000000000001ca9 .LASF268
C:\Users\stapi\AppData\Local\Temp\ccJ15vUB.s:15431  .debug_str:0000000000000ccf .LASF269
C:\Users\stapi\AppData\Local\Temp\ccJ15vUB.s:15211  .debug_str:0000000000000370 .LASF270
C:\Users\stapi\AppData\Local\Temp\ccJ15vUB.s:15445  .debug_str:0000000000000d33 .LASF271
C:\Users\stapi\AppData\Local\Temp\ccJ15vUB.s:16099  .debug_str:0000000000002851 .LASF272
C:\Users\stapi\AppData\Local\Temp\ccJ15vUB.s:15749  .debug_str:000000000000198c .LASF273
C:\Users\stapi\AppData\Local\Temp\ccJ15vUB.s:15581  .debug_str:00000000000012fb .LASF274
C:\Users\stapi\AppData\Local\Temp\ccJ15vUB.s:16117  .debug_str:00000000000028f9 .LASF275
C:\Users\stapi\AppData\Local\Temp\ccJ15vUB.s:15965  .debug_str:00000000000022d3 .LASF276
C:\Users\stapi\AppData\Local\Temp\ccJ15vUB.s:16123  .debug_str:0000000000002927 .LASF277
C:\Users\stapi\AppData\Local\Temp\ccJ15vUB.s:15721  .debug_str:00000000000018b1 .LASF278
C:\Users\stapi\AppData\Local\Temp\ccJ15vUB.s:15617  .debug_str:0000000000001451 .LASF279
C:\Users\stapi\AppData\Local\Temp\ccJ15vUB.s:15927  .debug_str:0000000000002149 .LASF280
C:\Users\stapi\AppData\Local\Temp\ccJ15vUB.s:15859  .debug_str:0000000000001eac .LASF281
C:\Users\stapi\AppData\Local\Temp\ccJ15vUB.s:15637  .debug_str:00000000000014fa .LASF282
C:\Users\stapi\AppData\Local\Temp\ccJ15vUB.s:15535  .debug_str:00000000000010d0 .LASF283
C:\Users\stapi\AppData\Local\Temp\ccJ15vUB.s:15375  .debug_str:0000000000000a42 .LASF284
C:\Users\stapi\AppData\Local\Temp\ccJ15vUB.s:15289  .debug_str:00000000000006eb .LASF285
C:\Users\stapi\AppData\Local\Temp\ccJ15vUB.s:15639  .debug_str:0000000000001526 .LASF286
C:\Users\stapi\AppData\Local\Temp\ccJ15vUB.s:15795  .debug_str:0000000000001bdc .LASF287
C:\Users\stapi\AppData\Local\Temp\ccJ15vUB.s:15697  .debug_str:00000000000017cc .LASF505
C:\Users\stapi\AppData\Local\Temp\ccJ15vUB.s:15427  .debug_str:0000000000000ca4 .LASF288
C:\Users\stapi\AppData\Local\Temp\ccJ15vUB.s:15669  .debug_str:00000000000016d8 .LASF289
C:\Users\stapi\AppData\Local\Temp\ccJ15vUB.s:15659  .debug_str:0000000000001601 .LASF290
C:\Users\stapi\AppData\Local\Temp\ccJ15vUB.s:16163  .debug_str:0000000000002ab5 .LASF291
C:\Users\stapi\AppData\Local\Temp\ccJ15vUB.s:16161  .debug_str:0000000000002a9f .LASF292
C:\Users\stapi\AppData\Local\Temp\ccJ15vUB.s:15345  .debug_str:0000000000000943 .LASF293
C:\Users\stapi\AppData\Local\Temp\ccJ15vUB.s:15315  .debug_str:0000000000000803 .LASF294
C:\Users\stapi\AppData\Local\Temp\ccJ15vUB.s:16129  .debug_str:000000000000295f .LASF295
C:\Users\stapi\AppData\Local\Temp\ccJ15vUB.s:15951  .debug_str:0000000000002235 .LASF296
C:\Users\stapi\AppData\Local\Temp\ccJ15vUB.s:16075  .debug_str:0000000000002724 .LASF297
C:\Users\stapi\AppData\Local\Temp\ccJ15vUB.s:15301  .debug_str:0000000000000769 .LASF298
C:\Users\stapi\AppData\Local\Temp\ccJ15vUB.s:15541  .debug_str:0000000000001124 .LASF299
C:\Users\stapi\AppData\Local\Temp\ccJ15vUB.s:15853  .debug_str:0000000000001e6f .LASF300
C:\Users\stapi\AppData\Local\Temp\ccJ15vUB.s:15491  .debug_str:0000000000000efc .LASF301
C:\Users\stapi\AppData\Local\Temp\ccJ15vUB.s:15247  .debug_str:0000000000000514 .LASF506
C:\Users\stapi\AppData\Local\Temp\ccJ15vUB.s:15597  .debug_str:0000000000001395 .LASF302
C:\Users\stapi\AppData\Local\Temp\ccJ15vUB.s:16019  .debug_str:00000000000024cb .LASF303
C:\Users\stapi\AppData\Local\Temp\ccJ15vUB.s:15543  .debug_str:0000000000001137 .LASF304
C:\Users\stapi\AppData\Local\Temp\ccJ15vUB.s:15831  .debug_str:0000000000001d8b .LASF305
C:\Users\stapi\AppData\Local\Temp\ccJ15vUB.s:15723  .debug_str:00000000000018bd .LASF306
C:\Users\stapi\AppData\Local\Temp\ccJ15vUB.s:15207  .debug_str:000000000000034a .LASF307
C:\Users\stapi\AppData\Local\Temp\ccJ15vUB.s:15841  .debug_str:0000000000001dd4 .LASF308
C:\Users\stapi\AppData\Local\Temp\ccJ15vUB.s:16015  .debug_str:00000000000024ab .LASF309
C:\Users\stapi\AppData\Local\Temp\ccJ15vUB.s:15861  .debug_str:0000000000001edb .LASF310
C:\Users\stapi\AppData\Local\Temp\ccJ15vUB.s:16135  .debug_str:000000000000297c .LASF311
C:\Users\stapi\AppData\Local\Temp\ccJ15vUB.s:16157  .debug_str:0000000000002a6e .LASF312
C:\Users\stapi\AppData\Local\Temp\ccJ15vUB.s:15483  .debug_str:0000000000000ea7 .LASF313
C:\Users\stapi\AppData\Local\Temp\ccJ15vUB.s:15409  .debug_str:0000000000000bd3 .LASF314
C:\Users\stapi\AppData\Local\Temp\ccJ15vUB.s:15509  .debug_str:0000000000000f87 .LASF315
C:\Users\stapi\AppData\Local\Temp\ccJ15vUB.s:15873  .debug_str:0000000000001f6f .LASF316
C:\Users\stapi\AppData\Local\Temp\ccJ15vUB.s:15473  .debug_str:0000000000000e3f .LASF317
C:\Users\stapi\AppData\Local\Temp\ccJ15vUB.s:15421  .debug_str:0000000000000c65 .LASF318
C:\Users\stapi\AppData\Local\Temp\ccJ15vUB.s:15635  .debug_str:00000000000014f0 .LASF319
C:\Users\stapi\AppData\Local\Temp\ccJ15vUB.s:15991  .debug_str:00000000000023ae .LASF320
C:\Users\stapi\AppData\Local\Temp\ccJ15vUB.s:15769  .debug_str:0000000000001a49 .LASF321
C:\Users\stapi\AppData\Local\Temp\ccJ15vUB.s:15385  .debug_str:0000000000000ad4 .LASF322
C:\Users\stapi\AppData\Local\Temp\ccJ15vUB.s:15673  .debug_str:00000000000016e8 .LASF323
C:\Users\stapi\AppData\Local\Temp\ccJ15vUB.s:15661  .debug_str:000000000000160f .LASF324
C:\Users\stapi\AppData\Local\Temp\ccJ15vUB.s:15625  .debug_str:0000000000001483 .LASF325
C:\Users\stapi\AppData\Local\Temp\ccJ15vUB.s:15837  .debug_str:0000000000001da3 .LASF326
C:\Users\stapi\AppData\Local\Temp\ccJ15vUB.s:15595  .debug_str:0000000000001388 .LASF327
C:\Users\stapi\AppData\Local\Temp\ccJ15vUB.s:15517  .debug_str:0000000000001005 .LASF328
C:\Users\stapi\AppData\Local\Temp\ccJ15vUB.s:15731  .debug_str:00000000000018f6 .LASF329
C:\Users\stapi\AppData\Local\Temp\ccJ15vUB.s:15195  .debug_str:00000000000002cc .LASF330
C:\Users\stapi\AppData\Local\Temp\ccJ15vUB.s:15645  .debug_str:0000000000001570 .LASF331
C:\Users\stapi\AppData\Local\Temp\ccJ15vUB.s:15899  .debug_str:000000000000204c .LASF332
C:\Users\stapi\AppData\Local\Temp\ccJ15vUB.s:15685  .debug_str:000000000000174d .LASF333
C:\Users\stapi\AppData\Local\Temp\ccJ15vUB.s:15855  .debug_str:0000000000001e81 .LASF334
C:\Users\stapi\AppData\Local\Temp\ccJ15vUB.s:15929  .debug_str:0000000000002170 .LASF335
C:\Users\stapi\AppData\Local\Temp\ccJ15vUB.s:16007  .debug_str:0000000000002460 .LASF336
C:\Users\stapi\AppData\Local\Temp\ccJ15vUB.s:15501  .debug_str:0000000000000f4b .LASF337
C:\Users\stapi\AppData\Local\Temp\ccJ15vUB.s:15193  .debug_str:00000000000002ba .LASF338
C:\Users\stapi\AppData\Local\Temp\ccJ15vUB.s:15571  .debug_str:0000000000001288 .LASF339
C:\Users\stapi\AppData\Local\Temp\ccJ15vUB.s:15781  .debug_str:0000000000001ad6 .LASF340
C:\Users\stapi\AppData\Local\Temp\ccJ15vUB.s:15441  .debug_str:0000000000000d1e .LASF341
C:\Users\stapi\AppData\Local\Temp\ccJ15vUB.s:15633  .debug_str:00000000000014df .LASF342
C:\Users\stapi\AppData\Local\Temp\ccJ15vUB.s:15275  .debug_str:0000000000000657 .LASF343
C:\Users\stapi\AppData\Local\Temp\ccJ15vUB.s:15805  .debug_str:0000000000001c57 .LASF344
C:\Users\stapi\AppData\Local\Temp\ccJ15vUB.s:16023  .debug_str:00000000000024df .LASF345
C:\Users\stapi\AppData\Local\Temp\ccJ15vUB.s:16039  .debug_str:0000000000002597 .LASF346
C:\Users\stapi\AppData\Local\Temp\ccJ15vUB.s:15221  .debug_str:00000000000003d9 .LASF347
C:\Users\stapi\AppData\Local\Temp\ccJ15vUB.s:15157  .debug_str:0000000000000038 .LASF348
C:\Users\stapi\AppData\Local\Temp\ccJ15vUB.s:16115  .debug_str:00000000000028e3 .LASF349
C:\Users\stapi\AppData\Local\Temp\ccJ15vUB.s:15181  .debug_str:000000000000015f .LASF350
C:\Users\stapi\AppData\Local\Temp\ccJ15vUB.s:15527  .debug_str:0000000000001072 .LASF351
C:\Users\stapi\AppData\Local\Temp\ccJ15vUB.s:15693  .debug_str:00000000000017a3 .LASF352
C:\Users\stapi\AppData\Local\Temp\ccJ15vUB.s:15311  .debug_str:00000000000007e0 .LASF353
C:\Users\stapi\AppData\Local\Temp\ccJ15vUB.s:15387  .debug_str:0000000000000adc .LASF354
C:\Users\stapi\AppData\Local\Temp\ccJ15vUB.s:15701  .debug_str:00000000000017f0 .LASF355
C:\Users\stapi\AppData\Local\Temp\ccJ15vUB.s:15411  .debug_str:0000000000000be5 .LASF356
C:\Users\stapi\AppData\Local\Temp\ccJ15vUB.s:15767  .debug_str:0000000000001a3a .LASF357
C:\Users\stapi\AppData\Local\Temp\ccJ15vUB.s:15865  .debug_str:0000000000001f05 .LASF358
C:\Users\stapi\AppData\Local\Temp\ccJ15vUB.s:15893  .debug_str:0000000000002025 .LASF359
C:\Users\stapi\AppData\Local\Temp\ccJ15vUB.s:15261  .debug_str:00000000000005b4 .LASF360
C:\Users\stapi\AppData\Local\Temp\ccJ15vUB.s:16055  .debug_str:0000000000002636 .LASF361
C:\Users\stapi\AppData\Local\Temp\ccJ15vUB.s:15605  .debug_str:00000000000013cf .LASF362
C:\Users\stapi\AppData\Local\Temp\ccJ15vUB.s:15231  .debug_str:0000000000000461 .LASF363
C:\Users\stapi\AppData\Local\Temp\ccJ15vUB.s:15739  .debug_str:000000000000193a .LASF364
C:\Users\stapi\AppData\Local\Temp\ccJ15vUB.s:15983  .debug_str:0000000000002373 .LASF365
C:\Users\stapi\AppData\Local\Temp\ccJ15vUB.s:16167  .debug_str:0000000000002aec .LASF366
C:\Users\stapi\AppData\Local\Temp\ccJ15vUB.s:15793  .debug_str:0000000000001bbb .LASF367
C:\Users\stapi\AppData\Local\Temp\ccJ15vUB.s:15333  .debug_str:00000000000008ab .LASF368
C:\Users\stapi\AppData\Local\Temp\ccJ15vUB.s:15923  .debug_str:0000000000002122 .LASF369
C:\Users\stapi\AppData\Local\Temp\ccJ15vUB.s:15719  .debug_str:000000000000189a .LASF370
C:\Users\stapi\AppData\Local\Temp\ccJ15vUB.s:15913  .debug_str:00000000000020d4 .LASF371
C:\Users\stapi\AppData\Local\Temp\ccJ15vUB.s:15751  .debug_str:00000000000019a6 .LASF430
C:\Users\stapi\AppData\Local\Temp\ccJ15vUB.s:1666   .text.iotx_guider_authenticate:0000000000000000 .LFB48
C:\Users\stapi\AppData\Local\Temp\ccJ15vUB.s:3618   .text.iotx_guider_authenticate:0000000000000ce8 .LFE48
C:\Users\stapi\AppData\Local\Temp\ccJ15vUB.s:15939  .debug_str:00000000000021c4 .LASF372
C:\Users\stapi\AppData\Local\Temp\ccJ15vUB.s:12476  .debug_loc:0000000000000000 .LLST36
C:\Users\stapi\AppData\Local\Temp\ccJ15vUB.s:12487  .debug_loc:000000000000001e .LLST37
C:\Users\stapi\AppData\Local\Temp\ccJ15vUB.s:16153  .debug_str:0000000000002a46 .LASF373
C:\Users\stapi\AppData\Local\Temp\ccJ15vUB.s:12509  .debug_loc:0000000000000058 .LLST38
C:\Users\stapi\AppData\Local\Temp\ccJ15vUB.s:12531  .debug_loc:0000000000000092 .LLST39
C:\Users\stapi\AppData\Local\Temp\ccJ15vUB.s:15447  .debug_str:0000000000000d43 .LASF374
C:\Users\stapi\AppData\Local\Temp\ccJ15vUB.s:12568  .debug_loc:00000000000000ed .LLST40
C:\Users\stapi\AppData\Local\Temp\ccJ15vUB.s:15835  .debug_str:0000000000001d9d .LASF375
C:\Users\stapi\AppData\Local\Temp\ccJ15vUB.s:12589  .debug_loc:0000000000000123 .LLST41
C:\Users\stapi\AppData\Local\Temp\ccJ15vUB.s:15695  .debug_str:00000000000017bf .LASF376
C:\Users\stapi\AppData\Local\Temp\ccJ15vUB.s:12622  .debug_loc:000000000000017a .LLST42
C:\Users\stapi\AppData\Local\Temp\ccJ15vUB.s:15297  .debug_str:0000000000000755 .LASF377
C:\Users\stapi\AppData\Local\Temp\ccJ15vUB.s:12679  .debug_loc:000000000000020c .LLST43
C:\Users\stapi\AppData\Local\Temp\ccJ15vUB.s:15383  .debug_str:0000000000000ac1 .LASF378
C:\Users\stapi\AppData\Local\Temp\ccJ15vUB.s:12721  .debug_loc:000000000000027a .LLST44
C:\Users\stapi\AppData\Local\Temp\ccJ15vUB.s:15903  .debug_str:000000000000207e .LASF379
C:\Users\stapi\AppData\Local\Temp\ccJ15vUB.s:12772  .debug_loc:00000000000002ff .LLST45
C:\Users\stapi\AppData\Local\Temp\ccJ15vUB.s:15687  .debug_str:0000000000001754 .LASF380
C:\Users\stapi\AppData\Local\Temp\ccJ15vUB.s:12806  .debug_loc:0000000000000357 .LLST46
C:\Users\stapi\AppData\Local\Temp\ccJ15vUB.s:15825  .debug_str:0000000000001d46 .LASF381
C:\Users\stapi\AppData\Local\Temp\ccJ15vUB.s:12849  .debug_loc:00000000000003b8 .LLST47
C:\Users\stapi\AppData\Local\Temp\ccJ15vUB.s:15621  .debug_str:000000000000146d .LASF383
C:\Users\stapi\AppData\Local\Temp\ccJ15vUB.s:15199  .debug_str:00000000000002f4 .LASF392
C:\Users\stapi\AppData\Local\Temp\ccJ15vUB.s:15243  .debug_str:00000000000004f0 .LASF391
C:\Users\stapi\AppData\Local\Temp\ccJ15vUB.s:1877   .text.iotx_guider_authenticate:000000000000014e .LBB113
C:\Users\stapi\AppData\Local\Temp\ccJ15vUB.s:1895   .text.iotx_guider_authenticate:0000000000000168 .LBE113
C:\Users\stapi\AppData\Local\Temp\ccJ15vUB.s:12877  .debug_loc:00000000000003fc .LLST48
C:\Users\stapi\AppData\Local\Temp\ccJ15vUB.s:12886  .debug_loc:0000000000000411 .LLST49
C:\Users\stapi\AppData\Local\Temp\ccJ15vUB.s:1893   .text.iotx_guider_authenticate:0000000000000168 .LVL183
C:\Users\stapi\AppData\Local\Temp\ccJ15vUB.s:1979   .text.iotx_guider_authenticate:000000000000020c .LBB115
C:\Users\stapi\AppData\Local\Temp\ccJ15vUB.s:2001   .text.iotx_guider_authenticate:0000000000000226 .LBE115
C:\Users\stapi\AppData\Local\Temp\ccJ15vUB.s:12893  .debug_loc:0000000000000424 .LLST50
C:\Users\stapi\AppData\Local\Temp\ccJ15vUB.s:12900  .debug_loc:0000000000000437 .LLST51
C:\Users\stapi\AppData\Local\Temp\ccJ15vUB.s:1983   .text.iotx_guider_authenticate:000000000000020c .LBB117
C:\Users\stapi\AppData\Local\Temp\ccJ15vUB.s:1989   .text.iotx_guider_authenticate:0000000000000210 .LBE117
C:\Users\stapi\AppData\Local\Temp\ccJ15vUB.s:2023   .text.iotx_guider_authenticate:000000000000023e .LBB119
C:\Users\stapi\AppData\Local\Temp\ccJ15vUB.s:12908  .debug_loc:000000000000044b .LLST52
C:\Users\stapi\AppData\Local\Temp\ccJ15vUB.s:12931  .debug_loc:000000000000048a .LLST53
C:\Users\stapi\AppData\Local\Temp\ccJ15vUB.s:12964  .debug_loc:00000000000004d3 .LLST54
C:\Users\stapi\AppData\Local\Temp\ccJ15vUB.s:12991  .debug_loc:000000000000051d .LLST55
C:\Users\stapi\AppData\Local\Temp\ccJ15vUB.s:13014  .debug_loc:000000000000055c .LLST56
C:\Users\stapi\AppData\Local\Temp\ccJ15vUB.s:13037  .debug_loc:000000000000059b .LLST57
C:\Users\stapi\AppData\Local\Temp\ccJ15vUB.s:13060  .debug_loc:00000000000005da .LLST58
C:\Users\stapi\AppData\Local\Temp\ccJ15vUB.s:13088  .debug_loc:000000000000061e .LLST61
C:\Users\stapi\AppData\Local\Temp\ccJ15vUB.s:13121  .debug_loc:0000000000000667 .LLST62
C:\Users\stapi\AppData\Local\Temp\ccJ15vUB.s:13154  .debug_loc:00000000000006be .LLST63
C:\Users\stapi\AppData\Local\Temp\ccJ15vUB.s:13191  .debug_loc:0000000000000720 .LLST64
C:\Users\stapi\AppData\Local\Temp\ccJ15vUB.s:13215  .debug_loc:0000000000000760 .LLST65
C:\Users\stapi\AppData\Local\Temp\ccJ15vUB.s:13252  .debug_loc:00000000000007b9 .LLST66
C:\Users\stapi\AppData\Local\Temp\ccJ15vUB.s:13295  .debug_loc:0000000000000828 .LLST67
C:\Users\stapi\AppData\Local\Temp\ccJ15vUB.s:2049   .text.iotx_guider_authenticate:0000000000000256 .LBB121
C:\Users\stapi\AppData\Local\Temp\ccJ15vUB.s:13338  .debug_loc:0000000000000897 .LLST68
C:\Users\stapi\AppData\Local\Temp\ccJ15vUB.s:13346  .debug_loc:00000000000008ab .LLST69
C:\Users\stapi\AppData\Local\Temp\ccJ15vUB.s:2069   .text.iotx_guider_authenticate:0000000000000274 .LVL200
C:\Users\stapi\AppData\Local\Temp\ccJ15vUB.s:2122   .text.iotx_guider_authenticate:00000000000002ca .LBB125
C:\Users\stapi\AppData\Local\Temp\ccJ15vUB.s:13365  .debug_loc:00000000000008da .LLST70
C:\Users\stapi\AppData\Local\Temp\ccJ15vUB.s:13386  .debug_loc:0000000000000912 .LLST71
C:\Users\stapi\AppData\Local\Temp\ccJ15vUB.s:13405  .debug_loc:0000000000000946 .LLST72
C:\Users\stapi\AppData\Local\Temp\ccJ15vUB.s:13420  .debug_loc:000000000000096f .LLST73
C:\Users\stapi\AppData\Local\Temp\ccJ15vUB.s:13435  .debug_loc:0000000000000998 .LLST74
C:\Users\stapi\AppData\Local\Temp\ccJ15vUB.s:13470  .debug_loc:00000000000009eb .LLST75
C:\Users\stapi\AppData\Local\Temp\ccJ15vUB.s:13497  .debug_loc:0000000000000a2b .LLST76
C:\Users\stapi\AppData\Local\Temp\ccJ15vUB.s:13524  .debug_loc:0000000000000a70 .LLST77
C:\Users\stapi\AppData\Local\Temp\ccJ15vUB.s:13548  .debug_loc:0000000000000ab0 .LLST78
C:\Users\stapi\AppData\Local\Temp\ccJ15vUB.s:2169   .text.iotx_guider_authenticate:0000000000000324 .LBB127
C:\Users\stapi\AppData\Local\Temp\ccJ15vUB.s:13610  .debug_loc:0000000000000b50 .LLST79
C:\Users\stapi\AppData\Local\Temp\ccJ15vUB.s:13625  .debug_loc:0000000000000b74 .LLST80
C:\Users\stapi\AppData\Local\Temp\ccJ15vUB.s:13640  .debug_loc:0000000000000b98 .LLST81
C:\Users\stapi\AppData\Local\Temp\ccJ15vUB.s:13657  .debug_loc:0000000000000bc5 .LLST82
C:\Users\stapi\AppData\Local\Temp\ccJ15vUB.s:13668  .debug_loc:0000000000000be3 .LLST83
C:\Users\stapi\AppData\Local\Temp\ccJ15vUB.s:13679  .debug_loc:0000000000000c01 .LLST84
C:\Users\stapi\AppData\Local\Temp\ccJ15vUB.s:13690  .debug_loc:0000000000000c1f .LLST85
C:\Users\stapi\AppData\Local\Temp\ccJ15vUB.s:2180   .text.iotx_guider_authenticate:0000000000000334 .LVL219
C:\Users\stapi\AppData\Local\Temp\ccJ15vUB.s:2186   .text.iotx_guider_authenticate:0000000000000344 .LVL220
C:\Users\stapi\AppData\Local\Temp\ccJ15vUB.s:2217   .text.iotx_guider_authenticate:0000000000000378 .LVL222
C:\Users\stapi\AppData\Local\Temp\ccJ15vUB.s:2221   .text.iotx_guider_authenticate:0000000000000382 .LVL223
C:\Users\stapi\AppData\Local\Temp\ccJ15vUB.s:2413   .text.iotx_guider_authenticate:0000000000000508 .LVL251
C:\Users\stapi\AppData\Local\Temp\ccJ15vUB.s:2137   .text.iotx_guider_authenticate:00000000000002da .LVL211
C:\Users\stapi\AppData\Local\Temp\ccJ15vUB.s:2155   .text.iotx_guider_authenticate:000000000000030a .LVL214
C:\Users\stapi\AppData\Local\Temp\ccJ15vUB.s:2163   .text.iotx_guider_authenticate:000000000000031a .LVL215
C:\Users\stapi\AppData\Local\Temp\ccJ15vUB.s:2166   .text.iotx_guider_authenticate:0000000000000322 .LVL216
C:\Users\stapi\AppData\Local\Temp\ccJ15vUB.s:2230   .text.iotx_guider_authenticate:0000000000000392 .LVL224
C:\Users\stapi\AppData\Local\Temp\ccJ15vUB.s:2235   .text.iotx_guider_authenticate:00000000000003a2 .LVL225
C:\Users\stapi\AppData\Local\Temp\ccJ15vUB.s:2240   .text.iotx_guider_authenticate:00000000000003b2 .LVL226
C:\Users\stapi\AppData\Local\Temp\ccJ15vUB.s:2247   .text.iotx_guider_authenticate:00000000000003c2 .LVL227
C:\Users\stapi\AppData\Local\Temp\ccJ15vUB.s:2258   .text.iotx_guider_authenticate:00000000000003e2 .LVL228
C:\Users\stapi\AppData\Local\Temp\ccJ15vUB.s:2274   .text.iotx_guider_authenticate:0000000000000402 .LVL231
C:\Users\stapi\AppData\Local\Temp\ccJ15vUB.s:2433   .text.iotx_guider_authenticate:0000000000000524 .LVL253
C:\Users\stapi\AppData\Local\Temp\ccJ15vUB.s:2443   .text.iotx_guider_authenticate:0000000000000532 .LVL256
C:\Users\stapi\AppData\Local\Temp\ccJ15vUB.s:2456   .text.iotx_guider_authenticate:0000000000000552 .LVL257
C:\Users\stapi\AppData\Local\Temp\ccJ15vUB.s:2476   .text.iotx_guider_authenticate:0000000000000564 .LVL260
C:\Users\stapi\AppData\Local\Temp\ccJ15vUB.s:2542   .text.iotx_guider_authenticate:00000000000005e0 .LVL269
C:\Users\stapi\AppData\Local\Temp\ccJ15vUB.s:2559   .text.iotx_guider_authenticate:00000000000005fa .LVL273
C:\Users\stapi\AppData\Local\Temp\ccJ15vUB.s:2564   .text.iotx_guider_authenticate:0000000000000606 .LVL274
C:\Users\stapi\AppData\Local\Temp\ccJ15vUB.s:2575   .text.iotx_guider_authenticate:0000000000000622 .LVL275
C:\Users\stapi\AppData\Local\Temp\ccJ15vUB.s:2591   .text.iotx_guider_authenticate:000000000000063c .LVL278
C:\Users\stapi\AppData\Local\Temp\ccJ15vUB.s:2595   .text.iotx_guider_authenticate:0000000000000646 .LVL279
C:\Users\stapi\AppData\Local\Temp\ccJ15vUB.s:2601   .text.iotx_guider_authenticate:0000000000000650 .LVL280
C:\Users\stapi\AppData\Local\Temp\ccJ15vUB.s:2340   .text.iotx_guider_authenticate:000000000000046e .LBB134
C:\Users\stapi\AppData\Local\Temp\ccJ15vUB.s:13705  .debug_loc:0000000000000c41 .LLST86
C:\Users\stapi\AppData\Local\Temp\ccJ15vUB.s:13724  .debug_loc:0000000000000c70 .LLST87
C:\Users\stapi\AppData\Local\Temp\ccJ15vUB.s:13731  .debug_loc:0000000000000c83 .LLST88
C:\Users\stapi\AppData\Local\Temp\ccJ15vUB.s:13738  .debug_loc:0000000000000c96 .LLST89
C:\Users\stapi\AppData\Local\Temp\ccJ15vUB.s:2355   .text.iotx_guider_authenticate:0000000000000492 .LVL245
C:\Users\stapi\AppData\Local\Temp\ccJ15vUB.s:2372   .text.iotx_guider_authenticate:00000000000004c6 .LVL247
C:\Users\stapi\AppData\Local\Temp\ccJ15vUB.s:2040   .text.iotx_guider_authenticate:000000000000024e .LVL196
C:\Users\stapi\AppData\Local\Temp\ccJ15vUB.s:2048   .text.iotx_guider_authenticate:0000000000000256 .LVL197
C:\Users\stapi\AppData\Local\Temp\ccJ15vUB.s:2077   .text.iotx_guider_authenticate:000000000000027e .LVL201
C:\Users\stapi\AppData\Local\Temp\ccJ15vUB.s:2094   .text.iotx_guider_authenticate:000000000000029e .LVL204
C:\Users\stapi\AppData\Local\Temp\ccJ15vUB.s:2107   .text.iotx_guider_authenticate:00000000000002b4 .LVL206
C:\Users\stapi\AppData\Local\Temp\ccJ15vUB.s:2114   .text.iotx_guider_authenticate:00000000000002c4 .LVL207
C:\Users\stapi\AppData\Local\Temp\ccJ15vUB.s:2310   .text.iotx_guider_authenticate:0000000000000448 .LVL238
C:\Users\stapi\AppData\Local\Temp\ccJ15vUB.s:2317   .text.iotx_guider_authenticate:0000000000000458 .LVL239
C:\Users\stapi\AppData\Local\Temp\ccJ15vUB.s:2338   .text.iotx_guider_authenticate:000000000000046e .LVL243
C:\Users\stapi\AppData\Local\Temp\ccJ15vUB.s:2389   .text.iotx_guider_authenticate:00000000000004ee .LVL248
C:\Users\stapi\AppData\Local\Temp\ccJ15vUB.s:2490   .text.iotx_guider_authenticate:0000000000000578 .LVL261
C:\Users\stapi\AppData\Local\Temp\ccJ15vUB.s:2496   .text.iotx_guider_authenticate:000000000000058a .LVL262
C:\Users\stapi\AppData\Local\Temp\ccJ15vUB.s:2501   .text.iotx_guider_authenticate:0000000000000598 .LVL263
C:\Users\stapi\AppData\Local\Temp\ccJ15vUB.s:2509   .text.iotx_guider_authenticate:00000000000005a6 .LVL264
C:\Users\stapi\AppData\Local\Temp\ccJ15vUB.s:2519   .text.iotx_guider_authenticate:00000000000005b4 .LVL266
C:\Users\stapi\AppData\Local\Temp\ccJ15vUB.s:2527   .text.iotx_guider_authenticate:00000000000005c2 .LVL267
C:\Users\stapi\AppData\Local\Temp\ccJ15vUB.s:2619   .text.iotx_guider_authenticate:0000000000000668 .LVL283
C:\Users\stapi\AppData\Local\Temp\ccJ15vUB.s:2631   .text.iotx_guider_authenticate:000000000000067c .LVL286
C:\Users\stapi\AppData\Local\Temp\ccJ15vUB.s:2636   .text.iotx_guider_authenticate:000000000000068c .LVL287
C:\Users\stapi\AppData\Local\Temp\ccJ15vUB.s:2641   .text.iotx_guider_authenticate:000000000000069a .LVL288
C:\Users\stapi\AppData\Local\Temp\ccJ15vUB.s:2651   .text.iotx_guider_authenticate:00000000000006aa .LVL290
C:\Users\stapi\AppData\Local\Temp\ccJ15vUB.s:2660   .text.iotx_guider_authenticate:00000000000006c4 .LVL291
C:\Users\stapi\AppData\Local\Temp\ccJ15vUB.s:2665   .text.iotx_guider_authenticate:00000000000006ce .LVL292
C:\Users\stapi\AppData\Local\Temp\ccJ15vUB.s:2691   .text.iotx_guider_authenticate:00000000000006f6 .LVL293
C:\Users\stapi\AppData\Local\Temp\ccJ15vUB.s:2697   .text.iotx_guider_authenticate:0000000000000700 .LVL294
C:\Users\stapi\AppData\Local\Temp\ccJ15vUB.s:2702   .text.iotx_guider_authenticate:000000000000070a .LVL295
C:\Users\stapi\AppData\Local\Temp\ccJ15vUB.s:2787   .text.iotx_guider_authenticate:0000000000000780 .LBB149
C:\Users\stapi\AppData\Local\Temp\ccJ15vUB.s:13751  .debug_loc:0000000000000cb6 .LLST90
C:\Users\stapi\AppData\Local\Temp\ccJ15vUB.s:13769  .debug_loc:0000000000000ce2 .LLST91
C:\Users\stapi\AppData\Local\Temp\ccJ15vUB.s:13792  .debug_loc:0000000000000d21 .LLST92
C:\Users\stapi\AppData\Local\Temp\ccJ15vUB.s:13810  .debug_loc:0000000000000d4d .LLST93
C:\Users\stapi\AppData\Local\Temp\ccJ15vUB.s:13825  .debug_loc:0000000000000d76 .LLST94
C:\Users\stapi\AppData\Local\Temp\ccJ15vUB.s:13840  .debug_loc:0000000000000d9f .LLST95
C:\Users\stapi\AppData\Local\Temp\ccJ15vUB.s:13855  .debug_loc:0000000000000dc8 .LLST96
C:\Users\stapi\AppData\Local\Temp\ccJ15vUB.s:13870  .debug_loc:0000000000000df1 .LLST97
C:\Users\stapi\AppData\Local\Temp\ccJ15vUB.s:13885  .debug_loc:0000000000000e1a .LLST98
C:\Users\stapi\AppData\Local\Temp\ccJ15vUB.s:13926  .debug_loc:0000000000000e79 .LLST99
C:\Users\stapi\AppData\Local\Temp\ccJ15vUB.s:13960  .debug_loc:0000000000000eca .LLST100
C:\Users\stapi\AppData\Local\Temp\ccJ15vUB.s:13999  .debug_loc:0000000000000f32 .LLST101
C:\Users\stapi\AppData\Local\Temp\ccJ15vUB.s:3141   .text.iotx_guider_authenticate:00000000000009d6 .LDL1
C:\Users\stapi\AppData\Local\Temp\ccJ15vUB.s:2789   .text.iotx_guider_authenticate:0000000000000780 .LBB151
C:\Users\stapi\AppData\Local\Temp\ccJ15vUB.s:14022  .debug_loc:0000000000000f71 .LLST102
C:\Users\stapi\AppData\Local\Temp\ccJ15vUB.s:14041  .debug_loc:0000000000000fa5 .LLST103
C:\Users\stapi\AppData\Local\Temp\ccJ15vUB.s:14056  .debug_loc:0000000000000fce .LLST104
C:\Users\stapi\AppData\Local\Temp\ccJ15vUB.s:14071  .debug_loc:0000000000000ff7 .LLST105
C:\Users\stapi\AppData\Local\Temp\ccJ15vUB.s:14090  .debug_loc:000000000000102b .LLST106
C:\Users\stapi\AppData\Local\Temp\ccJ15vUB.s:14111  .debug_loc:0000000000001061 .LLST107
C:\Users\stapi\AppData\Local\Temp\ccJ15vUB.s:14154  .debug_loc:00000000000010d0 .LLST108
C:\Users\stapi\AppData\Local\Temp\ccJ15vUB.s:14180  .debug_loc:0000000000001112 .LLST109
C:\Users\stapi\AppData\Local\Temp\ccJ15vUB.s:3315   .text.iotx_guider_authenticate:0000000000000aaa .LBB153
C:\Users\stapi\AppData\Local\Temp\ccJ15vUB.s:3321   .text.iotx_guider_authenticate:0000000000000aae .LBE153
C:\Users\stapi\AppData\Local\Temp\ccJ15vUB.s:2823   .text.iotx_guider_authenticate:00000000000007ac .LVL309
C:\Users\stapi\AppData\Local\Temp\ccJ15vUB.s:2833   .text.iotx_guider_authenticate:00000000000007be .LVL311
C:\Users\stapi\AppData\Local\Temp\ccJ15vUB.s:2844   .text.iotx_guider_authenticate:00000000000007d2 .LVL312
C:\Users\stapi\AppData\Local\Temp\ccJ15vUB.s:2855   .text.iotx_guider_authenticate:00000000000007e0 .LVL315
C:\Users\stapi\AppData\Local\Temp\ccJ15vUB.s:2879   .text.iotx_guider_authenticate:0000000000000806 .LVL317
C:\Users\stapi\AppData\Local\Temp\ccJ15vUB.s:2899   .text.iotx_guider_authenticate:000000000000081e .LVL322
C:\Users\stapi\AppData\Local\Temp\ccJ15vUB.s:2929   .text.iotx_guider_authenticate:0000000000000838 .LVL324
C:\Users\stapi\AppData\Local\Temp\ccJ15vUB.s:2931   .text.iotx_guider_authenticate:0000000000000840 .LVL325
C:\Users\stapi\AppData\Local\Temp\ccJ15vUB.s:2941   .text.iotx_guider_authenticate:0000000000000852 .LVL327
C:\Users\stapi\AppData\Local\Temp\ccJ15vUB.s:2952   .text.iotx_guider_authenticate:0000000000000862 .LVL328
C:\Users\stapi\AppData\Local\Temp\ccJ15vUB.s:2964   .text.iotx_guider_authenticate:0000000000000878 .LVL330
C:\Users\stapi\AppData\Local\Temp\ccJ15vUB.s:2969   .text.iotx_guider_authenticate:0000000000000884 .LVL331
C:\Users\stapi\AppData\Local\Temp\ccJ15vUB.s:2971   .text.iotx_guider_authenticate:000000000000088c .LVL332
C:\Users\stapi\AppData\Local\Temp\ccJ15vUB.s:2982   .text.iotx_guider_authenticate:000000000000089e .LVL334
C:\Users\stapi\AppData\Local\Temp\ccJ15vUB.s:2994   .text.iotx_guider_authenticate:00000000000008ae .LVL336
C:\Users\stapi\AppData\Local\Temp\ccJ15vUB.s:3002   .text.iotx_guider_authenticate:00000000000008c6 .LVL337
C:\Users\stapi\AppData\Local\Temp\ccJ15vUB.s:3335   .text.iotx_guider_authenticate:0000000000000acc .LVL377
C:\Users\stapi\AppData\Local\Temp\ccJ15vUB.s:3346   .text.iotx_guider_authenticate:0000000000000ae6 .LVL378
C:\Users\stapi\AppData\Local\Temp\ccJ15vUB.s:3040   .text.iotx_guider_authenticate:00000000000008fe .LBB160
C:\Users\stapi\AppData\Local\Temp\ccJ15vUB.s:14202  .debug_loc:0000000000001149 .LLST110
C:\Users\stapi\AppData\Local\Temp\ccJ15vUB.s:14217  .debug_loc:000000000000116b .LLST111
C:\Users\stapi\AppData\Local\Temp\ccJ15vUB.s:14230  .debug_loc:000000000000118b .LLST112
C:\Users\stapi\AppData\Local\Temp\ccJ15vUB.s:14241  .debug_loc:00000000000011a9 .LLST113
C:\Users\stapi\AppData\Local\Temp\ccJ15vUB.s:14266  .debug_loc:00000000000011e6 .LLST114
C:\Users\stapi\AppData\Local\Temp\ccJ15vUB.s:14277  .debug_loc:0000000000001204 .LLST115
C:\Users\stapi\AppData\Local\Temp\ccJ15vUB.s:14296  .debug_loc:0000000000001231 .LLST116
C:\Users\stapi\AppData\Local\Temp\ccJ15vUB.s:3046   .text.iotx_guider_authenticate:000000000000090c .LVL344
C:\Users\stapi\AppData\Local\Temp\ccJ15vUB.s:3060   .text.iotx_guider_authenticate:000000000000092e .LVL346
C:\Users\stapi\AppData\Local\Temp\ccJ15vUB.s:3077   .text.iotx_guider_authenticate:0000000000000962 .LVL348
C:\Users\stapi\AppData\Local\Temp\ccJ15vUB.s:3084   .text.iotx_guider_authenticate:000000000000096c .LVL349
C:\Users\stapi\AppData\Local\Temp\ccJ15vUB.s:3093   .text.iotx_guider_authenticate:000000000000097e .LVL350
C:\Users\stapi\AppData\Local\Temp\ccJ15vUB.s:3103   .text.iotx_guider_authenticate:0000000000000990 .LVL351
C:\Users\stapi\AppData\Local\Temp\ccJ15vUB.s:3108   .text.iotx_guider_authenticate:000000000000099a .LVL352
C:\Users\stapi\AppData\Local\Temp\ccJ15vUB.s:3362   .text.iotx_guider_authenticate:0000000000000af6 .LVL379
C:\Users\stapi\AppData\Local\Temp\ccJ15vUB.s:3392   .text.iotx_guider_authenticate:0000000000000b10 .LVL382
C:\Users\stapi\AppData\Local\Temp\ccJ15vUB.s:3397   .text.iotx_guider_authenticate:0000000000000b20 .LVL383
C:\Users\stapi\AppData\Local\Temp\ccJ15vUB.s:3402   .text.iotx_guider_authenticate:0000000000000b30 .LVL384
C:\Users\stapi\AppData\Local\Temp\ccJ15vUB.s:3272   .text.iotx_guider_authenticate:0000000000000a88 .LBB164
C:\Users\stapi\AppData\Local\Temp\ccJ15vUB.s:14320  .debug_loc:0000000000001271 .LLST117
C:\Users\stapi\AppData\Local\Temp\ccJ15vUB.s:14328  .debug_loc:0000000000001285 .LLST118
C:\Users\stapi\AppData\Local\Temp\ccJ15vUB.s:3303   .text.iotx_guider_authenticate:0000000000000aaa .LVL376
C:\Users\stapi\AppData\Local\Temp\ccJ15vUB.s:3542   .text.iotx_guider_authenticate:0000000000000c4e .LBB173
C:\Users\stapi\AppData\Local\Temp\ccJ15vUB.s:14341  .debug_loc:00000000000012a6 .LLST119
C:\Users\stapi\AppData\Local\Temp\ccJ15vUB.s:3550   .text.iotx_guider_authenticate:0000000000000c56 .LVL400
C:\Users\stapi\AppData\Local\Temp\ccJ15vUB.s:3558   .text.iotx_guider_authenticate:0000000000000c70 .LVL401
C:\Users\stapi\AppData\Local\Temp\ccJ15vUB.s:3566   .text.iotx_guider_authenticate:0000000000000c8c .LVL402
C:\Users\stapi\AppData\Local\Temp\ccJ15vUB.s:3573   .text.iotx_guider_authenticate:0000000000000ca2 .LVL403
C:\Users\stapi\AppData\Local\Temp\ccJ15vUB.s:3583   .text.iotx_guider_authenticate:0000000000000cb4 .LVL404
C:\Users\stapi\AppData\Local\Temp\ccJ15vUB.s:3600   .text.iotx_guider_authenticate:0000000000000cdc .LVL407
C:\Users\stapi\AppData\Local\Temp\ccJ15vUB.s:3604   .text.iotx_guider_authenticate:0000000000000ce4 .LVL408
C:\Users\stapi\AppData\Local\Temp\ccJ15vUB.s:3014   .text.iotx_guider_authenticate:00000000000008d8 .LVL339
C:\Users\stapi\AppData\Local\Temp\ccJ15vUB.s:3019   .text.iotx_guider_authenticate:00000000000008e8 .LVL340
C:\Users\stapi\AppData\Local\Temp\ccJ15vUB.s:3024   .text.iotx_guider_authenticate:00000000000008f8 .LVL341
C:\Users\stapi\AppData\Local\Temp\ccJ15vUB.s:3122   .text.iotx_guider_authenticate:00000000000009b2 .LVL354
C:\Users\stapi\AppData\Local\Temp\ccJ15vUB.s:3137   .text.iotx_guider_authenticate:00000000000009d4 .LVL355
C:\Users\stapi\AppData\Local\Temp\ccJ15vUB.s:3149   .text.iotx_guider_authenticate:00000000000009e2 .LVL357
C:\Users\stapi\AppData\Local\Temp\ccJ15vUB.s:3158   .text.iotx_guider_authenticate:00000000000009ee .LVL358
C:\Users\stapi\AppData\Local\Temp\ccJ15vUB.s:3169   .text.iotx_guider_authenticate:00000000000009fc .LVL359
C:\Users\stapi\AppData\Local\Temp\ccJ15vUB.s:3258   .text.iotx_guider_authenticate:0000000000000a6e .LVL370
C:\Users\stapi\AppData\Local\Temp\ccJ15vUB.s:3267   .text.iotx_guider_authenticate:0000000000000a80 .LVL371
C:\Users\stapi\AppData\Local\Temp\ccJ15vUB.s:3271   .text.iotx_guider_authenticate:0000000000000a88 .LVL372
C:\Users\stapi\AppData\Local\Temp\ccJ15vUB.s:3416   .text.iotx_guider_authenticate:0000000000000b44 .LVL385
C:\Users\stapi\AppData\Local\Temp\ccJ15vUB.s:3421   .text.iotx_guider_authenticate:0000000000000b4e .LVL386
C:\Users\stapi\AppData\Local\Temp\ccJ15vUB.s:3426   .text.iotx_guider_authenticate:0000000000000b5a .LVL387
C:\Users\stapi\AppData\Local\Temp\ccJ15vUB.s:3438   .text.iotx_guider_authenticate:0000000000000b6c .LVL389
C:\Users\stapi\AppData\Local\Temp\ccJ15vUB.s:3451   .text.iotx_guider_authenticate:0000000000000b88 .LVL390
C:\Users\stapi\AppData\Local\Temp\ccJ15vUB.s:3459   .text.iotx_guider_authenticate:0000000000000b98 .LVL391
C:\Users\stapi\AppData\Local\Temp\ccJ15vUB.s:3470   .text.iotx_guider_authenticate:0000000000000bb0 .LVL392
C:\Users\stapi\AppData\Local\Temp\ccJ15vUB.s:3474   .text.iotx_guider_authenticate:0000000000000bb8 .LVL393
C:\Users\stapi\AppData\Local\Temp\ccJ15vUB.s:3483   .text.iotx_guider_authenticate:0000000000000bca .LVL394
C:\Users\stapi\AppData\Local\Temp\ccJ15vUB.s:3494   .text.iotx_guider_authenticate:0000000000000bda .LVL396
C:\Users\stapi\AppData\Local\Temp\ccJ15vUB.s:3500   .text.iotx_guider_authenticate:0000000000000bea .LVL397
C:\Users\stapi\AppData\Local\Temp\ccJ15vUB.s:3520   .text.iotx_guider_authenticate:0000000000000c14 .LVL398
C:\Users\stapi\AppData\Local\Temp\ccJ15vUB.s:3540   .text.iotx_guider_authenticate:0000000000000c4e .LVL399
C:\Users\stapi\AppData\Local\Temp\ccJ15vUB.s:1721   .text.iotx_guider_authenticate:000000000000003e .LVL158
C:\Users\stapi\AppData\Local\Temp\ccJ15vUB.s:1733   .text.iotx_guider_authenticate:0000000000000054 .LVL159
C:\Users\stapi\AppData\Local\Temp\ccJ15vUB.s:1738   .text.iotx_guider_authenticate:0000000000000064 .LVL160
C:\Users\stapi\AppData\Local\Temp\ccJ15vUB.s:1743   .text.iotx_guider_authenticate:0000000000000074 .LVL161
C:\Users\stapi\AppData\Local\Temp\ccJ15vUB.s:1780   .text.iotx_guider_authenticate:0000000000000092 .LVL165
C:\Users\stapi\AppData\Local\Temp\ccJ15vUB.s:1790   .text.iotx_guider_authenticate:00000000000000a2 .LVL167
C:\Users\stapi\AppData\Local\Temp\ccJ15vUB.s:1797   .text.iotx_guider_authenticate:00000000000000b2 .LVL168
C:\Users\stapi\AppData\Local\Temp\ccJ15vUB.s:1805   .text.iotx_guider_authenticate:00000000000000c0 .LVL170
C:\Users\stapi\AppData\Local\Temp\ccJ15vUB.s:1812   .text.iotx_guider_authenticate:00000000000000d0 .LVL171
C:\Users\stapi\AppData\Local\Temp\ccJ15vUB.s:1822   .text.iotx_guider_authenticate:00000000000000e4 .LVL173
C:\Users\stapi\AppData\Local\Temp\ccJ15vUB.s:1827   .text.iotx_guider_authenticate:00000000000000ee .LVL174
C:\Users\stapi\AppData\Local\Temp\ccJ15vUB.s:1838   .text.iotx_guider_authenticate:0000000000000102 .LVL176
C:\Users\stapi\AppData\Local\Temp\ccJ15vUB.s:1848   .text.iotx_guider_authenticate:0000000000000116 .LVL178
C:\Users\stapi\AppData\Local\Temp\ccJ15vUB.s:1855   .text.iotx_guider_authenticate:0000000000000126 .LVL179
C:\Users\stapi\AppData\Local\Temp\ccJ15vUB.s:1865   .text.iotx_guider_authenticate:000000000000013a .LVL181
C:\Users\stapi\AppData\Local\Temp\ccJ15vUB.s:1905   .text.iotx_guider_authenticate:000000000000017a .LVL185
C:\Users\stapi\AppData\Local\Temp\ccJ15vUB.s:1926   .text.iotx_guider_authenticate:00000000000001a8 .LVL186
C:\Users\stapi\AppData\Local\Temp\ccJ15vUB.s:1933   .text.iotx_guider_authenticate:00000000000001be .LVL187
C:\Users\stapi\AppData\Local\Temp\ccJ15vUB.s:1937   .text.iotx_guider_authenticate:00000000000001ca .LVL188
C:\Users\stapi\AppData\Local\Temp\ccJ15vUB.s:1963   .text.iotx_guider_authenticate:00000000000001f6 .LVL189
C:\Users\stapi\AppData\Local\Temp\ccJ15vUB.s:1971   .text.iotx_guider_authenticate:0000000000000208 .LVL190
C:\Users\stapi\AppData\Local\Temp\ccJ15vUB.s:2013   .text.iotx_guider_authenticate:0000000000000236 .LVL193
C:\Users\stapi\AppData\Local\Temp\ccJ15vUB.s:2288   .text.iotx_guider_authenticate:0000000000000414 .LVL233
C:\Users\stapi\AppData\Local\Temp\ccJ15vUB.s:2293   .text.iotx_guider_authenticate:0000000000000424 .LVL234
C:\Users\stapi\AppData\Local\Temp\ccJ15vUB.s:2297   .text.iotx_guider_authenticate:0000000000000430 .LVL235
C:\Users\stapi\AppData\Local\Temp\ccJ15vUB.s:2721   .text.iotx_guider_authenticate:0000000000000722 .LVL298
C:\Users\stapi\AppData\Local\Temp\ccJ15vUB.s:2728   .text.iotx_guider_authenticate:0000000000000730 .LVL299
C:\Users\stapi\AppData\Local\Temp\ccJ15vUB.s:2736   .text.iotx_guider_authenticate:000000000000073c .LVL300
C:\Users\stapi\AppData\Local\Temp\ccJ15vUB.s:2744   .text.iotx_guider_authenticate:000000000000074a .LVL301
C:\Users\stapi\AppData\Local\Temp\ccJ15vUB.s:2752   .text.iotx_guider_authenticate:0000000000000758 .LVL302
C:\Users\stapi\AppData\Local\Temp\ccJ15vUB.s:2760   .text.iotx_guider_authenticate:0000000000000766 .LVL303
C:\Users\stapi\AppData\Local\Temp\ccJ15vUB.s:2773   .text.iotx_guider_authenticate:0000000000000778 .LVL304
C:\Users\stapi\AppData\Local\Temp\ccJ15vUB.s:3184   .text.iotx_guider_authenticate:0000000000000a14 .LVL361
C:\Users\stapi\AppData\Local\Temp\ccJ15vUB.s:3189   .text.iotx_guider_authenticate:0000000000000a24 .LVL362
C:\Users\stapi\AppData\Local\Temp\ccJ15vUB.s:3194   .text.iotx_guider_authenticate:0000000000000a34 .LVL363
C:\Users\stapi\AppData\Local\Temp\ccJ15vUB.s:15919  .debug_str:0000000000002106 .LASF394
C:\Users\stapi\AppData\Local\Temp\ccJ15vUB.s:15505  .debug_str:0000000000000f76 .LASF382
C:\Users\stapi\AppData\Local\Temp\ccJ15vUB.s:15887  .debug_str:0000000000001ff4 .LASF384
C:\Users\stapi\AppData\Local\Temp\ccJ15vUB.s:15469  .debug_str:0000000000000e20 .LASF385
C:\Users\stapi\AppData\Local\Temp\ccJ15vUB.s:15681  .debug_str:0000000000001733 .LASF386
C:\Users\stapi\AppData\Local\Temp\ccJ15vUB.s:15499  .debug_str:0000000000000f42 .LASF387
C:\Users\stapi\AppData\Local\Temp\ccJ15vUB.s:15757  .debug_str:00000000000019e3 .LASF388
C:\Users\stapi\AppData\Local\Temp\ccJ15vUB.s:15313  .debug_str:00000000000007f2 .LASF389
C:\Users\stapi\AppData\Local\Temp\ccJ15vUB.s:15955  .debug_str:0000000000002274 .LASF390
C:\Users\stapi\AppData\Local\Temp\ccJ15vUB.s:15783  .debug_str:0000000000001ae2 .LASF393
C:\Users\stapi\AppData\Local\Temp\ccJ15vUB.s:15437  .debug_str:0000000000000d04 .LASF395
C:\Users\stapi\AppData\Local\Temp\ccJ15vUB.s:15177  .debug_str:0000000000000146 .LASF396
C:\Users\stapi\AppData\Local\Temp\ccJ15vUB.s:16133  .debug_str:0000000000002972 .LASF397
C:\Users\stapi\AppData\Local\Temp\ccJ15vUB.s:15833  .debug_str:0000000000001d92 .LASF398
C:\Users\stapi\AppData\Local\Temp\ccJ15vUB.s:15475  .debug_str:0000000000000e4d .LASF399
C:\Users\stapi\AppData\Local\Temp\ccJ15vUB.s:15735  .debug_str:000000000000191e .LASF400
C:\Users\stapi\AppData\Local\Temp\ccJ15vUB.s:15915  .debug_str:00000000000020e7 .LASF401
C:\Users\stapi\AppData\Local\Temp\ccJ15vUB.s:15167  .debug_str:00000000000000ac .LASF402
C:\Users\stapi\AppData\Local\Temp\ccJ15vUB.s:16021  .debug_str:00000000000024d6 .LASF403
C:\Users\stapi\AppData\Local\Temp\ccJ15vUB.s:15219  .debug_str:00000000000003cb .LASF404
C:\Users\stapi\AppData\Local\Temp\ccJ15vUB.s:16149  .debug_str:0000000000002a24 .LASF405
C:\Users\stapi\AppData\Local\Temp\ccJ15vUB.s:16141  .debug_str:00000000000029b8 .LASF406
C:\Users\stapi\AppData\Local\Temp\ccJ15vUB.s:15745  .debug_str:0000000000001972 .LASF407
C:\Users\stapi\AppData\Local\Temp\ccJ15vUB.s:15329  .debug_str:0000000000000898 .LASF408
C:\Users\stapi\AppData\Local\Temp\ccJ15vUB.s:16049  .debug_str:00000000000025ff .LASF409
C:\Users\stapi\AppData\Local\Temp\ccJ15vUB.s:15967  .debug_str:00000000000022e5 .LASF410
C:\Users\stapi\AppData\Local\Temp\ccJ15vUB.s:16131  .debug_str:000000000000296c .LASF411
C:\Users\stapi\AppData\Local\Temp\ccJ15vUB.s:15529  .debug_str:000000000000108e .LASF412
C:\Users\stapi\AppData\Local\Temp\ccJ15vUB.s:15933  .debug_str:0000000000002194 .LASF413
C:\Users\stapi\AppData\Local\Temp\ccJ15vUB.s:15995  .debug_str:00000000000023db .LASF414
C:\Users\stapi\AppData\Local\Temp\ccJ15vUB.s:15449  .debug_str:0000000000000d49 .LASF415
C:\Users\stapi\AppData\Local\Temp\ccJ15vUB.s:15503  .debug_str:0000000000000f6f .LASF416
C:\Users\stapi\AppData\Local\Temp\ccJ15vUB.s:15765  .debug_str:0000000000001a22 .LASF417
C:\Users\stapi\AppData\Local\Temp\ccJ15vUB.s:15351  .debug_str:0000000000000973 .LASF418
C:\Users\stapi\AppData\Local\Temp\ccJ15vUB.s:15349  .debug_str:000000000000095c .LASF419
C:\Users\stapi\AppData\Local\Temp\ccJ15vUB.s:15845  .debug_str:0000000000001df5 .LASF420
C:\Users\stapi\AppData\Local\Temp\ccJ15vUB.s:15863  .debug_str:0000000000001eec .LASF421
C:\Users\stapi\AppData\Local\Temp\ccJ15vUB.s:15797  .debug_str:0000000000001bf9 .LASF422
C:\Users\stapi\AppData\Local\Temp\ccJ15vUB.s:15897  .debug_str:0000000000002041 .LASF423
C:\Users\stapi\AppData\Local\Temp\ccJ15vUB.s:15961  .debug_str:00000000000022a3 .LASF424
C:\Users\stapi\AppData\Local\Temp\ccJ15vUB.s:15703  .debug_str:0000000000001802 .LASF425
C:\Users\stapi\AppData\Local\Temp\ccJ15vUB.s:15895  .debug_str:0000000000002036 .LASF426
C:\Users\stapi\AppData\Local\Temp\ccJ15vUB.s:15559  .debug_str:00000000000011ef .LASF427
C:\Users\stapi\AppData\Local\Temp\ccJ15vUB.s:15941  .debug_str:00000000000021ce .LASF428
C:\Users\stapi\AppData\Local\Temp\ccJ15vUB.s:16013  .debug_str:000000000000249f .LASF429
C:\Users\stapi\AppData\Local\Temp\ccJ15vUB.s:16127  .debug_str:000000000000294b .LASF507
C:\Users\stapi\AppData\Local\Temp\ccJ15vUB.s:15175  .debug_str:0000000000000129 .LASF431
C:\Users\stapi\AppData\Local\Temp\ccJ15vUB.s:1443   .text.iotx_guider_fill_conn_string:0000000000000000 .LFB36
C:\Users\stapi\AppData\Local\Temp\ccJ15vUB.s:1526   .text.iotx_guider_fill_conn_string:0000000000000076 .LFE36
C:\Users\stapi\AppData\Local\Temp\ccJ15vUB.s:14359  .debug_loc:00000000000012d2 .LLST31
C:\Users\stapi\AppData\Local\Temp\ccJ15vUB.s:14377  .debug_loc:00000000000012fe .LLST32
C:\Users\stapi\AppData\Local\Temp\ccJ15vUB.s:14395  .debug_loc:000000000000132a .LLST33
C:\Users\stapi\AppData\Local\Temp\ccJ15vUB.s:14409  .debug_loc:000000000000134b .LLST34
C:\Users\stapi\AppData\Local\Temp\ccJ15vUB.s:14422  .debug_loc:000000000000136b .LLST35
C:\Users\stapi\AppData\Local\Temp\ccJ15vUB.s:1476   .text.iotx_guider_fill_conn_string:0000000000000022 .LVL146
C:\Users\stapi\AppData\Local\Temp\ccJ15vUB.s:1493   .text.iotx_guider_fill_conn_string:0000000000000052 .LVL148
C:\Users\stapi\AppData\Local\Temp\ccJ15vUB.s:1502   .text.iotx_guider_fill_conn_string:0000000000000064 .LVL149
C:\Users\stapi\AppData\Local\Temp\ccJ15vUB.s:15821  .debug_str:0000000000001d1d .LASF432
C:\Users\stapi\AppData\Local\Temp\ccJ15vUB.s:15747  .debug_str:0000000000001987 .LASF433
C:\Users\stapi\AppData\Local\Temp\ccJ15vUB.s:15299  .debug_str:0000000000000763 .LASF434
C:\Users\stapi\AppData\Local\Temp\ccJ15vUB.s:15497  .debug_str:0000000000000f37 .LASF435
C:\Users\stapi\AppData\Local\Temp\ccJ15vUB.s:15789  .debug_str:0000000000001b15 .LASF436
C:\Users\stapi\AppData\Local\Temp\ccJ15vUB.s:15507  .debug_str:0000000000000f7b .LASF437
C:\Users\stapi\AppData\Local\Temp\ccJ15vUB.s:15677  .debug_str:0000000000001713 .LASF438
C:\Users\stapi\AppData\Local\Temp\ccJ15vUB.s:16035  .debug_str:0000000000002570 .LASF439
C:\Users\stapi\AppData\Local\Temp\ccJ15vUB.s:15601  .debug_str:00000000000013b4 .LASF440
C:\Users\stapi\AppData\Local\Temp\ccJ15vUB.s:15881  .debug_str:0000000000001fbe .LASF441
C:\Users\stapi\AppData\Local\Temp\ccJ15vUB.s:15875  .debug_str:0000000000001f7b .LASF442
C:\Users\stapi\AppData\Local\Temp\ccJ15vUB.s:1350   .text.iotx_guider_set_custom_domain:0000000000000000 .LFB33
C:\Users\stapi\AppData\Local\Temp\ccJ15vUB.s:1423   .text.iotx_guider_set_custom_domain:0000000000000066 .LFE33
C:\Users\stapi\AppData\Local\Temp\ccJ15vUB.s:14434  .debug_loc:000000000000138a .LLST28
C:\Users\stapi\AppData\Local\Temp\ccJ15vUB.s:15331  .debug_str:00000000000008a4 .LASF443
C:\Users\stapi\AppData\Local\Temp\ccJ15vUB.s:14456  .debug_loc:00000000000013c1 .LLST29
C:\Users\stapi\AppData\Local\Temp\ccJ15vUB.s:14471  .debug_loc:00000000000013ea .LLST30
C:\Users\stapi\AppData\Local\Temp\ccJ15vUB.s:1376   .text.iotx_guider_set_custom_domain:0000000000000020 .LVL138
C:\Users\stapi\AppData\Local\Temp\ccJ15vUB.s:1397   .text.iotx_guider_set_custom_domain:000000000000004c .LVL140
C:\Users\stapi\AppData\Local\Temp\ccJ15vUB.s:1402   .text.iotx_guider_set_custom_domain:0000000000000058 .LVL141
C:\Users\stapi\AppData\Local\Temp\ccJ15vUB.s:15463  .debug_str:0000000000000dde .LASF508
C:\Users\stapi\AppData\Local\Temp\ccJ15vUB.s:15775  .debug_str:0000000000001a83 .LASF444
C:\Users\stapi\AppData\Local\Temp\ccJ15vUB.s:662    .text.iotx_guider_clear_dynamic_url:0000000000000000 .LFB31
C:\Users\stapi\AppData\Local\Temp\ccJ15vUB.s:708    .text.iotx_guider_clear_dynamic_url:000000000000005e .LFE31
C:\Users\stapi\AppData\Local\Temp\ccJ15vUB.s:14478  .debug_loc:00000000000013fd .LLST12
C:\Users\stapi\AppData\Local\Temp\ccJ15vUB.s:676    .text.iotx_guider_clear_dynamic_url:0000000000000018 .LVL52
C:\Users\stapi\AppData\Local\Temp\ccJ15vUB.s:684    .text.iotx_guider_clear_dynamic_url:000000000000002a .LVL54
C:\Users\stapi\AppData\Local\Temp\ccJ15vUB.s:699    .text.iotx_guider_clear_dynamic_url:0000000000000054 .LVL56
C:\Users\stapi\AppData\Local\Temp\ccJ15vUB.s:15257  .debug_str:000000000000057a .LASF445
C:\Users\stapi\AppData\Local\Temp\ccJ15vUB.s:746    .text.iotx_guider_set_dynamic_region:0000000000000000 .LFB30
C:\Users\stapi\AppData\Local\Temp\ccJ15vUB.s:1152   .text.iotx_guider_set_dynamic_region:000000000000028a .LFE30
C:\Users\stapi\AppData\Local\Temp\ccJ15vUB.s:15921  .debug_str:000000000000211b .LASF446
C:\Users\stapi\AppData\Local\Temp\ccJ15vUB.s:14490  .debug_loc:000000000000141c .LLST13
C:\Users\stapi\AppData\Local\Temp\ccJ15vUB.s:14519  .debug_loc:0000000000001461 .LLST14
C:\Users\stapi\AppData\Local\Temp\ccJ15vUB.s:14559  .debug_loc:00000000000014c6 .LLST15
C:\Users\stapi\AppData\Local\Temp\ccJ15vUB.s:1089   .text.iotx_guider_set_dynamic_region:0000000000000216 .LBB56
C:\Users\stapi\AppData\Local\Temp\ccJ15vUB.s:1119   .text.iotx_guider_set_dynamic_region:000000000000024a .LBE56
C:\Users\stapi\AppData\Local\Temp\ccJ15vUB.s:14581  .debug_loc:00000000000014fd .LLST24
C:\Users\stapi\AppData\Local\Temp\ccJ15vUB.s:1103   .text.iotx_guider_set_dynamic_region:0000000000000236 .LVL111
C:\Users\stapi\AppData\Local\Temp\ccJ15vUB.s:874    .text.iotx_guider_set_dynamic_region:00000000000000c4 .LBB46
C:\Users\stapi\AppData\Local\Temp\ccJ15vUB.s:14594  .debug_loc:000000000000151d .LLST16
C:\Users\stapi\AppData\Local\Temp\ccJ15vUB.s:14605  .debug_loc:000000000000153b .LLST17
C:\Users\stapi\AppData\Local\Temp\ccJ15vUB.s:883    .text.iotx_guider_set_dynamic_region:00000000000000ca .LBB48
C:\Users\stapi\AppData\Local\Temp\ccJ15vUB.s:14626  .debug_loc:0000000000001571 .LLST18
C:\Users\stapi\AppData\Local\Temp\ccJ15vUB.s:14651  .debug_loc:00000000000015ab .LLST19
C:\Users\stapi\AppData\Local\Temp\ccJ15vUB.s:14670  .debug_loc:00000000000015df .LLST20
C:\Users\stapi\AppData\Local\Temp\ccJ15vUB.s:14677  .debug_loc:00000000000015f2 .LLST21
C:\Users\stapi\AppData\Local\Temp\ccJ15vUB.s:14690  .debug_loc:0000000000001612 .LLST22
C:\Users\stapi\AppData\Local\Temp\ccJ15vUB.s:14716  .debug_loc:0000000000001654 .LLST23
C:\Users\stapi\AppData\Local\Temp\ccJ15vUB.s:1010   .text.iotx_guider_set_dynamic_region:000000000000019a .LVL98
C:\Users\stapi\AppData\Local\Temp\ccJ15vUB.s:910    .text.iotx_guider_set_dynamic_region:00000000000000ea .LVL77
C:\Users\stapi\AppData\Local\Temp\ccJ15vUB.s:918    .text.iotx_guider_set_dynamic_region:00000000000000f8 .LVL80
C:\Users\stapi\AppData\Local\Temp\ccJ15vUB.s:925    .text.iotx_guider_set_dynamic_region:000000000000010c .LVL81
C:\Users\stapi\AppData\Local\Temp\ccJ15vUB.s:929    .text.iotx_guider_set_dynamic_region:0000000000000118 .LVL82
C:\Users\stapi\AppData\Local\Temp\ccJ15vUB.s:1077   .text.iotx_guider_set_dynamic_region:0000000000000206 .LBB54
C:\Users\stapi\AppData\Local\Temp\ccJ15vUB.s:1081   .text.iotx_guider_set_dynamic_region:0000000000000206 .LBE54
C:\Users\stapi\AppData\Local\Temp\ccJ15vUB.s:781    .text.iotx_guider_set_dynamic_region:0000000000000026 .LVL60
C:\Users\stapi\AppData\Local\Temp\ccJ15vUB.s:786    .text.iotx_guider_set_dynamic_region:0000000000000036 .LVL61
C:\Users\stapi\AppData\Local\Temp\ccJ15vUB.s:790    .text.iotx_guider_set_dynamic_region:0000000000000042 .LVL62
C:\Users\stapi\AppData\Local\Temp\ccJ15vUB.s:794    .text.iotx_guider_set_dynamic_region:000000000000004a .LVL63
C:\Users\stapi\AppData\Local\Temp\ccJ15vUB.s:836    .text.iotx_guider_set_dynamic_region:0000000000000074 .LVL67
C:\Users\stapi\AppData\Local\Temp\ccJ15vUB.s:842    .text.iotx_guider_set_dynamic_region:0000000000000086 .LVL68
C:\Users\stapi\AppData\Local\Temp\ccJ15vUB.s:848    .text.iotx_guider_set_dynamic_region:0000000000000092 .LVL69
C:\Users\stapi\AppData\Local\Temp\ccJ15vUB.s:861    .text.iotx_guider_set_dynamic_region:00000000000000a6 .LVL71
C:\Users\stapi\AppData\Local\Temp\ccJ15vUB.s:867    .text.iotx_guider_set_dynamic_region:00000000000000b8 .LVL72
C:\Users\stapi\AppData\Local\Temp\ccJ15vUB.s:871    .text.iotx_guider_set_dynamic_region:00000000000000c4 .LVL73
C:\Users\stapi\AppData\Local\Temp\ccJ15vUB.s:943    .text.iotx_guider_set_dynamic_region:000000000000012e .LVL83
C:\Users\stapi\AppData\Local\Temp\ccJ15vUB.s:952    .text.iotx_guider_set_dynamic_region:0000000000000140 .LVL86
C:\Users\stapi\AppData\Local\Temp\ccJ15vUB.s:958    .text.iotx_guider_set_dynamic_region:0000000000000152 .LVL87
C:\Users\stapi\AppData\Local\Temp\ccJ15vUB.s:962    .text.iotx_guider_set_dynamic_region:000000000000015e .LVL88
C:\Users\stapi\AppData\Local\Temp\ccJ15vUB.s:1044   .text.iotx_guider_set_dynamic_region:00000000000001be .LVL102
C:\Users\stapi\AppData\Local\Temp\ccJ15vUB.s:1055   .text.iotx_guider_set_dynamic_region:00000000000001d2 .LVL104
C:\Users\stapi\AppData\Local\Temp\ccJ15vUB.s:1060   .text.iotx_guider_set_dynamic_region:00000000000001e2 .LVL105
C:\Users\stapi\AppData\Local\Temp\ccJ15vUB.s:1065   .text.iotx_guider_set_dynamic_region:00000000000001ec .LVL106
C:\Users\stapi\AppData\Local\Temp\ccJ15vUB.s:1069   .text.iotx_guider_set_dynamic_region:00000000000001f6 .LVL107
C:\Users\stapi\AppData\Local\Temp\ccJ15vUB.s:1075   .text.iotx_guider_set_dynamic_region:0000000000000206 .LVL108
C:\Users\stapi\AppData\Local\Temp\ccJ15vUB.s:1124   .text.iotx_guider_set_dynamic_region:0000000000000258 .LVL114
C:\Users\stapi\AppData\Local\Temp\ccJ15vUB.s:1129   .text.iotx_guider_set_dynamic_region:0000000000000262 .LVL115
C:\Users\stapi\AppData\Local\Temp\ccJ15vUB.s:1137   .text.iotx_guider_set_dynamic_region:0000000000000270 .LVL117
C:\Users\stapi\AppData\Local\Temp\ccJ15vUB.s:16107  .debug_str:0000000000002887 .LASF447
C:\Users\stapi\AppData\Local\Temp\ccJ15vUB.s:532    .text.iotx_guider_get_region_id:0000000000000000 .LFB29
C:\Users\stapi\AppData\Local\Temp\ccJ15vUB.s:651    .text.iotx_guider_get_region_id:00000000000000d2 .LFE29
C:\Users\stapi\AppData\Local\Temp\ccJ15vUB.s:14749  .debug_loc:00000000000016a4 .LLST11
C:\Users\stapi\AppData\Local\Temp\ccJ15vUB.s:16005  .debug_str:0000000000002452 .LASF448
C:\Users\stapi\AppData\Local\Temp\ccJ15vUB.s:563    .text.iotx_guider_get_region_id:0000000000000028 .LVL39
C:\Users\stapi\AppData\Local\Temp\ccJ15vUB.s:572    .text.iotx_guider_get_region_id:000000000000003e .LVL40
C:\Users\stapi\AppData\Local\Temp\ccJ15vUB.s:577    .text.iotx_guider_get_region_id:000000000000004e .LVL41
C:\Users\stapi\AppData\Local\Temp\ccJ15vUB.s:583    .text.iotx_guider_get_region_id:000000000000005a .LVL42
C:\Users\stapi\AppData\Local\Temp\ccJ15vUB.s:606    .text.iotx_guider_get_region_id:0000000000000072 .LVL44
C:\Users\stapi\AppData\Local\Temp\ccJ15vUB.s:621    .text.iotx_guider_get_region_id:000000000000008e .LVL46
C:\Users\stapi\AppData\Local\Temp\ccJ15vUB.s:627    .text.iotx_guider_get_region_id:00000000000000a0 .LVL47
C:\Users\stapi\AppData\Local\Temp\ccJ15vUB.s:635    .text.iotx_guider_get_region_id:00000000000000b2 .LVL48
C:\Users\stapi\AppData\Local\Temp\ccJ15vUB.s:641    .text.iotx_guider_get_region_id:00000000000000c4 .LVL49
C:\Users\stapi\AppData\Local\Temp\ccJ15vUB.s:645    .text.iotx_guider_get_region_id:00000000000000d0 .LVL50
C:\Users\stapi\AppData\Local\Temp\ccJ15vUB.s:15807  .debug_str:0000000000001c66 .LASF449
C:\Users\stapi\AppData\Local\Temp\ccJ15vUB.s:16111  .debug_str:00000000000028c3 .LASF450
C:\Users\stapi\AppData\Local\Temp\ccJ15vUB.s:15271  .debug_str:0000000000000639 .LASF451
C:\Users\stapi\AppData\Local\Temp\ccJ15vUB.s:15433  .debug_str:0000000000000ce0 .LASF452
C:\Users\stapi\AppData\Local\Temp\ccJ15vUB.s:15725  .debug_str:00000000000018c2 .LASF453
C:\Users\stapi\AppData\Local\Temp\ccJ15vUB.s:15755  .debug_str:00000000000019de .LASF454
C:\Users\stapi\AppData\Local\Temp\ccJ15vUB.s:15159  .debug_str:0000000000000048 .LASF455
C:\Users\stapi\AppData\Local\Temp\ccJ15vUB.s:407    .text.iotx_guider_set_dynamic_mqtt_url:0000000000000000 .LFB26
C:\Users\stapi\AppData\Local\Temp\ccJ15vUB.s:509    .text.iotx_guider_set_dynamic_mqtt_url:00000000000000b4 .LFE26
C:\Users\stapi\AppData\Local\Temp\ccJ15vUB.s:14768  .debug_loc:00000000000016d1 .LLST8
C:\Users\stapi\AppData\Local\Temp\ccJ15vUB.s:14797  .debug_loc:0000000000001716 .LLST9
C:\Users\stapi\AppData\Local\Temp\ccJ15vUB.s:14818  .debug_loc:000000000000174c .LLST10
C:\Users\stapi\AppData\Local\Temp\ccJ15vUB.s:429    .text.iotx_guider_set_dynamic_mqtt_url:0000000000000016 .LVL28
C:\Users\stapi\AppData\Local\Temp\ccJ15vUB.s:442    .text.iotx_guider_set_dynamic_mqtt_url:0000000000000032 .LVL30
C:\Users\stapi\AppData\Local\Temp\ccJ15vUB.s:447    .text.iotx_guider_set_dynamic_mqtt_url:0000000000000042 .LVL31
C:\Users\stapi\AppData\Local\Temp\ccJ15vUB.s:452    .text.iotx_guider_set_dynamic_mqtt_url:0000000000000052 .LVL32
C:\Users\stapi\AppData\Local\Temp\ccJ15vUB.s:470    .text.iotx_guider_set_dynamic_mqtt_url:000000000000006e .LVL34
C:\Users\stapi\AppData\Local\Temp\ccJ15vUB.s:488    .text.iotx_guider_set_dynamic_mqtt_url:000000000000009c .LVL36
C:\Users\stapi\AppData\Local\Temp\ccJ15vUB.s:15827  .debug_str:0000000000001d55 .LASF509
C:\Users\stapi\AppData\Local\Temp\ccJ15vUB.s:15213  .debug_str:0000000000000381 .LASF456
C:\Users\stapi\AppData\Local\Temp\ccJ15vUB.s:321    .text.iotx_guider_get_kv_env:0000000000000000 .LFB24
C:\Users\stapi\AppData\Local\Temp\ccJ15vUB.s:368    .text.iotx_guider_get_kv_env:0000000000000050 .LFE24
C:\Users\stapi\AppData\Local\Temp\ccJ15vUB.s:15179  .debug_str:000000000000014f .LASF457
C:\Users\stapi\AppData\Local\Temp\ccJ15vUB.s:347    .text.iotx_guider_get_kv_env:0000000000000024 .LVL23
C:\Users\stapi\AppData\Local\Temp\ccJ15vUB.s:353    .text.iotx_guider_get_kv_env:0000000000000036 .LVL24
C:\Users\stapi\AppData\Local\Temp\ccJ15vUB.s:358    .text.iotx_guider_get_kv_env:0000000000000046 .LVL25
C:\Users\stapi\AppData\Local\Temp\ccJ15vUB.s:15335  .debug_str:00000000000008b6 .LASF458
C:\Users\stapi\AppData\Local\Temp\ccJ15vUB.s:290    .text.guider_set_direct_connect_count:0000000000000000 .LFB23
C:\Users\stapi\AppData\Local\Temp\ccJ15vUB.s:304    .text.guider_set_direct_connect_count:000000000000000c .LFE23
C:\Users\stapi\AppData\Local\Temp\ccJ15vUB.s:15715  .debug_str:0000000000001882 .LASF459
C:\Users\stapi\AppData\Local\Temp\ccJ15vUB.s:14830  .debug_loc:000000000000176b .LLST7
C:\Users\stapi\AppData\Local\Temp\ccJ15vUB.s:15215  .debug_str:0000000000000398 .LASF460
C:\Users\stapi\AppData\Local\Temp\ccJ15vUB.s:15717  .debug_str:0000000000001888 .LASF461
C:\Users\stapi\AppData\Local\Temp\ccJ15vUB.s:16025  .debug_str:00000000000024ef .LASF462
C:\Users\stapi\AppData\Local\Temp\ccJ15vUB.s:258    .text.iotx_guider_get_region:0000000000000000 .LFB21
C:\Users\stapi\AppData\Local\Temp\ccJ15vUB.s:283    .text.iotx_guider_get_region:0000000000000022 .LFE21
C:\Users\stapi\AppData\Local\Temp\ccJ15vUB.s:273    .text.iotx_guider_get_region:0000000000000016 .LVL19
C:\Users\stapi\AppData\Local\Temp\ccJ15vUB.s:15587  .debug_str:0000000000001330 .LASF463
C:\Users\stapi\AppData\Local\Temp\ccJ15vUB.s:15999  .debug_str:0000000000002408 .LASF464
C:\Users\stapi\AppData\Local\Temp\ccJ15vUB.s:17     .text.printf_parting_line.isra.0:0000000000000000 .LFB51
C:\Users\stapi\AppData\Local\Temp\ccJ15vUB.s:28     .text.printf_parting_line.isra.0:0000000000000010 .LFE51
C:\Users\stapi\AppData\Local\Temp\ccJ15vUB.s:26     .text.printf_parting_line.isra.0:0000000000000010 .LVL0
C:\Users\stapi\AppData\Local\Temp\ccJ15vUB.s:77     .text.guider_print_dev_guider_info.constprop.0:0000000000000000 .LFB56
C:\Users\stapi\AppData\Local\Temp\ccJ15vUB.s:251    .text.guider_print_dev_guider_info.constprop.0:0000000000000144 .LFE56
C:\Users\stapi\AppData\Local\Temp\ccJ15vUB.s:14842  .debug_loc:000000000000178d .LLST0
C:\Users\stapi\AppData\Local\Temp\ccJ15vUB.s:14853  .debug_loc:00000000000017ab .LLST1
C:\Users\stapi\AppData\Local\Temp\ccJ15vUB.s:14864  .debug_loc:00000000000017c9 .LLST2
C:\Users\stapi\AppData\Local\Temp\ccJ15vUB.s:14875  .debug_loc:00000000000017e7 .LLST3
C:\Users\stapi\AppData\Local\Temp\ccJ15vUB.s:14886  .debug_loc:0000000000001805 .LLST4
C:\Users\stapi\AppData\Local\Temp\ccJ15vUB.s:14897  .debug_loc:0000000000001823 .LLST5
C:\Users\stapi\AppData\Local\Temp\ccJ15vUB.s:171    .text.guider_print_dev_guider_info.constprop.0:00000000000000c8 .LBB35
C:\Users\stapi\AppData\Local\Temp\ccJ15vUB.s:14908  .debug_loc:0000000000001841 .LLST6
C:\Users\stapi\AppData\Local\Temp\ccJ15vUB.s:115    .text.guider_print_dev_guider_info.constprop.0:000000000000002a .LVL6
C:\Users\stapi\AppData\Local\Temp\ccJ15vUB.s:118    .text.guider_print_dev_guider_info.constprop.0:0000000000000032 .LVL7
C:\Users\stapi\AppData\Local\Temp\ccJ15vUB.s:126    .text.guider_print_dev_guider_info.constprop.0:000000000000004c .LVL8
C:\Users\stapi\AppData\Local\Temp\ccJ15vUB.s:133    .text.guider_print_dev_guider_info.constprop.0:0000000000000064 .LVL9
C:\Users\stapi\AppData\Local\Temp\ccJ15vUB.s:140    .text.guider_print_dev_guider_info.constprop.0:000000000000007a .LVL10
C:\Users\stapi\AppData\Local\Temp\ccJ15vUB.s:147    .text.guider_print_dev_guider_info.constprop.0:0000000000000090 .LVL11
C:\Users\stapi\AppData\Local\Temp\ccJ15vUB.s:154    .text.guider_print_dev_guider_info.constprop.0:00000000000000a6 .LVL12
C:\Users\stapi\AppData\Local\Temp\ccJ15vUB.s:168    .text.guider_print_dev_guider_info.constprop.0:00000000000000c8 .LVL13
C:\Users\stapi\AppData\Local\Temp\ccJ15vUB.s:200    .text.guider_print_dev_guider_info.constprop.0:00000000000000fe .LVL15
C:\Users\stapi\AppData\Local\Temp\ccJ15vUB.s:207    .text.guider_print_dev_guider_info.constprop.0:0000000000000114 .LVL16
C:\Users\stapi\AppData\Local\Temp\ccJ15vUB.s:210    .text.guider_print_dev_guider_info.constprop.0:000000000000011c .LVL17
C:\Users\stapi\AppData\Local\Temp\ccJ15vUB.s:375    .text.iotx_guider_get_env:0000000000000000 .LFB25
C:\Users\stapi\AppData\Local\Temp\ccJ15vUB.s:384    .text.iotx_guider_get_env:000000000000000a .LFE25
C:\Users\stapi\AppData\Local\Temp\ccJ15vUB.s:1175   .text.iotx_guider_get_domain:0000000000000000 .LFB32
C:\Users\stapi\AppData\Local\Temp\ccJ15vUB.s:1343   .text.iotx_guider_get_domain:00000000000000e8 .LFE32
C:\Users\stapi\AppData\Local\Temp\ccJ15vUB.s:14919  .debug_loc:000000000000185f .LLST25
C:\Users\stapi\AppData\Local\Temp\ccJ15vUB.s:14930  .debug_loc:000000000000187d .LLST26
C:\Users\stapi\AppData\Local\Temp\ccJ15vUB.s:1216   .text.iotx_guider_get_domain:0000000000000036 .LBB73
C:\Users\stapi\AppData\Local\Temp\ccJ15vUB.s:1220   .text.iotx_guider_get_domain:0000000000000036 .LBE73
C:\Users\stapi\AppData\Local\Temp\ccJ15vUB.s:1250   .text.iotx_guider_get_domain:0000000000000064 .LBB75
C:\Users\stapi\AppData\Local\Temp\ccJ15vUB.s:1257   .text.iotx_guider_get_domain:000000000000006c .LBE75
C:\Users\stapi\AppData\Local\Temp\ccJ15vUB.s:1272   .text.iotx_guider_get_domain:0000000000000080 .LBB77
C:\Users\stapi\AppData\Local\Temp\ccJ15vUB.s:14961  .debug_loc:00000000000018d2 .LLST27
C:\Users\stapi\AppData\Local\Temp\ccJ15vUB.s:1279   .text.iotx_guider_get_domain:0000000000000086 .LBB79
C:\Users\stapi\AppData\Local\Temp\ccJ15vUB.s:1286   .text.iotx_guider_get_domain:000000000000008e .LBE79
C:\Users\stapi\AppData\Local\Temp\ccJ15vUB.s:1310   .text.iotx_guider_get_domain:00000000000000b0 .LVL129
C:\Users\stapi\AppData\Local\Temp\ccJ15vUB.s:1315   .text.iotx_guider_get_domain:00000000000000c0 .LVL130
C:\Users\stapi\AppData\Local\Temp\ccJ15vUB.s:1320   .text.iotx_guider_get_domain:00000000000000d0 .LVL131
C:\Users\stapi\AppData\Local\Temp\ccJ15vUB.s:1189   .text.iotx_guider_get_domain:0000000000000012 .LVL119
C:\Users\stapi\AppData\Local\Temp\ccJ15vUB.s:15361  .debug_str:00000000000009d0 .LASF465
C:\Users\stapi\AppData\Local\Temp\ccJ15vUB.s:15975  .debug_str:000000000000233f .LASF466
C:\Users\stapi\AppData\Local\Temp\ccJ15vUB.s:15443  .debug_str:0000000000000d2c .LASF491
C:\Users\stapi\AppData\Local\Temp\ccJ15vUB.s:15307  .debug_str:00000000000007ae .LASF493
C:\Users\stapi\AppData\Local\Temp\ccJ15vUB.s:15525  .debug_str:0000000000001060 .LASF467
C:\Users\stapi\AppData\Local\Temp\ccJ15vUB.s:15561  .debug_str:00000000000011fb .LASF468
C:\Users\stapi\AppData\Local\Temp\ccJ15vUB.s:16045  .debug_str:00000000000025e4 .LASF469
C:\Users\stapi\AppData\Local\Temp\ccJ15vUB.s:15577  .debug_str:00000000000012cf .LASF470
C:\Users\stapi\AppData\Local\Temp\ccJ15vUB.s:15989  .debug_str:00000000000023a3 .LASF471
C:\Users\stapi\AppData\Local\Temp\ccJ15vUB.s:15683  .debug_str:0000000000001741 .LASF472
C:\Users\stapi\AppData\Local\Temp\ccJ15vUB.s:15381  .debug_str:0000000000000aa8 .LASF473
C:\Users\stapi\AppData\Local\Temp\ccJ15vUB.s:15399  .debug_str:0000000000000b53 .LASF474
C:\Users\stapi\AppData\Local\Temp\ccJ15vUB.s:15229  .debug_str:0000000000000450 .LASF475
C:\Users\stapi\AppData\Local\Temp\ccJ15vUB.s:15281  .debug_str:000000000000068f .LASF476
C:\Users\stapi\AppData\Local\Temp\ccJ15vUB.s:15397  .debug_str:0000000000000b40 .LASF477
C:\Users\stapi\AppData\Local\Temp\ccJ15vUB.s:15613  .debug_str:000000000000142f .LASF478
C:\Users\stapi\AppData\Local\Temp\ccJ15vUB.s:15277  .debug_str:0000000000000666 .LASF479
C:\Users\stapi\AppData\Local\Temp\ccJ15vUB.s:15201  .debug_str:00000000000002fd .LASF480
C:\Users\stapi\AppData\Local\Temp\ccJ15vUB.s:15671  .debug_str:00000000000016e0 .LASF481
C:\Users\stapi\AppData\Local\Temp\ccJ15vUB.s:15947  .debug_str:00000000000021fb .LASF482
C:\Users\stapi\AppData\Local\Temp\ccJ15vUB.s:15809  .debug_str:0000000000001c7b .LASF483
C:\Users\stapi\AppData\Local\Temp\ccJ15vUB.s:15347  .debug_str:0000000000000955 .LASF484
C:\Users\stapi\AppData\Local\Temp\ccJ15vUB.s:15709  .debug_str:000000000000183b .LASF485
C:\Users\stapi\AppData\Local\Temp\ccJ15vUB.s:15547  .debug_str:000000000000115f .LASF486
C:\Users\stapi\AppData\Local\Temp\ccJ15vUB.s:15759  .debug_str:00000000000019f2 .LASF487
C:\Users\stapi\AppData\Local\Temp\ccJ15vUB.s:15603  .debug_str:00000000000013bf .LASF488
C:\Users\stapi\AppData\Local\Temp\ccJ15vUB.s:15651  .debug_str:00000000000015a7 .LASF489
C:\Users\stapi\AppData\Local\Temp\ccJ15vUB.s:15251  .debug_str:0000000000000541 .LASF490
C:\Users\stapi\AppData\Local\Temp\ccJ15vUB.s:16051  .debug_str:000000000000260e .LASF492
C:\Users\stapi\AppData\Local\Temp\ccJ15vUB.s:15477  .debug_str:0000000000000e5d .LASF494
C:\Users\stapi\AppData\Local\Temp\ccJ15vUB.s:15763  .debug_str:0000000000001a17 .LASF495
C:\Users\stapi\AppData\Local\Temp\ccJ15vUB.s:15493  .debug_str:0000000000000f0c .LASF496
C:\Users\stapi\AppData\Local\Temp\ccJ15vUB.s:15799  .debug_str:0000000000001c16 .LASF497
C:\Users\stapi\AppData\Local\Temp\ccJ15vUB.s:15185  .debug_str:0000000000000191 .LASF498
C:\Users\stapi\AppData\Local\Temp\ccJ15vUB.s:15741  .debug_str:0000000000001947 .LASF499
C:\Users\stapi\AppData\Local\Temp\ccJ15vUB.s:15235  .debug_str:0000000000000484 .LASF500
C:\Users\stapi\AppData\Local\Temp\ccJ15vUB.s:15705  .debug_str:000000000000180d .LASF501
C:\Users\stapi\AppData\Local\Temp\ccJ15vUB.s:1669   .text.iotx_guider_authenticate:0000000000000000 .LVL153
C:\Users\stapi\AppData\Local\Temp\ccJ15vUB.s:1714   .text.iotx_guider_authenticate:0000000000000022 .LVL157
C:\Users\stapi\AppData\Local\Temp\ccJ15vUB.s:1712   .text.iotx_guider_authenticate:000000000000001e .LVL156
C:\Users\stapi\AppData\Local\Temp\ccJ15vUB.s:1755   .text.iotx_guider_authenticate:000000000000007a .LVL163
C:\Users\stapi\AppData\Local\Temp\ccJ15vUB.s:1771   .text.iotx_guider_authenticate:0000000000000082 .LVL164
C:\Users\stapi\AppData\Local\Temp\ccJ15vUB.s:1710   .text.iotx_guider_authenticate:000000000000001a .LVL155
C:\Users\stapi\AppData\Local\Temp\ccJ15vUB.s:1686   .text.iotx_guider_authenticate:0000000000000008 .LVL154
C:\Users\stapi\AppData\Local\Temp\ccJ15vUB.s:1748   .text.iotx_guider_authenticate:0000000000000076 .LVL162
C:\Users\stapi\AppData\Local\Temp\ccJ15vUB.s:1836   .text.iotx_guider_authenticate:00000000000000fa .LVL175
C:\Users\stapi\AppData\Local\Temp\ccJ15vUB.s:1903   .text.iotx_guider_authenticate:0000000000000172 .LVL184
C:\Users\stapi\AppData\Local\Temp\ccJ15vUB.s:2713   .text.iotx_guider_authenticate:0000000000000718 .LVL297
C:\Users\stapi\AppData\Local\Temp\ccJ15vUB.s:3029   .text.iotx_guider_authenticate:00000000000008fa .LVL342
C:\Users\stapi\AppData\Local\Temp\ccJ15vUB.s:3036   .text.iotx_guider_authenticate:00000000000008fe .LVL343
C:\Users\stapi\AppData\Local\Temp\ccJ15vUB.s:3203   .text.iotx_guider_authenticate:0000000000000a42 .LVL364
C:\Users\stapi\AppData\Local\Temp\ccJ15vUB.s:3207   .text.iotx_guider_authenticate:0000000000000a44 .LVL365
C:\Users\stapi\AppData\Local\Temp\ccJ15vUB.s:1782   .text.iotx_guider_authenticate:0000000000000094 .LVL166
C:\Users\stapi\AppData\Local\Temp\ccJ15vUB.s:1799   .text.iotx_guider_authenticate:00000000000000b4 .LVL169
C:\Users\stapi\AppData\Local\Temp\ccJ15vUB.s:2775   .text.iotx_guider_authenticate:000000000000077a .LVL305
C:\Users\stapi\AppData\Local\Temp\ccJ15vUB.s:3171   .text.iotx_guider_authenticate:00000000000009fe .LVL360
C:\Users\stapi\AppData\Local\Temp\ccJ15vUB.s:2015   .text.iotx_guider_authenticate:0000000000000238 .LVL194
C:\Users\stapi\AppData\Local\Temp\ccJ15vUB.s:2277   .text.iotx_guider_authenticate:0000000000000404 .LVL232
C:\Users\stapi\AppData\Local\Temp\ccJ15vUB.s:2299   .text.iotx_guider_authenticate:0000000000000432 .LVL236
C:\Users\stapi\AppData\Local\Temp\ccJ15vUB.s:2323   .text.iotx_guider_authenticate:000000000000045c .LVL241
C:\Users\stapi\AppData\Local\Temp\ccJ15vUB.s:2330   .text.iotx_guider_authenticate:0000000000000460 .LVL242
C:\Users\stapi\AppData\Local\Temp\ccJ15vUB.s:2783   .text.iotx_guider_authenticate:0000000000000780 .LVL306
C:\Users\stapi\AppData\Local\Temp\ccJ15vUB.s:3223   .text.iotx_guider_authenticate:0000000000000a50 .LVL368
C:\Users\stapi\AppData\Local\Temp\ccJ15vUB.s:3231   .text.iotx_guider_authenticate:0000000000000a56 .LVL369
C:\Users\stapi\AppData\Local\Temp\ccJ15vUB.s:1840   .text.iotx_guider_authenticate:0000000000000104 .LVL177
C:\Users\stapi\AppData\Local\Temp\ccJ15vUB.s:3213   .text.iotx_guider_authenticate:0000000000000a48 .LVL366
C:\Users\stapi\AppData\Local\Temp\ccJ15vUB.s:3218   .text.iotx_guider_authenticate:0000000000000a4c .LVL367
C:\Users\stapi\AppData\Local\Temp\ccJ15vUB.s:1857   .text.iotx_guider_authenticate:0000000000000128 .LVL180
C:\Users\stapi\AppData\Local\Temp\ccJ15vUB.s:2884   .text.iotx_guider_authenticate:000000000000080a .LVL318
C:\Users\stapi\AppData\Local\Temp\ccJ15vUB.s:2888   .text.iotx_guider_authenticate:000000000000080e .LVL319
C:\Users\stapi\AppData\Local\Temp\ccJ15vUB.s:1814   .text.iotx_guider_authenticate:00000000000000d2 .LVL172
C:\Users\stapi\AppData\Local\Temp\ccJ15vUB.s:1999   .text.iotx_guider_authenticate:0000000000000226 .LVL192
C:\Users\stapi\AppData\Local\Temp\ccJ15vUB.s:1876   .text.iotx_guider_authenticate:000000000000014e .LVL182
C:\Users\stapi\AppData\Local\Temp\ccJ15vUB.s:1978   .text.iotx_guider_authenticate:000000000000020c .LVL191
C:\Users\stapi\AppData\Local\Temp\ccJ15vUB.s:2022   .text.iotx_guider_authenticate:000000000000023e .LVL195
C:\Users\stapi\AppData\Local\Temp\ccJ15vUB.s:2529   .text.iotx_guider_authenticate:00000000000005c4 .LVL268
C:\Users\stapi\AppData\Local\Temp\ccJ15vUB.s:2061   .text.iotx_guider_authenticate:000000000000026a .LVL198
C:\Users\stapi\AppData\Local\Temp\ccJ15vUB.s:2067   .text.iotx_guider_authenticate:000000000000026c .LVL199
C:\Users\stapi\AppData\Local\Temp\ccJ15vUB.s:2097   .text.iotx_guider_authenticate:00000000000002a0 .LVL205
C:\Users\stapi\AppData\Local\Temp\ccJ15vUB.s:2319   .text.iotx_guider_authenticate:000000000000045a .LVL240
C:\Users\stapi\AppData\Local\Temp\ccJ15vUB.s:2708   .text.iotx_guider_authenticate:0000000000000710 .LVL296
C:\Users\stapi\AppData\Local\Temp\ccJ15vUB.s:2082   .text.iotx_guider_authenticate:0000000000000282 .LVL202
C:\Users\stapi\AppData\Local\Temp\ccJ15vUB.s:2092   .text.iotx_guider_authenticate:0000000000000296 .LVL203
C:\Users\stapi\AppData\Local\Temp\ccJ15vUB.s:2308   .text.iotx_guider_authenticate:0000000000000440 .LVL237
C:\Users\stapi\AppData\Local\Temp\ccJ15vUB.s:2467   .text.iotx_guider_authenticate:0000000000000558 .LVL258
C:\Users\stapi\AppData\Local\Temp\ccJ15vUB.s:2606   .text.iotx_guider_authenticate:0000000000000656 .LVL281
C:\Users\stapi\AppData\Local\Temp\ccJ15vUB.s:2609   .text.iotx_guider_authenticate:0000000000000658 .LVL282
C:\Users\stapi\AppData\Local\Temp\ccJ15vUB.s:2116   .text.iotx_guider_authenticate:00000000000002c6 .LVL208
C:\Users\stapi\AppData\Local\Temp\ccJ15vUB.s:2135   .text.iotx_guider_authenticate:00000000000002d2 .LVL210
C:\Users\stapi\AppData\Local\Temp\ccJ15vUB.s:2391   .text.iotx_guider_authenticate:00000000000004f0 .LVL249
C:\Users\stapi\AppData\Local\Temp\ccJ15vUB.s:2514   .text.iotx_guider_authenticate:00000000000005aa .LVL265
C:\Users\stapi\AppData\Local\Temp\ccJ15vUB.s:2621   .text.iotx_guider_authenticate:000000000000066a .LVL284
C:\Users\stapi\AppData\Local\Temp\ccJ15vUB.s:2628   .text.iotx_guider_authenticate:0000000000000670 .LVL285
C:\Users\stapi\AppData\Local\Temp\ccJ15vUB.s:2645   .text.iotx_guider_authenticate:000000000000069c .LVL289
C:\Users\stapi\AppData\Local\Temp\ccJ15vUB.s:2121   .text.iotx_guider_authenticate:00000000000002ca .LVL209
C:\Users\stapi\AppData\Local\Temp\ccJ15vUB.s:3802   .debug_info:0000000000000000 .Ldebug_info0
C:\Users\stapi\AppData\Local\Temp\ccJ15vUB.s:2472   .text.iotx_guider_authenticate:000000000000055c .LVL259
C:\Users\stapi\AppData\Local\Temp\ccJ15vUB.s:2267   .text.iotx_guider_authenticate:00000000000003f4 .LVL229
C:\Users\stapi\AppData\Local\Temp\ccJ15vUB.s:2438   .text.iotx_guider_authenticate:0000000000000528 .LVL254
C:\Users\stapi\AppData\Local\Temp\ccJ15vUB.s:2441   .text.iotx_guider_authenticate:000000000000052a .LVL255
C:\Users\stapi\AppData\Local\Temp\ccJ15vUB.s:2555   .text.iotx_guider_authenticate:00000000000005f0 .LVL271
C:\Users\stapi\AppData\Local\Temp\ccJ15vUB.s:2139   .text.iotx_guider_authenticate:00000000000002dc .LVL212
C:\Users\stapi\AppData\Local\Temp\ccJ15vUB.s:2148   .text.iotx_guider_authenticate:00000000000002ee .LVL213
C:\Users\stapi\AppData\Local\Temp\ccJ15vUB.s:2272   .text.iotx_guider_authenticate:00000000000003fa .LVL230
C:\Users\stapi\AppData\Local\Temp\ccJ15vUB.s:2425   .text.iotx_guider_authenticate:000000000000051a .LVL252
C:\Users\stapi\AppData\Local\Temp\ccJ15vUB.s:2544   .text.iotx_guider_authenticate:00000000000005e2 .LVL270
C:\Users\stapi\AppData\Local\Temp\ccJ15vUB.s:2557   .text.iotx_guider_authenticate:00000000000005f2 .LVL272
C:\Users\stapi\AppData\Local\Temp\ccJ15vUB.s:2577   .text.iotx_guider_authenticate:0000000000000624 .LVL276
C:\Users\stapi\AppData\Local\Temp\ccJ15vUB.s:2589   .text.iotx_guider_authenticate:0000000000000634 .LVL277
C:\Users\stapi\AppData\Local\Temp\ccJ15vUB.s:2168   .text.iotx_guider_authenticate:0000000000000324 .LVL217
C:\Users\stapi\AppData\Local\Temp\ccJ15vUB.s:2178   .text.iotx_guider_authenticate:000000000000032c .LVL218
C:\Users\stapi\AppData\Local\Temp\ccJ15vUB.s:2210   .text.iotx_guider_authenticate:0000000000000368 .LVL221
C:\Users\stapi\AppData\Local\Temp\ccJ15vUB.s:2403   .text.iotx_guider_authenticate:00000000000004fc .LVL250
C:\Users\stapi\AppData\Local\Temp\ccJ15vUB.s:2348   .text.iotx_guider_authenticate:000000000000047a .LVL244
C:\Users\stapi\AppData\Local\Temp\ccJ15vUB.s:2365   .text.iotx_guider_authenticate:00000000000004aa .LVL246
C:\Users\stapi\AppData\Local\Temp\ccJ15vUB.s:2904   .text.iotx_guider_authenticate:0000000000000820 .LVL323
C:\Users\stapi\AppData\Local\Temp\ccJ15vUB.s:3007   .text.iotx_guider_authenticate:00000000000008c8 .LVL338
C:\Users\stapi\AppData\Local\Temp\ccJ15vUB.s:3112   .text.iotx_guider_authenticate:000000000000099c .LVL353
C:\Users\stapi\AppData\Local\Temp\ccJ15vUB.s:3139   .text.iotx_guider_authenticate:00000000000009d6 .LVL356
C:\Users\stapi\AppData\Local\Temp\ccJ15vUB.s:3431   .text.iotx_guider_authenticate:0000000000000b5e .LVL388
C:\Users\stapi\AppData\Local\Temp\ccJ15vUB.s:3490   .text.iotx_guider_authenticate:0000000000000bd0 .LVL395
C:\Users\stapi\AppData\Local\Temp\ccJ15vUB.s:2826   .text.iotx_guider_authenticate:00000000000007b0 .LVL310
C:\Users\stapi\AppData\Local\Temp\ccJ15vUB.s:2934   .text.iotx_guider_authenticate:0000000000000844 .LVL326
C:\Users\stapi\AppData\Local\Temp\ccJ15vUB.s:2958   .text.iotx_guider_authenticate:000000000000086e .LVL329
C:\Users\stapi\AppData\Local\Temp\ccJ15vUB.s:2988   .text.iotx_guider_authenticate:00000000000008a2 .LVL335
C:\Users\stapi\AppData\Local\Temp\ccJ15vUB.s:3283   .text.iotx_guider_authenticate:0000000000000a94 .LVL373
C:\Users\stapi\AppData\Local\Temp\ccJ15vUB.s:3292   .text.iotx_guider_authenticate:0000000000000aa0 .LVL374
C:\Users\stapi\AppData\Local\Temp\ccJ15vUB.s:2895   .text.iotx_guider_authenticate:0000000000000816 .LVL321
C:\Users\stapi\AppData\Local\Temp\ccJ15vUB.s:2797   .text.iotx_guider_authenticate:0000000000000788 .LVL307
C:\Users\stapi\AppData\Local\Temp\ccJ15vUB.s:2804   .text.iotx_guider_authenticate:000000000000078e .LVL308
C:\Users\stapi\AppData\Local\Temp\ccJ15vUB.s:2871   .text.iotx_guider_authenticate:00000000000007f4 .LVL316
C:\Users\stapi\AppData\Local\Temp\ccJ15vUB.s:2975   .text.iotx_guider_authenticate:0000000000000890 .LVL333
C:\Users\stapi\AppData\Local\Temp\ccJ15vUB.s:2846   .text.iotx_guider_authenticate:00000000000007d4 .LVL313
C:\Users\stapi\AppData\Local\Temp\ccJ15vUB.s:2853   .text.iotx_guider_authenticate:00000000000007d8 .LVL314
C:\Users\stapi\AppData\Local\Temp\ccJ15vUB.s:2892   .text.iotx_guider_authenticate:0000000000000810 .LVL320
C:\Users\stapi\AppData\Local\Temp\ccJ15vUB.s:3053   .text.iotx_guider_authenticate:0000000000000916 .LVL345
C:\Users\stapi\AppData\Local\Temp\ccJ15vUB.s:3070   .text.iotx_guider_authenticate:0000000000000946 .LVL347
C:\Users\stapi\AppData\Local\Temp\ccJ15vUB.s:3364   .text.iotx_guider_authenticate:0000000000000af8 .LVL380
C:\Users\stapi\AppData\Local\Temp\ccJ15vUB.s:3389   .text.iotx_guider_authenticate:0000000000000b04 .LVL381
C:\Users\stapi\AppData\Local\Temp\ccJ15vUB.s:3298   .text.iotx_guider_authenticate:0000000000000aa2 .LVL375
C:\Users\stapi\AppData\Local\Temp\ccJ15vUB.s:3591   .text.iotx_guider_authenticate:0000000000000cc0 .LVL405
C:\Users\stapi\AppData\Local\Temp\ccJ15vUB.s:3596   .text.iotx_guider_authenticate:0000000000000ccc .LVL406
C:\Users\stapi\AppData\Local\Temp\ccJ15vUB.s:1446   .text.iotx_guider_fill_conn_string:0000000000000000 .LVL145
C:\Users\stapi\AppData\Local\Temp\ccJ15vUB.s:1516   .text.iotx_guider_fill_conn_string:000000000000006e .LVL150
C:\Users\stapi\AppData\Local\Temp\ccJ15vUB.s:1519   .text.iotx_guider_fill_conn_string:0000000000000070 .LVL151
C:\Users\stapi\AppData\Local\Temp\ccJ15vUB.s:1486   .text.iotx_guider_fill_conn_string:0000000000000036 .LVL147
C:\Users\stapi\AppData\Local\Temp\ccJ15vUB.s:1521   .text.iotx_guider_fill_conn_string:0000000000000072 .LVL152
C:\Users\stapi\AppData\Local\Temp\ccJ15vUB.s:1353   .text.iotx_guider_set_custom_domain:0000000000000000 .LVL136
C:\Users\stapi\AppData\Local\Temp\ccJ15vUB.s:1369   .text.iotx_guider_set_custom_domain:0000000000000014 .LVL137
C:\Users\stapi\AppData\Local\Temp\ccJ15vUB.s:1415   .text.iotx_guider_set_custom_domain:0000000000000062 .LVL143
C:\Users\stapi\AppData\Local\Temp\ccJ15vUB.s:1419   .text.iotx_guider_set_custom_domain:0000000000000064 .LVL144
C:\Users\stapi\AppData\Local\Temp\ccJ15vUB.s:1378   .text.iotx_guider_set_custom_domain:0000000000000022 .LVL139
C:\Users\stapi\AppData\Local\Temp\ccJ15vUB.s:1406   .text.iotx_guider_set_custom_domain:000000000000005a .LVL142
C:\Users\stapi\AppData\Local\Temp\ccJ15vUB.s:670    .text.iotx_guider_clear_dynamic_url:0000000000000008 .LVL51
C:\Users\stapi\AppData\Local\Temp\ccJ15vUB.s:678    .text.iotx_guider_clear_dynamic_url:000000000000001a .LVL53
C:\Users\stapi\AppData\Local\Temp\ccJ15vUB.s:749    .text.iotx_guider_set_dynamic_region:0000000000000000 .LVL57
C:\Users\stapi\AppData\Local\Temp\ccJ15vUB.s:778    .text.iotx_guider_set_dynamic_region:000000000000001a .LVL59
C:\Users\stapi\AppData\Local\Temp\ccJ15vUB.s:820    .text.iotx_guider_set_dynamic_region:0000000000000058 .LVL65
C:\Users\stapi\AppData\Local\Temp\ccJ15vUB.s:830    .text.iotx_guider_set_dynamic_region:0000000000000064 .LVL66
C:\Users\stapi\AppData\Local\Temp\ccJ15vUB.s:1087   .text.iotx_guider_set_dynamic_region:0000000000000212 .LVL109
C:\Users\stapi\AppData\Local\Temp\ccJ15vUB.s:763    .text.iotx_guider_set_dynamic_region:0000000000000008 .LVL58
C:\Users\stapi\AppData\Local\Temp\ccJ15vUB.s:854    .text.iotx_guider_set_dynamic_region:0000000000000096 .LVL70
C:\Users\stapi\AppData\Local\Temp\ccJ15vUB.s:945    .text.iotx_guider_set_dynamic_region:0000000000000130 .LVL84
C:\Users\stapi\AppData\Local\Temp\ccJ15vUB.s:949    .text.iotx_guider_set_dynamic_region:0000000000000134 .LVL85
C:\Users\stapi\AppData\Local\Temp\ccJ15vUB.s:964    .text.iotx_guider_set_dynamic_region:0000000000000160 .LVL89
C:\Users\stapi\AppData\Local\Temp\ccJ15vUB.s:1032   .text.iotx_guider_set_dynamic_region:00000000000001ae .LVL101
C:\Users\stapi\AppData\Local\Temp\ccJ15vUB.s:801    .text.iotx_guider_set_dynamic_region:000000000000004c .LVL64
C:\Users\stapi\AppData\Local\Temp\ccJ15vUB.s:1046   .text.iotx_guider_set_dynamic_region:00000000000001c0 .LVL103
C:\Users\stapi\AppData\Local\Temp\ccJ15vUB.s:1091   .text.iotx_guider_set_dynamic_region:0000000000000216 .LVL110
C:\Users\stapi\AppData\Local\Temp\ccJ15vUB.s:1113   .text.iotx_guider_set_dynamic_region:0000000000000242 .LVL112
C:\Users\stapi\AppData\Local\Temp\ccJ15vUB.s:1117   .text.iotx_guider_set_dynamic_region:000000000000024a .LVL113
C:\Users\stapi\AppData\Local\Temp\ccJ15vUB.s:912    .text.iotx_guider_set_dynamic_region:00000000000000ec .LVL78
C:\Users\stapi\AppData\Local\Temp\ccJ15vUB.s:916    .text.iotx_guider_set_dynamic_region:00000000000000f0 .LVL79
C:\Users\stapi\AppData\Local\Temp\ccJ15vUB.s:882    .text.iotx_guider_set_dynamic_region:00000000000000ca .LVL74
C:\Users\stapi\AppData\Local\Temp\ccJ15vUB.s:898    .text.iotx_guider_set_dynamic_region:00000000000000d4 .LVL76
C:\Users\stapi\AppData\Local\Temp\ccJ15vUB.s:974    .text.iotx_guider_set_dynamic_region:0000000000000168 .LVL90
C:\Users\stapi\AppData\Local\Temp\ccJ15vUB.s:981    .text.iotx_guider_set_dynamic_region:0000000000000174 .LVL91
C:\Users\stapi\AppData\Local\Temp\ccJ15vUB.s:994    .text.iotx_guider_set_dynamic_region:0000000000000180 .LVL94
C:\Users\stapi\AppData\Local\Temp\ccJ15vUB.s:1004   .text.iotx_guider_set_dynamic_region:000000000000018c .LVL97
C:\Users\stapi\AppData\Local\Temp\ccJ15vUB.s:986    .text.iotx_guider_set_dynamic_region:0000000000000178 .LVL92
C:\Users\stapi\AppData\Local\Temp\ccJ15vUB.s:1000   .text.iotx_guider_set_dynamic_region:0000000000000188 .LVL96
C:\Users\stapi\AppData\Local\Temp\ccJ15vUB.s:989    .text.iotx_guider_set_dynamic_region:000000000000017a .LVL93
C:\Users\stapi\AppData\Local\Temp\ccJ15vUB.s:1015   .text.iotx_guider_set_dynamic_region:000000000000019e .LVL99
C:\Users\stapi\AppData\Local\Temp\ccJ15vUB.s:892    .text.iotx_guider_set_dynamic_region:00000000000000cc .LVL75
C:\Users\stapi\AppData\Local\Temp\ccJ15vUB.s:997    .text.iotx_guider_set_dynamic_region:0000000000000184 .LVL95
C:\Users\stapi\AppData\Local\Temp\ccJ15vUB.s:541    .text.iotx_guider_get_region_id:0000000000000008 .LVL38
C:\Users\stapi\AppData\Local\Temp\ccJ15vUB.s:599    .text.iotx_guider_get_region_id:0000000000000068 .LVL43
C:\Users\stapi\AppData\Local\Temp\ccJ15vUB.s:612    .text.iotx_guider_get_region_id:000000000000007a .LVL45
C:\Users\stapi\AppData\Local\Temp\ccJ15vUB.s:410    .text.iotx_guider_set_dynamic_mqtt_url:0000000000000000 .LVL26
C:\Users\stapi\AppData\Local\Temp\ccJ15vUB.s:459    .text.iotx_guider_set_dynamic_mqtt_url:0000000000000056 .LVL33
C:\Users\stapi\AppData\Local\Temp\ccJ15vUB.s:497    .text.iotx_guider_set_dynamic_mqtt_url:00000000000000a8 .LVL37
C:\Users\stapi\AppData\Local\Temp\ccJ15vUB.s:417    .text.iotx_guider_set_dynamic_mqtt_url:0000000000000008 .LVL27
C:\Users\stapi\AppData\Local\Temp\ccJ15vUB.s:432    .text.iotx_guider_set_dynamic_mqtt_url:000000000000001a .LVL29
C:\Users\stapi\AppData\Local\Temp\ccJ15vUB.s:475    .text.iotx_guider_set_dynamic_mqtt_url:0000000000000072 .LVL35
C:\Users\stapi\AppData\Local\Temp\ccJ15vUB.s:293    .text.guider_set_direct_connect_count:0000000000000000 .LVL20
C:\Users\stapi\AppData\Local\Temp\ccJ15vUB.s:301    .text.guider_set_direct_connect_count:000000000000000a .LVL21
C:\Users\stapi\AppData\Local\Temp\ccJ15vUB.s:80     .text.guider_print_dev_guider_info.constprop.0:0000000000000000 .LVL1
C:\Users\stapi\AppData\Local\Temp\ccJ15vUB.s:107    .text.guider_print_dev_guider_info.constprop.0:0000000000000018 .LVL5
C:\Users\stapi\AppData\Local\Temp\ccJ15vUB.s:103    .text.guider_print_dev_guider_info.constprop.0:0000000000000014 .LVL3
C:\Users\stapi\AppData\Local\Temp\ccJ15vUB.s:105    .text.guider_print_dev_guider_info.constprop.0:0000000000000016 .LVL4
C:\Users\stapi\AppData\Local\Temp\ccJ15vUB.s:191    .text.guider_print_dev_guider_info.constprop.0:00000000000000e8 .LVL14
C:\Users\stapi\AppData\Local\Temp\ccJ15vUB.s:226    .text.guider_print_dev_guider_info.constprop.0:0000000000000126 .LVL18
C:\Users\stapi\AppData\Local\Temp\ccJ15vUB.s:1178   .text.iotx_guider_get_domain:0000000000000000 .LVL118
C:\Users\stapi\AppData\Local\Temp\ccJ15vUB.s:1198   .text.iotx_guider_get_domain:0000000000000020 .LVL120
C:\Users\stapi\AppData\Local\Temp\ccJ15vUB.s:1209   .text.iotx_guider_get_domain:0000000000000034 .LVL121
C:\Users\stapi\AppData\Local\Temp\ccJ15vUB.s:1226   .text.iotx_guider_get_domain:0000000000000042 .LVL122
C:\Users\stapi\AppData\Local\Temp\ccJ15vUB.s:1243   .text.iotx_guider_get_domain:000000000000005e .LVL123
C:\Users\stapi\AppData\Local\Temp\ccJ15vUB.s:1267   .text.iotx_guider_get_domain:000000000000007a .LVL124
C:\Users\stapi\AppData\Local\Temp\ccJ15vUB.s:1270   .text.iotx_guider_get_domain:0000000000000080 .LVL125
C:\Users\stapi\AppData\Local\Temp\ccJ15vUB.s:1299   .text.iotx_guider_get_domain:000000000000009a .LVL126
C:\Users\stapi\AppData\Local\Temp\ccJ15vUB.s:1302   .text.iotx_guider_get_domain:00000000000000a0 .LVL127
C:\Users\stapi\AppData\Local\Temp\ccJ15vUB.s:1307   .text.iotx_guider_get_domain:00000000000000a4 .LVL128
C:\Users\stapi\AppData\Local\Temp\ccJ15vUB.s:1326   .text.iotx_guider_get_domain:00000000000000d4 .LVL132
C:\Users\stapi\AppData\Local\Temp\ccJ15vUB.s:1332   .text.iotx_guider_get_domain:00000000000000d8 .LVL133
C:\Users\stapi\AppData\Local\Temp\ccJ15vUB.s:1335   .text.iotx_guider_get_domain:00000000000000de .LVL134
C:\Users\stapi\AppData\Local\Temp\ccJ15vUB.s:1339   .text.iotx_guider_get_domain:00000000000000e2 .LVL135
C:\Users\stapi\AppData\Local\Temp\ccJ15vUB.s:193    .text.guider_print_dev_guider_info.constprop.0:00000000000000e8 .LBE35
C:\Users\stapi\AppData\Local\Temp\ccJ15vUB.s:229    .text.guider_print_dev_guider_info.constprop.0:0000000000000126 .LBB38
C:\Users\stapi\AppData\Local\Temp\ccJ15vUB.s:249    .text.guider_print_dev_guider_info.constprop.0:0000000000000144 .LBE38
C:\Users\stapi\AppData\Local\Temp\ccJ15vUB.s:933    .text.iotx_guider_set_dynamic_region:0000000000000118 .LBE46
C:\Users\stapi\AppData\Local\Temp\ccJ15vUB.s:966    .text.iotx_guider_set_dynamic_region:0000000000000160 .LBB53
C:\Users\stapi\AppData\Local\Temp\ccJ15vUB.s:1037   .text.iotx_guider_set_dynamic_region:00000000000001ae .LBE53
C:\Users\stapi\AppData\Local\Temp\ccJ15vUB.s:901    .text.iotx_guider_set_dynamic_region:00000000000000d4 .LBE48
C:\Users\stapi\AppData\Local\Temp\ccJ15vUB.s:968    .text.iotx_guider_set_dynamic_region:0000000000000160 .LBB51
C:\Users\stapi\AppData\Local\Temp\ccJ15vUB.s:1035   .text.iotx_guider_set_dynamic_region:00000000000001ae .LBE51
C:\Users\stapi\AppData\Local\Temp\ccJ15vUB.s:1291   .text.iotx_guider_get_domain:0000000000000092 .LBE77
C:\Users\stapi\AppData\Local\Temp\ccJ15vUB.s:1293   .text.iotx_guider_get_domain:0000000000000092 .LBB82
C:\Users\stapi\AppData\Local\Temp\ccJ15vUB.s:1329   .text.iotx_guider_get_domain:00000000000000d4 .LBE82
C:\Users\stapi\AppData\Local\Temp\ccJ15vUB.s:2282   .text.iotx_guider_authenticate:0000000000000404 .LBE119
C:\Users\stapi\AppData\Local\Temp\ccJ15vUB.s:2301   .text.iotx_guider_authenticate:0000000000000432 .LBB146
C:\Users\stapi\AppData\Local\Temp\ccJ15vUB.s:2326   .text.iotx_guider_authenticate:000000000000045c .LBE146
C:\Users\stapi\AppData\Local\Temp\ccJ15vUB.s:2332   .text.iotx_guider_authenticate:0000000000000460 .LBB147
C:\Users\stapi\AppData\Local\Temp\ccJ15vUB.s:2716   .text.iotx_guider_authenticate:0000000000000718 .LBE147
C:\Users\stapi\AppData\Local\Temp\ccJ15vUB.s:2777   .text.iotx_guider_authenticate:000000000000077a .LBB148
C:\Users\stapi\AppData\Local\Temp\ccJ15vUB.s:2786   .text.iotx_guider_authenticate:0000000000000780 .LBE148
C:\Users\stapi\AppData\Local\Temp\ccJ15vUB.s:3225   .text.iotx_guider_authenticate:0000000000000a50 .LBB183
C:\Users\stapi\AppData\Local\Temp\ccJ15vUB.s:3234   .text.iotx_guider_authenticate:0000000000000a56 .LBE183
C:\Users\stapi\AppData\Local\Temp\ccJ15vUB.s:3370   .text.iotx_guider_authenticate:0000000000000af8 .LBB185
C:\Users\stapi\AppData\Local\Temp\ccJ15vUB.s:3379   .text.iotx_guider_authenticate:0000000000000afc .LBE185
C:\Users\stapi\AppData\Local\Temp\ccJ15vUB.s:2058   .text.iotx_guider_authenticate:0000000000000268 .LBE121
C:\Users\stapi\AppData\Local\Temp\ccJ15vUB.s:2063   .text.iotx_guider_authenticate:000000000000026a .LBB124
C:\Users\stapi\AppData\Local\Temp\ccJ15vUB.s:2072   .text.iotx_guider_authenticate:0000000000000274 .LBE124
C:\Users\stapi\AppData\Local\Temp\ccJ15vUB.s:2280   .text.iotx_guider_authenticate:0000000000000404 .LBE125
C:\Users\stapi\AppData\Local\Temp\ccJ15vUB.s:2393   .text.iotx_guider_authenticate:00000000000004f0 .LBB137
C:\Users\stapi\AppData\Local\Temp\ccJ15vUB.s:2460   .text.iotx_guider_authenticate:0000000000000552 .LBE137
C:\Users\stapi\AppData\Local\Temp\ccJ15vUB.s:2463   .text.iotx_guider_authenticate:0000000000000556 .LBB138
C:\Users\stapi\AppData\Local\Temp\ccJ15vUB.s:2481   .text.iotx_guider_authenticate:0000000000000564 .LBE138
C:\Users\stapi\AppData\Local\Temp\ccJ15vUB.s:2531   .text.iotx_guider_authenticate:00000000000005c4 .LBB139
C:\Users\stapi\AppData\Local\Temp\ccJ15vUB.s:2612   .text.iotx_guider_authenticate:0000000000000658 .LBE139
C:\Users\stapi\AppData\Local\Temp\ccJ15vUB.s:2224   .text.iotx_guider_authenticate:0000000000000382 .LBE127
C:\Users\stapi\AppData\Local\Temp\ccJ15vUB.s:2395   .text.iotx_guider_authenticate:00000000000004f0 .LBB130
C:\Users\stapi\AppData\Local\Temp\ccJ15vUB.s:2429   .text.iotx_guider_authenticate:000000000000051c .LBE130
C:\Users\stapi\AppData\Local\Temp\ccJ15vUB.s:2377   .text.iotx_guider_authenticate:00000000000004c6 .LBE134
C:\Users\stapi\AppData\Local\Temp\ccJ15vUB.s:3372   .text.iotx_guider_authenticate:0000000000000af8 .LBB140
C:\Users\stapi\AppData\Local\Temp\ccJ15vUB.s:3377   .text.iotx_guider_authenticate:0000000000000afc .LBE140
C:\Users\stapi\AppData\Local\Temp\ccJ15vUB.s:2912   .text.iotx_guider_authenticate:0000000000000820 .LBE149
C:\Users\stapi\AppData\Local\Temp\ccJ15vUB.s:2914   .text.iotx_guider_authenticate:0000000000000820 .LBB181
C:\Users\stapi\AppData\Local\Temp\ccJ15vUB.s:3032   .text.iotx_guider_authenticate:00000000000008fa .LBE181
C:\Users\stapi\AppData\Local\Temp\ccJ15vUB.s:3038   .text.iotx_guider_authenticate:00000000000008fe .LBB182
C:\Users\stapi\AppData\Local\Temp\ccJ15vUB.s:3174   .text.iotx_guider_authenticate:00000000000009fe .LBE182
C:\Users\stapi\AppData\Local\Temp\ccJ15vUB.s:3239   .text.iotx_guider_authenticate:0000000000000a56 .LBB184
C:\Users\stapi\AppData\Local\Temp\ccJ15vUB.s:3369   .text.iotx_guider_authenticate:0000000000000af8 .LBE184
C:\Users\stapi\AppData\Local\Temp\ccJ15vUB.s:3380   .text.iotx_guider_authenticate:0000000000000afc .LBB186
C:\Users\stapi\AppData\Local\Temp\ccJ15vUB.s:3616   .text.iotx_guider_authenticate:0000000000000ce8 .LBE186
C:\Users\stapi\AppData\Local\Temp\ccJ15vUB.s:2901   .text.iotx_guider_authenticate:000000000000081e .LBE151
C:\Users\stapi\AppData\Local\Temp\ccJ15vUB.s:2906   .text.iotx_guider_authenticate:0000000000000820 .LBB158
C:\Users\stapi\AppData\Local\Temp\ccJ15vUB.s:2910   .text.iotx_guider_authenticate:0000000000000820 .LBE158
C:\Users\stapi\AppData\Local\Temp\ccJ15vUB.s:2916   .text.iotx_guider_authenticate:0000000000000820 .LBB159
C:\Users\stapi\AppData\Local\Temp\ccJ15vUB.s:3004   .text.iotx_guider_authenticate:00000000000008c6 .LBE159
C:\Users\stapi\AppData\Local\Temp\ccJ15vUB.s:3308   .text.iotx_guider_authenticate:0000000000000aaa .LBB170
C:\Users\stapi\AppData\Local\Temp\ccJ15vUB.s:3348   .text.iotx_guider_authenticate:0000000000000ae6 .LBE170
C:\Users\stapi\AppData\Local\Temp\ccJ15vUB.s:3115   .text.iotx_guider_authenticate:000000000000099c .LBE160
C:\Users\stapi\AppData\Local\Temp\ccJ15vUB.s:3352   .text.iotx_guider_authenticate:0000000000000ae6 .LBB171
C:\Users\stapi\AppData\Local\Temp\ccJ15vUB.s:3367   .text.iotx_guider_authenticate:0000000000000af8 .LBE171
C:\Users\stapi\AppData\Local\Temp\ccJ15vUB.s:3382   .text.iotx_guider_authenticate:0000000000000afc .LBB172
C:\Users\stapi\AppData\Local\Temp\ccJ15vUB.s:3407   .text.iotx_guider_authenticate:0000000000000b30 .LBE172
C:\Users\stapi\AppData\Local\Temp\ccJ15vUB.s:3278   .text.iotx_guider_authenticate:0000000000000a90 .LBE164
C:\Users\stapi\AppData\Local\Temp\ccJ15vUB.s:3285   .text.iotx_guider_authenticate:0000000000000a94 .LBB168
C:\Users\stapi\AppData\Local\Temp\ccJ15vUB.s:3294   .text.iotx_guider_authenticate:0000000000000aa0 .LBE168
C:\Users\stapi\AppData\Local\Temp\ccJ15vUB.s:3299   .text.iotx_guider_authenticate:0000000000000aa2 .LBB169
C:\Users\stapi\AppData\Local\Temp\ccJ15vUB.s:3306   .text.iotx_guider_authenticate:0000000000000aaa .LBE169
C:\Users\stapi\AppData\Local\Temp\ccJ15vUB.s:3606   .text.iotx_guider_authenticate:0000000000000ce4 .LBE173
C:\Users\stapi\AppData\Local\Temp\ccJ15vUB.s:3609   .text.iotx_guider_authenticate:0000000000000ce6 .LBB176
C:\Users\stapi\AppData\Local\Temp\ccJ15vUB.s:3614   .text.iotx_guider_authenticate:0000000000000ce8 .LBE176

UNDEFINED SYMBOLS
puts
__riscv_save_7
memcpy
printf
HAL_Printf
__riscv_restore_7
__riscv_save_0
IOT_Ioctl
__riscv_restore_0
__riscv_save_1
__riscv_restore_1
__riscv_save_2
strlen
aos_kv_set
LITE_syslog
__riscv_restore_2
aos_kv_get
atoi
aos_kv_del
__riscv_save_9
__riscv_restore_9
LITE_malloc_internal
HAL_GetProductKey
memset
strcmp
HAL_Snprintf
LITE_free_internal
__riscv_save_3
__riscv_restore_3
HAL_Vsnprintf
strstr
__riscv_save_12
__riscv_restore_12
HAL_GetPartnerID
HAL_GetModuleID
iotx_device_info_get
sdk_impl_get_ctx
iotx_ca_get
httpclient_common
httpclient_close
iotx_facility_json_print
LITE_json_value_of
iotx_state_event
strcpy
strrchr
utils_hmac_sha1
awss_check_reset
awss_get_token
