   1              		.file	"json_parser.c"
   2              		.option nopic
   3              		.attribute arch, "rv32i2p0_m2p0_a2p0_f2p0_c2p0_b_p0p94"
   4              		.attribute unaligned_access, 0
   5              		.attribute stack_align, 16
   6              		.text
   7              	.Ltext0:
   8              		.cfi_sections	.debug_frame
   9              		.section	.text.json_get_value_by_name_cb,"ax",@progbits
  10              		.align	1
  11              		.globl	json_get_value_by_name_cb
  13              	json_get_value_by_name_cb:
  14              	.LFB23:
  15              		.file 1 "C:/Users/stapi/OneDrive/Desktop/GD32VW553/V1_MQTT_OK/GD32VW55X_Wifi_BLE_SDK/GD32VW55x_REL
   1:C:/Users/stapi/OneDrive/Desktop/GD32VW553/V1_MQTT_OK/GD32VW55X_Wifi_BLE_SDK/GD32VW55x_RELEASE_V1.0.2/MSDK/cloud/alicloud/src/infra/utils/misc\json_parser.c **** /*
   2:C:/Users/stapi/OneDrive/Desktop/GD32VW553/V1_MQTT_OK/GD32VW55X_Wifi_BLE_SDK/GD32VW55x_RELEASE_V1.0.2/MSDK/cloud/alicloud/src/infra/utils/misc\json_parser.c ****  * Copyright (C) 2015-2018 Alibaba Group Holding Limited
   3:C:/Users/stapi/OneDrive/Desktop/GD32VW553/V1_MQTT_OK/GD32VW55X_Wifi_BLE_SDK/GD32VW55x_RELEASE_V1.0.2/MSDK/cloud/alicloud/src/infra/utils/misc\json_parser.c ****  */
   4:C:/Users/stapi/OneDrive/Desktop/GD32VW553/V1_MQTT_OK/GD32VW55X_Wifi_BLE_SDK/GD32VW55x_RELEASE_V1.0.2/MSDK/cloud/alicloud/src/infra/utils/misc\json_parser.c **** 
   5:C:/Users/stapi/OneDrive/Desktop/GD32VW553/V1_MQTT_OK/GD32VW55X_Wifi_BLE_SDK/GD32VW55x_RELEASE_V1.0.2/MSDK/cloud/alicloud/src/infra/utils/misc\json_parser.c **** 
   6:C:/Users/stapi/OneDrive/Desktop/GD32VW553/V1_MQTT_OK/GD32VW55X_Wifi_BLE_SDK/GD32VW55x_RELEASE_V1.0.2/MSDK/cloud/alicloud/src/infra/utils/misc\json_parser.c **** 
   7:C:/Users/stapi/OneDrive/Desktop/GD32VW553/V1_MQTT_OK/GD32VW55X_Wifi_BLE_SDK/GD32VW55x_RELEASE_V1.0.2/MSDK/cloud/alicloud/src/infra/utils/misc\json_parser.c **** 
   8:C:/Users/stapi/OneDrive/Desktop/GD32VW553/V1_MQTT_OK/GD32VW55X_Wifi_BLE_SDK/GD32VW55x_RELEASE_V1.0.2/MSDK/cloud/alicloud/src/infra/utils/misc\json_parser.c **** #include <stdio.h>
   9:C:/Users/stapi/OneDrive/Desktop/GD32VW553/V1_MQTT_OK/GD32VW55X_Wifi_BLE_SDK/GD32VW55x_RELEASE_V1.0.2/MSDK/cloud/alicloud/src/infra/utils/misc\json_parser.c **** #include <stdlib.h>
  10:C:/Users/stapi/OneDrive/Desktop/GD32VW553/V1_MQTT_OK/GD32VW55X_Wifi_BLE_SDK/GD32VW55x_RELEASE_V1.0.2/MSDK/cloud/alicloud/src/infra/utils/misc\json_parser.c **** #include <string.h>
  11:C:/Users/stapi/OneDrive/Desktop/GD32VW553/V1_MQTT_OK/GD32VW55X_Wifi_BLE_SDK/GD32VW55x_RELEASE_V1.0.2/MSDK/cloud/alicloud/src/infra/utils/misc\json_parser.c **** #include <stdarg.h>
  12:C:/Users/stapi/OneDrive/Desktop/GD32VW553/V1_MQTT_OK/GD32VW55X_Wifi_BLE_SDK/GD32VW55x_RELEASE_V1.0.2/MSDK/cloud/alicloud/src/infra/utils/misc\json_parser.c **** 
  13:C:/Users/stapi/OneDrive/Desktop/GD32VW553/V1_MQTT_OK/GD32VW55X_Wifi_BLE_SDK/GD32VW55x_RELEASE_V1.0.2/MSDK/cloud/alicloud/src/infra/utils/misc\json_parser.c **** #include "iotx_utils_internal.h"
  14:C:/Users/stapi/OneDrive/Desktop/GD32VW553/V1_MQTT_OK/GD32VW55X_Wifi_BLE_SDK/GD32VW55x_RELEASE_V1.0.2/MSDK/cloud/alicloud/src/infra/utils/misc\json_parser.c **** #include "json_parser.h"
  15:C:/Users/stapi/OneDrive/Desktop/GD32VW553/V1_MQTT_OK/GD32VW55X_Wifi_BLE_SDK/GD32VW55x_RELEASE_V1.0.2/MSDK/cloud/alicloud/src/infra/utils/misc\json_parser.c **** 
  16:C:/Users/stapi/OneDrive/Desktop/GD32VW553/V1_MQTT_OK/GD32VW55X_Wifi_BLE_SDK/GD32VW55x_RELEASE_V1.0.2/MSDK/cloud/alicloud/src/infra/utils/misc\json_parser.c **** #define json_debug log_debug
  17:C:/Users/stapi/OneDrive/Desktop/GD32VW553/V1_MQTT_OK/GD32VW55X_Wifi_BLE_SDK/GD32VW55x_RELEASE_V1.0.2/MSDK/cloud/alicloud/src/infra/utils/misc\json_parser.c **** 
  18:C:/Users/stapi/OneDrive/Desktop/GD32VW553/V1_MQTT_OK/GD32VW55X_Wifi_BLE_SDK/GD32VW55x_RELEASE_V1.0.2/MSDK/cloud/alicloud/src/infra/utils/misc\json_parser.c **** char *json_get_object(int type, char *str, char *str_end)
  19:C:/Users/stapi/OneDrive/Desktop/GD32VW553/V1_MQTT_OK/GD32VW55X_Wifi_BLE_SDK/GD32VW55x_RELEASE_V1.0.2/MSDK/cloud/alicloud/src/infra/utils/misc\json_parser.c **** {
  20:C:/Users/stapi/OneDrive/Desktop/GD32VW553/V1_MQTT_OK/GD32VW55X_Wifi_BLE_SDK/GD32VW55x_RELEASE_V1.0.2/MSDK/cloud/alicloud/src/infra/utils/misc\json_parser.c ****     char *pos = NULL;
  21:C:/Users/stapi/OneDrive/Desktop/GD32VW553/V1_MQTT_OK/GD32VW55X_Wifi_BLE_SDK/GD32VW55x_RELEASE_V1.0.2/MSDK/cloud/alicloud/src/infra/utils/misc\json_parser.c ****     char ch = (type == JOBJECT) ? '{' : '[';
  22:C:/Users/stapi/OneDrive/Desktop/GD32VW553/V1_MQTT_OK/GD32VW55X_Wifi_BLE_SDK/GD32VW55x_RELEASE_V1.0.2/MSDK/cloud/alicloud/src/infra/utils/misc\json_parser.c **** 
  23:C:/Users/stapi/OneDrive/Desktop/GD32VW553/V1_MQTT_OK/GD32VW55X_Wifi_BLE_SDK/GD32VW55x_RELEASE_V1.0.2/MSDK/cloud/alicloud/src/infra/utils/misc\json_parser.c ****     if (!str || !str_end) {
  24:C:/Users/stapi/OneDrive/Desktop/GD32VW553/V1_MQTT_OK/GD32VW55X_Wifi_BLE_SDK/GD32VW55x_RELEASE_V1.0.2/MSDK/cloud/alicloud/src/infra/utils/misc\json_parser.c ****         return NULL;
  25:C:/Users/stapi/OneDrive/Desktop/GD32VW553/V1_MQTT_OK/GD32VW55X_Wifi_BLE_SDK/GD32VW55x_RELEASE_V1.0.2/MSDK/cloud/alicloud/src/infra/utils/misc\json_parser.c ****     }
  26:C:/Users/stapi/OneDrive/Desktop/GD32VW553/V1_MQTT_OK/GD32VW55X_Wifi_BLE_SDK/GD32VW55x_RELEASE_V1.0.2/MSDK/cloud/alicloud/src/infra/utils/misc\json_parser.c **** 
  27:C:/Users/stapi/OneDrive/Desktop/GD32VW553/V1_MQTT_OK/GD32VW55X_Wifi_BLE_SDK/GD32VW55x_RELEASE_V1.0.2/MSDK/cloud/alicloud/src/infra/utils/misc\json_parser.c ****     while (str != NULL && *str != 0 && str < str_end) {
  28:C:/Users/stapi/OneDrive/Desktop/GD32VW553/V1_MQTT_OK/GD32VW55X_Wifi_BLE_SDK/GD32VW55x_RELEASE_V1.0.2/MSDK/cloud/alicloud/src/infra/utils/misc\json_parser.c ****         if (*str == ' ') {
  29:C:/Users/stapi/OneDrive/Desktop/GD32VW553/V1_MQTT_OK/GD32VW55X_Wifi_BLE_SDK/GD32VW55x_RELEASE_V1.0.2/MSDK/cloud/alicloud/src/infra/utils/misc\json_parser.c ****             str++;
  30:C:/Users/stapi/OneDrive/Desktop/GD32VW553/V1_MQTT_OK/GD32VW55X_Wifi_BLE_SDK/GD32VW55x_RELEASE_V1.0.2/MSDK/cloud/alicloud/src/infra/utils/misc\json_parser.c ****             continue;
  31:C:/Users/stapi/OneDrive/Desktop/GD32VW553/V1_MQTT_OK/GD32VW55X_Wifi_BLE_SDK/GD32VW55x_RELEASE_V1.0.2/MSDK/cloud/alicloud/src/infra/utils/misc\json_parser.c ****         }
  32:C:/Users/stapi/OneDrive/Desktop/GD32VW553/V1_MQTT_OK/GD32VW55X_Wifi_BLE_SDK/GD32VW55x_RELEASE_V1.0.2/MSDK/cloud/alicloud/src/infra/utils/misc\json_parser.c ****         pos = (*str == ch) ? str : NULL;
  33:C:/Users/stapi/OneDrive/Desktop/GD32VW553/V1_MQTT_OK/GD32VW55X_Wifi_BLE_SDK/GD32VW55x_RELEASE_V1.0.2/MSDK/cloud/alicloud/src/infra/utils/misc\json_parser.c ****         break;
  34:C:/Users/stapi/OneDrive/Desktop/GD32VW553/V1_MQTT_OK/GD32VW55X_Wifi_BLE_SDK/GD32VW55x_RELEASE_V1.0.2/MSDK/cloud/alicloud/src/infra/utils/misc\json_parser.c ****     }
  35:C:/Users/stapi/OneDrive/Desktop/GD32VW553/V1_MQTT_OK/GD32VW55X_Wifi_BLE_SDK/GD32VW55x_RELEASE_V1.0.2/MSDK/cloud/alicloud/src/infra/utils/misc\json_parser.c ****     return pos;
  36:C:/Users/stapi/OneDrive/Desktop/GD32VW553/V1_MQTT_OK/GD32VW55X_Wifi_BLE_SDK/GD32VW55x_RELEASE_V1.0.2/MSDK/cloud/alicloud/src/infra/utils/misc\json_parser.c **** }
  37:C:/Users/stapi/OneDrive/Desktop/GD32VW553/V1_MQTT_OK/GD32VW55X_Wifi_BLE_SDK/GD32VW55x_RELEASE_V1.0.2/MSDK/cloud/alicloud/src/infra/utils/misc\json_parser.c **** 
  38:C:/Users/stapi/OneDrive/Desktop/GD32VW553/V1_MQTT_OK/GD32VW55X_Wifi_BLE_SDK/GD32VW55x_RELEASE_V1.0.2/MSDK/cloud/alicloud/src/infra/utils/misc\json_parser.c **** char *json_get_next_object(int type, char *str, char *str_end, char **key, int *key_len,
  39:C:/Users/stapi/OneDrive/Desktop/GD32VW553/V1_MQTT_OK/GD32VW55X_Wifi_BLE_SDK/GD32VW55x_RELEASE_V1.0.2/MSDK/cloud/alicloud/src/infra/utils/misc\json_parser.c ****                            char **val, int *val_len, int *val_type)
  40:C:/Users/stapi/OneDrive/Desktop/GD32VW553/V1_MQTT_OK/GD32VW55X_Wifi_BLE_SDK/GD32VW55x_RELEASE_V1.0.2/MSDK/cloud/alicloud/src/infra/utils/misc\json_parser.c **** {
  41:C:/Users/stapi/OneDrive/Desktop/GD32VW553/V1_MQTT_OK/GD32VW55X_Wifi_BLE_SDK/GD32VW55x_RELEASE_V1.0.2/MSDK/cloud/alicloud/src/infra/utils/misc\json_parser.c ****     char    JsonMark[JTYPEMAX][2] = { { '\"', '\"' }, { '{', '}' }, { '[', ']' }, { '0', ' ' } };
  42:C:/Users/stapi/OneDrive/Desktop/GD32VW553/V1_MQTT_OK/GD32VW55X_Wifi_BLE_SDK/GD32VW55x_RELEASE_V1.0.2/MSDK/cloud/alicloud/src/infra/utils/misc\json_parser.c ****     int     iMarkDepth = 0, iValueType = JNONE, iNameLen = 0, iValueLen = 0, iStringDepth = 0;
  43:C:/Users/stapi/OneDrive/Desktop/GD32VW553/V1_MQTT_OK/GD32VW55X_Wifi_BLE_SDK/GD32VW55x_RELEASE_V1.0.2/MSDK/cloud/alicloud/src/infra/utils/misc\json_parser.c ****     char   *p_cName = 0, *p_cValue = 0, *p_cPos = str;
  44:C:/Users/stapi/OneDrive/Desktop/GD32VW553/V1_MQTT_OK/GD32VW55X_Wifi_BLE_SDK/GD32VW55x_RELEASE_V1.0.2/MSDK/cloud/alicloud/src/infra/utils/misc\json_parser.c **** 
  45:C:/Users/stapi/OneDrive/Desktop/GD32VW553/V1_MQTT_OK/GD32VW55X_Wifi_BLE_SDK/GD32VW55x_RELEASE_V1.0.2/MSDK/cloud/alicloud/src/infra/utils/misc\json_parser.c ****     if (type == JOBJECT) {
  46:C:/Users/stapi/OneDrive/Desktop/GD32VW553/V1_MQTT_OK/GD32VW55X_Wifi_BLE_SDK/GD32VW55x_RELEASE_V1.0.2/MSDK/cloud/alicloud/src/infra/utils/misc\json_parser.c ****         /* Get Key */
  47:C:/Users/stapi/OneDrive/Desktop/GD32VW553/V1_MQTT_OK/GD32VW55X_Wifi_BLE_SDK/GD32VW55x_RELEASE_V1.0.2/MSDK/cloud/alicloud/src/infra/utils/misc\json_parser.c ****         p_cPos = strchr(p_cPos, '\"');
  48:C:/Users/stapi/OneDrive/Desktop/GD32VW553/V1_MQTT_OK/GD32VW55X_Wifi_BLE_SDK/GD32VW55x_RELEASE_V1.0.2/MSDK/cloud/alicloud/src/infra/utils/misc\json_parser.c ****         if (!p_cPos) {
  49:C:/Users/stapi/OneDrive/Desktop/GD32VW553/V1_MQTT_OK/GD32VW55X_Wifi_BLE_SDK/GD32VW55x_RELEASE_V1.0.2/MSDK/cloud/alicloud/src/infra/utils/misc\json_parser.c ****             goto do_exit;
  50:C:/Users/stapi/OneDrive/Desktop/GD32VW553/V1_MQTT_OK/GD32VW55X_Wifi_BLE_SDK/GD32VW55x_RELEASE_V1.0.2/MSDK/cloud/alicloud/src/infra/utils/misc\json_parser.c ****         }
  51:C:/Users/stapi/OneDrive/Desktop/GD32VW553/V1_MQTT_OK/GD32VW55X_Wifi_BLE_SDK/GD32VW55x_RELEASE_V1.0.2/MSDK/cloud/alicloud/src/infra/utils/misc\json_parser.c ****         p_cName = ++p_cPos;
  52:C:/Users/stapi/OneDrive/Desktop/GD32VW553/V1_MQTT_OK/GD32VW55X_Wifi_BLE_SDK/GD32VW55x_RELEASE_V1.0.2/MSDK/cloud/alicloud/src/infra/utils/misc\json_parser.c ****         p_cPos = strchr(p_cPos, '\"');
  53:C:/Users/stapi/OneDrive/Desktop/GD32VW553/V1_MQTT_OK/GD32VW55X_Wifi_BLE_SDK/GD32VW55x_RELEASE_V1.0.2/MSDK/cloud/alicloud/src/infra/utils/misc\json_parser.c ****         if (!p_cPos) {
  54:C:/Users/stapi/OneDrive/Desktop/GD32VW553/V1_MQTT_OK/GD32VW55X_Wifi_BLE_SDK/GD32VW55x_RELEASE_V1.0.2/MSDK/cloud/alicloud/src/infra/utils/misc\json_parser.c ****             goto do_exit;
  55:C:/Users/stapi/OneDrive/Desktop/GD32VW553/V1_MQTT_OK/GD32VW55X_Wifi_BLE_SDK/GD32VW55x_RELEASE_V1.0.2/MSDK/cloud/alicloud/src/infra/utils/misc\json_parser.c ****         }
  56:C:/Users/stapi/OneDrive/Desktop/GD32VW553/V1_MQTT_OK/GD32VW55X_Wifi_BLE_SDK/GD32VW55x_RELEASE_V1.0.2/MSDK/cloud/alicloud/src/infra/utils/misc\json_parser.c ****         iNameLen = p_cPos - p_cName;
  57:C:/Users/stapi/OneDrive/Desktop/GD32VW553/V1_MQTT_OK/GD32VW55X_Wifi_BLE_SDK/GD32VW55x_RELEASE_V1.0.2/MSDK/cloud/alicloud/src/infra/utils/misc\json_parser.c **** 
  58:C:/Users/stapi/OneDrive/Desktop/GD32VW553/V1_MQTT_OK/GD32VW55X_Wifi_BLE_SDK/GD32VW55x_RELEASE_V1.0.2/MSDK/cloud/alicloud/src/infra/utils/misc\json_parser.c ****         /* Get Value */
  59:C:/Users/stapi/OneDrive/Desktop/GD32VW553/V1_MQTT_OK/GD32VW55X_Wifi_BLE_SDK/GD32VW55x_RELEASE_V1.0.2/MSDK/cloud/alicloud/src/infra/utils/misc\json_parser.c ****         p_cPos = strchr(p_cPos, ':');
  60:C:/Users/stapi/OneDrive/Desktop/GD32VW553/V1_MQTT_OK/GD32VW55X_Wifi_BLE_SDK/GD32VW55x_RELEASE_V1.0.2/MSDK/cloud/alicloud/src/infra/utils/misc\json_parser.c ****     }
  61:C:/Users/stapi/OneDrive/Desktop/GD32VW553/V1_MQTT_OK/GD32VW55X_Wifi_BLE_SDK/GD32VW55x_RELEASE_V1.0.2/MSDK/cloud/alicloud/src/infra/utils/misc\json_parser.c ****     while (p_cPos && *p_cPos && p_cPos < str_end) {
  62:C:/Users/stapi/OneDrive/Desktop/GD32VW553/V1_MQTT_OK/GD32VW55X_Wifi_BLE_SDK/GD32VW55x_RELEASE_V1.0.2/MSDK/cloud/alicloud/src/infra/utils/misc\json_parser.c ****         if (*p_cPos == '\"') {
  63:C:/Users/stapi/OneDrive/Desktop/GD32VW553/V1_MQTT_OK/GD32VW55X_Wifi_BLE_SDK/GD32VW55x_RELEASE_V1.0.2/MSDK/cloud/alicloud/src/infra/utils/misc\json_parser.c ****             iValueType = JSTRING;
  64:C:/Users/stapi/OneDrive/Desktop/GD32VW553/V1_MQTT_OK/GD32VW55X_Wifi_BLE_SDK/GD32VW55x_RELEASE_V1.0.2/MSDK/cloud/alicloud/src/infra/utils/misc\json_parser.c ****             p_cValue = ++p_cPos;
  65:C:/Users/stapi/OneDrive/Desktop/GD32VW553/V1_MQTT_OK/GD32VW55X_Wifi_BLE_SDK/GD32VW55x_RELEASE_V1.0.2/MSDK/cloud/alicloud/src/infra/utils/misc\json_parser.c ****             break;
  66:C:/Users/stapi/OneDrive/Desktop/GD32VW553/V1_MQTT_OK/GD32VW55X_Wifi_BLE_SDK/GD32VW55x_RELEASE_V1.0.2/MSDK/cloud/alicloud/src/infra/utils/misc\json_parser.c ****         } else if (*p_cPos == '{') {
  67:C:/Users/stapi/OneDrive/Desktop/GD32VW553/V1_MQTT_OK/GD32VW55X_Wifi_BLE_SDK/GD32VW55x_RELEASE_V1.0.2/MSDK/cloud/alicloud/src/infra/utils/misc\json_parser.c ****             iValueType = JOBJECT;
  68:C:/Users/stapi/OneDrive/Desktop/GD32VW553/V1_MQTT_OK/GD32VW55X_Wifi_BLE_SDK/GD32VW55x_RELEASE_V1.0.2/MSDK/cloud/alicloud/src/infra/utils/misc\json_parser.c ****             p_cValue = p_cPos++;
  69:C:/Users/stapi/OneDrive/Desktop/GD32VW553/V1_MQTT_OK/GD32VW55X_Wifi_BLE_SDK/GD32VW55x_RELEASE_V1.0.2/MSDK/cloud/alicloud/src/infra/utils/misc\json_parser.c ****             break;
  70:C:/Users/stapi/OneDrive/Desktop/GD32VW553/V1_MQTT_OK/GD32VW55X_Wifi_BLE_SDK/GD32VW55x_RELEASE_V1.0.2/MSDK/cloud/alicloud/src/infra/utils/misc\json_parser.c ****         } else if (*p_cPos == '[') {
  71:C:/Users/stapi/OneDrive/Desktop/GD32VW553/V1_MQTT_OK/GD32VW55X_Wifi_BLE_SDK/GD32VW55x_RELEASE_V1.0.2/MSDK/cloud/alicloud/src/infra/utils/misc\json_parser.c ****             iValueType = JARRAY;
  72:C:/Users/stapi/OneDrive/Desktop/GD32VW553/V1_MQTT_OK/GD32VW55X_Wifi_BLE_SDK/GD32VW55x_RELEASE_V1.0.2/MSDK/cloud/alicloud/src/infra/utils/misc\json_parser.c ****             p_cValue = p_cPos++;
  73:C:/Users/stapi/OneDrive/Desktop/GD32VW553/V1_MQTT_OK/GD32VW55X_Wifi_BLE_SDK/GD32VW55x_RELEASE_V1.0.2/MSDK/cloud/alicloud/src/infra/utils/misc\json_parser.c ****             break;
  74:C:/Users/stapi/OneDrive/Desktop/GD32VW553/V1_MQTT_OK/GD32VW55X_Wifi_BLE_SDK/GD32VW55x_RELEASE_V1.0.2/MSDK/cloud/alicloud/src/infra/utils/misc\json_parser.c ****         } else if ((*p_cPos == '-') || (*p_cPos >= '0' && *p_cPos <= '9')) {
  75:C:/Users/stapi/OneDrive/Desktop/GD32VW553/V1_MQTT_OK/GD32VW55X_Wifi_BLE_SDK/GD32VW55x_RELEASE_V1.0.2/MSDK/cloud/alicloud/src/infra/utils/misc\json_parser.c ****             iValueType = JNUMBER;
  76:C:/Users/stapi/OneDrive/Desktop/GD32VW553/V1_MQTT_OK/GD32VW55X_Wifi_BLE_SDK/GD32VW55x_RELEASE_V1.0.2/MSDK/cloud/alicloud/src/infra/utils/misc\json_parser.c ****             p_cValue = p_cPos++;
  77:C:/Users/stapi/OneDrive/Desktop/GD32VW553/V1_MQTT_OK/GD32VW55X_Wifi_BLE_SDK/GD32VW55x_RELEASE_V1.0.2/MSDK/cloud/alicloud/src/infra/utils/misc\json_parser.c ****             break;
  78:C:/Users/stapi/OneDrive/Desktop/GD32VW553/V1_MQTT_OK/GD32VW55X_Wifi_BLE_SDK/GD32VW55x_RELEASE_V1.0.2/MSDK/cloud/alicloud/src/infra/utils/misc\json_parser.c ****         } else if (*p_cPos == 't' || *p_cPos == 'T' || *p_cPos == 'f' || *p_cPos == 'F') {
  79:C:/Users/stapi/OneDrive/Desktop/GD32VW553/V1_MQTT_OK/GD32VW55X_Wifi_BLE_SDK/GD32VW55x_RELEASE_V1.0.2/MSDK/cloud/alicloud/src/infra/utils/misc\json_parser.c ****             iValueType = JBOOLEAN;
  80:C:/Users/stapi/OneDrive/Desktop/GD32VW553/V1_MQTT_OK/GD32VW55X_Wifi_BLE_SDK/GD32VW55x_RELEASE_V1.0.2/MSDK/cloud/alicloud/src/infra/utils/misc\json_parser.c ****             p_cValue = p_cPos;
  81:C:/Users/stapi/OneDrive/Desktop/GD32VW553/V1_MQTT_OK/GD32VW55X_Wifi_BLE_SDK/GD32VW55x_RELEASE_V1.0.2/MSDK/cloud/alicloud/src/infra/utils/misc\json_parser.c ****             break;
  82:C:/Users/stapi/OneDrive/Desktop/GD32VW553/V1_MQTT_OK/GD32VW55X_Wifi_BLE_SDK/GD32VW55x_RELEASE_V1.0.2/MSDK/cloud/alicloud/src/infra/utils/misc\json_parser.c ****         }
  83:C:/Users/stapi/OneDrive/Desktop/GD32VW553/V1_MQTT_OK/GD32VW55X_Wifi_BLE_SDK/GD32VW55x_RELEASE_V1.0.2/MSDK/cloud/alicloud/src/infra/utils/misc\json_parser.c ****         p_cPos++;
  84:C:/Users/stapi/OneDrive/Desktop/GD32VW553/V1_MQTT_OK/GD32VW55X_Wifi_BLE_SDK/GD32VW55x_RELEASE_V1.0.2/MSDK/cloud/alicloud/src/infra/utils/misc\json_parser.c ****     }
  85:C:/Users/stapi/OneDrive/Desktop/GD32VW553/V1_MQTT_OK/GD32VW55X_Wifi_BLE_SDK/GD32VW55x_RELEASE_V1.0.2/MSDK/cloud/alicloud/src/infra/utils/misc\json_parser.c **** 
  86:C:/Users/stapi/OneDrive/Desktop/GD32VW553/V1_MQTT_OK/GD32VW55X_Wifi_BLE_SDK/GD32VW55x_RELEASE_V1.0.2/MSDK/cloud/alicloud/src/infra/utils/misc\json_parser.c ****     while (p_cPos && *p_cPos && p_cPos < str_end && iValueType > JNONE) {
  87:C:/Users/stapi/OneDrive/Desktop/GD32VW553/V1_MQTT_OK/GD32VW55X_Wifi_BLE_SDK/GD32VW55x_RELEASE_V1.0.2/MSDK/cloud/alicloud/src/infra/utils/misc\json_parser.c ****         if (iValueType == JBOOLEAN) {
  88:C:/Users/stapi/OneDrive/Desktop/GD32VW553/V1_MQTT_OK/GD32VW55X_Wifi_BLE_SDK/GD32VW55x_RELEASE_V1.0.2/MSDK/cloud/alicloud/src/infra/utils/misc\json_parser.c ****             int     len = strlen(p_cValue);
  89:C:/Users/stapi/OneDrive/Desktop/GD32VW553/V1_MQTT_OK/GD32VW55X_Wifi_BLE_SDK/GD32VW55x_RELEASE_V1.0.2/MSDK/cloud/alicloud/src/infra/utils/misc\json_parser.c **** 
  90:C:/Users/stapi/OneDrive/Desktop/GD32VW553/V1_MQTT_OK/GD32VW55X_Wifi_BLE_SDK/GD32VW55x_RELEASE_V1.0.2/MSDK/cloud/alicloud/src/infra/utils/misc\json_parser.c ****             if ((*p_cValue == 't' || *p_cValue == 'T') && len >= 4
  91:C:/Users/stapi/OneDrive/Desktop/GD32VW553/V1_MQTT_OK/GD32VW55X_Wifi_BLE_SDK/GD32VW55x_RELEASE_V1.0.2/MSDK/cloud/alicloud/src/infra/utils/misc\json_parser.c ****                 && (!strncmp(p_cValue, "true", 4)
  92:C:/Users/stapi/OneDrive/Desktop/GD32VW553/V1_MQTT_OK/GD32VW55X_Wifi_BLE_SDK/GD32VW55x_RELEASE_V1.0.2/MSDK/cloud/alicloud/src/infra/utils/misc\json_parser.c ****                     || !strncmp(p_cValue, "TRUE", 4))) {
  93:C:/Users/stapi/OneDrive/Desktop/GD32VW553/V1_MQTT_OK/GD32VW55X_Wifi_BLE_SDK/GD32VW55x_RELEASE_V1.0.2/MSDK/cloud/alicloud/src/infra/utils/misc\json_parser.c ****                 iValueLen = 4;
  94:C:/Users/stapi/OneDrive/Desktop/GD32VW553/V1_MQTT_OK/GD32VW55X_Wifi_BLE_SDK/GD32VW55x_RELEASE_V1.0.2/MSDK/cloud/alicloud/src/infra/utils/misc\json_parser.c ****                 p_cPos = p_cValue + iValueLen;
  95:C:/Users/stapi/OneDrive/Desktop/GD32VW553/V1_MQTT_OK/GD32VW55X_Wifi_BLE_SDK/GD32VW55x_RELEASE_V1.0.2/MSDK/cloud/alicloud/src/infra/utils/misc\json_parser.c ****                 break;
  96:C:/Users/stapi/OneDrive/Desktop/GD32VW553/V1_MQTT_OK/GD32VW55X_Wifi_BLE_SDK/GD32VW55x_RELEASE_V1.0.2/MSDK/cloud/alicloud/src/infra/utils/misc\json_parser.c ****             } else if ((*p_cValue == 'f' || *p_cValue == 'F') && len >= 5
  97:C:/Users/stapi/OneDrive/Desktop/GD32VW553/V1_MQTT_OK/GD32VW55X_Wifi_BLE_SDK/GD32VW55x_RELEASE_V1.0.2/MSDK/cloud/alicloud/src/infra/utils/misc\json_parser.c ****                        && (!strncmp(p_cValue, "false", 5)
  98:C:/Users/stapi/OneDrive/Desktop/GD32VW553/V1_MQTT_OK/GD32VW55X_Wifi_BLE_SDK/GD32VW55x_RELEASE_V1.0.2/MSDK/cloud/alicloud/src/infra/utils/misc\json_parser.c ****                            || !strncmp(p_cValue, "FALSE", 5))) {
  99:C:/Users/stapi/OneDrive/Desktop/GD32VW553/V1_MQTT_OK/GD32VW55X_Wifi_BLE_SDK/GD32VW55x_RELEASE_V1.0.2/MSDK/cloud/alicloud/src/infra/utils/misc\json_parser.c ****                 iValueLen = 5;
 100:C:/Users/stapi/OneDrive/Desktop/GD32VW553/V1_MQTT_OK/GD32VW55X_Wifi_BLE_SDK/GD32VW55x_RELEASE_V1.0.2/MSDK/cloud/alicloud/src/infra/utils/misc\json_parser.c ****                 p_cPos = p_cValue + iValueLen;
 101:C:/Users/stapi/OneDrive/Desktop/GD32VW553/V1_MQTT_OK/GD32VW55X_Wifi_BLE_SDK/GD32VW55x_RELEASE_V1.0.2/MSDK/cloud/alicloud/src/infra/utils/misc\json_parser.c ****                 break;
 102:C:/Users/stapi/OneDrive/Desktop/GD32VW553/V1_MQTT_OK/GD32VW55X_Wifi_BLE_SDK/GD32VW55x_RELEASE_V1.0.2/MSDK/cloud/alicloud/src/infra/utils/misc\json_parser.c ****             }
 103:C:/Users/stapi/OneDrive/Desktop/GD32VW553/V1_MQTT_OK/GD32VW55X_Wifi_BLE_SDK/GD32VW55x_RELEASE_V1.0.2/MSDK/cloud/alicloud/src/infra/utils/misc\json_parser.c ****         } else if (iValueType == JNUMBER) {
 104:C:/Users/stapi/OneDrive/Desktop/GD32VW553/V1_MQTT_OK/GD32VW55X_Wifi_BLE_SDK/GD32VW55x_RELEASE_V1.0.2/MSDK/cloud/alicloud/src/infra/utils/misc\json_parser.c ****             if ((*p_cPos < '0' || *p_cPos > '9') && (*p_cPos != '.') && (*p_cPos != '+') \
 105:C:/Users/stapi/OneDrive/Desktop/GD32VW553/V1_MQTT_OK/GD32VW55X_Wifi_BLE_SDK/GD32VW55x_RELEASE_V1.0.2/MSDK/cloud/alicloud/src/infra/utils/misc\json_parser.c ****                 && (*p_cPos != '-') && ((*p_cPos != 'e')) && (*p_cPos != 'E')) {
 106:C:/Users/stapi/OneDrive/Desktop/GD32VW553/V1_MQTT_OK/GD32VW55X_Wifi_BLE_SDK/GD32VW55x_RELEASE_V1.0.2/MSDK/cloud/alicloud/src/infra/utils/misc\json_parser.c ****                 iValueLen = p_cPos - p_cValue;
 107:C:/Users/stapi/OneDrive/Desktop/GD32VW553/V1_MQTT_OK/GD32VW55X_Wifi_BLE_SDK/GD32VW55x_RELEASE_V1.0.2/MSDK/cloud/alicloud/src/infra/utils/misc\json_parser.c ****                 break;
 108:C:/Users/stapi/OneDrive/Desktop/GD32VW553/V1_MQTT_OK/GD32VW55X_Wifi_BLE_SDK/GD32VW55x_RELEASE_V1.0.2/MSDK/cloud/alicloud/src/infra/utils/misc\json_parser.c ****             }
 109:C:/Users/stapi/OneDrive/Desktop/GD32VW553/V1_MQTT_OK/GD32VW55X_Wifi_BLE_SDK/GD32VW55x_RELEASE_V1.0.2/MSDK/cloud/alicloud/src/infra/utils/misc\json_parser.c ****         } else if (iValueType == JSTRING) {
 110:C:/Users/stapi/OneDrive/Desktop/GD32VW553/V1_MQTT_OK/GD32VW55X_Wifi_BLE_SDK/GD32VW55x_RELEASE_V1.0.2/MSDK/cloud/alicloud/src/infra/utils/misc\json_parser.c ****             if (*p_cPos == '\"') {
 111:C:/Users/stapi/OneDrive/Desktop/GD32VW553/V1_MQTT_OK/GD32VW55X_Wifi_BLE_SDK/GD32VW55x_RELEASE_V1.0.2/MSDK/cloud/alicloud/src/infra/utils/misc\json_parser.c ****                 iValueLen = p_cPos - p_cValue;
 112:C:/Users/stapi/OneDrive/Desktop/GD32VW553/V1_MQTT_OK/GD32VW55X_Wifi_BLE_SDK/GD32VW55x_RELEASE_V1.0.2/MSDK/cloud/alicloud/src/infra/utils/misc\json_parser.c ****                 break;
 113:C:/Users/stapi/OneDrive/Desktop/GD32VW553/V1_MQTT_OK/GD32VW55X_Wifi_BLE_SDK/GD32VW55x_RELEASE_V1.0.2/MSDK/cloud/alicloud/src/infra/utils/misc\json_parser.c ****             }
 114:C:/Users/stapi/OneDrive/Desktop/GD32VW553/V1_MQTT_OK/GD32VW55X_Wifi_BLE_SDK/GD32VW55x_RELEASE_V1.0.2/MSDK/cloud/alicloud/src/infra/utils/misc\json_parser.c ****         } else if (*p_cPos == JsonMark[iValueType][1]) {
 115:C:/Users/stapi/OneDrive/Desktop/GD32VW553/V1_MQTT_OK/GD32VW55X_Wifi_BLE_SDK/GD32VW55x_RELEASE_V1.0.2/MSDK/cloud/alicloud/src/infra/utils/misc\json_parser.c ****             if (iStringDepth  == 0) {
 116:C:/Users/stapi/OneDrive/Desktop/GD32VW553/V1_MQTT_OK/GD32VW55X_Wifi_BLE_SDK/GD32VW55x_RELEASE_V1.0.2/MSDK/cloud/alicloud/src/infra/utils/misc\json_parser.c ****                 if (iMarkDepth == 0) {
 117:C:/Users/stapi/OneDrive/Desktop/GD32VW553/V1_MQTT_OK/GD32VW55X_Wifi_BLE_SDK/GD32VW55x_RELEASE_V1.0.2/MSDK/cloud/alicloud/src/infra/utils/misc\json_parser.c ****                     iValueLen = p_cPos - p_cValue + 1;
 118:C:/Users/stapi/OneDrive/Desktop/GD32VW553/V1_MQTT_OK/GD32VW55X_Wifi_BLE_SDK/GD32VW55x_RELEASE_V1.0.2/MSDK/cloud/alicloud/src/infra/utils/misc\json_parser.c ****                     p_cPos++;
 119:C:/Users/stapi/OneDrive/Desktop/GD32VW553/V1_MQTT_OK/GD32VW55X_Wifi_BLE_SDK/GD32VW55x_RELEASE_V1.0.2/MSDK/cloud/alicloud/src/infra/utils/misc\json_parser.c ****                     break;
 120:C:/Users/stapi/OneDrive/Desktop/GD32VW553/V1_MQTT_OK/GD32VW55X_Wifi_BLE_SDK/GD32VW55x_RELEASE_V1.0.2/MSDK/cloud/alicloud/src/infra/utils/misc\json_parser.c ****                 } else {
 121:C:/Users/stapi/OneDrive/Desktop/GD32VW553/V1_MQTT_OK/GD32VW55X_Wifi_BLE_SDK/GD32VW55x_RELEASE_V1.0.2/MSDK/cloud/alicloud/src/infra/utils/misc\json_parser.c ****                     iMarkDepth--;
 122:C:/Users/stapi/OneDrive/Desktop/GD32VW553/V1_MQTT_OK/GD32VW55X_Wifi_BLE_SDK/GD32VW55x_RELEASE_V1.0.2/MSDK/cloud/alicloud/src/infra/utils/misc\json_parser.c ****                 }
 123:C:/Users/stapi/OneDrive/Desktop/GD32VW553/V1_MQTT_OK/GD32VW55X_Wifi_BLE_SDK/GD32VW55x_RELEASE_V1.0.2/MSDK/cloud/alicloud/src/infra/utils/misc\json_parser.c ****             }
 124:C:/Users/stapi/OneDrive/Desktop/GD32VW553/V1_MQTT_OK/GD32VW55X_Wifi_BLE_SDK/GD32VW55x_RELEASE_V1.0.2/MSDK/cloud/alicloud/src/infra/utils/misc\json_parser.c ****         } else if (*p_cPos == JsonMark[iValueType][0]) {
 125:C:/Users/stapi/OneDrive/Desktop/GD32VW553/V1_MQTT_OK/GD32VW55X_Wifi_BLE_SDK/GD32VW55x_RELEASE_V1.0.2/MSDK/cloud/alicloud/src/infra/utils/misc\json_parser.c ****             if (iStringDepth == 0) {
 126:C:/Users/stapi/OneDrive/Desktop/GD32VW553/V1_MQTT_OK/GD32VW55X_Wifi_BLE_SDK/GD32VW55x_RELEASE_V1.0.2/MSDK/cloud/alicloud/src/infra/utils/misc\json_parser.c ****                 iMarkDepth++;
 127:C:/Users/stapi/OneDrive/Desktop/GD32VW553/V1_MQTT_OK/GD32VW55X_Wifi_BLE_SDK/GD32VW55x_RELEASE_V1.0.2/MSDK/cloud/alicloud/src/infra/utils/misc\json_parser.c ****             }
 128:C:/Users/stapi/OneDrive/Desktop/GD32VW553/V1_MQTT_OK/GD32VW55X_Wifi_BLE_SDK/GD32VW55x_RELEASE_V1.0.2/MSDK/cloud/alicloud/src/infra/utils/misc\json_parser.c ****         } else if (*p_cPos == '\"') {
 129:C:/Users/stapi/OneDrive/Desktop/GD32VW553/V1_MQTT_OK/GD32VW55X_Wifi_BLE_SDK/GD32VW55x_RELEASE_V1.0.2/MSDK/cloud/alicloud/src/infra/utils/misc\json_parser.c ****             if (iStringDepth) {
 130:C:/Users/stapi/OneDrive/Desktop/GD32VW553/V1_MQTT_OK/GD32VW55X_Wifi_BLE_SDK/GD32VW55x_RELEASE_V1.0.2/MSDK/cloud/alicloud/src/infra/utils/misc\json_parser.c ****                 iStringDepth = 0;
 131:C:/Users/stapi/OneDrive/Desktop/GD32VW553/V1_MQTT_OK/GD32VW55X_Wifi_BLE_SDK/GD32VW55x_RELEASE_V1.0.2/MSDK/cloud/alicloud/src/infra/utils/misc\json_parser.c ****             } else {
 132:C:/Users/stapi/OneDrive/Desktop/GD32VW553/V1_MQTT_OK/GD32VW55X_Wifi_BLE_SDK/GD32VW55x_RELEASE_V1.0.2/MSDK/cloud/alicloud/src/infra/utils/misc\json_parser.c ****                 iStringDepth = 1;
 133:C:/Users/stapi/OneDrive/Desktop/GD32VW553/V1_MQTT_OK/GD32VW55X_Wifi_BLE_SDK/GD32VW55x_RELEASE_V1.0.2/MSDK/cloud/alicloud/src/infra/utils/misc\json_parser.c ****             }
 134:C:/Users/stapi/OneDrive/Desktop/GD32VW553/V1_MQTT_OK/GD32VW55X_Wifi_BLE_SDK/GD32VW55x_RELEASE_V1.0.2/MSDK/cloud/alicloud/src/infra/utils/misc\json_parser.c ****         }
 135:C:/Users/stapi/OneDrive/Desktop/GD32VW553/V1_MQTT_OK/GD32VW55X_Wifi_BLE_SDK/GD32VW55x_RELEASE_V1.0.2/MSDK/cloud/alicloud/src/infra/utils/misc\json_parser.c ****         p_cPos++;
 136:C:/Users/stapi/OneDrive/Desktop/GD32VW553/V1_MQTT_OK/GD32VW55X_Wifi_BLE_SDK/GD32VW55x_RELEASE_V1.0.2/MSDK/cloud/alicloud/src/infra/utils/misc\json_parser.c ****     }
 137:C:/Users/stapi/OneDrive/Desktop/GD32VW553/V1_MQTT_OK/GD32VW55X_Wifi_BLE_SDK/GD32VW55x_RELEASE_V1.0.2/MSDK/cloud/alicloud/src/infra/utils/misc\json_parser.c **** 
 138:C:/Users/stapi/OneDrive/Desktop/GD32VW553/V1_MQTT_OK/GD32VW55X_Wifi_BLE_SDK/GD32VW55x_RELEASE_V1.0.2/MSDK/cloud/alicloud/src/infra/utils/misc\json_parser.c ****     if (type == JOBJECT) {
 139:C:/Users/stapi/OneDrive/Desktop/GD32VW553/V1_MQTT_OK/GD32VW55X_Wifi_BLE_SDK/GD32VW55x_RELEASE_V1.0.2/MSDK/cloud/alicloud/src/infra/utils/misc\json_parser.c ****         if ((p_cName + iNameLen) > str_end) {
 140:C:/Users/stapi/OneDrive/Desktop/GD32VW553/V1_MQTT_OK/GD32VW55X_Wifi_BLE_SDK/GD32VW55x_RELEASE_V1.0.2/MSDK/cloud/alicloud/src/infra/utils/misc\json_parser.c ****             goto do_exit;
 141:C:/Users/stapi/OneDrive/Desktop/GD32VW553/V1_MQTT_OK/GD32VW55X_Wifi_BLE_SDK/GD32VW55x_RELEASE_V1.0.2/MSDK/cloud/alicloud/src/infra/utils/misc\json_parser.c ****         }
 142:C:/Users/stapi/OneDrive/Desktop/GD32VW553/V1_MQTT_OK/GD32VW55X_Wifi_BLE_SDK/GD32VW55x_RELEASE_V1.0.2/MSDK/cloud/alicloud/src/infra/utils/misc\json_parser.c ****         *key = p_cName;
 143:C:/Users/stapi/OneDrive/Desktop/GD32VW553/V1_MQTT_OK/GD32VW55X_Wifi_BLE_SDK/GD32VW55x_RELEASE_V1.0.2/MSDK/cloud/alicloud/src/infra/utils/misc\json_parser.c ****         *key_len = iNameLen;
 144:C:/Users/stapi/OneDrive/Desktop/GD32VW553/V1_MQTT_OK/GD32VW55X_Wifi_BLE_SDK/GD32VW55x_RELEASE_V1.0.2/MSDK/cloud/alicloud/src/infra/utils/misc\json_parser.c ****     }
 145:C:/Users/stapi/OneDrive/Desktop/GD32VW553/V1_MQTT_OK/GD32VW55X_Wifi_BLE_SDK/GD32VW55x_RELEASE_V1.0.2/MSDK/cloud/alicloud/src/infra/utils/misc\json_parser.c ****     if ((p_cValue + iValueLen) > str_end) {
 146:C:/Users/stapi/OneDrive/Desktop/GD32VW553/V1_MQTT_OK/GD32VW55X_Wifi_BLE_SDK/GD32VW55x_RELEASE_V1.0.2/MSDK/cloud/alicloud/src/infra/utils/misc\json_parser.c ****         goto do_exit;
 147:C:/Users/stapi/OneDrive/Desktop/GD32VW553/V1_MQTT_OK/GD32VW55X_Wifi_BLE_SDK/GD32VW55x_RELEASE_V1.0.2/MSDK/cloud/alicloud/src/infra/utils/misc\json_parser.c ****     }
 148:C:/Users/stapi/OneDrive/Desktop/GD32VW553/V1_MQTT_OK/GD32VW55X_Wifi_BLE_SDK/GD32VW55x_RELEASE_V1.0.2/MSDK/cloud/alicloud/src/infra/utils/misc\json_parser.c **** 
 149:C:/Users/stapi/OneDrive/Desktop/GD32VW553/V1_MQTT_OK/GD32VW55X_Wifi_BLE_SDK/GD32VW55x_RELEASE_V1.0.2/MSDK/cloud/alicloud/src/infra/utils/misc\json_parser.c ****     *val = p_cValue;
 150:C:/Users/stapi/OneDrive/Desktop/GD32VW553/V1_MQTT_OK/GD32VW55X_Wifi_BLE_SDK/GD32VW55x_RELEASE_V1.0.2/MSDK/cloud/alicloud/src/infra/utils/misc\json_parser.c ****     *val_len = iValueLen;
 151:C:/Users/stapi/OneDrive/Desktop/GD32VW553/V1_MQTT_OK/GD32VW55X_Wifi_BLE_SDK/GD32VW55x_RELEASE_V1.0.2/MSDK/cloud/alicloud/src/infra/utils/misc\json_parser.c ****     *val_type = iValueType;
 152:C:/Users/stapi/OneDrive/Desktop/GD32VW553/V1_MQTT_OK/GD32VW55X_Wifi_BLE_SDK/GD32VW55x_RELEASE_V1.0.2/MSDK/cloud/alicloud/src/infra/utils/misc\json_parser.c ****     if (iValueType == JSTRING) {
 153:C:/Users/stapi/OneDrive/Desktop/GD32VW553/V1_MQTT_OK/GD32VW55X_Wifi_BLE_SDK/GD32VW55x_RELEASE_V1.0.2/MSDK/cloud/alicloud/src/infra/utils/misc\json_parser.c ****         return p_cValue + iValueLen + 1;
 154:C:/Users/stapi/OneDrive/Desktop/GD32VW553/V1_MQTT_OK/GD32VW55X_Wifi_BLE_SDK/GD32VW55x_RELEASE_V1.0.2/MSDK/cloud/alicloud/src/infra/utils/misc\json_parser.c ****     } else {
 155:C:/Users/stapi/OneDrive/Desktop/GD32VW553/V1_MQTT_OK/GD32VW55X_Wifi_BLE_SDK/GD32VW55x_RELEASE_V1.0.2/MSDK/cloud/alicloud/src/infra/utils/misc\json_parser.c ****         return p_cValue + iValueLen;
 156:C:/Users/stapi/OneDrive/Desktop/GD32VW553/V1_MQTT_OK/GD32VW55X_Wifi_BLE_SDK/GD32VW55x_RELEASE_V1.0.2/MSDK/cloud/alicloud/src/infra/utils/misc\json_parser.c ****     }
 157:C:/Users/stapi/OneDrive/Desktop/GD32VW553/V1_MQTT_OK/GD32VW55X_Wifi_BLE_SDK/GD32VW55x_RELEASE_V1.0.2/MSDK/cloud/alicloud/src/infra/utils/misc\json_parser.c **** 
 158:C:/Users/stapi/OneDrive/Desktop/GD32VW553/V1_MQTT_OK/GD32VW55X_Wifi_BLE_SDK/GD32VW55x_RELEASE_V1.0.2/MSDK/cloud/alicloud/src/infra/utils/misc\json_parser.c **** do_exit:
 159:C:/Users/stapi/OneDrive/Desktop/GD32VW553/V1_MQTT_OK/GD32VW55X_Wifi_BLE_SDK/GD32VW55x_RELEASE_V1.0.2/MSDK/cloud/alicloud/src/infra/utils/misc\json_parser.c ****     *val = NULL;
 160:C:/Users/stapi/OneDrive/Desktop/GD32VW553/V1_MQTT_OK/GD32VW55X_Wifi_BLE_SDK/GD32VW55x_RELEASE_V1.0.2/MSDK/cloud/alicloud/src/infra/utils/misc\json_parser.c ****     *val_len = 0;
 161:C:/Users/stapi/OneDrive/Desktop/GD32VW553/V1_MQTT_OK/GD32VW55X_Wifi_BLE_SDK/GD32VW55x_RELEASE_V1.0.2/MSDK/cloud/alicloud/src/infra/utils/misc\json_parser.c ****     *key = NULL;
 162:C:/Users/stapi/OneDrive/Desktop/GD32VW553/V1_MQTT_OK/GD32VW55X_Wifi_BLE_SDK/GD32VW55x_RELEASE_V1.0.2/MSDK/cloud/alicloud/src/infra/utils/misc\json_parser.c ****     *key_len = 0;
 163:C:/Users/stapi/OneDrive/Desktop/GD32VW553/V1_MQTT_OK/GD32VW55X_Wifi_BLE_SDK/GD32VW55x_RELEASE_V1.0.2/MSDK/cloud/alicloud/src/infra/utils/misc\json_parser.c ****     return NULL;
 164:C:/Users/stapi/OneDrive/Desktop/GD32VW553/V1_MQTT_OK/GD32VW55X_Wifi_BLE_SDK/GD32VW55x_RELEASE_V1.0.2/MSDK/cloud/alicloud/src/infra/utils/misc\json_parser.c **** }
 165:C:/Users/stapi/OneDrive/Desktop/GD32VW553/V1_MQTT_OK/GD32VW55X_Wifi_BLE_SDK/GD32VW55x_RELEASE_V1.0.2/MSDK/cloud/alicloud/src/infra/utils/misc\json_parser.c **** 
 166:C:/Users/stapi/OneDrive/Desktop/GD32VW553/V1_MQTT_OK/GD32VW55X_Wifi_BLE_SDK/GD32VW55x_RELEASE_V1.0.2/MSDK/cloud/alicloud/src/infra/utils/misc\json_parser.c **** int json_parse_name_value(char *p_cJsonStr, int iStrLen, json_parse_cb pfnCB, void *p_CBData)
 167:C:/Users/stapi/OneDrive/Desktop/GD32VW553/V1_MQTT_OK/GD32VW55X_Wifi_BLE_SDK/GD32VW55x_RELEASE_V1.0.2/MSDK/cloud/alicloud/src/infra/utils/misc\json_parser.c **** {
 168:C:/Users/stapi/OneDrive/Desktop/GD32VW553/V1_MQTT_OK/GD32VW55X_Wifi_BLE_SDK/GD32VW55x_RELEASE_V1.0.2/MSDK/cloud/alicloud/src/infra/utils/misc\json_parser.c ****     char    *pos = 0, *key = 0, *val = 0;
 169:C:/Users/stapi/OneDrive/Desktop/GD32VW553/V1_MQTT_OK/GD32VW55X_Wifi_BLE_SDK/GD32VW55x_RELEASE_V1.0.2/MSDK/cloud/alicloud/src/infra/utils/misc\json_parser.c ****     int     klen = 0, vlen = 0, vtype = 0;
 170:C:/Users/stapi/OneDrive/Desktop/GD32VW553/V1_MQTT_OK/GD32VW55X_Wifi_BLE_SDK/GD32VW55x_RELEASE_V1.0.2/MSDK/cloud/alicloud/src/infra/utils/misc\json_parser.c ****     int     ret = JSON_RESULT_ERR;
 171:C:/Users/stapi/OneDrive/Desktop/GD32VW553/V1_MQTT_OK/GD32VW55X_Wifi_BLE_SDK/GD32VW55x_RELEASE_V1.0.2/MSDK/cloud/alicloud/src/infra/utils/misc\json_parser.c **** 
 172:C:/Users/stapi/OneDrive/Desktop/GD32VW553/V1_MQTT_OK/GD32VW55X_Wifi_BLE_SDK/GD32VW55x_RELEASE_V1.0.2/MSDK/cloud/alicloud/src/infra/utils/misc\json_parser.c ****     if (p_cJsonStr == NULL || iStrLen == 0 || pfnCB == NULL) {
 173:C:/Users/stapi/OneDrive/Desktop/GD32VW553/V1_MQTT_OK/GD32VW55X_Wifi_BLE_SDK/GD32VW55x_RELEASE_V1.0.2/MSDK/cloud/alicloud/src/infra/utils/misc\json_parser.c ****         return ret;
 174:C:/Users/stapi/OneDrive/Desktop/GD32VW553/V1_MQTT_OK/GD32VW55X_Wifi_BLE_SDK/GD32VW55x_RELEASE_V1.0.2/MSDK/cloud/alicloud/src/infra/utils/misc\json_parser.c ****     }
 175:C:/Users/stapi/OneDrive/Desktop/GD32VW553/V1_MQTT_OK/GD32VW55X_Wifi_BLE_SDK/GD32VW55x_RELEASE_V1.0.2/MSDK/cloud/alicloud/src/infra/utils/misc\json_parser.c **** 
 176:C:/Users/stapi/OneDrive/Desktop/GD32VW553/V1_MQTT_OK/GD32VW55X_Wifi_BLE_SDK/GD32VW55x_RELEASE_V1.0.2/MSDK/cloud/alicloud/src/infra/utils/misc\json_parser.c ****     json_object_for_each_kv(p_cJsonStr, iStrLen, pos, key, klen, val, vlen, vtype) {
 177:C:/Users/stapi/OneDrive/Desktop/GD32VW553/V1_MQTT_OK/GD32VW55X_Wifi_BLE_SDK/GD32VW55x_RELEASE_V1.0.2/MSDK/cloud/alicloud/src/infra/utils/misc\json_parser.c ****         if (key && klen && val && vlen) {
 178:C:/Users/stapi/OneDrive/Desktop/GD32VW553/V1_MQTT_OK/GD32VW55X_Wifi_BLE_SDK/GD32VW55x_RELEASE_V1.0.2/MSDK/cloud/alicloud/src/infra/utils/misc\json_parser.c ****             ret = JSON_RESULT_OK;
 179:C:/Users/stapi/OneDrive/Desktop/GD32VW553/V1_MQTT_OK/GD32VW55X_Wifi_BLE_SDK/GD32VW55x_RELEASE_V1.0.2/MSDK/cloud/alicloud/src/infra/utils/misc\json_parser.c ****             if (JSON_PARSE_FINISH == pfnCB(key, klen, val, vlen, vtype, p_CBData)) {
 180:C:/Users/stapi/OneDrive/Desktop/GD32VW553/V1_MQTT_OK/GD32VW55X_Wifi_BLE_SDK/GD32VW55x_RELEASE_V1.0.2/MSDK/cloud/alicloud/src/infra/utils/misc\json_parser.c ****                 break;
 181:C:/Users/stapi/OneDrive/Desktop/GD32VW553/V1_MQTT_OK/GD32VW55X_Wifi_BLE_SDK/GD32VW55x_RELEASE_V1.0.2/MSDK/cloud/alicloud/src/infra/utils/misc\json_parser.c ****             }
 182:C:/Users/stapi/OneDrive/Desktop/GD32VW553/V1_MQTT_OK/GD32VW55X_Wifi_BLE_SDK/GD32VW55x_RELEASE_V1.0.2/MSDK/cloud/alicloud/src/infra/utils/misc\json_parser.c ****         }
 183:C:/Users/stapi/OneDrive/Desktop/GD32VW553/V1_MQTT_OK/GD32VW55X_Wifi_BLE_SDK/GD32VW55x_RELEASE_V1.0.2/MSDK/cloud/alicloud/src/infra/utils/misc\json_parser.c ****     }
 184:C:/Users/stapi/OneDrive/Desktop/GD32VW553/V1_MQTT_OK/GD32VW55X_Wifi_BLE_SDK/GD32VW55x_RELEASE_V1.0.2/MSDK/cloud/alicloud/src/infra/utils/misc\json_parser.c **** 
 185:C:/Users/stapi/OneDrive/Desktop/GD32VW553/V1_MQTT_OK/GD32VW55X_Wifi_BLE_SDK/GD32VW55x_RELEASE_V1.0.2/MSDK/cloud/alicloud/src/infra/utils/misc\json_parser.c ****     return ret;
 186:C:/Users/stapi/OneDrive/Desktop/GD32VW553/V1_MQTT_OK/GD32VW55X_Wifi_BLE_SDK/GD32VW55x_RELEASE_V1.0.2/MSDK/cloud/alicloud/src/infra/utils/misc\json_parser.c **** }
 187:C:/Users/stapi/OneDrive/Desktop/GD32VW553/V1_MQTT_OK/GD32VW55X_Wifi_BLE_SDK/GD32VW55x_RELEASE_V1.0.2/MSDK/cloud/alicloud/src/infra/utils/misc\json_parser.c **** 
 188:C:/Users/stapi/OneDrive/Desktop/GD32VW553/V1_MQTT_OK/GD32VW55X_Wifi_BLE_SDK/GD32VW55x_RELEASE_V1.0.2/MSDK/cloud/alicloud/src/infra/utils/misc\json_parser.c **** int json_get_value_by_name_cb(char *p_cName, int iNameLen, char *p_cValue, int iValueLen, int iValu
 189:C:/Users/stapi/OneDrive/Desktop/GD32VW553/V1_MQTT_OK/GD32VW55X_Wifi_BLE_SDK/GD32VW55x_RELEASE_V1.0.2/MSDK/cloud/alicloud/src/infra/utils/misc\json_parser.c ****                               void *p_CBData)
 190:C:/Users/stapi/OneDrive/Desktop/GD32VW553/V1_MQTT_OK/GD32VW55X_Wifi_BLE_SDK/GD32VW55x_RELEASE_V1.0.2/MSDK/cloud/alicloud/src/infra/utils/misc\json_parser.c **** {
  16              		.loc 1 190 1
  17              		.cfi_startproc
  18              	.LVL0:
  19 0000 17030000 		call	t0,__riscv_save_4
  19      E7020300 
  20              		.cfi_offset 19, -20
  21              		.cfi_offset 18, -16
  22              		.cfi_offset 9, -12
  23              		.cfi_offset 8, -8
  24              		.cfi_offset 1, -4
  25              		.cfi_def_cfa_offset 32
  26              		.loc 1 190 1 is_stmt 0
  27 0008 B289     		mv	s3,a2
 191:C:/Users/stapi/OneDrive/Desktop/GD32VW553/V1_MQTT_OK/GD32VW55X_Wifi_BLE_SDK/GD32VW55x_RELEASE_V1.0.2/MSDK/cloud/alicloud/src/infra/utils/misc\json_parser.c ****     JSON_NV     *p_stNameValue = (JSON_NV *)p_CBData;
  28              		.loc 1 191 5 is_stmt 1
  29              	.LVL1:
 192:C:/Users/stapi/OneDrive/Desktop/GD32VW553/V1_MQTT_OK/GD32VW55X_Wifi_BLE_SDK/GD32VW55x_RELEASE_V1.0.2/MSDK/cloud/alicloud/src/infra/utils/misc\json_parser.c **** 
 193:C:/Users/stapi/OneDrive/Desktop/GD32VW553/V1_MQTT_OK/GD32VW55X_Wifi_BLE_SDK/GD32VW55x_RELEASE_V1.0.2/MSDK/cloud/alicloud/src/infra/utils/misc\json_parser.c **** #ifdef JSON_DEBUG
 194:C:/Users/stapi/OneDrive/Desktop/GD32VW553/V1_MQTT_OK/GD32VW55X_Wifi_BLE_SDK/GD32VW55x_RELEASE_V1.0.2/MSDK/cloud/alicloud/src/infra/utils/misc\json_parser.c ****     int         i;
 195:C:/Users/stapi/OneDrive/Desktop/GD32VW553/V1_MQTT_OK/GD32VW55X_Wifi_BLE_SDK/GD32VW55x_RELEASE_V1.0.2/MSDK/cloud/alicloud/src/infra/utils/misc\json_parser.c **** 
 196:C:/Users/stapi/OneDrive/Desktop/GD32VW553/V1_MQTT_OK/GD32VW55X_Wifi_BLE_SDK/GD32VW55x_RELEASE_V1.0.2/MSDK/cloud/alicloud/src/infra/utils/misc\json_parser.c ****     if (p_cName) {
 197:C:/Users/stapi/OneDrive/Desktop/GD32VW553/V1_MQTT_OK/GD32VW55X_Wifi_BLE_SDK/GD32VW55x_RELEASE_V1.0.2/MSDK/cloud/alicloud/src/infra/utils/misc\json_parser.c ****         json_debug("Name:");
 198:C:/Users/stapi/OneDrive/Desktop/GD32VW553/V1_MQTT_OK/GD32VW55X_Wifi_BLE_SDK/GD32VW55x_RELEASE_V1.0.2/MSDK/cloud/alicloud/src/infra/utils/misc\json_parser.c ****         for (i = 0; i < iNameLen; i++) {
 199:C:/Users/stapi/OneDrive/Desktop/GD32VW553/V1_MQTT_OK/GD32VW55X_Wifi_BLE_SDK/GD32VW55x_RELEASE_V1.0.2/MSDK/cloud/alicloud/src/infra/utils/misc\json_parser.c ****             json_debug("%c", *(p_cName + i));
 200:C:/Users/stapi/OneDrive/Desktop/GD32VW553/V1_MQTT_OK/GD32VW55X_Wifi_BLE_SDK/GD32VW55x_RELEASE_V1.0.2/MSDK/cloud/alicloud/src/infra/utils/misc\json_parser.c ****         }
 201:C:/Users/stapi/OneDrive/Desktop/GD32VW553/V1_MQTT_OK/GD32VW55X_Wifi_BLE_SDK/GD32VW55x_RELEASE_V1.0.2/MSDK/cloud/alicloud/src/infra/utils/misc\json_parser.c ****     }
 202:C:/Users/stapi/OneDrive/Desktop/GD32VW553/V1_MQTT_OK/GD32VW55X_Wifi_BLE_SDK/GD32VW55x_RELEASE_V1.0.2/MSDK/cloud/alicloud/src/infra/utils/misc\json_parser.c **** 
 203:C:/Users/stapi/OneDrive/Desktop/GD32VW553/V1_MQTT_OK/GD32VW55X_Wifi_BLE_SDK/GD32VW55x_RELEASE_V1.0.2/MSDK/cloud/alicloud/src/infra/utils/misc\json_parser.c ****     if (p_cValue) {
 204:C:/Users/stapi/OneDrive/Desktop/GD32VW553/V1_MQTT_OK/GD32VW55X_Wifi_BLE_SDK/GD32VW55x_RELEASE_V1.0.2/MSDK/cloud/alicloud/src/infra/utils/misc\json_parser.c ****         json_debug("Value:");
 205:C:/Users/stapi/OneDrive/Desktop/GD32VW553/V1_MQTT_OK/GD32VW55X_Wifi_BLE_SDK/GD32VW55x_RELEASE_V1.0.2/MSDK/cloud/alicloud/src/infra/utils/misc\json_parser.c ****         for (i = 0; i < iValueLen; i++) {
 206:C:/Users/stapi/OneDrive/Desktop/GD32VW553/V1_MQTT_OK/GD32VW55X_Wifi_BLE_SDK/GD32VW55x_RELEASE_V1.0.2/MSDK/cloud/alicloud/src/infra/utils/misc\json_parser.c ****             json_debug("%c", *(p_cValue + i));
 207:C:/Users/stapi/OneDrive/Desktop/GD32VW553/V1_MQTT_OK/GD32VW55X_Wifi_BLE_SDK/GD32VW55x_RELEASE_V1.0.2/MSDK/cloud/alicloud/src/infra/utils/misc\json_parser.c ****         }
 208:C:/Users/stapi/OneDrive/Desktop/GD32VW553/V1_MQTT_OK/GD32VW55X_Wifi_BLE_SDK/GD32VW55x_RELEASE_V1.0.2/MSDK/cloud/alicloud/src/infra/utils/misc\json_parser.c ****     }
 209:C:/Users/stapi/OneDrive/Desktop/GD32VW553/V1_MQTT_OK/GD32VW55X_Wifi_BLE_SDK/GD32VW55x_RELEASE_V1.0.2/MSDK/cloud/alicloud/src/infra/utils/misc\json_parser.c **** #endif
 210:C:/Users/stapi/OneDrive/Desktop/GD32VW553/V1_MQTT_OK/GD32VW55X_Wifi_BLE_SDK/GD32VW55x_RELEASE_V1.0.2/MSDK/cloud/alicloud/src/infra/utils/misc\json_parser.c **** 
 211:C:/Users/stapi/OneDrive/Desktop/GD32VW553/V1_MQTT_OK/GD32VW55X_Wifi_BLE_SDK/GD32VW55x_RELEASE_V1.0.2/MSDK/cloud/alicloud/src/infra/utils/misc\json_parser.c ****     if ((iNameLen == p_stNameValue->nLen) && !strncmp(p_cName, p_stNameValue->pN, p_stNameValue->nL
  30              		.loc 1 211 5
  31              		.loc 1 211 35 is_stmt 0
  32 000a 9043     		lw	a2,0(a5)
  33              	.LVL2:
  34              		.loc 1 211 8
  35 000c 6317B602 		bne	a2,a1,.L3
  36              		.loc 1 211 47 discriminator 1
  37 0010 CC47     		lw	a1,12(a5)
  38              	.LVL3:
  39 0012 3E84     		mv	s0,a5
  40 0014 3689     		mv	s2,a3
  41 0016 BA84     		mv	s1,a4
  42 0018 97000000 		call	strncmp
  42      E7800000 
  43              	.LVL4:
 212:C:/Users/stapi/OneDrive/Desktop/GD32VW553/V1_MQTT_OK/GD32VW55X_Wifi_BLE_SDK/GD32VW55x_RELEASE_V1.0.2/MSDK/cloud/alicloud/src/infra/utils/misc\json_parser.c ****         p_stNameValue->pV = p_cValue;
 213:C:/Users/stapi/OneDrive/Desktop/GD32VW553/V1_MQTT_OK/GD32VW55X_Wifi_BLE_SDK/GD32VW55x_RELEASE_V1.0.2/MSDK/cloud/alicloud/src/infra/utils/misc\json_parser.c ****         p_stNameValue->vLen = iValueLen;
 214:C:/Users/stapi/OneDrive/Desktop/GD32VW553/V1_MQTT_OK/GD32VW55X_Wifi_BLE_SDK/GD32VW55x_RELEASE_V1.0.2/MSDK/cloud/alicloud/src/infra/utils/misc\json_parser.c ****         p_stNameValue->vType = iValueType;
 215:C:/Users/stapi/OneDrive/Desktop/GD32VW553/V1_MQTT_OK/GD32VW55X_Wifi_BLE_SDK/GD32VW55x_RELEASE_V1.0.2/MSDK/cloud/alicloud/src/infra/utils/misc\json_parser.c ****         return JSON_PARSE_FINISH;
 216:C:/Users/stapi/OneDrive/Desktop/GD32VW553/V1_MQTT_OK/GD32VW55X_Wifi_BLE_SDK/GD32VW55x_RELEASE_V1.0.2/MSDK/cloud/alicloud/src/infra/utils/misc\json_parser.c ****     } else {
 217:C:/Users/stapi/OneDrive/Desktop/GD32VW553/V1_MQTT_OK/GD32VW55X_Wifi_BLE_SDK/GD32VW55x_RELEASE_V1.0.2/MSDK/cloud/alicloud/src/infra/utils/misc\json_parser.c ****         return JSON_PARSE_OK;
  44              		.loc 1 217 16 discriminator 1
  45 0020 8547     		li	a5,1
 211:C:/Users/stapi/OneDrive/Desktop/GD32VW553/V1_MQTT_OK/GD32VW55X_Wifi_BLE_SDK/GD32VW55x_RELEASE_V1.0.2/MSDK/cloud/alicloud/src/infra/utils/misc\json_parser.c ****         p_stNameValue->pV = p_cValue;
  46              		.loc 1 211 43 discriminator 1
  47 0022 19E5     		bne	a0,zero,.L1
 212:C:/Users/stapi/OneDrive/Desktop/GD32VW553/V1_MQTT_OK/GD32VW55X_Wifi_BLE_SDK/GD32VW55x_RELEASE_V1.0.2/MSDK/cloud/alicloud/src/infra/utils/misc\json_parser.c ****         p_stNameValue->pV = p_cValue;
  48              		.loc 1 212 9 is_stmt 1
 212:C:/Users/stapi/OneDrive/Desktop/GD32VW553/V1_MQTT_OK/GD32VW55X_Wifi_BLE_SDK/GD32VW55x_RELEASE_V1.0.2/MSDK/cloud/alicloud/src/infra/utils/misc\json_parser.c ****         p_stNameValue->pV = p_cValue;
  49              		.loc 1 212 27 is_stmt 0
  50 0024 23283401 		sw	s3,16(s0)
 213:C:/Users/stapi/OneDrive/Desktop/GD32VW553/V1_MQTT_OK/GD32VW55X_Wifi_BLE_SDK/GD32VW55x_RELEASE_V1.0.2/MSDK/cloud/alicloud/src/infra/utils/misc\json_parser.c ****         p_stNameValue->vType = iValueType;
  51              		.loc 1 213 9 is_stmt 1
 213:C:/Users/stapi/OneDrive/Desktop/GD32VW553/V1_MQTT_OK/GD32VW55X_Wifi_BLE_SDK/GD32VW55x_RELEASE_V1.0.2/MSDK/cloud/alicloud/src/infra/utils/misc\json_parser.c ****         p_stNameValue->vType = iValueType;
  52              		.loc 1 213 29 is_stmt 0
  53 0028 23222401 		sw	s2,4(s0)
 214:C:/Users/stapi/OneDrive/Desktop/GD32VW553/V1_MQTT_OK/GD32VW55X_Wifi_BLE_SDK/GD32VW55x_RELEASE_V1.0.2/MSDK/cloud/alicloud/src/infra/utils/misc\json_parser.c ****         return JSON_PARSE_FINISH;
  54              		.loc 1 214 9 is_stmt 1
 214:C:/Users/stapi/OneDrive/Desktop/GD32VW553/V1_MQTT_OK/GD32VW55X_Wifi_BLE_SDK/GD32VW55x_RELEASE_V1.0.2/MSDK/cloud/alicloud/src/infra/utils/misc\json_parser.c ****         return JSON_PARSE_FINISH;
  55              		.loc 1 214 30 is_stmt 0
  56 002c 04C4     		sw	s1,8(s0)
 215:C:/Users/stapi/OneDrive/Desktop/GD32VW553/V1_MQTT_OK/GD32VW55X_Wifi_BLE_SDK/GD32VW55x_RELEASE_V1.0.2/MSDK/cloud/alicloud/src/infra/utils/misc\json_parser.c ****     } else {
  57              		.loc 1 215 9 is_stmt 1
 215:C:/Users/stapi/OneDrive/Desktop/GD32VW553/V1_MQTT_OK/GD32VW55X_Wifi_BLE_SDK/GD32VW55x_RELEASE_V1.0.2/MSDK/cloud/alicloud/src/infra/utils/misc\json_parser.c ****     } else {
  58              		.loc 1 215 16 is_stmt 0
  59 002e 8947     		li	a5,2
  60              	.LVL5:
  61              	.L1:
 218:C:/Users/stapi/OneDrive/Desktop/GD32VW553/V1_MQTT_OK/GD32VW55X_Wifi_BLE_SDK/GD32VW55x_RELEASE_V1.0.2/MSDK/cloud/alicloud/src/infra/utils/misc\json_parser.c ****     }
 219:C:/Users/stapi/OneDrive/Desktop/GD32VW553/V1_MQTT_OK/GD32VW55X_Wifi_BLE_SDK/GD32VW55x_RELEASE_V1.0.2/MSDK/cloud/alicloud/src/infra/utils/misc\json_parser.c **** }
  62              		.loc 1 219 1
  63 0030 3E85     		mv	a0,a5
  64 0032 17030000 		tail	__riscv_restore_4
  64      67000300 
  65              		.cfi_remember_state
  66              		.cfi_restore 19
  67              		.cfi_restore 18
  68              		.cfi_restore 9
  69              		.cfi_restore 8
  70              		.cfi_restore 1
  71              		.cfi_def_cfa_offset 0
  72              	.LVL6:
  73              	.L3:
  74              		.cfi_restore_state
 217:C:/Users/stapi/OneDrive/Desktop/GD32VW553/V1_MQTT_OK/GD32VW55X_Wifi_BLE_SDK/GD32VW55x_RELEASE_V1.0.2/MSDK/cloud/alicloud/src/infra/utils/misc\json_parser.c ****     }
  75              		.loc 1 217 16
  76 003a 8547     		li	a5,1
  77              	.LVL7:
  78 003c D5BF     		j	.L1
  79              		.cfi_endproc
  80              	.LFE23:
  82              		.section	.text.json_get_object,"ax",@progbits
  83              		.align	1
  84              		.globl	json_get_object
  86              	json_get_object:
  87              	.LFB20:
  19:C:/Users/stapi/OneDrive/Desktop/GD32VW553/V1_MQTT_OK/GD32VW55X_Wifi_BLE_SDK/GD32VW55x_RELEASE_V1.0.2/MSDK/cloud/alicloud/src/infra/utils/misc\json_parser.c ****     char *pos = NULL;
  88              		.loc 1 19 1 is_stmt 1
  89              		.cfi_startproc
  90              	.LVL8:
  20:C:/Users/stapi/OneDrive/Desktop/GD32VW553/V1_MQTT_OK/GD32VW55X_Wifi_BLE_SDK/GD32VW55x_RELEASE_V1.0.2/MSDK/cloud/alicloud/src/infra/utils/misc\json_parser.c ****     char ch = (type == JOBJECT) ? '{' : '[';
  91              		.loc 1 20 5
  21:C:/Users/stapi/OneDrive/Desktop/GD32VW553/V1_MQTT_OK/GD32VW55X_Wifi_BLE_SDK/GD32VW55x_RELEASE_V1.0.2/MSDK/cloud/alicloud/src/infra/utils/misc\json_parser.c **** 
  92              		.loc 1 21 5
  21:C:/Users/stapi/OneDrive/Desktop/GD32VW553/V1_MQTT_OK/GD32VW55X_Wifi_BLE_SDK/GD32VW55x_RELEASE_V1.0.2/MSDK/cloud/alicloud/src/infra/utils/misc\json_parser.c **** 
  93              		.loc 1 21 10 is_stmt 0
  94 0000 8547     		li	a5,1
  95 0002 1307B007 		li	a4,123
  96 0006 6304F500 		beq	a0,a5,.L7
  97 000a 1307B005 		li	a4,91
  98              	.L7:
  99              	.LVL9:
  23:C:/Users/stapi/OneDrive/Desktop/GD32VW553/V1_MQTT_OK/GD32VW55X_Wifi_BLE_SDK/GD32VW55x_RELEASE_V1.0.2/MSDK/cloud/alicloud/src/infra/utils/misc\json_parser.c ****         return NULL;
 100              		.loc 1 23 5 is_stmt 1 discriminator 4
  23:C:/Users/stapi/OneDrive/Desktop/GD32VW553/V1_MQTT_OK/GD32VW55X_Wifi_BLE_SDK/GD32VW55x_RELEASE_V1.0.2/MSDK/cloud/alicloud/src/infra/utils/misc\json_parser.c ****         return NULL;
 101              		.loc 1 23 8 is_stmt 0 discriminator 4
 102 000e 8DC1     		beq	a1,zero,.L8
  28:C:/Users/stapi/OneDrive/Desktop/GD32VW553/V1_MQTT_OK/GD32VW55X_Wifi_BLE_SDK/GD32VW55x_RELEASE_V1.0.2/MSDK/cloud/alicloud/src/infra/utils/misc\json_parser.c ****             str++;
 103              		.loc 1 28 12 discriminator 1
 104 0010 93060002 		li	a3,32
  23:C:/Users/stapi/OneDrive/Desktop/GD32VW553/V1_MQTT_OK/GD32VW55X_Wifi_BLE_SDK/GD32VW55x_RELEASE_V1.0.2/MSDK/cloud/alicloud/src/infra/utils/misc\json_parser.c ****         return NULL;
 105              		.loc 1 23 14 discriminator 1
 106 0014 11E6     		bne	a2,zero,.L9
 107              	.L15:
  24:C:/Users/stapi/OneDrive/Desktop/GD32VW553/V1_MQTT_OK/GD32VW55X_Wifi_BLE_SDK/GD32VW55x_RELEASE_V1.0.2/MSDK/cloud/alicloud/src/infra/utils/misc\json_parser.c ****     }
 108              		.loc 1 24 16
 109 0016 8145     		li	a1,0
 110              	.LVL10:
 111 0018 21A8     		j	.L8
 112              	.LVL11:
 113              	.L11:
  28:C:/Users/stapi/OneDrive/Desktop/GD32VW553/V1_MQTT_OK/GD32VW55X_Wifi_BLE_SDK/GD32VW55x_RELEASE_V1.0.2/MSDK/cloud/alicloud/src/infra/utils/misc\json_parser.c ****             str++;
 114              		.loc 1 28 9 is_stmt 1
  28:C:/Users/stapi/OneDrive/Desktop/GD32VW553/V1_MQTT_OK/GD32VW55X_Wifi_BLE_SDK/GD32VW55x_RELEASE_V1.0.2/MSDK/cloud/alicloud/src/infra/utils/misc\json_parser.c ****             str++;
 115              		.loc 1 28 12 is_stmt 0
 116 001a 6399D700 		bne	a5,a3,.L10
  29:C:/Users/stapi/OneDrive/Desktop/GD32VW553/V1_MQTT_OK/GD32VW55X_Wifi_BLE_SDK/GD32VW55x_RELEASE_V1.0.2/MSDK/cloud/alicloud/src/infra/utils/misc\json_parser.c ****             continue;
 117              		.loc 1 29 13 is_stmt 1
  29:C:/Users/stapi/OneDrive/Desktop/GD32VW553/V1_MQTT_OK/GD32VW55X_Wifi_BLE_SDK/GD32VW55x_RELEASE_V1.0.2/MSDK/cloud/alicloud/src/infra/utils/misc\json_parser.c ****             continue;
 118              		.loc 1 29 16 is_stmt 0
 119 001e 8505     		addi	a1,a1,1
 120              	.LVL12:
  30:C:/Users/stapi/OneDrive/Desktop/GD32VW553/V1_MQTT_OK/GD32VW55X_Wifi_BLE_SDK/GD32VW55x_RELEASE_V1.0.2/MSDK/cloud/alicloud/src/infra/utils/misc\json_parser.c ****         }
 121              		.loc 1 30 13 is_stmt 1
  27:C:/Users/stapi/OneDrive/Desktop/GD32VW553/V1_MQTT_OK/GD32VW55X_Wifi_BLE_SDK/GD32VW55x_RELEASE_V1.0.2/MSDK/cloud/alicloud/src/infra/utils/misc\json_parser.c ****         if (*str == ' ') {
 122              		.loc 1 27 11
 123              	.L9:
  27:C:/Users/stapi/OneDrive/Desktop/GD32VW553/V1_MQTT_OK/GD32VW55X_Wifi_BLE_SDK/GD32VW55x_RELEASE_V1.0.2/MSDK/cloud/alicloud/src/infra/utils/misc\json_parser.c ****         if (*str == ' ') {
 124              		.loc 1 27 27 is_stmt 0 discriminator 1
 125 0020 83870500 		lb	a5,0(a1)
  27:C:/Users/stapi/OneDrive/Desktop/GD32VW553/V1_MQTT_OK/GD32VW55X_Wifi_BLE_SDK/GD32VW55x_RELEASE_V1.0.2/MSDK/cloud/alicloud/src/infra/utils/misc\json_parser.c ****         if (*str == ' ') {
 126              		.loc 1 27 24 discriminator 1
 127 0024 EDDB     		beq	a5,zero,.L15
  27:C:/Users/stapi/OneDrive/Desktop/GD32VW553/V1_MQTT_OK/GD32VW55X_Wifi_BLE_SDK/GD32VW55x_RELEASE_V1.0.2/MSDK/cloud/alicloud/src/infra/utils/misc\json_parser.c ****         if (*str == ' ') {
 128              		.loc 1 27 37 discriminator 2
 129 0026 E3EAC5FE 		bgtu	a2,a1,.L11
 130 002a F5B7     		j	.L15
 131              	.L10:
  32:C:/Users/stapi/OneDrive/Desktop/GD32VW553/V1_MQTT_OK/GD32VW55X_Wifi_BLE_SDK/GD32VW55x_RELEASE_V1.0.2/MSDK/cloud/alicloud/src/infra/utils/misc\json_parser.c ****         break;
 132              		.loc 1 32 9 is_stmt 1
  32:C:/Users/stapi/OneDrive/Desktop/GD32VW553/V1_MQTT_OK/GD32VW55X_Wifi_BLE_SDK/GD32VW55x_RELEASE_V1.0.2/MSDK/cloud/alicloud/src/infra/utils/misc\json_parser.c ****         break;
 133              		.loc 1 32 34 is_stmt 0
 134 002c E395E7FE 		bne	a5,a4,.L15
 135              	.LVL13:
 136              	.L8:
  36:C:/Users/stapi/OneDrive/Desktop/GD32VW553/V1_MQTT_OK/GD32VW55X_Wifi_BLE_SDK/GD32VW55x_RELEASE_V1.0.2/MSDK/cloud/alicloud/src/infra/utils/misc\json_parser.c **** 
 137              		.loc 1 36 1
 138 0030 2E85     		mv	a0,a1
 139              	.LVL14:
 140 0032 8280     		ret
 141              		.cfi_endproc
 142              	.LFE20:
 144              		.section	.rodata.json_get_next_object.str1.4,"aMS",@progbits,1
 145              		.align	2
 146              	.LC0:
 147 0000 74727565 		.string	"true"
 147      00
 148 0005 000000   		.align	2
 149              	.LC1:
 150 0008 54525545 		.string	"TRUE"
 150      00
 151 000d 000000   		.align	2
 152              	.LC2:
 153 0010 66616C73 		.string	"false"
 153      6500
 154 0016 0000     		.align	2
 155              	.LC3:
 156 0018 46414C53 		.string	"FALSE"
 156      4500
 157              		.section	.text.json_get_next_object,"ax",@progbits
 158              		.align	1
 159              		.globl	json_get_next_object
 161              	json_get_next_object:
 162              	.LFB21:
  40:C:/Users/stapi/OneDrive/Desktop/GD32VW553/V1_MQTT_OK/GD32VW55X_Wifi_BLE_SDK/GD32VW55x_RELEASE_V1.0.2/MSDK/cloud/alicloud/src/infra/utils/misc\json_parser.c ****     char    JsonMark[JTYPEMAX][2] = { { '\"', '\"' }, { '{', '}' }, { '[', ']' }, { '0', ' ' } };
 163              		.loc 1 40 1 is_stmt 1
 164              		.cfi_startproc
 165              	.LVL15:
 166 0000 17030000 		call	t0,__riscv_save_12
 166      E7020300 
 167              		.cfi_offset 27, -52
 168              		.cfi_offset 26, -48
 169              		.cfi_offset 25, -44
 170              		.cfi_offset 24, -40
 171              		.cfi_offset 23, -36
 172              		.cfi_offset 22, -32
 173              		.cfi_offset 21, -28
 174              		.cfi_offset 20, -24
 175              		.cfi_offset 19, -20
 176              		.cfi_offset 18, -16
 177              		.cfi_offset 9, -12
 178              		.cfi_offset 8, -8
 179              		.cfi_offset 1, -4
 180              		.cfi_def_cfa_offset 64
 181 0008 7971     		addi	sp,sp,-48
 182              		.cfi_def_cfa_offset 112
  40:C:/Users/stapi/OneDrive/Desktop/GD32VW553/V1_MQTT_OK/GD32VW55X_Wifi_BLE_SDK/GD32VW55x_RELEASE_V1.0.2/MSDK/cloud/alicloud/src/infra/utils/misc\json_parser.c ****     char    JsonMark[JTYPEMAX][2] = { { '\"', '\"' }, { '{', '}' }, { '[', ']' }, { '0', ' ' } };
 183              		.loc 1 40 1 is_stmt 0
 184 000a 3ECA     		sw	a5,20(sp)
  41:C:/Users/stapi/OneDrive/Desktop/GD32VW553/V1_MQTT_OK/GD32VW55X_Wifi_BLE_SDK/GD32VW55x_RELEASE_V1.0.2/MSDK/cloud/alicloud/src/infra/utils/misc\json_parser.c ****     int     iMarkDepth = 0, iValueType = JNONE, iNameLen = 0, iValueLen = 0, iStringDepth = 0;
 185              		.loc 1 41 13
 186 000c 8967     		li	a5,8192
 187              	.LVL16:
  40:C:/Users/stapi/OneDrive/Desktop/GD32VW553/V1_MQTT_OK/GD32VW55X_Wifi_BLE_SDK/GD32VW55x_RELEASE_V1.0.2/MSDK/cloud/alicloud/src/infra/utils/misc\json_parser.c ****     char    JsonMark[JTYPEMAX][2] = { { '\"', '\"' }, { '{', '}' }, { '[', ']' }, { '0', ' ' } };
 188              		.loc 1 40 1
 189 000e 3AC8     		sw	a4,16(sp)
  41:C:/Users/stapi/OneDrive/Desktop/GD32VW553/V1_MQTT_OK/GD32VW55X_Wifi_BLE_SDK/GD32VW55x_RELEASE_V1.0.2/MSDK/cloud/alicloud/src/infra/utils/misc\json_parser.c ****     int     iMarkDepth = 0, iValueType = JNONE, iNameLen = 0, iValueLen = 0, iStringDepth = 0;
 190              		.loc 1 41 13
 191 0010 13872722 		addi	a4,a5,546
 192              	.LVL17:
 193 0014 2312E102 		sh	a4,36(sp)
 194 0018 6177     		li	a4,-32768
 195 001a 1347B7D7 		xori	a4,a4,-645
 196 001e 2313E102 		sh	a4,38(sp)
 197 0022 1967     		li	a4,24576
 198 0024 93870703 		addi	a5,a5,48
 199 0028 1307B7D5 		addi	a4,a4,-677
 200 002c 2315F102 		sh	a5,42(sp)
  40:C:/Users/stapi/OneDrive/Desktop/GD32VW553/V1_MQTT_OK/GD32VW55X_Wifi_BLE_SDK/GD32VW55x_RELEASE_V1.0.2/MSDK/cloud/alicloud/src/infra/utils/misc\json_parser.c ****     char    JsonMark[JTYPEMAX][2] = { { '\"', '\"' }, { '{', '}' }, { '[', ']' }, { '0', ' ' } };
 201              		.loc 1 40 1
 202 0030 2AC4     		sw	a0,8(sp)
  41:C:/Users/stapi/OneDrive/Desktop/GD32VW553/V1_MQTT_OK/GD32VW55X_Wifi_BLE_SDK/GD32VW55x_RELEASE_V1.0.2/MSDK/cloud/alicloud/src/infra/utils/misc\json_parser.c ****     int     iMarkDepth = 0, iValueType = JNONE, iNameLen = 0, iValueLen = 0, iStringDepth = 0;
 203              		.loc 1 41 5 is_stmt 1
  42:C:/Users/stapi/OneDrive/Desktop/GD32VW553/V1_MQTT_OK/GD32VW55X_Wifi_BLE_SDK/GD32VW55x_RELEASE_V1.0.2/MSDK/cloud/alicloud/src/infra/utils/misc\json_parser.c ****     char   *p_cName = 0, *p_cValue = 0, *p_cPos = str;
 204              		.loc 1 42 5
 205              	.LVL18:
  43:C:/Users/stapi/OneDrive/Desktop/GD32VW553/V1_MQTT_OK/GD32VW55X_Wifi_BLE_SDK/GD32VW55x_RELEASE_V1.0.2/MSDK/cloud/alicloud/src/infra/utils/misc\json_parser.c **** 
 206              		.loc 1 43 5
  45:C:/Users/stapi/OneDrive/Desktop/GD32VW553/V1_MQTT_OK/GD32VW55X_Wifi_BLE_SDK/GD32VW55x_RELEASE_V1.0.2/MSDK/cloud/alicloud/src/infra/utils/misc\json_parser.c ****         /* Get Key */
 207              		.loc 1 45 5
  40:C:/Users/stapi/OneDrive/Desktop/GD32VW553/V1_MQTT_OK/GD32VW55X_Wifi_BLE_SDK/GD32VW55x_RELEASE_V1.0.2/MSDK/cloud/alicloud/src/infra/utils/misc\json_parser.c ****     char    JsonMark[JTYPEMAX][2] = { { '\"', '\"' }, { '{', '}' }, { '[', ']' }, { '0', ' ' } };
 208              		.loc 1 40 1 is_stmt 0
 209 0032 36C6     		sw	a3,12(sp)
 210 0034 46CC     		sw	a7,24(sp)
  41:C:/Users/stapi/OneDrive/Desktop/GD32VW553/V1_MQTT_OK/GD32VW55X_Wifi_BLE_SDK/GD32VW55x_RELEASE_V1.0.2/MSDK/cloud/alicloud/src/infra/utils/misc\json_parser.c ****     int     iMarkDepth = 0, iValueType = JNONE, iNameLen = 0, iValueLen = 0, iStringDepth = 0;
 211              		.loc 1 41 13
 212 0036 23160102 		sh	zero,44(sp)
 213 003a 2314E102 		sh	a4,40(sp)
  45:C:/Users/stapi/OneDrive/Desktop/GD32VW553/V1_MQTT_OK/GD32VW55X_Wifi_BLE_SDK/GD32VW55x_RELEASE_V1.0.2/MSDK/cloud/alicloud/src/infra/utils/misc\json_parser.c ****         /* Get Key */
 214              		.loc 1 45 8
 215 003e 8547     		li	a5,1
  40:C:/Users/stapi/OneDrive/Desktop/GD32VW553/V1_MQTT_OK/GD32VW55X_Wifi_BLE_SDK/GD32VW55x_RELEASE_V1.0.2/MSDK/cloud/alicloud/src/infra/utils/misc\json_parser.c ****     char    JsonMark[JTYPEMAX][2] = { { '\"', '\"' }, { '{', '}' }, { '[', ']' }, { '0', ' ' } };
 216              		.loc 1 40 1
 217 0040 AE8B     		mv	s7,a1
 218 0042 3289     		mv	s2,a2
 219 0044 428C     		mv	s8,a6
  45:C:/Users/stapi/OneDrive/Desktop/GD32VW553/V1_MQTT_OK/GD32VW55X_Wifi_BLE_SDK/GD32VW55x_RELEASE_V1.0.2/MSDK/cloud/alicloud/src/infra/utils/misc\json_parser.c ****         /* Get Key */
 220              		.loc 1 45 8
 221 0046 631BF50C 		bne	a0,a5,.L47
  47:C:/Users/stapi/OneDrive/Desktop/GD32VW553/V1_MQTT_OK/GD32VW55X_Wifi_BLE_SDK/GD32VW55x_RELEASE_V1.0.2/MSDK/cloud/alicloud/src/infra/utils/misc\json_parser.c ****         if (!p_cPos) {
 222              		.loc 1 47 9 is_stmt 1
  47:C:/Users/stapi/OneDrive/Desktop/GD32VW553/V1_MQTT_OK/GD32VW55X_Wifi_BLE_SDK/GD32VW55x_RELEASE_V1.0.2/MSDK/cloud/alicloud/src/infra/utils/misc\json_parser.c ****         if (!p_cPos) {
 223              		.loc 1 47 18 is_stmt 0
 224 004a 93052002 		li	a1,34
 225              	.LVL19:
 226 004e 5E85     		mv	a0,s7
 227              	.LVL20:
 228 0050 97000000 		call	strchr
 228      E7800000 
 229              	.LVL21:
  48:C:/Users/stapi/OneDrive/Desktop/GD32VW553/V1_MQTT_OK/GD32VW55X_Wifi_BLE_SDK/GD32VW55x_RELEASE_V1.0.2/MSDK/cloud/alicloud/src/infra/utils/misc\json_parser.c ****             goto do_exit;
 230              		.loc 1 48 9 is_stmt 1
  48:C:/Users/stapi/OneDrive/Desktop/GD32VW553/V1_MQTT_OK/GD32VW55X_Wifi_BLE_SDK/GD32VW55x_RELEASE_V1.0.2/MSDK/cloud/alicloud/src/infra/utils/misc\json_parser.c ****             goto do_exit;
 231              		.loc 1 48 12 is_stmt 0
 232 0058 630A0522 		beq	a0,zero,.L21
  51:C:/Users/stapi/OneDrive/Desktop/GD32VW553/V1_MQTT_OK/GD32VW55X_Wifi_BLE_SDK/GD32VW55x_RELEASE_V1.0.2/MSDK/cloud/alicloud/src/infra/utils/misc\json_parser.c ****         p_cPos = strchr(p_cPos, '\"');
 233              		.loc 1 51 9 is_stmt 1
  51:C:/Users/stapi/OneDrive/Desktop/GD32VW553/V1_MQTT_OK/GD32VW55X_Wifi_BLE_SDK/GD32VW55x_RELEASE_V1.0.2/MSDK/cloud/alicloud/src/infra/utils/misc\json_parser.c ****         p_cPos = strchr(p_cPos, '\"');
 234              		.loc 1 51 17 is_stmt 0
 235 005c 13041500 		addi	s0,a0,1
 236              	.LVL22:
  52:C:/Users/stapi/OneDrive/Desktop/GD32VW553/V1_MQTT_OK/GD32VW55X_Wifi_BLE_SDK/GD32VW55x_RELEASE_V1.0.2/MSDK/cloud/alicloud/src/infra/utils/misc\json_parser.c ****         if (!p_cPos) {
 237              		.loc 1 52 9 is_stmt 1
  52:C:/Users/stapi/OneDrive/Desktop/GD32VW553/V1_MQTT_OK/GD32VW55X_Wifi_BLE_SDK/GD32VW55x_RELEASE_V1.0.2/MSDK/cloud/alicloud/src/infra/utils/misc\json_parser.c ****         if (!p_cPos) {
 238              		.loc 1 52 18 is_stmt 0
 239 0060 93052002 		li	a1,34
 240 0064 2285     		mv	a0,s0
 241 0066 97000000 		call	strchr
 241      E7800000 
 242              	.LVL23:
 243 006e AA84     		mv	s1,a0
 244              	.LVL24:
  53:C:/Users/stapi/OneDrive/Desktop/GD32VW553/V1_MQTT_OK/GD32VW55X_Wifi_BLE_SDK/GD32VW55x_RELEASE_V1.0.2/MSDK/cloud/alicloud/src/infra/utils/misc\json_parser.c ****             goto do_exit;
 245              		.loc 1 53 9 is_stmt 1
  53:C:/Users/stapi/OneDrive/Desktop/GD32VW553/V1_MQTT_OK/GD32VW55X_Wifi_BLE_SDK/GD32VW55x_RELEASE_V1.0.2/MSDK/cloud/alicloud/src/infra/utils/misc\json_parser.c ****             goto do_exit;
 246              		.loc 1 53 12 is_stmt 0
 247 0070 630E0520 		beq	a0,zero,.L21
  56:C:/Users/stapi/OneDrive/Desktop/GD32VW553/V1_MQTT_OK/GD32VW55X_Wifi_BLE_SDK/GD32VW55x_RELEASE_V1.0.2/MSDK/cloud/alicloud/src/infra/utils/misc\json_parser.c **** 
 248              		.loc 1 56 9 is_stmt 1
  59:C:/Users/stapi/OneDrive/Desktop/GD32VW553/V1_MQTT_OK/GD32VW55X_Wifi_BLE_SDK/GD32VW55x_RELEASE_V1.0.2/MSDK/cloud/alicloud/src/infra/utils/misc\json_parser.c ****     }
 249              		.loc 1 59 18 is_stmt 0
 250 0074 9305A003 		li	a1,58
  56:C:/Users/stapi/OneDrive/Desktop/GD32VW553/V1_MQTT_OK/GD32VW55X_Wifi_BLE_SDK/GD32VW55x_RELEASE_V1.0.2/MSDK/cloud/alicloud/src/infra/utils/misc\json_parser.c **** 
 251              		.loc 1 56 18
 252 0078 B3048540 		sub	s1,a0,s0
 253              	.LVL25:
  59:C:/Users/stapi/OneDrive/Desktop/GD32VW553/V1_MQTT_OK/GD32VW55X_Wifi_BLE_SDK/GD32VW55x_RELEASE_V1.0.2/MSDK/cloud/alicloud/src/infra/utils/misc\json_parser.c ****     }
 254              		.loc 1 59 9 is_stmt 1
  59:C:/Users/stapi/OneDrive/Desktop/GD32VW553/V1_MQTT_OK/GD32VW55X_Wifi_BLE_SDK/GD32VW55x_RELEASE_V1.0.2/MSDK/cloud/alicloud/src/infra/utils/misc\json_parser.c ****     }
 255              		.loc 1 59 18 is_stmt 0
 256 007c 97000000 		call	strchr
 256      E7800000 
 257              	.LVL26:
 258 0084 AA8B     		mv	s7,a0
 259              	.LVL27:
 260              	.L20:
  62:C:/Users/stapi/OneDrive/Desktop/GD32VW553/V1_MQTT_OK/GD32VW55X_Wifi_BLE_SDK/GD32VW55x_RELEASE_V1.0.2/MSDK/cloud/alicloud/src/infra/utils/misc\json_parser.c ****             iValueType = JSTRING;
 261              		.loc 1 62 12
 262 0086 93062002 		li	a3,34
  66:C:/Users/stapi/OneDrive/Desktop/GD32VW553/V1_MQTT_OK/GD32VW55X_Wifi_BLE_SDK/GD32VW55x_RELEASE_V1.0.2/MSDK/cloud/alicloud/src/infra/utils/misc\json_parser.c ****             iValueType = JOBJECT;
 263              		.loc 1 66 19
 264 008a 1306B007 		li	a2,123
  70:C:/Users/stapi/OneDrive/Desktop/GD32VW553/V1_MQTT_OK/GD32VW55X_Wifi_BLE_SDK/GD32VW55x_RELEASE_V1.0.2/MSDK/cloud/alicloud/src/infra/utils/misc\json_parser.c ****             iValueType = JARRAY;
 265              		.loc 1 70 19
 266 008e 9305B005 		li	a1,91
  74:C:/Users/stapi/OneDrive/Desktop/GD32VW553/V1_MQTT_OK/GD32VW55X_Wifi_BLE_SDK/GD32VW55x_RELEASE_V1.0.2/MSDK/cloud/alicloud/src/infra/utils/misc\json_parser.c ****             iValueType = JNUMBER;
 267              		.loc 1 74 19
 268 0092 1305D002 		li	a0,45
  74:C:/Users/stapi/OneDrive/Desktop/GD32VW553/V1_MQTT_OK/GD32VW55X_Wifi_BLE_SDK/GD32VW55x_RELEASE_V1.0.2/MSDK/cloud/alicloud/src/infra/utils/misc\json_parser.c ****             iValueType = JNUMBER;
 269              		.loc 1 74 37
 270 0096 2548     		li	a6,9
  78:C:/Users/stapi/OneDrive/Desktop/GD32VW553/V1_MQTT_OK/GD32VW55X_Wifi_BLE_SDK/GD32VW55x_RELEASE_V1.0.2/MSDK/cloud/alicloud/src/infra/utils/misc\json_parser.c ****             iValueType = JBOOLEAN;
 271              		.loc 1 78 35
 272 0098 93084005 		li	a7,84
  78:C:/Users/stapi/OneDrive/Desktop/GD32VW553/V1_MQTT_OK/GD32VW55X_Wifi_BLE_SDK/GD32VW55x_RELEASE_V1.0.2/MSDK/cloud/alicloud/src/infra/utils/misc\json_parser.c ****             iValueType = JBOOLEAN;
 273              		.loc 1 78 71
 274 009c 130E6004 		li	t3,70
 275 00a0 A5A0     		j	.L28
 276              	.LVL28:
 277              	.L30:
  62:C:/Users/stapi/OneDrive/Desktop/GD32VW553/V1_MQTT_OK/GD32VW55X_Wifi_BLE_SDK/GD32VW55x_RELEASE_V1.0.2/MSDK/cloud/alicloud/src/infra/utils/misc\json_parser.c ****             iValueType = JSTRING;
 278              		.loc 1 62 9 is_stmt 1
  62:C:/Users/stapi/OneDrive/Desktop/GD32VW553/V1_MQTT_OK/GD32VW55X_Wifi_BLE_SDK/GD32VW55x_RELEASE_V1.0.2/MSDK/cloud/alicloud/src/infra/utils/misc\json_parser.c ****             iValueType = JSTRING;
 279              		.loc 1 62 12 is_stmt 0
 280 00a2 6392D702 		bne	a5,a3,.L22
  63:C:/Users/stapi/OneDrive/Desktop/GD32VW553/V1_MQTT_OK/GD32VW55X_Wifi_BLE_SDK/GD32VW55x_RELEASE_V1.0.2/MSDK/cloud/alicloud/src/infra/utils/misc\json_parser.c ****             p_cValue = ++p_cPos;
 281              		.loc 1 63 13 is_stmt 1
 282              	.LVL29:
  64:C:/Users/stapi/OneDrive/Desktop/GD32VW553/V1_MQTT_OK/GD32VW55X_Wifi_BLE_SDK/GD32VW55x_RELEASE_V1.0.2/MSDK/cloud/alicloud/src/infra/utils/misc\json_parser.c ****             break;
 283              		.loc 1 64 13
  64:C:/Users/stapi/OneDrive/Desktop/GD32VW553/V1_MQTT_OK/GD32VW55X_Wifi_BLE_SDK/GD32VW55x_RELEASE_V1.0.2/MSDK/cloud/alicloud/src/infra/utils/misc\json_parser.c ****             break;
 284              		.loc 1 64 22 is_stmt 0
 285 00a6 850B     		addi	s7,s7,1
 286              	.LVL30:
  65:C:/Users/stapi/OneDrive/Desktop/GD32VW553/V1_MQTT_OK/GD32VW55X_Wifi_BLE_SDK/GD32VW55x_RELEASE_V1.0.2/MSDK/cloud/alicloud/src/infra/utils/misc\json_parser.c ****         } else if (*p_cPos == '{') {
 287              		.loc 1 65 13 is_stmt 1
  64:C:/Users/stapi/OneDrive/Desktop/GD32VW553/V1_MQTT_OK/GD32VW55X_Wifi_BLE_SDK/GD32VW55x_RELEASE_V1.0.2/MSDK/cloud/alicloud/src/infra/utils/misc\json_parser.c ****             break;
 288              		.loc 1 64 22 is_stmt 0
 289 00a8 5E8B     		mv	s6,s7
  63:C:/Users/stapi/OneDrive/Desktop/GD32VW553/V1_MQTT_OK/GD32VW55X_Wifi_BLE_SDK/GD32VW55x_RELEASE_V1.0.2/MSDK/cloud/alicloud/src/infra/utils/misc\json_parser.c ****             p_cValue = ++p_cPos;
 290              		.loc 1 63 24
 291 00aa 814A     		li	s5,0
 292              	.LVL31:
 293              	.L23:
  86:C:/Users/stapi/OneDrive/Desktop/GD32VW553/V1_MQTT_OK/GD32VW55X_Wifi_BLE_SDK/GD32VW55x_RELEASE_V1.0.2/MSDK/cloud/alicloud/src/infra/utils/misc\json_parser.c ****         if (iValueType == JBOOLEAN) {
 294              		.loc 1 86 11 is_stmt 1
 114:C:/Users/stapi/OneDrive/Desktop/GD32VW553/V1_MQTT_OK/GD32VW55X_Wifi_BLE_SDK/GD32VW55x_RELEASE_V1.0.2/MSDK/cloud/alicloud/src/infra/utils/misc\json_parser.c ****             if (iStringDepth  == 0) {
 295              		.loc 1 114 51 is_stmt 0
 296 00ac 1C18     		addi	a5,sp,48
 297              	.LVL32:
 104:C:/Users/stapi/OneDrive/Desktop/GD32VW553/V1_MQTT_OK/GD32VW55X_Wifi_BLE_SDK/GD32VW55x_RELEASE_V1.0.2/MSDK/cloud/alicloud/src/infra/utils/misc\json_parser.c ****                 && (*p_cPos != '-') && ((*p_cPos != 'e')) && (*p_cPos != 'E')) {
 298              		.loc 1 104 70
 299 00ae A166     		li	a3,32768
 114:C:/Users/stapi/OneDrive/Desktop/GD32VW553/V1_MQTT_OK/GD32VW55X_Wifi_BLE_SDK/GD32VW55x_RELEASE_V1.0.2/MSDK/cloud/alicloud/src/infra/utils/misc\json_parser.c ****             if (iStringDepth  == 0) {
 300              		.loc 1 114 51
 301 00b0 33ADFA20 		sh1add	s10,s5,a5
 104:C:/Users/stapi/OneDrive/Desktop/GD32VW553/V1_MQTT_OK/GD32VW55X_Wifi_BLE_SDK/GD32VW55x_RELEASE_V1.0.2/MSDK/cloud/alicloud/src/infra/utils/misc\json_parser.c ****                 && (*p_cPos != '-') && ((*p_cPos != 'e')) && (*p_cPos != 'E')) {
 302              		.loc 1 104 70
 303 00b4 9387D6FE 		addi	a5,a3,-19
 304              	.LVL33:
  42:C:/Users/stapi/OneDrive/Desktop/GD32VW553/V1_MQTT_OK/GD32VW55X_Wifi_BLE_SDK/GD32VW55x_RELEASE_V1.0.2/MSDK/cloud/alicloud/src/infra/utils/misc\json_parser.c ****     char   *p_cName = 0, *p_cValue = 0, *p_cPos = str;
 305              		.loc 1 42 29
 306 00b8 014A     		li	s4,0
 307 00ba 8149     		li	s3,0
 103:C:/Users/stapi/OneDrive/Desktop/GD32VW553/V1_MQTT_OK/GD32VW55X_Wifi_BLE_SDK/GD32VW55x_RELEASE_V1.0.2/MSDK/cloud/alicloud/src/infra/utils/misc\json_parser.c ****             if ((*p_cPos < '0' || *p_cPos > '9') && (*p_cPos != '.') && (*p_cPos != '+') \
 308              		.loc 1 103 19
 309 00bc 8D4C     		li	s9,3
 128:C:/Users/stapi/OneDrive/Desktop/GD32VW553/V1_MQTT_OK/GD32VW55X_Wifi_BLE_SDK/GD32VW55x_RELEASE_V1.0.2/MSDK/cloud/alicloud/src/infra/utils/misc\json_parser.c ****             if (iStringDepth) {
 310              		.loc 1 128 19
 311 00be 930D2002 		li	s11,34
 104:C:/Users/stapi/OneDrive/Desktop/GD32VW553/V1_MQTT_OK/GD32VW55X_Wifi_BLE_SDK/GD32VW55x_RELEASE_V1.0.2/MSDK/cloud/alicloud/src/infra/utils/misc\json_parser.c ****                 && (*p_cPos != '-') && ((*p_cPos != 'e')) && (*p_cPos != 'E')) {
 312              		.loc 1 104 70
 313 00c2 3ECE     		sw	a5,28(sp)
 314 00c4 9DA2     		j	.L42
 315              	.LVL34:
 316              	.L22:
  66:C:/Users/stapi/OneDrive/Desktop/GD32VW553/V1_MQTT_OK/GD32VW55X_Wifi_BLE_SDK/GD32VW55x_RELEASE_V1.0.2/MSDK/cloud/alicloud/src/infra/utils/misc\json_parser.c ****             iValueType = JOBJECT;
 317              		.loc 1 66 16 is_stmt 1
  66:C:/Users/stapi/OneDrive/Desktop/GD32VW553/V1_MQTT_OK/GD32VW55X_Wifi_BLE_SDK/GD32VW55x_RELEASE_V1.0.2/MSDK/cloud/alicloud/src/infra/utils/misc\json_parser.c ****             iValueType = JOBJECT;
 318              		.loc 1 66 19 is_stmt 0
 319 00c6 6396C700 		bne	a5,a2,.L24
  67:C:/Users/stapi/OneDrive/Desktop/GD32VW553/V1_MQTT_OK/GD32VW55X_Wifi_BLE_SDK/GD32VW55x_RELEASE_V1.0.2/MSDK/cloud/alicloud/src/infra/utils/misc\json_parser.c ****             p_cValue = p_cPos++;
 320              		.loc 1 67 13 is_stmt 1
 321              	.LVL35:
  68:C:/Users/stapi/OneDrive/Desktop/GD32VW553/V1_MQTT_OK/GD32VW55X_Wifi_BLE_SDK/GD32VW55x_RELEASE_V1.0.2/MSDK/cloud/alicloud/src/infra/utils/misc\json_parser.c ****             break;
 322              		.loc 1 68 13
  69:C:/Users/stapi/OneDrive/Desktop/GD32VW553/V1_MQTT_OK/GD32VW55X_Wifi_BLE_SDK/GD32VW55x_RELEASE_V1.0.2/MSDK/cloud/alicloud/src/infra/utils/misc\json_parser.c ****         } else if (*p_cPos == '[') {
 323              		.loc 1 69 13
 324 00ca 5E8B     		mv	s6,s7
 325              	.LVL36:
  67:C:/Users/stapi/OneDrive/Desktop/GD32VW553/V1_MQTT_OK/GD32VW55X_Wifi_BLE_SDK/GD32VW55x_RELEASE_V1.0.2/MSDK/cloud/alicloud/src/infra/utils/misc\json_parser.c ****             p_cValue = p_cPos++;
 326              		.loc 1 67 24 is_stmt 0
 327 00cc 854A     		li	s5,1
  68:C:/Users/stapi/OneDrive/Desktop/GD32VW553/V1_MQTT_OK/GD32VW55X_Wifi_BLE_SDK/GD32VW55x_RELEASE_V1.0.2/MSDK/cloud/alicloud/src/infra/utils/misc\json_parser.c ****             break;
 328              		.loc 1 68 30
 329 00ce 850B     		addi	s7,s7,1
 330              	.LVL37:
  69:C:/Users/stapi/OneDrive/Desktop/GD32VW553/V1_MQTT_OK/GD32VW55X_Wifi_BLE_SDK/GD32VW55x_RELEASE_V1.0.2/MSDK/cloud/alicloud/src/infra/utils/misc\json_parser.c ****         } else if (*p_cPos == '[') {
 331              		.loc 1 69 13
 332 00d0 F1BF     		j	.L23
 333              	.LVL38:
 334              	.L24:
  70:C:/Users/stapi/OneDrive/Desktop/GD32VW553/V1_MQTT_OK/GD32VW55X_Wifi_BLE_SDK/GD32VW55x_RELEASE_V1.0.2/MSDK/cloud/alicloud/src/infra/utils/misc\json_parser.c ****             iValueType = JARRAY;
 335              		.loc 1 70 16 is_stmt 1
  70:C:/Users/stapi/OneDrive/Desktop/GD32VW553/V1_MQTT_OK/GD32VW55X_Wifi_BLE_SDK/GD32VW55x_RELEASE_V1.0.2/MSDK/cloud/alicloud/src/infra/utils/misc\json_parser.c ****             iValueType = JARRAY;
 336              		.loc 1 70 19 is_stmt 0
 337 00d2 6396B700 		bne	a5,a1,.L25
  71:C:/Users/stapi/OneDrive/Desktop/GD32VW553/V1_MQTT_OK/GD32VW55X_Wifi_BLE_SDK/GD32VW55x_RELEASE_V1.0.2/MSDK/cloud/alicloud/src/infra/utils/misc\json_parser.c ****             p_cValue = p_cPos++;
 338              		.loc 1 71 13 is_stmt 1
 339              	.LVL39:
  72:C:/Users/stapi/OneDrive/Desktop/GD32VW553/V1_MQTT_OK/GD32VW55X_Wifi_BLE_SDK/GD32VW55x_RELEASE_V1.0.2/MSDK/cloud/alicloud/src/infra/utils/misc\json_parser.c ****             break;
 340              		.loc 1 72 13
  73:C:/Users/stapi/OneDrive/Desktop/GD32VW553/V1_MQTT_OK/GD32VW55X_Wifi_BLE_SDK/GD32VW55x_RELEASE_V1.0.2/MSDK/cloud/alicloud/src/infra/utils/misc\json_parser.c ****         } else if ((*p_cPos == '-') || (*p_cPos >= '0' && *p_cPos <= '9')) {
 341              		.loc 1 73 13
 342 00d6 5E8B     		mv	s6,s7
 343              	.LVL40:
  71:C:/Users/stapi/OneDrive/Desktop/GD32VW553/V1_MQTT_OK/GD32VW55X_Wifi_BLE_SDK/GD32VW55x_RELEASE_V1.0.2/MSDK/cloud/alicloud/src/infra/utils/misc\json_parser.c ****             p_cValue = p_cPos++;
 344              		.loc 1 71 24 is_stmt 0
 345 00d8 894A     		li	s5,2
  72:C:/Users/stapi/OneDrive/Desktop/GD32VW553/V1_MQTT_OK/GD32VW55X_Wifi_BLE_SDK/GD32VW55x_RELEASE_V1.0.2/MSDK/cloud/alicloud/src/infra/utils/misc\json_parser.c ****             break;
 346              		.loc 1 72 30
 347 00da 850B     		addi	s7,s7,1
 348              	.LVL41:
  73:C:/Users/stapi/OneDrive/Desktop/GD32VW553/V1_MQTT_OK/GD32VW55X_Wifi_BLE_SDK/GD32VW55x_RELEASE_V1.0.2/MSDK/cloud/alicloud/src/infra/utils/misc\json_parser.c ****         } else if ((*p_cPos == '-') || (*p_cPos >= '0' && *p_cPos <= '9')) {
 349              		.loc 1 73 13
 350 00dc C1BF     		j	.L23
 351              	.LVL42:
 352              	.L25:
  74:C:/Users/stapi/OneDrive/Desktop/GD32VW553/V1_MQTT_OK/GD32VW55X_Wifi_BLE_SDK/GD32VW55x_RELEASE_V1.0.2/MSDK/cloud/alicloud/src/infra/utils/misc\json_parser.c ****             iValueType = JNUMBER;
 353              		.loc 1 74 16 is_stmt 1
  74:C:/Users/stapi/OneDrive/Desktop/GD32VW553/V1_MQTT_OK/GD32VW55X_Wifi_BLE_SDK/GD32VW55x_RELEASE_V1.0.2/MSDK/cloud/alicloud/src/infra/utils/misc\json_parser.c ****             iValueType = JNUMBER;
 354              		.loc 1 74 19 is_stmt 0
 355 00de 6388A700 		beq	a5,a0,.L26
  74:C:/Users/stapi/OneDrive/Desktop/GD32VW553/V1_MQTT_OK/GD32VW55X_Wifi_BLE_SDK/GD32VW55x_RELEASE_V1.0.2/MSDK/cloud/alicloud/src/infra/utils/misc\json_parser.c ****             iValueType = JNUMBER;
 356              		.loc 1 74 56 discriminator 1
 357 00e2 138707FD 		addi	a4,a5,-48
  74:C:/Users/stapi/OneDrive/Desktop/GD32VW553/V1_MQTT_OK/GD32VW55X_Wifi_BLE_SDK/GD32VW55x_RELEASE_V1.0.2/MSDK/cloud/alicloud/src/infra/utils/misc\json_parser.c ****             iValueType = JNUMBER;
 358              		.loc 1 74 37 discriminator 1
 359 00e6 1377F70F 		andi	a4,a4,0xff
 360 00ea 6366E800 		bgtu	a4,a6,.L27
 361              	.L26:
  75:C:/Users/stapi/OneDrive/Desktop/GD32VW553/V1_MQTT_OK/GD32VW55X_Wifi_BLE_SDK/GD32VW55x_RELEASE_V1.0.2/MSDK/cloud/alicloud/src/infra/utils/misc\json_parser.c ****             p_cValue = p_cPos++;
 362              		.loc 1 75 13 is_stmt 1
 363              	.LVL43:
  76:C:/Users/stapi/OneDrive/Desktop/GD32VW553/V1_MQTT_OK/GD32VW55X_Wifi_BLE_SDK/GD32VW55x_RELEASE_V1.0.2/MSDK/cloud/alicloud/src/infra/utils/misc\json_parser.c ****             break;
 364              		.loc 1 76 13
  77:C:/Users/stapi/OneDrive/Desktop/GD32VW553/V1_MQTT_OK/GD32VW55X_Wifi_BLE_SDK/GD32VW55x_RELEASE_V1.0.2/MSDK/cloud/alicloud/src/infra/utils/misc\json_parser.c ****         } else if (*p_cPos == 't' || *p_cPos == 'T' || *p_cPos == 'f' || *p_cPos == 'F') {
 365              		.loc 1 77 13
 366 00ee 5E8B     		mv	s6,s7
 367              	.LVL44:
  75:C:/Users/stapi/OneDrive/Desktop/GD32VW553/V1_MQTT_OK/GD32VW55X_Wifi_BLE_SDK/GD32VW55x_RELEASE_V1.0.2/MSDK/cloud/alicloud/src/infra/utils/misc\json_parser.c ****             p_cValue = p_cPos++;
 368              		.loc 1 75 24 is_stmt 0
 369 00f0 8D4A     		li	s5,3
  76:C:/Users/stapi/OneDrive/Desktop/GD32VW553/V1_MQTT_OK/GD32VW55X_Wifi_BLE_SDK/GD32VW55x_RELEASE_V1.0.2/MSDK/cloud/alicloud/src/infra/utils/misc\json_parser.c ****             break;
 370              		.loc 1 76 30
 371 00f2 850B     		addi	s7,s7,1
 372              	.LVL45:
  77:C:/Users/stapi/OneDrive/Desktop/GD32VW553/V1_MQTT_OK/GD32VW55X_Wifi_BLE_SDK/GD32VW55x_RELEASE_V1.0.2/MSDK/cloud/alicloud/src/infra/utils/misc\json_parser.c ****         } else if (*p_cPos == 't' || *p_cPos == 'T' || *p_cPos == 'f' || *p_cPos == 'F') {
 373              		.loc 1 77 13
 374 00f4 65BF     		j	.L23
 375              	.LVL46:
 376              	.L27:
  78:C:/Users/stapi/OneDrive/Desktop/GD32VW553/V1_MQTT_OK/GD32VW55X_Wifi_BLE_SDK/GD32VW55x_RELEASE_V1.0.2/MSDK/cloud/alicloud/src/infra/utils/misc\json_parser.c ****             iValueType = JBOOLEAN;
 377              		.loc 1 78 16 is_stmt 1 discriminator 1
  78:C:/Users/stapi/OneDrive/Desktop/GD32VW553/V1_MQTT_OK/GD32VW55X_Wifi_BLE_SDK/GD32VW55x_RELEASE_V1.0.2/MSDK/cloud/alicloud/src/infra/utils/misc\json_parser.c ****             iValueType = JBOOLEAN;
 378              		.loc 1 78 35 is_stmt 0 discriminator 1
 379 00f6 93F7F7FD 		andi	a5,a5,-33
 380 00fa 93974760 		sext.b	a5,a5
 381 00fe 63811719 		beq	a5,a7,.L49
  78:C:/Users/stapi/OneDrive/Desktop/GD32VW553/V1_MQTT_OK/GD32VW55X_Wifi_BLE_SDK/GD32VW55x_RELEASE_V1.0.2/MSDK/cloud/alicloud/src/infra/utils/misc\json_parser.c ****             iValueType = JBOOLEAN;
 382              		.loc 1 78 71 discriminator 3
 383 0102 638FC717 		beq	a5,t3,.L49
  83:C:/Users/stapi/OneDrive/Desktop/GD32VW553/V1_MQTT_OK/GD32VW55X_Wifi_BLE_SDK/GD32VW55x_RELEASE_V1.0.2/MSDK/cloud/alicloud/src/infra/utils/misc\json_parser.c ****     }
 384              		.loc 1 83 9 is_stmt 1
 385              	.LVL47:
  83:C:/Users/stapi/OneDrive/Desktop/GD32VW553/V1_MQTT_OK/GD32VW55X_Wifi_BLE_SDK/GD32VW55x_RELEASE_V1.0.2/MSDK/cloud/alicloud/src/infra/utils/misc\json_parser.c ****     }
 386              		.loc 1 83 15 is_stmt 0
 387 0106 850B     		addi	s7,s7,1
 388              	.LVL48:
 389              	.L28:
  61:C:/Users/stapi/OneDrive/Desktop/GD32VW553/V1_MQTT_OK/GD32VW55X_Wifi_BLE_SDK/GD32VW55x_RELEASE_V1.0.2/MSDK/cloud/alicloud/src/infra/utils/misc\json_parser.c ****         if (*p_cPos == '\"') {
 390              		.loc 1 61 11 is_stmt 1
 391 0108 638F0B16 		beq	s7,zero,.L50
  61:C:/Users/stapi/OneDrive/Desktop/GD32VW553/V1_MQTT_OK/GD32VW55X_Wifi_BLE_SDK/GD32VW55x_RELEASE_V1.0.2/MSDK/cloud/alicloud/src/infra/utils/misc\json_parser.c ****         if (*p_cPos == '\"') {
 392              		.loc 1 61 22 is_stmt 0 discriminator 1
 393 010c 83870B00 		lb	a5,0(s7)
  61:C:/Users/stapi/OneDrive/Desktop/GD32VW553/V1_MQTT_OK/GD32VW55X_Wifi_BLE_SDK/GD32VW55x_RELEASE_V1.0.2/MSDK/cloud/alicloud/src/infra/utils/misc\json_parser.c ****         if (*p_cPos == '\"') {
 394              		.loc 1 61 19 discriminator 1
 395 0110 99C3     		beq	a5,zero,.L51
  61:C:/Users/stapi/OneDrive/Desktop/GD32VW553/V1_MQTT_OK/GD32VW55X_Wifi_BLE_SDK/GD32VW55x_RELEASE_V1.0.2/MSDK/cloud/alicloud/src/infra/utils/misc\json_parser.c ****         if (*p_cPos == '\"') {
 396              		.loc 1 61 30 discriminator 2
 397 0112 E3E82BF9 		bltu	s7,s2,.L30
 398              	.L51:
  43:C:/Users/stapi/OneDrive/Desktop/GD32VW553/V1_MQTT_OK/GD32VW55X_Wifi_BLE_SDK/GD32VW55x_RELEASE_V1.0.2/MSDK/cloud/alicloud/src/infra/utils/misc\json_parser.c **** 
 399              		.loc 1 43 27
 400 0116 014B     		li	s6,0
  42:C:/Users/stapi/OneDrive/Desktop/GD32VW553/V1_MQTT_OK/GD32VW55X_Wifi_BLE_SDK/GD32VW55x_RELEASE_V1.0.2/MSDK/cloud/alicloud/src/infra/utils/misc\json_parser.c ****     char   *p_cName = 0, *p_cValue = 0, *p_cPos = str;
 401              		.loc 1 42 29
 402 0118 FD5A     		li	s5,-1
 403 011a 49BF     		j	.L23
 404              	.LVL49:
 405              	.L47:
  43:C:/Users/stapi/OneDrive/Desktop/GD32VW553/V1_MQTT_OK/GD32VW55X_Wifi_BLE_SDK/GD32VW55x_RELEASE_V1.0.2/MSDK/cloud/alicloud/src/infra/utils/misc\json_parser.c **** 
 406              		.loc 1 43 13
 407 011c 0144     		li	s0,0
  42:C:/Users/stapi/OneDrive/Desktop/GD32VW553/V1_MQTT_OK/GD32VW55X_Wifi_BLE_SDK/GD32VW55x_RELEASE_V1.0.2/MSDK/cloud/alicloud/src/infra/utils/misc\json_parser.c ****     char   *p_cName = 0, *p_cValue = 0, *p_cPos = str;
 408              		.loc 1 42 49
 409 011e 8144     		li	s1,0
 410 0120 9DB7     		j	.L20
 411              	.LVL50:
 412              	.L43:
  87:C:/Users/stapi/OneDrive/Desktop/GD32VW553/V1_MQTT_OK/GD32VW55X_Wifi_BLE_SDK/GD32VW55x_RELEASE_V1.0.2/MSDK/cloud/alicloud/src/infra/utils/misc\json_parser.c ****             int     len = strlen(p_cValue);
 413              		.loc 1 87 9 is_stmt 1
  87:C:/Users/stapi/OneDrive/Desktop/GD32VW553/V1_MQTT_OK/GD32VW55X_Wifi_BLE_SDK/GD32VW55x_RELEASE_V1.0.2/MSDK/cloud/alicloud/src/infra/utils/misc\json_parser.c ****             int     len = strlen(p_cValue);
 414              		.loc 1 87 12 is_stmt 0
 415 0122 9147     		li	a5,4
 416 0124 6397FA08 		bne	s5,a5,.L31
 417              	.LVL51:
 418              	.LBB2:
  88:C:/Users/stapi/OneDrive/Desktop/GD32VW553/V1_MQTT_OK/GD32VW55X_Wifi_BLE_SDK/GD32VW55x_RELEASE_V1.0.2/MSDK/cloud/alicloud/src/infra/utils/misc\json_parser.c **** 
 419              		.loc 1 88 13 is_stmt 1
  88:C:/Users/stapi/OneDrive/Desktop/GD32VW553/V1_MQTT_OK/GD32VW55X_Wifi_BLE_SDK/GD32VW55x_RELEASE_V1.0.2/MSDK/cloud/alicloud/src/infra/utils/misc\json_parser.c **** 
 420              		.loc 1 88 27 is_stmt 0
 421 0128 5A85     		mv	a0,s6
 422 012a 97000000 		call	strlen
 422      E7800000 
 423              	.LVL52:
  90:C:/Users/stapi/OneDrive/Desktop/GD32VW553/V1_MQTT_OK/GD32VW55X_Wifi_BLE_SDK/GD32VW55x_RELEASE_V1.0.2/MSDK/cloud/alicloud/src/infra/utils/misc\json_parser.c ****                 && (!strncmp(p_cValue, "true", 4)
 424              		.loc 1 90 13 is_stmt 1
  90:C:/Users/stapi/OneDrive/Desktop/GD32VW553/V1_MQTT_OK/GD32VW55X_Wifi_BLE_SDK/GD32VW55x_RELEASE_V1.0.2/MSDK/cloud/alicloud/src/infra/utils/misc\json_parser.c ****                 && (!strncmp(p_cValue, "true", 4)
 425              		.loc 1 90 35 is_stmt 0
 426 0132 83060B00 		lb	a3,0(s6)
 427 0136 93074005 		li	a5,84
 428 013a 93F6F6FD 		andi	a3,a3,-33
 429 013e 639CF602 		bne	a3,a5,.L67
  90:C:/Users/stapi/OneDrive/Desktop/GD32VW553/V1_MQTT_OK/GD32VW55X_Wifi_BLE_SDK/GD32VW55x_RELEASE_V1.0.2/MSDK/cloud/alicloud/src/infra/utils/misc\json_parser.c ****                 && (!strncmp(p_cValue, "true", 4)
 430              		.loc 1 90 56
 431 0142 63F3AC0E 		bleu	a0,s9,.L34
  91:C:/Users/stapi/OneDrive/Desktop/GD32VW553/V1_MQTT_OK/GD32VW55X_Wifi_BLE_SDK/GD32VW55x_RELEASE_V1.0.2/MSDK/cloud/alicloud/src/infra/utils/misc\json_parser.c ****                     || !strncmp(p_cValue, "TRUE", 4))) {
 432              		.loc 1 91 22
 433 0146 B7070000 		lui	a5,%hi(.LC0)
 434 014a 1146     		li	a2,4
 435 014c 93850700 		addi	a1,a5,%lo(.LC0)
 436 0150 5A85     		mv	a0,s6
 437              	.LVL53:
 438 0152 97000000 		call	strncmp
 438      E7800000 
 439              	.LVL54:
  91:C:/Users/stapi/OneDrive/Desktop/GD32VW553/V1_MQTT_OK/GD32VW55X_Wifi_BLE_SDK/GD32VW55x_RELEASE_V1.0.2/MSDK/cloud/alicloud/src/infra/utils/misc\json_parser.c ****                     || !strncmp(p_cValue, "TRUE", 4))) {
 440              		.loc 1 91 17
 441 015a 01CD     		beq	a0,zero,.L53
  92:C:/Users/stapi/OneDrive/Desktop/GD32VW553/V1_MQTT_OK/GD32VW55X_Wifi_BLE_SDK/GD32VW55x_RELEASE_V1.0.2/MSDK/cloud/alicloud/src/infra/utils/misc\json_parser.c ****                 iValueLen = 4;
 442              		.loc 1 92 25
 443 015c B7070000 		lui	a5,%hi(.LC1)
 444 0160 1146     		li	a2,4
 445 0162 93850700 		addi	a1,a5,%lo(.LC1)
 446 0166 5A85     		mv	a0,s6
 447 0168 97000000 		call	strncmp
 447      E7800000 
 448              	.LVL55:
  92:C:/Users/stapi/OneDrive/Desktop/GD32VW553/V1_MQTT_OK/GD32VW55X_Wifi_BLE_SDK/GD32VW55x_RELEASE_V1.0.2/MSDK/cloud/alicloud/src/infra/utils/misc\json_parser.c ****                 iValueLen = 4;
 449              		.loc 1 92 21
 450 0170 45ED     		bne	a0,zero,.L34
 451              	.L53:
  93:C:/Users/stapi/OneDrive/Desktop/GD32VW553/V1_MQTT_OK/GD32VW55X_Wifi_BLE_SDK/GD32VW55x_RELEASE_V1.0.2/MSDK/cloud/alicloud/src/infra/utils/misc\json_parser.c ****                 p_cPos = p_cValue + iValueLen;
 452              		.loc 1 93 27
 453 0172 1143     		li	t1,4
 454 0174 95A0     		j	.L29
 455              	.LVL56:
 456              	.L67:
  96:C:/Users/stapi/OneDrive/Desktop/GD32VW553/V1_MQTT_OK/GD32VW55X_Wifi_BLE_SDK/GD32VW55x_RELEASE_V1.0.2/MSDK/cloud/alicloud/src/infra/utils/misc\json_parser.c ****                        && (!strncmp(p_cValue, "false", 5)
 457              		.loc 1 96 20 is_stmt 1 discriminator 2
  96:C:/Users/stapi/OneDrive/Desktop/GD32VW553/V1_MQTT_OK/GD32VW55X_Wifi_BLE_SDK/GD32VW55x_RELEASE_V1.0.2/MSDK/cloud/alicloud/src/infra/utils/misc\json_parser.c ****                        && (!strncmp(p_cValue, "false", 5)
 458              		.loc 1 96 42 is_stmt 0 discriminator 2
 459 0176 93076004 		li	a5,70
 460 017a 6397F60A 		bne	a3,a5,.L34
  96:C:/Users/stapi/OneDrive/Desktop/GD32VW553/V1_MQTT_OK/GD32VW55X_Wifi_BLE_SDK/GD32VW55x_RELEASE_V1.0.2/MSDK/cloud/alicloud/src/infra/utils/misc\json_parser.c ****                        && (!strncmp(p_cValue, "false", 5)
 461              		.loc 1 96 63 discriminator 3
 462 017e 63F5AA0A 		bleu	a0,s5,.L34
  97:C:/Users/stapi/OneDrive/Desktop/GD32VW553/V1_MQTT_OK/GD32VW55X_Wifi_BLE_SDK/GD32VW55x_RELEASE_V1.0.2/MSDK/cloud/alicloud/src/infra/utils/misc\json_parser.c ****                            || !strncmp(p_cValue, "FALSE", 5))) {
 463              		.loc 1 97 29
 464 0182 B7070000 		lui	a5,%hi(.LC2)
 465 0186 1546     		li	a2,5
 466 0188 93850700 		addi	a1,a5,%lo(.LC2)
 467 018c 5A85     		mv	a0,s6
 468              	.LVL57:
 469 018e 97000000 		call	strncmp
 469      E7800000 
 470              	.LVL58:
  97:C:/Users/stapi/OneDrive/Desktop/GD32VW553/V1_MQTT_OK/GD32VW55X_Wifi_BLE_SDK/GD32VW55x_RELEASE_V1.0.2/MSDK/cloud/alicloud/src/infra/utils/misc\json_parser.c ****                            || !strncmp(p_cValue, "FALSE", 5))) {
 471              		.loc 1 97 24
 472 0196 01CD     		beq	a0,zero,.L55
  98:C:/Users/stapi/OneDrive/Desktop/GD32VW553/V1_MQTT_OK/GD32VW55X_Wifi_BLE_SDK/GD32VW55x_RELEASE_V1.0.2/MSDK/cloud/alicloud/src/infra/utils/misc\json_parser.c ****                 iValueLen = 5;
 473              		.loc 1 98 32
 474 0198 B7070000 		lui	a5,%hi(.LC3)
 475 019c 1546     		li	a2,5
 476 019e 93850700 		addi	a1,a5,%lo(.LC3)
 477 01a2 5A85     		mv	a0,s6
 478 01a4 97000000 		call	strncmp
 478      E7800000 
 479              	.LVL59:
  98:C:/Users/stapi/OneDrive/Desktop/GD32VW553/V1_MQTT_OK/GD32VW55X_Wifi_BLE_SDK/GD32VW55x_RELEASE_V1.0.2/MSDK/cloud/alicloud/src/infra/utils/misc\json_parser.c ****                 iValueLen = 5;
 480              		.loc 1 98 28
 481 01ac 35ED     		bne	a0,zero,.L34
 482              	.L55:
  99:C:/Users/stapi/OneDrive/Desktop/GD32VW553/V1_MQTT_OK/GD32VW55X_Wifi_BLE_SDK/GD32VW55x_RELEASE_V1.0.2/MSDK/cloud/alicloud/src/infra/utils/misc\json_parser.c ****                 p_cPos = p_cValue + iValueLen;
 483              		.loc 1 99 27
 484 01ae 1543     		li	t1,5
 485 01b0 25A0     		j	.L29
 486              	.LVL60:
 487              	.L31:
 488              	.LBE2:
 103:C:/Users/stapi/OneDrive/Desktop/GD32VW553/V1_MQTT_OK/GD32VW55X_Wifi_BLE_SDK/GD32VW55x_RELEASE_V1.0.2/MSDK/cloud/alicloud/src/infra/utils/misc\json_parser.c ****             if ((*p_cPos < '0' || *p_cPos > '9') && (*p_cPos != '.') && (*p_cPos != '+') \
 489              		.loc 1 103 16 is_stmt 1
 103:C:/Users/stapi/OneDrive/Desktop/GD32VW553/V1_MQTT_OK/GD32VW55X_Wifi_BLE_SDK/GD32VW55x_RELEASE_V1.0.2/MSDK/cloud/alicloud/src/infra/utils/misc\json_parser.c ****             if ((*p_cPos < '0' || *p_cPos > '9') && (*p_cPos != '.') && (*p_cPos != '+') \
 490              		.loc 1 103 19 is_stmt 0
 491 01b2 63969A09 		bne	s5,s9,.L35
 104:C:/Users/stapi/OneDrive/Desktop/GD32VW553/V1_MQTT_OK/GD32VW55X_Wifi_BLE_SDK/GD32VW55x_RELEASE_V1.0.2/MSDK/cloud/alicloud/src/infra/utils/misc\json_parser.c ****                 && (*p_cPos != '-') && ((*p_cPos != 'e')) && (*p_cPos != 'E')) {
 492              		.loc 1 104 13 is_stmt 1
 104:C:/Users/stapi/OneDrive/Desktop/GD32VW553/V1_MQTT_OK/GD32VW55X_Wifi_BLE_SDK/GD32VW55x_RELEASE_V1.0.2/MSDK/cloud/alicloud/src/infra/utils/misc\json_parser.c ****                 && (*p_cPos != '-') && ((*p_cPos != 'e')) && (*p_cPos != 'E')) {
 493              		.loc 1 104 70 is_stmt 0
 494 01b6 138656FD 		addi	a2,a3,-43
 495 01ba 1376F60F 		andi	a2,a2,0xff
 496 01be B947     		li	a5,14
 497 01c0 63FEC704 		bleu	a2,a5,.L36
 105:C:/Users/stapi/OneDrive/Desktop/GD32VW553/V1_MQTT_OK/GD32VW55X_Wifi_BLE_SDK/GD32VW55x_RELEASE_V1.0.2/MSDK/cloud/alicloud/src/infra/utils/misc\json_parser.c ****                 iValueLen = p_cPos - p_cValue;
 498              		.loc 1 105 59
 499 01c4 93F6F6FD 		andi	a3,a3,-33
 500 01c8 93075004 		li	a5,69
 501 01cc 93964660 		sext.b	a3,a3
 502 01d0 638CF604 		beq	a3,a5,.L34
 503              	.L69:
 111:C:/Users/stapi/OneDrive/Desktop/GD32VW553/V1_MQTT_OK/GD32VW55X_Wifi_BLE_SDK/GD32VW55x_RELEASE_V1.0.2/MSDK/cloud/alicloud/src/infra/utils/misc\json_parser.c ****                 break;
 504              		.loc 1 111 17 is_stmt 1
 111:C:/Users/stapi/OneDrive/Desktop/GD32VW553/V1_MQTT_OK/GD32VW55X_Wifi_BLE_SDK/GD32VW55x_RELEASE_V1.0.2/MSDK/cloud/alicloud/src/infra/utils/misc\json_parser.c ****                 break;
 505              		.loc 1 111 27 is_stmt 0
 506 01d4 33836B41 		sub	t1,s7,s6
 507              	.LVL61:
 112:C:/Users/stapi/OneDrive/Desktop/GD32VW553/V1_MQTT_OK/GD32VW55X_Wifi_BLE_SDK/GD32VW55x_RELEASE_V1.0.2/MSDK/cloud/alicloud/src/infra/utils/misc\json_parser.c ****             }
 508              		.loc 1 112 17 is_stmt 1
 509              	.L29:
 138:C:/Users/stapi/OneDrive/Desktop/GD32VW553/V1_MQTT_OK/GD32VW55X_Wifi_BLE_SDK/GD32VW55x_RELEASE_V1.0.2/MSDK/cloud/alicloud/src/infra/utils/misc\json_parser.c ****         if ((p_cName + iNameLen) > str_end) {
 510              		.loc 1 138 5
 138:C:/Users/stapi/OneDrive/Desktop/GD32VW553/V1_MQTT_OK/GD32VW55X_Wifi_BLE_SDK/GD32VW55x_RELEASE_V1.0.2/MSDK/cloud/alicloud/src/infra/utils/misc\json_parser.c ****         if ((p_cName + iNameLen) > str_end) {
 511              		.loc 1 138 8 is_stmt 0
 512 01d8 A247     		lw	a5,8(sp)
 513 01da 8546     		li	a3,1
 514 01dc 639AD700 		bne	a5,a3,.L44
 139:C:/Users/stapi/OneDrive/Desktop/GD32VW553/V1_MQTT_OK/GD32VW55X_Wifi_BLE_SDK/GD32VW55x_RELEASE_V1.0.2/MSDK/cloud/alicloud/src/infra/utils/misc\json_parser.c ****             goto do_exit;
 515              		.loc 1 139 9 is_stmt 1
 139:C:/Users/stapi/OneDrive/Desktop/GD32VW553/V1_MQTT_OK/GD32VW55X_Wifi_BLE_SDK/GD32VW55x_RELEASE_V1.0.2/MSDK/cloud/alicloud/src/infra/utils/misc\json_parser.c ****             goto do_exit;
 516              		.loc 1 139 22 is_stmt 0
 517 01e0 B3069400 		add	a3,s0,s1
 139:C:/Users/stapi/OneDrive/Desktop/GD32VW553/V1_MQTT_OK/GD32VW55X_Wifi_BLE_SDK/GD32VW55x_RELEASE_V1.0.2/MSDK/cloud/alicloud/src/infra/utils/misc\json_parser.c ****             goto do_exit;
 518              		.loc 1 139 12
 519 01e4 6364D90A 		bltu	s2,a3,.L21
 142:C:/Users/stapi/OneDrive/Desktop/GD32VW553/V1_MQTT_OK/GD32VW55X_Wifi_BLE_SDK/GD32VW55x_RELEASE_V1.0.2/MSDK/cloud/alicloud/src/infra/utils/misc\json_parser.c ****         *key_len = iNameLen;
 520              		.loc 1 142 9 is_stmt 1
 142:C:/Users/stapi/OneDrive/Desktop/GD32VW553/V1_MQTT_OK/GD32VW55X_Wifi_BLE_SDK/GD32VW55x_RELEASE_V1.0.2/MSDK/cloud/alicloud/src/infra/utils/misc\json_parser.c ****         *key_len = iNameLen;
 521              		.loc 1 142 14 is_stmt 0
 522 01e8 B247     		lw	a5,12(sp)
 523 01ea 80C3     		sw	s0,0(a5)
 143:C:/Users/stapi/OneDrive/Desktop/GD32VW553/V1_MQTT_OK/GD32VW55X_Wifi_BLE_SDK/GD32VW55x_RELEASE_V1.0.2/MSDK/cloud/alicloud/src/infra/utils/misc\json_parser.c ****     }
 524              		.loc 1 143 9 is_stmt 1
 143:C:/Users/stapi/OneDrive/Desktop/GD32VW553/V1_MQTT_OK/GD32VW55X_Wifi_BLE_SDK/GD32VW55x_RELEASE_V1.0.2/MSDK/cloud/alicloud/src/infra/utils/misc\json_parser.c ****     }
 525              		.loc 1 143 18 is_stmt 0
 526 01ec C247     		lw	a5,16(sp)
 527 01ee 84C3     		sw	s1,0(a5)
 528              	.L44:
 145:C:/Users/stapi/OneDrive/Desktop/GD32VW553/V1_MQTT_OK/GD32VW55X_Wifi_BLE_SDK/GD32VW55x_RELEASE_V1.0.2/MSDK/cloud/alicloud/src/infra/utils/misc\json_parser.c ****         goto do_exit;
 529              		.loc 1 145 5 is_stmt 1
 145:C:/Users/stapi/OneDrive/Desktop/GD32VW553/V1_MQTT_OK/GD32VW55X_Wifi_BLE_SDK/GD32VW55x_RELEASE_V1.0.2/MSDK/cloud/alicloud/src/infra/utils/misc\json_parser.c ****         goto do_exit;
 530              		.loc 1 145 19 is_stmt 0
 531 01f0 33056B00 		add	a0,s6,t1
 145:C:/Users/stapi/OneDrive/Desktop/GD32VW553/V1_MQTT_OK/GD32VW55X_Wifi_BLE_SDK/GD32VW55x_RELEASE_V1.0.2/MSDK/cloud/alicloud/src/infra/utils/misc\json_parser.c ****         goto do_exit;
 532              		.loc 1 145 8
 533 01f4 636CA908 		bgtu	a0,s2,.L21
 149:C:/Users/stapi/OneDrive/Desktop/GD32VW553/V1_MQTT_OK/GD32VW55X_Wifi_BLE_SDK/GD32VW55x_RELEASE_V1.0.2/MSDK/cloud/alicloud/src/infra/utils/misc\json_parser.c ****     *val_len = iValueLen;
 534              		.loc 1 149 5 is_stmt 1
 149:C:/Users/stapi/OneDrive/Desktop/GD32VW553/V1_MQTT_OK/GD32VW55X_Wifi_BLE_SDK/GD32VW55x_RELEASE_V1.0.2/MSDK/cloud/alicloud/src/infra/utils/misc\json_parser.c ****     *val_len = iValueLen;
 535              		.loc 1 149 10 is_stmt 0
 536 01f8 D247     		lw	a5,20(sp)
 537 01fa 23A06701 		sw	s6,0(a5)
 150:C:/Users/stapi/OneDrive/Desktop/GD32VW553/V1_MQTT_OK/GD32VW55X_Wifi_BLE_SDK/GD32VW55x_RELEASE_V1.0.2/MSDK/cloud/alicloud/src/infra/utils/misc\json_parser.c ****     *val_type = iValueType;
 538              		.loc 1 150 5 is_stmt 1
 151:C:/Users/stapi/OneDrive/Desktop/GD32VW553/V1_MQTT_OK/GD32VW55X_Wifi_BLE_SDK/GD32VW55x_RELEASE_V1.0.2/MSDK/cloud/alicloud/src/infra/utils/misc\json_parser.c ****     if (iValueType == JSTRING) {
 539              		.loc 1 151 15 is_stmt 0
 540 01fe E247     		lw	a5,24(sp)
 150:C:/Users/stapi/OneDrive/Desktop/GD32VW553/V1_MQTT_OK/GD32VW55X_Wifi_BLE_SDK/GD32VW55x_RELEASE_V1.0.2/MSDK/cloud/alicloud/src/infra/utils/misc\json_parser.c ****     *val_type = iValueType;
 541              		.loc 1 150 14
 542 0200 23206C00 		sw	t1,0(s8)
 151:C:/Users/stapi/OneDrive/Desktop/GD32VW553/V1_MQTT_OK/GD32VW55X_Wifi_BLE_SDK/GD32VW55x_RELEASE_V1.0.2/MSDK/cloud/alicloud/src/infra/utils/misc\json_parser.c ****     if (iValueType == JSTRING) {
 543              		.loc 1 151 5 is_stmt 1
 151:C:/Users/stapi/OneDrive/Desktop/GD32VW553/V1_MQTT_OK/GD32VW55X_Wifi_BLE_SDK/GD32VW55x_RELEASE_V1.0.2/MSDK/cloud/alicloud/src/infra/utils/misc\json_parser.c ****     if (iValueType == JSTRING) {
 544              		.loc 1 151 15 is_stmt 0
 545 0204 23A05701 		sw	s5,0(a5)
 152:C:/Users/stapi/OneDrive/Desktop/GD32VW553/V1_MQTT_OK/GD32VW55X_Wifi_BLE_SDK/GD32VW55x_RELEASE_V1.0.2/MSDK/cloud/alicloud/src/infra/utils/misc\json_parser.c ****         return p_cValue + iValueLen + 1;
 546              		.loc 1 152 5 is_stmt 1
 152:C:/Users/stapi/OneDrive/Desktop/GD32VW553/V1_MQTT_OK/GD32VW55X_Wifi_BLE_SDK/GD32VW55x_RELEASE_V1.0.2/MSDK/cloud/alicloud/src/infra/utils/misc\json_parser.c ****         return p_cValue + iValueLen + 1;
 547              		.loc 1 152 8 is_stmt 0
 548 0208 63950A00 		bne	s5,zero,.L19
 153:C:/Users/stapi/OneDrive/Desktop/GD32VW553/V1_MQTT_OK/GD32VW55X_Wifi_BLE_SDK/GD32VW55x_RELEASE_V1.0.2/MSDK/cloud/alicloud/src/infra/utils/misc\json_parser.c ****     } else {
 549              		.loc 1 153 9 is_stmt 1
 153:C:/Users/stapi/OneDrive/Desktop/GD32VW553/V1_MQTT_OK/GD32VW55X_Wifi_BLE_SDK/GD32VW55x_RELEASE_V1.0.2/MSDK/cloud/alicloud/src/infra/utils/misc\json_parser.c ****     } else {
 550              		.loc 1 153 37 is_stmt 0
 551 020c 0503     		addi	t1,t1,1
 552              	.LVL62:
 553 020e 33056B00 		add	a0,s6,t1
 554              	.LVL63:
 555              	.L19:
 164:C:/Users/stapi/OneDrive/Desktop/GD32VW553/V1_MQTT_OK/GD32VW55X_Wifi_BLE_SDK/GD32VW55x_RELEASE_V1.0.2/MSDK/cloud/alicloud/src/infra/utils/misc\json_parser.c **** 
 556              		.loc 1 164 1
 557 0212 4561     		addi	sp,sp,48
 558              		.cfi_remember_state
 559              		.cfi_def_cfa_offset 0
 560              	.LVL64:
 561 0214 17030000 		tail	__riscv_restore_12
 561      67000300 
 562              		.cfi_restore 27
 563              		.cfi_restore 26
 564              		.cfi_restore 25
 565              		.cfi_restore 24
 566              		.cfi_restore 23
 567              		.cfi_restore 22
 568              		.cfi_restore 21
 569              		.cfi_restore 20
 570              		.cfi_restore 19
 571              		.cfi_restore 18
 572              		.cfi_restore 9
 573              		.cfi_restore 8
 574              		.cfi_restore 1
 575              		.cfi_def_cfa_offset -64
 576              	.LVL65:
 577              	.L36:
 578              		.cfi_restore_state
 104:C:/Users/stapi/OneDrive/Desktop/GD32VW553/V1_MQTT_OK/GD32VW55X_Wifi_BLE_SDK/GD32VW55x_RELEASE_V1.0.2/MSDK/cloud/alicloud/src/infra/utils/misc\json_parser.c ****                 && (*p_cPos != '-') && ((*p_cPos != 'e')) && (*p_cPos != 'E')) {
 579              		.loc 1 104 70 discriminator 2
 580 021c F247     		lw	a5,28(sp)
 581 021e 33D6C700 		srl	a2,a5,a2
 582 0222 13560648 		bexti	a2,a2,0
 583 0226 5DD6     		beq	a2,zero,.L69
 584              	.LVL66:
 585              	.L34:
 135:C:/Users/stapi/OneDrive/Desktop/GD32VW553/V1_MQTT_OK/GD32VW55X_Wifi_BLE_SDK/GD32VW55x_RELEASE_V1.0.2/MSDK/cloud/alicloud/src/infra/utils/misc\json_parser.c ****     }
 586              		.loc 1 135 9 is_stmt 1
 135:C:/Users/stapi/OneDrive/Desktop/GD32VW553/V1_MQTT_OK/GD32VW55X_Wifi_BLE_SDK/GD32VW55x_RELEASE_V1.0.2/MSDK/cloud/alicloud/src/infra/utils/misc\json_parser.c ****     }
 587              		.loc 1 135 15 is_stmt 0
 588 0228 850B     		addi	s7,s7,1
 589              	.LVL67:
  86:C:/Users/stapi/OneDrive/Desktop/GD32VW553/V1_MQTT_OK/GD32VW55X_Wifi_BLE_SDK/GD32VW55x_RELEASE_V1.0.2/MSDK/cloud/alicloud/src/infra/utils/misc\json_parser.c ****         if (iValueType == JBOOLEAN) {
 590              		.loc 1 86 11 is_stmt 1
 591              	.L42:
  86:C:/Users/stapi/OneDrive/Desktop/GD32VW553/V1_MQTT_OK/GD32VW55X_Wifi_BLE_SDK/GD32VW55x_RELEASE_V1.0.2/MSDK/cloud/alicloud/src/infra/utils/misc\json_parser.c ****         if (iValueType == JBOOLEAN) {
 592              		.loc 1 86 22 is_stmt 0 discriminator 1
 593 022a 83860B00 		lb	a3,0(s7)
  86:C:/Users/stapi/OneDrive/Desktop/GD32VW553/V1_MQTT_OK/GD32VW55X_Wifi_BLE_SDK/GD32VW55x_RELEASE_V1.0.2/MSDK/cloud/alicloud/src/infra/utils/misc\json_parser.c ****         if (iValueType == JBOOLEAN) {
 594              		.loc 1 86 19 discriminator 1
 595 022e 91C6     		beq	a3,zero,.L57
  86:C:/Users/stapi/OneDrive/Desktop/GD32VW553/V1_MQTT_OK/GD32VW55X_Wifi_BLE_SDK/GD32VW55x_RELEASE_V1.0.2/MSDK/cloud/alicloud/src/infra/utils/misc\json_parser.c ****         if (iValueType == JBOOLEAN) {
 596              		.loc 1 86 30 discriminator 2
 597 0230 63F52B01 		bgeu	s7,s2,.L57
  86:C:/Users/stapi/OneDrive/Desktop/GD32VW553/V1_MQTT_OK/GD32VW55X_Wifi_BLE_SDK/GD32VW55x_RELEASE_V1.0.2/MSDK/cloud/alicloud/src/infra/utils/misc\json_parser.c ****         if (iValueType == JBOOLEAN) {
 598              		.loc 1 86 50 discriminator 3
 599 0234 FD57     		li	a5,-1
 600 0236 E396FAEE 		bne	s5,a5,.L43
 601              	.LVL68:
 602              	.L57:
  42:C:/Users/stapi/OneDrive/Desktop/GD32VW553/V1_MQTT_OK/GD32VW55X_Wifi_BLE_SDK/GD32VW55x_RELEASE_V1.0.2/MSDK/cloud/alicloud/src/infra/utils/misc\json_parser.c ****     char   *p_cName = 0, *p_cValue = 0, *p_cPos = str;
 603              		.loc 1 42 63
 604 023a 0143     		li	t1,0
 605 023c 71BF     		j	.L29
 606              	.LVL69:
 607              	.L35:
 109:C:/Users/stapi/OneDrive/Desktop/GD32VW553/V1_MQTT_OK/GD32VW55X_Wifi_BLE_SDK/GD32VW55x_RELEASE_V1.0.2/MSDK/cloud/alicloud/src/infra/utils/misc\json_parser.c ****             if (*p_cPos == '\"') {
 608              		.loc 1 109 16 is_stmt 1
 109:C:/Users/stapi/OneDrive/Desktop/GD32VW553/V1_MQTT_OK/GD32VW55X_Wifi_BLE_SDK/GD32VW55x_RELEASE_V1.0.2/MSDK/cloud/alicloud/src/infra/utils/misc\json_parser.c ****             if (*p_cPos == '\"') {
 609              		.loc 1 109 19 is_stmt 0
 610 023e 63950A00 		bne	s5,zero,.L38
 110:C:/Users/stapi/OneDrive/Desktop/GD32VW553/V1_MQTT_OK/GD32VW55X_Wifi_BLE_SDK/GD32VW55x_RELEASE_V1.0.2/MSDK/cloud/alicloud/src/infra/utils/misc\json_parser.c ****                 iValueLen = p_cPos - p_cValue;
 611              		.loc 1 110 13 is_stmt 1
 110:C:/Users/stapi/OneDrive/Desktop/GD32VW553/V1_MQTT_OK/GD32VW55X_Wifi_BLE_SDK/GD32VW55x_RELEASE_V1.0.2/MSDK/cloud/alicloud/src/infra/utils/misc\json_parser.c ****                 iValueLen = p_cPos - p_cValue;
 612              		.loc 1 110 16 is_stmt 0
 613 0242 E393B6FF 		bne	a3,s11,.L34
 614 0246 79B7     		j	.L69
 615              	.L38:
 114:C:/Users/stapi/OneDrive/Desktop/GD32VW553/V1_MQTT_OK/GD32VW55X_Wifi_BLE_SDK/GD32VW55x_RELEASE_V1.0.2/MSDK/cloud/alicloud/src/infra/utils/misc\json_parser.c ****             if (iStringDepth  == 0) {
 616              		.loc 1 114 16 is_stmt 1
 114:C:/Users/stapi/OneDrive/Desktop/GD32VW553/V1_MQTT_OK/GD32VW55X_Wifi_BLE_SDK/GD32VW55x_RELEASE_V1.0.2/MSDK/cloud/alicloud/src/infra/utils/misc\json_parser.c ****             if (iStringDepth  == 0) {
 617              		.loc 1 114 19 is_stmt 0
 618 0248 03065DFF 		lb	a2,-11(s10)
 619 024c 631CD600 		bne	a2,a3,.L39
 115:C:/Users/stapi/OneDrive/Desktop/GD32VW553/V1_MQTT_OK/GD32VW55X_Wifi_BLE_SDK/GD32VW55x_RELEASE_V1.0.2/MSDK/cloud/alicloud/src/infra/utils/misc\json_parser.c ****                 if (iMarkDepth == 0) {
 620              		.loc 1 115 13 is_stmt 1
 115:C:/Users/stapi/OneDrive/Desktop/GD32VW553/V1_MQTT_OK/GD32VW55X_Wifi_BLE_SDK/GD32VW55x_RELEASE_V1.0.2/MSDK/cloud/alicloud/src/infra/utils/misc\json_parser.c ****                 if (iMarkDepth == 0) {
 621              		.loc 1 115 16 is_stmt 0
 622 0250 E31C0AFC 		bne	s4,zero,.L34
 116:C:/Users/stapi/OneDrive/Desktop/GD32VW553/V1_MQTT_OK/GD32VW55X_Wifi_BLE_SDK/GD32VW55x_RELEASE_V1.0.2/MSDK/cloud/alicloud/src/infra/utils/misc\json_parser.c ****                     iValueLen = p_cPos - p_cValue + 1;
 623              		.loc 1 116 17 is_stmt 1
 116:C:/Users/stapi/OneDrive/Desktop/GD32VW553/V1_MQTT_OK/GD32VW55X_Wifi_BLE_SDK/GD32VW55x_RELEASE_V1.0.2/MSDK/cloud/alicloud/src/infra/utils/misc\json_parser.c ****                     iValueLen = p_cPos - p_cValue + 1;
 624              		.loc 1 116 20 is_stmt 0
 625 0254 63960900 		bne	s3,zero,.L40
 117:C:/Users/stapi/OneDrive/Desktop/GD32VW553/V1_MQTT_OK/GD32VW55X_Wifi_BLE_SDK/GD32VW55x_RELEASE_V1.0.2/MSDK/cloud/alicloud/src/infra/utils/misc\json_parser.c ****                     p_cPos++;
 626              		.loc 1 117 21 is_stmt 1
 117:C:/Users/stapi/OneDrive/Desktop/GD32VW553/V1_MQTT_OK/GD32VW55X_Wifi_BLE_SDK/GD32VW55x_RELEASE_V1.0.2/MSDK/cloud/alicloud/src/infra/utils/misc\json_parser.c ****                     p_cPos++;
 627              		.loc 1 117 40 is_stmt 0
 628 0258 33836B41 		sub	t1,s7,s6
 117:C:/Users/stapi/OneDrive/Desktop/GD32VW553/V1_MQTT_OK/GD32VW55X_Wifi_BLE_SDK/GD32VW55x_RELEASE_V1.0.2/MSDK/cloud/alicloud/src/infra/utils/misc\json_parser.c ****                     p_cPos++;
 629              		.loc 1 117 31
 630 025c 0503     		addi	t1,t1,1
 631              	.LVL70:
 118:C:/Users/stapi/OneDrive/Desktop/GD32VW553/V1_MQTT_OK/GD32VW55X_Wifi_BLE_SDK/GD32VW55x_RELEASE_V1.0.2/MSDK/cloud/alicloud/src/infra/utils/misc\json_parser.c ****                     break;
 632              		.loc 1 118 21 is_stmt 1
 119:C:/Users/stapi/OneDrive/Desktop/GD32VW553/V1_MQTT_OK/GD32VW55X_Wifi_BLE_SDK/GD32VW55x_RELEASE_V1.0.2/MSDK/cloud/alicloud/src/infra/utils/misc\json_parser.c ****                 } else {
 633              		.loc 1 119 21
 634 025e ADBF     		j	.L29
 635              	.LVL71:
 636              	.L40:
 121:C:/Users/stapi/OneDrive/Desktop/GD32VW553/V1_MQTT_OK/GD32VW55X_Wifi_BLE_SDK/GD32VW55x_RELEASE_V1.0.2/MSDK/cloud/alicloud/src/infra/utils/misc\json_parser.c ****                 }
 637              		.loc 1 121 21
 121:C:/Users/stapi/OneDrive/Desktop/GD32VW553/V1_MQTT_OK/GD32VW55X_Wifi_BLE_SDK/GD32VW55x_RELEASE_V1.0.2/MSDK/cloud/alicloud/src/infra/utils/misc\json_parser.c ****                 }
 638              		.loc 1 121 31 is_stmt 0
 639 0260 FD19     		addi	s3,s3,-1
 640              	.LVL72:
 641 0262 D9B7     		j	.L34
 642              	.L39:
 124:C:/Users/stapi/OneDrive/Desktop/GD32VW553/V1_MQTT_OK/GD32VW55X_Wifi_BLE_SDK/GD32VW55x_RELEASE_V1.0.2/MSDK/cloud/alicloud/src/infra/utils/misc\json_parser.c ****             if (iStringDepth == 0) {
 643              		.loc 1 124 16 is_stmt 1
 124:C:/Users/stapi/OneDrive/Desktop/GD32VW553/V1_MQTT_OK/GD32VW55X_Wifi_BLE_SDK/GD32VW55x_RELEASE_V1.0.2/MSDK/cloud/alicloud/src/infra/utils/misc\json_parser.c ****             if (iStringDepth == 0) {
 644              		.loc 1 124 19 is_stmt 0
 645 0264 03064DFF 		lb	a2,-12(s10)
 646 0268 6316D600 		bne	a2,a3,.L41
 125:C:/Users/stapi/OneDrive/Desktop/GD32VW553/V1_MQTT_OK/GD32VW55X_Wifi_BLE_SDK/GD32VW55x_RELEASE_V1.0.2/MSDK/cloud/alicloud/src/infra/utils/misc\json_parser.c ****                 iMarkDepth++;
 647              		.loc 1 125 13 is_stmt 1
 125:C:/Users/stapi/OneDrive/Desktop/GD32VW553/V1_MQTT_OK/GD32VW55X_Wifi_BLE_SDK/GD32VW55x_RELEASE_V1.0.2/MSDK/cloud/alicloud/src/infra/utils/misc\json_parser.c ****                 iMarkDepth++;
 648              		.loc 1 125 16 is_stmt 0
 649 026c E31E0AFA 		bne	s4,zero,.L34
 126:C:/Users/stapi/OneDrive/Desktop/GD32VW553/V1_MQTT_OK/GD32VW55X_Wifi_BLE_SDK/GD32VW55x_RELEASE_V1.0.2/MSDK/cloud/alicloud/src/infra/utils/misc\json_parser.c ****             }
 650              		.loc 1 126 17 is_stmt 1
 126:C:/Users/stapi/OneDrive/Desktop/GD32VW553/V1_MQTT_OK/GD32VW55X_Wifi_BLE_SDK/GD32VW55x_RELEASE_V1.0.2/MSDK/cloud/alicloud/src/infra/utils/misc\json_parser.c ****             }
 651              		.loc 1 126 27 is_stmt 0
 652 0270 8509     		addi	s3,s3,1
 653              	.LVL73:
 654 0272 5DBF     		j	.L34
 655              	.L41:
 128:C:/Users/stapi/OneDrive/Desktop/GD32VW553/V1_MQTT_OK/GD32VW55X_Wifi_BLE_SDK/GD32VW55x_RELEASE_V1.0.2/MSDK/cloud/alicloud/src/infra/utils/misc\json_parser.c ****             if (iStringDepth) {
 656              		.loc 1 128 16 is_stmt 1
 128:C:/Users/stapi/OneDrive/Desktop/GD32VW553/V1_MQTT_OK/GD32VW55X_Wifi_BLE_SDK/GD32VW55x_RELEASE_V1.0.2/MSDK/cloud/alicloud/src/infra/utils/misc\json_parser.c ****             if (iStringDepth) {
 657              		.loc 1 128 19 is_stmt 0
 658 0274 E39AB6FB 		bne	a3,s11,.L34
 129:C:/Users/stapi/OneDrive/Desktop/GD32VW553/V1_MQTT_OK/GD32VW55X_Wifi_BLE_SDK/GD32VW55x_RELEASE_V1.0.2/MSDK/cloud/alicloud/src/infra/utils/misc\json_parser.c ****                 iStringDepth = 0;
 659              		.loc 1 129 13 is_stmt 1
 129:C:/Users/stapi/OneDrive/Desktop/GD32VW553/V1_MQTT_OK/GD32VW55X_Wifi_BLE_SDK/GD32VW55x_RELEASE_V1.0.2/MSDK/cloud/alicloud/src/infra/utils/misc\json_parser.c ****                 iStringDepth = 0;
 660              		.loc 1 129 16 is_stmt 0
 661 0278 8547     		li	a5,1
 662 027a 338A4741 		sub	s4,a5,s4
 663              	.LVL74:
 664 027e 6DB7     		j	.L34
 665              	.LVL75:
 666              	.L49:
 667 0280 5E8B     		mv	s6,s7
  79:C:/Users/stapi/OneDrive/Desktop/GD32VW553/V1_MQTT_OK/GD32VW55X_Wifi_BLE_SDK/GD32VW55x_RELEASE_V1.0.2/MSDK/cloud/alicloud/src/infra/utils/misc\json_parser.c ****             p_cValue = p_cPos;
 668              		.loc 1 79 24
 669 0282 914A     		li	s5,4
 670 0284 25B5     		j	.L23
 671              	.L50:
  43:C:/Users/stapi/OneDrive/Desktop/GD32VW553/V1_MQTT_OK/GD32VW55X_Wifi_BLE_SDK/GD32VW55x_RELEASE_V1.0.2/MSDK/cloud/alicloud/src/infra/utils/misc\json_parser.c **** 
 672              		.loc 1 43 27
 673 0286 014B     		li	s6,0
  42:C:/Users/stapi/OneDrive/Desktop/GD32VW553/V1_MQTT_OK/GD32VW55X_Wifi_BLE_SDK/GD32VW55x_RELEASE_V1.0.2/MSDK/cloud/alicloud/src/infra/utils/misc\json_parser.c ****     char   *p_cName = 0, *p_cValue = 0, *p_cPos = str;
 674              		.loc 1 42 29
 675 0288 FD5A     		li	s5,-1
 676 028a 45BF     		j	.L57
 677              	.LVL76:
 678              	.L21:
 679              	.LDL1:
 159:C:/Users/stapi/OneDrive/Desktop/GD32VW553/V1_MQTT_OK/GD32VW55X_Wifi_BLE_SDK/GD32VW55x_RELEASE_V1.0.2/MSDK/cloud/alicloud/src/infra/utils/misc\json_parser.c ****     *val_len = 0;
 680              		.loc 1 159 5 is_stmt 1
 159:C:/Users/stapi/OneDrive/Desktop/GD32VW553/V1_MQTT_OK/GD32VW55X_Wifi_BLE_SDK/GD32VW55x_RELEASE_V1.0.2/MSDK/cloud/alicloud/src/infra/utils/misc\json_parser.c ****     *val_len = 0;
 681              		.loc 1 159 10 is_stmt 0
 682 028c D247     		lw	a5,20(sp)
 163:C:/Users/stapi/OneDrive/Desktop/GD32VW553/V1_MQTT_OK/GD32VW55X_Wifi_BLE_SDK/GD32VW55x_RELEASE_V1.0.2/MSDK/cloud/alicloud/src/infra/utils/misc\json_parser.c **** }
 683              		.loc 1 163 12
 684 028e 0145     		li	a0,0
 159:C:/Users/stapi/OneDrive/Desktop/GD32VW553/V1_MQTT_OK/GD32VW55X_Wifi_BLE_SDK/GD32VW55x_RELEASE_V1.0.2/MSDK/cloud/alicloud/src/infra/utils/misc\json_parser.c ****     *val_len = 0;
 685              		.loc 1 159 10
 686 0290 23A00700 		sw	zero,0(a5)
 160:C:/Users/stapi/OneDrive/Desktop/GD32VW553/V1_MQTT_OK/GD32VW55X_Wifi_BLE_SDK/GD32VW55x_RELEASE_V1.0.2/MSDK/cloud/alicloud/src/infra/utils/misc\json_parser.c ****     *key = NULL;
 687              		.loc 1 160 5 is_stmt 1
 161:C:/Users/stapi/OneDrive/Desktop/GD32VW553/V1_MQTT_OK/GD32VW55X_Wifi_BLE_SDK/GD32VW55x_RELEASE_V1.0.2/MSDK/cloud/alicloud/src/infra/utils/misc\json_parser.c ****     *key_len = 0;
 688              		.loc 1 161 10 is_stmt 0
 689 0294 B247     		lw	a5,12(sp)
 160:C:/Users/stapi/OneDrive/Desktop/GD32VW553/V1_MQTT_OK/GD32VW55X_Wifi_BLE_SDK/GD32VW55x_RELEASE_V1.0.2/MSDK/cloud/alicloud/src/infra/utils/misc\json_parser.c ****     *key = NULL;
 690              		.loc 1 160 14
 691 0296 23200C00 		sw	zero,0(s8)
 161:C:/Users/stapi/OneDrive/Desktop/GD32VW553/V1_MQTT_OK/GD32VW55X_Wifi_BLE_SDK/GD32VW55x_RELEASE_V1.0.2/MSDK/cloud/alicloud/src/infra/utils/misc\json_parser.c ****     *key_len = 0;
 692              		.loc 1 161 5 is_stmt 1
 161:C:/Users/stapi/OneDrive/Desktop/GD32VW553/V1_MQTT_OK/GD32VW55X_Wifi_BLE_SDK/GD32VW55x_RELEASE_V1.0.2/MSDK/cloud/alicloud/src/infra/utils/misc\json_parser.c ****     *key_len = 0;
 693              		.loc 1 161 10 is_stmt 0
 694 029a 23A00700 		sw	zero,0(a5)
 162:C:/Users/stapi/OneDrive/Desktop/GD32VW553/V1_MQTT_OK/GD32VW55X_Wifi_BLE_SDK/GD32VW55x_RELEASE_V1.0.2/MSDK/cloud/alicloud/src/infra/utils/misc\json_parser.c ****     return NULL;
 695              		.loc 1 162 5 is_stmt 1
 162:C:/Users/stapi/OneDrive/Desktop/GD32VW553/V1_MQTT_OK/GD32VW55X_Wifi_BLE_SDK/GD32VW55x_RELEASE_V1.0.2/MSDK/cloud/alicloud/src/infra/utils/misc\json_parser.c ****     return NULL;
 696              		.loc 1 162 14 is_stmt 0
 697 029e C247     		lw	a5,16(sp)
 698 02a0 23A00700 		sw	zero,0(a5)
 163:C:/Users/stapi/OneDrive/Desktop/GD32VW553/V1_MQTT_OK/GD32VW55X_Wifi_BLE_SDK/GD32VW55x_RELEASE_V1.0.2/MSDK/cloud/alicloud/src/infra/utils/misc\json_parser.c **** }
 699              		.loc 1 163 5 is_stmt 1
 163:C:/Users/stapi/OneDrive/Desktop/GD32VW553/V1_MQTT_OK/GD32VW55X_Wifi_BLE_SDK/GD32VW55x_RELEASE_V1.0.2/MSDK/cloud/alicloud/src/infra/utils/misc\json_parser.c **** }
 700              		.loc 1 163 12 is_stmt 0
 701 02a4 BDB7     		j	.L19
 702              		.cfi_endproc
 703              	.LFE21:
 705              		.section	.text.json_parse_name_value,"ax",@progbits
 706              		.align	1
 707              		.globl	json_parse_name_value
 709              	json_parse_name_value:
 710              	.LFB22:
 167:C:/Users/stapi/OneDrive/Desktop/GD32VW553/V1_MQTT_OK/GD32VW55X_Wifi_BLE_SDK/GD32VW55x_RELEASE_V1.0.2/MSDK/cloud/alicloud/src/infra/utils/misc\json_parser.c ****     char    *pos = 0, *key = 0, *val = 0;
 711              		.loc 1 167 1 is_stmt 1
 712              		.cfi_startproc
 713              	.LVL77:
 714 0000 17030000 		call	t0,__riscv_save_6
 714      E7020300 
 715              		.cfi_offset 21, -28
 716              		.cfi_offset 20, -24
 717              		.cfi_offset 19, -20
 718              		.cfi_offset 18, -16
 719              		.cfi_offset 9, -12
 720              		.cfi_offset 8, -8
 721              		.cfi_offset 1, -4
 722              		.cfi_def_cfa_offset 32
 168:C:/Users/stapi/OneDrive/Desktop/GD32VW553/V1_MQTT_OK/GD32VW55X_Wifi_BLE_SDK/GD32VW55x_RELEASE_V1.0.2/MSDK/cloud/alicloud/src/infra/utils/misc\json_parser.c ****     int     klen = 0, vlen = 0, vtype = 0;
 723              		.loc 1 168 5
 724              	.LVL78:
 167:C:/Users/stapi/OneDrive/Desktop/GD32VW553/V1_MQTT_OK/GD32VW55X_Wifi_BLE_SDK/GD32VW55x_RELEASE_V1.0.2/MSDK/cloud/alicloud/src/infra/utils/misc\json_parser.c ****     char    *pos = 0, *key = 0, *val = 0;
 725              		.loc 1 167 1 is_stmt 0
 726 0008 0111     		addi	sp,sp,-32
 727              		.cfi_def_cfa_offset 64
 168:C:/Users/stapi/OneDrive/Desktop/GD32VW553/V1_MQTT_OK/GD32VW55X_Wifi_BLE_SDK/GD32VW55x_RELEASE_V1.0.2/MSDK/cloud/alicloud/src/infra/utils/misc\json_parser.c ****     int     klen = 0, vlen = 0, vtype = 0;
 728              		.loc 1 168 24
 729 000a 02C6     		sw	zero,12(sp)
 168:C:/Users/stapi/OneDrive/Desktop/GD32VW553/V1_MQTT_OK/GD32VW55X_Wifi_BLE_SDK/GD32VW55x_RELEASE_V1.0.2/MSDK/cloud/alicloud/src/infra/utils/misc\json_parser.c ****     int     klen = 0, vlen = 0, vtype = 0;
 730              		.loc 1 168 34
 731 000c 02C8     		sw	zero,16(sp)
 169:C:/Users/stapi/OneDrive/Desktop/GD32VW553/V1_MQTT_OK/GD32VW55X_Wifi_BLE_SDK/GD32VW55x_RELEASE_V1.0.2/MSDK/cloud/alicloud/src/infra/utils/misc\json_parser.c ****     int     ret = JSON_RESULT_ERR;
 732              		.loc 1 169 5 is_stmt 1
 169:C:/Users/stapi/OneDrive/Desktop/GD32VW553/V1_MQTT_OK/GD32VW55X_Wifi_BLE_SDK/GD32VW55x_RELEASE_V1.0.2/MSDK/cloud/alicloud/src/infra/utils/misc\json_parser.c ****     int     ret = JSON_RESULT_ERR;
 733              		.loc 1 169 13 is_stmt 0
 734 000e 02CA     		sw	zero,20(sp)
 169:C:/Users/stapi/OneDrive/Desktop/GD32VW553/V1_MQTT_OK/GD32VW55X_Wifi_BLE_SDK/GD32VW55x_RELEASE_V1.0.2/MSDK/cloud/alicloud/src/infra/utils/misc\json_parser.c ****     int     ret = JSON_RESULT_ERR;
 735              		.loc 1 169 23
 736 0010 02CC     		sw	zero,24(sp)
 169:C:/Users/stapi/OneDrive/Desktop/GD32VW553/V1_MQTT_OK/GD32VW55X_Wifi_BLE_SDK/GD32VW55x_RELEASE_V1.0.2/MSDK/cloud/alicloud/src/infra/utils/misc\json_parser.c ****     int     ret = JSON_RESULT_ERR;
 737              		.loc 1 169 33
 738 0012 02CE     		sw	zero,28(sp)
 170:C:/Users/stapi/OneDrive/Desktop/GD32VW553/V1_MQTT_OK/GD32VW55X_Wifi_BLE_SDK/GD32VW55x_RELEASE_V1.0.2/MSDK/cloud/alicloud/src/infra/utils/misc\json_parser.c **** 
 739              		.loc 1 170 5 is_stmt 1
 740              	.LVL79:
 172:C:/Users/stapi/OneDrive/Desktop/GD32VW553/V1_MQTT_OK/GD32VW55X_Wifi_BLE_SDK/GD32VW55x_RELEASE_V1.0.2/MSDK/cloud/alicloud/src/infra/utils/misc\json_parser.c ****         return ret;
 741              		.loc 1 172 5
 173:C:/Users/stapi/OneDrive/Desktop/GD32VW553/V1_MQTT_OK/GD32VW55X_Wifi_BLE_SDK/GD32VW55x_RELEASE_V1.0.2/MSDK/cloud/alicloud/src/infra/utils/misc\json_parser.c ****     }
 742              		.loc 1 173 16 is_stmt 0
 743 0014 7D59     		li	s2,-1
 172:C:/Users/stapi/OneDrive/Desktop/GD32VW553/V1_MQTT_OK/GD32VW55X_Wifi_BLE_SDK/GD32VW55x_RELEASE_V1.0.2/MSDK/cloud/alicloud/src/infra/utils/misc\json_parser.c ****         return ret;
 744              		.loc 1 172 8
 745 0016 35C1     		beq	a0,zero,.L70
 172:C:/Users/stapi/OneDrive/Desktop/GD32VW553/V1_MQTT_OK/GD32VW55X_Wifi_BLE_SDK/GD32VW55x_RELEASE_V1.0.2/MSDK/cloud/alicloud/src/infra/utils/misc\json_parser.c ****         return ret;
 746              		.loc 1 172 28 discriminator 1
 747 0018 ADC1     		beq	a1,zero,.L70
 748 001a B289     		mv	s3,a2
 172:C:/Users/stapi/OneDrive/Desktop/GD32VW553/V1_MQTT_OK/GD32VW55X_Wifi_BLE_SDK/GD32VW55x_RELEASE_V1.0.2/MSDK/cloud/alicloud/src/infra/utils/misc\json_parser.c ****         return ret;
 749              		.loc 1 172 44 discriminator 2
 750 001c 39CE     		beq	a2,zero,.L70
 176:C:/Users/stapi/OneDrive/Desktop/GD32VW553/V1_MQTT_OK/GD32VW55X_Wifi_BLE_SDK/GD32VW55x_RELEASE_V1.0.2/MSDK/cloud/alicloud/src/infra/utils/misc\json_parser.c ****         if (key && klen && val && vlen) {
 751              		.loc 1 176 5
 752 001e B304B500 		add	s1,a0,a1
 753 0022 2686     		mv	a2,s1
 754              	.LVL80:
 755 0024 AA85     		mv	a1,a0
 756              	.LVL81:
 757 0026 0545     		li	a0,1
 758              	.LVL82:
 759 0028 368A     		mv	s4,a3
 176:C:/Users/stapi/OneDrive/Desktop/GD32VW553/V1_MQTT_OK/GD32VW55X_Wifi_BLE_SDK/GD32VW55x_RELEASE_V1.0.2/MSDK/cloud/alicloud/src/infra/utils/misc\json_parser.c ****         if (key && klen && val && vlen) {
 760              		.loc 1 176 5 is_stmt 1
 761 002a 97000000 		call	json_get_object
 761      E7800000 
 762              	.LVL83:
 763 0032 2A84     		mv	s0,a0
 764              	.LVL84:
 179:C:/Users/stapi/OneDrive/Desktop/GD32VW553/V1_MQTT_OK/GD32VW55X_Wifi_BLE_SDK/GD32VW55x_RELEASE_V1.0.2/MSDK/cloud/alicloud/src/infra/utils/misc\json_parser.c ****                 break;
 765              		.loc 1 179 16 is_stmt 0
 766 0034 894A     		li	s5,2
 767              	.LVL85:
 768              	.L72:
 176:C:/Users/stapi/OneDrive/Desktop/GD32VW553/V1_MQTT_OK/GD32VW55X_Wifi_BLE_SDK/GD32VW55x_RELEASE_V1.0.2/MSDK/cloud/alicloud/src/infra/utils/misc\json_parser.c ****         if (key && klen && val && vlen) {
 769              		.loc 1 176 5 is_stmt 1 discriminator 1
 770 0036 31C0     		beq	s0,zero,.L70
 176:C:/Users/stapi/OneDrive/Desktop/GD32VW553/V1_MQTT_OK/GD32VW55X_Wifi_BLE_SDK/GD32VW55x_RELEASE_V1.0.2/MSDK/cloud/alicloud/src/infra/utils/misc\json_parser.c ****         if (key && klen && val && vlen) {
 771              		.loc 1 176 5 is_stmt 0 discriminator 2
 772 0038 83070400 		lb	a5,0(s0)
 773 003c 9DCF     		beq	a5,zero,.L70
 176:C:/Users/stapi/OneDrive/Desktop/GD32VW553/V1_MQTT_OK/GD32VW55X_Wifi_BLE_SDK/GD32VW55x_RELEASE_V1.0.2/MSDK/cloud/alicloud/src/infra/utils/misc\json_parser.c ****         if (key && klen && val && vlen) {
 774              		.loc 1 176 5 discriminator 3
 775 003e A285     		mv	a1,s0
 776 0040 9308C101 		addi	a7,sp,28
 777 0044 13088101 		addi	a6,sp,24
 778 0048 1C08     		addi	a5,sp,16
 779 004a 5808     		addi	a4,sp,20
 780 004c 7400     		addi	a3,sp,12
 781 004e 2686     		mv	a2,s1
 782 0050 0545     		li	a0,1
 783 0052 97000000 		call	json_get_next_object
 783      E7800000 
 784              	.LVL86:
 785 005a 2A84     		mv	s0,a0
 786              	.LVL87:
 787 005c 19CD     		beq	a0,zero,.L70
 177:C:/Users/stapi/OneDrive/Desktop/GD32VW553/V1_MQTT_OK/GD32VW55X_Wifi_BLE_SDK/GD32VW55x_RELEASE_V1.0.2/MSDK/cloud/alicloud/src/infra/utils/misc\json_parser.c ****             ret = JSON_RESULT_OK;
 788              		.loc 1 177 9 is_stmt 1
 177:C:/Users/stapi/OneDrive/Desktop/GD32VW553/V1_MQTT_OK/GD32VW55X_Wifi_BLE_SDK/GD32VW55x_RELEASE_V1.0.2/MSDK/cloud/alicloud/src/infra/utils/misc\json_parser.c ****             ret = JSON_RESULT_OK;
 789              		.loc 1 177 13 is_stmt 0
 790 005e 3245     		lw	a0,12(sp)
 177:C:/Users/stapi/OneDrive/Desktop/GD32VW553/V1_MQTT_OK/GD32VW55X_Wifi_BLE_SDK/GD32VW55x_RELEASE_V1.0.2/MSDK/cloud/alicloud/src/infra/utils/misc\json_parser.c ****             ret = JSON_RESULT_OK;
 791              		.loc 1 177 12
 792 0060 79D9     		beq	a0,zero,.L72
 177:C:/Users/stapi/OneDrive/Desktop/GD32VW553/V1_MQTT_OK/GD32VW55X_Wifi_BLE_SDK/GD32VW55x_RELEASE_V1.0.2/MSDK/cloud/alicloud/src/infra/utils/misc\json_parser.c ****             ret = JSON_RESULT_OK;
 793              		.loc 1 177 17 discriminator 1
 794 0062 D245     		lw	a1,20(sp)
 795 0064 E9D9     		beq	a1,zero,.L72
 177:C:/Users/stapi/OneDrive/Desktop/GD32VW553/V1_MQTT_OK/GD32VW55X_Wifi_BLE_SDK/GD32VW55x_RELEASE_V1.0.2/MSDK/cloud/alicloud/src/infra/utils/misc\json_parser.c ****             ret = JSON_RESULT_OK;
 796              		.loc 1 177 25 discriminator 2
 797 0066 4246     		lw	a2,16(sp)
 798 0068 79D6     		beq	a2,zero,.L72
 177:C:/Users/stapi/OneDrive/Desktop/GD32VW553/V1_MQTT_OK/GD32VW55X_Wifi_BLE_SDK/GD32VW55x_RELEASE_V1.0.2/MSDK/cloud/alicloud/src/infra/utils/misc\json_parser.c ****             ret = JSON_RESULT_OK;
 799              		.loc 1 177 32 discriminator 3
 800 006a E246     		lw	a3,24(sp)
 801 006c E9D6     		beq	a3,zero,.L72
 178:C:/Users/stapi/OneDrive/Desktop/GD32VW553/V1_MQTT_OK/GD32VW55X_Wifi_BLE_SDK/GD32VW55x_RELEASE_V1.0.2/MSDK/cloud/alicloud/src/infra/utils/misc\json_parser.c ****             if (JSON_PARSE_FINISH == pfnCB(key, klen, val, vlen, vtype, p_CBData)) {
 802              		.loc 1 178 13 is_stmt 1
 803              	.LVL88:
 179:C:/Users/stapi/OneDrive/Desktop/GD32VW553/V1_MQTT_OK/GD32VW55X_Wifi_BLE_SDK/GD32VW55x_RELEASE_V1.0.2/MSDK/cloud/alicloud/src/infra/utils/misc\json_parser.c ****                 break;
 804              		.loc 1 179 13
 179:C:/Users/stapi/OneDrive/Desktop/GD32VW553/V1_MQTT_OK/GD32VW55X_Wifi_BLE_SDK/GD32VW55x_RELEASE_V1.0.2/MSDK/cloud/alicloud/src/infra/utils/misc\json_parser.c ****                 break;
 805              		.loc 1 179 38 is_stmt 0
 806 006e 7247     		lw	a4,28(sp)
 807 0070 D287     		mv	a5,s4
 178:C:/Users/stapi/OneDrive/Desktop/GD32VW553/V1_MQTT_OK/GD32VW55X_Wifi_BLE_SDK/GD32VW55x_RELEASE_V1.0.2/MSDK/cloud/alicloud/src/infra/utils/misc\json_parser.c ****             if (JSON_PARSE_FINISH == pfnCB(key, klen, val, vlen, vtype, p_CBData)) {
 808              		.loc 1 178 17
 809 0072 0149     		li	s2,0
 179:C:/Users/stapi/OneDrive/Desktop/GD32VW553/V1_MQTT_OK/GD32VW55X_Wifi_BLE_SDK/GD32VW55x_RELEASE_V1.0.2/MSDK/cloud/alicloud/src/infra/utils/misc\json_parser.c ****                 break;
 810              		.loc 1 179 38
 811 0074 8299     		jalr	s3
 812              	.LVL89:
 179:C:/Users/stapi/OneDrive/Desktop/GD32VW553/V1_MQTT_OK/GD32VW55X_Wifi_BLE_SDK/GD32VW55x_RELEASE_V1.0.2/MSDK/cloud/alicloud/src/infra/utils/misc\json_parser.c ****                 break;
 813              		.loc 1 179 16
 814 0076 E31055FD 		bne	a0,s5,.L72
 815              	.LVL90:
 816              	.L70:
 186:C:/Users/stapi/OneDrive/Desktop/GD32VW553/V1_MQTT_OK/GD32VW55X_Wifi_BLE_SDK/GD32VW55x_RELEASE_V1.0.2/MSDK/cloud/alicloud/src/infra/utils/misc\json_parser.c **** 
 817              		.loc 1 186 1
 818 007a 4A85     		mv	a0,s2
 819 007c 0561     		addi	sp,sp,32
 820              		.cfi_def_cfa_offset 0
 821 007e 17030000 		tail	__riscv_restore_6
 821      67000300 
 822              		.cfi_restore 21
 823              		.cfi_restore 20
 824              		.cfi_restore 19
 825              		.cfi_restore 18
 826              		.cfi_restore 9
 827              		.cfi_restore 8
 828              		.cfi_restore 1
 829              		.cfi_def_cfa_offset -32
 830              		.cfi_endproc
 831              	.LFE22:
 833              		.section	.text.json_get_value_by_name,"ax",@progbits
 834              		.align	1
 835              		.globl	json_get_value_by_name
 837              	json_get_value_by_name:
 838              	.LFB24:
 220:C:/Users/stapi/OneDrive/Desktop/GD32VW553/V1_MQTT_OK/GD32VW55X_Wifi_BLE_SDK/GD32VW55x_RELEASE_V1.0.2/MSDK/cloud/alicloud/src/infra/utils/misc\json_parser.c **** 
 221:C:/Users/stapi/OneDrive/Desktop/GD32VW553/V1_MQTT_OK/GD32VW55X_Wifi_BLE_SDK/GD32VW55x_RELEASE_V1.0.2/MSDK/cloud/alicloud/src/infra/utils/misc\json_parser.c **** char *json_get_value_by_name(char *p_cJsonStr, int iStrLen, char *p_cName, int *p_iValueLen, int *p
 222:C:/Users/stapi/OneDrive/Desktop/GD32VW553/V1_MQTT_OK/GD32VW55X_Wifi_BLE_SDK/GD32VW55x_RELEASE_V1.0.2/MSDK/cloud/alicloud/src/infra/utils/misc\json_parser.c **** {
 839              		.loc 1 222 1 is_stmt 1
 840              		.cfi_startproc
 841              	.LVL91:
 842 0000 17030000 		call	t0,__riscv_save_3
 842      E7020300 
 843              		.cfi_offset 18, -16
 844              		.cfi_offset 9, -12
 845              		.cfi_offset 8, -8
 846              		.cfi_offset 1, -4
 847              		.cfi_def_cfa_offset 16
 223:C:/Users/stapi/OneDrive/Desktop/GD32VW553/V1_MQTT_OK/GD32VW55X_Wifi_BLE_SDK/GD32VW55x_RELEASE_V1.0.2/MSDK/cloud/alicloud/src/infra/utils/misc\json_parser.c ****     JSON_NV     stNV;
 848              		.loc 1 223 5
 224:C:/Users/stapi/OneDrive/Desktop/GD32VW553/V1_MQTT_OK/GD32VW55X_Wifi_BLE_SDK/GD32VW55x_RELEASE_V1.0.2/MSDK/cloud/alicloud/src/infra/utils/misc\json_parser.c **** 
 225:C:/Users/stapi/OneDrive/Desktop/GD32VW553/V1_MQTT_OK/GD32VW55X_Wifi_BLE_SDK/GD32VW55x_RELEASE_V1.0.2/MSDK/cloud/alicloud/src/infra/utils/misc\json_parser.c ****     memset(&stNV, 0, sizeof(stNV));
 849              		.loc 1 225 5
 222:C:/Users/stapi/OneDrive/Desktop/GD32VW553/V1_MQTT_OK/GD32VW55X_Wifi_BLE_SDK/GD32VW55x_RELEASE_V1.0.2/MSDK/cloud/alicloud/src/infra/utils/misc\json_parser.c ****     JSON_NV     stNV;
 850              		.loc 1 222 1 is_stmt 0
 851 0008 7971     		addi	sp,sp,-48
 852              		.cfi_def_cfa_offset 64
 222:C:/Users/stapi/OneDrive/Desktop/GD32VW553/V1_MQTT_OK/GD32VW55X_Wifi_BLE_SDK/GD32VW55x_RELEASE_V1.0.2/MSDK/cloud/alicloud/src/infra/utils/misc\json_parser.c ****     JSON_NV     stNV;
 853              		.loc 1 222 1
 854 000a 2A89     		mv	s2,a0
 855 000c 3285     		mv	a0,a2
 856              	.LVL92:
 857 000e 2EC6     		sw	a1,12(sp)
 858 0010 B684     		mv	s1,a3
 226:C:/Users/stapi/OneDrive/Desktop/GD32VW553/V1_MQTT_OK/GD32VW55X_Wifi_BLE_SDK/GD32VW55x_RELEASE_V1.0.2/MSDK/cloud/alicloud/src/infra/utils/misc\json_parser.c ****     stNV.pN = p_cName;
 859              		.loc 1 226 13
 860 0012 32D4     		sw	a2,40(sp)
 222:C:/Users/stapi/OneDrive/Desktop/GD32VW553/V1_MQTT_OK/GD32VW55X_Wifi_BLE_SDK/GD32VW55x_RELEASE_V1.0.2/MSDK/cloud/alicloud/src/infra/utils/misc\json_parser.c ****     JSON_NV     stNV;
 861              		.loc 1 222 1
 862 0014 3A84     		mv	s0,a4
 225:C:/Users/stapi/OneDrive/Desktop/GD32VW553/V1_MQTT_OK/GD32VW55X_Wifi_BLE_SDK/GD32VW55x_RELEASE_V1.0.2/MSDK/cloud/alicloud/src/infra/utils/misc\json_parser.c ****     stNV.pN = p_cName;
 863              		.loc 1 225 5
 864 0016 02CE     		sw	zero,28(sp)
 865 0018 02D0     		sw	zero,32(sp)
 866 001a 02D2     		sw	zero,36(sp)
 867 001c 02D6     		sw	zero,44(sp)
 868              		.loc 1 226 5 is_stmt 1
 227:C:/Users/stapi/OneDrive/Desktop/GD32VW553/V1_MQTT_OK/GD32VW55X_Wifi_BLE_SDK/GD32VW55x_RELEASE_V1.0.2/MSDK/cloud/alicloud/src/infra/utils/misc\json_parser.c ****     stNV.nLen = strlen(p_cName);
 869              		.loc 1 227 5
 870              		.loc 1 227 17 is_stmt 0
 871 001e 97000000 		call	strlen
 871      E7800000 
 872              	.LVL93:
 228:C:/Users/stapi/OneDrive/Desktop/GD32VW553/V1_MQTT_OK/GD32VW55X_Wifi_BLE_SDK/GD32VW55x_RELEASE_V1.0.2/MSDK/cloud/alicloud/src/infra/utils/misc\json_parser.c ****     if (JSON_RESULT_OK == json_parse_name_value(p_cJsonStr, iStrLen, json_get_value_by_name_cb, (vo
 873              		.loc 1 228 27
 874 0026 B245     		lw	a1,12(sp)
 875 0028 37060000 		lui	a2,%hi(json_get_value_by_name_cb)
 227:C:/Users/stapi/OneDrive/Desktop/GD32VW553/V1_MQTT_OK/GD32VW55X_Wifi_BLE_SDK/GD32VW55x_RELEASE_V1.0.2/MSDK/cloud/alicloud/src/infra/utils/misc\json_parser.c ****     stNV.nLen = strlen(p_cName);
 876              		.loc 1 227 15
 877 002c 2ACE     		sw	a0,28(sp)
 878              		.loc 1 228 5 is_stmt 1
 879              		.loc 1 228 27 is_stmt 0
 880 002e 7408     		addi	a3,sp,28
 881 0030 13060600 		addi	a2,a2,%lo(json_get_value_by_name_cb)
 882 0034 4A85     		mv	a0,s2
 883 0036 97000000 		call	json_parse_name_value
 883      E7800000 
 884              	.LVL94:
 885              		.loc 1 228 8
 886 003e 19E5     		bne	a0,zero,.L100
 229:C:/Users/stapi/OneDrive/Desktop/GD32VW553/V1_MQTT_OK/GD32VW55X_Wifi_BLE_SDK/GD32VW55x_RELEASE_V1.0.2/MSDK/cloud/alicloud/src/infra/utils/misc\json_parser.c ****         if (p_iValueLen) {
 887              		.loc 1 229 9 is_stmt 1
 888              		.loc 1 229 12 is_stmt 0
 889 0040 99C0     		beq	s1,zero,.L101
 230:C:/Users/stapi/OneDrive/Desktop/GD32VW553/V1_MQTT_OK/GD32VW55X_Wifi_BLE_SDK/GD32VW55x_RELEASE_V1.0.2/MSDK/cloud/alicloud/src/infra/utils/misc\json_parser.c ****             *p_iValueLen = stNV.vLen;
 890              		.loc 1 230 13 is_stmt 1
 891              		.loc 1 230 26 is_stmt 0
 892 0042 8257     		lw	a5,32(sp)
 893 0044 9CC0     		sw	a5,0(s1)
 894              	.L101:
 231:C:/Users/stapi/OneDrive/Desktop/GD32VW553/V1_MQTT_OK/GD32VW55X_Wifi_BLE_SDK/GD32VW55x_RELEASE_V1.0.2/MSDK/cloud/alicloud/src/infra/utils/misc\json_parser.c ****         }
 232:C:/Users/stapi/OneDrive/Desktop/GD32VW553/V1_MQTT_OK/GD32VW55X_Wifi_BLE_SDK/GD32VW55x_RELEASE_V1.0.2/MSDK/cloud/alicloud/src/infra/utils/misc\json_parser.c ****         if (p_iValueType) {
 895              		.loc 1 232 9 is_stmt 1
 896              		.loc 1 232 12 is_stmt 0
 897 0046 19C0     		beq	s0,zero,.L100
 233:C:/Users/stapi/OneDrive/Desktop/GD32VW553/V1_MQTT_OK/GD32VW55X_Wifi_BLE_SDK/GD32VW55x_RELEASE_V1.0.2/MSDK/cloud/alicloud/src/infra/utils/misc\json_parser.c ****             *p_iValueType = stNV.vType;
 898              		.loc 1 233 13 is_stmt 1
 899              		.loc 1 233 27 is_stmt 0
 900 0048 9257     		lw	a5,36(sp)
 901 004a 1CC0     		sw	a5,0(s0)
 902              	.L100:
 234:C:/Users/stapi/OneDrive/Desktop/GD32VW553/V1_MQTT_OK/GD32VW55X_Wifi_BLE_SDK/GD32VW55x_RELEASE_V1.0.2/MSDK/cloud/alicloud/src/infra/utils/misc\json_parser.c ****         }
 235:C:/Users/stapi/OneDrive/Desktop/GD32VW553/V1_MQTT_OK/GD32VW55X_Wifi_BLE_SDK/GD32VW55x_RELEASE_V1.0.2/MSDK/cloud/alicloud/src/infra/utils/misc\json_parser.c ****     }
 236:C:/Users/stapi/OneDrive/Desktop/GD32VW553/V1_MQTT_OK/GD32VW55X_Wifi_BLE_SDK/GD32VW55x_RELEASE_V1.0.2/MSDK/cloud/alicloud/src/infra/utils/misc\json_parser.c ****     return stNV.pV;
 903              		.loc 1 236 5 is_stmt 1
 237:C:/Users/stapi/OneDrive/Desktop/GD32VW553/V1_MQTT_OK/GD32VW55X_Wifi_BLE_SDK/GD32VW55x_RELEASE_V1.0.2/MSDK/cloud/alicloud/src/infra/utils/misc\json_parser.c **** }
 904              		.loc 1 237 1 is_stmt 0
 905 004c 3255     		lw	a0,44(sp)
 906 004e 4561     		addi	sp,sp,48
 907              		.cfi_def_cfa_offset 0
 908              	.LVL95:
 909 0050 17030000 		tail	__riscv_restore_3
 909      67000300 
 910              		.cfi_restore 18
 911              		.cfi_restore 9
 912              		.cfi_restore 8
 913              		.cfi_restore 1
 914              		.cfi_def_cfa_offset -16
 915              		.cfi_endproc
 916              	.LFE24:
 918              		.section	.text.json_get_value_by_name_len,"ax",@progbits
 919              		.align	1
 920              		.globl	json_get_value_by_name_len
 922              	json_get_value_by_name_len:
 923              	.LFB25:
 238:C:/Users/stapi/OneDrive/Desktop/GD32VW553/V1_MQTT_OK/GD32VW55X_Wifi_BLE_SDK/GD32VW55x_RELEASE_V1.0.2/MSDK/cloud/alicloud/src/infra/utils/misc\json_parser.c **** 
 239:C:/Users/stapi/OneDrive/Desktop/GD32VW553/V1_MQTT_OK/GD32VW55X_Wifi_BLE_SDK/GD32VW55x_RELEASE_V1.0.2/MSDK/cloud/alicloud/src/infra/utils/misc\json_parser.c **** char *json_get_value_by_name_len(char *p_cJsonStr, int iStrLen, char *p_cName, int p_cNameLen, int 
 240:C:/Users/stapi/OneDrive/Desktop/GD32VW553/V1_MQTT_OK/GD32VW55X_Wifi_BLE_SDK/GD32VW55x_RELEASE_V1.0.2/MSDK/cloud/alicloud/src/infra/utils/misc\json_parser.c ****                                  int *p_iValueType)
 241:C:/Users/stapi/OneDrive/Desktop/GD32VW553/V1_MQTT_OK/GD32VW55X_Wifi_BLE_SDK/GD32VW55x_RELEASE_V1.0.2/MSDK/cloud/alicloud/src/infra/utils/misc\json_parser.c **** {
 924              		.loc 1 241 1 is_stmt 1
 925              		.cfi_startproc
 926              	.LVL96:
 927 0000 17030000 		call	t0,__riscv_save_2
 927      E7020300 
 928              		.cfi_offset 9, -12
 929              		.cfi_offset 8, -8
 930              		.cfi_offset 1, -4
 931              		.cfi_def_cfa_offset 16
 242:C:/Users/stapi/OneDrive/Desktop/GD32VW553/V1_MQTT_OK/GD32VW55X_Wifi_BLE_SDK/GD32VW55x_RELEASE_V1.0.2/MSDK/cloud/alicloud/src/infra/utils/misc\json_parser.c ****     JSON_NV     stNV;
 932              		.loc 1 242 5
 243:C:/Users/stapi/OneDrive/Desktop/GD32VW553/V1_MQTT_OK/GD32VW55X_Wifi_BLE_SDK/GD32VW55x_RELEASE_V1.0.2/MSDK/cloud/alicloud/src/infra/utils/misc\json_parser.c **** 
 244:C:/Users/stapi/OneDrive/Desktop/GD32VW553/V1_MQTT_OK/GD32VW55X_Wifi_BLE_SDK/GD32VW55x_RELEASE_V1.0.2/MSDK/cloud/alicloud/src/infra/utils/misc\json_parser.c ****     memset(&stNV, 0, sizeof(stNV));
 933              		.loc 1 244 5
 241:C:/Users/stapi/OneDrive/Desktop/GD32VW553/V1_MQTT_OK/GD32VW55X_Wifi_BLE_SDK/GD32VW55x_RELEASE_V1.0.2/MSDK/cloud/alicloud/src/infra/utils/misc\json_parser.c ****     JSON_NV     stNV;
 934              		.loc 1 241 1 is_stmt 0
 935 0008 0111     		addi	sp,sp,-32
 936              		.cfi_def_cfa_offset 48
 245:C:/Users/stapi/OneDrive/Desktop/GD32VW553/V1_MQTT_OK/GD32VW55X_Wifi_BLE_SDK/GD32VW55x_RELEASE_V1.0.2/MSDK/cloud/alicloud/src/infra/utils/misc\json_parser.c ****     stNV.pN = p_cName;
 937              		.loc 1 245 13
 938 000a 32CC     		sw	a2,24(sp)
 246:C:/Users/stapi/OneDrive/Desktop/GD32VW553/V1_MQTT_OK/GD32VW55X_Wifi_BLE_SDK/GD32VW55x_RELEASE_V1.0.2/MSDK/cloud/alicloud/src/infra/utils/misc\json_parser.c ****     stNV.nLen = p_cNameLen;
 247:C:/Users/stapi/OneDrive/Desktop/GD32VW553/V1_MQTT_OK/GD32VW55X_Wifi_BLE_SDK/GD32VW55x_RELEASE_V1.0.2/MSDK/cloud/alicloud/src/infra/utils/misc\json_parser.c ****     if (JSON_RESULT_OK == json_parse_name_value(p_cJsonStr, iStrLen, json_get_value_by_name_cb, (vo
 939              		.loc 1 247 27
 940 000c 37060000 		lui	a2,%hi(json_get_value_by_name_cb)
 941              	.LVL97:
 246:C:/Users/stapi/OneDrive/Desktop/GD32VW553/V1_MQTT_OK/GD32VW55X_Wifi_BLE_SDK/GD32VW55x_RELEASE_V1.0.2/MSDK/cloud/alicloud/src/infra/utils/misc\json_parser.c ****     stNV.nLen = p_cNameLen;
 942              		.loc 1 246 15
 943 0010 36C6     		sw	a3,12(sp)
 944              		.loc 1 247 27
 945 0012 13060600 		addi	a2,a2,%lo(json_get_value_by_name_cb)
 946 0016 7400     		addi	a3,sp,12
 947              	.LVL98:
 241:C:/Users/stapi/OneDrive/Desktop/GD32VW553/V1_MQTT_OK/GD32VW55X_Wifi_BLE_SDK/GD32VW55x_RELEASE_V1.0.2/MSDK/cloud/alicloud/src/infra/utils/misc\json_parser.c ****     JSON_NV     stNV;
 948              		.loc 1 241 1
 949 0018 BA84     		mv	s1,a4
 950 001a 3E84     		mv	s0,a5
 244:C:/Users/stapi/OneDrive/Desktop/GD32VW553/V1_MQTT_OK/GD32VW55X_Wifi_BLE_SDK/GD32VW55x_RELEASE_V1.0.2/MSDK/cloud/alicloud/src/infra/utils/misc\json_parser.c ****     stNV.pN = p_cName;
 951              		.loc 1 244 5
 952 001c 02C8     		sw	zero,16(sp)
 953 001e 02CA     		sw	zero,20(sp)
 954 0020 02CE     		sw	zero,28(sp)
 245:C:/Users/stapi/OneDrive/Desktop/GD32VW553/V1_MQTT_OK/GD32VW55X_Wifi_BLE_SDK/GD32VW55x_RELEASE_V1.0.2/MSDK/cloud/alicloud/src/infra/utils/misc\json_parser.c ****     stNV.nLen = p_cNameLen;
 955              		.loc 1 245 5 is_stmt 1
 246:C:/Users/stapi/OneDrive/Desktop/GD32VW553/V1_MQTT_OK/GD32VW55X_Wifi_BLE_SDK/GD32VW55x_RELEASE_V1.0.2/MSDK/cloud/alicloud/src/infra/utils/misc\json_parser.c ****     if (JSON_RESULT_OK == json_parse_name_value(p_cJsonStr, iStrLen, json_get_value_by_name_cb, (vo
 956              		.loc 1 246 5
 957              		.loc 1 247 5
 958              		.loc 1 247 27 is_stmt 0
 959 0022 97000000 		call	json_parse_name_value
 959      E7800000 
 960              	.LVL99:
 961              		.loc 1 247 8
 962 002a 19E5     		bne	a0,zero,.L112
 248:C:/Users/stapi/OneDrive/Desktop/GD32VW553/V1_MQTT_OK/GD32VW55X_Wifi_BLE_SDK/GD32VW55x_RELEASE_V1.0.2/MSDK/cloud/alicloud/src/infra/utils/misc\json_parser.c ****         if (p_iValueLen) {
 963              		.loc 1 248 9 is_stmt 1
 964              		.loc 1 248 12 is_stmt 0
 965 002c 99C0     		beq	s1,zero,.L113
 249:C:/Users/stapi/OneDrive/Desktop/GD32VW553/V1_MQTT_OK/GD32VW55X_Wifi_BLE_SDK/GD32VW55x_RELEASE_V1.0.2/MSDK/cloud/alicloud/src/infra/utils/misc\json_parser.c ****             *p_iValueLen = stNV.vLen;
 966              		.loc 1 249 13 is_stmt 1
 967              		.loc 1 249 26 is_stmt 0
 968 002e C247     		lw	a5,16(sp)
 969 0030 9CC0     		sw	a5,0(s1)
 970              	.L113:
 250:C:/Users/stapi/OneDrive/Desktop/GD32VW553/V1_MQTT_OK/GD32VW55X_Wifi_BLE_SDK/GD32VW55x_RELEASE_V1.0.2/MSDK/cloud/alicloud/src/infra/utils/misc\json_parser.c ****         }
 251:C:/Users/stapi/OneDrive/Desktop/GD32VW553/V1_MQTT_OK/GD32VW55X_Wifi_BLE_SDK/GD32VW55x_RELEASE_V1.0.2/MSDK/cloud/alicloud/src/infra/utils/misc\json_parser.c ****         if (p_iValueType) {
 971              		.loc 1 251 9 is_stmt 1
 972              		.loc 1 251 12 is_stmt 0
 973 0032 19C0     		beq	s0,zero,.L112
 252:C:/Users/stapi/OneDrive/Desktop/GD32VW553/V1_MQTT_OK/GD32VW55X_Wifi_BLE_SDK/GD32VW55x_RELEASE_V1.0.2/MSDK/cloud/alicloud/src/infra/utils/misc\json_parser.c ****             *p_iValueType = stNV.vType;
 974              		.loc 1 252 13 is_stmt 1
 975              		.loc 1 252 27 is_stmt 0
 976 0034 D247     		lw	a5,20(sp)
 977 0036 1CC0     		sw	a5,0(s0)
 978              	.L112:
 253:C:/Users/stapi/OneDrive/Desktop/GD32VW553/V1_MQTT_OK/GD32VW55X_Wifi_BLE_SDK/GD32VW55x_RELEASE_V1.0.2/MSDK/cloud/alicloud/src/infra/utils/misc\json_parser.c ****         }
 254:C:/Users/stapi/OneDrive/Desktop/GD32VW553/V1_MQTT_OK/GD32VW55X_Wifi_BLE_SDK/GD32VW55x_RELEASE_V1.0.2/MSDK/cloud/alicloud/src/infra/utils/misc\json_parser.c ****     }
 255:C:/Users/stapi/OneDrive/Desktop/GD32VW553/V1_MQTT_OK/GD32VW55X_Wifi_BLE_SDK/GD32VW55x_RELEASE_V1.0.2/MSDK/cloud/alicloud/src/infra/utils/misc\json_parser.c ****     return stNV.pV;
 979              		.loc 1 255 5 is_stmt 1
 256:C:/Users/stapi/OneDrive/Desktop/GD32VW553/V1_MQTT_OK/GD32VW55X_Wifi_BLE_SDK/GD32VW55x_RELEASE_V1.0.2/MSDK/cloud/alicloud/src/infra/utils/misc\json_parser.c **** }
 980              		.loc 1 256 1 is_stmt 0
 981 0038 7245     		lw	a0,28(sp)
 982 003a 0561     		addi	sp,sp,32
 983              		.cfi_def_cfa_offset 0
 984 003c 17030000 		tail	__riscv_restore_2
 984      67000300 
 985              		.cfi_restore 9
 986              		.cfi_restore 8
 987              		.cfi_restore 1
 988              		.cfi_def_cfa_offset -16
 989              		.cfi_endproc
 990              	.LFE25:
 992              		.text
 993              	.Letext0:
 994              		.file 2 "..\\..\\..\\..\\cloud\\alicloud\\src\\infra\\utils\\misc/json_parser.h"
 995              		.file 3 "c:\\users\\stapi\\onedrive\\desktop\\gd32vw553\\embeddedbuilder_v1.4.7.26843\\tools\\nucl
DEFINED SYMBOLS
                            *ABS*:0000000000000000 json_parser.c
C:\Users\stapi\AppData\Local\Temp\cc58XARK.s:13     .text.json_get_value_by_name_cb:0000000000000000 json_get_value_by_name_cb
C:\Users\stapi\AppData\Local\Temp\cc58XARK.s:17     .text.json_get_value_by_name_cb:0000000000000000 .L0 
C:\Users\stapi\AppData\Local\Temp\cc58XARK.s:19     .text.json_get_value_by_name_cb:0000000000000000 .L0 
C:\Users\stapi\AppData\Local\Temp\cc58XARK.s:20     .text.json_get_value_by_name_cb:0000000000000008 .L0 
C:\Users\stapi\AppData\Local\Temp\cc58XARK.s:21     .text.json_get_value_by_name_cb:0000000000000008 .L0 
C:\Users\stapi\AppData\Local\Temp\cc58XARK.s:22     .text.json_get_value_by_name_cb:0000000000000008 .L0 
C:\Users\stapi\AppData\Local\Temp\cc58XARK.s:23     .text.json_get_value_by_name_cb:0000000000000008 .L0 
C:\Users\stapi\AppData\Local\Temp\cc58XARK.s:24     .text.json_get_value_by_name_cb:0000000000000008 .L0 
C:\Users\stapi\AppData\Local\Temp\cc58XARK.s:25     .text.json_get_value_by_name_cb:0000000000000008 .L0 
C:\Users\stapi\AppData\Local\Temp\cc58XARK.s:27     .text.json_get_value_by_name_cb:0000000000000008 .L0 
C:\Users\stapi\AppData\Local\Temp\cc58XARK.s:30     .text.json_get_value_by_name_cb:000000000000000a .L0 
C:\Users\stapi\AppData\Local\Temp\cc58XARK.s:31     .text.json_get_value_by_name_cb:000000000000000a .L0 
C:\Users\stapi\AppData\Local\Temp\cc58XARK.s:32     .text.json_get_value_by_name_cb:000000000000000a .L0 
C:\Users\stapi\AppData\Local\Temp\cc58XARK.s:35     .text.json_get_value_by_name_cb:000000000000000c .L0 
C:\Users\stapi\AppData\Local\Temp\cc58XARK.s:37     .text.json_get_value_by_name_cb:0000000000000010 .L0 
C:\Users\stapi\AppData\Local\Temp\cc58XARK.s:45     .text.json_get_value_by_name_cb:0000000000000020 .L0 
C:\Users\stapi\AppData\Local\Temp\cc58XARK.s:47     .text.json_get_value_by_name_cb:0000000000000022 .L0 
C:\Users\stapi\AppData\Local\Temp\cc58XARK.s:49     .text.json_get_value_by_name_cb:0000000000000024 .L0 
C:\Users\stapi\AppData\Local\Temp\cc58XARK.s:50     .text.json_get_value_by_name_cb:0000000000000024 .L0 
C:\Users\stapi\AppData\Local\Temp\cc58XARK.s:52     .text.json_get_value_by_name_cb:0000000000000028 .L0 
C:\Users\stapi\AppData\Local\Temp\cc58XARK.s:53     .text.json_get_value_by_name_cb:0000000000000028 .L0 
C:\Users\stapi\AppData\Local\Temp\cc58XARK.s:55     .text.json_get_value_by_name_cb:000000000000002c .L0 
C:\Users\stapi\AppData\Local\Temp\cc58XARK.s:56     .text.json_get_value_by_name_cb:000000000000002c .L0 
C:\Users\stapi\AppData\Local\Temp\cc58XARK.s:58     .text.json_get_value_by_name_cb:000000000000002e .L0 
C:\Users\stapi\AppData\Local\Temp\cc58XARK.s:59     .text.json_get_value_by_name_cb:000000000000002e .L0 
C:\Users\stapi\AppData\Local\Temp\cc58XARK.s:63     .text.json_get_value_by_name_cb:0000000000000030 .L0 
C:\Users\stapi\AppData\Local\Temp\cc58XARK.s:65     .text.json_get_value_by_name_cb:000000000000003a .L0 
C:\Users\stapi\AppData\Local\Temp\cc58XARK.s:66     .text.json_get_value_by_name_cb:000000000000003a .L0 
C:\Users\stapi\AppData\Local\Temp\cc58XARK.s:67     .text.json_get_value_by_name_cb:000000000000003a .L0 
C:\Users\stapi\AppData\Local\Temp\cc58XARK.s:68     .text.json_get_value_by_name_cb:000000000000003a .L0 
C:\Users\stapi\AppData\Local\Temp\cc58XARK.s:69     .text.json_get_value_by_name_cb:000000000000003a .L0 
C:\Users\stapi\AppData\Local\Temp\cc58XARK.s:70     .text.json_get_value_by_name_cb:000000000000003a .L0 
C:\Users\stapi\AppData\Local\Temp\cc58XARK.s:71     .text.json_get_value_by_name_cb:000000000000003a .L0 
C:\Users\stapi\AppData\Local\Temp\cc58XARK.s:74     .text.json_get_value_by_name_cb:000000000000003a .L0 
C:\Users\stapi\AppData\Local\Temp\cc58XARK.s:76     .text.json_get_value_by_name_cb:000000000000003a .L0 
C:\Users\stapi\AppData\Local\Temp\cc58XARK.s:79     .text.json_get_value_by_name_cb:000000000000003e .L0 
C:\Users\stapi\AppData\Local\Temp\cc58XARK.s:86     .text.json_get_object:0000000000000000 json_get_object
C:\Users\stapi\AppData\Local\Temp\cc58XARK.s:89     .text.json_get_object:0000000000000000 .L0 
C:\Users\stapi\AppData\Local\Temp\cc58XARK.s:91     .text.json_get_object:0000000000000000 .L0 
C:\Users\stapi\AppData\Local\Temp\cc58XARK.s:92     .text.json_get_object:0000000000000000 .L0 
C:\Users\stapi\AppData\Local\Temp\cc58XARK.s:93     .text.json_get_object:0000000000000000 .L0 
C:\Users\stapi\AppData\Local\Temp\cc58XARK.s:94     .text.json_get_object:0000000000000000 .L0 
C:\Users\stapi\AppData\Local\Temp\cc58XARK.s:101    .text.json_get_object:000000000000000e .L0 
C:\Users\stapi\AppData\Local\Temp\cc58XARK.s:102    .text.json_get_object:000000000000000e .L0 
C:\Users\stapi\AppData\Local\Temp\cc58XARK.s:104    .text.json_get_object:0000000000000010 .L0 
C:\Users\stapi\AppData\Local\Temp\cc58XARK.s:106    .text.json_get_object:0000000000000014 .L0 
C:\Users\stapi\AppData\Local\Temp\cc58XARK.s:109    .text.json_get_object:0000000000000016 .L0 
C:\Users\stapi\AppData\Local\Temp\cc58XARK.s:115    .text.json_get_object:000000000000001a .L0 
C:\Users\stapi\AppData\Local\Temp\cc58XARK.s:116    .text.json_get_object:000000000000001a .L0 
C:\Users\stapi\AppData\Local\Temp\cc58XARK.s:118    .text.json_get_object:000000000000001e .L0 
C:\Users\stapi\AppData\Local\Temp\cc58XARK.s:119    .text.json_get_object:000000000000001e .L0 
C:\Users\stapi\AppData\Local\Temp\cc58XARK.s:122    .text.json_get_object:0000000000000020 .L0 
C:\Users\stapi\AppData\Local\Temp\cc58XARK.s:124    .text.json_get_object:0000000000000020 .L0 
C:\Users\stapi\AppData\Local\Temp\cc58XARK.s:125    .text.json_get_object:0000000000000020 .L0 
C:\Users\stapi\AppData\Local\Temp\cc58XARK.s:127    .text.json_get_object:0000000000000024 .L0 
C:\Users\stapi\AppData\Local\Temp\cc58XARK.s:129    .text.json_get_object:0000000000000026 .L0 
C:\Users\stapi\AppData\Local\Temp\cc58XARK.s:133    .text.json_get_object:000000000000002c .L0 
C:\Users\stapi\AppData\Local\Temp\cc58XARK.s:134    .text.json_get_object:000000000000002c .L0 
C:\Users\stapi\AppData\Local\Temp\cc58XARK.s:138    .text.json_get_object:0000000000000030 .L0 
C:\Users\stapi\AppData\Local\Temp\cc58XARK.s:141    .text.json_get_object:0000000000000034 .L0 
C:\Users\stapi\AppData\Local\Temp\cc58XARK.s:161    .text.json_get_next_object:0000000000000000 json_get_next_object
C:\Users\stapi\AppData\Local\Temp\cc58XARK.s:164    .text.json_get_next_object:0000000000000000 .L0 
C:\Users\stapi\AppData\Local\Temp\cc58XARK.s:166    .text.json_get_next_object:0000000000000000 .L0 
C:\Users\stapi\AppData\Local\Temp\cc58XARK.s:167    .text.json_get_next_object:0000000000000008 .L0 
C:\Users\stapi\AppData\Local\Temp\cc58XARK.s:168    .text.json_get_next_object:0000000000000008 .L0 
C:\Users\stapi\AppData\Local\Temp\cc58XARK.s:169    .text.json_get_next_object:0000000000000008 .L0 
C:\Users\stapi\AppData\Local\Temp\cc58XARK.s:170    .text.json_get_next_object:0000000000000008 .L0 
C:\Users\stapi\AppData\Local\Temp\cc58XARK.s:171    .text.json_get_next_object:0000000000000008 .L0 
C:\Users\stapi\AppData\Local\Temp\cc58XARK.s:172    .text.json_get_next_object:0000000000000008 .L0 
C:\Users\stapi\AppData\Local\Temp\cc58XARK.s:173    .text.json_get_next_object:0000000000000008 .L0 
C:\Users\stapi\AppData\Local\Temp\cc58XARK.s:174    .text.json_get_next_object:0000000000000008 .L0 
C:\Users\stapi\AppData\Local\Temp\cc58XARK.s:175    .text.json_get_next_object:0000000000000008 .L0 
C:\Users\stapi\AppData\Local\Temp\cc58XARK.s:176    .text.json_get_next_object:0000000000000008 .L0 
C:\Users\stapi\AppData\Local\Temp\cc58XARK.s:177    .text.json_get_next_object:0000000000000008 .L0 
C:\Users\stapi\AppData\Local\Temp\cc58XARK.s:178    .text.json_get_next_object:0000000000000008 .L0 
C:\Users\stapi\AppData\Local\Temp\cc58XARK.s:179    .text.json_get_next_object:0000000000000008 .L0 
C:\Users\stapi\AppData\Local\Temp\cc58XARK.s:180    .text.json_get_next_object:0000000000000008 .L0 
C:\Users\stapi\AppData\Local\Temp\cc58XARK.s:182    .text.json_get_next_object:000000000000000a .L0 
C:\Users\stapi\AppData\Local\Temp\cc58XARK.s:184    .text.json_get_next_object:000000000000000a .L0 
C:\Users\stapi\AppData\Local\Temp\cc58XARK.s:186    .text.json_get_next_object:000000000000000c .L0 
C:\Users\stapi\AppData\Local\Temp\cc58XARK.s:189    .text.json_get_next_object:000000000000000e .L0 
C:\Users\stapi\AppData\Local\Temp\cc58XARK.s:191    .text.json_get_next_object:0000000000000010 .L0 
C:\Users\stapi\AppData\Local\Temp\cc58XARK.s:202    .text.json_get_next_object:0000000000000030 .L0 
C:\Users\stapi\AppData\Local\Temp\cc58XARK.s:204    .text.json_get_next_object:0000000000000032 .L0 
C:\Users\stapi\AppData\Local\Temp\cc58XARK.s:206    .text.json_get_next_object:0000000000000032 .L0 
C:\Users\stapi\AppData\Local\Temp\cc58XARK.s:207    .text.json_get_next_object:0000000000000032 .L0 
C:\Users\stapi\AppData\Local\Temp\cc58XARK.s:208    .text.json_get_next_object:0000000000000032 .L0 
C:\Users\stapi\AppData\Local\Temp\cc58XARK.s:209    .text.json_get_next_object:0000000000000032 .L0 
C:\Users\stapi\AppData\Local\Temp\cc58XARK.s:212    .text.json_get_next_object:0000000000000036 .L0 
C:\Users\stapi\AppData\Local\Temp\cc58XARK.s:215    .text.json_get_next_object:000000000000003e .L0 
C:\Users\stapi\AppData\Local\Temp\cc58XARK.s:217    .text.json_get_next_object:0000000000000040 .L0 
C:\Users\stapi\AppData\Local\Temp\cc58XARK.s:221    .text.json_get_next_object:0000000000000046 .L0 
C:\Users\stapi\AppData\Local\Temp\cc58XARK.s:223    .text.json_get_next_object:000000000000004a .L0 
C:\Users\stapi\AppData\Local\Temp\cc58XARK.s:224    .text.json_get_next_object:000000000000004a .L0 
C:\Users\stapi\AppData\Local\Temp\cc58XARK.s:231    .text.json_get_next_object:0000000000000058 .L0 
C:\Users\stapi\AppData\Local\Temp\cc58XARK.s:232    .text.json_get_next_object:0000000000000058 .L0 
C:\Users\stapi\AppData\Local\Temp\cc58XARK.s:234    .text.json_get_next_object:000000000000005c .L0 
C:\Users\stapi\AppData\Local\Temp\cc58XARK.s:235    .text.json_get_next_object:000000000000005c .L0 
C:\Users\stapi\AppData\Local\Temp\cc58XARK.s:238    .text.json_get_next_object:0000000000000060 .L0 
C:\Users\stapi\AppData\Local\Temp\cc58XARK.s:239    .text.json_get_next_object:0000000000000060 .L0 
C:\Users\stapi\AppData\Local\Temp\cc58XARK.s:246    .text.json_get_next_object:0000000000000070 .L0 
C:\Users\stapi\AppData\Local\Temp\cc58XARK.s:247    .text.json_get_next_object:0000000000000070 .L0 
C:\Users\stapi\AppData\Local\Temp\cc58XARK.s:249    .text.json_get_next_object:0000000000000074 .L0 
C:\Users\stapi\AppData\Local\Temp\cc58XARK.s:250    .text.json_get_next_object:0000000000000074 .L0 
C:\Users\stapi\AppData\Local\Temp\cc58XARK.s:252    .text.json_get_next_object:0000000000000078 .L0 
C:\Users\stapi\AppData\Local\Temp\cc58XARK.s:255    .text.json_get_next_object:000000000000007c .L0 
C:\Users\stapi\AppData\Local\Temp\cc58XARK.s:256    .text.json_get_next_object:000000000000007c .L0 
C:\Users\stapi\AppData\Local\Temp\cc58XARK.s:262    .text.json_get_next_object:0000000000000086 .L0 
C:\Users\stapi\AppData\Local\Temp\cc58XARK.s:264    .text.json_get_next_object:000000000000008a .L0 
C:\Users\stapi\AppData\Local\Temp\cc58XARK.s:266    .text.json_get_next_object:000000000000008e .L0 
C:\Users\stapi\AppData\Local\Temp\cc58XARK.s:268    .text.json_get_next_object:0000000000000092 .L0 
C:\Users\stapi\AppData\Local\Temp\cc58XARK.s:270    .text.json_get_next_object:0000000000000096 .L0 
C:\Users\stapi\AppData\Local\Temp\cc58XARK.s:272    .text.json_get_next_object:0000000000000098 .L0 
C:\Users\stapi\AppData\Local\Temp\cc58XARK.s:274    .text.json_get_next_object:000000000000009c .L0 
C:\Users\stapi\AppData\Local\Temp\cc58XARK.s:279    .text.json_get_next_object:00000000000000a2 .L0 
C:\Users\stapi\AppData\Local\Temp\cc58XARK.s:280    .text.json_get_next_object:00000000000000a2 .L0 
C:\Users\stapi\AppData\Local\Temp\cc58XARK.s:283    .text.json_get_next_object:00000000000000a6 .L0 
C:\Users\stapi\AppData\Local\Temp\cc58XARK.s:284    .text.json_get_next_object:00000000000000a6 .L0 
C:\Users\stapi\AppData\Local\Temp\cc58XARK.s:285    .text.json_get_next_object:00000000000000a6 .L0 
C:\Users\stapi\AppData\Local\Temp\cc58XARK.s:288    .text.json_get_next_object:00000000000000a8 .L0 
C:\Users\stapi\AppData\Local\Temp\cc58XARK.s:289    .text.json_get_next_object:00000000000000a8 .L0 
C:\Users\stapi\AppData\Local\Temp\cc58XARK.s:291    .text.json_get_next_object:00000000000000aa .L0 
C:\Users\stapi\AppData\Local\Temp\cc58XARK.s:295    .text.json_get_next_object:00000000000000ac .L0 
C:\Users\stapi\AppData\Local\Temp\cc58XARK.s:296    .text.json_get_next_object:00000000000000ac .L0 
C:\Users\stapi\AppData\Local\Temp\cc58XARK.s:299    .text.json_get_next_object:00000000000000ae .L0 
C:\Users\stapi\AppData\Local\Temp\cc58XARK.s:301    .text.json_get_next_object:00000000000000b0 .L0 
C:\Users\stapi\AppData\Local\Temp\cc58XARK.s:303    .text.json_get_next_object:00000000000000b4 .L0 
C:\Users\stapi\AppData\Local\Temp\cc58XARK.s:306    .text.json_get_next_object:00000000000000b8 .L0 
C:\Users\stapi\AppData\Local\Temp\cc58XARK.s:309    .text.json_get_next_object:00000000000000bc .L0 
C:\Users\stapi\AppData\Local\Temp\cc58XARK.s:311    .text.json_get_next_object:00000000000000be .L0 
C:\Users\stapi\AppData\Local\Temp\cc58XARK.s:313    .text.json_get_next_object:00000000000000c2 .L0 
C:\Users\stapi\AppData\Local\Temp\cc58XARK.s:318    .text.json_get_next_object:00000000000000c6 .L0 
C:\Users\stapi\AppData\Local\Temp\cc58XARK.s:319    .text.json_get_next_object:00000000000000c6 .L0 
C:\Users\stapi\AppData\Local\Temp\cc58XARK.s:322    .text.json_get_next_object:00000000000000ca .L0 
C:\Users\stapi\AppData\Local\Temp\cc58XARK.s:323    .text.json_get_next_object:00000000000000ca .L0 
C:\Users\stapi\AppData\Local\Temp\cc58XARK.s:324    .text.json_get_next_object:00000000000000ca .L0 
C:\Users\stapi\AppData\Local\Temp\cc58XARK.s:327    .text.json_get_next_object:00000000000000cc .L0 
C:\Users\stapi\AppData\Local\Temp\cc58XARK.s:329    .text.json_get_next_object:00000000000000ce .L0 
C:\Users\stapi\AppData\Local\Temp\cc58XARK.s:332    .text.json_get_next_object:00000000000000d0 .L0 
C:\Users\stapi\AppData\Local\Temp\cc58XARK.s:336    .text.json_get_next_object:00000000000000d2 .L0 
C:\Users\stapi\AppData\Local\Temp\cc58XARK.s:337    .text.json_get_next_object:00000000000000d2 .L0 
C:\Users\stapi\AppData\Local\Temp\cc58XARK.s:340    .text.json_get_next_object:00000000000000d6 .L0 
C:\Users\stapi\AppData\Local\Temp\cc58XARK.s:341    .text.json_get_next_object:00000000000000d6 .L0 
C:\Users\stapi\AppData\Local\Temp\cc58XARK.s:342    .text.json_get_next_object:00000000000000d6 .L0 
C:\Users\stapi\AppData\Local\Temp\cc58XARK.s:345    .text.json_get_next_object:00000000000000d8 .L0 
C:\Users\stapi\AppData\Local\Temp\cc58XARK.s:347    .text.json_get_next_object:00000000000000da .L0 
C:\Users\stapi\AppData\Local\Temp\cc58XARK.s:350    .text.json_get_next_object:00000000000000dc .L0 
C:\Users\stapi\AppData\Local\Temp\cc58XARK.s:354    .text.json_get_next_object:00000000000000de .L0 
C:\Users\stapi\AppData\Local\Temp\cc58XARK.s:355    .text.json_get_next_object:00000000000000de .L0 
C:\Users\stapi\AppData\Local\Temp\cc58XARK.s:357    .text.json_get_next_object:00000000000000e2 .L0 
C:\Users\stapi\AppData\Local\Temp\cc58XARK.s:359    .text.json_get_next_object:00000000000000e6 .L0 
C:\Users\stapi\AppData\Local\Temp\cc58XARK.s:364    .text.json_get_next_object:00000000000000ee .L0 
C:\Users\stapi\AppData\Local\Temp\cc58XARK.s:365    .text.json_get_next_object:00000000000000ee .L0 
C:\Users\stapi\AppData\Local\Temp\cc58XARK.s:366    .text.json_get_next_object:00000000000000ee .L0 
C:\Users\stapi\AppData\Local\Temp\cc58XARK.s:369    .text.json_get_next_object:00000000000000f0 .L0 
C:\Users\stapi\AppData\Local\Temp\cc58XARK.s:371    .text.json_get_next_object:00000000000000f2 .L0 
C:\Users\stapi\AppData\Local\Temp\cc58XARK.s:374    .text.json_get_next_object:00000000000000f4 .L0 
C:\Users\stapi\AppData\Local\Temp\cc58XARK.s:378    .text.json_get_next_object:00000000000000f6 .L0 
C:\Users\stapi\AppData\Local\Temp\cc58XARK.s:379    .text.json_get_next_object:00000000000000f6 .L0 
C:\Users\stapi\AppData\Local\Temp\cc58XARK.s:383    .text.json_get_next_object:0000000000000102 .L0 
C:\Users\stapi\AppData\Local\Temp\cc58XARK.s:386    .text.json_get_next_object:0000000000000106 .L0 
C:\Users\stapi\AppData\Local\Temp\cc58XARK.s:387    .text.json_get_next_object:0000000000000106 .L0 
C:\Users\stapi\AppData\Local\Temp\cc58XARK.s:391    .text.json_get_next_object:0000000000000108 .L0 
C:\Users\stapi\AppData\Local\Temp\cc58XARK.s:393    .text.json_get_next_object:000000000000010c .L0 
C:\Users\stapi\AppData\Local\Temp\cc58XARK.s:395    .text.json_get_next_object:0000000000000110 .L0 
C:\Users\stapi\AppData\Local\Temp\cc58XARK.s:397    .text.json_get_next_object:0000000000000112 .L0 
C:\Users\stapi\AppData\Local\Temp\cc58XARK.s:400    .text.json_get_next_object:0000000000000116 .L0 
C:\Users\stapi\AppData\Local\Temp\cc58XARK.s:402    .text.json_get_next_object:0000000000000118 .L0 
C:\Users\stapi\AppData\Local\Temp\cc58XARK.s:407    .text.json_get_next_object:000000000000011c .L0 
C:\Users\stapi\AppData\Local\Temp\cc58XARK.s:409    .text.json_get_next_object:000000000000011e .L0 
C:\Users\stapi\AppData\Local\Temp\cc58XARK.s:414    .text.json_get_next_object:0000000000000122 .L0 
C:\Users\stapi\AppData\Local\Temp\cc58XARK.s:415    .text.json_get_next_object:0000000000000122 .L0 
C:\Users\stapi\AppData\Local\Temp\cc58XARK.s:420    .text.json_get_next_object:0000000000000128 .L0 
C:\Users\stapi\AppData\Local\Temp\cc58XARK.s:421    .text.json_get_next_object:0000000000000128 .L0 
C:\Users\stapi\AppData\Local\Temp\cc58XARK.s:425    .text.json_get_next_object:0000000000000132 .L0 
C:\Users\stapi\AppData\Local\Temp\cc58XARK.s:426    .text.json_get_next_object:0000000000000132 .L0 
C:\Users\stapi\AppData\Local\Temp\cc58XARK.s:431    .text.json_get_next_object:0000000000000142 .L0 
C:\Users\stapi\AppData\Local\Temp\cc58XARK.s:433    .text.json_get_next_object:0000000000000146 .L0 
C:\Users\stapi\AppData\Local\Temp\cc58XARK.s:441    .text.json_get_next_object:000000000000015a .L0 
C:\Users\stapi\AppData\Local\Temp\cc58XARK.s:443    .text.json_get_next_object:000000000000015c .L0 
C:\Users\stapi\AppData\Local\Temp\cc58XARK.s:450    .text.json_get_next_object:0000000000000170 .L0 
C:\Users\stapi\AppData\Local\Temp\cc58XARK.s:453    .text.json_get_next_object:0000000000000172 .L0 
C:\Users\stapi\AppData\Local\Temp\cc58XARK.s:458    .text.json_get_next_object:0000000000000176 .L0 
C:\Users\stapi\AppData\Local\Temp\cc58XARK.s:459    .text.json_get_next_object:0000000000000176 .L0 
C:\Users\stapi\AppData\Local\Temp\cc58XARK.s:462    .text.json_get_next_object:000000000000017e .L0 
C:\Users\stapi\AppData\Local\Temp\cc58XARK.s:464    .text.json_get_next_object:0000000000000182 .L0 
C:\Users\stapi\AppData\Local\Temp\cc58XARK.s:472    .text.json_get_next_object:0000000000000196 .L0 
C:\Users\stapi\AppData\Local\Temp\cc58XARK.s:474    .text.json_get_next_object:0000000000000198 .L0 
C:\Users\stapi\AppData\Local\Temp\cc58XARK.s:481    .text.json_get_next_object:00000000000001ac .L0 
C:\Users\stapi\AppData\Local\Temp\cc58XARK.s:484    .text.json_get_next_object:00000000000001ae .L0 
C:\Users\stapi\AppData\Local\Temp\cc58XARK.s:490    .text.json_get_next_object:00000000000001b2 .L0 
C:\Users\stapi\AppData\Local\Temp\cc58XARK.s:491    .text.json_get_next_object:00000000000001b2 .L0 
C:\Users\stapi\AppData\Local\Temp\cc58XARK.s:493    .text.json_get_next_object:00000000000001b6 .L0 
C:\Users\stapi\AppData\Local\Temp\cc58XARK.s:494    .text.json_get_next_object:00000000000001b6 .L0 
C:\Users\stapi\AppData\Local\Temp\cc58XARK.s:499    .text.json_get_next_object:00000000000001c4 .L0 
C:\Users\stapi\AppData\Local\Temp\cc58XARK.s:505    .text.json_get_next_object:00000000000001d4 .L0 
C:\Users\stapi\AppData\Local\Temp\cc58XARK.s:506    .text.json_get_next_object:00000000000001d4 .L0 
C:\Users\stapi\AppData\Local\Temp\cc58XARK.s:510    .text.json_get_next_object:00000000000001d8 .L0 
C:\Users\stapi\AppData\Local\Temp\cc58XARK.s:511    .text.json_get_next_object:00000000000001d8 .L0 
C:\Users\stapi\AppData\Local\Temp\cc58XARK.s:512    .text.json_get_next_object:00000000000001d8 .L0 
C:\Users\stapi\AppData\Local\Temp\cc58XARK.s:516    .text.json_get_next_object:00000000000001e0 .L0 
C:\Users\stapi\AppData\Local\Temp\cc58XARK.s:517    .text.json_get_next_object:00000000000001e0 .L0 
C:\Users\stapi\AppData\Local\Temp\cc58XARK.s:519    .text.json_get_next_object:00000000000001e4 .L0 
C:\Users\stapi\AppData\Local\Temp\cc58XARK.s:521    .text.json_get_next_object:00000000000001e8 .L0 
C:\Users\stapi\AppData\Local\Temp\cc58XARK.s:522    .text.json_get_next_object:00000000000001e8 .L0 
C:\Users\stapi\AppData\Local\Temp\cc58XARK.s:525    .text.json_get_next_object:00000000000001ec .L0 
C:\Users\stapi\AppData\Local\Temp\cc58XARK.s:526    .text.json_get_next_object:00000000000001ec .L0 
C:\Users\stapi\AppData\Local\Temp\cc58XARK.s:530    .text.json_get_next_object:00000000000001f0 .L0 
C:\Users\stapi\AppData\Local\Temp\cc58XARK.s:531    .text.json_get_next_object:00000000000001f0 .L0 
C:\Users\stapi\AppData\Local\Temp\cc58XARK.s:533    .text.json_get_next_object:00000000000001f4 .L0 
C:\Users\stapi\AppData\Local\Temp\cc58XARK.s:535    .text.json_get_next_object:00000000000001f8 .L0 
C:\Users\stapi\AppData\Local\Temp\cc58XARK.s:536    .text.json_get_next_object:00000000000001f8 .L0 
C:\Users\stapi\AppData\Local\Temp\cc58XARK.s:539    .text.json_get_next_object:00000000000001fe .L0 
C:\Users\stapi\AppData\Local\Temp\cc58XARK.s:540    .text.json_get_next_object:00000000000001fe .L0 
C:\Users\stapi\AppData\Local\Temp\cc58XARK.s:542    .text.json_get_next_object:0000000000000200 .L0 
C:\Users\stapi\AppData\Local\Temp\cc58XARK.s:544    .text.json_get_next_object:0000000000000204 .L0 
C:\Users\stapi\AppData\Local\Temp\cc58XARK.s:545    .text.json_get_next_object:0000000000000204 .L0 
C:\Users\stapi\AppData\Local\Temp\cc58XARK.s:547    .text.json_get_next_object:0000000000000208 .L0 
C:\Users\stapi\AppData\Local\Temp\cc58XARK.s:548    .text.json_get_next_object:0000000000000208 .L0 
C:\Users\stapi\AppData\Local\Temp\cc58XARK.s:550    .text.json_get_next_object:000000000000020c .L0 
C:\Users\stapi\AppData\Local\Temp\cc58XARK.s:551    .text.json_get_next_object:000000000000020c .L0 
C:\Users\stapi\AppData\Local\Temp\cc58XARK.s:557    .text.json_get_next_object:0000000000000212 .L0 
C:\Users\stapi\AppData\Local\Temp\cc58XARK.s:558    .text.json_get_next_object:0000000000000214 .L0 
C:\Users\stapi\AppData\Local\Temp\cc58XARK.s:559    .text.json_get_next_object:0000000000000214 .L0 
C:\Users\stapi\AppData\Local\Temp\cc58XARK.s:562    .text.json_get_next_object:000000000000021c .L0 
C:\Users\stapi\AppData\Local\Temp\cc58XARK.s:563    .text.json_get_next_object:000000000000021c .L0 
C:\Users\stapi\AppData\Local\Temp\cc58XARK.s:564    .text.json_get_next_object:000000000000021c .L0 
C:\Users\stapi\AppData\Local\Temp\cc58XARK.s:565    .text.json_get_next_object:000000000000021c .L0 
C:\Users\stapi\AppData\Local\Temp\cc58XARK.s:566    .text.json_get_next_object:000000000000021c .L0 
C:\Users\stapi\AppData\Local\Temp\cc58XARK.s:567    .text.json_get_next_object:000000000000021c .L0 
C:\Users\stapi\AppData\Local\Temp\cc58XARK.s:568    .text.json_get_next_object:000000000000021c .L0 
C:\Users\stapi\AppData\Local\Temp\cc58XARK.s:569    .text.json_get_next_object:000000000000021c .L0 
C:\Users\stapi\AppData\Local\Temp\cc58XARK.s:570    .text.json_get_next_object:000000000000021c .L0 
C:\Users\stapi\AppData\Local\Temp\cc58XARK.s:571    .text.json_get_next_object:000000000000021c .L0 
C:\Users\stapi\AppData\Local\Temp\cc58XARK.s:572    .text.json_get_next_object:000000000000021c .L0 
C:\Users\stapi\AppData\Local\Temp\cc58XARK.s:573    .text.json_get_next_object:000000000000021c .L0 
C:\Users\stapi\AppData\Local\Temp\cc58XARK.s:574    .text.json_get_next_object:000000000000021c .L0 
C:\Users\stapi\AppData\Local\Temp\cc58XARK.s:575    .text.json_get_next_object:000000000000021c .L0 
C:\Users\stapi\AppData\Local\Temp\cc58XARK.s:578    .text.json_get_next_object:000000000000021c .L0 
C:\Users\stapi\AppData\Local\Temp\cc58XARK.s:580    .text.json_get_next_object:000000000000021c .L0 
C:\Users\stapi\AppData\Local\Temp\cc58XARK.s:587    .text.json_get_next_object:0000000000000228 .L0 
C:\Users\stapi\AppData\Local\Temp\cc58XARK.s:588    .text.json_get_next_object:0000000000000228 .L0 
C:\Users\stapi\AppData\Local\Temp\cc58XARK.s:592    .text.json_get_next_object:000000000000022a .L0 
C:\Users\stapi\AppData\Local\Temp\cc58XARK.s:593    .text.json_get_next_object:000000000000022a .L0 
C:\Users\stapi\AppData\Local\Temp\cc58XARK.s:595    .text.json_get_next_object:000000000000022e .L0 
C:\Users\stapi\AppData\Local\Temp\cc58XARK.s:597    .text.json_get_next_object:0000000000000230 .L0 
C:\Users\stapi\AppData\Local\Temp\cc58XARK.s:599    .text.json_get_next_object:0000000000000234 .L0 
C:\Users\stapi\AppData\Local\Temp\cc58XARK.s:604    .text.json_get_next_object:000000000000023a .L0 
C:\Users\stapi\AppData\Local\Temp\cc58XARK.s:609    .text.json_get_next_object:000000000000023e .L0 
C:\Users\stapi\AppData\Local\Temp\cc58XARK.s:610    .text.json_get_next_object:000000000000023e .L0 
C:\Users\stapi\AppData\Local\Temp\cc58XARK.s:612    .text.json_get_next_object:0000000000000242 .L0 
C:\Users\stapi\AppData\Local\Temp\cc58XARK.s:613    .text.json_get_next_object:0000000000000242 .L0 
C:\Users\stapi\AppData\Local\Temp\cc58XARK.s:617    .text.json_get_next_object:0000000000000248 .L0 
C:\Users\stapi\AppData\Local\Temp\cc58XARK.s:618    .text.json_get_next_object:0000000000000248 .L0 
C:\Users\stapi\AppData\Local\Temp\cc58XARK.s:621    .text.json_get_next_object:0000000000000250 .L0 
C:\Users\stapi\AppData\Local\Temp\cc58XARK.s:622    .text.json_get_next_object:0000000000000250 .L0 
C:\Users\stapi\AppData\Local\Temp\cc58XARK.s:624    .text.json_get_next_object:0000000000000254 .L0 
C:\Users\stapi\AppData\Local\Temp\cc58XARK.s:625    .text.json_get_next_object:0000000000000254 .L0 
C:\Users\stapi\AppData\Local\Temp\cc58XARK.s:627    .text.json_get_next_object:0000000000000258 .L0 
C:\Users\stapi\AppData\Local\Temp\cc58XARK.s:628    .text.json_get_next_object:0000000000000258 .L0 
C:\Users\stapi\AppData\Local\Temp\cc58XARK.s:630    .text.json_get_next_object:000000000000025c .L0 
C:\Users\stapi\AppData\Local\Temp\cc58XARK.s:633    .text.json_get_next_object:000000000000025e .L0 
C:\Users\stapi\AppData\Local\Temp\cc58XARK.s:634    .text.json_get_next_object:000000000000025e .L0 
C:\Users\stapi\AppData\Local\Temp\cc58XARK.s:638    .text.json_get_next_object:0000000000000260 .L0 
C:\Users\stapi\AppData\Local\Temp\cc58XARK.s:639    .text.json_get_next_object:0000000000000260 .L0 
C:\Users\stapi\AppData\Local\Temp\cc58XARK.s:644    .text.json_get_next_object:0000000000000264 .L0 
C:\Users\stapi\AppData\Local\Temp\cc58XARK.s:645    .text.json_get_next_object:0000000000000264 .L0 
C:\Users\stapi\AppData\Local\Temp\cc58XARK.s:648    .text.json_get_next_object:000000000000026c .L0 
C:\Users\stapi\AppData\Local\Temp\cc58XARK.s:649    .text.json_get_next_object:000000000000026c .L0 
C:\Users\stapi\AppData\Local\Temp\cc58XARK.s:651    .text.json_get_next_object:0000000000000270 .L0 
C:\Users\stapi\AppData\Local\Temp\cc58XARK.s:652    .text.json_get_next_object:0000000000000270 .L0 
C:\Users\stapi\AppData\Local\Temp\cc58XARK.s:657    .text.json_get_next_object:0000000000000274 .L0 
C:\Users\stapi\AppData\Local\Temp\cc58XARK.s:658    .text.json_get_next_object:0000000000000274 .L0 
C:\Users\stapi\AppData\Local\Temp\cc58XARK.s:660    .text.json_get_next_object:0000000000000278 .L0 
C:\Users\stapi\AppData\Local\Temp\cc58XARK.s:661    .text.json_get_next_object:0000000000000278 .L0 
C:\Users\stapi\AppData\Local\Temp\cc58XARK.s:669    .text.json_get_next_object:0000000000000282 .L0 
C:\Users\stapi\AppData\Local\Temp\cc58XARK.s:673    .text.json_get_next_object:0000000000000286 .L0 
C:\Users\stapi\AppData\Local\Temp\cc58XARK.s:675    .text.json_get_next_object:0000000000000288 .L0 
C:\Users\stapi\AppData\Local\Temp\cc58XARK.s:681    .text.json_get_next_object:000000000000028c .L0 
C:\Users\stapi\AppData\Local\Temp\cc58XARK.s:682    .text.json_get_next_object:000000000000028c .L0 
C:\Users\stapi\AppData\Local\Temp\cc58XARK.s:684    .text.json_get_next_object:000000000000028e .L0 
C:\Users\stapi\AppData\Local\Temp\cc58XARK.s:686    .text.json_get_next_object:0000000000000290 .L0 
C:\Users\stapi\AppData\Local\Temp\cc58XARK.s:688    .text.json_get_next_object:0000000000000294 .L0 
C:\Users\stapi\AppData\Local\Temp\cc58XARK.s:689    .text.json_get_next_object:0000000000000294 .L0 
C:\Users\stapi\AppData\Local\Temp\cc58XARK.s:691    .text.json_get_next_object:0000000000000296 .L0 
C:\Users\stapi\AppData\Local\Temp\cc58XARK.s:693    .text.json_get_next_object:000000000000029a .L0 
C:\Users\stapi\AppData\Local\Temp\cc58XARK.s:694    .text.json_get_next_object:000000000000029a .L0 
C:\Users\stapi\AppData\Local\Temp\cc58XARK.s:696    .text.json_get_next_object:000000000000029e .L0 
C:\Users\stapi\AppData\Local\Temp\cc58XARK.s:697    .text.json_get_next_object:000000000000029e .L0 
C:\Users\stapi\AppData\Local\Temp\cc58XARK.s:700    .text.json_get_next_object:00000000000002a4 .L0 
C:\Users\stapi\AppData\Local\Temp\cc58XARK.s:701    .text.json_get_next_object:00000000000002a4 .L0 
C:\Users\stapi\AppData\Local\Temp\cc58XARK.s:702    .text.json_get_next_object:00000000000002a6 .L0 
C:\Users\stapi\AppData\Local\Temp\cc58XARK.s:709    .text.json_parse_name_value:0000000000000000 json_parse_name_value
C:\Users\stapi\AppData\Local\Temp\cc58XARK.s:712    .text.json_parse_name_value:0000000000000000 .L0 
C:\Users\stapi\AppData\Local\Temp\cc58XARK.s:714    .text.json_parse_name_value:0000000000000000 .L0 
C:\Users\stapi\AppData\Local\Temp\cc58XARK.s:715    .text.json_parse_name_value:0000000000000008 .L0 
C:\Users\stapi\AppData\Local\Temp\cc58XARK.s:716    .text.json_parse_name_value:0000000000000008 .L0 
C:\Users\stapi\AppData\Local\Temp\cc58XARK.s:717    .text.json_parse_name_value:0000000000000008 .L0 
C:\Users\stapi\AppData\Local\Temp\cc58XARK.s:718    .text.json_parse_name_value:0000000000000008 .L0 
C:\Users\stapi\AppData\Local\Temp\cc58XARK.s:719    .text.json_parse_name_value:0000000000000008 .L0 
C:\Users\stapi\AppData\Local\Temp\cc58XARK.s:720    .text.json_parse_name_value:0000000000000008 .L0 
C:\Users\stapi\AppData\Local\Temp\cc58XARK.s:721    .text.json_parse_name_value:0000000000000008 .L0 
C:\Users\stapi\AppData\Local\Temp\cc58XARK.s:722    .text.json_parse_name_value:0000000000000008 .L0 
C:\Users\stapi\AppData\Local\Temp\cc58XARK.s:725    .text.json_parse_name_value:0000000000000008 .L0 
C:\Users\stapi\AppData\Local\Temp\cc58XARK.s:726    .text.json_parse_name_value:0000000000000008 .L0 
C:\Users\stapi\AppData\Local\Temp\cc58XARK.s:727    .text.json_parse_name_value:000000000000000a .L0 
C:\Users\stapi\AppData\Local\Temp\cc58XARK.s:729    .text.json_parse_name_value:000000000000000a .L0 
C:\Users\stapi\AppData\Local\Temp\cc58XARK.s:731    .text.json_parse_name_value:000000000000000c .L0 
C:\Users\stapi\AppData\Local\Temp\cc58XARK.s:733    .text.json_parse_name_value:000000000000000e .L0 
C:\Users\stapi\AppData\Local\Temp\cc58XARK.s:734    .text.json_parse_name_value:000000000000000e .L0 
C:\Users\stapi\AppData\Local\Temp\cc58XARK.s:736    .text.json_parse_name_value:0000000000000010 .L0 
C:\Users\stapi\AppData\Local\Temp\cc58XARK.s:738    .text.json_parse_name_value:0000000000000012 .L0 
C:\Users\stapi\AppData\Local\Temp\cc58XARK.s:741    .text.json_parse_name_value:0000000000000014 .L0 
C:\Users\stapi\AppData\Local\Temp\cc58XARK.s:742    .text.json_parse_name_value:0000000000000014 .L0 
C:\Users\stapi\AppData\Local\Temp\cc58XARK.s:743    .text.json_parse_name_value:0000000000000014 .L0 
C:\Users\stapi\AppData\Local\Temp\cc58XARK.s:745    .text.json_parse_name_value:0000000000000016 .L0 
C:\Users\stapi\AppData\Local\Temp\cc58XARK.s:747    .text.json_parse_name_value:0000000000000018 .L0 
C:\Users\stapi\AppData\Local\Temp\cc58XARK.s:750    .text.json_parse_name_value:000000000000001c .L0 
C:\Users\stapi\AppData\Local\Temp\cc58XARK.s:752    .text.json_parse_name_value:000000000000001e .L0 
C:\Users\stapi\AppData\Local\Temp\cc58XARK.s:761    .text.json_parse_name_value:000000000000002a .L0 
C:\Users\stapi\AppData\Local\Temp\cc58XARK.s:766    .text.json_parse_name_value:0000000000000034 .L0 
C:\Users\stapi\AppData\Local\Temp\cc58XARK.s:770    .text.json_parse_name_value:0000000000000036 .L0 
C:\Users\stapi\AppData\Local\Temp\cc58XARK.s:772    .text.json_parse_name_value:0000000000000038 .L0 
C:\Users\stapi\AppData\Local\Temp\cc58XARK.s:775    .text.json_parse_name_value:000000000000003e .L0 
C:\Users\stapi\AppData\Local\Temp\cc58XARK.s:789    .text.json_parse_name_value:000000000000005e .L0 
C:\Users\stapi\AppData\Local\Temp\cc58XARK.s:790    .text.json_parse_name_value:000000000000005e .L0 
C:\Users\stapi\AppData\Local\Temp\cc58XARK.s:792    .text.json_parse_name_value:0000000000000060 .L0 
C:\Users\stapi\AppData\Local\Temp\cc58XARK.s:794    .text.json_parse_name_value:0000000000000062 .L0 
C:\Users\stapi\AppData\Local\Temp\cc58XARK.s:797    .text.json_parse_name_value:0000000000000066 .L0 
C:\Users\stapi\AppData\Local\Temp\cc58XARK.s:800    .text.json_parse_name_value:000000000000006a .L0 
C:\Users\stapi\AppData\Local\Temp\cc58XARK.s:804    .text.json_parse_name_value:000000000000006e .L0 
C:\Users\stapi\AppData\Local\Temp\cc58XARK.s:805    .text.json_parse_name_value:000000000000006e .L0 
C:\Users\stapi\AppData\Local\Temp\cc58XARK.s:806    .text.json_parse_name_value:000000000000006e .L0 
C:\Users\stapi\AppData\Local\Temp\cc58XARK.s:809    .text.json_parse_name_value:0000000000000072 .L0 
C:\Users\stapi\AppData\Local\Temp\cc58XARK.s:811    .text.json_parse_name_value:0000000000000074 .L0 
C:\Users\stapi\AppData\Local\Temp\cc58XARK.s:814    .text.json_parse_name_value:0000000000000076 .L0 
C:\Users\stapi\AppData\Local\Temp\cc58XARK.s:818    .text.json_parse_name_value:000000000000007a .L0 
C:\Users\stapi\AppData\Local\Temp\cc58XARK.s:820    .text.json_parse_name_value:000000000000007e .L0 
C:\Users\stapi\AppData\Local\Temp\cc58XARK.s:822    .text.json_parse_name_value:0000000000000086 .L0 
C:\Users\stapi\AppData\Local\Temp\cc58XARK.s:823    .text.json_parse_name_value:0000000000000086 .L0 
C:\Users\stapi\AppData\Local\Temp\cc58XARK.s:824    .text.json_parse_name_value:0000000000000086 .L0 
C:\Users\stapi\AppData\Local\Temp\cc58XARK.s:825    .text.json_parse_name_value:0000000000000086 .L0 
C:\Users\stapi\AppData\Local\Temp\cc58XARK.s:826    .text.json_parse_name_value:0000000000000086 .L0 
C:\Users\stapi\AppData\Local\Temp\cc58XARK.s:827    .text.json_parse_name_value:0000000000000086 .L0 
C:\Users\stapi\AppData\Local\Temp\cc58XARK.s:828    .text.json_parse_name_value:0000000000000086 .L0 
C:\Users\stapi\AppData\Local\Temp\cc58XARK.s:829    .text.json_parse_name_value:0000000000000086 .L0 
C:\Users\stapi\AppData\Local\Temp\cc58XARK.s:830    .text.json_parse_name_value:0000000000000086 .L0 
C:\Users\stapi\AppData\Local\Temp\cc58XARK.s:837    .text.json_get_value_by_name:0000000000000000 json_get_value_by_name
C:\Users\stapi\AppData\Local\Temp\cc58XARK.s:840    .text.json_get_value_by_name:0000000000000000 .L0 
C:\Users\stapi\AppData\Local\Temp\cc58XARK.s:842    .text.json_get_value_by_name:0000000000000000 .L0 
C:\Users\stapi\AppData\Local\Temp\cc58XARK.s:843    .text.json_get_value_by_name:0000000000000008 .L0 
C:\Users\stapi\AppData\Local\Temp\cc58XARK.s:844    .text.json_get_value_by_name:0000000000000008 .L0 
C:\Users\stapi\AppData\Local\Temp\cc58XARK.s:845    .text.json_get_value_by_name:0000000000000008 .L0 
C:\Users\stapi\AppData\Local\Temp\cc58XARK.s:846    .text.json_get_value_by_name:0000000000000008 .L0 
C:\Users\stapi\AppData\Local\Temp\cc58XARK.s:847    .text.json_get_value_by_name:0000000000000008 .L0 
C:\Users\stapi\AppData\Local\Temp\cc58XARK.s:849    .text.json_get_value_by_name:0000000000000008 .L0 
C:\Users\stapi\AppData\Local\Temp\cc58XARK.s:850    .text.json_get_value_by_name:0000000000000008 .L0 
C:\Users\stapi\AppData\Local\Temp\cc58XARK.s:851    .text.json_get_value_by_name:0000000000000008 .L0 
C:\Users\stapi\AppData\Local\Temp\cc58XARK.s:852    .text.json_get_value_by_name:000000000000000a .L0 
C:\Users\stapi\AppData\Local\Temp\cc58XARK.s:854    .text.json_get_value_by_name:000000000000000a .L0 
C:\Users\stapi\AppData\Local\Temp\cc58XARK.s:860    .text.json_get_value_by_name:0000000000000012 .L0 
C:\Users\stapi\AppData\Local\Temp\cc58XARK.s:862    .text.json_get_value_by_name:0000000000000014 .L0 
C:\Users\stapi\AppData\Local\Temp\cc58XARK.s:864    .text.json_get_value_by_name:0000000000000016 .L0 
C:\Users\stapi\AppData\Local\Temp\cc58XARK.s:869    .text.json_get_value_by_name:000000000000001e .L0 
C:\Users\stapi\AppData\Local\Temp\cc58XARK.s:870    .text.json_get_value_by_name:000000000000001e .L0 
C:\Users\stapi\AppData\Local\Temp\cc58XARK.s:871    .text.json_get_value_by_name:000000000000001e .L0 
C:\Users\stapi\AppData\Local\Temp\cc58XARK.s:874    .text.json_get_value_by_name:0000000000000026 .L0 
C:\Users\stapi\AppData\Local\Temp\cc58XARK.s:877    .text.json_get_value_by_name:000000000000002c .L0 
C:\Users\stapi\AppData\Local\Temp\cc58XARK.s:879    .text.json_get_value_by_name:000000000000002e .L0 
C:\Users\stapi\AppData\Local\Temp\cc58XARK.s:880    .text.json_get_value_by_name:000000000000002e .L0 
C:\Users\stapi\AppData\Local\Temp\cc58XARK.s:886    .text.json_get_value_by_name:000000000000003e .L0 
C:\Users\stapi\AppData\Local\Temp\cc58XARK.s:888    .text.json_get_value_by_name:0000000000000040 .L0 
C:\Users\stapi\AppData\Local\Temp\cc58XARK.s:889    .text.json_get_value_by_name:0000000000000040 .L0 
C:\Users\stapi\AppData\Local\Temp\cc58XARK.s:891    .text.json_get_value_by_name:0000000000000042 .L0 
C:\Users\stapi\AppData\Local\Temp\cc58XARK.s:892    .text.json_get_value_by_name:0000000000000042 .L0 
C:\Users\stapi\AppData\Local\Temp\cc58XARK.s:896    .text.json_get_value_by_name:0000000000000046 .L0 
C:\Users\stapi\AppData\Local\Temp\cc58XARK.s:897    .text.json_get_value_by_name:0000000000000046 .L0 
C:\Users\stapi\AppData\Local\Temp\cc58XARK.s:899    .text.json_get_value_by_name:0000000000000048 .L0 
C:\Users\stapi\AppData\Local\Temp\cc58XARK.s:900    .text.json_get_value_by_name:0000000000000048 .L0 
C:\Users\stapi\AppData\Local\Temp\cc58XARK.s:904    .text.json_get_value_by_name:000000000000004c .L0 
C:\Users\stapi\AppData\Local\Temp\cc58XARK.s:905    .text.json_get_value_by_name:000000000000004c .L0 
C:\Users\stapi\AppData\Local\Temp\cc58XARK.s:907    .text.json_get_value_by_name:0000000000000050 .L0 
C:\Users\stapi\AppData\Local\Temp\cc58XARK.s:910    .text.json_get_value_by_name:0000000000000058 .L0 
C:\Users\stapi\AppData\Local\Temp\cc58XARK.s:911    .text.json_get_value_by_name:0000000000000058 .L0 
C:\Users\stapi\AppData\Local\Temp\cc58XARK.s:912    .text.json_get_value_by_name:0000000000000058 .L0 
C:\Users\stapi\AppData\Local\Temp\cc58XARK.s:913    .text.json_get_value_by_name:0000000000000058 .L0 
C:\Users\stapi\AppData\Local\Temp\cc58XARK.s:914    .text.json_get_value_by_name:0000000000000058 .L0 
C:\Users\stapi\AppData\Local\Temp\cc58XARK.s:915    .text.json_get_value_by_name:0000000000000058 .L0 
C:\Users\stapi\AppData\Local\Temp\cc58XARK.s:922    .text.json_get_value_by_name_len:0000000000000000 json_get_value_by_name_len
C:\Users\stapi\AppData\Local\Temp\cc58XARK.s:925    .text.json_get_value_by_name_len:0000000000000000 .L0 
C:\Users\stapi\AppData\Local\Temp\cc58XARK.s:927    .text.json_get_value_by_name_len:0000000000000000 .L0 
C:\Users\stapi\AppData\Local\Temp\cc58XARK.s:928    .text.json_get_value_by_name_len:0000000000000008 .L0 
C:\Users\stapi\AppData\Local\Temp\cc58XARK.s:929    .text.json_get_value_by_name_len:0000000000000008 .L0 
C:\Users\stapi\AppData\Local\Temp\cc58XARK.s:930    .text.json_get_value_by_name_len:0000000000000008 .L0 
C:\Users\stapi\AppData\Local\Temp\cc58XARK.s:931    .text.json_get_value_by_name_len:0000000000000008 .L0 
C:\Users\stapi\AppData\Local\Temp\cc58XARK.s:933    .text.json_get_value_by_name_len:0000000000000008 .L0 
C:\Users\stapi\AppData\Local\Temp\cc58XARK.s:934    .text.json_get_value_by_name_len:0000000000000008 .L0 
C:\Users\stapi\AppData\Local\Temp\cc58XARK.s:935    .text.json_get_value_by_name_len:0000000000000008 .L0 
C:\Users\stapi\AppData\Local\Temp\cc58XARK.s:936    .text.json_get_value_by_name_len:000000000000000a .L0 
C:\Users\stapi\AppData\Local\Temp\cc58XARK.s:938    .text.json_get_value_by_name_len:000000000000000a .L0 
C:\Users\stapi\AppData\Local\Temp\cc58XARK.s:940    .text.json_get_value_by_name_len:000000000000000c .L0 
C:\Users\stapi\AppData\Local\Temp\cc58XARK.s:943    .text.json_get_value_by_name_len:0000000000000010 .L0 
C:\Users\stapi\AppData\Local\Temp\cc58XARK.s:945    .text.json_get_value_by_name_len:0000000000000012 .L0 
C:\Users\stapi\AppData\Local\Temp\cc58XARK.s:949    .text.json_get_value_by_name_len:0000000000000018 .L0 
C:\Users\stapi\AppData\Local\Temp\cc58XARK.s:952    .text.json_get_value_by_name_len:000000000000001c .L0 
C:\Users\stapi\AppData\Local\Temp\cc58XARK.s:956    .text.json_get_value_by_name_len:0000000000000022 .L0 
C:\Users\stapi\AppData\Local\Temp\cc58XARK.s:957    .text.json_get_value_by_name_len:0000000000000022 .L0 
C:\Users\stapi\AppData\Local\Temp\cc58XARK.s:958    .text.json_get_value_by_name_len:0000000000000022 .L0 
C:\Users\stapi\AppData\Local\Temp\cc58XARK.s:959    .text.json_get_value_by_name_len:0000000000000022 .L0 
C:\Users\stapi\AppData\Local\Temp\cc58XARK.s:962    .text.json_get_value_by_name_len:000000000000002a .L0 
C:\Users\stapi\AppData\Local\Temp\cc58XARK.s:964    .text.json_get_value_by_name_len:000000000000002c .L0 
C:\Users\stapi\AppData\Local\Temp\cc58XARK.s:965    .text.json_get_value_by_name_len:000000000000002c .L0 
C:\Users\stapi\AppData\Local\Temp\cc58XARK.s:967    .text.json_get_value_by_name_len:000000000000002e .L0 
C:\Users\stapi\AppData\Local\Temp\cc58XARK.s:968    .text.json_get_value_by_name_len:000000000000002e .L0 
C:\Users\stapi\AppData\Local\Temp\cc58XARK.s:972    .text.json_get_value_by_name_len:0000000000000032 .L0 
C:\Users\stapi\AppData\Local\Temp\cc58XARK.s:973    .text.json_get_value_by_name_len:0000000000000032 .L0 
C:\Users\stapi\AppData\Local\Temp\cc58XARK.s:975    .text.json_get_value_by_name_len:0000000000000034 .L0 
C:\Users\stapi\AppData\Local\Temp\cc58XARK.s:976    .text.json_get_value_by_name_len:0000000000000034 .L0 
C:\Users\stapi\AppData\Local\Temp\cc58XARK.s:980    .text.json_get_value_by_name_len:0000000000000038 .L0 
C:\Users\stapi\AppData\Local\Temp\cc58XARK.s:981    .text.json_get_value_by_name_len:0000000000000038 .L0 
C:\Users\stapi\AppData\Local\Temp\cc58XARK.s:983    .text.json_get_value_by_name_len:000000000000003c .L0 
C:\Users\stapi\AppData\Local\Temp\cc58XARK.s:985    .text.json_get_value_by_name_len:0000000000000044 .L0 
C:\Users\stapi\AppData\Local\Temp\cc58XARK.s:986    .text.json_get_value_by_name_len:0000000000000044 .L0 
C:\Users\stapi\AppData\Local\Temp\cc58XARK.s:987    .text.json_get_value_by_name_len:0000000000000044 .L0 
C:\Users\stapi\AppData\Local\Temp\cc58XARK.s:988    .text.json_get_value_by_name_len:0000000000000044 .L0 
C:\Users\stapi\AppData\Local\Temp\cc58XARK.s:989    .text.json_get_value_by_name_len:0000000000000044 .L0 
C:\Users\stapi\AppData\Local\Temp\cc58XARK.s:82     .text.json_get_value_by_name_cb:000000000000003e .L0 
C:\Users\stapi\AppData\Local\Temp\cc58XARK.s:144    .text.json_get_object:0000000000000034 .L0 
C:\Users\stapi\AppData\Local\Temp\cc58XARK.s:705    .text.json_get_next_object:00000000000002a6 .L0 
C:\Users\stapi\AppData\Local\Temp\cc58XARK.s:833    .text.json_parse_name_value:0000000000000086 .L0 
C:\Users\stapi\AppData\Local\Temp\cc58XARK.s:918    .text.json_get_value_by_name:0000000000000058 .L0 
C:\Users\stapi\AppData\Local\Temp\cc58XARK.s:992    .text.json_get_value_by_name_len:0000000000000044 .L0 
                     .debug_frame:0000000000000000 .L0 
C:\Users\stapi\AppData\Local\Temp\cc58XARK.s:73     .text.json_get_value_by_name_cb:000000000000003a .L3
C:\Users\stapi\AppData\Local\Temp\cc58XARK.s:61     .text.json_get_value_by_name_cb:0000000000000030 .L1
C:\Users\stapi\AppData\Local\Temp\cc58XARK.s:98     .text.json_get_object:000000000000000e .L7
C:\Users\stapi\AppData\Local\Temp\cc58XARK.s:136    .text.json_get_object:0000000000000030 .L8
C:\Users\stapi\AppData\Local\Temp\cc58XARK.s:123    .text.json_get_object:0000000000000020 .L9
C:\Users\stapi\AppData\Local\Temp\cc58XARK.s:131    .text.json_get_object:000000000000002c .L10
C:\Users\stapi\AppData\Local\Temp\cc58XARK.s:107    .text.json_get_object:0000000000000016 .L15
C:\Users\stapi\AppData\Local\Temp\cc58XARK.s:113    .text.json_get_object:000000000000001a .L11
C:\Users\stapi\AppData\Local\Temp\cc58XARK.s:146    .rodata.json_get_next_object.str1.4:0000000000000000 .LC0
C:\Users\stapi\AppData\Local\Temp\cc58XARK.s:149    .rodata.json_get_next_object.str1.4:0000000000000008 .LC1
C:\Users\stapi\AppData\Local\Temp\cc58XARK.s:152    .rodata.json_get_next_object.str1.4:0000000000000010 .LC2
C:\Users\stapi\AppData\Local\Temp\cc58XARK.s:155    .rodata.json_get_next_object.str1.4:0000000000000018 .LC3
C:\Users\stapi\AppData\Local\Temp\cc58XARK.s:405    .text.json_get_next_object:000000000000011c .L47
C:\Users\stapi\AppData\Local\Temp\cc58XARK.s:678    .text.json_get_next_object:000000000000028c .L21
C:\Users\stapi\AppData\Local\Temp\cc58XARK.s:389    .text.json_get_next_object:0000000000000108 .L28
C:\Users\stapi\AppData\Local\Temp\cc58XARK.s:316    .text.json_get_next_object:00000000000000c6 .L22
C:\Users\stapi\AppData\Local\Temp\cc58XARK.s:591    .text.json_get_next_object:000000000000022a .L42
C:\Users\stapi\AppData\Local\Temp\cc58XARK.s:334    .text.json_get_next_object:00000000000000d2 .L24
C:\Users\stapi\AppData\Local\Temp\cc58XARK.s:293    .text.json_get_next_object:00000000000000ac .L23
C:\Users\stapi\AppData\Local\Temp\cc58XARK.s:352    .text.json_get_next_object:00000000000000de .L25
C:\Users\stapi\AppData\Local\Temp\cc58XARK.s:361    .text.json_get_next_object:00000000000000ee .L26
C:\Users\stapi\AppData\Local\Temp\cc58XARK.s:376    .text.json_get_next_object:00000000000000f6 .L27
C:\Users\stapi\AppData\Local\Temp\cc58XARK.s:666    .text.json_get_next_object:0000000000000280 .L49
C:\Users\stapi\AppData\Local\Temp\cc58XARK.s:671    .text.json_get_next_object:0000000000000286 .L50
C:\Users\stapi\AppData\Local\Temp\cc58XARK.s:398    .text.json_get_next_object:0000000000000116 .L51
C:\Users\stapi\AppData\Local\Temp\cc58XARK.s:277    .text.json_get_next_object:00000000000000a2 .L30
C:\Users\stapi\AppData\Local\Temp\cc58XARK.s:260    .text.json_get_next_object:0000000000000086 .L20
C:\Users\stapi\AppData\Local\Temp\cc58XARK.s:487    .text.json_get_next_object:00000000000001b2 .L31
C:\Users\stapi\AppData\Local\Temp\cc58XARK.s:456    .text.json_get_next_object:0000000000000176 .L67
C:\Users\stapi\AppData\Local\Temp\cc58XARK.s:585    .text.json_get_next_object:0000000000000228 .L34
C:\Users\stapi\AppData\Local\Temp\cc58XARK.s:451    .text.json_get_next_object:0000000000000172 .L53
C:\Users\stapi\AppData\Local\Temp\cc58XARK.s:509    .text.json_get_next_object:00000000000001d8 .L29
C:\Users\stapi\AppData\Local\Temp\cc58XARK.s:482    .text.json_get_next_object:00000000000001ae .L55
C:\Users\stapi\AppData\Local\Temp\cc58XARK.s:607    .text.json_get_next_object:000000000000023e .L35
C:\Users\stapi\AppData\Local\Temp\cc58XARK.s:577    .text.json_get_next_object:000000000000021c .L36
C:\Users\stapi\AppData\Local\Temp\cc58XARK.s:528    .text.json_get_next_object:00000000000001f0 .L44
C:\Users\stapi\AppData\Local\Temp\cc58XARK.s:555    .text.json_get_next_object:0000000000000212 .L19
C:\Users\stapi\AppData\Local\Temp\cc58XARK.s:503    .text.json_get_next_object:00000000000001d4 .L69
C:\Users\stapi\AppData\Local\Temp\cc58XARK.s:602    .text.json_get_next_object:000000000000023a .L57
C:\Users\stapi\AppData\Local\Temp\cc58XARK.s:412    .text.json_get_next_object:0000000000000122 .L43
C:\Users\stapi\AppData\Local\Temp\cc58XARK.s:615    .text.json_get_next_object:0000000000000248 .L38
C:\Users\stapi\AppData\Local\Temp\cc58XARK.s:642    .text.json_get_next_object:0000000000000264 .L39
C:\Users\stapi\AppData\Local\Temp\cc58XARK.s:636    .text.json_get_next_object:0000000000000260 .L40
C:\Users\stapi\AppData\Local\Temp\cc58XARK.s:655    .text.json_get_next_object:0000000000000274 .L41
C:\Users\stapi\AppData\Local\Temp\cc58XARK.s:816    .text.json_parse_name_value:000000000000007a .L70
C:\Users\stapi\AppData\Local\Temp\cc58XARK.s:768    .text.json_parse_name_value:0000000000000036 .L72
C:\Users\stapi\AppData\Local\Temp\cc58XARK.s:902    .text.json_get_value_by_name:000000000000004c .L100
C:\Users\stapi\AppData\Local\Temp\cc58XARK.s:894    .text.json_get_value_by_name:0000000000000046 .L101
C:\Users\stapi\AppData\Local\Temp\cc58XARK.s:978    .text.json_get_value_by_name_len:0000000000000038 .L112
C:\Users\stapi\AppData\Local\Temp\cc58XARK.s:970    .text.json_get_value_by_name_len:0000000000000032 .L113
C:\Users\stapi\AppData\Local\Temp\cc58XARK.s:2029   .debug_abbrev:0000000000000000 .Ldebug_abbrev0
C:\Users\stapi\AppData\Local\Temp\cc58XARK.s:3670   .debug_str:00000000000001b6 .LASF66
C:\Users\stapi\AppData\Local\Temp\cc58XARK.s:3646   .debug_str:000000000000003e .LASF67
C:\Users\stapi\AppData\Local\Temp\cc58XARK.s:3662   .debug_str:000000000000010f .LASF68
C:\Users\stapi\AppData\Local\Temp\cc58XARK.s:3616   .debug_ranges:0000000000000000 .Ldebug_ranges0
C:\Users\stapi\AppData\Local\Temp\cc58XARK.s:3632   .debug_line:0000000000000000 .Ldebug_line0
C:\Users\stapi\AppData\Local\Temp\cc58XARK.s:3712   .debug_str:00000000000003b8 .LASF0
C:\Users\stapi\AppData\Local\Temp\cc58XARK.s:3702   .debug_str:0000000000000366 .LASF1
C:\Users\stapi\AppData\Local\Temp\cc58XARK.s:3644   .debug_str:0000000000000034 .LASF2
C:\Users\stapi\AppData\Local\Temp\cc58XARK.s:3726   .debug_str:0000000000000415 .LASF3
C:\Users\stapi\AppData\Local\Temp\cc58XARK.s:3684   .debug_str:00000000000002d7 .LASF4
C:\Users\stapi\AppData\Local\Temp\cc58XARK.s:3746   .debug_str:0000000000000470 .LASF5
C:\Users\stapi\AppData\Local\Temp\cc58XARK.s:3676   .debug_str:00000000000002b5 .LASF6
C:\Users\stapi\AppData\Local\Temp\cc58XARK.s:3714   .debug_str:00000000000003c4 .LASF7
C:\Users\stapi\AppData\Local\Temp\cc58XARK.s:3718   .debug_str:00000000000003e0 .LASF8
C:\Users\stapi\AppData\Local\Temp\cc58XARK.s:3728   .debug_str:0000000000000428 .LASF9
C:\Users\stapi\AppData\Local\Temp\cc58XARK.s:3750   .debug_str:000000000000048d .LASF10
C:\Users\stapi\AppData\Local\Temp\cc58XARK.s:3738   .debug_str:0000000000000450 .LASF29
C:\Users\stapi\AppData\Local\Temp\cc58XARK.s:3752   .debug_str:0000000000000494 .LASF11
C:\Users\stapi\AppData\Local\Temp\cc58XARK.s:3682   .debug_str:00000000000002d2 .LASF12
C:\Users\stapi\AppData\Local\Temp\cc58XARK.s:3636   .debug_str:0000000000000008 .LASF13
C:\Users\stapi\AppData\Local\Temp\cc58XARK.s:3772   .debug_str:00000000000004fc .LASF21
C:\Users\stapi\AppData\Local\Temp\cc58XARK.s:3648   .debug_str:00000000000000da .LASF14
C:\Users\stapi\AppData\Local\Temp\cc58XARK.s:3768   .debug_str:00000000000004eb .LASF15
C:\Users\stapi\AppData\Local\Temp\cc58XARK.s:3652   .debug_str:00000000000000e6 .LASF16
C:\Users\stapi\AppData\Local\Temp\cc58XARK.s:3642   .debug_str:000000000000002d .LASF17
C:\Users\stapi\AppData\Local\Temp\cc58XARK.s:3634   .debug_str:0000000000000000 .LASF18
C:\Users\stapi\AppData\Local\Temp\cc58XARK.s:3744   .debug_str:0000000000000467 .LASF19
C:\Users\stapi\AppData\Local\Temp\cc58XARK.s:3754   .debug_str:0000000000000499 .LASF20
C:\Users\stapi\AppData\Local\Temp\cc58XARK.s:3756   .debug_str:00000000000004a2 .LASF22
C:\Users\stapi\AppData\Local\Temp\cc58XARK.s:3700   .debug_str:0000000000000357 .LASF23
C:\Users\stapi\AppData\Local\Temp\cc58XARK.s:3766   .debug_str:00000000000004dd .LASF24
C:\Users\stapi\AppData\Local\Temp\cc58XARK.s:3698   .debug_str:0000000000000345 .LASF25
C:\Users\stapi\AppData\Local\Temp\cc58XARK.s:3640   .debug_str:000000000000001b .LASF26
C:\Users\stapi\AppData\Local\Temp\cc58XARK.s:3706   .debug_str:000000000000038b .LASF27
C:\Users\stapi\AppData\Local\Temp\cc58XARK.s:3762   .debug_str:00000000000004c0 .LASF28
C:\Users\stapi\AppData\Local\Temp\cc58XARK.s:3686   .debug_str:00000000000002e0 .LASF30
C:\Users\stapi\AppData\Local\Temp\cc58XARK.s:3690   .debug_str:00000000000002f7 .LASF37
C:\Users\stapi\AppData\Local\Temp\cc58XARK.s:923    .text.json_get_value_by_name_len:0000000000000000 .LFB25
C:\Users\stapi\AppData\Local\Temp\cc58XARK.s:990    .text.json_get_value_by_name_len:0000000000000044 .LFE25
C:\Users\stapi\AppData\Local\Temp\cc58XARK.s:3748   .debug_str:0000000000000482 .LASF31
C:\Users\stapi\AppData\Local\Temp\cc58XARK.s:2460   .debug_loc:0000000000000000 .LLST38
C:\Users\stapi\AppData\Local\Temp\cc58XARK.s:3658   .debug_str:00000000000000ff .LASF32
C:\Users\stapi\AppData\Local\Temp\cc58XARK.s:2474   .debug_loc:0000000000000021 .LLST39
C:\Users\stapi\AppData\Local\Temp\cc58XARK.s:3678   .debug_str:00000000000002c3 .LASF33
C:\Users\stapi\AppData\Local\Temp\cc58XARK.s:2488   .debug_loc:0000000000000042 .LLST40
C:\Users\stapi\AppData\Local\Temp\cc58XARK.s:3672   .debug_str:000000000000029d .LASF34
C:\Users\stapi\AppData\Local\Temp\cc58XARK.s:2507   .debug_loc:000000000000006f .LLST41
C:\Users\stapi\AppData\Local\Temp\cc58XARK.s:3734   .debug_str:0000000000000439 .LASF35
C:\Users\stapi\AppData\Local\Temp\cc58XARK.s:2526   .debug_loc:000000000000009c .LLST42
C:\Users\stapi\AppData\Local\Temp\cc58XARK.s:3674   .debug_str:00000000000002a8 .LASF36
C:\Users\stapi\AppData\Local\Temp\cc58XARK.s:2537   .debug_loc:00000000000000ba .LLST43
C:\Users\stapi\AppData\Local\Temp\cc58XARK.s:3740   .debug_str:0000000000000458 .LASF39
C:\Users\stapi\AppData\Local\Temp\cc58XARK.s:960    .text.json_get_value_by_name_len:000000000000002a .LVL99
C:\Users\stapi\AppData\Local\Temp\cc58XARK.s:3704   .debug_str:0000000000000374 .LASF38
C:\Users\stapi\AppData\Local\Temp\cc58XARK.s:838    .text.json_get_value_by_name:0000000000000000 .LFB24
C:\Users\stapi\AppData\Local\Temp\cc58XARK.s:916    .text.json_get_value_by_name:0000000000000058 .LFE24
C:\Users\stapi\AppData\Local\Temp\cc58XARK.s:2548   .debug_loc:00000000000000d8 .LLST33
C:\Users\stapi\AppData\Local\Temp\cc58XARK.s:2559   .debug_loc:00000000000000f6 .LLST34
C:\Users\stapi\AppData\Local\Temp\cc58XARK.s:2576   .debug_loc:0000000000000121 .LLST35
C:\Users\stapi\AppData\Local\Temp\cc58XARK.s:2590   .debug_loc:0000000000000142 .LLST36
C:\Users\stapi\AppData\Local\Temp\cc58XARK.s:2601   .debug_loc:0000000000000160 .LLST37
C:\Users\stapi\AppData\Local\Temp\cc58XARK.s:872    .text.json_get_value_by_name:0000000000000026 .LVL93
C:\Users\stapi\AppData\Local\Temp\cc58XARK.s:884    .text.json_get_value_by_name:000000000000003e .LVL94
C:\Users\stapi\AppData\Local\Temp\cc58XARK.s:3694   .debug_str:000000000000031b .LASF40
C:\Users\stapi\AppData\Local\Temp\cc58XARK.s:14     .text.json_get_value_by_name_cb:0000000000000000 .LFB23
C:\Users\stapi\AppData\Local\Temp\cc58XARK.s:80     .text.json_get_value_by_name_cb:000000000000003e .LFE23
C:\Users\stapi\AppData\Local\Temp\cc58XARK.s:2612   .debug_loc:000000000000017e .LLST0
C:\Users\stapi\AppData\Local\Temp\cc58XARK.s:3692   .debug_str:0000000000000312 .LASF41
C:\Users\stapi\AppData\Local\Temp\cc58XARK.s:2630   .debug_loc:00000000000001aa .LLST1
C:\Users\stapi\AppData\Local\Temp\cc58XARK.s:3770   .debug_str:00000000000004f3 .LASF42
C:\Users\stapi\AppData\Local\Temp\cc58XARK.s:2648   .debug_loc:00000000000001d6 .LLST2
C:\Users\stapi\AppData\Local\Temp\cc58XARK.s:3742   .debug_str:000000000000045d .LASF43
C:\Users\stapi\AppData\Local\Temp\cc58XARK.s:2659   .debug_loc:00000000000001f4 .LLST3
C:\Users\stapi\AppData\Local\Temp\cc58XARK.s:3736   .debug_str:0000000000000445 .LASF44
C:\Users\stapi\AppData\Local\Temp\cc58XARK.s:2681   .debug_loc:000000000000022b .LLST4
C:\Users\stapi\AppData\Local\Temp\cc58XARK.s:3656   .debug_str:00000000000000f6 .LASF45
C:\Users\stapi\AppData\Local\Temp\cc58XARK.s:2703   .debug_loc:0000000000000262 .LLST5
C:\Users\stapi\AppData\Local\Temp\cc58XARK.s:3764   .debug_str:00000000000004cf .LASF46
C:\Users\stapi\AppData\Local\Temp\cc58XARK.s:2732   .debug_loc:00000000000002a7 .LLST6
C:\Users\stapi\AppData\Local\Temp\cc58XARK.s:43     .text.json_get_value_by_name_cb:0000000000000020 .LVL4
C:\Users\stapi\AppData\Local\Temp\cc58XARK.s:3708   .debug_str:000000000000039b .LASF47
C:\Users\stapi\AppData\Local\Temp\cc58XARK.s:710    .text.json_parse_name_value:0000000000000000 .LFB22
C:\Users\stapi\AppData\Local\Temp\cc58XARK.s:831    .text.json_parse_name_value:0000000000000086 .LFE22
C:\Users\stapi\AppData\Local\Temp\cc58XARK.s:2761   .debug_loc:00000000000002ec .LLST27
C:\Users\stapi\AppData\Local\Temp\cc58XARK.s:2779   .debug_loc:0000000000000318 .LLST28
C:\Users\stapi\AppData\Local\Temp\cc58XARK.s:3650   .debug_str:00000000000000e0 .LASF48
C:\Users\stapi\AppData\Local\Temp\cc58XARK.s:2793   .debug_loc:0000000000000339 .LLST29
C:\Users\stapi\AppData\Local\Temp\cc58XARK.s:2811   .debug_loc:0000000000000365 .LLST30
C:\Users\stapi\AppData\Local\Temp\cc58XARK.s:2829   .debug_loc:0000000000000391 .LLST31
C:\Users\stapi\AppData\Local\Temp\cc58XARK.s:3668   .debug_str:00000000000001b1 .LASF49
C:\Users\stapi\AppData\Local\Temp\cc58XARK.s:3732   .debug_str:0000000000000434 .LASF50
C:\Users\stapi\AppData\Local\Temp\cc58XARK.s:3760   .debug_str:00000000000004ba .LASF51
C:\Users\stapi\AppData\Local\Temp\cc58XARK.s:2841   .debug_loc:00000000000003b0 .LLST32
C:\Users\stapi\AppData\Local\Temp\cc58XARK.s:762    .text.json_parse_name_value:0000000000000032 .LVL83
C:\Users\stapi\AppData\Local\Temp\cc58XARK.s:784    .text.json_parse_name_value:000000000000005a .LVL86
C:\Users\stapi\AppData\Local\Temp\cc58XARK.s:812    .text.json_parse_name_value:0000000000000076 .LVL89
C:\Users\stapi\AppData\Local\Temp\cc58XARK.s:3722   .debug_str:00000000000003f8 .LASF52
C:\Users\stapi\AppData\Local\Temp\cc58XARK.s:162    .text.json_get_next_object:0000000000000000 .LFB21
C:\Users\stapi\AppData\Local\Temp\cc58XARK.s:703    .text.json_get_next_object:00000000000002a6 .LFE21
C:\Users\stapi\AppData\Local\Temp\cc58XARK.s:3716   .debug_str:00000000000003db .LASF53
C:\Users\stapi\AppData\Local\Temp\cc58XARK.s:2859   .debug_loc:00000000000003dc .LLST10
C:\Users\stapi\AppData\Local\Temp\cc58XARK.s:2900   .debug_loc:0000000000000442 .LLST11
C:\Users\stapi\AppData\Local\Temp\cc58XARK.s:3664   .debug_str:00000000000001a0 .LASF54
C:\Users\stapi\AppData\Local\Temp\cc58XARK.s:2929   .debug_loc:0000000000000487 .LLST12
C:\Users\stapi\AppData\Local\Temp\cc58XARK.s:2948   .debug_loc:00000000000004bb .LLST13
C:\Users\stapi\AppData\Local\Temp\cc58XARK.s:3758   .debug_str:00000000000004b2 .LASF55
C:\Users\stapi\AppData\Local\Temp\cc58XARK.s:2989   .debug_loc:0000000000000521 .LLST14
C:\Users\stapi\AppData\Local\Temp\cc58XARK.s:3021   .debug_loc:0000000000000570 .LLST15
C:\Users\stapi\AppData\Local\Temp\cc58XARK.s:3660   .debug_str:0000000000000107 .LASF56
C:\Users\stapi\AppData\Local\Temp\cc58XARK.s:3053   .debug_loc:00000000000005bf .LLST16
C:\Users\stapi\AppData\Local\Temp\cc58XARK.s:3666   .debug_str:00000000000001a8 .LASF57
C:\Users\stapi\AppData\Local\Temp\cc58XARK.s:3072   .debug_loc:00000000000005f3 .LLST17
C:\Users\stapi\AppData\Local\Temp\cc58XARK.s:3688   .debug_str:00000000000002ee .LASF58
C:\Users\stapi\AppData\Local\Temp\cc58XARK.s:3720   .debug_str:00000000000003ed .LASF59
C:\Users\stapi\AppData\Local\Temp\cc58XARK.s:3113   .debug_loc:0000000000000659 .LLST18
C:\Users\stapi\AppData\Local\Temp\cc58XARK.s:3138   .debug_loc:000000000000069a .LLST19
C:\Users\stapi\AppData\Local\Temp\cc58XARK.s:3226   .debug_loc:000000000000076e .LLST20
C:\Users\stapi\AppData\Local\Temp\cc58XARK.s:3255   .debug_loc:00000000000007ba .LLST21
C:\Users\stapi\AppData\Local\Temp\cc58XARK.s:3638   .debug_str:000000000000000e .LASF60
C:\Users\stapi\AppData\Local\Temp\cc58XARK.s:3287   .debug_loc:0000000000000809 .LLST22
C:\Users\stapi\AppData\Local\Temp\cc58XARK.s:3312   .debug_loc:000000000000084a .LLST23
C:\Users\stapi\AppData\Local\Temp\cc58XARK.s:3341   .debug_loc:0000000000000896 .LLST24
C:\Users\stapi\AppData\Local\Temp\cc58XARK.s:3680   .debug_str:00000000000002cb .LASF61
C:\Users\stapi\AppData\Local\Temp\cc58XARK.s:3436   .debug_loc:0000000000000986 .LLST25
C:\Users\stapi\AppData\Local\Temp\cc58XARK.s:3724   .debug_str:000000000000040d .LASF69
C:\Users\stapi\AppData\Local\Temp\cc58XARK.s:679    .text.json_get_next_object:000000000000028c .LDL1
C:\Users\stapi\AppData\Local\Temp\cc58XARK.s:418    .text.json_get_next_object:0000000000000128 .LBB2
C:\Users\stapi\AppData\Local\Temp\cc58XARK.s:488    .text.json_get_next_object:00000000000001b2 .LBE2
C:\Users\stapi\AppData\Local\Temp\cc58XARK.s:3549   .debug_loc:0000000000000aa4 .LLST26
C:\Users\stapi\AppData\Local\Temp\cc58XARK.s:423    .text.json_get_next_object:0000000000000132 .LVL52
C:\Users\stapi\AppData\Local\Temp\cc58XARK.s:439    .text.json_get_next_object:000000000000015a .LVL54
C:\Users\stapi\AppData\Local\Temp\cc58XARK.s:448    .text.json_get_next_object:0000000000000170 .LVL55
C:\Users\stapi\AppData\Local\Temp\cc58XARK.s:470    .text.json_get_next_object:0000000000000196 .LVL58
C:\Users\stapi\AppData\Local\Temp\cc58XARK.s:479    .text.json_get_next_object:00000000000001ac .LVL59
C:\Users\stapi\AppData\Local\Temp\cc58XARK.s:229    .text.json_get_next_object:0000000000000058 .LVL21
C:\Users\stapi\AppData\Local\Temp\cc58XARK.s:242    .text.json_get_next_object:000000000000006e .LVL23
C:\Users\stapi\AppData\Local\Temp\cc58XARK.s:257    .text.json_get_next_object:0000000000000084 .LVL26
C:\Users\stapi\AppData\Local\Temp\cc58XARK.s:3696   .debug_str:0000000000000335 .LASF62
C:\Users\stapi\AppData\Local\Temp\cc58XARK.s:87     .text.json_get_object:0000000000000000 .LFB20
C:\Users\stapi\AppData\Local\Temp\cc58XARK.s:142    .text.json_get_object:0000000000000034 .LFE20
C:\Users\stapi\AppData\Local\Temp\cc58XARK.s:3560   .debug_loc:0000000000000ac2 .LLST7
C:\Users\stapi\AppData\Local\Temp\cc58XARK.s:3574   .debug_loc:0000000000000ae3 .LLST8
C:\Users\stapi\AppData\Local\Temp\cc58XARK.s:3585   .debug_loc:0000000000000b01 .LLST9
C:\Users\stapi\AppData\Local\Temp\cc58XARK.s:3730   .debug_str:000000000000042d .LASF63
C:\Users\stapi\AppData\Local\Temp\cc58XARK.s:3654   .debug_str:00000000000000ee .LASF64
C:\Users\stapi\AppData\Local\Temp\cc58XARK.s:3710   .debug_str:00000000000003b1 .LASF65
C:\Users\stapi\AppData\Local\Temp\cc58XARK.s:926    .text.json_get_value_by_name_len:0000000000000000 .LVL96
C:\Users\stapi\AppData\Local\Temp\cc58XARK.s:941    .text.json_get_value_by_name_len:0000000000000010 .LVL97
C:\Users\stapi\AppData\Local\Temp\cc58XARK.s:947    .text.json_get_value_by_name_len:0000000000000018 .LVL98
C:\Users\stapi\AppData\Local\Temp\cc58XARK.s:841    .text.json_get_value_by_name:0000000000000000 .LVL91
C:\Users\stapi\AppData\Local\Temp\cc58XARK.s:856    .text.json_get_value_by_name:000000000000000e .LVL92
C:\Users\stapi\AppData\Local\Temp\cc58XARK.s:908    .text.json_get_value_by_name:0000000000000050 .LVL95
C:\Users\stapi\AppData\Local\Temp\cc58XARK.s:18     .text.json_get_value_by_name_cb:0000000000000000 .LVL0
C:\Users\stapi\AppData\Local\Temp\cc58XARK.s:72     .text.json_get_value_by_name_cb:000000000000003a .LVL6
C:\Users\stapi\AppData\Local\Temp\cc58XARK.s:38     .text.json_get_value_by_name_cb:0000000000000012 .LVL3
C:\Users\stapi\AppData\Local\Temp\cc58XARK.s:33     .text.json_get_value_by_name_cb:000000000000000c .LVL2
C:\Users\stapi\AppData\Local\Temp\cc58XARK.s:60     .text.json_get_value_by_name_cb:0000000000000030 .LVL5
C:\Users\stapi\AppData\Local\Temp\cc58XARK.s:77     .text.json_get_value_by_name_cb:000000000000003c .LVL7
C:\Users\stapi\AppData\Local\Temp\cc58XARK.s:29     .text.json_get_value_by_name_cb:000000000000000a .LVL1
C:\Users\stapi\AppData\Local\Temp\cc58XARK.s:713    .text.json_parse_name_value:0000000000000000 .LVL77
C:\Users\stapi\AppData\Local\Temp\cc58XARK.s:758    .text.json_parse_name_value:0000000000000028 .LVL82
C:\Users\stapi\AppData\Local\Temp\cc58XARK.s:756    .text.json_parse_name_value:0000000000000026 .LVL81
C:\Users\stapi\AppData\Local\Temp\cc58XARK.s:754    .text.json_parse_name_value:0000000000000024 .LVL80
C:\Users\stapi\AppData\Local\Temp\cc58XARK.s:815    .text.json_parse_name_value:000000000000007a .LVL90
C:\Users\stapi\AppData\Local\Temp\cc58XARK.s:724    .text.json_parse_name_value:0000000000000008 .LVL78
C:\Users\stapi\AppData\Local\Temp\cc58XARK.s:764    .text.json_parse_name_value:0000000000000034 .LVL84
C:\Users\stapi\AppData\Local\Temp\cc58XARK.s:740    .text.json_parse_name_value:0000000000000014 .LVL79
C:\Users\stapi\AppData\Local\Temp\cc58XARK.s:767    .text.json_parse_name_value:0000000000000036 .LVL85
C:\Users\stapi\AppData\Local\Temp\cc58XARK.s:803    .text.json_parse_name_value:000000000000006e .LVL88
C:\Users\stapi\AppData\Local\Temp\cc58XARK.s:165    .text.json_get_next_object:0000000000000000 .LVL15
C:\Users\stapi\AppData\Local\Temp\cc58XARK.s:227    .text.json_get_next_object:0000000000000050 .LVL20
C:\Users\stapi\AppData\Local\Temp\cc58XARK.s:297    .text.json_get_next_object:00000000000000ae .LVL32
C:\Users\stapi\AppData\Local\Temp\cc58XARK.s:304    .text.json_get_next_object:00000000000000b8 .LVL33
C:\Users\stapi\AppData\Local\Temp\cc58XARK.s:404    .text.json_get_next_object:000000000000011c .LVL49
C:\Users\stapi\AppData\Local\Temp\cc58XARK.s:411    .text.json_get_next_object:0000000000000122 .LVL50
C:\Users\stapi\AppData\Local\Temp\cc58XARK.s:560    .text.json_get_next_object:0000000000000214 .LVL64
C:\Users\stapi\AppData\Local\Temp\cc58XARK.s:576    .text.json_get_next_object:000000000000021c .LVL65
C:\Users\stapi\AppData\Local\Temp\cc58XARK.s:225    .text.json_get_next_object:000000000000004e .LVL19
C:\Users\stapi\AppData\Local\Temp\cc58XARK.s:259    .text.json_get_next_object:0000000000000086 .LVL27
C:\Users\stapi\AppData\Local\Temp\cc58XARK.s:192    .text.json_get_next_object:0000000000000014 .LVL17
C:\Users\stapi\AppData\Local\Temp\cc58XARK.s:187    .text.json_get_next_object:000000000000000e .LVL16
C:\Users\stapi\AppData\Local\Temp\cc58XARK.s:205    .text.json_get_next_object:0000000000000032 .LVL18
C:\Users\stapi\AppData\Local\Temp\cc58XARK.s:507    .text.json_get_next_object:00000000000001d8 .LVL61
C:\Users\stapi\AppData\Local\Temp\cc58XARK.s:601    .text.json_get_next_object:000000000000023a .LVL68
C:\Users\stapi\AppData\Local\Temp\cc58XARK.s:606    .text.json_get_next_object:000000000000023e .LVL69
C:\Users\stapi\AppData\Local\Temp\cc58XARK.s:665    .text.json_get_next_object:0000000000000280 .LVL75
C:\Users\stapi\AppData\Local\Temp\cc58XARK.s:677    .text.json_get_next_object:000000000000028c .LVL76
C:\Users\stapi\AppData\Local\Temp\cc58XARK.s:282    .text.json_get_next_object:00000000000000a6 .LVL29
C:\Users\stapi\AppData\Local\Temp\cc58XARK.s:292    .text.json_get_next_object:00000000000000ac .LVL31
C:\Users\stapi\AppData\Local\Temp\cc58XARK.s:315    .text.json_get_next_object:00000000000000c6 .LVL34
C:\Users\stapi\AppData\Local\Temp\cc58XARK.s:321    .text.json_get_next_object:00000000000000ca .LVL35
C:\Users\stapi\AppData\Local\Temp\cc58XARK.s:333    .text.json_get_next_object:00000000000000d2 .LVL38
C:\Users\stapi\AppData\Local\Temp\cc58XARK.s:339    .text.json_get_next_object:00000000000000d6 .LVL39
C:\Users\stapi\AppData\Local\Temp\cc58XARK.s:351    .text.json_get_next_object:00000000000000de .LVL42
C:\Users\stapi\AppData\Local\Temp\cc58XARK.s:363    .text.json_get_next_object:00000000000000ee .LVL43
C:\Users\stapi\AppData\Local\Temp\cc58XARK.s:375    .text.json_get_next_object:00000000000000f6 .LVL46
C:\Users\stapi\AppData\Local\Temp\cc58XARK.s:417    .text.json_get_next_object:0000000000000128 .LVL51
C:\Users\stapi\AppData\Local\Temp\cc58XARK.s:486    .text.json_get_next_object:00000000000001b2 .LVL60
C:\Users\stapi\AppData\Local\Temp\cc58XARK.s:584    .text.json_get_next_object:0000000000000228 .LVL66
C:\Users\stapi\AppData\Local\Temp\cc58XARK.s:589    .text.json_get_next_object:000000000000022a .LVL67
C:\Users\stapi\AppData\Local\Temp\cc58XARK.s:253    .text.json_get_next_object:000000000000007c .LVL25
C:\Users\stapi\AppData\Local\Temp\cc58XARK.s:276    .text.json_get_next_object:00000000000000a2 .LVL28
C:\Users\stapi\AppData\Local\Temp\cc58XARK.s:554    .text.json_get_next_object:0000000000000212 .LVL63
C:\Users\stapi\AppData\Local\Temp\cc58XARK.s:552    .text.json_get_next_object:000000000000020e .LVL62
C:\Users\stapi\AppData\Local\Temp\cc58XARK.s:631    .text.json_get_next_object:000000000000025e .LVL70
C:\Users\stapi\AppData\Local\Temp\cc58XARK.s:635    .text.json_get_next_object:0000000000000260 .LVL71
C:\Users\stapi\AppData\Local\Temp\cc58XARK.s:663    .text.json_get_next_object:000000000000027e .LVL74
C:\Users\stapi\AppData\Local\Temp\cc58XARK.s:236    .text.json_get_next_object:0000000000000060 .LVL22
C:\Users\stapi\AppData\Local\Temp\cc58XARK.s:286    .text.json_get_next_object:00000000000000a8 .LVL30
C:\Users\stapi\AppData\Local\Temp\cc58XARK.s:325    .text.json_get_next_object:00000000000000cc .LVL36
C:\Users\stapi\AppData\Local\Temp\cc58XARK.s:330    .text.json_get_next_object:00000000000000d0 .LVL37
C:\Users\stapi\AppData\Local\Temp\cc58XARK.s:343    .text.json_get_next_object:00000000000000d8 .LVL40
C:\Users\stapi\AppData\Local\Temp\cc58XARK.s:348    .text.json_get_next_object:00000000000000dc .LVL41
C:\Users\stapi\AppData\Local\Temp\cc58XARK.s:367    .text.json_get_next_object:00000000000000f0 .LVL44
C:\Users\stapi\AppData\Local\Temp\cc58XARK.s:372    .text.json_get_next_object:00000000000000f4 .LVL45
C:\Users\stapi\AppData\Local\Temp\cc58XARK.s:244    .text.json_get_next_object:0000000000000070 .LVL24
C:\Users\stapi\AppData\Local\Temp\cc58XARK.s:385    .text.json_get_next_object:0000000000000106 .LVL47
C:\Users\stapi\AppData\Local\Temp\cc58XARK.s:388    .text.json_get_next_object:0000000000000108 .LVL48
C:\Users\stapi\AppData\Local\Temp\cc58XARK.s:437    .text.json_get_next_object:0000000000000152 .LVL53
C:\Users\stapi\AppData\Local\Temp\cc58XARK.s:455    .text.json_get_next_object:0000000000000176 .LVL56
C:\Users\stapi\AppData\Local\Temp\cc58XARK.s:468    .text.json_get_next_object:000000000000018e .LVL57
C:\Users\stapi\AppData\Local\Temp\cc58XARK.s:90     .text.json_get_object:0000000000000000 .LVL8
C:\Users\stapi\AppData\Local\Temp\cc58XARK.s:139    .text.json_get_object:0000000000000032 .LVL14
C:\Users\stapi\AppData\Local\Temp\cc58XARK.s:110    .text.json_get_object:0000000000000018 .LVL10
C:\Users\stapi\AppData\Local\Temp\cc58XARK.s:112    .text.json_get_object:000000000000001a .LVL11
C:\Users\stapi\AppData\Local\Temp\cc58XARK.s:135    .text.json_get_object:0000000000000030 .LVL13
C:\Users\stapi\AppData\Local\Temp\cc58XARK.s:997    .debug_info:0000000000000000 .Ldebug_info0

UNDEFINED SYMBOLS
__riscv_save_4
strncmp
__riscv_restore_4
__riscv_save_12
strchr
strlen
__riscv_restore_12
__riscv_save_6
__riscv_restore_6
__riscv_save_3
__riscv_restore_3
__riscv_save_2
__riscv_restore_2
