   1              		.file	"redirect_region.c"
   2              		.option nopic
   3              		.attribute arch, "rv32i2p0_m2p0_a2p0_f2p0_c2p0_b_p0p94"
   4              		.attribute unaligned_access, 0
   5              		.attribute stack_align, 16
   6              		.text
   7              	.Ltext0:
   8              		.cfi_sections	.debug_frame
   9              		.section	.rodata.redirect_msg_cb.str1.4,"aMS",@progbits,1
  10              		.align	2
  11              	.LC0:
  12 0000 5B696E66 		.string	"[inf] "
  12      5D2000
  13 0007 00       		.align	2
  14              	.LC1:
  15 0008 72656469 		.string	"redirect_msg_cb called"
  15      72656374 
  15      5F6D7367 
  15      5F636220 
  15      63616C6C 
  16 001f 00       		.align	2
  17              	.LC2:
  18 0020 0D0A00   		.string	"\r\n"
  19 0023 00       		.align	2
  20              	.LC3:
  21 0024 5B657272 		.string	"[err] "
  21      5D2000
  22 002b 00       		.align	2
  23              	.LC4:
  24 002c 70617261 		.string	"params error"
  24      6D732065 
  24      72726F72 
  24      00
  25 0039 000000   		.align	2
  26              	.LC5:
  27 003c 4576656E 		.string	"Event(%d)"
  27      74282564 
  27      2900
  28 0046 0000     		.align	2
  29              	.LC6:
  30 0048 646F206E 		.string	"do nothing"
  30      6F746869 
  30      6E6700
  31 0053 00       		.align	2
  32              	.LC7:
  33 0054 72656469 		.string	"redirect"
  33      72656374 
  33      00
  34 005d 000000   		.align	2
  35              	.LC8:
  36 0060 696400   		.string	"id"
  37 0063 00       		.align	2
  38              	.LC9:
  39 0064 69642070 		.string	"id parse error"
  39      61727365 
  39      20657272 
  39      6F7200
  40 0073 00       		.align	2
  41              	.LC10:
  42 0074 69643D25 		.string	"id=%d"
  42      6400
  43 007a 0000     		.align	2
  44              	.LC11:
  45 007c 70617261 		.string	"params.endpoint.mqtt.host"
  45      6D732E65 
  45      6E64706F 
  45      696E742E 
  45      6D717474 
  46 0096 0000     		.align	2
  47              	.LC12:
  48 0098 686F7374 		.string	"host err"
  48      20657272 
  48      00
  49 00a1 000000   		.align	2
  50              	.LC13:
  51 00a4 686F7374 		.string	"host=%s"
  51      3D257300 
  52              		.align	2
  53              	.LC14:
  54 00ac 70617261 		.string	"params.endpoint.mqtt.port"
  54      6D732E65 
  54      6E64706F 
  54      696E742E 
  54      6D717474 
  55 00c6 0000     		.align	2
  56              	.LC15:
  57 00c8 706F7274 		.string	"port err"
  57      20657272 
  57      00
  58 00d1 000000   		.align	2
  59              	.LC16:
  60 00d4 706F7274 		.string	"port=%s"
  60      3D257300 
  61              		.align	2
  62              	.LC17:
  63 00dc 6E6F206D 		.string	"no mem"
  63      656D00
  64 00e3 00       		.align	2
  65              	.LC18:
  66 00e4 25733A25 		.string	"%s:%d"
  66      6400
  67 00ea 0000     		.align	2
  68              	.LC19:
  69 00ec 72656469 		.string	"redirect parse error"
  69      72656374 
  69      20706172 
  69      73652065 
  69      72726F72 
  70              		.section	.text.redirect_msg_cb,"ax",@progbits
  71              		.align	1
  73              	redirect_msg_cb:
  74              	.LFB20:
  75              		.file 1 "C:/Users/stapi/OneDrive/Desktop/GD32VW553/V1_MQTT_OK/GD32VW55X_Wifi_BLE_SDK/GD32VW55x_REL
   1:C:/Users/stapi/OneDrive/Desktop/GD32VW553/V1_MQTT_OK/GD32VW55X_Wifi_BLE_SDK/GD32VW55x_RELEASE_V1.0.2/MSDK/cloud/alicloud/src/infra/system\redirect_region.c **** #ifdef MQTT_COMM_ENABLED
   2:C:/Users/stapi/OneDrive/Desktop/GD32VW553/V1_MQTT_OK/GD32VW55X_Wifi_BLE_SDK/GD32VW55x_RELEASE_V1.0.2/MSDK/cloud/alicloud/src/infra/system\redirect_region.c **** 
   3:C:/Users/stapi/OneDrive/Desktop/GD32VW553/V1_MQTT_OK/GD32VW55X_Wifi_BLE_SDK/GD32VW55x_RELEASE_V1.0.2/MSDK/cloud/alicloud/src/infra/system\redirect_region.c **** #include <stdlib.h>
   4:C:/Users/stapi/OneDrive/Desktop/GD32VW553/V1_MQTT_OK/GD32VW55X_Wifi_BLE_SDK/GD32VW55x_RELEASE_V1.0.2/MSDK/cloud/alicloud/src/infra/system\redirect_region.c **** #include <stdio.h>
   5:C:/Users/stapi/OneDrive/Desktop/GD32VW553/V1_MQTT_OK/GD32VW55X_Wifi_BLE_SDK/GD32VW55x_RELEASE_V1.0.2/MSDK/cloud/alicloud/src/infra/system\redirect_region.c **** #include <stddef.h>
   6:C:/Users/stapi/OneDrive/Desktop/GD32VW553/V1_MQTT_OK/GD32VW55X_Wifi_BLE_SDK/GD32VW55x_RELEASE_V1.0.2/MSDK/cloud/alicloud/src/infra/system\redirect_region.c **** #include "iot_import.h"
   7:C:/Users/stapi/OneDrive/Desktop/GD32VW553/V1_MQTT_OK/GD32VW55X_Wifi_BLE_SDK/GD32VW55x_RELEASE_V1.0.2/MSDK/cloud/alicloud/src/infra/system\redirect_region.c **** #include "iot_export.h"
   8:C:/Users/stapi/OneDrive/Desktop/GD32VW553/V1_MQTT_OK/GD32VW55X_Wifi_BLE_SDK/GD32VW55x_RELEASE_V1.0.2/MSDK/cloud/alicloud/src/infra/system\redirect_region.c **** 
   9:C:/Users/stapi/OneDrive/Desktop/GD32VW553/V1_MQTT_OK/GD32VW55X_Wifi_BLE_SDK/GD32VW55x_RELEASE_V1.0.2/MSDK/cloud/alicloud/src/infra/system\redirect_region.c **** #include "iotx_utils.h"
  10:C:/Users/stapi/OneDrive/Desktop/GD32VW553/V1_MQTT_OK/GD32VW55X_Wifi_BLE_SDK/GD32VW55x_RELEASE_V1.0.2/MSDK/cloud/alicloud/src/infra/system\redirect_region.c **** #include "iotx_log.h"
  11:C:/Users/stapi/OneDrive/Desktop/GD32VW553/V1_MQTT_OK/GD32VW55X_Wifi_BLE_SDK/GD32VW55x_RELEASE_V1.0.2/MSDK/cloud/alicloud/src/infra/system\redirect_region.c **** #include "string_utils.h"
  12:C:/Users/stapi/OneDrive/Desktop/GD32VW553/V1_MQTT_OK/GD32VW55X_Wifi_BLE_SDK/GD32VW55x_RELEASE_V1.0.2/MSDK/cloud/alicloud/src/infra/system\redirect_region.c **** #include "iotx_mqtt_config.h"
  13:C:/Users/stapi/OneDrive/Desktop/GD32VW553/V1_MQTT_OK/GD32VW55X_Wifi_BLE_SDK/GD32VW55x_RELEASE_V1.0.2/MSDK/cloud/alicloud/src/infra/system\redirect_region.c **** #include "iotx_system_internal.h"
  14:C:/Users/stapi/OneDrive/Desktop/GD32VW553/V1_MQTT_OK/GD32VW55X_Wifi_BLE_SDK/GD32VW55x_RELEASE_V1.0.2/MSDK/cloud/alicloud/src/infra/system\redirect_region.c **** 
  15:C:/Users/stapi/OneDrive/Desktop/GD32VW553/V1_MQTT_OK/GD32VW55X_Wifi_BLE_SDK/GD32VW55x_RELEASE_V1.0.2/MSDK/cloud/alicloud/src/infra/system\redirect_region.c **** static int redirect_region_retry_cnt = 0;
  16:C:/Users/stapi/OneDrive/Desktop/GD32VW553/V1_MQTT_OK/GD32VW55X_Wifi_BLE_SDK/GD32VW55x_RELEASE_V1.0.2/MSDK/cloud/alicloud/src/infra/system\redirect_region.c **** 
  17:C:/Users/stapi/OneDrive/Desktop/GD32VW553/V1_MQTT_OK/GD32VW55X_Wifi_BLE_SDK/GD32VW55x_RELEASE_V1.0.2/MSDK/cloud/alicloud/src/infra/system\redirect_region.c **** //#define REDIRECT_DEBUG
  18:C:/Users/stapi/OneDrive/Desktop/GD32VW553/V1_MQTT_OK/GD32VW55X_Wifi_BLE_SDK/GD32VW55x_RELEASE_V1.0.2/MSDK/cloud/alicloud/src/infra/system\redirect_region.c **** //#define REDIRECT_DEBUG_TOPIC
  19:C:/Users/stapi/OneDrive/Desktop/GD32VW553/V1_MQTT_OK/GD32VW55X_Wifi_BLE_SDK/GD32VW55x_RELEASE_V1.0.2/MSDK/cloud/alicloud/src/infra/system\redirect_region.c **** 
  20:C:/Users/stapi/OneDrive/Desktop/GD32VW553/V1_MQTT_OK/GD32VW55X_Wifi_BLE_SDK/GD32VW55x_RELEASE_V1.0.2/MSDK/cloud/alicloud/src/infra/system\redirect_region.c **** #define TOPIC_LENGTH (128)
  21:C:/Users/stapi/OneDrive/Desktop/GD32VW553/V1_MQTT_OK/GD32VW55X_Wifi_BLE_SDK/GD32VW55x_RELEASE_V1.0.2/MSDK/cloud/alicloud/src/infra/system\redirect_region.c **** #define DATA_LENGTH (48)
  22:C:/Users/stapi/OneDrive/Desktop/GD32VW553/V1_MQTT_OK/GD32VW55X_Wifi_BLE_SDK/GD32VW55x_RELEASE_V1.0.2/MSDK/cloud/alicloud/src/infra/system\redirect_region.c **** #define REDIRECT_IOT_ID_LEN (128)
  23:C:/Users/stapi/OneDrive/Desktop/GD32VW553/V1_MQTT_OK/GD32VW55X_Wifi_BLE_SDK/GD32VW55x_RELEASE_V1.0.2/MSDK/cloud/alicloud/src/infra/system\redirect_region.c **** #define REDIRECT_IOT_TOKEN_LEN (64)
  24:C:/Users/stapi/OneDrive/Desktop/GD32VW553/V1_MQTT_OK/GD32VW55X_Wifi_BLE_SDK/GD32VW55x_RELEASE_V1.0.2/MSDK/cloud/alicloud/src/infra/system\redirect_region.c **** #define REDIRECT_MAX_RETRY_CNT (3)
  25:C:/Users/stapi/OneDrive/Desktop/GD32VW553/V1_MQTT_OK/GD32VW55X_Wifi_BLE_SDK/GD32VW55x_RELEASE_V1.0.2/MSDK/cloud/alicloud/src/infra/system\redirect_region.c **** 
  26:C:/Users/stapi/OneDrive/Desktop/GD32VW553/V1_MQTT_OK/GD32VW55X_Wifi_BLE_SDK/GD32VW55x_RELEASE_V1.0.2/MSDK/cloud/alicloud/src/infra/system\redirect_region.c **** #ifdef REDIRECT_DEBUG_TOPIC
  27:C:/Users/stapi/OneDrive/Desktop/GD32VW553/V1_MQTT_OK/GD32VW55X_Wifi_BLE_SDK/GD32VW55x_RELEASE_V1.0.2/MSDK/cloud/alicloud/src/infra/system\redirect_region.c **** #define REDIRECT_SUB_TOPIC "/%s/%s/user/thing/bootstrap/config/push"
  28:C:/Users/stapi/OneDrive/Desktop/GD32VW553/V1_MQTT_OK/GD32VW55X_Wifi_BLE_SDK/GD32VW55x_RELEASE_V1.0.2/MSDK/cloud/alicloud/src/infra/system\redirect_region.c **** #define REDIRECT_PUB_TOPIC "/%s/%s/user/thing/bootstrap/config/push_reply"
  29:C:/Users/stapi/OneDrive/Desktop/GD32VW553/V1_MQTT_OK/GD32VW55X_Wifi_BLE_SDK/GD32VW55x_RELEASE_V1.0.2/MSDK/cloud/alicloud/src/infra/system\redirect_region.c **** #define RECONNECT_SUB_TOPIC "/%s/%s/user/thing/bootstrap/notify"
  30:C:/Users/stapi/OneDrive/Desktop/GD32VW553/V1_MQTT_OK/GD32VW55X_Wifi_BLE_SDK/GD32VW55x_RELEASE_V1.0.2/MSDK/cloud/alicloud/src/infra/system\redirect_region.c **** #define RECONNECT_PUB_TOPIC "/%s/%s/user/thing/bootstrap/notify_reply"
  31:C:/Users/stapi/OneDrive/Desktop/GD32VW553/V1_MQTT_OK/GD32VW55X_Wifi_BLE_SDK/GD32VW55x_RELEASE_V1.0.2/MSDK/cloud/alicloud/src/infra/system\redirect_region.c **** #else
  32:C:/Users/stapi/OneDrive/Desktop/GD32VW553/V1_MQTT_OK/GD32VW55X_Wifi_BLE_SDK/GD32VW55x_RELEASE_V1.0.2/MSDK/cloud/alicloud/src/infra/system\redirect_region.c **** #define REDIRECT_SUB_TOPIC "/sys/%s/%s/thing/bootstrap/config/push"
  33:C:/Users/stapi/OneDrive/Desktop/GD32VW553/V1_MQTT_OK/GD32VW55X_Wifi_BLE_SDK/GD32VW55x_RELEASE_V1.0.2/MSDK/cloud/alicloud/src/infra/system\redirect_region.c **** #define REDIRECT_PUB_TOPIC "/sys/%s/%s/thing/bootstrap/config/push_reply"
  34:C:/Users/stapi/OneDrive/Desktop/GD32VW553/V1_MQTT_OK/GD32VW55X_Wifi_BLE_SDK/GD32VW55x_RELEASE_V1.0.2/MSDK/cloud/alicloud/src/infra/system\redirect_region.c **** #define RECONNECT_SUB_TOPIC "/sys/%s/%s/thing/bootstrap/notify"
  35:C:/Users/stapi/OneDrive/Desktop/GD32VW553/V1_MQTT_OK/GD32VW55X_Wifi_BLE_SDK/GD32VW55x_RELEASE_V1.0.2/MSDK/cloud/alicloud/src/infra/system\redirect_region.c **** #define RECONNECT_PUB_TOPIC "/sys/%s/%s/thing/bootstrap/notify_reply"
  36:C:/Users/stapi/OneDrive/Desktop/GD32VW553/V1_MQTT_OK/GD32VW55X_Wifi_BLE_SDK/GD32VW55x_RELEASE_V1.0.2/MSDK/cloud/alicloud/src/infra/system\redirect_region.c **** #endif
  37:C:/Users/stapi/OneDrive/Desktop/GD32VW553/V1_MQTT_OK/GD32VW55X_Wifi_BLE_SDK/GD32VW55x_RELEASE_V1.0.2/MSDK/cloud/alicloud/src/infra/system\redirect_region.c **** #define REDIRECT_MSG_ID "id"
  38:C:/Users/stapi/OneDrive/Desktop/GD32VW553/V1_MQTT_OK/GD32VW55X_Wifi_BLE_SDK/GD32VW55x_RELEASE_V1.0.2/MSDK/cloud/alicloud/src/infra/system\redirect_region.c **** #define REDIRECT_MSG_HOST "params.endpoint.mqtt.host"
  39:C:/Users/stapi/OneDrive/Desktop/GD32VW553/V1_MQTT_OK/GD32VW55X_Wifi_BLE_SDK/GD32VW55x_RELEASE_V1.0.2/MSDK/cloud/alicloud/src/infra/system\redirect_region.c **** #define REDIRECT_MSG_PORT "params.endpoint.mqtt.port"
  40:C:/Users/stapi/OneDrive/Desktop/GD32VW553/V1_MQTT_OK/GD32VW55X_Wifi_BLE_SDK/GD32VW55x_RELEASE_V1.0.2/MSDK/cloud/alicloud/src/infra/system\redirect_region.c **** 
  41:C:/Users/stapi/OneDrive/Desktop/GD32VW553/V1_MQTT_OK/GD32VW55X_Wifi_BLE_SDK/GD32VW55x_RELEASE_V1.0.2/MSDK/cloud/alicloud/src/infra/system\redirect_region.c **** #define RECONNECT_MSG_METHOD "method"
  42:C:/Users/stapi/OneDrive/Desktop/GD32VW553/V1_MQTT_OK/GD32VW55X_Wifi_BLE_SDK/GD32VW55x_RELEASE_V1.0.2/MSDK/cloud/alicloud/src/infra/system\redirect_region.c **** #define RECONNECT_METHOD "thing.bootstrap.notify"
  43:C:/Users/stapi/OneDrive/Desktop/GD32VW553/V1_MQTT_OK/GD32VW55X_Wifi_BLE_SDK/GD32VW55x_RELEASE_V1.0.2/MSDK/cloud/alicloud/src/infra/system\redirect_region.c **** 
  44:C:/Users/stapi/OneDrive/Desktop/GD32VW553/V1_MQTT_OK/GD32VW55X_Wifi_BLE_SDK/GD32VW55x_RELEASE_V1.0.2/MSDK/cloud/alicloud/src/infra/system\redirect_region.c **** #define RECONNECT_MSG_PARAM_CMD "params.cmd"
  45:C:/Users/stapi/OneDrive/Desktop/GD32VW553/V1_MQTT_OK/GD32VW55X_Wifi_BLE_SDK/GD32VW55x_RELEASE_V1.0.2/MSDK/cloud/alicloud/src/infra/system\redirect_region.c **** #define RECONNECT_CMD_RECONNECT "0"
  46:C:/Users/stapi/OneDrive/Desktop/GD32VW553/V1_MQTT_OK/GD32VW55X_Wifi_BLE_SDK/GD32VW55x_RELEASE_V1.0.2/MSDK/cloud/alicloud/src/infra/system\redirect_region.c **** 
  47:C:/Users/stapi/OneDrive/Desktop/GD32VW553/V1_MQTT_OK/GD32VW55X_Wifi_BLE_SDK/GD32VW55x_RELEASE_V1.0.2/MSDK/cloud/alicloud/src/infra/system\redirect_region.c **** #define PUB_DATA_STR "{\"id\":%d,\"code\":%d,\"data\":{}}"
  48:C:/Users/stapi/OneDrive/Desktop/GD32VW553/V1_MQTT_OK/GD32VW55X_Wifi_BLE_SDK/GD32VW55x_RELEASE_V1.0.2/MSDK/cloud/alicloud/src/infra/system\redirect_region.c **** 
  49:C:/Users/stapi/OneDrive/Desktop/GD32VW553/V1_MQTT_OK/GD32VW55X_Wifi_BLE_SDK/GD32VW55x_RELEASE_V1.0.2/MSDK/cloud/alicloud/src/infra/system\redirect_region.c **** #define redirect_err(...) log_err("redirect", __VA_ARGS__)
  50:C:/Users/stapi/OneDrive/Desktop/GD32VW553/V1_MQTT_OK/GD32VW55X_Wifi_BLE_SDK/GD32VW55x_RELEASE_V1.0.2/MSDK/cloud/alicloud/src/infra/system\redirect_region.c **** #define redirect_warn(...) log_warning("redirect", __VA_ARGS__)
  51:C:/Users/stapi/OneDrive/Desktop/GD32VW553/V1_MQTT_OK/GD32VW55X_Wifi_BLE_SDK/GD32VW55x_RELEASE_V1.0.2/MSDK/cloud/alicloud/src/infra/system\redirect_region.c **** //#ifdef REDIRECT_DEBUG
  52:C:/Users/stapi/OneDrive/Desktop/GD32VW553/V1_MQTT_OK/GD32VW55X_Wifi_BLE_SDK/GD32VW55x_RELEASE_V1.0.2/MSDK/cloud/alicloud/src/infra/system\redirect_region.c **** #define redirect_info(...) log_info("redirect", __VA_ARGS__)
  53:C:/Users/stapi/OneDrive/Desktop/GD32VW553/V1_MQTT_OK/GD32VW55X_Wifi_BLE_SDK/GD32VW55x_RELEASE_V1.0.2/MSDK/cloud/alicloud/src/infra/system\redirect_region.c **** // #else
  54:C:/Users/stapi/OneDrive/Desktop/GD32VW553/V1_MQTT_OK/GD32VW55X_Wifi_BLE_SDK/GD32VW55x_RELEASE_V1.0.2/MSDK/cloud/alicloud/src/infra/system\redirect_region.c **** // #define redirect_info(...)
  55:C:/Users/stapi/OneDrive/Desktop/GD32VW553/V1_MQTT_OK/GD32VW55X_Wifi_BLE_SDK/GD32VW55x_RELEASE_V1.0.2/MSDK/cloud/alicloud/src/infra/system\redirect_region.c **** // #endif
  56:C:/Users/stapi/OneDrive/Desktop/GD32VW553/V1_MQTT_OK/GD32VW55X_Wifi_BLE_SDK/GD32VW55x_RELEASE_V1.0.2/MSDK/cloud/alicloud/src/infra/system\redirect_region.c **** 
  57:C:/Users/stapi/OneDrive/Desktop/GD32VW553/V1_MQTT_OK/GD32VW55X_Wifi_BLE_SDK/GD32VW55x_RELEASE_V1.0.2/MSDK/cloud/alicloud/src/infra/system\redirect_region.c **** enum _response_code
  58:C:/Users/stapi/OneDrive/Desktop/GD32VW553/V1_MQTT_OK/GD32VW55X_Wifi_BLE_SDK/GD32VW55x_RELEASE_V1.0.2/MSDK/cloud/alicloud/src/infra/system\redirect_region.c **** {
  59:C:/Users/stapi/OneDrive/Desktop/GD32VW553/V1_MQTT_OK/GD32VW55X_Wifi_BLE_SDK/GD32VW55x_RELEASE_V1.0.2/MSDK/cloud/alicloud/src/infra/system\redirect_region.c ****     SUCCESS = 200,
  60:C:/Users/stapi/OneDrive/Desktop/GD32VW553/V1_MQTT_OK/GD32VW55X_Wifi_BLE_SDK/GD32VW55x_RELEASE_V1.0.2/MSDK/cloud/alicloud/src/infra/system\redirect_region.c ****     PARAM_ERROR = 2000,
  61:C:/Users/stapi/OneDrive/Desktop/GD32VW553/V1_MQTT_OK/GD32VW55X_Wifi_BLE_SDK/GD32VW55x_RELEASE_V1.0.2/MSDK/cloud/alicloud/src/infra/system\redirect_region.c ****     JSON_PARSE_ERROR
  62:C:/Users/stapi/OneDrive/Desktop/GD32VW553/V1_MQTT_OK/GD32VW55X_Wifi_BLE_SDK/GD32VW55x_RELEASE_V1.0.2/MSDK/cloud/alicloud/src/infra/system\redirect_region.c **** };
  63:C:/Users/stapi/OneDrive/Desktop/GD32VW553/V1_MQTT_OK/GD32VW55X_Wifi_BLE_SDK/GD32VW55x_RELEASE_V1.0.2/MSDK/cloud/alicloud/src/infra/system\redirect_region.c **** 
  64:C:/Users/stapi/OneDrive/Desktop/GD32VW553/V1_MQTT_OK/GD32VW55X_Wifi_BLE_SDK/GD32VW55x_RELEASE_V1.0.2/MSDK/cloud/alicloud/src/infra/system\redirect_region.c **** /*
  65:C:/Users/stapi/OneDrive/Desktop/GD32VW553/V1_MQTT_OK/GD32VW55X_Wifi_BLE_SDK/GD32VW55x_RELEASE_V1.0.2/MSDK/cloud/alicloud/src/infra/system\redirect_region.c **** static int _response_cloud(int id, int code)
  66:C:/Users/stapi/OneDrive/Desktop/GD32VW553/V1_MQTT_OK/GD32VW55X_Wifi_BLE_SDK/GD32VW55x_RELEASE_V1.0.2/MSDK/cloud/alicloud/src/infra/system\redirect_region.c **** {
  67:C:/Users/stapi/OneDrive/Desktop/GD32VW553/V1_MQTT_OK/GD32VW55X_Wifi_BLE_SDK/GD32VW55x_RELEASE_V1.0.2/MSDK/cloud/alicloud/src/infra/system\redirect_region.c ****     int ret = 0;
  68:C:/Users/stapi/OneDrive/Desktop/GD32VW553/V1_MQTT_OK/GD32VW55X_Wifi_BLE_SDK/GD32VW55x_RELEASE_V1.0.2/MSDK/cloud/alicloud/src/infra/system\redirect_region.c ****     char *p_topic = NULL;
  69:C:/Users/stapi/OneDrive/Desktop/GD32VW553/V1_MQTT_OK/GD32VW55X_Wifi_BLE_SDK/GD32VW55x_RELEASE_V1.0.2/MSDK/cloud/alicloud/src/infra/system\redirect_region.c ****     char data[DATA_LENGTH] = {0};
  70:C:/Users/stapi/OneDrive/Desktop/GD32VW553/V1_MQTT_OK/GD32VW55X_Wifi_BLE_SDK/GD32VW55x_RELEASE_V1.0.2/MSDK/cloud/alicloud/src/infra/system\redirect_region.c ****     iotx_device_info_t *p_device = NULL;
  71:C:/Users/stapi/OneDrive/Desktop/GD32VW553/V1_MQTT_OK/GD32VW55X_Wifi_BLE_SDK/GD32VW55x_RELEASE_V1.0.2/MSDK/cloud/alicloud/src/infra/system\redirect_region.c **** 
  72:C:/Users/stapi/OneDrive/Desktop/GD32VW553/V1_MQTT_OK/GD32VW55X_Wifi_BLE_SDK/GD32VW55x_RELEASE_V1.0.2/MSDK/cloud/alicloud/src/infra/system\redirect_region.c ****     p_device = LITE_malloc(sizeof(iotx_device_info_t));
  73:C:/Users/stapi/OneDrive/Desktop/GD32VW553/V1_MQTT_OK/GD32VW55X_Wifi_BLE_SDK/GD32VW55x_RELEASE_V1.0.2/MSDK/cloud/alicloud/src/infra/system\redirect_region.c ****     if (!p_device)
  74:C:/Users/stapi/OneDrive/Desktop/GD32VW553/V1_MQTT_OK/GD32VW55X_Wifi_BLE_SDK/GD32VW55x_RELEASE_V1.0.2/MSDK/cloud/alicloud/src/infra/system\redirect_region.c ****     {
  75:C:/Users/stapi/OneDrive/Desktop/GD32VW553/V1_MQTT_OK/GD32VW55X_Wifi_BLE_SDK/GD32VW55x_RELEASE_V1.0.2/MSDK/cloud/alicloud/src/infra/system\redirect_region.c ****         redirect_err("no mem");
  76:C:/Users/stapi/OneDrive/Desktop/GD32VW553/V1_MQTT_OK/GD32VW55X_Wifi_BLE_SDK/GD32VW55x_RELEASE_V1.0.2/MSDK/cloud/alicloud/src/infra/system\redirect_region.c ****         goto ERROR;
  77:C:/Users/stapi/OneDrive/Desktop/GD32VW553/V1_MQTT_OK/GD32VW55X_Wifi_BLE_SDK/GD32VW55x_RELEASE_V1.0.2/MSDK/cloud/alicloud/src/infra/system\redirect_region.c ****     }
  78:C:/Users/stapi/OneDrive/Desktop/GD32VW553/V1_MQTT_OK/GD32VW55X_Wifi_BLE_SDK/GD32VW55x_RELEASE_V1.0.2/MSDK/cloud/alicloud/src/infra/system\redirect_region.c **** 
  79:C:/Users/stapi/OneDrive/Desktop/GD32VW553/V1_MQTT_OK/GD32VW55X_Wifi_BLE_SDK/GD32VW55x_RELEASE_V1.0.2/MSDK/cloud/alicloud/src/infra/system\redirect_region.c ****     ret = iotx_device_info_get(p_device);
  80:C:/Users/stapi/OneDrive/Desktop/GD32VW553/V1_MQTT_OK/GD32VW55X_Wifi_BLE_SDK/GD32VW55x_RELEASE_V1.0.2/MSDK/cloud/alicloud/src/infra/system\redirect_region.c ****     if (ret < 0)
  81:C:/Users/stapi/OneDrive/Desktop/GD32VW553/V1_MQTT_OK/GD32VW55X_Wifi_BLE_SDK/GD32VW55x_RELEASE_V1.0.2/MSDK/cloud/alicloud/src/infra/system\redirect_region.c ****     {
  82:C:/Users/stapi/OneDrive/Desktop/GD32VW553/V1_MQTT_OK/GD32VW55X_Wifi_BLE_SDK/GD32VW55x_RELEASE_V1.0.2/MSDK/cloud/alicloud/src/infra/system\redirect_region.c ****         redirect_err("get device info err");
  83:C:/Users/stapi/OneDrive/Desktop/GD32VW553/V1_MQTT_OK/GD32VW55X_Wifi_BLE_SDK/GD32VW55x_RELEASE_V1.0.2/MSDK/cloud/alicloud/src/infra/system\redirect_region.c ****         goto ERROR;
  84:C:/Users/stapi/OneDrive/Desktop/GD32VW553/V1_MQTT_OK/GD32VW55X_Wifi_BLE_SDK/GD32VW55x_RELEASE_V1.0.2/MSDK/cloud/alicloud/src/infra/system\redirect_region.c ****     }
  85:C:/Users/stapi/OneDrive/Desktop/GD32VW553/V1_MQTT_OK/GD32VW55X_Wifi_BLE_SDK/GD32VW55x_RELEASE_V1.0.2/MSDK/cloud/alicloud/src/infra/system\redirect_region.c **** 
  86:C:/Users/stapi/OneDrive/Desktop/GD32VW553/V1_MQTT_OK/GD32VW55X_Wifi_BLE_SDK/GD32VW55x_RELEASE_V1.0.2/MSDK/cloud/alicloud/src/infra/system\redirect_region.c ****     p_topic = LITE_malloc(TOPIC_LENGTH);
  87:C:/Users/stapi/OneDrive/Desktop/GD32VW553/V1_MQTT_OK/GD32VW55X_Wifi_BLE_SDK/GD32VW55x_RELEASE_V1.0.2/MSDK/cloud/alicloud/src/infra/system\redirect_region.c ****     if (!p_topic)
  88:C:/Users/stapi/OneDrive/Desktop/GD32VW553/V1_MQTT_OK/GD32VW55X_Wifi_BLE_SDK/GD32VW55x_RELEASE_V1.0.2/MSDK/cloud/alicloud/src/infra/system\redirect_region.c ****     {
  89:C:/Users/stapi/OneDrive/Desktop/GD32VW553/V1_MQTT_OK/GD32VW55X_Wifi_BLE_SDK/GD32VW55x_RELEASE_V1.0.2/MSDK/cloud/alicloud/src/infra/system\redirect_region.c ****         redirect_err("no mem");
  90:C:/Users/stapi/OneDrive/Desktop/GD32VW553/V1_MQTT_OK/GD32VW55X_Wifi_BLE_SDK/GD32VW55x_RELEASE_V1.0.2/MSDK/cloud/alicloud/src/infra/system\redirect_region.c ****         goto ERROR;
  91:C:/Users/stapi/OneDrive/Desktop/GD32VW553/V1_MQTT_OK/GD32VW55X_Wifi_BLE_SDK/GD32VW55x_RELEASE_V1.0.2/MSDK/cloud/alicloud/src/infra/system\redirect_region.c ****     }
  92:C:/Users/stapi/OneDrive/Desktop/GD32VW553/V1_MQTT_OK/GD32VW55X_Wifi_BLE_SDK/GD32VW55x_RELEASE_V1.0.2/MSDK/cloud/alicloud/src/infra/system\redirect_region.c **** 
  93:C:/Users/stapi/OneDrive/Desktop/GD32VW553/V1_MQTT_OK/GD32VW55X_Wifi_BLE_SDK/GD32VW55x_RELEASE_V1.0.2/MSDK/cloud/alicloud/src/infra/system\redirect_region.c ****     memset(p_topic, 0, TOPIC_LENGTH);
  94:C:/Users/stapi/OneDrive/Desktop/GD32VW553/V1_MQTT_OK/GD32VW55X_Wifi_BLE_SDK/GD32VW55x_RELEASE_V1.0.2/MSDK/cloud/alicloud/src/infra/system\redirect_region.c ****     snprintf(p_topic, TOPIC_LENGTH, REDIRECT_PUB_TOPIC, p_device->product_key, p_device->device_nam
  95:C:/Users/stapi/OneDrive/Desktop/GD32VW553/V1_MQTT_OK/GD32VW55X_Wifi_BLE_SDK/GD32VW55x_RELEASE_V1.0.2/MSDK/cloud/alicloud/src/infra/system\redirect_region.c ****     redirect_info("pub p_topic:%s", p_topic);
  96:C:/Users/stapi/OneDrive/Desktop/GD32VW553/V1_MQTT_OK/GD32VW55X_Wifi_BLE_SDK/GD32VW55x_RELEASE_V1.0.2/MSDK/cloud/alicloud/src/infra/system\redirect_region.c **** 
  97:C:/Users/stapi/OneDrive/Desktop/GD32VW553/V1_MQTT_OK/GD32VW55X_Wifi_BLE_SDK/GD32VW55x_RELEASE_V1.0.2/MSDK/cloud/alicloud/src/infra/system\redirect_region.c ****     memset(data, 0, DATA_LENGTH);
  98:C:/Users/stapi/OneDrive/Desktop/GD32VW553/V1_MQTT_OK/GD32VW55X_Wifi_BLE_SDK/GD32VW55x_RELEASE_V1.0.2/MSDK/cloud/alicloud/src/infra/system\redirect_region.c ****     snprintf(data, DATA_LENGTH, PUB_DATA_STR, id, code);
  99:C:/Users/stapi/OneDrive/Desktop/GD32VW553/V1_MQTT_OK/GD32VW55X_Wifi_BLE_SDK/GD32VW55x_RELEASE_V1.0.2/MSDK/cloud/alicloud/src/infra/system\redirect_region.c **** 
 100:C:/Users/stapi/OneDrive/Desktop/GD32VW553/V1_MQTT_OK/GD32VW55X_Wifi_BLE_SDK/GD32VW55x_RELEASE_V1.0.2/MSDK/cloud/alicloud/src/infra/system\redirect_region.c ****     ret = IOT_MQTT_Publish_Simple(NULL, p_topic, IOTX_MQTT_QOS1, data, strlen(data));
 101:C:/Users/stapi/OneDrive/Desktop/GD32VW553/V1_MQTT_OK/GD32VW55X_Wifi_BLE_SDK/GD32VW55x_RELEASE_V1.0.2/MSDK/cloud/alicloud/src/infra/system\redirect_region.c **** ERROR:
 102:C:/Users/stapi/OneDrive/Desktop/GD32VW553/V1_MQTT_OK/GD32VW55X_Wifi_BLE_SDK/GD32VW55x_RELEASE_V1.0.2/MSDK/cloud/alicloud/src/infra/system\redirect_region.c ****     if (p_topic)
 103:C:/Users/stapi/OneDrive/Desktop/GD32VW553/V1_MQTT_OK/GD32VW55X_Wifi_BLE_SDK/GD32VW55x_RELEASE_V1.0.2/MSDK/cloud/alicloud/src/infra/system\redirect_region.c ****         LITE_free(p_topic);
 104:C:/Users/stapi/OneDrive/Desktop/GD32VW553/V1_MQTT_OK/GD32VW55X_Wifi_BLE_SDK/GD32VW55x_RELEASE_V1.0.2/MSDK/cloud/alicloud/src/infra/system\redirect_region.c ****     if (p_device)
 105:C:/Users/stapi/OneDrive/Desktop/GD32VW553/V1_MQTT_OK/GD32VW55X_Wifi_BLE_SDK/GD32VW55x_RELEASE_V1.0.2/MSDK/cloud/alicloud/src/infra/system\redirect_region.c ****         LITE_free(p_device);
 106:C:/Users/stapi/OneDrive/Desktop/GD32VW553/V1_MQTT_OK/GD32VW55X_Wifi_BLE_SDK/GD32VW55x_RELEASE_V1.0.2/MSDK/cloud/alicloud/src/infra/system\redirect_region.c **** 
 107:C:/Users/stapi/OneDrive/Desktop/GD32VW553/V1_MQTT_OK/GD32VW55X_Wifi_BLE_SDK/GD32VW55x_RELEASE_V1.0.2/MSDK/cloud/alicloud/src/infra/system\redirect_region.c ****     return ret;
 108:C:/Users/stapi/OneDrive/Desktop/GD32VW553/V1_MQTT_OK/GD32VW55X_Wifi_BLE_SDK/GD32VW55x_RELEASE_V1.0.2/MSDK/cloud/alicloud/src/infra/system\redirect_region.c **** }
 109:C:/Users/stapi/OneDrive/Desktop/GD32VW553/V1_MQTT_OK/GD32VW55X_Wifi_BLE_SDK/GD32VW55x_RELEASE_V1.0.2/MSDK/cloud/alicloud/src/infra/system\redirect_region.c **** */
 110:C:/Users/stapi/OneDrive/Desktop/GD32VW553/V1_MQTT_OK/GD32VW55X_Wifi_BLE_SDK/GD32VW55x_RELEASE_V1.0.2/MSDK/cloud/alicloud/src/infra/system\redirect_region.c **** static void redirect_msg_cb(void *pcontext, void *pclient, iotx_mqtt_event_msg_pt msg)
 111:C:/Users/stapi/OneDrive/Desktop/GD32VW553/V1_MQTT_OK/GD32VW55X_Wifi_BLE_SDK/GD32VW55x_RELEASE_V1.0.2/MSDK/cloud/alicloud/src/infra/system\redirect_region.c **** {
  76              		.loc 1 111 1
  77              		.cfi_startproc
  78              	.LVL0:
  79 0000 17030000 		call	t0,__riscv_save_8
  79      E7020300 
  80              		.cfi_offset 23, -36
  81              		.cfi_offset 22, -32
  82              		.cfi_offset 21, -28
  83              		.cfi_offset 20, -24
  84              		.cfi_offset 19, -20
  85              		.cfi_offset 18, -16
  86              		.cfi_offset 9, -12
  87              		.cfi_offset 8, -8
  88              		.cfi_offset 1, -4
  89              		.cfi_def_cfa_offset 48
 112:C:/Users/stapi/OneDrive/Desktop/GD32VW553/V1_MQTT_OK/GD32VW55X_Wifi_BLE_SDK/GD32VW55x_RELEASE_V1.0.2/MSDK/cloud/alicloud/src/infra/system\redirect_region.c ****     int id = 0;
  90              		.loc 1 112 5
  91              	.LVL1:
 113:C:/Users/stapi/OneDrive/Desktop/GD32VW553/V1_MQTT_OK/GD32VW55X_Wifi_BLE_SDK/GD32VW55x_RELEASE_V1.0.2/MSDK/cloud/alicloud/src/infra/system\redirect_region.c ****     char *id_str = NULL;
  92              		.loc 1 113 5
 114:C:/Users/stapi/OneDrive/Desktop/GD32VW553/V1_MQTT_OK/GD32VW55X_Wifi_BLE_SDK/GD32VW55x_RELEASE_V1.0.2/MSDK/cloud/alicloud/src/infra/system\redirect_region.c ****     int code = 200;
  93              		.loc 1 114 5
 115:C:/Users/stapi/OneDrive/Desktop/GD32VW553/V1_MQTT_OK/GD32VW55X_Wifi_BLE_SDK/GD32VW55x_RELEASE_V1.0.2/MSDK/cloud/alicloud/src/infra/system\redirect_region.c ****     iotx_mqtt_topic_info_pt ptopic_info = NULL;
  94              		.loc 1 115 5
 116:C:/Users/stapi/OneDrive/Desktop/GD32VW553/V1_MQTT_OK/GD32VW55X_Wifi_BLE_SDK/GD32VW55x_RELEASE_V1.0.2/MSDK/cloud/alicloud/src/infra/system\redirect_region.c **** 
 117:C:/Users/stapi/OneDrive/Desktop/GD32VW553/V1_MQTT_OK/GD32VW55X_Wifi_BLE_SDK/GD32VW55x_RELEASE_V1.0.2/MSDK/cloud/alicloud/src/infra/system\redirect_region.c ****     int port = -1;
  95              		.loc 1 117 5
 118:C:/Users/stapi/OneDrive/Desktop/GD32VW553/V1_MQTT_OK/GD32VW55X_Wifi_BLE_SDK/GD32VW55x_RELEASE_V1.0.2/MSDK/cloud/alicloud/src/infra/system\redirect_region.c ****     char *port_str = NULL;
  96              		.loc 1 118 5
 119:C:/Users/stapi/OneDrive/Desktop/GD32VW553/V1_MQTT_OK/GD32VW55X_Wifi_BLE_SDK/GD32VW55x_RELEASE_V1.0.2/MSDK/cloud/alicloud/src/infra/system\redirect_region.c ****     char *host = NULL;
  97              		.loc 1 119 5
 120:C:/Users/stapi/OneDrive/Desktop/GD32VW553/V1_MQTT_OK/GD32VW55X_Wifi_BLE_SDK/GD32VW55x_RELEASE_V1.0.2/MSDK/cloud/alicloud/src/infra/system\redirect_region.c ****     char *payload = NULL;
  98              		.loc 1 120 5
 121:C:/Users/stapi/OneDrive/Desktop/GD32VW553/V1_MQTT_OK/GD32VW55X_Wifi_BLE_SDK/GD32VW55x_RELEASE_V1.0.2/MSDK/cloud/alicloud/src/infra/system\redirect_region.c ****     void *callback = NULL;
  99              		.loc 1 121 5
 122:C:/Users/stapi/OneDrive/Desktop/GD32VW553/V1_MQTT_OK/GD32VW55X_Wifi_BLE_SDK/GD32VW55x_RELEASE_V1.0.2/MSDK/cloud/alicloud/src/infra/system\redirect_region.c ****     char *p_mqtt_url = NULL;
 100              		.loc 1 122 5
 123:C:/Users/stapi/OneDrive/Desktop/GD32VW553/V1_MQTT_OK/GD32VW55X_Wifi_BLE_SDK/GD32VW55x_RELEASE_V1.0.2/MSDK/cloud/alicloud/src/infra/system\redirect_region.c **** 
 124:C:/Users/stapi/OneDrive/Desktop/GD32VW553/V1_MQTT_OK/GD32VW55X_Wifi_BLE_SDK/GD32VW55x_RELEASE_V1.0.2/MSDK/cloud/alicloud/src/infra/system\redirect_region.c ****     redirect_info("redirect_msg_cb called");
 101              		.loc 1 124 5
 102              		.loc 1 124 5
 103 0008 B70A0000 		lui	s5,%hi(.LC0)
 111:C:/Users/stapi/OneDrive/Desktop/GD32VW553/V1_MQTT_OK/GD32VW55X_Wifi_BLE_SDK/GD32VW55x_RELEASE_V1.0.2/MSDK/cloud/alicloud/src/infra/system\redirect_region.c ****     int id = 0;
 104              		.loc 1 111 1 is_stmt 0
 105 000c 4111     		addi	sp,sp,-16
 106              		.cfi_def_cfa_offset 64
 107              		.loc 1 124 5
 108 000e 13850A00 		addi	a0,s5,%lo(.LC0)
 109              	.LVL2:
 111:C:/Users/stapi/OneDrive/Desktop/GD32VW553/V1_MQTT_OK/GD32VW55X_Wifi_BLE_SDK/GD32VW55x_RELEASE_V1.0.2/MSDK/cloud/alicloud/src/infra/system\redirect_region.c ****     int id = 0;
 110              		.loc 1 111 1
 111 0012 3284     		mv	s0,a2
 112              		.loc 1 124 5
 113 0014 97000000 		call	HAL_Printf
 113      E7800000 
 114              	.LVL3:
 115              		.loc 1 124 5 is_stmt 1
 116 001c 37050000 		lui	a0,%hi(.LC1)
 117 0020 13050500 		addi	a0,a0,%lo(.LC1)
 118 0024 97000000 		call	HAL_Printf
 118      E7800000 
 119              	.LVL4:
 120              		.loc 1 124 5
 121 002c 370A0000 		lui	s4,%hi(.LC2)
 122 0030 13050A00 		addi	a0,s4,%lo(.LC2)
 123 0034 97000000 		call	HAL_Printf
 123      E7800000 
 124              	.LVL5:
 125              		.loc 1 124 5
 125:C:/Users/stapi/OneDrive/Desktop/GD32VW553/V1_MQTT_OK/GD32VW55X_Wifi_BLE_SDK/GD32VW55x_RELEASE_V1.0.2/MSDK/cloud/alicloud/src/infra/system\redirect_region.c ****     if (msg == NULL)
 126              		.loc 1 125 5
 127 003c D284     		mv	s1,s4
 128              		.loc 1 125 8 is_stmt 0
 129 003e 25E4     		bne	s0,zero,.L2
 130              	.LVL6:
 131              	.L4:
 126:C:/Users/stapi/OneDrive/Desktop/GD32VW553/V1_MQTT_OK/GD32VW55X_Wifi_BLE_SDK/GD32VW55x_RELEASE_V1.0.2/MSDK/cloud/alicloud/src/infra/system\redirect_region.c ****     {
 127:C:/Users/stapi/OneDrive/Desktop/GD32VW553/V1_MQTT_OK/GD32VW55X_Wifi_BLE_SDK/GD32VW55x_RELEASE_V1.0.2/MSDK/cloud/alicloud/src/infra/system\redirect_region.c ****         redirect_err("params error");
 132              		.loc 1 127 9 is_stmt 1
 133              		.loc 1 127 9
 134 0040 37050000 		lui	a0,%hi(.LC3)
 135 0044 13050500 		addi	a0,a0,%lo(.LC3)
 136 0048 97000000 		call	HAL_Printf
 136      E7800000 
 137              	.LVL7:
 138              		.loc 1 127 9
 139 0050 37050000 		lui	a0,%hi(.LC4)
 140 0054 13050500 		addi	a0,a0,%lo(.LC4)
 141 0058 97000000 		call	HAL_Printf
 141      E7800000 
 142              	.LVL8:
 143              		.loc 1 127 9
 144 0060 13850400 		addi	a0,s1,%lo(.LC2)
 145 0064 97000000 		call	HAL_Printf
 145      E7800000 
 146              	.LVL9:
 147              		.loc 1 127 9
 128:C:/Users/stapi/OneDrive/Desktop/GD32VW553/V1_MQTT_OK/GD32VW55X_Wifi_BLE_SDK/GD32VW55x_RELEASE_V1.0.2/MSDK/cloud/alicloud/src/infra/system\redirect_region.c ****         code = PARAM_ERROR;
 148              		.loc 1 128 9
 129:C:/Users/stapi/OneDrive/Desktop/GD32VW553/V1_MQTT_OK/GD32VW55X_Wifi_BLE_SDK/GD32VW55x_RELEASE_V1.0.2/MSDK/cloud/alicloud/src/infra/system\redirect_region.c ****         goto ERROR;
 149              		.loc 1 129 9
 119:C:/Users/stapi/OneDrive/Desktop/GD32VW553/V1_MQTT_OK/GD32VW55X_Wifi_BLE_SDK/GD32VW55x_RELEASE_V1.0.2/MSDK/cloud/alicloud/src/infra/system\redirect_region.c ****     char *payload = NULL;
 150              		.loc 1 119 11 is_stmt 0
 151 006c 0144     		li	s0,0
 152              	.LVL10:
 113:C:/Users/stapi/OneDrive/Desktop/GD32VW553/V1_MQTT_OK/GD32VW55X_Wifi_BLE_SDK/GD32VW55x_RELEASE_V1.0.2/MSDK/cloud/alicloud/src/infra/system\redirect_region.c ****     int code = 200;
 153              		.loc 1 113 11
 154 006e 0149     		li	s2,0
 155              	.LVL11:
 156              	.L3:
 130:C:/Users/stapi/OneDrive/Desktop/GD32VW553/V1_MQTT_OK/GD32VW55X_Wifi_BLE_SDK/GD32VW55x_RELEASE_V1.0.2/MSDK/cloud/alicloud/src/infra/system\redirect_region.c ****     }
 131:C:/Users/stapi/OneDrive/Desktop/GD32VW553/V1_MQTT_OK/GD32VW55X_Wifi_BLE_SDK/GD32VW55x_RELEASE_V1.0.2/MSDK/cloud/alicloud/src/infra/system\redirect_region.c **** 
 132:C:/Users/stapi/OneDrive/Desktop/GD32VW553/V1_MQTT_OK/GD32VW55X_Wifi_BLE_SDK/GD32VW55x_RELEASE_V1.0.2/MSDK/cloud/alicloud/src/infra/system\redirect_region.c ****     ptopic_info = (iotx_mqtt_topic_info_pt)msg->msg;
 133:C:/Users/stapi/OneDrive/Desktop/GD32VW553/V1_MQTT_OK/GD32VW55X_Wifi_BLE_SDK/GD32VW55x_RELEASE_V1.0.2/MSDK/cloud/alicloud/src/infra/system\redirect_region.c **** 
 134:C:/Users/stapi/OneDrive/Desktop/GD32VW553/V1_MQTT_OK/GD32VW55X_Wifi_BLE_SDK/GD32VW55x_RELEASE_V1.0.2/MSDK/cloud/alicloud/src/infra/system\redirect_region.c ****     if (ptopic_info == NULL)
 135:C:/Users/stapi/OneDrive/Desktop/GD32VW553/V1_MQTT_OK/GD32VW55X_Wifi_BLE_SDK/GD32VW55x_RELEASE_V1.0.2/MSDK/cloud/alicloud/src/infra/system\redirect_region.c ****     {
 136:C:/Users/stapi/OneDrive/Desktop/GD32VW553/V1_MQTT_OK/GD32VW55X_Wifi_BLE_SDK/GD32VW55x_RELEASE_V1.0.2/MSDK/cloud/alicloud/src/infra/system\redirect_region.c ****         redirect_err("params error");
 137:C:/Users/stapi/OneDrive/Desktop/GD32VW553/V1_MQTT_OK/GD32VW55X_Wifi_BLE_SDK/GD32VW55x_RELEASE_V1.0.2/MSDK/cloud/alicloud/src/infra/system\redirect_region.c ****         code = PARAM_ERROR;
 138:C:/Users/stapi/OneDrive/Desktop/GD32VW553/V1_MQTT_OK/GD32VW55X_Wifi_BLE_SDK/GD32VW55x_RELEASE_V1.0.2/MSDK/cloud/alicloud/src/infra/system\redirect_region.c ****         goto ERROR;
 139:C:/Users/stapi/OneDrive/Desktop/GD32VW553/V1_MQTT_OK/GD32VW55X_Wifi_BLE_SDK/GD32VW55x_RELEASE_V1.0.2/MSDK/cloud/alicloud/src/infra/system\redirect_region.c ****     }
 140:C:/Users/stapi/OneDrive/Desktop/GD32VW553/V1_MQTT_OK/GD32VW55X_Wifi_BLE_SDK/GD32VW55x_RELEASE_V1.0.2/MSDK/cloud/alicloud/src/infra/system\redirect_region.c **** 
 141:C:/Users/stapi/OneDrive/Desktop/GD32VW553/V1_MQTT_OK/GD32VW55X_Wifi_BLE_SDK/GD32VW55x_RELEASE_V1.0.2/MSDK/cloud/alicloud/src/infra/system\redirect_region.c ****     payload = (char *)ptopic_info->payload;
 142:C:/Users/stapi/OneDrive/Desktop/GD32VW553/V1_MQTT_OK/GD32VW55X_Wifi_BLE_SDK/GD32VW55x_RELEASE_V1.0.2/MSDK/cloud/alicloud/src/infra/system\redirect_region.c ****     if (payload == NULL)
 143:C:/Users/stapi/OneDrive/Desktop/GD32VW553/V1_MQTT_OK/GD32VW55X_Wifi_BLE_SDK/GD32VW55x_RELEASE_V1.0.2/MSDK/cloud/alicloud/src/infra/system\redirect_region.c ****     {
 144:C:/Users/stapi/OneDrive/Desktop/GD32VW553/V1_MQTT_OK/GD32VW55X_Wifi_BLE_SDK/GD32VW55x_RELEASE_V1.0.2/MSDK/cloud/alicloud/src/infra/system\redirect_region.c ****         redirect_err("params error");
 145:C:/Users/stapi/OneDrive/Desktop/GD32VW553/V1_MQTT_OK/GD32VW55X_Wifi_BLE_SDK/GD32VW55x_RELEASE_V1.0.2/MSDK/cloud/alicloud/src/infra/system\redirect_region.c ****         goto ERROR;
 146:C:/Users/stapi/OneDrive/Desktop/GD32VW553/V1_MQTT_OK/GD32VW55X_Wifi_BLE_SDK/GD32VW55x_RELEASE_V1.0.2/MSDK/cloud/alicloud/src/infra/system\redirect_region.c ****     }
 147:C:/Users/stapi/OneDrive/Desktop/GD32VW553/V1_MQTT_OK/GD32VW55X_Wifi_BLE_SDK/GD32VW55x_RELEASE_V1.0.2/MSDK/cloud/alicloud/src/infra/system\redirect_region.c **** 
 148:C:/Users/stapi/OneDrive/Desktop/GD32VW553/V1_MQTT_OK/GD32VW55X_Wifi_BLE_SDK/GD32VW55x_RELEASE_V1.0.2/MSDK/cloud/alicloud/src/infra/system\redirect_region.c ****     // print topic name and topic message
 149:C:/Users/stapi/OneDrive/Desktop/GD32VW553/V1_MQTT_OK/GD32VW55X_Wifi_BLE_SDK/GD32VW55x_RELEASE_V1.0.2/MSDK/cloud/alicloud/src/infra/system\redirect_region.c ****     redirect_info("Event(%d)", msg->event_type);
 150:C:/Users/stapi/OneDrive/Desktop/GD32VW553/V1_MQTT_OK/GD32VW55X_Wifi_BLE_SDK/GD32VW55x_RELEASE_V1.0.2/MSDK/cloud/alicloud/src/infra/system\redirect_region.c ****     if (msg->event_type != IOTX_MQTT_EVENT_PUBLISH_RECEIVED)
 151:C:/Users/stapi/OneDrive/Desktop/GD32VW553/V1_MQTT_OK/GD32VW55X_Wifi_BLE_SDK/GD32VW55x_RELEASE_V1.0.2/MSDK/cloud/alicloud/src/infra/system\redirect_region.c ****     {
 152:C:/Users/stapi/OneDrive/Desktop/GD32VW553/V1_MQTT_OK/GD32VW55X_Wifi_BLE_SDK/GD32VW55x_RELEASE_V1.0.2/MSDK/cloud/alicloud/src/infra/system\redirect_region.c ****         redirect_info("do nothing");
 153:C:/Users/stapi/OneDrive/Desktop/GD32VW553/V1_MQTT_OK/GD32VW55X_Wifi_BLE_SDK/GD32VW55x_RELEASE_V1.0.2/MSDK/cloud/alicloud/src/infra/system\redirect_region.c ****         return;
 154:C:/Users/stapi/OneDrive/Desktop/GD32VW553/V1_MQTT_OK/GD32VW55X_Wifi_BLE_SDK/GD32VW55x_RELEASE_V1.0.2/MSDK/cloud/alicloud/src/infra/system\redirect_region.c ****     }
 155:C:/Users/stapi/OneDrive/Desktop/GD32VW553/V1_MQTT_OK/GD32VW55X_Wifi_BLE_SDK/GD32VW55x_RELEASE_V1.0.2/MSDK/cloud/alicloud/src/infra/system\redirect_region.c **** 
 156:C:/Users/stapi/OneDrive/Desktop/GD32VW553/V1_MQTT_OK/GD32VW55X_Wifi_BLE_SDK/GD32VW55x_RELEASE_V1.0.2/MSDK/cloud/alicloud/src/infra/system\redirect_region.c **** #ifdef REDIRECT_DEBUG
 157:C:/Users/stapi/OneDrive/Desktop/GD32VW553/V1_MQTT_OK/GD32VW55X_Wifi_BLE_SDK/GD32VW55x_RELEASE_V1.0.2/MSDK/cloud/alicloud/src/infra/system\redirect_region.c ****     redirect_info("Topic: '%.*s' (Length: %d)",
 158:C:/Users/stapi/OneDrive/Desktop/GD32VW553/V1_MQTT_OK/GD32VW55X_Wifi_BLE_SDK/GD32VW55x_RELEASE_V1.0.2/MSDK/cloud/alicloud/src/infra/system\redirect_region.c ****                   ptopic_info->topic_len,
 159:C:/Users/stapi/OneDrive/Desktop/GD32VW553/V1_MQTT_OK/GD32VW55X_Wifi_BLE_SDK/GD32VW55x_RELEASE_V1.0.2/MSDK/cloud/alicloud/src/infra/system\redirect_region.c ****                   ptopic_info->ptopic,
 160:C:/Users/stapi/OneDrive/Desktop/GD32VW553/V1_MQTT_OK/GD32VW55X_Wifi_BLE_SDK/GD32VW55x_RELEASE_V1.0.2/MSDK/cloud/alicloud/src/infra/system\redirect_region.c ****                   ptopic_info->topic_len);
 161:C:/Users/stapi/OneDrive/Desktop/GD32VW553/V1_MQTT_OK/GD32VW55X_Wifi_BLE_SDK/GD32VW55x_RELEASE_V1.0.2/MSDK/cloud/alicloud/src/infra/system\redirect_region.c ****     redirect_info("Payload: '%.*s' (Length: %d)",
 162:C:/Users/stapi/OneDrive/Desktop/GD32VW553/V1_MQTT_OK/GD32VW55X_Wifi_BLE_SDK/GD32VW55x_RELEASE_V1.0.2/MSDK/cloud/alicloud/src/infra/system\redirect_region.c ****                   ptopic_info->payload_len,
 163:C:/Users/stapi/OneDrive/Desktop/GD32VW553/V1_MQTT_OK/GD32VW55X_Wifi_BLE_SDK/GD32VW55x_RELEASE_V1.0.2/MSDK/cloud/alicloud/src/infra/system\redirect_region.c ****                   ptopic_info->payload,
 164:C:/Users/stapi/OneDrive/Desktop/GD32VW553/V1_MQTT_OK/GD32VW55X_Wifi_BLE_SDK/GD32VW55x_RELEASE_V1.0.2/MSDK/cloud/alicloud/src/infra/system\redirect_region.c ****                   ptopic_info->payload_len);
 165:C:/Users/stapi/OneDrive/Desktop/GD32VW553/V1_MQTT_OK/GD32VW55X_Wifi_BLE_SDK/GD32VW55x_RELEASE_V1.0.2/MSDK/cloud/alicloud/src/infra/system\redirect_region.c **** #endif
 166:C:/Users/stapi/OneDrive/Desktop/GD32VW553/V1_MQTT_OK/GD32VW55X_Wifi_BLE_SDK/GD32VW55x_RELEASE_V1.0.2/MSDK/cloud/alicloud/src/infra/system\redirect_region.c **** 
 167:C:/Users/stapi/OneDrive/Desktop/GD32VW553/V1_MQTT_OK/GD32VW55X_Wifi_BLE_SDK/GD32VW55x_RELEASE_V1.0.2/MSDK/cloud/alicloud/src/infra/system\redirect_region.c ****     id_str = LITE_json_value_of(REDIRECT_MSG_ID, payload, MEM_MAGIC, "redirect");
 168:C:/Users/stapi/OneDrive/Desktop/GD32VW553/V1_MQTT_OK/GD32VW55X_Wifi_BLE_SDK/GD32VW55x_RELEASE_V1.0.2/MSDK/cloud/alicloud/src/infra/system\redirect_region.c ****     if (!id_str)
 169:C:/Users/stapi/OneDrive/Desktop/GD32VW553/V1_MQTT_OK/GD32VW55X_Wifi_BLE_SDK/GD32VW55x_RELEASE_V1.0.2/MSDK/cloud/alicloud/src/infra/system\redirect_region.c ****     {
 170:C:/Users/stapi/OneDrive/Desktop/GD32VW553/V1_MQTT_OK/GD32VW55X_Wifi_BLE_SDK/GD32VW55x_RELEASE_V1.0.2/MSDK/cloud/alicloud/src/infra/system\redirect_region.c ****         redirect_err("id parse error");
 171:C:/Users/stapi/OneDrive/Desktop/GD32VW553/V1_MQTT_OK/GD32VW55X_Wifi_BLE_SDK/GD32VW55x_RELEASE_V1.0.2/MSDK/cloud/alicloud/src/infra/system\redirect_region.c ****         code = JSON_PARSE_ERROR;
 172:C:/Users/stapi/OneDrive/Desktop/GD32VW553/V1_MQTT_OK/GD32VW55X_Wifi_BLE_SDK/GD32VW55x_RELEASE_V1.0.2/MSDK/cloud/alicloud/src/infra/system\redirect_region.c ****         goto ERROR;
 173:C:/Users/stapi/OneDrive/Desktop/GD32VW553/V1_MQTT_OK/GD32VW55X_Wifi_BLE_SDK/GD32VW55x_RELEASE_V1.0.2/MSDK/cloud/alicloud/src/infra/system\redirect_region.c ****     }
 174:C:/Users/stapi/OneDrive/Desktop/GD32VW553/V1_MQTT_OK/GD32VW55X_Wifi_BLE_SDK/GD32VW55x_RELEASE_V1.0.2/MSDK/cloud/alicloud/src/infra/system\redirect_region.c **** 
 175:C:/Users/stapi/OneDrive/Desktop/GD32VW553/V1_MQTT_OK/GD32VW55X_Wifi_BLE_SDK/GD32VW55x_RELEASE_V1.0.2/MSDK/cloud/alicloud/src/infra/system\redirect_region.c ****     id = atoi(id_str);
 176:C:/Users/stapi/OneDrive/Desktop/GD32VW553/V1_MQTT_OK/GD32VW55X_Wifi_BLE_SDK/GD32VW55x_RELEASE_V1.0.2/MSDK/cloud/alicloud/src/infra/system\redirect_region.c ****     redirect_info("id=%d", id);
 177:C:/Users/stapi/OneDrive/Desktop/GD32VW553/V1_MQTT_OK/GD32VW55X_Wifi_BLE_SDK/GD32VW55x_RELEASE_V1.0.2/MSDK/cloud/alicloud/src/infra/system\redirect_region.c **** 
 178:C:/Users/stapi/OneDrive/Desktop/GD32VW553/V1_MQTT_OK/GD32VW55X_Wifi_BLE_SDK/GD32VW55x_RELEASE_V1.0.2/MSDK/cloud/alicloud/src/infra/system\redirect_region.c ****     host = LITE_json_value_of(REDIRECT_MSG_HOST, payload, MEM_MAGIC, "redirect");
 179:C:/Users/stapi/OneDrive/Desktop/GD32VW553/V1_MQTT_OK/GD32VW55X_Wifi_BLE_SDK/GD32VW55x_RELEASE_V1.0.2/MSDK/cloud/alicloud/src/infra/system\redirect_region.c ****     if (NULL == host)
 180:C:/Users/stapi/OneDrive/Desktop/GD32VW553/V1_MQTT_OK/GD32VW55X_Wifi_BLE_SDK/GD32VW55x_RELEASE_V1.0.2/MSDK/cloud/alicloud/src/infra/system\redirect_region.c ****     {
 181:C:/Users/stapi/OneDrive/Desktop/GD32VW553/V1_MQTT_OK/GD32VW55X_Wifi_BLE_SDK/GD32VW55x_RELEASE_V1.0.2/MSDK/cloud/alicloud/src/infra/system\redirect_region.c ****         redirect_err("host err");
 182:C:/Users/stapi/OneDrive/Desktop/GD32VW553/V1_MQTT_OK/GD32VW55X_Wifi_BLE_SDK/GD32VW55x_RELEASE_V1.0.2/MSDK/cloud/alicloud/src/infra/system\redirect_region.c ****         code = JSON_PARSE_ERROR;
 183:C:/Users/stapi/OneDrive/Desktop/GD32VW553/V1_MQTT_OK/GD32VW55X_Wifi_BLE_SDK/GD32VW55x_RELEASE_V1.0.2/MSDK/cloud/alicloud/src/infra/system\redirect_region.c ****         goto ERROR;
 184:C:/Users/stapi/OneDrive/Desktop/GD32VW553/V1_MQTT_OK/GD32VW55X_Wifi_BLE_SDK/GD32VW55x_RELEASE_V1.0.2/MSDK/cloud/alicloud/src/infra/system\redirect_region.c ****     }
 185:C:/Users/stapi/OneDrive/Desktop/GD32VW553/V1_MQTT_OK/GD32VW55X_Wifi_BLE_SDK/GD32VW55x_RELEASE_V1.0.2/MSDK/cloud/alicloud/src/infra/system\redirect_region.c ****     redirect_info("host=%s", host);
 186:C:/Users/stapi/OneDrive/Desktop/GD32VW553/V1_MQTT_OK/GD32VW55X_Wifi_BLE_SDK/GD32VW55x_RELEASE_V1.0.2/MSDK/cloud/alicloud/src/infra/system\redirect_region.c **** 
 187:C:/Users/stapi/OneDrive/Desktop/GD32VW553/V1_MQTT_OK/GD32VW55X_Wifi_BLE_SDK/GD32VW55x_RELEASE_V1.0.2/MSDK/cloud/alicloud/src/infra/system\redirect_region.c ****     port_str = LITE_json_value_of(REDIRECT_MSG_PORT, payload, MEM_MAGIC, "redirect");
 188:C:/Users/stapi/OneDrive/Desktop/GD32VW553/V1_MQTT_OK/GD32VW55X_Wifi_BLE_SDK/GD32VW55x_RELEASE_V1.0.2/MSDK/cloud/alicloud/src/infra/system\redirect_region.c ****     if (NULL == port_str)
 189:C:/Users/stapi/OneDrive/Desktop/GD32VW553/V1_MQTT_OK/GD32VW55X_Wifi_BLE_SDK/GD32VW55x_RELEASE_V1.0.2/MSDK/cloud/alicloud/src/infra/system\redirect_region.c ****     {
 190:C:/Users/stapi/OneDrive/Desktop/GD32VW553/V1_MQTT_OK/GD32VW55X_Wifi_BLE_SDK/GD32VW55x_RELEASE_V1.0.2/MSDK/cloud/alicloud/src/infra/system\redirect_region.c ****         redirect_err("port err");
 191:C:/Users/stapi/OneDrive/Desktop/GD32VW553/V1_MQTT_OK/GD32VW55X_Wifi_BLE_SDK/GD32VW55x_RELEASE_V1.0.2/MSDK/cloud/alicloud/src/infra/system\redirect_region.c ****         code = JSON_PARSE_ERROR;
 192:C:/Users/stapi/OneDrive/Desktop/GD32VW553/V1_MQTT_OK/GD32VW55X_Wifi_BLE_SDK/GD32VW55x_RELEASE_V1.0.2/MSDK/cloud/alicloud/src/infra/system\redirect_region.c ****         goto ERROR;
 193:C:/Users/stapi/OneDrive/Desktop/GD32VW553/V1_MQTT_OK/GD32VW55X_Wifi_BLE_SDK/GD32VW55x_RELEASE_V1.0.2/MSDK/cloud/alicloud/src/infra/system\redirect_region.c ****     }
 194:C:/Users/stapi/OneDrive/Desktop/GD32VW553/V1_MQTT_OK/GD32VW55X_Wifi_BLE_SDK/GD32VW55x_RELEASE_V1.0.2/MSDK/cloud/alicloud/src/infra/system\redirect_region.c **** 
 195:C:/Users/stapi/OneDrive/Desktop/GD32VW553/V1_MQTT_OK/GD32VW55X_Wifi_BLE_SDK/GD32VW55x_RELEASE_V1.0.2/MSDK/cloud/alicloud/src/infra/system\redirect_region.c ****     redirect_info("port=%s", port_str);
 196:C:/Users/stapi/OneDrive/Desktop/GD32VW553/V1_MQTT_OK/GD32VW55X_Wifi_BLE_SDK/GD32VW55x_RELEASE_V1.0.2/MSDK/cloud/alicloud/src/infra/system\redirect_region.c ****     port = atoi(port_str);
 197:C:/Users/stapi/OneDrive/Desktop/GD32VW553/V1_MQTT_OK/GD32VW55X_Wifi_BLE_SDK/GD32VW55x_RELEASE_V1.0.2/MSDK/cloud/alicloud/src/infra/system\redirect_region.c **** 
 198:C:/Users/stapi/OneDrive/Desktop/GD32VW553/V1_MQTT_OK/GD32VW55X_Wifi_BLE_SDK/GD32VW55x_RELEASE_V1.0.2/MSDK/cloud/alicloud/src/infra/system\redirect_region.c ****     p_mqtt_url = HAL_Malloc(GUIDER_DYNAMIC_URL_LEN);
 199:C:/Users/stapi/OneDrive/Desktop/GD32VW553/V1_MQTT_OK/GD32VW55X_Wifi_BLE_SDK/GD32VW55x_RELEASE_V1.0.2/MSDK/cloud/alicloud/src/infra/system\redirect_region.c ****     if (!p_mqtt_url)
 200:C:/Users/stapi/OneDrive/Desktop/GD32VW553/V1_MQTT_OK/GD32VW55X_Wifi_BLE_SDK/GD32VW55x_RELEASE_V1.0.2/MSDK/cloud/alicloud/src/infra/system\redirect_region.c ****     {
 201:C:/Users/stapi/OneDrive/Desktop/GD32VW553/V1_MQTT_OK/GD32VW55X_Wifi_BLE_SDK/GD32VW55x_RELEASE_V1.0.2/MSDK/cloud/alicloud/src/infra/system\redirect_region.c ****         sys_err("no mem");
 202:C:/Users/stapi/OneDrive/Desktop/GD32VW553/V1_MQTT_OK/GD32VW55X_Wifi_BLE_SDK/GD32VW55x_RELEASE_V1.0.2/MSDK/cloud/alicloud/src/infra/system\redirect_region.c ****         goto ERROR;
 203:C:/Users/stapi/OneDrive/Desktop/GD32VW553/V1_MQTT_OK/GD32VW55X_Wifi_BLE_SDK/GD32VW55x_RELEASE_V1.0.2/MSDK/cloud/alicloud/src/infra/system\redirect_region.c ****     }
 204:C:/Users/stapi/OneDrive/Desktop/GD32VW553/V1_MQTT_OK/GD32VW55X_Wifi_BLE_SDK/GD32VW55x_RELEASE_V1.0.2/MSDK/cloud/alicloud/src/infra/system\redirect_region.c **** 
 205:C:/Users/stapi/OneDrive/Desktop/GD32VW553/V1_MQTT_OK/GD32VW55X_Wifi_BLE_SDK/GD32VW55x_RELEASE_V1.0.2/MSDK/cloud/alicloud/src/infra/system\redirect_region.c ****     memset(p_mqtt_url, '\0', GUIDER_DYNAMIC_URL_LEN);
 206:C:/Users/stapi/OneDrive/Desktop/GD32VW553/V1_MQTT_OK/GD32VW55X_Wifi_BLE_SDK/GD32VW55x_RELEASE_V1.0.2/MSDK/cloud/alicloud/src/infra/system\redirect_region.c ****     HAL_Snprintf(p_mqtt_url, GUIDER_DYNAMIC_URL_LEN, "%s:%d", host, port);
 207:C:/Users/stapi/OneDrive/Desktop/GD32VW553/V1_MQTT_OK/GD32VW55X_Wifi_BLE_SDK/GD32VW55x_RELEASE_V1.0.2/MSDK/cloud/alicloud/src/infra/system\redirect_region.c **** 
 208:C:/Users/stapi/OneDrive/Desktop/GD32VW553/V1_MQTT_OK/GD32VW55X_Wifi_BLE_SDK/GD32VW55x_RELEASE_V1.0.2/MSDK/cloud/alicloud/src/infra/system\redirect_region.c ****     iotx_guider_set_dynamic_mqtt_url(p_mqtt_url);
 209:C:/Users/stapi/OneDrive/Desktop/GD32VW553/V1_MQTT_OK/GD32VW55X_Wifi_BLE_SDK/GD32VW55x_RELEASE_V1.0.2/MSDK/cloud/alicloud/src/infra/system\redirect_region.c **** 
 210:C:/Users/stapi/OneDrive/Desktop/GD32VW553/V1_MQTT_OK/GD32VW55X_Wifi_BLE_SDK/GD32VW55x_RELEASE_V1.0.2/MSDK/cloud/alicloud/src/infra/system\redirect_region.c ****     callback = iotx_event_callback(ITE_REDIRECT);
 211:C:/Users/stapi/OneDrive/Desktop/GD32VW553/V1_MQTT_OK/GD32VW55X_Wifi_BLE_SDK/GD32VW55x_RELEASE_V1.0.2/MSDK/cloud/alicloud/src/infra/system\redirect_region.c ****     if (callback)
 212:C:/Users/stapi/OneDrive/Desktop/GD32VW553/V1_MQTT_OK/GD32VW55X_Wifi_BLE_SDK/GD32VW55x_RELEASE_V1.0.2/MSDK/cloud/alicloud/src/infra/system\redirect_region.c ****     {
 213:C:/Users/stapi/OneDrive/Desktop/GD32VW553/V1_MQTT_OK/GD32VW55X_Wifi_BLE_SDK/GD32VW55x_RELEASE_V1.0.2/MSDK/cloud/alicloud/src/infra/system\redirect_region.c ****         ((int (*)(void))callback)();
 214:C:/Users/stapi/OneDrive/Desktop/GD32VW553/V1_MQTT_OK/GD32VW55X_Wifi_BLE_SDK/GD32VW55x_RELEASE_V1.0.2/MSDK/cloud/alicloud/src/infra/system\redirect_region.c ****     }
 215:C:/Users/stapi/OneDrive/Desktop/GD32VW553/V1_MQTT_OK/GD32VW55X_Wifi_BLE_SDK/GD32VW55x_RELEASE_V1.0.2/MSDK/cloud/alicloud/src/infra/system\redirect_region.c **** 
 216:C:/Users/stapi/OneDrive/Desktop/GD32VW553/V1_MQTT_OK/GD32VW55X_Wifi_BLE_SDK/GD32VW55x_RELEASE_V1.0.2/MSDK/cloud/alicloud/src/infra/system\redirect_region.c **** ERROR:
 217:C:/Users/stapi/OneDrive/Desktop/GD32VW553/V1_MQTT_OK/GD32VW55X_Wifi_BLE_SDK/GD32VW55x_RELEASE_V1.0.2/MSDK/cloud/alicloud/src/infra/system\redirect_region.c ****     if (code != 200)
 157              		.loc 1 217 5 is_stmt 1
 218:C:/Users/stapi/OneDrive/Desktop/GD32VW553/V1_MQTT_OK/GD32VW55X_Wifi_BLE_SDK/GD32VW55x_RELEASE_V1.0.2/MSDK/cloud/alicloud/src/infra/system\redirect_region.c ****     {
 219:C:/Users/stapi/OneDrive/Desktop/GD32VW553/V1_MQTT_OK/GD32VW55X_Wifi_BLE_SDK/GD32VW55x_RELEASE_V1.0.2/MSDK/cloud/alicloud/src/infra/system\redirect_region.c ****         redirect_err("redirect parse error");
 158              		.loc 1 219 9
 159              		.loc 1 219 9
 160 0070 37050000 		lui	a0,%hi(.LC3)
 161 0074 13050500 		addi	a0,a0,%lo(.LC3)
 162 0078 97000000 		call	HAL_Printf
 162      E7800000 
 163              	.LVL12:
 164              		.loc 1 219 9
 165 0080 37050000 		lui	a0,%hi(.LC19)
 166 0084 13050500 		addi	a0,a0,%lo(.LC19)
 167 0088 97000000 		call	HAL_Printf
 167      E7800000 
 168              	.LVL13:
 169              		.loc 1 219 9
 170 0090 13850400 		addi	a0,s1,%lo(.LC2)
 171 0094 97000000 		call	HAL_Printf
 171      E7800000 
 172              	.LVL14:
 173              		.loc 1 219 9
 220:C:/Users/stapi/OneDrive/Desktop/GD32VW553/V1_MQTT_OK/GD32VW55X_Wifi_BLE_SDK/GD32VW55x_RELEASE_V1.0.2/MSDK/cloud/alicloud/src/infra/system\redirect_region.c ****     }
 221:C:/Users/stapi/OneDrive/Desktop/GD32VW553/V1_MQTT_OK/GD32VW55X_Wifi_BLE_SDK/GD32VW55x_RELEASE_V1.0.2/MSDK/cloud/alicloud/src/infra/system\redirect_region.c ****     if (id_str)
 174              		.loc 1 221 5
 175              		.loc 1 221 8 is_stmt 0
 176 009c 631B092A 		bne	s2,zero,.L18
 222:C:/Users/stapi/OneDrive/Desktop/GD32VW553/V1_MQTT_OK/GD32VW55X_Wifi_BLE_SDK/GD32VW55x_RELEASE_V1.0.2/MSDK/cloud/alicloud/src/infra/system\redirect_region.c ****     {
 223:C:/Users/stapi/OneDrive/Desktop/GD32VW553/V1_MQTT_OK/GD32VW55X_Wifi_BLE_SDK/GD32VW55x_RELEASE_V1.0.2/MSDK/cloud/alicloud/src/infra/system\redirect_region.c ****         HAL_Free(id_str);
 224:C:/Users/stapi/OneDrive/Desktop/GD32VW553/V1_MQTT_OK/GD32VW55X_Wifi_BLE_SDK/GD32VW55x_RELEASE_V1.0.2/MSDK/cloud/alicloud/src/infra/system\redirect_region.c ****     }
 225:C:/Users/stapi/OneDrive/Desktop/GD32VW553/V1_MQTT_OK/GD32VW55X_Wifi_BLE_SDK/GD32VW55x_RELEASE_V1.0.2/MSDK/cloud/alicloud/src/infra/system\redirect_region.c ****     if (port_str)
 226:C:/Users/stapi/OneDrive/Desktop/GD32VW553/V1_MQTT_OK/GD32VW55X_Wifi_BLE_SDK/GD32VW55x_RELEASE_V1.0.2/MSDK/cloud/alicloud/src/infra/system\redirect_region.c ****     {
 227:C:/Users/stapi/OneDrive/Desktop/GD32VW553/V1_MQTT_OK/GD32VW55X_Wifi_BLE_SDK/GD32VW55x_RELEASE_V1.0.2/MSDK/cloud/alicloud/src/infra/system\redirect_region.c ****         HAL_Free(port_str);
 228:C:/Users/stapi/OneDrive/Desktop/GD32VW553/V1_MQTT_OK/GD32VW55X_Wifi_BLE_SDK/GD32VW55x_RELEASE_V1.0.2/MSDK/cloud/alicloud/src/infra/system\redirect_region.c ****     }
 229:C:/Users/stapi/OneDrive/Desktop/GD32VW553/V1_MQTT_OK/GD32VW55X_Wifi_BLE_SDK/GD32VW55x_RELEASE_V1.0.2/MSDK/cloud/alicloud/src/infra/system\redirect_region.c ****     if (host)
 177              		.loc 1 229 5 is_stmt 1
 178              		.loc 1 229 8 is_stmt 0
 179 00a0 631A0424 		bne	s0,zero,.L17
 180 00a4 2DA8     		j	.L1
 181              	.LVL15:
 182              	.L2:
 132:C:/Users/stapi/OneDrive/Desktop/GD32VW553/V1_MQTT_OK/GD32VW55X_Wifi_BLE_SDK/GD32VW55x_RELEASE_V1.0.2/MSDK/cloud/alicloud/src/infra/system\redirect_region.c **** 
 183              		.loc 1 132 5 is_stmt 1
 132:C:/Users/stapi/OneDrive/Desktop/GD32VW553/V1_MQTT_OK/GD32VW55X_Wifi_BLE_SDK/GD32VW55x_RELEASE_V1.0.2/MSDK/cloud/alicloud/src/infra/system\redirect_region.c **** 
 184              		.loc 1 132 17 is_stmt 0
 185 00a6 5C40     		lw	a5,4(s0)
 186              	.LVL16:
 134:C:/Users/stapi/OneDrive/Desktop/GD32VW553/V1_MQTT_OK/GD32VW55X_Wifi_BLE_SDK/GD32VW55x_RELEASE_V1.0.2/MSDK/cloud/alicloud/src/infra/system\redirect_region.c ****     {
 187              		.loc 1 134 5 is_stmt 1
 134:C:/Users/stapi/OneDrive/Desktop/GD32VW553/V1_MQTT_OK/GD32VW55X_Wifi_BLE_SDK/GD32VW55x_RELEASE_V1.0.2/MSDK/cloud/alicloud/src/infra/system\redirect_region.c ****     {
 188              		.loc 1 134 8 is_stmt 0
 189 00a8 C1DF     		beq	a5,zero,.L4
 141:C:/Users/stapi/OneDrive/Desktop/GD32VW553/V1_MQTT_OK/GD32VW55X_Wifi_BLE_SDK/GD32VW55x_RELEASE_V1.0.2/MSDK/cloud/alicloud/src/infra/system\redirect_region.c ****     if (payload == NULL)
 190              		.loc 1 141 5 is_stmt 1
 141:C:/Users/stapi/OneDrive/Desktop/GD32VW553/V1_MQTT_OK/GD32VW55X_Wifi_BLE_SDK/GD32VW55x_RELEASE_V1.0.2/MSDK/cloud/alicloud/src/infra/system\redirect_region.c ****     if (payload == NULL)
 191              		.loc 1 141 13 is_stmt 0
 192 00aa 83A90701 		lw	s3,16(a5)
 193              	.LVL17:
 142:C:/Users/stapi/OneDrive/Desktop/GD32VW553/V1_MQTT_OK/GD32VW55X_Wifi_BLE_SDK/GD32VW55x_RELEASE_V1.0.2/MSDK/cloud/alicloud/src/infra/system\redirect_region.c ****     {
 194              		.loc 1 142 5 is_stmt 1
 142:C:/Users/stapi/OneDrive/Desktop/GD32VW553/V1_MQTT_OK/GD32VW55X_Wifi_BLE_SDK/GD32VW55x_RELEASE_V1.0.2/MSDK/cloud/alicloud/src/infra/system\redirect_region.c ****     {
 195              		.loc 1 142 8 is_stmt 0
 196 00ae 639D0902 		bne	s3,zero,.L5
 144:C:/Users/stapi/OneDrive/Desktop/GD32VW553/V1_MQTT_OK/GD32VW55X_Wifi_BLE_SDK/GD32VW55x_RELEASE_V1.0.2/MSDK/cloud/alicloud/src/infra/system\redirect_region.c ****         goto ERROR;
 197              		.loc 1 144 9 is_stmt 1
 144:C:/Users/stapi/OneDrive/Desktop/GD32VW553/V1_MQTT_OK/GD32VW55X_Wifi_BLE_SDK/GD32VW55x_RELEASE_V1.0.2/MSDK/cloud/alicloud/src/infra/system\redirect_region.c ****         goto ERROR;
 198              		.loc 1 144 9
 199 00b2 37050000 		lui	a0,%hi(.LC3)
 200 00b6 13050500 		addi	a0,a0,%lo(.LC3)
 201 00ba 97000000 		call	HAL_Printf
 201      E7800000 
 202              	.LVL18:
 144:C:/Users/stapi/OneDrive/Desktop/GD32VW553/V1_MQTT_OK/GD32VW55X_Wifi_BLE_SDK/GD32VW55x_RELEASE_V1.0.2/MSDK/cloud/alicloud/src/infra/system\redirect_region.c ****         goto ERROR;
 203              		.loc 1 144 9
 204 00c2 37050000 		lui	a0,%hi(.LC4)
 205 00c6 13050500 		addi	a0,a0,%lo(.LC4)
 206              	.L36:
 152:C:/Users/stapi/OneDrive/Desktop/GD32VW553/V1_MQTT_OK/GD32VW55X_Wifi_BLE_SDK/GD32VW55x_RELEASE_V1.0.2/MSDK/cloud/alicloud/src/infra/system\redirect_region.c ****         return;
 207              		.loc 1 152 9 is_stmt 0
 208 00ca 97000000 		call	HAL_Printf
 208      E7800000 
 209              	.LVL19:
 152:C:/Users/stapi/OneDrive/Desktop/GD32VW553/V1_MQTT_OK/GD32VW55X_Wifi_BLE_SDK/GD32VW55x_RELEASE_V1.0.2/MSDK/cloud/alicloud/src/infra/system\redirect_region.c ****         return;
 210              		.loc 1 152 9 is_stmt 1
 211 00d2 13050A00 		addi	a0,s4,%lo(.LC2)
 212 00d6 97000000 		call	HAL_Printf
 212      E7800000 
 213              	.LVL20:
 152:C:/Users/stapi/OneDrive/Desktop/GD32VW553/V1_MQTT_OK/GD32VW55X_Wifi_BLE_SDK/GD32VW55x_RELEASE_V1.0.2/MSDK/cloud/alicloud/src/infra/system\redirect_region.c ****         return;
 214              		.loc 1 152 9
 153:C:/Users/stapi/OneDrive/Desktop/GD32VW553/V1_MQTT_OK/GD32VW55X_Wifi_BLE_SDK/GD32VW55x_RELEASE_V1.0.2/MSDK/cloud/alicloud/src/infra/system\redirect_region.c ****     }
 215              		.loc 1 153 9
 216              	.L1:
 230:C:/Users/stapi/OneDrive/Desktop/GD32VW553/V1_MQTT_OK/GD32VW55X_Wifi_BLE_SDK/GD32VW55x_RELEASE_V1.0.2/MSDK/cloud/alicloud/src/infra/system\redirect_region.c ****     {
 231:C:/Users/stapi/OneDrive/Desktop/GD32VW553/V1_MQTT_OK/GD32VW55X_Wifi_BLE_SDK/GD32VW55x_RELEASE_V1.0.2/MSDK/cloud/alicloud/src/infra/system\redirect_region.c ****         HAL_Free(host);
 232:C:/Users/stapi/OneDrive/Desktop/GD32VW553/V1_MQTT_OK/GD32VW55X_Wifi_BLE_SDK/GD32VW55x_RELEASE_V1.0.2/MSDK/cloud/alicloud/src/infra/system\redirect_region.c ****     }
 233:C:/Users/stapi/OneDrive/Desktop/GD32VW553/V1_MQTT_OK/GD32VW55X_Wifi_BLE_SDK/GD32VW55x_RELEASE_V1.0.2/MSDK/cloud/alicloud/src/infra/system\redirect_region.c ****     if (p_mqtt_url)
 234:C:/Users/stapi/OneDrive/Desktop/GD32VW553/V1_MQTT_OK/GD32VW55X_Wifi_BLE_SDK/GD32VW55x_RELEASE_V1.0.2/MSDK/cloud/alicloud/src/infra/system\redirect_region.c ****     {
 235:C:/Users/stapi/OneDrive/Desktop/GD32VW553/V1_MQTT_OK/GD32VW55X_Wifi_BLE_SDK/GD32VW55x_RELEASE_V1.0.2/MSDK/cloud/alicloud/src/infra/system\redirect_region.c ****         HAL_Free(p_mqtt_url);
 236:C:/Users/stapi/OneDrive/Desktop/GD32VW553/V1_MQTT_OK/GD32VW55X_Wifi_BLE_SDK/GD32VW55x_RELEASE_V1.0.2/MSDK/cloud/alicloud/src/infra/system\redirect_region.c ****     }
 237:C:/Users/stapi/OneDrive/Desktop/GD32VW553/V1_MQTT_OK/GD32VW55X_Wifi_BLE_SDK/GD32VW55x_RELEASE_V1.0.2/MSDK/cloud/alicloud/src/infra/system\redirect_region.c **** }
 217              		.loc 1 237 1 is_stmt 0
 218 00de 4101     		addi	sp,sp,16
 219              		.cfi_remember_state
 220              		.cfi_def_cfa_offset 0
 221 00e0 17030000 		tail	__riscv_restore_8
 221      67000300 
 222              		.cfi_restore 23
 223              		.cfi_restore 22
 224              		.cfi_restore 21
 225              		.cfi_restore 20
 226              		.cfi_restore 19
 227              		.cfi_restore 18
 228              		.cfi_restore 9
 229              		.cfi_restore 8
 230              		.cfi_restore 1
 231              		.cfi_def_cfa_offset -48
 232              	.LVL21:
 233              	.L5:
 234              		.cfi_restore_state
 149:C:/Users/stapi/OneDrive/Desktop/GD32VW553/V1_MQTT_OK/GD32VW55X_Wifi_BLE_SDK/GD32VW55x_RELEASE_V1.0.2/MSDK/cloud/alicloud/src/infra/system\redirect_region.c ****     if (msg->event_type != IOTX_MQTT_EVENT_PUBLISH_RECEIVED)
 235              		.loc 1 149 5 is_stmt 1
 149:C:/Users/stapi/OneDrive/Desktop/GD32VW553/V1_MQTT_OK/GD32VW55X_Wifi_BLE_SDK/GD32VW55x_RELEASE_V1.0.2/MSDK/cloud/alicloud/src/infra/system\redirect_region.c ****     if (msg->event_type != IOTX_MQTT_EVENT_PUBLISH_RECEIVED)
 236              		.loc 1 149 5
 237 00e8 13850A00 		addi	a0,s5,%lo(.LC0)
 238 00ec 97000000 		call	HAL_Printf
 238      E7800000 
 239              	.LVL22:
 149:C:/Users/stapi/OneDrive/Desktop/GD32VW553/V1_MQTT_OK/GD32VW55X_Wifi_BLE_SDK/GD32VW55x_RELEASE_V1.0.2/MSDK/cloud/alicloud/src/infra/system\redirect_region.c ****     if (msg->event_type != IOTX_MQTT_EVENT_PUBLISH_RECEIVED)
 240              		.loc 1 149 5
 241 00f4 0C40     		lw	a1,0(s0)
 242 00f6 37050000 		lui	a0,%hi(.LC5)
 243 00fa 13050500 		addi	a0,a0,%lo(.LC5)
 244 00fe 97000000 		call	HAL_Printf
 244      E7800000 
 245              	.LVL23:
 149:C:/Users/stapi/OneDrive/Desktop/GD32VW553/V1_MQTT_OK/GD32VW55X_Wifi_BLE_SDK/GD32VW55x_RELEASE_V1.0.2/MSDK/cloud/alicloud/src/infra/system\redirect_region.c ****     if (msg->event_type != IOTX_MQTT_EVENT_PUBLISH_RECEIVED)
 246              		.loc 1 149 5
 247 0106 13050A00 		addi	a0,s4,%lo(.LC2)
 248 010a 97000000 		call	HAL_Printf
 248      E7800000 
 249              	.LVL24:
 149:C:/Users/stapi/OneDrive/Desktop/GD32VW553/V1_MQTT_OK/GD32VW55X_Wifi_BLE_SDK/GD32VW55x_RELEASE_V1.0.2/MSDK/cloud/alicloud/src/infra/system\redirect_region.c ****     if (msg->event_type != IOTX_MQTT_EVENT_PUBLISH_RECEIVED)
 250              		.loc 1 149 5
 150:C:/Users/stapi/OneDrive/Desktop/GD32VW553/V1_MQTT_OK/GD32VW55X_Wifi_BLE_SDK/GD32VW55x_RELEASE_V1.0.2/MSDK/cloud/alicloud/src/infra/system\redirect_region.c ****     {
 251              		.loc 1 150 5
 150:C:/Users/stapi/OneDrive/Desktop/GD32VW553/V1_MQTT_OK/GD32VW55X_Wifi_BLE_SDK/GD32VW55x_RELEASE_V1.0.2/MSDK/cloud/alicloud/src/infra/system\redirect_region.c ****     {
 252              		.loc 1 150 8 is_stmt 0
 253 0112 1840     		lw	a4,0(s0)
 254 0114 B147     		li	a5,12
 255 0116 630DF700 		beq	a4,a5,.L7
 152:C:/Users/stapi/OneDrive/Desktop/GD32VW553/V1_MQTT_OK/GD32VW55X_Wifi_BLE_SDK/GD32VW55x_RELEASE_V1.0.2/MSDK/cloud/alicloud/src/infra/system\redirect_region.c ****         return;
 256              		.loc 1 152 9 is_stmt 1
 152:C:/Users/stapi/OneDrive/Desktop/GD32VW553/V1_MQTT_OK/GD32VW55X_Wifi_BLE_SDK/GD32VW55x_RELEASE_V1.0.2/MSDK/cloud/alicloud/src/infra/system\redirect_region.c ****         return;
 257              		.loc 1 152 9
 258 011a 13850A00 		addi	a0,s5,%lo(.LC0)
 259 011e 97000000 		call	HAL_Printf
 259      E7800000 
 260              	.LVL25:
 152:C:/Users/stapi/OneDrive/Desktop/GD32VW553/V1_MQTT_OK/GD32VW55X_Wifi_BLE_SDK/GD32VW55x_RELEASE_V1.0.2/MSDK/cloud/alicloud/src/infra/system\redirect_region.c ****         return;
 261              		.loc 1 152 9
 262 0126 37050000 		lui	a0,%hi(.LC6)
 263 012a 13050500 		addi	a0,a0,%lo(.LC6)
 264 012e 71BF     		j	.L36
 265              	.L7:
 167:C:/Users/stapi/OneDrive/Desktop/GD32VW553/V1_MQTT_OK/GD32VW55X_Wifi_BLE_SDK/GD32VW55x_RELEASE_V1.0.2/MSDK/cloud/alicloud/src/infra/system\redirect_region.c ****     if (!id_str)
 266              		.loc 1 167 5
 167:C:/Users/stapi/OneDrive/Desktop/GD32VW553/V1_MQTT_OK/GD32VW55X_Wifi_BLE_SDK/GD32VW55x_RELEASE_V1.0.2/MSDK/cloud/alicloud/src/infra/system\redirect_region.c ****     if (!id_str)
 267              		.loc 1 167 14 is_stmt 0
 268 0130 B70B0000 		lui	s7,%hi(.LC7)
 269 0134 056B     		li	s6,4096
 270 0136 37050000 		lui	a0,%hi(.LC8)
 271 013a 93860B00 		addi	a3,s7,%lo(.LC7)
 272 013e 13064B23 		addi	a2,s6,564
 273 0142 CE85     		mv	a1,s3
 274 0144 13050500 		addi	a0,a0,%lo(.LC8)
 275 0148 97000000 		call	LITE_json_value_of
 275      E7800000 
 276              	.LVL26:
 277 0150 2A89     		mv	s2,a0
 278              	.LVL27:
 168:C:/Users/stapi/OneDrive/Desktop/GD32VW553/V1_MQTT_OK/GD32VW55X_Wifi_BLE_SDK/GD32VW55x_RELEASE_V1.0.2/MSDK/cloud/alicloud/src/infra/system\redirect_region.c ****     {
 279              		.loc 1 168 5 is_stmt 1
 168:C:/Users/stapi/OneDrive/Desktop/GD32VW553/V1_MQTT_OK/GD32VW55X_Wifi_BLE_SDK/GD32VW55x_RELEASE_V1.0.2/MSDK/cloud/alicloud/src/infra/system\redirect_region.c ****     {
 280              		.loc 1 168 8 is_stmt 0
 281 0152 0DE9     		bne	a0,zero,.L8
 170:C:/Users/stapi/OneDrive/Desktop/GD32VW553/V1_MQTT_OK/GD32VW55X_Wifi_BLE_SDK/GD32VW55x_RELEASE_V1.0.2/MSDK/cloud/alicloud/src/infra/system\redirect_region.c ****         code = JSON_PARSE_ERROR;
 282              		.loc 1 170 9 is_stmt 1
 170:C:/Users/stapi/OneDrive/Desktop/GD32VW553/V1_MQTT_OK/GD32VW55X_Wifi_BLE_SDK/GD32VW55x_RELEASE_V1.0.2/MSDK/cloud/alicloud/src/infra/system\redirect_region.c ****         code = JSON_PARSE_ERROR;
 283              		.loc 1 170 9
 284 0154 37050000 		lui	a0,%hi(.LC3)
 285              	.LVL28:
 286 0158 13050500 		addi	a0,a0,%lo(.LC3)
 287 015c 97000000 		call	HAL_Printf
 287      E7800000 
 288              	.LVL29:
 170:C:/Users/stapi/OneDrive/Desktop/GD32VW553/V1_MQTT_OK/GD32VW55X_Wifi_BLE_SDK/GD32VW55x_RELEASE_V1.0.2/MSDK/cloud/alicloud/src/infra/system\redirect_region.c ****         code = JSON_PARSE_ERROR;
 289              		.loc 1 170 9
 290 0164 37050000 		lui	a0,%hi(.LC9)
 291 0168 13050500 		addi	a0,a0,%lo(.LC9)
 292 016c 97000000 		call	HAL_Printf
 292      E7800000 
 293              	.LVL30:
 170:C:/Users/stapi/OneDrive/Desktop/GD32VW553/V1_MQTT_OK/GD32VW55X_Wifi_BLE_SDK/GD32VW55x_RELEASE_V1.0.2/MSDK/cloud/alicloud/src/infra/system\redirect_region.c ****         code = JSON_PARSE_ERROR;
 294              		.loc 1 170 9
 295 0174 13050A00 		addi	a0,s4,%lo(.LC2)
 296 0178 97000000 		call	HAL_Printf
 296      E7800000 
 297              	.LVL31:
 170:C:/Users/stapi/OneDrive/Desktop/GD32VW553/V1_MQTT_OK/GD32VW55X_Wifi_BLE_SDK/GD32VW55x_RELEASE_V1.0.2/MSDK/cloud/alicloud/src/infra/system\redirect_region.c ****         code = JSON_PARSE_ERROR;
 298              		.loc 1 170 9
 171:C:/Users/stapi/OneDrive/Desktop/GD32VW553/V1_MQTT_OK/GD32VW55X_Wifi_BLE_SDK/GD32VW55x_RELEASE_V1.0.2/MSDK/cloud/alicloud/src/infra/system\redirect_region.c ****         goto ERROR;
 299              		.loc 1 171 9
 172:C:/Users/stapi/OneDrive/Desktop/GD32VW553/V1_MQTT_OK/GD32VW55X_Wifi_BLE_SDK/GD32VW55x_RELEASE_V1.0.2/MSDK/cloud/alicloud/src/infra/system\redirect_region.c ****     }
 300              		.loc 1 172 9
 119:C:/Users/stapi/OneDrive/Desktop/GD32VW553/V1_MQTT_OK/GD32VW55X_Wifi_BLE_SDK/GD32VW55x_RELEASE_V1.0.2/MSDK/cloud/alicloud/src/infra/system\redirect_region.c ****     char *payload = NULL;
 301              		.loc 1 119 11 is_stmt 0
 302 0180 0144     		li	s0,0
 303              	.LVL32:
 172:C:/Users/stapi/OneDrive/Desktop/GD32VW553/V1_MQTT_OK/GD32VW55X_Wifi_BLE_SDK/GD32VW55x_RELEASE_V1.0.2/MSDK/cloud/alicloud/src/infra/system\redirect_region.c ****     }
 304              		.loc 1 172 9
 305 0182 FDB5     		j	.L3
 306              	.LVL33:
 307              	.L8:
 175:C:/Users/stapi/OneDrive/Desktop/GD32VW553/V1_MQTT_OK/GD32VW55X_Wifi_BLE_SDK/GD32VW55x_RELEASE_V1.0.2/MSDK/cloud/alicloud/src/infra/system\redirect_region.c ****     redirect_info("id=%d", id);
 308              		.loc 1 175 5 is_stmt 1
 175:C:/Users/stapi/OneDrive/Desktop/GD32VW553/V1_MQTT_OK/GD32VW55X_Wifi_BLE_SDK/GD32VW55x_RELEASE_V1.0.2/MSDK/cloud/alicloud/src/infra/system\redirect_region.c ****     redirect_info("id=%d", id);
 309              		.loc 1 175 10 is_stmt 0
 310 0184 97000000 		call	atoi
 310      E7800000 
 311              	.LVL34:
 312 018c 2AC6     		sw	a0,12(sp)
 313              	.LVL35:
 176:C:/Users/stapi/OneDrive/Desktop/GD32VW553/V1_MQTT_OK/GD32VW55X_Wifi_BLE_SDK/GD32VW55x_RELEASE_V1.0.2/MSDK/cloud/alicloud/src/infra/system\redirect_region.c **** 
 314              		.loc 1 176 5 is_stmt 1
 176:C:/Users/stapi/OneDrive/Desktop/GD32VW553/V1_MQTT_OK/GD32VW55X_Wifi_BLE_SDK/GD32VW55x_RELEASE_V1.0.2/MSDK/cloud/alicloud/src/infra/system\redirect_region.c **** 
 315              		.loc 1 176 5
 316 018e 13850A00 		addi	a0,s5,%lo(.LC0)
 317              	.LVL36:
 318 0192 97000000 		call	HAL_Printf
 318      E7800000 
 319              	.LVL37:
 176:C:/Users/stapi/OneDrive/Desktop/GD32VW553/V1_MQTT_OK/GD32VW55X_Wifi_BLE_SDK/GD32VW55x_RELEASE_V1.0.2/MSDK/cloud/alicloud/src/infra/system\redirect_region.c **** 
 320              		.loc 1 176 5
 321 019a B245     		lw	a1,12(sp)
 322 019c 37050000 		lui	a0,%hi(.LC10)
 323 01a0 13050500 		addi	a0,a0,%lo(.LC10)
 324 01a4 97000000 		call	HAL_Printf
 324      E7800000 
 325              	.LVL38:
 176:C:/Users/stapi/OneDrive/Desktop/GD32VW553/V1_MQTT_OK/GD32VW55X_Wifi_BLE_SDK/GD32VW55x_RELEASE_V1.0.2/MSDK/cloud/alicloud/src/infra/system\redirect_region.c **** 
 326              		.loc 1 176 5
 327 01ac 13050A00 		addi	a0,s4,%lo(.LC2)
 328 01b0 97000000 		call	HAL_Printf
 328      E7800000 
 329              	.LVL39:
 176:C:/Users/stapi/OneDrive/Desktop/GD32VW553/V1_MQTT_OK/GD32VW55X_Wifi_BLE_SDK/GD32VW55x_RELEASE_V1.0.2/MSDK/cloud/alicloud/src/infra/system\redirect_region.c **** 
 330              		.loc 1 176 5
 178:C:/Users/stapi/OneDrive/Desktop/GD32VW553/V1_MQTT_OK/GD32VW55X_Wifi_BLE_SDK/GD32VW55x_RELEASE_V1.0.2/MSDK/cloud/alicloud/src/infra/system\redirect_region.c ****     if (NULL == host)
 331              		.loc 1 178 5
 178:C:/Users/stapi/OneDrive/Desktop/GD32VW553/V1_MQTT_OK/GD32VW55X_Wifi_BLE_SDK/GD32VW55x_RELEASE_V1.0.2/MSDK/cloud/alicloud/src/infra/system\redirect_region.c ****     if (NULL == host)
 332              		.loc 1 178 12 is_stmt 0
 333 01b8 37050000 		lui	a0,%hi(.LC11)
 334 01bc 93860B00 		addi	a3,s7,%lo(.LC7)
 335 01c0 13064B23 		addi	a2,s6,564
 336 01c4 CE85     		mv	a1,s3
 337 01c6 13050500 		addi	a0,a0,%lo(.LC11)
 338 01ca 97000000 		call	LITE_json_value_of
 338      E7800000 
 339              	.LVL40:
 340 01d2 2A84     		mv	s0,a0
 341              	.LVL41:
 179:C:/Users/stapi/OneDrive/Desktop/GD32VW553/V1_MQTT_OK/GD32VW55X_Wifi_BLE_SDK/GD32VW55x_RELEASE_V1.0.2/MSDK/cloud/alicloud/src/infra/system\redirect_region.c ****     {
 342              		.loc 1 179 5 is_stmt 1
 179:C:/Users/stapi/OneDrive/Desktop/GD32VW553/V1_MQTT_OK/GD32VW55X_Wifi_BLE_SDK/GD32VW55x_RELEASE_V1.0.2/MSDK/cloud/alicloud/src/infra/system\redirect_region.c ****     {
 343              		.loc 1 179 8 is_stmt 0
 344 01d4 05E9     		bne	a0,zero,.L9
 181:C:/Users/stapi/OneDrive/Desktop/GD32VW553/V1_MQTT_OK/GD32VW55X_Wifi_BLE_SDK/GD32VW55x_RELEASE_V1.0.2/MSDK/cloud/alicloud/src/infra/system\redirect_region.c ****         code = JSON_PARSE_ERROR;
 345              		.loc 1 181 9 is_stmt 1
 181:C:/Users/stapi/OneDrive/Desktop/GD32VW553/V1_MQTT_OK/GD32VW55X_Wifi_BLE_SDK/GD32VW55x_RELEASE_V1.0.2/MSDK/cloud/alicloud/src/infra/system\redirect_region.c ****         code = JSON_PARSE_ERROR;
 346              		.loc 1 181 9
 347 01d6 37050000 		lui	a0,%hi(.LC3)
 348 01da 13050500 		addi	a0,a0,%lo(.LC3)
 349 01de 97000000 		call	HAL_Printf
 349      E7800000 
 350              	.LVL42:
 181:C:/Users/stapi/OneDrive/Desktop/GD32VW553/V1_MQTT_OK/GD32VW55X_Wifi_BLE_SDK/GD32VW55x_RELEASE_V1.0.2/MSDK/cloud/alicloud/src/infra/system\redirect_region.c ****         code = JSON_PARSE_ERROR;
 351              		.loc 1 181 9
 352 01e6 37050000 		lui	a0,%hi(.LC12)
 353 01ea 13050500 		addi	a0,a0,%lo(.LC12)
 354              	.LVL43:
 355              	.L35:
 190:C:/Users/stapi/OneDrive/Desktop/GD32VW553/V1_MQTT_OK/GD32VW55X_Wifi_BLE_SDK/GD32VW55x_RELEASE_V1.0.2/MSDK/cloud/alicloud/src/infra/system\redirect_region.c ****         code = JSON_PARSE_ERROR;
 356              		.loc 1 190 9 is_stmt 0
 357 01ee 97000000 		call	HAL_Printf
 357      E7800000 
 358              	.LVL44:
 190:C:/Users/stapi/OneDrive/Desktop/GD32VW553/V1_MQTT_OK/GD32VW55X_Wifi_BLE_SDK/GD32VW55x_RELEASE_V1.0.2/MSDK/cloud/alicloud/src/infra/system\redirect_region.c ****         code = JSON_PARSE_ERROR;
 359              		.loc 1 190 9 is_stmt 1
 360 01f6 13850400 		addi	a0,s1,%lo(.LC2)
 361 01fa 97000000 		call	HAL_Printf
 361      E7800000 
 362              	.LVL45:
 190:C:/Users/stapi/OneDrive/Desktop/GD32VW553/V1_MQTT_OK/GD32VW55X_Wifi_BLE_SDK/GD32VW55x_RELEASE_V1.0.2/MSDK/cloud/alicloud/src/infra/system\redirect_region.c ****         code = JSON_PARSE_ERROR;
 363              		.loc 1 190 9
 191:C:/Users/stapi/OneDrive/Desktop/GD32VW553/V1_MQTT_OK/GD32VW55X_Wifi_BLE_SDK/GD32VW55x_RELEASE_V1.0.2/MSDK/cloud/alicloud/src/infra/system\redirect_region.c ****         goto ERROR;
 364              		.loc 1 191 9
 192:C:/Users/stapi/OneDrive/Desktop/GD32VW553/V1_MQTT_OK/GD32VW55X_Wifi_BLE_SDK/GD32VW55x_RELEASE_V1.0.2/MSDK/cloud/alicloud/src/infra/system\redirect_region.c ****     }
 365              		.loc 1 192 9
 366 0202 BDB5     		j	.L3
 367              	.LVL46:
 368              	.L9:
 185:C:/Users/stapi/OneDrive/Desktop/GD32VW553/V1_MQTT_OK/GD32VW55X_Wifi_BLE_SDK/GD32VW55x_RELEASE_V1.0.2/MSDK/cloud/alicloud/src/infra/system\redirect_region.c **** 
 369              		.loc 1 185 5
 185:C:/Users/stapi/OneDrive/Desktop/GD32VW553/V1_MQTT_OK/GD32VW55X_Wifi_BLE_SDK/GD32VW55x_RELEASE_V1.0.2/MSDK/cloud/alicloud/src/infra/system\redirect_region.c **** 
 370              		.loc 1 185 5
 371 0204 13850A00 		addi	a0,s5,%lo(.LC0)
 372 0208 97000000 		call	HAL_Printf
 372      E7800000 
 373              	.LVL47:
 185:C:/Users/stapi/OneDrive/Desktop/GD32VW553/V1_MQTT_OK/GD32VW55X_Wifi_BLE_SDK/GD32VW55x_RELEASE_V1.0.2/MSDK/cloud/alicloud/src/infra/system\redirect_region.c **** 
 374              		.loc 1 185 5
 375 0210 37050000 		lui	a0,%hi(.LC13)
 376 0214 A285     		mv	a1,s0
 377 0216 13050500 		addi	a0,a0,%lo(.LC13)
 378 021a 97000000 		call	HAL_Printf
 378      E7800000 
 379              	.LVL48:
 185:C:/Users/stapi/OneDrive/Desktop/GD32VW553/V1_MQTT_OK/GD32VW55X_Wifi_BLE_SDK/GD32VW55x_RELEASE_V1.0.2/MSDK/cloud/alicloud/src/infra/system\redirect_region.c **** 
 380              		.loc 1 185 5
 381 0222 13050A00 		addi	a0,s4,%lo(.LC2)
 382 0226 97000000 		call	HAL_Printf
 382      E7800000 
 383              	.LVL49:
 185:C:/Users/stapi/OneDrive/Desktop/GD32VW553/V1_MQTT_OK/GD32VW55X_Wifi_BLE_SDK/GD32VW55x_RELEASE_V1.0.2/MSDK/cloud/alicloud/src/infra/system\redirect_region.c **** 
 384              		.loc 1 185 5
 187:C:/Users/stapi/OneDrive/Desktop/GD32VW553/V1_MQTT_OK/GD32VW55X_Wifi_BLE_SDK/GD32VW55x_RELEASE_V1.0.2/MSDK/cloud/alicloud/src/infra/system\redirect_region.c ****     if (NULL == port_str)
 385              		.loc 1 187 5
 187:C:/Users/stapi/OneDrive/Desktop/GD32VW553/V1_MQTT_OK/GD32VW55X_Wifi_BLE_SDK/GD32VW55x_RELEASE_V1.0.2/MSDK/cloud/alicloud/src/infra/system\redirect_region.c ****     if (NULL == port_str)
 386              		.loc 1 187 16 is_stmt 0
 387 022e 37050000 		lui	a0,%hi(.LC14)
 388 0232 CE85     		mv	a1,s3
 389 0234 93860B00 		addi	a3,s7,%lo(.LC7)
 390 0238 13064B23 		addi	a2,s6,564
 391 023c 13050500 		addi	a0,a0,%lo(.LC14)
 392 0240 97000000 		call	LITE_json_value_of
 392      E7800000 
 393              	.LVL50:
 394 0248 AA89     		mv	s3,a0
 395              	.LVL51:
 188:C:/Users/stapi/OneDrive/Desktop/GD32VW553/V1_MQTT_OK/GD32VW55X_Wifi_BLE_SDK/GD32VW55x_RELEASE_V1.0.2/MSDK/cloud/alicloud/src/infra/system\redirect_region.c ****     {
 396              		.loc 1 188 5 is_stmt 1
 188:C:/Users/stapi/OneDrive/Desktop/GD32VW553/V1_MQTT_OK/GD32VW55X_Wifi_BLE_SDK/GD32VW55x_RELEASE_V1.0.2/MSDK/cloud/alicloud/src/infra/system\redirect_region.c ****     {
 397              		.loc 1 188 8 is_stmt 0
 398 024a 11ED     		bne	a0,zero,.L10
 190:C:/Users/stapi/OneDrive/Desktop/GD32VW553/V1_MQTT_OK/GD32VW55X_Wifi_BLE_SDK/GD32VW55x_RELEASE_V1.0.2/MSDK/cloud/alicloud/src/infra/system\redirect_region.c ****         code = JSON_PARSE_ERROR;
 399              		.loc 1 190 9 is_stmt 1
 190:C:/Users/stapi/OneDrive/Desktop/GD32VW553/V1_MQTT_OK/GD32VW55X_Wifi_BLE_SDK/GD32VW55x_RELEASE_V1.0.2/MSDK/cloud/alicloud/src/infra/system\redirect_region.c ****         code = JSON_PARSE_ERROR;
 400              		.loc 1 190 9
 401 024c 37050000 		lui	a0,%hi(.LC3)
 402              	.LVL52:
 403 0250 13050500 		addi	a0,a0,%lo(.LC3)
 404 0254 97000000 		call	HAL_Printf
 404      E7800000 
 405              	.LVL53:
 190:C:/Users/stapi/OneDrive/Desktop/GD32VW553/V1_MQTT_OK/GD32VW55X_Wifi_BLE_SDK/GD32VW55x_RELEASE_V1.0.2/MSDK/cloud/alicloud/src/infra/system\redirect_region.c ****         code = JSON_PARSE_ERROR;
 406              		.loc 1 190 9
 407 025c 37050000 		lui	a0,%hi(.LC15)
 408 0260 13050500 		addi	a0,a0,%lo(.LC15)
 409 0264 69B7     		j	.L35
 410              	.LVL54:
 411              	.L10:
 195:C:/Users/stapi/OneDrive/Desktop/GD32VW553/V1_MQTT_OK/GD32VW55X_Wifi_BLE_SDK/GD32VW55x_RELEASE_V1.0.2/MSDK/cloud/alicloud/src/infra/system\redirect_region.c ****     port = atoi(port_str);
 412              		.loc 1 195 5
 195:C:/Users/stapi/OneDrive/Desktop/GD32VW553/V1_MQTT_OK/GD32VW55X_Wifi_BLE_SDK/GD32VW55x_RELEASE_V1.0.2/MSDK/cloud/alicloud/src/infra/system\redirect_region.c ****     port = atoi(port_str);
 413              		.loc 1 195 5
 414 0266 13850A00 		addi	a0,s5,%lo(.LC0)
 415              	.LVL55:
 416 026a 97000000 		call	HAL_Printf
 416      E7800000 
 417              	.LVL56:
 195:C:/Users/stapi/OneDrive/Desktop/GD32VW553/V1_MQTT_OK/GD32VW55X_Wifi_BLE_SDK/GD32VW55x_RELEASE_V1.0.2/MSDK/cloud/alicloud/src/infra/system\redirect_region.c ****     port = atoi(port_str);
 418              		.loc 1 195 5
 419 0272 37050000 		lui	a0,%hi(.LC16)
 420 0276 CE85     		mv	a1,s3
 421 0278 13050500 		addi	a0,a0,%lo(.LC16)
 422 027c 97000000 		call	HAL_Printf
 422      E7800000 
 423              	.LVL57:
 195:C:/Users/stapi/OneDrive/Desktop/GD32VW553/V1_MQTT_OK/GD32VW55X_Wifi_BLE_SDK/GD32VW55x_RELEASE_V1.0.2/MSDK/cloud/alicloud/src/infra/system\redirect_region.c ****     port = atoi(port_str);
 424              		.loc 1 195 5
 425 0284 13050A00 		addi	a0,s4,%lo(.LC2)
 426 0288 97000000 		call	HAL_Printf
 426      E7800000 
 427              	.LVL58:
 195:C:/Users/stapi/OneDrive/Desktop/GD32VW553/V1_MQTT_OK/GD32VW55X_Wifi_BLE_SDK/GD32VW55x_RELEASE_V1.0.2/MSDK/cloud/alicloud/src/infra/system\redirect_region.c ****     port = atoi(port_str);
 428              		.loc 1 195 5
 196:C:/Users/stapi/OneDrive/Desktop/GD32VW553/V1_MQTT_OK/GD32VW55X_Wifi_BLE_SDK/GD32VW55x_RELEASE_V1.0.2/MSDK/cloud/alicloud/src/infra/system\redirect_region.c **** 
 429              		.loc 1 196 5
 196:C:/Users/stapi/OneDrive/Desktop/GD32VW553/V1_MQTT_OK/GD32VW55X_Wifi_BLE_SDK/GD32VW55x_RELEASE_V1.0.2/MSDK/cloud/alicloud/src/infra/system\redirect_region.c **** 
 430              		.loc 1 196 12 is_stmt 0
 431 0290 4E85     		mv	a0,s3
 432 0292 97000000 		call	atoi
 432      E7800000 
 433              	.LVL59:
 434 029a AA8A     		mv	s5,a0
 435              	.LVL60:
 198:C:/Users/stapi/OneDrive/Desktop/GD32VW553/V1_MQTT_OK/GD32VW55X_Wifi_BLE_SDK/GD32VW55x_RELEASE_V1.0.2/MSDK/cloud/alicloud/src/infra/system\redirect_region.c ****     if (!p_mqtt_url)
 436              		.loc 1 198 5 is_stmt 1
 198:C:/Users/stapi/OneDrive/Desktop/GD32VW553/V1_MQTT_OK/GD32VW55X_Wifi_BLE_SDK/GD32VW55x_RELEASE_V1.0.2/MSDK/cloud/alicloud/src/infra/system\redirect_region.c ****     if (!p_mqtt_url)
 437              		.loc 1 198 18 is_stmt 0
 438 029c 13050010 		li	a0,256
 439              	.LVL61:
 440 02a0 97000000 		call	HAL_Malloc
 440      E7800000 
 441              	.LVL62:
 442 02a8 AA84     		mv	s1,a0
 443              	.LVL63:
 199:C:/Users/stapi/OneDrive/Desktop/GD32VW553/V1_MQTT_OK/GD32VW55X_Wifi_BLE_SDK/GD32VW55x_RELEASE_V1.0.2/MSDK/cloud/alicloud/src/infra/system\redirect_region.c ****     {
 444              		.loc 1 199 5 is_stmt 1
 199:C:/Users/stapi/OneDrive/Desktop/GD32VW553/V1_MQTT_OK/GD32VW55X_Wifi_BLE_SDK/GD32VW55x_RELEASE_V1.0.2/MSDK/cloud/alicloud/src/infra/system\redirect_region.c ****     {
 445              		.loc 1 199 8 is_stmt 0
 446 02aa 3DE1     		bne	a0,zero,.L11
 201:C:/Users/stapi/OneDrive/Desktop/GD32VW553/V1_MQTT_OK/GD32VW55X_Wifi_BLE_SDK/GD32VW55x_RELEASE_V1.0.2/MSDK/cloud/alicloud/src/infra/system\redirect_region.c ****         goto ERROR;
 447              		.loc 1 201 9 is_stmt 1
 201:C:/Users/stapi/OneDrive/Desktop/GD32VW553/V1_MQTT_OK/GD32VW55X_Wifi_BLE_SDK/GD32VW55x_RELEASE_V1.0.2/MSDK/cloud/alicloud/src/infra/system\redirect_region.c ****         goto ERROR;
 448              		.loc 1 201 9
 449 02ac 37050000 		lui	a0,%hi(.LC3)
 450 02b0 13050500 		addi	a0,a0,%lo(.LC3)
 451 02b4 97000000 		call	HAL_Printf
 451      E7800000 
 452              	.LVL64:
 201:C:/Users/stapi/OneDrive/Desktop/GD32VW553/V1_MQTT_OK/GD32VW55X_Wifi_BLE_SDK/GD32VW55x_RELEASE_V1.0.2/MSDK/cloud/alicloud/src/infra/system\redirect_region.c ****         goto ERROR;
 453              		.loc 1 201 9
 454 02bc 37050000 		lui	a0,%hi(.LC17)
 455 02c0 13050500 		addi	a0,a0,%lo(.LC17)
 456 02c4 97000000 		call	HAL_Printf
 456      E7800000 
 457              	.LVL65:
 201:C:/Users/stapi/OneDrive/Desktop/GD32VW553/V1_MQTT_OK/GD32VW55X_Wifi_BLE_SDK/GD32VW55x_RELEASE_V1.0.2/MSDK/cloud/alicloud/src/infra/system\redirect_region.c ****         goto ERROR;
 458              		.loc 1 201 9
 459 02cc 13050A00 		addi	a0,s4,%lo(.LC2)
 460 02d0 97000000 		call	HAL_Printf
 460      E7800000 
 461              	.LVL66:
 201:C:/Users/stapi/OneDrive/Desktop/GD32VW553/V1_MQTT_OK/GD32VW55X_Wifi_BLE_SDK/GD32VW55x_RELEASE_V1.0.2/MSDK/cloud/alicloud/src/infra/system\redirect_region.c ****         goto ERROR;
 462              		.loc 1 201 9
 202:C:/Users/stapi/OneDrive/Desktop/GD32VW553/V1_MQTT_OK/GD32VW55X_Wifi_BLE_SDK/GD32VW55x_RELEASE_V1.0.2/MSDK/cloud/alicloud/src/infra/system\redirect_region.c ****     }
 463              		.loc 1 202 9
 464              	.L15:
 223:C:/Users/stapi/OneDrive/Desktop/GD32VW553/V1_MQTT_OK/GD32VW55X_Wifi_BLE_SDK/GD32VW55x_RELEASE_V1.0.2/MSDK/cloud/alicloud/src/infra/system\redirect_region.c ****     }
 465              		.loc 1 223 9
 466 02d8 4A85     		mv	a0,s2
 467 02da 97000000 		call	HAL_Free
 467      E7800000 
 468              	.LVL67:
 225:C:/Users/stapi/OneDrive/Desktop/GD32VW553/V1_MQTT_OK/GD32VW55X_Wifi_BLE_SDK/GD32VW55x_RELEASE_V1.0.2/MSDK/cloud/alicloud/src/infra/system\redirect_region.c ****     {
 469              		.loc 1 225 5
 225:C:/Users/stapi/OneDrive/Desktop/GD32VW553/V1_MQTT_OK/GD32VW55X_Wifi_BLE_SDK/GD32VW55x_RELEASE_V1.0.2/MSDK/cloud/alicloud/src/infra/system\redirect_region.c ****     {
 470              		.loc 1 225 8 is_stmt 0
 471 02e2 63870900 		beq	s3,zero,.L13
 227:C:/Users/stapi/OneDrive/Desktop/GD32VW553/V1_MQTT_OK/GD32VW55X_Wifi_BLE_SDK/GD32VW55x_RELEASE_V1.0.2/MSDK/cloud/alicloud/src/infra/system\redirect_region.c ****     }
 472              		.loc 1 227 9 is_stmt 1
 473 02e6 4E85     		mv	a0,s3
 474 02e8 97000000 		call	HAL_Free
 474      E7800000 
 475              	.LVL68:
 476              	.L13:
 229:C:/Users/stapi/OneDrive/Desktop/GD32VW553/V1_MQTT_OK/GD32VW55X_Wifi_BLE_SDK/GD32VW55x_RELEASE_V1.0.2/MSDK/cloud/alicloud/src/infra/system\redirect_region.c ****     {
 477              		.loc 1 229 5
 229:C:/Users/stapi/OneDrive/Desktop/GD32VW553/V1_MQTT_OK/GD32VW55X_Wifi_BLE_SDK/GD32VW55x_RELEASE_V1.0.2/MSDK/cloud/alicloud/src/infra/system\redirect_region.c ****     {
 478              		.loc 1 229 8 is_stmt 0
 479 02f0 01C8     		beq	s0,zero,.L14
 480 02f2 2689     		mv	s2,s1
 481              	.L17:
 231:C:/Users/stapi/OneDrive/Desktop/GD32VW553/V1_MQTT_OK/GD32VW55X_Wifi_BLE_SDK/GD32VW55x_RELEASE_V1.0.2/MSDK/cloud/alicloud/src/infra/system\redirect_region.c ****     }
 482              		.loc 1 231 9 is_stmt 1
 483 02f4 2285     		mv	a0,s0
 484 02f6 97000000 		call	HAL_Free
 484      E7800000 
 485              	.LVL69:
 486 02fe CA84     		mv	s1,s2
 487              	.L14:
 233:C:/Users/stapi/OneDrive/Desktop/GD32VW553/V1_MQTT_OK/GD32VW55X_Wifi_BLE_SDK/GD32VW55x_RELEASE_V1.0.2/MSDK/cloud/alicloud/src/infra/system\redirect_region.c ****     {
 488              		.loc 1 233 5
 233:C:/Users/stapi/OneDrive/Desktop/GD32VW553/V1_MQTT_OK/GD32VW55X_Wifi_BLE_SDK/GD32VW55x_RELEASE_V1.0.2/MSDK/cloud/alicloud/src/infra/system\redirect_region.c ****     {
 489              		.loc 1 233 8 is_stmt 0
 490 0300 E38F04DC 		beq	s1,zero,.L1
 235:C:/Users/stapi/OneDrive/Desktop/GD32VW553/V1_MQTT_OK/GD32VW55X_Wifi_BLE_SDK/GD32VW55x_RELEASE_V1.0.2/MSDK/cloud/alicloud/src/infra/system\redirect_region.c ****     }
 491              		.loc 1 235 9 is_stmt 1
 492 0304 2685     		mv	a0,s1
 493 0306 97000000 		call	HAL_Free
 493      E7800000 
 494              	.LVL70:
 495 030e C1BB     		j	.L1
 496              	.LVL71:
 497              	.L11:
 205:C:/Users/stapi/OneDrive/Desktop/GD32VW553/V1_MQTT_OK/GD32VW55X_Wifi_BLE_SDK/GD32VW55x_RELEASE_V1.0.2/MSDK/cloud/alicloud/src/infra/system\redirect_region.c ****     HAL_Snprintf(p_mqtt_url, GUIDER_DYNAMIC_URL_LEN, "%s:%d", host, port);
 498              		.loc 1 205 5
 499 0310 13060010 		li	a2,256
 500 0314 8145     		li	a1,0
 501 0316 97000000 		call	memset
 501      E7800000 
 502              	.LVL72:
 206:C:/Users/stapi/OneDrive/Desktop/GD32VW553/V1_MQTT_OK/GD32VW55X_Wifi_BLE_SDK/GD32VW55x_RELEASE_V1.0.2/MSDK/cloud/alicloud/src/infra/system\redirect_region.c **** 
 503              		.loc 1 206 5
 504 031e 37060000 		lui	a2,%hi(.LC18)
 505 0322 5687     		mv	a4,s5
 506 0324 A286     		mv	a3,s0
 507 0326 13060600 		addi	a2,a2,%lo(.LC18)
 508 032a 93050010 		li	a1,256
 509 032e 2685     		mv	a0,s1
 510 0330 97000000 		call	HAL_Snprintf
 510      E7800000 
 511              	.LVL73:
 208:C:/Users/stapi/OneDrive/Desktop/GD32VW553/V1_MQTT_OK/GD32VW55X_Wifi_BLE_SDK/GD32VW55x_RELEASE_V1.0.2/MSDK/cloud/alicloud/src/infra/system\redirect_region.c **** 
 512              		.loc 1 208 5
 513 0338 2685     		mv	a0,s1
 514 033a 97000000 		call	iotx_guider_set_dynamic_mqtt_url
 514      E7800000 
 515              	.LVL74:
 210:C:/Users/stapi/OneDrive/Desktop/GD32VW553/V1_MQTT_OK/GD32VW55X_Wifi_BLE_SDK/GD32VW55x_RELEASE_V1.0.2/MSDK/cloud/alicloud/src/infra/system\redirect_region.c ****     if (callback)
 516              		.loc 1 210 5
 210:C:/Users/stapi/OneDrive/Desktop/GD32VW553/V1_MQTT_OK/GD32VW55X_Wifi_BLE_SDK/GD32VW55x_RELEASE_V1.0.2/MSDK/cloud/alicloud/src/infra/system\redirect_region.c ****     if (callback)
 517              		.loc 1 210 16 is_stmt 0
 518 0342 1145     		li	a0,4
 519 0344 97000000 		call	iotx_event_callback
 519      E7800000 
 520              	.LVL75:
 211:C:/Users/stapi/OneDrive/Desktop/GD32VW553/V1_MQTT_OK/GD32VW55X_Wifi_BLE_SDK/GD32VW55x_RELEASE_V1.0.2/MSDK/cloud/alicloud/src/infra/system\redirect_region.c ****     {
 521              		.loc 1 211 5 is_stmt 1
 211:C:/Users/stapi/OneDrive/Desktop/GD32VW553/V1_MQTT_OK/GD32VW55X_Wifi_BLE_SDK/GD32VW55x_RELEASE_V1.0.2/MSDK/cloud/alicloud/src/infra/system\redirect_region.c ****     {
 522              		.loc 1 211 8 is_stmt 0
 523 034c 51D5     		beq	a0,zero,.L15
 213:C:/Users/stapi/OneDrive/Desktop/GD32VW553/V1_MQTT_OK/GD32VW55X_Wifi_BLE_SDK/GD32VW55x_RELEASE_V1.0.2/MSDK/cloud/alicloud/src/infra/system\redirect_region.c ****     }
 524              		.loc 1 213 9 is_stmt 1
 213:C:/Users/stapi/OneDrive/Desktop/GD32VW553/V1_MQTT_OK/GD32VW55X_Wifi_BLE_SDK/GD32VW55x_RELEASE_V1.0.2/MSDK/cloud/alicloud/src/infra/system\redirect_region.c ****     }
 525              		.loc 1 213 10 is_stmt 0
 526 034e 0295     		jalr	a0
 527              	.LVL76:
 528 0350 61B7     		j	.L15
 529              	.LVL77:
 530              	.L18:
 221:C:/Users/stapi/OneDrive/Desktop/GD32VW553/V1_MQTT_OK/GD32VW55X_Wifi_BLE_SDK/GD32VW55x_RELEASE_V1.0.2/MSDK/cloud/alicloud/src/infra/system\redirect_region.c ****     {
 531              		.loc 1 221 8
 532 0352 8144     		li	s1,0
 533 0354 8149     		li	s3,0
 534 0356 49B7     		j	.L15
 535              		.cfi_endproc
 536              	.LFE20:
 538              		.section	.rodata.reconnect_msg_cb.str1.4,"aMS",@progbits,1
 539              		.align	2
 540              	.LC20:
 541 0000 7265636F 		.string	"reconnect_msg_cb called"
 541      6E6E6563 
 541      745F6D73 
 541      675F6362 
 541      2063616C 
 542              		.align	2
 543              	.LC21:
 544 0018 6E6F206D 		.string	"no msg"
 544      736700
 545 001f 00       		.align	2
 546              	.LC22:
 547 0020 6E6F2070 		.string	"no payload"
 547      61796C6F 
 547      616400
 548 002b 00       		.align	2
 549              	.LC23:
 550 002c 6576656E 		.string	"event type:%d err"
 550      74207479 
 550      70653A25 
 550      64206572 
 550      7200
 551 003e 0000     		.align	2
 552              	.LC24:
 553 0040 7265636F 		.string	"reconnect"
 553      6E6E6563 
 553      7400
 554 004a 0000     		.align	2
 555              	.LC25:
 556 004c 6D657468 		.string	"method"
 556      6F6400
 557 0053 00       		.align	2
 558              	.LC26:
 559 0054 6E6F206D 		.string	"no method"
 559      6574686F 
 559      6400
 560 005e 0000     		.align	2
 561              	.LC27:
 562 0060 7468696E 		.string	"thing.bootstrap.notify"
 562      672E626F 
 562      6F747374 
 562      7261702E 
 562      6E6F7469 
 563 0077 00       		.align	2
 564              	.LC28:
 565 0078 6D657468 		.string	"method:%s err"
 565      6F643A25 
 565      73206572 
 565      7200
 566 0086 0000     		.align	2
 567              	.LC29:
 568 0088 70617261 		.string	"params.cmd"
 568      6D732E63 
 568      6D6400
 569 0093 00       		.align	2
 570              	.LC30:
 571 0094 6E6F2063 		.string	"no cmd"
 571      6D6400
 572 009b 00       		.align	2
 573              	.LC31:
 574 009c 636D643A 		.string	"cmd:%s err"
 574      25732065 
 574      727200
 575 00a7 00       		.align	2
 576              	.LC32:
 577 00a8 7265636F 		.string	"reconnect parse err"
 577      6E6E6563 
 577      74207061 
 577      72736520 
 577      65727200 
 578              		.section	.text.reconnect_msg_cb,"ax",@progbits
 579              		.align	1
 581              	reconnect_msg_cb:
 582              	.LFB22:
 238:C:/Users/stapi/OneDrive/Desktop/GD32VW553/V1_MQTT_OK/GD32VW55X_Wifi_BLE_SDK/GD32VW55x_RELEASE_V1.0.2/MSDK/cloud/alicloud/src/infra/system\redirect_region.c **** 
 239:C:/Users/stapi/OneDrive/Desktop/GD32VW553/V1_MQTT_OK/GD32VW55X_Wifi_BLE_SDK/GD32VW55x_RELEASE_V1.0.2/MSDK/cloud/alicloud/src/infra/system\redirect_region.c **** int iotx_redirect_region_subscribe(void)
 240:C:/Users/stapi/OneDrive/Desktop/GD32VW553/V1_MQTT_OK/GD32VW55X_Wifi_BLE_SDK/GD32VW55x_RELEASE_V1.0.2/MSDK/cloud/alicloud/src/infra/system\redirect_region.c **** {
 241:C:/Users/stapi/OneDrive/Desktop/GD32VW553/V1_MQTT_OK/GD32VW55X_Wifi_BLE_SDK/GD32VW55x_RELEASE_V1.0.2/MSDK/cloud/alicloud/src/infra/system\redirect_region.c ****     int ret = 0;
 242:C:/Users/stapi/OneDrive/Desktop/GD32VW553/V1_MQTT_OK/GD32VW55X_Wifi_BLE_SDK/GD32VW55x_RELEASE_V1.0.2/MSDK/cloud/alicloud/src/infra/system\redirect_region.c ****     char *p_topic = NULL;
 243:C:/Users/stapi/OneDrive/Desktop/GD32VW553/V1_MQTT_OK/GD32VW55X_Wifi_BLE_SDK/GD32VW55x_RELEASE_V1.0.2/MSDK/cloud/alicloud/src/infra/system\redirect_region.c ****     iotx_device_info_t p_device;
 244:C:/Users/stapi/OneDrive/Desktop/GD32VW553/V1_MQTT_OK/GD32VW55X_Wifi_BLE_SDK/GD32VW55x_RELEASE_V1.0.2/MSDK/cloud/alicloud/src/infra/system\redirect_region.c **** 
 245:C:/Users/stapi/OneDrive/Desktop/GD32VW553/V1_MQTT_OK/GD32VW55X_Wifi_BLE_SDK/GD32VW55x_RELEASE_V1.0.2/MSDK/cloud/alicloud/src/infra/system\redirect_region.c ****     ret = iotx_device_info_get(&p_device);
 246:C:/Users/stapi/OneDrive/Desktop/GD32VW553/V1_MQTT_OK/GD32VW55X_Wifi_BLE_SDK/GD32VW55x_RELEASE_V1.0.2/MSDK/cloud/alicloud/src/infra/system\redirect_region.c ****     if (ret < 0)
 247:C:/Users/stapi/OneDrive/Desktop/GD32VW553/V1_MQTT_OK/GD32VW55X_Wifi_BLE_SDK/GD32VW55x_RELEASE_V1.0.2/MSDK/cloud/alicloud/src/infra/system\redirect_region.c ****     {
 248:C:/Users/stapi/OneDrive/Desktop/GD32VW553/V1_MQTT_OK/GD32VW55X_Wifi_BLE_SDK/GD32VW55x_RELEASE_V1.0.2/MSDK/cloud/alicloud/src/infra/system\redirect_region.c ****         redirect_err("get device info err");
 249:C:/Users/stapi/OneDrive/Desktop/GD32VW553/V1_MQTT_OK/GD32VW55X_Wifi_BLE_SDK/GD32VW55x_RELEASE_V1.0.2/MSDK/cloud/alicloud/src/infra/system\redirect_region.c ****         goto ERROR;
 250:C:/Users/stapi/OneDrive/Desktop/GD32VW553/V1_MQTT_OK/GD32VW55X_Wifi_BLE_SDK/GD32VW55x_RELEASE_V1.0.2/MSDK/cloud/alicloud/src/infra/system\redirect_region.c ****     }
 251:C:/Users/stapi/OneDrive/Desktop/GD32VW553/V1_MQTT_OK/GD32VW55X_Wifi_BLE_SDK/GD32VW55x_RELEASE_V1.0.2/MSDK/cloud/alicloud/src/infra/system\redirect_region.c **** 
 252:C:/Users/stapi/OneDrive/Desktop/GD32VW553/V1_MQTT_OK/GD32VW55X_Wifi_BLE_SDK/GD32VW55x_RELEASE_V1.0.2/MSDK/cloud/alicloud/src/infra/system\redirect_region.c ****     p_topic = LITE_malloc(TOPIC_LENGTH);
 253:C:/Users/stapi/OneDrive/Desktop/GD32VW553/V1_MQTT_OK/GD32VW55X_Wifi_BLE_SDK/GD32VW55x_RELEASE_V1.0.2/MSDK/cloud/alicloud/src/infra/system\redirect_region.c ****     if (p_topic == NULL)
 254:C:/Users/stapi/OneDrive/Desktop/GD32VW553/V1_MQTT_OK/GD32VW55X_Wifi_BLE_SDK/GD32VW55x_RELEASE_V1.0.2/MSDK/cloud/alicloud/src/infra/system\redirect_region.c ****     {
 255:C:/Users/stapi/OneDrive/Desktop/GD32VW553/V1_MQTT_OK/GD32VW55X_Wifi_BLE_SDK/GD32VW55x_RELEASE_V1.0.2/MSDK/cloud/alicloud/src/infra/system\redirect_region.c ****         redirect_err("no mem");
 256:C:/Users/stapi/OneDrive/Desktop/GD32VW553/V1_MQTT_OK/GD32VW55X_Wifi_BLE_SDK/GD32VW55x_RELEASE_V1.0.2/MSDK/cloud/alicloud/src/infra/system\redirect_region.c ****         ret = -1;
 257:C:/Users/stapi/OneDrive/Desktop/GD32VW553/V1_MQTT_OK/GD32VW55X_Wifi_BLE_SDK/GD32VW55x_RELEASE_V1.0.2/MSDK/cloud/alicloud/src/infra/system\redirect_region.c ****         goto ERROR;
 258:C:/Users/stapi/OneDrive/Desktop/GD32VW553/V1_MQTT_OK/GD32VW55X_Wifi_BLE_SDK/GD32VW55x_RELEASE_V1.0.2/MSDK/cloud/alicloud/src/infra/system\redirect_region.c ****     }
 259:C:/Users/stapi/OneDrive/Desktop/GD32VW553/V1_MQTT_OK/GD32VW55X_Wifi_BLE_SDK/GD32VW55x_RELEASE_V1.0.2/MSDK/cloud/alicloud/src/infra/system\redirect_region.c **** 
 260:C:/Users/stapi/OneDrive/Desktop/GD32VW553/V1_MQTT_OK/GD32VW55X_Wifi_BLE_SDK/GD32VW55x_RELEASE_V1.0.2/MSDK/cloud/alicloud/src/infra/system\redirect_region.c ****     memset(p_topic, 0, TOPIC_LENGTH);
 261:C:/Users/stapi/OneDrive/Desktop/GD32VW553/V1_MQTT_OK/GD32VW55X_Wifi_BLE_SDK/GD32VW55x_RELEASE_V1.0.2/MSDK/cloud/alicloud/src/infra/system\redirect_region.c ****     snprintf(p_topic, TOPIC_LENGTH, REDIRECT_SUB_TOPIC, p_device.product_key, p_device.device_name)
 262:C:/Users/stapi/OneDrive/Desktop/GD32VW553/V1_MQTT_OK/GD32VW55X_Wifi_BLE_SDK/GD32VW55x_RELEASE_V1.0.2/MSDK/cloud/alicloud/src/infra/system\redirect_region.c ****     redirect_info("p_topic:%s", p_topic);
 263:C:/Users/stapi/OneDrive/Desktop/GD32VW553/V1_MQTT_OK/GD32VW55X_Wifi_BLE_SDK/GD32VW55x_RELEASE_V1.0.2/MSDK/cloud/alicloud/src/infra/system\redirect_region.c **** 
 264:C:/Users/stapi/OneDrive/Desktop/GD32VW553/V1_MQTT_OK/GD32VW55X_Wifi_BLE_SDK/GD32VW55x_RELEASE_V1.0.2/MSDK/cloud/alicloud/src/infra/system\redirect_region.c **** #ifdef MQTT_AUTO_SUBSCRIBE
 265:C:/Users/stapi/OneDrive/Desktop/GD32VW553/V1_MQTT_OK/GD32VW55X_Wifi_BLE_SDK/GD32VW55x_RELEASE_V1.0.2/MSDK/cloud/alicloud/src/infra/system\redirect_region.c ****     ret = IOT_MQTT_Subscribe(NULL, p_topic, IOTX_MQTT_QOS3_SUB_LOCAL, redirect_msg_cb, NULL);
 266:C:/Users/stapi/OneDrive/Desktop/GD32VW553/V1_MQTT_OK/GD32VW55X_Wifi_BLE_SDK/GD32VW55x_RELEASE_V1.0.2/MSDK/cloud/alicloud/src/infra/system\redirect_region.c **** #else
 267:C:/Users/stapi/OneDrive/Desktop/GD32VW553/V1_MQTT_OK/GD32VW55X_Wifi_BLE_SDK/GD32VW55x_RELEASE_V1.0.2/MSDK/cloud/alicloud/src/infra/system\redirect_region.c ****     ret = IOT_MQTT_Subscribe(NULL, p_topic, IOTX_MQTT_QOS0, redirect_msg_cb, NULL);
 268:C:/Users/stapi/OneDrive/Desktop/GD32VW553/V1_MQTT_OK/GD32VW55X_Wifi_BLE_SDK/GD32VW55x_RELEASE_V1.0.2/MSDK/cloud/alicloud/src/infra/system\redirect_region.c **** #endif
 269:C:/Users/stapi/OneDrive/Desktop/GD32VW553/V1_MQTT_OK/GD32VW55X_Wifi_BLE_SDK/GD32VW55x_RELEASE_V1.0.2/MSDK/cloud/alicloud/src/infra/system\redirect_region.c **** 
 270:C:/Users/stapi/OneDrive/Desktop/GD32VW553/V1_MQTT_OK/GD32VW55X_Wifi_BLE_SDK/GD32VW55x_RELEASE_V1.0.2/MSDK/cloud/alicloud/src/infra/system\redirect_region.c ****     if (ret < 0)
 271:C:/Users/stapi/OneDrive/Desktop/GD32VW553/V1_MQTT_OK/GD32VW55X_Wifi_BLE_SDK/GD32VW55x_RELEASE_V1.0.2/MSDK/cloud/alicloud/src/infra/system\redirect_region.c ****     {
 272:C:/Users/stapi/OneDrive/Desktop/GD32VW553/V1_MQTT_OK/GD32VW55X_Wifi_BLE_SDK/GD32VW55x_RELEASE_V1.0.2/MSDK/cloud/alicloud/src/infra/system\redirect_region.c ****         redirect_err("sub failed");
 273:C:/Users/stapi/OneDrive/Desktop/GD32VW553/V1_MQTT_OK/GD32VW55X_Wifi_BLE_SDK/GD32VW55x_RELEASE_V1.0.2/MSDK/cloud/alicloud/src/infra/system\redirect_region.c ****     }
 274:C:/Users/stapi/OneDrive/Desktop/GD32VW553/V1_MQTT_OK/GD32VW55X_Wifi_BLE_SDK/GD32VW55x_RELEASE_V1.0.2/MSDK/cloud/alicloud/src/infra/system\redirect_region.c ****     else
 275:C:/Users/stapi/OneDrive/Desktop/GD32VW553/V1_MQTT_OK/GD32VW55X_Wifi_BLE_SDK/GD32VW55x_RELEASE_V1.0.2/MSDK/cloud/alicloud/src/infra/system\redirect_region.c ****     {
 276:C:/Users/stapi/OneDrive/Desktop/GD32VW553/V1_MQTT_OK/GD32VW55X_Wifi_BLE_SDK/GD32VW55x_RELEASE_V1.0.2/MSDK/cloud/alicloud/src/infra/system\redirect_region.c ****         redirect_info("sub success");
 277:C:/Users/stapi/OneDrive/Desktop/GD32VW553/V1_MQTT_OK/GD32VW55X_Wifi_BLE_SDK/GD32VW55x_RELEASE_V1.0.2/MSDK/cloud/alicloud/src/infra/system\redirect_region.c ****     }
 278:C:/Users/stapi/OneDrive/Desktop/GD32VW553/V1_MQTT_OK/GD32VW55X_Wifi_BLE_SDK/GD32VW55x_RELEASE_V1.0.2/MSDK/cloud/alicloud/src/infra/system\redirect_region.c **** 
 279:C:/Users/stapi/OneDrive/Desktop/GD32VW553/V1_MQTT_OK/GD32VW55X_Wifi_BLE_SDK/GD32VW55x_RELEASE_V1.0.2/MSDK/cloud/alicloud/src/infra/system\redirect_region.c **** ERROR:
 280:C:/Users/stapi/OneDrive/Desktop/GD32VW553/V1_MQTT_OK/GD32VW55X_Wifi_BLE_SDK/GD32VW55x_RELEASE_V1.0.2/MSDK/cloud/alicloud/src/infra/system\redirect_region.c ****     if (p_topic)
 281:C:/Users/stapi/OneDrive/Desktop/GD32VW553/V1_MQTT_OK/GD32VW55X_Wifi_BLE_SDK/GD32VW55x_RELEASE_V1.0.2/MSDK/cloud/alicloud/src/infra/system\redirect_region.c ****     {
 282:C:/Users/stapi/OneDrive/Desktop/GD32VW553/V1_MQTT_OK/GD32VW55X_Wifi_BLE_SDK/GD32VW55x_RELEASE_V1.0.2/MSDK/cloud/alicloud/src/infra/system\redirect_region.c ****         LITE_free(p_topic);
 283:C:/Users/stapi/OneDrive/Desktop/GD32VW553/V1_MQTT_OK/GD32VW55X_Wifi_BLE_SDK/GD32VW55x_RELEASE_V1.0.2/MSDK/cloud/alicloud/src/infra/system\redirect_region.c ****     }
 284:C:/Users/stapi/OneDrive/Desktop/GD32VW553/V1_MQTT_OK/GD32VW55X_Wifi_BLE_SDK/GD32VW55x_RELEASE_V1.0.2/MSDK/cloud/alicloud/src/infra/system\redirect_region.c **** 
 285:C:/Users/stapi/OneDrive/Desktop/GD32VW553/V1_MQTT_OK/GD32VW55X_Wifi_BLE_SDK/GD32VW55x_RELEASE_V1.0.2/MSDK/cloud/alicloud/src/infra/system\redirect_region.c ****     return ret;
 286:C:/Users/stapi/OneDrive/Desktop/GD32VW553/V1_MQTT_OK/GD32VW55X_Wifi_BLE_SDK/GD32VW55x_RELEASE_V1.0.2/MSDK/cloud/alicloud/src/infra/system\redirect_region.c **** }
 287:C:/Users/stapi/OneDrive/Desktop/GD32VW553/V1_MQTT_OK/GD32VW55X_Wifi_BLE_SDK/GD32VW55x_RELEASE_V1.0.2/MSDK/cloud/alicloud/src/infra/system\redirect_region.c **** 
 288:C:/Users/stapi/OneDrive/Desktop/GD32VW553/V1_MQTT_OK/GD32VW55X_Wifi_BLE_SDK/GD32VW55x_RELEASE_V1.0.2/MSDK/cloud/alicloud/src/infra/system\redirect_region.c **** /*
 289:C:/Users/stapi/OneDrive/Desktop/GD32VW553/V1_MQTT_OK/GD32VW55X_Wifi_BLE_SDK/GD32VW55x_RELEASE_V1.0.2/MSDK/cloud/alicloud/src/infra/system\redirect_region.c **** {
 290:C:/Users/stapi/OneDrive/Desktop/GD32VW553/V1_MQTT_OK/GD32VW55X_Wifi_BLE_SDK/GD32VW55x_RELEASE_V1.0.2/MSDK/cloud/alicloud/src/infra/system\redirect_region.c ****     "id": 123,
 291:C:/Users/stapi/OneDrive/Desktop/GD32VW553/V1_MQTT_OK/GD32VW55X_Wifi_BLE_SDK/GD32VW55x_RELEASE_V1.0.2/MSDK/cloud/alicloud/src/infra/system\redirect_region.c ****     "version": "1.0",
 292:C:/Users/stapi/OneDrive/Desktop/GD32VW553/V1_MQTT_OK/GD32VW55X_Wifi_BLE_SDK/GD32VW55x_RELEASE_V1.0.2/MSDK/cloud/alicloud/src/infra/system\redirect_region.c ****     "method": "thing.bootstrap.notify",
 293:C:/Users/stapi/OneDrive/Desktop/GD32VW553/V1_MQTT_OK/GD32VW55X_Wifi_BLE_SDK/GD32VW55x_RELEASE_V1.0.2/MSDK/cloud/alicloud/src/infra/system\redirect_region.c ****     "params": {
 294:C:/Users/stapi/OneDrive/Desktop/GD32VW553/V1_MQTT_OK/GD32VW55X_Wifi_BLE_SDK/GD32VW55x_RELEASE_V1.0.2/MSDK/cloud/alicloud/src/infra/system\redirect_region.c ****       "cmd": 0    //0:Means need device reconnect cloud
 295:C:/Users/stapi/OneDrive/Desktop/GD32VW553/V1_MQTT_OK/GD32VW55X_Wifi_BLE_SDK/GD32VW55x_RELEASE_V1.0.2/MSDK/cloud/alicloud/src/infra/system\redirect_region.c ****     }
 296:C:/Users/stapi/OneDrive/Desktop/GD32VW553/V1_MQTT_OK/GD32VW55X_Wifi_BLE_SDK/GD32VW55x_RELEASE_V1.0.2/MSDK/cloud/alicloud/src/infra/system\redirect_region.c **** }
 297:C:/Users/stapi/OneDrive/Desktop/GD32VW553/V1_MQTT_OK/GD32VW55X_Wifi_BLE_SDK/GD32VW55x_RELEASE_V1.0.2/MSDK/cloud/alicloud/src/infra/system\redirect_region.c **** {
 298:C:/Users/stapi/OneDrive/Desktop/GD32VW553/V1_MQTT_OK/GD32VW55X_Wifi_BLE_SDK/GD32VW55x_RELEASE_V1.0.2/MSDK/cloud/alicloud/src/infra/system\redirect_region.c ****     "id" : "123",
 299:C:/Users/stapi/OneDrive/Desktop/GD32VW553/V1_MQTT_OK/GD32VW55X_Wifi_BLE_SDK/GD32VW55x_RELEASE_V1.0.2/MSDK/cloud/alicloud/src/infra/system\redirect_region.c ****     "code":200,
 300:C:/Users/stapi/OneDrive/Desktop/GD32VW553/V1_MQTT_OK/GD32VW55X_Wifi_BLE_SDK/GD32VW55x_RELEASE_V1.0.2/MSDK/cloud/alicloud/src/infra/system\redirect_region.c ****     "data" : {}
 301:C:/Users/stapi/OneDrive/Desktop/GD32VW553/V1_MQTT_OK/GD32VW55X_Wifi_BLE_SDK/GD32VW55x_RELEASE_V1.0.2/MSDK/cloud/alicloud/src/infra/system\redirect_region.c **** }
 302:C:/Users/stapi/OneDrive/Desktop/GD32VW553/V1_MQTT_OK/GD32VW55X_Wifi_BLE_SDK/GD32VW55x_RELEASE_V1.0.2/MSDK/cloud/alicloud/src/infra/system\redirect_region.c **** */
 303:C:/Users/stapi/OneDrive/Desktop/GD32VW553/V1_MQTT_OK/GD32VW55X_Wifi_BLE_SDK/GD32VW55x_RELEASE_V1.0.2/MSDK/cloud/alicloud/src/infra/system\redirect_region.c **** static void reconnect_msg_cb(void *pcontext, void *pclient, iotx_mqtt_event_msg_pt msg)
 304:C:/Users/stapi/OneDrive/Desktop/GD32VW553/V1_MQTT_OK/GD32VW55X_Wifi_BLE_SDK/GD32VW55x_RELEASE_V1.0.2/MSDK/cloud/alicloud/src/infra/system\redirect_region.c **** {
 583              		.loc 1 304 1 is_stmt 1
 584              		.cfi_startproc
 585              	.LVL78:
 586 0000 17030000 		call	t0,__riscv_save_5
 586      E7020300 
 587              		.cfi_offset 20, -24
 588              		.cfi_offset 19, -20
 589              		.cfi_offset 18, -16
 590              		.cfi_offset 9, -12
 591              		.cfi_offset 8, -8
 592              		.cfi_offset 1, -4
 593              		.cfi_def_cfa_offset 32
 305:C:/Users/stapi/OneDrive/Desktop/GD32VW553/V1_MQTT_OK/GD32VW55X_Wifi_BLE_SDK/GD32VW55x_RELEASE_V1.0.2/MSDK/cloud/alicloud/src/infra/system\redirect_region.c ****     int id = 0;
 594              		.loc 1 305 5
 595              	.LVL79:
 306:C:/Users/stapi/OneDrive/Desktop/GD32VW553/V1_MQTT_OK/GD32VW55X_Wifi_BLE_SDK/GD32VW55x_RELEASE_V1.0.2/MSDK/cloud/alicloud/src/infra/system\redirect_region.c ****     int code = 200;
 596              		.loc 1 306 5
 307:C:/Users/stapi/OneDrive/Desktop/GD32VW553/V1_MQTT_OK/GD32VW55X_Wifi_BLE_SDK/GD32VW55x_RELEASE_V1.0.2/MSDK/cloud/alicloud/src/infra/system\redirect_region.c ****     char *p_method = NULL;
 597              		.loc 1 307 5
 308:C:/Users/stapi/OneDrive/Desktop/GD32VW553/V1_MQTT_OK/GD32VW55X_Wifi_BLE_SDK/GD32VW55x_RELEASE_V1.0.2/MSDK/cloud/alicloud/src/infra/system\redirect_region.c ****     char *p_param_cmd = NULL;
 598              		.loc 1 308 5
 309:C:/Users/stapi/OneDrive/Desktop/GD32VW553/V1_MQTT_OK/GD32VW55X_Wifi_BLE_SDK/GD32VW55x_RELEASE_V1.0.2/MSDK/cloud/alicloud/src/infra/system\redirect_region.c **** 
 310:C:/Users/stapi/OneDrive/Desktop/GD32VW553/V1_MQTT_OK/GD32VW55X_Wifi_BLE_SDK/GD32VW55x_RELEASE_V1.0.2/MSDK/cloud/alicloud/src/infra/system\redirect_region.c ****     char *payload = NULL;
 599              		.loc 1 310 5
 311:C:/Users/stapi/OneDrive/Desktop/GD32VW553/V1_MQTT_OK/GD32VW55X_Wifi_BLE_SDK/GD32VW55x_RELEASE_V1.0.2/MSDK/cloud/alicloud/src/infra/system\redirect_region.c ****     void *callback = NULL;
 600              		.loc 1 311 5
 312:C:/Users/stapi/OneDrive/Desktop/GD32VW553/V1_MQTT_OK/GD32VW55X_Wifi_BLE_SDK/GD32VW55x_RELEASE_V1.0.2/MSDK/cloud/alicloud/src/infra/system\redirect_region.c ****     iotx_mqtt_topic_info_pt ptopic_info = NULL;
 601              		.loc 1 312 5
 313:C:/Users/stapi/OneDrive/Desktop/GD32VW553/V1_MQTT_OK/GD32VW55X_Wifi_BLE_SDK/GD32VW55x_RELEASE_V1.0.2/MSDK/cloud/alicloud/src/infra/system\redirect_region.c **** 
 314:C:/Users/stapi/OneDrive/Desktop/GD32VW553/V1_MQTT_OK/GD32VW55X_Wifi_BLE_SDK/GD32VW55x_RELEASE_V1.0.2/MSDK/cloud/alicloud/src/infra/system\redirect_region.c ****     redirect_info("reconnect_msg_cb called");
 602              		.loc 1 314 5
 603              		.loc 1 314 5
 604 0008 370A0000 		lui	s4,%hi(.LC0)
 605 000c 13050A00 		addi	a0,s4,%lo(.LC0)
 606              	.LVL80:
 304:C:/Users/stapi/OneDrive/Desktop/GD32VW553/V1_MQTT_OK/GD32VW55X_Wifi_BLE_SDK/GD32VW55x_RELEASE_V1.0.2/MSDK/cloud/alicloud/src/infra/system\redirect_region.c ****     int id = 0;
 607              		.loc 1 304 1 is_stmt 0
 608 0010 B284     		mv	s1,a2
 609              		.loc 1 314 5
 610 0012 97000000 		call	HAL_Printf
 610      E7800000 
 611              	.LVL81:
 612              		.loc 1 314 5 is_stmt 1
 613 001a 37050000 		lui	a0,%hi(.LC20)
 614 001e 13050500 		addi	a0,a0,%lo(.LC20)
 615 0022 97000000 		call	HAL_Printf
 615      E7800000 
 616              	.LVL82:
 617              		.loc 1 314 5
 618 002a 37040000 		lui	s0,%hi(.LC2)
 619 002e 13050400 		addi	a0,s0,%lo(.LC2)
 620 0032 97000000 		call	HAL_Printf
 620      E7800000 
 621              	.LVL83:
 622              		.loc 1 314 5
 315:C:/Users/stapi/OneDrive/Desktop/GD32VW553/V1_MQTT_OK/GD32VW55X_Wifi_BLE_SDK/GD32VW55x_RELEASE_V1.0.2/MSDK/cloud/alicloud/src/infra/system\redirect_region.c ****     if (msg == NULL)
 623              		.loc 1 315 5
 624              		.loc 1 315 8 is_stmt 0
 625 003a 9DE8     		bne	s1,zero,.L38
 316:C:/Users/stapi/OneDrive/Desktop/GD32VW553/V1_MQTT_OK/GD32VW55X_Wifi_BLE_SDK/GD32VW55x_RELEASE_V1.0.2/MSDK/cloud/alicloud/src/infra/system\redirect_region.c ****     {
 317:C:/Users/stapi/OneDrive/Desktop/GD32VW553/V1_MQTT_OK/GD32VW55X_Wifi_BLE_SDK/GD32VW55x_RELEASE_V1.0.2/MSDK/cloud/alicloud/src/infra/system\redirect_region.c ****         redirect_err("params error");
 626              		.loc 1 317 9 is_stmt 1
 627              		.loc 1 317 9
 628 003c 37050000 		lui	a0,%hi(.LC3)
 629 0040 13050500 		addi	a0,a0,%lo(.LC3)
 630 0044 97000000 		call	HAL_Printf
 630      E7800000 
 631              	.LVL84:
 632              		.loc 1 317 9
 633 004c 37050000 		lui	a0,%hi(.LC4)
 634 0050 13050500 		addi	a0,a0,%lo(.LC4)
 635              	.LVL85:
 636              	.L62:
 318:C:/Users/stapi/OneDrive/Desktop/GD32VW553/V1_MQTT_OK/GD32VW55X_Wifi_BLE_SDK/GD32VW55x_RELEASE_V1.0.2/MSDK/cloud/alicloud/src/infra/system\redirect_region.c ****         return;
 319:C:/Users/stapi/OneDrive/Desktop/GD32VW553/V1_MQTT_OK/GD32VW55X_Wifi_BLE_SDK/GD32VW55x_RELEASE_V1.0.2/MSDK/cloud/alicloud/src/infra/system\redirect_region.c ****     }
 320:C:/Users/stapi/OneDrive/Desktop/GD32VW553/V1_MQTT_OK/GD32VW55X_Wifi_BLE_SDK/GD32VW55x_RELEASE_V1.0.2/MSDK/cloud/alicloud/src/infra/system\redirect_region.c **** 
 321:C:/Users/stapi/OneDrive/Desktop/GD32VW553/V1_MQTT_OK/GD32VW55X_Wifi_BLE_SDK/GD32VW55x_RELEASE_V1.0.2/MSDK/cloud/alicloud/src/infra/system\redirect_region.c ****     ptopic_info = (iotx_mqtt_topic_info_pt)msg->msg;
 322:C:/Users/stapi/OneDrive/Desktop/GD32VW553/V1_MQTT_OK/GD32VW55X_Wifi_BLE_SDK/GD32VW55x_RELEASE_V1.0.2/MSDK/cloud/alicloud/src/infra/system\redirect_region.c **** 
 323:C:/Users/stapi/OneDrive/Desktop/GD32VW553/V1_MQTT_OK/GD32VW55X_Wifi_BLE_SDK/GD32VW55x_RELEASE_V1.0.2/MSDK/cloud/alicloud/src/infra/system\redirect_region.c ****     if (ptopic_info == NULL)
 324:C:/Users/stapi/OneDrive/Desktop/GD32VW553/V1_MQTT_OK/GD32VW55X_Wifi_BLE_SDK/GD32VW55x_RELEASE_V1.0.2/MSDK/cloud/alicloud/src/infra/system\redirect_region.c ****     {
 325:C:/Users/stapi/OneDrive/Desktop/GD32VW553/V1_MQTT_OK/GD32VW55X_Wifi_BLE_SDK/GD32VW55x_RELEASE_V1.0.2/MSDK/cloud/alicloud/src/infra/system\redirect_region.c ****         redirect_err("no msg");
 637              		.loc 1 325 9 is_stmt 0
 638 0054 97000000 		call	HAL_Printf
 638      E7800000 
 639              	.LVL86:
 640              	.L63:
 641              		.loc 1 325 9 is_stmt 1
 642 005c 13050400 		addi	a0,s0,%lo(.LC2)
 643 0060 97000000 		call	HAL_Printf
 643      E7800000 
 644              	.LVL87:
 645              		.loc 1 325 9
 326:C:/Users/stapi/OneDrive/Desktop/GD32VW553/V1_MQTT_OK/GD32VW55X_Wifi_BLE_SDK/GD32VW55x_RELEASE_V1.0.2/MSDK/cloud/alicloud/src/infra/system\redirect_region.c ****         return;
 646              		.loc 1 326 9
 647              	.L37:
 327:C:/Users/stapi/OneDrive/Desktop/GD32VW553/V1_MQTT_OK/GD32VW55X_Wifi_BLE_SDK/GD32VW55x_RELEASE_V1.0.2/MSDK/cloud/alicloud/src/infra/system\redirect_region.c ****     }
 328:C:/Users/stapi/OneDrive/Desktop/GD32VW553/V1_MQTT_OK/GD32VW55X_Wifi_BLE_SDK/GD32VW55x_RELEASE_V1.0.2/MSDK/cloud/alicloud/src/infra/system\redirect_region.c **** 
 329:C:/Users/stapi/OneDrive/Desktop/GD32VW553/V1_MQTT_OK/GD32VW55X_Wifi_BLE_SDK/GD32VW55x_RELEASE_V1.0.2/MSDK/cloud/alicloud/src/infra/system\redirect_region.c ****     payload = (char *)ptopic_info->payload;
 330:C:/Users/stapi/OneDrive/Desktop/GD32VW553/V1_MQTT_OK/GD32VW55X_Wifi_BLE_SDK/GD32VW55x_RELEASE_V1.0.2/MSDK/cloud/alicloud/src/infra/system\redirect_region.c ****     if (payload == NULL)
 331:C:/Users/stapi/OneDrive/Desktop/GD32VW553/V1_MQTT_OK/GD32VW55X_Wifi_BLE_SDK/GD32VW55x_RELEASE_V1.0.2/MSDK/cloud/alicloud/src/infra/system\redirect_region.c ****     {
 332:C:/Users/stapi/OneDrive/Desktop/GD32VW553/V1_MQTT_OK/GD32VW55X_Wifi_BLE_SDK/GD32VW55x_RELEASE_V1.0.2/MSDK/cloud/alicloud/src/infra/system\redirect_region.c ****         redirect_err("no payload");
 333:C:/Users/stapi/OneDrive/Desktop/GD32VW553/V1_MQTT_OK/GD32VW55X_Wifi_BLE_SDK/GD32VW55x_RELEASE_V1.0.2/MSDK/cloud/alicloud/src/infra/system\redirect_region.c ****         return;
 334:C:/Users/stapi/OneDrive/Desktop/GD32VW553/V1_MQTT_OK/GD32VW55X_Wifi_BLE_SDK/GD32VW55x_RELEASE_V1.0.2/MSDK/cloud/alicloud/src/infra/system\redirect_region.c ****     }
 335:C:/Users/stapi/OneDrive/Desktop/GD32VW553/V1_MQTT_OK/GD32VW55X_Wifi_BLE_SDK/GD32VW55x_RELEASE_V1.0.2/MSDK/cloud/alicloud/src/infra/system\redirect_region.c **** 
 336:C:/Users/stapi/OneDrive/Desktop/GD32VW553/V1_MQTT_OK/GD32VW55X_Wifi_BLE_SDK/GD32VW55x_RELEASE_V1.0.2/MSDK/cloud/alicloud/src/infra/system\redirect_region.c ****     if (msg->event_type != IOTX_MQTT_EVENT_PUBLISH_RECEIVED)
 337:C:/Users/stapi/OneDrive/Desktop/GD32VW553/V1_MQTT_OK/GD32VW55X_Wifi_BLE_SDK/GD32VW55x_RELEASE_V1.0.2/MSDK/cloud/alicloud/src/infra/system\redirect_region.c ****     {
 338:C:/Users/stapi/OneDrive/Desktop/GD32VW553/V1_MQTT_OK/GD32VW55X_Wifi_BLE_SDK/GD32VW55x_RELEASE_V1.0.2/MSDK/cloud/alicloud/src/infra/system\redirect_region.c ****         redirect_info("event type:%d err", msg->event_type);
 339:C:/Users/stapi/OneDrive/Desktop/GD32VW553/V1_MQTT_OK/GD32VW55X_Wifi_BLE_SDK/GD32VW55x_RELEASE_V1.0.2/MSDK/cloud/alicloud/src/infra/system\redirect_region.c ****         return;
 340:C:/Users/stapi/OneDrive/Desktop/GD32VW553/V1_MQTT_OK/GD32VW55X_Wifi_BLE_SDK/GD32VW55x_RELEASE_V1.0.2/MSDK/cloud/alicloud/src/infra/system\redirect_region.c ****     }
 341:C:/Users/stapi/OneDrive/Desktop/GD32VW553/V1_MQTT_OK/GD32VW55X_Wifi_BLE_SDK/GD32VW55x_RELEASE_V1.0.2/MSDK/cloud/alicloud/src/infra/system\redirect_region.c **** 
 342:C:/Users/stapi/OneDrive/Desktop/GD32VW553/V1_MQTT_OK/GD32VW55X_Wifi_BLE_SDK/GD32VW55x_RELEASE_V1.0.2/MSDK/cloud/alicloud/src/infra/system\redirect_region.c **** #ifdef REDIRECT_DEBUG
 343:C:/Users/stapi/OneDrive/Desktop/GD32VW553/V1_MQTT_OK/GD32VW55X_Wifi_BLE_SDK/GD32VW55x_RELEASE_V1.0.2/MSDK/cloud/alicloud/src/infra/system\redirect_region.c ****     redirect_info("Topic: '%.*s' (Length: %d)",
 344:C:/Users/stapi/OneDrive/Desktop/GD32VW553/V1_MQTT_OK/GD32VW55X_Wifi_BLE_SDK/GD32VW55x_RELEASE_V1.0.2/MSDK/cloud/alicloud/src/infra/system\redirect_region.c ****                   ptopic_info->topic_len,
 345:C:/Users/stapi/OneDrive/Desktop/GD32VW553/V1_MQTT_OK/GD32VW55X_Wifi_BLE_SDK/GD32VW55x_RELEASE_V1.0.2/MSDK/cloud/alicloud/src/infra/system\redirect_region.c ****                   ptopic_info->ptopic,
 346:C:/Users/stapi/OneDrive/Desktop/GD32VW553/V1_MQTT_OK/GD32VW55X_Wifi_BLE_SDK/GD32VW55x_RELEASE_V1.0.2/MSDK/cloud/alicloud/src/infra/system\redirect_region.c ****                   ptopic_info->topic_len);
 347:C:/Users/stapi/OneDrive/Desktop/GD32VW553/V1_MQTT_OK/GD32VW55X_Wifi_BLE_SDK/GD32VW55x_RELEASE_V1.0.2/MSDK/cloud/alicloud/src/infra/system\redirect_region.c ****     redirect_info("Payload: '%.*s' (Length: %d)",
 348:C:/Users/stapi/OneDrive/Desktop/GD32VW553/V1_MQTT_OK/GD32VW55X_Wifi_BLE_SDK/GD32VW55x_RELEASE_V1.0.2/MSDK/cloud/alicloud/src/infra/system\redirect_region.c ****                   ptopic_info->payload_len,
 349:C:/Users/stapi/OneDrive/Desktop/GD32VW553/V1_MQTT_OK/GD32VW55X_Wifi_BLE_SDK/GD32VW55x_RELEASE_V1.0.2/MSDK/cloud/alicloud/src/infra/system\redirect_region.c ****                   ptopic_info->payload,
 350:C:/Users/stapi/OneDrive/Desktop/GD32VW553/V1_MQTT_OK/GD32VW55X_Wifi_BLE_SDK/GD32VW55x_RELEASE_V1.0.2/MSDK/cloud/alicloud/src/infra/system\redirect_region.c ****                   ptopic_info->payload_len);
 351:C:/Users/stapi/OneDrive/Desktop/GD32VW553/V1_MQTT_OK/GD32VW55X_Wifi_BLE_SDK/GD32VW55x_RELEASE_V1.0.2/MSDK/cloud/alicloud/src/infra/system\redirect_region.c **** #endif
 352:C:/Users/stapi/OneDrive/Desktop/GD32VW553/V1_MQTT_OK/GD32VW55X_Wifi_BLE_SDK/GD32VW55x_RELEASE_V1.0.2/MSDK/cloud/alicloud/src/infra/system\redirect_region.c **** 
 353:C:/Users/stapi/OneDrive/Desktop/GD32VW553/V1_MQTT_OK/GD32VW55X_Wifi_BLE_SDK/GD32VW55x_RELEASE_V1.0.2/MSDK/cloud/alicloud/src/infra/system\redirect_region.c ****     p_method = LITE_json_value_of(RECONNECT_MSG_METHOD, payload, MEM_MAGIC, "reconnect");
 354:C:/Users/stapi/OneDrive/Desktop/GD32VW553/V1_MQTT_OK/GD32VW55X_Wifi_BLE_SDK/GD32VW55x_RELEASE_V1.0.2/MSDK/cloud/alicloud/src/infra/system\redirect_region.c ****     if (!p_method)
 355:C:/Users/stapi/OneDrive/Desktop/GD32VW553/V1_MQTT_OK/GD32VW55X_Wifi_BLE_SDK/GD32VW55x_RELEASE_V1.0.2/MSDK/cloud/alicloud/src/infra/system\redirect_region.c ****     {
 356:C:/Users/stapi/OneDrive/Desktop/GD32VW553/V1_MQTT_OK/GD32VW55X_Wifi_BLE_SDK/GD32VW55x_RELEASE_V1.0.2/MSDK/cloud/alicloud/src/infra/system\redirect_region.c ****         redirect_err("no method");
 357:C:/Users/stapi/OneDrive/Desktop/GD32VW553/V1_MQTT_OK/GD32VW55X_Wifi_BLE_SDK/GD32VW55x_RELEASE_V1.0.2/MSDK/cloud/alicloud/src/infra/system\redirect_region.c ****         code = JSON_PARSE_ERROR;
 358:C:/Users/stapi/OneDrive/Desktop/GD32VW553/V1_MQTT_OK/GD32VW55X_Wifi_BLE_SDK/GD32VW55x_RELEASE_V1.0.2/MSDK/cloud/alicloud/src/infra/system\redirect_region.c ****         goto ERROR;
 359:C:/Users/stapi/OneDrive/Desktop/GD32VW553/V1_MQTT_OK/GD32VW55X_Wifi_BLE_SDK/GD32VW55x_RELEASE_V1.0.2/MSDK/cloud/alicloud/src/infra/system\redirect_region.c ****     }
 360:C:/Users/stapi/OneDrive/Desktop/GD32VW553/V1_MQTT_OK/GD32VW55X_Wifi_BLE_SDK/GD32VW55x_RELEASE_V1.0.2/MSDK/cloud/alicloud/src/infra/system\redirect_region.c **** 
 361:C:/Users/stapi/OneDrive/Desktop/GD32VW553/V1_MQTT_OK/GD32VW55X_Wifi_BLE_SDK/GD32VW55x_RELEASE_V1.0.2/MSDK/cloud/alicloud/src/infra/system\redirect_region.c ****     if (strncmp(p_method, RECONNECT_METHOD, strlen(RECONNECT_METHOD)))
 362:C:/Users/stapi/OneDrive/Desktop/GD32VW553/V1_MQTT_OK/GD32VW55X_Wifi_BLE_SDK/GD32VW55x_RELEASE_V1.0.2/MSDK/cloud/alicloud/src/infra/system\redirect_region.c ****     {
 363:C:/Users/stapi/OneDrive/Desktop/GD32VW553/V1_MQTT_OK/GD32VW55X_Wifi_BLE_SDK/GD32VW55x_RELEASE_V1.0.2/MSDK/cloud/alicloud/src/infra/system\redirect_region.c ****         redirect_err("method:%s err", p_method);
 364:C:/Users/stapi/OneDrive/Desktop/GD32VW553/V1_MQTT_OK/GD32VW55X_Wifi_BLE_SDK/GD32VW55x_RELEASE_V1.0.2/MSDK/cloud/alicloud/src/infra/system\redirect_region.c ****         code = JSON_PARSE_ERROR;
 365:C:/Users/stapi/OneDrive/Desktop/GD32VW553/V1_MQTT_OK/GD32VW55X_Wifi_BLE_SDK/GD32VW55x_RELEASE_V1.0.2/MSDK/cloud/alicloud/src/infra/system\redirect_region.c ****         goto ERROR;
 366:C:/Users/stapi/OneDrive/Desktop/GD32VW553/V1_MQTT_OK/GD32VW55X_Wifi_BLE_SDK/GD32VW55x_RELEASE_V1.0.2/MSDK/cloud/alicloud/src/infra/system\redirect_region.c ****     }
 367:C:/Users/stapi/OneDrive/Desktop/GD32VW553/V1_MQTT_OK/GD32VW55X_Wifi_BLE_SDK/GD32VW55x_RELEASE_V1.0.2/MSDK/cloud/alicloud/src/infra/system\redirect_region.c **** 
 368:C:/Users/stapi/OneDrive/Desktop/GD32VW553/V1_MQTT_OK/GD32VW55X_Wifi_BLE_SDK/GD32VW55x_RELEASE_V1.0.2/MSDK/cloud/alicloud/src/infra/system\redirect_region.c ****     p_param_cmd = LITE_json_value_of(RECONNECT_MSG_PARAM_CMD, payload, MEM_MAGIC, "reconnect");
 369:C:/Users/stapi/OneDrive/Desktop/GD32VW553/V1_MQTT_OK/GD32VW55X_Wifi_BLE_SDK/GD32VW55x_RELEASE_V1.0.2/MSDK/cloud/alicloud/src/infra/system\redirect_region.c ****     if (!p_param_cmd)
 370:C:/Users/stapi/OneDrive/Desktop/GD32VW553/V1_MQTT_OK/GD32VW55X_Wifi_BLE_SDK/GD32VW55x_RELEASE_V1.0.2/MSDK/cloud/alicloud/src/infra/system\redirect_region.c ****     {
 371:C:/Users/stapi/OneDrive/Desktop/GD32VW553/V1_MQTT_OK/GD32VW55X_Wifi_BLE_SDK/GD32VW55x_RELEASE_V1.0.2/MSDK/cloud/alicloud/src/infra/system\redirect_region.c ****         redirect_err("no cmd");
 372:C:/Users/stapi/OneDrive/Desktop/GD32VW553/V1_MQTT_OK/GD32VW55X_Wifi_BLE_SDK/GD32VW55x_RELEASE_V1.0.2/MSDK/cloud/alicloud/src/infra/system\redirect_region.c ****         code = JSON_PARSE_ERROR;
 373:C:/Users/stapi/OneDrive/Desktop/GD32VW553/V1_MQTT_OK/GD32VW55X_Wifi_BLE_SDK/GD32VW55x_RELEASE_V1.0.2/MSDK/cloud/alicloud/src/infra/system\redirect_region.c ****         goto ERROR;
 374:C:/Users/stapi/OneDrive/Desktop/GD32VW553/V1_MQTT_OK/GD32VW55X_Wifi_BLE_SDK/GD32VW55x_RELEASE_V1.0.2/MSDK/cloud/alicloud/src/infra/system\redirect_region.c ****     }
 375:C:/Users/stapi/OneDrive/Desktop/GD32VW553/V1_MQTT_OK/GD32VW55X_Wifi_BLE_SDK/GD32VW55x_RELEASE_V1.0.2/MSDK/cloud/alicloud/src/infra/system\redirect_region.c **** 
 376:C:/Users/stapi/OneDrive/Desktop/GD32VW553/V1_MQTT_OK/GD32VW55X_Wifi_BLE_SDK/GD32VW55x_RELEASE_V1.0.2/MSDK/cloud/alicloud/src/infra/system\redirect_region.c ****     if (strncmp(p_param_cmd, RECONNECT_CMD_RECONNECT, strlen(RECONNECT_CMD_RECONNECT)))
 377:C:/Users/stapi/OneDrive/Desktop/GD32VW553/V1_MQTT_OK/GD32VW55X_Wifi_BLE_SDK/GD32VW55x_RELEASE_V1.0.2/MSDK/cloud/alicloud/src/infra/system\redirect_region.c ****     {
 378:C:/Users/stapi/OneDrive/Desktop/GD32VW553/V1_MQTT_OK/GD32VW55X_Wifi_BLE_SDK/GD32VW55x_RELEASE_V1.0.2/MSDK/cloud/alicloud/src/infra/system\redirect_region.c ****         redirect_err("cmd:%s err", p_param_cmd);
 379:C:/Users/stapi/OneDrive/Desktop/GD32VW553/V1_MQTT_OK/GD32VW55X_Wifi_BLE_SDK/GD32VW55x_RELEASE_V1.0.2/MSDK/cloud/alicloud/src/infra/system\redirect_region.c ****         code = JSON_PARSE_ERROR;
 380:C:/Users/stapi/OneDrive/Desktop/GD32VW553/V1_MQTT_OK/GD32VW55X_Wifi_BLE_SDK/GD32VW55x_RELEASE_V1.0.2/MSDK/cloud/alicloud/src/infra/system\redirect_region.c ****         goto ERROR;
 381:C:/Users/stapi/OneDrive/Desktop/GD32VW553/V1_MQTT_OK/GD32VW55X_Wifi_BLE_SDK/GD32VW55x_RELEASE_V1.0.2/MSDK/cloud/alicloud/src/infra/system\redirect_region.c ****     }
 382:C:/Users/stapi/OneDrive/Desktop/GD32VW553/V1_MQTT_OK/GD32VW55X_Wifi_BLE_SDK/GD32VW55x_RELEASE_V1.0.2/MSDK/cloud/alicloud/src/infra/system\redirect_region.c **** 
 383:C:/Users/stapi/OneDrive/Desktop/GD32VW553/V1_MQTT_OK/GD32VW55X_Wifi_BLE_SDK/GD32VW55x_RELEASE_V1.0.2/MSDK/cloud/alicloud/src/infra/system\redirect_region.c ****     iotx_guider_clear_dynamic_url();
 384:C:/Users/stapi/OneDrive/Desktop/GD32VW553/V1_MQTT_OK/GD32VW55X_Wifi_BLE_SDK/GD32VW55x_RELEASE_V1.0.2/MSDK/cloud/alicloud/src/infra/system\redirect_region.c **** 
 385:C:/Users/stapi/OneDrive/Desktop/GD32VW553/V1_MQTT_OK/GD32VW55X_Wifi_BLE_SDK/GD32VW55x_RELEASE_V1.0.2/MSDK/cloud/alicloud/src/infra/system\redirect_region.c ****     callback = iotx_event_callback(ITE_REDIRECT);
 386:C:/Users/stapi/OneDrive/Desktop/GD32VW553/V1_MQTT_OK/GD32VW55X_Wifi_BLE_SDK/GD32VW55x_RELEASE_V1.0.2/MSDK/cloud/alicloud/src/infra/system\redirect_region.c ****     if (callback)
 387:C:/Users/stapi/OneDrive/Desktop/GD32VW553/V1_MQTT_OK/GD32VW55X_Wifi_BLE_SDK/GD32VW55x_RELEASE_V1.0.2/MSDK/cloud/alicloud/src/infra/system\redirect_region.c ****     {
 388:C:/Users/stapi/OneDrive/Desktop/GD32VW553/V1_MQTT_OK/GD32VW55X_Wifi_BLE_SDK/GD32VW55x_RELEASE_V1.0.2/MSDK/cloud/alicloud/src/infra/system\redirect_region.c ****         ((int (*)(void))callback)();
 389:C:/Users/stapi/OneDrive/Desktop/GD32VW553/V1_MQTT_OK/GD32VW55X_Wifi_BLE_SDK/GD32VW55x_RELEASE_V1.0.2/MSDK/cloud/alicloud/src/infra/system\redirect_region.c ****     }
 390:C:/Users/stapi/OneDrive/Desktop/GD32VW553/V1_MQTT_OK/GD32VW55X_Wifi_BLE_SDK/GD32VW55x_RELEASE_V1.0.2/MSDK/cloud/alicloud/src/infra/system\redirect_region.c **** 
 391:C:/Users/stapi/OneDrive/Desktop/GD32VW553/V1_MQTT_OK/GD32VW55X_Wifi_BLE_SDK/GD32VW55x_RELEASE_V1.0.2/MSDK/cloud/alicloud/src/infra/system\redirect_region.c **** ERROR:
 392:C:/Users/stapi/OneDrive/Desktop/GD32VW553/V1_MQTT_OK/GD32VW55X_Wifi_BLE_SDK/GD32VW55x_RELEASE_V1.0.2/MSDK/cloud/alicloud/src/infra/system\redirect_region.c ****     if (code != 200)
 393:C:/Users/stapi/OneDrive/Desktop/GD32VW553/V1_MQTT_OK/GD32VW55X_Wifi_BLE_SDK/GD32VW55x_RELEASE_V1.0.2/MSDK/cloud/alicloud/src/infra/system\redirect_region.c ****     {
 394:C:/Users/stapi/OneDrive/Desktop/GD32VW553/V1_MQTT_OK/GD32VW55X_Wifi_BLE_SDK/GD32VW55x_RELEASE_V1.0.2/MSDK/cloud/alicloud/src/infra/system\redirect_region.c ****         redirect_err("reconnect parse err");
 395:C:/Users/stapi/OneDrive/Desktop/GD32VW553/V1_MQTT_OK/GD32VW55X_Wifi_BLE_SDK/GD32VW55x_RELEASE_V1.0.2/MSDK/cloud/alicloud/src/infra/system\redirect_region.c ****     }
 396:C:/Users/stapi/OneDrive/Desktop/GD32VW553/V1_MQTT_OK/GD32VW55X_Wifi_BLE_SDK/GD32VW55x_RELEASE_V1.0.2/MSDK/cloud/alicloud/src/infra/system\redirect_region.c ****     if (p_method)
 397:C:/Users/stapi/OneDrive/Desktop/GD32VW553/V1_MQTT_OK/GD32VW55X_Wifi_BLE_SDK/GD32VW55x_RELEASE_V1.0.2/MSDK/cloud/alicloud/src/infra/system\redirect_region.c ****     {
 398:C:/Users/stapi/OneDrive/Desktop/GD32VW553/V1_MQTT_OK/GD32VW55X_Wifi_BLE_SDK/GD32VW55x_RELEASE_V1.0.2/MSDK/cloud/alicloud/src/infra/system\redirect_region.c ****         HAL_Free(p_method);
 399:C:/Users/stapi/OneDrive/Desktop/GD32VW553/V1_MQTT_OK/GD32VW55X_Wifi_BLE_SDK/GD32VW55x_RELEASE_V1.0.2/MSDK/cloud/alicloud/src/infra/system\redirect_region.c ****     }
 400:C:/Users/stapi/OneDrive/Desktop/GD32VW553/V1_MQTT_OK/GD32VW55X_Wifi_BLE_SDK/GD32VW55x_RELEASE_V1.0.2/MSDK/cloud/alicloud/src/infra/system\redirect_region.c ****     if (p_param_cmd)
 401:C:/Users/stapi/OneDrive/Desktop/GD32VW553/V1_MQTT_OK/GD32VW55X_Wifi_BLE_SDK/GD32VW55x_RELEASE_V1.0.2/MSDK/cloud/alicloud/src/infra/system\redirect_region.c ****     {
 402:C:/Users/stapi/OneDrive/Desktop/GD32VW553/V1_MQTT_OK/GD32VW55X_Wifi_BLE_SDK/GD32VW55x_RELEASE_V1.0.2/MSDK/cloud/alicloud/src/infra/system\redirect_region.c ****         HAL_Free(p_param_cmd);
 403:C:/Users/stapi/OneDrive/Desktop/GD32VW553/V1_MQTT_OK/GD32VW55X_Wifi_BLE_SDK/GD32VW55x_RELEASE_V1.0.2/MSDK/cloud/alicloud/src/infra/system\redirect_region.c ****     }
 404:C:/Users/stapi/OneDrive/Desktop/GD32VW553/V1_MQTT_OK/GD32VW55X_Wifi_BLE_SDK/GD32VW55x_RELEASE_V1.0.2/MSDK/cloud/alicloud/src/infra/system\redirect_region.c **** }
 648              		.loc 1 404 1 is_stmt 0
 649 0068 17030000 		tail	__riscv_restore_5
 649      67000300 
 650              		.cfi_remember_state
 651              		.cfi_restore 20
 652              		.cfi_restore 19
 653              		.cfi_restore 18
 654              		.cfi_restore 9
 655              		.cfi_restore 8
 656              		.cfi_restore 1
 657              		.cfi_def_cfa_offset 0
 658              	.LVL88:
 659              	.L38:
 660              		.cfi_restore_state
 321:C:/Users/stapi/OneDrive/Desktop/GD32VW553/V1_MQTT_OK/GD32VW55X_Wifi_BLE_SDK/GD32VW55x_RELEASE_V1.0.2/MSDK/cloud/alicloud/src/infra/system\redirect_region.c **** 
 661              		.loc 1 321 5 is_stmt 1
 321:C:/Users/stapi/OneDrive/Desktop/GD32VW553/V1_MQTT_OK/GD32VW55X_Wifi_BLE_SDK/GD32VW55x_RELEASE_V1.0.2/MSDK/cloud/alicloud/src/infra/system\redirect_region.c **** 
 662              		.loc 1 321 17 is_stmt 0
 663 0070 DC40     		lw	a5,4(s1)
 664              	.LVL89:
 323:C:/Users/stapi/OneDrive/Desktop/GD32VW553/V1_MQTT_OK/GD32VW55X_Wifi_BLE_SDK/GD32VW55x_RELEASE_V1.0.2/MSDK/cloud/alicloud/src/infra/system\redirect_region.c ****     {
 665              		.loc 1 323 5 is_stmt 1
 323:C:/Users/stapi/OneDrive/Desktop/GD32VW553/V1_MQTT_OK/GD32VW55X_Wifi_BLE_SDK/GD32VW55x_RELEASE_V1.0.2/MSDK/cloud/alicloud/src/infra/system\redirect_region.c ****     {
 666              		.loc 1 323 8 is_stmt 0
 667 0072 91EF     		bne	a5,zero,.L40
 325:C:/Users/stapi/OneDrive/Desktop/GD32VW553/V1_MQTT_OK/GD32VW55X_Wifi_BLE_SDK/GD32VW55x_RELEASE_V1.0.2/MSDK/cloud/alicloud/src/infra/system\redirect_region.c ****         return;
 668              		.loc 1 325 9 is_stmt 1
 325:C:/Users/stapi/OneDrive/Desktop/GD32VW553/V1_MQTT_OK/GD32VW55X_Wifi_BLE_SDK/GD32VW55x_RELEASE_V1.0.2/MSDK/cloud/alicloud/src/infra/system\redirect_region.c ****         return;
 669              		.loc 1 325 9
 670 0074 37050000 		lui	a0,%hi(.LC3)
 671 0078 13050500 		addi	a0,a0,%lo(.LC3)
 672 007c 97000000 		call	HAL_Printf
 672      E7800000 
 673              	.LVL90:
 325:C:/Users/stapi/OneDrive/Desktop/GD32VW553/V1_MQTT_OK/GD32VW55X_Wifi_BLE_SDK/GD32VW55x_RELEASE_V1.0.2/MSDK/cloud/alicloud/src/infra/system\redirect_region.c ****         return;
 674              		.loc 1 325 9
 675 0084 37050000 		lui	a0,%hi(.LC21)
 676 0088 13050500 		addi	a0,a0,%lo(.LC21)
 677 008c E1B7     		j	.L62
 678              	.LVL91:
 679              	.L40:
 329:C:/Users/stapi/OneDrive/Desktop/GD32VW553/V1_MQTT_OK/GD32VW55X_Wifi_BLE_SDK/GD32VW55x_RELEASE_V1.0.2/MSDK/cloud/alicloud/src/infra/system\redirect_region.c ****     if (payload == NULL)
 680              		.loc 1 329 5
 329:C:/Users/stapi/OneDrive/Desktop/GD32VW553/V1_MQTT_OK/GD32VW55X_Wifi_BLE_SDK/GD32VW55x_RELEASE_V1.0.2/MSDK/cloud/alicloud/src/infra/system\redirect_region.c ****     if (payload == NULL)
 681              		.loc 1 329 13 is_stmt 0
 682 008e 83A90701 		lw	s3,16(a5)
 683              	.LVL92:
 330:C:/Users/stapi/OneDrive/Desktop/GD32VW553/V1_MQTT_OK/GD32VW55X_Wifi_BLE_SDK/GD32VW55x_RELEASE_V1.0.2/MSDK/cloud/alicloud/src/infra/system\redirect_region.c ****     {
 684              		.loc 1 330 5 is_stmt 1
 330:C:/Users/stapi/OneDrive/Desktop/GD32VW553/V1_MQTT_OK/GD32VW55X_Wifi_BLE_SDK/GD32VW55x_RELEASE_V1.0.2/MSDK/cloud/alicloud/src/infra/system\redirect_region.c ****     {
 685              		.loc 1 330 8 is_stmt 0
 686 0092 639F0900 		bne	s3,zero,.L41
 332:C:/Users/stapi/OneDrive/Desktop/GD32VW553/V1_MQTT_OK/GD32VW55X_Wifi_BLE_SDK/GD32VW55x_RELEASE_V1.0.2/MSDK/cloud/alicloud/src/infra/system\redirect_region.c ****         return;
 687              		.loc 1 332 9 is_stmt 1
 332:C:/Users/stapi/OneDrive/Desktop/GD32VW553/V1_MQTT_OK/GD32VW55X_Wifi_BLE_SDK/GD32VW55x_RELEASE_V1.0.2/MSDK/cloud/alicloud/src/infra/system\redirect_region.c ****         return;
 688              		.loc 1 332 9
 689 0096 37050000 		lui	a0,%hi(.LC3)
 690 009a 13050500 		addi	a0,a0,%lo(.LC3)
 691 009e 97000000 		call	HAL_Printf
 691      E7800000 
 692              	.LVL93:
 332:C:/Users/stapi/OneDrive/Desktop/GD32VW553/V1_MQTT_OK/GD32VW55X_Wifi_BLE_SDK/GD32VW55x_RELEASE_V1.0.2/MSDK/cloud/alicloud/src/infra/system\redirect_region.c ****         return;
 693              		.loc 1 332 9
 694 00a6 37050000 		lui	a0,%hi(.LC22)
 695 00aa 13050500 		addi	a0,a0,%lo(.LC22)
 696 00ae 5DB7     		j	.L62
 697              	.LVL94:
 698              	.L41:
 336:C:/Users/stapi/OneDrive/Desktop/GD32VW553/V1_MQTT_OK/GD32VW55X_Wifi_BLE_SDK/GD32VW55x_RELEASE_V1.0.2/MSDK/cloud/alicloud/src/infra/system\redirect_region.c ****     {
 699              		.loc 1 336 5
 336:C:/Users/stapi/OneDrive/Desktop/GD32VW553/V1_MQTT_OK/GD32VW55X_Wifi_BLE_SDK/GD32VW55x_RELEASE_V1.0.2/MSDK/cloud/alicloud/src/infra/system\redirect_region.c ****     {
 700              		.loc 1 336 8 is_stmt 0
 701 00b0 9840     		lw	a4,0(s1)
 702 00b2 B147     		li	a5,12
 703              	.LVL95:
 704 00b4 6302F702 		beq	a4,a5,.L42
 338:C:/Users/stapi/OneDrive/Desktop/GD32VW553/V1_MQTT_OK/GD32VW55X_Wifi_BLE_SDK/GD32VW55x_RELEASE_V1.0.2/MSDK/cloud/alicloud/src/infra/system\redirect_region.c ****         return;
 705              		.loc 1 338 9 is_stmt 1
 338:C:/Users/stapi/OneDrive/Desktop/GD32VW553/V1_MQTT_OK/GD32VW55X_Wifi_BLE_SDK/GD32VW55x_RELEASE_V1.0.2/MSDK/cloud/alicloud/src/infra/system\redirect_region.c ****         return;
 706              		.loc 1 338 9
 707 00b8 13050A00 		addi	a0,s4,%lo(.LC0)
 708 00bc 97000000 		call	HAL_Printf
 708      E7800000 
 709              	.LVL96:
 338:C:/Users/stapi/OneDrive/Desktop/GD32VW553/V1_MQTT_OK/GD32VW55X_Wifi_BLE_SDK/GD32VW55x_RELEASE_V1.0.2/MSDK/cloud/alicloud/src/infra/system\redirect_region.c ****         return;
 710              		.loc 1 338 9
 711 00c4 8C40     		lw	a1,0(s1)
 712 00c6 37050000 		lui	a0,%hi(.LC23)
 713 00ca 13050500 		addi	a0,a0,%lo(.LC23)
 714 00ce 97000000 		call	HAL_Printf
 714      E7800000 
 715              	.LVL97:
 338:C:/Users/stapi/OneDrive/Desktop/GD32VW553/V1_MQTT_OK/GD32VW55X_Wifi_BLE_SDK/GD32VW55x_RELEASE_V1.0.2/MSDK/cloud/alicloud/src/infra/system\redirect_region.c ****         return;
 716              		.loc 1 338 9
 717 00d6 59B7     		j	.L63
 718              	.LVL98:
 719              	.L42:
 720 00d8 2289     		mv	s2,s0
 353:C:/Users/stapi/OneDrive/Desktop/GD32VW553/V1_MQTT_OK/GD32VW55X_Wifi_BLE_SDK/GD32VW55x_RELEASE_V1.0.2/MSDK/cloud/alicloud/src/infra/system\redirect_region.c ****     if (!p_method)
 721              		.loc 1 353 5
 353:C:/Users/stapi/OneDrive/Desktop/GD32VW553/V1_MQTT_OK/GD32VW55X_Wifi_BLE_SDK/GD32VW55x_RELEASE_V1.0.2/MSDK/cloud/alicloud/src/infra/system\redirect_region.c ****     if (!p_method)
 722              		.loc 1 353 16 is_stmt 0
 723 00da 370A0000 		lui	s4,%hi(.LC24)
 724 00de 0564     		li	s0,4096
 725 00e0 37050000 		lui	a0,%hi(.LC25)
 726 00e4 93060A00 		addi	a3,s4,%lo(.LC24)
 727 00e8 13064423 		addi	a2,s0,564
 728 00ec CE85     		mv	a1,s3
 729 00ee 13050500 		addi	a0,a0,%lo(.LC25)
 730 00f2 97000000 		call	LITE_json_value_of
 730      E7800000 
 731              	.LVL99:
 732 00fa AA84     		mv	s1,a0
 733              	.LVL100:
 354:C:/Users/stapi/OneDrive/Desktop/GD32VW553/V1_MQTT_OK/GD32VW55X_Wifi_BLE_SDK/GD32VW55x_RELEASE_V1.0.2/MSDK/cloud/alicloud/src/infra/system\redirect_region.c ****     {
 734              		.loc 1 354 5 is_stmt 1
 354:C:/Users/stapi/OneDrive/Desktop/GD32VW553/V1_MQTT_OK/GD32VW55X_Wifi_BLE_SDK/GD32VW55x_RELEASE_V1.0.2/MSDK/cloud/alicloud/src/infra/system\redirect_region.c ****     {
 735              		.loc 1 354 8 is_stmt 0
 736 00fc 35E5     		bne	a0,zero,.L43
 356:C:/Users/stapi/OneDrive/Desktop/GD32VW553/V1_MQTT_OK/GD32VW55X_Wifi_BLE_SDK/GD32VW55x_RELEASE_V1.0.2/MSDK/cloud/alicloud/src/infra/system\redirect_region.c ****         code = JSON_PARSE_ERROR;
 737              		.loc 1 356 9 is_stmt 1
 356:C:/Users/stapi/OneDrive/Desktop/GD32VW553/V1_MQTT_OK/GD32VW55X_Wifi_BLE_SDK/GD32VW55x_RELEASE_V1.0.2/MSDK/cloud/alicloud/src/infra/system\redirect_region.c ****         code = JSON_PARSE_ERROR;
 738              		.loc 1 356 9
 739 00fe 37050000 		lui	a0,%hi(.LC3)
 740 0102 13050500 		addi	a0,a0,%lo(.LC3)
 741 0106 97000000 		call	HAL_Printf
 741      E7800000 
 742              	.LVL101:
 356:C:/Users/stapi/OneDrive/Desktop/GD32VW553/V1_MQTT_OK/GD32VW55X_Wifi_BLE_SDK/GD32VW55x_RELEASE_V1.0.2/MSDK/cloud/alicloud/src/infra/system\redirect_region.c ****         code = JSON_PARSE_ERROR;
 743              		.loc 1 356 9
 744 010e 37050000 		lui	a0,%hi(.LC26)
 745 0112 13050500 		addi	a0,a0,%lo(.LC26)
 746 0116 97000000 		call	HAL_Printf
 746      E7800000 
 747              	.LVL102:
 356:C:/Users/stapi/OneDrive/Desktop/GD32VW553/V1_MQTT_OK/GD32VW55X_Wifi_BLE_SDK/GD32VW55x_RELEASE_V1.0.2/MSDK/cloud/alicloud/src/infra/system\redirect_region.c ****         code = JSON_PARSE_ERROR;
 748              		.loc 1 356 9
 749              	.L60:
 363:C:/Users/stapi/OneDrive/Desktop/GD32VW553/V1_MQTT_OK/GD32VW55X_Wifi_BLE_SDK/GD32VW55x_RELEASE_V1.0.2/MSDK/cloud/alicloud/src/infra/system\redirect_region.c ****         code = JSON_PARSE_ERROR;
 750              		.loc 1 363 9
 751 011e 13050900 		addi	a0,s2,%lo(.LC2)
 752 0122 97000000 		call	HAL_Printf
 752      E7800000 
 753              	.LVL103:
 363:C:/Users/stapi/OneDrive/Desktop/GD32VW553/V1_MQTT_OK/GD32VW55X_Wifi_BLE_SDK/GD32VW55x_RELEASE_V1.0.2/MSDK/cloud/alicloud/src/infra/system\redirect_region.c ****         code = JSON_PARSE_ERROR;
 754              		.loc 1 363 9
 364:C:/Users/stapi/OneDrive/Desktop/GD32VW553/V1_MQTT_OK/GD32VW55X_Wifi_BLE_SDK/GD32VW55x_RELEASE_V1.0.2/MSDK/cloud/alicloud/src/infra/system\redirect_region.c ****         goto ERROR;
 755              		.loc 1 364 9
 365:C:/Users/stapi/OneDrive/Desktop/GD32VW553/V1_MQTT_OK/GD32VW55X_Wifi_BLE_SDK/GD32VW55x_RELEASE_V1.0.2/MSDK/cloud/alicloud/src/infra/system\redirect_region.c ****     }
 756              		.loc 1 365 9
 392:C:/Users/stapi/OneDrive/Desktop/GD32VW553/V1_MQTT_OK/GD32VW55X_Wifi_BLE_SDK/GD32VW55x_RELEASE_V1.0.2/MSDK/cloud/alicloud/src/infra/system\redirect_region.c ****     {
 757              		.loc 1 392 5
 308:C:/Users/stapi/OneDrive/Desktop/GD32VW553/V1_MQTT_OK/GD32VW55X_Wifi_BLE_SDK/GD32VW55x_RELEASE_V1.0.2/MSDK/cloud/alicloud/src/infra/system\redirect_region.c **** 
 758              		.loc 1 308 11 is_stmt 0
 759 012a 0144     		li	s0,0
 760              	.LVL104:
 761              	.L44:
 394:C:/Users/stapi/OneDrive/Desktop/GD32VW553/V1_MQTT_OK/GD32VW55X_Wifi_BLE_SDK/GD32VW55x_RELEASE_V1.0.2/MSDK/cloud/alicloud/src/infra/system\redirect_region.c ****     }
 762              		.loc 1 394 9 is_stmt 1
 394:C:/Users/stapi/OneDrive/Desktop/GD32VW553/V1_MQTT_OK/GD32VW55X_Wifi_BLE_SDK/GD32VW55x_RELEASE_V1.0.2/MSDK/cloud/alicloud/src/infra/system\redirect_region.c ****     }
 763              		.loc 1 394 9
 764 012c 37050000 		lui	a0,%hi(.LC3)
 765 0130 13050500 		addi	a0,a0,%lo(.LC3)
 766 0134 97000000 		call	HAL_Printf
 766      E7800000 
 767              	.LVL105:
 394:C:/Users/stapi/OneDrive/Desktop/GD32VW553/V1_MQTT_OK/GD32VW55X_Wifi_BLE_SDK/GD32VW55x_RELEASE_V1.0.2/MSDK/cloud/alicloud/src/infra/system\redirect_region.c ****     }
 768              		.loc 1 394 9
 769 013c 37050000 		lui	a0,%hi(.LC32)
 770 0140 13050500 		addi	a0,a0,%lo(.LC32)
 771 0144 97000000 		call	HAL_Printf
 771      E7800000 
 772              	.LVL106:
 394:C:/Users/stapi/OneDrive/Desktop/GD32VW553/V1_MQTT_OK/GD32VW55X_Wifi_BLE_SDK/GD32VW55x_RELEASE_V1.0.2/MSDK/cloud/alicloud/src/infra/system\redirect_region.c ****     }
 773              		.loc 1 394 9
 774 014c 13050900 		addi	a0,s2,%lo(.LC2)
 775 0150 97000000 		call	HAL_Printf
 775      E7800000 
 776              	.LVL107:
 394:C:/Users/stapi/OneDrive/Desktop/GD32VW553/V1_MQTT_OK/GD32VW55X_Wifi_BLE_SDK/GD32VW55x_RELEASE_V1.0.2/MSDK/cloud/alicloud/src/infra/system\redirect_region.c ****     }
 777              		.loc 1 394 9
 396:C:/Users/stapi/OneDrive/Desktop/GD32VW553/V1_MQTT_OK/GD32VW55X_Wifi_BLE_SDK/GD32VW55x_RELEASE_V1.0.2/MSDK/cloud/alicloud/src/infra/system\redirect_region.c ****     {
 778              		.loc 1 396 5
 396:C:/Users/stapi/OneDrive/Desktop/GD32VW553/V1_MQTT_OK/GD32VW55X_Wifi_BLE_SDK/GD32VW55x_RELEASE_V1.0.2/MSDK/cloud/alicloud/src/infra/system\redirect_region.c ****     {
 779              		.loc 1 396 8 is_stmt 0
 780 0158 E9EC     		bne	s1,zero,.L48
 781              	.LVL108:
 782              	.L49:
 400:C:/Users/stapi/OneDrive/Desktop/GD32VW553/V1_MQTT_OK/GD32VW55X_Wifi_BLE_SDK/GD32VW55x_RELEASE_V1.0.2/MSDK/cloud/alicloud/src/infra/system\redirect_region.c ****     {
 783              		.loc 1 400 5 is_stmt 1
 400:C:/Users/stapi/OneDrive/Desktop/GD32VW553/V1_MQTT_OK/GD32VW55X_Wifi_BLE_SDK/GD32VW55x_RELEASE_V1.0.2/MSDK/cloud/alicloud/src/infra/system\redirect_region.c ****     {
 784              		.loc 1 400 8 is_stmt 0
 785 015a 19D4     		beq	s0,zero,.L37
 402:C:/Users/stapi/OneDrive/Desktop/GD32VW553/V1_MQTT_OK/GD32VW55X_Wifi_BLE_SDK/GD32VW55x_RELEASE_V1.0.2/MSDK/cloud/alicloud/src/infra/system\redirect_region.c ****     }
 786              		.loc 1 402 9 is_stmt 1
 787 015c 2285     		mv	a0,s0
 788 015e 97000000 		call	HAL_Free
 788      E7800000 
 789              	.LVL109:
 790 0166 09B7     		j	.L37
 791              	.LVL110:
 792              	.L43:
 361:C:/Users/stapi/OneDrive/Desktop/GD32VW553/V1_MQTT_OK/GD32VW55X_Wifi_BLE_SDK/GD32VW55x_RELEASE_V1.0.2/MSDK/cloud/alicloud/src/infra/system\redirect_region.c ****     {
 793              		.loc 1 361 5
 361:C:/Users/stapi/OneDrive/Desktop/GD32VW553/V1_MQTT_OK/GD32VW55X_Wifi_BLE_SDK/GD32VW55x_RELEASE_V1.0.2/MSDK/cloud/alicloud/src/infra/system\redirect_region.c ****     {
 794              		.loc 1 361 9 is_stmt 0
 795 0168 B7050000 		lui	a1,%hi(.LC27)
 796 016c 5946     		li	a2,22
 797 016e 93850500 		addi	a1,a1,%lo(.LC27)
 798 0172 97000000 		call	strncmp
 798      E7800000 
 799              	.LVL111:
 361:C:/Users/stapi/OneDrive/Desktop/GD32VW553/V1_MQTT_OK/GD32VW55X_Wifi_BLE_SDK/GD32VW55x_RELEASE_V1.0.2/MSDK/cloud/alicloud/src/infra/system\redirect_region.c ****     {
 800              		.loc 1 361 8
 801 017a 1DC1     		beq	a0,zero,.L45
 363:C:/Users/stapi/OneDrive/Desktop/GD32VW553/V1_MQTT_OK/GD32VW55X_Wifi_BLE_SDK/GD32VW55x_RELEASE_V1.0.2/MSDK/cloud/alicloud/src/infra/system\redirect_region.c ****         code = JSON_PARSE_ERROR;
 802              		.loc 1 363 9 is_stmt 1
 363:C:/Users/stapi/OneDrive/Desktop/GD32VW553/V1_MQTT_OK/GD32VW55X_Wifi_BLE_SDK/GD32VW55x_RELEASE_V1.0.2/MSDK/cloud/alicloud/src/infra/system\redirect_region.c ****         code = JSON_PARSE_ERROR;
 803              		.loc 1 363 9
 804 017c 37050000 		lui	a0,%hi(.LC3)
 805 0180 13050500 		addi	a0,a0,%lo(.LC3)
 806 0184 97000000 		call	HAL_Printf
 806      E7800000 
 807              	.LVL112:
 363:C:/Users/stapi/OneDrive/Desktop/GD32VW553/V1_MQTT_OK/GD32VW55X_Wifi_BLE_SDK/GD32VW55x_RELEASE_V1.0.2/MSDK/cloud/alicloud/src/infra/system\redirect_region.c ****         code = JSON_PARSE_ERROR;
 808              		.loc 1 363 9
 809 018c 37050000 		lui	a0,%hi(.LC28)
 810 0190 A685     		mv	a1,s1
 811 0192 13050500 		addi	a0,a0,%lo(.LC28)
 812 0196 97000000 		call	HAL_Printf
 812      E7800000 
 813              	.LVL113:
 814 019e 41B7     		j	.L60
 815              	.L45:
 368:C:/Users/stapi/OneDrive/Desktop/GD32VW553/V1_MQTT_OK/GD32VW55X_Wifi_BLE_SDK/GD32VW55x_RELEASE_V1.0.2/MSDK/cloud/alicloud/src/infra/system\redirect_region.c ****     if (!p_param_cmd)
 816              		.loc 1 368 5
 368:C:/Users/stapi/OneDrive/Desktop/GD32VW553/V1_MQTT_OK/GD32VW55X_Wifi_BLE_SDK/GD32VW55x_RELEASE_V1.0.2/MSDK/cloud/alicloud/src/infra/system\redirect_region.c ****     if (!p_param_cmd)
 817              		.loc 1 368 19 is_stmt 0
 818 01a0 37050000 		lui	a0,%hi(.LC29)
 819 01a4 13064423 		addi	a2,s0,564
 820 01a8 93060A00 		addi	a3,s4,%lo(.LC24)
 821 01ac CE85     		mv	a1,s3
 822 01ae 13050500 		addi	a0,a0,%lo(.LC29)
 823 01b2 97000000 		call	LITE_json_value_of
 823      E7800000 
 824              	.LVL114:
 825 01ba 2A84     		mv	s0,a0
 826              	.LVL115:
 369:C:/Users/stapi/OneDrive/Desktop/GD32VW553/V1_MQTT_OK/GD32VW55X_Wifi_BLE_SDK/GD32VW55x_RELEASE_V1.0.2/MSDK/cloud/alicloud/src/infra/system\redirect_region.c ****     {
 827              		.loc 1 369 5 is_stmt 1
 369:C:/Users/stapi/OneDrive/Desktop/GD32VW553/V1_MQTT_OK/GD32VW55X_Wifi_BLE_SDK/GD32VW55x_RELEASE_V1.0.2/MSDK/cloud/alicloud/src/infra/system\redirect_region.c ****     {
 828              		.loc 1 369 8 is_stmt 0
 829 01bc 05E9     		bne	a0,zero,.L46
 371:C:/Users/stapi/OneDrive/Desktop/GD32VW553/V1_MQTT_OK/GD32VW55X_Wifi_BLE_SDK/GD32VW55x_RELEASE_V1.0.2/MSDK/cloud/alicloud/src/infra/system\redirect_region.c ****         code = JSON_PARSE_ERROR;
 830              		.loc 1 371 9 is_stmt 1
 371:C:/Users/stapi/OneDrive/Desktop/GD32VW553/V1_MQTT_OK/GD32VW55X_Wifi_BLE_SDK/GD32VW55x_RELEASE_V1.0.2/MSDK/cloud/alicloud/src/infra/system\redirect_region.c ****         code = JSON_PARSE_ERROR;
 831              		.loc 1 371 9
 832 01be 37050000 		lui	a0,%hi(.LC3)
 833 01c2 13050500 		addi	a0,a0,%lo(.LC3)
 834 01c6 97000000 		call	HAL_Printf
 834      E7800000 
 835              	.LVL116:
 371:C:/Users/stapi/OneDrive/Desktop/GD32VW553/V1_MQTT_OK/GD32VW55X_Wifi_BLE_SDK/GD32VW55x_RELEASE_V1.0.2/MSDK/cloud/alicloud/src/infra/system\redirect_region.c ****         code = JSON_PARSE_ERROR;
 836              		.loc 1 371 9
 837 01ce 37050000 		lui	a0,%hi(.LC30)
 838 01d2 13050500 		addi	a0,a0,%lo(.LC30)
 839 01d6 97000000 		call	HAL_Printf
 839      E7800000 
 840              	.LVL117:
 371:C:/Users/stapi/OneDrive/Desktop/GD32VW553/V1_MQTT_OK/GD32VW55X_Wifi_BLE_SDK/GD32VW55x_RELEASE_V1.0.2/MSDK/cloud/alicloud/src/infra/system\redirect_region.c ****         code = JSON_PARSE_ERROR;
 841              		.loc 1 371 9
 842              	.L61:
 378:C:/Users/stapi/OneDrive/Desktop/GD32VW553/V1_MQTT_OK/GD32VW55X_Wifi_BLE_SDK/GD32VW55x_RELEASE_V1.0.2/MSDK/cloud/alicloud/src/infra/system\redirect_region.c ****         code = JSON_PARSE_ERROR;
 843              		.loc 1 378 9
 844 01de 13050900 		addi	a0,s2,%lo(.LC2)
 845 01e2 97000000 		call	HAL_Printf
 845      E7800000 
 846              	.LVL118:
 378:C:/Users/stapi/OneDrive/Desktop/GD32VW553/V1_MQTT_OK/GD32VW55X_Wifi_BLE_SDK/GD32VW55x_RELEASE_V1.0.2/MSDK/cloud/alicloud/src/infra/system\redirect_region.c ****         code = JSON_PARSE_ERROR;
 847              		.loc 1 378 9
 379:C:/Users/stapi/OneDrive/Desktop/GD32VW553/V1_MQTT_OK/GD32VW55X_Wifi_BLE_SDK/GD32VW55x_RELEASE_V1.0.2/MSDK/cloud/alicloud/src/infra/system\redirect_region.c ****         goto ERROR;
 848              		.loc 1 379 9
 380:C:/Users/stapi/OneDrive/Desktop/GD32VW553/V1_MQTT_OK/GD32VW55X_Wifi_BLE_SDK/GD32VW55x_RELEASE_V1.0.2/MSDK/cloud/alicloud/src/infra/system\redirect_region.c ****     }
 849              		.loc 1 380 9
 392:C:/Users/stapi/OneDrive/Desktop/GD32VW553/V1_MQTT_OK/GD32VW55X_Wifi_BLE_SDK/GD32VW55x_RELEASE_V1.0.2/MSDK/cloud/alicloud/src/infra/system\redirect_region.c ****     {
 850              		.loc 1 392 5
 851 01ea 89B7     		j	.L44
 852              	.LVL119:
 853              	.L46:
 376:C:/Users/stapi/OneDrive/Desktop/GD32VW553/V1_MQTT_OK/GD32VW55X_Wifi_BLE_SDK/GD32VW55x_RELEASE_V1.0.2/MSDK/cloud/alicloud/src/infra/system\redirect_region.c ****     {
 854              		.loc 1 376 5
 376:C:/Users/stapi/OneDrive/Desktop/GD32VW553/V1_MQTT_OK/GD32VW55X_Wifi_BLE_SDK/GD32VW55x_RELEASE_V1.0.2/MSDK/cloud/alicloud/src/infra/system\redirect_region.c ****     {
 855              		.loc 1 376 8 is_stmt 0
 856 01ec 03470500 		lbu	a4,0(a0)
 857 01f0 93070003 		li	a5,48
 858 01f4 6304F702 		beq	a4,a5,.L47
 378:C:/Users/stapi/OneDrive/Desktop/GD32VW553/V1_MQTT_OK/GD32VW55X_Wifi_BLE_SDK/GD32VW55x_RELEASE_V1.0.2/MSDK/cloud/alicloud/src/infra/system\redirect_region.c ****         code = JSON_PARSE_ERROR;
 859              		.loc 1 378 9 is_stmt 1
 378:C:/Users/stapi/OneDrive/Desktop/GD32VW553/V1_MQTT_OK/GD32VW55X_Wifi_BLE_SDK/GD32VW55x_RELEASE_V1.0.2/MSDK/cloud/alicloud/src/infra/system\redirect_region.c ****         code = JSON_PARSE_ERROR;
 860              		.loc 1 378 9
 861 01f8 37050000 		lui	a0,%hi(.LC3)
 862 01fc 13050500 		addi	a0,a0,%lo(.LC3)
 863 0200 97000000 		call	HAL_Printf
 863      E7800000 
 864              	.LVL120:
 378:C:/Users/stapi/OneDrive/Desktop/GD32VW553/V1_MQTT_OK/GD32VW55X_Wifi_BLE_SDK/GD32VW55x_RELEASE_V1.0.2/MSDK/cloud/alicloud/src/infra/system\redirect_region.c ****         code = JSON_PARSE_ERROR;
 865              		.loc 1 378 9
 866 0208 37050000 		lui	a0,%hi(.LC31)
 867 020c A285     		mv	a1,s0
 868 020e 13050500 		addi	a0,a0,%lo(.LC31)
 869 0212 97000000 		call	HAL_Printf
 869      E7800000 
 870              	.LVL121:
 871 021a D1B7     		j	.L61
 872              	.L47:
 383:C:/Users/stapi/OneDrive/Desktop/GD32VW553/V1_MQTT_OK/GD32VW55X_Wifi_BLE_SDK/GD32VW55x_RELEASE_V1.0.2/MSDK/cloud/alicloud/src/infra/system\redirect_region.c **** 
 873              		.loc 1 383 5
 874 021c 97000000 		call	iotx_guider_clear_dynamic_url
 874      E7800000 
 875              	.LVL122:
 385:C:/Users/stapi/OneDrive/Desktop/GD32VW553/V1_MQTT_OK/GD32VW55X_Wifi_BLE_SDK/GD32VW55x_RELEASE_V1.0.2/MSDK/cloud/alicloud/src/infra/system\redirect_region.c ****     if (callback)
 876              		.loc 1 385 5
 385:C:/Users/stapi/OneDrive/Desktop/GD32VW553/V1_MQTT_OK/GD32VW55X_Wifi_BLE_SDK/GD32VW55x_RELEASE_V1.0.2/MSDK/cloud/alicloud/src/infra/system\redirect_region.c ****     if (callback)
 877              		.loc 1 385 16 is_stmt 0
 878 0224 1145     		li	a0,4
 879 0226 97000000 		call	iotx_event_callback
 879      E7800000 
 880              	.LVL123:
 386:C:/Users/stapi/OneDrive/Desktop/GD32VW553/V1_MQTT_OK/GD32VW55X_Wifi_BLE_SDK/GD32VW55x_RELEASE_V1.0.2/MSDK/cloud/alicloud/src/infra/system\redirect_region.c ****     {
 881              		.loc 1 386 5 is_stmt 1
 386:C:/Users/stapi/OneDrive/Desktop/GD32VW553/V1_MQTT_OK/GD32VW55X_Wifi_BLE_SDK/GD32VW55x_RELEASE_V1.0.2/MSDK/cloud/alicloud/src/infra/system\redirect_region.c ****     {
 882              		.loc 1 386 8 is_stmt 0
 883 022e 11C1     		beq	a0,zero,.L48
 388:C:/Users/stapi/OneDrive/Desktop/GD32VW553/V1_MQTT_OK/GD32VW55X_Wifi_BLE_SDK/GD32VW55x_RELEASE_V1.0.2/MSDK/cloud/alicloud/src/infra/system\redirect_region.c ****     }
 884              		.loc 1 388 9 is_stmt 1
 388:C:/Users/stapi/OneDrive/Desktop/GD32VW553/V1_MQTT_OK/GD32VW55X_Wifi_BLE_SDK/GD32VW55x_RELEASE_V1.0.2/MSDK/cloud/alicloud/src/infra/system\redirect_region.c ****     }
 885              		.loc 1 388 10 is_stmt 0
 886 0230 0295     		jalr	a0
 887              	.LVL124:
 392:C:/Users/stapi/OneDrive/Desktop/GD32VW553/V1_MQTT_OK/GD32VW55X_Wifi_BLE_SDK/GD32VW55x_RELEASE_V1.0.2/MSDK/cloud/alicloud/src/infra/system\redirect_region.c ****     {
 888              		.loc 1 392 5 is_stmt 1
 889              	.L48:
 398:C:/Users/stapi/OneDrive/Desktop/GD32VW553/V1_MQTT_OK/GD32VW55X_Wifi_BLE_SDK/GD32VW55x_RELEASE_V1.0.2/MSDK/cloud/alicloud/src/infra/system\redirect_region.c ****     }
 890              		.loc 1 398 9
 891 0232 2685     		mv	a0,s1
 892 0234 97000000 		call	HAL_Free
 892      E7800000 
 893              	.LVL125:
 894 023c 39BF     		j	.L49
 895              		.cfi_endproc
 896              	.LFE22:
 898              		.section	.rodata.iotx_redirect_region_subscribe.str1.4,"aMS",@progbits,1
 899              		.align	2
 900              	.LC33:
 901 0000 67657420 		.string	"get device info err"
 901      64657669 
 901      63652069 
 901      6E666F20 
 901      65727200 
 902              		.align	2
 903              	.LC34:
 904 0014 2F737973 		.string	"/sys/%s/%s/thing/bootstrap/config/push"
 904      2F25732F 
 904      25732F74 
 904      68696E67 
 904      2F626F6F 
 905 003b 00       		.align	2
 906              	.LC35:
 907 003c 705F746F 		.string	"p_topic:%s"
 907      7069633A 
 907      257300
 908 0047 00       		.align	2
 909              	.LC36:
 910 0048 73756220 		.string	"sub failed"
 910      6661696C 
 910      656400
 911 0053 00       		.align	2
 912              	.LC37:
 913 0054 73756220 		.string	"sub success"
 913      73756363 
 913      65737300 
 914              		.section	.text.iotx_redirect_region_subscribe,"ax",@progbits
 915              		.align	1
 916              		.globl	iotx_redirect_region_subscribe
 918              	iotx_redirect_region_subscribe:
 919              	.LFB21:
 240:C:/Users/stapi/OneDrive/Desktop/GD32VW553/V1_MQTT_OK/GD32VW55X_Wifi_BLE_SDK/GD32VW55x_RELEASE_V1.0.2/MSDK/cloud/alicloud/src/infra/system\redirect_region.c ****     int ret = 0;
 920              		.loc 1 240 1
 921              		.cfi_startproc
 922 0000 17030000 		call	t0,__riscv_save_4
 922      E7020300 
 923              		.cfi_offset 19, -20
 924              		.cfi_offset 18, -16
 925              		.cfi_offset 9, -12
 926              		.cfi_offset 8, -8
 927              		.cfi_offset 1, -4
 928              		.cfi_def_cfa_offset 32
 241:C:/Users/stapi/OneDrive/Desktop/GD32VW553/V1_MQTT_OK/GD32VW55X_Wifi_BLE_SDK/GD32VW55x_RELEASE_V1.0.2/MSDK/cloud/alicloud/src/infra/system\redirect_region.c ****     char *p_topic = NULL;
 929              		.loc 1 241 5
 930              	.LVL126:
 242:C:/Users/stapi/OneDrive/Desktop/GD32VW553/V1_MQTT_OK/GD32VW55X_Wifi_BLE_SDK/GD32VW55x_RELEASE_V1.0.2/MSDK/cloud/alicloud/src/infra/system\redirect_region.c ****     iotx_device_info_t p_device;
 931              		.loc 1 242 5
 243:C:/Users/stapi/OneDrive/Desktop/GD32VW553/V1_MQTT_OK/GD32VW55X_Wifi_BLE_SDK/GD32VW55x_RELEASE_V1.0.2/MSDK/cloud/alicloud/src/infra/system\redirect_region.c **** 
 932              		.loc 1 243 5
 245:C:/Users/stapi/OneDrive/Desktop/GD32VW553/V1_MQTT_OK/GD32VW55X_Wifi_BLE_SDK/GD32VW55x_RELEASE_V1.0.2/MSDK/cloud/alicloud/src/infra/system\redirect_region.c ****     if (ret < 0)
 933              		.loc 1 245 5
 240:C:/Users/stapi/OneDrive/Desktop/GD32VW553/V1_MQTT_OK/GD32VW55X_Wifi_BLE_SDK/GD32VW55x_RELEASE_V1.0.2/MSDK/cloud/alicloud/src/infra/system\redirect_region.c ****     int ret = 0;
 934              		.loc 1 240 1 is_stmt 0
 935 0008 1571     		addi	sp,sp,-224
 936              		.cfi_def_cfa_offset 256
 245:C:/Users/stapi/OneDrive/Desktop/GD32VW553/V1_MQTT_OK/GD32VW55X_Wifi_BLE_SDK/GD32VW55x_RELEASE_V1.0.2/MSDK/cloud/alicloud/src/infra/system\redirect_region.c ****     if (ret < 0)
 937              		.loc 1 245 11
 938 000a 4800     		addi	a0,sp,4
 939 000c 97000000 		call	iotx_device_info_get
 939      E7800000 
 940              	.LVL127:
 246:C:/Users/stapi/OneDrive/Desktop/GD32VW553/V1_MQTT_OK/GD32VW55X_Wifi_BLE_SDK/GD32VW55x_RELEASE_V1.0.2/MSDK/cloud/alicloud/src/infra/system\redirect_region.c ****     {
 941              		.loc 1 246 5 is_stmt 1
 942 0014 37090000 		lui	s2,%hi(.LC2)
 246:C:/Users/stapi/OneDrive/Desktop/GD32VW553/V1_MQTT_OK/GD32VW55X_Wifi_BLE_SDK/GD32VW55x_RELEASE_V1.0.2/MSDK/cloud/alicloud/src/infra/system\redirect_region.c ****     {
 943              		.loc 1 246 8 is_stmt 0
 944 0018 635F0502 		bge	a0,zero,.L65
 945 001c 2A84     		mv	s0,a0
 248:C:/Users/stapi/OneDrive/Desktop/GD32VW553/V1_MQTT_OK/GD32VW55X_Wifi_BLE_SDK/GD32VW55x_RELEASE_V1.0.2/MSDK/cloud/alicloud/src/infra/system\redirect_region.c ****         goto ERROR;
 946              		.loc 1 248 9 is_stmt 1
 248:C:/Users/stapi/OneDrive/Desktop/GD32VW553/V1_MQTT_OK/GD32VW55X_Wifi_BLE_SDK/GD32VW55x_RELEASE_V1.0.2/MSDK/cloud/alicloud/src/infra/system\redirect_region.c ****         goto ERROR;
 947              		.loc 1 248 9
 948 001e 37050000 		lui	a0,%hi(.LC3)
 949              	.LVL128:
 950 0022 13050500 		addi	a0,a0,%lo(.LC3)
 951 0026 97000000 		call	HAL_Printf
 951      E7800000 
 952              	.LVL129:
 248:C:/Users/stapi/OneDrive/Desktop/GD32VW553/V1_MQTT_OK/GD32VW55X_Wifi_BLE_SDK/GD32VW55x_RELEASE_V1.0.2/MSDK/cloud/alicloud/src/infra/system\redirect_region.c ****         goto ERROR;
 953              		.loc 1 248 9
 954 002e 37050000 		lui	a0,%hi(.LC33)
 955 0032 13050500 		addi	a0,a0,%lo(.LC33)
 956 0036 97000000 		call	HAL_Printf
 956      E7800000 
 957              	.LVL130:
 248:C:/Users/stapi/OneDrive/Desktop/GD32VW553/V1_MQTT_OK/GD32VW55X_Wifi_BLE_SDK/GD32VW55x_RELEASE_V1.0.2/MSDK/cloud/alicloud/src/infra/system\redirect_region.c ****         goto ERROR;
 958              		.loc 1 248 9
 959 003e 13050900 		addi	a0,s2,%lo(.LC2)
 960 0042 97000000 		call	HAL_Printf
 960      E7800000 
 961              	.LVL131:
 248:C:/Users/stapi/OneDrive/Desktop/GD32VW553/V1_MQTT_OK/GD32VW55X_Wifi_BLE_SDK/GD32VW55x_RELEASE_V1.0.2/MSDK/cloud/alicloud/src/infra/system\redirect_region.c ****         goto ERROR;
 962              		.loc 1 248 9
 249:C:/Users/stapi/OneDrive/Desktop/GD32VW553/V1_MQTT_OK/GD32VW55X_Wifi_BLE_SDK/GD32VW55x_RELEASE_V1.0.2/MSDK/cloud/alicloud/src/infra/system\redirect_region.c ****     }
 963              		.loc 1 249 9
 276:C:/Users/stapi/OneDrive/Desktop/GD32VW553/V1_MQTT_OK/GD32VW55X_Wifi_BLE_SDK/GD32VW55x_RELEASE_V1.0.2/MSDK/cloud/alicloud/src/infra/system\redirect_region.c ****     }
 964              		.loc 1 276 9
 280:C:/Users/stapi/OneDrive/Desktop/GD32VW553/V1_MQTT_OK/GD32VW55X_Wifi_BLE_SDK/GD32VW55x_RELEASE_V1.0.2/MSDK/cloud/alicloud/src/infra/system\redirect_region.c ****     {
 965              		.loc 1 280 5
 966              	.L64:
 286:C:/Users/stapi/OneDrive/Desktop/GD32VW553/V1_MQTT_OK/GD32VW55X_Wifi_BLE_SDK/GD32VW55x_RELEASE_V1.0.2/MSDK/cloud/alicloud/src/infra/system\redirect_region.c **** 
 967              		.loc 1 286 1 is_stmt 0
 968 004a 2285     		mv	a0,s0
 969 004c 2D61     		addi	sp,sp,224
 970              		.cfi_remember_state
 971              		.cfi_def_cfa_offset 0
 972 004e 17030000 		tail	__riscv_restore_4
 972      67000300 
 973              		.cfi_restore 19
 974              		.cfi_restore 18
 975              		.cfi_restore 9
 976              		.cfi_restore 8
 977              		.cfi_restore 1
 978              		.cfi_def_cfa_offset -32
 979              	.LVL132:
 980              	.L65:
 981              		.cfi_restore_state
 252:C:/Users/stapi/OneDrive/Desktop/GD32VW553/V1_MQTT_OK/GD32VW55X_Wifi_BLE_SDK/GD32VW55x_RELEASE_V1.0.2/MSDK/cloud/alicloud/src/infra/system\redirect_region.c ****     if (p_topic == NULL)
 982              		.loc 1 252 5 is_stmt 1
 252:C:/Users/stapi/OneDrive/Desktop/GD32VW553/V1_MQTT_OK/GD32VW55X_Wifi_BLE_SDK/GD32VW55x_RELEASE_V1.0.2/MSDK/cloud/alicloud/src/infra/system\redirect_region.c ****     if (p_topic == NULL)
 983              		.loc 1 252 15 is_stmt 0
 984 0056 13060008 		li	a2,128
 985 005a 8145     		li	a1,0
 986 005c 0145     		li	a0,0
 987              	.LVL133:
 988 005e 97000000 		call	LITE_malloc_internal
 988      E7800000 
 989              	.LVL134:
 990 0066 AA84     		mv	s1,a0
 991              	.LVL135:
 253:C:/Users/stapi/OneDrive/Desktop/GD32VW553/V1_MQTT_OK/GD32VW55X_Wifi_BLE_SDK/GD32VW55x_RELEASE_V1.0.2/MSDK/cloud/alicloud/src/infra/system\redirect_region.c ****     {
 992              		.loc 1 253 5 is_stmt 1
 253:C:/Users/stapi/OneDrive/Desktop/GD32VW553/V1_MQTT_OK/GD32VW55X_Wifi_BLE_SDK/GD32VW55x_RELEASE_V1.0.2/MSDK/cloud/alicloud/src/infra/system\redirect_region.c ****     {
 993              		.loc 1 253 8 is_stmt 0
 994 0068 0DE9     		bne	a0,zero,.L67
 255:C:/Users/stapi/OneDrive/Desktop/GD32VW553/V1_MQTT_OK/GD32VW55X_Wifi_BLE_SDK/GD32VW55x_RELEASE_V1.0.2/MSDK/cloud/alicloud/src/infra/system\redirect_region.c ****         ret = -1;
 995              		.loc 1 255 9 is_stmt 1
 255:C:/Users/stapi/OneDrive/Desktop/GD32VW553/V1_MQTT_OK/GD32VW55X_Wifi_BLE_SDK/GD32VW55x_RELEASE_V1.0.2/MSDK/cloud/alicloud/src/infra/system\redirect_region.c ****         ret = -1;
 996              		.loc 1 255 9
 997 006a 37050000 		lui	a0,%hi(.LC3)
 998 006e 13050500 		addi	a0,a0,%lo(.LC3)
 999 0072 97000000 		call	HAL_Printf
 999      E7800000 
 1000              	.LVL136:
 255:C:/Users/stapi/OneDrive/Desktop/GD32VW553/V1_MQTT_OK/GD32VW55X_Wifi_BLE_SDK/GD32VW55x_RELEASE_V1.0.2/MSDK/cloud/alicloud/src/infra/system\redirect_region.c ****         ret = -1;
 1001              		.loc 1 255 9
 1002 007a 37050000 		lui	a0,%hi(.LC17)
 1003 007e 13050500 		addi	a0,a0,%lo(.LC17)
 1004 0082 97000000 		call	HAL_Printf
 1004      E7800000 
 1005              	.LVL137:
 255:C:/Users/stapi/OneDrive/Desktop/GD32VW553/V1_MQTT_OK/GD32VW55X_Wifi_BLE_SDK/GD32VW55x_RELEASE_V1.0.2/MSDK/cloud/alicloud/src/infra/system\redirect_region.c ****         ret = -1;
 1006              		.loc 1 255 9
 1007 008a 13050900 		addi	a0,s2,%lo(.LC2)
 1008 008e 97000000 		call	HAL_Printf
 1008      E7800000 
 1009              	.LVL138:
 255:C:/Users/stapi/OneDrive/Desktop/GD32VW553/V1_MQTT_OK/GD32VW55X_Wifi_BLE_SDK/GD32VW55x_RELEASE_V1.0.2/MSDK/cloud/alicloud/src/infra/system\redirect_region.c ****         ret = -1;
 1010              		.loc 1 255 9
 256:C:/Users/stapi/OneDrive/Desktop/GD32VW553/V1_MQTT_OK/GD32VW55X_Wifi_BLE_SDK/GD32VW55x_RELEASE_V1.0.2/MSDK/cloud/alicloud/src/infra/system\redirect_region.c ****         goto ERROR;
 1011              		.loc 1 256 9
 257:C:/Users/stapi/OneDrive/Desktop/GD32VW553/V1_MQTT_OK/GD32VW55X_Wifi_BLE_SDK/GD32VW55x_RELEASE_V1.0.2/MSDK/cloud/alicloud/src/infra/system\redirect_region.c ****     }
 1012              		.loc 1 257 9
 276:C:/Users/stapi/OneDrive/Desktop/GD32VW553/V1_MQTT_OK/GD32VW55X_Wifi_BLE_SDK/GD32VW55x_RELEASE_V1.0.2/MSDK/cloud/alicloud/src/infra/system\redirect_region.c ****     }
 1013              		.loc 1 276 9
 280:C:/Users/stapi/OneDrive/Desktop/GD32VW553/V1_MQTT_OK/GD32VW55X_Wifi_BLE_SDK/GD32VW55x_RELEASE_V1.0.2/MSDK/cloud/alicloud/src/infra/system\redirect_region.c ****     {
 1014              		.loc 1 280 5
 256:C:/Users/stapi/OneDrive/Desktop/GD32VW553/V1_MQTT_OK/GD32VW55X_Wifi_BLE_SDK/GD32VW55x_RELEASE_V1.0.2/MSDK/cloud/alicloud/src/infra/system\redirect_region.c ****         goto ERROR;
 1015              		.loc 1 256 13 is_stmt 0
 1016 0096 7D54     		li	s0,-1
 1017 0098 4DBF     		j	.L64
 1018              	.LVL139:
 1019              	.L67:
 260:C:/Users/stapi/OneDrive/Desktop/GD32VW553/V1_MQTT_OK/GD32VW55X_Wifi_BLE_SDK/GD32VW55x_RELEASE_V1.0.2/MSDK/cloud/alicloud/src/infra/system\redirect_region.c ****     snprintf(p_topic, TOPIC_LENGTH, REDIRECT_SUB_TOPIC, p_device.product_key, p_device.device_name)
 1020              		.loc 1 260 5 is_stmt 1
 1021 009a 13060008 		li	a2,128
 1022 009e 8145     		li	a1,0
 1023 00a0 97000000 		call	memset
 1023      E7800000 
 1024              	.LVL140:
 261:C:/Users/stapi/OneDrive/Desktop/GD32VW553/V1_MQTT_OK/GD32VW55X_Wifi_BLE_SDK/GD32VW55x_RELEASE_V1.0.2/MSDK/cloud/alicloud/src/infra/system\redirect_region.c ****     redirect_info("p_topic:%s", p_topic);
 1025              		.loc 1 261 5
 1026 00a8 37060000 		lui	a2,%hi(.LC34)
 1027 00ac 13079101 		addi	a4,sp,25
 1028 00b0 5400     		addi	a3,sp,4
 1029 00b2 13060600 		addi	a2,a2,%lo(.LC34)
 1030 00b6 93050008 		li	a1,128
 1031 00ba 2685     		mv	a0,s1
 1032 00bc 97000000 		call	snprintf
 1032      E7800000 
 1033              	.LVL141:
 262:C:/Users/stapi/OneDrive/Desktop/GD32VW553/V1_MQTT_OK/GD32VW55X_Wifi_BLE_SDK/GD32VW55x_RELEASE_V1.0.2/MSDK/cloud/alicloud/src/infra/system\redirect_region.c **** 
 1034              		.loc 1 262 5
 262:C:/Users/stapi/OneDrive/Desktop/GD32VW553/V1_MQTT_OK/GD32VW55X_Wifi_BLE_SDK/GD32VW55x_RELEASE_V1.0.2/MSDK/cloud/alicloud/src/infra/system\redirect_region.c **** 
 1035              		.loc 1 262 5
 1036 00c4 B7090000 		lui	s3,%hi(.LC0)
 1037 00c8 13850900 		addi	a0,s3,%lo(.LC0)
 1038 00cc 97000000 		call	HAL_Printf
 1038      E7800000 
 1039              	.LVL142:
 262:C:/Users/stapi/OneDrive/Desktop/GD32VW553/V1_MQTT_OK/GD32VW55X_Wifi_BLE_SDK/GD32VW55x_RELEASE_V1.0.2/MSDK/cloud/alicloud/src/infra/system\redirect_region.c **** 
 1040              		.loc 1 262 5
 1041 00d4 37050000 		lui	a0,%hi(.LC35)
 1042 00d8 A685     		mv	a1,s1
 1043 00da 13050500 		addi	a0,a0,%lo(.LC35)
 1044 00de 97000000 		call	HAL_Printf
 1044      E7800000 
 1045              	.LVL143:
 262:C:/Users/stapi/OneDrive/Desktop/GD32VW553/V1_MQTT_OK/GD32VW55X_Wifi_BLE_SDK/GD32VW55x_RELEASE_V1.0.2/MSDK/cloud/alicloud/src/infra/system\redirect_region.c **** 
 1046              		.loc 1 262 5
 1047 00e6 13050900 		addi	a0,s2,%lo(.LC2)
 1048 00ea 97000000 		call	HAL_Printf
 1048      E7800000 
 1049              	.LVL144:
 262:C:/Users/stapi/OneDrive/Desktop/GD32VW553/V1_MQTT_OK/GD32VW55X_Wifi_BLE_SDK/GD32VW55x_RELEASE_V1.0.2/MSDK/cloud/alicloud/src/infra/system\redirect_region.c **** 
 1050              		.loc 1 262 5
 265:C:/Users/stapi/OneDrive/Desktop/GD32VW553/V1_MQTT_OK/GD32VW55X_Wifi_BLE_SDK/GD32VW55x_RELEASE_V1.0.2/MSDK/cloud/alicloud/src/infra/system\redirect_region.c **** #else
 1051              		.loc 1 265 5
 265:C:/Users/stapi/OneDrive/Desktop/GD32VW553/V1_MQTT_OK/GD32VW55X_Wifi_BLE_SDK/GD32VW55x_RELEASE_V1.0.2/MSDK/cloud/alicloud/src/infra/system\redirect_region.c **** #else
 1052              		.loc 1 265 11 is_stmt 0
 1053 00f2 B7060000 		lui	a3,%hi(redirect_msg_cb)
 1054 00f6 0147     		li	a4,0
 1055 00f8 93860600 		addi	a3,a3,%lo(redirect_msg_cb)
 1056 00fc 0D46     		li	a2,3
 1057 00fe A685     		mv	a1,s1
 1058 0100 0145     		li	a0,0
 1059 0102 97000000 		call	IOT_MQTT_Subscribe
 1059      E7800000 
 1060              	.LVL145:
 1061 010a 2A84     		mv	s0,a0
 1062              	.LVL146:
 270:C:/Users/stapi/OneDrive/Desktop/GD32VW553/V1_MQTT_OK/GD32VW55X_Wifi_BLE_SDK/GD32VW55x_RELEASE_V1.0.2/MSDK/cloud/alicloud/src/infra/system\redirect_region.c ****     {
 1063              		.loc 1 270 5 is_stmt 1
 270:C:/Users/stapi/OneDrive/Desktop/GD32VW553/V1_MQTT_OK/GD32VW55X_Wifi_BLE_SDK/GD32VW55x_RELEASE_V1.0.2/MSDK/cloud/alicloud/src/infra/system\redirect_region.c ****     {
 1064              		.loc 1 270 8 is_stmt 0
 1065 010c 635E0502 		bge	a0,zero,.L68
 272:C:/Users/stapi/OneDrive/Desktop/GD32VW553/V1_MQTT_OK/GD32VW55X_Wifi_BLE_SDK/GD32VW55x_RELEASE_V1.0.2/MSDK/cloud/alicloud/src/infra/system\redirect_region.c ****     }
 1066              		.loc 1 272 9 is_stmt 1
 272:C:/Users/stapi/OneDrive/Desktop/GD32VW553/V1_MQTT_OK/GD32VW55X_Wifi_BLE_SDK/GD32VW55x_RELEASE_V1.0.2/MSDK/cloud/alicloud/src/infra/system\redirect_region.c ****     }
 1067              		.loc 1 272 9
 1068 0110 37050000 		lui	a0,%hi(.LC3)
 1069 0114 13050500 		addi	a0,a0,%lo(.LC3)
 1070 0118 97000000 		call	HAL_Printf
 1070      E7800000 
 1071              	.LVL147:
 272:C:/Users/stapi/OneDrive/Desktop/GD32VW553/V1_MQTT_OK/GD32VW55X_Wifi_BLE_SDK/GD32VW55x_RELEASE_V1.0.2/MSDK/cloud/alicloud/src/infra/system\redirect_region.c ****     }
 1072              		.loc 1 272 9
 1073 0120 37050000 		lui	a0,%hi(.LC36)
 1074 0124 13050500 		addi	a0,a0,%lo(.LC36)
 1075              	.L71:
 276:C:/Users/stapi/OneDrive/Desktop/GD32VW553/V1_MQTT_OK/GD32VW55X_Wifi_BLE_SDK/GD32VW55x_RELEASE_V1.0.2/MSDK/cloud/alicloud/src/infra/system\redirect_region.c ****     }
 1076              		.loc 1 276 9 is_stmt 0
 1077 0128 97000000 		call	HAL_Printf
 1077      E7800000 
 1078              	.LVL148:
 276:C:/Users/stapi/OneDrive/Desktop/GD32VW553/V1_MQTT_OK/GD32VW55X_Wifi_BLE_SDK/GD32VW55x_RELEASE_V1.0.2/MSDK/cloud/alicloud/src/infra/system\redirect_region.c ****     }
 1079              		.loc 1 276 9 is_stmt 1
 1080 0130 13050900 		addi	a0,s2,%lo(.LC2)
 1081 0134 97000000 		call	HAL_Printf
 1081      E7800000 
 1082              	.LVL149:
 276:C:/Users/stapi/OneDrive/Desktop/GD32VW553/V1_MQTT_OK/GD32VW55X_Wifi_BLE_SDK/GD32VW55x_RELEASE_V1.0.2/MSDK/cloud/alicloud/src/infra/system\redirect_region.c ****     }
 1083              		.loc 1 276 9
 280:C:/Users/stapi/OneDrive/Desktop/GD32VW553/V1_MQTT_OK/GD32VW55X_Wifi_BLE_SDK/GD32VW55x_RELEASE_V1.0.2/MSDK/cloud/alicloud/src/infra/system\redirect_region.c ****     {
 1084              		.loc 1 280 5
 282:C:/Users/stapi/OneDrive/Desktop/GD32VW553/V1_MQTT_OK/GD32VW55X_Wifi_BLE_SDK/GD32VW55x_RELEASE_V1.0.2/MSDK/cloud/alicloud/src/infra/system\redirect_region.c ****     }
 1085              		.loc 1 282 9
 1086 013c 2685     		mv	a0,s1
 1087 013e 97000000 		call	LITE_free_internal
 1087      E7800000 
 1088              	.LVL150:
 1089 0146 11B7     		j	.L64
 1090              	.L68:
 276:C:/Users/stapi/OneDrive/Desktop/GD32VW553/V1_MQTT_OK/GD32VW55X_Wifi_BLE_SDK/GD32VW55x_RELEASE_V1.0.2/MSDK/cloud/alicloud/src/infra/system\redirect_region.c ****     }
 1091              		.loc 1 276 9
 276:C:/Users/stapi/OneDrive/Desktop/GD32VW553/V1_MQTT_OK/GD32VW55X_Wifi_BLE_SDK/GD32VW55x_RELEASE_V1.0.2/MSDK/cloud/alicloud/src/infra/system\redirect_region.c ****     }
 1092              		.loc 1 276 9
 1093 0148 13850900 		addi	a0,s3,%lo(.LC0)
 1094 014c 97000000 		call	HAL_Printf
 1094      E7800000 
 1095              	.LVL151:
 276:C:/Users/stapi/OneDrive/Desktop/GD32VW553/V1_MQTT_OK/GD32VW55X_Wifi_BLE_SDK/GD32VW55x_RELEASE_V1.0.2/MSDK/cloud/alicloud/src/infra/system\redirect_region.c ****     }
 1096              		.loc 1 276 9
 1097 0154 37050000 		lui	a0,%hi(.LC37)
 1098 0158 13050500 		addi	a0,a0,%lo(.LC37)
 1099 015c F1B7     		j	.L71
 1100              		.cfi_endproc
 1101              	.LFE21:
 1103              		.section	.rodata.iotx_reconnect_region_subscribe.str1.4,"aMS",@progbits,1
 1104              		.align	2
 1105              	.LC38:
 1106 0000 2F737973 		.string	"/sys/%s/%s/thing/bootstrap/notify"
 1106      2F25732F 
 1106      25732F74 
 1106      68696E67 
 1106      2F626F6F 
 1107              		.section	.text.iotx_reconnect_region_subscribe,"ax",@progbits
 1108              		.align	1
 1109              		.globl	iotx_reconnect_region_subscribe
 1111              	iotx_reconnect_region_subscribe:
 1112              	.LFB23:
 405:C:/Users/stapi/OneDrive/Desktop/GD32VW553/V1_MQTT_OK/GD32VW55X_Wifi_BLE_SDK/GD32VW55x_RELEASE_V1.0.2/MSDK/cloud/alicloud/src/infra/system\redirect_region.c **** 
 406:C:/Users/stapi/OneDrive/Desktop/GD32VW553/V1_MQTT_OK/GD32VW55X_Wifi_BLE_SDK/GD32VW55x_RELEASE_V1.0.2/MSDK/cloud/alicloud/src/infra/system\redirect_region.c **** int iotx_reconnect_region_subscribe(void)
 407:C:/Users/stapi/OneDrive/Desktop/GD32VW553/V1_MQTT_OK/GD32VW55X_Wifi_BLE_SDK/GD32VW55x_RELEASE_V1.0.2/MSDK/cloud/alicloud/src/infra/system\redirect_region.c **** {
 1113              		.loc 1 407 1
 1114              		.cfi_startproc
 1115 0000 17030000 		call	t0,__riscv_save_4
 1115      E7020300 
 1116              		.cfi_offset 19, -20
 1117              		.cfi_offset 18, -16
 1118              		.cfi_offset 9, -12
 1119              		.cfi_offset 8, -8
 1120              		.cfi_offset 1, -4
 1121              		.cfi_def_cfa_offset 32
 408:C:/Users/stapi/OneDrive/Desktop/GD32VW553/V1_MQTT_OK/GD32VW55X_Wifi_BLE_SDK/GD32VW55x_RELEASE_V1.0.2/MSDK/cloud/alicloud/src/infra/system\redirect_region.c ****     int ret = 0;
 1122              		.loc 1 408 5
 1123              	.LVL152:
 409:C:/Users/stapi/OneDrive/Desktop/GD32VW553/V1_MQTT_OK/GD32VW55X_Wifi_BLE_SDK/GD32VW55x_RELEASE_V1.0.2/MSDK/cloud/alicloud/src/infra/system\redirect_region.c ****     char *p_topic = NULL;
 1124              		.loc 1 409 5
 410:C:/Users/stapi/OneDrive/Desktop/GD32VW553/V1_MQTT_OK/GD32VW55X_Wifi_BLE_SDK/GD32VW55x_RELEASE_V1.0.2/MSDK/cloud/alicloud/src/infra/system\redirect_region.c ****     iotx_device_info_t p_device;
 1125              		.loc 1 410 5
 411:C:/Users/stapi/OneDrive/Desktop/GD32VW553/V1_MQTT_OK/GD32VW55X_Wifi_BLE_SDK/GD32VW55x_RELEASE_V1.0.2/MSDK/cloud/alicloud/src/infra/system\redirect_region.c **** 
 412:C:/Users/stapi/OneDrive/Desktop/GD32VW553/V1_MQTT_OK/GD32VW55X_Wifi_BLE_SDK/GD32VW55x_RELEASE_V1.0.2/MSDK/cloud/alicloud/src/infra/system\redirect_region.c ****     ret = iotx_device_info_get(&p_device);
 1126              		.loc 1 412 5
 407:C:/Users/stapi/OneDrive/Desktop/GD32VW553/V1_MQTT_OK/GD32VW55X_Wifi_BLE_SDK/GD32VW55x_RELEASE_V1.0.2/MSDK/cloud/alicloud/src/infra/system\redirect_region.c ****     int ret = 0;
 1127              		.loc 1 407 1 is_stmt 0
 1128 0008 1571     		addi	sp,sp,-224
 1129              		.cfi_def_cfa_offset 256
 1130              		.loc 1 412 11
 1131 000a 4800     		addi	a0,sp,4
 1132 000c 97000000 		call	iotx_device_info_get
 1132      E7800000 
 1133              	.LVL153:
 413:C:/Users/stapi/OneDrive/Desktop/GD32VW553/V1_MQTT_OK/GD32VW55X_Wifi_BLE_SDK/GD32VW55x_RELEASE_V1.0.2/MSDK/cloud/alicloud/src/infra/system\redirect_region.c ****     if (ret < 0)
 1134              		.loc 1 413 5 is_stmt 1
 1135 0014 37090000 		lui	s2,%hi(.LC2)
 1136              		.loc 1 413 8 is_stmt 0
 1137 0018 635F0502 		bge	a0,zero,.L73
 1138 001c 2A84     		mv	s0,a0
 414:C:/Users/stapi/OneDrive/Desktop/GD32VW553/V1_MQTT_OK/GD32VW55X_Wifi_BLE_SDK/GD32VW55x_RELEASE_V1.0.2/MSDK/cloud/alicloud/src/infra/system\redirect_region.c ****     {
 415:C:/Users/stapi/OneDrive/Desktop/GD32VW553/V1_MQTT_OK/GD32VW55X_Wifi_BLE_SDK/GD32VW55x_RELEASE_V1.0.2/MSDK/cloud/alicloud/src/infra/system\redirect_region.c ****         redirect_err("get device info err");
 1139              		.loc 1 415 9 is_stmt 1
 1140              		.loc 1 415 9
 1141 001e 37050000 		lui	a0,%hi(.LC3)
 1142              	.LVL154:
 1143 0022 13050500 		addi	a0,a0,%lo(.LC3)
 1144 0026 97000000 		call	HAL_Printf
 1144      E7800000 
 1145              	.LVL155:
 1146              		.loc 1 415 9
 1147 002e 37050000 		lui	a0,%hi(.LC33)
 1148 0032 13050500 		addi	a0,a0,%lo(.LC33)
 1149 0036 97000000 		call	HAL_Printf
 1149      E7800000 
 1150              	.LVL156:
 1151              		.loc 1 415 9
 1152 003e 13050900 		addi	a0,s2,%lo(.LC2)
 1153 0042 97000000 		call	HAL_Printf
 1153      E7800000 
 1154              	.LVL157:
 1155              		.loc 1 415 9
 416:C:/Users/stapi/OneDrive/Desktop/GD32VW553/V1_MQTT_OK/GD32VW55X_Wifi_BLE_SDK/GD32VW55x_RELEASE_V1.0.2/MSDK/cloud/alicloud/src/infra/system\redirect_region.c ****         goto ERROR;
 1156              		.loc 1 416 9
 417:C:/Users/stapi/OneDrive/Desktop/GD32VW553/V1_MQTT_OK/GD32VW55X_Wifi_BLE_SDK/GD32VW55x_RELEASE_V1.0.2/MSDK/cloud/alicloud/src/infra/system\redirect_region.c ****     }
 418:C:/Users/stapi/OneDrive/Desktop/GD32VW553/V1_MQTT_OK/GD32VW55X_Wifi_BLE_SDK/GD32VW55x_RELEASE_V1.0.2/MSDK/cloud/alicloud/src/infra/system\redirect_region.c **** 
 419:C:/Users/stapi/OneDrive/Desktop/GD32VW553/V1_MQTT_OK/GD32VW55X_Wifi_BLE_SDK/GD32VW55x_RELEASE_V1.0.2/MSDK/cloud/alicloud/src/infra/system\redirect_region.c ****     p_topic = LITE_malloc(TOPIC_LENGTH);
 420:C:/Users/stapi/OneDrive/Desktop/GD32VW553/V1_MQTT_OK/GD32VW55X_Wifi_BLE_SDK/GD32VW55x_RELEASE_V1.0.2/MSDK/cloud/alicloud/src/infra/system\redirect_region.c ****     if (p_topic == NULL)
 421:C:/Users/stapi/OneDrive/Desktop/GD32VW553/V1_MQTT_OK/GD32VW55X_Wifi_BLE_SDK/GD32VW55x_RELEASE_V1.0.2/MSDK/cloud/alicloud/src/infra/system\redirect_region.c ****     {
 422:C:/Users/stapi/OneDrive/Desktop/GD32VW553/V1_MQTT_OK/GD32VW55X_Wifi_BLE_SDK/GD32VW55x_RELEASE_V1.0.2/MSDK/cloud/alicloud/src/infra/system\redirect_region.c ****         redirect_err("no mem");
 423:C:/Users/stapi/OneDrive/Desktop/GD32VW553/V1_MQTT_OK/GD32VW55X_Wifi_BLE_SDK/GD32VW55x_RELEASE_V1.0.2/MSDK/cloud/alicloud/src/infra/system\redirect_region.c ****         ret = -1;
 424:C:/Users/stapi/OneDrive/Desktop/GD32VW553/V1_MQTT_OK/GD32VW55X_Wifi_BLE_SDK/GD32VW55x_RELEASE_V1.0.2/MSDK/cloud/alicloud/src/infra/system\redirect_region.c ****         goto ERROR;
 425:C:/Users/stapi/OneDrive/Desktop/GD32VW553/V1_MQTT_OK/GD32VW55X_Wifi_BLE_SDK/GD32VW55x_RELEASE_V1.0.2/MSDK/cloud/alicloud/src/infra/system\redirect_region.c ****     }
 426:C:/Users/stapi/OneDrive/Desktop/GD32VW553/V1_MQTT_OK/GD32VW55X_Wifi_BLE_SDK/GD32VW55x_RELEASE_V1.0.2/MSDK/cloud/alicloud/src/infra/system\redirect_region.c **** 
 427:C:/Users/stapi/OneDrive/Desktop/GD32VW553/V1_MQTT_OK/GD32VW55X_Wifi_BLE_SDK/GD32VW55x_RELEASE_V1.0.2/MSDK/cloud/alicloud/src/infra/system\redirect_region.c ****     memset(p_topic, 0, TOPIC_LENGTH);
 428:C:/Users/stapi/OneDrive/Desktop/GD32VW553/V1_MQTT_OK/GD32VW55X_Wifi_BLE_SDK/GD32VW55x_RELEASE_V1.0.2/MSDK/cloud/alicloud/src/infra/system\redirect_region.c ****     snprintf(p_topic, TOPIC_LENGTH, RECONNECT_SUB_TOPIC, p_device.product_key, p_device.device_name
 429:C:/Users/stapi/OneDrive/Desktop/GD32VW553/V1_MQTT_OK/GD32VW55X_Wifi_BLE_SDK/GD32VW55x_RELEASE_V1.0.2/MSDK/cloud/alicloud/src/infra/system\redirect_region.c ****     redirect_info("p_topic:%s", p_topic);
 430:C:/Users/stapi/OneDrive/Desktop/GD32VW553/V1_MQTT_OK/GD32VW55X_Wifi_BLE_SDK/GD32VW55x_RELEASE_V1.0.2/MSDK/cloud/alicloud/src/infra/system\redirect_region.c **** 
 431:C:/Users/stapi/OneDrive/Desktop/GD32VW553/V1_MQTT_OK/GD32VW55X_Wifi_BLE_SDK/GD32VW55x_RELEASE_V1.0.2/MSDK/cloud/alicloud/src/infra/system\redirect_region.c **** #ifdef MQTT_AUTO_SUBSCRIBE
 432:C:/Users/stapi/OneDrive/Desktop/GD32VW553/V1_MQTT_OK/GD32VW55X_Wifi_BLE_SDK/GD32VW55x_RELEASE_V1.0.2/MSDK/cloud/alicloud/src/infra/system\redirect_region.c ****     ret = IOT_MQTT_Subscribe(NULL, p_topic, IOTX_MQTT_QOS3_SUB_LOCAL, reconnect_msg_cb, NULL);
 433:C:/Users/stapi/OneDrive/Desktop/GD32VW553/V1_MQTT_OK/GD32VW55X_Wifi_BLE_SDK/GD32VW55x_RELEASE_V1.0.2/MSDK/cloud/alicloud/src/infra/system\redirect_region.c **** #else
 434:C:/Users/stapi/OneDrive/Desktop/GD32VW553/V1_MQTT_OK/GD32VW55X_Wifi_BLE_SDK/GD32VW55x_RELEASE_V1.0.2/MSDK/cloud/alicloud/src/infra/system\redirect_region.c ****     ret = IOT_MQTT_Subscribe(NULL, p_topic, IOTX_MQTT_QOS0, reconnect_msg_cb, NULL);
 435:C:/Users/stapi/OneDrive/Desktop/GD32VW553/V1_MQTT_OK/GD32VW55X_Wifi_BLE_SDK/GD32VW55x_RELEASE_V1.0.2/MSDK/cloud/alicloud/src/infra/system\redirect_region.c **** #endif
 436:C:/Users/stapi/OneDrive/Desktop/GD32VW553/V1_MQTT_OK/GD32VW55X_Wifi_BLE_SDK/GD32VW55x_RELEASE_V1.0.2/MSDK/cloud/alicloud/src/infra/system\redirect_region.c **** 
 437:C:/Users/stapi/OneDrive/Desktop/GD32VW553/V1_MQTT_OK/GD32VW55X_Wifi_BLE_SDK/GD32VW55x_RELEASE_V1.0.2/MSDK/cloud/alicloud/src/infra/system\redirect_region.c ****     if (ret < 0)
 438:C:/Users/stapi/OneDrive/Desktop/GD32VW553/V1_MQTT_OK/GD32VW55X_Wifi_BLE_SDK/GD32VW55x_RELEASE_V1.0.2/MSDK/cloud/alicloud/src/infra/system\redirect_region.c ****     {
 439:C:/Users/stapi/OneDrive/Desktop/GD32VW553/V1_MQTT_OK/GD32VW55X_Wifi_BLE_SDK/GD32VW55x_RELEASE_V1.0.2/MSDK/cloud/alicloud/src/infra/system\redirect_region.c ****         redirect_err("sub failed");
 440:C:/Users/stapi/OneDrive/Desktop/GD32VW553/V1_MQTT_OK/GD32VW55X_Wifi_BLE_SDK/GD32VW55x_RELEASE_V1.0.2/MSDK/cloud/alicloud/src/infra/system\redirect_region.c ****     }
 441:C:/Users/stapi/OneDrive/Desktop/GD32VW553/V1_MQTT_OK/GD32VW55X_Wifi_BLE_SDK/GD32VW55x_RELEASE_V1.0.2/MSDK/cloud/alicloud/src/infra/system\redirect_region.c ****     else
 442:C:/Users/stapi/OneDrive/Desktop/GD32VW553/V1_MQTT_OK/GD32VW55X_Wifi_BLE_SDK/GD32VW55x_RELEASE_V1.0.2/MSDK/cloud/alicloud/src/infra/system\redirect_region.c ****     {
 443:C:/Users/stapi/OneDrive/Desktop/GD32VW553/V1_MQTT_OK/GD32VW55X_Wifi_BLE_SDK/GD32VW55x_RELEASE_V1.0.2/MSDK/cloud/alicloud/src/infra/system\redirect_region.c ****         redirect_info("sub success");
 1157              		.loc 1 443 9
 444:C:/Users/stapi/OneDrive/Desktop/GD32VW553/V1_MQTT_OK/GD32VW55X_Wifi_BLE_SDK/GD32VW55x_RELEASE_V1.0.2/MSDK/cloud/alicloud/src/infra/system\redirect_region.c ****     }
 445:C:/Users/stapi/OneDrive/Desktop/GD32VW553/V1_MQTT_OK/GD32VW55X_Wifi_BLE_SDK/GD32VW55x_RELEASE_V1.0.2/MSDK/cloud/alicloud/src/infra/system\redirect_region.c **** 
 446:C:/Users/stapi/OneDrive/Desktop/GD32VW553/V1_MQTT_OK/GD32VW55X_Wifi_BLE_SDK/GD32VW55x_RELEASE_V1.0.2/MSDK/cloud/alicloud/src/infra/system\redirect_region.c **** ERROR:
 447:C:/Users/stapi/OneDrive/Desktop/GD32VW553/V1_MQTT_OK/GD32VW55X_Wifi_BLE_SDK/GD32VW55x_RELEASE_V1.0.2/MSDK/cloud/alicloud/src/infra/system\redirect_region.c ****     if (p_topic)
 1158              		.loc 1 447 5
 1159              	.L72:
 448:C:/Users/stapi/OneDrive/Desktop/GD32VW553/V1_MQTT_OK/GD32VW55X_Wifi_BLE_SDK/GD32VW55x_RELEASE_V1.0.2/MSDK/cloud/alicloud/src/infra/system\redirect_region.c ****     {
 449:C:/Users/stapi/OneDrive/Desktop/GD32VW553/V1_MQTT_OK/GD32VW55X_Wifi_BLE_SDK/GD32VW55x_RELEASE_V1.0.2/MSDK/cloud/alicloud/src/infra/system\redirect_region.c ****         LITE_free(p_topic);
 450:C:/Users/stapi/OneDrive/Desktop/GD32VW553/V1_MQTT_OK/GD32VW55X_Wifi_BLE_SDK/GD32VW55x_RELEASE_V1.0.2/MSDK/cloud/alicloud/src/infra/system\redirect_region.c ****     }
 451:C:/Users/stapi/OneDrive/Desktop/GD32VW553/V1_MQTT_OK/GD32VW55X_Wifi_BLE_SDK/GD32VW55x_RELEASE_V1.0.2/MSDK/cloud/alicloud/src/infra/system\redirect_region.c **** 
 452:C:/Users/stapi/OneDrive/Desktop/GD32VW553/V1_MQTT_OK/GD32VW55X_Wifi_BLE_SDK/GD32VW55x_RELEASE_V1.0.2/MSDK/cloud/alicloud/src/infra/system\redirect_region.c ****     return ret;
 453:C:/Users/stapi/OneDrive/Desktop/GD32VW553/V1_MQTT_OK/GD32VW55X_Wifi_BLE_SDK/GD32VW55x_RELEASE_V1.0.2/MSDK/cloud/alicloud/src/infra/system\redirect_region.c **** }
 1160              		.loc 1 453 1 is_stmt 0
 1161 004a 2285     		mv	a0,s0
 1162 004c 2D61     		addi	sp,sp,224
 1163              		.cfi_remember_state
 1164              		.cfi_def_cfa_offset 0
 1165 004e 17030000 		tail	__riscv_restore_4
 1165      67000300 
 1166              		.cfi_restore 19
 1167              		.cfi_restore 18
 1168              		.cfi_restore 9
 1169              		.cfi_restore 8
 1170              		.cfi_restore 1
 1171              		.cfi_def_cfa_offset -32
 1172              	.LVL158:
 1173              	.L73:
 1174              		.cfi_restore_state
 419:C:/Users/stapi/OneDrive/Desktop/GD32VW553/V1_MQTT_OK/GD32VW55X_Wifi_BLE_SDK/GD32VW55x_RELEASE_V1.0.2/MSDK/cloud/alicloud/src/infra/system\redirect_region.c ****     if (p_topic == NULL)
 1175              		.loc 1 419 5 is_stmt 1
 419:C:/Users/stapi/OneDrive/Desktop/GD32VW553/V1_MQTT_OK/GD32VW55X_Wifi_BLE_SDK/GD32VW55x_RELEASE_V1.0.2/MSDK/cloud/alicloud/src/infra/system\redirect_region.c ****     if (p_topic == NULL)
 1176              		.loc 1 419 15 is_stmt 0
 1177 0056 13060008 		li	a2,128
 1178 005a 8145     		li	a1,0
 1179 005c 0145     		li	a0,0
 1180              	.LVL159:
 1181 005e 97000000 		call	LITE_malloc_internal
 1181      E7800000 
 1182              	.LVL160:
 1183 0066 AA84     		mv	s1,a0
 1184              	.LVL161:
 420:C:/Users/stapi/OneDrive/Desktop/GD32VW553/V1_MQTT_OK/GD32VW55X_Wifi_BLE_SDK/GD32VW55x_RELEASE_V1.0.2/MSDK/cloud/alicloud/src/infra/system\redirect_region.c ****     {
 1185              		.loc 1 420 5 is_stmt 1
 420:C:/Users/stapi/OneDrive/Desktop/GD32VW553/V1_MQTT_OK/GD32VW55X_Wifi_BLE_SDK/GD32VW55x_RELEASE_V1.0.2/MSDK/cloud/alicloud/src/infra/system\redirect_region.c ****     {
 1186              		.loc 1 420 8 is_stmt 0
 1187 0068 0DE9     		bne	a0,zero,.L75
 422:C:/Users/stapi/OneDrive/Desktop/GD32VW553/V1_MQTT_OK/GD32VW55X_Wifi_BLE_SDK/GD32VW55x_RELEASE_V1.0.2/MSDK/cloud/alicloud/src/infra/system\redirect_region.c ****         ret = -1;
 1188              		.loc 1 422 9 is_stmt 1
 422:C:/Users/stapi/OneDrive/Desktop/GD32VW553/V1_MQTT_OK/GD32VW55X_Wifi_BLE_SDK/GD32VW55x_RELEASE_V1.0.2/MSDK/cloud/alicloud/src/infra/system\redirect_region.c ****         ret = -1;
 1189              		.loc 1 422 9
 1190 006a 37050000 		lui	a0,%hi(.LC3)
 1191 006e 13050500 		addi	a0,a0,%lo(.LC3)
 1192 0072 97000000 		call	HAL_Printf
 1192      E7800000 
 1193              	.LVL162:
 422:C:/Users/stapi/OneDrive/Desktop/GD32VW553/V1_MQTT_OK/GD32VW55X_Wifi_BLE_SDK/GD32VW55x_RELEASE_V1.0.2/MSDK/cloud/alicloud/src/infra/system\redirect_region.c ****         ret = -1;
 1194              		.loc 1 422 9
 1195 007a 37050000 		lui	a0,%hi(.LC17)
 1196 007e 13050500 		addi	a0,a0,%lo(.LC17)
 1197 0082 97000000 		call	HAL_Printf
 1197      E7800000 
 1198              	.LVL163:
 422:C:/Users/stapi/OneDrive/Desktop/GD32VW553/V1_MQTT_OK/GD32VW55X_Wifi_BLE_SDK/GD32VW55x_RELEASE_V1.0.2/MSDK/cloud/alicloud/src/infra/system\redirect_region.c ****         ret = -1;
 1199              		.loc 1 422 9
 1200 008a 13050900 		addi	a0,s2,%lo(.LC2)
 1201 008e 97000000 		call	HAL_Printf
 1201      E7800000 
 1202              	.LVL164:
 422:C:/Users/stapi/OneDrive/Desktop/GD32VW553/V1_MQTT_OK/GD32VW55X_Wifi_BLE_SDK/GD32VW55x_RELEASE_V1.0.2/MSDK/cloud/alicloud/src/infra/system\redirect_region.c ****         ret = -1;
 1203              		.loc 1 422 9
 423:C:/Users/stapi/OneDrive/Desktop/GD32VW553/V1_MQTT_OK/GD32VW55X_Wifi_BLE_SDK/GD32VW55x_RELEASE_V1.0.2/MSDK/cloud/alicloud/src/infra/system\redirect_region.c ****         goto ERROR;
 1204              		.loc 1 423 9
 424:C:/Users/stapi/OneDrive/Desktop/GD32VW553/V1_MQTT_OK/GD32VW55X_Wifi_BLE_SDK/GD32VW55x_RELEASE_V1.0.2/MSDK/cloud/alicloud/src/infra/system\redirect_region.c ****     }
 1205              		.loc 1 424 9
 443:C:/Users/stapi/OneDrive/Desktop/GD32VW553/V1_MQTT_OK/GD32VW55X_Wifi_BLE_SDK/GD32VW55x_RELEASE_V1.0.2/MSDK/cloud/alicloud/src/infra/system\redirect_region.c ****     }
 1206              		.loc 1 443 9
 447:C:/Users/stapi/OneDrive/Desktop/GD32VW553/V1_MQTT_OK/GD32VW55X_Wifi_BLE_SDK/GD32VW55x_RELEASE_V1.0.2/MSDK/cloud/alicloud/src/infra/system\redirect_region.c ****     {
 1207              		.loc 1 447 5
 423:C:/Users/stapi/OneDrive/Desktop/GD32VW553/V1_MQTT_OK/GD32VW55X_Wifi_BLE_SDK/GD32VW55x_RELEASE_V1.0.2/MSDK/cloud/alicloud/src/infra/system\redirect_region.c ****         goto ERROR;
 1208              		.loc 1 423 13 is_stmt 0
 1209 0096 7D54     		li	s0,-1
 1210 0098 4DBF     		j	.L72
 1211              	.LVL165:
 1212              	.L75:
 427:C:/Users/stapi/OneDrive/Desktop/GD32VW553/V1_MQTT_OK/GD32VW55X_Wifi_BLE_SDK/GD32VW55x_RELEASE_V1.0.2/MSDK/cloud/alicloud/src/infra/system\redirect_region.c ****     snprintf(p_topic, TOPIC_LENGTH, RECONNECT_SUB_TOPIC, p_device.product_key, p_device.device_name
 1213              		.loc 1 427 5 is_stmt 1
 1214 009a 13060008 		li	a2,128
 1215 009e 8145     		li	a1,0
 1216 00a0 97000000 		call	memset
 1216      E7800000 
 1217              	.LVL166:
 428:C:/Users/stapi/OneDrive/Desktop/GD32VW553/V1_MQTT_OK/GD32VW55X_Wifi_BLE_SDK/GD32VW55x_RELEASE_V1.0.2/MSDK/cloud/alicloud/src/infra/system\redirect_region.c ****     redirect_info("p_topic:%s", p_topic);
 1218              		.loc 1 428 5
 1219 00a8 37060000 		lui	a2,%hi(.LC38)
 1220 00ac 13079101 		addi	a4,sp,25
 1221 00b0 5400     		addi	a3,sp,4
 1222 00b2 13060600 		addi	a2,a2,%lo(.LC38)
 1223 00b6 93050008 		li	a1,128
 1224 00ba 2685     		mv	a0,s1
 1225 00bc 97000000 		call	snprintf
 1225      E7800000 
 1226              	.LVL167:
 429:C:/Users/stapi/OneDrive/Desktop/GD32VW553/V1_MQTT_OK/GD32VW55X_Wifi_BLE_SDK/GD32VW55x_RELEASE_V1.0.2/MSDK/cloud/alicloud/src/infra/system\redirect_region.c **** 
 1227              		.loc 1 429 5
 429:C:/Users/stapi/OneDrive/Desktop/GD32VW553/V1_MQTT_OK/GD32VW55X_Wifi_BLE_SDK/GD32VW55x_RELEASE_V1.0.2/MSDK/cloud/alicloud/src/infra/system\redirect_region.c **** 
 1228              		.loc 1 429 5
 1229 00c4 B7090000 		lui	s3,%hi(.LC0)
 1230 00c8 13850900 		addi	a0,s3,%lo(.LC0)
 1231 00cc 97000000 		call	HAL_Printf
 1231      E7800000 
 1232              	.LVL168:
 429:C:/Users/stapi/OneDrive/Desktop/GD32VW553/V1_MQTT_OK/GD32VW55X_Wifi_BLE_SDK/GD32VW55x_RELEASE_V1.0.2/MSDK/cloud/alicloud/src/infra/system\redirect_region.c **** 
 1233              		.loc 1 429 5
 1234 00d4 37050000 		lui	a0,%hi(.LC35)
 1235 00d8 A685     		mv	a1,s1
 1236 00da 13050500 		addi	a0,a0,%lo(.LC35)
 1237 00de 97000000 		call	HAL_Printf
 1237      E7800000 
 1238              	.LVL169:
 429:C:/Users/stapi/OneDrive/Desktop/GD32VW553/V1_MQTT_OK/GD32VW55X_Wifi_BLE_SDK/GD32VW55x_RELEASE_V1.0.2/MSDK/cloud/alicloud/src/infra/system\redirect_region.c **** 
 1239              		.loc 1 429 5
 1240 00e6 13050900 		addi	a0,s2,%lo(.LC2)
 1241 00ea 97000000 		call	HAL_Printf
 1241      E7800000 
 1242              	.LVL170:
 429:C:/Users/stapi/OneDrive/Desktop/GD32VW553/V1_MQTT_OK/GD32VW55X_Wifi_BLE_SDK/GD32VW55x_RELEASE_V1.0.2/MSDK/cloud/alicloud/src/infra/system\redirect_region.c **** 
 1243              		.loc 1 429 5
 432:C:/Users/stapi/OneDrive/Desktop/GD32VW553/V1_MQTT_OK/GD32VW55X_Wifi_BLE_SDK/GD32VW55x_RELEASE_V1.0.2/MSDK/cloud/alicloud/src/infra/system\redirect_region.c **** #else
 1244              		.loc 1 432 5
 432:C:/Users/stapi/OneDrive/Desktop/GD32VW553/V1_MQTT_OK/GD32VW55X_Wifi_BLE_SDK/GD32VW55x_RELEASE_V1.0.2/MSDK/cloud/alicloud/src/infra/system\redirect_region.c **** #else
 1245              		.loc 1 432 11 is_stmt 0
 1246 00f2 B7060000 		lui	a3,%hi(reconnect_msg_cb)
 1247 00f6 0147     		li	a4,0
 1248 00f8 93860600 		addi	a3,a3,%lo(reconnect_msg_cb)
 1249 00fc 0D46     		li	a2,3
 1250 00fe A685     		mv	a1,s1
 1251 0100 0145     		li	a0,0
 1252 0102 97000000 		call	IOT_MQTT_Subscribe
 1252      E7800000 
 1253              	.LVL171:
 1254 010a 2A84     		mv	s0,a0
 1255              	.LVL172:
 437:C:/Users/stapi/OneDrive/Desktop/GD32VW553/V1_MQTT_OK/GD32VW55X_Wifi_BLE_SDK/GD32VW55x_RELEASE_V1.0.2/MSDK/cloud/alicloud/src/infra/system\redirect_region.c ****     {
 1256              		.loc 1 437 5 is_stmt 1
 437:C:/Users/stapi/OneDrive/Desktop/GD32VW553/V1_MQTT_OK/GD32VW55X_Wifi_BLE_SDK/GD32VW55x_RELEASE_V1.0.2/MSDK/cloud/alicloud/src/infra/system\redirect_region.c ****     {
 1257              		.loc 1 437 8 is_stmt 0
 1258 010c 635E0502 		bge	a0,zero,.L76
 439:C:/Users/stapi/OneDrive/Desktop/GD32VW553/V1_MQTT_OK/GD32VW55X_Wifi_BLE_SDK/GD32VW55x_RELEASE_V1.0.2/MSDK/cloud/alicloud/src/infra/system\redirect_region.c ****     }
 1259              		.loc 1 439 9 is_stmt 1
 439:C:/Users/stapi/OneDrive/Desktop/GD32VW553/V1_MQTT_OK/GD32VW55X_Wifi_BLE_SDK/GD32VW55x_RELEASE_V1.0.2/MSDK/cloud/alicloud/src/infra/system\redirect_region.c ****     }
 1260              		.loc 1 439 9
 1261 0110 37050000 		lui	a0,%hi(.LC3)
 1262 0114 13050500 		addi	a0,a0,%lo(.LC3)
 1263 0118 97000000 		call	HAL_Printf
 1263      E7800000 
 1264              	.LVL173:
 439:C:/Users/stapi/OneDrive/Desktop/GD32VW553/V1_MQTT_OK/GD32VW55X_Wifi_BLE_SDK/GD32VW55x_RELEASE_V1.0.2/MSDK/cloud/alicloud/src/infra/system\redirect_region.c ****     }
 1265              		.loc 1 439 9
 1266 0120 37050000 		lui	a0,%hi(.LC36)
 1267 0124 13050500 		addi	a0,a0,%lo(.LC36)
 1268              	.L79:
 443:C:/Users/stapi/OneDrive/Desktop/GD32VW553/V1_MQTT_OK/GD32VW55X_Wifi_BLE_SDK/GD32VW55x_RELEASE_V1.0.2/MSDK/cloud/alicloud/src/infra/system\redirect_region.c ****     }
 1269              		.loc 1 443 9 is_stmt 0
 1270 0128 97000000 		call	HAL_Printf
 1270      E7800000 
 1271              	.LVL174:
 443:C:/Users/stapi/OneDrive/Desktop/GD32VW553/V1_MQTT_OK/GD32VW55X_Wifi_BLE_SDK/GD32VW55x_RELEASE_V1.0.2/MSDK/cloud/alicloud/src/infra/system\redirect_region.c ****     }
 1272              		.loc 1 443 9 is_stmt 1
 1273 0130 13050900 		addi	a0,s2,%lo(.LC2)
 1274 0134 97000000 		call	HAL_Printf
 1274      E7800000 
 1275              	.LVL175:
 443:C:/Users/stapi/OneDrive/Desktop/GD32VW553/V1_MQTT_OK/GD32VW55X_Wifi_BLE_SDK/GD32VW55x_RELEASE_V1.0.2/MSDK/cloud/alicloud/src/infra/system\redirect_region.c ****     }
 1276              		.loc 1 443 9
 447:C:/Users/stapi/OneDrive/Desktop/GD32VW553/V1_MQTT_OK/GD32VW55X_Wifi_BLE_SDK/GD32VW55x_RELEASE_V1.0.2/MSDK/cloud/alicloud/src/infra/system\redirect_region.c ****     {
 1277              		.loc 1 447 5
 449:C:/Users/stapi/OneDrive/Desktop/GD32VW553/V1_MQTT_OK/GD32VW55X_Wifi_BLE_SDK/GD32VW55x_RELEASE_V1.0.2/MSDK/cloud/alicloud/src/infra/system\redirect_region.c ****     }
 1278              		.loc 1 449 9
 1279 013c 2685     		mv	a0,s1
 1280 013e 97000000 		call	LITE_free_internal
 1280      E7800000 
 1281              	.LVL176:
 1282 0146 11B7     		j	.L72
 1283              	.L76:
 443:C:/Users/stapi/OneDrive/Desktop/GD32VW553/V1_MQTT_OK/GD32VW55X_Wifi_BLE_SDK/GD32VW55x_RELEASE_V1.0.2/MSDK/cloud/alicloud/src/infra/system\redirect_region.c ****     }
 1284              		.loc 1 443 9
 443:C:/Users/stapi/OneDrive/Desktop/GD32VW553/V1_MQTT_OK/GD32VW55X_Wifi_BLE_SDK/GD32VW55x_RELEASE_V1.0.2/MSDK/cloud/alicloud/src/infra/system\redirect_region.c ****     }
 1285              		.loc 1 443 9
 1286 0148 13850900 		addi	a0,s3,%lo(.LC0)
 1287 014c 97000000 		call	HAL_Printf
 1287      E7800000 
 1288              	.LVL177:
 443:C:/Users/stapi/OneDrive/Desktop/GD32VW553/V1_MQTT_OK/GD32VW55X_Wifi_BLE_SDK/GD32VW55x_RELEASE_V1.0.2/MSDK/cloud/alicloud/src/infra/system\redirect_region.c ****     }
 1289              		.loc 1 443 9
 1290 0154 37050000 		lui	a0,%hi(.LC37)
 1291 0158 13050500 		addi	a0,a0,%lo(.LC37)
 1292 015c F1B7     		j	.L79
 1293              		.cfi_endproc
 1294              	.LFE23:
 1296              		.text
 1297              	.Letext0:
 1298              		.file 2 "c:\\users\\stapi\\onedrive\\desktop\\gd32vw553\\embeddedbuilder_v1.4.7.26843\\tools\\nucl
 1299              		.file 3 "c:\\users\\stapi\\onedrive\\desktop\\gd32vw553\\embeddedbuilder_v1.4.7.26843\\tools\\nucl
 1300              		.file 4 "..\\..\\..\\..\\cloud\\alicloud\\include/iot_export.h"
 1301              		.file 5 "..\\..\\..\\..\\cloud\\alicloud\\include/exports/iot_export_mqtt.h"
 1302              		.file 6 "C:/Users/stapi/OneDrive/Desktop/GD32VW553/V1_MQTT_OK/GD32VW55X_Wifi_BLE_SDK/GD32VW55x_REL
 1303              		.file 7 "..\\..\\..\\..\\cloud\\alicloud\\include/iot_import.h"
 1304              		.file 8 "..\\..\\..\\..\\cloud\\alicloud\\src\\infra\\utils/iotx_utils.h"
 1305              		.file 9 "c:\\users\\stapi\\onedrive\\desktop\\gd32vw553\\embeddedbuilder_v1.4.7.26843\\tools\\nucl
 1306              		.file 10 "c:\\users\\stapi\\onedrive\\desktop\\gd32vw553\\embeddedbuilder_v1.4.7.26843\\tools\\nuc
 1307              		.file 11 "..\\..\\..\\..\\cloud\\alicloud\\include/exports/iot_export_guider.h"
 1308              		.file 12 "c:\\users\\stapi\\onedrive\\desktop\\gd32vw553\\embeddedbuilder_v1.4.7.26843\\tools\\nuc
 1309              		.file 13 "<built-in>"