   1              		.file	"report.c"
   2              		.option nopic
   3              		.attribute arch, "rv32i2p0_m2p0_a2p0_f2p0_c2p0_b_p0p94"
   4              		.attribute unaligned_access, 0
   5              		.attribute stack_align, 16
   6              		.text
   7              	.Ltext0:
   8              		.cfi_sections	.debug_frame
   9              		.section	.text.iotx_report_id,"ax",@progbits
  10              		.align	1
  11              		.globl	iotx_report_id
  13              	iotx_report_id:
  14              	.LFB20:
  15              		.file 1 "C:/Users/stapi/OneDrive/Desktop/GD32VW553/V1_MQTT_OK/GD32VW55X_Wifi_BLE_SDK/GD32VW55x_REL
   1:C:/Users/stapi/OneDrive/Desktop/GD32VW553/V1_MQTT_OK/GD32VW55X_Wifi_BLE_SDK/GD32VW55x_RELEASE_V1.0.2/MSDK/cloud/alicloud/src/infra/system\report.c **** /*
   2:C:/Users/stapi/OneDrive/Desktop/GD32VW553/V1_MQTT_OK/GD32VW55X_Wifi_BLE_SDK/GD32VW55x_RELEASE_V1.0.2/MSDK/cloud/alicloud/src/infra/system\report.c ****  * Copyright (C) 2015-2018 Alibaba Group Holding Limited
   3:C:/Users/stapi/OneDrive/Desktop/GD32VW553/V1_MQTT_OK/GD32VW55X_Wifi_BLE_SDK/GD32VW55x_RELEASE_V1.0.2/MSDK/cloud/alicloud/src/infra/system\report.c ****  */
   4:C:/Users/stapi/OneDrive/Desktop/GD32VW553/V1_MQTT_OK/GD32VW55X_Wifi_BLE_SDK/GD32VW55x_RELEASE_V1.0.2/MSDK/cloud/alicloud/src/infra/system\report.c **** 
   5:C:/Users/stapi/OneDrive/Desktop/GD32VW553/V1_MQTT_OK/GD32VW55X_Wifi_BLE_SDK/GD32VW55x_RELEASE_V1.0.2/MSDK/cloud/alicloud/src/infra/system\report.c **** #include <stdio.h>
   6:C:/Users/stapi/OneDrive/Desktop/GD32VW553/V1_MQTT_OK/GD32VW55X_Wifi_BLE_SDK/GD32VW55x_RELEASE_V1.0.2/MSDK/cloud/alicloud/src/infra/system\report.c **** #include <string.h>
   7:C:/Users/stapi/OneDrive/Desktop/GD32VW553/V1_MQTT_OK/GD32VW55X_Wifi_BLE_SDK/GD32VW55x_RELEASE_V1.0.2/MSDK/cloud/alicloud/src/infra/system\report.c **** #include "iotx_system.h"
   8:C:/Users/stapi/OneDrive/Desktop/GD32VW553/V1_MQTT_OK/GD32VW55X_Wifi_BLE_SDK/GD32VW55x_RELEASE_V1.0.2/MSDK/cloud/alicloud/src/infra/system\report.c **** #include "iot_import.h"
   9:C:/Users/stapi/OneDrive/Desktop/GD32VW553/V1_MQTT_OK/GD32VW55X_Wifi_BLE_SDK/GD32VW55x_RELEASE_V1.0.2/MSDK/cloud/alicloud/src/infra/system\report.c **** #include "iot_export.h"
  10:C:/Users/stapi/OneDrive/Desktop/GD32VW553/V1_MQTT_OK/GD32VW55X_Wifi_BLE_SDK/GD32VW55x_RELEASE_V1.0.2/MSDK/cloud/alicloud/src/infra/system\report.c **** #include "iotx_utils.h"
  11:C:/Users/stapi/OneDrive/Desktop/GD32VW553/V1_MQTT_OK/GD32VW55X_Wifi_BLE_SDK/GD32VW55x_RELEASE_V1.0.2/MSDK/cloud/alicloud/src/infra/system\report.c **** #include "report.h"
  12:C:/Users/stapi/OneDrive/Desktop/GD32VW553/V1_MQTT_OK/GD32VW55X_Wifi_BLE_SDK/GD32VW55x_RELEASE_V1.0.2/MSDK/cloud/alicloud/src/infra/system\report.c **** 
  13:C:/Users/stapi/OneDrive/Desktop/GD32VW553/V1_MQTT_OK/GD32VW55X_Wifi_BLE_SDK/GD32VW55x_RELEASE_V1.0.2/MSDK/cloud/alicloud/src/infra/system\report.c **** #define SYS_REPORT_MALLOC(size) LITE_malloc(size, MEM_MAGIC, "sys.report")
  14:C:/Users/stapi/OneDrive/Desktop/GD32VW553/V1_MQTT_OK/GD32VW55X_Wifi_BLE_SDK/GD32VW55x_RELEASE_V1.0.2/MSDK/cloud/alicloud/src/infra/system\report.c **** #define SYS_REPORT_FREE(ptr)    LITE_free(ptr)
  15:C:/Users/stapi/OneDrive/Desktop/GD32VW553/V1_MQTT_OK/GD32VW55X_Wifi_BLE_SDK/GD32VW55x_RELEASE_V1.0.2/MSDK/cloud/alicloud/src/infra/system\report.c **** 
  16:C:/Users/stapi/OneDrive/Desktop/GD32VW553/V1_MQTT_OK/GD32VW55X_Wifi_BLE_SDK/GD32VW55x_RELEASE_V1.0.2/MSDK/cloud/alicloud/src/infra/system\report.c **** #ifdef VERSION_REPORT_DEBUG
  17:C:/Users/stapi/OneDrive/Desktop/GD32VW553/V1_MQTT_OK/GD32VW55X_Wifi_BLE_SDK/GD32VW55x_RELEASE_V1.0.2/MSDK/cloud/alicloud/src/infra/system\report.c ****     #define VERSION_DEBUG(...) log_debug("version", __VA_ARGS__)
  18:C:/Users/stapi/OneDrive/Desktop/GD32VW553/V1_MQTT_OK/GD32VW55X_Wifi_BLE_SDK/GD32VW55x_RELEASE_V1.0.2/MSDK/cloud/alicloud/src/infra/system\report.c **** #else
  19:C:/Users/stapi/OneDrive/Desktop/GD32VW553/V1_MQTT_OK/GD32VW55X_Wifi_BLE_SDK/GD32VW55x_RELEASE_V1.0.2/MSDK/cloud/alicloud/src/infra/system\report.c ****     #define VERSION_DEBUG(...)
  20:C:/Users/stapi/OneDrive/Desktop/GD32VW553/V1_MQTT_OK/GD32VW55X_Wifi_BLE_SDK/GD32VW55x_RELEASE_V1.0.2/MSDK/cloud/alicloud/src/infra/system\report.c **** #endif
  21:C:/Users/stapi/OneDrive/Desktop/GD32VW553/V1_MQTT_OK/GD32VW55X_Wifi_BLE_SDK/GD32VW55x_RELEASE_V1.0.2/MSDK/cloud/alicloud/src/infra/system\report.c **** #define    VERSION_INFO(...)    log_info("version", __VA_ARGS__)
  22:C:/Users/stapi/OneDrive/Desktop/GD32VW553/V1_MQTT_OK/GD32VW55X_Wifi_BLE_SDK/GD32VW55x_RELEASE_V1.0.2/MSDK/cloud/alicloud/src/infra/system\report.c **** #define    VERSION_ERR(...)    log_err("version", __VA_ARGS__)
  23:C:/Users/stapi/OneDrive/Desktop/GD32VW553/V1_MQTT_OK/GD32VW55X_Wifi_BLE_SDK/GD32VW55x_RELEASE_V1.0.2/MSDK/cloud/alicloud/src/infra/system\report.c **** 
  24:C:/Users/stapi/OneDrive/Desktop/GD32VW553/V1_MQTT_OK/GD32VW55X_Wifi_BLE_SDK/GD32VW55x_RELEASE_V1.0.2/MSDK/cloud/alicloud/src/infra/system\report.c **** unsigned int g_report_id = 0;
  25:C:/Users/stapi/OneDrive/Desktop/GD32VW553/V1_MQTT_OK/GD32VW55X_Wifi_BLE_SDK/GD32VW55x_RELEASE_V1.0.2/MSDK/cloud/alicloud/src/infra/system\report.c **** 
  26:C:/Users/stapi/OneDrive/Desktop/GD32VW553/V1_MQTT_OK/GD32VW55X_Wifi_BLE_SDK/GD32VW55x_RELEASE_V1.0.2/MSDK/cloud/alicloud/src/infra/system\report.c **** int iotx_report_id(void)
  27:C:/Users/stapi/OneDrive/Desktop/GD32VW553/V1_MQTT_OK/GD32VW55X_Wifi_BLE_SDK/GD32VW55x_RELEASE_V1.0.2/MSDK/cloud/alicloud/src/infra/system\report.c **** {
  16              		.loc 1 27 1
  17              		.cfi_startproc
  28:C:/Users/stapi/OneDrive/Desktop/GD32VW553/V1_MQTT_OK/GD32VW55X_Wifi_BLE_SDK/GD32VW55x_RELEASE_V1.0.2/MSDK/cloud/alicloud/src/infra/system\report.c ****     return g_report_id++;
  18              		.loc 1 28 5
  19              		.loc 1 28 23 is_stmt 0
  20 0000 B7070000 		lui	a5,%hi(.LANCHOR0)
  21 0004 93870700 		addi	a5,a5,%lo(.LANCHOR0)
  22 0008 8843     		lw	a0,0(a5)
  23 000a 13071500 		addi	a4,a0,1
  24 000e 98C3     		sw	a4,0(a5)
  29:C:/Users/stapi/OneDrive/Desktop/GD32VW553/V1_MQTT_OK/GD32VW55X_Wifi_BLE_SDK/GD32VW55x_RELEASE_V1.0.2/MSDK/cloud/alicloud/src/infra/system\report.c **** }
  25              		.loc 1 29 1
  26 0010 8280     		ret
  27              		.cfi_endproc
  28              	.LFE20:
  30              		.section	.rodata.iotx_midreport_reqid.str1.4,"aMS",@progbits,1
  31              		.align	2
  32              	.LC0:
  33 0000 256400   		.string	"%d"
  34              		.section	.text.iotx_midreport_reqid,"ax",@progbits
  35              		.align	1
  36              		.globl	iotx_midreport_reqid
  38              	iotx_midreport_reqid:
  39              	.LFB21:
  30:C:/Users/stapi/OneDrive/Desktop/GD32VW553/V1_MQTT_OK/GD32VW55X_Wifi_BLE_SDK/GD32VW55x_RELEASE_V1.0.2/MSDK/cloud/alicloud/src/infra/system\report.c **** 
  31:C:/Users/stapi/OneDrive/Desktop/GD32VW553/V1_MQTT_OK/GD32VW55X_Wifi_BLE_SDK/GD32VW55x_RELEASE_V1.0.2/MSDK/cloud/alicloud/src/infra/system\report.c **** int iotx_midreport_reqid(char *requestId, char *product_key, char *device_name)
  32:C:/Users/stapi/OneDrive/Desktop/GD32VW553/V1_MQTT_OK/GD32VW55X_Wifi_BLE_SDK/GD32VW55x_RELEASE_V1.0.2/MSDK/cloud/alicloud/src/infra/system\report.c **** {
  40              		.loc 1 32 1 is_stmt 1
  41              		.cfi_startproc
  42              	.LVL0:
  43 0000 17030000 		call	t0,__riscv_save_1
  43      E7020300 
  44              		.cfi_offset 8, -8
  45              		.cfi_offset 1, -4
  46              		.cfi_def_cfa_offset 16
  33:C:/Users/stapi/OneDrive/Desktop/GD32VW553/V1_MQTT_OK/GD32VW55X_Wifi_BLE_SDK/GD32VW55x_RELEASE_V1.0.2/MSDK/cloud/alicloud/src/infra/system\report.c ****     int ret;
  47              		.loc 1 33 5
  34:C:/Users/stapi/OneDrive/Desktop/GD32VW553/V1_MQTT_OK/GD32VW55X_Wifi_BLE_SDK/GD32VW55x_RELEASE_V1.0.2/MSDK/cloud/alicloud/src/infra/system\report.c ****     /* requestId = pk+devicename+mid */
  35:C:/Users/stapi/OneDrive/Desktop/GD32VW553/V1_MQTT_OK/GD32VW55X_Wifi_BLE_SDK/GD32VW55x_RELEASE_V1.0.2/MSDK/cloud/alicloud/src/infra/system\report.c ****     ret = HAL_Snprintf(requestId,
  48              		.loc 1 35 5
  32:C:/Users/stapi/OneDrive/Desktop/GD32VW553/V1_MQTT_OK/GD32VW55X_Wifi_BLE_SDK/GD32VW55x_RELEASE_V1.0.2/MSDK/cloud/alicloud/src/infra/system\report.c ****     int ret;
  49              		.loc 1 32 1 is_stmt 0
  50 0008 2A84     		mv	s0,a0
  51              		.loc 1 35 11
  52 000a 97000000 		call	iotx_report_id
  52      E7800000 
  53              	.LVL1:
  54 0012 37060000 		lui	a2,%hi(.LC0)
  55 0016 AA86     		mv	a3,a0
  56 0018 13060600 		addi	a2,a2,%lo(.LC0)
  57 001c 9305A003 		li	a1,58
  58 0020 2285     		mv	a0,s0
  59 0022 97000000 		call	HAL_Snprintf
  59      E7800000 
  60              	.LVL2:
  36:C:/Users/stapi/OneDrive/Desktop/GD32VW553/V1_MQTT_OK/GD32VW55X_Wifi_BLE_SDK/GD32VW55x_RELEASE_V1.0.2/MSDK/cloud/alicloud/src/infra/system\report.c ****                        MIDREPORT_REQID_LEN,
  37:C:/Users/stapi/OneDrive/Desktop/GD32VW553/V1_MQTT_OK/GD32VW55X_Wifi_BLE_SDK/GD32VW55x_RELEASE_V1.0.2/MSDK/cloud/alicloud/src/infra/system\report.c ****                        "%d",
  38:C:/Users/stapi/OneDrive/Desktop/GD32VW553/V1_MQTT_OK/GD32VW55X_Wifi_BLE_SDK/GD32VW55x_RELEASE_V1.0.2/MSDK/cloud/alicloud/src/infra/system\report.c ****                        iotx_report_id());
  39:C:/Users/stapi/OneDrive/Desktop/GD32VW553/V1_MQTT_OK/GD32VW55X_Wifi_BLE_SDK/GD32VW55x_RELEASE_V1.0.2/MSDK/cloud/alicloud/src/infra/system\report.c **** 
  40:C:/Users/stapi/OneDrive/Desktop/GD32VW553/V1_MQTT_OK/GD32VW55X_Wifi_BLE_SDK/GD32VW55x_RELEASE_V1.0.2/MSDK/cloud/alicloud/src/infra/system\report.c ****     return ret;
  61              		.loc 1 40 5 is_stmt 1
  41:C:/Users/stapi/OneDrive/Desktop/GD32VW553/V1_MQTT_OK/GD32VW55X_Wifi_BLE_SDK/GD32VW55x_RELEASE_V1.0.2/MSDK/cloud/alicloud/src/infra/system\report.c **** }
  62              		.loc 1 41 1 is_stmt 0
  63 002a 17030000 		tail	__riscv_restore_1
  63      67000300 
  64              		.cfi_restore 8
  65              		.cfi_restore 1
  66              		.cfi_def_cfa_offset 0
  67              		.cfi_endproc
  68              	.LFE21:
  70              		.section	.rodata.iotx_midreport_payload.str1.4,"aMS",@progbits,1
  71              		.align	2
  72              	.LC1:
  73 0000 7B226964 		.string	"{\"id\":\"%s\",\"params\":{\"_sys_device_mid\":\"%s\",\"_sys_device_pid\":\"%s\"}}"
  73      223A2225 
  73      73222C22 
  73      70617261 
  73      6D73223A 
  74              		.section	.text.iotx_midreport_payload,"ax",@progbits
  75              		.align	1
  76              		.globl	iotx_midreport_payload
  78              	iotx_midreport_payload:
  79              	.LFB22:
  42:C:/Users/stapi/OneDrive/Desktop/GD32VW553/V1_MQTT_OK/GD32VW55X_Wifi_BLE_SDK/GD32VW55x_RELEASE_V1.0.2/MSDK/cloud/alicloud/src/infra/system\report.c **** 
  43:C:/Users/stapi/OneDrive/Desktop/GD32VW553/V1_MQTT_OK/GD32VW55X_Wifi_BLE_SDK/GD32VW55x_RELEASE_V1.0.2/MSDK/cloud/alicloud/src/infra/system\report.c **** int iotx_midreport_payload(char *msg, char *requestId, char *mid, char *pid)
  44:C:/Users/stapi/OneDrive/Desktop/GD32VW553/V1_MQTT_OK/GD32VW55X_Wifi_BLE_SDK/GD32VW55x_RELEASE_V1.0.2/MSDK/cloud/alicloud/src/infra/system\report.c **** {
  80              		.loc 1 44 1 is_stmt 1
  81              		.cfi_startproc
  82              	.LVL3:
  45:C:/Users/stapi/OneDrive/Desktop/GD32VW553/V1_MQTT_OK/GD32VW55X_Wifi_BLE_SDK/GD32VW55x_RELEASE_V1.0.2/MSDK/cloud/alicloud/src/infra/system\report.c ****     int ret;
  83              		.loc 1 45 5
  46:C:/Users/stapi/OneDrive/Desktop/GD32VW553/V1_MQTT_OK/GD32VW55X_Wifi_BLE_SDK/GD32VW55x_RELEASE_V1.0.2/MSDK/cloud/alicloud/src/infra/system\report.c ****     /*topic's json data: {"id":"requestId" ,"params":{"_sys_device_mid":mid,"_sys_device_pid":pid }
  47:C:/Users/stapi/OneDrive/Desktop/GD32VW553/V1_MQTT_OK/GD32VW55X_Wifi_BLE_SDK/GD32VW55x_RELEASE_V1.0.2/MSDK/cloud/alicloud/src/infra/system\report.c ****     ret = HAL_Snprintf(msg,
  84              		.loc 1 47 5
  44:C:/Users/stapi/OneDrive/Desktop/GD32VW553/V1_MQTT_OK/GD32VW55X_Wifi_BLE_SDK/GD32VW55x_RELEASE_V1.0.2/MSDK/cloud/alicloud/src/infra/system\report.c ****     int ret;
  85              		.loc 1 44 1 is_stmt 0
  86 0000 3287     		mv	a4,a2
  87              		.loc 1 47 11
  88 0002 37060000 		lui	a2,%hi(.LC1)
  89              	.LVL4:
  44:C:/Users/stapi/OneDrive/Desktop/GD32VW553/V1_MQTT_OK/GD32VW55X_Wifi_BLE_SDK/GD32VW55x_RELEASE_V1.0.2/MSDK/cloud/alicloud/src/infra/system\report.c ****     int ret;
  90              		.loc 1 44 1
  91 0006 B687     		mv	a5,a3
  92              		.loc 1 47 11
  93 0008 13060600 		addi	a2,a2,%lo(.LC1)
  94 000c AE86     		mv	a3,a1
  95              	.LVL5:
  96 000e 9305F00D 		li	a1,223
  97              	.LVL6:
  98 0012 17030000 		tail	HAL_Snprintf
  98      67000300 
  99              	.LVL7:
  48:C:/Users/stapi/OneDrive/Desktop/GD32VW553/V1_MQTT_OK/GD32VW55X_Wifi_BLE_SDK/GD32VW55x_RELEASE_V1.0.2/MSDK/cloud/alicloud/src/infra/system\report.c ****                        MIDREPORT_PAYLOAD_LEN,
  49:C:/Users/stapi/OneDrive/Desktop/GD32VW553/V1_MQTT_OK/GD32VW55X_Wifi_BLE_SDK/GD32VW55x_RELEASE_V1.0.2/MSDK/cloud/alicloud/src/infra/system\report.c ****                        "{\"id\":\"%s\",\"params\":{\"_sys_device_mid\":\"%s\",\"_sys_device_pid\":\
  50:C:/Users/stapi/OneDrive/Desktop/GD32VW553/V1_MQTT_OK/GD32VW55X_Wifi_BLE_SDK/GD32VW55x_RELEASE_V1.0.2/MSDK/cloud/alicloud/src/infra/system\report.c ****                        requestId,
  51:C:/Users/stapi/OneDrive/Desktop/GD32VW553/V1_MQTT_OK/GD32VW55X_Wifi_BLE_SDK/GD32VW55x_RELEASE_V1.0.2/MSDK/cloud/alicloud/src/infra/system\report.c ****                        mid,
  52:C:/Users/stapi/OneDrive/Desktop/GD32VW553/V1_MQTT_OK/GD32VW55X_Wifi_BLE_SDK/GD32VW55x_RELEASE_V1.0.2/MSDK/cloud/alicloud/src/infra/system\report.c ****                        pid);
  53:C:/Users/stapi/OneDrive/Desktop/GD32VW553/V1_MQTT_OK/GD32VW55X_Wifi_BLE_SDK/GD32VW55x_RELEASE_V1.0.2/MSDK/cloud/alicloud/src/infra/system\report.c ****     return ret;
 100              		.loc 1 53 5 is_stmt 1
 101              		.cfi_endproc
 102              	.LFE22:
 104              		.section	.rodata.iotx_midreport_topic.str1.4,"aMS",@progbits,1
 105              		.align	2
 106              	.LC2:
 107 0000 25732F73 		.string	"%s/sys/%s/%s/thing/deviceinfo/update"
 107      79732F25 
 107      732F2573 
 107      2F746869 
 107      6E672F64 
 108              		.section	.text.iotx_midreport_topic,"ax",@progbits
 109              		.align	1
 110              		.globl	iotx_midreport_topic
 112              	iotx_midreport_topic:
 113              	.LFB23:
  54:C:/Users/stapi/OneDrive/Desktop/GD32VW553/V1_MQTT_OK/GD32VW55X_Wifi_BLE_SDK/GD32VW55x_RELEASE_V1.0.2/MSDK/cloud/alicloud/src/infra/system\report.c **** }
  55:C:/Users/stapi/OneDrive/Desktop/GD32VW553/V1_MQTT_OK/GD32VW55X_Wifi_BLE_SDK/GD32VW55x_RELEASE_V1.0.2/MSDK/cloud/alicloud/src/infra/system\report.c **** 
  56:C:/Users/stapi/OneDrive/Desktop/GD32VW553/V1_MQTT_OK/GD32VW55X_Wifi_BLE_SDK/GD32VW55x_RELEASE_V1.0.2/MSDK/cloud/alicloud/src/infra/system\report.c **** int iotx_midreport_topic(char *topic_name, char *topic_head, char *product_key, char *device_name)
  57:C:/Users/stapi/OneDrive/Desktop/GD32VW553/V1_MQTT_OK/GD32VW55X_Wifi_BLE_SDK/GD32VW55x_RELEASE_V1.0.2/MSDK/cloud/alicloud/src/infra/system\report.c **** {
 114              		.loc 1 57 1
 115              		.cfi_startproc
 116              	.LVL8:
  58:C:/Users/stapi/OneDrive/Desktop/GD32VW553/V1_MQTT_OK/GD32VW55X_Wifi_BLE_SDK/GD32VW55x_RELEASE_V1.0.2/MSDK/cloud/alicloud/src/infra/system\report.c ****     int ret;
 117              		.loc 1 58 5
  59:C:/Users/stapi/OneDrive/Desktop/GD32VW553/V1_MQTT_OK/GD32VW55X_Wifi_BLE_SDK/GD32VW55x_RELEASE_V1.0.2/MSDK/cloud/alicloud/src/infra/system\report.c ****     /* reported topic name: "/sys/${productKey}/${deviceName}/thing/status/update" */
  60:C:/Users/stapi/OneDrive/Desktop/GD32VW553/V1_MQTT_OK/GD32VW55X_Wifi_BLE_SDK/GD32VW55x_RELEASE_V1.0.2/MSDK/cloud/alicloud/src/infra/system\report.c ****     ret = HAL_Snprintf(topic_name,
 118              		.loc 1 60 5
  57:C:/Users/stapi/OneDrive/Desktop/GD32VW553/V1_MQTT_OK/GD32VW55X_Wifi_BLE_SDK/GD32VW55x_RELEASE_V1.0.2/MSDK/cloud/alicloud/src/infra/system\report.c ****     int ret;
 119              		.loc 1 57 1 is_stmt 0
 120 0000 3287     		mv	a4,a2
 121              		.loc 1 60 11
 122 0002 37060000 		lui	a2,%hi(.LC2)
 123              	.LVL9:
  57:C:/Users/stapi/OneDrive/Desktop/GD32VW553/V1_MQTT_OK/GD32VW55X_Wifi_BLE_SDK/GD32VW55x_RELEASE_V1.0.2/MSDK/cloud/alicloud/src/infra/system\report.c ****     int ret;
 124              		.loc 1 57 1
 125 0006 B687     		mv	a5,a3
 126              		.loc 1 60 11
 127 0008 13060600 		addi	a2,a2,%lo(.LC2)
 128 000c AE86     		mv	a3,a1
 129              	.LVL10:
 130 000e 93057008 		li	a1,135
 131              	.LVL11:
 132 0012 17030000 		tail	HAL_Snprintf
 132      67000300 
 133              	.LVL12:
  61:C:/Users/stapi/OneDrive/Desktop/GD32VW553/V1_MQTT_OK/GD32VW55X_Wifi_BLE_SDK/GD32VW55x_RELEASE_V1.0.2/MSDK/cloud/alicloud/src/infra/system\report.c ****                        IOTX_URI_MAX_LEN,
  62:C:/Users/stapi/OneDrive/Desktop/GD32VW553/V1_MQTT_OK/GD32VW55X_Wifi_BLE_SDK/GD32VW55x_RELEASE_V1.0.2/MSDK/cloud/alicloud/src/infra/system\report.c ****                        "%s/sys/%s/%s/thing/deviceinfo/update",
  63:C:/Users/stapi/OneDrive/Desktop/GD32VW553/V1_MQTT_OK/GD32VW55X_Wifi_BLE_SDK/GD32VW55x_RELEASE_V1.0.2/MSDK/cloud/alicloud/src/infra/system\report.c ****                        topic_head,
  64:C:/Users/stapi/OneDrive/Desktop/GD32VW553/V1_MQTT_OK/GD32VW55X_Wifi_BLE_SDK/GD32VW55x_RELEASE_V1.0.2/MSDK/cloud/alicloud/src/infra/system\report.c ****                        product_key,
  65:C:/Users/stapi/OneDrive/Desktop/GD32VW553/V1_MQTT_OK/GD32VW55X_Wifi_BLE_SDK/GD32VW55x_RELEASE_V1.0.2/MSDK/cloud/alicloud/src/infra/system\report.c ****                        device_name);
  66:C:/Users/stapi/OneDrive/Desktop/GD32VW553/V1_MQTT_OK/GD32VW55X_Wifi_BLE_SDK/GD32VW55x_RELEASE_V1.0.2/MSDK/cloud/alicloud/src/infra/system\report.c ****     return ret;
 134              		.loc 1 66 5 is_stmt 1
 135              		.cfi_endproc
 136              	.LFE23:
 138              		.section	.text.iotx_set_report_func,"ax",@progbits
 139              		.align	1
 140              		.globl	iotx_set_report_func
 142              	iotx_set_report_func:
 143              	.LFB24:
  67:C:/Users/stapi/OneDrive/Desktop/GD32VW553/V1_MQTT_OK/GD32VW55X_Wifi_BLE_SDK/GD32VW55x_RELEASE_V1.0.2/MSDK/cloud/alicloud/src/infra/system\report.c **** }
  68:C:/Users/stapi/OneDrive/Desktop/GD32VW553/V1_MQTT_OK/GD32VW55X_Wifi_BLE_SDK/GD32VW55x_RELEASE_V1.0.2/MSDK/cloud/alicloud/src/infra/system\report.c **** 
  69:C:/Users/stapi/OneDrive/Desktop/GD32VW553/V1_MQTT_OK/GD32VW55X_Wifi_BLE_SDK/GD32VW55x_RELEASE_V1.0.2/MSDK/cloud/alicloud/src/infra/system\report.c **** 
  70:C:/Users/stapi/OneDrive/Desktop/GD32VW553/V1_MQTT_OK/GD32VW55X_Wifi_BLE_SDK/GD32VW55x_RELEASE_V1.0.2/MSDK/cloud/alicloud/src/infra/system\report.c **** static info_report_func_pt info_report_func = NULL;
  71:C:/Users/stapi/OneDrive/Desktop/GD32VW553/V1_MQTT_OK/GD32VW55X_Wifi_BLE_SDK/GD32VW55x_RELEASE_V1.0.2/MSDK/cloud/alicloud/src/infra/system\report.c **** 
  72:C:/Users/stapi/OneDrive/Desktop/GD32VW553/V1_MQTT_OK/GD32VW55X_Wifi_BLE_SDK/GD32VW55x_RELEASE_V1.0.2/MSDK/cloud/alicloud/src/infra/system\report.c **** void iotx_set_report_func(info_report_func_pt func)
  73:C:/Users/stapi/OneDrive/Desktop/GD32VW553/V1_MQTT_OK/GD32VW55X_Wifi_BLE_SDK/GD32VW55x_RELEASE_V1.0.2/MSDK/cloud/alicloud/src/infra/system\report.c **** {
 144              		.loc 1 73 1
 145              		.cfi_startproc
 146              	.LVL13:
  74:C:/Users/stapi/OneDrive/Desktop/GD32VW553/V1_MQTT_OK/GD32VW55X_Wifi_BLE_SDK/GD32VW55x_RELEASE_V1.0.2/MSDK/cloud/alicloud/src/infra/system\report.c ****     info_report_func = func;
 147              		.loc 1 74 5
 148              		.loc 1 74 22 is_stmt 0
 149 0000 B7070000 		lui	a5,%hi(.LANCHOR1)
 150 0004 23A0A700 		sw	a0,%lo(.LANCHOR1)(a5)
  75:C:/Users/stapi/OneDrive/Desktop/GD32VW553/V1_MQTT_OK/GD32VW55X_Wifi_BLE_SDK/GD32VW55x_RELEASE_V1.0.2/MSDK/cloud/alicloud/src/infra/system\report.c **** }
 151              		.loc 1 75 1
 152 0008 8280     		ret
 153              		.cfi_endproc
 154              	.LFE24:
 156              		.section	.rodata.aos_get_version_hex.str1.4,"aMS",@progbits,1
 157              		.align	2
 158              	.LC3:
 159 0000 322E332E 		.string	"2.3.0_FY_1.6.6-9"
 159      305F4659 
 159      5F312E36 
 159      2E362D39 
 159      00
 160              		.section	.text.aos_get_version_hex,"ax",@progbits
 161              		.align	1
 162              		.globl	aos_get_version_hex
 164              	aos_get_version_hex:
 165              	.LFB25:
  76:C:/Users/stapi/OneDrive/Desktop/GD32VW553/V1_MQTT_OK/GD32VW55X_Wifi_BLE_SDK/GD32VW55x_RELEASE_V1.0.2/MSDK/cloud/alicloud/src/infra/system\report.c **** // aos will implement this function
  77:C:/Users/stapi/OneDrive/Desktop/GD32VW553/V1_MQTT_OK/GD32VW55X_Wifi_BLE_SDK/GD32VW55x_RELEASE_V1.0.2/MSDK/cloud/alicloud/src/infra/system\report.c **** #if defined(BUILD_AOS)
  78:C:/Users/stapi/OneDrive/Desktop/GD32VW553/V1_MQTT_OK/GD32VW55X_Wifi_BLE_SDK/GD32VW55x_RELEASE_V1.0.2/MSDK/cloud/alicloud/src/infra/system\report.c **** extern void aos_get_version_hex(unsigned char version[VERSION_NUM_SIZE]);
  79:C:/Users/stapi/OneDrive/Desktop/GD32VW553/V1_MQTT_OK/GD32VW55X_Wifi_BLE_SDK/GD32VW55x_RELEASE_V1.0.2/MSDK/cloud/alicloud/src/infra/system\report.c **** #else
  80:C:/Users/stapi/OneDrive/Desktop/GD32VW553/V1_MQTT_OK/GD32VW55X_Wifi_BLE_SDK/GD32VW55x_RELEASE_V1.0.2/MSDK/cloud/alicloud/src/infra/system\report.c **** void aos_get_version_hex(unsigned char version[VERSION_NUM_SIZE])
  81:C:/Users/stapi/OneDrive/Desktop/GD32VW553/V1_MQTT_OK/GD32VW55X_Wifi_BLE_SDK/GD32VW55x_RELEASE_V1.0.2/MSDK/cloud/alicloud/src/infra/system\report.c **** {
 166              		.loc 1 81 1 is_stmt 1
 167              		.cfi_startproc
 168              	.LVL14:
  82:C:/Users/stapi/OneDrive/Desktop/GD32VW553/V1_MQTT_OK/GD32VW55X_Wifi_BLE_SDK/GD32VW55x_RELEASE_V1.0.2/MSDK/cloud/alicloud/src/infra/system\report.c ****     const char *p_version = LINKKIT_VERSION;
 169              		.loc 1 82 5
  83:C:/Users/stapi/OneDrive/Desktop/GD32VW553/V1_MQTT_OK/GD32VW55X_Wifi_BLE_SDK/GD32VW55x_RELEASE_V1.0.2/MSDK/cloud/alicloud/src/infra/system\report.c ****     int i = 0, j = 0;
 170              		.loc 1 83 5
  84:C:/Users/stapi/OneDrive/Desktop/GD32VW553/V1_MQTT_OK/GD32VW55X_Wifi_BLE_SDK/GD32VW55x_RELEASE_V1.0.2/MSDK/cloud/alicloud/src/infra/system\report.c ****     unsigned char res = 0;
 171              		.loc 1 84 5
  85:C:/Users/stapi/OneDrive/Desktop/GD32VW553/V1_MQTT_OK/GD32VW55X_Wifi_BLE_SDK/GD32VW55x_RELEASE_V1.0.2/MSDK/cloud/alicloud/src/infra/system\report.c **** 
  86:C:/Users/stapi/OneDrive/Desktop/GD32VW553/V1_MQTT_OK/GD32VW55X_Wifi_BLE_SDK/GD32VW55x_RELEASE_V1.0.2/MSDK/cloud/alicloud/src/infra/system\report.c ****     for (j = 0; j < 3; j++) {
 172              		.loc 1 86 5
 173              		.loc 1 86 17
  87:C:/Users/stapi/OneDrive/Desktop/GD32VW553/V1_MQTT_OK/GD32VW55X_Wifi_BLE_SDK/GD32VW55x_RELEASE_V1.0.2/MSDK/cloud/alicloud/src/infra/system\report.c ****         for (res = 0; p_version[i] <= '9' && p_version[i] >= '0'; i++) {
 174              		.loc 1 87 32 is_stmt 0
 175 0000 B7050000 		lui	a1,%hi(.LC3)
  86:C:/Users/stapi/OneDrive/Desktop/GD32VW553/V1_MQTT_OK/GD32VW55X_Wifi_BLE_SDK/GD32VW55x_RELEASE_V1.0.2/MSDK/cloud/alicloud/src/infra/system\report.c ****         for (res = 0; p_version[i] <= '9' && p_version[i] >= '0'; i++) {
 176              		.loc 1 86 12
 177 0004 0147     		li	a4,0
  83:C:/Users/stapi/OneDrive/Desktop/GD32VW553/V1_MQTT_OK/GD32VW55X_Wifi_BLE_SDK/GD32VW55x_RELEASE_V1.0.2/MSDK/cloud/alicloud/src/infra/system\report.c ****     unsigned char res = 0;
 178              		.loc 1 83 9
 179 0006 0146     		li	a2,0
 180              		.loc 1 87 32
 181 0008 93850500 		addi	a1,a1,%lo(.LC3)
 182              		.loc 1 87 9
 183 000c A548     		li	a7,9
  88:C:/Users/stapi/OneDrive/Desktop/GD32VW553/V1_MQTT_OK/GD32VW55X_Wifi_BLE_SDK/GD32VW55x_RELEASE_V1.0.2/MSDK/cloud/alicloud/src/infra/system\report.c ****             res = res * 10 + p_version[i] - '0';
 184              		.loc 1 88 28
 185 000e 294E     		li	t3,10
  86:C:/Users/stapi/OneDrive/Desktop/GD32VW553/V1_MQTT_OK/GD32VW55X_Wifi_BLE_SDK/GD32VW55x_RELEASE_V1.0.2/MSDK/cloud/alicloud/src/infra/system\report.c ****         for (res = 0; p_version[i] <= '9' && p_version[i] >= '0'; i++) {
 186              		.loc 1 86 5
 187 0010 0D43     		li	t1,3
 188              	.LVL15:
 189              	.L10:
  87:C:/Users/stapi/OneDrive/Desktop/GD32VW553/V1_MQTT_OK/GD32VW55X_Wifi_BLE_SDK/GD32VW55x_RELEASE_V1.0.2/MSDK/cloud/alicloud/src/infra/system\report.c ****             res = res * 10 + p_version[i] - '0';
 190              		.loc 1 87 18
 191 0012 8146     		li	a3,0
 192 0014 39A0     		j	.L13
 193              	.LVL16:
 194              	.L11:
 195              		.loc 1 88 13 is_stmt 1 discriminator 3
 196 0016 FF97C6C5 		maddr32	a5, a3, t3
 197              		.loc 1 88 17 is_stmt 0 discriminator 3
 198 001a 938707FD 		addi	a5,a5,-48
 199 001e 93F6F70F 		andi	a3,a5,0xff
 200              	.LVL17:
  87:C:/Users/stapi/OneDrive/Desktop/GD32VW553/V1_MQTT_OK/GD32VW55X_Wifi_BLE_SDK/GD32VW55x_RELEASE_V1.0.2/MSDK/cloud/alicloud/src/infra/system\report.c ****             res = res * 10 + p_version[i] - '0';
 201              		.loc 1 87 67 is_stmt 1 discriminator 3
 202              	.L13:
  87:C:/Users/stapi/OneDrive/Desktop/GD32VW553/V1_MQTT_OK/GD32VW55X_Wifi_BLE_SDK/GD32VW55x_RELEASE_V1.0.2/MSDK/cloud/alicloud/src/infra/system\report.c ****             res = res * 10 + p_version[i] - '0';
 203              		.loc 1 87 23 discriminator 1
  87:C:/Users/stapi/OneDrive/Desktop/GD32VW553/V1_MQTT_OK/GD32VW55X_Wifi_BLE_SDK/GD32VW55x_RELEASE_V1.0.2/MSDK/cloud/alicloud/src/infra/system\report.c ****             res = res * 10 + p_version[i] - '0';
 204              		.loc 1 87 32 is_stmt 0 discriminator 1
 205 0022 B307B600 		add	a5,a2,a1
  87:C:/Users/stapi/OneDrive/Desktop/GD32VW553/V1_MQTT_OK/GD32VW55X_Wifi_BLE_SDK/GD32VW55x_RELEASE_V1.0.2/MSDK/cloud/alicloud/src/infra/system\report.c ****             res = res * 10 + p_version[i] - '0';
 206              		.loc 1 87 43 discriminator 1
 207 0026 83C70700 		lbu	a5,0(a5)
  87:C:/Users/stapi/OneDrive/Desktop/GD32VW553/V1_MQTT_OK/GD32VW55X_Wifi_BLE_SDK/GD32VW55x_RELEASE_V1.0.2/MSDK/cloud/alicloud/src/infra/system\report.c ****             res = res * 10 + p_version[i] - '0';
 208              		.loc 1 87 68 discriminator 1
 209 002a 0506     		addi	a2,a2,1
 210              	.LVL18:
  87:C:/Users/stapi/OneDrive/Desktop/GD32VW553/V1_MQTT_OK/GD32VW55X_Wifi_BLE_SDK/GD32VW55x_RELEASE_V1.0.2/MSDK/cloud/alicloud/src/infra/system\report.c ****             res = res * 10 + p_version[i] - '0';
 211              		.loc 1 87 43 discriminator 1
 212 002c 138807FD 		addi	a6,a5,-48
  87:C:/Users/stapi/OneDrive/Desktop/GD32VW553/V1_MQTT_OK/GD32VW55X_Wifi_BLE_SDK/GD32VW55x_RELEASE_V1.0.2/MSDK/cloud/alicloud/src/infra/system\report.c ****             res = res * 10 + p_version[i] - '0';
 213              		.loc 1 87 9 discriminator 1
 214 0030 1378F80F 		andi	a6,a6,0xff
 215 0034 E3F108FF 		bleu	a6,a7,.L11
  89:C:/Users/stapi/OneDrive/Desktop/GD32VW553/V1_MQTT_OK/GD32VW55X_Wifi_BLE_SDK/GD32VW55x_RELEASE_V1.0.2/MSDK/cloud/alicloud/src/infra/system\report.c ****         }
  90:C:/Users/stapi/OneDrive/Desktop/GD32VW553/V1_MQTT_OK/GD32VW55X_Wifi_BLE_SDK/GD32VW55x_RELEASE_V1.0.2/MSDK/cloud/alicloud/src/infra/system\report.c ****         version[j] = res;
 216              		.loc 1 90 9 is_stmt 1 discriminator 2
 217              		.loc 1 90 20 is_stmt 0 discriminator 2
 218 0038 B307E500 		add	a5,a0,a4
 219 003c 2380D700 		sb	a3,0(a5)
  91:C:/Users/stapi/OneDrive/Desktop/GD32VW553/V1_MQTT_OK/GD32VW55X_Wifi_BLE_SDK/GD32VW55x_RELEASE_V1.0.2/MSDK/cloud/alicloud/src/infra/system\report.c ****         i++;
 220              		.loc 1 91 9 is_stmt 1 discriminator 2
 221              	.LVL19:
  86:C:/Users/stapi/OneDrive/Desktop/GD32VW553/V1_MQTT_OK/GD32VW55X_Wifi_BLE_SDK/GD32VW55x_RELEASE_V1.0.2/MSDK/cloud/alicloud/src/infra/system\report.c ****         for (res = 0; p_version[i] <= '9' && p_version[i] >= '0'; i++) {
 222              		.loc 1 86 24 discriminator 2
  86:C:/Users/stapi/OneDrive/Desktop/GD32VW553/V1_MQTT_OK/GD32VW55X_Wifi_BLE_SDK/GD32VW55x_RELEASE_V1.0.2/MSDK/cloud/alicloud/src/infra/system\report.c ****         for (res = 0; p_version[i] <= '9' && p_version[i] >= '0'; i++) {
 223              		.loc 1 86 25 is_stmt 0 discriminator 2
 224 0040 0507     		addi	a4,a4,1
 225              	.LVL20:
  86:C:/Users/stapi/OneDrive/Desktop/GD32VW553/V1_MQTT_OK/GD32VW55X_Wifi_BLE_SDK/GD32VW55x_RELEASE_V1.0.2/MSDK/cloud/alicloud/src/infra/system\report.c ****         for (res = 0; p_version[i] <= '9' && p_version[i] >= '0'; i++) {
 226              		.loc 1 86 17 is_stmt 1 discriminator 2
  86:C:/Users/stapi/OneDrive/Desktop/GD32VW553/V1_MQTT_OK/GD32VW55X_Wifi_BLE_SDK/GD32VW55x_RELEASE_V1.0.2/MSDK/cloud/alicloud/src/infra/system\report.c ****         for (res = 0; p_version[i] <= '9' && p_version[i] >= '0'; i++) {
 227              		.loc 1 86 5 is_stmt 0 discriminator 2
 228 0042 E31867FC 		bne	a4,t1,.L10
  92:C:/Users/stapi/OneDrive/Desktop/GD32VW553/V1_MQTT_OK/GD32VW55X_Wifi_BLE_SDK/GD32VW55x_RELEASE_V1.0.2/MSDK/cloud/alicloud/src/infra/system\report.c ****     }
  93:C:/Users/stapi/OneDrive/Desktop/GD32VW553/V1_MQTT_OK/GD32VW55X_Wifi_BLE_SDK/GD32VW55x_RELEASE_V1.0.2/MSDK/cloud/alicloud/src/infra/system\report.c ****     version[3] = 0x00;
 229              		.loc 1 93 5 is_stmt 1
 230              		.loc 1 93 16 is_stmt 0
 231 0046 A3010500 		sb	zero,3(a0)
  94:C:/Users/stapi/OneDrive/Desktop/GD32VW553/V1_MQTT_OK/GD32VW55X_Wifi_BLE_SDK/GD32VW55x_RELEASE_V1.0.2/MSDK/cloud/alicloud/src/infra/system\report.c **** }
 232              		.loc 1 94 1
 233 004a 8280     		ret
 234              		.cfi_endproc
 235              	.LFE25:
 237              		.section	.rodata.aos_get_mac_hex.str1.4,"aMS",@progbits,1
 238              		.align	2
 239              	.LC4:
 240 0000 01020304 		.string	"\001\002\003\004\005\006\007\b"
 240      05060708 
 240      00
 241              		.section	.text.aos_get_mac_hex,"ax",@progbits
 242              		.align	1
 243              		.globl	aos_get_mac_hex
 245              	aos_get_mac_hex:
 246              	.LFB26:
  95:C:/Users/stapi/OneDrive/Desktop/GD32VW553/V1_MQTT_OK/GD32VW55X_Wifi_BLE_SDK/GD32VW55x_RELEASE_V1.0.2/MSDK/cloud/alicloud/src/infra/system\report.c **** #endif
  96:C:/Users/stapi/OneDrive/Desktop/GD32VW553/V1_MQTT_OK/GD32VW55X_Wifi_BLE_SDK/GD32VW55x_RELEASE_V1.0.2/MSDK/cloud/alicloud/src/infra/system\report.c **** 
  97:C:/Users/stapi/OneDrive/Desktop/GD32VW553/V1_MQTT_OK/GD32VW55X_Wifi_BLE_SDK/GD32VW55x_RELEASE_V1.0.2/MSDK/cloud/alicloud/src/infra/system\report.c **** // aos will implement this function
  98:C:/Users/stapi/OneDrive/Desktop/GD32VW553/V1_MQTT_OK/GD32VW55X_Wifi_BLE_SDK/GD32VW55x_RELEASE_V1.0.2/MSDK/cloud/alicloud/src/infra/system\report.c **** #if defined(BUILD_AOS)
  99:C:/Users/stapi/OneDrive/Desktop/GD32VW553/V1_MQTT_OK/GD32VW55X_Wifi_BLE_SDK/GD32VW55x_RELEASE_V1.0.2/MSDK/cloud/alicloud/src/infra/system\report.c **** extern void aos_get_mac_hex(unsigned char mac[MAC_ADDRESS_SIZE]);
 100:C:/Users/stapi/OneDrive/Desktop/GD32VW553/V1_MQTT_OK/GD32VW55X_Wifi_BLE_SDK/GD32VW55x_RELEASE_V1.0.2/MSDK/cloud/alicloud/src/infra/system\report.c **** #else
 101:C:/Users/stapi/OneDrive/Desktop/GD32VW553/V1_MQTT_OK/GD32VW55X_Wifi_BLE_SDK/GD32VW55x_RELEASE_V1.0.2/MSDK/cloud/alicloud/src/infra/system\report.c **** void aos_get_mac_hex(unsigned char mac[MAC_ADDRESS_SIZE])
 102:C:/Users/stapi/OneDrive/Desktop/GD32VW553/V1_MQTT_OK/GD32VW55X_Wifi_BLE_SDK/GD32VW55x_RELEASE_V1.0.2/MSDK/cloud/alicloud/src/infra/system\report.c **** {
 247              		.loc 1 102 1 is_stmt 1
 248              		.cfi_startproc
 249              	.LVL21:
 103:C:/Users/stapi/OneDrive/Desktop/GD32VW553/V1_MQTT_OK/GD32VW55X_Wifi_BLE_SDK/GD32VW55x_RELEASE_V1.0.2/MSDK/cloud/alicloud/src/infra/system\report.c ****     memcpy(mac, "\x01\x02\x03\x04\x05\x06\x07\x08", MAC_ADDRESS_SIZE);
 250              		.loc 1 103 5
 251 0000 B7050000 		lui	a1,%hi(.LC4)
 252 0004 2146     		li	a2,8
 253 0006 93850500 		addi	a1,a1,%lo(.LC4)
 254 000a 17030000 		tail	memcpy
 254      67000300 
 255              	.LVL22:
 256              		.cfi_endproc
 257              	.LFE26:
 259              		.section	.rodata.aos_get_chip_code.str1.4,"aMS",@progbits,1
 260              		.align	2
 261              	.LC5:
 262 0000 01020304 		.string	"\001\002\003\004"
 262      00
 263              		.section	.text.aos_get_chip_code,"ax",@progbits
 264              		.align	1
 265              		.globl	aos_get_chip_code
 267              	aos_get_chip_code:
 268              	.LFB27:
 104:C:/Users/stapi/OneDrive/Desktop/GD32VW553/V1_MQTT_OK/GD32VW55X_Wifi_BLE_SDK/GD32VW55x_RELEASE_V1.0.2/MSDK/cloud/alicloud/src/infra/system\report.c **** }
 105:C:/Users/stapi/OneDrive/Desktop/GD32VW553/V1_MQTT_OK/GD32VW55X_Wifi_BLE_SDK/GD32VW55x_RELEASE_V1.0.2/MSDK/cloud/alicloud/src/infra/system\report.c **** #endif
 106:C:/Users/stapi/OneDrive/Desktop/GD32VW553/V1_MQTT_OK/GD32VW55X_Wifi_BLE_SDK/GD32VW55x_RELEASE_V1.0.2/MSDK/cloud/alicloud/src/infra/system\report.c **** 
 107:C:/Users/stapi/OneDrive/Desktop/GD32VW553/V1_MQTT_OK/GD32VW55X_Wifi_BLE_SDK/GD32VW55x_RELEASE_V1.0.2/MSDK/cloud/alicloud/src/infra/system\report.c **** // aos will implement this function
 108:C:/Users/stapi/OneDrive/Desktop/GD32VW553/V1_MQTT_OK/GD32VW55X_Wifi_BLE_SDK/GD32VW55x_RELEASE_V1.0.2/MSDK/cloud/alicloud/src/infra/system\report.c **** #if defined(BUILD_AOS)
 109:C:/Users/stapi/OneDrive/Desktop/GD32VW553/V1_MQTT_OK/GD32VW55X_Wifi_BLE_SDK/GD32VW55x_RELEASE_V1.0.2/MSDK/cloud/alicloud/src/infra/system\report.c **** extern void aos_get_chip_code(unsigned char chip_code[CHIP_CODE_SIZE]);
 110:C:/Users/stapi/OneDrive/Desktop/GD32VW553/V1_MQTT_OK/GD32VW55X_Wifi_BLE_SDK/GD32VW55x_RELEASE_V1.0.2/MSDK/cloud/alicloud/src/infra/system\report.c **** #else
 111:C:/Users/stapi/OneDrive/Desktop/GD32VW553/V1_MQTT_OK/GD32VW55X_Wifi_BLE_SDK/GD32VW55x_RELEASE_V1.0.2/MSDK/cloud/alicloud/src/infra/system\report.c **** void aos_get_chip_code(unsigned char chip_code[CHIP_CODE_SIZE])
 112:C:/Users/stapi/OneDrive/Desktop/GD32VW553/V1_MQTT_OK/GD32VW55X_Wifi_BLE_SDK/GD32VW55x_RELEASE_V1.0.2/MSDK/cloud/alicloud/src/infra/system\report.c **** {
 269              		.loc 1 112 1
 270              		.cfi_startproc
 271              	.LVL23:
 113:C:/Users/stapi/OneDrive/Desktop/GD32VW553/V1_MQTT_OK/GD32VW55X_Wifi_BLE_SDK/GD32VW55x_RELEASE_V1.0.2/MSDK/cloud/alicloud/src/infra/system\report.c ****     memcpy(chip_code, "\x01\x02\x03\x04", CHIP_CODE_SIZE);
 272              		.loc 1 113 5
 273 0000 B7050000 		lui	a1,%hi(.LC5)
 274 0004 1146     		li	a2,4
 275 0006 93850500 		addi	a1,a1,%lo(.LC5)
 276 000a 17030000 		tail	memcpy
 276      67000300 
 277              	.LVL24:
 278              		.cfi_endproc
 279              	.LFE27:
 281              		.section	.rodata.iotx_report_devinfo.str1.4,"aMS",@progbits,1
 282              		.align	2
 283              	.LC6:
 284 0000 5B657272 		.string	"[err] "
 284      5D2000
 285 0007 00       		.align	2
 286              	.LC7:
 287 0008 7265706F 		.string	"report func not register!"
 287      72742066 
 287      756E6320 
 287      6E6F7420 
 287      72656769 
 288 0022 0000     		.align	2
 289              	.LC8:
 290 0024 0D0A00   		.string	"\r\n"
 291 0027 00       		.align	2
 292              	.LC9:
 293 0028 67657420 		.string	"get device info err"
 293      64657669 
 293      63652069 
 293      6E666F20 
 293      65727200 
 294              		.align	2
 295              	.LC10:
 296 003c 616F735F 		.string	"aos_get_version_info failed"
 296      6765745F 
 296      76657273 
 296      696F6E5F 
 296      696E666F 
 297              		.align	2
 298              	.LC11:
 299 0058 2F737973 		.string	"/sys/%s/%s/thing/deviceinfo/update"
 299      2F25732F 
 299      25732F74 
 299      68696E67 
 299      2F646576 
 300 007b 00       		.align	2
 301              	.LC12:
 302 007c 746F7069 		.string	"topic generate err"
 302      63206765 
 302      6E657261 
 302      74652065 
 302      727200
 303 008f 00       		.align	2
 304              	.LC13:
 305 0090 74686520 		.string	"the network interface info set failed or not set, writen len is %d"
 305      6E657477 
 305      6F726B20 
 305      696E7465 
 305      72666163 
 306 00d3 00       		.align	2
 307              	.LC14:
 308 00d4 696E7661 		.string	"invalid network interface info"
 308      6C696420 
 308      6E657477 
 308      6F726B20 
 308      696E7465 
 309 00f3 00       		.align	2
 310              	.LC15:
 311 00f4 6D616C6C 		.string	"malloc err"
 311      6F632065 
 311      727200
 312 00ff 00       		.align	2
 313              	.LC16:
 314 0100 746F7069 		.string	"topic msg generate err"
 314      63206D73 
 314      67206765 
 314      6E657261 
 314      74652065 
 315 0117 00       		.align	2
 316              	.LC17:
 317 0118 7075626C 		.string	"publish failed, ret = %d"
 317      69736820 
 317      6661696C 
 317      65642C20 
 317      72657420 
 318              		.section	.text.iotx_report_devinfo,"ax",@progbits
 319              		.align	1
 320              		.globl	iotx_report_devinfo
 322              	iotx_report_devinfo:
 323              	.LFB28:
 114:C:/Users/stapi/OneDrive/Desktop/GD32VW553/V1_MQTT_OK/GD32VW55X_Wifi_BLE_SDK/GD32VW55x_RELEASE_V1.0.2/MSDK/cloud/alicloud/src/infra/system\report.c **** }
 115:C:/Users/stapi/OneDrive/Desktop/GD32VW553/V1_MQTT_OK/GD32VW55X_Wifi_BLE_SDK/GD32VW55x_RELEASE_V1.0.2/MSDK/cloud/alicloud/src/infra/system\report.c **** #endif
 116:C:/Users/stapi/OneDrive/Desktop/GD32VW553/V1_MQTT_OK/GD32VW55X_Wifi_BLE_SDK/GD32VW55x_RELEASE_V1.0.2/MSDK/cloud/alicloud/src/infra/system\report.c **** 
 117:C:/Users/stapi/OneDrive/Desktop/GD32VW553/V1_MQTT_OK/GD32VW55X_Wifi_BLE_SDK/GD32VW55x_RELEASE_V1.0.2/MSDK/cloud/alicloud/src/infra/system\report.c **** const char *DEVICE_INFO_UPDATE_FMT = "{\"id\":\"%d\",\"version\":\"1.0\",\"params\":["
 118:C:/Users/stapi/OneDrive/Desktop/GD32VW553/V1_MQTT_OK/GD32VW55X_Wifi_BLE_SDK/GD32VW55x_RELEASE_V1.0.2/MSDK/cloud/alicloud/src/infra/system\report.c ****                                      "{\"attrKey\":\"SYS_ALIOS_ACTIVATION\",\"attrValue\":\"%s\",\"
 119:C:/Users/stapi/OneDrive/Desktop/GD32VW553/V1_MQTT_OK/GD32VW55X_Wifi_BLE_SDK/GD32VW55x_RELEASE_V1.0.2/MSDK/cloud/alicloud/src/infra/system\report.c ****                                      "{\"attrKey\":\"SYS_LP_SDK_VERSION\",\"attrValue\":\"%s\",\"do
 120:C:/Users/stapi/OneDrive/Desktop/GD32VW553/V1_MQTT_OK/GD32VW55X_Wifi_BLE_SDK/GD32VW55x_RELEASE_V1.0.2/MSDK/cloud/alicloud/src/infra/system\report.c ****                                      "{\"attrKey\":\"SYS_SDK_LANGUAGE\",\"attrValue\":\"C\",\"domai
 121:C:/Users/stapi/OneDrive/Desktop/GD32VW553/V1_MQTT_OK/GD32VW55X_Wifi_BLE_SDK/GD32VW55x_RELEASE_V1.0.2/MSDK/cloud/alicloud/src/infra/system\report.c ****                                      "{\"attrKey\":\"SYS_SDK_IF_INFO\",\"attrValue\":\"%s\",\"domai
 122:C:/Users/stapi/OneDrive/Desktop/GD32VW553/V1_MQTT_OK/GD32VW55X_Wifi_BLE_SDK/GD32VW55x_RELEASE_V1.0.2/MSDK/cloud/alicloud/src/infra/system\report.c ****                                      "],\"method\":\"thing.deviceinfo.update\"}";
 123:C:/Users/stapi/OneDrive/Desktop/GD32VW553/V1_MQTT_OK/GD32VW55X_Wifi_BLE_SDK/GD32VW55x_RELEASE_V1.0.2/MSDK/cloud/alicloud/src/infra/system\report.c **** 
 124:C:/Users/stapi/OneDrive/Desktop/GD32VW553/V1_MQTT_OK/GD32VW55X_Wifi_BLE_SDK/GD32VW55x_RELEASE_V1.0.2/MSDK/cloud/alicloud/src/infra/system\report.c **** int iotx_report_devinfo(void *pclient)
 125:C:/Users/stapi/OneDrive/Desktop/GD32VW553/V1_MQTT_OK/GD32VW55X_Wifi_BLE_SDK/GD32VW55x_RELEASE_V1.0.2/MSDK/cloud/alicloud/src/infra/system\report.c **** {
 324              		.loc 1 125 1
 325              		.cfi_startproc
 326              	.LVL25:
 327 0000 17030000 		call	t0,__riscv_save_5
 327      E7020300 
 328              		.cfi_offset 20, -24
 329              		.cfi_offset 19, -20
 330              		.cfi_offset 18, -16
 331              		.cfi_offset 9, -12
 332              		.cfi_offset 8, -8
 333              		.cfi_offset 1, -4
 334              		.cfi_def_cfa_offset 32
 126:C:/Users/stapi/OneDrive/Desktop/GD32VW553/V1_MQTT_OK/GD32VW55X_Wifi_BLE_SDK/GD32VW55x_RELEASE_V1.0.2/MSDK/cloud/alicloud/src/infra/system\report.c ****     int ret = 0;
 335              		.loc 1 126 5
 336              	.LVL26:
 127:C:/Users/stapi/OneDrive/Desktop/GD32VW553/V1_MQTT_OK/GD32VW55X_Wifi_BLE_SDK/GD32VW55x_RELEASE_V1.0.2/MSDK/cloud/alicloud/src/infra/system\report.c ****     int i;
 337              		.loc 1 127 5
 128:C:/Users/stapi/OneDrive/Desktop/GD32VW553/V1_MQTT_OK/GD32VW55X_Wifi_BLE_SDK/GD32VW55x_RELEASE_V1.0.2/MSDK/cloud/alicloud/src/infra/system\report.c ****     char mac[MAC_ADDRESS_SIZE] = {0};
 338              		.loc 1 128 5
 125:C:/Users/stapi/OneDrive/Desktop/GD32VW553/V1_MQTT_OK/GD32VW55X_Wifi_BLE_SDK/GD32VW55x_RELEASE_V1.0.2/MSDK/cloud/alicloud/src/infra/system\report.c ****     int ret = 0;
 339              		.loc 1 125 1 is_stmt 0
 340 0008 130101D8 		addi	sp,sp,-640
 341              		.cfi_def_cfa_offset 672
 129:C:/Users/stapi/OneDrive/Desktop/GD32VW553/V1_MQTT_OK/GD32VW55X_Wifi_BLE_SDK/GD32VW55x_RELEASE_V1.0.2/MSDK/cloud/alicloud/src/infra/system\report.c ****     char version[VERSION_NUM_SIZE] = {0};
 130:C:/Users/stapi/OneDrive/Desktop/GD32VW553/V1_MQTT_OK/GD32VW55X_Wifi_BLE_SDK/GD32VW55x_RELEASE_V1.0.2/MSDK/cloud/alicloud/src/infra/system\report.c ****     char random_num[RANDOM_NUM_SIZE];
 131:C:/Users/stapi/OneDrive/Desktop/GD32VW553/V1_MQTT_OK/GD32VW55X_Wifi_BLE_SDK/GD32VW55x_RELEASE_V1.0.2/MSDK/cloud/alicloud/src/infra/system\report.c ****     char chip_code[CHIP_CODE_SIZE] = {0};
 132:C:/Users/stapi/OneDrive/Desktop/GD32VW553/V1_MQTT_OK/GD32VW55X_Wifi_BLE_SDK/GD32VW55x_RELEASE_V1.0.2/MSDK/cloud/alicloud/src/infra/system\report.c ****     char output[AOS_ACTIVE_INFO_LEN] = {0};
 342              		.loc 1 132 10
 343 000c 1306D004 		li	a2,77
 344 0010 8145     		li	a1,0
 125:C:/Users/stapi/OneDrive/Desktop/GD32VW553/V1_MQTT_OK/GD32VW55X_Wifi_BLE_SDK/GD32VW55x_RELEASE_V1.0.2/MSDK/cloud/alicloud/src/infra/system\report.c ****     int ret = 0;
 345              		.loc 1 125 1
 346 0012 2A8A     		mv	s4,a0
 347              		.loc 1 132 10
 348 0014 6810     		addi	a0,sp,44
 349              	.LVL27:
 128:C:/Users/stapi/OneDrive/Desktop/GD32VW553/V1_MQTT_OK/GD32VW55X_Wifi_BLE_SDK/GD32VW55x_RELEASE_V1.0.2/MSDK/cloud/alicloud/src/infra/system\report.c ****     char version[VERSION_NUM_SIZE] = {0};
 350              		.loc 1 128 10
 351 0016 02D0     		sw	zero,32(sp)
 352 0018 02D2     		sw	zero,36(sp)
 129:C:/Users/stapi/OneDrive/Desktop/GD32VW553/V1_MQTT_OK/GD32VW55X_Wifi_BLE_SDK/GD32VW55x_RELEASE_V1.0.2/MSDK/cloud/alicloud/src/infra/system\report.c ****     char version[VERSION_NUM_SIZE] = {0};
 353              		.loc 1 129 5 is_stmt 1
 129:C:/Users/stapi/OneDrive/Desktop/GD32VW553/V1_MQTT_OK/GD32VW55X_Wifi_BLE_SDK/GD32VW55x_RELEASE_V1.0.2/MSDK/cloud/alicloud/src/infra/system\report.c ****     char version[VERSION_NUM_SIZE] = {0};
 354              		.loc 1 129 10 is_stmt 0
 355 001a 02CA     		sw	zero,20(sp)
 130:C:/Users/stapi/OneDrive/Desktop/GD32VW553/V1_MQTT_OK/GD32VW55X_Wifi_BLE_SDK/GD32VW55x_RELEASE_V1.0.2/MSDK/cloud/alicloud/src/infra/system\report.c ****     char chip_code[CHIP_CODE_SIZE] = {0};
 356              		.loc 1 130 5 is_stmt 1
 131:C:/Users/stapi/OneDrive/Desktop/GD32VW553/V1_MQTT_OK/GD32VW55X_Wifi_BLE_SDK/GD32VW55x_RELEASE_V1.0.2/MSDK/cloud/alicloud/src/infra/system\report.c ****     char output[AOS_ACTIVE_INFO_LEN] = {0};
 357              		.loc 1 131 5
 131:C:/Users/stapi/OneDrive/Desktop/GD32VW553/V1_MQTT_OK/GD32VW55X_Wifi_BLE_SDK/GD32VW55x_RELEASE_V1.0.2/MSDK/cloud/alicloud/src/infra/system\report.c ****     char output[AOS_ACTIVE_INFO_LEN] = {0};
 358              		.loc 1 131 10 is_stmt 0
 359 001c 02CE     		sw	zero,28(sp)
 360              		.loc 1 132 5 is_stmt 1
 361              		.loc 1 132 10 is_stmt 0
 362 001e 02D4     		sw	zero,40(sp)
 363 0020 97000000 		call	memset
 363      E7800000 
 364              	.LVL28:
 133:C:/Users/stapi/OneDrive/Desktop/GD32VW553/V1_MQTT_OK/GD32VW55X_Wifi_BLE_SDK/GD32VW55x_RELEASE_V1.0.2/MSDK/cloud/alicloud/src/infra/system\report.c ****     char topic_name[IOTX_URI_MAX_LEN + 1] = {0};
 365              		.loc 1 133 5 is_stmt 1
 366              		.loc 1 133 10 is_stmt 0
 367 0028 13064008 		li	a2,132
 368 002c 8145     		li	a1,0
 369 002e 0801     		addi	a0,sp,128
 370 0030 82DE     		sw	zero,124(sp)
 371 0032 97000000 		call	memset
 371      E7800000 
 372              	.LVL29:
 134:C:/Users/stapi/OneDrive/Desktop/GD32VW553/V1_MQTT_OK/GD32VW55X_Wifi_BLE_SDK/GD32VW55x_RELEASE_V1.0.2/MSDK/cloud/alicloud/src/infra/system\report.c ****     char network_interfaces[NIF_STRLEN_MAX] = {0};
 373              		.loc 1 134 5 is_stmt 1
 374              		.loc 1 134 10 is_stmt 0
 375 003a 1306C009 		li	a2,156
 376 003e 8145     		li	a1,0
 377 0040 2802     		addi	a0,sp,264
 378 0042 23220110 		sw	zero,260(sp)
 135:C:/Users/stapi/OneDrive/Desktop/GD32VW553/V1_MQTT_OK/GD32VW55X_Wifi_BLE_SDK/GD32VW55x_RELEASE_V1.0.2/MSDK/cloud/alicloud/src/infra/system\report.c ****     char *msg = NULL;
 136:C:/Users/stapi/OneDrive/Desktop/GD32VW553/V1_MQTT_OK/GD32VW55X_Wifi_BLE_SDK/GD32VW55x_RELEASE_V1.0.2/MSDK/cloud/alicloud/src/infra/system\report.c ****     int  msg_len = 0;
 137:C:/Users/stapi/OneDrive/Desktop/GD32VW553/V1_MQTT_OK/GD32VW55X_Wifi_BLE_SDK/GD32VW55x_RELEASE_V1.0.2/MSDK/cloud/alicloud/src/infra/system\report.c **** 
 138:C:/Users/stapi/OneDrive/Desktop/GD32VW553/V1_MQTT_OK/GD32VW55X_Wifi_BLE_SDK/GD32VW55x_RELEASE_V1.0.2/MSDK/cloud/alicloud/src/infra/system\report.c **** 
 139:C:/Users/stapi/OneDrive/Desktop/GD32VW553/V1_MQTT_OK/GD32VW55X_Wifi_BLE_SDK/GD32VW55x_RELEASE_V1.0.2/MSDK/cloud/alicloud/src/infra/system\report.c ****     if (info_report_func == NULL) {
 379              		.loc 1 139 26
 380 0046 B7090000 		lui	s3,%hi(.LANCHOR1)
 134:C:/Users/stapi/OneDrive/Desktop/GD32VW553/V1_MQTT_OK/GD32VW55X_Wifi_BLE_SDK/GD32VW55x_RELEASE_V1.0.2/MSDK/cloud/alicloud/src/infra/system\report.c ****     char network_interfaces[NIF_STRLEN_MAX] = {0};
 381              		.loc 1 134 10
 382 004a 97000000 		call	memset
 382      E7800000 
 383              	.LVL30:
 135:C:/Users/stapi/OneDrive/Desktop/GD32VW553/V1_MQTT_OK/GD32VW55X_Wifi_BLE_SDK/GD32VW55x_RELEASE_V1.0.2/MSDK/cloud/alicloud/src/infra/system\report.c ****     char *msg = NULL;
 384              		.loc 1 135 5 is_stmt 1
 136:C:/Users/stapi/OneDrive/Desktop/GD32VW553/V1_MQTT_OK/GD32VW55X_Wifi_BLE_SDK/GD32VW55x_RELEASE_V1.0.2/MSDK/cloud/alicloud/src/infra/system\report.c **** 
 385              		.loc 1 136 5
 386              		.loc 1 139 5
 387              		.loc 1 139 8 is_stmt 0
 388 0052 83A70900 		lw	a5,%lo(.LANCHOR1)(s3)
 389 0056 95EB     		bne	a5,zero,.L19
 140:C:/Users/stapi/OneDrive/Desktop/GD32VW553/V1_MQTT_OK/GD32VW55X_Wifi_BLE_SDK/GD32VW55x_RELEASE_V1.0.2/MSDK/cloud/alicloud/src/infra/system\report.c ****         VERSION_ERR("report func not register!");
 390              		.loc 1 140 9 is_stmt 1
 391              		.loc 1 140 9
 392 0058 37050000 		lui	a0,%hi(.LC6)
 393 005c 13050500 		addi	a0,a0,%lo(.LC6)
 394 0060 97000000 		call	HAL_Printf
 394      E7800000 
 395              	.LVL31:
 396              		.loc 1 140 9
 397 0068 37050000 		lui	a0,%hi(.LC7)
 398 006c 13050500 		addi	a0,a0,%lo(.LC7)
 399              	.LVL32:
 400              	.L37:
 141:C:/Users/stapi/OneDrive/Desktop/GD32VW553/V1_MQTT_OK/GD32VW55X_Wifi_BLE_SDK/GD32VW55x_RELEASE_V1.0.2/MSDK/cloud/alicloud/src/infra/system\report.c ****         return -1;
 142:C:/Users/stapi/OneDrive/Desktop/GD32VW553/V1_MQTT_OK/GD32VW55X_Wifi_BLE_SDK/GD32VW55x_RELEASE_V1.0.2/MSDK/cloud/alicloud/src/infra/system\report.c ****     }
 143:C:/Users/stapi/OneDrive/Desktop/GD32VW553/V1_MQTT_OK/GD32VW55X_Wifi_BLE_SDK/GD32VW55x_RELEASE_V1.0.2/MSDK/cloud/alicloud/src/infra/system\report.c **** 
 144:C:/Users/stapi/OneDrive/Desktop/GD32VW553/V1_MQTT_OK/GD32VW55X_Wifi_BLE_SDK/GD32VW55x_RELEASE_V1.0.2/MSDK/cloud/alicloud/src/infra/system\report.c ****     iotx_device_info_t dev;
 145:C:/Users/stapi/OneDrive/Desktop/GD32VW553/V1_MQTT_OK/GD32VW55X_Wifi_BLE_SDK/GD32VW55x_RELEASE_V1.0.2/MSDK/cloud/alicloud/src/infra/system\report.c ****     ret = iotx_device_info_get(&dev);
 146:C:/Users/stapi/OneDrive/Desktop/GD32VW553/V1_MQTT_OK/GD32VW55X_Wifi_BLE_SDK/GD32VW55x_RELEASE_V1.0.2/MSDK/cloud/alicloud/src/infra/system\report.c ****     if (ret < 0) {
 147:C:/Users/stapi/OneDrive/Desktop/GD32VW553/V1_MQTT_OK/GD32VW55X_Wifi_BLE_SDK/GD32VW55x_RELEASE_V1.0.2/MSDK/cloud/alicloud/src/infra/system\report.c ****         VERSION_ERR("get device info err");
 148:C:/Users/stapi/OneDrive/Desktop/GD32VW553/V1_MQTT_OK/GD32VW55X_Wifi_BLE_SDK/GD32VW55x_RELEASE_V1.0.2/MSDK/cloud/alicloud/src/infra/system\report.c ****         return ret;
 149:C:/Users/stapi/OneDrive/Desktop/GD32VW553/V1_MQTT_OK/GD32VW55X_Wifi_BLE_SDK/GD32VW55x_RELEASE_V1.0.2/MSDK/cloud/alicloud/src/infra/system\report.c ****     }
 150:C:/Users/stapi/OneDrive/Desktop/GD32VW553/V1_MQTT_OK/GD32VW55X_Wifi_BLE_SDK/GD32VW55x_RELEASE_V1.0.2/MSDK/cloud/alicloud/src/infra/system\report.c ****     VERSION_DEBUG("devinfo report");
 151:C:/Users/stapi/OneDrive/Desktop/GD32VW553/V1_MQTT_OK/GD32VW55X_Wifi_BLE_SDK/GD32VW55x_RELEASE_V1.0.2/MSDK/cloud/alicloud/src/infra/system\report.c **** 
 152:C:/Users/stapi/OneDrive/Desktop/GD32VW553/V1_MQTT_OK/GD32VW55X_Wifi_BLE_SDK/GD32VW55x_RELEASE_V1.0.2/MSDK/cloud/alicloud/src/infra/system\report.c ****     /* Construct aos activation data */
 153:C:/Users/stapi/OneDrive/Desktop/GD32VW553/V1_MQTT_OK/GD32VW55X_Wifi_BLE_SDK/GD32VW55x_RELEASE_V1.0.2/MSDK/cloud/alicloud/src/infra/system\report.c ****     aos_get_version_hex((unsigned char *)version);
 154:C:/Users/stapi/OneDrive/Desktop/GD32VW553/V1_MQTT_OK/GD32VW55X_Wifi_BLE_SDK/GD32VW55x_RELEASE_V1.0.2/MSDK/cloud/alicloud/src/infra/system\report.c ****     aos_get_mac_hex((unsigned char *)mac);
 155:C:/Users/stapi/OneDrive/Desktop/GD32VW553/V1_MQTT_OK/GD32VW55X_Wifi_BLE_SDK/GD32VW55x_RELEASE_V1.0.2/MSDK/cloud/alicloud/src/infra/system\report.c ****     mac[6] = ACTIVE_SINGLE_GW;
 156:C:/Users/stapi/OneDrive/Desktop/GD32VW553/V1_MQTT_OK/GD32VW55X_Wifi_BLE_SDK/GD32VW55x_RELEASE_V1.0.2/MSDK/cloud/alicloud/src/infra/system\report.c **** #ifdef BUILD_AOS
 157:C:/Users/stapi/OneDrive/Desktop/GD32VW553/V1_MQTT_OK/GD32VW55X_Wifi_BLE_SDK/GD32VW55x_RELEASE_V1.0.2/MSDK/cloud/alicloud/src/infra/system\report.c ****     mac[7] = ACTIVE_LINKKIT_AOS;
 158:C:/Users/stapi/OneDrive/Desktop/GD32VW553/V1_MQTT_OK/GD32VW55X_Wifi_BLE_SDK/GD32VW55x_RELEASE_V1.0.2/MSDK/cloud/alicloud/src/infra/system\report.c **** #else
 159:C:/Users/stapi/OneDrive/Desktop/GD32VW553/V1_MQTT_OK/GD32VW55X_Wifi_BLE_SDK/GD32VW55x_RELEASE_V1.0.2/MSDK/cloud/alicloud/src/infra/system\report.c ****     mac[7] = ACTIVE_LINKKIT_ONLY;
 160:C:/Users/stapi/OneDrive/Desktop/GD32VW553/V1_MQTT_OK/GD32VW55X_Wifi_BLE_SDK/GD32VW55x_RELEASE_V1.0.2/MSDK/cloud/alicloud/src/infra/system\report.c **** #endif
 161:C:/Users/stapi/OneDrive/Desktop/GD32VW553/V1_MQTT_OK/GD32VW55X_Wifi_BLE_SDK/GD32VW55x_RELEASE_V1.0.2/MSDK/cloud/alicloud/src/infra/system\report.c **** 
 162:C:/Users/stapi/OneDrive/Desktop/GD32VW553/V1_MQTT_OK/GD32VW55X_Wifi_BLE_SDK/GD32VW55x_RELEASE_V1.0.2/MSDK/cloud/alicloud/src/infra/system\report.c ****     HAL_Srandom(HAL_UptimeMs());
 163:C:/Users/stapi/OneDrive/Desktop/GD32VW553/V1_MQTT_OK/GD32VW55X_Wifi_BLE_SDK/GD32VW55x_RELEASE_V1.0.2/MSDK/cloud/alicloud/src/infra/system\report.c ****     for (i = 0; i < 4; i ++) {
 164:C:/Users/stapi/OneDrive/Desktop/GD32VW553/V1_MQTT_OK/GD32VW55X_Wifi_BLE_SDK/GD32VW55x_RELEASE_V1.0.2/MSDK/cloud/alicloud/src/infra/system\report.c ****         random_num[i] = (char)HAL_Random(0xFF);
 165:C:/Users/stapi/OneDrive/Desktop/GD32VW553/V1_MQTT_OK/GD32VW55X_Wifi_BLE_SDK/GD32VW55x_RELEASE_V1.0.2/MSDK/cloud/alicloud/src/infra/system\report.c ****     }
 166:C:/Users/stapi/OneDrive/Desktop/GD32VW553/V1_MQTT_OK/GD32VW55X_Wifi_BLE_SDK/GD32VW55x_RELEASE_V1.0.2/MSDK/cloud/alicloud/src/infra/system\report.c ****     aos_get_chip_code((unsigned char *)chip_code);
 167:C:/Users/stapi/OneDrive/Desktop/GD32VW553/V1_MQTT_OK/GD32VW55X_Wifi_BLE_SDK/GD32VW55x_RELEASE_V1.0.2/MSDK/cloud/alicloud/src/infra/system\report.c ****     /*
 168:C:/Users/stapi/OneDrive/Desktop/GD32VW553/V1_MQTT_OK/GD32VW55X_Wifi_BLE_SDK/GD32VW55x_RELEASE_V1.0.2/MSDK/cloud/alicloud/src/infra/system\report.c ****     input: version 4byte + random 4 byte + mac 4byte + chip_code 4byte
 169:C:/Users/stapi/OneDrive/Desktop/GD32VW553/V1_MQTT_OK/GD32VW55X_Wifi_BLE_SDK/GD32VW55x_RELEASE_V1.0.2/MSDK/cloud/alicloud/src/infra/system\report.c ****     output: output_buffer store the version info process. length at least OUTPUT_SPACE_SIZE
 170:C:/Users/stapi/OneDrive/Desktop/GD32VW553/V1_MQTT_OK/GD32VW55X_Wifi_BLE_SDK/GD32VW55x_RELEASE_V1.0.2/MSDK/cloud/alicloud/src/infra/system\report.c ****     return: 0 success, 1 failed
 171:C:/Users/stapi/OneDrive/Desktop/GD32VW553/V1_MQTT_OK/GD32VW55X_Wifi_BLE_SDK/GD32VW55x_RELEASE_V1.0.2/MSDK/cloud/alicloud/src/infra/system\report.c ****     */
 172:C:/Users/stapi/OneDrive/Desktop/GD32VW553/V1_MQTT_OK/GD32VW55X_Wifi_BLE_SDK/GD32VW55x_RELEASE_V1.0.2/MSDK/cloud/alicloud/src/infra/system\report.c ****     ret = aos_get_version_info((unsigned char *)version, (unsigned char *)random_num, (unsigned cha
 173:C:/Users/stapi/OneDrive/Desktop/GD32VW553/V1_MQTT_OK/GD32VW55X_Wifi_BLE_SDK/GD32VW55x_RELEASE_V1.0.2/MSDK/cloud/alicloud/src/infra/system\report.c ****                                (unsigned char *)chip_code, (unsigned char *)output, AOS_ACTIVE_INFO
 174:C:/Users/stapi/OneDrive/Desktop/GD32VW553/V1_MQTT_OK/GD32VW55X_Wifi_BLE_SDK/GD32VW55x_RELEASE_V1.0.2/MSDK/cloud/alicloud/src/infra/system\report.c ****     if (ret) {
 175:C:/Users/stapi/OneDrive/Desktop/GD32VW553/V1_MQTT_OK/GD32VW55X_Wifi_BLE_SDK/GD32VW55x_RELEASE_V1.0.2/MSDK/cloud/alicloud/src/infra/system\report.c ****         VERSION_ERR("aos_get_version_info failed");
 176:C:/Users/stapi/OneDrive/Desktop/GD32VW553/V1_MQTT_OK/GD32VW55X_Wifi_BLE_SDK/GD32VW55x_RELEASE_V1.0.2/MSDK/cloud/alicloud/src/infra/system\report.c ****         return FAIL_RETURN;
 177:C:/Users/stapi/OneDrive/Desktop/GD32VW553/V1_MQTT_OK/GD32VW55X_Wifi_BLE_SDK/GD32VW55x_RELEASE_V1.0.2/MSDK/cloud/alicloud/src/infra/system\report.c ****     }
 178:C:/Users/stapi/OneDrive/Desktop/GD32VW553/V1_MQTT_OK/GD32VW55X_Wifi_BLE_SDK/GD32VW55x_RELEASE_V1.0.2/MSDK/cloud/alicloud/src/infra/system\report.c ****     VERSION_DEBUG("get aos avtive info: %s", output);
 179:C:/Users/stapi/OneDrive/Desktop/GD32VW553/V1_MQTT_OK/GD32VW55X_Wifi_BLE_SDK/GD32VW55x_RELEASE_V1.0.2/MSDK/cloud/alicloud/src/infra/system\report.c **** 
 180:C:/Users/stapi/OneDrive/Desktop/GD32VW553/V1_MQTT_OK/GD32VW55X_Wifi_BLE_SDK/GD32VW55x_RELEASE_V1.0.2/MSDK/cloud/alicloud/src/infra/system\report.c ****     /* devinfo update topic name */
 181:C:/Users/stapi/OneDrive/Desktop/GD32VW553/V1_MQTT_OK/GD32VW55X_Wifi_BLE_SDK/GD32VW55x_RELEASE_V1.0.2/MSDK/cloud/alicloud/src/infra/system\report.c ****     ret = HAL_Snprintf(topic_name,
 182:C:/Users/stapi/OneDrive/Desktop/GD32VW553/V1_MQTT_OK/GD32VW55X_Wifi_BLE_SDK/GD32VW55x_RELEASE_V1.0.2/MSDK/cloud/alicloud/src/infra/system\report.c ****                        IOTX_URI_MAX_LEN,
 183:C:/Users/stapi/OneDrive/Desktop/GD32VW553/V1_MQTT_OK/GD32VW55X_Wifi_BLE_SDK/GD32VW55x_RELEASE_V1.0.2/MSDK/cloud/alicloud/src/infra/system\report.c ****                        "/sys/%s/%s/thing/deviceinfo/update",
 184:C:/Users/stapi/OneDrive/Desktop/GD32VW553/V1_MQTT_OK/GD32VW55X_Wifi_BLE_SDK/GD32VW55x_RELEASE_V1.0.2/MSDK/cloud/alicloud/src/infra/system\report.c ****                        dev.product_key,
 185:C:/Users/stapi/OneDrive/Desktop/GD32VW553/V1_MQTT_OK/GD32VW55X_Wifi_BLE_SDK/GD32VW55x_RELEASE_V1.0.2/MSDK/cloud/alicloud/src/infra/system\report.c ****                        dev.device_name);
 186:C:/Users/stapi/OneDrive/Desktop/GD32VW553/V1_MQTT_OK/GD32VW55X_Wifi_BLE_SDK/GD32VW55x_RELEASE_V1.0.2/MSDK/cloud/alicloud/src/infra/system\report.c ****     if (ret <= 0) {
 187:C:/Users/stapi/OneDrive/Desktop/GD32VW553/V1_MQTT_OK/GD32VW55X_Wifi_BLE_SDK/GD32VW55x_RELEASE_V1.0.2/MSDK/cloud/alicloud/src/infra/system\report.c ****         VERSION_ERR("topic generate err");
 188:C:/Users/stapi/OneDrive/Desktop/GD32VW553/V1_MQTT_OK/GD32VW55X_Wifi_BLE_SDK/GD32VW55x_RELEASE_V1.0.2/MSDK/cloud/alicloud/src/infra/system\report.c ****         return FAIL_RETURN;
 189:C:/Users/stapi/OneDrive/Desktop/GD32VW553/V1_MQTT_OK/GD32VW55X_Wifi_BLE_SDK/GD32VW55x_RELEASE_V1.0.2/MSDK/cloud/alicloud/src/infra/system\report.c ****     }
 190:C:/Users/stapi/OneDrive/Desktop/GD32VW553/V1_MQTT_OK/GD32VW55X_Wifi_BLE_SDK/GD32VW55x_RELEASE_V1.0.2/MSDK/cloud/alicloud/src/infra/system\report.c ****     VERSION_DEBUG("devinfo report topic: %s", topic_name);
 191:C:/Users/stapi/OneDrive/Desktop/GD32VW553/V1_MQTT_OK/GD32VW55X_Wifi_BLE_SDK/GD32VW55x_RELEASE_V1.0.2/MSDK/cloud/alicloud/src/infra/system\report.c **** 
 192:C:/Users/stapi/OneDrive/Desktop/GD32VW553/V1_MQTT_OK/GD32VW55X_Wifi_BLE_SDK/GD32VW55x_RELEASE_V1.0.2/MSDK/cloud/alicloud/src/infra/system\report.c ****     ret = HAL_GetNetifInfo(network_interfaces);
 193:C:/Users/stapi/OneDrive/Desktop/GD32VW553/V1_MQTT_OK/GD32VW55X_Wifi_BLE_SDK/GD32VW55x_RELEASE_V1.0.2/MSDK/cloud/alicloud/src/infra/system\report.c ****     if (ret <= 0 || ret >= NIF_STRLEN_MAX) {
 194:C:/Users/stapi/OneDrive/Desktop/GD32VW553/V1_MQTT_OK/GD32VW55X_Wifi_BLE_SDK/GD32VW55x_RELEASE_V1.0.2/MSDK/cloud/alicloud/src/infra/system\report.c ****         VERSION_ERR("the network interface info set failed or not set, writen len is %d", ret);
 195:C:/Users/stapi/OneDrive/Desktop/GD32VW553/V1_MQTT_OK/GD32VW55X_Wifi_BLE_SDK/GD32VW55x_RELEASE_V1.0.2/MSDK/cloud/alicloud/src/infra/system\report.c ****         const char *default_network_info = "invalid network interface info";
 196:C:/Users/stapi/OneDrive/Desktop/GD32VW553/V1_MQTT_OK/GD32VW55X_Wifi_BLE_SDK/GD32VW55x_RELEASE_V1.0.2/MSDK/cloud/alicloud/src/infra/system\report.c ****         strncpy(network_interfaces, default_network_info, sizeof(network_interfaces));
 197:C:/Users/stapi/OneDrive/Desktop/GD32VW553/V1_MQTT_OK/GD32VW55X_Wifi_BLE_SDK/GD32VW55x_RELEASE_V1.0.2/MSDK/cloud/alicloud/src/infra/system\report.c ****     }
 198:C:/Users/stapi/OneDrive/Desktop/GD32VW553/V1_MQTT_OK/GD32VW55X_Wifi_BLE_SDK/GD32VW55x_RELEASE_V1.0.2/MSDK/cloud/alicloud/src/infra/system\report.c **** 
 199:C:/Users/stapi/OneDrive/Desktop/GD32VW553/V1_MQTT_OK/GD32VW55X_Wifi_BLE_SDK/GD32VW55x_RELEASE_V1.0.2/MSDK/cloud/alicloud/src/infra/system\report.c ****     msg_len = strlen(DEVICE_INFO_UPDATE_FMT) + 10 + strlen(LINKKIT_VERSION) + AOS_ACTIVE_INFO_LEN +
 200:C:/Users/stapi/OneDrive/Desktop/GD32VW553/V1_MQTT_OK/GD32VW55X_Wifi_BLE_SDK/GD32VW55x_RELEASE_V1.0.2/MSDK/cloud/alicloud/src/infra/system\report.c ****               + strlen(network_interfaces) + 1;
 201:C:/Users/stapi/OneDrive/Desktop/GD32VW553/V1_MQTT_OK/GD32VW55X_Wifi_BLE_SDK/GD32VW55x_RELEASE_V1.0.2/MSDK/cloud/alicloud/src/infra/system\report.c ****     msg = (char *)SYS_REPORT_MALLOC(msg_len);
 202:C:/Users/stapi/OneDrive/Desktop/GD32VW553/V1_MQTT_OK/GD32VW55X_Wifi_BLE_SDK/GD32VW55x_RELEASE_V1.0.2/MSDK/cloud/alicloud/src/infra/system\report.c ****     if (msg == NULL) {
 203:C:/Users/stapi/OneDrive/Desktop/GD32VW553/V1_MQTT_OK/GD32VW55X_Wifi_BLE_SDK/GD32VW55x_RELEASE_V1.0.2/MSDK/cloud/alicloud/src/infra/system\report.c ****         VERSION_ERR("malloc err");
 401              		.loc 1 203 9 is_stmt 0
 402 0070 97000000 		call	HAL_Printf
 402      E7800000 
 403              	.LVL33:
 404              		.loc 1 203 9 is_stmt 1
 405              	.L35:
 204:C:/Users/stapi/OneDrive/Desktop/GD32VW553/V1_MQTT_OK/GD32VW55X_Wifi_BLE_SDK/GD32VW55x_RELEASE_V1.0.2/MSDK/cloud/alicloud/src/infra/system\report.c ****         return FAIL_RETURN;
 205:C:/Users/stapi/OneDrive/Desktop/GD32VW553/V1_MQTT_OK/GD32VW55X_Wifi_BLE_SDK/GD32VW55x_RELEASE_V1.0.2/MSDK/cloud/alicloud/src/infra/system\report.c ****     }
 206:C:/Users/stapi/OneDrive/Desktop/GD32VW553/V1_MQTT_OK/GD32VW55X_Wifi_BLE_SDK/GD32VW55x_RELEASE_V1.0.2/MSDK/cloud/alicloud/src/infra/system\report.c ****     memset(msg, 0, msg_len);
 207:C:/Users/stapi/OneDrive/Desktop/GD32VW553/V1_MQTT_OK/GD32VW55X_Wifi_BLE_SDK/GD32VW55x_RELEASE_V1.0.2/MSDK/cloud/alicloud/src/infra/system\report.c **** 
 208:C:/Users/stapi/OneDrive/Desktop/GD32VW553/V1_MQTT_OK/GD32VW55X_Wifi_BLE_SDK/GD32VW55x_RELEASE_V1.0.2/MSDK/cloud/alicloud/src/infra/system\report.c ****     /* devinfo update message */
 209:C:/Users/stapi/OneDrive/Desktop/GD32VW553/V1_MQTT_OK/GD32VW55X_Wifi_BLE_SDK/GD32VW55x_RELEASE_V1.0.2/MSDK/cloud/alicloud/src/infra/system\report.c ****     ret = HAL_Snprintf(msg,
 210:C:/Users/stapi/OneDrive/Desktop/GD32VW553/V1_MQTT_OK/GD32VW55X_Wifi_BLE_SDK/GD32VW55x_RELEASE_V1.0.2/MSDK/cloud/alicloud/src/infra/system\report.c ****                        msg_len,
 211:C:/Users/stapi/OneDrive/Desktop/GD32VW553/V1_MQTT_OK/GD32VW55X_Wifi_BLE_SDK/GD32VW55x_RELEASE_V1.0.2/MSDK/cloud/alicloud/src/infra/system\report.c ****                        DEVICE_INFO_UPDATE_FMT,
 212:C:/Users/stapi/OneDrive/Desktop/GD32VW553/V1_MQTT_OK/GD32VW55X_Wifi_BLE_SDK/GD32VW55x_RELEASE_V1.0.2/MSDK/cloud/alicloud/src/infra/system\report.c ****                        iotx_report_id(),
 213:C:/Users/stapi/OneDrive/Desktop/GD32VW553/V1_MQTT_OK/GD32VW55X_Wifi_BLE_SDK/GD32VW55x_RELEASE_V1.0.2/MSDK/cloud/alicloud/src/infra/system\report.c ****                        output,
 214:C:/Users/stapi/OneDrive/Desktop/GD32VW553/V1_MQTT_OK/GD32VW55X_Wifi_BLE_SDK/GD32VW55x_RELEASE_V1.0.2/MSDK/cloud/alicloud/src/infra/system\report.c ****                        LINKKIT_VERSION,
 215:C:/Users/stapi/OneDrive/Desktop/GD32VW553/V1_MQTT_OK/GD32VW55X_Wifi_BLE_SDK/GD32VW55x_RELEASE_V1.0.2/MSDK/cloud/alicloud/src/infra/system\report.c ****                        network_interfaces
 216:C:/Users/stapi/OneDrive/Desktop/GD32VW553/V1_MQTT_OK/GD32VW55X_Wifi_BLE_SDK/GD32VW55x_RELEASE_V1.0.2/MSDK/cloud/alicloud/src/infra/system\report.c ****                       );
 217:C:/Users/stapi/OneDrive/Desktop/GD32VW553/V1_MQTT_OK/GD32VW55X_Wifi_BLE_SDK/GD32VW55x_RELEASE_V1.0.2/MSDK/cloud/alicloud/src/infra/system\report.c ****     if (ret <= 0) {
 218:C:/Users/stapi/OneDrive/Desktop/GD32VW553/V1_MQTT_OK/GD32VW55X_Wifi_BLE_SDK/GD32VW55x_RELEASE_V1.0.2/MSDK/cloud/alicloud/src/infra/system\report.c ****         VERSION_ERR("topic msg generate err");
 219:C:/Users/stapi/OneDrive/Desktop/GD32VW553/V1_MQTT_OK/GD32VW55X_Wifi_BLE_SDK/GD32VW55x_RELEASE_V1.0.2/MSDK/cloud/alicloud/src/infra/system\report.c ****         SYS_REPORT_FREE(msg);
 220:C:/Users/stapi/OneDrive/Desktop/GD32VW553/V1_MQTT_OK/GD32VW55X_Wifi_BLE_SDK/GD32VW55x_RELEASE_V1.0.2/MSDK/cloud/alicloud/src/infra/system\report.c ****         return FAIL_RETURN;
 221:C:/Users/stapi/OneDrive/Desktop/GD32VW553/V1_MQTT_OK/GD32VW55X_Wifi_BLE_SDK/GD32VW55x_RELEASE_V1.0.2/MSDK/cloud/alicloud/src/infra/system\report.c ****     }
 222:C:/Users/stapi/OneDrive/Desktop/GD32VW553/V1_MQTT_OK/GD32VW55X_Wifi_BLE_SDK/GD32VW55x_RELEASE_V1.0.2/MSDK/cloud/alicloud/src/infra/system\report.c ****     VERSION_DEBUG("devinfo report data: %s", msg);
 223:C:/Users/stapi/OneDrive/Desktop/GD32VW553/V1_MQTT_OK/GD32VW55X_Wifi_BLE_SDK/GD32VW55x_RELEASE_V1.0.2/MSDK/cloud/alicloud/src/infra/system\report.c **** 
 224:C:/Users/stapi/OneDrive/Desktop/GD32VW553/V1_MQTT_OK/GD32VW55X_Wifi_BLE_SDK/GD32VW55x_RELEASE_V1.0.2/MSDK/cloud/alicloud/src/infra/system\report.c ****     if (info_report_func != NULL) {
 225:C:/Users/stapi/OneDrive/Desktop/GD32VW553/V1_MQTT_OK/GD32VW55X_Wifi_BLE_SDK/GD32VW55x_RELEASE_V1.0.2/MSDK/cloud/alicloud/src/infra/system\report.c ****         ret = info_report_func(pclient, topic_name, 1, msg, strlen(msg));
 226:C:/Users/stapi/OneDrive/Desktop/GD32VW553/V1_MQTT_OK/GD32VW55X_Wifi_BLE_SDK/GD32VW55x_RELEASE_V1.0.2/MSDK/cloud/alicloud/src/infra/system\report.c ****     }
 227:C:/Users/stapi/OneDrive/Desktop/GD32VW553/V1_MQTT_OK/GD32VW55X_Wifi_BLE_SDK/GD32VW55x_RELEASE_V1.0.2/MSDK/cloud/alicloud/src/infra/system\report.c **** 
 228:C:/Users/stapi/OneDrive/Desktop/GD32VW553/V1_MQTT_OK/GD32VW55X_Wifi_BLE_SDK/GD32VW55x_RELEASE_V1.0.2/MSDK/cloud/alicloud/src/infra/system\report.c ****     SYS_REPORT_FREE(msg);
 229:C:/Users/stapi/OneDrive/Desktop/GD32VW553/V1_MQTT_OK/GD32VW55X_Wifi_BLE_SDK/GD32VW55x_RELEASE_V1.0.2/MSDK/cloud/alicloud/src/infra/system\report.c ****     if (ret < 0) {
 230:C:/Users/stapi/OneDrive/Desktop/GD32VW553/V1_MQTT_OK/GD32VW55X_Wifi_BLE_SDK/GD32VW55x_RELEASE_V1.0.2/MSDK/cloud/alicloud/src/infra/system\report.c ****         VERSION_ERR("publish failed, ret = %d", ret);
 406              		.loc 1 230 9
 407 0078 37050000 		lui	a0,%hi(.LC8)
 408 007c 13050500 		addi	a0,a0,%lo(.LC8)
 409 0080 97000000 		call	HAL_Printf
 409      E7800000 
 410              	.LVL34:
 411 0088 25AC     		j	.L36
 412              	.LVL35:
 413              	.L19:
 144:C:/Users/stapi/OneDrive/Desktop/GD32VW553/V1_MQTT_OK/GD32VW55X_Wifi_BLE_SDK/GD32VW55x_RELEASE_V1.0.2/MSDK/cloud/alicloud/src/infra/system\report.c ****     ret = iotx_device_info_get(&dev);
 414              		.loc 1 144 5
 145:C:/Users/stapi/OneDrive/Desktop/GD32VW553/V1_MQTT_OK/GD32VW55X_Wifi_BLE_SDK/GD32VW55x_RELEASE_V1.0.2/MSDK/cloud/alicloud/src/infra/system\report.c ****     if (ret < 0) {
 415              		.loc 1 145 5
 145:C:/Users/stapi/OneDrive/Desktop/GD32VW553/V1_MQTT_OK/GD32VW55X_Wifi_BLE_SDK/GD32VW55x_RELEASE_V1.0.2/MSDK/cloud/alicloud/src/infra/system\report.c ****     if (ret < 0) {
 416              		.loc 1 145 11 is_stmt 0
 417 008a 4813     		addi	a0,sp,420
 418 008c 97000000 		call	iotx_device_info_get
 418      E7800000 
 419              	.LVL36:
 420 0094 2A84     		mv	s0,a0
 421              	.LVL37:
 146:C:/Users/stapi/OneDrive/Desktop/GD32VW553/V1_MQTT_OK/GD32VW55X_Wifi_BLE_SDK/GD32VW55x_RELEASE_V1.0.2/MSDK/cloud/alicloud/src/infra/system\report.c ****         VERSION_ERR("get device info err");
 422              		.loc 1 146 5 is_stmt 1
 146:C:/Users/stapi/OneDrive/Desktop/GD32VW553/V1_MQTT_OK/GD32VW55X_Wifi_BLE_SDK/GD32VW55x_RELEASE_V1.0.2/MSDK/cloud/alicloud/src/infra/system\report.c ****         VERSION_ERR("get device info err");
 423              		.loc 1 146 8 is_stmt 0
 424 0096 63510504 		bge	a0,zero,.L21
 147:C:/Users/stapi/OneDrive/Desktop/GD32VW553/V1_MQTT_OK/GD32VW55X_Wifi_BLE_SDK/GD32VW55x_RELEASE_V1.0.2/MSDK/cloud/alicloud/src/infra/system\report.c ****         return ret;
 425              		.loc 1 147 9 is_stmt 1
 147:C:/Users/stapi/OneDrive/Desktop/GD32VW553/V1_MQTT_OK/GD32VW55X_Wifi_BLE_SDK/GD32VW55x_RELEASE_V1.0.2/MSDK/cloud/alicloud/src/infra/system\report.c ****         return ret;
 426              		.loc 1 147 9
 427 009a 37050000 		lui	a0,%hi(.LC6)
 428 009e 13050500 		addi	a0,a0,%lo(.LC6)
 429 00a2 97000000 		call	HAL_Printf
 429      E7800000 
 430              	.LVL38:
 147:C:/Users/stapi/OneDrive/Desktop/GD32VW553/V1_MQTT_OK/GD32VW55X_Wifi_BLE_SDK/GD32VW55x_RELEASE_V1.0.2/MSDK/cloud/alicloud/src/infra/system\report.c ****         return ret;
 431              		.loc 1 147 9
 432 00aa 37050000 		lui	a0,%hi(.LC9)
 433 00ae 13050500 		addi	a0,a0,%lo(.LC9)
 434 00b2 97000000 		call	HAL_Printf
 434      E7800000 
 435              	.LVL39:
 147:C:/Users/stapi/OneDrive/Desktop/GD32VW553/V1_MQTT_OK/GD32VW55X_Wifi_BLE_SDK/GD32VW55x_RELEASE_V1.0.2/MSDK/cloud/alicloud/src/infra/system\report.c ****         return ret;
 436              		.loc 1 147 9
 437 00ba 37050000 		lui	a0,%hi(.LC8)
 438 00be 13050500 		addi	a0,a0,%lo(.LC8)
 439 00c2 97000000 		call	HAL_Printf
 439      E7800000 
 440              	.LVL40:
 147:C:/Users/stapi/OneDrive/Desktop/GD32VW553/V1_MQTT_OK/GD32VW55X_Wifi_BLE_SDK/GD32VW55x_RELEASE_V1.0.2/MSDK/cloud/alicloud/src/infra/system\report.c ****         return ret;
 441              		.loc 1 147 9
 148:C:/Users/stapi/OneDrive/Desktop/GD32VW553/V1_MQTT_OK/GD32VW55X_Wifi_BLE_SDK/GD32VW55x_RELEASE_V1.0.2/MSDK/cloud/alicloud/src/infra/system\report.c ****     }
 442              		.loc 1 148 9
 443              	.L18:
 231:C:/Users/stapi/OneDrive/Desktop/GD32VW553/V1_MQTT_OK/GD32VW55X_Wifi_BLE_SDK/GD32VW55x_RELEASE_V1.0.2/MSDK/cloud/alicloud/src/infra/system\report.c ****         return FAIL_RETURN;
 232:C:/Users/stapi/OneDrive/Desktop/GD32VW553/V1_MQTT_OK/GD32VW55X_Wifi_BLE_SDK/GD32VW55x_RELEASE_V1.0.2/MSDK/cloud/alicloud/src/infra/system\report.c ****     }
 233:C:/Users/stapi/OneDrive/Desktop/GD32VW553/V1_MQTT_OK/GD32VW55X_Wifi_BLE_SDK/GD32VW55x_RELEASE_V1.0.2/MSDK/cloud/alicloud/src/infra/system\report.c ****     VERSION_DEBUG("devinfo report succeed");
 234:C:/Users/stapi/OneDrive/Desktop/GD32VW553/V1_MQTT_OK/GD32VW55X_Wifi_BLE_SDK/GD32VW55x_RELEASE_V1.0.2/MSDK/cloud/alicloud/src/infra/system\report.c **** 
 235:C:/Users/stapi/OneDrive/Desktop/GD32VW553/V1_MQTT_OK/GD32VW55X_Wifi_BLE_SDK/GD32VW55x_RELEASE_V1.0.2/MSDK/cloud/alicloud/src/infra/system\report.c ****     return SUCCESS_RETURN;
 236:C:/Users/stapi/OneDrive/Desktop/GD32VW553/V1_MQTT_OK/GD32VW55X_Wifi_BLE_SDK/GD32VW55x_RELEASE_V1.0.2/MSDK/cloud/alicloud/src/infra/system\report.c **** }
 444              		.loc 1 236 1 is_stmt 0
 445 00ca 2285     		mv	a0,s0
 446 00cc 13010128 		addi	sp,sp,640
 447              		.cfi_remember_state
 448              		.cfi_def_cfa_offset 0
 449 00d0 17030000 		tail	__riscv_restore_5
 449      67000300 
 450              		.cfi_restore 20
 451              		.cfi_restore 19
 452              		.cfi_restore 18
 453              		.cfi_restore 9
 454              		.cfi_restore 8
 455              		.cfi_restore 1
 456              		.cfi_def_cfa_offset -32
 457              	.LVL41:
 458              	.L21:
 459              		.cfi_restore_state
 153:C:/Users/stapi/OneDrive/Desktop/GD32VW553/V1_MQTT_OK/GD32VW55X_Wifi_BLE_SDK/GD32VW55x_RELEASE_V1.0.2/MSDK/cloud/alicloud/src/infra/system\report.c ****     aos_get_mac_hex((unsigned char *)mac);
 460              		.loc 1 153 5
 461 00d8 4808     		addi	a0,sp,20
 462 00da 97000000 		call	aos_get_version_hex
 462      E7800000 
 463              	.LVL42:
 154:C:/Users/stapi/OneDrive/Desktop/GD32VW553/V1_MQTT_OK/GD32VW55X_Wifi_BLE_SDK/GD32VW55x_RELEASE_V1.0.2/MSDK/cloud/alicloud/src/infra/system\report.c ****     mac[6] = ACTIVE_SINGLE_GW;
 464              		.loc 1 154 5
 465 00e2 0810     		addi	a0,sp,32
 466 00e4 97000000 		call	aos_get_mac_hex
 466      E7800000 
 467              	.LVL43:
 155:C:/Users/stapi/OneDrive/Desktop/GD32VW553/V1_MQTT_OK/GD32VW55X_Wifi_BLE_SDK/GD32VW55x_RELEASE_V1.0.2/MSDK/cloud/alicloud/src/infra/system\report.c **** #ifdef BUILD_AOS
 468              		.loc 1 155 12
 469 00ec 8547     		li	a5,1
 470 00ee 2313F102 		sh	a5,38(sp)
 162:C:/Users/stapi/OneDrive/Desktop/GD32VW553/V1_MQTT_OK/GD32VW55X_Wifi_BLE_SDK/GD32VW55x_RELEASE_V1.0.2/MSDK/cloud/alicloud/src/infra/system\report.c ****     for (i = 0; i < 4; i ++) {
 471              		.loc 1 162 17
 472 00f2 97000000 		call	HAL_UptimeMs
 472      E7800000 
 473              	.LVL44:
 474 00fa 93890900 		addi	s3,s3,%lo(.LANCHOR1)
 150:C:/Users/stapi/OneDrive/Desktop/GD32VW553/V1_MQTT_OK/GD32VW55X_Wifi_BLE_SDK/GD32VW55x_RELEASE_V1.0.2/MSDK/cloud/alicloud/src/infra/system\report.c **** 
 475              		.loc 1 150 36 is_stmt 1
 153:C:/Users/stapi/OneDrive/Desktop/GD32VW553/V1_MQTT_OK/GD32VW55X_Wifi_BLE_SDK/GD32VW55x_RELEASE_V1.0.2/MSDK/cloud/alicloud/src/infra/system\report.c ****     aos_get_mac_hex((unsigned char *)mac);
 476              		.loc 1 153 5
 154:C:/Users/stapi/OneDrive/Desktop/GD32VW553/V1_MQTT_OK/GD32VW55X_Wifi_BLE_SDK/GD32VW55x_RELEASE_V1.0.2/MSDK/cloud/alicloud/src/infra/system\report.c ****     mac[6] = ACTIVE_SINGLE_GW;
 477              		.loc 1 154 5
 155:C:/Users/stapi/OneDrive/Desktop/GD32VW553/V1_MQTT_OK/GD32VW55X_Wifi_BLE_SDK/GD32VW55x_RELEASE_V1.0.2/MSDK/cloud/alicloud/src/infra/system\report.c **** #ifdef BUILD_AOS
 478              		.loc 1 155 5
 159:C:/Users/stapi/OneDrive/Desktop/GD32VW553/V1_MQTT_OK/GD32VW55X_Wifi_BLE_SDK/GD32VW55x_RELEASE_V1.0.2/MSDK/cloud/alicloud/src/infra/system\report.c **** #endif
 479              		.loc 1 159 5
 162:C:/Users/stapi/OneDrive/Desktop/GD32VW553/V1_MQTT_OK/GD32VW55X_Wifi_BLE_SDK/GD32VW55x_RELEASE_V1.0.2/MSDK/cloud/alicloud/src/infra/system\report.c ****     for (i = 0; i < 4; i ++) {
 480              		.loc 1 162 5
 481 00fe 97000000 		call	HAL_Srandom
 481      E7800000 
 482              	.LVL45:
 163:C:/Users/stapi/OneDrive/Desktop/GD32VW553/V1_MQTT_OK/GD32VW55X_Wifi_BLE_SDK/GD32VW55x_RELEASE_V1.0.2/MSDK/cloud/alicloud/src/infra/system\report.c ****         random_num[i] = (char)HAL_Random(0xFF);
 483              		.loc 1 163 5
 163:C:/Users/stapi/OneDrive/Desktop/GD32VW553/V1_MQTT_OK/GD32VW55X_Wifi_BLE_SDK/GD32VW55x_RELEASE_V1.0.2/MSDK/cloud/alicloud/src/infra/system\report.c ****         random_num[i] = (char)HAL_Random(0xFF);
 484              		.loc 1 163 17
 163:C:/Users/stapi/OneDrive/Desktop/GD32VW553/V1_MQTT_OK/GD32VW55X_Wifi_BLE_SDK/GD32VW55x_RELEASE_V1.0.2/MSDK/cloud/alicloud/src/infra/system\report.c ****         random_num[i] = (char)HAL_Random(0xFF);
 485              		.loc 1 163 12 is_stmt 0
 486 0106 0144     		li	s0,0
 487              	.LVL46:
 163:C:/Users/stapi/OneDrive/Desktop/GD32VW553/V1_MQTT_OK/GD32VW55X_Wifi_BLE_SDK/GD32VW55x_RELEASE_V1.0.2/MSDK/cloud/alicloud/src/infra/system\report.c ****         random_num[i] = (char)HAL_Random(0xFF);
 488              		.loc 1 163 5
 489 0108 9144     		li	s1,4
 490              	.LVL47:
 491              	.L22:
 164:C:/Users/stapi/OneDrive/Desktop/GD32VW553/V1_MQTT_OK/GD32VW55X_Wifi_BLE_SDK/GD32VW55x_RELEASE_V1.0.2/MSDK/cloud/alicloud/src/infra/system\report.c ****     }
 492              		.loc 1 164 9 is_stmt 1 discriminator 3
 164:C:/Users/stapi/OneDrive/Desktop/GD32VW553/V1_MQTT_OK/GD32VW55X_Wifi_BLE_SDK/GD32VW55x_RELEASE_V1.0.2/MSDK/cloud/alicloud/src/infra/system\report.c ****     }
 493              		.loc 1 164 31 is_stmt 0 discriminator 3
 494 010a 1305F00F 		li	a0,255
 495 010e 97000000 		call	HAL_Random
 495      E7800000 
 496              	.LVL48:
 164:C:/Users/stapi/OneDrive/Desktop/GD32VW553/V1_MQTT_OK/GD32VW55X_Wifi_BLE_SDK/GD32VW55x_RELEASE_V1.0.2/MSDK/cloud/alicloud/src/infra/system\report.c ****     }
 497              		.loc 1 164 23 discriminator 3
 498 0116 3C08     		addi	a5,sp,24
 499 0118 A297     		add	a5,a5,s0
 164:C:/Users/stapi/OneDrive/Desktop/GD32VW553/V1_MQTT_OK/GD32VW55X_Wifi_BLE_SDK/GD32VW55x_RELEASE_V1.0.2/MSDK/cloud/alicloud/src/infra/system\report.c ****     }
 500              		.loc 1 164 25 discriminator 3
 501 011a 2380A700 		sb	a0,0(a5)
 163:C:/Users/stapi/OneDrive/Desktop/GD32VW553/V1_MQTT_OK/GD32VW55X_Wifi_BLE_SDK/GD32VW55x_RELEASE_V1.0.2/MSDK/cloud/alicloud/src/infra/system\report.c ****         random_num[i] = (char)HAL_Random(0xFF);
 502              		.loc 1 163 24 is_stmt 1 discriminator 3
 163:C:/Users/stapi/OneDrive/Desktop/GD32VW553/V1_MQTT_OK/GD32VW55X_Wifi_BLE_SDK/GD32VW55x_RELEASE_V1.0.2/MSDK/cloud/alicloud/src/infra/system\report.c ****         random_num[i] = (char)HAL_Random(0xFF);
 503              		.loc 1 163 26 is_stmt 0 discriminator 3
 504 011e 0504     		addi	s0,s0,1
 505              	.LVL49:
 163:C:/Users/stapi/OneDrive/Desktop/GD32VW553/V1_MQTT_OK/GD32VW55X_Wifi_BLE_SDK/GD32VW55x_RELEASE_V1.0.2/MSDK/cloud/alicloud/src/infra/system\report.c ****         random_num[i] = (char)HAL_Random(0xFF);
 506              		.loc 1 163 17 is_stmt 1 discriminator 3
 163:C:/Users/stapi/OneDrive/Desktop/GD32VW553/V1_MQTT_OK/GD32VW55X_Wifi_BLE_SDK/GD32VW55x_RELEASE_V1.0.2/MSDK/cloud/alicloud/src/infra/system\report.c ****         random_num[i] = (char)HAL_Random(0xFF);
 507              		.loc 1 163 5 is_stmt 0 discriminator 3
 508 0120 E31594FE 		bne	s0,s1,.L22
 166:C:/Users/stapi/OneDrive/Desktop/GD32VW553/V1_MQTT_OK/GD32VW55X_Wifi_BLE_SDK/GD32VW55x_RELEASE_V1.0.2/MSDK/cloud/alicloud/src/infra/system\report.c ****     /*
 509              		.loc 1 166 5 is_stmt 1
 510 0124 6808     		addi	a0,sp,28
 511 0126 97000000 		call	aos_get_chip_code
 511      E7800000 
 512              	.LVL50:
 172:C:/Users/stapi/OneDrive/Desktop/GD32VW553/V1_MQTT_OK/GD32VW55X_Wifi_BLE_SDK/GD32VW55x_RELEASE_V1.0.2/MSDK/cloud/alicloud/src/infra/system\report.c ****                                (unsigned char *)chip_code, (unsigned char *)output, AOS_ACTIVE_INFO
 513              		.loc 1 172 5
 172:C:/Users/stapi/OneDrive/Desktop/GD32VW553/V1_MQTT_OK/GD32VW55X_Wifi_BLE_SDK/GD32VW55x_RELEASE_V1.0.2/MSDK/cloud/alicloud/src/infra/system\report.c ****                                (unsigned char *)chip_code, (unsigned char *)output, AOS_ACTIVE_INFO
 514              		.loc 1 172 11 is_stmt 0
 515 012e 93071005 		li	a5,81
 516 0132 3810     		addi	a4,sp,40
 517 0134 7408     		addi	a3,sp,28
 518 0136 1010     		addi	a2,sp,32
 519 0138 2C08     		addi	a1,sp,24
 520 013a 4808     		addi	a0,sp,20
 521 013c 97000000 		call	aos_get_version_info
 521      E7800000 
 522              	.LVL51:
 174:C:/Users/stapi/OneDrive/Desktop/GD32VW553/V1_MQTT_OK/GD32VW55X_Wifi_BLE_SDK/GD32VW55x_RELEASE_V1.0.2/MSDK/cloud/alicloud/src/infra/system\report.c ****         VERSION_ERR("aos_get_version_info failed");
 523              		.loc 1 174 5 is_stmt 1
 174:C:/Users/stapi/OneDrive/Desktop/GD32VW553/V1_MQTT_OK/GD32VW55X_Wifi_BLE_SDK/GD32VW55x_RELEASE_V1.0.2/MSDK/cloud/alicloud/src/infra/system\report.c ****         VERSION_ERR("aos_get_version_info failed");
 524              		.loc 1 174 8 is_stmt 0
 525 0144 11CD     		beq	a0,zero,.L23
 175:C:/Users/stapi/OneDrive/Desktop/GD32VW553/V1_MQTT_OK/GD32VW55X_Wifi_BLE_SDK/GD32VW55x_RELEASE_V1.0.2/MSDK/cloud/alicloud/src/infra/system\report.c ****         return FAIL_RETURN;
 526              		.loc 1 175 9 is_stmt 1
 175:C:/Users/stapi/OneDrive/Desktop/GD32VW553/V1_MQTT_OK/GD32VW55X_Wifi_BLE_SDK/GD32VW55x_RELEASE_V1.0.2/MSDK/cloud/alicloud/src/infra/system\report.c ****         return FAIL_RETURN;
 527              		.loc 1 175 9
 528 0146 37050000 		lui	a0,%hi(.LC6)
 529              	.LVL52:
 530 014a 13050500 		addi	a0,a0,%lo(.LC6)
 531 014e 97000000 		call	HAL_Printf
 531      E7800000 
 532              	.LVL53:
 175:C:/Users/stapi/OneDrive/Desktop/GD32VW553/V1_MQTT_OK/GD32VW55X_Wifi_BLE_SDK/GD32VW55x_RELEASE_V1.0.2/MSDK/cloud/alicloud/src/infra/system\report.c ****         return FAIL_RETURN;
 533              		.loc 1 175 9
 534 0156 37050000 		lui	a0,%hi(.LC10)
 535 015a 13050500 		addi	a0,a0,%lo(.LC10)
 536 015e 09BF     		j	.L37
 537              	.LVL54:
 538              	.L23:
 178:C:/Users/stapi/OneDrive/Desktop/GD32VW553/V1_MQTT_OK/GD32VW55X_Wifi_BLE_SDK/GD32VW55x_RELEASE_V1.0.2/MSDK/cloud/alicloud/src/infra/system\report.c **** 
 539              		.loc 1 178 53
 181:C:/Users/stapi/OneDrive/Desktop/GD32VW553/V1_MQTT_OK/GD32VW55X_Wifi_BLE_SDK/GD32VW55x_RELEASE_V1.0.2/MSDK/cloud/alicloud/src/infra/system\report.c ****                        IOTX_URI_MAX_LEN,
 540              		.loc 1 181 5
 181:C:/Users/stapi/OneDrive/Desktop/GD32VW553/V1_MQTT_OK/GD32VW55X_Wifi_BLE_SDK/GD32VW55x_RELEASE_V1.0.2/MSDK/cloud/alicloud/src/infra/system\report.c ****                        IOTX_URI_MAX_LEN,
 541              		.loc 1 181 11 is_stmt 0
 542 0160 37060000 		lui	a2,%hi(.LC11)
 543 0164 1307911B 		addi	a4,sp,441
 544 0168 5413     		addi	a3,sp,420
 545 016a 13060600 		addi	a2,a2,%lo(.LC11)
 546 016e 93057008 		li	a1,135
 547 0172 E818     		addi	a0,sp,124
 548              	.LVL55:
 549 0174 97000000 		call	HAL_Snprintf
 549      E7800000 
 550              	.LVL56:
 186:C:/Users/stapi/OneDrive/Desktop/GD32VW553/V1_MQTT_OK/GD32VW55X_Wifi_BLE_SDK/GD32VW55x_RELEASE_V1.0.2/MSDK/cloud/alicloud/src/infra/system\report.c ****         VERSION_ERR("topic generate err");
 551              		.loc 1 186 5 is_stmt 1
 186:C:/Users/stapi/OneDrive/Desktop/GD32VW553/V1_MQTT_OK/GD32VW55X_Wifi_BLE_SDK/GD32VW55x_RELEASE_V1.0.2/MSDK/cloud/alicloud/src/infra/system\report.c ****         VERSION_ERR("topic generate err");
 552              		.loc 1 186 8 is_stmt 0
 553 017c 634FA000 		bgt	a0,zero,.L24
 187:C:/Users/stapi/OneDrive/Desktop/GD32VW553/V1_MQTT_OK/GD32VW55X_Wifi_BLE_SDK/GD32VW55x_RELEASE_V1.0.2/MSDK/cloud/alicloud/src/infra/system\report.c ****         return FAIL_RETURN;
 554              		.loc 1 187 9 is_stmt 1
 187:C:/Users/stapi/OneDrive/Desktop/GD32VW553/V1_MQTT_OK/GD32VW55X_Wifi_BLE_SDK/GD32VW55x_RELEASE_V1.0.2/MSDK/cloud/alicloud/src/infra/system\report.c ****         return FAIL_RETURN;
 555              		.loc 1 187 9
 556 0180 37050000 		lui	a0,%hi(.LC6)
 557              	.LVL57:
 558 0184 13050500 		addi	a0,a0,%lo(.LC6)
 559 0188 97000000 		call	HAL_Printf
 559      E7800000 
 560              	.LVL58:
 187:C:/Users/stapi/OneDrive/Desktop/GD32VW553/V1_MQTT_OK/GD32VW55X_Wifi_BLE_SDK/GD32VW55x_RELEASE_V1.0.2/MSDK/cloud/alicloud/src/infra/system\report.c ****         return FAIL_RETURN;
 561              		.loc 1 187 9
 562 0190 37050000 		lui	a0,%hi(.LC12)
 563 0194 13050500 		addi	a0,a0,%lo(.LC12)
 564 0198 E1BD     		j	.L37
 565              	.LVL59:
 566              	.L24:
 190:C:/Users/stapi/OneDrive/Desktop/GD32VW553/V1_MQTT_OK/GD32VW55X_Wifi_BLE_SDK/GD32VW55x_RELEASE_V1.0.2/MSDK/cloud/alicloud/src/infra/system\report.c **** 
 567              		.loc 1 190 58
 192:C:/Users/stapi/OneDrive/Desktop/GD32VW553/V1_MQTT_OK/GD32VW55X_Wifi_BLE_SDK/GD32VW55x_RELEASE_V1.0.2/MSDK/cloud/alicloud/src/infra/system\report.c ****     if (ret <= 0 || ret >= NIF_STRLEN_MAX) {
 568              		.loc 1 192 5
 192:C:/Users/stapi/OneDrive/Desktop/GD32VW553/V1_MQTT_OK/GD32VW55X_Wifi_BLE_SDK/GD32VW55x_RELEASE_V1.0.2/MSDK/cloud/alicloud/src/infra/system\report.c ****     if (ret <= 0 || ret >= NIF_STRLEN_MAX) {
 569              		.loc 1 192 11 is_stmt 0
 570 019a 4802     		addi	a0,sp,260
 571              	.LVL60:
 572 019c 97000000 		call	HAL_GetNetifInfo
 572      E7800000 
 573              	.LVL61:
 193:C:/Users/stapi/OneDrive/Desktop/GD32VW553/V1_MQTT_OK/GD32VW55X_Wifi_BLE_SDK/GD32VW55x_RELEASE_V1.0.2/MSDK/cloud/alicloud/src/infra/system\report.c ****         VERSION_ERR("the network interface info set failed or not set, writen len is %d", ret);
 574              		.loc 1 193 5 is_stmt 1
 193:C:/Users/stapi/OneDrive/Desktop/GD32VW553/V1_MQTT_OK/GD32VW55X_Wifi_BLE_SDK/GD32VW55x_RELEASE_V1.0.2/MSDK/cloud/alicloud/src/infra/system\report.c ****         VERSION_ERR("the network interface info set failed or not set, writen len is %d", ret);
 575              		.loc 1 193 18 is_stmt 0
 576 01a4 1307F5FF 		addi	a4,a0,-1
 193:C:/Users/stapi/OneDrive/Desktop/GD32VW553/V1_MQTT_OK/GD32VW55X_Wifi_BLE_SDK/GD32VW55x_RELEASE_V1.0.2/MSDK/cloud/alicloud/src/infra/system\report.c ****         VERSION_ERR("the network interface info set failed or not set, writen len is %d", ret);
 577              		.loc 1 193 8
 578 01a8 9307E009 		li	a5,158
 579 01ac 63F7E704 		bleu	a4,a5,.L25
 580 01b0 2AC6     		sw	a0,12(sp)
 581              	.LBB2:
 194:C:/Users/stapi/OneDrive/Desktop/GD32VW553/V1_MQTT_OK/GD32VW55X_Wifi_BLE_SDK/GD32VW55x_RELEASE_V1.0.2/MSDK/cloud/alicloud/src/infra/system\report.c ****         const char *default_network_info = "invalid network interface info";
 582              		.loc 1 194 9 is_stmt 1
 194:C:/Users/stapi/OneDrive/Desktop/GD32VW553/V1_MQTT_OK/GD32VW55X_Wifi_BLE_SDK/GD32VW55x_RELEASE_V1.0.2/MSDK/cloud/alicloud/src/infra/system\report.c ****         const char *default_network_info = "invalid network interface info";
 583              		.loc 1 194 9
 584 01b2 37050000 		lui	a0,%hi(.LC6)
 585              	.LVL62:
 586 01b6 13050500 		addi	a0,a0,%lo(.LC6)
 587 01ba 97000000 		call	HAL_Printf
 587      E7800000 
 588              	.LVL63:
 194:C:/Users/stapi/OneDrive/Desktop/GD32VW553/V1_MQTT_OK/GD32VW55X_Wifi_BLE_SDK/GD32VW55x_RELEASE_V1.0.2/MSDK/cloud/alicloud/src/infra/system\report.c ****         const char *default_network_info = "invalid network interface info";
 589              		.loc 1 194 9
 590 01c2 B245     		lw	a1,12(sp)
 591 01c4 37050000 		lui	a0,%hi(.LC13)
 592 01c8 13050500 		addi	a0,a0,%lo(.LC13)
 593 01cc 97000000 		call	HAL_Printf
 593      E7800000 
 594              	.LVL64:
 194:C:/Users/stapi/OneDrive/Desktop/GD32VW553/V1_MQTT_OK/GD32VW55X_Wifi_BLE_SDK/GD32VW55x_RELEASE_V1.0.2/MSDK/cloud/alicloud/src/infra/system\report.c ****         const char *default_network_info = "invalid network interface info";
 595              		.loc 1 194 9
 596 01d4 37050000 		lui	a0,%hi(.LC8)
 597 01d8 13050500 		addi	a0,a0,%lo(.LC8)
 598 01dc 97000000 		call	HAL_Printf
 598      E7800000 
 599              	.LVL65:
 194:C:/Users/stapi/OneDrive/Desktop/GD32VW553/V1_MQTT_OK/GD32VW55X_Wifi_BLE_SDK/GD32VW55x_RELEASE_V1.0.2/MSDK/cloud/alicloud/src/infra/system\report.c ****         const char *default_network_info = "invalid network interface info";
 600              		.loc 1 194 9
 195:C:/Users/stapi/OneDrive/Desktop/GD32VW553/V1_MQTT_OK/GD32VW55X_Wifi_BLE_SDK/GD32VW55x_RELEASE_V1.0.2/MSDK/cloud/alicloud/src/infra/system\report.c ****         strncpy(network_interfaces, default_network_info, sizeof(network_interfaces));
 601              		.loc 1 195 9
 196:C:/Users/stapi/OneDrive/Desktop/GD32VW553/V1_MQTT_OK/GD32VW55X_Wifi_BLE_SDK/GD32VW55x_RELEASE_V1.0.2/MSDK/cloud/alicloud/src/infra/system\report.c ****     }
 602              		.loc 1 196 9
 603 01e4 B7050000 		lui	a1,%hi(.LC14)
 604 01e8 1306000A 		li	a2,160
 605 01ec 93850500 		addi	a1,a1,%lo(.LC14)
 606 01f0 4802     		addi	a0,sp,260
 607 01f2 97000000 		call	strncpy
 607      E7800000 
 608              	.LVL66:
 609              	.L25:
 610              	.LBE2:
 199:C:/Users/stapi/OneDrive/Desktop/GD32VW553/V1_MQTT_OK/GD32VW55X_Wifi_BLE_SDK/GD32VW55x_RELEASE_V1.0.2/MSDK/cloud/alicloud/src/infra/system\report.c ****               + strlen(network_interfaces) + 1;
 611              		.loc 1 199 5
 199:C:/Users/stapi/OneDrive/Desktop/GD32VW553/V1_MQTT_OK/GD32VW55X_Wifi_BLE_SDK/GD32VW55x_RELEASE_V1.0.2/MSDK/cloud/alicloud/src/infra/system\report.c ****               + strlen(network_interfaces) + 1;
 612              		.loc 1 199 15 is_stmt 0
 613 01fa B7040000 		lui	s1,%hi(.LANCHOR2)
 614 01fe 93840400 		addi	s1,s1,%lo(.LANCHOR2)
 615 0202 8840     		lw	a0,0(s1)
 616 0204 97000000 		call	strlen
 616      E7800000 
 617              	.LVL67:
 618 020c 2A84     		mv	s0,a0
 619              	.LVL68:
 200:C:/Users/stapi/OneDrive/Desktop/GD32VW553/V1_MQTT_OK/GD32VW55X_Wifi_BLE_SDK/GD32VW55x_RELEASE_V1.0.2/MSDK/cloud/alicloud/src/infra/system\report.c ****     msg = (char *)SYS_REPORT_MALLOC(msg_len);
 620              		.loc 1 200 17
 621 020e 4802     		addi	a0,sp,260
 622 0210 97000000 		call	strlen
 622      E7800000 
 623              	.LVL69:
 199:C:/Users/stapi/OneDrive/Desktop/GD32VW553/V1_MQTT_OK/GD32VW55X_Wifi_BLE_SDK/GD32VW55x_RELEASE_V1.0.2/MSDK/cloud/alicloud/src/infra/system\report.c ****               + strlen(network_interfaces) + 1;
 624              		.loc 1 199 99
 625 0218 2A94     		add	s0,s0,a0
 200:C:/Users/stapi/OneDrive/Desktop/GD32VW553/V1_MQTT_OK/GD32VW55X_Wifi_BLE_SDK/GD32VW55x_RELEASE_V1.0.2/MSDK/cloud/alicloud/src/infra/system\report.c ****     msg = (char *)SYS_REPORT_MALLOC(msg_len);
 626              		.loc 1 200 44
 627 021a 1304C406 		addi	s0,s0,108
 628              	.LVL70:
 201:C:/Users/stapi/OneDrive/Desktop/GD32VW553/V1_MQTT_OK/GD32VW55X_Wifi_BLE_SDK/GD32VW55x_RELEASE_V1.0.2/MSDK/cloud/alicloud/src/infra/system\report.c ****     if (msg == NULL) {
 629              		.loc 1 201 5 is_stmt 1
 201:C:/Users/stapi/OneDrive/Desktop/GD32VW553/V1_MQTT_OK/GD32VW55X_Wifi_BLE_SDK/GD32VW55x_RELEASE_V1.0.2/MSDK/cloud/alicloud/src/infra/system\report.c ****     if (msg == NULL) {
 630              		.loc 1 201 19 is_stmt 0
 631 021e 2286     		mv	a2,s0
 632 0220 8145     		li	a1,0
 633 0222 0145     		li	a0,0
 634 0224 97000000 		call	LITE_malloc_internal
 634      E7800000 
 635              	.LVL71:
 636 022c 2A89     		mv	s2,a0
 637              	.LVL72:
 202:C:/Users/stapi/OneDrive/Desktop/GD32VW553/V1_MQTT_OK/GD32VW55X_Wifi_BLE_SDK/GD32VW55x_RELEASE_V1.0.2/MSDK/cloud/alicloud/src/infra/system\report.c ****         VERSION_ERR("malloc err");
 638              		.loc 1 202 5 is_stmt 1
 202:C:/Users/stapi/OneDrive/Desktop/GD32VW553/V1_MQTT_OK/GD32VW55X_Wifi_BLE_SDK/GD32VW55x_RELEASE_V1.0.2/MSDK/cloud/alicloud/src/infra/system\report.c ****         VERSION_ERR("malloc err");
 639              		.loc 1 202 8 is_stmt 0
 640 022e 11ED     		bne	a0,zero,.L26
 203:C:/Users/stapi/OneDrive/Desktop/GD32VW553/V1_MQTT_OK/GD32VW55X_Wifi_BLE_SDK/GD32VW55x_RELEASE_V1.0.2/MSDK/cloud/alicloud/src/infra/system\report.c ****         return FAIL_RETURN;
 641              		.loc 1 203 9 is_stmt 1
 203:C:/Users/stapi/OneDrive/Desktop/GD32VW553/V1_MQTT_OK/GD32VW55X_Wifi_BLE_SDK/GD32VW55x_RELEASE_V1.0.2/MSDK/cloud/alicloud/src/infra/system\report.c ****         return FAIL_RETURN;
 642              		.loc 1 203 9
 643 0230 37050000 		lui	a0,%hi(.LC6)
 644              	.LVL73:
 645 0234 13050500 		addi	a0,a0,%lo(.LC6)
 646 0238 97000000 		call	HAL_Printf
 646      E7800000 
 647              	.LVL74:
 203:C:/Users/stapi/OneDrive/Desktop/GD32VW553/V1_MQTT_OK/GD32VW55X_Wifi_BLE_SDK/GD32VW55x_RELEASE_V1.0.2/MSDK/cloud/alicloud/src/infra/system\report.c ****         return FAIL_RETURN;
 648              		.loc 1 203 9
 649 0240 37050000 		lui	a0,%hi(.LC15)
 650 0244 13050500 		addi	a0,a0,%lo(.LC15)
 651 0248 25B5     		j	.L37
 652              	.LVL75:
 653              	.L26:
 206:C:/Users/stapi/OneDrive/Desktop/GD32VW553/V1_MQTT_OK/GD32VW55X_Wifi_BLE_SDK/GD32VW55x_RELEASE_V1.0.2/MSDK/cloud/alicloud/src/infra/system\report.c **** 
 654              		.loc 1 206 5
 655 024a 8145     		li	a1,0
 656 024c 2286     		mv	a2,s0
 657 024e 97000000 		call	memset
 657      E7800000 
 658              	.LVL76:
 209:C:/Users/stapi/OneDrive/Desktop/GD32VW553/V1_MQTT_OK/GD32VW55X_Wifi_BLE_SDK/GD32VW55x_RELEASE_V1.0.2/MSDK/cloud/alicloud/src/infra/system\report.c ****                        msg_len,
 659              		.loc 1 209 5
 209:C:/Users/stapi/OneDrive/Desktop/GD32VW553/V1_MQTT_OK/GD32VW55X_Wifi_BLE_SDK/GD32VW55x_RELEASE_V1.0.2/MSDK/cloud/alicloud/src/infra/system\report.c ****                        msg_len,
 660              		.loc 1 209 11 is_stmt 0
 661 0256 9040     		lw	a2,0(s1)
 662 0258 32C6     		sw	a2,12(sp)
 663 025a 97000000 		call	iotx_report_id
 663      E7800000 
 664              	.LVL77:
 665 0262 3246     		lw	a2,12(sp)
 666 0264 B7070000 		lui	a5,%hi(.LC3)
 667 0268 AA86     		mv	a3,a0
 668 026a 13084110 		addi	a6,sp,260
 669 026e 93870700 		addi	a5,a5,%lo(.LC3)
 670 0272 3810     		addi	a4,sp,40
 671 0274 A285     		mv	a1,s0
 672 0276 4A85     		mv	a0,s2
 673 0278 97000000 		call	HAL_Snprintf
 673      E7800000 
 674              	.LVL78:
 675 0280 AA84     		mv	s1,a0
 676              	.LVL79:
 217:C:/Users/stapi/OneDrive/Desktop/GD32VW553/V1_MQTT_OK/GD32VW55X_Wifi_BLE_SDK/GD32VW55x_RELEASE_V1.0.2/MSDK/cloud/alicloud/src/infra/system\report.c ****         VERSION_ERR("topic msg generate err");
 677              		.loc 1 217 5 is_stmt 1
 217:C:/Users/stapi/OneDrive/Desktop/GD32VW553/V1_MQTT_OK/GD32VW55X_Wifi_BLE_SDK/GD32VW55x_RELEASE_V1.0.2/MSDK/cloud/alicloud/src/infra/system\report.c ****         VERSION_ERR("topic msg generate err");
 678              		.loc 1 217 8 is_stmt 0
 679 0282 6341A004 		bgt	a0,zero,.L27
 218:C:/Users/stapi/OneDrive/Desktop/GD32VW553/V1_MQTT_OK/GD32VW55X_Wifi_BLE_SDK/GD32VW55x_RELEASE_V1.0.2/MSDK/cloud/alicloud/src/infra/system\report.c ****         SYS_REPORT_FREE(msg);
 680              		.loc 1 218 9 is_stmt 1
 218:C:/Users/stapi/OneDrive/Desktop/GD32VW553/V1_MQTT_OK/GD32VW55X_Wifi_BLE_SDK/GD32VW55x_RELEASE_V1.0.2/MSDK/cloud/alicloud/src/infra/system\report.c ****         SYS_REPORT_FREE(msg);
 681              		.loc 1 218 9
 682 0286 37050000 		lui	a0,%hi(.LC6)
 683 028a 13050500 		addi	a0,a0,%lo(.LC6)
 684 028e 97000000 		call	HAL_Printf
 684      E7800000 
 685              	.LVL80:
 218:C:/Users/stapi/OneDrive/Desktop/GD32VW553/V1_MQTT_OK/GD32VW55X_Wifi_BLE_SDK/GD32VW55x_RELEASE_V1.0.2/MSDK/cloud/alicloud/src/infra/system\report.c ****         SYS_REPORT_FREE(msg);
 686              		.loc 1 218 9
 687 0296 37050000 		lui	a0,%hi(.LC16)
 688 029a 13050500 		addi	a0,a0,%lo(.LC16)
 689 029e 97000000 		call	HAL_Printf
 689      E7800000 
 690              	.LVL81:
 218:C:/Users/stapi/OneDrive/Desktop/GD32VW553/V1_MQTT_OK/GD32VW55X_Wifi_BLE_SDK/GD32VW55x_RELEASE_V1.0.2/MSDK/cloud/alicloud/src/infra/system\report.c ****         SYS_REPORT_FREE(msg);
 691              		.loc 1 218 9
 692 02a6 37050000 		lui	a0,%hi(.LC8)
 693 02aa 13050500 		addi	a0,a0,%lo(.LC8)
 694 02ae 97000000 		call	HAL_Printf
 694      E7800000 
 695              	.LVL82:
 218:C:/Users/stapi/OneDrive/Desktop/GD32VW553/V1_MQTT_OK/GD32VW55X_Wifi_BLE_SDK/GD32VW55x_RELEASE_V1.0.2/MSDK/cloud/alicloud/src/infra/system\report.c ****         SYS_REPORT_FREE(msg);
 696              		.loc 1 218 9
 219:C:/Users/stapi/OneDrive/Desktop/GD32VW553/V1_MQTT_OK/GD32VW55X_Wifi_BLE_SDK/GD32VW55x_RELEASE_V1.0.2/MSDK/cloud/alicloud/src/infra/system\report.c ****         return FAIL_RETURN;
 697              		.loc 1 219 9
 698 02b6 4A85     		mv	a0,s2
 699 02b8 97000000 		call	LITE_free_internal
 699      E7800000 
 700              	.LVL83:
 220:C:/Users/stapi/OneDrive/Desktop/GD32VW553/V1_MQTT_OK/GD32VW55X_Wifi_BLE_SDK/GD32VW55x_RELEASE_V1.0.2/MSDK/cloud/alicloud/src/infra/system\report.c ****     }
 701              		.loc 1 220 9
 702              	.L36:
 230:C:/Users/stapi/OneDrive/Desktop/GD32VW553/V1_MQTT_OK/GD32VW55X_Wifi_BLE_SDK/GD32VW55x_RELEASE_V1.0.2/MSDK/cloud/alicloud/src/infra/system\report.c ****         return FAIL_RETURN;
 703              		.loc 1 230 9
 231:C:/Users/stapi/OneDrive/Desktop/GD32VW553/V1_MQTT_OK/GD32VW55X_Wifi_BLE_SDK/GD32VW55x_RELEASE_V1.0.2/MSDK/cloud/alicloud/src/infra/system\report.c ****     }
 704              		.loc 1 231 9
 231:C:/Users/stapi/OneDrive/Desktop/GD32VW553/V1_MQTT_OK/GD32VW55X_Wifi_BLE_SDK/GD32VW55x_RELEASE_V1.0.2/MSDK/cloud/alicloud/src/infra/system\report.c ****     }
 705              		.loc 1 231 16 is_stmt 0
 706 02c0 7D54     		li	s0,-1
 707 02c2 21B5     		j	.L18
 708              	.LVL84:
 709              	.L27:
 222:C:/Users/stapi/OneDrive/Desktop/GD32VW553/V1_MQTT_OK/GD32VW55X_Wifi_BLE_SDK/GD32VW55x_RELEASE_V1.0.2/MSDK/cloud/alicloud/src/infra/system\report.c **** 
 710              		.loc 1 222 50 is_stmt 1
 224:C:/Users/stapi/OneDrive/Desktop/GD32VW553/V1_MQTT_OK/GD32VW55X_Wifi_BLE_SDK/GD32VW55x_RELEASE_V1.0.2/MSDK/cloud/alicloud/src/infra/system\report.c ****         ret = info_report_func(pclient, topic_name, 1, msg, strlen(msg));
 711              		.loc 1 224 5
 224:C:/Users/stapi/OneDrive/Desktop/GD32VW553/V1_MQTT_OK/GD32VW55X_Wifi_BLE_SDK/GD32VW55x_RELEASE_V1.0.2/MSDK/cloud/alicloud/src/infra/system\report.c ****         ret = info_report_func(pclient, topic_name, 1, msg, strlen(msg));
 712              		.loc 1 224 26 is_stmt 0
 713 02c4 03A40900 		lw	s0,0(s3)
 714              	.LVL85:
 224:C:/Users/stapi/OneDrive/Desktop/GD32VW553/V1_MQTT_OK/GD32VW55X_Wifi_BLE_SDK/GD32VW55x_RELEASE_V1.0.2/MSDK/cloud/alicloud/src/infra/system\report.c ****         ret = info_report_func(pclient, topic_name, 1, msg, strlen(msg));
 715              		.loc 1 224 8
 716 02c8 09CC     		beq	s0,zero,.L28
 225:C:/Users/stapi/OneDrive/Desktop/GD32VW553/V1_MQTT_OK/GD32VW55X_Wifi_BLE_SDK/GD32VW55x_RELEASE_V1.0.2/MSDK/cloud/alicloud/src/infra/system\report.c ****     }
 717              		.loc 1 225 9 is_stmt 1
 225:C:/Users/stapi/OneDrive/Desktop/GD32VW553/V1_MQTT_OK/GD32VW55X_Wifi_BLE_SDK/GD32VW55x_RELEASE_V1.0.2/MSDK/cloud/alicloud/src/infra/system\report.c ****     }
 718              		.loc 1 225 61 is_stmt 0
 719 02ca 4A85     		mv	a0,s2
 720 02cc 97000000 		call	strlen
 720      E7800000 
 721              	.LVL86:
 722 02d4 2A87     		mv	a4,a0
 225:C:/Users/stapi/OneDrive/Desktop/GD32VW553/V1_MQTT_OK/GD32VW55X_Wifi_BLE_SDK/GD32VW55x_RELEASE_V1.0.2/MSDK/cloud/alicloud/src/infra/system\report.c ****     }
 723              		.loc 1 225 15
 724 02d6 CA86     		mv	a3,s2
 725 02d8 0546     		li	a2,1
 726 02da EC18     		addi	a1,sp,124
 727 02dc 5285     		mv	a0,s4
 728 02de 0294     		jalr	s0
 729              	.LVL87:
 730 02e0 AA84     		mv	s1,a0
 731              	.LVL88:
 732              	.L28:
 228:C:/Users/stapi/OneDrive/Desktop/GD32VW553/V1_MQTT_OK/GD32VW55X_Wifi_BLE_SDK/GD32VW55x_RELEASE_V1.0.2/MSDK/cloud/alicloud/src/infra/system\report.c ****     if (ret < 0) {
 733              		.loc 1 228 5 is_stmt 1
 734 02e2 4A85     		mv	a0,s2
 735 02e4 97000000 		call	LITE_free_internal
 735      E7800000 
 736              	.LVL89:
 229:C:/Users/stapi/OneDrive/Desktop/GD32VW553/V1_MQTT_OK/GD32VW55X_Wifi_BLE_SDK/GD32VW55x_RELEASE_V1.0.2/MSDK/cloud/alicloud/src/infra/system\report.c ****         VERSION_ERR("publish failed, ret = %d", ret);
 737              		.loc 1 229 5
 235:C:/Users/stapi/OneDrive/Desktop/GD32VW553/V1_MQTT_OK/GD32VW55X_Wifi_BLE_SDK/GD32VW55x_RELEASE_V1.0.2/MSDK/cloud/alicloud/src/infra/system\report.c **** }
 738              		.loc 1 235 12 is_stmt 0
 739 02ec 0144     		li	s0,0
 229:C:/Users/stapi/OneDrive/Desktop/GD32VW553/V1_MQTT_OK/GD32VW55X_Wifi_BLE_SDK/GD32VW55x_RELEASE_V1.0.2/MSDK/cloud/alicloud/src/infra/system\report.c ****         VERSION_ERR("publish failed, ret = %d", ret);
 740              		.loc 1 229 8
 741 02ee E3DE04DC 		bge	s1,zero,.L18
 230:C:/Users/stapi/OneDrive/Desktop/GD32VW553/V1_MQTT_OK/GD32VW55X_Wifi_BLE_SDK/GD32VW55x_RELEASE_V1.0.2/MSDK/cloud/alicloud/src/infra/system\report.c ****         return FAIL_RETURN;
 742              		.loc 1 230 9 is_stmt 1
 230:C:/Users/stapi/OneDrive/Desktop/GD32VW553/V1_MQTT_OK/GD32VW55X_Wifi_BLE_SDK/GD32VW55x_RELEASE_V1.0.2/MSDK/cloud/alicloud/src/infra/system\report.c ****         return FAIL_RETURN;
 743              		.loc 1 230 9
 744 02f2 37050000 		lui	a0,%hi(.LC6)
 745 02f6 13050500 		addi	a0,a0,%lo(.LC6)
 746 02fa 97000000 		call	HAL_Printf
 746      E7800000 
 747              	.LVL90:
 230:C:/Users/stapi/OneDrive/Desktop/GD32VW553/V1_MQTT_OK/GD32VW55X_Wifi_BLE_SDK/GD32VW55x_RELEASE_V1.0.2/MSDK/cloud/alicloud/src/infra/system\report.c ****         return FAIL_RETURN;
 748              		.loc 1 230 9
 749 0302 37050000 		lui	a0,%hi(.LC17)
 750 0306 A685     		mv	a1,s1
 751 0308 13050500 		addi	a0,a0,%lo(.LC17)
 752 030c 97000000 		call	HAL_Printf
 752      E7800000 
 753              	.LVL91:
 754 0314 95B3     		j	.L35
 755              		.cfi_endproc
 756              	.LFE28:
 758              		.section	.rodata.iotx_report_firmware_version.str1.4,"aMS",@progbits,1
 759              		.align	2
 760              	.LC18:
 761 0000 6669726D 		.string	"firmware version does not implement"
 761      77617265 
 761      20766572 
 761      73696F6E 
 761      20646F65 
 762              		.align	2
 763              	.LC19:
 764 0024 2F6F7461 		.string	"/ota/device/inform/%s/%s"
 764      2F646576 
 764      6963652F 
 764      696E666F 
 764      726D2F25 
 765 003d 000000   		.align	2
 766              	.LC20:
 767 0040 6669726D 		.string	"firmware report topic generate err"
 767      77617265 
 767      20726570 
 767      6F727420 
 767      746F7069 
 768 0063 00       		.align	2
 769              	.LC21:
 770 0064 7B226964 		.string	"{\"id\":\"%d\",\"params\":{\"version\":\"%s\"}}"
 770      223A2225 
 770      64222C22 
 770      70617261 
 770      6D73223A 
 771 008a 0000     		.align	2
 772              	.LC22:
 773 008c 6669726D 		.string	"firmware report message json data generate err"
 773      77617265 
 773      20726570 
 773      6F727420 
 773      6D657373 
 774 00bb 00       		.align	2
 775              	.LC23:
 776 00bc 7075626C 		.string	"publish failed"
 776      69736820 
 776      6661696C 
 776      656400
 777              		.section	.text.iotx_report_firmware_version,"ax",@progbits
 778              		.align	1
 779              		.globl	iotx_report_firmware_version
 781              	iotx_report_firmware_version:
 782              	.LFB29:
 237:C:/Users/stapi/OneDrive/Desktop/GD32VW553/V1_MQTT_OK/GD32VW55X_Wifi_BLE_SDK/GD32VW55x_RELEASE_V1.0.2/MSDK/cloud/alicloud/src/infra/system\report.c **** 
 238:C:/Users/stapi/OneDrive/Desktop/GD32VW553/V1_MQTT_OK/GD32VW55X_Wifi_BLE_SDK/GD32VW55x_RELEASE_V1.0.2/MSDK/cloud/alicloud/src/infra/system\report.c **** /* report Firmware version */
 239:C:/Users/stapi/OneDrive/Desktop/GD32VW553/V1_MQTT_OK/GD32VW55X_Wifi_BLE_SDK/GD32VW55x_RELEASE_V1.0.2/MSDK/cloud/alicloud/src/infra/system\report.c **** int iotx_report_firmware_version(void *pclient)
 240:C:/Users/stapi/OneDrive/Desktop/GD32VW553/V1_MQTT_OK/GD32VW55X_Wifi_BLE_SDK/GD32VW55x_RELEASE_V1.0.2/MSDK/cloud/alicloud/src/infra/system\report.c **** {
 783              		.loc 1 240 1
 784              		.cfi_startproc
 785              	.LVL92:
 786 0000 17030000 		call	t0,__riscv_save_3
 786      E7020300 
 787              		.cfi_offset 18, -16
 788              		.cfi_offset 9, -12
 789              		.cfi_offset 8, -8
 790              		.cfi_offset 1, -4
 791              		.cfi_def_cfa_offset 16
 241:C:/Users/stapi/OneDrive/Desktop/GD32VW553/V1_MQTT_OK/GD32VW55X_Wifi_BLE_SDK/GD32VW55x_RELEASE_V1.0.2/MSDK/cloud/alicloud/src/infra/system\report.c ****     int ret;
 792              		.loc 1 241 5
 242:C:/Users/stapi/OneDrive/Desktop/GD32VW553/V1_MQTT_OK/GD32VW55X_Wifi_BLE_SDK/GD32VW55x_RELEASE_V1.0.2/MSDK/cloud/alicloud/src/infra/system\report.c ****     char topic_name[IOTX_URI_MAX_LEN + 1] = {0};
 793              		.loc 1 242 5
 240:C:/Users/stapi/OneDrive/Desktop/GD32VW553/V1_MQTT_OK/GD32VW55X_Wifi_BLE_SDK/GD32VW55x_RELEASE_V1.0.2/MSDK/cloud/alicloud/src/infra/system\report.c ****     int ret;
 794              		.loc 1 240 1 is_stmt 0
 795 0008 130101DD 		addi	sp,sp,-560
 796              		.cfi_def_cfa_offset 576
 797              		.loc 1 242 10
 798 000c 13064008 		li	a2,132
 799 0010 8145     		li	a1,0
 240:C:/Users/stapi/OneDrive/Desktop/GD32VW553/V1_MQTT_OK/GD32VW55X_Wifi_BLE_SDK/GD32VW55x_RELEASE_V1.0.2/MSDK/cloud/alicloud/src/infra/system\report.c ****     int ret;
 800              		.loc 1 240 1
 801 0012 2A89     		mv	s2,a0
 802              		.loc 1 242 10
 803 0014 8809     		addi	a0,sp,208
 804              	.LVL93:
 805 0016 82C7     		sw	zero,204(sp)
 806 0018 97000000 		call	memset
 806      E7800000 
 807              	.LVL94:
 243:C:/Users/stapi/OneDrive/Desktop/GD32VW553/V1_MQTT_OK/GD32VW55X_Wifi_BLE_SDK/GD32VW55x_RELEASE_V1.0.2/MSDK/cloud/alicloud/src/infra/system\report.c ****     char msg[FIRMWARE_VERSION_MSG_LEN] = {0};
 808              		.loc 1 243 5 is_stmt 1
 809              		.loc 1 243 10 is_stmt 0
 810 0020 1306C007 		li	a2,124
 811 0024 8145     		li	a1,0
 812 0026 8808     		addi	a0,sp,80
 813 0028 82C6     		sw	zero,76(sp)
 814 002a 97000000 		call	memset
 814      E7800000 
 815              	.LVL95:
 244:C:/Users/stapi/OneDrive/Desktop/GD32VW553/V1_MQTT_OK/GD32VW55X_Wifi_BLE_SDK/GD32VW55x_RELEASE_V1.0.2/MSDK/cloud/alicloud/src/infra/system\report.c ****     //iotx_mqtt_topic_info_t topic_info;
 245:C:/Users/stapi/OneDrive/Desktop/GD32VW553/V1_MQTT_OK/GD32VW55X_Wifi_BLE_SDK/GD32VW55x_RELEASE_V1.0.2/MSDK/cloud/alicloud/src/infra/system\report.c ****     char version[FIRMWARE_VERSION_MAXLEN] = {0};
 816              		.loc 1 245 5 is_stmt 1
 817              		.loc 1 245 10 is_stmt 0
 818 0032 1306D003 		li	a2,61
 819 0036 8145     		li	a1,0
 820 0038 6800     		addi	a0,sp,12
 246:C:/Users/stapi/OneDrive/Desktop/GD32VW553/V1_MQTT_OK/GD32VW55X_Wifi_BLE_SDK/GD32VW55x_RELEASE_V1.0.2/MSDK/cloud/alicloud/src/infra/system\report.c **** 
 247:C:/Users/stapi/OneDrive/Desktop/GD32VW553/V1_MQTT_OK/GD32VW55X_Wifi_BLE_SDK/GD32VW55x_RELEASE_V1.0.2/MSDK/cloud/alicloud/src/infra/system\report.c ****     if (info_report_func == NULL) {
 821              		.loc 1 247 26
 822 003a B7040000 		lui	s1,%hi(.LANCHOR1)
 245:C:/Users/stapi/OneDrive/Desktop/GD32VW553/V1_MQTT_OK/GD32VW55X_Wifi_BLE_SDK/GD32VW55x_RELEASE_V1.0.2/MSDK/cloud/alicloud/src/infra/system\report.c **** 
 823              		.loc 1 245 10
 824 003e 02C4     		sw	zero,8(sp)
 825              		.loc 1 247 26
 826 0040 93840400 		addi	s1,s1,%lo(.LANCHOR1)
 245:C:/Users/stapi/OneDrive/Desktop/GD32VW553/V1_MQTT_OK/GD32VW55X_Wifi_BLE_SDK/GD32VW55x_RELEASE_V1.0.2/MSDK/cloud/alicloud/src/infra/system\report.c **** 
 827              		.loc 1 245 10
 828 0044 97000000 		call	memset
 828      E7800000 
 829              	.LVL96:
 830              		.loc 1 247 5 is_stmt 1
 831              		.loc 1 247 8 is_stmt 0
 832 004c 9C40     		lw	a5,0(s1)
 833 004e A9E3     		bne	a5,zero,.L39
 248:C:/Users/stapi/OneDrive/Desktop/GD32VW553/V1_MQTT_OK/GD32VW55X_Wifi_BLE_SDK/GD32VW55x_RELEASE_V1.0.2/MSDK/cloud/alicloud/src/infra/system\report.c ****         VERSION_ERR("report func not register!");
 834              		.loc 1 248 9 is_stmt 1
 835              		.loc 1 248 9
 836 0050 37050000 		lui	a0,%hi(.LC6)
 837 0054 13050500 		addi	a0,a0,%lo(.LC6)
 838 0058 97000000 		call	HAL_Printf
 838      E7800000 
 839              	.LVL97:
 840              		.loc 1 248 9
 841 0060 37050000 		lui	a0,%hi(.LC7)
 842 0064 13050500 		addi	a0,a0,%lo(.LC7)
 843              	.L47:
 249:C:/Users/stapi/OneDrive/Desktop/GD32VW553/V1_MQTT_OK/GD32VW55X_Wifi_BLE_SDK/GD32VW55x_RELEASE_V1.0.2/MSDK/cloud/alicloud/src/infra/system\report.c ****         return -1;
 250:C:/Users/stapi/OneDrive/Desktop/GD32VW553/V1_MQTT_OK/GD32VW55X_Wifi_BLE_SDK/GD32VW55x_RELEASE_V1.0.2/MSDK/cloud/alicloud/src/infra/system\report.c ****     }
 251:C:/Users/stapi/OneDrive/Desktop/GD32VW553/V1_MQTT_OK/GD32VW55X_Wifi_BLE_SDK/GD32VW55x_RELEASE_V1.0.2/MSDK/cloud/alicloud/src/infra/system\report.c **** 
 252:C:/Users/stapi/OneDrive/Desktop/GD32VW553/V1_MQTT_OK/GD32VW55X_Wifi_BLE_SDK/GD32VW55x_RELEASE_V1.0.2/MSDK/cloud/alicloud/src/infra/system\report.c ****     iotx_device_info_t dev;
 253:C:/Users/stapi/OneDrive/Desktop/GD32VW553/V1_MQTT_OK/GD32VW55X_Wifi_BLE_SDK/GD32VW55x_RELEASE_V1.0.2/MSDK/cloud/alicloud/src/infra/system\report.c ****     ret = iotx_device_info_get(&dev);
 254:C:/Users/stapi/OneDrive/Desktop/GD32VW553/V1_MQTT_OK/GD32VW55X_Wifi_BLE_SDK/GD32VW55x_RELEASE_V1.0.2/MSDK/cloud/alicloud/src/infra/system\report.c ****     if (ret < 0) {
 255:C:/Users/stapi/OneDrive/Desktop/GD32VW553/V1_MQTT_OK/GD32VW55X_Wifi_BLE_SDK/GD32VW55x_RELEASE_V1.0.2/MSDK/cloud/alicloud/src/infra/system\report.c ****         VERSION_ERR("get device info err");
 256:C:/Users/stapi/OneDrive/Desktop/GD32VW553/V1_MQTT_OK/GD32VW55X_Wifi_BLE_SDK/GD32VW55x_RELEASE_V1.0.2/MSDK/cloud/alicloud/src/infra/system\report.c ****         return ret;
 257:C:/Users/stapi/OneDrive/Desktop/GD32VW553/V1_MQTT_OK/GD32VW55X_Wifi_BLE_SDK/GD32VW55x_RELEASE_V1.0.2/MSDK/cloud/alicloud/src/infra/system\report.c ****     }
 258:C:/Users/stapi/OneDrive/Desktop/GD32VW553/V1_MQTT_OK/GD32VW55X_Wifi_BLE_SDK/GD32VW55x_RELEASE_V1.0.2/MSDK/cloud/alicloud/src/infra/system\report.c **** 
 259:C:/Users/stapi/OneDrive/Desktop/GD32VW553/V1_MQTT_OK/GD32VW55X_Wifi_BLE_SDK/GD32VW55x_RELEASE_V1.0.2/MSDK/cloud/alicloud/src/infra/system\report.c ****     ret = HAL_GetFirmwareVersion(version);
 260:C:/Users/stapi/OneDrive/Desktop/GD32VW553/V1_MQTT_OK/GD32VW55X_Wifi_BLE_SDK/GD32VW55x_RELEASE_V1.0.2/MSDK/cloud/alicloud/src/infra/system\report.c ****     if (ret <= 0) {
 261:C:/Users/stapi/OneDrive/Desktop/GD32VW553/V1_MQTT_OK/GD32VW55X_Wifi_BLE_SDK/GD32VW55x_RELEASE_V1.0.2/MSDK/cloud/alicloud/src/infra/system\report.c ****         VERSION_ERR("firmware version does not implement");
 262:C:/Users/stapi/OneDrive/Desktop/GD32VW553/V1_MQTT_OK/GD32VW55X_Wifi_BLE_SDK/GD32VW55x_RELEASE_V1.0.2/MSDK/cloud/alicloud/src/infra/system\report.c ****         return FAIL_RETURN;
 263:C:/Users/stapi/OneDrive/Desktop/GD32VW553/V1_MQTT_OK/GD32VW55X_Wifi_BLE_SDK/GD32VW55x_RELEASE_V1.0.2/MSDK/cloud/alicloud/src/infra/system\report.c ****     }
 264:C:/Users/stapi/OneDrive/Desktop/GD32VW553/V1_MQTT_OK/GD32VW55X_Wifi_BLE_SDK/GD32VW55x_RELEASE_V1.0.2/MSDK/cloud/alicloud/src/infra/system\report.c **** 
 265:C:/Users/stapi/OneDrive/Desktop/GD32VW553/V1_MQTT_OK/GD32VW55X_Wifi_BLE_SDK/GD32VW55x_RELEASE_V1.0.2/MSDK/cloud/alicloud/src/infra/system\report.c ****     VERSION_DEBUG("firmware version report start in MQTT");
 266:C:/Users/stapi/OneDrive/Desktop/GD32VW553/V1_MQTT_OK/GD32VW55X_Wifi_BLE_SDK/GD32VW55x_RELEASE_V1.0.2/MSDK/cloud/alicloud/src/infra/system\report.c **** 
 267:C:/Users/stapi/OneDrive/Desktop/GD32VW553/V1_MQTT_OK/GD32VW55X_Wifi_BLE_SDK/GD32VW55x_RELEASE_V1.0.2/MSDK/cloud/alicloud/src/infra/system\report.c ****     /* firmware report topic name generate */
 268:C:/Users/stapi/OneDrive/Desktop/GD32VW553/V1_MQTT_OK/GD32VW55X_Wifi_BLE_SDK/GD32VW55x_RELEASE_V1.0.2/MSDK/cloud/alicloud/src/infra/system\report.c ****     ret = HAL_Snprintf(topic_name,
 269:C:/Users/stapi/OneDrive/Desktop/GD32VW553/V1_MQTT_OK/GD32VW55X_Wifi_BLE_SDK/GD32VW55x_RELEASE_V1.0.2/MSDK/cloud/alicloud/src/infra/system\report.c ****                        IOTX_URI_MAX_LEN,
 270:C:/Users/stapi/OneDrive/Desktop/GD32VW553/V1_MQTT_OK/GD32VW55X_Wifi_BLE_SDK/GD32VW55x_RELEASE_V1.0.2/MSDK/cloud/alicloud/src/infra/system\report.c ****                        "/ota/device/inform/%s/%s",
 271:C:/Users/stapi/OneDrive/Desktop/GD32VW553/V1_MQTT_OK/GD32VW55X_Wifi_BLE_SDK/GD32VW55x_RELEASE_V1.0.2/MSDK/cloud/alicloud/src/infra/system\report.c ****                        dev.product_key,
 272:C:/Users/stapi/OneDrive/Desktop/GD32VW553/V1_MQTT_OK/GD32VW55X_Wifi_BLE_SDK/GD32VW55x_RELEASE_V1.0.2/MSDK/cloud/alicloud/src/infra/system\report.c ****                        dev.device_name
 273:C:/Users/stapi/OneDrive/Desktop/GD32VW553/V1_MQTT_OK/GD32VW55X_Wifi_BLE_SDK/GD32VW55x_RELEASE_V1.0.2/MSDK/cloud/alicloud/src/infra/system\report.c ****                       );
 274:C:/Users/stapi/OneDrive/Desktop/GD32VW553/V1_MQTT_OK/GD32VW55X_Wifi_BLE_SDK/GD32VW55x_RELEASE_V1.0.2/MSDK/cloud/alicloud/src/infra/system\report.c ****     if (ret <= 0) {
 275:C:/Users/stapi/OneDrive/Desktop/GD32VW553/V1_MQTT_OK/GD32VW55X_Wifi_BLE_SDK/GD32VW55x_RELEASE_V1.0.2/MSDK/cloud/alicloud/src/infra/system\report.c ****         VERSION_ERR("firmware report topic generate err");
 276:C:/Users/stapi/OneDrive/Desktop/GD32VW553/V1_MQTT_OK/GD32VW55X_Wifi_BLE_SDK/GD32VW55x_RELEASE_V1.0.2/MSDK/cloud/alicloud/src/infra/system\report.c ****         return FAIL_RETURN;
 277:C:/Users/stapi/OneDrive/Desktop/GD32VW553/V1_MQTT_OK/GD32VW55X_Wifi_BLE_SDK/GD32VW55x_RELEASE_V1.0.2/MSDK/cloud/alicloud/src/infra/system\report.c ****     }
 278:C:/Users/stapi/OneDrive/Desktop/GD32VW553/V1_MQTT_OK/GD32VW55X_Wifi_BLE_SDK/GD32VW55x_RELEASE_V1.0.2/MSDK/cloud/alicloud/src/infra/system\report.c ****     VERSION_DEBUG("firmware report topic: %s", topic_name);
 279:C:/Users/stapi/OneDrive/Desktop/GD32VW553/V1_MQTT_OK/GD32VW55X_Wifi_BLE_SDK/GD32VW55x_RELEASE_V1.0.2/MSDK/cloud/alicloud/src/infra/system\report.c **** 
 280:C:/Users/stapi/OneDrive/Desktop/GD32VW553/V1_MQTT_OK/GD32VW55X_Wifi_BLE_SDK/GD32VW55x_RELEASE_V1.0.2/MSDK/cloud/alicloud/src/infra/system\report.c **** #if defined (SUPPORT_MCU_OTA)
 281:C:/Users/stapi/OneDrive/Desktop/GD32VW553/V1_MQTT_OK/GD32VW55X_Wifi_BLE_SDK/GD32VW55x_RELEASE_V1.0.2/MSDK/cloud/alicloud/src/infra/system\report.c ****     char mcu_ver[16] = {0};
 282:C:/Users/stapi/OneDrive/Desktop/GD32VW553/V1_MQTT_OK/GD32VW55X_Wifi_BLE_SDK/GD32VW55x_RELEASE_V1.0.2/MSDK/cloud/alicloud/src/infra/system\report.c ****     int len = sizeof(mcu_ver);
 283:C:/Users/stapi/OneDrive/Desktop/GD32VW553/V1_MQTT_OK/GD32VW55X_Wifi_BLE_SDK/GD32VW55x_RELEASE_V1.0.2/MSDK/cloud/alicloud/src/infra/system\report.c ****     aos_kv_get("mcu_version", mcu_ver, &len);
 284:C:/Users/stapi/OneDrive/Desktop/GD32VW553/V1_MQTT_OK/GD32VW55X_Wifi_BLE_SDK/GD32VW55x_RELEASE_V1.0.2/MSDK/cloud/alicloud/src/infra/system\report.c ****     if (0 == strlen(mcu_ver)) {
 285:C:/Users/stapi/OneDrive/Desktop/GD32VW553/V1_MQTT_OK/GD32VW55X_Wifi_BLE_SDK/GD32VW55x_RELEASE_V1.0.2/MSDK/cloud/alicloud/src/infra/system\report.c ****         strcpy((char *)mcu_ver, "mcu-1.0.0");
 286:C:/Users/stapi/OneDrive/Desktop/GD32VW553/V1_MQTT_OK/GD32VW55X_Wifi_BLE_SDK/GD32VW55x_RELEASE_V1.0.2/MSDK/cloud/alicloud/src/infra/system\report.c ****         VERSION_ERR("use default MCU version:%s\n", mcu_ver);
 287:C:/Users/stapi/OneDrive/Desktop/GD32VW553/V1_MQTT_OK/GD32VW55X_Wifi_BLE_SDK/GD32VW55x_RELEASE_V1.0.2/MSDK/cloud/alicloud/src/infra/system\report.c ****     }
 288:C:/Users/stapi/OneDrive/Desktop/GD32VW553/V1_MQTT_OK/GD32VW55X_Wifi_BLE_SDK/GD32VW55x_RELEASE_V1.0.2/MSDK/cloud/alicloud/src/infra/system\report.c ****     /* firmware report message json data generate */
 289:C:/Users/stapi/OneDrive/Desktop/GD32VW553/V1_MQTT_OK/GD32VW55X_Wifi_BLE_SDK/GD32VW55x_RELEASE_V1.0.2/MSDK/cloud/alicloud/src/infra/system\report.c ****     ret = HAL_Snprintf(msg,
 290:C:/Users/stapi/OneDrive/Desktop/GD32VW553/V1_MQTT_OK/GD32VW55X_Wifi_BLE_SDK/GD32VW55x_RELEASE_V1.0.2/MSDK/cloud/alicloud/src/infra/system\report.c ****                        FIRMWARE_VERSION_MSG_LEN,
 291:C:/Users/stapi/OneDrive/Desktop/GD32VW553/V1_MQTT_OK/GD32VW55X_Wifi_BLE_SDK/GD32VW55x_RELEASE_V1.0.2/MSDK/cloud/alicloud/src/infra/system\report.c ****                        "{\"id\":\"%d\",\"params\":{\"version\":\"%s-%s\"}}",
 292:C:/Users/stapi/OneDrive/Desktop/GD32VW553/V1_MQTT_OK/GD32VW55X_Wifi_BLE_SDK/GD32VW55x_RELEASE_V1.0.2/MSDK/cloud/alicloud/src/infra/system\report.c ****                        iotx_report_id(),
 293:C:/Users/stapi/OneDrive/Desktop/GD32VW553/V1_MQTT_OK/GD32VW55X_Wifi_BLE_SDK/GD32VW55x_RELEASE_V1.0.2/MSDK/cloud/alicloud/src/infra/system\report.c ****                        mcu_ver, version
 294:C:/Users/stapi/OneDrive/Desktop/GD32VW553/V1_MQTT_OK/GD32VW55X_Wifi_BLE_SDK/GD32VW55x_RELEASE_V1.0.2/MSDK/cloud/alicloud/src/infra/system\report.c ****                       );
 295:C:/Users/stapi/OneDrive/Desktop/GD32VW553/V1_MQTT_OK/GD32VW55X_Wifi_BLE_SDK/GD32VW55x_RELEASE_V1.0.2/MSDK/cloud/alicloud/src/infra/system\report.c **** #else
 296:C:/Users/stapi/OneDrive/Desktop/GD32VW553/V1_MQTT_OK/GD32VW55X_Wifi_BLE_SDK/GD32VW55x_RELEASE_V1.0.2/MSDK/cloud/alicloud/src/infra/system\report.c ****     /* firmware report message json data generate */
 297:C:/Users/stapi/OneDrive/Desktop/GD32VW553/V1_MQTT_OK/GD32VW55X_Wifi_BLE_SDK/GD32VW55x_RELEASE_V1.0.2/MSDK/cloud/alicloud/src/infra/system\report.c ****     ret = HAL_Snprintf(msg,
 298:C:/Users/stapi/OneDrive/Desktop/GD32VW553/V1_MQTT_OK/GD32VW55X_Wifi_BLE_SDK/GD32VW55x_RELEASE_V1.0.2/MSDK/cloud/alicloud/src/infra/system\report.c ****                        FIRMWARE_VERSION_MSG_LEN,
 299:C:/Users/stapi/OneDrive/Desktop/GD32VW553/V1_MQTT_OK/GD32VW55X_Wifi_BLE_SDK/GD32VW55x_RELEASE_V1.0.2/MSDK/cloud/alicloud/src/infra/system\report.c ****                        "{\"id\":\"%d\",\"params\":{\"version\":\"%s\"}}",
 300:C:/Users/stapi/OneDrive/Desktop/GD32VW553/V1_MQTT_OK/GD32VW55X_Wifi_BLE_SDK/GD32VW55x_RELEASE_V1.0.2/MSDK/cloud/alicloud/src/infra/system\report.c ****                        iotx_report_id(),
 301:C:/Users/stapi/OneDrive/Desktop/GD32VW553/V1_MQTT_OK/GD32VW55X_Wifi_BLE_SDK/GD32VW55x_RELEASE_V1.0.2/MSDK/cloud/alicloud/src/infra/system\report.c ****                        version
 302:C:/Users/stapi/OneDrive/Desktop/GD32VW553/V1_MQTT_OK/GD32VW55X_Wifi_BLE_SDK/GD32VW55x_RELEASE_V1.0.2/MSDK/cloud/alicloud/src/infra/system\report.c ****                       );
 303:C:/Users/stapi/OneDrive/Desktop/GD32VW553/V1_MQTT_OK/GD32VW55X_Wifi_BLE_SDK/GD32VW55x_RELEASE_V1.0.2/MSDK/cloud/alicloud/src/infra/system\report.c **** #endif
 304:C:/Users/stapi/OneDrive/Desktop/GD32VW553/V1_MQTT_OK/GD32VW55X_Wifi_BLE_SDK/GD32VW55x_RELEASE_V1.0.2/MSDK/cloud/alicloud/src/infra/system\report.c ****     if (ret <= 0) {
 305:C:/Users/stapi/OneDrive/Desktop/GD32VW553/V1_MQTT_OK/GD32VW55X_Wifi_BLE_SDK/GD32VW55x_RELEASE_V1.0.2/MSDK/cloud/alicloud/src/infra/system\report.c ****         VERSION_ERR("firmware report message json data generate err");
 844              		.loc 1 305 9 is_stmt 0
 845 0068 97000000 		call	HAL_Printf
 845      E7800000 
 846              	.LVL98:
 847              		.loc 1 305 9 is_stmt 1
 848 0070 37050000 		lui	a0,%hi(.LC8)
 849 0074 13050500 		addi	a0,a0,%lo(.LC8)
 850 0078 97000000 		call	HAL_Printf
 850      E7800000 
 851              	.LVL99:
 852              		.loc 1 305 9
 306:C:/Users/stapi/OneDrive/Desktop/GD32VW553/V1_MQTT_OK/GD32VW55X_Wifi_BLE_SDK/GD32VW55x_RELEASE_V1.0.2/MSDK/cloud/alicloud/src/infra/system\report.c ****         return FAIL_RETURN;
 853              		.loc 1 306 9
 854              		.loc 1 306 16 is_stmt 0
 855 0080 7D54     		li	s0,-1
 856              	.L38:
 307:C:/Users/stapi/OneDrive/Desktop/GD32VW553/V1_MQTT_OK/GD32VW55X_Wifi_BLE_SDK/GD32VW55x_RELEASE_V1.0.2/MSDK/cloud/alicloud/src/infra/system\report.c ****     }
 308:C:/Users/stapi/OneDrive/Desktop/GD32VW553/V1_MQTT_OK/GD32VW55X_Wifi_BLE_SDK/GD32VW55x_RELEASE_V1.0.2/MSDK/cloud/alicloud/src/infra/system\report.c ****     VERSION_DEBUG("firmware report data: %s", msg);
 309:C:/Users/stapi/OneDrive/Desktop/GD32VW553/V1_MQTT_OK/GD32VW55X_Wifi_BLE_SDK/GD32VW55x_RELEASE_V1.0.2/MSDK/cloud/alicloud/src/infra/system\report.c **** 
 310:C:/Users/stapi/OneDrive/Desktop/GD32VW553/V1_MQTT_OK/GD32VW55X_Wifi_BLE_SDK/GD32VW55x_RELEASE_V1.0.2/MSDK/cloud/alicloud/src/infra/system\report.c ****     ret = info_report_func(pclient, topic_name, 1, msg, strlen(msg));
 311:C:/Users/stapi/OneDrive/Desktop/GD32VW553/V1_MQTT_OK/GD32VW55X_Wifi_BLE_SDK/GD32VW55x_RELEASE_V1.0.2/MSDK/cloud/alicloud/src/infra/system\report.c **** 
 312:C:/Users/stapi/OneDrive/Desktop/GD32VW553/V1_MQTT_OK/GD32VW55X_Wifi_BLE_SDK/GD32VW55x_RELEASE_V1.0.2/MSDK/cloud/alicloud/src/infra/system\report.c ****     if (ret < 0) {
 313:C:/Users/stapi/OneDrive/Desktop/GD32VW553/V1_MQTT_OK/GD32VW55X_Wifi_BLE_SDK/GD32VW55x_RELEASE_V1.0.2/MSDK/cloud/alicloud/src/infra/system\report.c ****         VERSION_ERR("publish failed");
 314:C:/Users/stapi/OneDrive/Desktop/GD32VW553/V1_MQTT_OK/GD32VW55X_Wifi_BLE_SDK/GD32VW55x_RELEASE_V1.0.2/MSDK/cloud/alicloud/src/infra/system\report.c ****         return ret;
 315:C:/Users/stapi/OneDrive/Desktop/GD32VW553/V1_MQTT_OK/GD32VW55X_Wifi_BLE_SDK/GD32VW55x_RELEASE_V1.0.2/MSDK/cloud/alicloud/src/infra/system\report.c ****     }
 316:C:/Users/stapi/OneDrive/Desktop/GD32VW553/V1_MQTT_OK/GD32VW55X_Wifi_BLE_SDK/GD32VW55x_RELEASE_V1.0.2/MSDK/cloud/alicloud/src/infra/system\report.c **** 
 317:C:/Users/stapi/OneDrive/Desktop/GD32VW553/V1_MQTT_OK/GD32VW55X_Wifi_BLE_SDK/GD32VW55x_RELEASE_V1.0.2/MSDK/cloud/alicloud/src/infra/system\report.c ****     VERSION_DEBUG("firmware version report finished, iotx_publish() = %d", ret);
 318:C:/Users/stapi/OneDrive/Desktop/GD32VW553/V1_MQTT_OK/GD32VW55X_Wifi_BLE_SDK/GD32VW55x_RELEASE_V1.0.2/MSDK/cloud/alicloud/src/infra/system\report.c ****     return SUCCESS_RETURN;
 319:C:/Users/stapi/OneDrive/Desktop/GD32VW553/V1_MQTT_OK/GD32VW55X_Wifi_BLE_SDK/GD32VW55x_RELEASE_V1.0.2/MSDK/cloud/alicloud/src/infra/system\report.c **** }
 857              		.loc 1 319 1
 858 0082 2285     		mv	a0,s0
 859 0084 13010123 		addi	sp,sp,560
 860              		.cfi_remember_state
 861              		.cfi_def_cfa_offset 0
 862 0088 17030000 		tail	__riscv_restore_3
 862      67000300 
 863              		.cfi_restore 18
 864              		.cfi_restore 9
 865              		.cfi_restore 8
 866              		.cfi_restore 1
 867              		.cfi_def_cfa_offset -16
 868              	.L39:
 869              		.cfi_restore_state
 252:C:/Users/stapi/OneDrive/Desktop/GD32VW553/V1_MQTT_OK/GD32VW55X_Wifi_BLE_SDK/GD32VW55x_RELEASE_V1.0.2/MSDK/cloud/alicloud/src/infra/system\report.c ****     ret = iotx_device_info_get(&dev);
 870              		.loc 1 252 5 is_stmt 1
 253:C:/Users/stapi/OneDrive/Desktop/GD32VW553/V1_MQTT_OK/GD32VW55X_Wifi_BLE_SDK/GD32VW55x_RELEASE_V1.0.2/MSDK/cloud/alicloud/src/infra/system\report.c ****     if (ret < 0) {
 871              		.loc 1 253 5
 253:C:/Users/stapi/OneDrive/Desktop/GD32VW553/V1_MQTT_OK/GD32VW55X_Wifi_BLE_SDK/GD32VW55x_RELEASE_V1.0.2/MSDK/cloud/alicloud/src/infra/system\report.c ****     if (ret < 0) {
 872              		.loc 1 253 11 is_stmt 0
 873 0090 C80A     		addi	a0,sp,340
 874 0092 97000000 		call	iotx_device_info_get
 874      E7800000 
 875              	.LVL100:
 876 009a 2A84     		mv	s0,a0
 877              	.LVL101:
 254:C:/Users/stapi/OneDrive/Desktop/GD32VW553/V1_MQTT_OK/GD32VW55X_Wifi_BLE_SDK/GD32VW55x_RELEASE_V1.0.2/MSDK/cloud/alicloud/src/infra/system\report.c ****         VERSION_ERR("get device info err");
 878              		.loc 1 254 5 is_stmt 1
 254:C:/Users/stapi/OneDrive/Desktop/GD32VW553/V1_MQTT_OK/GD32VW55X_Wifi_BLE_SDK/GD32VW55x_RELEASE_V1.0.2/MSDK/cloud/alicloud/src/infra/system\report.c ****         VERSION_ERR("get device info err");
 879              		.loc 1 254 8 is_stmt 0
 880 009c 635B0502 		bge	a0,zero,.L41
 255:C:/Users/stapi/OneDrive/Desktop/GD32VW553/V1_MQTT_OK/GD32VW55X_Wifi_BLE_SDK/GD32VW55x_RELEASE_V1.0.2/MSDK/cloud/alicloud/src/infra/system\report.c ****         return ret;
 881              		.loc 1 255 9 is_stmt 1
 255:C:/Users/stapi/OneDrive/Desktop/GD32VW553/V1_MQTT_OK/GD32VW55X_Wifi_BLE_SDK/GD32VW55x_RELEASE_V1.0.2/MSDK/cloud/alicloud/src/infra/system\report.c ****         return ret;
 882              		.loc 1 255 9
 883 00a0 37050000 		lui	a0,%hi(.LC6)
 884 00a4 13050500 		addi	a0,a0,%lo(.LC6)
 885 00a8 97000000 		call	HAL_Printf
 885      E7800000 
 886              	.LVL102:
 255:C:/Users/stapi/OneDrive/Desktop/GD32VW553/V1_MQTT_OK/GD32VW55X_Wifi_BLE_SDK/GD32VW55x_RELEASE_V1.0.2/MSDK/cloud/alicloud/src/infra/system\report.c ****         return ret;
 887              		.loc 1 255 9
 888 00b0 37050000 		lui	a0,%hi(.LC9)
 889 00b4 13050500 		addi	a0,a0,%lo(.LC9)
 890              	.L48:
 313:C:/Users/stapi/OneDrive/Desktop/GD32VW553/V1_MQTT_OK/GD32VW55X_Wifi_BLE_SDK/GD32VW55x_RELEASE_V1.0.2/MSDK/cloud/alicloud/src/infra/system\report.c ****         return ret;
 891              		.loc 1 313 9 is_stmt 0
 892 00b8 97000000 		call	HAL_Printf
 892      E7800000 
 893              	.LVL103:
 313:C:/Users/stapi/OneDrive/Desktop/GD32VW553/V1_MQTT_OK/GD32VW55X_Wifi_BLE_SDK/GD32VW55x_RELEASE_V1.0.2/MSDK/cloud/alicloud/src/infra/system\report.c ****         return ret;
 894              		.loc 1 313 9 is_stmt 1
 895 00c0 37050000 		lui	a0,%hi(.LC8)
 896 00c4 13050500 		addi	a0,a0,%lo(.LC8)
 897 00c8 97000000 		call	HAL_Printf
 897      E7800000 
 898              	.LVL104:
 313:C:/Users/stapi/OneDrive/Desktop/GD32VW553/V1_MQTT_OK/GD32VW55X_Wifi_BLE_SDK/GD32VW55x_RELEASE_V1.0.2/MSDK/cloud/alicloud/src/infra/system\report.c ****         return ret;
 899              		.loc 1 313 9
 314:C:/Users/stapi/OneDrive/Desktop/GD32VW553/V1_MQTT_OK/GD32VW55X_Wifi_BLE_SDK/GD32VW55x_RELEASE_V1.0.2/MSDK/cloud/alicloud/src/infra/system\report.c ****     }
 900              		.loc 1 314 9
 314:C:/Users/stapi/OneDrive/Desktop/GD32VW553/V1_MQTT_OK/GD32VW55X_Wifi_BLE_SDK/GD32VW55x_RELEASE_V1.0.2/MSDK/cloud/alicloud/src/infra/system\report.c ****     }
 901              		.loc 1 314 16 is_stmt 0
 902 00d0 4DBF     		j	.L38
 903              	.L41:
 259:C:/Users/stapi/OneDrive/Desktop/GD32VW553/V1_MQTT_OK/GD32VW55X_Wifi_BLE_SDK/GD32VW55x_RELEASE_V1.0.2/MSDK/cloud/alicloud/src/infra/system\report.c ****     if (ret <= 0) {
 904              		.loc 1 259 5 is_stmt 1
 259:C:/Users/stapi/OneDrive/Desktop/GD32VW553/V1_MQTT_OK/GD32VW55X_Wifi_BLE_SDK/GD32VW55x_RELEASE_V1.0.2/MSDK/cloud/alicloud/src/infra/system\report.c ****     if (ret <= 0) {
 905              		.loc 1 259 11 is_stmt 0
 906 00d2 2800     		addi	a0,sp,8
 907 00d4 97000000 		call	HAL_GetFirmwareVersion
 907      E7800000 
 908              	.LVL105:
 260:C:/Users/stapi/OneDrive/Desktop/GD32VW553/V1_MQTT_OK/GD32VW55X_Wifi_BLE_SDK/GD32VW55x_RELEASE_V1.0.2/MSDK/cloud/alicloud/src/infra/system\report.c ****         VERSION_ERR("firmware version does not implement");
 909              		.loc 1 260 5 is_stmt 1
 260:C:/Users/stapi/OneDrive/Desktop/GD32VW553/V1_MQTT_OK/GD32VW55X_Wifi_BLE_SDK/GD32VW55x_RELEASE_V1.0.2/MSDK/cloud/alicloud/src/infra/system\report.c ****         VERSION_ERR("firmware version does not implement");
 910              		.loc 1 260 8 is_stmt 0
 911 00dc 634FA000 		bgt	a0,zero,.L42
 261:C:/Users/stapi/OneDrive/Desktop/GD32VW553/V1_MQTT_OK/GD32VW55X_Wifi_BLE_SDK/GD32VW55x_RELEASE_V1.0.2/MSDK/cloud/alicloud/src/infra/system\report.c ****         return FAIL_RETURN;
 912              		.loc 1 261 9 is_stmt 1
 261:C:/Users/stapi/OneDrive/Desktop/GD32VW553/V1_MQTT_OK/GD32VW55X_Wifi_BLE_SDK/GD32VW55x_RELEASE_V1.0.2/MSDK/cloud/alicloud/src/infra/system\report.c ****         return FAIL_RETURN;
 913              		.loc 1 261 9
 914 00e0 37050000 		lui	a0,%hi(.LC6)
 915              	.LVL106:
 916 00e4 13050500 		addi	a0,a0,%lo(.LC6)
 917 00e8 97000000 		call	HAL_Printf
 917      E7800000 
 918              	.LVL107:
 261:C:/Users/stapi/OneDrive/Desktop/GD32VW553/V1_MQTT_OK/GD32VW55X_Wifi_BLE_SDK/GD32VW55x_RELEASE_V1.0.2/MSDK/cloud/alicloud/src/infra/system\report.c ****         return FAIL_RETURN;
 919              		.loc 1 261 9
 920 00f0 37050000 		lui	a0,%hi(.LC18)
 921 00f4 13050500 		addi	a0,a0,%lo(.LC18)
 922 00f8 85BF     		j	.L47
 923              	.LVL108:
 924              	.L42:
 265:C:/Users/stapi/OneDrive/Desktop/GD32VW553/V1_MQTT_OK/GD32VW55X_Wifi_BLE_SDK/GD32VW55x_RELEASE_V1.0.2/MSDK/cloud/alicloud/src/infra/system\report.c **** 
 925              		.loc 1 265 59
 268:C:/Users/stapi/OneDrive/Desktop/GD32VW553/V1_MQTT_OK/GD32VW55X_Wifi_BLE_SDK/GD32VW55x_RELEASE_V1.0.2/MSDK/cloud/alicloud/src/infra/system\report.c ****                        IOTX_URI_MAX_LEN,
 926              		.loc 1 268 5
 268:C:/Users/stapi/OneDrive/Desktop/GD32VW553/V1_MQTT_OK/GD32VW55X_Wifi_BLE_SDK/GD32VW55x_RELEASE_V1.0.2/MSDK/cloud/alicloud/src/infra/system\report.c ****                        IOTX_URI_MAX_LEN,
 927              		.loc 1 268 11 is_stmt 0
 928 00fa 37060000 		lui	a2,%hi(.LC19)
 929 00fe 13079116 		addi	a4,sp,361
 930 0102 D40A     		addi	a3,sp,340
 931 0104 13060600 		addi	a2,a2,%lo(.LC19)
 932 0108 93057008 		li	a1,135
 933 010c E801     		addi	a0,sp,204
 934              	.LVL109:
 935 010e 97000000 		call	HAL_Snprintf
 935      E7800000 
 936              	.LVL110:
 274:C:/Users/stapi/OneDrive/Desktop/GD32VW553/V1_MQTT_OK/GD32VW55X_Wifi_BLE_SDK/GD32VW55x_RELEASE_V1.0.2/MSDK/cloud/alicloud/src/infra/system\report.c ****         VERSION_ERR("firmware report topic generate err");
 937              		.loc 1 274 5 is_stmt 1
 274:C:/Users/stapi/OneDrive/Desktop/GD32VW553/V1_MQTT_OK/GD32VW55X_Wifi_BLE_SDK/GD32VW55x_RELEASE_V1.0.2/MSDK/cloud/alicloud/src/infra/system\report.c ****         VERSION_ERR("firmware report topic generate err");
 938              		.loc 1 274 8 is_stmt 0
 939 0116 634FA000 		bgt	a0,zero,.L43
 275:C:/Users/stapi/OneDrive/Desktop/GD32VW553/V1_MQTT_OK/GD32VW55X_Wifi_BLE_SDK/GD32VW55x_RELEASE_V1.0.2/MSDK/cloud/alicloud/src/infra/system\report.c ****         return FAIL_RETURN;
 940              		.loc 1 275 9 is_stmt 1
 275:C:/Users/stapi/OneDrive/Desktop/GD32VW553/V1_MQTT_OK/GD32VW55X_Wifi_BLE_SDK/GD32VW55x_RELEASE_V1.0.2/MSDK/cloud/alicloud/src/infra/system\report.c ****         return FAIL_RETURN;
 941              		.loc 1 275 9
 942 011a 37050000 		lui	a0,%hi(.LC6)
 943              	.LVL111:
 944 011e 13050500 		addi	a0,a0,%lo(.LC6)
 945 0122 97000000 		call	HAL_Printf
 945      E7800000 
 946              	.LVL112:
 275:C:/Users/stapi/OneDrive/Desktop/GD32VW553/V1_MQTT_OK/GD32VW55X_Wifi_BLE_SDK/GD32VW55x_RELEASE_V1.0.2/MSDK/cloud/alicloud/src/infra/system\report.c ****         return FAIL_RETURN;
 947              		.loc 1 275 9
 948 012a 37050000 		lui	a0,%hi(.LC20)
 949 012e 13050500 		addi	a0,a0,%lo(.LC20)
 950 0132 1DBF     		j	.L47
 951              	.LVL113:
 952              	.L43:
 278:C:/Users/stapi/OneDrive/Desktop/GD32VW553/V1_MQTT_OK/GD32VW55X_Wifi_BLE_SDK/GD32VW55x_RELEASE_V1.0.2/MSDK/cloud/alicloud/src/infra/system\report.c **** 
 953              		.loc 1 278 59
 297:C:/Users/stapi/OneDrive/Desktop/GD32VW553/V1_MQTT_OK/GD32VW55X_Wifi_BLE_SDK/GD32VW55x_RELEASE_V1.0.2/MSDK/cloud/alicloud/src/infra/system\report.c ****                        FIRMWARE_VERSION_MSG_LEN,
 954              		.loc 1 297 5
 297:C:/Users/stapi/OneDrive/Desktop/GD32VW553/V1_MQTT_OK/GD32VW55X_Wifi_BLE_SDK/GD32VW55x_RELEASE_V1.0.2/MSDK/cloud/alicloud/src/infra/system\report.c ****                        FIRMWARE_VERSION_MSG_LEN,
 955              		.loc 1 297 11 is_stmt 0
 956 0134 97000000 		call	iotx_report_id
 956      E7800000 
 957              	.LVL114:
 958 013c 37060000 		lui	a2,%hi(.LC21)
 959 0140 AA86     		mv	a3,a0
 960 0142 3800     		addi	a4,sp,8
 961 0144 13060600 		addi	a2,a2,%lo(.LC21)
 962 0148 93050008 		li	a1,128
 963 014c E800     		addi	a0,sp,76
 964 014e 97000000 		call	HAL_Snprintf
 964      E7800000 
 965              	.LVL115:
 304:C:/Users/stapi/OneDrive/Desktop/GD32VW553/V1_MQTT_OK/GD32VW55X_Wifi_BLE_SDK/GD32VW55x_RELEASE_V1.0.2/MSDK/cloud/alicloud/src/infra/system\report.c ****         VERSION_ERR("firmware report message json data generate err");
 966              		.loc 1 304 5 is_stmt 1
 304:C:/Users/stapi/OneDrive/Desktop/GD32VW553/V1_MQTT_OK/GD32VW55X_Wifi_BLE_SDK/GD32VW55x_RELEASE_V1.0.2/MSDK/cloud/alicloud/src/infra/system\report.c ****         VERSION_ERR("firmware report message json data generate err");
 967              		.loc 1 304 8 is_stmt 0
 968 0156 634FA000 		bgt	a0,zero,.L44
 305:C:/Users/stapi/OneDrive/Desktop/GD32VW553/V1_MQTT_OK/GD32VW55X_Wifi_BLE_SDK/GD32VW55x_RELEASE_V1.0.2/MSDK/cloud/alicloud/src/infra/system\report.c ****         return FAIL_RETURN;
 969              		.loc 1 305 9 is_stmt 1
 305:C:/Users/stapi/OneDrive/Desktop/GD32VW553/V1_MQTT_OK/GD32VW55X_Wifi_BLE_SDK/GD32VW55x_RELEASE_V1.0.2/MSDK/cloud/alicloud/src/infra/system\report.c ****         return FAIL_RETURN;
 970              		.loc 1 305 9
 971 015a 37050000 		lui	a0,%hi(.LC6)
 972              	.LVL116:
 973 015e 13050500 		addi	a0,a0,%lo(.LC6)
 974 0162 97000000 		call	HAL_Printf
 974      E7800000 
 975              	.LVL117:
 305:C:/Users/stapi/OneDrive/Desktop/GD32VW553/V1_MQTT_OK/GD32VW55X_Wifi_BLE_SDK/GD32VW55x_RELEASE_V1.0.2/MSDK/cloud/alicloud/src/infra/system\report.c ****         return FAIL_RETURN;
 976              		.loc 1 305 9
 977 016a 37050000 		lui	a0,%hi(.LC22)
 978 016e 13050500 		addi	a0,a0,%lo(.LC22)
 979 0172 DDBD     		j	.L47
 980              	.LVL118:
 981              	.L44:
 308:C:/Users/stapi/OneDrive/Desktop/GD32VW553/V1_MQTT_OK/GD32VW55X_Wifi_BLE_SDK/GD32VW55x_RELEASE_V1.0.2/MSDK/cloud/alicloud/src/infra/system\report.c **** 
 982              		.loc 1 308 51
 310:C:/Users/stapi/OneDrive/Desktop/GD32VW553/V1_MQTT_OK/GD32VW55X_Wifi_BLE_SDK/GD32VW55x_RELEASE_V1.0.2/MSDK/cloud/alicloud/src/infra/system\report.c **** 
 983              		.loc 1 310 5
 310:C:/Users/stapi/OneDrive/Desktop/GD32VW553/V1_MQTT_OK/GD32VW55X_Wifi_BLE_SDK/GD32VW55x_RELEASE_V1.0.2/MSDK/cloud/alicloud/src/infra/system\report.c **** 
 984              		.loc 1 310 57 is_stmt 0
 985 0174 E800     		addi	a0,sp,76
 986              	.LVL119:
 987 0176 97000000 		call	strlen
 987      E7800000 
 988              	.LVL120:
 310:C:/Users/stapi/OneDrive/Desktop/GD32VW553/V1_MQTT_OK/GD32VW55X_Wifi_BLE_SDK/GD32VW55x_RELEASE_V1.0.2/MSDK/cloud/alicloud/src/infra/system\report.c **** 
 989              		.loc 1 310 11
 990 017e 9C40     		lw	a5,0(s1)
 310:C:/Users/stapi/OneDrive/Desktop/GD32VW553/V1_MQTT_OK/GD32VW55X_Wifi_BLE_SDK/GD32VW55x_RELEASE_V1.0.2/MSDK/cloud/alicloud/src/infra/system\report.c **** 
 991              		.loc 1 310 57
 992 0180 2A87     		mv	a4,a0
 310:C:/Users/stapi/OneDrive/Desktop/GD32VW553/V1_MQTT_OK/GD32VW55X_Wifi_BLE_SDK/GD32VW55x_RELEASE_V1.0.2/MSDK/cloud/alicloud/src/infra/system\report.c **** 
 993              		.loc 1 310 11
 994 0182 F400     		addi	a3,sp,76
 995 0184 0546     		li	a2,1
 996 0186 EC01     		addi	a1,sp,204
 997 0188 4A85     		mv	a0,s2
 998 018a 8297     		jalr	a5
 999              	.LVL121:
 1000 018c 2A84     		mv	s0,a0
 1001              	.LVL122:
 312:C:/Users/stapi/OneDrive/Desktop/GD32VW553/V1_MQTT_OK/GD32VW55X_Wifi_BLE_SDK/GD32VW55x_RELEASE_V1.0.2/MSDK/cloud/alicloud/src/infra/system\report.c ****         VERSION_ERR("publish failed");
 1002              		.loc 1 312 5 is_stmt 1
 312:C:/Users/stapi/OneDrive/Desktop/GD32VW553/V1_MQTT_OK/GD32VW55X_Wifi_BLE_SDK/GD32VW55x_RELEASE_V1.0.2/MSDK/cloud/alicloud/src/infra/system\report.c ****         VERSION_ERR("publish failed");
 1003              		.loc 1 312 8 is_stmt 0
 1004 018e 635F0500 		bge	a0,zero,.L45
 313:C:/Users/stapi/OneDrive/Desktop/GD32VW553/V1_MQTT_OK/GD32VW55X_Wifi_BLE_SDK/GD32VW55x_RELEASE_V1.0.2/MSDK/cloud/alicloud/src/infra/system\report.c ****         return ret;
 1005              		.loc 1 313 9 is_stmt 1
 313:C:/Users/stapi/OneDrive/Desktop/GD32VW553/V1_MQTT_OK/GD32VW55X_Wifi_BLE_SDK/GD32VW55x_RELEASE_V1.0.2/MSDK/cloud/alicloud/src/infra/system\report.c ****         return ret;
 1006              		.loc 1 313 9
 1007 0192 37050000 		lui	a0,%hi(.LC6)
 1008 0196 13050500 		addi	a0,a0,%lo(.LC6)
 1009 019a 97000000 		call	HAL_Printf
 1009      E7800000 
 1010              	.LVL123:
 313:C:/Users/stapi/OneDrive/Desktop/GD32VW553/V1_MQTT_OK/GD32VW55X_Wifi_BLE_SDK/GD32VW55x_RELEASE_V1.0.2/MSDK/cloud/alicloud/src/infra/system\report.c ****         return ret;
 1011              		.loc 1 313 9
 1012 01a2 37050000 		lui	a0,%hi(.LC23)
 1013 01a6 13050500 		addi	a0,a0,%lo(.LC23)
 1014 01aa 39B7     		j	.L48
 1015              	.L45:
 318:C:/Users/stapi/OneDrive/Desktop/GD32VW553/V1_MQTT_OK/GD32VW55X_Wifi_BLE_SDK/GD32VW55x_RELEASE_V1.0.2/MSDK/cloud/alicloud/src/infra/system\report.c **** }
 1016              		.loc 1 318 12 is_stmt 0
 1017 01ac 0144     		li	s0,0
 1018              	.LVL124:
 1019 01ae D1BD     		j	.L38
 1020              		.cfi_endproc
 1021              	.LFE29:
 1023              		.section	.rodata.iotx_report_connect_status.str1.4,"aMS",@progbits,1
 1024              		.align	2
 1025              	.LC24:
 1026 0000 544C5300 		.string	"TLS"
 1027              		.align	2
 1028              	.LC25:
 1029 0004 74696D65 		.string	"time=%d^conn_type=%s^conn_cost=%d^conn_ret=0"
 1029      3D25645E 
 1029      636F6E6E 
 1029      5F747970 
 1029      653D2573 
 1030 0031 000000   		.align	2
 1031              	.LC26:
 1032 0034 6E65745F 		.string	"net_conn"
 1032      636F6E6E 
 1032      00
 1033 003d 000000   		.align	2
 1034              	.LC27:
 1035 0040 70636C69 		.string	"pclient"
 1035      656E7400 
 1036              		.section	.text.iotx_report_connect_status,"ax",@progbits
 1037              		.align	1
 1038              		.globl	iotx_report_connect_status
 1040              	iotx_report_connect_status:
 1041              	.LFB30:
 320:C:/Users/stapi/OneDrive/Desktop/GD32VW553/V1_MQTT_OK/GD32VW55X_Wifi_BLE_SDK/GD32VW55x_RELEASE_V1.0.2/MSDK/cloud/alicloud/src/infra/system\report.c **** 
 321:C:/Users/stapi/OneDrive/Desktop/GD32VW553/V1_MQTT_OK/GD32VW55X_Wifi_BLE_SDK/GD32VW55x_RELEASE_V1.0.2/MSDK/cloud/alicloud/src/infra/system\report.c **** void iotx_report_connect_status(void* pclient, uint32_t conn_cost){
 1042              		.loc 1 321 67 is_stmt 1
 1043              		.cfi_startproc
 1044              	.LVL125:
 1045 0000 17030000 		call	t0,__riscv_save_1
 1045      E7020300 
 1046              		.cfi_offset 8, -8
 1047              		.cfi_offset 1, -4
 1048              		.cfi_def_cfa_offset 16
 322:C:/Users/stapi/OneDrive/Desktop/GD32VW553/V1_MQTT_OK/GD32VW55X_Wifi_BLE_SDK/GD32VW55x_RELEASE_V1.0.2/MSDK/cloud/alicloud/src/infra/system\report.c ****     char msg[100] = {0};
 1049              		.loc 1 322 5
 321:C:/Users/stapi/OneDrive/Desktop/GD32VW553/V1_MQTT_OK/GD32VW55X_Wifi_BLE_SDK/GD32VW55x_RELEASE_V1.0.2/MSDK/cloud/alicloud/src/infra/system\report.c ****     char msg[100] = {0};
 1050              		.loc 1 321 67 is_stmt 0
 1051 0008 1971     		addi	sp,sp,-128
 1052              		.cfi_def_cfa_offset 144
 1053              		.loc 1 322 10
 1054 000a 13060006 		li	a2,96
 321:C:/Users/stapi/OneDrive/Desktop/GD32VW553/V1_MQTT_OK/GD32VW55X_Wifi_BLE_SDK/GD32VW55x_RELEASE_V1.0.2/MSDK/cloud/alicloud/src/infra/system\report.c ****     char msg[100] = {0};
 1055              		.loc 1 321 67
 1056 000e 2EC6     		sw	a1,12(sp)
 1057 0010 2A84     		mv	s0,a0
 1058              		.loc 1 322 10
 1059 0012 8145     		li	a1,0
 1060              	.LVL126:
 1061 0014 0810     		addi	a0,sp,32
 1062              	.LVL127:
 1063 0016 02CE     		sw	zero,28(sp)
 1064 0018 97000000 		call	memset
 1064      E7800000 
 1065              	.LVL128:
 323:C:/Users/stapi/OneDrive/Desktop/GD32VW553/V1_MQTT_OK/GD32VW55X_Wifi_BLE_SDK/GD32VW55x_RELEASE_V1.0.2/MSDK/cloud/alicloud/src/infra/system\report.c ****     char *sec_mod_str = NULL;
 1066              		.loc 1 323 5 is_stmt 1
 324:C:/Users/stapi/OneDrive/Desktop/GD32VW553/V1_MQTT_OK/GD32VW55X_Wifi_BLE_SDK/GD32VW55x_RELEASE_V1.0.2/MSDK/cloud/alicloud/src/infra/system\report.c ****     int ret = 0;
 1067              		.loc 1 324 5
 325:C:/Users/stapi/OneDrive/Desktop/GD32VW553/V1_MQTT_OK/GD32VW55X_Wifi_BLE_SDK/GD32VW55x_RELEASE_V1.0.2/MSDK/cloud/alicloud/src/infra/system\report.c **** #ifdef SUPPORT_TLS
 326:C:/Users/stapi/OneDrive/Desktop/GD32VW553/V1_MQTT_OK/GD32VW55X_Wifi_BLE_SDK/GD32VW55x_RELEASE_V1.0.2/MSDK/cloud/alicloud/src/infra/system\report.c ****      sec_mod_str = "TLS";
 1068              		.loc 1 326 6
 327:C:/Users/stapi/OneDrive/Desktop/GD32VW553/V1_MQTT_OK/GD32VW55X_Wifi_BLE_SDK/GD32VW55x_RELEASE_V1.0.2/MSDK/cloud/alicloud/src/infra/system\report.c **** #else
 328:C:/Users/stapi/OneDrive/Desktop/GD32VW553/V1_MQTT_OK/GD32VW55X_Wifi_BLE_SDK/GD32VW55x_RELEASE_V1.0.2/MSDK/cloud/alicloud/src/infra/system\report.c ****      sec_mod_str = "TCP";
 329:C:/Users/stapi/OneDrive/Desktop/GD32VW553/V1_MQTT_OK/GD32VW55X_Wifi_BLE_SDK/GD32VW55x_RELEASE_V1.0.2/MSDK/cloud/alicloud/src/infra/system\report.c **** #endif
 330:C:/Users/stapi/OneDrive/Desktop/GD32VW553/V1_MQTT_OK/GD32VW55X_Wifi_BLE_SDK/GD32VW55x_RELEASE_V1.0.2/MSDK/cloud/alicloud/src/infra/system\report.c **** 
 331:C:/Users/stapi/OneDrive/Desktop/GD32VW553/V1_MQTT_OK/GD32VW55X_Wifi_BLE_SDK/GD32VW55x_RELEASE_V1.0.2/MSDK/cloud/alicloud/src/infra/system\report.c ****     ret = HAL_Snprintf(msg,
 1069              		.loc 1 331 5
 332:C:/Users/stapi/OneDrive/Desktop/GD32VW553/V1_MQTT_OK/GD32VW55X_Wifi_BLE_SDK/GD32VW55x_RELEASE_V1.0.2/MSDK/cloud/alicloud/src/infra/system\report.c ****                        sizeof(msg),
 333:C:/Users/stapi/OneDrive/Desktop/GD32VW553/V1_MQTT_OK/GD32VW55X_Wifi_BLE_SDK/GD32VW55x_RELEASE_V1.0.2/MSDK/cloud/alicloud/src/infra/system\report.c ****                        "time=%d^conn_type=%s^conn_cost=%d^conn_ret=0", (uint32_t)HAL_UptimeMs(), se
 1070              		.loc 1 333 82 is_stmt 0
 1071 0020 97000000 		call	HAL_UptimeMs
 1071      E7800000 
 1072              	.LVL129:
 331:C:/Users/stapi/OneDrive/Desktop/GD32VW553/V1_MQTT_OK/GD32VW55X_Wifi_BLE_SDK/GD32VW55x_RELEASE_V1.0.2/MSDK/cloud/alicloud/src/infra/system\report.c ****                        sizeof(msg),
 1073              		.loc 1 331 11
 1074 0028 B247     		lw	a5,12(sp)
 1075 002a 37070000 		lui	a4,%hi(.LC24)
 1076 002e 37060000 		lui	a2,%hi(.LC25)
 1077              		.loc 1 333 82
 1078 0032 AA86     		mv	a3,a0
 331:C:/Users/stapi/OneDrive/Desktop/GD32VW553/V1_MQTT_OK/GD32VW55X_Wifi_BLE_SDK/GD32VW55x_RELEASE_V1.0.2/MSDK/cloud/alicloud/src/infra/system\report.c ****                        sizeof(msg),
 1079              		.loc 1 331 11
 1080 0034 13070700 		addi	a4,a4,%lo(.LC24)
 1081 0038 13060600 		addi	a2,a2,%lo(.LC25)
 1082 003c 93054006 		li	a1,100
 1083 0040 6808     		addi	a0,sp,28
 1084 0042 97000000 		call	HAL_Snprintf
 1084      E7800000 
 1085              	.LVL130:
 334:C:/Users/stapi/OneDrive/Desktop/GD32VW553/V1_MQTT_OK/GD32VW55X_Wifi_BLE_SDK/GD32VW55x_RELEASE_V1.0.2/MSDK/cloud/alicloud/src/infra/system\report.c ****     if(ret < 0) {
 1086              		.loc 1 334 5 is_stmt 1
 1087              		.loc 1 334 7 is_stmt 0
 1088 004a 63400502 		blt	a0,zero,.L49
 335:C:/Users/stapi/OneDrive/Desktop/GD32VW553/V1_MQTT_OK/GD32VW55X_Wifi_BLE_SDK/GD32VW55x_RELEASE_V1.0.2/MSDK/cloud/alicloud/src/infra/system\report.c ****        return;
 336:C:/Users/stapi/OneDrive/Desktop/GD32VW553/V1_MQTT_OK/GD32VW55X_Wifi_BLE_SDK/GD32VW55x_RELEASE_V1.0.2/MSDK/cloud/alicloud/src/infra/system\report.c ****     }
 337:C:/Users/stapi/OneDrive/Desktop/GD32VW553/V1_MQTT_OK/GD32VW55X_Wifi_BLE_SDK/GD32VW55x_RELEASE_V1.0.2/MSDK/cloud/alicloud/src/infra/system\report.c ****     IOT_MQTT_LogPost(pclient, "pclient", "net_conn",msg);
 1089              		.loc 1 337 5 is_stmt 1
 1090 004e 37060000 		lui	a2,%hi(.LC26)
 1091 0052 B7050000 		lui	a1,%hi(.LC27)
 1092 0056 7408     		addi	a3,sp,28
 1093 0058 13060600 		addi	a2,a2,%lo(.LC26)
 1094 005c 93850500 		addi	a1,a1,%lo(.LC27)
 1095 0060 2285     		mv	a0,s0
 1096              	.LVL131:
 1097 0062 97000000 		call	IOT_MQTT_LogPost
 1097      E7800000 
 1098              	.LVL132:
 1099              	.L49:
 338:C:/Users/stapi/OneDrive/Desktop/GD32VW553/V1_MQTT_OK/GD32VW55X_Wifi_BLE_SDK/GD32VW55x_RELEASE_V1.0.2/MSDK/cloud/alicloud/src/infra/system\report.c **** }
 1100              		.loc 1 338 1 is_stmt 0
 1101 006a 0961     		addi	sp,sp,128
 1102              		.cfi_def_cfa_offset 0
 1103              	.LVL133:
 1104 006c 17030000 		tail	__riscv_restore_1
 1104      67000300 
 1105              		.cfi_restore 8
 1106              		.cfi_restore 1
 1107              		.cfi_def_cfa_offset -16
 1108              		.cfi_endproc
 1109              	.LFE30:
 1111              		.section	.rodata.iotx_report_mid.str1.4,"aMS",@progbits,1
 1112              		.align	2
 1113              	.LC28:
 1114 0000 5B696E66 		.string	"[inf] "
 1114      5D2000
 1115 0007 00       		.align	2
 1116              	.LC29:
 1117 0008 4E6F2072 		.string	"No report MID because which has been reported within client id"
 1117      65706F72 
 1117      74204D49 
 1117      44206265 
 1117      63617573 
 1118              		.section	.text.iotx_report_mid,"ax",@progbits
 1119              		.align	1
 1120              		.globl	iotx_report_mid
 1122              	iotx_report_mid:
 1123              	.LFB31:
 339:C:/Users/stapi/OneDrive/Desktop/GD32VW553/V1_MQTT_OK/GD32VW55X_Wifi_BLE_SDK/GD32VW55x_RELEASE_V1.0.2/MSDK/cloud/alicloud/src/infra/system\report.c **** 
 340:C:/Users/stapi/OneDrive/Desktop/GD32VW553/V1_MQTT_OK/GD32VW55X_Wifi_BLE_SDK/GD32VW55x_RELEASE_V1.0.2/MSDK/cloud/alicloud/src/infra/system\report.c **** /* report ModuleID */
 341:C:/Users/stapi/OneDrive/Desktop/GD32VW553/V1_MQTT_OK/GD32VW55X_Wifi_BLE_SDK/GD32VW55x_RELEASE_V1.0.2/MSDK/cloud/alicloud/src/infra/system\report.c **** int iotx_report_mid(void *pclient)
 342:C:/Users/stapi/OneDrive/Desktop/GD32VW553/V1_MQTT_OK/GD32VW55X_Wifi_BLE_SDK/GD32VW55x_RELEASE_V1.0.2/MSDK/cloud/alicloud/src/infra/system\report.c **** {
 1124              		.loc 1 342 1 is_stmt 1
 1125              		.cfi_startproc
 1126              	.LVL134:
 1127 0000 17030000 		call	t0,__riscv_save_0
 1127      E7020300 
 1128              		.cfi_offset 1, -4
 1129              		.cfi_def_cfa_offset 16
 343:C:/Users/stapi/OneDrive/Desktop/GD32VW553/V1_MQTT_OK/GD32VW55X_Wifi_BLE_SDK/GD32VW55x_RELEASE_V1.0.2/MSDK/cloud/alicloud/src/infra/system\report.c **** #if 0  //No report MID because which has been reported within client id
 344:C:/Users/stapi/OneDrive/Desktop/GD32VW553/V1_MQTT_OK/GD32VW55X_Wifi_BLE_SDK/GD32VW55x_RELEASE_V1.0.2/MSDK/cloud/alicloud/src/infra/system\report.c ****     int                         ret;
 345:C:/Users/stapi/OneDrive/Desktop/GD32VW553/V1_MQTT_OK/GD32VW55X_Wifi_BLE_SDK/GD32VW55x_RELEASE_V1.0.2/MSDK/cloud/alicloud/src/infra/system\report.c ****     char                        topic_name[IOTX_URI_MAX_LEN + 1];
 346:C:/Users/stapi/OneDrive/Desktop/GD32VW553/V1_MQTT_OK/GD32VW55X_Wifi_BLE_SDK/GD32VW55x_RELEASE_V1.0.2/MSDK/cloud/alicloud/src/infra/system\report.c ****     iotx_mqtt_topic_info_t      topic_info;
 347:C:/Users/stapi/OneDrive/Desktop/GD32VW553/V1_MQTT_OK/GD32VW55X_Wifi_BLE_SDK/GD32VW55x_RELEASE_V1.0.2/MSDK/cloud/alicloud/src/infra/system\report.c ****     char                        requestId[MIDREPORT_REQID_LEN + 1] = {0};
 348:C:/Users/stapi/OneDrive/Desktop/GD32VW553/V1_MQTT_OK/GD32VW55X_Wifi_BLE_SDK/GD32VW55x_RELEASE_V1.0.2/MSDK/cloud/alicloud/src/infra/system\report.c ****     char                        pid[PID_STRLEN_MAX + 1] = {0};
 349:C:/Users/stapi/OneDrive/Desktop/GD32VW553/V1_MQTT_OK/GD32VW55X_Wifi_BLE_SDK/GD32VW55x_RELEASE_V1.0.2/MSDK/cloud/alicloud/src/infra/system\report.c ****     char                        mid[MID_STRLEN_MAX + 1] = {0};
 350:C:/Users/stapi/OneDrive/Desktop/GD32VW553/V1_MQTT_OK/GD32VW55X_Wifi_BLE_SDK/GD32VW55x_RELEASE_V1.0.2/MSDK/cloud/alicloud/src/infra/system\report.c **** 
 351:C:/Users/stapi/OneDrive/Desktop/GD32VW553/V1_MQTT_OK/GD32VW55X_Wifi_BLE_SDK/GD32VW55x_RELEASE_V1.0.2/MSDK/cloud/alicloud/src/infra/system\report.c ****     if (info_report_func == NULL) {
 352:C:/Users/stapi/OneDrive/Desktop/GD32VW553/V1_MQTT_OK/GD32VW55X_Wifi_BLE_SDK/GD32VW55x_RELEASE_V1.0.2/MSDK/cloud/alicloud/src/infra/system\report.c ****         VERSION_ERR("report func not register!");
 353:C:/Users/stapi/OneDrive/Desktop/GD32VW553/V1_MQTT_OK/GD32VW55X_Wifi_BLE_SDK/GD32VW55x_RELEASE_V1.0.2/MSDK/cloud/alicloud/src/infra/system\report.c ****         return -1;
 354:C:/Users/stapi/OneDrive/Desktop/GD32VW553/V1_MQTT_OK/GD32VW55X_Wifi_BLE_SDK/GD32VW55x_RELEASE_V1.0.2/MSDK/cloud/alicloud/src/infra/system\report.c ****     }
 355:C:/Users/stapi/OneDrive/Desktop/GD32VW553/V1_MQTT_OK/GD32VW55X_Wifi_BLE_SDK/GD32VW55x_RELEASE_V1.0.2/MSDK/cloud/alicloud/src/infra/system\report.c **** 
 356:C:/Users/stapi/OneDrive/Desktop/GD32VW553/V1_MQTT_OK/GD32VW55X_Wifi_BLE_SDK/GD32VW55x_RELEASE_V1.0.2/MSDK/cloud/alicloud/src/infra/system\report.c ****     iotx_device_info_t dev;
 357:C:/Users/stapi/OneDrive/Desktop/GD32VW553/V1_MQTT_OK/GD32VW55X_Wifi_BLE_SDK/GD32VW55x_RELEASE_V1.0.2/MSDK/cloud/alicloud/src/infra/system\report.c ****     ret = iotx_device_info_get(&dev);
 358:C:/Users/stapi/OneDrive/Desktop/GD32VW553/V1_MQTT_OK/GD32VW55X_Wifi_BLE_SDK/GD32VW55x_RELEASE_V1.0.2/MSDK/cloud/alicloud/src/infra/system\report.c ****     if (ret < 0) {
 359:C:/Users/stapi/OneDrive/Desktop/GD32VW553/V1_MQTT_OK/GD32VW55X_Wifi_BLE_SDK/GD32VW55x_RELEASE_V1.0.2/MSDK/cloud/alicloud/src/infra/system\report.c ****         VERSION_ERR("get device info err");
 360:C:/Users/stapi/OneDrive/Desktop/GD32VW553/V1_MQTT_OK/GD32VW55X_Wifi_BLE_SDK/GD32VW55x_RELEASE_V1.0.2/MSDK/cloud/alicloud/src/infra/system\report.c ****         return ret;
 361:C:/Users/stapi/OneDrive/Desktop/GD32VW553/V1_MQTT_OK/GD32VW55X_Wifi_BLE_SDK/GD32VW55x_RELEASE_V1.0.2/MSDK/cloud/alicloud/src/infra/system\report.c ****     }
 362:C:/Users/stapi/OneDrive/Desktop/GD32VW553/V1_MQTT_OK/GD32VW55X_Wifi_BLE_SDK/GD32VW55x_RELEASE_V1.0.2/MSDK/cloud/alicloud/src/infra/system\report.c **** 
 363:C:/Users/stapi/OneDrive/Desktop/GD32VW553/V1_MQTT_OK/GD32VW55X_Wifi_BLE_SDK/GD32VW55x_RELEASE_V1.0.2/MSDK/cloud/alicloud/src/infra/system\report.c ****     memset(pid, 0, sizeof(pid));
 364:C:/Users/stapi/OneDrive/Desktop/GD32VW553/V1_MQTT_OK/GD32VW55X_Wifi_BLE_SDK/GD32VW55x_RELEASE_V1.0.2/MSDK/cloud/alicloud/src/infra/system\report.c ****     memset(mid, 0, sizeof(mid));
 365:C:/Users/stapi/OneDrive/Desktop/GD32VW553/V1_MQTT_OK/GD32VW55X_Wifi_BLE_SDK/GD32VW55x_RELEASE_V1.0.2/MSDK/cloud/alicloud/src/infra/system\report.c **** 
 366:C:/Users/stapi/OneDrive/Desktop/GD32VW553/V1_MQTT_OK/GD32VW55X_Wifi_BLE_SDK/GD32VW55x_RELEASE_V1.0.2/MSDK/cloud/alicloud/src/infra/system\report.c ****     if (0 == HAL_GetPartnerID(pid)) {
 367:C:/Users/stapi/OneDrive/Desktop/GD32VW553/V1_MQTT_OK/GD32VW55X_Wifi_BLE_SDK/GD32VW55x_RELEASE_V1.0.2/MSDK/cloud/alicloud/src/infra/system\report.c ****         VERSION_DEBUG("PartnerID is Null");
 368:C:/Users/stapi/OneDrive/Desktop/GD32VW553/V1_MQTT_OK/GD32VW55X_Wifi_BLE_SDK/GD32VW55x_RELEASE_V1.0.2/MSDK/cloud/alicloud/src/infra/system\report.c ****         return SUCCESS_RETURN;
 369:C:/Users/stapi/OneDrive/Desktop/GD32VW553/V1_MQTT_OK/GD32VW55X_Wifi_BLE_SDK/GD32VW55x_RELEASE_V1.0.2/MSDK/cloud/alicloud/src/infra/system\report.c ****     }
 370:C:/Users/stapi/OneDrive/Desktop/GD32VW553/V1_MQTT_OK/GD32VW55X_Wifi_BLE_SDK/GD32VW55x_RELEASE_V1.0.2/MSDK/cloud/alicloud/src/infra/system\report.c ****     if (0 == HAL_GetModuleID(mid)) {
 371:C:/Users/stapi/OneDrive/Desktop/GD32VW553/V1_MQTT_OK/GD32VW55X_Wifi_BLE_SDK/GD32VW55x_RELEASE_V1.0.2/MSDK/cloud/alicloud/src/infra/system\report.c ****         VERSION_DEBUG("ModuleID is Null");
 372:C:/Users/stapi/OneDrive/Desktop/GD32VW553/V1_MQTT_OK/GD32VW55X_Wifi_BLE_SDK/GD32VW55x_RELEASE_V1.0.2/MSDK/cloud/alicloud/src/infra/system\report.c ****         return SUCCESS_RETURN;
 373:C:/Users/stapi/OneDrive/Desktop/GD32VW553/V1_MQTT_OK/GD32VW55X_Wifi_BLE_SDK/GD32VW55x_RELEASE_V1.0.2/MSDK/cloud/alicloud/src/infra/system\report.c ****     }
 374:C:/Users/stapi/OneDrive/Desktop/GD32VW553/V1_MQTT_OK/GD32VW55X_Wifi_BLE_SDK/GD32VW55x_RELEASE_V1.0.2/MSDK/cloud/alicloud/src/infra/system\report.c **** 
 375:C:/Users/stapi/OneDrive/Desktop/GD32VW553/V1_MQTT_OK/GD32VW55X_Wifi_BLE_SDK/GD32VW55x_RELEASE_V1.0.2/MSDK/cloud/alicloud/src/infra/system\report.c ****     VERSION_DEBUG("MID Report: started in MQTT");
 376:C:/Users/stapi/OneDrive/Desktop/GD32VW553/V1_MQTT_OK/GD32VW55X_Wifi_BLE_SDK/GD32VW55x_RELEASE_V1.0.2/MSDK/cloud/alicloud/src/infra/system\report.c **** 
 377:C:/Users/stapi/OneDrive/Desktop/GD32VW553/V1_MQTT_OK/GD32VW55X_Wifi_BLE_SDK/GD32VW55x_RELEASE_V1.0.2/MSDK/cloud/alicloud/src/infra/system\report.c ****     iotx_midreport_reqid(requestId,
 378:C:/Users/stapi/OneDrive/Desktop/GD32VW553/V1_MQTT_OK/GD32VW55X_Wifi_BLE_SDK/GD32VW55x_RELEASE_V1.0.2/MSDK/cloud/alicloud/src/infra/system\report.c ****                          dev.product_key,
 379:C:/Users/stapi/OneDrive/Desktop/GD32VW553/V1_MQTT_OK/GD32VW55X_Wifi_BLE_SDK/GD32VW55x_RELEASE_V1.0.2/MSDK/cloud/alicloud/src/infra/system\report.c ****                          dev.device_name);
 380:C:/Users/stapi/OneDrive/Desktop/GD32VW553/V1_MQTT_OK/GD32VW55X_Wifi_BLE_SDK/GD32VW55x_RELEASE_V1.0.2/MSDK/cloud/alicloud/src/infra/system\report.c ****     /* 1,generate json data */
 381:C:/Users/stapi/OneDrive/Desktop/GD32VW553/V1_MQTT_OK/GD32VW55X_Wifi_BLE_SDK/GD32VW55x_RELEASE_V1.0.2/MSDK/cloud/alicloud/src/infra/system\report.c ****     char *msg = SYS_REPORT_MALLOC(MIDREPORT_PAYLOAD_LEN);
 382:C:/Users/stapi/OneDrive/Desktop/GD32VW553/V1_MQTT_OK/GD32VW55X_Wifi_BLE_SDK/GD32VW55x_RELEASE_V1.0.2/MSDK/cloud/alicloud/src/infra/system\report.c ****     if (NULL == msg) {
 383:C:/Users/stapi/OneDrive/Desktop/GD32VW553/V1_MQTT_OK/GD32VW55X_Wifi_BLE_SDK/GD32VW55x_RELEASE_V1.0.2/MSDK/cloud/alicloud/src/infra/system\report.c ****         VERSION_ERR("allocate mem failed");
 384:C:/Users/stapi/OneDrive/Desktop/GD32VW553/V1_MQTT_OK/GD32VW55X_Wifi_BLE_SDK/GD32VW55x_RELEASE_V1.0.2/MSDK/cloud/alicloud/src/infra/system\report.c ****         return FAIL_RETURN;
 385:C:/Users/stapi/OneDrive/Desktop/GD32VW553/V1_MQTT_OK/GD32VW55X_Wifi_BLE_SDK/GD32VW55x_RELEASE_V1.0.2/MSDK/cloud/alicloud/src/infra/system\report.c ****     }
 386:C:/Users/stapi/OneDrive/Desktop/GD32VW553/V1_MQTT_OK/GD32VW55X_Wifi_BLE_SDK/GD32VW55x_RELEASE_V1.0.2/MSDK/cloud/alicloud/src/infra/system\report.c **** 
 387:C:/Users/stapi/OneDrive/Desktop/GD32VW553/V1_MQTT_OK/GD32VW55X_Wifi_BLE_SDK/GD32VW55x_RELEASE_V1.0.2/MSDK/cloud/alicloud/src/infra/system\report.c ****     iotx_midreport_payload(msg,
 388:C:/Users/stapi/OneDrive/Desktop/GD32VW553/V1_MQTT_OK/GD32VW55X_Wifi_BLE_SDK/GD32VW55x_RELEASE_V1.0.2/MSDK/cloud/alicloud/src/infra/system\report.c ****                            requestId,
 389:C:/Users/stapi/OneDrive/Desktop/GD32VW553/V1_MQTT_OK/GD32VW55X_Wifi_BLE_SDK/GD32VW55x_RELEASE_V1.0.2/MSDK/cloud/alicloud/src/infra/system\report.c ****                            mid,
 390:C:/Users/stapi/OneDrive/Desktop/GD32VW553/V1_MQTT_OK/GD32VW55X_Wifi_BLE_SDK/GD32VW55x_RELEASE_V1.0.2/MSDK/cloud/alicloud/src/infra/system\report.c ****                            pid);
 391:C:/Users/stapi/OneDrive/Desktop/GD32VW553/V1_MQTT_OK/GD32VW55X_Wifi_BLE_SDK/GD32VW55x_RELEASE_V1.0.2/MSDK/cloud/alicloud/src/infra/system\report.c **** 
 392:C:/Users/stapi/OneDrive/Desktop/GD32VW553/V1_MQTT_OK/GD32VW55X_Wifi_BLE_SDK/GD32VW55x_RELEASE_V1.0.2/MSDK/cloud/alicloud/src/infra/system\report.c ****     VERSION_DEBUG("MID Report: json data = '%s'", msg);
 393:C:/Users/stapi/OneDrive/Desktop/GD32VW553/V1_MQTT_OK/GD32VW55X_Wifi_BLE_SDK/GD32VW55x_RELEASE_V1.0.2/MSDK/cloud/alicloud/src/infra/system\report.c **** 
 394:C:/Users/stapi/OneDrive/Desktop/GD32VW553/V1_MQTT_OK/GD32VW55X_Wifi_BLE_SDK/GD32VW55x_RELEASE_V1.0.2/MSDK/cloud/alicloud/src/infra/system\report.c ****     memset(&topic_info, 0, sizeof(iotx_mqtt_topic_info_t));
 395:C:/Users/stapi/OneDrive/Desktop/GD32VW553/V1_MQTT_OK/GD32VW55X_Wifi_BLE_SDK/GD32VW55x_RELEASE_V1.0.2/MSDK/cloud/alicloud/src/infra/system\report.c **** 
 396:C:/Users/stapi/OneDrive/Desktop/GD32VW553/V1_MQTT_OK/GD32VW55X_Wifi_BLE_SDK/GD32VW55x_RELEASE_V1.0.2/MSDK/cloud/alicloud/src/infra/system\report.c ****     ret = iotx_midreport_topic(topic_name,
 397:C:/Users/stapi/OneDrive/Desktop/GD32VW553/V1_MQTT_OK/GD32VW55X_Wifi_BLE_SDK/GD32VW55x_RELEASE_V1.0.2/MSDK/cloud/alicloud/src/infra/system\report.c ****                                "",
 398:C:/Users/stapi/OneDrive/Desktop/GD32VW553/V1_MQTT_OK/GD32VW55X_Wifi_BLE_SDK/GD32VW55x_RELEASE_V1.0.2/MSDK/cloud/alicloud/src/infra/system\report.c ****                                dev.product_key,
 399:C:/Users/stapi/OneDrive/Desktop/GD32VW553/V1_MQTT_OK/GD32VW55X_Wifi_BLE_SDK/GD32VW55x_RELEASE_V1.0.2/MSDK/cloud/alicloud/src/infra/system\report.c ****                                dev.device_name);
 400:C:/Users/stapi/OneDrive/Desktop/GD32VW553/V1_MQTT_OK/GD32VW55X_Wifi_BLE_SDK/GD32VW55x_RELEASE_V1.0.2/MSDK/cloud/alicloud/src/infra/system\report.c **** 
 401:C:/Users/stapi/OneDrive/Desktop/GD32VW553/V1_MQTT_OK/GD32VW55X_Wifi_BLE_SDK/GD32VW55x_RELEASE_V1.0.2/MSDK/cloud/alicloud/src/infra/system\report.c ****     VERSION_DEBUG("MID Report: topic name = '%s'", topic_name);
 402:C:/Users/stapi/OneDrive/Desktop/GD32VW553/V1_MQTT_OK/GD32VW55X_Wifi_BLE_SDK/GD32VW55x_RELEASE_V1.0.2/MSDK/cloud/alicloud/src/infra/system\report.c **** 
 403:C:/Users/stapi/OneDrive/Desktop/GD32VW553/V1_MQTT_OK/GD32VW55X_Wifi_BLE_SDK/GD32VW55x_RELEASE_V1.0.2/MSDK/cloud/alicloud/src/infra/system\report.c ****     if (ret < 0) {
 404:C:/Users/stapi/OneDrive/Desktop/GD32VW553/V1_MQTT_OK/GD32VW55X_Wifi_BLE_SDK/GD32VW55x_RELEASE_V1.0.2/MSDK/cloud/alicloud/src/infra/system\report.c ****         VERSION_ERR("generate topic name of info failed");
 405:C:/Users/stapi/OneDrive/Desktop/GD32VW553/V1_MQTT_OK/GD32VW55X_Wifi_BLE_SDK/GD32VW55x_RELEASE_V1.0.2/MSDK/cloud/alicloud/src/infra/system\report.c ****         SYS_REPORT_FREE(msg);
 406:C:/Users/stapi/OneDrive/Desktop/GD32VW553/V1_MQTT_OK/GD32VW55X_Wifi_BLE_SDK/GD32VW55x_RELEASE_V1.0.2/MSDK/cloud/alicloud/src/infra/system\report.c ****         return FAIL_RETURN;
 407:C:/Users/stapi/OneDrive/Desktop/GD32VW553/V1_MQTT_OK/GD32VW55X_Wifi_BLE_SDK/GD32VW55x_RELEASE_V1.0.2/MSDK/cloud/alicloud/src/infra/system\report.c ****     }
 408:C:/Users/stapi/OneDrive/Desktop/GD32VW553/V1_MQTT_OK/GD32VW55X_Wifi_BLE_SDK/GD32VW55x_RELEASE_V1.0.2/MSDK/cloud/alicloud/src/infra/system\report.c **** 
 409:C:/Users/stapi/OneDrive/Desktop/GD32VW553/V1_MQTT_OK/GD32VW55X_Wifi_BLE_SDK/GD32VW55x_RELEASE_V1.0.2/MSDK/cloud/alicloud/src/infra/system\report.c ****     ret = info_report_func(pclient, topic_name, 1, msg, strlen(msg));
 410:C:/Users/stapi/OneDrive/Desktop/GD32VW553/V1_MQTT_OK/GD32VW55X_Wifi_BLE_SDK/GD32VW55x_RELEASE_V1.0.2/MSDK/cloud/alicloud/src/infra/system\report.c ****     if (ret < 0) {
 411:C:/Users/stapi/OneDrive/Desktop/GD32VW553/V1_MQTT_OK/GD32VW55X_Wifi_BLE_SDK/GD32VW55x_RELEASE_V1.0.2/MSDK/cloud/alicloud/src/infra/system\report.c ****         VERSION_ERR("publish failed, ret = %d", ret);
 412:C:/Users/stapi/OneDrive/Desktop/GD32VW553/V1_MQTT_OK/GD32VW55X_Wifi_BLE_SDK/GD32VW55x_RELEASE_V1.0.2/MSDK/cloud/alicloud/src/infra/system\report.c ****         SYS_REPORT_FREE(msg);
 413:C:/Users/stapi/OneDrive/Desktop/GD32VW553/V1_MQTT_OK/GD32VW55X_Wifi_BLE_SDK/GD32VW55x_RELEASE_V1.0.2/MSDK/cloud/alicloud/src/infra/system\report.c ****         return FAIL_RETURN;
 414:C:/Users/stapi/OneDrive/Desktop/GD32VW553/V1_MQTT_OK/GD32VW55X_Wifi_BLE_SDK/GD32VW55x_RELEASE_V1.0.2/MSDK/cloud/alicloud/src/infra/system\report.c ****     }
 415:C:/Users/stapi/OneDrive/Desktop/GD32VW553/V1_MQTT_OK/GD32VW55X_Wifi_BLE_SDK/GD32VW55x_RELEASE_V1.0.2/MSDK/cloud/alicloud/src/infra/system\report.c **** 
 416:C:/Users/stapi/OneDrive/Desktop/GD32VW553/V1_MQTT_OK/GD32VW55X_Wifi_BLE_SDK/GD32VW55x_RELEASE_V1.0.2/MSDK/cloud/alicloud/src/infra/system\report.c ****     SYS_REPORT_FREE(msg);
 417:C:/Users/stapi/OneDrive/Desktop/GD32VW553/V1_MQTT_OK/GD32VW55X_Wifi_BLE_SDK/GD32VW55x_RELEASE_V1.0.2/MSDK/cloud/alicloud/src/infra/system\report.c **** 
 418:C:/Users/stapi/OneDrive/Desktop/GD32VW553/V1_MQTT_OK/GD32VW55X_Wifi_BLE_SDK/GD32VW55x_RELEASE_V1.0.2/MSDK/cloud/alicloud/src/infra/system\report.c ****     VERSION_DEBUG("MID Report: finished, IOT_MQTT_Publish() = %d", ret);
 419:C:/Users/stapi/OneDrive/Desktop/GD32VW553/V1_MQTT_OK/GD32VW55X_Wifi_BLE_SDK/GD32VW55x_RELEASE_V1.0.2/MSDK/cloud/alicloud/src/infra/system\report.c **** #else
 420:C:/Users/stapi/OneDrive/Desktop/GD32VW553/V1_MQTT_OK/GD32VW55X_Wifi_BLE_SDK/GD32VW55x_RELEASE_V1.0.2/MSDK/cloud/alicloud/src/infra/system\report.c ****     VERSION_INFO("No report MID because which has been reported within client id");
 1130              		.loc 1 420 5
 1131              		.loc 1 420 5
 1132 0008 37050000 		lui	a0,%hi(.LC28)
 1133              	.LVL135:
 1134 000c 13050500 		addi	a0,a0,%lo(.LC28)
 1135 0010 97000000 		call	HAL_Printf
 1135      E7800000 
 1136              	.LVL136:
 1137              		.loc 1 420 5
 1138 0018 37050000 		lui	a0,%hi(.LC29)
 1139 001c 13050500 		addi	a0,a0,%lo(.LC29)
 1140 0020 97000000 		call	HAL_Printf
 1140      E7800000 
 1141              	.LVL137:
 1142              		.loc 1 420 5
 1143 0028 37050000 		lui	a0,%hi(.LC8)
 1144 002c 13050500 		addi	a0,a0,%lo(.LC8)
 1145 0030 97000000 		call	HAL_Printf
 1145      E7800000 
 1146              	.LVL138:
 1147              		.loc 1 420 5
 421:C:/Users/stapi/OneDrive/Desktop/GD32VW553/V1_MQTT_OK/GD32VW55X_Wifi_BLE_SDK/GD32VW55x_RELEASE_V1.0.2/MSDK/cloud/alicloud/src/infra/system\report.c **** #endif
 422:C:/Users/stapi/OneDrive/Desktop/GD32VW553/V1_MQTT_OK/GD32VW55X_Wifi_BLE_SDK/GD32VW55x_RELEASE_V1.0.2/MSDK/cloud/alicloud/src/infra/system\report.c **** 
 423:C:/Users/stapi/OneDrive/Desktop/GD32VW553/V1_MQTT_OK/GD32VW55X_Wifi_BLE_SDK/GD32VW55x_RELEASE_V1.0.2/MSDK/cloud/alicloud/src/infra/system\report.c ****     return SUCCESS_RETURN;
 1148              		.loc 1 423 5
 424:C:/Users/stapi/OneDrive/Desktop/GD32VW553/V1_MQTT_OK/GD32VW55X_Wifi_BLE_SDK/GD32VW55x_RELEASE_V1.0.2/MSDK/cloud/alicloud/src/infra/system\report.c **** }
 1149              		.loc 1 424 1 is_stmt 0
 1150 0038 0145     		li	a0,0
 1151 003a 17030000 		tail	__riscv_restore_0
 1151      67000300 
 1152              		.cfi_restore 1
 1153              		.cfi_def_cfa_offset 0
 1154              		.cfi_endproc
 1155              	.LFE31:
 1157              		.globl	DEVICE_INFO_UPDATE_FMT
 1158              		.section	.rodata.str1.4,"aMS",@progbits,1
 1159              		.align	2
 1160              	.LC30:
 1161 0000 7B226964 		.ascii	"{\"id\":\"%d\",\"version\":\"1.0\",\"params\":[{\"attrKey\":"
 1161      223A2225 
 1161      64222C22 
 1161      76657273 
 1161      696F6E22 
 1162 0030 22535953 		.ascii	"\"SYS_ALIOS_ACTIVATION\",\"attrValue\":\"%"
 1162      5F414C49 
 1162      4F535F41 
 1162      43544956 
 1162      4154494F 
 1163 0055 73222C22 		.string	"s\",\"domain\":\"SYSTEM\"},{\"attrKey\":\"SYS_LP_SDK_VERSION\",\"attrValue\":\"%s\",\"dom
 1163      646F6D61 
 1163      696E223A 
 1163      22535953 
 1163      54454D22 
 1164              		.globl	g_report_id
 1165              		.section	.sbss.g_report_id,"aw",@nobits
 1166              		.align	2
 1167              		.set	.LANCHOR0,. + 0
 1170              	g_report_id:
 1171 0000 00000000 		.zero	4
 1172              		.section	.sbss.info_report_func,"aw",@nobits
 1173              		.align	2
 1174              		.set	.LANCHOR1,. + 0
 1177              	info_report_func:
 1178 0000 00000000 		.zero	4
 1179              		.section	.sdata.DEVICE_INFO_UPDATE_FMT,"aw"
 1180              		.align	2
 1181              		.set	.LANCHOR2,. + 0
 1184              	DEVICE_INFO_UPDATE_FMT:
 1185 0000 00000000 		.word	.LC30
 1186              		.text
 1187              	.Letext0:
 1188              		.file 2 "c:\\users\\stapi\\onedrive\\desktop\\gd32vw553\\embeddedbuilder_v1.4.7.26843\\tools\\nucl
 1189              		.file 3 "c:\\users\\stapi\\onedrive\\desktop\\gd32vw553\\embeddedbuilder_v1.4.7.26843\\tools\\nucl
 1190              		.file 4 "..\\..\\..\\..\\cloud\\alicloud\\include/iot_export.h"
 1191              		.file 5 "..\\..\\..\\..\\cloud\\alicloud\\src\\infra\\utils\\misc/utils_sysinfo.h"
 1192              		.file 6 "C:/Users/stapi/OneDrive/Desktop/GD32VW553/V1_MQTT_OK/GD32VW55X_Wifi_BLE_SDK/GD32VW55x_REL
 1193              		.file 7 "..\\..\\..\\..\\cloud\\alicloud\\include/iot_import.h"
 1194              		.file 8 "..\\..\\..\\..\\cloud\\alicloud\\include/exports/iot_export_mqtt.h"
 1195              		.file 9 "C:/Users/stapi/OneDrive/Desktop/GD32VW553/V1_MQTT_OK/GD32VW55X_Wifi_BLE_SDK/GD32VW55x_REL
 1196              		.file 10 "..\\..\\..\\..\\cloud\\alicloud\\include/imports/iot_import_product.h"
 1197              		.file 11 "c:\\users\\stapi\\onedrive\\desktop\\gd32vw553\\embeddedbuilder_v1.4.7.26843\\tools\\nuc
 1198              		.file 12 "..\\..\\..\\..\\cloud\\alicloud\\src\\infra\\utils/iotx_utils.h"
 1199              		.file 13 "<built-in>"
 1200              		.file 14 "..\\..\\..\\..\\cloud\\alicloud\\include/exports/iot_export_errno.h"
DEFINED SYMBOLS
                            *ABS*:0000000000000000 report.c
C:\Users\stapi\AppData\Local\Temp\ccr4dOYe.s:13     .text.iotx_report_id:0000000000000000 iotx_report_id
C:\Users\stapi\AppData\Local\Temp\ccr4dOYe.s:17     .text.iotx_report_id:0000000000000000 .L0 
C:\Users\stapi\AppData\Local\Temp\ccr4dOYe.s:18     .text.iotx_report_id:0000000000000000 .L0 
C:\Users\stapi\AppData\Local\Temp\ccr4dOYe.s:19     .text.iotx_report_id:0000000000000000 .L0 
C:\Users\stapi\AppData\Local\Temp\ccr4dOYe.s:20     .text.iotx_report_id:0000000000000000 .L0 
C:\Users\stapi\AppData\Local\Temp\ccr4dOYe.s:26     .text.iotx_report_id:0000000000000010 .L0 
C:\Users\stapi\AppData\Local\Temp\ccr4dOYe.s:27     .text.iotx_report_id:0000000000000012 .L0 
C:\Users\stapi\AppData\Local\Temp\ccr4dOYe.s:38     .text.iotx_midreport_reqid:0000000000000000 iotx_midreport_reqid
C:\Users\stapi\AppData\Local\Temp\ccr4dOYe.s:41     .text.iotx_midreport_reqid:0000000000000000 .L0 
C:\Users\stapi\AppData\Local\Temp\ccr4dOYe.s:43     .text.iotx_midreport_reqid:0000000000000000 .L0 
C:\Users\stapi\AppData\Local\Temp\ccr4dOYe.s:44     .text.iotx_midreport_reqid:0000000000000008 .L0 
C:\Users\stapi\AppData\Local\Temp\ccr4dOYe.s:45     .text.iotx_midreport_reqid:0000000000000008 .L0 
C:\Users\stapi\AppData\Local\Temp\ccr4dOYe.s:46     .text.iotx_midreport_reqid:0000000000000008 .L0 
C:\Users\stapi\AppData\Local\Temp\ccr4dOYe.s:48     .text.iotx_midreport_reqid:0000000000000008 .L0 
C:\Users\stapi\AppData\Local\Temp\ccr4dOYe.s:49     .text.iotx_midreport_reqid:0000000000000008 .L0 
C:\Users\stapi\AppData\Local\Temp\ccr4dOYe.s:50     .text.iotx_midreport_reqid:0000000000000008 .L0 
C:\Users\stapi\AppData\Local\Temp\ccr4dOYe.s:52     .text.iotx_midreport_reqid:000000000000000a .L0 
C:\Users\stapi\AppData\Local\Temp\ccr4dOYe.s:62     .text.iotx_midreport_reqid:000000000000002a .L0 
C:\Users\stapi\AppData\Local\Temp\ccr4dOYe.s:63     .text.iotx_midreport_reqid:000000000000002a .L0 
C:\Users\stapi\AppData\Local\Temp\ccr4dOYe.s:64     .text.iotx_midreport_reqid:0000000000000032 .L0 
C:\Users\stapi\AppData\Local\Temp\ccr4dOYe.s:65     .text.iotx_midreport_reqid:0000000000000032 .L0 
C:\Users\stapi\AppData\Local\Temp\ccr4dOYe.s:66     .text.iotx_midreport_reqid:0000000000000032 .L0 
C:\Users\stapi\AppData\Local\Temp\ccr4dOYe.s:67     .text.iotx_midreport_reqid:0000000000000032 .L0 
C:\Users\stapi\AppData\Local\Temp\ccr4dOYe.s:78     .text.iotx_midreport_payload:0000000000000000 iotx_midreport_payload
C:\Users\stapi\AppData\Local\Temp\ccr4dOYe.s:81     .text.iotx_midreport_payload:0000000000000000 .L0 
C:\Users\stapi\AppData\Local\Temp\ccr4dOYe.s:83     .text.iotx_midreport_payload:0000000000000000 .L0 
C:\Users\stapi\AppData\Local\Temp\ccr4dOYe.s:84     .text.iotx_midreport_payload:0000000000000000 .L0 
C:\Users\stapi\AppData\Local\Temp\ccr4dOYe.s:85     .text.iotx_midreport_payload:0000000000000000 .L0 
C:\Users\stapi\AppData\Local\Temp\ccr4dOYe.s:86     .text.iotx_midreport_payload:0000000000000000 .L0 
C:\Users\stapi\AppData\Local\Temp\ccr4dOYe.s:88     .text.iotx_midreport_payload:0000000000000002 .L0 
C:\Users\stapi\AppData\Local\Temp\ccr4dOYe.s:91     .text.iotx_midreport_payload:0000000000000006 .L0 
C:\Users\stapi\AppData\Local\Temp\ccr4dOYe.s:93     .text.iotx_midreport_payload:0000000000000008 .L0 
C:\Users\stapi\AppData\Local\Temp\ccr4dOYe.s:101    .text.iotx_midreport_payload:000000000000001a .L0 
C:\Users\stapi\AppData\Local\Temp\ccr4dOYe.s:112    .text.iotx_midreport_topic:0000000000000000 iotx_midreport_topic
C:\Users\stapi\AppData\Local\Temp\ccr4dOYe.s:114    .text.iotx_midreport_topic:0000000000000000 .L0 
C:\Users\stapi\AppData\Local\Temp\ccr4dOYe.s:115    .text.iotx_midreport_topic:0000000000000000 .L0 
C:\Users\stapi\AppData\Local\Temp\ccr4dOYe.s:117    .text.iotx_midreport_topic:0000000000000000 .L0 
C:\Users\stapi\AppData\Local\Temp\ccr4dOYe.s:118    .text.iotx_midreport_topic:0000000000000000 .L0 
C:\Users\stapi\AppData\Local\Temp\ccr4dOYe.s:119    .text.iotx_midreport_topic:0000000000000000 .L0 
C:\Users\stapi\AppData\Local\Temp\ccr4dOYe.s:120    .text.iotx_midreport_topic:0000000000000000 .L0 
C:\Users\stapi\AppData\Local\Temp\ccr4dOYe.s:122    .text.iotx_midreport_topic:0000000000000002 .L0 
C:\Users\stapi\AppData\Local\Temp\ccr4dOYe.s:125    .text.iotx_midreport_topic:0000000000000006 .L0 
C:\Users\stapi\AppData\Local\Temp\ccr4dOYe.s:127    .text.iotx_midreport_topic:0000000000000008 .L0 
C:\Users\stapi\AppData\Local\Temp\ccr4dOYe.s:135    .text.iotx_midreport_topic:000000000000001a .L0 
C:\Users\stapi\AppData\Local\Temp\ccr4dOYe.s:142    .text.iotx_set_report_func:0000000000000000 iotx_set_report_func
C:\Users\stapi\AppData\Local\Temp\ccr4dOYe.s:144    .text.iotx_set_report_func:0000000000000000 .L0 
C:\Users\stapi\AppData\Local\Temp\ccr4dOYe.s:145    .text.iotx_set_report_func:0000000000000000 .L0 
C:\Users\stapi\AppData\Local\Temp\ccr4dOYe.s:147    .text.iotx_set_report_func:0000000000000000 .L0 
C:\Users\stapi\AppData\Local\Temp\ccr4dOYe.s:148    .text.iotx_set_report_func:0000000000000000 .L0 
C:\Users\stapi\AppData\Local\Temp\ccr4dOYe.s:149    .text.iotx_set_report_func:0000000000000000 .L0 
C:\Users\stapi\AppData\Local\Temp\ccr4dOYe.s:152    .text.iotx_set_report_func:0000000000000008 .L0 
C:\Users\stapi\AppData\Local\Temp\ccr4dOYe.s:153    .text.iotx_set_report_func:000000000000000a .L0 
C:\Users\stapi\AppData\Local\Temp\ccr4dOYe.s:164    .text.aos_get_version_hex:0000000000000000 aos_get_version_hex
C:\Users\stapi\AppData\Local\Temp\ccr4dOYe.s:167    .text.aos_get_version_hex:0000000000000000 .L0 
C:\Users\stapi\AppData\Local\Temp\ccr4dOYe.s:169    .text.aos_get_version_hex:0000000000000000 .L0 
C:\Users\stapi\AppData\Local\Temp\ccr4dOYe.s:170    .text.aos_get_version_hex:0000000000000000 .L0 
C:\Users\stapi\AppData\Local\Temp\ccr4dOYe.s:171    .text.aos_get_version_hex:0000000000000000 .L0 
C:\Users\stapi\AppData\Local\Temp\ccr4dOYe.s:172    .text.aos_get_version_hex:0000000000000000 .L0 
C:\Users\stapi\AppData\Local\Temp\ccr4dOYe.s:173    .text.aos_get_version_hex:0000000000000000 .L0 
C:\Users\stapi\AppData\Local\Temp\ccr4dOYe.s:174    .text.aos_get_version_hex:0000000000000000 .L0 
C:\Users\stapi\AppData\Local\Temp\ccr4dOYe.s:175    .text.aos_get_version_hex:0000000000000000 .L0 
C:\Users\stapi\AppData\Local\Temp\ccr4dOYe.s:177    .text.aos_get_version_hex:0000000000000004 .L0 
C:\Users\stapi\AppData\Local\Temp\ccr4dOYe.s:179    .text.aos_get_version_hex:0000000000000006 .L0 
C:\Users\stapi\AppData\Local\Temp\ccr4dOYe.s:181    .text.aos_get_version_hex:0000000000000008 .L0 
C:\Users\stapi\AppData\Local\Temp\ccr4dOYe.s:183    .text.aos_get_version_hex:000000000000000c .L0 
C:\Users\stapi\AppData\Local\Temp\ccr4dOYe.s:185    .text.aos_get_version_hex:000000000000000e .L0 
C:\Users\stapi\AppData\Local\Temp\ccr4dOYe.s:187    .text.aos_get_version_hex:0000000000000010 .L0 
C:\Users\stapi\AppData\Local\Temp\ccr4dOYe.s:191    .text.aos_get_version_hex:0000000000000012 .L0 
C:\Users\stapi\AppData\Local\Temp\ccr4dOYe.s:196    .text.aos_get_version_hex:0000000000000016 .L0 
C:\Users\stapi\AppData\Local\Temp\ccr4dOYe.s:198    .text.aos_get_version_hex:000000000000001a .L0 
C:\Users\stapi\AppData\Local\Temp\ccr4dOYe.s:203    .text.aos_get_version_hex:0000000000000022 .L0 
C:\Users\stapi\AppData\Local\Temp\ccr4dOYe.s:204    .text.aos_get_version_hex:0000000000000022 .L0 
C:\Users\stapi\AppData\Local\Temp\ccr4dOYe.s:205    .text.aos_get_version_hex:0000000000000022 .L0 
C:\Users\stapi\AppData\Local\Temp\ccr4dOYe.s:207    .text.aos_get_version_hex:0000000000000026 .L0 
C:\Users\stapi\AppData\Local\Temp\ccr4dOYe.s:209    .text.aos_get_version_hex:000000000000002a .L0 
C:\Users\stapi\AppData\Local\Temp\ccr4dOYe.s:212    .text.aos_get_version_hex:000000000000002c .L0 
C:\Users\stapi\AppData\Local\Temp\ccr4dOYe.s:214    .text.aos_get_version_hex:0000000000000030 .L0 
C:\Users\stapi\AppData\Local\Temp\ccr4dOYe.s:217    .text.aos_get_version_hex:0000000000000038 .L0 
C:\Users\stapi\AppData\Local\Temp\ccr4dOYe.s:218    .text.aos_get_version_hex:0000000000000038 .L0 
C:\Users\stapi\AppData\Local\Temp\ccr4dOYe.s:222    .text.aos_get_version_hex:0000000000000040 .L0 
C:\Users\stapi\AppData\Local\Temp\ccr4dOYe.s:223    .text.aos_get_version_hex:0000000000000040 .L0 
C:\Users\stapi\AppData\Local\Temp\ccr4dOYe.s:224    .text.aos_get_version_hex:0000000000000040 .L0 
C:\Users\stapi\AppData\Local\Temp\ccr4dOYe.s:227    .text.aos_get_version_hex:0000000000000042 .L0 
C:\Users\stapi\AppData\Local\Temp\ccr4dOYe.s:228    .text.aos_get_version_hex:0000000000000042 .L0 
C:\Users\stapi\AppData\Local\Temp\ccr4dOYe.s:230    .text.aos_get_version_hex:0000000000000046 .L0 
C:\Users\stapi\AppData\Local\Temp\ccr4dOYe.s:231    .text.aos_get_version_hex:0000000000000046 .L0 
C:\Users\stapi\AppData\Local\Temp\ccr4dOYe.s:233    .text.aos_get_version_hex:000000000000004a .L0 
C:\Users\stapi\AppData\Local\Temp\ccr4dOYe.s:234    .text.aos_get_version_hex:000000000000004c .L0 
C:\Users\stapi\AppData\Local\Temp\ccr4dOYe.s:245    .text.aos_get_mac_hex:0000000000000000 aos_get_mac_hex
C:\Users\stapi\AppData\Local\Temp\ccr4dOYe.s:248    .text.aos_get_mac_hex:0000000000000000 .L0 
C:\Users\stapi\AppData\Local\Temp\ccr4dOYe.s:250    .text.aos_get_mac_hex:0000000000000000 .L0 
C:\Users\stapi\AppData\Local\Temp\ccr4dOYe.s:251    .text.aos_get_mac_hex:0000000000000000 .L0 
C:\Users\stapi\AppData\Local\Temp\ccr4dOYe.s:256    .text.aos_get_mac_hex:0000000000000012 .L0 
C:\Users\stapi\AppData\Local\Temp\ccr4dOYe.s:267    .text.aos_get_chip_code:0000000000000000 aos_get_chip_code
C:\Users\stapi\AppData\Local\Temp\ccr4dOYe.s:270    .text.aos_get_chip_code:0000000000000000 .L0 
C:\Users\stapi\AppData\Local\Temp\ccr4dOYe.s:272    .text.aos_get_chip_code:0000000000000000 .L0 
C:\Users\stapi\AppData\Local\Temp\ccr4dOYe.s:273    .text.aos_get_chip_code:0000000000000000 .L0 
C:\Users\stapi\AppData\Local\Temp\ccr4dOYe.s:278    .text.aos_get_chip_code:0000000000000012 .L0 
C:\Users\stapi\AppData\Local\Temp\ccr4dOYe.s:322    .text.iotx_report_devinfo:0000000000000000 iotx_report_devinfo
C:\Users\stapi\AppData\Local\Temp\ccr4dOYe.s:325    .text.iotx_report_devinfo:0000000000000000 .L0 
C:\Users\stapi\AppData\Local\Temp\ccr4dOYe.s:327    .text.iotx_report_devinfo:0000000000000000 .L0 
C:\Users\stapi\AppData\Local\Temp\ccr4dOYe.s:328    .text.iotx_report_devinfo:0000000000000008 .L0 
C:\Users\stapi\AppData\Local\Temp\ccr4dOYe.s:329    .text.iotx_report_devinfo:0000000000000008 .L0 
C:\Users\stapi\AppData\Local\Temp\ccr4dOYe.s:330    .text.iotx_report_devinfo:0000000000000008 .L0 
C:\Users\stapi\AppData\Local\Temp\ccr4dOYe.s:331    .text.iotx_report_devinfo:0000000000000008 .L0 
C:\Users\stapi\AppData\Local\Temp\ccr4dOYe.s:332    .text.iotx_report_devinfo:0000000000000008 .L0 
C:\Users\stapi\AppData\Local\Temp\ccr4dOYe.s:333    .text.iotx_report_devinfo:0000000000000008 .L0 
C:\Users\stapi\AppData\Local\Temp\ccr4dOYe.s:334    .text.iotx_report_devinfo:0000000000000008 .L0 
C:\Users\stapi\AppData\Local\Temp\ccr4dOYe.s:337    .text.iotx_report_devinfo:0000000000000008 .L0 
C:\Users\stapi\AppData\Local\Temp\ccr4dOYe.s:338    .text.iotx_report_devinfo:0000000000000008 .L0 
C:\Users\stapi\AppData\Local\Temp\ccr4dOYe.s:339    .text.iotx_report_devinfo:0000000000000008 .L0 
C:\Users\stapi\AppData\Local\Temp\ccr4dOYe.s:340    .text.iotx_report_devinfo:0000000000000008 .L0 
C:\Users\stapi\AppData\Local\Temp\ccr4dOYe.s:341    .text.iotx_report_devinfo:000000000000000c .L0 
C:\Users\stapi\AppData\Local\Temp\ccr4dOYe.s:343    .text.iotx_report_devinfo:000000000000000c .L0 
C:\Users\stapi\AppData\Local\Temp\ccr4dOYe.s:346    .text.iotx_report_devinfo:0000000000000012 .L0 
C:\Users\stapi\AppData\Local\Temp\ccr4dOYe.s:348    .text.iotx_report_devinfo:0000000000000014 .L0 
C:\Users\stapi\AppData\Local\Temp\ccr4dOYe.s:351    .text.iotx_report_devinfo:0000000000000016 .L0 
C:\Users\stapi\AppData\Local\Temp\ccr4dOYe.s:354    .text.iotx_report_devinfo:000000000000001a .L0 
C:\Users\stapi\AppData\Local\Temp\ccr4dOYe.s:355    .text.iotx_report_devinfo:000000000000001a .L0 
C:\Users\stapi\AppData\Local\Temp\ccr4dOYe.s:357    .text.iotx_report_devinfo:000000000000001c .L0 
C:\Users\stapi\AppData\Local\Temp\ccr4dOYe.s:358    .text.iotx_report_devinfo:000000000000001c .L0 
C:\Users\stapi\AppData\Local\Temp\ccr4dOYe.s:359    .text.iotx_report_devinfo:000000000000001c .L0 
C:\Users\stapi\AppData\Local\Temp\ccr4dOYe.s:361    .text.iotx_report_devinfo:000000000000001e .L0 
C:\Users\stapi\AppData\Local\Temp\ccr4dOYe.s:362    .text.iotx_report_devinfo:000000000000001e .L0 
C:\Users\stapi\AppData\Local\Temp\ccr4dOYe.s:366    .text.iotx_report_devinfo:0000000000000028 .L0 
C:\Users\stapi\AppData\Local\Temp\ccr4dOYe.s:367    .text.iotx_report_devinfo:0000000000000028 .L0 
C:\Users\stapi\AppData\Local\Temp\ccr4dOYe.s:374    .text.iotx_report_devinfo:000000000000003a .L0 
C:\Users\stapi\AppData\Local\Temp\ccr4dOYe.s:375    .text.iotx_report_devinfo:000000000000003a .L0 
C:\Users\stapi\AppData\Local\Temp\ccr4dOYe.s:380    .text.iotx_report_devinfo:0000000000000046 .L0 
C:\Users\stapi\AppData\Local\Temp\ccr4dOYe.s:382    .text.iotx_report_devinfo:000000000000004a .L0 
C:\Users\stapi\AppData\Local\Temp\ccr4dOYe.s:385    .text.iotx_report_devinfo:0000000000000052 .L0 
C:\Users\stapi\AppData\Local\Temp\ccr4dOYe.s:386    .text.iotx_report_devinfo:0000000000000052 .L0 
C:\Users\stapi\AppData\Local\Temp\ccr4dOYe.s:387    .text.iotx_report_devinfo:0000000000000052 .L0 
C:\Users\stapi\AppData\Local\Temp\ccr4dOYe.s:388    .text.iotx_report_devinfo:0000000000000052 .L0 
C:\Users\stapi\AppData\Local\Temp\ccr4dOYe.s:391    .text.iotx_report_devinfo:0000000000000058 .L0 
C:\Users\stapi\AppData\Local\Temp\ccr4dOYe.s:392    .text.iotx_report_devinfo:0000000000000058 .L0 
C:\Users\stapi\AppData\Local\Temp\ccr4dOYe.s:397    .text.iotx_report_devinfo:0000000000000068 .L0 
C:\Users\stapi\AppData\Local\Temp\ccr4dOYe.s:402    .text.iotx_report_devinfo:0000000000000070 .L0 
C:\Users\stapi\AppData\Local\Temp\ccr4dOYe.s:406    .text.iotx_report_devinfo:0000000000000078 .L0 
C:\Users\stapi\AppData\Local\Temp\ccr4dOYe.s:407    .text.iotx_report_devinfo:0000000000000078 .L0 
C:\Users\stapi\AppData\Local\Temp\ccr4dOYe.s:415    .text.iotx_report_devinfo:000000000000008a .L0 
C:\Users\stapi\AppData\Local\Temp\ccr4dOYe.s:416    .text.iotx_report_devinfo:000000000000008a .L0 
C:\Users\stapi\AppData\Local\Temp\ccr4dOYe.s:417    .text.iotx_report_devinfo:000000000000008a .L0 
C:\Users\stapi\AppData\Local\Temp\ccr4dOYe.s:423    .text.iotx_report_devinfo:0000000000000096 .L0 
C:\Users\stapi\AppData\Local\Temp\ccr4dOYe.s:424    .text.iotx_report_devinfo:0000000000000096 .L0 
C:\Users\stapi\AppData\Local\Temp\ccr4dOYe.s:426    .text.iotx_report_devinfo:000000000000009a .L0 
C:\Users\stapi\AppData\Local\Temp\ccr4dOYe.s:427    .text.iotx_report_devinfo:000000000000009a .L0 
C:\Users\stapi\AppData\Local\Temp\ccr4dOYe.s:432    .text.iotx_report_devinfo:00000000000000aa .L0 
C:\Users\stapi\AppData\Local\Temp\ccr4dOYe.s:437    .text.iotx_report_devinfo:00000000000000ba .L0 
C:\Users\stapi\AppData\Local\Temp\ccr4dOYe.s:442    .text.iotx_report_devinfo:00000000000000ca .L0 
C:\Users\stapi\AppData\Local\Temp\ccr4dOYe.s:444    .text.iotx_report_devinfo:00000000000000ca .L0 
C:\Users\stapi\AppData\Local\Temp\ccr4dOYe.s:445    .text.iotx_report_devinfo:00000000000000ca .L0 
C:\Users\stapi\AppData\Local\Temp\ccr4dOYe.s:447    .text.iotx_report_devinfo:00000000000000d0 .L0 
C:\Users\stapi\AppData\Local\Temp\ccr4dOYe.s:448    .text.iotx_report_devinfo:00000000000000d0 .L0 
C:\Users\stapi\AppData\Local\Temp\ccr4dOYe.s:450    .text.iotx_report_devinfo:00000000000000d8 .L0 
C:\Users\stapi\AppData\Local\Temp\ccr4dOYe.s:451    .text.iotx_report_devinfo:00000000000000d8 .L0 
C:\Users\stapi\AppData\Local\Temp\ccr4dOYe.s:452    .text.iotx_report_devinfo:00000000000000d8 .L0 
C:\Users\stapi\AppData\Local\Temp\ccr4dOYe.s:453    .text.iotx_report_devinfo:00000000000000d8 .L0 
C:\Users\stapi\AppData\Local\Temp\ccr4dOYe.s:454    .text.iotx_report_devinfo:00000000000000d8 .L0 
C:\Users\stapi\AppData\Local\Temp\ccr4dOYe.s:455    .text.iotx_report_devinfo:00000000000000d8 .L0 
C:\Users\stapi\AppData\Local\Temp\ccr4dOYe.s:456    .text.iotx_report_devinfo:00000000000000d8 .L0 
C:\Users\stapi\AppData\Local\Temp\ccr4dOYe.s:459    .text.iotx_report_devinfo:00000000000000d8 .L0 
C:\Users\stapi\AppData\Local\Temp\ccr4dOYe.s:461    .text.iotx_report_devinfo:00000000000000d8 .L0 
C:\Users\stapi\AppData\Local\Temp\ccr4dOYe.s:465    .text.iotx_report_devinfo:00000000000000e2 .L0 
C:\Users\stapi\AppData\Local\Temp\ccr4dOYe.s:469    .text.iotx_report_devinfo:00000000000000ec .L0 
C:\Users\stapi\AppData\Local\Temp\ccr4dOYe.s:472    .text.iotx_report_devinfo:00000000000000f2 .L0 
C:\Users\stapi\AppData\Local\Temp\ccr4dOYe.s:476    .text.iotx_report_devinfo:00000000000000fe .L0 
C:\Users\stapi\AppData\Local\Temp\ccr4dOYe.s:477    .text.iotx_report_devinfo:00000000000000fe .L0 
C:\Users\stapi\AppData\Local\Temp\ccr4dOYe.s:478    .text.iotx_report_devinfo:00000000000000fe .L0 
C:\Users\stapi\AppData\Local\Temp\ccr4dOYe.s:479    .text.iotx_report_devinfo:00000000000000fe .L0 
C:\Users\stapi\AppData\Local\Temp\ccr4dOYe.s:480    .text.iotx_report_devinfo:00000000000000fe .L0 
C:\Users\stapi\AppData\Local\Temp\ccr4dOYe.s:481    .text.iotx_report_devinfo:00000000000000fe .L0 
C:\Users\stapi\AppData\Local\Temp\ccr4dOYe.s:484    .text.iotx_report_devinfo:0000000000000106 .L0 
C:\Users\stapi\AppData\Local\Temp\ccr4dOYe.s:485    .text.iotx_report_devinfo:0000000000000106 .L0 
C:\Users\stapi\AppData\Local\Temp\ccr4dOYe.s:486    .text.iotx_report_devinfo:0000000000000106 .L0 
C:\Users\stapi\AppData\Local\Temp\ccr4dOYe.s:489    .text.iotx_report_devinfo:0000000000000108 .L0 
C:\Users\stapi\AppData\Local\Temp\ccr4dOYe.s:493    .text.iotx_report_devinfo:000000000000010a .L0 
C:\Users\stapi\AppData\Local\Temp\ccr4dOYe.s:494    .text.iotx_report_devinfo:000000000000010a .L0 
C:\Users\stapi\AppData\Local\Temp\ccr4dOYe.s:498    .text.iotx_report_devinfo:0000000000000116 .L0 
C:\Users\stapi\AppData\Local\Temp\ccr4dOYe.s:501    .text.iotx_report_devinfo:000000000000011a .L0 
C:\Users\stapi\AppData\Local\Temp\ccr4dOYe.s:503    .text.iotx_report_devinfo:000000000000011e .L0 
C:\Users\stapi\AppData\Local\Temp\ccr4dOYe.s:504    .text.iotx_report_devinfo:000000000000011e .L0 
C:\Users\stapi\AppData\Local\Temp\ccr4dOYe.s:507    .text.iotx_report_devinfo:0000000000000120 .L0 
C:\Users\stapi\AppData\Local\Temp\ccr4dOYe.s:508    .text.iotx_report_devinfo:0000000000000120 .L0 
C:\Users\stapi\AppData\Local\Temp\ccr4dOYe.s:510    .text.iotx_report_devinfo:0000000000000124 .L0 
C:\Users\stapi\AppData\Local\Temp\ccr4dOYe.s:514    .text.iotx_report_devinfo:000000000000012e .L0 
C:\Users\stapi\AppData\Local\Temp\ccr4dOYe.s:515    .text.iotx_report_devinfo:000000000000012e .L0 
C:\Users\stapi\AppData\Local\Temp\ccr4dOYe.s:524    .text.iotx_report_devinfo:0000000000000144 .L0 
C:\Users\stapi\AppData\Local\Temp\ccr4dOYe.s:525    .text.iotx_report_devinfo:0000000000000144 .L0 
C:\Users\stapi\AppData\Local\Temp\ccr4dOYe.s:527    .text.iotx_report_devinfo:0000000000000146 .L0 
C:\Users\stapi\AppData\Local\Temp\ccr4dOYe.s:528    .text.iotx_report_devinfo:0000000000000146 .L0 
C:\Users\stapi\AppData\Local\Temp\ccr4dOYe.s:534    .text.iotx_report_devinfo:0000000000000156 .L0 
C:\Users\stapi\AppData\Local\Temp\ccr4dOYe.s:540    .text.iotx_report_devinfo:0000000000000160 .L0 
C:\Users\stapi\AppData\Local\Temp\ccr4dOYe.s:541    .text.iotx_report_devinfo:0000000000000160 .L0 
C:\Users\stapi\AppData\Local\Temp\ccr4dOYe.s:542    .text.iotx_report_devinfo:0000000000000160 .L0 
C:\Users\stapi\AppData\Local\Temp\ccr4dOYe.s:552    .text.iotx_report_devinfo:000000000000017c .L0 
C:\Users\stapi\AppData\Local\Temp\ccr4dOYe.s:553    .text.iotx_report_devinfo:000000000000017c .L0 
C:\Users\stapi\AppData\Local\Temp\ccr4dOYe.s:555    .text.iotx_report_devinfo:0000000000000180 .L0 
C:\Users\stapi\AppData\Local\Temp\ccr4dOYe.s:556    .text.iotx_report_devinfo:0000000000000180 .L0 
C:\Users\stapi\AppData\Local\Temp\ccr4dOYe.s:562    .text.iotx_report_devinfo:0000000000000190 .L0 
C:\Users\stapi\AppData\Local\Temp\ccr4dOYe.s:568    .text.iotx_report_devinfo:000000000000019a .L0 
C:\Users\stapi\AppData\Local\Temp\ccr4dOYe.s:569    .text.iotx_report_devinfo:000000000000019a .L0 
C:\Users\stapi\AppData\Local\Temp\ccr4dOYe.s:570    .text.iotx_report_devinfo:000000000000019a .L0 
C:\Users\stapi\AppData\Local\Temp\ccr4dOYe.s:575    .text.iotx_report_devinfo:00000000000001a4 .L0 
C:\Users\stapi\AppData\Local\Temp\ccr4dOYe.s:576    .text.iotx_report_devinfo:00000000000001a4 .L0 
C:\Users\stapi\AppData\Local\Temp\ccr4dOYe.s:578    .text.iotx_report_devinfo:00000000000001a8 .L0 
C:\Users\stapi\AppData\Local\Temp\ccr4dOYe.s:583    .text.iotx_report_devinfo:00000000000001b2 .L0 
C:\Users\stapi\AppData\Local\Temp\ccr4dOYe.s:584    .text.iotx_report_devinfo:00000000000001b2 .L0 
C:\Users\stapi\AppData\Local\Temp\ccr4dOYe.s:590    .text.iotx_report_devinfo:00000000000001c2 .L0 
C:\Users\stapi\AppData\Local\Temp\ccr4dOYe.s:596    .text.iotx_report_devinfo:00000000000001d4 .L0 
C:\Users\stapi\AppData\Local\Temp\ccr4dOYe.s:601    .text.iotx_report_devinfo:00000000000001e4 .L0 
C:\Users\stapi\AppData\Local\Temp\ccr4dOYe.s:602    .text.iotx_report_devinfo:00000000000001e4 .L0 
C:\Users\stapi\AppData\Local\Temp\ccr4dOYe.s:603    .text.iotx_report_devinfo:00000000000001e4 .L0 
C:\Users\stapi\AppData\Local\Temp\ccr4dOYe.s:612    .text.iotx_report_devinfo:00000000000001fa .L0 
C:\Users\stapi\AppData\Local\Temp\ccr4dOYe.s:613    .text.iotx_report_devinfo:00000000000001fa .L0 
C:\Users\stapi\AppData\Local\Temp\ccr4dOYe.s:621    .text.iotx_report_devinfo:000000000000020e .L0 
C:\Users\stapi\AppData\Local\Temp\ccr4dOYe.s:625    .text.iotx_report_devinfo:0000000000000218 .L0 
C:\Users\stapi\AppData\Local\Temp\ccr4dOYe.s:627    .text.iotx_report_devinfo:000000000000021a .L0 
C:\Users\stapi\AppData\Local\Temp\ccr4dOYe.s:630    .text.iotx_report_devinfo:000000000000021e .L0 
C:\Users\stapi\AppData\Local\Temp\ccr4dOYe.s:631    .text.iotx_report_devinfo:000000000000021e .L0 
C:\Users\stapi\AppData\Local\Temp\ccr4dOYe.s:639    .text.iotx_report_devinfo:000000000000022e .L0 
C:\Users\stapi\AppData\Local\Temp\ccr4dOYe.s:640    .text.iotx_report_devinfo:000000000000022e .L0 
C:\Users\stapi\AppData\Local\Temp\ccr4dOYe.s:642    .text.iotx_report_devinfo:0000000000000230 .L0 
C:\Users\stapi\AppData\Local\Temp\ccr4dOYe.s:643    .text.iotx_report_devinfo:0000000000000230 .L0 
C:\Users\stapi\AppData\Local\Temp\ccr4dOYe.s:649    .text.iotx_report_devinfo:0000000000000240 .L0 
C:\Users\stapi\AppData\Local\Temp\ccr4dOYe.s:655    .text.iotx_report_devinfo:000000000000024a .L0 
C:\Users\stapi\AppData\Local\Temp\ccr4dOYe.s:660    .text.iotx_report_devinfo:0000000000000256 .L0 
C:\Users\stapi\AppData\Local\Temp\ccr4dOYe.s:661    .text.iotx_report_devinfo:0000000000000256 .L0 
C:\Users\stapi\AppData\Local\Temp\ccr4dOYe.s:678    .text.iotx_report_devinfo:0000000000000282 .L0 
C:\Users\stapi\AppData\Local\Temp\ccr4dOYe.s:679    .text.iotx_report_devinfo:0000000000000282 .L0 
C:\Users\stapi\AppData\Local\Temp\ccr4dOYe.s:681    .text.iotx_report_devinfo:0000000000000286 .L0 
C:\Users\stapi\AppData\Local\Temp\ccr4dOYe.s:682    .text.iotx_report_devinfo:0000000000000286 .L0 
C:\Users\stapi\AppData\Local\Temp\ccr4dOYe.s:687    .text.iotx_report_devinfo:0000000000000296 .L0 
C:\Users\stapi\AppData\Local\Temp\ccr4dOYe.s:692    .text.iotx_report_devinfo:00000000000002a6 .L0 
C:\Users\stapi\AppData\Local\Temp\ccr4dOYe.s:697    .text.iotx_report_devinfo:00000000000002b6 .L0 
C:\Users\stapi\AppData\Local\Temp\ccr4dOYe.s:698    .text.iotx_report_devinfo:00000000000002b6 .L0 
C:\Users\stapi\AppData\Local\Temp\ccr4dOYe.s:703    .text.iotx_report_devinfo:00000000000002c0 .L0 
C:\Users\stapi\AppData\Local\Temp\ccr4dOYe.s:704    .text.iotx_report_devinfo:00000000000002c0 .L0 
C:\Users\stapi\AppData\Local\Temp\ccr4dOYe.s:705    .text.iotx_report_devinfo:00000000000002c0 .L0 
C:\Users\stapi\AppData\Local\Temp\ccr4dOYe.s:706    .text.iotx_report_devinfo:00000000000002c0 .L0 
C:\Users\stapi\AppData\Local\Temp\ccr4dOYe.s:711    .text.iotx_report_devinfo:00000000000002c4 .L0 
C:\Users\stapi\AppData\Local\Temp\ccr4dOYe.s:712    .text.iotx_report_devinfo:00000000000002c4 .L0 
C:\Users\stapi\AppData\Local\Temp\ccr4dOYe.s:713    .text.iotx_report_devinfo:00000000000002c4 .L0 
C:\Users\stapi\AppData\Local\Temp\ccr4dOYe.s:716    .text.iotx_report_devinfo:00000000000002c8 .L0 
C:\Users\stapi\AppData\Local\Temp\ccr4dOYe.s:718    .text.iotx_report_devinfo:00000000000002ca .L0 
C:\Users\stapi\AppData\Local\Temp\ccr4dOYe.s:719    .text.iotx_report_devinfo:00000000000002ca .L0 
C:\Users\stapi\AppData\Local\Temp\ccr4dOYe.s:724    .text.iotx_report_devinfo:00000000000002d6 .L0 
C:\Users\stapi\AppData\Local\Temp\ccr4dOYe.s:734    .text.iotx_report_devinfo:00000000000002e2 .L0 
C:\Users\stapi\AppData\Local\Temp\ccr4dOYe.s:738    .text.iotx_report_devinfo:00000000000002ec .L0 
C:\Users\stapi\AppData\Local\Temp\ccr4dOYe.s:739    .text.iotx_report_devinfo:00000000000002ec .L0 
C:\Users\stapi\AppData\Local\Temp\ccr4dOYe.s:741    .text.iotx_report_devinfo:00000000000002ee .L0 
C:\Users\stapi\AppData\Local\Temp\ccr4dOYe.s:743    .text.iotx_report_devinfo:00000000000002f2 .L0 
C:\Users\stapi\AppData\Local\Temp\ccr4dOYe.s:744    .text.iotx_report_devinfo:00000000000002f2 .L0 
C:\Users\stapi\AppData\Local\Temp\ccr4dOYe.s:749    .text.iotx_report_devinfo:0000000000000302 .L0 
C:\Users\stapi\AppData\Local\Temp\ccr4dOYe.s:755    .text.iotx_report_devinfo:0000000000000316 .L0 
C:\Users\stapi\AppData\Local\Temp\ccr4dOYe.s:781    .text.iotx_report_firmware_version:0000000000000000 iotx_report_firmware_version
C:\Users\stapi\AppData\Local\Temp\ccr4dOYe.s:784    .text.iotx_report_firmware_version:0000000000000000 .L0 
C:\Users\stapi\AppData\Local\Temp\ccr4dOYe.s:786    .text.iotx_report_firmware_version:0000000000000000 .L0 
C:\Users\stapi\AppData\Local\Temp\ccr4dOYe.s:787    .text.iotx_report_firmware_version:0000000000000008 .L0 
C:\Users\stapi\AppData\Local\Temp\ccr4dOYe.s:788    .text.iotx_report_firmware_version:0000000000000008 .L0 
C:\Users\stapi\AppData\Local\Temp\ccr4dOYe.s:789    .text.iotx_report_firmware_version:0000000000000008 .L0 
C:\Users\stapi\AppData\Local\Temp\ccr4dOYe.s:790    .text.iotx_report_firmware_version:0000000000000008 .L0 
C:\Users\stapi\AppData\Local\Temp\ccr4dOYe.s:791    .text.iotx_report_firmware_version:0000000000000008 .L0 
C:\Users\stapi\AppData\Local\Temp\ccr4dOYe.s:793    .text.iotx_report_firmware_version:0000000000000008 .L0 
C:\Users\stapi\AppData\Local\Temp\ccr4dOYe.s:794    .text.iotx_report_firmware_version:0000000000000008 .L0 
C:\Users\stapi\AppData\Local\Temp\ccr4dOYe.s:795    .text.iotx_report_firmware_version:0000000000000008 .L0 
C:\Users\stapi\AppData\Local\Temp\ccr4dOYe.s:796    .text.iotx_report_firmware_version:000000000000000c .L0 
C:\Users\stapi\AppData\Local\Temp\ccr4dOYe.s:798    .text.iotx_report_firmware_version:000000000000000c .L0 
C:\Users\stapi\AppData\Local\Temp\ccr4dOYe.s:801    .text.iotx_report_firmware_version:0000000000000012 .L0 
C:\Users\stapi\AppData\Local\Temp\ccr4dOYe.s:803    .text.iotx_report_firmware_version:0000000000000014 .L0 
C:\Users\stapi\AppData\Local\Temp\ccr4dOYe.s:809    .text.iotx_report_firmware_version:0000000000000020 .L0 
C:\Users\stapi\AppData\Local\Temp\ccr4dOYe.s:810    .text.iotx_report_firmware_version:0000000000000020 .L0 
C:\Users\stapi\AppData\Local\Temp\ccr4dOYe.s:817    .text.iotx_report_firmware_version:0000000000000032 .L0 
C:\Users\stapi\AppData\Local\Temp\ccr4dOYe.s:818    .text.iotx_report_firmware_version:0000000000000032 .L0 
C:\Users\stapi\AppData\Local\Temp\ccr4dOYe.s:822    .text.iotx_report_firmware_version:000000000000003a .L0 
C:\Users\stapi\AppData\Local\Temp\ccr4dOYe.s:824    .text.iotx_report_firmware_version:000000000000003e .L0 
C:\Users\stapi\AppData\Local\Temp\ccr4dOYe.s:826    .text.iotx_report_firmware_version:0000000000000040 .L0 
C:\Users\stapi\AppData\Local\Temp\ccr4dOYe.s:828    .text.iotx_report_firmware_version:0000000000000044 .L0 
C:\Users\stapi\AppData\Local\Temp\ccr4dOYe.s:831    .text.iotx_report_firmware_version:000000000000004c .L0 
C:\Users\stapi\AppData\Local\Temp\ccr4dOYe.s:832    .text.iotx_report_firmware_version:000000000000004c .L0 
C:\Users\stapi\AppData\Local\Temp\ccr4dOYe.s:835    .text.iotx_report_firmware_version:0000000000000050 .L0 
C:\Users\stapi\AppData\Local\Temp\ccr4dOYe.s:836    .text.iotx_report_firmware_version:0000000000000050 .L0 
C:\Users\stapi\AppData\Local\Temp\ccr4dOYe.s:841    .text.iotx_report_firmware_version:0000000000000060 .L0 
C:\Users\stapi\AppData\Local\Temp\ccr4dOYe.s:845    .text.iotx_report_firmware_version:0000000000000068 .L0 
C:\Users\stapi\AppData\Local\Temp\ccr4dOYe.s:848    .text.iotx_report_firmware_version:0000000000000070 .L0 
C:\Users\stapi\AppData\Local\Temp\ccr4dOYe.s:853    .text.iotx_report_firmware_version:0000000000000080 .L0 
C:\Users\stapi\AppData\Local\Temp\ccr4dOYe.s:854    .text.iotx_report_firmware_version:0000000000000080 .L0 
C:\Users\stapi\AppData\Local\Temp\ccr4dOYe.s:855    .text.iotx_report_firmware_version:0000000000000080 .L0 
C:\Users\stapi\AppData\Local\Temp\ccr4dOYe.s:858    .text.iotx_report_firmware_version:0000000000000082 .L0 
C:\Users\stapi\AppData\Local\Temp\ccr4dOYe.s:860    .text.iotx_report_firmware_version:0000000000000088 .L0 
C:\Users\stapi\AppData\Local\Temp\ccr4dOYe.s:861    .text.iotx_report_firmware_version:0000000000000088 .L0 
C:\Users\stapi\AppData\Local\Temp\ccr4dOYe.s:863    .text.iotx_report_firmware_version:0000000000000090 .L0 
C:\Users\stapi\AppData\Local\Temp\ccr4dOYe.s:864    .text.iotx_report_firmware_version:0000000000000090 .L0 
C:\Users\stapi\AppData\Local\Temp\ccr4dOYe.s:865    .text.iotx_report_firmware_version:0000000000000090 .L0 
C:\Users\stapi\AppData\Local\Temp\ccr4dOYe.s:866    .text.iotx_report_firmware_version:0000000000000090 .L0 
C:\Users\stapi\AppData\Local\Temp\ccr4dOYe.s:867    .text.iotx_report_firmware_version:0000000000000090 .L0 
C:\Users\stapi\AppData\Local\Temp\ccr4dOYe.s:869    .text.iotx_report_firmware_version:0000000000000090 .L0 
C:\Users\stapi\AppData\Local\Temp\ccr4dOYe.s:871    .text.iotx_report_firmware_version:0000000000000090 .L0 
C:\Users\stapi\AppData\Local\Temp\ccr4dOYe.s:872    .text.iotx_report_firmware_version:0000000000000090 .L0 
C:\Users\stapi\AppData\Local\Temp\ccr4dOYe.s:873    .text.iotx_report_firmware_version:0000000000000090 .L0 
C:\Users\stapi\AppData\Local\Temp\ccr4dOYe.s:879    .text.iotx_report_firmware_version:000000000000009c .L0 
C:\Users\stapi\AppData\Local\Temp\ccr4dOYe.s:880    .text.iotx_report_firmware_version:000000000000009c .L0 
C:\Users\stapi\AppData\Local\Temp\ccr4dOYe.s:882    .text.iotx_report_firmware_version:00000000000000a0 .L0 
C:\Users\stapi\AppData\Local\Temp\ccr4dOYe.s:883    .text.iotx_report_firmware_version:00000000000000a0 .L0 
C:\Users\stapi\AppData\Local\Temp\ccr4dOYe.s:888    .text.iotx_report_firmware_version:00000000000000b0 .L0 
C:\Users\stapi\AppData\Local\Temp\ccr4dOYe.s:892    .text.iotx_report_firmware_version:00000000000000b8 .L0 
C:\Users\stapi\AppData\Local\Temp\ccr4dOYe.s:895    .text.iotx_report_firmware_version:00000000000000c0 .L0 
C:\Users\stapi\AppData\Local\Temp\ccr4dOYe.s:900    .text.iotx_report_firmware_version:00000000000000d0 .L0 
C:\Users\stapi\AppData\Local\Temp\ccr4dOYe.s:901    .text.iotx_report_firmware_version:00000000000000d0 .L0 
C:\Users\stapi\AppData\Local\Temp\ccr4dOYe.s:902    .text.iotx_report_firmware_version:00000000000000d0 .L0 
C:\Users\stapi\AppData\Local\Temp\ccr4dOYe.s:905    .text.iotx_report_firmware_version:00000000000000d2 .L0 
C:\Users\stapi\AppData\Local\Temp\ccr4dOYe.s:906    .text.iotx_report_firmware_version:00000000000000d2 .L0 
C:\Users\stapi\AppData\Local\Temp\ccr4dOYe.s:910    .text.iotx_report_firmware_version:00000000000000dc .L0 
C:\Users\stapi\AppData\Local\Temp\ccr4dOYe.s:911    .text.iotx_report_firmware_version:00000000000000dc .L0 
C:\Users\stapi\AppData\Local\Temp\ccr4dOYe.s:913    .text.iotx_report_firmware_version:00000000000000e0 .L0 
C:\Users\stapi\AppData\Local\Temp\ccr4dOYe.s:914    .text.iotx_report_firmware_version:00000000000000e0 .L0 
C:\Users\stapi\AppData\Local\Temp\ccr4dOYe.s:920    .text.iotx_report_firmware_version:00000000000000f0 .L0 
C:\Users\stapi\AppData\Local\Temp\ccr4dOYe.s:926    .text.iotx_report_firmware_version:00000000000000fa .L0 
C:\Users\stapi\AppData\Local\Temp\ccr4dOYe.s:927    .text.iotx_report_firmware_version:00000000000000fa .L0 
C:\Users\stapi\AppData\Local\Temp\ccr4dOYe.s:928    .text.iotx_report_firmware_version:00000000000000fa .L0 
C:\Users\stapi\AppData\Local\Temp\ccr4dOYe.s:938    .text.iotx_report_firmware_version:0000000000000116 .L0 
C:\Users\stapi\AppData\Local\Temp\ccr4dOYe.s:939    .text.iotx_report_firmware_version:0000000000000116 .L0 
C:\Users\stapi\AppData\Local\Temp\ccr4dOYe.s:941    .text.iotx_report_firmware_version:000000000000011a .L0 
C:\Users\stapi\AppData\Local\Temp\ccr4dOYe.s:942    .text.iotx_report_firmware_version:000000000000011a .L0 
C:\Users\stapi\AppData\Local\Temp\ccr4dOYe.s:948    .text.iotx_report_firmware_version:000000000000012a .L0 
C:\Users\stapi\AppData\Local\Temp\ccr4dOYe.s:954    .text.iotx_report_firmware_version:0000000000000134 .L0 
C:\Users\stapi\AppData\Local\Temp\ccr4dOYe.s:955    .text.iotx_report_firmware_version:0000000000000134 .L0 
C:\Users\stapi\AppData\Local\Temp\ccr4dOYe.s:956    .text.iotx_report_firmware_version:0000000000000134 .L0 
C:\Users\stapi\AppData\Local\Temp\ccr4dOYe.s:967    .text.iotx_report_firmware_version:0000000000000156 .L0 
C:\Users\stapi\AppData\Local\Temp\ccr4dOYe.s:968    .text.iotx_report_firmware_version:0000000000000156 .L0 
C:\Users\stapi\AppData\Local\Temp\ccr4dOYe.s:970    .text.iotx_report_firmware_version:000000000000015a .L0 
C:\Users\stapi\AppData\Local\Temp\ccr4dOYe.s:971    .text.iotx_report_firmware_version:000000000000015a .L0 
C:\Users\stapi\AppData\Local\Temp\ccr4dOYe.s:977    .text.iotx_report_firmware_version:000000000000016a .L0 
C:\Users\stapi\AppData\Local\Temp\ccr4dOYe.s:983    .text.iotx_report_firmware_version:0000000000000174 .L0 
C:\Users\stapi\AppData\Local\Temp\ccr4dOYe.s:984    .text.iotx_report_firmware_version:0000000000000174 .L0 
C:\Users\stapi\AppData\Local\Temp\ccr4dOYe.s:985    .text.iotx_report_firmware_version:0000000000000174 .L0 
C:\Users\stapi\AppData\Local\Temp\ccr4dOYe.s:990    .text.iotx_report_firmware_version:000000000000017e .L0 
C:\Users\stapi\AppData\Local\Temp\ccr4dOYe.s:992    .text.iotx_report_firmware_version:0000000000000180 .L0 
C:\Users\stapi\AppData\Local\Temp\ccr4dOYe.s:994    .text.iotx_report_firmware_version:0000000000000182 .L0 
C:\Users\stapi\AppData\Local\Temp\ccr4dOYe.s:1003   .text.iotx_report_firmware_version:000000000000018e .L0 
C:\Users\stapi\AppData\Local\Temp\ccr4dOYe.s:1004   .text.iotx_report_firmware_version:000000000000018e .L0 
C:\Users\stapi\AppData\Local\Temp\ccr4dOYe.s:1006   .text.iotx_report_firmware_version:0000000000000192 .L0 
C:\Users\stapi\AppData\Local\Temp\ccr4dOYe.s:1007   .text.iotx_report_firmware_version:0000000000000192 .L0 
C:\Users\stapi\AppData\Local\Temp\ccr4dOYe.s:1012   .text.iotx_report_firmware_version:00000000000001a2 .L0 
C:\Users\stapi\AppData\Local\Temp\ccr4dOYe.s:1017   .text.iotx_report_firmware_version:00000000000001ac .L0 
C:\Users\stapi\AppData\Local\Temp\ccr4dOYe.s:1020   .text.iotx_report_firmware_version:00000000000001b0 .L0 
C:\Users\stapi\AppData\Local\Temp\ccr4dOYe.s:1040   .text.iotx_report_connect_status:0000000000000000 iotx_report_connect_status
C:\Users\stapi\AppData\Local\Temp\ccr4dOYe.s:1043   .text.iotx_report_connect_status:0000000000000000 .L0 
C:\Users\stapi\AppData\Local\Temp\ccr4dOYe.s:1045   .text.iotx_report_connect_status:0000000000000000 .L0 
C:\Users\stapi\AppData\Local\Temp\ccr4dOYe.s:1046   .text.iotx_report_connect_status:0000000000000008 .L0 
C:\Users\stapi\AppData\Local\Temp\ccr4dOYe.s:1047   .text.iotx_report_connect_status:0000000000000008 .L0 
C:\Users\stapi\AppData\Local\Temp\ccr4dOYe.s:1048   .text.iotx_report_connect_status:0000000000000008 .L0 
C:\Users\stapi\AppData\Local\Temp\ccr4dOYe.s:1050   .text.iotx_report_connect_status:0000000000000008 .L0 
C:\Users\stapi\AppData\Local\Temp\ccr4dOYe.s:1051   .text.iotx_report_connect_status:0000000000000008 .L0 
C:\Users\stapi\AppData\Local\Temp\ccr4dOYe.s:1052   .text.iotx_report_connect_status:000000000000000a .L0 
C:\Users\stapi\AppData\Local\Temp\ccr4dOYe.s:1054   .text.iotx_report_connect_status:000000000000000a .L0 
C:\Users\stapi\AppData\Local\Temp\ccr4dOYe.s:1056   .text.iotx_report_connect_status:000000000000000e .L0 
C:\Users\stapi\AppData\Local\Temp\ccr4dOYe.s:1059   .text.iotx_report_connect_status:0000000000000012 .L0 
C:\Users\stapi\AppData\Local\Temp\ccr4dOYe.s:1067   .text.iotx_report_connect_status:0000000000000020 .L0 
C:\Users\stapi\AppData\Local\Temp\ccr4dOYe.s:1068   .text.iotx_report_connect_status:0000000000000020 .L0 
C:\Users\stapi\AppData\Local\Temp\ccr4dOYe.s:1069   .text.iotx_report_connect_status:0000000000000020 .L0 
C:\Users\stapi\AppData\Local\Temp\ccr4dOYe.s:1070   .text.iotx_report_connect_status:0000000000000020 .L0 
C:\Users\stapi\AppData\Local\Temp\ccr4dOYe.s:1071   .text.iotx_report_connect_status:0000000000000020 .L0 
C:\Users\stapi\AppData\Local\Temp\ccr4dOYe.s:1074   .text.iotx_report_connect_status:0000000000000028 .L0 
C:\Users\stapi\AppData\Local\Temp\ccr4dOYe.s:1078   .text.iotx_report_connect_status:0000000000000032 .L0 
C:\Users\stapi\AppData\Local\Temp\ccr4dOYe.s:1080   .text.iotx_report_connect_status:0000000000000034 .L0 
C:\Users\stapi\AppData\Local\Temp\ccr4dOYe.s:1087   .text.iotx_report_connect_status:000000000000004a .L0 
C:\Users\stapi\AppData\Local\Temp\ccr4dOYe.s:1088   .text.iotx_report_connect_status:000000000000004a .L0 
C:\Users\stapi\AppData\Local\Temp\ccr4dOYe.s:1090   .text.iotx_report_connect_status:000000000000004e .L0 
C:\Users\stapi\AppData\Local\Temp\ccr4dOYe.s:1101   .text.iotx_report_connect_status:000000000000006a .L0 
C:\Users\stapi\AppData\Local\Temp\ccr4dOYe.s:1102   .text.iotx_report_connect_status:000000000000006c .L0 
C:\Users\stapi\AppData\Local\Temp\ccr4dOYe.s:1105   .text.iotx_report_connect_status:0000000000000074 .L0 
C:\Users\stapi\AppData\Local\Temp\ccr4dOYe.s:1106   .text.iotx_report_connect_status:0000000000000074 .L0 
C:\Users\stapi\AppData\Local\Temp\ccr4dOYe.s:1107   .text.iotx_report_connect_status:0000000000000074 .L0 
C:\Users\stapi\AppData\Local\Temp\ccr4dOYe.s:1108   .text.iotx_report_connect_status:0000000000000074 .L0 
C:\Users\stapi\AppData\Local\Temp\ccr4dOYe.s:1122   .text.iotx_report_mid:0000000000000000 iotx_report_mid
C:\Users\stapi\AppData\Local\Temp\ccr4dOYe.s:1125   .text.iotx_report_mid:0000000000000000 .L0 
C:\Users\stapi\AppData\Local\Temp\ccr4dOYe.s:1127   .text.iotx_report_mid:0000000000000000 .L0 
C:\Users\stapi\AppData\Local\Temp\ccr4dOYe.s:1128   .text.iotx_report_mid:0000000000000008 .L0 
C:\Users\stapi\AppData\Local\Temp\ccr4dOYe.s:1129   .text.iotx_report_mid:0000000000000008 .L0 
C:\Users\stapi\AppData\Local\Temp\ccr4dOYe.s:1131   .text.iotx_report_mid:0000000000000008 .L0 
C:\Users\stapi\AppData\Local\Temp\ccr4dOYe.s:1132   .text.iotx_report_mid:0000000000000008 .L0 
C:\Users\stapi\AppData\Local\Temp\ccr4dOYe.s:1138   .text.iotx_report_mid:0000000000000018 .L0 
C:\Users\stapi\AppData\Local\Temp\ccr4dOYe.s:1143   .text.iotx_report_mid:0000000000000028 .L0 
C:\Users\stapi\AppData\Local\Temp\ccr4dOYe.s:1148   .text.iotx_report_mid:0000000000000038 .L0 
C:\Users\stapi\AppData\Local\Temp\ccr4dOYe.s:1149   .text.iotx_report_mid:0000000000000038 .L0 
C:\Users\stapi\AppData\Local\Temp\ccr4dOYe.s:1150   .text.iotx_report_mid:0000000000000038 .L0 
C:\Users\stapi\AppData\Local\Temp\ccr4dOYe.s:1152   .text.iotx_report_mid:0000000000000042 .L0 
C:\Users\stapi\AppData\Local\Temp\ccr4dOYe.s:1153   .text.iotx_report_mid:0000000000000042 .L0 
C:\Users\stapi\AppData\Local\Temp\ccr4dOYe.s:1154   .text.iotx_report_mid:0000000000000042 .L0 
C:\Users\stapi\AppData\Local\Temp\ccr4dOYe.s:1184   .sdata.DEVICE_INFO_UPDATE_FMT:0000000000000000 DEVICE_INFO_UPDATE_FMT
C:\Users\stapi\AppData\Local\Temp\ccr4dOYe.s:1170   .sbss.g_report_id:0000000000000000 g_report_id
C:\Users\stapi\AppData\Local\Temp\ccr4dOYe.s:1167   .sbss.g_report_id:0000000000000000 .LANCHOR0
C:\Users\stapi\AppData\Local\Temp\ccr4dOYe.s:1174   .sbss.info_report_func:0000000000000000 .LANCHOR1
C:\Users\stapi\AppData\Local\Temp\ccr4dOYe.s:1177   .sbss.info_report_func:0000000000000000 info_report_func
C:\Users\stapi\AppData\Local\Temp\ccr4dOYe.s:1181   .sdata.DEVICE_INFO_UPDATE_FMT:0000000000000000 .LANCHOR2
C:\Users\stapi\AppData\Local\Temp\ccr4dOYe.s:30     .text.iotx_report_id:0000000000000012 .L0 
C:\Users\stapi\AppData\Local\Temp\ccr4dOYe.s:70     .text.iotx_midreport_reqid:0000000000000032 .L0 
C:\Users\stapi\AppData\Local\Temp\ccr4dOYe.s:104    .text.iotx_midreport_payload:000000000000001a .L0 
C:\Users\stapi\AppData\Local\Temp\ccr4dOYe.s:138    .text.iotx_midreport_topic:000000000000001a .L0 
C:\Users\stapi\AppData\Local\Temp\ccr4dOYe.s:156    .text.iotx_set_report_func:000000000000000a .L0 
C:\Users\stapi\AppData\Local\Temp\ccr4dOYe.s:237    .text.aos_get_version_hex:000000000000004c .L0 
C:\Users\stapi\AppData\Local\Temp\ccr4dOYe.s:259    .text.aos_get_mac_hex:0000000000000012 .L0 
C:\Users\stapi\AppData\Local\Temp\ccr4dOYe.s:281    .text.aos_get_chip_code:0000000000000012 .L0 
C:\Users\stapi\AppData\Local\Temp\ccr4dOYe.s:758    .text.iotx_report_devinfo:0000000000000316 .L0 
C:\Users\stapi\AppData\Local\Temp\ccr4dOYe.s:1023   .text.iotx_report_firmware_version:00000000000001b0 .L0 
C:\Users\stapi\AppData\Local\Temp\ccr4dOYe.s:1111   .text.iotx_report_connect_status:0000000000000074 .L0 
C:\Users\stapi\AppData\Local\Temp\ccr4dOYe.s:1158   .text.iotx_report_mid:0000000000000042 .L0 
                     .debug_frame:0000000000000000 .L0 
C:\Users\stapi\AppData\Local\Temp\ccr4dOYe.s:32     .rodata.iotx_midreport_reqid.str1.4:0000000000000000 .LC0
C:\Users\stapi\AppData\Local\Temp\ccr4dOYe.s:72     .rodata.iotx_midreport_payload.str1.4:0000000000000000 .LC1
C:\Users\stapi\AppData\Local\Temp\ccr4dOYe.s:106    .rodata.iotx_midreport_topic.str1.4:0000000000000000 .LC2
C:\Users\stapi\AppData\Local\Temp\ccr4dOYe.s:158    .rodata.aos_get_version_hex.str1.4:0000000000000000 .LC3
C:\Users\stapi\AppData\Local\Temp\ccr4dOYe.s:202    .text.aos_get_version_hex:0000000000000022 .L13
C:\Users\stapi\AppData\Local\Temp\ccr4dOYe.s:194    .text.aos_get_version_hex:0000000000000016 .L11
C:\Users\stapi\AppData\Local\Temp\ccr4dOYe.s:189    .text.aos_get_version_hex:0000000000000012 .L10
C:\Users\stapi\AppData\Local\Temp\ccr4dOYe.s:239    .rodata.aos_get_mac_hex.str1.4:0000000000000000 .LC4
C:\Users\stapi\AppData\Local\Temp\ccr4dOYe.s:261    .rodata.aos_get_chip_code.str1.4:0000000000000000 .LC5
C:\Users\stapi\AppData\Local\Temp\ccr4dOYe.s:283    .rodata.iotx_report_devinfo.str1.4:0000000000000000 .LC6
C:\Users\stapi\AppData\Local\Temp\ccr4dOYe.s:286    .rodata.iotx_report_devinfo.str1.4:0000000000000008 .LC7
C:\Users\stapi\AppData\Local\Temp\ccr4dOYe.s:289    .rodata.iotx_report_devinfo.str1.4:0000000000000024 .LC8
C:\Users\stapi\AppData\Local\Temp\ccr4dOYe.s:292    .rodata.iotx_report_devinfo.str1.4:0000000000000028 .LC9
C:\Users\stapi\AppData\Local\Temp\ccr4dOYe.s:295    .rodata.iotx_report_devinfo.str1.4:000000000000003c .LC10
C:\Users\stapi\AppData\Local\Temp\ccr4dOYe.s:298    .rodata.iotx_report_devinfo.str1.4:0000000000000058 .LC11
C:\Users\stapi\AppData\Local\Temp\ccr4dOYe.s:301    .rodata.iotx_report_devinfo.str1.4:000000000000007c .LC12
C:\Users\stapi\AppData\Local\Temp\ccr4dOYe.s:304    .rodata.iotx_report_devinfo.str1.4:0000000000000090 .LC13
C:\Users\stapi\AppData\Local\Temp\ccr4dOYe.s:307    .rodata.iotx_report_devinfo.str1.4:00000000000000d4 .LC14
C:\Users\stapi\AppData\Local\Temp\ccr4dOYe.s:310    .rodata.iotx_report_devinfo.str1.4:00000000000000f4 .LC15
C:\Users\stapi\AppData\Local\Temp\ccr4dOYe.s:313    .rodata.iotx_report_devinfo.str1.4:0000000000000100 .LC16
C:\Users\stapi\AppData\Local\Temp\ccr4dOYe.s:316    .rodata.iotx_report_devinfo.str1.4:0000000000000118 .LC17
C:\Users\stapi\AppData\Local\Temp\ccr4dOYe.s:413    .text.iotx_report_devinfo:000000000000008a .L19
C:\Users\stapi\AppData\Local\Temp\ccr4dOYe.s:702    .text.iotx_report_devinfo:00000000000002c0 .L36
C:\Users\stapi\AppData\Local\Temp\ccr4dOYe.s:458    .text.iotx_report_devinfo:00000000000000d8 .L21
C:\Users\stapi\AppData\Local\Temp\ccr4dOYe.s:491    .text.iotx_report_devinfo:000000000000010a .L22
C:\Users\stapi\AppData\Local\Temp\ccr4dOYe.s:538    .text.iotx_report_devinfo:0000000000000160 .L23
C:\Users\stapi\AppData\Local\Temp\ccr4dOYe.s:400    .text.iotx_report_devinfo:0000000000000070 .L37
C:\Users\stapi\AppData\Local\Temp\ccr4dOYe.s:566    .text.iotx_report_devinfo:000000000000019a .L24
C:\Users\stapi\AppData\Local\Temp\ccr4dOYe.s:609    .text.iotx_report_devinfo:00000000000001fa .L25
C:\Users\stapi\AppData\Local\Temp\ccr4dOYe.s:653    .text.iotx_report_devinfo:000000000000024a .L26
C:\Users\stapi\AppData\Local\Temp\ccr4dOYe.s:709    .text.iotx_report_devinfo:00000000000002c4 .L27
C:\Users\stapi\AppData\Local\Temp\ccr4dOYe.s:443    .text.iotx_report_devinfo:00000000000000ca .L18
C:\Users\stapi\AppData\Local\Temp\ccr4dOYe.s:732    .text.iotx_report_devinfo:00000000000002e2 .L28
C:\Users\stapi\AppData\Local\Temp\ccr4dOYe.s:405    .text.iotx_report_devinfo:0000000000000078 .L35
C:\Users\stapi\AppData\Local\Temp\ccr4dOYe.s:760    .rodata.iotx_report_firmware_version.str1.4:0000000000000000 .LC18
C:\Users\stapi\AppData\Local\Temp\ccr4dOYe.s:763    .rodata.iotx_report_firmware_version.str1.4:0000000000000024 .LC19
C:\Users\stapi\AppData\Local\Temp\ccr4dOYe.s:766    .rodata.iotx_report_firmware_version.str1.4:0000000000000040 .LC20
C:\Users\stapi\AppData\Local\Temp\ccr4dOYe.s:769    .rodata.iotx_report_firmware_version.str1.4:0000000000000064 .LC21
C:\Users\stapi\AppData\Local\Temp\ccr4dOYe.s:772    .rodata.iotx_report_firmware_version.str1.4:000000000000008c .LC22
C:\Users\stapi\AppData\Local\Temp\ccr4dOYe.s:775    .rodata.iotx_report_firmware_version.str1.4:00000000000000bc .LC23
C:\Users\stapi\AppData\Local\Temp\ccr4dOYe.s:868    .text.iotx_report_firmware_version:0000000000000090 .L39
C:\Users\stapi\AppData\Local\Temp\ccr4dOYe.s:903    .text.iotx_report_firmware_version:00000000000000d2 .L41
C:\Users\stapi\AppData\Local\Temp\ccr4dOYe.s:856    .text.iotx_report_firmware_version:0000000000000082 .L38
C:\Users\stapi\AppData\Local\Temp\ccr4dOYe.s:924    .text.iotx_report_firmware_version:00000000000000fa .L42
C:\Users\stapi\AppData\Local\Temp\ccr4dOYe.s:843    .text.iotx_report_firmware_version:0000000000000068 .L47
C:\Users\stapi\AppData\Local\Temp\ccr4dOYe.s:952    .text.iotx_report_firmware_version:0000000000000134 .L43
C:\Users\stapi\AppData\Local\Temp\ccr4dOYe.s:981    .text.iotx_report_firmware_version:0000000000000174 .L44
C:\Users\stapi\AppData\Local\Temp\ccr4dOYe.s:1015   .text.iotx_report_firmware_version:00000000000001ac .L45
C:\Users\stapi\AppData\Local\Temp\ccr4dOYe.s:890    .text.iotx_report_firmware_version:00000000000000b8 .L48
C:\Users\stapi\AppData\Local\Temp\ccr4dOYe.s:1025   .rodata.iotx_report_connect_status.str1.4:0000000000000000 .LC24
C:\Users\stapi\AppData\Local\Temp\ccr4dOYe.s:1028   .rodata.iotx_report_connect_status.str1.4:0000000000000004 .LC25
C:\Users\stapi\AppData\Local\Temp\ccr4dOYe.s:1031   .rodata.iotx_report_connect_status.str1.4:0000000000000034 .LC26
C:\Users\stapi\AppData\Local\Temp\ccr4dOYe.s:1034   .rodata.iotx_report_connect_status.str1.4:0000000000000040 .LC27
C:\Users\stapi\AppData\Local\Temp\ccr4dOYe.s:1099   .text.iotx_report_connect_status:000000000000006a .L49
C:\Users\stapi\AppData\Local\Temp\ccr4dOYe.s:1113   .rodata.iotx_report_mid.str1.4:0000000000000000 .LC28
C:\Users\stapi\AppData\Local\Temp\ccr4dOYe.s:1116   .rodata.iotx_report_mid.str1.4:0000000000000008 .LC29
C:\Users\stapi\AppData\Local\Temp\ccr4dOYe.s:1160   .rodata.str1.4:0000000000000000 .LC30
C:\Users\stapi\AppData\Local\Temp\ccr4dOYe.s:3822   .debug_abbrev:0000000000000000 .Ldebug_abbrev0
C:\Users\stapi\AppData\Local\Temp\ccr4dOYe.s:5148   .debug_str:00000000000000de .LASF259
C:\Users\stapi\AppData\Local\Temp\ccr4dOYe.s:5254   .debug_str:00000000000006fe .LASF260
C:\Users\stapi\AppData\Local\Temp\ccr4dOYe.s:5448   .debug_str:0000000000001060 .LASF261
C:\Users\stapi\AppData\Local\Temp\ccr4dOYe.s:5100   .debug_ranges:0000000000000000 .Ldebug_ranges0
C:\Users\stapi\AppData\Local\Temp\ccr4dOYe.s:5128   .debug_line:0000000000000000 .Ldebug_line0
C:\Users\stapi\AppData\Local\Temp\ccr4dOYe.s:5234   .debug_str:000000000000060b .LASF0
C:\Users\stapi\AppData\Local\Temp\ccr4dOYe.s:5240   .debug_str:0000000000000651 .LASF1
C:\Users\stapi\AppData\Local\Temp\ccr4dOYe.s:5532   .debug_str:00000000000014db .LASF2
C:\Users\stapi\AppData\Local\Temp\ccr4dOYe.s:5626   .debug_str:000000000000190c .LASF3
C:\Users\stapi\AppData\Local\Temp\ccr4dOYe.s:5202   .debug_str:000000000000048c .LASF4
C:\Users\stapi\AppData\Local\Temp\ccr4dOYe.s:5400   .debug_str:0000000000000e56 .LASF10
C:\Users\stapi\AppData\Local\Temp\ccr4dOYe.s:5364   .debug_str:0000000000000cbd .LASF5
C:\Users\stapi\AppData\Local\Temp\ccr4dOYe.s:5402   .debug_str:0000000000000e61 .LASF6
C:\Users\stapi\AppData\Local\Temp\ccr4dOYe.s:5474   .debug_str:000000000000124d .LASF7
C:\Users\stapi\AppData\Local\Temp\ccr4dOYe.s:5430   .debug_str:0000000000000f8e .LASF8
C:\Users\stapi\AppData\Local\Temp\ccr4dOYe.s:5270   .debug_str:0000000000000858 .LASF9
C:\Users\stapi\AppData\Local\Temp\ccr4dOYe.s:5600   .debug_str:00000000000017eb .LASF11
C:\Users\stapi\AppData\Local\Temp\ccr4dOYe.s:5616   .debug_str:00000000000018a4 .LASF212
C:\Users\stapi\AppData\Local\Temp\ccr4dOYe.s:5286   .debug_str:00000000000008f0 .LASF12
C:\Users\stapi\AppData\Local\Temp\ccr4dOYe.s:5324   .debug_str:0000000000000acb .LASF13
C:\Users\stapi\AppData\Local\Temp\ccr4dOYe.s:5490   .debug_str:00000000000012f3 .LASF14
C:\Users\stapi\AppData\Local\Temp\ccr4dOYe.s:5276   .debug_str:0000000000000874 .LASF15
C:\Users\stapi\AppData\Local\Temp\ccr4dOYe.s:5228   .debug_str:00000000000005d5 .LASF16
C:\Users\stapi\AppData\Local\Temp\ccr4dOYe.s:5150   .debug_str:00000000000001c5 .LASF17
C:\Users\stapi\AppData\Local\Temp\ccr4dOYe.s:5140   .debug_str:000000000000006f .LASF262
C:\Users\stapi\AppData\Local\Temp\ccr4dOYe.s:5236   .debug_str:0000000000000617 .LASF18
C:\Users\stapi\AppData\Local\Temp\ccr4dOYe.s:5416   .debug_str:0000000000000ef6 .LASF19
C:\Users\stapi\AppData\Local\Temp\ccr4dOYe.s:5450   .debug_str:00000000000010f1 .LASF20
C:\Users\stapi\AppData\Local\Temp\ccr4dOYe.s:5316   .debug_str:0000000000000a66 .LASF21
C:\Users\stapi\AppData\Local\Temp\ccr4dOYe.s:5596   .debug_str:00000000000017c2 .LASF22
C:\Users\stapi\AppData\Local\Temp\ccr4dOYe.s:5392   .debug_str:0000000000000df5 .LASF23
C:\Users\stapi\AppData\Local\Temp\ccr4dOYe.s:5130   .debug_str:0000000000000000 .LASF24
C:\Users\stapi\AppData\Local\Temp\ccr4dOYe.s:5506   .debug_str:0000000000001383 .LASF25
C:\Users\stapi\AppData\Local\Temp\ccr4dOYe.s:5622   .debug_str:00000000000018ec .LASF26
C:\Users\stapi\AppData\Local\Temp\ccr4dOYe.s:5516   .debug_str:000000000000141a .LASF27
C:\Users\stapi\AppData\Local\Temp\ccr4dOYe.s:5486   .debug_str:00000000000012cc .LASF28
C:\Users\stapi\AppData\Local\Temp\ccr4dOYe.s:5284   .debug_str:00000000000008d9 .LASF29
C:\Users\stapi\AppData\Local\Temp\ccr4dOYe.s:5454   .debug_str:0000000000001127 .LASF30
C:\Users\stapi\AppData\Local\Temp\ccr4dOYe.s:5488   .debug_str:00000000000012db .LASF31
C:\Users\stapi\AppData\Local\Temp\ccr4dOYe.s:5360   .debug_str:0000000000000c94 .LASF32
C:\Users\stapi\AppData\Local\Temp\ccr4dOYe.s:5630   .debug_str:0000000000001927 .LASF33
C:\Users\stapi\AppData\Local\Temp\ccr4dOYe.s:5404   .debug_str:0000000000000e6f .LASF34
C:\Users\stapi\AppData\Local\Temp\ccr4dOYe.s:5468   .debug_str:00000000000011e1 .LASF35
C:\Users\stapi\AppData\Local\Temp\ccr4dOYe.s:5256   .debug_str:0000000000000791 .LASF36
C:\Users\stapi\AppData\Local\Temp\ccr4dOYe.s:5518   .debug_str:0000000000001429 .LASF37
C:\Users\stapi\AppData\Local\Temp\ccr4dOYe.s:5142   .debug_str:0000000000000080 .LASF38
C:\Users\stapi\AppData\Local\Temp\ccr4dOYe.s:5196   .debug_str:0000000000000445 .LASF39
C:\Users\stapi\AppData\Local\Temp\ccr4dOYe.s:5492   .debug_str:00000000000012fd .LASF40
C:\Users\stapi\AppData\Local\Temp\ccr4dOYe.s:5250   .debug_str:00000000000006c5 .LASF41
C:\Users\stapi\AppData\Local\Temp\ccr4dOYe.s:5354   .debug_str:0000000000000c62 .LASF42
C:\Users\stapi\AppData\Local\Temp\ccr4dOYe.s:5478   .debug_str:000000000000128a .LASF43
C:\Users\stapi\AppData\Local\Temp\ccr4dOYe.s:5162   .debug_str:0000000000000256 .LASF44
C:\Users\stapi\AppData\Local\Temp\ccr4dOYe.s:5550   .debug_str:000000000000159d .LASF45
C:\Users\stapi\AppData\Local\Temp\ccr4dOYe.s:5436   .debug_str:0000000000000fd0 .LASF46
C:\Users\stapi\AppData\Local\Temp\ccr4dOYe.s:5278   .debug_str:0000000000000882 .LASF47
C:\Users\stapi\AppData\Local\Temp\ccr4dOYe.s:5208   .debug_str:00000000000004c7 .LASF48
C:\Users\stapi\AppData\Local\Temp\ccr4dOYe.s:5184   .debug_str:0000000000000397 .LASF49
C:\Users\stapi\AppData\Local\Temp\ccr4dOYe.s:5466   .debug_str:00000000000011c8 .LASF50
C:\Users\stapi\AppData\Local\Temp\ccr4dOYe.s:5562   .debug_str:0000000000001643 .LASF51
C:\Users\stapi\AppData\Local\Temp\ccr4dOYe.s:5462   .debug_str:000000000000118c .LASF52
C:\Users\stapi\AppData\Local\Temp\ccr4dOYe.s:5132   .debug_str:000000000000000f .LASF53
C:\Users\stapi\AppData\Local\Temp\ccr4dOYe.s:5172   .debug_str:00000000000002de .LASF54
C:\Users\stapi\AppData\Local\Temp\ccr4dOYe.s:5182   .debug_str:0000000000000378 .LASF55
C:\Users\stapi\AppData\Local\Temp\ccr4dOYe.s:5472   .debug_str:000000000000122f .LASF56
C:\Users\stapi\AppData\Local\Temp\ccr4dOYe.s:5298   .debug_str:0000000000000968 .LASF57
C:\Users\stapi\AppData\Local\Temp\ccr4dOYe.s:5398   .debug_str:0000000000000e34 .LASF58
C:\Users\stapi\AppData\Local\Temp\ccr4dOYe.s:5214   .debug_str:0000000000000519 .LASF59
C:\Users\stapi\AppData\Local\Temp\ccr4dOYe.s:5620   .debug_str:00000000000018d0 .LASF60
C:\Users\stapi\AppData\Local\Temp\ccr4dOYe.s:5632   .debug_str:0000000000001949 .LASF61
C:\Users\stapi\AppData\Local\Temp\ccr4dOYe.s:5530   .debug_str:00000000000014c3 .LASF62
C:\Users\stapi\AppData\Local\Temp\ccr4dOYe.s:5602   .debug_str:00000000000017f4 .LASF63
C:\Users\stapi\AppData\Local\Temp\ccr4dOYe.s:5248   .debug_str:00000000000006ac .LASF64
C:\Users\stapi\AppData\Local\Temp\ccr4dOYe.s:5300   .debug_str:0000000000000986 .LASF65
C:\Users\stapi\AppData\Local\Temp\ccr4dOYe.s:5442   .debug_str:000000000000101e .LASF66
C:\Users\stapi\AppData\Local\Temp\ccr4dOYe.s:5514   .debug_str:0000000000001402 .LASF67
C:\Users\stapi\AppData\Local\Temp\ccr4dOYe.s:5312   .debug_str:0000000000000a20 .LASF68
C:\Users\stapi\AppData\Local\Temp\ccr4dOYe.s:5290   .debug_str:0000000000000910 .LASF69
C:\Users\stapi\AppData\Local\Temp\ccr4dOYe.s:5496   .debug_str:0000000000001333 .LASF70
C:\Users\stapi\AppData\Local\Temp\ccr4dOYe.s:5264   .debug_str:000000000000080a .LASF71
C:\Users\stapi\AppData\Local\Temp\ccr4dOYe.s:5180   .debug_str:0000000000000359 .LASF72
C:\Users\stapi\AppData\Local\Temp\ccr4dOYe.s:5540   .debug_str:0000000000001514 .LASF73
C:\Users\stapi\AppData\Local\Temp\ccr4dOYe.s:5348   .debug_str:0000000000000c0d .LASF74
C:\Users\stapi\AppData\Local\Temp\ccr4dOYe.s:5344   .debug_str:0000000000000bcf .LASF75
C:\Users\stapi\AppData\Local\Temp\ccr4dOYe.s:5384   .debug_str:0000000000000d9d .LASF76
C:\Users\stapi\AppData\Local\Temp\ccr4dOYe.s:5522   .debug_str:0000000000001461 .LASF77
C:\Users\stapi\AppData\Local\Temp\ccr4dOYe.s:5538   .debug_str:00000000000014f5 .LASF78
C:\Users\stapi\AppData\Local\Temp\ccr4dOYe.s:5524   .debug_str:000000000000147b .LASF79
C:\Users\stapi\AppData\Local\Temp\ccr4dOYe.s:5232   .debug_str:00000000000005f3 .LASF80
C:\Users\stapi\AppData\Local\Temp\ccr4dOYe.s:5606   .debug_str:000000000000182d .LASF81
C:\Users\stapi\AppData\Local\Temp\ccr4dOYe.s:5604   .debug_str:0000000000001810 .LASF82
C:\Users\stapi\AppData\Local\Temp\ccr4dOYe.s:5570   .debug_str:0000000000001693 .LASF83
C:\Users\stapi\AppData\Local\Temp\ccr4dOYe.s:5618   .debug_str:00000000000018b0 .LASF84
C:\Users\stapi\AppData\Local\Temp\ccr4dOYe.s:5420   .debug_str:0000000000000f1d .LASF85
C:\Users\stapi\AppData\Local\Temp\ccr4dOYe.s:5424   .debug_str:0000000000000f54 .LASF86
C:\Users\stapi\AppData\Local\Temp\ccr4dOYe.s:5320   .debug_str:0000000000000a93 .LASF87
C:\Users\stapi\AppData\Local\Temp\ccr4dOYe.s:5144   .debug_str:00000000000000a0 .LASF88
C:\Users\stapi\AppData\Local\Temp\ccr4dOYe.s:5560   .debug_str:0000000000001627 .LASF89
C:\Users\stapi\AppData\Local\Temp\ccr4dOYe.s:5456   .debug_str:0000000000001145 .LASF90
C:\Users\stapi\AppData\Local\Temp\ccr4dOYe.s:5346   .debug_str:0000000000000bed .LASF91
C:\Users\stapi\AppData\Local\Temp\ccr4dOYe.s:5342   .debug_str:0000000000000bb0 .LASF92
C:\Users\stapi\AppData\Local\Temp\ccr4dOYe.s:5410   .debug_str:0000000000000ebb .LASF93
C:\Users\stapi\AppData\Local\Temp\ccr4dOYe.s:5168   .debug_str:00000000000002a5 .LASF94
C:\Users\stapi\AppData\Local\Temp\ccr4dOYe.s:5610   .debug_str:0000000000001860 .LASF95
C:\Users\stapi\AppData\Local\Temp\ccr4dOYe.s:5204   .debug_str:0000000000000495 .LASF96
C:\Users\stapi\AppData\Local\Temp\ccr4dOYe.s:5444   .debug_str:0000000000001039 .LASF97
C:\Users\stapi\AppData\Local\Temp\ccr4dOYe.s:5588   .debug_str:0000000000001772 .LASF98
C:\Users\stapi\AppData\Local\Temp\ccr4dOYe.s:5156   .debug_str:0000000000000201 .LASF99
C:\Users\stapi\AppData\Local\Temp\ccr4dOYe.s:5564   .debug_str:0000000000001661 .LASF100
C:\Users\stapi\AppData\Local\Temp\ccr4dOYe.s:5612   .debug_str:000000000000187a .LASF101
C:\Users\stapi\AppData\Local\Temp\ccr4dOYe.s:5138   .debug_str:0000000000000055 .LASF102
C:\Users\stapi\AppData\Local\Temp\ccr4dOYe.s:5390   .debug_str:0000000000000ddd .LASF103
C:\Users\stapi\AppData\Local\Temp\ccr4dOYe.s:5212   .debug_str:00000000000004f8 .LASF104
C:\Users\stapi\AppData\Local\Temp\ccr4dOYe.s:5654   .debug_str:0000000000001a60 .LASF105
C:\Users\stapi\AppData\Local\Temp\ccr4dOYe.s:5218   .debug_str:0000000000000544 .LASF106
C:\Users\stapi\AppData\Local\Temp\ccr4dOYe.s:5464   .debug_str:00000000000011a6 .LASF107
C:\Users\stapi\AppData\Local\Temp\ccr4dOYe.s:5648   .debug_str:0000000000001a05 .LASF108
C:\Users\stapi\AppData\Local\Temp\ccr4dOYe.s:5642   .debug_str:00000000000019a9 .LASF109
C:\Users\stapi\AppData\Local\Temp\ccr4dOYe.s:5206   .debug_str:00000000000004ae .LASF110
C:\Users\stapi\AppData\Local\Temp\ccr4dOYe.s:5422   .debug_str:0000000000000f3c .LASF111
C:\Users\stapi\AppData\Local\Temp\ccr4dOYe.s:5340   .debug_str:0000000000000b8f .LASF112
C:\Users\stapi\AppData\Local\Temp\ccr4dOYe.s:5192   .debug_str:0000000000000415 .LASF113
C:\Users\stapi\AppData\Local\Temp\ccr4dOYe.s:5266   .debug_str:0000000000000826 .LASF114
C:\Users\stapi\AppData\Local\Temp\ccr4dOYe.s:5188   .debug_str:00000000000003d9 .LASF115
C:\Users\stapi\AppData\Local\Temp\ccr4dOYe.s:5216   .debug_str:000000000000052c .LASF116
C:\Users\stapi\AppData\Local\Temp\ccr4dOYe.s:5594   .debug_str:00000000000017ae .LASF117
C:\Users\stapi\AppData\Local\Temp\ccr4dOYe.s:5164   .debug_str:0000000000000274 .LASF118
C:\Users\stapi\AppData\Local\Temp\ccr4dOYe.s:5136   .debug_str:000000000000003d .LASF119
C:\Users\stapi\AppData\Local\Temp\ccr4dOYe.s:5226   .debug_str:00000000000005ba .LASF120
C:\Users\stapi\AppData\Local\Temp\ccr4dOYe.s:5598   .debug_str:00000000000017d3 .LASF121
C:\Users\stapi\AppData\Local\Temp\ccr4dOYe.s:5194   .debug_str:000000000000042d .LASF122
C:\Users\stapi\AppData\Local\Temp\ccr4dOYe.s:5334   .debug_str:0000000000000b47 .LASF123
C:\Users\stapi\AppData\Local\Temp\ccr4dOYe.s:5146   .debug_str:00000000000000c8 .LASF124
C:\Users\stapi\AppData\Local\Temp\ccr4dOYe.s:5224   .debug_str:000000000000059d .LASF125
C:\Users\stapi\AppData\Local\Temp\ccr4dOYe.s:5544   .debug_str:0000000000001555 .LASF126
C:\Users\stapi\AppData\Local\Temp\ccr4dOYe.s:5310   .debug_str:00000000000009f8 .LASF127
C:\Users\stapi\AppData\Local\Temp\ccr4dOYe.s:5584   .debug_str:000000000000172f .LASF128
C:\Users\stapi\AppData\Local\Temp\ccr4dOYe.s:5282   .debug_str:00000000000008c1 .LASF129
C:\Users\stapi\AppData\Local\Temp\ccr4dOYe.s:5586   .debug_str:0000000000001757 .LASF130
C:\Users\stapi\AppData\Local\Temp\ccr4dOYe.s:5330   .debug_str:0000000000000b0c .LASF131
C:\Users\stapi\AppData\Local\Temp\ccr4dOYe.s:5252   .debug_str:00000000000006de .LASF132
C:\Users\stapi\AppData\Local\Temp\ccr4dOYe.s:5186   .debug_str:00000000000003b2 .LASF133
C:\Users\stapi\AppData\Local\Temp\ccr4dOYe.s:5396   .debug_str:0000000000000e1c .LASF134
C:\Users\stapi\AppData\Local\Temp\ccr4dOYe.s:5460   .debug_str:000000000000116c .LASF135
C:\Users\stapi\AppData\Local\Temp\ccr4dOYe.s:5296   .debug_str:000000000000094d .LASF136
C:\Users\stapi\AppData\Local\Temp\ccr4dOYe.s:5470   .debug_str:0000000000001212 .LASF137
C:\Users\stapi\AppData\Local\Temp\ccr4dOYe.s:5260   .debug_str:00000000000007d2 .LASF138
C:\Users\stapi\AppData\Local\Temp\ccr4dOYe.s:5452   .debug_str:0000000000001108 .LASF139
C:\Users\stapi\AppData\Local\Temp\ccr4dOYe.s:5198   .debug_str:0000000000000467 .LASF140
C:\Users\stapi\AppData\Local\Temp\ccr4dOYe.s:5190   .debug_str:00000000000003f7 .LASF141
C:\Users\stapi\AppData\Local\Temp\ccr4dOYe.s:5322   .debug_str:0000000000000ab4 .LASF142
C:\Users\stapi\AppData\Local\Temp\ccr4dOYe.s:5370   .debug_str:0000000000000d01 .LASF143
C:\Users\stapi\AppData\Local\Temp\ccr4dOYe.s:5590   .debug_str:000000000000178c .LASF144
C:\Users\stapi\AppData\Local\Temp\ccr4dOYe.s:5640   .debug_str:0000000000001992 .LASF145
C:\Users\stapi\AppData\Local\Temp\ccr4dOYe.s:5414   .debug_str:0000000000000ed6 .LASF146
C:\Users\stapi\AppData\Local\Temp\ccr4dOYe.s:5222   .debug_str:000000000000057c .LASF147
C:\Users\stapi\AppData\Local\Temp\ccr4dOYe.s:5332   .debug_str:0000000000000b2d .LASF148
C:\Users\stapi\AppData\Local\Temp\ccr4dOYe.s:5500   .debug_str:0000000000001353 .LASF149
C:\Users\stapi\AppData\Local\Temp\ccr4dOYe.s:5174   .debug_str:00000000000002fc .LASF150
C:\Users\stapi\AppData\Local\Temp\ccr4dOYe.s:5636   .debug_str:000000000000196b .LASF151
C:\Users\stapi\AppData\Local\Temp\ccr4dOYe.s:5556   .debug_str:00000000000015e5 .LASF152
C:\Users\stapi\AppData\Local\Temp\ccr4dOYe.s:5306   .debug_str:00000000000009c9 .LASF153
C:\Users\stapi\AppData\Local\Temp\ccr4dOYe.s:5238   .debug_str:000000000000062e .LASF154
C:\Users\stapi\AppData\Local\Temp\ccr4dOYe.s:5582   .debug_str:000000000000170b .LASF155
C:\Users\stapi\AppData\Local\Temp\ccr4dOYe.s:5338   .debug_str:0000000000000b6e .LASF156
C:\Users\stapi\AppData\Local\Temp\ccr4dOYe.s:5380   .debug_str:0000000000000d65 .LASF157
C:\Users\stapi\AppData\Local\Temp\ccr4dOYe.s:5408   .debug_str:0000000000000e9b .LASF158
C:\Users\stapi\AppData\Local\Temp\ccr4dOYe.s:5170   .debug_str:00000000000002bc .LASF159
C:\Users\stapi\AppData\Local\Temp\ccr4dOYe.s:5558   .debug_str:0000000000001606 .LASF160
C:\Users\stapi\AppData\Local\Temp\ccr4dOYe.s:5652   .debug_str:0000000000001a3f .LASF161
C:\Users\stapi\AppData\Local\Temp\ccr4dOYe.s:5280   .debug_str:000000000000089e .LASF162
C:\Users\stapi\AppData\Local\Temp\ccr4dOYe.s:5350   .debug_str:0000000000000c2c .LASF163
C:\Users\stapi\AppData\Local\Temp\ccr4dOYe.s:5160   .debug_str:0000000000000233 .LASF164
C:\Users\stapi\AppData\Local\Temp\ccr4dOYe.s:5432   .debug_str:0000000000000f9b .LASF165
C:\Users\stapi\AppData\Local\Temp\ccr4dOYe.s:5476   .debug_str:0000000000001264 .LASF166
C:\Users\stapi\AppData\Local\Temp\ccr4dOYe.s:5650   .debug_str:0000000000001a24 .LASF167
C:\Users\stapi\AppData\Local\Temp\ccr4dOYe.s:5512   .debug_str:00000000000013d8 .LASF168
C:\Users\stapi\AppData\Local\Temp\ccr4dOYe.s:5244   .debug_str:000000000000067a .LASF169
C:\Users\stapi\AppData\Local\Temp\ccr4dOYe.s:5318   .debug_str:0000000000000a7f .LASF170
C:\Users\stapi\AppData\Local\Temp\ccr4dOYe.s:5526   .debug_str:0000000000001490 .LASF171
C:\Users\stapi\AppData\Local\Temp\ccr4dOYe.s:5378   .debug_str:0000000000000d49 .LASF172
C:\Users\stapi\AppData\Local\Temp\ccr4dOYe.s:5440   .debug_str:0000000000000ffb .LASF173
C:\Users\stapi\AppData\Local\Temp\ccr4dOYe.s:5314   .debug_str:0000000000000a40 .LASF174
C:\Users\stapi\AppData\Local\Temp\ccr4dOYe.s:5494   .debug_str:0000000000001310 .LASF175
C:\Users\stapi\AppData\Local\Temp\ccr4dOYe.s:5484   .debug_str:00000000000012b6 .LASF176
C:\Users\stapi\AppData\Local\Temp\ccr4dOYe.s:5552   .debug_str:00000000000015b8 .LASF177
C:\Users\stapi\AppData\Local\Temp\ccr4dOYe.s:5220   .debug_str:000000000000055f .LASF178
C:\Users\stapi\AppData\Local\Temp\ccr4dOYe.s:5366   .debug_str:0000000000000ccf .LASF179
C:\Users\stapi\AppData\Local\Temp\ccr4dOYe.s:5576   .debug_str:00000000000016c7 .LASF180
C:\Users\stapi\AppData\Local\Temp\ccr4dOYe.s:5326   .debug_str:0000000000000ad7 .LASF181
C:\Users\stapi\AppData\Local\Temp\ccr4dOYe.s:5656   .debug_str:0000000000001a81 .LASF182
C:\Users\stapi\AppData\Local\Temp\ccr4dOYe.s:5262   .debug_str:00000000000007ed .LASF183
C:\Users\stapi\AppData\Local\Temp\ccr4dOYe.s:5152   .debug_str:00000000000001d8 .LASF184
C:\Users\stapi\AppData\Local\Temp\ccr4dOYe.s:5376   .debug_str:0000000000000d3c .LASF185
C:\Users\stapi\AppData\Local\Temp\ccr4dOYe.s:5258   .debug_str:00000000000007b8 .LASF186
C:\Users\stapi\AppData\Local\Temp\ccr4dOYe.s:5230   .debug_str:00000000000005e6 .LASF187
C:\Users\stapi\AppData\Local\Temp\ccr4dOYe.s:5644   .debug_str:00000000000019bf .LASF188
C:\Users\stapi\AppData\Local\Temp\ccr4dOYe.s:5510   .debug_str:00000000000013a5 .LASF189
C:\Users\stapi\AppData\Local\Temp\ccr4dOYe.s:5176   .debug_str:000000000000031b .LASF190
C:\Users\stapi\AppData\Local\Temp\ccr4dOYe.s:5646   .debug_str:00000000000019d3 .LASF191
C:\Users\stapi\AppData\Local\Temp\ccr4dOYe.s:5508   .debug_str:0000000000001394 .LASF192
C:\Users\stapi\AppData\Local\Temp\ccr4dOYe.s:5434   .debug_str:0000000000000fbb .LASF193
C:\Users\stapi\AppData\Local\Temp\ccr4dOYe.s:5386   .debug_str:0000000000000dbd .LASF194
C:\Users\stapi\AppData\Local\Temp\ccr4dOYe.s:5166   .debug_str:0000000000000294 .LASF195
C:\Users\stapi\AppData\Local\Temp\ccr4dOYe.s:5274   .debug_str:0000000000000864 .LASF196
C:\Users\stapi\AppData\Local\Temp\ccr4dOYe.s:5624   .debug_str:00000000000018fb .LASF197
C:\Users\stapi\AppData\Local\Temp\ccr4dOYe.s:5438   .debug_str:0000000000000fe1 .LASF198
C:\Users\stapi\AppData\Local\Temp\ccr4dOYe.s:5358   .debug_str:0000000000000c83 .LASF199
C:\Users\stapi\AppData\Local\Temp\ccr4dOYe.s:5634   .debug_str:0000000000001960 .LASF200
C:\Users\stapi\AppData\Local\Temp\ccr4dOYe.s:5520   .debug_str:000000000000144f .LASF201
C:\Users\stapi\AppData\Local\Temp\ccr4dOYe.s:5638   .debug_str:0000000000001981 .LASF202
C:\Users\stapi\AppData\Local\Temp\ccr4dOYe.s:5426   .debug_str:0000000000000f72 .LASF203
C:\Users\stapi\AppData\Local\Temp\ccr4dOYe.s:5374   .debug_str:0000000000000d2d .LASF204
C:\Users\stapi\AppData\Local\Temp\ccr4dOYe.s:5578   .debug_str:00000000000016e8 .LASF205
C:\Users\stapi\AppData\Local\Temp\ccr4dOYe.s:5294   .debug_str:000000000000093c .LASF206
C:\Users\stapi\AppData\Local\Temp\ccr4dOYe.s:5504   .debug_str:000000000000136f .LASF207
C:\Users\stapi\AppData\Local\Temp\ccr4dOYe.s:5548   .debug_str:000000000000158a .LASF208
C:\Users\stapi\AppData\Local\Temp\ccr4dOYe.s:5382   .debug_str:0000000000000d87 .LASF209
C:\Users\stapi\AppData\Local\Temp\ccr4dOYe.s:5304   .debug_str:00000000000009b5 .LASF210
C:\Users\stapi\AppData\Local\Temp\ccr4dOYe.s:5412   .debug_str:0000000000000ecf .LASF211
C:\Users\stapi\AppData\Local\Temp\ccr4dOYe.s:5178   .debug_str:0000000000000348 .LASF216
C:\Users\stapi\AppData\Local\Temp\ccr4dOYe.s:5328   .debug_str:0000000000000af5 .LASF213
C:\Users\stapi\AppData\Local\Temp\ccr4dOYe.s:5608   .debug_str:0000000000001850 .LASF218
C:\Users\stapi\AppData\Local\Temp\ccr4dOYe.s:1123   .text.iotx_report_mid:0000000000000000 .LFB31
C:\Users\stapi\AppData\Local\Temp\ccr4dOYe.s:1155   .text.iotx_report_mid:0000000000000042 .LFE31
C:\Users\stapi\AppData\Local\Temp\ccr4dOYe.s:5628   .debug_str:000000000000191f .LASF214
C:\Users\stapi\AppData\Local\Temp\ccr4dOYe.s:4560   .debug_loc:0000000000000000 .LLST27
C:\Users\stapi\AppData\Local\Temp\ccr4dOYe.s:1136   .text.iotx_report_mid:0000000000000018 .LVL136
C:\Users\stapi\AppData\Local\Temp\ccr4dOYe.s:1141   .text.iotx_report_mid:0000000000000028 .LVL137
C:\Users\stapi\AppData\Local\Temp\ccr4dOYe.s:1146   .text.iotx_report_mid:0000000000000038 .LVL138
C:\Users\stapi\AppData\Local\Temp\ccr4dOYe.s:5242   .debug_str:000000000000065f .LASF229
C:\Users\stapi\AppData\Local\Temp\ccr4dOYe.s:1041   .text.iotx_report_connect_status:0000000000000000 .LFB30
C:\Users\stapi\AppData\Local\Temp\ccr4dOYe.s:1109   .text.iotx_report_connect_status:0000000000000074 .LFE30
C:\Users\stapi\AppData\Local\Temp\ccr4dOYe.s:4574   .debug_loc:0000000000000021 .LLST24
C:\Users\stapi\AppData\Local\Temp\ccr4dOYe.s:5336   .debug_str:0000000000000b64 .LASF215
C:\Users\stapi\AppData\Local\Temp\ccr4dOYe.s:4585   .debug_loc:000000000000003f .LLST25
C:\Users\stapi\AppData\Local\Temp\ccr4dOYe.s:5614   .debug_str:0000000000001898 .LASF217
C:\Users\stapi\AppData\Local\Temp\ccr4dOYe.s:4602   .debug_loc:000000000000006c .LLST26
C:\Users\stapi\AppData\Local\Temp\ccr4dOYe.s:1065   .text.iotx_report_connect_status:0000000000000020 .LVL128
C:\Users\stapi\AppData\Local\Temp\ccr4dOYe.s:1072   .text.iotx_report_connect_status:0000000000000028 .LVL129
C:\Users\stapi\AppData\Local\Temp\ccr4dOYe.s:1085   .text.iotx_report_connect_status:000000000000004a .LVL130
C:\Users\stapi\AppData\Local\Temp\ccr4dOYe.s:1098   .text.iotx_report_connect_status:000000000000006a .LVL132
C:\Users\stapi\AppData\Local\Temp\ccr4dOYe.s:5542   .debug_str:0000000000001538 .LASF219
C:\Users\stapi\AppData\Local\Temp\ccr4dOYe.s:782    .text.iotx_report_firmware_version:0000000000000000 .LFB29
C:\Users\stapi\AppData\Local\Temp\ccr4dOYe.s:1021   .text.iotx_report_firmware_version:00000000000001b0 .LFE29
C:\Users\stapi\AppData\Local\Temp\ccr4dOYe.s:4614   .debug_loc:000000000000008b .LLST22
C:\Users\stapi\AppData\Local\Temp\ccr4dOYe.s:4625   .debug_loc:00000000000000a9 .LLST23
C:\Users\stapi\AppData\Local\Temp\ccr4dOYe.s:5308   .debug_str:00000000000009ed .LASF220
C:\Users\stapi\AppData\Local\Temp\ccr4dOYe.s:5498   .debug_str:000000000000134b .LASF221
C:\Users\stapi\AppData\Local\Temp\ccr4dOYe.s:807    .text.iotx_report_firmware_version:0000000000000020 .LVL94
C:\Users\stapi\AppData\Local\Temp\ccr4dOYe.s:815    .text.iotx_report_firmware_version:0000000000000032 .LVL95
C:\Users\stapi\AppData\Local\Temp\ccr4dOYe.s:829    .text.iotx_report_firmware_version:000000000000004c .LVL96
C:\Users\stapi\AppData\Local\Temp\ccr4dOYe.s:839    .text.iotx_report_firmware_version:0000000000000060 .LVL97
C:\Users\stapi\AppData\Local\Temp\ccr4dOYe.s:846    .text.iotx_report_firmware_version:0000000000000070 .LVL98
C:\Users\stapi\AppData\Local\Temp\ccr4dOYe.s:851    .text.iotx_report_firmware_version:0000000000000080 .LVL99
C:\Users\stapi\AppData\Local\Temp\ccr4dOYe.s:875    .text.iotx_report_firmware_version:000000000000009a .LVL100
C:\Users\stapi\AppData\Local\Temp\ccr4dOYe.s:886    .text.iotx_report_firmware_version:00000000000000b0 .LVL102
C:\Users\stapi\AppData\Local\Temp\ccr4dOYe.s:893    .text.iotx_report_firmware_version:00000000000000c0 .LVL103
C:\Users\stapi\AppData\Local\Temp\ccr4dOYe.s:898    .text.iotx_report_firmware_version:00000000000000d0 .LVL104
C:\Users\stapi\AppData\Local\Temp\ccr4dOYe.s:908    .text.iotx_report_firmware_version:00000000000000dc .LVL105
C:\Users\stapi\AppData\Local\Temp\ccr4dOYe.s:918    .text.iotx_report_firmware_version:00000000000000f0 .LVL107
C:\Users\stapi\AppData\Local\Temp\ccr4dOYe.s:936    .text.iotx_report_firmware_version:0000000000000116 .LVL110
C:\Users\stapi\AppData\Local\Temp\ccr4dOYe.s:946    .text.iotx_report_firmware_version:000000000000012a .LVL112
C:\Users\stapi\AppData\Local\Temp\ccr4dOYe.s:957    .text.iotx_report_firmware_version:000000000000013c .LVL114
C:\Users\stapi\AppData\Local\Temp\ccr4dOYe.s:965    .text.iotx_report_firmware_version:0000000000000156 .LVL115
C:\Users\stapi\AppData\Local\Temp\ccr4dOYe.s:975    .text.iotx_report_firmware_version:000000000000016a .LVL117
C:\Users\stapi\AppData\Local\Temp\ccr4dOYe.s:988    .text.iotx_report_firmware_version:000000000000017e .LVL120
C:\Users\stapi\AppData\Local\Temp\ccr4dOYe.s:999    .text.iotx_report_firmware_version:000000000000018c .LVL121
C:\Users\stapi\AppData\Local\Temp\ccr4dOYe.s:1010   .text.iotx_report_firmware_version:00000000000001a2 .LVL123
C:\Users\stapi\AppData\Local\Temp\ccr4dOYe.s:5288   .debug_str:00000000000008fc .LASF222
C:\Users\stapi\AppData\Local\Temp\ccr4dOYe.s:323    .text.iotx_report_devinfo:0000000000000000 .LFB28
C:\Users\stapi\AppData\Local\Temp\ccr4dOYe.s:756    .text.iotx_report_devinfo:0000000000000316 .LFE28
C:\Users\stapi\AppData\Local\Temp\ccr4dOYe.s:4664   .debug_loc:0000000000000114 .LLST16
C:\Users\stapi\AppData\Local\Temp\ccr4dOYe.s:4675   .debug_loc:0000000000000132 .LLST17
C:\Users\stapi\AppData\Local\Temp\ccr4dOYe.s:4729   .debug_loc:00000000000001c2 .LLST18
C:\Users\stapi\AppData\Local\Temp\ccr4dOYe.s:5592   .debug_str:00000000000017a3 .LASF223
C:\Users\stapi\AppData\Local\Temp\ccr4dOYe.s:5356   .debug_str:0000000000000c79 .LASF224
C:\Users\stapi\AppData\Local\Temp\ccr4dOYe.s:5480   .debug_str:00000000000012a4 .LASF225
C:\Users\stapi\AppData\Local\Temp\ccr4dOYe.s:5158   .debug_str:0000000000000220 .LASF226
C:\Users\stapi\AppData\Local\Temp\ccr4dOYe.s:4741   .debug_loc:00000000000001e1 .LLST19
C:\Users\stapi\AppData\Local\Temp\ccr4dOYe.s:5200   .debug_str:0000000000000484 .LASF227
C:\Users\stapi\AppData\Local\Temp\ccr4dOYe.s:4779   .debug_loc:0000000000000244 .LLST20
C:\Users\stapi\AppData\Local\Temp\ccr4dOYe.s:581    .text.iotx_report_devinfo:00000000000001b2 .LBB2
C:\Users\stapi\AppData\Local\Temp\ccr4dOYe.s:610    .text.iotx_report_devinfo:00000000000001fa .LBE2
C:\Users\stapi\AppData\Local\Temp\ccr4dOYe.s:5418   .debug_str:0000000000000f08 .LASF228
C:\Users\stapi\AppData\Local\Temp\ccr4dOYe.s:4805   .debug_loc:0000000000000286 .LLST21
C:\Users\stapi\AppData\Local\Temp\ccr4dOYe.s:588    .text.iotx_report_devinfo:00000000000001c2 .LVL63
C:\Users\stapi\AppData\Local\Temp\ccr4dOYe.s:594    .text.iotx_report_devinfo:00000000000001d4 .LVL64
C:\Users\stapi\AppData\Local\Temp\ccr4dOYe.s:599    .text.iotx_report_devinfo:00000000000001e4 .LVL65
C:\Users\stapi\AppData\Local\Temp\ccr4dOYe.s:608    .text.iotx_report_devinfo:00000000000001fa .LVL66
C:\Users\stapi\AppData\Local\Temp\ccr4dOYe.s:364    .text.iotx_report_devinfo:0000000000000028 .LVL28
C:\Users\stapi\AppData\Local\Temp\ccr4dOYe.s:372    .text.iotx_report_devinfo:000000000000003a .LVL29
C:\Users\stapi\AppData\Local\Temp\ccr4dOYe.s:383    .text.iotx_report_devinfo:0000000000000052 .LVL30
C:\Users\stapi\AppData\Local\Temp\ccr4dOYe.s:395    .text.iotx_report_devinfo:0000000000000068 .LVL31
C:\Users\stapi\AppData\Local\Temp\ccr4dOYe.s:403    .text.iotx_report_devinfo:0000000000000078 .LVL33
C:\Users\stapi\AppData\Local\Temp\ccr4dOYe.s:410    .text.iotx_report_devinfo:0000000000000088 .LVL34
C:\Users\stapi\AppData\Local\Temp\ccr4dOYe.s:419    .text.iotx_report_devinfo:0000000000000094 .LVL36
C:\Users\stapi\AppData\Local\Temp\ccr4dOYe.s:430    .text.iotx_report_devinfo:00000000000000aa .LVL38
C:\Users\stapi\AppData\Local\Temp\ccr4dOYe.s:435    .text.iotx_report_devinfo:00000000000000ba .LVL39
C:\Users\stapi\AppData\Local\Temp\ccr4dOYe.s:440    .text.iotx_report_devinfo:00000000000000ca .LVL40
C:\Users\stapi\AppData\Local\Temp\ccr4dOYe.s:463    .text.iotx_report_devinfo:00000000000000e2 .LVL42
C:\Users\stapi\AppData\Local\Temp\ccr4dOYe.s:467    .text.iotx_report_devinfo:00000000000000ec .LVL43
C:\Users\stapi\AppData\Local\Temp\ccr4dOYe.s:473    .text.iotx_report_devinfo:00000000000000fa .LVL44
C:\Users\stapi\AppData\Local\Temp\ccr4dOYe.s:482    .text.iotx_report_devinfo:0000000000000106 .LVL45
C:\Users\stapi\AppData\Local\Temp\ccr4dOYe.s:496    .text.iotx_report_devinfo:0000000000000116 .LVL48
C:\Users\stapi\AppData\Local\Temp\ccr4dOYe.s:512    .text.iotx_report_devinfo:000000000000012e .LVL50
C:\Users\stapi\AppData\Local\Temp\ccr4dOYe.s:522    .text.iotx_report_devinfo:0000000000000144 .LVL51
C:\Users\stapi\AppData\Local\Temp\ccr4dOYe.s:532    .text.iotx_report_devinfo:0000000000000156 .LVL53
C:\Users\stapi\AppData\Local\Temp\ccr4dOYe.s:550    .text.iotx_report_devinfo:000000000000017c .LVL56
C:\Users\stapi\AppData\Local\Temp\ccr4dOYe.s:560    .text.iotx_report_devinfo:0000000000000190 .LVL58
C:\Users\stapi\AppData\Local\Temp\ccr4dOYe.s:573    .text.iotx_report_devinfo:00000000000001a4 .LVL61
C:\Users\stapi\AppData\Local\Temp\ccr4dOYe.s:617    .text.iotx_report_devinfo:000000000000020c .LVL67
C:\Users\stapi\AppData\Local\Temp\ccr4dOYe.s:623    .text.iotx_report_devinfo:0000000000000218 .LVL69
C:\Users\stapi\AppData\Local\Temp\ccr4dOYe.s:635    .text.iotx_report_devinfo:000000000000022c .LVL71
C:\Users\stapi\AppData\Local\Temp\ccr4dOYe.s:647    .text.iotx_report_devinfo:0000000000000240 .LVL74
C:\Users\stapi\AppData\Local\Temp\ccr4dOYe.s:658    .text.iotx_report_devinfo:0000000000000256 .LVL76
C:\Users\stapi\AppData\Local\Temp\ccr4dOYe.s:664    .text.iotx_report_devinfo:0000000000000262 .LVL77
C:\Users\stapi\AppData\Local\Temp\ccr4dOYe.s:674    .text.iotx_report_devinfo:0000000000000280 .LVL78
C:\Users\stapi\AppData\Local\Temp\ccr4dOYe.s:685    .text.iotx_report_devinfo:0000000000000296 .LVL80
C:\Users\stapi\AppData\Local\Temp\ccr4dOYe.s:690    .text.iotx_report_devinfo:00000000000002a6 .LVL81
C:\Users\stapi\AppData\Local\Temp\ccr4dOYe.s:695    .text.iotx_report_devinfo:00000000000002b6 .LVL82
C:\Users\stapi\AppData\Local\Temp\ccr4dOYe.s:700    .text.iotx_report_devinfo:00000000000002c0 .LVL83
C:\Users\stapi\AppData\Local\Temp\ccr4dOYe.s:721    .text.iotx_report_devinfo:00000000000002d4 .LVL86
C:\Users\stapi\AppData\Local\Temp\ccr4dOYe.s:729    .text.iotx_report_devinfo:00000000000002e0 .LVL87
C:\Users\stapi\AppData\Local\Temp\ccr4dOYe.s:736    .text.iotx_report_devinfo:00000000000002ec .LVL89
C:\Users\stapi\AppData\Local\Temp\ccr4dOYe.s:747    .text.iotx_report_devinfo:0000000000000302 .LVL90
C:\Users\stapi\AppData\Local\Temp\ccr4dOYe.s:753    .text.iotx_report_devinfo:0000000000000314 .LVL91
C:\Users\stapi\AppData\Local\Temp\ccr4dOYe.s:5568   .debug_str:0000000000001681 .LASF230
C:\Users\stapi\AppData\Local\Temp\ccr4dOYe.s:268    .text.aos_get_chip_code:0000000000000000 .LFB27
C:\Users\stapi\AppData\Local\Temp\ccr4dOYe.s:279    .text.aos_get_chip_code:0000000000000012 .LFE27
C:\Users\stapi\AppData\Local\Temp\ccr4dOYe.s:4814   .debug_loc:000000000000029e .LLST15
C:\Users\stapi\AppData\Local\Temp\ccr4dOYe.s:277    .text.aos_get_chip_code:0000000000000012 .LVL24
C:\Users\stapi\AppData\Local\Temp\ccr4dOYe.s:5428   .debug_str:0000000000000f7e .LASF231
C:\Users\stapi\AppData\Local\Temp\ccr4dOYe.s:246    .text.aos_get_mac_hex:0000000000000000 .LFB26
C:\Users\stapi\AppData\Local\Temp\ccr4dOYe.s:257    .text.aos_get_mac_hex:0000000000000012 .LFE26
C:\Users\stapi\AppData\Local\Temp\ccr4dOYe.s:4828   .debug_loc:00000000000002bf .LLST14
C:\Users\stapi\AppData\Local\Temp\ccr4dOYe.s:255    .text.aos_get_mac_hex:0000000000000012 .LVL22
C:\Users\stapi\AppData\Local\Temp\ccr4dOYe.s:5268   .debug_str:0000000000000844 .LASF232
C:\Users\stapi\AppData\Local\Temp\ccr4dOYe.s:165    .text.aos_get_version_hex:0000000000000000 .LFB25
C:\Users\stapi\AppData\Local\Temp\ccr4dOYe.s:235    .text.aos_get_version_hex:000000000000004c .LFE25
C:\Users\stapi\AppData\Local\Temp\ccr4dOYe.s:5368   .debug_str:0000000000000cf7 .LASF233
C:\Users\stapi\AppData\Local\Temp\ccr4dOYe.s:4842   .debug_loc:00000000000002e0 .LLST11
C:\Users\stapi\AppData\Local\Temp\ccr4dOYe.s:4866   .debug_loc:0000000000000319 .LLST12
C:\Users\stapi\AppData\Local\Temp\ccr4dOYe.s:4878   .debug_loc:0000000000000338 .LLST13
C:\Users\stapi\AppData\Local\Temp\ccr4dOYe.s:5580   .debug_str:00000000000016f6 .LASF234
C:\Users\stapi\AppData\Local\Temp\ccr4dOYe.s:143    .text.iotx_set_report_func:0000000000000000 .LFB24
C:\Users\stapi\AppData\Local\Temp\ccr4dOYe.s:154    .text.iotx_set_report_func:000000000000000a .LFE24
C:\Users\stapi\AppData\Local\Temp\ccr4dOYe.s:5536   .debug_str:00000000000014f0 .LASF235
C:\Users\stapi\AppData\Local\Temp\ccr4dOYe.s:5554   .debug_str:00000000000015d0 .LASF236
C:\Users\stapi\AppData\Local\Temp\ccr4dOYe.s:113    .text.iotx_midreport_topic:0000000000000000 .LFB23
C:\Users\stapi\AppData\Local\Temp\ccr4dOYe.s:136    .text.iotx_midreport_topic:000000000000001a .LFE23
C:\Users\stapi\AppData\Local\Temp\ccr4dOYe.s:4890   .debug_loc:0000000000000357 .LLST7
C:\Users\stapi\AppData\Local\Temp\ccr4dOYe.s:5482   .debug_str:00000000000012ab .LASF237
C:\Users\stapi\AppData\Local\Temp\ccr4dOYe.s:4904   .debug_loc:0000000000000378 .LLST8
C:\Users\stapi\AppData\Local\Temp\ccr4dOYe.s:4922   .debug_loc:00000000000003a4 .LLST9
C:\Users\stapi\AppData\Local\Temp\ccr4dOYe.s:4940   .debug_loc:00000000000003d0 .LLST10
C:\Users\stapi\AppData\Local\Temp\ccr4dOYe.s:133    .text.iotx_midreport_topic:000000000000001a .LVL12
C:\Users\stapi\AppData\Local\Temp\ccr4dOYe.s:5546   .debug_str:0000000000001573 .LASF238
C:\Users\stapi\AppData\Local\Temp\ccr4dOYe.s:79     .text.iotx_midreport_payload:0000000000000000 .LFB22
C:\Users\stapi\AppData\Local\Temp\ccr4dOYe.s:102    .text.iotx_midreport_payload:000000000000001a .LFE22
C:\Users\stapi\AppData\Local\Temp\ccr4dOYe.s:4958   .debug_loc:00000000000003fc .LLST3
C:\Users\stapi\AppData\Local\Temp\ccr4dOYe.s:5574   .debug_str:00000000000016bd .LASF239
C:\Users\stapi\AppData\Local\Temp\ccr4dOYe.s:4972   .debug_loc:000000000000041d .LLST4
C:\Users\stapi\AppData\Local\Temp\ccr4dOYe.s:4990   .debug_loc:0000000000000449 .LLST5
C:\Users\stapi\AppData\Local\Temp\ccr4dOYe.s:5008   .debug_loc:0000000000000475 .LLST6
C:\Users\stapi\AppData\Local\Temp\ccr4dOYe.s:99     .text.iotx_midreport_payload:000000000000001a .LVL7
C:\Users\stapi\AppData\Local\Temp\ccr4dOYe.s:5302   .debug_str:00000000000009a0 .LASF240
C:\Users\stapi\AppData\Local\Temp\ccr4dOYe.s:39     .text.iotx_midreport_reqid:0000000000000000 .LFB21
C:\Users\stapi\AppData\Local\Temp\ccr4dOYe.s:68     .text.iotx_midreport_reqid:0000000000000032 .LFE21
C:\Users\stapi\AppData\Local\Temp\ccr4dOYe.s:5026   .debug_loc:00000000000004a1 .LLST0
C:\Users\stapi\AppData\Local\Temp\ccr4dOYe.s:5037   .debug_loc:00000000000004bf .LLST1
C:\Users\stapi\AppData\Local\Temp\ccr4dOYe.s:5051   .debug_loc:00000000000004e0 .LLST2
C:\Users\stapi\AppData\Local\Temp\ccr4dOYe.s:53     .text.iotx_midreport_reqid:0000000000000012 .LVL1
C:\Users\stapi\AppData\Local\Temp\ccr4dOYe.s:60     .text.iotx_midreport_reqid:000000000000002a .LVL2
C:\Users\stapi\AppData\Local\Temp\ccr4dOYe.s:5388   .debug_str:0000000000000dce .LASF263
C:\Users\stapi\AppData\Local\Temp\ccr4dOYe.s:14     .text.iotx_report_id:0000000000000000 .LFB20
C:\Users\stapi\AppData\Local\Temp\ccr4dOYe.s:28     .text.iotx_report_id:0000000000000012 .LFE20
C:\Users\stapi\AppData\Local\Temp\ccr4dOYe.s:5534   .debug_str:00000000000014e5 .LASF241
C:\Users\stapi\AppData\Local\Temp\ccr4dOYe.s:5272   .debug_str:000000000000085d .LASF255
C:\Users\stapi\AppData\Local\Temp\ccr4dOYe.s:5210   .debug_str:00000000000004e7 .LASF257
C:\Users\stapi\AppData\Local\Temp\ccr4dOYe.s:5446   .debug_str:0000000000001053 .LASF242
C:\Users\stapi\AppData\Local\Temp\ccr4dOYe.s:5528   .debug_str:00000000000014b6 .LASF243
C:\Users\stapi\AppData\Local\Temp\ccr4dOYe.s:5362   .debug_str:0000000000000cac .LASF244
C:\Users\stapi\AppData\Local\Temp\ccr4dOYe.s:5394   .debug_str:0000000000000e07 .LASF245
C:\Users\stapi\AppData\Local\Temp\ccr4dOYe.s:5134   .debug_str:0000000000000026 .LASF246
C:\Users\stapi\AppData\Local\Temp\ccr4dOYe.s:5566   .debug_str:000000000000167a .LASF247
C:\Users\stapi\AppData\Local\Temp\ccr4dOYe.s:5502   .debug_str:0000000000001367 .LASF248
C:\Users\stapi\AppData\Local\Temp\ccr4dOYe.s:5154   .debug_str:00000000000001f5 .LASF249
C:\Users\stapi\AppData\Local\Temp\ccr4dOYe.s:5458   .debug_str:0000000000001161 .LASF250
C:\Users\stapi\AppData\Local\Temp\ccr4dOYe.s:5372   .debug_str:0000000000000d18 .LASF251
C:\Users\stapi\AppData\Local\Temp\ccr4dOYe.s:5406   .debug_str:0000000000000e8a .LASF252
C:\Users\stapi\AppData\Local\Temp\ccr4dOYe.s:5352   .debug_str:0000000000000c4d .LASF253
C:\Users\stapi\AppData\Local\Temp\ccr4dOYe.s:5246   .debug_str:0000000000000699 .LASF254
C:\Users\stapi\AppData\Local\Temp\ccr4dOYe.s:5572   .debug_str:00000000000016b6 .LASF256
C:\Users\stapi\AppData\Local\Temp\ccr4dOYe.s:5292   .debug_str:000000000000092b .LASF258
C:\Users\stapi\AppData\Local\Temp\ccr4dOYe.s:1126   .text.iotx_report_mid:0000000000000000 .LVL134
C:\Users\stapi\AppData\Local\Temp\ccr4dOYe.s:1133   .text.iotx_report_mid:000000000000000c .LVL135
C:\Users\stapi\AppData\Local\Temp\ccr4dOYe.s:1044   .text.iotx_report_connect_status:0000000000000000 .LVL125
C:\Users\stapi\AppData\Local\Temp\ccr4dOYe.s:1062   .text.iotx_report_connect_status:0000000000000016 .LVL127
C:\Users\stapi\AppData\Local\Temp\ccr4dOYe.s:1060   .text.iotx_report_connect_status:0000000000000014 .LVL126
C:\Users\stapi\AppData\Local\Temp\ccr4dOYe.s:1103   .text.iotx_report_connect_status:000000000000006c .LVL133
C:\Users\stapi\AppData\Local\Temp\ccr4dOYe.s:1096   .text.iotx_report_connect_status:0000000000000062 .LVL131
C:\Users\stapi\AppData\Local\Temp\ccr4dOYe.s:785    .text.iotx_report_firmware_version:0000000000000000 .LVL92
C:\Users\stapi\AppData\Local\Temp\ccr4dOYe.s:804    .text.iotx_report_firmware_version:0000000000000016 .LVL93
C:\Users\stapi\AppData\Local\Temp\ccr4dOYe.s:877    .text.iotx_report_firmware_version:000000000000009c .LVL101
C:\Users\stapi\AppData\Local\Temp\ccr4dOYe.s:915    .text.iotx_report_firmware_version:00000000000000e4 .LVL106
C:\Users\stapi\AppData\Local\Temp\ccr4dOYe.s:923    .text.iotx_report_firmware_version:00000000000000fa .LVL108
C:\Users\stapi\AppData\Local\Temp\ccr4dOYe.s:934    .text.iotx_report_firmware_version:000000000000010e .LVL109
C:\Users\stapi\AppData\Local\Temp\ccr4dOYe.s:943    .text.iotx_report_firmware_version:000000000000011e .LVL111
C:\Users\stapi\AppData\Local\Temp\ccr4dOYe.s:951    .text.iotx_report_firmware_version:0000000000000134 .LVL113
C:\Users\stapi\AppData\Local\Temp\ccr4dOYe.s:972    .text.iotx_report_firmware_version:000000000000015e .LVL116
C:\Users\stapi\AppData\Local\Temp\ccr4dOYe.s:980    .text.iotx_report_firmware_version:0000000000000174 .LVL118
C:\Users\stapi\AppData\Local\Temp\ccr4dOYe.s:986    .text.iotx_report_firmware_version:0000000000000176 .LVL119
C:\Users\stapi\AppData\Local\Temp\ccr4dOYe.s:1001   .text.iotx_report_firmware_version:000000000000018e .LVL122
C:\Users\stapi\AppData\Local\Temp\ccr4dOYe.s:1018   .text.iotx_report_firmware_version:00000000000001ae .LVL124
C:\Users\stapi\AppData\Local\Temp\ccr4dOYe.s:326    .text.iotx_report_devinfo:0000000000000000 .LVL25
C:\Users\stapi\AppData\Local\Temp\ccr4dOYe.s:349    .text.iotx_report_devinfo:0000000000000016 .LVL27
C:\Users\stapi\AppData\Local\Temp\ccr4dOYe.s:336    .text.iotx_report_devinfo:0000000000000008 .LVL26
C:\Users\stapi\AppData\Local\Temp\ccr4dOYe.s:399    .text.iotx_report_devinfo:0000000000000070 .LVL32
C:\Users\stapi\AppData\Local\Temp\ccr4dOYe.s:412    .text.iotx_report_devinfo:000000000000008a .LVL35
C:\Users\stapi\AppData\Local\Temp\ccr4dOYe.s:421    .text.iotx_report_devinfo:0000000000000096 .LVL37
C:\Users\stapi\AppData\Local\Temp\ccr4dOYe.s:457    .text.iotx_report_devinfo:00000000000000d8 .LVL41
C:\Users\stapi\AppData\Local\Temp\ccr4dOYe.s:487    .text.iotx_report_devinfo:0000000000000108 .LVL46
C:\Users\stapi\AppData\Local\Temp\ccr4dOYe.s:529    .text.iotx_report_devinfo:000000000000014a .LVL52
C:\Users\stapi\AppData\Local\Temp\ccr4dOYe.s:537    .text.iotx_report_devinfo:0000000000000160 .LVL54
C:\Users\stapi\AppData\Local\Temp\ccr4dOYe.s:548    .text.iotx_report_devinfo:0000000000000174 .LVL55
C:\Users\stapi\AppData\Local\Temp\ccr4dOYe.s:557    .text.iotx_report_devinfo:0000000000000184 .LVL57
C:\Users\stapi\AppData\Local\Temp\ccr4dOYe.s:565    .text.iotx_report_devinfo:000000000000019a .LVL59
C:\Users\stapi\AppData\Local\Temp\ccr4dOYe.s:571    .text.iotx_report_devinfo:000000000000019c .LVL60
C:\Users\stapi\AppData\Local\Temp\ccr4dOYe.s:585    .text.iotx_report_devinfo:00000000000001b6 .LVL62
C:\Users\stapi\AppData\Local\Temp\ccr4dOYe.s:676    .text.iotx_report_devinfo:0000000000000282 .LVL79
C:\Users\stapi\AppData\Local\Temp\ccr4dOYe.s:708    .text.iotx_report_devinfo:00000000000002c4 .LVL84
C:\Users\stapi\AppData\Local\Temp\ccr4dOYe.s:490    .text.iotx_report_devinfo:000000000000010a .LVL47
C:\Users\stapi\AppData\Local\Temp\ccr4dOYe.s:619    .text.iotx_report_devinfo:000000000000020e .LVL68
C:\Users\stapi\AppData\Local\Temp\ccr4dOYe.s:637    .text.iotx_report_devinfo:000000000000022e .LVL72
C:\Users\stapi\AppData\Local\Temp\ccr4dOYe.s:644    .text.iotx_report_devinfo:0000000000000234 .LVL73
C:\Users\stapi\AppData\Local\Temp\ccr4dOYe.s:652    .text.iotx_report_devinfo:000000000000024a .LVL75
C:\Users\stapi\AppData\Local\Temp\ccr4dOYe.s:628    .text.iotx_report_devinfo:000000000000021e .LVL70
C:\Users\stapi\AppData\Local\Temp\ccr4dOYe.s:714    .text.iotx_report_devinfo:00000000000002c8 .LVL85
C:\Users\stapi\AppData\Local\Temp\ccr4dOYe.s:271    .text.aos_get_chip_code:0000000000000000 .LVL23
C:\Users\stapi\AppData\Local\Temp\ccr4dOYe.s:249    .text.aos_get_mac_hex:0000000000000000 .LVL21
C:\Users\stapi\AppData\Local\Temp\ccr4dOYe.s:168    .text.aos_get_version_hex:0000000000000000 .LVL14
C:\Users\stapi\AppData\Local\Temp\ccr4dOYe.s:188    .text.aos_get_version_hex:0000000000000012 .LVL15
C:\Users\stapi\AppData\Local\Temp\ccr4dOYe.s:210    .text.aos_get_version_hex:000000000000002c .LVL18
C:\Users\stapi\AppData\Local\Temp\ccr4dOYe.s:221    .text.aos_get_version_hex:0000000000000040 .LVL19
C:\Users\stapi\AppData\Local\Temp\ccr4dOYe.s:193    .text.aos_get_version_hex:0000000000000016 .LVL16
C:\Users\stapi\AppData\Local\Temp\ccr4dOYe.s:116    .text.iotx_midreport_topic:0000000000000000 .LVL8
C:\Users\stapi\AppData\Local\Temp\ccr4dOYe.s:131    .text.iotx_midreport_topic:0000000000000012 .LVL11
C:\Users\stapi\AppData\Local\Temp\ccr4dOYe.s:123    .text.iotx_midreport_topic:0000000000000006 .LVL9
C:\Users\stapi\AppData\Local\Temp\ccr4dOYe.s:129    .text.iotx_midreport_topic:000000000000000e .LVL10
C:\Users\stapi\AppData\Local\Temp\ccr4dOYe.s:82     .text.iotx_midreport_payload:0000000000000000 .LVL3
C:\Users\stapi\AppData\Local\Temp\ccr4dOYe.s:97     .text.iotx_midreport_payload:0000000000000012 .LVL6
C:\Users\stapi\AppData\Local\Temp\ccr4dOYe.s:89     .text.iotx_midreport_payload:0000000000000006 .LVL4
C:\Users\stapi\AppData\Local\Temp\ccr4dOYe.s:95     .text.iotx_midreport_payload:000000000000000e .LVL5
C:\Users\stapi\AppData\Local\Temp\ccr4dOYe.s:42     .text.iotx_midreport_reqid:0000000000000000 .LVL0
C:\Users\stapi\AppData\Local\Temp\ccr4dOYe.s:1202   .debug_info:0000000000000000 .Ldebug_info0

UNDEFINED SYMBOLS
__riscv_save_1
HAL_Snprintf
__riscv_restore_1
memcpy
__riscv_save_5
memset
HAL_Printf
iotx_device_info_get
__riscv_restore_5
HAL_UptimeMs
HAL_Srandom
HAL_Random
aos_get_version_info
HAL_GetNetifInfo
strncpy
strlen
LITE_malloc_internal
LITE_free_internal
__riscv_save_3
__riscv_restore_3
HAL_GetFirmwareVersion
IOT_MQTT_LogPost
__riscv_save_0
__riscv_restore_0
