   1              		.file	"string_utils.c"
   2              		.option nopic
   3              		.attribute arch, "rv32i2p0_m2p0_a2p0_f2p0_c2p0_b_p0p94"
   4              		.attribute unaligned_access, 0
   5              		.attribute stack_align, 16
   6              		.text
   7              	.Ltext0:
   8              		.cfi_sections	.debug_frame
   9              		.section	.text._hexval_of_char,"ax",@progbits
  10              		.align	1
  12              	_hexval_of_char:
  13              	.LFB22:
  14              		.file 1 "C:/Users/stapi/OneDrive/Desktop/GD32VW553/V1_MQTT_OK/GD32VW55X_Wifi_BLE_SDK/GD32VW55x_REL
   1:C:/Users/stapi/OneDrive/Desktop/GD32VW553/V1_MQTT_OK/GD32VW55X_Wifi_BLE_SDK/GD32VW55x_RELEASE_V1.0.2/MSDK/cloud/alicloud/src/infra/utils/misc\string_utils.c **** /*
   2:C:/Users/stapi/OneDrive/Desktop/GD32VW553/V1_MQTT_OK/GD32VW55X_Wifi_BLE_SDK/GD32VW55x_RELEASE_V1.0.2/MSDK/cloud/alicloud/src/infra/utils/misc\string_utils.c ****  * Copyright (C) 2015-2018 Alibaba Group Holding Limited
   3:C:/Users/stapi/OneDrive/Desktop/GD32VW553/V1_MQTT_OK/GD32VW55X_Wifi_BLE_SDK/GD32VW55x_RELEASE_V1.0.2/MSDK/cloud/alicloud/src/infra/utils/misc\string_utils.c ****  */
   4:C:/Users/stapi/OneDrive/Desktop/GD32VW553/V1_MQTT_OK/GD32VW55X_Wifi_BLE_SDK/GD32VW55x_RELEASE_V1.0.2/MSDK/cloud/alicloud/src/infra/utils/misc\string_utils.c **** 
   5:C:/Users/stapi/OneDrive/Desktop/GD32VW553/V1_MQTT_OK/GD32VW55X_Wifi_BLE_SDK/GD32VW55x_RELEASE_V1.0.2/MSDK/cloud/alicloud/src/infra/utils/misc\string_utils.c **** #include "iotx_utils_internal.h"
   6:C:/Users/stapi/OneDrive/Desktop/GD32VW553/V1_MQTT_OK/GD32VW55X_Wifi_BLE_SDK/GD32VW55x_RELEASE_V1.0.2/MSDK/cloud/alicloud/src/infra/utils/misc\string_utils.c **** #include "string_utils.h"
   7:C:/Users/stapi/OneDrive/Desktop/GD32VW553/V1_MQTT_OK/GD32VW55X_Wifi_BLE_SDK/GD32VW55x_RELEASE_V1.0.2/MSDK/cloud/alicloud/src/infra/utils/misc\string_utils.c **** #include "iotx_utils_internal.h"
   8:C:/Users/stapi/OneDrive/Desktop/GD32VW553/V1_MQTT_OK/GD32VW55X_Wifi_BLE_SDK/GD32VW55x_RELEASE_V1.0.2/MSDK/cloud/alicloud/src/infra/utils/misc\string_utils.c **** 
   9:C:/Users/stapi/OneDrive/Desktop/GD32VW553/V1_MQTT_OK/GD32VW55X_Wifi_BLE_SDK/GD32VW55x_RELEASE_V1.0.2/MSDK/cloud/alicloud/src/infra/utils/misc\string_utils.c **** #define UTILS_STRING_MALLOC(size) LITE_malloc(size, MEM_MAGIC, "utils.string")
  10:C:/Users/stapi/OneDrive/Desktop/GD32VW553/V1_MQTT_OK/GD32VW55X_Wifi_BLE_SDK/GD32VW55x_RELEASE_V1.0.2/MSDK/cloud/alicloud/src/infra/utils/misc\string_utils.c **** #define UTILS_STRING_FREE(ptr)    LITE_free(ptr)
  11:C:/Users/stapi/OneDrive/Desktop/GD32VW553/V1_MQTT_OK/GD32VW55X_Wifi_BLE_SDK/GD32VW55x_RELEASE_V1.0.2/MSDK/cloud/alicloud/src/infra/utils/misc\string_utils.c **** 
  12:C:/Users/stapi/OneDrive/Desktop/GD32VW553/V1_MQTT_OK/GD32VW55X_Wifi_BLE_SDK/GD32VW55x_RELEASE_V1.0.2/MSDK/cloud/alicloud/src/infra/utils/misc\string_utils.c **** char *LITE_strdup(const char *src, ...)
  13:C:/Users/stapi/OneDrive/Desktop/GD32VW553/V1_MQTT_OK/GD32VW55X_Wifi_BLE_SDK/GD32VW55x_RELEASE_V1.0.2/MSDK/cloud/alicloud/src/infra/utils/misc\string_utils.c **** {
  14:C:/Users/stapi/OneDrive/Desktop/GD32VW553/V1_MQTT_OK/GD32VW55X_Wifi_BLE_SDK/GD32VW55x_RELEASE_V1.0.2/MSDK/cloud/alicloud/src/infra/utils/misc\string_utils.c ****     int             len = 0;
  15:C:/Users/stapi/OneDrive/Desktop/GD32VW553/V1_MQTT_OK/GD32VW55X_Wifi_BLE_SDK/GD32VW55x_RELEASE_V1.0.2/MSDK/cloud/alicloud/src/infra/utils/misc\string_utils.c ****     char           *dst = NULL;
  16:C:/Users/stapi/OneDrive/Desktop/GD32VW553/V1_MQTT_OK/GD32VW55X_Wifi_BLE_SDK/GD32VW55x_RELEASE_V1.0.2/MSDK/cloud/alicloud/src/infra/utils/misc\string_utils.c ****     int             magic = 0;
  17:C:/Users/stapi/OneDrive/Desktop/GD32VW553/V1_MQTT_OK/GD32VW55X_Wifi_BLE_SDK/GD32VW55x_RELEASE_V1.0.2/MSDK/cloud/alicloud/src/infra/utils/misc\string_utils.c ****     char           *module_name = NULL;
  18:C:/Users/stapi/OneDrive/Desktop/GD32VW553/V1_MQTT_OK/GD32VW55X_Wifi_BLE_SDK/GD32VW55x_RELEASE_V1.0.2/MSDK/cloud/alicloud/src/infra/utils/misc\string_utils.c **** 
  19:C:/Users/stapi/OneDrive/Desktop/GD32VW553/V1_MQTT_OK/GD32VW55X_Wifi_BLE_SDK/GD32VW55x_RELEASE_V1.0.2/MSDK/cloud/alicloud/src/infra/utils/misc\string_utils.c ****     if (!src) {
  20:C:/Users/stapi/OneDrive/Desktop/GD32VW553/V1_MQTT_OK/GD32VW55X_Wifi_BLE_SDK/GD32VW55x_RELEASE_V1.0.2/MSDK/cloud/alicloud/src/infra/utils/misc\string_utils.c ****         return NULL;
  21:C:/Users/stapi/OneDrive/Desktop/GD32VW553/V1_MQTT_OK/GD32VW55X_Wifi_BLE_SDK/GD32VW55x_RELEASE_V1.0.2/MSDK/cloud/alicloud/src/infra/utils/misc\string_utils.c ****     }
  22:C:/Users/stapi/OneDrive/Desktop/GD32VW553/V1_MQTT_OK/GD32VW55X_Wifi_BLE_SDK/GD32VW55x_RELEASE_V1.0.2/MSDK/cloud/alicloud/src/infra/utils/misc\string_utils.c ****     len = strlen(src) + 1;
  23:C:/Users/stapi/OneDrive/Desktop/GD32VW553/V1_MQTT_OK/GD32VW55X_Wifi_BLE_SDK/GD32VW55x_RELEASE_V1.0.2/MSDK/cloud/alicloud/src/infra/utils/misc\string_utils.c ****     if (len > 1024) {
  24:C:/Users/stapi/OneDrive/Desktop/GD32VW553/V1_MQTT_OK/GD32VW55X_Wifi_BLE_SDK/GD32VW55x_RELEASE_V1.0.2/MSDK/cloud/alicloud/src/infra/utils/misc\string_utils.c ****         utils_err("Too long string to duplicate, abort! len = %d", len);
  25:C:/Users/stapi/OneDrive/Desktop/GD32VW553/V1_MQTT_OK/GD32VW55X_Wifi_BLE_SDK/GD32VW55x_RELEASE_V1.0.2/MSDK/cloud/alicloud/src/infra/utils/misc\string_utils.c ****         return NULL;
  26:C:/Users/stapi/OneDrive/Desktop/GD32VW553/V1_MQTT_OK/GD32VW55X_Wifi_BLE_SDK/GD32VW55x_RELEASE_V1.0.2/MSDK/cloud/alicloud/src/infra/utils/misc\string_utils.c ****     }
  27:C:/Users/stapi/OneDrive/Desktop/GD32VW553/V1_MQTT_OK/GD32VW55X_Wifi_BLE_SDK/GD32VW55x_RELEASE_V1.0.2/MSDK/cloud/alicloud/src/infra/utils/misc\string_utils.c **** 
  28:C:/Users/stapi/OneDrive/Desktop/GD32VW553/V1_MQTT_OK/GD32VW55X_Wifi_BLE_SDK/GD32VW55x_RELEASE_V1.0.2/MSDK/cloud/alicloud/src/infra/utils/misc\string_utils.c **** #if WITH_MEM_STATS_PER_MODULE
  29:C:/Users/stapi/OneDrive/Desktop/GD32VW553/V1_MQTT_OK/GD32VW55X_Wifi_BLE_SDK/GD32VW55x_RELEASE_V1.0.2/MSDK/cloud/alicloud/src/infra/utils/misc\string_utils.c ****     va_list         ap;
  30:C:/Users/stapi/OneDrive/Desktop/GD32VW553/V1_MQTT_OK/GD32VW55X_Wifi_BLE_SDK/GD32VW55x_RELEASE_V1.0.2/MSDK/cloud/alicloud/src/infra/utils/misc\string_utils.c ****     va_start(ap, src);
  31:C:/Users/stapi/OneDrive/Desktop/GD32VW553/V1_MQTT_OK/GD32VW55X_Wifi_BLE_SDK/GD32VW55x_RELEASE_V1.0.2/MSDK/cloud/alicloud/src/infra/utils/misc\string_utils.c ****     magic = va_arg(ap, int);
  32:C:/Users/stapi/OneDrive/Desktop/GD32VW553/V1_MQTT_OK/GD32VW55X_Wifi_BLE_SDK/GD32VW55x_RELEASE_V1.0.2/MSDK/cloud/alicloud/src/infra/utils/misc\string_utils.c ****     if (MEM_MAGIC == magic) {
  33:C:/Users/stapi/OneDrive/Desktop/GD32VW553/V1_MQTT_OK/GD32VW55X_Wifi_BLE_SDK/GD32VW55x_RELEASE_V1.0.2/MSDK/cloud/alicloud/src/infra/utils/misc\string_utils.c ****         module_name = va_arg(ap, char *);
  34:C:/Users/stapi/OneDrive/Desktop/GD32VW553/V1_MQTT_OK/GD32VW55X_Wifi_BLE_SDK/GD32VW55x_RELEASE_V1.0.2/MSDK/cloud/alicloud/src/infra/utils/misc\string_utils.c ****     }
  35:C:/Users/stapi/OneDrive/Desktop/GD32VW553/V1_MQTT_OK/GD32VW55X_Wifi_BLE_SDK/GD32VW55x_RELEASE_V1.0.2/MSDK/cloud/alicloud/src/infra/utils/misc\string_utils.c ****     va_end(ap);
  36:C:/Users/stapi/OneDrive/Desktop/GD32VW553/V1_MQTT_OK/GD32VW55X_Wifi_BLE_SDK/GD32VW55x_RELEASE_V1.0.2/MSDK/cloud/alicloud/src/infra/utils/misc\string_utils.c **** #endif
  37:C:/Users/stapi/OneDrive/Desktop/GD32VW553/V1_MQTT_OK/GD32VW55X_Wifi_BLE_SDK/GD32VW55x_RELEASE_V1.0.2/MSDK/cloud/alicloud/src/infra/utils/misc\string_utils.c **** 
  38:C:/Users/stapi/OneDrive/Desktop/GD32VW553/V1_MQTT_OK/GD32VW55X_Wifi_BLE_SDK/GD32VW55x_RELEASE_V1.0.2/MSDK/cloud/alicloud/src/infra/utils/misc\string_utils.c ****     dst = (char *)LITE_malloc(sizeof(char) * len, magic, module_name);
  39:C:/Users/stapi/OneDrive/Desktop/GD32VW553/V1_MQTT_OK/GD32VW55X_Wifi_BLE_SDK/GD32VW55x_RELEASE_V1.0.2/MSDK/cloud/alicloud/src/infra/utils/misc\string_utils.c **** 
  40:C:/Users/stapi/OneDrive/Desktop/GD32VW553/V1_MQTT_OK/GD32VW55X_Wifi_BLE_SDK/GD32VW55x_RELEASE_V1.0.2/MSDK/cloud/alicloud/src/infra/utils/misc\string_utils.c ****     if (!dst) {
  41:C:/Users/stapi/OneDrive/Desktop/GD32VW553/V1_MQTT_OK/GD32VW55X_Wifi_BLE_SDK/GD32VW55x_RELEASE_V1.0.2/MSDK/cloud/alicloud/src/infra/utils/misc\string_utils.c ****         return NULL;
  42:C:/Users/stapi/OneDrive/Desktop/GD32VW553/V1_MQTT_OK/GD32VW55X_Wifi_BLE_SDK/GD32VW55x_RELEASE_V1.0.2/MSDK/cloud/alicloud/src/infra/utils/misc\string_utils.c ****     }
  43:C:/Users/stapi/OneDrive/Desktop/GD32VW553/V1_MQTT_OK/GD32VW55X_Wifi_BLE_SDK/GD32VW55x_RELEASE_V1.0.2/MSDK/cloud/alicloud/src/infra/utils/misc\string_utils.c ****     strncpy(dst, src, len);
  44:C:/Users/stapi/OneDrive/Desktop/GD32VW553/V1_MQTT_OK/GD32VW55X_Wifi_BLE_SDK/GD32VW55x_RELEASE_V1.0.2/MSDK/cloud/alicloud/src/infra/utils/misc\string_utils.c **** 
  45:C:/Users/stapi/OneDrive/Desktop/GD32VW553/V1_MQTT_OK/GD32VW55X_Wifi_BLE_SDK/GD32VW55x_RELEASE_V1.0.2/MSDK/cloud/alicloud/src/infra/utils/misc\string_utils.c ****     return dst;
  46:C:/Users/stapi/OneDrive/Desktop/GD32VW553/V1_MQTT_OK/GD32VW55X_Wifi_BLE_SDK/GD32VW55x_RELEASE_V1.0.2/MSDK/cloud/alicloud/src/infra/utils/misc\string_utils.c **** }
  47:C:/Users/stapi/OneDrive/Desktop/GD32VW553/V1_MQTT_OK/GD32VW55X_Wifi_BLE_SDK/GD32VW55x_RELEASE_V1.0.2/MSDK/cloud/alicloud/src/infra/utils/misc\string_utils.c **** 
  48:C:/Users/stapi/OneDrive/Desktop/GD32VW553/V1_MQTT_OK/GD32VW55X_Wifi_BLE_SDK/GD32VW55x_RELEASE_V1.0.2/MSDK/cloud/alicloud/src/infra/utils/misc\string_utils.c **** void LITE_hexbuf_convert(unsigned char *digest, char *out, int in_len, int uppercase)
  49:C:/Users/stapi/OneDrive/Desktop/GD32VW553/V1_MQTT_OK/GD32VW55X_Wifi_BLE_SDK/GD32VW55x_RELEASE_V1.0.2/MSDK/cloud/alicloud/src/infra/utils/misc\string_utils.c **** {
  50:C:/Users/stapi/OneDrive/Desktop/GD32VW553/V1_MQTT_OK/GD32VW55X_Wifi_BLE_SDK/GD32VW55x_RELEASE_V1.0.2/MSDK/cloud/alicloud/src/infra/utils/misc\string_utils.c ****     static char    *zEncode[] = {"0123456789abcdef", "0123456789ABCDEF"};
  51:C:/Users/stapi/OneDrive/Desktop/GD32VW553/V1_MQTT_OK/GD32VW55X_Wifi_BLE_SDK/GD32VW55x_RELEASE_V1.0.2/MSDK/cloud/alicloud/src/infra/utils/misc\string_utils.c ****     int             j = 0;
  52:C:/Users/stapi/OneDrive/Desktop/GD32VW553/V1_MQTT_OK/GD32VW55X_Wifi_BLE_SDK/GD32VW55x_RELEASE_V1.0.2/MSDK/cloud/alicloud/src/infra/utils/misc\string_utils.c ****     int             i = 0;
  53:C:/Users/stapi/OneDrive/Desktop/GD32VW553/V1_MQTT_OK/GD32VW55X_Wifi_BLE_SDK/GD32VW55x_RELEASE_V1.0.2/MSDK/cloud/alicloud/src/infra/utils/misc\string_utils.c ****     int             idx = uppercase ? 1 : 0;
  54:C:/Users/stapi/OneDrive/Desktop/GD32VW553/V1_MQTT_OK/GD32VW55X_Wifi_BLE_SDK/GD32VW55x_RELEASE_V1.0.2/MSDK/cloud/alicloud/src/infra/utils/misc\string_utils.c **** 
  55:C:/Users/stapi/OneDrive/Desktop/GD32VW553/V1_MQTT_OK/GD32VW55X_Wifi_BLE_SDK/GD32VW55x_RELEASE_V1.0.2/MSDK/cloud/alicloud/src/infra/utils/misc\string_utils.c ****     for (i = 0; i < in_len; i ++) {
  56:C:/Users/stapi/OneDrive/Desktop/GD32VW553/V1_MQTT_OK/GD32VW55X_Wifi_BLE_SDK/GD32VW55x_RELEASE_V1.0.2/MSDK/cloud/alicloud/src/infra/utils/misc\string_utils.c ****         int         a = digest[i];
  57:C:/Users/stapi/OneDrive/Desktop/GD32VW553/V1_MQTT_OK/GD32VW55X_Wifi_BLE_SDK/GD32VW55x_RELEASE_V1.0.2/MSDK/cloud/alicloud/src/infra/utils/misc\string_utils.c **** 
  58:C:/Users/stapi/OneDrive/Desktop/GD32VW553/V1_MQTT_OK/GD32VW55X_Wifi_BLE_SDK/GD32VW55x_RELEASE_V1.0.2/MSDK/cloud/alicloud/src/infra/utils/misc\string_utils.c ****         out[j++] = zEncode[idx][(a >> 4) & 0xf];
  59:C:/Users/stapi/OneDrive/Desktop/GD32VW553/V1_MQTT_OK/GD32VW55X_Wifi_BLE_SDK/GD32VW55x_RELEASE_V1.0.2/MSDK/cloud/alicloud/src/infra/utils/misc\string_utils.c ****         out[j++] = zEncode[idx][a & 0xf];
  60:C:/Users/stapi/OneDrive/Desktop/GD32VW553/V1_MQTT_OK/GD32VW55X_Wifi_BLE_SDK/GD32VW55x_RELEASE_V1.0.2/MSDK/cloud/alicloud/src/infra/utils/misc\string_utils.c ****     }
  61:C:/Users/stapi/OneDrive/Desktop/GD32VW553/V1_MQTT_OK/GD32VW55X_Wifi_BLE_SDK/GD32VW55x_RELEASE_V1.0.2/MSDK/cloud/alicloud/src/infra/utils/misc\string_utils.c **** }
  62:C:/Users/stapi/OneDrive/Desktop/GD32VW553/V1_MQTT_OK/GD32VW55X_Wifi_BLE_SDK/GD32VW55x_RELEASE_V1.0.2/MSDK/cloud/alicloud/src/infra/utils/misc\string_utils.c **** 
  63:C:/Users/stapi/OneDrive/Desktop/GD32VW553/V1_MQTT_OK/GD32VW55X_Wifi_BLE_SDK/GD32VW55x_RELEASE_V1.0.2/MSDK/cloud/alicloud/src/infra/utils/misc\string_utils.c **** static uint8_t _hexval_of_char(char hex)
  64:C:/Users/stapi/OneDrive/Desktop/GD32VW553/V1_MQTT_OK/GD32VW55X_Wifi_BLE_SDK/GD32VW55x_RELEASE_V1.0.2/MSDK/cloud/alicloud/src/infra/utils/misc\string_utils.c **** {
  15              		.loc 1 64 1
  16              		.cfi_startproc
  17              	.LVL0:
  65:C:/Users/stapi/OneDrive/Desktop/GD32VW553/V1_MQTT_OK/GD32VW55X_Wifi_BLE_SDK/GD32VW55x_RELEASE_V1.0.2/MSDK/cloud/alicloud/src/infra/utils/misc\string_utils.c ****     if (LITE_isdigit(hex)) {
  18              		.loc 1 65 5
  19              		.loc 1 65 9 is_stmt 0
  20 0000 9377F50F 		andi	a5,a0,0xff
  21 0004 138507FD 		addi	a0,a5,-48
  22              	.LVL1:
  23 0008 1375F50F 		andi	a0,a0,0xff
  24              		.loc 1 65 8
  25 000c 2547     		li	a4,9
  26 000e 637DA700 		bleu	a0,a4,.L2
  66:C:/Users/stapi/OneDrive/Desktop/GD32VW553/V1_MQTT_OK/GD32VW55X_Wifi_BLE_SDK/GD32VW55x_RELEASE_V1.0.2/MSDK/cloud/alicloud/src/infra/utils/misc\string_utils.c ****         return (hex - '0');
  67:C:/Users/stapi/OneDrive/Desktop/GD32VW553/V1_MQTT_OK/GD32VW55X_Wifi_BLE_SDK/GD32VW55x_RELEASE_V1.0.2/MSDK/cloud/alicloud/src/infra/utils/misc\string_utils.c ****     }
  68:C:/Users/stapi/OneDrive/Desktop/GD32VW553/V1_MQTT_OK/GD32VW55X_Wifi_BLE_SDK/GD32VW55x_RELEASE_V1.0.2/MSDK/cloud/alicloud/src/infra/utils/misc\string_utils.c ****     if (hex >= 'a' && hex <= 'f') {
  27              		.loc 1 68 5 is_stmt 1
  28              		.loc 1 68 20 is_stmt 0
  29 0012 1387F7F9 		addi	a4,a5,-97
  30              		.loc 1 68 8
  31 0016 1377F70F 		andi	a4,a4,0xff
  32 001a 9546     		li	a3,5
  33 001c 63E7E600 		bgtu	a4,a3,.L3
  69:C:/Users/stapi/OneDrive/Desktop/GD32VW553/V1_MQTT_OK/GD32VW55X_Wifi_BLE_SDK/GD32VW55x_RELEASE_V1.0.2/MSDK/cloud/alicloud/src/infra/utils/misc\string_utils.c ****         return (hex - 'a' + 10);
  34              		.loc 1 69 9 is_stmt 1
  35              		.loc 1 69 27 is_stmt 0
  36 0020 938797FA 		addi	a5,a5,-87
  37              	.LVL2:
  38              	.L5:
  70:C:/Users/stapi/OneDrive/Desktop/GD32VW553/V1_MQTT_OK/GD32VW55X_Wifi_BLE_SDK/GD32VW55x_RELEASE_V1.0.2/MSDK/cloud/alicloud/src/infra/utils/misc\string_utils.c ****     }
  71:C:/Users/stapi/OneDrive/Desktop/GD32VW553/V1_MQTT_OK/GD32VW55X_Wifi_BLE_SDK/GD32VW55x_RELEASE_V1.0.2/MSDK/cloud/alicloud/src/infra/utils/misc\string_utils.c ****     if (hex >= 'A' && hex <= 'F') {
  72:C:/Users/stapi/OneDrive/Desktop/GD32VW553/V1_MQTT_OK/GD32VW55X_Wifi_BLE_SDK/GD32VW55x_RELEASE_V1.0.2/MSDK/cloud/alicloud/src/infra/utils/misc\string_utils.c ****         return (hex - 'A' + 10);
  39              		.loc 1 72 27
  40 0024 13F5F70F 		andi	a0,a5,0xff
  41              	.L2:
  73:C:/Users/stapi/OneDrive/Desktop/GD32VW553/V1_MQTT_OK/GD32VW55X_Wifi_BLE_SDK/GD32VW55x_RELEASE_V1.0.2/MSDK/cloud/alicloud/src/infra/utils/misc\string_utils.c ****     }
  74:C:/Users/stapi/OneDrive/Desktop/GD32VW553/V1_MQTT_OK/GD32VW55X_Wifi_BLE_SDK/GD32VW55x_RELEASE_V1.0.2/MSDK/cloud/alicloud/src/infra/utils/misc\string_utils.c **** 
  75:C:/Users/stapi/OneDrive/Desktop/GD32VW553/V1_MQTT_OK/GD32VW55X_Wifi_BLE_SDK/GD32VW55x_RELEASE_V1.0.2/MSDK/cloud/alicloud/src/infra/utils/misc\string_utils.c ****     return 0;
  76:C:/Users/stapi/OneDrive/Desktop/GD32VW553/V1_MQTT_OK/GD32VW55X_Wifi_BLE_SDK/GD32VW55x_RELEASE_V1.0.2/MSDK/cloud/alicloud/src/infra/utils/misc\string_utils.c **** }
  42              		.loc 1 76 1
  43 0028 8280     		ret
  44              	.L3:
  71:C:/Users/stapi/OneDrive/Desktop/GD32VW553/V1_MQTT_OK/GD32VW55X_Wifi_BLE_SDK/GD32VW55x_RELEASE_V1.0.2/MSDK/cloud/alicloud/src/infra/utils/misc\string_utils.c ****         return (hex - 'A' + 10);
  45              		.loc 1 71 5 is_stmt 1
  71:C:/Users/stapi/OneDrive/Desktop/GD32VW553/V1_MQTT_OK/GD32VW55X_Wifi_BLE_SDK/GD32VW55x_RELEASE_V1.0.2/MSDK/cloud/alicloud/src/infra/utils/misc\string_utils.c ****         return (hex - 'A' + 10);
  46              		.loc 1 71 20 is_stmt 0
  47 002a 1387F7FB 		addi	a4,a5,-65
  71:C:/Users/stapi/OneDrive/Desktop/GD32VW553/V1_MQTT_OK/GD32VW55X_Wifi_BLE_SDK/GD32VW55x_RELEASE_V1.0.2/MSDK/cloud/alicloud/src/infra/utils/misc\string_utils.c ****         return (hex - 'A' + 10);
  48              		.loc 1 71 8
  49 002e 1377F70F 		andi	a4,a4,0xff
  75:C:/Users/stapi/OneDrive/Desktop/GD32VW553/V1_MQTT_OK/GD32VW55X_Wifi_BLE_SDK/GD32VW55x_RELEASE_V1.0.2/MSDK/cloud/alicloud/src/infra/utils/misc\string_utils.c **** }
  50              		.loc 1 75 12
  51 0032 0145     		li	a0,0
  71:C:/Users/stapi/OneDrive/Desktop/GD32VW553/V1_MQTT_OK/GD32VW55X_Wifi_BLE_SDK/GD32VW55x_RELEASE_V1.0.2/MSDK/cloud/alicloud/src/infra/utils/misc\string_utils.c ****         return (hex - 'A' + 10);
  52              		.loc 1 71 8
  53 0034 E3EAE6FE 		bgtu	a4,a3,.L2
  72:C:/Users/stapi/OneDrive/Desktop/GD32VW553/V1_MQTT_OK/GD32VW55X_Wifi_BLE_SDK/GD32VW55x_RELEASE_V1.0.2/MSDK/cloud/alicloud/src/infra/utils/misc\string_utils.c ****     }
  54              		.loc 1 72 9 is_stmt 1
  72:C:/Users/stapi/OneDrive/Desktop/GD32VW553/V1_MQTT_OK/GD32VW55X_Wifi_BLE_SDK/GD32VW55x_RELEASE_V1.0.2/MSDK/cloud/alicloud/src/infra/utils/misc\string_utils.c ****     }
  55              		.loc 1 72 27 is_stmt 0
  56 0038 938797FC 		addi	a5,a5,-55
  57 003c E5B7     		j	.L5
  58              		.cfi_endproc
  59              	.LFE22:
  61              		.section	.rodata.LITE_strdup.str1.4,"aMS",@progbits,1
  62              		.align	2
  63              	.LC0:
  64 0000 5B657272 		.string	"[err] "
  64      5D2000
  65 0007 00       		.align	2
  66              	.LC1:
  67 0008 546F6F20 		.string	"Too long string to duplicate, abort! len = %d"
  67      6C6F6E67 
  67      20737472 
  67      696E6720 
  67      746F2064 
  68 0036 0000     		.align	2
  69              	.LC2:
  70 0038 0D0A00   		.string	"\r\n"
  71              		.section	.text.LITE_strdup,"ax",@progbits
  72              		.align	1
  73              		.globl	LITE_strdup
  75              	LITE_strdup:
  76              	.LFB20:
  13:C:/Users/stapi/OneDrive/Desktop/GD32VW553/V1_MQTT_OK/GD32VW55X_Wifi_BLE_SDK/GD32VW55x_RELEASE_V1.0.2/MSDK/cloud/alicloud/src/infra/utils/misc\string_utils.c ****     int             len = 0;
  77              		.loc 1 13 1 is_stmt 1
  78              		.cfi_startproc
  79              	.LVL3:
  14:C:/Users/stapi/OneDrive/Desktop/GD32VW553/V1_MQTT_OK/GD32VW55X_Wifi_BLE_SDK/GD32VW55x_RELEASE_V1.0.2/MSDK/cloud/alicloud/src/infra/utils/misc\string_utils.c ****     char           *dst = NULL;
  80              		.loc 1 14 5
  15:C:/Users/stapi/OneDrive/Desktop/GD32VW553/V1_MQTT_OK/GD32VW55X_Wifi_BLE_SDK/GD32VW55x_RELEASE_V1.0.2/MSDK/cloud/alicloud/src/infra/utils/misc\string_utils.c ****     int             magic = 0;
  81              		.loc 1 15 5
  16:C:/Users/stapi/OneDrive/Desktop/GD32VW553/V1_MQTT_OK/GD32VW55X_Wifi_BLE_SDK/GD32VW55x_RELEASE_V1.0.2/MSDK/cloud/alicloud/src/infra/utils/misc\string_utils.c ****     char           *module_name = NULL;
  82              		.loc 1 16 5
  17:C:/Users/stapi/OneDrive/Desktop/GD32VW553/V1_MQTT_OK/GD32VW55X_Wifi_BLE_SDK/GD32VW55x_RELEASE_V1.0.2/MSDK/cloud/alicloud/src/infra/utils/misc\string_utils.c **** 
  83              		.loc 1 17 5
  19:C:/Users/stapi/OneDrive/Desktop/GD32VW553/V1_MQTT_OK/GD32VW55X_Wifi_BLE_SDK/GD32VW55x_RELEASE_V1.0.2/MSDK/cloud/alicloud/src/infra/utils/misc\string_utils.c ****         return NULL;
  84              		.loc 1 19 5
  13:C:/Users/stapi/OneDrive/Desktop/GD32VW553/V1_MQTT_OK/GD32VW55X_Wifi_BLE_SDK/GD32VW55x_RELEASE_V1.0.2/MSDK/cloud/alicloud/src/infra/utils/misc\string_utils.c ****     int             len = 0;
  85              		.loc 1 13 1 is_stmt 0
  86 0000 7971     		addi	sp,sp,-48
  87              		.cfi_def_cfa_offset 48
  88 0002 06C6     		sw	ra,12(sp)
  89 0004 22C4     		sw	s0,8(sp)
  90 0006 26C2     		sw	s1,4(sp)
  91 0008 4AC0     		sw	s2,0(sp)
  92              		.cfi_offset 1, -36
  93              		.cfi_offset 8, -40
  94              		.cfi_offset 9, -44
  95              		.cfi_offset 18, -48
  13:C:/Users/stapi/OneDrive/Desktop/GD32VW553/V1_MQTT_OK/GD32VW55X_Wifi_BLE_SDK/GD32VW55x_RELEASE_V1.0.2/MSDK/cloud/alicloud/src/infra/utils/misc\string_utils.c ****     int             len = 0;
  96              		.loc 1 13 1
  97 000a 2ECA     		sw	a1,20(sp)
  98 000c 32CC     		sw	a2,24(sp)
  99 000e 36CE     		sw	a3,28(sp)
 100 0010 3AD0     		sw	a4,32(sp)
 101 0012 3ED2     		sw	a5,36(sp)
 102 0014 42D4     		sw	a6,40(sp)
 103 0016 46D6     		sw	a7,44(sp)
  19:C:/Users/stapi/OneDrive/Desktop/GD32VW553/V1_MQTT_OK/GD32VW55X_Wifi_BLE_SDK/GD32VW55x_RELEASE_V1.0.2/MSDK/cloud/alicloud/src/infra/utils/misc\string_utils.c ****         return NULL;
 104              		.loc 1 19 8
 105 0018 29C5     		beq	a0,zero,.L9
 106 001a 2A89     		mv	s2,a0
  22:C:/Users/stapi/OneDrive/Desktop/GD32VW553/V1_MQTT_OK/GD32VW55X_Wifi_BLE_SDK/GD32VW55x_RELEASE_V1.0.2/MSDK/cloud/alicloud/src/infra/utils/misc\string_utils.c ****     if (len > 1024) {
 107              		.loc 1 22 5 is_stmt 1
  22:C:/Users/stapi/OneDrive/Desktop/GD32VW553/V1_MQTT_OK/GD32VW55X_Wifi_BLE_SDK/GD32VW55x_RELEASE_V1.0.2/MSDK/cloud/alicloud/src/infra/utils/misc\string_utils.c ****     if (len > 1024) {
 108              		.loc 1 22 11 is_stmt 0
 109 001c 97000000 		call	strlen
 109      E7800000 
 110              	.LVL4:
  22:C:/Users/stapi/OneDrive/Desktop/GD32VW553/V1_MQTT_OK/GD32VW55X_Wifi_BLE_SDK/GD32VW55x_RELEASE_V1.0.2/MSDK/cloud/alicloud/src/infra/utils/misc\string_utils.c ****     if (len > 1024) {
 111              		.loc 1 22 23
 112 0024 93041500 		addi	s1,a0,1
 113              	.LVL5:
  23:C:/Users/stapi/OneDrive/Desktop/GD32VW553/V1_MQTT_OK/GD32VW55X_Wifi_BLE_SDK/GD32VW55x_RELEASE_V1.0.2/MSDK/cloud/alicloud/src/infra/utils/misc\string_utils.c ****         utils_err("Too long string to duplicate, abort! len = %d", len);
 114              		.loc 1 23 5 is_stmt 1
  23:C:/Users/stapi/OneDrive/Desktop/GD32VW553/V1_MQTT_OK/GD32VW55X_Wifi_BLE_SDK/GD32VW55x_RELEASE_V1.0.2/MSDK/cloud/alicloud/src/infra/utils/misc\string_utils.c ****         utils_err("Too long string to duplicate, abort! len = %d", len);
 115              		.loc 1 23 8 is_stmt 0
 116 0028 93070040 		li	a5,1024
 117 002c 63FD9702 		bleu	s1,a5,.L8
  24:C:/Users/stapi/OneDrive/Desktop/GD32VW553/V1_MQTT_OK/GD32VW55X_Wifi_BLE_SDK/GD32VW55x_RELEASE_V1.0.2/MSDK/cloud/alicloud/src/infra/utils/misc\string_utils.c ****         return NULL;
 118              		.loc 1 24 9 is_stmt 1
  24:C:/Users/stapi/OneDrive/Desktop/GD32VW553/V1_MQTT_OK/GD32VW55X_Wifi_BLE_SDK/GD32VW55x_RELEASE_V1.0.2/MSDK/cloud/alicloud/src/infra/utils/misc\string_utils.c ****         return NULL;
 119              		.loc 1 24 9
 120 0030 37050000 		lui	a0,%hi(.LC0)
 121 0034 13050500 		addi	a0,a0,%lo(.LC0)
 122 0038 97000000 		call	HAL_Printf
 122      E7800000 
 123              	.LVL6:
  24:C:/Users/stapi/OneDrive/Desktop/GD32VW553/V1_MQTT_OK/GD32VW55X_Wifi_BLE_SDK/GD32VW55x_RELEASE_V1.0.2/MSDK/cloud/alicloud/src/infra/utils/misc\string_utils.c ****         return NULL;
 124              		.loc 1 24 9
 125 0040 37050000 		lui	a0,%hi(.LC1)
 126 0044 13050500 		addi	a0,a0,%lo(.LC1)
 127 0048 A685     		mv	a1,s1
 128 004a 97000000 		call	HAL_Printf
 128      E7800000 
 129              	.LVL7:
  24:C:/Users/stapi/OneDrive/Desktop/GD32VW553/V1_MQTT_OK/GD32VW55X_Wifi_BLE_SDK/GD32VW55x_RELEASE_V1.0.2/MSDK/cloud/alicloud/src/infra/utils/misc\string_utils.c ****         return NULL;
 130              		.loc 1 24 9
 131 0052 37050000 		lui	a0,%hi(.LC2)
 132 0056 13050500 		addi	a0,a0,%lo(.LC2)
 133 005a 97000000 		call	HAL_Printf
 133      E7800000 
 134              	.LVL8:
  24:C:/Users/stapi/OneDrive/Desktop/GD32VW553/V1_MQTT_OK/GD32VW55X_Wifi_BLE_SDK/GD32VW55x_RELEASE_V1.0.2/MSDK/cloud/alicloud/src/infra/utils/misc\string_utils.c ****         return NULL;
 135              		.loc 1 24 9
  25:C:/Users/stapi/OneDrive/Desktop/GD32VW553/V1_MQTT_OK/GD32VW55X_Wifi_BLE_SDK/GD32VW55x_RELEASE_V1.0.2/MSDK/cloud/alicloud/src/infra/utils/misc\string_utils.c ****     }
 136              		.loc 1 25 9
 137              	.L9:
  20:C:/Users/stapi/OneDrive/Desktop/GD32VW553/V1_MQTT_OK/GD32VW55X_Wifi_BLE_SDK/GD32VW55x_RELEASE_V1.0.2/MSDK/cloud/alicloud/src/infra/utils/misc\string_utils.c ****     }
 138              		.loc 1 20 16 is_stmt 0
 139 0062 0144     		li	s0,0
 140 0064 05A0     		j	.L6
 141              	.LVL9:
 142              	.L8:
  38:C:/Users/stapi/OneDrive/Desktop/GD32VW553/V1_MQTT_OK/GD32VW55X_Wifi_BLE_SDK/GD32VW55x_RELEASE_V1.0.2/MSDK/cloud/alicloud/src/infra/utils/misc\string_utils.c **** 
 143              		.loc 1 38 5 is_stmt 1
  38:C:/Users/stapi/OneDrive/Desktop/GD32VW553/V1_MQTT_OK/GD32VW55X_Wifi_BLE_SDK/GD32VW55x_RELEASE_V1.0.2/MSDK/cloud/alicloud/src/infra/utils/misc\string_utils.c **** 
 144              		.loc 1 38 19 is_stmt 0
 145 0066 2686     		mv	a2,s1
 146 0068 8145     		li	a1,0
 147 006a 0145     		li	a0,0
 148 006c 97000000 		call	LITE_malloc_internal
 148      E7800000 
 149              	.LVL10:
 150 0074 2A84     		mv	s0,a0
 151              	.LVL11:
  40:C:/Users/stapi/OneDrive/Desktop/GD32VW553/V1_MQTT_OK/GD32VW55X_Wifi_BLE_SDK/GD32VW55x_RELEASE_V1.0.2/MSDK/cloud/alicloud/src/infra/utils/misc\string_utils.c ****         return NULL;
 152              		.loc 1 40 5 is_stmt 1
  40:C:/Users/stapi/OneDrive/Desktop/GD32VW553/V1_MQTT_OK/GD32VW55X_Wifi_BLE_SDK/GD32VW55x_RELEASE_V1.0.2/MSDK/cloud/alicloud/src/infra/utils/misc\string_utils.c ****         return NULL;
 153              		.loc 1 40 8 is_stmt 0
 154 0076 19C5     		beq	a0,zero,.L6
  43:C:/Users/stapi/OneDrive/Desktop/GD32VW553/V1_MQTT_OK/GD32VW55X_Wifi_BLE_SDK/GD32VW55x_RELEASE_V1.0.2/MSDK/cloud/alicloud/src/infra/utils/misc\string_utils.c **** 
 155              		.loc 1 43 5 is_stmt 1
 156 0078 2686     		mv	a2,s1
 157 007a CA85     		mv	a1,s2
 158 007c 97000000 		call	strncpy
 158      E7800000 
 159              	.LVL12:
  45:C:/Users/stapi/OneDrive/Desktop/GD32VW553/V1_MQTT_OK/GD32VW55X_Wifi_BLE_SDK/GD32VW55x_RELEASE_V1.0.2/MSDK/cloud/alicloud/src/infra/utils/misc\string_utils.c **** }
 160              		.loc 1 45 5
 161              	.L6:
  46:C:/Users/stapi/OneDrive/Desktop/GD32VW553/V1_MQTT_OK/GD32VW55X_Wifi_BLE_SDK/GD32VW55x_RELEASE_V1.0.2/MSDK/cloud/alicloud/src/infra/utils/misc\string_utils.c **** 
 162              		.loc 1 46 1 is_stmt 0
 163 0084 B240     		lw	ra,12(sp)
 164              		.cfi_restore 1
 165 0086 2285     		mv	a0,s0
 166 0088 2244     		lw	s0,8(sp)
 167              		.cfi_restore 8
 168 008a 9244     		lw	s1,4(sp)
 169              		.cfi_restore 9
 170 008c 0249     		lw	s2,0(sp)
 171              		.cfi_restore 18
 172 008e 4561     		addi	sp,sp,48
 173              		.cfi_def_cfa_offset 0
 174 0090 8280     		jr	ra
 175              		.cfi_endproc
 176              	.LFE20:
 178              		.section	.text.LITE_hexbuf_convert,"ax",@progbits
 179              		.align	1
 180              		.globl	LITE_hexbuf_convert
 182              	LITE_hexbuf_convert:
 183              	.LFB21:
  49:C:/Users/stapi/OneDrive/Desktop/GD32VW553/V1_MQTT_OK/GD32VW55X_Wifi_BLE_SDK/GD32VW55x_RELEASE_V1.0.2/MSDK/cloud/alicloud/src/infra/utils/misc\string_utils.c ****     static char    *zEncode[] = {"0123456789abcdef", "0123456789ABCDEF"};
 184              		.loc 1 49 1 is_stmt 1
 185              		.cfi_startproc
 186              	.LVL13:
  50:C:/Users/stapi/OneDrive/Desktop/GD32VW553/V1_MQTT_OK/GD32VW55X_Wifi_BLE_SDK/GD32VW55x_RELEASE_V1.0.2/MSDK/cloud/alicloud/src/infra/utils/misc\string_utils.c ****     int             j = 0;
 187              		.loc 1 50 5
  51:C:/Users/stapi/OneDrive/Desktop/GD32VW553/V1_MQTT_OK/GD32VW55X_Wifi_BLE_SDK/GD32VW55x_RELEASE_V1.0.2/MSDK/cloud/alicloud/src/infra/utils/misc\string_utils.c ****     int             i = 0;
 188              		.loc 1 51 5
  52:C:/Users/stapi/OneDrive/Desktop/GD32VW553/V1_MQTT_OK/GD32VW55X_Wifi_BLE_SDK/GD32VW55x_RELEASE_V1.0.2/MSDK/cloud/alicloud/src/infra/utils/misc\string_utils.c ****     int             idx = uppercase ? 1 : 0;
 189              		.loc 1 52 5
  53:C:/Users/stapi/OneDrive/Desktop/GD32VW553/V1_MQTT_OK/GD32VW55X_Wifi_BLE_SDK/GD32VW55x_RELEASE_V1.0.2/MSDK/cloud/alicloud/src/infra/utils/misc\string_utils.c **** 
 190              		.loc 1 53 5
 191              	.LBB2:
  58:C:/Users/stapi/OneDrive/Desktop/GD32VW553/V1_MQTT_OK/GD32VW55X_Wifi_BLE_SDK/GD32VW55x_RELEASE_V1.0.2/MSDK/cloud/alicloud/src/infra/utils/misc\string_utils.c ****         out[j++] = zEncode[idx][a & 0xf];
 192              		.loc 1 58 27 is_stmt 0
 193 0000 37070000 		lui	a4,%hi(.LANCHOR0)
 194              	.LBE2:
  53:C:/Users/stapi/OneDrive/Desktop/GD32VW553/V1_MQTT_OK/GD32VW55X_Wifi_BLE_SDK/GD32VW55x_RELEASE_V1.0.2/MSDK/cloud/alicloud/src/infra/utils/misc\string_utils.c **** 
 195              		.loc 1 53 41
 196 0004 B336D000 		snez	a3,a3
 197              	.LVL14:
  55:C:/Users/stapi/OneDrive/Desktop/GD32VW553/V1_MQTT_OK/GD32VW55X_Wifi_BLE_SDK/GD32VW55x_RELEASE_V1.0.2/MSDK/cloud/alicloud/src/infra/utils/misc\string_utils.c ****         int         a = digest[i];
 198              		.loc 1 55 5 is_stmt 1
 199              	.LBB3:
  58:C:/Users/stapi/OneDrive/Desktop/GD32VW553/V1_MQTT_OK/GD32VW55X_Wifi_BLE_SDK/GD32VW55x_RELEASE_V1.0.2/MSDK/cloud/alicloud/src/infra/utils/misc\string_utils.c ****         out[j++] = zEncode[idx][a & 0xf];
 200              		.loc 1 58 27 is_stmt 0
 201 0008 13070700 		addi	a4,a4,%lo(.LANCHOR0)
 202              	.LBE3:
  55:C:/Users/stapi/OneDrive/Desktop/GD32VW553/V1_MQTT_OK/GD32VW55X_Wifi_BLE_SDK/GD32VW55x_RELEASE_V1.0.2/MSDK/cloud/alicloud/src/infra/utils/misc\string_utils.c ****         int         a = digest[i];
 203              		.loc 1 55 12
 204 000c 8147     		li	a5,0
 205              	.LBB4:
  58:C:/Users/stapi/OneDrive/Desktop/GD32VW553/V1_MQTT_OK/GD32VW55X_Wifi_BLE_SDK/GD32VW55x_RELEASE_V1.0.2/MSDK/cloud/alicloud/src/infra/utils/misc\string_utils.c ****         out[j++] = zEncode[idx][a & 0xf];
 206              		.loc 1 58 27
 207 000e B3C6E620 		sh2add	a3,a3,a4
 208              	.LVL15:
 209              	.L15:
 210              	.LBE4:
  55:C:/Users/stapi/OneDrive/Desktop/GD32VW553/V1_MQTT_OK/GD32VW55X_Wifi_BLE_SDK/GD32VW55x_RELEASE_V1.0.2/MSDK/cloud/alicloud/src/infra/utils/misc\string_utils.c ****         int         a = digest[i];
 211              		.loc 1 55 17 is_stmt 1 discriminator 1
  55:C:/Users/stapi/OneDrive/Desktop/GD32VW553/V1_MQTT_OK/GD32VW55X_Wifi_BLE_SDK/GD32VW55x_RELEASE_V1.0.2/MSDK/cloud/alicloud/src/infra/utils/misc\string_utils.c ****         int         a = digest[i];
 212              		.loc 1 55 5 is_stmt 0 discriminator 1
 213 0012 63C3C700 		blt	a5,a2,.L16
  61:C:/Users/stapi/OneDrive/Desktop/GD32VW553/V1_MQTT_OK/GD32VW55X_Wifi_BLE_SDK/GD32VW55x_RELEASE_V1.0.2/MSDK/cloud/alicloud/src/infra/utils/misc\string_utils.c **** 
 214              		.loc 1 61 1
 215 0016 8280     		ret
 216              	.L16:
 217              	.LBB5:
  56:C:/Users/stapi/OneDrive/Desktop/GD32VW553/V1_MQTT_OK/GD32VW55X_Wifi_BLE_SDK/GD32VW55x_RELEASE_V1.0.2/MSDK/cloud/alicloud/src/infra/utils/misc\string_utils.c **** 
 218              		.loc 1 56 9 is_stmt 1 discriminator 3
  56:C:/Users/stapi/OneDrive/Desktop/GD32VW553/V1_MQTT_OK/GD32VW55X_Wifi_BLE_SDK/GD32VW55x_RELEASE_V1.0.2/MSDK/cloud/alicloud/src/infra/utils/misc\string_utils.c **** 
 219              		.loc 1 56 31 is_stmt 0 discriminator 3
 220 0018 3307F500 		add	a4,a0,a5
 221 001c 03480700 		lbu	a6,0(a4)
 222              	.LVL16:
  58:C:/Users/stapi/OneDrive/Desktop/GD32VW553/V1_MQTT_OK/GD32VW55X_Wifi_BLE_SDK/GD32VW55x_RELEASE_V1.0.2/MSDK/cloud/alicloud/src/infra/utils/misc\string_utils.c ****         out[j++] = zEncode[idx][a & 0xf];
 223              		.loc 1 58 9 is_stmt 1 discriminator 3
  58:C:/Users/stapi/OneDrive/Desktop/GD32VW553/V1_MQTT_OK/GD32VW55X_Wifi_BLE_SDK/GD32VW55x_RELEASE_V1.0.2/MSDK/cloud/alicloud/src/infra/utils/misc\string_utils.c ****         out[j++] = zEncode[idx][a & 0xf];
 224              		.loc 1 58 27 is_stmt 0 discriminator 3
 225 0020 9842     		lw	a4,0(a3)
 226              	.LVL17:
 227              	.LBE5:
  55:C:/Users/stapi/OneDrive/Desktop/GD32VW553/V1_MQTT_OK/GD32VW55X_Wifi_BLE_SDK/GD32VW55x_RELEASE_V1.0.2/MSDK/cloud/alicloud/src/infra/utils/misc\string_utils.c ****         int         a = digest[i];
 228              		.loc 1 55 31 discriminator 3
 229 0022 8507     		addi	a5,a5,1
 230              	.LVL18:
 231              	.LBB6:
  58:C:/Users/stapi/OneDrive/Desktop/GD32VW553/V1_MQTT_OK/GD32VW55X_Wifi_BLE_SDK/GD32VW55x_RELEASE_V1.0.2/MSDK/cloud/alicloud/src/infra/utils/misc\string_utils.c ****         out[j++] = zEncode[idx][a & 0xf];
 232              		.loc 1 58 36 discriminator 3
 233 0024 93584840 		srai	a7,a6,4
  58:C:/Users/stapi/OneDrive/Desktop/GD32VW553/V1_MQTT_OK/GD32VW55X_Wifi_BLE_SDK/GD32VW55x_RELEASE_V1.0.2/MSDK/cloud/alicloud/src/infra/utils/misc\string_utils.c ****         out[j++] = zEncode[idx][a & 0xf];
 234              		.loc 1 58 32 discriminator 3
 235 0028 BA98     		add	a7,a4,a7
  59:C:/Users/stapi/OneDrive/Desktop/GD32VW553/V1_MQTT_OK/GD32VW55X_Wifi_BLE_SDK/GD32VW55x_RELEASE_V1.0.2/MSDK/cloud/alicloud/src/infra/utils/misc\string_utils.c ****     }
 236              		.loc 1 59 35 discriminator 3
 237 002a 1378F800 		andi	a6,a6,15
 238              	.LVL19:
  58:C:/Users/stapi/OneDrive/Desktop/GD32VW553/V1_MQTT_OK/GD32VW55X_Wifi_BLE_SDK/GD32VW55x_RELEASE_V1.0.2/MSDK/cloud/alicloud/src/infra/utils/misc\string_utils.c ****         out[j++] = zEncode[idx][a & 0xf];
 239              		.loc 1 58 32 discriminator 3
 240 002e 83880800 		lb	a7,0(a7)
  59:C:/Users/stapi/OneDrive/Desktop/GD32VW553/V1_MQTT_OK/GD32VW55X_Wifi_BLE_SDK/GD32VW55x_RELEASE_V1.0.2/MSDK/cloud/alicloud/src/infra/utils/misc\string_utils.c ****     }
 241              		.loc 1 59 32 discriminator 3
 242 0032 4297     		add	a4,a4,a6
  58:C:/Users/stapi/OneDrive/Desktop/GD32VW553/V1_MQTT_OK/GD32VW55X_Wifi_BLE_SDK/GD32VW55x_RELEASE_V1.0.2/MSDK/cloud/alicloud/src/infra/utils/misc\string_utils.c ****         out[j++] = zEncode[idx][a & 0xf];
 243              		.loc 1 58 18 discriminator 3
 244 0034 23801501 		sb	a7,0(a1)
 245              	.LVL20:
  59:C:/Users/stapi/OneDrive/Desktop/GD32VW553/V1_MQTT_OK/GD32VW55X_Wifi_BLE_SDK/GD32VW55x_RELEASE_V1.0.2/MSDK/cloud/alicloud/src/infra/utils/misc\string_utils.c ****     }
 246              		.loc 1 59 9 is_stmt 1 discriminator 3
  59:C:/Users/stapi/OneDrive/Desktop/GD32VW553/V1_MQTT_OK/GD32VW55X_Wifi_BLE_SDK/GD32VW55x_RELEASE_V1.0.2/MSDK/cloud/alicloud/src/infra/utils/misc\string_utils.c ****     }
 247              		.loc 1 59 32 is_stmt 0 discriminator 3
 248 0038 03070700 		lb	a4,0(a4)
 249 003c 8905     		addi	a1,a1,2
 250              	.LVL21:
  59:C:/Users/stapi/OneDrive/Desktop/GD32VW553/V1_MQTT_OK/GD32VW55X_Wifi_BLE_SDK/GD32VW55x_RELEASE_V1.0.2/MSDK/cloud/alicloud/src/infra/utils/misc\string_utils.c ****     }
 251              		.loc 1 59 18 discriminator 3
 252 003e A38FE5FE 		sb	a4,-1(a1)
 253              	.LBE6:
  55:C:/Users/stapi/OneDrive/Desktop/GD32VW553/V1_MQTT_OK/GD32VW55X_Wifi_BLE_SDK/GD32VW55x_RELEASE_V1.0.2/MSDK/cloud/alicloud/src/infra/utils/misc\string_utils.c ****         int         a = digest[i];
 254              		.loc 1 55 29 is_stmt 1 discriminator 3
 255              	.LVL22:
 256 0042 C1BF     		j	.L15
 257              		.cfi_endproc
 258              	.LFE21:
 260              		.section	.rodata.LITE_hexstr_convert.str1.4,"aMS",@progbits,1
 261              		.align	2
 262              	.LC3:
 263 0000 68657873 		.string	"hexstr length (%d) is not even"
 263      7472206C 
 263      656E6774 
 263      68202825 
 263      64292069 
 264              		.section	.text.LITE_hexstr_convert,"ax",@progbits
 265              		.align	1
 266              		.globl	LITE_hexstr_convert
 268              	LITE_hexstr_convert:
 269              	.LFB23:
  77:C:/Users/stapi/OneDrive/Desktop/GD32VW553/V1_MQTT_OK/GD32VW55X_Wifi_BLE_SDK/GD32VW55x_RELEASE_V1.0.2/MSDK/cloud/alicloud/src/infra/utils/misc\string_utils.c **** 
  78:C:/Users/stapi/OneDrive/Desktop/GD32VW553/V1_MQTT_OK/GD32VW55X_Wifi_BLE_SDK/GD32VW55x_RELEASE_V1.0.2/MSDK/cloud/alicloud/src/infra/utils/misc\string_utils.c **** void LITE_hexstr_convert(char *input, int input_len, unsigned char *output, int output_len)
  79:C:/Users/stapi/OneDrive/Desktop/GD32VW553/V1_MQTT_OK/GD32VW55X_Wifi_BLE_SDK/GD32VW55x_RELEASE_V1.0.2/MSDK/cloud/alicloud/src/infra/utils/misc\string_utils.c **** {
 270              		.loc 1 79 1
 271              		.cfi_startproc
 272              	.LVL23:
 273 0000 17030000 		call	t0,__riscv_save_6
 273      E7020300 
 274              		.cfi_offset 21, -28
 275              		.cfi_offset 20, -24
 276              		.cfi_offset 19, -20
 277              		.cfi_offset 18, -16
 278              		.cfi_offset 9, -12
 279              		.cfi_offset 8, -8
 280              		.cfi_offset 1, -4
 281              		.cfi_def_cfa_offset 32
  80:C:/Users/stapi/OneDrive/Desktop/GD32VW553/V1_MQTT_OK/GD32VW55X_Wifi_BLE_SDK/GD32VW55x_RELEASE_V1.0.2/MSDK/cloud/alicloud/src/infra/utils/misc\string_utils.c ****     int             i = 0;
 282              		.loc 1 80 5
 283              	.LVL24:
  81:C:/Users/stapi/OneDrive/Desktop/GD32VW553/V1_MQTT_OK/GD32VW55X_Wifi_BLE_SDK/GD32VW55x_RELEASE_V1.0.2/MSDK/cloud/alicloud/src/infra/utils/misc\string_utils.c ****     uint8_t         ch0, ch1;
 284              		.loc 1 81 5
  82:C:/Users/stapi/OneDrive/Desktop/GD32VW553/V1_MQTT_OK/GD32VW55X_Wifi_BLE_SDK/GD32VW55x_RELEASE_V1.0.2/MSDK/cloud/alicloud/src/infra/utils/misc\string_utils.c **** 
  83:C:/Users/stapi/OneDrive/Desktop/GD32VW553/V1_MQTT_OK/GD32VW55X_Wifi_BLE_SDK/GD32VW55x_RELEASE_V1.0.2/MSDK/cloud/alicloud/src/infra/utils/misc\string_utils.c ****     if (input_len % 2 != 0) {
 285              		.loc 1 83 5
 286              		.loc 1 83 23 is_stmt 0
 287 0008 93F71500 		andi	a5,a1,1
  79:C:/Users/stapi/OneDrive/Desktop/GD32VW553/V1_MQTT_OK/GD32VW55X_Wifi_BLE_SDK/GD32VW55x_RELEASE_V1.0.2/MSDK/cloud/alicloud/src/infra/utils/misc\string_utils.c ****     int             i = 0;
 288              		.loc 1 79 1
 289 000c 4111     		addi	sp,sp,-16
 290              		.cfi_def_cfa_offset 48
 291              		.loc 1 83 8
 292 000e B9E3     		bne	a5,zero,.L18
  84:C:/Users/stapi/OneDrive/Desktop/GD32VW553/V1_MQTT_OK/GD32VW55X_Wifi_BLE_SDK/GD32VW55x_RELEASE_V1.0.2/MSDK/cloud/alicloud/src/infra/utils/misc\string_utils.c ****         utils_err("hexstr length (%d) is not even", input_len);
  85:C:/Users/stapi/OneDrive/Desktop/GD32VW553/V1_MQTT_OK/GD32VW55X_Wifi_BLE_SDK/GD32VW55x_RELEASE_V1.0.2/MSDK/cloud/alicloud/src/infra/utils/misc\string_utils.c ****         return;
  86:C:/Users/stapi/OneDrive/Desktop/GD32VW553/V1_MQTT_OK/GD32VW55X_Wifi_BLE_SDK/GD32VW55x_RELEASE_V1.0.2/MSDK/cloud/alicloud/src/infra/utils/misc\string_utils.c ****     }
  87:C:/Users/stapi/OneDrive/Desktop/GD32VW553/V1_MQTT_OK/GD32VW55X_Wifi_BLE_SDK/GD32VW55x_RELEASE_V1.0.2/MSDK/cloud/alicloud/src/infra/utils/misc\string_utils.c **** 
  88:C:/Users/stapi/OneDrive/Desktop/GD32VW553/V1_MQTT_OK/GD32VW55X_Wifi_BLE_SDK/GD32VW55x_RELEASE_V1.0.2/MSDK/cloud/alicloud/src/infra/utils/misc\string_utils.c ****     while (i < input_len / 2 && i < output_len) {
 293              		.loc 1 88 26
 294 0010 8944     		li	s1,2
 295 0012 B3C49502 		div	s1,a1,s1
 296 0016 2A84     		mv	s0,a0
 297 0018 B28A     		mv	s5,a2
 298 001a 368A     		mv	s4,a3
  80:C:/Users/stapi/OneDrive/Desktop/GD32VW553/V1_MQTT_OK/GD32VW55X_Wifi_BLE_SDK/GD32VW55x_RELEASE_V1.0.2/MSDK/cloud/alicloud/src/infra/utils/misc\string_utils.c ****     uint8_t         ch0, ch1;
 299              		.loc 1 80 21
 300 001c 8149     		li	s3,0
 301              	.LVL25:
 302              	.L19:
 303              		.loc 1 88 11 is_stmt 1
 304 001e 63D59906 		ble	s1,s3,.L17
 305              		.loc 1 88 30 is_stmt 0 discriminator 1
 306 0022 63D34907 		bge	s3,s4,.L17
  89:C:/Users/stapi/OneDrive/Desktop/GD32VW553/V1_MQTT_OK/GD32VW55X_Wifi_BLE_SDK/GD32VW55x_RELEASE_V1.0.2/MSDK/cloud/alicloud/src/infra/utils/misc\string_utils.c ****         ch0 = _hexval_of_char((char)input[2 * i]);
 307              		.loc 1 89 9 is_stmt 1
 308              		.loc 1 89 15 is_stmt 0
 309 0026 03050400 		lb	a0,0(s0)
 310 002a 97000000 		call	_hexval_of_char
 310      E7800000 
 311              	.LVL26:
 312 0032 2A89     		mv	s2,a0
 313              	.LVL27:
  90:C:/Users/stapi/OneDrive/Desktop/GD32VW553/V1_MQTT_OK/GD32VW55X_Wifi_BLE_SDK/GD32VW55x_RELEASE_V1.0.2/MSDK/cloud/alicloud/src/infra/utils/misc\string_utils.c ****         ch1 = _hexval_of_char((char)input[2 * i + 1]);
 314              		.loc 1 90 9 is_stmt 1
  91:C:/Users/stapi/OneDrive/Desktop/GD32VW553/V1_MQTT_OK/GD32VW55X_Wifi_BLE_SDK/GD32VW55x_RELEASE_V1.0.2/MSDK/cloud/alicloud/src/infra/utils/misc\string_utils.c ****         output[i] = (ch0 << 4 | ch1);
 315              		.loc 1 91 26 is_stmt 0
 316 0034 1209     		slli	s2,s2,4
 317              	.LVL28:
  90:C:/Users/stapi/OneDrive/Desktop/GD32VW553/V1_MQTT_OK/GD32VW55X_Wifi_BLE_SDK/GD32VW55x_RELEASE_V1.0.2/MSDK/cloud/alicloud/src/infra/utils/misc\string_utils.c ****         ch1 = _hexval_of_char((char)input[2 * i + 1]);
 318              		.loc 1 90 15
 319 0036 03051400 		lb	a0,1(s0)
 320 003a 97000000 		call	_hexval_of_char
 320      E7800000 
 321              	.LVL29:
 322              		.loc 1 91 9 is_stmt 1
 323              		.loc 1 91 19 is_stmt 0
 324 0042 B3873A01 		add	a5,s5,s3
 325              		.loc 1 91 31
 326 0046 3369A900 		or	s2,s2,a0
 327              		.loc 1 91 19
 328 004a 23802701 		sb	s2,0(a5)
  92:C:/Users/stapi/OneDrive/Desktop/GD32VW553/V1_MQTT_OK/GD32VW55X_Wifi_BLE_SDK/GD32VW55x_RELEASE_V1.0.2/MSDK/cloud/alicloud/src/infra/utils/misc\string_utils.c ****         i++;
 329              		.loc 1 92 9 is_stmt 1
 330              		.loc 1 92 10 is_stmt 0
 331 004e 8509     		addi	s3,s3,1
 332              	.LVL30:
 333 0050 0904     		addi	s0,s0,2
 334 0052 F1B7     		j	.L19
 335              	.LVL31:
 336              	.L18:
  84:C:/Users/stapi/OneDrive/Desktop/GD32VW553/V1_MQTT_OK/GD32VW55X_Wifi_BLE_SDK/GD32VW55x_RELEASE_V1.0.2/MSDK/cloud/alicloud/src/infra/utils/misc\string_utils.c ****         return;
 337              		.loc 1 84 9
 338 0054 37050000 		lui	a0,%hi(.LC0)
 339              	.LVL32:
 340 0058 13050500 		addi	a0,a0,%lo(.LC0)
 341 005c 2EC6     		sw	a1,12(sp)
  84:C:/Users/stapi/OneDrive/Desktop/GD32VW553/V1_MQTT_OK/GD32VW55X_Wifi_BLE_SDK/GD32VW55x_RELEASE_V1.0.2/MSDK/cloud/alicloud/src/infra/utils/misc\string_utils.c ****         return;
 342              		.loc 1 84 9 is_stmt 1
  84:C:/Users/stapi/OneDrive/Desktop/GD32VW553/V1_MQTT_OK/GD32VW55X_Wifi_BLE_SDK/GD32VW55x_RELEASE_V1.0.2/MSDK/cloud/alicloud/src/infra/utils/misc\string_utils.c ****         return;
 343              		.loc 1 84 9
 344 005e 97000000 		call	HAL_Printf
 344      E7800000 
 345              	.LVL33:
  84:C:/Users/stapi/OneDrive/Desktop/GD32VW553/V1_MQTT_OK/GD32VW55X_Wifi_BLE_SDK/GD32VW55x_RELEASE_V1.0.2/MSDK/cloud/alicloud/src/infra/utils/misc\string_utils.c ****         return;
 346              		.loc 1 84 9
 347 0066 B245     		lw	a1,12(sp)
 348 0068 37050000 		lui	a0,%hi(.LC3)
 349 006c 13050500 		addi	a0,a0,%lo(.LC3)
 350 0070 97000000 		call	HAL_Printf
 350      E7800000 
 351              	.LVL34:
  84:C:/Users/stapi/OneDrive/Desktop/GD32VW553/V1_MQTT_OK/GD32VW55X_Wifi_BLE_SDK/GD32VW55x_RELEASE_V1.0.2/MSDK/cloud/alicloud/src/infra/utils/misc\string_utils.c ****         return;
 352              		.loc 1 84 9
 353 0078 37050000 		lui	a0,%hi(.LC2)
 354 007c 13050500 		addi	a0,a0,%lo(.LC2)
 355 0080 97000000 		call	HAL_Printf
 355      E7800000 
 356              	.LVL35:
  84:C:/Users/stapi/OneDrive/Desktop/GD32VW553/V1_MQTT_OK/GD32VW55X_Wifi_BLE_SDK/GD32VW55x_RELEASE_V1.0.2/MSDK/cloud/alicloud/src/infra/utils/misc\string_utils.c ****         return;
 357              		.loc 1 84 9
  85:C:/Users/stapi/OneDrive/Desktop/GD32VW553/V1_MQTT_OK/GD32VW55X_Wifi_BLE_SDK/GD32VW55x_RELEASE_V1.0.2/MSDK/cloud/alicloud/src/infra/utils/misc\string_utils.c ****     }
 358              		.loc 1 85 9
 359              	.L17:
  93:C:/Users/stapi/OneDrive/Desktop/GD32VW553/V1_MQTT_OK/GD32VW55X_Wifi_BLE_SDK/GD32VW55x_RELEASE_V1.0.2/MSDK/cloud/alicloud/src/infra/utils/misc\string_utils.c ****     }
  94:C:/Users/stapi/OneDrive/Desktop/GD32VW553/V1_MQTT_OK/GD32VW55X_Wifi_BLE_SDK/GD32VW55x_RELEASE_V1.0.2/MSDK/cloud/alicloud/src/infra/utils/misc\string_utils.c **** }
 360              		.loc 1 94 1 is_stmt 0
 361 0088 4101     		addi	sp,sp,16
 362              		.cfi_def_cfa_offset 0
 363 008a 17030000 		tail	__riscv_restore_6
 363      67000300 
 364              		.cfi_restore 21
 365              		.cfi_restore 20
 366              		.cfi_restore 19
 367              		.cfi_restore 18
 368              		.cfi_restore 9
 369              		.cfi_restore 8
 370              		.cfi_restore 1
 371              		.cfi_def_cfa_offset -32
 372              		.cfi_endproc
 373              	.LFE23:
 375              		.section	.rodata.LITE_get_randstr.str1.4,"aMS",@progbits,1
 376              		.align	2
 377              	.LC4:
 378 0000 496E7661 		.string	"Invalid Parameter"
 378      6C696420 
 378      50617261 
 378      6D657465 
 378      7200
 379 0012 0000     		.align	2
 380              	.LC5:
 381 0014 53686F75 		.string	"Should Not Execute Here"
 381      6C64204E 
 381      6F742045 
 381      78656375 
 381      74652048 
 382              		.section	.text.LITE_get_randstr,"ax",@progbits
 383              		.align	1
 384              		.globl	LITE_get_randstr
 386              	LITE_get_randstr:
 387              	.LFB24:
  95:C:/Users/stapi/OneDrive/Desktop/GD32VW553/V1_MQTT_OK/GD32VW55X_Wifi_BLE_SDK/GD32VW55x_RELEASE_V1.0.2/MSDK/cloud/alicloud/src/infra/utils/misc\string_utils.c **** 
  96:C:/Users/stapi/OneDrive/Desktop/GD32VW553/V1_MQTT_OK/GD32VW55X_Wifi_BLE_SDK/GD32VW55x_RELEASE_V1.0.2/MSDK/cloud/alicloud/src/infra/utils/misc\string_utils.c **** int LITE_get_randstr(_OU_ char *random, _IN_ int length)
  97:C:/Users/stapi/OneDrive/Desktop/GD32VW553/V1_MQTT_OK/GD32VW55X_Wifi_BLE_SDK/GD32VW55x_RELEASE_V1.0.2/MSDK/cloud/alicloud/src/infra/utils/misc\string_utils.c **** {
 388              		.loc 1 97 1 is_stmt 1
 389              		.cfi_startproc
 390              	.LVL36:
 391 0000 17030000 		call	t0,__riscv_save_4
 391      E7020300 
 392              		.cfi_offset 19, -20
 393              		.cfi_offset 18, -16
 394              		.cfi_offset 9, -12
 395              		.cfi_offset 8, -8
 396              		.cfi_offset 1, -4
 397              		.cfi_def_cfa_offset 32
  98:C:/Users/stapi/OneDrive/Desktop/GD32VW553/V1_MQTT_OK/GD32VW55X_Wifi_BLE_SDK/GD32VW55x_RELEASE_V1.0.2/MSDK/cloud/alicloud/src/infra/utils/misc\string_utils.c ****     int index = 0;
 398              		.loc 1 98 5
 399              	.LVL37:
  99:C:/Users/stapi/OneDrive/Desktop/GD32VW553/V1_MQTT_OK/GD32VW55X_Wifi_BLE_SDK/GD32VW55x_RELEASE_V1.0.2/MSDK/cloud/alicloud/src/infra/utils/misc\string_utils.c **** 
 100:C:/Users/stapi/OneDrive/Desktop/GD32VW553/V1_MQTT_OK/GD32VW55X_Wifi_BLE_SDK/GD32VW55x_RELEASE_V1.0.2/MSDK/cloud/alicloud/src/infra/utils/misc\string_utils.c ****     if (random == NULL || length <= 0) {
 400              		.loc 1 100 5
 401              		.loc 1 100 8 is_stmt 0
 402 0008 01C5     		beq	a0,zero,.L24
 403 000a AE84     		mv	s1,a1
 404              		.loc 1 100 24 discriminator 1
 405 000c 634FB002 		bgt	a1,zero,.L25
 406              	.L24:
 101:C:/Users/stapi/OneDrive/Desktop/GD32VW553/V1_MQTT_OK/GD32VW55X_Wifi_BLE_SDK/GD32VW55x_RELEASE_V1.0.2/MSDK/cloud/alicloud/src/infra/utils/misc\string_utils.c ****         utils_err("Invalid Parameter");
 407              		.loc 1 101 9 is_stmt 1
 408              		.loc 1 101 9
 409 0010 37050000 		lui	a0,%hi(.LC0)
 410              	.LVL38:
 411 0014 13050500 		addi	a0,a0,%lo(.LC0)
 412 0018 97000000 		call	HAL_Printf
 412      E7800000 
 413              	.LVL39:
 414              		.loc 1 101 9
 415 0020 37050000 		lui	a0,%hi(.LC4)
 416 0024 13050500 		addi	a0,a0,%lo(.LC4)
 417              	.LVL40:
 418              	.L38:
 102:C:/Users/stapi/OneDrive/Desktop/GD32VW553/V1_MQTT_OK/GD32VW55X_Wifi_BLE_SDK/GD32VW55x_RELEASE_V1.0.2/MSDK/cloud/alicloud/src/infra/utils/misc\string_utils.c ****         return FAIL_RETURN;
 103:C:/Users/stapi/OneDrive/Desktop/GD32VW553/V1_MQTT_OK/GD32VW55X_Wifi_BLE_SDK/GD32VW55x_RELEASE_V1.0.2/MSDK/cloud/alicloud/src/infra/utils/misc\string_utils.c ****     }
 104:C:/Users/stapi/OneDrive/Desktop/GD32VW553/V1_MQTT_OK/GD32VW55X_Wifi_BLE_SDK/GD32VW55x_RELEASE_V1.0.2/MSDK/cloud/alicloud/src/infra/utils/misc\string_utils.c **** 
 105:C:/Users/stapi/OneDrive/Desktop/GD32VW553/V1_MQTT_OK/GD32VW55X_Wifi_BLE_SDK/GD32VW55x_RELEASE_V1.0.2/MSDK/cloud/alicloud/src/infra/utils/misc\string_utils.c ****     HAL_Srandom(HAL_UptimeMs());
 106:C:/Users/stapi/OneDrive/Desktop/GD32VW553/V1_MQTT_OK/GD32VW55X_Wifi_BLE_SDK/GD32VW55x_RELEASE_V1.0.2/MSDK/cloud/alicloud/src/infra/utils/misc\string_utils.c **** 
 107:C:/Users/stapi/OneDrive/Desktop/GD32VW553/V1_MQTT_OK/GD32VW55X_Wifi_BLE_SDK/GD32VW55x_RELEASE_V1.0.2/MSDK/cloud/alicloud/src/infra/utils/misc\string_utils.c ****     for (index = 0; index < length; index++) {
 108:C:/Users/stapi/OneDrive/Desktop/GD32VW553/V1_MQTT_OK/GD32VW55X_Wifi_BLE_SDK/GD32VW55x_RELEASE_V1.0.2/MSDK/cloud/alicloud/src/infra/utils/misc\string_utils.c ****         switch (HAL_Random(3)) {
 109:C:/Users/stapi/OneDrive/Desktop/GD32VW553/V1_MQTT_OK/GD32VW55X_Wifi_BLE_SDK/GD32VW55x_RELEASE_V1.0.2/MSDK/cloud/alicloud/src/infra/utils/misc\string_utils.c ****             case 0: {
 110:C:/Users/stapi/OneDrive/Desktop/GD32VW553/V1_MQTT_OK/GD32VW55X_Wifi_BLE_SDK/GD32VW55x_RELEASE_V1.0.2/MSDK/cloud/alicloud/src/infra/utils/misc\string_utils.c ****                 random[index] = 'A' + HAL_Random(26);
 111:C:/Users/stapi/OneDrive/Desktop/GD32VW553/V1_MQTT_OK/GD32VW55X_Wifi_BLE_SDK/GD32VW55x_RELEASE_V1.0.2/MSDK/cloud/alicloud/src/infra/utils/misc\string_utils.c ****             }
 112:C:/Users/stapi/OneDrive/Desktop/GD32VW553/V1_MQTT_OK/GD32VW55X_Wifi_BLE_SDK/GD32VW55x_RELEASE_V1.0.2/MSDK/cloud/alicloud/src/infra/utils/misc\string_utils.c ****             break;
 113:C:/Users/stapi/OneDrive/Desktop/GD32VW553/V1_MQTT_OK/GD32VW55X_Wifi_BLE_SDK/GD32VW55x_RELEASE_V1.0.2/MSDK/cloud/alicloud/src/infra/utils/misc\string_utils.c ****             case 1: {
 114:C:/Users/stapi/OneDrive/Desktop/GD32VW553/V1_MQTT_OK/GD32VW55X_Wifi_BLE_SDK/GD32VW55x_RELEASE_V1.0.2/MSDK/cloud/alicloud/src/infra/utils/misc\string_utils.c ****                 random[index]  = 'a' + HAL_Random(26);
 115:C:/Users/stapi/OneDrive/Desktop/GD32VW553/V1_MQTT_OK/GD32VW55X_Wifi_BLE_SDK/GD32VW55x_RELEASE_V1.0.2/MSDK/cloud/alicloud/src/infra/utils/misc\string_utils.c ****             }
 116:C:/Users/stapi/OneDrive/Desktop/GD32VW553/V1_MQTT_OK/GD32VW55X_Wifi_BLE_SDK/GD32VW55x_RELEASE_V1.0.2/MSDK/cloud/alicloud/src/infra/utils/misc\string_utils.c ****             break;
 117:C:/Users/stapi/OneDrive/Desktop/GD32VW553/V1_MQTT_OK/GD32VW55X_Wifi_BLE_SDK/GD32VW55x_RELEASE_V1.0.2/MSDK/cloud/alicloud/src/infra/utils/misc\string_utils.c ****             case 2: {
 118:C:/Users/stapi/OneDrive/Desktop/GD32VW553/V1_MQTT_OK/GD32VW55X_Wifi_BLE_SDK/GD32VW55x_RELEASE_V1.0.2/MSDK/cloud/alicloud/src/infra/utils/misc\string_utils.c ****                 random[index] = '0' + HAL_Random(10);
 119:C:/Users/stapi/OneDrive/Desktop/GD32VW553/V1_MQTT_OK/GD32VW55X_Wifi_BLE_SDK/GD32VW55x_RELEASE_V1.0.2/MSDK/cloud/alicloud/src/infra/utils/misc\string_utils.c ****             }
 120:C:/Users/stapi/OneDrive/Desktop/GD32VW553/V1_MQTT_OK/GD32VW55X_Wifi_BLE_SDK/GD32VW55x_RELEASE_V1.0.2/MSDK/cloud/alicloud/src/infra/utils/misc\string_utils.c ****             break;
 121:C:/Users/stapi/OneDrive/Desktop/GD32VW553/V1_MQTT_OK/GD32VW55X_Wifi_BLE_SDK/GD32VW55x_RELEASE_V1.0.2/MSDK/cloud/alicloud/src/infra/utils/misc\string_utils.c ****             default: {
 122:C:/Users/stapi/OneDrive/Desktop/GD32VW553/V1_MQTT_OK/GD32VW55X_Wifi_BLE_SDK/GD32VW55x_RELEASE_V1.0.2/MSDK/cloud/alicloud/src/infra/utils/misc\string_utils.c ****                 utils_err("Should Not Execute Here");
 419              		.loc 1 122 17 is_stmt 0
 420 0028 97000000 		call	HAL_Printf
 420      E7800000 
 421              	.LVL41:
 422              		.loc 1 122 17 is_stmt 1
 423 0030 37050000 		lui	a0,%hi(.LC2)
 424 0034 13050500 		addi	a0,a0,%lo(.LC2)
 425 0038 97000000 		call	HAL_Printf
 425      E7800000 
 426              	.LVL42:
 427              		.loc 1 122 17
 123:C:/Users/stapi/OneDrive/Desktop/GD32VW553/V1_MQTT_OK/GD32VW55X_Wifi_BLE_SDK/GD32VW55x_RELEASE_V1.0.2/MSDK/cloud/alicloud/src/infra/utils/misc\string_utils.c ****                 return FAIL_RETURN;
 428              		.loc 1 123 17
 429              		.loc 1 123 24 is_stmt 0
 430 0040 7D55     		li	a0,-1
 431              	.L23:
 124:C:/Users/stapi/OneDrive/Desktop/GD32VW553/V1_MQTT_OK/GD32VW55X_Wifi_BLE_SDK/GD32VW55x_RELEASE_V1.0.2/MSDK/cloud/alicloud/src/infra/utils/misc\string_utils.c ****             }
 125:C:/Users/stapi/OneDrive/Desktop/GD32VW553/V1_MQTT_OK/GD32VW55X_Wifi_BLE_SDK/GD32VW55x_RELEASE_V1.0.2/MSDK/cloud/alicloud/src/infra/utils/misc\string_utils.c ****         }
 126:C:/Users/stapi/OneDrive/Desktop/GD32VW553/V1_MQTT_OK/GD32VW55X_Wifi_BLE_SDK/GD32VW55x_RELEASE_V1.0.2/MSDK/cloud/alicloud/src/infra/utils/misc\string_utils.c ****     }
 127:C:/Users/stapi/OneDrive/Desktop/GD32VW553/V1_MQTT_OK/GD32VW55X_Wifi_BLE_SDK/GD32VW55x_RELEASE_V1.0.2/MSDK/cloud/alicloud/src/infra/utils/misc\string_utils.c **** 
 128:C:/Users/stapi/OneDrive/Desktop/GD32VW553/V1_MQTT_OK/GD32VW55X_Wifi_BLE_SDK/GD32VW55x_RELEASE_V1.0.2/MSDK/cloud/alicloud/src/infra/utils/misc\string_utils.c ****     return SUCCESS_RETURN;
 129:C:/Users/stapi/OneDrive/Desktop/GD32VW553/V1_MQTT_OK/GD32VW55X_Wifi_BLE_SDK/GD32VW55x_RELEASE_V1.0.2/MSDK/cloud/alicloud/src/infra/utils/misc\string_utils.c **** }
 432              		.loc 1 129 1
 433 0042 17030000 		tail	__riscv_restore_4
 433      67000300 
 434              		.cfi_remember_state
 435              		.cfi_restore 19
 436              		.cfi_restore 18
 437              		.cfi_restore 9
 438              		.cfi_restore 8
 439              		.cfi_restore 1
 440              		.cfi_def_cfa_offset 0
 441              	.LVL43:
 442              	.L25:
 443              		.cfi_restore_state
 444 004a 2A84     		mv	s0,a0
 105:C:/Users/stapi/OneDrive/Desktop/GD32VW553/V1_MQTT_OK/GD32VW55X_Wifi_BLE_SDK/GD32VW55x_RELEASE_V1.0.2/MSDK/cloud/alicloud/src/infra/utils/misc\string_utils.c **** 
 445              		.loc 1 105 5 is_stmt 1
 105:C:/Users/stapi/OneDrive/Desktop/GD32VW553/V1_MQTT_OK/GD32VW55X_Wifi_BLE_SDK/GD32VW55x_RELEASE_V1.0.2/MSDK/cloud/alicloud/src/infra/utils/misc\string_utils.c **** 
 446              		.loc 1 105 17 is_stmt 0
 447 004c 97000000 		call	HAL_UptimeMs
 447      E7800000 
 448              	.LVL44:
 105:C:/Users/stapi/OneDrive/Desktop/GD32VW553/V1_MQTT_OK/GD32VW55X_Wifi_BLE_SDK/GD32VW55x_RELEASE_V1.0.2/MSDK/cloud/alicloud/src/infra/utils/misc\string_utils.c **** 
 449              		.loc 1 105 5
 450 0054 97000000 		call	HAL_Srandom
 450      E7800000 
 451              	.LVL45:
 107:C:/Users/stapi/OneDrive/Desktop/GD32VW553/V1_MQTT_OK/GD32VW55X_Wifi_BLE_SDK/GD32VW55x_RELEASE_V1.0.2/MSDK/cloud/alicloud/src/infra/utils/misc\string_utils.c ****         switch (HAL_Random(3)) {
 452              		.loc 1 107 5 is_stmt 1
 107:C:/Users/stapi/OneDrive/Desktop/GD32VW553/V1_MQTT_OK/GD32VW55X_Wifi_BLE_SDK/GD32VW55x_RELEASE_V1.0.2/MSDK/cloud/alicloud/src/infra/utils/misc\string_utils.c ****         switch (HAL_Random(3)) {
 453              		.loc 1 107 21
 454 005c A294     		add	s1,s0,s1
 455              	.LVL46:
 108:C:/Users/stapi/OneDrive/Desktop/GD32VW553/V1_MQTT_OK/GD32VW55X_Wifi_BLE_SDK/GD32VW55x_RELEASE_V1.0.2/MSDK/cloud/alicloud/src/infra/utils/misc\string_utils.c ****             case 0: {
 456              		.loc 1 108 9 is_stmt 0
 457 005e 0549     		li	s2,1
 458 0060 8949     		li	s3,2
 459              	.LVL47:
 460              	.L31:
 108:C:/Users/stapi/OneDrive/Desktop/GD32VW553/V1_MQTT_OK/GD32VW55X_Wifi_BLE_SDK/GD32VW55x_RELEASE_V1.0.2/MSDK/cloud/alicloud/src/infra/utils/misc\string_utils.c ****             case 0: {
 461              		.loc 1 108 9 is_stmt 1
 108:C:/Users/stapi/OneDrive/Desktop/GD32VW553/V1_MQTT_OK/GD32VW55X_Wifi_BLE_SDK/GD32VW55x_RELEASE_V1.0.2/MSDK/cloud/alicloud/src/infra/utils/misc\string_utils.c ****             case 0: {
 462              		.loc 1 108 17 is_stmt 0
 463 0062 0D45     		li	a0,3
 464 0064 97000000 		call	HAL_Random
 464      E7800000 
 465              	.LVL48:
 108:C:/Users/stapi/OneDrive/Desktop/GD32VW553/V1_MQTT_OK/GD32VW55X_Wifi_BLE_SDK/GD32VW55x_RELEASE_V1.0.2/MSDK/cloud/alicloud/src/infra/utils/misc\string_utils.c ****             case 0: {
 466              		.loc 1 108 9
 467 006c 63032503 		beq	a0,s2,.L27
 468 0070 63093503 		beq	a0,s3,.L28
 469 0074 1DED     		bne	a0,zero,.L29
 110:C:/Users/stapi/OneDrive/Desktop/GD32VW553/V1_MQTT_OK/GD32VW55X_Wifi_BLE_SDK/GD32VW55x_RELEASE_V1.0.2/MSDK/cloud/alicloud/src/infra/utils/misc\string_utils.c ****             }
 470              		.loc 1 110 17 is_stmt 1
 110:C:/Users/stapi/OneDrive/Desktop/GD32VW553/V1_MQTT_OK/GD32VW55X_Wifi_BLE_SDK/GD32VW55x_RELEASE_V1.0.2/MSDK/cloud/alicloud/src/infra/utils/misc\string_utils.c ****             }
 471              		.loc 1 110 39 is_stmt 0
 472 0076 6945     		li	a0,26
 473 0078 97000000 		call	HAL_Random
 473      E7800000 
 474              	.LVL49:
 110:C:/Users/stapi/OneDrive/Desktop/GD32VW553/V1_MQTT_OK/GD32VW55X_Wifi_BLE_SDK/GD32VW55x_RELEASE_V1.0.2/MSDK/cloud/alicloud/src/infra/utils/misc\string_utils.c ****             }
 475              		.loc 1 110 37
 476 0080 13051504 		addi	a0,a0,65
 477              	.L37:
 118:C:/Users/stapi/OneDrive/Desktop/GD32VW553/V1_MQTT_OK/GD32VW55X_Wifi_BLE_SDK/GD32VW55x_RELEASE_V1.0.2/MSDK/cloud/alicloud/src/infra/utils/misc\string_utils.c ****             }
 478              		.loc 1 118 31
 479 0084 2300A400 		sb	a0,0(s0)
 120:C:/Users/stapi/OneDrive/Desktop/GD32VW553/V1_MQTT_OK/GD32VW55X_Wifi_BLE_SDK/GD32VW55x_RELEASE_V1.0.2/MSDK/cloud/alicloud/src/infra/utils/misc\string_utils.c ****             default: {
 480              		.loc 1 120 13 is_stmt 1
 107:C:/Users/stapi/OneDrive/Desktop/GD32VW553/V1_MQTT_OK/GD32VW55X_Wifi_BLE_SDK/GD32VW55x_RELEASE_V1.0.2/MSDK/cloud/alicloud/src/infra/utils/misc\string_utils.c ****         switch (HAL_Random(3)) {
 481              		.loc 1 107 37
 482              	.LVL50:
 107:C:/Users/stapi/OneDrive/Desktop/GD32VW553/V1_MQTT_OK/GD32VW55X_Wifi_BLE_SDK/GD32VW55x_RELEASE_V1.0.2/MSDK/cloud/alicloud/src/infra/utils/misc\string_utils.c ****         switch (HAL_Random(3)) {
 483              		.loc 1 107 21
 107:C:/Users/stapi/OneDrive/Desktop/GD32VW553/V1_MQTT_OK/GD32VW55X_Wifi_BLE_SDK/GD32VW55x_RELEASE_V1.0.2/MSDK/cloud/alicloud/src/infra/utils/misc\string_utils.c ****         switch (HAL_Random(3)) {
 484              		.loc 1 107 5 is_stmt 0
 485 0088 0504     		addi	s0,s0,1
 486              	.LVL51:
 487 008a E31C94FC 		bne	s0,s1,.L31
 128:C:/Users/stapi/OneDrive/Desktop/GD32VW553/V1_MQTT_OK/GD32VW55X_Wifi_BLE_SDK/GD32VW55x_RELEASE_V1.0.2/MSDK/cloud/alicloud/src/infra/utils/misc\string_utils.c **** }
 488              		.loc 1 128 12
 489 008e 0145     		li	a0,0
 490 0090 4DBF     		j	.L23
 491              	.L27:
 114:C:/Users/stapi/OneDrive/Desktop/GD32VW553/V1_MQTT_OK/GD32VW55X_Wifi_BLE_SDK/GD32VW55x_RELEASE_V1.0.2/MSDK/cloud/alicloud/src/infra/utils/misc\string_utils.c ****             }
 492              		.loc 1 114 17 is_stmt 1
 114:C:/Users/stapi/OneDrive/Desktop/GD32VW553/V1_MQTT_OK/GD32VW55X_Wifi_BLE_SDK/GD32VW55x_RELEASE_V1.0.2/MSDK/cloud/alicloud/src/infra/utils/misc\string_utils.c ****             }
 493              		.loc 1 114 40 is_stmt 0
 494 0092 6945     		li	a0,26
 495 0094 97000000 		call	HAL_Random
 495      E7800000 
 496              	.LVL52:
 114:C:/Users/stapi/OneDrive/Desktop/GD32VW553/V1_MQTT_OK/GD32VW55X_Wifi_BLE_SDK/GD32VW55x_RELEASE_V1.0.2/MSDK/cloud/alicloud/src/infra/utils/misc\string_utils.c ****             }
 497              		.loc 1 114 38
 498 009c 13051506 		addi	a0,a0,97
 499 00a0 D5B7     		j	.L37
 500              	.L28:
 118:C:/Users/stapi/OneDrive/Desktop/GD32VW553/V1_MQTT_OK/GD32VW55X_Wifi_BLE_SDK/GD32VW55x_RELEASE_V1.0.2/MSDK/cloud/alicloud/src/infra/utils/misc\string_utils.c ****             }
 501              		.loc 1 118 17 is_stmt 1
 118:C:/Users/stapi/OneDrive/Desktop/GD32VW553/V1_MQTT_OK/GD32VW55X_Wifi_BLE_SDK/GD32VW55x_RELEASE_V1.0.2/MSDK/cloud/alicloud/src/infra/utils/misc\string_utils.c ****             }
 502              		.loc 1 118 39 is_stmt 0
 503 00a2 2945     		li	a0,10
 504 00a4 97000000 		call	HAL_Random
 504      E7800000 
 505              	.LVL53:
 118:C:/Users/stapi/OneDrive/Desktop/GD32VW553/V1_MQTT_OK/GD32VW55X_Wifi_BLE_SDK/GD32VW55x_RELEASE_V1.0.2/MSDK/cloud/alicloud/src/infra/utils/misc\string_utils.c ****             }
 506              		.loc 1 118 37
 507 00ac 13050503 		addi	a0,a0,48
 508 00b0 D1BF     		j	.L37
 509              	.L29:
 122:C:/Users/stapi/OneDrive/Desktop/GD32VW553/V1_MQTT_OK/GD32VW55X_Wifi_BLE_SDK/GD32VW55x_RELEASE_V1.0.2/MSDK/cloud/alicloud/src/infra/utils/misc\string_utils.c ****                 return FAIL_RETURN;
 510              		.loc 1 122 17 is_stmt 1
 122:C:/Users/stapi/OneDrive/Desktop/GD32VW553/V1_MQTT_OK/GD32VW55X_Wifi_BLE_SDK/GD32VW55x_RELEASE_V1.0.2/MSDK/cloud/alicloud/src/infra/utils/misc\string_utils.c ****                 return FAIL_RETURN;
 511              		.loc 1 122 17
 512 00b2 37050000 		lui	a0,%hi(.LC0)
 513 00b6 13050500 		addi	a0,a0,%lo(.LC0)
 514 00ba 97000000 		call	HAL_Printf
 514      E7800000 
 515              	.LVL54:
 122:C:/Users/stapi/OneDrive/Desktop/GD32VW553/V1_MQTT_OK/GD32VW55X_Wifi_BLE_SDK/GD32VW55x_RELEASE_V1.0.2/MSDK/cloud/alicloud/src/infra/utils/misc\string_utils.c ****                 return FAIL_RETURN;
 516              		.loc 1 122 17
 517 00c2 37050000 		lui	a0,%hi(.LC5)
 518 00c6 13050500 		addi	a0,a0,%lo(.LC5)
 519 00ca B9BF     		j	.L38
 520              		.cfi_endproc
 521              	.LFE24:
 523              		.section	.rodata.str1.4,"aMS",@progbits,1
 524              		.align	2
 525              	.LC6:
 526 0000 30313233 		.string	"0123456789abcdef"
 526      34353637 
 526      38396162 
 526      63646566 
 526      00
 527 0011 000000   		.align	2
 528              	.LC7:
 529 0014 30313233 		.string	"0123456789ABCDEF"
 529      34353637 
 529      38394142 
 529      43444546 
 529      00
 530              		.section	.srodata.zEncode.0,"a"
 531              		.align	2
 532              		.set	.LANCHOR0,. + 0
 535              	zEncode.0:
 536 0000 00000000 		.word	.LC6
 537 0004 00000000 		.word	.LC7
 538              		.text
 539              	.Letext0:
 540              		.file 2 "c:\\users\\stapi\\onedrive\\desktop\\gd32vw553\\embeddedbuilder_v1.4.7.26843\\tools\\nucl
 541              		.file 3 "c:\\users\\stapi\\onedrive\\desktop\\gd32vw553\\embeddedbuilder_v1.4.7.26843\\tools\\nucl
 542              		.file 4 "..\\..\\..\\..\\cloud\\alicloud\\include/iot_import.h"
 543              		.file 5 "c:\\users\\stapi\\onedrive\\desktop\\gd32vw553\\embeddedbuilder_v1.4.7.26843\\tools\\nucl
 544              		.file 6 "..\\..\\..\\..\\cloud\\alicloud\\src\\infra\\utils/iotx_utils.h"
 545              		.file 7 "..\\..\\..\\..\\cloud\\alicloud\\include/exports/iot_export_errno.h"
DEFINED SYMBOLS
                            *ABS*:0000000000000000 string_utils.c
C:\Users\stapi\AppData\Local\Temp\cc7X8qDe.s:12     .text._hexval_of_char:0000000000000000 _hexval_of_char
C:\Users\stapi\AppData\Local\Temp\cc7X8qDe.s:16     .text._hexval_of_char:0000000000000000 .L0 
C:\Users\stapi\AppData\Local\Temp\cc7X8qDe.s:18     .text._hexval_of_char:0000000000000000 .L0 
C:\Users\stapi\AppData\Local\Temp\cc7X8qDe.s:19     .text._hexval_of_char:0000000000000000 .L0 
C:\Users\stapi\AppData\Local\Temp\cc7X8qDe.s:20     .text._hexval_of_char:0000000000000000 .L0 
C:\Users\stapi\AppData\Local\Temp\cc7X8qDe.s:25     .text._hexval_of_char:000000000000000c .L0 
C:\Users\stapi\AppData\Local\Temp\cc7X8qDe.s:28     .text._hexval_of_char:0000000000000012 .L0 
C:\Users\stapi\AppData\Local\Temp\cc7X8qDe.s:29     .text._hexval_of_char:0000000000000012 .L0 
C:\Users\stapi\AppData\Local\Temp\cc7X8qDe.s:31     .text._hexval_of_char:0000000000000016 .L0 
C:\Users\stapi\AppData\Local\Temp\cc7X8qDe.s:35     .text._hexval_of_char:0000000000000020 .L0 
C:\Users\stapi\AppData\Local\Temp\cc7X8qDe.s:36     .text._hexval_of_char:0000000000000020 .L0 
C:\Users\stapi\AppData\Local\Temp\cc7X8qDe.s:40     .text._hexval_of_char:0000000000000024 .L0 
C:\Users\stapi\AppData\Local\Temp\cc7X8qDe.s:43     .text._hexval_of_char:0000000000000028 .L0 
C:\Users\stapi\AppData\Local\Temp\cc7X8qDe.s:46     .text._hexval_of_char:000000000000002a .L0 
C:\Users\stapi\AppData\Local\Temp\cc7X8qDe.s:47     .text._hexval_of_char:000000000000002a .L0 
C:\Users\stapi\AppData\Local\Temp\cc7X8qDe.s:49     .text._hexval_of_char:000000000000002e .L0 
C:\Users\stapi\AppData\Local\Temp\cc7X8qDe.s:51     .text._hexval_of_char:0000000000000032 .L0 
C:\Users\stapi\AppData\Local\Temp\cc7X8qDe.s:53     .text._hexval_of_char:0000000000000034 .L0 
C:\Users\stapi\AppData\Local\Temp\cc7X8qDe.s:55     .text._hexval_of_char:0000000000000038 .L0 
C:\Users\stapi\AppData\Local\Temp\cc7X8qDe.s:56     .text._hexval_of_char:0000000000000038 .L0 
C:\Users\stapi\AppData\Local\Temp\cc7X8qDe.s:58     .text._hexval_of_char:000000000000003e .L0 
C:\Users\stapi\AppData\Local\Temp\cc7X8qDe.s:75     .text.LITE_strdup:0000000000000000 LITE_strdup
C:\Users\stapi\AppData\Local\Temp\cc7X8qDe.s:78     .text.LITE_strdup:0000000000000000 .L0 
C:\Users\stapi\AppData\Local\Temp\cc7X8qDe.s:80     .text.LITE_strdup:0000000000000000 .L0 
C:\Users\stapi\AppData\Local\Temp\cc7X8qDe.s:81     .text.LITE_strdup:0000000000000000 .L0 
C:\Users\stapi\AppData\Local\Temp\cc7X8qDe.s:82     .text.LITE_strdup:0000000000000000 .L0 
C:\Users\stapi\AppData\Local\Temp\cc7X8qDe.s:83     .text.LITE_strdup:0000000000000000 .L0 
C:\Users\stapi\AppData\Local\Temp\cc7X8qDe.s:84     .text.LITE_strdup:0000000000000000 .L0 
C:\Users\stapi\AppData\Local\Temp\cc7X8qDe.s:85     .text.LITE_strdup:0000000000000000 .L0 
C:\Users\stapi\AppData\Local\Temp\cc7X8qDe.s:86     .text.LITE_strdup:0000000000000000 .L0 
C:\Users\stapi\AppData\Local\Temp\cc7X8qDe.s:87     .text.LITE_strdup:0000000000000002 .L0 
C:\Users\stapi\AppData\Local\Temp\cc7X8qDe.s:92     .text.LITE_strdup:000000000000000a .L0 
C:\Users\stapi\AppData\Local\Temp\cc7X8qDe.s:93     .text.LITE_strdup:000000000000000a .L0 
C:\Users\stapi\AppData\Local\Temp\cc7X8qDe.s:94     .text.LITE_strdup:000000000000000a .L0 
C:\Users\stapi\AppData\Local\Temp\cc7X8qDe.s:95     .text.LITE_strdup:000000000000000a .L0 
C:\Users\stapi\AppData\Local\Temp\cc7X8qDe.s:97     .text.LITE_strdup:000000000000000a .L0 
C:\Users\stapi\AppData\Local\Temp\cc7X8qDe.s:105    .text.LITE_strdup:0000000000000018 .L0 
C:\Users\stapi\AppData\Local\Temp\cc7X8qDe.s:108    .text.LITE_strdup:000000000000001c .L0 
C:\Users\stapi\AppData\Local\Temp\cc7X8qDe.s:109    .text.LITE_strdup:000000000000001c .L0 
C:\Users\stapi\AppData\Local\Temp\cc7X8qDe.s:112    .text.LITE_strdup:0000000000000024 .L0 
C:\Users\stapi\AppData\Local\Temp\cc7X8qDe.s:115    .text.LITE_strdup:0000000000000028 .L0 
C:\Users\stapi\AppData\Local\Temp\cc7X8qDe.s:116    .text.LITE_strdup:0000000000000028 .L0 
C:\Users\stapi\AppData\Local\Temp\cc7X8qDe.s:119    .text.LITE_strdup:0000000000000030 .L0 
C:\Users\stapi\AppData\Local\Temp\cc7X8qDe.s:120    .text.LITE_strdup:0000000000000030 .L0 
C:\Users\stapi\AppData\Local\Temp\cc7X8qDe.s:125    .text.LITE_strdup:0000000000000040 .L0 
C:\Users\stapi\AppData\Local\Temp\cc7X8qDe.s:131    .text.LITE_strdup:0000000000000052 .L0 
C:\Users\stapi\AppData\Local\Temp\cc7X8qDe.s:136    .text.LITE_strdup:0000000000000062 .L0 
C:\Users\stapi\AppData\Local\Temp\cc7X8qDe.s:138    .text.LITE_strdup:0000000000000062 .L0 
C:\Users\stapi\AppData\Local\Temp\cc7X8qDe.s:139    .text.LITE_strdup:0000000000000062 .L0 
C:\Users\stapi\AppData\Local\Temp\cc7X8qDe.s:144    .text.LITE_strdup:0000000000000066 .L0 
C:\Users\stapi\AppData\Local\Temp\cc7X8qDe.s:145    .text.LITE_strdup:0000000000000066 .L0 
C:\Users\stapi\AppData\Local\Temp\cc7X8qDe.s:153    .text.LITE_strdup:0000000000000076 .L0 
C:\Users\stapi\AppData\Local\Temp\cc7X8qDe.s:154    .text.LITE_strdup:0000000000000076 .L0 
C:\Users\stapi\AppData\Local\Temp\cc7X8qDe.s:156    .text.LITE_strdup:0000000000000078 .L0 
C:\Users\stapi\AppData\Local\Temp\cc7X8qDe.s:162    .text.LITE_strdup:0000000000000084 .L0 
C:\Users\stapi\AppData\Local\Temp\cc7X8qDe.s:163    .text.LITE_strdup:0000000000000084 .L0 
C:\Users\stapi\AppData\Local\Temp\cc7X8qDe.s:164    .text.LITE_strdup:0000000000000086 .L0 
C:\Users\stapi\AppData\Local\Temp\cc7X8qDe.s:167    .text.LITE_strdup:000000000000008a .L0 
C:\Users\stapi\AppData\Local\Temp\cc7X8qDe.s:169    .text.LITE_strdup:000000000000008c .L0 
C:\Users\stapi\AppData\Local\Temp\cc7X8qDe.s:171    .text.LITE_strdup:000000000000008e .L0 
C:\Users\stapi\AppData\Local\Temp\cc7X8qDe.s:173    .text.LITE_strdup:0000000000000090 .L0 
C:\Users\stapi\AppData\Local\Temp\cc7X8qDe.s:175    .text.LITE_strdup:0000000000000092 .L0 
C:\Users\stapi\AppData\Local\Temp\cc7X8qDe.s:182    .text.LITE_hexbuf_convert:0000000000000000 LITE_hexbuf_convert
C:\Users\stapi\AppData\Local\Temp\cc7X8qDe.s:185    .text.LITE_hexbuf_convert:0000000000000000 .L0 
C:\Users\stapi\AppData\Local\Temp\cc7X8qDe.s:187    .text.LITE_hexbuf_convert:0000000000000000 .L0 
C:\Users\stapi\AppData\Local\Temp\cc7X8qDe.s:188    .text.LITE_hexbuf_convert:0000000000000000 .L0 
C:\Users\stapi\AppData\Local\Temp\cc7X8qDe.s:189    .text.LITE_hexbuf_convert:0000000000000000 .L0 
C:\Users\stapi\AppData\Local\Temp\cc7X8qDe.s:190    .text.LITE_hexbuf_convert:0000000000000000 .L0 
C:\Users\stapi\AppData\Local\Temp\cc7X8qDe.s:192    .text.LITE_hexbuf_convert:0000000000000000 .L0 
C:\Users\stapi\AppData\Local\Temp\cc7X8qDe.s:193    .text.LITE_hexbuf_convert:0000000000000000 .L0 
C:\Users\stapi\AppData\Local\Temp\cc7X8qDe.s:196    .text.LITE_hexbuf_convert:0000000000000004 .L0 
C:\Users\stapi\AppData\Local\Temp\cc7X8qDe.s:200    .text.LITE_hexbuf_convert:0000000000000008 .L0 
C:\Users\stapi\AppData\Local\Temp\cc7X8qDe.s:201    .text.LITE_hexbuf_convert:0000000000000008 .L0 
C:\Users\stapi\AppData\Local\Temp\cc7X8qDe.s:204    .text.LITE_hexbuf_convert:000000000000000c .L0 
C:\Users\stapi\AppData\Local\Temp\cc7X8qDe.s:207    .text.LITE_hexbuf_convert:000000000000000e .L0 
C:\Users\stapi\AppData\Local\Temp\cc7X8qDe.s:212    .text.LITE_hexbuf_convert:0000000000000012 .L0 
C:\Users\stapi\AppData\Local\Temp\cc7X8qDe.s:213    .text.LITE_hexbuf_convert:0000000000000012 .L0 
C:\Users\stapi\AppData\Local\Temp\cc7X8qDe.s:215    .text.LITE_hexbuf_convert:0000000000000016 .L0 
C:\Users\stapi\AppData\Local\Temp\cc7X8qDe.s:219    .text.LITE_hexbuf_convert:0000000000000018 .L0 
C:\Users\stapi\AppData\Local\Temp\cc7X8qDe.s:220    .text.LITE_hexbuf_convert:0000000000000018 .L0 
C:\Users\stapi\AppData\Local\Temp\cc7X8qDe.s:224    .text.LITE_hexbuf_convert:0000000000000020 .L0 
C:\Users\stapi\AppData\Local\Temp\cc7X8qDe.s:225    .text.LITE_hexbuf_convert:0000000000000020 .L0 
C:\Users\stapi\AppData\Local\Temp\cc7X8qDe.s:229    .text.LITE_hexbuf_convert:0000000000000022 .L0 
C:\Users\stapi\AppData\Local\Temp\cc7X8qDe.s:233    .text.LITE_hexbuf_convert:0000000000000024 .L0 
C:\Users\stapi\AppData\Local\Temp\cc7X8qDe.s:235    .text.LITE_hexbuf_convert:0000000000000028 .L0 
C:\Users\stapi\AppData\Local\Temp\cc7X8qDe.s:237    .text.LITE_hexbuf_convert:000000000000002a .L0 
C:\Users\stapi\AppData\Local\Temp\cc7X8qDe.s:240    .text.LITE_hexbuf_convert:000000000000002e .L0 
C:\Users\stapi\AppData\Local\Temp\cc7X8qDe.s:242    .text.LITE_hexbuf_convert:0000000000000032 .L0 
C:\Users\stapi\AppData\Local\Temp\cc7X8qDe.s:244    .text.LITE_hexbuf_convert:0000000000000034 .L0 
C:\Users\stapi\AppData\Local\Temp\cc7X8qDe.s:247    .text.LITE_hexbuf_convert:0000000000000038 .L0 
C:\Users\stapi\AppData\Local\Temp\cc7X8qDe.s:248    .text.LITE_hexbuf_convert:0000000000000038 .L0 
C:\Users\stapi\AppData\Local\Temp\cc7X8qDe.s:252    .text.LITE_hexbuf_convert:000000000000003e .L0 
C:\Users\stapi\AppData\Local\Temp\cc7X8qDe.s:256    .text.LITE_hexbuf_convert:0000000000000042 .L0 
C:\Users\stapi\AppData\Local\Temp\cc7X8qDe.s:257    .text.LITE_hexbuf_convert:0000000000000044 .L0 
C:\Users\stapi\AppData\Local\Temp\cc7X8qDe.s:268    .text.LITE_hexstr_convert:0000000000000000 LITE_hexstr_convert
C:\Users\stapi\AppData\Local\Temp\cc7X8qDe.s:271    .text.LITE_hexstr_convert:0000000000000000 .L0 
C:\Users\stapi\AppData\Local\Temp\cc7X8qDe.s:273    .text.LITE_hexstr_convert:0000000000000000 .L0 
C:\Users\stapi\AppData\Local\Temp\cc7X8qDe.s:274    .text.LITE_hexstr_convert:0000000000000008 .L0 
C:\Users\stapi\AppData\Local\Temp\cc7X8qDe.s:275    .text.LITE_hexstr_convert:0000000000000008 .L0 
C:\Users\stapi\AppData\Local\Temp\cc7X8qDe.s:276    .text.LITE_hexstr_convert:0000000000000008 .L0 
C:\Users\stapi\AppData\Local\Temp\cc7X8qDe.s:277    .text.LITE_hexstr_convert:0000000000000008 .L0 
C:\Users\stapi\AppData\Local\Temp\cc7X8qDe.s:278    .text.LITE_hexstr_convert:0000000000000008 .L0 
C:\Users\stapi\AppData\Local\Temp\cc7X8qDe.s:279    .text.LITE_hexstr_convert:0000000000000008 .L0 
C:\Users\stapi\AppData\Local\Temp\cc7X8qDe.s:280    .text.LITE_hexstr_convert:0000000000000008 .L0 
C:\Users\stapi\AppData\Local\Temp\cc7X8qDe.s:281    .text.LITE_hexstr_convert:0000000000000008 .L0 
C:\Users\stapi\AppData\Local\Temp\cc7X8qDe.s:284    .text.LITE_hexstr_convert:0000000000000008 .L0 
C:\Users\stapi\AppData\Local\Temp\cc7X8qDe.s:285    .text.LITE_hexstr_convert:0000000000000008 .L0 
C:\Users\stapi\AppData\Local\Temp\cc7X8qDe.s:286    .text.LITE_hexstr_convert:0000000000000008 .L0 
C:\Users\stapi\AppData\Local\Temp\cc7X8qDe.s:287    .text.LITE_hexstr_convert:0000000000000008 .L0 
C:\Users\stapi\AppData\Local\Temp\cc7X8qDe.s:289    .text.LITE_hexstr_convert:000000000000000c .L0 
C:\Users\stapi\AppData\Local\Temp\cc7X8qDe.s:290    .text.LITE_hexstr_convert:000000000000000e .L0 
C:\Users\stapi\AppData\Local\Temp\cc7X8qDe.s:292    .text.LITE_hexstr_convert:000000000000000e .L0 
C:\Users\stapi\AppData\Local\Temp\cc7X8qDe.s:294    .text.LITE_hexstr_convert:0000000000000010 .L0 
C:\Users\stapi\AppData\Local\Temp\cc7X8qDe.s:300    .text.LITE_hexstr_convert:000000000000001c .L0 
C:\Users\stapi\AppData\Local\Temp\cc7X8qDe.s:304    .text.LITE_hexstr_convert:000000000000001e .L0 
C:\Users\stapi\AppData\Local\Temp\cc7X8qDe.s:306    .text.LITE_hexstr_convert:0000000000000022 .L0 
C:\Users\stapi\AppData\Local\Temp\cc7X8qDe.s:308    .text.LITE_hexstr_convert:0000000000000026 .L0 
C:\Users\stapi\AppData\Local\Temp\cc7X8qDe.s:309    .text.LITE_hexstr_convert:0000000000000026 .L0 
C:\Users\stapi\AppData\Local\Temp\cc7X8qDe.s:315    .text.LITE_hexstr_convert:0000000000000034 .L0 
C:\Users\stapi\AppData\Local\Temp\cc7X8qDe.s:316    .text.LITE_hexstr_convert:0000000000000034 .L0 
C:\Users\stapi\AppData\Local\Temp\cc7X8qDe.s:319    .text.LITE_hexstr_convert:0000000000000036 .L0 
C:\Users\stapi\AppData\Local\Temp\cc7X8qDe.s:323    .text.LITE_hexstr_convert:0000000000000042 .L0 
C:\Users\stapi\AppData\Local\Temp\cc7X8qDe.s:324    .text.LITE_hexstr_convert:0000000000000042 .L0 
C:\Users\stapi\AppData\Local\Temp\cc7X8qDe.s:326    .text.LITE_hexstr_convert:0000000000000046 .L0 
C:\Users\stapi\AppData\Local\Temp\cc7X8qDe.s:328    .text.LITE_hexstr_convert:000000000000004a .L0 
C:\Users\stapi\AppData\Local\Temp\cc7X8qDe.s:330    .text.LITE_hexstr_convert:000000000000004e .L0 
C:\Users\stapi\AppData\Local\Temp\cc7X8qDe.s:331    .text.LITE_hexstr_convert:000000000000004e .L0 
C:\Users\stapi\AppData\Local\Temp\cc7X8qDe.s:338    .text.LITE_hexstr_convert:0000000000000054 .L0 
C:\Users\stapi\AppData\Local\Temp\cc7X8qDe.s:343    .text.LITE_hexstr_convert:000000000000005e .L0 
C:\Users\stapi\AppData\Local\Temp\cc7X8qDe.s:344    .text.LITE_hexstr_convert:000000000000005e .L0 
C:\Users\stapi\AppData\Local\Temp\cc7X8qDe.s:347    .text.LITE_hexstr_convert:0000000000000066 .L0 
C:\Users\stapi\AppData\Local\Temp\cc7X8qDe.s:353    .text.LITE_hexstr_convert:0000000000000078 .L0 
C:\Users\stapi\AppData\Local\Temp\cc7X8qDe.s:358    .text.LITE_hexstr_convert:0000000000000088 .L0 
C:\Users\stapi\AppData\Local\Temp\cc7X8qDe.s:360    .text.LITE_hexstr_convert:0000000000000088 .L0 
C:\Users\stapi\AppData\Local\Temp\cc7X8qDe.s:361    .text.LITE_hexstr_convert:0000000000000088 .L0 
C:\Users\stapi\AppData\Local\Temp\cc7X8qDe.s:362    .text.LITE_hexstr_convert:000000000000008a .L0 
C:\Users\stapi\AppData\Local\Temp\cc7X8qDe.s:364    .text.LITE_hexstr_convert:0000000000000092 .L0 
C:\Users\stapi\AppData\Local\Temp\cc7X8qDe.s:365    .text.LITE_hexstr_convert:0000000000000092 .L0 
C:\Users\stapi\AppData\Local\Temp\cc7X8qDe.s:366    .text.LITE_hexstr_convert:0000000000000092 .L0 
C:\Users\stapi\AppData\Local\Temp\cc7X8qDe.s:367    .text.LITE_hexstr_convert:0000000000000092 .L0 
C:\Users\stapi\AppData\Local\Temp\cc7X8qDe.s:368    .text.LITE_hexstr_convert:0000000000000092 .L0 
C:\Users\stapi\AppData\Local\Temp\cc7X8qDe.s:369    .text.LITE_hexstr_convert:0000000000000092 .L0 
C:\Users\stapi\AppData\Local\Temp\cc7X8qDe.s:370    .text.LITE_hexstr_convert:0000000000000092 .L0 
C:\Users\stapi\AppData\Local\Temp\cc7X8qDe.s:371    .text.LITE_hexstr_convert:0000000000000092 .L0 
C:\Users\stapi\AppData\Local\Temp\cc7X8qDe.s:372    .text.LITE_hexstr_convert:0000000000000092 .L0 
C:\Users\stapi\AppData\Local\Temp\cc7X8qDe.s:386    .text.LITE_get_randstr:0000000000000000 LITE_get_randstr
C:\Users\stapi\AppData\Local\Temp\cc7X8qDe.s:389    .text.LITE_get_randstr:0000000000000000 .L0 
C:\Users\stapi\AppData\Local\Temp\cc7X8qDe.s:391    .text.LITE_get_randstr:0000000000000000 .L0 
C:\Users\stapi\AppData\Local\Temp\cc7X8qDe.s:392    .text.LITE_get_randstr:0000000000000008 .L0 
C:\Users\stapi\AppData\Local\Temp\cc7X8qDe.s:393    .text.LITE_get_randstr:0000000000000008 .L0 
C:\Users\stapi\AppData\Local\Temp\cc7X8qDe.s:394    .text.LITE_get_randstr:0000000000000008 .L0 
C:\Users\stapi\AppData\Local\Temp\cc7X8qDe.s:395    .text.LITE_get_randstr:0000000000000008 .L0 
C:\Users\stapi\AppData\Local\Temp\cc7X8qDe.s:396    .text.LITE_get_randstr:0000000000000008 .L0 
C:\Users\stapi\AppData\Local\Temp\cc7X8qDe.s:397    .text.LITE_get_randstr:0000000000000008 .L0 
C:\Users\stapi\AppData\Local\Temp\cc7X8qDe.s:400    .text.LITE_get_randstr:0000000000000008 .L0 
C:\Users\stapi\AppData\Local\Temp\cc7X8qDe.s:401    .text.LITE_get_randstr:0000000000000008 .L0 
C:\Users\stapi\AppData\Local\Temp\cc7X8qDe.s:402    .text.LITE_get_randstr:0000000000000008 .L0 
C:\Users\stapi\AppData\Local\Temp\cc7X8qDe.s:405    .text.LITE_get_randstr:000000000000000c .L0 
C:\Users\stapi\AppData\Local\Temp\cc7X8qDe.s:408    .text.LITE_get_randstr:0000000000000010 .L0 
C:\Users\stapi\AppData\Local\Temp\cc7X8qDe.s:409    .text.LITE_get_randstr:0000000000000010 .L0 
C:\Users\stapi\AppData\Local\Temp\cc7X8qDe.s:415    .text.LITE_get_randstr:0000000000000020 .L0 
C:\Users\stapi\AppData\Local\Temp\cc7X8qDe.s:420    .text.LITE_get_randstr:0000000000000028 .L0 
C:\Users\stapi\AppData\Local\Temp\cc7X8qDe.s:423    .text.LITE_get_randstr:0000000000000030 .L0 
C:\Users\stapi\AppData\Local\Temp\cc7X8qDe.s:428    .text.LITE_get_randstr:0000000000000040 .L0 
C:\Users\stapi\AppData\Local\Temp\cc7X8qDe.s:429    .text.LITE_get_randstr:0000000000000040 .L0 
C:\Users\stapi\AppData\Local\Temp\cc7X8qDe.s:430    .text.LITE_get_randstr:0000000000000040 .L0 
C:\Users\stapi\AppData\Local\Temp\cc7X8qDe.s:433    .text.LITE_get_randstr:0000000000000042 .L0 
C:\Users\stapi\AppData\Local\Temp\cc7X8qDe.s:434    .text.LITE_get_randstr:000000000000004a .L0 
C:\Users\stapi\AppData\Local\Temp\cc7X8qDe.s:435    .text.LITE_get_randstr:000000000000004a .L0 
C:\Users\stapi\AppData\Local\Temp\cc7X8qDe.s:436    .text.LITE_get_randstr:000000000000004a .L0 
C:\Users\stapi\AppData\Local\Temp\cc7X8qDe.s:437    .text.LITE_get_randstr:000000000000004a .L0 
C:\Users\stapi\AppData\Local\Temp\cc7X8qDe.s:438    .text.LITE_get_randstr:000000000000004a .L0 
C:\Users\stapi\AppData\Local\Temp\cc7X8qDe.s:439    .text.LITE_get_randstr:000000000000004a .L0 
C:\Users\stapi\AppData\Local\Temp\cc7X8qDe.s:440    .text.LITE_get_randstr:000000000000004a .L0 
C:\Users\stapi\AppData\Local\Temp\cc7X8qDe.s:443    .text.LITE_get_randstr:000000000000004a .L0 
C:\Users\stapi\AppData\Local\Temp\cc7X8qDe.s:446    .text.LITE_get_randstr:000000000000004c .L0 
C:\Users\stapi\AppData\Local\Temp\cc7X8qDe.s:447    .text.LITE_get_randstr:000000000000004c .L0 
C:\Users\stapi\AppData\Local\Temp\cc7X8qDe.s:450    .text.LITE_get_randstr:0000000000000054 .L0 
C:\Users\stapi\AppData\Local\Temp\cc7X8qDe.s:453    .text.LITE_get_randstr:000000000000005c .L0 
C:\Users\stapi\AppData\Local\Temp\cc7X8qDe.s:454    .text.LITE_get_randstr:000000000000005c .L0 
C:\Users\stapi\AppData\Local\Temp\cc7X8qDe.s:457    .text.LITE_get_randstr:000000000000005e .L0 
C:\Users\stapi\AppData\Local\Temp\cc7X8qDe.s:462    .text.LITE_get_randstr:0000000000000062 .L0 
C:\Users\stapi\AppData\Local\Temp\cc7X8qDe.s:463    .text.LITE_get_randstr:0000000000000062 .L0 
C:\Users\stapi\AppData\Local\Temp\cc7X8qDe.s:467    .text.LITE_get_randstr:000000000000006c .L0 
C:\Users\stapi\AppData\Local\Temp\cc7X8qDe.s:471    .text.LITE_get_randstr:0000000000000076 .L0 
C:\Users\stapi\AppData\Local\Temp\cc7X8qDe.s:472    .text.LITE_get_randstr:0000000000000076 .L0 
C:\Users\stapi\AppData\Local\Temp\cc7X8qDe.s:476    .text.LITE_get_randstr:0000000000000080 .L0 
C:\Users\stapi\AppData\Local\Temp\cc7X8qDe.s:479    .text.LITE_get_randstr:0000000000000084 .L0 
C:\Users\stapi\AppData\Local\Temp\cc7X8qDe.s:481    .text.LITE_get_randstr:0000000000000088 .L0 
C:\Users\stapi\AppData\Local\Temp\cc7X8qDe.s:483    .text.LITE_get_randstr:0000000000000088 .L0 
C:\Users\stapi\AppData\Local\Temp\cc7X8qDe.s:484    .text.LITE_get_randstr:0000000000000088 .L0 
C:\Users\stapi\AppData\Local\Temp\cc7X8qDe.s:485    .text.LITE_get_randstr:0000000000000088 .L0 
C:\Users\stapi\AppData\Local\Temp\cc7X8qDe.s:489    .text.LITE_get_randstr:000000000000008e .L0 
C:\Users\stapi\AppData\Local\Temp\cc7X8qDe.s:493    .text.LITE_get_randstr:0000000000000092 .L0 
C:\Users\stapi\AppData\Local\Temp\cc7X8qDe.s:494    .text.LITE_get_randstr:0000000000000092 .L0 
C:\Users\stapi\AppData\Local\Temp\cc7X8qDe.s:498    .text.LITE_get_randstr:000000000000009c .L0 
C:\Users\stapi\AppData\Local\Temp\cc7X8qDe.s:502    .text.LITE_get_randstr:00000000000000a2 .L0 
C:\Users\stapi\AppData\Local\Temp\cc7X8qDe.s:503    .text.LITE_get_randstr:00000000000000a2 .L0 
C:\Users\stapi\AppData\Local\Temp\cc7X8qDe.s:507    .text.LITE_get_randstr:00000000000000ac .L0 
C:\Users\stapi\AppData\Local\Temp\cc7X8qDe.s:511    .text.LITE_get_randstr:00000000000000b2 .L0 
C:\Users\stapi\AppData\Local\Temp\cc7X8qDe.s:512    .text.LITE_get_randstr:00000000000000b2 .L0 
C:\Users\stapi\AppData\Local\Temp\cc7X8qDe.s:517    .text.LITE_get_randstr:00000000000000c2 .L0 
C:\Users\stapi\AppData\Local\Temp\cc7X8qDe.s:520    .text.LITE_get_randstr:00000000000000cc .L0 
C:\Users\stapi\AppData\Local\Temp\cc7X8qDe.s:532    .srodata.zEncode.0:0000000000000000 .LANCHOR0
C:\Users\stapi\AppData\Local\Temp\cc7X8qDe.s:535    .srodata.zEncode.0:0000000000000000 zEncode.0
C:\Users\stapi\AppData\Local\Temp\cc7X8qDe.s:61     .text._hexval_of_char:000000000000003e .L0 
C:\Users\stapi\AppData\Local\Temp\cc7X8qDe.s:178    .text.LITE_strdup:0000000000000092 .L0 
C:\Users\stapi\AppData\Local\Temp\cc7X8qDe.s:260    .text.LITE_hexbuf_convert:0000000000000044 .L0 
C:\Users\stapi\AppData\Local\Temp\cc7X8qDe.s:375    .text.LITE_hexstr_convert:0000000000000092 .L0 
C:\Users\stapi\AppData\Local\Temp\cc7X8qDe.s:523    .text.LITE_get_randstr:00000000000000cc .L0 
                     .debug_frame:0000000000000000 .L0 
C:\Users\stapi\AppData\Local\Temp\cc7X8qDe.s:41     .text._hexval_of_char:0000000000000028 .L2
C:\Users\stapi\AppData\Local\Temp\cc7X8qDe.s:44     .text._hexval_of_char:000000000000002a .L3
C:\Users\stapi\AppData\Local\Temp\cc7X8qDe.s:38     .text._hexval_of_char:0000000000000024 .L5
C:\Users\stapi\AppData\Local\Temp\cc7X8qDe.s:63     .rodata.LITE_strdup.str1.4:0000000000000000 .LC0
C:\Users\stapi\AppData\Local\Temp\cc7X8qDe.s:66     .rodata.LITE_strdup.str1.4:0000000000000008 .LC1
C:\Users\stapi\AppData\Local\Temp\cc7X8qDe.s:69     .rodata.LITE_strdup.str1.4:0000000000000038 .LC2
C:\Users\stapi\AppData\Local\Temp\cc7X8qDe.s:137    .text.LITE_strdup:0000000000000062 .L9
C:\Users\stapi\AppData\Local\Temp\cc7X8qDe.s:142    .text.LITE_strdup:0000000000000066 .L8
C:\Users\stapi\AppData\Local\Temp\cc7X8qDe.s:161    .text.LITE_strdup:0000000000000084 .L6
C:\Users\stapi\AppData\Local\Temp\cc7X8qDe.s:216    .text.LITE_hexbuf_convert:0000000000000018 .L16
C:\Users\stapi\AppData\Local\Temp\cc7X8qDe.s:209    .text.LITE_hexbuf_convert:0000000000000012 .L15
C:\Users\stapi\AppData\Local\Temp\cc7X8qDe.s:262    .rodata.LITE_hexstr_convert.str1.4:0000000000000000 .LC3
C:\Users\stapi\AppData\Local\Temp\cc7X8qDe.s:336    .text.LITE_hexstr_convert:0000000000000054 .L18
C:\Users\stapi\AppData\Local\Temp\cc7X8qDe.s:359    .text.LITE_hexstr_convert:0000000000000088 .L17
C:\Users\stapi\AppData\Local\Temp\cc7X8qDe.s:302    .text.LITE_hexstr_convert:000000000000001e .L19
C:\Users\stapi\AppData\Local\Temp\cc7X8qDe.s:377    .rodata.LITE_get_randstr.str1.4:0000000000000000 .LC4
C:\Users\stapi\AppData\Local\Temp\cc7X8qDe.s:380    .rodata.LITE_get_randstr.str1.4:0000000000000014 .LC5
C:\Users\stapi\AppData\Local\Temp\cc7X8qDe.s:406    .text.LITE_get_randstr:0000000000000010 .L24
C:\Users\stapi\AppData\Local\Temp\cc7X8qDe.s:442    .text.LITE_get_randstr:000000000000004a .L25
C:\Users\stapi\AppData\Local\Temp\cc7X8qDe.s:491    .text.LITE_get_randstr:0000000000000092 .L27
C:\Users\stapi\AppData\Local\Temp\cc7X8qDe.s:500    .text.LITE_get_randstr:00000000000000a2 .L28
C:\Users\stapi\AppData\Local\Temp\cc7X8qDe.s:509    .text.LITE_get_randstr:00000000000000b2 .L29
C:\Users\stapi\AppData\Local\Temp\cc7X8qDe.s:460    .text.LITE_get_randstr:0000000000000062 .L31
C:\Users\stapi\AppData\Local\Temp\cc7X8qDe.s:431    .text.LITE_get_randstr:0000000000000042 .L23
C:\Users\stapi\AppData\Local\Temp\cc7X8qDe.s:477    .text.LITE_get_randstr:0000000000000084 .L37
C:\Users\stapi\AppData\Local\Temp\cc7X8qDe.s:418    .text.LITE_get_randstr:0000000000000028 .L38
C:\Users\stapi\AppData\Local\Temp\cc7X8qDe.s:525    .rodata.str1.4:0000000000000000 .LC6
C:\Users\stapi\AppData\Local\Temp\cc7X8qDe.s:528    .rodata.str1.4:0000000000000014 .LC7
C:\Users\stapi\AppData\Local\Temp\cc7X8qDe.s:1713   .debug_abbrev:0000000000000000 .Ldebug_abbrev0
C:\Users\stapi\AppData\Local\Temp\cc7X8qDe.s:3053   .debug_str:0000000000001533 .LASF224
C:\Users\stapi\AppData\Local\Temp\cc7X8qDe.s:2761   .debug_str:000000000000063e .LASF225
C:\Users\stapi\AppData\Local\Temp\cc7X8qDe.s:2805   .debug_str:00000000000008ef .LASF226
C:\Users\stapi\AppData\Local\Temp\cc7X8qDe.s:2607   .debug_ranges:0000000000000000 .Ldebug_ranges0
C:\Users\stapi\AppData\Local\Temp\cc7X8qDe.s:2633   .debug_line:0000000000000000 .Ldebug_line0
C:\Users\stapi\AppData\Local\Temp\cc7X8qDe.s:2695   .debug_str:00000000000002e3 .LASF0
C:\Users\stapi\AppData\Local\Temp\cc7X8qDe.s:2651   .debug_str:00000000000000b3 .LASF10
C:\Users\stapi\AppData\Local\Temp\cc7X8qDe.s:2927   .debug_str:0000000000000f4d .LASF1
C:\Users\stapi\AppData\Local\Temp\cc7X8qDe.s:2989   .debug_str:00000000000011f9 .LASF2
C:\Users\stapi\AppData\Local\Temp\cc7X8qDe.s:2795   .debug_str:0000000000000873 .LASF3
C:\Users\stapi\AppData\Local\Temp\cc7X8qDe.s:2719   .debug_str:0000000000000438 .LASF4
C:\Users\stapi\AppData\Local\Temp\cc7X8qDe.s:2969   .debug_str:000000000000112d .LASF5
C:\Users\stapi\AppData\Local\Temp\cc7X8qDe.s:2693   .debug_str:00000000000002d5 .LASF6
C:\Users\stapi\AppData\Local\Temp\cc7X8qDe.s:2705   .debug_str:0000000000000366 .LASF7
C:\Users\stapi\AppData\Local\Temp\cc7X8qDe.s:2775   .debug_str:0000000000000775 .LASF8
C:\Users\stapi\AppData\Local\Temp\cc7X8qDe.s:2973   .debug_str:0000000000001146 .LASF9
C:\Users\stapi\AppData\Local\Temp\cc7X8qDe.s:3031   .debug_str:000000000000141a .LASF11
C:\Users\stapi\AppData\Local\Temp\cc7X8qDe.s:2649   .debug_str:00000000000000a2 .LASF227
C:\Users\stapi\AppData\Local\Temp\cc7X8qDe.s:2731   .debug_str:00000000000004b9 .LASF12
C:\Users\stapi\AppData\Local\Temp\cc7X8qDe.s:2955   .debug_str:0000000000001071 .LASF13
C:\Users\stapi\AppData\Local\Temp\cc7X8qDe.s:2977   .debug_str:000000000000115f .LASF14
C:\Users\stapi\AppData\Local\Temp\cc7X8qDe.s:2919   .debug_str:0000000000000ef4 .LASF15
C:\Users\stapi\AppData\Local\Temp\cc7X8qDe.s:2865   .debug_str:0000000000000c35 .LASF16
C:\Users\stapi\AppData\Local\Temp\cc7X8qDe.s:2665   .debug_str:0000000000000166 .LASF17
C:\Users\stapi\AppData\Local\Temp\cc7X8qDe.s:2829   .debug_str:0000000000000aac .LASF18
C:\Users\stapi\AppData\Local\Temp\cc7X8qDe.s:3029   .debug_str:0000000000001409 .LASF19
C:\Users\stapi\AppData\Local\Temp\cc7X8qDe.s:3091   .debug_str:000000000000181a .LASF20
C:\Users\stapi\AppData\Local\Temp\cc7X8qDe.s:2769   .debug_str:0000000000000736 .LASF21
C:\Users\stapi\AppData\Local\Temp\cc7X8qDe.s:2753   .debug_str:00000000000005d9 .LASF22
C:\Users\stapi\AppData\Local\Temp\cc7X8qDe.s:2887   .debug_str:0000000000000d34 .LASF23
C:\Users\stapi\AppData\Local\Temp\cc7X8qDe.s:2749   .debug_str:00000000000005b0 .LASF24
C:\Users\stapi\AppData\Local\Temp\cc7X8qDe.s:3017   .debug_str:0000000000001357 .LASF25
C:\Users\stapi\AppData\Local\Temp\cc7X8qDe.s:2653   .debug_str:00000000000000bd .LASF26
C:\Users\stapi\AppData\Local\Temp\cc7X8qDe.s:2655   .debug_str:00000000000000d5 .LASF27
C:\Users\stapi\AppData\Local\Temp\cc7X8qDe.s:3059   .debug_str:000000000000164e .LASF28
C:\Users\stapi\AppData\Local\Temp\cc7X8qDe.s:3085   .debug_str:00000000000017b2 .LASF29
C:\Users\stapi\AppData\Local\Temp\cc7X8qDe.s:2715   .debug_str:00000000000003f0 .LASF30
C:\Users\stapi\AppData\Local\Temp\cc7X8qDe.s:2697   .debug_str:00000000000002ef .LASF31
C:\Users\stapi\AppData\Local\Temp\cc7X8qDe.s:3075   .debug_str:000000000000172d .LASF32
C:\Users\stapi\AppData\Local\Temp\cc7X8qDe.s:2793   .debug_str:0000000000000851 .LASF33
C:\Users\stapi\AppData\Local\Temp\cc7X8qDe.s:2831   .debug_str:0000000000000abb .LASF34
C:\Users\stapi\AppData\Local\Temp\cc7X8qDe.s:2725   .debug_str:0000000000000476 .LASF35
C:\Users\stapi\AppData\Local\Temp\cc7X8qDe.s:2721   .debug_str:0000000000000441 .LASF36
C:\Users\stapi\AppData\Local\Temp\cc7X8qDe.s:3021   .debug_str:0000000000001395 .LASF37
C:\Users\stapi\AppData\Local\Temp\cc7X8qDe.s:3043   .debug_str:00000000000014b5 .LASF38
C:\Users\stapi\AppData\Local\Temp\cc7X8qDe.s:2985   .debug_str:00000000000011c4 .LASF39
C:\Users\stapi\AppData\Local\Temp\cc7X8qDe.s:2711   .debug_str:00000000000003be .LASF40
C:\Users\stapi\AppData\Local\Temp\cc7X8qDe.s:2851   .debug_str:0000000000000b98 .LASF41
C:\Users\stapi\AppData\Local\Temp\cc7X8qDe.s:3009   .debug_str:00000000000012f5 .LASF42
C:\Users\stapi\AppData\Local\Temp\cc7X8qDe.s:2941   .debug_str:0000000000000fd9 .LASF43
C:\Users\stapi\AppData\Local\Temp\cc7X8qDe.s:3047   .debug_str:00000000000014f3 .LASF44
C:\Users\stapi\AppData\Local\Temp\cc7X8qDe.s:2703   .debug_str:0000000000000348 .LASF45
C:\Users\stapi\AppData\Local\Temp\cc7X8qDe.s:2687   .debug_str:0000000000000295 .LASF46
C:\Users\stapi\AppData\Local\Temp\cc7X8qDe.s:3063   .debug_str:0000000000001681 .LASF47
C:\Users\stapi\AppData\Local\Temp\cc7X8qDe.s:2995   .debug_str:0000000000001236 .LASF48
C:\Users\stapi\AppData\Local\Temp\cc7X8qDe.s:2765   .debug_str:00000000000006f5 .LASF49
C:\Users\stapi\AppData\Local\Temp\cc7X8qDe.s:2777   .debug_str:0000000000000782 .LASF50
C:\Users\stapi\AppData\Local\Temp\cc7X8qDe.s:2903   .debug_str:0000000000000e0e .LASF51
C:\Users\stapi\AppData\Local\Temp\cc7X8qDe.s:2671   .debug_str:00000000000001bf .LASF52
C:\Users\stapi\AppData\Local\Temp\cc7X8qDe.s:3039   .debug_str:0000000000001485 .LASF53
C:\Users\stapi\AppData\Local\Temp\cc7X8qDe.s:3077   .debug_str:000000000000174d .LASF54
C:\Users\stapi\AppData\Local\Temp\cc7X8qDe.s:2897   .debug_str:0000000000000da7 .LASF55
C:\Users\stapi\AppData\Local\Temp\cc7X8qDe.s:2675   .debug_str:00000000000001fc .LASF56
C:\Users\stapi\AppData\Local\Temp\cc7X8qDe.s:2745   .debug_str:0000000000000575 .LASF57
C:\Users\stapi\AppData\Local\Temp\cc7X8qDe.s:2889   .debug_str:0000000000000d4b .LASF58
C:\Users\stapi\AppData\Local\Temp\cc7X8qDe.s:2823   .debug_str:0000000000000a62 .LASF59
C:\Users\stapi\AppData\Local\Temp\cc7X8qDe.s:2673   .debug_str:00000000000001e1 .LASF60
C:\Users\stapi\AppData\Local\Temp\cc7X8qDe.s:3073   .debug_str:0000000000001715 .LASF61
C:\Users\stapi\AppData\Local\Temp\cc7X8qDe.s:2741   .debug_str:000000000000054e .LASF62
C:\Users\stapi\AppData\Local\Temp\cc7X8qDe.s:2679   .debug_str:000000000000022b .LASF63
C:\Users\stapi\AppData\Local\Temp\cc7X8qDe.s:3061   .debug_str:0000000000001669 .LASF64
C:\Users\stapi\AppData\Local\Temp\cc7X8qDe.s:2757   .debug_str:0000000000000601 .LASF65
C:\Users\stapi\AppData\Local\Temp\cc7X8qDe.s:3055   .debug_str:000000000000161a .LASF66
C:\Users\stapi\AppData\Local\Temp\cc7X8qDe.s:2997   .debug_str:0000000000001254 .LASF67
C:\Users\stapi\AppData\Local\Temp\cc7X8qDe.s:2875   .debug_str:0000000000000ca8 .LASF68
C:\Users\stapi\AppData\Local\Temp\cc7X8qDe.s:2945   .debug_str:000000000000100d .LASF69
C:\Users\stapi\AppData\Local\Temp\cc7X8qDe.s:2785   .debug_str:00000000000007ea .LASF70
C:\Users\stapi\AppData\Local\Temp\cc7X8qDe.s:2855   .debug_str:0000000000000bd2 .LASF71
C:\Users\stapi\AppData\Local\Temp\cc7X8qDe.s:2747   .debug_str:0000000000000591 .LASF72
C:\Users\stapi\AppData\Local\Temp\cc7X8qDe.s:2915   .debug_str:0000000000000ec0 .LASF73
C:\Users\stapi\AppData\Local\Temp\cc7X8qDe.s:2951   .debug_str:0000000000001053 .LASF74
C:\Users\stapi\AppData\Local\Temp\cc7X8qDe.s:2819   .debug_str:0000000000000a2e .LASF75
C:\Users\stapi\AppData\Local\Temp\cc7X8qDe.s:2891   .debug_str:0000000000000d64 .LASF76
C:\Users\stapi\AppData\Local\Temp\cc7X8qDe.s:3065   .debug_str:0000000000001698 .LASF77
C:\Users\stapi\AppData\Local\Temp\cc7X8qDe.s:3045   .debug_str:00000000000014d3 .LASF78
C:\Users\stapi\AppData\Local\Temp\cc7X8qDe.s:2791   .debug_str:0000000000000832 .LASF79
C:\Users\stapi\AppData\Local\Temp\cc7X8qDe.s:2813   .debug_str:00000000000009d1 .LASF80
C:\Users\stapi\AppData\Local\Temp\cc7X8qDe.s:2759   .debug_str:000000000000061d .LASF81
C:\Users\stapi\AppData\Local\Temp\cc7X8qDe.s:2807   .debug_str:0000000000000980 .LASF82
C:\Users\stapi\AppData\Local\Temp\cc7X8qDe.s:2929   .debug_str:0000000000000f5b .LASF83
C:\Users\stapi\AppData\Local\Temp\cc7X8qDe.s:2637   .debug_str:0000000000000026 .LASF84
C:\Users\stapi\AppData\Local\Temp\cc7X8qDe.s:2645   .debug_str:0000000000000075 .LASF85
C:\Users\stapi\AppData\Local\Temp\cc7X8qDe.s:2917   .debug_str:0000000000000ed5 .LASF86
C:\Users\stapi\AppData\Local\Temp\cc7X8qDe.s:2859   .debug_str:0000000000000c03 .LASF87
C:\Users\stapi\AppData\Local\Temp\cc7X8qDe.s:2677   .debug_str:0000000000000214 .LASF88
C:\Users\stapi\AppData\Local\Temp\cc7X8qDe.s:2939   .debug_str:0000000000000fbf .LASF89
C:\Users\stapi\AppData\Local\Temp\cc7X8qDe.s:2885   .debug_str:0000000000000d1b .LASF90
C:\Users\stapi\AppData\Local\Temp\cc7X8qDe.s:2641   .debug_str:000000000000004c .LASF91
C:\Users\stapi\AppData\Local\Temp\cc7X8qDe.s:3003   .debug_str:00000000000012ac .LASF92
C:\Users\stapi\AppData\Local\Temp\cc7X8qDe.s:3089   .debug_str:00000000000017fb .LASF93
C:\Users\stapi\AppData\Local\Temp\cc7X8qDe.s:2755   .debug_str:00000000000005e8 .LASF94
C:\Users\stapi\AppData\Local\Temp\cc7X8qDe.s:3033   .debug_str:0000000000001422 .LASF95
C:\Users\stapi\AppData\Local\Temp\cc7X8qDe.s:2845   .debug_str:0000000000000b70 .LASF96
C:\Users\stapi\AppData\Local\Temp\cc7X8qDe.s:2825   .debug_str:0000000000000a7c .LASF97
C:\Users\stapi\AppData\Local\Temp\cc7X8qDe.s:2699   .debug_str:0000000000000315 .LASF98
C:\Users\stapi\AppData\Local\Temp\cc7X8qDe.s:2717   .debug_str:0000000000000417 .LASF99
C:\Users\stapi\AppData\Local\Temp\cc7X8qDe.s:2683   .debug_str:0000000000000269 .LASF100
C:\Users\stapi\AppData\Local\Temp\cc7X8qDe.s:2811   .debug_str:00000000000009af .LASF101
C:\Users\stapi\AppData\Local\Temp\cc7X8qDe.s:2959   .debug_str:00000000000010aa .LASF102
C:\Users\stapi\AppData\Local\Temp\cc7X8qDe.s:2727   .debug_str:000000000000048f .LASF103
C:\Users\stapi\AppData\Local\Temp\cc7X8qDe.s:2943   .debug_str:0000000000000ff4 .LASF104
C:\Users\stapi\AppData\Local\Temp\cc7X8qDe.s:2909   .debug_str:0000000000000e5c .LASF105
C:\Users\stapi\AppData\Local\Temp\cc7X8qDe.s:2783   .debug_str:00000000000007c9 .LASF106
C:\Users\stapi\AppData\Local\Temp\cc7X8qDe.s:2737   .debug_str:000000000000050c .LASF107
C:\Users\stapi\AppData\Local\Temp\cc7X8qDe.s:3015   .debug_str:0000000000001339 .LASF108
C:\Users\stapi\AppData\Local\Temp\cc7X8qDe.s:2853   .debug_str:0000000000000bb4 .LASF109
C:\Users\stapi\AppData\Local\Temp\cc7X8qDe.s:3005   .debug_str:00000000000012c6 .LASF110
C:\Users\stapi\AppData\Local\Temp\cc7X8qDe.s:2983   .debug_str:00000000000011b0 .LASF111
C:\Users\stapi\AppData\Local\Temp\cc7X8qDe.s:2835   .debug_str:0000000000000aee .LASF112
C:\Users\stapi\AppData\Local\Temp\cc7X8qDe.s:2801   .debug_str:00000000000008ba .LASF113
C:\Users\stapi\AppData\Local\Temp\cc7X8qDe.s:2949   .debug_str:0000000000001038 .LASF114
C:\Users\stapi\AppData\Local\Temp\cc7X8qDe.s:3087   .debug_str:00000000000017e3 .LASF115
C:\Users\stapi\AppData\Local\Temp\cc7X8qDe.s:3013   .debug_str:0000000000001321 .LASF116
C:\Users\stapi\AppData\Local\Temp\cc7X8qDe.s:3037   .debug_str:0000000000001468 .LASF117
C:\Users\stapi\AppData\Local\Temp\cc7X8qDe.s:3081   .debug_str:0000000000001781 .LASF118
C:\Users\stapi\AppData\Local\Temp\cc7X8qDe.s:2993   .debug_str:0000000000001219 .LASF119
C:\Users\stapi\AppData\Local\Temp\cc7X8qDe.s:2723   .debug_str:0000000000000458 .LASF120
C:\Users\stapi\AppData\Local\Temp\cc7X8qDe.s:3035   .debug_str:0000000000001440 .LASF121
C:\Users\stapi\AppData\Local\Temp\cc7X8qDe.s:2773   .debug_str:000000000000074d .LASF122
C:\Users\stapi\AppData\Local\Temp\cc7X8qDe.s:2779   .debug_str:00000000000007a0 .LASF123
C:\Users\stapi\AppData\Local\Temp\cc7X8qDe.s:3083   .debug_str:0000000000001797 .LASF124
C:\Users\stapi\AppData\Local\Temp\cc7X8qDe.s:2713   .debug_str:00000000000003cf .LASF125
C:\Users\stapi\AppData\Local\Temp\cc7X8qDe.s:3069   .debug_str:00000000000016de .LASF126
C:\Users\stapi\AppData\Local\Temp\cc7X8qDe.s:2957   .debug_str:0000000000001083 .LASF127
C:\Users\stapi\AppData\Local\Temp\cc7X8qDe.s:3079   .debug_str:0000000000001769 .LASF128
C:\Users\stapi\AppData\Local\Temp\cc7X8qDe.s:2833   .debug_str:0000000000000ace .LASF129
C:\Users\stapi\AppData\Local\Temp\cc7X8qDe.s:2879   .debug_str:0000000000000cd8 .LASF130
C:\Users\stapi\AppData\Local\Temp\cc7X8qDe.s:2963   .debug_str:00000000000010d9 .LASF131
C:\Users\stapi\AppData\Local\Temp\cc7X8qDe.s:2979   .debug_str:0000000000001176 .LASF132
C:\Users\stapi\AppData\Local\Temp\cc7X8qDe.s:2843   .debug_str:0000000000000b51 .LASF133
C:\Users\stapi\AppData\Local\Temp\cc7X8qDe.s:2881   .debug_str:0000000000000cf3 .LASF134
C:\Users\stapi\AppData\Local\Temp\cc7X8qDe.s:2893   .debug_str:0000000000000d81 .LASF135
C:\Users\stapi\AppData\Local\Temp\cc7X8qDe.s:3071   .debug_str:00000000000016fe .LASF136
C:\Users\stapi\AppData\Local\Temp\cc7X8qDe.s:3025   .debug_str:00000000000013d2 .LASF137
C:\Users\stapi\AppData\Local\Temp\cc7X8qDe.s:2857   .debug_str:0000000000000bec .LASF138
C:\Users\stapi\AppData\Local\Temp\cc7X8qDe.s:3007   .debug_str:00000000000012de .LASF139
C:\Users\stapi\AppData\Local\Temp\cc7X8qDe.s:2707   .debug_str:000000000000037d .LASF140
C:\Users\stapi\AppData\Local\Temp\cc7X8qDe.s:2789   .debug_str:0000000000000811 .LASF141
C:\Users\stapi\AppData\Local\Temp\cc7X8qDe.s:2735   .debug_str:00000000000004f2 .LASF142
C:\Users\stapi\AppData\Local\Temp\cc7X8qDe.s:2863   .debug_str:0000000000000c21 .LASF143
C:\Users\stapi\AppData\Local\Temp\cc7X8qDe.s:2981   .debug_str:0000000000001191 .LASF144
C:\Users\stapi\AppData\Local\Temp\cc7X8qDe.s:2837   .debug_str:0000000000000b0e .LASF145
C:\Users\stapi\AppData\Local\Temp\cc7X8qDe.s:2667   .debug_str:0000000000000178 .LASF146
C:\Users\stapi\AppData\Local\Temp\cc7X8qDe.s:2905   .debug_str:0000000000000e2c .LASF147
C:\Users\stapi\AppData\Local\Temp\cc7X8qDe.s:2797   .debug_str:0000000000000886 .LASF148
C:\Users\stapi\AppData\Local\Temp\cc7X8qDe.s:2913   .debug_str:0000000000000e9c .LASF149
C:\Users\stapi\AppData\Local\Temp\cc7X8qDe.s:2657   .debug_str:00000000000000f7 .LASF150
C:\Users\stapi\AppData\Local\Temp\cc7X8qDe.s:2733   .debug_str:00000000000004d0 .LASF151
C:\Users\stapi\AppData\Local\Temp\cc7X8qDe.s:2663   .debug_str:0000000000000146 .LASF152
C:\Users\stapi\AppData\Local\Temp\cc7X8qDe.s:2767   .debug_str:0000000000000714 .LASF153
C:\Users\stapi\AppData\Local\Temp\cc7X8qDe.s:2931   .debug_str:0000000000000f77 .LASF154
C:\Users\stapi\AppData\Local\Temp\cc7X8qDe.s:2709   .debug_str:000000000000039d .LASF155
C:\Users\stapi\AppData\Local\Temp\cc7X8qDe.s:3023   .debug_str:00000000000013af .LASF156
C:\Users\stapi\AppData\Local\Temp\cc7X8qDe.s:2839   .debug_str:0000000000000b24 .LASF157
C:\Users\stapi\AppData\Local\Temp\cc7X8qDe.s:2659   .debug_str:0000000000000118 .LASF158
C:\Users\stapi\AppData\Local\Temp\cc7X8qDe.s:3027   .debug_str:00000000000013e9 .LASF159
C:\Users\stapi\AppData\Local\Temp\cc7X8qDe.s:2635   .debug_str:0000000000000000 .LASF160
C:\Users\stapi\AppData\Local\Temp\cc7X8qDe.s:2689   .debug_str:00000000000002af .LASF161
C:\Users\stapi\AppData\Local\Temp\cc7X8qDe.s:2739   .debug_str:0000000000000524 .LASF162
C:\Users\stapi\AppData\Local\Temp\cc7X8qDe.s:2999   .debug_str:0000000000001278 .LASF163
C:\Users\stapi\AppData\Local\Temp\cc7X8qDe.s:2975   .debug_str:000000000000114b .LASF164
C:\Users\stapi\AppData\Local\Temp\cc7X8qDe.s:2669   .debug_str:0000000000000199 .LASF165
C:\Users\stapi\AppData\Local\Temp\cc7X8qDe.s:2921   .debug_str:0000000000000f0d .LASF166
C:\Users\stapi\AppData\Local\Temp\cc7X8qDe.s:2681   .debug_str:0000000000000246 .LASF167
C:\Users\stapi\AppData\Local\Temp\cc7X8qDe.s:3019   .debug_str:000000000000136f .LASF168
C:\Users\stapi\AppData\Local\Temp\cc7X8qDe.s:3067   .debug_str:00000000000016bb .LASF169
C:\Users\stapi\AppData\Local\Temp\cc7X8qDe.s:2991   .debug_str:0000000000001203 .LASF170
C:\Users\stapi\AppData\Local\Temp\cc7X8qDe.s:2827   .debug_str:0000000000000a94 .LASF171
C:\Users\stapi\AppData\Local\Temp\cc7X8qDe.s:2803   .debug_str:00000000000008d2 .LASF172
C:\Users\stapi\AppData\Local\Temp\cc7X8qDe.s:2911   .debug_str:0000000000000e74 .LASF173
C:\Users\stapi\AppData\Local\Temp\cc7X8qDe.s:3051   .debug_str:0000000000001512 .LASF174
C:\Users\stapi\AppData\Local\Temp\cc7X8qDe.s:2899   .debug_str:0000000000000dbe .LASF175
C:\Users\stapi\AppData\Local\Temp\cc7X8qDe.s:2965   .debug_str:00000000000010f6 .LASF176
C:\Users\stapi\AppData\Local\Temp\cc7X8qDe.s:3041   .debug_str:0000000000001498 .LASF177
C:\Users\stapi\AppData\Local\Temp\cc7X8qDe.s:2867   .debug_str:0000000000000c46 .LASF178
C:\Users\stapi\AppData\Local\Temp\cc7X8qDe.s:2947   .debug_str:000000000000102b .LASF179
C:\Users\stapi\AppData\Local\Temp\cc7X8qDe.s:2987   .debug_str:00000000000011df .LASF180
C:\Users\stapi\AppData\Local\Temp\cc7X8qDe.s:2933   .debug_str:0000000000000f98 .LASF181
C:\Users\stapi\AppData\Local\Temp\cc7X8qDe.s:2923   .debug_str:0000000000000f29 .LASF182
C:\Users\stapi\AppData\Local\Temp\cc7X8qDe.s:2815   .debug_str:00000000000009ef .LASF183
C:\Users\stapi\AppData\Local\Temp\cc7X8qDe.s:2871   .debug_str:0000000000000c74 .LASF184
C:\Users\stapi\AppData\Local\Temp\cc7X8qDe.s:2901   .debug_str:0000000000000ddc .LASF185
C:\Users\stapi\AppData\Local\Temp\cc7X8qDe.s:2877   .debug_str:0000000000000cc7 .LASF186
C:\Users\stapi\AppData\Local\Temp\cc7X8qDe.s:3001   .debug_str:0000000000001297 .LASF187
C:\Users\stapi\AppData\Local\Temp\cc7X8qDe.s:2799   .debug_str:00000000000008a9 .LASF188
C:\Users\stapi\AppData\Local\Temp\cc7X8qDe.s:2685   .debug_str:0000000000000284 .LASF189
C:\Users\stapi\AppData\Local\Temp\cc7X8qDe.s:2925   .debug_str:0000000000000f3d .LASF190
C:\Users\stapi\AppData\Local\Temp\cc7X8qDe.s:2869   .debug_str:0000000000000c63 .LASF191
C:\Users\stapi\AppData\Local\Temp\cc7X8qDe.s:2763   .debug_str:00000000000006db .LASF192
C:\Users\stapi\AppData\Local\Temp\cc7X8qDe.s:2967   .debug_str:000000000000111c .LASF193
C:\Users\stapi\AppData\Local\Temp\cc7X8qDe.s:2751   .debug_str:00000000000005ce .LASF194
C:\Users\stapi\AppData\Local\Temp\cc7X8qDe.s:2701   .debug_str:0000000000000336 .LASF195
C:\Users\stapi\AppData\Local\Temp\cc7X8qDe.s:2821   .debug_str:0000000000000a51 .LASF196
C:\Users\stapi\AppData\Local\Temp\cc7X8qDe.s:2907   .debug_str:0000000000000e50 .LASF197
C:\Users\stapi\AppData\Local\Temp\cc7X8qDe.s:2643   .debug_str:0000000000000066 .LASF198
C:\Users\stapi\AppData\Local\Temp\cc7X8qDe.s:2743   .debug_str:000000000000056e .LASF199
C:\Users\stapi\AppData\Local\Temp\cc7X8qDe.s:2781   .debug_str:00000000000007b8 .LASF213
C:\Users\stapi\AppData\Local\Temp\cc7X8qDe.s:387    .text.LITE_get_randstr:0000000000000000 .LFB24
C:\Users\stapi\AppData\Local\Temp\cc7X8qDe.s:521    .text.LITE_get_randstr:00000000000000cc .LFE24
C:\Users\stapi\AppData\Local\Temp\cc7X8qDe.s:2847   .debug_str:0000000000000b8a .LASF200
C:\Users\stapi\AppData\Local\Temp\cc7X8qDe.s:2136   .debug_loc:0000000000000000 .LLST17
C:\Users\stapi\AppData\Local\Temp\cc7X8qDe.s:2971   .debug_str:000000000000113f .LASF201
C:\Users\stapi\AppData\Local\Temp\cc7X8qDe.s:2165   .debug_loc:0000000000000045 .LLST18
C:\Users\stapi\AppData\Local\Temp\cc7X8qDe.s:3049   .debug_str:000000000000150c .LASF206
C:\Users\stapi\AppData\Local\Temp\cc7X8qDe.s:2190   .debug_loc:000000000000007f .LLST19
C:\Users\stapi\AppData\Local\Temp\cc7X8qDe.s:413    .text.LITE_get_randstr:0000000000000020 .LVL39
C:\Users\stapi\AppData\Local\Temp\cc7X8qDe.s:421    .text.LITE_get_randstr:0000000000000030 .LVL41
C:\Users\stapi\AppData\Local\Temp\cc7X8qDe.s:426    .text.LITE_get_randstr:0000000000000040 .LVL42
C:\Users\stapi\AppData\Local\Temp\cc7X8qDe.s:448    .text.LITE_get_randstr:0000000000000054 .LVL44
C:\Users\stapi\AppData\Local\Temp\cc7X8qDe.s:451    .text.LITE_get_randstr:000000000000005c .LVL45
C:\Users\stapi\AppData\Local\Temp\cc7X8qDe.s:465    .text.LITE_get_randstr:000000000000006c .LVL48
C:\Users\stapi\AppData\Local\Temp\cc7X8qDe.s:474    .text.LITE_get_randstr:0000000000000080 .LVL49
C:\Users\stapi\AppData\Local\Temp\cc7X8qDe.s:496    .text.LITE_get_randstr:000000000000009c .LVL52
C:\Users\stapi\AppData\Local\Temp\cc7X8qDe.s:505    .text.LITE_get_randstr:00000000000000ac .LVL53
C:\Users\stapi\AppData\Local\Temp\cc7X8qDe.s:515    .text.LITE_get_randstr:00000000000000c2 .LVL54
C:\Users\stapi\AppData\Local\Temp\cc7X8qDe.s:2937   .debug_str:0000000000000fab .LASF207
C:\Users\stapi\AppData\Local\Temp\cc7X8qDe.s:269    .text.LITE_hexstr_convert:0000000000000000 .LFB23
C:\Users\stapi\AppData\Local\Temp\cc7X8qDe.s:373    .text.LITE_hexstr_convert:0000000000000092 .LFE23
C:\Users\stapi\AppData\Local\Temp\cc7X8qDe.s:2953   .debug_str:000000000000106b .LASF202
C:\Users\stapi\AppData\Local\Temp\cc7X8qDe.s:2235   .debug_loc:00000000000000d4 .LLST10
C:\Users\stapi\AppData\Local\Temp\cc7X8qDe.s:2861   .debug_str:0000000000000c17 .LASF203
C:\Users\stapi\AppData\Local\Temp\cc7X8qDe.s:2260   .debug_loc:000000000000010e .LLST11
C:\Users\stapi\AppData\Local\Temp\cc7X8qDe.s:2787   .debug_str:000000000000080a .LASF204
C:\Users\stapi\AppData\Local\Temp\cc7X8qDe.s:2290   .debug_loc:0000000000000154 .LLST12
C:\Users\stapi\AppData\Local\Temp\cc7X8qDe.s:2691   .debug_str:00000000000002ca .LASF205
C:\Users\stapi\AppData\Local\Temp\cc7X8qDe.s:2312   .debug_loc:000000000000018b .LLST13
C:\Users\stapi\AppData\Local\Temp\cc7X8qDe.s:2334   .debug_loc:00000000000001c2 .LLST14
C:\Users\stapi\AppData\Local\Temp\cc7X8qDe.s:2351   .debug_loc:00000000000001ed .LLST15
C:\Users\stapi\AppData\Local\Temp\cc7X8qDe.s:2358   .debug_loc:0000000000000200 .LLST16
C:\Users\stapi\AppData\Local\Temp\cc7X8qDe.s:311    .text.LITE_hexstr_convert:0000000000000032 .LVL26
C:\Users\stapi\AppData\Local\Temp\cc7X8qDe.s:321    .text.LITE_hexstr_convert:0000000000000042 .LVL29
C:\Users\stapi\AppData\Local\Temp\cc7X8qDe.s:345    .text.LITE_hexstr_convert:0000000000000066 .LVL33
C:\Users\stapi\AppData\Local\Temp\cc7X8qDe.s:351    .text.LITE_hexstr_convert:0000000000000078 .LVL34
C:\Users\stapi\AppData\Local\Temp\cc7X8qDe.s:356    .text.LITE_hexstr_convert:0000000000000088 .LVL35
C:\Users\stapi\AppData\Local\Temp\cc7X8qDe.s:2961   .debug_str:00000000000010c9 .LASF228
C:\Users\stapi\AppData\Local\Temp\cc7X8qDe.s:13     .text._hexval_of_char:0000000000000000 .LFB22
C:\Users\stapi\AppData\Local\Temp\cc7X8qDe.s:59     .text._hexval_of_char:000000000000003e .LFE22
C:\Users\stapi\AppData\Local\Temp\cc7X8qDe.s:2365   .debug_loc:0000000000000213 .LLST0
C:\Users\stapi\AppData\Local\Temp\cc7X8qDe.s:2729   .debug_str:00000000000004a5 .LASF208
C:\Users\stapi\AppData\Local\Temp\cc7X8qDe.s:183    .text.LITE_hexbuf_convert:0000000000000000 .LFB21
C:\Users\stapi\AppData\Local\Temp\cc7X8qDe.s:258    .text.LITE_hexbuf_convert:0000000000000044 .LFE21
C:\Users\stapi\AppData\Local\Temp\cc7X8qDe.s:2809   .debug_str:00000000000009a8 .LASF209
C:\Users\stapi\AppData\Local\Temp\cc7X8qDe.s:2383   .debug_loc:000000000000023f .LLST4
C:\Users\stapi\AppData\Local\Temp\cc7X8qDe.s:2873   .debug_str:0000000000000ca1 .LASF210
C:\Users\stapi\AppData\Local\Temp\cc7X8qDe.s:2639   .debug_str:0000000000000042 .LASF211
C:\Users\stapi\AppData\Local\Temp\cc7X8qDe.s:2397   .debug_loc:0000000000000260 .LLST5
C:\Users\stapi\AppData\Local\Temp\cc7X8qDe.s:2771   .debug_str:0000000000000745 .LASF212
C:\Users\stapi\AppData\Local\Temp\cc7X8qDe.s:2411   .debug_loc:0000000000000281 .LLST6
C:\Users\stapi\AppData\Local\Temp\cc7X8qDe.s:2463   .debug_loc:00000000000002dd .LLST7
C:\Users\stapi\AppData\Local\Temp\cc7X8qDe.s:2485   .debug_loc:0000000000000314 .LLST8
C:\Users\stapi\AppData\Local\Temp\cc7X8qDe.s:2501   .debug_loc:0000000000000337 .LLST9
C:\Users\stapi\AppData\Local\Temp\cc7X8qDe.s:2817   .debug_str:0000000000000a22 .LASF214
C:\Users\stapi\AppData\Local\Temp\cc7X8qDe.s:76     .text.LITE_strdup:0000000000000000 .LFB20
C:\Users\stapi\AppData\Local\Temp\cc7X8qDe.s:176    .text.LITE_strdup:0000000000000092 .LFE20
C:\Users\stapi\AppData\Local\Temp\cc7X8qDe.s:2529   .debug_loc:0000000000000366 .LLST1
C:\Users\stapi\AppData\Local\Temp\cc7X8qDe.s:2558   .debug_loc:00000000000003ab .LLST2
C:\Users\stapi\AppData\Local\Temp\cc7X8qDe.s:2574   .debug_loc:00000000000003d5 .LLST3
C:\Users\stapi\AppData\Local\Temp\cc7X8qDe.s:2935   .debug_str:0000000000000fa5 .LASF215
C:\Users\stapi\AppData\Local\Temp\cc7X8qDe.s:3011   .debug_str:0000000000001315 .LASF216
C:\Users\stapi\AppData\Local\Temp\cc7X8qDe.s:110    .text.LITE_strdup:0000000000000024 .LVL4
C:\Users\stapi\AppData\Local\Temp\cc7X8qDe.s:123    .text.LITE_strdup:0000000000000040 .LVL6
C:\Users\stapi\AppData\Local\Temp\cc7X8qDe.s:129    .text.LITE_strdup:0000000000000052 .LVL7
C:\Users\stapi\AppData\Local\Temp\cc7X8qDe.s:134    .text.LITE_strdup:0000000000000062 .LVL8
C:\Users\stapi\AppData\Local\Temp\cc7X8qDe.s:149    .text.LITE_strdup:0000000000000074 .LVL10
C:\Users\stapi\AppData\Local\Temp\cc7X8qDe.s:159    .text.LITE_strdup:0000000000000084 .LVL12
C:\Users\stapi\AppData\Local\Temp\cc7X8qDe.s:2661   .debug_str:000000000000013b .LASF217
C:\Users\stapi\AppData\Local\Temp\cc7X8qDe.s:2647   .debug_str:0000000000000095 .LASF218
C:\Users\stapi\AppData\Local\Temp\cc7X8qDe.s:2841   .debug_str:0000000000000b45 .LASF219
C:\Users\stapi\AppData\Local\Temp\cc7X8qDe.s:2883   .debug_str:0000000000000d10 .LASF220
C:\Users\stapi\AppData\Local\Temp\cc7X8qDe.s:2849   .debug_str:0000000000000b91 .LASF221
C:\Users\stapi\AppData\Local\Temp\cc7X8qDe.s:3057   .debug_str:0000000000001639 .LASF222
C:\Users\stapi\AppData\Local\Temp\cc7X8qDe.s:2895   .debug_str:0000000000000d9f .LASF223
C:\Users\stapi\AppData\Local\Temp\cc7X8qDe.s:390    .text.LITE_get_randstr:0000000000000000 .LVL36
C:\Users\stapi\AppData\Local\Temp\cc7X8qDe.s:410    .text.LITE_get_randstr:0000000000000014 .LVL38
C:\Users\stapi\AppData\Local\Temp\cc7X8qDe.s:441    .text.LITE_get_randstr:000000000000004a .LVL43
C:\Users\stapi\AppData\Local\Temp\cc7X8qDe.s:459    .text.LITE_get_randstr:0000000000000062 .LVL47
C:\Users\stapi\AppData\Local\Temp\cc7X8qDe.s:455    .text.LITE_get_randstr:000000000000005e .LVL46
C:\Users\stapi\AppData\Local\Temp\cc7X8qDe.s:399    .text.LITE_get_randstr:0000000000000008 .LVL37
C:\Users\stapi\AppData\Local\Temp\cc7X8qDe.s:417    .text.LITE_get_randstr:0000000000000028 .LVL40
C:\Users\stapi\AppData\Local\Temp\cc7X8qDe.s:482    .text.LITE_get_randstr:0000000000000088 .LVL50
C:\Users\stapi\AppData\Local\Temp\cc7X8qDe.s:486    .text.LITE_get_randstr:000000000000008a .LVL51
C:\Users\stapi\AppData\Local\Temp\cc7X8qDe.s:272    .text.LITE_hexstr_convert:0000000000000000 .LVL23
C:\Users\stapi\AppData\Local\Temp\cc7X8qDe.s:301    .text.LITE_hexstr_convert:000000000000001e .LVL25
C:\Users\stapi\AppData\Local\Temp\cc7X8qDe.s:335    .text.LITE_hexstr_convert:0000000000000054 .LVL31
C:\Users\stapi\AppData\Local\Temp\cc7X8qDe.s:339    .text.LITE_hexstr_convert:0000000000000058 .LVL32
C:\Users\stapi\AppData\Local\Temp\cc7X8qDe.s:283    .text.LITE_hexstr_convert:0000000000000008 .LVL24
C:\Users\stapi\AppData\Local\Temp\cc7X8qDe.s:313    .text.LITE_hexstr_convert:0000000000000034 .LVL27
C:\Users\stapi\AppData\Local\Temp\cc7X8qDe.s:317    .text.LITE_hexstr_convert:0000000000000036 .LVL28
C:\Users\stapi\AppData\Local\Temp\cc7X8qDe.s:17     .text._hexval_of_char:0000000000000000 .LVL0
C:\Users\stapi\AppData\Local\Temp\cc7X8qDe.s:22     .text._hexval_of_char:0000000000000008 .LVL1
C:\Users\stapi\AppData\Local\Temp\cc7X8qDe.s:37     .text._hexval_of_char:0000000000000024 .LVL2
C:\Users\stapi\AppData\Local\Temp\cc7X8qDe.s:186    .text.LITE_hexbuf_convert:0000000000000000 .LVL13
C:\Users\stapi\AppData\Local\Temp\cc7X8qDe.s:208    .text.LITE_hexbuf_convert:0000000000000012 .LVL15
C:\Users\stapi\AppData\Local\Temp\cc7X8qDe.s:197    .text.LITE_hexbuf_convert:0000000000000008 .LVL14
C:\Users\stapi\AppData\Local\Temp\cc7X8qDe.s:226    .text.LITE_hexbuf_convert:0000000000000022 .LVL17
C:\Users\stapi\AppData\Local\Temp\cc7X8qDe.s:245    .text.LITE_hexbuf_convert:0000000000000038 .LVL20
C:\Users\stapi\AppData\Local\Temp\cc7X8qDe.s:250    .text.LITE_hexbuf_convert:000000000000003e .LVL21
C:\Users\stapi\AppData\Local\Temp\cc7X8qDe.s:230    .text.LITE_hexbuf_convert:0000000000000024 .LVL18
C:\Users\stapi\AppData\Local\Temp\cc7X8qDe.s:255    .text.LITE_hexbuf_convert:0000000000000042 .LVL22
C:\Users\stapi\AppData\Local\Temp\cc7X8qDe.s:222    .text.LITE_hexbuf_convert:0000000000000020 .LVL16
C:\Users\stapi\AppData\Local\Temp\cc7X8qDe.s:238    .text.LITE_hexbuf_convert:000000000000002e .LVL19
C:\Users\stapi\AppData\Local\Temp\cc7X8qDe.s:79     .text.LITE_strdup:0000000000000000 .LVL3
C:\Users\stapi\AppData\Local\Temp\cc7X8qDe.s:141    .text.LITE_strdup:0000000000000066 .LVL9
C:\Users\stapi\AppData\Local\Temp\cc7X8qDe.s:113    .text.LITE_strdup:0000000000000028 .LVL5
C:\Users\stapi\AppData\Local\Temp\cc7X8qDe.s:151    .text.LITE_strdup:0000000000000076 .LVL11
C:\Users\stapi\AppData\Local\Temp\cc7X8qDe.s:547    .debug_info:0000000000000000 .Ldebug_info0
C:\Users\stapi\AppData\Local\Temp\cc7X8qDe.s:191    .text.LITE_hexbuf_convert:0000000000000000 .LBB2
C:\Users\stapi\AppData\Local\Temp\cc7X8qDe.s:194    .text.LITE_hexbuf_convert:0000000000000004 .LBE2
C:\Users\stapi\AppData\Local\Temp\cc7X8qDe.s:199    .text.LITE_hexbuf_convert:0000000000000008 .LBB3
C:\Users\stapi\AppData\Local\Temp\cc7X8qDe.s:202    .text.LITE_hexbuf_convert:000000000000000c .LBE3
C:\Users\stapi\AppData\Local\Temp\cc7X8qDe.s:205    .text.LITE_hexbuf_convert:000000000000000e .LBB4
C:\Users\stapi\AppData\Local\Temp\cc7X8qDe.s:210    .text.LITE_hexbuf_convert:0000000000000012 .LBE4
C:\Users\stapi\AppData\Local\Temp\cc7X8qDe.s:217    .text.LITE_hexbuf_convert:0000000000000018 .LBB5
C:\Users\stapi\AppData\Local\Temp\cc7X8qDe.s:227    .text.LITE_hexbuf_convert:0000000000000022 .LBE5
C:\Users\stapi\AppData\Local\Temp\cc7X8qDe.s:231    .text.LITE_hexbuf_convert:0000000000000024 .LBB6
C:\Users\stapi\AppData\Local\Temp\cc7X8qDe.s:253    .text.LITE_hexbuf_convert:0000000000000042 .LBE6

UNDEFINED SYMBOLS
strlen
HAL_Printf
LITE_malloc_internal
strncpy
__riscv_save_6
__riscv_restore_6
__riscv_save_4
__riscv_restore_4
HAL_UptimeMs
HAL_Srandom
HAL_Random
