   1              		.file	"utils_timer.c"
   2              		.option nopic
   3              		.attribute arch, "rv32i2p0_m2p0_a2p0_f2p0_c2p0_b_p0p94"
   4              		.attribute unaligned_access, 0
   5              		.attribute stack_align, 16
   6              		.text
   7              	.Ltext0:
   8              		.cfi_sections	.debug_frame
   9              		.section	.text.iotx_time_start,"ax",@progbits
  10              		.align	1
  11              		.globl	iotx_time_start
  13              	iotx_time_start:
  14              	.LFB4:
  15              		.file 1 "C:/Users/stapi/OneDrive/Desktop/GD32VW553/V1_MQTT_OK/GD32VW55X_Wifi_BLE_SDK/GD32VW55x_REL
   1:C:/Users/stapi/OneDrive/Desktop/GD32VW553/V1_MQTT_OK/GD32VW55X_Wifi_BLE_SDK/GD32VW55x_RELEASE_V1.0.2/MSDK/cloud/alicloud/src/infra/utils/misc\utils_timer.c **** /*
   2:C:/Users/stapi/OneDrive/Desktop/GD32VW553/V1_MQTT_OK/GD32VW55X_Wifi_BLE_SDK/GD32VW55x_RELEASE_V1.0.2/MSDK/cloud/alicloud/src/infra/utils/misc\utils_timer.c ****  * Copyright (C) 2015-2018 Alibaba Group Holding Limited
   3:C:/Users/stapi/OneDrive/Desktop/GD32VW553/V1_MQTT_OK/GD32VW55X_Wifi_BLE_SDK/GD32VW55x_RELEASE_V1.0.2/MSDK/cloud/alicloud/src/infra/utils/misc\utils_timer.c ****  */
   4:C:/Users/stapi/OneDrive/Desktop/GD32VW553/V1_MQTT_OK/GD32VW55X_Wifi_BLE_SDK/GD32VW55x_RELEASE_V1.0.2/MSDK/cloud/alicloud/src/infra/utils/misc\utils_timer.c **** 
   5:C:/Users/stapi/OneDrive/Desktop/GD32VW553/V1_MQTT_OK/GD32VW55X_Wifi_BLE_SDK/GD32VW55x_RELEASE_V1.0.2/MSDK/cloud/alicloud/src/infra/utils/misc\utils_timer.c **** 
   6:C:/Users/stapi/OneDrive/Desktop/GD32VW553/V1_MQTT_OK/GD32VW55X_Wifi_BLE_SDK/GD32VW55x_RELEASE_V1.0.2/MSDK/cloud/alicloud/src/infra/utils/misc\utils_timer.c **** 
   7:C:/Users/stapi/OneDrive/Desktop/GD32VW553/V1_MQTT_OK/GD32VW55X_Wifi_BLE_SDK/GD32VW55x_RELEASE_V1.0.2/MSDK/cloud/alicloud/src/infra/utils/misc\utils_timer.c **** 
   8:C:/Users/stapi/OneDrive/Desktop/GD32VW553/V1_MQTT_OK/GD32VW55X_Wifi_BLE_SDK/GD32VW55x_RELEASE_V1.0.2/MSDK/cloud/alicloud/src/infra/utils/misc\utils_timer.c **** #include "iot_import.h"
   9:C:/Users/stapi/OneDrive/Desktop/GD32VW553/V1_MQTT_OK/GD32VW55X_Wifi_BLE_SDK/GD32VW55x_RELEASE_V1.0.2/MSDK/cloud/alicloud/src/infra/utils/misc\utils_timer.c **** #include "utils_timer.h"
  10:C:/Users/stapi/OneDrive/Desktop/GD32VW553/V1_MQTT_OK/GD32VW55X_Wifi_BLE_SDK/GD32VW55x_RELEASE_V1.0.2/MSDK/cloud/alicloud/src/infra/utils/misc\utils_timer.c **** 
  11:C:/Users/stapi/OneDrive/Desktop/GD32VW553/V1_MQTT_OK/GD32VW55X_Wifi_BLE_SDK/GD32VW55x_RELEASE_V1.0.2/MSDK/cloud/alicloud/src/infra/utils/misc\utils_timer.c **** 
  12:C:/Users/stapi/OneDrive/Desktop/GD32VW553/V1_MQTT_OK/GD32VW55X_Wifi_BLE_SDK/GD32VW55x_RELEASE_V1.0.2/MSDK/cloud/alicloud/src/infra/utils/misc\utils_timer.c **** void iotx_time_start(iotx_time_t *timer)
  13:C:/Users/stapi/OneDrive/Desktop/GD32VW553/V1_MQTT_OK/GD32VW55X_Wifi_BLE_SDK/GD32VW55x_RELEASE_V1.0.2/MSDK/cloud/alicloud/src/infra/utils/misc\utils_timer.c **** {
  16              		.loc 1 13 1
  17              		.cfi_startproc
  18              	.LVL0:
  14:C:/Users/stapi/OneDrive/Desktop/GD32VW553/V1_MQTT_OK/GD32VW55X_Wifi_BLE_SDK/GD32VW55x_RELEASE_V1.0.2/MSDK/cloud/alicloud/src/infra/utils/misc\utils_timer.c ****     if (!timer) {
  19              		.loc 1 14 5
  20              		.loc 1 14 8 is_stmt 0
  21 0000 19CD     		beq	a0,zero,.L7
  13:C:/Users/stapi/OneDrive/Desktop/GD32VW553/V1_MQTT_OK/GD32VW55X_Wifi_BLE_SDK/GD32VW55x_RELEASE_V1.0.2/MSDK/cloud/alicloud/src/infra/utils/misc\utils_timer.c ****     if (!timer) {
  22              		.loc 1 13 1
  23 0002 17030000 		call	t0,__riscv_save_1
  23      E7020300 
  24              		.cfi_offset 8, -8
  25              		.cfi_offset 1, -4
  26              		.cfi_def_cfa_offset 16
  27 000a 2A84     		mv	s0,a0
  15:C:/Users/stapi/OneDrive/Desktop/GD32VW553/V1_MQTT_OK/GD32VW55X_Wifi_BLE_SDK/GD32VW55x_RELEASE_V1.0.2/MSDK/cloud/alicloud/src/infra/utils/misc\utils_timer.c ****         return;
  16:C:/Users/stapi/OneDrive/Desktop/GD32VW553/V1_MQTT_OK/GD32VW55X_Wifi_BLE_SDK/GD32VW55x_RELEASE_V1.0.2/MSDK/cloud/alicloud/src/infra/utils/misc\utils_timer.c ****     }
  17:C:/Users/stapi/OneDrive/Desktop/GD32VW553/V1_MQTT_OK/GD32VW55X_Wifi_BLE_SDK/GD32VW55x_RELEASE_V1.0.2/MSDK/cloud/alicloud/src/infra/utils/misc\utils_timer.c **** 
  18:C:/Users/stapi/OneDrive/Desktop/GD32VW553/V1_MQTT_OK/GD32VW55X_Wifi_BLE_SDK/GD32VW55x_RELEASE_V1.0.2/MSDK/cloud/alicloud/src/infra/utils/misc\utils_timer.c ****     timer->time = HAL_UptimeMs();
  28              		.loc 1 18 5 is_stmt 1
  29              		.loc 1 18 19 is_stmt 0
  30 000c 97000000 		call	HAL_UptimeMs
  30      E7800000 
  31              	.LVL1:
  32              		.loc 1 18 17
  33 0014 08C0     		sw	a0,0(s0)
  19:C:/Users/stapi/OneDrive/Desktop/GD32VW553/V1_MQTT_OK/GD32VW55X_Wifi_BLE_SDK/GD32VW55x_RELEASE_V1.0.2/MSDK/cloud/alicloud/src/infra/utils/misc\utils_timer.c **** }
  34              		.loc 1 19 1
  35 0016 17030000 		tail	__riscv_restore_1
  35      67000300 
  36              		.cfi_restore 8
  37              		.cfi_restore 1
  38              		.cfi_def_cfa_offset 0
  39              	.LVL2:
  40              	.L7:
  41 001e 8280     		ret
  42              		.cfi_endproc
  43              	.LFE4:
  45              		.section	.text.utils_time_spend,"ax",@progbits
  46              		.align	1
  47              		.globl	utils_time_spend
  49              	utils_time_spend:
  50              	.LFB5:
  20:C:/Users/stapi/OneDrive/Desktop/GD32VW553/V1_MQTT_OK/GD32VW55X_Wifi_BLE_SDK/GD32VW55x_RELEASE_V1.0.2/MSDK/cloud/alicloud/src/infra/utils/misc\utils_timer.c **** 
  21:C:/Users/stapi/OneDrive/Desktop/GD32VW553/V1_MQTT_OK/GD32VW55X_Wifi_BLE_SDK/GD32VW55x_RELEASE_V1.0.2/MSDK/cloud/alicloud/src/infra/utils/misc\utils_timer.c **** uint32_t utils_time_spend(iotx_time_t *start)
  22:C:/Users/stapi/OneDrive/Desktop/GD32VW553/V1_MQTT_OK/GD32VW55X_Wifi_BLE_SDK/GD32VW55x_RELEASE_V1.0.2/MSDK/cloud/alicloud/src/infra/utils/misc\utils_timer.c **** {
  51              		.loc 1 22 1 is_stmt 1
  52              		.cfi_startproc
  53              	.LVL3:
  23:C:/Users/stapi/OneDrive/Desktop/GD32VW553/V1_MQTT_OK/GD32VW55X_Wifi_BLE_SDK/GD32VW55x_RELEASE_V1.0.2/MSDK/cloud/alicloud/src/infra/utils/misc\utils_timer.c ****     uint32_t now, res;
  54              		.loc 1 23 5
  24:C:/Users/stapi/OneDrive/Desktop/GD32VW553/V1_MQTT_OK/GD32VW55X_Wifi_BLE_SDK/GD32VW55x_RELEASE_V1.0.2/MSDK/cloud/alicloud/src/infra/utils/misc\utils_timer.c **** 
  25:C:/Users/stapi/OneDrive/Desktop/GD32VW553/V1_MQTT_OK/GD32VW55X_Wifi_BLE_SDK/GD32VW55x_RELEASE_V1.0.2/MSDK/cloud/alicloud/src/infra/utils/misc\utils_timer.c ****     if (!start) {
  55              		.loc 1 25 5
  56              		.loc 1 25 8 is_stmt 0
  57 0000 05C1     		beq	a0,zero,.L12
  22:C:/Users/stapi/OneDrive/Desktop/GD32VW553/V1_MQTT_OK/GD32VW55X_Wifi_BLE_SDK/GD32VW55x_RELEASE_V1.0.2/MSDK/cloud/alicloud/src/infra/utils/misc\utils_timer.c ****     uint32_t now, res;
  58              		.loc 1 22 1
  59 0002 17030000 		call	t0,__riscv_save_1
  59      E7020300 
  60              		.cfi_offset 8, -8
  61              		.cfi_offset 1, -4
  62              		.cfi_def_cfa_offset 16
  63 000a 2A84     		mv	s0,a0
  26:C:/Users/stapi/OneDrive/Desktop/GD32VW553/V1_MQTT_OK/GD32VW55X_Wifi_BLE_SDK/GD32VW55x_RELEASE_V1.0.2/MSDK/cloud/alicloud/src/infra/utils/misc\utils_timer.c ****         return 0;
  27:C:/Users/stapi/OneDrive/Desktop/GD32VW553/V1_MQTT_OK/GD32VW55X_Wifi_BLE_SDK/GD32VW55x_RELEASE_V1.0.2/MSDK/cloud/alicloud/src/infra/utils/misc\utils_timer.c ****     }
  28:C:/Users/stapi/OneDrive/Desktop/GD32VW553/V1_MQTT_OK/GD32VW55X_Wifi_BLE_SDK/GD32VW55x_RELEASE_V1.0.2/MSDK/cloud/alicloud/src/infra/utils/misc\utils_timer.c **** 
  29:C:/Users/stapi/OneDrive/Desktop/GD32VW553/V1_MQTT_OK/GD32VW55X_Wifi_BLE_SDK/GD32VW55x_RELEASE_V1.0.2/MSDK/cloud/alicloud/src/infra/utils/misc\utils_timer.c ****     now = HAL_UptimeMs();
  64              		.loc 1 29 5 is_stmt 1
  65              		.loc 1 29 11 is_stmt 0
  66 000c 97000000 		call	HAL_UptimeMs
  66      E7800000 
  67              	.LVL4:
  30:C:/Users/stapi/OneDrive/Desktop/GD32VW553/V1_MQTT_OK/GD32VW55X_Wifi_BLE_SDK/GD32VW55x_RELEASE_V1.0.2/MSDK/cloud/alicloud/src/infra/utils/misc\utils_timer.c ****     res = now - start->time;
  68              		.loc 1 30 5 is_stmt 1
  69              		.loc 1 30 9 is_stmt 0
  70 0014 1C40     		lw	a5,0(s0)
  31:C:/Users/stapi/OneDrive/Desktop/GD32VW553/V1_MQTT_OK/GD32VW55X_Wifi_BLE_SDK/GD32VW55x_RELEASE_V1.0.2/MSDK/cloud/alicloud/src/infra/utils/misc\utils_timer.c ****     return res;
  32:C:/Users/stapi/OneDrive/Desktop/GD32VW553/V1_MQTT_OK/GD32VW55X_Wifi_BLE_SDK/GD32VW55x_RELEASE_V1.0.2/MSDK/cloud/alicloud/src/infra/utils/misc\utils_timer.c **** }
  71              		.loc 1 32 1
  30:C:/Users/stapi/OneDrive/Desktop/GD32VW553/V1_MQTT_OK/GD32VW55X_Wifi_BLE_SDK/GD32VW55x_RELEASE_V1.0.2/MSDK/cloud/alicloud/src/infra/utils/misc\utils_timer.c ****     res = now - start->time;
  72              		.loc 1 30 9
  73 0016 1D8D     		sub	a0,a0,a5
  74              	.LVL5:
  31:C:/Users/stapi/OneDrive/Desktop/GD32VW553/V1_MQTT_OK/GD32VW55X_Wifi_BLE_SDK/GD32VW55x_RELEASE_V1.0.2/MSDK/cloud/alicloud/src/infra/utils/misc\utils_timer.c ****     return res;
  75              		.loc 1 31 5 is_stmt 1
  76              		.loc 1 32 1 is_stmt 0
  77 0018 17030000 		tail	__riscv_restore_1
  77      67000300 
  78              		.cfi_restore 8
  79              		.cfi_restore 1
  80              		.cfi_def_cfa_offset 0
  81              	.LVL6:
  82              	.L12:
  26:C:/Users/stapi/OneDrive/Desktop/GD32VW553/V1_MQTT_OK/GD32VW55X_Wifi_BLE_SDK/GD32VW55x_RELEASE_V1.0.2/MSDK/cloud/alicloud/src/infra/utils/misc\utils_timer.c ****     }
  83              		.loc 1 26 16
  84 0020 0145     		li	a0,0
  85              	.LVL7:
  86              		.loc 1 32 1
  87 0022 8280     		ret
  88              		.cfi_endproc
  89              	.LFE5:
  91              		.section	.text.iotx_time_left,"ax",@progbits
  92              		.align	1
  93              		.globl	iotx_time_left
  95              	iotx_time_left:
  96              	.LFB6:
  33:C:/Users/stapi/OneDrive/Desktop/GD32VW553/V1_MQTT_OK/GD32VW55X_Wifi_BLE_SDK/GD32VW55x_RELEASE_V1.0.2/MSDK/cloud/alicloud/src/infra/utils/misc\utils_timer.c **** 
  34:C:/Users/stapi/OneDrive/Desktop/GD32VW553/V1_MQTT_OK/GD32VW55X_Wifi_BLE_SDK/GD32VW55x_RELEASE_V1.0.2/MSDK/cloud/alicloud/src/infra/utils/misc\utils_timer.c **** uint32_t iotx_time_left(iotx_time_t *end)
  35:C:/Users/stapi/OneDrive/Desktop/GD32VW553/V1_MQTT_OK/GD32VW55X_Wifi_BLE_SDK/GD32VW55x_RELEASE_V1.0.2/MSDK/cloud/alicloud/src/infra/utils/misc\utils_timer.c **** {
  97              		.loc 1 35 1 is_stmt 1
  98              		.cfi_startproc
  99              	.LVL8:
  36:C:/Users/stapi/OneDrive/Desktop/GD32VW553/V1_MQTT_OK/GD32VW55X_Wifi_BLE_SDK/GD32VW55x_RELEASE_V1.0.2/MSDK/cloud/alicloud/src/infra/utils/misc\utils_timer.c ****     uint32_t now;
 100              		.loc 1 36 5
  37:C:/Users/stapi/OneDrive/Desktop/GD32VW553/V1_MQTT_OK/GD32VW55X_Wifi_BLE_SDK/GD32VW55x_RELEASE_V1.0.2/MSDK/cloud/alicloud/src/infra/utils/misc\utils_timer.c **** 
  38:C:/Users/stapi/OneDrive/Desktop/GD32VW553/V1_MQTT_OK/GD32VW55X_Wifi_BLE_SDK/GD32VW55x_RELEASE_V1.0.2/MSDK/cloud/alicloud/src/infra/utils/misc\utils_timer.c ****     if (!end) {
 101              		.loc 1 38 5
 102              		.loc 1 38 8 is_stmt 0
 103 0000 01E9     		bne	a0,zero,.L18
  39:C:/Users/stapi/OneDrive/Desktop/GD32VW553/V1_MQTT_OK/GD32VW55X_Wifi_BLE_SDK/GD32VW55x_RELEASE_V1.0.2/MSDK/cloud/alicloud/src/infra/utils/misc\utils_timer.c ****         return 0;
 104              		.loc 1 39 16
 105 0002 0145     		li	a0,0
 106              	.LVL9:
  40:C:/Users/stapi/OneDrive/Desktop/GD32VW553/V1_MQTT_OK/GD32VW55X_Wifi_BLE_SDK/GD32VW55x_RELEASE_V1.0.2/MSDK/cloud/alicloud/src/infra/utils/misc\utils_timer.c ****     }
  41:C:/Users/stapi/OneDrive/Desktop/GD32VW553/V1_MQTT_OK/GD32VW55X_Wifi_BLE_SDK/GD32VW55x_RELEASE_V1.0.2/MSDK/cloud/alicloud/src/infra/utils/misc\utils_timer.c **** 
  42:C:/Users/stapi/OneDrive/Desktop/GD32VW553/V1_MQTT_OK/GD32VW55X_Wifi_BLE_SDK/GD32VW55x_RELEASE_V1.0.2/MSDK/cloud/alicloud/src/infra/utils/misc\utils_timer.c ****     now = HAL_UptimeMs();
  43:C:/Users/stapi/OneDrive/Desktop/GD32VW553/V1_MQTT_OK/GD32VW55X_Wifi_BLE_SDK/GD32VW55x_RELEASE_V1.0.2/MSDK/cloud/alicloud/src/infra/utils/misc\utils_timer.c **** 
  44:C:/Users/stapi/OneDrive/Desktop/GD32VW553/V1_MQTT_OK/GD32VW55X_Wifi_BLE_SDK/GD32VW55x_RELEASE_V1.0.2/MSDK/cloud/alicloud/src/infra/utils/misc\utils_timer.c ****     return ((now - end->time) < (UINT32_MAX / 2))?0:(end->time - now);
  45:C:/Users/stapi/OneDrive/Desktop/GD32VW553/V1_MQTT_OK/GD32VW55X_Wifi_BLE_SDK/GD32VW55x_RELEASE_V1.0.2/MSDK/cloud/alicloud/src/infra/utils/misc\utils_timer.c **** }
 107              		.loc 1 45 1
 108 0004 8280     		ret
 109              	.LVL10:
 110              	.L20:
 111              		.cfi_def_cfa_offset 16
 112              		.cfi_offset 1, -4
 113              		.cfi_offset 8, -8
  39:C:/Users/stapi/OneDrive/Desktop/GD32VW553/V1_MQTT_OK/GD32VW55X_Wifi_BLE_SDK/GD32VW55x_RELEASE_V1.0.2/MSDK/cloud/alicloud/src/infra/utils/misc\utils_timer.c ****         return 0;
 114              		.loc 1 39 16
 115 0006 0145     		li	a0,0
 116              	.LVL11:
 117              	.L17:
 118              		.loc 1 45 1
 119 0008 17030000 		tail	__riscv_restore_1
 119      67000300 
 120              		.cfi_restore 8
 121              		.cfi_restore 1
 122              		.cfi_def_cfa_offset 0
 123              	.LVL12:
 124              	.L18:
  35:C:/Users/stapi/OneDrive/Desktop/GD32VW553/V1_MQTT_OK/GD32VW55X_Wifi_BLE_SDK/GD32VW55x_RELEASE_V1.0.2/MSDK/cloud/alicloud/src/infra/utils/misc\utils_timer.c ****     uint32_t now;
 125              		.loc 1 35 1
 126 0010 17030000 		call	t0,__riscv_save_1
 126      E7020300 
 127              		.cfi_offset 8, -8
 128              		.cfi_offset 1, -4
 129              		.cfi_def_cfa_offset 16
 130 0018 2A84     		mv	s0,a0
  42:C:/Users/stapi/OneDrive/Desktop/GD32VW553/V1_MQTT_OK/GD32VW55X_Wifi_BLE_SDK/GD32VW55x_RELEASE_V1.0.2/MSDK/cloud/alicloud/src/infra/utils/misc\utils_timer.c **** 
 131              		.loc 1 42 5 is_stmt 1
  42:C:/Users/stapi/OneDrive/Desktop/GD32VW553/V1_MQTT_OK/GD32VW55X_Wifi_BLE_SDK/GD32VW55x_RELEASE_V1.0.2/MSDK/cloud/alicloud/src/infra/utils/misc\utils_timer.c **** 
 132              		.loc 1 42 11 is_stmt 0
 133 001a 97000000 		call	HAL_UptimeMs
 133      E7800000 
 134              	.LVL13:
  44:C:/Users/stapi/OneDrive/Desktop/GD32VW553/V1_MQTT_OK/GD32VW55X_Wifi_BLE_SDK/GD32VW55x_RELEASE_V1.0.2/MSDK/cloud/alicloud/src/infra/utils/misc\utils_timer.c **** }
 135              		.loc 1 44 5 is_stmt 1
  44:C:/Users/stapi/OneDrive/Desktop/GD32VW553/V1_MQTT_OK/GD32VW55X_Wifi_BLE_SDK/GD32VW55x_RELEASE_V1.0.2/MSDK/cloud/alicloud/src/infra/utils/misc\utils_timer.c **** }
 136              		.loc 1 44 23 is_stmt 0
 137 0022 1C40     		lw	a5,0(s0)
  44:C:/Users/stapi/OneDrive/Desktop/GD32VW553/V1_MQTT_OK/GD32VW55X_Wifi_BLE_SDK/GD32VW55x_RELEASE_V1.0.2/MSDK/cloud/alicloud/src/infra/utils/misc\utils_timer.c **** }
 138              		.loc 1 44 52
 139 0024 37070080 		li	a4,-2147483648
 140 0028 1347E7FF 		xori	a4,a4,-2
  44:C:/Users/stapi/OneDrive/Desktop/GD32VW553/V1_MQTT_OK/GD32VW55X_Wifi_BLE_SDK/GD32VW55x_RELEASE_V1.0.2/MSDK/cloud/alicloud/src/infra/utils/misc\utils_timer.c **** }
 141              		.loc 1 44 18
 142 002c B306F540 		sub	a3,a0,a5
  44:C:/Users/stapi/OneDrive/Desktop/GD32VW553/V1_MQTT_OK/GD32VW55X_Wifi_BLE_SDK/GD32VW55x_RELEASE_V1.0.2/MSDK/cloud/alicloud/src/infra/utils/misc\utils_timer.c **** }
 143              		.loc 1 44 52
 144 0030 E37BD7FC 		bleu	a3,a4,.L20
  44:C:/Users/stapi/OneDrive/Desktop/GD32VW553/V1_MQTT_OK/GD32VW55X_Wifi_BLE_SDK/GD32VW55x_RELEASE_V1.0.2/MSDK/cloud/alicloud/src/infra/utils/misc\utils_timer.c **** }
 145              		.loc 1 44 52 discriminator 1
 146 0034 3385A740 		sub	a0,a5,a0
 147              	.LVL14:
 148 0038 C1BF     		j	.L17
 149              		.cfi_endproc
 150              	.LFE6:
 152              		.section	.text.utils_time_is_expired,"ax",@progbits
 153              		.align	1
 154              		.globl	utils_time_is_expired
 156              	utils_time_is_expired:
 157              	.LFB7:
  46:C:/Users/stapi/OneDrive/Desktop/GD32VW553/V1_MQTT_OK/GD32VW55X_Wifi_BLE_SDK/GD32VW55x_RELEASE_V1.0.2/MSDK/cloud/alicloud/src/infra/utils/misc\utils_timer.c **** 
  47:C:/Users/stapi/OneDrive/Desktop/GD32VW553/V1_MQTT_OK/GD32VW55X_Wifi_BLE_SDK/GD32VW55x_RELEASE_V1.0.2/MSDK/cloud/alicloud/src/infra/utils/misc\utils_timer.c **** uint32_t utils_time_is_expired(iotx_time_t *timer)
  48:C:/Users/stapi/OneDrive/Desktop/GD32VW553/V1_MQTT_OK/GD32VW55X_Wifi_BLE_SDK/GD32VW55x_RELEASE_V1.0.2/MSDK/cloud/alicloud/src/infra/utils/misc\utils_timer.c **** {
 158              		.loc 1 48 1 is_stmt 1
 159              		.cfi_startproc
 160              	.LVL15:
  49:C:/Users/stapi/OneDrive/Desktop/GD32VW553/V1_MQTT_OK/GD32VW55X_Wifi_BLE_SDK/GD32VW55x_RELEASE_V1.0.2/MSDK/cloud/alicloud/src/infra/utils/misc\utils_timer.c ****     uint32_t cur_time;
 161              		.loc 1 49 5
  50:C:/Users/stapi/OneDrive/Desktop/GD32VW553/V1_MQTT_OK/GD32VW55X_Wifi_BLE_SDK/GD32VW55x_RELEASE_V1.0.2/MSDK/cloud/alicloud/src/infra/utils/misc\utils_timer.c **** 
  51:C:/Users/stapi/OneDrive/Desktop/GD32VW553/V1_MQTT_OK/GD32VW55X_Wifi_BLE_SDK/GD32VW55x_RELEASE_V1.0.2/MSDK/cloud/alicloud/src/infra/utils/misc\utils_timer.c ****     if (!timer) {
 162              		.loc 1 51 5
 163              		.loc 1 51 8 is_stmt 0
 164 0000 15C5     		beq	a0,zero,.L26
  48:C:/Users/stapi/OneDrive/Desktop/GD32VW553/V1_MQTT_OK/GD32VW55X_Wifi_BLE_SDK/GD32VW55x_RELEASE_V1.0.2/MSDK/cloud/alicloud/src/infra/utils/misc\utils_timer.c ****     uint32_t cur_time;
 165              		.loc 1 48 1
 166 0002 17030000 		call	t0,__riscv_save_1
 166      E7020300 
 167              		.cfi_offset 8, -8
 168              		.cfi_offset 1, -4
 169              		.cfi_def_cfa_offset 16
 170 000a 2A84     		mv	s0,a0
  52:C:/Users/stapi/OneDrive/Desktop/GD32VW553/V1_MQTT_OK/GD32VW55X_Wifi_BLE_SDK/GD32VW55x_RELEASE_V1.0.2/MSDK/cloud/alicloud/src/infra/utils/misc\utils_timer.c ****         return 1;
  53:C:/Users/stapi/OneDrive/Desktop/GD32VW553/V1_MQTT_OK/GD32VW55X_Wifi_BLE_SDK/GD32VW55x_RELEASE_V1.0.2/MSDK/cloud/alicloud/src/infra/utils/misc\utils_timer.c ****     }
  54:C:/Users/stapi/OneDrive/Desktop/GD32VW553/V1_MQTT_OK/GD32VW55X_Wifi_BLE_SDK/GD32VW55x_RELEASE_V1.0.2/MSDK/cloud/alicloud/src/infra/utils/misc\utils_timer.c **** 
  55:C:/Users/stapi/OneDrive/Desktop/GD32VW553/V1_MQTT_OK/GD32VW55X_Wifi_BLE_SDK/GD32VW55x_RELEASE_V1.0.2/MSDK/cloud/alicloud/src/infra/utils/misc\utils_timer.c ****     cur_time = HAL_UptimeMs();
 171              		.loc 1 55 5 is_stmt 1
 172              		.loc 1 55 16 is_stmt 0
 173 000c 97000000 		call	HAL_UptimeMs
 173      E7800000 
 174              	.LVL16:
  56:C:/Users/stapi/OneDrive/Desktop/GD32VW553/V1_MQTT_OK/GD32VW55X_Wifi_BLE_SDK/GD32VW55x_RELEASE_V1.0.2/MSDK/cloud/alicloud/src/infra/utils/misc\utils_timer.c ****     /*
  57:C:/Users/stapi/OneDrive/Desktop/GD32VW553/V1_MQTT_OK/GD32VW55X_Wifi_BLE_SDK/GD32VW55x_RELEASE_V1.0.2/MSDK/cloud/alicloud/src/infra/utils/misc\utils_timer.c ****      *  WARNING: Do NOT change the following code until you know exactly what it do!
  58:C:/Users/stapi/OneDrive/Desktop/GD32VW553/V1_MQTT_OK/GD32VW55X_Wifi_BLE_SDK/GD32VW55x_RELEASE_V1.0.2/MSDK/cloud/alicloud/src/infra/utils/misc\utils_timer.c ****      *
  59:C:/Users/stapi/OneDrive/Desktop/GD32VW553/V1_MQTT_OK/GD32VW55X_Wifi_BLE_SDK/GD32VW55x_RELEASE_V1.0.2/MSDK/cloud/alicloud/src/infra/utils/misc\utils_timer.c ****      *  check whether it reach destination time or not.
  60:C:/Users/stapi/OneDrive/Desktop/GD32VW553/V1_MQTT_OK/GD32VW55X_Wifi_BLE_SDK/GD32VW55x_RELEASE_V1.0.2/MSDK/cloud/alicloud/src/infra/utils/misc\utils_timer.c ****      */
  61:C:/Users/stapi/OneDrive/Desktop/GD32VW553/V1_MQTT_OK/GD32VW55X_Wifi_BLE_SDK/GD32VW55x_RELEASE_V1.0.2/MSDK/cloud/alicloud/src/infra/utils/misc\utils_timer.c ****     if ((cur_time - timer->time) < (UINT32_MAX / 2)) {
 175              		.loc 1 61 5 is_stmt 1
 176              		.loc 1 61 19 is_stmt 0
 177 0014 1C40     		lw	a5,0(s0)
  62:C:/Users/stapi/OneDrive/Desktop/GD32VW553/V1_MQTT_OK/GD32VW55X_Wifi_BLE_SDK/GD32VW55x_RELEASE_V1.0.2/MSDK/cloud/alicloud/src/infra/utils/misc\utils_timer.c ****         return 1;
  63:C:/Users/stapi/OneDrive/Desktop/GD32VW553/V1_MQTT_OK/GD32VW55X_Wifi_BLE_SDK/GD32VW55x_RELEASE_V1.0.2/MSDK/cloud/alicloud/src/infra/utils/misc\utils_timer.c ****     } else {
  64:C:/Users/stapi/OneDrive/Desktop/GD32VW553/V1_MQTT_OK/GD32VW55X_Wifi_BLE_SDK/GD32VW55x_RELEASE_V1.0.2/MSDK/cloud/alicloud/src/infra/utils/misc\utils_timer.c ****         return 0;
  65:C:/Users/stapi/OneDrive/Desktop/GD32VW553/V1_MQTT_OK/GD32VW55X_Wifi_BLE_SDK/GD32VW55x_RELEASE_V1.0.2/MSDK/cloud/alicloud/src/infra/utils/misc\utils_timer.c ****     }
  66:C:/Users/stapi/OneDrive/Desktop/GD32VW553/V1_MQTT_OK/GD32VW55X_Wifi_BLE_SDK/GD32VW55x_RELEASE_V1.0.2/MSDK/cloud/alicloud/src/infra/utils/misc\utils_timer.c **** }
 178              		.loc 1 66 1
  61:C:/Users/stapi/OneDrive/Desktop/GD32VW553/V1_MQTT_OK/GD32VW55X_Wifi_BLE_SDK/GD32VW55x_RELEASE_V1.0.2/MSDK/cloud/alicloud/src/infra/utils/misc\utils_timer.c ****         return 1;
 179              		.loc 1 61 19
 180 0016 1D8D     		sub	a0,a0,a5
 181              	.LVL17:
  61:C:/Users/stapi/OneDrive/Desktop/GD32VW553/V1_MQTT_OK/GD32VW55X_Wifi_BLE_SDK/GD32VW55x_RELEASE_V1.0.2/MSDK/cloud/alicloud/src/infra/utils/misc\utils_timer.c ****         return 1;
 182              		.loc 1 61 8
 183 0018 B7070080 		li	a5,-2147483648
 184 001c 93C7F7FF 		xori	a5,a5,-1
 185 0020 3335F500 		sltu	a0,a0,a5
 186              		.loc 1 66 1
 187 0024 17030000 		tail	__riscv_restore_1
 187      67000300 
 188              		.cfi_restore 8
 189              		.cfi_restore 1
 190              		.cfi_def_cfa_offset 0
 191              	.LVL18:
 192              	.L26:
  52:C:/Users/stapi/OneDrive/Desktop/GD32VW553/V1_MQTT_OK/GD32VW55X_Wifi_BLE_SDK/GD32VW55x_RELEASE_V1.0.2/MSDK/cloud/alicloud/src/infra/utils/misc\utils_timer.c ****     }
 193              		.loc 1 52 16
 194 002c 0545     		li	a0,1
 195              	.LVL19:
 196              		.loc 1 66 1
 197 002e 8280     		ret
 198              		.cfi_endproc
 199              	.LFE7:
 201              		.section	.text.iotx_time_init,"ax",@progbits
 202              		.align	1
 203              		.globl	iotx_time_init
 205              	iotx_time_init:
 206              	.LFB8:
  67:C:/Users/stapi/OneDrive/Desktop/GD32VW553/V1_MQTT_OK/GD32VW55X_Wifi_BLE_SDK/GD32VW55x_RELEASE_V1.0.2/MSDK/cloud/alicloud/src/infra/utils/misc\utils_timer.c **** 
  68:C:/Users/stapi/OneDrive/Desktop/GD32VW553/V1_MQTT_OK/GD32VW55X_Wifi_BLE_SDK/GD32VW55x_RELEASE_V1.0.2/MSDK/cloud/alicloud/src/infra/utils/misc\utils_timer.c **** void iotx_time_init(iotx_time_t *timer)
  69:C:/Users/stapi/OneDrive/Desktop/GD32VW553/V1_MQTT_OK/GD32VW55X_Wifi_BLE_SDK/GD32VW55x_RELEASE_V1.0.2/MSDK/cloud/alicloud/src/infra/utils/misc\utils_timer.c **** {
 207              		.loc 1 69 1 is_stmt 1
 208              		.cfi_startproc
 209              	.LVL20:
  70:C:/Users/stapi/OneDrive/Desktop/GD32VW553/V1_MQTT_OK/GD32VW55X_Wifi_BLE_SDK/GD32VW55x_RELEASE_V1.0.2/MSDK/cloud/alicloud/src/infra/utils/misc\utils_timer.c ****     if (!timer) {
 210              		.loc 1 70 5
 211              		.loc 1 70 8 is_stmt 0
 212 0000 19C1     		beq	a0,zero,.L31
  71:C:/Users/stapi/OneDrive/Desktop/GD32VW553/V1_MQTT_OK/GD32VW55X_Wifi_BLE_SDK/GD32VW55x_RELEASE_V1.0.2/MSDK/cloud/alicloud/src/infra/utils/misc\utils_timer.c ****         return;
  72:C:/Users/stapi/OneDrive/Desktop/GD32VW553/V1_MQTT_OK/GD32VW55X_Wifi_BLE_SDK/GD32VW55x_RELEASE_V1.0.2/MSDK/cloud/alicloud/src/infra/utils/misc\utils_timer.c ****     }
  73:C:/Users/stapi/OneDrive/Desktop/GD32VW553/V1_MQTT_OK/GD32VW55X_Wifi_BLE_SDK/GD32VW55x_RELEASE_V1.0.2/MSDK/cloud/alicloud/src/infra/utils/misc\utils_timer.c **** 
  74:C:/Users/stapi/OneDrive/Desktop/GD32VW553/V1_MQTT_OK/GD32VW55X_Wifi_BLE_SDK/GD32VW55x_RELEASE_V1.0.2/MSDK/cloud/alicloud/src/infra/utils/misc\utils_timer.c ****     timer->time = 0;
 213              		.loc 1 74 5 is_stmt 1
 214              		.loc 1 74 17 is_stmt 0
 215 0002 23200500 		sw	zero,0(a0)
 216              	.L31:
  75:C:/Users/stapi/OneDrive/Desktop/GD32VW553/V1_MQTT_OK/GD32VW55X_Wifi_BLE_SDK/GD32VW55x_RELEASE_V1.0.2/MSDK/cloud/alicloud/src/infra/utils/misc\utils_timer.c **** }
 217              		.loc 1 75 1
 218 0006 8280     		ret
 219              		.cfi_endproc
 220              	.LFE8:
 222              		.section	.text.utils_time_countdown_ms,"ax",@progbits
 223              		.align	1
 224              		.globl	utils_time_countdown_ms
 226              	utils_time_countdown_ms:
 227              	.LFB9:
  76:C:/Users/stapi/OneDrive/Desktop/GD32VW553/V1_MQTT_OK/GD32VW55X_Wifi_BLE_SDK/GD32VW55x_RELEASE_V1.0.2/MSDK/cloud/alicloud/src/infra/utils/misc\utils_timer.c **** 
  77:C:/Users/stapi/OneDrive/Desktop/GD32VW553/V1_MQTT_OK/GD32VW55X_Wifi_BLE_SDK/GD32VW55x_RELEASE_V1.0.2/MSDK/cloud/alicloud/src/infra/utils/misc\utils_timer.c **** void utils_time_countdown_ms(iotx_time_t *timer, uint32_t millisecond)
  78:C:/Users/stapi/OneDrive/Desktop/GD32VW553/V1_MQTT_OK/GD32VW55X_Wifi_BLE_SDK/GD32VW55x_RELEASE_V1.0.2/MSDK/cloud/alicloud/src/infra/utils/misc\utils_timer.c **** {
 228              		.loc 1 78 1 is_stmt 1
 229              		.cfi_startproc
 230              	.LVL21:
  79:C:/Users/stapi/OneDrive/Desktop/GD32VW553/V1_MQTT_OK/GD32VW55X_Wifi_BLE_SDK/GD32VW55x_RELEASE_V1.0.2/MSDK/cloud/alicloud/src/infra/utils/misc\utils_timer.c ****     if (!timer) {
 231              		.loc 1 79 5
 232              		.loc 1 79 8 is_stmt 0
 233 0000 0DC1     		beq	a0,zero,.L42
  78:C:/Users/stapi/OneDrive/Desktop/GD32VW553/V1_MQTT_OK/GD32VW55X_Wifi_BLE_SDK/GD32VW55x_RELEASE_V1.0.2/MSDK/cloud/alicloud/src/infra/utils/misc\utils_timer.c ****     if (!timer) {
 234              		.loc 1 78 1
 235 0002 17030000 		call	t0,__riscv_save_2
 235      E7020300 
 236              		.cfi_offset 9, -12
 237              		.cfi_offset 8, -8
 238              		.cfi_offset 1, -4
 239              		.cfi_def_cfa_offset 16
 240 000a AA84     		mv	s1,a0
 241 000c 2E84     		mv	s0,a1
  80:C:/Users/stapi/OneDrive/Desktop/GD32VW553/V1_MQTT_OK/GD32VW55X_Wifi_BLE_SDK/GD32VW55x_RELEASE_V1.0.2/MSDK/cloud/alicloud/src/infra/utils/misc\utils_timer.c ****         return;
  81:C:/Users/stapi/OneDrive/Desktop/GD32VW553/V1_MQTT_OK/GD32VW55X_Wifi_BLE_SDK/GD32VW55x_RELEASE_V1.0.2/MSDK/cloud/alicloud/src/infra/utils/misc\utils_timer.c ****     }
  82:C:/Users/stapi/OneDrive/Desktop/GD32VW553/V1_MQTT_OK/GD32VW55X_Wifi_BLE_SDK/GD32VW55x_RELEASE_V1.0.2/MSDK/cloud/alicloud/src/infra/utils/misc\utils_timer.c **** 
  83:C:/Users/stapi/OneDrive/Desktop/GD32VW553/V1_MQTT_OK/GD32VW55X_Wifi_BLE_SDK/GD32VW55x_RELEASE_V1.0.2/MSDK/cloud/alicloud/src/infra/utils/misc\utils_timer.c ****     timer->time = HAL_UptimeMs() + millisecond;
 242              		.loc 1 83 5 is_stmt 1
 243              		.loc 1 83 19 is_stmt 0
 244 000e 97000000 		call	HAL_UptimeMs
 244      E7800000 
 245              	.LVL22:
 246              		.loc 1 83 34
 247 0016 2A94     		add	s0,s0,a0
 248              	.LVL23:
 249              		.loc 1 83 17
 250 0018 80C0     		sw	s0,0(s1)
  84:C:/Users/stapi/OneDrive/Desktop/GD32VW553/V1_MQTT_OK/GD32VW55X_Wifi_BLE_SDK/GD32VW55x_RELEASE_V1.0.2/MSDK/cloud/alicloud/src/infra/utils/misc\utils_timer.c **** }
 251              		.loc 1 84 1
 252 001a 17030000 		tail	__riscv_restore_2
 252      67000300 
 253              		.cfi_restore 9
 254              		.cfi_restore 8
 255              		.cfi_restore 1
 256              		.cfi_def_cfa_offset 0
 257              	.LVL24:
 258              	.L42:
 259 0022 8280     		ret
 260              		.cfi_endproc
 261              	.LFE9:
 263              		.section	.text.utils_time_get_ms,"ax",@progbits
 264              		.align	1
 265              		.globl	utils_time_get_ms
 267              	utils_time_get_ms:
 268              	.LFB10:
  85:C:/Users/stapi/OneDrive/Desktop/GD32VW553/V1_MQTT_OK/GD32VW55X_Wifi_BLE_SDK/GD32VW55x_RELEASE_V1.0.2/MSDK/cloud/alicloud/src/infra/utils/misc\utils_timer.c **** 
  86:C:/Users/stapi/OneDrive/Desktop/GD32VW553/V1_MQTT_OK/GD32VW55X_Wifi_BLE_SDK/GD32VW55x_RELEASE_V1.0.2/MSDK/cloud/alicloud/src/infra/utils/misc\utils_timer.c **** uint32_t utils_time_get_ms(void)
  87:C:/Users/stapi/OneDrive/Desktop/GD32VW553/V1_MQTT_OK/GD32VW55X_Wifi_BLE_SDK/GD32VW55x_RELEASE_V1.0.2/MSDK/cloud/alicloud/src/infra/utils/misc\utils_timer.c **** {
 269              		.loc 1 87 1 is_stmt 1
 270              		.cfi_startproc
  88:C:/Users/stapi/OneDrive/Desktop/GD32VW553/V1_MQTT_OK/GD32VW55X_Wifi_BLE_SDK/GD32VW55x_RELEASE_V1.0.2/MSDK/cloud/alicloud/src/infra/utils/misc\utils_timer.c ****     return HAL_UptimeMs();
 271              		.loc 1 88 5
 272              		.loc 1 88 12 is_stmt 0
 273 0000 17030000 		tail	HAL_UptimeMs
 273      67000300 
 274              	.LVL25:
 275              		.cfi_endproc
 276              	.LFE10:
 278              		.text
 279              	.Letext0:
 280              		.file 2 "c:\\users\\stapi\\onedrive\\desktop\\gd32vw553\\embeddedbuilder_v1.4.7.26843\\tools\\nucl
 281              		.file 3 "c:\\users\\stapi\\onedrive\\desktop\\gd32vw553\\embeddedbuilder_v1.4.7.26843\\tools\\nucl
 282              		.file 4 "C:/Users/stapi/OneDrive/Desktop/GD32VW553/V1_MQTT_OK/GD32VW55X_Wifi_BLE_SDK/GD32VW55x_REL
 283              		.file 5 "..\\..\\..\\..\\cloud\\alicloud\\include/iot_import.h"