   1              		.file	"utils_httpc.c"
   2              		.option nopic
   3              		.attribute arch, "rv32i2p0_m2p0_a2p0_f2p0_c2p0_b_p0p94"
   4              		.attribute unaligned_access, 0
   5              		.attribute stack_align, 16
   6              		.text
   7              	.Ltext0:
   8              		.cfi_sections	.debug_frame
   9              		.section	.rodata.httpclient_recv.constprop.0.str1.4,"aMS",@progbits,1
  10              		.align	2
  11              	.LC0:
  12 0000 25752062 		.string	"%u bytes has been read"
  12      79746573 
  12      20686173 
  12      20626565 
  12      6E207265 
  13 0017 00       		.align	2
  14              	.LC1:
  15 0018 7574696C 		.string	"util"
  15      00
  16 001d 000000   		.align	2
  17              	.LC2:
  18 0020 5B657272 		.string	"[err] "
  18      5D2000
  19 0027 00       		.align	2
  20              	.LC3:
  21 0028 436F6E6E 		.string	"Connection closed."
  21      65637469 
  21      6F6E2063 
  21      6C6F7365 
  21      642E00
  22 003b 00       		.align	2
  23              	.LC4:
  24 003c 0D0A00   		.string	"\r\n"
  25 003f 00       		.align	2
  26              	.LC5:
  27 0040 436F6E6E 		.string	"Connection error (recv returned %d)"
  27      65637469 
  27      6F6E2065 
  27      72726F72 
  27      20287265 
  28              		.section	.text.httpclient_recv.constprop.0,"ax",@progbits
  29              		.align	1
  31              	httpclient_recv.constprop.0:
  32              	.LFB40:
  33              		.file 1 "C:/Users/stapi/OneDrive/Desktop/GD32VW553/V1_MQTT_OK/GD32VW55X_Wifi_BLE_SDK/GD32VW55x_REL
   1:C:/Users/stapi/OneDrive/Desktop/GD32VW553/V1_MQTT_OK/GD32VW55X_Wifi_BLE_SDK/GD32VW55x_RELEASE_V1.0.2/MSDK/cloud/alicloud/src/infra/utils/misc\utils_httpc.c **** /*
   2:C:/Users/stapi/OneDrive/Desktop/GD32VW553/V1_MQTT_OK/GD32VW55X_Wifi_BLE_SDK/GD32VW55x_RELEASE_V1.0.2/MSDK/cloud/alicloud/src/infra/utils/misc\utils_httpc.c ****  * Copyright (C) 2015-2018 Alibaba Group Holding Limited
   3:C:/Users/stapi/OneDrive/Desktop/GD32VW553/V1_MQTT_OK/GD32VW55X_Wifi_BLE_SDK/GD32VW55x_RELEASE_V1.0.2/MSDK/cloud/alicloud/src/infra/utils/misc\utils_httpc.c ****  */
   4:C:/Users/stapi/OneDrive/Desktop/GD32VW553/V1_MQTT_OK/GD32VW55X_Wifi_BLE_SDK/GD32VW55x_RELEASE_V1.0.2/MSDK/cloud/alicloud/src/infra/utils/misc\utils_httpc.c **** 
   5:C:/Users/stapi/OneDrive/Desktop/GD32VW553/V1_MQTT_OK/GD32VW55X_Wifi_BLE_SDK/GD32VW55x_RELEASE_V1.0.2/MSDK/cloud/alicloud/src/infra/utils/misc\utils_httpc.c **** #include <string.h>
   6:C:/Users/stapi/OneDrive/Desktop/GD32VW553/V1_MQTT_OK/GD32VW55X_Wifi_BLE_SDK/GD32VW55x_RELEASE_V1.0.2/MSDK/cloud/alicloud/src/infra/utils/misc\utils_httpc.c **** #include <stddef.h>
   7:C:/Users/stapi/OneDrive/Desktop/GD32VW553/V1_MQTT_OK/GD32VW55X_Wifi_BLE_SDK/GD32VW55x_RELEASE_V1.0.2/MSDK/cloud/alicloud/src/infra/utils/misc\utils_httpc.c **** #include <stdlib.h>
   8:C:/Users/stapi/OneDrive/Desktop/GD32VW553/V1_MQTT_OK/GD32VW55X_Wifi_BLE_SDK/GD32VW55x_RELEASE_V1.0.2/MSDK/cloud/alicloud/src/infra/utils/misc\utils_httpc.c **** 
   9:C:/Users/stapi/OneDrive/Desktop/GD32VW553/V1_MQTT_OK/GD32VW55X_Wifi_BLE_SDK/GD32VW55x_RELEASE_V1.0.2/MSDK/cloud/alicloud/src/infra/utils/misc\utils_httpc.c **** #include "iot_import.h"
  10:C:/Users/stapi/OneDrive/Desktop/GD32VW553/V1_MQTT_OK/GD32VW55X_Wifi_BLE_SDK/GD32VW55x_RELEASE_V1.0.2/MSDK/cloud/alicloud/src/infra/utils/misc\utils_httpc.c **** #include "iot_export.h"
  11:C:/Users/stapi/OneDrive/Desktop/GD32VW553/V1_MQTT_OK/GD32VW55X_Wifi_BLE_SDK/GD32VW55x_RELEASE_V1.0.2/MSDK/cloud/alicloud/src/infra/utils/misc\utils_httpc.c **** #include "utils_timer.h"
  12:C:/Users/stapi/OneDrive/Desktop/GD32VW553/V1_MQTT_OK/GD32VW55X_Wifi_BLE_SDK/GD32VW55x_RELEASE_V1.0.2/MSDK/cloud/alicloud/src/infra/utils/misc\utils_httpc.c **** #include "utils_httpc.h"
  13:C:/Users/stapi/OneDrive/Desktop/GD32VW553/V1_MQTT_OK/GD32VW55X_Wifi_BLE_SDK/GD32VW55x_RELEASE_V1.0.2/MSDK/cloud/alicloud/src/infra/utils/misc\utils_httpc.c **** #include "iotx_utils_internal.h"
  14:C:/Users/stapi/OneDrive/Desktop/GD32VW553/V1_MQTT_OK/GD32VW55X_Wifi_BLE_SDK/GD32VW55x_RELEASE_V1.0.2/MSDK/cloud/alicloud/src/infra/utils/misc\utils_httpc.c **** 
  15:C:/Users/stapi/OneDrive/Desktop/GD32VW553/V1_MQTT_OK/GD32VW55X_Wifi_BLE_SDK/GD32VW55x_RELEASE_V1.0.2/MSDK/cloud/alicloud/src/infra/utils/misc\utils_httpc.c **** #define HTTPCLIENT_MIN(x,y) (((x)<(y))?(x):(y))
  16:C:/Users/stapi/OneDrive/Desktop/GD32VW553/V1_MQTT_OK/GD32VW55X_Wifi_BLE_SDK/GD32VW55x_RELEASE_V1.0.2/MSDK/cloud/alicloud/src/infra/utils/misc\utils_httpc.c **** #define HTTPCLIENT_MAX(x,y) (((x)>(y))?(x):(y))
  17:C:/Users/stapi/OneDrive/Desktop/GD32VW553/V1_MQTT_OK/GD32VW55X_Wifi_BLE_SDK/GD32VW55x_RELEASE_V1.0.2/MSDK/cloud/alicloud/src/infra/utils/misc\utils_httpc.c **** 
  18:C:/Users/stapi/OneDrive/Desktop/GD32VW553/V1_MQTT_OK/GD32VW55X_Wifi_BLE_SDK/GD32VW55x_RELEASE_V1.0.2/MSDK/cloud/alicloud/src/infra/utils/misc\utils_httpc.c **** #define HTTPCLIENT_AUTHB_SIZE     128
  19:C:/Users/stapi/OneDrive/Desktop/GD32VW553/V1_MQTT_OK/GD32VW55X_Wifi_BLE_SDK/GD32VW55x_RELEASE_V1.0.2/MSDK/cloud/alicloud/src/infra/utils/misc\utils_httpc.c **** #ifdef LINK_VISUAL_ENABLE
  20:C:/Users/stapi/OneDrive/Desktop/GD32VW553/V1_MQTT_OK/GD32VW55X_Wifi_BLE_SDK/GD32VW55x_RELEASE_V1.0.2/MSDK/cloud/alicloud/src/infra/utils/misc\utils_httpc.c **** #define HTTPCLIENT_CHUNK_SIZE     200*1024      /* read payload */
  21:C:/Users/stapi/OneDrive/Desktop/GD32VW553/V1_MQTT_OK/GD32VW55X_Wifi_BLE_SDK/GD32VW55x_RELEASE_V1.0.2/MSDK/cloud/alicloud/src/infra/utils/misc\utils_httpc.c **** #define HTTPCLIENT_RAED_HEAD_SIZE 320           /* read header */
  22:C:/Users/stapi/OneDrive/Desktop/GD32VW553/V1_MQTT_OK/GD32VW55X_Wifi_BLE_SDK/GD32VW55x_RELEASE_V1.0.2/MSDK/cloud/alicloud/src/infra/utils/misc\utils_httpc.c **** #define HTTPCLIENT_DEFAULT_TIMEOUT 100
  23:C:/Users/stapi/OneDrive/Desktop/GD32VW553/V1_MQTT_OK/GD32VW55X_Wifi_BLE_SDK/GD32VW55x_RELEASE_V1.0.2/MSDK/cloud/alicloud/src/infra/utils/misc\utils_httpc.c **** #else
  24:C:/Users/stapi/OneDrive/Desktop/GD32VW553/V1_MQTT_OK/GD32VW55X_Wifi_BLE_SDK/GD32VW55x_RELEASE_V1.0.2/MSDK/cloud/alicloud/src/infra/utils/misc\utils_httpc.c **** #define HTTPCLIENT_CHUNK_SIZE     1024          /* read payload */
  25:C:/Users/stapi/OneDrive/Desktop/GD32VW553/V1_MQTT_OK/GD32VW55X_Wifi_BLE_SDK/GD32VW55x_RELEASE_V1.0.2/MSDK/cloud/alicloud/src/infra/utils/misc\utils_httpc.c **** #define HTTPCLIENT_RAED_HEAD_SIZE 32            /* read header */
  26:C:/Users/stapi/OneDrive/Desktop/GD32VW553/V1_MQTT_OK/GD32VW55X_Wifi_BLE_SDK/GD32VW55x_RELEASE_V1.0.2/MSDK/cloud/alicloud/src/infra/utils/misc\utils_httpc.c **** #endif
  27:C:/Users/stapi/OneDrive/Desktop/GD32VW553/V1_MQTT_OK/GD32VW55X_Wifi_BLE_SDK/GD32VW55x_RELEASE_V1.0.2/MSDK/cloud/alicloud/src/infra/utils/misc\utils_httpc.c **** #define HTTPCLIENT_SEND_BUF_SIZE  1024          /* send */
  28:C:/Users/stapi/OneDrive/Desktop/GD32VW553/V1_MQTT_OK/GD32VW55X_Wifi_BLE_SDK/GD32VW55x_RELEASE_V1.0.2/MSDK/cloud/alicloud/src/infra/utils/misc\utils_httpc.c **** 
  29:C:/Users/stapi/OneDrive/Desktop/GD32VW553/V1_MQTT_OK/GD32VW55X_Wifi_BLE_SDK/GD32VW55x_RELEASE_V1.0.2/MSDK/cloud/alicloud/src/infra/utils/misc\utils_httpc.c **** #define HTTPCLIENT_MAX_HOST_LEN   128
  30:C:/Users/stapi/OneDrive/Desktop/GD32VW553/V1_MQTT_OK/GD32VW55X_Wifi_BLE_SDK/GD32VW55x_RELEASE_V1.0.2/MSDK/cloud/alicloud/src/infra/utils/misc\utils_httpc.c **** #define HTTPCLIENT_MAX_URL_LEN    1024
  31:C:/Users/stapi/OneDrive/Desktop/GD32VW553/V1_MQTT_OK/GD32VW55X_Wifi_BLE_SDK/GD32VW55x_RELEASE_V1.0.2/MSDK/cloud/alicloud/src/infra/utils/misc\utils_httpc.c **** 
  32:C:/Users/stapi/OneDrive/Desktop/GD32VW553/V1_MQTT_OK/GD32VW55X_Wifi_BLE_SDK/GD32VW55x_RELEASE_V1.0.2/MSDK/cloud/alicloud/src/infra/utils/misc\utils_httpc.c **** #define HTTP_RETRIEVE_MORE_DATA   (1)            /**< More data needs to be retrieved. */
  33:C:/Users/stapi/OneDrive/Desktop/GD32VW553/V1_MQTT_OK/GD32VW55X_Wifi_BLE_SDK/GD32VW55x_RELEASE_V1.0.2/MSDK/cloud/alicloud/src/infra/utils/misc\utils_httpc.c **** 
  34:C:/Users/stapi/OneDrive/Desktop/GD32VW553/V1_MQTT_OK/GD32VW55X_Wifi_BLE_SDK/GD32VW55x_RELEASE_V1.0.2/MSDK/cloud/alicloud/src/infra/utils/misc\utils_httpc.c **** #if defined(MBEDTLS_DEBUG_C)
  35:C:/Users/stapi/OneDrive/Desktop/GD32VW553/V1_MQTT_OK/GD32VW55X_Wifi_BLE_SDK/GD32VW55x_RELEASE_V1.0.2/MSDK/cloud/alicloud/src/infra/utils/misc\utils_httpc.c ****     #define DEBUG_LEVEL 2
  36:C:/Users/stapi/OneDrive/Desktop/GD32VW553/V1_MQTT_OK/GD32VW55X_Wifi_BLE_SDK/GD32VW55x_RELEASE_V1.0.2/MSDK/cloud/alicloud/src/infra/utils/misc\utils_httpc.c **** #endif
  37:C:/Users/stapi/OneDrive/Desktop/GD32VW553/V1_MQTT_OK/GD32VW55X_Wifi_BLE_SDK/GD32VW55x_RELEASE_V1.0.2/MSDK/cloud/alicloud/src/infra/utils/misc\utils_httpc.c **** 
  38:C:/Users/stapi/OneDrive/Desktop/GD32VW553/V1_MQTT_OK/GD32VW55X_Wifi_BLE_SDK/GD32VW55x_RELEASE_V1.0.2/MSDK/cloud/alicloud/src/infra/utils/misc\utils_httpc.c **** #define httpc_malloc(size)            LITE_malloc(size, MEM_MAGIC, "httpc")
  39:C:/Users/stapi/OneDrive/Desktop/GD32VW553/V1_MQTT_OK/GD32VW55X_Wifi_BLE_SDK/GD32VW55x_RELEASE_V1.0.2/MSDK/cloud/alicloud/src/infra/utils/misc\utils_httpc.c **** #define httpc_free                    LITE_free
  40:C:/Users/stapi/OneDrive/Desktop/GD32VW553/V1_MQTT_OK/GD32VW55X_Wifi_BLE_SDK/GD32VW55x_RELEASE_V1.0.2/MSDK/cloud/alicloud/src/infra/utils/misc\utils_httpc.c **** 
  41:C:/Users/stapi/OneDrive/Desktop/GD32VW553/V1_MQTT_OK/GD32VW55X_Wifi_BLE_SDK/GD32VW55x_RELEASE_V1.0.2/MSDK/cloud/alicloud/src/infra/utils/misc\utils_httpc.c **** static int httpclient_parse_host(const char *url, char *host, uint32_t maxhost_len);
  42:C:/Users/stapi/OneDrive/Desktop/GD32VW553/V1_MQTT_OK/GD32VW55X_Wifi_BLE_SDK/GD32VW55x_RELEASE_V1.0.2/MSDK/cloud/alicloud/src/infra/utils/misc\utils_httpc.c **** static int httpclient_parse_url(const char *url, char *scheme, uint32_t max_scheme_len, char *host,
  43:C:/Users/stapi/OneDrive/Desktop/GD32VW553/V1_MQTT_OK/GD32VW55X_Wifi_BLE_SDK/GD32VW55x_RELEASE_V1.0.2/MSDK/cloud/alicloud/src/infra/utils/misc\utils_httpc.c ****                                 uint32_t maxhost_len, int *port, char *path, uint32_t max_path_len)
  44:C:/Users/stapi/OneDrive/Desktop/GD32VW553/V1_MQTT_OK/GD32VW55X_Wifi_BLE_SDK/GD32VW55x_RELEASE_V1.0.2/MSDK/cloud/alicloud/src/infra/utils/misc\utils_httpc.c **** static int httpclient_conn(httpclient_t *client);
  45:C:/Users/stapi/OneDrive/Desktop/GD32VW553/V1_MQTT_OK/GD32VW55X_Wifi_BLE_SDK/GD32VW55x_RELEASE_V1.0.2/MSDK/cloud/alicloud/src/infra/utils/misc\utils_httpc.c **** static int httpclient_recv(httpclient_t *client, char *buf, int min_len, int max_len, int *p_read_l
  46:C:/Users/stapi/OneDrive/Desktop/GD32VW553/V1_MQTT_OK/GD32VW55X_Wifi_BLE_SDK/GD32VW55x_RELEASE_V1.0.2/MSDK/cloud/alicloud/src/infra/utils/misc\utils_httpc.c ****                            uint32_t timeout);
  47:C:/Users/stapi/OneDrive/Desktop/GD32VW553/V1_MQTT_OK/GD32VW55X_Wifi_BLE_SDK/GD32VW55x_RELEASE_V1.0.2/MSDK/cloud/alicloud/src/infra/utils/misc\utils_httpc.c **** static int httpclient_retrieve_content(httpclient_t *client, char *data, int len, uint32_t timeout,
  48:C:/Users/stapi/OneDrive/Desktop/GD32VW553/V1_MQTT_OK/GD32VW55X_Wifi_BLE_SDK/GD32VW55x_RELEASE_V1.0.2/MSDK/cloud/alicloud/src/infra/utils/misc\utils_httpc.c ****                                        httpclient_data_t *client_data);
  49:C:/Users/stapi/OneDrive/Desktop/GD32VW553/V1_MQTT_OK/GD32VW55X_Wifi_BLE_SDK/GD32VW55x_RELEASE_V1.0.2/MSDK/cloud/alicloud/src/infra/utils/misc\utils_httpc.c **** static int httpclient_response_parse(httpclient_t *client, char *data, int len, uint32_t timeout,
  50:C:/Users/stapi/OneDrive/Desktop/GD32VW553/V1_MQTT_OK/GD32VW55X_Wifi_BLE_SDK/GD32VW55x_RELEASE_V1.0.2/MSDK/cloud/alicloud/src/infra/utils/misc\utils_httpc.c ****                                      httpclient_data_t *client_data);
  51:C:/Users/stapi/OneDrive/Desktop/GD32VW553/V1_MQTT_OK/GD32VW55X_Wifi_BLE_SDK/GD32VW55x_RELEASE_V1.0.2/MSDK/cloud/alicloud/src/infra/utils/misc\utils_httpc.c **** 
  52:C:/Users/stapi/OneDrive/Desktop/GD32VW553/V1_MQTT_OK/GD32VW55X_Wifi_BLE_SDK/GD32VW55x_RELEASE_V1.0.2/MSDK/cloud/alicloud/src/infra/utils/misc\utils_httpc.c **** static void httpclient_base64enc(char *out, const char *in)
  53:C:/Users/stapi/OneDrive/Desktop/GD32VW553/V1_MQTT_OK/GD32VW55X_Wifi_BLE_SDK/GD32VW55x_RELEASE_V1.0.2/MSDK/cloud/alicloud/src/infra/utils/misc\utils_httpc.c **** {
  54:C:/Users/stapi/OneDrive/Desktop/GD32VW553/V1_MQTT_OK/GD32VW55X_Wifi_BLE_SDK/GD32VW55x_RELEASE_V1.0.2/MSDK/cloud/alicloud/src/infra/utils/misc\utils_httpc.c ****     const char code[] = "ABCDEFGHIJKLMNOPQRSTUVWXYZabcdefghijklmnopqrstuvwxyz0123456789+/=";
  55:C:/Users/stapi/OneDrive/Desktop/GD32VW553/V1_MQTT_OK/GD32VW55X_Wifi_BLE_SDK/GD32VW55x_RELEASE_V1.0.2/MSDK/cloud/alicloud/src/infra/utils/misc\utils_httpc.c ****     int i = 0, x = 0, l = 0;
  56:C:/Users/stapi/OneDrive/Desktop/GD32VW553/V1_MQTT_OK/GD32VW55X_Wifi_BLE_SDK/GD32VW55x_RELEASE_V1.0.2/MSDK/cloud/alicloud/src/infra/utils/misc\utils_httpc.c **** 
  57:C:/Users/stapi/OneDrive/Desktop/GD32VW553/V1_MQTT_OK/GD32VW55X_Wifi_BLE_SDK/GD32VW55x_RELEASE_V1.0.2/MSDK/cloud/alicloud/src/infra/utils/misc\utils_httpc.c ****     for (; *in; in++) {
  58:C:/Users/stapi/OneDrive/Desktop/GD32VW553/V1_MQTT_OK/GD32VW55X_Wifi_BLE_SDK/GD32VW55x_RELEASE_V1.0.2/MSDK/cloud/alicloud/src/infra/utils/misc\utils_httpc.c ****         x = x << 8 | *in;
  59:C:/Users/stapi/OneDrive/Desktop/GD32VW553/V1_MQTT_OK/GD32VW55X_Wifi_BLE_SDK/GD32VW55x_RELEASE_V1.0.2/MSDK/cloud/alicloud/src/infra/utils/misc\utils_httpc.c ****         for (l += 8; l >= 6; l -= 6) {
  60:C:/Users/stapi/OneDrive/Desktop/GD32VW553/V1_MQTT_OK/GD32VW55X_Wifi_BLE_SDK/GD32VW55x_RELEASE_V1.0.2/MSDK/cloud/alicloud/src/infra/utils/misc\utils_httpc.c ****             out[i++] = code[(x >> (l - 6)) & 0x3f];
  61:C:/Users/stapi/OneDrive/Desktop/GD32VW553/V1_MQTT_OK/GD32VW55X_Wifi_BLE_SDK/GD32VW55x_RELEASE_V1.0.2/MSDK/cloud/alicloud/src/infra/utils/misc\utils_httpc.c ****         }
  62:C:/Users/stapi/OneDrive/Desktop/GD32VW553/V1_MQTT_OK/GD32VW55X_Wifi_BLE_SDK/GD32VW55x_RELEASE_V1.0.2/MSDK/cloud/alicloud/src/infra/utils/misc\utils_httpc.c ****     }
  63:C:/Users/stapi/OneDrive/Desktop/GD32VW553/V1_MQTT_OK/GD32VW55X_Wifi_BLE_SDK/GD32VW55x_RELEASE_V1.0.2/MSDK/cloud/alicloud/src/infra/utils/misc\utils_httpc.c ****     if (l > 0) {
  64:C:/Users/stapi/OneDrive/Desktop/GD32VW553/V1_MQTT_OK/GD32VW55X_Wifi_BLE_SDK/GD32VW55x_RELEASE_V1.0.2/MSDK/cloud/alicloud/src/infra/utils/misc\utils_httpc.c ****         x <<= 6 - l;
  65:C:/Users/stapi/OneDrive/Desktop/GD32VW553/V1_MQTT_OK/GD32VW55X_Wifi_BLE_SDK/GD32VW55x_RELEASE_V1.0.2/MSDK/cloud/alicloud/src/infra/utils/misc\utils_httpc.c ****         out[i++] = code[x & 0x3f];
  66:C:/Users/stapi/OneDrive/Desktop/GD32VW553/V1_MQTT_OK/GD32VW55X_Wifi_BLE_SDK/GD32VW55x_RELEASE_V1.0.2/MSDK/cloud/alicloud/src/infra/utils/misc\utils_httpc.c ****     }
  67:C:/Users/stapi/OneDrive/Desktop/GD32VW553/V1_MQTT_OK/GD32VW55X_Wifi_BLE_SDK/GD32VW55x_RELEASE_V1.0.2/MSDK/cloud/alicloud/src/infra/utils/misc\utils_httpc.c ****     for (; i % 4;) {
  68:C:/Users/stapi/OneDrive/Desktop/GD32VW553/V1_MQTT_OK/GD32VW55X_Wifi_BLE_SDK/GD32VW55x_RELEASE_V1.0.2/MSDK/cloud/alicloud/src/infra/utils/misc\utils_httpc.c ****         out[i++] = '=';
  69:C:/Users/stapi/OneDrive/Desktop/GD32VW553/V1_MQTT_OK/GD32VW55X_Wifi_BLE_SDK/GD32VW55x_RELEASE_V1.0.2/MSDK/cloud/alicloud/src/infra/utils/misc\utils_httpc.c ****     }
  70:C:/Users/stapi/OneDrive/Desktop/GD32VW553/V1_MQTT_OK/GD32VW55X_Wifi_BLE_SDK/GD32VW55x_RELEASE_V1.0.2/MSDK/cloud/alicloud/src/infra/utils/misc\utils_httpc.c ****     out[i] = '\0';
  71:C:/Users/stapi/OneDrive/Desktop/GD32VW553/V1_MQTT_OK/GD32VW55X_Wifi_BLE_SDK/GD32VW55x_RELEASE_V1.0.2/MSDK/cloud/alicloud/src/infra/utils/misc\utils_httpc.c **** }
  72:C:/Users/stapi/OneDrive/Desktop/GD32VW553/V1_MQTT_OK/GD32VW55X_Wifi_BLE_SDK/GD32VW55x_RELEASE_V1.0.2/MSDK/cloud/alicloud/src/infra/utils/misc\utils_httpc.c **** 
  73:C:/Users/stapi/OneDrive/Desktop/GD32VW553/V1_MQTT_OK/GD32VW55X_Wifi_BLE_SDK/GD32VW55x_RELEASE_V1.0.2/MSDK/cloud/alicloud/src/infra/utils/misc\utils_httpc.c **** int httpclient_conn(httpclient_t *client)
  74:C:/Users/stapi/OneDrive/Desktop/GD32VW553/V1_MQTT_OK/GD32VW55X_Wifi_BLE_SDK/GD32VW55x_RELEASE_V1.0.2/MSDK/cloud/alicloud/src/infra/utils/misc\utils_httpc.c **** {
  75:C:/Users/stapi/OneDrive/Desktop/GD32VW553/V1_MQTT_OK/GD32VW55X_Wifi_BLE_SDK/GD32VW55x_RELEASE_V1.0.2/MSDK/cloud/alicloud/src/infra/utils/misc\utils_httpc.c ****     if (0 != client->net.connect(&client->net)) {
  76:C:/Users/stapi/OneDrive/Desktop/GD32VW553/V1_MQTT_OK/GD32VW55X_Wifi_BLE_SDK/GD32VW55x_RELEASE_V1.0.2/MSDK/cloud/alicloud/src/infra/utils/misc\utils_httpc.c ****         utils_err("httpclient_conn fail");
  77:C:/Users/stapi/OneDrive/Desktop/GD32VW553/V1_MQTT_OK/GD32VW55X_Wifi_BLE_SDK/GD32VW55x_RELEASE_V1.0.2/MSDK/cloud/alicloud/src/infra/utils/misc\utils_httpc.c ****         return ERROR_HTTP_CONN;
  78:C:/Users/stapi/OneDrive/Desktop/GD32VW553/V1_MQTT_OK/GD32VW55X_Wifi_BLE_SDK/GD32VW55x_RELEASE_V1.0.2/MSDK/cloud/alicloud/src/infra/utils/misc\utils_httpc.c ****     }
  79:C:/Users/stapi/OneDrive/Desktop/GD32VW553/V1_MQTT_OK/GD32VW55X_Wifi_BLE_SDK/GD32VW55x_RELEASE_V1.0.2/MSDK/cloud/alicloud/src/infra/utils/misc\utils_httpc.c **** 
  80:C:/Users/stapi/OneDrive/Desktop/GD32VW553/V1_MQTT_OK/GD32VW55X_Wifi_BLE_SDK/GD32VW55x_RELEASE_V1.0.2/MSDK/cloud/alicloud/src/infra/utils/misc\utils_httpc.c ****     return SUCCESS_RETURN;
  81:C:/Users/stapi/OneDrive/Desktop/GD32VW553/V1_MQTT_OK/GD32VW55X_Wifi_BLE_SDK/GD32VW55x_RELEASE_V1.0.2/MSDK/cloud/alicloud/src/infra/utils/misc\utils_httpc.c **** }
  82:C:/Users/stapi/OneDrive/Desktop/GD32VW553/V1_MQTT_OK/GD32VW55X_Wifi_BLE_SDK/GD32VW55x_RELEASE_V1.0.2/MSDK/cloud/alicloud/src/infra/utils/misc\utils_httpc.c **** 
  83:C:/Users/stapi/OneDrive/Desktop/GD32VW553/V1_MQTT_OK/GD32VW55X_Wifi_BLE_SDK/GD32VW55x_RELEASE_V1.0.2/MSDK/cloud/alicloud/src/infra/utils/misc\utils_httpc.c **** int httpclient_parse_url(const char *url, char *scheme, uint32_t max_scheme_len, char *host, uint32
  84:C:/Users/stapi/OneDrive/Desktop/GD32VW553/V1_MQTT_OK/GD32VW55X_Wifi_BLE_SDK/GD32VW55x_RELEASE_V1.0.2/MSDK/cloud/alicloud/src/infra/utils/misc\utils_httpc.c ****                          int *port, char *path, uint32_t max_path_len)
  85:C:/Users/stapi/OneDrive/Desktop/GD32VW553/V1_MQTT_OK/GD32VW55X_Wifi_BLE_SDK/GD32VW55x_RELEASE_V1.0.2/MSDK/cloud/alicloud/src/infra/utils/misc\utils_httpc.c **** {
  86:C:/Users/stapi/OneDrive/Desktop/GD32VW553/V1_MQTT_OK/GD32VW55X_Wifi_BLE_SDK/GD32VW55x_RELEASE_V1.0.2/MSDK/cloud/alicloud/src/infra/utils/misc\utils_httpc.c ****     char *scheme_ptr = (char *) url;
  87:C:/Users/stapi/OneDrive/Desktop/GD32VW553/V1_MQTT_OK/GD32VW55X_Wifi_BLE_SDK/GD32VW55x_RELEASE_V1.0.2/MSDK/cloud/alicloud/src/infra/utils/misc\utils_httpc.c ****     char *host_ptr = (char *) strstr(url, "://");
  88:C:/Users/stapi/OneDrive/Desktop/GD32VW553/V1_MQTT_OK/GD32VW55X_Wifi_BLE_SDK/GD32VW55x_RELEASE_V1.0.2/MSDK/cloud/alicloud/src/infra/utils/misc\utils_httpc.c ****     uint32_t host_len = 0;
  89:C:/Users/stapi/OneDrive/Desktop/GD32VW553/V1_MQTT_OK/GD32VW55X_Wifi_BLE_SDK/GD32VW55x_RELEASE_V1.0.2/MSDK/cloud/alicloud/src/infra/utils/misc\utils_httpc.c ****     uint32_t path_len;
  90:C:/Users/stapi/OneDrive/Desktop/GD32VW553/V1_MQTT_OK/GD32VW55X_Wifi_BLE_SDK/GD32VW55x_RELEASE_V1.0.2/MSDK/cloud/alicloud/src/infra/utils/misc\utils_httpc.c ****     /* char *port_ptr; */
  91:C:/Users/stapi/OneDrive/Desktop/GD32VW553/V1_MQTT_OK/GD32VW55X_Wifi_BLE_SDK/GD32VW55x_RELEASE_V1.0.2/MSDK/cloud/alicloud/src/infra/utils/misc\utils_httpc.c ****     char *path_ptr;
  92:C:/Users/stapi/OneDrive/Desktop/GD32VW553/V1_MQTT_OK/GD32VW55X_Wifi_BLE_SDK/GD32VW55x_RELEASE_V1.0.2/MSDK/cloud/alicloud/src/infra/utils/misc\utils_httpc.c ****     char *fragment_ptr;
  93:C:/Users/stapi/OneDrive/Desktop/GD32VW553/V1_MQTT_OK/GD32VW55X_Wifi_BLE_SDK/GD32VW55x_RELEASE_V1.0.2/MSDK/cloud/alicloud/src/infra/utils/misc\utils_httpc.c **** 
  94:C:/Users/stapi/OneDrive/Desktop/GD32VW553/V1_MQTT_OK/GD32VW55X_Wifi_BLE_SDK/GD32VW55x_RELEASE_V1.0.2/MSDK/cloud/alicloud/src/infra/utils/misc\utils_httpc.c ****     if (host_ptr == NULL) {
  95:C:/Users/stapi/OneDrive/Desktop/GD32VW553/V1_MQTT_OK/GD32VW55X_Wifi_BLE_SDK/GD32VW55x_RELEASE_V1.0.2/MSDK/cloud/alicloud/src/infra/utils/misc\utils_httpc.c ****         utils_err("Could not find host");
  96:C:/Users/stapi/OneDrive/Desktop/GD32VW553/V1_MQTT_OK/GD32VW55X_Wifi_BLE_SDK/GD32VW55x_RELEASE_V1.0.2/MSDK/cloud/alicloud/src/infra/utils/misc\utils_httpc.c ****         return ERROR_HTTP_PARSE; /* URL is invalid */
  97:C:/Users/stapi/OneDrive/Desktop/GD32VW553/V1_MQTT_OK/GD32VW55X_Wifi_BLE_SDK/GD32VW55x_RELEASE_V1.0.2/MSDK/cloud/alicloud/src/infra/utils/misc\utils_httpc.c ****     }
  98:C:/Users/stapi/OneDrive/Desktop/GD32VW553/V1_MQTT_OK/GD32VW55X_Wifi_BLE_SDK/GD32VW55x_RELEASE_V1.0.2/MSDK/cloud/alicloud/src/infra/utils/misc\utils_httpc.c **** 
  99:C:/Users/stapi/OneDrive/Desktop/GD32VW553/V1_MQTT_OK/GD32VW55X_Wifi_BLE_SDK/GD32VW55x_RELEASE_V1.0.2/MSDK/cloud/alicloud/src/infra/utils/misc\utils_httpc.c ****     if (max_scheme_len < host_ptr - scheme_ptr + 1) {
 100:C:/Users/stapi/OneDrive/Desktop/GD32VW553/V1_MQTT_OK/GD32VW55X_Wifi_BLE_SDK/GD32VW55x_RELEASE_V1.0.2/MSDK/cloud/alicloud/src/infra/utils/misc\utils_httpc.c ****         /* including NULL-terminating char */
 101:C:/Users/stapi/OneDrive/Desktop/GD32VW553/V1_MQTT_OK/GD32VW55X_Wifi_BLE_SDK/GD32VW55x_RELEASE_V1.0.2/MSDK/cloud/alicloud/src/infra/utils/misc\utils_httpc.c ****         utils_err("Scheme str is too small (%u >= %u)", max_scheme_len, (uint32_t)(host_ptr - schem
 102:C:/Users/stapi/OneDrive/Desktop/GD32VW553/V1_MQTT_OK/GD32VW55X_Wifi_BLE_SDK/GD32VW55x_RELEASE_V1.0.2/MSDK/cloud/alicloud/src/infra/utils/misc\utils_httpc.c ****         return ERROR_HTTP_PARSE;
 103:C:/Users/stapi/OneDrive/Desktop/GD32VW553/V1_MQTT_OK/GD32VW55X_Wifi_BLE_SDK/GD32VW55x_RELEASE_V1.0.2/MSDK/cloud/alicloud/src/infra/utils/misc\utils_httpc.c ****     }
 104:C:/Users/stapi/OneDrive/Desktop/GD32VW553/V1_MQTT_OK/GD32VW55X_Wifi_BLE_SDK/GD32VW55x_RELEASE_V1.0.2/MSDK/cloud/alicloud/src/infra/utils/misc\utils_httpc.c ****     memcpy(scheme, scheme_ptr, host_ptr - scheme_ptr);
 105:C:/Users/stapi/OneDrive/Desktop/GD32VW553/V1_MQTT_OK/GD32VW55X_Wifi_BLE_SDK/GD32VW55x_RELEASE_V1.0.2/MSDK/cloud/alicloud/src/infra/utils/misc\utils_httpc.c ****     scheme[host_ptr - scheme_ptr] = '\0';
 106:C:/Users/stapi/OneDrive/Desktop/GD32VW553/V1_MQTT_OK/GD32VW55X_Wifi_BLE_SDK/GD32VW55x_RELEASE_V1.0.2/MSDK/cloud/alicloud/src/infra/utils/misc\utils_httpc.c **** 
 107:C:/Users/stapi/OneDrive/Desktop/GD32VW553/V1_MQTT_OK/GD32VW55X_Wifi_BLE_SDK/GD32VW55x_RELEASE_V1.0.2/MSDK/cloud/alicloud/src/infra/utils/misc\utils_httpc.c ****     host_ptr += 3;
 108:C:/Users/stapi/OneDrive/Desktop/GD32VW553/V1_MQTT_OK/GD32VW55X_Wifi_BLE_SDK/GD32VW55x_RELEASE_V1.0.2/MSDK/cloud/alicloud/src/infra/utils/misc\utils_httpc.c **** 
 109:C:/Users/stapi/OneDrive/Desktop/GD32VW553/V1_MQTT_OK/GD32VW55X_Wifi_BLE_SDK/GD32VW55x_RELEASE_V1.0.2/MSDK/cloud/alicloud/src/infra/utils/misc\utils_httpc.c ****     *port = 0;
 110:C:/Users/stapi/OneDrive/Desktop/GD32VW553/V1_MQTT_OK/GD32VW55X_Wifi_BLE_SDK/GD32VW55x_RELEASE_V1.0.2/MSDK/cloud/alicloud/src/infra/utils/misc\utils_httpc.c **** 
 111:C:/Users/stapi/OneDrive/Desktop/GD32VW553/V1_MQTT_OK/GD32VW55X_Wifi_BLE_SDK/GD32VW55x_RELEASE_V1.0.2/MSDK/cloud/alicloud/src/infra/utils/misc\utils_httpc.c ****     path_ptr = strchr(host_ptr, '/');
 112:C:/Users/stapi/OneDrive/Desktop/GD32VW553/V1_MQTT_OK/GD32VW55X_Wifi_BLE_SDK/GD32VW55x_RELEASE_V1.0.2/MSDK/cloud/alicloud/src/infra/utils/misc\utils_httpc.c ****     if (NULL == path_ptr) {
 113:C:/Users/stapi/OneDrive/Desktop/GD32VW553/V1_MQTT_OK/GD32VW55X_Wifi_BLE_SDK/GD32VW55x_RELEASE_V1.0.2/MSDK/cloud/alicloud/src/infra/utils/misc\utils_httpc.c ****         utils_err("invalid path");
 114:C:/Users/stapi/OneDrive/Desktop/GD32VW553/V1_MQTT_OK/GD32VW55X_Wifi_BLE_SDK/GD32VW55x_RELEASE_V1.0.2/MSDK/cloud/alicloud/src/infra/utils/misc\utils_httpc.c ****         return -1;
 115:C:/Users/stapi/OneDrive/Desktop/GD32VW553/V1_MQTT_OK/GD32VW55X_Wifi_BLE_SDK/GD32VW55x_RELEASE_V1.0.2/MSDK/cloud/alicloud/src/infra/utils/misc\utils_httpc.c ****     }
 116:C:/Users/stapi/OneDrive/Desktop/GD32VW553/V1_MQTT_OK/GD32VW55X_Wifi_BLE_SDK/GD32VW55x_RELEASE_V1.0.2/MSDK/cloud/alicloud/src/infra/utils/misc\utils_httpc.c **** 
 117:C:/Users/stapi/OneDrive/Desktop/GD32VW553/V1_MQTT_OK/GD32VW55X_Wifi_BLE_SDK/GD32VW55x_RELEASE_V1.0.2/MSDK/cloud/alicloud/src/infra/utils/misc\utils_httpc.c ****     if (host_len == 0) {
 118:C:/Users/stapi/OneDrive/Desktop/GD32VW553/V1_MQTT_OK/GD32VW55X_Wifi_BLE_SDK/GD32VW55x_RELEASE_V1.0.2/MSDK/cloud/alicloud/src/infra/utils/misc\utils_httpc.c ****         host_len = path_ptr - host_ptr;
 119:C:/Users/stapi/OneDrive/Desktop/GD32VW553/V1_MQTT_OK/GD32VW55X_Wifi_BLE_SDK/GD32VW55x_RELEASE_V1.0.2/MSDK/cloud/alicloud/src/infra/utils/misc\utils_httpc.c ****     }
 120:C:/Users/stapi/OneDrive/Desktop/GD32VW553/V1_MQTT_OK/GD32VW55X_Wifi_BLE_SDK/GD32VW55x_RELEASE_V1.0.2/MSDK/cloud/alicloud/src/infra/utils/misc\utils_httpc.c **** 
 121:C:/Users/stapi/OneDrive/Desktop/GD32VW553/V1_MQTT_OK/GD32VW55X_Wifi_BLE_SDK/GD32VW55x_RELEASE_V1.0.2/MSDK/cloud/alicloud/src/infra/utils/misc\utils_httpc.c ****     if (maxhost_len < host_len + 1) {
 122:C:/Users/stapi/OneDrive/Desktop/GD32VW553/V1_MQTT_OK/GD32VW55X_Wifi_BLE_SDK/GD32VW55x_RELEASE_V1.0.2/MSDK/cloud/alicloud/src/infra/utils/misc\utils_httpc.c ****         /* including NULL-terminating char */
 123:C:/Users/stapi/OneDrive/Desktop/GD32VW553/V1_MQTT_OK/GD32VW55X_Wifi_BLE_SDK/GD32VW55x_RELEASE_V1.0.2/MSDK/cloud/alicloud/src/infra/utils/misc\utils_httpc.c ****         utils_err("Host str is too long (host_len(%d) >= max_len(%d))", host_len + 1, maxhost_len);
 124:C:/Users/stapi/OneDrive/Desktop/GD32VW553/V1_MQTT_OK/GD32VW55X_Wifi_BLE_SDK/GD32VW55x_RELEASE_V1.0.2/MSDK/cloud/alicloud/src/infra/utils/misc\utils_httpc.c ****         return ERROR_HTTP_PARSE;
 125:C:/Users/stapi/OneDrive/Desktop/GD32VW553/V1_MQTT_OK/GD32VW55X_Wifi_BLE_SDK/GD32VW55x_RELEASE_V1.0.2/MSDK/cloud/alicloud/src/infra/utils/misc\utils_httpc.c ****     }
 126:C:/Users/stapi/OneDrive/Desktop/GD32VW553/V1_MQTT_OK/GD32VW55X_Wifi_BLE_SDK/GD32VW55x_RELEASE_V1.0.2/MSDK/cloud/alicloud/src/infra/utils/misc\utils_httpc.c ****     memcpy(host, host_ptr, host_len);
 127:C:/Users/stapi/OneDrive/Desktop/GD32VW553/V1_MQTT_OK/GD32VW55X_Wifi_BLE_SDK/GD32VW55x_RELEASE_V1.0.2/MSDK/cloud/alicloud/src/infra/utils/misc\utils_httpc.c ****     host[host_len] = '\0';
 128:C:/Users/stapi/OneDrive/Desktop/GD32VW553/V1_MQTT_OK/GD32VW55X_Wifi_BLE_SDK/GD32VW55x_RELEASE_V1.0.2/MSDK/cloud/alicloud/src/infra/utils/misc\utils_httpc.c **** 
 129:C:/Users/stapi/OneDrive/Desktop/GD32VW553/V1_MQTT_OK/GD32VW55X_Wifi_BLE_SDK/GD32VW55x_RELEASE_V1.0.2/MSDK/cloud/alicloud/src/infra/utils/misc\utils_httpc.c ****     fragment_ptr = strchr(host_ptr, '#');
 130:C:/Users/stapi/OneDrive/Desktop/GD32VW553/V1_MQTT_OK/GD32VW55X_Wifi_BLE_SDK/GD32VW55x_RELEASE_V1.0.2/MSDK/cloud/alicloud/src/infra/utils/misc\utils_httpc.c ****     if (fragment_ptr != NULL) {
 131:C:/Users/stapi/OneDrive/Desktop/GD32VW553/V1_MQTT_OK/GD32VW55X_Wifi_BLE_SDK/GD32VW55x_RELEASE_V1.0.2/MSDK/cloud/alicloud/src/infra/utils/misc\utils_httpc.c ****         path_len = fragment_ptr - path_ptr;
 132:C:/Users/stapi/OneDrive/Desktop/GD32VW553/V1_MQTT_OK/GD32VW55X_Wifi_BLE_SDK/GD32VW55x_RELEASE_V1.0.2/MSDK/cloud/alicloud/src/infra/utils/misc\utils_httpc.c ****     } else {
 133:C:/Users/stapi/OneDrive/Desktop/GD32VW553/V1_MQTT_OK/GD32VW55X_Wifi_BLE_SDK/GD32VW55x_RELEASE_V1.0.2/MSDK/cloud/alicloud/src/infra/utils/misc\utils_httpc.c ****         path_len = strlen(path_ptr);
 134:C:/Users/stapi/OneDrive/Desktop/GD32VW553/V1_MQTT_OK/GD32VW55X_Wifi_BLE_SDK/GD32VW55x_RELEASE_V1.0.2/MSDK/cloud/alicloud/src/infra/utils/misc\utils_httpc.c ****     }
 135:C:/Users/stapi/OneDrive/Desktop/GD32VW553/V1_MQTT_OK/GD32VW55X_Wifi_BLE_SDK/GD32VW55x_RELEASE_V1.0.2/MSDK/cloud/alicloud/src/infra/utils/misc\utils_httpc.c **** 
 136:C:/Users/stapi/OneDrive/Desktop/GD32VW553/V1_MQTT_OK/GD32VW55X_Wifi_BLE_SDK/GD32VW55x_RELEASE_V1.0.2/MSDK/cloud/alicloud/src/infra/utils/misc\utils_httpc.c ****     if (max_path_len < path_len + 1) {
 137:C:/Users/stapi/OneDrive/Desktop/GD32VW553/V1_MQTT_OK/GD32VW55X_Wifi_BLE_SDK/GD32VW55x_RELEASE_V1.0.2/MSDK/cloud/alicloud/src/infra/utils/misc\utils_httpc.c ****         /* including NULL-terminating char */
 138:C:/Users/stapi/OneDrive/Desktop/GD32VW553/V1_MQTT_OK/GD32VW55X_Wifi_BLE_SDK/GD32VW55x_RELEASE_V1.0.2/MSDK/cloud/alicloud/src/infra/utils/misc\utils_httpc.c ****         utils_err("Path str is too small (%d >= %d)", max_path_len, path_len + 1);
 139:C:/Users/stapi/OneDrive/Desktop/GD32VW553/V1_MQTT_OK/GD32VW55X_Wifi_BLE_SDK/GD32VW55x_RELEASE_V1.0.2/MSDK/cloud/alicloud/src/infra/utils/misc\utils_httpc.c ****         return ERROR_HTTP_PARSE;
 140:C:/Users/stapi/OneDrive/Desktop/GD32VW553/V1_MQTT_OK/GD32VW55X_Wifi_BLE_SDK/GD32VW55x_RELEASE_V1.0.2/MSDK/cloud/alicloud/src/infra/utils/misc\utils_httpc.c ****     }
 141:C:/Users/stapi/OneDrive/Desktop/GD32VW553/V1_MQTT_OK/GD32VW55X_Wifi_BLE_SDK/GD32VW55x_RELEASE_V1.0.2/MSDK/cloud/alicloud/src/infra/utils/misc\utils_httpc.c ****     memcpy(path, path_ptr, path_len);
 142:C:/Users/stapi/OneDrive/Desktop/GD32VW553/V1_MQTT_OK/GD32VW55X_Wifi_BLE_SDK/GD32VW55x_RELEASE_V1.0.2/MSDK/cloud/alicloud/src/infra/utils/misc\utils_httpc.c ****     path[path_len] = '\0';
 143:C:/Users/stapi/OneDrive/Desktop/GD32VW553/V1_MQTT_OK/GD32VW55X_Wifi_BLE_SDK/GD32VW55x_RELEASE_V1.0.2/MSDK/cloud/alicloud/src/infra/utils/misc\utils_httpc.c **** 
 144:C:/Users/stapi/OneDrive/Desktop/GD32VW553/V1_MQTT_OK/GD32VW55X_Wifi_BLE_SDK/GD32VW55x_RELEASE_V1.0.2/MSDK/cloud/alicloud/src/infra/utils/misc\utils_httpc.c ****     return SUCCESS_RETURN;
 145:C:/Users/stapi/OneDrive/Desktop/GD32VW553/V1_MQTT_OK/GD32VW55X_Wifi_BLE_SDK/GD32VW55x_RELEASE_V1.0.2/MSDK/cloud/alicloud/src/infra/utils/misc\utils_httpc.c **** }
 146:C:/Users/stapi/OneDrive/Desktop/GD32VW553/V1_MQTT_OK/GD32VW55X_Wifi_BLE_SDK/GD32VW55x_RELEASE_V1.0.2/MSDK/cloud/alicloud/src/infra/utils/misc\utils_httpc.c **** 
 147:C:/Users/stapi/OneDrive/Desktop/GD32VW553/V1_MQTT_OK/GD32VW55X_Wifi_BLE_SDK/GD32VW55x_RELEASE_V1.0.2/MSDK/cloud/alicloud/src/infra/utils/misc\utils_httpc.c **** int httpclient_parse_host(const char *url, char *host, uint32_t maxhost_len)
 148:C:/Users/stapi/OneDrive/Desktop/GD32VW553/V1_MQTT_OK/GD32VW55X_Wifi_BLE_SDK/GD32VW55x_RELEASE_V1.0.2/MSDK/cloud/alicloud/src/infra/utils/misc\utils_httpc.c **** {
 149:C:/Users/stapi/OneDrive/Desktop/GD32VW553/V1_MQTT_OK/GD32VW55X_Wifi_BLE_SDK/GD32VW55x_RELEASE_V1.0.2/MSDK/cloud/alicloud/src/infra/utils/misc\utils_httpc.c ****     const char *host_ptr = (const char *) strstr(url, "://");
 150:C:/Users/stapi/OneDrive/Desktop/GD32VW553/V1_MQTT_OK/GD32VW55X_Wifi_BLE_SDK/GD32VW55x_RELEASE_V1.0.2/MSDK/cloud/alicloud/src/infra/utils/misc\utils_httpc.c ****     uint32_t host_len = 0;
 151:C:/Users/stapi/OneDrive/Desktop/GD32VW553/V1_MQTT_OK/GD32VW55X_Wifi_BLE_SDK/GD32VW55x_RELEASE_V1.0.2/MSDK/cloud/alicloud/src/infra/utils/misc\utils_httpc.c ****     char *path_ptr;
 152:C:/Users/stapi/OneDrive/Desktop/GD32VW553/V1_MQTT_OK/GD32VW55X_Wifi_BLE_SDK/GD32VW55x_RELEASE_V1.0.2/MSDK/cloud/alicloud/src/infra/utils/misc\utils_httpc.c ****     char *port_ptr;
 153:C:/Users/stapi/OneDrive/Desktop/GD32VW553/V1_MQTT_OK/GD32VW55X_Wifi_BLE_SDK/GD32VW55x_RELEASE_V1.0.2/MSDK/cloud/alicloud/src/infra/utils/misc\utils_httpc.c **** 
 154:C:/Users/stapi/OneDrive/Desktop/GD32VW553/V1_MQTT_OK/GD32VW55X_Wifi_BLE_SDK/GD32VW55x_RELEASE_V1.0.2/MSDK/cloud/alicloud/src/infra/utils/misc\utils_httpc.c ****     if (host_ptr == NULL) {
 155:C:/Users/stapi/OneDrive/Desktop/GD32VW553/V1_MQTT_OK/GD32VW55X_Wifi_BLE_SDK/GD32VW55x_RELEASE_V1.0.2/MSDK/cloud/alicloud/src/infra/utils/misc\utils_httpc.c ****         utils_err("Could not find host");
 156:C:/Users/stapi/OneDrive/Desktop/GD32VW553/V1_MQTT_OK/GD32VW55X_Wifi_BLE_SDK/GD32VW55x_RELEASE_V1.0.2/MSDK/cloud/alicloud/src/infra/utils/misc\utils_httpc.c ****         return ERROR_HTTP_PARSE; /* URL is invalid */
 157:C:/Users/stapi/OneDrive/Desktop/GD32VW553/V1_MQTT_OK/GD32VW55X_Wifi_BLE_SDK/GD32VW55x_RELEASE_V1.0.2/MSDK/cloud/alicloud/src/infra/utils/misc\utils_httpc.c ****     }
 158:C:/Users/stapi/OneDrive/Desktop/GD32VW553/V1_MQTT_OK/GD32VW55X_Wifi_BLE_SDK/GD32VW55x_RELEASE_V1.0.2/MSDK/cloud/alicloud/src/infra/utils/misc\utils_httpc.c ****     host_ptr += 3;
 159:C:/Users/stapi/OneDrive/Desktop/GD32VW553/V1_MQTT_OK/GD32VW55X_Wifi_BLE_SDK/GD32VW55x_RELEASE_V1.0.2/MSDK/cloud/alicloud/src/infra/utils/misc\utils_httpc.c **** 
 160:C:/Users/stapi/OneDrive/Desktop/GD32VW553/V1_MQTT_OK/GD32VW55X_Wifi_BLE_SDK/GD32VW55x_RELEASE_V1.0.2/MSDK/cloud/alicloud/src/infra/utils/misc\utils_httpc.c ****     path_ptr = strchr(host_ptr, '/');
 161:C:/Users/stapi/OneDrive/Desktop/GD32VW553/V1_MQTT_OK/GD32VW55X_Wifi_BLE_SDK/GD32VW55x_RELEASE_V1.0.2/MSDK/cloud/alicloud/src/infra/utils/misc\utils_httpc.c ****     port_ptr = strchr(host_ptr, ':');
 162:C:/Users/stapi/OneDrive/Desktop/GD32VW553/V1_MQTT_OK/GD32VW55X_Wifi_BLE_SDK/GD32VW55x_RELEASE_V1.0.2/MSDK/cloud/alicloud/src/infra/utils/misc\utils_httpc.c ****     if (host_len == 0) {
 163:C:/Users/stapi/OneDrive/Desktop/GD32VW553/V1_MQTT_OK/GD32VW55X_Wifi_BLE_SDK/GD32VW55x_RELEASE_V1.0.2/MSDK/cloud/alicloud/src/infra/utils/misc\utils_httpc.c ****         if(port_ptr) {
 164:C:/Users/stapi/OneDrive/Desktop/GD32VW553/V1_MQTT_OK/GD32VW55X_Wifi_BLE_SDK/GD32VW55x_RELEASE_V1.0.2/MSDK/cloud/alicloud/src/infra/utils/misc\utils_httpc.c ****             host_len = port_ptr - host_ptr;
 165:C:/Users/stapi/OneDrive/Desktop/GD32VW553/V1_MQTT_OK/GD32VW55X_Wifi_BLE_SDK/GD32VW55x_RELEASE_V1.0.2/MSDK/cloud/alicloud/src/infra/utils/misc\utils_httpc.c ****         } else {
 166:C:/Users/stapi/OneDrive/Desktop/GD32VW553/V1_MQTT_OK/GD32VW55X_Wifi_BLE_SDK/GD32VW55x_RELEASE_V1.0.2/MSDK/cloud/alicloud/src/infra/utils/misc\utils_httpc.c ****             host_len = path_ptr - host_ptr;
 167:C:/Users/stapi/OneDrive/Desktop/GD32VW553/V1_MQTT_OK/GD32VW55X_Wifi_BLE_SDK/GD32VW55x_RELEASE_V1.0.2/MSDK/cloud/alicloud/src/infra/utils/misc\utils_httpc.c ****         }
 168:C:/Users/stapi/OneDrive/Desktop/GD32VW553/V1_MQTT_OK/GD32VW55X_Wifi_BLE_SDK/GD32VW55x_RELEASE_V1.0.2/MSDK/cloud/alicloud/src/infra/utils/misc\utils_httpc.c ****     }
 169:C:/Users/stapi/OneDrive/Desktop/GD32VW553/V1_MQTT_OK/GD32VW55X_Wifi_BLE_SDK/GD32VW55x_RELEASE_V1.0.2/MSDK/cloud/alicloud/src/infra/utils/misc\utils_httpc.c **** 
 170:C:/Users/stapi/OneDrive/Desktop/GD32VW553/V1_MQTT_OK/GD32VW55X_Wifi_BLE_SDK/GD32VW55x_RELEASE_V1.0.2/MSDK/cloud/alicloud/src/infra/utils/misc\utils_httpc.c ****     if (maxhost_len < host_len + 1) {
 171:C:/Users/stapi/OneDrive/Desktop/GD32VW553/V1_MQTT_OK/GD32VW55X_Wifi_BLE_SDK/GD32VW55x_RELEASE_V1.0.2/MSDK/cloud/alicloud/src/infra/utils/misc\utils_httpc.c ****         /* including NULL-terminating char */
 172:C:/Users/stapi/OneDrive/Desktop/GD32VW553/V1_MQTT_OK/GD32VW55X_Wifi_BLE_SDK/GD32VW55x_RELEASE_V1.0.2/MSDK/cloud/alicloud/src/infra/utils/misc\utils_httpc.c ****         utils_err("Host str is too small (%d >= %d)", maxhost_len, host_len + 1);
 173:C:/Users/stapi/OneDrive/Desktop/GD32VW553/V1_MQTT_OK/GD32VW55X_Wifi_BLE_SDK/GD32VW55x_RELEASE_V1.0.2/MSDK/cloud/alicloud/src/infra/utils/misc\utils_httpc.c ****         return ERROR_HTTP_PARSE;
 174:C:/Users/stapi/OneDrive/Desktop/GD32VW553/V1_MQTT_OK/GD32VW55X_Wifi_BLE_SDK/GD32VW55x_RELEASE_V1.0.2/MSDK/cloud/alicloud/src/infra/utils/misc\utils_httpc.c ****     }
 175:C:/Users/stapi/OneDrive/Desktop/GD32VW553/V1_MQTT_OK/GD32VW55X_Wifi_BLE_SDK/GD32VW55x_RELEASE_V1.0.2/MSDK/cloud/alicloud/src/infra/utils/misc\utils_httpc.c ****     memcpy(host, host_ptr, host_len);
 176:C:/Users/stapi/OneDrive/Desktop/GD32VW553/V1_MQTT_OK/GD32VW55X_Wifi_BLE_SDK/GD32VW55x_RELEASE_V1.0.2/MSDK/cloud/alicloud/src/infra/utils/misc\utils_httpc.c ****     host[host_len] = '\0';
 177:C:/Users/stapi/OneDrive/Desktop/GD32VW553/V1_MQTT_OK/GD32VW55X_Wifi_BLE_SDK/GD32VW55x_RELEASE_V1.0.2/MSDK/cloud/alicloud/src/infra/utils/misc\utils_httpc.c **** 
 178:C:/Users/stapi/OneDrive/Desktop/GD32VW553/V1_MQTT_OK/GD32VW55X_Wifi_BLE_SDK/GD32VW55x_RELEASE_V1.0.2/MSDK/cloud/alicloud/src/infra/utils/misc\utils_httpc.c ****     return SUCCESS_RETURN;
 179:C:/Users/stapi/OneDrive/Desktop/GD32VW553/V1_MQTT_OK/GD32VW55X_Wifi_BLE_SDK/GD32VW55x_RELEASE_V1.0.2/MSDK/cloud/alicloud/src/infra/utils/misc\utils_httpc.c **** }
 180:C:/Users/stapi/OneDrive/Desktop/GD32VW553/V1_MQTT_OK/GD32VW55X_Wifi_BLE_SDK/GD32VW55x_RELEASE_V1.0.2/MSDK/cloud/alicloud/src/infra/utils/misc\utils_httpc.c **** 
 181:C:/Users/stapi/OneDrive/Desktop/GD32VW553/V1_MQTT_OK/GD32VW55X_Wifi_BLE_SDK/GD32VW55x_RELEASE_V1.0.2/MSDK/cloud/alicloud/src/infra/utils/misc\utils_httpc.c **** int httpclient_get_info(httpclient_t *client, char *send_buf, int *send_idx, char *buf,
 182:C:/Users/stapi/OneDrive/Desktop/GD32VW553/V1_MQTT_OK/GD32VW55X_Wifi_BLE_SDK/GD32VW55x_RELEASE_V1.0.2/MSDK/cloud/alicloud/src/infra/utils/misc\utils_httpc.c ****                         uint32_t len) /* 0 on success, err code on failure */
 183:C:/Users/stapi/OneDrive/Desktop/GD32VW553/V1_MQTT_OK/GD32VW55X_Wifi_BLE_SDK/GD32VW55x_RELEASE_V1.0.2/MSDK/cloud/alicloud/src/infra/utils/misc\utils_httpc.c **** {
 184:C:/Users/stapi/OneDrive/Desktop/GD32VW553/V1_MQTT_OK/GD32VW55X_Wifi_BLE_SDK/GD32VW55x_RELEASE_V1.0.2/MSDK/cloud/alicloud/src/infra/utils/misc\utils_httpc.c ****     int ret;
 185:C:/Users/stapi/OneDrive/Desktop/GD32VW553/V1_MQTT_OK/GD32VW55X_Wifi_BLE_SDK/GD32VW55x_RELEASE_V1.0.2/MSDK/cloud/alicloud/src/infra/utils/misc\utils_httpc.c ****     int cp_len;
 186:C:/Users/stapi/OneDrive/Desktop/GD32VW553/V1_MQTT_OK/GD32VW55X_Wifi_BLE_SDK/GD32VW55x_RELEASE_V1.0.2/MSDK/cloud/alicloud/src/infra/utils/misc\utils_httpc.c ****     int idx = *send_idx;
 187:C:/Users/stapi/OneDrive/Desktop/GD32VW553/V1_MQTT_OK/GD32VW55X_Wifi_BLE_SDK/GD32VW55x_RELEASE_V1.0.2/MSDK/cloud/alicloud/src/infra/utils/misc\utils_httpc.c **** 
 188:C:/Users/stapi/OneDrive/Desktop/GD32VW553/V1_MQTT_OK/GD32VW55X_Wifi_BLE_SDK/GD32VW55x_RELEASE_V1.0.2/MSDK/cloud/alicloud/src/infra/utils/misc\utils_httpc.c ****     if (len == 0) {
 189:C:/Users/stapi/OneDrive/Desktop/GD32VW553/V1_MQTT_OK/GD32VW55X_Wifi_BLE_SDK/GD32VW55x_RELEASE_V1.0.2/MSDK/cloud/alicloud/src/infra/utils/misc\utils_httpc.c ****         len = strlen(buf);
 190:C:/Users/stapi/OneDrive/Desktop/GD32VW553/V1_MQTT_OK/GD32VW55X_Wifi_BLE_SDK/GD32VW55x_RELEASE_V1.0.2/MSDK/cloud/alicloud/src/infra/utils/misc\utils_httpc.c ****     }
 191:C:/Users/stapi/OneDrive/Desktop/GD32VW553/V1_MQTT_OK/GD32VW55X_Wifi_BLE_SDK/GD32VW55x_RELEASE_V1.0.2/MSDK/cloud/alicloud/src/infra/utils/misc\utils_httpc.c **** 
 192:C:/Users/stapi/OneDrive/Desktop/GD32VW553/V1_MQTT_OK/GD32VW55X_Wifi_BLE_SDK/GD32VW55x_RELEASE_V1.0.2/MSDK/cloud/alicloud/src/infra/utils/misc\utils_httpc.c ****     do {
 193:C:/Users/stapi/OneDrive/Desktop/GD32VW553/V1_MQTT_OK/GD32VW55X_Wifi_BLE_SDK/GD32VW55x_RELEASE_V1.0.2/MSDK/cloud/alicloud/src/infra/utils/misc\utils_httpc.c ****         if ((HTTPCLIENT_SEND_BUF_SIZE - idx) >= len) {
 194:C:/Users/stapi/OneDrive/Desktop/GD32VW553/V1_MQTT_OK/GD32VW55X_Wifi_BLE_SDK/GD32VW55x_RELEASE_V1.0.2/MSDK/cloud/alicloud/src/infra/utils/misc\utils_httpc.c ****             cp_len = len;
 195:C:/Users/stapi/OneDrive/Desktop/GD32VW553/V1_MQTT_OK/GD32VW55X_Wifi_BLE_SDK/GD32VW55x_RELEASE_V1.0.2/MSDK/cloud/alicloud/src/infra/utils/misc\utils_httpc.c ****         } else {
 196:C:/Users/stapi/OneDrive/Desktop/GD32VW553/V1_MQTT_OK/GD32VW55X_Wifi_BLE_SDK/GD32VW55x_RELEASE_V1.0.2/MSDK/cloud/alicloud/src/infra/utils/misc\utils_httpc.c ****             cp_len = HTTPCLIENT_SEND_BUF_SIZE - idx;
 197:C:/Users/stapi/OneDrive/Desktop/GD32VW553/V1_MQTT_OK/GD32VW55X_Wifi_BLE_SDK/GD32VW55x_RELEASE_V1.0.2/MSDK/cloud/alicloud/src/infra/utils/misc\utils_httpc.c ****         }
 198:C:/Users/stapi/OneDrive/Desktop/GD32VW553/V1_MQTT_OK/GD32VW55X_Wifi_BLE_SDK/GD32VW55x_RELEASE_V1.0.2/MSDK/cloud/alicloud/src/infra/utils/misc\utils_httpc.c **** 
 199:C:/Users/stapi/OneDrive/Desktop/GD32VW553/V1_MQTT_OK/GD32VW55X_Wifi_BLE_SDK/GD32VW55x_RELEASE_V1.0.2/MSDK/cloud/alicloud/src/infra/utils/misc\utils_httpc.c ****         memcpy(send_buf + idx, buf, cp_len);
 200:C:/Users/stapi/OneDrive/Desktop/GD32VW553/V1_MQTT_OK/GD32VW55X_Wifi_BLE_SDK/GD32VW55x_RELEASE_V1.0.2/MSDK/cloud/alicloud/src/infra/utils/misc\utils_httpc.c ****         idx += cp_len;
 201:C:/Users/stapi/OneDrive/Desktop/GD32VW553/V1_MQTT_OK/GD32VW55X_Wifi_BLE_SDK/GD32VW55x_RELEASE_V1.0.2/MSDK/cloud/alicloud/src/infra/utils/misc\utils_httpc.c ****         len -= cp_len;
 202:C:/Users/stapi/OneDrive/Desktop/GD32VW553/V1_MQTT_OK/GD32VW55X_Wifi_BLE_SDK/GD32VW55x_RELEASE_V1.0.2/MSDK/cloud/alicloud/src/infra/utils/misc\utils_httpc.c **** 
 203:C:/Users/stapi/OneDrive/Desktop/GD32VW553/V1_MQTT_OK/GD32VW55X_Wifi_BLE_SDK/GD32VW55x_RELEASE_V1.0.2/MSDK/cloud/alicloud/src/infra/utils/misc\utils_httpc.c ****         if (idx == HTTPCLIENT_SEND_BUF_SIZE) {
 204:C:/Users/stapi/OneDrive/Desktop/GD32VW553/V1_MQTT_OK/GD32VW55X_Wifi_BLE_SDK/GD32VW55x_RELEASE_V1.0.2/MSDK/cloud/alicloud/src/infra/utils/misc\utils_httpc.c ****             /*            if (client->remote_port == HTTPS_PORT) */
 205:C:/Users/stapi/OneDrive/Desktop/GD32VW553/V1_MQTT_OK/GD32VW55X_Wifi_BLE_SDK/GD32VW55x_RELEASE_V1.0.2/MSDK/cloud/alicloud/src/infra/utils/misc\utils_httpc.c ****             /*            { */
 206:C:/Users/stapi/OneDrive/Desktop/GD32VW553/V1_MQTT_OK/GD32VW55X_Wifi_BLE_SDK/GD32VW55x_RELEASE_V1.0.2/MSDK/cloud/alicloud/src/infra/utils/misc\utils_httpc.c ****             /*                WRITE_IOT_ERROR_LOG("send buffer overflow"); */
 207:C:/Users/stapi/OneDrive/Desktop/GD32VW553/V1_MQTT_OK/GD32VW55X_Wifi_BLE_SDK/GD32VW55x_RELEASE_V1.0.2/MSDK/cloud/alicloud/src/infra/utils/misc\utils_httpc.c ****             /*                return ERROR_HTTP; */
 208:C:/Users/stapi/OneDrive/Desktop/GD32VW553/V1_MQTT_OK/GD32VW55X_Wifi_BLE_SDK/GD32VW55x_RELEASE_V1.0.2/MSDK/cloud/alicloud/src/infra/utils/misc\utils_httpc.c ****             /*            } */
 209:C:/Users/stapi/OneDrive/Desktop/GD32VW553/V1_MQTT_OK/GD32VW55X_Wifi_BLE_SDK/GD32VW55x_RELEASE_V1.0.2/MSDK/cloud/alicloud/src/infra/utils/misc\utils_httpc.c ****             /* ret = httpclient_tcp_send_all(client->handle, send_buf, HTTPCLIENT_SEND_BUF_SIZE); *
 210:C:/Users/stapi/OneDrive/Desktop/GD32VW553/V1_MQTT_OK/GD32VW55X_Wifi_BLE_SDK/GD32VW55x_RELEASE_V1.0.2/MSDK/cloud/alicloud/src/infra/utils/misc\utils_httpc.c ****             ret = client->net.write(&client->net, send_buf, HTTPCLIENT_SEND_BUF_SIZE, 5000);
 211:C:/Users/stapi/OneDrive/Desktop/GD32VW553/V1_MQTT_OK/GD32VW55X_Wifi_BLE_SDK/GD32VW55x_RELEASE_V1.0.2/MSDK/cloud/alicloud/src/infra/utils/misc\utils_httpc.c ****             if (ret) {
 212:C:/Users/stapi/OneDrive/Desktop/GD32VW553/V1_MQTT_OK/GD32VW55X_Wifi_BLE_SDK/GD32VW55x_RELEASE_V1.0.2/MSDK/cloud/alicloud/src/infra/utils/misc\utils_httpc.c ****                 return (ret);
 213:C:/Users/stapi/OneDrive/Desktop/GD32VW553/V1_MQTT_OK/GD32VW55X_Wifi_BLE_SDK/GD32VW55x_RELEASE_V1.0.2/MSDK/cloud/alicloud/src/infra/utils/misc\utils_httpc.c ****             }
 214:C:/Users/stapi/OneDrive/Desktop/GD32VW553/V1_MQTT_OK/GD32VW55X_Wifi_BLE_SDK/GD32VW55x_RELEASE_V1.0.2/MSDK/cloud/alicloud/src/infra/utils/misc\utils_httpc.c ****         }
 215:C:/Users/stapi/OneDrive/Desktop/GD32VW553/V1_MQTT_OK/GD32VW55X_Wifi_BLE_SDK/GD32VW55x_RELEASE_V1.0.2/MSDK/cloud/alicloud/src/infra/utils/misc\utils_httpc.c ****     } while (len);
 216:C:/Users/stapi/OneDrive/Desktop/GD32VW553/V1_MQTT_OK/GD32VW55X_Wifi_BLE_SDK/GD32VW55x_RELEASE_V1.0.2/MSDK/cloud/alicloud/src/infra/utils/misc\utils_httpc.c **** 
 217:C:/Users/stapi/OneDrive/Desktop/GD32VW553/V1_MQTT_OK/GD32VW55X_Wifi_BLE_SDK/GD32VW55x_RELEASE_V1.0.2/MSDK/cloud/alicloud/src/infra/utils/misc\utils_httpc.c ****     *send_idx = idx;
 218:C:/Users/stapi/OneDrive/Desktop/GD32VW553/V1_MQTT_OK/GD32VW55X_Wifi_BLE_SDK/GD32VW55x_RELEASE_V1.0.2/MSDK/cloud/alicloud/src/infra/utils/misc\utils_httpc.c ****     return SUCCESS_RETURN;
 219:C:/Users/stapi/OneDrive/Desktop/GD32VW553/V1_MQTT_OK/GD32VW55X_Wifi_BLE_SDK/GD32VW55x_RELEASE_V1.0.2/MSDK/cloud/alicloud/src/infra/utils/misc\utils_httpc.c **** }
 220:C:/Users/stapi/OneDrive/Desktop/GD32VW553/V1_MQTT_OK/GD32VW55X_Wifi_BLE_SDK/GD32VW55x_RELEASE_V1.0.2/MSDK/cloud/alicloud/src/infra/utils/misc\utils_httpc.c **** 
 221:C:/Users/stapi/OneDrive/Desktop/GD32VW553/V1_MQTT_OK/GD32VW55X_Wifi_BLE_SDK/GD32VW55x_RELEASE_V1.0.2/MSDK/cloud/alicloud/src/infra/utils/misc\utils_httpc.c **** int httpclient_send_auth(httpclient_t *client, char *send_buf, int *send_idx)
 222:C:/Users/stapi/OneDrive/Desktop/GD32VW553/V1_MQTT_OK/GD32VW55X_Wifi_BLE_SDK/GD32VW55x_RELEASE_V1.0.2/MSDK/cloud/alicloud/src/infra/utils/misc\utils_httpc.c **** {
 223:C:/Users/stapi/OneDrive/Desktop/GD32VW553/V1_MQTT_OK/GD32VW55X_Wifi_BLE_SDK/GD32VW55x_RELEASE_V1.0.2/MSDK/cloud/alicloud/src/infra/utils/misc\utils_httpc.c ****     char b_auth[(int)((HTTPCLIENT_AUTHB_SIZE + 3) * 4 / 3 + 1)];
 224:C:/Users/stapi/OneDrive/Desktop/GD32VW553/V1_MQTT_OK/GD32VW55X_Wifi_BLE_SDK/GD32VW55x_RELEASE_V1.0.2/MSDK/cloud/alicloud/src/infra/utils/misc\utils_httpc.c ****     char base64buff[HTTPCLIENT_AUTHB_SIZE + 3];
 225:C:/Users/stapi/OneDrive/Desktop/GD32VW553/V1_MQTT_OK/GD32VW55X_Wifi_BLE_SDK/GD32VW55x_RELEASE_V1.0.2/MSDK/cloud/alicloud/src/infra/utils/misc\utils_httpc.c **** 
 226:C:/Users/stapi/OneDrive/Desktop/GD32VW553/V1_MQTT_OK/GD32VW55X_Wifi_BLE_SDK/GD32VW55x_RELEASE_V1.0.2/MSDK/cloud/alicloud/src/infra/utils/misc\utils_httpc.c ****     httpclient_get_info(client, send_buf, send_idx, "Authorization: Basic ", 0);
 227:C:/Users/stapi/OneDrive/Desktop/GD32VW553/V1_MQTT_OK/GD32VW55X_Wifi_BLE_SDK/GD32VW55x_RELEASE_V1.0.2/MSDK/cloud/alicloud/src/infra/utils/misc\utils_httpc.c ****     sprintf(base64buff, "%s:%s", client->auth_user, client->auth_password);
 228:C:/Users/stapi/OneDrive/Desktop/GD32VW553/V1_MQTT_OK/GD32VW55X_Wifi_BLE_SDK/GD32VW55x_RELEASE_V1.0.2/MSDK/cloud/alicloud/src/infra/utils/misc\utils_httpc.c ****     utils_debug("bAuth: %s", base64buff) ;
 229:C:/Users/stapi/OneDrive/Desktop/GD32VW553/V1_MQTT_OK/GD32VW55X_Wifi_BLE_SDK/GD32VW55x_RELEASE_V1.0.2/MSDK/cloud/alicloud/src/infra/utils/misc\utils_httpc.c ****     httpclient_base64enc(b_auth, base64buff);
 230:C:/Users/stapi/OneDrive/Desktop/GD32VW553/V1_MQTT_OK/GD32VW55X_Wifi_BLE_SDK/GD32VW55x_RELEASE_V1.0.2/MSDK/cloud/alicloud/src/infra/utils/misc\utils_httpc.c ****     b_auth[strlen(b_auth) + 1] = '\0';
 231:C:/Users/stapi/OneDrive/Desktop/GD32VW553/V1_MQTT_OK/GD32VW55X_Wifi_BLE_SDK/GD32VW55x_RELEASE_V1.0.2/MSDK/cloud/alicloud/src/infra/utils/misc\utils_httpc.c ****     b_auth[strlen(b_auth)] = '\n';
 232:C:/Users/stapi/OneDrive/Desktop/GD32VW553/V1_MQTT_OK/GD32VW55X_Wifi_BLE_SDK/GD32VW55x_RELEASE_V1.0.2/MSDK/cloud/alicloud/src/infra/utils/misc\utils_httpc.c ****     utils_debug("b_auth: %s", b_auth) ;
 233:C:/Users/stapi/OneDrive/Desktop/GD32VW553/V1_MQTT_OK/GD32VW55X_Wifi_BLE_SDK/GD32VW55x_RELEASE_V1.0.2/MSDK/cloud/alicloud/src/infra/utils/misc\utils_httpc.c ****     httpclient_get_info(client, send_buf, send_idx, b_auth, 0);
 234:C:/Users/stapi/OneDrive/Desktop/GD32VW553/V1_MQTT_OK/GD32VW55X_Wifi_BLE_SDK/GD32VW55x_RELEASE_V1.0.2/MSDK/cloud/alicloud/src/infra/utils/misc\utils_httpc.c ****     return SUCCESS_RETURN;
 235:C:/Users/stapi/OneDrive/Desktop/GD32VW553/V1_MQTT_OK/GD32VW55X_Wifi_BLE_SDK/GD32VW55x_RELEASE_V1.0.2/MSDK/cloud/alicloud/src/infra/utils/misc\utils_httpc.c **** }
 236:C:/Users/stapi/OneDrive/Desktop/GD32VW553/V1_MQTT_OK/GD32VW55X_Wifi_BLE_SDK/GD32VW55x_RELEASE_V1.0.2/MSDK/cloud/alicloud/src/infra/utils/misc\utils_httpc.c **** 
 237:C:/Users/stapi/OneDrive/Desktop/GD32VW553/V1_MQTT_OK/GD32VW55X_Wifi_BLE_SDK/GD32VW55x_RELEASE_V1.0.2/MSDK/cloud/alicloud/src/infra/utils/misc\utils_httpc.c **** int httpclient_send_header(httpclient_t *client, const char *url, int method, httpclient_data_t *cl
 238:C:/Users/stapi/OneDrive/Desktop/GD32VW553/V1_MQTT_OK/GD32VW55X_Wifi_BLE_SDK/GD32VW55x_RELEASE_V1.0.2/MSDK/cloud/alicloud/src/infra/utils/misc\utils_httpc.c **** {
 239:C:/Users/stapi/OneDrive/Desktop/GD32VW553/V1_MQTT_OK/GD32VW55X_Wifi_BLE_SDK/GD32VW55x_RELEASE_V1.0.2/MSDK/cloud/alicloud/src/infra/utils/misc\utils_httpc.c ****     char scheme[8] = { 0 };
 240:C:/Users/stapi/OneDrive/Desktop/GD32VW553/V1_MQTT_OK/GD32VW55X_Wifi_BLE_SDK/GD32VW55x_RELEASE_V1.0.2/MSDK/cloud/alicloud/src/infra/utils/misc\utils_httpc.c ****     int len;
 241:C:/Users/stapi/OneDrive/Desktop/GD32VW553/V1_MQTT_OK/GD32VW55X_Wifi_BLE_SDK/GD32VW55x_RELEASE_V1.0.2/MSDK/cloud/alicloud/src/infra/utils/misc\utils_httpc.c ****     int ret = 0;
 242:C:/Users/stapi/OneDrive/Desktop/GD32VW553/V1_MQTT_OK/GD32VW55X_Wifi_BLE_SDK/GD32VW55x_RELEASE_V1.0.2/MSDK/cloud/alicloud/src/infra/utils/misc\utils_httpc.c **** 
 243:C:/Users/stapi/OneDrive/Desktop/GD32VW553/V1_MQTT_OK/GD32VW55X_Wifi_BLE_SDK/GD32VW55x_RELEASE_V1.0.2/MSDK/cloud/alicloud/src/infra/utils/misc\utils_httpc.c ****     char *host = NULL;
 244:C:/Users/stapi/OneDrive/Desktop/GD32VW553/V1_MQTT_OK/GD32VW55X_Wifi_BLE_SDK/GD32VW55x_RELEASE_V1.0.2/MSDK/cloud/alicloud/src/infra/utils/misc\utils_httpc.c ****     char *path = NULL;
 245:C:/Users/stapi/OneDrive/Desktop/GD32VW553/V1_MQTT_OK/GD32VW55X_Wifi_BLE_SDK/GD32VW55x_RELEASE_V1.0.2/MSDK/cloud/alicloud/src/infra/utils/misc\utils_httpc.c ****     char *send_buf = NULL ;
 246:C:/Users/stapi/OneDrive/Desktop/GD32VW553/V1_MQTT_OK/GD32VW55X_Wifi_BLE_SDK/GD32VW55x_RELEASE_V1.0.2/MSDK/cloud/alicloud/src/infra/utils/misc\utils_httpc.c ****     char *buf = NULL;
 247:C:/Users/stapi/OneDrive/Desktop/GD32VW553/V1_MQTT_OK/GD32VW55X_Wifi_BLE_SDK/GD32VW55x_RELEASE_V1.0.2/MSDK/cloud/alicloud/src/infra/utils/misc\utils_httpc.c **** 
 248:C:/Users/stapi/OneDrive/Desktop/GD32VW553/V1_MQTT_OK/GD32VW55X_Wifi_BLE_SDK/GD32VW55x_RELEASE_V1.0.2/MSDK/cloud/alicloud/src/infra/utils/misc\utils_httpc.c ****     host = httpc_malloc(HTTPCLIENT_MAX_HOST_LEN);
 249:C:/Users/stapi/OneDrive/Desktop/GD32VW553/V1_MQTT_OK/GD32VW55X_Wifi_BLE_SDK/GD32VW55x_RELEASE_V1.0.2/MSDK/cloud/alicloud/src/infra/utils/misc\utils_httpc.c ****     if (host == NULL) {
 250:C:/Users/stapi/OneDrive/Desktop/GD32VW553/V1_MQTT_OK/GD32VW55X_Wifi_BLE_SDK/GD32VW55x_RELEASE_V1.0.2/MSDK/cloud/alicloud/src/infra/utils/misc\utils_httpc.c ****         ret = ERROR_NO_ENOUGH_MEM;
 251:C:/Users/stapi/OneDrive/Desktop/GD32VW553/V1_MQTT_OK/GD32VW55X_Wifi_BLE_SDK/GD32VW55x_RELEASE_V1.0.2/MSDK/cloud/alicloud/src/infra/utils/misc\utils_httpc.c ****         goto err;
 252:C:/Users/stapi/OneDrive/Desktop/GD32VW553/V1_MQTT_OK/GD32VW55X_Wifi_BLE_SDK/GD32VW55x_RELEASE_V1.0.2/MSDK/cloud/alicloud/src/infra/utils/misc\utils_httpc.c ****     }
 253:C:/Users/stapi/OneDrive/Desktop/GD32VW553/V1_MQTT_OK/GD32VW55X_Wifi_BLE_SDK/GD32VW55x_RELEASE_V1.0.2/MSDK/cloud/alicloud/src/infra/utils/misc\utils_httpc.c ****     path = httpc_malloc(HTTPCLIENT_MAX_URL_LEN);
 254:C:/Users/stapi/OneDrive/Desktop/GD32VW553/V1_MQTT_OK/GD32VW55X_Wifi_BLE_SDK/GD32VW55x_RELEASE_V1.0.2/MSDK/cloud/alicloud/src/infra/utils/misc\utils_httpc.c ****     if (path == NULL) {
 255:C:/Users/stapi/OneDrive/Desktop/GD32VW553/V1_MQTT_OK/GD32VW55X_Wifi_BLE_SDK/GD32VW55x_RELEASE_V1.0.2/MSDK/cloud/alicloud/src/infra/utils/misc\utils_httpc.c ****         ret = ERROR_NO_ENOUGH_MEM;
 256:C:/Users/stapi/OneDrive/Desktop/GD32VW553/V1_MQTT_OK/GD32VW55X_Wifi_BLE_SDK/GD32VW55x_RELEASE_V1.0.2/MSDK/cloud/alicloud/src/infra/utils/misc\utils_httpc.c ****         goto err;
 257:C:/Users/stapi/OneDrive/Desktop/GD32VW553/V1_MQTT_OK/GD32VW55X_Wifi_BLE_SDK/GD32VW55x_RELEASE_V1.0.2/MSDK/cloud/alicloud/src/infra/utils/misc\utils_httpc.c ****     }
 258:C:/Users/stapi/OneDrive/Desktop/GD32VW553/V1_MQTT_OK/GD32VW55X_Wifi_BLE_SDK/GD32VW55x_RELEASE_V1.0.2/MSDK/cloud/alicloud/src/infra/utils/misc\utils_httpc.c ****     send_buf = httpc_malloc(HTTPCLIENT_SEND_BUF_SIZE);
 259:C:/Users/stapi/OneDrive/Desktop/GD32VW553/V1_MQTT_OK/GD32VW55X_Wifi_BLE_SDK/GD32VW55x_RELEASE_V1.0.2/MSDK/cloud/alicloud/src/infra/utils/misc\utils_httpc.c ****     if (send_buf == NULL) {
 260:C:/Users/stapi/OneDrive/Desktop/GD32VW553/V1_MQTT_OK/GD32VW55X_Wifi_BLE_SDK/GD32VW55x_RELEASE_V1.0.2/MSDK/cloud/alicloud/src/infra/utils/misc\utils_httpc.c ****         ret = ERROR_NO_ENOUGH_MEM;
 261:C:/Users/stapi/OneDrive/Desktop/GD32VW553/V1_MQTT_OK/GD32VW55X_Wifi_BLE_SDK/GD32VW55x_RELEASE_V1.0.2/MSDK/cloud/alicloud/src/infra/utils/misc\utils_httpc.c ****         goto err;
 262:C:/Users/stapi/OneDrive/Desktop/GD32VW553/V1_MQTT_OK/GD32VW55X_Wifi_BLE_SDK/GD32VW55x_RELEASE_V1.0.2/MSDK/cloud/alicloud/src/infra/utils/misc\utils_httpc.c ****     }
 263:C:/Users/stapi/OneDrive/Desktop/GD32VW553/V1_MQTT_OK/GD32VW55X_Wifi_BLE_SDK/GD32VW55x_RELEASE_V1.0.2/MSDK/cloud/alicloud/src/infra/utils/misc\utils_httpc.c ****     buf = httpc_malloc(HTTPCLIENT_SEND_BUF_SIZE);
 264:C:/Users/stapi/OneDrive/Desktop/GD32VW553/V1_MQTT_OK/GD32VW55X_Wifi_BLE_SDK/GD32VW55x_RELEASE_V1.0.2/MSDK/cloud/alicloud/src/infra/utils/misc\utils_httpc.c ****     if (buf == NULL) {
 265:C:/Users/stapi/OneDrive/Desktop/GD32VW553/V1_MQTT_OK/GD32VW55X_Wifi_BLE_SDK/GD32VW55x_RELEASE_V1.0.2/MSDK/cloud/alicloud/src/infra/utils/misc\utils_httpc.c ****         ret = ERROR_NO_ENOUGH_MEM;
 266:C:/Users/stapi/OneDrive/Desktop/GD32VW553/V1_MQTT_OK/GD32VW55X_Wifi_BLE_SDK/GD32VW55x_RELEASE_V1.0.2/MSDK/cloud/alicloud/src/infra/utils/misc\utils_httpc.c ****         goto err;
 267:C:/Users/stapi/OneDrive/Desktop/GD32VW553/V1_MQTT_OK/GD32VW55X_Wifi_BLE_SDK/GD32VW55x_RELEASE_V1.0.2/MSDK/cloud/alicloud/src/infra/utils/misc\utils_httpc.c ****     }
 268:C:/Users/stapi/OneDrive/Desktop/GD32VW553/V1_MQTT_OK/GD32VW55X_Wifi_BLE_SDK/GD32VW55x_RELEASE_V1.0.2/MSDK/cloud/alicloud/src/infra/utils/misc\utils_httpc.c ****     memset(host, 0, HTTPCLIENT_MAX_HOST_LEN);
 269:C:/Users/stapi/OneDrive/Desktop/GD32VW553/V1_MQTT_OK/GD32VW55X_Wifi_BLE_SDK/GD32VW55x_RELEASE_V1.0.2/MSDK/cloud/alicloud/src/infra/utils/misc\utils_httpc.c ****     memset(path, 0, HTTPCLIENT_MAX_URL_LEN);
 270:C:/Users/stapi/OneDrive/Desktop/GD32VW553/V1_MQTT_OK/GD32VW55X_Wifi_BLE_SDK/GD32VW55x_RELEASE_V1.0.2/MSDK/cloud/alicloud/src/infra/utils/misc\utils_httpc.c ****     memset(send_buf, 0, HTTPCLIENT_SEND_BUF_SIZE);
 271:C:/Users/stapi/OneDrive/Desktop/GD32VW553/V1_MQTT_OK/GD32VW55X_Wifi_BLE_SDK/GD32VW55x_RELEASE_V1.0.2/MSDK/cloud/alicloud/src/infra/utils/misc\utils_httpc.c ****     memset(buf, 0, HTTPCLIENT_SEND_BUF_SIZE);
 272:C:/Users/stapi/OneDrive/Desktop/GD32VW553/V1_MQTT_OK/GD32VW55X_Wifi_BLE_SDK/GD32VW55x_RELEASE_V1.0.2/MSDK/cloud/alicloud/src/infra/utils/misc\utils_httpc.c **** 
 273:C:/Users/stapi/OneDrive/Desktop/GD32VW553/V1_MQTT_OK/GD32VW55X_Wifi_BLE_SDK/GD32VW55x_RELEASE_V1.0.2/MSDK/cloud/alicloud/src/infra/utils/misc\utils_httpc.c **** 
 274:C:/Users/stapi/OneDrive/Desktop/GD32VW553/V1_MQTT_OK/GD32VW55X_Wifi_BLE_SDK/GD32VW55x_RELEASE_V1.0.2/MSDK/cloud/alicloud/src/infra/utils/misc\utils_httpc.c ****     char *meth = (method == HTTPCLIENT_GET) ? "GET" : (method == HTTPCLIENT_POST) ? "POST" :
 275:C:/Users/stapi/OneDrive/Desktop/GD32VW553/V1_MQTT_OK/GD32VW55X_Wifi_BLE_SDK/GD32VW55x_RELEASE_V1.0.2/MSDK/cloud/alicloud/src/infra/utils/misc\utils_httpc.c ****                  (method == HTTPCLIENT_PUT) ? "PUT" : (method == HTTPCLIENT_DELETE) ? "DELETE" :
 276:C:/Users/stapi/OneDrive/Desktop/GD32VW553/V1_MQTT_OK/GD32VW55X_Wifi_BLE_SDK/GD32VW55x_RELEASE_V1.0.2/MSDK/cloud/alicloud/src/infra/utils/misc\utils_httpc.c ****                  (method == HTTPCLIENT_HEAD) ? "HEAD" : "";
 277:C:/Users/stapi/OneDrive/Desktop/GD32VW553/V1_MQTT_OK/GD32VW55X_Wifi_BLE_SDK/GD32VW55x_RELEASE_V1.0.2/MSDK/cloud/alicloud/src/infra/utils/misc\utils_httpc.c ****     int port;
 278:C:/Users/stapi/OneDrive/Desktop/GD32VW553/V1_MQTT_OK/GD32VW55X_Wifi_BLE_SDK/GD32VW55x_RELEASE_V1.0.2/MSDK/cloud/alicloud/src/infra/utils/misc\utils_httpc.c **** 
 279:C:/Users/stapi/OneDrive/Desktop/GD32VW553/V1_MQTT_OK/GD32VW55X_Wifi_BLE_SDK/GD32VW55x_RELEASE_V1.0.2/MSDK/cloud/alicloud/src/infra/utils/misc\utils_httpc.c ****     /* First we need to parse the url (http[s]://host[:port][/[path]]) */
 280:C:/Users/stapi/OneDrive/Desktop/GD32VW553/V1_MQTT_OK/GD32VW55X_Wifi_BLE_SDK/GD32VW55x_RELEASE_V1.0.2/MSDK/cloud/alicloud/src/infra/utils/misc\utils_httpc.c ****     /* int res = httpclient_parse_url(url, scheme, sizeof(scheme), host, sizeof(host), &(client->re
 281:C:/Users/stapi/OneDrive/Desktop/GD32VW553/V1_MQTT_OK/GD32VW55X_Wifi_BLE_SDK/GD32VW55x_RELEASE_V1.0.2/MSDK/cloud/alicloud/src/infra/utils/misc\utils_httpc.c ****     ret = httpclient_parse_url(url, scheme, sizeof(scheme), host, HTTPCLIENT_MAX_HOST_LEN, &port, p
 282:C:/Users/stapi/OneDrive/Desktop/GD32VW553/V1_MQTT_OK/GD32VW55X_Wifi_BLE_SDK/GD32VW55x_RELEASE_V1.0.2/MSDK/cloud/alicloud/src/infra/utils/misc\utils_httpc.c ****                                HTTPCLIENT_MAX_URL_LEN);
 283:C:/Users/stapi/OneDrive/Desktop/GD32VW553/V1_MQTT_OK/GD32VW55X_Wifi_BLE_SDK/GD32VW55x_RELEASE_V1.0.2/MSDK/cloud/alicloud/src/infra/utils/misc\utils_httpc.c ****     if (ret != SUCCESS_RETURN) {
 284:C:/Users/stapi/OneDrive/Desktop/GD32VW553/V1_MQTT_OK/GD32VW55X_Wifi_BLE_SDK/GD32VW55x_RELEASE_V1.0.2/MSDK/cloud/alicloud/src/infra/utils/misc\utils_httpc.c ****         utils_err("httpclient_parse_url fail returned %d", ret);
 285:C:/Users/stapi/OneDrive/Desktop/GD32VW553/V1_MQTT_OK/GD32VW55X_Wifi_BLE_SDK/GD32VW55x_RELEASE_V1.0.2/MSDK/cloud/alicloud/src/infra/utils/misc\utils_httpc.c ****         goto err;
 286:C:/Users/stapi/OneDrive/Desktop/GD32VW553/V1_MQTT_OK/GD32VW55X_Wifi_BLE_SDK/GD32VW55x_RELEASE_V1.0.2/MSDK/cloud/alicloud/src/infra/utils/misc\utils_httpc.c ****     }
 287:C:/Users/stapi/OneDrive/Desktop/GD32VW553/V1_MQTT_OK/GD32VW55X_Wifi_BLE_SDK/GD32VW55x_RELEASE_V1.0.2/MSDK/cloud/alicloud/src/infra/utils/misc\utils_httpc.c **** 
 288:C:/Users/stapi/OneDrive/Desktop/GD32VW553/V1_MQTT_OK/GD32VW55X_Wifi_BLE_SDK/GD32VW55x_RELEASE_V1.0.2/MSDK/cloud/alicloud/src/infra/utils/misc\utils_httpc.c ****     /* if (client->remote_port == 0) */
 289:C:/Users/stapi/OneDrive/Desktop/GD32VW553/V1_MQTT_OK/GD32VW55X_Wifi_BLE_SDK/GD32VW55x_RELEASE_V1.0.2/MSDK/cloud/alicloud/src/infra/utils/misc\utils_httpc.c ****     /* { */
 290:C:/Users/stapi/OneDrive/Desktop/GD32VW553/V1_MQTT_OK/GD32VW55X_Wifi_BLE_SDK/GD32VW55x_RELEASE_V1.0.2/MSDK/cloud/alicloud/src/infra/utils/misc\utils_httpc.c ****     if (strcmp(scheme, "http") == 0) {
 291:C:/Users/stapi/OneDrive/Desktop/GD32VW553/V1_MQTT_OK/GD32VW55X_Wifi_BLE_SDK/GD32VW55x_RELEASE_V1.0.2/MSDK/cloud/alicloud/src/infra/utils/misc\utils_httpc.c ****         /* client->remote_port = HTTP_PORT; */
 292:C:/Users/stapi/OneDrive/Desktop/GD32VW553/V1_MQTT_OK/GD32VW55X_Wifi_BLE_SDK/GD32VW55x_RELEASE_V1.0.2/MSDK/cloud/alicloud/src/infra/utils/misc\utils_httpc.c ****     } else if (strcmp(scheme, "https") == 0) {
 293:C:/Users/stapi/OneDrive/Desktop/GD32VW553/V1_MQTT_OK/GD32VW55X_Wifi_BLE_SDK/GD32VW55x_RELEASE_V1.0.2/MSDK/cloud/alicloud/src/infra/utils/misc\utils_httpc.c ****         /* client->remote_port = HTTPS_PORT; */
 294:C:/Users/stapi/OneDrive/Desktop/GD32VW553/V1_MQTT_OK/GD32VW55X_Wifi_BLE_SDK/GD32VW55x_RELEASE_V1.0.2/MSDK/cloud/alicloud/src/infra/utils/misc\utils_httpc.c ****     }
 295:C:/Users/stapi/OneDrive/Desktop/GD32VW553/V1_MQTT_OK/GD32VW55X_Wifi_BLE_SDK/GD32VW55x_RELEASE_V1.0.2/MSDK/cloud/alicloud/src/infra/utils/misc\utils_httpc.c ****     /* } */
 296:C:/Users/stapi/OneDrive/Desktop/GD32VW553/V1_MQTT_OK/GD32VW55X_Wifi_BLE_SDK/GD32VW55x_RELEASE_V1.0.2/MSDK/cloud/alicloud/src/infra/utils/misc\utils_httpc.c **** 
 297:C:/Users/stapi/OneDrive/Desktop/GD32VW553/V1_MQTT_OK/GD32VW55X_Wifi_BLE_SDK/GD32VW55x_RELEASE_V1.0.2/MSDK/cloud/alicloud/src/infra/utils/misc\utils_httpc.c ****     len = 0; /* Reset send buffer */
 298:C:/Users/stapi/OneDrive/Desktop/GD32VW553/V1_MQTT_OK/GD32VW55X_Wifi_BLE_SDK/GD32VW55x_RELEASE_V1.0.2/MSDK/cloud/alicloud/src/infra/utils/misc\utils_httpc.c **** 
 299:C:/Users/stapi/OneDrive/Desktop/GD32VW553/V1_MQTT_OK/GD32VW55X_Wifi_BLE_SDK/GD32VW55x_RELEASE_V1.0.2/MSDK/cloud/alicloud/src/infra/utils/misc\utils_httpc.c **** #ifdef ON_PRE
 300:C:/Users/stapi/OneDrive/Desktop/GD32VW553/V1_MQTT_OK/GD32VW55X_Wifi_BLE_SDK/GD32VW55x_RELEASE_V1.0.2/MSDK/cloud/alicloud/src/infra/utils/misc\utils_httpc.c ****     iotx_cloud_region_types_t region_type;
 301:C:/Users/stapi/OneDrive/Desktop/GD32VW553/V1_MQTT_OK/GD32VW55X_Wifi_BLE_SDK/GD32VW55x_RELEASE_V1.0.2/MSDK/cloud/alicloud/src/infra/utils/misc\utils_httpc.c **** 
 302:C:/Users/stapi/OneDrive/Desktop/GD32VW553/V1_MQTT_OK/GD32VW55X_Wifi_BLE_SDK/GD32VW55x_RELEASE_V1.0.2/MSDK/cloud/alicloud/src/infra/utils/misc\utils_httpc.c ****     IOT_Ioctl(IOTX_IOCTL_GET_REGION, &region_type);
 303:C:/Users/stapi/OneDrive/Desktop/GD32VW553/V1_MQTT_OK/GD32VW55X_Wifi_BLE_SDK/GD32VW55x_RELEASE_V1.0.2/MSDK/cloud/alicloud/src/infra/utils/misc\utils_httpc.c ****     if (IOTX_CLOUD_REGION_SINGAPORE == region_type) {
 304:C:/Users/stapi/OneDrive/Desktop/GD32VW553/V1_MQTT_OK/GD32VW55X_Wifi_BLE_SDK/GD32VW55x_RELEASE_V1.0.2/MSDK/cloud/alicloud/src/infra/utils/misc\utils_httpc.c ****         utils_warning("hacking HTTP auth requeset for singapore+pre-online to 'iot-auth.ap-southeas
 305:C:/Users/stapi/OneDrive/Desktop/GD32VW553/V1_MQTT_OK/GD32VW55X_Wifi_BLE_SDK/GD32VW55x_RELEASE_V1.0.2/MSDK/cloud/alicloud/src/infra/utils/misc\utils_httpc.c ****         HAL_Snprintf(buf, HTTPCLIENT_SEND_BUF_SIZE, "%s %s HTTP/1.1\r\nHost: %s\r\n", meth, path,
 306:C:/Users/stapi/OneDrive/Desktop/GD32VW553/V1_MQTT_OK/GD32VW55X_Wifi_BLE_SDK/GD32VW55x_RELEASE_V1.0.2/MSDK/cloud/alicloud/src/infra/utils/misc\utils_httpc.c ****                      "iot-auth.ap-southeast-1.aliyuncs.com"); /* Write request */
 307:C:/Users/stapi/OneDrive/Desktop/GD32VW553/V1_MQTT_OK/GD32VW55X_Wifi_BLE_SDK/GD32VW55x_RELEASE_V1.0.2/MSDK/cloud/alicloud/src/infra/utils/misc\utils_httpc.c ****     } else {
 308:C:/Users/stapi/OneDrive/Desktop/GD32VW553/V1_MQTT_OK/GD32VW55X_Wifi_BLE_SDK/GD32VW55x_RELEASE_V1.0.2/MSDK/cloud/alicloud/src/infra/utils/misc\utils_httpc.c ****         HAL_Snprintf(buf, HTTPCLIENT_SEND_BUF_SIZE, "%s %s HTTP/1.1\r\nHost: %s\r\n", meth, path, h
 309:C:/Users/stapi/OneDrive/Desktop/GD32VW553/V1_MQTT_OK/GD32VW55X_Wifi_BLE_SDK/GD32VW55x_RELEASE_V1.0.2/MSDK/cloud/alicloud/src/infra/utils/misc\utils_httpc.c ****     }
 310:C:/Users/stapi/OneDrive/Desktop/GD32VW553/V1_MQTT_OK/GD32VW55X_Wifi_BLE_SDK/GD32VW55x_RELEASE_V1.0.2/MSDK/cloud/alicloud/src/infra/utils/misc\utils_httpc.c **** #else
 311:C:/Users/stapi/OneDrive/Desktop/GD32VW553/V1_MQTT_OK/GD32VW55X_Wifi_BLE_SDK/GD32VW55x_RELEASE_V1.0.2/MSDK/cloud/alicloud/src/infra/utils/misc\utils_httpc.c ****     HAL_Snprintf(buf, HTTPCLIENT_SEND_BUF_SIZE, "%s %s HTTP/1.1\r\nHost: %s\r\n", meth, path, host)
 312:C:/Users/stapi/OneDrive/Desktop/GD32VW553/V1_MQTT_OK/GD32VW55X_Wifi_BLE_SDK/GD32VW55x_RELEASE_V1.0.2/MSDK/cloud/alicloud/src/infra/utils/misc\utils_httpc.c **** #endif
 313:C:/Users/stapi/OneDrive/Desktop/GD32VW553/V1_MQTT_OK/GD32VW55X_Wifi_BLE_SDK/GD32VW55x_RELEASE_V1.0.2/MSDK/cloud/alicloud/src/infra/utils/misc\utils_httpc.c ****     ret = httpclient_get_info(client, send_buf, &len, buf, strlen(buf));
 314:C:/Users/stapi/OneDrive/Desktop/GD32VW553/V1_MQTT_OK/GD32VW55X_Wifi_BLE_SDK/GD32VW55x_RELEASE_V1.0.2/MSDK/cloud/alicloud/src/infra/utils/misc\utils_httpc.c ****     if (ret) {
 315:C:/Users/stapi/OneDrive/Desktop/GD32VW553/V1_MQTT_OK/GD32VW55X_Wifi_BLE_SDK/GD32VW55x_RELEASE_V1.0.2/MSDK/cloud/alicloud/src/infra/utils/misc\utils_httpc.c ****         utils_err("Could not write request");
 316:C:/Users/stapi/OneDrive/Desktop/GD32VW553/V1_MQTT_OK/GD32VW55X_Wifi_BLE_SDK/GD32VW55x_RELEASE_V1.0.2/MSDK/cloud/alicloud/src/infra/utils/misc\utils_httpc.c ****         goto err;
 317:C:/Users/stapi/OneDrive/Desktop/GD32VW553/V1_MQTT_OK/GD32VW55X_Wifi_BLE_SDK/GD32VW55x_RELEASE_V1.0.2/MSDK/cloud/alicloud/src/infra/utils/misc\utils_httpc.c ****     }
 318:C:/Users/stapi/OneDrive/Desktop/GD32VW553/V1_MQTT_OK/GD32VW55X_Wifi_BLE_SDK/GD32VW55x_RELEASE_V1.0.2/MSDK/cloud/alicloud/src/infra/utils/misc\utils_httpc.c **** 
 319:C:/Users/stapi/OneDrive/Desktop/GD32VW553/V1_MQTT_OK/GD32VW55X_Wifi_BLE_SDK/GD32VW55x_RELEASE_V1.0.2/MSDK/cloud/alicloud/src/infra/utils/misc\utils_httpc.c ****     /* Send all headers */
 320:C:/Users/stapi/OneDrive/Desktop/GD32VW553/V1_MQTT_OK/GD32VW55X_Wifi_BLE_SDK/GD32VW55x_RELEASE_V1.0.2/MSDK/cloud/alicloud/src/infra/utils/misc\utils_httpc.c ****     if (client->auth_user) {
 321:C:/Users/stapi/OneDrive/Desktop/GD32VW553/V1_MQTT_OK/GD32VW55X_Wifi_BLE_SDK/GD32VW55x_RELEASE_V1.0.2/MSDK/cloud/alicloud/src/infra/utils/misc\utils_httpc.c ****         httpclient_send_auth(client, send_buf, &len); /* send out Basic Auth header */
 322:C:/Users/stapi/OneDrive/Desktop/GD32VW553/V1_MQTT_OK/GD32VW55X_Wifi_BLE_SDK/GD32VW55x_RELEASE_V1.0.2/MSDK/cloud/alicloud/src/infra/utils/misc\utils_httpc.c ****     }
 323:C:/Users/stapi/OneDrive/Desktop/GD32VW553/V1_MQTT_OK/GD32VW55X_Wifi_BLE_SDK/GD32VW55x_RELEASE_V1.0.2/MSDK/cloud/alicloud/src/infra/utils/misc\utils_httpc.c **** 
 324:C:/Users/stapi/OneDrive/Desktop/GD32VW553/V1_MQTT_OK/GD32VW55X_Wifi_BLE_SDK/GD32VW55x_RELEASE_V1.0.2/MSDK/cloud/alicloud/src/infra/utils/misc\utils_httpc.c ****     /* Add user header information */
 325:C:/Users/stapi/OneDrive/Desktop/GD32VW553/V1_MQTT_OK/GD32VW55X_Wifi_BLE_SDK/GD32VW55x_RELEASE_V1.0.2/MSDK/cloud/alicloud/src/infra/utils/misc\utils_httpc.c ****     if (client->header) {
 326:C:/Users/stapi/OneDrive/Desktop/GD32VW553/V1_MQTT_OK/GD32VW55X_Wifi_BLE_SDK/GD32VW55x_RELEASE_V1.0.2/MSDK/cloud/alicloud/src/infra/utils/misc\utils_httpc.c ****         httpclient_get_info(client, send_buf, &len, (char *) client->header, strlen(client->header)
 327:C:/Users/stapi/OneDrive/Desktop/GD32VW553/V1_MQTT_OK/GD32VW55X_Wifi_BLE_SDK/GD32VW55x_RELEASE_V1.0.2/MSDK/cloud/alicloud/src/infra/utils/misc\utils_httpc.c ****     }
 328:C:/Users/stapi/OneDrive/Desktop/GD32VW553/V1_MQTT_OK/GD32VW55X_Wifi_BLE_SDK/GD32VW55x_RELEASE_V1.0.2/MSDK/cloud/alicloud/src/infra/utils/misc\utils_httpc.c **** 
 329:C:/Users/stapi/OneDrive/Desktop/GD32VW553/V1_MQTT_OK/GD32VW55X_Wifi_BLE_SDK/GD32VW55x_RELEASE_V1.0.2/MSDK/cloud/alicloud/src/infra/utils/misc\utils_httpc.c ****     if (client_data->post_buf != NULL) {
 330:C:/Users/stapi/OneDrive/Desktop/GD32VW553/V1_MQTT_OK/GD32VW55X_Wifi_BLE_SDK/GD32VW55x_RELEASE_V1.0.2/MSDK/cloud/alicloud/src/infra/utils/misc\utils_httpc.c ****         HAL_Snprintf(buf, HTTPCLIENT_SEND_BUF_SIZE, "Content-Length: %d\r\n", client_data->post_buf
 331:C:/Users/stapi/OneDrive/Desktop/GD32VW553/V1_MQTT_OK/GD32VW55X_Wifi_BLE_SDK/GD32VW55x_RELEASE_V1.0.2/MSDK/cloud/alicloud/src/infra/utils/misc\utils_httpc.c ****         httpclient_get_info(client, send_buf, &len, buf, strlen(buf));
 332:C:/Users/stapi/OneDrive/Desktop/GD32VW553/V1_MQTT_OK/GD32VW55X_Wifi_BLE_SDK/GD32VW55x_RELEASE_V1.0.2/MSDK/cloud/alicloud/src/infra/utils/misc\utils_httpc.c **** 
 333:C:/Users/stapi/OneDrive/Desktop/GD32VW553/V1_MQTT_OK/GD32VW55X_Wifi_BLE_SDK/GD32VW55x_RELEASE_V1.0.2/MSDK/cloud/alicloud/src/infra/utils/misc\utils_httpc.c ****         if (client_data->post_content_type != NULL) {
 334:C:/Users/stapi/OneDrive/Desktop/GD32VW553/V1_MQTT_OK/GD32VW55X_Wifi_BLE_SDK/GD32VW55x_RELEASE_V1.0.2/MSDK/cloud/alicloud/src/infra/utils/misc\utils_httpc.c ****             HAL_Snprintf(buf, HTTPCLIENT_SEND_BUF_SIZE, "Content-Type: %s\r\n", client_data->post_c
 335:C:/Users/stapi/OneDrive/Desktop/GD32VW553/V1_MQTT_OK/GD32VW55X_Wifi_BLE_SDK/GD32VW55x_RELEASE_V1.0.2/MSDK/cloud/alicloud/src/infra/utils/misc\utils_httpc.c ****             httpclient_get_info(client, send_buf, &len, buf, strlen(buf));
 336:C:/Users/stapi/OneDrive/Desktop/GD32VW553/V1_MQTT_OK/GD32VW55X_Wifi_BLE_SDK/GD32VW55x_RELEASE_V1.0.2/MSDK/cloud/alicloud/src/infra/utils/misc\utils_httpc.c ****         }
 337:C:/Users/stapi/OneDrive/Desktop/GD32VW553/V1_MQTT_OK/GD32VW55X_Wifi_BLE_SDK/GD32VW55x_RELEASE_V1.0.2/MSDK/cloud/alicloud/src/infra/utils/misc\utils_httpc.c ****     }
 338:C:/Users/stapi/OneDrive/Desktop/GD32VW553/V1_MQTT_OK/GD32VW55X_Wifi_BLE_SDK/GD32VW55x_RELEASE_V1.0.2/MSDK/cloud/alicloud/src/infra/utils/misc\utils_httpc.c **** 
 339:C:/Users/stapi/OneDrive/Desktop/GD32VW553/V1_MQTT_OK/GD32VW55X_Wifi_BLE_SDK/GD32VW55x_RELEASE_V1.0.2/MSDK/cloud/alicloud/src/infra/utils/misc\utils_httpc.c ****     /* Close headers */
 340:C:/Users/stapi/OneDrive/Desktop/GD32VW553/V1_MQTT_OK/GD32VW55X_Wifi_BLE_SDK/GD32VW55x_RELEASE_V1.0.2/MSDK/cloud/alicloud/src/infra/utils/misc\utils_httpc.c ****     httpclient_get_info(client, send_buf, &len, "\r\n", 0);
 341:C:/Users/stapi/OneDrive/Desktop/GD32VW553/V1_MQTT_OK/GD32VW55X_Wifi_BLE_SDK/GD32VW55x_RELEASE_V1.0.2/MSDK/cloud/alicloud/src/infra/utils/misc\utils_httpc.c ****     log_multi_line(LOG_DEBUG_LEVEL, "REQUEST", "%s", send_buf, ">");
 342:C:/Users/stapi/OneDrive/Desktop/GD32VW553/V1_MQTT_OK/GD32VW55X_Wifi_BLE_SDK/GD32VW55x_RELEASE_V1.0.2/MSDK/cloud/alicloud/src/infra/utils/misc\utils_httpc.c **** 
 343:C:/Users/stapi/OneDrive/Desktop/GD32VW553/V1_MQTT_OK/GD32VW55X_Wifi_BLE_SDK/GD32VW55x_RELEASE_V1.0.2/MSDK/cloud/alicloud/src/infra/utils/misc\utils_httpc.c ****     /* ret = httpclient_tcp_send_all(client->net.handle, send_buf, len); */
 344:C:/Users/stapi/OneDrive/Desktop/GD32VW553/V1_MQTT_OK/GD32VW55X_Wifi_BLE_SDK/GD32VW55x_RELEASE_V1.0.2/MSDK/cloud/alicloud/src/infra/utils/misc\utils_httpc.c ****     ret = client->net.write(&client->net, send_buf, len, 5000);
 345:C:/Users/stapi/OneDrive/Desktop/GD32VW553/V1_MQTT_OK/GD32VW55X_Wifi_BLE_SDK/GD32VW55x_RELEASE_V1.0.2/MSDK/cloud/alicloud/src/infra/utils/misc\utils_httpc.c ****     if (ret > 0) {
 346:C:/Users/stapi/OneDrive/Desktop/GD32VW553/V1_MQTT_OK/GD32VW55X_Wifi_BLE_SDK/GD32VW55x_RELEASE_V1.0.2/MSDK/cloud/alicloud/src/infra/utils/misc\utils_httpc.c ****         utils_debug("Written %d bytes", ret);
 347:C:/Users/stapi/OneDrive/Desktop/GD32VW553/V1_MQTT_OK/GD32VW55X_Wifi_BLE_SDK/GD32VW55x_RELEASE_V1.0.2/MSDK/cloud/alicloud/src/infra/utils/misc\utils_httpc.c ****     } else if (ret == 0) {
 348:C:/Users/stapi/OneDrive/Desktop/GD32VW553/V1_MQTT_OK/GD32VW55X_Wifi_BLE_SDK/GD32VW55x_RELEASE_V1.0.2/MSDK/cloud/alicloud/src/infra/utils/misc\utils_httpc.c ****         utils_err("ret == 0,Connection was closed by server");
 349:C:/Users/stapi/OneDrive/Desktop/GD32VW553/V1_MQTT_OK/GD32VW55X_Wifi_BLE_SDK/GD32VW55x_RELEASE_V1.0.2/MSDK/cloud/alicloud/src/infra/utils/misc\utils_httpc.c ****         ret = ERROR_HTTP_CLOSED;/* Connection was closed by server */
 350:C:/Users/stapi/OneDrive/Desktop/GD32VW553/V1_MQTT_OK/GD32VW55X_Wifi_BLE_SDK/GD32VW55x_RELEASE_V1.0.2/MSDK/cloud/alicloud/src/infra/utils/misc\utils_httpc.c ****         goto err;
 351:C:/Users/stapi/OneDrive/Desktop/GD32VW553/V1_MQTT_OK/GD32VW55X_Wifi_BLE_SDK/GD32VW55x_RELEASE_V1.0.2/MSDK/cloud/alicloud/src/infra/utils/misc\utils_httpc.c ****     } else {
 352:C:/Users/stapi/OneDrive/Desktop/GD32VW553/V1_MQTT_OK/GD32VW55X_Wifi_BLE_SDK/GD32VW55x_RELEASE_V1.0.2/MSDK/cloud/alicloud/src/infra/utils/misc\utils_httpc.c ****         utils_err("Connection error (send returned %d)", ret);
 353:C:/Users/stapi/OneDrive/Desktop/GD32VW553/V1_MQTT_OK/GD32VW55X_Wifi_BLE_SDK/GD32VW55x_RELEASE_V1.0.2/MSDK/cloud/alicloud/src/infra/utils/misc\utils_httpc.c ****         ret = ERROR_HTTP_CONN;
 354:C:/Users/stapi/OneDrive/Desktop/GD32VW553/V1_MQTT_OK/GD32VW55X_Wifi_BLE_SDK/GD32VW55x_RELEASE_V1.0.2/MSDK/cloud/alicloud/src/infra/utils/misc\utils_httpc.c ****         goto err;
 355:C:/Users/stapi/OneDrive/Desktop/GD32VW553/V1_MQTT_OK/GD32VW55X_Wifi_BLE_SDK/GD32VW55x_RELEASE_V1.0.2/MSDK/cloud/alicloud/src/infra/utils/misc\utils_httpc.c ****     }
 356:C:/Users/stapi/OneDrive/Desktop/GD32VW553/V1_MQTT_OK/GD32VW55X_Wifi_BLE_SDK/GD32VW55x_RELEASE_V1.0.2/MSDK/cloud/alicloud/src/infra/utils/misc\utils_httpc.c ****     ret = SUCCESS_RETURN;
 357:C:/Users/stapi/OneDrive/Desktop/GD32VW553/V1_MQTT_OK/GD32VW55X_Wifi_BLE_SDK/GD32VW55x_RELEASE_V1.0.2/MSDK/cloud/alicloud/src/infra/utils/misc\utils_httpc.c **** err:
 358:C:/Users/stapi/OneDrive/Desktop/GD32VW553/V1_MQTT_OK/GD32VW55X_Wifi_BLE_SDK/GD32VW55x_RELEASE_V1.0.2/MSDK/cloud/alicloud/src/infra/utils/misc\utils_httpc.c ****     if (host != NULL) {
 359:C:/Users/stapi/OneDrive/Desktop/GD32VW553/V1_MQTT_OK/GD32VW55X_Wifi_BLE_SDK/GD32VW55x_RELEASE_V1.0.2/MSDK/cloud/alicloud/src/infra/utils/misc\utils_httpc.c ****         httpc_free(host);
 360:C:/Users/stapi/OneDrive/Desktop/GD32VW553/V1_MQTT_OK/GD32VW55X_Wifi_BLE_SDK/GD32VW55x_RELEASE_V1.0.2/MSDK/cloud/alicloud/src/infra/utils/misc\utils_httpc.c ****     }
 361:C:/Users/stapi/OneDrive/Desktop/GD32VW553/V1_MQTT_OK/GD32VW55X_Wifi_BLE_SDK/GD32VW55x_RELEASE_V1.0.2/MSDK/cloud/alicloud/src/infra/utils/misc\utils_httpc.c ****     if (path != NULL) {
 362:C:/Users/stapi/OneDrive/Desktop/GD32VW553/V1_MQTT_OK/GD32VW55X_Wifi_BLE_SDK/GD32VW55x_RELEASE_V1.0.2/MSDK/cloud/alicloud/src/infra/utils/misc\utils_httpc.c ****         httpc_free(path);
 363:C:/Users/stapi/OneDrive/Desktop/GD32VW553/V1_MQTT_OK/GD32VW55X_Wifi_BLE_SDK/GD32VW55x_RELEASE_V1.0.2/MSDK/cloud/alicloud/src/infra/utils/misc\utils_httpc.c ****     }
 364:C:/Users/stapi/OneDrive/Desktop/GD32VW553/V1_MQTT_OK/GD32VW55X_Wifi_BLE_SDK/GD32VW55x_RELEASE_V1.0.2/MSDK/cloud/alicloud/src/infra/utils/misc\utils_httpc.c ****     if (send_buf != NULL) {
 365:C:/Users/stapi/OneDrive/Desktop/GD32VW553/V1_MQTT_OK/GD32VW55X_Wifi_BLE_SDK/GD32VW55x_RELEASE_V1.0.2/MSDK/cloud/alicloud/src/infra/utils/misc\utils_httpc.c ****         httpc_free(send_buf);
 366:C:/Users/stapi/OneDrive/Desktop/GD32VW553/V1_MQTT_OK/GD32VW55X_Wifi_BLE_SDK/GD32VW55x_RELEASE_V1.0.2/MSDK/cloud/alicloud/src/infra/utils/misc\utils_httpc.c ****     }
 367:C:/Users/stapi/OneDrive/Desktop/GD32VW553/V1_MQTT_OK/GD32VW55X_Wifi_BLE_SDK/GD32VW55x_RELEASE_V1.0.2/MSDK/cloud/alicloud/src/infra/utils/misc\utils_httpc.c ****     if (buf != NULL) {
 368:C:/Users/stapi/OneDrive/Desktop/GD32VW553/V1_MQTT_OK/GD32VW55X_Wifi_BLE_SDK/GD32VW55x_RELEASE_V1.0.2/MSDK/cloud/alicloud/src/infra/utils/misc\utils_httpc.c ****         httpc_free(buf);
 369:C:/Users/stapi/OneDrive/Desktop/GD32VW553/V1_MQTT_OK/GD32VW55X_Wifi_BLE_SDK/GD32VW55x_RELEASE_V1.0.2/MSDK/cloud/alicloud/src/infra/utils/misc\utils_httpc.c ****     }
 370:C:/Users/stapi/OneDrive/Desktop/GD32VW553/V1_MQTT_OK/GD32VW55X_Wifi_BLE_SDK/GD32VW55x_RELEASE_V1.0.2/MSDK/cloud/alicloud/src/infra/utils/misc\utils_httpc.c ****     return ret;
 371:C:/Users/stapi/OneDrive/Desktop/GD32VW553/V1_MQTT_OK/GD32VW55X_Wifi_BLE_SDK/GD32VW55x_RELEASE_V1.0.2/MSDK/cloud/alicloud/src/infra/utils/misc\utils_httpc.c **** }
 372:C:/Users/stapi/OneDrive/Desktop/GD32VW553/V1_MQTT_OK/GD32VW55X_Wifi_BLE_SDK/GD32VW55x_RELEASE_V1.0.2/MSDK/cloud/alicloud/src/infra/utils/misc\utils_httpc.c **** 
 373:C:/Users/stapi/OneDrive/Desktop/GD32VW553/V1_MQTT_OK/GD32VW55X_Wifi_BLE_SDK/GD32VW55x_RELEASE_V1.0.2/MSDK/cloud/alicloud/src/infra/utils/misc\utils_httpc.c **** int httpclient_send_userdata(httpclient_t *client, httpclient_data_t *client_data)
 374:C:/Users/stapi/OneDrive/Desktop/GD32VW553/V1_MQTT_OK/GD32VW55X_Wifi_BLE_SDK/GD32VW55x_RELEASE_V1.0.2/MSDK/cloud/alicloud/src/infra/utils/misc\utils_httpc.c **** {
 375:C:/Users/stapi/OneDrive/Desktop/GD32VW553/V1_MQTT_OK/GD32VW55X_Wifi_BLE_SDK/GD32VW55x_RELEASE_V1.0.2/MSDK/cloud/alicloud/src/infra/utils/misc\utils_httpc.c ****     int ret = 0;
 376:C:/Users/stapi/OneDrive/Desktop/GD32VW553/V1_MQTT_OK/GD32VW55X_Wifi_BLE_SDK/GD32VW55x_RELEASE_V1.0.2/MSDK/cloud/alicloud/src/infra/utils/misc\utils_httpc.c **** 
 377:C:/Users/stapi/OneDrive/Desktop/GD32VW553/V1_MQTT_OK/GD32VW55X_Wifi_BLE_SDK/GD32VW55x_RELEASE_V1.0.2/MSDK/cloud/alicloud/src/infra/utils/misc\utils_httpc.c ****     if (client_data->post_buf && client_data->post_buf_len) {
 378:C:/Users/stapi/OneDrive/Desktop/GD32VW553/V1_MQTT_OK/GD32VW55X_Wifi_BLE_SDK/GD32VW55x_RELEASE_V1.0.2/MSDK/cloud/alicloud/src/infra/utils/misc\utils_httpc.c ****         utils_debug("client_data->post_buf: %s", client_data->post_buf);
 379:C:/Users/stapi/OneDrive/Desktop/GD32VW553/V1_MQTT_OK/GD32VW55X_Wifi_BLE_SDK/GD32VW55x_RELEASE_V1.0.2/MSDK/cloud/alicloud/src/infra/utils/misc\utils_httpc.c ****         {
 380:C:/Users/stapi/OneDrive/Desktop/GD32VW553/V1_MQTT_OK/GD32VW55X_Wifi_BLE_SDK/GD32VW55x_RELEASE_V1.0.2/MSDK/cloud/alicloud/src/infra/utils/misc\utils_httpc.c ****             /* ret = httpclient_tcp_send_all(client->handle, (char *)client_data->post_buf, client_
 381:C:/Users/stapi/OneDrive/Desktop/GD32VW553/V1_MQTT_OK/GD32VW55X_Wifi_BLE_SDK/GD32VW55x_RELEASE_V1.0.2/MSDK/cloud/alicloud/src/infra/utils/misc\utils_httpc.c ****             ret = client->net.write(&client->net, (char *)client_data->post_buf, client_data->post_
 382:C:/Users/stapi/OneDrive/Desktop/GD32VW553/V1_MQTT_OK/GD32VW55X_Wifi_BLE_SDK/GD32VW55x_RELEASE_V1.0.2/MSDK/cloud/alicloud/src/infra/utils/misc\utils_httpc.c ****             if (ret > 0) {
 383:C:/Users/stapi/OneDrive/Desktop/GD32VW553/V1_MQTT_OK/GD32VW55X_Wifi_BLE_SDK/GD32VW55x_RELEASE_V1.0.2/MSDK/cloud/alicloud/src/infra/utils/misc\utils_httpc.c ****                 utils_debug("Written %d bytes", ret);
 384:C:/Users/stapi/OneDrive/Desktop/GD32VW553/V1_MQTT_OK/GD32VW55X_Wifi_BLE_SDK/GD32VW55x_RELEASE_V1.0.2/MSDK/cloud/alicloud/src/infra/utils/misc\utils_httpc.c ****             } else if (ret == 0) {
 385:C:/Users/stapi/OneDrive/Desktop/GD32VW553/V1_MQTT_OK/GD32VW55X_Wifi_BLE_SDK/GD32VW55x_RELEASE_V1.0.2/MSDK/cloud/alicloud/src/infra/utils/misc\utils_httpc.c ****                 utils_err("ret == 0, Connection was closed by server");
 386:C:/Users/stapi/OneDrive/Desktop/GD32VW553/V1_MQTT_OK/GD32VW55X_Wifi_BLE_SDK/GD32VW55x_RELEASE_V1.0.2/MSDK/cloud/alicloud/src/infra/utils/misc\utils_httpc.c ****                 return ERROR_HTTP_CLOSED; /* Connection was closed by server */
 387:C:/Users/stapi/OneDrive/Desktop/GD32VW553/V1_MQTT_OK/GD32VW55X_Wifi_BLE_SDK/GD32VW55x_RELEASE_V1.0.2/MSDK/cloud/alicloud/src/infra/utils/misc\utils_httpc.c ****             } else {
 388:C:/Users/stapi/OneDrive/Desktop/GD32VW553/V1_MQTT_OK/GD32VW55X_Wifi_BLE_SDK/GD32VW55x_RELEASE_V1.0.2/MSDK/cloud/alicloud/src/infra/utils/misc\utils_httpc.c ****                 utils_err("Connection error (send returned %d)", ret);
 389:C:/Users/stapi/OneDrive/Desktop/GD32VW553/V1_MQTT_OK/GD32VW55X_Wifi_BLE_SDK/GD32VW55x_RELEASE_V1.0.2/MSDK/cloud/alicloud/src/infra/utils/misc\utils_httpc.c ****                 return ERROR_HTTP_CONN;
 390:C:/Users/stapi/OneDrive/Desktop/GD32VW553/V1_MQTT_OK/GD32VW55X_Wifi_BLE_SDK/GD32VW55x_RELEASE_V1.0.2/MSDK/cloud/alicloud/src/infra/utils/misc\utils_httpc.c ****             }
 391:C:/Users/stapi/OneDrive/Desktop/GD32VW553/V1_MQTT_OK/GD32VW55X_Wifi_BLE_SDK/GD32VW55x_RELEASE_V1.0.2/MSDK/cloud/alicloud/src/infra/utils/misc\utils_httpc.c ****         }
 392:C:/Users/stapi/OneDrive/Desktop/GD32VW553/V1_MQTT_OK/GD32VW55X_Wifi_BLE_SDK/GD32VW55x_RELEASE_V1.0.2/MSDK/cloud/alicloud/src/infra/utils/misc\utils_httpc.c ****     }
 393:C:/Users/stapi/OneDrive/Desktop/GD32VW553/V1_MQTT_OK/GD32VW55X_Wifi_BLE_SDK/GD32VW55x_RELEASE_V1.0.2/MSDK/cloud/alicloud/src/infra/utils/misc\utils_httpc.c ****     return SUCCESS_RETURN;
 394:C:/Users/stapi/OneDrive/Desktop/GD32VW553/V1_MQTT_OK/GD32VW55X_Wifi_BLE_SDK/GD32VW55x_RELEASE_V1.0.2/MSDK/cloud/alicloud/src/infra/utils/misc\utils_httpc.c **** }
 395:C:/Users/stapi/OneDrive/Desktop/GD32VW553/V1_MQTT_OK/GD32VW55X_Wifi_BLE_SDK/GD32VW55x_RELEASE_V1.0.2/MSDK/cloud/alicloud/src/infra/utils/misc\utils_httpc.c **** 
 396:C:/Users/stapi/OneDrive/Desktop/GD32VW553/V1_MQTT_OK/GD32VW55X_Wifi_BLE_SDK/GD32VW55x_RELEASE_V1.0.2/MSDK/cloud/alicloud/src/infra/utils/misc\utils_httpc.c **** /* 0 on success, err code on failure */
 397:C:/Users/stapi/OneDrive/Desktop/GD32VW553/V1_MQTT_OK/GD32VW55X_Wifi_BLE_SDK/GD32VW55x_RELEASE_V1.0.2/MSDK/cloud/alicloud/src/infra/utils/misc\utils_httpc.c **** int httpclient_recv(httpclient_t *client, char *buf, int min_len, int max_len, int *p_read_len, uin
  34              		.loc 1 397 5
  35              		.cfi_startproc
  36              	.LVL0:
  37 0000 17030000 		call	t0,__riscv_save_4
  37      E7020300 
  38              		.cfi_offset 19, -20
  39              		.cfi_offset 18, -16
  40              		.cfi_offset 9, -12
  41              		.cfi_offset 8, -8
  42              		.cfi_offset 1, -4
  43              		.cfi_def_cfa_offset 32
  44              	.LVL1:
 398:C:/Users/stapi/OneDrive/Desktop/GD32VW553/V1_MQTT_OK/GD32VW55X_Wifi_BLE_SDK/GD32VW55x_RELEASE_V1.0.2/MSDK/cloud/alicloud/src/infra/utils/misc\utils_httpc.c **** {
 399:C:/Users/stapi/OneDrive/Desktop/GD32VW553/V1_MQTT_OK/GD32VW55X_Wifi_BLE_SDK/GD32VW55x_RELEASE_V1.0.2/MSDK/cloud/alicloud/src/infra/utils/misc\utils_httpc.c ****     int ret = 0;
  45              		.loc 1 399 5
 400:C:/Users/stapi/OneDrive/Desktop/GD32VW553/V1_MQTT_OK/GD32VW55X_Wifi_BLE_SDK/GD32VW55x_RELEASE_V1.0.2/MSDK/cloud/alicloud/src/infra/utils/misc\utils_httpc.c ****     iotx_time_t timer;
  46              		.loc 1 400 5
 401:C:/Users/stapi/OneDrive/Desktop/GD32VW553/V1_MQTT_OK/GD32VW55X_Wifi_BLE_SDK/GD32VW55x_RELEASE_V1.0.2/MSDK/cloud/alicloud/src/infra/utils/misc\utils_httpc.c **** 
 402:C:/Users/stapi/OneDrive/Desktop/GD32VW553/V1_MQTT_OK/GD32VW55X_Wifi_BLE_SDK/GD32VW55x_RELEASE_V1.0.2/MSDK/cloud/alicloud/src/infra/utils/misc\utils_httpc.c ****     iotx_time_init(&timer);
  47              		.loc 1 402 5
 397:C:/Users/stapi/OneDrive/Desktop/GD32VW553/V1_MQTT_OK/GD32VW55X_Wifi_BLE_SDK/GD32VW55x_RELEASE_V1.0.2/MSDK/cloud/alicloud/src/infra/utils/misc\utils_httpc.c **** {
  48              		.loc 1 397 5 is_stmt 0
  49 0008 0111     		addi	sp,sp,-32
  50              		.cfi_def_cfa_offset 64
 397:C:/Users/stapi/OneDrive/Desktop/GD32VW553/V1_MQTT_OK/GD32VW55X_Wifi_BLE_SDK/GD32VW55x_RELEASE_V1.0.2/MSDK/cloud/alicloud/src/infra/utils/misc\utils_httpc.c **** {
  51              		.loc 1 397 5
  52 000a AA84     		mv	s1,a0
  53              		.loc 1 402 5
  54 000c 6808     		addi	a0,sp,28
  55              	.LVL2:
 397:C:/Users/stapi/OneDrive/Desktop/GD32VW553/V1_MQTT_OK/GD32VW55X_Wifi_BLE_SDK/GD32VW55x_RELEASE_V1.0.2/MSDK/cloud/alicloud/src/infra/utils/misc\utils_httpc.c **** {
  56              		.loc 1 397 5
  57 000e 3684     		mv	s0,a3
  58 0010 32C6     		sw	a2,12(sp)
  59 0012 3AC4     		sw	a4,8(sp)
  60 0014 2E89     		mv	s2,a1
  61              		.loc 1 402 5
  62 0016 97000000 		call	iotx_time_init
  62      E7800000 
  63              	.LVL3:
 403:C:/Users/stapi/OneDrive/Desktop/GD32VW553/V1_MQTT_OK/GD32VW55X_Wifi_BLE_SDK/GD32VW55x_RELEASE_V1.0.2/MSDK/cloud/alicloud/src/infra/utils/misc\utils_httpc.c ****     utils_time_countdown_ms(&timer, timeout_ms);
  64              		.loc 1 403 5 is_stmt 1
  65 001e A245     		lw	a1,8(sp)
  66 0020 6808     		addi	a0,sp,28
  67 0022 97000000 		call	utils_time_countdown_ms
  67      E7800000 
  68              	.LVL4:
 404:C:/Users/stapi/OneDrive/Desktop/GD32VW553/V1_MQTT_OK/GD32VW55X_Wifi_BLE_SDK/GD32VW55x_RELEASE_V1.0.2/MSDK/cloud/alicloud/src/infra/utils/misc\utils_httpc.c **** 
 405:C:/Users/stapi/OneDrive/Desktop/GD32VW553/V1_MQTT_OK/GD32VW55X_Wifi_BLE_SDK/GD32VW55x_RELEASE_V1.0.2/MSDK/cloud/alicloud/src/infra/utils/misc\utils_httpc.c ****     *p_read_len = 0;
  69              		.loc 1 405 5
 406:C:/Users/stapi/OneDrive/Desktop/GD32VW553/V1_MQTT_OK/GD32VW55X_Wifi_BLE_SDK/GD32VW55x_RELEASE_V1.0.2/MSDK/cloud/alicloud/src/infra/utils/misc\utils_httpc.c **** 
 407:C:/Users/stapi/OneDrive/Desktop/GD32VW553/V1_MQTT_OK/GD32VW55X_Wifi_BLE_SDK/GD32VW55x_RELEASE_V1.0.2/MSDK/cloud/alicloud/src/infra/utils/misc\utils_httpc.c ****     ret = client->net.read(&client->net, buf, max_len, iotx_time_left(&timer));
  70              		.loc 1 407 11 is_stmt 0
  71 002a 6808     		addi	a0,sp,28
 405:C:/Users/stapi/OneDrive/Desktop/GD32VW553/V1_MQTT_OK/GD32VW55X_Wifi_BLE_SDK/GD32VW55x_RELEASE_V1.0.2/MSDK/cloud/alicloud/src/infra/utils/misc\utils_httpc.c **** 
  72              		.loc 1 405 17
  73 002c 23200400 		sw	zero,0(s0)
  74              		.loc 1 407 5 is_stmt 1
  75              		.loc 1 407 22 is_stmt 0
  76 0030 83A94401 		lw	s3,20(s1)
  77              		.loc 1 407 11
  78 0034 97000000 		call	iotx_time_left
  78      E7800000 
  79              	.LVL5:
  80 003c 3246     		lw	a2,12(sp)
  81 003e AA86     		mv	a3,a0
  82 0040 CA85     		mv	a1,s2
  83 0042 13854400 		addi	a0,s1,4
  84 0046 8299     		jalr	s3
  85              	.LVL6:
  86 0048 AA87     		mv	a5,a0
  87              	.LVL7:
 408:C:/Users/stapi/OneDrive/Desktop/GD32VW553/V1_MQTT_OK/GD32VW55X_Wifi_BLE_SDK/GD32VW55x_RELEASE_V1.0.2/MSDK/cloud/alicloud/src/infra/utils/misc\utils_httpc.c ****     /* utils_debug("Recv: | %s", buf); */
 409:C:/Users/stapi/OneDrive/Desktop/GD32VW553/V1_MQTT_OK/GD32VW55X_Wifi_BLE_SDK/GD32VW55x_RELEASE_V1.0.2/MSDK/cloud/alicloud/src/infra/utils/misc\utils_httpc.c **** 
 410:C:/Users/stapi/OneDrive/Desktop/GD32VW553/V1_MQTT_OK/GD32VW55X_Wifi_BLE_SDK/GD32VW55x_RELEASE_V1.0.2/MSDK/cloud/alicloud/src/infra/utils/misc\utils_httpc.c ****     if (ret > 0) {
  88              		.loc 1 410 5 is_stmt 1
  89              		.loc 1 410 8 is_stmt 0
  90 004a 635CA002 		ble	a0,zero,.L2
 411:C:/Users/stapi/OneDrive/Desktop/GD32VW553/V1_MQTT_OK/GD32VW55X_Wifi_BLE_SDK/GD32VW55x_RELEASE_V1.0.2/MSDK/cloud/alicloud/src/infra/utils/misc\utils_httpc.c ****         *p_read_len = ret;
  91              		.loc 1 411 9 is_stmt 1
  92              		.loc 1 411 21 is_stmt 0
  93 004e 08C0     		sw	a0,0(s0)
 412:C:/Users/stapi/OneDrive/Desktop/GD32VW553/V1_MQTT_OK/GD32VW55X_Wifi_BLE_SDK/GD32VW55x_RELEASE_V1.0.2/MSDK/cloud/alicloud/src/infra/utils/misc\utils_httpc.c ****     } else if (ret == 0) {
 413:C:/Users/stapi/OneDrive/Desktop/GD32VW553/V1_MQTT_OK/GD32VW55X_Wifi_BLE_SDK/GD32VW55x_RELEASE_V1.0.2/MSDK/cloud/alicloud/src/infra/utils/misc\utils_httpc.c ****         /* timeout */
 414:C:/Users/stapi/OneDrive/Desktop/GD32VW553/V1_MQTT_OK/GD32VW55X_Wifi_BLE_SDK/GD32VW55x_RELEASE_V1.0.2/MSDK/cloud/alicloud/src/infra/utils/misc\utils_httpc.c ****         return FAIL_RETURN;
 415:C:/Users/stapi/OneDrive/Desktop/GD32VW553/V1_MQTT_OK/GD32VW55X_Wifi_BLE_SDK/GD32VW55x_RELEASE_V1.0.2/MSDK/cloud/alicloud/src/infra/utils/misc\utils_httpc.c ****     } else if (-1 == ret) {
 416:C:/Users/stapi/OneDrive/Desktop/GD32VW553/V1_MQTT_OK/GD32VW55X_Wifi_BLE_SDK/GD32VW55x_RELEASE_V1.0.2/MSDK/cloud/alicloud/src/infra/utils/misc\utils_httpc.c ****         utils_err("Connection closed.");
 417:C:/Users/stapi/OneDrive/Desktop/GD32VW553/V1_MQTT_OK/GD32VW55X_Wifi_BLE_SDK/GD32VW55x_RELEASE_V1.0.2/MSDK/cloud/alicloud/src/infra/utils/misc\utils_httpc.c ****         return ERROR_HTTP_CONN;
 418:C:/Users/stapi/OneDrive/Desktop/GD32VW553/V1_MQTT_OK/GD32VW55X_Wifi_BLE_SDK/GD32VW55x_RELEASE_V1.0.2/MSDK/cloud/alicloud/src/infra/utils/misc\utils_httpc.c ****     } else {
 419:C:/Users/stapi/OneDrive/Desktop/GD32VW553/V1_MQTT_OK/GD32VW55X_Wifi_BLE_SDK/GD32VW55x_RELEASE_V1.0.2/MSDK/cloud/alicloud/src/infra/utils/misc\utils_httpc.c ****         utils_err("Connection error (recv returned %d)", ret);
 420:C:/Users/stapi/OneDrive/Desktop/GD32VW553/V1_MQTT_OK/GD32VW55X_Wifi_BLE_SDK/GD32VW55x_RELEASE_V1.0.2/MSDK/cloud/alicloud/src/infra/utils/misc\utils_httpc.c ****         return ERROR_HTTP_CONN;
 421:C:/Users/stapi/OneDrive/Desktop/GD32VW553/V1_MQTT_OK/GD32VW55X_Wifi_BLE_SDK/GD32VW55x_RELEASE_V1.0.2/MSDK/cloud/alicloud/src/infra/utils/misc\utils_httpc.c ****     }
 422:C:/Users/stapi/OneDrive/Desktop/GD32VW553/V1_MQTT_OK/GD32VW55X_Wifi_BLE_SDK/GD32VW55x_RELEASE_V1.0.2/MSDK/cloud/alicloud/src/infra/utils/misc\utils_httpc.c ****     utils_debug("%u bytes has been read", *p_read_len);
  94              		.loc 1 422 5 is_stmt 1
  95 0050 37070000 		lui	a4,%hi(.LC0)
  96 0054 B7050000 		lui	a1,%hi(.LANCHOR0)
  97 0058 37050000 		lui	a0,%hi(.LC1)
  98              	.LVL8:
  99 005c 13050500 		addi	a0,a0,%lo(.LC1)
 100 0060 13070700 		addi	a4,a4,%lo(.LC0)
 101 0064 9546     		li	a3,5
 102 0066 1306601A 		li	a2,422
 103 006a 93850500 		addi	a1,a1,%lo(.LANCHOR0)
 104 006e 97000000 		call	LITE_syslog
 104      E7800000 
 105              	.LVL9:
 423:C:/Users/stapi/OneDrive/Desktop/GD32VW553/V1_MQTT_OK/GD32VW55X_Wifi_BLE_SDK/GD32VW55x_RELEASE_V1.0.2/MSDK/cloud/alicloud/src/infra/utils/misc\utils_httpc.c ****     return 0;
 106              		.loc 1 423 5
 107              		.loc 1 423 12 is_stmt 0
 108 0076 0145     		li	a0,0
 109              	.LVL10:
 110              	.L1:
 424:C:/Users/stapi/OneDrive/Desktop/GD32VW553/V1_MQTT_OK/GD32VW55X_Wifi_BLE_SDK/GD32VW55x_RELEASE_V1.0.2/MSDK/cloud/alicloud/src/infra/utils/misc\utils_httpc.c **** 
 425:C:/Users/stapi/OneDrive/Desktop/GD32VW553/V1_MQTT_OK/GD32VW55X_Wifi_BLE_SDK/GD32VW55x_RELEASE_V1.0.2/MSDK/cloud/alicloud/src/infra/utils/misc\utils_httpc.c ****     /*    while (readLen <= min_len) { */
 426:C:/Users/stapi/OneDrive/Desktop/GD32VW553/V1_MQTT_OK/GD32VW55X_Wifi_BLE_SDK/GD32VW55x_RELEASE_V1.0.2/MSDK/cloud/alicloud/src/infra/utils/misc\utils_httpc.c ****     /*        buf[readLen] = '\0'; */
 427:C:/Users/stapi/OneDrive/Desktop/GD32VW553/V1_MQTT_OK/GD32VW55X_Wifi_BLE_SDK/GD32VW55x_RELEASE_V1.0.2/MSDK/cloud/alicloud/src/infra/utils/misc\utils_httpc.c ****     /*        if (readLen < min_len) { */
 428:C:/Users/stapi/OneDrive/Desktop/GD32VW553/V1_MQTT_OK/GD32VW55X_Wifi_BLE_SDK/GD32VW55x_RELEASE_V1.0.2/MSDK/cloud/alicloud/src/infra/utils/misc\utils_httpc.c ****     /*            //wait to read HTTP respond data */
 429:C:/Users/stapi/OneDrive/Desktop/GD32VW553/V1_MQTT_OK/GD32VW55X_Wifi_BLE_SDK/GD32VW55x_RELEASE_V1.0.2/MSDK/cloud/alicloud/src/infra/utils/misc\utils_httpc.c ****     /*            ret = client->net.read(&client->net, buf + readLen, min_len - readLen, utils_time
 430:C:/Users/stapi/OneDrive/Desktop/GD32VW553/V1_MQTT_OK/GD32VW55X_Wifi_BLE_SDK/GD32VW55x_RELEASE_V1.0.2/MSDK/cloud/alicloud/src/infra/utils/misc\utils_httpc.c ****     /*        } else { */
 431:C:/Users/stapi/OneDrive/Desktop/GD32VW553/V1_MQTT_OK/GD32VW55X_Wifi_BLE_SDK/GD32VW55x_RELEASE_V1.0.2/MSDK/cloud/alicloud/src/infra/utils/misc\utils_httpc.c ****     /*            //read the rest data in TCP buffer (with little wait time) */
 432:C:/Users/stapi/OneDrive/Desktop/GD32VW553/V1_MQTT_OK/GD32VW55X_Wifi_BLE_SDK/GD32VW55x_RELEASE_V1.0.2/MSDK/cloud/alicloud/src/infra/utils/misc\utils_httpc.c ****     /*            ret = client->net.read(&client->net, buf + readLen, max_len - readLen, 100); */
 433:C:/Users/stapi/OneDrive/Desktop/GD32VW553/V1_MQTT_OK/GD32VW55X_Wifi_BLE_SDK/GD32VW55x_RELEASE_V1.0.2/MSDK/cloud/alicloud/src/infra/utils/misc\utils_httpc.c ****     /*        } */
 434:C:/Users/stapi/OneDrive/Desktop/GD32VW553/V1_MQTT_OK/GD32VW55X_Wifi_BLE_SDK/GD32VW55x_RELEASE_V1.0.2/MSDK/cloud/alicloud/src/infra/utils/misc\utils_httpc.c ****     /* */
 435:C:/Users/stapi/OneDrive/Desktop/GD32VW553/V1_MQTT_OK/GD32VW55X_Wifi_BLE_SDK/GD32VW55x_RELEASE_V1.0.2/MSDK/cloud/alicloud/src/infra/utils/misc\utils_httpc.c ****     /*        if (ret > 0) { */
 436:C:/Users/stapi/OneDrive/Desktop/GD32VW553/V1_MQTT_OK/GD32VW55X_Wifi_BLE_SDK/GD32VW55x_RELEASE_V1.0.2/MSDK/cloud/alicloud/src/infra/utils/misc\utils_httpc.c ****     /*            readLen += ret; */
 437:C:/Users/stapi/OneDrive/Desktop/GD32VW553/V1_MQTT_OK/GD32VW55X_Wifi_BLE_SDK/GD32VW55x_RELEASE_V1.0.2/MSDK/cloud/alicloud/src/infra/utils/misc\utils_httpc.c ****     /*        } else if (ret == 0) { */
 438:C:/Users/stapi/OneDrive/Desktop/GD32VW553/V1_MQTT_OK/GD32VW55X_Wifi_BLE_SDK/GD32VW55x_RELEASE_V1.0.2/MSDK/cloud/alicloud/src/infra/utils/misc\utils_httpc.c ****     /*            //timeout */
 439:C:/Users/stapi/OneDrive/Desktop/GD32VW553/V1_MQTT_OK/GD32VW55X_Wifi_BLE_SDK/GD32VW55x_RELEASE_V1.0.2/MSDK/cloud/alicloud/src/infra/utils/misc\utils_httpc.c ****     /*            break; */
 440:C:/Users/stapi/OneDrive/Desktop/GD32VW553/V1_MQTT_OK/GD32VW55X_Wifi_BLE_SDK/GD32VW55x_RELEASE_V1.0.2/MSDK/cloud/alicloud/src/infra/utils/misc\utils_httpc.c ****     /*        } else if (-1 == ret) { */
 441:C:/Users/stapi/OneDrive/Desktop/GD32VW553/V1_MQTT_OK/GD32VW55X_Wifi_BLE_SDK/GD32VW55x_RELEASE_V1.0.2/MSDK/cloud/alicloud/src/infra/utils/misc\utils_httpc.c ****     /*            log_info("Connection closed. %u bytes be read", readLen); */
 442:C:/Users/stapi/OneDrive/Desktop/GD32VW553/V1_MQTT_OK/GD32VW55X_Wifi_BLE_SDK/GD32VW55x_RELEASE_V1.0.2/MSDK/cloud/alicloud/src/infra/utils/misc\utils_httpc.c ****     /*            break; */
 443:C:/Users/stapi/OneDrive/Desktop/GD32VW553/V1_MQTT_OK/GD32VW55X_Wifi_BLE_SDK/GD32VW55x_RELEASE_V1.0.2/MSDK/cloud/alicloud/src/infra/utils/misc\utils_httpc.c ****     /*        } else { */
 444:C:/Users/stapi/OneDrive/Desktop/GD32VW553/V1_MQTT_OK/GD32VW55X_Wifi_BLE_SDK/GD32VW55x_RELEASE_V1.0.2/MSDK/cloud/alicloud/src/infra/utils/misc\utils_httpc.c ****     /*            log_err("Connection error (recv returned %d)", ret); */
 445:C:/Users/stapi/OneDrive/Desktop/GD32VW553/V1_MQTT_OK/GD32VW55X_Wifi_BLE_SDK/GD32VW55x_RELEASE_V1.0.2/MSDK/cloud/alicloud/src/infra/utils/misc\utils_httpc.c ****     /*            return ERROR_HTTP_CONN; */
 446:C:/Users/stapi/OneDrive/Desktop/GD32VW553/V1_MQTT_OK/GD32VW55X_Wifi_BLE_SDK/GD32VW55x_RELEASE_V1.0.2/MSDK/cloud/alicloud/src/infra/utils/misc\utils_httpc.c ****     /*        } */
 447:C:/Users/stapi/OneDrive/Desktop/GD32VW553/V1_MQTT_OK/GD32VW55X_Wifi_BLE_SDK/GD32VW55x_RELEASE_V1.0.2/MSDK/cloud/alicloud/src/infra/utils/misc\utils_httpc.c ****     /*    } */
 448:C:/Users/stapi/OneDrive/Desktop/GD32VW553/V1_MQTT_OK/GD32VW55X_Wifi_BLE_SDK/GD32VW55x_RELEASE_V1.0.2/MSDK/cloud/alicloud/src/infra/utils/misc\utils_httpc.c ****     /* */
 449:C:/Users/stapi/OneDrive/Desktop/GD32VW553/V1_MQTT_OK/GD32VW55X_Wifi_BLE_SDK/GD32VW55x_RELEASE_V1.0.2/MSDK/cloud/alicloud/src/infra/utils/misc\utils_httpc.c ****     /*    log_info("%u bytes be read", readLen); */
 450:C:/Users/stapi/OneDrive/Desktop/GD32VW553/V1_MQTT_OK/GD32VW55X_Wifi_BLE_SDK/GD32VW55x_RELEASE_V1.0.2/MSDK/cloud/alicloud/src/infra/utils/misc\utils_httpc.c ****     /*    *p_read_len = readLen; */
 451:C:/Users/stapi/OneDrive/Desktop/GD32VW553/V1_MQTT_OK/GD32VW55X_Wifi_BLE_SDK/GD32VW55x_RELEASE_V1.0.2/MSDK/cloud/alicloud/src/infra/utils/misc\utils_httpc.c ****     /*    return 0; */
 452:C:/Users/stapi/OneDrive/Desktop/GD32VW553/V1_MQTT_OK/GD32VW55X_Wifi_BLE_SDK/GD32VW55x_RELEASE_V1.0.2/MSDK/cloud/alicloud/src/infra/utils/misc\utils_httpc.c **** }
 111              		.loc 1 452 1
 112 0078 0561     		addi	sp,sp,32
 113              		.cfi_remember_state
 114              		.cfi_def_cfa_offset 0
 115              	.LVL11:
 116 007a 17030000 		tail	__riscv_restore_4
 116      67000300 
 117              		.cfi_restore 19
 118              		.cfi_restore 18
 119              		.cfi_restore 9
 120              		.cfi_restore 8
 121              		.cfi_restore 1
 122              		.cfi_def_cfa_offset -32
 123              	.LVL12:
 124              	.L2:
 125              		.cfi_restore_state
 412:C:/Users/stapi/OneDrive/Desktop/GD32VW553/V1_MQTT_OK/GD32VW55X_Wifi_BLE_SDK/GD32VW55x_RELEASE_V1.0.2/MSDK/cloud/alicloud/src/infra/utils/misc\utils_httpc.c ****         /* timeout */
 126              		.loc 1 412 12 is_stmt 1
 414:C:/Users/stapi/OneDrive/Desktop/GD32VW553/V1_MQTT_OK/GD32VW55X_Wifi_BLE_SDK/GD32VW55x_RELEASE_V1.0.2/MSDK/cloud/alicloud/src/infra/utils/misc\utils_httpc.c ****     } else if (-1 == ret) {
 127              		.loc 1 414 16 is_stmt 0
 128 0082 7D55     		li	a0,-1
 129              	.LVL13:
 412:C:/Users/stapi/OneDrive/Desktop/GD32VW553/V1_MQTT_OK/GD32VW55X_Wifi_BLE_SDK/GD32VW55x_RELEASE_V1.0.2/MSDK/cloud/alicloud/src/infra/utils/misc\utils_httpc.c ****         /* timeout */
 130              		.loc 1 412 15
 131 0084 F5DB     		beq	a5,zero,.L1
 415:C:/Users/stapi/OneDrive/Desktop/GD32VW553/V1_MQTT_OK/GD32VW55X_Wifi_BLE_SDK/GD32VW55x_RELEASE_V1.0.2/MSDK/cloud/alicloud/src/infra/utils/misc\utils_httpc.c ****         utils_err("Connection closed.");
 132              		.loc 1 415 12 is_stmt 1
 415:C:/Users/stapi/OneDrive/Desktop/GD32VW553/V1_MQTT_OK/GD32VW55X_Wifi_BLE_SDK/GD32VW55x_RELEASE_V1.0.2/MSDK/cloud/alicloud/src/infra/utils/misc\utils_httpc.c ****         utils_err("Connection closed.");
 133              		.loc 1 415 15 is_stmt 0
 134 0086 7D57     		li	a4,-1
 135 0088 37050000 		lui	a0,%hi(.LC2)
 136 008c 37040000 		lui	s0,%hi(.LC4)
 137              	.LVL14:
 138 0090 6398E702 		bne	a5,a4,.L4
 416:C:/Users/stapi/OneDrive/Desktop/GD32VW553/V1_MQTT_OK/GD32VW55X_Wifi_BLE_SDK/GD32VW55x_RELEASE_V1.0.2/MSDK/cloud/alicloud/src/infra/utils/misc\utils_httpc.c ****         return ERROR_HTTP_CONN;
 139              		.loc 1 416 9 is_stmt 1
 416:C:/Users/stapi/OneDrive/Desktop/GD32VW553/V1_MQTT_OK/GD32VW55X_Wifi_BLE_SDK/GD32VW55x_RELEASE_V1.0.2/MSDK/cloud/alicloud/src/infra/utils/misc\utils_httpc.c ****         return ERROR_HTTP_CONN;
 140              		.loc 1 416 9
 141 0094 13050500 		addi	a0,a0,%lo(.LC2)
 142 0098 97000000 		call	HAL_Printf
 142      E7800000 
 143              	.LVL15:
 416:C:/Users/stapi/OneDrive/Desktop/GD32VW553/V1_MQTT_OK/GD32VW55X_Wifi_BLE_SDK/GD32VW55x_RELEASE_V1.0.2/MSDK/cloud/alicloud/src/infra/utils/misc\utils_httpc.c ****         return ERROR_HTTP_CONN;
 144              		.loc 1 416 9
 145 00a0 37050000 		lui	a0,%hi(.LC3)
 146 00a4 13050500 		addi	a0,a0,%lo(.LC3)
 147 00a8 97000000 		call	HAL_Printf
 147      E7800000 
 148              	.LVL16:
 416:C:/Users/stapi/OneDrive/Desktop/GD32VW553/V1_MQTT_OK/GD32VW55X_Wifi_BLE_SDK/GD32VW55x_RELEASE_V1.0.2/MSDK/cloud/alicloud/src/infra/utils/misc\utils_httpc.c ****         return ERROR_HTTP_CONN;
 149              		.loc 1 416 9
 150              	.L7:
 419:C:/Users/stapi/OneDrive/Desktop/GD32VW553/V1_MQTT_OK/GD32VW55X_Wifi_BLE_SDK/GD32VW55x_RELEASE_V1.0.2/MSDK/cloud/alicloud/src/infra/utils/misc\utils_httpc.c ****         return ERROR_HTTP_CONN;
 151              		.loc 1 419 9
 152 00b0 13050400 		addi	a0,s0,%lo(.LC4)
 153 00b4 97000000 		call	HAL_Printf
 153      E7800000 
 154              	.LVL17:
 419:C:/Users/stapi/OneDrive/Desktop/GD32VW553/V1_MQTT_OK/GD32VW55X_Wifi_BLE_SDK/GD32VW55x_RELEASE_V1.0.2/MSDK/cloud/alicloud/src/infra/utils/misc\utils_httpc.c ****         return ERROR_HTTP_CONN;
 155              		.loc 1 419 9
 420:C:/Users/stapi/OneDrive/Desktop/GD32VW553/V1_MQTT_OK/GD32VW55X_Wifi_BLE_SDK/GD32VW55x_RELEASE_V1.0.2/MSDK/cloud/alicloud/src/infra/utils/misc\utils_httpc.c ****     }
 156              		.loc 1 420 9
 420:C:/Users/stapi/OneDrive/Desktop/GD32VW553/V1_MQTT_OK/GD32VW55X_Wifi_BLE_SDK/GD32VW55x_RELEASE_V1.0.2/MSDK/cloud/alicloud/src/infra/utils/misc\utils_httpc.c ****     }
 157              		.loc 1 420 16 is_stmt 0
 158 00bc 6155     		li	a0,-8
 159 00be 6DBF     		j	.L1
 160              	.LVL18:
 161              	.L4:
 419:C:/Users/stapi/OneDrive/Desktop/GD32VW553/V1_MQTT_OK/GD32VW55X_Wifi_BLE_SDK/GD32VW55x_RELEASE_V1.0.2/MSDK/cloud/alicloud/src/infra/utils/misc\utils_httpc.c ****         return ERROR_HTTP_CONN;
 162              		.loc 1 419 9
 163 00c0 13050500 		addi	a0,a0,%lo(.LC2)
 164 00c4 3EC4     		sw	a5,8(sp)
 165              	.LVL19:
 419:C:/Users/stapi/OneDrive/Desktop/GD32VW553/V1_MQTT_OK/GD32VW55X_Wifi_BLE_SDK/GD32VW55x_RELEASE_V1.0.2/MSDK/cloud/alicloud/src/infra/utils/misc\utils_httpc.c ****         return ERROR_HTTP_CONN;
 166              		.loc 1 419 9 is_stmt 1
 419:C:/Users/stapi/OneDrive/Desktop/GD32VW553/V1_MQTT_OK/GD32VW55X_Wifi_BLE_SDK/GD32VW55x_RELEASE_V1.0.2/MSDK/cloud/alicloud/src/infra/utils/misc\utils_httpc.c ****         return ERROR_HTTP_CONN;
 167              		.loc 1 419 9
 168 00c6 97000000 		call	HAL_Printf
 168      E7800000 
 169              	.LVL20:
 419:C:/Users/stapi/OneDrive/Desktop/GD32VW553/V1_MQTT_OK/GD32VW55X_Wifi_BLE_SDK/GD32VW55x_RELEASE_V1.0.2/MSDK/cloud/alicloud/src/infra/utils/misc\utils_httpc.c ****         return ERROR_HTTP_CONN;
 170              		.loc 1 419 9
 171 00ce A247     		lw	a5,8(sp)
 172 00d0 37050000 		lui	a0,%hi(.LC5)
 173 00d4 13050500 		addi	a0,a0,%lo(.LC5)
 174 00d8 BE85     		mv	a1,a5
 175 00da 97000000 		call	HAL_Printf
 175      E7800000 
 176              	.LVL21:
 177 00e2 F9B7     		j	.L7
 178              		.cfi_endproc
 179              	.LFE40:
 181              		.section	.rodata.httpclient_retrieve_content.str1.4,"aMS",@progbits,1
 182              		.align	2
 183              	.LC6:
 184 0000 43757272 		.string	"Current data: %s"
 184      656E7420 
 184      64617461 
 184      3A202573 
 184      00
 185 0011 000000   		.align	2
 186              	.LC7:
 187 0014 64617461 		.string	"data len: %d %d"
 187      206C656E 
 187      3A202564 
 187      20256400 
 188              		.align	2
 189              	.LC8:
 190 0024 72657420 		.string	"ret == ERROR_HTTP_CONN"
 190      3D3D2045 
 190      52524F52 
 190      5F485454 
 190      505F434F 
 191 003b 00       		.align	2
 192              	.LC9:
 193 003c 6E6F206D 		.string	"no more len == 0"
 193      6F726520 
 193      6C656E20 
 193      3D3D2030 
 193      00
 194 004d 000000   		.align	2
 195              	.LC10:
 196 0050 5B696E66 		.string	"[inf] "
 196      5D2000
 197 0057 00       		.align	2
 198              	.LC11:
 199 0058 6E6F206D 		.string	"no more (last chunk)"
 199      6F726520 
 199      286C6173 
 199      74206368 
 199      756E6B29 
 200 006d 000000   		.align	2
 201              	.LC12:
 202 0070 436F756C 		.string	"Could not read chunk length"
 202      64206E6F 
 202      74207265 
 202      61642063 
 202      68756E6B 
 203              		.align	2
 204              	.LC13:
 205 008c 546F7461 		.string	"Total-Payload: %d Bytes; Read: %d Bytes"
 205      6C2D5061 
 205      796C6F61 
 205      643A2025 
 205      64204279 
 206              		.align	2
 207              	.LC14:
 208 00b4 6D656D6D 		.string	"memmove %d %d %d\n"
 208      6F766520 
 208      25642025 
 208      64202564 
 208      0A00
 209 00c6 0000     		.align	2
 210              	.LC15:
 211 00c8 65787465 		.string	"extend countdown_ms to avoid NULL input to select, tired %d times"
 211      6E642063 
 211      6F756E74 
 211      646F776E 
 211      5F6D7320 
 212 010a 0000     		.align	2
 213              	.LC16:
 214 010c 64656164 		.string	"deadloop detected, exit"
 214      6C6F6F70 
 214      20646574 
 214      65637465 
 214      642C2065 
 215              		.align	2
 216              	.LC17:
 217 0124 65787465 		.string	"extend timer for too many times, exit"
 217      6E642074 
 217      696D6572 
 217      20666F72 
 217      20746F6F 
 218 014a 0000     		.align	2
 219              	.LC18:
 220 014c 466F726D 		.string	"Format error, %s"
 220      61742065 
 220      72726F72 
 220      2C202573 
 220      00
 221 015d 000000   		.align	2
 222              	.LC19:
 223 0160 6E6F206D 		.string	"no more (content-length)"
 223      6F726520 
 223      28636F6E 
 223      74656E74 
 223      2D6C656E 
 224              		.section	.text.httpclient_retrieve_content,"ax",@progbits
 225              		.align	1
 227              	httpclient_retrieve_content:
 228              	.LFB29:
 453:C:/Users/stapi/OneDrive/Desktop/GD32VW553/V1_MQTT_OK/GD32VW55X_Wifi_BLE_SDK/GD32VW55x_RELEASE_V1.0.2/MSDK/cloud/alicloud/src/infra/utils/misc\utils_httpc.c **** 
 454:C:/Users/stapi/OneDrive/Desktop/GD32VW553/V1_MQTT_OK/GD32VW55X_Wifi_BLE_SDK/GD32VW55x_RELEASE_V1.0.2/MSDK/cloud/alicloud/src/infra/utils/misc\utils_httpc.c **** int httpclient_retrieve_content(httpclient_t *client, char *data, int len,
 455:C:/Users/stapi/OneDrive/Desktop/GD32VW553/V1_MQTT_OK/GD32VW55X_Wifi_BLE_SDK/GD32VW55x_RELEASE_V1.0.2/MSDK/cloud/alicloud/src/infra/utils/misc\utils_httpc.c ****                                 uint32_t timeout_ms, httpclient_data_t *client_data)
 456:C:/Users/stapi/OneDrive/Desktop/GD32VW553/V1_MQTT_OK/GD32VW55X_Wifi_BLE_SDK/GD32VW55x_RELEASE_V1.0.2/MSDK/cloud/alicloud/src/infra/utils/misc\utils_httpc.c **** {
 229              		.loc 1 456 1
 230              		.cfi_startproc
 231              	.LVL22:
 232 0000 17030000 		call	t0,__riscv_save_12
 232      E7020300 
 233              		.cfi_offset 27, -52
 234              		.cfi_offset 26, -48
 235              		.cfi_offset 25, -44
 236              		.cfi_offset 24, -40
 237              		.cfi_offset 23, -36
 238              		.cfi_offset 22, -32
 239              		.cfi_offset 21, -28
 240              		.cfi_offset 20, -24
 241              		.cfi_offset 19, -20
 242              		.cfi_offset 18, -16
 243              		.cfi_offset 9, -12
 244              		.cfi_offset 8, -8
 245              		.cfi_offset 1, -4
 246              		.cfi_def_cfa_offset 64
 457:C:/Users/stapi/OneDrive/Desktop/GD32VW553/V1_MQTT_OK/GD32VW55X_Wifi_BLE_SDK/GD32VW55x_RELEASE_V1.0.2/MSDK/cloud/alicloud/src/infra/utils/misc\utils_httpc.c ****     int count = 0;
 247              		.loc 1 457 5
 248              	.LVL23:
 458:C:/Users/stapi/OneDrive/Desktop/GD32VW553/V1_MQTT_OK/GD32VW55X_Wifi_BLE_SDK/GD32VW55x_RELEASE_V1.0.2/MSDK/cloud/alicloud/src/infra/utils/misc\utils_httpc.c ****     int templen = 0;
 249              		.loc 1 458 5
 459:C:/Users/stapi/OneDrive/Desktop/GD32VW553/V1_MQTT_OK/GD32VW55X_Wifi_BLE_SDK/GD32VW55x_RELEASE_V1.0.2/MSDK/cloud/alicloud/src/infra/utils/misc\utils_httpc.c ****     int crlf_pos;
 250              		.loc 1 459 5
 460:C:/Users/stapi/OneDrive/Desktop/GD32VW553/V1_MQTT_OK/GD32VW55X_Wifi_BLE_SDK/GD32VW55x_RELEASE_V1.0.2/MSDK/cloud/alicloud/src/infra/utils/misc\utils_httpc.c ****     iotx_time_t timer;
 251              		.loc 1 460 5
 461:C:/Users/stapi/OneDrive/Desktop/GD32VW553/V1_MQTT_OK/GD32VW55X_Wifi_BLE_SDK/GD32VW55x_RELEASE_V1.0.2/MSDK/cloud/alicloud/src/infra/utils/misc\utils_httpc.c **** 
 462:C:/Users/stapi/OneDrive/Desktop/GD32VW553/V1_MQTT_OK/GD32VW55X_Wifi_BLE_SDK/GD32VW55x_RELEASE_V1.0.2/MSDK/cloud/alicloud/src/infra/utils/misc\utils_httpc.c ****     iotx_time_init(&timer);
 252              		.loc 1 462 5
 456:C:/Users/stapi/OneDrive/Desktop/GD32VW553/V1_MQTT_OK/GD32VW55X_Wifi_BLE_SDK/GD32VW55x_RELEASE_V1.0.2/MSDK/cloud/alicloud/src/infra/utils/misc\utils_httpc.c ****     int count = 0;
 253              		.loc 1 456 1 is_stmt 0
 254 0008 0111     		addi	sp,sp,-32
 255              		.cfi_def_cfa_offset 96
 456:C:/Users/stapi/OneDrive/Desktop/GD32VW553/V1_MQTT_OK/GD32VW55X_Wifi_BLE_SDK/GD32VW55x_RELEASE_V1.0.2/MSDK/cloud/alicloud/src/infra/utils/misc\utils_httpc.c ****     int count = 0;
 256              		.loc 1 456 1
 257 000a 2A8B     		mv	s6,a0
 258              		.loc 1 462 5
 259 000c 2808     		addi	a0,sp,24
 260              	.LVL24:
 456:C:/Users/stapi/OneDrive/Desktop/GD32VW553/V1_MQTT_OK/GD32VW55X_Wifi_BLE_SDK/GD32VW55x_RELEASE_V1.0.2/MSDK/cloud/alicloud/src/infra/utils/misc\utils_httpc.c ****     int count = 0;
 261              		.loc 1 456 1
 262 000e 3A8D     		mv	s10,a4
 263 0010 2E84     		mv	s0,a1
 264 0012 32C6     		sw	a2,12(sp)
 265 0014 36C4     		sw	a3,8(sp)
 266              		.loc 1 462 5
 267 0016 97000000 		call	iotx_time_init
 267      E7800000 
 268              	.LVL25:
 463:C:/Users/stapi/OneDrive/Desktop/GD32VW553/V1_MQTT_OK/GD32VW55X_Wifi_BLE_SDK/GD32VW55x_RELEASE_V1.0.2/MSDK/cloud/alicloud/src/infra/utils/misc\utils_httpc.c ****     utils_time_countdown_ms(&timer, timeout_ms);
 269              		.loc 1 463 5 is_stmt 1
 270 001e A245     		lw	a1,8(sp)
 271 0020 2808     		addi	a0,sp,24
 464:C:/Users/stapi/OneDrive/Desktop/GD32VW553/V1_MQTT_OK/GD32VW55X_Wifi_BLE_SDK/GD32VW55x_RELEASE_V1.0.2/MSDK/cloud/alicloud/src/infra/utils/misc\utils_httpc.c **** 
 465:C:/Users/stapi/OneDrive/Desktop/GD32VW553/V1_MQTT_OK/GD32VW55X_Wifi_BLE_SDK/GD32VW55x_RELEASE_V1.0.2/MSDK/cloud/alicloud/src/infra/utils/misc\utils_httpc.c ****     /* Receive data */
 466:C:/Users/stapi/OneDrive/Desktop/GD32VW553/V1_MQTT_OK/GD32VW55X_Wifi_BLE_SDK/GD32VW55x_RELEASE_V1.0.2/MSDK/cloud/alicloud/src/infra/utils/misc\utils_httpc.c ****     utils_debug("Current data: %s", data);
 272              		.loc 1 466 5 is_stmt 0
 273 0022 B7090000 		lui	s3,%hi(.LANCHOR1)
 463:C:/Users/stapi/OneDrive/Desktop/GD32VW553/V1_MQTT_OK/GD32VW55X_Wifi_BLE_SDK/GD32VW55x_RELEASE_V1.0.2/MSDK/cloud/alicloud/src/infra/utils/misc\utils_httpc.c ****     utils_time_countdown_ms(&timer, timeout_ms);
 274              		.loc 1 463 5
 275 0026 97000000 		call	utils_time_countdown_ms
 275      E7800000 
 276              	.LVL26:
 277              		.loc 1 466 5 is_stmt 1
 278 002e 37070000 		lui	a4,%hi(.LC6)
 279 0032 370A0000 		lui	s4,%hi(.LC1)
 280 0036 A287     		mv	a5,s0
 281 0038 13070700 		addi	a4,a4,%lo(.LC6)
 282 003c 9546     		li	a3,5
 283 003e 1306201D 		li	a2,466
 284 0042 93850900 		addi	a1,s3,%lo(.LANCHOR1)
 285 0046 13050A00 		addi	a0,s4,%lo(.LC1)
 286 004a 97000000 		call	LITE_syslog
 286      E7800000 
 287              	.LVL27:
 467:C:/Users/stapi/OneDrive/Desktop/GD32VW553/V1_MQTT_OK/GD32VW55X_Wifi_BLE_SDK/GD32VW55x_RELEASE_V1.0.2/MSDK/cloud/alicloud/src/infra/utils/misc\utils_httpc.c **** 
 468:C:/Users/stapi/OneDrive/Desktop/GD32VW553/V1_MQTT_OK/GD32VW55X_Wifi_BLE_SDK/GD32VW55x_RELEASE_V1.0.2/MSDK/cloud/alicloud/src/infra/utils/misc\utils_httpc.c ****     client_data->is_more = IOT_TRUE;
 288              		.loc 1 468 5
 469:C:/Users/stapi/OneDrive/Desktop/GD32VW553/V1_MQTT_OK/GD32VW55X_Wifi_BLE_SDK/GD32VW55x_RELEASE_V1.0.2/MSDK/cloud/alicloud/src/infra/utils/misc\utils_httpc.c **** 
 470:C:/Users/stapi/OneDrive/Desktop/GD32VW553/V1_MQTT_OK/GD32VW55X_Wifi_BLE_SDK/GD32VW55x_RELEASE_V1.0.2/MSDK/cloud/alicloud/src/infra/utils/misc\utils_httpc.c ****     /* the header is not received finished */
 471:C:/Users/stapi/OneDrive/Desktop/GD32VW553/V1_MQTT_OK/GD32VW55X_Wifi_BLE_SDK/GD32VW55x_RELEASE_V1.0.2/MSDK/cloud/alicloud/src/infra/utils/misc\utils_httpc.c ****     if (client_data->response_content_len == -1 && client_data->is_chunked == IOT_FALSE) {
 289              		.loc 1 471 8 is_stmt 0
 290 0052 0327CD00 		lw	a4,12(s10)
 468:C:/Users/stapi/OneDrive/Desktop/GD32VW553/V1_MQTT_OK/GD32VW55X_Wifi_BLE_SDK/GD32VW55x_RELEASE_V1.0.2/MSDK/cloud/alicloud/src/infra/utils/misc\utils_httpc.c **** 
 291              		.loc 1 468 26
 292 0056 8547     		li	a5,1
 293 0058 2320FD00 		sw	a5,0(s10)
 294              		.loc 1 471 5 is_stmt 1
 295              		.loc 1 471 8 is_stmt 0
 296 005c FD57     		li	a5,-1
 297 005e 814A     		li	s5,0
 298 0060 6317F710 		bne	a4,a5,.L9
 299              		.loc 1 471 63 discriminator 1
 300 0064 83244D00 		lw	s1,4(s10)
 301              		.loc 1 471 49 discriminator 1
 302 0068 63930410 		bne	s1,zero,.L9
 303              	.LBB2:
 472:C:/Users/stapi/OneDrive/Desktop/GD32VW553/V1_MQTT_OK/GD32VW55X_Wifi_BLE_SDK/GD32VW55x_RELEASE_V1.0.2/MSDK/cloud/alicloud/src/infra/utils/misc\utils_httpc.c ****         /* can not enter this if */
 473:C:/Users/stapi/OneDrive/Desktop/GD32VW553/V1_MQTT_OK/GD32VW55X_Wifi_BLE_SDK/GD32VW55x_RELEASE_V1.0.2/MSDK/cloud/alicloud/src/infra/utils/misc\utils_httpc.c ****         while (1) {
 474:C:/Users/stapi/OneDrive/Desktop/GD32VW553/V1_MQTT_OK/GD32VW55X_Wifi_BLE_SDK/GD32VW55x_RELEASE_V1.0.2/MSDK/cloud/alicloud/src/infra/utils/misc\utils_httpc.c ****             int ret, max_len;
 475:C:/Users/stapi/OneDrive/Desktop/GD32VW553/V1_MQTT_OK/GD32VW55X_Wifi_BLE_SDK/GD32VW55x_RELEASE_V1.0.2/MSDK/cloud/alicloud/src/infra/utils/misc\utils_httpc.c ****             if (count + len < client_data->response_buf_len - 1) {
 476:C:/Users/stapi/OneDrive/Desktop/GD32VW553/V1_MQTT_OK/GD32VW55X_Wifi_BLE_SDK/GD32VW55x_RELEASE_V1.0.2/MSDK/cloud/alicloud/src/infra/utils/misc\utils_httpc.c ****                 memcpy(client_data->response_buf + count, data, len);
 477:C:/Users/stapi/OneDrive/Desktop/GD32VW553/V1_MQTT_OK/GD32VW55X_Wifi_BLE_SDK/GD32VW55x_RELEASE_V1.0.2/MSDK/cloud/alicloud/src/infra/utils/misc\utils_httpc.c ****                 count += len;
 478:C:/Users/stapi/OneDrive/Desktop/GD32VW553/V1_MQTT_OK/GD32VW55X_Wifi_BLE_SDK/GD32VW55x_RELEASE_V1.0.2/MSDK/cloud/alicloud/src/infra/utils/misc\utils_httpc.c ****                 client_data->response_buf[count] = '\0';
 479:C:/Users/stapi/OneDrive/Desktop/GD32VW553/V1_MQTT_OK/GD32VW55X_Wifi_BLE_SDK/GD32VW55x_RELEASE_V1.0.2/MSDK/cloud/alicloud/src/infra/utils/misc\utils_httpc.c ****             } else {
 480:C:/Users/stapi/OneDrive/Desktop/GD32VW553/V1_MQTT_OK/GD32VW55X_Wifi_BLE_SDK/GD32VW55x_RELEASE_V1.0.2/MSDK/cloud/alicloud/src/infra/utils/misc\utils_httpc.c ****                 memcpy(client_data->response_buf + count, data, client_data->response_buf_len - 1 -
 481:C:/Users/stapi/OneDrive/Desktop/GD32VW553/V1_MQTT_OK/GD32VW55X_Wifi_BLE_SDK/GD32VW55x_RELEASE_V1.0.2/MSDK/cloud/alicloud/src/infra/utils/misc\utils_httpc.c ****                 client_data->response_buf[client_data->response_buf_len - 1] = '\0';
 482:C:/Users/stapi/OneDrive/Desktop/GD32VW553/V1_MQTT_OK/GD32VW55X_Wifi_BLE_SDK/GD32VW55x_RELEASE_V1.0.2/MSDK/cloud/alicloud/src/infra/utils/misc\utils_httpc.c ****                 return HTTP_RETRIEVE_MORE_DATA;
 483:C:/Users/stapi/OneDrive/Desktop/GD32VW553/V1_MQTT_OK/GD32VW55X_Wifi_BLE_SDK/GD32VW55x_RELEASE_V1.0.2/MSDK/cloud/alicloud/src/infra/utils/misc\utils_httpc.c ****             }
 484:C:/Users/stapi/OneDrive/Desktop/GD32VW553/V1_MQTT_OK/GD32VW55X_Wifi_BLE_SDK/GD32VW55x_RELEASE_V1.0.2/MSDK/cloud/alicloud/src/infra/utils/misc\utils_httpc.c **** 
 485:C:/Users/stapi/OneDrive/Desktop/GD32VW553/V1_MQTT_OK/GD32VW55X_Wifi_BLE_SDK/GD32VW55x_RELEASE_V1.0.2/MSDK/cloud/alicloud/src/infra/utils/misc\utils_httpc.c ****             /* try to read more header */
 486:C:/Users/stapi/OneDrive/Desktop/GD32VW553/V1_MQTT_OK/GD32VW55X_Wifi_BLE_SDK/GD32VW55x_RELEASE_V1.0.2/MSDK/cloud/alicloud/src/infra/utils/misc\utils_httpc.c ****             max_len = HTTPCLIENT_MIN(HTTPCLIENT_RAED_HEAD_SIZE, client_data->response_buf_len - 1 -
 304              		.loc 1 486 21
 305 006c 930A0002 		li	s5,32
 487:C:/Users/stapi/OneDrive/Desktop/GD32VW553/V1_MQTT_OK/GD32VW55X_Wifi_BLE_SDK/GD32VW55x_RELEASE_V1.0.2/MSDK/cloud/alicloud/src/infra/utils/misc\utils_httpc.c ****             ret = httpclient_recv(client, data, 1, max_len, &len, iotx_time_left(&timer));
 488:C:/Users/stapi/OneDrive/Desktop/GD32VW553/V1_MQTT_OK/GD32VW55X_Wifi_BLE_SDK/GD32VW55x_RELEASE_V1.0.2/MSDK/cloud/alicloud/src/infra/utils/misc\utils_httpc.c **** 
 489:C:/Users/stapi/OneDrive/Desktop/GD32VW553/V1_MQTT_OK/GD32VW55X_Wifi_BLE_SDK/GD32VW55x_RELEASE_V1.0.2/MSDK/cloud/alicloud/src/infra/utils/misc\utils_httpc.c ****             /* Receive data */
 490:C:/Users/stapi/OneDrive/Desktop/GD32VW553/V1_MQTT_OK/GD32VW55X_Wifi_BLE_SDK/GD32VW55x_RELEASE_V1.0.2/MSDK/cloud/alicloud/src/infra/utils/misc\utils_httpc.c ****             utils_debug("data len: %d %d", len, count);
 306              		.loc 1 490 13
 307 0070 B70B0000 		lui	s7,%hi(.LC7)
 491:C:/Users/stapi/OneDrive/Desktop/GD32VW553/V1_MQTT_OK/GD32VW55X_Wifi_BLE_SDK/GD32VW55x_RELEASE_V1.0.2/MSDK/cloud/alicloud/src/infra/utils/misc\utils_httpc.c **** 
 492:C:/Users/stapi/OneDrive/Desktop/GD32VW553/V1_MQTT_OK/GD32VW55X_Wifi_BLE_SDK/GD32VW55x_RELEASE_V1.0.2/MSDK/cloud/alicloud/src/infra/utils/misc\utils_httpc.c ****             if (ret == ERROR_HTTP_CONN) {
 308              		.loc 1 492 16
 309 0074 615C     		li	s8,-8
 310              	.LVL28:
 311              	.L14:
 312              	.LBE2:
 473:C:/Users/stapi/OneDrive/Desktop/GD32VW553/V1_MQTT_OK/GD32VW55X_Wifi_BLE_SDK/GD32VW55x_RELEASE_V1.0.2/MSDK/cloud/alicloud/src/infra/utils/misc\utils_httpc.c ****             int ret, max_len;
 313              		.loc 1 473 9 is_stmt 1
 314              	.LBB3:
 474:C:/Users/stapi/OneDrive/Desktop/GD32VW553/V1_MQTT_OK/GD32VW55X_Wifi_BLE_SDK/GD32VW55x_RELEASE_V1.0.2/MSDK/cloud/alicloud/src/infra/utils/misc\utils_httpc.c ****             if (count + len < client_data->response_buf_len - 1) {
 315              		.loc 1 474 13
 475:C:/Users/stapi/OneDrive/Desktop/GD32VW553/V1_MQTT_OK/GD32VW55X_Wifi_BLE_SDK/GD32VW55x_RELEASE_V1.0.2/MSDK/cloud/alicloud/src/infra/utils/misc\utils_httpc.c ****                 memcpy(client_data->response_buf + count, data, len);
 316              		.loc 1 475 13
 475:C:/Users/stapi/OneDrive/Desktop/GD32VW553/V1_MQTT_OK/GD32VW55X_Wifi_BLE_SDK/GD32VW55x_RELEASE_V1.0.2/MSDK/cloud/alicloud/src/infra/utils/misc\utils_httpc.c ****                 memcpy(client_data->response_buf + count, data, len);
 317              		.loc 1 475 23 is_stmt 0
 318 0076 3246     		lw	a2,12(sp)
 475:C:/Users/stapi/OneDrive/Desktop/GD32VW553/V1_MQTT_OK/GD32VW55X_Wifi_BLE_SDK/GD32VW55x_RELEASE_V1.0.2/MSDK/cloud/alicloud/src/infra/utils/misc\utils_httpc.c ****                 memcpy(client_data->response_buf + count, data, len);
 319              		.loc 1 475 61
 320 0078 83278D01 		lw	a5,24(s10)
 476:C:/Users/stapi/OneDrive/Desktop/GD32VW553/V1_MQTT_OK/GD32VW55X_Wifi_BLE_SDK/GD32VW55x_RELEASE_V1.0.2/MSDK/cloud/alicloud/src/infra/utils/misc\utils_httpc.c ****                 count += len;
 321              		.loc 1 476 50
 322 007c 03254D02 		lw	a0,36(s10)
 475:C:/Users/stapi/OneDrive/Desktop/GD32VW553/V1_MQTT_OK/GD32VW55X_Wifi_BLE_SDK/GD32VW55x_RELEASE_V1.0.2/MSDK/cloud/alicloud/src/infra/utils/misc\utils_httpc.c ****                 memcpy(client_data->response_buf + count, data, len);
 323              		.loc 1 475 23
 324 0080 33079600 		add	a4,a2,s1
 475:C:/Users/stapi/OneDrive/Desktop/GD32VW553/V1_MQTT_OK/GD32VW55X_Wifi_BLE_SDK/GD32VW55x_RELEASE_V1.0.2/MSDK/cloud/alicloud/src/infra/utils/misc\utils_httpc.c ****                 memcpy(client_data->response_buf + count, data, len);
 325              		.loc 1 475 61
 326 0084 FD17     		addi	a5,a5,-1
 476:C:/Users/stapi/OneDrive/Desktop/GD32VW553/V1_MQTT_OK/GD32VW55X_Wifi_BLE_SDK/GD32VW55x_RELEASE_V1.0.2/MSDK/cloud/alicloud/src/infra/utils/misc\utils_httpc.c ****                 count += len;
 327              		.loc 1 476 50
 328 0086 2695     		add	a0,a0,s1
 475:C:/Users/stapi/OneDrive/Desktop/GD32VW553/V1_MQTT_OK/GD32VW55X_Wifi_BLE_SDK/GD32VW55x_RELEASE_V1.0.2/MSDK/cloud/alicloud/src/infra/utils/misc\utils_httpc.c ****                 memcpy(client_data->response_buf + count, data, len);
 329              		.loc 1 475 16
 330 0088 635EF708 		bge	a4,a5,.L10
 476:C:/Users/stapi/OneDrive/Desktop/GD32VW553/V1_MQTT_OK/GD32VW55X_Wifi_BLE_SDK/GD32VW55x_RELEASE_V1.0.2/MSDK/cloud/alicloud/src/infra/utils/misc\utils_httpc.c ****                 count += len;
 331              		.loc 1 476 17 is_stmt 1
 332 008c A285     		mv	a1,s0
 333 008e 97000000 		call	memcpy
 333      E7800000 
 334              	.LVL29:
 477:C:/Users/stapi/OneDrive/Desktop/GD32VW553/V1_MQTT_OK/GD32VW55X_Wifi_BLE_SDK/GD32VW55x_RELEASE_V1.0.2/MSDK/cloud/alicloud/src/infra/utils/misc\utils_httpc.c ****                 client_data->response_buf[count] = '\0';
 335              		.loc 1 477 17
 477:C:/Users/stapi/OneDrive/Desktop/GD32VW553/V1_MQTT_OK/GD32VW55X_Wifi_BLE_SDK/GD32VW55x_RELEASE_V1.0.2/MSDK/cloud/alicloud/src/infra/utils/misc\utils_httpc.c ****                 client_data->response_buf[count] = '\0';
 336              		.loc 1 477 23 is_stmt 0
 337 0096 B247     		lw	a5,12(sp)
 487:C:/Users/stapi/OneDrive/Desktop/GD32VW553/V1_MQTT_OK/GD32VW55X_Wifi_BLE_SDK/GD32VW55x_RELEASE_V1.0.2/MSDK/cloud/alicloud/src/infra/utils/misc\utils_httpc.c **** 
 338              		.loc 1 487 19
 339 0098 2808     		addi	a0,sp,24
 477:C:/Users/stapi/OneDrive/Desktop/GD32VW553/V1_MQTT_OK/GD32VW55X_Wifi_BLE_SDK/GD32VW55x_RELEASE_V1.0.2/MSDK/cloud/alicloud/src/infra/utils/misc\utils_httpc.c ****                 client_data->response_buf[count] = '\0';
 340              		.loc 1 477 23
 341 009a BE94     		add	s1,s1,a5
 342              	.LVL30:
 478:C:/Users/stapi/OneDrive/Desktop/GD32VW553/V1_MQTT_OK/GD32VW55X_Wifi_BLE_SDK/GD32VW55x_RELEASE_V1.0.2/MSDK/cloud/alicloud/src/infra/utils/misc\utils_httpc.c ****             } else {
 343              		.loc 1 478 17 is_stmt 1
 478:C:/Users/stapi/OneDrive/Desktop/GD32VW553/V1_MQTT_OK/GD32VW55X_Wifi_BLE_SDK/GD32VW55x_RELEASE_V1.0.2/MSDK/cloud/alicloud/src/infra/utils/misc\utils_httpc.c ****             } else {
 344              		.loc 1 478 50 is_stmt 0
 345 009c 83274D02 		lw	a5,36(s10)
 346 00a0 A697     		add	a5,a5,s1
 347 00a2 23800700 		sb	zero,0(a5)
 486:C:/Users/stapi/OneDrive/Desktop/GD32VW553/V1_MQTT_OK/GD32VW55X_Wifi_BLE_SDK/GD32VW55x_RELEASE_V1.0.2/MSDK/cloud/alicloud/src/infra/utils/misc\utils_httpc.c ****             ret = httpclient_recv(client, data, 1, max_len, &len, iotx_time_left(&timer));
 348              		.loc 1 486 13 is_stmt 1
 486:C:/Users/stapi/OneDrive/Desktop/GD32VW553/V1_MQTT_OK/GD32VW55X_Wifi_BLE_SDK/GD32VW55x_RELEASE_V1.0.2/MSDK/cloud/alicloud/src/infra/utils/misc\utils_httpc.c ****             ret = httpclient_recv(client, data, 1, max_len, &len, iotx_time_left(&timer));
 349              		.loc 1 486 23 is_stmt 0
 350 00a6 03268D01 		lw	a2,24(s10)
 351 00aa 7D16     		addi	a2,a2,-1
 352 00ac 058E     		sub	a2,a2,s1
 486:C:/Users/stapi/OneDrive/Desktop/GD32VW553/V1_MQTT_OK/GD32VW55X_Wifi_BLE_SDK/GD32VW55x_RELEASE_V1.0.2/MSDK/cloud/alicloud/src/infra/utils/misc\utils_httpc.c ****             ret = httpclient_recv(client, data, 1, max_len, &len, iotx_time_left(&timer));
 353              		.loc 1 486 21
 354 00ae 3346560B 		min	a2,a2,s5
 355              	.LVL31:
 487:C:/Users/stapi/OneDrive/Desktop/GD32VW553/V1_MQTT_OK/GD32VW55X_Wifi_BLE_SDK/GD32VW55x_RELEASE_V1.0.2/MSDK/cloud/alicloud/src/infra/utils/misc\utils_httpc.c **** 
 356              		.loc 1 487 13 is_stmt 1
 486:C:/Users/stapi/OneDrive/Desktop/GD32VW553/V1_MQTT_OK/GD32VW55X_Wifi_BLE_SDK/GD32VW55x_RELEASE_V1.0.2/MSDK/cloud/alicloud/src/infra/utils/misc\utils_httpc.c ****             ret = httpclient_recv(client, data, 1, max_len, &len, iotx_time_left(&timer));
 357              		.loc 1 486 21 is_stmt 0
 358 00b2 32C4     		sw	a2,8(sp)
 487:C:/Users/stapi/OneDrive/Desktop/GD32VW553/V1_MQTT_OK/GD32VW55X_Wifi_BLE_SDK/GD32VW55x_RELEASE_V1.0.2/MSDK/cloud/alicloud/src/infra/utils/misc\utils_httpc.c **** 
 359              		.loc 1 487 19
 360 00b4 97000000 		call	iotx_time_left
 360      E7800000 
 361              	.LVL32:
 362 00bc 2246     		lw	a2,8(sp)
 363 00be 2A87     		mv	a4,a0
 364 00c0 7400     		addi	a3,sp,12
 365 00c2 A285     		mv	a1,s0
 366 00c4 5A85     		mv	a0,s6
 367 00c6 97000000 		call	httpclient_recv.constprop.0
 367      E7800000 
 368              	.LVL33:
 490:C:/Users/stapi/OneDrive/Desktop/GD32VW553/V1_MQTT_OK/GD32VW55X_Wifi_BLE_SDK/GD32VW55x_RELEASE_V1.0.2/MSDK/cloud/alicloud/src/infra/utils/misc\utils_httpc.c **** 
 369              		.loc 1 490 13
 370 00ce B247     		lw	a5,12(sp)
 487:C:/Users/stapi/OneDrive/Desktop/GD32VW553/V1_MQTT_OK/GD32VW55X_Wifi_BLE_SDK/GD32VW55x_RELEASE_V1.0.2/MSDK/cloud/alicloud/src/infra/utils/misc\utils_httpc.c **** 
 371              		.loc 1 487 19
 372 00d0 2A89     		mv	s2,a0
 373              	.LVL34:
 490:C:/Users/stapi/OneDrive/Desktop/GD32VW553/V1_MQTT_OK/GD32VW55X_Wifi_BLE_SDK/GD32VW55x_RELEASE_V1.0.2/MSDK/cloud/alicloud/src/infra/utils/misc\utils_httpc.c **** 
 374              		.loc 1 490 13 is_stmt 1
 375 00d2 2688     		mv	a6,s1
 376 00d4 13870B00 		addi	a4,s7,%lo(.LC7)
 377 00d8 9546     		li	a3,5
 378 00da 1306A01E 		li	a2,490
 379 00de 93850900 		addi	a1,s3,%lo(.LANCHOR1)
 380 00e2 13050A00 		addi	a0,s4,%lo(.LC1)
 381              	.LVL35:
 382 00e6 97000000 		call	LITE_syslog
 382      E7800000 
 383              	.LVL36:
 384              		.loc 1 492 13
 385              		.loc 1 492 16 is_stmt 0
 386 00ee 631B8905 		bne	s2,s8,.L53
 493:C:/Users/stapi/OneDrive/Desktop/GD32VW553/V1_MQTT_OK/GD32VW55X_Wifi_BLE_SDK/GD32VW55x_RELEASE_V1.0.2/MSDK/cloud/alicloud/src/infra/utils/misc\utils_httpc.c ****                 utils_err("ret == ERROR_HTTP_CONN");
 387              		.loc 1 493 17 is_stmt 1
 388              		.loc 1 493 17
 389 00f2 37050000 		lui	a0,%hi(.LC2)
 390 00f6 13050500 		addi	a0,a0,%lo(.LC2)
 391 00fa 97000000 		call	HAL_Printf
 391      E7800000 
 392              	.LVL37:
 393              		.loc 1 493 17
 394 0102 37050000 		lui	a0,%hi(.LC8)
 395 0106 13050500 		addi	a0,a0,%lo(.LC8)
 396              	.LVL38:
 397              	.L60:
 398              	.LBE3:
 399              	.LBB4:
 400              	.LBB5:
 494:C:/Users/stapi/OneDrive/Desktop/GD32VW553/V1_MQTT_OK/GD32VW55X_Wifi_BLE_SDK/GD32VW55x_RELEASE_V1.0.2/MSDK/cloud/alicloud/src/infra/utils/misc\utils_httpc.c ****                 return ret;
 495:C:/Users/stapi/OneDrive/Desktop/GD32VW553/V1_MQTT_OK/GD32VW55X_Wifi_BLE_SDK/GD32VW55x_RELEASE_V1.0.2/MSDK/cloud/alicloud/src/infra/utils/misc\utils_httpc.c ****             }
 496:C:/Users/stapi/OneDrive/Desktop/GD32VW553/V1_MQTT_OK/GD32VW55X_Wifi_BLE_SDK/GD32VW55x_RELEASE_V1.0.2/MSDK/cloud/alicloud/src/infra/utils/misc\utils_httpc.c **** 
 497:C:/Users/stapi/OneDrive/Desktop/GD32VW553/V1_MQTT_OK/GD32VW55X_Wifi_BLE_SDK/GD32VW55x_RELEASE_V1.0.2/MSDK/cloud/alicloud/src/infra/utils/misc\utils_httpc.c ****             if (len == 0) {
 498:C:/Users/stapi/OneDrive/Desktop/GD32VW553/V1_MQTT_OK/GD32VW55X_Wifi_BLE_SDK/GD32VW55x_RELEASE_V1.0.2/MSDK/cloud/alicloud/src/infra/utils/misc\utils_httpc.c ****                 /* read no more data */
 499:C:/Users/stapi/OneDrive/Desktop/GD32VW553/V1_MQTT_OK/GD32VW55X_Wifi_BLE_SDK/GD32VW55x_RELEASE_V1.0.2/MSDK/cloud/alicloud/src/infra/utils/misc\utils_httpc.c ****                 utils_debug("no more len == 0");
 500:C:/Users/stapi/OneDrive/Desktop/GD32VW553/V1_MQTT_OK/GD32VW55X_Wifi_BLE_SDK/GD32VW55x_RELEASE_V1.0.2/MSDK/cloud/alicloud/src/infra/utils/misc\utils_httpc.c ****                 client_data->is_more = IOT_FALSE;
 501:C:/Users/stapi/OneDrive/Desktop/GD32VW553/V1_MQTT_OK/GD32VW55X_Wifi_BLE_SDK/GD32VW55x_RELEASE_V1.0.2/MSDK/cloud/alicloud/src/infra/utils/misc\utils_httpc.c ****                 return SUCCESS_RETURN;
 502:C:/Users/stapi/OneDrive/Desktop/GD32VW553/V1_MQTT_OK/GD32VW55X_Wifi_BLE_SDK/GD32VW55x_RELEASE_V1.0.2/MSDK/cloud/alicloud/src/infra/utils/misc\utils_httpc.c ****             }
 503:C:/Users/stapi/OneDrive/Desktop/GD32VW553/V1_MQTT_OK/GD32VW55X_Wifi_BLE_SDK/GD32VW55x_RELEASE_V1.0.2/MSDK/cloud/alicloud/src/infra/utils/misc\utils_httpc.c ****         }
 504:C:/Users/stapi/OneDrive/Desktop/GD32VW553/V1_MQTT_OK/GD32VW55X_Wifi_BLE_SDK/GD32VW55x_RELEASE_V1.0.2/MSDK/cloud/alicloud/src/infra/utils/misc\utils_httpc.c ****     }
 505:C:/Users/stapi/OneDrive/Desktop/GD32VW553/V1_MQTT_OK/GD32VW55X_Wifi_BLE_SDK/GD32VW55x_RELEASE_V1.0.2/MSDK/cloud/alicloud/src/infra/utils/misc\utils_httpc.c **** 
 506:C:/Users/stapi/OneDrive/Desktop/GD32VW553/V1_MQTT_OK/GD32VW55X_Wifi_BLE_SDK/GD32VW55x_RELEASE_V1.0.2/MSDK/cloud/alicloud/src/infra/utils/misc\utils_httpc.c ****     while (1) {
 507:C:/Users/stapi/OneDrive/Desktop/GD32VW553/V1_MQTT_OK/GD32VW55X_Wifi_BLE_SDK/GD32VW55x_RELEASE_V1.0.2/MSDK/cloud/alicloud/src/infra/utils/misc\utils_httpc.c ****         uint32_t readLen = 0;
 508:C:/Users/stapi/OneDrive/Desktop/GD32VW553/V1_MQTT_OK/GD32VW55X_Wifi_BLE_SDK/GD32VW55x_RELEASE_V1.0.2/MSDK/cloud/alicloud/src/infra/utils/misc\utils_httpc.c **** 
 509:C:/Users/stapi/OneDrive/Desktop/GD32VW553/V1_MQTT_OK/GD32VW55X_Wifi_BLE_SDK/GD32VW55x_RELEASE_V1.0.2/MSDK/cloud/alicloud/src/infra/utils/misc\utils_httpc.c ****         if (client_data->is_chunked && client_data->retrieve_len <= 0) {
 510:C:/Users/stapi/OneDrive/Desktop/GD32VW553/V1_MQTT_OK/GD32VW55X_Wifi_BLE_SDK/GD32VW55x_RELEASE_V1.0.2/MSDK/cloud/alicloud/src/infra/utils/misc\utils_httpc.c ****             /* Read chunk header */
 511:C:/Users/stapi/OneDrive/Desktop/GD32VW553/V1_MQTT_OK/GD32VW55X_Wifi_BLE_SDK/GD32VW55x_RELEASE_V1.0.2/MSDK/cloud/alicloud/src/infra/utils/misc\utils_httpc.c ****             int foundCrlf;
 512:C:/Users/stapi/OneDrive/Desktop/GD32VW553/V1_MQTT_OK/GD32VW55X_Wifi_BLE_SDK/GD32VW55x_RELEASE_V1.0.2/MSDK/cloud/alicloud/src/infra/utils/misc\utils_httpc.c ****             int n;
 513:C:/Users/stapi/OneDrive/Desktop/GD32VW553/V1_MQTT_OK/GD32VW55X_Wifi_BLE_SDK/GD32VW55x_RELEASE_V1.0.2/MSDK/cloud/alicloud/src/infra/utils/misc\utils_httpc.c ****             do {
 514:C:/Users/stapi/OneDrive/Desktop/GD32VW553/V1_MQTT_OK/GD32VW55X_Wifi_BLE_SDK/GD32VW55x_RELEASE_V1.0.2/MSDK/cloud/alicloud/src/infra/utils/misc\utils_httpc.c ****                 foundCrlf = IOT_FALSE;
 515:C:/Users/stapi/OneDrive/Desktop/GD32VW553/V1_MQTT_OK/GD32VW55X_Wifi_BLE_SDK/GD32VW55x_RELEASE_V1.0.2/MSDK/cloud/alicloud/src/infra/utils/misc\utils_httpc.c ****                 crlf_pos = 0;
 516:C:/Users/stapi/OneDrive/Desktop/GD32VW553/V1_MQTT_OK/GD32VW55X_Wifi_BLE_SDK/GD32VW55x_RELEASE_V1.0.2/MSDK/cloud/alicloud/src/infra/utils/misc\utils_httpc.c ****                 data[len] = 0;
 517:C:/Users/stapi/OneDrive/Desktop/GD32VW553/V1_MQTT_OK/GD32VW55X_Wifi_BLE_SDK/GD32VW55x_RELEASE_V1.0.2/MSDK/cloud/alicloud/src/infra/utils/misc\utils_httpc.c ****                 if (len >= 2) {
 518:C:/Users/stapi/OneDrive/Desktop/GD32VW553/V1_MQTT_OK/GD32VW55X_Wifi_BLE_SDK/GD32VW55x_RELEASE_V1.0.2/MSDK/cloud/alicloud/src/infra/utils/misc\utils_httpc.c ****                     for (; crlf_pos < len - 2; crlf_pos++) {
 519:C:/Users/stapi/OneDrive/Desktop/GD32VW553/V1_MQTT_OK/GD32VW55X_Wifi_BLE_SDK/GD32VW55x_RELEASE_V1.0.2/MSDK/cloud/alicloud/src/infra/utils/misc\utils_httpc.c ****                         if (data[crlf_pos] == '\r' && data[crlf_pos + 1] == '\n') {
 520:C:/Users/stapi/OneDrive/Desktop/GD32VW553/V1_MQTT_OK/GD32VW55X_Wifi_BLE_SDK/GD32VW55x_RELEASE_V1.0.2/MSDK/cloud/alicloud/src/infra/utils/misc\utils_httpc.c ****                             foundCrlf = IOT_TRUE;
 521:C:/Users/stapi/OneDrive/Desktop/GD32VW553/V1_MQTT_OK/GD32VW55X_Wifi_BLE_SDK/GD32VW55x_RELEASE_V1.0.2/MSDK/cloud/alicloud/src/infra/utils/misc\utils_httpc.c ****                             break;
 522:C:/Users/stapi/OneDrive/Desktop/GD32VW553/V1_MQTT_OK/GD32VW55X_Wifi_BLE_SDK/GD32VW55x_RELEASE_V1.0.2/MSDK/cloud/alicloud/src/infra/utils/misc\utils_httpc.c ****                         }
 523:C:/Users/stapi/OneDrive/Desktop/GD32VW553/V1_MQTT_OK/GD32VW55X_Wifi_BLE_SDK/GD32VW55x_RELEASE_V1.0.2/MSDK/cloud/alicloud/src/infra/utils/misc\utils_httpc.c ****                     }
 524:C:/Users/stapi/OneDrive/Desktop/GD32VW553/V1_MQTT_OK/GD32VW55X_Wifi_BLE_SDK/GD32VW55x_RELEASE_V1.0.2/MSDK/cloud/alicloud/src/infra/utils/misc\utils_httpc.c ****                 }
 525:C:/Users/stapi/OneDrive/Desktop/GD32VW553/V1_MQTT_OK/GD32VW55X_Wifi_BLE_SDK/GD32VW55x_RELEASE_V1.0.2/MSDK/cloud/alicloud/src/infra/utils/misc\utils_httpc.c ****                 if (!foundCrlf) {
 526:C:/Users/stapi/OneDrive/Desktop/GD32VW553/V1_MQTT_OK/GD32VW55X_Wifi_BLE_SDK/GD32VW55x_RELEASE_V1.0.2/MSDK/cloud/alicloud/src/infra/utils/misc\utils_httpc.c ****                     /* Try to read more */
 527:C:/Users/stapi/OneDrive/Desktop/GD32VW553/V1_MQTT_OK/GD32VW55X_Wifi_BLE_SDK/GD32VW55x_RELEASE_V1.0.2/MSDK/cloud/alicloud/src/infra/utils/misc\utils_httpc.c ****                     if (len < HTTPCLIENT_CHUNK_SIZE) {
 528:C:/Users/stapi/OneDrive/Desktop/GD32VW553/V1_MQTT_OK/GD32VW55X_Wifi_BLE_SDK/GD32VW55x_RELEASE_V1.0.2/MSDK/cloud/alicloud/src/infra/utils/misc\utils_httpc.c ****                         int new_trf_len, ret;
 529:C:/Users/stapi/OneDrive/Desktop/GD32VW553/V1_MQTT_OK/GD32VW55X_Wifi_BLE_SDK/GD32VW55x_RELEASE_V1.0.2/MSDK/cloud/alicloud/src/infra/utils/misc\utils_httpc.c ****                         ret = httpclient_recv(client,
 530:C:/Users/stapi/OneDrive/Desktop/GD32VW553/V1_MQTT_OK/GD32VW55X_Wifi_BLE_SDK/GD32VW55x_RELEASE_V1.0.2/MSDK/cloud/alicloud/src/infra/utils/misc\utils_httpc.c ****                                               data + len,
 531:C:/Users/stapi/OneDrive/Desktop/GD32VW553/V1_MQTT_OK/GD32VW55X_Wifi_BLE_SDK/GD32VW55x_RELEASE_V1.0.2/MSDK/cloud/alicloud/src/infra/utils/misc\utils_httpc.c ****                                               0,
 532:C:/Users/stapi/OneDrive/Desktop/GD32VW553/V1_MQTT_OK/GD32VW55X_Wifi_BLE_SDK/GD32VW55x_RELEASE_V1.0.2/MSDK/cloud/alicloud/src/infra/utils/misc\utils_httpc.c ****                                               HTTPCLIENT_CHUNK_SIZE - len - 1,
 533:C:/Users/stapi/OneDrive/Desktop/GD32VW553/V1_MQTT_OK/GD32VW55X_Wifi_BLE_SDK/GD32VW55x_RELEASE_V1.0.2/MSDK/cloud/alicloud/src/infra/utils/misc\utils_httpc.c ****                                               &new_trf_len,
 534:C:/Users/stapi/OneDrive/Desktop/GD32VW553/V1_MQTT_OK/GD32VW55X_Wifi_BLE_SDK/GD32VW55x_RELEASE_V1.0.2/MSDK/cloud/alicloud/src/infra/utils/misc\utils_httpc.c ****                                               iotx_time_left(&timer));
 535:C:/Users/stapi/OneDrive/Desktop/GD32VW553/V1_MQTT_OK/GD32VW55X_Wifi_BLE_SDK/GD32VW55x_RELEASE_V1.0.2/MSDK/cloud/alicloud/src/infra/utils/misc\utils_httpc.c ****                         len += new_trf_len;
 536:C:/Users/stapi/OneDrive/Desktop/GD32VW553/V1_MQTT_OK/GD32VW55X_Wifi_BLE_SDK/GD32VW55x_RELEASE_V1.0.2/MSDK/cloud/alicloud/src/infra/utils/misc\utils_httpc.c ****                         if (ret == ERROR_HTTP_CONN) {
 537:C:/Users/stapi/OneDrive/Desktop/GD32VW553/V1_MQTT_OK/GD32VW55X_Wifi_BLE_SDK/GD32VW55x_RELEASE_V1.0.2/MSDK/cloud/alicloud/src/infra/utils/misc\utils_httpc.c ****                             return ret;
 538:C:/Users/stapi/OneDrive/Desktop/GD32VW553/V1_MQTT_OK/GD32VW55X_Wifi_BLE_SDK/GD32VW55x_RELEASE_V1.0.2/MSDK/cloud/alicloud/src/infra/utils/misc\utils_httpc.c ****                         } else {
 539:C:/Users/stapi/OneDrive/Desktop/GD32VW553/V1_MQTT_OK/GD32VW55X_Wifi_BLE_SDK/GD32VW55x_RELEASE_V1.0.2/MSDK/cloud/alicloud/src/infra/utils/misc\utils_httpc.c ****                             continue;
 540:C:/Users/stapi/OneDrive/Desktop/GD32VW553/V1_MQTT_OK/GD32VW55X_Wifi_BLE_SDK/GD32VW55x_RELEASE_V1.0.2/MSDK/cloud/alicloud/src/infra/utils/misc\utils_httpc.c ****                         }
 541:C:/Users/stapi/OneDrive/Desktop/GD32VW553/V1_MQTT_OK/GD32VW55X_Wifi_BLE_SDK/GD32VW55x_RELEASE_V1.0.2/MSDK/cloud/alicloud/src/infra/utils/misc\utils_httpc.c ****                     } else {
 542:C:/Users/stapi/OneDrive/Desktop/GD32VW553/V1_MQTT_OK/GD32VW55X_Wifi_BLE_SDK/GD32VW55x_RELEASE_V1.0.2/MSDK/cloud/alicloud/src/infra/utils/misc\utils_httpc.c ****                         return ERROR_HTTP;
 543:C:/Users/stapi/OneDrive/Desktop/GD32VW553/V1_MQTT_OK/GD32VW55X_Wifi_BLE_SDK/GD32VW55x_RELEASE_V1.0.2/MSDK/cloud/alicloud/src/infra/utils/misc\utils_httpc.c ****                     }
 544:C:/Users/stapi/OneDrive/Desktop/GD32VW553/V1_MQTT_OK/GD32VW55X_Wifi_BLE_SDK/GD32VW55x_RELEASE_V1.0.2/MSDK/cloud/alicloud/src/infra/utils/misc\utils_httpc.c ****                 }
 545:C:/Users/stapi/OneDrive/Desktop/GD32VW553/V1_MQTT_OK/GD32VW55X_Wifi_BLE_SDK/GD32VW55x_RELEASE_V1.0.2/MSDK/cloud/alicloud/src/infra/utils/misc\utils_httpc.c ****             } while (!foundCrlf);
 546:C:/Users/stapi/OneDrive/Desktop/GD32VW553/V1_MQTT_OK/GD32VW55X_Wifi_BLE_SDK/GD32VW55x_RELEASE_V1.0.2/MSDK/cloud/alicloud/src/infra/utils/misc\utils_httpc.c ****             data[crlf_pos] = '\0';
 547:C:/Users/stapi/OneDrive/Desktop/GD32VW553/V1_MQTT_OK/GD32VW55X_Wifi_BLE_SDK/GD32VW55x_RELEASE_V1.0.2/MSDK/cloud/alicloud/src/infra/utils/misc\utils_httpc.c **** 
 548:C:/Users/stapi/OneDrive/Desktop/GD32VW553/V1_MQTT_OK/GD32VW55X_Wifi_BLE_SDK/GD32VW55x_RELEASE_V1.0.2/MSDK/cloud/alicloud/src/infra/utils/misc\utils_httpc.c ****             /* chunk length */
 549:C:/Users/stapi/OneDrive/Desktop/GD32VW553/V1_MQTT_OK/GD32VW55X_Wifi_BLE_SDK/GD32VW55x_RELEASE_V1.0.2/MSDK/cloud/alicloud/src/infra/utils/misc\utils_httpc.c ****             /* n = sscanf(data, "%x", &readLen); */
 550:C:/Users/stapi/OneDrive/Desktop/GD32VW553/V1_MQTT_OK/GD32VW55X_Wifi_BLE_SDK/GD32VW55x_RELEASE_V1.0.2/MSDK/cloud/alicloud/src/infra/utils/misc\utils_httpc.c **** 
 551:C:/Users/stapi/OneDrive/Desktop/GD32VW553/V1_MQTT_OK/GD32VW55X_Wifi_BLE_SDK/GD32VW55x_RELEASE_V1.0.2/MSDK/cloud/alicloud/src/infra/utils/misc\utils_httpc.c ****             readLen = strtoul(data, NULL, 16);
 552:C:/Users/stapi/OneDrive/Desktop/GD32VW553/V1_MQTT_OK/GD32VW55X_Wifi_BLE_SDK/GD32VW55x_RELEASE_V1.0.2/MSDK/cloud/alicloud/src/infra/utils/misc\utils_httpc.c ****             n = (0 == readLen) ? 0 : 1;
 553:C:/Users/stapi/OneDrive/Desktop/GD32VW553/V1_MQTT_OK/GD32VW55X_Wifi_BLE_SDK/GD32VW55x_RELEASE_V1.0.2/MSDK/cloud/alicloud/src/infra/utils/misc\utils_httpc.c ****             client_data->retrieve_len = readLen;
 554:C:/Users/stapi/OneDrive/Desktop/GD32VW553/V1_MQTT_OK/GD32VW55X_Wifi_BLE_SDK/GD32VW55x_RELEASE_V1.0.2/MSDK/cloud/alicloud/src/infra/utils/misc\utils_httpc.c ****             client_data->response_content_len += client_data->retrieve_len;
 555:C:/Users/stapi/OneDrive/Desktop/GD32VW553/V1_MQTT_OK/GD32VW55X_Wifi_BLE_SDK/GD32VW55x_RELEASE_V1.0.2/MSDK/cloud/alicloud/src/infra/utils/misc\utils_httpc.c ****             if (readLen == 0) {
 556:C:/Users/stapi/OneDrive/Desktop/GD32VW553/V1_MQTT_OK/GD32VW55X_Wifi_BLE_SDK/GD32VW55x_RELEASE_V1.0.2/MSDK/cloud/alicloud/src/infra/utils/misc\utils_httpc.c ****                 /* Last chunk */
 557:C:/Users/stapi/OneDrive/Desktop/GD32VW553/V1_MQTT_OK/GD32VW55X_Wifi_BLE_SDK/GD32VW55x_RELEASE_V1.0.2/MSDK/cloud/alicloud/src/infra/utils/misc\utils_httpc.c ****                 client_data->is_more = IOT_FALSE;
 558:C:/Users/stapi/OneDrive/Desktop/GD32VW553/V1_MQTT_OK/GD32VW55X_Wifi_BLE_SDK/GD32VW55x_RELEASE_V1.0.2/MSDK/cloud/alicloud/src/infra/utils/misc\utils_httpc.c ****                 utils_info("no more (last chunk)");
 559:C:/Users/stapi/OneDrive/Desktop/GD32VW553/V1_MQTT_OK/GD32VW55X_Wifi_BLE_SDK/GD32VW55x_RELEASE_V1.0.2/MSDK/cloud/alicloud/src/infra/utils/misc\utils_httpc.c ****             }
 560:C:/Users/stapi/OneDrive/Desktop/GD32VW553/V1_MQTT_OK/GD32VW55X_Wifi_BLE_SDK/GD32VW55x_RELEASE_V1.0.2/MSDK/cloud/alicloud/src/infra/utils/misc\utils_httpc.c **** 
 561:C:/Users/stapi/OneDrive/Desktop/GD32VW553/V1_MQTT_OK/GD32VW55X_Wifi_BLE_SDK/GD32VW55x_RELEASE_V1.0.2/MSDK/cloud/alicloud/src/infra/utils/misc\utils_httpc.c ****             if (n != 1) {
 562:C:/Users/stapi/OneDrive/Desktop/GD32VW553/V1_MQTT_OK/GD32VW55X_Wifi_BLE_SDK/GD32VW55x_RELEASE_V1.0.2/MSDK/cloud/alicloud/src/infra/utils/misc\utils_httpc.c ****                 utils_err("Could not read chunk length");
 563:C:/Users/stapi/OneDrive/Desktop/GD32VW553/V1_MQTT_OK/GD32VW55X_Wifi_BLE_SDK/GD32VW55x_RELEASE_V1.0.2/MSDK/cloud/alicloud/src/infra/utils/misc\utils_httpc.c ****                 return ERROR_HTTP_UNRESOLVED_DNS;
 564:C:/Users/stapi/OneDrive/Desktop/GD32VW553/V1_MQTT_OK/GD32VW55X_Wifi_BLE_SDK/GD32VW55x_RELEASE_V1.0.2/MSDK/cloud/alicloud/src/infra/utils/misc\utils_httpc.c ****             }
 565:C:/Users/stapi/OneDrive/Desktop/GD32VW553/V1_MQTT_OK/GD32VW55X_Wifi_BLE_SDK/GD32VW55x_RELEASE_V1.0.2/MSDK/cloud/alicloud/src/infra/utils/misc\utils_httpc.c **** 
 566:C:/Users/stapi/OneDrive/Desktop/GD32VW553/V1_MQTT_OK/GD32VW55X_Wifi_BLE_SDK/GD32VW55x_RELEASE_V1.0.2/MSDK/cloud/alicloud/src/infra/utils/misc\utils_httpc.c ****             memmove(data, &data[crlf_pos + 2], len - (crlf_pos + 2)); /* Not need to move NULL-term
 567:C:/Users/stapi/OneDrive/Desktop/GD32VW553/V1_MQTT_OK/GD32VW55X_Wifi_BLE_SDK/GD32VW55x_RELEASE_V1.0.2/MSDK/cloud/alicloud/src/infra/utils/misc\utils_httpc.c ****             len -= (crlf_pos + 2);
 568:C:/Users/stapi/OneDrive/Desktop/GD32VW553/V1_MQTT_OK/GD32VW55X_Wifi_BLE_SDK/GD32VW55x_RELEASE_V1.0.2/MSDK/cloud/alicloud/src/infra/utils/misc\utils_httpc.c ****         } else {
 569:C:/Users/stapi/OneDrive/Desktop/GD32VW553/V1_MQTT_OK/GD32VW55X_Wifi_BLE_SDK/GD32VW55x_RELEASE_V1.0.2/MSDK/cloud/alicloud/src/infra/utils/misc\utils_httpc.c ****             readLen = client_data->retrieve_len;
 570:C:/Users/stapi/OneDrive/Desktop/GD32VW553/V1_MQTT_OK/GD32VW55X_Wifi_BLE_SDK/GD32VW55x_RELEASE_V1.0.2/MSDK/cloud/alicloud/src/infra/utils/misc\utils_httpc.c ****         }
 571:C:/Users/stapi/OneDrive/Desktop/GD32VW553/V1_MQTT_OK/GD32VW55X_Wifi_BLE_SDK/GD32VW55x_RELEASE_V1.0.2/MSDK/cloud/alicloud/src/infra/utils/misc\utils_httpc.c **** 
 572:C:/Users/stapi/OneDrive/Desktop/GD32VW553/V1_MQTT_OK/GD32VW55X_Wifi_BLE_SDK/GD32VW55x_RELEASE_V1.0.2/MSDK/cloud/alicloud/src/infra/utils/misc\utils_httpc.c ****         utils_debug("Total-Payload: %d Bytes; Read: %d Bytes", readLen, len);
 573:C:/Users/stapi/OneDrive/Desktop/GD32VW553/V1_MQTT_OK/GD32VW55X_Wifi_BLE_SDK/GD32VW55x_RELEASE_V1.0.2/MSDK/cloud/alicloud/src/infra/utils/misc\utils_httpc.c ****         unsigned int deadLoopCount = 0;
 574:C:/Users/stapi/OneDrive/Desktop/GD32VW553/V1_MQTT_OK/GD32VW55X_Wifi_BLE_SDK/GD32VW55x_RELEASE_V1.0.2/MSDK/cloud/alicloud/src/infra/utils/misc\utils_httpc.c ****         unsigned int extendCount = 0;
 575:C:/Users/stapi/OneDrive/Desktop/GD32VW553/V1_MQTT_OK/GD32VW55X_Wifi_BLE_SDK/GD32VW55x_RELEASE_V1.0.2/MSDK/cloud/alicloud/src/infra/utils/misc\utils_httpc.c ****         const unsigned int MIN_TIMEOUT = 100;
 576:C:/Users/stapi/OneDrive/Desktop/GD32VW553/V1_MQTT_OK/GD32VW55X_Wifi_BLE_SDK/GD32VW55x_RELEASE_V1.0.2/MSDK/cloud/alicloud/src/infra/utils/misc\utils_httpc.c ****         const unsigned int MAX_RETRY_COUNT = 600;
 577:C:/Users/stapi/OneDrive/Desktop/GD32VW553/V1_MQTT_OK/GD32VW55X_Wifi_BLE_SDK/GD32VW55x_RELEASE_V1.0.2/MSDK/cloud/alicloud/src/infra/utils/misc\utils_httpc.c ****         do {
 578:C:/Users/stapi/OneDrive/Desktop/GD32VW553/V1_MQTT_OK/GD32VW55X_Wifi_BLE_SDK/GD32VW55x_RELEASE_V1.0.2/MSDK/cloud/alicloud/src/infra/utils/misc\utils_httpc.c ****             templen = HTTPCLIENT_MIN(len, readLen);
 579:C:/Users/stapi/OneDrive/Desktop/GD32VW553/V1_MQTT_OK/GD32VW55X_Wifi_BLE_SDK/GD32VW55x_RELEASE_V1.0.2/MSDK/cloud/alicloud/src/infra/utils/misc\utils_httpc.c ****             if (count + templen < client_data->response_buf_len - 1) {
 580:C:/Users/stapi/OneDrive/Desktop/GD32VW553/V1_MQTT_OK/GD32VW55X_Wifi_BLE_SDK/GD32VW55x_RELEASE_V1.0.2/MSDK/cloud/alicloud/src/infra/utils/misc\utils_httpc.c ****                 memcpy(client_data->response_buf + count, data, templen);
 581:C:/Users/stapi/OneDrive/Desktop/GD32VW553/V1_MQTT_OK/GD32VW55X_Wifi_BLE_SDK/GD32VW55x_RELEASE_V1.0.2/MSDK/cloud/alicloud/src/infra/utils/misc\utils_httpc.c ****                 count += templen;
 582:C:/Users/stapi/OneDrive/Desktop/GD32VW553/V1_MQTT_OK/GD32VW55X_Wifi_BLE_SDK/GD32VW55x_RELEASE_V1.0.2/MSDK/cloud/alicloud/src/infra/utils/misc\utils_httpc.c ****                 client_data->response_buf[count] = '\0';
 583:C:/Users/stapi/OneDrive/Desktop/GD32VW553/V1_MQTT_OK/GD32VW55X_Wifi_BLE_SDK/GD32VW55x_RELEASE_V1.0.2/MSDK/cloud/alicloud/src/infra/utils/misc\utils_httpc.c ****                 client_data->retrieve_len -= templen;
 584:C:/Users/stapi/OneDrive/Desktop/GD32VW553/V1_MQTT_OK/GD32VW55X_Wifi_BLE_SDK/GD32VW55x_RELEASE_V1.0.2/MSDK/cloud/alicloud/src/infra/utils/misc\utils_httpc.c ****             } else {
 585:C:/Users/stapi/OneDrive/Desktop/GD32VW553/V1_MQTT_OK/GD32VW55X_Wifi_BLE_SDK/GD32VW55x_RELEASE_V1.0.2/MSDK/cloud/alicloud/src/infra/utils/misc\utils_httpc.c ****                 memcpy(client_data->response_buf + count, data, client_data->response_buf_len - 1 -
 586:C:/Users/stapi/OneDrive/Desktop/GD32VW553/V1_MQTT_OK/GD32VW55X_Wifi_BLE_SDK/GD32VW55x_RELEASE_V1.0.2/MSDK/cloud/alicloud/src/infra/utils/misc\utils_httpc.c ****                 client_data->response_buf[client_data->response_buf_len - 1] = '\0';
 587:C:/Users/stapi/OneDrive/Desktop/GD32VW553/V1_MQTT_OK/GD32VW55X_Wifi_BLE_SDK/GD32VW55x_RELEASE_V1.0.2/MSDK/cloud/alicloud/src/infra/utils/misc\utils_httpc.c ****                 client_data->retrieve_len -= (client_data->response_buf_len - 1 - count);
 588:C:/Users/stapi/OneDrive/Desktop/GD32VW553/V1_MQTT_OK/GD32VW55X_Wifi_BLE_SDK/GD32VW55x_RELEASE_V1.0.2/MSDK/cloud/alicloud/src/infra/utils/misc\utils_httpc.c ****                 return HTTP_RETRIEVE_MORE_DATA;
 589:C:/Users/stapi/OneDrive/Desktop/GD32VW553/V1_MQTT_OK/GD32VW55X_Wifi_BLE_SDK/GD32VW55x_RELEASE_V1.0.2/MSDK/cloud/alicloud/src/infra/utils/misc\utils_httpc.c ****             }
 590:C:/Users/stapi/OneDrive/Desktop/GD32VW553/V1_MQTT_OK/GD32VW55X_Wifi_BLE_SDK/GD32VW55x_RELEASE_V1.0.2/MSDK/cloud/alicloud/src/infra/utils/misc\utils_httpc.c **** 
 591:C:/Users/stapi/OneDrive/Desktop/GD32VW553/V1_MQTT_OK/GD32VW55X_Wifi_BLE_SDK/GD32VW55x_RELEASE_V1.0.2/MSDK/cloud/alicloud/src/infra/utils/misc\utils_httpc.c ****             if (len > readLen) {
 592:C:/Users/stapi/OneDrive/Desktop/GD32VW553/V1_MQTT_OK/GD32VW55X_Wifi_BLE_SDK/GD32VW55x_RELEASE_V1.0.2/MSDK/cloud/alicloud/src/infra/utils/misc\utils_httpc.c ****                 utils_debug("memmove %d %d %d\n", readLen, len, client_data->retrieve_len);
 593:C:/Users/stapi/OneDrive/Desktop/GD32VW553/V1_MQTT_OK/GD32VW55X_Wifi_BLE_SDK/GD32VW55x_RELEASE_V1.0.2/MSDK/cloud/alicloud/src/infra/utils/misc\utils_httpc.c ****                 memmove(data, &data[readLen], len - readLen); /* chunk case, read between two chunk
 594:C:/Users/stapi/OneDrive/Desktop/GD32VW553/V1_MQTT_OK/GD32VW55X_Wifi_BLE_SDK/GD32VW55x_RELEASE_V1.0.2/MSDK/cloud/alicloud/src/infra/utils/misc\utils_httpc.c ****                 len -= readLen;
 595:C:/Users/stapi/OneDrive/Desktop/GD32VW553/V1_MQTT_OK/GD32VW55X_Wifi_BLE_SDK/GD32VW55x_RELEASE_V1.0.2/MSDK/cloud/alicloud/src/infra/utils/misc\utils_httpc.c ****                 readLen = 0;
 596:C:/Users/stapi/OneDrive/Desktop/GD32VW553/V1_MQTT_OK/GD32VW55X_Wifi_BLE_SDK/GD32VW55x_RELEASE_V1.0.2/MSDK/cloud/alicloud/src/infra/utils/misc\utils_httpc.c ****                 client_data->retrieve_len = 0;
 597:C:/Users/stapi/OneDrive/Desktop/GD32VW553/V1_MQTT_OK/GD32VW55X_Wifi_BLE_SDK/GD32VW55x_RELEASE_V1.0.2/MSDK/cloud/alicloud/src/infra/utils/misc\utils_httpc.c ****             } else {
 598:C:/Users/stapi/OneDrive/Desktop/GD32VW553/V1_MQTT_OK/GD32VW55X_Wifi_BLE_SDK/GD32VW55x_RELEASE_V1.0.2/MSDK/cloud/alicloud/src/infra/utils/misc\utils_httpc.c ****                 readLen -= len;
 599:C:/Users/stapi/OneDrive/Desktop/GD32VW553/V1_MQTT_OK/GD32VW55X_Wifi_BLE_SDK/GD32VW55x_RELEASE_V1.0.2/MSDK/cloud/alicloud/src/infra/utils/misc\utils_httpc.c ****             }
 600:C:/Users/stapi/OneDrive/Desktop/GD32VW553/V1_MQTT_OK/GD32VW55X_Wifi_BLE_SDK/GD32VW55x_RELEASE_V1.0.2/MSDK/cloud/alicloud/src/infra/utils/misc\utils_httpc.c **** 
 601:C:/Users/stapi/OneDrive/Desktop/GD32VW553/V1_MQTT_OK/GD32VW55X_Wifi_BLE_SDK/GD32VW55x_RELEASE_V1.0.2/MSDK/cloud/alicloud/src/infra/utils/misc\utils_httpc.c ****             if (readLen) {
 602:C:/Users/stapi/OneDrive/Desktop/GD32VW553/V1_MQTT_OK/GD32VW55X_Wifi_BLE_SDK/GD32VW55x_RELEASE_V1.0.2/MSDK/cloud/alicloud/src/infra/utils/misc\utils_httpc.c ****                 int ret;
 603:C:/Users/stapi/OneDrive/Desktop/GD32VW553/V1_MQTT_OK/GD32VW55X_Wifi_BLE_SDK/GD32VW55x_RELEASE_V1.0.2/MSDK/cloud/alicloud/src/infra/utils/misc\utils_httpc.c ****                 int max_len = HTTPCLIENT_MIN(HTTPCLIENT_CHUNK_SIZE - 1, client_data->response_buf_l
 604:C:/Users/stapi/OneDrive/Desktop/GD32VW553/V1_MQTT_OK/GD32VW55X_Wifi_BLE_SDK/GD32VW55x_RELEASE_V1.0.2/MSDK/cloud/alicloud/src/infra/utils/misc\utils_httpc.c ****                 max_len = HTTPCLIENT_MIN(max_len, readLen);
 605:C:/Users/stapi/OneDrive/Desktop/GD32VW553/V1_MQTT_OK/GD32VW55X_Wifi_BLE_SDK/GD32VW55x_RELEASE_V1.0.2/MSDK/cloud/alicloud/src/infra/utils/misc\utils_httpc.c **** 
 606:C:/Users/stapi/OneDrive/Desktop/GD32VW553/V1_MQTT_OK/GD32VW55X_Wifi_BLE_SDK/GD32VW55x_RELEASE_V1.0.2/MSDK/cloud/alicloud/src/infra/utils/misc\utils_httpc.c ****                 /* if timeout reduce to zero, it will be translated into NULL for select function i
 607:C:/Users/stapi/OneDrive/Desktop/GD32VW553/V1_MQTT_OK/GD32VW55X_Wifi_BLE_SDK/GD32VW55x_RELEASE_V1.0.2/MSDK/cloud/alicloud/src/infra/utils/misc\utils_httpc.c ****                 /* it would lead to indenfinite behavior, so we avoid it */
 608:C:/Users/stapi/OneDrive/Desktop/GD32VW553/V1_MQTT_OK/GD32VW55X_Wifi_BLE_SDK/GD32VW55x_RELEASE_V1.0.2/MSDK/cloud/alicloud/src/infra/utils/misc\utils_httpc.c ****                 if (iotx_time_left(&timer) < MIN_TIMEOUT) {
 609:C:/Users/stapi/OneDrive/Desktop/GD32VW553/V1_MQTT_OK/GD32VW55X_Wifi_BLE_SDK/GD32VW55x_RELEASE_V1.0.2/MSDK/cloud/alicloud/src/infra/utils/misc\utils_httpc.c ****                     extendCount++;
 610:C:/Users/stapi/OneDrive/Desktop/GD32VW553/V1_MQTT_OK/GD32VW55X_Wifi_BLE_SDK/GD32VW55x_RELEASE_V1.0.2/MSDK/cloud/alicloud/src/infra/utils/misc\utils_httpc.c ****                     utils_time_countdown_ms(&timer, MIN_TIMEOUT);
 611:C:/Users/stapi/OneDrive/Desktop/GD32VW553/V1_MQTT_OK/GD32VW55X_Wifi_BLE_SDK/GD32VW55x_RELEASE_V1.0.2/MSDK/cloud/alicloud/src/infra/utils/misc\utils_httpc.c ****                     if (1 == extendCount % 100) {
 612:C:/Users/stapi/OneDrive/Desktop/GD32VW553/V1_MQTT_OK/GD32VW55X_Wifi_BLE_SDK/GD32VW55x_RELEASE_V1.0.2/MSDK/cloud/alicloud/src/infra/utils/misc\utils_httpc.c ****                         utils_debug("extend countdown_ms to avoid NULL input to select, tired %d ti
 613:C:/Users/stapi/OneDrive/Desktop/GD32VW553/V1_MQTT_OK/GD32VW55X_Wifi_BLE_SDK/GD32VW55x_RELEASE_V1.0.2/MSDK/cloud/alicloud/src/infra/utils/misc\utils_httpc.c ****                     }
 614:C:/Users/stapi/OneDrive/Desktop/GD32VW553/V1_MQTT_OK/GD32VW55X_Wifi_BLE_SDK/GD32VW55x_RELEASE_V1.0.2/MSDK/cloud/alicloud/src/infra/utils/misc\utils_httpc.c ****                 }
 615:C:/Users/stapi/OneDrive/Desktop/GD32VW553/V1_MQTT_OK/GD32VW55X_Wifi_BLE_SDK/GD32VW55x_RELEASE_V1.0.2/MSDK/cloud/alicloud/src/infra/utils/misc\utils_httpc.c **** 
 616:C:/Users/stapi/OneDrive/Desktop/GD32VW553/V1_MQTT_OK/GD32VW55X_Wifi_BLE_SDK/GD32VW55x_RELEASE_V1.0.2/MSDK/cloud/alicloud/src/infra/utils/misc\utils_httpc.c ****                 ret = httpclient_recv(client, data, 1, max_len, &len, iotx_time_left(&timer));
 617:C:/Users/stapi/OneDrive/Desktop/GD32VW553/V1_MQTT_OK/GD32VW55X_Wifi_BLE_SDK/GD32VW55x_RELEASE_V1.0.2/MSDK/cloud/alicloud/src/infra/utils/misc\utils_httpc.c ****                 if (ret == ERROR_HTTP_CONN) {
 618:C:/Users/stapi/OneDrive/Desktop/GD32VW553/V1_MQTT_OK/GD32VW55X_Wifi_BLE_SDK/GD32VW55x_RELEASE_V1.0.2/MSDK/cloud/alicloud/src/infra/utils/misc\utils_httpc.c ****                     return ret;
 619:C:/Users/stapi/OneDrive/Desktop/GD32VW553/V1_MQTT_OK/GD32VW55X_Wifi_BLE_SDK/GD32VW55x_RELEASE_V1.0.2/MSDK/cloud/alicloud/src/infra/utils/misc\utils_httpc.c ****                 }
 620:C:/Users/stapi/OneDrive/Desktop/GD32VW553/V1_MQTT_OK/GD32VW55X_Wifi_BLE_SDK/GD32VW55x_RELEASE_V1.0.2/MSDK/cloud/alicloud/src/infra/utils/misc\utils_httpc.c **** 
 621:C:/Users/stapi/OneDrive/Desktop/GD32VW553/V1_MQTT_OK/GD32VW55X_Wifi_BLE_SDK/GD32VW55x_RELEASE_V1.0.2/MSDK/cloud/alicloud/src/infra/utils/misc\utils_httpc.c ****                 /* if it falls into deadloop before reconnected to internet, we just quit*/
 622:C:/Users/stapi/OneDrive/Desktop/GD32VW553/V1_MQTT_OK/GD32VW55X_Wifi_BLE_SDK/GD32VW55x_RELEASE_V1.0.2/MSDK/cloud/alicloud/src/infra/utils/misc\utils_httpc.c ****                 if ((0 == len) && (0 == iotx_time_left(&timer)) && (FAIL_RETURN == ret)) {
 623:C:/Users/stapi/OneDrive/Desktop/GD32VW553/V1_MQTT_OK/GD32VW55X_Wifi_BLE_SDK/GD32VW55x_RELEASE_V1.0.2/MSDK/cloud/alicloud/src/infra/utils/misc\utils_httpc.c ****                     deadLoopCount++;
 624:C:/Users/stapi/OneDrive/Desktop/GD32VW553/V1_MQTT_OK/GD32VW55X_Wifi_BLE_SDK/GD32VW55x_RELEASE_V1.0.2/MSDK/cloud/alicloud/src/infra/utils/misc\utils_httpc.c ****                     if (deadLoopCount > MAX_RETRY_COUNT) {
 625:C:/Users/stapi/OneDrive/Desktop/GD32VW553/V1_MQTT_OK/GD32VW55X_Wifi_BLE_SDK/GD32VW55x_RELEASE_V1.0.2/MSDK/cloud/alicloud/src/infra/utils/misc\utils_httpc.c ****                         utils_err("deadloop detected, exit");
 401              		.loc 1 625 25 is_stmt 0
 402 010a 97000000 		call	HAL_Printf
 402      E7800000 
 403              	.LVL39:
 404              		.loc 1 625 25 is_stmt 1
 405 0112 37050000 		lui	a0,%hi(.LC4)
 406 0116 13050500 		addi	a0,a0,%lo(.LC4)
 407 011a 97000000 		call	HAL_Printf
 407      E7800000 
 408              	.LVL40:
 409              		.loc 1 625 25
 626:C:/Users/stapi/OneDrive/Desktop/GD32VW553/V1_MQTT_OK/GD32VW55X_Wifi_BLE_SDK/GD32VW55x_RELEASE_V1.0.2/MSDK/cloud/alicloud/src/infra/utils/misc\utils_httpc.c ****                         return ret;
 410              		.loc 1 626 25
 411              		.loc 1 626 32 is_stmt 0
 412 0122 C1A8     		j	.L8
 413              	.LVL41:
 414              	.L10:
 415              	.LBE5:
 416              	.LBE4:
 417              	.LBB16:
 480:C:/Users/stapi/OneDrive/Desktop/GD32VW553/V1_MQTT_OK/GD32VW55X_Wifi_BLE_SDK/GD32VW55x_RELEASE_V1.0.2/MSDK/cloud/alicloud/src/infra/utils/misc\utils_httpc.c ****                 client_data->response_buf[client_data->response_buf_len - 1] = '\0';
 418              		.loc 1 480 17 is_stmt 1
 419 0124 33869740 		sub	a2,a5,s1
 420 0128 A285     		mv	a1,s0
 421 012a 97000000 		call	memcpy
 421      E7800000 
 422              	.LVL42:
 481:C:/Users/stapi/OneDrive/Desktop/GD32VW553/V1_MQTT_OK/GD32VW55X_Wifi_BLE_SDK/GD32VW55x_RELEASE_V1.0.2/MSDK/cloud/alicloud/src/infra/utils/misc\utils_httpc.c ****                 return HTTP_RETRIEVE_MORE_DATA;
 423              		.loc 1 481 17
 481:C:/Users/stapi/OneDrive/Desktop/GD32VW553/V1_MQTT_OK/GD32VW55X_Wifi_BLE_SDK/GD32VW55x_RELEASE_V1.0.2/MSDK/cloud/alicloud/src/infra/utils/misc\utils_httpc.c ****                 return HTTP_RETRIEVE_MORE_DATA;
 424              		.loc 1 481 78 is_stmt 0
 425 0132 83274D02 		lw	a5,36(s10)
 426 0136 03278D01 		lw	a4,24(s10)
 427 013a BA97     		add	a5,a5,a4
 428 013c A38F07FE 		sb	zero,-1(a5)
 482:C:/Users/stapi/OneDrive/Desktop/GD32VW553/V1_MQTT_OK/GD32VW55X_Wifi_BLE_SDK/GD32VW55x_RELEASE_V1.0.2/MSDK/cloud/alicloud/src/infra/utils/misc\utils_httpc.c ****             }
 429              		.loc 1 482 17 is_stmt 1
 430              	.LVL43:
 431              	.L59:
 432              	.LBE16:
 433              	.LBB17:
 588:C:/Users/stapi/OneDrive/Desktop/GD32VW553/V1_MQTT_OK/GD32VW55X_Wifi_BLE_SDK/GD32VW55x_RELEASE_V1.0.2/MSDK/cloud/alicloud/src/infra/utils/misc\utils_httpc.c ****             }
 434              		.loc 1 588 17
 588:C:/Users/stapi/OneDrive/Desktop/GD32VW553/V1_MQTT_OK/GD32VW55X_Wifi_BLE_SDK/GD32VW55x_RELEASE_V1.0.2/MSDK/cloud/alicloud/src/infra/utils/misc\utils_httpc.c ****             }
 435              		.loc 1 588 24 is_stmt 0
 436 0140 0549     		li	s2,1
 437 0142 45A8     		j	.L8
 438              	.LVL44:
 439              	.L53:
 440              	.LBE17:
 441              	.LBB18:
 497:C:/Users/stapi/OneDrive/Desktop/GD32VW553/V1_MQTT_OK/GD32VW55X_Wifi_BLE_SDK/GD32VW55x_RELEASE_V1.0.2/MSDK/cloud/alicloud/src/infra/utils/misc\utils_httpc.c ****                 /* read no more data */
 442              		.loc 1 497 13 is_stmt 1
 497:C:/Users/stapi/OneDrive/Desktop/GD32VW553/V1_MQTT_OK/GD32VW55X_Wifi_BLE_SDK/GD32VW55x_RELEASE_V1.0.2/MSDK/cloud/alicloud/src/infra/utils/misc\utils_httpc.c ****                 /* read no more data */
 443              		.loc 1 497 21 is_stmt 0
 444 0144 3249     		lw	s2,12(sp)
 445              	.LVL45:
 497:C:/Users/stapi/OneDrive/Desktop/GD32VW553/V1_MQTT_OK/GD32VW55X_Wifi_BLE_SDK/GD32VW55x_RELEASE_V1.0.2/MSDK/cloud/alicloud/src/infra/utils/misc\utils_httpc.c ****                 /* read no more data */
 446              		.loc 1 497 16
 447 0146 E31809F2 		bne	s2,zero,.L14
 499:C:/Users/stapi/OneDrive/Desktop/GD32VW553/V1_MQTT_OK/GD32VW55X_Wifi_BLE_SDK/GD32VW55x_RELEASE_V1.0.2/MSDK/cloud/alicloud/src/infra/utils/misc\utils_httpc.c ****                 client_data->is_more = IOT_FALSE;
 448              		.loc 1 499 17 is_stmt 1
 449 014a 37070000 		lui	a4,%hi(.LC9)
 450 014e 13070700 		addi	a4,a4,%lo(.LC9)
 451 0152 9546     		li	a3,5
 452 0154 1306301F 		li	a2,499
 453 0158 93850900 		addi	a1,s3,%lo(.LANCHOR1)
 454 015c 13050A00 		addi	a0,s4,%lo(.LC1)
 455 0160 97000000 		call	LITE_syslog
 455      E7800000 
 456              	.LVL46:
 500:C:/Users/stapi/OneDrive/Desktop/GD32VW553/V1_MQTT_OK/GD32VW55X_Wifi_BLE_SDK/GD32VW55x_RELEASE_V1.0.2/MSDK/cloud/alicloud/src/infra/utils/misc\utils_httpc.c ****                 return SUCCESS_RETURN;
 457              		.loc 1 500 17
 458              	.L61:
 459              	.LBE18:
 460              	.LBB19:
 627:C:/Users/stapi/OneDrive/Desktop/GD32VW553/V1_MQTT_OK/GD32VW55X_Wifi_BLE_SDK/GD32VW55x_RELEASE_V1.0.2/MSDK/cloud/alicloud/src/infra/utils/misc\utils_httpc.c ****                     }
 628:C:/Users/stapi/OneDrive/Desktop/GD32VW553/V1_MQTT_OK/GD32VW55X_Wifi_BLE_SDK/GD32VW55x_RELEASE_V1.0.2/MSDK/cloud/alicloud/src/infra/utils/misc\utils_httpc.c ****                 } else {
 629:C:/Users/stapi/OneDrive/Desktop/GD32VW553/V1_MQTT_OK/GD32VW55X_Wifi_BLE_SDK/GD32VW55x_RELEASE_V1.0.2/MSDK/cloud/alicloud/src/infra/utils/misc\utils_httpc.c ****                     deadLoopCount = 0;
 630:C:/Users/stapi/OneDrive/Desktop/GD32VW553/V1_MQTT_OK/GD32VW55X_Wifi_BLE_SDK/GD32VW55x_RELEASE_V1.0.2/MSDK/cloud/alicloud/src/infra/utils/misc\utils_httpc.c ****                 }
 631:C:/Users/stapi/OneDrive/Desktop/GD32VW553/V1_MQTT_OK/GD32VW55X_Wifi_BLE_SDK/GD32VW55x_RELEASE_V1.0.2/MSDK/cloud/alicloud/src/infra/utils/misc\utils_httpc.c **** 
 632:C:/Users/stapi/OneDrive/Desktop/GD32VW553/V1_MQTT_OK/GD32VW55X_Wifi_BLE_SDK/GD32VW55x_RELEASE_V1.0.2/MSDK/cloud/alicloud/src/infra/utils/misc\utils_httpc.c ****                 /*if the internet connection is fixed during the loop, the download stream might be
 633:C:/Users/stapi/OneDrive/Desktop/GD32VW553/V1_MQTT_OK/GD32VW55X_Wifi_BLE_SDK/GD32VW55x_RELEASE_V1.0.2/MSDK/cloud/alicloud/src/infra/utils/misc\utils_httpc.c ****                 if ((0 == len) && (extendCount > 2 * MAX_RETRY_COUNT) && (FAIL_RETURN == ret)) {
 634:C:/Users/stapi/OneDrive/Desktop/GD32VW553/V1_MQTT_OK/GD32VW55X_Wifi_BLE_SDK/GD32VW55x_RELEASE_V1.0.2/MSDK/cloud/alicloud/src/infra/utils/misc\utils_httpc.c ****                     utils_err("extend timer for too many times, exit");
 635:C:/Users/stapi/OneDrive/Desktop/GD32VW553/V1_MQTT_OK/GD32VW55X_Wifi_BLE_SDK/GD32VW55x_RELEASE_V1.0.2/MSDK/cloud/alicloud/src/infra/utils/misc\utils_httpc.c ****                     return ERROR_HTTP_CONN;
 636:C:/Users/stapi/OneDrive/Desktop/GD32VW553/V1_MQTT_OK/GD32VW55X_Wifi_BLE_SDK/GD32VW55x_RELEASE_V1.0.2/MSDK/cloud/alicloud/src/infra/utils/misc\utils_httpc.c ****                 }
 637:C:/Users/stapi/OneDrive/Desktop/GD32VW553/V1_MQTT_OK/GD32VW55X_Wifi_BLE_SDK/GD32VW55x_RELEASE_V1.0.2/MSDK/cloud/alicloud/src/infra/utils/misc\utils_httpc.c **** 
 638:C:/Users/stapi/OneDrive/Desktop/GD32VW553/V1_MQTT_OK/GD32VW55X_Wifi_BLE_SDK/GD32VW55x_RELEASE_V1.0.2/MSDK/cloud/alicloud/src/infra/utils/misc\utils_httpc.c ****             }
 639:C:/Users/stapi/OneDrive/Desktop/GD32VW553/V1_MQTT_OK/GD32VW55X_Wifi_BLE_SDK/GD32VW55x_RELEASE_V1.0.2/MSDK/cloud/alicloud/src/infra/utils/misc\utils_httpc.c ****         } while (readLen);
 640:C:/Users/stapi/OneDrive/Desktop/GD32VW553/V1_MQTT_OK/GD32VW55X_Wifi_BLE_SDK/GD32VW55x_RELEASE_V1.0.2/MSDK/cloud/alicloud/src/infra/utils/misc\utils_httpc.c **** 
 641:C:/Users/stapi/OneDrive/Desktop/GD32VW553/V1_MQTT_OK/GD32VW55X_Wifi_BLE_SDK/GD32VW55x_RELEASE_V1.0.2/MSDK/cloud/alicloud/src/infra/utils/misc\utils_httpc.c ****         if (client_data->is_chunked) {
 642:C:/Users/stapi/OneDrive/Desktop/GD32VW553/V1_MQTT_OK/GD32VW55X_Wifi_BLE_SDK/GD32VW55x_RELEASE_V1.0.2/MSDK/cloud/alicloud/src/infra/utils/misc\utils_httpc.c ****             if (len < 2) {
 643:C:/Users/stapi/OneDrive/Desktop/GD32VW553/V1_MQTT_OK/GD32VW55X_Wifi_BLE_SDK/GD32VW55x_RELEASE_V1.0.2/MSDK/cloud/alicloud/src/infra/utils/misc\utils_httpc.c ****                 int new_trf_len, ret;
 644:C:/Users/stapi/OneDrive/Desktop/GD32VW553/V1_MQTT_OK/GD32VW55X_Wifi_BLE_SDK/GD32VW55x_RELEASE_V1.0.2/MSDK/cloud/alicloud/src/infra/utils/misc\utils_httpc.c ****                 /* Read missing chars to find end of chunk */
 645:C:/Users/stapi/OneDrive/Desktop/GD32VW553/V1_MQTT_OK/GD32VW55X_Wifi_BLE_SDK/GD32VW55x_RELEASE_V1.0.2/MSDK/cloud/alicloud/src/infra/utils/misc\utils_httpc.c ****                 ret = httpclient_recv(client, data + len, 2 - len, HTTPCLIENT_CHUNK_SIZE - len - 1,
 646:C:/Users/stapi/OneDrive/Desktop/GD32VW553/V1_MQTT_OK/GD32VW55X_Wifi_BLE_SDK/GD32VW55x_RELEASE_V1.0.2/MSDK/cloud/alicloud/src/infra/utils/misc\utils_httpc.c ****                                       iotx_time_left(&timer));
 647:C:/Users/stapi/OneDrive/Desktop/GD32VW553/V1_MQTT_OK/GD32VW55X_Wifi_BLE_SDK/GD32VW55x_RELEASE_V1.0.2/MSDK/cloud/alicloud/src/infra/utils/misc\utils_httpc.c ****                 if (ret == ERROR_HTTP_CONN) {
 648:C:/Users/stapi/OneDrive/Desktop/GD32VW553/V1_MQTT_OK/GD32VW55X_Wifi_BLE_SDK/GD32VW55x_RELEASE_V1.0.2/MSDK/cloud/alicloud/src/infra/utils/misc\utils_httpc.c ****                     return ret;
 649:C:/Users/stapi/OneDrive/Desktop/GD32VW553/V1_MQTT_OK/GD32VW55X_Wifi_BLE_SDK/GD32VW55x_RELEASE_V1.0.2/MSDK/cloud/alicloud/src/infra/utils/misc\utils_httpc.c ****                 }
 650:C:/Users/stapi/OneDrive/Desktop/GD32VW553/V1_MQTT_OK/GD32VW55X_Wifi_BLE_SDK/GD32VW55x_RELEASE_V1.0.2/MSDK/cloud/alicloud/src/infra/utils/misc\utils_httpc.c ****                 len += new_trf_len;
 651:C:/Users/stapi/OneDrive/Desktop/GD32VW553/V1_MQTT_OK/GD32VW55X_Wifi_BLE_SDK/GD32VW55x_RELEASE_V1.0.2/MSDK/cloud/alicloud/src/infra/utils/misc\utils_httpc.c ****             }
 652:C:/Users/stapi/OneDrive/Desktop/GD32VW553/V1_MQTT_OK/GD32VW55X_Wifi_BLE_SDK/GD32VW55x_RELEASE_V1.0.2/MSDK/cloud/alicloud/src/infra/utils/misc\utils_httpc.c ****             if ((data[0] != '\r') || (data[1] != '\n')) {
 653:C:/Users/stapi/OneDrive/Desktop/GD32VW553/V1_MQTT_OK/GD32VW55X_Wifi_BLE_SDK/GD32VW55x_RELEASE_V1.0.2/MSDK/cloud/alicloud/src/infra/utils/misc\utils_httpc.c ****                 utils_err("Format error, %s", data); /* after memmove, the beginning of next chunk 
 654:C:/Users/stapi/OneDrive/Desktop/GD32VW553/V1_MQTT_OK/GD32VW55X_Wifi_BLE_SDK/GD32VW55x_RELEASE_V1.0.2/MSDK/cloud/alicloud/src/infra/utils/misc\utils_httpc.c ****                 return ERROR_HTTP_UNRESOLVED_DNS;
 655:C:/Users/stapi/OneDrive/Desktop/GD32VW553/V1_MQTT_OK/GD32VW55X_Wifi_BLE_SDK/GD32VW55x_RELEASE_V1.0.2/MSDK/cloud/alicloud/src/infra/utils/misc\utils_httpc.c ****             }
 656:C:/Users/stapi/OneDrive/Desktop/GD32VW553/V1_MQTT_OK/GD32VW55X_Wifi_BLE_SDK/GD32VW55x_RELEASE_V1.0.2/MSDK/cloud/alicloud/src/infra/utils/misc\utils_httpc.c ****             memmove(data, &data[2], len - 2); /* remove the \r\n */
 657:C:/Users/stapi/OneDrive/Desktop/GD32VW553/V1_MQTT_OK/GD32VW55X_Wifi_BLE_SDK/GD32VW55x_RELEASE_V1.0.2/MSDK/cloud/alicloud/src/infra/utils/misc\utils_httpc.c ****             len -= 2;
 658:C:/Users/stapi/OneDrive/Desktop/GD32VW553/V1_MQTT_OK/GD32VW55X_Wifi_BLE_SDK/GD32VW55x_RELEASE_V1.0.2/MSDK/cloud/alicloud/src/infra/utils/misc\utils_httpc.c ****         } else {
 659:C:/Users/stapi/OneDrive/Desktop/GD32VW553/V1_MQTT_OK/GD32VW55X_Wifi_BLE_SDK/GD32VW55x_RELEASE_V1.0.2/MSDK/cloud/alicloud/src/infra/utils/misc\utils_httpc.c ****             utils_err("no more (content-length)");
 461              		.loc 1 659 13
 660:C:/Users/stapi/OneDrive/Desktop/GD32VW553/V1_MQTT_OK/GD32VW55X_Wifi_BLE_SDK/GD32VW55x_RELEASE_V1.0.2/MSDK/cloud/alicloud/src/infra/utils/misc\utils_httpc.c ****             client_data->is_more = IOT_FALSE;
 462              		.loc 1 660 13
 463              		.loc 1 660 34 is_stmt 0
 464 0168 23200D00 		sw	zero,0(s10)
 661:C:/Users/stapi/OneDrive/Desktop/GD32VW553/V1_MQTT_OK/GD32VW55X_Wifi_BLE_SDK/GD32VW55x_RELEASE_V1.0.2/MSDK/cloud/alicloud/src/infra/utils/misc\utils_httpc.c ****             break;
 465              		.loc 1 661 13 is_stmt 1
 466              	.LBE19:
 662:C:/Users/stapi/OneDrive/Desktop/GD32VW553/V1_MQTT_OK/GD32VW55X_Wifi_BLE_SDK/GD32VW55x_RELEASE_V1.0.2/MSDK/cloud/alicloud/src/infra/utils/misc\utils_httpc.c ****         }
 663:C:/Users/stapi/OneDrive/Desktop/GD32VW553/V1_MQTT_OK/GD32VW55X_Wifi_BLE_SDK/GD32VW55x_RELEASE_V1.0.2/MSDK/cloud/alicloud/src/infra/utils/misc\utils_httpc.c **** 
 664:C:/Users/stapi/OneDrive/Desktop/GD32VW553/V1_MQTT_OK/GD32VW55X_Wifi_BLE_SDK/GD32VW55x_RELEASE_V1.0.2/MSDK/cloud/alicloud/src/infra/utils/misc\utils_httpc.c ****     }
 665:C:/Users/stapi/OneDrive/Desktop/GD32VW553/V1_MQTT_OK/GD32VW55X_Wifi_BLE_SDK/GD32VW55x_RELEASE_V1.0.2/MSDK/cloud/alicloud/src/infra/utils/misc\utils_httpc.c **** 
 666:C:/Users/stapi/OneDrive/Desktop/GD32VW553/V1_MQTT_OK/GD32VW55X_Wifi_BLE_SDK/GD32VW55x_RELEASE_V1.0.2/MSDK/cloud/alicloud/src/infra/utils/misc\utils_httpc.c ****     return SUCCESS_RETURN;
 467              		.loc 1 666 5
 468              		.loc 1 666 12 is_stmt 0
 469 016c 59A0     		j	.L8
 470              	.LVL47:
 471              	.L9:
 472              	.LBB20:
 473              	.LBB6:
 519:C:/Users/stapi/OneDrive/Desktop/GD32VW553/V1_MQTT_OK/GD32VW55X_Wifi_BLE_SDK/GD32VW55x_RELEASE_V1.0.2/MSDK/cloud/alicloud/src/infra/utils/misc\utils_httpc.c ****                             foundCrlf = IOT_TRUE;
 474              		.loc 1 519 28
 475 016e 354C     		li	s8,13
 476              	.LVL48:
 477              	.L36:
 478              	.LBE6:
 479              	.LBE20:
 506:C:/Users/stapi/OneDrive/Desktop/GD32VW553/V1_MQTT_OK/GD32VW55X_Wifi_BLE_SDK/GD32VW55x_RELEASE_V1.0.2/MSDK/cloud/alicloud/src/infra/utils/misc\utils_httpc.c ****         uint32_t readLen = 0;
 480              		.loc 1 506 5 is_stmt 1
 481              	.LBB21:
 507:C:/Users/stapi/OneDrive/Desktop/GD32VW553/V1_MQTT_OK/GD32VW55X_Wifi_BLE_SDK/GD32VW55x_RELEASE_V1.0.2/MSDK/cloud/alicloud/src/infra/utils/misc\utils_httpc.c **** 
 482              		.loc 1 507 9
 509:C:/Users/stapi/OneDrive/Desktop/GD32VW553/V1_MQTT_OK/GD32VW55X_Wifi_BLE_SDK/GD32VW55x_RELEASE_V1.0.2/MSDK/cloud/alicloud/src/infra/utils/misc\utils_httpc.c ****             /* Read chunk header */
 483              		.loc 1 509 9
 509:C:/Users/stapi/OneDrive/Desktop/GD32VW553/V1_MQTT_OK/GD32VW55X_Wifi_BLE_SDK/GD32VW55x_RELEASE_V1.0.2/MSDK/cloud/alicloud/src/infra/utils/misc\utils_httpc.c ****             /* Read chunk header */
 484              		.loc 1 509 12 is_stmt 0
 485 0170 83274D00 		lw	a5,4(s10)
 509:C:/Users/stapi/OneDrive/Desktop/GD32VW553/V1_MQTT_OK/GD32VW55X_Wifi_BLE_SDK/GD32VW55x_RELEASE_V1.0.2/MSDK/cloud/alicloud/src/infra/utils/misc\utils_httpc.c ****             /* Read chunk header */
 486              		.loc 1 509 51
 487 0174 83248D00 		lw	s1,8(s10)
 509:C:/Users/stapi/OneDrive/Desktop/GD32VW553/V1_MQTT_OK/GD32VW55X_Wifi_BLE_SDK/GD32VW55x_RELEASE_V1.0.2/MSDK/cloud/alicloud/src/infra/utils/misc\utils_httpc.c ****             /* Read chunk header */
 488              		.loc 1 509 12
 489 0178 63820728 		beq	a5,zero,.L39
 509:C:/Users/stapi/OneDrive/Desktop/GD32VW553/V1_MQTT_OK/GD32VW55X_Wifi_BLE_SDK/GD32VW55x_RELEASE_V1.0.2/MSDK/cloud/alicloud/src/infra/utils/misc\utils_httpc.c ****             /* Read chunk header */
 490              		.loc 1 509 37 discriminator 1
 491 017c 63409028 		bgt	s1,zero,.L39
 492              	.LBB9:
 517:C:/Users/stapi/OneDrive/Desktop/GD32VW553/V1_MQTT_OK/GD32VW55X_Wifi_BLE_SDK/GD32VW55x_RELEASE_V1.0.2/MSDK/cloud/alicloud/src/infra/utils/misc\utils_httpc.c ****                     for (; crlf_pos < len - 2; crlf_pos++) {
 493              		.loc 1 517 20
 494 0180 854C     		li	s9,1
 519:C:/Users/stapi/OneDrive/Desktop/GD32VW553/V1_MQTT_OK/GD32VW55X_Wifi_BLE_SDK/GD32VW55x_RELEASE_V1.0.2/MSDK/cloud/alicloud/src/infra/utils/misc\utils_httpc.c ****                             foundCrlf = IOT_TRUE;
 495              		.loc 1 519 52
 496 0182 2948     		li	a6,10
 527:C:/Users/stapi/OneDrive/Desktop/GD32VW553/V1_MQTT_OK/GD32VW55X_Wifi_BLE_SDK/GD32VW55x_RELEASE_V1.0.2/MSDK/cloud/alicloud/src/infra/utils/misc\utils_httpc.c ****                         int new_trf_len, ret;
 497              		.loc 1 527 24
 498 0184 9304F03F 		li	s1,1023
 499              	.LBB7:
 536:C:/Users/stapi/OneDrive/Desktop/GD32VW553/V1_MQTT_OK/GD32VW55X_Wifi_BLE_SDK/GD32VW55x_RELEASE_V1.0.2/MSDK/cloud/alicloud/src/infra/utils/misc\utils_httpc.c ****                             return ret;
 500              		.loc 1 536 28
 501 0188 E15D     		li	s11,-8
 502              	.L23:
 503              	.LBE7:
 511:C:/Users/stapi/OneDrive/Desktop/GD32VW553/V1_MQTT_OK/GD32VW55X_Wifi_BLE_SDK/GD32VW55x_RELEASE_V1.0.2/MSDK/cloud/alicloud/src/infra/utils/misc\utils_httpc.c ****             int n;
 504              		.loc 1 511 13 is_stmt 1
 512:C:/Users/stapi/OneDrive/Desktop/GD32VW553/V1_MQTT_OK/GD32VW55X_Wifi_BLE_SDK/GD32VW55x_RELEASE_V1.0.2/MSDK/cloud/alicloud/src/infra/utils/misc\utils_httpc.c ****             do {
 505              		.loc 1 512 13
 513:C:/Users/stapi/OneDrive/Desktop/GD32VW553/V1_MQTT_OK/GD32VW55X_Wifi_BLE_SDK/GD32VW55x_RELEASE_V1.0.2/MSDK/cloud/alicloud/src/infra/utils/misc\utils_httpc.c ****                 foundCrlf = IOT_FALSE;
 506              		.loc 1 513 13
 514:C:/Users/stapi/OneDrive/Desktop/GD32VW553/V1_MQTT_OK/GD32VW55X_Wifi_BLE_SDK/GD32VW55x_RELEASE_V1.0.2/MSDK/cloud/alicloud/src/infra/utils/misc\utils_httpc.c ****                 crlf_pos = 0;
 507              		.loc 1 514 17
 508              	.LVL49:
 515:C:/Users/stapi/OneDrive/Desktop/GD32VW553/V1_MQTT_OK/GD32VW55X_Wifi_BLE_SDK/GD32VW55x_RELEASE_V1.0.2/MSDK/cloud/alicloud/src/infra/utils/misc\utils_httpc.c ****                 data[len] = 0;
 509              		.loc 1 515 17
 516:C:/Users/stapi/OneDrive/Desktop/GD32VW553/V1_MQTT_OK/GD32VW55X_Wifi_BLE_SDK/GD32VW55x_RELEASE_V1.0.2/MSDK/cloud/alicloud/src/infra/utils/misc\utils_httpc.c ****                 if (len >= 2) {
 510              		.loc 1 516 17
 516:C:/Users/stapi/OneDrive/Desktop/GD32VW553/V1_MQTT_OK/GD32VW55X_Wifi_BLE_SDK/GD32VW55x_RELEASE_V1.0.2/MSDK/cloud/alicloud/src/infra/utils/misc\utils_httpc.c ****                 if (len >= 2) {
 511              		.loc 1 516 21 is_stmt 0
 512 018a B24B     		lw	s7,12(sp)
 513 018c B3057401 		add	a1,s0,s7
 516:C:/Users/stapi/OneDrive/Desktop/GD32VW553/V1_MQTT_OK/GD32VW55X_Wifi_BLE_SDK/GD32VW55x_RELEASE_V1.0.2/MSDK/cloud/alicloud/src/infra/utils/misc\utils_httpc.c ****                 if (len >= 2) {
 514              		.loc 1 516 27
 515 0190 23800500 		sb	zero,0(a1)
 517:C:/Users/stapi/OneDrive/Desktop/GD32VW553/V1_MQTT_OK/GD32VW55X_Wifi_BLE_SDK/GD32VW55x_RELEASE_V1.0.2/MSDK/cloud/alicloud/src/infra/utils/misc\utils_httpc.c ****                     for (; crlf_pos < len - 2; crlf_pos++) {
 516              		.loc 1 517 17 is_stmt 1
 517:C:/Users/stapi/OneDrive/Desktop/GD32VW553/V1_MQTT_OK/GD32VW55X_Wifi_BLE_SDK/GD32VW55x_RELEASE_V1.0.2/MSDK/cloud/alicloud/src/infra/utils/misc\utils_httpc.c ****                     for (; crlf_pos < len - 2; crlf_pos++) {
 517              		.loc 1 517 20 is_stmt 0
 518 0194 63D77C03 		ble	s7,s9,.L16
 519 0198 A287     		mv	a5,s0
 515:C:/Users/stapi/OneDrive/Desktop/GD32VW553/V1_MQTT_OK/GD32VW55X_Wifi_BLE_SDK/GD32VW55x_RELEASE_V1.0.2/MSDK/cloud/alicloud/src/infra/utils/misc\utils_httpc.c ****                 data[len] = 0;
 520              		.loc 1 515 26
 521 019a 0149     		li	s2,0
 518:C:/Users/stapi/OneDrive/Desktop/GD32VW553/V1_MQTT_OK/GD32VW55X_Wifi_BLE_SDK/GD32VW55x_RELEASE_V1.0.2/MSDK/cloud/alicloud/src/infra/utils/misc\utils_httpc.c ****                         if (data[crlf_pos] == '\r' && data[crlf_pos + 1] == '\n') {
 522              		.loc 1 518 43
 523 019c 1387EBFF 		addi	a4,s7,-2
 524              	.LVL50:
 525              	.L17:
 518:C:/Users/stapi/OneDrive/Desktop/GD32VW553/V1_MQTT_OK/GD32VW55X_Wifi_BLE_SDK/GD32VW55x_RELEASE_V1.0.2/MSDK/cloud/alicloud/src/infra/utils/misc\utils_httpc.c ****                         if (data[crlf_pos] == '\r' && data[crlf_pos + 1] == '\n') {
 526              		.loc 1 518 28 is_stmt 1 discriminator 1
 518:C:/Users/stapi/OneDrive/Desktop/GD32VW553/V1_MQTT_OK/GD32VW55X_Wifi_BLE_SDK/GD32VW55x_RELEASE_V1.0.2/MSDK/cloud/alicloud/src/infra/utils/misc\utils_httpc.c ****                         if (data[crlf_pos] == '\r' && data[crlf_pos + 1] == '\n') {
 527              		.loc 1 518 21 is_stmt 0 discriminator 1
 528 01a0 6346E900 		bgt	a4,s2,.L20
 525:C:/Users/stapi/OneDrive/Desktop/GD32VW553/V1_MQTT_OK/GD32VW55X_Wifi_BLE_SDK/GD32VW55x_RELEASE_V1.0.2/MSDK/cloud/alicloud/src/infra/utils/misc\utils_httpc.c ****                     /* Try to read more */
 529              		.loc 1 525 17 is_stmt 1
 530              	.LVL51:
 527:C:/Users/stapi/OneDrive/Desktop/GD32VW553/V1_MQTT_OK/GD32VW55X_Wifi_BLE_SDK/GD32VW55x_RELEASE_V1.0.2/MSDK/cloud/alicloud/src/infra/utils/misc\utils_httpc.c ****                         int new_trf_len, ret;
 531              		.loc 1 527 21
 527:C:/Users/stapi/OneDrive/Desktop/GD32VW553/V1_MQTT_OK/GD32VW55X_Wifi_BLE_SDK/GD32VW55x_RELEASE_V1.0.2/MSDK/cloud/alicloud/src/infra/utils/misc\utils_httpc.c ****                         int new_trf_len, ret;
 532              		.loc 1 527 24 is_stmt 0
 533 01a4 63DF7401 		ble	s7,s1,.L16
 542:C:/Users/stapi/OneDrive/Desktop/GD32VW553/V1_MQTT_OK/GD32VW55X_Wifi_BLE_SDK/GD32VW55x_RELEASE_V1.0.2/MSDK/cloud/alicloud/src/infra/utils/misc\utils_httpc.c ****                     }
 534              		.loc 1 542 32
 535 01a8 7159     		li	s2,-4
 536 01aa A1A0     		j	.L8
 537              	.LVL52:
 538              	.L20:
 519:C:/Users/stapi/OneDrive/Desktop/GD32VW553/V1_MQTT_OK/GD32VW55X_Wifi_BLE_SDK/GD32VW55x_RELEASE_V1.0.2/MSDK/cloud/alicloud/src/infra/utils/misc\utils_httpc.c ****                             foundCrlf = IOT_TRUE;
 539              		.loc 1 519 25 is_stmt 1
 519:C:/Users/stapi/OneDrive/Desktop/GD32VW553/V1_MQTT_OK/GD32VW55X_Wifi_BLE_SDK/GD32VW55x_RELEASE_V1.0.2/MSDK/cloud/alicloud/src/infra/utils/misc\utils_httpc.c ****                             foundCrlf = IOT_TRUE;
 540              		.loc 1 519 28 is_stmt 0
 541 01ac 83860700 		lb	a3,0(a5)
 542 01b0 63968601 		bne	a3,s8,.L18
 519:C:/Users/stapi/OneDrive/Desktop/GD32VW553/V1_MQTT_OK/GD32VW55X_Wifi_BLE_SDK/GD32VW55x_RELEASE_V1.0.2/MSDK/cloud/alicloud/src/infra/utils/misc\utils_httpc.c ****                             foundCrlf = IOT_TRUE;
 543              		.loc 1 519 52 discriminator 1
 544 01b4 83861700 		lb	a3,1(a5)
 545 01b8 63830633 		beq	a3,a6,.L19
 546              	.L18:
 518:C:/Users/stapi/OneDrive/Desktop/GD32VW553/V1_MQTT_OK/GD32VW55X_Wifi_BLE_SDK/GD32VW55x_RELEASE_V1.0.2/MSDK/cloud/alicloud/src/infra/utils/misc\utils_httpc.c ****                         if (data[crlf_pos] == '\r' && data[crlf_pos + 1] == '\n') {
 547              		.loc 1 518 48 is_stmt 1
 548              	.LVL53:
 518:C:/Users/stapi/OneDrive/Desktop/GD32VW553/V1_MQTT_OK/GD32VW55X_Wifi_BLE_SDK/GD32VW55x_RELEASE_V1.0.2/MSDK/cloud/alicloud/src/infra/utils/misc\utils_httpc.c ****                         if (data[crlf_pos] == '\r' && data[crlf_pos + 1] == '\n') {
 549              		.loc 1 518 56 is_stmt 0
 550 01bc 0509     		addi	s2,s2,1
 551              	.LVL54:
 552 01be 8507     		addi	a5,a5,1
 553 01c0 C5B7     		j	.L17
 554              	.LVL55:
 555              	.L16:
 556              	.LBB8:
 529:C:/Users/stapi/OneDrive/Desktop/GD32VW553/V1_MQTT_OK/GD32VW55X_Wifi_BLE_SDK/GD32VW55x_RELEASE_V1.0.2/MSDK/cloud/alicloud/src/infra/utils/misc\utils_httpc.c ****                                               data + len,
 557              		.loc 1 529 31
 558 01c2 2808     		addi	a0,sp,24
 559 01c4 2EC4     		sw	a1,8(sp)
 528:C:/Users/stapi/OneDrive/Desktop/GD32VW553/V1_MQTT_OK/GD32VW55X_Wifi_BLE_SDK/GD32VW55x_RELEASE_V1.0.2/MSDK/cloud/alicloud/src/infra/utils/misc\utils_httpc.c ****                         ret = httpclient_recv(client,
 560              		.loc 1 528 25 is_stmt 1
 529:C:/Users/stapi/OneDrive/Desktop/GD32VW553/V1_MQTT_OK/GD32VW55X_Wifi_BLE_SDK/GD32VW55x_RELEASE_V1.0.2/MSDK/cloud/alicloud/src/infra/utils/misc\utils_httpc.c ****                                               data + len,
 561              		.loc 1 529 25
 529:C:/Users/stapi/OneDrive/Desktop/GD32VW553/V1_MQTT_OK/GD32VW55X_Wifi_BLE_SDK/GD32VW55x_RELEASE_V1.0.2/MSDK/cloud/alicloud/src/infra/utils/misc\utils_httpc.c ****                                               data + len,
 562              		.loc 1 529 31 is_stmt 0
 563 01c6 97000000 		call	iotx_time_left
 563      E7800000 
 564              	.LVL56:
 565 01ce A245     		lw	a1,8(sp)
 566 01d0 2A87     		mv	a4,a0
 567 01d2 7408     		addi	a3,sp,28
 568 01d4 33867441 		sub	a2,s1,s7
 569 01d8 5A85     		mv	a0,s6
 570 01da 97000000 		call	httpclient_recv.constprop.0
 570      E7800000 
 571              	.LVL57:
 535:C:/Users/stapi/OneDrive/Desktop/GD32VW553/V1_MQTT_OK/GD32VW55X_Wifi_BLE_SDK/GD32VW55x_RELEASE_V1.0.2/MSDK/cloud/alicloud/src/infra/utils/misc\utils_httpc.c ****                         if (ret == ERROR_HTTP_CONN) {
 572              		.loc 1 535 29
 573 01e2 B247     		lw	a5,12(sp)
 574 01e4 7247     		lw	a4,28(sp)
 529:C:/Users/stapi/OneDrive/Desktop/GD32VW553/V1_MQTT_OK/GD32VW55X_Wifi_BLE_SDK/GD32VW55x_RELEASE_V1.0.2/MSDK/cloud/alicloud/src/infra/utils/misc\utils_httpc.c ****                                               data + len,
 575              		.loc 1 529 31
 576 01e6 2A89     		mv	s2,a0
 577              	.LVL58:
 535:C:/Users/stapi/OneDrive/Desktop/GD32VW553/V1_MQTT_OK/GD32VW55X_Wifi_BLE_SDK/GD32VW55x_RELEASE_V1.0.2/MSDK/cloud/alicloud/src/infra/utils/misc\utils_httpc.c ****                         if (ret == ERROR_HTTP_CONN) {
 578              		.loc 1 535 25 is_stmt 1
 536:C:/Users/stapi/OneDrive/Desktop/GD32VW553/V1_MQTT_OK/GD32VW55X_Wifi_BLE_SDK/GD32VW55x_RELEASE_V1.0.2/MSDK/cloud/alicloud/src/infra/utils/misc\utils_httpc.c ****                             return ret;
 579              		.loc 1 536 28 is_stmt 0
 580 01e8 2948     		li	a6,10
 535:C:/Users/stapi/OneDrive/Desktop/GD32VW553/V1_MQTT_OK/GD32VW55X_Wifi_BLE_SDK/GD32VW55x_RELEASE_V1.0.2/MSDK/cloud/alicloud/src/infra/utils/misc\utils_httpc.c ****                         if (ret == ERROR_HTTP_CONN) {
 581              		.loc 1 535 29
 582 01ea BA97     		add	a5,a5,a4
 583 01ec 3EC6     		sw	a5,12(sp)
 536:C:/Users/stapi/OneDrive/Desktop/GD32VW553/V1_MQTT_OK/GD32VW55X_Wifi_BLE_SDK/GD32VW55x_RELEASE_V1.0.2/MSDK/cloud/alicloud/src/infra/utils/misc\utils_httpc.c ****                             return ret;
 584              		.loc 1 536 25 is_stmt 1
 536:C:/Users/stapi/OneDrive/Desktop/GD32VW553/V1_MQTT_OK/GD32VW55X_Wifi_BLE_SDK/GD32VW55x_RELEASE_V1.0.2/MSDK/cloud/alicloud/src/infra/utils/misc\utils_httpc.c ****                             return ret;
 585              		.loc 1 536 28 is_stmt 0
 586 01ee E31EB5F9 		bne	a0,s11,.L23
 587              	.LVL59:
 588              	.L8:
 589              	.LBE8:
 590              	.LBE9:
 591              	.LBE21:
 667:C:/Users/stapi/OneDrive/Desktop/GD32VW553/V1_MQTT_OK/GD32VW55X_Wifi_BLE_SDK/GD32VW55x_RELEASE_V1.0.2/MSDK/cloud/alicloud/src/infra/utils/misc\utils_httpc.c **** }
 592              		.loc 1 667 1
 593 01f2 4A85     		mv	a0,s2
 594 01f4 0561     		addi	sp,sp,32
 595              		.cfi_remember_state
 596              		.cfi_def_cfa_offset 0
 597 01f6 17030000 		tail	__riscv_restore_12
 597      67000300 
 598              		.cfi_restore 27
 599              		.cfi_restore 26
 600              		.cfi_restore 25
 601              		.cfi_restore 24
 602              		.cfi_restore 23
 603              		.cfi_restore 22
 604              		.cfi_restore 21
 605              		.cfi_restore 20
 606              		.cfi_restore 19
 607              		.cfi_restore 18
 608              		.cfi_restore 9
 609              		.cfi_restore 8
 610              		.cfi_restore 1
 611              		.cfi_def_cfa_offset -64
 612              	.LVL60:
 613              	.L30:
 614              		.cfi_restore_state
 615              	.LBB22:
 616              	.LBB10:
 629:C:/Users/stapi/OneDrive/Desktop/GD32VW553/V1_MQTT_OK/GD32VW55X_Wifi_BLE_SDK/GD32VW55x_RELEASE_V1.0.2/MSDK/cloud/alicloud/src/infra/utils/misc\utils_httpc.c ****                 }
 617              		.loc 1 629 35
 618 01fe AA8C     		mv	s9,a0
 619 0200 5687     		mv	a4,s5
 620 0202 1DA4     		j	.L24
 621              	.LVL61:
 622              	.L25:
 623              	.LBE10:
 585:C:/Users/stapi/OneDrive/Desktop/GD32VW553/V1_MQTT_OK/GD32VW55X_Wifi_BLE_SDK/GD32VW55x_RELEASE_V1.0.2/MSDK/cloud/alicloud/src/infra/utils/misc\utils_httpc.c ****                 client_data->response_buf[client_data->response_buf_len - 1] = '\0';
 624              		.loc 1 585 17 is_stmt 1
 625 0204 198E     		sub	a2,a2,a4
 626 0206 A285     		mv	a1,s0
 627 0208 3AC4     		sw	a4,8(sp)
 628 020a 97000000 		call	memcpy
 628      E7800000 
 629              	.LVL62:
 586:C:/Users/stapi/OneDrive/Desktop/GD32VW553/V1_MQTT_OK/GD32VW55X_Wifi_BLE_SDK/GD32VW55x_RELEASE_V1.0.2/MSDK/cloud/alicloud/src/infra/utils/misc\utils_httpc.c ****                 client_data->retrieve_len -= (client_data->response_buf_len - 1 - count);
 630              		.loc 1 586 17
 586:C:/Users/stapi/OneDrive/Desktop/GD32VW553/V1_MQTT_OK/GD32VW55X_Wifi_BLE_SDK/GD32VW55x_RELEASE_V1.0.2/MSDK/cloud/alicloud/src/infra/utils/misc\utils_httpc.c ****                 client_data->retrieve_len -= (client_data->response_buf_len - 1 - count);
 631              		.loc 1 586 78 is_stmt 0
 632 0212 83274D02 		lw	a5,36(s10)
 633 0216 83268D01 		lw	a3,24(s10)
 587:C:/Users/stapi/OneDrive/Desktop/GD32VW553/V1_MQTT_OK/GD32VW55X_Wifi_BLE_SDK/GD32VW55x_RELEASE_V1.0.2/MSDK/cloud/alicloud/src/infra/utils/misc\utils_httpc.c ****                 return HTTP_RETRIEVE_MORE_DATA;
 634              		.loc 1 587 81
 635 021a 2247     		lw	a4,8(sp)
 586:C:/Users/stapi/OneDrive/Desktop/GD32VW553/V1_MQTT_OK/GD32VW55X_Wifi_BLE_SDK/GD32VW55x_RELEASE_V1.0.2/MSDK/cloud/alicloud/src/infra/utils/misc\utils_httpc.c ****                 client_data->retrieve_len -= (client_data->response_buf_len - 1 - count);
 636              		.loc 1 586 78
 637 021c B697     		add	a5,a5,a3
 638 021e A38F07FE 		sb	zero,-1(a5)
 587:C:/Users/stapi/OneDrive/Desktop/GD32VW553/V1_MQTT_OK/GD32VW55X_Wifi_BLE_SDK/GD32VW55x_RELEASE_V1.0.2/MSDK/cloud/alicloud/src/infra/utils/misc\utils_httpc.c ****                 return HTTP_RETRIEVE_MORE_DATA;
 639              		.loc 1 587 17 is_stmt 1
 587:C:/Users/stapi/OneDrive/Desktop/GD32VW553/V1_MQTT_OK/GD32VW55X_Wifi_BLE_SDK/GD32VW55x_RELEASE_V1.0.2/MSDK/cloud/alicloud/src/infra/utils/misc\utils_httpc.c ****                 return HTTP_RETRIEVE_MORE_DATA;
 640              		.loc 1 587 77 is_stmt 0
 641 0222 83278D01 		lw	a5,24(s10)
 642 0226 FD17     		addi	a5,a5,-1
 587:C:/Users/stapi/OneDrive/Desktop/GD32VW553/V1_MQTT_OK/GD32VW55X_Wifi_BLE_SDK/GD32VW55x_RELEASE_V1.0.2/MSDK/cloud/alicloud/src/infra/utils/misc\utils_httpc.c ****                 return HTTP_RETRIEVE_MORE_DATA;
 643              		.loc 1 587 81
 644 0228 998F     		sub	a5,a5,a4
 587:C:/Users/stapi/OneDrive/Desktop/GD32VW553/V1_MQTT_OK/GD32VW55X_Wifi_BLE_SDK/GD32VW55x_RELEASE_V1.0.2/MSDK/cloud/alicloud/src/infra/utils/misc\utils_httpc.c ****                 return HTTP_RETRIEVE_MORE_DATA;
 645              		.loc 1 587 43
 646 022a 03278D00 		lw	a4,8(s10)
 647 022e B307F740 		sub	a5,a4,a5
 648 0232 2324FD00 		sw	a5,8(s10)
 649 0236 29B7     		j	.L59
 650              	.LVL63:
 651              	.L55:
 598:C:/Users/stapi/OneDrive/Desktop/GD32VW553/V1_MQTT_OK/GD32VW55X_Wifi_BLE_SDK/GD32VW55x_RELEASE_V1.0.2/MSDK/cloud/alicloud/src/infra/utils/misc\utils_httpc.c ****             }
 652              		.loc 1 598 17 is_stmt 1
 598:C:/Users/stapi/OneDrive/Desktop/GD32VW553/V1_MQTT_OK/GD32VW55X_Wifi_BLE_SDK/GD32VW55x_RELEASE_V1.0.2/MSDK/cloud/alicloud/src/infra/utils/misc\utils_httpc.c ****             }
 653              		.loc 1 598 25 is_stmt 0
 654 0238 B3840441 		sub	s1,s1,a6
 655              	.LVL64:
 601:C:/Users/stapi/OneDrive/Desktop/GD32VW553/V1_MQTT_OK/GD32VW55X_Wifi_BLE_SDK/GD32VW55x_RELEASE_V1.0.2/MSDK/cloud/alicloud/src/infra/utils/misc\utils_httpc.c ****                 int ret;
 656              		.loc 1 601 13 is_stmt 1
 601:C:/Users/stapi/OneDrive/Desktop/GD32VW553/V1_MQTT_OK/GD32VW55X_Wifi_BLE_SDK/GD32VW55x_RELEASE_V1.0.2/MSDK/cloud/alicloud/src/infra/utils/misc\utils_httpc.c ****                 int ret;
 657              		.loc 1 601 16 is_stmt 0
 658 023c 63840426 		beq	s1,zero,.L28
 659              	.LBB11:
 602:C:/Users/stapi/OneDrive/Desktop/GD32VW553/V1_MQTT_OK/GD32VW55X_Wifi_BLE_SDK/GD32VW55x_RELEASE_V1.0.2/MSDK/cloud/alicloud/src/infra/utils/misc\utils_httpc.c ****                 int max_len = HTTPCLIENT_MIN(HTTPCLIENT_CHUNK_SIZE - 1, client_data->response_buf_l
 660              		.loc 1 602 17 is_stmt 1
 603:C:/Users/stapi/OneDrive/Desktop/GD32VW553/V1_MQTT_OK/GD32VW55X_Wifi_BLE_SDK/GD32VW55x_RELEASE_V1.0.2/MSDK/cloud/alicloud/src/infra/utils/misc\utils_httpc.c ****                 max_len = HTTPCLIENT_MIN(max_len, readLen);
 661              		.loc 1 603 17
 662              	.LVL65:
 604:C:/Users/stapi/OneDrive/Desktop/GD32VW553/V1_MQTT_OK/GD32VW55X_Wifi_BLE_SDK/GD32VW55x_RELEASE_V1.0.2/MSDK/cloud/alicloud/src/infra/utils/misc\utils_httpc.c **** 
 663              		.loc 1 604 17
 603:C:/Users/stapi/OneDrive/Desktop/GD32VW553/V1_MQTT_OK/GD32VW55X_Wifi_BLE_SDK/GD32VW55x_RELEASE_V1.0.2/MSDK/cloud/alicloud/src/infra/utils/misc\utils_httpc.c ****                 max_len = HTTPCLIENT_MIN(max_len, readLen);
 664              		.loc 1 603 31 is_stmt 0
 665 0240 03298D01 		lw	s2,24(s10)
 666              	.LVL66:
 603:C:/Users/stapi/OneDrive/Desktop/GD32VW553/V1_MQTT_OK/GD32VW55X_Wifi_BLE_SDK/GD32VW55x_RELEASE_V1.0.2/MSDK/cloud/alicloud/src/infra/utils/misc\utils_httpc.c ****                 max_len = HTTPCLIENT_MIN(max_len, readLen);
 667              		.loc 1 603 21
 668 0244 9307F03F 		li	a5,1023
 608:C:/Users/stapi/OneDrive/Desktop/GD32VW553/V1_MQTT_OK/GD32VW55X_Wifi_BLE_SDK/GD32VW55x_RELEASE_V1.0.2/MSDK/cloud/alicloud/src/infra/utils/misc\utils_httpc.c ****                     extendCount++;
 669              		.loc 1 608 21
 670 0248 2808     		addi	a0,sp,24
 603:C:/Users/stapi/OneDrive/Desktop/GD32VW553/V1_MQTT_OK/GD32VW55X_Wifi_BLE_SDK/GD32VW55x_RELEASE_V1.0.2/MSDK/cloud/alicloud/src/infra/utils/misc\utils_httpc.c ****                 max_len = HTTPCLIENT_MIN(max_len, readLen);
 671              		.loc 1 603 31
 672 024a 7D19     		addi	s2,s2,-1
 673 024c 33095941 		sub	s2,s2,s5
 603:C:/Users/stapi/OneDrive/Desktop/GD32VW553/V1_MQTT_OK/GD32VW55X_Wifi_BLE_SDK/GD32VW55x_RELEASE_V1.0.2/MSDK/cloud/alicloud/src/infra/utils/misc\utils_httpc.c ****                 max_len = HTTPCLIENT_MIN(max_len, readLen);
 674              		.loc 1 603 21
 675 0250 3349F90A 		min	s2,s2,a5
 608:C:/Users/stapi/OneDrive/Desktop/GD32VW553/V1_MQTT_OK/GD32VW55X_Wifi_BLE_SDK/GD32VW55x_RELEASE_V1.0.2/MSDK/cloud/alicloud/src/infra/utils/misc\utils_httpc.c ****                     extendCount++;
 676              		.loc 1 608 21
 677 0254 97000000 		call	iotx_time_left
 677      E7800000 
 678              	.LVL67:
 608:C:/Users/stapi/OneDrive/Desktop/GD32VW553/V1_MQTT_OK/GD32VW55X_Wifi_BLE_SDK/GD32VW55x_RELEASE_V1.0.2/MSDK/cloud/alicloud/src/infra/utils/misc\utils_httpc.c ****                     extendCount++;
 679              		.loc 1 608 20
 680 025c 93073006 		li	a5,99
 604:C:/Users/stapi/OneDrive/Desktop/GD32VW553/V1_MQTT_OK/GD32VW55X_Wifi_BLE_SDK/GD32VW55x_RELEASE_V1.0.2/MSDK/cloud/alicloud/src/infra/utils/misc\utils_httpc.c **** 
 681              		.loc 1 604 27
 682 0260 3359990A 		minu	s2,s2,s1
 683              	.LVL68:
 608:C:/Users/stapi/OneDrive/Desktop/GD32VW553/V1_MQTT_OK/GD32VW55X_Wifi_BLE_SDK/GD32VW55x_RELEASE_V1.0.2/MSDK/cloud/alicloud/src/infra/utils/misc\utils_httpc.c ****                     extendCount++;
 684              		.loc 1 608 17 is_stmt 1
 608:C:/Users/stapi/OneDrive/Desktop/GD32VW553/V1_MQTT_OK/GD32VW55X_Wifi_BLE_SDK/GD32VW55x_RELEASE_V1.0.2/MSDK/cloud/alicloud/src/infra/utils/misc\utils_httpc.c ****                     extendCount++;
 685              		.loc 1 608 20 is_stmt 0
 686 0264 63E1A704 		bgtu	a0,a5,.L29
 609:C:/Users/stapi/OneDrive/Desktop/GD32VW553/V1_MQTT_OK/GD32VW55X_Wifi_BLE_SDK/GD32VW55x_RELEASE_V1.0.2/MSDK/cloud/alicloud/src/infra/utils/misc\utils_httpc.c ****                     utils_time_countdown_ms(&timer, MIN_TIMEOUT);
 687              		.loc 1 609 21 is_stmt 1
 688              	.LVL69:
 610:C:/Users/stapi/OneDrive/Desktop/GD32VW553/V1_MQTT_OK/GD32VW55X_Wifi_BLE_SDK/GD32VW55x_RELEASE_V1.0.2/MSDK/cloud/alicloud/src/infra/utils/misc\utils_httpc.c ****                     if (1 == extendCount % 100) {
 689              		.loc 1 610 21 is_stmt 0
 690 0268 93054006 		li	a1,100
 691 026c 2808     		addi	a0,sp,24
 692 026e 97000000 		call	utils_time_countdown_ms
 692      E7800000 
 693              	.LVL70:
 609:C:/Users/stapi/OneDrive/Desktop/GD32VW553/V1_MQTT_OK/GD32VW55X_Wifi_BLE_SDK/GD32VW55x_RELEASE_V1.0.2/MSDK/cloud/alicloud/src/infra/utils/misc\utils_httpc.c ****                     utils_time_countdown_ms(&timer, MIN_TIMEOUT);
 694              		.loc 1 609 32
 695 0276 850B     		addi	s7,s7,1
 696              	.LVL71:
 610:C:/Users/stapi/OneDrive/Desktop/GD32VW553/V1_MQTT_OK/GD32VW55X_Wifi_BLE_SDK/GD32VW55x_RELEASE_V1.0.2/MSDK/cloud/alicloud/src/infra/utils/misc\utils_httpc.c ****                     if (1 == extendCount % 100) {
 697              		.loc 1 610 21 is_stmt 1
 611:C:/Users/stapi/OneDrive/Desktop/GD32VW553/V1_MQTT_OK/GD32VW55X_Wifi_BLE_SDK/GD32VW55x_RELEASE_V1.0.2/MSDK/cloud/alicloud/src/infra/utils/misc\utils_httpc.c ****                         utils_debug("extend countdown_ms to avoid NULL input to select, tired %d ti
 698              		.loc 1 611 21
 610:C:/Users/stapi/OneDrive/Desktop/GD32VW553/V1_MQTT_OK/GD32VW55X_Wifi_BLE_SDK/GD32VW55x_RELEASE_V1.0.2/MSDK/cloud/alicloud/src/infra/utils/misc\utils_httpc.c ****                     if (1 == extendCount % 100) {
 699              		.loc 1 610 21 is_stmt 0
 700 0278 93074006 		li	a5,100
 701 027c B3F7FB02 		remu	a5,s7,a5
 611:C:/Users/stapi/OneDrive/Desktop/GD32VW553/V1_MQTT_OK/GD32VW55X_Wifi_BLE_SDK/GD32VW55x_RELEASE_V1.0.2/MSDK/cloud/alicloud/src/infra/utils/misc\utils_httpc.c ****                         utils_debug("extend countdown_ms to avoid NULL input to select, tired %d ti
 702              		.loc 1 611 24
 703 0280 0547     		li	a4,1
 704 0282 6392E702 		bne	a5,a4,.L29
 612:C:/Users/stapi/OneDrive/Desktop/GD32VW553/V1_MQTT_OK/GD32VW55X_Wifi_BLE_SDK/GD32VW55x_RELEASE_V1.0.2/MSDK/cloud/alicloud/src/infra/utils/misc\utils_httpc.c ****                     }
 705              		.loc 1 612 25 is_stmt 1
 706 0286 37070000 		lui	a4,%hi(.LC15)
 707 028a DE87     		mv	a5,s7
 708 028c 13070700 		addi	a4,a4,%lo(.LC15)
 709 0290 9546     		li	a3,5
 710 0292 13064026 		li	a2,612
 711 0296 93850900 		addi	a1,s3,%lo(.LANCHOR1)
 712 029a 13050A00 		addi	a0,s4,%lo(.LC1)
 713 029e 97000000 		call	LITE_syslog
 713      E7800000 
 714              	.LVL72:
 715              	.L29:
 616:C:/Users/stapi/OneDrive/Desktop/GD32VW553/V1_MQTT_OK/GD32VW55X_Wifi_BLE_SDK/GD32VW55x_RELEASE_V1.0.2/MSDK/cloud/alicloud/src/infra/utils/misc\utils_httpc.c ****                 if (ret == ERROR_HTTP_CONN) {
 716              		.loc 1 616 17
 616:C:/Users/stapi/OneDrive/Desktop/GD32VW553/V1_MQTT_OK/GD32VW55X_Wifi_BLE_SDK/GD32VW55x_RELEASE_V1.0.2/MSDK/cloud/alicloud/src/infra/utils/misc\utils_httpc.c ****                 if (ret == ERROR_HTTP_CONN) {
 717              		.loc 1 616 23 is_stmt 0
 718 02a6 2808     		addi	a0,sp,24
 719 02a8 97000000 		call	iotx_time_left
 719      E7800000 
 720              	.LVL73:
 721 02b0 2A87     		mv	a4,a0
 722 02b2 4A86     		mv	a2,s2
 723 02b4 7400     		addi	a3,sp,12
 724 02b6 A285     		mv	a1,s0
 725 02b8 5A85     		mv	a0,s6
 726 02ba 97000000 		call	httpclient_recv.constprop.0
 726      E7800000 
 727              	.LVL74:
 617:C:/Users/stapi/OneDrive/Desktop/GD32VW553/V1_MQTT_OK/GD32VW55X_Wifi_BLE_SDK/GD32VW55x_RELEASE_V1.0.2/MSDK/cloud/alicloud/src/infra/utils/misc\utils_httpc.c ****                     return ret;
 728              		.loc 1 617 20
 729 02c2 E157     		li	a5,-8
 616:C:/Users/stapi/OneDrive/Desktop/GD32VW553/V1_MQTT_OK/GD32VW55X_Wifi_BLE_SDK/GD32VW55x_RELEASE_V1.0.2/MSDK/cloud/alicloud/src/infra/utils/misc\utils_httpc.c ****                 if (ret == ERROR_HTTP_CONN) {
 730              		.loc 1 616 23
 731 02c4 2A89     		mv	s2,a0
 732              	.LVL75:
 617:C:/Users/stapi/OneDrive/Desktop/GD32VW553/V1_MQTT_OK/GD32VW55X_Wifi_BLE_SDK/GD32VW55x_RELEASE_V1.0.2/MSDK/cloud/alicloud/src/infra/utils/misc\utils_httpc.c ****                     return ret;
 733              		.loc 1 617 17 is_stmt 1
 617:C:/Users/stapi/OneDrive/Desktop/GD32VW553/V1_MQTT_OK/GD32VW55X_Wifi_BLE_SDK/GD32VW55x_RELEASE_V1.0.2/MSDK/cloud/alicloud/src/infra/utils/misc\utils_httpc.c ****                     return ret;
 734              		.loc 1 617 20 is_stmt 0
 735 02c6 E306F5F2 		beq	a0,a5,.L8
 622:C:/Users/stapi/OneDrive/Desktop/GD32VW553/V1_MQTT_OK/GD32VW55X_Wifi_BLE_SDK/GD32VW55x_RELEASE_V1.0.2/MSDK/cloud/alicloud/src/infra/utils/misc\utils_httpc.c ****                     deadLoopCount++;
 736              		.loc 1 622 17 is_stmt 1
 622:C:/Users/stapi/OneDrive/Desktop/GD32VW553/V1_MQTT_OK/GD32VW55X_Wifi_BLE_SDK/GD32VW55x_RELEASE_V1.0.2/MSDK/cloud/alicloud/src/infra/utils/misc\utils_httpc.c ****                     deadLoopCount++;
 737              		.loc 1 622 20 is_stmt 0
 738 02ca B247     		lw	a5,12(sp)
 629:C:/Users/stapi/OneDrive/Desktop/GD32VW553/V1_MQTT_OK/GD32VW55X_Wifi_BLE_SDK/GD32VW55x_RELEASE_V1.0.2/MSDK/cloud/alicloud/src/infra/utils/misc\utils_httpc.c ****                 }
 739              		.loc 1 629 35
 740 02cc 0145     		li	a0,0
 741              	.LVL76:
 622:C:/Users/stapi/OneDrive/Desktop/GD32VW553/V1_MQTT_OK/GD32VW55X_Wifi_BLE_SDK/GD32VW55x_RELEASE_V1.0.2/MSDK/cloud/alicloud/src/infra/utils/misc\utils_httpc.c ****                     deadLoopCount++;
 742              		.loc 1 622 20
 743 02ce 85FB     		bne	a5,zero,.L30
 622:C:/Users/stapi/OneDrive/Desktop/GD32VW553/V1_MQTT_OK/GD32VW55X_Wifi_BLE_SDK/GD32VW55x_RELEASE_V1.0.2/MSDK/cloud/alicloud/src/infra/utils/misc\utils_httpc.c ****                     deadLoopCount++;
 744              		.loc 1 622 41 discriminator 1
 745 02d0 2808     		addi	a0,sp,24
 746 02d2 97000000 		call	iotx_time_left
 746      E7800000 
 747              	.LVL77:
 622:C:/Users/stapi/OneDrive/Desktop/GD32VW553/V1_MQTT_OK/GD32VW55X_Wifi_BLE_SDK/GD32VW55x_RELEASE_V1.0.2/MSDK/cloud/alicloud/src/infra/utils/misc\utils_httpc.c ****                     deadLoopCount++;
 748              		.loc 1 622 32 discriminator 1
 749 02da 1DE5     		bne	a0,zero,.L45
 622:C:/Users/stapi/OneDrive/Desktop/GD32VW553/V1_MQTT_OK/GD32VW55X_Wifi_BLE_SDK/GD32VW55x_RELEASE_V1.0.2/MSDK/cloud/alicloud/src/infra/utils/misc\utils_httpc.c ****                     deadLoopCount++;
 750              		.loc 1 622 65 discriminator 2
 751 02dc FD57     		li	a5,-1
 752 02de 6316F902 		bne	s2,a5,.L31
 623:C:/Users/stapi/OneDrive/Desktop/GD32VW553/V1_MQTT_OK/GD32VW55X_Wifi_BLE_SDK/GD32VW55x_RELEASE_V1.0.2/MSDK/cloud/alicloud/src/infra/utils/misc\utils_httpc.c ****                     if (deadLoopCount > MAX_RETRY_COUNT) {
 753              		.loc 1 623 21 is_stmt 1
 623:C:/Users/stapi/OneDrive/Desktop/GD32VW553/V1_MQTT_OK/GD32VW55X_Wifi_BLE_SDK/GD32VW55x_RELEASE_V1.0.2/MSDK/cloud/alicloud/src/infra/utils/misc\utils_httpc.c ****                     if (deadLoopCount > MAX_RETRY_COUNT) {
 754              		.loc 1 623 34 is_stmt 0
 755 02e2 13851C00 		addi	a0,s9,1
 756              	.LVL78:
 624:C:/Users/stapi/OneDrive/Desktop/GD32VW553/V1_MQTT_OK/GD32VW55X_Wifi_BLE_SDK/GD32VW55x_RELEASE_V1.0.2/MSDK/cloud/alicloud/src/infra/utils/misc\utils_httpc.c ****                         utils_err("deadloop detected, exit");
 757              		.loc 1 624 21 is_stmt 1
 624:C:/Users/stapi/OneDrive/Desktop/GD32VW553/V1_MQTT_OK/GD32VW55X_Wifi_BLE_SDK/GD32VW55x_RELEASE_V1.0.2/MSDK/cloud/alicloud/src/infra/utils/misc\utils_httpc.c ****                         utils_err("deadloop detected, exit");
 758              		.loc 1 624 24 is_stmt 0
 759 02e6 93078025 		li	a5,600
 760 02ea 63F0A702 		bleu	a0,a5,.L31
 625:C:/Users/stapi/OneDrive/Desktop/GD32VW553/V1_MQTT_OK/GD32VW55X_Wifi_BLE_SDK/GD32VW55x_RELEASE_V1.0.2/MSDK/cloud/alicloud/src/infra/utils/misc\utils_httpc.c ****                         return ret;
 761              		.loc 1 625 25 is_stmt 1
 625:C:/Users/stapi/OneDrive/Desktop/GD32VW553/V1_MQTT_OK/GD32VW55X_Wifi_BLE_SDK/GD32VW55x_RELEASE_V1.0.2/MSDK/cloud/alicloud/src/infra/utils/misc\utils_httpc.c ****                         return ret;
 762              		.loc 1 625 25
 763 02ee 37050000 		lui	a0,%hi(.LC2)
 764              	.LVL79:
 765 02f2 13050500 		addi	a0,a0,%lo(.LC2)
 766 02f6 97000000 		call	HAL_Printf
 766      E7800000 
 767              	.LVL80:
 625:C:/Users/stapi/OneDrive/Desktop/GD32VW553/V1_MQTT_OK/GD32VW55X_Wifi_BLE_SDK/GD32VW55x_RELEASE_V1.0.2/MSDK/cloud/alicloud/src/infra/utils/misc\utils_httpc.c ****                         return ret;
 768              		.loc 1 625 25
 769 02fe 37050000 		lui	a0,%hi(.LC16)
 770 0302 13050500 		addi	a0,a0,%lo(.LC16)
 771 0306 11B5     		j	.L60
 772              	.LVL81:
 773              	.L45:
 629:C:/Users/stapi/OneDrive/Desktop/GD32VW553/V1_MQTT_OK/GD32VW55X_Wifi_BLE_SDK/GD32VW55x_RELEASE_V1.0.2/MSDK/cloud/alicloud/src/infra/utils/misc\utils_httpc.c ****                 }
 774              		.loc 1 629 35 is_stmt 0
 775 0308 0145     		li	a0,0
 776              	.L31:
 777              	.LVL82:
 633:C:/Users/stapi/OneDrive/Desktop/GD32VW553/V1_MQTT_OK/GD32VW55X_Wifi_BLE_SDK/GD32VW55x_RELEASE_V1.0.2/MSDK/cloud/alicloud/src/infra/utils/misc\utils_httpc.c ****                     utils_err("extend timer for too many times, exit");
 778              		.loc 1 633 17 is_stmt 1
 633:C:/Users/stapi/OneDrive/Desktop/GD32VW553/V1_MQTT_OK/GD32VW55X_Wifi_BLE_SDK/GD32VW55x_RELEASE_V1.0.2/MSDK/cloud/alicloud/src/infra/utils/misc\utils_httpc.c ****                     utils_err("extend timer for too many times, exit");
 779              		.loc 1 633 20 is_stmt 0
 780 030a B247     		lw	a5,12(sp)
 781 030c E39907EE 		bne	a5,zero,.L30
 633:C:/Users/stapi/OneDrive/Desktop/GD32VW553/V1_MQTT_OK/GD32VW55X_Wifi_BLE_SDK/GD32VW55x_RELEASE_V1.0.2/MSDK/cloud/alicloud/src/infra/utils/misc\utils_httpc.c ****                     utils_err("extend timer for too many times, exit");
 782              		.loc 1 633 32 discriminator 1
 783 0310 E3F77DEF 		bleu	s7,s11,.L30
 633:C:/Users/stapi/OneDrive/Desktop/GD32VW553/V1_MQTT_OK/GD32VW55X_Wifi_BLE_SDK/GD32VW55x_RELEASE_V1.0.2/MSDK/cloud/alicloud/src/infra/utils/misc\utils_httpc.c ****                     utils_err("extend timer for too many times, exit");
 784              		.loc 1 633 71 discriminator 2
 785 0314 FD57     		li	a5,-1
 786 0316 E314F9EE 		bne	s2,a5,.L30
 634:C:/Users/stapi/OneDrive/Desktop/GD32VW553/V1_MQTT_OK/GD32VW55X_Wifi_BLE_SDK/GD32VW55x_RELEASE_V1.0.2/MSDK/cloud/alicloud/src/infra/utils/misc\utils_httpc.c ****                     return ERROR_HTTP_CONN;
 787              		.loc 1 634 21 is_stmt 1
 634:C:/Users/stapi/OneDrive/Desktop/GD32VW553/V1_MQTT_OK/GD32VW55X_Wifi_BLE_SDK/GD32VW55x_RELEASE_V1.0.2/MSDK/cloud/alicloud/src/infra/utils/misc\utils_httpc.c ****                     return ERROR_HTTP_CONN;
 788              		.loc 1 634 21
 789 031a 37050000 		lui	a0,%hi(.LC2)
 790              	.LVL83:
 791 031e 13050500 		addi	a0,a0,%lo(.LC2)
 792 0322 97000000 		call	HAL_Printf
 792      E7800000 
 793              	.LVL84:
 634:C:/Users/stapi/OneDrive/Desktop/GD32VW553/V1_MQTT_OK/GD32VW55X_Wifi_BLE_SDK/GD32VW55x_RELEASE_V1.0.2/MSDK/cloud/alicloud/src/infra/utils/misc\utils_httpc.c ****                     return ERROR_HTTP_CONN;
 794              		.loc 1 634 21
 795 032a 37050000 		lui	a0,%hi(.LC17)
 796 032e 13050500 		addi	a0,a0,%lo(.LC17)
 797 0332 97000000 		call	HAL_Printf
 797      E7800000 
 798              	.LVL85:
 634:C:/Users/stapi/OneDrive/Desktop/GD32VW553/V1_MQTT_OK/GD32VW55X_Wifi_BLE_SDK/GD32VW55x_RELEASE_V1.0.2/MSDK/cloud/alicloud/src/infra/utils/misc\utils_httpc.c ****                     return ERROR_HTTP_CONN;
 799              		.loc 1 634 21
 800 033a 37050000 		lui	a0,%hi(.LC4)
 801 033e 13050500 		addi	a0,a0,%lo(.LC4)
 802 0342 97000000 		call	HAL_Printf
 802      E7800000 
 803              	.LVL86:
 634:C:/Users/stapi/OneDrive/Desktop/GD32VW553/V1_MQTT_OK/GD32VW55X_Wifi_BLE_SDK/GD32VW55x_RELEASE_V1.0.2/MSDK/cloud/alicloud/src/infra/utils/misc\utils_httpc.c ****                     return ERROR_HTTP_CONN;
 804              		.loc 1 634 21
 635:C:/Users/stapi/OneDrive/Desktop/GD32VW553/V1_MQTT_OK/GD32VW55X_Wifi_BLE_SDK/GD32VW55x_RELEASE_V1.0.2/MSDK/cloud/alicloud/src/infra/utils/misc\utils_httpc.c ****                 }
 805              		.loc 1 635 21
 635:C:/Users/stapi/OneDrive/Desktop/GD32VW553/V1_MQTT_OK/GD32VW55X_Wifi_BLE_SDK/GD32VW55x_RELEASE_V1.0.2/MSDK/cloud/alicloud/src/infra/utils/misc\utils_httpc.c ****                 }
 806              		.loc 1 635 28 is_stmt 0
 807 034a 6159     		li	s2,-8
 808              	.LVL87:
 809 034c 5DB5     		j	.L8
 810              	.LVL88:
 811              	.L37:
 812              	.LBE11:
 642:C:/Users/stapi/OneDrive/Desktop/GD32VW553/V1_MQTT_OK/GD32VW55X_Wifi_BLE_SDK/GD32VW55x_RELEASE_V1.0.2/MSDK/cloud/alicloud/src/infra/utils/misc\utils_httpc.c ****                 int new_trf_len, ret;
 813              		.loc 1 642 13 is_stmt 1
 642:C:/Users/stapi/OneDrive/Desktop/GD32VW553/V1_MQTT_OK/GD32VW55X_Wifi_BLE_SDK/GD32VW55x_RELEASE_V1.0.2/MSDK/cloud/alicloud/src/infra/utils/misc\utils_httpc.c ****                 int new_trf_len, ret;
 814              		.loc 1 642 21 is_stmt 0
 815 034e B244     		lw	s1,12(sp)
 642:C:/Users/stapi/OneDrive/Desktop/GD32VW553/V1_MQTT_OK/GD32VW55X_Wifi_BLE_SDK/GD32VW55x_RELEASE_V1.0.2/MSDK/cloud/alicloud/src/infra/utils/misc\utils_httpc.c ****                 int new_trf_len, ret;
 816              		.loc 1 642 16
 817 0350 8547     		li	a5,1
 818 0352 63CD9702 		bgt	s1,a5,.L32
 819              	.LBB12:
 643:C:/Users/stapi/OneDrive/Desktop/GD32VW553/V1_MQTT_OK/GD32VW55X_Wifi_BLE_SDK/GD32VW55x_RELEASE_V1.0.2/MSDK/cloud/alicloud/src/infra/utils/misc\utils_httpc.c ****                 /* Read missing chars to find end of chunk */
 820              		.loc 1 643 17 is_stmt 1
 645:C:/Users/stapi/OneDrive/Desktop/GD32VW553/V1_MQTT_OK/GD32VW55X_Wifi_BLE_SDK/GD32VW55x_RELEASE_V1.0.2/MSDK/cloud/alicloud/src/infra/utils/misc\utils_httpc.c ****                                       iotx_time_left(&timer));
 821              		.loc 1 645 17
 645:C:/Users/stapi/OneDrive/Desktop/GD32VW553/V1_MQTT_OK/GD32VW55X_Wifi_BLE_SDK/GD32VW55x_RELEASE_V1.0.2/MSDK/cloud/alicloud/src/infra/utils/misc\utils_httpc.c ****                                       iotx_time_left(&timer));
 822              		.loc 1 645 23 is_stmt 0
 823 0356 B3059400 		add	a1,s0,s1
 824 035a 2808     		addi	a0,sp,24
 825 035c 2EC4     		sw	a1,8(sp)
 826 035e 97000000 		call	iotx_time_left
 826      E7800000 
 827              	.LVL89:
 828 0366 A245     		lw	a1,8(sp)
 829 0368 1306F03F 		li	a2,1023
 830 036c 2A87     		mv	a4,a0
 831 036e 7408     		addi	a3,sp,28
 832 0370 058E     		sub	a2,a2,s1
 833 0372 5A85     		mv	a0,s6
 834 0374 97000000 		call	httpclient_recv.constprop.0
 834      E7800000 
 835              	.LVL90:
 647:C:/Users/stapi/OneDrive/Desktop/GD32VW553/V1_MQTT_OK/GD32VW55X_Wifi_BLE_SDK/GD32VW55x_RELEASE_V1.0.2/MSDK/cloud/alicloud/src/infra/utils/misc\utils_httpc.c ****                     return ret;
 836              		.loc 1 647 20
 837 037c E157     		li	a5,-8
 645:C:/Users/stapi/OneDrive/Desktop/GD32VW553/V1_MQTT_OK/GD32VW55X_Wifi_BLE_SDK/GD32VW55x_RELEASE_V1.0.2/MSDK/cloud/alicloud/src/infra/utils/misc\utils_httpc.c ****                                       iotx_time_left(&timer));
 838              		.loc 1 645 23
 839 037e 2A89     		mv	s2,a0
 840              	.LVL91:
 647:C:/Users/stapi/OneDrive/Desktop/GD32VW553/V1_MQTT_OK/GD32VW55X_Wifi_BLE_SDK/GD32VW55x_RELEASE_V1.0.2/MSDK/cloud/alicloud/src/infra/utils/misc\utils_httpc.c ****                     return ret;
 841              		.loc 1 647 17 is_stmt 1
 647:C:/Users/stapi/OneDrive/Desktop/GD32VW553/V1_MQTT_OK/GD32VW55X_Wifi_BLE_SDK/GD32VW55x_RELEASE_V1.0.2/MSDK/cloud/alicloud/src/infra/utils/misc\utils_httpc.c ****                     return ret;
 842              		.loc 1 647 20 is_stmt 0
 843 0380 E309F5E6 		beq	a0,a5,.L8
 650:C:/Users/stapi/OneDrive/Desktop/GD32VW553/V1_MQTT_OK/GD32VW55X_Wifi_BLE_SDK/GD32VW55x_RELEASE_V1.0.2/MSDK/cloud/alicloud/src/infra/utils/misc\utils_httpc.c ****             }
 844              		.loc 1 650 17 is_stmt 1
 650:C:/Users/stapi/OneDrive/Desktop/GD32VW553/V1_MQTT_OK/GD32VW55X_Wifi_BLE_SDK/GD32VW55x_RELEASE_V1.0.2/MSDK/cloud/alicloud/src/infra/utils/misc\utils_httpc.c ****             }
 845              		.loc 1 650 21 is_stmt 0
 846 0384 B247     		lw	a5,12(sp)
 847 0386 7247     		lw	a4,28(sp)
 848 0388 BA97     		add	a5,a5,a4
 849 038a 3EC6     		sw	a5,12(sp)
 850              	.LVL92:
 851              	.L32:
 852              	.LBE12:
 652:C:/Users/stapi/OneDrive/Desktop/GD32VW553/V1_MQTT_OK/GD32VW55X_Wifi_BLE_SDK/GD32VW55x_RELEASE_V1.0.2/MSDK/cloud/alicloud/src/infra/utils/misc\utils_httpc.c ****                 utils_err("Format error, %s", data); /* after memmove, the beginning of next chunk 
 853              		.loc 1 652 13 is_stmt 1
 652:C:/Users/stapi/OneDrive/Desktop/GD32VW553/V1_MQTT_OK/GD32VW55X_Wifi_BLE_SDK/GD32VW55x_RELEASE_V1.0.2/MSDK/cloud/alicloud/src/infra/utils/misc\utils_httpc.c ****                 utils_err("Format error, %s", data); /* after memmove, the beginning of next chunk 
 854              		.loc 1 652 16 is_stmt 0
 855 038c 83070400 		lb	a5,0(s0)
 856 0390 63978701 		bne	a5,s8,.L34
 652:C:/Users/stapi/OneDrive/Desktop/GD32VW553/V1_MQTT_OK/GD32VW55X_Wifi_BLE_SDK/GD32VW55x_RELEASE_V1.0.2/MSDK/cloud/alicloud/src/infra/utils/misc\utils_httpc.c ****                 utils_err("Format error, %s", data); /* after memmove, the beginning of next chunk 
 857              		.loc 1 652 35 discriminator 1
 858 0394 A947     		li	a5,10
 859 0396 03071400 		lb	a4,1(s0)
 860 039a 6308F702 		beq	a4,a5,.L35
 861              	.L34:
 653:C:/Users/stapi/OneDrive/Desktop/GD32VW553/V1_MQTT_OK/GD32VW55X_Wifi_BLE_SDK/GD32VW55x_RELEASE_V1.0.2/MSDK/cloud/alicloud/src/infra/utils/misc\utils_httpc.c ****                 return ERROR_HTTP_UNRESOLVED_DNS;
 862              		.loc 1 653 17 is_stmt 1
 653:C:/Users/stapi/OneDrive/Desktop/GD32VW553/V1_MQTT_OK/GD32VW55X_Wifi_BLE_SDK/GD32VW55x_RELEASE_V1.0.2/MSDK/cloud/alicloud/src/infra/utils/misc\utils_httpc.c ****                 return ERROR_HTTP_UNRESOLVED_DNS;
 863              		.loc 1 653 17
 864 039e 37050000 		lui	a0,%hi(.LC2)
 865 03a2 13050500 		addi	a0,a0,%lo(.LC2)
 866 03a6 97000000 		call	HAL_Printf
 866      E7800000 
 867              	.LVL93:
 653:C:/Users/stapi/OneDrive/Desktop/GD32VW553/V1_MQTT_OK/GD32VW55X_Wifi_BLE_SDK/GD32VW55x_RELEASE_V1.0.2/MSDK/cloud/alicloud/src/infra/utils/misc\utils_httpc.c ****                 return ERROR_HTTP_UNRESOLVED_DNS;
 868              		.loc 1 653 17
 869 03ae 37050000 		lui	a0,%hi(.LC18)
 870 03b2 13050500 		addi	a0,a0,%lo(.LC18)
 871 03b6 A285     		mv	a1,s0
 872 03b8 97000000 		call	HAL_Printf
 872      E7800000 
 873              	.LVL94:
 653:C:/Users/stapi/OneDrive/Desktop/GD32VW553/V1_MQTT_OK/GD32VW55X_Wifi_BLE_SDK/GD32VW55x_RELEASE_V1.0.2/MSDK/cloud/alicloud/src/infra/utils/misc\utils_httpc.c ****                 return ERROR_HTTP_UNRESOLVED_DNS;
 874              		.loc 1 653 17
 875 03c0 37050000 		lui	a0,%hi(.LC4)
 876 03c4 13050500 		addi	a0,a0,%lo(.LC4)
 877 03c8 51AA     		j	.L62
 878              	.L35:
 656:C:/Users/stapi/OneDrive/Desktop/GD32VW553/V1_MQTT_OK/GD32VW55X_Wifi_BLE_SDK/GD32VW55x_RELEASE_V1.0.2/MSDK/cloud/alicloud/src/infra/utils/misc\utils_httpc.c ****             len -= 2;
 879              		.loc 1 656 13
 656:C:/Users/stapi/OneDrive/Desktop/GD32VW553/V1_MQTT_OK/GD32VW55X_Wifi_BLE_SDK/GD32VW55x_RELEASE_V1.0.2/MSDK/cloud/alicloud/src/infra/utils/misc\utils_httpc.c ****             len -= 2;
 880              		.loc 1 656 41 is_stmt 0
 881 03ca B244     		lw	s1,12(sp)
 656:C:/Users/stapi/OneDrive/Desktop/GD32VW553/V1_MQTT_OK/GD32VW55X_Wifi_BLE_SDK/GD32VW55x_RELEASE_V1.0.2/MSDK/cloud/alicloud/src/infra/utils/misc\utils_httpc.c ****             len -= 2;
 882              		.loc 1 656 13
 883 03cc 93052400 		addi	a1,s0,2
 884 03d0 2285     		mv	a0,s0
 656:C:/Users/stapi/OneDrive/Desktop/GD32VW553/V1_MQTT_OK/GD32VW55X_Wifi_BLE_SDK/GD32VW55x_RELEASE_V1.0.2/MSDK/cloud/alicloud/src/infra/utils/misc\utils_httpc.c ****             len -= 2;
 885              		.loc 1 656 41
 886 03d2 F914     		addi	s1,s1,-2
 656:C:/Users/stapi/OneDrive/Desktop/GD32VW553/V1_MQTT_OK/GD32VW55X_Wifi_BLE_SDK/GD32VW55x_RELEASE_V1.0.2/MSDK/cloud/alicloud/src/infra/utils/misc\utils_httpc.c ****             len -= 2;
 887              		.loc 1 656 13
 888 03d4 2686     		mv	a2,s1
 889 03d6 97000000 		call	memmove
 889      E7800000 
 890              	.LVL95:
 657:C:/Users/stapi/OneDrive/Desktop/GD32VW553/V1_MQTT_OK/GD32VW55X_Wifi_BLE_SDK/GD32VW55x_RELEASE_V1.0.2/MSDK/cloud/alicloud/src/infra/utils/misc\utils_httpc.c ****         } else {
 891              		.loc 1 657 13 is_stmt 1
 657:C:/Users/stapi/OneDrive/Desktop/GD32VW553/V1_MQTT_OK/GD32VW55X_Wifi_BLE_SDK/GD32VW55x_RELEASE_V1.0.2/MSDK/cloud/alicloud/src/infra/utils/misc\utils_httpc.c ****         } else {
 892              		.loc 1 657 17 is_stmt 0
 893 03de 26C6     		sw	s1,12(sp)
 894              	.LBE22:
 506:C:/Users/stapi/OneDrive/Desktop/GD32VW553/V1_MQTT_OK/GD32VW55X_Wifi_BLE_SDK/GD32VW55x_RELEASE_V1.0.2/MSDK/cloud/alicloud/src/infra/utils/misc\utils_httpc.c ****         uint32_t readLen = 0;
 895              		.loc 1 506 11 is_stmt 1
 506:C:/Users/stapi/OneDrive/Desktop/GD32VW553/V1_MQTT_OK/GD32VW55X_Wifi_BLE_SDK/GD32VW55x_RELEASE_V1.0.2/MSDK/cloud/alicloud/src/infra/utils/misc\utils_httpc.c ****         uint32_t readLen = 0;
 896              		.loc 1 506 15 is_stmt 0
 897 03e0 41BB     		j	.L36
 898              	.LVL96:
 899              	.L57:
 900              	.LBB23:
 901              	.LBB13:
 558:C:/Users/stapi/OneDrive/Desktop/GD32VW553/V1_MQTT_OK/GD32VW55X_Wifi_BLE_SDK/GD32VW55x_RELEASE_V1.0.2/MSDK/cloud/alicloud/src/infra/utils/misc\utils_httpc.c ****             }
 902              		.loc 1 558 17 is_stmt 1
 561:C:/Users/stapi/OneDrive/Desktop/GD32VW553/V1_MQTT_OK/GD32VW55X_Wifi_BLE_SDK/GD32VW55x_RELEASE_V1.0.2/MSDK/cloud/alicloud/src/infra/utils/misc\utils_httpc.c ****                 utils_err("Could not read chunk length");
 903              		.loc 1 561 13
 566:C:/Users/stapi/OneDrive/Desktop/GD32VW553/V1_MQTT_OK/GD32VW55X_Wifi_BLE_SDK/GD32VW55x_RELEASE_V1.0.2/MSDK/cloud/alicloud/src/infra/utils/misc\utils_httpc.c ****             len -= (crlf_pos + 2);
 904              		.loc 1 566 13
 566:C:/Users/stapi/OneDrive/Desktop/GD32VW553/V1_MQTT_OK/GD32VW55X_Wifi_BLE_SDK/GD32VW55x_RELEASE_V1.0.2/MSDK/cloud/alicloud/src/infra/utils/misc\utils_httpc.c ****             len -= (crlf_pos + 2);
 905              		.loc 1 566 64 is_stmt 0
 906 03e2 93052900 		addi	a1,s2,2
 566:C:/Users/stapi/OneDrive/Desktop/GD32VW553/V1_MQTT_OK/GD32VW55X_Wifi_BLE_SDK/GD32VW55x_RELEASE_V1.0.2/MSDK/cloud/alicloud/src/infra/utils/misc\utils_httpc.c ****             len -= (crlf_pos + 2);
 907              		.loc 1 566 52
 908 03e6 3249     		lw	s2,12(sp)
 566:C:/Users/stapi/OneDrive/Desktop/GD32VW553/V1_MQTT_OK/GD32VW55X_Wifi_BLE_SDK/GD32VW55x_RELEASE_V1.0.2/MSDK/cloud/alicloud/src/infra/utils/misc\utils_httpc.c ****             len -= (crlf_pos + 2);
 909              		.loc 1 566 13
 910 03e8 2285     		mv	a0,s0
 566:C:/Users/stapi/OneDrive/Desktop/GD32VW553/V1_MQTT_OK/GD32VW55X_Wifi_BLE_SDK/GD32VW55x_RELEASE_V1.0.2/MSDK/cloud/alicloud/src/infra/utils/misc\utils_httpc.c ****             len -= (crlf_pos + 2);
 911              		.loc 1 566 52
 912 03ea 3309B940 		sub	s2,s2,a1
 566:C:/Users/stapi/OneDrive/Desktop/GD32VW553/V1_MQTT_OK/GD32VW55X_Wifi_BLE_SDK/GD32VW55x_RELEASE_V1.0.2/MSDK/cloud/alicloud/src/infra/utils/misc\utils_httpc.c ****             len -= (crlf_pos + 2);
 913              		.loc 1 566 13
 914 03ee 4A86     		mv	a2,s2
 915 03f0 A295     		add	a1,s0,a1
 916 03f2 97000000 		call	memmove
 916      E7800000 
 917              	.LVL97:
 567:C:/Users/stapi/OneDrive/Desktop/GD32VW553/V1_MQTT_OK/GD32VW55X_Wifi_BLE_SDK/GD32VW55x_RELEASE_V1.0.2/MSDK/cloud/alicloud/src/infra/utils/misc\utils_httpc.c ****         } else {
 918              		.loc 1 567 13 is_stmt 1
 567:C:/Users/stapi/OneDrive/Desktop/GD32VW553/V1_MQTT_OK/GD32VW55X_Wifi_BLE_SDK/GD32VW55x_RELEASE_V1.0.2/MSDK/cloud/alicloud/src/infra/utils/misc\utils_httpc.c ****         } else {
 919              		.loc 1 567 17 is_stmt 0
 920 03fa 4AC6     		sw	s2,12(sp)
 921              	.LVL98:
 922              	.L39:
 923              	.LBE13:
 572:C:/Users/stapi/OneDrive/Desktop/GD32VW553/V1_MQTT_OK/GD32VW55X_Wifi_BLE_SDK/GD32VW55x_RELEASE_V1.0.2/MSDK/cloud/alicloud/src/infra/utils/misc\utils_httpc.c ****         unsigned int deadLoopCount = 0;
 924              		.loc 1 572 9 is_stmt 1
 925 03fc 3248     		lw	a6,12(sp)
 926 03fe 37070000 		lui	a4,%hi(.LC13)
 927 0402 13070700 		addi	a4,a4,%lo(.LC13)
 928 0406 A687     		mv	a5,s1
 929 0408 9546     		li	a3,5
 930 040a 1306C023 		li	a2,572
 931 040e 93850900 		addi	a1,s3,%lo(.LANCHOR1)
 932 0412 13050A00 		addi	a0,s4,%lo(.LC1)
 933 0416 97000000 		call	LITE_syslog
 933      E7800000 
 934              	.LVL99:
 573:C:/Users/stapi/OneDrive/Desktop/GD32VW553/V1_MQTT_OK/GD32VW55X_Wifi_BLE_SDK/GD32VW55x_RELEASE_V1.0.2/MSDK/cloud/alicloud/src/infra/utils/misc\utils_httpc.c ****         unsigned int extendCount = 0;
 935              		.loc 1 573 9
 574:C:/Users/stapi/OneDrive/Desktop/GD32VW553/V1_MQTT_OK/GD32VW55X_Wifi_BLE_SDK/GD32VW55x_RELEASE_V1.0.2/MSDK/cloud/alicloud/src/infra/utils/misc\utils_httpc.c ****         const unsigned int MIN_TIMEOUT = 100;
 936              		.loc 1 574 9
 575:C:/Users/stapi/OneDrive/Desktop/GD32VW553/V1_MQTT_OK/GD32VW55X_Wifi_BLE_SDK/GD32VW55x_RELEASE_V1.0.2/MSDK/cloud/alicloud/src/infra/utils/misc\utils_httpc.c ****         const unsigned int MAX_RETRY_COUNT = 600;
 937              		.loc 1 575 9
 576:C:/Users/stapi/OneDrive/Desktop/GD32VW553/V1_MQTT_OK/GD32VW55X_Wifi_BLE_SDK/GD32VW55x_RELEASE_V1.0.2/MSDK/cloud/alicloud/src/infra/utils/misc\utils_httpc.c ****         do {
 938              		.loc 1 576 9
 572:C:/Users/stapi/OneDrive/Desktop/GD32VW553/V1_MQTT_OK/GD32VW55X_Wifi_BLE_SDK/GD32VW55x_RELEASE_V1.0.2/MSDK/cloud/alicloud/src/infra/utils/misc\utils_httpc.c ****         unsigned int deadLoopCount = 0;
 939              		.loc 1 572 9 is_stmt 0
 940 041e 5687     		mv	a4,s5
 574:C:/Users/stapi/OneDrive/Desktop/GD32VW553/V1_MQTT_OK/GD32VW55X_Wifi_BLE_SDK/GD32VW55x_RELEASE_V1.0.2/MSDK/cloud/alicloud/src/infra/utils/misc\utils_httpc.c ****         const unsigned int MIN_TIMEOUT = 100;
 941              		.loc 1 574 22
 942 0420 814B     		li	s7,0
 573:C:/Users/stapi/OneDrive/Desktop/GD32VW553/V1_MQTT_OK/GD32VW55X_Wifi_BLE_SDK/GD32VW55x_RELEASE_V1.0.2/MSDK/cloud/alicloud/src/infra/utils/misc\utils_httpc.c ****         unsigned int extendCount = 0;
 943              		.loc 1 573 22
 944 0422 814C     		li	s9,0
 945              	.LBB14:
 633:C:/Users/stapi/OneDrive/Desktop/GD32VW553/V1_MQTT_OK/GD32VW55X_Wifi_BLE_SDK/GD32VW55x_RELEASE_V1.0.2/MSDK/cloud/alicloud/src/infra/utils/misc\utils_httpc.c ****                     utils_err("extend timer for too many times, exit");
 946              		.loc 1 633 32
 947 0424 930D004B 		li	s11,1200
 948              	.LVL100:
 949              	.L24:
 950              	.LBE14:
 577:C:/Users/stapi/OneDrive/Desktop/GD32VW553/V1_MQTT_OK/GD32VW55X_Wifi_BLE_SDK/GD32VW55x_RELEASE_V1.0.2/MSDK/cloud/alicloud/src/infra/utils/misc\utils_httpc.c ****             templen = HTTPCLIENT_MIN(len, readLen);
 951              		.loc 1 577 9 is_stmt 1
 578:C:/Users/stapi/OneDrive/Desktop/GD32VW553/V1_MQTT_OK/GD32VW55X_Wifi_BLE_SDK/GD32VW55x_RELEASE_V1.0.2/MSDK/cloud/alicloud/src/infra/utils/misc\utils_httpc.c ****             if (count + templen < client_data->response_buf_len - 1) {
 952              		.loc 1 578 13
 578:C:/Users/stapi/OneDrive/Desktop/GD32VW553/V1_MQTT_OK/GD32VW55X_Wifi_BLE_SDK/GD32VW55x_RELEASE_V1.0.2/MSDK/cloud/alicloud/src/infra/utils/misc\utils_httpc.c ****             if (count + templen < client_data->response_buf_len - 1) {
 953              		.loc 1 578 23 is_stmt 0
 954 0428 3249     		lw	s2,12(sp)
 579:C:/Users/stapi/OneDrive/Desktop/GD32VW553/V1_MQTT_OK/GD32VW55X_Wifi_BLE_SDK/GD32VW55x_RELEASE_V1.0.2/MSDK/cloud/alicloud/src/infra/utils/misc\utils_httpc.c ****                 memcpy(client_data->response_buf + count, data, templen);
 955              		.loc 1 579 65
 956 042a 03268D01 		lw	a2,24(s10)
 580:C:/Users/stapi/OneDrive/Desktop/GD32VW553/V1_MQTT_OK/GD32VW55X_Wifi_BLE_SDK/GD32VW55x_RELEASE_V1.0.2/MSDK/cloud/alicloud/src/infra/utils/misc\utils_httpc.c ****                 count += templen;
 957              		.loc 1 580 50
 958 042e 03254D02 		lw	a0,36(s10)
 578:C:/Users/stapi/OneDrive/Desktop/GD32VW553/V1_MQTT_OK/GD32VW55X_Wifi_BLE_SDK/GD32VW55x_RELEASE_V1.0.2/MSDK/cloud/alicloud/src/infra/utils/misc\utils_httpc.c ****             if (count + templen < client_data->response_buf_len - 1) {
 959              		.loc 1 578 23
 960 0432 33D9240B 		minu	s2,s1,s2
 961              	.LVL101:
 579:C:/Users/stapi/OneDrive/Desktop/GD32VW553/V1_MQTT_OK/GD32VW55X_Wifi_BLE_SDK/GD32VW55x_RELEASE_V1.0.2/MSDK/cloud/alicloud/src/infra/utils/misc\utils_httpc.c ****                 memcpy(client_data->response_buf + count, data, templen);
 962              		.loc 1 579 13 is_stmt 1
 579:C:/Users/stapi/OneDrive/Desktop/GD32VW553/V1_MQTT_OK/GD32VW55X_Wifi_BLE_SDK/GD32VW55x_RELEASE_V1.0.2/MSDK/cloud/alicloud/src/infra/utils/misc\utils_httpc.c ****                 memcpy(client_data->response_buf + count, data, templen);
 963              		.loc 1 579 65 is_stmt 0
 964 0436 7D16     		addi	a2,a2,-1
 579:C:/Users/stapi/OneDrive/Desktop/GD32VW553/V1_MQTT_OK/GD32VW55X_Wifi_BLE_SDK/GD32VW55x_RELEASE_V1.0.2/MSDK/cloud/alicloud/src/infra/utils/misc\utils_httpc.c ****                 memcpy(client_data->response_buf + count, data, templen);
 965              		.loc 1 579 23
 966 0438 CA9A     		add	s5,s5,s2
 580:C:/Users/stapi/OneDrive/Desktop/GD32VW553/V1_MQTT_OK/GD32VW55X_Wifi_BLE_SDK/GD32VW55x_RELEASE_V1.0.2/MSDK/cloud/alicloud/src/infra/utils/misc\utils_httpc.c ****                 count += templen;
 967              		.loc 1 580 50
 968 043a 3A95     		add	a0,a0,a4
 579:C:/Users/stapi/OneDrive/Desktop/GD32VW553/V1_MQTT_OK/GD32VW55X_Wifi_BLE_SDK/GD32VW55x_RELEASE_V1.0.2/MSDK/cloud/alicloud/src/infra/utils/misc\utils_httpc.c ****                 memcpy(client_data->response_buf + count, data, templen);
 969              		.loc 1 579 16
 970 043c E3D4CADC 		bge	s5,a2,.L25
 580:C:/Users/stapi/OneDrive/Desktop/GD32VW553/V1_MQTT_OK/GD32VW55X_Wifi_BLE_SDK/GD32VW55x_RELEASE_V1.0.2/MSDK/cloud/alicloud/src/infra/utils/misc\utils_httpc.c ****                 count += templen;
 971              		.loc 1 580 17 is_stmt 1
 972 0440 4A86     		mv	a2,s2
 973 0442 A285     		mv	a1,s0
 974 0444 97000000 		call	memcpy
 974      E7800000 
 975              	.LVL102:
 581:C:/Users/stapi/OneDrive/Desktop/GD32VW553/V1_MQTT_OK/GD32VW55X_Wifi_BLE_SDK/GD32VW55x_RELEASE_V1.0.2/MSDK/cloud/alicloud/src/infra/utils/misc\utils_httpc.c ****                 client_data->response_buf[count] = '\0';
 976              		.loc 1 581 17
 582:C:/Users/stapi/OneDrive/Desktop/GD32VW553/V1_MQTT_OK/GD32VW55X_Wifi_BLE_SDK/GD32VW55x_RELEASE_V1.0.2/MSDK/cloud/alicloud/src/infra/utils/misc\utils_httpc.c ****                 client_data->retrieve_len -= templen;
 977              		.loc 1 582 17
 582:C:/Users/stapi/OneDrive/Desktop/GD32VW553/V1_MQTT_OK/GD32VW55X_Wifi_BLE_SDK/GD32VW55x_RELEASE_V1.0.2/MSDK/cloud/alicloud/src/infra/utils/misc\utils_httpc.c ****                 client_data->retrieve_len -= templen;
 978              		.loc 1 582 50 is_stmt 0
 979 044c 83274D02 		lw	a5,36(s10)
 980 0450 D697     		add	a5,a5,s5
 981 0452 23800700 		sb	zero,0(a5)
 583:C:/Users/stapi/OneDrive/Desktop/GD32VW553/V1_MQTT_OK/GD32VW55X_Wifi_BLE_SDK/GD32VW55x_RELEASE_V1.0.2/MSDK/cloud/alicloud/src/infra/utils/misc\utils_httpc.c ****             } else {
 982              		.loc 1 583 17 is_stmt 1
 583:C:/Users/stapi/OneDrive/Desktop/GD32VW553/V1_MQTT_OK/GD32VW55X_Wifi_BLE_SDK/GD32VW55x_RELEASE_V1.0.2/MSDK/cloud/alicloud/src/infra/utils/misc\utils_httpc.c ****             } else {
 983              		.loc 1 583 43 is_stmt 0
 984 0456 83288D00 		lw	a7,8(s10)
 591:C:/Users/stapi/OneDrive/Desktop/GD32VW553/V1_MQTT_OK/GD32VW55X_Wifi_BLE_SDK/GD32VW55x_RELEASE_V1.0.2/MSDK/cloud/alicloud/src/infra/utils/misc\utils_httpc.c ****                 utils_debug("memmove %d %d %d\n", readLen, len, client_data->retrieve_len);
 985              		.loc 1 591 21
 986 045a 3248     		lw	a6,12(sp)
 583:C:/Users/stapi/OneDrive/Desktop/GD32VW553/V1_MQTT_OK/GD32VW55X_Wifi_BLE_SDK/GD32VW55x_RELEASE_V1.0.2/MSDK/cloud/alicloud/src/infra/utils/misc\utils_httpc.c ****             } else {
 987              		.loc 1 583 43
 988 045c B3882841 		sub	a7,a7,s2
 989 0460 23241D01 		sw	a7,8(s10)
 591:C:/Users/stapi/OneDrive/Desktop/GD32VW553/V1_MQTT_OK/GD32VW55X_Wifi_BLE_SDK/GD32VW55x_RELEASE_V1.0.2/MSDK/cloud/alicloud/src/infra/utils/misc\utils_httpc.c ****                 utils_debug("memmove %d %d %d\n", readLen, len, client_data->retrieve_len);
 990              		.loc 1 591 13 is_stmt 1
 591:C:/Users/stapi/OneDrive/Desktop/GD32VW553/V1_MQTT_OK/GD32VW55X_Wifi_BLE_SDK/GD32VW55x_RELEASE_V1.0.2/MSDK/cloud/alicloud/src/infra/utils/misc\utils_httpc.c ****                 utils_debug("memmove %d %d %d\n", readLen, len, client_data->retrieve_len);
 991              		.loc 1 591 16 is_stmt 0
 992 0464 E3FA04DD 		bleu	a6,s1,.L55
 592:C:/Users/stapi/OneDrive/Desktop/GD32VW553/V1_MQTT_OK/GD32VW55X_Wifi_BLE_SDK/GD32VW55x_RELEASE_V1.0.2/MSDK/cloud/alicloud/src/infra/utils/misc\utils_httpc.c ****                 memmove(data, &data[readLen], len - readLen); /* chunk case, read between two chunk
 993              		.loc 1 592 17 is_stmt 1
 994 0468 37070000 		lui	a4,%hi(.LC14)
 995 046c A687     		mv	a5,s1
 996 046e 13070700 		addi	a4,a4,%lo(.LC14)
 997 0472 9546     		li	a3,5
 998 0474 13060025 		li	a2,592
 999 0478 93850900 		addi	a1,s3,%lo(.LANCHOR1)
 1000 047c 13050A00 		addi	a0,s4,%lo(.LC1)
 1001 0480 97000000 		call	LITE_syslog
 1001      E7800000 
 1002              	.LVL103:
 593:C:/Users/stapi/OneDrive/Desktop/GD32VW553/V1_MQTT_OK/GD32VW55X_Wifi_BLE_SDK/GD32VW55x_RELEASE_V1.0.2/MSDK/cloud/alicloud/src/infra/utils/misc\utils_httpc.c ****                 len -= readLen;
 1003              		.loc 1 593 17
 593:C:/Users/stapi/OneDrive/Desktop/GD32VW553/V1_MQTT_OK/GD32VW55X_Wifi_BLE_SDK/GD32VW55x_RELEASE_V1.0.2/MSDK/cloud/alicloud/src/infra/utils/misc\utils_httpc.c ****                 len -= readLen;
 1004              		.loc 1 593 51 is_stmt 0
 1005 0488 3249     		lw	s2,12(sp)
 1006              	.LVL104:
 593:C:/Users/stapi/OneDrive/Desktop/GD32VW553/V1_MQTT_OK/GD32VW55X_Wifi_BLE_SDK/GD32VW55x_RELEASE_V1.0.2/MSDK/cloud/alicloud/src/infra/utils/misc\utils_httpc.c ****                 len -= readLen;
 1007              		.loc 1 593 17
 1008 048a B3059400 		add	a1,s0,s1
 1009 048e 2285     		mv	a0,s0
 593:C:/Users/stapi/OneDrive/Desktop/GD32VW553/V1_MQTT_OK/GD32VW55X_Wifi_BLE_SDK/GD32VW55x_RELEASE_V1.0.2/MSDK/cloud/alicloud/src/infra/utils/misc\utils_httpc.c ****                 len -= readLen;
 1010              		.loc 1 593 51
 1011 0490 33099940 		sub	s2,s2,s1
 593:C:/Users/stapi/OneDrive/Desktop/GD32VW553/V1_MQTT_OK/GD32VW55X_Wifi_BLE_SDK/GD32VW55x_RELEASE_V1.0.2/MSDK/cloud/alicloud/src/infra/utils/misc\utils_httpc.c ****                 len -= readLen;
 1012              		.loc 1 593 17
 1013 0494 4A86     		mv	a2,s2
 1014 0496 97000000 		call	memmove
 1014      E7800000 
 1015              	.LVL105:
 594:C:/Users/stapi/OneDrive/Desktop/GD32VW553/V1_MQTT_OK/GD32VW55X_Wifi_BLE_SDK/GD32VW55x_RELEASE_V1.0.2/MSDK/cloud/alicloud/src/infra/utils/misc\utils_httpc.c ****                 readLen = 0;
 1016              		.loc 1 594 17 is_stmt 1
 594:C:/Users/stapi/OneDrive/Desktop/GD32VW553/V1_MQTT_OK/GD32VW55X_Wifi_BLE_SDK/GD32VW55x_RELEASE_V1.0.2/MSDK/cloud/alicloud/src/infra/utils/misc\utils_httpc.c ****                 readLen = 0;
 1017              		.loc 1 594 21 is_stmt 0
 1018 049e 4AC6     		sw	s2,12(sp)
 595:C:/Users/stapi/OneDrive/Desktop/GD32VW553/V1_MQTT_OK/GD32VW55X_Wifi_BLE_SDK/GD32VW55x_RELEASE_V1.0.2/MSDK/cloud/alicloud/src/infra/utils/misc\utils_httpc.c ****                 client_data->retrieve_len = 0;
 1019              		.loc 1 595 17 is_stmt 1
 1020              	.LVL106:
 596:C:/Users/stapi/OneDrive/Desktop/GD32VW553/V1_MQTT_OK/GD32VW55X_Wifi_BLE_SDK/GD32VW55x_RELEASE_V1.0.2/MSDK/cloud/alicloud/src/infra/utils/misc\utils_httpc.c ****             } else {
 1021              		.loc 1 596 17
 596:C:/Users/stapi/OneDrive/Desktop/GD32VW553/V1_MQTT_OK/GD32VW55X_Wifi_BLE_SDK/GD32VW55x_RELEASE_V1.0.2/MSDK/cloud/alicloud/src/infra/utils/misc\utils_httpc.c ****             } else {
 1022              		.loc 1 596 43 is_stmt 0
 1023 04a0 23240D00 		sw	zero,8(s10)
 601:C:/Users/stapi/OneDrive/Desktop/GD32VW553/V1_MQTT_OK/GD32VW55X_Wifi_BLE_SDK/GD32VW55x_RELEASE_V1.0.2/MSDK/cloud/alicloud/src/infra/utils/misc\utils_httpc.c ****                 int ret;
 1024              		.loc 1 601 13 is_stmt 1
 1025              	.LVL107:
 1026              	.L28:
 639:C:/Users/stapi/OneDrive/Desktop/GD32VW553/V1_MQTT_OK/GD32VW55X_Wifi_BLE_SDK/GD32VW55x_RELEASE_V1.0.2/MSDK/cloud/alicloud/src/infra/utils/misc\utils_httpc.c **** 
 1027              		.loc 1 639 17
 641:C:/Users/stapi/OneDrive/Desktop/GD32VW553/V1_MQTT_OK/GD32VW55X_Wifi_BLE_SDK/GD32VW55x_RELEASE_V1.0.2/MSDK/cloud/alicloud/src/infra/utils/misc\utils_httpc.c ****             if (len < 2) {
 1028              		.loc 1 641 9
 641:C:/Users/stapi/OneDrive/Desktop/GD32VW553/V1_MQTT_OK/GD32VW55X_Wifi_BLE_SDK/GD32VW55x_RELEASE_V1.0.2/MSDK/cloud/alicloud/src/infra/utils/misc\utils_httpc.c ****             if (len < 2) {
 1029              		.loc 1 641 24 is_stmt 0
 1030 04a4 03294D00 		lw	s2,4(s10)
 641:C:/Users/stapi/OneDrive/Desktop/GD32VW553/V1_MQTT_OK/GD32VW55X_Wifi_BLE_SDK/GD32VW55x_RELEASE_V1.0.2/MSDK/cloud/alicloud/src/infra/utils/misc\utils_httpc.c ****             if (len < 2) {
 1031              		.loc 1 641 12
 1032 04a8 E31309EA 		bne	s2,zero,.L37
 659:C:/Users/stapi/OneDrive/Desktop/GD32VW553/V1_MQTT_OK/GD32VW55X_Wifi_BLE_SDK/GD32VW55x_RELEASE_V1.0.2/MSDK/cloud/alicloud/src/infra/utils/misc\utils_httpc.c ****             client_data->is_more = IOT_FALSE;
 1033              		.loc 1 659 13 is_stmt 1
 659:C:/Users/stapi/OneDrive/Desktop/GD32VW553/V1_MQTT_OK/GD32VW55X_Wifi_BLE_SDK/GD32VW55x_RELEASE_V1.0.2/MSDK/cloud/alicloud/src/infra/utils/misc\utils_httpc.c ****             client_data->is_more = IOT_FALSE;
 1034              		.loc 1 659 13
 1035 04ac 37050000 		lui	a0,%hi(.LC2)
 1036 04b0 13050500 		addi	a0,a0,%lo(.LC2)
 1037 04b4 97000000 		call	HAL_Printf
 1037      E7800000 
 1038              	.LVL108:
 659:C:/Users/stapi/OneDrive/Desktop/GD32VW553/V1_MQTT_OK/GD32VW55X_Wifi_BLE_SDK/GD32VW55x_RELEASE_V1.0.2/MSDK/cloud/alicloud/src/infra/utils/misc\utils_httpc.c ****             client_data->is_more = IOT_FALSE;
 1039              		.loc 1 659 13
 1040 04bc 37050000 		lui	a0,%hi(.LC19)
 1041 04c0 13050500 		addi	a0,a0,%lo(.LC19)
 1042 04c4 97000000 		call	HAL_Printf
 1042      E7800000 
 1043              	.LVL109:
 659:C:/Users/stapi/OneDrive/Desktop/GD32VW553/V1_MQTT_OK/GD32VW55X_Wifi_BLE_SDK/GD32VW55x_RELEASE_V1.0.2/MSDK/cloud/alicloud/src/infra/utils/misc\utils_httpc.c ****             client_data->is_more = IOT_FALSE;
 1044              		.loc 1 659 13
 1045 04cc 37050000 		lui	a0,%hi(.LC4)
 1046 04d0 13050500 		addi	a0,a0,%lo(.LC4)
 1047 04d4 97000000 		call	HAL_Printf
 1047      E7800000 
 1048              	.LVL110:
 1049 04dc 71B1     		j	.L61
 1050              	.LVL111:
 1051              	.L19:
 1052              	.LBB15:
 525:C:/Users/stapi/OneDrive/Desktop/GD32VW553/V1_MQTT_OK/GD32VW55X_Wifi_BLE_SDK/GD32VW55x_RELEASE_V1.0.2/MSDK/cloud/alicloud/src/infra/utils/misc\utils_httpc.c ****                     /* Try to read more */
 1053              		.loc 1 525 17
 545:C:/Users/stapi/OneDrive/Desktop/GD32VW553/V1_MQTT_OK/GD32VW55X_Wifi_BLE_SDK/GD32VW55x_RELEASE_V1.0.2/MSDK/cloud/alicloud/src/infra/utils/misc\utils_httpc.c ****             data[crlf_pos] = '\0';
 1054              		.loc 1 545 21
 546:C:/Users/stapi/OneDrive/Desktop/GD32VW553/V1_MQTT_OK/GD32VW55X_Wifi_BLE_SDK/GD32VW55x_RELEASE_V1.0.2/MSDK/cloud/alicloud/src/infra/utils/misc\utils_httpc.c **** 
 1055              		.loc 1 546 13
 546:C:/Users/stapi/OneDrive/Desktop/GD32VW553/V1_MQTT_OK/GD32VW55X_Wifi_BLE_SDK/GD32VW55x_RELEASE_V1.0.2/MSDK/cloud/alicloud/src/infra/utils/misc\utils_httpc.c **** 
 1056              		.loc 1 546 28 is_stmt 0
 1057 04de 23800700 		sb	zero,0(a5)
 551:C:/Users/stapi/OneDrive/Desktop/GD32VW553/V1_MQTT_OK/GD32VW55X_Wifi_BLE_SDK/GD32VW55x_RELEASE_V1.0.2/MSDK/cloud/alicloud/src/infra/utils/misc\utils_httpc.c ****             n = (0 == readLen) ? 0 : 1;
 1058              		.loc 1 551 13 is_stmt 1
 551:C:/Users/stapi/OneDrive/Desktop/GD32VW553/V1_MQTT_OK/GD32VW55X_Wifi_BLE_SDK/GD32VW55x_RELEASE_V1.0.2/MSDK/cloud/alicloud/src/infra/utils/misc\utils_httpc.c ****             n = (0 == readLen) ? 0 : 1;
 1059              		.loc 1 551 23 is_stmt 0
 1060 04e2 4146     		li	a2,16
 1061 04e4 8145     		li	a1,0
 1062 04e6 2285     		mv	a0,s0
 1063 04e8 97000000 		call	strtoul
 1063      E7800000 
 1064              	.LVL112:
 554:C:/Users/stapi/OneDrive/Desktop/GD32VW553/V1_MQTT_OK/GD32VW55X_Wifi_BLE_SDK/GD32VW55x_RELEASE_V1.0.2/MSDK/cloud/alicloud/src/infra/utils/misc\utils_httpc.c ****             if (readLen == 0) {
 1065              		.loc 1 554 47
 1066 04f0 8327CD00 		lw	a5,12(s10)
 553:C:/Users/stapi/OneDrive/Desktop/GD32VW553/V1_MQTT_OK/GD32VW55X_Wifi_BLE_SDK/GD32VW55x_RELEASE_V1.0.2/MSDK/cloud/alicloud/src/infra/utils/misc\utils_httpc.c ****             client_data->response_content_len += client_data->retrieve_len;
 1067              		.loc 1 553 39
 1068 04f4 2324AD00 		sw	a0,8(s10)
 551:C:/Users/stapi/OneDrive/Desktop/GD32VW553/V1_MQTT_OK/GD32VW55X_Wifi_BLE_SDK/GD32VW55x_RELEASE_V1.0.2/MSDK/cloud/alicloud/src/infra/utils/misc\utils_httpc.c ****             n = (0 == readLen) ? 0 : 1;
 1069              		.loc 1 551 23
 1070 04f8 AA84     		mv	s1,a0
 1071              	.LVL113:
 552:C:/Users/stapi/OneDrive/Desktop/GD32VW553/V1_MQTT_OK/GD32VW55X_Wifi_BLE_SDK/GD32VW55x_RELEASE_V1.0.2/MSDK/cloud/alicloud/src/infra/utils/misc\utils_httpc.c ****             client_data->retrieve_len = readLen;
 1072              		.loc 1 552 13 is_stmt 1
 553:C:/Users/stapi/OneDrive/Desktop/GD32VW553/V1_MQTT_OK/GD32VW55X_Wifi_BLE_SDK/GD32VW55x_RELEASE_V1.0.2/MSDK/cloud/alicloud/src/infra/utils/misc\utils_httpc.c ****             client_data->response_content_len += client_data->retrieve_len;
 1073              		.loc 1 553 13
 554:C:/Users/stapi/OneDrive/Desktop/GD32VW553/V1_MQTT_OK/GD32VW55X_Wifi_BLE_SDK/GD32VW55x_RELEASE_V1.0.2/MSDK/cloud/alicloud/src/infra/utils/misc\utils_httpc.c ****             if (readLen == 0) {
 1074              		.loc 1 554 13
 554:C:/Users/stapi/OneDrive/Desktop/GD32VW553/V1_MQTT_OK/GD32VW55X_Wifi_BLE_SDK/GD32VW55x_RELEASE_V1.0.2/MSDK/cloud/alicloud/src/infra/utils/misc\utils_httpc.c ****             if (readLen == 0) {
 1075              		.loc 1 554 47 is_stmt 0
 1076 04fa AA97     		add	a5,a5,a0
 1077 04fc 2326FD00 		sw	a5,12(s10)
 555:C:/Users/stapi/OneDrive/Desktop/GD32VW553/V1_MQTT_OK/GD32VW55X_Wifi_BLE_SDK/GD32VW55x_RELEASE_V1.0.2/MSDK/cloud/alicloud/src/infra/utils/misc\utils_httpc.c ****                 /* Last chunk */
 1078              		.loc 1 555 13 is_stmt 1
 555:C:/Users/stapi/OneDrive/Desktop/GD32VW553/V1_MQTT_OK/GD32VW55X_Wifi_BLE_SDK/GD32VW55x_RELEASE_V1.0.2/MSDK/cloud/alicloud/src/infra/utils/misc\utils_httpc.c ****                 /* Last chunk */
 1079              		.loc 1 555 16 is_stmt 0
 1080 0500 E31105EE 		bne	a0,zero,.L57
 557:C:/Users/stapi/OneDrive/Desktop/GD32VW553/V1_MQTT_OK/GD32VW55X_Wifi_BLE_SDK/GD32VW55x_RELEASE_V1.0.2/MSDK/cloud/alicloud/src/infra/utils/misc\utils_httpc.c ****                 utils_info("no more (last chunk)");
 1081              		.loc 1 557 17 is_stmt 1
 558:C:/Users/stapi/OneDrive/Desktop/GD32VW553/V1_MQTT_OK/GD32VW55X_Wifi_BLE_SDK/GD32VW55x_RELEASE_V1.0.2/MSDK/cloud/alicloud/src/infra/utils/misc\utils_httpc.c ****             }
 1082              		.loc 1 558 17 is_stmt 0
 1083 0504 37050000 		lui	a0,%hi(.LC10)
 1084 0508 13050500 		addi	a0,a0,%lo(.LC10)
 557:C:/Users/stapi/OneDrive/Desktop/GD32VW553/V1_MQTT_OK/GD32VW55X_Wifi_BLE_SDK/GD32VW55x_RELEASE_V1.0.2/MSDK/cloud/alicloud/src/infra/utils/misc\utils_httpc.c ****                 utils_info("no more (last chunk)");
 1085              		.loc 1 557 38
 1086 050c 23200D00 		sw	zero,0(s10)
 558:C:/Users/stapi/OneDrive/Desktop/GD32VW553/V1_MQTT_OK/GD32VW55X_Wifi_BLE_SDK/GD32VW55x_RELEASE_V1.0.2/MSDK/cloud/alicloud/src/infra/utils/misc\utils_httpc.c ****             }
 1087              		.loc 1 558 17 is_stmt 1
 558:C:/Users/stapi/OneDrive/Desktop/GD32VW553/V1_MQTT_OK/GD32VW55X_Wifi_BLE_SDK/GD32VW55x_RELEASE_V1.0.2/MSDK/cloud/alicloud/src/infra/utils/misc\utils_httpc.c ****             }
 1088              		.loc 1 558 17
 1089 0510 97000000 		call	HAL_Printf
 1089      E7800000 
 1090              	.LVL114:
 558:C:/Users/stapi/OneDrive/Desktop/GD32VW553/V1_MQTT_OK/GD32VW55X_Wifi_BLE_SDK/GD32VW55x_RELEASE_V1.0.2/MSDK/cloud/alicloud/src/infra/utils/misc\utils_httpc.c ****             }
 1091              		.loc 1 558 17
 1092 0518 37050000 		lui	a0,%hi(.LC11)
 1093 051c 13050500 		addi	a0,a0,%lo(.LC11)
 1094 0520 97000000 		call	HAL_Printf
 1094      E7800000 
 1095              	.LVL115:
 558:C:/Users/stapi/OneDrive/Desktop/GD32VW553/V1_MQTT_OK/GD32VW55X_Wifi_BLE_SDK/GD32VW55x_RELEASE_V1.0.2/MSDK/cloud/alicloud/src/infra/utils/misc\utils_httpc.c ****             }
 1096              		.loc 1 558 17
 1097 0528 37040000 		lui	s0,%hi(.LC4)
 1098              	.LVL116:
 1099 052c 13050400 		addi	a0,s0,%lo(.LC4)
 1100 0530 97000000 		call	HAL_Printf
 1100      E7800000 
 1101              	.LVL117:
 558:C:/Users/stapi/OneDrive/Desktop/GD32VW553/V1_MQTT_OK/GD32VW55X_Wifi_BLE_SDK/GD32VW55x_RELEASE_V1.0.2/MSDK/cloud/alicloud/src/infra/utils/misc\utils_httpc.c ****             }
 1102              		.loc 1 558 17
 561:C:/Users/stapi/OneDrive/Desktop/GD32VW553/V1_MQTT_OK/GD32VW55X_Wifi_BLE_SDK/GD32VW55x_RELEASE_V1.0.2/MSDK/cloud/alicloud/src/infra/utils/misc\utils_httpc.c ****                 utils_err("Could not read chunk length");
 1103              		.loc 1 561 13
 562:C:/Users/stapi/OneDrive/Desktop/GD32VW553/V1_MQTT_OK/GD32VW55X_Wifi_BLE_SDK/GD32VW55x_RELEASE_V1.0.2/MSDK/cloud/alicloud/src/infra/utils/misc\utils_httpc.c ****                 return ERROR_HTTP_UNRESOLVED_DNS;
 1104              		.loc 1 562 17
 562:C:/Users/stapi/OneDrive/Desktop/GD32VW553/V1_MQTT_OK/GD32VW55X_Wifi_BLE_SDK/GD32VW55x_RELEASE_V1.0.2/MSDK/cloud/alicloud/src/infra/utils/misc\utils_httpc.c ****                 return ERROR_HTTP_UNRESOLVED_DNS;
 1105              		.loc 1 562 17
 1106 0538 37050000 		lui	a0,%hi(.LC2)
 1107 053c 13050500 		addi	a0,a0,%lo(.LC2)
 1108 0540 97000000 		call	HAL_Printf
 1108      E7800000 
 1109              	.LVL118:
 562:C:/Users/stapi/OneDrive/Desktop/GD32VW553/V1_MQTT_OK/GD32VW55X_Wifi_BLE_SDK/GD32VW55x_RELEASE_V1.0.2/MSDK/cloud/alicloud/src/infra/utils/misc\utils_httpc.c ****                 return ERROR_HTTP_UNRESOLVED_DNS;
 1110              		.loc 1 562 17
 1111 0548 37050000 		lui	a0,%hi(.LC12)
 1112 054c 13050500 		addi	a0,a0,%lo(.LC12)
 1113 0550 97000000 		call	HAL_Printf
 1113      E7800000 
 1114              	.LVL119:
 562:C:/Users/stapi/OneDrive/Desktop/GD32VW553/V1_MQTT_OK/GD32VW55X_Wifi_BLE_SDK/GD32VW55x_RELEASE_V1.0.2/MSDK/cloud/alicloud/src/infra/utils/misc\utils_httpc.c ****                 return ERROR_HTTP_UNRESOLVED_DNS;
 1115              		.loc 1 562 17
 1116 0558 13050400 		addi	a0,s0,%lo(.LC4)
 1117              	.LVL120:
 1118              	.L62:
 1119              	.LBE15:
 653:C:/Users/stapi/OneDrive/Desktop/GD32VW553/V1_MQTT_OK/GD32VW55X_Wifi_BLE_SDK/GD32VW55x_RELEASE_V1.0.2/MSDK/cloud/alicloud/src/infra/utils/misc\utils_httpc.c ****                 return ERROR_HTTP_UNRESOLVED_DNS;
 1120              		.loc 1 653 17 is_stmt 0
 1121 055c 97000000 		call	HAL_Printf
 1121      E7800000 
 1122              	.LVL121:
 653:C:/Users/stapi/OneDrive/Desktop/GD32VW553/V1_MQTT_OK/GD32VW55X_Wifi_BLE_SDK/GD32VW55x_RELEASE_V1.0.2/MSDK/cloud/alicloud/src/infra/utils/misc\utils_httpc.c ****                 return ERROR_HTTP_UNRESOLVED_DNS;
 1123              		.loc 1 653 17 is_stmt 1
 654:C:/Users/stapi/OneDrive/Desktop/GD32VW553/V1_MQTT_OK/GD32VW55X_Wifi_BLE_SDK/GD32VW55x_RELEASE_V1.0.2/MSDK/cloud/alicloud/src/infra/utils/misc\utils_httpc.c ****             }
 1124              		.loc 1 654 17
 654:C:/Users/stapi/OneDrive/Desktop/GD32VW553/V1_MQTT_OK/GD32VW55X_Wifi_BLE_SDK/GD32VW55x_RELEASE_V1.0.2/MSDK/cloud/alicloud/src/infra/utils/misc\utils_httpc.c ****             }
 1125              		.loc 1 654 24 is_stmt 0
 1126 0564 6959     		li	s2,-6
 1127 0566 71B1     		j	.L8
 1128              	.LBE23:
 1129              		.cfi_endproc
 1130              	.LFE29:
 1132              		.section	.rodata.httpclient_parse_host.constprop.0.isra.0.str1.4,"aMS",@progbits,1
 1133              		.align	2
 1134              	.LC20:
 1135 0000 3A2F2F00 		.string	"://"
 1136              		.align	2
 1137              	.LC21:
 1138 0004 436F756C 		.string	"Could not find host"
 1138      64206E6F 
 1138      74206669 
 1138      6E642068 
 1138      6F737400 
 1139              		.align	2
 1140              	.LC22:
 1141 0018 486F7374 		.string	"Host str is too small (%d >= %d)"
 1141      20737472 
 1141      20697320 
 1141      746F6F20 
 1141      736D616C 
 1142              		.section	.text.httpclient_parse_host.constprop.0.isra.0,"ax",@progbits
 1143              		.align	1
 1145              	httpclient_parse_host.constprop.0.isra.0:
 1146              	.LFB41:
 147:C:/Users/stapi/OneDrive/Desktop/GD32VW553/V1_MQTT_OK/GD32VW55X_Wifi_BLE_SDK/GD32VW55x_RELEASE_V1.0.2/MSDK/cloud/alicloud/src/infra/utils/misc\utils_httpc.c **** {
 1147              		.loc 1 147 5 is_stmt 1
 1148              		.cfi_startproc
 1149              	.LVL122:
 1150 0000 17030000 		call	t0,__riscv_save_3
 1150      E7020300 
 1151              		.cfi_offset 18, -16
 1152              		.cfi_offset 9, -12
 1153              		.cfi_offset 8, -8
 1154              		.cfi_offset 1, -4
 1155              		.cfi_def_cfa_offset 16
 1156              	.LVL123:
 149:C:/Users/stapi/OneDrive/Desktop/GD32VW553/V1_MQTT_OK/GD32VW55X_Wifi_BLE_SDK/GD32VW55x_RELEASE_V1.0.2/MSDK/cloud/alicloud/src/infra/utils/misc\utils_httpc.c ****     uint32_t host_len = 0;
 1157              		.loc 1 149 5
 147:C:/Users/stapi/OneDrive/Desktop/GD32VW553/V1_MQTT_OK/GD32VW55X_Wifi_BLE_SDK/GD32VW55x_RELEASE_V1.0.2/MSDK/cloud/alicloud/src/infra/utils/misc\utils_httpc.c **** {
 1158              		.loc 1 147 5 is_stmt 0
 1159 0008 2E89     		mv	s2,a1
 149:C:/Users/stapi/OneDrive/Desktop/GD32VW553/V1_MQTT_OK/GD32VW55X_Wifi_BLE_SDK/GD32VW55x_RELEASE_V1.0.2/MSDK/cloud/alicloud/src/infra/utils/misc\utils_httpc.c ****     uint32_t host_len = 0;
 1160              		.loc 1 149 43
 1161 000a B7050000 		lui	a1,%hi(.LC20)
 1162              	.LVL124:
 147:C:/Users/stapi/OneDrive/Desktop/GD32VW553/V1_MQTT_OK/GD32VW55X_Wifi_BLE_SDK/GD32VW55x_RELEASE_V1.0.2/MSDK/cloud/alicloud/src/infra/utils/misc\utils_httpc.c **** {
 1163              		.loc 1 147 5
 1164 000e 4111     		addi	sp,sp,-16
 1165              		.cfi_def_cfa_offset 32
 149:C:/Users/stapi/OneDrive/Desktop/GD32VW553/V1_MQTT_OK/GD32VW55X_Wifi_BLE_SDK/GD32VW55x_RELEASE_V1.0.2/MSDK/cloud/alicloud/src/infra/utils/misc\utils_httpc.c ****     uint32_t host_len = 0;
 1166              		.loc 1 149 43
 1167 0010 93850500 		addi	a1,a1,%lo(.LC20)
 1168 0014 97000000 		call	strstr
 1168      E7800000 
 1169              	.LVL125:
 150:C:/Users/stapi/OneDrive/Desktop/GD32VW553/V1_MQTT_OK/GD32VW55X_Wifi_BLE_SDK/GD32VW55x_RELEASE_V1.0.2/MSDK/cloud/alicloud/src/infra/utils/misc\utils_httpc.c ****     char *path_ptr;
 1170              		.loc 1 150 5 is_stmt 1
 151:C:/Users/stapi/OneDrive/Desktop/GD32VW553/V1_MQTT_OK/GD32VW55X_Wifi_BLE_SDK/GD32VW55x_RELEASE_V1.0.2/MSDK/cloud/alicloud/src/infra/utils/misc\utils_httpc.c ****     char *port_ptr;
 1171              		.loc 1 151 5
 152:C:/Users/stapi/OneDrive/Desktop/GD32VW553/V1_MQTT_OK/GD32VW55X_Wifi_BLE_SDK/GD32VW55x_RELEASE_V1.0.2/MSDK/cloud/alicloud/src/infra/utils/misc\utils_httpc.c **** 
 1172              		.loc 1 152 5
 154:C:/Users/stapi/OneDrive/Desktop/GD32VW553/V1_MQTT_OK/GD32VW55X_Wifi_BLE_SDK/GD32VW55x_RELEASE_V1.0.2/MSDK/cloud/alicloud/src/infra/utils/misc\utils_httpc.c ****         utils_err("Could not find host");
 1173              		.loc 1 154 5
 154:C:/Users/stapi/OneDrive/Desktop/GD32VW553/V1_MQTT_OK/GD32VW55X_Wifi_BLE_SDK/GD32VW55x_RELEASE_V1.0.2/MSDK/cloud/alicloud/src/infra/utils/misc\utils_httpc.c ****         utils_err("Could not find host");
 1174              		.loc 1 154 8 is_stmt 0
 1175 001c 15ED     		bne	a0,zero,.L64
 155:C:/Users/stapi/OneDrive/Desktop/GD32VW553/V1_MQTT_OK/GD32VW55X_Wifi_BLE_SDK/GD32VW55x_RELEASE_V1.0.2/MSDK/cloud/alicloud/src/infra/utils/misc\utils_httpc.c ****         return ERROR_HTTP_PARSE; /* URL is invalid */
 1176              		.loc 1 155 9 is_stmt 1
 155:C:/Users/stapi/OneDrive/Desktop/GD32VW553/V1_MQTT_OK/GD32VW55X_Wifi_BLE_SDK/GD32VW55x_RELEASE_V1.0.2/MSDK/cloud/alicloud/src/infra/utils/misc\utils_httpc.c ****         return ERROR_HTTP_PARSE; /* URL is invalid */
 1177              		.loc 1 155 9
 1178 001e 37050000 		lui	a0,%hi(.LC2)
 1179              	.LVL126:
 1180 0022 13050500 		addi	a0,a0,%lo(.LC2)
 1181 0026 97000000 		call	HAL_Printf
 1181      E7800000 
 1182              	.LVL127:
 155:C:/Users/stapi/OneDrive/Desktop/GD32VW553/V1_MQTT_OK/GD32VW55X_Wifi_BLE_SDK/GD32VW55x_RELEASE_V1.0.2/MSDK/cloud/alicloud/src/infra/utils/misc\utils_httpc.c ****         return ERROR_HTTP_PARSE; /* URL is invalid */
 1183              		.loc 1 155 9
 1184 002e 37050000 		lui	a0,%hi(.LC21)
 1185 0032 13050500 		addi	a0,a0,%lo(.LC21)
 1186 0036 97000000 		call	HAL_Printf
 1186      E7800000 
 1187              	.LVL128:
 155:C:/Users/stapi/OneDrive/Desktop/GD32VW553/V1_MQTT_OK/GD32VW55X_Wifi_BLE_SDK/GD32VW55x_RELEASE_V1.0.2/MSDK/cloud/alicloud/src/infra/utils/misc\utils_httpc.c ****         return ERROR_HTTP_PARSE; /* URL is invalid */
 1188              		.loc 1 155 9
 1189              	.L70:
 172:C:/Users/stapi/OneDrive/Desktop/GD32VW553/V1_MQTT_OK/GD32VW55X_Wifi_BLE_SDK/GD32VW55x_RELEASE_V1.0.2/MSDK/cloud/alicloud/src/infra/utils/misc\utils_httpc.c ****         return ERROR_HTTP_PARSE;
 1190              		.loc 1 172 9
 1191 003e 37050000 		lui	a0,%hi(.LC4)
 1192 0042 13050500 		addi	a0,a0,%lo(.LC4)
 1193 0046 97000000 		call	HAL_Printf
 1193      E7800000 
 1194              	.LVL129:
 172:C:/Users/stapi/OneDrive/Desktop/GD32VW553/V1_MQTT_OK/GD32VW55X_Wifi_BLE_SDK/GD32VW55x_RELEASE_V1.0.2/MSDK/cloud/alicloud/src/infra/utils/misc\utils_httpc.c ****         return ERROR_HTTP_PARSE;
 1195              		.loc 1 172 9
 173:C:/Users/stapi/OneDrive/Desktop/GD32VW553/V1_MQTT_OK/GD32VW55X_Wifi_BLE_SDK/GD32VW55x_RELEASE_V1.0.2/MSDK/cloud/alicloud/src/infra/utils/misc\utils_httpc.c ****     }
 1196              		.loc 1 173 9
 1197              	.L63:
 179:C:/Users/stapi/OneDrive/Desktop/GD32VW553/V1_MQTT_OK/GD32VW55X_Wifi_BLE_SDK/GD32VW55x_RELEASE_V1.0.2/MSDK/cloud/alicloud/src/infra/utils/misc\utils_httpc.c **** 
 1198              		.loc 1 179 1 is_stmt 0
 1199 004e 4101     		addi	sp,sp,16
 1200              		.cfi_remember_state
 1201              		.cfi_def_cfa_offset 0
 1202 0050 17030000 		tail	__riscv_restore_3
 1202      67000300 
 1203              		.cfi_restore 18
 1204              		.cfi_restore 9
 1205              		.cfi_restore 8
 1206              		.cfi_restore 1
 1207              		.cfi_def_cfa_offset -16
 1208              	.LVL130:
 1209              	.L64:
 1210              		.cfi_restore_state
 158:C:/Users/stapi/OneDrive/Desktop/GD32VW553/V1_MQTT_OK/GD32VW55X_Wifi_BLE_SDK/GD32VW55x_RELEASE_V1.0.2/MSDK/cloud/alicloud/src/infra/utils/misc\utils_httpc.c **** 
 1211              		.loc 1 158 5 is_stmt 1
 158:C:/Users/stapi/OneDrive/Desktop/GD32VW553/V1_MQTT_OK/GD32VW55X_Wifi_BLE_SDK/GD32VW55x_RELEASE_V1.0.2/MSDK/cloud/alicloud/src/infra/utils/misc\utils_httpc.c **** 
 1212              		.loc 1 158 14 is_stmt 0
 1213 0058 13043500 		addi	s0,a0,3
 1214              	.LVL131:
 160:C:/Users/stapi/OneDrive/Desktop/GD32VW553/V1_MQTT_OK/GD32VW55X_Wifi_BLE_SDK/GD32VW55x_RELEASE_V1.0.2/MSDK/cloud/alicloud/src/infra/utils/misc\utils_httpc.c ****     port_ptr = strchr(host_ptr, ':');
 1215              		.loc 1 160 5 is_stmt 1
 160:C:/Users/stapi/OneDrive/Desktop/GD32VW553/V1_MQTT_OK/GD32VW55X_Wifi_BLE_SDK/GD32VW55x_RELEASE_V1.0.2/MSDK/cloud/alicloud/src/infra/utils/misc\utils_httpc.c ****     port_ptr = strchr(host_ptr, ':');
 1216              		.loc 1 160 16 is_stmt 0
 1217 005c 9305F002 		li	a1,47
 1218 0060 2285     		mv	a0,s0
 1219 0062 97000000 		call	strchr
 1219      E7800000 
 1220              	.LVL132:
 1221 006a AA84     		mv	s1,a0
 1222              	.LVL133:
 161:C:/Users/stapi/OneDrive/Desktop/GD32VW553/V1_MQTT_OK/GD32VW55X_Wifi_BLE_SDK/GD32VW55x_RELEASE_V1.0.2/MSDK/cloud/alicloud/src/infra/utils/misc\utils_httpc.c ****     if (host_len == 0) {
 1223              		.loc 1 161 5 is_stmt 1
 161:C:/Users/stapi/OneDrive/Desktop/GD32VW553/V1_MQTT_OK/GD32VW55X_Wifi_BLE_SDK/GD32VW55x_RELEASE_V1.0.2/MSDK/cloud/alicloud/src/infra/utils/misc\utils_httpc.c ****     if (host_len == 0) {
 1224              		.loc 1 161 16 is_stmt 0
 1225 006c 9305A003 		li	a1,58
 1226 0070 2285     		mv	a0,s0
 1227 0072 97000000 		call	strchr
 1227      E7800000 
 1228              	.LVL134:
 162:C:/Users/stapi/OneDrive/Desktop/GD32VW553/V1_MQTT_OK/GD32VW55X_Wifi_BLE_SDK/GD32VW55x_RELEASE_V1.0.2/MSDK/cloud/alicloud/src/infra/utils/misc\utils_httpc.c ****         if(port_ptr) {
 1229              		.loc 1 162 5 is_stmt 1
 163:C:/Users/stapi/OneDrive/Desktop/GD32VW553/V1_MQTT_OK/GD32VW55X_Wifi_BLE_SDK/GD32VW55x_RELEASE_V1.0.2/MSDK/cloud/alicloud/src/infra/utils/misc\utils_httpc.c ****             host_len = port_ptr - host_ptr;
 1230              		.loc 1 163 9
 166:C:/Users/stapi/OneDrive/Desktop/GD32VW553/V1_MQTT_OK/GD32VW55X_Wifi_BLE_SDK/GD32VW55x_RELEASE_V1.0.2/MSDK/cloud/alicloud/src/infra/utils/misc\utils_httpc.c ****         }
 1231              		.loc 1 166 33 is_stmt 0
 1232 007a 818C     		sub	s1,s1,s0
 1233              	.LVL135:
 163:C:/Users/stapi/OneDrive/Desktop/GD32VW553/V1_MQTT_OK/GD32VW55X_Wifi_BLE_SDK/GD32VW55x_RELEASE_V1.0.2/MSDK/cloud/alicloud/src/infra/utils/misc\utils_httpc.c ****             host_len = port_ptr - host_ptr;
 1234              		.loc 1 163 11
 1235 007c 19C1     		beq	a0,zero,.L67
 164:C:/Users/stapi/OneDrive/Desktop/GD32VW553/V1_MQTT_OK/GD32VW55X_Wifi_BLE_SDK/GD32VW55x_RELEASE_V1.0.2/MSDK/cloud/alicloud/src/infra/utils/misc\utils_httpc.c ****         } else {
 1236              		.loc 1 164 13 is_stmt 1
 164:C:/Users/stapi/OneDrive/Desktop/GD32VW553/V1_MQTT_OK/GD32VW55X_Wifi_BLE_SDK/GD32VW55x_RELEASE_V1.0.2/MSDK/cloud/alicloud/src/infra/utils/misc\utils_httpc.c ****         } else {
 1237              		.loc 1 164 33 is_stmt 0
 1238 007e B3048540 		sub	s1,a0,s0
 1239              	.LVL136:
 1240              	.L67:
 170:C:/Users/stapi/OneDrive/Desktop/GD32VW553/V1_MQTT_OK/GD32VW55X_Wifi_BLE_SDK/GD32VW55x_RELEASE_V1.0.2/MSDK/cloud/alicloud/src/infra/utils/misc\utils_httpc.c ****         /* including NULL-terminating char */
 1241              		.loc 1 170 5 is_stmt 1
 170:C:/Users/stapi/OneDrive/Desktop/GD32VW553/V1_MQTT_OK/GD32VW55X_Wifi_BLE_SDK/GD32VW55x_RELEASE_V1.0.2/MSDK/cloud/alicloud/src/infra/utils/misc\utils_httpc.c ****         /* including NULL-terminating char */
 1242              		.loc 1 170 32 is_stmt 0
 1243 0082 13861400 		addi	a2,s1,1
 170:C:/Users/stapi/OneDrive/Desktop/GD32VW553/V1_MQTT_OK/GD32VW55X_Wifi_BLE_SDK/GD32VW55x_RELEASE_V1.0.2/MSDK/cloud/alicloud/src/infra/utils/misc\utils_httpc.c ****         /* including NULL-terminating char */
 1244              		.loc 1 170 8
 1245 0086 93070008 		li	a5,128
 1246 008a 63F7C702 		bleu	a2,a5,.L68
 172:C:/Users/stapi/OneDrive/Desktop/GD32VW553/V1_MQTT_OK/GD32VW55X_Wifi_BLE_SDK/GD32VW55x_RELEASE_V1.0.2/MSDK/cloud/alicloud/src/infra/utils/misc\utils_httpc.c ****         return ERROR_HTTP_PARSE;
 1247              		.loc 1 172 9
 1248 008e 37050000 		lui	a0,%hi(.LC2)
 1249              	.LVL137:
 1250 0092 13050500 		addi	a0,a0,%lo(.LC2)
 1251 0096 32C6     		sw	a2,12(sp)
 172:C:/Users/stapi/OneDrive/Desktop/GD32VW553/V1_MQTT_OK/GD32VW55X_Wifi_BLE_SDK/GD32VW55x_RELEASE_V1.0.2/MSDK/cloud/alicloud/src/infra/utils/misc\utils_httpc.c ****         return ERROR_HTTP_PARSE;
 1252              		.loc 1 172 9 is_stmt 1
 172:C:/Users/stapi/OneDrive/Desktop/GD32VW553/V1_MQTT_OK/GD32VW55X_Wifi_BLE_SDK/GD32VW55x_RELEASE_V1.0.2/MSDK/cloud/alicloud/src/infra/utils/misc\utils_httpc.c ****         return ERROR_HTTP_PARSE;
 1253              		.loc 1 172 9
 1254 0098 97000000 		call	HAL_Printf
 1254      E7800000 
 1255              	.LVL138:
 172:C:/Users/stapi/OneDrive/Desktop/GD32VW553/V1_MQTT_OK/GD32VW55X_Wifi_BLE_SDK/GD32VW55x_RELEASE_V1.0.2/MSDK/cloud/alicloud/src/infra/utils/misc\utils_httpc.c ****         return ERROR_HTTP_PARSE;
 1256              		.loc 1 172 9
 1257 00a0 3246     		lw	a2,12(sp)
 1258 00a2 37050000 		lui	a0,%hi(.LC22)
 1259 00a6 93050008 		li	a1,128
 1260 00aa 13050500 		addi	a0,a0,%lo(.LC22)
 1261 00ae 97000000 		call	HAL_Printf
 1261      E7800000 
 1262              	.LVL139:
 1263 00b6 61B7     		j	.L70
 1264              	.LVL140:
 1265              	.L68:
 175:C:/Users/stapi/OneDrive/Desktop/GD32VW553/V1_MQTT_OK/GD32VW55X_Wifi_BLE_SDK/GD32VW55x_RELEASE_V1.0.2/MSDK/cloud/alicloud/src/infra/utils/misc\utils_httpc.c ****     host[host_len] = '\0';
 1266              		.loc 1 175 5
 1267 00b8 2686     		mv	a2,s1
 1268 00ba A285     		mv	a1,s0
 1269 00bc 4A85     		mv	a0,s2
 1270              	.LVL141:
 176:C:/Users/stapi/OneDrive/Desktop/GD32VW553/V1_MQTT_OK/GD32VW55X_Wifi_BLE_SDK/GD32VW55x_RELEASE_V1.0.2/MSDK/cloud/alicloud/src/infra/utils/misc\utils_httpc.c **** 
 1271              		.loc 1 176 20 is_stmt 0
 1272 00be CA94     		add	s1,s2,s1
 1273              	.LVL142:
 175:C:/Users/stapi/OneDrive/Desktop/GD32VW553/V1_MQTT_OK/GD32VW55X_Wifi_BLE_SDK/GD32VW55x_RELEASE_V1.0.2/MSDK/cloud/alicloud/src/infra/utils/misc\utils_httpc.c ****     host[host_len] = '\0';
 1274              		.loc 1 175 5
 1275 00c0 97000000 		call	memcpy
 1275      E7800000 
 1276              	.LVL143:
 176:C:/Users/stapi/OneDrive/Desktop/GD32VW553/V1_MQTT_OK/GD32VW55X_Wifi_BLE_SDK/GD32VW55x_RELEASE_V1.0.2/MSDK/cloud/alicloud/src/infra/utils/misc\utils_httpc.c **** 
 1277              		.loc 1 176 5 is_stmt 1
 176:C:/Users/stapi/OneDrive/Desktop/GD32VW553/V1_MQTT_OK/GD32VW55X_Wifi_BLE_SDK/GD32VW55x_RELEASE_V1.0.2/MSDK/cloud/alicloud/src/infra/utils/misc\utils_httpc.c **** 
 1278              		.loc 1 176 20 is_stmt 0
 1279 00c8 23800400 		sb	zero,0(s1)
 178:C:/Users/stapi/OneDrive/Desktop/GD32VW553/V1_MQTT_OK/GD32VW55X_Wifi_BLE_SDK/GD32VW55x_RELEASE_V1.0.2/MSDK/cloud/alicloud/src/infra/utils/misc\utils_httpc.c **** }
 1280              		.loc 1 178 5 is_stmt 1
 178:C:/Users/stapi/OneDrive/Desktop/GD32VW553/V1_MQTT_OK/GD32VW55X_Wifi_BLE_SDK/GD32VW55x_RELEASE_V1.0.2/MSDK/cloud/alicloud/src/infra/utils/misc\utils_httpc.c **** }
 1281              		.loc 1 178 12 is_stmt 0
 1282 00cc 49B7     		j	.L63
 1283              		.cfi_endproc
 1284              	.LFE41:
 1286              		.section	.text.httpclient_get_info,"ax",@progbits
 1287              		.align	1
 1288              		.globl	httpclient_get_info
 1290              	httpclient_get_info:
 1291              	.LFB24:
 183:C:/Users/stapi/OneDrive/Desktop/GD32VW553/V1_MQTT_OK/GD32VW55X_Wifi_BLE_SDK/GD32VW55x_RELEASE_V1.0.2/MSDK/cloud/alicloud/src/infra/utils/misc\utils_httpc.c ****     int ret;
 1292              		.loc 1 183 1 is_stmt 1
 1293              		.cfi_startproc
 1294              	.LVL144:
 1295 0000 17030000 		call	t0,__riscv_save_10
 1295      E7020300 
 1296              		.cfi_offset 25, -44
 1297              		.cfi_offset 24, -40
 1298              		.cfi_offset 23, -36
 1299              		.cfi_offset 22, -32
 1300              		.cfi_offset 21, -28
 1301              		.cfi_offset 20, -24
 1302              		.cfi_offset 19, -20
 1303              		.cfi_offset 18, -16
 1304              		.cfi_offset 9, -12
 1305              		.cfi_offset 8, -8
 1306              		.cfi_offset 1, -4
 1307              		.cfi_def_cfa_offset 48
 184:C:/Users/stapi/OneDrive/Desktop/GD32VW553/V1_MQTT_OK/GD32VW55X_Wifi_BLE_SDK/GD32VW55x_RELEASE_V1.0.2/MSDK/cloud/alicloud/src/infra/utils/misc\utils_httpc.c ****     int cp_len;
 1308              		.loc 1 184 5
 185:C:/Users/stapi/OneDrive/Desktop/GD32VW553/V1_MQTT_OK/GD32VW55X_Wifi_BLE_SDK/GD32VW55x_RELEASE_V1.0.2/MSDK/cloud/alicloud/src/infra/utils/misc\utils_httpc.c ****     int idx = *send_idx;
 1309              		.loc 1 185 5
 186:C:/Users/stapi/OneDrive/Desktop/GD32VW553/V1_MQTT_OK/GD32VW55X_Wifi_BLE_SDK/GD32VW55x_RELEASE_V1.0.2/MSDK/cloud/alicloud/src/infra/utils/misc\utils_httpc.c **** 
 1310              		.loc 1 186 5
 186:C:/Users/stapi/OneDrive/Desktop/GD32VW553/V1_MQTT_OK/GD32VW55X_Wifi_BLE_SDK/GD32VW55x_RELEASE_V1.0.2/MSDK/cloud/alicloud/src/infra/utils/misc\utils_httpc.c **** 
 1311              		.loc 1 186 9 is_stmt 0
 1312 0008 0442     		lw	s1,0(a2)
 1313              	.LVL145:
 188:C:/Users/stapi/OneDrive/Desktop/GD32VW553/V1_MQTT_OK/GD32VW55X_Wifi_BLE_SDK/GD32VW55x_RELEASE_V1.0.2/MSDK/cloud/alicloud/src/infra/utils/misc\utils_httpc.c ****         len = strlen(buf);
 1314              		.loc 1 188 5 is_stmt 1
 183:C:/Users/stapi/OneDrive/Desktop/GD32VW553/V1_MQTT_OK/GD32VW55X_Wifi_BLE_SDK/GD32VW55x_RELEASE_V1.0.2/MSDK/cloud/alicloud/src/infra/utils/misc\utils_httpc.c ****     int ret;
 1315              		.loc 1 183 1 is_stmt 0
 1316 000a AA8A     		mv	s5,a0
 1317 000c 2E8A     		mv	s4,a1
 1318 000e B289     		mv	s3,a2
 1319 0010 368B     		mv	s6,a3
 1320 0012 3A84     		mv	s0,a4
 188:C:/Users/stapi/OneDrive/Desktop/GD32VW553/V1_MQTT_OK/GD32VW55X_Wifi_BLE_SDK/GD32VW55x_RELEASE_V1.0.2/MSDK/cloud/alicloud/src/infra/utils/misc\utils_httpc.c ****         len = strlen(buf);
 1321              		.loc 1 188 8
 1322 0014 19E7     		bne	a4,zero,.L72
 189:C:/Users/stapi/OneDrive/Desktop/GD32VW553/V1_MQTT_OK/GD32VW55X_Wifi_BLE_SDK/GD32VW55x_RELEASE_V1.0.2/MSDK/cloud/alicloud/src/infra/utils/misc\utils_httpc.c ****     }
 1323              		.loc 1 189 9 is_stmt 1
 189:C:/Users/stapi/OneDrive/Desktop/GD32VW553/V1_MQTT_OK/GD32VW55X_Wifi_BLE_SDK/GD32VW55x_RELEASE_V1.0.2/MSDK/cloud/alicloud/src/infra/utils/misc\utils_httpc.c ****     }
 1324              		.loc 1 189 15 is_stmt 0
 1325 0016 3685     		mv	a0,a3
 1326              	.LVL146:
 1327 0018 97000000 		call	strlen
 1327      E7800000 
 1328              	.LVL147:
 1329 0020 2A84     		mv	s0,a0
 1330              	.LVL148:
 1331              	.L72:
 210:C:/Users/stapi/OneDrive/Desktop/GD32VW553/V1_MQTT_OK/GD32VW55X_Wifi_BLE_SDK/GD32VW55x_RELEASE_V1.0.2/MSDK/cloud/alicloud/src/infra/utils/misc\utils_httpc.c ****             if (ret) {
 1332              		.loc 1 210 19
 1333 0022 856B     		li	s7,4096
 193:C:/Users/stapi/OneDrive/Desktop/GD32VW553/V1_MQTT_OK/GD32VW55X_Wifi_BLE_SDK/GD32VW55x_RELEASE_V1.0.2/MSDK/cloud/alicloud/src/infra/utils/misc\utils_httpc.c ****             cp_len = len;
 1334              		.loc 1 193 39
 1335 0024 130C0040 		li	s8,1024
 210:C:/Users/stapi/OneDrive/Desktop/GD32VW553/V1_MQTT_OK/GD32VW55X_Wifi_BLE_SDK/GD32VW55x_RELEASE_V1.0.2/MSDK/cloud/alicloud/src/infra/utils/misc\utils_httpc.c ****             if (ret) {
 1336              		.loc 1 210 37
 1337 0028 938C4A00 		addi	s9,s5,4
 210:C:/Users/stapi/OneDrive/Desktop/GD32VW553/V1_MQTT_OK/GD32VW55X_Wifi_BLE_SDK/GD32VW55x_RELEASE_V1.0.2/MSDK/cloud/alicloud/src/infra/utils/misc\utils_httpc.c ****             if (ret) {
 1338              		.loc 1 210 19
 1339 002c 938B8B38 		addi	s7,s7,904
 1340              	.LVL149:
 1341              	.L75:
 192:C:/Users/stapi/OneDrive/Desktop/GD32VW553/V1_MQTT_OK/GD32VW55X_Wifi_BLE_SDK/GD32VW55x_RELEASE_V1.0.2/MSDK/cloud/alicloud/src/infra/utils/misc\utils_httpc.c ****         if ((HTTPCLIENT_SEND_BUF_SIZE - idx) >= len) {
 1342              		.loc 1 192 5 is_stmt 1
 193:C:/Users/stapi/OneDrive/Desktop/GD32VW553/V1_MQTT_OK/GD32VW55X_Wifi_BLE_SDK/GD32VW55x_RELEASE_V1.0.2/MSDK/cloud/alicloud/src/infra/utils/misc\utils_httpc.c ****             cp_len = len;
 1343              		.loc 1 193 9
 193:C:/Users/stapi/OneDrive/Desktop/GD32VW553/V1_MQTT_OK/GD32VW55X_Wifi_BLE_SDK/GD32VW55x_RELEASE_V1.0.2/MSDK/cloud/alicloud/src/infra/utils/misc\utils_httpc.c ****             cp_len = len;
 1344              		.loc 1 193 39 is_stmt 0
 1345 0030 33099C40 		sub	s2,s8,s1
 194:C:/Users/stapi/OneDrive/Desktop/GD32VW553/V1_MQTT_OK/GD32VW55X_Wifi_BLE_SDK/GD32VW55x_RELEASE_V1.0.2/MSDK/cloud/alicloud/src/infra/utils/misc\utils_httpc.c ****         } else {
 1346              		.loc 1 194 20
 1347 0034 3359890A 		minu	s2,s2,s0
 1348              	.LVL150:
 199:C:/Users/stapi/OneDrive/Desktop/GD32VW553/V1_MQTT_OK/GD32VW55X_Wifi_BLE_SDK/GD32VW55x_RELEASE_V1.0.2/MSDK/cloud/alicloud/src/infra/utils/misc\utils_httpc.c ****         idx += cp_len;
 1349              		.loc 1 199 9 is_stmt 1
 1350 0038 33059A00 		add	a0,s4,s1
 1351 003c 4A86     		mv	a2,s2
 1352 003e DA85     		mv	a1,s6
 200:C:/Users/stapi/OneDrive/Desktop/GD32VW553/V1_MQTT_OK/GD32VW55X_Wifi_BLE_SDK/GD32VW55x_RELEASE_V1.0.2/MSDK/cloud/alicloud/src/infra/utils/misc\utils_httpc.c ****         len -= cp_len;
 1353              		.loc 1 200 13 is_stmt 0
 1354 0040 CA94     		add	s1,s1,s2
 1355              	.LVL151:
 199:C:/Users/stapi/OneDrive/Desktop/GD32VW553/V1_MQTT_OK/GD32VW55X_Wifi_BLE_SDK/GD32VW55x_RELEASE_V1.0.2/MSDK/cloud/alicloud/src/infra/utils/misc\utils_httpc.c ****         idx += cp_len;
 1356              		.loc 1 199 9
 1357 0042 97000000 		call	memcpy
 1357      E7800000 
 1358              	.LVL152:
 200:C:/Users/stapi/OneDrive/Desktop/GD32VW553/V1_MQTT_OK/GD32VW55X_Wifi_BLE_SDK/GD32VW55x_RELEASE_V1.0.2/MSDK/cloud/alicloud/src/infra/utils/misc\utils_httpc.c ****         len -= cp_len;
 1359              		.loc 1 200 9 is_stmt 1
 201:C:/Users/stapi/OneDrive/Desktop/GD32VW553/V1_MQTT_OK/GD32VW55X_Wifi_BLE_SDK/GD32VW55x_RELEASE_V1.0.2/MSDK/cloud/alicloud/src/infra/utils/misc\utils_httpc.c **** 
 1360              		.loc 1 201 9
 201:C:/Users/stapi/OneDrive/Desktop/GD32VW553/V1_MQTT_OK/GD32VW55X_Wifi_BLE_SDK/GD32VW55x_RELEASE_V1.0.2/MSDK/cloud/alicloud/src/infra/utils/misc\utils_httpc.c **** 
 1361              		.loc 1 201 13 is_stmt 0
 1362 004a 33042441 		sub	s0,s0,s2
 1363              	.LVL153:
 203:C:/Users/stapi/OneDrive/Desktop/GD32VW553/V1_MQTT_OK/GD32VW55X_Wifi_BLE_SDK/GD32VW55x_RELEASE_V1.0.2/MSDK/cloud/alicloud/src/infra/utils/misc\utils_httpc.c ****             /*            if (client->remote_port == HTTPS_PORT) */
 1364              		.loc 1 203 9 is_stmt 1
 203:C:/Users/stapi/OneDrive/Desktop/GD32VW553/V1_MQTT_OK/GD32VW55X_Wifi_BLE_SDK/GD32VW55x_RELEASE_V1.0.2/MSDK/cloud/alicloud/src/infra/utils/misc\utils_httpc.c ****             /*            if (client->remote_port == HTTPS_PORT) */
 1365              		.loc 1 203 12 is_stmt 0
 1366 004e 63878401 		beq	s1,s8,.L74
 1367              	.LVL154:
 1368              	.L78:
 215:C:/Users/stapi/OneDrive/Desktop/GD32VW553/V1_MQTT_OK/GD32VW55X_Wifi_BLE_SDK/GD32VW55x_RELEASE_V1.0.2/MSDK/cloud/alicloud/src/infra/utils/misc\utils_httpc.c **** 
 1369              		.loc 1 215 13 is_stmt 1
 215:C:/Users/stapi/OneDrive/Desktop/GD32VW553/V1_MQTT_OK/GD32VW55X_Wifi_BLE_SDK/GD32VW55x_RELEASE_V1.0.2/MSDK/cloud/alicloud/src/infra/utils/misc\utils_httpc.c **** 
 1370              		.loc 1 215 5 is_stmt 0
 1371 0052 79FC     		bne	s0,zero,.L75
 217:C:/Users/stapi/OneDrive/Desktop/GD32VW553/V1_MQTT_OK/GD32VW55X_Wifi_BLE_SDK/GD32VW55x_RELEASE_V1.0.2/MSDK/cloud/alicloud/src/infra/utils/misc\utils_httpc.c ****     return SUCCESS_RETURN;
 1372              		.loc 1 217 5 is_stmt 1
 217:C:/Users/stapi/OneDrive/Desktop/GD32VW553/V1_MQTT_OK/GD32VW55X_Wifi_BLE_SDK/GD32VW55x_RELEASE_V1.0.2/MSDK/cloud/alicloud/src/infra/utils/misc\utils_httpc.c ****     return SUCCESS_RETURN;
 1373              		.loc 1 217 15 is_stmt 0
 1374 0054 23A09900 		sw	s1,0(s3)
 218:C:/Users/stapi/OneDrive/Desktop/GD32VW553/V1_MQTT_OK/GD32VW55X_Wifi_BLE_SDK/GD32VW55x_RELEASE_V1.0.2/MSDK/cloud/alicloud/src/infra/utils/misc\utils_httpc.c **** }
 1375              		.loc 1 218 5 is_stmt 1
 218:C:/Users/stapi/OneDrive/Desktop/GD32VW553/V1_MQTT_OK/GD32VW55X_Wifi_BLE_SDK/GD32VW55x_RELEASE_V1.0.2/MSDK/cloud/alicloud/src/infra/utils/misc\utils_httpc.c **** }
 1376              		.loc 1 218 12 is_stmt 0
 1377 0058 0145     		li	a0,0
 1378 005a 11A8     		j	.L71
 1379              	.LVL155:
 1380              	.L74:
 210:C:/Users/stapi/OneDrive/Desktop/GD32VW553/V1_MQTT_OK/GD32VW55X_Wifi_BLE_SDK/GD32VW55x_RELEASE_V1.0.2/MSDK/cloud/alicloud/src/infra/utils/misc\utils_httpc.c ****             if (ret) {
 1381              		.loc 1 210 13 is_stmt 1
 210:C:/Users/stapi/OneDrive/Desktop/GD32VW553/V1_MQTT_OK/GD32VW55X_Wifi_BLE_SDK/GD32VW55x_RELEASE_V1.0.2/MSDK/cloud/alicloud/src/infra/utils/misc\utils_httpc.c ****             if (ret) {
 1382              		.loc 1 210 19 is_stmt 0
 1383 005c 83A78A01 		lw	a5,24(s5)
 1384 0060 DE86     		mv	a3,s7
 1385 0062 13060040 		li	a2,1024
 1386 0066 D285     		mv	a1,s4
 1387 0068 6685     		mv	a0,s9
 1388 006a 8297     		jalr	a5
 1389              	.LVL156:
 211:C:/Users/stapi/OneDrive/Desktop/GD32VW553/V1_MQTT_OK/GD32VW55X_Wifi_BLE_SDK/GD32VW55x_RELEASE_V1.0.2/MSDK/cloud/alicloud/src/infra/utils/misc\utils_httpc.c ****                 return (ret);
 1390              		.loc 1 211 13 is_stmt 1
 211:C:/Users/stapi/OneDrive/Desktop/GD32VW553/V1_MQTT_OK/GD32VW55X_Wifi_BLE_SDK/GD32VW55x_RELEASE_V1.0.2/MSDK/cloud/alicloud/src/infra/utils/misc\utils_httpc.c ****                 return (ret);
 1391              		.loc 1 211 16 is_stmt 0
 1392 006c 7DD1     		beq	a0,zero,.L78
 1393              	.LVL157:
 1394              	.L71:
 219:C:/Users/stapi/OneDrive/Desktop/GD32VW553/V1_MQTT_OK/GD32VW55X_Wifi_BLE_SDK/GD32VW55x_RELEASE_V1.0.2/MSDK/cloud/alicloud/src/infra/utils/misc\utils_httpc.c **** 
 1395              		.loc 1 219 1
 1396 006e 17030000 		tail	__riscv_restore_10
 1396      67000300 
 1397              		.cfi_restore 25
 1398              		.cfi_restore 24
 1399              		.cfi_restore 23
 1400              		.cfi_restore 22
 1401              		.cfi_restore 21
 1402              		.cfi_restore 20
 1403              		.cfi_restore 19
 1404              		.cfi_restore 18
 1405              		.cfi_restore 9
 1406              		.cfi_restore 8
 1407              		.cfi_restore 1
 1408              		.cfi_def_cfa_offset 0
 1409              		.cfi_endproc
 1410              	.LFE24:
 1412              		.section	.rodata.httpclient_send_auth.str1.4,"aMS",@progbits,1
 1413              		.align	2
 1414              	.LC23:
 1415 0000 41757468 		.string	"Authorization: Basic "
 1415      6F72697A 
 1415      6174696F 
 1415      6E3A2042 
 1415      61736963 
 1416 0016 0000     		.align	2
 1417              	.LC24:
 1418 0018 25733A25 		.string	"%s:%s"
 1418      7300
 1419 001e 0000     		.align	2
 1420              	.LC25:
 1421 0020 62417574 		.string	"bAuth: %s"
 1421      683A2025 
 1421      7300
 1422 002a 0000     		.align	2
 1423              	.LC27:
 1424 002c 625F6175 		.string	"b_auth: %s"
 1424      74683A20 
 1424      257300
 1425 0037 00       		.align	2
 1426              	.LC26:
 1427 0038 41424344 		.string	"ABCDEFGHIJKLMNOPQRSTUVWXYZabcdefghijklmnopqrstuvwxyz0123456789+/="
 1427      45464748 
 1427      494A4B4C 
 1427      4D4E4F50 
 1427      51525354 
 1428              		.section	.text.httpclient_send_auth,"ax",@progbits
 1429              		.align	1
 1430              		.globl	httpclient_send_auth
 1432              	httpclient_send_auth:
 1433              	.LFB25:
 222:C:/Users/stapi/OneDrive/Desktop/GD32VW553/V1_MQTT_OK/GD32VW55X_Wifi_BLE_SDK/GD32VW55x_RELEASE_V1.0.2/MSDK/cloud/alicloud/src/infra/utils/misc\utils_httpc.c ****     char b_auth[(int)((HTTPCLIENT_AUTHB_SIZE + 3) * 4 / 3 + 1)];
 1434              		.loc 1 222 1 is_stmt 1
 1435              		.cfi_startproc
 1436              	.LVL158:
 1437 0000 17030000 		call	t0,__riscv_save_5
 1437      E7020300 
 1438              		.cfi_offset 20, -24
 1439              		.cfi_offset 19, -20
 1440              		.cfi_offset 18, -16
 1441              		.cfi_offset 9, -12
 1442              		.cfi_offset 8, -8
 1443              		.cfi_offset 1, -4
 1444              		.cfi_def_cfa_offset 32
 223:C:/Users/stapi/OneDrive/Desktop/GD32VW553/V1_MQTT_OK/GD32VW55X_Wifi_BLE_SDK/GD32VW55x_RELEASE_V1.0.2/MSDK/cloud/alicloud/src/infra/utils/misc\utils_httpc.c ****     char base64buff[HTTPCLIENT_AUTHB_SIZE + 3];
 1445              		.loc 1 223 5
 224:C:/Users/stapi/OneDrive/Desktop/GD32VW553/V1_MQTT_OK/GD32VW55X_Wifi_BLE_SDK/GD32VW55x_RELEASE_V1.0.2/MSDK/cloud/alicloud/src/infra/utils/misc\utils_httpc.c **** 
 1446              		.loc 1 224 5
 226:C:/Users/stapi/OneDrive/Desktop/GD32VW553/V1_MQTT_OK/GD32VW55X_Wifi_BLE_SDK/GD32VW55x_RELEASE_V1.0.2/MSDK/cloud/alicloud/src/infra/utils/misc\utils_httpc.c ****     sprintf(base64buff, "%s:%s", client->auth_user, client->auth_password);
 1447              		.loc 1 226 5
 1448 0008 B7060000 		lui	a3,%hi(.LC23)
 222:C:/Users/stapi/OneDrive/Desktop/GD32VW553/V1_MQTT_OK/GD32VW55X_Wifi_BLE_SDK/GD32VW55x_RELEASE_V1.0.2/MSDK/cloud/alicloud/src/infra/utils/misc\utils_httpc.c ****     char b_auth[(int)((HTTPCLIENT_AUTHB_SIZE + 3) * 4 / 3 + 1)];
 1449              		.loc 1 222 1 is_stmt 0
 1450 000c 0971     		addi	sp,sp,-384
 1451              		.cfi_def_cfa_offset 416
 226:C:/Users/stapi/OneDrive/Desktop/GD32VW553/V1_MQTT_OK/GD32VW55X_Wifi_BLE_SDK/GD32VW55x_RELEASE_V1.0.2/MSDK/cloud/alicloud/src/infra/utils/misc\utils_httpc.c ****     sprintf(base64buff, "%s:%s", client->auth_user, client->auth_password);
 1452              		.loc 1 226 5
 1453 000e 0147     		li	a4,0
 1454 0010 93860600 		addi	a3,a3,%lo(.LC23)
 222:C:/Users/stapi/OneDrive/Desktop/GD32VW553/V1_MQTT_OK/GD32VW55X_Wifi_BLE_SDK/GD32VW55x_RELEASE_V1.0.2/MSDK/cloud/alicloud/src/infra/utils/misc\utils_httpc.c ****     char b_auth[(int)((HTTPCLIENT_AUTHB_SIZE + 3) * 4 / 3 + 1)];
 1455              		.loc 1 222 1
 1456 0014 2A84     		mv	s0,a0
 1457 0016 AE84     		mv	s1,a1
 1458 0018 3289     		mv	s2,a2
 226:C:/Users/stapi/OneDrive/Desktop/GD32VW553/V1_MQTT_OK/GD32VW55X_Wifi_BLE_SDK/GD32VW55x_RELEASE_V1.0.2/MSDK/cloud/alicloud/src/infra/utils/misc\utils_httpc.c ****     sprintf(base64buff, "%s:%s", client->auth_user, client->auth_password);
 1459              		.loc 1 226 5
 1460 001a 97000000 		call	httpclient_get_info
 1460      E7800000 
 1461              	.LVL159:
 227:C:/Users/stapi/OneDrive/Desktop/GD32VW553/V1_MQTT_OK/GD32VW55X_Wifi_BLE_SDK/GD32VW55x_RELEASE_V1.0.2/MSDK/cloud/alicloud/src/infra/utils/misc\utils_httpc.c ****     utils_debug("bAuth: %s", base64buff) ;
 1462              		.loc 1 227 5 is_stmt 1
 1463 0022 1458     		lw	a3,48(s0)
 1464 0024 5054     		lw	a2,44(s0)
 1465 0026 B7050000 		lui	a1,%hi(.LC24)
 1466 002a 93850500 		addi	a1,a1,%lo(.LC24)
 1467 002e E800     		addi	a0,sp,76
 1468 0030 97000000 		call	sprintf
 1468      E7800000 
 1469              	.LVL160:
 228:C:/Users/stapi/OneDrive/Desktop/GD32VW553/V1_MQTT_OK/GD32VW55X_Wifi_BLE_SDK/GD32VW55x_RELEASE_V1.0.2/MSDK/cloud/alicloud/src/infra/utils/misc\utils_httpc.c ****     httpclient_base64enc(b_auth, base64buff);
 1470              		.loc 1 228 5
 1471 0038 370A0000 		lui	s4,%hi(.LANCHOR2)
 1472 003c 37070000 		lui	a4,%hi(.LC25)
 1473 0040 B7090000 		lui	s3,%hi(.LC1)
 1474 0044 FC00     		addi	a5,sp,76
 1475 0046 13070700 		addi	a4,a4,%lo(.LC25)
 1476 004a 9546     		li	a3,5
 1477 004c 1306400E 		li	a2,228
 1478 0050 93050A00 		addi	a1,s4,%lo(.LANCHOR2)
 1479 0054 13850900 		addi	a0,s3,%lo(.LC1)
 1480 0058 97000000 		call	LITE_syslog
 1480      E7800000 
 1481              	.LVL161:
 229:C:/Users/stapi/OneDrive/Desktop/GD32VW553/V1_MQTT_OK/GD32VW55X_Wifi_BLE_SDK/GD32VW55x_RELEASE_V1.0.2/MSDK/cloud/alicloud/src/infra/utils/misc\utils_httpc.c ****     b_auth[strlen(b_auth) + 1] = '\0';
 1482              		.loc 1 229 5
 1483              	.LBB26:
 1484              	.LBB27:
  54:C:/Users/stapi/OneDrive/Desktop/GD32VW553/V1_MQTT_OK/GD32VW55X_Wifi_BLE_SDK/GD32VW55x_RELEASE_V1.0.2/MSDK/cloud/alicloud/src/infra/utils/misc\utils_httpc.c ****     int i = 0, x = 0, l = 0;
 1485              		.loc 1 54 5
  54:C:/Users/stapi/OneDrive/Desktop/GD32VW553/V1_MQTT_OK/GD32VW55X_Wifi_BLE_SDK/GD32VW55x_RELEASE_V1.0.2/MSDK/cloud/alicloud/src/infra/utils/misc\utils_httpc.c ****     int i = 0, x = 0, l = 0;
 1486              		.loc 1 54 16 is_stmt 0
 1487 0060 B7050000 		lui	a1,%hi(.LC26)
 1488 0064 93850500 		addi	a1,a1,%lo(.LC26)
 1489 0068 13062004 		li	a2,66
 1490 006c 2800     		addi	a0,sp,8
 1491 006e 97000000 		call	memcpy
 1491      E7800000 
 1492              	.LVL162:
  55:C:/Users/stapi/OneDrive/Desktop/GD32VW553/V1_MQTT_OK/GD32VW55X_Wifi_BLE_SDK/GD32VW55x_RELEASE_V1.0.2/MSDK/cloud/alicloud/src/infra/utils/misc\utils_httpc.c **** 
 1493              		.loc 1 55 5 is_stmt 1
  57:C:/Users/stapi/OneDrive/Desktop/GD32VW553/V1_MQTT_OK/GD32VW55X_Wifi_BLE_SDK/GD32VW55x_RELEASE_V1.0.2/MSDK/cloud/alicloud/src/infra/utils/misc\utils_httpc.c ****         x = x << 8 | *in;
 1494              		.loc 1 57 5
  55:C:/Users/stapi/OneDrive/Desktop/GD32VW553/V1_MQTT_OK/GD32VW55X_Wifi_BLE_SDK/GD32VW55x_RELEASE_V1.0.2/MSDK/cloud/alicloud/src/infra/utils/misc\utils_httpc.c **** 
 1495              		.loc 1 55 23 is_stmt 0
 1496 0076 8146     		li	a3,0
  55:C:/Users/stapi/OneDrive/Desktop/GD32VW553/V1_MQTT_OK/GD32VW55X_Wifi_BLE_SDK/GD32VW55x_RELEASE_V1.0.2/MSDK/cloud/alicloud/src/infra/utils/misc\utils_httpc.c **** 
 1497              		.loc 1 55 16
 1498 0078 8147     		li	a5,0
  55:C:/Users/stapi/OneDrive/Desktop/GD32VW553/V1_MQTT_OK/GD32VW55X_Wifi_BLE_SDK/GD32VW55x_RELEASE_V1.0.2/MSDK/cloud/alicloud/src/infra/utils/misc\utils_httpc.c **** 
 1499              		.loc 1 55 9
 1500 007a 0147     		li	a4,0
  57:C:/Users/stapi/OneDrive/Desktop/GD32VW553/V1_MQTT_OK/GD32VW55X_Wifi_BLE_SDK/GD32VW55x_RELEASE_V1.0.2/MSDK/cloud/alicloud/src/infra/utils/misc\utils_httpc.c ****         x = x << 8 | *in;
 1501              		.loc 1 57 5
 1502 007c 1308C104 		addi	a6,sp,76
 1503              	.LVL163:
  59:C:/Users/stapi/OneDrive/Desktop/GD32VW553/V1_MQTT_OK/GD32VW55X_Wifi_BLE_SDK/GD32VW55x_RELEASE_V1.0.2/MSDK/cloud/alicloud/src/infra/utils/misc\utils_httpc.c ****             out[i++] = code[(x >> (l - 6)) & 0x3f];
 1504              		.loc 1 59 9
 1505 0080 9545     		li	a1,5
 1506              	.LVL164:
 1507              	.L84:
  57:C:/Users/stapi/OneDrive/Desktop/GD32VW553/V1_MQTT_OK/GD32VW55X_Wifi_BLE_SDK/GD32VW55x_RELEASE_V1.0.2/MSDK/cloud/alicloud/src/infra/utils/misc\utils_httpc.c ****         x = x << 8 | *in;
 1508              		.loc 1 57 12 is_stmt 1
 1509 0082 03060800 		lb	a2,0(a6)
  57:C:/Users/stapi/OneDrive/Desktop/GD32VW553/V1_MQTT_OK/GD32VW55X_Wifi_BLE_SDK/GD32VW55x_RELEASE_V1.0.2/MSDK/cloud/alicloud/src/infra/utils/misc\utils_httpc.c ****         x = x << 8 | *in;
 1510              		.loc 1 57 5 is_stmt 0
 1511 0086 59EE     		bne	a2,zero,.L87
  63:C:/Users/stapi/OneDrive/Desktop/GD32VW553/V1_MQTT_OK/GD32VW55X_Wifi_BLE_SDK/GD32VW55x_RELEASE_V1.0.2/MSDK/cloud/alicloud/src/infra/utils/misc\utils_httpc.c ****         x <<= 6 - l;
 1512              		.loc 1 63 5 is_stmt 1
  63:C:/Users/stapi/OneDrive/Desktop/GD32VW553/V1_MQTT_OK/GD32VW55X_Wifi_BLE_SDK/GD32VW55x_RELEASE_V1.0.2/MSDK/cloud/alicloud/src/infra/utils/misc\utils_httpc.c ****         x <<= 6 - l;
 1513              		.loc 1 63 8 is_stmt 0
 1514 0088 6353D002 		ble	a3,zero,.L88
  64:C:/Users/stapi/OneDrive/Desktop/GD32VW553/V1_MQTT_OK/GD32VW55X_Wifi_BLE_SDK/GD32VW55x_RELEASE_V1.0.2/MSDK/cloud/alicloud/src/infra/utils/misc\utils_httpc.c ****         out[i++] = code[x & 0x3f];
 1515              		.loc 1 64 9 is_stmt 1
 1516              	.LVL165:
  65:C:/Users/stapi/OneDrive/Desktop/GD32VW553/V1_MQTT_OK/GD32VW55X_Wifi_BLE_SDK/GD32VW55x_RELEASE_V1.0.2/MSDK/cloud/alicloud/src/infra/utils/misc\utils_httpc.c ****     }
 1517              		.loc 1 65 9
  65:C:/Users/stapi/OneDrive/Desktop/GD32VW553/V1_MQTT_OK/GD32VW55X_Wifi_BLE_SDK/GD32VW55x_RELEASE_V1.0.2/MSDK/cloud/alicloud/src/infra/utils/misc\utils_httpc.c ****     }
 1518              		.loc 1 65 18 is_stmt 0
 1519 008c 1003     		addi	a2,sp,384
 1520              	.LVL166:
 1521 008e B305E600 		add	a1,a2,a4
  64:C:/Users/stapi/OneDrive/Desktop/GD32VW553/V1_MQTT_OK/GD32VW55X_Wifi_BLE_SDK/GD32VW55x_RELEASE_V1.0.2/MSDK/cloud/alicloud/src/infra/utils/misc\utils_httpc.c ****         out[i++] = code[x & 0x3f];
 1522              		.loc 1 64 17
 1523 0092 1946     		li	a2,6
 1524              	.LVL167:
 1525 0094 B306D640 		sub	a3,a2,a3
 1526              	.LVL168:
  64:C:/Users/stapi/OneDrive/Desktop/GD32VW553/V1_MQTT_OK/GD32VW55X_Wifi_BLE_SDK/GD32VW55x_RELEASE_V1.0.2/MSDK/cloud/alicloud/src/infra/utils/misc\utils_httpc.c ****         out[i++] = code[x & 0x3f];
 1527              		.loc 1 64 11
 1528 0098 B397D700 		sll	a5,a5,a3
  65:C:/Users/stapi/OneDrive/Desktop/GD32VW553/V1_MQTT_OK/GD32VW55X_Wifi_BLE_SDK/GD32VW55x_RELEASE_V1.0.2/MSDK/cloud/alicloud/src/infra/utils/misc\utils_httpc.c ****     }
 1529              		.loc 1 65 27
 1530 009c 93F7F703 		andi	a5,a5,63
  65:C:/Users/stapi/OneDrive/Desktop/GD32VW553/V1_MQTT_OK/GD32VW55X_Wifi_BLE_SDK/GD32VW55x_RELEASE_V1.0.2/MSDK/cloud/alicloud/src/infra/utils/misc\utils_httpc.c ****     }
 1531              		.loc 1 65 24
 1532 00a0 1403     		addi	a3,sp,384
 1533              	.LVL169:
 1534 00a2 B697     		add	a5,a3,a5
  65:C:/Users/stapi/OneDrive/Desktop/GD32VW553/V1_MQTT_OK/GD32VW55X_Wifi_BLE_SDK/GD32VW55x_RELEASE_V1.0.2/MSDK/cloud/alicloud/src/infra/utils/misc\utils_httpc.c ****     }
 1535              		.loc 1 65 18
 1536 00a4 83C787E8 		lbu	a5,-376(a5)
  65:C:/Users/stapi/OneDrive/Desktop/GD32VW553/V1_MQTT_OK/GD32VW55X_Wifi_BLE_SDK/GD32VW55x_RELEASE_V1.0.2/MSDK/cloud/alicloud/src/infra/utils/misc\utils_httpc.c ****     }
 1537              		.loc 1 65 14
 1538 00a8 0507     		addi	a4,a4,1
 1539              	.LVL170:
  65:C:/Users/stapi/OneDrive/Desktop/GD32VW553/V1_MQTT_OK/GD32VW55X_Wifi_BLE_SDK/GD32VW55x_RELEASE_V1.0.2/MSDK/cloud/alicloud/src/infra/utils/misc\utils_httpc.c ****     }
 1540              		.loc 1 65 18
 1541 00aa 2388F5F4 		sb	a5,-176(a1)
 1542              	.LVL171:
 1543              	.L88:
 1544 00ae 9C09     		addi	a5,sp,208
 1545              	.LVL172:
 1546 00b0 BA97     		add	a5,a5,a4
 1547              	.LVL173:
  68:C:/Users/stapi/OneDrive/Desktop/GD32VW553/V1_MQTT_OK/GD32VW55X_Wifi_BLE_SDK/GD32VW55x_RELEASE_V1.0.2/MSDK/cloud/alicloud/src/infra/utils/misc\utils_httpc.c ****     }
 1548              		.loc 1 68 18
 1549 00b2 1306D003 		li	a2,61
 1550              	.L89:
  67:C:/Users/stapi/OneDrive/Desktop/GD32VW553/V1_MQTT_OK/GD32VW55X_Wifi_BLE_SDK/GD32VW55x_RELEASE_V1.0.2/MSDK/cloud/alicloud/src/infra/utils/misc\utils_httpc.c ****         out[i++] = '=';
 1551              		.loc 1 67 12 is_stmt 1
 1552 00b6 93763700 		andi	a3,a4,3
  67:C:/Users/stapi/OneDrive/Desktop/GD32VW553/V1_MQTT_OK/GD32VW55X_Wifi_BLE_SDK/GD32VW55x_RELEASE_V1.0.2/MSDK/cloud/alicloud/src/infra/utils/misc\utils_httpc.c ****         out[i++] = '=';
 1553              		.loc 1 67 5 is_stmt 0
 1554 00ba D9EE     		bne	a3,zero,.L90
  70:C:/Users/stapi/OneDrive/Desktop/GD32VW553/V1_MQTT_OK/GD32VW55X_Wifi_BLE_SDK/GD32VW55x_RELEASE_V1.0.2/MSDK/cloud/alicloud/src/infra/utils/misc\utils_httpc.c **** }
 1555              		.loc 1 70 5 is_stmt 1
  70:C:/Users/stapi/OneDrive/Desktop/GD32VW553/V1_MQTT_OK/GD32VW55X_Wifi_BLE_SDK/GD32VW55x_RELEASE_V1.0.2/MSDK/cloud/alicloud/src/infra/utils/misc\utils_httpc.c **** }
 1556              		.loc 1 70 12 is_stmt 0
 1557 00bc 23800700 		sb	zero,0(a5)
 1558              	.LVL174:
 1559              	.LBE27:
 1560              	.LBE26:
 230:C:/Users/stapi/OneDrive/Desktop/GD32VW553/V1_MQTT_OK/GD32VW55X_Wifi_BLE_SDK/GD32VW55x_RELEASE_V1.0.2/MSDK/cloud/alicloud/src/infra/utils/misc\utils_httpc.c ****     b_auth[strlen(b_auth)] = '\n';
 1561              		.loc 1 230 5 is_stmt 1
 230:C:/Users/stapi/OneDrive/Desktop/GD32VW553/V1_MQTT_OK/GD32VW55X_Wifi_BLE_SDK/GD32VW55x_RELEASE_V1.0.2/MSDK/cloud/alicloud/src/infra/utils/misc\utils_httpc.c ****     b_auth[strlen(b_auth)] = '\n';
 1562              		.loc 1 230 12 is_stmt 0
 1563 00c0 8809     		addi	a0,sp,208
 1564 00c2 97000000 		call	strlen
 1564      E7800000 
 1565              	.LVL175:
 230:C:/Users/stapi/OneDrive/Desktop/GD32VW553/V1_MQTT_OK/GD32VW55X_Wifi_BLE_SDK/GD32VW55x_RELEASE_V1.0.2/MSDK/cloud/alicloud/src/infra/utils/misc\utils_httpc.c ****     b_auth[strlen(b_auth)] = '\n';
 1566              		.loc 1 230 32
 1567 00ca 1C03     		addi	a5,sp,384
 1568 00cc 3E95     		add	a0,a5,a0
 1569 00ce A30805F4 		sb	zero,-175(a0)
 231:C:/Users/stapi/OneDrive/Desktop/GD32VW553/V1_MQTT_OK/GD32VW55X_Wifi_BLE_SDK/GD32VW55x_RELEASE_V1.0.2/MSDK/cloud/alicloud/src/infra/utils/misc\utils_httpc.c ****     utils_debug("b_auth: %s", b_auth) ;
 1570              		.loc 1 231 5 is_stmt 1
 231:C:/Users/stapi/OneDrive/Desktop/GD32VW553/V1_MQTT_OK/GD32VW55X_Wifi_BLE_SDK/GD32VW55x_RELEASE_V1.0.2/MSDK/cloud/alicloud/src/infra/utils/misc\utils_httpc.c ****     utils_debug("b_auth: %s", b_auth) ;
 1571              		.loc 1 231 12 is_stmt 0
 1572 00d2 8809     		addi	a0,sp,208
 1573 00d4 97000000 		call	strlen
 1573      E7800000 
 1574              	.LVL176:
 231:C:/Users/stapi/OneDrive/Desktop/GD32VW553/V1_MQTT_OK/GD32VW55X_Wifi_BLE_SDK/GD32VW55x_RELEASE_V1.0.2/MSDK/cloud/alicloud/src/infra/utils/misc\utils_httpc.c ****     utils_debug("b_auth: %s", b_auth) ;
 1575              		.loc 1 231 28
 1576 00dc 1C03     		addi	a5,sp,384
 1577 00de 3E95     		add	a0,a5,a0
 232:C:/Users/stapi/OneDrive/Desktop/GD32VW553/V1_MQTT_OK/GD32VW55X_Wifi_BLE_SDK/GD32VW55x_RELEASE_V1.0.2/MSDK/cloud/alicloud/src/infra/utils/misc\utils_httpc.c ****     httpclient_get_info(client, send_buf, send_idx, b_auth, 0);
 1578              		.loc 1 232 5
 1579 00e0 37070000 		lui	a4,%hi(.LC27)
 231:C:/Users/stapi/OneDrive/Desktop/GD32VW553/V1_MQTT_OK/GD32VW55X_Wifi_BLE_SDK/GD32VW55x_RELEASE_V1.0.2/MSDK/cloud/alicloud/src/infra/utils/misc\utils_httpc.c ****     utils_debug("b_auth: %s", b_auth) ;
 1580              		.loc 1 231 28
 1581 00e4 A947     		li	a5,10
 1582 00e6 2308F5F4 		sb	a5,-176(a0)
 232:C:/Users/stapi/OneDrive/Desktop/GD32VW553/V1_MQTT_OK/GD32VW55X_Wifi_BLE_SDK/GD32VW55x_RELEASE_V1.0.2/MSDK/cloud/alicloud/src/infra/utils/misc\utils_httpc.c ****     httpclient_get_info(client, send_buf, send_idx, b_auth, 0);
 1583              		.loc 1 232 5 is_stmt 1
 1584 00ea 93050A00 		addi	a1,s4,%lo(.LANCHOR2)
 1585 00ee 9C09     		addi	a5,sp,208
 1586 00f0 13850900 		addi	a0,s3,%lo(.LC1)
 1587 00f4 13070700 		addi	a4,a4,%lo(.LC27)
 1588 00f8 9546     		li	a3,5
 1589 00fa 1306800E 		li	a2,232
 1590 00fe 97000000 		call	LITE_syslog
 1590      E7800000 
 1591              	.LVL177:
 233:C:/Users/stapi/OneDrive/Desktop/GD32VW553/V1_MQTT_OK/GD32VW55X_Wifi_BLE_SDK/GD32VW55x_RELEASE_V1.0.2/MSDK/cloud/alicloud/src/infra/utils/misc\utils_httpc.c ****     return SUCCESS_RETURN;
 1592              		.loc 1 233 5
 1593 0106 9409     		addi	a3,sp,208
 1594 0108 0147     		li	a4,0
 1595 010a 4A86     		mv	a2,s2
 1596 010c A685     		mv	a1,s1
 1597 010e 2285     		mv	a0,s0
 1598 0110 97000000 		call	httpclient_get_info
 1598      E7800000 
 1599              	.LVL178:
 234:C:/Users/stapi/OneDrive/Desktop/GD32VW553/V1_MQTT_OK/GD32VW55X_Wifi_BLE_SDK/GD32VW55x_RELEASE_V1.0.2/MSDK/cloud/alicloud/src/infra/utils/misc\utils_httpc.c **** }
 1600              		.loc 1 234 5
 235:C:/Users/stapi/OneDrive/Desktop/GD32VW553/V1_MQTT_OK/GD32VW55X_Wifi_BLE_SDK/GD32VW55x_RELEASE_V1.0.2/MSDK/cloud/alicloud/src/infra/utils/misc\utils_httpc.c **** 
 1601              		.loc 1 235 1 is_stmt 0
 1602 0118 0145     		li	a0,0
 1603 011a 1961     		addi	sp,sp,384
 1604              		.cfi_remember_state
 1605              		.cfi_def_cfa_offset 0
 1606 011c 17030000 		tail	__riscv_restore_5
 1606      67000300 
 1607              		.cfi_restore 20
 1608              		.cfi_restore 19
 1609              		.cfi_restore 18
 1610              		.cfi_restore 9
 1611              		.cfi_restore 8
 1612              		.cfi_restore 1
 1613              		.cfi_def_cfa_offset -32
 1614              	.LVL179:
 1615              	.L87:
 1616              		.cfi_restore_state
 1617              	.LBB29:
 1618              	.LBB28:
  58:C:/Users/stapi/OneDrive/Desktop/GD32VW553/V1_MQTT_OK/GD32VW55X_Wifi_BLE_SDK/GD32VW55x_RELEASE_V1.0.2/MSDK/cloud/alicloud/src/infra/utils/misc\utils_httpc.c ****         for (l += 8; l >= 6; l -= 6) {
 1619              		.loc 1 58 9 is_stmt 1
  58:C:/Users/stapi/OneDrive/Desktop/GD32VW553/V1_MQTT_OK/GD32VW55X_Wifi_BLE_SDK/GD32VW55x_RELEASE_V1.0.2/MSDK/cloud/alicloud/src/infra/utils/misc\utils_httpc.c ****         for (l += 8; l >= 6; l -= 6) {
 1620              		.loc 1 58 15 is_stmt 0
 1621 0124 A207     		slli	a5,a5,8
 1622              	.LVL180:
  58:C:/Users/stapi/OneDrive/Desktop/GD32VW553/V1_MQTT_OK/GD32VW55X_Wifi_BLE_SDK/GD32VW55x_RELEASE_V1.0.2/MSDK/cloud/alicloud/src/infra/utils/misc\utils_httpc.c ****         for (l += 8; l >= 6; l -= 6) {
 1623              		.loc 1 58 11
 1624 0126 D18F     		or	a5,a2,a5
 1625              	.LVL181:
  59:C:/Users/stapi/OneDrive/Desktop/GD32VW553/V1_MQTT_OK/GD32VW55X_Wifi_BLE_SDK/GD32VW55x_RELEASE_V1.0.2/MSDK/cloud/alicloud/src/infra/utils/misc\utils_httpc.c ****             out[i++] = code[(x >> (l - 6)) & 0x3f];
 1626              		.loc 1 59 9 is_stmt 1
  59:C:/Users/stapi/OneDrive/Desktop/GD32VW553/V1_MQTT_OK/GD32VW55X_Wifi_BLE_SDK/GD32VW55x_RELEASE_V1.0.2/MSDK/cloud/alicloud/src/infra/utils/misc\utils_httpc.c ****             out[i++] = code[(x >> (l - 6)) & 0x3f];
 1627              		.loc 1 59 16 is_stmt 0
 1628 0128 A106     		addi	a3,a3,8
 1629              	.LVL182:
 1630 012a 3A86     		mv	a2,a4
 1631              	.LVL183:
 1632              	.L85:
 1633 012c 3287     		mv	a4,a2
 1634              	.LVL184:
  59:C:/Users/stapi/OneDrive/Desktop/GD32VW553/V1_MQTT_OK/GD32VW55X_Wifi_BLE_SDK/GD32VW55x_RELEASE_V1.0.2/MSDK/cloud/alicloud/src/infra/utils/misc\utils_httpc.c ****             out[i++] = code[(x >> (l - 6)) & 0x3f];
 1635              		.loc 1 59 22 is_stmt 1
  59:C:/Users/stapi/OneDrive/Desktop/GD32VW553/V1_MQTT_OK/GD32VW55X_Wifi_BLE_SDK/GD32VW55x_RELEASE_V1.0.2/MSDK/cloud/alicloud/src/infra/utils/misc\utils_httpc.c ****             out[i++] = code[(x >> (l - 6)) & 0x3f];
 1636              		.loc 1 59 9 is_stmt 0
 1637 012e 63C4D500 		bgt	a3,a1,.L86
 1638              	.LVL185:
  57:C:/Users/stapi/OneDrive/Desktop/GD32VW553/V1_MQTT_OK/GD32VW55X_Wifi_BLE_SDK/GD32VW55x_RELEASE_V1.0.2/MSDK/cloud/alicloud/src/infra/utils/misc\utils_httpc.c ****         x = x << 8 | *in;
 1639              		.loc 1 57 17 is_stmt 1
  57:C:/Users/stapi/OneDrive/Desktop/GD32VW553/V1_MQTT_OK/GD32VW55X_Wifi_BLE_SDK/GD32VW55x_RELEASE_V1.0.2/MSDK/cloud/alicloud/src/infra/utils/misc\utils_httpc.c ****         x = x << 8 | *in;
 1640              		.loc 1 57 19 is_stmt 0
 1641 0132 0508     		addi	a6,a6,1
 1642              	.LVL186:
 1643 0134 B9B7     		j	.L84
 1644              	.L86:
  60:C:/Users/stapi/OneDrive/Desktop/GD32VW553/V1_MQTT_OK/GD32VW55X_Wifi_BLE_SDK/GD32VW55x_RELEASE_V1.0.2/MSDK/cloud/alicloud/src/infra/utils/misc\utils_httpc.c ****         }
 1645              		.loc 1 60 13 is_stmt 1
  60:C:/Users/stapi/OneDrive/Desktop/GD32VW553/V1_MQTT_OK/GD32VW55X_Wifi_BLE_SDK/GD32VW55x_RELEASE_V1.0.2/MSDK/cloud/alicloud/src/infra/utils/misc\utils_httpc.c ****         }
 1646              		.loc 1 60 22 is_stmt 0
 1647 0136 9809     		addi	a4,sp,208
 1648              	.LVL187:
  60:C:/Users/stapi/OneDrive/Desktop/GD32VW553/V1_MQTT_OK/GD32VW55X_Wifi_BLE_SDK/GD32VW55x_RELEASE_V1.0.2/MSDK/cloud/alicloud/src/infra/utils/misc\utils_httpc.c ****         }
 1649              		.loc 1 60 38
 1650 0138 E916     		addi	a3,a3,-6
 1651              	.LVL188:
  60:C:/Users/stapi/OneDrive/Desktop/GD32VW553/V1_MQTT_OK/GD32VW55X_Wifi_BLE_SDK/GD32VW55x_RELEASE_V1.0.2/MSDK/cloud/alicloud/src/infra/utils/misc\utils_httpc.c ****         }
 1652              		.loc 1 60 22
 1653 013a 3305C700 		add	a0,a4,a2
  60:C:/Users/stapi/OneDrive/Desktop/GD32VW553/V1_MQTT_OK/GD32VW55X_Wifi_BLE_SDK/GD32VW55x_RELEASE_V1.0.2/MSDK/cloud/alicloud/src/infra/utils/misc\utils_httpc.c ****         }
 1654              		.loc 1 60 32
 1655 013e 33D7D740 		sra	a4,a5,a3
 1656              	.LVL189:
  60:C:/Users/stapi/OneDrive/Desktop/GD32VW553/V1_MQTT_OK/GD32VW55X_Wifi_BLE_SDK/GD32VW55x_RELEASE_V1.0.2/MSDK/cloud/alicloud/src/infra/utils/misc\utils_httpc.c ****         }
 1657              		.loc 1 60 44
 1658 0142 1377F703 		andi	a4,a4,63
  60:C:/Users/stapi/OneDrive/Desktop/GD32VW553/V1_MQTT_OK/GD32VW55X_Wifi_BLE_SDK/GD32VW55x_RELEASE_V1.0.2/MSDK/cloud/alicloud/src/infra/utils/misc\utils_httpc.c ****         }
 1659              		.loc 1 60 28
 1660 0146 93080118 		addi	a7,sp,384
 1661              	.LVL190:
 1662 014a 4697     		add	a4,a7,a4
  60:C:/Users/stapi/OneDrive/Desktop/GD32VW553/V1_MQTT_OK/GD32VW55X_Wifi_BLE_SDK/GD32VW55x_RELEASE_V1.0.2/MSDK/cloud/alicloud/src/infra/utils/misc\utils_httpc.c ****         }
 1663              		.loc 1 60 22
 1664 014c 034787E8 		lbu	a4,-376(a4)
 1665 0150 0506     		addi	a2,a2,1
 1666              	.LVL191:
 1667 0152 2300E500 		sb	a4,0(a0)
  59:C:/Users/stapi/OneDrive/Desktop/GD32VW553/V1_MQTT_OK/GD32VW55X_Wifi_BLE_SDK/GD32VW55x_RELEASE_V1.0.2/MSDK/cloud/alicloud/src/infra/utils/misc\utils_httpc.c ****             out[i++] = code[(x >> (l - 6)) & 0x3f];
 1668              		.loc 1 59 30 is_stmt 1
 1669              	.LVL192:
 1670 0156 D9BF     		j	.L85
 1671              	.LVL193:
 1672              	.L90:
  68:C:/Users/stapi/OneDrive/Desktop/GD32VW553/V1_MQTT_OK/GD32VW55X_Wifi_BLE_SDK/GD32VW55x_RELEASE_V1.0.2/MSDK/cloud/alicloud/src/infra/utils/misc\utils_httpc.c ****     }
 1673              		.loc 1 68 9
  68:C:/Users/stapi/OneDrive/Desktop/GD32VW553/V1_MQTT_OK/GD32VW55X_Wifi_BLE_SDK/GD32VW55x_RELEASE_V1.0.2/MSDK/cloud/alicloud/src/infra/utils/misc\utils_httpc.c ****     }
 1674              		.loc 1 68 18 is_stmt 0
 1675 0158 2380C700 		sb	a2,0(a5)
  68:C:/Users/stapi/OneDrive/Desktop/GD32VW553/V1_MQTT_OK/GD32VW55X_Wifi_BLE_SDK/GD32VW55x_RELEASE_V1.0.2/MSDK/cloud/alicloud/src/infra/utils/misc\utils_httpc.c ****     }
 1676              		.loc 1 68 14
 1677 015c 0507     		addi	a4,a4,1
 1678              	.LVL194:
 1679 015e 8507     		addi	a5,a5,1
 1680 0160 99BF     		j	.L89
 1681              	.LBE28:
 1682              	.LBE29:
 1683              		.cfi_endproc
 1684              	.LFE25:
 1686              		.section	.rodata.httpclient_send_header.str1.4,"aMS",@progbits,1
 1687              		.align	2
 1688              	.LC28:
 1689 0000 48454144 		.string	"HEAD"
 1689      00
 1690 0005 000000   		.align	2
 1691              	.LC29:
 1692 0008 50555400 		.string	"PUT"
 1693              		.align	2
 1694              	.LC30:
 1695 000c 47455400 		.string	"GET"
 1696              		.align	2
 1697              	.LC31:
 1698 0010 504F5354 		.string	"POST"
 1698      00
 1699 0015 000000   		.align	2
 1700              	.LC32:
 1701 0018 44454C45 		.string	"DELETE"
 1701      544500
 1702 001f 00       		.align	2
 1703              	.LC33:
 1704 0020 00       		.string	""
 1705 0021 000000   		.align	2
 1706              	.LC34:
 1707 0024 53636865 		.string	"Scheme str is too small (%u >= %u)"
 1707      6D652073 
 1707      74722069 
 1707      7320746F 
 1707      6F20736D 
 1708 0047 00       		.align	2
 1709              	.LC35:
 1710 0048 696E7661 		.string	"invalid path"
 1710      6C696420 
 1710      70617468 
 1710      00
 1711 0055 000000   		.align	2
 1712              	.LC36:
 1713 0058 486F7374 		.string	"Host str is too long (host_len(%d) >= max_len(%d))"
 1713      20737472 
 1713      20697320 
 1713      746F6F20 
 1713      6C6F6E67 
 1714 008b 00       		.align	2
 1715              	.LC37:
 1716 008c 50617468 		.string	"Path str is too small (%d >= %d)"
 1716      20737472 
 1716      20697320 
 1716      746F6F20 
 1716      736D616C 
 1717 00ad 000000   		.align	2
 1718              	.LC38:
 1719 00b0 25732025 		.string	"%s %s HTTP/1.1\r\nHost: %s\r\n"
 1719      73204854 
 1719      54502F31 
 1719      2E310D0A 
 1719      486F7374 
 1720 00cb 00       		.align	2
 1721              	.LC39:
 1722 00cc 68747470 		.string	"httpclient_parse_url fail returned %d"
 1722      636C6965 
 1722      6E745F70 
 1722      61727365 
 1722      5F75726C 
 1723 00f2 0000     		.align	2
 1724              	.LC40:
 1725 00f4 436F756C 		.string	"Could not write request"
 1725      64206E6F 
 1725      74207772 
 1725      69746520 
 1725      72657175 
 1726              		.align	2
 1727              	.LC41:
 1728 010c 436F6E74 		.string	"Content-Length: %d\r\n"
 1728      656E742D 
 1728      4C656E67 
 1728      74683A20 
 1728      25640D0A 
 1729 0121 000000   		.align	2
 1730              	.LC42:
 1731 0124 436F6E74 		.string	"Content-Type: %s\r\n"
 1731      656E742D 
 1731      54797065 
 1731      3A202573 
 1731      0D0A00
 1732 0137 00       		.align	2
 1733              	.LC43:
 1734 0138 3E00     		.string	">"
 1735 013a 0000     		.align	2
 1736              	.LC44:
 1737 013c 52455155 		.string	"REQUEST"
 1737      45535400 
 1738              		.align	2
 1739              	.LC45:
 1740 0144 57726974 		.string	"Written %d bytes"
 1740      74656E20 
 1740      25642062 
 1740      79746573 
 1740      00
 1741 0155 000000   		.align	2
 1742              	.LC46:
 1743 0158 72657420 		.string	"ret == 0,Connection was closed by server"
 1743      3D3D2030 
 1743      2C436F6E 
 1743      6E656374 
 1743      696F6E20 
 1744 0181 000000   		.align	2
 1745              	.LC47:
 1746 0184 436F6E6E 		.string	"Connection error (send returned %d)"
 1746      65637469 
 1746      6F6E2065 
 1746      72726F72 
 1746      20287365 
 1747              		.section	.text.httpclient_send_header,"ax",@progbits
 1748              		.align	1
 1749              		.globl	httpclient_send_header
 1751              	httpclient_send_header:
 1752              	.LFB26:
 238:C:/Users/stapi/OneDrive/Desktop/GD32VW553/V1_MQTT_OK/GD32VW55X_Wifi_BLE_SDK/GD32VW55x_RELEASE_V1.0.2/MSDK/cloud/alicloud/src/infra/utils/misc\utils_httpc.c ****     char scheme[8] = { 0 };
 1753              		.loc 1 238 1 is_stmt 1
 1754              		.cfi_startproc
 1755              	.LVL195:
 1756 0000 17030000 		call	t0,__riscv_save_11
 1756      E7020300 
 1757              		.cfi_offset 26, -48
 1758              		.cfi_offset 25, -44
 1759              		.cfi_offset 24, -40
 1760              		.cfi_offset 23, -36
 1761              		.cfi_offset 22, -32
 1762              		.cfi_offset 21, -28
 1763              		.cfi_offset 20, -24
 1764              		.cfi_offset 19, -20
 1765              		.cfi_offset 18, -16
 1766              		.cfi_offset 9, -12
 1767              		.cfi_offset 8, -8
 1768              		.cfi_offset 1, -4
 1769              		.cfi_def_cfa_offset 48
 239:C:/Users/stapi/OneDrive/Desktop/GD32VW553/V1_MQTT_OK/GD32VW55X_Wifi_BLE_SDK/GD32VW55x_RELEASE_V1.0.2/MSDK/cloud/alicloud/src/infra/utils/misc\utils_httpc.c ****     int len;
 1770              		.loc 1 239 5
 238:C:/Users/stapi/OneDrive/Desktop/GD32VW553/V1_MQTT_OK/GD32VW55X_Wifi_BLE_SDK/GD32VW55x_RELEASE_V1.0.2/MSDK/cloud/alicloud/src/infra/utils/misc\utils_httpc.c ****     char scheme[8] = { 0 };
 1771              		.loc 1 238 1 is_stmt 0
 1772 0008 0111     		addi	sp,sp,-32
 1773              		.cfi_def_cfa_offset 80
 238:C:/Users/stapi/OneDrive/Desktop/GD32VW553/V1_MQTT_OK/GD32VW55X_Wifi_BLE_SDK/GD32VW55x_RELEASE_V1.0.2/MSDK/cloud/alicloud/src/infra/utils/misc\utils_httpc.c ****     char scheme[8] = { 0 };
 1774              		.loc 1 238 1
 1775 000a 2A8A     		mv	s4,a0
 1776 000c AE8C     		mv	s9,a1
 1777 000e B289     		mv	s3,a2
 248:C:/Users/stapi/OneDrive/Desktop/GD32VW553/V1_MQTT_OK/GD32VW55X_Wifi_BLE_SDK/GD32VW55x_RELEASE_V1.0.2/MSDK/cloud/alicloud/src/infra/utils/misc\utils_httpc.c ****     if (host == NULL) {
 1778              		.loc 1 248 12
 1779 0010 8145     		li	a1,0
 1780              	.LVL196:
 1781 0012 13060008 		li	a2,128
 1782              	.LVL197:
 1783 0016 0145     		li	a0,0
 1784              	.LVL198:
 238:C:/Users/stapi/OneDrive/Desktop/GD32VW553/V1_MQTT_OK/GD32VW55X_Wifi_BLE_SDK/GD32VW55x_RELEASE_V1.0.2/MSDK/cloud/alicloud/src/infra/utils/misc\utils_httpc.c ****     char scheme[8] = { 0 };
 1785              		.loc 1 238 1
 1786 0018 368C     		mv	s8,a3
 239:C:/Users/stapi/OneDrive/Desktop/GD32VW553/V1_MQTT_OK/GD32VW55X_Wifi_BLE_SDK/GD32VW55x_RELEASE_V1.0.2/MSDK/cloud/alicloud/src/infra/utils/misc\utils_httpc.c ****     int len;
 1787              		.loc 1 239 10
 1788 001a 02CC     		sw	zero,24(sp)
 1789 001c 02CE     		sw	zero,28(sp)
 240:C:/Users/stapi/OneDrive/Desktop/GD32VW553/V1_MQTT_OK/GD32VW55X_Wifi_BLE_SDK/GD32VW55x_RELEASE_V1.0.2/MSDK/cloud/alicloud/src/infra/utils/misc\utils_httpc.c ****     int ret = 0;
 1790              		.loc 1 240 5 is_stmt 1
 241:C:/Users/stapi/OneDrive/Desktop/GD32VW553/V1_MQTT_OK/GD32VW55X_Wifi_BLE_SDK/GD32VW55x_RELEASE_V1.0.2/MSDK/cloud/alicloud/src/infra/utils/misc\utils_httpc.c **** 
 1791              		.loc 1 241 5
 1792              	.LVL199:
 243:C:/Users/stapi/OneDrive/Desktop/GD32VW553/V1_MQTT_OK/GD32VW55X_Wifi_BLE_SDK/GD32VW55x_RELEASE_V1.0.2/MSDK/cloud/alicloud/src/infra/utils/misc\utils_httpc.c ****     char *path = NULL;
 1793              		.loc 1 243 5
 244:C:/Users/stapi/OneDrive/Desktop/GD32VW553/V1_MQTT_OK/GD32VW55X_Wifi_BLE_SDK/GD32VW55x_RELEASE_V1.0.2/MSDK/cloud/alicloud/src/infra/utils/misc\utils_httpc.c ****     char *send_buf = NULL ;
 1794              		.loc 1 244 5
 245:C:/Users/stapi/OneDrive/Desktop/GD32VW553/V1_MQTT_OK/GD32VW55X_Wifi_BLE_SDK/GD32VW55x_RELEASE_V1.0.2/MSDK/cloud/alicloud/src/infra/utils/misc\utils_httpc.c ****     char *buf = NULL;
 1795              		.loc 1 245 5
 246:C:/Users/stapi/OneDrive/Desktop/GD32VW553/V1_MQTT_OK/GD32VW55X_Wifi_BLE_SDK/GD32VW55x_RELEASE_V1.0.2/MSDK/cloud/alicloud/src/infra/utils/misc\utils_httpc.c **** 
 1796              		.loc 1 246 5
 248:C:/Users/stapi/OneDrive/Desktop/GD32VW553/V1_MQTT_OK/GD32VW55X_Wifi_BLE_SDK/GD32VW55x_RELEASE_V1.0.2/MSDK/cloud/alicloud/src/infra/utils/misc\utils_httpc.c ****     if (host == NULL) {
 1797              		.loc 1 248 5
 248:C:/Users/stapi/OneDrive/Desktop/GD32VW553/V1_MQTT_OK/GD32VW55X_Wifi_BLE_SDK/GD32VW55x_RELEASE_V1.0.2/MSDK/cloud/alicloud/src/infra/utils/misc\utils_httpc.c ****     if (host == NULL) {
 1798              		.loc 1 248 12 is_stmt 0
 1799 001e 97000000 		call	LITE_malloc_internal
 1799      E7800000 
 1800              	.LVL200:
 249:C:/Users/stapi/OneDrive/Desktop/GD32VW553/V1_MQTT_OK/GD32VW55X_Wifi_BLE_SDK/GD32VW55x_RELEASE_V1.0.2/MSDK/cloud/alicloud/src/infra/utils/misc\utils_httpc.c ****         ret = ERROR_NO_ENOUGH_MEM;
 1801              		.loc 1 249 5 is_stmt 1
 250:C:/Users/stapi/OneDrive/Desktop/GD32VW553/V1_MQTT_OK/GD32VW55X_Wifi_BLE_SDK/GD32VW55x_RELEASE_V1.0.2/MSDK/cloud/alicloud/src/infra/utils/misc\utils_httpc.c ****         goto err;
 1802              		.loc 1 250 13 is_stmt 0
 1803 0026 1304B0C0 		li	s0,-1013
 249:C:/Users/stapi/OneDrive/Desktop/GD32VW553/V1_MQTT_OK/GD32VW55X_Wifi_BLE_SDK/GD32VW55x_RELEASE_V1.0.2/MSDK/cloud/alicloud/src/infra/utils/misc\utils_httpc.c ****         ret = ERROR_NO_ENOUGH_MEM;
 1804              		.loc 1 249 8
 1805 002a 630B0514 		beq	a0,zero,.L92
 1806 002e AA8B     		mv	s7,a0
 253:C:/Users/stapi/OneDrive/Desktop/GD32VW553/V1_MQTT_OK/GD32VW55X_Wifi_BLE_SDK/GD32VW55x_RELEASE_V1.0.2/MSDK/cloud/alicloud/src/infra/utils/misc\utils_httpc.c ****     if (path == NULL) {
 1807              		.loc 1 253 5 is_stmt 1
 253:C:/Users/stapi/OneDrive/Desktop/GD32VW553/V1_MQTT_OK/GD32VW55X_Wifi_BLE_SDK/GD32VW55x_RELEASE_V1.0.2/MSDK/cloud/alicloud/src/infra/utils/misc\utils_httpc.c ****     if (path == NULL) {
 1808              		.loc 1 253 12 is_stmt 0
 1809 0030 13060040 		li	a2,1024
 1810 0034 8145     		li	a1,0
 1811 0036 0145     		li	a0,0
 1812              	.LVL201:
 1813 0038 97000000 		call	LITE_malloc_internal
 1813      E7800000 
 1814              	.LVL202:
 1815 0040 2A8B     		mv	s6,a0
 1816              	.LVL203:
 254:C:/Users/stapi/OneDrive/Desktop/GD32VW553/V1_MQTT_OK/GD32VW55X_Wifi_BLE_SDK/GD32VW55x_RELEASE_V1.0.2/MSDK/cloud/alicloud/src/infra/utils/misc\utils_httpc.c ****         ret = ERROR_NO_ENOUGH_MEM;
 1817              		.loc 1 254 5 is_stmt 1
 254:C:/Users/stapi/OneDrive/Desktop/GD32VW553/V1_MQTT_OK/GD32VW55X_Wifi_BLE_SDK/GD32VW55x_RELEASE_V1.0.2/MSDK/cloud/alicloud/src/infra/utils/misc\utils_httpc.c ****         ret = ERROR_NO_ENOUGH_MEM;
 1818              		.loc 1 254 8 is_stmt 0
 1819 0042 6302054A 		beq	a0,zero,.L117
 258:C:/Users/stapi/OneDrive/Desktop/GD32VW553/V1_MQTT_OK/GD32VW55X_Wifi_BLE_SDK/GD32VW55x_RELEASE_V1.0.2/MSDK/cloud/alicloud/src/infra/utils/misc\utils_httpc.c ****     if (send_buf == NULL) {
 1820              		.loc 1 258 5 is_stmt 1
 258:C:/Users/stapi/OneDrive/Desktop/GD32VW553/V1_MQTT_OK/GD32VW55X_Wifi_BLE_SDK/GD32VW55x_RELEASE_V1.0.2/MSDK/cloud/alicloud/src/infra/utils/misc\utils_httpc.c ****     if (send_buf == NULL) {
 1821              		.loc 1 258 16 is_stmt 0
 1822 0046 13060040 		li	a2,1024
 1823 004a 8145     		li	a1,0
 1824 004c 0145     		li	a0,0
 1825              	.LVL204:
 1826 004e 97000000 		call	LITE_malloc_internal
 1826      E7800000 
 1827              	.LVL205:
 1828 0056 2A89     		mv	s2,a0
 1829              	.LVL206:
 259:C:/Users/stapi/OneDrive/Desktop/GD32VW553/V1_MQTT_OK/GD32VW55X_Wifi_BLE_SDK/GD32VW55x_RELEASE_V1.0.2/MSDK/cloud/alicloud/src/infra/utils/misc\utils_httpc.c ****         ret = ERROR_NO_ENOUGH_MEM;
 1830              		.loc 1 259 5 is_stmt 1
 259:C:/Users/stapi/OneDrive/Desktop/GD32VW553/V1_MQTT_OK/GD32VW55X_Wifi_BLE_SDK/GD32VW55x_RELEASE_V1.0.2/MSDK/cloud/alicloud/src/infra/utils/misc\utils_httpc.c ****         ret = ERROR_NO_ENOUGH_MEM;
 1831              		.loc 1 259 8 is_stmt 0
 1832 0058 630C0548 		beq	a0,zero,.L118
 263:C:/Users/stapi/OneDrive/Desktop/GD32VW553/V1_MQTT_OK/GD32VW55X_Wifi_BLE_SDK/GD32VW55x_RELEASE_V1.0.2/MSDK/cloud/alicloud/src/infra/utils/misc\utils_httpc.c ****     if (buf == NULL) {
 1833              		.loc 1 263 5 is_stmt 1
 263:C:/Users/stapi/OneDrive/Desktop/GD32VW553/V1_MQTT_OK/GD32VW55X_Wifi_BLE_SDK/GD32VW55x_RELEASE_V1.0.2/MSDK/cloud/alicloud/src/infra/utils/misc\utils_httpc.c ****     if (buf == NULL) {
 1834              		.loc 1 263 11 is_stmt 0
 1835 005c 13060040 		li	a2,1024
 1836 0060 8145     		li	a1,0
 1837 0062 0145     		li	a0,0
 1838              	.LVL207:
 1839 0064 97000000 		call	LITE_malloc_internal
 1839      E7800000 
 1840              	.LVL208:
 1841 006c AA84     		mv	s1,a0
 1842              	.LVL209:
 264:C:/Users/stapi/OneDrive/Desktop/GD32VW553/V1_MQTT_OK/GD32VW55X_Wifi_BLE_SDK/GD32VW55x_RELEASE_V1.0.2/MSDK/cloud/alicloud/src/infra/utils/misc\utils_httpc.c ****         ret = ERROR_NO_ENOUGH_MEM;
 1843              		.loc 1 264 5 is_stmt 1
 265:C:/Users/stapi/OneDrive/Desktop/GD32VW553/V1_MQTT_OK/GD32VW55X_Wifi_BLE_SDK/GD32VW55x_RELEASE_V1.0.2/MSDK/cloud/alicloud/src/infra/utils/misc\utils_httpc.c ****         goto err;
 1844              		.loc 1 265 13 is_stmt 0
 1845 006e 1304B0C0 		li	s0,-1013
 264:C:/Users/stapi/OneDrive/Desktop/GD32VW553/V1_MQTT_OK/GD32VW55X_Wifi_BLE_SDK/GD32VW55x_RELEASE_V1.0.2/MSDK/cloud/alicloud/src/infra/utils/misc\utils_httpc.c ****         ret = ERROR_NO_ENOUGH_MEM;
 1846              		.loc 1 264 8
 1847 0072 71CD     		beq	a0,zero,.L94
 268:C:/Users/stapi/OneDrive/Desktop/GD32VW553/V1_MQTT_OK/GD32VW55X_Wifi_BLE_SDK/GD32VW55x_RELEASE_V1.0.2/MSDK/cloud/alicloud/src/infra/utils/misc\utils_httpc.c ****     memset(path, 0, HTTPCLIENT_MAX_URL_LEN);
 1848              		.loc 1 268 5 is_stmt 1
 1849 0074 13060008 		li	a2,128
 1850 0078 8145     		li	a1,0
 1851 007a 5E85     		mv	a0,s7
 1852 007c 97000000 		call	memset
 1852      E7800000 
 1853              	.LVL210:
 269:C:/Users/stapi/OneDrive/Desktop/GD32VW553/V1_MQTT_OK/GD32VW55X_Wifi_BLE_SDK/GD32VW55x_RELEASE_V1.0.2/MSDK/cloud/alicloud/src/infra/utils/misc\utils_httpc.c ****     memset(send_buf, 0, HTTPCLIENT_SEND_BUF_SIZE);
 1854              		.loc 1 269 5
 1855 0084 13060040 		li	a2,1024
 1856 0088 8145     		li	a1,0
 1857 008a 5A85     		mv	a0,s6
 1858 008c 97000000 		call	memset
 1858      E7800000 
 1859              	.LVL211:
 270:C:/Users/stapi/OneDrive/Desktop/GD32VW553/V1_MQTT_OK/GD32VW55X_Wifi_BLE_SDK/GD32VW55x_RELEASE_V1.0.2/MSDK/cloud/alicloud/src/infra/utils/misc\utils_httpc.c ****     memset(buf, 0, HTTPCLIENT_SEND_BUF_SIZE);
 1860              		.loc 1 270 5
 1861 0094 13060040 		li	a2,1024
 1862 0098 8145     		li	a1,0
 1863 009a 4A85     		mv	a0,s2
 1864 009c 97000000 		call	memset
 1864      E7800000 
 1865              	.LVL212:
 271:C:/Users/stapi/OneDrive/Desktop/GD32VW553/V1_MQTT_OK/GD32VW55X_Wifi_BLE_SDK/GD32VW55x_RELEASE_V1.0.2/MSDK/cloud/alicloud/src/infra/utils/misc\utils_httpc.c **** 
 1866              		.loc 1 271 5
 1867 00a4 13060040 		li	a2,1024
 1868 00a8 8145     		li	a1,0
 1869 00aa 2685     		mv	a0,s1
 1870 00ac 97000000 		call	memset
 1870      E7800000 
 1871              	.LVL213:
 274:C:/Users/stapi/OneDrive/Desktop/GD32VW553/V1_MQTT_OK/GD32VW55X_Wifi_BLE_SDK/GD32VW55x_RELEASE_V1.0.2/MSDK/cloud/alicloud/src/infra/utils/misc\utils_httpc.c ****                  (method == HTTPCLIENT_PUT) ? "PUT" : (method == HTTPCLIENT_DELETE) ? "DELETE" :
 1872              		.loc 1 274 5
 274:C:/Users/stapi/OneDrive/Desktop/GD32VW553/V1_MQTT_OK/GD32VW55X_Wifi_BLE_SDK/GD32VW55x_RELEASE_V1.0.2/MSDK/cloud/alicloud/src/infra/utils/misc\utils_httpc.c ****                  (method == HTTPCLIENT_PUT) ? "PUT" : (method == HTTPCLIENT_DELETE) ? "DELETE" :
 1873              		.loc 1 274 53 is_stmt 0
 1874 00b4 638C090C 		beq	s3,zero,.L120
 274:C:/Users/stapi/OneDrive/Desktop/GD32VW553/V1_MQTT_OK/GD32VW55X_Wifi_BLE_SDK/GD32VW55x_RELEASE_V1.0.2/MSDK/cloud/alicloud/src/infra/utils/misc\utils_httpc.c ****                  (method == HTTPCLIENT_PUT) ? "PUT" : (method == HTTPCLIENT_DELETE) ? "DELETE" :
 1875              		.loc 1 274 92 discriminator 1
 1876 00b8 8547     		li	a5,1
 1877 00ba 638EF90C 		beq	s3,a5,.L121
 275:C:/Users/stapi/OneDrive/Desktop/GD32VW553/V1_MQTT_OK/GD32VW55X_Wifi_BLE_SDK/GD32VW55x_RELEASE_V1.0.2/MSDK/cloud/alicloud/src/infra/utils/misc\utils_httpc.c ****                  (method == HTTPCLIENT_HEAD) ? "HEAD" : "";
 1878              		.loc 1 275 53
 1879 00be 8947     		li	a5,2
 1880 00c0 6380F90E 		beq	s3,a5,.L122
 275:C:/Users/stapi/OneDrive/Desktop/GD32VW553/V1_MQTT_OK/GD32VW55X_Wifi_BLE_SDK/GD32VW55x_RELEASE_V1.0.2/MSDK/cloud/alicloud/src/infra/utils/misc\utils_httpc.c ****                  (method == HTTPCLIENT_HEAD) ? "HEAD" : "";
 1881              		.loc 1 275 96 discriminator 1
 1882 00c4 8D47     		li	a5,3
 1883 00c6 6382F90E 		beq	s3,a5,.L123
 276:C:/Users/stapi/OneDrive/Desktop/GD32VW553/V1_MQTT_OK/GD32VW55X_Wifi_BLE_SDK/GD32VW55x_RELEASE_V1.0.2/MSDK/cloud/alicloud/src/infra/utils/misc\utils_httpc.c ****     int port;
 1884              		.loc 1 276 55
 1885 00ca 9147     		li	a5,4
 1886 00cc 6384F90E 		beq	s3,a5,.L124
 1887 00d0 37040000 		lui	s0,%hi(.LC33)
 1888 00d4 13040400 		addi	s0,s0,%lo(.LC33)
 1889              	.L95:
 1890              	.LVL214:
 277:C:/Users/stapi/OneDrive/Desktop/GD32VW553/V1_MQTT_OK/GD32VW55X_Wifi_BLE_SDK/GD32VW55x_RELEASE_V1.0.2/MSDK/cloud/alicloud/src/infra/utils/misc\utils_httpc.c **** 
 1891              		.loc 1 277 5 is_stmt 1 discriminator 7
 281:C:/Users/stapi/OneDrive/Desktop/GD32VW553/V1_MQTT_OK/GD32VW55X_Wifi_BLE_SDK/GD32VW55x_RELEASE_V1.0.2/MSDK/cloud/alicloud/src/infra/utils/misc\utils_httpc.c ****                                HTTPCLIENT_MAX_URL_LEN);
 1892              		.loc 1 281 5 discriminator 7
 1893              	.LBB32:
 1894              	.LBB33:
  86:C:/Users/stapi/OneDrive/Desktop/GD32VW553/V1_MQTT_OK/GD32VW55X_Wifi_BLE_SDK/GD32VW55x_RELEASE_V1.0.2/MSDK/cloud/alicloud/src/infra/utils/misc\utils_httpc.c ****     char *host_ptr = (char *) strstr(url, "://");
 1895              		.loc 1 86 5 discriminator 7
  87:C:/Users/stapi/OneDrive/Desktop/GD32VW553/V1_MQTT_OK/GD32VW55X_Wifi_BLE_SDK/GD32VW55x_RELEASE_V1.0.2/MSDK/cloud/alicloud/src/infra/utils/misc\utils_httpc.c ****     uint32_t host_len = 0;
 1896              		.loc 1 87 5 discriminator 7
  87:C:/Users/stapi/OneDrive/Desktop/GD32VW553/V1_MQTT_OK/GD32VW55X_Wifi_BLE_SDK/GD32VW55x_RELEASE_V1.0.2/MSDK/cloud/alicloud/src/infra/utils/misc\utils_httpc.c ****     uint32_t host_len = 0;
 1897              		.loc 1 87 22 is_stmt 0 discriminator 7
 1898 00d8 B7050000 		lui	a1,%hi(.LC20)
 1899 00dc 93850500 		addi	a1,a1,%lo(.LC20)
 1900 00e0 6685     		mv	a0,s9
 1901 00e2 97000000 		call	strstr
 1901      E7800000 
 1902              	.LVL215:
 1903 00ea AA89     		mv	s3,a0
 1904              	.LVL216:
  88:C:/Users/stapi/OneDrive/Desktop/GD32VW553/V1_MQTT_OK/GD32VW55X_Wifi_BLE_SDK/GD32VW55x_RELEASE_V1.0.2/MSDK/cloud/alicloud/src/infra/utils/misc\utils_httpc.c ****     uint32_t path_len;
 1905              		.loc 1 88 5 is_stmt 1 discriminator 7
  89:C:/Users/stapi/OneDrive/Desktop/GD32VW553/V1_MQTT_OK/GD32VW55X_Wifi_BLE_SDK/GD32VW55x_RELEASE_V1.0.2/MSDK/cloud/alicloud/src/infra/utils/misc\utils_httpc.c ****     /* char *port_ptr; */
 1906              		.loc 1 89 5 discriminator 7
  91:C:/Users/stapi/OneDrive/Desktop/GD32VW553/V1_MQTT_OK/GD32VW55X_Wifi_BLE_SDK/GD32VW55x_RELEASE_V1.0.2/MSDK/cloud/alicloud/src/infra/utils/misc\utils_httpc.c ****     char *fragment_ptr;
 1907              		.loc 1 91 5 discriminator 7
  92:C:/Users/stapi/OneDrive/Desktop/GD32VW553/V1_MQTT_OK/GD32VW55X_Wifi_BLE_SDK/GD32VW55x_RELEASE_V1.0.2/MSDK/cloud/alicloud/src/infra/utils/misc\utils_httpc.c **** 
 1908              		.loc 1 92 5 discriminator 7
  94:C:/Users/stapi/OneDrive/Desktop/GD32VW553/V1_MQTT_OK/GD32VW55X_Wifi_BLE_SDK/GD32VW55x_RELEASE_V1.0.2/MSDK/cloud/alicloud/src/infra/utils/misc\utils_httpc.c ****         utils_err("Could not find host");
 1909              		.loc 1 94 5 discriminator 7
 1910 00ec B70A0000 		lui	s5,%hi(.LC4)
  94:C:/Users/stapi/OneDrive/Desktop/GD32VW553/V1_MQTT_OK/GD32VW55X_Wifi_BLE_SDK/GD32VW55x_RELEASE_V1.0.2/MSDK/cloud/alicloud/src/infra/utils/misc\utils_httpc.c ****         utils_err("Could not find host");
 1911              		.loc 1 94 8 is_stmt 0 discriminator 7
 1912 00f0 79E5     		bne	a0,zero,.L96
  95:C:/Users/stapi/OneDrive/Desktop/GD32VW553/V1_MQTT_OK/GD32VW55X_Wifi_BLE_SDK/GD32VW55x_RELEASE_V1.0.2/MSDK/cloud/alicloud/src/infra/utils/misc\utils_httpc.c ****         return ERROR_HTTP_PARSE; /* URL is invalid */
 1913              		.loc 1 95 9 is_stmt 1
  95:C:/Users/stapi/OneDrive/Desktop/GD32VW553/V1_MQTT_OK/GD32VW55X_Wifi_BLE_SDK/GD32VW55x_RELEASE_V1.0.2/MSDK/cloud/alicloud/src/infra/utils/misc\utils_httpc.c ****         return ERROR_HTTP_PARSE; /* URL is invalid */
 1914              		.loc 1 95 9
 1915 00f2 37050000 		lui	a0,%hi(.LC2)
 1916              	.LVL217:
 1917 00f6 13050500 		addi	a0,a0,%lo(.LC2)
 1918 00fa 97000000 		call	HAL_Printf
 1918      E7800000 
 1919              	.LVL218:
  95:C:/Users/stapi/OneDrive/Desktop/GD32VW553/V1_MQTT_OK/GD32VW55X_Wifi_BLE_SDK/GD32VW55x_RELEASE_V1.0.2/MSDK/cloud/alicloud/src/infra/utils/misc\utils_httpc.c ****         return ERROR_HTTP_PARSE; /* URL is invalid */
 1920              		.loc 1 95 9
 1921 0102 37050000 		lui	a0,%hi(.LC21)
 1922 0106 13050500 		addi	a0,a0,%lo(.LC21)
 1923 010a 97000000 		call	HAL_Printf
 1923      E7800000 
 1924              	.LVL219:
  95:C:/Users/stapi/OneDrive/Desktop/GD32VW553/V1_MQTT_OK/GD32VW55X_Wifi_BLE_SDK/GD32VW55x_RELEASE_V1.0.2/MSDK/cloud/alicloud/src/infra/utils/misc\utils_httpc.c ****         return ERROR_HTTP_PARSE; /* URL is invalid */
 1925              		.loc 1 95 9
 1926              	.L142:
 101:C:/Users/stapi/OneDrive/Desktop/GD32VW553/V1_MQTT_OK/GD32VW55X_Wifi_BLE_SDK/GD32VW55x_RELEASE_V1.0.2/MSDK/cloud/alicloud/src/infra/utils/misc\utils_httpc.c ****         return ERROR_HTTP_PARSE;
 1927              		.loc 1 101 9
 1928 0112 13850A00 		addi	a0,s5,%lo(.LC4)
 1929 0116 97000000 		call	HAL_Printf
 1929      E7800000 
 1930              	.LVL220:
 101:C:/Users/stapi/OneDrive/Desktop/GD32VW553/V1_MQTT_OK/GD32VW55X_Wifi_BLE_SDK/GD32VW55x_RELEASE_V1.0.2/MSDK/cloud/alicloud/src/infra/utils/misc\utils_httpc.c ****         return ERROR_HTTP_PARSE;
 1931              		.loc 1 101 9
 102:C:/Users/stapi/OneDrive/Desktop/GD32VW553/V1_MQTT_OK/GD32VW55X_Wifi_BLE_SDK/GD32VW55x_RELEASE_V1.0.2/MSDK/cloud/alicloud/src/infra/utils/misc\utils_httpc.c ****     }
 1932              		.loc 1 102 9
 1933              	.LBE33:
 1934              	.LBE32:
 283:C:/Users/stapi/OneDrive/Desktop/GD32VW553/V1_MQTT_OK/GD32VW55X_Wifi_BLE_SDK/GD32VW55x_RELEASE_V1.0.2/MSDK/cloud/alicloud/src/infra/utils/misc\utils_httpc.c ****         utils_err("httpclient_parse_url fail returned %d", ret);
 1935              		.loc 1 283 5
 1936              	.LBB38:
 1937              	.LBB34:
 102:C:/Users/stapi/OneDrive/Desktop/GD32VW553/V1_MQTT_OK/GD32VW55X_Wifi_BLE_SDK/GD32VW55x_RELEASE_V1.0.2/MSDK/cloud/alicloud/src/infra/utils/misc\utils_httpc.c ****     }
 1938              		.loc 1 102 16 is_stmt 0
 1939 011e 6554     		li	s0,-7
 1940              	.LVL221:
 1941              	.L97:
 1942              	.LBE34:
 1943              	.LBE38:
 284:C:/Users/stapi/OneDrive/Desktop/GD32VW553/V1_MQTT_OK/GD32VW55X_Wifi_BLE_SDK/GD32VW55x_RELEASE_V1.0.2/MSDK/cloud/alicloud/src/infra/utils/misc\utils_httpc.c ****         goto err;
 1944              		.loc 1 284 9 is_stmt 1
 284:C:/Users/stapi/OneDrive/Desktop/GD32VW553/V1_MQTT_OK/GD32VW55X_Wifi_BLE_SDK/GD32VW55x_RELEASE_V1.0.2/MSDK/cloud/alicloud/src/infra/utils/misc\utils_httpc.c ****         goto err;
 1945              		.loc 1 284 9
 1946 0120 37050000 		lui	a0,%hi(.LC2)
 1947 0124 13050500 		addi	a0,a0,%lo(.LC2)
 1948 0128 97000000 		call	HAL_Printf
 1948      E7800000 
 1949              	.LVL222:
 284:C:/Users/stapi/OneDrive/Desktop/GD32VW553/V1_MQTT_OK/GD32VW55X_Wifi_BLE_SDK/GD32VW55x_RELEASE_V1.0.2/MSDK/cloud/alicloud/src/infra/utils/misc\utils_httpc.c ****         goto err;
 1950              		.loc 1 284 9
 1951 0130 37050000 		lui	a0,%hi(.LC39)
 1952 0134 A285     		mv	a1,s0
 1953 0136 13050500 		addi	a0,a0,%lo(.LC39)
 1954 013a 97000000 		call	HAL_Printf
 1954      E7800000 
 1955              	.LVL223:
 284:C:/Users/stapi/OneDrive/Desktop/GD32VW553/V1_MQTT_OK/GD32VW55X_Wifi_BLE_SDK/GD32VW55x_RELEASE_V1.0.2/MSDK/cloud/alicloud/src/infra/utils/misc\utils_httpc.c ****         goto err;
 1956              		.loc 1 284 9
 1957              	.L144:
 315:C:/Users/stapi/OneDrive/Desktop/GD32VW553/V1_MQTT_OK/GD32VW55X_Wifi_BLE_SDK/GD32VW55x_RELEASE_V1.0.2/MSDK/cloud/alicloud/src/infra/utils/misc\utils_httpc.c ****         goto err;
 1958              		.loc 1 315 9
 1959 0142 13850A00 		addi	a0,s5,%lo(.LC4)
 1960 0146 97000000 		call	HAL_Printf
 1960      E7800000 
 1961              	.LVL224:
 315:C:/Users/stapi/OneDrive/Desktop/GD32VW553/V1_MQTT_OK/GD32VW55X_Wifi_BLE_SDK/GD32VW55x_RELEASE_V1.0.2/MSDK/cloud/alicloud/src/infra/utils/misc\utils_httpc.c ****         goto err;
 1962              		.loc 1 315 9
 316:C:/Users/stapi/OneDrive/Desktop/GD32VW553/V1_MQTT_OK/GD32VW55X_Wifi_BLE_SDK/GD32VW55x_RELEASE_V1.0.2/MSDK/cloud/alicloud/src/infra/utils/misc\utils_httpc.c ****     }
 1963              		.loc 1 316 9
 1964              	.L94:
 358:C:/Users/stapi/OneDrive/Desktop/GD32VW553/V1_MQTT_OK/GD32VW55X_Wifi_BLE_SDK/GD32VW55x_RELEASE_V1.0.2/MSDK/cloud/alicloud/src/infra/utils/misc\utils_httpc.c ****         httpc_free(host);
 1965              		.loc 1 358 5
 359:C:/Users/stapi/OneDrive/Desktop/GD32VW553/V1_MQTT_OK/GD32VW55X_Wifi_BLE_SDK/GD32VW55x_RELEASE_V1.0.2/MSDK/cloud/alicloud/src/infra/utils/misc\utils_httpc.c ****     }
 1966              		.loc 1 359 9
 1967 014e 5E85     		mv	a0,s7
 1968 0150 97000000 		call	LITE_free_internal
 1968      E7800000 
 1969              	.LVL225:
 361:C:/Users/stapi/OneDrive/Desktop/GD32VW553/V1_MQTT_OK/GD32VW55X_Wifi_BLE_SDK/GD32VW55x_RELEASE_V1.0.2/MSDK/cloud/alicloud/src/infra/utils/misc\utils_httpc.c ****         httpc_free(path);
 1970              		.loc 1 361 5
 361:C:/Users/stapi/OneDrive/Desktop/GD32VW553/V1_MQTT_OK/GD32VW55X_Wifi_BLE_SDK/GD32VW55x_RELEASE_V1.0.2/MSDK/cloud/alicloud/src/infra/utils/misc\utils_httpc.c ****         httpc_free(path);
 1971              		.loc 1 361 8 is_stmt 0
 1972 0158 63070B00 		beq	s6,zero,.L115
 362:C:/Users/stapi/OneDrive/Desktop/GD32VW553/V1_MQTT_OK/GD32VW55X_Wifi_BLE_SDK/GD32VW55x_RELEASE_V1.0.2/MSDK/cloud/alicloud/src/infra/utils/misc\utils_httpc.c ****     }
 1973              		.loc 1 362 9 is_stmt 1
 1974 015c 5A85     		mv	a0,s6
 1975 015e 97000000 		call	LITE_free_internal
 1975      E7800000 
 1976              	.LVL226:
 1977              	.L115:
 364:C:/Users/stapi/OneDrive/Desktop/GD32VW553/V1_MQTT_OK/GD32VW55X_Wifi_BLE_SDK/GD32VW55x_RELEASE_V1.0.2/MSDK/cloud/alicloud/src/infra/utils/misc\utils_httpc.c ****         httpc_free(send_buf);
 1978              		.loc 1 364 5
 364:C:/Users/stapi/OneDrive/Desktop/GD32VW553/V1_MQTT_OK/GD32VW55X_Wifi_BLE_SDK/GD32VW55x_RELEASE_V1.0.2/MSDK/cloud/alicloud/src/infra/utils/misc\utils_httpc.c ****         httpc_free(send_buf);
 1979              		.loc 1 364 8 is_stmt 0
 1980 0166 63070900 		beq	s2,zero,.L113
 365:C:/Users/stapi/OneDrive/Desktop/GD32VW553/V1_MQTT_OK/GD32VW55X_Wifi_BLE_SDK/GD32VW55x_RELEASE_V1.0.2/MSDK/cloud/alicloud/src/infra/utils/misc\utils_httpc.c ****     }
 1981              		.loc 1 365 9 is_stmt 1
 1982 016a 4A85     		mv	a0,s2
 1983 016c 97000000 		call	LITE_free_internal
 1983      E7800000 
 1984              	.LVL227:
 1985              	.L113:
 367:C:/Users/stapi/OneDrive/Desktop/GD32VW553/V1_MQTT_OK/GD32VW55X_Wifi_BLE_SDK/GD32VW55x_RELEASE_V1.0.2/MSDK/cloud/alicloud/src/infra/utils/misc\utils_httpc.c ****         httpc_free(buf);
 1986              		.loc 1 367 5
 367:C:/Users/stapi/OneDrive/Desktop/GD32VW553/V1_MQTT_OK/GD32VW55X_Wifi_BLE_SDK/GD32VW55x_RELEASE_V1.0.2/MSDK/cloud/alicloud/src/infra/utils/misc\utils_httpc.c ****         httpc_free(buf);
 1987              		.loc 1 367 8 is_stmt 0
 1988 0174 91C4     		beq	s1,zero,.L92
 368:C:/Users/stapi/OneDrive/Desktop/GD32VW553/V1_MQTT_OK/GD32VW55X_Wifi_BLE_SDK/GD32VW55x_RELEASE_V1.0.2/MSDK/cloud/alicloud/src/infra/utils/misc\utils_httpc.c ****     }
 1989              		.loc 1 368 9 is_stmt 1
 1990 0176 2685     		mv	a0,s1
 1991 0178 97000000 		call	LITE_free_internal
 1991      E7800000 
 1992              	.LVL228:
 1993              	.L92:
 371:C:/Users/stapi/OneDrive/Desktop/GD32VW553/V1_MQTT_OK/GD32VW55X_Wifi_BLE_SDK/GD32VW55x_RELEASE_V1.0.2/MSDK/cloud/alicloud/src/infra/utils/misc\utils_httpc.c **** 
 1994              		.loc 1 371 1 is_stmt 0
 1995 0180 2285     		mv	a0,s0
 1996 0182 0561     		addi	sp,sp,32
 1997              		.cfi_remember_state
 1998              		.cfi_def_cfa_offset 0
 1999 0184 17030000 		tail	__riscv_restore_11
 1999      67000300 
 2000              		.cfi_restore 26
 2001              		.cfi_restore 25
 2002              		.cfi_restore 24
 2003              		.cfi_restore 23
 2004              		.cfi_restore 22
 2005              		.cfi_restore 21
 2006              		.cfi_restore 20
 2007              		.cfi_restore 19
 2008              		.cfi_restore 18
 2009              		.cfi_restore 9
 2010              		.cfi_restore 8
 2011              		.cfi_restore 1
 2012              		.cfi_def_cfa_offset -48
 2013              	.LVL229:
 2014              	.L120:
 2015              		.cfi_restore_state
 274:C:/Users/stapi/OneDrive/Desktop/GD32VW553/V1_MQTT_OK/GD32VW55X_Wifi_BLE_SDK/GD32VW55x_RELEASE_V1.0.2/MSDK/cloud/alicloud/src/infra/utils/misc\utils_httpc.c ****                  (method == HTTPCLIENT_PUT) ? "PUT" : (method == HTTPCLIENT_DELETE) ? "DELETE" :
 2016              		.loc 1 274 53
 2017 018c 37040000 		lui	s0,%hi(.LC30)
 2018 0190 13040400 		addi	s0,s0,%lo(.LC30)
 2019 0194 91B7     		j	.L95
 2020              	.L121:
 274:C:/Users/stapi/OneDrive/Desktop/GD32VW553/V1_MQTT_OK/GD32VW55X_Wifi_BLE_SDK/GD32VW55x_RELEASE_V1.0.2/MSDK/cloud/alicloud/src/infra/utils/misc\utils_httpc.c ****                  (method == HTTPCLIENT_PUT) ? "PUT" : (method == HTTPCLIENT_DELETE) ? "DELETE" :
 2021              		.loc 1 274 92
 2022 0196 37040000 		lui	s0,%hi(.LC31)
 2023 019a 13040400 		addi	s0,s0,%lo(.LC31)
 2024 019e 2DBF     		j	.L95
 2025              	.L122:
 275:C:/Users/stapi/OneDrive/Desktop/GD32VW553/V1_MQTT_OK/GD32VW55X_Wifi_BLE_SDK/GD32VW55x_RELEASE_V1.0.2/MSDK/cloud/alicloud/src/infra/utils/misc\utils_httpc.c ****                  (method == HTTPCLIENT_HEAD) ? "HEAD" : "";
 2026              		.loc 1 275 53
 2027 01a0 37040000 		lui	s0,%hi(.LC29)
 2028 01a4 13040400 		addi	s0,s0,%lo(.LC29)
 2029 01a8 05BF     		j	.L95
 2030              	.L123:
 275:C:/Users/stapi/OneDrive/Desktop/GD32VW553/V1_MQTT_OK/GD32VW55X_Wifi_BLE_SDK/GD32VW55x_RELEASE_V1.0.2/MSDK/cloud/alicloud/src/infra/utils/misc\utils_httpc.c ****                  (method == HTTPCLIENT_HEAD) ? "HEAD" : "";
 2031              		.loc 1 275 96
 2032 01aa 37040000 		lui	s0,%hi(.LC32)
 2033 01ae 13040400 		addi	s0,s0,%lo(.LC32)
 2034 01b2 1DB7     		j	.L95
 2035              	.L124:
 276:C:/Users/stapi/OneDrive/Desktop/GD32VW553/V1_MQTT_OK/GD32VW55X_Wifi_BLE_SDK/GD32VW55x_RELEASE_V1.0.2/MSDK/cloud/alicloud/src/infra/utils/misc\utils_httpc.c ****     int port;
 2036              		.loc 1 276 55
 2037 01b4 37040000 		lui	s0,%hi(.LC28)
 2038 01b8 13040400 		addi	s0,s0,%lo(.LC28)
 2039 01bc 31BF     		j	.L95
 2040              	.LVL230:
 2041              	.L96:
 2042              	.LBB39:
 2043              	.LBB35:
  99:C:/Users/stapi/OneDrive/Desktop/GD32VW553/V1_MQTT_OK/GD32VW55X_Wifi_BLE_SDK/GD32VW55x_RELEASE_V1.0.2/MSDK/cloud/alicloud/src/infra/utils/misc\utils_httpc.c ****         /* including NULL-terminating char */
 2044              		.loc 1 99 5 is_stmt 1
  99:C:/Users/stapi/OneDrive/Desktop/GD32VW553/V1_MQTT_OK/GD32VW55X_Wifi_BLE_SDK/GD32VW55x_RELEASE_V1.0.2/MSDK/cloud/alicloud/src/infra/utils/misc\utils_httpc.c ****         /* including NULL-terminating char */
 2045              		.loc 1 99 35 is_stmt 0
 2046 01be 330D9541 		sub	s10,a0,s9
  99:C:/Users/stapi/OneDrive/Desktop/GD32VW553/V1_MQTT_OK/GD32VW55X_Wifi_BLE_SDK/GD32VW55x_RELEASE_V1.0.2/MSDK/cloud/alicloud/src/infra/utils/misc\utils_httpc.c ****         /* including NULL-terminating char */
 2047              		.loc 1 99 48
 2048 01c2 13061D00 		addi	a2,s10,1
  99:C:/Users/stapi/OneDrive/Desktop/GD32VW553/V1_MQTT_OK/GD32VW55X_Wifi_BLE_SDK/GD32VW55x_RELEASE_V1.0.2/MSDK/cloud/alicloud/src/infra/utils/misc\utils_httpc.c ****         /* including NULL-terminating char */
 2049              		.loc 1 99 8
 2050 01c6 A147     		li	a5,8
 2051 01c8 63F6C702 		bleu	a2,a5,.L98
 101:C:/Users/stapi/OneDrive/Desktop/GD32VW553/V1_MQTT_OK/GD32VW55X_Wifi_BLE_SDK/GD32VW55x_RELEASE_V1.0.2/MSDK/cloud/alicloud/src/infra/utils/misc\utils_httpc.c ****         return ERROR_HTTP_PARSE;
 2052              		.loc 1 101 9
 2053 01cc 37050000 		lui	a0,%hi(.LC2)
 2054              	.LVL231:
 2055 01d0 13050500 		addi	a0,a0,%lo(.LC2)
 2056 01d4 32C6     		sw	a2,12(sp)
 101:C:/Users/stapi/OneDrive/Desktop/GD32VW553/V1_MQTT_OK/GD32VW55X_Wifi_BLE_SDK/GD32VW55x_RELEASE_V1.0.2/MSDK/cloud/alicloud/src/infra/utils/misc\utils_httpc.c ****         return ERROR_HTTP_PARSE;
 2057              		.loc 1 101 9 is_stmt 1
 101:C:/Users/stapi/OneDrive/Desktop/GD32VW553/V1_MQTT_OK/GD32VW55X_Wifi_BLE_SDK/GD32VW55x_RELEASE_V1.0.2/MSDK/cloud/alicloud/src/infra/utils/misc\utils_httpc.c ****         return ERROR_HTTP_PARSE;
 2058              		.loc 1 101 9
 2059 01d6 97000000 		call	HAL_Printf
 2059      E7800000 
 2060              	.LVL232:
 101:C:/Users/stapi/OneDrive/Desktop/GD32VW553/V1_MQTT_OK/GD32VW55X_Wifi_BLE_SDK/GD32VW55x_RELEASE_V1.0.2/MSDK/cloud/alicloud/src/infra/utils/misc\utils_httpc.c ****         return ERROR_HTTP_PARSE;
 2061              		.loc 1 101 9
 2062 01de 3246     		lw	a2,12(sp)
 2063 01e0 37050000 		lui	a0,%hi(.LC34)
 2064 01e4 A145     		li	a1,8
 2065 01e6 13050500 		addi	a0,a0,%lo(.LC34)
 2066              	.LVL233:
 2067              	.L143:
 2068 01ea 97000000 		call	HAL_Printf
 2068      E7800000 
 2069              	.LVL234:
 2070 01f2 05B7     		j	.L142
 2071              	.LVL235:
 2072              	.L98:
 104:C:/Users/stapi/OneDrive/Desktop/GD32VW553/V1_MQTT_OK/GD32VW55X_Wifi_BLE_SDK/GD32VW55x_RELEASE_V1.0.2/MSDK/cloud/alicloud/src/infra/utils/misc\utils_httpc.c ****     scheme[host_ptr - scheme_ptr] = '\0';
 2073              		.loc 1 104 5
 2074 01f4 6A86     		mv	a2,s10
 2075 01f6 E685     		mv	a1,s9
 2076 01f8 2808     		addi	a0,sp,24
 2077              	.LVL236:
 2078 01fa 97000000 		call	memcpy
 2078      E7800000 
 2079              	.LVL237:
 105:C:/Users/stapi/OneDrive/Desktop/GD32VW553/V1_MQTT_OK/GD32VW55X_Wifi_BLE_SDK/GD32VW55x_RELEASE_V1.0.2/MSDK/cloud/alicloud/src/infra/utils/misc\utils_httpc.c **** 
 2080              		.loc 1 105 5
 105:C:/Users/stapi/OneDrive/Desktop/GD32VW553/V1_MQTT_OK/GD32VW55X_Wifi_BLE_SDK/GD32VW55x_RELEASE_V1.0.2/MSDK/cloud/alicloud/src/infra/utils/misc\utils_httpc.c **** 
 2081              		.loc 1 105 35 is_stmt 0
 2082 0202 1C10     		addi	a5,sp,32
 2083              	.LVL238:
 2084 0204 3E9D     		add	s10,a5,s10
 107:C:/Users/stapi/OneDrive/Desktop/GD32VW553/V1_MQTT_OK/GD32VW55X_Wifi_BLE_SDK/GD32VW55x_RELEASE_V1.0.2/MSDK/cloud/alicloud/src/infra/utils/misc\utils_httpc.c **** 
 2085              		.loc 1 107 14
 2086 0206 8D09     		addi	s3,s3,3
 2087              	.LVL239:
 105:C:/Users/stapi/OneDrive/Desktop/GD32VW553/V1_MQTT_OK/GD32VW55X_Wifi_BLE_SDK/GD32VW55x_RELEASE_V1.0.2/MSDK/cloud/alicloud/src/infra/utils/misc\utils_httpc.c **** 
 2088              		.loc 1 105 35
 2089 0208 230C0DFE 		sb	zero,-8(s10)
 107:C:/Users/stapi/OneDrive/Desktop/GD32VW553/V1_MQTT_OK/GD32VW55X_Wifi_BLE_SDK/GD32VW55x_RELEASE_V1.0.2/MSDK/cloud/alicloud/src/infra/utils/misc\utils_httpc.c **** 
 2090              		.loc 1 107 5 is_stmt 1
 2091              	.LVL240:
 109:C:/Users/stapi/OneDrive/Desktop/GD32VW553/V1_MQTT_OK/GD32VW55X_Wifi_BLE_SDK/GD32VW55x_RELEASE_V1.0.2/MSDK/cloud/alicloud/src/infra/utils/misc\utils_httpc.c **** 
 2092              		.loc 1 109 5
 111:C:/Users/stapi/OneDrive/Desktop/GD32VW553/V1_MQTT_OK/GD32VW55X_Wifi_BLE_SDK/GD32VW55x_RELEASE_V1.0.2/MSDK/cloud/alicloud/src/infra/utils/misc\utils_httpc.c ****     if (NULL == path_ptr) {
 2093              		.loc 1 111 5
 111:C:/Users/stapi/OneDrive/Desktop/GD32VW553/V1_MQTT_OK/GD32VW55X_Wifi_BLE_SDK/GD32VW55x_RELEASE_V1.0.2/MSDK/cloud/alicloud/src/infra/utils/misc\utils_httpc.c ****     if (NULL == path_ptr) {
 2094              		.loc 1 111 16 is_stmt 0
 2095 020c 9305F002 		li	a1,47
 2096 0210 4E85     		mv	a0,s3
 2097 0212 97000000 		call	strchr
 2097      E7800000 
 2098              	.LVL241:
 2099 021a AA8C     		mv	s9,a0
 2100              	.LVL242:
 112:C:/Users/stapi/OneDrive/Desktop/GD32VW553/V1_MQTT_OK/GD32VW55X_Wifi_BLE_SDK/GD32VW55x_RELEASE_V1.0.2/MSDK/cloud/alicloud/src/infra/utils/misc\utils_httpc.c ****         utils_err("invalid path");
 2101              		.loc 1 112 5 is_stmt 1
 112:C:/Users/stapi/OneDrive/Desktop/GD32VW553/V1_MQTT_OK/GD32VW55X_Wifi_BLE_SDK/GD32VW55x_RELEASE_V1.0.2/MSDK/cloud/alicloud/src/infra/utils/misc\utils_httpc.c ****         utils_err("invalid path");
 2102              		.loc 1 112 8 is_stmt 0
 2103 021c 0DE9     		bne	a0,zero,.L99
 113:C:/Users/stapi/OneDrive/Desktop/GD32VW553/V1_MQTT_OK/GD32VW55X_Wifi_BLE_SDK/GD32VW55x_RELEASE_V1.0.2/MSDK/cloud/alicloud/src/infra/utils/misc\utils_httpc.c ****         return -1;
 2104              		.loc 1 113 9 is_stmt 1
 113:C:/Users/stapi/OneDrive/Desktop/GD32VW553/V1_MQTT_OK/GD32VW55X_Wifi_BLE_SDK/GD32VW55x_RELEASE_V1.0.2/MSDK/cloud/alicloud/src/infra/utils/misc\utils_httpc.c ****         return -1;
 2105              		.loc 1 113 9
 2106 021e 37050000 		lui	a0,%hi(.LC2)
 2107              	.LVL243:
 2108 0222 13050500 		addi	a0,a0,%lo(.LC2)
 2109 0226 97000000 		call	HAL_Printf
 2109      E7800000 
 2110              	.LVL244:
 113:C:/Users/stapi/OneDrive/Desktop/GD32VW553/V1_MQTT_OK/GD32VW55X_Wifi_BLE_SDK/GD32VW55x_RELEASE_V1.0.2/MSDK/cloud/alicloud/src/infra/utils/misc\utils_httpc.c ****         return -1;
 2111              		.loc 1 113 9
 2112 022e 37050000 		lui	a0,%hi(.LC35)
 2113 0232 13050500 		addi	a0,a0,%lo(.LC35)
 2114 0236 97000000 		call	HAL_Printf
 2114      E7800000 
 2115              	.LVL245:
 113:C:/Users/stapi/OneDrive/Desktop/GD32VW553/V1_MQTT_OK/GD32VW55X_Wifi_BLE_SDK/GD32VW55x_RELEASE_V1.0.2/MSDK/cloud/alicloud/src/infra/utils/misc\utils_httpc.c ****         return -1;
 2116              		.loc 1 113 9
 2117 023e 13850A00 		addi	a0,s5,%lo(.LC4)
 2118 0242 97000000 		call	HAL_Printf
 2118      E7800000 
 2119              	.LVL246:
 113:C:/Users/stapi/OneDrive/Desktop/GD32VW553/V1_MQTT_OK/GD32VW55X_Wifi_BLE_SDK/GD32VW55x_RELEASE_V1.0.2/MSDK/cloud/alicloud/src/infra/utils/misc\utils_httpc.c ****         return -1;
 2120              		.loc 1 113 9
 114:C:/Users/stapi/OneDrive/Desktop/GD32VW553/V1_MQTT_OK/GD32VW55X_Wifi_BLE_SDK/GD32VW55x_RELEASE_V1.0.2/MSDK/cloud/alicloud/src/infra/utils/misc\utils_httpc.c ****     }
 2121              		.loc 1 114 9
 2122              	.LBE35:
 2123              	.LBE39:
 283:C:/Users/stapi/OneDrive/Desktop/GD32VW553/V1_MQTT_OK/GD32VW55X_Wifi_BLE_SDK/GD32VW55x_RELEASE_V1.0.2/MSDK/cloud/alicloud/src/infra/utils/misc\utils_httpc.c ****         utils_err("httpclient_parse_url fail returned %d", ret);
 2124              		.loc 1 283 5
 2125              	.LBB40:
 2126              	.LBB36:
 114:C:/Users/stapi/OneDrive/Desktop/GD32VW553/V1_MQTT_OK/GD32VW55X_Wifi_BLE_SDK/GD32VW55x_RELEASE_V1.0.2/MSDK/cloud/alicloud/src/infra/utils/misc\utils_httpc.c ****     }
 2127              		.loc 1 114 16 is_stmt 0
 2128 024a 7D54     		li	s0,-1
 2129              	.LVL247:
 2130 024c D1BD     		j	.L97
 2131              	.LVL248:
 2132              	.L99:
 117:C:/Users/stapi/OneDrive/Desktop/GD32VW553/V1_MQTT_OK/GD32VW55X_Wifi_BLE_SDK/GD32VW55x_RELEASE_V1.0.2/MSDK/cloud/alicloud/src/infra/utils/misc\utils_httpc.c ****         host_len = path_ptr - host_ptr;
 2133              		.loc 1 117 5 is_stmt 1
 118:C:/Users/stapi/OneDrive/Desktop/GD32VW553/V1_MQTT_OK/GD32VW55X_Wifi_BLE_SDK/GD32VW55x_RELEASE_V1.0.2/MSDK/cloud/alicloud/src/infra/utils/misc\utils_httpc.c ****     }
 2134              		.loc 1 118 9
 118:C:/Users/stapi/OneDrive/Desktop/GD32VW553/V1_MQTT_OK/GD32VW55X_Wifi_BLE_SDK/GD32VW55x_RELEASE_V1.0.2/MSDK/cloud/alicloud/src/infra/utils/misc\utils_httpc.c ****     }
 2135              		.loc 1 118 29 is_stmt 0
 2136 024e 330D3541 		sub	s10,a0,s3
 2137              	.LVL249:
 121:C:/Users/stapi/OneDrive/Desktop/GD32VW553/V1_MQTT_OK/GD32VW55X_Wifi_BLE_SDK/GD32VW55x_RELEASE_V1.0.2/MSDK/cloud/alicloud/src/infra/utils/misc\utils_httpc.c ****         /* including NULL-terminating char */
 2138              		.loc 1 121 5 is_stmt 1
 121:C:/Users/stapi/OneDrive/Desktop/GD32VW553/V1_MQTT_OK/GD32VW55X_Wifi_BLE_SDK/GD32VW55x_RELEASE_V1.0.2/MSDK/cloud/alicloud/src/infra/utils/misc\utils_httpc.c ****         /* including NULL-terminating char */
 2139              		.loc 1 121 32 is_stmt 0
 2140 0252 93051D00 		addi	a1,s10,1
 121:C:/Users/stapi/OneDrive/Desktop/GD32VW553/V1_MQTT_OK/GD32VW55X_Wifi_BLE_SDK/GD32VW55x_RELEASE_V1.0.2/MSDK/cloud/alicloud/src/infra/utils/misc\utils_httpc.c ****         /* including NULL-terminating char */
 2141              		.loc 1 121 8
 2142 0256 93070008 		li	a5,128
 2143 025a 63F3B702 		bleu	a1,a5,.L100
 123:C:/Users/stapi/OneDrive/Desktop/GD32VW553/V1_MQTT_OK/GD32VW55X_Wifi_BLE_SDK/GD32VW55x_RELEASE_V1.0.2/MSDK/cloud/alicloud/src/infra/utils/misc\utils_httpc.c ****         return ERROR_HTTP_PARSE;
 2144              		.loc 1 123 9
 2145 025e 37050000 		lui	a0,%hi(.LC2)
 2146              	.LVL250:
 2147 0262 13050500 		addi	a0,a0,%lo(.LC2)
 2148 0266 2EC6     		sw	a1,12(sp)
 123:C:/Users/stapi/OneDrive/Desktop/GD32VW553/V1_MQTT_OK/GD32VW55X_Wifi_BLE_SDK/GD32VW55x_RELEASE_V1.0.2/MSDK/cloud/alicloud/src/infra/utils/misc\utils_httpc.c ****         return ERROR_HTTP_PARSE;
 2149              		.loc 1 123 9 is_stmt 1
 123:C:/Users/stapi/OneDrive/Desktop/GD32VW553/V1_MQTT_OK/GD32VW55X_Wifi_BLE_SDK/GD32VW55x_RELEASE_V1.0.2/MSDK/cloud/alicloud/src/infra/utils/misc\utils_httpc.c ****         return ERROR_HTTP_PARSE;
 2150              		.loc 1 123 9
 2151 0268 97000000 		call	HAL_Printf
 2151      E7800000 
 2152              	.LVL251:
 123:C:/Users/stapi/OneDrive/Desktop/GD32VW553/V1_MQTT_OK/GD32VW55X_Wifi_BLE_SDK/GD32VW55x_RELEASE_V1.0.2/MSDK/cloud/alicloud/src/infra/utils/misc\utils_httpc.c ****         return ERROR_HTTP_PARSE;
 2153              		.loc 1 123 9
 2154 0270 37050000 		lui	a0,%hi(.LC36)
 2155 0274 B245     		lw	a1,12(sp)
 2156 0276 13060008 		li	a2,128
 2157 027a 13050500 		addi	a0,a0,%lo(.LC36)
 2158 027e B5B7     		j	.L143
 2159              	.LVL252:
 2160              	.L100:
 126:C:/Users/stapi/OneDrive/Desktop/GD32VW553/V1_MQTT_OK/GD32VW55X_Wifi_BLE_SDK/GD32VW55x_RELEASE_V1.0.2/MSDK/cloud/alicloud/src/infra/utils/misc\utils_httpc.c ****     host[host_len] = '\0';
 2161              		.loc 1 126 5
 2162 0280 6A86     		mv	a2,s10
 2163 0282 CE85     		mv	a1,s3
 2164 0284 5E85     		mv	a0,s7
 2165              	.LVL253:
 2166 0286 97000000 		call	memcpy
 2166      E7800000 
 2167              	.LVL254:
 127:C:/Users/stapi/OneDrive/Desktop/GD32VW553/V1_MQTT_OK/GD32VW55X_Wifi_BLE_SDK/GD32VW55x_RELEASE_V1.0.2/MSDK/cloud/alicloud/src/infra/utils/misc\utils_httpc.c **** 
 2168              		.loc 1 127 5
 127:C:/Users/stapi/OneDrive/Desktop/GD32VW553/V1_MQTT_OK/GD32VW55X_Wifi_BLE_SDK/GD32VW55x_RELEASE_V1.0.2/MSDK/cloud/alicloud/src/infra/utils/misc\utils_httpc.c **** 
 2169              		.loc 1 127 20 is_stmt 0
 2170 028e 5E9D     		add	s10,s7,s10
 2171              	.LVL255:
 2172 0290 23000D00 		sb	zero,0(s10)
 129:C:/Users/stapi/OneDrive/Desktop/GD32VW553/V1_MQTT_OK/GD32VW55X_Wifi_BLE_SDK/GD32VW55x_RELEASE_V1.0.2/MSDK/cloud/alicloud/src/infra/utils/misc\utils_httpc.c ****     if (fragment_ptr != NULL) {
 2173              		.loc 1 129 5 is_stmt 1
 129:C:/Users/stapi/OneDrive/Desktop/GD32VW553/V1_MQTT_OK/GD32VW55X_Wifi_BLE_SDK/GD32VW55x_RELEASE_V1.0.2/MSDK/cloud/alicloud/src/infra/utils/misc\utils_httpc.c ****     if (fragment_ptr != NULL) {
 2174              		.loc 1 129 20 is_stmt 0
 2175 0294 93053002 		li	a1,35
 2176 0298 4E85     		mv	a0,s3
 2177 029a 97000000 		call	strchr
 2177      E7800000 
 2178              	.LVL256:
 130:C:/Users/stapi/OneDrive/Desktop/GD32VW553/V1_MQTT_OK/GD32VW55X_Wifi_BLE_SDK/GD32VW55x_RELEASE_V1.0.2/MSDK/cloud/alicloud/src/infra/utils/misc\utils_httpc.c ****         path_len = fragment_ptr - path_ptr;
 2179              		.loc 1 130 5 is_stmt 1
 130:C:/Users/stapi/OneDrive/Desktop/GD32VW553/V1_MQTT_OK/GD32VW55X_Wifi_BLE_SDK/GD32VW55x_RELEASE_V1.0.2/MSDK/cloud/alicloud/src/infra/utils/misc\utils_httpc.c ****         path_len = fragment_ptr - path_ptr;
 2180              		.loc 1 130 8 is_stmt 0
 2181 02a2 15C9     		beq	a0,zero,.L101
 131:C:/Users/stapi/OneDrive/Desktop/GD32VW553/V1_MQTT_OK/GD32VW55X_Wifi_BLE_SDK/GD32VW55x_RELEASE_V1.0.2/MSDK/cloud/alicloud/src/infra/utils/misc\utils_httpc.c ****     } else {
 2182              		.loc 1 131 9 is_stmt 1
 131:C:/Users/stapi/OneDrive/Desktop/GD32VW553/V1_MQTT_OK/GD32VW55X_Wifi_BLE_SDK/GD32VW55x_RELEASE_V1.0.2/MSDK/cloud/alicloud/src/infra/utils/misc\utils_httpc.c ****     } else {
 2183              		.loc 1 131 33 is_stmt 0
 2184 02a4 B3099541 		sub	s3,a0,s9
 2185              	.LVL257:
 2186              	.L102:
 136:C:/Users/stapi/OneDrive/Desktop/GD32VW553/V1_MQTT_OK/GD32VW55X_Wifi_BLE_SDK/GD32VW55x_RELEASE_V1.0.2/MSDK/cloud/alicloud/src/infra/utils/misc\utils_httpc.c ****         /* including NULL-terminating char */
 2187              		.loc 1 136 5 is_stmt 1
 136:C:/Users/stapi/OneDrive/Desktop/GD32VW553/V1_MQTT_OK/GD32VW55X_Wifi_BLE_SDK/GD32VW55x_RELEASE_V1.0.2/MSDK/cloud/alicloud/src/infra/utils/misc\utils_httpc.c ****         /* including NULL-terminating char */
 2188              		.loc 1 136 33 is_stmt 0
 2189 02a8 13861900 		addi	a2,s3,1
 136:C:/Users/stapi/OneDrive/Desktop/GD32VW553/V1_MQTT_OK/GD32VW55X_Wifi_BLE_SDK/GD32VW55x_RELEASE_V1.0.2/MSDK/cloud/alicloud/src/infra/utils/misc\utils_httpc.c ****         /* including NULL-terminating char */
 2190              		.loc 1 136 8
 2191 02ac 93070040 		li	a5,1024
 2192 02b0 63FAC702 		bleu	a2,a5,.L103
 138:C:/Users/stapi/OneDrive/Desktop/GD32VW553/V1_MQTT_OK/GD32VW55X_Wifi_BLE_SDK/GD32VW55x_RELEASE_V1.0.2/MSDK/cloud/alicloud/src/infra/utils/misc\utils_httpc.c ****         return ERROR_HTTP_PARSE;
 2193              		.loc 1 138 9
 2194 02b4 37050000 		lui	a0,%hi(.LC2)
 2195 02b8 13050500 		addi	a0,a0,%lo(.LC2)
 2196 02bc 32C6     		sw	a2,12(sp)
 138:C:/Users/stapi/OneDrive/Desktop/GD32VW553/V1_MQTT_OK/GD32VW55X_Wifi_BLE_SDK/GD32VW55x_RELEASE_V1.0.2/MSDK/cloud/alicloud/src/infra/utils/misc\utils_httpc.c ****         return ERROR_HTTP_PARSE;
 2197              		.loc 1 138 9 is_stmt 1
 138:C:/Users/stapi/OneDrive/Desktop/GD32VW553/V1_MQTT_OK/GD32VW55X_Wifi_BLE_SDK/GD32VW55x_RELEASE_V1.0.2/MSDK/cloud/alicloud/src/infra/utils/misc\utils_httpc.c ****         return ERROR_HTTP_PARSE;
 2198              		.loc 1 138 9
 2199 02be 97000000 		call	HAL_Printf
 2199      E7800000 
 2200              	.LVL258:
 138:C:/Users/stapi/OneDrive/Desktop/GD32VW553/V1_MQTT_OK/GD32VW55X_Wifi_BLE_SDK/GD32VW55x_RELEASE_V1.0.2/MSDK/cloud/alicloud/src/infra/utils/misc\utils_httpc.c ****         return ERROR_HTTP_PARSE;
 2201              		.loc 1 138 9
 2202 02c6 37050000 		lui	a0,%hi(.LC37)
 2203 02ca 3246     		lw	a2,12(sp)
 2204 02cc 93050040 		li	a1,1024
 2205 02d0 13050500 		addi	a0,a0,%lo(.LC37)
 2206 02d4 19BF     		j	.L143
 2207              	.LVL259:
 2208              	.L101:
 133:C:/Users/stapi/OneDrive/Desktop/GD32VW553/V1_MQTT_OK/GD32VW55X_Wifi_BLE_SDK/GD32VW55x_RELEASE_V1.0.2/MSDK/cloud/alicloud/src/infra/utils/misc\utils_httpc.c ****     }
 2209              		.loc 1 133 9
 133:C:/Users/stapi/OneDrive/Desktop/GD32VW553/V1_MQTT_OK/GD32VW55X_Wifi_BLE_SDK/GD32VW55x_RELEASE_V1.0.2/MSDK/cloud/alicloud/src/infra/utils/misc\utils_httpc.c ****     }
 2210              		.loc 1 133 20 is_stmt 0
 2211 02d6 6685     		mv	a0,s9
 2212              	.LVL260:
 2213 02d8 97000000 		call	strlen
 2213      E7800000 
 2214              	.LVL261:
 2215 02e0 AA89     		mv	s3,a0
 2216              	.LVL262:
 2217 02e2 D9B7     		j	.L102
 2218              	.LVL263:
 2219              	.L103:
 141:C:/Users/stapi/OneDrive/Desktop/GD32VW553/V1_MQTT_OK/GD32VW55X_Wifi_BLE_SDK/GD32VW55x_RELEASE_V1.0.2/MSDK/cloud/alicloud/src/infra/utils/misc\utils_httpc.c ****     path[path_len] = '\0';
 2220              		.loc 1 141 5 is_stmt 1
 2221 02e4 4E86     		mv	a2,s3
 2222 02e6 E685     		mv	a1,s9
 2223 02e8 5A85     		mv	a0,s6
 2224 02ea 97000000 		call	memcpy
 2224      E7800000 
 2225              	.LVL264:
 142:C:/Users/stapi/OneDrive/Desktop/GD32VW553/V1_MQTT_OK/GD32VW55X_Wifi_BLE_SDK/GD32VW55x_RELEASE_V1.0.2/MSDK/cloud/alicloud/src/infra/utils/misc\utils_httpc.c **** 
 2226              		.loc 1 142 5
 142:C:/Users/stapi/OneDrive/Desktop/GD32VW553/V1_MQTT_OK/GD32VW55X_Wifi_BLE_SDK/GD32VW55x_RELEASE_V1.0.2/MSDK/cloud/alicloud/src/infra/utils/misc\utils_httpc.c **** 
 2227              		.loc 1 142 20 is_stmt 0
 2228 02f2 DA99     		add	s3,s6,s3
 2229              	.LVL265:
 2230              	.LBE36:
 2231              	.LBE40:
 311:C:/Users/stapi/OneDrive/Desktop/GD32VW553/V1_MQTT_OK/GD32VW55X_Wifi_BLE_SDK/GD32VW55x_RELEASE_V1.0.2/MSDK/cloud/alicloud/src/infra/utils/misc\utils_httpc.c **** #endif
 2232              		.loc 1 311 5
 2233 02f4 37060000 		lui	a2,%hi(.LC38)
 2234 02f8 A286     		mv	a3,s0
 2235 02fa DE87     		mv	a5,s7
 2236 02fc 5A87     		mv	a4,s6
 2237 02fe 13060600 		addi	a2,a2,%lo(.LC38)
 2238 0302 93050040 		li	a1,1024
 2239              	.LBB41:
 2240              	.LBB37:
 142:C:/Users/stapi/OneDrive/Desktop/GD32VW553/V1_MQTT_OK/GD32VW55X_Wifi_BLE_SDK/GD32VW55x_RELEASE_V1.0.2/MSDK/cloud/alicloud/src/infra/utils/misc\utils_httpc.c **** 
 2241              		.loc 1 142 20
 2242 0306 23800900 		sb	zero,0(s3)
 144:C:/Users/stapi/OneDrive/Desktop/GD32VW553/V1_MQTT_OK/GD32VW55X_Wifi_BLE_SDK/GD32VW55x_RELEASE_V1.0.2/MSDK/cloud/alicloud/src/infra/utils/misc\utils_httpc.c **** }
 2243              		.loc 1 144 5 is_stmt 1
 2244              	.LVL266:
 2245              	.LBE37:
 2246              	.LBE41:
 283:C:/Users/stapi/OneDrive/Desktop/GD32VW553/V1_MQTT_OK/GD32VW55X_Wifi_BLE_SDK/GD32VW55x_RELEASE_V1.0.2/MSDK/cloud/alicloud/src/infra/utils/misc\utils_httpc.c ****         utils_err("httpclient_parse_url fail returned %d", ret);
 2247              		.loc 1 283 5
 290:C:/Users/stapi/OneDrive/Desktop/GD32VW553/V1_MQTT_OK/GD32VW55X_Wifi_BLE_SDK/GD32VW55x_RELEASE_V1.0.2/MSDK/cloud/alicloud/src/infra/utils/misc\utils_httpc.c ****         /* client->remote_port = HTTP_PORT; */
 2248              		.loc 1 290 5
 294:C:/Users/stapi/OneDrive/Desktop/GD32VW553/V1_MQTT_OK/GD32VW55X_Wifi_BLE_SDK/GD32VW55x_RELEASE_V1.0.2/MSDK/cloud/alicloud/src/infra/utils/misc\utils_httpc.c ****     /* } */
 2249              		.loc 1 294 5
 297:C:/Users/stapi/OneDrive/Desktop/GD32VW553/V1_MQTT_OK/GD32VW55X_Wifi_BLE_SDK/GD32VW55x_RELEASE_V1.0.2/MSDK/cloud/alicloud/src/infra/utils/misc\utils_httpc.c **** 
 2250              		.loc 1 297 5
 311:C:/Users/stapi/OneDrive/Desktop/GD32VW553/V1_MQTT_OK/GD32VW55X_Wifi_BLE_SDK/GD32VW55x_RELEASE_V1.0.2/MSDK/cloud/alicloud/src/infra/utils/misc\utils_httpc.c **** #endif
 2251              		.loc 1 311 5 is_stmt 0
 2252 030a 2685     		mv	a0,s1
 297:C:/Users/stapi/OneDrive/Desktop/GD32VW553/V1_MQTT_OK/GD32VW55X_Wifi_BLE_SDK/GD32VW55x_RELEASE_V1.0.2/MSDK/cloud/alicloud/src/infra/utils/misc\utils_httpc.c **** 
 2253              		.loc 1 297 9
 2254 030c 02CA     		sw	zero,20(sp)
 311:C:/Users/stapi/OneDrive/Desktop/GD32VW553/V1_MQTT_OK/GD32VW55X_Wifi_BLE_SDK/GD32VW55x_RELEASE_V1.0.2/MSDK/cloud/alicloud/src/infra/utils/misc\utils_httpc.c **** #endif
 2255              		.loc 1 311 5 is_stmt 1
 2256 030e 97000000 		call	HAL_Snprintf
 2256      E7800000 
 2257              	.LVL267:
 313:C:/Users/stapi/OneDrive/Desktop/GD32VW553/V1_MQTT_OK/GD32VW55X_Wifi_BLE_SDK/GD32VW55x_RELEASE_V1.0.2/MSDK/cloud/alicloud/src/infra/utils/misc\utils_httpc.c ****     if (ret) {
 2258              		.loc 1 313 5
 313:C:/Users/stapi/OneDrive/Desktop/GD32VW553/V1_MQTT_OK/GD32VW55X_Wifi_BLE_SDK/GD32VW55x_RELEASE_V1.0.2/MSDK/cloud/alicloud/src/infra/utils/misc\utils_httpc.c ****     if (ret) {
 2259              		.loc 1 313 60 is_stmt 0
 2260 0316 2685     		mv	a0,s1
 2261 0318 97000000 		call	strlen
 2261      E7800000 
 2262              	.LVL268:
 2263 0320 2A87     		mv	a4,a0
 313:C:/Users/stapi/OneDrive/Desktop/GD32VW553/V1_MQTT_OK/GD32VW55X_Wifi_BLE_SDK/GD32VW55x_RELEASE_V1.0.2/MSDK/cloud/alicloud/src/infra/utils/misc\utils_httpc.c ****     if (ret) {
 2264              		.loc 1 313 11
 2265 0322 A686     		mv	a3,s1
 2266 0324 5008     		addi	a2,sp,20
 2267 0326 CA85     		mv	a1,s2
 2268 0328 5285     		mv	a0,s4
 2269 032a 97000000 		call	httpclient_get_info
 2269      E7800000 
 2270              	.LVL269:
 2271 0332 2A84     		mv	s0,a0
 2272              	.LVL270:
 314:C:/Users/stapi/OneDrive/Desktop/GD32VW553/V1_MQTT_OK/GD32VW55X_Wifi_BLE_SDK/GD32VW55x_RELEASE_V1.0.2/MSDK/cloud/alicloud/src/infra/utils/misc\utils_httpc.c ****         utils_err("Could not write request");
 2273              		.loc 1 314 5 is_stmt 1
 314:C:/Users/stapi/OneDrive/Desktop/GD32VW553/V1_MQTT_OK/GD32VW55X_Wifi_BLE_SDK/GD32VW55x_RELEASE_V1.0.2/MSDK/cloud/alicloud/src/infra/utils/misc\utils_httpc.c ****         utils_err("Could not write request");
 2274              		.loc 1 314 8 is_stmt 0
 2275 0334 15C1     		beq	a0,zero,.L140
 315:C:/Users/stapi/OneDrive/Desktop/GD32VW553/V1_MQTT_OK/GD32VW55X_Wifi_BLE_SDK/GD32VW55x_RELEASE_V1.0.2/MSDK/cloud/alicloud/src/infra/utils/misc\utils_httpc.c ****         goto err;
 2276              		.loc 1 315 9 is_stmt 1
 315:C:/Users/stapi/OneDrive/Desktop/GD32VW553/V1_MQTT_OK/GD32VW55X_Wifi_BLE_SDK/GD32VW55x_RELEASE_V1.0.2/MSDK/cloud/alicloud/src/infra/utils/misc\utils_httpc.c ****         goto err;
 2277              		.loc 1 315 9
 2278 0336 37050000 		lui	a0,%hi(.LC2)
 2279 033a 13050500 		addi	a0,a0,%lo(.LC2)
 2280 033e 97000000 		call	HAL_Printf
 2280      E7800000 
 2281              	.LVL271:
 315:C:/Users/stapi/OneDrive/Desktop/GD32VW553/V1_MQTT_OK/GD32VW55X_Wifi_BLE_SDK/GD32VW55x_RELEASE_V1.0.2/MSDK/cloud/alicloud/src/infra/utils/misc\utils_httpc.c ****         goto err;
 2282              		.loc 1 315 9
 2283 0346 37050000 		lui	a0,%hi(.LC40)
 2284 034a 13050500 		addi	a0,a0,%lo(.LC40)
 2285 034e 97000000 		call	HAL_Printf
 2285      E7800000 
 2286              	.LVL272:
 2287 0356 F5B3     		j	.L144
 2288              	.L140:
 320:C:/Users/stapi/OneDrive/Desktop/GD32VW553/V1_MQTT_OK/GD32VW55X_Wifi_BLE_SDK/GD32VW55x_RELEASE_V1.0.2/MSDK/cloud/alicloud/src/infra/utils/misc\utils_httpc.c ****         httpclient_send_auth(client, send_buf, &len); /* send out Basic Auth header */
 2289              		.loc 1 320 5
 320:C:/Users/stapi/OneDrive/Desktop/GD32VW553/V1_MQTT_OK/GD32VW55X_Wifi_BLE_SDK/GD32VW55x_RELEASE_V1.0.2/MSDK/cloud/alicloud/src/infra/utils/misc\utils_httpc.c ****         httpclient_send_auth(client, send_buf, &len); /* send out Basic Auth header */
 2290              		.loc 1 320 8 is_stmt 0
 2291 0358 8327CA02 		lw	a5,44(s4)
 2292 035c 81CB     		beq	a5,zero,.L106
 321:C:/Users/stapi/OneDrive/Desktop/GD32VW553/V1_MQTT_OK/GD32VW55X_Wifi_BLE_SDK/GD32VW55x_RELEASE_V1.0.2/MSDK/cloud/alicloud/src/infra/utils/misc\utils_httpc.c ****     }
 2293              		.loc 1 321 9 is_stmt 1
 2294 035e 5008     		addi	a2,sp,20
 2295 0360 CA85     		mv	a1,s2
 2296 0362 5285     		mv	a0,s4
 2297 0364 97000000 		call	httpclient_send_auth
 2297      E7800000 
 2298              	.LVL273:
 2299              	.L106:
 325:C:/Users/stapi/OneDrive/Desktop/GD32VW553/V1_MQTT_OK/GD32VW55X_Wifi_BLE_SDK/GD32VW55x_RELEASE_V1.0.2/MSDK/cloud/alicloud/src/infra/utils/misc\utils_httpc.c ****         httpclient_get_info(client, send_buf, &len, (char *) client->header, strlen(client->header)
 2300              		.loc 1 325 5
 325:C:/Users/stapi/OneDrive/Desktop/GD32VW553/V1_MQTT_OK/GD32VW55X_Wifi_BLE_SDK/GD32VW55x_RELEASE_V1.0.2/MSDK/cloud/alicloud/src/infra/utils/misc\utils_httpc.c ****         httpclient_get_info(client, send_buf, &len, (char *) client->header, strlen(client->header)
 2301              		.loc 1 325 15 is_stmt 0
 2302 036c 83268A02 		lw	a3,40(s4)
 325:C:/Users/stapi/OneDrive/Desktop/GD32VW553/V1_MQTT_OK/GD32VW55X_Wifi_BLE_SDK/GD32VW55x_RELEASE_V1.0.2/MSDK/cloud/alicloud/src/infra/utils/misc\utils_httpc.c ****         httpclient_get_info(client, send_buf, &len, (char *) client->header, strlen(client->header)
 2303              		.loc 1 325 8
 2304 0370 85C2     		beq	a3,zero,.L107
 326:C:/Users/stapi/OneDrive/Desktop/GD32VW553/V1_MQTT_OK/GD32VW55X_Wifi_BLE_SDK/GD32VW55x_RELEASE_V1.0.2/MSDK/cloud/alicloud/src/infra/utils/misc\utils_httpc.c ****     }
 2305              		.loc 1 326 9 is_stmt 1
 326:C:/Users/stapi/OneDrive/Desktop/GD32VW553/V1_MQTT_OK/GD32VW55X_Wifi_BLE_SDK/GD32VW55x_RELEASE_V1.0.2/MSDK/cloud/alicloud/src/infra/utils/misc\utils_httpc.c ****     }
 2306              		.loc 1 326 78 is_stmt 0
 2307 0372 3685     		mv	a0,a3
 2308 0374 36C6     		sw	a3,12(sp)
 2309 0376 97000000 		call	strlen
 2309      E7800000 
 2310              	.LVL274:
 326:C:/Users/stapi/OneDrive/Desktop/GD32VW553/V1_MQTT_OK/GD32VW55X_Wifi_BLE_SDK/GD32VW55x_RELEASE_V1.0.2/MSDK/cloud/alicloud/src/infra/utils/misc\utils_httpc.c ****     }
 2311              		.loc 1 326 9
 2312 037e B246     		lw	a3,12(sp)
 326:C:/Users/stapi/OneDrive/Desktop/GD32VW553/V1_MQTT_OK/GD32VW55X_Wifi_BLE_SDK/GD32VW55x_RELEASE_V1.0.2/MSDK/cloud/alicloud/src/infra/utils/misc\utils_httpc.c ****     }
 2313              		.loc 1 326 78
 2314 0380 2A87     		mv	a4,a0
 326:C:/Users/stapi/OneDrive/Desktop/GD32VW553/V1_MQTT_OK/GD32VW55X_Wifi_BLE_SDK/GD32VW55x_RELEASE_V1.0.2/MSDK/cloud/alicloud/src/infra/utils/misc\utils_httpc.c ****     }
 2315              		.loc 1 326 9
 2316 0382 5008     		addi	a2,sp,20
 2317 0384 CA85     		mv	a1,s2
 2318 0386 5285     		mv	a0,s4
 2319 0388 97000000 		call	httpclient_get_info
 2319      E7800000 
 2320              	.LVL275:
 2321              	.L107:
 329:C:/Users/stapi/OneDrive/Desktop/GD32VW553/V1_MQTT_OK/GD32VW55X_Wifi_BLE_SDK/GD32VW55x_RELEASE_V1.0.2/MSDK/cloud/alicloud/src/infra/utils/misc\utils_httpc.c ****         HAL_Snprintf(buf, HTTPCLIENT_SEND_BUF_SIZE, "Content-Length: %d\r\n", client_data->post_buf
 2322              		.loc 1 329 5 is_stmt 1
 329:C:/Users/stapi/OneDrive/Desktop/GD32VW553/V1_MQTT_OK/GD32VW55X_Wifi_BLE_SDK/GD32VW55x_RELEASE_V1.0.2/MSDK/cloud/alicloud/src/infra/utils/misc\utils_httpc.c ****         HAL_Snprintf(buf, HTTPCLIENT_SEND_BUF_SIZE, "Content-Length: %d\r\n", client_data->post_buf
 2323              		.loc 1 329 8 is_stmt 0
 2324 0390 83270C02 		lw	a5,32(s8)
 2325 0394 A5CB     		beq	a5,zero,.L109
 330:C:/Users/stapi/OneDrive/Desktop/GD32VW553/V1_MQTT_OK/GD32VW55X_Wifi_BLE_SDK/GD32VW55x_RELEASE_V1.0.2/MSDK/cloud/alicloud/src/infra/utils/misc\utils_httpc.c ****         httpclient_get_info(client, send_buf, &len, buf, strlen(buf));
 2326              		.loc 1 330 9 is_stmt 1
 2327 0396 83264C01 		lw	a3,20(s8)
 2328 039a 37060000 		lui	a2,%hi(.LC41)
 2329 039e 13060600 		addi	a2,a2,%lo(.LC41)
 2330 03a2 93050040 		li	a1,1024
 2331 03a6 2685     		mv	a0,s1
 2332 03a8 97000000 		call	HAL_Snprintf
 2332      E7800000 
 2333              	.LVL276:
 331:C:/Users/stapi/OneDrive/Desktop/GD32VW553/V1_MQTT_OK/GD32VW55X_Wifi_BLE_SDK/GD32VW55x_RELEASE_V1.0.2/MSDK/cloud/alicloud/src/infra/utils/misc\utils_httpc.c **** 
 2334              		.loc 1 331 9
 331:C:/Users/stapi/OneDrive/Desktop/GD32VW553/V1_MQTT_OK/GD32VW55X_Wifi_BLE_SDK/GD32VW55x_RELEASE_V1.0.2/MSDK/cloud/alicloud/src/infra/utils/misc\utils_httpc.c **** 
 2335              		.loc 1 331 58 is_stmt 0
 2336 03b0 2685     		mv	a0,s1
 2337 03b2 97000000 		call	strlen
 2337      E7800000 
 2338              	.LVL277:
 2339 03ba 2A87     		mv	a4,a0
 331:C:/Users/stapi/OneDrive/Desktop/GD32VW553/V1_MQTT_OK/GD32VW55X_Wifi_BLE_SDK/GD32VW55x_RELEASE_V1.0.2/MSDK/cloud/alicloud/src/infra/utils/misc\utils_httpc.c **** 
 2340              		.loc 1 331 9
 2341 03bc A686     		mv	a3,s1
 2342 03be 5008     		addi	a2,sp,20
 2343 03c0 CA85     		mv	a1,s2
 2344 03c2 5285     		mv	a0,s4
 2345 03c4 97000000 		call	httpclient_get_info
 2345      E7800000 
 2346              	.LVL278:
 333:C:/Users/stapi/OneDrive/Desktop/GD32VW553/V1_MQTT_OK/GD32VW55X_Wifi_BLE_SDK/GD32VW55x_RELEASE_V1.0.2/MSDK/cloud/alicloud/src/infra/utils/misc\utils_httpc.c ****             HAL_Snprintf(buf, HTTPCLIENT_SEND_BUF_SIZE, "Content-Type: %s\r\n", client_data->post_c
 2347              		.loc 1 333 9 is_stmt 1
 333:C:/Users/stapi/OneDrive/Desktop/GD32VW553/V1_MQTT_OK/GD32VW55X_Wifi_BLE_SDK/GD32VW55x_RELEASE_V1.0.2/MSDK/cloud/alicloud/src/infra/utils/misc\utils_httpc.c ****             HAL_Snprintf(buf, HTTPCLIENT_SEND_BUF_SIZE, "Content-Type: %s\r\n", client_data->post_c
 2348              		.loc 1 333 24 is_stmt 0
 2349 03cc 8326CC01 		lw	a3,28(s8)
 333:C:/Users/stapi/OneDrive/Desktop/GD32VW553/V1_MQTT_OK/GD32VW55X_Wifi_BLE_SDK/GD32VW55x_RELEASE_V1.0.2/MSDK/cloud/alicloud/src/infra/utils/misc\utils_httpc.c ****             HAL_Snprintf(buf, HTTPCLIENT_SEND_BUF_SIZE, "Content-Type: %s\r\n", client_data->post_c
 2350              		.loc 1 333 12
 2351 03d0 95CA     		beq	a3,zero,.L109
 334:C:/Users/stapi/OneDrive/Desktop/GD32VW553/V1_MQTT_OK/GD32VW55X_Wifi_BLE_SDK/GD32VW55x_RELEASE_V1.0.2/MSDK/cloud/alicloud/src/infra/utils/misc\utils_httpc.c ****             httpclient_get_info(client, send_buf, &len, buf, strlen(buf));
 2352              		.loc 1 334 13 is_stmt 1
 2353 03d2 37060000 		lui	a2,%hi(.LC42)
 2354 03d6 13060600 		addi	a2,a2,%lo(.LC42)
 2355 03da 93050040 		li	a1,1024
 2356 03de 2685     		mv	a0,s1
 2357 03e0 97000000 		call	HAL_Snprintf
 2357      E7800000 
 2358              	.LVL279:
 335:C:/Users/stapi/OneDrive/Desktop/GD32VW553/V1_MQTT_OK/GD32VW55X_Wifi_BLE_SDK/GD32VW55x_RELEASE_V1.0.2/MSDK/cloud/alicloud/src/infra/utils/misc\utils_httpc.c ****         }
 2359              		.loc 1 335 13
 335:C:/Users/stapi/OneDrive/Desktop/GD32VW553/V1_MQTT_OK/GD32VW55X_Wifi_BLE_SDK/GD32VW55x_RELEASE_V1.0.2/MSDK/cloud/alicloud/src/infra/utils/misc\utils_httpc.c ****         }
 2360              		.loc 1 335 62 is_stmt 0
 2361 03e8 2685     		mv	a0,s1
 2362 03ea 97000000 		call	strlen
 2362      E7800000 
 2363              	.LVL280:
 2364 03f2 2A87     		mv	a4,a0
 335:C:/Users/stapi/OneDrive/Desktop/GD32VW553/V1_MQTT_OK/GD32VW55X_Wifi_BLE_SDK/GD32VW55x_RELEASE_V1.0.2/MSDK/cloud/alicloud/src/infra/utils/misc\utils_httpc.c ****         }
 2365              		.loc 1 335 13
 2366 03f4 A686     		mv	a3,s1
 2367 03f6 5008     		addi	a2,sp,20
 2368 03f8 CA85     		mv	a1,s2
 2369 03fa 5285     		mv	a0,s4
 2370 03fc 97000000 		call	httpclient_get_info
 2370      E7800000 
 2371              	.LVL281:
 2372              	.L109:
 340:C:/Users/stapi/OneDrive/Desktop/GD32VW553/V1_MQTT_OK/GD32VW55X_Wifi_BLE_SDK/GD32VW55x_RELEASE_V1.0.2/MSDK/cloud/alicloud/src/infra/utils/misc\utils_httpc.c ****     log_multi_line(LOG_DEBUG_LEVEL, "REQUEST", "%s", send_buf, ">");
 2373              		.loc 1 340 5 is_stmt 1
 2374 0404 0147     		li	a4,0
 2375 0406 93860A00 		addi	a3,s5,%lo(.LC4)
 2376 040a 5008     		addi	a2,sp,20
 2377 040c CA85     		mv	a1,s2
 2378 040e 5285     		mv	a0,s4
 2379 0410 97000000 		call	httpclient_get_info
 2379      E7800000 
 2380              	.LVL282:
 341:C:/Users/stapi/OneDrive/Desktop/GD32VW553/V1_MQTT_OK/GD32VW55X_Wifi_BLE_SDK/GD32VW55x_RELEASE_V1.0.2/MSDK/cloud/alicloud/src/infra/utils/misc\utils_httpc.c **** 
 2381              		.loc 1 341 5
 2382 0418 B7070000 		lui	a5,%hi(.LC43)
 2383 041c 37060000 		lui	a2,%hi(.LC44)
 2384 0420 37050000 		lui	a0,%hi(.LANCHOR3)
 2385 0424 93870700 		addi	a5,a5,%lo(.LC43)
 2386 0428 4A87     		mv	a4,s2
 2387 042a 9546     		li	a3,5
 2388 042c 13060600 		addi	a2,a2,%lo(.LC44)
 2389 0430 93055015 		li	a1,341
 2390 0434 13050500 		addi	a0,a0,%lo(.LANCHOR3)
 2391 0438 97000000 		call	log_multi_line_internal
 2391      E7800000 
 2392              	.LVL283:
 344:C:/Users/stapi/OneDrive/Desktop/GD32VW553/V1_MQTT_OK/GD32VW55X_Wifi_BLE_SDK/GD32VW55x_RELEASE_V1.0.2/MSDK/cloud/alicloud/src/infra/utils/misc\utils_httpc.c ****     if (ret > 0) {
 2393              		.loc 1 344 5
 344:C:/Users/stapi/OneDrive/Desktop/GD32VW553/V1_MQTT_OK/GD32VW55X_Wifi_BLE_SDK/GD32VW55x_RELEASE_V1.0.2/MSDK/cloud/alicloud/src/infra/utils/misc\utils_httpc.c ****     if (ret > 0) {
 2394              		.loc 1 344 11 is_stmt 0
 2395 0440 83278A01 		lw	a5,24(s4)
 2396 0444 5246     		lw	a2,20(sp)
 2397 0446 8566     		li	a3,4096
 2398 0448 93868638 		addi	a3,a3,904
 2399 044c CA85     		mv	a1,s2
 2400 044e 13054A00 		addi	a0,s4,4
 2401 0452 8297     		jalr	a5
 2402              	.LVL284:
 2403 0454 AA87     		mv	a5,a0
 2404              	.LVL285:
 345:C:/Users/stapi/OneDrive/Desktop/GD32VW553/V1_MQTT_OK/GD32VW55X_Wifi_BLE_SDK/GD32VW55x_RELEASE_V1.0.2/MSDK/cloud/alicloud/src/infra/utils/misc\utils_httpc.c ****         utils_debug("Written %d bytes", ret);
 2405              		.loc 1 345 5 is_stmt 1
 345:C:/Users/stapi/OneDrive/Desktop/GD32VW553/V1_MQTT_OK/GD32VW55X_Wifi_BLE_SDK/GD32VW55x_RELEASE_V1.0.2/MSDK/cloud/alicloud/src/infra/utils/misc\utils_httpc.c ****         utils_debug("Written %d bytes", ret);
 2406              		.loc 1 345 8 is_stmt 0
 2407 0456 6356A002 		ble	a0,zero,.L111
 346:C:/Users/stapi/OneDrive/Desktop/GD32VW553/V1_MQTT_OK/GD32VW55X_Wifi_BLE_SDK/GD32VW55x_RELEASE_V1.0.2/MSDK/cloud/alicloud/src/infra/utils/misc\utils_httpc.c ****     } else if (ret == 0) {
 2408              		.loc 1 346 9 is_stmt 1
 2409 045a 37070000 		lui	a4,%hi(.LC45)
 2410 045e B7050000 		lui	a1,%hi(.LANCHOR4)
 2411 0462 37050000 		lui	a0,%hi(.LC1)
 2412              	.LVL286:
 2413 0466 13070700 		addi	a4,a4,%lo(.LC45)
 2414 046a 9546     		li	a3,5
 2415 046c 1306A015 		li	a2,346
 2416 0470 93850500 		addi	a1,a1,%lo(.LANCHOR4)
 2417 0474 13050500 		addi	a0,a0,%lo(.LC1)
 2418 0478 97000000 		call	LITE_syslog
 2418      E7800000 
 2419              	.LVL287:
 356:C:/Users/stapi/OneDrive/Desktop/GD32VW553/V1_MQTT_OK/GD32VW55X_Wifi_BLE_SDK/GD32VW55x_RELEASE_V1.0.2/MSDK/cloud/alicloud/src/infra/utils/misc\utils_httpc.c **** err:
 2420              		.loc 1 356 5
 2421 0480 F9B1     		j	.L94
 2422              	.LVL288:
 2423              	.L111:
 347:C:/Users/stapi/OneDrive/Desktop/GD32VW553/V1_MQTT_OK/GD32VW55X_Wifi_BLE_SDK/GD32VW55x_RELEASE_V1.0.2/MSDK/cloud/alicloud/src/infra/utils/misc\utils_httpc.c ****         utils_err("ret == 0,Connection was closed by server");
 2424              		.loc 1 347 12
 2425 0482 37050000 		lui	a0,%hi(.LC2)
 2426              	.LVL289:
 347:C:/Users/stapi/OneDrive/Desktop/GD32VW553/V1_MQTT_OK/GD32VW55X_Wifi_BLE_SDK/GD32VW55x_RELEASE_V1.0.2/MSDK/cloud/alicloud/src/infra/utils/misc\utils_httpc.c ****         utils_err("ret == 0,Connection was closed by server");
 2427              		.loc 1 347 15 is_stmt 0
 2428 0486 9DE7     		bne	a5,zero,.L112
 348:C:/Users/stapi/OneDrive/Desktop/GD32VW553/V1_MQTT_OK/GD32VW55X_Wifi_BLE_SDK/GD32VW55x_RELEASE_V1.0.2/MSDK/cloud/alicloud/src/infra/utils/misc\utils_httpc.c ****         ret = ERROR_HTTP_CLOSED;/* Connection was closed by server */
 2429              		.loc 1 348 9 is_stmt 1
 348:C:/Users/stapi/OneDrive/Desktop/GD32VW553/V1_MQTT_OK/GD32VW55X_Wifi_BLE_SDK/GD32VW55x_RELEASE_V1.0.2/MSDK/cloud/alicloud/src/infra/utils/misc\utils_httpc.c ****         ret = ERROR_HTTP_CLOSED;/* Connection was closed by server */
 2430              		.loc 1 348 9
 2431 0488 13050500 		addi	a0,a0,%lo(.LC2)
 2432 048c 97000000 		call	HAL_Printf
 2432      E7800000 
 2433              	.LVL290:
 348:C:/Users/stapi/OneDrive/Desktop/GD32VW553/V1_MQTT_OK/GD32VW55X_Wifi_BLE_SDK/GD32VW55x_RELEASE_V1.0.2/MSDK/cloud/alicloud/src/infra/utils/misc\utils_httpc.c ****         ret = ERROR_HTTP_CLOSED;/* Connection was closed by server */
 2434              		.loc 1 348 9
 2435 0494 37050000 		lui	a0,%hi(.LC46)
 2436 0498 13050500 		addi	a0,a0,%lo(.LC46)
 2437 049c 97000000 		call	HAL_Printf
 2437      E7800000 
 2438              	.LVL291:
 348:C:/Users/stapi/OneDrive/Desktop/GD32VW553/V1_MQTT_OK/GD32VW55X_Wifi_BLE_SDK/GD32VW55x_RELEASE_V1.0.2/MSDK/cloud/alicloud/src/infra/utils/misc\utils_httpc.c ****         ret = ERROR_HTTP_CLOSED;/* Connection was closed by server */
 2439              		.loc 1 348 9
 2440 04a4 13850A00 		addi	a0,s5,%lo(.LC4)
 2441 04a8 97000000 		call	HAL_Printf
 2441      E7800000 
 2442              	.LVL292:
 348:C:/Users/stapi/OneDrive/Desktop/GD32VW553/V1_MQTT_OK/GD32VW55X_Wifi_BLE_SDK/GD32VW55x_RELEASE_V1.0.2/MSDK/cloud/alicloud/src/infra/utils/misc\utils_httpc.c ****         ret = ERROR_HTTP_CLOSED;/* Connection was closed by server */
 2443              		.loc 1 348 9
 349:C:/Users/stapi/OneDrive/Desktop/GD32VW553/V1_MQTT_OK/GD32VW55X_Wifi_BLE_SDK/GD32VW55x_RELEASE_V1.0.2/MSDK/cloud/alicloud/src/infra/utils/misc\utils_httpc.c ****         goto err;
 2444              		.loc 1 349 9
 350:C:/Users/stapi/OneDrive/Desktop/GD32VW553/V1_MQTT_OK/GD32VW55X_Wifi_BLE_SDK/GD32VW55x_RELEASE_V1.0.2/MSDK/cloud/alicloud/src/infra/utils/misc\utils_httpc.c ****     } else {
 2445              		.loc 1 350 9
 349:C:/Users/stapi/OneDrive/Desktop/GD32VW553/V1_MQTT_OK/GD32VW55X_Wifi_BLE_SDK/GD32VW55x_RELEASE_V1.0.2/MSDK/cloud/alicloud/src/infra/utils/misc\utils_httpc.c ****         goto err;
 2446              		.loc 1 349 13 is_stmt 0
 2447 04b0 7554     		li	s0,-3
 350:C:/Users/stapi/OneDrive/Desktop/GD32VW553/V1_MQTT_OK/GD32VW55X_Wifi_BLE_SDK/GD32VW55x_RELEASE_V1.0.2/MSDK/cloud/alicloud/src/infra/utils/misc\utils_httpc.c ****     } else {
 2448              		.loc 1 350 9
 2449 04b2 71B9     		j	.L94
 2450              	.LVL293:
 2451              	.L112:
 352:C:/Users/stapi/OneDrive/Desktop/GD32VW553/V1_MQTT_OK/GD32VW55X_Wifi_BLE_SDK/GD32VW55x_RELEASE_V1.0.2/MSDK/cloud/alicloud/src/infra/utils/misc\utils_httpc.c ****         ret = ERROR_HTTP_CONN;
 2452              		.loc 1 352 9
 2453 04b4 13050500 		addi	a0,a0,%lo(.LC2)
 2454 04b8 3EC6     		sw	a5,12(sp)
 352:C:/Users/stapi/OneDrive/Desktop/GD32VW553/V1_MQTT_OK/GD32VW55X_Wifi_BLE_SDK/GD32VW55x_RELEASE_V1.0.2/MSDK/cloud/alicloud/src/infra/utils/misc\utils_httpc.c ****         ret = ERROR_HTTP_CONN;
 2455              		.loc 1 352 9 is_stmt 1
 352:C:/Users/stapi/OneDrive/Desktop/GD32VW553/V1_MQTT_OK/GD32VW55X_Wifi_BLE_SDK/GD32VW55x_RELEASE_V1.0.2/MSDK/cloud/alicloud/src/infra/utils/misc\utils_httpc.c ****         ret = ERROR_HTTP_CONN;
 2456              		.loc 1 352 9
 2457 04ba 97000000 		call	HAL_Printf
 2457      E7800000 
 2458              	.LVL294:
 352:C:/Users/stapi/OneDrive/Desktop/GD32VW553/V1_MQTT_OK/GD32VW55X_Wifi_BLE_SDK/GD32VW55x_RELEASE_V1.0.2/MSDK/cloud/alicloud/src/infra/utils/misc\utils_httpc.c ****         ret = ERROR_HTTP_CONN;
 2459              		.loc 1 352 9
 2460 04c2 B247     		lw	a5,12(sp)
 2461 04c4 37050000 		lui	a0,%hi(.LC47)
 2462 04c8 13050500 		addi	a0,a0,%lo(.LC47)
 2463 04cc BE85     		mv	a1,a5
 2464 04ce 97000000 		call	HAL_Printf
 2464      E7800000 
 2465              	.LVL295:
 352:C:/Users/stapi/OneDrive/Desktop/GD32VW553/V1_MQTT_OK/GD32VW55X_Wifi_BLE_SDK/GD32VW55x_RELEASE_V1.0.2/MSDK/cloud/alicloud/src/infra/utils/misc\utils_httpc.c ****         ret = ERROR_HTTP_CONN;
 2466              		.loc 1 352 9
 2467 04d6 13850A00 		addi	a0,s5,%lo(.LC4)
 2468 04da 97000000 		call	HAL_Printf
 2468      E7800000 
 2469              	.LVL296:
 352:C:/Users/stapi/OneDrive/Desktop/GD32VW553/V1_MQTT_OK/GD32VW55X_Wifi_BLE_SDK/GD32VW55x_RELEASE_V1.0.2/MSDK/cloud/alicloud/src/infra/utils/misc\utils_httpc.c ****         ret = ERROR_HTTP_CONN;
 2470              		.loc 1 352 9
 353:C:/Users/stapi/OneDrive/Desktop/GD32VW553/V1_MQTT_OK/GD32VW55X_Wifi_BLE_SDK/GD32VW55x_RELEASE_V1.0.2/MSDK/cloud/alicloud/src/infra/utils/misc\utils_httpc.c ****         goto err;
 2471              		.loc 1 353 9
 354:C:/Users/stapi/OneDrive/Desktop/GD32VW553/V1_MQTT_OK/GD32VW55X_Wifi_BLE_SDK/GD32VW55x_RELEASE_V1.0.2/MSDK/cloud/alicloud/src/infra/utils/misc\utils_httpc.c ****     }
 2472              		.loc 1 354 9
 353:C:/Users/stapi/OneDrive/Desktop/GD32VW553/V1_MQTT_OK/GD32VW55X_Wifi_BLE_SDK/GD32VW55x_RELEASE_V1.0.2/MSDK/cloud/alicloud/src/infra/utils/misc\utils_httpc.c ****         goto err;
 2473              		.loc 1 353 13 is_stmt 0
 2474 04e2 6154     		li	s0,-8
 354:C:/Users/stapi/OneDrive/Desktop/GD32VW553/V1_MQTT_OK/GD32VW55X_Wifi_BLE_SDK/GD32VW55x_RELEASE_V1.0.2/MSDK/cloud/alicloud/src/infra/utils/misc\utils_httpc.c ****     }
 2475              		.loc 1 354 9
 2476 04e4 ADB1     		j	.L94
 2477              	.LVL297:
 2478              	.L117:
 246:C:/Users/stapi/OneDrive/Desktop/GD32VW553/V1_MQTT_OK/GD32VW55X_Wifi_BLE_SDK/GD32VW55x_RELEASE_V1.0.2/MSDK/cloud/alicloud/src/infra/utils/misc\utils_httpc.c **** 
 2479              		.loc 1 246 11
 2480 04e6 8144     		li	s1,0
 245:C:/Users/stapi/OneDrive/Desktop/GD32VW553/V1_MQTT_OK/GD32VW55X_Wifi_BLE_SDK/GD32VW55x_RELEASE_V1.0.2/MSDK/cloud/alicloud/src/infra/utils/misc\utils_httpc.c ****     char *buf = NULL;
 2481              		.loc 1 245 11
 2482 04e8 0149     		li	s2,0
 2483              	.LVL298:
 2484              	.L145:
 260:C:/Users/stapi/OneDrive/Desktop/GD32VW553/V1_MQTT_OK/GD32VW55X_Wifi_BLE_SDK/GD32VW55x_RELEASE_V1.0.2/MSDK/cloud/alicloud/src/infra/utils/misc\utils_httpc.c ****         goto err;
 2485              		.loc 1 260 13
 2486 04ea 1304B0C0 		li	s0,-1013
 2487 04ee 85B1     		j	.L94
 2488              	.LVL299:
 2489              	.L118:
 246:C:/Users/stapi/OneDrive/Desktop/GD32VW553/V1_MQTT_OK/GD32VW55X_Wifi_BLE_SDK/GD32VW55x_RELEASE_V1.0.2/MSDK/cloud/alicloud/src/infra/utils/misc\utils_httpc.c **** 
 2490              		.loc 1 246 11
 2491 04f0 8144     		li	s1,0
 2492 04f2 E5BF     		j	.L145
 2493              		.cfi_endproc
 2494              	.LFE26:
 2496              		.section	.rodata.httpclient_send_userdata.str1.4,"aMS",@progbits,1
 2497              		.align	2
 2498              	.LC48:
 2499 0000 636C6965 		.string	"client_data->post_buf: %s"
 2499      6E745F64 
 2499      6174612D 
 2499      3E706F73 
 2499      745F6275 
 2500 001a 0000     		.align	2
 2501              	.LC49:
 2502 001c 72657420 		.string	"ret == 0, Connection was closed by server"
 2502      3D3D2030 
 2502      2C20436F 
 2502      6E6E6563 
 2502      74696F6E 
 2503              		.section	.text.httpclient_send_userdata,"ax",@progbits
 2504              		.align	1
 2505              		.globl	httpclient_send_userdata
 2507              	httpclient_send_userdata:
 2508              	.LFB27:
 374:C:/Users/stapi/OneDrive/Desktop/GD32VW553/V1_MQTT_OK/GD32VW55X_Wifi_BLE_SDK/GD32VW55x_RELEASE_V1.0.2/MSDK/cloud/alicloud/src/infra/utils/misc\utils_httpc.c ****     int ret = 0;
 2509              		.loc 1 374 1 is_stmt 1
 2510              		.cfi_startproc
 2511              	.LVL300:
 375:C:/Users/stapi/OneDrive/Desktop/GD32VW553/V1_MQTT_OK/GD32VW55X_Wifi_BLE_SDK/GD32VW55x_RELEASE_V1.0.2/MSDK/cloud/alicloud/src/infra/utils/misc\utils_httpc.c **** 
 2512              		.loc 1 375 5
 377:C:/Users/stapi/OneDrive/Desktop/GD32VW553/V1_MQTT_OK/GD32VW55X_Wifi_BLE_SDK/GD32VW55x_RELEASE_V1.0.2/MSDK/cloud/alicloud/src/infra/utils/misc\utils_httpc.c ****         utils_debug("client_data->post_buf: %s", client_data->post_buf);
 2513              		.loc 1 377 5
 377:C:/Users/stapi/OneDrive/Desktop/GD32VW553/V1_MQTT_OK/GD32VW55X_Wifi_BLE_SDK/GD32VW55x_RELEASE_V1.0.2/MSDK/cloud/alicloud/src/infra/utils/misc\utils_httpc.c ****         utils_debug("client_data->post_buf: %s", client_data->post_buf);
 2514              		.loc 1 377 20 is_stmt 0
 2515 0000 9C51     		lw	a5,32(a1)
 377:C:/Users/stapi/OneDrive/Desktop/GD32VW553/V1_MQTT_OK/GD32VW55X_Wifi_BLE_SDK/GD32VW55x_RELEASE_V1.0.2/MSDK/cloud/alicloud/src/infra/utils/misc\utils_httpc.c ****         utils_debug("client_data->post_buf: %s", client_data->post_buf);
 2516              		.loc 1 377 8
 2517 0002 F5C3     		beq	a5,zero,.L150
 374:C:/Users/stapi/OneDrive/Desktop/GD32VW553/V1_MQTT_OK/GD32VW55X_Wifi_BLE_SDK/GD32VW55x_RELEASE_V1.0.2/MSDK/cloud/alicloud/src/infra/utils/misc\utils_httpc.c ****     int ret = 0;
 2518              		.loc 1 374 1 discriminator 1
 2519 0004 17030000 		call	t0,__riscv_save_4
 2519      E7020300 
 2520              		.cfi_offset 19, -20
 2521              		.cfi_offset 18, -16
 2522              		.cfi_offset 9, -12
 2523              		.cfi_offset 8, -8
 2524              		.cfi_offset 1, -4
 2525              		.cfi_def_cfa_offset 32
 2526 000c AA84     		mv	s1,a0
 377:C:/Users/stapi/OneDrive/Desktop/GD32VW553/V1_MQTT_OK/GD32VW55X_Wifi_BLE_SDK/GD32VW55x_RELEASE_V1.0.2/MSDK/cloud/alicloud/src/infra/utils/misc\utils_httpc.c ****         utils_debug("client_data->post_buf: %s", client_data->post_buf);
 2527              		.loc 1 377 45 discriminator 1
 2528 000e C849     		lw	a0,20(a1)
 2529              	.LVL301:
 374:C:/Users/stapi/OneDrive/Desktop/GD32VW553/V1_MQTT_OK/GD32VW55X_Wifi_BLE_SDK/GD32VW55x_RELEASE_V1.0.2/MSDK/cloud/alicloud/src/infra/utils/misc\utils_httpc.c ****     int ret = 0;
 2530              		.loc 1 374 1 discriminator 1
 2531 0010 4111     		addi	sp,sp,-16
 2532              		.cfi_def_cfa_offset 48
 2533 0012 2E84     		mv	s0,a1
 377:C:/Users/stapi/OneDrive/Desktop/GD32VW553/V1_MQTT_OK/GD32VW55X_Wifi_BLE_SDK/GD32VW55x_RELEASE_V1.0.2/MSDK/cloud/alicloud/src/infra/utils/misc\utils_httpc.c ****         utils_debug("client_data->post_buf: %s", client_data->post_buf);
 2534              		.loc 1 377 31 discriminator 1
 2535 0014 25C1     		beq	a0,zero,.L146
 378:C:/Users/stapi/OneDrive/Desktop/GD32VW553/V1_MQTT_OK/GD32VW55X_Wifi_BLE_SDK/GD32VW55x_RELEASE_V1.0.2/MSDK/cloud/alicloud/src/infra/utils/misc\utils_httpc.c ****         {
 2536              		.loc 1 378 9 is_stmt 1
 2537 0016 B7090000 		lui	s3,%hi(.LANCHOR5)
 2538 001a 37070000 		lui	a4,%hi(.LC48)
 2539 001e 37090000 		lui	s2,%hi(.LC1)
 2540 0022 13070700 		addi	a4,a4,%lo(.LC48)
 2541 0026 9546     		li	a3,5
 2542 0028 1306A017 		li	a2,378
 2543 002c 93850900 		addi	a1,s3,%lo(.LANCHOR5)
 2544              	.LVL302:
 2545 0030 13050900 		addi	a0,s2,%lo(.LC1)
 2546 0034 97000000 		call	LITE_syslog
 2546      E7800000 
 2547              	.LVL303:
 381:C:/Users/stapi/OneDrive/Desktop/GD32VW553/V1_MQTT_OK/GD32VW55X_Wifi_BLE_SDK/GD32VW55x_RELEASE_V1.0.2/MSDK/cloud/alicloud/src/infra/utils/misc\utils_httpc.c ****             if (ret > 0) {
 2548              		.loc 1 381 13
 381:C:/Users/stapi/OneDrive/Desktop/GD32VW553/V1_MQTT_OK/GD32VW55X_Wifi_BLE_SDK/GD32VW55x_RELEASE_V1.0.2/MSDK/cloud/alicloud/src/infra/utils/misc\utils_httpc.c ****             if (ret > 0) {
 2549              		.loc 1 381 19 is_stmt 0
 2550 003c 9C4C     		lw	a5,24(s1)
 2551 003e 5048     		lw	a2,20(s0)
 2552 0040 0C50     		lw	a1,32(s0)
 2553 0042 8566     		li	a3,4096
 2554 0044 93868638 		addi	a3,a3,904
 2555 0048 13854400 		addi	a0,s1,4
 2556 004c 8297     		jalr	a5
 2557              	.LVL304:
 2558 004e AA87     		mv	a5,a0
 2559              	.LVL305:
 382:C:/Users/stapi/OneDrive/Desktop/GD32VW553/V1_MQTT_OK/GD32VW55X_Wifi_BLE_SDK/GD32VW55x_RELEASE_V1.0.2/MSDK/cloud/alicloud/src/infra/utils/misc\utils_httpc.c ****                 utils_debug("Written %d bytes", ret);
 2560              		.loc 1 382 13 is_stmt 1
 382:C:/Users/stapi/OneDrive/Desktop/GD32VW553/V1_MQTT_OK/GD32VW55X_Wifi_BLE_SDK/GD32VW55x_RELEASE_V1.0.2/MSDK/cloud/alicloud/src/infra/utils/misc\utils_httpc.c ****                 utils_debug("Written %d bytes", ret);
 2561              		.loc 1 382 16 is_stmt 0
 2562 0050 6357A002 		ble	a0,zero,.L148
 383:C:/Users/stapi/OneDrive/Desktop/GD32VW553/V1_MQTT_OK/GD32VW55X_Wifi_BLE_SDK/GD32VW55x_RELEASE_V1.0.2/MSDK/cloud/alicloud/src/infra/utils/misc\utils_httpc.c ****             } else if (ret == 0) {
 2563              		.loc 1 383 17 is_stmt 1
 2564 0054 37070000 		lui	a4,%hi(.LC45)
 2565 0058 13050900 		addi	a0,s2,%lo(.LC1)
 2566              	.LVL306:
 2567 005c 13070700 		addi	a4,a4,%lo(.LC45)
 2568 0060 9546     		li	a3,5
 2569 0062 1306F017 		li	a2,383
 2570 0066 93850900 		addi	a1,s3,%lo(.LANCHOR5)
 2571 006a 97000000 		call	LITE_syslog
 2571      E7800000 
 2572              	.LVL307:
 393:C:/Users/stapi/OneDrive/Desktop/GD32VW553/V1_MQTT_OK/GD32VW55X_Wifi_BLE_SDK/GD32VW55x_RELEASE_V1.0.2/MSDK/cloud/alicloud/src/infra/utils/misc\utils_httpc.c **** }
 2573              		.loc 1 393 12 is_stmt 0
 2574 0072 0145     		li	a0,0
 2575              	.LVL308:
 2576              	.L146:
 394:C:/Users/stapi/OneDrive/Desktop/GD32VW553/V1_MQTT_OK/GD32VW55X_Wifi_BLE_SDK/GD32VW55x_RELEASE_V1.0.2/MSDK/cloud/alicloud/src/infra/utils/misc\utils_httpc.c **** 
 2577              		.loc 1 394 1
 2578 0074 4101     		addi	sp,sp,16
 2579              		.cfi_remember_state
 2580              		.cfi_def_cfa_offset 0
 2581 0076 17030000 		tail	__riscv_restore_4
 2581      67000300 
 2582              		.cfi_restore 19
 2583              		.cfi_restore 18
 2584              		.cfi_restore 9
 2585              		.cfi_restore 8
 2586              		.cfi_restore 1
 2587              		.cfi_def_cfa_offset -32
 2588              	.LVL309:
 2589              	.L148:
 2590              		.cfi_restore_state
 384:C:/Users/stapi/OneDrive/Desktop/GD32VW553/V1_MQTT_OK/GD32VW55X_Wifi_BLE_SDK/GD32VW55x_RELEASE_V1.0.2/MSDK/cloud/alicloud/src/infra/utils/misc\utils_httpc.c ****                 utils_err("ret == 0, Connection was closed by server");
 2591              		.loc 1 384 20 is_stmt 1
 2592 007e 37050000 		lui	a0,%hi(.LC2)
 2593              	.LVL310:
 2594 0082 37040000 		lui	s0,%hi(.LC4)
 2595              	.LVL311:
 384:C:/Users/stapi/OneDrive/Desktop/GD32VW553/V1_MQTT_OK/GD32VW55X_Wifi_BLE_SDK/GD32VW55x_RELEASE_V1.0.2/MSDK/cloud/alicloud/src/infra/utils/misc\utils_httpc.c ****                 utils_err("ret == 0, Connection was closed by server");
 2596              		.loc 1 384 23 is_stmt 0
 2597 0086 9DE7     		bne	a5,zero,.L149
 385:C:/Users/stapi/OneDrive/Desktop/GD32VW553/V1_MQTT_OK/GD32VW55X_Wifi_BLE_SDK/GD32VW55x_RELEASE_V1.0.2/MSDK/cloud/alicloud/src/infra/utils/misc\utils_httpc.c ****                 return ERROR_HTTP_CLOSED; /* Connection was closed by server */
 2598              		.loc 1 385 17 is_stmt 1
 385:C:/Users/stapi/OneDrive/Desktop/GD32VW553/V1_MQTT_OK/GD32VW55X_Wifi_BLE_SDK/GD32VW55x_RELEASE_V1.0.2/MSDK/cloud/alicloud/src/infra/utils/misc\utils_httpc.c ****                 return ERROR_HTTP_CLOSED; /* Connection was closed by server */
 2599              		.loc 1 385 17
 2600 0088 13050500 		addi	a0,a0,%lo(.LC2)
 2601 008c 97000000 		call	HAL_Printf
 2601      E7800000 
 2602              	.LVL312:
 385:C:/Users/stapi/OneDrive/Desktop/GD32VW553/V1_MQTT_OK/GD32VW55X_Wifi_BLE_SDK/GD32VW55x_RELEASE_V1.0.2/MSDK/cloud/alicloud/src/infra/utils/misc\utils_httpc.c ****                 return ERROR_HTTP_CLOSED; /* Connection was closed by server */
 2603              		.loc 1 385 17
 2604 0094 37050000 		lui	a0,%hi(.LC49)
 2605 0098 13050500 		addi	a0,a0,%lo(.LC49)
 2606 009c 97000000 		call	HAL_Printf
 2606      E7800000 
 2607              	.LVL313:
 385:C:/Users/stapi/OneDrive/Desktop/GD32VW553/V1_MQTT_OK/GD32VW55X_Wifi_BLE_SDK/GD32VW55x_RELEASE_V1.0.2/MSDK/cloud/alicloud/src/infra/utils/misc\utils_httpc.c ****                 return ERROR_HTTP_CLOSED; /* Connection was closed by server */
 2608              		.loc 1 385 17
 2609 00a4 13050400 		addi	a0,s0,%lo(.LC4)
 2610 00a8 97000000 		call	HAL_Printf
 2610      E7800000 
 2611              	.LVL314:
 385:C:/Users/stapi/OneDrive/Desktop/GD32VW553/V1_MQTT_OK/GD32VW55X_Wifi_BLE_SDK/GD32VW55x_RELEASE_V1.0.2/MSDK/cloud/alicloud/src/infra/utils/misc\utils_httpc.c ****                 return ERROR_HTTP_CLOSED; /* Connection was closed by server */
 2612              		.loc 1 385 17
 386:C:/Users/stapi/OneDrive/Desktop/GD32VW553/V1_MQTT_OK/GD32VW55X_Wifi_BLE_SDK/GD32VW55x_RELEASE_V1.0.2/MSDK/cloud/alicloud/src/infra/utils/misc\utils_httpc.c ****             } else {
 2613              		.loc 1 386 17
 386:C:/Users/stapi/OneDrive/Desktop/GD32VW553/V1_MQTT_OK/GD32VW55X_Wifi_BLE_SDK/GD32VW55x_RELEASE_V1.0.2/MSDK/cloud/alicloud/src/infra/utils/misc\utils_httpc.c ****             } else {
 2614              		.loc 1 386 24 is_stmt 0
 2615 00b0 7555     		li	a0,-3
 2616 00b2 C9B7     		j	.L146
 2617              	.LVL315:
 2618              	.L149:
 388:C:/Users/stapi/OneDrive/Desktop/GD32VW553/V1_MQTT_OK/GD32VW55X_Wifi_BLE_SDK/GD32VW55x_RELEASE_V1.0.2/MSDK/cloud/alicloud/src/infra/utils/misc\utils_httpc.c ****                 return ERROR_HTTP_CONN;
 2619              		.loc 1 388 17
 2620 00b4 13050500 		addi	a0,a0,%lo(.LC2)
 2621 00b8 3EC6     		sw	a5,12(sp)
 388:C:/Users/stapi/OneDrive/Desktop/GD32VW553/V1_MQTT_OK/GD32VW55X_Wifi_BLE_SDK/GD32VW55x_RELEASE_V1.0.2/MSDK/cloud/alicloud/src/infra/utils/misc\utils_httpc.c ****                 return ERROR_HTTP_CONN;
 2622              		.loc 1 388 17 is_stmt 1
 388:C:/Users/stapi/OneDrive/Desktop/GD32VW553/V1_MQTT_OK/GD32VW55X_Wifi_BLE_SDK/GD32VW55x_RELEASE_V1.0.2/MSDK/cloud/alicloud/src/infra/utils/misc\utils_httpc.c ****                 return ERROR_HTTP_CONN;
 2623              		.loc 1 388 17
 2624 00ba 97000000 		call	HAL_Printf
 2624      E7800000 
 2625              	.LVL316:
 388:C:/Users/stapi/OneDrive/Desktop/GD32VW553/V1_MQTT_OK/GD32VW55X_Wifi_BLE_SDK/GD32VW55x_RELEASE_V1.0.2/MSDK/cloud/alicloud/src/infra/utils/misc\utils_httpc.c ****                 return ERROR_HTTP_CONN;
 2626              		.loc 1 388 17
 2627 00c2 B247     		lw	a5,12(sp)
 2628 00c4 37050000 		lui	a0,%hi(.LC47)
 2629 00c8 13050500 		addi	a0,a0,%lo(.LC47)
 2630 00cc BE85     		mv	a1,a5
 2631 00ce 97000000 		call	HAL_Printf
 2631      E7800000 
 2632              	.LVL317:
 388:C:/Users/stapi/OneDrive/Desktop/GD32VW553/V1_MQTT_OK/GD32VW55X_Wifi_BLE_SDK/GD32VW55x_RELEASE_V1.0.2/MSDK/cloud/alicloud/src/infra/utils/misc\utils_httpc.c ****                 return ERROR_HTTP_CONN;
 2633              		.loc 1 388 17
 2634 00d6 13050400 		addi	a0,s0,%lo(.LC4)
 2635 00da 97000000 		call	HAL_Printf
 2635      E7800000 
 2636              	.LVL318:
 388:C:/Users/stapi/OneDrive/Desktop/GD32VW553/V1_MQTT_OK/GD32VW55X_Wifi_BLE_SDK/GD32VW55x_RELEASE_V1.0.2/MSDK/cloud/alicloud/src/infra/utils/misc\utils_httpc.c ****                 return ERROR_HTTP_CONN;
 2637              		.loc 1 388 17
 389:C:/Users/stapi/OneDrive/Desktop/GD32VW553/V1_MQTT_OK/GD32VW55X_Wifi_BLE_SDK/GD32VW55x_RELEASE_V1.0.2/MSDK/cloud/alicloud/src/infra/utils/misc\utils_httpc.c ****             }
 2638              		.loc 1 389 17
 389:C:/Users/stapi/OneDrive/Desktop/GD32VW553/V1_MQTT_OK/GD32VW55X_Wifi_BLE_SDK/GD32VW55x_RELEASE_V1.0.2/MSDK/cloud/alicloud/src/infra/utils/misc\utils_httpc.c ****             }
 2639              		.loc 1 389 24 is_stmt 0
 2640 00e2 6155     		li	a0,-8
 2641 00e4 41BF     		j	.L146
 2642              	.LVL319:
 2643              	.L150:
 2644              		.cfi_def_cfa_offset 0
 2645              		.cfi_restore 1
 2646              		.cfi_restore 8
 2647              		.cfi_restore 9
 2648              		.cfi_restore 18
 2649              		.cfi_restore 19
 393:C:/Users/stapi/OneDrive/Desktop/GD32VW553/V1_MQTT_OK/GD32VW55X_Wifi_BLE_SDK/GD32VW55x_RELEASE_V1.0.2/MSDK/cloud/alicloud/src/infra/utils/misc\utils_httpc.c **** }
 2650              		.loc 1 393 12
 2651 00e6 0145     		li	a0,0
 2652              	.LVL320:
 394:C:/Users/stapi/OneDrive/Desktop/GD32VW553/V1_MQTT_OK/GD32VW55X_Wifi_BLE_SDK/GD32VW55x_RELEASE_V1.0.2/MSDK/cloud/alicloud/src/infra/utils/misc\utils_httpc.c **** 
 2653              		.loc 1 394 1
 2654 00e8 8280     		ret
 2655              		.cfi_endproc
 2656              	.LFE27:
 2658              		.section	.rodata.httpclient_connect.str1.4,"aMS",@progbits,1
 2659              		.align	2
 2660              	.LC50:
 2661 0000 68747470 		.string	"httpclient_conn fail"
 2661      636C6965 
 2661      6E745F63 
 2661      6F6E6E20 
 2661      6661696C 
 2662              		.section	.text.httpclient_connect,"ax",@progbits
 2663              		.align	1
 2664              		.globl	httpclient_connect
 2666              	httpclient_connect:
 2667              	.LFB31:
 668:C:/Users/stapi/OneDrive/Desktop/GD32VW553/V1_MQTT_OK/GD32VW55X_Wifi_BLE_SDK/GD32VW55x_RELEASE_V1.0.2/MSDK/cloud/alicloud/src/infra/utils/misc\utils_httpc.c **** 
 669:C:/Users/stapi/OneDrive/Desktop/GD32VW553/V1_MQTT_OK/GD32VW55X_Wifi_BLE_SDK/GD32VW55x_RELEASE_V1.0.2/MSDK/cloud/alicloud/src/infra/utils/misc\utils_httpc.c **** int httpclient_response_parse(httpclient_t *client, char *data, int len, uint32_t timeout_ms,
 670:C:/Users/stapi/OneDrive/Desktop/GD32VW553/V1_MQTT_OK/GD32VW55X_Wifi_BLE_SDK/GD32VW55x_RELEASE_V1.0.2/MSDK/cloud/alicloud/src/infra/utils/misc\utils_httpc.c ****                               httpclient_data_t *client_data)
 671:C:/Users/stapi/OneDrive/Desktop/GD32VW553/V1_MQTT_OK/GD32VW55X_Wifi_BLE_SDK/GD32VW55x_RELEASE_V1.0.2/MSDK/cloud/alicloud/src/infra/utils/misc\utils_httpc.c **** {
 672:C:/Users/stapi/OneDrive/Desktop/GD32VW553/V1_MQTT_OK/GD32VW55X_Wifi_BLE_SDK/GD32VW55x_RELEASE_V1.0.2/MSDK/cloud/alicloud/src/infra/utils/misc\utils_httpc.c ****     int crlf_pos;
 673:C:/Users/stapi/OneDrive/Desktop/GD32VW553/V1_MQTT_OK/GD32VW55X_Wifi_BLE_SDK/GD32VW55x_RELEASE_V1.0.2/MSDK/cloud/alicloud/src/infra/utils/misc\utils_httpc.c ****     iotx_time_t timer;
 674:C:/Users/stapi/OneDrive/Desktop/GD32VW553/V1_MQTT_OK/GD32VW55X_Wifi_BLE_SDK/GD32VW55x_RELEASE_V1.0.2/MSDK/cloud/alicloud/src/infra/utils/misc\utils_httpc.c ****     char *tmp_ptr, *ptr_body_end;
 675:C:/Users/stapi/OneDrive/Desktop/GD32VW553/V1_MQTT_OK/GD32VW55X_Wifi_BLE_SDK/GD32VW55x_RELEASE_V1.0.2/MSDK/cloud/alicloud/src/infra/utils/misc\utils_httpc.c **** 
 676:C:/Users/stapi/OneDrive/Desktop/GD32VW553/V1_MQTT_OK/GD32VW55X_Wifi_BLE_SDK/GD32VW55x_RELEASE_V1.0.2/MSDK/cloud/alicloud/src/infra/utils/misc\utils_httpc.c ****     int new_trf_len, ret;
 677:C:/Users/stapi/OneDrive/Desktop/GD32VW553/V1_MQTT_OK/GD32VW55X_Wifi_BLE_SDK/GD32VW55x_RELEASE_V1.0.2/MSDK/cloud/alicloud/src/infra/utils/misc\utils_httpc.c **** 
 678:C:/Users/stapi/OneDrive/Desktop/GD32VW553/V1_MQTT_OK/GD32VW55X_Wifi_BLE_SDK/GD32VW55x_RELEASE_V1.0.2/MSDK/cloud/alicloud/src/infra/utils/misc\utils_httpc.c ****     iotx_time_init(&timer);
 679:C:/Users/stapi/OneDrive/Desktop/GD32VW553/V1_MQTT_OK/GD32VW55X_Wifi_BLE_SDK/GD32VW55x_RELEASE_V1.0.2/MSDK/cloud/alicloud/src/infra/utils/misc\utils_httpc.c ****     utils_time_countdown_ms(&timer, timeout_ms);
 680:C:/Users/stapi/OneDrive/Desktop/GD32VW553/V1_MQTT_OK/GD32VW55X_Wifi_BLE_SDK/GD32VW55x_RELEASE_V1.0.2/MSDK/cloud/alicloud/src/infra/utils/misc\utils_httpc.c **** 
 681:C:/Users/stapi/OneDrive/Desktop/GD32VW553/V1_MQTT_OK/GD32VW55X_Wifi_BLE_SDK/GD32VW55x_RELEASE_V1.0.2/MSDK/cloud/alicloud/src/infra/utils/misc\utils_httpc.c ****     client_data->response_content_len = -1;
 682:C:/Users/stapi/OneDrive/Desktop/GD32VW553/V1_MQTT_OK/GD32VW55X_Wifi_BLE_SDK/GD32VW55x_RELEASE_V1.0.2/MSDK/cloud/alicloud/src/infra/utils/misc\utils_httpc.c **** 
 683:C:/Users/stapi/OneDrive/Desktop/GD32VW553/V1_MQTT_OK/GD32VW55X_Wifi_BLE_SDK/GD32VW55x_RELEASE_V1.0.2/MSDK/cloud/alicloud/src/infra/utils/misc\utils_httpc.c ****     /* http client response */
 684:C:/Users/stapi/OneDrive/Desktop/GD32VW553/V1_MQTT_OK/GD32VW55X_Wifi_BLE_SDK/GD32VW55x_RELEASE_V1.0.2/MSDK/cloud/alicloud/src/infra/utils/misc\utils_httpc.c ****     /* <status-line> HTTP/1.1 200 OK(CRLF)
 685:C:/Users/stapi/OneDrive/Desktop/GD32VW553/V1_MQTT_OK/GD32VW55X_Wifi_BLE_SDK/GD32VW55x_RELEASE_V1.0.2/MSDK/cloud/alicloud/src/infra/utils/misc\utils_httpc.c **** 
 686:C:/Users/stapi/OneDrive/Desktop/GD32VW553/V1_MQTT_OK/GD32VW55X_Wifi_BLE_SDK/GD32VW55x_RELEASE_V1.0.2/MSDK/cloud/alicloud/src/infra/utils/misc\utils_httpc.c ****        <headers> ...(CRLF)
 687:C:/Users/stapi/OneDrive/Desktop/GD32VW553/V1_MQTT_OK/GD32VW55X_Wifi_BLE_SDK/GD32VW55x_RELEASE_V1.0.2/MSDK/cloud/alicloud/src/infra/utils/misc\utils_httpc.c **** 
 688:C:/Users/stapi/OneDrive/Desktop/GD32VW553/V1_MQTT_OK/GD32VW55X_Wifi_BLE_SDK/GD32VW55x_RELEASE_V1.0.2/MSDK/cloud/alicloud/src/infra/utils/misc\utils_httpc.c ****        <blank line> (CRLF)
 689:C:/Users/stapi/OneDrive/Desktop/GD32VW553/V1_MQTT_OK/GD32VW55X_Wifi_BLE_SDK/GD32VW55x_RELEASE_V1.0.2/MSDK/cloud/alicloud/src/infra/utils/misc\utils_httpc.c **** 
 690:C:/Users/stapi/OneDrive/Desktop/GD32VW553/V1_MQTT_OK/GD32VW55X_Wifi_BLE_SDK/GD32VW55x_RELEASE_V1.0.2/MSDK/cloud/alicloud/src/infra/utils/misc\utils_httpc.c ****       [<response-body>] */
 691:C:/Users/stapi/OneDrive/Desktop/GD32VW553/V1_MQTT_OK/GD32VW55X_Wifi_BLE_SDK/GD32VW55x_RELEASE_V1.0.2/MSDK/cloud/alicloud/src/infra/utils/misc\utils_httpc.c ****     char *crlf_ptr = strstr(data, "\r\n");
 692:C:/Users/stapi/OneDrive/Desktop/GD32VW553/V1_MQTT_OK/GD32VW55X_Wifi_BLE_SDK/GD32VW55x_RELEASE_V1.0.2/MSDK/cloud/alicloud/src/infra/utils/misc\utils_httpc.c ****     if (crlf_ptr == NULL) {
 693:C:/Users/stapi/OneDrive/Desktop/GD32VW553/V1_MQTT_OK/GD32VW55X_Wifi_BLE_SDK/GD32VW55x_RELEASE_V1.0.2/MSDK/cloud/alicloud/src/infra/utils/misc\utils_httpc.c ****         utils_err("httpc no response");
 694:C:/Users/stapi/OneDrive/Desktop/GD32VW553/V1_MQTT_OK/GD32VW55X_Wifi_BLE_SDK/GD32VW55x_RELEASE_V1.0.2/MSDK/cloud/alicloud/src/infra/utils/misc\utils_httpc.c ****         return ERROR_HTTP_UNRESOLVED_DNS;
 695:C:/Users/stapi/OneDrive/Desktop/GD32VW553/V1_MQTT_OK/GD32VW55X_Wifi_BLE_SDK/GD32VW55x_RELEASE_V1.0.2/MSDK/cloud/alicloud/src/infra/utils/misc\utils_httpc.c ****     }
 696:C:/Users/stapi/OneDrive/Desktop/GD32VW553/V1_MQTT_OK/GD32VW55X_Wifi_BLE_SDK/GD32VW55x_RELEASE_V1.0.2/MSDK/cloud/alicloud/src/infra/utils/misc\utils_httpc.c **** 
 697:C:/Users/stapi/OneDrive/Desktop/GD32VW553/V1_MQTT_OK/GD32VW55X_Wifi_BLE_SDK/GD32VW55x_RELEASE_V1.0.2/MSDK/cloud/alicloud/src/infra/utils/misc\utils_httpc.c ****     crlf_pos = crlf_ptr - data;
 698:C:/Users/stapi/OneDrive/Desktop/GD32VW553/V1_MQTT_OK/GD32VW55X_Wifi_BLE_SDK/GD32VW55x_RELEASE_V1.0.2/MSDK/cloud/alicloud/src/infra/utils/misc\utils_httpc.c ****     data[crlf_pos] = '\0';
 699:C:/Users/stapi/OneDrive/Desktop/GD32VW553/V1_MQTT_OK/GD32VW55X_Wifi_BLE_SDK/GD32VW55x_RELEASE_V1.0.2/MSDK/cloud/alicloud/src/infra/utils/misc\utils_httpc.c **** 
 700:C:/Users/stapi/OneDrive/Desktop/GD32VW553/V1_MQTT_OK/GD32VW55X_Wifi_BLE_SDK/GD32VW55x_RELEASE_V1.0.2/MSDK/cloud/alicloud/src/infra/utils/misc\utils_httpc.c ****     /* Parse HTTP response */
 701:C:/Users/stapi/OneDrive/Desktop/GD32VW553/V1_MQTT_OK/GD32VW55X_Wifi_BLE_SDK/GD32VW55x_RELEASE_V1.0.2/MSDK/cloud/alicloud/src/infra/utils/misc\utils_httpc.c **** #if 0
 702:C:/Users/stapi/OneDrive/Desktop/GD32VW553/V1_MQTT_OK/GD32VW55X_Wifi_BLE_SDK/GD32VW55x_RELEASE_V1.0.2/MSDK/cloud/alicloud/src/infra/utils/misc\utils_httpc.c ****     if (sscanf(data, "HTTP/%*d.%*d %d %*[^\r\n]", &(client->response_code)) != 1) {
 703:C:/Users/stapi/OneDrive/Desktop/GD32VW553/V1_MQTT_OK/GD32VW55X_Wifi_BLE_SDK/GD32VW55x_RELEASE_V1.0.2/MSDK/cloud/alicloud/src/infra/utils/misc\utils_httpc.c ****         /* Cannot match string, error */
 704:C:/Users/stapi/OneDrive/Desktop/GD32VW553/V1_MQTT_OK/GD32VW55X_Wifi_BLE_SDK/GD32VW55x_RELEASE_V1.0.2/MSDK/cloud/alicloud/src/infra/utils/misc\utils_httpc.c ****         utils_err("Not a correct HTTP answer : %s\n", data);
 705:C:/Users/stapi/OneDrive/Desktop/GD32VW553/V1_MQTT_OK/GD32VW55X_Wifi_BLE_SDK/GD32VW55x_RELEASE_V1.0.2/MSDK/cloud/alicloud/src/infra/utils/misc\utils_httpc.c ****         return ERROR_HTTP_UNRESOLVED_DNS;
 706:C:/Users/stapi/OneDrive/Desktop/GD32VW553/V1_MQTT_OK/GD32VW55X_Wifi_BLE_SDK/GD32VW55x_RELEASE_V1.0.2/MSDK/cloud/alicloud/src/infra/utils/misc\utils_httpc.c ****     }
 707:C:/Users/stapi/OneDrive/Desktop/GD32VW553/V1_MQTT_OK/GD32VW55X_Wifi_BLE_SDK/GD32VW55x_RELEASE_V1.0.2/MSDK/cloud/alicloud/src/infra/utils/misc\utils_httpc.c **** #endif
 708:C:/Users/stapi/OneDrive/Desktop/GD32VW553/V1_MQTT_OK/GD32VW55X_Wifi_BLE_SDK/GD32VW55x_RELEASE_V1.0.2/MSDK/cloud/alicloud/src/infra/utils/misc\utils_httpc.c **** 
 709:C:/Users/stapi/OneDrive/Desktop/GD32VW553/V1_MQTT_OK/GD32VW55X_Wifi_BLE_SDK/GD32VW55x_RELEASE_V1.0.2/MSDK/cloud/alicloud/src/infra/utils/misc\utils_httpc.c ****     client->response_code = atoi(data + 9);
 710:C:/Users/stapi/OneDrive/Desktop/GD32VW553/V1_MQTT_OK/GD32VW55X_Wifi_BLE_SDK/GD32VW55x_RELEASE_V1.0.2/MSDK/cloud/alicloud/src/infra/utils/misc\utils_httpc.c **** 
 711:C:/Users/stapi/OneDrive/Desktop/GD32VW553/V1_MQTT_OK/GD32VW55X_Wifi_BLE_SDK/GD32VW55x_RELEASE_V1.0.2/MSDK/cloud/alicloud/src/infra/utils/misc\utils_httpc.c ****     if ((client->response_code < 200) || (client->response_code >= 400)) {
 712:C:/Users/stapi/OneDrive/Desktop/GD32VW553/V1_MQTT_OK/GD32VW55X_Wifi_BLE_SDK/GD32VW55x_RELEASE_V1.0.2/MSDK/cloud/alicloud/src/infra/utils/misc\utils_httpc.c ****         /* Did not return a 2xx code; TODO fetch headers/(&data?) anyway and implement a mean of wr
 713:C:/Users/stapi/OneDrive/Desktop/GD32VW553/V1_MQTT_OK/GD32VW55X_Wifi_BLE_SDK/GD32VW55x_RELEASE_V1.0.2/MSDK/cloud/alicloud/src/infra/utils/misc\utils_httpc.c ****         utils_warning("Response code %d", client->response_code);
 714:C:/Users/stapi/OneDrive/Desktop/GD32VW553/V1_MQTT_OK/GD32VW55X_Wifi_BLE_SDK/GD32VW55x_RELEASE_V1.0.2/MSDK/cloud/alicloud/src/infra/utils/misc\utils_httpc.c ****     }
 715:C:/Users/stapi/OneDrive/Desktop/GD32VW553/V1_MQTT_OK/GD32VW55X_Wifi_BLE_SDK/GD32VW55x_RELEASE_V1.0.2/MSDK/cloud/alicloud/src/infra/utils/misc\utils_httpc.c **** 
 716:C:/Users/stapi/OneDrive/Desktop/GD32VW553/V1_MQTT_OK/GD32VW55X_Wifi_BLE_SDK/GD32VW55x_RELEASE_V1.0.2/MSDK/cloud/alicloud/src/infra/utils/misc\utils_httpc.c ****     utils_debug("Reading headers: %s", data);
 717:C:/Users/stapi/OneDrive/Desktop/GD32VW553/V1_MQTT_OK/GD32VW55X_Wifi_BLE_SDK/GD32VW55x_RELEASE_V1.0.2/MSDK/cloud/alicloud/src/infra/utils/misc\utils_httpc.c **** 
 718:C:/Users/stapi/OneDrive/Desktop/GD32VW553/V1_MQTT_OK/GD32VW55X_Wifi_BLE_SDK/GD32VW55x_RELEASE_V1.0.2/MSDK/cloud/alicloud/src/infra/utils/misc\utils_httpc.c ****     memmove(data, &data[crlf_pos + 2], len - (crlf_pos + 2) + 1); /* Be sure to move NULL-terminati
 719:C:/Users/stapi/OneDrive/Desktop/GD32VW553/V1_MQTT_OK/GD32VW55X_Wifi_BLE_SDK/GD32VW55x_RELEASE_V1.0.2/MSDK/cloud/alicloud/src/infra/utils/misc\utils_httpc.c ****     len -= (crlf_pos + 2);       /* remove status_line length */
 720:C:/Users/stapi/OneDrive/Desktop/GD32VW553/V1_MQTT_OK/GD32VW55X_Wifi_BLE_SDK/GD32VW55x_RELEASE_V1.0.2/MSDK/cloud/alicloud/src/infra/utils/misc\utils_httpc.c **** 
 721:C:/Users/stapi/OneDrive/Desktop/GD32VW553/V1_MQTT_OK/GD32VW55X_Wifi_BLE_SDK/GD32VW55x_RELEASE_V1.0.2/MSDK/cloud/alicloud/src/infra/utils/misc\utils_httpc.c ****     client_data->is_chunked = IOT_FALSE;
 722:C:/Users/stapi/OneDrive/Desktop/GD32VW553/V1_MQTT_OK/GD32VW55X_Wifi_BLE_SDK/GD32VW55x_RELEASE_V1.0.2/MSDK/cloud/alicloud/src/infra/utils/misc\utils_httpc.c **** 
 723:C:/Users/stapi/OneDrive/Desktop/GD32VW553/V1_MQTT_OK/GD32VW55X_Wifi_BLE_SDK/GD32VW55x_RELEASE_V1.0.2/MSDK/cloud/alicloud/src/infra/utils/misc\utils_httpc.c ****     /*If not ending of response body*/
 724:C:/Users/stapi/OneDrive/Desktop/GD32VW553/V1_MQTT_OK/GD32VW55X_Wifi_BLE_SDK/GD32VW55x_RELEASE_V1.0.2/MSDK/cloud/alicloud/src/infra/utils/misc\utils_httpc.c ****     /* try to read more header again until find response head ending "\r\n\r\n" */
 725:C:/Users/stapi/OneDrive/Desktop/GD32VW553/V1_MQTT_OK/GD32VW55X_Wifi_BLE_SDK/GD32VW55x_RELEASE_V1.0.2/MSDK/cloud/alicloud/src/infra/utils/misc\utils_httpc.c ****     while (NULL == (ptr_body_end = strstr(data, "\r\n\r\n"))) {
 726:C:/Users/stapi/OneDrive/Desktop/GD32VW553/V1_MQTT_OK/GD32VW55X_Wifi_BLE_SDK/GD32VW55x_RELEASE_V1.0.2/MSDK/cloud/alicloud/src/infra/utils/misc\utils_httpc.c ****         /* try to read more header */
 727:C:/Users/stapi/OneDrive/Desktop/GD32VW553/V1_MQTT_OK/GD32VW55X_Wifi_BLE_SDK/GD32VW55x_RELEASE_V1.0.2/MSDK/cloud/alicloud/src/infra/utils/misc\utils_httpc.c ****         int max_remain_len = HTTPCLIENT_CHUNK_SIZE - len -1;
 728:C:/Users/stapi/OneDrive/Desktop/GD32VW553/V1_MQTT_OK/GD32VW55X_Wifi_BLE_SDK/GD32VW55x_RELEASE_V1.0.2/MSDK/cloud/alicloud/src/infra/utils/misc\utils_httpc.c ****         if (max_remain_len <= 0) {
 729:C:/Users/stapi/OneDrive/Desktop/GD32VW553/V1_MQTT_OK/GD32VW55X_Wifi_BLE_SDK/GD32VW55x_RELEASE_V1.0.2/MSDK/cloud/alicloud/src/infra/utils/misc\utils_httpc.c ****             utils_debug("buffer exceeded max\n");
 730:C:/Users/stapi/OneDrive/Desktop/GD32VW553/V1_MQTT_OK/GD32VW55X_Wifi_BLE_SDK/GD32VW55x_RELEASE_V1.0.2/MSDK/cloud/alicloud/src/infra/utils/misc\utils_httpc.c ****             return ERROR_HTTP_PARSE;
 731:C:/Users/stapi/OneDrive/Desktop/GD32VW553/V1_MQTT_OK/GD32VW55X_Wifi_BLE_SDK/GD32VW55x_RELEASE_V1.0.2/MSDK/cloud/alicloud/src/infra/utils/misc\utils_httpc.c ****         }
 732:C:/Users/stapi/OneDrive/Desktop/GD32VW553/V1_MQTT_OK/GD32VW55X_Wifi_BLE_SDK/GD32VW55x_RELEASE_V1.0.2/MSDK/cloud/alicloud/src/infra/utils/misc\utils_httpc.c ****         max_remain_len = max_remain_len > HTTPCLIENT_RAED_HEAD_SIZE ? HTTPCLIENT_RAED_HEAD_SIZE : m
 733:C:/Users/stapi/OneDrive/Desktop/GD32VW553/V1_MQTT_OK/GD32VW55X_Wifi_BLE_SDK/GD32VW55x_RELEASE_V1.0.2/MSDK/cloud/alicloud/src/infra/utils/misc\utils_httpc.c **** #ifndef LINK_VISUAL_ENABLE
 734:C:/Users/stapi/OneDrive/Desktop/GD32VW553/V1_MQTT_OK/GD32VW55X_Wifi_BLE_SDK/GD32VW55x_RELEASE_V1.0.2/MSDK/cloud/alicloud/src/infra/utils/misc\utils_httpc.c ****         ret = httpclient_recv(client, data + len, 1, max_remain_len, &new_trf_len, iotx_time_left(&
 735:C:/Users/stapi/OneDrive/Desktop/GD32VW553/V1_MQTT_OK/GD32VW55X_Wifi_BLE_SDK/GD32VW55x_RELEASE_V1.0.2/MSDK/cloud/alicloud/src/infra/utils/misc\utils_httpc.c **** #else
 736:C:/Users/stapi/OneDrive/Desktop/GD32VW553/V1_MQTT_OK/GD32VW55X_Wifi_BLE_SDK/GD32VW55x_RELEASE_V1.0.2/MSDK/cloud/alicloud/src/infra/utils/misc\utils_httpc.c ****         ret = httpclient_recv(client, data + len, 1, max_remain_len, &new_trf_len,
 737:C:/Users/stapi/OneDrive/Desktop/GD32VW553/V1_MQTT_OK/GD32VW55X_Wifi_BLE_SDK/GD32VW55x_RELEASE_V1.0.2/MSDK/cloud/alicloud/src/infra/utils/misc\utils_httpc.c ****                               iotx_time_left(&timer) > HTTPCLIENT_DEFAULT_TIMEOUT ? HTTPCLIENT_DEFA
 738:C:/Users/stapi/OneDrive/Desktop/GD32VW553/V1_MQTT_OK/GD32VW55X_Wifi_BLE_SDK/GD32VW55x_RELEASE_V1.0.2/MSDK/cloud/alicloud/src/infra/utils/misc\utils_httpc.c **** #endif
 739:C:/Users/stapi/OneDrive/Desktop/GD32VW553/V1_MQTT_OK/GD32VW55X_Wifi_BLE_SDK/GD32VW55x_RELEASE_V1.0.2/MSDK/cloud/alicloud/src/infra/utils/misc\utils_httpc.c ****         if (ret == ERROR_HTTP_CONN) {
 740:C:/Users/stapi/OneDrive/Desktop/GD32VW553/V1_MQTT_OK/GD32VW55X_Wifi_BLE_SDK/GD32VW55x_RELEASE_V1.0.2/MSDK/cloud/alicloud/src/infra/utils/misc\utils_httpc.c ****             return ret;
 741:C:/Users/stapi/OneDrive/Desktop/GD32VW553/V1_MQTT_OK/GD32VW55X_Wifi_BLE_SDK/GD32VW55x_RELEASE_V1.0.2/MSDK/cloud/alicloud/src/infra/utils/misc\utils_httpc.c ****         }
 742:C:/Users/stapi/OneDrive/Desktop/GD32VW553/V1_MQTT_OK/GD32VW55X_Wifi_BLE_SDK/GD32VW55x_RELEASE_V1.0.2/MSDK/cloud/alicloud/src/infra/utils/misc\utils_httpc.c ****         len += new_trf_len;
 743:C:/Users/stapi/OneDrive/Desktop/GD32VW553/V1_MQTT_OK/GD32VW55X_Wifi_BLE_SDK/GD32VW55x_RELEASE_V1.0.2/MSDK/cloud/alicloud/src/infra/utils/misc\utils_httpc.c ****         data[len] = '\0';
 744:C:/Users/stapi/OneDrive/Desktop/GD32VW553/V1_MQTT_OK/GD32VW55X_Wifi_BLE_SDK/GD32VW55x_RELEASE_V1.0.2/MSDK/cloud/alicloud/src/infra/utils/misc\utils_httpc.c ****     }
 745:C:/Users/stapi/OneDrive/Desktop/GD32VW553/V1_MQTT_OK/GD32VW55X_Wifi_BLE_SDK/GD32VW55x_RELEASE_V1.0.2/MSDK/cloud/alicloud/src/infra/utils/misc\utils_httpc.c **** 
 746:C:/Users/stapi/OneDrive/Desktop/GD32VW553/V1_MQTT_OK/GD32VW55X_Wifi_BLE_SDK/GD32VW55x_RELEASE_V1.0.2/MSDK/cloud/alicloud/src/infra/utils/misc\utils_httpc.c ****     /* parse response_content_len */
 747:C:/Users/stapi/OneDrive/Desktop/GD32VW553/V1_MQTT_OK/GD32VW55X_Wifi_BLE_SDK/GD32VW55x_RELEASE_V1.0.2/MSDK/cloud/alicloud/src/infra/utils/misc\utils_httpc.c ****     if (NULL != (tmp_ptr = strstr(data, "Content-Length"))) {
 748:C:/Users/stapi/OneDrive/Desktop/GD32VW553/V1_MQTT_OK/GD32VW55X_Wifi_BLE_SDK/GD32VW55x_RELEASE_V1.0.2/MSDK/cloud/alicloud/src/infra/utils/misc\utils_httpc.c ****         client_data->response_content_len = atoi(tmp_ptr + strlen("Content-Length: "));
 749:C:/Users/stapi/OneDrive/Desktop/GD32VW553/V1_MQTT_OK/GD32VW55X_Wifi_BLE_SDK/GD32VW55x_RELEASE_V1.0.2/MSDK/cloud/alicloud/src/infra/utils/misc\utils_httpc.c ****         client_data->retrieve_len = client_data->response_content_len;
 750:C:/Users/stapi/OneDrive/Desktop/GD32VW553/V1_MQTT_OK/GD32VW55X_Wifi_BLE_SDK/GD32VW55x_RELEASE_V1.0.2/MSDK/cloud/alicloud/src/infra/utils/misc\utils_httpc.c ****     } else if (NULL != (tmp_ptr = strstr(data, "Transfer-Encoding"))) {
 751:C:/Users/stapi/OneDrive/Desktop/GD32VW553/V1_MQTT_OK/GD32VW55X_Wifi_BLE_SDK/GD32VW55x_RELEASE_V1.0.2/MSDK/cloud/alicloud/src/infra/utils/misc\utils_httpc.c ****         int len_chunk = strlen("Chunked");
 752:C:/Users/stapi/OneDrive/Desktop/GD32VW553/V1_MQTT_OK/GD32VW55X_Wifi_BLE_SDK/GD32VW55x_RELEASE_V1.0.2/MSDK/cloud/alicloud/src/infra/utils/misc\utils_httpc.c ****         char *chunk_value = data + strlen("Transfer-Encoding: ");
 753:C:/Users/stapi/OneDrive/Desktop/GD32VW553/V1_MQTT_OK/GD32VW55X_Wifi_BLE_SDK/GD32VW55x_RELEASE_V1.0.2/MSDK/cloud/alicloud/src/infra/utils/misc\utils_httpc.c **** 
 754:C:/Users/stapi/OneDrive/Desktop/GD32VW553/V1_MQTT_OK/GD32VW55X_Wifi_BLE_SDK/GD32VW55x_RELEASE_V1.0.2/MSDK/cloud/alicloud/src/infra/utils/misc\utils_httpc.c ****         if ((! memcmp(chunk_value, "Chunked", len_chunk))
 755:C:/Users/stapi/OneDrive/Desktop/GD32VW553/V1_MQTT_OK/GD32VW55X_Wifi_BLE_SDK/GD32VW55x_RELEASE_V1.0.2/MSDK/cloud/alicloud/src/infra/utils/misc\utils_httpc.c ****             || (! memcmp(chunk_value, "chunked", len_chunk))) {
 756:C:/Users/stapi/OneDrive/Desktop/GD32VW553/V1_MQTT_OK/GD32VW55X_Wifi_BLE_SDK/GD32VW55x_RELEASE_V1.0.2/MSDK/cloud/alicloud/src/infra/utils/misc\utils_httpc.c ****             client_data->is_chunked = IOT_TRUE;
 757:C:/Users/stapi/OneDrive/Desktop/GD32VW553/V1_MQTT_OK/GD32VW55X_Wifi_BLE_SDK/GD32VW55x_RELEASE_V1.0.2/MSDK/cloud/alicloud/src/infra/utils/misc\utils_httpc.c ****             client_data->response_content_len = 0;
 758:C:/Users/stapi/OneDrive/Desktop/GD32VW553/V1_MQTT_OK/GD32VW55X_Wifi_BLE_SDK/GD32VW55x_RELEASE_V1.0.2/MSDK/cloud/alicloud/src/infra/utils/misc\utils_httpc.c ****             client_data->retrieve_len = 0;
 759:C:/Users/stapi/OneDrive/Desktop/GD32VW553/V1_MQTT_OK/GD32VW55X_Wifi_BLE_SDK/GD32VW55x_RELEASE_V1.0.2/MSDK/cloud/alicloud/src/infra/utils/misc\utils_httpc.c ****         }
 760:C:/Users/stapi/OneDrive/Desktop/GD32VW553/V1_MQTT_OK/GD32VW55X_Wifi_BLE_SDK/GD32VW55x_RELEASE_V1.0.2/MSDK/cloud/alicloud/src/infra/utils/misc\utils_httpc.c ****     } else {
 761:C:/Users/stapi/OneDrive/Desktop/GD32VW553/V1_MQTT_OK/GD32VW55X_Wifi_BLE_SDK/GD32VW55x_RELEASE_V1.0.2/MSDK/cloud/alicloud/src/infra/utils/misc\utils_httpc.c ****         utils_err("Could not parse header");
 762:C:/Users/stapi/OneDrive/Desktop/GD32VW553/V1_MQTT_OK/GD32VW55X_Wifi_BLE_SDK/GD32VW55x_RELEASE_V1.0.2/MSDK/cloud/alicloud/src/infra/utils/misc\utils_httpc.c ****         return ERROR_HTTP;
 763:C:/Users/stapi/OneDrive/Desktop/GD32VW553/V1_MQTT_OK/GD32VW55X_Wifi_BLE_SDK/GD32VW55x_RELEASE_V1.0.2/MSDK/cloud/alicloud/src/infra/utils/misc\utils_httpc.c ****     }
 764:C:/Users/stapi/OneDrive/Desktop/GD32VW553/V1_MQTT_OK/GD32VW55X_Wifi_BLE_SDK/GD32VW55x_RELEASE_V1.0.2/MSDK/cloud/alicloud/src/infra/utils/misc\utils_httpc.c **** 
 765:C:/Users/stapi/OneDrive/Desktop/GD32VW553/V1_MQTT_OK/GD32VW55X_Wifi_BLE_SDK/GD32VW55x_RELEASE_V1.0.2/MSDK/cloud/alicloud/src/infra/utils/misc\utils_httpc.c ****     /* remove header length */
 766:C:/Users/stapi/OneDrive/Desktop/GD32VW553/V1_MQTT_OK/GD32VW55X_Wifi_BLE_SDK/GD32VW55x_RELEASE_V1.0.2/MSDK/cloud/alicloud/src/infra/utils/misc\utils_httpc.c ****     /* len is Had read body's length */
 767:C:/Users/stapi/OneDrive/Desktop/GD32VW553/V1_MQTT_OK/GD32VW55X_Wifi_BLE_SDK/GD32VW55x_RELEASE_V1.0.2/MSDK/cloud/alicloud/src/infra/utils/misc\utils_httpc.c ****     /* if client_data->response_content_len != 0, it is know response length */
 768:C:/Users/stapi/OneDrive/Desktop/GD32VW553/V1_MQTT_OK/GD32VW55X_Wifi_BLE_SDK/GD32VW55x_RELEASE_V1.0.2/MSDK/cloud/alicloud/src/infra/utils/misc\utils_httpc.c ****     /* the remain length is client_data->response_content_len - len */
 769:C:/Users/stapi/OneDrive/Desktop/GD32VW553/V1_MQTT_OK/GD32VW55X_Wifi_BLE_SDK/GD32VW55x_RELEASE_V1.0.2/MSDK/cloud/alicloud/src/infra/utils/misc\utils_httpc.c ****     len = len - (ptr_body_end + 4 - data);
 770:C:/Users/stapi/OneDrive/Desktop/GD32VW553/V1_MQTT_OK/GD32VW55X_Wifi_BLE_SDK/GD32VW55x_RELEASE_V1.0.2/MSDK/cloud/alicloud/src/infra/utils/misc\utils_httpc.c ****     memmove(data, ptr_body_end + 4, len + 1);
 771:C:/Users/stapi/OneDrive/Desktop/GD32VW553/V1_MQTT_OK/GD32VW55X_Wifi_BLE_SDK/GD32VW55x_RELEASE_V1.0.2/MSDK/cloud/alicloud/src/infra/utils/misc\utils_httpc.c ****     client_data->response_received_len += len;
 772:C:/Users/stapi/OneDrive/Desktop/GD32VW553/V1_MQTT_OK/GD32VW55X_Wifi_BLE_SDK/GD32VW55x_RELEASE_V1.0.2/MSDK/cloud/alicloud/src/infra/utils/misc\utils_httpc.c ****     return httpclient_retrieve_content(client, data, len, iotx_time_left(&timer), client_data);
 773:C:/Users/stapi/OneDrive/Desktop/GD32VW553/V1_MQTT_OK/GD32VW55X_Wifi_BLE_SDK/GD32VW55x_RELEASE_V1.0.2/MSDK/cloud/alicloud/src/infra/utils/misc\utils_httpc.c **** }
 774:C:/Users/stapi/OneDrive/Desktop/GD32VW553/V1_MQTT_OK/GD32VW55X_Wifi_BLE_SDK/GD32VW55x_RELEASE_V1.0.2/MSDK/cloud/alicloud/src/infra/utils/misc\utils_httpc.c **** 
 775:C:/Users/stapi/OneDrive/Desktop/GD32VW553/V1_MQTT_OK/GD32VW55X_Wifi_BLE_SDK/GD32VW55x_RELEASE_V1.0.2/MSDK/cloud/alicloud/src/infra/utils/misc\utils_httpc.c **** int httpclient_connect(httpclient_t *client)
 776:C:/Users/stapi/OneDrive/Desktop/GD32VW553/V1_MQTT_OK/GD32VW55X_Wifi_BLE_SDK/GD32VW55x_RELEASE_V1.0.2/MSDK/cloud/alicloud/src/infra/utils/misc\utils_httpc.c **** {
 2668              		.loc 1 776 1 is_stmt 1
 2669              		.cfi_startproc
 2670              	.LVL321:
 2671 0000 17030000 		call	t0,__riscv_save_0
 2671      E7020300 
 2672              		.cfi_offset 1, -4
 2673              		.cfi_def_cfa_offset 16
 777:C:/Users/stapi/OneDrive/Desktop/GD32VW553/V1_MQTT_OK/GD32VW55X_Wifi_BLE_SDK/GD32VW55x_RELEASE_V1.0.2/MSDK/cloud/alicloud/src/infra/utils/misc\utils_httpc.c ****     int ret = ERROR_HTTP_CONN;
 2674              		.loc 1 777 5
 2675              	.LVL322:
 778:C:/Users/stapi/OneDrive/Desktop/GD32VW553/V1_MQTT_OK/GD32VW55X_Wifi_BLE_SDK/GD32VW55x_RELEASE_V1.0.2/MSDK/cloud/alicloud/src/infra/utils/misc\utils_httpc.c **** 
 779:C:/Users/stapi/OneDrive/Desktop/GD32VW553/V1_MQTT_OK/GD32VW55X_Wifi_BLE_SDK/GD32VW55x_RELEASE_V1.0.2/MSDK/cloud/alicloud/src/infra/utils/misc\utils_httpc.c ****     client->net.handle = 0;
 2676              		.loc 1 779 5
 2677              	.LBB44:
 2678              	.LBB45:
  75:C:/Users/stapi/OneDrive/Desktop/GD32VW553/V1_MQTT_OK/GD32VW55X_Wifi_BLE_SDK/GD32VW55x_RELEASE_V1.0.2/MSDK/cloud/alicloud/src/infra/utils/misc\utils_httpc.c ****         utils_err("httpclient_conn fail");
 2679              		.loc 1 75 14 is_stmt 0
 2680 0008 1C51     		lw	a5,32(a0)
 2681              	.LBE45:
 2682              	.LBE44:
 2683              		.loc 1 779 24
 2684 000a 23280500 		sw	zero,16(a0)
 780:C:/Users/stapi/OneDrive/Desktop/GD32VW553/V1_MQTT_OK/GD32VW55X_Wifi_BLE_SDK/GD32VW55x_RELEASE_V1.0.2/MSDK/cloud/alicloud/src/infra/utils/misc\utils_httpc.c **** 
 781:C:/Users/stapi/OneDrive/Desktop/GD32VW553/V1_MQTT_OK/GD32VW55X_Wifi_BLE_SDK/GD32VW55x_RELEASE_V1.0.2/MSDK/cloud/alicloud/src/infra/utils/misc\utils_httpc.c ****     ret = httpclient_conn(client);
 2685              		.loc 1 781 5 is_stmt 1
 2686              	.LVL323:
 2687              	.LBB47:
 2688              	.LBB46:
  75:C:/Users/stapi/OneDrive/Desktop/GD32VW553/V1_MQTT_OK/GD32VW55X_Wifi_BLE_SDK/GD32VW55x_RELEASE_V1.0.2/MSDK/cloud/alicloud/src/infra/utils/misc\utils_httpc.c ****         utils_err("httpclient_conn fail");
 2689              		.loc 1 75 5
  75:C:/Users/stapi/OneDrive/Desktop/GD32VW553/V1_MQTT_OK/GD32VW55X_Wifi_BLE_SDK/GD32VW55x_RELEASE_V1.0.2/MSDK/cloud/alicloud/src/infra/utils/misc\utils_httpc.c ****         utils_err("httpclient_conn fail");
 2690              		.loc 1 75 14 is_stmt 0
 2691 000e 1105     		addi	a0,a0,4
 2692              	.LVL324:
 2693 0010 8297     		jalr	a5
 2694              	.LVL325:
  75:C:/Users/stapi/OneDrive/Desktop/GD32VW553/V1_MQTT_OK/GD32VW55X_Wifi_BLE_SDK/GD32VW55x_RELEASE_V1.0.2/MSDK/cloud/alicloud/src/infra/utils/misc\utils_httpc.c ****         utils_err("httpclient_conn fail");
 2695              		.loc 1 75 8
 2696 0012 15C9     		beq	a0,zero,.L158
  76:C:/Users/stapi/OneDrive/Desktop/GD32VW553/V1_MQTT_OK/GD32VW55X_Wifi_BLE_SDK/GD32VW55x_RELEASE_V1.0.2/MSDK/cloud/alicloud/src/infra/utils/misc\utils_httpc.c ****         return ERROR_HTTP_CONN;
 2697              		.loc 1 76 9 is_stmt 1
  76:C:/Users/stapi/OneDrive/Desktop/GD32VW553/V1_MQTT_OK/GD32VW55X_Wifi_BLE_SDK/GD32VW55x_RELEASE_V1.0.2/MSDK/cloud/alicloud/src/infra/utils/misc\utils_httpc.c ****         return ERROR_HTTP_CONN;
 2698              		.loc 1 76 9
 2699 0014 37050000 		lui	a0,%hi(.LC2)
 2700 0018 13050500 		addi	a0,a0,%lo(.LC2)
 2701 001c 97000000 		call	HAL_Printf
 2701      E7800000 
 2702              	.LVL326:
  76:C:/Users/stapi/OneDrive/Desktop/GD32VW553/V1_MQTT_OK/GD32VW55X_Wifi_BLE_SDK/GD32VW55x_RELEASE_V1.0.2/MSDK/cloud/alicloud/src/infra/utils/misc\utils_httpc.c ****         return ERROR_HTTP_CONN;
 2703              		.loc 1 76 9
 2704 0024 37050000 		lui	a0,%hi(.LC50)
 2705 0028 13050500 		addi	a0,a0,%lo(.LC50)
 2706 002c 97000000 		call	HAL_Printf
 2706      E7800000 
 2707              	.LVL327:
  76:C:/Users/stapi/OneDrive/Desktop/GD32VW553/V1_MQTT_OK/GD32VW55X_Wifi_BLE_SDK/GD32VW55x_RELEASE_V1.0.2/MSDK/cloud/alicloud/src/infra/utils/misc\utils_httpc.c ****         return ERROR_HTTP_CONN;
 2708              		.loc 1 76 9
 2709 0034 37050000 		lui	a0,%hi(.LC4)
 2710 0038 13050500 		addi	a0,a0,%lo(.LC4)
 2711 003c 97000000 		call	HAL_Printf
 2711      E7800000 
 2712              	.LVL328:
  76:C:/Users/stapi/OneDrive/Desktop/GD32VW553/V1_MQTT_OK/GD32VW55X_Wifi_BLE_SDK/GD32VW55x_RELEASE_V1.0.2/MSDK/cloud/alicloud/src/infra/utils/misc\utils_httpc.c ****         return ERROR_HTTP_CONN;
 2713              		.loc 1 76 9
  77:C:/Users/stapi/OneDrive/Desktop/GD32VW553/V1_MQTT_OK/GD32VW55X_Wifi_BLE_SDK/GD32VW55x_RELEASE_V1.0.2/MSDK/cloud/alicloud/src/infra/utils/misc\utils_httpc.c ****     }
 2714              		.loc 1 77 9
  77:C:/Users/stapi/OneDrive/Desktop/GD32VW553/V1_MQTT_OK/GD32VW55X_Wifi_BLE_SDK/GD32VW55x_RELEASE_V1.0.2/MSDK/cloud/alicloud/src/infra/utils/misc\utils_httpc.c ****     }
 2715              		.loc 1 77 16 is_stmt 0
 2716 0044 6155     		li	a0,-8
 2717              	.LVL329:
 2718              	.LBE46:
 2719              	.LBE47:
 782:C:/Users/stapi/OneDrive/Desktop/GD32VW553/V1_MQTT_OK/GD32VW55X_Wifi_BLE_SDK/GD32VW55x_RELEASE_V1.0.2/MSDK/cloud/alicloud/src/infra/utils/misc\utils_httpc.c ****     /*    if (0 == ret) */
 783:C:/Users/stapi/OneDrive/Desktop/GD32VW553/V1_MQTT_OK/GD32VW55X_Wifi_BLE_SDK/GD32VW55x_RELEASE_V1.0.2/MSDK/cloud/alicloud/src/infra/utils/misc\utils_httpc.c ****     /*    { */
 784:C:/Users/stapi/OneDrive/Desktop/GD32VW553/V1_MQTT_OK/GD32VW55X_Wifi_BLE_SDK/GD32VW55x_RELEASE_V1.0.2/MSDK/cloud/alicloud/src/infra/utils/misc\utils_httpc.c ****     /*        client->remote_port = HTTP_PORT; */
 785:C:/Users/stapi/OneDrive/Desktop/GD32VW553/V1_MQTT_OK/GD32VW55X_Wifi_BLE_SDK/GD32VW55x_RELEASE_V1.0.2/MSDK/cloud/alicloud/src/infra/utils/misc\utils_httpc.c ****     /*    } */
 786:C:/Users/stapi/OneDrive/Desktop/GD32VW553/V1_MQTT_OK/GD32VW55X_Wifi_BLE_SDK/GD32VW55x_RELEASE_V1.0.2/MSDK/cloud/alicloud/src/infra/utils/misc\utils_httpc.c **** 
 787:C:/Users/stapi/OneDrive/Desktop/GD32VW553/V1_MQTT_OK/GD32VW55X_Wifi_BLE_SDK/GD32VW55x_RELEASE_V1.0.2/MSDK/cloud/alicloud/src/infra/utils/misc\utils_httpc.c ****     return ret;
 2720              		.loc 1 787 5 is_stmt 1
 2721              	.L158:
 788:C:/Users/stapi/OneDrive/Desktop/GD32VW553/V1_MQTT_OK/GD32VW55X_Wifi_BLE_SDK/GD32VW55x_RELEASE_V1.0.2/MSDK/cloud/alicloud/src/infra/utils/misc\utils_httpc.c **** }
 2722              		.loc 1 788 1 is_stmt 0
 2723 0046 17030000 		tail	__riscv_restore_0
 2723      67000300 
 2724              		.cfi_restore 1
 2725              		.cfi_def_cfa_offset 0
 2726              		.cfi_endproc
 2727              	.LFE31:
 2729              		.section	.rodata.httpclient_send_request.str1.4,"aMS",@progbits,1
 2730              		.align	2
 2731              	.LC51:
 2732 0000 6E6F7420 		.string	"not connection have been established"
 2732      636F6E6E 
 2732      65637469 
 2732      6F6E2068 
 2732      61766520 
 2733 0025 000000   		.align	2
 2734              	.LC52:
 2735 0028 68747470 		.string	"httpclient_send_header is error,ret = %d"
 2735      636C6965 
 2735      6E745F73 
 2735      656E645F 
 2735      68656164 
 2736              		.section	.text.httpclient_send_request,"ax",@progbits
 2737              		.align	1
 2738              		.globl	httpclient_send_request
 2740              	httpclient_send_request:
 2741              	.LFB32:
 789:C:/Users/stapi/OneDrive/Desktop/GD32VW553/V1_MQTT_OK/GD32VW55X_Wifi_BLE_SDK/GD32VW55x_RELEASE_V1.0.2/MSDK/cloud/alicloud/src/infra/utils/misc\utils_httpc.c **** 
 790:C:/Users/stapi/OneDrive/Desktop/GD32VW553/V1_MQTT_OK/GD32VW55X_Wifi_BLE_SDK/GD32VW55x_RELEASE_V1.0.2/MSDK/cloud/alicloud/src/infra/utils/misc\utils_httpc.c **** int httpclient_send_request(httpclient_t *client, const char *url, HTTPCLIENT_REQUEST_TYPE method,
 791:C:/Users/stapi/OneDrive/Desktop/GD32VW553/V1_MQTT_OK/GD32VW55X_Wifi_BLE_SDK/GD32VW55x_RELEASE_V1.0.2/MSDK/cloud/alicloud/src/infra/utils/misc\utils_httpc.c ****                             httpclient_data_t *client_data)
 792:C:/Users/stapi/OneDrive/Desktop/GD32VW553/V1_MQTT_OK/GD32VW55X_Wifi_BLE_SDK/GD32VW55x_RELEASE_V1.0.2/MSDK/cloud/alicloud/src/infra/utils/misc\utils_httpc.c **** {
 2742              		.loc 1 792 1 is_stmt 1
 2743              		.cfi_startproc
 2744              	.LVL330:
 2745 0000 17030000 		call	t0,__riscv_save_4
 2745      E7020300 
 2746              		.cfi_offset 19, -20
 2747              		.cfi_offset 18, -16
 2748              		.cfi_offset 9, -12
 2749              		.cfi_offset 8, -8
 2750              		.cfi_offset 1, -4
 2751              		.cfi_def_cfa_offset 32
 793:C:/Users/stapi/OneDrive/Desktop/GD32VW553/V1_MQTT_OK/GD32VW55X_Wifi_BLE_SDK/GD32VW55x_RELEASE_V1.0.2/MSDK/cloud/alicloud/src/infra/utils/misc\utils_httpc.c ****     int ret = ERROR_HTTP_CONN;
 2752              		.loc 1 793 5
 2753              	.LVL331:
 794:C:/Users/stapi/OneDrive/Desktop/GD32VW553/V1_MQTT_OK/GD32VW55X_Wifi_BLE_SDK/GD32VW55x_RELEASE_V1.0.2/MSDK/cloud/alicloud/src/infra/utils/misc\utils_httpc.c **** 
 795:C:/Users/stapi/OneDrive/Desktop/GD32VW553/V1_MQTT_OK/GD32VW55X_Wifi_BLE_SDK/GD32VW55x_RELEASE_V1.0.2/MSDK/cloud/alicloud/src/infra/utils/misc\utils_httpc.c ****     if (0 == client->net.handle) {
 2754              		.loc 1 795 5
 2755              		.loc 1 795 8 is_stmt 0
 2756 0008 1C49     		lw	a5,16(a0)
 2757 000a 9DEF     		bne	a5,zero,.L165
 796:C:/Users/stapi/OneDrive/Desktop/GD32VW553/V1_MQTT_OK/GD32VW55X_Wifi_BLE_SDK/GD32VW55x_RELEASE_V1.0.2/MSDK/cloud/alicloud/src/infra/utils/misc\utils_httpc.c ****         utils_err("not connection have been established");
 2758              		.loc 1 796 9 is_stmt 1
 2759              		.loc 1 796 9
 2760 000c 37050000 		lui	a0,%hi(.LC2)
 2761              	.LVL332:
 2762 0010 13050500 		addi	a0,a0,%lo(.LC2)
 2763 0014 97000000 		call	HAL_Printf
 2763      E7800000 
 2764              	.LVL333:
 2765              		.loc 1 796 9
 2766 001c 37050000 		lui	a0,%hi(.LC51)
 2767 0020 13050500 		addi	a0,a0,%lo(.LC51)
 2768 0024 97000000 		call	HAL_Printf
 2768      E7800000 
 2769              	.LVL334:
 2770              		.loc 1 796 9
 2771 002c 37050000 		lui	a0,%hi(.LC4)
 2772 0030 13050500 		addi	a0,a0,%lo(.LC4)
 2773 0034 97000000 		call	HAL_Printf
 2773      E7800000 
 2774              	.LVL335:
 2775              		.loc 1 796 9
 797:C:/Users/stapi/OneDrive/Desktop/GD32VW553/V1_MQTT_OK/GD32VW55X_Wifi_BLE_SDK/GD32VW55x_RELEASE_V1.0.2/MSDK/cloud/alicloud/src/infra/utils/misc\utils_httpc.c ****         return ret;
 2776              		.loc 1 797 9
 2777              		.loc 1 797 16 is_stmt 0
 2778 003c 6154     		li	s0,-8
 2779              	.LVL336:
 2780              	.L164:
 798:C:/Users/stapi/OneDrive/Desktop/GD32VW553/V1_MQTT_OK/GD32VW55X_Wifi_BLE_SDK/GD32VW55x_RELEASE_V1.0.2/MSDK/cloud/alicloud/src/infra/utils/misc\utils_httpc.c ****     }
 799:C:/Users/stapi/OneDrive/Desktop/GD32VW553/V1_MQTT_OK/GD32VW55X_Wifi_BLE_SDK/GD32VW55x_RELEASE_V1.0.2/MSDK/cloud/alicloud/src/infra/utils/misc\utils_httpc.c **** 
 800:C:/Users/stapi/OneDrive/Desktop/GD32VW553/V1_MQTT_OK/GD32VW55X_Wifi_BLE_SDK/GD32VW55x_RELEASE_V1.0.2/MSDK/cloud/alicloud/src/infra/utils/misc\utils_httpc.c ****     ret = httpclient_send_header(client, url, method, client_data);
 801:C:/Users/stapi/OneDrive/Desktop/GD32VW553/V1_MQTT_OK/GD32VW55X_Wifi_BLE_SDK/GD32VW55x_RELEASE_V1.0.2/MSDK/cloud/alicloud/src/infra/utils/misc\utils_httpc.c ****     if (ret != 0) {
 802:C:/Users/stapi/OneDrive/Desktop/GD32VW553/V1_MQTT_OK/GD32VW55X_Wifi_BLE_SDK/GD32VW55x_RELEASE_V1.0.2/MSDK/cloud/alicloud/src/infra/utils/misc\utils_httpc.c ****         utils_err("httpclient_send_header is error,ret = %d", ret);
 803:C:/Users/stapi/OneDrive/Desktop/GD32VW553/V1_MQTT_OK/GD32VW55X_Wifi_BLE_SDK/GD32VW55x_RELEASE_V1.0.2/MSDK/cloud/alicloud/src/infra/utils/misc\utils_httpc.c ****         return ret;
 804:C:/Users/stapi/OneDrive/Desktop/GD32VW553/V1_MQTT_OK/GD32VW55X_Wifi_BLE_SDK/GD32VW55x_RELEASE_V1.0.2/MSDK/cloud/alicloud/src/infra/utils/misc\utils_httpc.c ****     }
 805:C:/Users/stapi/OneDrive/Desktop/GD32VW553/V1_MQTT_OK/GD32VW55X_Wifi_BLE_SDK/GD32VW55x_RELEASE_V1.0.2/MSDK/cloud/alicloud/src/infra/utils/misc\utils_httpc.c **** 
 806:C:/Users/stapi/OneDrive/Desktop/GD32VW553/V1_MQTT_OK/GD32VW55X_Wifi_BLE_SDK/GD32VW55x_RELEASE_V1.0.2/MSDK/cloud/alicloud/src/infra/utils/misc\utils_httpc.c ****     if (method == HTTPCLIENT_POST || method == HTTPCLIENT_PUT) {
 807:C:/Users/stapi/OneDrive/Desktop/GD32VW553/V1_MQTT_OK/GD32VW55X_Wifi_BLE_SDK/GD32VW55x_RELEASE_V1.0.2/MSDK/cloud/alicloud/src/infra/utils/misc\utils_httpc.c ****         ret = httpclient_send_userdata(client, client_data);
 808:C:/Users/stapi/OneDrive/Desktop/GD32VW553/V1_MQTT_OK/GD32VW55X_Wifi_BLE_SDK/GD32VW55x_RELEASE_V1.0.2/MSDK/cloud/alicloud/src/infra/utils/misc\utils_httpc.c ****     }
 809:C:/Users/stapi/OneDrive/Desktop/GD32VW553/V1_MQTT_OK/GD32VW55X_Wifi_BLE_SDK/GD32VW55x_RELEASE_V1.0.2/MSDK/cloud/alicloud/src/infra/utils/misc\utils_httpc.c **** 
 810:C:/Users/stapi/OneDrive/Desktop/GD32VW553/V1_MQTT_OK/GD32VW55X_Wifi_BLE_SDK/GD32VW55x_RELEASE_V1.0.2/MSDK/cloud/alicloud/src/infra/utils/misc\utils_httpc.c ****     return ret;
 811:C:/Users/stapi/OneDrive/Desktop/GD32VW553/V1_MQTT_OK/GD32VW55X_Wifi_BLE_SDK/GD32VW55x_RELEASE_V1.0.2/MSDK/cloud/alicloud/src/infra/utils/misc\utils_httpc.c **** }
 2781              		.loc 1 811 1
 2782 003e 2285     		mv	a0,s0
 2783 0040 17030000 		tail	__riscv_restore_4
 2783      67000300 
 2784              		.cfi_remember_state
 2785              		.cfi_restore 19
 2786              		.cfi_restore 18
 2787              		.cfi_restore 9
 2788              		.cfi_restore 8
 2789              		.cfi_restore 1
 2790              		.cfi_def_cfa_offset 0
 2791              	.LVL337:
 2792              	.L165:
 2793              		.cfi_restore_state
 2794 0048 2A89     		mv	s2,a0
 2795 004a B284     		mv	s1,a2
 2796 004c B689     		mv	s3,a3
 800:C:/Users/stapi/OneDrive/Desktop/GD32VW553/V1_MQTT_OK/GD32VW55X_Wifi_BLE_SDK/GD32VW55x_RELEASE_V1.0.2/MSDK/cloud/alicloud/src/infra/utils/misc\utils_httpc.c ****     if (ret != 0) {
 2797              		.loc 1 800 5 is_stmt 1
 800:C:/Users/stapi/OneDrive/Desktop/GD32VW553/V1_MQTT_OK/GD32VW55X_Wifi_BLE_SDK/GD32VW55x_RELEASE_V1.0.2/MSDK/cloud/alicloud/src/infra/utils/misc\utils_httpc.c ****     if (ret != 0) {
 2798              		.loc 1 800 11 is_stmt 0
 2799 004e 97000000 		call	httpclient_send_header
 2799      E7800000 
 2800              	.LVL338:
 2801 0056 2A84     		mv	s0,a0
 2802              	.LVL339:
 801:C:/Users/stapi/OneDrive/Desktop/GD32VW553/V1_MQTT_OK/GD32VW55X_Wifi_BLE_SDK/GD32VW55x_RELEASE_V1.0.2/MSDK/cloud/alicloud/src/infra/utils/misc\utils_httpc.c ****         utils_err("httpclient_send_header is error,ret = %d", ret);
 2803              		.loc 1 801 5 is_stmt 1
 801:C:/Users/stapi/OneDrive/Desktop/GD32VW553/V1_MQTT_OK/GD32VW55X_Wifi_BLE_SDK/GD32VW55x_RELEASE_V1.0.2/MSDK/cloud/alicloud/src/infra/utils/misc\utils_httpc.c ****         utils_err("httpclient_send_header is error,ret = %d", ret);
 2804              		.loc 1 801 8 is_stmt 0
 2805 0058 1DC9     		beq	a0,zero,.L167
 802:C:/Users/stapi/OneDrive/Desktop/GD32VW553/V1_MQTT_OK/GD32VW55X_Wifi_BLE_SDK/GD32VW55x_RELEASE_V1.0.2/MSDK/cloud/alicloud/src/infra/utils/misc\utils_httpc.c ****         return ret;
 2806              		.loc 1 802 9 is_stmt 1
 802:C:/Users/stapi/OneDrive/Desktop/GD32VW553/V1_MQTT_OK/GD32VW55X_Wifi_BLE_SDK/GD32VW55x_RELEASE_V1.0.2/MSDK/cloud/alicloud/src/infra/utils/misc\utils_httpc.c ****         return ret;
 2807              		.loc 1 802 9
 2808 005a 37050000 		lui	a0,%hi(.LC2)
 2809 005e 13050500 		addi	a0,a0,%lo(.LC2)
 2810 0062 97000000 		call	HAL_Printf
 2810      E7800000 
 2811              	.LVL340:
 802:C:/Users/stapi/OneDrive/Desktop/GD32VW553/V1_MQTT_OK/GD32VW55X_Wifi_BLE_SDK/GD32VW55x_RELEASE_V1.0.2/MSDK/cloud/alicloud/src/infra/utils/misc\utils_httpc.c ****         return ret;
 2812              		.loc 1 802 9
 2813 006a 37050000 		lui	a0,%hi(.LC52)
 2814 006e A285     		mv	a1,s0
 2815 0070 13050500 		addi	a0,a0,%lo(.LC52)
 2816 0074 97000000 		call	HAL_Printf
 2816      E7800000 
 2817              	.LVL341:
 802:C:/Users/stapi/OneDrive/Desktop/GD32VW553/V1_MQTT_OK/GD32VW55X_Wifi_BLE_SDK/GD32VW55x_RELEASE_V1.0.2/MSDK/cloud/alicloud/src/infra/utils/misc\utils_httpc.c ****         return ret;
 2818              		.loc 1 802 9
 2819 007c 37050000 		lui	a0,%hi(.LC4)
 2820 0080 13050500 		addi	a0,a0,%lo(.LC4)
 2821 0084 97000000 		call	HAL_Printf
 2821      E7800000 
 2822              	.LVL342:
 802:C:/Users/stapi/OneDrive/Desktop/GD32VW553/V1_MQTT_OK/GD32VW55X_Wifi_BLE_SDK/GD32VW55x_RELEASE_V1.0.2/MSDK/cloud/alicloud/src/infra/utils/misc\utils_httpc.c ****         return ret;
 2823              		.loc 1 802 9
 803:C:/Users/stapi/OneDrive/Desktop/GD32VW553/V1_MQTT_OK/GD32VW55X_Wifi_BLE_SDK/GD32VW55x_RELEASE_V1.0.2/MSDK/cloud/alicloud/src/infra/utils/misc\utils_httpc.c ****     }
 2824              		.loc 1 803 9
 803:C:/Users/stapi/OneDrive/Desktop/GD32VW553/V1_MQTT_OK/GD32VW55X_Wifi_BLE_SDK/GD32VW55x_RELEASE_V1.0.2/MSDK/cloud/alicloud/src/infra/utils/misc\utils_httpc.c ****     }
 2825              		.loc 1 803 16 is_stmt 0
 2826 008c 4DBF     		j	.L164
 2827              	.L167:
 806:C:/Users/stapi/OneDrive/Desktop/GD32VW553/V1_MQTT_OK/GD32VW55X_Wifi_BLE_SDK/GD32VW55x_RELEASE_V1.0.2/MSDK/cloud/alicloud/src/infra/utils/misc\utils_httpc.c ****         ret = httpclient_send_userdata(client, client_data);
 2828              		.loc 1 806 5 is_stmt 1
 806:C:/Users/stapi/OneDrive/Desktop/GD32VW553/V1_MQTT_OK/GD32VW55X_Wifi_BLE_SDK/GD32VW55x_RELEASE_V1.0.2/MSDK/cloud/alicloud/src/infra/utils/misc\utils_httpc.c ****         ret = httpclient_send_userdata(client, client_data);
 2829              		.loc 1 806 35 is_stmt 0
 2830 008e FD14     		addi	s1,s1,-1
 2831              	.LVL343:
 806:C:/Users/stapi/OneDrive/Desktop/GD32VW553/V1_MQTT_OK/GD32VW55X_Wifi_BLE_SDK/GD32VW55x_RELEASE_V1.0.2/MSDK/cloud/alicloud/src/infra/utils/misc\utils_httpc.c ****         ret = httpclient_send_userdata(client, client_data);
 2832              		.loc 1 806 8
 2833 0090 8547     		li	a5,1
 2834 0092 E3E697FA 		bgtu	s1,a5,.L164
 807:C:/Users/stapi/OneDrive/Desktop/GD32VW553/V1_MQTT_OK/GD32VW55X_Wifi_BLE_SDK/GD32VW55x_RELEASE_V1.0.2/MSDK/cloud/alicloud/src/infra/utils/misc\utils_httpc.c ****     }
 2835              		.loc 1 807 9 is_stmt 1
 807:C:/Users/stapi/OneDrive/Desktop/GD32VW553/V1_MQTT_OK/GD32VW55X_Wifi_BLE_SDK/GD32VW55x_RELEASE_V1.0.2/MSDK/cloud/alicloud/src/infra/utils/misc\utils_httpc.c ****     }
 2836              		.loc 1 807 15 is_stmt 0
 2837 0096 CE85     		mv	a1,s3
 2838 0098 4A85     		mv	a0,s2
 2839 009a 97000000 		call	httpclient_send_userdata
 2839      E7800000 
 2840              	.LVL344:
 2841 00a2 2A84     		mv	s0,a0
 2842              	.LVL345:
 2843 00a4 69BF     		j	.L164
 2844              		.cfi_endproc
 2845              	.LFE32:
 2847              		.section	.rodata.httpclient_recv_response.str1.4,"aMS",@progbits,1
 2848              		.align	2
 2849              	.LC53:
 2850 0000 3C00     		.string	"<"
 2851 0002 0000     		.align	2
 2852              	.LC54:
 2853 0004 52455350 		.string	"RESPONSE"
 2853      4F4E5345 
 2853      00
 2854 000d 000000   		.align	2
 2855              	.LC55:
 2856 0010 68747470 		.string	"httpc no response"
 2856      63206E6F 
 2856      20726573 
 2856      706F6E73 
 2856      6500
 2857 0022 0000     		.align	2
 2858              	.LC56:
 2859 0024 5B77726E 		.string	"[wrn] "
 2859      5D2000
 2860 002b 00       		.align	2
 2861              	.LC57:
 2862 002c 52657370 		.string	"Response code %d"
 2862      6F6E7365 
 2862      20636F64 
 2862      65202564 
 2862      00
 2863 003d 000000   		.align	2
 2864              	.LC58:
 2865 0040 52656164 		.string	"Reading headers: %s"
 2865      696E6720 
 2865      68656164 
 2865      6572733A 
 2865      20257300 
 2866              		.align	2
 2867              	.LC59:
 2868 0054 62756666 		.string	"buffer exceeded max\n"
 2868      65722065 
 2868      78636565 
 2868      64656420 
 2868      6D61780A 
 2869 0069 000000   		.align	2
 2870              	.LC60:
 2871 006c 0D0A0D0A 		.string	"\r\n\r\n"
 2871      00
 2872 0071 000000   		.align	2
 2873              	.LC61:
 2874 0074 436F6E74 		.string	"Content-Length"
 2874      656E742D 
 2874      4C656E67 
 2874      746800
 2875 0083 00       		.align	2
 2876              	.LC62:
 2877 0084 5472616E 		.string	"Transfer-Encoding"
 2877      73666572 
 2877      2D456E63 
 2877      6F64696E 
 2877      6700
 2878 0096 0000     		.align	2
 2879              	.LC63:
 2880 0098 4368756E 		.string	"Chunked"
 2880      6B656400 
 2881              		.align	2
 2882              	.LC64:
 2883 00a0 6368756E 		.string	"chunked"
 2883      6B656400 
 2884              		.align	2
 2885              	.LC65:
 2886 00a8 436F756C 		.string	"Could not parse header"
 2886      64206E6F 
 2886      74207061 
 2886      72736520 
 2886      68656164 
 2887              		.section	.text.httpclient_recv_response,"ax",@progbits
 2888              		.align	1
 2889              		.globl	httpclient_recv_response
 2891              	httpclient_recv_response:
 2892              	.LFB33:
 812:C:/Users/stapi/OneDrive/Desktop/GD32VW553/V1_MQTT_OK/GD32VW55X_Wifi_BLE_SDK/GD32VW55x_RELEASE_V1.0.2/MSDK/cloud/alicloud/src/infra/utils/misc\utils_httpc.c **** 
 813:C:/Users/stapi/OneDrive/Desktop/GD32VW553/V1_MQTT_OK/GD32VW55X_Wifi_BLE_SDK/GD32VW55x_RELEASE_V1.0.2/MSDK/cloud/alicloud/src/infra/utils/misc\utils_httpc.c **** int httpclient_recv_response(httpclient_t *client, uint32_t timeout_ms, httpclient_data_t *client_d
 814:C:/Users/stapi/OneDrive/Desktop/GD32VW553/V1_MQTT_OK/GD32VW55X_Wifi_BLE_SDK/GD32VW55x_RELEASE_V1.0.2/MSDK/cloud/alicloud/src/infra/utils/misc\utils_httpc.c **** {
 2893              		.loc 1 814 1 is_stmt 1
 2894              		.cfi_startproc
 2895              	.LVL346:
 2896 0000 17030000 		call	t0,__riscv_save_12
 2896      E7020300 
 2897              		.cfi_offset 27, -52
 2898              		.cfi_offset 26, -48
 2899              		.cfi_offset 25, -44
 2900              		.cfi_offset 24, -40
 2901              		.cfi_offset 23, -36
 2902              		.cfi_offset 22, -32
 2903              		.cfi_offset 21, -28
 2904              		.cfi_offset 20, -24
 2905              		.cfi_offset 19, -20
 2906              		.cfi_offset 18, -16
 2907              		.cfi_offset 9, -12
 2908              		.cfi_offset 8, -8
 2909              		.cfi_offset 1, -4
 2910              		.cfi_def_cfa_offset 64
 815:C:/Users/stapi/OneDrive/Desktop/GD32VW553/V1_MQTT_OK/GD32VW55X_Wifi_BLE_SDK/GD32VW55x_RELEASE_V1.0.2/MSDK/cloud/alicloud/src/infra/utils/misc\utils_httpc.c ****     int reclen = 0, ret = ERROR_HTTP_CONN;
 2911              		.loc 1 815 5
 814:C:/Users/stapi/OneDrive/Desktop/GD32VW553/V1_MQTT_OK/GD32VW55X_Wifi_BLE_SDK/GD32VW55x_RELEASE_V1.0.2/MSDK/cloud/alicloud/src/infra/utils/misc\utils_httpc.c ****     int reclen = 0, ret = ERROR_HTTP_CONN;
 2912              		.loc 1 814 1 is_stmt 0
 2913 0008 0111     		addi	sp,sp,-32
 2914              		.cfi_def_cfa_offset 96
 814:C:/Users/stapi/OneDrive/Desktop/GD32VW553/V1_MQTT_OK/GD32VW55X_Wifi_BLE_SDK/GD32VW55x_RELEASE_V1.0.2/MSDK/cloud/alicloud/src/infra/utils/misc\utils_httpc.c ****     int reclen = 0, ret = ERROR_HTTP_CONN;
 2915              		.loc 1 814 1
 2916 000a 2A8A     		mv	s4,a0
 2917 000c AE84     		mv	s1,a1
 2918 000e 3289     		mv	s2,a2
 816:C:/Users/stapi/OneDrive/Desktop/GD32VW553/V1_MQTT_OK/GD32VW55X_Wifi_BLE_SDK/GD32VW55x_RELEASE_V1.0.2/MSDK/cloud/alicloud/src/infra/utils/misc\utils_httpc.c ****     iotx_time_t timer;
 817:C:/Users/stapi/OneDrive/Desktop/GD32VW553/V1_MQTT_OK/GD32VW55X_Wifi_BLE_SDK/GD32VW55x_RELEASE_V1.0.2/MSDK/cloud/alicloud/src/infra/utils/misc\utils_httpc.c ****     char *buf = httpc_malloc(HTTPCLIENT_CHUNK_SIZE);
 2919              		.loc 1 817 17
 2920 0010 8145     		li	a1,0
 2921              	.LVL347:
 2922 0012 13060040 		li	a2,1024
 2923              	.LVL348:
 2924 0016 0145     		li	a0,0
 2925              	.LVL349:
 815:C:/Users/stapi/OneDrive/Desktop/GD32VW553/V1_MQTT_OK/GD32VW55X_Wifi_BLE_SDK/GD32VW55x_RELEASE_V1.0.2/MSDK/cloud/alicloud/src/infra/utils/misc\utils_httpc.c ****     iotx_time_t timer;
 2926              		.loc 1 815 9
 2927 0018 02C8     		sw	zero,16(sp)
 2928              	.LVL350:
 816:C:/Users/stapi/OneDrive/Desktop/GD32VW553/V1_MQTT_OK/GD32VW55X_Wifi_BLE_SDK/GD32VW55x_RELEASE_V1.0.2/MSDK/cloud/alicloud/src/infra/utils/misc\utils_httpc.c ****     iotx_time_t timer;
 2929              		.loc 1 816 5 is_stmt 1
 2930              		.loc 1 817 5
 2931              		.loc 1 817 17 is_stmt 0
 2932 001a 97000000 		call	LITE_malloc_internal
 2932      E7800000 
 2933              	.LVL351:
 818:C:/Users/stapi/OneDrive/Desktop/GD32VW553/V1_MQTT_OK/GD32VW55X_Wifi_BLE_SDK/GD32VW55x_RELEASE_V1.0.2/MSDK/cloud/alicloud/src/infra/utils/misc\utils_httpc.c ****     if (buf == NULL) {
 2934              		.loc 1 818 5 is_stmt 1
 2935              		.loc 1 818 8 is_stmt 0
 2936 0022 63040536 		beq	a0,zero,.L184
 819:C:/Users/stapi/OneDrive/Desktop/GD32VW553/V1_MQTT_OK/GD32VW55X_Wifi_BLE_SDK/GD32VW55x_RELEASE_V1.0.2/MSDK/cloud/alicloud/src/infra/utils/misc\utils_httpc.c ****         ret = ERROR_NO_ENOUGH_MEM;
 820:C:/Users/stapi/OneDrive/Desktop/GD32VW553/V1_MQTT_OK/GD32VW55X_Wifi_BLE_SDK/GD32VW55x_RELEASE_V1.0.2/MSDK/cloud/alicloud/src/infra/utils/misc\utils_httpc.c ****         goto err;
 821:C:/Users/stapi/OneDrive/Desktop/GD32VW553/V1_MQTT_OK/GD32VW55X_Wifi_BLE_SDK/GD32VW55x_RELEASE_V1.0.2/MSDK/cloud/alicloud/src/infra/utils/misc\utils_httpc.c ****     }
 822:C:/Users/stapi/OneDrive/Desktop/GD32VW553/V1_MQTT_OK/GD32VW55X_Wifi_BLE_SDK/GD32VW55x_RELEASE_V1.0.2/MSDK/cloud/alicloud/src/infra/utils/misc\utils_httpc.c **** 
 823:C:/Users/stapi/OneDrive/Desktop/GD32VW553/V1_MQTT_OK/GD32VW55X_Wifi_BLE_SDK/GD32VW55x_RELEASE_V1.0.2/MSDK/cloud/alicloud/src/infra/utils/misc\utils_httpc.c ****     memset(buf, 0, HTTPCLIENT_CHUNK_SIZE);
 2937              		.loc 1 823 5
 2938 0026 13060040 		li	a2,1024
 2939 002a 8145     		li	a1,0
 2940 002c 2A84     		mv	s0,a0
 2941              		.loc 1 823 5 is_stmt 1
 2942 002e 97000000 		call	memset
 2942      E7800000 
 2943              	.LVL352:
 824:C:/Users/stapi/OneDrive/Desktop/GD32VW553/V1_MQTT_OK/GD32VW55X_Wifi_BLE_SDK/GD32VW55x_RELEASE_V1.0.2/MSDK/cloud/alicloud/src/infra/utils/misc\utils_httpc.c ****     iotx_time_init(&timer);
 2944              		.loc 1 824 5
 2945 0036 4808     		addi	a0,sp,20
 2946 0038 97000000 		call	iotx_time_init
 2946      E7800000 
 2947              	.LVL353:
 825:C:/Users/stapi/OneDrive/Desktop/GD32VW553/V1_MQTT_OK/GD32VW55X_Wifi_BLE_SDK/GD32VW55x_RELEASE_V1.0.2/MSDK/cloud/alicloud/src/infra/utils/misc\utils_httpc.c ****     utils_time_countdown_ms(&timer, timeout_ms);
 2948              		.loc 1 825 5
 2949 0040 A685     		mv	a1,s1
 2950 0042 4808     		addi	a0,sp,20
 2951 0044 97000000 		call	utils_time_countdown_ms
 2951      E7800000 
 2952              	.LVL354:
 826:C:/Users/stapi/OneDrive/Desktop/GD32VW553/V1_MQTT_OK/GD32VW55X_Wifi_BLE_SDK/GD32VW55x_RELEASE_V1.0.2/MSDK/cloud/alicloud/src/infra/utils/misc\utils_httpc.c **** 
 827:C:/Users/stapi/OneDrive/Desktop/GD32VW553/V1_MQTT_OK/GD32VW55X_Wifi_BLE_SDK/GD32VW55x_RELEASE_V1.0.2/MSDK/cloud/alicloud/src/infra/utils/misc\utils_httpc.c ****     if (0 == client->net.handle) {
 2953              		.loc 1 827 5
 2954              		.loc 1 827 8 is_stmt 0
 2955 004c 83270A01 		lw	a5,16(s4)
 2956 0050 A1E3     		bne	a5,zero,.L171
 828:C:/Users/stapi/OneDrive/Desktop/GD32VW553/V1_MQTT_OK/GD32VW55X_Wifi_BLE_SDK/GD32VW55x_RELEASE_V1.0.2/MSDK/cloud/alicloud/src/infra/utils/misc\utils_httpc.c ****         utils_err("not connection have been established");
 2957              		.loc 1 828 9 is_stmt 1
 2958              		.loc 1 828 9
 2959 0052 37050000 		lui	a0,%hi(.LC2)
 2960 0056 13050500 		addi	a0,a0,%lo(.LC2)
 2961 005a 97000000 		call	HAL_Printf
 2961      E7800000 
 2962              	.LVL355:
 2963              		.loc 1 828 9
 2964 0062 37050000 		lui	a0,%hi(.LC51)
 2965 0066 13050500 		addi	a0,a0,%lo(.LC51)
 2966 006a 97000000 		call	HAL_Printf
 2966      E7800000 
 2967              	.LVL356:
 2968              		.loc 1 828 9
 2969 0072 37050000 		lui	a0,%hi(.LC4)
 2970 0076 13050500 		addi	a0,a0,%lo(.LC4)
 2971 007a 97000000 		call	HAL_Printf
 2971      E7800000 
 2972              	.LVL357:
 2973              		.loc 1 828 9
 829:C:/Users/stapi/OneDrive/Desktop/GD32VW553/V1_MQTT_OK/GD32VW55X_Wifi_BLE_SDK/GD32VW55x_RELEASE_V1.0.2/MSDK/cloud/alicloud/src/infra/utils/misc\utils_httpc.c ****         ret = ERROR_HTTP_CONN;
 2974              		.loc 1 829 9
 830:C:/Users/stapi/OneDrive/Desktop/GD32VW553/V1_MQTT_OK/GD32VW55X_Wifi_BLE_SDK/GD32VW55x_RELEASE_V1.0.2/MSDK/cloud/alicloud/src/infra/utils/misc\utils_httpc.c ****         goto err;
 2975              		.loc 1 830 9
 829:C:/Users/stapi/OneDrive/Desktop/GD32VW553/V1_MQTT_OK/GD32VW55X_Wifi_BLE_SDK/GD32VW55x_RELEASE_V1.0.2/MSDK/cloud/alicloud/src/infra/utils/misc\utils_httpc.c ****         ret = ERROR_HTTP_CONN;
 2976              		.loc 1 829 13 is_stmt 0
 2977 0082 E154     		li	s1,-8
 2978              	.LVL358:
 2979              	.L172:
 831:C:/Users/stapi/OneDrive/Desktop/GD32VW553/V1_MQTT_OK/GD32VW55X_Wifi_BLE_SDK/GD32VW55x_RELEASE_V1.0.2/MSDK/cloud/alicloud/src/infra/utils/misc\utils_httpc.c ****     }
 832:C:/Users/stapi/OneDrive/Desktop/GD32VW553/V1_MQTT_OK/GD32VW55X_Wifi_BLE_SDK/GD32VW55x_RELEASE_V1.0.2/MSDK/cloud/alicloud/src/infra/utils/misc\utils_httpc.c **** 
 833:C:/Users/stapi/OneDrive/Desktop/GD32VW553/V1_MQTT_OK/GD32VW55X_Wifi_BLE_SDK/GD32VW55x_RELEASE_V1.0.2/MSDK/cloud/alicloud/src/infra/utils/misc\utils_httpc.c ****     if (client_data->is_more) {
 834:C:/Users/stapi/OneDrive/Desktop/GD32VW553/V1_MQTT_OK/GD32VW55X_Wifi_BLE_SDK/GD32VW55x_RELEASE_V1.0.2/MSDK/cloud/alicloud/src/infra/utils/misc\utils_httpc.c ****         client_data->response_buf[0] = '\0';
 835:C:/Users/stapi/OneDrive/Desktop/GD32VW553/V1_MQTT_OK/GD32VW55X_Wifi_BLE_SDK/GD32VW55x_RELEASE_V1.0.2/MSDK/cloud/alicloud/src/infra/utils/misc\utils_httpc.c ****         ret = httpclient_retrieve_content(client, buf, reclen, iotx_time_left(&timer), client_data)
 836:C:/Users/stapi/OneDrive/Desktop/GD32VW553/V1_MQTT_OK/GD32VW55X_Wifi_BLE_SDK/GD32VW55x_RELEASE_V1.0.2/MSDK/cloud/alicloud/src/infra/utils/misc\utils_httpc.c ****     } else {
 837:C:/Users/stapi/OneDrive/Desktop/GD32VW553/V1_MQTT_OK/GD32VW55X_Wifi_BLE_SDK/GD32VW55x_RELEASE_V1.0.2/MSDK/cloud/alicloud/src/infra/utils/misc\utils_httpc.c ****         client_data->is_more = 1;
 838:C:/Users/stapi/OneDrive/Desktop/GD32VW553/V1_MQTT_OK/GD32VW55X_Wifi_BLE_SDK/GD32VW55x_RELEASE_V1.0.2/MSDK/cloud/alicloud/src/infra/utils/misc\utils_httpc.c ****         /* try to read header */
 839:C:/Users/stapi/OneDrive/Desktop/GD32VW553/V1_MQTT_OK/GD32VW55X_Wifi_BLE_SDK/GD32VW55x_RELEASE_V1.0.2/MSDK/cloud/alicloud/src/infra/utils/misc\utils_httpc.c ****         ret = httpclient_recv(client, buf, 1, HTTPCLIENT_RAED_HEAD_SIZE, &reclen, iotx_time_left(&t
 840:C:/Users/stapi/OneDrive/Desktop/GD32VW553/V1_MQTT_OK/GD32VW55X_Wifi_BLE_SDK/GD32VW55x_RELEASE_V1.0.2/MSDK/cloud/alicloud/src/infra/utils/misc\utils_httpc.c ****         if (ret != 0) {
 841:C:/Users/stapi/OneDrive/Desktop/GD32VW553/V1_MQTT_OK/GD32VW55X_Wifi_BLE_SDK/GD32VW55x_RELEASE_V1.0.2/MSDK/cloud/alicloud/src/infra/utils/misc\utils_httpc.c ****             goto err;
 842:C:/Users/stapi/OneDrive/Desktop/GD32VW553/V1_MQTT_OK/GD32VW55X_Wifi_BLE_SDK/GD32VW55x_RELEASE_V1.0.2/MSDK/cloud/alicloud/src/infra/utils/misc\utils_httpc.c ****         }
 843:C:/Users/stapi/OneDrive/Desktop/GD32VW553/V1_MQTT_OK/GD32VW55X_Wifi_BLE_SDK/GD32VW55x_RELEASE_V1.0.2/MSDK/cloud/alicloud/src/infra/utils/misc\utils_httpc.c **** 
 844:C:/Users/stapi/OneDrive/Desktop/GD32VW553/V1_MQTT_OK/GD32VW55X_Wifi_BLE_SDK/GD32VW55x_RELEASE_V1.0.2/MSDK/cloud/alicloud/src/infra/utils/misc\utils_httpc.c ****         buf[reclen] = '\0';
 845:C:/Users/stapi/OneDrive/Desktop/GD32VW553/V1_MQTT_OK/GD32VW55X_Wifi_BLE_SDK/GD32VW55x_RELEASE_V1.0.2/MSDK/cloud/alicloud/src/infra/utils/misc\utils_httpc.c **** 
 846:C:/Users/stapi/OneDrive/Desktop/GD32VW553/V1_MQTT_OK/GD32VW55X_Wifi_BLE_SDK/GD32VW55x_RELEASE_V1.0.2/MSDK/cloud/alicloud/src/infra/utils/misc\utils_httpc.c ****         if (reclen) {
 847:C:/Users/stapi/OneDrive/Desktop/GD32VW553/V1_MQTT_OK/GD32VW55X_Wifi_BLE_SDK/GD32VW55x_RELEASE_V1.0.2/MSDK/cloud/alicloud/src/infra/utils/misc\utils_httpc.c ****             log_multi_line(LOG_DEBUG_LEVEL, "RESPONSE", "%s", buf, "<");
 848:C:/Users/stapi/OneDrive/Desktop/GD32VW553/V1_MQTT_OK/GD32VW55X_Wifi_BLE_SDK/GD32VW55x_RELEASE_V1.0.2/MSDK/cloud/alicloud/src/infra/utils/misc\utils_httpc.c ****             ret = httpclient_response_parse(client, buf, reclen, iotx_time_left(&timer), client_dat
 849:C:/Users/stapi/OneDrive/Desktop/GD32VW553/V1_MQTT_OK/GD32VW55X_Wifi_BLE_SDK/GD32VW55x_RELEASE_V1.0.2/MSDK/cloud/alicloud/src/infra/utils/misc\utils_httpc.c ****         }
 850:C:/Users/stapi/OneDrive/Desktop/GD32VW553/V1_MQTT_OK/GD32VW55X_Wifi_BLE_SDK/GD32VW55x_RELEASE_V1.0.2/MSDK/cloud/alicloud/src/infra/utils/misc\utils_httpc.c ****     }
 851:C:/Users/stapi/OneDrive/Desktop/GD32VW553/V1_MQTT_OK/GD32VW55X_Wifi_BLE_SDK/GD32VW55x_RELEASE_V1.0.2/MSDK/cloud/alicloud/src/infra/utils/misc\utils_httpc.c **** err:
 852:C:/Users/stapi/OneDrive/Desktop/GD32VW553/V1_MQTT_OK/GD32VW55X_Wifi_BLE_SDK/GD32VW55x_RELEASE_V1.0.2/MSDK/cloud/alicloud/src/infra/utils/misc\utils_httpc.c ****     if (buf != NULL) {
 2980              		.loc 1 852 5 is_stmt 1
 853:C:/Users/stapi/OneDrive/Desktop/GD32VW553/V1_MQTT_OK/GD32VW55X_Wifi_BLE_SDK/GD32VW55x_RELEASE_V1.0.2/MSDK/cloud/alicloud/src/infra/utils/misc\utils_httpc.c ****         httpc_free(buf);
 2981              		.loc 1 853 9
 2982 0084 2285     		mv	a0,s0
 2983 0086 97000000 		call	LITE_free_internal
 2983      E7800000 
 2984              	.LVL359:
 2985 008e 01A6     		j	.L169
 2986              	.LVL360:
 2987              	.L171:
 833:C:/Users/stapi/OneDrive/Desktop/GD32VW553/V1_MQTT_OK/GD32VW55X_Wifi_BLE_SDK/GD32VW55x_RELEASE_V1.0.2/MSDK/cloud/alicloud/src/infra/utils/misc\utils_httpc.c ****         client_data->response_buf[0] = '\0';
 2988              		.loc 1 833 5
 833:C:/Users/stapi/OneDrive/Desktop/GD32VW553/V1_MQTT_OK/GD32VW55X_Wifi_BLE_SDK/GD32VW55x_RELEASE_V1.0.2/MSDK/cloud/alicloud/src/infra/utils/misc\utils_httpc.c ****         client_data->response_buf[0] = '\0';
 2989              		.loc 1 833 8 is_stmt 0
 2990 0090 83270900 		lw	a5,0(s2)
 2991 0094 9DC7     		beq	a5,zero,.L173
 834:C:/Users/stapi/OneDrive/Desktop/GD32VW553/V1_MQTT_OK/GD32VW55X_Wifi_BLE_SDK/GD32VW55x_RELEASE_V1.0.2/MSDK/cloud/alicloud/src/infra/utils/misc\utils_httpc.c ****         ret = httpclient_retrieve_content(client, buf, reclen, iotx_time_left(&timer), client_data)
 2992              		.loc 1 834 9 is_stmt 1
 834:C:/Users/stapi/OneDrive/Desktop/GD32VW553/V1_MQTT_OK/GD32VW55X_Wifi_BLE_SDK/GD32VW55x_RELEASE_V1.0.2/MSDK/cloud/alicloud/src/infra/utils/misc\utils_httpc.c ****         ret = httpclient_retrieve_content(client, buf, reclen, iotx_time_left(&timer), client_data)
 2993              		.loc 1 834 20 is_stmt 0
 2994 0096 83274902 		lw	a5,36(s2)
 835:C:/Users/stapi/OneDrive/Desktop/GD32VW553/V1_MQTT_OK/GD32VW55X_Wifi_BLE_SDK/GD32VW55x_RELEASE_V1.0.2/MSDK/cloud/alicloud/src/infra/utils/misc\utils_httpc.c ****     } else {
 2995              		.loc 1 835 15
 2996 009a 4808     		addi	a0,sp,20
 834:C:/Users/stapi/OneDrive/Desktop/GD32VW553/V1_MQTT_OK/GD32VW55X_Wifi_BLE_SDK/GD32VW55x_RELEASE_V1.0.2/MSDK/cloud/alicloud/src/infra/utils/misc\utils_httpc.c ****         ret = httpclient_retrieve_content(client, buf, reclen, iotx_time_left(&timer), client_data)
 2997              		.loc 1 834 38
 2998 009c 23800700 		sb	zero,0(a5)
 835:C:/Users/stapi/OneDrive/Desktop/GD32VW553/V1_MQTT_OK/GD32VW55X_Wifi_BLE_SDK/GD32VW55x_RELEASE_V1.0.2/MSDK/cloud/alicloud/src/infra/utils/misc\utils_httpc.c ****     } else {
 2999              		.loc 1 835 9 is_stmt 1
 835:C:/Users/stapi/OneDrive/Desktop/GD32VW553/V1_MQTT_OK/GD32VW55X_Wifi_BLE_SDK/GD32VW55x_RELEASE_V1.0.2/MSDK/cloud/alicloud/src/infra/utils/misc\utils_httpc.c ****     } else {
 3000              		.loc 1 835 15 is_stmt 0
 3001 00a0 4246     		lw	a2,16(sp)
 3002 00a2 32C6     		sw	a2,12(sp)
 3003 00a4 97000000 		call	iotx_time_left
 3003      E7800000 
 3004              	.LVL361:
 3005 00ac 3246     		lw	a2,12(sp)
 3006 00ae AA86     		mv	a3,a0
 3007 00b0 4A87     		mv	a4,s2
 3008              	.LVL362:
 3009              	.L192:
 3010              	.LBB52:
 3011              	.LBB53:
 772:C:/Users/stapi/OneDrive/Desktop/GD32VW553/V1_MQTT_OK/GD32VW55X_Wifi_BLE_SDK/GD32VW55x_RELEASE_V1.0.2/MSDK/cloud/alicloud/src/infra/utils/misc\utils_httpc.c **** }
 3012              		.loc 1 772 12
 3013 00b2 A285     		mv	a1,s0
 3014 00b4 5285     		mv	a0,s4
 3015 00b6 97000000 		call	httpclient_retrieve_content
 3015      E7800000 
 3016              	.LVL363:
 3017 00be AA84     		mv	s1,a0
 3018              	.LVL364:
 3019 00c0 D1B7     		j	.L172
 3020              	.LVL365:
 3021              	.L173:
 3022              	.LBE53:
 3023              	.LBE52:
 837:C:/Users/stapi/OneDrive/Desktop/GD32VW553/V1_MQTT_OK/GD32VW55X_Wifi_BLE_SDK/GD32VW55x_RELEASE_V1.0.2/MSDK/cloud/alicloud/src/infra/utils/misc\utils_httpc.c ****         /* try to read header */
 3024              		.loc 1 837 9 is_stmt 1
 837:C:/Users/stapi/OneDrive/Desktop/GD32VW553/V1_MQTT_OK/GD32VW55X_Wifi_BLE_SDK/GD32VW55x_RELEASE_V1.0.2/MSDK/cloud/alicloud/src/infra/utils/misc\utils_httpc.c ****         /* try to read header */
 3025              		.loc 1 837 30 is_stmt 0
 3026 00c2 8547     		li	a5,1
 3027 00c4 2320F900 		sw	a5,0(s2)
 839:C:/Users/stapi/OneDrive/Desktop/GD32VW553/V1_MQTT_OK/GD32VW55X_Wifi_BLE_SDK/GD32VW55x_RELEASE_V1.0.2/MSDK/cloud/alicloud/src/infra/utils/misc\utils_httpc.c ****         if (ret != 0) {
 3028              		.loc 1 839 9 is_stmt 1
 839:C:/Users/stapi/OneDrive/Desktop/GD32VW553/V1_MQTT_OK/GD32VW55X_Wifi_BLE_SDK/GD32VW55x_RELEASE_V1.0.2/MSDK/cloud/alicloud/src/infra/utils/misc\utils_httpc.c ****         if (ret != 0) {
 3029              		.loc 1 839 15 is_stmt 0
 3030 00c8 4808     		addi	a0,sp,20
 3031 00ca 97000000 		call	iotx_time_left
 3031      E7800000 
 3032              	.LVL366:
 3033 00d2 2A87     		mv	a4,a0
 3034 00d4 1408     		addi	a3,sp,16
 3035 00d6 13060002 		li	a2,32
 3036 00da A285     		mv	a1,s0
 3037 00dc 5285     		mv	a0,s4
 3038 00de 97000000 		call	httpclient_recv.constprop.0
 3038      E7800000 
 3039              	.LVL367:
 3040 00e6 AA84     		mv	s1,a0
 3041              	.LVL368:
 840:C:/Users/stapi/OneDrive/Desktop/GD32VW553/V1_MQTT_OK/GD32VW55X_Wifi_BLE_SDK/GD32VW55x_RELEASE_V1.0.2/MSDK/cloud/alicloud/src/infra/utils/misc\utils_httpc.c ****             goto err;
 3042              		.loc 1 840 9 is_stmt 1
 840:C:/Users/stapi/OneDrive/Desktop/GD32VW553/V1_MQTT_OK/GD32VW55X_Wifi_BLE_SDK/GD32VW55x_RELEASE_V1.0.2/MSDK/cloud/alicloud/src/infra/utils/misc\utils_httpc.c ****             goto err;
 3043              		.loc 1 840 12 is_stmt 0
 3044 00e8 51FD     		bne	a0,zero,.L172
 844:C:/Users/stapi/OneDrive/Desktop/GD32VW553/V1_MQTT_OK/GD32VW55X_Wifi_BLE_SDK/GD32VW55x_RELEASE_V1.0.2/MSDK/cloud/alicloud/src/infra/utils/misc\utils_httpc.c **** 
 3045              		.loc 1 844 9 is_stmt 1
 844:C:/Users/stapi/OneDrive/Desktop/GD32VW553/V1_MQTT_OK/GD32VW55X_Wifi_BLE_SDK/GD32VW55x_RELEASE_V1.0.2/MSDK/cloud/alicloud/src/infra/utils/misc\utils_httpc.c **** 
 3046              		.loc 1 844 21 is_stmt 0
 3047 00ea C247     		lw	a5,16(sp)
 3048 00ec A297     		add	a5,s0,a5
 3049 00ee 23800700 		sb	zero,0(a5)
 846:C:/Users/stapi/OneDrive/Desktop/GD32VW553/V1_MQTT_OK/GD32VW55X_Wifi_BLE_SDK/GD32VW55x_RELEASE_V1.0.2/MSDK/cloud/alicloud/src/infra/utils/misc\utils_httpc.c ****             log_multi_line(LOG_DEBUG_LEVEL, "RESPONSE", "%s", buf, "<");
 3050              		.loc 1 846 9 is_stmt 1
 846:C:/Users/stapi/OneDrive/Desktop/GD32VW553/V1_MQTT_OK/GD32VW55X_Wifi_BLE_SDK/GD32VW55x_RELEASE_V1.0.2/MSDK/cloud/alicloud/src/infra/utils/misc\utils_httpc.c ****             log_multi_line(LOG_DEBUG_LEVEL, "RESPONSE", "%s", buf, "<");
 3051              		.loc 1 846 13 is_stmt 0
 3052 00f2 C244     		lw	s1,16(sp)
 3053              	.LVL369:
 846:C:/Users/stapi/OneDrive/Desktop/GD32VW553/V1_MQTT_OK/GD32VW55X_Wifi_BLE_SDK/GD32VW55x_RELEASE_V1.0.2/MSDK/cloud/alicloud/src/infra/utils/misc\utils_httpc.c ****             log_multi_line(LOG_DEBUG_LEVEL, "RESPONSE", "%s", buf, "<");
 3054              		.loc 1 846 12
 3055 00f4 C1D8     		beq	s1,zero,.L172
 847:C:/Users/stapi/OneDrive/Desktop/GD32VW553/V1_MQTT_OK/GD32VW55X_Wifi_BLE_SDK/GD32VW55x_RELEASE_V1.0.2/MSDK/cloud/alicloud/src/infra/utils/misc\utils_httpc.c ****             ret = httpclient_response_parse(client, buf, reclen, iotx_time_left(&timer), client_dat
 3056              		.loc 1 847 13 is_stmt 1
 3057 00f6 B7070000 		lui	a5,%hi(.LC53)
 3058 00fa 37060000 		lui	a2,%hi(.LC54)
 3059 00fe 37050000 		lui	a0,%hi(.LANCHOR6)
 3060              	.LVL370:
 3061 0102 93870700 		addi	a5,a5,%lo(.LC53)
 3062 0106 2287     		mv	a4,s0
 3063 0108 9546     		li	a3,5
 3064 010a 13060600 		addi	a2,a2,%lo(.LC54)
 3065 010e 9305F034 		li	a1,847
 3066 0112 13050500 		addi	a0,a0,%lo(.LANCHOR6)
 3067 0116 97000000 		call	log_multi_line_internal
 3067      E7800000 
 3068              	.LVL371:
 848:C:/Users/stapi/OneDrive/Desktop/GD32VW553/V1_MQTT_OK/GD32VW55X_Wifi_BLE_SDK/GD32VW55x_RELEASE_V1.0.2/MSDK/cloud/alicloud/src/infra/utils/misc\utils_httpc.c ****         }
 3069              		.loc 1 848 13
 848:C:/Users/stapi/OneDrive/Desktop/GD32VW553/V1_MQTT_OK/GD32VW55X_Wifi_BLE_SDK/GD32VW55x_RELEASE_V1.0.2/MSDK/cloud/alicloud/src/infra/utils/misc\utils_httpc.c ****         }
 3070              		.loc 1 848 19 is_stmt 0
 3071 011e 4808     		addi	a0,sp,20
 3072 0120 C249     		lw	s3,16(sp)
 3073 0122 97000000 		call	iotx_time_left
 3073      E7800000 
 3074              	.LVL372:
 3075 012a 2AC6     		sw	a0,12(sp)
 3076              	.LVL373:
 3077              	.LBB58:
 3078              	.LBB57:
 672:C:/Users/stapi/OneDrive/Desktop/GD32VW553/V1_MQTT_OK/GD32VW55X_Wifi_BLE_SDK/GD32VW55x_RELEASE_V1.0.2/MSDK/cloud/alicloud/src/infra/utils/misc\utils_httpc.c ****     iotx_time_t timer;
 3079              		.loc 1 672 5 is_stmt 1
 673:C:/Users/stapi/OneDrive/Desktop/GD32VW553/V1_MQTT_OK/GD32VW55X_Wifi_BLE_SDK/GD32VW55x_RELEASE_V1.0.2/MSDK/cloud/alicloud/src/infra/utils/misc\utils_httpc.c ****     char *tmp_ptr, *ptr_body_end;
 3080              		.loc 1 673 5
 674:C:/Users/stapi/OneDrive/Desktop/GD32VW553/V1_MQTT_OK/GD32VW55X_Wifi_BLE_SDK/GD32VW55x_RELEASE_V1.0.2/MSDK/cloud/alicloud/src/infra/utils/misc\utils_httpc.c **** 
 3081              		.loc 1 674 5
 676:C:/Users/stapi/OneDrive/Desktop/GD32VW553/V1_MQTT_OK/GD32VW55X_Wifi_BLE_SDK/GD32VW55x_RELEASE_V1.0.2/MSDK/cloud/alicloud/src/infra/utils/misc\utils_httpc.c **** 
 3082              		.loc 1 676 5
 678:C:/Users/stapi/OneDrive/Desktop/GD32VW553/V1_MQTT_OK/GD32VW55X_Wifi_BLE_SDK/GD32VW55x_RELEASE_V1.0.2/MSDK/cloud/alicloud/src/infra/utils/misc\utils_httpc.c ****     utils_time_countdown_ms(&timer, timeout_ms);
 3083              		.loc 1 678 5
 3084 012c 2808     		addi	a0,sp,24
 3085              	.LVL374:
 3086 012e 97000000 		call	iotx_time_init
 3086      E7800000 
 3087              	.LVL375:
 679:C:/Users/stapi/OneDrive/Desktop/GD32VW553/V1_MQTT_OK/GD32VW55X_Wifi_BLE_SDK/GD32VW55x_RELEASE_V1.0.2/MSDK/cloud/alicloud/src/infra/utils/misc\utils_httpc.c **** 
 3088              		.loc 1 679 5
 3089 0136 B245     		lw	a1,12(sp)
 3090 0138 2808     		addi	a0,sp,24
 691:C:/Users/stapi/OneDrive/Desktop/GD32VW553/V1_MQTT_OK/GD32VW55X_Wifi_BLE_SDK/GD32VW55x_RELEASE_V1.0.2/MSDK/cloud/alicloud/src/infra/utils/misc\utils_httpc.c ****     if (crlf_ptr == NULL) {
 3091              		.loc 1 691 22 is_stmt 0
 3092 013a B7040000 		lui	s1,%hi(.LC4)
 679:C:/Users/stapi/OneDrive/Desktop/GD32VW553/V1_MQTT_OK/GD32VW55X_Wifi_BLE_SDK/GD32VW55x_RELEASE_V1.0.2/MSDK/cloud/alicloud/src/infra/utils/misc\utils_httpc.c **** 
 3093              		.loc 1 679 5
 3094 013e 97000000 		call	utils_time_countdown_ms
 3094      E7800000 
 3095              	.LVL376:
 681:C:/Users/stapi/OneDrive/Desktop/GD32VW553/V1_MQTT_OK/GD32VW55X_Wifi_BLE_SDK/GD32VW55x_RELEASE_V1.0.2/MSDK/cloud/alicloud/src/infra/utils/misc\utils_httpc.c **** 
 3096              		.loc 1 681 5 is_stmt 1
 681:C:/Users/stapi/OneDrive/Desktop/GD32VW553/V1_MQTT_OK/GD32VW55X_Wifi_BLE_SDK/GD32VW55x_RELEASE_V1.0.2/MSDK/cloud/alicloud/src/infra/utils/misc\utils_httpc.c **** 
 3097              		.loc 1 681 39 is_stmt 0
 3098 0146 FD57     		li	a5,-1
 3099 0148 2326F900 		sw	a5,12(s2)
 691:C:/Users/stapi/OneDrive/Desktop/GD32VW553/V1_MQTT_OK/GD32VW55X_Wifi_BLE_SDK/GD32VW55x_RELEASE_V1.0.2/MSDK/cloud/alicloud/src/infra/utils/misc\utils_httpc.c ****     if (crlf_ptr == NULL) {
 3100              		.loc 1 691 5 is_stmt 1
 691:C:/Users/stapi/OneDrive/Desktop/GD32VW553/V1_MQTT_OK/GD32VW55X_Wifi_BLE_SDK/GD32VW55x_RELEASE_V1.0.2/MSDK/cloud/alicloud/src/infra/utils/misc\utils_httpc.c ****     if (crlf_ptr == NULL) {
 3101              		.loc 1 691 22 is_stmt 0
 3102 014c 93850400 		addi	a1,s1,%lo(.LC4)
 3103 0150 2285     		mv	a0,s0
 3104 0152 97000000 		call	strstr
 3104      E7800000 
 3105              	.LVL377:
 692:C:/Users/stapi/OneDrive/Desktop/GD32VW553/V1_MQTT_OK/GD32VW55X_Wifi_BLE_SDK/GD32VW55x_RELEASE_V1.0.2/MSDK/cloud/alicloud/src/infra/utils/misc\utils_httpc.c ****         utils_err("httpc no response");
 3106              		.loc 1 692 5 is_stmt 1
 3107 015a A68B     		mv	s7,s1
 692:C:/Users/stapi/OneDrive/Desktop/GD32VW553/V1_MQTT_OK/GD32VW55X_Wifi_BLE_SDK/GD32VW55x_RELEASE_V1.0.2/MSDK/cloud/alicloud/src/infra/utils/misc\utils_httpc.c ****         utils_err("httpc no response");
 3108              		.loc 1 692 8 is_stmt 0
 3109 015c 0DE9     		bne	a0,zero,.L174
 693:C:/Users/stapi/OneDrive/Desktop/GD32VW553/V1_MQTT_OK/GD32VW55X_Wifi_BLE_SDK/GD32VW55x_RELEASE_V1.0.2/MSDK/cloud/alicloud/src/infra/utils/misc\utils_httpc.c ****         return ERROR_HTTP_UNRESOLVED_DNS;
 3110              		.loc 1 693 9 is_stmt 1
 693:C:/Users/stapi/OneDrive/Desktop/GD32VW553/V1_MQTT_OK/GD32VW55X_Wifi_BLE_SDK/GD32VW55x_RELEASE_V1.0.2/MSDK/cloud/alicloud/src/infra/utils/misc\utils_httpc.c ****         return ERROR_HTTP_UNRESOLVED_DNS;
 3111              		.loc 1 693 9
 3112 015e 37050000 		lui	a0,%hi(.LC2)
 3113              	.LVL378:
 3114 0162 13050500 		addi	a0,a0,%lo(.LC2)
 3115 0166 97000000 		call	HAL_Printf
 3115      E7800000 
 3116              	.LVL379:
 693:C:/Users/stapi/OneDrive/Desktop/GD32VW553/V1_MQTT_OK/GD32VW55X_Wifi_BLE_SDK/GD32VW55x_RELEASE_V1.0.2/MSDK/cloud/alicloud/src/infra/utils/misc\utils_httpc.c ****         return ERROR_HTTP_UNRESOLVED_DNS;
 3117              		.loc 1 693 9
 3118 016e 37050000 		lui	a0,%hi(.LC55)
 3119 0172 13050500 		addi	a0,a0,%lo(.LC55)
 3120 0176 97000000 		call	HAL_Printf
 3120      E7800000 
 3121              	.LVL380:
 693:C:/Users/stapi/OneDrive/Desktop/GD32VW553/V1_MQTT_OK/GD32VW55X_Wifi_BLE_SDK/GD32VW55x_RELEASE_V1.0.2/MSDK/cloud/alicloud/src/infra/utils/misc\utils_httpc.c ****         return ERROR_HTTP_UNRESOLVED_DNS;
 3122              		.loc 1 693 9
 3123 017e 13850400 		addi	a0,s1,%lo(.LC4)
 3124 0182 97000000 		call	HAL_Printf
 3124      E7800000 
 3125              	.LVL381:
 693:C:/Users/stapi/OneDrive/Desktop/GD32VW553/V1_MQTT_OK/GD32VW55X_Wifi_BLE_SDK/GD32VW55x_RELEASE_V1.0.2/MSDK/cloud/alicloud/src/infra/utils/misc\utils_httpc.c ****         return ERROR_HTTP_UNRESOLVED_DNS;
 3126              		.loc 1 693 9
 694:C:/Users/stapi/OneDrive/Desktop/GD32VW553/V1_MQTT_OK/GD32VW55X_Wifi_BLE_SDK/GD32VW55x_RELEASE_V1.0.2/MSDK/cloud/alicloud/src/infra/utils/misc\utils_httpc.c ****     }
 3127              		.loc 1 694 9
 694:C:/Users/stapi/OneDrive/Desktop/GD32VW553/V1_MQTT_OK/GD32VW55X_Wifi_BLE_SDK/GD32VW55x_RELEASE_V1.0.2/MSDK/cloud/alicloud/src/infra/utils/misc\utils_httpc.c ****     }
 3128              		.loc 1 694 16 is_stmt 0
 3129 018a E954     		li	s1,-6
 3130 018c E5BD     		j	.L172
 3131              	.LVL382:
 3132              	.L174:
 697:C:/Users/stapi/OneDrive/Desktop/GD32VW553/V1_MQTT_OK/GD32VW55X_Wifi_BLE_SDK/GD32VW55x_RELEASE_V1.0.2/MSDK/cloud/alicloud/src/infra/utils/misc\utils_httpc.c ****     data[crlf_pos] = '\0';
 3133              		.loc 1 697 5 is_stmt 1
 698:C:/Users/stapi/OneDrive/Desktop/GD32VW553/V1_MQTT_OK/GD32VW55X_Wifi_BLE_SDK/GD32VW55x_RELEASE_V1.0.2/MSDK/cloud/alicloud/src/infra/utils/misc\utils_httpc.c **** 
 3134              		.loc 1 698 20 is_stmt 0
 3135 018e 23000500 		sb	zero,0(a0)
 697:C:/Users/stapi/OneDrive/Desktop/GD32VW553/V1_MQTT_OK/GD32VW55X_Wifi_BLE_SDK/GD32VW55x_RELEASE_V1.0.2/MSDK/cloud/alicloud/src/infra/utils/misc\utils_httpc.c ****     data[crlf_pos] = '\0';
 3136              		.loc 1 697 14
 3137 0192 B3048540 		sub	s1,a0,s0
 3138              	.LVL383:
 698:C:/Users/stapi/OneDrive/Desktop/GD32VW553/V1_MQTT_OK/GD32VW55X_Wifi_BLE_SDK/GD32VW55x_RELEASE_V1.0.2/MSDK/cloud/alicloud/src/infra/utils/misc\utils_httpc.c **** 
 3139              		.loc 1 698 5 is_stmt 1
 709:C:/Users/stapi/OneDrive/Desktop/GD32VW553/V1_MQTT_OK/GD32VW55X_Wifi_BLE_SDK/GD32VW55x_RELEASE_V1.0.2/MSDK/cloud/alicloud/src/infra/utils/misc\utils_httpc.c **** 
 3140              		.loc 1 709 5
 709:C:/Users/stapi/OneDrive/Desktop/GD32VW553/V1_MQTT_OK/GD32VW55X_Wifi_BLE_SDK/GD32VW55x_RELEASE_V1.0.2/MSDK/cloud/alicloud/src/infra/utils/misc\utils_httpc.c **** 
 3141              		.loc 1 709 29 is_stmt 0
 3142 0196 13059400 		addi	a0,s0,9
 3143              	.LVL384:
 3144 019a 97000000 		call	atoi
 3144      E7800000 
 3145              	.LVL385:
 709:C:/Users/stapi/OneDrive/Desktop/GD32VW553/V1_MQTT_OK/GD32VW55X_Wifi_BLE_SDK/GD32VW55x_RELEASE_V1.0.2/MSDK/cloud/alicloud/src/infra/utils/misc\utils_httpc.c **** 
 3146              		.loc 1 709 27
 3147 01a2 2322AA02 		sw	a0,36(s4)
 711:C:/Users/stapi/OneDrive/Desktop/GD32VW553/V1_MQTT_OK/GD32VW55X_Wifi_BLE_SDK/GD32VW55x_RELEASE_V1.0.2/MSDK/cloud/alicloud/src/infra/utils/misc\utils_httpc.c ****         /* Did not return a 2xx code; TODO fetch headers/(&data?) anyway and implement a mean of wr
 3148              		.loc 1 711 5 is_stmt 1
 711:C:/Users/stapi/OneDrive/Desktop/GD32VW553/V1_MQTT_OK/GD32VW55X_Wifi_BLE_SDK/GD32VW55x_RELEASE_V1.0.2/MSDK/cloud/alicloud/src/infra/utils/misc\utils_httpc.c ****         /* Did not return a 2xx code; TODO fetch headers/(&data?) anyway and implement a mean of wr
 3149              		.loc 1 711 8 is_stmt 0
 3150 01a6 9307700C 		li	a5,199
 711:C:/Users/stapi/OneDrive/Desktop/GD32VW553/V1_MQTT_OK/GD32VW55X_Wifi_BLE_SDK/GD32VW55x_RELEASE_V1.0.2/MSDK/cloud/alicloud/src/infra/utils/misc\utils_httpc.c ****         /* Did not return a 2xx code; TODO fetch headers/(&data?) anyway and implement a mean of wr
 3151              		.loc 1 711 39
 3152 01aa 130585F3 		addi	a0,a0,-200
 711:C:/Users/stapi/OneDrive/Desktop/GD32VW553/V1_MQTT_OK/GD32VW55X_Wifi_BLE_SDK/GD32VW55x_RELEASE_V1.0.2/MSDK/cloud/alicloud/src/infra/utils/misc\utils_httpc.c ****         /* Did not return a 2xx code; TODO fetch headers/(&data?) anyway and implement a mean of wr
 3153              		.loc 1 711 8
 3154 01ae 63FAA702 		bleu	a0,a5,.L176
 713:C:/Users/stapi/OneDrive/Desktop/GD32VW553/V1_MQTT_OK/GD32VW55X_Wifi_BLE_SDK/GD32VW55x_RELEASE_V1.0.2/MSDK/cloud/alicloud/src/infra/utils/misc\utils_httpc.c ****     }
 3155              		.loc 1 713 9 is_stmt 1
 713:C:/Users/stapi/OneDrive/Desktop/GD32VW553/V1_MQTT_OK/GD32VW55X_Wifi_BLE_SDK/GD32VW55x_RELEASE_V1.0.2/MSDK/cloud/alicloud/src/infra/utils/misc\utils_httpc.c ****     }
 3156              		.loc 1 713 9
 3157 01b2 37050000 		lui	a0,%hi(.LC56)
 3158 01b6 13050500 		addi	a0,a0,%lo(.LC56)
 3159 01ba 97000000 		call	HAL_Printf
 3159      E7800000 
 3160              	.LVL386:
 713:C:/Users/stapi/OneDrive/Desktop/GD32VW553/V1_MQTT_OK/GD32VW55X_Wifi_BLE_SDK/GD32VW55x_RELEASE_V1.0.2/MSDK/cloud/alicloud/src/infra/utils/misc\utils_httpc.c ****     }
 3161              		.loc 1 713 9
 3162 01c2 83254A02 		lw	a1,36(s4)
 3163 01c6 37050000 		lui	a0,%hi(.LC57)
 3164 01ca 13050500 		addi	a0,a0,%lo(.LC57)
 3165 01ce 97000000 		call	HAL_Printf
 3165      E7800000 
 3166              	.LVL387:
 713:C:/Users/stapi/OneDrive/Desktop/GD32VW553/V1_MQTT_OK/GD32VW55X_Wifi_BLE_SDK/GD32VW55x_RELEASE_V1.0.2/MSDK/cloud/alicloud/src/infra/utils/misc\utils_httpc.c ****     }
 3167              		.loc 1 713 9
 3168 01d6 13850B00 		addi	a0,s7,%lo(.LC4)
 3169 01da 97000000 		call	HAL_Printf
 3169      E7800000 
 3170              	.LVL388:
 3171              	.L176:
 713:C:/Users/stapi/OneDrive/Desktop/GD32VW553/V1_MQTT_OK/GD32VW55X_Wifi_BLE_SDK/GD32VW55x_RELEASE_V1.0.2/MSDK/cloud/alicloud/src/infra/utils/misc\utils_httpc.c ****     }
 3172              		.loc 1 713 9
 716:C:/Users/stapi/OneDrive/Desktop/GD32VW553/V1_MQTT_OK/GD32VW55X_Wifi_BLE_SDK/GD32VW55x_RELEASE_V1.0.2/MSDK/cloud/alicloud/src/infra/utils/misc\utils_httpc.c **** 
 3173              		.loc 1 716 5
 3174 01e2 B70A0000 		lui	s5,%hi(.LANCHOR7)
 3175 01e6 37070000 		lui	a4,%hi(.LC58)
 3176 01ea 370B0000 		lui	s6,%hi(.LC1)
 3177 01ee A287     		mv	a5,s0
 3178 01f0 13070700 		addi	a4,a4,%lo(.LC58)
 3179 01f4 9546     		li	a3,5
 3180 01f6 1306C02C 		li	a2,716
 3181 01fa 93850A00 		addi	a1,s5,%lo(.LANCHOR7)
 3182 01fe 13050B00 		addi	a0,s6,%lo(.LC1)
 3183 0202 97000000 		call	LITE_syslog
 3183      E7800000 
 3184              	.LVL389:
 718:C:/Users/stapi/OneDrive/Desktop/GD32VW553/V1_MQTT_OK/GD32VW55X_Wifi_BLE_SDK/GD32VW55x_RELEASE_V1.0.2/MSDK/cloud/alicloud/src/infra/utils/misc\utils_httpc.c ****     len -= (crlf_pos + 2);       /* remove status_line length */
 3185              		.loc 1 718 5
 718:C:/Users/stapi/OneDrive/Desktop/GD32VW553/V1_MQTT_OK/GD32VW55X_Wifi_BLE_SDK/GD32VW55x_RELEASE_V1.0.2/MSDK/cloud/alicloud/src/infra/utils/misc\utils_httpc.c ****     len -= (crlf_pos + 2);       /* remove status_line length */
 3186              		.loc 1 718 56 is_stmt 0
 3187 020a 93852400 		addi	a1,s1,2
 718:C:/Users/stapi/OneDrive/Desktop/GD32VW553/V1_MQTT_OK/GD32VW55X_Wifi_BLE_SDK/GD32VW55x_RELEASE_V1.0.2/MSDK/cloud/alicloud/src/infra/utils/misc\utils_httpc.c ****     len -= (crlf_pos + 2);       /* remove status_line length */
 3188              		.loc 1 718 44
 3189 020e B389B940 		sub	s3,s3,a1
 3190              	.LVL390:
 718:C:/Users/stapi/OneDrive/Desktop/GD32VW553/V1_MQTT_OK/GD32VW55X_Wifi_BLE_SDK/GD32VW55x_RELEASE_V1.0.2/MSDK/cloud/alicloud/src/infra/utils/misc\utils_httpc.c ****     len -= (crlf_pos + 2);       /* remove status_line length */
 3191              		.loc 1 718 5
 3192 0212 13861900 		addi	a2,s3,1
 3193 0216 A295     		add	a1,s0,a1
 3194 0218 2285     		mv	a0,s0
 3195 021a 97000000 		call	memmove
 3195      E7800000 
 3196              	.LVL391:
 719:C:/Users/stapi/OneDrive/Desktop/GD32VW553/V1_MQTT_OK/GD32VW55X_Wifi_BLE_SDK/GD32VW55x_RELEASE_V1.0.2/MSDK/cloud/alicloud/src/infra/utils/misc\utils_httpc.c **** 
 3197              		.loc 1 719 5 is_stmt 1
 721:C:/Users/stapi/OneDrive/Desktop/GD32VW553/V1_MQTT_OK/GD32VW55X_Wifi_BLE_SDK/GD32VW55x_RELEASE_V1.0.2/MSDK/cloud/alicloud/src/infra/utils/misc\utils_httpc.c **** 
 3198              		.loc 1 721 5
 725:C:/Users/stapi/OneDrive/Desktop/GD32VW553/V1_MQTT_OK/GD32VW55X_Wifi_BLE_SDK/GD32VW55x_RELEASE_V1.0.2/MSDK/cloud/alicloud/src/infra/utils/misc\utils_httpc.c ****         /* try to read more header */
 3199              		.loc 1 725 36 is_stmt 0
 3200 0222 370C0000 		lui	s8,%hi(.LC60)
 721:C:/Users/stapi/OneDrive/Desktop/GD32VW553/V1_MQTT_OK/GD32VW55X_Wifi_BLE_SDK/GD32VW55x_RELEASE_V1.0.2/MSDK/cloud/alicloud/src/infra/utils/misc\utils_httpc.c **** 
 3201              		.loc 1 721 29
 3202 0226 23220900 		sw	zero,4(s2)
 725:C:/Users/stapi/OneDrive/Desktop/GD32VW553/V1_MQTT_OK/GD32VW55X_Wifi_BLE_SDK/GD32VW55x_RELEASE_V1.0.2/MSDK/cloud/alicloud/src/infra/utils/misc\utils_httpc.c ****         /* try to read more header */
 3203              		.loc 1 725 5 is_stmt 1
 3204              	.LBB54:
 727:C:/Users/stapi/OneDrive/Desktop/GD32VW553/V1_MQTT_OK/GD32VW55X_Wifi_BLE_SDK/GD32VW55x_RELEASE_V1.0.2/MSDK/cloud/alicloud/src/infra/utils/misc\utils_httpc.c ****         if (max_remain_len <= 0) {
 3205              		.loc 1 727 13 is_stmt 0
 3206 022a 930CF03F 		li	s9,1023
 732:C:/Users/stapi/OneDrive/Desktop/GD32VW553/V1_MQTT_OK/GD32VW55X_Wifi_BLE_SDK/GD32VW55x_RELEASE_V1.0.2/MSDK/cloud/alicloud/src/infra/utils/misc\utils_httpc.c **** #ifndef LINK_VISUAL_ENABLE
 3207              		.loc 1 732 24
 3208 022e 130D0002 		li	s10,32
 739:C:/Users/stapi/OneDrive/Desktop/GD32VW553/V1_MQTT_OK/GD32VW55X_Wifi_BLE_SDK/GD32VW55x_RELEASE_V1.0.2/MSDK/cloud/alicloud/src/infra/utils/misc\utils_httpc.c ****             return ret;
 3209              		.loc 1 739 12
 3210 0232 E15D     		li	s11,-8
 3211              	.LVL392:
 3212              	.L177:
 3213              	.LBE54:
 725:C:/Users/stapi/OneDrive/Desktop/GD32VW553/V1_MQTT_OK/GD32VW55X_Wifi_BLE_SDK/GD32VW55x_RELEASE_V1.0.2/MSDK/cloud/alicloud/src/infra/utils/misc\utils_httpc.c ****         /* try to read more header */
 3214              		.loc 1 725 11 is_stmt 1
 725:C:/Users/stapi/OneDrive/Desktop/GD32VW553/V1_MQTT_OK/GD32VW55X_Wifi_BLE_SDK/GD32VW55x_RELEASE_V1.0.2/MSDK/cloud/alicloud/src/infra/utils/misc\utils_httpc.c ****         /* try to read more header */
 3215              		.loc 1 725 36 is_stmt 0
 3216 0234 93050C00 		addi	a1,s8,%lo(.LC60)
 3217 0238 2285     		mv	a0,s0
 3218 023a 97000000 		call	strstr
 3218      E7800000 
 3219              	.LVL393:
 3220 0242 AA84     		mv	s1,a0
 3221              	.LVL394:
 725:C:/Users/stapi/OneDrive/Desktop/GD32VW553/V1_MQTT_OK/GD32VW55X_Wifi_BLE_SDK/GD32VW55x_RELEASE_V1.0.2/MSDK/cloud/alicloud/src/infra/utils/misc\utils_httpc.c ****         /* try to read more header */
 3222              		.loc 1 725 11
 3223 0244 39CD     		beq	a0,zero,.L179
 747:C:/Users/stapi/OneDrive/Desktop/GD32VW553/V1_MQTT_OK/GD32VW55X_Wifi_BLE_SDK/GD32VW55x_RELEASE_V1.0.2/MSDK/cloud/alicloud/src/infra/utils/misc\utils_httpc.c ****         client_data->response_content_len = atoi(tmp_ptr + strlen("Content-Length: "));
 3224              		.loc 1 747 5 is_stmt 1
 747:C:/Users/stapi/OneDrive/Desktop/GD32VW553/V1_MQTT_OK/GD32VW55X_Wifi_BLE_SDK/GD32VW55x_RELEASE_V1.0.2/MSDK/cloud/alicloud/src/infra/utils/misc\utils_httpc.c ****         client_data->response_content_len = atoi(tmp_ptr + strlen("Content-Length: "));
 3225              		.loc 1 747 28 is_stmt 0
 3226 0246 B7050000 		lui	a1,%hi(.LC61)
 3227 024a 93850500 		addi	a1,a1,%lo(.LC61)
 3228 024e 2285     		mv	a0,s0
 3229 0250 97000000 		call	strstr
 3229      E7800000 
 3230              	.LVL395:
 747:C:/Users/stapi/OneDrive/Desktop/GD32VW553/V1_MQTT_OK/GD32VW55X_Wifi_BLE_SDK/GD32VW55x_RELEASE_V1.0.2/MSDK/cloud/alicloud/src/infra/utils/misc\utils_httpc.c ****         client_data->response_content_len = atoi(tmp_ptr + strlen("Content-Length: "));
 3231              		.loc 1 747 8
 3232 0258 5DC5     		beq	a0,zero,.L180
 748:C:/Users/stapi/OneDrive/Desktop/GD32VW553/V1_MQTT_OK/GD32VW55X_Wifi_BLE_SDK/GD32VW55x_RELEASE_V1.0.2/MSDK/cloud/alicloud/src/infra/utils/misc\utils_httpc.c ****         client_data->retrieve_len = client_data->response_content_len;
 3233              		.loc 1 748 9 is_stmt 1
 748:C:/Users/stapi/OneDrive/Desktop/GD32VW553/V1_MQTT_OK/GD32VW55X_Wifi_BLE_SDK/GD32VW55x_RELEASE_V1.0.2/MSDK/cloud/alicloud/src/infra/utils/misc\utils_httpc.c ****         client_data->retrieve_len = client_data->response_content_len;
 3234              		.loc 1 748 45 is_stmt 0
 3235 025a 4105     		addi	a0,a0,16
 3236              	.LVL396:
 3237 025c 97000000 		call	atoi
 3237      E7800000 
 3238              	.LVL397:
 748:C:/Users/stapi/OneDrive/Desktop/GD32VW553/V1_MQTT_OK/GD32VW55X_Wifi_BLE_SDK/GD32VW55x_RELEASE_V1.0.2/MSDK/cloud/alicloud/src/infra/utils/misc\utils_httpc.c ****         client_data->retrieve_len = client_data->response_content_len;
 3239              		.loc 1 748 43
 3240 0264 2326A900 		sw	a0,12(s2)
 749:C:/Users/stapi/OneDrive/Desktop/GD32VW553/V1_MQTT_OK/GD32VW55X_Wifi_BLE_SDK/GD32VW55x_RELEASE_V1.0.2/MSDK/cloud/alicloud/src/infra/utils/misc\utils_httpc.c ****     } else if (NULL != (tmp_ptr = strstr(data, "Transfer-Encoding"))) {
 3241              		.loc 1 749 9 is_stmt 1
 749:C:/Users/stapi/OneDrive/Desktop/GD32VW553/V1_MQTT_OK/GD32VW55X_Wifi_BLE_SDK/GD32VW55x_RELEASE_V1.0.2/MSDK/cloud/alicloud/src/infra/utils/misc\utils_httpc.c ****     } else if (NULL != (tmp_ptr = strstr(data, "Transfer-Encoding"))) {
 3242              		.loc 1 749 35 is_stmt 0
 3243 0268 2324A900 		sw	a0,8(s2)
 3244              	.L181:
 769:C:/Users/stapi/OneDrive/Desktop/GD32VW553/V1_MQTT_OK/GD32VW55X_Wifi_BLE_SDK/GD32VW55x_RELEASE_V1.0.2/MSDK/cloud/alicloud/src/infra/utils/misc\utils_httpc.c ****     memmove(data, ptr_body_end + 4, len + 1);
 3245              		.loc 1 769 5 is_stmt 1
 769:C:/Users/stapi/OneDrive/Desktop/GD32VW553/V1_MQTT_OK/GD32VW55X_Wifi_BLE_SDK/GD32VW55x_RELEASE_V1.0.2/MSDK/cloud/alicloud/src/infra/utils/misc\utils_httpc.c ****     memmove(data, ptr_body_end + 4, len + 1);
 3246              		.loc 1 769 31 is_stmt 0
 3247 026c 93854400 		addi	a1,s1,4
 769:C:/Users/stapi/OneDrive/Desktop/GD32VW553/V1_MQTT_OK/GD32VW55X_Wifi_BLE_SDK/GD32VW55x_RELEASE_V1.0.2/MSDK/cloud/alicloud/src/infra/utils/misc\utils_httpc.c ****     memmove(data, ptr_body_end + 4, len + 1);
 3248              		.loc 1 769 35
 3249 0270 B3878540 		sub	a5,a1,s0
 769:C:/Users/stapi/OneDrive/Desktop/GD32VW553/V1_MQTT_OK/GD32VW55X_Wifi_BLE_SDK/GD32VW55x_RELEASE_V1.0.2/MSDK/cloud/alicloud/src/infra/utils/misc\utils_httpc.c ****     memmove(data, ptr_body_end + 4, len + 1);
 3250              		.loc 1 769 9
 3251 0274 B389F940 		sub	s3,s3,a5
 3252              	.LVL398:
 770:C:/Users/stapi/OneDrive/Desktop/GD32VW553/V1_MQTT_OK/GD32VW55X_Wifi_BLE_SDK/GD32VW55x_RELEASE_V1.0.2/MSDK/cloud/alicloud/src/infra/utils/misc\utils_httpc.c ****     client_data->response_received_len += len;
 3253              		.loc 1 770 5 is_stmt 1
 3254 0278 13861900 		addi	a2,s3,1
 3255 027c 2285     		mv	a0,s0
 3256 027e 97000000 		call	memmove
 3256      E7800000 
 3257              	.LVL399:
 771:C:/Users/stapi/OneDrive/Desktop/GD32VW553/V1_MQTT_OK/GD32VW55X_Wifi_BLE_SDK/GD32VW55x_RELEASE_V1.0.2/MSDK/cloud/alicloud/src/infra/utils/misc\utils_httpc.c ****     return httpclient_retrieve_content(client, data, len, iotx_time_left(&timer), client_data);
 3258              		.loc 1 771 5
 771:C:/Users/stapi/OneDrive/Desktop/GD32VW553/V1_MQTT_OK/GD32VW55X_Wifi_BLE_SDK/GD32VW55x_RELEASE_V1.0.2/MSDK/cloud/alicloud/src/infra/utils/misc\utils_httpc.c ****     return httpclient_retrieve_content(client, data, len, iotx_time_left(&timer), client_data);
 3259              		.loc 1 771 40 is_stmt 0
 3260 0286 83270901 		lw	a5,16(s2)
 772:C:/Users/stapi/OneDrive/Desktop/GD32VW553/V1_MQTT_OK/GD32VW55X_Wifi_BLE_SDK/GD32VW55x_RELEASE_V1.0.2/MSDK/cloud/alicloud/src/infra/utils/misc\utils_httpc.c **** }
 3261              		.loc 1 772 12
 3262 028a 2808     		addi	a0,sp,24
 771:C:/Users/stapi/OneDrive/Desktop/GD32VW553/V1_MQTT_OK/GD32VW55X_Wifi_BLE_SDK/GD32VW55x_RELEASE_V1.0.2/MSDK/cloud/alicloud/src/infra/utils/misc\utils_httpc.c ****     return httpclient_retrieve_content(client, data, len, iotx_time_left(&timer), client_data);
 3263              		.loc 1 771 40
 3264 028c CE97     		add	a5,a5,s3
 3265 028e 2328F900 		sw	a5,16(s2)
 772:C:/Users/stapi/OneDrive/Desktop/GD32VW553/V1_MQTT_OK/GD32VW55X_Wifi_BLE_SDK/GD32VW55x_RELEASE_V1.0.2/MSDK/cloud/alicloud/src/infra/utils/misc\utils_httpc.c **** }
 3266              		.loc 1 772 5 is_stmt 1
 772:C:/Users/stapi/OneDrive/Desktop/GD32VW553/V1_MQTT_OK/GD32VW55X_Wifi_BLE_SDK/GD32VW55x_RELEASE_V1.0.2/MSDK/cloud/alicloud/src/infra/utils/misc\utils_httpc.c **** }
 3267              		.loc 1 772 12 is_stmt 0
 3268 0292 97000000 		call	iotx_time_left
 3268      E7800000 
 3269              	.LVL400:
 3270 029a AA86     		mv	a3,a0
 3271 029c 4A87     		mv	a4,s2
 3272 029e 4E86     		mv	a2,s3
 3273 02a0 09BD     		j	.L192
 3274              	.L179:
 3275              	.LBB55:
 727:C:/Users/stapi/OneDrive/Desktop/GD32VW553/V1_MQTT_OK/GD32VW55X_Wifi_BLE_SDK/GD32VW55x_RELEASE_V1.0.2/MSDK/cloud/alicloud/src/infra/utils/misc\utils_httpc.c ****         if (max_remain_len <= 0) {
 3276              		.loc 1 727 9 is_stmt 1
 727:C:/Users/stapi/OneDrive/Desktop/GD32VW553/V1_MQTT_OK/GD32VW55X_Wifi_BLE_SDK/GD32VW55x_RELEASE_V1.0.2/MSDK/cloud/alicloud/src/infra/utils/misc\utils_httpc.c ****         if (max_remain_len <= 0) {
 3277              		.loc 1 727 13 is_stmt 0
 3278 02a2 33863C41 		sub	a2,s9,s3
 3279              	.LVL401:
 728:C:/Users/stapi/OneDrive/Desktop/GD32VW553/V1_MQTT_OK/GD32VW55X_Wifi_BLE_SDK/GD32VW55x_RELEASE_V1.0.2/MSDK/cloud/alicloud/src/infra/utils/misc\utils_httpc.c ****             utils_debug("buffer exceeded max\n");
 3280              		.loc 1 728 9 is_stmt 1
 728:C:/Users/stapi/OneDrive/Desktop/GD32VW553/V1_MQTT_OK/GD32VW55X_Wifi_BLE_SDK/GD32VW55x_RELEASE_V1.0.2/MSDK/cloud/alicloud/src/infra/utils/misc\utils_httpc.c ****             utils_debug("buffer exceeded max\n");
 3281              		.loc 1 728 12 is_stmt 0
 3282 02a6 6343C002 		bgt	a2,zero,.L178
 729:C:/Users/stapi/OneDrive/Desktop/GD32VW553/V1_MQTT_OK/GD32VW55X_Wifi_BLE_SDK/GD32VW55x_RELEASE_V1.0.2/MSDK/cloud/alicloud/src/infra/utils/misc\utils_httpc.c ****             return ERROR_HTTP_PARSE;
 3283              		.loc 1 729 13 is_stmt 1
 3284 02aa 37070000 		lui	a4,%hi(.LC59)
 3285 02ae 13070700 		addi	a4,a4,%lo(.LC59)
 3286 02b2 9546     		li	a3,5
 3287 02b4 1306902D 		li	a2,729
 3288              	.LVL402:
 3289 02b8 93850A00 		addi	a1,s5,%lo(.LANCHOR7)
 3290 02bc 13050B00 		addi	a0,s6,%lo(.LC1)
 3291 02c0 97000000 		call	LITE_syslog
 3291      E7800000 
 3292              	.LVL403:
 730:C:/Users/stapi/OneDrive/Desktop/GD32VW553/V1_MQTT_OK/GD32VW55X_Wifi_BLE_SDK/GD32VW55x_RELEASE_V1.0.2/MSDK/cloud/alicloud/src/infra/utils/misc\utils_httpc.c ****         }
 3293              		.loc 1 730 13
 730:C:/Users/stapi/OneDrive/Desktop/GD32VW553/V1_MQTT_OK/GD32VW55X_Wifi_BLE_SDK/GD32VW55x_RELEASE_V1.0.2/MSDK/cloud/alicloud/src/infra/utils/misc\utils_httpc.c ****         }
 3294              		.loc 1 730 20 is_stmt 0
 3295 02c8 E554     		li	s1,-7
 3296              	.LVL404:
 3297 02ca 6DBB     		j	.L172
 3298              	.LVL405:
 3299              	.L178:
 734:C:/Users/stapi/OneDrive/Desktop/GD32VW553/V1_MQTT_OK/GD32VW55X_Wifi_BLE_SDK/GD32VW55x_RELEASE_V1.0.2/MSDK/cloud/alicloud/src/infra/utils/misc\utils_httpc.c **** #else
 3300              		.loc 1 734 15
 3301 02cc 2808     		addi	a0,sp,24
 3302 02ce 32C6     		sw	a2,12(sp)
 732:C:/Users/stapi/OneDrive/Desktop/GD32VW553/V1_MQTT_OK/GD32VW55X_Wifi_BLE_SDK/GD32VW55x_RELEASE_V1.0.2/MSDK/cloud/alicloud/src/infra/utils/misc\utils_httpc.c **** #ifndef LINK_VISUAL_ENABLE
 3303              		.loc 1 732 9 is_stmt 1
 3304              	.LVL406:
 734:C:/Users/stapi/OneDrive/Desktop/GD32VW553/V1_MQTT_OK/GD32VW55X_Wifi_BLE_SDK/GD32VW55x_RELEASE_V1.0.2/MSDK/cloud/alicloud/src/infra/utils/misc\utils_httpc.c **** #else
 3305              		.loc 1 734 9
 734:C:/Users/stapi/OneDrive/Desktop/GD32VW553/V1_MQTT_OK/GD32VW55X_Wifi_BLE_SDK/GD32VW55x_RELEASE_V1.0.2/MSDK/cloud/alicloud/src/infra/utils/misc\utils_httpc.c **** #else
 3306              		.loc 1 734 15 is_stmt 0
 3307 02d0 97000000 		call	iotx_time_left
 3307      E7800000 
 3308              	.LVL407:
 3309 02d8 3246     		lw	a2,12(sp)
 3310 02da B3043401 		add	s1,s0,s3
 3311              	.LVL408:
 3312 02de 2A87     		mv	a4,a0
 3313 02e0 A685     		mv	a1,s1
 3314 02e2 7408     		addi	a3,sp,28
 3315 02e4 5285     		mv	a0,s4
 3316 02e6 3346A60B 		min	a2,a2,s10
 3317 02ea 97000000 		call	httpclient_recv.constprop.0
 3317      E7800000 
 3318              	.LVL409:
 3319 02f2 AA84     		mv	s1,a0
 3320              	.LVL410:
 739:C:/Users/stapi/OneDrive/Desktop/GD32VW553/V1_MQTT_OK/GD32VW55X_Wifi_BLE_SDK/GD32VW55x_RELEASE_V1.0.2/MSDK/cloud/alicloud/src/infra/utils/misc\utils_httpc.c ****             return ret;
 3321              		.loc 1 739 9 is_stmt 1
 739:C:/Users/stapi/OneDrive/Desktop/GD32VW553/V1_MQTT_OK/GD32VW55X_Wifi_BLE_SDK/GD32VW55x_RELEASE_V1.0.2/MSDK/cloud/alicloud/src/infra/utils/misc\utils_httpc.c ****             return ret;
 3322              		.loc 1 739 12 is_stmt 0
 3323 02f4 E308B5D9 		beq	a0,s11,.L172
 742:C:/Users/stapi/OneDrive/Desktop/GD32VW553/V1_MQTT_OK/GD32VW55X_Wifi_BLE_SDK/GD32VW55x_RELEASE_V1.0.2/MSDK/cloud/alicloud/src/infra/utils/misc\utils_httpc.c ****         data[len] = '\0';
 3324              		.loc 1 742 9 is_stmt 1
 742:C:/Users/stapi/OneDrive/Desktop/GD32VW553/V1_MQTT_OK/GD32VW55X_Wifi_BLE_SDK/GD32VW55x_RELEASE_V1.0.2/MSDK/cloud/alicloud/src/infra/utils/misc\utils_httpc.c ****         data[len] = '\0';
 3325              		.loc 1 742 13 is_stmt 0
 3326 02f8 F247     		lw	a5,28(sp)
 3327 02fa BE99     		add	s3,s3,a5
 3328              	.LVL411:
 743:C:/Users/stapi/OneDrive/Desktop/GD32VW553/V1_MQTT_OK/GD32VW55X_Wifi_BLE_SDK/GD32VW55x_RELEASE_V1.0.2/MSDK/cloud/alicloud/src/infra/utils/misc\utils_httpc.c ****     }
 3329              		.loc 1 743 9 is_stmt 1
 743:C:/Users/stapi/OneDrive/Desktop/GD32VW553/V1_MQTT_OK/GD32VW55X_Wifi_BLE_SDK/GD32VW55x_RELEASE_V1.0.2/MSDK/cloud/alicloud/src/infra/utils/misc\utils_httpc.c ****     }
 3330              		.loc 1 743 19 is_stmt 0
 3331 02fc B3073401 		add	a5,s0,s3
 3332 0300 23800700 		sb	zero,0(a5)
 3333 0304 05BF     		j	.L177
 3334              	.LVL412:
 3335              	.L180:
 3336              	.LBE55:
 750:C:/Users/stapi/OneDrive/Desktop/GD32VW553/V1_MQTT_OK/GD32VW55X_Wifi_BLE_SDK/GD32VW55x_RELEASE_V1.0.2/MSDK/cloud/alicloud/src/infra/utils/misc\utils_httpc.c ****         int len_chunk = strlen("Chunked");
 3337              		.loc 1 750 12 is_stmt 1
 750:C:/Users/stapi/OneDrive/Desktop/GD32VW553/V1_MQTT_OK/GD32VW55X_Wifi_BLE_SDK/GD32VW55x_RELEASE_V1.0.2/MSDK/cloud/alicloud/src/infra/utils/misc\utils_httpc.c ****         int len_chunk = strlen("Chunked");
 3338              		.loc 1 750 35 is_stmt 0
 3339 0306 B7050000 		lui	a1,%hi(.LC62)
 3340 030a 93850500 		addi	a1,a1,%lo(.LC62)
 3341 030e 2285     		mv	a0,s0
 3342              	.LVL413:
 3343 0310 97000000 		call	strstr
 3343      E7800000 
 3344              	.LVL414:
 750:C:/Users/stapi/OneDrive/Desktop/GD32VW553/V1_MQTT_OK/GD32VW55X_Wifi_BLE_SDK/GD32VW55x_RELEASE_V1.0.2/MSDK/cloud/alicloud/src/infra/utils/misc\utils_httpc.c ****         int len_chunk = strlen("Chunked");
 3345              		.loc 1 750 15
 3346 0318 29C1     		beq	a0,zero,.L182
 3347              	.LBB56:
 751:C:/Users/stapi/OneDrive/Desktop/GD32VW553/V1_MQTT_OK/GD32VW55X_Wifi_BLE_SDK/GD32VW55x_RELEASE_V1.0.2/MSDK/cloud/alicloud/src/infra/utils/misc\utils_httpc.c ****         char *chunk_value = data + strlen("Transfer-Encoding: ");
 3348              		.loc 1 751 9 is_stmt 1
 3349              	.LVL415:
 752:C:/Users/stapi/OneDrive/Desktop/GD32VW553/V1_MQTT_OK/GD32VW55X_Wifi_BLE_SDK/GD32VW55x_RELEASE_V1.0.2/MSDK/cloud/alicloud/src/infra/utils/misc\utils_httpc.c **** 
 3350              		.loc 1 752 9
 752:C:/Users/stapi/OneDrive/Desktop/GD32VW553/V1_MQTT_OK/GD32VW55X_Wifi_BLE_SDK/GD32VW55x_RELEASE_V1.0.2/MSDK/cloud/alicloud/src/infra/utils/misc\utils_httpc.c **** 
 3351              		.loc 1 752 15 is_stmt 0
 3352 031a 930A3401 		addi	s5,s0,19
 3353              	.LVL416:
 754:C:/Users/stapi/OneDrive/Desktop/GD32VW553/V1_MQTT_OK/GD32VW55X_Wifi_BLE_SDK/GD32VW55x_RELEASE_V1.0.2/MSDK/cloud/alicloud/src/infra/utils/misc\utils_httpc.c ****             || (! memcmp(chunk_value, "chunked", len_chunk))) {
 3354              		.loc 1 754 9 is_stmt 1
 754:C:/Users/stapi/OneDrive/Desktop/GD32VW553/V1_MQTT_OK/GD32VW55X_Wifi_BLE_SDK/GD32VW55x_RELEASE_V1.0.2/MSDK/cloud/alicloud/src/infra/utils/misc\utils_httpc.c ****             || (! memcmp(chunk_value, "chunked", len_chunk))) {
 3355              		.loc 1 754 16 is_stmt 0
 3356 031e B7050000 		lui	a1,%hi(.LC63)
 3357 0322 1D46     		li	a2,7
 3358 0324 93850500 		addi	a1,a1,%lo(.LC63)
 3359 0328 5685     		mv	a0,s5
 3360              	.LVL417:
 3361 032a 97000000 		call	memcmp
 3361      E7800000 
 3362              	.LVL418:
 754:C:/Users/stapi/OneDrive/Desktop/GD32VW553/V1_MQTT_OK/GD32VW55X_Wifi_BLE_SDK/GD32VW55x_RELEASE_V1.0.2/MSDK/cloud/alicloud/src/infra/utils/misc\utils_httpc.c ****             || (! memcmp(chunk_value, "chunked", len_chunk))) {
 3363              		.loc 1 754 12
 3364 0332 01CD     		beq	a0,zero,.L183
 755:C:/Users/stapi/OneDrive/Desktop/GD32VW553/V1_MQTT_OK/GD32VW55X_Wifi_BLE_SDK/GD32VW55x_RELEASE_V1.0.2/MSDK/cloud/alicloud/src/infra/utils/misc\utils_httpc.c ****             client_data->is_chunked = IOT_TRUE;
 3365              		.loc 1 755 19
 3366 0334 B7050000 		lui	a1,%hi(.LC64)
 3367 0338 1D46     		li	a2,7
 3368 033a 93850500 		addi	a1,a1,%lo(.LC64)
 3369 033e 5685     		mv	a0,s5
 3370 0340 97000000 		call	memcmp
 3370      E7800000 
 3371              	.LVL419:
 755:C:/Users/stapi/OneDrive/Desktop/GD32VW553/V1_MQTT_OK/GD32VW55X_Wifi_BLE_SDK/GD32VW55x_RELEASE_V1.0.2/MSDK/cloud/alicloud/src/infra/utils/misc\utils_httpc.c ****             client_data->is_chunked = IOT_TRUE;
 3372              		.loc 1 755 13
 3373 0348 15F1     		bne	a0,zero,.L181
 3374              	.L183:
 756:C:/Users/stapi/OneDrive/Desktop/GD32VW553/V1_MQTT_OK/GD32VW55X_Wifi_BLE_SDK/GD32VW55x_RELEASE_V1.0.2/MSDK/cloud/alicloud/src/infra/utils/misc\utils_httpc.c ****             client_data->response_content_len = 0;
 3375              		.loc 1 756 13 is_stmt 1
 756:C:/Users/stapi/OneDrive/Desktop/GD32VW553/V1_MQTT_OK/GD32VW55X_Wifi_BLE_SDK/GD32VW55x_RELEASE_V1.0.2/MSDK/cloud/alicloud/src/infra/utils/misc\utils_httpc.c ****             client_data->response_content_len = 0;
 3376              		.loc 1 756 37 is_stmt 0
 3377 034a 8547     		li	a5,1
 3378 034c 2322F900 		sw	a5,4(s2)
 757:C:/Users/stapi/OneDrive/Desktop/GD32VW553/V1_MQTT_OK/GD32VW55X_Wifi_BLE_SDK/GD32VW55x_RELEASE_V1.0.2/MSDK/cloud/alicloud/src/infra/utils/misc\utils_httpc.c ****             client_data->retrieve_len = 0;
 3379              		.loc 1 757 13 is_stmt 1
 757:C:/Users/stapi/OneDrive/Desktop/GD32VW553/V1_MQTT_OK/GD32VW55X_Wifi_BLE_SDK/GD32VW55x_RELEASE_V1.0.2/MSDK/cloud/alicloud/src/infra/utils/misc\utils_httpc.c ****             client_data->retrieve_len = 0;
 3380              		.loc 1 757 47 is_stmt 0
 3381 0350 23260900 		sw	zero,12(s2)
 758:C:/Users/stapi/OneDrive/Desktop/GD32VW553/V1_MQTT_OK/GD32VW55X_Wifi_BLE_SDK/GD32VW55x_RELEASE_V1.0.2/MSDK/cloud/alicloud/src/infra/utils/misc\utils_httpc.c ****         }
 3382              		.loc 1 758 13 is_stmt 1
 758:C:/Users/stapi/OneDrive/Desktop/GD32VW553/V1_MQTT_OK/GD32VW55X_Wifi_BLE_SDK/GD32VW55x_RELEASE_V1.0.2/MSDK/cloud/alicloud/src/infra/utils/misc\utils_httpc.c ****         }
 3383              		.loc 1 758 39 is_stmt 0
 3384 0354 23240900 		sw	zero,8(s2)
 3385 0358 11BF     		j	.L181
 3386              	.LVL420:
 3387              	.L182:
 3388              	.LBE56:
 761:C:/Users/stapi/OneDrive/Desktop/GD32VW553/V1_MQTT_OK/GD32VW55X_Wifi_BLE_SDK/GD32VW55x_RELEASE_V1.0.2/MSDK/cloud/alicloud/src/infra/utils/misc\utils_httpc.c ****         return ERROR_HTTP;
 3389              		.loc 1 761 9 is_stmt 1
 761:C:/Users/stapi/OneDrive/Desktop/GD32VW553/V1_MQTT_OK/GD32VW55X_Wifi_BLE_SDK/GD32VW55x_RELEASE_V1.0.2/MSDK/cloud/alicloud/src/infra/utils/misc\utils_httpc.c ****         return ERROR_HTTP;
 3390              		.loc 1 761 9
 3391 035a 37050000 		lui	a0,%hi(.LC2)
 3392              	.LVL421:
 3393 035e 13050500 		addi	a0,a0,%lo(.LC2)
 3394 0362 97000000 		call	HAL_Printf
 3394      E7800000 
 3395              	.LVL422:
 761:C:/Users/stapi/OneDrive/Desktop/GD32VW553/V1_MQTT_OK/GD32VW55X_Wifi_BLE_SDK/GD32VW55x_RELEASE_V1.0.2/MSDK/cloud/alicloud/src/infra/utils/misc\utils_httpc.c ****         return ERROR_HTTP;
 3396              		.loc 1 761 9
 3397 036a 37050000 		lui	a0,%hi(.LC65)
 3398 036e 13050500 		addi	a0,a0,%lo(.LC65)
 3399 0372 97000000 		call	HAL_Printf
 3399      E7800000 
 3400              	.LVL423:
 761:C:/Users/stapi/OneDrive/Desktop/GD32VW553/V1_MQTT_OK/GD32VW55X_Wifi_BLE_SDK/GD32VW55x_RELEASE_V1.0.2/MSDK/cloud/alicloud/src/infra/utils/misc\utils_httpc.c ****         return ERROR_HTTP;
 3401              		.loc 1 761 9
 3402 037a 13850B00 		addi	a0,s7,%lo(.LC4)
 3403 037e 97000000 		call	HAL_Printf
 3403      E7800000 
 3404              	.LVL424:
 761:C:/Users/stapi/OneDrive/Desktop/GD32VW553/V1_MQTT_OK/GD32VW55X_Wifi_BLE_SDK/GD32VW55x_RELEASE_V1.0.2/MSDK/cloud/alicloud/src/infra/utils/misc\utils_httpc.c ****         return ERROR_HTTP;
 3405              		.loc 1 761 9
 762:C:/Users/stapi/OneDrive/Desktop/GD32VW553/V1_MQTT_OK/GD32VW55X_Wifi_BLE_SDK/GD32VW55x_RELEASE_V1.0.2/MSDK/cloud/alicloud/src/infra/utils/misc\utils_httpc.c ****     }
 3406              		.loc 1 762 9
 762:C:/Users/stapi/OneDrive/Desktop/GD32VW553/V1_MQTT_OK/GD32VW55X_Wifi_BLE_SDK/GD32VW55x_RELEASE_V1.0.2/MSDK/cloud/alicloud/src/infra/utils/misc\utils_httpc.c ****     }
 3407              		.loc 1 762 16 is_stmt 0
 3408 0386 F154     		li	s1,-4
 3409              	.LVL425:
 3410 0388 F5B9     		j	.L172
 3411              	.LVL426:
 3412              	.L184:
 3413              	.LBE57:
 3414              	.LBE58:
 819:C:/Users/stapi/OneDrive/Desktop/GD32VW553/V1_MQTT_OK/GD32VW55X_Wifi_BLE_SDK/GD32VW55x_RELEASE_V1.0.2/MSDK/cloud/alicloud/src/infra/utils/misc\utils_httpc.c ****         goto err;
 3415              		.loc 1 819 13
 3416 038a 9304B0C0 		li	s1,-1013
 3417              	.LVL427:
 854:C:/Users/stapi/OneDrive/Desktop/GD32VW553/V1_MQTT_OK/GD32VW55X_Wifi_BLE_SDK/GD32VW55x_RELEASE_V1.0.2/MSDK/cloud/alicloud/src/infra/utils/misc\utils_httpc.c ****     }
 855:C:/Users/stapi/OneDrive/Desktop/GD32VW553/V1_MQTT_OK/GD32VW55X_Wifi_BLE_SDK/GD32VW55x_RELEASE_V1.0.2/MSDK/cloud/alicloud/src/infra/utils/misc\utils_httpc.c ****     return ret;
 3418              		.loc 1 855 5 is_stmt 1
 3419              	.L169:
 856:C:/Users/stapi/OneDrive/Desktop/GD32VW553/V1_MQTT_OK/GD32VW55X_Wifi_BLE_SDK/GD32VW55x_RELEASE_V1.0.2/MSDK/cloud/alicloud/src/infra/utils/misc\utils_httpc.c **** }
 3420              		.loc 1 856 1 is_stmt 0
 3421 038e 2685     		mv	a0,s1
 3422 0390 0561     		addi	sp,sp,32
 3423              		.cfi_def_cfa_offset 0
 3424 0392 17030000 		tail	__riscv_restore_12
 3424      67000300 
 3425              		.cfi_restore 27
 3426              		.cfi_restore 26
 3427              		.cfi_restore 25
 3428              		.cfi_restore 24
 3429              		.cfi_restore 23
 3430              		.cfi_restore 22
 3431              		.cfi_restore 21
 3432              		.cfi_restore 20
 3433              		.cfi_restore 19
 3434              		.cfi_restore 18
 3435              		.cfi_restore 9
 3436              		.cfi_restore 8
 3437              		.cfi_restore 1
 3438              		.cfi_def_cfa_offset -64
 3439              		.cfi_endproc
 3440              	.LFE33:
 3442              		.section	.rodata.httpclient_close.str1.4,"aMS",@progbits,1
 3443              		.align	2
 3444              	.LC66:
 3445 0000 636C6965 		.string	"client disconnected"
 3445      6E742064 
 3445      6973636F 
 3445      6E6E6563 
 3445      74656400 
 3446              		.section	.text.httpclient_close,"ax",@progbits
 3447              		.align	1
 3448              		.globl	httpclient_close
 3450              	httpclient_close:
 3451              	.LFB34:
 857:C:/Users/stapi/OneDrive/Desktop/GD32VW553/V1_MQTT_OK/GD32VW55X_Wifi_BLE_SDK/GD32VW55x_RELEASE_V1.0.2/MSDK/cloud/alicloud/src/infra/utils/misc\utils_httpc.c **** 
 858:C:/Users/stapi/OneDrive/Desktop/GD32VW553/V1_MQTT_OK/GD32VW55X_Wifi_BLE_SDK/GD32VW55x_RELEASE_V1.0.2/MSDK/cloud/alicloud/src/infra/utils/misc\utils_httpc.c **** void httpclient_close(httpclient_t *client)
 859:C:/Users/stapi/OneDrive/Desktop/GD32VW553/V1_MQTT_OK/GD32VW55X_Wifi_BLE_SDK/GD32VW55x_RELEASE_V1.0.2/MSDK/cloud/alicloud/src/infra/utils/misc\utils_httpc.c **** {
 3452              		.loc 1 859 1 is_stmt 1
 3453              		.cfi_startproc
 3454              	.LVL428:
 3455 0000 17030000 		call	t0,__riscv_save_1
 3455      E7020300 
 3456              		.cfi_offset 8, -8
 3457              		.cfi_offset 1, -4
 3458              		.cfi_def_cfa_offset 16
 860:C:/Users/stapi/OneDrive/Desktop/GD32VW553/V1_MQTT_OK/GD32VW55X_Wifi_BLE_SDK/GD32VW55x_RELEASE_V1.0.2/MSDK/cloud/alicloud/src/infra/utils/misc\utils_httpc.c ****     if (client->net.handle > 0) {
 3459              		.loc 1 860 5
 3460              		.loc 1 860 8 is_stmt 0
 3461 0008 1C49     		lw	a5,16(a0)
 859:C:/Users/stapi/OneDrive/Desktop/GD32VW553/V1_MQTT_OK/GD32VW55X_Wifi_BLE_SDK/GD32VW55x_RELEASE_V1.0.2/MSDK/cloud/alicloud/src/infra/utils/misc\utils_httpc.c ****     if (client->net.handle > 0) {
 3462              		.loc 1 859 1
 3463 000a 2A84     		mv	s0,a0
 3464              		.loc 1 860 8
 3465 000c 81C7     		beq	a5,zero,.L194
 861:C:/Users/stapi/OneDrive/Desktop/GD32VW553/V1_MQTT_OK/GD32VW55X_Wifi_BLE_SDK/GD32VW55x_RELEASE_V1.0.2/MSDK/cloud/alicloud/src/infra/utils/misc\utils_httpc.c ****         client->net.disconnect(&client->net);
 3466              		.loc 1 861 9 is_stmt 1
 3467 000e 5C4D     		lw	a5,28(a0)
 3468 0010 1105     		addi	a0,a0,4
 3469              	.LVL429:
 3470 0012 8297     		jalr	a5
 3471              	.LVL430:
 3472              	.L194:
 862:C:/Users/stapi/OneDrive/Desktop/GD32VW553/V1_MQTT_OK/GD32VW55X_Wifi_BLE_SDK/GD32VW55x_RELEASE_V1.0.2/MSDK/cloud/alicloud/src/infra/utils/misc\utils_httpc.c ****     }
 863:C:/Users/stapi/OneDrive/Desktop/GD32VW553/V1_MQTT_OK/GD32VW55X_Wifi_BLE_SDK/GD32VW55x_RELEASE_V1.0.2/MSDK/cloud/alicloud/src/infra/utils/misc\utils_httpc.c ****     client->net.handle = 0;
 3473              		.loc 1 863 5
 864:C:/Users/stapi/OneDrive/Desktop/GD32VW553/V1_MQTT_OK/GD32VW55X_Wifi_BLE_SDK/GD32VW55x_RELEASE_V1.0.2/MSDK/cloud/alicloud/src/infra/utils/misc\utils_httpc.c ****     utils_info("client disconnected");
 3474              		.loc 1 864 5 is_stmt 0
 3475 0014 37050000 		lui	a0,%hi(.LC10)
 863:C:/Users/stapi/OneDrive/Desktop/GD32VW553/V1_MQTT_OK/GD32VW55X_Wifi_BLE_SDK/GD32VW55x_RELEASE_V1.0.2/MSDK/cloud/alicloud/src/infra/utils/misc\utils_httpc.c ****     utils_info("client disconnected");
 3476              		.loc 1 863 24
 3477 0018 23280400 		sw	zero,16(s0)
 3478              		.loc 1 864 5 is_stmt 1
 3479              		.loc 1 864 5
 3480 001c 13050500 		addi	a0,a0,%lo(.LC10)
 3481 0020 97000000 		call	HAL_Printf
 3481      E7800000 
 3482              	.LVL431:
 3483              		.loc 1 864 5
 3484 0028 37050000 		lui	a0,%hi(.LC66)
 3485 002c 13050500 		addi	a0,a0,%lo(.LC66)
 3486 0030 97000000 		call	HAL_Printf
 3486      E7800000 
 3487              	.LVL432:
 3488              		.loc 1 864 5
 3489 0038 37050000 		lui	a0,%hi(.LC4)
 3490 003c 13050500 		addi	a0,a0,%lo(.LC4)
 3491 0040 97000000 		call	HAL_Printf
 3491      E7800000 
 3492              	.LVL433:
 3493              		.loc 1 864 5
 865:C:/Users/stapi/OneDrive/Desktop/GD32VW553/V1_MQTT_OK/GD32VW55X_Wifi_BLE_SDK/GD32VW55x_RELEASE_V1.0.2/MSDK/cloud/alicloud/src/infra/utils/misc\utils_httpc.c **** }
 3494              		.loc 1 865 1 is_stmt 0
 3495 0048 17030000 		tail	__riscv_restore_1
 3495      67000300 
 3496              		.cfi_restore 8
 3497              		.cfi_restore 1
 3498              		.cfi_def_cfa_offset 0
 3499              		.cfi_endproc
 3500              	.LFE34:
 3502              		.section	.rodata.httpclient_common.str1.4,"aMS",@progbits,1
 3503              		.align	2
 3504              	.LC67:
 3505 0000 6E657420 		.string	"net init fail"
 3505      696E6974 
 3505      20666169 
 3505      6C00
 3506 000e 0000     		.align	2
 3507              	.LC68:
 3508 0010 68747470 		.string	"httpclient_connect is error, ret = %d"
 3508      636C6965 
 3508      6E745F63 
 3508      6F6E6E65 
 3508      63742069 
 3509 0036 0000     		.align	2
 3510              	.LC69:
 3511 0038 68747470 		.string	"httpclient_send_request is error, ret = %d"
 3511      636C6965 
 3511      6E745F73 
 3511      656E645F 
 3511      72657175 
 3512 0063 00       		.align	2
 3513              	.LC70:
 3514 0064 68747470 		.string	"httpclient_recv_response is error,ret = %d"
 3514      636C6965 
 3514      6E745F72 
 3514      6563765F 
 3514      72657370 
 3515 008f 00       		.align	2
 3516              	.LC71:
 3517 0090 636C6F73 		.string	"close http channel"
 3517      65206874 
 3517      74702063 
 3517      68616E6E 
 3517      656C00
 3518              		.section	.text.httpclient_common,"ax",@progbits
 3519              		.align	1
 3520              		.globl	httpclient_common
 3522              	httpclient_common:
 3523              	.LFB35:
 866:C:/Users/stapi/OneDrive/Desktop/GD32VW553/V1_MQTT_OK/GD32VW55X_Wifi_BLE_SDK/GD32VW55x_RELEASE_V1.0.2/MSDK/cloud/alicloud/src/infra/utils/misc\utils_httpc.c **** 
 867:C:/Users/stapi/OneDrive/Desktop/GD32VW553/V1_MQTT_OK/GD32VW55X_Wifi_BLE_SDK/GD32VW55x_RELEASE_V1.0.2/MSDK/cloud/alicloud/src/infra/utils/misc\utils_httpc.c **** int httpclient_common(httpclient_t *client, const char *url, int port, const char *ca_crt,
 868:C:/Users/stapi/OneDrive/Desktop/GD32VW553/V1_MQTT_OK/GD32VW55X_Wifi_BLE_SDK/GD32VW55x_RELEASE_V1.0.2/MSDK/cloud/alicloud/src/infra/utils/misc\utils_httpc.c ****                       HTTPCLIENT_REQUEST_TYPE method, uint32_t timeout_ms, httpclient_data_t *clien
 869:C:/Users/stapi/OneDrive/Desktop/GD32VW553/V1_MQTT_OK/GD32VW55X_Wifi_BLE_SDK/GD32VW55x_RELEASE_V1.0.2/MSDK/cloud/alicloud/src/infra/utils/misc\utils_httpc.c **** {
 3524              		.loc 1 869 1 is_stmt 1
 3525              		.cfi_startproc
 3526              	.LVL434:
 3527 0000 17030000 		call	t0,__riscv_save_6
 3527      E7020300 
 3528              		.cfi_offset 21, -28
 3529              		.cfi_offset 20, -24
 3530              		.cfi_offset 19, -20
 3531              		.cfi_offset 18, -16
 3532              		.cfi_offset 9, -12
 3533              		.cfi_offset 8, -8
 3534              		.cfi_offset 1, -4
 3535              		.cfi_def_cfa_offset 32
 870:C:/Users/stapi/OneDrive/Desktop/GD32VW553/V1_MQTT_OK/GD32VW55X_Wifi_BLE_SDK/GD32VW55x_RELEASE_V1.0.2/MSDK/cloud/alicloud/src/infra/utils/misc\utils_httpc.c ****     iotx_time_t timer;
 3536              		.loc 1 870 5
 871:C:/Users/stapi/OneDrive/Desktop/GD32VW553/V1_MQTT_OK/GD32VW55X_Wifi_BLE_SDK/GD32VW55x_RELEASE_V1.0.2/MSDK/cloud/alicloud/src/infra/utils/misc\utils_httpc.c ****     int ret = 0;
 3537              		.loc 1 871 5
 3538              	.LVL435:
 872:C:/Users/stapi/OneDrive/Desktop/GD32VW553/V1_MQTT_OK/GD32VW55X_Wifi_BLE_SDK/GD32VW55x_RELEASE_V1.0.2/MSDK/cloud/alicloud/src/infra/utils/misc\utils_httpc.c ****     char host[HTTPCLIENT_MAX_HOST_LEN] = { 0 };
 3539              		.loc 1 872 5
 869:C:/Users/stapi/OneDrive/Desktop/GD32VW553/V1_MQTT_OK/GD32VW55X_Wifi_BLE_SDK/GD32VW55x_RELEASE_V1.0.2/MSDK/cloud/alicloud/src/infra/utils/misc\utils_httpc.c ****     iotx_time_t timer;
 3540              		.loc 1 869 1 is_stmt 0
 3541 0008 3571     		addi	sp,sp,-160
 3542              		.cfi_def_cfa_offset 192
 869:C:/Users/stapi/OneDrive/Desktop/GD32VW553/V1_MQTT_OK/GD32VW55X_Wifi_BLE_SDK/GD32VW55x_RELEASE_V1.0.2/MSDK/cloud/alicloud/src/infra/utils/misc\utils_httpc.c ****     iotx_time_t timer;
 3543              		.loc 1 869 1
 3544 000a AA84     		mv	s1,a0
 3545 000c AE89     		mv	s3,a1
 3546 000e 3284     		mv	s0,a2
 3547              		.loc 1 872 10
 3548 0010 8145     		li	a1,0
 3549              	.LVL436:
 3550 0012 1306C007 		li	a2,124
 3551              	.LVL437:
 3552 0016 4810     		addi	a0,sp,36
 3553              	.LVL438:
 869:C:/Users/stapi/OneDrive/Desktop/GD32VW553/V1_MQTT_OK/GD32VW55X_Wifi_BLE_SDK/GD32VW55x_RELEASE_V1.0.2/MSDK/cloud/alicloud/src/infra/utils/misc\utils_httpc.c ****     iotx_time_t timer;
 3554              		.loc 1 869 1
 3555 0018 3E8A     		mv	s4,a5
 3556 001a 36C6     		sw	a3,12(sp)
 3557 001c BA8A     		mv	s5,a4
 3558 001e 4289     		mv	s2,a6
 3559              		.loc 1 872 10
 3560 0020 02D0     		sw	zero,32(sp)
 3561 0022 97000000 		call	memset
 3561      E7800000 
 3562              	.LVL439:
 873:C:/Users/stapi/OneDrive/Desktop/GD32VW553/V1_MQTT_OK/GD32VW55X_Wifi_BLE_SDK/GD32VW55x_RELEASE_V1.0.2/MSDK/cloud/alicloud/src/infra/utils/misc\utils_httpc.c **** 
 874:C:/Users/stapi/OneDrive/Desktop/GD32VW553/V1_MQTT_OK/GD32VW55X_Wifi_BLE_SDK/GD32VW55x_RELEASE_V1.0.2/MSDK/cloud/alicloud/src/infra/utils/misc\utils_httpc.c ****     httpclient_parse_host(url, host, sizeof(host));
 3563              		.loc 1 874 5 is_stmt 1
 3564 002a 0C10     		addi	a1,sp,32
 3565 002c 4E85     		mv	a0,s3
 3566 002e 97000000 		call	httpclient_parse_host.constprop.0.isra.0
 3566      E7800000 
 3567              	.LVL440:
 875:C:/Users/stapi/OneDrive/Desktop/GD32VW553/V1_MQTT_OK/GD32VW55X_Wifi_BLE_SDK/GD32VW55x_RELEASE_V1.0.2/MSDK/cloud/alicloud/src/infra/utils/misc\utils_httpc.c ****     //utils_info("host: '%s', port: %d", host, port);
 876:C:/Users/stapi/OneDrive/Desktop/GD32VW553/V1_MQTT_OK/GD32VW55X_Wifi_BLE_SDK/GD32VW55x_RELEASE_V1.0.2/MSDK/cloud/alicloud/src/infra/utils/misc\utils_httpc.c **** 
 877:C:/Users/stapi/OneDrive/Desktop/GD32VW553/V1_MQTT_OK/GD32VW55X_Wifi_BLE_SDK/GD32VW55x_RELEASE_V1.0.2/MSDK/cloud/alicloud/src/infra/utils/misc\utils_httpc.c ****     if (0 == client->net.handle) {
 3568              		.loc 1 877 5
 3569              		.loc 1 877 8 is_stmt 0
 3570 0036 9C48     		lw	a5,16(s1)
 3571 0038 C5EF     		bne	a5,zero,.L200
 878:C:/Users/stapi/OneDrive/Desktop/GD32VW553/V1_MQTT_OK/GD32VW55X_Wifi_BLE_SDK/GD32VW55x_RELEASE_V1.0.2/MSDK/cloud/alicloud/src/infra/utils/misc\utils_httpc.c ****         /* Establish connection if no. */
 879:C:/Users/stapi/OneDrive/Desktop/GD32VW553/V1_MQTT_OK/GD32VW55X_Wifi_BLE_SDK/GD32VW55x_RELEASE_V1.0.2/MSDK/cloud/alicloud/src/infra/utils/misc\utils_httpc.c ****         ret = iotx_net_init(&client->net, host, port, ca_crt);
 3572              		.loc 1 879 9 is_stmt 1
 3573              		.loc 1 879 15 is_stmt 0
 3574 003a B246     		lw	a3,12(sp)
 3575 003c 0C10     		addi	a1,sp,32
 3576 003e 13854400 		addi	a0,s1,4
 3577 0042 33460408 		zext.h	a2,s0
 3578 0046 97000000 		call	iotx_net_init
 3578      E7800000 
 3579              	.LVL441:
 3580 004e 2A84     		mv	s0,a0
 3581              	.LVL442:
 880:C:/Users/stapi/OneDrive/Desktop/GD32VW553/V1_MQTT_OK/GD32VW55X_Wifi_BLE_SDK/GD32VW55x_RELEASE_V1.0.2/MSDK/cloud/alicloud/src/infra/utils/misc\utils_httpc.c ****         if (0 != ret) {
 3582              		.loc 1 880 9 is_stmt 1
 3583              		.loc 1 880 12 is_stmt 0
 3584 0050 15C1     		beq	a0,zero,.L201
 881:C:/Users/stapi/OneDrive/Desktop/GD32VW553/V1_MQTT_OK/GD32VW55X_Wifi_BLE_SDK/GD32VW55x_RELEASE_V1.0.2/MSDK/cloud/alicloud/src/infra/utils/misc\utils_httpc.c ****             dump_http_status(STATE_HTTP_NWK_INIT_FAIL, "net init fail");
 3585              		.loc 1 881 13 is_stmt 1
 3586 0052 37060000 		lui	a2,%hi(.LC67)
 3587 0056 13060600 		addi	a2,a2,%lo(.LC67)
 3588 005a 9305009C 		li	a1,-1600
 3589 005e 7545     		li	a0,29
 3590 0060 97000000 		call	iotx_state_event
 3590      E7800000 
 3591              	.LVL443:
 882:C:/Users/stapi/OneDrive/Desktop/GD32VW553/V1_MQTT_OK/GD32VW55X_Wifi_BLE_SDK/GD32VW55x_RELEASE_V1.0.2/MSDK/cloud/alicloud/src/infra/utils/misc\utils_httpc.c ****             return ret;
 3592              		.loc 1 882 13
 3593              	.L199:
 883:C:/Users/stapi/OneDrive/Desktop/GD32VW553/V1_MQTT_OK/GD32VW55X_Wifi_BLE_SDK/GD32VW55x_RELEASE_V1.0.2/MSDK/cloud/alicloud/src/infra/utils/misc\utils_httpc.c ****         }
 884:C:/Users/stapi/OneDrive/Desktop/GD32VW553/V1_MQTT_OK/GD32VW55X_Wifi_BLE_SDK/GD32VW55x_RELEASE_V1.0.2/MSDK/cloud/alicloud/src/infra/utils/misc\utils_httpc.c **** 
 885:C:/Users/stapi/OneDrive/Desktop/GD32VW553/V1_MQTT_OK/GD32VW55X_Wifi_BLE_SDK/GD32VW55x_RELEASE_V1.0.2/MSDK/cloud/alicloud/src/infra/utils/misc\utils_httpc.c ****         ret = httpclient_connect(client);
 886:C:/Users/stapi/OneDrive/Desktop/GD32VW553/V1_MQTT_OK/GD32VW55X_Wifi_BLE_SDK/GD32VW55x_RELEASE_V1.0.2/MSDK/cloud/alicloud/src/infra/utils/misc\utils_httpc.c ****         if (0 != ret) {
 887:C:/Users/stapi/OneDrive/Desktop/GD32VW553/V1_MQTT_OK/GD32VW55X_Wifi_BLE_SDK/GD32VW55x_RELEASE_V1.0.2/MSDK/cloud/alicloud/src/infra/utils/misc\utils_httpc.c ****             utils_err("httpclient_connect is error, ret = %d", ret);
 888:C:/Users/stapi/OneDrive/Desktop/GD32VW553/V1_MQTT_OK/GD32VW55X_Wifi_BLE_SDK/GD32VW55x_RELEASE_V1.0.2/MSDK/cloud/alicloud/src/infra/utils/misc\utils_httpc.c ****             httpclient_close(client);
 889:C:/Users/stapi/OneDrive/Desktop/GD32VW553/V1_MQTT_OK/GD32VW55X_Wifi_BLE_SDK/GD32VW55x_RELEASE_V1.0.2/MSDK/cloud/alicloud/src/infra/utils/misc\utils_httpc.c ****             return ret;
 890:C:/Users/stapi/OneDrive/Desktop/GD32VW553/V1_MQTT_OK/GD32VW55X_Wifi_BLE_SDK/GD32VW55x_RELEASE_V1.0.2/MSDK/cloud/alicloud/src/infra/utils/misc\utils_httpc.c ****         }
 891:C:/Users/stapi/OneDrive/Desktop/GD32VW553/V1_MQTT_OK/GD32VW55X_Wifi_BLE_SDK/GD32VW55x_RELEASE_V1.0.2/MSDK/cloud/alicloud/src/infra/utils/misc\utils_httpc.c **** 
 892:C:/Users/stapi/OneDrive/Desktop/GD32VW553/V1_MQTT_OK/GD32VW55X_Wifi_BLE_SDK/GD32VW55x_RELEASE_V1.0.2/MSDK/cloud/alicloud/src/infra/utils/misc\utils_httpc.c ****         ret = httpclient_send_request(client, url, method, client_data);
 893:C:/Users/stapi/OneDrive/Desktop/GD32VW553/V1_MQTT_OK/GD32VW55X_Wifi_BLE_SDK/GD32VW55x_RELEASE_V1.0.2/MSDK/cloud/alicloud/src/infra/utils/misc\utils_httpc.c ****         if (0 != ret) {
 894:C:/Users/stapi/OneDrive/Desktop/GD32VW553/V1_MQTT_OK/GD32VW55X_Wifi_BLE_SDK/GD32VW55x_RELEASE_V1.0.2/MSDK/cloud/alicloud/src/infra/utils/misc\utils_httpc.c ****             utils_err("httpclient_send_request is error, ret = %d", ret);
 895:C:/Users/stapi/OneDrive/Desktop/GD32VW553/V1_MQTT_OK/GD32VW55X_Wifi_BLE_SDK/GD32VW55x_RELEASE_V1.0.2/MSDK/cloud/alicloud/src/infra/utils/misc\utils_httpc.c ****             httpclient_close(client);
 896:C:/Users/stapi/OneDrive/Desktop/GD32VW553/V1_MQTT_OK/GD32VW55X_Wifi_BLE_SDK/GD32VW55x_RELEASE_V1.0.2/MSDK/cloud/alicloud/src/infra/utils/misc\utils_httpc.c ****             return ret;
 897:C:/Users/stapi/OneDrive/Desktop/GD32VW553/V1_MQTT_OK/GD32VW55X_Wifi_BLE_SDK/GD32VW55x_RELEASE_V1.0.2/MSDK/cloud/alicloud/src/infra/utils/misc\utils_httpc.c ****         }
 898:C:/Users/stapi/OneDrive/Desktop/GD32VW553/V1_MQTT_OK/GD32VW55X_Wifi_BLE_SDK/GD32VW55x_RELEASE_V1.0.2/MSDK/cloud/alicloud/src/infra/utils/misc\utils_httpc.c ****     }
 899:C:/Users/stapi/OneDrive/Desktop/GD32VW553/V1_MQTT_OK/GD32VW55X_Wifi_BLE_SDK/GD32VW55x_RELEASE_V1.0.2/MSDK/cloud/alicloud/src/infra/utils/misc\utils_httpc.c **** 
 900:C:/Users/stapi/OneDrive/Desktop/GD32VW553/V1_MQTT_OK/GD32VW55X_Wifi_BLE_SDK/GD32VW55x_RELEASE_V1.0.2/MSDK/cloud/alicloud/src/infra/utils/misc\utils_httpc.c ****     iotx_time_init(&timer);
 901:C:/Users/stapi/OneDrive/Desktop/GD32VW553/V1_MQTT_OK/GD32VW55X_Wifi_BLE_SDK/GD32VW55x_RELEASE_V1.0.2/MSDK/cloud/alicloud/src/infra/utils/misc\utils_httpc.c ****     utils_time_countdown_ms(&timer, timeout_ms);
 902:C:/Users/stapi/OneDrive/Desktop/GD32VW553/V1_MQTT_OK/GD32VW55X_Wifi_BLE_SDK/GD32VW55x_RELEASE_V1.0.2/MSDK/cloud/alicloud/src/infra/utils/misc\utils_httpc.c **** 
 903:C:/Users/stapi/OneDrive/Desktop/GD32VW553/V1_MQTT_OK/GD32VW55X_Wifi_BLE_SDK/GD32VW55x_RELEASE_V1.0.2/MSDK/cloud/alicloud/src/infra/utils/misc\utils_httpc.c ****     if ((NULL != client_data->response_buf)
 904:C:/Users/stapi/OneDrive/Desktop/GD32VW553/V1_MQTT_OK/GD32VW55X_Wifi_BLE_SDK/GD32VW55x_RELEASE_V1.0.2/MSDK/cloud/alicloud/src/infra/utils/misc\utils_httpc.c ****         && (0 != client_data->response_buf_len)) {
 905:C:/Users/stapi/OneDrive/Desktop/GD32VW553/V1_MQTT_OK/GD32VW55X_Wifi_BLE_SDK/GD32VW55x_RELEASE_V1.0.2/MSDK/cloud/alicloud/src/infra/utils/misc\utils_httpc.c ****         ret = httpclient_recv_response(client, iotx_time_left(&timer), client_data);
 906:C:/Users/stapi/OneDrive/Desktop/GD32VW553/V1_MQTT_OK/GD32VW55X_Wifi_BLE_SDK/GD32VW55x_RELEASE_V1.0.2/MSDK/cloud/alicloud/src/infra/utils/misc\utils_httpc.c ****         if (ret < 0) {
 907:C:/Users/stapi/OneDrive/Desktop/GD32VW553/V1_MQTT_OK/GD32VW55X_Wifi_BLE_SDK/GD32VW55x_RELEASE_V1.0.2/MSDK/cloud/alicloud/src/infra/utils/misc\utils_httpc.c ****             utils_err("httpclient_recv_response is error,ret = %d", ret);
 908:C:/Users/stapi/OneDrive/Desktop/GD32VW553/V1_MQTT_OK/GD32VW55X_Wifi_BLE_SDK/GD32VW55x_RELEASE_V1.0.2/MSDK/cloud/alicloud/src/infra/utils/misc\utils_httpc.c ****             httpclient_close(client);
 909:C:/Users/stapi/OneDrive/Desktop/GD32VW553/V1_MQTT_OK/GD32VW55X_Wifi_BLE_SDK/GD32VW55x_RELEASE_V1.0.2/MSDK/cloud/alicloud/src/infra/utils/misc\utils_httpc.c ****             return ret;
 910:C:/Users/stapi/OneDrive/Desktop/GD32VW553/V1_MQTT_OK/GD32VW55X_Wifi_BLE_SDK/GD32VW55x_RELEASE_V1.0.2/MSDK/cloud/alicloud/src/infra/utils/misc\utils_httpc.c ****         }
 911:C:/Users/stapi/OneDrive/Desktop/GD32VW553/V1_MQTT_OK/GD32VW55X_Wifi_BLE_SDK/GD32VW55x_RELEASE_V1.0.2/MSDK/cloud/alicloud/src/infra/utils/misc\utils_httpc.c ****     }
 912:C:/Users/stapi/OneDrive/Desktop/GD32VW553/V1_MQTT_OK/GD32VW55X_Wifi_BLE_SDK/GD32VW55x_RELEASE_V1.0.2/MSDK/cloud/alicloud/src/infra/utils/misc\utils_httpc.c **** 
 913:C:/Users/stapi/OneDrive/Desktop/GD32VW553/V1_MQTT_OK/GD32VW55X_Wifi_BLE_SDK/GD32VW55x_RELEASE_V1.0.2/MSDK/cloud/alicloud/src/infra/utils/misc\utils_httpc.c ****     if (! client_data->is_more) {
 914:C:/Users/stapi/OneDrive/Desktop/GD32VW553/V1_MQTT_OK/GD32VW55X_Wifi_BLE_SDK/GD32VW55x_RELEASE_V1.0.2/MSDK/cloud/alicloud/src/infra/utils/misc\utils_httpc.c ****         /* Close the HTTP if no more data. */
 915:C:/Users/stapi/OneDrive/Desktop/GD32VW553/V1_MQTT_OK/GD32VW55X_Wifi_BLE_SDK/GD32VW55x_RELEASE_V1.0.2/MSDK/cloud/alicloud/src/infra/utils/misc\utils_httpc.c ****         utils_info("close http channel");
 916:C:/Users/stapi/OneDrive/Desktop/GD32VW553/V1_MQTT_OK/GD32VW55X_Wifi_BLE_SDK/GD32VW55x_RELEASE_V1.0.2/MSDK/cloud/alicloud/src/infra/utils/misc\utils_httpc.c ****         httpclient_close(client);
 917:C:/Users/stapi/OneDrive/Desktop/GD32VW553/V1_MQTT_OK/GD32VW55X_Wifi_BLE_SDK/GD32VW55x_RELEASE_V1.0.2/MSDK/cloud/alicloud/src/infra/utils/misc\utils_httpc.c ****     }
 918:C:/Users/stapi/OneDrive/Desktop/GD32VW553/V1_MQTT_OK/GD32VW55X_Wifi_BLE_SDK/GD32VW55x_RELEASE_V1.0.2/MSDK/cloud/alicloud/src/infra/utils/misc\utils_httpc.c **** 
 919:C:/Users/stapi/OneDrive/Desktop/GD32VW553/V1_MQTT_OK/GD32VW55X_Wifi_BLE_SDK/GD32VW55x_RELEASE_V1.0.2/MSDK/cloud/alicloud/src/infra/utils/misc\utils_httpc.c ****     ret = 0;
 920:C:/Users/stapi/OneDrive/Desktop/GD32VW553/V1_MQTT_OK/GD32VW55X_Wifi_BLE_SDK/GD32VW55x_RELEASE_V1.0.2/MSDK/cloud/alicloud/src/infra/utils/misc\utils_httpc.c ****     return ret;
 921:C:/Users/stapi/OneDrive/Desktop/GD32VW553/V1_MQTT_OK/GD32VW55X_Wifi_BLE_SDK/GD32VW55x_RELEASE_V1.0.2/MSDK/cloud/alicloud/src/infra/utils/misc\utils_httpc.c **** }
 3594              		.loc 1 921 1 is_stmt 0
 3595 0068 2285     		mv	a0,s0
 3596 006a 0D61     		addi	sp,sp,160
 3597              		.cfi_remember_state
 3598              		.cfi_def_cfa_offset 0
 3599              	.LVL444:
 3600 006c 17030000 		tail	__riscv_restore_6
 3600      67000300 
 3601              		.cfi_restore 21
 3602              		.cfi_restore 20
 3603              		.cfi_restore 19
 3604              		.cfi_restore 18
 3605              		.cfi_restore 9
 3606              		.cfi_restore 8
 3607              		.cfi_restore 1
 3608              		.cfi_def_cfa_offset -32
 3609              	.LVL445:
 3610              	.L201:
 3611              		.cfi_restore_state
 885:C:/Users/stapi/OneDrive/Desktop/GD32VW553/V1_MQTT_OK/GD32VW55X_Wifi_BLE_SDK/GD32VW55x_RELEASE_V1.0.2/MSDK/cloud/alicloud/src/infra/utils/misc\utils_httpc.c ****         if (0 != ret) {
 3612              		.loc 1 885 9 is_stmt 1
 885:C:/Users/stapi/OneDrive/Desktop/GD32VW553/V1_MQTT_OK/GD32VW55X_Wifi_BLE_SDK/GD32VW55x_RELEASE_V1.0.2/MSDK/cloud/alicloud/src/infra/utils/misc\utils_httpc.c ****         if (0 != ret) {
 3613              		.loc 1 885 15 is_stmt 0
 3614 0074 2685     		mv	a0,s1
 3615 0076 97000000 		call	httpclient_connect
 3615      E7800000 
 3616              	.LVL446:
 3617 007e 2A84     		mv	s0,a0
 3618              	.LVL447:
 886:C:/Users/stapi/OneDrive/Desktop/GD32VW553/V1_MQTT_OK/GD32VW55X_Wifi_BLE_SDK/GD32VW55x_RELEASE_V1.0.2/MSDK/cloud/alicloud/src/infra/utils/misc\utils_httpc.c ****             utils_err("httpclient_connect is error, ret = %d", ret);
 3619              		.loc 1 886 9 is_stmt 1
 886:C:/Users/stapi/OneDrive/Desktop/GD32VW553/V1_MQTT_OK/GD32VW55X_Wifi_BLE_SDK/GD32VW55x_RELEASE_V1.0.2/MSDK/cloud/alicloud/src/infra/utils/misc\utils_httpc.c ****             utils_err("httpclient_connect is error, ret = %d", ret);
 3620              		.loc 1 886 12 is_stmt 0
 3621 0080 21C1     		beq	a0,zero,.L203
 887:C:/Users/stapi/OneDrive/Desktop/GD32VW553/V1_MQTT_OK/GD32VW55X_Wifi_BLE_SDK/GD32VW55x_RELEASE_V1.0.2/MSDK/cloud/alicloud/src/infra/utils/misc\utils_httpc.c ****             httpclient_close(client);
 3622              		.loc 1 887 13 is_stmt 1
 887:C:/Users/stapi/OneDrive/Desktop/GD32VW553/V1_MQTT_OK/GD32VW55X_Wifi_BLE_SDK/GD32VW55x_RELEASE_V1.0.2/MSDK/cloud/alicloud/src/infra/utils/misc\utils_httpc.c ****             httpclient_close(client);
 3623              		.loc 1 887 13
 3624 0082 37050000 		lui	a0,%hi(.LC2)
 3625 0086 13050500 		addi	a0,a0,%lo(.LC2)
 3626 008a 97000000 		call	HAL_Printf
 3626      E7800000 
 3627              	.LVL448:
 887:C:/Users/stapi/OneDrive/Desktop/GD32VW553/V1_MQTT_OK/GD32VW55X_Wifi_BLE_SDK/GD32VW55x_RELEASE_V1.0.2/MSDK/cloud/alicloud/src/infra/utils/misc\utils_httpc.c ****             httpclient_close(client);
 3628              		.loc 1 887 13
 3629 0092 37050000 		lui	a0,%hi(.LC68)
 3630 0096 A285     		mv	a1,s0
 3631 0098 13050500 		addi	a0,a0,%lo(.LC68)
 3632              	.L217:
 907:C:/Users/stapi/OneDrive/Desktop/GD32VW553/V1_MQTT_OK/GD32VW55X_Wifi_BLE_SDK/GD32VW55x_RELEASE_V1.0.2/MSDK/cloud/alicloud/src/infra/utils/misc\utils_httpc.c ****             httpclient_close(client);
 3633              		.loc 1 907 13 is_stmt 0
 3634 009c 97000000 		call	HAL_Printf
 3634      E7800000 
 3635              	.LVL449:
 907:C:/Users/stapi/OneDrive/Desktop/GD32VW553/V1_MQTT_OK/GD32VW55X_Wifi_BLE_SDK/GD32VW55x_RELEASE_V1.0.2/MSDK/cloud/alicloud/src/infra/utils/misc\utils_httpc.c ****             httpclient_close(client);
 3636              		.loc 1 907 13 is_stmt 1
 3637              	.L216:
 915:C:/Users/stapi/OneDrive/Desktop/GD32VW553/V1_MQTT_OK/GD32VW55X_Wifi_BLE_SDK/GD32VW55x_RELEASE_V1.0.2/MSDK/cloud/alicloud/src/infra/utils/misc\utils_httpc.c ****         httpclient_close(client);
 3638              		.loc 1 915 9
 3639 00a4 37050000 		lui	a0,%hi(.LC4)
 3640 00a8 13050500 		addi	a0,a0,%lo(.LC4)
 3641 00ac 97000000 		call	HAL_Printf
 3641      E7800000 
 3642              	.LVL450:
 915:C:/Users/stapi/OneDrive/Desktop/GD32VW553/V1_MQTT_OK/GD32VW55X_Wifi_BLE_SDK/GD32VW55x_RELEASE_V1.0.2/MSDK/cloud/alicloud/src/infra/utils/misc\utils_httpc.c ****         httpclient_close(client);
 3643              		.loc 1 915 9
 916:C:/Users/stapi/OneDrive/Desktop/GD32VW553/V1_MQTT_OK/GD32VW55X_Wifi_BLE_SDK/GD32VW55x_RELEASE_V1.0.2/MSDK/cloud/alicloud/src/infra/utils/misc\utils_httpc.c ****     }
 3644              		.loc 1 916 9
 3645 00b4 2685     		mv	a0,s1
 3646 00b6 97000000 		call	httpclient_close
 3646      E7800000 
 3647              	.LVL451:
 3648 00be 6DB7     		j	.L199
 3649              	.LVL452:
 3650              	.L203:
 892:C:/Users/stapi/OneDrive/Desktop/GD32VW553/V1_MQTT_OK/GD32VW55X_Wifi_BLE_SDK/GD32VW55x_RELEASE_V1.0.2/MSDK/cloud/alicloud/src/infra/utils/misc\utils_httpc.c ****         if (0 != ret) {
 3651              		.loc 1 892 9
 892:C:/Users/stapi/OneDrive/Desktop/GD32VW553/V1_MQTT_OK/GD32VW55X_Wifi_BLE_SDK/GD32VW55x_RELEASE_V1.0.2/MSDK/cloud/alicloud/src/infra/utils/misc\utils_httpc.c ****         if (0 != ret) {
 3652              		.loc 1 892 15 is_stmt 0
 3653 00c0 CA86     		mv	a3,s2
 3654 00c2 5686     		mv	a2,s5
 3655 00c4 CE85     		mv	a1,s3
 3656 00c6 2685     		mv	a0,s1
 3657 00c8 97000000 		call	httpclient_send_request
 3657      E7800000 
 3658              	.LVL453:
 3659 00d0 2A84     		mv	s0,a0
 3660              	.LVL454:
 893:C:/Users/stapi/OneDrive/Desktop/GD32VW553/V1_MQTT_OK/GD32VW55X_Wifi_BLE_SDK/GD32VW55x_RELEASE_V1.0.2/MSDK/cloud/alicloud/src/infra/utils/misc\utils_httpc.c ****             utils_err("httpclient_send_request is error, ret = %d", ret);
 3661              		.loc 1 893 9 is_stmt 1
 893:C:/Users/stapi/OneDrive/Desktop/GD32VW553/V1_MQTT_OK/GD32VW55X_Wifi_BLE_SDK/GD32VW55x_RELEASE_V1.0.2/MSDK/cloud/alicloud/src/infra/utils/misc\utils_httpc.c ****             utils_err("httpclient_send_request is error, ret = %d", ret);
 3662              		.loc 1 893 12 is_stmt 0
 3663 00d2 19CD     		beq	a0,zero,.L200
 894:C:/Users/stapi/OneDrive/Desktop/GD32VW553/V1_MQTT_OK/GD32VW55X_Wifi_BLE_SDK/GD32VW55x_RELEASE_V1.0.2/MSDK/cloud/alicloud/src/infra/utils/misc\utils_httpc.c ****             httpclient_close(client);
 3664              		.loc 1 894 13 is_stmt 1
 894:C:/Users/stapi/OneDrive/Desktop/GD32VW553/V1_MQTT_OK/GD32VW55X_Wifi_BLE_SDK/GD32VW55x_RELEASE_V1.0.2/MSDK/cloud/alicloud/src/infra/utils/misc\utils_httpc.c ****             httpclient_close(client);
 3665              		.loc 1 894 13
 3666 00d4 37050000 		lui	a0,%hi(.LC2)
 3667 00d8 13050500 		addi	a0,a0,%lo(.LC2)
 3668 00dc 97000000 		call	HAL_Printf
 3668      E7800000 
 3669              	.LVL455:
 894:C:/Users/stapi/OneDrive/Desktop/GD32VW553/V1_MQTT_OK/GD32VW55X_Wifi_BLE_SDK/GD32VW55x_RELEASE_V1.0.2/MSDK/cloud/alicloud/src/infra/utils/misc\utils_httpc.c ****             httpclient_close(client);
 3670              		.loc 1 894 13
 3671 00e4 37050000 		lui	a0,%hi(.LC69)
 3672 00e8 A285     		mv	a1,s0
 3673 00ea 13050500 		addi	a0,a0,%lo(.LC69)
 3674 00ee 7DB7     		j	.L217
 3675              	.LVL456:
 3676              	.L200:
 900:C:/Users/stapi/OneDrive/Desktop/GD32VW553/V1_MQTT_OK/GD32VW55X_Wifi_BLE_SDK/GD32VW55x_RELEASE_V1.0.2/MSDK/cloud/alicloud/src/infra/utils/misc\utils_httpc.c ****     utils_time_countdown_ms(&timer, timeout_ms);
 3677              		.loc 1 900 5
 3678 00f0 6808     		addi	a0,sp,28
 3679 00f2 97000000 		call	iotx_time_init
 3679      E7800000 
 3680              	.LVL457:
 901:C:/Users/stapi/OneDrive/Desktop/GD32VW553/V1_MQTT_OK/GD32VW55X_Wifi_BLE_SDK/GD32VW55x_RELEASE_V1.0.2/MSDK/cloud/alicloud/src/infra/utils/misc\utils_httpc.c **** 
 3681              		.loc 1 901 5
 3682 00fa D285     		mv	a1,s4
 3683 00fc 6808     		addi	a0,sp,28
 3684 00fe 97000000 		call	utils_time_countdown_ms
 3684      E7800000 
 3685              	.LVL458:
 903:C:/Users/stapi/OneDrive/Desktop/GD32VW553/V1_MQTT_OK/GD32VW55X_Wifi_BLE_SDK/GD32VW55x_RELEASE_V1.0.2/MSDK/cloud/alicloud/src/infra/utils/misc\utils_httpc.c ****         && (0 != client_data->response_buf_len)) {
 3686              		.loc 1 903 5
 903:C:/Users/stapi/OneDrive/Desktop/GD32VW553/V1_MQTT_OK/GD32VW55X_Wifi_BLE_SDK/GD32VW55x_RELEASE_V1.0.2/MSDK/cloud/alicloud/src/infra/utils/misc\utils_httpc.c ****         && (0 != client_data->response_buf_len)) {
 3687              		.loc 1 903 8 is_stmt 0
 3688 0106 83274902 		lw	a5,36(s2)
 3689 010a A9C3     		beq	a5,zero,.L204
 904:C:/Users/stapi/OneDrive/Desktop/GD32VW553/V1_MQTT_OK/GD32VW55X_Wifi_BLE_SDK/GD32VW55x_RELEASE_V1.0.2/MSDK/cloud/alicloud/src/infra/utils/misc\utils_httpc.c ****         ret = httpclient_recv_response(client, iotx_time_left(&timer), client_data);
 3690              		.loc 1 904 9
 3691 010c 83278901 		lw	a5,24(s2)
 3692 0110 95CF     		beq	a5,zero,.L204
 905:C:/Users/stapi/OneDrive/Desktop/GD32VW553/V1_MQTT_OK/GD32VW55X_Wifi_BLE_SDK/GD32VW55x_RELEASE_V1.0.2/MSDK/cloud/alicloud/src/infra/utils/misc\utils_httpc.c ****         if (ret < 0) {
 3693              		.loc 1 905 9 is_stmt 1
 905:C:/Users/stapi/OneDrive/Desktop/GD32VW553/V1_MQTT_OK/GD32VW55X_Wifi_BLE_SDK/GD32VW55x_RELEASE_V1.0.2/MSDK/cloud/alicloud/src/infra/utils/misc\utils_httpc.c ****         if (ret < 0) {
 3694              		.loc 1 905 15 is_stmt 0
 3695 0112 6808     		addi	a0,sp,28
 3696 0114 97000000 		call	iotx_time_left
 3696      E7800000 
 3697              	.LVL459:
 3698 011c AA85     		mv	a1,a0
 3699 011e 4A86     		mv	a2,s2
 3700 0120 2685     		mv	a0,s1
 3701 0122 97000000 		call	httpclient_recv_response
 3701      E7800000 
 3702              	.LVL460:
 3703 012a 2A84     		mv	s0,a0
 3704              	.LVL461:
 906:C:/Users/stapi/OneDrive/Desktop/GD32VW553/V1_MQTT_OK/GD32VW55X_Wifi_BLE_SDK/GD32VW55x_RELEASE_V1.0.2/MSDK/cloud/alicloud/src/infra/utils/misc\utils_httpc.c ****             utils_err("httpclient_recv_response is error,ret = %d", ret);
 3705              		.loc 1 906 9 is_stmt 1
 906:C:/Users/stapi/OneDrive/Desktop/GD32VW553/V1_MQTT_OK/GD32VW55X_Wifi_BLE_SDK/GD32VW55x_RELEASE_V1.0.2/MSDK/cloud/alicloud/src/infra/utils/misc\utils_httpc.c ****             utils_err("httpclient_recv_response is error,ret = %d", ret);
 3706              		.loc 1 906 12 is_stmt 0
 3707 012c 63500502 		bge	a0,zero,.L204
 907:C:/Users/stapi/OneDrive/Desktop/GD32VW553/V1_MQTT_OK/GD32VW55X_Wifi_BLE_SDK/GD32VW55x_RELEASE_V1.0.2/MSDK/cloud/alicloud/src/infra/utils/misc\utils_httpc.c ****             httpclient_close(client);
 3708              		.loc 1 907 13 is_stmt 1
 907:C:/Users/stapi/OneDrive/Desktop/GD32VW553/V1_MQTT_OK/GD32VW55X_Wifi_BLE_SDK/GD32VW55x_RELEASE_V1.0.2/MSDK/cloud/alicloud/src/infra/utils/misc\utils_httpc.c ****             httpclient_close(client);
 3709              		.loc 1 907 13
 3710 0130 37050000 		lui	a0,%hi(.LC2)
 3711 0134 13050500 		addi	a0,a0,%lo(.LC2)
 3712 0138 97000000 		call	HAL_Printf
 3712      E7800000 
 3713              	.LVL462:
 907:C:/Users/stapi/OneDrive/Desktop/GD32VW553/V1_MQTT_OK/GD32VW55X_Wifi_BLE_SDK/GD32VW55x_RELEASE_V1.0.2/MSDK/cloud/alicloud/src/infra/utils/misc\utils_httpc.c ****             httpclient_close(client);
 3714              		.loc 1 907 13
 3715 0140 37050000 		lui	a0,%hi(.LC70)
 3716 0144 A285     		mv	a1,s0
 3717 0146 13050500 		addi	a0,a0,%lo(.LC70)
 3718 014a 89BF     		j	.L217
 3719              	.LVL463:
 3720              	.L204:
 913:C:/Users/stapi/OneDrive/Desktop/GD32VW553/V1_MQTT_OK/GD32VW55X_Wifi_BLE_SDK/GD32VW55x_RELEASE_V1.0.2/MSDK/cloud/alicloud/src/infra/utils/misc\utils_httpc.c ****         /* Close the HTTP if no more data. */
 3721              		.loc 1 913 5
 913:C:/Users/stapi/OneDrive/Desktop/GD32VW553/V1_MQTT_OK/GD32VW55X_Wifi_BLE_SDK/GD32VW55x_RELEASE_V1.0.2/MSDK/cloud/alicloud/src/infra/utils/misc\utils_httpc.c ****         /* Close the HTTP if no more data. */
 3722              		.loc 1 913 22 is_stmt 0
 3723 014c 03240900 		lw	s0,0(s2)
 913:C:/Users/stapi/OneDrive/Desktop/GD32VW553/V1_MQTT_OK/GD32VW55X_Wifi_BLE_SDK/GD32VW55x_RELEASE_V1.0.2/MSDK/cloud/alicloud/src/infra/utils/misc\utils_httpc.c ****         /* Close the HTTP if no more data. */
 3724              		.loc 1 913 8
 3725 0150 15E0     		bne	s0,zero,.L205
 915:C:/Users/stapi/OneDrive/Desktop/GD32VW553/V1_MQTT_OK/GD32VW55X_Wifi_BLE_SDK/GD32VW55x_RELEASE_V1.0.2/MSDK/cloud/alicloud/src/infra/utils/misc\utils_httpc.c ****         httpclient_close(client);
 3726              		.loc 1 915 9 is_stmt 1
 915:C:/Users/stapi/OneDrive/Desktop/GD32VW553/V1_MQTT_OK/GD32VW55X_Wifi_BLE_SDK/GD32VW55x_RELEASE_V1.0.2/MSDK/cloud/alicloud/src/infra/utils/misc\utils_httpc.c ****         httpclient_close(client);
 3727              		.loc 1 915 9
 3728 0152 37050000 		lui	a0,%hi(.LC10)
 3729 0156 13050500 		addi	a0,a0,%lo(.LC10)
 3730 015a 97000000 		call	HAL_Printf
 3730      E7800000 
 3731              	.LVL464:
 915:C:/Users/stapi/OneDrive/Desktop/GD32VW553/V1_MQTT_OK/GD32VW55X_Wifi_BLE_SDK/GD32VW55x_RELEASE_V1.0.2/MSDK/cloud/alicloud/src/infra/utils/misc\utils_httpc.c ****         httpclient_close(client);
 3732              		.loc 1 915 9
 3733 0162 37050000 		lui	a0,%hi(.LC71)
 3734 0166 13050500 		addi	a0,a0,%lo(.LC71)
 3735 016a 97000000 		call	HAL_Printf
 3735      E7800000 
 3736              	.LVL465:
 3737 0172 0DBF     		j	.L216
 3738              	.L205:
 920:C:/Users/stapi/OneDrive/Desktop/GD32VW553/V1_MQTT_OK/GD32VW55X_Wifi_BLE_SDK/GD32VW55x_RELEASE_V1.0.2/MSDK/cloud/alicloud/src/infra/utils/misc\utils_httpc.c **** }
 3739              		.loc 1 920 12 is_stmt 0
 3740 0174 0144     		li	s0,0
 3741 0176 CDBD     		j	.L199
 3742              		.cfi_endproc
 3743              	.LFE35:
 3745              		.section	.text.utils_get_response_code,"ax",@progbits
 3746              		.align	1
 3747              		.globl	utils_get_response_code
 3749              	utils_get_response_code:
 3750              	.LFB36:
 922:C:/Users/stapi/OneDrive/Desktop/GD32VW553/V1_MQTT_OK/GD32VW55X_Wifi_BLE_SDK/GD32VW55x_RELEASE_V1.0.2/MSDK/cloud/alicloud/src/infra/utils/misc\utils_httpc.c **** 
 923:C:/Users/stapi/OneDrive/Desktop/GD32VW553/V1_MQTT_OK/GD32VW55X_Wifi_BLE_SDK/GD32VW55x_RELEASE_V1.0.2/MSDK/cloud/alicloud/src/infra/utils/misc\utils_httpc.c **** int utils_get_response_code(httpclient_t *client)
 924:C:/Users/stapi/OneDrive/Desktop/GD32VW553/V1_MQTT_OK/GD32VW55X_Wifi_BLE_SDK/GD32VW55x_RELEASE_V1.0.2/MSDK/cloud/alicloud/src/infra/utils/misc\utils_httpc.c **** {
 3751              		.loc 1 924 1 is_stmt 1
 3752              		.cfi_startproc
 3753              	.LVL466:
 925:C:/Users/stapi/OneDrive/Desktop/GD32VW553/V1_MQTT_OK/GD32VW55X_Wifi_BLE_SDK/GD32VW55x_RELEASE_V1.0.2/MSDK/cloud/alicloud/src/infra/utils/misc\utils_httpc.c ****     return client->response_code;
 3754              		.loc 1 925 5
 926:C:/Users/stapi/OneDrive/Desktop/GD32VW553/V1_MQTT_OK/GD32VW55X_Wifi_BLE_SDK/GD32VW55x_RELEASE_V1.0.2/MSDK/cloud/alicloud/src/infra/utils/misc\utils_httpc.c **** }
 3755              		.loc 1 926 1 is_stmt 0
 3756 0000 4851     		lw	a0,36(a0)
 3757              	.LVL467:
 3758 0002 8280     		ret
 3759              		.cfi_endproc
 3760              	.LFE36:
 3762              		.section	.rodata.iotx_post.str1.4,"aMS",@progbits,1
 3763              		.align	2
 3764              	.LC72:
 3765 0000 686F7374 		.string	"host: '%s', port: %d"
 3765      3A202725 
 3765      73272C20 
 3765      706F7274 
 3765      3A202564 
 3766              		.section	.text.iotx_post,"ax",@progbits
 3767              		.align	1
 3768              		.globl	iotx_post
 3770              	iotx_post:
 3771              	.LFB37:
 927:C:/Users/stapi/OneDrive/Desktop/GD32VW553/V1_MQTT_OK/GD32VW55X_Wifi_BLE_SDK/GD32VW55x_RELEASE_V1.0.2/MSDK/cloud/alicloud/src/infra/utils/misc\utils_httpc.c **** 
 928:C:/Users/stapi/OneDrive/Desktop/GD32VW553/V1_MQTT_OK/GD32VW55X_Wifi_BLE_SDK/GD32VW55x_RELEASE_V1.0.2/MSDK/cloud/alicloud/src/infra/utils/misc\utils_httpc.c **** int iotx_post(httpclient_t *client,
 929:C:/Users/stapi/OneDrive/Desktop/GD32VW553/V1_MQTT_OK/GD32VW55X_Wifi_BLE_SDK/GD32VW55x_RELEASE_V1.0.2/MSDK/cloud/alicloud/src/infra/utils/misc\utils_httpc.c ****               const char *url,
 930:C:/Users/stapi/OneDrive/Desktop/GD32VW553/V1_MQTT_OK/GD32VW55X_Wifi_BLE_SDK/GD32VW55x_RELEASE_V1.0.2/MSDK/cloud/alicloud/src/infra/utils/misc\utils_httpc.c ****               int port,
 931:C:/Users/stapi/OneDrive/Desktop/GD32VW553/V1_MQTT_OK/GD32VW55X_Wifi_BLE_SDK/GD32VW55x_RELEASE_V1.0.2/MSDK/cloud/alicloud/src/infra/utils/misc\utils_httpc.c ****               const char *ca_crt,
 932:C:/Users/stapi/OneDrive/Desktop/GD32VW553/V1_MQTT_OK/GD32VW55X_Wifi_BLE_SDK/GD32VW55x_RELEASE_V1.0.2/MSDK/cloud/alicloud/src/infra/utils/misc\utils_httpc.c ****               httpclient_data_t *client_data)
 933:C:/Users/stapi/OneDrive/Desktop/GD32VW553/V1_MQTT_OK/GD32VW55X_Wifi_BLE_SDK/GD32VW55x_RELEASE_V1.0.2/MSDK/cloud/alicloud/src/infra/utils/misc\utils_httpc.c **** {
 3772              		.loc 1 933 1 is_stmt 1
 3773              		.cfi_startproc
 3774              	.LVL468:
 3775 0000 17030000 		call	t0,__riscv_save_6
 3775      E7020300 
 3776              		.cfi_offset 21, -28
 3777              		.cfi_offset 20, -24
 3778              		.cfi_offset 19, -20
 3779              		.cfi_offset 18, -16
 3780              		.cfi_offset 9, -12
 3781              		.cfi_offset 8, -8
 3782              		.cfi_offset 1, -4
 3783              		.cfi_def_cfa_offset 32
 934:C:/Users/stapi/OneDrive/Desktop/GD32VW553/V1_MQTT_OK/GD32VW55X_Wifi_BLE_SDK/GD32VW55x_RELEASE_V1.0.2/MSDK/cloud/alicloud/src/infra/utils/misc\utils_httpc.c ****     /* return httpclient_common(client, url, port, ca_crt, HTTPCLIENT_POST, timeout_ms, client_data
 935:C:/Users/stapi/OneDrive/Desktop/GD32VW553/V1_MQTT_OK/GD32VW55X_Wifi_BLE_SDK/GD32VW55x_RELEASE_V1.0.2/MSDK/cloud/alicloud/src/infra/utils/misc\utils_httpc.c ****     int ret = ERROR_HTTP;
 3784              		.loc 1 935 5
 3785              	.LVL469:
 936:C:/Users/stapi/OneDrive/Desktop/GD32VW553/V1_MQTT_OK/GD32VW55X_Wifi_BLE_SDK/GD32VW55x_RELEASE_V1.0.2/MSDK/cloud/alicloud/src/infra/utils/misc\utils_httpc.c ****     char host[HTTPCLIENT_MAX_HOST_LEN] = { 0 };
 3786              		.loc 1 936 5
 933:C:/Users/stapi/OneDrive/Desktop/GD32VW553/V1_MQTT_OK/GD32VW55X_Wifi_BLE_SDK/GD32VW55x_RELEASE_V1.0.2/MSDK/cloud/alicloud/src/infra/utils/misc\utils_httpc.c ****     /* return httpclient_common(client, url, port, ca_crt, HTTPCLIENT_POST, timeout_ms, client_data
 3787              		.loc 1 933 1 is_stmt 0
 3788 0008 7571     		addi	sp,sp,-144
 3789              		.cfi_def_cfa_offset 176
 933:C:/Users/stapi/OneDrive/Desktop/GD32VW553/V1_MQTT_OK/GD32VW55X_Wifi_BLE_SDK/GD32VW55x_RELEASE_V1.0.2/MSDK/cloud/alicloud/src/infra/utils/misc\utils_httpc.c ****     /* return httpclient_common(client, url, port, ca_crt, HTTPCLIENT_POST, timeout_ms, client_data
 3790              		.loc 1 933 1
 3791 000a AA84     		mv	s1,a0
 3792 000c 2E89     		mv	s2,a1
 3793 000e 3284     		mv	s0,a2
 3794              		.loc 1 936 10
 3795 0010 8145     		li	a1,0
 3796              	.LVL470:
 3797 0012 1306C007 		li	a2,124
 3798              	.LVL471:
 3799 0016 4808     		addi	a0,sp,20
 3800              	.LVL472:
 933:C:/Users/stapi/OneDrive/Desktop/GD32VW553/V1_MQTT_OK/GD32VW55X_Wifi_BLE_SDK/GD32VW55x_RELEASE_V1.0.2/MSDK/cloud/alicloud/src/infra/utils/misc\utils_httpc.c ****     /* return httpclient_common(client, url, port, ca_crt, HTTPCLIENT_POST, timeout_ms, client_data
 3801              		.loc 1 933 1
 3802 0018 36C6     		sw	a3,12(sp)
 3803 001a BA89     		mv	s3,a4
 3804              		.loc 1 936 10
 3805 001c 02C8     		sw	zero,16(sp)
 3806 001e 97000000 		call	memset
 3806      E7800000 
 3807              	.LVL473:
 937:C:/Users/stapi/OneDrive/Desktop/GD32VW553/V1_MQTT_OK/GD32VW55X_Wifi_BLE_SDK/GD32VW55x_RELEASE_V1.0.2/MSDK/cloud/alicloud/src/infra/utils/misc\utils_httpc.c **** 
 938:C:/Users/stapi/OneDrive/Desktop/GD32VW553/V1_MQTT_OK/GD32VW55X_Wifi_BLE_SDK/GD32VW55x_RELEASE_V1.0.2/MSDK/cloud/alicloud/src/infra/utils/misc\utils_httpc.c ****     httpclient_parse_host(url, host, sizeof(host));
 3808              		.loc 1 938 5 is_stmt 1
 3809 0026 0C08     		addi	a1,sp,16
 3810 0028 4A85     		mv	a0,s2
 3811 002a 97000000 		call	httpclient_parse_host.constprop.0.isra.0
 3811      E7800000 
 3812              	.LVL474:
 939:C:/Users/stapi/OneDrive/Desktop/GD32VW553/V1_MQTT_OK/GD32VW55X_Wifi_BLE_SDK/GD32VW55x_RELEASE_V1.0.2/MSDK/cloud/alicloud/src/infra/utils/misc\utils_httpc.c ****     utils_info("host: '%s', port: %d", host, port);
 3813              		.loc 1 939 5
 3814              		.loc 1 939 5
 3815 0032 37050000 		lui	a0,%hi(.LC10)
 3816 0036 13050500 		addi	a0,a0,%lo(.LC10)
 3817 003a 97000000 		call	HAL_Printf
 3817      E7800000 
 3818              	.LVL475:
 3819              		.loc 1 939 5
 3820 0042 37050000 		lui	a0,%hi(.LC72)
 3821 0046 2286     		mv	a2,s0
 3822 0048 0C08     		addi	a1,sp,16
 3823 004a 13050500 		addi	a0,a0,%lo(.LC72)
 3824 004e 97000000 		call	HAL_Printf
 3824      E7800000 
 3825              	.LVL476:
 3826              		.loc 1 939 5
 3827 0056 370A0000 		lui	s4,%hi(.LC4)
 3828 005a 13050A00 		addi	a0,s4,%lo(.LC4)
 3829 005e 97000000 		call	HAL_Printf
 3829      E7800000 
 3830              	.LVL477:
 3831              		.loc 1 939 5
 940:C:/Users/stapi/OneDrive/Desktop/GD32VW553/V1_MQTT_OK/GD32VW55X_Wifi_BLE_SDK/GD32VW55x_RELEASE_V1.0.2/MSDK/cloud/alicloud/src/infra/utils/misc\utils_httpc.c **** 
 941:C:/Users/stapi/OneDrive/Desktop/GD32VW553/V1_MQTT_OK/GD32VW55X_Wifi_BLE_SDK/GD32VW55x_RELEASE_V1.0.2/MSDK/cloud/alicloud/src/infra/utils/misc\utils_httpc.c ****     if (0 == client->net.handle) {
 3832              		.loc 1 941 5
 3833              		.loc 1 941 8 is_stmt 0
 3834 0066 9C48     		lw	a5,16(s1)
 3835 0068 D28A     		mv	s5,s4
 3836 006a B5E7     		bne	a5,zero,.L220
 942:C:/Users/stapi/OneDrive/Desktop/GD32VW553/V1_MQTT_OK/GD32VW55X_Wifi_BLE_SDK/GD32VW55x_RELEASE_V1.0.2/MSDK/cloud/alicloud/src/infra/utils/misc\utils_httpc.c ****         /* Establish connection if no. */
 943:C:/Users/stapi/OneDrive/Desktop/GD32VW553/V1_MQTT_OK/GD32VW55X_Wifi_BLE_SDK/GD32VW55x_RELEASE_V1.0.2/MSDK/cloud/alicloud/src/infra/utils/misc\utils_httpc.c ****         ret = iotx_net_init(&client->net, host, port, ca_crt);
 3837              		.loc 1 943 9 is_stmt 1
 3838              		.loc 1 943 15 is_stmt 0
 3839 006c B246     		lw	a3,12(sp)
 3840 006e 0C08     		addi	a1,sp,16
 3841 0070 13854400 		addi	a0,s1,4
 3842 0074 33460408 		zext.h	a2,s0
 3843 0078 97000000 		call	iotx_net_init
 3843      E7800000 
 3844              	.LVL478:
 3845 0080 2A84     		mv	s0,a0
 3846              	.LVL479:
 944:C:/Users/stapi/OneDrive/Desktop/GD32VW553/V1_MQTT_OK/GD32VW55X_Wifi_BLE_SDK/GD32VW55x_RELEASE_V1.0.2/MSDK/cloud/alicloud/src/infra/utils/misc\utils_httpc.c ****         if (0 != ret) {
 3847              		.loc 1 944 9 is_stmt 1
 3848              		.loc 1 944 12 is_stmt 0
 3849 0082 21E5     		bne	a0,zero,.L219
 945:C:/Users/stapi/OneDrive/Desktop/GD32VW553/V1_MQTT_OK/GD32VW55X_Wifi_BLE_SDK/GD32VW55x_RELEASE_V1.0.2/MSDK/cloud/alicloud/src/infra/utils/misc\utils_httpc.c ****             return ret;
 946:C:/Users/stapi/OneDrive/Desktop/GD32VW553/V1_MQTT_OK/GD32VW55X_Wifi_BLE_SDK/GD32VW55x_RELEASE_V1.0.2/MSDK/cloud/alicloud/src/infra/utils/misc\utils_httpc.c ****         }
 947:C:/Users/stapi/OneDrive/Desktop/GD32VW553/V1_MQTT_OK/GD32VW55X_Wifi_BLE_SDK/GD32VW55x_RELEASE_V1.0.2/MSDK/cloud/alicloud/src/infra/utils/misc\utils_httpc.c **** 
 948:C:/Users/stapi/OneDrive/Desktop/GD32VW553/V1_MQTT_OK/GD32VW55X_Wifi_BLE_SDK/GD32VW55x_RELEASE_V1.0.2/MSDK/cloud/alicloud/src/infra/utils/misc\utils_httpc.c ****         ret = httpclient_connect(client);
 3850              		.loc 1 948 9 is_stmt 1
 3851              		.loc 1 948 15 is_stmt 0
 3852 0084 2685     		mv	a0,s1
 3853 0086 97000000 		call	httpclient_connect
 3853      E7800000 
 3854              	.LVL480:
 3855 008e 2A84     		mv	s0,a0
 3856              	.LVL481:
 949:C:/Users/stapi/OneDrive/Desktop/GD32VW553/V1_MQTT_OK/GD32VW55X_Wifi_BLE_SDK/GD32VW55x_RELEASE_V1.0.2/MSDK/cloud/alicloud/src/infra/utils/misc\utils_httpc.c ****         if (0 != ret) {
 3857              		.loc 1 949 9 is_stmt 1
 3858              		.loc 1 949 12 is_stmt 0
 3859 0090 39C1     		beq	a0,zero,.L220
 950:C:/Users/stapi/OneDrive/Desktop/GD32VW553/V1_MQTT_OK/GD32VW55X_Wifi_BLE_SDK/GD32VW55x_RELEASE_V1.0.2/MSDK/cloud/alicloud/src/infra/utils/misc\utils_httpc.c ****             utils_err("httpclient_connect is error, ret = %d", ret);
 3860              		.loc 1 950 13 is_stmt 1
 3861              		.loc 1 950 13
 3862 0092 37050000 		lui	a0,%hi(.LC2)
 3863 0096 13050500 		addi	a0,a0,%lo(.LC2)
 3864 009a 97000000 		call	HAL_Printf
 3864      E7800000 
 3865              	.LVL482:
 3866              		.loc 1 950 13
 3867 00a2 37050000 		lui	a0,%hi(.LC68)
 3868 00a6 13050500 		addi	a0,a0,%lo(.LC68)
 3869 00aa A285     		mv	a1,s0
 3870 00ac 97000000 		call	HAL_Printf
 3870      E7800000 
 3871              	.LVL483:
 3872              		.loc 1 950 13
 3873 00b4 13050A00 		addi	a0,s4,%lo(.LC4)
 3874              	.L229:
 951:C:/Users/stapi/OneDrive/Desktop/GD32VW553/V1_MQTT_OK/GD32VW55X_Wifi_BLE_SDK/GD32VW55x_RELEASE_V1.0.2/MSDK/cloud/alicloud/src/infra/utils/misc\utils_httpc.c ****             httpclient_close(client);
 952:C:/Users/stapi/OneDrive/Desktop/GD32VW553/V1_MQTT_OK/GD32VW55X_Wifi_BLE_SDK/GD32VW55x_RELEASE_V1.0.2/MSDK/cloud/alicloud/src/infra/utils/misc\utils_httpc.c ****             return ret;
 953:C:/Users/stapi/OneDrive/Desktop/GD32VW553/V1_MQTT_OK/GD32VW55X_Wifi_BLE_SDK/GD32VW55x_RELEASE_V1.0.2/MSDK/cloud/alicloud/src/infra/utils/misc\utils_httpc.c ****         }
 954:C:/Users/stapi/OneDrive/Desktop/GD32VW553/V1_MQTT_OK/GD32VW55X_Wifi_BLE_SDK/GD32VW55x_RELEASE_V1.0.2/MSDK/cloud/alicloud/src/infra/utils/misc\utils_httpc.c ****     }
 955:C:/Users/stapi/OneDrive/Desktop/GD32VW553/V1_MQTT_OK/GD32VW55X_Wifi_BLE_SDK/GD32VW55x_RELEASE_V1.0.2/MSDK/cloud/alicloud/src/infra/utils/misc\utils_httpc.c **** 
 956:C:/Users/stapi/OneDrive/Desktop/GD32VW553/V1_MQTT_OK/GD32VW55X_Wifi_BLE_SDK/GD32VW55x_RELEASE_V1.0.2/MSDK/cloud/alicloud/src/infra/utils/misc\utils_httpc.c ****     ret = httpclient_send_request(client, url, HTTPCLIENT_POST, client_data);
 957:C:/Users/stapi/OneDrive/Desktop/GD32VW553/V1_MQTT_OK/GD32VW55X_Wifi_BLE_SDK/GD32VW55x_RELEASE_V1.0.2/MSDK/cloud/alicloud/src/infra/utils/misc\utils_httpc.c ****     if (0 != ret) {
 958:C:/Users/stapi/OneDrive/Desktop/GD32VW553/V1_MQTT_OK/GD32VW55X_Wifi_BLE_SDK/GD32VW55x_RELEASE_V1.0.2/MSDK/cloud/alicloud/src/infra/utils/misc\utils_httpc.c ****         utils_err("httpclient_send_request is error, ret = %d", ret);
 3875              		.loc 1 958 9 is_stmt 0
 3876 00b8 97000000 		call	HAL_Printf
 3876      E7800000 
 3877              	.LVL484:
 3878              		.loc 1 958 9 is_stmt 1
 959:C:/Users/stapi/OneDrive/Desktop/GD32VW553/V1_MQTT_OK/GD32VW55X_Wifi_BLE_SDK/GD32VW55x_RELEASE_V1.0.2/MSDK/cloud/alicloud/src/infra/utils/misc\utils_httpc.c ****         httpclient_close(client);
 3879              		.loc 1 959 9
 3880 00c0 2685     		mv	a0,s1
 3881 00c2 97000000 		call	httpclient_close
 3881      E7800000 
 3882              	.LVL485:
 960:C:/Users/stapi/OneDrive/Desktop/GD32VW553/V1_MQTT_OK/GD32VW55X_Wifi_BLE_SDK/GD32VW55x_RELEASE_V1.0.2/MSDK/cloud/alicloud/src/infra/utils/misc\utils_httpc.c ****         return ret;
 3883              		.loc 1 960 9
 3884              	.L219:
 961:C:/Users/stapi/OneDrive/Desktop/GD32VW553/V1_MQTT_OK/GD32VW55X_Wifi_BLE_SDK/GD32VW55x_RELEASE_V1.0.2/MSDK/cloud/alicloud/src/infra/utils/misc\utils_httpc.c ****     }
 962:C:/Users/stapi/OneDrive/Desktop/GD32VW553/V1_MQTT_OK/GD32VW55X_Wifi_BLE_SDK/GD32VW55x_RELEASE_V1.0.2/MSDK/cloud/alicloud/src/infra/utils/misc\utils_httpc.c **** 
 963:C:/Users/stapi/OneDrive/Desktop/GD32VW553/V1_MQTT_OK/GD32VW55X_Wifi_BLE_SDK/GD32VW55x_RELEASE_V1.0.2/MSDK/cloud/alicloud/src/infra/utils/misc\utils_httpc.c ****     return ret;
 964:C:/Users/stapi/OneDrive/Desktop/GD32VW553/V1_MQTT_OK/GD32VW55X_Wifi_BLE_SDK/GD32VW55x_RELEASE_V1.0.2/MSDK/cloud/alicloud/src/infra/utils/misc\utils_httpc.c **** }
 3885              		.loc 1 964 1 is_stmt 0
 3886 00ca 2285     		mv	a0,s0
 3887 00cc 4961     		addi	sp,sp,144
 3888              		.cfi_remember_state
 3889              		.cfi_def_cfa_offset 0
 3890              	.LVL486:
 3891 00ce 17030000 		tail	__riscv_restore_6
 3891      67000300 
 3892              		.cfi_restore 21
 3893              		.cfi_restore 20
 3894              		.cfi_restore 19
 3895              		.cfi_restore 18
 3896              		.cfi_restore 9
 3897              		.cfi_restore 8
 3898              		.cfi_restore 1
 3899              		.cfi_def_cfa_offset -32
 3900              	.LVL487:
 3901              	.L220:
 3902              		.cfi_restore_state
 956:C:/Users/stapi/OneDrive/Desktop/GD32VW553/V1_MQTT_OK/GD32VW55X_Wifi_BLE_SDK/GD32VW55x_RELEASE_V1.0.2/MSDK/cloud/alicloud/src/infra/utils/misc\utils_httpc.c ****     if (0 != ret) {
 3903              		.loc 1 956 5 is_stmt 1
 956:C:/Users/stapi/OneDrive/Desktop/GD32VW553/V1_MQTT_OK/GD32VW55X_Wifi_BLE_SDK/GD32VW55x_RELEASE_V1.0.2/MSDK/cloud/alicloud/src/infra/utils/misc\utils_httpc.c ****     if (0 != ret) {
 3904              		.loc 1 956 11 is_stmt 0
 3905 00d6 CE86     		mv	a3,s3
 3906 00d8 0546     		li	a2,1
 3907 00da CA85     		mv	a1,s2
 3908 00dc 2685     		mv	a0,s1
 3909 00de 97000000 		call	httpclient_send_request
 3909      E7800000 
 3910              	.LVL488:
 3911 00e6 2A84     		mv	s0,a0
 3912              	.LVL489:
 957:C:/Users/stapi/OneDrive/Desktop/GD32VW553/V1_MQTT_OK/GD32VW55X_Wifi_BLE_SDK/GD32VW55x_RELEASE_V1.0.2/MSDK/cloud/alicloud/src/infra/utils/misc\utils_httpc.c ****         utils_err("httpclient_send_request is error, ret = %d", ret);
 3913              		.loc 1 957 5 is_stmt 1
 957:C:/Users/stapi/OneDrive/Desktop/GD32VW553/V1_MQTT_OK/GD32VW55X_Wifi_BLE_SDK/GD32VW55x_RELEASE_V1.0.2/MSDK/cloud/alicloud/src/infra/utils/misc\utils_httpc.c ****         utils_err("httpclient_send_request is error, ret = %d", ret);
 3914              		.loc 1 957 8 is_stmt 0
 3915 00e8 6DD1     		beq	a0,zero,.L219
 958:C:/Users/stapi/OneDrive/Desktop/GD32VW553/V1_MQTT_OK/GD32VW55X_Wifi_BLE_SDK/GD32VW55x_RELEASE_V1.0.2/MSDK/cloud/alicloud/src/infra/utils/misc\utils_httpc.c ****         httpclient_close(client);
 3916              		.loc 1 958 9 is_stmt 1
 958:C:/Users/stapi/OneDrive/Desktop/GD32VW553/V1_MQTT_OK/GD32VW55X_Wifi_BLE_SDK/GD32VW55x_RELEASE_V1.0.2/MSDK/cloud/alicloud/src/infra/utils/misc\utils_httpc.c ****         httpclient_close(client);
 3917              		.loc 1 958 9
 3918 00ea 37050000 		lui	a0,%hi(.LC2)
 3919 00ee 13050500 		addi	a0,a0,%lo(.LC2)
 3920 00f2 97000000 		call	HAL_Printf
 3920      E7800000 
 3921              	.LVL490:
 958:C:/Users/stapi/OneDrive/Desktop/GD32VW553/V1_MQTT_OK/GD32VW55X_Wifi_BLE_SDK/GD32VW55x_RELEASE_V1.0.2/MSDK/cloud/alicloud/src/infra/utils/misc\utils_httpc.c ****         httpclient_close(client);
 3922              		.loc 1 958 9
 3923 00fa 37050000 		lui	a0,%hi(.LC69)
 3924 00fe 13050500 		addi	a0,a0,%lo(.LC69)
 3925 0102 A285     		mv	a1,s0
 3926 0104 97000000 		call	HAL_Printf
 3926      E7800000 
 3927              	.LVL491:
 958:C:/Users/stapi/OneDrive/Desktop/GD32VW553/V1_MQTT_OK/GD32VW55X_Wifi_BLE_SDK/GD32VW55x_RELEASE_V1.0.2/MSDK/cloud/alicloud/src/infra/utils/misc\utils_httpc.c ****         httpclient_close(client);
 3928              		.loc 1 958 9
 3929 010c 13850A00 		addi	a0,s5,%lo(.LC4)
 3930 0110 65B7     		j	.L229
 3931              		.cfi_endproc
 3932              	.LFE37:
 3934              		.section	.rodata.__FUNCTION__.0,"a"
 3935              		.align	2
 3936              		.set	.LANCHOR7,. + 0
 3939              	__FUNCTION__.0:
 3940 0000 68747470 		.string	"httpclient_response_parse"
 3940      636C6965 
 3940      6E745F72 
 3940      6573706F 
 3940      6E73655F 
 3941              		.section	.rodata.__FUNCTION__.1,"a"
 3942              		.align	2
 3943              		.set	.LANCHOR0,. + 0
 3946              	__FUNCTION__.1:
 3947 0000 68747470 		.string	"httpclient_recv"
 3947      636C6965 
 3947      6E745F72 
 3947      65637600 
 3948              		.section	.rodata.__FUNCTION__.2,"a"
 3949              		.align	2
 3950              		.set	.LANCHOR1,. + 0
 3953              	__FUNCTION__.2:
 3954 0000 68747470 		.string	"httpclient_retrieve_content"
 3954      636C6965 
 3954      6E745F72 
 3954      65747269 
 3954      6576655F 
 3955              		.section	.rodata.__FUNCTION__.4,"a"
 3956              		.align	2
 3957              		.set	.LANCHOR5,. + 0
 3960              	__FUNCTION__.4:
 3961 0000 68747470 		.string	"httpclient_send_userdata"
 3961      636C6965 
 3961      6E745F73 
 3961      656E645F 
 3961      75736572 
 3962              		.section	.rodata.__FUNCTION__.5,"a"
 3963              		.align	2
 3964              		.set	.LANCHOR4,. + 0
 3967              	__FUNCTION__.5:
 3968 0000 68747470 		.string	"httpclient_send_header"
 3968      636C6965 
 3968      6E745F73 
 3968      656E645F 
 3968      68656164 
 3969              		.section	.rodata.__FUNCTION__.7,"a"
 3970              		.align	2
 3971              		.set	.LANCHOR2,. + 0
 3974              	__FUNCTION__.7:
 3975 0000 68747470 		.string	"httpclient_send_auth"
 3975      636C6965 
 3975      6E745F73 
 3975      656E645F 
 3975      61757468 
 3976              		.section	.rodata.__func__.3,"a"
 3977              		.align	2
 3978              		.set	.LANCHOR6,. + 0
 3981              	__func__.3:
 3982 0000 68747470 		.string	"httpclient_recv_response"
 3982      636C6965 
 3982      6E745F72 
 3982      6563765F 
 3982      72657370 
 3983              		.section	.rodata.__func__.6,"a"
 3984              		.align	2
 3985              		.set	.LANCHOR3,. + 0
 3988              	__func__.6:
 3989 0000 68747470 		.string	"httpclient_send_header"
 3989      636C6965 
 3989      6E745F73 
 3989      656E645F 
 3989      68656164 
 3990              		.text
 3991              	.Letext0:
 3992              		.file 2 "c:\\users\\stapi\\onedrive\\desktop\\gd32vw553\\embeddedbuilder_v1.4.7.26843\\tools\\nucl
 3993              		.file 3 "c:\\users\\stapi\\onedrive\\desktop\\gd32vw553\\embeddedbuilder_v1.4.7.26843\\tools\\nucl
 3994              		.file 4 "C:/Users/stapi/OneDrive/Desktop/GD32VW553/V1_MQTT_OK/GD32VW55X_Wifi_BLE_SDK/GD32VW55x_REL
 3995              		.file 5 "C:/Users/stapi/OneDrive/Desktop/GD32VW553/V1_MQTT_OK/GD32VW55X_Wifi_BLE_SDK/GD32VW55x_REL
 3996              		.file 6 "..\\..\\..\\..\\cloud\\alicloud\\include/iot_export.h"
 3997              		.file 7 "C:/Users/stapi/OneDrive/Desktop/GD32VW553/V1_MQTT_OK/GD32VW55X_Wifi_BLE_SDK/GD32VW55x_REL
 3998              		.file 8 "..\\..\\..\\..\\cloud\\alicloud\\include/iot_import.h"
 3999              		.file 9 "..\\..\\..\\..\\cloud\\alicloud\\src\\infra\\log/iotx_log.h"
 4000              		.file 10 "c:\\users\\stapi\\onedrive\\desktop\\gd32vw553\\embeddedbuilder_v1.4.7.26843\\tools\\nuc
 4001              		.file 11 "c:\\users\\stapi\\onedrive\\desktop\\gd32vw553\\embeddedbuilder_v1.4.7.26843\\tools\\nuc
 4002              		.file 12 "..\\..\\..\\..\\cloud\\alicloud\\src\\infra\\utils/iotx_utils.h"
 4003              		.file 13 "<built-in>"
 4004              		.file 14 "c:\\users\\stapi\\onedrive\\desktop\\gd32vw553\\embeddedbuilder_v1.4.7.26843\\tools\\nuc
 4005              		.file 15 "..\\..\\..\\..\\cloud\\alicloud\\include/exports/iot_export_errno.h"
DEFINED SYMBOLS
                            *ABS*:0000000000000000 utils_httpc.c
C:\Users\stapi\AppData\Local\Temp\cc4pWpLv.s:31     .text.httpclient_recv.constprop.0:0000000000000000 httpclient_recv.constprop.0
C:\Users\stapi\AppData\Local\Temp\cc4pWpLv.s:35     .text.httpclient_recv.constprop.0:0000000000000000 .L0 
C:\Users\stapi\AppData\Local\Temp\cc4pWpLv.s:37     .text.httpclient_recv.constprop.0:0000000000000000 .L0 
C:\Users\stapi\AppData\Local\Temp\cc4pWpLv.s:38     .text.httpclient_recv.constprop.0:0000000000000008 .L0 
C:\Users\stapi\AppData\Local\Temp\cc4pWpLv.s:39     .text.httpclient_recv.constprop.0:0000000000000008 .L0 
C:\Users\stapi\AppData\Local\Temp\cc4pWpLv.s:40     .text.httpclient_recv.constprop.0:0000000000000008 .L0 
C:\Users\stapi\AppData\Local\Temp\cc4pWpLv.s:41     .text.httpclient_recv.constprop.0:0000000000000008 .L0 
C:\Users\stapi\AppData\Local\Temp\cc4pWpLv.s:42     .text.httpclient_recv.constprop.0:0000000000000008 .L0 
C:\Users\stapi\AppData\Local\Temp\cc4pWpLv.s:43     .text.httpclient_recv.constprop.0:0000000000000008 .L0 
C:\Users\stapi\AppData\Local\Temp\cc4pWpLv.s:46     .text.httpclient_recv.constprop.0:0000000000000008 .L0 
C:\Users\stapi\AppData\Local\Temp\cc4pWpLv.s:47     .text.httpclient_recv.constprop.0:0000000000000008 .L0 
C:\Users\stapi\AppData\Local\Temp\cc4pWpLv.s:48     .text.httpclient_recv.constprop.0:0000000000000008 .L0 
C:\Users\stapi\AppData\Local\Temp\cc4pWpLv.s:49     .text.httpclient_recv.constprop.0:0000000000000008 .L0 
C:\Users\stapi\AppData\Local\Temp\cc4pWpLv.s:50     .text.httpclient_recv.constprop.0:000000000000000a .L0 
C:\Users\stapi\AppData\Local\Temp\cc4pWpLv.s:52     .text.httpclient_recv.constprop.0:000000000000000a .L0 
C:\Users\stapi\AppData\Local\Temp\cc4pWpLv.s:54     .text.httpclient_recv.constprop.0:000000000000000c .L0 
C:\Users\stapi\AppData\Local\Temp\cc4pWpLv.s:57     .text.httpclient_recv.constprop.0:000000000000000e .L0 
C:\Users\stapi\AppData\Local\Temp\cc4pWpLv.s:62     .text.httpclient_recv.constprop.0:0000000000000016 .L0 
C:\Users\stapi\AppData\Local\Temp\cc4pWpLv.s:65     .text.httpclient_recv.constprop.0:000000000000001e .L0 
C:\Users\stapi\AppData\Local\Temp\cc4pWpLv.s:70     .text.httpclient_recv.constprop.0:000000000000002a .L0 
C:\Users\stapi\AppData\Local\Temp\cc4pWpLv.s:71     .text.httpclient_recv.constprop.0:000000000000002a .L0 
C:\Users\stapi\AppData\Local\Temp\cc4pWpLv.s:73     .text.httpclient_recv.constprop.0:000000000000002c .L0 
C:\Users\stapi\AppData\Local\Temp\cc4pWpLv.s:75     .text.httpclient_recv.constprop.0:0000000000000030 .L0 
C:\Users\stapi\AppData\Local\Temp\cc4pWpLv.s:76     .text.httpclient_recv.constprop.0:0000000000000030 .L0 
C:\Users\stapi\AppData\Local\Temp\cc4pWpLv.s:78     .text.httpclient_recv.constprop.0:0000000000000034 .L0 
C:\Users\stapi\AppData\Local\Temp\cc4pWpLv.s:89     .text.httpclient_recv.constprop.0:000000000000004a .L0 
C:\Users\stapi\AppData\Local\Temp\cc4pWpLv.s:90     .text.httpclient_recv.constprop.0:000000000000004a .L0 
C:\Users\stapi\AppData\Local\Temp\cc4pWpLv.s:92     .text.httpclient_recv.constprop.0:000000000000004e .L0 
C:\Users\stapi\AppData\Local\Temp\cc4pWpLv.s:93     .text.httpclient_recv.constprop.0:000000000000004e .L0 
C:\Users\stapi\AppData\Local\Temp\cc4pWpLv.s:95     .text.httpclient_recv.constprop.0:0000000000000050 .L0 
C:\Users\stapi\AppData\Local\Temp\cc4pWpLv.s:107    .text.httpclient_recv.constprop.0:0000000000000076 .L0 
C:\Users\stapi\AppData\Local\Temp\cc4pWpLv.s:108    .text.httpclient_recv.constprop.0:0000000000000076 .L0 
C:\Users\stapi\AppData\Local\Temp\cc4pWpLv.s:112    .text.httpclient_recv.constprop.0:0000000000000078 .L0 
C:\Users\stapi\AppData\Local\Temp\cc4pWpLv.s:113    .text.httpclient_recv.constprop.0:000000000000007a .L0 
C:\Users\stapi\AppData\Local\Temp\cc4pWpLv.s:114    .text.httpclient_recv.constprop.0:000000000000007a .L0 
C:\Users\stapi\AppData\Local\Temp\cc4pWpLv.s:117    .text.httpclient_recv.constprop.0:0000000000000082 .L0 
C:\Users\stapi\AppData\Local\Temp\cc4pWpLv.s:118    .text.httpclient_recv.constprop.0:0000000000000082 .L0 
C:\Users\stapi\AppData\Local\Temp\cc4pWpLv.s:119    .text.httpclient_recv.constprop.0:0000000000000082 .L0 
C:\Users\stapi\AppData\Local\Temp\cc4pWpLv.s:120    .text.httpclient_recv.constprop.0:0000000000000082 .L0 
C:\Users\stapi\AppData\Local\Temp\cc4pWpLv.s:121    .text.httpclient_recv.constprop.0:0000000000000082 .L0 
C:\Users\stapi\AppData\Local\Temp\cc4pWpLv.s:122    .text.httpclient_recv.constprop.0:0000000000000082 .L0 
C:\Users\stapi\AppData\Local\Temp\cc4pWpLv.s:125    .text.httpclient_recv.constprop.0:0000000000000082 .L0 
C:\Users\stapi\AppData\Local\Temp\cc4pWpLv.s:127    .text.httpclient_recv.constprop.0:0000000000000082 .L0 
C:\Users\stapi\AppData\Local\Temp\cc4pWpLv.s:128    .text.httpclient_recv.constprop.0:0000000000000082 .L0 
C:\Users\stapi\AppData\Local\Temp\cc4pWpLv.s:131    .text.httpclient_recv.constprop.0:0000000000000084 .L0 
C:\Users\stapi\AppData\Local\Temp\cc4pWpLv.s:133    .text.httpclient_recv.constprop.0:0000000000000086 .L0 
C:\Users\stapi\AppData\Local\Temp\cc4pWpLv.s:134    .text.httpclient_recv.constprop.0:0000000000000086 .L0 
C:\Users\stapi\AppData\Local\Temp\cc4pWpLv.s:140    .text.httpclient_recv.constprop.0:0000000000000094 .L0 
C:\Users\stapi\AppData\Local\Temp\cc4pWpLv.s:141    .text.httpclient_recv.constprop.0:0000000000000094 .L0 
C:\Users\stapi\AppData\Local\Temp\cc4pWpLv.s:145    .text.httpclient_recv.constprop.0:00000000000000a0 .L0 
C:\Users\stapi\AppData\Local\Temp\cc4pWpLv.s:151    .text.httpclient_recv.constprop.0:00000000000000b0 .L0 
C:\Users\stapi\AppData\Local\Temp\cc4pWpLv.s:152    .text.httpclient_recv.constprop.0:00000000000000b0 .L0 
C:\Users\stapi\AppData\Local\Temp\cc4pWpLv.s:156    .text.httpclient_recv.constprop.0:00000000000000bc .L0 
C:\Users\stapi\AppData\Local\Temp\cc4pWpLv.s:157    .text.httpclient_recv.constprop.0:00000000000000bc .L0 
C:\Users\stapi\AppData\Local\Temp\cc4pWpLv.s:158    .text.httpclient_recv.constprop.0:00000000000000bc .L0 
C:\Users\stapi\AppData\Local\Temp\cc4pWpLv.s:163    .text.httpclient_recv.constprop.0:00000000000000c0 .L0 
C:\Users\stapi\AppData\Local\Temp\cc4pWpLv.s:167    .text.httpclient_recv.constprop.0:00000000000000c6 .L0 
C:\Users\stapi\AppData\Local\Temp\cc4pWpLv.s:168    .text.httpclient_recv.constprop.0:00000000000000c6 .L0 
C:\Users\stapi\AppData\Local\Temp\cc4pWpLv.s:171    .text.httpclient_recv.constprop.0:00000000000000ce .L0 
C:\Users\stapi\AppData\Local\Temp\cc4pWpLv.s:178    .text.httpclient_recv.constprop.0:00000000000000e4 .L0 
C:\Users\stapi\AppData\Local\Temp\cc4pWpLv.s:227    .text.httpclient_retrieve_content:0000000000000000 httpclient_retrieve_content
C:\Users\stapi\AppData\Local\Temp\cc4pWpLv.s:230    .text.httpclient_retrieve_content:0000000000000000 .L0 
C:\Users\stapi\AppData\Local\Temp\cc4pWpLv.s:232    .text.httpclient_retrieve_content:0000000000000000 .L0 
C:\Users\stapi\AppData\Local\Temp\cc4pWpLv.s:233    .text.httpclient_retrieve_content:0000000000000008 .L0 
C:\Users\stapi\AppData\Local\Temp\cc4pWpLv.s:234    .text.httpclient_retrieve_content:0000000000000008 .L0 
C:\Users\stapi\AppData\Local\Temp\cc4pWpLv.s:235    .text.httpclient_retrieve_content:0000000000000008 .L0 
C:\Users\stapi\AppData\Local\Temp\cc4pWpLv.s:236    .text.httpclient_retrieve_content:0000000000000008 .L0 
C:\Users\stapi\AppData\Local\Temp\cc4pWpLv.s:237    .text.httpclient_retrieve_content:0000000000000008 .L0 
C:\Users\stapi\AppData\Local\Temp\cc4pWpLv.s:238    .text.httpclient_retrieve_content:0000000000000008 .L0 
C:\Users\stapi\AppData\Local\Temp\cc4pWpLv.s:239    .text.httpclient_retrieve_content:0000000000000008 .L0 
C:\Users\stapi\AppData\Local\Temp\cc4pWpLv.s:240    .text.httpclient_retrieve_content:0000000000000008 .L0 
C:\Users\stapi\AppData\Local\Temp\cc4pWpLv.s:241    .text.httpclient_retrieve_content:0000000000000008 .L0 
C:\Users\stapi\AppData\Local\Temp\cc4pWpLv.s:242    .text.httpclient_retrieve_content:0000000000000008 .L0 
C:\Users\stapi\AppData\Local\Temp\cc4pWpLv.s:243    .text.httpclient_retrieve_content:0000000000000008 .L0 
C:\Users\stapi\AppData\Local\Temp\cc4pWpLv.s:244    .text.httpclient_retrieve_content:0000000000000008 .L0 
C:\Users\stapi\AppData\Local\Temp\cc4pWpLv.s:245    .text.httpclient_retrieve_content:0000000000000008 .L0 
C:\Users\stapi\AppData\Local\Temp\cc4pWpLv.s:246    .text.httpclient_retrieve_content:0000000000000008 .L0 
C:\Users\stapi\AppData\Local\Temp\cc4pWpLv.s:249    .text.httpclient_retrieve_content:0000000000000008 .L0 
C:\Users\stapi\AppData\Local\Temp\cc4pWpLv.s:250    .text.httpclient_retrieve_content:0000000000000008 .L0 
C:\Users\stapi\AppData\Local\Temp\cc4pWpLv.s:251    .text.httpclient_retrieve_content:0000000000000008 .L0 
C:\Users\stapi\AppData\Local\Temp\cc4pWpLv.s:252    .text.httpclient_retrieve_content:0000000000000008 .L0 
C:\Users\stapi\AppData\Local\Temp\cc4pWpLv.s:253    .text.httpclient_retrieve_content:0000000000000008 .L0 
C:\Users\stapi\AppData\Local\Temp\cc4pWpLv.s:254    .text.httpclient_retrieve_content:0000000000000008 .L0 
C:\Users\stapi\AppData\Local\Temp\cc4pWpLv.s:255    .text.httpclient_retrieve_content:000000000000000a .L0 
C:\Users\stapi\AppData\Local\Temp\cc4pWpLv.s:257    .text.httpclient_retrieve_content:000000000000000a .L0 
C:\Users\stapi\AppData\Local\Temp\cc4pWpLv.s:259    .text.httpclient_retrieve_content:000000000000000c .L0 
C:\Users\stapi\AppData\Local\Temp\cc4pWpLv.s:262    .text.httpclient_retrieve_content:000000000000000e .L0 
C:\Users\stapi\AppData\Local\Temp\cc4pWpLv.s:267    .text.httpclient_retrieve_content:0000000000000016 .L0 
C:\Users\stapi\AppData\Local\Temp\cc4pWpLv.s:270    .text.httpclient_retrieve_content:000000000000001e .L0 
C:\Users\stapi\AppData\Local\Temp\cc4pWpLv.s:273    .text.httpclient_retrieve_content:0000000000000022 .L0 
C:\Users\stapi\AppData\Local\Temp\cc4pWpLv.s:275    .text.httpclient_retrieve_content:0000000000000026 .L0 
C:\Users\stapi\AppData\Local\Temp\cc4pWpLv.s:278    .text.httpclient_retrieve_content:000000000000002e .L0 
C:\Users\stapi\AppData\Local\Temp\cc4pWpLv.s:289    .text.httpclient_retrieve_content:0000000000000052 .L0 
C:\Users\stapi\AppData\Local\Temp\cc4pWpLv.s:290    .text.httpclient_retrieve_content:0000000000000052 .L0 
C:\Users\stapi\AppData\Local\Temp\cc4pWpLv.s:292    .text.httpclient_retrieve_content:0000000000000056 .L0 
C:\Users\stapi\AppData\Local\Temp\cc4pWpLv.s:295    .text.httpclient_retrieve_content:000000000000005c .L0 
C:\Users\stapi\AppData\Local\Temp\cc4pWpLv.s:296    .text.httpclient_retrieve_content:000000000000005c .L0 
C:\Users\stapi\AppData\Local\Temp\cc4pWpLv.s:300    .text.httpclient_retrieve_content:0000000000000064 .L0 
C:\Users\stapi\AppData\Local\Temp\cc4pWpLv.s:302    .text.httpclient_retrieve_content:0000000000000068 .L0 
C:\Users\stapi\AppData\Local\Temp\cc4pWpLv.s:305    .text.httpclient_retrieve_content:000000000000006c .L0 
C:\Users\stapi\AppData\Local\Temp\cc4pWpLv.s:307    .text.httpclient_retrieve_content:0000000000000070 .L0 
C:\Users\stapi\AppData\Local\Temp\cc4pWpLv.s:309    .text.httpclient_retrieve_content:0000000000000074 .L0 
C:\Users\stapi\AppData\Local\Temp\cc4pWpLv.s:315    .text.httpclient_retrieve_content:0000000000000076 .L0 
C:\Users\stapi\AppData\Local\Temp\cc4pWpLv.s:316    .text.httpclient_retrieve_content:0000000000000076 .L0 
C:\Users\stapi\AppData\Local\Temp\cc4pWpLv.s:317    .text.httpclient_retrieve_content:0000000000000076 .L0 
C:\Users\stapi\AppData\Local\Temp\cc4pWpLv.s:318    .text.httpclient_retrieve_content:0000000000000076 .L0 
C:\Users\stapi\AppData\Local\Temp\cc4pWpLv.s:320    .text.httpclient_retrieve_content:0000000000000078 .L0 
C:\Users\stapi\AppData\Local\Temp\cc4pWpLv.s:322    .text.httpclient_retrieve_content:000000000000007c .L0 
C:\Users\stapi\AppData\Local\Temp\cc4pWpLv.s:324    .text.httpclient_retrieve_content:0000000000000080 .L0 
C:\Users\stapi\AppData\Local\Temp\cc4pWpLv.s:326    .text.httpclient_retrieve_content:0000000000000084 .L0 
C:\Users\stapi\AppData\Local\Temp\cc4pWpLv.s:328    .text.httpclient_retrieve_content:0000000000000086 .L0 
C:\Users\stapi\AppData\Local\Temp\cc4pWpLv.s:330    .text.httpclient_retrieve_content:0000000000000088 .L0 
C:\Users\stapi\AppData\Local\Temp\cc4pWpLv.s:332    .text.httpclient_retrieve_content:000000000000008c .L0 
C:\Users\stapi\AppData\Local\Temp\cc4pWpLv.s:336    .text.httpclient_retrieve_content:0000000000000096 .L0 
C:\Users\stapi\AppData\Local\Temp\cc4pWpLv.s:337    .text.httpclient_retrieve_content:0000000000000096 .L0 
C:\Users\stapi\AppData\Local\Temp\cc4pWpLv.s:339    .text.httpclient_retrieve_content:0000000000000098 .L0 
C:\Users\stapi\AppData\Local\Temp\cc4pWpLv.s:341    .text.httpclient_retrieve_content:000000000000009a .L0 
C:\Users\stapi\AppData\Local\Temp\cc4pWpLv.s:344    .text.httpclient_retrieve_content:000000000000009c .L0 
C:\Users\stapi\AppData\Local\Temp\cc4pWpLv.s:345    .text.httpclient_retrieve_content:000000000000009c .L0 
C:\Users\stapi\AppData\Local\Temp\cc4pWpLv.s:349    .text.httpclient_retrieve_content:00000000000000a6 .L0 
C:\Users\stapi\AppData\Local\Temp\cc4pWpLv.s:350    .text.httpclient_retrieve_content:00000000000000a6 .L0 
C:\Users\stapi\AppData\Local\Temp\cc4pWpLv.s:354    .text.httpclient_retrieve_content:00000000000000ae .L0 
C:\Users\stapi\AppData\Local\Temp\cc4pWpLv.s:357    .text.httpclient_retrieve_content:00000000000000b2 .L0 
C:\Users\stapi\AppData\Local\Temp\cc4pWpLv.s:358    .text.httpclient_retrieve_content:00000000000000b2 .L0 
C:\Users\stapi\AppData\Local\Temp\cc4pWpLv.s:360    .text.httpclient_retrieve_content:00000000000000b4 .L0 
C:\Users\stapi\AppData\Local\Temp\cc4pWpLv.s:370    .text.httpclient_retrieve_content:00000000000000ce .L0 
C:\Users\stapi\AppData\Local\Temp\cc4pWpLv.s:372    .text.httpclient_retrieve_content:00000000000000d0 .L0 
C:\Users\stapi\AppData\Local\Temp\cc4pWpLv.s:375    .text.httpclient_retrieve_content:00000000000000d2 .L0 
C:\Users\stapi\AppData\Local\Temp\cc4pWpLv.s:385    .text.httpclient_retrieve_content:00000000000000ee .L0 
C:\Users\stapi\AppData\Local\Temp\cc4pWpLv.s:386    .text.httpclient_retrieve_content:00000000000000ee .L0 
C:\Users\stapi\AppData\Local\Temp\cc4pWpLv.s:388    .text.httpclient_retrieve_content:00000000000000f2 .L0 
C:\Users\stapi\AppData\Local\Temp\cc4pWpLv.s:389    .text.httpclient_retrieve_content:00000000000000f2 .L0 
C:\Users\stapi\AppData\Local\Temp\cc4pWpLv.s:394    .text.httpclient_retrieve_content:0000000000000102 .L0 
C:\Users\stapi\AppData\Local\Temp\cc4pWpLv.s:402    .text.httpclient_retrieve_content:000000000000010a .L0 
C:\Users\stapi\AppData\Local\Temp\cc4pWpLv.s:405    .text.httpclient_retrieve_content:0000000000000112 .L0 
C:\Users\stapi\AppData\Local\Temp\cc4pWpLv.s:410    .text.httpclient_retrieve_content:0000000000000122 .L0 
C:\Users\stapi\AppData\Local\Temp\cc4pWpLv.s:411    .text.httpclient_retrieve_content:0000000000000122 .L0 
C:\Users\stapi\AppData\Local\Temp\cc4pWpLv.s:412    .text.httpclient_retrieve_content:0000000000000122 .L0 
C:\Users\stapi\AppData\Local\Temp\cc4pWpLv.s:419    .text.httpclient_retrieve_content:0000000000000124 .L0 
C:\Users\stapi\AppData\Local\Temp\cc4pWpLv.s:424    .text.httpclient_retrieve_content:0000000000000132 .L0 
C:\Users\stapi\AppData\Local\Temp\cc4pWpLv.s:425    .text.httpclient_retrieve_content:0000000000000132 .L0 
C:\Users\stapi\AppData\Local\Temp\cc4pWpLv.s:434    .text.httpclient_retrieve_content:0000000000000140 .L0 
C:\Users\stapi\AppData\Local\Temp\cc4pWpLv.s:435    .text.httpclient_retrieve_content:0000000000000140 .L0 
C:\Users\stapi\AppData\Local\Temp\cc4pWpLv.s:436    .text.httpclient_retrieve_content:0000000000000140 .L0 
C:\Users\stapi\AppData\Local\Temp\cc4pWpLv.s:443    .text.httpclient_retrieve_content:0000000000000144 .L0 
C:\Users\stapi\AppData\Local\Temp\cc4pWpLv.s:444    .text.httpclient_retrieve_content:0000000000000144 .L0 
C:\Users\stapi\AppData\Local\Temp\cc4pWpLv.s:447    .text.httpclient_retrieve_content:0000000000000146 .L0 
C:\Users\stapi\AppData\Local\Temp\cc4pWpLv.s:449    .text.httpclient_retrieve_content:000000000000014a .L0 
C:\Users\stapi\AppData\Local\Temp\cc4pWpLv.s:461    .text.httpclient_retrieve_content:0000000000000168 .L0 
C:\Users\stapi\AppData\Local\Temp\cc4pWpLv.s:462    .text.httpclient_retrieve_content:0000000000000168 .L0 
C:\Users\stapi\AppData\Local\Temp\cc4pWpLv.s:463    .text.httpclient_retrieve_content:0000000000000168 .L0 
C:\Users\stapi\AppData\Local\Temp\cc4pWpLv.s:464    .text.httpclient_retrieve_content:0000000000000168 .L0 
C:\Users\stapi\AppData\Local\Temp\cc4pWpLv.s:467    .text.httpclient_retrieve_content:000000000000016c .L0 
C:\Users\stapi\AppData\Local\Temp\cc4pWpLv.s:468    .text.httpclient_retrieve_content:000000000000016c .L0 
C:\Users\stapi\AppData\Local\Temp\cc4pWpLv.s:469    .text.httpclient_retrieve_content:000000000000016c .L0 
C:\Users\stapi\AppData\Local\Temp\cc4pWpLv.s:475    .text.httpclient_retrieve_content:000000000000016e .L0 
C:\Users\stapi\AppData\Local\Temp\cc4pWpLv.s:482    .text.httpclient_retrieve_content:0000000000000170 .L0 
C:\Users\stapi\AppData\Local\Temp\cc4pWpLv.s:483    .text.httpclient_retrieve_content:0000000000000170 .L0 
C:\Users\stapi\AppData\Local\Temp\cc4pWpLv.s:484    .text.httpclient_retrieve_content:0000000000000170 .L0 
C:\Users\stapi\AppData\Local\Temp\cc4pWpLv.s:485    .text.httpclient_retrieve_content:0000000000000170 .L0 
C:\Users\stapi\AppData\Local\Temp\cc4pWpLv.s:487    .text.httpclient_retrieve_content:0000000000000174 .L0 
C:\Users\stapi\AppData\Local\Temp\cc4pWpLv.s:489    .text.httpclient_retrieve_content:0000000000000178 .L0 
C:\Users\stapi\AppData\Local\Temp\cc4pWpLv.s:491    .text.httpclient_retrieve_content:000000000000017c .L0 
C:\Users\stapi\AppData\Local\Temp\cc4pWpLv.s:494    .text.httpclient_retrieve_content:0000000000000180 .L0 
C:\Users\stapi\AppData\Local\Temp\cc4pWpLv.s:496    .text.httpclient_retrieve_content:0000000000000182 .L0 
C:\Users\stapi\AppData\Local\Temp\cc4pWpLv.s:498    .text.httpclient_retrieve_content:0000000000000184 .L0 
C:\Users\stapi\AppData\Local\Temp\cc4pWpLv.s:501    .text.httpclient_retrieve_content:0000000000000188 .L0 
C:\Users\stapi\AppData\Local\Temp\cc4pWpLv.s:505    .text.httpclient_retrieve_content:000000000000018a .L0 
C:\Users\stapi\AppData\Local\Temp\cc4pWpLv.s:506    .text.httpclient_retrieve_content:000000000000018a .L0 
C:\Users\stapi\AppData\Local\Temp\cc4pWpLv.s:507    .text.httpclient_retrieve_content:000000000000018a .L0 
C:\Users\stapi\AppData\Local\Temp\cc4pWpLv.s:509    .text.httpclient_retrieve_content:000000000000018a .L0 
C:\Users\stapi\AppData\Local\Temp\cc4pWpLv.s:510    .text.httpclient_retrieve_content:000000000000018a .L0 
C:\Users\stapi\AppData\Local\Temp\cc4pWpLv.s:511    .text.httpclient_retrieve_content:000000000000018a .L0 
C:\Users\stapi\AppData\Local\Temp\cc4pWpLv.s:512    .text.httpclient_retrieve_content:000000000000018a .L0 
C:\Users\stapi\AppData\Local\Temp\cc4pWpLv.s:515    .text.httpclient_retrieve_content:0000000000000190 .L0 
C:\Users\stapi\AppData\Local\Temp\cc4pWpLv.s:517    .text.httpclient_retrieve_content:0000000000000194 .L0 
C:\Users\stapi\AppData\Local\Temp\cc4pWpLv.s:518    .text.httpclient_retrieve_content:0000000000000194 .L0 
C:\Users\stapi\AppData\Local\Temp\cc4pWpLv.s:521    .text.httpclient_retrieve_content:000000000000019a .L0 
C:\Users\stapi\AppData\Local\Temp\cc4pWpLv.s:523    .text.httpclient_retrieve_content:000000000000019c .L0 
C:\Users\stapi\AppData\Local\Temp\cc4pWpLv.s:527    .text.httpclient_retrieve_content:00000000000001a0 .L0 
C:\Users\stapi\AppData\Local\Temp\cc4pWpLv.s:528    .text.httpclient_retrieve_content:00000000000001a0 .L0 
C:\Users\stapi\AppData\Local\Temp\cc4pWpLv.s:531    .text.httpclient_retrieve_content:00000000000001a4 .L0 
C:\Users\stapi\AppData\Local\Temp\cc4pWpLv.s:532    .text.httpclient_retrieve_content:00000000000001a4 .L0 
C:\Users\stapi\AppData\Local\Temp\cc4pWpLv.s:533    .text.httpclient_retrieve_content:00000000000001a4 .L0 
C:\Users\stapi\AppData\Local\Temp\cc4pWpLv.s:535    .text.httpclient_retrieve_content:00000000000001a8 .L0 
C:\Users\stapi\AppData\Local\Temp\cc4pWpLv.s:540    .text.httpclient_retrieve_content:00000000000001ac .L0 
C:\Users\stapi\AppData\Local\Temp\cc4pWpLv.s:541    .text.httpclient_retrieve_content:00000000000001ac .L0 
C:\Users\stapi\AppData\Local\Temp\cc4pWpLv.s:544    .text.httpclient_retrieve_content:00000000000001b4 .L0 
C:\Users\stapi\AppData\Local\Temp\cc4pWpLv.s:549    .text.httpclient_retrieve_content:00000000000001bc .L0 
C:\Users\stapi\AppData\Local\Temp\cc4pWpLv.s:550    .text.httpclient_retrieve_content:00000000000001bc .L0 
C:\Users\stapi\AppData\Local\Temp\cc4pWpLv.s:558    .text.httpclient_retrieve_content:00000000000001c2 .L0 
C:\Users\stapi\AppData\Local\Temp\cc4pWpLv.s:561    .text.httpclient_retrieve_content:00000000000001c6 .L0 
C:\Users\stapi\AppData\Local\Temp\cc4pWpLv.s:562    .text.httpclient_retrieve_content:00000000000001c6 .L0 
C:\Users\stapi\AppData\Local\Temp\cc4pWpLv.s:563    .text.httpclient_retrieve_content:00000000000001c6 .L0 
C:\Users\stapi\AppData\Local\Temp\cc4pWpLv.s:573    .text.httpclient_retrieve_content:00000000000001e2 .L0 
C:\Users\stapi\AppData\Local\Temp\cc4pWpLv.s:576    .text.httpclient_retrieve_content:00000000000001e6 .L0 
C:\Users\stapi\AppData\Local\Temp\cc4pWpLv.s:579    .text.httpclient_retrieve_content:00000000000001e8 .L0 
C:\Users\stapi\AppData\Local\Temp\cc4pWpLv.s:580    .text.httpclient_retrieve_content:00000000000001e8 .L0 
C:\Users\stapi\AppData\Local\Temp\cc4pWpLv.s:582    .text.httpclient_retrieve_content:00000000000001ea .L0 
C:\Users\stapi\AppData\Local\Temp\cc4pWpLv.s:585    .text.httpclient_retrieve_content:00000000000001ee .L0 
C:\Users\stapi\AppData\Local\Temp\cc4pWpLv.s:586    .text.httpclient_retrieve_content:00000000000001ee .L0 
C:\Users\stapi\AppData\Local\Temp\cc4pWpLv.s:593    .text.httpclient_retrieve_content:00000000000001f2 .L0 
C:\Users\stapi\AppData\Local\Temp\cc4pWpLv.s:595    .text.httpclient_retrieve_content:00000000000001f6 .L0 
C:\Users\stapi\AppData\Local\Temp\cc4pWpLv.s:596    .text.httpclient_retrieve_content:00000000000001f6 .L0 
C:\Users\stapi\AppData\Local\Temp\cc4pWpLv.s:598    .text.httpclient_retrieve_content:00000000000001fe .L0 
C:\Users\stapi\AppData\Local\Temp\cc4pWpLv.s:599    .text.httpclient_retrieve_content:00000000000001fe .L0 
C:\Users\stapi\AppData\Local\Temp\cc4pWpLv.s:600    .text.httpclient_retrieve_content:00000000000001fe .L0 
C:\Users\stapi\AppData\Local\Temp\cc4pWpLv.s:601    .text.httpclient_retrieve_content:00000000000001fe .L0 
C:\Users\stapi\AppData\Local\Temp\cc4pWpLv.s:602    .text.httpclient_retrieve_content:00000000000001fe .L0 
C:\Users\stapi\AppData\Local\Temp\cc4pWpLv.s:603    .text.httpclient_retrieve_content:00000000000001fe .L0 
C:\Users\stapi\AppData\Local\Temp\cc4pWpLv.s:604    .text.httpclient_retrieve_content:00000000000001fe .L0 
C:\Users\stapi\AppData\Local\Temp\cc4pWpLv.s:605    .text.httpclient_retrieve_content:00000000000001fe .L0 
C:\Users\stapi\AppData\Local\Temp\cc4pWpLv.s:606    .text.httpclient_retrieve_content:00000000000001fe .L0 
C:\Users\stapi\AppData\Local\Temp\cc4pWpLv.s:607    .text.httpclient_retrieve_content:00000000000001fe .L0 
C:\Users\stapi\AppData\Local\Temp\cc4pWpLv.s:608    .text.httpclient_retrieve_content:00000000000001fe .L0 
C:\Users\stapi\AppData\Local\Temp\cc4pWpLv.s:609    .text.httpclient_retrieve_content:00000000000001fe .L0 
C:\Users\stapi\AppData\Local\Temp\cc4pWpLv.s:610    .text.httpclient_retrieve_content:00000000000001fe .L0 
C:\Users\stapi\AppData\Local\Temp\cc4pWpLv.s:611    .text.httpclient_retrieve_content:00000000000001fe .L0 
C:\Users\stapi\AppData\Local\Temp\cc4pWpLv.s:614    .text.httpclient_retrieve_content:00000000000001fe .L0 
C:\Users\stapi\AppData\Local\Temp\cc4pWpLv.s:618    .text.httpclient_retrieve_content:00000000000001fe .L0 
C:\Users\stapi\AppData\Local\Temp\cc4pWpLv.s:625    .text.httpclient_retrieve_content:0000000000000204 .L0 
C:\Users\stapi\AppData\Local\Temp\cc4pWpLv.s:631    .text.httpclient_retrieve_content:0000000000000212 .L0 
C:\Users\stapi\AppData\Local\Temp\cc4pWpLv.s:632    .text.httpclient_retrieve_content:0000000000000212 .L0 
C:\Users\stapi\AppData\Local\Temp\cc4pWpLv.s:635    .text.httpclient_retrieve_content:000000000000021a .L0 
C:\Users\stapi\AppData\Local\Temp\cc4pWpLv.s:637    .text.httpclient_retrieve_content:000000000000021c .L0 
C:\Users\stapi\AppData\Local\Temp\cc4pWpLv.s:640    .text.httpclient_retrieve_content:0000000000000222 .L0 
C:\Users\stapi\AppData\Local\Temp\cc4pWpLv.s:641    .text.httpclient_retrieve_content:0000000000000222 .L0 
C:\Users\stapi\AppData\Local\Temp\cc4pWpLv.s:644    .text.httpclient_retrieve_content:0000000000000228 .L0 
C:\Users\stapi\AppData\Local\Temp\cc4pWpLv.s:646    .text.httpclient_retrieve_content:000000000000022a .L0 
C:\Users\stapi\AppData\Local\Temp\cc4pWpLv.s:653    .text.httpclient_retrieve_content:0000000000000238 .L0 
C:\Users\stapi\AppData\Local\Temp\cc4pWpLv.s:654    .text.httpclient_retrieve_content:0000000000000238 .L0 
C:\Users\stapi\AppData\Local\Temp\cc4pWpLv.s:657    .text.httpclient_retrieve_content:000000000000023c .L0 
C:\Users\stapi\AppData\Local\Temp\cc4pWpLv.s:658    .text.httpclient_retrieve_content:000000000000023c .L0 
C:\Users\stapi\AppData\Local\Temp\cc4pWpLv.s:661    .text.httpclient_retrieve_content:0000000000000240 .L0 
C:\Users\stapi\AppData\Local\Temp\cc4pWpLv.s:663    .text.httpclient_retrieve_content:0000000000000240 .L0 
C:\Users\stapi\AppData\Local\Temp\cc4pWpLv.s:664    .text.httpclient_retrieve_content:0000000000000240 .L0 
C:\Users\stapi\AppData\Local\Temp\cc4pWpLv.s:665    .text.httpclient_retrieve_content:0000000000000240 .L0 
C:\Users\stapi\AppData\Local\Temp\cc4pWpLv.s:668    .text.httpclient_retrieve_content:0000000000000244 .L0 
C:\Users\stapi\AppData\Local\Temp\cc4pWpLv.s:670    .text.httpclient_retrieve_content:0000000000000248 .L0 
C:\Users\stapi\AppData\Local\Temp\cc4pWpLv.s:672    .text.httpclient_retrieve_content:000000000000024a .L0 
C:\Users\stapi\AppData\Local\Temp\cc4pWpLv.s:675    .text.httpclient_retrieve_content:0000000000000250 .L0 
C:\Users\stapi\AppData\Local\Temp\cc4pWpLv.s:677    .text.httpclient_retrieve_content:0000000000000254 .L0 
C:\Users\stapi\AppData\Local\Temp\cc4pWpLv.s:680    .text.httpclient_retrieve_content:000000000000025c .L0 
C:\Users\stapi\AppData\Local\Temp\cc4pWpLv.s:682    .text.httpclient_retrieve_content:0000000000000260 .L0 
C:\Users\stapi\AppData\Local\Temp\cc4pWpLv.s:685    .text.httpclient_retrieve_content:0000000000000264 .L0 
C:\Users\stapi\AppData\Local\Temp\cc4pWpLv.s:686    .text.httpclient_retrieve_content:0000000000000264 .L0 
C:\Users\stapi\AppData\Local\Temp\cc4pWpLv.s:689    .text.httpclient_retrieve_content:0000000000000268 .L0 
C:\Users\stapi\AppData\Local\Temp\cc4pWpLv.s:690    .text.httpclient_retrieve_content:0000000000000268 .L0 
C:\Users\stapi\AppData\Local\Temp\cc4pWpLv.s:695    .text.httpclient_retrieve_content:0000000000000276 .L0 
C:\Users\stapi\AppData\Local\Temp\cc4pWpLv.s:698    .text.httpclient_retrieve_content:0000000000000278 .L0 
C:\Users\stapi\AppData\Local\Temp\cc4pWpLv.s:699    .text.httpclient_retrieve_content:0000000000000278 .L0 
C:\Users\stapi\AppData\Local\Temp\cc4pWpLv.s:700    .text.httpclient_retrieve_content:0000000000000278 .L0 
C:\Users\stapi\AppData\Local\Temp\cc4pWpLv.s:703    .text.httpclient_retrieve_content:0000000000000280 .L0 
C:\Users\stapi\AppData\Local\Temp\cc4pWpLv.s:706    .text.httpclient_retrieve_content:0000000000000286 .L0 
C:\Users\stapi\AppData\Local\Temp\cc4pWpLv.s:717    .text.httpclient_retrieve_content:00000000000002a6 .L0 
C:\Users\stapi\AppData\Local\Temp\cc4pWpLv.s:718    .text.httpclient_retrieve_content:00000000000002a6 .L0 
C:\Users\stapi\AppData\Local\Temp\cc4pWpLv.s:729    .text.httpclient_retrieve_content:00000000000002c2 .L0 
C:\Users\stapi\AppData\Local\Temp\cc4pWpLv.s:731    .text.httpclient_retrieve_content:00000000000002c4 .L0 
C:\Users\stapi\AppData\Local\Temp\cc4pWpLv.s:734    .text.httpclient_retrieve_content:00000000000002c6 .L0 
C:\Users\stapi\AppData\Local\Temp\cc4pWpLv.s:735    .text.httpclient_retrieve_content:00000000000002c6 .L0 
C:\Users\stapi\AppData\Local\Temp\cc4pWpLv.s:737    .text.httpclient_retrieve_content:00000000000002ca .L0 
C:\Users\stapi\AppData\Local\Temp\cc4pWpLv.s:738    .text.httpclient_retrieve_content:00000000000002ca .L0 
C:\Users\stapi\AppData\Local\Temp\cc4pWpLv.s:740    .text.httpclient_retrieve_content:00000000000002cc .L0 
C:\Users\stapi\AppData\Local\Temp\cc4pWpLv.s:743    .text.httpclient_retrieve_content:00000000000002ce .L0 
C:\Users\stapi\AppData\Local\Temp\cc4pWpLv.s:745    .text.httpclient_retrieve_content:00000000000002d0 .L0 
C:\Users\stapi\AppData\Local\Temp\cc4pWpLv.s:749    .text.httpclient_retrieve_content:00000000000002da .L0 
C:\Users\stapi\AppData\Local\Temp\cc4pWpLv.s:751    .text.httpclient_retrieve_content:00000000000002dc .L0 
C:\Users\stapi\AppData\Local\Temp\cc4pWpLv.s:754    .text.httpclient_retrieve_content:00000000000002e2 .L0 
C:\Users\stapi\AppData\Local\Temp\cc4pWpLv.s:755    .text.httpclient_retrieve_content:00000000000002e2 .L0 
C:\Users\stapi\AppData\Local\Temp\cc4pWpLv.s:758    .text.httpclient_retrieve_content:00000000000002e6 .L0 
C:\Users\stapi\AppData\Local\Temp\cc4pWpLv.s:759    .text.httpclient_retrieve_content:00000000000002e6 .L0 
C:\Users\stapi\AppData\Local\Temp\cc4pWpLv.s:762    .text.httpclient_retrieve_content:00000000000002ee .L0 
C:\Users\stapi\AppData\Local\Temp\cc4pWpLv.s:763    .text.httpclient_retrieve_content:00000000000002ee .L0 
C:\Users\stapi\AppData\Local\Temp\cc4pWpLv.s:769    .text.httpclient_retrieve_content:00000000000002fe .L0 
C:\Users\stapi\AppData\Local\Temp\cc4pWpLv.s:775    .text.httpclient_retrieve_content:0000000000000308 .L0 
C:\Users\stapi\AppData\Local\Temp\cc4pWpLv.s:779    .text.httpclient_retrieve_content:000000000000030a .L0 
C:\Users\stapi\AppData\Local\Temp\cc4pWpLv.s:780    .text.httpclient_retrieve_content:000000000000030a .L0 
C:\Users\stapi\AppData\Local\Temp\cc4pWpLv.s:783    .text.httpclient_retrieve_content:0000000000000310 .L0 
C:\Users\stapi\AppData\Local\Temp\cc4pWpLv.s:785    .text.httpclient_retrieve_content:0000000000000314 .L0 
C:\Users\stapi\AppData\Local\Temp\cc4pWpLv.s:788    .text.httpclient_retrieve_content:000000000000031a .L0 
C:\Users\stapi\AppData\Local\Temp\cc4pWpLv.s:789    .text.httpclient_retrieve_content:000000000000031a .L0 
C:\Users\stapi\AppData\Local\Temp\cc4pWpLv.s:795    .text.httpclient_retrieve_content:000000000000032a .L0 
C:\Users\stapi\AppData\Local\Temp\cc4pWpLv.s:800    .text.httpclient_retrieve_content:000000000000033a .L0 
C:\Users\stapi\AppData\Local\Temp\cc4pWpLv.s:805    .text.httpclient_retrieve_content:000000000000034a .L0 
C:\Users\stapi\AppData\Local\Temp\cc4pWpLv.s:806    .text.httpclient_retrieve_content:000000000000034a .L0 
C:\Users\stapi\AppData\Local\Temp\cc4pWpLv.s:807    .text.httpclient_retrieve_content:000000000000034a .L0 
C:\Users\stapi\AppData\Local\Temp\cc4pWpLv.s:814    .text.httpclient_retrieve_content:000000000000034e .L0 
C:\Users\stapi\AppData\Local\Temp\cc4pWpLv.s:815    .text.httpclient_retrieve_content:000000000000034e .L0 
C:\Users\stapi\AppData\Local\Temp\cc4pWpLv.s:817    .text.httpclient_retrieve_content:0000000000000350 .L0 
C:\Users\stapi\AppData\Local\Temp\cc4pWpLv.s:821    .text.httpclient_retrieve_content:0000000000000356 .L0 
C:\Users\stapi\AppData\Local\Temp\cc4pWpLv.s:822    .text.httpclient_retrieve_content:0000000000000356 .L0 
C:\Users\stapi\AppData\Local\Temp\cc4pWpLv.s:823    .text.httpclient_retrieve_content:0000000000000356 .L0 
C:\Users\stapi\AppData\Local\Temp\cc4pWpLv.s:837    .text.httpclient_retrieve_content:000000000000037c .L0 
C:\Users\stapi\AppData\Local\Temp\cc4pWpLv.s:839    .text.httpclient_retrieve_content:000000000000037e .L0 
C:\Users\stapi\AppData\Local\Temp\cc4pWpLv.s:842    .text.httpclient_retrieve_content:0000000000000380 .L0 
C:\Users\stapi\AppData\Local\Temp\cc4pWpLv.s:843    .text.httpclient_retrieve_content:0000000000000380 .L0 
C:\Users\stapi\AppData\Local\Temp\cc4pWpLv.s:845    .text.httpclient_retrieve_content:0000000000000384 .L0 
C:\Users\stapi\AppData\Local\Temp\cc4pWpLv.s:846    .text.httpclient_retrieve_content:0000000000000384 .L0 
C:\Users\stapi\AppData\Local\Temp\cc4pWpLv.s:854    .text.httpclient_retrieve_content:000000000000038c .L0 
C:\Users\stapi\AppData\Local\Temp\cc4pWpLv.s:855    .text.httpclient_retrieve_content:000000000000038c .L0 
C:\Users\stapi\AppData\Local\Temp\cc4pWpLv.s:858    .text.httpclient_retrieve_content:0000000000000394 .L0 
C:\Users\stapi\AppData\Local\Temp\cc4pWpLv.s:863    .text.httpclient_retrieve_content:000000000000039e .L0 
C:\Users\stapi\AppData\Local\Temp\cc4pWpLv.s:864    .text.httpclient_retrieve_content:000000000000039e .L0 
C:\Users\stapi\AppData\Local\Temp\cc4pWpLv.s:869    .text.httpclient_retrieve_content:00000000000003ae .L0 
C:\Users\stapi\AppData\Local\Temp\cc4pWpLv.s:875    .text.httpclient_retrieve_content:00000000000003c0 .L0 
C:\Users\stapi\AppData\Local\Temp\cc4pWpLv.s:880    .text.httpclient_retrieve_content:00000000000003ca .L0 
C:\Users\stapi\AppData\Local\Temp\cc4pWpLv.s:881    .text.httpclient_retrieve_content:00000000000003ca .L0 
C:\Users\stapi\AppData\Local\Temp\cc4pWpLv.s:883    .text.httpclient_retrieve_content:00000000000003cc .L0 
C:\Users\stapi\AppData\Local\Temp\cc4pWpLv.s:886    .text.httpclient_retrieve_content:00000000000003d2 .L0 
C:\Users\stapi\AppData\Local\Temp\cc4pWpLv.s:888    .text.httpclient_retrieve_content:00000000000003d4 .L0 
C:\Users\stapi\AppData\Local\Temp\cc4pWpLv.s:892    .text.httpclient_retrieve_content:00000000000003de .L0 
C:\Users\stapi\AppData\Local\Temp\cc4pWpLv.s:893    .text.httpclient_retrieve_content:00000000000003de .L0 
C:\Users\stapi\AppData\Local\Temp\cc4pWpLv.s:896    .text.httpclient_retrieve_content:00000000000003e0 .L0 
C:\Users\stapi\AppData\Local\Temp\cc4pWpLv.s:897    .text.httpclient_retrieve_content:00000000000003e0 .L0 
C:\Users\stapi\AppData\Local\Temp\cc4pWpLv.s:903    .text.httpclient_retrieve_content:00000000000003e2 .L0 
C:\Users\stapi\AppData\Local\Temp\cc4pWpLv.s:904    .text.httpclient_retrieve_content:00000000000003e2 .L0 
C:\Users\stapi\AppData\Local\Temp\cc4pWpLv.s:905    .text.httpclient_retrieve_content:00000000000003e2 .L0 
C:\Users\stapi\AppData\Local\Temp\cc4pWpLv.s:906    .text.httpclient_retrieve_content:00000000000003e2 .L0 
C:\Users\stapi\AppData\Local\Temp\cc4pWpLv.s:908    .text.httpclient_retrieve_content:00000000000003e6 .L0 
C:\Users\stapi\AppData\Local\Temp\cc4pWpLv.s:910    .text.httpclient_retrieve_content:00000000000003e8 .L0 
C:\Users\stapi\AppData\Local\Temp\cc4pWpLv.s:912    .text.httpclient_retrieve_content:00000000000003ea .L0 
C:\Users\stapi\AppData\Local\Temp\cc4pWpLv.s:914    .text.httpclient_retrieve_content:00000000000003ee .L0 
C:\Users\stapi\AppData\Local\Temp\cc4pWpLv.s:919    .text.httpclient_retrieve_content:00000000000003fa .L0 
C:\Users\stapi\AppData\Local\Temp\cc4pWpLv.s:920    .text.httpclient_retrieve_content:00000000000003fa .L0 
C:\Users\stapi\AppData\Local\Temp\cc4pWpLv.s:925    .text.httpclient_retrieve_content:00000000000003fc .L0 
C:\Users\stapi\AppData\Local\Temp\cc4pWpLv.s:936    .text.httpclient_retrieve_content:000000000000041e .L0 
C:\Users\stapi\AppData\Local\Temp\cc4pWpLv.s:937    .text.httpclient_retrieve_content:000000000000041e .L0 
C:\Users\stapi\AppData\Local\Temp\cc4pWpLv.s:938    .text.httpclient_retrieve_content:000000000000041e .L0 
C:\Users\stapi\AppData\Local\Temp\cc4pWpLv.s:939    .text.httpclient_retrieve_content:000000000000041e .L0 
C:\Users\stapi\AppData\Local\Temp\cc4pWpLv.s:940    .text.httpclient_retrieve_content:000000000000041e .L0 
C:\Users\stapi\AppData\Local\Temp\cc4pWpLv.s:942    .text.httpclient_retrieve_content:0000000000000420 .L0 
C:\Users\stapi\AppData\Local\Temp\cc4pWpLv.s:944    .text.httpclient_retrieve_content:0000000000000422 .L0 
C:\Users\stapi\AppData\Local\Temp\cc4pWpLv.s:947    .text.httpclient_retrieve_content:0000000000000424 .L0 
C:\Users\stapi\AppData\Local\Temp\cc4pWpLv.s:952    .text.httpclient_retrieve_content:0000000000000428 .L0 
C:\Users\stapi\AppData\Local\Temp\cc4pWpLv.s:953    .text.httpclient_retrieve_content:0000000000000428 .L0 
C:\Users\stapi\AppData\Local\Temp\cc4pWpLv.s:954    .text.httpclient_retrieve_content:0000000000000428 .L0 
C:\Users\stapi\AppData\Local\Temp\cc4pWpLv.s:956    .text.httpclient_retrieve_content:000000000000042a .L0 
C:\Users\stapi\AppData\Local\Temp\cc4pWpLv.s:958    .text.httpclient_retrieve_content:000000000000042e .L0 
C:\Users\stapi\AppData\Local\Temp\cc4pWpLv.s:960    .text.httpclient_retrieve_content:0000000000000432 .L0 
C:\Users\stapi\AppData\Local\Temp\cc4pWpLv.s:963    .text.httpclient_retrieve_content:0000000000000436 .L0 
C:\Users\stapi\AppData\Local\Temp\cc4pWpLv.s:964    .text.httpclient_retrieve_content:0000000000000436 .L0 
C:\Users\stapi\AppData\Local\Temp\cc4pWpLv.s:966    .text.httpclient_retrieve_content:0000000000000438 .L0 
C:\Users\stapi\AppData\Local\Temp\cc4pWpLv.s:968    .text.httpclient_retrieve_content:000000000000043a .L0 
C:\Users\stapi\AppData\Local\Temp\cc4pWpLv.s:970    .text.httpclient_retrieve_content:000000000000043c .L0 
C:\Users\stapi\AppData\Local\Temp\cc4pWpLv.s:972    .text.httpclient_retrieve_content:0000000000000440 .L0 
C:\Users\stapi\AppData\Local\Temp\cc4pWpLv.s:977    .text.httpclient_retrieve_content:000000000000044c .L0 
C:\Users\stapi\AppData\Local\Temp\cc4pWpLv.s:978    .text.httpclient_retrieve_content:000000000000044c .L0 
C:\Users\stapi\AppData\Local\Temp\cc4pWpLv.s:979    .text.httpclient_retrieve_content:000000000000044c .L0 
C:\Users\stapi\AppData\Local\Temp\cc4pWpLv.s:983    .text.httpclient_retrieve_content:0000000000000456 .L0 
C:\Users\stapi\AppData\Local\Temp\cc4pWpLv.s:984    .text.httpclient_retrieve_content:0000000000000456 .L0 
C:\Users\stapi\AppData\Local\Temp\cc4pWpLv.s:986    .text.httpclient_retrieve_content:000000000000045a .L0 
C:\Users\stapi\AppData\Local\Temp\cc4pWpLv.s:988    .text.httpclient_retrieve_content:000000000000045c .L0 
C:\Users\stapi\AppData\Local\Temp\cc4pWpLv.s:991    .text.httpclient_retrieve_content:0000000000000464 .L0 
C:\Users\stapi\AppData\Local\Temp\cc4pWpLv.s:992    .text.httpclient_retrieve_content:0000000000000464 .L0 
C:\Users\stapi\AppData\Local\Temp\cc4pWpLv.s:994    .text.httpclient_retrieve_content:0000000000000468 .L0 
C:\Users\stapi\AppData\Local\Temp\cc4pWpLv.s:1004   .text.httpclient_retrieve_content:0000000000000488 .L0 
C:\Users\stapi\AppData\Local\Temp\cc4pWpLv.s:1005   .text.httpclient_retrieve_content:0000000000000488 .L0 
C:\Users\stapi\AppData\Local\Temp\cc4pWpLv.s:1008   .text.httpclient_retrieve_content:000000000000048a .L0 
C:\Users\stapi\AppData\Local\Temp\cc4pWpLv.s:1011   .text.httpclient_retrieve_content:0000000000000490 .L0 
C:\Users\stapi\AppData\Local\Temp\cc4pWpLv.s:1013   .text.httpclient_retrieve_content:0000000000000494 .L0 
C:\Users\stapi\AppData\Local\Temp\cc4pWpLv.s:1017   .text.httpclient_retrieve_content:000000000000049e .L0 
C:\Users\stapi\AppData\Local\Temp\cc4pWpLv.s:1018   .text.httpclient_retrieve_content:000000000000049e .L0 
C:\Users\stapi\AppData\Local\Temp\cc4pWpLv.s:1021   .text.httpclient_retrieve_content:00000000000004a0 .L0 
C:\Users\stapi\AppData\Local\Temp\cc4pWpLv.s:1022   .text.httpclient_retrieve_content:00000000000004a0 .L0 
C:\Users\stapi\AppData\Local\Temp\cc4pWpLv.s:1023   .text.httpclient_retrieve_content:00000000000004a0 .L0 
C:\Users\stapi\AppData\Local\Temp\cc4pWpLv.s:1027   .text.httpclient_retrieve_content:00000000000004a4 .L0 
C:\Users\stapi\AppData\Local\Temp\cc4pWpLv.s:1028   .text.httpclient_retrieve_content:00000000000004a4 .L0 
C:\Users\stapi\AppData\Local\Temp\cc4pWpLv.s:1029   .text.httpclient_retrieve_content:00000000000004a4 .L0 
C:\Users\stapi\AppData\Local\Temp\cc4pWpLv.s:1030   .text.httpclient_retrieve_content:00000000000004a4 .L0 
C:\Users\stapi\AppData\Local\Temp\cc4pWpLv.s:1032   .text.httpclient_retrieve_content:00000000000004a8 .L0 
C:\Users\stapi\AppData\Local\Temp\cc4pWpLv.s:1034   .text.httpclient_retrieve_content:00000000000004ac .L0 
C:\Users\stapi\AppData\Local\Temp\cc4pWpLv.s:1035   .text.httpclient_retrieve_content:00000000000004ac .L0 
C:\Users\stapi\AppData\Local\Temp\cc4pWpLv.s:1040   .text.httpclient_retrieve_content:00000000000004bc .L0 
C:\Users\stapi\AppData\Local\Temp\cc4pWpLv.s:1045   .text.httpclient_retrieve_content:00000000000004cc .L0 
C:\Users\stapi\AppData\Local\Temp\cc4pWpLv.s:1054   .text.httpclient_retrieve_content:00000000000004de .L0 
C:\Users\stapi\AppData\Local\Temp\cc4pWpLv.s:1055   .text.httpclient_retrieve_content:00000000000004de .L0 
C:\Users\stapi\AppData\Local\Temp\cc4pWpLv.s:1056   .text.httpclient_retrieve_content:00000000000004de .L0 
C:\Users\stapi\AppData\Local\Temp\cc4pWpLv.s:1057   .text.httpclient_retrieve_content:00000000000004de .L0 
C:\Users\stapi\AppData\Local\Temp\cc4pWpLv.s:1059   .text.httpclient_retrieve_content:00000000000004e2 .L0 
C:\Users\stapi\AppData\Local\Temp\cc4pWpLv.s:1060   .text.httpclient_retrieve_content:00000000000004e2 .L0 
C:\Users\stapi\AppData\Local\Temp\cc4pWpLv.s:1066   .text.httpclient_retrieve_content:00000000000004f0 .L0 
C:\Users\stapi\AppData\Local\Temp\cc4pWpLv.s:1068   .text.httpclient_retrieve_content:00000000000004f4 .L0 
C:\Users\stapi\AppData\Local\Temp\cc4pWpLv.s:1070   .text.httpclient_retrieve_content:00000000000004f8 .L0 
C:\Users\stapi\AppData\Local\Temp\cc4pWpLv.s:1073   .text.httpclient_retrieve_content:00000000000004fa .L0 
C:\Users\stapi\AppData\Local\Temp\cc4pWpLv.s:1074   .text.httpclient_retrieve_content:00000000000004fa .L0 
C:\Users\stapi\AppData\Local\Temp\cc4pWpLv.s:1075   .text.httpclient_retrieve_content:00000000000004fa .L0 
C:\Users\stapi\AppData\Local\Temp\cc4pWpLv.s:1076   .text.httpclient_retrieve_content:00000000000004fa .L0 
C:\Users\stapi\AppData\Local\Temp\cc4pWpLv.s:1079   .text.httpclient_retrieve_content:0000000000000500 .L0 
C:\Users\stapi\AppData\Local\Temp\cc4pWpLv.s:1080   .text.httpclient_retrieve_content:0000000000000500 .L0 
C:\Users\stapi\AppData\Local\Temp\cc4pWpLv.s:1082   .text.httpclient_retrieve_content:0000000000000504 .L0 
C:\Users\stapi\AppData\Local\Temp\cc4pWpLv.s:1083   .text.httpclient_retrieve_content:0000000000000504 .L0 
C:\Users\stapi\AppData\Local\Temp\cc4pWpLv.s:1086   .text.httpclient_retrieve_content:000000000000050c .L0 
C:\Users\stapi\AppData\Local\Temp\cc4pWpLv.s:1088   .text.httpclient_retrieve_content:0000000000000510 .L0 
C:\Users\stapi\AppData\Local\Temp\cc4pWpLv.s:1089   .text.httpclient_retrieve_content:0000000000000510 .L0 
C:\Users\stapi\AppData\Local\Temp\cc4pWpLv.s:1092   .text.httpclient_retrieve_content:0000000000000518 .L0 
C:\Users\stapi\AppData\Local\Temp\cc4pWpLv.s:1097   .text.httpclient_retrieve_content:0000000000000528 .L0 
C:\Users\stapi\AppData\Local\Temp\cc4pWpLv.s:1103   .text.httpclient_retrieve_content:0000000000000538 .L0 
C:\Users\stapi\AppData\Local\Temp\cc4pWpLv.s:1104   .text.httpclient_retrieve_content:0000000000000538 .L0 
C:\Users\stapi\AppData\Local\Temp\cc4pWpLv.s:1105   .text.httpclient_retrieve_content:0000000000000538 .L0 
C:\Users\stapi\AppData\Local\Temp\cc4pWpLv.s:1106   .text.httpclient_retrieve_content:0000000000000538 .L0 
C:\Users\stapi\AppData\Local\Temp\cc4pWpLv.s:1111   .text.httpclient_retrieve_content:0000000000000548 .L0 
C:\Users\stapi\AppData\Local\Temp\cc4pWpLv.s:1116   .text.httpclient_retrieve_content:0000000000000558 .L0 
C:\Users\stapi\AppData\Local\Temp\cc4pWpLv.s:1121   .text.httpclient_retrieve_content:000000000000055c .L0 
C:\Users\stapi\AppData\Local\Temp\cc4pWpLv.s:1124   .text.httpclient_retrieve_content:0000000000000564 .L0 
C:\Users\stapi\AppData\Local\Temp\cc4pWpLv.s:1125   .text.httpclient_retrieve_content:0000000000000564 .L0 
C:\Users\stapi\AppData\Local\Temp\cc4pWpLv.s:1126   .text.httpclient_retrieve_content:0000000000000564 .L0 
C:\Users\stapi\AppData\Local\Temp\cc4pWpLv.s:1129   .text.httpclient_retrieve_content:0000000000000568 .L0 
C:\Users\stapi\AppData\Local\Temp\cc4pWpLv.s:1145   .text.httpclient_parse_host.constprop.0.isra.0:0000000000000000 httpclient_parse_host.constprop.0.isra.0
C:\Users\stapi\AppData\Local\Temp\cc4pWpLv.s:1148   .text.httpclient_parse_host.constprop.0.isra.0:0000000000000000 .L0 
C:\Users\stapi\AppData\Local\Temp\cc4pWpLv.s:1150   .text.httpclient_parse_host.constprop.0.isra.0:0000000000000000 .L0 
C:\Users\stapi\AppData\Local\Temp\cc4pWpLv.s:1151   .text.httpclient_parse_host.constprop.0.isra.0:0000000000000008 .L0 
C:\Users\stapi\AppData\Local\Temp\cc4pWpLv.s:1152   .text.httpclient_parse_host.constprop.0.isra.0:0000000000000008 .L0 
C:\Users\stapi\AppData\Local\Temp\cc4pWpLv.s:1153   .text.httpclient_parse_host.constprop.0.isra.0:0000000000000008 .L0 
C:\Users\stapi\AppData\Local\Temp\cc4pWpLv.s:1154   .text.httpclient_parse_host.constprop.0.isra.0:0000000000000008 .L0 
C:\Users\stapi\AppData\Local\Temp\cc4pWpLv.s:1155   .text.httpclient_parse_host.constprop.0.isra.0:0000000000000008 .L0 
C:\Users\stapi\AppData\Local\Temp\cc4pWpLv.s:1158   .text.httpclient_parse_host.constprop.0.isra.0:0000000000000008 .L0 
C:\Users\stapi\AppData\Local\Temp\cc4pWpLv.s:1159   .text.httpclient_parse_host.constprop.0.isra.0:0000000000000008 .L0 
C:\Users\stapi\AppData\Local\Temp\cc4pWpLv.s:1161   .text.httpclient_parse_host.constprop.0.isra.0:000000000000000a .L0 
C:\Users\stapi\AppData\Local\Temp\cc4pWpLv.s:1164   .text.httpclient_parse_host.constprop.0.isra.0:000000000000000e .L0 
C:\Users\stapi\AppData\Local\Temp\cc4pWpLv.s:1165   .text.httpclient_parse_host.constprop.0.isra.0:0000000000000010 .L0 
C:\Users\stapi\AppData\Local\Temp\cc4pWpLv.s:1167   .text.httpclient_parse_host.constprop.0.isra.0:0000000000000010 .L0 
C:\Users\stapi\AppData\Local\Temp\cc4pWpLv.s:1171   .text.httpclient_parse_host.constprop.0.isra.0:000000000000001c .L0 
C:\Users\stapi\AppData\Local\Temp\cc4pWpLv.s:1172   .text.httpclient_parse_host.constprop.0.isra.0:000000000000001c .L0 
C:\Users\stapi\AppData\Local\Temp\cc4pWpLv.s:1173   .text.httpclient_parse_host.constprop.0.isra.0:000000000000001c .L0 
C:\Users\stapi\AppData\Local\Temp\cc4pWpLv.s:1174   .text.httpclient_parse_host.constprop.0.isra.0:000000000000001c .L0 
C:\Users\stapi\AppData\Local\Temp\cc4pWpLv.s:1175   .text.httpclient_parse_host.constprop.0.isra.0:000000000000001c .L0 
C:\Users\stapi\AppData\Local\Temp\cc4pWpLv.s:1177   .text.httpclient_parse_host.constprop.0.isra.0:000000000000001e .L0 
C:\Users\stapi\AppData\Local\Temp\cc4pWpLv.s:1178   .text.httpclient_parse_host.constprop.0.isra.0:000000000000001e .L0 
C:\Users\stapi\AppData\Local\Temp\cc4pWpLv.s:1184   .text.httpclient_parse_host.constprop.0.isra.0:000000000000002e .L0 
C:\Users\stapi\AppData\Local\Temp\cc4pWpLv.s:1190   .text.httpclient_parse_host.constprop.0.isra.0:000000000000003e .L0 
C:\Users\stapi\AppData\Local\Temp\cc4pWpLv.s:1191   .text.httpclient_parse_host.constprop.0.isra.0:000000000000003e .L0 
C:\Users\stapi\AppData\Local\Temp\cc4pWpLv.s:1196   .text.httpclient_parse_host.constprop.0.isra.0:000000000000004e .L0 
C:\Users\stapi\AppData\Local\Temp\cc4pWpLv.s:1198   .text.httpclient_parse_host.constprop.0.isra.0:000000000000004e .L0 
C:\Users\stapi\AppData\Local\Temp\cc4pWpLv.s:1199   .text.httpclient_parse_host.constprop.0.isra.0:000000000000004e .L0 
C:\Users\stapi\AppData\Local\Temp\cc4pWpLv.s:1200   .text.httpclient_parse_host.constprop.0.isra.0:0000000000000050 .L0 
C:\Users\stapi\AppData\Local\Temp\cc4pWpLv.s:1201   .text.httpclient_parse_host.constprop.0.isra.0:0000000000000050 .L0 
C:\Users\stapi\AppData\Local\Temp\cc4pWpLv.s:1203   .text.httpclient_parse_host.constprop.0.isra.0:0000000000000058 .L0 
C:\Users\stapi\AppData\Local\Temp\cc4pWpLv.s:1204   .text.httpclient_parse_host.constprop.0.isra.0:0000000000000058 .L0 
C:\Users\stapi\AppData\Local\Temp\cc4pWpLv.s:1205   .text.httpclient_parse_host.constprop.0.isra.0:0000000000000058 .L0 
C:\Users\stapi\AppData\Local\Temp\cc4pWpLv.s:1206   .text.httpclient_parse_host.constprop.0.isra.0:0000000000000058 .L0 
C:\Users\stapi\AppData\Local\Temp\cc4pWpLv.s:1207   .text.httpclient_parse_host.constprop.0.isra.0:0000000000000058 .L0 
C:\Users\stapi\AppData\Local\Temp\cc4pWpLv.s:1210   .text.httpclient_parse_host.constprop.0.isra.0:0000000000000058 .L0 
C:\Users\stapi\AppData\Local\Temp\cc4pWpLv.s:1212   .text.httpclient_parse_host.constprop.0.isra.0:0000000000000058 .L0 
C:\Users\stapi\AppData\Local\Temp\cc4pWpLv.s:1213   .text.httpclient_parse_host.constprop.0.isra.0:0000000000000058 .L0 
C:\Users\stapi\AppData\Local\Temp\cc4pWpLv.s:1216   .text.httpclient_parse_host.constprop.0.isra.0:000000000000005c .L0 
C:\Users\stapi\AppData\Local\Temp\cc4pWpLv.s:1217   .text.httpclient_parse_host.constprop.0.isra.0:000000000000005c .L0 
C:\Users\stapi\AppData\Local\Temp\cc4pWpLv.s:1224   .text.httpclient_parse_host.constprop.0.isra.0:000000000000006c .L0 
C:\Users\stapi\AppData\Local\Temp\cc4pWpLv.s:1225   .text.httpclient_parse_host.constprop.0.isra.0:000000000000006c .L0 
C:\Users\stapi\AppData\Local\Temp\cc4pWpLv.s:1230   .text.httpclient_parse_host.constprop.0.isra.0:000000000000007a .L0 
C:\Users\stapi\AppData\Local\Temp\cc4pWpLv.s:1231   .text.httpclient_parse_host.constprop.0.isra.0:000000000000007a .L0 
C:\Users\stapi\AppData\Local\Temp\cc4pWpLv.s:1232   .text.httpclient_parse_host.constprop.0.isra.0:000000000000007a .L0 
C:\Users\stapi\AppData\Local\Temp\cc4pWpLv.s:1235   .text.httpclient_parse_host.constprop.0.isra.0:000000000000007c .L0 
C:\Users\stapi\AppData\Local\Temp\cc4pWpLv.s:1237   .text.httpclient_parse_host.constprop.0.isra.0:000000000000007e .L0 
C:\Users\stapi\AppData\Local\Temp\cc4pWpLv.s:1238   .text.httpclient_parse_host.constprop.0.isra.0:000000000000007e .L0 
C:\Users\stapi\AppData\Local\Temp\cc4pWpLv.s:1242   .text.httpclient_parse_host.constprop.0.isra.0:0000000000000082 .L0 
C:\Users\stapi\AppData\Local\Temp\cc4pWpLv.s:1243   .text.httpclient_parse_host.constprop.0.isra.0:0000000000000082 .L0 
C:\Users\stapi\AppData\Local\Temp\cc4pWpLv.s:1245   .text.httpclient_parse_host.constprop.0.isra.0:0000000000000086 .L0 
C:\Users\stapi\AppData\Local\Temp\cc4pWpLv.s:1248   .text.httpclient_parse_host.constprop.0.isra.0:000000000000008e .L0 
C:\Users\stapi\AppData\Local\Temp\cc4pWpLv.s:1253   .text.httpclient_parse_host.constprop.0.isra.0:0000000000000098 .L0 
C:\Users\stapi\AppData\Local\Temp\cc4pWpLv.s:1254   .text.httpclient_parse_host.constprop.0.isra.0:0000000000000098 .L0 
C:\Users\stapi\AppData\Local\Temp\cc4pWpLv.s:1257   .text.httpclient_parse_host.constprop.0.isra.0:00000000000000a0 .L0 
C:\Users\stapi\AppData\Local\Temp\cc4pWpLv.s:1267   .text.httpclient_parse_host.constprop.0.isra.0:00000000000000b8 .L0 
C:\Users\stapi\AppData\Local\Temp\cc4pWpLv.s:1272   .text.httpclient_parse_host.constprop.0.isra.0:00000000000000be .L0 
C:\Users\stapi\AppData\Local\Temp\cc4pWpLv.s:1275   .text.httpclient_parse_host.constprop.0.isra.0:00000000000000c0 .L0 
C:\Users\stapi\AppData\Local\Temp\cc4pWpLv.s:1278   .text.httpclient_parse_host.constprop.0.isra.0:00000000000000c8 .L0 
C:\Users\stapi\AppData\Local\Temp\cc4pWpLv.s:1279   .text.httpclient_parse_host.constprop.0.isra.0:00000000000000c8 .L0 
C:\Users\stapi\AppData\Local\Temp\cc4pWpLv.s:1281   .text.httpclient_parse_host.constprop.0.isra.0:00000000000000cc .L0 
C:\Users\stapi\AppData\Local\Temp\cc4pWpLv.s:1282   .text.httpclient_parse_host.constprop.0.isra.0:00000000000000cc .L0 
C:\Users\stapi\AppData\Local\Temp\cc4pWpLv.s:1283   .text.httpclient_parse_host.constprop.0.isra.0:00000000000000ce .L0 
C:\Users\stapi\AppData\Local\Temp\cc4pWpLv.s:1290   .text.httpclient_get_info:0000000000000000 httpclient_get_info
C:\Users\stapi\AppData\Local\Temp\cc4pWpLv.s:1293   .text.httpclient_get_info:0000000000000000 .L0 
C:\Users\stapi\AppData\Local\Temp\cc4pWpLv.s:1295   .text.httpclient_get_info:0000000000000000 .L0 
C:\Users\stapi\AppData\Local\Temp\cc4pWpLv.s:1296   .text.httpclient_get_info:0000000000000008 .L0 
C:\Users\stapi\AppData\Local\Temp\cc4pWpLv.s:1297   .text.httpclient_get_info:0000000000000008 .L0 
C:\Users\stapi\AppData\Local\Temp\cc4pWpLv.s:1298   .text.httpclient_get_info:0000000000000008 .L0 
C:\Users\stapi\AppData\Local\Temp\cc4pWpLv.s:1299   .text.httpclient_get_info:0000000000000008 .L0 
C:\Users\stapi\AppData\Local\Temp\cc4pWpLv.s:1300   .text.httpclient_get_info:0000000000000008 .L0 
C:\Users\stapi\AppData\Local\Temp\cc4pWpLv.s:1301   .text.httpclient_get_info:0000000000000008 .L0 
C:\Users\stapi\AppData\Local\Temp\cc4pWpLv.s:1302   .text.httpclient_get_info:0000000000000008 .L0 
C:\Users\stapi\AppData\Local\Temp\cc4pWpLv.s:1303   .text.httpclient_get_info:0000000000000008 .L0 
C:\Users\stapi\AppData\Local\Temp\cc4pWpLv.s:1304   .text.httpclient_get_info:0000000000000008 .L0 
C:\Users\stapi\AppData\Local\Temp\cc4pWpLv.s:1305   .text.httpclient_get_info:0000000000000008 .L0 
C:\Users\stapi\AppData\Local\Temp\cc4pWpLv.s:1306   .text.httpclient_get_info:0000000000000008 .L0 
C:\Users\stapi\AppData\Local\Temp\cc4pWpLv.s:1307   .text.httpclient_get_info:0000000000000008 .L0 
C:\Users\stapi\AppData\Local\Temp\cc4pWpLv.s:1309   .text.httpclient_get_info:0000000000000008 .L0 
C:\Users\stapi\AppData\Local\Temp\cc4pWpLv.s:1310   .text.httpclient_get_info:0000000000000008 .L0 
C:\Users\stapi\AppData\Local\Temp\cc4pWpLv.s:1311   .text.httpclient_get_info:0000000000000008 .L0 
C:\Users\stapi\AppData\Local\Temp\cc4pWpLv.s:1312   .text.httpclient_get_info:0000000000000008 .L0 
C:\Users\stapi\AppData\Local\Temp\cc4pWpLv.s:1315   .text.httpclient_get_info:000000000000000a .L0 
C:\Users\stapi\AppData\Local\Temp\cc4pWpLv.s:1316   .text.httpclient_get_info:000000000000000a .L0 
C:\Users\stapi\AppData\Local\Temp\cc4pWpLv.s:1322   .text.httpclient_get_info:0000000000000014 .L0 
C:\Users\stapi\AppData\Local\Temp\cc4pWpLv.s:1324   .text.httpclient_get_info:0000000000000016 .L0 
C:\Users\stapi\AppData\Local\Temp\cc4pWpLv.s:1325   .text.httpclient_get_info:0000000000000016 .L0 
C:\Users\stapi\AppData\Local\Temp\cc4pWpLv.s:1333   .text.httpclient_get_info:0000000000000022 .L0 
C:\Users\stapi\AppData\Local\Temp\cc4pWpLv.s:1335   .text.httpclient_get_info:0000000000000024 .L0 
C:\Users\stapi\AppData\Local\Temp\cc4pWpLv.s:1337   .text.httpclient_get_info:0000000000000028 .L0 
C:\Users\stapi\AppData\Local\Temp\cc4pWpLv.s:1339   .text.httpclient_get_info:000000000000002c .L0 
C:\Users\stapi\AppData\Local\Temp\cc4pWpLv.s:1343   .text.httpclient_get_info:0000000000000030 .L0 
C:\Users\stapi\AppData\Local\Temp\cc4pWpLv.s:1344   .text.httpclient_get_info:0000000000000030 .L0 
C:\Users\stapi\AppData\Local\Temp\cc4pWpLv.s:1345   .text.httpclient_get_info:0000000000000030 .L0 
C:\Users\stapi\AppData\Local\Temp\cc4pWpLv.s:1347   .text.httpclient_get_info:0000000000000034 .L0 
C:\Users\stapi\AppData\Local\Temp\cc4pWpLv.s:1350   .text.httpclient_get_info:0000000000000038 .L0 
C:\Users\stapi\AppData\Local\Temp\cc4pWpLv.s:1354   .text.httpclient_get_info:0000000000000040 .L0 
C:\Users\stapi\AppData\Local\Temp\cc4pWpLv.s:1357   .text.httpclient_get_info:0000000000000042 .L0 
C:\Users\stapi\AppData\Local\Temp\cc4pWpLv.s:1360   .text.httpclient_get_info:000000000000004a .L0 
C:\Users\stapi\AppData\Local\Temp\cc4pWpLv.s:1361   .text.httpclient_get_info:000000000000004a .L0 
C:\Users\stapi\AppData\Local\Temp\cc4pWpLv.s:1362   .text.httpclient_get_info:000000000000004a .L0 
C:\Users\stapi\AppData\Local\Temp\cc4pWpLv.s:1365   .text.httpclient_get_info:000000000000004e .L0 
C:\Users\stapi\AppData\Local\Temp\cc4pWpLv.s:1366   .text.httpclient_get_info:000000000000004e .L0 
C:\Users\stapi\AppData\Local\Temp\cc4pWpLv.s:1370   .text.httpclient_get_info:0000000000000052 .L0 
C:\Users\stapi\AppData\Local\Temp\cc4pWpLv.s:1371   .text.httpclient_get_info:0000000000000052 .L0 
C:\Users\stapi\AppData\Local\Temp\cc4pWpLv.s:1373   .text.httpclient_get_info:0000000000000054 .L0 
C:\Users\stapi\AppData\Local\Temp\cc4pWpLv.s:1374   .text.httpclient_get_info:0000000000000054 .L0 
C:\Users\stapi\AppData\Local\Temp\cc4pWpLv.s:1376   .text.httpclient_get_info:0000000000000058 .L0 
C:\Users\stapi\AppData\Local\Temp\cc4pWpLv.s:1377   .text.httpclient_get_info:0000000000000058 .L0 
C:\Users\stapi\AppData\Local\Temp\cc4pWpLv.s:1382   .text.httpclient_get_info:000000000000005c .L0 
C:\Users\stapi\AppData\Local\Temp\cc4pWpLv.s:1383   .text.httpclient_get_info:000000000000005c .L0 
C:\Users\stapi\AppData\Local\Temp\cc4pWpLv.s:1391   .text.httpclient_get_info:000000000000006c .L0 
C:\Users\stapi\AppData\Local\Temp\cc4pWpLv.s:1392   .text.httpclient_get_info:000000000000006c .L0 
C:\Users\stapi\AppData\Local\Temp\cc4pWpLv.s:1396   .text.httpclient_get_info:000000000000006e .L0 
C:\Users\stapi\AppData\Local\Temp\cc4pWpLv.s:1397   .text.httpclient_get_info:0000000000000076 .L0 
C:\Users\stapi\AppData\Local\Temp\cc4pWpLv.s:1398   .text.httpclient_get_info:0000000000000076 .L0 
C:\Users\stapi\AppData\Local\Temp\cc4pWpLv.s:1399   .text.httpclient_get_info:0000000000000076 .L0 
C:\Users\stapi\AppData\Local\Temp\cc4pWpLv.s:1400   .text.httpclient_get_info:0000000000000076 .L0 
C:\Users\stapi\AppData\Local\Temp\cc4pWpLv.s:1401   .text.httpclient_get_info:0000000000000076 .L0 
C:\Users\stapi\AppData\Local\Temp\cc4pWpLv.s:1402   .text.httpclient_get_info:0000000000000076 .L0 
C:\Users\stapi\AppData\Local\Temp\cc4pWpLv.s:1403   .text.httpclient_get_info:0000000000000076 .L0 
C:\Users\stapi\AppData\Local\Temp\cc4pWpLv.s:1404   .text.httpclient_get_info:0000000000000076 .L0 
C:\Users\stapi\AppData\Local\Temp\cc4pWpLv.s:1405   .text.httpclient_get_info:0000000000000076 .L0 
C:\Users\stapi\AppData\Local\Temp\cc4pWpLv.s:1406   .text.httpclient_get_info:0000000000000076 .L0 
C:\Users\stapi\AppData\Local\Temp\cc4pWpLv.s:1407   .text.httpclient_get_info:0000000000000076 .L0 
C:\Users\stapi\AppData\Local\Temp\cc4pWpLv.s:1408   .text.httpclient_get_info:0000000000000076 .L0 
C:\Users\stapi\AppData\Local\Temp\cc4pWpLv.s:1409   .text.httpclient_get_info:0000000000000076 .L0 
C:\Users\stapi\AppData\Local\Temp\cc4pWpLv.s:1432   .text.httpclient_send_auth:0000000000000000 httpclient_send_auth
C:\Users\stapi\AppData\Local\Temp\cc4pWpLv.s:1435   .text.httpclient_send_auth:0000000000000000 .L0 
C:\Users\stapi\AppData\Local\Temp\cc4pWpLv.s:1437   .text.httpclient_send_auth:0000000000000000 .L0 
C:\Users\stapi\AppData\Local\Temp\cc4pWpLv.s:1438   .text.httpclient_send_auth:0000000000000008 .L0 
C:\Users\stapi\AppData\Local\Temp\cc4pWpLv.s:1439   .text.httpclient_send_auth:0000000000000008 .L0 
C:\Users\stapi\AppData\Local\Temp\cc4pWpLv.s:1440   .text.httpclient_send_auth:0000000000000008 .L0 
C:\Users\stapi\AppData\Local\Temp\cc4pWpLv.s:1441   .text.httpclient_send_auth:0000000000000008 .L0 
C:\Users\stapi\AppData\Local\Temp\cc4pWpLv.s:1442   .text.httpclient_send_auth:0000000000000008 .L0 
C:\Users\stapi\AppData\Local\Temp\cc4pWpLv.s:1443   .text.httpclient_send_auth:0000000000000008 .L0 
C:\Users\stapi\AppData\Local\Temp\cc4pWpLv.s:1444   .text.httpclient_send_auth:0000000000000008 .L0 
C:\Users\stapi\AppData\Local\Temp\cc4pWpLv.s:1446   .text.httpclient_send_auth:0000000000000008 .L0 
C:\Users\stapi\AppData\Local\Temp\cc4pWpLv.s:1447   .text.httpclient_send_auth:0000000000000008 .L0 
C:\Users\stapi\AppData\Local\Temp\cc4pWpLv.s:1448   .text.httpclient_send_auth:0000000000000008 .L0 
C:\Users\stapi\AppData\Local\Temp\cc4pWpLv.s:1450   .text.httpclient_send_auth:000000000000000c .L0 
C:\Users\stapi\AppData\Local\Temp\cc4pWpLv.s:1451   .text.httpclient_send_auth:000000000000000e .L0 
C:\Users\stapi\AppData\Local\Temp\cc4pWpLv.s:1453   .text.httpclient_send_auth:000000000000000e .L0 
C:\Users\stapi\AppData\Local\Temp\cc4pWpLv.s:1456   .text.httpclient_send_auth:0000000000000014 .L0 
C:\Users\stapi\AppData\Local\Temp\cc4pWpLv.s:1460   .text.httpclient_send_auth:000000000000001a .L0 
C:\Users\stapi\AppData\Local\Temp\cc4pWpLv.s:1463   .text.httpclient_send_auth:0000000000000022 .L0 
C:\Users\stapi\AppData\Local\Temp\cc4pWpLv.s:1471   .text.httpclient_send_auth:0000000000000038 .L0 
C:\Users\stapi\AppData\Local\Temp\cc4pWpLv.s:1485   .text.httpclient_send_auth:0000000000000060 .L0 
C:\Users\stapi\AppData\Local\Temp\cc4pWpLv.s:1486   .text.httpclient_send_auth:0000000000000060 .L0 
C:\Users\stapi\AppData\Local\Temp\cc4pWpLv.s:1487   .text.httpclient_send_auth:0000000000000060 .L0 
C:\Users\stapi\AppData\Local\Temp\cc4pWpLv.s:1494   .text.httpclient_send_auth:0000000000000076 .L0 
C:\Users\stapi\AppData\Local\Temp\cc4pWpLv.s:1495   .text.httpclient_send_auth:0000000000000076 .L0 
C:\Users\stapi\AppData\Local\Temp\cc4pWpLv.s:1496   .text.httpclient_send_auth:0000000000000076 .L0 
C:\Users\stapi\AppData\Local\Temp\cc4pWpLv.s:1498   .text.httpclient_send_auth:0000000000000078 .L0 
C:\Users\stapi\AppData\Local\Temp\cc4pWpLv.s:1500   .text.httpclient_send_auth:000000000000007a .L0 
C:\Users\stapi\AppData\Local\Temp\cc4pWpLv.s:1502   .text.httpclient_send_auth:000000000000007c .L0 
C:\Users\stapi\AppData\Local\Temp\cc4pWpLv.s:1505   .text.httpclient_send_auth:0000000000000080 .L0 
C:\Users\stapi\AppData\Local\Temp\cc4pWpLv.s:1509   .text.httpclient_send_auth:0000000000000082 .L0 
C:\Users\stapi\AppData\Local\Temp\cc4pWpLv.s:1511   .text.httpclient_send_auth:0000000000000086 .L0 
C:\Users\stapi\AppData\Local\Temp\cc4pWpLv.s:1513   .text.httpclient_send_auth:0000000000000088 .L0 
C:\Users\stapi\AppData\Local\Temp\cc4pWpLv.s:1514   .text.httpclient_send_auth:0000000000000088 .L0 
C:\Users\stapi\AppData\Local\Temp\cc4pWpLv.s:1517   .text.httpclient_send_auth:000000000000008c .L0 
C:\Users\stapi\AppData\Local\Temp\cc4pWpLv.s:1518   .text.httpclient_send_auth:000000000000008c .L0 
C:\Users\stapi\AppData\Local\Temp\cc4pWpLv.s:1519   .text.httpclient_send_auth:000000000000008c .L0 
C:\Users\stapi\AppData\Local\Temp\cc4pWpLv.s:1523   .text.httpclient_send_auth:0000000000000092 .L0 
C:\Users\stapi\AppData\Local\Temp\cc4pWpLv.s:1528   .text.httpclient_send_auth:0000000000000098 .L0 
C:\Users\stapi\AppData\Local\Temp\cc4pWpLv.s:1530   .text.httpclient_send_auth:000000000000009c .L0 
C:\Users\stapi\AppData\Local\Temp\cc4pWpLv.s:1532   .text.httpclient_send_auth:00000000000000a0 .L0 
C:\Users\stapi\AppData\Local\Temp\cc4pWpLv.s:1536   .text.httpclient_send_auth:00000000000000a4 .L0 
C:\Users\stapi\AppData\Local\Temp\cc4pWpLv.s:1538   .text.httpclient_send_auth:00000000000000a8 .L0 
C:\Users\stapi\AppData\Local\Temp\cc4pWpLv.s:1541   .text.httpclient_send_auth:00000000000000aa .L0 
C:\Users\stapi\AppData\Local\Temp\cc4pWpLv.s:1549   .text.httpclient_send_auth:00000000000000b2 .L0 
C:\Users\stapi\AppData\Local\Temp\cc4pWpLv.s:1552   .text.httpclient_send_auth:00000000000000b6 .L0 
C:\Users\stapi\AppData\Local\Temp\cc4pWpLv.s:1554   .text.httpclient_send_auth:00000000000000ba .L0 
C:\Users\stapi\AppData\Local\Temp\cc4pWpLv.s:1556   .text.httpclient_send_auth:00000000000000bc .L0 
C:\Users\stapi\AppData\Local\Temp\cc4pWpLv.s:1557   .text.httpclient_send_auth:00000000000000bc .L0 
C:\Users\stapi\AppData\Local\Temp\cc4pWpLv.s:1562   .text.httpclient_send_auth:00000000000000c0 .L0 
C:\Users\stapi\AppData\Local\Temp\cc4pWpLv.s:1563   .text.httpclient_send_auth:00000000000000c0 .L0 
C:\Users\stapi\AppData\Local\Temp\cc4pWpLv.s:1567   .text.httpclient_send_auth:00000000000000ca .L0 
C:\Users\stapi\AppData\Local\Temp\cc4pWpLv.s:1571   .text.httpclient_send_auth:00000000000000d2 .L0 
C:\Users\stapi\AppData\Local\Temp\cc4pWpLv.s:1572   .text.httpclient_send_auth:00000000000000d2 .L0 
C:\Users\stapi\AppData\Local\Temp\cc4pWpLv.s:1576   .text.httpclient_send_auth:00000000000000dc .L0 
C:\Users\stapi\AppData\Local\Temp\cc4pWpLv.s:1579   .text.httpclient_send_auth:00000000000000e0 .L0 
C:\Users\stapi\AppData\Local\Temp\cc4pWpLv.s:1581   .text.httpclient_send_auth:00000000000000e4 .L0 
C:\Users\stapi\AppData\Local\Temp\cc4pWpLv.s:1584   .text.httpclient_send_auth:00000000000000ea .L0 
C:\Users\stapi\AppData\Local\Temp\cc4pWpLv.s:1593   .text.httpclient_send_auth:0000000000000106 .L0 
C:\Users\stapi\AppData\Local\Temp\cc4pWpLv.s:1601   .text.httpclient_send_auth:0000000000000118 .L0 
C:\Users\stapi\AppData\Local\Temp\cc4pWpLv.s:1602   .text.httpclient_send_auth:0000000000000118 .L0 
C:\Users\stapi\AppData\Local\Temp\cc4pWpLv.s:1604   .text.httpclient_send_auth:000000000000011c .L0 
C:\Users\stapi\AppData\Local\Temp\cc4pWpLv.s:1605   .text.httpclient_send_auth:000000000000011c .L0 
C:\Users\stapi\AppData\Local\Temp\cc4pWpLv.s:1607   .text.httpclient_send_auth:0000000000000124 .L0 
C:\Users\stapi\AppData\Local\Temp\cc4pWpLv.s:1608   .text.httpclient_send_auth:0000000000000124 .L0 
C:\Users\stapi\AppData\Local\Temp\cc4pWpLv.s:1609   .text.httpclient_send_auth:0000000000000124 .L0 
C:\Users\stapi\AppData\Local\Temp\cc4pWpLv.s:1610   .text.httpclient_send_auth:0000000000000124 .L0 
C:\Users\stapi\AppData\Local\Temp\cc4pWpLv.s:1611   .text.httpclient_send_auth:0000000000000124 .L0 
C:\Users\stapi\AppData\Local\Temp\cc4pWpLv.s:1612   .text.httpclient_send_auth:0000000000000124 .L0 
C:\Users\stapi\AppData\Local\Temp\cc4pWpLv.s:1613   .text.httpclient_send_auth:0000000000000124 .L0 
C:\Users\stapi\AppData\Local\Temp\cc4pWpLv.s:1616   .text.httpclient_send_auth:0000000000000124 .L0 
C:\Users\stapi\AppData\Local\Temp\cc4pWpLv.s:1620   .text.httpclient_send_auth:0000000000000124 .L0 
C:\Users\stapi\AppData\Local\Temp\cc4pWpLv.s:1621   .text.httpclient_send_auth:0000000000000124 .L0 
C:\Users\stapi\AppData\Local\Temp\cc4pWpLv.s:1624   .text.httpclient_send_auth:0000000000000126 .L0 
C:\Users\stapi\AppData\Local\Temp\cc4pWpLv.s:1627   .text.httpclient_send_auth:0000000000000128 .L0 
C:\Users\stapi\AppData\Local\Temp\cc4pWpLv.s:1628   .text.httpclient_send_auth:0000000000000128 .L0 
C:\Users\stapi\AppData\Local\Temp\cc4pWpLv.s:1636   .text.httpclient_send_auth:000000000000012e .L0 
C:\Users\stapi\AppData\Local\Temp\cc4pWpLv.s:1637   .text.httpclient_send_auth:000000000000012e .L0 
C:\Users\stapi\AppData\Local\Temp\cc4pWpLv.s:1640   .text.httpclient_send_auth:0000000000000132 .L0 
C:\Users\stapi\AppData\Local\Temp\cc4pWpLv.s:1641   .text.httpclient_send_auth:0000000000000132 .L0 
C:\Users\stapi\AppData\Local\Temp\cc4pWpLv.s:1646   .text.httpclient_send_auth:0000000000000136 .L0 
C:\Users\stapi\AppData\Local\Temp\cc4pWpLv.s:1647   .text.httpclient_send_auth:0000000000000136 .L0 
C:\Users\stapi\AppData\Local\Temp\cc4pWpLv.s:1650   .text.httpclient_send_auth:0000000000000138 .L0 
C:\Users\stapi\AppData\Local\Temp\cc4pWpLv.s:1653   .text.httpclient_send_auth:000000000000013a .L0 
C:\Users\stapi\AppData\Local\Temp\cc4pWpLv.s:1655   .text.httpclient_send_auth:000000000000013e .L0 
C:\Users\stapi\AppData\Local\Temp\cc4pWpLv.s:1658   .text.httpclient_send_auth:0000000000000142 .L0 
C:\Users\stapi\AppData\Local\Temp\cc4pWpLv.s:1660   .text.httpclient_send_auth:0000000000000146 .L0 
C:\Users\stapi\AppData\Local\Temp\cc4pWpLv.s:1664   .text.httpclient_send_auth:000000000000014c .L0 
C:\Users\stapi\AppData\Local\Temp\cc4pWpLv.s:1670   .text.httpclient_send_auth:0000000000000156 .L0 
C:\Users\stapi\AppData\Local\Temp\cc4pWpLv.s:1674   .text.httpclient_send_auth:0000000000000158 .L0 
C:\Users\stapi\AppData\Local\Temp\cc4pWpLv.s:1675   .text.httpclient_send_auth:0000000000000158 .L0 
C:\Users\stapi\AppData\Local\Temp\cc4pWpLv.s:1677   .text.httpclient_send_auth:000000000000015c .L0 
C:\Users\stapi\AppData\Local\Temp\cc4pWpLv.s:1683   .text.httpclient_send_auth:0000000000000162 .L0 
C:\Users\stapi\AppData\Local\Temp\cc4pWpLv.s:1751   .text.httpclient_send_header:0000000000000000 httpclient_send_header
C:\Users\stapi\AppData\Local\Temp\cc4pWpLv.s:1754   .text.httpclient_send_header:0000000000000000 .L0 
C:\Users\stapi\AppData\Local\Temp\cc4pWpLv.s:1756   .text.httpclient_send_header:0000000000000000 .L0 
C:\Users\stapi\AppData\Local\Temp\cc4pWpLv.s:1757   .text.httpclient_send_header:0000000000000008 .L0 
C:\Users\stapi\AppData\Local\Temp\cc4pWpLv.s:1758   .text.httpclient_send_header:0000000000000008 .L0 
C:\Users\stapi\AppData\Local\Temp\cc4pWpLv.s:1759   .text.httpclient_send_header:0000000000000008 .L0 
C:\Users\stapi\AppData\Local\Temp\cc4pWpLv.s:1760   .text.httpclient_send_header:0000000000000008 .L0 
C:\Users\stapi\AppData\Local\Temp\cc4pWpLv.s:1761   .text.httpclient_send_header:0000000000000008 .L0 
C:\Users\stapi\AppData\Local\Temp\cc4pWpLv.s:1762   .text.httpclient_send_header:0000000000000008 .L0 
C:\Users\stapi\AppData\Local\Temp\cc4pWpLv.s:1763   .text.httpclient_send_header:0000000000000008 .L0 
C:\Users\stapi\AppData\Local\Temp\cc4pWpLv.s:1764   .text.httpclient_send_header:0000000000000008 .L0 
C:\Users\stapi\AppData\Local\Temp\cc4pWpLv.s:1765   .text.httpclient_send_header:0000000000000008 .L0 
C:\Users\stapi\AppData\Local\Temp\cc4pWpLv.s:1766   .text.httpclient_send_header:0000000000000008 .L0 
C:\Users\stapi\AppData\Local\Temp\cc4pWpLv.s:1767   .text.httpclient_send_header:0000000000000008 .L0 
C:\Users\stapi\AppData\Local\Temp\cc4pWpLv.s:1768   .text.httpclient_send_header:0000000000000008 .L0 
C:\Users\stapi\AppData\Local\Temp\cc4pWpLv.s:1769   .text.httpclient_send_header:0000000000000008 .L0 
C:\Users\stapi\AppData\Local\Temp\cc4pWpLv.s:1771   .text.httpclient_send_header:0000000000000008 .L0 
C:\Users\stapi\AppData\Local\Temp\cc4pWpLv.s:1772   .text.httpclient_send_header:0000000000000008 .L0 
C:\Users\stapi\AppData\Local\Temp\cc4pWpLv.s:1773   .text.httpclient_send_header:000000000000000a .L0 
C:\Users\stapi\AppData\Local\Temp\cc4pWpLv.s:1775   .text.httpclient_send_header:000000000000000a .L0 
C:\Users\stapi\AppData\Local\Temp\cc4pWpLv.s:1779   .text.httpclient_send_header:0000000000000010 .L0 
C:\Users\stapi\AppData\Local\Temp\cc4pWpLv.s:1786   .text.httpclient_send_header:0000000000000018 .L0 
C:\Users\stapi\AppData\Local\Temp\cc4pWpLv.s:1788   .text.httpclient_send_header:000000000000001a .L0 
C:\Users\stapi\AppData\Local\Temp\cc4pWpLv.s:1791   .text.httpclient_send_header:000000000000001e .L0 
C:\Users\stapi\AppData\Local\Temp\cc4pWpLv.s:1793   .text.httpclient_send_header:000000000000001e .L0 
C:\Users\stapi\AppData\Local\Temp\cc4pWpLv.s:1794   .text.httpclient_send_header:000000000000001e .L0 
C:\Users\stapi\AppData\Local\Temp\cc4pWpLv.s:1795   .text.httpclient_send_header:000000000000001e .L0 
C:\Users\stapi\AppData\Local\Temp\cc4pWpLv.s:1796   .text.httpclient_send_header:000000000000001e .L0 
C:\Users\stapi\AppData\Local\Temp\cc4pWpLv.s:1797   .text.httpclient_send_header:000000000000001e .L0 
C:\Users\stapi\AppData\Local\Temp\cc4pWpLv.s:1798   .text.httpclient_send_header:000000000000001e .L0 
C:\Users\stapi\AppData\Local\Temp\cc4pWpLv.s:1799   .text.httpclient_send_header:000000000000001e .L0 
C:\Users\stapi\AppData\Local\Temp\cc4pWpLv.s:1802   .text.httpclient_send_header:0000000000000026 .L0 
C:\Users\stapi\AppData\Local\Temp\cc4pWpLv.s:1803   .text.httpclient_send_header:0000000000000026 .L0 
C:\Users\stapi\AppData\Local\Temp\cc4pWpLv.s:1805   .text.httpclient_send_header:000000000000002a .L0 
C:\Users\stapi\AppData\Local\Temp\cc4pWpLv.s:1808   .text.httpclient_send_header:0000000000000030 .L0 
C:\Users\stapi\AppData\Local\Temp\cc4pWpLv.s:1809   .text.httpclient_send_header:0000000000000030 .L0 
C:\Users\stapi\AppData\Local\Temp\cc4pWpLv.s:1818   .text.httpclient_send_header:0000000000000042 .L0 
C:\Users\stapi\AppData\Local\Temp\cc4pWpLv.s:1819   .text.httpclient_send_header:0000000000000042 .L0 
C:\Users\stapi\AppData\Local\Temp\cc4pWpLv.s:1821   .text.httpclient_send_header:0000000000000046 .L0 
C:\Users\stapi\AppData\Local\Temp\cc4pWpLv.s:1822   .text.httpclient_send_header:0000000000000046 .L0 
C:\Users\stapi\AppData\Local\Temp\cc4pWpLv.s:1831   .text.httpclient_send_header:0000000000000058 .L0 
C:\Users\stapi\AppData\Local\Temp\cc4pWpLv.s:1832   .text.httpclient_send_header:0000000000000058 .L0 
C:\Users\stapi\AppData\Local\Temp\cc4pWpLv.s:1834   .text.httpclient_send_header:000000000000005c .L0 
C:\Users\stapi\AppData\Local\Temp\cc4pWpLv.s:1835   .text.httpclient_send_header:000000000000005c .L0 
C:\Users\stapi\AppData\Local\Temp\cc4pWpLv.s:1844   .text.httpclient_send_header:000000000000006e .L0 
C:\Users\stapi\AppData\Local\Temp\cc4pWpLv.s:1845   .text.httpclient_send_header:000000000000006e .L0 
C:\Users\stapi\AppData\Local\Temp\cc4pWpLv.s:1847   .text.httpclient_send_header:0000000000000072 .L0 
C:\Users\stapi\AppData\Local\Temp\cc4pWpLv.s:1849   .text.httpclient_send_header:0000000000000074 .L0 
C:\Users\stapi\AppData\Local\Temp\cc4pWpLv.s:1855   .text.httpclient_send_header:0000000000000084 .L0 
C:\Users\stapi\AppData\Local\Temp\cc4pWpLv.s:1861   .text.httpclient_send_header:0000000000000094 .L0 
C:\Users\stapi\AppData\Local\Temp\cc4pWpLv.s:1867   .text.httpclient_send_header:00000000000000a4 .L0 
C:\Users\stapi\AppData\Local\Temp\cc4pWpLv.s:1873   .text.httpclient_send_header:00000000000000b4 .L0 
C:\Users\stapi\AppData\Local\Temp\cc4pWpLv.s:1874   .text.httpclient_send_header:00000000000000b4 .L0 
C:\Users\stapi\AppData\Local\Temp\cc4pWpLv.s:1876   .text.httpclient_send_header:00000000000000b8 .L0 
C:\Users\stapi\AppData\Local\Temp\cc4pWpLv.s:1879   .text.httpclient_send_header:00000000000000be .L0 
C:\Users\stapi\AppData\Local\Temp\cc4pWpLv.s:1882   .text.httpclient_send_header:00000000000000c4 .L0 
C:\Users\stapi\AppData\Local\Temp\cc4pWpLv.s:1885   .text.httpclient_send_header:00000000000000ca .L0 
C:\Users\stapi\AppData\Local\Temp\cc4pWpLv.s:1892   .text.httpclient_send_header:00000000000000d8 .L0 
C:\Users\stapi\AppData\Local\Temp\cc4pWpLv.s:1895   .text.httpclient_send_header:00000000000000d8 .L0 
C:\Users\stapi\AppData\Local\Temp\cc4pWpLv.s:1896   .text.httpclient_send_header:00000000000000d8 .L0 
C:\Users\stapi\AppData\Local\Temp\cc4pWpLv.s:1897   .text.httpclient_send_header:00000000000000d8 .L0 
C:\Users\stapi\AppData\Local\Temp\cc4pWpLv.s:1898   .text.httpclient_send_header:00000000000000d8 .L0 
C:\Users\stapi\AppData\Local\Temp\cc4pWpLv.s:1906   .text.httpclient_send_header:00000000000000ec .L0 
C:\Users\stapi\AppData\Local\Temp\cc4pWpLv.s:1907   .text.httpclient_send_header:00000000000000ec .L0 
C:\Users\stapi\AppData\Local\Temp\cc4pWpLv.s:1908   .text.httpclient_send_header:00000000000000ec .L0 
C:\Users\stapi\AppData\Local\Temp\cc4pWpLv.s:1909   .text.httpclient_send_header:00000000000000ec .L0 
C:\Users\stapi\AppData\Local\Temp\cc4pWpLv.s:1910   .text.httpclient_send_header:00000000000000ec .L0 
C:\Users\stapi\AppData\Local\Temp\cc4pWpLv.s:1912   .text.httpclient_send_header:00000000000000f0 .L0 
C:\Users\stapi\AppData\Local\Temp\cc4pWpLv.s:1914   .text.httpclient_send_header:00000000000000f2 .L0 
C:\Users\stapi\AppData\Local\Temp\cc4pWpLv.s:1915   .text.httpclient_send_header:00000000000000f2 .L0 
C:\Users\stapi\AppData\Local\Temp\cc4pWpLv.s:1921   .text.httpclient_send_header:0000000000000102 .L0 
C:\Users\stapi\AppData\Local\Temp\cc4pWpLv.s:1927   .text.httpclient_send_header:0000000000000112 .L0 
C:\Users\stapi\AppData\Local\Temp\cc4pWpLv.s:1928   .text.httpclient_send_header:0000000000000112 .L0 
C:\Users\stapi\AppData\Local\Temp\cc4pWpLv.s:1932   .text.httpclient_send_header:000000000000011e .L0 
C:\Users\stapi\AppData\Local\Temp\cc4pWpLv.s:1935   .text.httpclient_send_header:000000000000011e .L0 
C:\Users\stapi\AppData\Local\Temp\cc4pWpLv.s:1938   .text.httpclient_send_header:000000000000011e .L0 
C:\Users\stapi\AppData\Local\Temp\cc4pWpLv.s:1939   .text.httpclient_send_header:000000000000011e .L0 
C:\Users\stapi\AppData\Local\Temp\cc4pWpLv.s:1945   .text.httpclient_send_header:0000000000000120 .L0 
C:\Users\stapi\AppData\Local\Temp\cc4pWpLv.s:1946   .text.httpclient_send_header:0000000000000120 .L0 
C:\Users\stapi\AppData\Local\Temp\cc4pWpLv.s:1951   .text.httpclient_send_header:0000000000000130 .L0 
C:\Users\stapi\AppData\Local\Temp\cc4pWpLv.s:1958   .text.httpclient_send_header:0000000000000142 .L0 
C:\Users\stapi\AppData\Local\Temp\cc4pWpLv.s:1959   .text.httpclient_send_header:0000000000000142 .L0 
C:\Users\stapi\AppData\Local\Temp\cc4pWpLv.s:1963   .text.httpclient_send_header:000000000000014e .L0 
C:\Users\stapi\AppData\Local\Temp\cc4pWpLv.s:1965   .text.httpclient_send_header:000000000000014e .L0 
C:\Users\stapi\AppData\Local\Temp\cc4pWpLv.s:1966   .text.httpclient_send_header:000000000000014e .L0 
C:\Users\stapi\AppData\Local\Temp\cc4pWpLv.s:1967   .text.httpclient_send_header:000000000000014e .L0 
C:\Users\stapi\AppData\Local\Temp\cc4pWpLv.s:1971   .text.httpclient_send_header:0000000000000158 .L0 
C:\Users\stapi\AppData\Local\Temp\cc4pWpLv.s:1972   .text.httpclient_send_header:0000000000000158 .L0 
C:\Users\stapi\AppData\Local\Temp\cc4pWpLv.s:1974   .text.httpclient_send_header:000000000000015c .L0 
C:\Users\stapi\AppData\Local\Temp\cc4pWpLv.s:1979   .text.httpclient_send_header:0000000000000166 .L0 
C:\Users\stapi\AppData\Local\Temp\cc4pWpLv.s:1980   .text.httpclient_send_header:0000000000000166 .L0 
C:\Users\stapi\AppData\Local\Temp\cc4pWpLv.s:1982   .text.httpclient_send_header:000000000000016a .L0 
C:\Users\stapi\AppData\Local\Temp\cc4pWpLv.s:1987   .text.httpclient_send_header:0000000000000174 .L0 
C:\Users\stapi\AppData\Local\Temp\cc4pWpLv.s:1988   .text.httpclient_send_header:0000000000000174 .L0 
C:\Users\stapi\AppData\Local\Temp\cc4pWpLv.s:1990   .text.httpclient_send_header:0000000000000176 .L0 
C:\Users\stapi\AppData\Local\Temp\cc4pWpLv.s:1995   .text.httpclient_send_header:0000000000000180 .L0 
C:\Users\stapi\AppData\Local\Temp\cc4pWpLv.s:1997   .text.httpclient_send_header:0000000000000184 .L0 
C:\Users\stapi\AppData\Local\Temp\cc4pWpLv.s:1998   .text.httpclient_send_header:0000000000000184 .L0 
C:\Users\stapi\AppData\Local\Temp\cc4pWpLv.s:2000   .text.httpclient_send_header:000000000000018c .L0 
C:\Users\stapi\AppData\Local\Temp\cc4pWpLv.s:2001   .text.httpclient_send_header:000000000000018c .L0 
C:\Users\stapi\AppData\Local\Temp\cc4pWpLv.s:2002   .text.httpclient_send_header:000000000000018c .L0 
C:\Users\stapi\AppData\Local\Temp\cc4pWpLv.s:2003   .text.httpclient_send_header:000000000000018c .L0 
C:\Users\stapi\AppData\Local\Temp\cc4pWpLv.s:2004   .text.httpclient_send_header:000000000000018c .L0 
C:\Users\stapi\AppData\Local\Temp\cc4pWpLv.s:2005   .text.httpclient_send_header:000000000000018c .L0 
C:\Users\stapi\AppData\Local\Temp\cc4pWpLv.s:2006   .text.httpclient_send_header:000000000000018c .L0 
C:\Users\stapi\AppData\Local\Temp\cc4pWpLv.s:2007   .text.httpclient_send_header:000000000000018c .L0 
C:\Users\stapi\AppData\Local\Temp\cc4pWpLv.s:2008   .text.httpclient_send_header:000000000000018c .L0 
C:\Users\stapi\AppData\Local\Temp\cc4pWpLv.s:2009   .text.httpclient_send_header:000000000000018c .L0 
C:\Users\stapi\AppData\Local\Temp\cc4pWpLv.s:2010   .text.httpclient_send_header:000000000000018c .L0 
C:\Users\stapi\AppData\Local\Temp\cc4pWpLv.s:2011   .text.httpclient_send_header:000000000000018c .L0 
C:\Users\stapi\AppData\Local\Temp\cc4pWpLv.s:2012   .text.httpclient_send_header:000000000000018c .L0 
C:\Users\stapi\AppData\Local\Temp\cc4pWpLv.s:2015   .text.httpclient_send_header:000000000000018c .L0 
C:\Users\stapi\AppData\Local\Temp\cc4pWpLv.s:2017   .text.httpclient_send_header:000000000000018c .L0 
C:\Users\stapi\AppData\Local\Temp\cc4pWpLv.s:2022   .text.httpclient_send_header:0000000000000196 .L0 
C:\Users\stapi\AppData\Local\Temp\cc4pWpLv.s:2027   .text.httpclient_send_header:00000000000001a0 .L0 
C:\Users\stapi\AppData\Local\Temp\cc4pWpLv.s:2032   .text.httpclient_send_header:00000000000001aa .L0 
C:\Users\stapi\AppData\Local\Temp\cc4pWpLv.s:2037   .text.httpclient_send_header:00000000000001b4 .L0 
C:\Users\stapi\AppData\Local\Temp\cc4pWpLv.s:2045   .text.httpclient_send_header:00000000000001be .L0 
C:\Users\stapi\AppData\Local\Temp\cc4pWpLv.s:2046   .text.httpclient_send_header:00000000000001be .L0 
C:\Users\stapi\AppData\Local\Temp\cc4pWpLv.s:2048   .text.httpclient_send_header:00000000000001c2 .L0 
C:\Users\stapi\AppData\Local\Temp\cc4pWpLv.s:2050   .text.httpclient_send_header:00000000000001c6 .L0 
C:\Users\stapi\AppData\Local\Temp\cc4pWpLv.s:2053   .text.httpclient_send_header:00000000000001cc .L0 
C:\Users\stapi\AppData\Local\Temp\cc4pWpLv.s:2058   .text.httpclient_send_header:00000000000001d6 .L0 
C:\Users\stapi\AppData\Local\Temp\cc4pWpLv.s:2059   .text.httpclient_send_header:00000000000001d6 .L0 
C:\Users\stapi\AppData\Local\Temp\cc4pWpLv.s:2062   .text.httpclient_send_header:00000000000001de .L0 
C:\Users\stapi\AppData\Local\Temp\cc4pWpLv.s:2074   .text.httpclient_send_header:00000000000001f4 .L0 
C:\Users\stapi\AppData\Local\Temp\cc4pWpLv.s:2081   .text.httpclient_send_header:0000000000000202 .L0 
C:\Users\stapi\AppData\Local\Temp\cc4pWpLv.s:2082   .text.httpclient_send_header:0000000000000202 .L0 
C:\Users\stapi\AppData\Local\Temp\cc4pWpLv.s:2086   .text.httpclient_send_header:0000000000000206 .L0 
C:\Users\stapi\AppData\Local\Temp\cc4pWpLv.s:2089   .text.httpclient_send_header:0000000000000208 .L0 
C:\Users\stapi\AppData\Local\Temp\cc4pWpLv.s:2092   .text.httpclient_send_header:000000000000020c .L0 
C:\Users\stapi\AppData\Local\Temp\cc4pWpLv.s:2093   .text.httpclient_send_header:000000000000020c .L0 
C:\Users\stapi\AppData\Local\Temp\cc4pWpLv.s:2094   .text.httpclient_send_header:000000000000020c .L0 
C:\Users\stapi\AppData\Local\Temp\cc4pWpLv.s:2095   .text.httpclient_send_header:000000000000020c .L0 
C:\Users\stapi\AppData\Local\Temp\cc4pWpLv.s:2102   .text.httpclient_send_header:000000000000021c .L0 
C:\Users\stapi\AppData\Local\Temp\cc4pWpLv.s:2103   .text.httpclient_send_header:000000000000021c .L0 
C:\Users\stapi\AppData\Local\Temp\cc4pWpLv.s:2105   .text.httpclient_send_header:000000000000021e .L0 
C:\Users\stapi\AppData\Local\Temp\cc4pWpLv.s:2106   .text.httpclient_send_header:000000000000021e .L0 
C:\Users\stapi\AppData\Local\Temp\cc4pWpLv.s:2112   .text.httpclient_send_header:000000000000022e .L0 
C:\Users\stapi\AppData\Local\Temp\cc4pWpLv.s:2117   .text.httpclient_send_header:000000000000023e .L0 
C:\Users\stapi\AppData\Local\Temp\cc4pWpLv.s:2121   .text.httpclient_send_header:000000000000024a .L0 
C:\Users\stapi\AppData\Local\Temp\cc4pWpLv.s:2124   .text.httpclient_send_header:000000000000024a .L0 
C:\Users\stapi\AppData\Local\Temp\cc4pWpLv.s:2127   .text.httpclient_send_header:000000000000024a .L0 
C:\Users\stapi\AppData\Local\Temp\cc4pWpLv.s:2128   .text.httpclient_send_header:000000000000024a .L0 
C:\Users\stapi\AppData\Local\Temp\cc4pWpLv.s:2134   .text.httpclient_send_header:000000000000024e .L0 
C:\Users\stapi\AppData\Local\Temp\cc4pWpLv.s:2135   .text.httpclient_send_header:000000000000024e .L0 
C:\Users\stapi\AppData\Local\Temp\cc4pWpLv.s:2136   .text.httpclient_send_header:000000000000024e .L0 
C:\Users\stapi\AppData\Local\Temp\cc4pWpLv.s:2139   .text.httpclient_send_header:0000000000000252 .L0 
C:\Users\stapi\AppData\Local\Temp\cc4pWpLv.s:2140   .text.httpclient_send_header:0000000000000252 .L0 
C:\Users\stapi\AppData\Local\Temp\cc4pWpLv.s:2142   .text.httpclient_send_header:0000000000000256 .L0 
C:\Users\stapi\AppData\Local\Temp\cc4pWpLv.s:2145   .text.httpclient_send_header:000000000000025e .L0 
C:\Users\stapi\AppData\Local\Temp\cc4pWpLv.s:2150   .text.httpclient_send_header:0000000000000268 .L0 
C:\Users\stapi\AppData\Local\Temp\cc4pWpLv.s:2151   .text.httpclient_send_header:0000000000000268 .L0 
C:\Users\stapi\AppData\Local\Temp\cc4pWpLv.s:2154   .text.httpclient_send_header:0000000000000270 .L0 
C:\Users\stapi\AppData\Local\Temp\cc4pWpLv.s:2162   .text.httpclient_send_header:0000000000000280 .L0 
C:\Users\stapi\AppData\Local\Temp\cc4pWpLv.s:2169   .text.httpclient_send_header:000000000000028e .L0 
C:\Users\stapi\AppData\Local\Temp\cc4pWpLv.s:2170   .text.httpclient_send_header:000000000000028e .L0 
C:\Users\stapi\AppData\Local\Temp\cc4pWpLv.s:2174   .text.httpclient_send_header:0000000000000294 .L0 
C:\Users\stapi\AppData\Local\Temp\cc4pWpLv.s:2175   .text.httpclient_send_header:0000000000000294 .L0 
C:\Users\stapi\AppData\Local\Temp\cc4pWpLv.s:2180   .text.httpclient_send_header:00000000000002a2 .L0 
C:\Users\stapi\AppData\Local\Temp\cc4pWpLv.s:2181   .text.httpclient_send_header:00000000000002a2 .L0 
C:\Users\stapi\AppData\Local\Temp\cc4pWpLv.s:2183   .text.httpclient_send_header:00000000000002a4 .L0 
C:\Users\stapi\AppData\Local\Temp\cc4pWpLv.s:2184   .text.httpclient_send_header:00000000000002a4 .L0 
C:\Users\stapi\AppData\Local\Temp\cc4pWpLv.s:2188   .text.httpclient_send_header:00000000000002a8 .L0 
C:\Users\stapi\AppData\Local\Temp\cc4pWpLv.s:2189   .text.httpclient_send_header:00000000000002a8 .L0 
C:\Users\stapi\AppData\Local\Temp\cc4pWpLv.s:2191   .text.httpclient_send_header:00000000000002ac .L0 
C:\Users\stapi\AppData\Local\Temp\cc4pWpLv.s:2194   .text.httpclient_send_header:00000000000002b4 .L0 
C:\Users\stapi\AppData\Local\Temp\cc4pWpLv.s:2198   .text.httpclient_send_header:00000000000002be .L0 
C:\Users\stapi\AppData\Local\Temp\cc4pWpLv.s:2199   .text.httpclient_send_header:00000000000002be .L0 
C:\Users\stapi\AppData\Local\Temp\cc4pWpLv.s:2202   .text.httpclient_send_header:00000000000002c6 .L0 
C:\Users\stapi\AppData\Local\Temp\cc4pWpLv.s:2210   .text.httpclient_send_header:00000000000002d6 .L0 
C:\Users\stapi\AppData\Local\Temp\cc4pWpLv.s:2211   .text.httpclient_send_header:00000000000002d6 .L0 
C:\Users\stapi\AppData\Local\Temp\cc4pWpLv.s:2221   .text.httpclient_send_header:00000000000002e4 .L0 
C:\Users\stapi\AppData\Local\Temp\cc4pWpLv.s:2227   .text.httpclient_send_header:00000000000002f2 .L0 
C:\Users\stapi\AppData\Local\Temp\cc4pWpLv.s:2228   .text.httpclient_send_header:00000000000002f2 .L0 
C:\Users\stapi\AppData\Local\Temp\cc4pWpLv.s:2233   .text.httpclient_send_header:00000000000002f4 .L0 
C:\Users\stapi\AppData\Local\Temp\cc4pWpLv.s:2242   .text.httpclient_send_header:0000000000000306 .L0 
C:\Users\stapi\AppData\Local\Temp\cc4pWpLv.s:2247   .text.httpclient_send_header:000000000000030a .L0 
C:\Users\stapi\AppData\Local\Temp\cc4pWpLv.s:2248   .text.httpclient_send_header:000000000000030a .L0 
C:\Users\stapi\AppData\Local\Temp\cc4pWpLv.s:2249   .text.httpclient_send_header:000000000000030a .L0 
C:\Users\stapi\AppData\Local\Temp\cc4pWpLv.s:2250   .text.httpclient_send_header:000000000000030a .L0 
C:\Users\stapi\AppData\Local\Temp\cc4pWpLv.s:2251   .text.httpclient_send_header:000000000000030a .L0 
C:\Users\stapi\AppData\Local\Temp\cc4pWpLv.s:2252   .text.httpclient_send_header:000000000000030a .L0 
C:\Users\stapi\AppData\Local\Temp\cc4pWpLv.s:2254   .text.httpclient_send_header:000000000000030c .L0 
C:\Users\stapi\AppData\Local\Temp\cc4pWpLv.s:2256   .text.httpclient_send_header:000000000000030e .L0 
C:\Users\stapi\AppData\Local\Temp\cc4pWpLv.s:2259   .text.httpclient_send_header:0000000000000316 .L0 
C:\Users\stapi\AppData\Local\Temp\cc4pWpLv.s:2260   .text.httpclient_send_header:0000000000000316 .L0 
C:\Users\stapi\AppData\Local\Temp\cc4pWpLv.s:2265   .text.httpclient_send_header:0000000000000322 .L0 
C:\Users\stapi\AppData\Local\Temp\cc4pWpLv.s:2274   .text.httpclient_send_header:0000000000000334 .L0 
C:\Users\stapi\AppData\Local\Temp\cc4pWpLv.s:2275   .text.httpclient_send_header:0000000000000334 .L0 
C:\Users\stapi\AppData\Local\Temp\cc4pWpLv.s:2277   .text.httpclient_send_header:0000000000000336 .L0 
C:\Users\stapi\AppData\Local\Temp\cc4pWpLv.s:2278   .text.httpclient_send_header:0000000000000336 .L0 
C:\Users\stapi\AppData\Local\Temp\cc4pWpLv.s:2283   .text.httpclient_send_header:0000000000000346 .L0 
C:\Users\stapi\AppData\Local\Temp\cc4pWpLv.s:2290   .text.httpclient_send_header:0000000000000358 .L0 
C:\Users\stapi\AppData\Local\Temp\cc4pWpLv.s:2291   .text.httpclient_send_header:0000000000000358 .L0 
C:\Users\stapi\AppData\Local\Temp\cc4pWpLv.s:2294   .text.httpclient_send_header:000000000000035e .L0 
C:\Users\stapi\AppData\Local\Temp\cc4pWpLv.s:2301   .text.httpclient_send_header:000000000000036c .L0 
C:\Users\stapi\AppData\Local\Temp\cc4pWpLv.s:2302   .text.httpclient_send_header:000000000000036c .L0 
C:\Users\stapi\AppData\Local\Temp\cc4pWpLv.s:2304   .text.httpclient_send_header:0000000000000370 .L0 
C:\Users\stapi\AppData\Local\Temp\cc4pWpLv.s:2306   .text.httpclient_send_header:0000000000000372 .L0 
C:\Users\stapi\AppData\Local\Temp\cc4pWpLv.s:2307   .text.httpclient_send_header:0000000000000372 .L0 
C:\Users\stapi\AppData\Local\Temp\cc4pWpLv.s:2312   .text.httpclient_send_header:000000000000037e .L0 
C:\Users\stapi\AppData\Local\Temp\cc4pWpLv.s:2314   .text.httpclient_send_header:0000000000000380 .L0 
C:\Users\stapi\AppData\Local\Temp\cc4pWpLv.s:2316   .text.httpclient_send_header:0000000000000382 .L0 
C:\Users\stapi\AppData\Local\Temp\cc4pWpLv.s:2323   .text.httpclient_send_header:0000000000000390 .L0 
C:\Users\stapi\AppData\Local\Temp\cc4pWpLv.s:2324   .text.httpclient_send_header:0000000000000390 .L0 
C:\Users\stapi\AppData\Local\Temp\cc4pWpLv.s:2327   .text.httpclient_send_header:0000000000000396 .L0 
C:\Users\stapi\AppData\Local\Temp\cc4pWpLv.s:2335   .text.httpclient_send_header:00000000000003b0 .L0 
C:\Users\stapi\AppData\Local\Temp\cc4pWpLv.s:2336   .text.httpclient_send_header:00000000000003b0 .L0 
C:\Users\stapi\AppData\Local\Temp\cc4pWpLv.s:2341   .text.httpclient_send_header:00000000000003bc .L0 
C:\Users\stapi\AppData\Local\Temp\cc4pWpLv.s:2348   .text.httpclient_send_header:00000000000003cc .L0 
C:\Users\stapi\AppData\Local\Temp\cc4pWpLv.s:2349   .text.httpclient_send_header:00000000000003cc .L0 
C:\Users\stapi\AppData\Local\Temp\cc4pWpLv.s:2351   .text.httpclient_send_header:00000000000003d0 .L0 
C:\Users\stapi\AppData\Local\Temp\cc4pWpLv.s:2353   .text.httpclient_send_header:00000000000003d2 .L0 
C:\Users\stapi\AppData\Local\Temp\cc4pWpLv.s:2360   .text.httpclient_send_header:00000000000003e8 .L0 
C:\Users\stapi\AppData\Local\Temp\cc4pWpLv.s:2361   .text.httpclient_send_header:00000000000003e8 .L0 
C:\Users\stapi\AppData\Local\Temp\cc4pWpLv.s:2366   .text.httpclient_send_header:00000000000003f4 .L0 
C:\Users\stapi\AppData\Local\Temp\cc4pWpLv.s:2374   .text.httpclient_send_header:0000000000000404 .L0 
C:\Users\stapi\AppData\Local\Temp\cc4pWpLv.s:2382   .text.httpclient_send_header:0000000000000418 .L0 
C:\Users\stapi\AppData\Local\Temp\cc4pWpLv.s:2394   .text.httpclient_send_header:0000000000000440 .L0 
C:\Users\stapi\AppData\Local\Temp\cc4pWpLv.s:2395   .text.httpclient_send_header:0000000000000440 .L0 
C:\Users\stapi\AppData\Local\Temp\cc4pWpLv.s:2406   .text.httpclient_send_header:0000000000000456 .L0 
C:\Users\stapi\AppData\Local\Temp\cc4pWpLv.s:2407   .text.httpclient_send_header:0000000000000456 .L0 
C:\Users\stapi\AppData\Local\Temp\cc4pWpLv.s:2409   .text.httpclient_send_header:000000000000045a .L0 
C:\Users\stapi\AppData\Local\Temp\cc4pWpLv.s:2421   .text.httpclient_send_header:0000000000000480 .L0 
C:\Users\stapi\AppData\Local\Temp\cc4pWpLv.s:2425   .text.httpclient_send_header:0000000000000482 .L0 
C:\Users\stapi\AppData\Local\Temp\cc4pWpLv.s:2428   .text.httpclient_send_header:0000000000000486 .L0 
C:\Users\stapi\AppData\Local\Temp\cc4pWpLv.s:2430   .text.httpclient_send_header:0000000000000488 .L0 
C:\Users\stapi\AppData\Local\Temp\cc4pWpLv.s:2431   .text.httpclient_send_header:0000000000000488 .L0 
C:\Users\stapi\AppData\Local\Temp\cc4pWpLv.s:2435   .text.httpclient_send_header:0000000000000494 .L0 
C:\Users\stapi\AppData\Local\Temp\cc4pWpLv.s:2440   .text.httpclient_send_header:00000000000004a4 .L0 
C:\Users\stapi\AppData\Local\Temp\cc4pWpLv.s:2444   .text.httpclient_send_header:00000000000004b0 .L0 
C:\Users\stapi\AppData\Local\Temp\cc4pWpLv.s:2445   .text.httpclient_send_header:00000000000004b0 .L0 
C:\Users\stapi\AppData\Local\Temp\cc4pWpLv.s:2446   .text.httpclient_send_header:00000000000004b0 .L0 
C:\Users\stapi\AppData\Local\Temp\cc4pWpLv.s:2447   .text.httpclient_send_header:00000000000004b0 .L0 
C:\Users\stapi\AppData\Local\Temp\cc4pWpLv.s:2449   .text.httpclient_send_header:00000000000004b2 .L0 
C:\Users\stapi\AppData\Local\Temp\cc4pWpLv.s:2453   .text.httpclient_send_header:00000000000004b4 .L0 
C:\Users\stapi\AppData\Local\Temp\cc4pWpLv.s:2456   .text.httpclient_send_header:00000000000004ba .L0 
C:\Users\stapi\AppData\Local\Temp\cc4pWpLv.s:2457   .text.httpclient_send_header:00000000000004ba .L0 
C:\Users\stapi\AppData\Local\Temp\cc4pWpLv.s:2460   .text.httpclient_send_header:00000000000004c2 .L0 
C:\Users\stapi\AppData\Local\Temp\cc4pWpLv.s:2467   .text.httpclient_send_header:00000000000004d6 .L0 
C:\Users\stapi\AppData\Local\Temp\cc4pWpLv.s:2471   .text.httpclient_send_header:00000000000004e2 .L0 
C:\Users\stapi\AppData\Local\Temp\cc4pWpLv.s:2472   .text.httpclient_send_header:00000000000004e2 .L0 
C:\Users\stapi\AppData\Local\Temp\cc4pWpLv.s:2473   .text.httpclient_send_header:00000000000004e2 .L0 
C:\Users\stapi\AppData\Local\Temp\cc4pWpLv.s:2474   .text.httpclient_send_header:00000000000004e2 .L0 
C:\Users\stapi\AppData\Local\Temp\cc4pWpLv.s:2476   .text.httpclient_send_header:00000000000004e4 .L0 
C:\Users\stapi\AppData\Local\Temp\cc4pWpLv.s:2480   .text.httpclient_send_header:00000000000004e6 .L0 
C:\Users\stapi\AppData\Local\Temp\cc4pWpLv.s:2482   .text.httpclient_send_header:00000000000004e8 .L0 
C:\Users\stapi\AppData\Local\Temp\cc4pWpLv.s:2486   .text.httpclient_send_header:00000000000004ea .L0 
C:\Users\stapi\AppData\Local\Temp\cc4pWpLv.s:2491   .text.httpclient_send_header:00000000000004f0 .L0 
C:\Users\stapi\AppData\Local\Temp\cc4pWpLv.s:2493   .text.httpclient_send_header:00000000000004f4 .L0 
C:\Users\stapi\AppData\Local\Temp\cc4pWpLv.s:2507   .text.httpclient_send_userdata:0000000000000000 httpclient_send_userdata
C:\Users\stapi\AppData\Local\Temp\cc4pWpLv.s:2510   .text.httpclient_send_userdata:0000000000000000 .L0 
C:\Users\stapi\AppData\Local\Temp\cc4pWpLv.s:2512   .text.httpclient_send_userdata:0000000000000000 .L0 
C:\Users\stapi\AppData\Local\Temp\cc4pWpLv.s:2513   .text.httpclient_send_userdata:0000000000000000 .L0 
C:\Users\stapi\AppData\Local\Temp\cc4pWpLv.s:2514   .text.httpclient_send_userdata:0000000000000000 .L0 
C:\Users\stapi\AppData\Local\Temp\cc4pWpLv.s:2515   .text.httpclient_send_userdata:0000000000000000 .L0 
C:\Users\stapi\AppData\Local\Temp\cc4pWpLv.s:2517   .text.httpclient_send_userdata:0000000000000002 .L0 
C:\Users\stapi\AppData\Local\Temp\cc4pWpLv.s:2519   .text.httpclient_send_userdata:0000000000000004 .L0 
C:\Users\stapi\AppData\Local\Temp\cc4pWpLv.s:2520   .text.httpclient_send_userdata:000000000000000c .L0 
C:\Users\stapi\AppData\Local\Temp\cc4pWpLv.s:2521   .text.httpclient_send_userdata:000000000000000c .L0 
C:\Users\stapi\AppData\Local\Temp\cc4pWpLv.s:2522   .text.httpclient_send_userdata:000000000000000c .L0 
C:\Users\stapi\AppData\Local\Temp\cc4pWpLv.s:2523   .text.httpclient_send_userdata:000000000000000c .L0 
C:\Users\stapi\AppData\Local\Temp\cc4pWpLv.s:2524   .text.httpclient_send_userdata:000000000000000c .L0 
C:\Users\stapi\AppData\Local\Temp\cc4pWpLv.s:2525   .text.httpclient_send_userdata:000000000000000c .L0 
C:\Users\stapi\AppData\Local\Temp\cc4pWpLv.s:2528   .text.httpclient_send_userdata:000000000000000e .L0 
C:\Users\stapi\AppData\Local\Temp\cc4pWpLv.s:2531   .text.httpclient_send_userdata:0000000000000010 .L0 
C:\Users\stapi\AppData\Local\Temp\cc4pWpLv.s:2532   .text.httpclient_send_userdata:0000000000000012 .L0 
C:\Users\stapi\AppData\Local\Temp\cc4pWpLv.s:2535   .text.httpclient_send_userdata:0000000000000014 .L0 
C:\Users\stapi\AppData\Local\Temp\cc4pWpLv.s:2537   .text.httpclient_send_userdata:0000000000000016 .L0 
C:\Users\stapi\AppData\Local\Temp\cc4pWpLv.s:2549   .text.httpclient_send_userdata:000000000000003c .L0 
C:\Users\stapi\AppData\Local\Temp\cc4pWpLv.s:2550   .text.httpclient_send_userdata:000000000000003c .L0 
C:\Users\stapi\AppData\Local\Temp\cc4pWpLv.s:2561   .text.httpclient_send_userdata:0000000000000050 .L0 
C:\Users\stapi\AppData\Local\Temp\cc4pWpLv.s:2562   .text.httpclient_send_userdata:0000000000000050 .L0 
C:\Users\stapi\AppData\Local\Temp\cc4pWpLv.s:2564   .text.httpclient_send_userdata:0000000000000054 .L0 
C:\Users\stapi\AppData\Local\Temp\cc4pWpLv.s:2574   .text.httpclient_send_userdata:0000000000000072 .L0 
C:\Users\stapi\AppData\Local\Temp\cc4pWpLv.s:2578   .text.httpclient_send_userdata:0000000000000074 .L0 
C:\Users\stapi\AppData\Local\Temp\cc4pWpLv.s:2579   .text.httpclient_send_userdata:0000000000000076 .L0 
C:\Users\stapi\AppData\Local\Temp\cc4pWpLv.s:2580   .text.httpclient_send_userdata:0000000000000076 .L0 
C:\Users\stapi\AppData\Local\Temp\cc4pWpLv.s:2582   .text.httpclient_send_userdata:000000000000007e .L0 
C:\Users\stapi\AppData\Local\Temp\cc4pWpLv.s:2583   .text.httpclient_send_userdata:000000000000007e .L0 
C:\Users\stapi\AppData\Local\Temp\cc4pWpLv.s:2584   .text.httpclient_send_userdata:000000000000007e .L0 
C:\Users\stapi\AppData\Local\Temp\cc4pWpLv.s:2585   .text.httpclient_send_userdata:000000000000007e .L0 
C:\Users\stapi\AppData\Local\Temp\cc4pWpLv.s:2586   .text.httpclient_send_userdata:000000000000007e .L0 
C:\Users\stapi\AppData\Local\Temp\cc4pWpLv.s:2587   .text.httpclient_send_userdata:000000000000007e .L0 
C:\Users\stapi\AppData\Local\Temp\cc4pWpLv.s:2590   .text.httpclient_send_userdata:000000000000007e .L0 
C:\Users\stapi\AppData\Local\Temp\cc4pWpLv.s:2592   .text.httpclient_send_userdata:000000000000007e .L0 
C:\Users\stapi\AppData\Local\Temp\cc4pWpLv.s:2597   .text.httpclient_send_userdata:0000000000000086 .L0 
C:\Users\stapi\AppData\Local\Temp\cc4pWpLv.s:2599   .text.httpclient_send_userdata:0000000000000088 .L0 
C:\Users\stapi\AppData\Local\Temp\cc4pWpLv.s:2600   .text.httpclient_send_userdata:0000000000000088 .L0 
C:\Users\stapi\AppData\Local\Temp\cc4pWpLv.s:2604   .text.httpclient_send_userdata:0000000000000094 .L0 
C:\Users\stapi\AppData\Local\Temp\cc4pWpLv.s:2609   .text.httpclient_send_userdata:00000000000000a4 .L0 
C:\Users\stapi\AppData\Local\Temp\cc4pWpLv.s:2613   .text.httpclient_send_userdata:00000000000000b0 .L0 
C:\Users\stapi\AppData\Local\Temp\cc4pWpLv.s:2614   .text.httpclient_send_userdata:00000000000000b0 .L0 
C:\Users\stapi\AppData\Local\Temp\cc4pWpLv.s:2615   .text.httpclient_send_userdata:00000000000000b0 .L0 
C:\Users\stapi\AppData\Local\Temp\cc4pWpLv.s:2620   .text.httpclient_send_userdata:00000000000000b4 .L0 
C:\Users\stapi\AppData\Local\Temp\cc4pWpLv.s:2623   .text.httpclient_send_userdata:00000000000000ba .L0 
C:\Users\stapi\AppData\Local\Temp\cc4pWpLv.s:2624   .text.httpclient_send_userdata:00000000000000ba .L0 
C:\Users\stapi\AppData\Local\Temp\cc4pWpLv.s:2627   .text.httpclient_send_userdata:00000000000000c2 .L0 
C:\Users\stapi\AppData\Local\Temp\cc4pWpLv.s:2634   .text.httpclient_send_userdata:00000000000000d6 .L0 
C:\Users\stapi\AppData\Local\Temp\cc4pWpLv.s:2638   .text.httpclient_send_userdata:00000000000000e2 .L0 
C:\Users\stapi\AppData\Local\Temp\cc4pWpLv.s:2639   .text.httpclient_send_userdata:00000000000000e2 .L0 
C:\Users\stapi\AppData\Local\Temp\cc4pWpLv.s:2640   .text.httpclient_send_userdata:00000000000000e2 .L0 
C:\Users\stapi\AppData\Local\Temp\cc4pWpLv.s:2644   .text.httpclient_send_userdata:00000000000000e6 .L0 
C:\Users\stapi\AppData\Local\Temp\cc4pWpLv.s:2645   .text.httpclient_send_userdata:00000000000000e6 .L0 
C:\Users\stapi\AppData\Local\Temp\cc4pWpLv.s:2646   .text.httpclient_send_userdata:00000000000000e6 .L0 
C:\Users\stapi\AppData\Local\Temp\cc4pWpLv.s:2647   .text.httpclient_send_userdata:00000000000000e6 .L0 
C:\Users\stapi\AppData\Local\Temp\cc4pWpLv.s:2648   .text.httpclient_send_userdata:00000000000000e6 .L0 
C:\Users\stapi\AppData\Local\Temp\cc4pWpLv.s:2649   .text.httpclient_send_userdata:00000000000000e6 .L0 
C:\Users\stapi\AppData\Local\Temp\cc4pWpLv.s:2651   .text.httpclient_send_userdata:00000000000000e6 .L0 
C:\Users\stapi\AppData\Local\Temp\cc4pWpLv.s:2654   .text.httpclient_send_userdata:00000000000000e8 .L0 
C:\Users\stapi\AppData\Local\Temp\cc4pWpLv.s:2655   .text.httpclient_send_userdata:00000000000000ea .L0 
C:\Users\stapi\AppData\Local\Temp\cc4pWpLv.s:2666   .text.httpclient_connect:0000000000000000 httpclient_connect
C:\Users\stapi\AppData\Local\Temp\cc4pWpLv.s:2669   .text.httpclient_connect:0000000000000000 .L0 
C:\Users\stapi\AppData\Local\Temp\cc4pWpLv.s:2671   .text.httpclient_connect:0000000000000000 .L0 
C:\Users\stapi\AppData\Local\Temp\cc4pWpLv.s:2672   .text.httpclient_connect:0000000000000008 .L0 
C:\Users\stapi\AppData\Local\Temp\cc4pWpLv.s:2673   .text.httpclient_connect:0000000000000008 .L0 
C:\Users\stapi\AppData\Local\Temp\cc4pWpLv.s:2676   .text.httpclient_connect:0000000000000008 .L0 
C:\Users\stapi\AppData\Local\Temp\cc4pWpLv.s:2679   .text.httpclient_connect:0000000000000008 .L0 
C:\Users\stapi\AppData\Local\Temp\cc4pWpLv.s:2680   .text.httpclient_connect:0000000000000008 .L0 
C:\Users\stapi\AppData\Local\Temp\cc4pWpLv.s:2684   .text.httpclient_connect:000000000000000a .L0 
C:\Users\stapi\AppData\Local\Temp\cc4pWpLv.s:2689   .text.httpclient_connect:000000000000000e .L0 
C:\Users\stapi\AppData\Local\Temp\cc4pWpLv.s:2690   .text.httpclient_connect:000000000000000e .L0 
C:\Users\stapi\AppData\Local\Temp\cc4pWpLv.s:2691   .text.httpclient_connect:000000000000000e .L0 
C:\Users\stapi\AppData\Local\Temp\cc4pWpLv.s:2696   .text.httpclient_connect:0000000000000012 .L0 
C:\Users\stapi\AppData\Local\Temp\cc4pWpLv.s:2698   .text.httpclient_connect:0000000000000014 .L0 
C:\Users\stapi\AppData\Local\Temp\cc4pWpLv.s:2699   .text.httpclient_connect:0000000000000014 .L0 
C:\Users\stapi\AppData\Local\Temp\cc4pWpLv.s:2704   .text.httpclient_connect:0000000000000024 .L0 
C:\Users\stapi\AppData\Local\Temp\cc4pWpLv.s:2709   .text.httpclient_connect:0000000000000034 .L0 
C:\Users\stapi\AppData\Local\Temp\cc4pWpLv.s:2714   .text.httpclient_connect:0000000000000044 .L0 
C:\Users\stapi\AppData\Local\Temp\cc4pWpLv.s:2715   .text.httpclient_connect:0000000000000044 .L0 
C:\Users\stapi\AppData\Local\Temp\cc4pWpLv.s:2716   .text.httpclient_connect:0000000000000044 .L0 
C:\Users\stapi\AppData\Local\Temp\cc4pWpLv.s:2722   .text.httpclient_connect:0000000000000046 .L0 
C:\Users\stapi\AppData\Local\Temp\cc4pWpLv.s:2723   .text.httpclient_connect:0000000000000046 .L0 
C:\Users\stapi\AppData\Local\Temp\cc4pWpLv.s:2724   .text.httpclient_connect:000000000000004e .L0 
C:\Users\stapi\AppData\Local\Temp\cc4pWpLv.s:2725   .text.httpclient_connect:000000000000004e .L0 
C:\Users\stapi\AppData\Local\Temp\cc4pWpLv.s:2726   .text.httpclient_connect:000000000000004e .L0 
C:\Users\stapi\AppData\Local\Temp\cc4pWpLv.s:2740   .text.httpclient_send_request:0000000000000000 httpclient_send_request
C:\Users\stapi\AppData\Local\Temp\cc4pWpLv.s:2743   .text.httpclient_send_request:0000000000000000 .L0 
C:\Users\stapi\AppData\Local\Temp\cc4pWpLv.s:2745   .text.httpclient_send_request:0000000000000000 .L0 
C:\Users\stapi\AppData\Local\Temp\cc4pWpLv.s:2746   .text.httpclient_send_request:0000000000000008 .L0 
C:\Users\stapi\AppData\Local\Temp\cc4pWpLv.s:2747   .text.httpclient_send_request:0000000000000008 .L0 
C:\Users\stapi\AppData\Local\Temp\cc4pWpLv.s:2748   .text.httpclient_send_request:0000000000000008 .L0 
C:\Users\stapi\AppData\Local\Temp\cc4pWpLv.s:2749   .text.httpclient_send_request:0000000000000008 .L0 
C:\Users\stapi\AppData\Local\Temp\cc4pWpLv.s:2750   .text.httpclient_send_request:0000000000000008 .L0 
C:\Users\stapi\AppData\Local\Temp\cc4pWpLv.s:2751   .text.httpclient_send_request:0000000000000008 .L0 
C:\Users\stapi\AppData\Local\Temp\cc4pWpLv.s:2754   .text.httpclient_send_request:0000000000000008 .L0 
C:\Users\stapi\AppData\Local\Temp\cc4pWpLv.s:2755   .text.httpclient_send_request:0000000000000008 .L0 
C:\Users\stapi\AppData\Local\Temp\cc4pWpLv.s:2756   .text.httpclient_send_request:0000000000000008 .L0 
C:\Users\stapi\AppData\Local\Temp\cc4pWpLv.s:2759   .text.httpclient_send_request:000000000000000c .L0 
C:\Users\stapi\AppData\Local\Temp\cc4pWpLv.s:2760   .text.httpclient_send_request:000000000000000c .L0 
C:\Users\stapi\AppData\Local\Temp\cc4pWpLv.s:2766   .text.httpclient_send_request:000000000000001c .L0 
C:\Users\stapi\AppData\Local\Temp\cc4pWpLv.s:2771   .text.httpclient_send_request:000000000000002c .L0 
C:\Users\stapi\AppData\Local\Temp\cc4pWpLv.s:2776   .text.httpclient_send_request:000000000000003c .L0 
C:\Users\stapi\AppData\Local\Temp\cc4pWpLv.s:2777   .text.httpclient_send_request:000000000000003c .L0 
C:\Users\stapi\AppData\Local\Temp\cc4pWpLv.s:2778   .text.httpclient_send_request:000000000000003c .L0 
C:\Users\stapi\AppData\Local\Temp\cc4pWpLv.s:2782   .text.httpclient_send_request:000000000000003e .L0 
C:\Users\stapi\AppData\Local\Temp\cc4pWpLv.s:2784   .text.httpclient_send_request:0000000000000048 .L0 
C:\Users\stapi\AppData\Local\Temp\cc4pWpLv.s:2785   .text.httpclient_send_request:0000000000000048 .L0 
C:\Users\stapi\AppData\Local\Temp\cc4pWpLv.s:2786   .text.httpclient_send_request:0000000000000048 .L0 
C:\Users\stapi\AppData\Local\Temp\cc4pWpLv.s:2787   .text.httpclient_send_request:0000000000000048 .L0 
C:\Users\stapi\AppData\Local\Temp\cc4pWpLv.s:2788   .text.httpclient_send_request:0000000000000048 .L0 
C:\Users\stapi\AppData\Local\Temp\cc4pWpLv.s:2789   .text.httpclient_send_request:0000000000000048 .L0 
C:\Users\stapi\AppData\Local\Temp\cc4pWpLv.s:2790   .text.httpclient_send_request:0000000000000048 .L0 
C:\Users\stapi\AppData\Local\Temp\cc4pWpLv.s:2793   .text.httpclient_send_request:0000000000000048 .L0 
C:\Users\stapi\AppData\Local\Temp\cc4pWpLv.s:2798   .text.httpclient_send_request:000000000000004e .L0 
C:\Users\stapi\AppData\Local\Temp\cc4pWpLv.s:2799   .text.httpclient_send_request:000000000000004e .L0 
C:\Users\stapi\AppData\Local\Temp\cc4pWpLv.s:2804   .text.httpclient_send_request:0000000000000058 .L0 
C:\Users\stapi\AppData\Local\Temp\cc4pWpLv.s:2805   .text.httpclient_send_request:0000000000000058 .L0 
C:\Users\stapi\AppData\Local\Temp\cc4pWpLv.s:2807   .text.httpclient_send_request:000000000000005a .L0 
C:\Users\stapi\AppData\Local\Temp\cc4pWpLv.s:2808   .text.httpclient_send_request:000000000000005a .L0 
C:\Users\stapi\AppData\Local\Temp\cc4pWpLv.s:2813   .text.httpclient_send_request:000000000000006a .L0 
C:\Users\stapi\AppData\Local\Temp\cc4pWpLv.s:2819   .text.httpclient_send_request:000000000000007c .L0 
C:\Users\stapi\AppData\Local\Temp\cc4pWpLv.s:2824   .text.httpclient_send_request:000000000000008c .L0 
C:\Users\stapi\AppData\Local\Temp\cc4pWpLv.s:2825   .text.httpclient_send_request:000000000000008c .L0 
C:\Users\stapi\AppData\Local\Temp\cc4pWpLv.s:2826   .text.httpclient_send_request:000000000000008c .L0 
C:\Users\stapi\AppData\Local\Temp\cc4pWpLv.s:2829   .text.httpclient_send_request:000000000000008e .L0 
C:\Users\stapi\AppData\Local\Temp\cc4pWpLv.s:2830   .text.httpclient_send_request:000000000000008e .L0 
C:\Users\stapi\AppData\Local\Temp\cc4pWpLv.s:2833   .text.httpclient_send_request:0000000000000090 .L0 
C:\Users\stapi\AppData\Local\Temp\cc4pWpLv.s:2836   .text.httpclient_send_request:0000000000000096 .L0 
C:\Users\stapi\AppData\Local\Temp\cc4pWpLv.s:2837   .text.httpclient_send_request:0000000000000096 .L0 
C:\Users\stapi\AppData\Local\Temp\cc4pWpLv.s:2844   .text.httpclient_send_request:00000000000000a6 .L0 
C:\Users\stapi\AppData\Local\Temp\cc4pWpLv.s:2891   .text.httpclient_recv_response:0000000000000000 httpclient_recv_response
C:\Users\stapi\AppData\Local\Temp\cc4pWpLv.s:2894   .text.httpclient_recv_response:0000000000000000 .L0 
C:\Users\stapi\AppData\Local\Temp\cc4pWpLv.s:2896   .text.httpclient_recv_response:0000000000000000 .L0 
C:\Users\stapi\AppData\Local\Temp\cc4pWpLv.s:2897   .text.httpclient_recv_response:0000000000000008 .L0 
C:\Users\stapi\AppData\Local\Temp\cc4pWpLv.s:2898   .text.httpclient_recv_response:0000000000000008 .L0 
C:\Users\stapi\AppData\Local\Temp\cc4pWpLv.s:2899   .text.httpclient_recv_response:0000000000000008 .L0 
C:\Users\stapi\AppData\Local\Temp\cc4pWpLv.s:2900   .text.httpclient_recv_response:0000000000000008 .L0 
C:\Users\stapi\AppData\Local\Temp\cc4pWpLv.s:2901   .text.httpclient_recv_response:0000000000000008 .L0 
C:\Users\stapi\AppData\Local\Temp\cc4pWpLv.s:2902   .text.httpclient_recv_response:0000000000000008 .L0 
C:\Users\stapi\AppData\Local\Temp\cc4pWpLv.s:2903   .text.httpclient_recv_response:0000000000000008 .L0 
C:\Users\stapi\AppData\Local\Temp\cc4pWpLv.s:2904   .text.httpclient_recv_response:0000000000000008 .L0 
C:\Users\stapi\AppData\Local\Temp\cc4pWpLv.s:2905   .text.httpclient_recv_response:0000000000000008 .L0 
C:\Users\stapi\AppData\Local\Temp\cc4pWpLv.s:2906   .text.httpclient_recv_response:0000000000000008 .L0 
C:\Users\stapi\AppData\Local\Temp\cc4pWpLv.s:2907   .text.httpclient_recv_response:0000000000000008 .L0 
C:\Users\stapi\AppData\Local\Temp\cc4pWpLv.s:2908   .text.httpclient_recv_response:0000000000000008 .L0 
C:\Users\stapi\AppData\Local\Temp\cc4pWpLv.s:2909   .text.httpclient_recv_response:0000000000000008 .L0 
C:\Users\stapi\AppData\Local\Temp\cc4pWpLv.s:2910   .text.httpclient_recv_response:0000000000000008 .L0 
C:\Users\stapi\AppData\Local\Temp\cc4pWpLv.s:2912   .text.httpclient_recv_response:0000000000000008 .L0 
C:\Users\stapi\AppData\Local\Temp\cc4pWpLv.s:2913   .text.httpclient_recv_response:0000000000000008 .L0 
C:\Users\stapi\AppData\Local\Temp\cc4pWpLv.s:2914   .text.httpclient_recv_response:000000000000000a .L0 
C:\Users\stapi\AppData\Local\Temp\cc4pWpLv.s:2916   .text.httpclient_recv_response:000000000000000a .L0 
C:\Users\stapi\AppData\Local\Temp\cc4pWpLv.s:2920   .text.httpclient_recv_response:0000000000000010 .L0 
C:\Users\stapi\AppData\Local\Temp\cc4pWpLv.s:2927   .text.httpclient_recv_response:0000000000000018 .L0 
C:\Users\stapi\AppData\Local\Temp\cc4pWpLv.s:2930   .text.httpclient_recv_response:000000000000001a .L0 
C:\Users\stapi\AppData\Local\Temp\cc4pWpLv.s:2931   .text.httpclient_recv_response:000000000000001a .L0 
C:\Users\stapi\AppData\Local\Temp\cc4pWpLv.s:2932   .text.httpclient_recv_response:000000000000001a .L0 
C:\Users\stapi\AppData\Local\Temp\cc4pWpLv.s:2935   .text.httpclient_recv_response:0000000000000022 .L0 
C:\Users\stapi\AppData\Local\Temp\cc4pWpLv.s:2936   .text.httpclient_recv_response:0000000000000022 .L0 
C:\Users\stapi\AppData\Local\Temp\cc4pWpLv.s:2938   .text.httpclient_recv_response:0000000000000026 .L0 
C:\Users\stapi\AppData\Local\Temp\cc4pWpLv.s:2942   .text.httpclient_recv_response:000000000000002e .L0 
C:\Users\stapi\AppData\Local\Temp\cc4pWpLv.s:2945   .text.httpclient_recv_response:0000000000000036 .L0 
C:\Users\stapi\AppData\Local\Temp\cc4pWpLv.s:2949   .text.httpclient_recv_response:0000000000000040 .L0 
C:\Users\stapi\AppData\Local\Temp\cc4pWpLv.s:2954   .text.httpclient_recv_response:000000000000004c .L0 
C:\Users\stapi\AppData\Local\Temp\cc4pWpLv.s:2955   .text.httpclient_recv_response:000000000000004c .L0 
C:\Users\stapi\AppData\Local\Temp\cc4pWpLv.s:2958   .text.httpclient_recv_response:0000000000000052 .L0 
C:\Users\stapi\AppData\Local\Temp\cc4pWpLv.s:2959   .text.httpclient_recv_response:0000000000000052 .L0 
C:\Users\stapi\AppData\Local\Temp\cc4pWpLv.s:2964   .text.httpclient_recv_response:0000000000000062 .L0 
C:\Users\stapi\AppData\Local\Temp\cc4pWpLv.s:2969   .text.httpclient_recv_response:0000000000000072 .L0 
C:\Users\stapi\AppData\Local\Temp\cc4pWpLv.s:2974   .text.httpclient_recv_response:0000000000000082 .L0 
C:\Users\stapi\AppData\Local\Temp\cc4pWpLv.s:2975   .text.httpclient_recv_response:0000000000000082 .L0 
C:\Users\stapi\AppData\Local\Temp\cc4pWpLv.s:2976   .text.httpclient_recv_response:0000000000000082 .L0 
C:\Users\stapi\AppData\Local\Temp\cc4pWpLv.s:2977   .text.httpclient_recv_response:0000000000000082 .L0 
C:\Users\stapi\AppData\Local\Temp\cc4pWpLv.s:2981   .text.httpclient_recv_response:0000000000000084 .L0 
C:\Users\stapi\AppData\Local\Temp\cc4pWpLv.s:2982   .text.httpclient_recv_response:0000000000000084 .L0 
C:\Users\stapi\AppData\Local\Temp\cc4pWpLv.s:2989   .text.httpclient_recv_response:0000000000000090 .L0 
C:\Users\stapi\AppData\Local\Temp\cc4pWpLv.s:2990   .text.httpclient_recv_response:0000000000000090 .L0 
C:\Users\stapi\AppData\Local\Temp\cc4pWpLv.s:2993   .text.httpclient_recv_response:0000000000000096 .L0 
C:\Users\stapi\AppData\Local\Temp\cc4pWpLv.s:2994   .text.httpclient_recv_response:0000000000000096 .L0 
C:\Users\stapi\AppData\Local\Temp\cc4pWpLv.s:2996   .text.httpclient_recv_response:000000000000009a .L0 
C:\Users\stapi\AppData\Local\Temp\cc4pWpLv.s:2998   .text.httpclient_recv_response:000000000000009c .L0 
C:\Users\stapi\AppData\Local\Temp\cc4pWpLv.s:3000   .text.httpclient_recv_response:00000000000000a0 .L0 
C:\Users\stapi\AppData\Local\Temp\cc4pWpLv.s:3001   .text.httpclient_recv_response:00000000000000a0 .L0 
C:\Users\stapi\AppData\Local\Temp\cc4pWpLv.s:3013   .text.httpclient_recv_response:00000000000000b2 .L0 
C:\Users\stapi\AppData\Local\Temp\cc4pWpLv.s:3025   .text.httpclient_recv_response:00000000000000c2 .L0 
C:\Users\stapi\AppData\Local\Temp\cc4pWpLv.s:3026   .text.httpclient_recv_response:00000000000000c2 .L0 
C:\Users\stapi\AppData\Local\Temp\cc4pWpLv.s:3029   .text.httpclient_recv_response:00000000000000c8 .L0 
C:\Users\stapi\AppData\Local\Temp\cc4pWpLv.s:3030   .text.httpclient_recv_response:00000000000000c8 .L0 
C:\Users\stapi\AppData\Local\Temp\cc4pWpLv.s:3043   .text.httpclient_recv_response:00000000000000e8 .L0 
C:\Users\stapi\AppData\Local\Temp\cc4pWpLv.s:3044   .text.httpclient_recv_response:00000000000000e8 .L0 
C:\Users\stapi\AppData\Local\Temp\cc4pWpLv.s:3046   .text.httpclient_recv_response:00000000000000ea .L0 
C:\Users\stapi\AppData\Local\Temp\cc4pWpLv.s:3047   .text.httpclient_recv_response:00000000000000ea .L0 
C:\Users\stapi\AppData\Local\Temp\cc4pWpLv.s:3051   .text.httpclient_recv_response:00000000000000f2 .L0 
C:\Users\stapi\AppData\Local\Temp\cc4pWpLv.s:3052   .text.httpclient_recv_response:00000000000000f2 .L0 
C:\Users\stapi\AppData\Local\Temp\cc4pWpLv.s:3055   .text.httpclient_recv_response:00000000000000f4 .L0 
C:\Users\stapi\AppData\Local\Temp\cc4pWpLv.s:3057   .text.httpclient_recv_response:00000000000000f6 .L0 
C:\Users\stapi\AppData\Local\Temp\cc4pWpLv.s:3070   .text.httpclient_recv_response:000000000000011e .L0 
C:\Users\stapi\AppData\Local\Temp\cc4pWpLv.s:3071   .text.httpclient_recv_response:000000000000011e .L0 
C:\Users\stapi\AppData\Local\Temp\cc4pWpLv.s:3080   .text.httpclient_recv_response:000000000000012c .L0 
C:\Users\stapi\AppData\Local\Temp\cc4pWpLv.s:3081   .text.httpclient_recv_response:000000000000012c .L0 
C:\Users\stapi\AppData\Local\Temp\cc4pWpLv.s:3082   .text.httpclient_recv_response:000000000000012c .L0 
C:\Users\stapi\AppData\Local\Temp\cc4pWpLv.s:3083   .text.httpclient_recv_response:000000000000012c .L0 
C:\Users\stapi\AppData\Local\Temp\cc4pWpLv.s:3084   .text.httpclient_recv_response:000000000000012c .L0 
C:\Users\stapi\AppData\Local\Temp\cc4pWpLv.s:3089   .text.httpclient_recv_response:0000000000000136 .L0 
C:\Users\stapi\AppData\Local\Temp\cc4pWpLv.s:3092   .text.httpclient_recv_response:000000000000013a .L0 
C:\Users\stapi\AppData\Local\Temp\cc4pWpLv.s:3094   .text.httpclient_recv_response:000000000000013e .L0 
C:\Users\stapi\AppData\Local\Temp\cc4pWpLv.s:3097   .text.httpclient_recv_response:0000000000000146 .L0 
C:\Users\stapi\AppData\Local\Temp\cc4pWpLv.s:3098   .text.httpclient_recv_response:0000000000000146 .L0 
C:\Users\stapi\AppData\Local\Temp\cc4pWpLv.s:3101   .text.httpclient_recv_response:000000000000014c .L0 
C:\Users\stapi\AppData\Local\Temp\cc4pWpLv.s:3102   .text.httpclient_recv_response:000000000000014c .L0 
C:\Users\stapi\AppData\Local\Temp\cc4pWpLv.s:3107   .text.httpclient_recv_response:000000000000015a .L0 
C:\Users\stapi\AppData\Local\Temp\cc4pWpLv.s:3109   .text.httpclient_recv_response:000000000000015c .L0 
C:\Users\stapi\AppData\Local\Temp\cc4pWpLv.s:3111   .text.httpclient_recv_response:000000000000015e .L0 
C:\Users\stapi\AppData\Local\Temp\cc4pWpLv.s:3112   .text.httpclient_recv_response:000000000000015e .L0 
C:\Users\stapi\AppData\Local\Temp\cc4pWpLv.s:3118   .text.httpclient_recv_response:000000000000016e .L0 
C:\Users\stapi\AppData\Local\Temp\cc4pWpLv.s:3123   .text.httpclient_recv_response:000000000000017e .L0 
C:\Users\stapi\AppData\Local\Temp\cc4pWpLv.s:3127   .text.httpclient_recv_response:000000000000018a .L0 
C:\Users\stapi\AppData\Local\Temp\cc4pWpLv.s:3128   .text.httpclient_recv_response:000000000000018a .L0 
C:\Users\stapi\AppData\Local\Temp\cc4pWpLv.s:3129   .text.httpclient_recv_response:000000000000018a .L0 
C:\Users\stapi\AppData\Local\Temp\cc4pWpLv.s:3134   .text.httpclient_recv_response:000000000000018e .L0 
C:\Users\stapi\AppData\Local\Temp\cc4pWpLv.s:3135   .text.httpclient_recv_response:000000000000018e .L0 
C:\Users\stapi\AppData\Local\Temp\cc4pWpLv.s:3137   .text.httpclient_recv_response:0000000000000192 .L0 
C:\Users\stapi\AppData\Local\Temp\cc4pWpLv.s:3140   .text.httpclient_recv_response:0000000000000196 .L0 
C:\Users\stapi\AppData\Local\Temp\cc4pWpLv.s:3141   .text.httpclient_recv_response:0000000000000196 .L0 
C:\Users\stapi\AppData\Local\Temp\cc4pWpLv.s:3142   .text.httpclient_recv_response:0000000000000196 .L0 
C:\Users\stapi\AppData\Local\Temp\cc4pWpLv.s:3147   .text.httpclient_recv_response:00000000000001a2 .L0 
C:\Users\stapi\AppData\Local\Temp\cc4pWpLv.s:3149   .text.httpclient_recv_response:00000000000001a6 .L0 
C:\Users\stapi\AppData\Local\Temp\cc4pWpLv.s:3150   .text.httpclient_recv_response:00000000000001a6 .L0 
C:\Users\stapi\AppData\Local\Temp\cc4pWpLv.s:3152   .text.httpclient_recv_response:00000000000001aa .L0 
C:\Users\stapi\AppData\Local\Temp\cc4pWpLv.s:3154   .text.httpclient_recv_response:00000000000001ae .L0 
C:\Users\stapi\AppData\Local\Temp\cc4pWpLv.s:3156   .text.httpclient_recv_response:00000000000001b2 .L0 
C:\Users\stapi\AppData\Local\Temp\cc4pWpLv.s:3157   .text.httpclient_recv_response:00000000000001b2 .L0 
C:\Users\stapi\AppData\Local\Temp\cc4pWpLv.s:3162   .text.httpclient_recv_response:00000000000001c2 .L0 
C:\Users\stapi\AppData\Local\Temp\cc4pWpLv.s:3168   .text.httpclient_recv_response:00000000000001d6 .L0 
C:\Users\stapi\AppData\Local\Temp\cc4pWpLv.s:3173   .text.httpclient_recv_response:00000000000001e2 .L0 
C:\Users\stapi\AppData\Local\Temp\cc4pWpLv.s:3174   .text.httpclient_recv_response:00000000000001e2 .L0 
C:\Users\stapi\AppData\Local\Temp\cc4pWpLv.s:3186   .text.httpclient_recv_response:000000000000020a .L0 
C:\Users\stapi\AppData\Local\Temp\cc4pWpLv.s:3187   .text.httpclient_recv_response:000000000000020a .L0 
C:\Users\stapi\AppData\Local\Temp\cc4pWpLv.s:3189   .text.httpclient_recv_response:000000000000020e .L0 
C:\Users\stapi\AppData\Local\Temp\cc4pWpLv.s:3192   .text.httpclient_recv_response:0000000000000212 .L0 
C:\Users\stapi\AppData\Local\Temp\cc4pWpLv.s:3198   .text.httpclient_recv_response:0000000000000222 .L0 
C:\Users\stapi\AppData\Local\Temp\cc4pWpLv.s:3199   .text.httpclient_recv_response:0000000000000222 .L0 
C:\Users\stapi\AppData\Local\Temp\cc4pWpLv.s:3200   .text.httpclient_recv_response:0000000000000222 .L0 
C:\Users\stapi\AppData\Local\Temp\cc4pWpLv.s:3202   .text.httpclient_recv_response:0000000000000226 .L0 
C:\Users\stapi\AppData\Local\Temp\cc4pWpLv.s:3205   .text.httpclient_recv_response:000000000000022a .L0 
C:\Users\stapi\AppData\Local\Temp\cc4pWpLv.s:3206   .text.httpclient_recv_response:000000000000022a .L0 
C:\Users\stapi\AppData\Local\Temp\cc4pWpLv.s:3208   .text.httpclient_recv_response:000000000000022e .L0 
C:\Users\stapi\AppData\Local\Temp\cc4pWpLv.s:3210   .text.httpclient_recv_response:0000000000000232 .L0 
C:\Users\stapi\AppData\Local\Temp\cc4pWpLv.s:3215   .text.httpclient_recv_response:0000000000000234 .L0 
C:\Users\stapi\AppData\Local\Temp\cc4pWpLv.s:3216   .text.httpclient_recv_response:0000000000000234 .L0 
C:\Users\stapi\AppData\Local\Temp\cc4pWpLv.s:3223   .text.httpclient_recv_response:0000000000000244 .L0 
C:\Users\stapi\AppData\Local\Temp\cc4pWpLv.s:3225   .text.httpclient_recv_response:0000000000000246 .L0 
C:\Users\stapi\AppData\Local\Temp\cc4pWpLv.s:3226   .text.httpclient_recv_response:0000000000000246 .L0 
C:\Users\stapi\AppData\Local\Temp\cc4pWpLv.s:3232   .text.httpclient_recv_response:0000000000000258 .L0 
C:\Users\stapi\AppData\Local\Temp\cc4pWpLv.s:3234   .text.httpclient_recv_response:000000000000025a .L0 
C:\Users\stapi\AppData\Local\Temp\cc4pWpLv.s:3235   .text.httpclient_recv_response:000000000000025a .L0 
C:\Users\stapi\AppData\Local\Temp\cc4pWpLv.s:3240   .text.httpclient_recv_response:0000000000000264 .L0 
C:\Users\stapi\AppData\Local\Temp\cc4pWpLv.s:3242   .text.httpclient_recv_response:0000000000000268 .L0 
C:\Users\stapi\AppData\Local\Temp\cc4pWpLv.s:3243   .text.httpclient_recv_response:0000000000000268 .L0 
C:\Users\stapi\AppData\Local\Temp\cc4pWpLv.s:3246   .text.httpclient_recv_response:000000000000026c .L0 
C:\Users\stapi\AppData\Local\Temp\cc4pWpLv.s:3247   .text.httpclient_recv_response:000000000000026c .L0 
C:\Users\stapi\AppData\Local\Temp\cc4pWpLv.s:3249   .text.httpclient_recv_response:0000000000000270 .L0 
C:\Users\stapi\AppData\Local\Temp\cc4pWpLv.s:3251   .text.httpclient_recv_response:0000000000000274 .L0 
C:\Users\stapi\AppData\Local\Temp\cc4pWpLv.s:3254   .text.httpclient_recv_response:0000000000000278 .L0 
C:\Users\stapi\AppData\Local\Temp\cc4pWpLv.s:3259   .text.httpclient_recv_response:0000000000000286 .L0 
C:\Users\stapi\AppData\Local\Temp\cc4pWpLv.s:3260   .text.httpclient_recv_response:0000000000000286 .L0 
C:\Users\stapi\AppData\Local\Temp\cc4pWpLv.s:3262   .text.httpclient_recv_response:000000000000028a .L0 
C:\Users\stapi\AppData\Local\Temp\cc4pWpLv.s:3264   .text.httpclient_recv_response:000000000000028c .L0 
C:\Users\stapi\AppData\Local\Temp\cc4pWpLv.s:3267   .text.httpclient_recv_response:0000000000000292 .L0 
C:\Users\stapi\AppData\Local\Temp\cc4pWpLv.s:3268   .text.httpclient_recv_response:0000000000000292 .L0 
C:\Users\stapi\AppData\Local\Temp\cc4pWpLv.s:3277   .text.httpclient_recv_response:00000000000002a2 .L0 
C:\Users\stapi\AppData\Local\Temp\cc4pWpLv.s:3278   .text.httpclient_recv_response:00000000000002a2 .L0 
C:\Users\stapi\AppData\Local\Temp\cc4pWpLv.s:3281   .text.httpclient_recv_response:00000000000002a6 .L0 
C:\Users\stapi\AppData\Local\Temp\cc4pWpLv.s:3282   .text.httpclient_recv_response:00000000000002a6 .L0 
C:\Users\stapi\AppData\Local\Temp\cc4pWpLv.s:3284   .text.httpclient_recv_response:00000000000002aa .L0 
C:\Users\stapi\AppData\Local\Temp\cc4pWpLv.s:3294   .text.httpclient_recv_response:00000000000002c8 .L0 
C:\Users\stapi\AppData\Local\Temp\cc4pWpLv.s:3295   .text.httpclient_recv_response:00000000000002c8 .L0 
C:\Users\stapi\AppData\Local\Temp\cc4pWpLv.s:3301   .text.httpclient_recv_response:00000000000002cc .L0 
C:\Users\stapi\AppData\Local\Temp\cc4pWpLv.s:3305   .text.httpclient_recv_response:00000000000002d0 .L0 
C:\Users\stapi\AppData\Local\Temp\cc4pWpLv.s:3306   .text.httpclient_recv_response:00000000000002d0 .L0 
C:\Users\stapi\AppData\Local\Temp\cc4pWpLv.s:3307   .text.httpclient_recv_response:00000000000002d0 .L0 
C:\Users\stapi\AppData\Local\Temp\cc4pWpLv.s:3322   .text.httpclient_recv_response:00000000000002f4 .L0 
C:\Users\stapi\AppData\Local\Temp\cc4pWpLv.s:3323   .text.httpclient_recv_response:00000000000002f4 .L0 
C:\Users\stapi\AppData\Local\Temp\cc4pWpLv.s:3325   .text.httpclient_recv_response:00000000000002f8 .L0 
C:\Users\stapi\AppData\Local\Temp\cc4pWpLv.s:3326   .text.httpclient_recv_response:00000000000002f8 .L0 
C:\Users\stapi\AppData\Local\Temp\cc4pWpLv.s:3330   .text.httpclient_recv_response:00000000000002fc .L0 
C:\Users\stapi\AppData\Local\Temp\cc4pWpLv.s:3331   .text.httpclient_recv_response:00000000000002fc .L0 
C:\Users\stapi\AppData\Local\Temp\cc4pWpLv.s:3338   .text.httpclient_recv_response:0000000000000306 .L0 
C:\Users\stapi\AppData\Local\Temp\cc4pWpLv.s:3339   .text.httpclient_recv_response:0000000000000306 .L0 
C:\Users\stapi\AppData\Local\Temp\cc4pWpLv.s:3346   .text.httpclient_recv_response:0000000000000318 .L0 
C:\Users\stapi\AppData\Local\Temp\cc4pWpLv.s:3350   .text.httpclient_recv_response:000000000000031a .L0 
C:\Users\stapi\AppData\Local\Temp\cc4pWpLv.s:3351   .text.httpclient_recv_response:000000000000031a .L0 
C:\Users\stapi\AppData\Local\Temp\cc4pWpLv.s:3352   .text.httpclient_recv_response:000000000000031a .L0 
C:\Users\stapi\AppData\Local\Temp\cc4pWpLv.s:3355   .text.httpclient_recv_response:000000000000031e .L0 
C:\Users\stapi\AppData\Local\Temp\cc4pWpLv.s:3356   .text.httpclient_recv_response:000000000000031e .L0 
C:\Users\stapi\AppData\Local\Temp\cc4pWpLv.s:3364   .text.httpclient_recv_response:0000000000000332 .L0 
C:\Users\stapi\AppData\Local\Temp\cc4pWpLv.s:3366   .text.httpclient_recv_response:0000000000000334 .L0 
C:\Users\stapi\AppData\Local\Temp\cc4pWpLv.s:3373   .text.httpclient_recv_response:0000000000000348 .L0 
C:\Users\stapi\AppData\Local\Temp\cc4pWpLv.s:3376   .text.httpclient_recv_response:000000000000034a .L0 
C:\Users\stapi\AppData\Local\Temp\cc4pWpLv.s:3377   .text.httpclient_recv_response:000000000000034a .L0 
C:\Users\stapi\AppData\Local\Temp\cc4pWpLv.s:3380   .text.httpclient_recv_response:0000000000000350 .L0 
C:\Users\stapi\AppData\Local\Temp\cc4pWpLv.s:3381   .text.httpclient_recv_response:0000000000000350 .L0 
C:\Users\stapi\AppData\Local\Temp\cc4pWpLv.s:3383   .text.httpclient_recv_response:0000000000000354 .L0 
C:\Users\stapi\AppData\Local\Temp\cc4pWpLv.s:3384   .text.httpclient_recv_response:0000000000000354 .L0 
C:\Users\stapi\AppData\Local\Temp\cc4pWpLv.s:3390   .text.httpclient_recv_response:000000000000035a .L0 
C:\Users\stapi\AppData\Local\Temp\cc4pWpLv.s:3391   .text.httpclient_recv_response:000000000000035a .L0 
C:\Users\stapi\AppData\Local\Temp\cc4pWpLv.s:3397   .text.httpclient_recv_response:000000000000036a .L0 
C:\Users\stapi\AppData\Local\Temp\cc4pWpLv.s:3402   .text.httpclient_recv_response:000000000000037a .L0 
C:\Users\stapi\AppData\Local\Temp\cc4pWpLv.s:3406   .text.httpclient_recv_response:0000000000000386 .L0 
C:\Users\stapi\AppData\Local\Temp\cc4pWpLv.s:3407   .text.httpclient_recv_response:0000000000000386 .L0 
C:\Users\stapi\AppData\Local\Temp\cc4pWpLv.s:3408   .text.httpclient_recv_response:0000000000000386 .L0 
C:\Users\stapi\AppData\Local\Temp\cc4pWpLv.s:3416   .text.httpclient_recv_response:000000000000038a .L0 
C:\Users\stapi\AppData\Local\Temp\cc4pWpLv.s:3420   .text.httpclient_recv_response:000000000000038e .L0 
C:\Users\stapi\AppData\Local\Temp\cc4pWpLv.s:3421   .text.httpclient_recv_response:000000000000038e .L0 
C:\Users\stapi\AppData\Local\Temp\cc4pWpLv.s:3423   .text.httpclient_recv_response:0000000000000392 .L0 
C:\Users\stapi\AppData\Local\Temp\cc4pWpLv.s:3425   .text.httpclient_recv_response:000000000000039a .L0 
C:\Users\stapi\AppData\Local\Temp\cc4pWpLv.s:3426   .text.httpclient_recv_response:000000000000039a .L0 
C:\Users\stapi\AppData\Local\Temp\cc4pWpLv.s:3427   .text.httpclient_recv_response:000000000000039a .L0 
C:\Users\stapi\AppData\Local\Temp\cc4pWpLv.s:3428   .text.httpclient_recv_response:000000000000039a .L0 
C:\Users\stapi\AppData\Local\Temp\cc4pWpLv.s:3429   .text.httpclient_recv_response:000000000000039a .L0 
C:\Users\stapi\AppData\Local\Temp\cc4pWpLv.s:3430   .text.httpclient_recv_response:000000000000039a .L0 
C:\Users\stapi\AppData\Local\Temp\cc4pWpLv.s:3431   .text.httpclient_recv_response:000000000000039a .L0 
C:\Users\stapi\AppData\Local\Temp\cc4pWpLv.s:3432   .text.httpclient_recv_response:000000000000039a .L0 
C:\Users\stapi\AppData\Local\Temp\cc4pWpLv.s:3433   .text.httpclient_recv_response:000000000000039a .L0 
C:\Users\stapi\AppData\Local\Temp\cc4pWpLv.s:3434   .text.httpclient_recv_response:000000000000039a .L0 
C:\Users\stapi\AppData\Local\Temp\cc4pWpLv.s:3435   .text.httpclient_recv_response:000000000000039a .L0 
C:\Users\stapi\AppData\Local\Temp\cc4pWpLv.s:3436   .text.httpclient_recv_response:000000000000039a .L0 
C:\Users\stapi\AppData\Local\Temp\cc4pWpLv.s:3437   .text.httpclient_recv_response:000000000000039a .L0 
C:\Users\stapi\AppData\Local\Temp\cc4pWpLv.s:3438   .text.httpclient_recv_response:000000000000039a .L0 
C:\Users\stapi\AppData\Local\Temp\cc4pWpLv.s:3439   .text.httpclient_recv_response:000000000000039a .L0 
C:\Users\stapi\AppData\Local\Temp\cc4pWpLv.s:3450   .text.httpclient_close:0000000000000000 httpclient_close
C:\Users\stapi\AppData\Local\Temp\cc4pWpLv.s:3453   .text.httpclient_close:0000000000000000 .L0 
C:\Users\stapi\AppData\Local\Temp\cc4pWpLv.s:3455   .text.httpclient_close:0000000000000000 .L0 
C:\Users\stapi\AppData\Local\Temp\cc4pWpLv.s:3456   .text.httpclient_close:0000000000000008 .L0 
C:\Users\stapi\AppData\Local\Temp\cc4pWpLv.s:3457   .text.httpclient_close:0000000000000008 .L0 
C:\Users\stapi\AppData\Local\Temp\cc4pWpLv.s:3458   .text.httpclient_close:0000000000000008 .L0 
C:\Users\stapi\AppData\Local\Temp\cc4pWpLv.s:3460   .text.httpclient_close:0000000000000008 .L0 
C:\Users\stapi\AppData\Local\Temp\cc4pWpLv.s:3461   .text.httpclient_close:0000000000000008 .L0 
C:\Users\stapi\AppData\Local\Temp\cc4pWpLv.s:3463   .text.httpclient_close:000000000000000a .L0 
C:\Users\stapi\AppData\Local\Temp\cc4pWpLv.s:3465   .text.httpclient_close:000000000000000c .L0 
C:\Users\stapi\AppData\Local\Temp\cc4pWpLv.s:3467   .text.httpclient_close:000000000000000e .L0 
C:\Users\stapi\AppData\Local\Temp\cc4pWpLv.s:3474   .text.httpclient_close:0000000000000014 .L0 
C:\Users\stapi\AppData\Local\Temp\cc4pWpLv.s:3475   .text.httpclient_close:0000000000000014 .L0 
C:\Users\stapi\AppData\Local\Temp\cc4pWpLv.s:3477   .text.httpclient_close:0000000000000018 .L0 
C:\Users\stapi\AppData\Local\Temp\cc4pWpLv.s:3479   .text.httpclient_close:000000000000001c .L0 
C:\Users\stapi\AppData\Local\Temp\cc4pWpLv.s:3480   .text.httpclient_close:000000000000001c .L0 
C:\Users\stapi\AppData\Local\Temp\cc4pWpLv.s:3484   .text.httpclient_close:0000000000000028 .L0 
C:\Users\stapi\AppData\Local\Temp\cc4pWpLv.s:3489   .text.httpclient_close:0000000000000038 .L0 
C:\Users\stapi\AppData\Local\Temp\cc4pWpLv.s:3494   .text.httpclient_close:0000000000000048 .L0 
C:\Users\stapi\AppData\Local\Temp\cc4pWpLv.s:3495   .text.httpclient_close:0000000000000048 .L0 
C:\Users\stapi\AppData\Local\Temp\cc4pWpLv.s:3496   .text.httpclient_close:0000000000000050 .L0 
C:\Users\stapi\AppData\Local\Temp\cc4pWpLv.s:3497   .text.httpclient_close:0000000000000050 .L0 
C:\Users\stapi\AppData\Local\Temp\cc4pWpLv.s:3498   .text.httpclient_close:0000000000000050 .L0 
C:\Users\stapi\AppData\Local\Temp\cc4pWpLv.s:3499   .text.httpclient_close:0000000000000050 .L0 
C:\Users\stapi\AppData\Local\Temp\cc4pWpLv.s:3522   .text.httpclient_common:0000000000000000 httpclient_common
C:\Users\stapi\AppData\Local\Temp\cc4pWpLv.s:3525   .text.httpclient_common:0000000000000000 .L0 
C:\Users\stapi\AppData\Local\Temp\cc4pWpLv.s:3527   .text.httpclient_common:0000000000000000 .L0 
C:\Users\stapi\AppData\Local\Temp\cc4pWpLv.s:3528   .text.httpclient_common:0000000000000008 .L0 
C:\Users\stapi\AppData\Local\Temp\cc4pWpLv.s:3529   .text.httpclient_common:0000000000000008 .L0 
C:\Users\stapi\AppData\Local\Temp\cc4pWpLv.s:3530   .text.httpclient_common:0000000000000008 .L0 
C:\Users\stapi\AppData\Local\Temp\cc4pWpLv.s:3531   .text.httpclient_common:0000000000000008 .L0 
C:\Users\stapi\AppData\Local\Temp\cc4pWpLv.s:3532   .text.httpclient_common:0000000000000008 .L0 
C:\Users\stapi\AppData\Local\Temp\cc4pWpLv.s:3533   .text.httpclient_common:0000000000000008 .L0 
C:\Users\stapi\AppData\Local\Temp\cc4pWpLv.s:3534   .text.httpclient_common:0000000000000008 .L0 
C:\Users\stapi\AppData\Local\Temp\cc4pWpLv.s:3535   .text.httpclient_common:0000000000000008 .L0 
C:\Users\stapi\AppData\Local\Temp\cc4pWpLv.s:3537   .text.httpclient_common:0000000000000008 .L0 
C:\Users\stapi\AppData\Local\Temp\cc4pWpLv.s:3539   .text.httpclient_common:0000000000000008 .L0 
C:\Users\stapi\AppData\Local\Temp\cc4pWpLv.s:3540   .text.httpclient_common:0000000000000008 .L0 
C:\Users\stapi\AppData\Local\Temp\cc4pWpLv.s:3541   .text.httpclient_common:0000000000000008 .L0 
C:\Users\stapi\AppData\Local\Temp\cc4pWpLv.s:3542   .text.httpclient_common:000000000000000a .L0 
C:\Users\stapi\AppData\Local\Temp\cc4pWpLv.s:3544   .text.httpclient_common:000000000000000a .L0 
C:\Users\stapi\AppData\Local\Temp\cc4pWpLv.s:3548   .text.httpclient_common:0000000000000010 .L0 
C:\Users\stapi\AppData\Local\Temp\cc4pWpLv.s:3555   .text.httpclient_common:0000000000000018 .L0 
C:\Users\stapi\AppData\Local\Temp\cc4pWpLv.s:3560   .text.httpclient_common:0000000000000020 .L0 
C:\Users\stapi\AppData\Local\Temp\cc4pWpLv.s:3564   .text.httpclient_common:000000000000002a .L0 
C:\Users\stapi\AppData\Local\Temp\cc4pWpLv.s:3569   .text.httpclient_common:0000000000000036 .L0 
C:\Users\stapi\AppData\Local\Temp\cc4pWpLv.s:3570   .text.httpclient_common:0000000000000036 .L0 
C:\Users\stapi\AppData\Local\Temp\cc4pWpLv.s:3573   .text.httpclient_common:000000000000003a .L0 
C:\Users\stapi\AppData\Local\Temp\cc4pWpLv.s:3574   .text.httpclient_common:000000000000003a .L0 
C:\Users\stapi\AppData\Local\Temp\cc4pWpLv.s:3583   .text.httpclient_common:0000000000000050 .L0 
C:\Users\stapi\AppData\Local\Temp\cc4pWpLv.s:3584   .text.httpclient_common:0000000000000050 .L0 
C:\Users\stapi\AppData\Local\Temp\cc4pWpLv.s:3586   .text.httpclient_common:0000000000000052 .L0 
C:\Users\stapi\AppData\Local\Temp\cc4pWpLv.s:3594   .text.httpclient_common:0000000000000068 .L0 
C:\Users\stapi\AppData\Local\Temp\cc4pWpLv.s:3595   .text.httpclient_common:0000000000000068 .L0 
C:\Users\stapi\AppData\Local\Temp\cc4pWpLv.s:3597   .text.httpclient_common:000000000000006c .L0 
C:\Users\stapi\AppData\Local\Temp\cc4pWpLv.s:3598   .text.httpclient_common:000000000000006c .L0 
C:\Users\stapi\AppData\Local\Temp\cc4pWpLv.s:3601   .text.httpclient_common:0000000000000074 .L0 
C:\Users\stapi\AppData\Local\Temp\cc4pWpLv.s:3602   .text.httpclient_common:0000000000000074 .L0 
C:\Users\stapi\AppData\Local\Temp\cc4pWpLv.s:3603   .text.httpclient_common:0000000000000074 .L0 
C:\Users\stapi\AppData\Local\Temp\cc4pWpLv.s:3604   .text.httpclient_common:0000000000000074 .L0 
C:\Users\stapi\AppData\Local\Temp\cc4pWpLv.s:3605   .text.httpclient_common:0000000000000074 .L0 
C:\Users\stapi\AppData\Local\Temp\cc4pWpLv.s:3606   .text.httpclient_common:0000000000000074 .L0 
C:\Users\stapi\AppData\Local\Temp\cc4pWpLv.s:3607   .text.httpclient_common:0000000000000074 .L0 
C:\Users\stapi\AppData\Local\Temp\cc4pWpLv.s:3608   .text.httpclient_common:0000000000000074 .L0 
C:\Users\stapi\AppData\Local\Temp\cc4pWpLv.s:3611   .text.httpclient_common:0000000000000074 .L0 
C:\Users\stapi\AppData\Local\Temp\cc4pWpLv.s:3613   .text.httpclient_common:0000000000000074 .L0 
C:\Users\stapi\AppData\Local\Temp\cc4pWpLv.s:3614   .text.httpclient_common:0000000000000074 .L0 
C:\Users\stapi\AppData\Local\Temp\cc4pWpLv.s:3620   .text.httpclient_common:0000000000000080 .L0 
C:\Users\stapi\AppData\Local\Temp\cc4pWpLv.s:3621   .text.httpclient_common:0000000000000080 .L0 
C:\Users\stapi\AppData\Local\Temp\cc4pWpLv.s:3623   .text.httpclient_common:0000000000000082 .L0 
C:\Users\stapi\AppData\Local\Temp\cc4pWpLv.s:3624   .text.httpclient_common:0000000000000082 .L0 
C:\Users\stapi\AppData\Local\Temp\cc4pWpLv.s:3629   .text.httpclient_common:0000000000000092 .L0 
C:\Users\stapi\AppData\Local\Temp\cc4pWpLv.s:3634   .text.httpclient_common:000000000000009c .L0 
C:\Users\stapi\AppData\Local\Temp\cc4pWpLv.s:3638   .text.httpclient_common:00000000000000a4 .L0 
C:\Users\stapi\AppData\Local\Temp\cc4pWpLv.s:3639   .text.httpclient_common:00000000000000a4 .L0 
C:\Users\stapi\AppData\Local\Temp\cc4pWpLv.s:3644   .text.httpclient_common:00000000000000b4 .L0 
C:\Users\stapi\AppData\Local\Temp\cc4pWpLv.s:3645   .text.httpclient_common:00000000000000b4 .L0 
C:\Users\stapi\AppData\Local\Temp\cc4pWpLv.s:3652   .text.httpclient_common:00000000000000c0 .L0 
C:\Users\stapi\AppData\Local\Temp\cc4pWpLv.s:3653   .text.httpclient_common:00000000000000c0 .L0 
C:\Users\stapi\AppData\Local\Temp\cc4pWpLv.s:3662   .text.httpclient_common:00000000000000d2 .L0 
C:\Users\stapi\AppData\Local\Temp\cc4pWpLv.s:3663   .text.httpclient_common:00000000000000d2 .L0 
C:\Users\stapi\AppData\Local\Temp\cc4pWpLv.s:3665   .text.httpclient_common:00000000000000d4 .L0 
C:\Users\stapi\AppData\Local\Temp\cc4pWpLv.s:3666   .text.httpclient_common:00000000000000d4 .L0 
C:\Users\stapi\AppData\Local\Temp\cc4pWpLv.s:3671   .text.httpclient_common:00000000000000e4 .L0 
C:\Users\stapi\AppData\Local\Temp\cc4pWpLv.s:3678   .text.httpclient_common:00000000000000f0 .L0 
C:\Users\stapi\AppData\Local\Temp\cc4pWpLv.s:3682   .text.httpclient_common:00000000000000fa .L0 
C:\Users\stapi\AppData\Local\Temp\cc4pWpLv.s:3687   .text.httpclient_common:0000000000000106 .L0 
C:\Users\stapi\AppData\Local\Temp\cc4pWpLv.s:3688   .text.httpclient_common:0000000000000106 .L0 
C:\Users\stapi\AppData\Local\Temp\cc4pWpLv.s:3691   .text.httpclient_common:000000000000010c .L0 
C:\Users\stapi\AppData\Local\Temp\cc4pWpLv.s:3694   .text.httpclient_common:0000000000000112 .L0 
C:\Users\stapi\AppData\Local\Temp\cc4pWpLv.s:3695   .text.httpclient_common:0000000000000112 .L0 
C:\Users\stapi\AppData\Local\Temp\cc4pWpLv.s:3706   .text.httpclient_common:000000000000012c .L0 
C:\Users\stapi\AppData\Local\Temp\cc4pWpLv.s:3707   .text.httpclient_common:000000000000012c .L0 
C:\Users\stapi\AppData\Local\Temp\cc4pWpLv.s:3709   .text.httpclient_common:0000000000000130 .L0 
C:\Users\stapi\AppData\Local\Temp\cc4pWpLv.s:3710   .text.httpclient_common:0000000000000130 .L0 
C:\Users\stapi\AppData\Local\Temp\cc4pWpLv.s:3715   .text.httpclient_common:0000000000000140 .L0 
C:\Users\stapi\AppData\Local\Temp\cc4pWpLv.s:3722   .text.httpclient_common:000000000000014c .L0 
C:\Users\stapi\AppData\Local\Temp\cc4pWpLv.s:3723   .text.httpclient_common:000000000000014c .L0 
C:\Users\stapi\AppData\Local\Temp\cc4pWpLv.s:3725   .text.httpclient_common:0000000000000150 .L0 
C:\Users\stapi\AppData\Local\Temp\cc4pWpLv.s:3727   .text.httpclient_common:0000000000000152 .L0 
C:\Users\stapi\AppData\Local\Temp\cc4pWpLv.s:3728   .text.httpclient_common:0000000000000152 .L0 
C:\Users\stapi\AppData\Local\Temp\cc4pWpLv.s:3733   .text.httpclient_common:0000000000000162 .L0 
C:\Users\stapi\AppData\Local\Temp\cc4pWpLv.s:3740   .text.httpclient_common:0000000000000174 .L0 
C:\Users\stapi\AppData\Local\Temp\cc4pWpLv.s:3742   .text.httpclient_common:0000000000000178 .L0 
C:\Users\stapi\AppData\Local\Temp\cc4pWpLv.s:3749   .text.utils_get_response_code:0000000000000000 utils_get_response_code
C:\Users\stapi\AppData\Local\Temp\cc4pWpLv.s:3752   .text.utils_get_response_code:0000000000000000 .L0 
C:\Users\stapi\AppData\Local\Temp\cc4pWpLv.s:3754   .text.utils_get_response_code:0000000000000000 .L0 
C:\Users\stapi\AppData\Local\Temp\cc4pWpLv.s:3755   .text.utils_get_response_code:0000000000000000 .L0 
C:\Users\stapi\AppData\Local\Temp\cc4pWpLv.s:3756   .text.utils_get_response_code:0000000000000000 .L0 
C:\Users\stapi\AppData\Local\Temp\cc4pWpLv.s:3759   .text.utils_get_response_code:0000000000000004 .L0 
C:\Users\stapi\AppData\Local\Temp\cc4pWpLv.s:3770   .text.iotx_post:0000000000000000 iotx_post
C:\Users\stapi\AppData\Local\Temp\cc4pWpLv.s:3773   .text.iotx_post:0000000000000000 .L0 
C:\Users\stapi\AppData\Local\Temp\cc4pWpLv.s:3775   .text.iotx_post:0000000000000000 .L0 
C:\Users\stapi\AppData\Local\Temp\cc4pWpLv.s:3776   .text.iotx_post:0000000000000008 .L0 
C:\Users\stapi\AppData\Local\Temp\cc4pWpLv.s:3777   .text.iotx_post:0000000000000008 .L0 
C:\Users\stapi\AppData\Local\Temp\cc4pWpLv.s:3778   .text.iotx_post:0000000000000008 .L0 
C:\Users\stapi\AppData\Local\Temp\cc4pWpLv.s:3779   .text.iotx_post:0000000000000008 .L0 
C:\Users\stapi\AppData\Local\Temp\cc4pWpLv.s:3780   .text.iotx_post:0000000000000008 .L0 
C:\Users\stapi\AppData\Local\Temp\cc4pWpLv.s:3781   .text.iotx_post:0000000000000008 .L0 
C:\Users\stapi\AppData\Local\Temp\cc4pWpLv.s:3782   .text.iotx_post:0000000000000008 .L0 
C:\Users\stapi\AppData\Local\Temp\cc4pWpLv.s:3783   .text.iotx_post:0000000000000008 .L0 
C:\Users\stapi\AppData\Local\Temp\cc4pWpLv.s:3786   .text.iotx_post:0000000000000008 .L0 
C:\Users\stapi\AppData\Local\Temp\cc4pWpLv.s:3787   .text.iotx_post:0000000000000008 .L0 
C:\Users\stapi\AppData\Local\Temp\cc4pWpLv.s:3788   .text.iotx_post:0000000000000008 .L0 
C:\Users\stapi\AppData\Local\Temp\cc4pWpLv.s:3789   .text.iotx_post:000000000000000a .L0 
C:\Users\stapi\AppData\Local\Temp\cc4pWpLv.s:3791   .text.iotx_post:000000000000000a .L0 
C:\Users\stapi\AppData\Local\Temp\cc4pWpLv.s:3795   .text.iotx_post:0000000000000010 .L0 
C:\Users\stapi\AppData\Local\Temp\cc4pWpLv.s:3802   .text.iotx_post:0000000000000018 .L0 
C:\Users\stapi\AppData\Local\Temp\cc4pWpLv.s:3805   .text.iotx_post:000000000000001c .L0 
C:\Users\stapi\AppData\Local\Temp\cc4pWpLv.s:3809   .text.iotx_post:0000000000000026 .L0 
C:\Users\stapi\AppData\Local\Temp\cc4pWpLv.s:3814   .text.iotx_post:0000000000000032 .L0 
C:\Users\stapi\AppData\Local\Temp\cc4pWpLv.s:3815   .text.iotx_post:0000000000000032 .L0 
C:\Users\stapi\AppData\Local\Temp\cc4pWpLv.s:3820   .text.iotx_post:0000000000000042 .L0 
C:\Users\stapi\AppData\Local\Temp\cc4pWpLv.s:3827   .text.iotx_post:0000000000000056 .L0 
C:\Users\stapi\AppData\Local\Temp\cc4pWpLv.s:3832   .text.iotx_post:0000000000000066 .L0 
C:\Users\stapi\AppData\Local\Temp\cc4pWpLv.s:3833   .text.iotx_post:0000000000000066 .L0 
C:\Users\stapi\AppData\Local\Temp\cc4pWpLv.s:3834   .text.iotx_post:0000000000000066 .L0 
C:\Users\stapi\AppData\Local\Temp\cc4pWpLv.s:3838   .text.iotx_post:000000000000006c .L0 
C:\Users\stapi\AppData\Local\Temp\cc4pWpLv.s:3839   .text.iotx_post:000000000000006c .L0 
C:\Users\stapi\AppData\Local\Temp\cc4pWpLv.s:3848   .text.iotx_post:0000000000000082 .L0 
C:\Users\stapi\AppData\Local\Temp\cc4pWpLv.s:3849   .text.iotx_post:0000000000000082 .L0 
C:\Users\stapi\AppData\Local\Temp\cc4pWpLv.s:3851   .text.iotx_post:0000000000000084 .L0 
C:\Users\stapi\AppData\Local\Temp\cc4pWpLv.s:3852   .text.iotx_post:0000000000000084 .L0 
C:\Users\stapi\AppData\Local\Temp\cc4pWpLv.s:3858   .text.iotx_post:0000000000000090 .L0 
C:\Users\stapi\AppData\Local\Temp\cc4pWpLv.s:3859   .text.iotx_post:0000000000000090 .L0 
C:\Users\stapi\AppData\Local\Temp\cc4pWpLv.s:3861   .text.iotx_post:0000000000000092 .L0 
C:\Users\stapi\AppData\Local\Temp\cc4pWpLv.s:3862   .text.iotx_post:0000000000000092 .L0 
C:\Users\stapi\AppData\Local\Temp\cc4pWpLv.s:3867   .text.iotx_post:00000000000000a2 .L0 
C:\Users\stapi\AppData\Local\Temp\cc4pWpLv.s:3873   .text.iotx_post:00000000000000b4 .L0 
C:\Users\stapi\AppData\Local\Temp\cc4pWpLv.s:3876   .text.iotx_post:00000000000000b8 .L0 
C:\Users\stapi\AppData\Local\Temp\cc4pWpLv.s:3879   .text.iotx_post:00000000000000c0 .L0 
C:\Users\stapi\AppData\Local\Temp\cc4pWpLv.s:3880   .text.iotx_post:00000000000000c0 .L0 
C:\Users\stapi\AppData\Local\Temp\cc4pWpLv.s:3885   .text.iotx_post:00000000000000ca .L0 
C:\Users\stapi\AppData\Local\Temp\cc4pWpLv.s:3886   .text.iotx_post:00000000000000ca .L0 
C:\Users\stapi\AppData\Local\Temp\cc4pWpLv.s:3888   .text.iotx_post:00000000000000ce .L0 
C:\Users\stapi\AppData\Local\Temp\cc4pWpLv.s:3889   .text.iotx_post:00000000000000ce .L0 
C:\Users\stapi\AppData\Local\Temp\cc4pWpLv.s:3892   .text.iotx_post:00000000000000d6 .L0 
C:\Users\stapi\AppData\Local\Temp\cc4pWpLv.s:3893   .text.iotx_post:00000000000000d6 .L0 
C:\Users\stapi\AppData\Local\Temp\cc4pWpLv.s:3894   .text.iotx_post:00000000000000d6 .L0 
C:\Users\stapi\AppData\Local\Temp\cc4pWpLv.s:3895   .text.iotx_post:00000000000000d6 .L0 
C:\Users\stapi\AppData\Local\Temp\cc4pWpLv.s:3896   .text.iotx_post:00000000000000d6 .L0 
C:\Users\stapi\AppData\Local\Temp\cc4pWpLv.s:3897   .text.iotx_post:00000000000000d6 .L0 
C:\Users\stapi\AppData\Local\Temp\cc4pWpLv.s:3898   .text.iotx_post:00000000000000d6 .L0 
C:\Users\stapi\AppData\Local\Temp\cc4pWpLv.s:3899   .text.iotx_post:00000000000000d6 .L0 
C:\Users\stapi\AppData\Local\Temp\cc4pWpLv.s:3902   .text.iotx_post:00000000000000d6 .L0 
C:\Users\stapi\AppData\Local\Temp\cc4pWpLv.s:3904   .text.iotx_post:00000000000000d6 .L0 
C:\Users\stapi\AppData\Local\Temp\cc4pWpLv.s:3905   .text.iotx_post:00000000000000d6 .L0 
C:\Users\stapi\AppData\Local\Temp\cc4pWpLv.s:3914   .text.iotx_post:00000000000000e8 .L0 
C:\Users\stapi\AppData\Local\Temp\cc4pWpLv.s:3915   .text.iotx_post:00000000000000e8 .L0 
C:\Users\stapi\AppData\Local\Temp\cc4pWpLv.s:3917   .text.iotx_post:00000000000000ea .L0 
C:\Users\stapi\AppData\Local\Temp\cc4pWpLv.s:3918   .text.iotx_post:00000000000000ea .L0 
C:\Users\stapi\AppData\Local\Temp\cc4pWpLv.s:3923   .text.iotx_post:00000000000000fa .L0 
C:\Users\stapi\AppData\Local\Temp\cc4pWpLv.s:3929   .text.iotx_post:000000000000010c .L0 
C:\Users\stapi\AppData\Local\Temp\cc4pWpLv.s:3931   .text.iotx_post:0000000000000112 .L0 
C:\Users\stapi\AppData\Local\Temp\cc4pWpLv.s:3936   .rodata.__FUNCTION__.0:0000000000000000 .LANCHOR7
C:\Users\stapi\AppData\Local\Temp\cc4pWpLv.s:3939   .rodata.__FUNCTION__.0:0000000000000000 __FUNCTION__.0
C:\Users\stapi\AppData\Local\Temp\cc4pWpLv.s:3943   .rodata.__FUNCTION__.1:0000000000000000 .LANCHOR0
C:\Users\stapi\AppData\Local\Temp\cc4pWpLv.s:3946   .rodata.__FUNCTION__.1:0000000000000000 __FUNCTION__.1
C:\Users\stapi\AppData\Local\Temp\cc4pWpLv.s:3950   .rodata.__FUNCTION__.2:0000000000000000 .LANCHOR1
C:\Users\stapi\AppData\Local\Temp\cc4pWpLv.s:3953   .rodata.__FUNCTION__.2:0000000000000000 __FUNCTION__.2
C:\Users\stapi\AppData\Local\Temp\cc4pWpLv.s:3957   .rodata.__FUNCTION__.4:0000000000000000 .LANCHOR5
C:\Users\stapi\AppData\Local\Temp\cc4pWpLv.s:3960   .rodata.__FUNCTION__.4:0000000000000000 __FUNCTION__.4
C:\Users\stapi\AppData\Local\Temp\cc4pWpLv.s:3964   .rodata.__FUNCTION__.5:0000000000000000 .LANCHOR4
C:\Users\stapi\AppData\Local\Temp\cc4pWpLv.s:3967   .rodata.__FUNCTION__.5:0000000000000000 __FUNCTION__.5
C:\Users\stapi\AppData\Local\Temp\cc4pWpLv.s:3971   .rodata.__FUNCTION__.7:0000000000000000 .LANCHOR2
C:\Users\stapi\AppData\Local\Temp\cc4pWpLv.s:3974   .rodata.__FUNCTION__.7:0000000000000000 __FUNCTION__.7
C:\Users\stapi\AppData\Local\Temp\cc4pWpLv.s:3978   .rodata.__func__.3:0000000000000000 .LANCHOR6
C:\Users\stapi\AppData\Local\Temp\cc4pWpLv.s:3981   .rodata.__func__.3:0000000000000000 __func__.3
C:\Users\stapi\AppData\Local\Temp\cc4pWpLv.s:3985   .rodata.__func__.6:0000000000000000 .LANCHOR3
C:\Users\stapi\AppData\Local\Temp\cc4pWpLv.s:3988   .rodata.__func__.6:0000000000000000 __func__.6
C:\Users\stapi\AppData\Local\Temp\cc4pWpLv.s:181    .text.httpclient_recv.constprop.0:00000000000000e4 .L0 
C:\Users\stapi\AppData\Local\Temp\cc4pWpLv.s:1132   .text.httpclient_retrieve_content:0000000000000568 .L0 
C:\Users\stapi\AppData\Local\Temp\cc4pWpLv.s:1286   .text.httpclient_parse_host.constprop.0.isra.0:00000000000000ce .L0 
C:\Users\stapi\AppData\Local\Temp\cc4pWpLv.s:1412   .text.httpclient_get_info:0000000000000076 .L0 
C:\Users\stapi\AppData\Local\Temp\cc4pWpLv.s:1686   .text.httpclient_send_auth:0000000000000162 .L0 
C:\Users\stapi\AppData\Local\Temp\cc4pWpLv.s:2496   .text.httpclient_send_header:00000000000004f4 .L0 
C:\Users\stapi\AppData\Local\Temp\cc4pWpLv.s:2658   .text.httpclient_send_userdata:00000000000000ea .L0 
C:\Users\stapi\AppData\Local\Temp\cc4pWpLv.s:2729   .text.httpclient_connect:000000000000004e .L0 
C:\Users\stapi\AppData\Local\Temp\cc4pWpLv.s:2847   .text.httpclient_send_request:00000000000000a6 .L0 
C:\Users\stapi\AppData\Local\Temp\cc4pWpLv.s:3442   .text.httpclient_recv_response:000000000000039a .L0 
C:\Users\stapi\AppData\Local\Temp\cc4pWpLv.s:3502   .text.httpclient_close:0000000000000050 .L0 
C:\Users\stapi\AppData\Local\Temp\cc4pWpLv.s:3745   .text.httpclient_common:0000000000000178 .L0 
C:\Users\stapi\AppData\Local\Temp\cc4pWpLv.s:3762   .text.utils_get_response_code:0000000000000004 .L0 
C:\Users\stapi\AppData\Local\Temp\cc4pWpLv.s:3934   .text.iotx_post:0000000000000112 .L0 
                     .debug_frame:0000000000000000 .L0 
C:\Users\stapi\AppData\Local\Temp\cc4pWpLv.s:11     .rodata.httpclient_recv.constprop.0.str1.4:0000000000000000 .LC0
C:\Users\stapi\AppData\Local\Temp\cc4pWpLv.s:14     .rodata.httpclient_recv.constprop.0.str1.4:0000000000000018 .LC1
C:\Users\stapi\AppData\Local\Temp\cc4pWpLv.s:17     .rodata.httpclient_recv.constprop.0.str1.4:0000000000000020 .LC2
C:\Users\stapi\AppData\Local\Temp\cc4pWpLv.s:23     .rodata.httpclient_recv.constprop.0.str1.4:000000000000003c .LC4
C:\Users\stapi\AppData\Local\Temp\cc4pWpLv.s:20     .rodata.httpclient_recv.constprop.0.str1.4:0000000000000028 .LC3
C:\Users\stapi\AppData\Local\Temp\cc4pWpLv.s:26     .rodata.httpclient_recv.constprop.0.str1.4:0000000000000040 .LC5
C:\Users\stapi\AppData\Local\Temp\cc4pWpLv.s:124    .text.httpclient_recv.constprop.0:0000000000000082 .L2
C:\Users\stapi\AppData\Local\Temp\cc4pWpLv.s:110    .text.httpclient_recv.constprop.0:0000000000000078 .L1
C:\Users\stapi\AppData\Local\Temp\cc4pWpLv.s:161    .text.httpclient_recv.constprop.0:00000000000000c0 .L4
C:\Users\stapi\AppData\Local\Temp\cc4pWpLv.s:150    .text.httpclient_recv.constprop.0:00000000000000b0 .L7
C:\Users\stapi\AppData\Local\Temp\cc4pWpLv.s:183    .rodata.httpclient_retrieve_content.str1.4:0000000000000000 .LC6
C:\Users\stapi\AppData\Local\Temp\cc4pWpLv.s:186    .rodata.httpclient_retrieve_content.str1.4:0000000000000014 .LC7
C:\Users\stapi\AppData\Local\Temp\cc4pWpLv.s:189    .rodata.httpclient_retrieve_content.str1.4:0000000000000024 .LC8
C:\Users\stapi\AppData\Local\Temp\cc4pWpLv.s:192    .rodata.httpclient_retrieve_content.str1.4:000000000000003c .LC9
C:\Users\stapi\AppData\Local\Temp\cc4pWpLv.s:210    .rodata.httpclient_retrieve_content.str1.4:00000000000000c8 .LC15
C:\Users\stapi\AppData\Local\Temp\cc4pWpLv.s:213    .rodata.httpclient_retrieve_content.str1.4:000000000000010c .LC16
C:\Users\stapi\AppData\Local\Temp\cc4pWpLv.s:216    .rodata.httpclient_retrieve_content.str1.4:0000000000000124 .LC17
C:\Users\stapi\AppData\Local\Temp\cc4pWpLv.s:219    .rodata.httpclient_retrieve_content.str1.4:000000000000014c .LC18
C:\Users\stapi\AppData\Local\Temp\cc4pWpLv.s:204    .rodata.httpclient_retrieve_content.str1.4:000000000000008c .LC13
C:\Users\stapi\AppData\Local\Temp\cc4pWpLv.s:207    .rodata.httpclient_retrieve_content.str1.4:00000000000000b4 .LC14
C:\Users\stapi\AppData\Local\Temp\cc4pWpLv.s:222    .rodata.httpclient_retrieve_content.str1.4:0000000000000160 .LC19
C:\Users\stapi\AppData\Local\Temp\cc4pWpLv.s:195    .rodata.httpclient_retrieve_content.str1.4:0000000000000050 .LC10
C:\Users\stapi\AppData\Local\Temp\cc4pWpLv.s:198    .rodata.httpclient_retrieve_content.str1.4:0000000000000058 .LC11
C:\Users\stapi\AppData\Local\Temp\cc4pWpLv.s:201    .rodata.httpclient_retrieve_content.str1.4:0000000000000070 .LC12
C:\Users\stapi\AppData\Local\Temp\cc4pWpLv.s:471    .text.httpclient_retrieve_content:000000000000016e .L9
C:\Users\stapi\AppData\Local\Temp\cc4pWpLv.s:414    .text.httpclient_retrieve_content:0000000000000124 .L10
C:\Users\stapi\AppData\Local\Temp\cc4pWpLv.s:439    .text.httpclient_retrieve_content:0000000000000144 .L53
C:\Users\stapi\AppData\Local\Temp\cc4pWpLv.s:588    .text.httpclient_retrieve_content:00000000000001f2 .L8
C:\Users\stapi\AppData\Local\Temp\cc4pWpLv.s:311    .text.httpclient_retrieve_content:0000000000000076 .L14
C:\Users\stapi\AppData\Local\Temp\cc4pWpLv.s:922    .text.httpclient_retrieve_content:00000000000003fc .L39
C:\Users\stapi\AppData\Local\Temp\cc4pWpLv.s:555    .text.httpclient_retrieve_content:00000000000001c2 .L16
C:\Users\stapi\AppData\Local\Temp\cc4pWpLv.s:538    .text.httpclient_retrieve_content:00000000000001ac .L20
C:\Users\stapi\AppData\Local\Temp\cc4pWpLv.s:546    .text.httpclient_retrieve_content:00000000000001bc .L18
C:\Users\stapi\AppData\Local\Temp\cc4pWpLv.s:1051   .text.httpclient_retrieve_content:00000000000004de .L19
C:\Users\stapi\AppData\Local\Temp\cc4pWpLv.s:525    .text.httpclient_retrieve_content:00000000000001a0 .L17
C:\Users\stapi\AppData\Local\Temp\cc4pWpLv.s:502    .text.httpclient_retrieve_content:000000000000018a .L23
C:\Users\stapi\AppData\Local\Temp\cc4pWpLv.s:949    .text.httpclient_retrieve_content:0000000000000428 .L24
C:\Users\stapi\AppData\Local\Temp\cc4pWpLv.s:431    .text.httpclient_retrieve_content:0000000000000140 .L59
C:\Users\stapi\AppData\Local\Temp\cc4pWpLv.s:1026   .text.httpclient_retrieve_content:00000000000004a4 .L28
C:\Users\stapi\AppData\Local\Temp\cc4pWpLv.s:715    .text.httpclient_retrieve_content:00000000000002a6 .L29
C:\Users\stapi\AppData\Local\Temp\cc4pWpLv.s:613    .text.httpclient_retrieve_content:00000000000001fe .L30
C:\Users\stapi\AppData\Local\Temp\cc4pWpLv.s:773    .text.httpclient_retrieve_content:0000000000000308 .L45
C:\Users\stapi\AppData\Local\Temp\cc4pWpLv.s:776    .text.httpclient_retrieve_content:000000000000030a .L31
C:\Users\stapi\AppData\Local\Temp\cc4pWpLv.s:397    .text.httpclient_retrieve_content:000000000000010a .L60
C:\Users\stapi\AppData\Local\Temp\cc4pWpLv.s:851    .text.httpclient_retrieve_content:000000000000038c .L32
C:\Users\stapi\AppData\Local\Temp\cc4pWpLv.s:861    .text.httpclient_retrieve_content:000000000000039e .L34
C:\Users\stapi\AppData\Local\Temp\cc4pWpLv.s:878    .text.httpclient_retrieve_content:00000000000003ca .L35
C:\Users\stapi\AppData\Local\Temp\cc4pWpLv.s:1118   .text.httpclient_retrieve_content:000000000000055c .L62
C:\Users\stapi\AppData\Local\Temp\cc4pWpLv.s:477    .text.httpclient_retrieve_content:0000000000000170 .L36
C:\Users\stapi\AppData\Local\Temp\cc4pWpLv.s:622    .text.httpclient_retrieve_content:0000000000000204 .L25
C:\Users\stapi\AppData\Local\Temp\cc4pWpLv.s:651    .text.httpclient_retrieve_content:0000000000000238 .L55
C:\Users\stapi\AppData\Local\Temp\cc4pWpLv.s:811    .text.httpclient_retrieve_content:000000000000034e .L37
C:\Users\stapi\AppData\Local\Temp\cc4pWpLv.s:458    .text.httpclient_retrieve_content:0000000000000168 .L61
C:\Users\stapi\AppData\Local\Temp\cc4pWpLv.s:899    .text.httpclient_retrieve_content:00000000000003e2 .L57
C:\Users\stapi\AppData\Local\Temp\cc4pWpLv.s:1134   .rodata.httpclient_parse_host.constprop.0.isra.0.str1.4:0000000000000000 .LC20
C:\Users\stapi\AppData\Local\Temp\cc4pWpLv.s:1137   .rodata.httpclient_parse_host.constprop.0.isra.0.str1.4:0000000000000004 .LC21
C:\Users\stapi\AppData\Local\Temp\cc4pWpLv.s:1140   .rodata.httpclient_parse_host.constprop.0.isra.0.str1.4:0000000000000018 .LC22
C:\Users\stapi\AppData\Local\Temp\cc4pWpLv.s:1209   .text.httpclient_parse_host.constprop.0.isra.0:0000000000000058 .L64
C:\Users\stapi\AppData\Local\Temp\cc4pWpLv.s:1240   .text.httpclient_parse_host.constprop.0.isra.0:0000000000000082 .L67
C:\Users\stapi\AppData\Local\Temp\cc4pWpLv.s:1265   .text.httpclient_parse_host.constprop.0.isra.0:00000000000000b8 .L68
C:\Users\stapi\AppData\Local\Temp\cc4pWpLv.s:1189   .text.httpclient_parse_host.constprop.0.isra.0:000000000000003e .L70
C:\Users\stapi\AppData\Local\Temp\cc4pWpLv.s:1197   .text.httpclient_parse_host.constprop.0.isra.0:000000000000004e .L63
C:\Users\stapi\AppData\Local\Temp\cc4pWpLv.s:1331   .text.httpclient_get_info:0000000000000022 .L72
C:\Users\stapi\AppData\Local\Temp\cc4pWpLv.s:1380   .text.httpclient_get_info:000000000000005c .L74
C:\Users\stapi\AppData\Local\Temp\cc4pWpLv.s:1341   .text.httpclient_get_info:0000000000000030 .L75
C:\Users\stapi\AppData\Local\Temp\cc4pWpLv.s:1394   .text.httpclient_get_info:000000000000006e .L71
C:\Users\stapi\AppData\Local\Temp\cc4pWpLv.s:1368   .text.httpclient_get_info:0000000000000052 .L78
C:\Users\stapi\AppData\Local\Temp\cc4pWpLv.s:1414   .rodata.httpclient_send_auth.str1.4:0000000000000000 .LC23
C:\Users\stapi\AppData\Local\Temp\cc4pWpLv.s:1417   .rodata.httpclient_send_auth.str1.4:0000000000000018 .LC24
C:\Users\stapi\AppData\Local\Temp\cc4pWpLv.s:1420   .rodata.httpclient_send_auth.str1.4:0000000000000020 .LC25
C:\Users\stapi\AppData\Local\Temp\cc4pWpLv.s:1426   .rodata.httpclient_send_auth.str1.4:0000000000000038 .LC26
C:\Users\stapi\AppData\Local\Temp\cc4pWpLv.s:1423   .rodata.httpclient_send_auth.str1.4:000000000000002c .LC27
C:\Users\stapi\AppData\Local\Temp\cc4pWpLv.s:1615   .text.httpclient_send_auth:0000000000000124 .L87
C:\Users\stapi\AppData\Local\Temp\cc4pWpLv.s:1543   .text.httpclient_send_auth:00000000000000ae .L88
C:\Users\stapi\AppData\Local\Temp\cc4pWpLv.s:1672   .text.httpclient_send_auth:0000000000000158 .L90
C:\Users\stapi\AppData\Local\Temp\cc4pWpLv.s:1644   .text.httpclient_send_auth:0000000000000136 .L86
C:\Users\stapi\AppData\Local\Temp\cc4pWpLv.s:1507   .text.httpclient_send_auth:0000000000000082 .L84
C:\Users\stapi\AppData\Local\Temp\cc4pWpLv.s:1632   .text.httpclient_send_auth:000000000000012c .L85
C:\Users\stapi\AppData\Local\Temp\cc4pWpLv.s:1550   .text.httpclient_send_auth:00000000000000b6 .L89
C:\Users\stapi\AppData\Local\Temp\cc4pWpLv.s:1703   .rodata.httpclient_send_header.str1.4:0000000000000020 .LC33
C:\Users\stapi\AppData\Local\Temp\cc4pWpLv.s:1721   .rodata.httpclient_send_header.str1.4:00000000000000cc .LC39
C:\Users\stapi\AppData\Local\Temp\cc4pWpLv.s:1694   .rodata.httpclient_send_header.str1.4:000000000000000c .LC30
C:\Users\stapi\AppData\Local\Temp\cc4pWpLv.s:1697   .rodata.httpclient_send_header.str1.4:0000000000000010 .LC31
C:\Users\stapi\AppData\Local\Temp\cc4pWpLv.s:1691   .rodata.httpclient_send_header.str1.4:0000000000000008 .LC29
C:\Users\stapi\AppData\Local\Temp\cc4pWpLv.s:1700   .rodata.httpclient_send_header.str1.4:0000000000000018 .LC32
C:\Users\stapi\AppData\Local\Temp\cc4pWpLv.s:1688   .rodata.httpclient_send_header.str1.4:0000000000000000 .LC28
C:\Users\stapi\AppData\Local\Temp\cc4pWpLv.s:1706   .rodata.httpclient_send_header.str1.4:0000000000000024 .LC34
C:\Users\stapi\AppData\Local\Temp\cc4pWpLv.s:1709   .rodata.httpclient_send_header.str1.4:0000000000000048 .LC35
C:\Users\stapi\AppData\Local\Temp\cc4pWpLv.s:1712   .rodata.httpclient_send_header.str1.4:0000000000000058 .LC36
C:\Users\stapi\AppData\Local\Temp\cc4pWpLv.s:1715   .rodata.httpclient_send_header.str1.4:000000000000008c .LC37
C:\Users\stapi\AppData\Local\Temp\cc4pWpLv.s:1718   .rodata.httpclient_send_header.str1.4:00000000000000b0 .LC38
C:\Users\stapi\AppData\Local\Temp\cc4pWpLv.s:1724   .rodata.httpclient_send_header.str1.4:00000000000000f4 .LC40
C:\Users\stapi\AppData\Local\Temp\cc4pWpLv.s:1727   .rodata.httpclient_send_header.str1.4:000000000000010c .LC41
C:\Users\stapi\AppData\Local\Temp\cc4pWpLv.s:1730   .rodata.httpclient_send_header.str1.4:0000000000000124 .LC42
C:\Users\stapi\AppData\Local\Temp\cc4pWpLv.s:1733   .rodata.httpclient_send_header.str1.4:0000000000000138 .LC43
C:\Users\stapi\AppData\Local\Temp\cc4pWpLv.s:1736   .rodata.httpclient_send_header.str1.4:000000000000013c .LC44
C:\Users\stapi\AppData\Local\Temp\cc4pWpLv.s:1739   .rodata.httpclient_send_header.str1.4:0000000000000144 .LC45
C:\Users\stapi\AppData\Local\Temp\cc4pWpLv.s:1742   .rodata.httpclient_send_header.str1.4:0000000000000158 .LC46
C:\Users\stapi\AppData\Local\Temp\cc4pWpLv.s:1745   .rodata.httpclient_send_header.str1.4:0000000000000184 .LC47
C:\Users\stapi\AppData\Local\Temp\cc4pWpLv.s:1993   .text.httpclient_send_header:0000000000000180 .L92
C:\Users\stapi\AppData\Local\Temp\cc4pWpLv.s:2478   .text.httpclient_send_header:00000000000004e6 .L117
C:\Users\stapi\AppData\Local\Temp\cc4pWpLv.s:2489   .text.httpclient_send_header:00000000000004f0 .L118
C:\Users\stapi\AppData\Local\Temp\cc4pWpLv.s:1964   .text.httpclient_send_header:000000000000014e .L94
C:\Users\stapi\AppData\Local\Temp\cc4pWpLv.s:2014   .text.httpclient_send_header:000000000000018c .L120
C:\Users\stapi\AppData\Local\Temp\cc4pWpLv.s:2020   .text.httpclient_send_header:0000000000000196 .L121
C:\Users\stapi\AppData\Local\Temp\cc4pWpLv.s:2025   .text.httpclient_send_header:00000000000001a0 .L122
C:\Users\stapi\AppData\Local\Temp\cc4pWpLv.s:2030   .text.httpclient_send_header:00000000000001aa .L123
C:\Users\stapi\AppData\Local\Temp\cc4pWpLv.s:2035   .text.httpclient_send_header:00000000000001b4 .L124
C:\Users\stapi\AppData\Local\Temp\cc4pWpLv.s:2041   .text.httpclient_send_header:00000000000001be .L96
C:\Users\stapi\AppData\Local\Temp\cc4pWpLv.s:1977   .text.httpclient_send_header:0000000000000166 .L115
C:\Users\stapi\AppData\Local\Temp\cc4pWpLv.s:1985   .text.httpclient_send_header:0000000000000174 .L113
C:\Users\stapi\AppData\Local\Temp\cc4pWpLv.s:1889   .text.httpclient_send_header:00000000000000d8 .L95
C:\Users\stapi\AppData\Local\Temp\cc4pWpLv.s:2072   .text.httpclient_send_header:00000000000001f4 .L98
C:\Users\stapi\AppData\Local\Temp\cc4pWpLv.s:1926   .text.httpclient_send_header:0000000000000112 .L142
C:\Users\stapi\AppData\Local\Temp\cc4pWpLv.s:2132   .text.httpclient_send_header:000000000000024e .L99
C:\Users\stapi\AppData\Local\Temp\cc4pWpLv.s:1941   .text.httpclient_send_header:0000000000000120 .L97
C:\Users\stapi\AppData\Local\Temp\cc4pWpLv.s:2160   .text.httpclient_send_header:0000000000000280 .L100
C:\Users\stapi\AppData\Local\Temp\cc4pWpLv.s:2067   .text.httpclient_send_header:00000000000001ea .L143
C:\Users\stapi\AppData\Local\Temp\cc4pWpLv.s:2208   .text.httpclient_send_header:00000000000002d6 .L101
C:\Users\stapi\AppData\Local\Temp\cc4pWpLv.s:2219   .text.httpclient_send_header:00000000000002e4 .L103
C:\Users\stapi\AppData\Local\Temp\cc4pWpLv.s:2186   .text.httpclient_send_header:00000000000002a8 .L102
C:\Users\stapi\AppData\Local\Temp\cc4pWpLv.s:2288   .text.httpclient_send_header:0000000000000358 .L140
C:\Users\stapi\AppData\Local\Temp\cc4pWpLv.s:1957   .text.httpclient_send_header:0000000000000142 .L144
C:\Users\stapi\AppData\Local\Temp\cc4pWpLv.s:2299   .text.httpclient_send_header:000000000000036c .L106
C:\Users\stapi\AppData\Local\Temp\cc4pWpLv.s:2321   .text.httpclient_send_header:0000000000000390 .L107
C:\Users\stapi\AppData\Local\Temp\cc4pWpLv.s:2372   .text.httpclient_send_header:0000000000000404 .L109
C:\Users\stapi\AppData\Local\Temp\cc4pWpLv.s:2423   .text.httpclient_send_header:0000000000000482 .L111
C:\Users\stapi\AppData\Local\Temp\cc4pWpLv.s:2451   .text.httpclient_send_header:00000000000004b4 .L112
C:\Users\stapi\AppData\Local\Temp\cc4pWpLv.s:2484   .text.httpclient_send_header:00000000000004ea .L145
C:\Users\stapi\AppData\Local\Temp\cc4pWpLv.s:2498   .rodata.httpclient_send_userdata.str1.4:0000000000000000 .LC48
C:\Users\stapi\AppData\Local\Temp\cc4pWpLv.s:2501   .rodata.httpclient_send_userdata.str1.4:000000000000001c .LC49
C:\Users\stapi\AppData\Local\Temp\cc4pWpLv.s:2643   .text.httpclient_send_userdata:00000000000000e6 .L150
C:\Users\stapi\AppData\Local\Temp\cc4pWpLv.s:2576   .text.httpclient_send_userdata:0000000000000074 .L146
C:\Users\stapi\AppData\Local\Temp\cc4pWpLv.s:2589   .text.httpclient_send_userdata:000000000000007e .L148
C:\Users\stapi\AppData\Local\Temp\cc4pWpLv.s:2618   .text.httpclient_send_userdata:00000000000000b4 .L149
C:\Users\stapi\AppData\Local\Temp\cc4pWpLv.s:2660   .rodata.httpclient_connect.str1.4:0000000000000000 .LC50
C:\Users\stapi\AppData\Local\Temp\cc4pWpLv.s:2721   .text.httpclient_connect:0000000000000046 .L158
C:\Users\stapi\AppData\Local\Temp\cc4pWpLv.s:2731   .rodata.httpclient_send_request.str1.4:0000000000000000 .LC51
C:\Users\stapi\AppData\Local\Temp\cc4pWpLv.s:2734   .rodata.httpclient_send_request.str1.4:0000000000000028 .LC52
C:\Users\stapi\AppData\Local\Temp\cc4pWpLv.s:2792   .text.httpclient_send_request:0000000000000048 .L165
C:\Users\stapi\AppData\Local\Temp\cc4pWpLv.s:2827   .text.httpclient_send_request:000000000000008e .L167
C:\Users\stapi\AppData\Local\Temp\cc4pWpLv.s:2780   .text.httpclient_send_request:000000000000003e .L164
C:\Users\stapi\AppData\Local\Temp\cc4pWpLv.s:2849   .rodata.httpclient_recv_response.str1.4:0000000000000000 .LC53
C:\Users\stapi\AppData\Local\Temp\cc4pWpLv.s:2852   .rodata.httpclient_recv_response.str1.4:0000000000000004 .LC54
C:\Users\stapi\AppData\Local\Temp\cc4pWpLv.s:2855   .rodata.httpclient_recv_response.str1.4:0000000000000010 .LC55
C:\Users\stapi\AppData\Local\Temp\cc4pWpLv.s:2858   .rodata.httpclient_recv_response.str1.4:0000000000000024 .LC56
C:\Users\stapi\AppData\Local\Temp\cc4pWpLv.s:2861   .rodata.httpclient_recv_response.str1.4:000000000000002c .LC57
C:\Users\stapi\AppData\Local\Temp\cc4pWpLv.s:2864   .rodata.httpclient_recv_response.str1.4:0000000000000040 .LC58
C:\Users\stapi\AppData\Local\Temp\cc4pWpLv.s:2870   .rodata.httpclient_recv_response.str1.4:000000000000006c .LC60
C:\Users\stapi\AppData\Local\Temp\cc4pWpLv.s:2873   .rodata.httpclient_recv_response.str1.4:0000000000000074 .LC61
C:\Users\stapi\AppData\Local\Temp\cc4pWpLv.s:2867   .rodata.httpclient_recv_response.str1.4:0000000000000054 .LC59
C:\Users\stapi\AppData\Local\Temp\cc4pWpLv.s:2876   .rodata.httpclient_recv_response.str1.4:0000000000000084 .LC62
C:\Users\stapi\AppData\Local\Temp\cc4pWpLv.s:2879   .rodata.httpclient_recv_response.str1.4:0000000000000098 .LC63
C:\Users\stapi\AppData\Local\Temp\cc4pWpLv.s:2882   .rodata.httpclient_recv_response.str1.4:00000000000000a0 .LC64
C:\Users\stapi\AppData\Local\Temp\cc4pWpLv.s:2885   .rodata.httpclient_recv_response.str1.4:00000000000000a8 .LC65
C:\Users\stapi\AppData\Local\Temp\cc4pWpLv.s:3412   .text.httpclient_recv_response:000000000000038a .L184
C:\Users\stapi\AppData\Local\Temp\cc4pWpLv.s:2987   .text.httpclient_recv_response:0000000000000090 .L171
C:\Users\stapi\AppData\Local\Temp\cc4pWpLv.s:3419   .text.httpclient_recv_response:000000000000038e .L169
C:\Users\stapi\AppData\Local\Temp\cc4pWpLv.s:3021   .text.httpclient_recv_response:00000000000000c2 .L173
C:\Users\stapi\AppData\Local\Temp\cc4pWpLv.s:2979   .text.httpclient_recv_response:0000000000000084 .L172
C:\Users\stapi\AppData\Local\Temp\cc4pWpLv.s:3132   .text.httpclient_recv_response:000000000000018e .L174
C:\Users\stapi\AppData\Local\Temp\cc4pWpLv.s:3171   .text.httpclient_recv_response:00000000000001e2 .L176
C:\Users\stapi\AppData\Local\Temp\cc4pWpLv.s:3274   .text.httpclient_recv_response:00000000000002a2 .L179
C:\Users\stapi\AppData\Local\Temp\cc4pWpLv.s:3335   .text.httpclient_recv_response:0000000000000306 .L180
C:\Users\stapi\AppData\Local\Temp\cc4pWpLv.s:3009   .text.httpclient_recv_response:00000000000000b2 .L192
C:\Users\stapi\AppData\Local\Temp\cc4pWpLv.s:3299   .text.httpclient_recv_response:00000000000002cc .L178
C:\Users\stapi\AppData\Local\Temp\cc4pWpLv.s:3212   .text.httpclient_recv_response:0000000000000234 .L177
C:\Users\stapi\AppData\Local\Temp\cc4pWpLv.s:3387   .text.httpclient_recv_response:000000000000035a .L182
C:\Users\stapi\AppData\Local\Temp\cc4pWpLv.s:3374   .text.httpclient_recv_response:000000000000034a .L183
C:\Users\stapi\AppData\Local\Temp\cc4pWpLv.s:3244   .text.httpclient_recv_response:000000000000026c .L181
C:\Users\stapi\AppData\Local\Temp\cc4pWpLv.s:3444   .rodata.httpclient_close.str1.4:0000000000000000 .LC66
C:\Users\stapi\AppData\Local\Temp\cc4pWpLv.s:3472   .text.httpclient_close:0000000000000014 .L194
C:\Users\stapi\AppData\Local\Temp\cc4pWpLv.s:3504   .rodata.httpclient_common.str1.4:0000000000000000 .LC67
C:\Users\stapi\AppData\Local\Temp\cc4pWpLv.s:3507   .rodata.httpclient_common.str1.4:0000000000000010 .LC68
C:\Users\stapi\AppData\Local\Temp\cc4pWpLv.s:3510   .rodata.httpclient_common.str1.4:0000000000000038 .LC69
C:\Users\stapi\AppData\Local\Temp\cc4pWpLv.s:3513   .rodata.httpclient_common.str1.4:0000000000000064 .LC70
C:\Users\stapi\AppData\Local\Temp\cc4pWpLv.s:3516   .rodata.httpclient_common.str1.4:0000000000000090 .LC71
C:\Users\stapi\AppData\Local\Temp\cc4pWpLv.s:3676   .text.httpclient_common:00000000000000f0 .L200
C:\Users\stapi\AppData\Local\Temp\cc4pWpLv.s:3610   .text.httpclient_common:0000000000000074 .L201
C:\Users\stapi\AppData\Local\Temp\cc4pWpLv.s:3650   .text.httpclient_common:00000000000000c0 .L203
C:\Users\stapi\AppData\Local\Temp\cc4pWpLv.s:3593   .text.httpclient_common:0000000000000068 .L199
C:\Users\stapi\AppData\Local\Temp\cc4pWpLv.s:3632   .text.httpclient_common:000000000000009c .L217
C:\Users\stapi\AppData\Local\Temp\cc4pWpLv.s:3720   .text.httpclient_common:000000000000014c .L204
C:\Users\stapi\AppData\Local\Temp\cc4pWpLv.s:3738   .text.httpclient_common:0000000000000174 .L205
C:\Users\stapi\AppData\Local\Temp\cc4pWpLv.s:3637   .text.httpclient_common:00000000000000a4 .L216
C:\Users\stapi\AppData\Local\Temp\cc4pWpLv.s:3764   .rodata.iotx_post.str1.4:0000000000000000 .LC72
C:\Users\stapi\AppData\Local\Temp\cc4pWpLv.s:3901   .text.iotx_post:00000000000000d6 .L220
C:\Users\stapi\AppData\Local\Temp\cc4pWpLv.s:3884   .text.iotx_post:00000000000000ca .L219
C:\Users\stapi\AppData\Local\Temp\cc4pWpLv.s:3874   .text.iotx_post:00000000000000b8 .L229
C:\Users\stapi\AppData\Local\Temp\cc4pWpLv.s:10669  .debug_abbrev:0000000000000000 .Ldebug_abbrev0
C:\Users\stapi\AppData\Local\Temp\cc4pWpLv.s:14364  .debug_str:00000000000000fd .LASF360
C:\Users\stapi\AppData\Local\Temp\cc4pWpLv.s:14548  .debug_str:0000000000000976 .LASF361
C:\Users\stapi\AppData\Local\Temp\cc4pWpLv.s:14808  .debug_str:0000000000001410 .LASF362
C:\Users\stapi\AppData\Local\Temp\cc4pWpLv.s:14218  .debug_ranges:0000000000000000 .Ldebug_ranges0
C:\Users\stapi\AppData\Local\Temp\cc4pWpLv.s:14338  .debug_line:0000000000000000 .Ldebug_line0
C:\Users\stapi\AppData\Local\Temp\cc4pWpLv.s:14772  .debug_str:000000000000128f .LASF0
C:\Users\stapi\AppData\Local\Temp\cc4pWpLv.s:14490  .debug_str:0000000000000709 .LASF1
C:\Users\stapi\AppData\Local\Temp\cc4pWpLv.s:14514  .debug_str:00000000000007d7 .LASF2
C:\Users\stapi\AppData\Local\Temp\cc4pWpLv.s:14932  .debug_str:00000000000019ad .LASF3
C:\Users\stapi\AppData\Local\Temp\cc4pWpLv.s:14566  .debug_str:0000000000000aa5 .LASF6
C:\Users\stapi\AppData\Local\Temp\cc4pWpLv.s:15026  .debug_str:0000000000001dd8 .LASF4
C:\Users\stapi\AppData\Local\Temp\cc4pWpLv.s:14446  .debug_str:0000000000000549 .LASF5
C:\Users\stapi\AppData\Local\Temp\cc4pWpLv.s:14724  .debug_str:00000000000010ea .LASF7
C:\Users\stapi\AppData\Local\Temp\cc4pWpLv.s:14668  .debug_str:0000000000000eff .LASF8
C:\Users\stapi\AppData\Local\Temp\cc4pWpLv.s:14728  .debug_str:0000000000001102 .LASF9
C:\Users\stapi\AppData\Local\Temp\cc4pWpLv.s:14850  .debug_str:000000000000169f .LASF10
C:\Users\stapi\AppData\Local\Temp\cc4pWpLv.s:14896  .debug_str:0000000000001840 .LASF11
C:\Users\stapi\AppData\Local\Temp\cc4pWpLv.s:14550  .debug_str:0000000000000a12 .LASF12
C:\Users\stapi\AppData\Local\Temp\cc4pWpLv.s:14858  .debug_str:0000000000001702 .LASF13
C:\Users\stapi\AppData\Local\Temp\cc4pWpLv.s:14996  .debug_str:0000000000001c8f .LASF14
C:\Users\stapi\AppData\Local\Temp\cc4pWpLv.s:14692  .debug_str:0000000000000fb7 .LASF15
C:\Users\stapi\AppData\Local\Temp\cc4pWpLv.s:14870  .debug_str:000000000000176a .LASF16
C:\Users\stapi\AppData\Local\Temp\cc4pWpLv.s:14806  .debug_str:00000000000013ff .LASF17
C:\Users\stapi\AppData\Local\Temp\cc4pWpLv.s:14502  .debug_str:0000000000000770 .LASF18
C:\Users\stapi\AppData\Local\Temp\cc4pWpLv.s:14498  .debug_str:0000000000000750 .LASF19
C:\Users\stapi\AppData\Local\Temp\cc4pWpLv.s:15042  .debug_str:0000000000001e73 .LASF20
C:\Users\stapi\AppData\Local\Temp\cc4pWpLv.s:14342  .debug_str:0000000000000007 .LASF21
C:\Users\stapi\AppData\Local\Temp\cc4pWpLv.s:14974  .debug_str:0000000000001b7e .LASF22
C:\Users\stapi\AppData\Local\Temp\cc4pWpLv.s:14420  .debug_str:0000000000000451 .LASF23
C:\Users\stapi\AppData\Local\Temp\cc4pWpLv.s:14948  .debug_str:0000000000001a62 .LASF24
C:\Users\stapi\AppData\Local\Temp\cc4pWpLv.s:14672  .debug_str:0000000000000f39 .LASF25
C:\Users\stapi\AppData\Local\Temp\cc4pWpLv.s:14568  .debug_str:0000000000000ab0 .LASF26
C:\Users\stapi\AppData\Local\Temp\cc4pWpLv.s:14590  .debug_str:0000000000000b67 .LASF27
C:\Users\stapi\AppData\Local\Temp\cc4pWpLv.s:15012  .debug_str:0000000000001d4c .LASF28
C:\Users\stapi\AppData\Local\Temp\cc4pWpLv.s:14466  .debug_str:0000000000000608 .LASF29
C:\Users\stapi\AppData\Local\Temp\cc4pWpLv.s:14518  .debug_str:0000000000000804 .LASF30
C:\Users\stapi\AppData\Local\Temp\cc4pWpLv.s:14488  .debug_str:00000000000006f9 .LASF31
C:\Users\stapi\AppData\Local\Temp\cc4pWpLv.s:14592  .debug_str:0000000000000b7f .LASF32
C:\Users\stapi\AppData\Local\Temp\cc4pWpLv.s:14706  .debug_str:000000000000102f .LASF33
C:\Users\stapi\AppData\Local\Temp\cc4pWpLv.s:14696  .debug_str:0000000000000fd6 .LASF34
C:\Users\stapi\AppData\Local\Temp\cc4pWpLv.s:15030  .debug_str:0000000000001e04 .LASF35
C:\Users\stapi\AppData\Local\Temp\cc4pWpLv.s:14778  .debug_str:00000000000012ce .LASF36
C:\Users\stapi\AppData\Local\Temp\cc4pWpLv.s:14468  .debug_str:000000000000061b .LASF37
C:\Users\stapi\AppData\Local\Temp\cc4pWpLv.s:14860  .debug_str:000000000000170b .LASF38
C:\Users\stapi\AppData\Local\Temp\cc4pWpLv.s:14400  .debug_str:0000000000000339 .LASF39
C:\Users\stapi\AppData\Local\Temp\cc4pWpLv.s:14802  .debug_str:00000000000013db .LASF40
C:\Users\stapi\AppData\Local\Temp\cc4pWpLv.s:14910  .debug_str:00000000000018cd .LASF41
C:\Users\stapi\AppData\Local\Temp\cc4pWpLv.s:14790  .debug_str:0000000000001355 .LASF42
C:\Users\stapi\AppData\Local\Temp\cc4pWpLv.s:14962  .debug_str:0000000000001b08 .LASF43
C:\Users\stapi\AppData\Local\Temp\cc4pWpLv.s:14658  .debug_str:0000000000000eb0 .LASF44
C:\Users\stapi\AppData\Local\Temp\cc4pWpLv.s:15022  .debug_str:0000000000001db3 .LASF45
C:\Users\stapi\AppData\Local\Temp\cc4pWpLv.s:14708  .debug_str:0000000000001048 .LASF46
C:\Users\stapi\AppData\Local\Temp\cc4pWpLv.s:15046  .debug_str:0000000000001e91 .LASF47
C:\Users\stapi\AppData\Local\Temp\cc4pWpLv.s:15004  .debug_str:0000000000001cf4 .LASF48
C:\Users\stapi\AppData\Local\Temp\cc4pWpLv.s:14958  .debug_str:0000000000001ad3 .LASF49
C:\Users\stapi\AppData\Local\Temp\cc4pWpLv.s:14352  .debug_str:0000000000000071 .LASF363
C:\Users\stapi\AppData\Local\Temp\cc4pWpLv.s:14494  .debug_str:000000000000071e .LASF50
C:\Users\stapi\AppData\Local\Temp\cc4pWpLv.s:14746  .debug_str:00000000000011a5 .LASF51
C:\Users\stapi\AppData\Local\Temp\cc4pWpLv.s:14810  .debug_str:00000000000014a1 .LASF52
C:\Users\stapi\AppData\Local\Temp\cc4pWpLv.s:14610  .debug_str:0000000000000c5b .LASF53
C:\Users\stapi\AppData\Local\Temp\cc4pWpLv.s:14992  .debug_str:0000000000001c66 .LASF54
C:\Users\stapi\AppData\Local\Temp\cc4pWpLv.s:14716  .debug_str:0000000000001086 .LASF55
C:\Users\stapi\AppData\Local\Temp\cc4pWpLv.s:14344  .debug_str:0000000000000019 .LASF56
C:\Users\stapi\AppData\Local\Temp\cc4pWpLv.s:14890  .debug_str:0000000000001820 .LASF57
C:\Users\stapi\AppData\Local\Temp\cc4pWpLv.s:15020  .debug_str:0000000000001da4 .LASF58
C:\Users\stapi\AppData\Local\Temp\cc4pWpLv.s:14912  .debug_str:00000000000018e2 .LASF59
C:\Users\stapi\AppData\Local\Temp\cc4pWpLv.s:14864  .debug_str:0000000000001731 .LASF60
C:\Users\stapi\AppData\Local\Temp\cc4pWpLv.s:14562  .debug_str:0000000000000a85 .LASF61
C:\Users\stapi\AppData\Local\Temp\cc4pWpLv.s:14814  .debug_str:00000000000014d7 .LASF62
C:\Users\stapi\AppData\Local\Temp\cc4pWpLv.s:14866  .debug_str:0000000000001740 .LASF63
C:\Users\stapi\AppData\Local\Temp\cc4pWpLv.s:14660  .debug_str:0000000000000ec5 .LASF64
C:\Users\stapi\AppData\Local\Temp\cc4pWpLv.s:15032  .debug_str:0000000000001e0d .LASF65
C:\Users\stapi\AppData\Local\Temp\cc4pWpLv.s:14732  .debug_str:0000000000001118 .LASF66
C:\Users\stapi\AppData\Local\Temp\cc4pWpLv.s:14838  .debug_str:00000000000015f2 .LASF67
C:\Users\stapi\AppData\Local\Temp\cc4pWpLv.s:14532  .debug_str:00000000000008ab .LASF68
C:\Users\stapi\AppData\Local\Temp\cc4pWpLv.s:14914  .debug_str:00000000000018f1 .LASF69
C:\Users\stapi\AppData\Local\Temp\cc4pWpLv.s:14358  .debug_str:000000000000009f .LASF70
C:\Users\stapi\AppData\Local\Temp\cc4pWpLv.s:14440  .debug_str:00000000000004fa .LASF71
C:\Users\stapi\AppData\Local\Temp\cc4pWpLv.s:14872  .debug_str:000000000000177a .LASF72
C:\Users\stapi\AppData\Local\Temp\cc4pWpLv.s:14524  .debug_str:0000000000000840 .LASF73
C:\Users\stapi\AppData\Local\Temp\cc4pWpLv.s:14654  .debug_str:0000000000000e88 .LASF74
C:\Users\stapi\AppData\Local\Temp\cc4pWpLv.s:14854  .debug_str:00000000000016dc .LASF75
C:\Users\stapi\AppData\Local\Temp\cc4pWpLv.s:14380  .debug_str:000000000000026e .LASF76
C:\Users\stapi\AppData\Local\Temp\cc4pWpLv.s:14946  .debug_str:0000000000001a47 .LASF77
C:\Users\stapi\AppData\Local\Temp\cc4pWpLv.s:14780  .debug_str:00000000000012e4 .LASF78
C:\Users\stapi\AppData\Local\Temp\cc4pWpLv.s:14556  .debug_str:0000000000000a2e .LASF79
C:\Users\stapi\AppData\Local\Temp\cc4pWpLv.s:14458  .debug_str:00000000000005a3 .LASF80
C:\Users\stapi\AppData\Local\Temp\cc4pWpLv.s:14414  .debug_str:00000000000003f1 .LASF81
C:\Users\stapi\AppData\Local\Temp\cc4pWpLv.s:14836  .debug_str:00000000000015d9 .LASF82
C:\Users\stapi\AppData\Local\Temp\cc4pWpLv.s:14966  .debug_str:0000000000001b38 .LASF83
C:\Users\stapi\AppData\Local\Temp\cc4pWpLv.s:14826  .debug_str:0000000000001575 .LASF84
C:\Users\stapi\AppData\Local\Temp\cc4pWpLv.s:14346  .debug_str:0000000000000028 .LASF85
C:\Users\stapi\AppData\Local\Temp\cc4pWpLv.s:14396  .debug_str:000000000000030a .LASF86
C:\Users\stapi\AppData\Local\Temp\cc4pWpLv.s:14412  .debug_str:00000000000003d2 .LASF87
C:\Users\stapi\AppData\Local\Temp\cc4pWpLv.s:14844  .debug_str:0000000000001658 .LASF88
C:\Users\stapi\AppData\Local\Temp\cc4pWpLv.s:14582  .debug_str:0000000000000b11 .LASF89
C:\Users\stapi\AppData\Local\Temp\cc4pWpLv.s:14720  .debug_str:00000000000010b0 .LASF90
C:\Users\stapi\AppData\Local\Temp\cc4pWpLv.s:14464  .debug_str:00000000000005f5 .LASF91
C:\Users\stapi\AppData\Local\Temp\cc4pWpLv.s:15018  .debug_str:0000000000001d88 .LASF92
C:\Users\stapi\AppData\Local\Temp\cc4pWpLv.s:15034  .debug_str:0000000000001e2f .LASF93
C:\Users\stapi\AppData\Local\Temp\cc4pWpLv.s:14930  .debug_str:0000000000001995 .LASF94
C:\Users\stapi\AppData\Local\Temp\cc4pWpLv.s:14998  .debug_str:0000000000001c98 .LASF95
C:\Users\stapi\AppData\Local\Temp\cc4pWpLv.s:14522  .debug_str:0000000000000827 .LASF96
C:\Users\stapi\AppData\Local\Temp\cc4pWpLv.s:14588  .debug_str:0000000000000b4d .LASF97
C:\Users\stapi\AppData\Local\Temp\cc4pWpLv.s:14796  .debug_str:0000000000001399 .LASF98
C:\Users\stapi\AppData\Local\Temp\cc4pWpLv.s:14478  .debug_str:0000000000000684 .LASF99
C:\Users\stapi\AppData\Local\Temp\cc4pWpLv.s:14604  .debug_str:0000000000000c04 .LASF100
C:\Users\stapi\AppData\Local\Temp\cc4pWpLv.s:14496  .debug_str:0000000000000735 .LASF101
C:\Users\stapi\AppData\Local\Temp\cc4pWpLv.s:14880  .debug_str:00000000000017c9 .LASF102
C:\Users\stapi\AppData\Local\Temp\cc4pWpLv.s:14542  .debug_str:000000000000092b .LASF103
C:\Users\stapi\AppData\Local\Temp\cc4pWpLv.s:14406  .debug_str:000000000000039a .LASF104
C:\Users\stapi\AppData\Local\Temp\cc4pWpLv.s:14940  .debug_str:00000000000019ef .LASF105
C:\Users\stapi\AppData\Local\Temp\cc4pWpLv.s:14648  .debug_str:0000000000000e33 .LASF106
C:\Users\stapi\AppData\Local\Temp\cc4pWpLv.s:14644  .debug_str:0000000000000df5 .LASF107
C:\Users\stapi\AppData\Local\Temp\cc4pWpLv.s:14528  .debug_str:0000000000000879 .LASF108
C:\Users\stapi\AppData\Local\Temp\cc4pWpLv.s:14920  .debug_str:000000000000192e .LASF109
C:\Users\stapi\AppData\Local\Temp\cc4pWpLv.s:14938  .debug_str:00000000000019d0 .LASF110
C:\Users\stapi\AppData\Local\Temp\cc4pWpLv.s:14922  .debug_str:0000000000001948 .LASF111
C:\Users\stapi\AppData\Local\Temp\cc4pWpLv.s:14486  .debug_str:00000000000006e1 .LASF112
C:\Users\stapi\AppData\Local\Temp\cc4pWpLv.s:15002  .debug_str:0000000000001cd1 .LASF113
C:\Users\stapi\AppData\Local\Temp\cc4pWpLv.s:15000  .debug_str:0000000000001cb4 .LASF114
C:\Users\stapi\AppData\Local\Temp\cc4pWpLv.s:14818  .debug_str:000000000000150a .LASF115
C:\Users\stapi\AppData\Local\Temp\cc4pWpLv.s:15014  .debug_str:0000000000001d60 .LASF116
C:\Users\stapi\AppData\Local\Temp\cc4pWpLv.s:14754  .debug_str:00000000000011e4 .LASF117
C:\Users\stapi\AppData\Local\Temp\cc4pWpLv.s:14760  .debug_str:0000000000001232 .LASF118
C:\Users\stapi\AppData\Local\Temp\cc4pWpLv.s:14618  .debug_str:0000000000000cb2 .LASF119
C:\Users\stapi\AppData\Local\Temp\cc4pWpLv.s:14360  .debug_str:00000000000000bf .LASF120
C:\Users\stapi\AppData\Local\Temp\cc4pWpLv.s:14964  .debug_str:0000000000001b1c .LASF121
C:\Users\stapi\AppData\Local\Temp\cc4pWpLv.s:14822  .debug_str:0000000000001539 .LASF122
C:\Users\stapi\AppData\Local\Temp\cc4pWpLv.s:14646  .debug_str:0000000000000e13 .LASF123
C:\Users\stapi\AppData\Local\Temp\cc4pWpLv.s:14642  .debug_str:0000000000000dd6 .LASF124
C:\Users\stapi\AppData\Local\Temp\cc4pWpLv.s:14738  .debug_str:000000000000115e .LASF125
C:\Users\stapi\AppData\Local\Temp\cc4pWpLv.s:14390  .debug_str:00000000000002c8 .LASF126
C:\Users\stapi\AppData\Local\Temp\cc4pWpLv.s:15008  .debug_str:0000000000001d14 .LASF127
C:\Users\stapi\AppData\Local\Temp\cc4pWpLv.s:14448  .debug_str:0000000000000552 .LASF128
C:\Users\stapi\AppData\Local\Temp\cc4pWpLv.s:14798  .debug_str:00000000000013b4 .LASF129
C:\Users\stapi\AppData\Local\Temp\cc4pWpLv.s:14986  .debug_str:0000000000001c21 .LASF130
C:\Users\stapi\AppData\Local\Temp\cc4pWpLv.s:14370  .debug_str:000000000000020a .LASF131
C:\Users\stapi\AppData\Local\Temp\cc4pWpLv.s:14968  .debug_str:0000000000001b56 .LASF132
C:\Users\stapi\AppData\Local\Temp\cc4pWpLv.s:15010  .debug_str:0000000000001d2e .LASF133
C:\Users\stapi\AppData\Local\Temp\cc4pWpLv.s:14350  .debug_str:0000000000000057 .LASF134
C:\Users\stapi\AppData\Local\Temp\cc4pWpLv.s:14712  .debug_str:0000000000001063 .LASF135
C:\Users\stapi\AppData\Local\Temp\cc4pWpLv.s:14462  .debug_str:00000000000005d4 .LASF136
C:\Users\stapi\AppData\Local\Temp\cc4pWpLv.s:15070  .debug_str:0000000000001f9d .LASF137
C:\Users\stapi\AppData\Local\Temp\cc4pWpLv.s:14474  .debug_str:000000000000064c .LASF138
C:\Users\stapi\AppData\Local\Temp\cc4pWpLv.s:14828  .debug_str:000000000000158f .LASF139
C:\Users\stapi\AppData\Local\Temp\cc4pWpLv.s:15058  .debug_str:0000000000001f26 .LASF140
C:\Users\stapi\AppData\Local\Temp\cc4pWpLv.s:15052  .debug_str:0000000000001eca .LASF141
C:\Users\stapi\AppData\Local\Temp\cc4pWpLv.s:14452  .debug_str:0000000000000577 .LASF142
C:\Users\stapi\AppData\Local\Temp\cc4pWpLv.s:14756  .debug_str:0000000000001203 .LASF143
C:\Users\stapi\AppData\Local\Temp\cc4pWpLv.s:14634  .debug_str:0000000000000d88 .LASF144
C:\Users\stapi\AppData\Local\Temp\cc4pWpLv.s:14432  .debug_str:00000000000004bb .LASF145
C:\Users\stapi\AppData\Local\Temp\cc4pWpLv.s:14546  .debug_str:0000000000000958 .LASF146
C:\Users\stapi\AppData\Local\Temp\cc4pWpLv.s:14418  .debug_str:0000000000000433 .LASF147
C:\Users\stapi\AppData\Local\Temp\cc4pWpLv.s:14470  .debug_str:000000000000062c .LASF148
C:\Users\stapi\AppData\Local\Temp\cc4pWpLv.s:14990  .debug_str:0000000000001c52 .LASF149
C:\Users\stapi\AppData\Local\Temp\cc4pWpLv.s:14386  .debug_str:0000000000000297 .LASF150
C:\Users\stapi\AppData\Local\Temp\cc4pWpLv.s:14348  .debug_str:000000000000003f .LASF151
C:\Users\stapi\AppData\Local\Temp\cc4pWpLv.s:14482  .debug_str:00000000000006b9 .LASF152
C:\Users\stapi\AppData\Local\Temp\cc4pWpLv.s:14994  .debug_str:0000000000001c77 .LASF153
C:\Users\stapi\AppData\Local\Temp\cc4pWpLv.s:14436  .debug_str:00000000000004d8 .LASF154
C:\Users\stapi\AppData\Local\Temp\cc4pWpLv.s:14630  .debug_str:0000000000000d4a .LASF155
C:\Users\stapi\AppData\Local\Temp\cc4pWpLv.s:14362  .debug_str:00000000000000e7 .LASF156
C:\Users\stapi\AppData\Local\Temp\cc4pWpLv.s:14480  .debug_str:000000000000069c .LASF157
C:\Users\stapi\AppData\Local\Temp\cc4pWpLv.s:14944  .debug_str:0000000000001a29 .LASF158
C:\Users\stapi\AppData\Local\Temp\cc4pWpLv.s:14602  .debug_str:0000000000000bdc .LASF159
C:\Users\stapi\AppData\Local\Temp\cc4pWpLv.s:14982  .debug_str:0000000000001bde .LASF160
C:\Users\stapi\AppData\Local\Temp\cc4pWpLv.s:14560  .debug_str:0000000000000a6d .LASF161
C:\Users\stapi\AppData\Local\Temp\cc4pWpLv.s:14984  .debug_str:0000000000001c06 .LASF162
C:\Users\stapi\AppData\Local\Temp\cc4pWpLv.s:14626  .debug_str:0000000000000d0f .LASF163
C:\Users\stapi\AppData\Local\Temp\cc4pWpLv.s:14526  .debug_str:0000000000000859 .LASF164
C:\Users\stapi\AppData\Local\Temp\cc4pWpLv.s:14416  .debug_str:000000000000040c .LASF165
C:\Users\stapi\AppData\Local\Temp\cc4pWpLv.s:14718  .debug_str:0000000000001098 .LASF166
C:\Users\stapi\AppData\Local\Temp\cc4pWpLv.s:14824  .debug_str:0000000000001555 .LASF167
C:\Users\stapi\AppData\Local\Temp\cc4pWpLv.s:14578  .debug_str:0000000000000aef .LASF168
C:\Users\stapi\AppData\Local\Temp\cc4pWpLv.s:14840  .debug_str:0000000000001623 .LASF169
C:\Users\stapi\AppData\Local\Temp\cc4pWpLv.s:14538  .debug_str:00000000000008f3 .LASF170
C:\Users\stapi\AppData\Local\Temp\cc4pWpLv.s:14812  .debug_str:00000000000014b8 .LASF171
C:\Users\stapi\AppData\Local\Temp\cc4pWpLv.s:14444  .debug_str:000000000000052c .LASF172
C:\Users\stapi\AppData\Local\Temp\cc4pWpLv.s:14422  .debug_str:0000000000000465 .LASF173
C:\Users\stapi\AppData\Local\Temp\cc4pWpLv.s:14620  .debug_str:0000000000000cd3 .LASF174
C:\Users\stapi\AppData\Local\Temp\cc4pWpLv.s:14674  .debug_str:0000000000000f4a .LASF175
C:\Users\stapi\AppData\Local\Temp\cc4pWpLv.s:14988  .debug_str:0000000000001c3b .LASF176
C:\Users\stapi\AppData\Local\Temp\cc4pWpLv.s:15050  .debug_str:0000000000001eb3 .LASF177
C:\Users\stapi\AppData\Local\Temp\cc4pWpLv.s:14742  .debug_str:0000000000001179 .LASF178
C:\Users\stapi\AppData\Local\Temp\cc4pWpLv.s:14782  .debug_str:00000000000012f5 .LASF179
C:\Users\stapi\AppData\Local\Temp\cc4pWpLv.s:14628  .debug_str:0000000000000d30 .LASF180
C:\Users\stapi\AppData\Local\Temp\cc4pWpLv.s:14884  .debug_str:00000000000017f1 .LASF181
C:\Users\stapi\AppData\Local\Temp\cc4pWpLv.s:14402  .debug_str:000000000000034e .LASF182
C:\Users\stapi\AppData\Local\Temp\cc4pWpLv.s:15038  .debug_str:0000000000001e51 .LASF183
C:\Users\stapi\AppData\Local\Temp\cc4pWpLv.s:14956  .debug_str:0000000000001ab2 .LASF184
C:\Users\stapi\AppData\Local\Temp\cc4pWpLv.s:14596  .debug_str:0000000000000ba3 .LASF185
C:\Users\stapi\AppData\Local\Temp\cc4pWpLv.s:14504  .debug_str:0000000000000781 .LASF186
C:\Users\stapi\AppData\Local\Temp\cc4pWpLv.s:14980  .debug_str:0000000000001bba .LASF187
C:\Users\stapi\AppData\Local\Temp\cc4pWpLv.s:14632  .debug_str:0000000000000d67 .LASF188
C:\Users\stapi\AppData\Local\Temp\cc4pWpLv.s:14702  .debug_str:0000000000001003 .LASF189
C:\Users\stapi\AppData\Local\Temp\cc4pWpLv.s:14736  .debug_str:000000000000113e .LASF190
C:\Users\stapi\AppData\Local\Temp\cc4pWpLv.s:14394  .debug_str:00000000000002e8 .LASF191
C:\Users\stapi\AppData\Local\Temp\cc4pWpLv.s:14960  .debug_str:0000000000001ae7 .LASF192
C:\Users\stapi\AppData\Local\Temp\cc4pWpLv.s:15066  .debug_str:0000000000001f6c .LASF193
C:\Users\stapi\AppData\Local\Temp\cc4pWpLv.s:14558  .debug_str:0000000000000a4a .LASF194
C:\Users\stapi\AppData\Local\Temp\cc4pWpLv.s:14650  .debug_str:0000000000000e52 .LASF195
C:\Users\stapi\AppData\Local\Temp\cc4pWpLv.s:14378  .debug_str:000000000000024b .LASF196
C:\Users\stapi\AppData\Local\Temp\cc4pWpLv.s:14774  .debug_str:000000000000129c .LASF197
C:\Users\stapi\AppData\Local\Temp\cc4pWpLv.s:14852  .debug_str:00000000000016b6 .LASF198
C:\Users\stapi\AppData\Local\Temp\cc4pWpLv.s:15062  .debug_str:0000000000001f4a .LASF199
C:\Users\stapi\AppData\Local\Temp\cc4pWpLv.s:14908  .debug_str:00000000000018a3 .LASF200
C:\Users\stapi\AppData\Local\Temp\cc4pWpLv.s:14516  .debug_str:00000000000007e5 .LASF201
C:\Users\stapi\AppData\Local\Temp\cc4pWpLv.s:14612  .debug_str:0000000000000c74 .LASF202
C:\Users\stapi\AppData\Local\Temp\cc4pWpLv.s:14924  .debug_str:000000000000195d .LASF203
C:\Users\stapi\AppData\Local\Temp\cc4pWpLv.s:14700  .debug_str:0000000000000fe7 .LASF204
C:\Users\stapi\AppData\Local\Temp\cc4pWpLv.s:14794  .debug_str:0000000000001376 .LASF205
C:\Users\stapi\AppData\Local\Temp\cc4pWpLv.s:14606  .debug_str:0000000000000c24 .LASF206
C:\Users\stapi\AppData\Local\Temp\cc4pWpLv.s:14874  .debug_str:000000000000178d .LASF207
C:\Users\stapi\AppData\Local\Temp\cc4pWpLv.s:14862  .debug_str:000000000000171b .LASF208
C:\Users\stapi\AppData\Local\Temp\cc4pWpLv.s:14950  .debug_str:0000000000001a73 .LASF209
C:\Users\stapi\AppData\Local\Temp\cc4pWpLv.s:14476  .debug_str:0000000000000667 .LASF210
C:\Users\stapi\AppData\Local\Temp\cc4pWpLv.s:14670  .debug_str:0000000000000f11 .LASF211
C:\Users\stapi\AppData\Local\Temp\cc4pWpLv.s:14978  .debug_str:0000000000001b99 .LASF212
C:\Users\stapi\AppData\Local\Temp\cc4pWpLv.s:14622  .debug_str:0000000000000cea .LASF213
C:\Users\stapi\AppData\Local\Temp\cc4pWpLv.s:15074  .debug_str:0000000000001fc7 .LASF214
C:\Users\stapi\AppData\Local\Temp\cc4pWpLv.s:14540  .debug_str:000000000000090e .LASF215
C:\Users\stapi\AppData\Local\Temp\cc4pWpLv.s:14366  .debug_str:00000000000001e4 .LASF216
C:\Users\stapi\AppData\Local\Temp\cc4pWpLv.s:14688  .debug_str:0000000000000f9c .LASF217
C:\Users\stapi\AppData\Local\Temp\cc4pWpLv.s:14534  .debug_str:00000000000008d2 .LASF218
C:\Users\stapi\AppData\Local\Temp\cc4pWpLv.s:14484  .debug_str:00000000000006d4 .LASF219
C:\Users\stapi\AppData\Local\Temp\cc4pWpLv.s:15054  .debug_str:0000000000001ee0 .LASF220
C:\Users\stapi\AppData\Local\Temp\cc4pWpLv.s:14904  .debug_str:0000000000001869 .LASF221
C:\Users\stapi\AppData\Local\Temp\cc4pWpLv.s:14404  .debug_str:000000000000036d .LASF222
C:\Users\stapi\AppData\Local\Temp\cc4pWpLv.s:15056  .debug_str:0000000000001ef4 .LASF223
C:\Users\stapi\AppData\Local\Temp\cc4pWpLv.s:14900  .debug_str:0000000000001851 .LASF224
C:\Users\stapi\AppData\Local\Temp\cc4pWpLv.s:14816  .debug_str:00000000000014f5 .LASF225
C:\Users\stapi\AppData\Local\Temp\cc4pWpLv.s:14544  .debug_str:0000000000000947 .LASF226
C:\Users\stapi\AppData\Local\Temp\cc4pWpLv.s:14388  .debug_str:00000000000002b7 .LASF227
C:\Users\stapi\AppData\Local\Temp\cc4pWpLv.s:14554  .debug_str:0000000000000a1e .LASF228
C:\Users\stapi\AppData\Local\Temp\cc4pWpLv.s:15024  .debug_str:0000000000001dc7 .LASF229
C:\Users\stapi\AppData\Local\Temp\cc4pWpLv.s:14786  .debug_str:0000000000001323 .LASF230
C:\Users\stapi\AppData\Local\Temp\cc4pWpLv.s:14656  .debug_str:0000000000000e9f .LASF231
C:\Users\stapi\AppData\Local\Temp\cc4pWpLv.s:15036  .debug_str:0000000000001e46 .LASF232
C:\Users\stapi\AppData\Local\Temp\cc4pWpLv.s:14916  .debug_str:0000000000001917 .LASF233
C:\Users\stapi\AppData\Local\Temp\cc4pWpLv.s:15044  .debug_str:0000000000001e80 .LASF234
C:\Users\stapi\AppData\Local\Temp\cc4pWpLv.s:14766  .debug_str:000000000000126f .LASF235
C:\Users\stapi\AppData\Local\Temp\cc4pWpLv.s:14686  .debug_str:0000000000000f8d .LASF236
C:\Users\stapi\AppData\Local\Temp\cc4pWpLv.s:14892  .debug_str:0000000000001831 .LASF239
C:\Users\stapi\AppData\Local\Temp\cc4pWpLv.s:14454  .debug_str:0000000000000590 .LASF237
C:\Users\stapi\AppData\Local\Temp\cc4pWpLv.s:14594  .debug_str:0000000000000b93 .LASF238
C:\Users\stapi\AppData\Local\Temp\cc4pWpLv.s:14408  .debug_str:00000000000003b9 .LASF364
C:\Users\stapi\AppData\Local\Temp\cc4pWpLv.s:14666  .debug_str:0000000000000ef2 .LASF240
C:\Users\stapi\AppData\Local\Temp\cc4pWpLv.s:14928  .debug_str:0000000000001990 .LASF241
C:\Users\stapi\AppData\Local\Temp\cc4pWpLv.s:14952  .debug_str:0000000000001a8b .LASF242
C:\Users\stapi\AppData\Local\Temp\cc4pWpLv.s:14624  .debug_str:0000000000000d08 .LASF243
C:\Users\stapi\AppData\Local\Temp\cc4pWpLv.s:14830  .debug_str:00000000000015b1 .LASF244
C:\Users\stapi\AppData\Local\Temp\cc4pWpLv.s:14768  .debug_str:000000000000127b .LASF245
C:\Users\stapi\AppData\Local\Temp\cc4pWpLv.s:14384  .debug_str:0000000000000291 .LASF246
C:\Users\stapi\AppData\Local\Temp\cc4pWpLv.s:14834  .debug_str:00000000000015ce .LASF247
C:\Users\stapi\AppData\Local\Temp\cc4pWpLv.s:14730  .debug_str:0000000000001110 .LASF248
C:\Users\stapi\AppData\Local\Temp\cc4pWpLv.s:14846  .debug_str:0000000000001676 .LASF249
C:\Users\stapi\AppData\Local\Temp\cc4pWpLv.s:15048  .debug_str:0000000000001ea4 .LASF250
C:\Users\stapi\AppData\Local\Temp\cc4pWpLv.s:15068  .debug_str:0000000000001f8d .LASF251
C:\Users\stapi\AppData\Local\Temp\cc4pWpLv.s:14584  .debug_str:0000000000000b2f .LASF252
C:\Users\stapi\AppData\Local\Temp\cc4pWpLv.s:14530  .debug_str:0000000000000899 .LASF253
C:\Users\stapi\AppData\Local\Temp\cc4pWpLv.s:14598  .debug_str:0000000000000bc7 .LASF254
C:\Users\stapi\AppData\Local\Temp\cc4pWpLv.s:14848  .debug_str:0000000000001687 .LASF255
C:\Users\stapi\AppData\Local\Temp\cc4pWpLv.s:14856  .debug_str:00000000000016f6 .LASF256
C:\Users\stapi\AppData\Local\Temp\cc4pWpLv.s:14572  .debug_str:0000000000000aca .LASF257
C:\Users\stapi\AppData\Local\Temp\cc4pWpLv.s:14536  .debug_str:00000000000008ec .LASF258
C:\Users\stapi\AppData\Local\Temp\cc4pWpLv.s:14704  .debug_str:0000000000001025 .LASF259
C:\Users\stapi\AppData\Local\Temp\cc4pWpLv.s:14936  .debug_str:00000000000019c2 .LASF260
C:\Users\stapi\AppData\Local\Temp\cc4pWpLv.s:14792  .debug_str:0000000000001369 .LASF261
C:\Users\stapi\AppData\Local\Temp\cc4pWpLv.s:14512  .debug_str:00000000000007cf .LASF262
C:\Users\stapi\AppData\Local\Temp\cc4pWpLv.s:14734  .debug_str:0000000000001133 .LASF263
C:\Users\stapi\AppData\Local\Temp\cc4pWpLv.s:14726  .debug_str:00000000000010f5 .LASF264
C:\Users\stapi\AppData\Local\Temp\cc4pWpLv.s:14694  .debug_str:0000000000000fc1 .LASF265
C:\Users\stapi\AppData\Local\Temp\cc4pWpLv.s:14832  .debug_str:00000000000015b8 .LASF266
C:\Users\stapi\AppData\Local\Temp\cc4pWpLv.s:14664  .debug_str:0000000000000ee5 .LASF267
C:\Users\stapi\AppData\Local\Temp\cc4pWpLv.s:14608  .debug_str:0000000000000c4a .LASF268
C:\Users\stapi\AppData\Local\Temp\cc4pWpLv.s:14776  .debug_str:00000000000012bc .LASF269
C:\Users\stapi\AppData\Local\Temp\cc4pWpLv.s:14368  .debug_str:0000000000000201 .LASF270
C:\Users\stapi\AppData\Local\Temp\cc4pWpLv.s:14710  .debug_str:0000000000001056 .LASF271
C:\Users\stapi\AppData\Local\Temp\cc4pWpLv.s:14868  .debug_str:0000000000001758 .LASF272
C:\Users\stapi\AppData\Local\Temp\cc4pWpLv.s:14740  .debug_str:0000000000001172 .LASF273
C:\Users\stapi\AppData\Local\Temp\cc4pWpLv.s:14354  .debug_str:0000000000000082 .LASF277
C:\Users\stapi\AppData\Local\Temp\cc4pWpLv.s:3771   .text.iotx_post:0000000000000000 .LFB37
C:\Users\stapi\AppData\Local\Temp\cc4pWpLv.s:3932   .text.iotx_post:0000000000000112 .LFE37
C:\Users\stapi\AppData\Local\Temp\cc4pWpLv.s:15064  .debug_str:0000000000001f65 .LASF274
C:\Users\stapi\AppData\Local\Temp\cc4pWpLv.s:11737  .debug_loc:0000000000000000 .LLST112
C:\Users\stapi\AppData\Local\Temp\cc4pWpLv.s:11748  .debug_loc:000000000000001e .LLST113
C:\Users\stapi\AppData\Local\Temp\cc4pWpLv.s:11759  .debug_loc:000000000000003c .LLST114
C:\Users\stapi\AppData\Local\Temp\cc4pWpLv.s:11777  .debug_loc:0000000000000068 .LLST115
C:\Users\stapi\AppData\Local\Temp\cc4pWpLv.s:15040  .debug_str:0000000000001e67 .LASF275
C:\Users\stapi\AppData\Local\Temp\cc4pWpLv.s:11799  .debug_loc:00000000000000a2 .LLST116
C:\Users\stapi\AppData\Local\Temp\cc4pWpLv.s:11810  .debug_loc:00000000000000c0 .LLST117
C:\Users\stapi\AppData\Local\Temp\cc4pWpLv.s:14918  .debug_str:0000000000001929 .LASF276
C:\Users\stapi\AppData\Local\Temp\cc4pWpLv.s:3807   .text.iotx_post:0000000000000026 .LVL473
C:\Users\stapi\AppData\Local\Temp\cc4pWpLv.s:3812   .text.iotx_post:0000000000000032 .LVL474
C:\Users\stapi\AppData\Local\Temp\cc4pWpLv.s:3818   .text.iotx_post:0000000000000042 .LVL475
C:\Users\stapi\AppData\Local\Temp\cc4pWpLv.s:3825   .text.iotx_post:0000000000000056 .LVL476
C:\Users\stapi\AppData\Local\Temp\cc4pWpLv.s:3830   .text.iotx_post:0000000000000066 .LVL477
C:\Users\stapi\AppData\Local\Temp\cc4pWpLv.s:3844   .text.iotx_post:0000000000000080 .LVL478
C:\Users\stapi\AppData\Local\Temp\cc4pWpLv.s:3854   .text.iotx_post:000000000000008e .LVL480
C:\Users\stapi\AppData\Local\Temp\cc4pWpLv.s:3865   .text.iotx_post:00000000000000a2 .LVL482
C:\Users\stapi\AppData\Local\Temp\cc4pWpLv.s:3871   .text.iotx_post:00000000000000b4 .LVL483
C:\Users\stapi\AppData\Local\Temp\cc4pWpLv.s:3877   .text.iotx_post:00000000000000c0 .LVL484
C:\Users\stapi\AppData\Local\Temp\cc4pWpLv.s:3882   .text.iotx_post:00000000000000ca .LVL485
C:\Users\stapi\AppData\Local\Temp\cc4pWpLv.s:3910   .text.iotx_post:00000000000000e6 .LVL488
C:\Users\stapi\AppData\Local\Temp\cc4pWpLv.s:3921   .text.iotx_post:00000000000000fa .LVL490
C:\Users\stapi\AppData\Local\Temp\cc4pWpLv.s:3927   .text.iotx_post:000000000000010c .LVL491
C:\Users\stapi\AppData\Local\Temp\cc4pWpLv.s:14722  .debug_str:00000000000010d2 .LASF278
C:\Users\stapi\AppData\Local\Temp\cc4pWpLv.s:3750   .text.utils_get_response_code:0000000000000000 .LFB36
C:\Users\stapi\AppData\Local\Temp\cc4pWpLv.s:3760   .text.utils_get_response_code:0000000000000004 .LFE36
C:\Users\stapi\AppData\Local\Temp\cc4pWpLv.s:11827  .debug_loc:00000000000000eb .LLST111
C:\Users\stapi\AppData\Local\Temp\cc4pWpLv.s:14614  .debug_str:0000000000000c88 .LASF279
C:\Users\stapi\AppData\Local\Temp\cc4pWpLv.s:3523   .text.httpclient_common:0000000000000000 .LFB35
C:\Users\stapi\AppData\Local\Temp\cc4pWpLv.s:3743   .text.httpclient_common:0000000000000178 .LFE35
C:\Users\stapi\AppData\Local\Temp\cc4pWpLv.s:11841  .debug_loc:000000000000010c .LLST103
C:\Users\stapi\AppData\Local\Temp\cc4pWpLv.s:11852  .debug_loc:000000000000012a .LLST104
C:\Users\stapi\AppData\Local\Temp\cc4pWpLv.s:11863  .debug_loc:0000000000000148 .LLST105
C:\Users\stapi\AppData\Local\Temp\cc4pWpLv.s:11881  .debug_loc:0000000000000174 .LLST106
C:\Users\stapi\AppData\Local\Temp\cc4pWpLv.s:14638  .debug_str:0000000000000dbe .LASF280
C:\Users\stapi\AppData\Local\Temp\cc4pWpLv.s:11903  .debug_loc:00000000000001ae .LLST107
C:\Users\stapi\AppData\Local\Temp\cc4pWpLv.s:14714  .debug_str:000000000000107b .LASF281
C:\Users\stapi\AppData\Local\Temp\cc4pWpLv.s:11914  .debug_loc:00000000000001cc .LLST108
C:\Users\stapi\AppData\Local\Temp\cc4pWpLv.s:11925  .debug_loc:00000000000001ea .LLST109
C:\Users\stapi\AppData\Local\Temp\cc4pWpLv.s:14574  .debug_str:0000000000000ad8 .LASF282
C:\Users\stapi\AppData\Local\Temp\cc4pWpLv.s:11936  .debug_loc:0000000000000208 .LLST110
C:\Users\stapi\AppData\Local\Temp\cc4pWpLv.s:3562   .text.httpclient_common:000000000000002a .LVL439
C:\Users\stapi\AppData\Local\Temp\cc4pWpLv.s:3567   .text.httpclient_common:0000000000000036 .LVL440
C:\Users\stapi\AppData\Local\Temp\cc4pWpLv.s:3579   .text.httpclient_common:000000000000004e .LVL441
C:\Users\stapi\AppData\Local\Temp\cc4pWpLv.s:3591   .text.httpclient_common:0000000000000068 .LVL443
C:\Users\stapi\AppData\Local\Temp\cc4pWpLv.s:3616   .text.httpclient_common:000000000000007e .LVL446
C:\Users\stapi\AppData\Local\Temp\cc4pWpLv.s:3627   .text.httpclient_common:0000000000000092 .LVL448
C:\Users\stapi\AppData\Local\Temp\cc4pWpLv.s:3635   .text.httpclient_common:00000000000000a4 .LVL449
C:\Users\stapi\AppData\Local\Temp\cc4pWpLv.s:3642   .text.httpclient_common:00000000000000b4 .LVL450
C:\Users\stapi\AppData\Local\Temp\cc4pWpLv.s:3647   .text.httpclient_common:00000000000000be .LVL451
C:\Users\stapi\AppData\Local\Temp\cc4pWpLv.s:3658   .text.httpclient_common:00000000000000d0 .LVL453
C:\Users\stapi\AppData\Local\Temp\cc4pWpLv.s:3669   .text.httpclient_common:00000000000000e4 .LVL455
C:\Users\stapi\AppData\Local\Temp\cc4pWpLv.s:3680   .text.httpclient_common:00000000000000fa .LVL457
C:\Users\stapi\AppData\Local\Temp\cc4pWpLv.s:3685   .text.httpclient_common:0000000000000106 .LVL458
C:\Users\stapi\AppData\Local\Temp\cc4pWpLv.s:3697   .text.httpclient_common:000000000000011c .LVL459
C:\Users\stapi\AppData\Local\Temp\cc4pWpLv.s:3702   .text.httpclient_common:000000000000012a .LVL460
C:\Users\stapi\AppData\Local\Temp\cc4pWpLv.s:3713   .text.httpclient_common:0000000000000140 .LVL462
C:\Users\stapi\AppData\Local\Temp\cc4pWpLv.s:3731   .text.httpclient_common:0000000000000162 .LVL464
C:\Users\stapi\AppData\Local\Temp\cc4pWpLv.s:3736   .text.httpclient_common:0000000000000172 .LVL465
C:\Users\stapi\AppData\Local\Temp\cc4pWpLv.s:14640  .debug_str:0000000000000dc5 .LASF365
C:\Users\stapi\AppData\Local\Temp\cc4pWpLv.s:3451   .text.httpclient_close:0000000000000000 .LFB34
C:\Users\stapi\AppData\Local\Temp\cc4pWpLv.s:3500   .text.httpclient_close:0000000000000050 .LFE34
C:\Users\stapi\AppData\Local\Temp\cc4pWpLv.s:11960  .debug_loc:0000000000000248 .LLST102
C:\Users\stapi\AppData\Local\Temp\cc4pWpLv.s:3471   .text.httpclient_close:0000000000000014 .LVL430
C:\Users\stapi\AppData\Local\Temp\cc4pWpLv.s:3482   .text.httpclient_close:0000000000000028 .LVL431
C:\Users\stapi\AppData\Local\Temp\cc4pWpLv.s:3487   .text.httpclient_close:0000000000000038 .LVL432
C:\Users\stapi\AppData\Local\Temp\cc4pWpLv.s:3492   .text.httpclient_close:0000000000000048 .LVL433
C:\Users\stapi\AppData\Local\Temp\cc4pWpLv.s:15028  .debug_str:0000000000001deb .LASF283
C:\Users\stapi\AppData\Local\Temp\cc4pWpLv.s:2892   .text.httpclient_recv_response:0000000000000000 .LFB33
C:\Users\stapi\AppData\Local\Temp\cc4pWpLv.s:3440   .text.httpclient_recv_response:000000000000039a .LFE33
C:\Users\stapi\AppData\Local\Temp\cc4pWpLv.s:11971  .debug_loc:0000000000000266 .LLST84
C:\Users\stapi\AppData\Local\Temp\cc4pWpLv.s:11982  .debug_loc:0000000000000284 .LLST85
C:\Users\stapi\AppData\Local\Temp\cc4pWpLv.s:12033  .debug_loc:00000000000002fb .LLST86
C:\Users\stapi\AppData\Local\Temp\cc4pWpLv.s:14340  .debug_str:0000000000000000 .LASF284
C:\Users\stapi\AppData\Local\Temp\cc4pWpLv.s:12052  .debug_loc:000000000000032f .LLST87
C:\Users\stapi\AppData\Local\Temp\cc4pWpLv.s:12095  .debug_loc:0000000000000397 .LLST88
C:\Users\stapi\AppData\Local\Temp\cc4pWpLv.s:14372  .debug_str:0000000000000229 .LASF293
C:\Users\stapi\AppData\Local\Temp\cc4pWpLv.s:3010   .text.httpclient_recv_response:00000000000000b2 .LBB52
C:\Users\stapi\AppData\Local\Temp\cc4pWpLv.s:12110  .debug_loc:00000000000003c0 .LLST89
C:\Users\stapi\AppData\Local\Temp\cc4pWpLv.s:12117  .debug_loc:00000000000003d3 .LLST90
C:\Users\stapi\AppData\Local\Temp\cc4pWpLv.s:12129  .debug_loc:00000000000003f2 .LLST91
C:\Users\stapi\AppData\Local\Temp\cc4pWpLv.s:12140  .debug_loc:0000000000000410 .LLST92
C:\Users\stapi\AppData\Local\Temp\cc4pWpLv.s:12147  .debug_loc:0000000000000423 .LLST93
C:\Users\stapi\AppData\Local\Temp\cc4pWpLv.s:12154  .debug_loc:0000000000000436 .LLST94
C:\Users\stapi\AppData\Local\Temp\cc4pWpLv.s:12161  .debug_loc:0000000000000449 .LLST95
C:\Users\stapi\AppData\Local\Temp\cc4pWpLv.s:12186  .debug_loc:000000000000048a .LLST96
C:\Users\stapi\AppData\Local\Temp\cc4pWpLv.s:12201  .debug_loc:00000000000004b3 .LLST97
C:\Users\stapi\AppData\Local\Temp\cc4pWpLv.s:12208  .debug_loc:00000000000004c6 .LLST98
C:\Users\stapi\AppData\Local\Temp\cc4pWpLv.s:12219  .debug_loc:00000000000004e4 .LLST99
C:\Users\stapi\AppData\Local\Temp\cc4pWpLv.s:3292   .text.httpclient_recv_response:00000000000002c8 .LVL403
C:\Users\stapi\AppData\Local\Temp\cc4pWpLv.s:3308   .text.httpclient_recv_response:00000000000002d8 .LVL407
C:\Users\stapi\AppData\Local\Temp\cc4pWpLv.s:3318   .text.httpclient_recv_response:00000000000002f2 .LVL409
C:\Users\stapi\AppData\Local\Temp\cc4pWpLv.s:3347   .text.httpclient_recv_response:000000000000031a .LBB56
C:\Users\stapi\AppData\Local\Temp\cc4pWpLv.s:3388   .text.httpclient_recv_response:000000000000035a .LBE56
C:\Users\stapi\AppData\Local\Temp\cc4pWpLv.s:12256  .debug_loc:000000000000052b .LLST100
C:\Users\stapi\AppData\Local\Temp\cc4pWpLv.s:12264  .debug_loc:000000000000053f .LLST101
C:\Users\stapi\AppData\Local\Temp\cc4pWpLv.s:3362   .text.httpclient_recv_response:0000000000000332 .LVL418
C:\Users\stapi\AppData\Local\Temp\cc4pWpLv.s:3371   .text.httpclient_recv_response:0000000000000348 .LVL419
C:\Users\stapi\AppData\Local\Temp\cc4pWpLv.s:3016   .text.httpclient_recv_response:00000000000000be .LVL363
C:\Users\stapi\AppData\Local\Temp\cc4pWpLv.s:3087   .text.httpclient_recv_response:0000000000000136 .LVL375
C:\Users\stapi\AppData\Local\Temp\cc4pWpLv.s:3095   .text.httpclient_recv_response:0000000000000146 .LVL376
C:\Users\stapi\AppData\Local\Temp\cc4pWpLv.s:3105   .text.httpclient_recv_response:000000000000015a .LVL377
C:\Users\stapi\AppData\Local\Temp\cc4pWpLv.s:3116   .text.httpclient_recv_response:000000000000016e .LVL379
C:\Users\stapi\AppData\Local\Temp\cc4pWpLv.s:3121   .text.httpclient_recv_response:000000000000017e .LVL380
C:\Users\stapi\AppData\Local\Temp\cc4pWpLv.s:3125   .text.httpclient_recv_response:000000000000018a .LVL381
C:\Users\stapi\AppData\Local\Temp\cc4pWpLv.s:3145   .text.httpclient_recv_response:00000000000001a2 .LVL385
C:\Users\stapi\AppData\Local\Temp\cc4pWpLv.s:3160   .text.httpclient_recv_response:00000000000001c2 .LVL386
C:\Users\stapi\AppData\Local\Temp\cc4pWpLv.s:3166   .text.httpclient_recv_response:00000000000001d6 .LVL387
C:\Users\stapi\AppData\Local\Temp\cc4pWpLv.s:3170   .text.httpclient_recv_response:00000000000001e2 .LVL388
C:\Users\stapi\AppData\Local\Temp\cc4pWpLv.s:3184   .text.httpclient_recv_response:000000000000020a .LVL389
C:\Users\stapi\AppData\Local\Temp\cc4pWpLv.s:3196   .text.httpclient_recv_response:0000000000000222 .LVL391
C:\Users\stapi\AppData\Local\Temp\cc4pWpLv.s:3219   .text.httpclient_recv_response:0000000000000242 .LVL393
C:\Users\stapi\AppData\Local\Temp\cc4pWpLv.s:3230   .text.httpclient_recv_response:0000000000000258 .LVL395
C:\Users\stapi\AppData\Local\Temp\cc4pWpLv.s:3238   .text.httpclient_recv_response:0000000000000264 .LVL397
C:\Users\stapi\AppData\Local\Temp\cc4pWpLv.s:3257   .text.httpclient_recv_response:0000000000000286 .LVL399
C:\Users\stapi\AppData\Local\Temp\cc4pWpLv.s:3269   .text.httpclient_recv_response:000000000000029a .LVL400
C:\Users\stapi\AppData\Local\Temp\cc4pWpLv.s:3344   .text.httpclient_recv_response:0000000000000318 .LVL414
C:\Users\stapi\AppData\Local\Temp\cc4pWpLv.s:3395   .text.httpclient_recv_response:000000000000036a .LVL422
C:\Users\stapi\AppData\Local\Temp\cc4pWpLv.s:3400   .text.httpclient_recv_response:000000000000037a .LVL423
C:\Users\stapi\AppData\Local\Temp\cc4pWpLv.s:3404   .text.httpclient_recv_response:0000000000000386 .LVL424
C:\Users\stapi\AppData\Local\Temp\cc4pWpLv.s:2933   .text.httpclient_recv_response:0000000000000022 .LVL351
C:\Users\stapi\AppData\Local\Temp\cc4pWpLv.s:2943   .text.httpclient_recv_response:0000000000000036 .LVL352
C:\Users\stapi\AppData\Local\Temp\cc4pWpLv.s:2947   .text.httpclient_recv_response:0000000000000040 .LVL353
C:\Users\stapi\AppData\Local\Temp\cc4pWpLv.s:2952   .text.httpclient_recv_response:000000000000004c .LVL354
C:\Users\stapi\AppData\Local\Temp\cc4pWpLv.s:2962   .text.httpclient_recv_response:0000000000000062 .LVL355
C:\Users\stapi\AppData\Local\Temp\cc4pWpLv.s:2967   .text.httpclient_recv_response:0000000000000072 .LVL356
C:\Users\stapi\AppData\Local\Temp\cc4pWpLv.s:2972   .text.httpclient_recv_response:0000000000000082 .LVL357
C:\Users\stapi\AppData\Local\Temp\cc4pWpLv.s:2984   .text.httpclient_recv_response:000000000000008e .LVL359
C:\Users\stapi\AppData\Local\Temp\cc4pWpLv.s:3004   .text.httpclient_recv_response:00000000000000ac .LVL361
C:\Users\stapi\AppData\Local\Temp\cc4pWpLv.s:3032   .text.httpclient_recv_response:00000000000000d2 .LVL366
C:\Users\stapi\AppData\Local\Temp\cc4pWpLv.s:3039   .text.httpclient_recv_response:00000000000000e6 .LVL367
C:\Users\stapi\AppData\Local\Temp\cc4pWpLv.s:3068   .text.httpclient_recv_response:000000000000011e .LVL371
C:\Users\stapi\AppData\Local\Temp\cc4pWpLv.s:3074   .text.httpclient_recv_response:000000000000012a .LVL372
C:\Users\stapi\AppData\Local\Temp\cc4pWpLv.s:14616  .debug_str:0000000000000c9a .LASF285
C:\Users\stapi\AppData\Local\Temp\cc4pWpLv.s:2741   .text.httpclient_send_request:0000000000000000 .LFB32
C:\Users\stapi\AppData\Local\Temp\cc4pWpLv.s:2845   .text.httpclient_send_request:00000000000000a6 .LFE32
C:\Users\stapi\AppData\Local\Temp\cc4pWpLv.s:12271  .debug_loc:0000000000000552 .LLST79
C:\Users\stapi\AppData\Local\Temp\cc4pWpLv.s:12293  .debug_loc:0000000000000589 .LLST80
C:\Users\stapi\AppData\Local\Temp\cc4pWpLv.s:12318  .debug_loc:00000000000005c3 .LLST81
C:\Users\stapi\AppData\Local\Temp\cc4pWpLv.s:12346  .debug_loc:0000000000000607 .LLST82
C:\Users\stapi\AppData\Local\Temp\cc4pWpLv.s:12368  .debug_loc:000000000000063e .LLST83
C:\Users\stapi\AppData\Local\Temp\cc4pWpLv.s:2764   .text.httpclient_send_request:000000000000001c .LVL333
C:\Users\stapi\AppData\Local\Temp\cc4pWpLv.s:2769   .text.httpclient_send_request:000000000000002c .LVL334
C:\Users\stapi\AppData\Local\Temp\cc4pWpLv.s:2774   .text.httpclient_send_request:000000000000003c .LVL335
C:\Users\stapi\AppData\Local\Temp\cc4pWpLv.s:2800   .text.httpclient_send_request:0000000000000056 .LVL338
C:\Users\stapi\AppData\Local\Temp\cc4pWpLv.s:2811   .text.httpclient_send_request:000000000000006a .LVL340
C:\Users\stapi\AppData\Local\Temp\cc4pWpLv.s:2817   .text.httpclient_send_request:000000000000007c .LVL341
C:\Users\stapi\AppData\Local\Temp\cc4pWpLv.s:2822   .text.httpclient_send_request:000000000000008c .LVL342
C:\Users\stapi\AppData\Local\Temp\cc4pWpLv.s:2840   .text.httpclient_send_request:00000000000000a2 .LVL344
C:\Users\stapi\AppData\Local\Temp\cc4pWpLv.s:14356  .debug_str:000000000000008c .LASF286
C:\Users\stapi\AppData\Local\Temp\cc4pWpLv.s:2667   .text.httpclient_connect:0000000000000000 .LFB31
C:\Users\stapi\AppData\Local\Temp\cc4pWpLv.s:2727   .text.httpclient_connect:000000000000004e .LFE31
C:\Users\stapi\AppData\Local\Temp\cc4pWpLv.s:12387  .debug_loc:000000000000066b .LLST77
C:\Users\stapi\AppData\Local\Temp\cc4pWpLv.s:2677   .text.httpclient_connect:0000000000000008 .LBB44
C:\Users\stapi\AppData\Local\Temp\cc4pWpLv.s:12407  .debug_loc:0000000000000699 .LLST78
C:\Users\stapi\AppData\Local\Temp\cc4pWpLv.s:2694   .text.httpclient_connect:0000000000000012 .LVL325
C:\Users\stapi\AppData\Local\Temp\cc4pWpLv.s:2702   .text.httpclient_connect:0000000000000024 .LVL326
C:\Users\stapi\AppData\Local\Temp\cc4pWpLv.s:2707   .text.httpclient_connect:0000000000000034 .LVL327
C:\Users\stapi\AppData\Local\Temp\cc4pWpLv.s:2712   .text.httpclient_connect:0000000000000044 .LVL328
C:\Users\stapi\AppData\Local\Temp\cc4pWpLv.s:14426  .debug_str:000000000000048c .LASF307
C:\Users\stapi\AppData\Local\Temp\cc4pWpLv.s:15060  .debug_str:0000000000001f45 .LASF287
C:\Users\stapi\AppData\Local\Temp\cc4pWpLv.s:14424  .debug_str:0000000000000483 .LASF288
C:\Users\stapi\AppData\Local\Temp\cc4pWpLv.s:15016  .debug_str:0000000000001d80 .LASF289
C:\Users\stapi\AppData\Local\Temp\cc4pWpLv.s:14510  .debug_str:00000000000007c2 .LASF290
C:\Users\stapi\AppData\Local\Temp\cc4pWpLv.s:14680  .debug_str:0000000000000f71 .LASF291
C:\Users\stapi\AppData\Local\Temp\cc4pWpLv.s:14564  .debug_str:0000000000000a9c .LASF292
C:\Users\stapi\AppData\Local\Temp\cc4pWpLv.s:14800  .debug_str:00000000000013ce .LASF294
C:\Users\stapi\AppData\Local\Temp\cc4pWpLv.s:14586  .debug_str:0000000000000b3e .LASF295
C:\Users\stapi\AppData\Local\Temp\cc4pWpLv.s:14894  .debug_str:0000000000001836 .LASF296
C:\Users\stapi\AppData\Local\Temp\cc4pWpLv.s:14744  .debug_str:0000000000001199 .LASF297
C:\Users\stapi\AppData\Local\Temp\cc4pWpLv.s:14954  .debug_str:0000000000001a96 .LASF366
C:\Users\stapi\AppData\Local\Temp\cc4pWpLv.s:228    .text.httpclient_retrieve_content:0000000000000000 .LFB29
C:\Users\stapi\AppData\Local\Temp\cc4pWpLv.s:1130   .text.httpclient_retrieve_content:0000000000000568 .LFE29
C:\Users\stapi\AppData\Local\Temp\cc4pWpLv.s:12427  .debug_loc:00000000000006c7 .LLST6
C:\Users\stapi\AppData\Local\Temp\cc4pWpLv.s:12438  .debug_loc:00000000000006e5 .LLST7
C:\Users\stapi\AppData\Local\Temp\cc4pWpLv.s:12467  .debug_loc:000000000000072a .LLST8
C:\Users\stapi\AppData\Local\Temp\cc4pWpLv.s:12474  .debug_loc:000000000000073d .LLST9
C:\Users\stapi\AppData\Local\Temp\cc4pWpLv.s:12505  .debug_loc:0000000000000784 .LLST10
C:\Users\stapi\AppData\Local\Temp\cc4pWpLv.s:14762  .debug_str:0000000000001250 .LASF298
C:\Users\stapi\AppData\Local\Temp\cc4pWpLv.s:12516  .debug_loc:00000000000007a2 .LLST11
C:\Users\stapi\AppData\Local\Temp\cc4pWpLv.s:14472  .debug_str:0000000000000644 .LASF299
C:\Users\stapi\AppData\Local\Temp\cc4pWpLv.s:12570  .debug_loc:0000000000000831 .LLST12
C:\Users\stapi\AppData\Local\Temp\cc4pWpLv.s:12601  .debug_loc:000000000000087f .LLST13
C:\Users\stapi\AppData\Local\Temp\cc4pWpLv.s:12619  .debug_loc:00000000000008ab .LLST14
C:\Users\stapi\AppData\Local\Temp\cc4pWpLv.s:14684  .debug_str:0000000000000f85 .LASF300
C:\Users\stapi\AppData\Local\Temp\cc4pWpLv.s:12634  .debug_loc:00000000000008d4 .LLST15
C:\Users\stapi\AppData\Local\Temp\cc4pWpLv.s:334    .text.httpclient_retrieve_content:0000000000000096 .LVL29
C:\Users\stapi\AppData\Local\Temp\cc4pWpLv.s:361    .text.httpclient_retrieve_content:00000000000000bc .LVL32
C:\Users\stapi\AppData\Local\Temp\cc4pWpLv.s:368    .text.httpclient_retrieve_content:00000000000000ce .LVL33
C:\Users\stapi\AppData\Local\Temp\cc4pWpLv.s:383    .text.httpclient_retrieve_content:00000000000000ee .LVL36
C:\Users\stapi\AppData\Local\Temp\cc4pWpLv.s:392    .text.httpclient_retrieve_content:0000000000000102 .LVL37
C:\Users\stapi\AppData\Local\Temp\cc4pWpLv.s:422    .text.httpclient_retrieve_content:0000000000000132 .LVL42
C:\Users\stapi\AppData\Local\Temp\cc4pWpLv.s:456    .text.httpclient_retrieve_content:0000000000000168 .LVL46
C:\Users\stapi\AppData\Local\Temp\cc4pWpLv.s:14682  .debug_str:0000000000000f7d .LASF301
C:\Users\stapi\AppData\Local\Temp\cc4pWpLv.s:12651  .debug_loc:00000000000008ff .LLST16
C:\Users\stapi\AppData\Local\Temp\cc4pWpLv.s:14690  .debug_str:0000000000000fa9 .LASF302
C:\Users\stapi\AppData\Local\Temp\cc4pWpLv.s:12681  .debug_loc:000000000000094c .LLST17
C:\Users\stapi\AppData\Local\Temp\cc4pWpLv.s:14430  .debug_str:00000000000004af .LASF303
C:\Users\stapi\AppData\Local\Temp\cc4pWpLv.s:12703  .debug_loc:0000000000000983 .LLST18
C:\Users\stapi\AppData\Local\Temp\cc4pWpLv.s:14450  .debug_str:000000000000056b .LASF304
C:\Users\stapi\AppData\Local\Temp\cc4pWpLv.s:12721  .debug_loc:00000000000009af .LLST19
C:\Users\stapi\AppData\Local\Temp\cc4pWpLv.s:14442  .debug_str:000000000000051c .LASF305
C:\Users\stapi\AppData\Local\Temp\cc4pWpLv.s:12736  .debug_loc:00000000000009d1 .LLST20
C:\Users\stapi\AppData\Local\Temp\cc4pWpLv.s:14438  .debug_str:00000000000004f0 .LASF306
C:\Users\stapi\AppData\Local\Temp\cc4pWpLv.s:12751  .debug_loc:00000000000009f5 .LLST23
C:\Users\stapi\AppData\Local\Temp\cc4pWpLv.s:12774  .debug_loc:0000000000000a2d .LLST24
C:\Users\stapi\AppData\Local\Temp\cc4pWpLv.s:12799  .debug_loc:0000000000000a59 .LLST25
C:\Users\stapi\AppData\Local\Temp\cc4pWpLv.s:564    .text.httpclient_retrieve_content:00000000000001ce .LVL56
C:\Users\stapi\AppData\Local\Temp\cc4pWpLv.s:571    .text.httpclient_retrieve_content:00000000000001e2 .LVL57
C:\Users\stapi\AppData\Local\Temp\cc4pWpLv.s:917    .text.httpclient_retrieve_content:00000000000003fa .LVL97
C:\Users\stapi\AppData\Local\Temp\cc4pWpLv.s:1064   .text.httpclient_retrieve_content:00000000000004f0 .LVL112
C:\Users\stapi\AppData\Local\Temp\cc4pWpLv.s:1090   .text.httpclient_retrieve_content:0000000000000518 .LVL114
C:\Users\stapi\AppData\Local\Temp\cc4pWpLv.s:1095   .text.httpclient_retrieve_content:0000000000000528 .LVL115
C:\Users\stapi\AppData\Local\Temp\cc4pWpLv.s:1101   .text.httpclient_retrieve_content:0000000000000538 .LVL117
C:\Users\stapi\AppData\Local\Temp\cc4pWpLv.s:1109   .text.httpclient_retrieve_content:0000000000000548 .LVL118
C:\Users\stapi\AppData\Local\Temp\cc4pWpLv.s:1114   .text.httpclient_retrieve_content:0000000000000558 .LVL119
C:\Users\stapi\AppData\Local\Temp\cc4pWpLv.s:12806  .debug_loc:0000000000000a6c .LLST21
C:\Users\stapi\AppData\Local\Temp\cc4pWpLv.s:12821  .debug_loc:0000000000000a95 .LLST22
C:\Users\stapi\AppData\Local\Temp\cc4pWpLv.s:403    .text.httpclient_retrieve_content:0000000000000112 .LVL39
C:\Users\stapi\AppData\Local\Temp\cc4pWpLv.s:408    .text.httpclient_retrieve_content:0000000000000122 .LVL40
C:\Users\stapi\AppData\Local\Temp\cc4pWpLv.s:678    .text.httpclient_retrieve_content:000000000000025c .LVL67
C:\Users\stapi\AppData\Local\Temp\cc4pWpLv.s:693    .text.httpclient_retrieve_content:0000000000000276 .LVL70
C:\Users\stapi\AppData\Local\Temp\cc4pWpLv.s:714    .text.httpclient_retrieve_content:00000000000002a6 .LVL72
C:\Users\stapi\AppData\Local\Temp\cc4pWpLv.s:720    .text.httpclient_retrieve_content:00000000000002b0 .LVL73
C:\Users\stapi\AppData\Local\Temp\cc4pWpLv.s:727    .text.httpclient_retrieve_content:00000000000002c2 .LVL74
C:\Users\stapi\AppData\Local\Temp\cc4pWpLv.s:747    .text.httpclient_retrieve_content:00000000000002da .LVL77
C:\Users\stapi\AppData\Local\Temp\cc4pWpLv.s:767    .text.httpclient_retrieve_content:00000000000002fe .LVL80
C:\Users\stapi\AppData\Local\Temp\cc4pWpLv.s:793    .text.httpclient_retrieve_content:000000000000032a .LVL84
C:\Users\stapi\AppData\Local\Temp\cc4pWpLv.s:798    .text.httpclient_retrieve_content:000000000000033a .LVL85
C:\Users\stapi\AppData\Local\Temp\cc4pWpLv.s:803    .text.httpclient_retrieve_content:000000000000034a .LVL86
C:\Users\stapi\AppData\Local\Temp\cc4pWpLv.s:819    .text.httpclient_retrieve_content:0000000000000356 .LBB12
C:\Users\stapi\AppData\Local\Temp\cc4pWpLv.s:852    .text.httpclient_retrieve_content:000000000000038c .LBE12
C:\Users\stapi\AppData\Local\Temp\cc4pWpLv.s:12849  .debug_loc:0000000000000ac6 .LLST26
C:\Users\stapi\AppData\Local\Temp\cc4pWpLv.s:827    .text.httpclient_retrieve_content:0000000000000366 .LVL89
C:\Users\stapi\AppData\Local\Temp\cc4pWpLv.s:835    .text.httpclient_retrieve_content:000000000000037c .LVL90
C:\Users\stapi\AppData\Local\Temp\cc4pWpLv.s:629    .text.httpclient_retrieve_content:0000000000000212 .LVL62
C:\Users\stapi\AppData\Local\Temp\cc4pWpLv.s:867    .text.httpclient_retrieve_content:00000000000003ae .LVL93
C:\Users\stapi\AppData\Local\Temp\cc4pWpLv.s:873    .text.httpclient_retrieve_content:00000000000003c0 .LVL94
C:\Users\stapi\AppData\Local\Temp\cc4pWpLv.s:890    .text.httpclient_retrieve_content:00000000000003de .LVL95
C:\Users\stapi\AppData\Local\Temp\cc4pWpLv.s:934    .text.httpclient_retrieve_content:000000000000041e .LVL99
C:\Users\stapi\AppData\Local\Temp\cc4pWpLv.s:975    .text.httpclient_retrieve_content:000000000000044c .LVL102
C:\Users\stapi\AppData\Local\Temp\cc4pWpLv.s:1002   .text.httpclient_retrieve_content:0000000000000488 .LVL103
C:\Users\stapi\AppData\Local\Temp\cc4pWpLv.s:1015   .text.httpclient_retrieve_content:000000000000049e .LVL105
C:\Users\stapi\AppData\Local\Temp\cc4pWpLv.s:1038   .text.httpclient_retrieve_content:00000000000004bc .LVL108
C:\Users\stapi\AppData\Local\Temp\cc4pWpLv.s:1043   .text.httpclient_retrieve_content:00000000000004cc .LVL109
C:\Users\stapi\AppData\Local\Temp\cc4pWpLv.s:1048   .text.httpclient_retrieve_content:00000000000004dc .LVL110
C:\Users\stapi\AppData\Local\Temp\cc4pWpLv.s:1122   .text.httpclient_retrieve_content:0000000000000564 .LVL121
C:\Users\stapi\AppData\Local\Temp\cc4pWpLv.s:268    .text.httpclient_retrieve_content:000000000000001e .LVL25
C:\Users\stapi\AppData\Local\Temp\cc4pWpLv.s:276    .text.httpclient_retrieve_content:000000000000002e .LVL26
C:\Users\stapi\AppData\Local\Temp\cc4pWpLv.s:287    .text.httpclient_retrieve_content:0000000000000052 .LVL27
C:\Users\stapi\AppData\Local\Temp\cc4pWpLv.s:14882  .debug_str:00000000000017e1 .LASF308
C:\Users\stapi\AppData\Local\Temp\cc4pWpLv.s:14972  .debug_str:0000000000001b76 .LASF309
C:\Users\stapi\AppData\Local\Temp\cc4pWpLv.s:15006  .debug_str:0000000000001d09 .LASF310
C:\Users\stapi\AppData\Local\Temp\cc4pWpLv.s:14764  .debug_str:0000000000001256 .LASF311
C:\Users\stapi\AppData\Local\Temp\cc4pWpLv.s:2508   .text.httpclient_send_userdata:0000000000000000 .LFB27
C:\Users\stapi\AppData\Local\Temp\cc4pWpLv.s:2656   .text.httpclient_send_userdata:00000000000000ea .LFE27
C:\Users\stapi\AppData\Local\Temp\cc4pWpLv.s:12856  .debug_loc:0000000000000ad9 .LLST74
C:\Users\stapi\AppData\Local\Temp\cc4pWpLv.s:12878  .debug_loc:0000000000000b10 .LLST75
C:\Users\stapi\AppData\Local\Temp\cc4pWpLv.s:12911  .debug_loc:0000000000000b60 .LLST76
C:\Users\stapi\AppData\Local\Temp\cc4pWpLv.s:2547   .text.httpclient_send_userdata:000000000000003c .LVL303
C:\Users\stapi\AppData\Local\Temp\cc4pWpLv.s:2557   .text.httpclient_send_userdata:000000000000004e .LVL304
C:\Users\stapi\AppData\Local\Temp\cc4pWpLv.s:2572   .text.httpclient_send_userdata:0000000000000072 .LVL307
C:\Users\stapi\AppData\Local\Temp\cc4pWpLv.s:2602   .text.httpclient_send_userdata:0000000000000094 .LVL312
C:\Users\stapi\AppData\Local\Temp\cc4pWpLv.s:2607   .text.httpclient_send_userdata:00000000000000a4 .LVL313
C:\Users\stapi\AppData\Local\Temp\cc4pWpLv.s:2611   .text.httpclient_send_userdata:00000000000000b0 .LVL314
C:\Users\stapi\AppData\Local\Temp\cc4pWpLv.s:2625   .text.httpclient_send_userdata:00000000000000c2 .LVL316
C:\Users\stapi\AppData\Local\Temp\cc4pWpLv.s:2632   .text.httpclient_send_userdata:00000000000000d6 .LVL317
C:\Users\stapi\AppData\Local\Temp\cc4pWpLv.s:2636   .text.httpclient_send_userdata:00000000000000e2 .LVL318
C:\Users\stapi\AppData\Local\Temp\cc4pWpLv.s:14758  .debug_str:000000000000121b .LASF312
C:\Users\stapi\AppData\Local\Temp\cc4pWpLv.s:1752   .text.httpclient_send_header:0000000000000000 .LFB26
C:\Users\stapi\AppData\Local\Temp\cc4pWpLv.s:2494   .text.httpclient_send_header:00000000000004f4 .LFE26
C:\Users\stapi\AppData\Local\Temp\cc4pWpLv.s:12949  .debug_loc:0000000000000bc3 .LLST49
C:\Users\stapi\AppData\Local\Temp\cc4pWpLv.s:12960  .debug_loc:0000000000000be1 .LLST50
C:\Users\stapi\AppData\Local\Temp\cc4pWpLv.s:13004  .debug_loc:0000000000000c4a .LLST51
C:\Users\stapi\AppData\Local\Temp\cc4pWpLv.s:13037  .debug_loc:0000000000000c9a .LLST52
C:\Users\stapi\AppData\Local\Temp\cc4pWpLv.s:14580  .debug_str:0000000000000b0a .LASF313
C:\Users\stapi\AppData\Local\Temp\cc4pWpLv.s:13048  .debug_loc:0000000000000cb8 .LLST53
C:\Users\stapi\AppData\Local\Temp\cc4pWpLv.s:13133  .debug_loc:0000000000000d89 .LLST54
C:\Users\stapi\AppData\Local\Temp\cc4pWpLv.s:14382  .debug_str:000000000000028c .LASF314
C:\Users\stapi\AppData\Local\Temp\cc4pWpLv.s:13153  .debug_loc:0000000000000dbe .LLST55
C:\Users\stapi\AppData\Local\Temp\cc4pWpLv.s:14492  .debug_str:0000000000000715 .LASF315
C:\Users\stapi\AppData\Local\Temp\cc4pWpLv.s:13181  .debug_loc:0000000000000e09 .LLST56
C:\Users\stapi\AppData\Local\Temp\cc4pWpLv.s:13210  .debug_loc:0000000000000e55 .LLST57
C:\Users\stapi\AppData\Local\Temp\cc4pWpLv.s:14600  .debug_str:0000000000000bd7 .LASF316
C:\Users\stapi\AppData\Local\Temp\cc4pWpLv.s:13231  .debug_loc:0000000000000e8b .LLST58
C:\Users\stapi\AppData\Local\Temp\cc4pWpLv.s:13246  .debug_loc:0000000000000eb4 .LLST59
C:\Users\stapi\AppData\Local\Temp\cc4pWpLv.s:1893   .text.httpclient_send_header:00000000000000d8 .LBB32
C:\Users\stapi\AppData\Local\Temp\cc4pWpLv.s:13254  .debug_loc:0000000000000ec8 .LLST60
C:\Users\stapi\AppData\Local\Temp\cc4pWpLv.s:13272  .debug_loc:0000000000000ef4 .LLST61
C:\Users\stapi\AppData\Local\Temp\cc4pWpLv.s:13293  .debug_loc:0000000000000f23 .LLST62
C:\Users\stapi\AppData\Local\Temp\cc4pWpLv.s:13314  .debug_loc:0000000000000f55 .LLST63
C:\Users\stapi\AppData\Local\Temp\cc4pWpLv.s:13329  .debug_loc:0000000000000f7e .LLST64
C:\Users\stapi\AppData\Local\Temp\cc4pWpLv.s:13350  .debug_loc:0000000000000fb6 .LLST65
C:\Users\stapi\AppData\Local\Temp\cc4pWpLv.s:13365  .debug_loc:0000000000000fdf .LLST66
C:\Users\stapi\AppData\Local\Temp\cc4pWpLv.s:13408  .debug_loc:0000000000001040 .LLST67
C:\Users\stapi\AppData\Local\Temp\cc4pWpLv.s:13451  .debug_loc:00000000000010a1 .LLST68
C:\Users\stapi\AppData\Local\Temp\cc4pWpLv.s:13487  .debug_loc:00000000000010f4 .LLST69
C:\Users\stapi\AppData\Local\Temp\cc4pWpLv.s:13532  .debug_loc:000000000000116c .LLST70
C:\Users\stapi\AppData\Local\Temp\cc4pWpLv.s:13577  .debug_loc:00000000000011cf .LLST71
C:\Users\stapi\AppData\Local\Temp\cc4pWpLv.s:13592  .debug_loc:00000000000011f8 .LLST72
C:\Users\stapi\AppData\Local\Temp\cc4pWpLv.s:13619  .debug_loc:0000000000001242 .LLST73
C:\Users\stapi\AppData\Local\Temp\cc4pWpLv.s:1902   .text.httpclient_send_header:00000000000000ea .LVL215
C:\Users\stapi\AppData\Local\Temp\cc4pWpLv.s:1919   .text.httpclient_send_header:0000000000000102 .LVL218
C:\Users\stapi\AppData\Local\Temp\cc4pWpLv.s:1924   .text.httpclient_send_header:0000000000000112 .LVL219
C:\Users\stapi\AppData\Local\Temp\cc4pWpLv.s:1930   .text.httpclient_send_header:000000000000011e .LVL220
C:\Users\stapi\AppData\Local\Temp\cc4pWpLv.s:2060   .text.httpclient_send_header:00000000000001de .LVL232
C:\Users\stapi\AppData\Local\Temp\cc4pWpLv.s:2069   .text.httpclient_send_header:00000000000001f2 .LVL234
C:\Users\stapi\AppData\Local\Temp\cc4pWpLv.s:2079   .text.httpclient_send_header:0000000000000202 .LVL237
C:\Users\stapi\AppData\Local\Temp\cc4pWpLv.s:2098   .text.httpclient_send_header:000000000000021a .LVL241
C:\Users\stapi\AppData\Local\Temp\cc4pWpLv.s:2110   .text.httpclient_send_header:000000000000022e .LVL244
C:\Users\stapi\AppData\Local\Temp\cc4pWpLv.s:2115   .text.httpclient_send_header:000000000000023e .LVL245
C:\Users\stapi\AppData\Local\Temp\cc4pWpLv.s:2119   .text.httpclient_send_header:000000000000024a .LVL246
C:\Users\stapi\AppData\Local\Temp\cc4pWpLv.s:2152   .text.httpclient_send_header:0000000000000270 .LVL251
C:\Users\stapi\AppData\Local\Temp\cc4pWpLv.s:2167   .text.httpclient_send_header:000000000000028e .LVL254
C:\Users\stapi\AppData\Local\Temp\cc4pWpLv.s:2178   .text.httpclient_send_header:00000000000002a2 .LVL256
C:\Users\stapi\AppData\Local\Temp\cc4pWpLv.s:2200   .text.httpclient_send_header:00000000000002c6 .LVL258
C:\Users\stapi\AppData\Local\Temp\cc4pWpLv.s:2214   .text.httpclient_send_header:00000000000002e0 .LVL261
C:\Users\stapi\AppData\Local\Temp\cc4pWpLv.s:2225   .text.httpclient_send_header:00000000000002f2 .LVL264
C:\Users\stapi\AppData\Local\Temp\cc4pWpLv.s:1800   .text.httpclient_send_header:0000000000000026 .LVL200
C:\Users\stapi\AppData\Local\Temp\cc4pWpLv.s:1814   .text.httpclient_send_header:0000000000000040 .LVL202
C:\Users\stapi\AppData\Local\Temp\cc4pWpLv.s:1827   .text.httpclient_send_header:0000000000000056 .LVL205
C:\Users\stapi\AppData\Local\Temp\cc4pWpLv.s:1840   .text.httpclient_send_header:000000000000006c .LVL208
C:\Users\stapi\AppData\Local\Temp\cc4pWpLv.s:1853   .text.httpclient_send_header:0000000000000084 .LVL210
C:\Users\stapi\AppData\Local\Temp\cc4pWpLv.s:1859   .text.httpclient_send_header:0000000000000094 .LVL211
C:\Users\stapi\AppData\Local\Temp\cc4pWpLv.s:1865   .text.httpclient_send_header:00000000000000a4 .LVL212
C:\Users\stapi\AppData\Local\Temp\cc4pWpLv.s:1871   .text.httpclient_send_header:00000000000000b4 .LVL213
C:\Users\stapi\AppData\Local\Temp\cc4pWpLv.s:1949   .text.httpclient_send_header:0000000000000130 .LVL222
C:\Users\stapi\AppData\Local\Temp\cc4pWpLv.s:1955   .text.httpclient_send_header:0000000000000142 .LVL223
C:\Users\stapi\AppData\Local\Temp\cc4pWpLv.s:1961   .text.httpclient_send_header:000000000000014e .LVL224
C:\Users\stapi\AppData\Local\Temp\cc4pWpLv.s:1969   .text.httpclient_send_header:0000000000000158 .LVL225
C:\Users\stapi\AppData\Local\Temp\cc4pWpLv.s:1976   .text.httpclient_send_header:0000000000000166 .LVL226
C:\Users\stapi\AppData\Local\Temp\cc4pWpLv.s:1984   .text.httpclient_send_header:0000000000000174 .LVL227
C:\Users\stapi\AppData\Local\Temp\cc4pWpLv.s:1992   .text.httpclient_send_header:0000000000000180 .LVL228
C:\Users\stapi\AppData\Local\Temp\cc4pWpLv.s:2257   .text.httpclient_send_header:0000000000000316 .LVL267
C:\Users\stapi\AppData\Local\Temp\cc4pWpLv.s:2262   .text.httpclient_send_header:0000000000000320 .LVL268
C:\Users\stapi\AppData\Local\Temp\cc4pWpLv.s:2270   .text.httpclient_send_header:0000000000000332 .LVL269
C:\Users\stapi\AppData\Local\Temp\cc4pWpLv.s:2281   .text.httpclient_send_header:0000000000000346 .LVL271
C:\Users\stapi\AppData\Local\Temp\cc4pWpLv.s:2286   .text.httpclient_send_header:0000000000000356 .LVL272
C:\Users\stapi\AppData\Local\Temp\cc4pWpLv.s:2298   .text.httpclient_send_header:000000000000036c .LVL273
C:\Users\stapi\AppData\Local\Temp\cc4pWpLv.s:2310   .text.httpclient_send_header:000000000000037e .LVL274
C:\Users\stapi\AppData\Local\Temp\cc4pWpLv.s:2320   .text.httpclient_send_header:0000000000000390 .LVL275
C:\Users\stapi\AppData\Local\Temp\cc4pWpLv.s:2333   .text.httpclient_send_header:00000000000003b0 .LVL276
C:\Users\stapi\AppData\Local\Temp\cc4pWpLv.s:2338   .text.httpclient_send_header:00000000000003ba .LVL277
C:\Users\stapi\AppData\Local\Temp\cc4pWpLv.s:2346   .text.httpclient_send_header:00000000000003cc .LVL278
C:\Users\stapi\AppData\Local\Temp\cc4pWpLv.s:2358   .text.httpclient_send_header:00000000000003e8 .LVL279
C:\Users\stapi\AppData\Local\Temp\cc4pWpLv.s:2363   .text.httpclient_send_header:00000000000003f2 .LVL280
C:\Users\stapi\AppData\Local\Temp\cc4pWpLv.s:2371   .text.httpclient_send_header:0000000000000404 .LVL281
C:\Users\stapi\AppData\Local\Temp\cc4pWpLv.s:2380   .text.httpclient_send_header:0000000000000418 .LVL282
C:\Users\stapi\AppData\Local\Temp\cc4pWpLv.s:2392   .text.httpclient_send_header:0000000000000440 .LVL283
C:\Users\stapi\AppData\Local\Temp\cc4pWpLv.s:2402   .text.httpclient_send_header:0000000000000454 .LVL284
C:\Users\stapi\AppData\Local\Temp\cc4pWpLv.s:2419   .text.httpclient_send_header:0000000000000480 .LVL287
C:\Users\stapi\AppData\Local\Temp\cc4pWpLv.s:2433   .text.httpclient_send_header:0000000000000494 .LVL290
C:\Users\stapi\AppData\Local\Temp\cc4pWpLv.s:2438   .text.httpclient_send_header:00000000000004a4 .LVL291
C:\Users\stapi\AppData\Local\Temp\cc4pWpLv.s:2442   .text.httpclient_send_header:00000000000004b0 .LVL292
C:\Users\stapi\AppData\Local\Temp\cc4pWpLv.s:2458   .text.httpclient_send_header:00000000000004c2 .LVL294
C:\Users\stapi\AppData\Local\Temp\cc4pWpLv.s:2465   .text.httpclient_send_header:00000000000004d6 .LVL295
C:\Users\stapi\AppData\Local\Temp\cc4pWpLv.s:2469   .text.httpclient_send_header:00000000000004e2 .LVL296
C:\Users\stapi\AppData\Local\Temp\cc4pWpLv.s:14636  .debug_str:0000000000000da9 .LASF317
C:\Users\stapi\AppData\Local\Temp\cc4pWpLv.s:1433   .text.httpclient_send_auth:0000000000000000 .LFB25
C:\Users\stapi\AppData\Local\Temp\cc4pWpLv.s:1684   .text.httpclient_send_auth:0000000000000162 .LFE25
C:\Users\stapi\AppData\Local\Temp\cc4pWpLv.s:13630  .debug_loc:0000000000001260 .LLST41
C:\Users\stapi\AppData\Local\Temp\cc4pWpLv.s:13641  .debug_loc:000000000000127e .LLST42
C:\Users\stapi\AppData\Local\Temp\cc4pWpLv.s:14392  .debug_str:00000000000002df .LASF318
C:\Users\stapi\AppData\Local\Temp\cc4pWpLv.s:13652  .debug_loc:000000000000129c .LLST43
C:\Users\stapi\AppData\Local\Temp\cc4pWpLv.s:14886  .debug_str:0000000000001805 .LASF319
C:\Users\stapi\AppData\Local\Temp\cc4pWpLv.s:14410  .debug_str:00000000000003c7 .LASF320
C:\Users\stapi\AppData\Local\Temp\cc4pWpLv.s:1483   .text.httpclient_send_auth:0000000000000060 .LBB26
C:\Users\stapi\AppData\Local\Temp\cc4pWpLv.s:13663  .debug_loc:00000000000012ba .LLST44
C:\Users\stapi\AppData\Local\Temp\cc4pWpLv.s:13680  .debug_loc:00000000000012e6 .LLST45
C:\Users\stapi\AppData\Local\Temp\cc4pWpLv.s:13751  .debug_loc:0000000000001390 .LLST46
C:\Users\stapi\AppData\Local\Temp\cc4pWpLv.s:13803  .debug_loc:0000000000001416 .LLST47
C:\Users\stapi\AppData\Local\Temp\cc4pWpLv.s:13834  .debug_loc:000000000000145d .LLST48
C:\Users\stapi\AppData\Local\Temp\cc4pWpLv.s:1492   .text.httpclient_send_auth:0000000000000076 .LVL162
C:\Users\stapi\AppData\Local\Temp\cc4pWpLv.s:1461   .text.httpclient_send_auth:0000000000000022 .LVL159
C:\Users\stapi\AppData\Local\Temp\cc4pWpLv.s:1469   .text.httpclient_send_auth:0000000000000038 .LVL160
C:\Users\stapi\AppData\Local\Temp\cc4pWpLv.s:1481   .text.httpclient_send_auth:0000000000000060 .LVL161
C:\Users\stapi\AppData\Local\Temp\cc4pWpLv.s:1565   .text.httpclient_send_auth:00000000000000ca .LVL175
C:\Users\stapi\AppData\Local\Temp\cc4pWpLv.s:1574   .text.httpclient_send_auth:00000000000000dc .LVL176
C:\Users\stapi\AppData\Local\Temp\cc4pWpLv.s:1591   .text.httpclient_send_auth:0000000000000106 .LVL177
C:\Users\stapi\AppData\Local\Temp\cc4pWpLv.s:1599   .text.httpclient_send_auth:0000000000000118 .LVL178
C:\Users\stapi\AppData\Local\Temp\cc4pWpLv.s:14888  .debug_str:000000000000180c .LASF321
C:\Users\stapi\AppData\Local\Temp\cc4pWpLv.s:1291   .text.httpclient_get_info:0000000000000000 .LFB24
C:\Users\stapi\AppData\Local\Temp\cc4pWpLv.s:1410   .text.httpclient_get_info:0000000000000076 .LFE24
C:\Users\stapi\AppData\Local\Temp\cc4pWpLv.s:13860  .debug_loc:000000000000149f .LLST33
C:\Users\stapi\AppData\Local\Temp\cc4pWpLv.s:13871  .debug_loc:00000000000014bd .LLST34
C:\Users\stapi\AppData\Local\Temp\cc4pWpLv.s:13882  .debug_loc:00000000000014db .LLST35
C:\Users\stapi\AppData\Local\Temp\cc4pWpLv.s:13893  .debug_loc:00000000000014f9 .LLST36
C:\Users\stapi\AppData\Local\Temp\cc4pWpLv.s:13904  .debug_loc:0000000000001517 .LLST37
C:\Users\stapi\AppData\Local\Temp\cc4pWpLv.s:13915  .debug_loc:0000000000001535 .LLST38
C:\Users\stapi\AppData\Local\Temp\cc4pWpLv.s:14676  .debug_str:0000000000000f61 .LASF322
C:\Users\stapi\AppData\Local\Temp\cc4pWpLv.s:13922  .debug_loc:0000000000001548 .LLST39
C:\Users\stapi\AppData\Local\Temp\cc4pWpLv.s:13934  .debug_loc:0000000000001561 .LLST40
C:\Users\stapi\AppData\Local\Temp\cc4pWpLv.s:1328   .text.httpclient_get_info:0000000000000020 .LVL147
C:\Users\stapi\AppData\Local\Temp\cc4pWpLv.s:1358   .text.httpclient_get_info:000000000000004a .LVL152
C:\Users\stapi\AppData\Local\Temp\cc4pWpLv.s:1389   .text.httpclient_get_info:000000000000006c .LVL156
C:\Users\stapi\AppData\Local\Temp\cc4pWpLv.s:14942  .debug_str:0000000000001a13 .LASF323
C:\Users\stapi\AppData\Local\Temp\cc4pWpLv.s:14820  .debug_str:000000000000152d .LASF324
C:\Users\stapi\AppData\Local\Temp\cc4pWpLv.s:14678  .debug_str:0000000000000f68 .LASF325
C:\Users\stapi\AppData\Local\Temp\cc4pWpLv.s:14428  .debug_str:00000000000004a6 .LASF326
C:\Users\stapi\AppData\Local\Temp\cc4pWpLv.s:14570  .debug_str:0000000000000ac1 .LASF327
C:\Users\stapi\AppData\Local\Temp\cc4pWpLv.s:14508  .debug_str:00000000000007b9 .LASF328
C:\Users\stapi\AppData\Local\Temp\cc4pWpLv.s:14506  .debug_str:00000000000007a4 .LASF329
C:\Users\stapi\AppData\Local\Temp\cc4pWpLv.s:14770  .debug_str:0000000000001280 .LASF330
C:\Users\stapi\AppData\Local\Temp\cc4pWpLv.s:14374  .debug_str:0000000000000232 .LASF331
C:\Users\stapi\AppData\Local\Temp\cc4pWpLv.s:14876  .debug_str:00000000000017b0 .LASF332
C:\Users\stapi\AppData\Local\Temp\cc4pWpLv.s:15072  .debug_str:0000000000001fbe .LASF333
C:\Users\stapi\AppData\Local\Temp\cc4pWpLv.s:14784  .debug_str:0000000000001316 .LASF334
C:\Users\stapi\AppData\Local\Temp\cc4pWpLv.s:14752  .debug_str:00000000000011d4 .LASF335
C:\Users\stapi\AppData\Local\Temp\cc4pWpLv.s:14748  .debug_str:00000000000011b7 .LASF367
C:\Users\stapi\AppData\Local\Temp\cc4pWpLv.s:14898  .debug_str:000000000000184c .LASF336
C:\Users\stapi\AppData\Local\Temp\cc4pWpLv.s:32     .text.httpclient_recv.constprop.0:0000000000000000 .LFB40
C:\Users\stapi\AppData\Local\Temp\cc4pWpLv.s:179    .text.httpclient_recv.constprop.0:00000000000000e4 .LFE40
C:\Users\stapi\AppData\Local\Temp\cc4pWpLv.s:13951  .debug_loc:000000000000158d .LLST0
C:\Users\stapi\AppData\Local\Temp\cc4pWpLv.s:13962  .debug_loc:00000000000015ab .LLST1
C:\Users\stapi\AppData\Local\Temp\cc4pWpLv.s:13973  .debug_loc:00000000000015c9 .LLST2
C:\Users\stapi\AppData\Local\Temp\cc4pWpLv.s:13995  .debug_loc:0000000000001600 .LLST3
C:\Users\stapi\AppData\Local\Temp\cc4pWpLv.s:14024  .debug_loc:0000000000001645 .LLST4
C:\Users\stapi\AppData\Local\Temp\cc4pWpLv.s:14067  .debug_loc:00000000000016a6 .LLST5
C:\Users\stapi\AppData\Local\Temp\cc4pWpLv.s:63     .text.httpclient_recv.constprop.0:000000000000001e .LVL3
C:\Users\stapi\AppData\Local\Temp\cc4pWpLv.s:68     .text.httpclient_recv.constprop.0:000000000000002a .LVL4
C:\Users\stapi\AppData\Local\Temp\cc4pWpLv.s:79     .text.httpclient_recv.constprop.0:000000000000003c .LVL5
C:\Users\stapi\AppData\Local\Temp\cc4pWpLv.s:85     .text.httpclient_recv.constprop.0:0000000000000048 .LVL6
C:\Users\stapi\AppData\Local\Temp\cc4pWpLv.s:105    .text.httpclient_recv.constprop.0:0000000000000076 .LVL9
C:\Users\stapi\AppData\Local\Temp\cc4pWpLv.s:143    .text.httpclient_recv.constprop.0:00000000000000a0 .LVL15
C:\Users\stapi\AppData\Local\Temp\cc4pWpLv.s:148    .text.httpclient_recv.constprop.0:00000000000000b0 .LVL16
C:\Users\stapi\AppData\Local\Temp\cc4pWpLv.s:154    .text.httpclient_recv.constprop.0:00000000000000bc .LVL17
C:\Users\stapi\AppData\Local\Temp\cc4pWpLv.s:169    .text.httpclient_recv.constprop.0:00000000000000ce .LVL20
C:\Users\stapi\AppData\Local\Temp\cc4pWpLv.s:176    .text.httpclient_recv.constprop.0:00000000000000e2 .LVL21
C:\Users\stapi\AppData\Local\Temp\cc4pWpLv.s:1146   .text.httpclient_parse_host.constprop.0.isra.0:0000000000000000 .LFB41
C:\Users\stapi\AppData\Local\Temp\cc4pWpLv.s:1284   .text.httpclient_parse_host.constprop.0.isra.0:00000000000000ce .LFE41
C:\Users\stapi\AppData\Local\Temp\cc4pWpLv.s:14100  .debug_loc:00000000000016fd .LLST27
C:\Users\stapi\AppData\Local\Temp\cc4pWpLv.s:14114  .debug_loc:000000000000171e .LLST28
C:\Users\stapi\AppData\Local\Temp\cc4pWpLv.s:14125  .debug_loc:000000000000173c .LLST29
C:\Users\stapi\AppData\Local\Temp\cc4pWpLv.s:14140  .debug_loc:0000000000001765 .LLST30
C:\Users\stapi\AppData\Local\Temp\cc4pWpLv.s:14161  .debug_loc:000000000000179b .LLST31
C:\Users\stapi\AppData\Local\Temp\cc4pWpLv.s:14168  .debug_loc:00000000000017ae .LLST32
C:\Users\stapi\AppData\Local\Temp\cc4pWpLv.s:1169   .text.httpclient_parse_host.constprop.0.isra.0:000000000000001c .LVL125
C:\Users\stapi\AppData\Local\Temp\cc4pWpLv.s:1182   .text.httpclient_parse_host.constprop.0.isra.0:000000000000002e .LVL127
C:\Users\stapi\AppData\Local\Temp\cc4pWpLv.s:1187   .text.httpclient_parse_host.constprop.0.isra.0:000000000000003e .LVL128
C:\Users\stapi\AppData\Local\Temp\cc4pWpLv.s:1194   .text.httpclient_parse_host.constprop.0.isra.0:000000000000004e .LVL129
C:\Users\stapi\AppData\Local\Temp\cc4pWpLv.s:1220   .text.httpclient_parse_host.constprop.0.isra.0:000000000000006a .LVL132
C:\Users\stapi\AppData\Local\Temp\cc4pWpLv.s:1228   .text.httpclient_parse_host.constprop.0.isra.0:000000000000007a .LVL134
C:\Users\stapi\AppData\Local\Temp\cc4pWpLv.s:1255   .text.httpclient_parse_host.constprop.0.isra.0:00000000000000a0 .LVL138
C:\Users\stapi\AppData\Local\Temp\cc4pWpLv.s:1262   .text.httpclient_parse_host.constprop.0.isra.0:00000000000000b6 .LVL139
C:\Users\stapi\AppData\Local\Temp\cc4pWpLv.s:1276   .text.httpclient_parse_host.constprop.0.isra.0:00000000000000c8 .LVL143
C:\Users\stapi\AppData\Local\Temp\cc4pWpLv.s:14552  .debug_str:0000000000000a17 .LASF351
C:\Users\stapi\AppData\Local\Temp\cc4pWpLv.s:14460  .debug_str:00000000000005c3 .LASF353
C:\Users\stapi\AppData\Local\Temp\cc4pWpLv.s:14934  .debug_str:00000000000019b7 .LASF337
C:\Users\stapi\AppData\Local\Temp\cc4pWpLv.s:14878  .debug_str:00000000000017bb .LASF338
C:\Users\stapi\AppData\Local\Temp\cc4pWpLv.s:14398  .debug_str:0000000000000328 .LASF339
C:\Users\stapi\AppData\Local\Temp\cc4pWpLv.s:14804  .debug_str:00000000000013f0 .LASF340
C:\Users\stapi\AppData\Local\Temp\cc4pWpLv.s:14788  .debug_str:000000000000133d .LASF341
C:\Users\stapi\AppData\Local\Temp\cc4pWpLv.s:14500  .debug_str:0000000000000761 .LASF342
C:\Users\stapi\AppData\Local\Temp\cc4pWpLv.s:14376  .debug_str:000000000000023f .LASF343
C:\Users\stapi\AppData\Local\Temp\cc4pWpLv.s:14906  .debug_str:000000000000189c .LASF344
C:\Users\stapi\AppData\Local\Temp\cc4pWpLv.s:14902  .debug_str:0000000000001862 .LASF345
C:\Users\stapi\AppData\Local\Temp\cc4pWpLv.s:14434  .debug_str:00000000000004d3 .LASF346
C:\Users\stapi\AppData\Local\Temp\cc4pWpLv.s:14750  .debug_str:00000000000011cc .LASF347
C:\Users\stapi\AppData\Local\Temp\cc4pWpLv.s:14652  .debug_str:0000000000000e73 .LASF348
C:\Users\stapi\AppData\Local\Temp\cc4pWpLv.s:14520  .debug_str:0000000000000814 .LASF349
C:\Users\stapi\AppData\Local\Temp\cc4pWpLv.s:14842  .debug_str:0000000000001640 .LASF350
C:\Users\stapi\AppData\Local\Temp\cc4pWpLv.s:14976  .debug_str:0000000000001b92 .LASF352
C:\Users\stapi\AppData\Local\Temp\cc4pWpLv.s:14576  .debug_str:0000000000000ade .LASF354
C:\Users\stapi\AppData\Local\Temp\cc4pWpLv.s:14662  .debug_str:0000000000000edd .LASF355
C:\Users\stapi\AppData\Local\Temp\cc4pWpLv.s:14456  .debug_str:000000000000059c .LASF356
C:\Users\stapi\AppData\Local\Temp\cc4pWpLv.s:14970  .debug_str:0000000000001b6f .LASF357
C:\Users\stapi\AppData\Local\Temp\cc4pWpLv.s:14926  .debug_str:0000000000001983 .LASF358
C:\Users\stapi\AppData\Local\Temp\cc4pWpLv.s:14698  .debug_str:0000000000000fdf .LASF359
C:\Users\stapi\AppData\Local\Temp\cc4pWpLv.s:3774   .text.iotx_post:0000000000000000 .LVL468
C:\Users\stapi\AppData\Local\Temp\cc4pWpLv.s:3800   .text.iotx_post:0000000000000018 .LVL472
C:\Users\stapi\AppData\Local\Temp\cc4pWpLv.s:3796   .text.iotx_post:0000000000000012 .LVL470
C:\Users\stapi\AppData\Local\Temp\cc4pWpLv.s:3798   .text.iotx_post:0000000000000016 .LVL471
C:\Users\stapi\AppData\Local\Temp\cc4pWpLv.s:3846   .text.iotx_post:0000000000000082 .LVL479
C:\Users\stapi\AppData\Local\Temp\cc4pWpLv.s:3890   .text.iotx_post:00000000000000ce .LVL486
C:\Users\stapi\AppData\Local\Temp\cc4pWpLv.s:3900   .text.iotx_post:00000000000000d6 .LVL487
C:\Users\stapi\AppData\Local\Temp\cc4pWpLv.s:3785   .text.iotx_post:0000000000000008 .LVL469
C:\Users\stapi\AppData\Local\Temp\cc4pWpLv.s:3912   .text.iotx_post:00000000000000e8 .LVL489
C:\Users\stapi\AppData\Local\Temp\cc4pWpLv.s:3753   .text.utils_get_response_code:0000000000000000 .LVL466
C:\Users\stapi\AppData\Local\Temp\cc4pWpLv.s:3757   .text.utils_get_response_code:0000000000000002 .LVL467
C:\Users\stapi\AppData\Local\Temp\cc4pWpLv.s:3526   .text.httpclient_common:0000000000000000 .LVL434
C:\Users\stapi\AppData\Local\Temp\cc4pWpLv.s:3553   .text.httpclient_common:0000000000000018 .LVL438
C:\Users\stapi\AppData\Local\Temp\cc4pWpLv.s:3549   .text.httpclient_common:0000000000000012 .LVL436
C:\Users\stapi\AppData\Local\Temp\cc4pWpLv.s:3551   .text.httpclient_common:0000000000000016 .LVL437
C:\Users\stapi\AppData\Local\Temp\cc4pWpLv.s:3581   .text.httpclient_common:0000000000000050 .LVL442
C:\Users\stapi\AppData\Local\Temp\cc4pWpLv.s:3599   .text.httpclient_common:000000000000006c .LVL444
C:\Users\stapi\AppData\Local\Temp\cc4pWpLv.s:3609   .text.httpclient_common:0000000000000074 .LVL445
C:\Users\stapi\AppData\Local\Temp\cc4pWpLv.s:3538   .text.httpclient_common:0000000000000008 .LVL435
C:\Users\stapi\AppData\Local\Temp\cc4pWpLv.s:3649   .text.httpclient_common:00000000000000c0 .LVL452
C:\Users\stapi\AppData\Local\Temp\cc4pWpLv.s:3675   .text.httpclient_common:00000000000000f0 .LVL456
C:\Users\stapi\AppData\Local\Temp\cc4pWpLv.s:3704   .text.httpclient_common:000000000000012c .LVL461
C:\Users\stapi\AppData\Local\Temp\cc4pWpLv.s:3719   .text.httpclient_common:000000000000014c .LVL463
C:\Users\stapi\AppData\Local\Temp\cc4pWpLv.s:3454   .text.httpclient_close:0000000000000000 .LVL428
C:\Users\stapi\AppData\Local\Temp\cc4pWpLv.s:3469   .text.httpclient_close:0000000000000012 .LVL429
C:\Users\stapi\AppData\Local\Temp\cc4pWpLv.s:2895   .text.httpclient_recv_response:0000000000000000 .LVL346
C:\Users\stapi\AppData\Local\Temp\cc4pWpLv.s:2925   .text.httpclient_recv_response:0000000000000018 .LVL349
C:\Users\stapi\AppData\Local\Temp\cc4pWpLv.s:2921   .text.httpclient_recv_response:0000000000000012 .LVL347
C:\Users\stapi\AppData\Local\Temp\cc4pWpLv.s:2978   .text.httpclient_recv_response:0000000000000084 .LVL358
C:\Users\stapi\AppData\Local\Temp\cc4pWpLv.s:2986   .text.httpclient_recv_response:0000000000000090 .LVL360
C:\Users\stapi\AppData\Local\Temp\cc4pWpLv.s:3008   .text.httpclient_recv_response:00000000000000b2 .LVL362
C:\Users\stapi\AppData\Local\Temp\cc4pWpLv.s:3020   .text.httpclient_recv_response:00000000000000c2 .LVL365
C:\Users\stapi\AppData\Local\Temp\cc4pWpLv.s:3041   .text.httpclient_recv_response:00000000000000e8 .LVL368
C:\Users\stapi\AppData\Local\Temp\cc4pWpLv.s:3411   .text.httpclient_recv_response:000000000000038a .LVL426
C:\Users\stapi\AppData\Local\Temp\cc4pWpLv.s:3417   .text.httpclient_recv_response:000000000000038e .LVL427
C:\Users\stapi\AppData\Local\Temp\cc4pWpLv.s:2923   .text.httpclient_recv_response:0000000000000016 .LVL348
C:\Users\stapi\AppData\Local\Temp\cc4pWpLv.s:2928   .text.httpclient_recv_response:000000000000001a .LVL350
C:\Users\stapi\AppData\Local\Temp\cc4pWpLv.s:3018   .text.httpclient_recv_response:00000000000000c0 .LVL364
C:\Users\stapi\AppData\Local\Temp\cc4pWpLv.s:3053   .text.httpclient_recv_response:00000000000000f4 .LVL369
C:\Users\stapi\AppData\Local\Temp\cc4pWpLv.s:3060   .text.httpclient_recv_response:0000000000000102 .LVL370
C:\Users\stapi\AppData\Local\Temp\cc4pWpLv.s:3076   .text.httpclient_recv_response:000000000000012c .LVL373
C:\Users\stapi\AppData\Local\Temp\cc4pWpLv.s:3085   .text.httpclient_recv_response:000000000000012e .LVL374
C:\Users\stapi\AppData\Local\Temp\cc4pWpLv.s:3211   .text.httpclient_recv_response:0000000000000234 .LVL392
C:\Users\stapi\AppData\Local\Temp\cc4pWpLv.s:3190   .text.httpclient_recv_response:0000000000000212 .LVL390
C:\Users\stapi\AppData\Local\Temp\cc4pWpLv.s:3138   .text.httpclient_recv_response:0000000000000196 .LVL383
C:\Users\stapi\AppData\Local\Temp\cc4pWpLv.s:3236   .text.httpclient_recv_response:000000000000025c .LVL396
C:\Users\stapi\AppData\Local\Temp\cc4pWpLv.s:3334   .text.httpclient_recv_response:0000000000000306 .LVL412
C:\Users\stapi\AppData\Local\Temp\cc4pWpLv.s:3342   .text.httpclient_recv_response:0000000000000310 .LVL413
C:\Users\stapi\AppData\Local\Temp\cc4pWpLv.s:3360   .text.httpclient_recv_response:000000000000032a .LVL417
C:\Users\stapi\AppData\Local\Temp\cc4pWpLv.s:3386   .text.httpclient_recv_response:000000000000035a .LVL420
C:\Users\stapi\AppData\Local\Temp\cc4pWpLv.s:3392   .text.httpclient_recv_response:000000000000035e .LVL421
C:\Users\stapi\AppData\Local\Temp\cc4pWpLv.s:3221   .text.httpclient_recv_response:0000000000000244 .LVL394
C:\Users\stapi\AppData\Local\Temp\cc4pWpLv.s:3296   .text.httpclient_recv_response:00000000000002ca .LVL404
C:\Users\stapi\AppData\Local\Temp\cc4pWpLv.s:3298   .text.httpclient_recv_response:00000000000002cc .LVL405
C:\Users\stapi\AppData\Local\Temp\cc4pWpLv.s:3311   .text.httpclient_recv_response:00000000000002de .LVL408
C:\Users\stapi\AppData\Local\Temp\cc4pWpLv.s:3409   .text.httpclient_recv_response:0000000000000388 .LVL425
C:\Users\stapi\AppData\Local\Temp\cc4pWpLv.s:3320   .text.httpclient_recv_response:00000000000002f4 .LVL410
C:\Users\stapi\AppData\Local\Temp\cc4pWpLv.s:3113   .text.httpclient_recv_response:0000000000000162 .LVL378
C:\Users\stapi\AppData\Local\Temp\cc4pWpLv.s:3131   .text.httpclient_recv_response:000000000000018e .LVL382
C:\Users\stapi\AppData\Local\Temp\cc4pWpLv.s:3143   .text.httpclient_recv_response:000000000000019a .LVL384
C:\Users\stapi\AppData\Local\Temp\cc4pWpLv.s:3279   .text.httpclient_recv_response:00000000000002a6 .LVL401
C:\Users\stapi\AppData\Local\Temp\cc4pWpLv.s:3288   .text.httpclient_recv_response:00000000000002b8 .LVL402
C:\Users\stapi\AppData\Local\Temp\cc4pWpLv.s:3304   .text.httpclient_recv_response:00000000000002d0 .LVL406
C:\Users\stapi\AppData\Local\Temp\cc4pWpLv.s:3349   .text.httpclient_recv_response:000000000000031a .LVL415
C:\Users\stapi\AppData\Local\Temp\cc4pWpLv.s:3353   .text.httpclient_recv_response:000000000000031e .LVL416
C:\Users\stapi\AppData\Local\Temp\cc4pWpLv.s:2744   .text.httpclient_send_request:0000000000000000 .LVL330
C:\Users\stapi\AppData\Local\Temp\cc4pWpLv.s:2761   .text.httpclient_send_request:0000000000000010 .LVL332
C:\Users\stapi\AppData\Local\Temp\cc4pWpLv.s:2791   .text.httpclient_send_request:0000000000000048 .LVL337
C:\Users\stapi\AppData\Local\Temp\cc4pWpLv.s:2831   .text.httpclient_send_request:0000000000000090 .LVL343
C:\Users\stapi\AppData\Local\Temp\cc4pWpLv.s:2753   .text.httpclient_send_request:0000000000000008 .LVL331
C:\Users\stapi\AppData\Local\Temp\cc4pWpLv.s:2779   .text.httpclient_send_request:000000000000003e .LVL336
C:\Users\stapi\AppData\Local\Temp\cc4pWpLv.s:2802   .text.httpclient_send_request:0000000000000058 .LVL339
C:\Users\stapi\AppData\Local\Temp\cc4pWpLv.s:2842   .text.httpclient_send_request:00000000000000a4 .LVL345
C:\Users\stapi\AppData\Local\Temp\cc4pWpLv.s:2670   .text.httpclient_connect:0000000000000000 .LVL321
C:\Users\stapi\AppData\Local\Temp\cc4pWpLv.s:2692   .text.httpclient_connect:0000000000000010 .LVL324
C:\Users\stapi\AppData\Local\Temp\cc4pWpLv.s:2686   .text.httpclient_connect:000000000000000e .LVL323
C:\Users\stapi\AppData\Local\Temp\cc4pWpLv.s:2717   .text.httpclient_connect:0000000000000046 .LVL329
C:\Users\stapi\AppData\Local\Temp\cc4pWpLv.s:231    .text.httpclient_retrieve_content:0000000000000000 .LVL22
C:\Users\stapi\AppData\Local\Temp\cc4pWpLv.s:260    .text.httpclient_retrieve_content:000000000000000e .LVL24
C:\Users\stapi\AppData\Local\Temp\cc4pWpLv.s:587    .text.httpclient_retrieve_content:00000000000001f2 .LVL59
C:\Users\stapi\AppData\Local\Temp\cc4pWpLv.s:612    .text.httpclient_retrieve_content:00000000000001fe .LVL60
C:\Users\stapi\AppData\Local\Temp\cc4pWpLv.s:1098   .text.httpclient_retrieve_content:000000000000052c .LVL116
C:\Users\stapi\AppData\Local\Temp\cc4pWpLv.s:310    .text.httpclient_retrieve_content:0000000000000076 .LVL28
C:\Users\stapi\AppData\Local\Temp\cc4pWpLv.s:470    .text.httpclient_retrieve_content:000000000000016e .LVL47
C:\Users\stapi\AppData\Local\Temp\cc4pWpLv.s:476    .text.httpclient_retrieve_content:0000000000000170 .LVL48
C:\Users\stapi\AppData\Local\Temp\cc4pWpLv.s:248    .text.httpclient_retrieve_content:0000000000000008 .LVL23
C:\Users\stapi\AppData\Local\Temp\cc4pWpLv.s:396    .text.httpclient_retrieve_content:000000000000010a .LVL38
C:\Users\stapi\AppData\Local\Temp\cc4pWpLv.s:413    .text.httpclient_retrieve_content:0000000000000124 .LVL41
C:\Users\stapi\AppData\Local\Temp\cc4pWpLv.s:430    .text.httpclient_retrieve_content:0000000000000140 .LVL43
C:\Users\stapi\AppData\Local\Temp\cc4pWpLv.s:438    .text.httpclient_retrieve_content:0000000000000144 .LVL44
C:\Users\stapi\AppData\Local\Temp\cc4pWpLv.s:621    .text.httpclient_retrieve_content:0000000000000204 .LVL61
C:\Users\stapi\AppData\Local\Temp\cc4pWpLv.s:650    .text.httpclient_retrieve_content:0000000000000238 .LVL63
C:\Users\stapi\AppData\Local\Temp\cc4pWpLv.s:948    .text.httpclient_retrieve_content:0000000000000428 .LVL100
C:\Users\stapi\AppData\Local\Temp\cc4pWpLv.s:666    .text.httpclient_retrieve_content:0000000000000244 .LVL66
C:\Users\stapi\AppData\Local\Temp\cc4pWpLv.s:961    .text.httpclient_retrieve_content:0000000000000436 .LVL101
C:\Users\stapi\AppData\Local\Temp\cc4pWpLv.s:1006   .text.httpclient_retrieve_content:000000000000048a .LVL104
C:\Users\stapi\AppData\Local\Temp\cc4pWpLv.s:508    .text.httpclient_retrieve_content:000000000000018a .LVL49
C:\Users\stapi\AppData\Local\Temp\cc4pWpLv.s:524    .text.httpclient_retrieve_content:00000000000001a0 .LVL50
C:\Users\stapi\AppData\Local\Temp\cc4pWpLv.s:548    .text.httpclient_retrieve_content:00000000000001bc .LVL53
C:\Users\stapi\AppData\Local\Temp\cc4pWpLv.s:551    .text.httpclient_retrieve_content:00000000000001be .LVL54
C:\Users\stapi\AppData\Local\Temp\cc4pWpLv.s:554    .text.httpclient_retrieve_content:00000000000001c2 .LVL55
C:\Users\stapi\AppData\Local\Temp\cc4pWpLv.s:373    .text.httpclient_retrieve_content:00000000000000d2 .LVL34
C:\Users\stapi\AppData\Local\Temp\cc4pWpLv.s:381    .text.httpclient_retrieve_content:00000000000000e6 .LVL35
C:\Users\stapi\AppData\Local\Temp\cc4pWpLv.s:445    .text.httpclient_retrieve_content:0000000000000146 .LVL45
C:\Users\stapi\AppData\Local\Temp\cc4pWpLv.s:355    .text.httpclient_retrieve_content:00000000000000b2 .LVL31
C:\Users\stapi\AppData\Local\Temp\cc4pWpLv.s:810    .text.httpclient_retrieve_content:000000000000034e .LVL88
C:\Users\stapi\AppData\Local\Temp\cc4pWpLv.s:898    .text.httpclient_retrieve_content:00000000000003e2 .LVL96
C:\Users\stapi\AppData\Local\Temp\cc4pWpLv.s:1020   .text.httpclient_retrieve_content:00000000000004a0 .LVL106
C:\Users\stapi\AppData\Local\Temp\cc4pWpLv.s:1025   .text.httpclient_retrieve_content:00000000000004a4 .LVL107
C:\Users\stapi\AppData\Local\Temp\cc4pWpLv.s:1050   .text.httpclient_retrieve_content:00000000000004de .LVL111
C:\Users\stapi\AppData\Local\Temp\cc4pWpLv.s:1071   .text.httpclient_retrieve_content:00000000000004fa .LVL113
C:\Users\stapi\AppData\Local\Temp\cc4pWpLv.s:1117   .text.httpclient_retrieve_content:000000000000055c .LVL120
C:\Users\stapi\AppData\Local\Temp\cc4pWpLv.s:756    .text.httpclient_retrieve_content:00000000000002e6 .LVL78
C:\Users\stapi\AppData\Local\Temp\cc4pWpLv.s:764    .text.httpclient_retrieve_content:00000000000002f2 .LVL79
C:\Users\stapi\AppData\Local\Temp\cc4pWpLv.s:772    .text.httpclient_retrieve_content:0000000000000308 .LVL81
C:\Users\stapi\AppData\Local\Temp\cc4pWpLv.s:777    .text.httpclient_retrieve_content:000000000000030a .LVL82
C:\Users\stapi\AppData\Local\Temp\cc4pWpLv.s:790    .text.httpclient_retrieve_content:000000000000031e .LVL83
C:\Users\stapi\AppData\Local\Temp\cc4pWpLv.s:688    .text.httpclient_retrieve_content:0000000000000268 .LVL69
C:\Users\stapi\AppData\Local\Temp\cc4pWpLv.s:696    .text.httpclient_retrieve_content:0000000000000278 .LVL71
C:\Users\stapi\AppData\Local\Temp\cc4pWpLv.s:530    .text.httpclient_retrieve_content:00000000000001a4 .LVL51
C:\Users\stapi\AppData\Local\Temp\cc4pWpLv.s:537    .text.httpclient_retrieve_content:00000000000001ac .LVL52
C:\Users\stapi\AppData\Local\Temp\cc4pWpLv.s:921    .text.httpclient_retrieve_content:00000000000003fc .LVL98
C:\Users\stapi\AppData\Local\Temp\cc4pWpLv.s:577    .text.httpclient_retrieve_content:00000000000001e8 .LVL58
C:\Users\stapi\AppData\Local\Temp\cc4pWpLv.s:732    .text.httpclient_retrieve_content:00000000000002c6 .LVL75
C:\Users\stapi\AppData\Local\Temp\cc4pWpLv.s:741    .text.httpclient_retrieve_content:00000000000002ce .LVL76
C:\Users\stapi\AppData\Local\Temp\cc4pWpLv.s:808    .text.httpclient_retrieve_content:000000000000034c .LVL87
C:\Users\stapi\AppData\Local\Temp\cc4pWpLv.s:662    .text.httpclient_retrieve_content:0000000000000240 .LVL65
C:\Users\stapi\AppData\Local\Temp\cc4pWpLv.s:683    .text.httpclient_retrieve_content:0000000000000264 .LVL68
C:\Users\stapi\AppData\Local\Temp\cc4pWpLv.s:840    .text.httpclient_retrieve_content:0000000000000380 .LVL91
C:\Users\stapi\AppData\Local\Temp\cc4pWpLv.s:850    .text.httpclient_retrieve_content:000000000000038c .LVL92
C:\Users\stapi\AppData\Local\Temp\cc4pWpLv.s:2511   .text.httpclient_send_userdata:0000000000000000 .LVL300
C:\Users\stapi\AppData\Local\Temp\cc4pWpLv.s:2529   .text.httpclient_send_userdata:0000000000000010 .LVL301
C:\Users\stapi\AppData\Local\Temp\cc4pWpLv.s:2642   .text.httpclient_send_userdata:00000000000000e6 .LVL319
C:\Users\stapi\AppData\Local\Temp\cc4pWpLv.s:2652   .text.httpclient_send_userdata:00000000000000e8 .LVL320
C:\Users\stapi\AppData\Local\Temp\cc4pWpLv.s:2544   .text.httpclient_send_userdata:0000000000000030 .LVL302
C:\Users\stapi\AppData\Local\Temp\cc4pWpLv.s:2575   .text.httpclient_send_userdata:0000000000000074 .LVL308
C:\Users\stapi\AppData\Local\Temp\cc4pWpLv.s:2588   .text.httpclient_send_userdata:000000000000007e .LVL309
C:\Users\stapi\AppData\Local\Temp\cc4pWpLv.s:2595   .text.httpclient_send_userdata:0000000000000086 .LVL311
C:\Users\stapi\AppData\Local\Temp\cc4pWpLv.s:2559   .text.httpclient_send_userdata:0000000000000050 .LVL305
C:\Users\stapi\AppData\Local\Temp\cc4pWpLv.s:2566   .text.httpclient_send_userdata:000000000000005c .LVL306
C:\Users\stapi\AppData\Local\Temp\cc4pWpLv.s:2593   .text.httpclient_send_userdata:0000000000000082 .LVL310
C:\Users\stapi\AppData\Local\Temp\cc4pWpLv.s:2617   .text.httpclient_send_userdata:00000000000000b4 .LVL315
C:\Users\stapi\AppData\Local\Temp\cc4pWpLv.s:1755   .text.httpclient_send_header:0000000000000000 .LVL195
C:\Users\stapi\AppData\Local\Temp\cc4pWpLv.s:1784   .text.httpclient_send_header:0000000000000018 .LVL198
C:\Users\stapi\AppData\Local\Temp\cc4pWpLv.s:1780   .text.httpclient_send_header:0000000000000012 .LVL196
C:\Users\stapi\AppData\Local\Temp\cc4pWpLv.s:2013   .text.httpclient_send_header:000000000000018c .LVL229
C:\Users\stapi\AppData\Local\Temp\cc4pWpLv.s:2066   .text.httpclient_send_header:00000000000001ea .LVL233
C:\Users\stapi\AppData\Local\Temp\cc4pWpLv.s:2071   .text.httpclient_send_header:00000000000001f4 .LVL235
C:\Users\stapi\AppData\Local\Temp\cc4pWpLv.s:2100   .text.httpclient_send_header:000000000000021c .LVL242
C:\Users\stapi\AppData\Local\Temp\cc4pWpLv.s:2477   .text.httpclient_send_header:00000000000004e6 .LVL297
C:\Users\stapi\AppData\Local\Temp\cc4pWpLv.s:1782   .text.httpclient_send_header:0000000000000016 .LVL197
C:\Users\stapi\AppData\Local\Temp\cc4pWpLv.s:1904   .text.httpclient_send_header:00000000000000ec .LVL216
C:\Users\stapi\AppData\Local\Temp\cc4pWpLv.s:2040   .text.httpclient_send_header:00000000000001be .LVL230
C:\Users\stapi\AppData\Local\Temp\cc4pWpLv.s:1792   .text.httpclient_send_header:000000000000001e .LVL199
C:\Users\stapi\AppData\Local\Temp\cc4pWpLv.s:1940   .text.httpclient_send_header:0000000000000120 .LVL221
C:\Users\stapi\AppData\Local\Temp\cc4pWpLv.s:2131   .text.httpclient_send_header:000000000000024e .LVL248
C:\Users\stapi\AppData\Local\Temp\cc4pWpLv.s:2272   .text.httpclient_send_header:0000000000000334 .LVL270
C:\Users\stapi\AppData\Local\Temp\cc4pWpLv.s:2404   .text.httpclient_send_header:0000000000000456 .LVL285
C:\Users\stapi\AppData\Local\Temp\cc4pWpLv.s:2412   .text.httpclient_send_header:0000000000000466 .LVL286
C:\Users\stapi\AppData\Local\Temp\cc4pWpLv.s:2422   .text.httpclient_send_header:0000000000000482 .LVL288
C:\Users\stapi\AppData\Local\Temp\cc4pWpLv.s:2426   .text.httpclient_send_header:0000000000000486 .LVL289
C:\Users\stapi\AppData\Local\Temp\cc4pWpLv.s:2450   .text.httpclient_send_header:00000000000004b4 .LVL293
C:\Users\stapi\AppData\Local\Temp\cc4pWpLv.s:1812   .text.httpclient_send_header:0000000000000038 .LVL201
C:\Users\stapi\AppData\Local\Temp\cc4pWpLv.s:1816   .text.httpclient_send_header:0000000000000042 .LVL203
C:\Users\stapi\AppData\Local\Temp\cc4pWpLv.s:1825   .text.httpclient_send_header:000000000000004e .LVL204
C:\Users\stapi\AppData\Local\Temp\cc4pWpLv.s:2483   .text.httpclient_send_header:00000000000004ea .LVL298
C:\Users\stapi\AppData\Local\Temp\cc4pWpLv.s:1829   .text.httpclient_send_header:0000000000000058 .LVL206
C:\Users\stapi\AppData\Local\Temp\cc4pWpLv.s:1838   .text.httpclient_send_header:0000000000000064 .LVL207
C:\Users\stapi\AppData\Local\Temp\cc4pWpLv.s:2488   .text.httpclient_send_header:00000000000004f0 .LVL299
C:\Users\stapi\AppData\Local\Temp\cc4pWpLv.s:1842   .text.httpclient_send_header:000000000000006e .LVL209
C:\Users\stapi\AppData\Local\Temp\cc4pWpLv.s:1890   .text.httpclient_send_header:00000000000000d8 .LVL214
C:\Users\stapi\AppData\Local\Temp\cc4pWpLv.s:2129   .text.httpclient_send_header:000000000000024c .LVL247
C:\Users\stapi\AppData\Local\Temp\cc4pWpLv.s:2091   .text.httpclient_send_header:000000000000020c .LVL240
C:\Users\stapi\AppData\Local\Temp\cc4pWpLv.s:2244   .text.httpclient_send_header:000000000000030a .LVL266
C:\Users\stapi\AppData\Local\Temp\cc4pWpLv.s:4007   .debug_info:0000000000000000 .Ldebug_info0
C:\Users\stapi\AppData\Local\Temp\cc4pWpLv.s:2077   .text.httpclient_send_header:00000000000001fa .LVL236
C:\Users\stapi\AppData\Local\Temp\cc4pWpLv.s:2083   .text.httpclient_send_header:0000000000000204 .LVL238
C:\Users\stapi\AppData\Local\Temp\cc4pWpLv.s:1916   .text.httpclient_send_header:00000000000000f6 .LVL217
C:\Users\stapi\AppData\Local\Temp\cc4pWpLv.s:2054   .text.httpclient_send_header:00000000000001d0 .LVL231
C:\Users\stapi\AppData\Local\Temp\cc4pWpLv.s:2087   .text.httpclient_send_header:0000000000000208 .LVL239
C:\Users\stapi\AppData\Local\Temp\cc4pWpLv.s:2185   .text.httpclient_send_header:00000000000002a8 .LVL257
C:\Users\stapi\AppData\Local\Temp\cc4pWpLv.s:2207   .text.httpclient_send_header:00000000000002d6 .LVL259
C:\Users\stapi\AppData\Local\Temp\cc4pWpLv.s:2216   .text.httpclient_send_header:00000000000002e2 .LVL262
C:\Users\stapi\AppData\Local\Temp\cc4pWpLv.s:2137   .text.httpclient_send_header:0000000000000252 .LVL249
C:\Users\stapi\AppData\Local\Temp\cc4pWpLv.s:2171   .text.httpclient_send_header:0000000000000290 .LVL255
C:\Users\stapi\AppData\Local\Temp\cc4pWpLv.s:2218   .text.httpclient_send_header:00000000000002e4 .LVL263
C:\Users\stapi\AppData\Local\Temp\cc4pWpLv.s:2229   .text.httpclient_send_header:00000000000002f4 .LVL265
C:\Users\stapi\AppData\Local\Temp\cc4pWpLv.s:2107   .text.httpclient_send_header:0000000000000222 .LVL243
C:\Users\stapi\AppData\Local\Temp\cc4pWpLv.s:2146   .text.httpclient_send_header:0000000000000262 .LVL250
C:\Users\stapi\AppData\Local\Temp\cc4pWpLv.s:2159   .text.httpclient_send_header:0000000000000280 .LVL252
C:\Users\stapi\AppData\Local\Temp\cc4pWpLv.s:2165   .text.httpclient_send_header:0000000000000286 .LVL253
C:\Users\stapi\AppData\Local\Temp\cc4pWpLv.s:2212   .text.httpclient_send_header:00000000000002d8 .LVL260
C:\Users\stapi\AppData\Local\Temp\cc4pWpLv.s:1436   .text.httpclient_send_auth:0000000000000000 .LVL158
C:\Users\stapi\AppData\Local\Temp\cc4pWpLv.s:1503   .text.httpclient_send_auth:0000000000000080 .LVL163
C:\Users\stapi\AppData\Local\Temp\cc4pWpLv.s:1558   .text.httpclient_send_auth:00000000000000c0 .LVL174
C:\Users\stapi\AppData\Local\Temp\cc4pWpLv.s:1614   .text.httpclient_send_auth:0000000000000124 .LVL179
C:\Users\stapi\AppData\Local\Temp\cc4pWpLv.s:1520   .text.httpclient_send_auth:000000000000008e .LVL166
C:\Users\stapi\AppData\Local\Temp\cc4pWpLv.s:1524   .text.httpclient_send_auth:0000000000000094 .LVL167
C:\Users\stapi\AppData\Local\Temp\cc4pWpLv.s:1533   .text.httpclient_send_auth:00000000000000a2 .LVL169
C:\Users\stapi\AppData\Local\Temp\cc4pWpLv.s:1542   .text.httpclient_send_auth:00000000000000ae .LVL171
C:\Users\stapi\AppData\Local\Temp\cc4pWpLv.s:1545   .text.httpclient_send_auth:00000000000000b0 .LVL172
C:\Users\stapi\AppData\Local\Temp\cc4pWpLv.s:1547   .text.httpclient_send_auth:00000000000000b2 .LVL173
C:\Users\stapi\AppData\Local\Temp\cc4pWpLv.s:1648   .text.httpclient_send_auth:0000000000000138 .LVL187
C:\Users\stapi\AppData\Local\Temp\cc4pWpLv.s:1656   .text.httpclient_send_auth:0000000000000142 .LVL189
C:\Users\stapi\AppData\Local\Temp\cc4pWpLv.s:1661   .text.httpclient_send_auth:000000000000014a .LVL190
C:\Users\stapi\AppData\Local\Temp\cc4pWpLv.s:1671   .text.httpclient_send_auth:0000000000000158 .LVL193
C:\Users\stapi\AppData\Local\Temp\cc4pWpLv.s:1506   .text.httpclient_send_auth:0000000000000082 .LVL164
C:\Users\stapi\AppData\Local\Temp\cc4pWpLv.s:1516   .text.httpclient_send_auth:000000000000008c .LVL165
C:\Users\stapi\AppData\Local\Temp\cc4pWpLv.s:1539   .text.httpclient_send_auth:00000000000000aa .LVL170
C:\Users\stapi\AppData\Local\Temp\cc4pWpLv.s:1631   .text.httpclient_send_auth:000000000000012c .LVL183
C:\Users\stapi\AppData\Local\Temp\cc4pWpLv.s:1634   .text.httpclient_send_auth:000000000000012e .LVL184
C:\Users\stapi\AppData\Local\Temp\cc4pWpLv.s:1638   .text.httpclient_send_auth:0000000000000132 .LVL185
C:\Users\stapi\AppData\Local\Temp\cc4pWpLv.s:1651   .text.httpclient_send_auth:000000000000013a .LVL188
C:\Users\stapi\AppData\Local\Temp\cc4pWpLv.s:1666   .text.httpclient_send_auth:0000000000000152 .LVL191
C:\Users\stapi\AppData\Local\Temp\cc4pWpLv.s:1526   .text.httpclient_send_auth:0000000000000098 .LVL168
C:\Users\stapi\AppData\Local\Temp\cc4pWpLv.s:1622   .text.httpclient_send_auth:0000000000000126 .LVL180
C:\Users\stapi\AppData\Local\Temp\cc4pWpLv.s:1625   .text.httpclient_send_auth:0000000000000128 .LVL181
C:\Users\stapi\AppData\Local\Temp\cc4pWpLv.s:1669   .text.httpclient_send_auth:0000000000000156 .LVL192
C:\Users\stapi\AppData\Local\Temp\cc4pWpLv.s:1294   .text.httpclient_get_info:0000000000000000 .LVL144
C:\Users\stapi\AppData\Local\Temp\cc4pWpLv.s:1326   .text.httpclient_get_info:0000000000000018 .LVL146
C:\Users\stapi\AppData\Local\Temp\cc4pWpLv.s:1393   .text.httpclient_get_info:000000000000006e .LVL157
C:\Users\stapi\AppData\Local\Temp\cc4pWpLv.s:1348   .text.httpclient_get_info:0000000000000038 .LVL150
C:\Users\stapi\AppData\Local\Temp\cc4pWpLv.s:1355   .text.httpclient_get_info:0000000000000042 .LVL151
C:\Users\stapi\AppData\Local\Temp\cc4pWpLv.s:1313   .text.httpclient_get_info:000000000000000a .LVL145
C:\Users\stapi\AppData\Local\Temp\cc4pWpLv.s:1367   .text.httpclient_get_info:0000000000000052 .LVL154
C:\Users\stapi\AppData\Local\Temp\cc4pWpLv.s:1379   .text.httpclient_get_info:000000000000005c .LVL155
C:\Users\stapi\AppData\Local\Temp\cc4pWpLv.s:36     .text.httpclient_recv.constprop.0:0000000000000000 .LVL0
C:\Users\stapi\AppData\Local\Temp\cc4pWpLv.s:55     .text.httpclient_recv.constprop.0:000000000000000e .LVL2
C:\Users\stapi\AppData\Local\Temp\cc4pWpLv.s:115    .text.httpclient_recv.constprop.0:000000000000007a .LVL11
C:\Users\stapi\AppData\Local\Temp\cc4pWpLv.s:123    .text.httpclient_recv.constprop.0:0000000000000082 .LVL12
C:\Users\stapi\AppData\Local\Temp\cc4pWpLv.s:109    .text.httpclient_recv.constprop.0:0000000000000078 .LVL10
C:\Users\stapi\AppData\Local\Temp\cc4pWpLv.s:137    .text.httpclient_recv.constprop.0:0000000000000090 .LVL14
C:\Users\stapi\AppData\Local\Temp\cc4pWpLv.s:160    .text.httpclient_recv.constprop.0:00000000000000c0 .LVL18
C:\Users\stapi\AppData\Local\Temp\cc4pWpLv.s:165    .text.httpclient_recv.constprop.0:00000000000000c6 .LVL19
C:\Users\stapi\AppData\Local\Temp\cc4pWpLv.s:44     .text.httpclient_recv.constprop.0:0000000000000008 .LVL1
C:\Users\stapi\AppData\Local\Temp\cc4pWpLv.s:87     .text.httpclient_recv.constprop.0:000000000000004a .LVL7
C:\Users\stapi\AppData\Local\Temp\cc4pWpLv.s:98     .text.httpclient_recv.constprop.0:000000000000005c .LVL8
C:\Users\stapi\AppData\Local\Temp\cc4pWpLv.s:129    .text.httpclient_recv.constprop.0:0000000000000084 .LVL13
C:\Users\stapi\AppData\Local\Temp\cc4pWpLv.s:1149   .text.httpclient_parse_host.constprop.0.isra.0:0000000000000000 .LVL122
C:\Users\stapi\AppData\Local\Temp\cc4pWpLv.s:1162   .text.httpclient_parse_host.constprop.0.isra.0:000000000000000e .LVL124
C:\Users\stapi\AppData\Local\Temp\cc4pWpLv.s:1179   .text.httpclient_parse_host.constprop.0.isra.0:0000000000000022 .LVL126
C:\Users\stapi\AppData\Local\Temp\cc4pWpLv.s:1208   .text.httpclient_parse_host.constprop.0.isra.0:0000000000000058 .LVL130
C:\Users\stapi\AppData\Local\Temp\cc4pWpLv.s:1214   .text.httpclient_parse_host.constprop.0.isra.0:000000000000005c .LVL131
C:\Users\stapi\AppData\Local\Temp\cc4pWpLv.s:1239   .text.httpclient_parse_host.constprop.0.isra.0:0000000000000082 .LVL136
C:\Users\stapi\AppData\Local\Temp\cc4pWpLv.s:1273   .text.httpclient_parse_host.constprop.0.isra.0:00000000000000c0 .LVL142
C:\Users\stapi\AppData\Local\Temp\cc4pWpLv.s:1222   .text.httpclient_parse_host.constprop.0.isra.0:000000000000006c .LVL133
C:\Users\stapi\AppData\Local\Temp\cc4pWpLv.s:1233   .text.httpclient_parse_host.constprop.0.isra.0:000000000000007c .LVL135
C:\Users\stapi\AppData\Local\Temp\cc4pWpLv.s:1249   .text.httpclient_parse_host.constprop.0.isra.0:0000000000000092 .LVL137
C:\Users\stapi\AppData\Local\Temp\cc4pWpLv.s:1264   .text.httpclient_parse_host.constprop.0.isra.0:00000000000000b8 .LVL140
C:\Users\stapi\AppData\Local\Temp\cc4pWpLv.s:1270   .text.httpclient_parse_host.constprop.0.isra.0:00000000000000be .LVL141
C:\Users\stapi\AppData\Local\Temp\cc4pWpLv.s:303    .text.httpclient_retrieve_content:000000000000006c .LBB2
C:\Users\stapi\AppData\Local\Temp\cc4pWpLv.s:312    .text.httpclient_retrieve_content:0000000000000076 .LBE2
C:\Users\stapi\AppData\Local\Temp\cc4pWpLv.s:314    .text.httpclient_retrieve_content:0000000000000076 .LBB3
C:\Users\stapi\AppData\Local\Temp\cc4pWpLv.s:398    .text.httpclient_retrieve_content:000000000000010a .LBE3
C:\Users\stapi\AppData\Local\Temp\cc4pWpLv.s:417    .text.httpclient_retrieve_content:0000000000000124 .LBB16
C:\Users\stapi\AppData\Local\Temp\cc4pWpLv.s:432    .text.httpclient_retrieve_content:0000000000000140 .LBE16
C:\Users\stapi\AppData\Local\Temp\cc4pWpLv.s:441    .text.httpclient_retrieve_content:0000000000000144 .LBB18
C:\Users\stapi\AppData\Local\Temp\cc4pWpLv.s:459    .text.httpclient_retrieve_content:0000000000000168 .LBE18
C:\Users\stapi\AppData\Local\Temp\cc4pWpLv.s:399    .text.httpclient_retrieve_content:000000000000010a .LBB4
C:\Users\stapi\AppData\Local\Temp\cc4pWpLv.s:416    .text.httpclient_retrieve_content:0000000000000124 .LBE4
C:\Users\stapi\AppData\Local\Temp\cc4pWpLv.s:433    .text.httpclient_retrieve_content:0000000000000140 .LBB17
C:\Users\stapi\AppData\Local\Temp\cc4pWpLv.s:440    .text.httpclient_retrieve_content:0000000000000144 .LBE17
C:\Users\stapi\AppData\Local\Temp\cc4pWpLv.s:460    .text.httpclient_retrieve_content:0000000000000168 .LBB19
C:\Users\stapi\AppData\Local\Temp\cc4pWpLv.s:466    .text.httpclient_retrieve_content:000000000000016c .LBE19
C:\Users\stapi\AppData\Local\Temp\cc4pWpLv.s:472    .text.httpclient_retrieve_content:000000000000016e .LBB20
C:\Users\stapi\AppData\Local\Temp\cc4pWpLv.s:479    .text.httpclient_retrieve_content:0000000000000170 .LBE20
C:\Users\stapi\AppData\Local\Temp\cc4pWpLv.s:481    .text.httpclient_retrieve_content:0000000000000170 .LBB21
C:\Users\stapi\AppData\Local\Temp\cc4pWpLv.s:591    .text.httpclient_retrieve_content:00000000000001f2 .LBE21
C:\Users\stapi\AppData\Local\Temp\cc4pWpLv.s:615    .text.httpclient_retrieve_content:00000000000001fe .LBB22
C:\Users\stapi\AppData\Local\Temp\cc4pWpLv.s:894    .text.httpclient_retrieve_content:00000000000003e0 .LBE22
C:\Users\stapi\AppData\Local\Temp\cc4pWpLv.s:900    .text.httpclient_retrieve_content:00000000000003e2 .LBB23
C:\Users\stapi\AppData\Local\Temp\cc4pWpLv.s:1128   .text.httpclient_retrieve_content:0000000000000568 .LBE23
C:\Users\stapi\AppData\Local\Temp\cc4pWpLv.s:400    .text.httpclient_retrieve_content:000000000000010a .LBB5
C:\Users\stapi\AppData\Local\Temp\cc4pWpLv.s:415    .text.httpclient_retrieve_content:0000000000000124 .LBE5
C:\Users\stapi\AppData\Local\Temp\cc4pWpLv.s:616    .text.httpclient_retrieve_content:00000000000001fe .LBB10
C:\Users\stapi\AppData\Local\Temp\cc4pWpLv.s:623    .text.httpclient_retrieve_content:0000000000000204 .LBE10
C:\Users\stapi\AppData\Local\Temp\cc4pWpLv.s:659    .text.httpclient_retrieve_content:0000000000000240 .LBB11
C:\Users\stapi\AppData\Local\Temp\cc4pWpLv.s:812    .text.httpclient_retrieve_content:000000000000034e .LBE11
C:\Users\stapi\AppData\Local\Temp\cc4pWpLv.s:945    .text.httpclient_retrieve_content:0000000000000424 .LBB14
C:\Users\stapi\AppData\Local\Temp\cc4pWpLv.s:950    .text.httpclient_retrieve_content:0000000000000428 .LBE14
C:\Users\stapi\AppData\Local\Temp\cc4pWpLv.s:473    .text.httpclient_retrieve_content:000000000000016e .LBB6
C:\Users\stapi\AppData\Local\Temp\cc4pWpLv.s:478    .text.httpclient_retrieve_content:0000000000000170 .LBE6
C:\Users\stapi\AppData\Local\Temp\cc4pWpLv.s:492    .text.httpclient_retrieve_content:0000000000000180 .LBB9
C:\Users\stapi\AppData\Local\Temp\cc4pWpLv.s:590    .text.httpclient_retrieve_content:00000000000001f2 .LBE9
C:\Users\stapi\AppData\Local\Temp\cc4pWpLv.s:901    .text.httpclient_retrieve_content:00000000000003e2 .LBB13
C:\Users\stapi\AppData\Local\Temp\cc4pWpLv.s:923    .text.httpclient_retrieve_content:00000000000003fc .LBE13
C:\Users\stapi\AppData\Local\Temp\cc4pWpLv.s:1052   .text.httpclient_retrieve_content:00000000000004de .LBB15
C:\Users\stapi\AppData\Local\Temp\cc4pWpLv.s:1119   .text.httpclient_retrieve_content:000000000000055c .LBE15
C:\Users\stapi\AppData\Local\Temp\cc4pWpLv.s:499    .text.httpclient_retrieve_content:0000000000000188 .LBB7
C:\Users\stapi\AppData\Local\Temp\cc4pWpLv.s:503    .text.httpclient_retrieve_content:000000000000018a .LBE7
C:\Users\stapi\AppData\Local\Temp\cc4pWpLv.s:556    .text.httpclient_retrieve_content:00000000000001c2 .LBB8
C:\Users\stapi\AppData\Local\Temp\cc4pWpLv.s:589    .text.httpclient_retrieve_content:00000000000001f2 .LBE8
C:\Users\stapi\AppData\Local\Temp\cc4pWpLv.s:1560   .text.httpclient_send_auth:00000000000000c0 .LBE26
C:\Users\stapi\AppData\Local\Temp\cc4pWpLv.s:1617   .text.httpclient_send_auth:0000000000000124 .LBB29
C:\Users\stapi\AppData\Local\Temp\cc4pWpLv.s:1682   .text.httpclient_send_auth:0000000000000162 .LBE29
C:\Users\stapi\AppData\Local\Temp\cc4pWpLv.s:1934   .text.httpclient_send_header:000000000000011e .LBE32
C:\Users\stapi\AppData\Local\Temp\cc4pWpLv.s:1936   .text.httpclient_send_header:000000000000011e .LBB38
C:\Users\stapi\AppData\Local\Temp\cc4pWpLv.s:1943   .text.httpclient_send_header:0000000000000120 .LBE38
C:\Users\stapi\AppData\Local\Temp\cc4pWpLv.s:2042   .text.httpclient_send_header:00000000000001be .LBB39
C:\Users\stapi\AppData\Local\Temp\cc4pWpLv.s:2123   .text.httpclient_send_header:000000000000024a .LBE39
C:\Users\stapi\AppData\Local\Temp\cc4pWpLv.s:2125   .text.httpclient_send_header:000000000000024a .LBB40
C:\Users\stapi\AppData\Local\Temp\cc4pWpLv.s:2231   .text.httpclient_send_header:00000000000002f4 .LBE40
C:\Users\stapi\AppData\Local\Temp\cc4pWpLv.s:2239   .text.httpclient_send_header:0000000000000306 .LBB41
C:\Users\stapi\AppData\Local\Temp\cc4pWpLv.s:2246   .text.httpclient_send_header:000000000000030a .LBE41
C:\Users\stapi\AppData\Local\Temp\cc4pWpLv.s:2682   .text.httpclient_connect:000000000000000a .LBE44
C:\Users\stapi\AppData\Local\Temp\cc4pWpLv.s:2687   .text.httpclient_connect:000000000000000e .LBB47
C:\Users\stapi\AppData\Local\Temp\cc4pWpLv.s:2719   .text.httpclient_connect:0000000000000046 .LBE47
C:\Users\stapi\AppData\Local\Temp\cc4pWpLv.s:3023   .text.httpclient_recv_response:00000000000000c2 .LBE52
C:\Users\stapi\AppData\Local\Temp\cc4pWpLv.s:3077   .text.httpclient_recv_response:000000000000012c .LBB58
C:\Users\stapi\AppData\Local\Temp\cc4pWpLv.s:3414   .text.httpclient_recv_response:000000000000038a .LBE58
C:\Users\stapi\AppData\Local\Temp\cc4pWpLv.s:3204   .text.httpclient_recv_response:000000000000022a .LBB54
C:\Users\stapi\AppData\Local\Temp\cc4pWpLv.s:3213   .text.httpclient_recv_response:0000000000000234 .LBE54
C:\Users\stapi\AppData\Local\Temp\cc4pWpLv.s:3275   .text.httpclient_recv_response:00000000000002a2 .LBB55
C:\Users\stapi\AppData\Local\Temp\cc4pWpLv.s:3336   .text.httpclient_recv_response:0000000000000306 .LBE55

UNDEFINED SYMBOLS
__riscv_save_4
iotx_time_init
utils_time_countdown_ms
iotx_time_left
LITE_syslog
__riscv_restore_4
HAL_Printf
__riscv_save_12
memcpy
__riscv_restore_12
memmove
strtoul
__riscv_save_3
strstr
__riscv_restore_3
strchr
__riscv_save_10
strlen
__riscv_restore_10
__riscv_save_5
sprintf
__riscv_restore_5
__riscv_save_11
LITE_malloc_internal
memset
LITE_free_internal
__riscv_restore_11
HAL_Snprintf
log_multi_line_internal
__riscv_save_0
__riscv_restore_0
atoi
memcmp
__riscv_save_1
__riscv_restore_1
__riscv_save_6
iotx_net_init
iotx_state_event
__riscv_restore_6
