   1              		.file	"utils_md5.c"
   2              		.option nopic
   3              		.attribute arch, "rv32i2p0_m2p0_a2p0_f2p0_c2p0_b_p0p94"
   4              		.attribute unaligned_access, 0
   5              		.attribute stack_align, 16
   6              		.text
   7              	.Ltext0:
   8              		.cfi_sections	.debug_frame
   9              		.section	.text.utils_md5_init,"ax",@progbits
  10              		.align	1
  11              		.globl	utils_md5_init
  13              	utils_md5_init:
  14              	.LFB5:
  15              		.file 1 "C:/Users/stapi/OneDrive/Desktop/GD32VW553/V1_MQTT_OK/GD32VW55X_Wifi_BLE_SDK/GD32VW55x_REL
   1:C:/Users/stapi/OneDrive/Desktop/GD32VW553/V1_MQTT_OK/GD32VW55X_Wifi_BLE_SDK/GD32VW55x_RELEASE_V1.0.2/MSDK/cloud/alicloud/src/infra/utils/digest\utils_md5.c **** /*
   2:C:/Users/stapi/OneDrive/Desktop/GD32VW553/V1_MQTT_OK/GD32VW55X_Wifi_BLE_SDK/GD32VW55x_RELEASE_V1.0.2/MSDK/cloud/alicloud/src/infra/utils/digest\utils_md5.c ****  * Copyright (C) 2015-2018 Alibaba Group Holding Limited
   3:C:/Users/stapi/OneDrive/Desktop/GD32VW553/V1_MQTT_OK/GD32VW55X_Wifi_BLE_SDK/GD32VW55x_RELEASE_V1.0.2/MSDK/cloud/alicloud/src/infra/utils/digest\utils_md5.c ****  */
   4:C:/Users/stapi/OneDrive/Desktop/GD32VW553/V1_MQTT_OK/GD32VW55X_Wifi_BLE_SDK/GD32VW55x_RELEASE_V1.0.2/MSDK/cloud/alicloud/src/infra/utils/digest\utils_md5.c **** 
   5:C:/Users/stapi/OneDrive/Desktop/GD32VW553/V1_MQTT_OK/GD32VW55X_Wifi_BLE_SDK/GD32VW55x_RELEASE_V1.0.2/MSDK/cloud/alicloud/src/infra/utils/digest\utils_md5.c **** 
   6:C:/Users/stapi/OneDrive/Desktop/GD32VW553/V1_MQTT_OK/GD32VW55X_Wifi_BLE_SDK/GD32VW55x_RELEASE_V1.0.2/MSDK/cloud/alicloud/src/infra/utils/digest\utils_md5.c **** 
   7:C:/Users/stapi/OneDrive/Desktop/GD32VW553/V1_MQTT_OK/GD32VW55X_Wifi_BLE_SDK/GD32VW55x_RELEASE_V1.0.2/MSDK/cloud/alicloud/src/infra/utils/digest\utils_md5.c **** 
   8:C:/Users/stapi/OneDrive/Desktop/GD32VW553/V1_MQTT_OK/GD32VW55X_Wifi_BLE_SDK/GD32VW55x_RELEASE_V1.0.2/MSDK/cloud/alicloud/src/infra/utils/digest\utils_md5.c **** #include <stdlib.h>
   9:C:/Users/stapi/OneDrive/Desktop/GD32VW553/V1_MQTT_OK/GD32VW55X_Wifi_BLE_SDK/GD32VW55x_RELEASE_V1.0.2/MSDK/cloud/alicloud/src/infra/utils/digest\utils_md5.c **** #include <string.h>
  10:C:/Users/stapi/OneDrive/Desktop/GD32VW553/V1_MQTT_OK/GD32VW55X_Wifi_BLE_SDK/GD32VW55x_RELEASE_V1.0.2/MSDK/cloud/alicloud/src/infra/utils/digest\utils_md5.c **** #include "iot_import.h"
  11:C:/Users/stapi/OneDrive/Desktop/GD32VW553/V1_MQTT_OK/GD32VW55X_Wifi_BLE_SDK/GD32VW55x_RELEASE_V1.0.2/MSDK/cloud/alicloud/src/infra/utils/digest\utils_md5.c **** #include "iot_export.h"
  12:C:/Users/stapi/OneDrive/Desktop/GD32VW553/V1_MQTT_OK/GD32VW55X_Wifi_BLE_SDK/GD32VW55x_RELEASE_V1.0.2/MSDK/cloud/alicloud/src/infra/utils/digest\utils_md5.c **** #include "iotx_log.h"
  13:C:/Users/stapi/OneDrive/Desktop/GD32VW553/V1_MQTT_OK/GD32VW55X_Wifi_BLE_SDK/GD32VW55x_RELEASE_V1.0.2/MSDK/cloud/alicloud/src/infra/utils/digest\utils_md5.c **** #include "utils_md5.h"
  14:C:/Users/stapi/OneDrive/Desktop/GD32VW553/V1_MQTT_OK/GD32VW55X_Wifi_BLE_SDK/GD32VW55x_RELEASE_V1.0.2/MSDK/cloud/alicloud/src/infra/utils/digest\utils_md5.c **** 
  15:C:/Users/stapi/OneDrive/Desktop/GD32VW553/V1_MQTT_OK/GD32VW55X_Wifi_BLE_SDK/GD32VW55x_RELEASE_V1.0.2/MSDK/cloud/alicloud/src/infra/utils/digest\utils_md5.c **** #ifndef BUILD_AOS
  16:C:/Users/stapi/OneDrive/Desktop/GD32VW553/V1_MQTT_OK/GD32VW55X_Wifi_BLE_SDK/GD32VW55x_RELEASE_V1.0.2/MSDK/cloud/alicloud/src/infra/utils/digest\utils_md5.c **** 
  17:C:/Users/stapi/OneDrive/Desktop/GD32VW553/V1_MQTT_OK/GD32VW55X_Wifi_BLE_SDK/GD32VW55x_RELEASE_V1.0.2/MSDK/cloud/alicloud/src/infra/utils/digest\utils_md5.c **** #define MD5_DIGEST_SIZE 16
  18:C:/Users/stapi/OneDrive/Desktop/GD32VW553/V1_MQTT_OK/GD32VW55X_Wifi_BLE_SDK/GD32VW55x_RELEASE_V1.0.2/MSDK/cloud/alicloud/src/infra/utils/digest\utils_md5.c **** 
  19:C:/Users/stapi/OneDrive/Desktop/GD32VW553/V1_MQTT_OK/GD32VW55X_Wifi_BLE_SDK/GD32VW55x_RELEASE_V1.0.2/MSDK/cloud/alicloud/src/infra/utils/digest\utils_md5.c **** 
  20:C:/Users/stapi/OneDrive/Desktop/GD32VW553/V1_MQTT_OK/GD32VW55X_Wifi_BLE_SDK/GD32VW55x_RELEASE_V1.0.2/MSDK/cloud/alicloud/src/infra/utils/digest\utils_md5.c **** /* Implementation that should never be optimized out by the compiler */
  21:C:/Users/stapi/OneDrive/Desktop/GD32VW553/V1_MQTT_OK/GD32VW55X_Wifi_BLE_SDK/GD32VW55x_RELEASE_V1.0.2/MSDK/cloud/alicloud/src/infra/utils/digest\utils_md5.c **** static void utils_md5_zeroize(void *v, size_t n)
  22:C:/Users/stapi/OneDrive/Desktop/GD32VW553/V1_MQTT_OK/GD32VW55X_Wifi_BLE_SDK/GD32VW55x_RELEASE_V1.0.2/MSDK/cloud/alicloud/src/infra/utils/digest\utils_md5.c **** {
  23:C:/Users/stapi/OneDrive/Desktop/GD32VW553/V1_MQTT_OK/GD32VW55X_Wifi_BLE_SDK/GD32VW55x_RELEASE_V1.0.2/MSDK/cloud/alicloud/src/infra/utils/digest\utils_md5.c ****     volatile unsigned char *p = v;
  24:C:/Users/stapi/OneDrive/Desktop/GD32VW553/V1_MQTT_OK/GD32VW55X_Wifi_BLE_SDK/GD32VW55x_RELEASE_V1.0.2/MSDK/cloud/alicloud/src/infra/utils/digest\utils_md5.c ****     while (n--) {
  25:C:/Users/stapi/OneDrive/Desktop/GD32VW553/V1_MQTT_OK/GD32VW55X_Wifi_BLE_SDK/GD32VW55x_RELEASE_V1.0.2/MSDK/cloud/alicloud/src/infra/utils/digest\utils_md5.c ****         *p++ = 0;
  26:C:/Users/stapi/OneDrive/Desktop/GD32VW553/V1_MQTT_OK/GD32VW55X_Wifi_BLE_SDK/GD32VW55x_RELEASE_V1.0.2/MSDK/cloud/alicloud/src/infra/utils/digest\utils_md5.c ****     }
  27:C:/Users/stapi/OneDrive/Desktop/GD32VW553/V1_MQTT_OK/GD32VW55X_Wifi_BLE_SDK/GD32VW55x_RELEASE_V1.0.2/MSDK/cloud/alicloud/src/infra/utils/digest\utils_md5.c **** }
  28:C:/Users/stapi/OneDrive/Desktop/GD32VW553/V1_MQTT_OK/GD32VW55X_Wifi_BLE_SDK/GD32VW55x_RELEASE_V1.0.2/MSDK/cloud/alicloud/src/infra/utils/digest\utils_md5.c **** 
  29:C:/Users/stapi/OneDrive/Desktop/GD32VW553/V1_MQTT_OK/GD32VW55X_Wifi_BLE_SDK/GD32VW55x_RELEASE_V1.0.2/MSDK/cloud/alicloud/src/infra/utils/digest\utils_md5.c **** /*
  30:C:/Users/stapi/OneDrive/Desktop/GD32VW553/V1_MQTT_OK/GD32VW55X_Wifi_BLE_SDK/GD32VW55x_RELEASE_V1.0.2/MSDK/cloud/alicloud/src/infra/utils/digest\utils_md5.c ****  * 32-bit integer manipulation macros (little endian)
  31:C:/Users/stapi/OneDrive/Desktop/GD32VW553/V1_MQTT_OK/GD32VW55X_Wifi_BLE_SDK/GD32VW55x_RELEASE_V1.0.2/MSDK/cloud/alicloud/src/infra/utils/digest\utils_md5.c ****  */
  32:C:/Users/stapi/OneDrive/Desktop/GD32VW553/V1_MQTT_OK/GD32VW55X_Wifi_BLE_SDK/GD32VW55x_RELEASE_V1.0.2/MSDK/cloud/alicloud/src/infra/utils/digest\utils_md5.c **** #ifndef IOT_MD5_GET_UINT32_LE
  33:C:/Users/stapi/OneDrive/Desktop/GD32VW553/V1_MQTT_OK/GD32VW55X_Wifi_BLE_SDK/GD32VW55x_RELEASE_V1.0.2/MSDK/cloud/alicloud/src/infra/utils/digest\utils_md5.c **** #define IOT_MD5_GET_UINT32_LE(n,b,i)                            \
  34:C:/Users/stapi/OneDrive/Desktop/GD32VW553/V1_MQTT_OK/GD32VW55X_Wifi_BLE_SDK/GD32VW55x_RELEASE_V1.0.2/MSDK/cloud/alicloud/src/infra/utils/digest\utils_md5.c ****     {                                                       \
  35:C:/Users/stapi/OneDrive/Desktop/GD32VW553/V1_MQTT_OK/GD32VW55X_Wifi_BLE_SDK/GD32VW55x_RELEASE_V1.0.2/MSDK/cloud/alicloud/src/infra/utils/digest\utils_md5.c ****         (n) = ( (uint32_t) (b)[(i)    ]       )             \
  36:C:/Users/stapi/OneDrive/Desktop/GD32VW553/V1_MQTT_OK/GD32VW55X_Wifi_BLE_SDK/GD32VW55x_RELEASE_V1.0.2/MSDK/cloud/alicloud/src/infra/utils/digest\utils_md5.c ****               | ( (uint32_t) (b)[(i) + 1] <<  8 )             \
  37:C:/Users/stapi/OneDrive/Desktop/GD32VW553/V1_MQTT_OK/GD32VW55X_Wifi_BLE_SDK/GD32VW55x_RELEASE_V1.0.2/MSDK/cloud/alicloud/src/infra/utils/digest\utils_md5.c ****               | ( (uint32_t) (b)[(i) + 2] << 16 )             \
  38:C:/Users/stapi/OneDrive/Desktop/GD32VW553/V1_MQTT_OK/GD32VW55X_Wifi_BLE_SDK/GD32VW55x_RELEASE_V1.0.2/MSDK/cloud/alicloud/src/infra/utils/digest\utils_md5.c ****               | ( (uint32_t) (b)[(i) + 3] << 24 );            \
  39:C:/Users/stapi/OneDrive/Desktop/GD32VW553/V1_MQTT_OK/GD32VW55X_Wifi_BLE_SDK/GD32VW55x_RELEASE_V1.0.2/MSDK/cloud/alicloud/src/infra/utils/digest\utils_md5.c ****     }
  40:C:/Users/stapi/OneDrive/Desktop/GD32VW553/V1_MQTT_OK/GD32VW55X_Wifi_BLE_SDK/GD32VW55x_RELEASE_V1.0.2/MSDK/cloud/alicloud/src/infra/utils/digest\utils_md5.c **** #endif
  41:C:/Users/stapi/OneDrive/Desktop/GD32VW553/V1_MQTT_OK/GD32VW55X_Wifi_BLE_SDK/GD32VW55x_RELEASE_V1.0.2/MSDK/cloud/alicloud/src/infra/utils/digest\utils_md5.c **** 
  42:C:/Users/stapi/OneDrive/Desktop/GD32VW553/V1_MQTT_OK/GD32VW55X_Wifi_BLE_SDK/GD32VW55x_RELEASE_V1.0.2/MSDK/cloud/alicloud/src/infra/utils/digest\utils_md5.c **** #ifndef IOT_MD5_PUT_UINT32_LE
  43:C:/Users/stapi/OneDrive/Desktop/GD32VW553/V1_MQTT_OK/GD32VW55X_Wifi_BLE_SDK/GD32VW55x_RELEASE_V1.0.2/MSDK/cloud/alicloud/src/infra/utils/digest\utils_md5.c **** #define IOT_MD5_PUT_UINT32_LE(n,b,i)                                    \
  44:C:/Users/stapi/OneDrive/Desktop/GD32VW553/V1_MQTT_OK/GD32VW55X_Wifi_BLE_SDK/GD32VW55x_RELEASE_V1.0.2/MSDK/cloud/alicloud/src/infra/utils/digest\utils_md5.c ****     {                                                               \
  45:C:/Users/stapi/OneDrive/Desktop/GD32VW553/V1_MQTT_OK/GD32VW55X_Wifi_BLE_SDK/GD32VW55x_RELEASE_V1.0.2/MSDK/cloud/alicloud/src/infra/utils/digest\utils_md5.c ****         (b)[(i)    ] = (unsigned char) ( ( (n)       ) & 0xFF );    \
  46:C:/Users/stapi/OneDrive/Desktop/GD32VW553/V1_MQTT_OK/GD32VW55X_Wifi_BLE_SDK/GD32VW55x_RELEASE_V1.0.2/MSDK/cloud/alicloud/src/infra/utils/digest\utils_md5.c ****         (b)[(i) + 1] = (unsigned char) ( ( (n) >>  8 ) & 0xFF );    \
  47:C:/Users/stapi/OneDrive/Desktop/GD32VW553/V1_MQTT_OK/GD32VW55X_Wifi_BLE_SDK/GD32VW55x_RELEASE_V1.0.2/MSDK/cloud/alicloud/src/infra/utils/digest\utils_md5.c ****         (b)[(i) + 2] = (unsigned char) ( ( (n) >> 16 ) & 0xFF );    \
  48:C:/Users/stapi/OneDrive/Desktop/GD32VW553/V1_MQTT_OK/GD32VW55X_Wifi_BLE_SDK/GD32VW55x_RELEASE_V1.0.2/MSDK/cloud/alicloud/src/infra/utils/digest\utils_md5.c ****         (b)[(i) + 3] = (unsigned char) ( ( (n) >> 24 ) & 0xFF );    \
  49:C:/Users/stapi/OneDrive/Desktop/GD32VW553/V1_MQTT_OK/GD32VW55X_Wifi_BLE_SDK/GD32VW55x_RELEASE_V1.0.2/MSDK/cloud/alicloud/src/infra/utils/digest\utils_md5.c ****     }
  50:C:/Users/stapi/OneDrive/Desktop/GD32VW553/V1_MQTT_OK/GD32VW55X_Wifi_BLE_SDK/GD32VW55x_RELEASE_V1.0.2/MSDK/cloud/alicloud/src/infra/utils/digest\utils_md5.c **** #endif
  51:C:/Users/stapi/OneDrive/Desktop/GD32VW553/V1_MQTT_OK/GD32VW55X_Wifi_BLE_SDK/GD32VW55x_RELEASE_V1.0.2/MSDK/cloud/alicloud/src/infra/utils/digest\utils_md5.c **** 
  52:C:/Users/stapi/OneDrive/Desktop/GD32VW553/V1_MQTT_OK/GD32VW55X_Wifi_BLE_SDK/GD32VW55x_RELEASE_V1.0.2/MSDK/cloud/alicloud/src/infra/utils/digest\utils_md5.c **** void utils_md5_init(iot_md5_context *ctx)
  53:C:/Users/stapi/OneDrive/Desktop/GD32VW553/V1_MQTT_OK/GD32VW55X_Wifi_BLE_SDK/GD32VW55x_RELEASE_V1.0.2/MSDK/cloud/alicloud/src/infra/utils/digest\utils_md5.c **** {
  16              		.loc 1 53 1
  17              		.cfi_startproc
  18              	.LVL0:
  54:C:/Users/stapi/OneDrive/Desktop/GD32VW553/V1_MQTT_OK/GD32VW55X_Wifi_BLE_SDK/GD32VW55x_RELEASE_V1.0.2/MSDK/cloud/alicloud/src/infra/utils/digest\utils_md5.c ****     memset(ctx, 0, sizeof(iot_md5_context));
  19              		.loc 1 54 5
  20 0000 13068005 		li	a2,88
  21 0004 8145     		li	a1,0
  22 0006 17030000 		tail	memset
  22      67000300 
  23              	.LVL1:
  24              		.cfi_endproc
  25              	.LFE5:
  27              		.section	.text.utils_md5_free,"ax",@progbits
  28              		.align	1
  29              		.globl	utils_md5_free
  31              	utils_md5_free:
  32              	.LFB6:
  55:C:/Users/stapi/OneDrive/Desktop/GD32VW553/V1_MQTT_OK/GD32VW55X_Wifi_BLE_SDK/GD32VW55x_RELEASE_V1.0.2/MSDK/cloud/alicloud/src/infra/utils/digest\utils_md5.c **** }
  56:C:/Users/stapi/OneDrive/Desktop/GD32VW553/V1_MQTT_OK/GD32VW55X_Wifi_BLE_SDK/GD32VW55x_RELEASE_V1.0.2/MSDK/cloud/alicloud/src/infra/utils/digest\utils_md5.c **** 
  57:C:/Users/stapi/OneDrive/Desktop/GD32VW553/V1_MQTT_OK/GD32VW55X_Wifi_BLE_SDK/GD32VW55x_RELEASE_V1.0.2/MSDK/cloud/alicloud/src/infra/utils/digest\utils_md5.c **** void utils_md5_free(iot_md5_context *ctx)
  58:C:/Users/stapi/OneDrive/Desktop/GD32VW553/V1_MQTT_OK/GD32VW55X_Wifi_BLE_SDK/GD32VW55x_RELEASE_V1.0.2/MSDK/cloud/alicloud/src/infra/utils/digest\utils_md5.c **** {
  33              		.loc 1 58 1
  34              		.cfi_startproc
  35              	.LVL2:
  59:C:/Users/stapi/OneDrive/Desktop/GD32VW553/V1_MQTT_OK/GD32VW55X_Wifi_BLE_SDK/GD32VW55x_RELEASE_V1.0.2/MSDK/cloud/alicloud/src/infra/utils/digest\utils_md5.c ****     if (ctx == NULL) {
  36              		.loc 1 59 5
  37 0000 93078505 		addi	a5,a0,88
  38              		.loc 1 59 8 is_stmt 0
  39 0004 09E5     		bne	a0,zero,.L5
  40              	.LVL3:
  41              	.L3:
  60:C:/Users/stapi/OneDrive/Desktop/GD32VW553/V1_MQTT_OK/GD32VW55X_Wifi_BLE_SDK/GD32VW55x_RELEASE_V1.0.2/MSDK/cloud/alicloud/src/infra/utils/digest\utils_md5.c ****         return;
  61:C:/Users/stapi/OneDrive/Desktop/GD32VW553/V1_MQTT_OK/GD32VW55X_Wifi_BLE_SDK/GD32VW55x_RELEASE_V1.0.2/MSDK/cloud/alicloud/src/infra/utils/digest\utils_md5.c ****     }
  62:C:/Users/stapi/OneDrive/Desktop/GD32VW553/V1_MQTT_OK/GD32VW55X_Wifi_BLE_SDK/GD32VW55x_RELEASE_V1.0.2/MSDK/cloud/alicloud/src/infra/utils/digest\utils_md5.c **** 
  63:C:/Users/stapi/OneDrive/Desktop/GD32VW553/V1_MQTT_OK/GD32VW55X_Wifi_BLE_SDK/GD32VW55x_RELEASE_V1.0.2/MSDK/cloud/alicloud/src/infra/utils/digest\utils_md5.c ****     utils_md5_zeroize(ctx, sizeof(iot_md5_context));
  64:C:/Users/stapi/OneDrive/Desktop/GD32VW553/V1_MQTT_OK/GD32VW55X_Wifi_BLE_SDK/GD32VW55x_RELEASE_V1.0.2/MSDK/cloud/alicloud/src/infra/utils/digest\utils_md5.c **** }
  42              		.loc 1 64 1
  43 0006 8280     		ret
  44              	.LVL4:
  45              	.L6:
  46              	.LBB6:
  47              	.LBB7:
  25:C:/Users/stapi/OneDrive/Desktop/GD32VW553/V1_MQTT_OK/GD32VW55X_Wifi_BLE_SDK/GD32VW55x_RELEASE_V1.0.2/MSDK/cloud/alicloud/src/infra/utils/digest\utils_md5.c ****     }
  48              		.loc 1 25 9 is_stmt 1
  25:C:/Users/stapi/OneDrive/Desktop/GD32VW553/V1_MQTT_OK/GD32VW55X_Wifi_BLE_SDK/GD32VW55x_RELEASE_V1.0.2/MSDK/cloud/alicloud/src/infra/utils/digest\utils_md5.c ****     }
  49              		.loc 1 25 14 is_stmt 0
  50 0008 23000500 		sb	zero,0(a0)
  25:C:/Users/stapi/OneDrive/Desktop/GD32VW553/V1_MQTT_OK/GD32VW55X_Wifi_BLE_SDK/GD32VW55x_RELEASE_V1.0.2/MSDK/cloud/alicloud/src/infra/utils/digest\utils_md5.c ****     }
  51              		.loc 1 25 11
  52 000c 0505     		addi	a0,a0,1
  53              	.LVL5:
  54              	.L5:
  24:C:/Users/stapi/OneDrive/Desktop/GD32VW553/V1_MQTT_OK/GD32VW55X_Wifi_BLE_SDK/GD32VW55x_RELEASE_V1.0.2/MSDK/cloud/alicloud/src/infra/utils/digest\utils_md5.c ****         *p++ = 0;
  55              		.loc 1 24 11 is_stmt 1
  56 000e E31DF5FE 		bne	a0,a5,.L6
  57 0012 D5BF     		j	.L3
  58              	.LBE7:
  59              	.LBE6:
  60              		.cfi_endproc
  61              	.LFE6:
  63              		.section	.text.utils_md5_clone,"ax",@progbits
  64              		.align	1
  65              		.globl	utils_md5_clone
  67              	utils_md5_clone:
  68              	.LFB7:
  65:C:/Users/stapi/OneDrive/Desktop/GD32VW553/V1_MQTT_OK/GD32VW55X_Wifi_BLE_SDK/GD32VW55x_RELEASE_V1.0.2/MSDK/cloud/alicloud/src/infra/utils/digest\utils_md5.c **** 
  66:C:/Users/stapi/OneDrive/Desktop/GD32VW553/V1_MQTT_OK/GD32VW55X_Wifi_BLE_SDK/GD32VW55x_RELEASE_V1.0.2/MSDK/cloud/alicloud/src/infra/utils/digest\utils_md5.c **** void utils_md5_clone(iot_md5_context *dst,
  67:C:/Users/stapi/OneDrive/Desktop/GD32VW553/V1_MQTT_OK/GD32VW55X_Wifi_BLE_SDK/GD32VW55x_RELEASE_V1.0.2/MSDK/cloud/alicloud/src/infra/utils/digest\utils_md5.c ****                      const iot_md5_context *src)
  68:C:/Users/stapi/OneDrive/Desktop/GD32VW553/V1_MQTT_OK/GD32VW55X_Wifi_BLE_SDK/GD32VW55x_RELEASE_V1.0.2/MSDK/cloud/alicloud/src/infra/utils/digest\utils_md5.c **** {
  69              		.loc 1 68 1
  70              		.cfi_startproc
  71              	.LVL6:
  69:C:/Users/stapi/OneDrive/Desktop/GD32VW553/V1_MQTT_OK/GD32VW55X_Wifi_BLE_SDK/GD32VW55x_RELEASE_V1.0.2/MSDK/cloud/alicloud/src/infra/utils/digest\utils_md5.c ****     *dst = *src;
  72              		.loc 1 69 5
  73              		.loc 1 69 10 is_stmt 0
  74 0000 13068005 		li	a2,88
  75 0004 17030000 		tail	memcpy
  75      67000300 
  76              	.LVL7:
  77              		.cfi_endproc
  78              	.LFE7:
  80              		.section	.text.utils_md5_starts,"ax",@progbits
  81              		.align	1
  82              		.globl	utils_md5_starts
  84              	utils_md5_starts:
  85              	.LFB8:
  70:C:/Users/stapi/OneDrive/Desktop/GD32VW553/V1_MQTT_OK/GD32VW55X_Wifi_BLE_SDK/GD32VW55x_RELEASE_V1.0.2/MSDK/cloud/alicloud/src/infra/utils/digest\utils_md5.c **** }
  71:C:/Users/stapi/OneDrive/Desktop/GD32VW553/V1_MQTT_OK/GD32VW55X_Wifi_BLE_SDK/GD32VW55x_RELEASE_V1.0.2/MSDK/cloud/alicloud/src/infra/utils/digest\utils_md5.c **** 
  72:C:/Users/stapi/OneDrive/Desktop/GD32VW553/V1_MQTT_OK/GD32VW55X_Wifi_BLE_SDK/GD32VW55x_RELEASE_V1.0.2/MSDK/cloud/alicloud/src/infra/utils/digest\utils_md5.c **** /*
  73:C:/Users/stapi/OneDrive/Desktop/GD32VW553/V1_MQTT_OK/GD32VW55X_Wifi_BLE_SDK/GD32VW55x_RELEASE_V1.0.2/MSDK/cloud/alicloud/src/infra/utils/digest\utils_md5.c ****  * MD5 context setup
  74:C:/Users/stapi/OneDrive/Desktop/GD32VW553/V1_MQTT_OK/GD32VW55X_Wifi_BLE_SDK/GD32VW55x_RELEASE_V1.0.2/MSDK/cloud/alicloud/src/infra/utils/digest\utils_md5.c ****  */
  75:C:/Users/stapi/OneDrive/Desktop/GD32VW553/V1_MQTT_OK/GD32VW55X_Wifi_BLE_SDK/GD32VW55x_RELEASE_V1.0.2/MSDK/cloud/alicloud/src/infra/utils/digest\utils_md5.c **** void utils_md5_starts(iot_md5_context *ctx)
  76:C:/Users/stapi/OneDrive/Desktop/GD32VW553/V1_MQTT_OK/GD32VW55X_Wifi_BLE_SDK/GD32VW55x_RELEASE_V1.0.2/MSDK/cloud/alicloud/src/infra/utils/digest\utils_md5.c **** {
  86              		.loc 1 76 1 is_stmt 1
  87              		.cfi_startproc
  88              	.LVL8:
  77:C:/Users/stapi/OneDrive/Desktop/GD32VW553/V1_MQTT_OK/GD32VW55X_Wifi_BLE_SDK/GD32VW55x_RELEASE_V1.0.2/MSDK/cloud/alicloud/src/infra/utils/digest\utils_md5.c ****     ctx->total[0] = 0;
  89              		.loc 1 77 5
  78:C:/Users/stapi/OneDrive/Desktop/GD32VW553/V1_MQTT_OK/GD32VW55X_Wifi_BLE_SDK/GD32VW55x_RELEASE_V1.0.2/MSDK/cloud/alicloud/src/infra/utils/digest\utils_md5.c ****     ctx->total[1] = 0;
  79:C:/Users/stapi/OneDrive/Desktop/GD32VW553/V1_MQTT_OK/GD32VW55X_Wifi_BLE_SDK/GD32VW55x_RELEASE_V1.0.2/MSDK/cloud/alicloud/src/infra/utils/digest\utils_md5.c **** 
  80:C:/Users/stapi/OneDrive/Desktop/GD32VW553/V1_MQTT_OK/GD32VW55X_Wifi_BLE_SDK/GD32VW55x_RELEASE_V1.0.2/MSDK/cloud/alicloud/src/infra/utils/digest\utils_md5.c ****     ctx->state[0] = 0x67452301;
  90              		.loc 1 80 19 is_stmt 0
  91 0000 B7274567 		li	a5,1732583424
  92 0004 93871730 		addi	a5,a5,769
  93 0008 1CC5     		sw	a5,8(a0)
  81:C:/Users/stapi/OneDrive/Desktop/GD32VW553/V1_MQTT_OK/GD32VW55X_Wifi_BLE_SDK/GD32VW55x_RELEASE_V1.0.2/MSDK/cloud/alicloud/src/infra/utils/digest\utils_md5.c ****     ctx->state[1] = 0xEFCDAB89;
  94              		.loc 1 81 19
  95 000a B7B7CDEF 		li	a5,-271732736
  96 000e 938797B8 		addi	a5,a5,-1143
  97 0012 5CC5     		sw	a5,12(a0)
  82:C:/Users/stapi/OneDrive/Desktop/GD32VW553/V1_MQTT_OK/GD32VW55X_Wifi_BLE_SDK/GD32VW55x_RELEASE_V1.0.2/MSDK/cloud/alicloud/src/infra/utils/digest\utils_md5.c ****     ctx->state[2] = 0x98BADCFE;
  98              		.loc 1 82 19
  99 0014 B7E7BA98 		li	a5,-1732583424
 100 0018 9387E7CF 		addi	a5,a5,-770
 101 001c 1CC9     		sw	a5,16(a0)
  83:C:/Users/stapi/OneDrive/Desktop/GD32VW553/V1_MQTT_OK/GD32VW55X_Wifi_BLE_SDK/GD32VW55x_RELEASE_V1.0.2/MSDK/cloud/alicloud/src/infra/utils/digest\utils_md5.c ****     ctx->state[3] = 0x10325476;
 102              		.loc 1 83 19
 103 001e B7573210 		li	a5,271732736
 104 0022 93876747 		addi	a5,a5,1142
  77:C:/Users/stapi/OneDrive/Desktop/GD32VW553/V1_MQTT_OK/GD32VW55X_Wifi_BLE_SDK/GD32VW55x_RELEASE_V1.0.2/MSDK/cloud/alicloud/src/infra/utils/digest\utils_md5.c ****     ctx->total[1] = 0;
 105              		.loc 1 77 19
 106 0026 23200500 		sw	zero,0(a0)
  78:C:/Users/stapi/OneDrive/Desktop/GD32VW553/V1_MQTT_OK/GD32VW55X_Wifi_BLE_SDK/GD32VW55x_RELEASE_V1.0.2/MSDK/cloud/alicloud/src/infra/utils/digest\utils_md5.c **** 
 107              		.loc 1 78 5 is_stmt 1
  78:C:/Users/stapi/OneDrive/Desktop/GD32VW553/V1_MQTT_OK/GD32VW55X_Wifi_BLE_SDK/GD32VW55x_RELEASE_V1.0.2/MSDK/cloud/alicloud/src/infra/utils/digest\utils_md5.c **** 
 108              		.loc 1 78 19 is_stmt 0
 109 002a 23220500 		sw	zero,4(a0)
  80:C:/Users/stapi/OneDrive/Desktop/GD32VW553/V1_MQTT_OK/GD32VW55X_Wifi_BLE_SDK/GD32VW55x_RELEASE_V1.0.2/MSDK/cloud/alicloud/src/infra/utils/digest\utils_md5.c ****     ctx->state[1] = 0xEFCDAB89;
 110              		.loc 1 80 5 is_stmt 1
  81:C:/Users/stapi/OneDrive/Desktop/GD32VW553/V1_MQTT_OK/GD32VW55X_Wifi_BLE_SDK/GD32VW55x_RELEASE_V1.0.2/MSDK/cloud/alicloud/src/infra/utils/digest\utils_md5.c ****     ctx->state[2] = 0x98BADCFE;
 111              		.loc 1 81 5
  82:C:/Users/stapi/OneDrive/Desktop/GD32VW553/V1_MQTT_OK/GD32VW55X_Wifi_BLE_SDK/GD32VW55x_RELEASE_V1.0.2/MSDK/cloud/alicloud/src/infra/utils/digest\utils_md5.c ****     ctx->state[3] = 0x10325476;
 112              		.loc 1 82 5
 113              		.loc 1 83 5
 114              		.loc 1 83 19 is_stmt 0
 115 002e 5CC9     		sw	a5,20(a0)
  84:C:/Users/stapi/OneDrive/Desktop/GD32VW553/V1_MQTT_OK/GD32VW55X_Wifi_BLE_SDK/GD32VW55x_RELEASE_V1.0.2/MSDK/cloud/alicloud/src/infra/utils/digest\utils_md5.c **** }
 116              		.loc 1 84 1
 117 0030 8280     		ret
 118              		.cfi_endproc
 119              	.LFE8:
 121              		.section	.text.utils_md5_process,"ax",@progbits
 122              		.align	1
 123              		.globl	utils_md5_process
 125              	utils_md5_process:
 126              	.LFB9:
  85:C:/Users/stapi/OneDrive/Desktop/GD32VW553/V1_MQTT_OK/GD32VW55X_Wifi_BLE_SDK/GD32VW55x_RELEASE_V1.0.2/MSDK/cloud/alicloud/src/infra/utils/digest\utils_md5.c **** 
  86:C:/Users/stapi/OneDrive/Desktop/GD32VW553/V1_MQTT_OK/GD32VW55X_Wifi_BLE_SDK/GD32VW55x_RELEASE_V1.0.2/MSDK/cloud/alicloud/src/infra/utils/digest\utils_md5.c **** void utils_md5_process(iot_md5_context *ctx, const unsigned char data[64])
  87:C:/Users/stapi/OneDrive/Desktop/GD32VW553/V1_MQTT_OK/GD32VW55X_Wifi_BLE_SDK/GD32VW55x_RELEASE_V1.0.2/MSDK/cloud/alicloud/src/infra/utils/digest\utils_md5.c **** {
 127              		.loc 1 87 1 is_stmt 1
 128              		.cfi_startproc
 129              	.LVL9:
  88:C:/Users/stapi/OneDrive/Desktop/GD32VW553/V1_MQTT_OK/GD32VW55X_Wifi_BLE_SDK/GD32VW55x_RELEASE_V1.0.2/MSDK/cloud/alicloud/src/infra/utils/digest\utils_md5.c ****     uint32_t X[16], A, B, C, D;
 130              		.loc 1 88 5
  89:C:/Users/stapi/OneDrive/Desktop/GD32VW553/V1_MQTT_OK/GD32VW55X_Wifi_BLE_SDK/GD32VW55x_RELEASE_V1.0.2/MSDK/cloud/alicloud/src/infra/utils/digest\utils_md5.c **** 
  90:C:/Users/stapi/OneDrive/Desktop/GD32VW553/V1_MQTT_OK/GD32VW55X_Wifi_BLE_SDK/GD32VW55x_RELEASE_V1.0.2/MSDK/cloud/alicloud/src/infra/utils/digest\utils_md5.c ****     IOT_MD5_GET_UINT32_LE(X[ 0], data,  0);
 131              		.loc 1 90 5
  87:C:/Users/stapi/OneDrive/Desktop/GD32VW553/V1_MQTT_OK/GD32VW55X_Wifi_BLE_SDK/GD32VW55x_RELEASE_V1.0.2/MSDK/cloud/alicloud/src/infra/utils/digest\utils_md5.c ****     uint32_t X[16], A, B, C, D;
 132              		.loc 1 87 1 is_stmt 0
 133 0000 7971     		addi	sp,sp,-48
 134              		.cfi_def_cfa_offset 48
 135 0002 22D6     		sw	s0,44(sp)
 136 0004 4AD2     		sw	s2,36(sp)
 137 0006 52CE     		sw	s4,28(sp)
 138 0008 56CC     		sw	s5,24(sp)
 139 000a 5EC8     		sw	s7,16(sp)
 140 000c 62C6     		sw	s8,12(sp)
 141 000e 66C4     		sw	s9,8(sp)
 142 0010 6AC2     		sw	s10,4(sp)
 143 0012 6EC0     		sw	s11,0(sp)
 144 0014 26D4     		sw	s1,40(sp)
 145 0016 4ED0     		sw	s3,32(sp)
 146 0018 5ACA     		sw	s6,20(sp)
 147              		.cfi_offset 8, -4
 148              		.cfi_offset 18, -12
 149              		.cfi_offset 20, -20
 150              		.cfi_offset 21, -24
 151              		.cfi_offset 23, -32
 152              		.cfi_offset 24, -36
 153              		.cfi_offset 25, -40
 154              		.cfi_offset 26, -44
 155              		.cfi_offset 27, -48
 156              		.cfi_offset 9, -8
 157              		.cfi_offset 19, -16
 158              		.cfi_offset 22, -28
 159              		.loc 1 90 5
 160 001a 83C71500 		lbu	a5,1(a1)
 161 001e 03CB0500 		lbu	s6,0(a1)
  91:C:/Users/stapi/OneDrive/Desktop/GD32VW553/V1_MQTT_OK/GD32VW55X_Wifi_BLE_SDK/GD32VW55x_RELEASE_V1.0.2/MSDK/cloud/alicloud/src/infra/utils/digest\utils_md5.c ****     IOT_MD5_GET_UINT32_LE(X[ 1], data,  4);
 162              		.loc 1 91 5
 163 0022 83C34500 		lbu	t2,4(a1)
  90:C:/Users/stapi/OneDrive/Desktop/GD32VW553/V1_MQTT_OK/GD32VW55X_Wifi_BLE_SDK/GD32VW55x_RELEASE_V1.0.2/MSDK/cloud/alicloud/src/infra/utils/digest\utils_md5.c ****     IOT_MD5_GET_UINT32_LE(X[ 1], data,  4);
 164              		.loc 1 90 5
 165 0026 A207     		slli	a5,a5,8
 166 0028 B3E76701 		or	a5,a5,s6
 167 002c 03CB2500 		lbu	s6,2(a1)
  92:C:/Users/stapi/OneDrive/Desktop/GD32VW553/V1_MQTT_OK/GD32VW55X_Wifi_BLE_SDK/GD32VW55x_RELEASE_V1.0.2/MSDK/cloud/alicloud/src/infra/utils/digest\utils_md5.c ****     IOT_MD5_GET_UINT32_LE(X[ 2], data,  8);
 168              		.loc 1 92 5
 169 0030 83C88500 		lbu	a7,8(a1)
  93:C:/Users/stapi/OneDrive/Desktop/GD32VW553/V1_MQTT_OK/GD32VW55X_Wifi_BLE_SDK/GD32VW55x_RELEASE_V1.0.2/MSDK/cloud/alicloud/src/infra/utils/digest\utils_md5.c ****     IOT_MD5_GET_UINT32_LE(X[ 3], data, 12);
 170              		.loc 1 93 5
 171 0034 83C4C500 		lbu	s1,12(a1)
  90:C:/Users/stapi/OneDrive/Desktop/GD32VW553/V1_MQTT_OK/GD32VW55X_Wifi_BLE_SDK/GD32VW55x_RELEASE_V1.0.2/MSDK/cloud/alicloud/src/infra/utils/digest\utils_md5.c ****     IOT_MD5_GET_UINT32_LE(X[ 1], data,  4);
 172              		.loc 1 90 5
 173 0038 420B     		slli	s6,s6,16
 174 003a B367FB00 		or	a5,s6,a5
 175 003e 03CB3500 		lbu	s6,3(a1)
  94:C:/Users/stapi/OneDrive/Desktop/GD32VW553/V1_MQTT_OK/GD32VW55X_Wifi_BLE_SDK/GD32VW55x_RELEASE_V1.0.2/MSDK/cloud/alicloud/src/infra/utils/digest\utils_md5.c ****     IOT_MD5_GET_UINT32_LE(X[ 4], data, 16);
 176              		.loc 1 94 5
 177 0042 03CE0501 		lbu	t3,16(a1)
 178 0046 37A66AD7 		li	a2,-680878080
  90:C:/Users/stapi/OneDrive/Desktop/GD32VW553/V1_MQTT_OK/GD32VW55X_Wifi_BLE_SDK/GD32VW55x_RELEASE_V1.0.2/MSDK/cloud/alicloud/src/infra/utils/digest\utils_md5.c ****     IOT_MD5_GET_UINT32_LE(X[ 1], data,  4);
 179              		.loc 1 90 5
 180 004a 620B     		slli	s6,s6,24
 181 004c 336BFB00 		or	s6,s6,a5
 182              	.LVL10:
  90:C:/Users/stapi/OneDrive/Desktop/GD32VW553/V1_MQTT_OK/GD32VW55X_Wifi_BLE_SDK/GD32VW55x_RELEASE_V1.0.2/MSDK/cloud/alicloud/src/infra/utils/digest\utils_md5.c ****     IOT_MD5_GET_UINT32_LE(X[ 1], data,  4);
 183              		.loc 1 90 43 is_stmt 1
  91:C:/Users/stapi/OneDrive/Desktop/GD32VW553/V1_MQTT_OK/GD32VW55X_Wifi_BLE_SDK/GD32VW55x_RELEASE_V1.0.2/MSDK/cloud/alicloud/src/infra/utils/digest\utils_md5.c ****     IOT_MD5_GET_UINT32_LE(X[ 2], data,  8);
 184              		.loc 1 91 5
 185 0050 83C75500 		lbu	a5,5(a1)
 186 0054 13068647 		addi	a2,a2,1144
 187 0058 B7B6C7E8 		li	a3,-389566464
 188 005c A207     		slli	a5,a5,8
 189 005e B3E77700 		or	a5,a5,t2
 190 0062 83C36500 		lbu	t2,6(a1)
 191 0066 93866675 		addi	a3,a3,1878
  95:C:/Users/stapi/OneDrive/Desktop/GD32VW553/V1_MQTT_OK/GD32VW55X_Wifi_BLE_SDK/GD32VW55x_RELEASE_V1.0.2/MSDK/cloud/alicloud/src/infra/utils/digest\utils_md5.c ****     IOT_MD5_GET_UINT32_LE(X[ 5], data, 20);
  96:C:/Users/stapi/OneDrive/Desktop/GD32VW553/V1_MQTT_OK/GD32VW55X_Wifi_BLE_SDK/GD32VW55x_RELEASE_V1.0.2/MSDK/cloud/alicloud/src/infra/utils/digest\utils_md5.c ****     IOT_MD5_GET_UINT32_LE(X[ 6], data, 24);
  97:C:/Users/stapi/OneDrive/Desktop/GD32VW553/V1_MQTT_OK/GD32VW55X_Wifi_BLE_SDK/GD32VW55x_RELEASE_V1.0.2/MSDK/cloud/alicloud/src/infra/utils/digest\utils_md5.c ****     IOT_MD5_GET_UINT32_LE(X[ 7], data, 28);
  98:C:/Users/stapi/OneDrive/Desktop/GD32VW553/V1_MQTT_OK/GD32VW55X_Wifi_BLE_SDK/GD32VW55x_RELEASE_V1.0.2/MSDK/cloud/alicloud/src/infra/utils/digest\utils_md5.c ****     IOT_MD5_GET_UINT32_LE(X[ 8], data, 32);
  99:C:/Users/stapi/OneDrive/Desktop/GD32VW553/V1_MQTT_OK/GD32VW55X_Wifi_BLE_SDK/GD32VW55x_RELEASE_V1.0.2/MSDK/cloud/alicloud/src/infra/utils/digest\utils_md5.c ****     IOT_MD5_GET_UINT32_LE(X[ 9], data, 36);
 100:C:/Users/stapi/OneDrive/Desktop/GD32VW553/V1_MQTT_OK/GD32VW55X_Wifi_BLE_SDK/GD32VW55x_RELEASE_V1.0.2/MSDK/cloud/alicloud/src/infra/utils/digest\utils_md5.c ****     IOT_MD5_GET_UINT32_LE(X[10], data, 40);
 101:C:/Users/stapi/OneDrive/Desktop/GD32VW553/V1_MQTT_OK/GD32VW55X_Wifi_BLE_SDK/GD32VW55x_RELEASE_V1.0.2/MSDK/cloud/alicloud/src/infra/utils/digest\utils_md5.c ****     IOT_MD5_GET_UINT32_LE(X[11], data, 44);
 102:C:/Users/stapi/OneDrive/Desktop/GD32VW553/V1_MQTT_OK/GD32VW55X_Wifi_BLE_SDK/GD32VW55x_RELEASE_V1.0.2/MSDK/cloud/alicloud/src/infra/utils/digest\utils_md5.c ****     IOT_MD5_GET_UINT32_LE(X[12], data, 48);
 103:C:/Users/stapi/OneDrive/Desktop/GD32VW553/V1_MQTT_OK/GD32VW55X_Wifi_BLE_SDK/GD32VW55x_RELEASE_V1.0.2/MSDK/cloud/alicloud/src/infra/utils/digest\utils_md5.c ****     IOT_MD5_GET_UINT32_LE(X[13], data, 52);
 104:C:/Users/stapi/OneDrive/Desktop/GD32VW553/V1_MQTT_OK/GD32VW55X_Wifi_BLE_SDK/GD32VW55x_RELEASE_V1.0.2/MSDK/cloud/alicloud/src/infra/utils/digest\utils_md5.c ****     IOT_MD5_GET_UINT32_LE(X[14], data, 56);
 105:C:/Users/stapi/OneDrive/Desktop/GD32VW553/V1_MQTT_OK/GD32VW55X_Wifi_BLE_SDK/GD32VW55x_RELEASE_V1.0.2/MSDK/cloud/alicloud/src/infra/utils/digest\utils_md5.c ****     IOT_MD5_GET_UINT32_LE(X[15], data, 60);
 106:C:/Users/stapi/OneDrive/Desktop/GD32VW553/V1_MQTT_OK/GD32VW55X_Wifi_BLE_SDK/GD32VW55x_RELEASE_V1.0.2/MSDK/cloud/alicloud/src/infra/utils/digest\utils_md5.c **** 
 107:C:/Users/stapi/OneDrive/Desktop/GD32VW553/V1_MQTT_OK/GD32VW55X_Wifi_BLE_SDK/GD32VW55x_RELEASE_V1.0.2/MSDK/cloud/alicloud/src/infra/utils/digest\utils_md5.c **** #define S(x,n) ((x << n) | ((x & 0xFFFFFFFF) >> (32 - n)))
 108:C:/Users/stapi/OneDrive/Desktop/GD32VW553/V1_MQTT_OK/GD32VW55X_Wifi_BLE_SDK/GD32VW55x_RELEASE_V1.0.2/MSDK/cloud/alicloud/src/infra/utils/digest\utils_md5.c **** 
 109:C:/Users/stapi/OneDrive/Desktop/GD32VW553/V1_MQTT_OK/GD32VW55X_Wifi_BLE_SDK/GD32VW55x_RELEASE_V1.0.2/MSDK/cloud/alicloud/src/infra/utils/digest\utils_md5.c **** #define P(a,b,c,d,k,s,t)                                \
 110:C:/Users/stapi/OneDrive/Desktop/GD32VW553/V1_MQTT_OK/GD32VW55X_Wifi_BLE_SDK/GD32VW55x_RELEASE_V1.0.2/MSDK/cloud/alicloud/src/infra/utils/digest\utils_md5.c ****     {                                                       \
 111:C:/Users/stapi/OneDrive/Desktop/GD32VW553/V1_MQTT_OK/GD32VW55X_Wifi_BLE_SDK/GD32VW55x_RELEASE_V1.0.2/MSDK/cloud/alicloud/src/infra/utils/digest\utils_md5.c ****         a += F(b,c,d) + X[k] + t; a = S(a,s) + b;           \
 112:C:/Users/stapi/OneDrive/Desktop/GD32VW553/V1_MQTT_OK/GD32VW55X_Wifi_BLE_SDK/GD32VW55x_RELEASE_V1.0.2/MSDK/cloud/alicloud/src/infra/utils/digest\utils_md5.c ****     }
 113:C:/Users/stapi/OneDrive/Desktop/GD32VW553/V1_MQTT_OK/GD32VW55X_Wifi_BLE_SDK/GD32VW55x_RELEASE_V1.0.2/MSDK/cloud/alicloud/src/infra/utils/digest\utils_md5.c **** 
 114:C:/Users/stapi/OneDrive/Desktop/GD32VW553/V1_MQTT_OK/GD32VW55X_Wifi_BLE_SDK/GD32VW55x_RELEASE_V1.0.2/MSDK/cloud/alicloud/src/infra/utils/digest\utils_md5.c ****     A = ctx->state[0];
 115:C:/Users/stapi/OneDrive/Desktop/GD32VW553/V1_MQTT_OK/GD32VW55X_Wifi_BLE_SDK/GD32VW55x_RELEASE_V1.0.2/MSDK/cloud/alicloud/src/infra/utils/digest\utils_md5.c ****     B = ctx->state[1];
 116:C:/Users/stapi/OneDrive/Desktop/GD32VW553/V1_MQTT_OK/GD32VW55X_Wifi_BLE_SDK/GD32VW55x_RELEASE_V1.0.2/MSDK/cloud/alicloud/src/infra/utils/digest\utils_md5.c ****     C = ctx->state[2];
 117:C:/Users/stapi/OneDrive/Desktop/GD32VW553/V1_MQTT_OK/GD32VW55X_Wifi_BLE_SDK/GD32VW55x_RELEASE_V1.0.2/MSDK/cloud/alicloud/src/infra/utils/digest\utils_md5.c ****     D = ctx->state[3];
 118:C:/Users/stapi/OneDrive/Desktop/GD32VW553/V1_MQTT_OK/GD32VW55X_Wifi_BLE_SDK/GD32VW55x_RELEASE_V1.0.2/MSDK/cloud/alicloud/src/infra/utils/digest\utils_md5.c **** 
 119:C:/Users/stapi/OneDrive/Desktop/GD32VW553/V1_MQTT_OK/GD32VW55X_Wifi_BLE_SDK/GD32VW55x_RELEASE_V1.0.2/MSDK/cloud/alicloud/src/infra/utils/digest\utils_md5.c **** #define F(x,y,z) (z ^ (x & (y ^ z)))
 120:C:/Users/stapi/OneDrive/Desktop/GD32VW553/V1_MQTT_OK/GD32VW55X_Wifi_BLE_SDK/GD32VW55x_RELEASE_V1.0.2/MSDK/cloud/alicloud/src/infra/utils/digest\utils_md5.c **** 
 121:C:/Users/stapi/OneDrive/Desktop/GD32VW553/V1_MQTT_OK/GD32VW55X_Wifi_BLE_SDK/GD32VW55x_RELEASE_V1.0.2/MSDK/cloud/alicloud/src/infra/utils/digest\utils_md5.c ****     P(A, B, C, D,  0,  7, 0xD76AA478);
 192              		.loc 1 121 5 is_stmt 0
 193 006a 9D4D     		li	s11,7
  91:C:/Users/stapi/OneDrive/Desktop/GD32VW553/V1_MQTT_OK/GD32VW55X_Wifi_BLE_SDK/GD32VW55x_RELEASE_V1.0.2/MSDK/cloud/alicloud/src/infra/utils/digest\utils_md5.c ****     IOT_MD5_GET_UINT32_LE(X[ 2], data,  8);
 194              		.loc 1 91 5
 195 006c C203     		slli	t2,t2,16
 196 006e B3E7F300 		or	a5,t2,a5
 197 0072 83C37500 		lbu	t2,7(a1)
 122:C:/Users/stapi/OneDrive/Desktop/GD32VW553/V1_MQTT_OK/GD32VW55X_Wifi_BLE_SDK/GD32VW55x_RELEASE_V1.0.2/MSDK/cloud/alicloud/src/infra/utils/digest\utils_md5.c ****     P(D, A, B, C,  1, 12, 0xE8C7B756);
 198              		.loc 1 122 5
 199 0076 314D     		li	s10,12
 200 0078 B77C98FD 		li	s9,-40341504
  91:C:/Users/stapi/OneDrive/Desktop/GD32VW553/V1_MQTT_OK/GD32VW55X_Wifi_BLE_SDK/GD32VW55x_RELEASE_V1.0.2/MSDK/cloud/alicloud/src/infra/utils/digest\utils_md5.c ****     IOT_MD5_GET_UINT32_LE(X[ 2], data,  8);
 201              		.loc 1 91 5
 202 007c E203     		slli	t2,t2,24
 203 007e B3E3F300 		or	t2,t2,a5
 204              	.LVL11:
  91:C:/Users/stapi/OneDrive/Desktop/GD32VW553/V1_MQTT_OK/GD32VW55X_Wifi_BLE_SDK/GD32VW55x_RELEASE_V1.0.2/MSDK/cloud/alicloud/src/infra/utils/digest\utils_md5.c ****     IOT_MD5_GET_UINT32_LE(X[ 2], data,  8);
 205              		.loc 1 91 43 is_stmt 1
  92:C:/Users/stapi/OneDrive/Desktop/GD32VW553/V1_MQTT_OK/GD32VW55X_Wifi_BLE_SDK/GD32VW55x_RELEASE_V1.0.2/MSDK/cloud/alicloud/src/infra/utils/digest\utils_md5.c ****     IOT_MD5_GET_UINT32_LE(X[ 3], data, 12);
 206              		.loc 1 92 5
 207 0082 83C79500 		lbu	a5,9(a1)
 208 0086 938C3C19 		addi	s9,s9,403
 209 008a A207     		slli	a5,a5,8
 210 008c B3E71701 		or	a5,a5,a7
 211 0090 83C8A500 		lbu	a7,10(a1)
 212 0094 C208     		slli	a7,a7,16
 213 0096 B3E7F800 		or	a5,a7,a5
 214 009a 83C8B500 		lbu	a7,11(a1)
 215 009e E208     		slli	a7,a7,24
 216 00a0 B3E8F800 		or	a7,a7,a5
 217              	.LVL12:
  92:C:/Users/stapi/OneDrive/Desktop/GD32VW553/V1_MQTT_OK/GD32VW55X_Wifi_BLE_SDK/GD32VW55x_RELEASE_V1.0.2/MSDK/cloud/alicloud/src/infra/utils/digest\utils_md5.c ****     IOT_MD5_GET_UINT32_LE(X[ 3], data, 12);
 218              		.loc 1 92 43
  93:C:/Users/stapi/OneDrive/Desktop/GD32VW553/V1_MQTT_OK/GD32VW55X_Wifi_BLE_SDK/GD32VW55x_RELEASE_V1.0.2/MSDK/cloud/alicloud/src/infra/utils/digest\utils_md5.c ****     IOT_MD5_GET_UINT32_LE(X[ 4], data, 16);
 219              		.loc 1 93 5
 220 00a4 83C7D500 		lbu	a5,13(a1)
 221 00a8 A207     		slli	a5,a5,8
 222 00aa C58F     		or	a5,a5,s1
 223 00ac 83C4E500 		lbu	s1,14(a1)
 224 00b0 C204     		slli	s1,s1,16
 225 00b2 C58F     		or	a5,s1,a5
 226 00b4 83C4F500 		lbu	s1,15(a1)
 227 00b8 E204     		slli	s1,s1,24
 228 00ba DD8C     		or	s1,s1,a5
 229              	.LVL13:
  93:C:/Users/stapi/OneDrive/Desktop/GD32VW553/V1_MQTT_OK/GD32VW55X_Wifi_BLE_SDK/GD32VW55x_RELEASE_V1.0.2/MSDK/cloud/alicloud/src/infra/utils/digest\utils_md5.c ****     IOT_MD5_GET_UINT32_LE(X[ 4], data, 16);
 230              		.loc 1 93 43
  94:C:/Users/stapi/OneDrive/Desktop/GD32VW553/V1_MQTT_OK/GD32VW55X_Wifi_BLE_SDK/GD32VW55x_RELEASE_V1.0.2/MSDK/cloud/alicloud/src/infra/utils/digest\utils_md5.c ****     IOT_MD5_GET_UINT32_LE(X[ 5], data, 20);
 231              		.loc 1 94 5
 232 00bc 83C71501 		lbu	a5,17(a1)
 233 00c0 A207     		slli	a5,a5,8
 234 00c2 B3E7C701 		or	a5,a5,t3
 235 00c6 03CE2501 		lbu	t3,18(a1)
 236 00ca 420E     		slli	t3,t3,16
 237 00cc B367FE00 		or	a5,t3,a5
 238 00d0 03CE3501 		lbu	t3,19(a1)
  95:C:/Users/stapi/OneDrive/Desktop/GD32VW553/V1_MQTT_OK/GD32VW55X_Wifi_BLE_SDK/GD32VW55x_RELEASE_V1.0.2/MSDK/cloud/alicloud/src/infra/utils/digest\utils_md5.c ****     IOT_MD5_GET_UINT32_LE(X[ 6], data, 24);
 239              		.loc 1 95 5 is_stmt 0
 240 00d4 83C94501 		lbu	s3,20(a1)
  96:C:/Users/stapi/OneDrive/Desktop/GD32VW553/V1_MQTT_OK/GD32VW55X_Wifi_BLE_SDK/GD32VW55x_RELEASE_V1.0.2/MSDK/cloud/alicloud/src/infra/utils/digest\utils_md5.c ****     IOT_MD5_GET_UINT32_LE(X[ 7], data, 28);
 241              		.loc 1 96 5
 242 00d8 03CF8501 		lbu	t5,24(a1)
  94:C:/Users/stapi/OneDrive/Desktop/GD32VW553/V1_MQTT_OK/GD32VW55X_Wifi_BLE_SDK/GD32VW55x_RELEASE_V1.0.2/MSDK/cloud/alicloud/src/infra/utils/digest\utils_md5.c ****     IOT_MD5_GET_UINT32_LE(X[ 5], data, 20);
 243              		.loc 1 94 5
 244 00dc 620E     		slli	t3,t3,24
 245 00de 336EFE00 		or	t3,t3,a5
 246              	.LVL14:
  94:C:/Users/stapi/OneDrive/Desktop/GD32VW553/V1_MQTT_OK/GD32VW55X_Wifi_BLE_SDK/GD32VW55x_RELEASE_V1.0.2/MSDK/cloud/alicloud/src/infra/utils/digest\utils_md5.c ****     IOT_MD5_GET_UINT32_LE(X[ 5], data, 20);
 247              		.loc 1 94 43 is_stmt 1
  95:C:/Users/stapi/OneDrive/Desktop/GD32VW553/V1_MQTT_OK/GD32VW55X_Wifi_BLE_SDK/GD32VW55x_RELEASE_V1.0.2/MSDK/cloud/alicloud/src/infra/utils/digest\utils_md5.c ****     IOT_MD5_GET_UINT32_LE(X[ 6], data, 24);
 248              		.loc 1 95 5
 249 00e2 83C75501 		lbu	a5,21(a1)
  97:C:/Users/stapi/OneDrive/Desktop/GD32VW553/V1_MQTT_OK/GD32VW55X_Wifi_BLE_SDK/GD32VW55x_RELEASE_V1.0.2/MSDK/cloud/alicloud/src/infra/utils/digest\utils_md5.c ****     IOT_MD5_GET_UINT32_LE(X[ 8], data, 32);
 250              		.loc 1 97 5 is_stmt 0
 251 00e6 83CAC501 		lbu	s5,28(a1)
  98:C:/Users/stapi/OneDrive/Desktop/GD32VW553/V1_MQTT_OK/GD32VW55X_Wifi_BLE_SDK/GD32VW55x_RELEASE_V1.0.2/MSDK/cloud/alicloud/src/infra/utils/digest\utils_md5.c ****     IOT_MD5_GET_UINT32_LE(X[ 9], data, 36);
 252              		.loc 1 98 5
 253 00ea 83C20502 		lbu	t0,32(a1)
  95:C:/Users/stapi/OneDrive/Desktop/GD32VW553/V1_MQTT_OK/GD32VW55X_Wifi_BLE_SDK/GD32VW55x_RELEASE_V1.0.2/MSDK/cloud/alicloud/src/infra/utils/digest\utils_md5.c ****     IOT_MD5_GET_UINT32_LE(X[ 6], data, 24);
 254              		.loc 1 95 5
 255 00ee A207     		slli	a5,a5,8
 256 00f0 B3E73701 		or	a5,a5,s3
 257 00f4 83C96501 		lbu	s3,22(a1)
  99:C:/Users/stapi/OneDrive/Desktop/GD32VW553/V1_MQTT_OK/GD32VW55X_Wifi_BLE_SDK/GD32VW55x_RELEASE_V1.0.2/MSDK/cloud/alicloud/src/infra/utils/digest\utils_md5.c ****     IOT_MD5_GET_UINT32_LE(X[10], data, 40);
 258              		.loc 1 99 5
 259 00f8 03C84502 		lbu	a6,36(a1)
 100:C:/Users/stapi/OneDrive/Desktop/GD32VW553/V1_MQTT_OK/GD32VW55X_Wifi_BLE_SDK/GD32VW55x_RELEASE_V1.0.2/MSDK/cloud/alicloud/src/infra/utils/digest\utils_md5.c ****     IOT_MD5_GET_UINT32_LE(X[11], data, 44);
 260              		.loc 1 100 5
 261 00fc 03C48502 		lbu	s0,40(a1)
  95:C:/Users/stapi/OneDrive/Desktop/GD32VW553/V1_MQTT_OK/GD32VW55X_Wifi_BLE_SDK/GD32VW55x_RELEASE_V1.0.2/MSDK/cloud/alicloud/src/infra/utils/digest\utils_md5.c ****     IOT_MD5_GET_UINT32_LE(X[ 6], data, 24);
 262              		.loc 1 95 5
 263 0100 C209     		slli	s3,s3,16
 264 0102 B3E7F900 		or	a5,s3,a5
 265 0106 83C97501 		lbu	s3,23(a1)
 101:C:/Users/stapi/OneDrive/Desktop/GD32VW553/V1_MQTT_OK/GD32VW55X_Wifi_BLE_SDK/GD32VW55x_RELEASE_V1.0.2/MSDK/cloud/alicloud/src/infra/utils/digest\utils_md5.c ****     IOT_MD5_GET_UINT32_LE(X[12], data, 48);
 266              		.loc 1 101 5
 267 010a 03C3C502 		lbu	t1,44(a1)
 102:C:/Users/stapi/OneDrive/Desktop/GD32VW553/V1_MQTT_OK/GD32VW55X_Wifi_BLE_SDK/GD32VW55x_RELEASE_V1.0.2/MSDK/cloud/alicloud/src/infra/utils/digest\utils_md5.c ****     IOT_MD5_GET_UINT32_LE(X[13], data, 52);
 268              		.loc 1 102 5
 269 010e 03C90503 		lbu	s2,48(a1)
  95:C:/Users/stapi/OneDrive/Desktop/GD32VW553/V1_MQTT_OK/GD32VW55X_Wifi_BLE_SDK/GD32VW55x_RELEASE_V1.0.2/MSDK/cloud/alicloud/src/infra/utils/digest\utils_md5.c ****     IOT_MD5_GET_UINT32_LE(X[ 6], data, 24);
 270              		.loc 1 95 5
 271 0112 E209     		slli	s3,s3,24
 272 0114 B3E9F900 		or	s3,s3,a5
 273              	.LVL15:
  95:C:/Users/stapi/OneDrive/Desktop/GD32VW553/V1_MQTT_OK/GD32VW55X_Wifi_BLE_SDK/GD32VW55x_RELEASE_V1.0.2/MSDK/cloud/alicloud/src/infra/utils/digest\utils_md5.c ****     IOT_MD5_GET_UINT32_LE(X[ 6], data, 24);
 274              		.loc 1 95 43 is_stmt 1
  96:C:/Users/stapi/OneDrive/Desktop/GD32VW553/V1_MQTT_OK/GD32VW55X_Wifi_BLE_SDK/GD32VW55x_RELEASE_V1.0.2/MSDK/cloud/alicloud/src/infra/utils/digest\utils_md5.c ****     IOT_MD5_GET_UINT32_LE(X[ 7], data, 28);
 275              		.loc 1 96 5
 276 0118 83C79501 		lbu	a5,25(a1)
 277 011c A207     		slli	a5,a5,8
 278 011e B3E7E701 		or	a5,a5,t5
 279 0122 03CFA501 		lbu	t5,26(a1)
 280 0126 420F     		slli	t5,t5,16
 281 0128 B367FF00 		or	a5,t5,a5
 282 012c 03CFB501 		lbu	t5,27(a1)
 283 0130 620F     		slli	t5,t5,24
 284 0132 336FFF00 		or	t5,t5,a5
 285              	.LVL16:
  96:C:/Users/stapi/OneDrive/Desktop/GD32VW553/V1_MQTT_OK/GD32VW55X_Wifi_BLE_SDK/GD32VW55x_RELEASE_V1.0.2/MSDK/cloud/alicloud/src/infra/utils/digest\utils_md5.c ****     IOT_MD5_GET_UINT32_LE(X[ 7], data, 28);
 286              		.loc 1 96 43
  97:C:/Users/stapi/OneDrive/Desktop/GD32VW553/V1_MQTT_OK/GD32VW55X_Wifi_BLE_SDK/GD32VW55x_RELEASE_V1.0.2/MSDK/cloud/alicloud/src/infra/utils/digest\utils_md5.c ****     IOT_MD5_GET_UINT32_LE(X[ 8], data, 32);
 287              		.loc 1 97 5
 288 0136 83C7D501 		lbu	a5,29(a1)
 289 013a A207     		slli	a5,a5,8
 290 013c B3E75701 		or	a5,a5,s5
 291 0140 83CAE501 		lbu	s5,30(a1)
 292 0144 C20A     		slli	s5,s5,16
 293 0146 B3E7FA00 		or	a5,s5,a5
 294 014a 83CAF501 		lbu	s5,31(a1)
 295 014e E20A     		slli	s5,s5,24
 296 0150 B3EAFA00 		or	s5,s5,a5
 297              	.LVL17:
  97:C:/Users/stapi/OneDrive/Desktop/GD32VW553/V1_MQTT_OK/GD32VW55X_Wifi_BLE_SDK/GD32VW55x_RELEASE_V1.0.2/MSDK/cloud/alicloud/src/infra/utils/digest\utils_md5.c ****     IOT_MD5_GET_UINT32_LE(X[ 8], data, 32);
 298              		.loc 1 97 43
  98:C:/Users/stapi/OneDrive/Desktop/GD32VW553/V1_MQTT_OK/GD32VW55X_Wifi_BLE_SDK/GD32VW55x_RELEASE_V1.0.2/MSDK/cloud/alicloud/src/infra/utils/digest\utils_md5.c ****     IOT_MD5_GET_UINT32_LE(X[ 9], data, 36);
 299              		.loc 1 98 5
 300 0154 83C71502 		lbu	a5,33(a1)
 301 0158 A207     		slli	a5,a5,8
 302 015a B3E75700 		or	a5,a5,t0
 303 015e 83C22502 		lbu	t0,34(a1)
 304 0162 C202     		slli	t0,t0,16
 305 0164 B3E7F200 		or	a5,t0,a5
 306 0168 83C23502 		lbu	t0,35(a1)
 307 016c E202     		slli	t0,t0,24
 308 016e B3E2F200 		or	t0,t0,a5
  98:C:/Users/stapi/OneDrive/Desktop/GD32VW553/V1_MQTT_OK/GD32VW55X_Wifi_BLE_SDK/GD32VW55x_RELEASE_V1.0.2/MSDK/cloud/alicloud/src/infra/utils/digest\utils_md5.c ****     IOT_MD5_GET_UINT32_LE(X[ 9], data, 36);
 309              		.loc 1 98 43
  99:C:/Users/stapi/OneDrive/Desktop/GD32VW553/V1_MQTT_OK/GD32VW55X_Wifi_BLE_SDK/GD32VW55x_RELEASE_V1.0.2/MSDK/cloud/alicloud/src/infra/utils/digest\utils_md5.c ****     IOT_MD5_GET_UINT32_LE(X[10], data, 40);
 310              		.loc 1 99 5
 311 0172 83C75502 		lbu	a5,37(a1)
 312 0176 A207     		slli	a5,a5,8
 313 0178 B3E70701 		or	a5,a5,a6
 314 017c 03C86502 		lbu	a6,38(a1)
 315 0180 4208     		slli	a6,a6,16
 316 0182 B367F800 		or	a5,a6,a5
 317 0186 03C87502 		lbu	a6,39(a1)
 318 018a 6208     		slli	a6,a6,24
 319 018c 3368F800 		or	a6,a6,a5
  99:C:/Users/stapi/OneDrive/Desktop/GD32VW553/V1_MQTT_OK/GD32VW55X_Wifi_BLE_SDK/GD32VW55x_RELEASE_V1.0.2/MSDK/cloud/alicloud/src/infra/utils/digest\utils_md5.c ****     IOT_MD5_GET_UINT32_LE(X[10], data, 40);
 320              		.loc 1 99 43
 100:C:/Users/stapi/OneDrive/Desktop/GD32VW553/V1_MQTT_OK/GD32VW55X_Wifi_BLE_SDK/GD32VW55x_RELEASE_V1.0.2/MSDK/cloud/alicloud/src/infra/utils/digest\utils_md5.c ****     IOT_MD5_GET_UINT32_LE(X[11], data, 44);
 321              		.loc 1 100 5
 322 0190 83C79502 		lbu	a5,41(a1)
 323 0194 A207     		slli	a5,a5,8
 324 0196 C18F     		or	a5,a5,s0
 325 0198 03C4A502 		lbu	s0,42(a1)
 326 019c 4204     		slli	s0,s0,16
 327 019e C18F     		or	a5,s0,a5
 328 01a0 03C4B502 		lbu	s0,43(a1)
 329 01a4 6204     		slli	s0,s0,24
 330 01a6 5D8C     		or	s0,s0,a5
 100:C:/Users/stapi/OneDrive/Desktop/GD32VW553/V1_MQTT_OK/GD32VW55X_Wifi_BLE_SDK/GD32VW55x_RELEASE_V1.0.2/MSDK/cloud/alicloud/src/infra/utils/digest\utils_md5.c ****     IOT_MD5_GET_UINT32_LE(X[11], data, 44);
 331              		.loc 1 100 43
 101:C:/Users/stapi/OneDrive/Desktop/GD32VW553/V1_MQTT_OK/GD32VW55X_Wifi_BLE_SDK/GD32VW55x_RELEASE_V1.0.2/MSDK/cloud/alicloud/src/infra/utils/digest\utils_md5.c ****     IOT_MD5_GET_UINT32_LE(X[12], data, 48);
 332              		.loc 1 101 5
 333 01a8 83C7D502 		lbu	a5,45(a1)
 334 01ac A207     		slli	a5,a5,8
 335 01ae B3E76700 		or	a5,a5,t1
 336 01b2 03C3E502 		lbu	t1,46(a1)
 337 01b6 4203     		slli	t1,t1,16
 338 01b8 B367F300 		or	a5,t1,a5
 339 01bc 03C3F502 		lbu	t1,47(a1)
 340 01c0 6203     		slli	t1,t1,24
 341 01c2 3363F300 		or	t1,t1,a5
 101:C:/Users/stapi/OneDrive/Desktop/GD32VW553/V1_MQTT_OK/GD32VW55X_Wifi_BLE_SDK/GD32VW55x_RELEASE_V1.0.2/MSDK/cloud/alicloud/src/infra/utils/digest\utils_md5.c ****     IOT_MD5_GET_UINT32_LE(X[12], data, 48);
 342              		.loc 1 101 43
 102:C:/Users/stapi/OneDrive/Desktop/GD32VW553/V1_MQTT_OK/GD32VW55X_Wifi_BLE_SDK/GD32VW55x_RELEASE_V1.0.2/MSDK/cloud/alicloud/src/infra/utils/digest\utils_md5.c ****     IOT_MD5_GET_UINT32_LE(X[13], data, 52);
 343              		.loc 1 102 5
 344 01c6 83C71503 		lbu	a5,49(a1)
 345 01ca A207     		slli	a5,a5,8
 346 01cc B3E72701 		or	a5,a5,s2
 347 01d0 03C92503 		lbu	s2,50(a1)
 348 01d4 4209     		slli	s2,s2,16
 349 01d6 B367F900 		or	a5,s2,a5
 350 01da 03C93503 		lbu	s2,51(a1)
 103:C:/Users/stapi/OneDrive/Desktop/GD32VW553/V1_MQTT_OK/GD32VW55X_Wifi_BLE_SDK/GD32VW55x_RELEASE_V1.0.2/MSDK/cloud/alicloud/src/infra/utils/digest\utils_md5.c ****     IOT_MD5_GET_UINT32_LE(X[14], data, 56);
 351              		.loc 1 103 5 is_stmt 0
 352 01de 83CE4503 		lbu	t4,52(a1)
 104:C:/Users/stapi/OneDrive/Desktop/GD32VW553/V1_MQTT_OK/GD32VW55X_Wifi_BLE_SDK/GD32VW55x_RELEASE_V1.0.2/MSDK/cloud/alicloud/src/infra/utils/digest\utils_md5.c ****     IOT_MD5_GET_UINT32_LE(X[15], data, 60);
 353              		.loc 1 104 5
 354 01e2 03CA8503 		lbu	s4,56(a1)
 102:C:/Users/stapi/OneDrive/Desktop/GD32VW553/V1_MQTT_OK/GD32VW55X_Wifi_BLE_SDK/GD32VW55x_RELEASE_V1.0.2/MSDK/cloud/alicloud/src/infra/utils/digest\utils_md5.c ****     IOT_MD5_GET_UINT32_LE(X[13], data, 52);
 355              		.loc 1 102 5
 356 01e6 6209     		slli	s2,s2,24
 357 01e8 3369F900 		or	s2,s2,a5
 102:C:/Users/stapi/OneDrive/Desktop/GD32VW553/V1_MQTT_OK/GD32VW55X_Wifi_BLE_SDK/GD32VW55x_RELEASE_V1.0.2/MSDK/cloud/alicloud/src/infra/utils/digest\utils_md5.c ****     IOT_MD5_GET_UINT32_LE(X[13], data, 52);
 358              		.loc 1 102 43 is_stmt 1
 103:C:/Users/stapi/OneDrive/Desktop/GD32VW553/V1_MQTT_OK/GD32VW55X_Wifi_BLE_SDK/GD32VW55x_RELEASE_V1.0.2/MSDK/cloud/alicloud/src/infra/utils/digest\utils_md5.c ****     IOT_MD5_GET_UINT32_LE(X[14], data, 56);
 359              		.loc 1 103 5
 360 01ec 83C75503 		lbu	a5,53(a1)
 105:C:/Users/stapi/OneDrive/Desktop/GD32VW553/V1_MQTT_OK/GD32VW55X_Wifi_BLE_SDK/GD32VW55x_RELEASE_V1.0.2/MSDK/cloud/alicloud/src/infra/utils/digest\utils_md5.c **** 
 361              		.loc 1 105 5 is_stmt 0
 362 01f0 83CFC503 		lbu	t6,60(a1)
 116:C:/Users/stapi/OneDrive/Desktop/GD32VW553/V1_MQTT_OK/GD32VW55X_Wifi_BLE_SDK/GD32VW55x_RELEASE_V1.0.2/MSDK/cloud/alicloud/src/infra/utils/digest\utils_md5.c ****     D = ctx->state[3];
 363              		.loc 1 116 7
 364 01f4 032C0501 		lw	s8,16(a0)
 103:C:/Users/stapi/OneDrive/Desktop/GD32VW553/V1_MQTT_OK/GD32VW55X_Wifi_BLE_SDK/GD32VW55x_RELEASE_V1.0.2/MSDK/cloud/alicloud/src/infra/utils/digest\utils_md5.c ****     IOT_MD5_GET_UINT32_LE(X[14], data, 56);
 365              		.loc 1 103 5
 366 01f8 A207     		slli	a5,a5,8
 367 01fa B3E7D701 		or	a5,a5,t4
 368 01fe 83CE6503 		lbu	t4,54(a1)
 121:C:/Users/stapi/OneDrive/Desktop/GD32VW553/V1_MQTT_OK/GD32VW55X_Wifi_BLE_SDK/GD32VW55x_RELEASE_V1.0.2/MSDK/cloud/alicloud/src/infra/utils/digest\utils_md5.c ****     P(D, A, B, C,  1, 12, 0xE8C7B756);
 369              		.loc 1 121 5
 370 0202 5849     		lw	a4,20(a0)
 115:C:/Users/stapi/OneDrive/Desktop/GD32VW553/V1_MQTT_OK/GD32VW55X_Wifi_BLE_SDK/GD32VW55x_RELEASE_V1.0.2/MSDK/cloud/alicloud/src/infra/utils/digest\utils_md5.c ****     C = ctx->state[2];
 371              		.loc 1 115 7
 372 0204 832BC500 		lw	s7,12(a0)
 103:C:/Users/stapi/OneDrive/Desktop/GD32VW553/V1_MQTT_OK/GD32VW55X_Wifi_BLE_SDK/GD32VW55x_RELEASE_V1.0.2/MSDK/cloud/alicloud/src/infra/utils/digest\utils_md5.c ****     IOT_MD5_GET_UINT32_LE(X[14], data, 56);
 373              		.loc 1 103 5
 374 0208 C20E     		slli	t4,t4,16
 375 020a B3E7FE00 		or	a5,t4,a5
 376 020e 83CE7503 		lbu	t4,55(a1)
 377 0212 BA96     		add	a3,a4,a3
 378 0214 E20E     		slli	t4,t4,24
 379 0216 B3EEFE00 		or	t4,t4,a5
 103:C:/Users/stapi/OneDrive/Desktop/GD32VW553/V1_MQTT_OK/GD32VW55X_Wifi_BLE_SDK/GD32VW55x_RELEASE_V1.0.2/MSDK/cloud/alicloud/src/infra/utils/digest\utils_md5.c ****     IOT_MD5_GET_UINT32_LE(X[14], data, 56);
 380              		.loc 1 103 43 is_stmt 1
 104:C:/Users/stapi/OneDrive/Desktop/GD32VW553/V1_MQTT_OK/GD32VW55X_Wifi_BLE_SDK/GD32VW55x_RELEASE_V1.0.2/MSDK/cloud/alicloud/src/infra/utils/digest\utils_md5.c ****     IOT_MD5_GET_UINT32_LE(X[15], data, 60);
 381              		.loc 1 104 5
 382 021a 83C79503 		lbu	a5,57(a1)
 383 021e F69C     		add	s9,t4,s9
 384 0220 A207     		slli	a5,a5,8
 385 0222 B3E74701 		or	a5,a5,s4
 386 0226 03CAA503 		lbu	s4,58(a1)
 387 022a 420A     		slli	s4,s4,16
 388 022c B367FA00 		or	a5,s4,a5
 389 0230 03CAB503 		lbu	s4,59(a1)
 390 0234 620A     		slli	s4,s4,24
 391 0236 336AFA00 		or	s4,s4,a5
 104:C:/Users/stapi/OneDrive/Desktop/GD32VW553/V1_MQTT_OK/GD32VW55X_Wifi_BLE_SDK/GD32VW55x_RELEASE_V1.0.2/MSDK/cloud/alicloud/src/infra/utils/digest\utils_md5.c ****     IOT_MD5_GET_UINT32_LE(X[15], data, 60);
 392              		.loc 1 104 43
 105:C:/Users/stapi/OneDrive/Desktop/GD32VW553/V1_MQTT_OK/GD32VW55X_Wifi_BLE_SDK/GD32VW55x_RELEASE_V1.0.2/MSDK/cloud/alicloud/src/infra/utils/digest\utils_md5.c **** 
 393              		.loc 1 105 5
 394 023a 83C7D503 		lbu	a5,61(a1)
 395 023e A207     		slli	a5,a5,8
 396 0240 B3E7F701 		or	a5,a5,t6
 397 0244 83CFE503 		lbu	t6,62(a1)
 398 0248 C20F     		slli	t6,t6,16
 399 024a B3E7FF00 		or	a5,t6,a5
 400 024e 83CFF503 		lbu	t6,63(a1)
 401 0252 B7D5BDC1 		li	a1,-1044525056
 402              	.LVL18:
 403 0256 9385E5EE 		addi	a1,a1,-274
 404 025a E20F     		slli	t6,t6,24
 405 025c B3EFFF00 		or	t6,t6,a5
 105:C:/Users/stapi/OneDrive/Desktop/GD32VW553/V1_MQTT_OK/GD32VW55X_Wifi_BLE_SDK/GD32VW55x_RELEASE_V1.0.2/MSDK/cloud/alicloud/src/infra/utils/digest\utils_md5.c **** 
 406              		.loc 1 105 43
 114:C:/Users/stapi/OneDrive/Desktop/GD32VW553/V1_MQTT_OK/GD32VW55X_Wifi_BLE_SDK/GD32VW55x_RELEASE_V1.0.2/MSDK/cloud/alicloud/src/infra/utils/digest\utils_md5.c ****     B = ctx->state[1];
 407              		.loc 1 114 5
 408              	.LVL19:
 115:C:/Users/stapi/OneDrive/Desktop/GD32VW553/V1_MQTT_OK/GD32VW55X_Wifi_BLE_SDK/GD32VW55x_RELEASE_V1.0.2/MSDK/cloud/alicloud/src/infra/utils/digest\utils_md5.c ****     C = ctx->state[2];
 409              		.loc 1 115 5
 116:C:/Users/stapi/OneDrive/Desktop/GD32VW553/V1_MQTT_OK/GD32VW55X_Wifi_BLE_SDK/GD32VW55x_RELEASE_V1.0.2/MSDK/cloud/alicloud/src/infra/utils/digest\utils_md5.c ****     D = ctx->state[3];
 410              		.loc 1 116 5
 117:C:/Users/stapi/OneDrive/Desktop/GD32VW553/V1_MQTT_OK/GD32VW55X_Wifi_BLE_SDK/GD32VW55x_RELEASE_V1.0.2/MSDK/cloud/alicloud/src/infra/utils/digest\utils_md5.c **** 
 411              		.loc 1 117 5
 121:C:/Users/stapi/OneDrive/Desktop/GD32VW553/V1_MQTT_OK/GD32VW55X_Wifi_BLE_SDK/GD32VW55x_RELEASE_V1.0.2/MSDK/cloud/alicloud/src/infra/utils/digest\utils_md5.c ****     P(D, A, B, C,  1, 12, 0xE8C7B756);
 412              		.loc 1 121 5
 413 0260 1C45     		lw	a5,8(a0)
 414 0262 DE95     		add	a1,s7,a1
 415 0264 A695     		add	a1,a1,s1
 416 0266 3E96     		add	a2,a5,a2
 417 0268 B3076601 		add	a5,a2,s6
 418              	.LVL20:
 121:C:/Users/stapi/OneDrive/Desktop/GD32VW553/V1_MQTT_OK/GD32VW55X_Wifi_BLE_SDK/GD32VW55x_RELEASE_V1.0.2/MSDK/cloud/alicloud/src/infra/utils/digest\utils_md5.c ****     P(D, A, B, C,  1, 12, 0xE8C7B756);
 419              		.loc 1 121 5
 420 026c 3346EC00 		xor	a2,s8,a4
 421 0270 33767601 		and	a2,a2,s7
 422 0274 398E     		xor	a2,a2,a4
 423 0276 3E96     		add	a2,a2,a5
 424              	.LVL21:
 425 0278 3316B661 		rol	a2,a2,s11
 426              	.LVL22:
 427 027c B3877600 		add	a5,a3,t2
 428              	.LVL23:
 429 0280 5E96     		add	a2,a2,s7
 430              	.LVL24:
 121:C:/Users/stapi/OneDrive/Desktop/GD32VW553/V1_MQTT_OK/GD32VW55X_Wifi_BLE_SDK/GD32VW55x_RELEASE_V1.0.2/MSDK/cloud/alicloud/src/infra/utils/digest\utils_md5.c ****     P(D, A, B, C,  1, 12, 0xE8C7B756);
 431              		.loc 1 121 38
 432              		.loc 1 122 5
 433              		.loc 1 122 5
 434 0282 B3C68B01 		xor	a3,s7,s8
 435 0286 F18E     		and	a3,a3,a2
 436 0288 B3C68601 		xor	a3,a3,s8
 437 028c BE96     		add	a3,a3,a5
 438              	.LVL25:
 439 028e B7772024 		li	a5,606105600
 440 0292 9387B70D 		addi	a5,a5,219
 441 0296 E297     		add	a5,s8,a5
 442 0298 33871701 		add	a4,a5,a7
 443 029c B396A661 		rol	a3,a3,s10
 444              	.LVL26:
 123:C:/Users/stapi/OneDrive/Desktop/GD32VW553/V1_MQTT_OK/GD32VW55X_Wifi_BLE_SDK/GD32VW55x_RELEASE_V1.0.2/MSDK/cloud/alicloud/src/infra/utils/digest\utils_md5.c ****     P(C, D, A, B,  2, 17, 0x242070DB);
 445              		.loc 1 123 5 is_stmt 0
 446 02a0 B3C7CB00 		xor	a5,s7,a2
 122:C:/Users/stapi/OneDrive/Desktop/GD32VW553/V1_MQTT_OK/GD32VW55X_Wifi_BLE_SDK/GD32VW55x_RELEASE_V1.0.2/MSDK/cloud/alicloud/src/infra/utils/digest\utils_md5.c ****     P(C, D, A, B,  2, 17, 0x242070DB);
 447              		.loc 1 122 5
 448 02a4 B296     		add	a3,a3,a2
 449              	.LVL27:
 122:C:/Users/stapi/OneDrive/Desktop/GD32VW553/V1_MQTT_OK/GD32VW55X_Wifi_BLE_SDK/GD32VW55x_RELEASE_V1.0.2/MSDK/cloud/alicloud/src/infra/utils/digest\utils_md5.c ****     P(C, D, A, B,  2, 17, 0x242070DB);
 450              		.loc 1 122 38 is_stmt 1
 451              		.loc 1 123 5
 452              		.loc 1 123 5
 453 02a6 F58F     		and	a5,a5,a3
 454 02a8 B3C77701 		xor	a5,a5,s7
 455 02ac BA97     		add	a5,a5,a4
 456              	.LVL28:
 457 02ae 93D7F760 		rori	a5,a5,15
 458              	.LVL29:
 124:C:/Users/stapi/OneDrive/Desktop/GD32VW553/V1_MQTT_OK/GD32VW55X_Wifi_BLE_SDK/GD32VW55x_RELEASE_V1.0.2/MSDK/cloud/alicloud/src/infra/utils/digest\utils_md5.c ****     P(B, C, D, A,  3, 22, 0xC1BDCEEE);
 459              		.loc 1 124 5 is_stmt 0
 460 02b2 3347D600 		xor	a4,a2,a3
 461              	.LVL30:
 123:C:/Users/stapi/OneDrive/Desktop/GD32VW553/V1_MQTT_OK/GD32VW55X_Wifi_BLE_SDK/GD32VW55x_RELEASE_V1.0.2/MSDK/cloud/alicloud/src/infra/utils/digest\utils_md5.c ****     P(C, D, A, B,  2, 17, 0x242070DB);
 462              		.loc 1 123 5
 463 02b6 B697     		add	a5,a5,a3
 464              	.LVL31:
 123:C:/Users/stapi/OneDrive/Desktop/GD32VW553/V1_MQTT_OK/GD32VW55X_Wifi_BLE_SDK/GD32VW55x_RELEASE_V1.0.2/MSDK/cloud/alicloud/src/infra/utils/digest\utils_md5.c ****     P(C, D, A, B,  2, 17, 0x242070DB);
 465              		.loc 1 123 38 is_stmt 1
 466              		.loc 1 124 5
 467              		.loc 1 124 5
 468 02b8 7D8F     		and	a4,a4,a5
 469 02ba 318F     		xor	a4,a4,a2
 470 02bc 2E97     		add	a4,a4,a1
 471              	.LVL32:
 472 02be B7157CF5 		li	a1,-176418816
 473 02c2 9385F5FA 		addi	a1,a1,-81
 474 02c6 F295     		add	a1,t3,a1
 475 02c8 2E96     		add	a2,a1,a2
 476              	.LVL33:
 477 02ca 1357A760 		rori	a4,a4,10
 478              	.LVL34:
 125:C:/Users/stapi/OneDrive/Desktop/GD32VW553/V1_MQTT_OK/GD32VW55X_Wifi_BLE_SDK/GD32VW55x_RELEASE_V1.0.2/MSDK/cloud/alicloud/src/infra/utils/digest\utils_md5.c ****     P(A, B, C, D,  4,  7, 0xF57C0FAF);
 479              		.loc 1 125 5 is_stmt 0
 480 02ce B3C5F600 		xor	a1,a3,a5
 124:C:/Users/stapi/OneDrive/Desktop/GD32VW553/V1_MQTT_OK/GD32VW55X_Wifi_BLE_SDK/GD32VW55x_RELEASE_V1.0.2/MSDK/cloud/alicloud/src/infra/utils/digest\utils_md5.c ****     P(B, C, D, A,  3, 22, 0xC1BDCEEE);
 481              		.loc 1 124 5
 482 02d2 3E97     		add	a4,a4,a5
 483              	.LVL35:
 124:C:/Users/stapi/OneDrive/Desktop/GD32VW553/V1_MQTT_OK/GD32VW55X_Wifi_BLE_SDK/GD32VW55x_RELEASE_V1.0.2/MSDK/cloud/alicloud/src/infra/utils/digest\utils_md5.c ****     P(B, C, D, A,  3, 22, 0xC1BDCEEE);
 484              		.loc 1 124 38 is_stmt 1
 485              		.loc 1 125 5
 486              		.loc 1 125 5
 487 02d4 F98D     		and	a1,a1,a4
 488 02d6 B58D     		xor	a1,a1,a3
 489 02d8 2E96     		add	a2,a1,a2
 490              	.LVL36:
 491 02da B7C58747 		li	a1,1200078848
 492 02de 9385A562 		addi	a1,a1,1578
 493 02e2 CE95     		add	a1,s3,a1
 494 02e4 AE96     		add	a3,a1,a3
 495              	.LVL37:
 496 02e6 3316B661 		rol	a2,a2,s11
 497              	.LVL38:
 126:C:/Users/stapi/OneDrive/Desktop/GD32VW553/V1_MQTT_OK/GD32VW55X_Wifi_BLE_SDK/GD32VW55x_RELEASE_V1.0.2/MSDK/cloud/alicloud/src/infra/utils/digest\utils_md5.c ****     P(D, A, B, C,  5, 12, 0x4787C62A);
 498              		.loc 1 126 5 is_stmt 0
 499 02ea B3C5E700 		xor	a1,a5,a4
 125:C:/Users/stapi/OneDrive/Desktop/GD32VW553/V1_MQTT_OK/GD32VW55X_Wifi_BLE_SDK/GD32VW55x_RELEASE_V1.0.2/MSDK/cloud/alicloud/src/infra/utils/digest\utils_md5.c ****     P(A, B, C, D,  4,  7, 0xF57C0FAF);
 500              		.loc 1 125 5
 501 02ee 3A96     		add	a2,a2,a4
 502              	.LVL39:
 125:C:/Users/stapi/OneDrive/Desktop/GD32VW553/V1_MQTT_OK/GD32VW55X_Wifi_BLE_SDK/GD32VW55x_RELEASE_V1.0.2/MSDK/cloud/alicloud/src/infra/utils/digest\utils_md5.c ****     P(A, B, C, D,  4,  7, 0xF57C0FAF);
 503              		.loc 1 125 38 is_stmt 1
 504              		.loc 1 126 5
 505              		.loc 1 126 5
 506 02f0 F18D     		and	a1,a1,a2
 507 02f2 BD8D     		xor	a1,a1,a5
 508 02f4 AE96     		add	a3,a1,a3
 509              	.LVL40:
 510 02f6 B74530A8 		li	a1,-1473232896
 511 02fa 93853561 		addi	a1,a1,1555
 512 02fe FA95     		add	a1,t5,a1
 513 0300 AE97     		add	a5,a1,a5
 514              	.LVL41:
 515 0302 B396A661 		rol	a3,a3,s10
 516              	.LVL42:
 127:C:/Users/stapi/OneDrive/Desktop/GD32VW553/V1_MQTT_OK/GD32VW55X_Wifi_BLE_SDK/GD32VW55x_RELEASE_V1.0.2/MSDK/cloud/alicloud/src/infra/utils/digest\utils_md5.c ****     P(C, D, A, B,  6, 17, 0xA8304613);
 517              		.loc 1 127 5 is_stmt 0
 518 0306 B345C700 		xor	a1,a4,a2
 126:C:/Users/stapi/OneDrive/Desktop/GD32VW553/V1_MQTT_OK/GD32VW55X_Wifi_BLE_SDK/GD32VW55x_RELEASE_V1.0.2/MSDK/cloud/alicloud/src/infra/utils/digest\utils_md5.c ****     P(D, A, B, C,  5, 12, 0x4787C62A);
 519              		.loc 1 126 5
 520 030a B296     		add	a3,a3,a2
 521              	.LVL43:
 126:C:/Users/stapi/OneDrive/Desktop/GD32VW553/V1_MQTT_OK/GD32VW55X_Wifi_BLE_SDK/GD32VW55x_RELEASE_V1.0.2/MSDK/cloud/alicloud/src/infra/utils/digest\utils_md5.c ****     P(D, A, B, C,  5, 12, 0x4787C62A);
 522              		.loc 1 126 38 is_stmt 1
 523              		.loc 1 127 5
 524              		.loc 1 127 5
 525 030c F58D     		and	a1,a1,a3
 526 030e B98D     		xor	a1,a1,a4
 527 0310 AE97     		add	a5,a1,a5
 528              	.LVL44:
 529 0312 B79546FD 		li	a1,-45707264
 530 0316 93851550 		addi	a1,a1,1281
 531 031a D695     		add	a1,s5,a1
 532 031c 2E97     		add	a4,a1,a4
 533              	.LVL45:
 534 031e 93D7F760 		rori	a5,a5,15
 535              	.LVL46:
 128:C:/Users/stapi/OneDrive/Desktop/GD32VW553/V1_MQTT_OK/GD32VW55X_Wifi_BLE_SDK/GD32VW55x_RELEASE_V1.0.2/MSDK/cloud/alicloud/src/infra/utils/digest\utils_md5.c ****     P(B, C, D, A,  7, 22, 0xFD469501);
 536              		.loc 1 128 5 is_stmt 0
 537 0322 B345D600 		xor	a1,a2,a3
 127:C:/Users/stapi/OneDrive/Desktop/GD32VW553/V1_MQTT_OK/GD32VW55X_Wifi_BLE_SDK/GD32VW55x_RELEASE_V1.0.2/MSDK/cloud/alicloud/src/infra/utils/digest\utils_md5.c ****     P(C, D, A, B,  6, 17, 0xA8304613);
 538              		.loc 1 127 5
 539 0326 B697     		add	a5,a5,a3
 540              	.LVL47:
 127:C:/Users/stapi/OneDrive/Desktop/GD32VW553/V1_MQTT_OK/GD32VW55X_Wifi_BLE_SDK/GD32VW55x_RELEASE_V1.0.2/MSDK/cloud/alicloud/src/infra/utils/digest\utils_md5.c ****     P(C, D, A, B,  6, 17, 0xA8304613);
 541              		.loc 1 127 38 is_stmt 1
 542              		.loc 1 128 5
 543              		.loc 1 128 5
 544 0328 FD8D     		and	a1,a1,a5
 545 032a B18D     		xor	a1,a1,a2
 546 032c 2E97     		add	a4,a1,a4
 547              	.LVL48:
 548 032e B7A58069 		li	a1,1770037248
 549 0332 9385858D 		addi	a1,a1,-1832
 550 0336 9695     		add	a1,t0,a1
 551 0338 2E96     		add	a2,a1,a2
 552              	.LVL49:
 553 033a 1357A760 		rori	a4,a4,10
 554              	.LVL50:
 129:C:/Users/stapi/OneDrive/Desktop/GD32VW553/V1_MQTT_OK/GD32VW55X_Wifi_BLE_SDK/GD32VW55x_RELEASE_V1.0.2/MSDK/cloud/alicloud/src/infra/utils/digest\utils_md5.c ****     P(A, B, C, D,  8,  7, 0x698098D8);
 555              		.loc 1 129 5 is_stmt 0
 556 033e B3C5F600 		xor	a1,a3,a5
 128:C:/Users/stapi/OneDrive/Desktop/GD32VW553/V1_MQTT_OK/GD32VW55X_Wifi_BLE_SDK/GD32VW55x_RELEASE_V1.0.2/MSDK/cloud/alicloud/src/infra/utils/digest\utils_md5.c ****     P(B, C, D, A,  7, 22, 0xFD469501);
 557              		.loc 1 128 5
 558 0342 3E97     		add	a4,a4,a5
 559              	.LVL51:
 128:C:/Users/stapi/OneDrive/Desktop/GD32VW553/V1_MQTT_OK/GD32VW55X_Wifi_BLE_SDK/GD32VW55x_RELEASE_V1.0.2/MSDK/cloud/alicloud/src/infra/utils/digest\utils_md5.c ****     P(B, C, D, A,  7, 22, 0xFD469501);
 560              		.loc 1 128 38 is_stmt 1
 561              		.loc 1 129 5
 562              		.loc 1 129 5
 563 0344 F98D     		and	a1,a1,a4
 564 0346 B58D     		xor	a1,a1,a3
 565 0348 B295     		add	a1,a1,a2
 566              	.LVL52:
 567 034a 37F6448B 		li	a2,-1958416384
 568 034e 1306F67A 		addi	a2,a2,1967
 569 0352 4296     		add	a2,a6,a2
 570 0354 B296     		add	a3,a2,a3
 571              	.LVL53:
 572 0356 B395B561 		rol	a1,a1,s11
 573              	.LVL54:
 130:C:/Users/stapi/OneDrive/Desktop/GD32VW553/V1_MQTT_OK/GD32VW55X_Wifi_BLE_SDK/GD32VW55x_RELEASE_V1.0.2/MSDK/cloud/alicloud/src/infra/utils/digest\utils_md5.c ****     P(D, A, B, C,  9, 12, 0x8B44F7AF);
 574              		.loc 1 130 5 is_stmt 0
 575 035a 33C6E700 		xor	a2,a5,a4
 129:C:/Users/stapi/OneDrive/Desktop/GD32VW553/V1_MQTT_OK/GD32VW55X_Wifi_BLE_SDK/GD32VW55x_RELEASE_V1.0.2/MSDK/cloud/alicloud/src/infra/utils/digest\utils_md5.c ****     P(A, B, C, D,  8,  7, 0x698098D8);
 576              		.loc 1 129 5
 577 035e BA95     		add	a1,a1,a4
 578              	.LVL55:
 129:C:/Users/stapi/OneDrive/Desktop/GD32VW553/V1_MQTT_OK/GD32VW55X_Wifi_BLE_SDK/GD32VW55x_RELEASE_V1.0.2/MSDK/cloud/alicloud/src/infra/utils/digest\utils_md5.c ****     P(A, B, C, D,  8,  7, 0x698098D8);
 579              		.loc 1 129 38 is_stmt 1
 580              		.loc 1 130 5
 581              		.loc 1 130 5
 582 0360 6D8E     		and	a2,a2,a1
 583 0362 3D8E     		xor	a2,a2,a5
 584 0364 B296     		add	a3,a2,a3
 585              	.LVL56:
 586 0366 5976     		li	a2,-40960
 587 0368 130616BB 		addi	a2,a2,-1103
 588 036c 2296     		add	a2,s0,a2
 589 036e B297     		add	a5,a2,a5
 590              	.LVL57:
 591 0370 B396A661 		rol	a3,a3,s10
 592              	.LVL58:
 131:C:/Users/stapi/OneDrive/Desktop/GD32VW553/V1_MQTT_OK/GD32VW55X_Wifi_BLE_SDK/GD32VW55x_RELEASE_V1.0.2/MSDK/cloud/alicloud/src/infra/utils/digest\utils_md5.c ****     P(C, D, A, B, 10, 17, 0xFFFF5BB1);
 593              		.loc 1 131 5 is_stmt 0
 594 0374 3346B700 		xor	a2,a4,a1
 130:C:/Users/stapi/OneDrive/Desktop/GD32VW553/V1_MQTT_OK/GD32VW55X_Wifi_BLE_SDK/GD32VW55x_RELEASE_V1.0.2/MSDK/cloud/alicloud/src/infra/utils/digest\utils_md5.c ****     P(D, A, B, C,  9, 12, 0x8B44F7AF);
 595              		.loc 1 130 5
 596 0378 AE96     		add	a3,a3,a1
 597              	.LVL59:
 130:C:/Users/stapi/OneDrive/Desktop/GD32VW553/V1_MQTT_OK/GD32VW55X_Wifi_BLE_SDK/GD32VW55x_RELEASE_V1.0.2/MSDK/cloud/alicloud/src/infra/utils/digest\utils_md5.c ****     P(D, A, B, C,  9, 12, 0x8B44F7AF);
 598              		.loc 1 130 38 is_stmt 1
 599              		.loc 1 131 5
 600              		.loc 1 131 5
 601 037a 758E     		and	a2,a2,a3
 602 037c 398E     		xor	a2,a2,a4
 603 037e B297     		add	a5,a2,a5
 604              	.LVL60:
 605 0380 37D65C89 		li	a2,-1990406144
 606 0384 1306E67B 		addi	a2,a2,1982
 607 0388 1A96     		add	a2,t1,a2
 608 038a 3297     		add	a4,a2,a4
 609              	.LVL61:
 610 038c 93D7F760 		rori	a5,a5,15
 611              	.LVL62:
 132:C:/Users/stapi/OneDrive/Desktop/GD32VW553/V1_MQTT_OK/GD32VW55X_Wifi_BLE_SDK/GD32VW55x_RELEASE_V1.0.2/MSDK/cloud/alicloud/src/infra/utils/digest\utils_md5.c ****     P(B, C, D, A, 11, 22, 0x895CD7BE);
 612              		.loc 1 132 5 is_stmt 0
 613 0390 33C6D500 		xor	a2,a1,a3
 131:C:/Users/stapi/OneDrive/Desktop/GD32VW553/V1_MQTT_OK/GD32VW55X_Wifi_BLE_SDK/GD32VW55x_RELEASE_V1.0.2/MSDK/cloud/alicloud/src/infra/utils/digest\utils_md5.c ****     P(C, D, A, B, 10, 17, 0xFFFF5BB1);
 614              		.loc 1 131 5
 615 0394 B697     		add	a5,a5,a3
 616              	.LVL63:
 131:C:/Users/stapi/OneDrive/Desktop/GD32VW553/V1_MQTT_OK/GD32VW55X_Wifi_BLE_SDK/GD32VW55x_RELEASE_V1.0.2/MSDK/cloud/alicloud/src/infra/utils/digest\utils_md5.c ****     P(C, D, A, B, 10, 17, 0xFFFF5BB1);
 617              		.loc 1 131 38 is_stmt 1
 618              		.loc 1 132 5
 619              		.loc 1 132 5
 620 0396 7D8E     		and	a2,a2,a5
 621 0398 2D8E     		xor	a2,a2,a1
 622 039a 3297     		add	a4,a2,a4
 623              	.LVL64:
 624 039c 3716906B 		li	a2,1804603392
 625 03a0 13062612 		addi	a2,a2,290
 626 03a4 4A96     		add	a2,s2,a2
 627 03a6 B295     		add	a1,a2,a1
 628              	.LVL65:
 629 03a8 1357A760 		rori	a4,a4,10
 630              	.LVL66:
 133:C:/Users/stapi/OneDrive/Desktop/GD32VW553/V1_MQTT_OK/GD32VW55X_Wifi_BLE_SDK/GD32VW55x_RELEASE_V1.0.2/MSDK/cloud/alicloud/src/infra/utils/digest\utils_md5.c ****     P(A, B, C, D, 12,  7, 0x6B901122);
 631              		.loc 1 133 5 is_stmt 0
 632 03ac 33C6F600 		xor	a2,a3,a5
 132:C:/Users/stapi/OneDrive/Desktop/GD32VW553/V1_MQTT_OK/GD32VW55X_Wifi_BLE_SDK/GD32VW55x_RELEASE_V1.0.2/MSDK/cloud/alicloud/src/infra/utils/digest\utils_md5.c ****     P(B, C, D, A, 11, 22, 0x895CD7BE);
 633              		.loc 1 132 5
 634 03b0 3E97     		add	a4,a4,a5
 635              	.LVL67:
 132:C:/Users/stapi/OneDrive/Desktop/GD32VW553/V1_MQTT_OK/GD32VW55X_Wifi_BLE_SDK/GD32VW55x_RELEASE_V1.0.2/MSDK/cloud/alicloud/src/infra/utils/digest\utils_md5.c ****     P(B, C, D, A, 11, 22, 0x895CD7BE);
 636              		.loc 1 132 38 is_stmt 1
 637              		.loc 1 133 5
 638              		.loc 1 133 5
 639 03b2 798E     		and	a2,a2,a4
 640 03b4 358E     		xor	a2,a2,a3
 641 03b6 2E96     		add	a2,a2,a1
 642              	.LVL68:
 643 03b8 E696     		add	a3,s9,a3
 644              	.LVL69:
 645 03ba 3316B661 		rol	a2,a2,s11
 646              	.LVL70:
 134:C:/Users/stapi/OneDrive/Desktop/GD32VW553/V1_MQTT_OK/GD32VW55X_Wifi_BLE_SDK/GD32VW55x_RELEASE_V1.0.2/MSDK/cloud/alicloud/src/infra/utils/digest\utils_md5.c ****     P(D, A, B, C, 13, 12, 0xFD987193);
 647              		.loc 1 134 5 is_stmt 0
 648 03be B3CCE700 		xor	s9,a5,a4
 133:C:/Users/stapi/OneDrive/Desktop/GD32VW553/V1_MQTT_OK/GD32VW55X_Wifi_BLE_SDK/GD32VW55x_RELEASE_V1.0.2/MSDK/cloud/alicloud/src/infra/utils/digest\utils_md5.c ****     P(A, B, C, D, 12,  7, 0x6B901122);
 649              		.loc 1 133 5
 650 03c2 3A96     		add	a2,a2,a4
 651              	.LVL71:
 133:C:/Users/stapi/OneDrive/Desktop/GD32VW553/V1_MQTT_OK/GD32VW55X_Wifi_BLE_SDK/GD32VW55x_RELEASE_V1.0.2/MSDK/cloud/alicloud/src/infra/utils/digest\utils_md5.c ****     P(A, B, C, D, 12,  7, 0x6B901122);
 652              		.loc 1 133 38 is_stmt 1
 653              		.loc 1 134 5
 654              		.loc 1 134 5
 655 03c4 B3FCCC00 		and	s9,s9,a2
 656 03c8 B3CCFC00 		xor	s9,s9,a5
 657 03cc B69C     		add	s9,s9,a3
 658              	.LVL72:
 659 03ce B74679A6 		li	a3,-1502003200
 660 03d2 9386E638 		addi	a3,a3,910
 661 03d6 D296     		add	a3,s4,a3
 662 03d8 BE96     		add	a3,a3,a5
 663 03da B39CAC61 		rol	s9,s9,s10
 664              	.LVL73:
 135:C:/Users/stapi/OneDrive/Desktop/GD32VW553/V1_MQTT_OK/GD32VW55X_Wifi_BLE_SDK/GD32VW55x_RELEASE_V1.0.2/MSDK/cloud/alicloud/src/infra/utils/digest\utils_md5.c ****     P(C, D, A, B, 14, 17, 0xA679438E);
 665              		.loc 1 135 5 is_stmt 0
 666 03de B347C700 		xor	a5,a4,a2
 667              	.LVL74:
 134:C:/Users/stapi/OneDrive/Desktop/GD32VW553/V1_MQTT_OK/GD32VW55X_Wifi_BLE_SDK/GD32VW55x_RELEASE_V1.0.2/MSDK/cloud/alicloud/src/infra/utils/digest\utils_md5.c ****     P(D, A, B, C, 13, 12, 0xFD987193);
 668              		.loc 1 134 5
 669 03e2 B29C     		add	s9,s9,a2
 670              	.LVL75:
 134:C:/Users/stapi/OneDrive/Desktop/GD32VW553/V1_MQTT_OK/GD32VW55X_Wifi_BLE_SDK/GD32VW55x_RELEASE_V1.0.2/MSDK/cloud/alicloud/src/infra/utils/digest\utils_md5.c ****     P(D, A, B, C, 13, 12, 0xFD987193);
 671              		.loc 1 134 38 is_stmt 1
 672              		.loc 1 135 5
 673              		.loc 1 135 5
 674 03e4 B3F79701 		and	a5,a5,s9
 675 03e8 B98F     		xor	a5,a5,a4
 676 03ea B697     		add	a5,a5,a3
 677              	.LVL76:
 678 03ec B716B449 		li	a3,1236537344
 679 03f0 93861682 		addi	a3,a3,-2015
 680 03f4 FE96     		add	a3,t6,a3
 681 03f6 BA96     		add	a3,a3,a4
 682 03f8 93D7F760 		rori	a5,a5,15
 683              	.LVL77:
 136:C:/Users/stapi/OneDrive/Desktop/GD32VW553/V1_MQTT_OK/GD32VW55X_Wifi_BLE_SDK/GD32VW55x_RELEASE_V1.0.2/MSDK/cloud/alicloud/src/infra/utils/digest\utils_md5.c ****     P(B, C, D, A, 15, 22, 0x49B40821);
 684              		.loc 1 136 5 is_stmt 0
 685 03fc 33479601 		xor	a4,a2,s9
 686              	.LVL78:
 135:C:/Users/stapi/OneDrive/Desktop/GD32VW553/V1_MQTT_OK/GD32VW55X_Wifi_BLE_SDK/GD32VW55x_RELEASE_V1.0.2/MSDK/cloud/alicloud/src/infra/utils/digest\utils_md5.c ****     P(C, D, A, B, 14, 17, 0xA679438E);
 687              		.loc 1 135 5
 688 0400 E697     		add	a5,a5,s9
 689              	.LVL79:
 135:C:/Users/stapi/OneDrive/Desktop/GD32VW553/V1_MQTT_OK/GD32VW55X_Wifi_BLE_SDK/GD32VW55x_RELEASE_V1.0.2/MSDK/cloud/alicloud/src/infra/utils/digest\utils_md5.c ****     P(C, D, A, B, 14, 17, 0xA679438E);
 690              		.loc 1 135 38 is_stmt 1
 691              		.loc 1 136 5
 692              		.loc 1 136 5
 693 0402 7D8F     		and	a4,a4,a5
 694 0404 318F     		xor	a4,a4,a2
 695 0406 B7251EF6 		li	a1,-165797888
 696 040a 3697     		add	a4,a4,a3
 697              	.LVL80:
 698 040c 93852556 		addi	a1,a1,1378
 699 0410 9E95     		add	a1,t2,a1
 700 0412 1357A760 		rori	a4,a4,10
 701              	.LVL81:
 702 0416 3E97     		add	a4,a4,a5
 703              	.LVL82:
 704              		.loc 1 136 38
 137:C:/Users/stapi/OneDrive/Desktop/GD32VW553/V1_MQTT_OK/GD32VW55X_Wifi_BLE_SDK/GD32VW55x_RELEASE_V1.0.2/MSDK/cloud/alicloud/src/infra/utils/digest\utils_md5.c **** 
 138:C:/Users/stapi/OneDrive/Desktop/GD32VW553/V1_MQTT_OK/GD32VW55X_Wifi_BLE_SDK/GD32VW55x_RELEASE_V1.0.2/MSDK/cloud/alicloud/src/infra/utils/digest\utils_md5.c **** #undef F
 139:C:/Users/stapi/OneDrive/Desktop/GD32VW553/V1_MQTT_OK/GD32VW55X_Wifi_BLE_SDK/GD32VW55x_RELEASE_V1.0.2/MSDK/cloud/alicloud/src/infra/utils/digest\utils_md5.c **** 
 140:C:/Users/stapi/OneDrive/Desktop/GD32VW553/V1_MQTT_OK/GD32VW55X_Wifi_BLE_SDK/GD32VW55x_RELEASE_V1.0.2/MSDK/cloud/alicloud/src/infra/utils/digest\utils_md5.c **** #define F(x,y,z) (y ^ (z & (x ^ y)))
 141:C:/Users/stapi/OneDrive/Desktop/GD32VW553/V1_MQTT_OK/GD32VW55X_Wifi_BLE_SDK/GD32VW55x_RELEASE_V1.0.2/MSDK/cloud/alicloud/src/infra/utils/digest\utils_md5.c **** 
 142:C:/Users/stapi/OneDrive/Desktop/GD32VW553/V1_MQTT_OK/GD32VW55X_Wifi_BLE_SDK/GD32VW55x_RELEASE_V1.0.2/MSDK/cloud/alicloud/src/infra/utils/digest\utils_md5.c ****     P(A, B, C, D,  1,  5, 0xF61E2562);
 705              		.loc 1 142 5
 706 0418 2E96     		add	a2,a1,a2
 707              	.LVL83:
 708              		.loc 1 142 5
 709 041a B3C5E700 		xor	a1,a5,a4
 710 041e B3F59501 		and	a1,a1,s9
 711 0422 BD8D     		xor	a1,a1,a5
 712 0424 B295     		add	a1,a1,a2
 713              	.LVL84:
 714 0426 37B640C0 		li	a2,-1069502464
 715 042a 954D     		li	s11,5
 716 042c 13060634 		addi	a2,a2,832
 717 0430 7A96     		add	a2,t5,a2
 718 0432 B395B561 		rol	a1,a1,s11
 719              	.LVL85:
 720 0436 BA95     		add	a1,a1,a4
 721              	.LVL86:
 722              		.loc 1 142 38
 143:C:/Users/stapi/OneDrive/Desktop/GD32VW553/V1_MQTT_OK/GD32VW55X_Wifi_BLE_SDK/GD32VW55x_RELEASE_V1.0.2/MSDK/cloud/alicloud/src/infra/utils/digest\utils_md5.c ****     P(D, A, B, C,  6,  9, 0xC040B340);
 723              		.loc 1 143 5
 724 0438 B29C     		add	s9,a2,s9
 725              	.LVL87:
 726              		.loc 1 143 5
 727 043a 3346B700 		xor	a2,a4,a1
 728 043e 7D8E     		and	a2,a2,a5
 729 0440 398E     		xor	a2,a2,a4
 730 0442 B7665E26 		li	a3,643719168
 731 0446 254D     		li	s10,9
 732 0448 6696     		add	a2,a2,s9
 733              	.LVL88:
 734 044a 938616A5 		addi	a3,a3,-1455
 735 044e 9A96     		add	a3,t1,a3
 736 0450 3316A661 		rol	a2,a2,s10
 737              	.LVL89:
 738 0454 2E96     		add	a2,a2,a1
 739              	.LVL90:
 740              		.loc 1 143 38
 144:C:/Users/stapi/OneDrive/Desktop/GD32VW553/V1_MQTT_OK/GD32VW55X_Wifi_BLE_SDK/GD32VW55x_RELEASE_V1.0.2/MSDK/cloud/alicloud/src/infra/utils/digest\utils_md5.c ****     P(C, D, A, B, 11, 14, 0x265E5A51);
 741              		.loc 1 144 5
 742 0456 B697     		add	a5,a3,a5
 743              	.LVL91:
 744              		.loc 1 144 5
 745 0458 B3C6C500 		xor	a3,a1,a2
 746 045c F98E     		and	a3,a3,a4
 747 045e AD8E     		xor	a3,a3,a1
 748 0460 BE96     		add	a3,a3,a5
 749              	.LVL92:
 750 0462 B7C7B6E9 		li	a5,-373899264
 751 0466 B94C     		li	s9,14
 752 0468 9387A77A 		addi	a5,a5,1962
 753 046c DA97     		add	a5,s6,a5
 754 046e B3969661 		rol	a3,a3,s9
 755              	.LVL93:
 756 0472 B296     		add	a3,a3,a2
 757              	.LVL94:
 758              		.loc 1 144 38
 145:C:/Users/stapi/OneDrive/Desktop/GD32VW553/V1_MQTT_OK/GD32VW55X_Wifi_BLE_SDK/GD32VW55x_RELEASE_V1.0.2/MSDK/cloud/alicloud/src/infra/utils/digest\utils_md5.c ****     P(B, C, D, A,  0, 20, 0xE9B6C7AA);
 759              		.loc 1 145 5
 760 0474 BA97     		add	a5,a5,a4
 761              	.LVL95:
 762              		.loc 1 145 5
 763 0476 3347D600 		xor	a4,a2,a3
 764 047a 6D8F     		and	a4,a4,a1
 765 047c 318F     		xor	a4,a4,a2
 766 047e 3E97     		add	a4,a4,a5
 767              	.LVL96:
 768 0480 B7172FD6 		li	a5,-701558784
 769 0484 9387D705 		addi	a5,a5,93
 770 0488 CE97     		add	a5,s3,a5
 771 048a 1357C760 		rori	a4,a4,12
 772              	.LVL97:
 773 048e 3697     		add	a4,a4,a3
 774              	.LVL98:
 775              		.loc 1 145 38
 146:C:/Users/stapi/OneDrive/Desktop/GD32VW553/V1_MQTT_OK/GD32VW55X_Wifi_BLE_SDK/GD32VW55x_RELEASE_V1.0.2/MSDK/cloud/alicloud/src/infra/utils/digest\utils_md5.c ****     P(A, B, C, D,  5,  5, 0xD62F105D);
 776              		.loc 1 146 5
 777 0490 AE97     		add	a5,a5,a1
 778              	.LVL99:
 779              		.loc 1 146 5
 780 0492 B3C5E600 		xor	a1,a3,a4
 781 0496 F18D     		and	a1,a1,a2
 782 0498 B58D     		xor	a1,a1,a3
 783 049a BE95     		add	a1,a1,a5
 784              	.LVL100:
 785 049c B7174402 		li	a5,38014976
 786 04a0 93873745 		addi	a5,a5,1107
 787 04a4 A297     		add	a5,s0,a5
 788 04a6 B395B561 		rol	a1,a1,s11
 789              	.LVL101:
 790 04aa BA95     		add	a1,a1,a4
 791              	.LVL102:
 792              		.loc 1 146 38
 147:C:/Users/stapi/OneDrive/Desktop/GD32VW553/V1_MQTT_OK/GD32VW55X_Wifi_BLE_SDK/GD32VW55x_RELEASE_V1.0.2/MSDK/cloud/alicloud/src/infra/utils/digest\utils_md5.c ****     P(D, A, B, C, 10,  9, 0x02441453);
 793              		.loc 1 147 5
 794 04ac B297     		add	a5,a5,a2
 795              	.LVL103:
 796              		.loc 1 147 5
 797 04ae 3346B700 		xor	a2,a4,a1
 798 04b2 758E     		and	a2,a2,a3
 799 04b4 398E     		xor	a2,a2,a4
 800 04b6 3E96     		add	a2,a2,a5
 801              	.LVL104:
 802 04b8 B7E7A1D8 		li	a5,-660480000
 803 04bc 93871768 		addi	a5,a5,1665
 804 04c0 FE97     		add	a5,t6,a5
 805 04c2 3316A661 		rol	a2,a2,s10
 806              	.LVL105:
 807 04c6 2E96     		add	a2,a2,a1
 808              	.LVL106:
 809              		.loc 1 147 38
 148:C:/Users/stapi/OneDrive/Desktop/GD32VW553/V1_MQTT_OK/GD32VW55X_Wifi_BLE_SDK/GD32VW55x_RELEASE_V1.0.2/MSDK/cloud/alicloud/src/infra/utils/digest\utils_md5.c ****     P(C, D, A, B, 15, 14, 0xD8A1E681);
 810              		.loc 1 148 5
 811 04c8 B697     		add	a5,a5,a3
 812              	.LVL107:
 813              		.loc 1 148 5
 814 04ca B3C6C500 		xor	a3,a1,a2
 815 04ce F98E     		and	a3,a3,a4
 816 04d0 AD8E     		xor	a3,a3,a1
 817 04d2 BE96     		add	a3,a3,a5
 818              	.LVL108:
 819 04d4 B707D4E7 		li	a5,-405536768
 820 04d8 938787BC 		addi	a5,a5,-1080
 821 04dc F297     		add	a5,t3,a5
 822 04de B3969661 		rol	a3,a3,s9
 823              	.LVL109:
 824 04e2 B296     		add	a3,a3,a2
 825              	.LVL110:
 826              		.loc 1 148 38
 149:C:/Users/stapi/OneDrive/Desktop/GD32VW553/V1_MQTT_OK/GD32VW55X_Wifi_BLE_SDK/GD32VW55x_RELEASE_V1.0.2/MSDK/cloud/alicloud/src/infra/utils/digest\utils_md5.c ****     P(B, C, D, A,  4, 20, 0xE7D3FBC8);
 827              		.loc 1 149 5
 828 04e4 BA97     		add	a5,a5,a4
 829              	.LVL111:
 830              		.loc 1 149 5
 831 04e6 3347D600 		xor	a4,a2,a3
 832 04ea 6D8F     		and	a4,a4,a1
 833 04ec 318F     		xor	a4,a4,a2
 834 04ee 3E97     		add	a4,a4,a5
 835              	.LVL112:
 836 04f0 B7D7E121 		li	a5,568446976
 837 04f4 938767DE 		addi	a5,a5,-538
 838 04f8 C297     		add	a5,a6,a5
 839 04fa 1357C760 		rori	a4,a4,12
 840              	.LVL113:
 841 04fe 3697     		add	a4,a4,a3
 842              	.LVL114:
 843              		.loc 1 149 38
 150:C:/Users/stapi/OneDrive/Desktop/GD32VW553/V1_MQTT_OK/GD32VW55X_Wifi_BLE_SDK/GD32VW55x_RELEASE_V1.0.2/MSDK/cloud/alicloud/src/infra/utils/digest\utils_md5.c ****     P(A, B, C, D,  9,  5, 0x21E1CDE6);
 844              		.loc 1 150 5
 845 0500 AE97     		add	a5,a5,a1
 846              	.LVL115:
 847              		.loc 1 150 5
 848 0502 B3C5E600 		xor	a1,a3,a4
 849 0506 F18D     		and	a1,a1,a2
 850 0508 B58D     		xor	a1,a1,a3
 851 050a BE95     		add	a1,a1,a5
 852              	.LVL116:
 853 050c B70737C3 		li	a5,-1019805696
 854 0510 9387677D 		addi	a5,a5,2006
 855 0514 D297     		add	a5,s4,a5
 856 0516 B395B561 		rol	a1,a1,s11
 857              	.LVL117:
 858 051a BA95     		add	a1,a1,a4
 859              	.LVL118:
 860              		.loc 1 150 38
 151:C:/Users/stapi/OneDrive/Desktop/GD32VW553/V1_MQTT_OK/GD32VW55X_Wifi_BLE_SDK/GD32VW55x_RELEASE_V1.0.2/MSDK/cloud/alicloud/src/infra/utils/digest\utils_md5.c ****     P(D, A, B, C, 14,  9, 0xC33707D6);
 861              		.loc 1 151 5
 862 051c B297     		add	a5,a5,a2
 863              	.LVL119:
 864              		.loc 1 151 5
 865 051e 3346B700 		xor	a2,a4,a1
 866 0522 758E     		and	a2,a2,a3
 867 0524 398E     		xor	a2,a2,a4
 868 0526 3E96     		add	a2,a2,a5
 869              	.LVL120:
 870 0528 B717D5F4 		li	a5,-187363328
 871 052c 938777D8 		addi	a5,a5,-633
 872 0530 A697     		add	a5,s1,a5
 873 0532 3316A661 		rol	a2,a2,s10
 874              	.LVL121:
 875 0536 2E96     		add	a2,a2,a1
 876              	.LVL122:
 877              		.loc 1 151 38
 152:C:/Users/stapi/OneDrive/Desktop/GD32VW553/V1_MQTT_OK/GD32VW55X_Wifi_BLE_SDK/GD32VW55x_RELEASE_V1.0.2/MSDK/cloud/alicloud/src/infra/utils/digest\utils_md5.c ****     P(C, D, A, B,  3, 14, 0xF4D50D87);
 878              		.loc 1 152 5
 879 0538 B697     		add	a5,a5,a3
 880              	.LVL123:
 881              		.loc 1 152 5
 882 053a B3C6C500 		xor	a3,a1,a2
 883 053e F98E     		and	a3,a3,a4
 884 0540 AD8E     		xor	a3,a3,a1
 885 0542 BE96     		add	a3,a3,a5
 886              	.LVL124:
 887 0544 B7175A45 		li	a5,1163530240
 888 0548 9387D74E 		addi	a5,a5,1261
 889 054c 9697     		add	a5,t0,a5
 890 054e B3969661 		rol	a3,a3,s9
 891              	.LVL125:
 892 0552 B296     		add	a3,a3,a2
 893              	.LVL126:
 894              		.loc 1 152 38
 153:C:/Users/stapi/OneDrive/Desktop/GD32VW553/V1_MQTT_OK/GD32VW55X_Wifi_BLE_SDK/GD32VW55x_RELEASE_V1.0.2/MSDK/cloud/alicloud/src/infra/utils/digest\utils_md5.c ****     P(B, C, D, A,  8, 20, 0x455A14ED);
 895              		.loc 1 153 5
 896 0554 BA97     		add	a5,a5,a4
 897              	.LVL127:
 898              		.loc 1 153 5
 899 0556 3347D600 		xor	a4,a2,a3
 900 055a 6D8F     		and	a4,a4,a1
 901 055c 318F     		xor	a4,a4,a2
 902 055e 3E97     		add	a4,a4,a5
 903              	.LVL128:
 904 0560 B7F7E3A9 		li	a5,-1444679680
 905 0564 93875790 		addi	a5,a5,-1787
 906 0568 F697     		add	a5,t4,a5
 907 056a 1357C760 		rori	a4,a4,12
 908              	.LVL129:
 909 056e 3697     		add	a4,a4,a3
 910              	.LVL130:
 911              		.loc 1 153 38
 154:C:/Users/stapi/OneDrive/Desktop/GD32VW553/V1_MQTT_OK/GD32VW55X_Wifi_BLE_SDK/GD32VW55x_RELEASE_V1.0.2/MSDK/cloud/alicloud/src/infra/utils/digest\utils_md5.c ****     P(A, B, C, D, 13,  5, 0xA9E3E905);
 912              		.loc 1 154 5
 913 0570 BE95     		add	a1,a5,a1
 914              	.LVL131:
 915              		.loc 1 154 5
 916 0572 B3C7E600 		xor	a5,a3,a4
 917 0576 F18F     		and	a5,a5,a2
 918 0578 B58F     		xor	a5,a5,a3
 919 057a AE97     		add	a5,a5,a1
 920              	.LVL132:
 921 057c B7A5EFFC 		li	a1,-51404800
 922 0580 9385853F 		addi	a1,a1,1016
 923 0584 C695     		add	a1,a7,a1
 924 0586 B397B761 		rol	a5,a5,s11
 925              	.LVL133:
 926 058a BA97     		add	a5,a5,a4
 927              	.LVL134:
 928              		.loc 1 154 38
 155:C:/Users/stapi/OneDrive/Desktop/GD32VW553/V1_MQTT_OK/GD32VW55X_Wifi_BLE_SDK/GD32VW55x_RELEASE_V1.0.2/MSDK/cloud/alicloud/src/infra/utils/digest\utils_md5.c ****     P(D, A, B, C,  2,  9, 0xFCEFA3F8);
 929              		.loc 1 155 5
 930 058c 2E96     		add	a2,a1,a2
 931              	.LVL135:
 932              		.loc 1 155 5
 933 058e B345F700 		xor	a1,a4,a5
 934 0592 F58D     		and	a1,a1,a3
 935 0594 B98D     		xor	a1,a1,a4
 936 0596 2E96     		add	a2,a1,a2
 937              	.LVL136:
 938 0598 331DA661 		rol	s10,a2,s10
 939 059c 37066F67 		li	a2,1735327744
 940              	.LVL137:
 941 05a0 1306962D 		addi	a2,a2,729
 942 05a4 3E9D     		add	s10,s10,a5
 943              	.LVL138:
 944              		.loc 1 155 38
 156:C:/Users/stapi/OneDrive/Desktop/GD32VW553/V1_MQTT_OK/GD32VW55X_Wifi_BLE_SDK/GD32VW55x_RELEASE_V1.0.2/MSDK/cloud/alicloud/src/infra/utils/digest\utils_md5.c ****     P(C, D, A, B,  7, 14, 0x676F02D9);
 945              		.loc 1 156 5
 946 05a6 5696     		add	a2,s5,a2
 947 05a8 3696     		add	a2,a2,a3
 948              	.LVL139:
 949              		.loc 1 156 5
 950 05aa B3C6A701 		xor	a3,a5,s10
 951 05ae F98E     		and	a3,a3,a4
 952 05b0 BD8E     		xor	a3,a3,a5
 953 05b2 B296     		add	a3,a3,a2
 954              	.LVL140:
 955 05b4 37562A8D 		li	a2,-1926606848
 956 05b8 B39C9661 		rol	s9,a3,s9
 957 05bc 1306A6C8 		addi	a2,a2,-886
 958 05c0 EA9C     		add	s9,s9,s10
 959              	.LVL141:
 960              		.loc 1 156 38
 157:C:/Users/stapi/OneDrive/Desktop/GD32VW553/V1_MQTT_OK/GD32VW55X_Wifi_BLE_SDK/GD32VW55x_RELEASE_V1.0.2/MSDK/cloud/alicloud/src/infra/utils/digest\utils_md5.c ****     P(B, C, D, A, 12, 20, 0x8D2A4C8A);
 961              		.loc 1 157 5
 962 05c2 B3469D01 		xor	a3,s10,s9
 963 05c6 4A96     		add	a2,s2,a2
 964 05c8 3A96     		add	a2,a2,a4
 965              	.LVL142:
 966              		.loc 1 157 5
 967 05ca 33F7F600 		and	a4,a3,a5
 968 05ce 3347A701 		xor	a4,a4,s10
 969 05d2 3297     		add	a4,a4,a2
 970              	.LVL143:
 971 05d4 3746FAFF 		li	a2,-376832
 972 05d8 13062694 		addi	a2,a2,-1726
 973 05dc 4E96     		add	a2,s3,a2
 974 05de 1357C760 		rori	a4,a4,12
 975              	.LVL144:
 976 05e2 6697     		add	a4,a4,s9
 977              	.LVL145:
 978              		.loc 1 157 38
 158:C:/Users/stapi/OneDrive/Desktop/GD32VW553/V1_MQTT_OK/GD32VW55X_Wifi_BLE_SDK/GD32VW55x_RELEASE_V1.0.2/MSDK/cloud/alicloud/src/infra/utils/digest\utils_md5.c **** 
 159:C:/Users/stapi/OneDrive/Desktop/GD32VW553/V1_MQTT_OK/GD32VW55X_Wifi_BLE_SDK/GD32VW55x_RELEASE_V1.0.2/MSDK/cloud/alicloud/src/infra/utils/digest\utils_md5.c **** #undef F
 160:C:/Users/stapi/OneDrive/Desktop/GD32VW553/V1_MQTT_OK/GD32VW55X_Wifi_BLE_SDK/GD32VW55x_RELEASE_V1.0.2/MSDK/cloud/alicloud/src/infra/utils/digest\utils_md5.c **** 
 161:C:/Users/stapi/OneDrive/Desktop/GD32VW553/V1_MQTT_OK/GD32VW55X_Wifi_BLE_SDK/GD32VW55x_RELEASE_V1.0.2/MSDK/cloud/alicloud/src/infra/utils/digest\utils_md5.c **** #define F(x,y,z) (x ^ y ^ z)
 162:C:/Users/stapi/OneDrive/Desktop/GD32VW553/V1_MQTT_OK/GD32VW55X_Wifi_BLE_SDK/GD32VW55x_RELEASE_V1.0.2/MSDK/cloud/alicloud/src/infra/utils/digest\utils_md5.c **** 
 163:C:/Users/stapi/OneDrive/Desktop/GD32VW553/V1_MQTT_OK/GD32VW55X_Wifi_BLE_SDK/GD32VW55x_RELEASE_V1.0.2/MSDK/cloud/alicloud/src/infra/utils/digest\utils_md5.c ****     P(A, B, C, D,  5,  4, 0xFFFA3942);
 979              		.loc 1 163 5
 980 05e4 3E96     		add	a2,a2,a5
 981              	.LVL146:
 982              		.loc 1 163 5
 983 05e6 B3C7E600 		xor	a5,a3,a4
 984 05ea B7F67187 		li	a3,-2022576128
 985              	.LVL147:
 986 05ee 93861668 		addi	a3,a3,1665
 987 05f2 9696     		add	a3,t0,a3
 988 05f4 B297     		add	a5,a5,a2
 989              	.LVL148:
 990 05f6 1146     		li	a2,4
 991 05f8 369D     		add	s10,a3,s10
 992              	.LVL149:
 993 05fa B397C760 		rol	a5,a5,a2
 994              	.LVL150:
 164:C:/Users/stapi/OneDrive/Desktop/GD32VW553/V1_MQTT_OK/GD32VW55X_Wifi_BLE_SDK/GD32VW55x_RELEASE_V1.0.2/MSDK/cloud/alicloud/src/infra/utils/digest\utils_md5.c ****     P(D, A, B, C,  8, 11, 0x8771F681);
 995              		.loc 1 164 5 is_stmt 0
 996 05fe B3C6EC00 		xor	a3,s9,a4
 163:C:/Users/stapi/OneDrive/Desktop/GD32VW553/V1_MQTT_OK/GD32VW55X_Wifi_BLE_SDK/GD32VW55x_RELEASE_V1.0.2/MSDK/cloud/alicloud/src/infra/utils/digest\utils_md5.c ****     P(D, A, B, C,  8, 11, 0x8771F681);
 997              		.loc 1 163 5
 998 0602 BA97     		add	a5,a5,a4
 999              	.LVL151:
 163:C:/Users/stapi/OneDrive/Desktop/GD32VW553/V1_MQTT_OK/GD32VW55X_Wifi_BLE_SDK/GD32VW55x_RELEASE_V1.0.2/MSDK/cloud/alicloud/src/infra/utils/digest\utils_md5.c ****     P(D, A, B, C,  8, 11, 0x8771F681);
 1000              		.loc 1 163 38 is_stmt 1
 1001              		.loc 1 164 5
 1002              		.loc 1 164 5
 1003 0604 BD8E     		xor	a3,a3,a5
 1004 0606 EA96     		add	a3,a3,s10
 1005              	.LVL152:
 1006 0608 376D9D6D 		li	s10,1839030272
 1007 060c 130D2D12 		addi	s10,s10,290
 1008 0610 AD45     		li	a1,11
 1009 0612 1A9D     		add	s10,t1,s10
 1010 0614 669D     		add	s10,s10,s9
 1011 0616 B396B660 		rol	a3,a3,a1
 1012              	.LVL153:
 165:C:/Users/stapi/OneDrive/Desktop/GD32VW553/V1_MQTT_OK/GD32VW55X_Wifi_BLE_SDK/GD32VW55x_RELEASE_V1.0.2/MSDK/cloud/alicloud/src/infra/utils/digest\utils_md5.c ****     P(C, D, A, B, 11, 16, 0x6D9D6122);
 1013              		.loc 1 165 5 is_stmt 0
 1014 061a B34CF700 		xor	s9,a4,a5
 1015              	.LVL154:
 164:C:/Users/stapi/OneDrive/Desktop/GD32VW553/V1_MQTT_OK/GD32VW55X_Wifi_BLE_SDK/GD32VW55x_RELEASE_V1.0.2/MSDK/cloud/alicloud/src/infra/utils/digest\utils_md5.c ****     P(D, A, B, C,  8, 11, 0x8771F681);
 1016              		.loc 1 164 5
 1017 061e BE96     		add	a3,a3,a5
 1018              	.LVL155:
 164:C:/Users/stapi/OneDrive/Desktop/GD32VW553/V1_MQTT_OK/GD32VW55X_Wifi_BLE_SDK/GD32VW55x_RELEASE_V1.0.2/MSDK/cloud/alicloud/src/infra/utils/digest\utils_md5.c ****     P(D, A, B, C,  8, 11, 0x8771F681);
 1019              		.loc 1 164 38 is_stmt 1
 1020              		.loc 1 165 5
 1021              		.loc 1 165 5
 1022 0620 B3CCDC00 		xor	s9,s9,a3
 1023 0624 EA9C     		add	s9,s9,s10
 1024              	.LVL156:
 1025 0626 374DE5FD 		li	s10,-35307520
 1026 062a 130DCD80 		addi	s10,s10,-2036
 1027 062e C14D     		li	s11,16
 1028 0630 529D     		add	s10,s4,s10
 1029 0632 3A9D     		add	s10,s10,a4
 1030 0634 B39CBC61 		rol	s9,s9,s11
 1031              	.LVL157:
 166:C:/Users/stapi/OneDrive/Desktop/GD32VW553/V1_MQTT_OK/GD32VW55X_Wifi_BLE_SDK/GD32VW55x_RELEASE_V1.0.2/MSDK/cloud/alicloud/src/infra/utils/digest\utils_md5.c ****     P(B, C, D, A, 14, 23, 0xFDE5380C);
 1032              		.loc 1 166 5 is_stmt 0
 1033 0638 33C7D700 		xor	a4,a5,a3
 1034              	.LVL158:
 165:C:/Users/stapi/OneDrive/Desktop/GD32VW553/V1_MQTT_OK/GD32VW55X_Wifi_BLE_SDK/GD32VW55x_RELEASE_V1.0.2/MSDK/cloud/alicloud/src/infra/utils/digest\utils_md5.c ****     P(C, D, A, B, 11, 16, 0x6D9D6122);
 1035              		.loc 1 165 5
 1036 063c B69C     		add	s9,s9,a3
 1037              	.LVL159:
 165:C:/Users/stapi/OneDrive/Desktop/GD32VW553/V1_MQTT_OK/GD32VW55X_Wifi_BLE_SDK/GD32VW55x_RELEASE_V1.0.2/MSDK/cloud/alicloud/src/infra/utils/digest\utils_md5.c ****     P(C, D, A, B, 11, 16, 0x6D9D6122);
 1038              		.loc 1 165 38 is_stmt 1
 1039              		.loc 1 166 5
 1040              		.loc 1 166 5
 1041 063e 33479701 		xor	a4,a4,s9
 1042 0642 6A97     		add	a4,a4,s10
 1043              	.LVL160:
 1044 0644 37FDBEA4 		li	s10,-1530990592
 1045 0648 130D4DA4 		addi	s10,s10,-1468
 1046 064c 1E9D     		add	s10,t2,s10
 1047 064e 3E9D     		add	s10,s10,a5
 1048 0650 13579760 		rori	a4,a4,9
 1049              	.LVL161:
 167:C:/Users/stapi/OneDrive/Desktop/GD32VW553/V1_MQTT_OK/GD32VW55X_Wifi_BLE_SDK/GD32VW55x_RELEASE_V1.0.2/MSDK/cloud/alicloud/src/infra/utils/digest\utils_md5.c ****     P(A, B, C, D,  1,  4, 0xA4BEEA44);
 1050              		.loc 1 167 5 is_stmt 0
 1051 0654 B3C79601 		xor	a5,a3,s9
 1052              	.LVL162:
 166:C:/Users/stapi/OneDrive/Desktop/GD32VW553/V1_MQTT_OK/GD32VW55X_Wifi_BLE_SDK/GD32VW55x_RELEASE_V1.0.2/MSDK/cloud/alicloud/src/infra/utils/digest\utils_md5.c ****     P(B, C, D, A, 14, 23, 0xFDE5380C);
 1053              		.loc 1 166 5
 1054 0658 6697     		add	a4,a4,s9
 1055              	.LVL163:
 166:C:/Users/stapi/OneDrive/Desktop/GD32VW553/V1_MQTT_OK/GD32VW55X_Wifi_BLE_SDK/GD32VW55x_RELEASE_V1.0.2/MSDK/cloud/alicloud/src/infra/utils/digest\utils_md5.c ****     P(B, C, D, A, 14, 23, 0xFDE5380C);
 1056              		.loc 1 166 38 is_stmt 1
 1057              		.loc 1 167 5
 1058              		.loc 1 167 5
 1059 065a B98F     		xor	a5,a5,a4
 1060 065c EA97     		add	a5,a5,s10
 1061              	.LVL164:
 1062 065e 37DDDE4B 		li	s10,1272893440
 1063 0662 130D9DFA 		addi	s10,s10,-87
 1064 0666 729D     		add	s10,t3,s10
 1065 0668 369D     		add	s10,s10,a3
 1066 066a B397C760 		rol	a5,a5,a2
 1067              	.LVL165:
 168:C:/Users/stapi/OneDrive/Desktop/GD32VW553/V1_MQTT_OK/GD32VW55X_Wifi_BLE_SDK/GD32VW55x_RELEASE_V1.0.2/MSDK/cloud/alicloud/src/infra/utils/digest\utils_md5.c ****     P(D, A, B, C,  4, 11, 0x4BDECFA9);
 1068              		.loc 1 168 5 is_stmt 0
 1069 066e B3C6EC00 		xor	a3,s9,a4
 1070              	.LVL166:
 167:C:/Users/stapi/OneDrive/Desktop/GD32VW553/V1_MQTT_OK/GD32VW55X_Wifi_BLE_SDK/GD32VW55x_RELEASE_V1.0.2/MSDK/cloud/alicloud/src/infra/utils/digest\utils_md5.c ****     P(A, B, C, D,  1,  4, 0xA4BEEA44);
 1071              		.loc 1 167 5
 1072 0672 BA97     		add	a5,a5,a4
 1073              	.LVL167:
 167:C:/Users/stapi/OneDrive/Desktop/GD32VW553/V1_MQTT_OK/GD32VW55X_Wifi_BLE_SDK/GD32VW55x_RELEASE_V1.0.2/MSDK/cloud/alicloud/src/infra/utils/digest\utils_md5.c ****     P(A, B, C, D,  1,  4, 0xA4BEEA44);
 1074              		.loc 1 167 38 is_stmt 1
 1075              		.loc 1 168 5
 1076              		.loc 1 168 5
 1077 0674 BD8E     		xor	a3,a3,a5
 1078 0676 EA96     		add	a3,a3,s10
 1079              	.LVL168:
 1080 0678 375DBBF6 		li	s10,-155496448
 1081 067c 130D0DB6 		addi	s10,s10,-1184
 1082 0680 569D     		add	s10,s5,s10
 1083 0682 669D     		add	s10,s10,s9
 1084 0684 B396B660 		rol	a3,a3,a1
 1085              	.LVL169:
 169:C:/Users/stapi/OneDrive/Desktop/GD32VW553/V1_MQTT_OK/GD32VW55X_Wifi_BLE_SDK/GD32VW55x_RELEASE_V1.0.2/MSDK/cloud/alicloud/src/infra/utils/digest\utils_md5.c ****     P(C, D, A, B,  7, 16, 0xF6BB4B60);
 1086              		.loc 1 169 5 is_stmt 0
 1087 0688 B34CF700 		xor	s9,a4,a5
 1088              	.LVL170:
 168:C:/Users/stapi/OneDrive/Desktop/GD32VW553/V1_MQTT_OK/GD32VW55X_Wifi_BLE_SDK/GD32VW55x_RELEASE_V1.0.2/MSDK/cloud/alicloud/src/infra/utils/digest\utils_md5.c ****     P(D, A, B, C,  4, 11, 0x4BDECFA9);
 1089              		.loc 1 168 5
 1090 068c BE96     		add	a3,a3,a5
 1091              	.LVL171:
 168:C:/Users/stapi/OneDrive/Desktop/GD32VW553/V1_MQTT_OK/GD32VW55X_Wifi_BLE_SDK/GD32VW55x_RELEASE_V1.0.2/MSDK/cloud/alicloud/src/infra/utils/digest\utils_md5.c ****     P(D, A, B, C,  4, 11, 0x4BDECFA9);
 1092              		.loc 1 168 38 is_stmt 1
 1093              		.loc 1 169 5
 1094              		.loc 1 169 5
 1095 068e B3CCDC00 		xor	s9,s9,a3
 1096 0692 EA9C     		add	s9,s9,s10
 1097              	.LVL172:
 1098 0694 37CDBFBE 		li	s10,-1094729728
 1099 0698 130D0DC7 		addi	s10,s10,-912
 1100 069c 229D     		add	s10,s0,s10
 1101 069e 6A97     		add	a4,s10,a4
 1102              	.LVL173:
 1103 06a0 B39CBC61 		rol	s9,s9,s11
 1104              	.LVL174:
 170:C:/Users/stapi/OneDrive/Desktop/GD32VW553/V1_MQTT_OK/GD32VW55X_Wifi_BLE_SDK/GD32VW55x_RELEASE_V1.0.2/MSDK/cloud/alicloud/src/infra/utils/digest\utils_md5.c ****     P(B, C, D, A, 10, 23, 0xBEBFBC70);
 1105              		.loc 1 170 5 is_stmt 0
 1106 06a4 33CDD700 		xor	s10,a5,a3
 169:C:/Users/stapi/OneDrive/Desktop/GD32VW553/V1_MQTT_OK/GD32VW55X_Wifi_BLE_SDK/GD32VW55x_RELEASE_V1.0.2/MSDK/cloud/alicloud/src/infra/utils/digest\utils_md5.c ****     P(C, D, A, B,  7, 16, 0xF6BB4B60);
 1107              		.loc 1 169 5
 1108 06a8 B69C     		add	s9,s9,a3
 1109              	.LVL175:
 169:C:/Users/stapi/OneDrive/Desktop/GD32VW553/V1_MQTT_OK/GD32VW55X_Wifi_BLE_SDK/GD32VW55x_RELEASE_V1.0.2/MSDK/cloud/alicloud/src/infra/utils/digest\utils_md5.c ****     P(C, D, A, B,  7, 16, 0xF6BB4B60);
 1110              		.loc 1 169 38 is_stmt 1
 1111              		.loc 1 170 5
 1112              		.loc 1 170 5
 1113 06aa 334D9D01 		xor	s10,s10,s9
 1114 06ae 3A9D     		add	s10,s10,a4
 1115              	.LVL176:
 1116 06b0 37879B28 		li	a4,681279488
 1117 06b4 130767EC 		addi	a4,a4,-314
 1118 06b8 7697     		add	a4,t4,a4
 1119 06ba BA97     		add	a5,a4,a5
 1120              	.LVL177:
 1121 06bc 135D9D60 		rori	s10,s10,9
 1122              	.LVL178:
 171:C:/Users/stapi/OneDrive/Desktop/GD32VW553/V1_MQTT_OK/GD32VW55X_Wifi_BLE_SDK/GD32VW55x_RELEASE_V1.0.2/MSDK/cloud/alicloud/src/infra/utils/digest\utils_md5.c ****     P(A, B, C, D, 13,  4, 0x289B7EC6);
 1123              		.loc 1 171 5 is_stmt 0
 1124 06c0 33C79601 		xor	a4,a3,s9
 170:C:/Users/stapi/OneDrive/Desktop/GD32VW553/V1_MQTT_OK/GD32VW55X_Wifi_BLE_SDK/GD32VW55x_RELEASE_V1.0.2/MSDK/cloud/alicloud/src/infra/utils/digest\utils_md5.c ****     P(B, C, D, A, 10, 23, 0xBEBFBC70);
 1125              		.loc 1 170 5
 1126 06c4 669D     		add	s10,s10,s9
 1127              	.LVL179:
 170:C:/Users/stapi/OneDrive/Desktop/GD32VW553/V1_MQTT_OK/GD32VW55X_Wifi_BLE_SDK/GD32VW55x_RELEASE_V1.0.2/MSDK/cloud/alicloud/src/infra/utils/digest\utils_md5.c ****     P(B, C, D, A, 10, 23, 0xBEBFBC70);
 1128              		.loc 1 170 38 is_stmt 1
 1129              		.loc 1 171 5
 1130              		.loc 1 171 5
 1131 06c6 3347A701 		xor	a4,a4,s10
 1132 06ca 3E97     		add	a4,a4,a5
 1133              	.LVL180:
 1134 06cc B727A1EA 		li	a5,-358539264
 1135 06d0 9387A77F 		addi	a5,a5,2042
 1136 06d4 DA97     		add	a5,s6,a5
 1137 06d6 B697     		add	a5,a5,a3
 1138 06d8 3317C760 		rol	a4,a4,a2
 1139              	.LVL181:
 172:C:/Users/stapi/OneDrive/Desktop/GD32VW553/V1_MQTT_OK/GD32VW55X_Wifi_BLE_SDK/GD32VW55x_RELEASE_V1.0.2/MSDK/cloud/alicloud/src/infra/utils/digest\utils_md5.c ****     P(D, A, B, C,  0, 11, 0xEAA127FA);
 1140              		.loc 1 172 5 is_stmt 0
 1141 06dc B3C6AC01 		xor	a3,s9,s10
 1142              	.LVL182:
 171:C:/Users/stapi/OneDrive/Desktop/GD32VW553/V1_MQTT_OK/GD32VW55X_Wifi_BLE_SDK/GD32VW55x_RELEASE_V1.0.2/MSDK/cloud/alicloud/src/infra/utils/digest\utils_md5.c ****     P(A, B, C, D, 13,  4, 0x289B7EC6);
 1143              		.loc 1 171 5
 1144 06e0 6A97     		add	a4,a4,s10
 1145              	.LVL183:
 171:C:/Users/stapi/OneDrive/Desktop/GD32VW553/V1_MQTT_OK/GD32VW55X_Wifi_BLE_SDK/GD32VW55x_RELEASE_V1.0.2/MSDK/cloud/alicloud/src/infra/utils/digest\utils_md5.c ****     P(A, B, C, D, 13,  4, 0x289B7EC6);
 1146              		.loc 1 171 38 is_stmt 1
 1147              		.loc 1 172 5
 1148              		.loc 1 172 5
 1149 06e2 B98E     		xor	a3,a3,a4
 1150 06e4 BE96     		add	a3,a3,a5
 1151              	.LVL184:
 1152 06e6 B737EFD4 		li	a5,-722522112
 1153 06ea 93875708 		addi	a5,a5,133
 1154 06ee A697     		add	a5,s1,a5
 1155 06f0 E697     		add	a5,a5,s9
 1156 06f2 B396B660 		rol	a3,a3,a1
 1157              	.LVL185:
 173:C:/Users/stapi/OneDrive/Desktop/GD32VW553/V1_MQTT_OK/GD32VW55X_Wifi_BLE_SDK/GD32VW55x_RELEASE_V1.0.2/MSDK/cloud/alicloud/src/infra/utils/digest\utils_md5.c ****     P(C, D, A, B,  3, 16, 0xD4EF3085);
 1158              		.loc 1 173 5 is_stmt 0
 1159 06f6 B34CED00 		xor	s9,s10,a4
 1160              	.LVL186:
 172:C:/Users/stapi/OneDrive/Desktop/GD32VW553/V1_MQTT_OK/GD32VW55X_Wifi_BLE_SDK/GD32VW55x_RELEASE_V1.0.2/MSDK/cloud/alicloud/src/infra/utils/digest\utils_md5.c ****     P(D, A, B, C,  0, 11, 0xEAA127FA);
 1161              		.loc 1 172 5
 1162 06fa BA96     		add	a3,a3,a4
 1163              	.LVL187:
 172:C:/Users/stapi/OneDrive/Desktop/GD32VW553/V1_MQTT_OK/GD32VW55X_Wifi_BLE_SDK/GD32VW55x_RELEASE_V1.0.2/MSDK/cloud/alicloud/src/infra/utils/digest\utils_md5.c ****     P(D, A, B, C,  0, 11, 0xEAA127FA);
 1164              		.loc 1 172 38 is_stmt 1
 1165              		.loc 1 173 5
 1166              		.loc 1 173 5
 1167 06fc B3CCDC00 		xor	s9,s9,a3
 1168 0700 BE9C     		add	s9,s9,a5
 1169              	.LVL188:
 1170 0702 B7278804 		li	a5,76029952
 1171 0706 938757D0 		addi	a5,a5,-763
 1172 070a FA97     		add	a5,t5,a5
 1173 070c 3E9D     		add	s10,a5,s10
 1174              	.LVL189:
 1175 070e B39CBC61 		rol	s9,s9,s11
 1176              	.LVL190:
 174:C:/Users/stapi/OneDrive/Desktop/GD32VW553/V1_MQTT_OK/GD32VW55X_Wifi_BLE_SDK/GD32VW55x_RELEASE_V1.0.2/MSDK/cloud/alicloud/src/infra/utils/digest\utils_md5.c ****     P(B, C, D, A,  6, 23, 0x04881D05);
 1177              		.loc 1 174 5 is_stmt 0
 1178 0712 B347D700 		xor	a5,a4,a3
 173:C:/Users/stapi/OneDrive/Desktop/GD32VW553/V1_MQTT_OK/GD32VW55X_Wifi_BLE_SDK/GD32VW55x_RELEASE_V1.0.2/MSDK/cloud/alicloud/src/infra/utils/digest\utils_md5.c ****     P(C, D, A, B,  3, 16, 0xD4EF3085);
 1179              		.loc 1 173 5
 1180 0716 B69C     		add	s9,s9,a3
 1181              	.LVL191:
 173:C:/Users/stapi/OneDrive/Desktop/GD32VW553/V1_MQTT_OK/GD32VW55X_Wifi_BLE_SDK/GD32VW55x_RELEASE_V1.0.2/MSDK/cloud/alicloud/src/infra/utils/digest\utils_md5.c ****     P(C, D, A, B,  3, 16, 0xD4EF3085);
 1182              		.loc 1 173 38 is_stmt 1
 1183              		.loc 1 174 5
 1184              		.loc 1 174 5
 1185 0718 B3C79701 		xor	a5,a5,s9
 1186 071c EA97     		add	a5,a5,s10
 1187              	.LVL192:
 1188 071e 37DDD4D9 		li	s10,-640364544
 1189 0722 130D9D03 		addi	s10,s10,57
 1190 0726 429D     		add	s10,a6,s10
 1191 0728 3A9D     		add	s10,s10,a4
 1192 072a 93D79760 		rori	a5,a5,9
 1193              	.LVL193:
 175:C:/Users/stapi/OneDrive/Desktop/GD32VW553/V1_MQTT_OK/GD32VW55X_Wifi_BLE_SDK/GD32VW55x_RELEASE_V1.0.2/MSDK/cloud/alicloud/src/infra/utils/digest\utils_md5.c ****     P(A, B, C, D,  9,  4, 0xD9D4D039);
 1194              		.loc 1 175 5 is_stmt 0
 1195 072e 33C79601 		xor	a4,a3,s9
 1196              	.LVL194:
 174:C:/Users/stapi/OneDrive/Desktop/GD32VW553/V1_MQTT_OK/GD32VW55X_Wifi_BLE_SDK/GD32VW55x_RELEASE_V1.0.2/MSDK/cloud/alicloud/src/infra/utils/digest\utils_md5.c ****     P(B, C, D, A,  6, 23, 0x04881D05);
 1197              		.loc 1 174 5
 1198 0732 E697     		add	a5,a5,s9
 1199              	.LVL195:
 174:C:/Users/stapi/OneDrive/Desktop/GD32VW553/V1_MQTT_OK/GD32VW55X_Wifi_BLE_SDK/GD32VW55x_RELEASE_V1.0.2/MSDK/cloud/alicloud/src/infra/utils/digest\utils_md5.c ****     P(B, C, D, A,  6, 23, 0x04881D05);
 1200              		.loc 1 174 38 is_stmt 1
 1201              		.loc 1 175 5
 1202              		.loc 1 175 5
 1203 0734 3D8F     		xor	a4,a4,a5
 1204 0736 3A9D     		add	s10,a4,s10
 1205              	.LVL196:
 1206 0738 37A7DBE6 		li	a4,-421814272
 1207 073c 1307579E 		addi	a4,a4,-1563
 1208 0740 4A97     		add	a4,s2,a4
 1209 0742 BA96     		add	a3,a4,a3
 1210              	.LVL197:
 1211 0744 331DCD60 		rol	s10,s10,a2
 1212              	.LVL198:
 176:C:/Users/stapi/OneDrive/Desktop/GD32VW553/V1_MQTT_OK/GD32VW55X_Wifi_BLE_SDK/GD32VW55x_RELEASE_V1.0.2/MSDK/cloud/alicloud/src/infra/utils/digest\utils_md5.c ****     P(D, A, B, C, 12, 11, 0xE6DB99E5);
 1213              		.loc 1 176 5 is_stmt 0
 1214 0748 33C7FC00 		xor	a4,s9,a5
 175:C:/Users/stapi/OneDrive/Desktop/GD32VW553/V1_MQTT_OK/GD32VW55X_Wifi_BLE_SDK/GD32VW55x_RELEASE_V1.0.2/MSDK/cloud/alicloud/src/infra/utils/digest\utils_md5.c ****     P(A, B, C, D,  9,  4, 0xD9D4D039);
 1215              		.loc 1 175 5
 1216 074c 3306FD00 		add	a2,s10,a5
 1217              	.LVL199:
 175:C:/Users/stapi/OneDrive/Desktop/GD32VW553/V1_MQTT_OK/GD32VW55X_Wifi_BLE_SDK/GD32VW55x_RELEASE_V1.0.2/MSDK/cloud/alicloud/src/infra/utils/digest\utils_md5.c ****     P(A, B, C, D,  9,  4, 0xD9D4D039);
 1218              		.loc 1 175 38 is_stmt 1
 1219              		.loc 1 176 5
 1220              		.loc 1 176 5
 1221 0750 318F     		xor	a4,a4,a2
 1222 0752 BA96     		add	a3,a4,a3
 1223              	.LVL200:
 1224 0754 3787A21F 		li	a4,530743296
 1225 0758 130787CF 		addi	a4,a4,-776
 1226 075c 7E97     		add	a4,t6,a4
 1227 075e 6697     		add	a4,a4,s9
 1228 0760 B395B660 		rol	a1,a3,a1
 177:C:/Users/stapi/OneDrive/Desktop/GD32VW553/V1_MQTT_OK/GD32VW55X_Wifi_BLE_SDK/GD32VW55x_RELEASE_V1.0.2/MSDK/cloud/alicloud/src/infra/utils/digest\utils_md5.c ****     P(C, D, A, B, 15, 16, 0x1FA27CF8);
 1229              		.loc 1 177 5 is_stmt 0
 1230 0764 B3CCC700 		xor	s9,a5,a2
 1231              	.LVL201:
 176:C:/Users/stapi/OneDrive/Desktop/GD32VW553/V1_MQTT_OK/GD32VW55X_Wifi_BLE_SDK/GD32VW55x_RELEASE_V1.0.2/MSDK/cloud/alicloud/src/infra/utils/digest\utils_md5.c ****     P(D, A, B, C, 12, 11, 0xE6DB99E5);
 1232              		.loc 1 176 5
 1233 0768 B295     		add	a1,a1,a2
 1234              	.LVL202:
 176:C:/Users/stapi/OneDrive/Desktop/GD32VW553/V1_MQTT_OK/GD32VW55X_Wifi_BLE_SDK/GD32VW55x_RELEASE_V1.0.2/MSDK/cloud/alicloud/src/infra/utils/digest\utils_md5.c ****     P(D, A, B, C, 12, 11, 0xE6DB99E5);
 1235              		.loc 1 176 38 is_stmt 1
 1236              		.loc 1 177 5
 1237              		.loc 1 177 5
 1238 076a B3CCBC00 		xor	s9,s9,a1
 1239 076e BA9C     		add	s9,s9,a4
 1240              	.LVL203:
 1241 0770 3757ACC4 		li	a4,-995340288
 1242 0774 13075766 		addi	a4,a4,1637
 1243 0778 4697     		add	a4,a7,a4
 1244 077a 3E97     		add	a4,a4,a5
 1245 077c B39DBC61 		rol	s11,s9,s11
 178:C:/Users/stapi/OneDrive/Desktop/GD32VW553/V1_MQTT_OK/GD32VW55X_Wifi_BLE_SDK/GD32VW55x_RELEASE_V1.0.2/MSDK/cloud/alicloud/src/infra/utils/digest\utils_md5.c ****     P(B, C, D, A,  2, 23, 0xC4AC5665);
 1246              		.loc 1 178 5 is_stmt 0
 1247 0780 B347B600 		xor	a5,a2,a1
 1248              	.LVL204:
 177:C:/Users/stapi/OneDrive/Desktop/GD32VW553/V1_MQTT_OK/GD32VW55X_Wifi_BLE_SDK/GD32VW55x_RELEASE_V1.0.2/MSDK/cloud/alicloud/src/infra/utils/digest\utils_md5.c ****     P(C, D, A, B, 15, 16, 0x1FA27CF8);
 1249              		.loc 1 177 5
 1250 0784 AE9D     		add	s11,s11,a1
 1251              	.LVL205:
 177:C:/Users/stapi/OneDrive/Desktop/GD32VW553/V1_MQTT_OK/GD32VW55X_Wifi_BLE_SDK/GD32VW55x_RELEASE_V1.0.2/MSDK/cloud/alicloud/src/infra/utils/digest\utils_md5.c ****     P(C, D, A, B, 15, 16, 0x1FA27CF8);
 1252              		.loc 1 177 38 is_stmt 1
 1253              		.loc 1 178 5
 1254              		.loc 1 178 5
 1255 0786 B3C7B701 		xor	a5,a5,s11
 1256 078a BA97     		add	a5,a5,a4
 1257              	.LVL206:
 1258 078c 372729F4 		li	a4,-198631424
 1259 0790 13074724 		addi	a4,a4,580
 1260 0794 3A9B     		add	s6,s6,a4
 1261 0796 93D79760 		rori	a5,a5,9
 1262              	.LVL207:
 1263 079a EE97     		add	a5,a5,s11
 1264              	.LVL208:
 1265              		.loc 1 178 38
 179:C:/Users/stapi/OneDrive/Desktop/GD32VW553/V1_MQTT_OK/GD32VW55X_Wifi_BLE_SDK/GD32VW55x_RELEASE_V1.0.2/MSDK/cloud/alicloud/src/infra/utils/digest\utils_md5.c **** 
 180:C:/Users/stapi/OneDrive/Desktop/GD32VW553/V1_MQTT_OK/GD32VW55X_Wifi_BLE_SDK/GD32VW55x_RELEASE_V1.0.2/MSDK/cloud/alicloud/src/infra/utils/digest\utils_md5.c **** #undef F
 181:C:/Users/stapi/OneDrive/Desktop/GD32VW553/V1_MQTT_OK/GD32VW55X_Wifi_BLE_SDK/GD32VW55x_RELEASE_V1.0.2/MSDK/cloud/alicloud/src/infra/utils/digest\utils_md5.c **** 
 182:C:/Users/stapi/OneDrive/Desktop/GD32VW553/V1_MQTT_OK/GD32VW55X_Wifi_BLE_SDK/GD32VW55x_RELEASE_V1.0.2/MSDK/cloud/alicloud/src/infra/utils/digest\utils_md5.c **** #define F(x,y,z) (y ^ (x | ~z))
 183:C:/Users/stapi/OneDrive/Desktop/GD32VW553/V1_MQTT_OK/GD32VW55X_Wifi_BLE_SDK/GD32VW55x_RELEASE_V1.0.2/MSDK/cloud/alicloud/src/infra/utils/digest\utils_md5.c **** 
 184:C:/Users/stapi/OneDrive/Desktop/GD32VW553/V1_MQTT_OK/GD32VW55X_Wifi_BLE_SDK/GD32VW55x_RELEASE_V1.0.2/MSDK/cloud/alicloud/src/infra/utils/digest\utils_md5.c ****     P(A, B, C, D,  0,  6, 0xF4292244);
 1266              		.loc 1 184 5
 1267 079c 5A96     		add	a2,s6,a2
 1268              	.LVL209:
 1269              		.loc 1 184 5
 1270 079e 37072B43 		li	a4,1126891520
 1271 07a2 33EBB740 		orn	s6,a5,a1
 1272 07a6 334BBB01 		xor	s6,s6,s11
 1273 07aa 994C     		li	s9,6
 1274 07ac 5A96     		add	a2,s6,a2
 1275              	.LVL210:
 1276 07ae 130777F9 		addi	a4,a4,-105
 1277 07b2 BA9A     		add	s5,s5,a4
 1278 07b4 33169661 		rol	a2,a2,s9
 1279              	.LVL211:
 1280 07b8 3E96     		add	a2,a2,a5
 1281              	.LVL212:
 1282              		.loc 1 184 38
 185:C:/Users/stapi/OneDrive/Desktop/GD32VW553/V1_MQTT_OK/GD32VW55X_Wifi_BLE_SDK/GD32VW55x_RELEASE_V1.0.2/MSDK/cloud/alicloud/src/infra/utils/digest\utils_md5.c ****     P(D, A, B, C,  7, 10, 0x432AFF97);
 1283              		.loc 1 185 5
 1284 07ba 3367B641 		orn	a4,a2,s11
 1285 07be D695     		add	a1,s5,a1
 1286              	.LVL213:
 1287              		.loc 1 185 5
 1288 07c0 3D8F     		xor	a4,a4,a5
 1289 07c2 B72694AB 		li	a3,-1416355840
 1290 07c6 294B     		li	s6,10
 1291 07c8 BA95     		add	a1,a4,a1
 1292              	.LVL214:
 1293 07ca 9386763A 		addi	a3,a3,935
 1294 07ce 369A     		add	s4,s4,a3
 1295 07d0 33976561 		rol	a4,a1,s6
 1296 07d4 3297     		add	a4,a4,a2
 1297              	.LVL215:
 1298              		.loc 1 185 38
 186:C:/Users/stapi/OneDrive/Desktop/GD32VW553/V1_MQTT_OK/GD32VW55X_Wifi_BLE_SDK/GD32VW55x_RELEASE_V1.0.2/MSDK/cloud/alicloud/src/infra/utils/digest\utils_md5.c ****     P(C, D, A, B, 14, 15, 0xAB9423A7);
 1299              		.loc 1 186 5
 1300 07d6 D29D     		add	s11,s4,s11
 1301              	.LVL216:
 1302              		.loc 1 186 5
 1303 07d8 B7A693FC 		li	a3,-57434112
 1304 07dc 336AF740 		orn	s4,a4,a5
 1305 07e0 334ACA00 		xor	s4,s4,a2
 1306 07e4 BD4A     		li	s5,15
 1307 07e6 D29D     		add	s11,s4,s11
 1308              	.LVL217:
 1309 07e8 93869603 		addi	a3,a3,57
 1310 07ec B699     		add	s3,s3,a3
 1311 07ee B39D5D61 		rol	s11,s11,s5
 1312              	.LVL218:
 1313 07f2 BA9D     		add	s11,s11,a4
 1314              	.LVL219:
 1315              		.loc 1 186 38
 187:C:/Users/stapi/OneDrive/Desktop/GD32VW553/V1_MQTT_OK/GD32VW55X_Wifi_BLE_SDK/GD32VW55x_RELEASE_V1.0.2/MSDK/cloud/alicloud/src/infra/utils/digest\utils_md5.c ****     P(B, C, D, A,  5, 21, 0xFC93A039);
 1316              		.loc 1 187 5
 1317 07f4 CE97     		add	a5,s3,a5
 1318              	.LVL220:
 1319              		.loc 1 187 5
 1320 07f6 B7665B65 		li	a3,1700487168
 1321 07fa B3E9CD40 		orn	s3,s11,a2
 1322 07fe B3C9E900 		xor	s3,s3,a4
 1323 0802 CE97     		add	a5,s3,a5
 1324              	.LVL221:
 1325 0804 9386369C 		addi	a3,a3,-1597
 1326 0808 3699     		add	s2,s2,a3
 1327 080a 93D7B760 		rori	a5,a5,11
 1328              	.LVL222:
 1329 080e EE97     		add	a5,a5,s11
 1330              	.LVL223:
 1331              		.loc 1 187 38
 188:C:/Users/stapi/OneDrive/Desktop/GD32VW553/V1_MQTT_OK/GD32VW55X_Wifi_BLE_SDK/GD32VW55x_RELEASE_V1.0.2/MSDK/cloud/alicloud/src/infra/utils/digest\utils_md5.c ****     P(A, B, C, D, 12,  6, 0x655B59C3);
 1332              		.loc 1 188 5
 1333 0810 4A96     		add	a2,s2,a2
 1334              	.LVL224:
 1335              		.loc 1 188 5
 1336 0812 33E9E740 		orn	s2,a5,a4
 1337 0816 3349B901 		xor	s2,s2,s11
 1338 081a 3299     		add	s2,s2,a2
 1339              	.LVL225:
 1340 081c 37D60C8F 		li	a2,-1894985728
 1341 0820 130626C9 		addi	a2,a2,-878
 1342 0824 B294     		add	s1,s1,a2
 1343 0826 33199961 		rol	s2,s2,s9
 1344              	.LVL226:
 1345 082a 3E99     		add	s2,s2,a5
 1346              	.LVL227:
 1347              		.loc 1 188 38
 189:C:/Users/stapi/OneDrive/Desktop/GD32VW553/V1_MQTT_OK/GD32VW55X_Wifi_BLE_SDK/GD32VW55x_RELEASE_V1.0.2/MSDK/cloud/alicloud/src/infra/utils/digest\utils_md5.c ****     P(D, A, B, C,  3, 10, 0x8F0CCC92);
 1348              		.loc 1 189 5
 1349 082c 3366B941 		orn	a2,s2,s11
 1350 0830 2697     		add	a4,s1,a4
 1351              	.LVL228:
 1352              		.loc 1 189 5
 1353 0832 3D8E     		xor	a2,a2,a5
 1354 0834 B7F6EFFF 		li	a3,-1052672
 1355 0838 3297     		add	a4,a2,a4
 1356              	.LVL229:
 1357 083a 9386D647 		addi	a3,a3,1149
 1358 083e 3694     		add	s0,s0,a3
 1359 0840 33166761 		rol	a2,a4,s6
 1360 0844 4A96     		add	a2,a2,s2
 1361              	.LVL230:
 1362              		.loc 1 189 38
 190:C:/Users/stapi/OneDrive/Desktop/GD32VW553/V1_MQTT_OK/GD32VW55X_Wifi_BLE_SDK/GD32VW55x_RELEASE_V1.0.2/MSDK/cloud/alicloud/src/infra/utils/digest\utils_md5.c ****     P(C, D, A, B, 10, 15, 0xFFEFF47D);
 1363              		.loc 1 190 5
 1364 0846 B366F640 		orn	a3,a2,a5
 1365 084a A29D     		add	s11,s0,s11
 1366              	.LVL231:
 1367              		.loc 1 190 5
 1368 084c B3C62601 		xor	a3,a3,s2
 1369 0850 37678485 		li	a4,-2054922240
 1370 0854 B69D     		add	s11,a3,s11
 1371              	.LVL232:
 1372 0856 130717DD 		addi	a4,a4,-559
 1373 085a B3965D61 		rol	a3,s11,s5
 1374 085e BA93     		add	t2,t2,a4
 1375 0860 B296     		add	a3,a3,a2
 1376              	.LVL233:
 1377              		.loc 1 190 38
 191:C:/Users/stapi/OneDrive/Desktop/GD32VW553/V1_MQTT_OK/GD32VW55X_Wifi_BLE_SDK/GD32VW55x_RELEASE_V1.0.2/MSDK/cloud/alicloud/src/infra/utils/digest\utils_md5.c ****     P(B, C, D, A,  1, 21, 0x85845DD1);
 1378              		.loc 1 191 5
 1379 0862 33E72641 		orn	a4,a3,s2
 1380 0866 9E97     		add	a5,t2,a5
 1381              	.LVL234:
 1382              		.loc 1 191 5
 1383 0868 318F     		xor	a4,a4,a2
 1384 086a B785A86F 		li	a1,1873313792
 1385 086e BA97     		add	a5,a4,a5
 1386              	.LVL235:
 1387 0870 9385F5E4 		addi	a1,a1,-433
 1388 0874 AE92     		add	t0,t0,a1
 1389 0876 13D7B760 		rori	a4,a5,11
 1390 087a 3697     		add	a4,a4,a3
 1391              	.LVL236:
 1392              		.loc 1 191 38
 192:C:/Users/stapi/OneDrive/Desktop/GD32VW553/V1_MQTT_OK/GD32VW55X_Wifi_BLE_SDK/GD32VW55x_RELEASE_V1.0.2/MSDK/cloud/alicloud/src/infra/utils/digest\utils_md5.c ****     P(A, B, C, D,  8,  6, 0x6FA87E4F);
 1393              		.loc 1 192 5
 1394 087c B365C740 		orn	a1,a4,a2
 1395 0880 1699     		add	s2,t0,s2
 1396              	.LVL237:
 1397              		.loc 1 192 5
 1398 0882 B58D     		xor	a1,a1,a3
 1399 0884 B7E72CFE 		li	a5,-30613504
 1400 0888 2E99     		add	s2,a1,s2
 1401              	.LVL238:
 1402 088a 9387076E 		addi	a5,a5,1760
 1403 088e BE9F     		add	t6,t6,a5
 1404 0890 B3159961 		rol	a1,s2,s9
 1405 0894 BA95     		add	a1,a1,a4
 1406              	.LVL239:
 1407              		.loc 1 192 38
 193:C:/Users/stapi/OneDrive/Desktop/GD32VW553/V1_MQTT_OK/GD32VW55X_Wifi_BLE_SDK/GD32VW55x_RELEASE_V1.0.2/MSDK/cloud/alicloud/src/infra/utils/digest\utils_md5.c ****     P(D, A, B, C, 15, 10, 0xFE2CE6E0);
 1408              		.loc 1 193 5
 1409 0896 7E96     		add	a2,t6,a2
 1410              	.LVL240:
 1411              		.loc 1 193 5
 1412 0898 B74701A3 		li	a5,-1560199168
 1413 089c B3EFD540 		orn	t6,a1,a3
 1414 08a0 B3CFEF00 		xor	t6,t6,a4
 1415 08a4 93874731 		addi	a5,a5,788
 1416 08a8 7E96     		add	a2,t6,a2
 1417              	.LVL241:
 1418 08aa 3E9F     		add	t5,t5,a5
 1419 08ac 33166661 		rol	a2,a2,s6
 1420              	.LVL242:
 1421 08b0 2E96     		add	a2,a2,a1
 1422              	.LVL243:
 1423              		.loc 1 193 38
 194:C:/Users/stapi/OneDrive/Desktop/GD32VW553/V1_MQTT_OK/GD32VW55X_Wifi_BLE_SDK/GD32VW55x_RELEASE_V1.0.2/MSDK/cloud/alicloud/src/infra/utils/digest\utils_md5.c ****     P(C, D, A, B,  6, 15, 0xA3014314);
 1424              		.loc 1 194 5
 1425 08b2 FA96     		add	a3,t5,a3
 1426              	.LVL244:
 1427              		.loc 1 194 5
 1428 08b4 B717084E 		li	a5,1309151232
 1429 08b8 336FE640 		orn	t5,a2,a4
 1430 08bc 334FBF00 		xor	t5,t5,a1
 1431 08c0 9387171A 		addi	a5,a5,417
 1432 08c4 FA96     		add	a3,t5,a3
 1433              	.LVL245:
 1434 08c6 BE9E     		add	t4,t4,a5
 1435 08c8 B3965661 		rol	a3,a3,s5
 1436              	.LVL246:
 1437 08cc B296     		add	a3,a3,a2
 1438              	.LVL247:
 1439              		.loc 1 194 38
 195:C:/Users/stapi/OneDrive/Desktop/GD32VW553/V1_MQTT_OK/GD32VW55X_Wifi_BLE_SDK/GD32VW55x_RELEASE_V1.0.2/MSDK/cloud/alicloud/src/infra/utils/digest\utils_md5.c ****     P(B, C, D, A, 13, 21, 0x4E0811A1);
 1440              		.loc 1 195 5
 1441 08ce 7697     		add	a4,t4,a4
 1442              	.LVL248:
 1443              		.loc 1 195 5
 1444 08d0 B78753F7 		li	a5,-145522688
 1445 08d4 B3EEB640 		orn	t4,a3,a1
 1446 08d8 B3CECE00 		xor	t4,t4,a2
 1447 08dc 938727E8 		addi	a5,a5,-382
 1448 08e0 7697     		add	a4,t4,a4
 1449              	.LVL249:
 1450 08e2 3E9E     		add	t3,t3,a5
 1451 08e4 1357B760 		rori	a4,a4,11
 1452              	.LVL250:
 1453 08e8 3697     		add	a4,a4,a3
 1454              	.LVL251:
 1455              		.loc 1 195 38
 196:C:/Users/stapi/OneDrive/Desktop/GD32VW553/V1_MQTT_OK/GD32VW55X_Wifi_BLE_SDK/GD32VW55x_RELEASE_V1.0.2/MSDK/cloud/alicloud/src/infra/utils/digest\utils_md5.c ****     P(A, B, C, D,  4,  6, 0xF7537E82);
 1456              		.loc 1 196 5
 1457 08ea B367C740 		orn	a5,a4,a2
 1458 08ee F295     		add	a1,t3,a1
 1459              	.LVL252:
 1460              		.loc 1 196 5
 1461 08f0 B58F     		xor	a5,a5,a3
 1462 08f2 BE95     		add	a1,a5,a1
 1463              	.LVL253:
 1464 08f4 B3979561 		rol	a5,a1,s9
 1465 08f8 B7F53ABD 		li	a1,-1120210944
 1466              	.LVL254:
 1467 08fc 93855523 		addi	a1,a1,565
 1468 0900 BA97     		add	a5,a5,a4
 1469              	.LVL255:
 1470              		.loc 1 196 38
 197:C:/Users/stapi/OneDrive/Desktop/GD32VW553/V1_MQTT_OK/GD32VW55X_Wifi_BLE_SDK/GD32VW55x_RELEASE_V1.0.2/MSDK/cloud/alicloud/src/infra/utils/digest\utils_md5.c ****     P(D, A, B, C, 11, 10, 0xBD3AF235);
 1471              		.loc 1 197 5
 1472 0902 2E93     		add	t1,t1,a1
 1473 0904 1A96     		add	a2,t1,a2
 1474              	.LVL256:
 1475              		.loc 1 197 5
 1476 0906 33E3D740 		orn	t1,a5,a3
 1477 090a 3343E300 		xor	t1,t1,a4
 1478 090e 1A96     		add	a2,t1,a2
 1479              	.LVL257:
 1480 0910 331B6661 		rol	s6,a2,s6
 1481 0914 37D6D72A 		li	a2,718786560
 1482              	.LVL258:
 1483 0918 1306B62B 		addi	a2,a2,699
 1484 091c 3E9B     		add	s6,s6,a5
 1485              	.LVL259:
 1486              		.loc 1 197 38
 198:C:/Users/stapi/OneDrive/Desktop/GD32VW553/V1_MQTT_OK/GD32VW55X_Wifi_BLE_SDK/GD32VW55x_RELEASE_V1.0.2/MSDK/cloud/alicloud/src/infra/utils/digest\utils_md5.c ****     P(C, D, A, B,  2, 15, 0x2AD7D2BB);
 1487              		.loc 1 198 5
 1488 091e B298     		add	a7,a7,a2
 1489 0920 B698     		add	a7,a7,a3
 1490              	.LVL260:
 1491              		.loc 1 198 5
 1492 0922 B366EB40 		orn	a3,s6,a4
 1493 0926 BD8E     		xor	a3,a3,a5
 1494 0928 C696     		add	a3,a3,a7
 1495              	.LVL261:
 1496 092a B39A5661 		rol	s5,a3,s5
 1497 092e B7D686EB 		li	a3,-343486464
 1498              	.LVL262:
 1499 0932 93861639 		addi	a3,a3,913
 1500 0936 3698     		add	a6,a6,a3
 199:C:/Users/stapi/OneDrive/Desktop/GD32VW553/V1_MQTT_OK/GD32VW55X_Wifi_BLE_SDK/GD32VW55x_RELEASE_V1.0.2/MSDK/cloud/alicloud/src/infra/utils/digest\utils_md5.c ****     P(B, C, D, A,  9, 21, 0xEB86D391);
 200:C:/Users/stapi/OneDrive/Desktop/GD32VW553/V1_MQTT_OK/GD32VW55X_Wifi_BLE_SDK/GD32VW55x_RELEASE_V1.0.2/MSDK/cloud/alicloud/src/infra/utils/digest\utils_md5.c **** 
 201:C:/Users/stapi/OneDrive/Desktop/GD32VW553/V1_MQTT_OK/GD32VW55X_Wifi_BLE_SDK/GD32VW55x_RELEASE_V1.0.2/MSDK/cloud/alicloud/src/infra/utils/digest\utils_md5.c **** #undef F
 202:C:/Users/stapi/OneDrive/Desktop/GD32VW553/V1_MQTT_OK/GD32VW55X_Wifi_BLE_SDK/GD32VW55x_RELEASE_V1.0.2/MSDK/cloud/alicloud/src/infra/utils/digest\utils_md5.c **** 
 203:C:/Users/stapi/OneDrive/Desktop/GD32VW553/V1_MQTT_OK/GD32VW55X_Wifi_BLE_SDK/GD32VW55x_RELEASE_V1.0.2/MSDK/cloud/alicloud/src/infra/utils/digest\utils_md5.c ****     ctx->state[0] += A;
 1501              		.loc 1 203 19 is_stmt 0
 1502 0938 1445     		lw	a3,8(a0)
 198:C:/Users/stapi/OneDrive/Desktop/GD32VW553/V1_MQTT_OK/GD32VW55X_Wifi_BLE_SDK/GD32VW55x_RELEASE_V1.0.2/MSDK/cloud/alicloud/src/infra/utils/digest\utils_md5.c ****     P(C, D, A, B,  2, 15, 0x2AD7D2BB);
 1503              		.loc 1 198 5
 1504 093a DA9A     		add	s5,s5,s6
 1505              	.LVL263:
 198:C:/Users/stapi/OneDrive/Desktop/GD32VW553/V1_MQTT_OK/GD32VW55X_Wifi_BLE_SDK/GD32VW55x_RELEASE_V1.0.2/MSDK/cloud/alicloud/src/infra/utils/digest\utils_md5.c ****     P(C, D, A, B,  2, 15, 0x2AD7D2BB);
 1506              		.loc 1 198 38 is_stmt 1
 199:C:/Users/stapi/OneDrive/Desktop/GD32VW553/V1_MQTT_OK/GD32VW55X_Wifi_BLE_SDK/GD32VW55x_RELEASE_V1.0.2/MSDK/cloud/alicloud/src/infra/utils/digest\utils_md5.c ****     P(B, C, D, A,  9, 21, 0xEB86D391);
 1507              		.loc 1 199 5
 1508 093c 4297     		add	a4,a6,a4
 1509              	.LVL264:
 199:C:/Users/stapi/OneDrive/Desktop/GD32VW553/V1_MQTT_OK/GD32VW55X_Wifi_BLE_SDK/GD32VW55x_RELEASE_V1.0.2/MSDK/cloud/alicloud/src/infra/utils/digest\utils_md5.c ****     P(B, C, D, A,  9, 21, 0xEB86D391);
 1510              		.loc 1 199 5
 199:C:/Users/stapi/OneDrive/Desktop/GD32VW553/V1_MQTT_OK/GD32VW55X_Wifi_BLE_SDK/GD32VW55x_RELEASE_V1.0.2/MSDK/cloud/alicloud/src/infra/utils/digest\utils_md5.c ****     P(B, C, D, A,  9, 21, 0xEB86D391);
 1511              		.loc 1 199 38
 1512              		.loc 1 203 5
 1513              		.loc 1 203 19 is_stmt 0
 1514 093e BE96     		add	a3,a3,a5
 199:C:/Users/stapi/OneDrive/Desktop/GD32VW553/V1_MQTT_OK/GD32VW55X_Wifi_BLE_SDK/GD32VW55x_RELEASE_V1.0.2/MSDK/cloud/alicloud/src/infra/utils/digest\utils_md5.c ****     P(B, C, D, A,  9, 21, 0xEB86D391);
 1515              		.loc 1 199 5
 1516 0940 B3E7FA40 		orn	a5,s5,a5
 1517              	.LVL265:
 1518 0944 B3C76701 		xor	a5,a5,s6
 1519              	.LVL266:
 1520 0948 BA97     		add	a5,a5,a4
 204:C:/Users/stapi/OneDrive/Desktop/GD32VW553/V1_MQTT_OK/GD32VW55X_Wifi_BLE_SDK/GD32VW55x_RELEASE_V1.0.2/MSDK/cloud/alicloud/src/infra/utils/digest\utils_md5.c ****     ctx->state[1] += B;
 1521              		.loc 1 204 19
 1522 094a D69B     		add	s7,s7,s5
 199:C:/Users/stapi/OneDrive/Desktop/GD32VW553/V1_MQTT_OK/GD32VW55X_Wifi_BLE_SDK/GD32VW55x_RELEASE_V1.0.2/MSDK/cloud/alicloud/src/infra/utils/digest\utils_md5.c ****     P(B, C, D, A,  9, 21, 0xEB86D391);
 1523              		.loc 1 199 5
 1524 094c 93D7B760 		rori	a5,a5,11
 1525              		.loc 1 204 19
 1526 0950 BE9B     		add	s7,a5,s7
 205:C:/Users/stapi/OneDrive/Desktop/GD32VW553/V1_MQTT_OK/GD32VW55X_Wifi_BLE_SDK/GD32VW55x_RELEASE_V1.0.2/MSDK/cloud/alicloud/src/infra/utils/digest\utils_md5.c ****     ctx->state[2] += C;
 206:C:/Users/stapi/OneDrive/Desktop/GD32VW553/V1_MQTT_OK/GD32VW55X_Wifi_BLE_SDK/GD32VW55x_RELEASE_V1.0.2/MSDK/cloud/alicloud/src/infra/utils/digest\utils_md5.c ****     ctx->state[3] += D;
 1527              		.loc 1 206 19
 1528 0952 5C49     		lw	a5,20(a0)
 207:C:/Users/stapi/OneDrive/Desktop/GD32VW553/V1_MQTT_OK/GD32VW55X_Wifi_BLE_SDK/GD32VW55x_RELEASE_V1.0.2/MSDK/cloud/alicloud/src/infra/utils/digest\utils_md5.c **** }
 1529              		.loc 1 207 1
 1530 0954 3254     		lw	s0,44(sp)
 1531              		.cfi_restore 8
 205:C:/Users/stapi/OneDrive/Desktop/GD32VW553/V1_MQTT_OK/GD32VW55X_Wifi_BLE_SDK/GD32VW55x_RELEASE_V1.0.2/MSDK/cloud/alicloud/src/infra/utils/digest\utils_md5.c ****     ctx->state[2] += C;
 1532              		.loc 1 205 19
 1533 0956 E29A     		add	s5,s8,s5
 1534              	.LVL267:
 206:C:/Users/stapi/OneDrive/Desktop/GD32VW553/V1_MQTT_OK/GD32VW55X_Wifi_BLE_SDK/GD32VW55x_RELEASE_V1.0.2/MSDK/cloud/alicloud/src/infra/utils/digest\utils_md5.c **** }
 1535              		.loc 1 206 19
 1536 0958 3E9B     		add	s6,a5,s6
 1537              	.LVL268:
 1538              		.loc 1 207 1
 1539 095a A254     		lw	s1,40(sp)
 1540              		.cfi_restore 9
 1541 095c 1259     		lw	s2,36(sp)
 1542              		.cfi_restore 18
 1543 095e 8259     		lw	s3,32(sp)
 1544              		.cfi_restore 19
 1545 0960 724A     		lw	s4,28(sp)
 1546              		.cfi_restore 20
 1547 0962 324C     		lw	s8,12(sp)
 1548              		.cfi_restore 24
 1549 0964 A24C     		lw	s9,8(sp)
 1550              		.cfi_restore 25
 204:C:/Users/stapi/OneDrive/Desktop/GD32VW553/V1_MQTT_OK/GD32VW55X_Wifi_BLE_SDK/GD32VW55x_RELEASE_V1.0.2/MSDK/cloud/alicloud/src/infra/utils/digest\utils_md5.c ****     ctx->state[2] += C;
 1551              		.loc 1 204 19
 1552 0966 23267501 		sw	s7,12(a0)
 1553              	.LVL269:
 205:C:/Users/stapi/OneDrive/Desktop/GD32VW553/V1_MQTT_OK/GD32VW55X_Wifi_BLE_SDK/GD32VW55x_RELEASE_V1.0.2/MSDK/cloud/alicloud/src/infra/utils/digest\utils_md5.c ****     ctx->state[3] += D;
 1554              		.loc 1 205 19
 1555 096a 23285501 		sw	s5,16(a0)
 1556              		.loc 1 207 1
 1557 096e C24B     		lw	s7,16(sp)
 1558              		.cfi_restore 23
 1559 0970 E24A     		lw	s5,24(sp)
 1560              		.cfi_restore 21
 206:C:/Users/stapi/OneDrive/Desktop/GD32VW553/V1_MQTT_OK/GD32VW55X_Wifi_BLE_SDK/GD32VW55x_RELEASE_V1.0.2/MSDK/cloud/alicloud/src/infra/utils/digest\utils_md5.c **** }
 1561              		.loc 1 206 19
 1562 0972 232A6501 		sw	s6,20(a0)
 203:C:/Users/stapi/OneDrive/Desktop/GD32VW553/V1_MQTT_OK/GD32VW55X_Wifi_BLE_SDK/GD32VW55x_RELEASE_V1.0.2/MSDK/cloud/alicloud/src/infra/utils/digest\utils_md5.c ****     ctx->state[1] += B;
 1563              		.loc 1 203 19
 1564 0976 14C5     		sw	a3,8(a0)
 204:C:/Users/stapi/OneDrive/Desktop/GD32VW553/V1_MQTT_OK/GD32VW55X_Wifi_BLE_SDK/GD32VW55x_RELEASE_V1.0.2/MSDK/cloud/alicloud/src/infra/utils/digest\utils_md5.c ****     ctx->state[2] += C;
 1565              		.loc 1 204 5 is_stmt 1
 205:C:/Users/stapi/OneDrive/Desktop/GD32VW553/V1_MQTT_OK/GD32VW55X_Wifi_BLE_SDK/GD32VW55x_RELEASE_V1.0.2/MSDK/cloud/alicloud/src/infra/utils/digest\utils_md5.c ****     ctx->state[3] += D;
 1566              		.loc 1 205 5
 206:C:/Users/stapi/OneDrive/Desktop/GD32VW553/V1_MQTT_OK/GD32VW55X_Wifi_BLE_SDK/GD32VW55x_RELEASE_V1.0.2/MSDK/cloud/alicloud/src/infra/utils/digest\utils_md5.c **** }
 1567              		.loc 1 206 5
 1568              		.loc 1 207 1 is_stmt 0
 1569 0978 524B     		lw	s6,20(sp)
 1570              		.cfi_restore 22
 1571 097a 124D     		lw	s10,4(sp)
 1572              		.cfi_restore 26
 1573 097c 824D     		lw	s11,0(sp)
 1574              		.cfi_restore 27
 1575 097e 4561     		addi	sp,sp,48
 1576              		.cfi_def_cfa_offset 0
 1577 0980 8280     		jr	ra
 1578              		.cfi_endproc
 1579              	.LFE9:
 1581              		.section	.text.utils_md5_update.part.0,"ax",@progbits
 1582              		.align	1
 1584              	utils_md5_update.part.0:
 1585              	.LFB15:
 208:C:/Users/stapi/OneDrive/Desktop/GD32VW553/V1_MQTT_OK/GD32VW55X_Wifi_BLE_SDK/GD32VW55x_RELEASE_V1.0.2/MSDK/cloud/alicloud/src/infra/utils/digest\utils_md5.c **** 
 209:C:/Users/stapi/OneDrive/Desktop/GD32VW553/V1_MQTT_OK/GD32VW55X_Wifi_BLE_SDK/GD32VW55x_RELEASE_V1.0.2/MSDK/cloud/alicloud/src/infra/utils/digest\utils_md5.c **** /*
 210:C:/Users/stapi/OneDrive/Desktop/GD32VW553/V1_MQTT_OK/GD32VW55X_Wifi_BLE_SDK/GD32VW55x_RELEASE_V1.0.2/MSDK/cloud/alicloud/src/infra/utils/digest\utils_md5.c ****  * MD5 process buffer
 211:C:/Users/stapi/OneDrive/Desktop/GD32VW553/V1_MQTT_OK/GD32VW55X_Wifi_BLE_SDK/GD32VW55x_RELEASE_V1.0.2/MSDK/cloud/alicloud/src/infra/utils/digest\utils_md5.c ****  */
 212:C:/Users/stapi/OneDrive/Desktop/GD32VW553/V1_MQTT_OK/GD32VW55X_Wifi_BLE_SDK/GD32VW55x_RELEASE_V1.0.2/MSDK/cloud/alicloud/src/infra/utils/digest\utils_md5.c **** void utils_md5_update(iot_md5_context *ctx, const unsigned char *input, size_t ilen)
 1586              		.loc 1 212 6 is_stmt 1
 1587              		.cfi_startproc
 1588              	.LVL270:
 1589 0000 17030000 		call	t0,__riscv_save_7
 1589      E7020300 
 1590              		.cfi_offset 22, -32
 1591              		.cfi_offset 21, -28
 1592              		.cfi_offset 20, -24
 1593              		.cfi_offset 19, -20
 1594              		.cfi_offset 18, -16
 1595              		.cfi_offset 9, -12
 1596              		.cfi_offset 8, -8
 1597              		.cfi_offset 1, -4
 1598              		.cfi_def_cfa_offset 32
 213:C:/Users/stapi/OneDrive/Desktop/GD32VW553/V1_MQTT_OK/GD32VW55X_Wifi_BLE_SDK/GD32VW55x_RELEASE_V1.0.2/MSDK/cloud/alicloud/src/infra/utils/digest\utils_md5.c **** {
 214:C:/Users/stapi/OneDrive/Desktop/GD32VW553/V1_MQTT_OK/GD32VW55X_Wifi_BLE_SDK/GD32VW55x_RELEASE_V1.0.2/MSDK/cloud/alicloud/src/infra/utils/digest\utils_md5.c ****     size_t fill;
 215:C:/Users/stapi/OneDrive/Desktop/GD32VW553/V1_MQTT_OK/GD32VW55X_Wifi_BLE_SDK/GD32VW55x_RELEASE_V1.0.2/MSDK/cloud/alicloud/src/infra/utils/digest\utils_md5.c ****     uint32_t left;
 216:C:/Users/stapi/OneDrive/Desktop/GD32VW553/V1_MQTT_OK/GD32VW55X_Wifi_BLE_SDK/GD32VW55x_RELEASE_V1.0.2/MSDK/cloud/alicloud/src/infra/utils/digest\utils_md5.c **** 
 217:C:/Users/stapi/OneDrive/Desktop/GD32VW553/V1_MQTT_OK/GD32VW55X_Wifi_BLE_SDK/GD32VW55x_RELEASE_V1.0.2/MSDK/cloud/alicloud/src/infra/utils/digest\utils_md5.c ****     if (ilen == 0) {
 218:C:/Users/stapi/OneDrive/Desktop/GD32VW553/V1_MQTT_OK/GD32VW55X_Wifi_BLE_SDK/GD32VW55x_RELEASE_V1.0.2/MSDK/cloud/alicloud/src/infra/utils/digest\utils_md5.c ****         return;
 219:C:/Users/stapi/OneDrive/Desktop/GD32VW553/V1_MQTT_OK/GD32VW55X_Wifi_BLE_SDK/GD32VW55x_RELEASE_V1.0.2/MSDK/cloud/alicloud/src/infra/utils/digest\utils_md5.c ****     }
 220:C:/Users/stapi/OneDrive/Desktop/GD32VW553/V1_MQTT_OK/GD32VW55X_Wifi_BLE_SDK/GD32VW55x_RELEASE_V1.0.2/MSDK/cloud/alicloud/src/infra/utils/digest\utils_md5.c **** 
 221:C:/Users/stapi/OneDrive/Desktop/GD32VW553/V1_MQTT_OK/GD32VW55X_Wifi_BLE_SDK/GD32VW55x_RELEASE_V1.0.2/MSDK/cloud/alicloud/src/infra/utils/digest\utils_md5.c ****     left = ctx->total[0] & 0x3F;
 1599              		.loc 1 221 5
 1600              		.loc 1 221 22 is_stmt 0
 1601 0008 1C41     		lw	a5,0(a0)
 212:C:/Users/stapi/OneDrive/Desktop/GD32VW553/V1_MQTT_OK/GD32VW55X_Wifi_BLE_SDK/GD32VW55x_RELEASE_V1.0.2/MSDK/cloud/alicloud/src/infra/utils/digest\utils_md5.c **** {
 1602              		.loc 1 212 6
 1603 000a AA84     		mv	s1,a0
 1604 000c 2E89     		mv	s2,a1
 1605              		.loc 1 221 10
 1606 000e 93F9F703 		andi	s3,a5,63
 1607              	.LVL271:
 222:C:/Users/stapi/OneDrive/Desktop/GD32VW553/V1_MQTT_OK/GD32VW55X_Wifi_BLE_SDK/GD32VW55x_RELEASE_V1.0.2/MSDK/cloud/alicloud/src/infra/utils/digest\utils_md5.c ****     fill = 64 - left;
 1608              		.loc 1 222 5 is_stmt 1
 223:C:/Users/stapi/OneDrive/Desktop/GD32VW553/V1_MQTT_OK/GD32VW55X_Wifi_BLE_SDK/GD32VW55x_RELEASE_V1.0.2/MSDK/cloud/alicloud/src/infra/utils/digest\utils_md5.c **** 
 224:C:/Users/stapi/OneDrive/Desktop/GD32VW553/V1_MQTT_OK/GD32VW55X_Wifi_BLE_SDK/GD32VW55x_RELEASE_V1.0.2/MSDK/cloud/alicloud/src/infra/utils/digest\utils_md5.c ****     ctx->total[0] += (uint32_t) ilen;
 1609              		.loc 1 224 5
 1610              		.loc 1 224 19 is_stmt 0
 1611 0012 B297     		add	a5,a5,a2
 1612 0014 1CC1     		sw	a5,0(a0)
 225:C:/Users/stapi/OneDrive/Desktop/GD32VW553/V1_MQTT_OK/GD32VW55X_Wifi_BLE_SDK/GD32VW55x_RELEASE_V1.0.2/MSDK/cloud/alicloud/src/infra/utils/digest\utils_md5.c ****     ctx->total[0] &= 0xFFFFFFFF;
 1613              		.loc 1 225 5 is_stmt 1
 226:C:/Users/stapi/OneDrive/Desktop/GD32VW553/V1_MQTT_OK/GD32VW55X_Wifi_BLE_SDK/GD32VW55x_RELEASE_V1.0.2/MSDK/cloud/alicloud/src/infra/utils/digest\utils_md5.c **** 
 227:C:/Users/stapi/OneDrive/Desktop/GD32VW553/V1_MQTT_OK/GD32VW55X_Wifi_BLE_SDK/GD32VW55x_RELEASE_V1.0.2/MSDK/cloud/alicloud/src/infra/utils/digest\utils_md5.c ****     if (ctx->total[0] < (uint32_t) ilen) {
 1614              		.loc 1 227 5
 212:C:/Users/stapi/OneDrive/Desktop/GD32VW553/V1_MQTT_OK/GD32VW55X_Wifi_BLE_SDK/GD32VW55x_RELEASE_V1.0.2/MSDK/cloud/alicloud/src/infra/utils/digest\utils_md5.c **** {
 1615              		.loc 1 212 6 is_stmt 0
 1616 0016 3284     		mv	s0,a2
 1617              		.loc 1 227 8
 1618 0018 63F5C700 		bleu	a2,a5,.L16
 228:C:/Users/stapi/OneDrive/Desktop/GD32VW553/V1_MQTT_OK/GD32VW55X_Wifi_BLE_SDK/GD32VW55x_RELEASE_V1.0.2/MSDK/cloud/alicloud/src/infra/utils/digest\utils_md5.c ****         ctx->total[1]++;
 1619              		.loc 1 228 9 is_stmt 1
 1620              		.loc 1 228 22 is_stmt 0
 1621 001c 5C41     		lw	a5,4(a0)
 1622 001e 8507     		addi	a5,a5,1
 1623 0020 5CC1     		sw	a5,4(a0)
 1624              	.L16:
 229:C:/Users/stapi/OneDrive/Desktop/GD32VW553/V1_MQTT_OK/GD32VW55X_Wifi_BLE_SDK/GD32VW55x_RELEASE_V1.0.2/MSDK/cloud/alicloud/src/infra/utils/digest\utils_md5.c ****     }
 230:C:/Users/stapi/OneDrive/Desktop/GD32VW553/V1_MQTT_OK/GD32VW55X_Wifi_BLE_SDK/GD32VW55x_RELEASE_V1.0.2/MSDK/cloud/alicloud/src/infra/utils/digest\utils_md5.c **** 
 231:C:/Users/stapi/OneDrive/Desktop/GD32VW553/V1_MQTT_OK/GD32VW55X_Wifi_BLE_SDK/GD32VW55x_RELEASE_V1.0.2/MSDK/cloud/alicloud/src/infra/utils/digest\utils_md5.c ****     if (left && ilen >= fill) {
 1625              		.loc 1 231 5 is_stmt 1
 1626              		.loc 1 231 8 is_stmt 0
 1627 0022 638D0902 		beq	s3,zero,.L17
 222:C:/Users/stapi/OneDrive/Desktop/GD32VW553/V1_MQTT_OK/GD32VW55X_Wifi_BLE_SDK/GD32VW55x_RELEASE_V1.0.2/MSDK/cloud/alicloud/src/infra/utils/digest\utils_md5.c **** 
 1628              		.loc 1 222 10
 1629 0026 130A0004 		li	s4,64
 1630 002a 330A3A41 		sub	s4,s4,s3
 1631              		.loc 1 231 14
 1632 002e 63674403 		bgtu	s4,s0,.L17
 232:C:/Users/stapi/OneDrive/Desktop/GD32VW553/V1_MQTT_OK/GD32VW55X_Wifi_BLE_SDK/GD32VW55x_RELEASE_V1.0.2/MSDK/cloud/alicloud/src/infra/utils/digest\utils_md5.c ****         memcpy((void *)(ctx->buffer + left), input, fill);
 1633              		.loc 1 232 9 is_stmt 1
 1634              		.loc 1 232 25 is_stmt 0
 1635 0032 938A8401 		addi	s5,s1,24
 1636              		.loc 1 232 9
 1637 0036 CA85     		mv	a1,s2
 1638              	.LVL272:
 1639 0038 5286     		mv	a2,s4
 1640              	.LVL273:
 1641 003a 33853A01 		add	a0,s5,s3
 1642              	.LVL274:
 1643 003e 97000000 		call	memcpy
 1643      E7800000 
 1644              	.LVL275:
 233:C:/Users/stapi/OneDrive/Desktop/GD32VW553/V1_MQTT_OK/GD32VW55X_Wifi_BLE_SDK/GD32VW55x_RELEASE_V1.0.2/MSDK/cloud/alicloud/src/infra/utils/digest\utils_md5.c ****         utils_md5_process(ctx, ctx->buffer);
 1645              		.loc 1 233 9 is_stmt 1
 1646 0046 D685     		mv	a1,s5
 1647 0048 2685     		mv	a0,s1
 1648 004a 130404FC 		addi	s0,s0,-64
 1649              	.LVL276:
 234:C:/Users/stapi/OneDrive/Desktop/GD32VW553/V1_MQTT_OK/GD32VW55X_Wifi_BLE_SDK/GD32VW55x_RELEASE_V1.0.2/MSDK/cloud/alicloud/src/infra/utils/digest\utils_md5.c ****         input += fill;
 235:C:/Users/stapi/OneDrive/Desktop/GD32VW553/V1_MQTT_OK/GD32VW55X_Wifi_BLE_SDK/GD32VW55x_RELEASE_V1.0.2/MSDK/cloud/alicloud/src/infra/utils/digest\utils_md5.c ****         ilen  -= fill;
 1650              		.loc 1 235 15 is_stmt 0
 1651 004e 4E94     		add	s0,s3,s0
 1652              	.LVL277:
 233:C:/Users/stapi/OneDrive/Desktop/GD32VW553/V1_MQTT_OK/GD32VW55X_Wifi_BLE_SDK/GD32VW55x_RELEASE_V1.0.2/MSDK/cloud/alicloud/src/infra/utils/digest\utils_md5.c ****         utils_md5_process(ctx, ctx->buffer);
 1653              		.loc 1 233 9
 1654 0050 97000000 		call	utils_md5_process
 1654      E7800000 
 1655              	.LVL278:
 234:C:/Users/stapi/OneDrive/Desktop/GD32VW553/V1_MQTT_OK/GD32VW55X_Wifi_BLE_SDK/GD32VW55x_RELEASE_V1.0.2/MSDK/cloud/alicloud/src/infra/utils/digest\utils_md5.c ****         input += fill;
 1656              		.loc 1 234 9 is_stmt 1
 234:C:/Users/stapi/OneDrive/Desktop/GD32VW553/V1_MQTT_OK/GD32VW55X_Wifi_BLE_SDK/GD32VW55x_RELEASE_V1.0.2/MSDK/cloud/alicloud/src/infra/utils/digest\utils_md5.c ****         input += fill;
 1657              		.loc 1 234 15 is_stmt 0
 1658 0058 5299     		add	s2,s2,s4
 1659              	.LVL279:
 1660              		.loc 1 235 9 is_stmt 1
 236:C:/Users/stapi/OneDrive/Desktop/GD32VW553/V1_MQTT_OK/GD32VW55X_Wifi_BLE_SDK/GD32VW55x_RELEASE_V1.0.2/MSDK/cloud/alicloud/src/infra/utils/digest\utils_md5.c ****         left = 0;
 1661              		.loc 1 236 9
 1662              		.loc 1 236 14 is_stmt 0
 1663 005a 8149     		li	s3,0
 1664              	.LVL280:
 1665              	.L17:
 1666 005c 228A     		mv	s4,s0
 1667 005e 330B8900 		add	s6,s2,s0
 237:C:/Users/stapi/OneDrive/Desktop/GD32VW553/V1_MQTT_OK/GD32VW55X_Wifi_BLE_SDK/GD32VW55x_RELEASE_V1.0.2/MSDK/cloud/alicloud/src/infra/utils/digest\utils_md5.c ****     }
 238:C:/Users/stapi/OneDrive/Desktop/GD32VW553/V1_MQTT_OK/GD32VW55X_Wifi_BLE_SDK/GD32VW55x_RELEASE_V1.0.2/MSDK/cloud/alicloud/src/infra/utils/digest\utils_md5.c **** 
 239:C:/Users/stapi/OneDrive/Desktop/GD32VW553/V1_MQTT_OK/GD32VW55X_Wifi_BLE_SDK/GD32VW55x_RELEASE_V1.0.2/MSDK/cloud/alicloud/src/infra/utils/digest\utils_md5.c ****     while (ilen >= 64) {
 1668              		.loc 1 239 11
 1669 0062 930AF003 		li	s5,63
 1670 0066 01A8     		j	.L18
 1671              	.LVL281:
 1672              	.L19:
 240:C:/Users/stapi/OneDrive/Desktop/GD32VW553/V1_MQTT_OK/GD32VW55X_Wifi_BLE_SDK/GD32VW55x_RELEASE_V1.0.2/MSDK/cloud/alicloud/src/infra/utils/digest\utils_md5.c ****         utils_md5_process(ctx, input);
 1673              		.loc 1 240 9 is_stmt 1
 1674 0068 2685     		mv	a0,s1
 1675 006a 97000000 		call	utils_md5_process
 1675      E7800000 
 1676              	.LVL282:
 241:C:/Users/stapi/OneDrive/Desktop/GD32VW553/V1_MQTT_OK/GD32VW55X_Wifi_BLE_SDK/GD32VW55x_RELEASE_V1.0.2/MSDK/cloud/alicloud/src/infra/utils/digest\utils_md5.c ****         input += 64;
 1677              		.loc 1 241 9
 242:C:/Users/stapi/OneDrive/Desktop/GD32VW553/V1_MQTT_OK/GD32VW55X_Wifi_BLE_SDK/GD32VW55x_RELEASE_V1.0.2/MSDK/cloud/alicloud/src/infra/utils/digest\utils_md5.c ****         ilen  -= 64;
 1678              		.loc 1 242 9
 1679              		.loc 1 242 15 is_stmt 0
 1680 0072 130A0AFC 		addi	s4,s4,-64
 1681              	.LVL283:
 1682              	.L18:
 1683 0076 B3054B41 		sub	a1,s6,s4
 1684              	.LVL284:
 239:C:/Users/stapi/OneDrive/Desktop/GD32VW553/V1_MQTT_OK/GD32VW55X_Wifi_BLE_SDK/GD32VW55x_RELEASE_V1.0.2/MSDK/cloud/alicloud/src/infra/utils/digest\utils_md5.c ****         utils_md5_process(ctx, input);
 1685              		.loc 1 239 11 is_stmt 1
 1686 007a E3E74AFF 		bgtu	s4,s5,.L19
 1687 007e 13576400 		srli	a4,s0,6
 1688 0082 937504FC 		andi	a1,s0,-64
 1689              	.LVL285:
 1690 0086 930700FC 		li	a5,-64
 1691 008a 2286     		mv	a2,s0
 1692 008c CA95     		add	a1,s2,a1
 1693 008e 7F16F7C4 		maddr32	a2, a4, a5
 243:C:/Users/stapi/OneDrive/Desktop/GD32VW553/V1_MQTT_OK/GD32VW55X_Wifi_BLE_SDK/GD32VW55x_RELEASE_V1.0.2/MSDK/cloud/alicloud/src/infra/utils/digest\utils_md5.c ****     }
 244:C:/Users/stapi/OneDrive/Desktop/GD32VW553/V1_MQTT_OK/GD32VW55X_Wifi_BLE_SDK/GD32VW55x_RELEASE_V1.0.2/MSDK/cloud/alicloud/src/infra/utils/digest\utils_md5.c **** 
 245:C:/Users/stapi/OneDrive/Desktop/GD32VW553/V1_MQTT_OK/GD32VW55X_Wifi_BLE_SDK/GD32VW55x_RELEASE_V1.0.2/MSDK/cloud/alicloud/src/infra/utils/digest\utils_md5.c ****     if (ilen > 0) {
 1694              		.loc 1 245 5
 1695              		.loc 1 245 8 is_stmt 0
 1696 0092 01CA     		beq	a2,zero,.L15
 246:C:/Users/stapi/OneDrive/Desktop/GD32VW553/V1_MQTT_OK/GD32VW55X_Wifi_BLE_SDK/GD32VW55x_RELEASE_V1.0.2/MSDK/cloud/alicloud/src/infra/utils/digest\utils_md5.c ****         memcpy((void *)(ctx->buffer + left), input, ilen);
 1697              		.loc 1 246 9 is_stmt 1
 1698              		.loc 1 246 25 is_stmt 0
 1699 0094 13858401 		addi	a0,s1,24
 1700              		.loc 1 246 9
 1701 0098 4E95     		add	a0,a0,s3
 1702 009a 97000000 		call	memcpy
 1702      E7800000 
 1703              	.LVL286:
 1704              	.L15:
 247:C:/Users/stapi/OneDrive/Desktop/GD32VW553/V1_MQTT_OK/GD32VW55X_Wifi_BLE_SDK/GD32VW55x_RELEASE_V1.0.2/MSDK/cloud/alicloud/src/infra/utils/digest\utils_md5.c ****     }
 248:C:/Users/stapi/OneDrive/Desktop/GD32VW553/V1_MQTT_OK/GD32VW55X_Wifi_BLE_SDK/GD32VW55x_RELEASE_V1.0.2/MSDK/cloud/alicloud/src/infra/utils/digest\utils_md5.c **** }
 1705              		.loc 1 248 1
 1706 00a2 17030000 		tail	__riscv_restore_7
 1706      67000300 
 1707              		.cfi_restore 22
 1708              		.cfi_restore 21
 1709              		.cfi_restore 20
 1710              		.cfi_restore 19
 1711              		.cfi_restore 18
 1712              		.cfi_restore 9
 1713              		.cfi_restore 8
 1714              		.cfi_restore 1
 1715              		.cfi_def_cfa_offset 0
 1716              		.cfi_endproc
 1717              	.LFE15:
 1719              		.section	.text.utils_md5_update,"ax",@progbits
 1720              		.align	1
 1721              		.globl	utils_md5_update
 1723              	utils_md5_update:
 1724              	.LFB10:
 213:C:/Users/stapi/OneDrive/Desktop/GD32VW553/V1_MQTT_OK/GD32VW55X_Wifi_BLE_SDK/GD32VW55x_RELEASE_V1.0.2/MSDK/cloud/alicloud/src/infra/utils/digest\utils_md5.c ****     size_t fill;
 1725              		.loc 1 213 1 is_stmt 1
 1726              		.cfi_startproc
 1727              	.LVL287:
 214:C:/Users/stapi/OneDrive/Desktop/GD32VW553/V1_MQTT_OK/GD32VW55X_Wifi_BLE_SDK/GD32VW55x_RELEASE_V1.0.2/MSDK/cloud/alicloud/src/infra/utils/digest\utils_md5.c ****     uint32_t left;
 1728              		.loc 1 214 5
 215:C:/Users/stapi/OneDrive/Desktop/GD32VW553/V1_MQTT_OK/GD32VW55X_Wifi_BLE_SDK/GD32VW55x_RELEASE_V1.0.2/MSDK/cloud/alicloud/src/infra/utils/digest\utils_md5.c **** 
 1729              		.loc 1 215 5
 217:C:/Users/stapi/OneDrive/Desktop/GD32VW553/V1_MQTT_OK/GD32VW55X_Wifi_BLE_SDK/GD32VW55x_RELEASE_V1.0.2/MSDK/cloud/alicloud/src/infra/utils/digest\utils_md5.c ****         return;
 1730              		.loc 1 217 5
 217:C:/Users/stapi/OneDrive/Desktop/GD32VW553/V1_MQTT_OK/GD32VW55X_Wifi_BLE_SDK/GD32VW55x_RELEASE_V1.0.2/MSDK/cloud/alicloud/src/infra/utils/digest\utils_md5.c ****         return;
 1731              		.loc 1 217 8 is_stmt 0
 1732 0000 09C6     		beq	a2,zero,.L34
 1733 0002 17030000 		tail	utils_md5_update.part.0
 1733      67000300 
 1734              	.LVL288:
 1735              	.L34:
 1736 000a 8280     		ret
 1737              		.cfi_endproc
 1738              	.LFE10:
 1740              		.section	.text.utils_md5_finish,"ax",@progbits
 1741              		.align	1
 1742              		.globl	utils_md5_finish
 1744              	utils_md5_finish:
 1745              	.LFB11:
 249:C:/Users/stapi/OneDrive/Desktop/GD32VW553/V1_MQTT_OK/GD32VW55X_Wifi_BLE_SDK/GD32VW55x_RELEASE_V1.0.2/MSDK/cloud/alicloud/src/infra/utils/digest\utils_md5.c **** 
 250:C:/Users/stapi/OneDrive/Desktop/GD32VW553/V1_MQTT_OK/GD32VW55X_Wifi_BLE_SDK/GD32VW55x_RELEASE_V1.0.2/MSDK/cloud/alicloud/src/infra/utils/digest\utils_md5.c **** static const unsigned char iot_md5_padding[64] = {
 251:C:/Users/stapi/OneDrive/Desktop/GD32VW553/V1_MQTT_OK/GD32VW55X_Wifi_BLE_SDK/GD32VW55x_RELEASE_V1.0.2/MSDK/cloud/alicloud/src/infra/utils/digest\utils_md5.c ****     0x80, 0, 0, 0, 0, 0, 0, 0, 0, 0, 0, 0, 0, 0, 0, 0,
 252:C:/Users/stapi/OneDrive/Desktop/GD32VW553/V1_MQTT_OK/GD32VW55X_Wifi_BLE_SDK/GD32VW55x_RELEASE_V1.0.2/MSDK/cloud/alicloud/src/infra/utils/digest\utils_md5.c ****     0, 0, 0, 0, 0, 0, 0, 0, 0, 0, 0, 0, 0, 0, 0, 0,
 253:C:/Users/stapi/OneDrive/Desktop/GD32VW553/V1_MQTT_OK/GD32VW55X_Wifi_BLE_SDK/GD32VW55x_RELEASE_V1.0.2/MSDK/cloud/alicloud/src/infra/utils/digest\utils_md5.c ****     0, 0, 0, 0, 0, 0, 0, 0, 0, 0, 0, 0, 0, 0, 0, 0,
 254:C:/Users/stapi/OneDrive/Desktop/GD32VW553/V1_MQTT_OK/GD32VW55X_Wifi_BLE_SDK/GD32VW55x_RELEASE_V1.0.2/MSDK/cloud/alicloud/src/infra/utils/digest\utils_md5.c ****     0, 0, 0, 0, 0, 0, 0, 0, 0, 0, 0, 0, 0, 0, 0, 0
 255:C:/Users/stapi/OneDrive/Desktop/GD32VW553/V1_MQTT_OK/GD32VW55X_Wifi_BLE_SDK/GD32VW55x_RELEASE_V1.0.2/MSDK/cloud/alicloud/src/infra/utils/digest\utils_md5.c **** };
 256:C:/Users/stapi/OneDrive/Desktop/GD32VW553/V1_MQTT_OK/GD32VW55X_Wifi_BLE_SDK/GD32VW55x_RELEASE_V1.0.2/MSDK/cloud/alicloud/src/infra/utils/digest\utils_md5.c **** 
 257:C:/Users/stapi/OneDrive/Desktop/GD32VW553/V1_MQTT_OK/GD32VW55X_Wifi_BLE_SDK/GD32VW55x_RELEASE_V1.0.2/MSDK/cloud/alicloud/src/infra/utils/digest\utils_md5.c **** /*
 258:C:/Users/stapi/OneDrive/Desktop/GD32VW553/V1_MQTT_OK/GD32VW55X_Wifi_BLE_SDK/GD32VW55x_RELEASE_V1.0.2/MSDK/cloud/alicloud/src/infra/utils/digest\utils_md5.c ****  * MD5 final digest
 259:C:/Users/stapi/OneDrive/Desktop/GD32VW553/V1_MQTT_OK/GD32VW55X_Wifi_BLE_SDK/GD32VW55x_RELEASE_V1.0.2/MSDK/cloud/alicloud/src/infra/utils/digest\utils_md5.c ****  */
 260:C:/Users/stapi/OneDrive/Desktop/GD32VW553/V1_MQTT_OK/GD32VW55X_Wifi_BLE_SDK/GD32VW55x_RELEASE_V1.0.2/MSDK/cloud/alicloud/src/infra/utils/digest\utils_md5.c **** void utils_md5_finish(iot_md5_context *ctx, unsigned char output[16])
 261:C:/Users/stapi/OneDrive/Desktop/GD32VW553/V1_MQTT_OK/GD32VW55X_Wifi_BLE_SDK/GD32VW55x_RELEASE_V1.0.2/MSDK/cloud/alicloud/src/infra/utils/digest\utils_md5.c **** {
 1746              		.loc 1 261 1 is_stmt 1
 1747              		.cfi_startproc
 1748              	.LVL289:
 1749              		.loc 1 261 1 is_stmt 0
 1750 0000 17030000 		call	t0,__riscv_save_2
 1750      E7020300 
 1751              		.cfi_offset 9, -12
 1752              		.cfi_offset 8, -8
 1753              		.cfi_offset 1, -4
 1754              		.cfi_def_cfa_offset 16
 262:C:/Users/stapi/OneDrive/Desktop/GD32VW553/V1_MQTT_OK/GD32VW55X_Wifi_BLE_SDK/GD32VW55x_RELEASE_V1.0.2/MSDK/cloud/alicloud/src/infra/utils/digest\utils_md5.c ****     uint32_t last, padn;
 1755              		.loc 1 262 5 is_stmt 1
 263:C:/Users/stapi/OneDrive/Desktop/GD32VW553/V1_MQTT_OK/GD32VW55X_Wifi_BLE_SDK/GD32VW55x_RELEASE_V1.0.2/MSDK/cloud/alicloud/src/infra/utils/digest\utils_md5.c ****     uint32_t high, low;
 1756              		.loc 1 263 5
 264:C:/Users/stapi/OneDrive/Desktop/GD32VW553/V1_MQTT_OK/GD32VW55X_Wifi_BLE_SDK/GD32VW55x_RELEASE_V1.0.2/MSDK/cloud/alicloud/src/infra/utils/digest\utils_md5.c ****     unsigned char msglen[8];
 1757              		.loc 1 264 5
 265:C:/Users/stapi/OneDrive/Desktop/GD32VW553/V1_MQTT_OK/GD32VW55X_Wifi_BLE_SDK/GD32VW55x_RELEASE_V1.0.2/MSDK/cloud/alicloud/src/infra/utils/digest\utils_md5.c **** 
 266:C:/Users/stapi/OneDrive/Desktop/GD32VW553/V1_MQTT_OK/GD32VW55X_Wifi_BLE_SDK/GD32VW55x_RELEASE_V1.0.2/MSDK/cloud/alicloud/src/infra/utils/digest\utils_md5.c ****     high = (ctx->total[0] >> 29)
 1758              		.loc 1 266 5
 1759              		.loc 1 266 23 is_stmt 0
 1760 0008 1041     		lw	a2,0(a0)
 267:C:/Users/stapi/OneDrive/Desktop/GD32VW553/V1_MQTT_OK/GD32VW55X_Wifi_BLE_SDK/GD32VW55x_RELEASE_V1.0.2/MSDK/cloud/alicloud/src/infra/utils/digest\utils_md5.c ****            | (ctx->total[1] <<  3);
 1761              		.loc 1 267 29
 1762 000a 5C41     		lw	a5,4(a0)
 261:C:/Users/stapi/OneDrive/Desktop/GD32VW553/V1_MQTT_OK/GD32VW55X_Wifi_BLE_SDK/GD32VW55x_RELEASE_V1.0.2/MSDK/cloud/alicloud/src/infra/utils/digest\utils_md5.c ****     uint32_t last, padn;
 1763              		.loc 1 261 1
 1764 000c 4111     		addi	sp,sp,-16
 1765              		.cfi_def_cfa_offset 32
 266:C:/Users/stapi/OneDrive/Desktop/GD32VW553/V1_MQTT_OK/GD32VW55X_Wifi_BLE_SDK/GD32VW55x_RELEASE_V1.0.2/MSDK/cloud/alicloud/src/infra/utils/digest\utils_md5.c ****            | (ctx->total[1] <<  3);
 1766              		.loc 1 266 27
 1767 000e 1357D601 		srli	a4,a2,29
 1768              		.loc 1 267 29
 1769 0012 8E07     		slli	a5,a5,3
 266:C:/Users/stapi/OneDrive/Desktop/GD32VW553/V1_MQTT_OK/GD32VW55X_Wifi_BLE_SDK/GD32VW55x_RELEASE_V1.0.2/MSDK/cloud/alicloud/src/infra/utils/digest\utils_md5.c ****            | (ctx->total[1] <<  3);
 1770              		.loc 1 266 10
 1771 0014 D98F     		or	a5,a5,a4
 1772              	.LVL290:
 268:C:/Users/stapi/OneDrive/Desktop/GD32VW553/V1_MQTT_OK/GD32VW55X_Wifi_BLE_SDK/GD32VW55x_RELEASE_V1.0.2/MSDK/cloud/alicloud/src/infra/utils/digest\utils_md5.c ****     low  = (ctx->total[0] <<  3);
 1773              		.loc 1 268 5 is_stmt 1
 269:C:/Users/stapi/OneDrive/Desktop/GD32VW553/V1_MQTT_OK/GD32VW55X_Wifi_BLE_SDK/GD32VW55x_RELEASE_V1.0.2/MSDK/cloud/alicloud/src/infra/utils/digest\utils_md5.c **** 
 270:C:/Users/stapi/OneDrive/Desktop/GD32VW553/V1_MQTT_OK/GD32VW55X_Wifi_BLE_SDK/GD32VW55x_RELEASE_V1.0.2/MSDK/cloud/alicloud/src/infra/utils/digest\utils_md5.c ****     IOT_MD5_PUT_UINT32_LE(low,  msglen, 0);
 1774              		.loc 1 270 5
 1775              		.loc 1 270 5
 1776              		.loc 1 270 5
 1777              		.loc 1 270 5
 268:C:/Users/stapi/OneDrive/Desktop/GD32VW553/V1_MQTT_OK/GD32VW55X_Wifi_BLE_SDK/GD32VW55x_RELEASE_V1.0.2/MSDK/cloud/alicloud/src/infra/utils/digest\utils_md5.c ****     low  = (ctx->total[0] <<  3);
 1778              		.loc 1 268 10 is_stmt 0
 1779 0016 13173600 		slli	a4,a2,3
 1780              	.LVL291:
 271:C:/Users/stapi/OneDrive/Desktop/GD32VW553/V1_MQTT_OK/GD32VW55X_Wifi_BLE_SDK/GD32VW55x_RELEASE_V1.0.2/MSDK/cloud/alicloud/src/infra/utils/digest\utils_md5.c ****     IOT_MD5_PUT_UINT32_LE(high, msglen, 4);
 1781              		.loc 1 271 5
 1782 001a 3EC6     		sw	a5,12(sp)
 270:C:/Users/stapi/OneDrive/Desktop/GD32VW553/V1_MQTT_OK/GD32VW55X_Wifi_BLE_SDK/GD32VW55x_RELEASE_V1.0.2/MSDK/cloud/alicloud/src/infra/utils/digest\utils_md5.c ****     IOT_MD5_PUT_UINT32_LE(high, msglen, 4);
 1783              		.loc 1 270 5
 1784 001c 3AC4     		sw	a4,8(sp)
 270:C:/Users/stapi/OneDrive/Desktop/GD32VW553/V1_MQTT_OK/GD32VW55X_Wifi_BLE_SDK/GD32VW55x_RELEASE_V1.0.2/MSDK/cloud/alicloud/src/infra/utils/digest\utils_md5.c ****     IOT_MD5_PUT_UINT32_LE(high, msglen, 4);
 1785              		.loc 1 270 43 is_stmt 1
 1786              		.loc 1 271 5
 1787              		.loc 1 271 5
 1788              		.loc 1 271 5
 1789              		.loc 1 271 5
 1790              		.loc 1 271 43
 272:C:/Users/stapi/OneDrive/Desktop/GD32VW553/V1_MQTT_OK/GD32VW55X_Wifi_BLE_SDK/GD32VW55x_RELEASE_V1.0.2/MSDK/cloud/alicloud/src/infra/utils/digest\utils_md5.c **** 
 273:C:/Users/stapi/OneDrive/Desktop/GD32VW553/V1_MQTT_OK/GD32VW55X_Wifi_BLE_SDK/GD32VW55x_RELEASE_V1.0.2/MSDK/cloud/alicloud/src/infra/utils/digest\utils_md5.c ****     last = ctx->total[0] & 0x3F;
 1791              		.loc 1 273 5
 1792              		.loc 1 273 10 is_stmt 0
 1793 001e 1376F603 		andi	a2,a2,63
 1794              	.LVL292:
 274:C:/Users/stapi/OneDrive/Desktop/GD32VW553/V1_MQTT_OK/GD32VW55X_Wifi_BLE_SDK/GD32VW55x_RELEASE_V1.0.2/MSDK/cloud/alicloud/src/infra/utils/digest\utils_md5.c ****     padn = (last < 56) ? (56 - last) : (120 - last);
 1795              		.loc 1 274 5 is_stmt 1
 1796              		.loc 1 274 38 is_stmt 0
 1797 0022 93077003 		li	a5,55
 1798              	.LVL293:
 261:C:/Users/stapi/OneDrive/Desktop/GD32VW553/V1_MQTT_OK/GD32VW55X_Wifi_BLE_SDK/GD32VW55x_RELEASE_V1.0.2/MSDK/cloud/alicloud/src/infra/utils/digest\utils_md5.c ****     uint32_t last, padn;
 1799              		.loc 1 261 1
 1800 0026 2A84     		mv	s0,a0
 1801 0028 AE84     		mv	s1,a1
 1802              		.loc 1 274 38
 1803 002a 63E7C70A 		bgtu	a2,a5,.L38
 1804              		.loc 1 274 38 discriminator 1
 1805 002e 93078003 		li	a5,56
 1806              	.L41:
 275:C:/Users/stapi/OneDrive/Desktop/GD32VW553/V1_MQTT_OK/GD32VW55X_Wifi_BLE_SDK/GD32VW55x_RELEASE_V1.0.2/MSDK/cloud/alicloud/src/infra/utils/digest\utils_md5.c **** 
 276:C:/Users/stapi/OneDrive/Desktop/GD32VW553/V1_MQTT_OK/GD32VW55X_Wifi_BLE_SDK/GD32VW55x_RELEASE_V1.0.2/MSDK/cloud/alicloud/src/infra/utils/digest\utils_md5.c ****     utils_md5_update(ctx, iot_md5_padding, padn);
 1807              		.loc 1 276 5 discriminator 2
 1808 0032 B7050000 		lui	a1,%hi(.LANCHOR0)
 1809              	.LVL294:
 274:C:/Users/stapi/OneDrive/Desktop/GD32VW553/V1_MQTT_OK/GD32VW55X_Wifi_BLE_SDK/GD32VW55x_RELEASE_V1.0.2/MSDK/cloud/alicloud/src/infra/utils/digest\utils_md5.c **** 
 1810              		.loc 1 274 38 discriminator 2
 1811 0036 3386C740 		sub	a2,a5,a2
 1812              	.LVL295:
 1813              		.loc 1 276 5 is_stmt 1 discriminator 2
 1814 003a 2285     		mv	a0,s0
 1815              	.LVL296:
 1816 003c 93850500 		addi	a1,a1,%lo(.LANCHOR0)
 1817 0040 97000000 		call	utils_md5_update
 1817      E7800000 
 1818              	.LVL297:
 277:C:/Users/stapi/OneDrive/Desktop/GD32VW553/V1_MQTT_OK/GD32VW55X_Wifi_BLE_SDK/GD32VW55x_RELEASE_V1.0.2/MSDK/cloud/alicloud/src/infra/utils/digest\utils_md5.c ****     utils_md5_update(ctx, msglen, 8);
 1819              		.loc 1 277 5 discriminator 2
 1820              	.LBB8:
 1821              	.LBB9:
 214:C:/Users/stapi/OneDrive/Desktop/GD32VW553/V1_MQTT_OK/GD32VW55X_Wifi_BLE_SDK/GD32VW55x_RELEASE_V1.0.2/MSDK/cloud/alicloud/src/infra/utils/digest\utils_md5.c ****     uint32_t left;
 1822              		.loc 1 214 5 discriminator 2
 215:C:/Users/stapi/OneDrive/Desktop/GD32VW553/V1_MQTT_OK/GD32VW55X_Wifi_BLE_SDK/GD32VW55x_RELEASE_V1.0.2/MSDK/cloud/alicloud/src/infra/utils/digest\utils_md5.c **** 
 1823              		.loc 1 215 5 discriminator 2
 217:C:/Users/stapi/OneDrive/Desktop/GD32VW553/V1_MQTT_OK/GD32VW55X_Wifi_BLE_SDK/GD32VW55x_RELEASE_V1.0.2/MSDK/cloud/alicloud/src/infra/utils/digest\utils_md5.c ****         return;
 1824              		.loc 1 217 5 discriminator 2
 1825 0048 2C00     		addi	a1,sp,8
 1826              	.LVL298:
 1827 004a 2146     		li	a2,8
 1828 004c 2285     		mv	a0,s0
 1829 004e 97000000 		call	utils_md5_update.part.0
 1829      E7800000 
 1830              	.LVL299:
 1831              	.LBE9:
 1832              	.LBE8:
 278:C:/Users/stapi/OneDrive/Desktop/GD32VW553/V1_MQTT_OK/GD32VW55X_Wifi_BLE_SDK/GD32VW55x_RELEASE_V1.0.2/MSDK/cloud/alicloud/src/infra/utils/digest\utils_md5.c **** 
 279:C:/Users/stapi/OneDrive/Desktop/GD32VW553/V1_MQTT_OK/GD32VW55X_Wifi_BLE_SDK/GD32VW55x_RELEASE_V1.0.2/MSDK/cloud/alicloud/src/infra/utils/digest\utils_md5.c ****     IOT_MD5_PUT_UINT32_LE(ctx->state[0], output,  0);
 1833              		.loc 1 279 5 discriminator 2
 1834 0056 1C44     		lw	a5,8(s0)
 1835 0058 2380F400 		sb	a5,0(s1)
 1836              		.loc 1 279 5 discriminator 2
 1837 005c 1C44     		lw	a5,8(s0)
 1838 005e A183     		srli	a5,a5,8
 1839 0060 A380F400 		sb	a5,1(s1)
 1840              		.loc 1 279 5 discriminator 2
 1841 0064 8357A400 		lhu	a5,10(s0)
 1842 0068 2381F400 		sb	a5,2(s1)
 1843              		.loc 1 279 5 discriminator 2
 1844 006c 8347B400 		lbu	a5,11(s0)
 1845 0070 A381F400 		sb	a5,3(s1)
 1846              		.loc 1 279 53 discriminator 2
 280:C:/Users/stapi/OneDrive/Desktop/GD32VW553/V1_MQTT_OK/GD32VW55X_Wifi_BLE_SDK/GD32VW55x_RELEASE_V1.0.2/MSDK/cloud/alicloud/src/infra/utils/digest\utils_md5.c ****     IOT_MD5_PUT_UINT32_LE(ctx->state[1], output,  4);
 1847              		.loc 1 280 5 discriminator 2
 1848 0074 5C44     		lw	a5,12(s0)
 1849 0076 2382F400 		sb	a5,4(s1)
 1850              		.loc 1 280 5 discriminator 2
 1851 007a 5C44     		lw	a5,12(s0)
 1852 007c A183     		srli	a5,a5,8
 1853 007e A382F400 		sb	a5,5(s1)
 1854              		.loc 1 280 5 discriminator 2
 1855 0082 8357E400 		lhu	a5,14(s0)
 1856 0086 2383F400 		sb	a5,6(s1)
 1857              		.loc 1 280 5 discriminator 2
 1858 008a 8347F400 		lbu	a5,15(s0)
 1859 008e A383F400 		sb	a5,7(s1)
 1860              		.loc 1 280 53 discriminator 2
 281:C:/Users/stapi/OneDrive/Desktop/GD32VW553/V1_MQTT_OK/GD32VW55X_Wifi_BLE_SDK/GD32VW55x_RELEASE_V1.0.2/MSDK/cloud/alicloud/src/infra/utils/digest\utils_md5.c ****     IOT_MD5_PUT_UINT32_LE(ctx->state[2], output,  8);
 1861              		.loc 1 281 5 discriminator 2
 1862 0092 1C48     		lw	a5,16(s0)
 1863 0094 2384F400 		sb	a5,8(s1)
 1864              		.loc 1 281 5 discriminator 2
 1865 0098 1C48     		lw	a5,16(s0)
 1866 009a A183     		srli	a5,a5,8
 1867 009c A384F400 		sb	a5,9(s1)
 1868              		.loc 1 281 5 discriminator 2
 1869 00a0 83572401 		lhu	a5,18(s0)
 1870 00a4 2385F400 		sb	a5,10(s1)
 1871              		.loc 1 281 5 discriminator 2
 1872 00a8 83473401 		lbu	a5,19(s0)
 1873 00ac A385F400 		sb	a5,11(s1)
 1874              		.loc 1 281 53 discriminator 2
 282:C:/Users/stapi/OneDrive/Desktop/GD32VW553/V1_MQTT_OK/GD32VW55X_Wifi_BLE_SDK/GD32VW55x_RELEASE_V1.0.2/MSDK/cloud/alicloud/src/infra/utils/digest\utils_md5.c ****     IOT_MD5_PUT_UINT32_LE(ctx->state[3], output, 12);
 1875              		.loc 1 282 5 discriminator 2
 1876 00b0 5C48     		lw	a5,20(s0)
 1877 00b2 2386F400 		sb	a5,12(s1)
 1878              		.loc 1 282 5 discriminator 2
 1879 00b6 5C48     		lw	a5,20(s0)
 1880 00b8 A183     		srli	a5,a5,8
 1881 00ba A386F400 		sb	a5,13(s1)
 1882              		.loc 1 282 5 discriminator 2
 1883 00be 83576401 		lhu	a5,22(s0)
 1884 00c2 2387F400 		sb	a5,14(s1)
 1885              		.loc 1 282 5 discriminator 2
 1886 00c6 83477401 		lbu	a5,23(s0)
 1887 00ca A387F400 		sb	a5,15(s1)
 1888              		.loc 1 282 53 discriminator 2
 283:C:/Users/stapi/OneDrive/Desktop/GD32VW553/V1_MQTT_OK/GD32VW55X_Wifi_BLE_SDK/GD32VW55x_RELEASE_V1.0.2/MSDK/cloud/alicloud/src/infra/utils/digest\utils_md5.c **** }
 1889              		.loc 1 283 1 is_stmt 0 discriminator 2
 1890 00ce 4101     		addi	sp,sp,16
 1891              		.cfi_remember_state
 1892              		.cfi_def_cfa_offset 0
 1893 00d0 17030000 		tail	__riscv_restore_2
 1893      67000300 
 1894              		.cfi_restore 9
 1895              		.cfi_restore 8
 1896              		.cfi_restore 1
 1897              		.cfi_def_cfa_offset -16
 1898              	.LVL300:
 1899              	.L38:
 1900              		.cfi_restore_state
 274:C:/Users/stapi/OneDrive/Desktop/GD32VW553/V1_MQTT_OK/GD32VW55X_Wifi_BLE_SDK/GD32VW55x_RELEASE_V1.0.2/MSDK/cloud/alicloud/src/infra/utils/digest\utils_md5.c **** 
 1901              		.loc 1 274 38 discriminator 2
 1902 00d8 93078007 		li	a5,120
 1903 00dc 99BF     		j	.L41
 1904              		.cfi_endproc
 1905              	.LFE11:
 1907              		.section	.text.utils_md5,"ax",@progbits
 1908              		.align	1
 1909              		.globl	utils_md5
 1911              	utils_md5:
 1912              	.LFB12:
 284:C:/Users/stapi/OneDrive/Desktop/GD32VW553/V1_MQTT_OK/GD32VW55X_Wifi_BLE_SDK/GD32VW55x_RELEASE_V1.0.2/MSDK/cloud/alicloud/src/infra/utils/digest\utils_md5.c **** 
 285:C:/Users/stapi/OneDrive/Desktop/GD32VW553/V1_MQTT_OK/GD32VW55X_Wifi_BLE_SDK/GD32VW55x_RELEASE_V1.0.2/MSDK/cloud/alicloud/src/infra/utils/digest\utils_md5.c **** 
 286:C:/Users/stapi/OneDrive/Desktop/GD32VW553/V1_MQTT_OK/GD32VW55X_Wifi_BLE_SDK/GD32VW55x_RELEASE_V1.0.2/MSDK/cloud/alicloud/src/infra/utils/digest\utils_md5.c **** /*
 287:C:/Users/stapi/OneDrive/Desktop/GD32VW553/V1_MQTT_OK/GD32VW55X_Wifi_BLE_SDK/GD32VW55x_RELEASE_V1.0.2/MSDK/cloud/alicloud/src/infra/utils/digest\utils_md5.c ****  * output = MD5( input buffer )
 288:C:/Users/stapi/OneDrive/Desktop/GD32VW553/V1_MQTT_OK/GD32VW55X_Wifi_BLE_SDK/GD32VW55x_RELEASE_V1.0.2/MSDK/cloud/alicloud/src/infra/utils/digest\utils_md5.c ****  */
 289:C:/Users/stapi/OneDrive/Desktop/GD32VW553/V1_MQTT_OK/GD32VW55X_Wifi_BLE_SDK/GD32VW55x_RELEASE_V1.0.2/MSDK/cloud/alicloud/src/infra/utils/digest\utils_md5.c **** void utils_md5(const unsigned char *input, size_t ilen, unsigned char output[16])
 290:C:/Users/stapi/OneDrive/Desktop/GD32VW553/V1_MQTT_OK/GD32VW55X_Wifi_BLE_SDK/GD32VW55x_RELEASE_V1.0.2/MSDK/cloud/alicloud/src/infra/utils/digest\utils_md5.c **** {
 1913              		.loc 1 290 1 is_stmt 1
 1914              		.cfi_startproc
 1915              	.LVL301:
 1916 0000 17030000 		call	t0,__riscv_save_3
 1916      E7020300 
 1917              		.cfi_offset 18, -16
 1918              		.cfi_offset 9, -12
 1919              		.cfi_offset 8, -8
 1920              		.cfi_offset 1, -4
 1921              		.cfi_def_cfa_offset 16
 291:C:/Users/stapi/OneDrive/Desktop/GD32VW553/V1_MQTT_OK/GD32VW55X_Wifi_BLE_SDK/GD32VW55x_RELEASE_V1.0.2/MSDK/cloud/alicloud/src/infra/utils/digest\utils_md5.c ****     iot_md5_context ctx;
 1922              		.loc 1 291 5
 292:C:/Users/stapi/OneDrive/Desktop/GD32VW553/V1_MQTT_OK/GD32VW55X_Wifi_BLE_SDK/GD32VW55x_RELEASE_V1.0.2/MSDK/cloud/alicloud/src/infra/utils/digest\utils_md5.c **** 
 293:C:/Users/stapi/OneDrive/Desktop/GD32VW553/V1_MQTT_OK/GD32VW55X_Wifi_BLE_SDK/GD32VW55x_RELEASE_V1.0.2/MSDK/cloud/alicloud/src/infra/utils/digest\utils_md5.c ****     utils_md5_init(&ctx);
 1923              		.loc 1 293 5
 290:C:/Users/stapi/OneDrive/Desktop/GD32VW553/V1_MQTT_OK/GD32VW55X_Wifi_BLE_SDK/GD32VW55x_RELEASE_V1.0.2/MSDK/cloud/alicloud/src/infra/utils/digest\utils_md5.c ****     iot_md5_context ctx;
 1924              		.loc 1 290 1 is_stmt 0
 1925 0008 1D71     		addi	sp,sp,-96
 1926              		.cfi_def_cfa_offset 112
 290:C:/Users/stapi/OneDrive/Desktop/GD32VW553/V1_MQTT_OK/GD32VW55X_Wifi_BLE_SDK/GD32VW55x_RELEASE_V1.0.2/MSDK/cloud/alicloud/src/infra/utils/digest\utils_md5.c ****     iot_md5_context ctx;
 1927              		.loc 1 290 1
 1928 000a AA84     		mv	s1,a0
 1929              		.loc 1 293 5
 1930 000c 2800     		addi	a0,sp,8
 1931              	.LVL302:
 290:C:/Users/stapi/OneDrive/Desktop/GD32VW553/V1_MQTT_OK/GD32VW55X_Wifi_BLE_SDK/GD32VW55x_RELEASE_V1.0.2/MSDK/cloud/alicloud/src/infra/utils/digest\utils_md5.c ****     iot_md5_context ctx;
 1932              		.loc 1 290 1
 1933 000e 3284     		mv	s0,a2
 1934 0010 2E89     		mv	s2,a1
 1935              		.loc 1 293 5
 1936 0012 97000000 		call	utils_md5_init
 1936      E7800000 
 1937              	.LVL303:
 294:C:/Users/stapi/OneDrive/Desktop/GD32VW553/V1_MQTT_OK/GD32VW55X_Wifi_BLE_SDK/GD32VW55x_RELEASE_V1.0.2/MSDK/cloud/alicloud/src/infra/utils/digest\utils_md5.c ****     utils_md5_starts(&ctx);
 1938              		.loc 1 294 5 is_stmt 1
 1939 001a 2800     		addi	a0,sp,8
 1940 001c 97000000 		call	utils_md5_starts
 1940      E7800000 
 1941              	.LVL304:
 295:C:/Users/stapi/OneDrive/Desktop/GD32VW553/V1_MQTT_OK/GD32VW55X_Wifi_BLE_SDK/GD32VW55x_RELEASE_V1.0.2/MSDK/cloud/alicloud/src/infra/utils/digest\utils_md5.c ****     utils_md5_update(&ctx, input, ilen);
 1942              		.loc 1 295 5
 1943 0024 4A86     		mv	a2,s2
 1944 0026 A685     		mv	a1,s1
 1945 0028 2800     		addi	a0,sp,8
 1946 002a 97000000 		call	utils_md5_update
 1946      E7800000 
 1947              	.LVL305:
 296:C:/Users/stapi/OneDrive/Desktop/GD32VW553/V1_MQTT_OK/GD32VW55X_Wifi_BLE_SDK/GD32VW55x_RELEASE_V1.0.2/MSDK/cloud/alicloud/src/infra/utils/digest\utils_md5.c ****     utils_md5_finish(&ctx, output);
 1948              		.loc 1 296 5
 1949 0032 A285     		mv	a1,s0
 1950 0034 2800     		addi	a0,sp,8
 1951 0036 97000000 		call	utils_md5_finish
 1951      E7800000 
 1952              	.LVL306:
 297:C:/Users/stapi/OneDrive/Desktop/GD32VW553/V1_MQTT_OK/GD32VW55X_Wifi_BLE_SDK/GD32VW55x_RELEASE_V1.0.2/MSDK/cloud/alicloud/src/infra/utils/digest\utils_md5.c ****     utils_md5_free(&ctx);
 1953              		.loc 1 297 5
 1954 003e 2800     		addi	a0,sp,8
 1955 0040 97000000 		call	utils_md5_free
 1955      E7800000 
 1956              	.LVL307:
 298:C:/Users/stapi/OneDrive/Desktop/GD32VW553/V1_MQTT_OK/GD32VW55X_Wifi_BLE_SDK/GD32VW55x_RELEASE_V1.0.2/MSDK/cloud/alicloud/src/infra/utils/digest\utils_md5.c **** }
 1957              		.loc 1 298 1 is_stmt 0
 1958 0048 2561     		addi	sp,sp,96
 1959              		.cfi_def_cfa_offset 0
 1960 004a 17030000 		tail	__riscv_restore_3
 1960      67000300 
 1961              		.cfi_restore 18
 1962              		.cfi_restore 9
 1963              		.cfi_restore 8
 1964              		.cfi_restore 1
 1965              		.cfi_def_cfa_offset -16
 1966              		.cfi_endproc
 1967              	.LFE12:
 1969              		.section	.text.utils_hb2hex,"ax",@progbits
 1970              		.align	1
 1971              		.globl	utils_hb2hex
 1973              	utils_hb2hex:
 1974              	.LFB13:
 299:C:/Users/stapi/OneDrive/Desktop/GD32VW553/V1_MQTT_OK/GD32VW55X_Wifi_BLE_SDK/GD32VW55x_RELEASE_V1.0.2/MSDK/cloud/alicloud/src/infra/utils/digest\utils_md5.c **** 
 300:C:/Users/stapi/OneDrive/Desktop/GD32VW553/V1_MQTT_OK/GD32VW55X_Wifi_BLE_SDK/GD32VW55x_RELEASE_V1.0.2/MSDK/cloud/alicloud/src/infra/utils/digest\utils_md5.c **** #endif
 301:C:/Users/stapi/OneDrive/Desktop/GD32VW553/V1_MQTT_OK/GD32VW55X_Wifi_BLE_SDK/GD32VW55x_RELEASE_V1.0.2/MSDK/cloud/alicloud/src/infra/utils/digest\utils_md5.c **** 
 302:C:/Users/stapi/OneDrive/Desktop/GD32VW553/V1_MQTT_OK/GD32VW55X_Wifi_BLE_SDK/GD32VW55x_RELEASE_V1.0.2/MSDK/cloud/alicloud/src/infra/utils/digest\utils_md5.c **** int8_t utils_hb2hex(uint8_t hb)
 303:C:/Users/stapi/OneDrive/Desktop/GD32VW553/V1_MQTT_OK/GD32VW55X_Wifi_BLE_SDK/GD32VW55x_RELEASE_V1.0.2/MSDK/cloud/alicloud/src/infra/utils/digest\utils_md5.c **** {
 1975              		.loc 1 303 1 is_stmt 1
 1976              		.cfi_startproc
 1977              	.LVL308:
 304:C:/Users/stapi/OneDrive/Desktop/GD32VW553/V1_MQTT_OK/GD32VW55X_Wifi_BLE_SDK/GD32VW55x_RELEASE_V1.0.2/MSDK/cloud/alicloud/src/infra/utils/digest\utils_md5.c ****     hb = hb & 0xF;
 1978              		.loc 1 304 5
 1979              		.loc 1 304 8 is_stmt 0
 1980 0000 3D89     		andi	a0,a0,15
 1981              	.LVL309:
 305:C:/Users/stapi/OneDrive/Desktop/GD32VW553/V1_MQTT_OK/GD32VW55X_Wifi_BLE_SDK/GD32VW55x_RELEASE_V1.0.2/MSDK/cloud/alicloud/src/infra/utils/digest\utils_md5.c ****     return (int8_t)(hb < 10 ? '0' + hb : hb - 10 + 'a');
 1982              		.loc 1 305 5 is_stmt 1
 1983              		.loc 1 305 12 is_stmt 0
 1984 0002 A547     		li	a5,9
 1985 0004 63E5A700 		bgtu	a0,a5,.L45
 1986              		.loc 1 305 12 discriminator 1
 1987 0008 13050503 		addi	a0,a0,48
 1988              	.LVL310:
 1989 000c 8280     		ret
 1990              	.LVL311:
 1991              	.L45:
 1992              		.loc 1 305 50 discriminator 2
 1993 000e 13057505 		addi	a0,a0,87
 1994              	.LVL312:
 1995              		.loc 1 305 12 discriminator 2
 1996 0012 13154560 		sext.b	a0,a0
 1997              	.LVL313:
 306:C:/Users/stapi/OneDrive/Desktop/GD32VW553/V1_MQTT_OK/GD32VW55X_Wifi_BLE_SDK/GD32VW55x_RELEASE_V1.0.2/MSDK/cloud/alicloud/src/infra/utils/digest\utils_md5.c **** }
 1998              		.loc 1 306 1 discriminator 2
 1999 0016 8280     		ret
 2000              		.cfi_endproc
 2001              	.LFE13:
 2003              		.section	.text.utils_md5_hexstr,"ax",@progbits
 2004              		.align	1
 2005              		.globl	utils_md5_hexstr
 2007              	utils_md5_hexstr:
 2008              	.LFB14:
 307:C:/Users/stapi/OneDrive/Desktop/GD32VW553/V1_MQTT_OK/GD32VW55X_Wifi_BLE_SDK/GD32VW55x_RELEASE_V1.0.2/MSDK/cloud/alicloud/src/infra/utils/digest\utils_md5.c **** 
 308:C:/Users/stapi/OneDrive/Desktop/GD32VW553/V1_MQTT_OK/GD32VW55X_Wifi_BLE_SDK/GD32VW55x_RELEASE_V1.0.2/MSDK/cloud/alicloud/src/infra/utils/digest\utils_md5.c **** 
 309:C:/Users/stapi/OneDrive/Desktop/GD32VW553/V1_MQTT_OK/GD32VW55X_Wifi_BLE_SDK/GD32VW55x_RELEASE_V1.0.2/MSDK/cloud/alicloud/src/infra/utils/digest\utils_md5.c **** void utils_md5_hexstr(unsigned char input[16], unsigned char output[32])
 310:C:/Users/stapi/OneDrive/Desktop/GD32VW553/V1_MQTT_OK/GD32VW55X_Wifi_BLE_SDK/GD32VW55x_RELEASE_V1.0.2/MSDK/cloud/alicloud/src/infra/utils/digest\utils_md5.c **** {
 2009              		.loc 1 310 1 is_stmt 1
 2010              		.cfi_startproc
 2011              	.LVL314:
 311:C:/Users/stapi/OneDrive/Desktop/GD32VW553/V1_MQTT_OK/GD32VW55X_Wifi_BLE_SDK/GD32VW55x_RELEASE_V1.0.2/MSDK/cloud/alicloud/src/infra/utils/digest\utils_md5.c ****     unsigned char idx = 0;
 2012              		.loc 1 311 5
 312:C:/Users/stapi/OneDrive/Desktop/GD32VW553/V1_MQTT_OK/GD32VW55X_Wifi_BLE_SDK/GD32VW55x_RELEASE_V1.0.2/MSDK/cloud/alicloud/src/infra/utils/digest\utils_md5.c ****     unsigned char output_char = 0;
 2013              		.loc 1 312 5
 313:C:/Users/stapi/OneDrive/Desktop/GD32VW553/V1_MQTT_OK/GD32VW55X_Wifi_BLE_SDK/GD32VW55x_RELEASE_V1.0.2/MSDK/cloud/alicloud/src/infra/utils/digest\utils_md5.c **** 
 314:C:/Users/stapi/OneDrive/Desktop/GD32VW553/V1_MQTT_OK/GD32VW55X_Wifi_BLE_SDK/GD32VW55x_RELEASE_V1.0.2/MSDK/cloud/alicloud/src/infra/utils/digest\utils_md5.c ****     for (idx = 0; idx < 16; idx++) {
 2014              		.loc 1 314 5
 2015              		.loc 1 314 19
 2016 0000 13860502 		addi	a2,a1,32
 315:C:/Users/stapi/OneDrive/Desktop/GD32VW553/V1_MQTT_OK/GD32VW55X_Wifi_BLE_SDK/GD32VW55x_RELEASE_V1.0.2/MSDK/cloud/alicloud/src/infra/utils/digest\utils_md5.c ****         if (((input[idx] >> 4) & 0x0F) <= 0x09) {
 2017              		.loc 1 315 12 is_stmt 0
 2018 0004 A546     		li	a3,9
 2019              	.LVL315:
 2020              	.L52:
 2021              		.loc 1 315 9 is_stmt 1
 2022              		.loc 1 315 32 is_stmt 0
 2023 0006 83470500 		lbu	a5,0(a0)
 2024 000a 9183     		srli	a5,a5,4
 316:C:/Users/stapi/OneDrive/Desktop/GD32VW553/V1_MQTT_OK/GD32VW55X_Wifi_BLE_SDK/GD32VW55x_RELEASE_V1.0.2/MSDK/cloud/alicloud/src/infra/utils/digest\utils_md5.c ****             output_char = ((input[idx] >> 4) & 0x0F) + '0';
 317:C:/Users/stapi/OneDrive/Desktop/GD32VW553/V1_MQTT_OK/GD32VW55X_Wifi_BLE_SDK/GD32VW55x_RELEASE_V1.0.2/MSDK/cloud/alicloud/src/infra/utils/digest\utils_md5.c ****         } else if (((input[idx] >> 4) & 0x0F) >= 0x0A) {
 318:C:/Users/stapi/OneDrive/Desktop/GD32VW553/V1_MQTT_OK/GD32VW55X_Wifi_BLE_SDK/GD32VW55x_RELEASE_V1.0.2/MSDK/cloud/alicloud/src/infra/utils/digest\utils_md5.c ****             output_char = ((input[idx] >> 4) & 0x0F) + 'a' - 0x0A;
 2025              		.loc 1 318 25
 2026 000c 13877705 		addi	a4,a5,87
 315:C:/Users/stapi/OneDrive/Desktop/GD32VW553/V1_MQTT_OK/GD32VW55X_Wifi_BLE_SDK/GD32VW55x_RELEASE_V1.0.2/MSDK/cloud/alicloud/src/infra/utils/digest\utils_md5.c ****         if (((input[idx] >> 4) & 0x0F) <= 0x09) {
 2027              		.loc 1 315 12
 2028 0010 63E4F600 		bgtu	a5,a3,.L49
 316:C:/Users/stapi/OneDrive/Desktop/GD32VW553/V1_MQTT_OK/GD32VW55X_Wifi_BLE_SDK/GD32VW55x_RELEASE_V1.0.2/MSDK/cloud/alicloud/src/infra/utils/digest\utils_md5.c ****             output_char = ((input[idx] >> 4) & 0x0F) + '0';
 2029              		.loc 1 316 13 is_stmt 1
 316:C:/Users/stapi/OneDrive/Desktop/GD32VW553/V1_MQTT_OK/GD32VW55X_Wifi_BLE_SDK/GD32VW55x_RELEASE_V1.0.2/MSDK/cloud/alicloud/src/infra/utils/digest\utils_md5.c ****             output_char = ((input[idx] >> 4) & 0x0F) + '0';
 2030              		.loc 1 316 25 is_stmt 0
 2031 0014 13870703 		addi	a4,a5,48
 2032              	.LVL316:
 2033              	.L49:
 319:C:/Users/stapi/OneDrive/Desktop/GD32VW553/V1_MQTT_OK/GD32VW55X_Wifi_BLE_SDK/GD32VW55x_RELEASE_V1.0.2/MSDK/cloud/alicloud/src/infra/utils/digest\utils_md5.c ****         }
 320:C:/Users/stapi/OneDrive/Desktop/GD32VW553/V1_MQTT_OK/GD32VW55X_Wifi_BLE_SDK/GD32VW55x_RELEASE_V1.0.2/MSDK/cloud/alicloud/src/infra/utils/digest\utils_md5.c ****         output[2 * idx] = output_char;
 2034              		.loc 1 320 9 is_stmt 1
 2035              		.loc 1 320 25 is_stmt 0
 2036 0018 2380E500 		sb	a4,0(a1)
 321:C:/Users/stapi/OneDrive/Desktop/GD32VW553/V1_MQTT_OK/GD32VW55X_Wifi_BLE_SDK/GD32VW55x_RELEASE_V1.0.2/MSDK/cloud/alicloud/src/infra/utils/digest\utils_md5.c **** 
 322:C:/Users/stapi/OneDrive/Desktop/GD32VW553/V1_MQTT_OK/GD32VW55X_Wifi_BLE_SDK/GD32VW55x_RELEASE_V1.0.2/MSDK/cloud/alicloud/src/infra/utils/digest\utils_md5.c ****         if (((input[idx]) & 0x0F) <= 0x09) {
 2037              		.loc 1 322 9 is_stmt 1
 2038 001c 83470500 		lbu	a5,0(a0)
 2039 0020 BD8B     		andi	a5,a5,15
 323:C:/Users/stapi/OneDrive/Desktop/GD32VW553/V1_MQTT_OK/GD32VW55X_Wifi_BLE_SDK/GD32VW55x_RELEASE_V1.0.2/MSDK/cloud/alicloud/src/infra/utils/digest\utils_md5.c ****             output_char = ((input[idx]) & 0x0F) + '0';
 324:C:/Users/stapi/OneDrive/Desktop/GD32VW553/V1_MQTT_OK/GD32VW55X_Wifi_BLE_SDK/GD32VW55x_RELEASE_V1.0.2/MSDK/cloud/alicloud/src/infra/utils/digest\utils_md5.c ****         } else if (((input[idx]) & 0x0F) >= 0x0A) {
 325:C:/Users/stapi/OneDrive/Desktop/GD32VW553/V1_MQTT_OK/GD32VW55X_Wifi_BLE_SDK/GD32VW55x_RELEASE_V1.0.2/MSDK/cloud/alicloud/src/infra/utils/digest\utils_md5.c ****             output_char = ((input[idx]) & 0x0F) + 'a' - 0x0A;
 2040              		.loc 1 325 25 is_stmt 0
 2041 0022 13877705 		addi	a4,a5,87
 2042              	.LVL317:
 322:C:/Users/stapi/OneDrive/Desktop/GD32VW553/V1_MQTT_OK/GD32VW55X_Wifi_BLE_SDK/GD32VW55x_RELEASE_V1.0.2/MSDK/cloud/alicloud/src/infra/utils/digest\utils_md5.c ****             output_char = ((input[idx]) & 0x0F) + '0';
 2043              		.loc 1 322 12
 2044 0026 63E4F600 		bgtu	a5,a3,.L51
 323:C:/Users/stapi/OneDrive/Desktop/GD32VW553/V1_MQTT_OK/GD32VW55X_Wifi_BLE_SDK/GD32VW55x_RELEASE_V1.0.2/MSDK/cloud/alicloud/src/infra/utils/digest\utils_md5.c ****             output_char = ((input[idx]) & 0x0F) + '0';
 2045              		.loc 1 323 13 is_stmt 1
 323:C:/Users/stapi/OneDrive/Desktop/GD32VW553/V1_MQTT_OK/GD32VW55X_Wifi_BLE_SDK/GD32VW55x_RELEASE_V1.0.2/MSDK/cloud/alicloud/src/infra/utils/digest\utils_md5.c ****             output_char = ((input[idx]) & 0x0F) + '0';
 2046              		.loc 1 323 25 is_stmt 0
 2047 002a 13870703 		addi	a4,a5,48
 2048              	.LVL318:
 2049              	.L51:
 326:C:/Users/stapi/OneDrive/Desktop/GD32VW553/V1_MQTT_OK/GD32VW55X_Wifi_BLE_SDK/GD32VW55x_RELEASE_V1.0.2/MSDK/cloud/alicloud/src/infra/utils/digest\utils_md5.c ****         }
 327:C:/Users/stapi/OneDrive/Desktop/GD32VW553/V1_MQTT_OK/GD32VW55X_Wifi_BLE_SDK/GD32VW55x_RELEASE_V1.0.2/MSDK/cloud/alicloud/src/infra/utils/digest\utils_md5.c ****         output[2 * idx + 1] = output_char;
 2050              		.loc 1 327 9 is_stmt 1 discriminator 2
 2051              		.loc 1 327 29 is_stmt 0 discriminator 2
 2052 002e A380E500 		sb	a4,1(a1)
 314:C:/Users/stapi/OneDrive/Desktop/GD32VW553/V1_MQTT_OK/GD32VW55X_Wifi_BLE_SDK/GD32VW55x_RELEASE_V1.0.2/MSDK/cloud/alicloud/src/infra/utils/digest\utils_md5.c ****         if (((input[idx] >> 4) & 0x0F) <= 0x09) {
 2053              		.loc 1 314 29 is_stmt 1 discriminator 2
 2054              	.LVL319:
 314:C:/Users/stapi/OneDrive/Desktop/GD32VW553/V1_MQTT_OK/GD32VW55X_Wifi_BLE_SDK/GD32VW55x_RELEASE_V1.0.2/MSDK/cloud/alicloud/src/infra/utils/digest\utils_md5.c ****         if (((input[idx] >> 4) & 0x0F) <= 0x09) {
 2055              		.loc 1 314 19 discriminator 2
 314:C:/Users/stapi/OneDrive/Desktop/GD32VW553/V1_MQTT_OK/GD32VW55X_Wifi_BLE_SDK/GD32VW55x_RELEASE_V1.0.2/MSDK/cloud/alicloud/src/infra/utils/digest\utils_md5.c ****         if (((input[idx] >> 4) & 0x0F) <= 0x09) {
 2056              		.loc 1 314 5 is_stmt 0 discriminator 2
 2057 0032 8905     		addi	a1,a1,2
 2058 0034 0505     		addi	a0,a0,1
 2059              	.LVL320:
 2060 0036 E398C5FC 		bne	a1,a2,.L52
 328:C:/Users/stapi/OneDrive/Desktop/GD32VW553/V1_MQTT_OK/GD32VW55X_Wifi_BLE_SDK/GD32VW55x_RELEASE_V1.0.2/MSDK/cloud/alicloud/src/infra/utils/digest\utils_md5.c ****     }
 329:C:/Users/stapi/OneDrive/Desktop/GD32VW553/V1_MQTT_OK/GD32VW55X_Wifi_BLE_SDK/GD32VW55x_RELEASE_V1.0.2/MSDK/cloud/alicloud/src/infra/utils/digest\utils_md5.c **** }
 2061              		.loc 1 329 1
 2062 003a 8280     		ret
 2063              		.cfi_endproc
 2064              	.LFE14:
 2066              		.section	.rodata.iot_md5_padding,"a"
 2067              		.align	2
 2068              		.set	.LANCHOR0,. + 0
 2071              	iot_md5_padding:
 2072 0000 8000     		.string	"\200"
 2073 0002 00       		.string	""
 2074 0003 00       		.string	""
 2075 0004 00       		.string	""
 2076 0005 00       		.string	""
 2077 0006 00       		.string	""
 2078 0007 00       		.string	""
 2079 0008 00       		.string	""
 2080 0009 00       		.string	""
 2081 000a 00       		.string	""
 2082 000b 00       		.string	""
 2083 000c 00       		.string	""
 2084 000d 00       		.string	""
 2085 000e 00       		.string	""
 2086 000f 00       		.string	""
 2087 0010 00       		.string	""
 2088 0011 00       		.string	""
 2089 0012 00       		.string	""
 2090 0013 00       		.string	""
 2091 0014 00       		.string	""
 2092 0015 00       		.string	""
 2093 0016 00       		.string	""
 2094 0017 00       		.string	""
 2095 0018 00       		.string	""
 2096 0019 00       		.string	""
 2097 001a 00       		.string	""
 2098 001b 00       		.string	""
 2099 001c 00       		.string	""
 2100 001d 00       		.string	""
 2101 001e 00       		.string	""
 2102 001f 00       		.string	""
 2103 0020 00       		.string	""
 2104 0021 00       		.string	""
 2105 0022 00       		.string	""
 2106 0023 00       		.string	""
 2107 0024 00       		.string	""
 2108 0025 00       		.string	""
 2109 0026 00       		.string	""
 2110 0027 00       		.string	""
 2111 0028 00       		.string	""
 2112 0029 00       		.string	""
 2113 002a 00       		.string	""
 2114 002b 00       		.string	""
 2115 002c 00       		.string	""
 2116 002d 00       		.string	""
 2117 002e 00       		.string	""
 2118 002f 00       		.string	""
 2119 0030 00       		.string	""
 2120 0031 00       		.string	""
 2121 0032 00       		.string	""
 2122 0033 00       		.string	""
 2123 0034 00       		.string	""
 2124 0035 00       		.string	""
 2125 0036 00       		.string	""
 2126 0037 00       		.string	""
 2127 0038 00       		.string	""
 2128 0039 00       		.string	""
 2129 003a 00       		.string	""
 2130 003b 00       		.string	""
 2131 003c 00       		.string	""
 2132 003d 00       		.string	""
 2133 003e 00       		.string	""
 2134 003f 00       		.string	""
 2135              		.text
 2136              	.Letext0:
 2137              		.file 2 "c:\\users\\stapi\\onedrive\\desktop\\gd32vw553\\embeddedbuilder_v1.4.7.26843\\tools\\nucl
 2138              		.file 3 "c:\\users\\stapi\\onedrive\\desktop\\gd32vw553\\embeddedbuilder_v1.4.7.26843\\tools\\nucl
 2139              		.file 4 "c:\\users\\stapi\\onedrive\\desktop\\gd32vw553\\embeddedbuilder_v1.4.7.26843\\tools\\nucl
 2140              		.file 5 "C:/Users/stapi/OneDrive/Desktop/GD32VW553/V1_MQTT_OK/GD32VW55X_Wifi_BLE_SDK/GD32VW55x_REL
 2141              		.file 6 "<built-in>"