   1              		.file	"utils_hmac.c"
   2              		.option nopic
   3              		.attribute arch, "rv32i2p0_m2p0_a2p0_f2p0_c2p0_b_p0p94"
   4              		.attribute unaligned_access, 0
   5              		.attribute stack_align, 16
   6              		.text
   7              	.Ltext0:
   8              		.cfi_sections	.debug_frame
   9              		.section	.rodata.utils_hmac_md5.str1.4,"aMS",@progbits,1
  10              		.align	2
  11              	.LC0:
  12 0000 5B657272 		.string	"[err] "
  12      5D2000
  13 0007 00       		.align	2
  14              	.LC1:
  15 0008 70617261 		.string	"parameter is Null,failed!"
  15      6D657465 
  15      72206973 
  15      204E756C 
  15      6C2C6661 
  16 0022 0000     		.align	2
  17              	.LC2:
  18 0024 0D0A00   		.string	"\r\n"
  19 0027 00       		.align	2
  20              	.LC3:
  21 0028 6B65795F 		.string	"key_len > size(%d) of array"
  21      6C656E20 
  21      3E207369 
  21      7A652825 
  21      6429206F 
  22              		.section	.text.utils_hmac_md5,"ax",@progbits
  23              		.align	1
  24              		.globl	utils_hmac_md5
  26              	utils_hmac_md5:
  27              	.LFB20:
  28              		.file 1 "C:/Users/stapi/OneDrive/Desktop/GD32VW553/V1_MQTT_OK/GD32VW55X_Wifi_BLE_SDK/GD32VW55x_REL
   1:C:/Users/stapi/OneDrive/Desktop/GD32VW553/V1_MQTT_OK/GD32VW55X_Wifi_BLE_SDK/GD32VW55x_RELEASE_V1.0.2/MSDK/cloud/alicloud/src/infra/utils/digest\utils_hmac.c **** /*
   2:C:/Users/stapi/OneDrive/Desktop/GD32VW553/V1_MQTT_OK/GD32VW55X_Wifi_BLE_SDK/GD32VW55x_RELEASE_V1.0.2/MSDK/cloud/alicloud/src/infra/utils/digest\utils_hmac.c ****  * Copyright (C) 2015-2018 Alibaba Group Holding Limited
   3:C:/Users/stapi/OneDrive/Desktop/GD32VW553/V1_MQTT_OK/GD32VW55X_Wifi_BLE_SDK/GD32VW55x_RELEASE_V1.0.2/MSDK/cloud/alicloud/src/infra/utils/digest\utils_hmac.c ****  */
   4:C:/Users/stapi/OneDrive/Desktop/GD32VW553/V1_MQTT_OK/GD32VW55X_Wifi_BLE_SDK/GD32VW55x_RELEASE_V1.0.2/MSDK/cloud/alicloud/src/infra/utils/digest\utils_hmac.c **** 
   5:C:/Users/stapi/OneDrive/Desktop/GD32VW553/V1_MQTT_OK/GD32VW55X_Wifi_BLE_SDK/GD32VW55x_RELEASE_V1.0.2/MSDK/cloud/alicloud/src/infra/utils/digest\utils_hmac.c **** 
   6:C:/Users/stapi/OneDrive/Desktop/GD32VW553/V1_MQTT_OK/GD32VW55X_Wifi_BLE_SDK/GD32VW55x_RELEASE_V1.0.2/MSDK/cloud/alicloud/src/infra/utils/digest\utils_hmac.c **** 
   7:C:/Users/stapi/OneDrive/Desktop/GD32VW553/V1_MQTT_OK/GD32VW55X_Wifi_BLE_SDK/GD32VW55x_RELEASE_V1.0.2/MSDK/cloud/alicloud/src/infra/utils/digest\utils_hmac.c **** 
   8:C:/Users/stapi/OneDrive/Desktop/GD32VW553/V1_MQTT_OK/GD32VW55X_Wifi_BLE_SDK/GD32VW55x_RELEASE_V1.0.2/MSDK/cloud/alicloud/src/infra/utils/digest\utils_hmac.c **** #include <string.h>
   9:C:/Users/stapi/OneDrive/Desktop/GD32VW553/V1_MQTT_OK/GD32VW55X_Wifi_BLE_SDK/GD32VW55x_RELEASE_V1.0.2/MSDK/cloud/alicloud/src/infra/utils/digest\utils_hmac.c **** #include "iotx_utils_internal.h"
  10:C:/Users/stapi/OneDrive/Desktop/GD32VW553/V1_MQTT_OK/GD32VW55X_Wifi_BLE_SDK/GD32VW55x_RELEASE_V1.0.2/MSDK/cloud/alicloud/src/infra/utils/digest\utils_hmac.c **** #include "utils_md5.h"
  11:C:/Users/stapi/OneDrive/Desktop/GD32VW553/V1_MQTT_OK/GD32VW55X_Wifi_BLE_SDK/GD32VW55x_RELEASE_V1.0.2/MSDK/cloud/alicloud/src/infra/utils/digest\utils_hmac.c **** #include "utils_sha1.h"
  12:C:/Users/stapi/OneDrive/Desktop/GD32VW553/V1_MQTT_OK/GD32VW55X_Wifi_BLE_SDK/GD32VW55x_RELEASE_V1.0.2/MSDK/cloud/alicloud/src/infra/utils/digest\utils_hmac.c **** #include "utils_sha256.h"
  13:C:/Users/stapi/OneDrive/Desktop/GD32VW553/V1_MQTT_OK/GD32VW55X_Wifi_BLE_SDK/GD32VW55x_RELEASE_V1.0.2/MSDK/cloud/alicloud/src/infra/utils/digest\utils_hmac.c **** #include "utils_hmac.h"
  14:C:/Users/stapi/OneDrive/Desktop/GD32VW553/V1_MQTT_OK/GD32VW55X_Wifi_BLE_SDK/GD32VW55x_RELEASE_V1.0.2/MSDK/cloud/alicloud/src/infra/utils/digest\utils_hmac.c **** #include "utils_base64.h"
  15:C:/Users/stapi/OneDrive/Desktop/GD32VW553/V1_MQTT_OK/GD32VW55X_Wifi_BLE_SDK/GD32VW55x_RELEASE_V1.0.2/MSDK/cloud/alicloud/src/infra/utils/digest\utils_hmac.c **** 
  16:C:/Users/stapi/OneDrive/Desktop/GD32VW553/V1_MQTT_OK/GD32VW55X_Wifi_BLE_SDK/GD32VW55x_RELEASE_V1.0.2/MSDK/cloud/alicloud/src/infra/utils/digest\utils_hmac.c **** void utils_hmac_md5(const char *msg, int msg_len, char *digest, const char *key, int key_len)
  17:C:/Users/stapi/OneDrive/Desktop/GD32VW553/V1_MQTT_OK/GD32VW55X_Wifi_BLE_SDK/GD32VW55x_RELEASE_V1.0.2/MSDK/cloud/alicloud/src/infra/utils/digest\utils_hmac.c **** {
  29              		.loc 1 17 1
  30              		.cfi_startproc
  31              	.LVL0:
  32 0000 17030000 		call	t0,__riscv_save_6
  32      E7020300 
  33              		.cfi_offset 21, -28
  34              		.cfi_offset 20, -24
  35              		.cfi_offset 19, -20
  36              		.cfi_offset 18, -16
  37              		.cfi_offset 9, -12
  38              		.cfi_offset 8, -8
  39              		.cfi_offset 1, -4
  40              		.cfi_def_cfa_offset 32
  18:C:/Users/stapi/OneDrive/Desktop/GD32VW553/V1_MQTT_OK/GD32VW55X_Wifi_BLE_SDK/GD32VW55x_RELEASE_V1.0.2/MSDK/cloud/alicloud/src/infra/utils/digest\utils_hmac.c ****     if ((NULL == msg) || (NULL == digest) || (NULL == key)) {
  41              		.loc 1 18 5
  17:C:/Users/stapi/OneDrive/Desktop/GD32VW553/V1_MQTT_OK/GD32VW55X_Wifi_BLE_SDK/GD32VW55x_RELEASE_V1.0.2/MSDK/cloud/alicloud/src/infra/utils/digest\utils_hmac.c ****     if ((NULL == msg) || (NULL == digest) || (NULL == key)) {
  42              		.loc 1 17 1 is_stmt 0
  43 0008 5171     		addi	sp,sp,-240
  44              		.cfi_def_cfa_offset 272
  45              		.loc 1 18 8
  46 000a 09C5     		beq	a0,zero,.L2
  47 000c 3284     		mv	s0,a2
  48              		.loc 1 18 23 discriminator 1
  49 000e 19C2     		beq	a2,zero,.L2
  50 0010 3689     		mv	s2,a3
  51              		.loc 1 18 43 discriminator 2
  52 0012 95EE     		bne	a3,zero,.L3
  53              	.L2:
  19:C:/Users/stapi/OneDrive/Desktop/GD32VW553/V1_MQTT_OK/GD32VW55X_Wifi_BLE_SDK/GD32VW55x_RELEASE_V1.0.2/MSDK/cloud/alicloud/src/infra/utils/digest\utils_hmac.c ****         utils_err("parameter is Null,failed!");
  54              		.loc 1 19 9 is_stmt 1
  55              		.loc 1 19 9
  56 0014 37050000 		lui	a0,%hi(.LC0)
  57              	.LVL1:
  58 0018 13050500 		addi	a0,a0,%lo(.LC0)
  59 001c 97000000 		call	HAL_Printf
  59      E7800000 
  60              	.LVL2:
  61              		.loc 1 19 9
  62 0024 37050000 		lui	a0,%hi(.LC1)
  63 0028 13050500 		addi	a0,a0,%lo(.LC1)
  64 002c 97000000 		call	HAL_Printf
  64      E7800000 
  65              	.LVL3:
  66              		.loc 1 19 9
  67              	.L17:
  20:C:/Users/stapi/OneDrive/Desktop/GD32VW553/V1_MQTT_OK/GD32VW55X_Wifi_BLE_SDK/GD32VW55x_RELEASE_V1.0.2/MSDK/cloud/alicloud/src/infra/utils/digest\utils_hmac.c ****         return;
  21:C:/Users/stapi/OneDrive/Desktop/GD32VW553/V1_MQTT_OK/GD32VW55X_Wifi_BLE_SDK/GD32VW55x_RELEASE_V1.0.2/MSDK/cloud/alicloud/src/infra/utils/digest\utils_hmac.c ****     }
  22:C:/Users/stapi/OneDrive/Desktop/GD32VW553/V1_MQTT_OK/GD32VW55X_Wifi_BLE_SDK/GD32VW55x_RELEASE_V1.0.2/MSDK/cloud/alicloud/src/infra/utils/digest\utils_hmac.c **** 
  23:C:/Users/stapi/OneDrive/Desktop/GD32VW553/V1_MQTT_OK/GD32VW55X_Wifi_BLE_SDK/GD32VW55x_RELEASE_V1.0.2/MSDK/cloud/alicloud/src/infra/utils/digest\utils_hmac.c ****     if (key_len > KEY_IOPAD_SIZE) {
  24:C:/Users/stapi/OneDrive/Desktop/GD32VW553/V1_MQTT_OK/GD32VW55X_Wifi_BLE_SDK/GD32VW55x_RELEASE_V1.0.2/MSDK/cloud/alicloud/src/infra/utils/digest\utils_hmac.c ****         utils_err("key_len > size(%d) of array", KEY_IOPAD_SIZE);
  68              		.loc 1 24 9
  69 0034 37050000 		lui	a0,%hi(.LC2)
  70 0038 13050500 		addi	a0,a0,%lo(.LC2)
  71 003c 97000000 		call	HAL_Printf
  71      E7800000 
  72              	.LVL4:
  73              		.loc 1 24 9
  25:C:/Users/stapi/OneDrive/Desktop/GD32VW553/V1_MQTT_OK/GD32VW55X_Wifi_BLE_SDK/GD32VW55x_RELEASE_V1.0.2/MSDK/cloud/alicloud/src/infra/utils/digest\utils_hmac.c ****         return;
  74              		.loc 1 25 9
  75              	.L1:
  26:C:/Users/stapi/OneDrive/Desktop/GD32VW553/V1_MQTT_OK/GD32VW55X_Wifi_BLE_SDK/GD32VW55x_RELEASE_V1.0.2/MSDK/cloud/alicloud/src/infra/utils/digest\utils_hmac.c ****     }
  27:C:/Users/stapi/OneDrive/Desktop/GD32VW553/V1_MQTT_OK/GD32VW55X_Wifi_BLE_SDK/GD32VW55x_RELEASE_V1.0.2/MSDK/cloud/alicloud/src/infra/utils/digest\utils_hmac.c **** 
  28:C:/Users/stapi/OneDrive/Desktop/GD32VW553/V1_MQTT_OK/GD32VW55X_Wifi_BLE_SDK/GD32VW55x_RELEASE_V1.0.2/MSDK/cloud/alicloud/src/infra/utils/digest\utils_hmac.c ****     iot_md5_context context;
  29:C:/Users/stapi/OneDrive/Desktop/GD32VW553/V1_MQTT_OK/GD32VW55X_Wifi_BLE_SDK/GD32VW55x_RELEASE_V1.0.2/MSDK/cloud/alicloud/src/infra/utils/digest\utils_hmac.c ****     unsigned char k_ipad[KEY_IOPAD_SIZE];    /* inner padding - key XORd with ipad  */
  30:C:/Users/stapi/OneDrive/Desktop/GD32VW553/V1_MQTT_OK/GD32VW55X_Wifi_BLE_SDK/GD32VW55x_RELEASE_V1.0.2/MSDK/cloud/alicloud/src/infra/utils/digest\utils_hmac.c ****     unsigned char k_opad[KEY_IOPAD_SIZE];    /* outer padding - key XORd with opad */
  31:C:/Users/stapi/OneDrive/Desktop/GD32VW553/V1_MQTT_OK/GD32VW55X_Wifi_BLE_SDK/GD32VW55x_RELEASE_V1.0.2/MSDK/cloud/alicloud/src/infra/utils/digest\utils_hmac.c ****     unsigned char out[MD5_DIGEST_SIZE];
  32:C:/Users/stapi/OneDrive/Desktop/GD32VW553/V1_MQTT_OK/GD32VW55X_Wifi_BLE_SDK/GD32VW55x_RELEASE_V1.0.2/MSDK/cloud/alicloud/src/infra/utils/digest\utils_hmac.c ****     int i;
  33:C:/Users/stapi/OneDrive/Desktop/GD32VW553/V1_MQTT_OK/GD32VW55X_Wifi_BLE_SDK/GD32VW55x_RELEASE_V1.0.2/MSDK/cloud/alicloud/src/infra/utils/digest\utils_hmac.c **** 
  34:C:/Users/stapi/OneDrive/Desktop/GD32VW553/V1_MQTT_OK/GD32VW55X_Wifi_BLE_SDK/GD32VW55x_RELEASE_V1.0.2/MSDK/cloud/alicloud/src/infra/utils/digest\utils_hmac.c ****     /* start out by storing key in pads */
  35:C:/Users/stapi/OneDrive/Desktop/GD32VW553/V1_MQTT_OK/GD32VW55X_Wifi_BLE_SDK/GD32VW55x_RELEASE_V1.0.2/MSDK/cloud/alicloud/src/infra/utils/digest\utils_hmac.c ****     memset(k_ipad, 0, sizeof(k_ipad));
  36:C:/Users/stapi/OneDrive/Desktop/GD32VW553/V1_MQTT_OK/GD32VW55X_Wifi_BLE_SDK/GD32VW55x_RELEASE_V1.0.2/MSDK/cloud/alicloud/src/infra/utils/digest\utils_hmac.c ****     memset(k_opad, 0, sizeof(k_opad));
  37:C:/Users/stapi/OneDrive/Desktop/GD32VW553/V1_MQTT_OK/GD32VW55X_Wifi_BLE_SDK/GD32VW55x_RELEASE_V1.0.2/MSDK/cloud/alicloud/src/infra/utils/digest\utils_hmac.c ****     memcpy(k_ipad, key, key_len);
  38:C:/Users/stapi/OneDrive/Desktop/GD32VW553/V1_MQTT_OK/GD32VW55X_Wifi_BLE_SDK/GD32VW55x_RELEASE_V1.0.2/MSDK/cloud/alicloud/src/infra/utils/digest\utils_hmac.c ****     memcpy(k_opad, key, key_len);
  39:C:/Users/stapi/OneDrive/Desktop/GD32VW553/V1_MQTT_OK/GD32VW55X_Wifi_BLE_SDK/GD32VW55x_RELEASE_V1.0.2/MSDK/cloud/alicloud/src/infra/utils/digest\utils_hmac.c **** 
  40:C:/Users/stapi/OneDrive/Desktop/GD32VW553/V1_MQTT_OK/GD32VW55X_Wifi_BLE_SDK/GD32VW55x_RELEASE_V1.0.2/MSDK/cloud/alicloud/src/infra/utils/digest\utils_hmac.c ****     /* XOR key with ipad and opad values */
  41:C:/Users/stapi/OneDrive/Desktop/GD32VW553/V1_MQTT_OK/GD32VW55X_Wifi_BLE_SDK/GD32VW55x_RELEASE_V1.0.2/MSDK/cloud/alicloud/src/infra/utils/digest\utils_hmac.c ****     for (i = 0; i < KEY_IOPAD_SIZE; i++) {
  42:C:/Users/stapi/OneDrive/Desktop/GD32VW553/V1_MQTT_OK/GD32VW55X_Wifi_BLE_SDK/GD32VW55x_RELEASE_V1.0.2/MSDK/cloud/alicloud/src/infra/utils/digest\utils_hmac.c ****         k_ipad[i] ^= 0x36;
  43:C:/Users/stapi/OneDrive/Desktop/GD32VW553/V1_MQTT_OK/GD32VW55X_Wifi_BLE_SDK/GD32VW55x_RELEASE_V1.0.2/MSDK/cloud/alicloud/src/infra/utils/digest\utils_hmac.c ****         k_opad[i] ^= 0x5c;
  44:C:/Users/stapi/OneDrive/Desktop/GD32VW553/V1_MQTT_OK/GD32VW55X_Wifi_BLE_SDK/GD32VW55x_RELEASE_V1.0.2/MSDK/cloud/alicloud/src/infra/utils/digest\utils_hmac.c ****     }
  45:C:/Users/stapi/OneDrive/Desktop/GD32VW553/V1_MQTT_OK/GD32VW55X_Wifi_BLE_SDK/GD32VW55x_RELEASE_V1.0.2/MSDK/cloud/alicloud/src/infra/utils/digest\utils_hmac.c **** 
  46:C:/Users/stapi/OneDrive/Desktop/GD32VW553/V1_MQTT_OK/GD32VW55X_Wifi_BLE_SDK/GD32VW55x_RELEASE_V1.0.2/MSDK/cloud/alicloud/src/infra/utils/digest\utils_hmac.c ****     /* perform inner MD5 */
  47:C:/Users/stapi/OneDrive/Desktop/GD32VW553/V1_MQTT_OK/GD32VW55X_Wifi_BLE_SDK/GD32VW55x_RELEASE_V1.0.2/MSDK/cloud/alicloud/src/infra/utils/digest\utils_hmac.c ****     utils_md5_init(&context);                                      /* init context for 1st pass */
  48:C:/Users/stapi/OneDrive/Desktop/GD32VW553/V1_MQTT_OK/GD32VW55X_Wifi_BLE_SDK/GD32VW55x_RELEASE_V1.0.2/MSDK/cloud/alicloud/src/infra/utils/digest\utils_hmac.c ****     utils_md5_starts(&context);                                    /* setup context for 1st pass */
  49:C:/Users/stapi/OneDrive/Desktop/GD32VW553/V1_MQTT_OK/GD32VW55X_Wifi_BLE_SDK/GD32VW55x_RELEASE_V1.0.2/MSDK/cloud/alicloud/src/infra/utils/digest\utils_hmac.c ****     utils_md5_update(&context, k_ipad, KEY_IOPAD_SIZE);            /* start with inner pad */
  50:C:/Users/stapi/OneDrive/Desktop/GD32VW553/V1_MQTT_OK/GD32VW55X_Wifi_BLE_SDK/GD32VW55x_RELEASE_V1.0.2/MSDK/cloud/alicloud/src/infra/utils/digest\utils_hmac.c ****     utils_md5_update(&context, (unsigned char *) msg, msg_len);    /* then text of datagram */
  51:C:/Users/stapi/OneDrive/Desktop/GD32VW553/V1_MQTT_OK/GD32VW55X_Wifi_BLE_SDK/GD32VW55x_RELEASE_V1.0.2/MSDK/cloud/alicloud/src/infra/utils/digest\utils_hmac.c ****     utils_md5_finish(&context, out);                               /* finish up 1st pass */
  52:C:/Users/stapi/OneDrive/Desktop/GD32VW553/V1_MQTT_OK/GD32VW55X_Wifi_BLE_SDK/GD32VW55x_RELEASE_V1.0.2/MSDK/cloud/alicloud/src/infra/utils/digest\utils_hmac.c **** 
  53:C:/Users/stapi/OneDrive/Desktop/GD32VW553/V1_MQTT_OK/GD32VW55X_Wifi_BLE_SDK/GD32VW55x_RELEASE_V1.0.2/MSDK/cloud/alicloud/src/infra/utils/digest\utils_hmac.c ****     /* perform outer MD5 */
  54:C:/Users/stapi/OneDrive/Desktop/GD32VW553/V1_MQTT_OK/GD32VW55X_Wifi_BLE_SDK/GD32VW55x_RELEASE_V1.0.2/MSDK/cloud/alicloud/src/infra/utils/digest\utils_hmac.c ****     utils_md5_init(&context);                              /* init context for 2nd pass */
  55:C:/Users/stapi/OneDrive/Desktop/GD32VW553/V1_MQTT_OK/GD32VW55X_Wifi_BLE_SDK/GD32VW55x_RELEASE_V1.0.2/MSDK/cloud/alicloud/src/infra/utils/digest\utils_hmac.c ****     utils_md5_starts(&context);                            /* setup context for 2nd pass */
  56:C:/Users/stapi/OneDrive/Desktop/GD32VW553/V1_MQTT_OK/GD32VW55X_Wifi_BLE_SDK/GD32VW55x_RELEASE_V1.0.2/MSDK/cloud/alicloud/src/infra/utils/digest\utils_hmac.c ****     utils_md5_update(&context, k_opad, KEY_IOPAD_SIZE);    /* start with outer pad */
  57:C:/Users/stapi/OneDrive/Desktop/GD32VW553/V1_MQTT_OK/GD32VW55X_Wifi_BLE_SDK/GD32VW55x_RELEASE_V1.0.2/MSDK/cloud/alicloud/src/infra/utils/digest\utils_hmac.c ****     utils_md5_update(&context, out, MD5_DIGEST_SIZE);      /* then results of 1st hash */
  58:C:/Users/stapi/OneDrive/Desktop/GD32VW553/V1_MQTT_OK/GD32VW55X_Wifi_BLE_SDK/GD32VW55x_RELEASE_V1.0.2/MSDK/cloud/alicloud/src/infra/utils/digest\utils_hmac.c ****     utils_md5_finish(&context, out);                       /* finish up 2nd pass */
  59:C:/Users/stapi/OneDrive/Desktop/GD32VW553/V1_MQTT_OK/GD32VW55X_Wifi_BLE_SDK/GD32VW55x_RELEASE_V1.0.2/MSDK/cloud/alicloud/src/infra/utils/digest\utils_hmac.c **** 
  60:C:/Users/stapi/OneDrive/Desktop/GD32VW553/V1_MQTT_OK/GD32VW55X_Wifi_BLE_SDK/GD32VW55x_RELEASE_V1.0.2/MSDK/cloud/alicloud/src/infra/utils/digest\utils_hmac.c ****     for (i = 0; i < MD5_DIGEST_SIZE; ++i) {
  61:C:/Users/stapi/OneDrive/Desktop/GD32VW553/V1_MQTT_OK/GD32VW55X_Wifi_BLE_SDK/GD32VW55x_RELEASE_V1.0.2/MSDK/cloud/alicloud/src/infra/utils/digest\utils_hmac.c ****         digest[i * 2] = utils_hb2hex(out[i] >> 4);
  62:C:/Users/stapi/OneDrive/Desktop/GD32VW553/V1_MQTT_OK/GD32VW55X_Wifi_BLE_SDK/GD32VW55x_RELEASE_V1.0.2/MSDK/cloud/alicloud/src/infra/utils/digest\utils_hmac.c ****         digest[i * 2 + 1] = utils_hb2hex(out[i]);
  63:C:/Users/stapi/OneDrive/Desktop/GD32VW553/V1_MQTT_OK/GD32VW55X_Wifi_BLE_SDK/GD32VW55x_RELEASE_V1.0.2/MSDK/cloud/alicloud/src/infra/utils/digest\utils_hmac.c ****     }
  64:C:/Users/stapi/OneDrive/Desktop/GD32VW553/V1_MQTT_OK/GD32VW55X_Wifi_BLE_SDK/GD32VW55x_RELEASE_V1.0.2/MSDK/cloud/alicloud/src/infra/utils/digest\utils_hmac.c **** }
  76              		.loc 1 64 1 is_stmt 0
  77 0044 6D61     		addi	sp,sp,240
  78              		.cfi_remember_state
  79              		.cfi_def_cfa_offset 0
  80 0046 17030000 		tail	__riscv_restore_6
  80      67000300 
  81              		.cfi_restore 21
  82              		.cfi_restore 20
  83              		.cfi_restore 19
  84              		.cfi_restore 18
  85              		.cfi_restore 9
  86              		.cfi_restore 8
  87              		.cfi_restore 1
  88              		.cfi_def_cfa_offset -32
  89              	.LVL5:
  90              	.L3:
  91              		.cfi_restore_state
  23:C:/Users/stapi/OneDrive/Desktop/GD32VW553/V1_MQTT_OK/GD32VW55X_Wifi_BLE_SDK/GD32VW55x_RELEASE_V1.0.2/MSDK/cloud/alicloud/src/infra/utils/digest\utils_hmac.c ****         utils_err("key_len > size(%d) of array", KEY_IOPAD_SIZE);
  92              		.loc 1 23 8
  93 004e 93070004 		li	a5,64
  94 0052 BA89     		mv	s3,a4
  23:C:/Users/stapi/OneDrive/Desktop/GD32VW553/V1_MQTT_OK/GD32VW55X_Wifi_BLE_SDK/GD32VW55x_RELEASE_V1.0.2/MSDK/cloud/alicloud/src/infra/utils/digest\utils_hmac.c ****         utils_err("key_len > size(%d) of array", KEY_IOPAD_SIZE);
  95              		.loc 1 23 5 is_stmt 1
  23:C:/Users/stapi/OneDrive/Desktop/GD32VW553/V1_MQTT_OK/GD32VW55X_Wifi_BLE_SDK/GD32VW55x_RELEASE_V1.0.2/MSDK/cloud/alicloud/src/infra/utils/digest\utils_hmac.c ****         utils_err("key_len > size(%d) of array", KEY_IOPAD_SIZE);
  96              		.loc 1 23 8 is_stmt 0
  97 0054 63D5E702 		ble	a4,a5,.L5
  24:C:/Users/stapi/OneDrive/Desktop/GD32VW553/V1_MQTT_OK/GD32VW55X_Wifi_BLE_SDK/GD32VW55x_RELEASE_V1.0.2/MSDK/cloud/alicloud/src/infra/utils/digest\utils_hmac.c ****         return;
  98              		.loc 1 24 9 is_stmt 1
  24:C:/Users/stapi/OneDrive/Desktop/GD32VW553/V1_MQTT_OK/GD32VW55X_Wifi_BLE_SDK/GD32VW55x_RELEASE_V1.0.2/MSDK/cloud/alicloud/src/infra/utils/digest\utils_hmac.c ****         return;
  99              		.loc 1 24 9
 100 0058 37050000 		lui	a0,%hi(.LC0)
 101              	.LVL6:
 102 005c 13050500 		addi	a0,a0,%lo(.LC0)
 103 0060 97000000 		call	HAL_Printf
 103      E7800000 
 104              	.LVL7:
  24:C:/Users/stapi/OneDrive/Desktop/GD32VW553/V1_MQTT_OK/GD32VW55X_Wifi_BLE_SDK/GD32VW55x_RELEASE_V1.0.2/MSDK/cloud/alicloud/src/infra/utils/digest\utils_hmac.c ****         return;
 105              		.loc 1 24 9
 106 0068 37050000 		lui	a0,%hi(.LC3)
 107 006c 93050004 		li	a1,64
 108 0070 13050500 		addi	a0,a0,%lo(.LC3)
 109 0074 97000000 		call	HAL_Printf
 109      E7800000 
 110              	.LVL8:
 111 007c 65BF     		j	.L17
 112              	.LVL9:
 113              	.L5:
  35:C:/Users/stapi/OneDrive/Desktop/GD32VW553/V1_MQTT_OK/GD32VW55X_Wifi_BLE_SDK/GD32VW55x_RELEASE_V1.0.2/MSDK/cloud/alicloud/src/infra/utils/digest\utils_hmac.c ****     memset(k_opad, 0, sizeof(k_opad));
 114              		.loc 1 35 5 is_stmt 0
 115 007e 13060004 		li	a2,64
 116 0082 2A8A     		mv	s4,a0
 117 0084 AE8A     		mv	s5,a1
  28:C:/Users/stapi/OneDrive/Desktop/GD32VW553/V1_MQTT_OK/GD32VW55X_Wifi_BLE_SDK/GD32VW55x_RELEASE_V1.0.2/MSDK/cloud/alicloud/src/infra/utils/digest\utils_hmac.c ****     unsigned char k_ipad[KEY_IOPAD_SIZE];    /* inner padding - key XORd with ipad  */
 118              		.loc 1 28 5 is_stmt 1
  29:C:/Users/stapi/OneDrive/Desktop/GD32VW553/V1_MQTT_OK/GD32VW55X_Wifi_BLE_SDK/GD32VW55x_RELEASE_V1.0.2/MSDK/cloud/alicloud/src/infra/utils/digest\utils_hmac.c ****     unsigned char k_opad[KEY_IOPAD_SIZE];    /* outer padding - key XORd with opad */
 119              		.loc 1 29 5
  30:C:/Users/stapi/OneDrive/Desktop/GD32VW553/V1_MQTT_OK/GD32VW55X_Wifi_BLE_SDK/GD32VW55x_RELEASE_V1.0.2/MSDK/cloud/alicloud/src/infra/utils/digest\utils_hmac.c ****     unsigned char out[MD5_DIGEST_SIZE];
 120              		.loc 1 30 5
  31:C:/Users/stapi/OneDrive/Desktop/GD32VW553/V1_MQTT_OK/GD32VW55X_Wifi_BLE_SDK/GD32VW55x_RELEASE_V1.0.2/MSDK/cloud/alicloud/src/infra/utils/digest\utils_hmac.c ****     int i;
 121              		.loc 1 31 5
  32:C:/Users/stapi/OneDrive/Desktop/GD32VW553/V1_MQTT_OK/GD32VW55X_Wifi_BLE_SDK/GD32VW55x_RELEASE_V1.0.2/MSDK/cloud/alicloud/src/infra/utils/digest\utils_hmac.c **** 
 122              		.loc 1 32 5
  35:C:/Users/stapi/OneDrive/Desktop/GD32VW553/V1_MQTT_OK/GD32VW55X_Wifi_BLE_SDK/GD32VW55x_RELEASE_V1.0.2/MSDK/cloud/alicloud/src/infra/utils/digest\utils_hmac.c ****     memset(k_opad, 0, sizeof(k_opad));
 123              		.loc 1 35 5
 124 0086 2808     		addi	a0,sp,24
 125              	.LVL10:
 126 0088 8145     		li	a1,0
 127              	.LVL11:
 128 008a 97000000 		call	memset
 128      E7800000 
 129              	.LVL12:
  36:C:/Users/stapi/OneDrive/Desktop/GD32VW553/V1_MQTT_OK/GD32VW55X_Wifi_BLE_SDK/GD32VW55x_RELEASE_V1.0.2/MSDK/cloud/alicloud/src/infra/utils/digest\utils_hmac.c ****     memcpy(k_ipad, key, key_len);
 130              		.loc 1 36 5
 131 0092 A408     		addi	s1,sp,88
 132 0094 13060004 		li	a2,64
 133 0098 8145     		li	a1,0
 134 009a 2685     		mv	a0,s1
 135 009c 97000000 		call	memset
 135      E7800000 
 136              	.LVL13:
  37:C:/Users/stapi/OneDrive/Desktop/GD32VW553/V1_MQTT_OK/GD32VW55X_Wifi_BLE_SDK/GD32VW55x_RELEASE_V1.0.2/MSDK/cloud/alicloud/src/infra/utils/digest\utils_hmac.c ****     memcpy(k_opad, key, key_len);
 137              		.loc 1 37 5
 138 00a4 4E86     		mv	a2,s3
 139 00a6 CA85     		mv	a1,s2
 140 00a8 2808     		addi	a0,sp,24
 141 00aa 97000000 		call	memcpy
 141      E7800000 
 142              	.LVL14:
  38:C:/Users/stapi/OneDrive/Desktop/GD32VW553/V1_MQTT_OK/GD32VW55X_Wifi_BLE_SDK/GD32VW55x_RELEASE_V1.0.2/MSDK/cloud/alicloud/src/infra/utils/digest\utils_hmac.c **** 
 143              		.loc 1 38 5
 144 00b2 4E86     		mv	a2,s3
 145 00b4 CA85     		mv	a1,s2
 146 00b6 2685     		mv	a0,s1
 147 00b8 97000000 		call	memcpy
 147      E7800000 
 148              	.LVL15:
  41:C:/Users/stapi/OneDrive/Desktop/GD32VW553/V1_MQTT_OK/GD32VW55X_Wifi_BLE_SDK/GD32VW55x_RELEASE_V1.0.2/MSDK/cloud/alicloud/src/infra/utils/digest\utils_hmac.c ****         k_ipad[i] ^= 0x36;
 149              		.loc 1 41 5
  41:C:/Users/stapi/OneDrive/Desktop/GD32VW553/V1_MQTT_OK/GD32VW55X_Wifi_BLE_SDK/GD32VW55x_RELEASE_V1.0.2/MSDK/cloud/alicloud/src/infra/utils/digest\utils_hmac.c ****         k_ipad[i] ^= 0x36;
 150              		.loc 1 41 17
 151 00c0 3C08     		addi	a5,sp,24
 152 00c2 2687     		mv	a4,s1
 153              	.LVL16:
 154              	.L6:
  42:C:/Users/stapi/OneDrive/Desktop/GD32VW553/V1_MQTT_OK/GD32VW55X_Wifi_BLE_SDK/GD32VW55x_RELEASE_V1.0.2/MSDK/cloud/alicloud/src/infra/utils/digest\utils_hmac.c ****         k_opad[i] ^= 0x5c;
 155              		.loc 1 42 9 discriminator 3
  42:C:/Users/stapi/OneDrive/Desktop/GD32VW553/V1_MQTT_OK/GD32VW55X_Wifi_BLE_SDK/GD32VW55x_RELEASE_V1.0.2/MSDK/cloud/alicloud/src/infra/utils/digest\utils_hmac.c ****         k_opad[i] ^= 0x5c;
 156              		.loc 1 42 19 is_stmt 0 discriminator 3
 157 00c4 83C60700 		lbu	a3,0(a5)
  41:C:/Users/stapi/OneDrive/Desktop/GD32VW553/V1_MQTT_OK/GD32VW55X_Wifi_BLE_SDK/GD32VW55x_RELEASE_V1.0.2/MSDK/cloud/alicloud/src/infra/utils/digest\utils_hmac.c ****         k_ipad[i] ^= 0x36;
 158              		.loc 1 41 5 discriminator 3
 159 00c8 8507     		addi	a5,a5,1
 160              	.LVL17:
 161 00ca 0507     		addi	a4,a4,1
  42:C:/Users/stapi/OneDrive/Desktop/GD32VW553/V1_MQTT_OK/GD32VW55X_Wifi_BLE_SDK/GD32VW55x_RELEASE_V1.0.2/MSDK/cloud/alicloud/src/infra/utils/digest\utils_hmac.c ****         k_opad[i] ^= 0x5c;
 162              		.loc 1 42 19 discriminator 3
 163 00cc 93C66603 		xori	a3,a3,54
 164 00d0 A38FD7FE 		sb	a3,-1(a5)
  43:C:/Users/stapi/OneDrive/Desktop/GD32VW553/V1_MQTT_OK/GD32VW55X_Wifi_BLE_SDK/GD32VW55x_RELEASE_V1.0.2/MSDK/cloud/alicloud/src/infra/utils/digest\utils_hmac.c ****     }
 165              		.loc 1 43 9 is_stmt 1 discriminator 3
  43:C:/Users/stapi/OneDrive/Desktop/GD32VW553/V1_MQTT_OK/GD32VW55X_Wifi_BLE_SDK/GD32VW55x_RELEASE_V1.0.2/MSDK/cloud/alicloud/src/infra/utils/digest\utils_hmac.c ****     }
 166              		.loc 1 43 19 is_stmt 0 discriminator 3
 167 00d4 8346F7FF 		lbu	a3,-1(a4)
 168 00d8 93C6C605 		xori	a3,a3,92
 169 00dc A30FD7FE 		sb	a3,-1(a4)
  41:C:/Users/stapi/OneDrive/Desktop/GD32VW553/V1_MQTT_OK/GD32VW55X_Wifi_BLE_SDK/GD32VW55x_RELEASE_V1.0.2/MSDK/cloud/alicloud/src/infra/utils/digest\utils_hmac.c ****         k_ipad[i] ^= 0x36;
 170              		.loc 1 41 37 is_stmt 1 discriminator 3
 171              	.LVL18:
  41:C:/Users/stapi/OneDrive/Desktop/GD32VW553/V1_MQTT_OK/GD32VW55X_Wifi_BLE_SDK/GD32VW55x_RELEASE_V1.0.2/MSDK/cloud/alicloud/src/infra/utils/digest\utils_hmac.c ****         k_ipad[i] ^= 0x36;
 172              		.loc 1 41 17 discriminator 3
  41:C:/Users/stapi/OneDrive/Desktop/GD32VW553/V1_MQTT_OK/GD32VW55X_Wifi_BLE_SDK/GD32VW55x_RELEASE_V1.0.2/MSDK/cloud/alicloud/src/infra/utils/digest\utils_hmac.c ****         k_ipad[i] ^= 0x36;
 173              		.loc 1 41 5 is_stmt 0 discriminator 3
 174 00e0 E392F4FE 		bne	s1,a5,.L6
  47:C:/Users/stapi/OneDrive/Desktop/GD32VW553/V1_MQTT_OK/GD32VW55X_Wifi_BLE_SDK/GD32VW55x_RELEASE_V1.0.2/MSDK/cloud/alicloud/src/infra/utils/digest\utils_hmac.c ****     utils_md5_starts(&context);                                    /* setup context for 1st pass */
 175              		.loc 1 47 5 is_stmt 1
 176 00e4 2809     		addi	a0,sp,152
 177 00e6 97000000 		call	utils_md5_init
 177      E7800000 
 178              	.LVL19:
  48:C:/Users/stapi/OneDrive/Desktop/GD32VW553/V1_MQTT_OK/GD32VW55X_Wifi_BLE_SDK/GD32VW55x_RELEASE_V1.0.2/MSDK/cloud/alicloud/src/infra/utils/digest\utils_hmac.c ****     utils_md5_update(&context, k_ipad, KEY_IOPAD_SIZE);            /* start with inner pad */
 179              		.loc 1 48 5
 180 00ee 2809     		addi	a0,sp,152
 181 00f0 97000000 		call	utils_md5_starts
 181      E7800000 
 182              	.LVL20:
  49:C:/Users/stapi/OneDrive/Desktop/GD32VW553/V1_MQTT_OK/GD32VW55X_Wifi_BLE_SDK/GD32VW55x_RELEASE_V1.0.2/MSDK/cloud/alicloud/src/infra/utils/digest\utils_hmac.c ****     utils_md5_update(&context, (unsigned char *) msg, msg_len);    /* then text of datagram */
 183              		.loc 1 49 5
 184 00f8 13060004 		li	a2,64
 185 00fc 2C08     		addi	a1,sp,24
 186 00fe 2809     		addi	a0,sp,152
 187 0100 97000000 		call	utils_md5_update
 187      E7800000 
 188              	.LVL21:
  50:C:/Users/stapi/OneDrive/Desktop/GD32VW553/V1_MQTT_OK/GD32VW55X_Wifi_BLE_SDK/GD32VW55x_RELEASE_V1.0.2/MSDK/cloud/alicloud/src/infra/utils/digest\utils_hmac.c ****     utils_md5_finish(&context, out);                               /* finish up 1st pass */
 189              		.loc 1 50 5
 190 0108 5686     		mv	a2,s5
 191 010a D285     		mv	a1,s4
 192 010c 2809     		addi	a0,sp,152
 193 010e 97000000 		call	utils_md5_update
 193      E7800000 
 194              	.LVL22:
  51:C:/Users/stapi/OneDrive/Desktop/GD32VW553/V1_MQTT_OK/GD32VW55X_Wifi_BLE_SDK/GD32VW55x_RELEASE_V1.0.2/MSDK/cloud/alicloud/src/infra/utils/digest\utils_hmac.c **** 
 195              		.loc 1 51 5
 196 0116 2C00     		addi	a1,sp,8
 197 0118 2809     		addi	a0,sp,152
 198 011a 97000000 		call	utils_md5_finish
 198      E7800000 
 199              	.LVL23:
  54:C:/Users/stapi/OneDrive/Desktop/GD32VW553/V1_MQTT_OK/GD32VW55X_Wifi_BLE_SDK/GD32VW55x_RELEASE_V1.0.2/MSDK/cloud/alicloud/src/infra/utils/digest\utils_hmac.c ****     utils_md5_starts(&context);                            /* setup context for 2nd pass */
 200              		.loc 1 54 5
 201 0122 2809     		addi	a0,sp,152
 202 0124 97000000 		call	utils_md5_init
 202      E7800000 
 203              	.LVL24:
  55:C:/Users/stapi/OneDrive/Desktop/GD32VW553/V1_MQTT_OK/GD32VW55X_Wifi_BLE_SDK/GD32VW55x_RELEASE_V1.0.2/MSDK/cloud/alicloud/src/infra/utils/digest\utils_hmac.c ****     utils_md5_update(&context, k_opad, KEY_IOPAD_SIZE);    /* start with outer pad */
 204              		.loc 1 55 5
 205 012c 2809     		addi	a0,sp,152
 206 012e 97000000 		call	utils_md5_starts
 206      E7800000 
 207              	.LVL25:
  56:C:/Users/stapi/OneDrive/Desktop/GD32VW553/V1_MQTT_OK/GD32VW55X_Wifi_BLE_SDK/GD32VW55x_RELEASE_V1.0.2/MSDK/cloud/alicloud/src/infra/utils/digest\utils_hmac.c ****     utils_md5_update(&context, out, MD5_DIGEST_SIZE);      /* then results of 1st hash */
 208              		.loc 1 56 5
 209 0136 A685     		mv	a1,s1
 210 0138 13060004 		li	a2,64
 211 013c 2809     		addi	a0,sp,152
 212 013e 97000000 		call	utils_md5_update
 212      E7800000 
 213              	.LVL26:
  57:C:/Users/stapi/OneDrive/Desktop/GD32VW553/V1_MQTT_OK/GD32VW55X_Wifi_BLE_SDK/GD32VW55x_RELEASE_V1.0.2/MSDK/cloud/alicloud/src/infra/utils/digest\utils_hmac.c ****     utils_md5_finish(&context, out);                       /* finish up 2nd pass */
 214              		.loc 1 57 5
 215 0146 4146     		li	a2,16
 216 0148 2C00     		addi	a1,sp,8
 217 014a 2809     		addi	a0,sp,152
 218 014c 97000000 		call	utils_md5_update
 218      E7800000 
 219              	.LVL27:
  58:C:/Users/stapi/OneDrive/Desktop/GD32VW553/V1_MQTT_OK/GD32VW55X_Wifi_BLE_SDK/GD32VW55x_RELEASE_V1.0.2/MSDK/cloud/alicloud/src/infra/utils/digest\utils_hmac.c **** 
 220              		.loc 1 58 5
 221 0154 2C00     		addi	a1,sp,8
 222 0156 2809     		addi	a0,sp,152
 223 0158 97000000 		call	utils_md5_finish
 223      E7800000 
 224              	.LVL28:
  60:C:/Users/stapi/OneDrive/Desktop/GD32VW553/V1_MQTT_OK/GD32VW55X_Wifi_BLE_SDK/GD32VW55x_RELEASE_V1.0.2/MSDK/cloud/alicloud/src/infra/utils/digest\utils_hmac.c ****         digest[i * 2] = utils_hb2hex(out[i] >> 4);
 225              		.loc 1 60 5
  60:C:/Users/stapi/OneDrive/Desktop/GD32VW553/V1_MQTT_OK/GD32VW55X_Wifi_BLE_SDK/GD32VW55x_RELEASE_V1.0.2/MSDK/cloud/alicloud/src/infra/utils/digest\utils_hmac.c ****         digest[i * 2] = utils_hb2hex(out[i] >> 4);
 226              		.loc 1 60 17
 227 0160 2400     		addi	s1,sp,8
 228 0162 13090402 		addi	s2,s0,32
 229              	.LVL29:
 230              	.L7:
  61:C:/Users/stapi/OneDrive/Desktop/GD32VW553/V1_MQTT_OK/GD32VW55X_Wifi_BLE_SDK/GD32VW55x_RELEASE_V1.0.2/MSDK/cloud/alicloud/src/infra/utils/digest\utils_hmac.c ****         digest[i * 2 + 1] = utils_hb2hex(out[i]);
 231              		.loc 1 61 9 discriminator 3
  61:C:/Users/stapi/OneDrive/Desktop/GD32VW553/V1_MQTT_OK/GD32VW55X_Wifi_BLE_SDK/GD32VW55x_RELEASE_V1.0.2/MSDK/cloud/alicloud/src/infra/utils/digest\utils_hmac.c ****         digest[i * 2 + 1] = utils_hb2hex(out[i]);
 232              		.loc 1 61 25 is_stmt 0 discriminator 3
 233 0166 03C50400 		lbu	a0,0(s1)
  60:C:/Users/stapi/OneDrive/Desktop/GD32VW553/V1_MQTT_OK/GD32VW55X_Wifi_BLE_SDK/GD32VW55x_RELEASE_V1.0.2/MSDK/cloud/alicloud/src/infra/utils/digest\utils_hmac.c ****         digest[i * 2] = utils_hb2hex(out[i] >> 4);
 234              		.loc 1 60 5 discriminator 3
 235 016a 0904     		addi	s0,s0,2
 236 016c 8504     		addi	s1,s1,1
 237              	.LVL30:
  61:C:/Users/stapi/OneDrive/Desktop/GD32VW553/V1_MQTT_OK/GD32VW55X_Wifi_BLE_SDK/GD32VW55x_RELEASE_V1.0.2/MSDK/cloud/alicloud/src/infra/utils/digest\utils_hmac.c ****         digest[i * 2 + 1] = utils_hb2hex(out[i]);
 238              		.loc 1 61 25 discriminator 3
 239 016e 1181     		srli	a0,a0,4
 240 0170 97000000 		call	utils_hb2hex
 240      E7800000 
 241              	.LVL31:
  61:C:/Users/stapi/OneDrive/Desktop/GD32VW553/V1_MQTT_OK/GD32VW55X_Wifi_BLE_SDK/GD32VW55x_RELEASE_V1.0.2/MSDK/cloud/alicloud/src/infra/utils/digest\utils_hmac.c ****         digest[i * 2 + 1] = utils_hb2hex(out[i]);
 242              		.loc 1 61 23 discriminator 3
 243 0178 230FA4FE 		sb	a0,-2(s0)
  62:C:/Users/stapi/OneDrive/Desktop/GD32VW553/V1_MQTT_OK/GD32VW55X_Wifi_BLE_SDK/GD32VW55x_RELEASE_V1.0.2/MSDK/cloud/alicloud/src/infra/utils/digest\utils_hmac.c ****     }
 244              		.loc 1 62 9 is_stmt 1 discriminator 3
  62:C:/Users/stapi/OneDrive/Desktop/GD32VW553/V1_MQTT_OK/GD32VW55X_Wifi_BLE_SDK/GD32VW55x_RELEASE_V1.0.2/MSDK/cloud/alicloud/src/infra/utils/digest\utils_hmac.c ****     }
 245              		.loc 1 62 29 is_stmt 0 discriminator 3
 246 017c 03C5F4FF 		lbu	a0,-1(s1)
 247 0180 97000000 		call	utils_hb2hex
 247      E7800000 
 248              	.LVL32:
  62:C:/Users/stapi/OneDrive/Desktop/GD32VW553/V1_MQTT_OK/GD32VW55X_Wifi_BLE_SDK/GD32VW55x_RELEASE_V1.0.2/MSDK/cloud/alicloud/src/infra/utils/digest\utils_hmac.c ****     }
 249              		.loc 1 62 27 discriminator 3
 250 0188 A30FA4FE 		sb	a0,-1(s0)
  60:C:/Users/stapi/OneDrive/Desktop/GD32VW553/V1_MQTT_OK/GD32VW55X_Wifi_BLE_SDK/GD32VW55x_RELEASE_V1.0.2/MSDK/cloud/alicloud/src/infra/utils/digest\utils_hmac.c ****         digest[i * 2] = utils_hb2hex(out[i] >> 4);
 251              		.loc 1 60 38 is_stmt 1 discriminator 3
 252              	.LVL33:
  60:C:/Users/stapi/OneDrive/Desktop/GD32VW553/V1_MQTT_OK/GD32VW55X_Wifi_BLE_SDK/GD32VW55x_RELEASE_V1.0.2/MSDK/cloud/alicloud/src/infra/utils/digest\utils_hmac.c ****         digest[i * 2] = utils_hb2hex(out[i] >> 4);
 253              		.loc 1 60 17 discriminator 3
  60:C:/Users/stapi/OneDrive/Desktop/GD32VW553/V1_MQTT_OK/GD32VW55X_Wifi_BLE_SDK/GD32VW55x_RELEASE_V1.0.2/MSDK/cloud/alicloud/src/infra/utils/digest\utils_hmac.c ****         digest[i * 2] = utils_hb2hex(out[i] >> 4);
 254              		.loc 1 60 5 is_stmt 0 discriminator 3
 255 018c E31D24FD 		bne	s0,s2,.L7
 256 0190 55BD     		j	.L1
 257              		.cfi_endproc
 258              	.LFE20:
 260              		.section	.text.utils_hmac_sha1_hex,"ax",@progbits
 261              		.align	1
 262              		.globl	utils_hmac_sha1_hex
 264              	utils_hmac_sha1_hex:
 265              	.LFB21:
  65:C:/Users/stapi/OneDrive/Desktop/GD32VW553/V1_MQTT_OK/GD32VW55X_Wifi_BLE_SDK/GD32VW55x_RELEASE_V1.0.2/MSDK/cloud/alicloud/src/infra/utils/digest\utils_hmac.c **** 
  66:C:/Users/stapi/OneDrive/Desktop/GD32VW553/V1_MQTT_OK/GD32VW55X_Wifi_BLE_SDK/GD32VW55x_RELEASE_V1.0.2/MSDK/cloud/alicloud/src/infra/utils/digest\utils_hmac.c **** void utils_hmac_sha1_hex(const char *msg, int msg_len, char *digest, const char *key, int key_len)
  67:C:/Users/stapi/OneDrive/Desktop/GD32VW553/V1_MQTT_OK/GD32VW55X_Wifi_BLE_SDK/GD32VW55x_RELEASE_V1.0.2/MSDK/cloud/alicloud/src/infra/utils/digest\utils_hmac.c **** {
 266              		.loc 1 67 1 is_stmt 1
 267              		.cfi_startproc
 268              	.LVL34:
 269 0000 17030000 		call	t0,__riscv_save_6
 269      E7020300 
 270              		.cfi_offset 21, -28
 271              		.cfi_offset 20, -24
 272              		.cfi_offset 19, -20
 273              		.cfi_offset 18, -16
 274              		.cfi_offset 9, -12
 275              		.cfi_offset 8, -8
 276              		.cfi_offset 1, -4
 277              		.cfi_def_cfa_offset 32
  68:C:/Users/stapi/OneDrive/Desktop/GD32VW553/V1_MQTT_OK/GD32VW55X_Wifi_BLE_SDK/GD32VW55x_RELEASE_V1.0.2/MSDK/cloud/alicloud/src/infra/utils/digest\utils_hmac.c ****     if ((NULL == msg) || (NULL == digest) || (NULL == key)) {
 278              		.loc 1 68 5
  67:C:/Users/stapi/OneDrive/Desktop/GD32VW553/V1_MQTT_OK/GD32VW55X_Wifi_BLE_SDK/GD32VW55x_RELEASE_V1.0.2/MSDK/cloud/alicloud/src/infra/utils/digest\utils_hmac.c ****     if ((NULL == msg) || (NULL == digest) || (NULL == key)) {
 279              		.loc 1 67 1 is_stmt 0
 280 0008 5171     		addi	sp,sp,-240
 281              		.cfi_def_cfa_offset 272
 282              		.loc 1 68 8
 283 000a 09C5     		beq	a0,zero,.L19
 284 000c B289     		mv	s3,a2
 285              		.loc 1 68 23 discriminator 1
 286 000e 19C2     		beq	a2,zero,.L19
 287 0010 B684     		mv	s1,a3
 288              		.loc 1 68 43 discriminator 2
 289 0012 95EE     		bne	a3,zero,.L20
 290              	.L19:
  69:C:/Users/stapi/OneDrive/Desktop/GD32VW553/V1_MQTT_OK/GD32VW55X_Wifi_BLE_SDK/GD32VW55x_RELEASE_V1.0.2/MSDK/cloud/alicloud/src/infra/utils/digest\utils_hmac.c ****         utils_err("parameter is Null,failed!");
 291              		.loc 1 69 9 is_stmt 1
 292              		.loc 1 69 9
 293 0014 37050000 		lui	a0,%hi(.LC0)
 294              	.LVL35:
 295 0018 13050500 		addi	a0,a0,%lo(.LC0)
 296 001c 97000000 		call	HAL_Printf
 296      E7800000 
 297              	.LVL36:
 298              		.loc 1 69 9
 299 0024 37050000 		lui	a0,%hi(.LC1)
 300 0028 13050500 		addi	a0,a0,%lo(.LC1)
 301 002c 97000000 		call	HAL_Printf
 301      E7800000 
 302              	.LVL37:
 303              		.loc 1 69 9
 304              	.L33:
  70:C:/Users/stapi/OneDrive/Desktop/GD32VW553/V1_MQTT_OK/GD32VW55X_Wifi_BLE_SDK/GD32VW55x_RELEASE_V1.0.2/MSDK/cloud/alicloud/src/infra/utils/digest\utils_hmac.c ****         return;
  71:C:/Users/stapi/OneDrive/Desktop/GD32VW553/V1_MQTT_OK/GD32VW55X_Wifi_BLE_SDK/GD32VW55x_RELEASE_V1.0.2/MSDK/cloud/alicloud/src/infra/utils/digest\utils_hmac.c ****     }
  72:C:/Users/stapi/OneDrive/Desktop/GD32VW553/V1_MQTT_OK/GD32VW55X_Wifi_BLE_SDK/GD32VW55x_RELEASE_V1.0.2/MSDK/cloud/alicloud/src/infra/utils/digest\utils_hmac.c **** 
  73:C:/Users/stapi/OneDrive/Desktop/GD32VW553/V1_MQTT_OK/GD32VW55X_Wifi_BLE_SDK/GD32VW55x_RELEASE_V1.0.2/MSDK/cloud/alicloud/src/infra/utils/digest\utils_hmac.c ****     if (key_len > KEY_IOPAD_SIZE) {
  74:C:/Users/stapi/OneDrive/Desktop/GD32VW553/V1_MQTT_OK/GD32VW55X_Wifi_BLE_SDK/GD32VW55x_RELEASE_V1.0.2/MSDK/cloud/alicloud/src/infra/utils/digest\utils_hmac.c ****         utils_err("key_len > size(%d) of array", KEY_IOPAD_SIZE);
 305              		.loc 1 74 9
 306 0034 37050000 		lui	a0,%hi(.LC2)
 307 0038 13050500 		addi	a0,a0,%lo(.LC2)
 308 003c 97000000 		call	HAL_Printf
 308      E7800000 
 309              	.LVL38:
 310              		.loc 1 74 9
  75:C:/Users/stapi/OneDrive/Desktop/GD32VW553/V1_MQTT_OK/GD32VW55X_Wifi_BLE_SDK/GD32VW55x_RELEASE_V1.0.2/MSDK/cloud/alicloud/src/infra/utils/digest\utils_hmac.c ****         return;
 311              		.loc 1 75 9
 312              	.L18:
  76:C:/Users/stapi/OneDrive/Desktop/GD32VW553/V1_MQTT_OK/GD32VW55X_Wifi_BLE_SDK/GD32VW55x_RELEASE_V1.0.2/MSDK/cloud/alicloud/src/infra/utils/digest\utils_hmac.c ****     }
  77:C:/Users/stapi/OneDrive/Desktop/GD32VW553/V1_MQTT_OK/GD32VW55X_Wifi_BLE_SDK/GD32VW55x_RELEASE_V1.0.2/MSDK/cloud/alicloud/src/infra/utils/digest\utils_hmac.c **** 
  78:C:/Users/stapi/OneDrive/Desktop/GD32VW553/V1_MQTT_OK/GD32VW55X_Wifi_BLE_SDK/GD32VW55x_RELEASE_V1.0.2/MSDK/cloud/alicloud/src/infra/utils/digest\utils_hmac.c ****     iot_sha1_context context;
  79:C:/Users/stapi/OneDrive/Desktop/GD32VW553/V1_MQTT_OK/GD32VW55X_Wifi_BLE_SDK/GD32VW55x_RELEASE_V1.0.2/MSDK/cloud/alicloud/src/infra/utils/digest\utils_hmac.c ****     unsigned char k_ipad[KEY_IOPAD_SIZE];    /* inner padding - key XORd with ipad  */
  80:C:/Users/stapi/OneDrive/Desktop/GD32VW553/V1_MQTT_OK/GD32VW55X_Wifi_BLE_SDK/GD32VW55x_RELEASE_V1.0.2/MSDK/cloud/alicloud/src/infra/utils/digest\utils_hmac.c ****     unsigned char k_opad[KEY_IOPAD_SIZE];    /* outer padding - key XORd with opad */
  81:C:/Users/stapi/OneDrive/Desktop/GD32VW553/V1_MQTT_OK/GD32VW55X_Wifi_BLE_SDK/GD32VW55x_RELEASE_V1.0.2/MSDK/cloud/alicloud/src/infra/utils/digest\utils_hmac.c ****     unsigned char out[SHA1_DIGEST_SIZE];
  82:C:/Users/stapi/OneDrive/Desktop/GD32VW553/V1_MQTT_OK/GD32VW55X_Wifi_BLE_SDK/GD32VW55x_RELEASE_V1.0.2/MSDK/cloud/alicloud/src/infra/utils/digest\utils_hmac.c ****     int i;
  83:C:/Users/stapi/OneDrive/Desktop/GD32VW553/V1_MQTT_OK/GD32VW55X_Wifi_BLE_SDK/GD32VW55x_RELEASE_V1.0.2/MSDK/cloud/alicloud/src/infra/utils/digest\utils_hmac.c **** 
  84:C:/Users/stapi/OneDrive/Desktop/GD32VW553/V1_MQTT_OK/GD32VW55X_Wifi_BLE_SDK/GD32VW55x_RELEASE_V1.0.2/MSDK/cloud/alicloud/src/infra/utils/digest\utils_hmac.c ****     /* start out by storing key in pads */
  85:C:/Users/stapi/OneDrive/Desktop/GD32VW553/V1_MQTT_OK/GD32VW55X_Wifi_BLE_SDK/GD32VW55x_RELEASE_V1.0.2/MSDK/cloud/alicloud/src/infra/utils/digest\utils_hmac.c ****     memset(k_ipad, 0, sizeof(k_ipad));
  86:C:/Users/stapi/OneDrive/Desktop/GD32VW553/V1_MQTT_OK/GD32VW55X_Wifi_BLE_SDK/GD32VW55x_RELEASE_V1.0.2/MSDK/cloud/alicloud/src/infra/utils/digest\utils_hmac.c ****     memset(k_opad, 0, sizeof(k_opad));
  87:C:/Users/stapi/OneDrive/Desktop/GD32VW553/V1_MQTT_OK/GD32VW55X_Wifi_BLE_SDK/GD32VW55x_RELEASE_V1.0.2/MSDK/cloud/alicloud/src/infra/utils/digest\utils_hmac.c ****     memcpy(k_ipad, key, key_len);
  88:C:/Users/stapi/OneDrive/Desktop/GD32VW553/V1_MQTT_OK/GD32VW55X_Wifi_BLE_SDK/GD32VW55x_RELEASE_V1.0.2/MSDK/cloud/alicloud/src/infra/utils/digest\utils_hmac.c ****     memcpy(k_opad, key, key_len);
  89:C:/Users/stapi/OneDrive/Desktop/GD32VW553/V1_MQTT_OK/GD32VW55X_Wifi_BLE_SDK/GD32VW55x_RELEASE_V1.0.2/MSDK/cloud/alicloud/src/infra/utils/digest\utils_hmac.c **** 
  90:C:/Users/stapi/OneDrive/Desktop/GD32VW553/V1_MQTT_OK/GD32VW55X_Wifi_BLE_SDK/GD32VW55x_RELEASE_V1.0.2/MSDK/cloud/alicloud/src/infra/utils/digest\utils_hmac.c ****     /* XOR key with ipad and opad values */
  91:C:/Users/stapi/OneDrive/Desktop/GD32VW553/V1_MQTT_OK/GD32VW55X_Wifi_BLE_SDK/GD32VW55x_RELEASE_V1.0.2/MSDK/cloud/alicloud/src/infra/utils/digest\utils_hmac.c ****     for (i = 0; i < KEY_IOPAD_SIZE; i++) {
  92:C:/Users/stapi/OneDrive/Desktop/GD32VW553/V1_MQTT_OK/GD32VW55X_Wifi_BLE_SDK/GD32VW55x_RELEASE_V1.0.2/MSDK/cloud/alicloud/src/infra/utils/digest\utils_hmac.c ****         k_ipad[i] ^= 0x36;
  93:C:/Users/stapi/OneDrive/Desktop/GD32VW553/V1_MQTT_OK/GD32VW55X_Wifi_BLE_SDK/GD32VW55x_RELEASE_V1.0.2/MSDK/cloud/alicloud/src/infra/utils/digest\utils_hmac.c ****         k_opad[i] ^= 0x5c;
  94:C:/Users/stapi/OneDrive/Desktop/GD32VW553/V1_MQTT_OK/GD32VW55X_Wifi_BLE_SDK/GD32VW55x_RELEASE_V1.0.2/MSDK/cloud/alicloud/src/infra/utils/digest\utils_hmac.c ****     }
  95:C:/Users/stapi/OneDrive/Desktop/GD32VW553/V1_MQTT_OK/GD32VW55X_Wifi_BLE_SDK/GD32VW55x_RELEASE_V1.0.2/MSDK/cloud/alicloud/src/infra/utils/digest\utils_hmac.c **** 
  96:C:/Users/stapi/OneDrive/Desktop/GD32VW553/V1_MQTT_OK/GD32VW55X_Wifi_BLE_SDK/GD32VW55x_RELEASE_V1.0.2/MSDK/cloud/alicloud/src/infra/utils/digest\utils_hmac.c ****     /* perform inner SHA */
  97:C:/Users/stapi/OneDrive/Desktop/GD32VW553/V1_MQTT_OK/GD32VW55X_Wifi_BLE_SDK/GD32VW55x_RELEASE_V1.0.2/MSDK/cloud/alicloud/src/infra/utils/digest\utils_hmac.c ****     utils_sha1_init(&context);                                      /* init context for 1st pass */
  98:C:/Users/stapi/OneDrive/Desktop/GD32VW553/V1_MQTT_OK/GD32VW55X_Wifi_BLE_SDK/GD32VW55x_RELEASE_V1.0.2/MSDK/cloud/alicloud/src/infra/utils/digest\utils_hmac.c ****     utils_sha1_starts(&context);                                    /* setup context for 1st pass *
  99:C:/Users/stapi/OneDrive/Desktop/GD32VW553/V1_MQTT_OK/GD32VW55X_Wifi_BLE_SDK/GD32VW55x_RELEASE_V1.0.2/MSDK/cloud/alicloud/src/infra/utils/digest\utils_hmac.c ****     utils_sha1_update(&context, k_ipad, KEY_IOPAD_SIZE);            /* start with inner pad */
 100:C:/Users/stapi/OneDrive/Desktop/GD32VW553/V1_MQTT_OK/GD32VW55X_Wifi_BLE_SDK/GD32VW55x_RELEASE_V1.0.2/MSDK/cloud/alicloud/src/infra/utils/digest\utils_hmac.c ****     utils_sha1_update(&context, (unsigned char *) msg, msg_len);    /* then text of datagram */
 101:C:/Users/stapi/OneDrive/Desktop/GD32VW553/V1_MQTT_OK/GD32VW55X_Wifi_BLE_SDK/GD32VW55x_RELEASE_V1.0.2/MSDK/cloud/alicloud/src/infra/utils/digest\utils_hmac.c ****     utils_sha1_finish(&context, out);                               /* finish up 1st pass */
 102:C:/Users/stapi/OneDrive/Desktop/GD32VW553/V1_MQTT_OK/GD32VW55X_Wifi_BLE_SDK/GD32VW55x_RELEASE_V1.0.2/MSDK/cloud/alicloud/src/infra/utils/digest\utils_hmac.c **** 
 103:C:/Users/stapi/OneDrive/Desktop/GD32VW553/V1_MQTT_OK/GD32VW55X_Wifi_BLE_SDK/GD32VW55x_RELEASE_V1.0.2/MSDK/cloud/alicloud/src/infra/utils/digest\utils_hmac.c ****     /* perform outer SHA */
 104:C:/Users/stapi/OneDrive/Desktop/GD32VW553/V1_MQTT_OK/GD32VW55X_Wifi_BLE_SDK/GD32VW55x_RELEASE_V1.0.2/MSDK/cloud/alicloud/src/infra/utils/digest\utils_hmac.c ****     utils_sha1_init(&context);                              /* init context for 2nd pass */
 105:C:/Users/stapi/OneDrive/Desktop/GD32VW553/V1_MQTT_OK/GD32VW55X_Wifi_BLE_SDK/GD32VW55x_RELEASE_V1.0.2/MSDK/cloud/alicloud/src/infra/utils/digest\utils_hmac.c ****     utils_sha1_starts(&context);                            /* setup context for 2nd pass */
 106:C:/Users/stapi/OneDrive/Desktop/GD32VW553/V1_MQTT_OK/GD32VW55X_Wifi_BLE_SDK/GD32VW55x_RELEASE_V1.0.2/MSDK/cloud/alicloud/src/infra/utils/digest\utils_hmac.c ****     utils_sha1_update(&context, k_opad, KEY_IOPAD_SIZE);    /* start with outer pad */
 107:C:/Users/stapi/OneDrive/Desktop/GD32VW553/V1_MQTT_OK/GD32VW55X_Wifi_BLE_SDK/GD32VW55x_RELEASE_V1.0.2/MSDK/cloud/alicloud/src/infra/utils/digest\utils_hmac.c ****     utils_sha1_update(&context, out, SHA1_DIGEST_SIZE);     /* then results of 1st hash */
 108:C:/Users/stapi/OneDrive/Desktop/GD32VW553/V1_MQTT_OK/GD32VW55X_Wifi_BLE_SDK/GD32VW55x_RELEASE_V1.0.2/MSDK/cloud/alicloud/src/infra/utils/digest\utils_hmac.c ****     utils_sha1_finish(&context, out);                       /* finish up 2nd pass */
 109:C:/Users/stapi/OneDrive/Desktop/GD32VW553/V1_MQTT_OK/GD32VW55X_Wifi_BLE_SDK/GD32VW55x_RELEASE_V1.0.2/MSDK/cloud/alicloud/src/infra/utils/digest\utils_hmac.c ****     memcpy(digest, out, SHA1_DIGEST_SIZE);
 110:C:/Users/stapi/OneDrive/Desktop/GD32VW553/V1_MQTT_OK/GD32VW55X_Wifi_BLE_SDK/GD32VW55x_RELEASE_V1.0.2/MSDK/cloud/alicloud/src/infra/utils/digest\utils_hmac.c **** }
 313              		.loc 1 110 1 is_stmt 0
 314 0044 6D61     		addi	sp,sp,240
 315              		.cfi_remember_state
 316              		.cfi_def_cfa_offset 0
 317 0046 17030000 		tail	__riscv_restore_6
 317      67000300 
 318              		.cfi_restore 21
 319              		.cfi_restore 20
 320              		.cfi_restore 19
 321              		.cfi_restore 18
 322              		.cfi_restore 9
 323              		.cfi_restore 8
 324              		.cfi_restore 1
 325              		.cfi_def_cfa_offset -32
 326              	.LVL39:
 327              	.L20:
 328              		.cfi_restore_state
  73:C:/Users/stapi/OneDrive/Desktop/GD32VW553/V1_MQTT_OK/GD32VW55X_Wifi_BLE_SDK/GD32VW55x_RELEASE_V1.0.2/MSDK/cloud/alicloud/src/infra/utils/digest\utils_hmac.c ****         utils_err("key_len > size(%d) of array", KEY_IOPAD_SIZE);
 329              		.loc 1 73 8
 330 004e 93070004 		li	a5,64
 331 0052 3A89     		mv	s2,a4
  73:C:/Users/stapi/OneDrive/Desktop/GD32VW553/V1_MQTT_OK/GD32VW55X_Wifi_BLE_SDK/GD32VW55x_RELEASE_V1.0.2/MSDK/cloud/alicloud/src/infra/utils/digest\utils_hmac.c ****         utils_err("key_len > size(%d) of array", KEY_IOPAD_SIZE);
 332              		.loc 1 73 5 is_stmt 1
  73:C:/Users/stapi/OneDrive/Desktop/GD32VW553/V1_MQTT_OK/GD32VW55X_Wifi_BLE_SDK/GD32VW55x_RELEASE_V1.0.2/MSDK/cloud/alicloud/src/infra/utils/digest\utils_hmac.c ****         utils_err("key_len > size(%d) of array", KEY_IOPAD_SIZE);
 333              		.loc 1 73 8 is_stmt 0
 334 0054 63D5E702 		ble	a4,a5,.L22
  74:C:/Users/stapi/OneDrive/Desktop/GD32VW553/V1_MQTT_OK/GD32VW55X_Wifi_BLE_SDK/GD32VW55x_RELEASE_V1.0.2/MSDK/cloud/alicloud/src/infra/utils/digest\utils_hmac.c ****         return;
 335              		.loc 1 74 9 is_stmt 1
  74:C:/Users/stapi/OneDrive/Desktop/GD32VW553/V1_MQTT_OK/GD32VW55X_Wifi_BLE_SDK/GD32VW55x_RELEASE_V1.0.2/MSDK/cloud/alicloud/src/infra/utils/digest\utils_hmac.c ****         return;
 336              		.loc 1 74 9
 337 0058 37050000 		lui	a0,%hi(.LC0)
 338              	.LVL40:
 339 005c 13050500 		addi	a0,a0,%lo(.LC0)
 340 0060 97000000 		call	HAL_Printf
 340      E7800000 
 341              	.LVL41:
  74:C:/Users/stapi/OneDrive/Desktop/GD32VW553/V1_MQTT_OK/GD32VW55X_Wifi_BLE_SDK/GD32VW55x_RELEASE_V1.0.2/MSDK/cloud/alicloud/src/infra/utils/digest\utils_hmac.c ****         return;
 342              		.loc 1 74 9
 343 0068 37050000 		lui	a0,%hi(.LC3)
 344 006c 93050004 		li	a1,64
 345 0070 13050500 		addi	a0,a0,%lo(.LC3)
 346 0074 97000000 		call	HAL_Printf
 346      E7800000 
 347              	.LVL42:
 348 007c 65BF     		j	.L33
 349              	.LVL43:
 350              	.L22:
  85:C:/Users/stapi/OneDrive/Desktop/GD32VW553/V1_MQTT_OK/GD32VW55X_Wifi_BLE_SDK/GD32VW55x_RELEASE_V1.0.2/MSDK/cloud/alicloud/src/infra/utils/digest\utils_hmac.c ****     memset(k_opad, 0, sizeof(k_opad));
 351              		.loc 1 85 5 is_stmt 0
 352 007e 13060004 		li	a2,64
 353              	.LVL44:
 354 0082 2A8A     		mv	s4,a0
 355 0084 AE8A     		mv	s5,a1
  78:C:/Users/stapi/OneDrive/Desktop/GD32VW553/V1_MQTT_OK/GD32VW55X_Wifi_BLE_SDK/GD32VW55x_RELEASE_V1.0.2/MSDK/cloud/alicloud/src/infra/utils/digest\utils_hmac.c ****     unsigned char k_ipad[KEY_IOPAD_SIZE];    /* inner padding - key XORd with ipad  */
 356              		.loc 1 78 5 is_stmt 1
  79:C:/Users/stapi/OneDrive/Desktop/GD32VW553/V1_MQTT_OK/GD32VW55X_Wifi_BLE_SDK/GD32VW55x_RELEASE_V1.0.2/MSDK/cloud/alicloud/src/infra/utils/digest\utils_hmac.c ****     unsigned char k_opad[KEY_IOPAD_SIZE];    /* outer padding - key XORd with opad */
 357              		.loc 1 79 5
  80:C:/Users/stapi/OneDrive/Desktop/GD32VW553/V1_MQTT_OK/GD32VW55X_Wifi_BLE_SDK/GD32VW55x_RELEASE_V1.0.2/MSDK/cloud/alicloud/src/infra/utils/digest\utils_hmac.c ****     unsigned char out[SHA1_DIGEST_SIZE];
 358              		.loc 1 80 5
  81:C:/Users/stapi/OneDrive/Desktop/GD32VW553/V1_MQTT_OK/GD32VW55X_Wifi_BLE_SDK/GD32VW55x_RELEASE_V1.0.2/MSDK/cloud/alicloud/src/infra/utils/digest\utils_hmac.c ****     int i;
 359              		.loc 1 81 5
  82:C:/Users/stapi/OneDrive/Desktop/GD32VW553/V1_MQTT_OK/GD32VW55X_Wifi_BLE_SDK/GD32VW55x_RELEASE_V1.0.2/MSDK/cloud/alicloud/src/infra/utils/digest\utils_hmac.c **** 
 360              		.loc 1 82 5
  85:C:/Users/stapi/OneDrive/Desktop/GD32VW553/V1_MQTT_OK/GD32VW55X_Wifi_BLE_SDK/GD32VW55x_RELEASE_V1.0.2/MSDK/cloud/alicloud/src/infra/utils/digest\utils_hmac.c ****     memset(k_opad, 0, sizeof(k_opad));
 361              		.loc 1 85 5
 362 0086 4808     		addi	a0,sp,20
 363              	.LVL45:
 364 0088 8145     		li	a1,0
 365              	.LVL46:
 366 008a 97000000 		call	memset
 366      E7800000 
 367              	.LVL47:
  86:C:/Users/stapi/OneDrive/Desktop/GD32VW553/V1_MQTT_OK/GD32VW55X_Wifi_BLE_SDK/GD32VW55x_RELEASE_V1.0.2/MSDK/cloud/alicloud/src/infra/utils/digest\utils_hmac.c ****     memcpy(k_ipad, key, key_len);
 368              		.loc 1 86 5
 369 0092 C008     		addi	s0,sp,84
 370 0094 13060004 		li	a2,64
 371 0098 8145     		li	a1,0
 372 009a 2285     		mv	a0,s0
 373 009c 97000000 		call	memset
 373      E7800000 
 374              	.LVL48:
  87:C:/Users/stapi/OneDrive/Desktop/GD32VW553/V1_MQTT_OK/GD32VW55X_Wifi_BLE_SDK/GD32VW55x_RELEASE_V1.0.2/MSDK/cloud/alicloud/src/infra/utils/digest\utils_hmac.c ****     memcpy(k_opad, key, key_len);
 375              		.loc 1 87 5
 376 00a4 4A86     		mv	a2,s2
 377 00a6 A685     		mv	a1,s1
 378 00a8 4808     		addi	a0,sp,20
 379 00aa 97000000 		call	memcpy
 379      E7800000 
 380              	.LVL49:
  88:C:/Users/stapi/OneDrive/Desktop/GD32VW553/V1_MQTT_OK/GD32VW55X_Wifi_BLE_SDK/GD32VW55x_RELEASE_V1.0.2/MSDK/cloud/alicloud/src/infra/utils/digest\utils_hmac.c **** 
 381              		.loc 1 88 5
 382 00b2 4A86     		mv	a2,s2
 383 00b4 A685     		mv	a1,s1
 384 00b6 2285     		mv	a0,s0
 385 00b8 97000000 		call	memcpy
 385      E7800000 
 386              	.LVL50:
  91:C:/Users/stapi/OneDrive/Desktop/GD32VW553/V1_MQTT_OK/GD32VW55X_Wifi_BLE_SDK/GD32VW55x_RELEASE_V1.0.2/MSDK/cloud/alicloud/src/infra/utils/digest\utils_hmac.c ****         k_ipad[i] ^= 0x36;
 387              		.loc 1 91 5
  91:C:/Users/stapi/OneDrive/Desktop/GD32VW553/V1_MQTT_OK/GD32VW55X_Wifi_BLE_SDK/GD32VW55x_RELEASE_V1.0.2/MSDK/cloud/alicloud/src/infra/utils/digest\utils_hmac.c ****         k_ipad[i] ^= 0x36;
 388              		.loc 1 91 17
 389 00c0 5C08     		addi	a5,sp,20
 390 00c2 2287     		mv	a4,s0
 391              	.LVL51:
 392              	.L23:
  92:C:/Users/stapi/OneDrive/Desktop/GD32VW553/V1_MQTT_OK/GD32VW55X_Wifi_BLE_SDK/GD32VW55x_RELEASE_V1.0.2/MSDK/cloud/alicloud/src/infra/utils/digest\utils_hmac.c ****         k_opad[i] ^= 0x5c;
 393              		.loc 1 92 9 discriminator 3
  92:C:/Users/stapi/OneDrive/Desktop/GD32VW553/V1_MQTT_OK/GD32VW55X_Wifi_BLE_SDK/GD32VW55x_RELEASE_V1.0.2/MSDK/cloud/alicloud/src/infra/utils/digest\utils_hmac.c ****         k_opad[i] ^= 0x5c;
 394              		.loc 1 92 19 is_stmt 0 discriminator 3
 395 00c4 83C60700 		lbu	a3,0(a5)
  91:C:/Users/stapi/OneDrive/Desktop/GD32VW553/V1_MQTT_OK/GD32VW55X_Wifi_BLE_SDK/GD32VW55x_RELEASE_V1.0.2/MSDK/cloud/alicloud/src/infra/utils/digest\utils_hmac.c ****         k_ipad[i] ^= 0x36;
 396              		.loc 1 91 5 discriminator 3
 397 00c8 8507     		addi	a5,a5,1
 398              	.LVL52:
 399 00ca 0507     		addi	a4,a4,1
  92:C:/Users/stapi/OneDrive/Desktop/GD32VW553/V1_MQTT_OK/GD32VW55X_Wifi_BLE_SDK/GD32VW55x_RELEASE_V1.0.2/MSDK/cloud/alicloud/src/infra/utils/digest\utils_hmac.c ****         k_opad[i] ^= 0x5c;
 400              		.loc 1 92 19 discriminator 3
 401 00cc 93C66603 		xori	a3,a3,54
 402 00d0 A38FD7FE 		sb	a3,-1(a5)
  93:C:/Users/stapi/OneDrive/Desktop/GD32VW553/V1_MQTT_OK/GD32VW55X_Wifi_BLE_SDK/GD32VW55x_RELEASE_V1.0.2/MSDK/cloud/alicloud/src/infra/utils/digest\utils_hmac.c ****     }
 403              		.loc 1 93 9 is_stmt 1 discriminator 3
  93:C:/Users/stapi/OneDrive/Desktop/GD32VW553/V1_MQTT_OK/GD32VW55X_Wifi_BLE_SDK/GD32VW55x_RELEASE_V1.0.2/MSDK/cloud/alicloud/src/infra/utils/digest\utils_hmac.c ****     }
 404              		.loc 1 93 19 is_stmt 0 discriminator 3
 405 00d4 8346F7FF 		lbu	a3,-1(a4)
 406 00d8 93C6C605 		xori	a3,a3,92
 407 00dc A30FD7FE 		sb	a3,-1(a4)
  91:C:/Users/stapi/OneDrive/Desktop/GD32VW553/V1_MQTT_OK/GD32VW55X_Wifi_BLE_SDK/GD32VW55x_RELEASE_V1.0.2/MSDK/cloud/alicloud/src/infra/utils/digest\utils_hmac.c ****         k_ipad[i] ^= 0x36;
 408              		.loc 1 91 37 is_stmt 1 discriminator 3
 409              	.LVL53:
  91:C:/Users/stapi/OneDrive/Desktop/GD32VW553/V1_MQTT_OK/GD32VW55X_Wifi_BLE_SDK/GD32VW55x_RELEASE_V1.0.2/MSDK/cloud/alicloud/src/infra/utils/digest\utils_hmac.c ****         k_ipad[i] ^= 0x36;
 410              		.loc 1 91 17 discriminator 3
  91:C:/Users/stapi/OneDrive/Desktop/GD32VW553/V1_MQTT_OK/GD32VW55X_Wifi_BLE_SDK/GD32VW55x_RELEASE_V1.0.2/MSDK/cloud/alicloud/src/infra/utils/digest\utils_hmac.c ****         k_ipad[i] ^= 0x36;
 411              		.loc 1 91 5 is_stmt 0 discriminator 3
 412 00e0 E312F4FE 		bne	s0,a5,.L23
  97:C:/Users/stapi/OneDrive/Desktop/GD32VW553/V1_MQTT_OK/GD32VW55X_Wifi_BLE_SDK/GD32VW55x_RELEASE_V1.0.2/MSDK/cloud/alicloud/src/infra/utils/digest\utils_hmac.c ****     utils_sha1_starts(&context);                                    /* setup context for 1st pass *
 413              		.loc 1 97 5 is_stmt 1
 414 00e4 4809     		addi	a0,sp,148
 415 00e6 97000000 		call	utils_sha1_init
 415      E7800000 
 416              	.LVL54:
  98:C:/Users/stapi/OneDrive/Desktop/GD32VW553/V1_MQTT_OK/GD32VW55X_Wifi_BLE_SDK/GD32VW55x_RELEASE_V1.0.2/MSDK/cloud/alicloud/src/infra/utils/digest\utils_hmac.c ****     utils_sha1_update(&context, k_ipad, KEY_IOPAD_SIZE);            /* start with inner pad */
 417              		.loc 1 98 5
 418 00ee 4809     		addi	a0,sp,148
 419 00f0 97000000 		call	utils_sha1_starts
 419      E7800000 
 420              	.LVL55:
  99:C:/Users/stapi/OneDrive/Desktop/GD32VW553/V1_MQTT_OK/GD32VW55X_Wifi_BLE_SDK/GD32VW55x_RELEASE_V1.0.2/MSDK/cloud/alicloud/src/infra/utils/digest\utils_hmac.c ****     utils_sha1_update(&context, (unsigned char *) msg, msg_len);    /* then text of datagram */
 421              		.loc 1 99 5
 422 00f8 4C08     		addi	a1,sp,20
 423 00fa 4809     		addi	a0,sp,148
 424 00fc 13060004 		li	a2,64
 425 0100 97000000 		call	utils_sha1_update
 425      E7800000 
 426              	.LVL56:
 100:C:/Users/stapi/OneDrive/Desktop/GD32VW553/V1_MQTT_OK/GD32VW55X_Wifi_BLE_SDK/GD32VW55x_RELEASE_V1.0.2/MSDK/cloud/alicloud/src/infra/utils/digest\utils_hmac.c ****     utils_sha1_finish(&context, out);                               /* finish up 1st pass */
 427              		.loc 1 100 5
 428 0108 5686     		mv	a2,s5
 429 010a D285     		mv	a1,s4
 430 010c 4809     		addi	a0,sp,148
 431 010e 97000000 		call	utils_sha1_update
 431      E7800000 
 432              	.LVL57:
 101:C:/Users/stapi/OneDrive/Desktop/GD32VW553/V1_MQTT_OK/GD32VW55X_Wifi_BLE_SDK/GD32VW55x_RELEASE_V1.0.2/MSDK/cloud/alicloud/src/infra/utils/digest\utils_hmac.c **** 
 433              		.loc 1 101 5
 434 0116 8A85     		mv	a1,sp
 435 0118 4809     		addi	a0,sp,148
 436 011a 97000000 		call	utils_sha1_finish
 436      E7800000 
 437              	.LVL58:
 104:C:/Users/stapi/OneDrive/Desktop/GD32VW553/V1_MQTT_OK/GD32VW55X_Wifi_BLE_SDK/GD32VW55x_RELEASE_V1.0.2/MSDK/cloud/alicloud/src/infra/utils/digest\utils_hmac.c ****     utils_sha1_starts(&context);                            /* setup context for 2nd pass */
 438              		.loc 1 104 5
 439 0122 4809     		addi	a0,sp,148
 440 0124 97000000 		call	utils_sha1_init
 440      E7800000 
 441              	.LVL59:
 105:C:/Users/stapi/OneDrive/Desktop/GD32VW553/V1_MQTT_OK/GD32VW55X_Wifi_BLE_SDK/GD32VW55x_RELEASE_V1.0.2/MSDK/cloud/alicloud/src/infra/utils/digest\utils_hmac.c ****     utils_sha1_update(&context, k_opad, KEY_IOPAD_SIZE);    /* start with outer pad */
 442              		.loc 1 105 5
 443 012c 4809     		addi	a0,sp,148
 444 012e 97000000 		call	utils_sha1_starts
 444      E7800000 
 445              	.LVL60:
 106:C:/Users/stapi/OneDrive/Desktop/GD32VW553/V1_MQTT_OK/GD32VW55X_Wifi_BLE_SDK/GD32VW55x_RELEASE_V1.0.2/MSDK/cloud/alicloud/src/infra/utils/digest\utils_hmac.c ****     utils_sha1_update(&context, out, SHA1_DIGEST_SIZE);     /* then results of 1st hash */
 446              		.loc 1 106 5
 447 0136 A285     		mv	a1,s0
 448 0138 4809     		addi	a0,sp,148
 449 013a 13060004 		li	a2,64
 450 013e 97000000 		call	utils_sha1_update
 450      E7800000 
 451              	.LVL61:
 107:C:/Users/stapi/OneDrive/Desktop/GD32VW553/V1_MQTT_OK/GD32VW55X_Wifi_BLE_SDK/GD32VW55x_RELEASE_V1.0.2/MSDK/cloud/alicloud/src/infra/utils/digest\utils_hmac.c ****     utils_sha1_finish(&context, out);                       /* finish up 2nd pass */
 452              		.loc 1 107 5
 453 0146 5146     		li	a2,20
 454 0148 8A85     		mv	a1,sp
 455 014a 4809     		addi	a0,sp,148
 456 014c 97000000 		call	utils_sha1_update
 456      E7800000 
 457              	.LVL62:
 108:C:/Users/stapi/OneDrive/Desktop/GD32VW553/V1_MQTT_OK/GD32VW55X_Wifi_BLE_SDK/GD32VW55x_RELEASE_V1.0.2/MSDK/cloud/alicloud/src/infra/utils/digest\utils_hmac.c ****     memcpy(digest, out, SHA1_DIGEST_SIZE);
 458              		.loc 1 108 5
 459 0154 8A85     		mv	a1,sp
 460 0156 4809     		addi	a0,sp,148
 461 0158 97000000 		call	utils_sha1_finish
 461      E7800000 
 462              	.LVL63:
 109:C:/Users/stapi/OneDrive/Desktop/GD32VW553/V1_MQTT_OK/GD32VW55X_Wifi_BLE_SDK/GD32VW55x_RELEASE_V1.0.2/MSDK/cloud/alicloud/src/infra/utils/digest\utils_hmac.c **** }
 463              		.loc 1 109 5
 464 0160 5146     		li	a2,20
 465 0162 8A85     		mv	a1,sp
 466 0164 4E85     		mv	a0,s3
 467 0166 97000000 		call	memcpy
 467      E7800000 
 468              	.LVL64:
 469 016e D9BD     		j	.L18
 470              		.cfi_endproc
 471              	.LFE21:
 473              		.section	.text.utils_hmac_sha256,"ax",@progbits
 474              		.align	1
 475              		.globl	utils_hmac_sha256
 477              	utils_hmac_sha256:
 478              	.LFB22:
 111:C:/Users/stapi/OneDrive/Desktop/GD32VW553/V1_MQTT_OK/GD32VW55X_Wifi_BLE_SDK/GD32VW55x_RELEASE_V1.0.2/MSDK/cloud/alicloud/src/infra/utils/digest\utils_hmac.c **** 
 112:C:/Users/stapi/OneDrive/Desktop/GD32VW553/V1_MQTT_OK/GD32VW55X_Wifi_BLE_SDK/GD32VW55x_RELEASE_V1.0.2/MSDK/cloud/alicloud/src/infra/utils/digest\utils_hmac.c **** void utils_hmac_sha256(const char *msg, int msg_len, char *digest, const char *key, int key_len)
 113:C:/Users/stapi/OneDrive/Desktop/GD32VW553/V1_MQTT_OK/GD32VW55X_Wifi_BLE_SDK/GD32VW55x_RELEASE_V1.0.2/MSDK/cloud/alicloud/src/infra/utils/digest\utils_hmac.c **** {
 479              		.loc 1 113 1
 480              		.cfi_startproc
 481              	.LVL65:
 482 0000 17030000 		call	t0,__riscv_save_6
 482      E7020300 
 483              		.cfi_offset 21, -28
 484              		.cfi_offset 20, -24
 485              		.cfi_offset 19, -20
 486              		.cfi_offset 18, -16
 487              		.cfi_offset 9, -12
 488              		.cfi_offset 8, -8
 489              		.cfi_offset 1, -4
 490              		.cfi_def_cfa_offset 32
 114:C:/Users/stapi/OneDrive/Desktop/GD32VW553/V1_MQTT_OK/GD32VW55X_Wifi_BLE_SDK/GD32VW55x_RELEASE_V1.0.2/MSDK/cloud/alicloud/src/infra/utils/digest\utils_hmac.c ****     if ((NULL == msg) || (NULL == digest) || (NULL == key)) {
 491              		.loc 1 114 5
 113:C:/Users/stapi/OneDrive/Desktop/GD32VW553/V1_MQTT_OK/GD32VW55X_Wifi_BLE_SDK/GD32VW55x_RELEASE_V1.0.2/MSDK/cloud/alicloud/src/infra/utils/digest\utils_hmac.c ****     if ((NULL == msg) || (NULL == digest) || (NULL == key)) {
 492              		.loc 1 113 1 is_stmt 0
 493 0008 6D71     		addi	sp,sp,-272
 494              		.cfi_def_cfa_offset 304
 495              		.loc 1 114 8
 496 000a 09C5     		beq	a0,zero,.L35
 497 000c 3284     		mv	s0,a2
 498              		.loc 1 114 23 discriminator 1
 499 000e 19C2     		beq	a2,zero,.L35
 500 0010 3689     		mv	s2,a3
 501              		.loc 1 114 43 discriminator 2
 502 0012 95EE     		bne	a3,zero,.L36
 503              	.L35:
 115:C:/Users/stapi/OneDrive/Desktop/GD32VW553/V1_MQTT_OK/GD32VW55X_Wifi_BLE_SDK/GD32VW55x_RELEASE_V1.0.2/MSDK/cloud/alicloud/src/infra/utils/digest\utils_hmac.c ****         utils_err("parameter is Null,failed!");
 504              		.loc 1 115 9 is_stmt 1
 505              		.loc 1 115 9
 506 0014 37050000 		lui	a0,%hi(.LC0)
 507              	.LVL66:
 508 0018 13050500 		addi	a0,a0,%lo(.LC0)
 509 001c 97000000 		call	HAL_Printf
 509      E7800000 
 510              	.LVL67:
 511              		.loc 1 115 9
 512 0024 37050000 		lui	a0,%hi(.LC1)
 513 0028 13050500 		addi	a0,a0,%lo(.LC1)
 514 002c 97000000 		call	HAL_Printf
 514      E7800000 
 515              	.LVL68:
 516              		.loc 1 115 9
 517              	.L50:
 116:C:/Users/stapi/OneDrive/Desktop/GD32VW553/V1_MQTT_OK/GD32VW55X_Wifi_BLE_SDK/GD32VW55x_RELEASE_V1.0.2/MSDK/cloud/alicloud/src/infra/utils/digest\utils_hmac.c ****         return;
 117:C:/Users/stapi/OneDrive/Desktop/GD32VW553/V1_MQTT_OK/GD32VW55X_Wifi_BLE_SDK/GD32VW55x_RELEASE_V1.0.2/MSDK/cloud/alicloud/src/infra/utils/digest\utils_hmac.c ****     }
 118:C:/Users/stapi/OneDrive/Desktop/GD32VW553/V1_MQTT_OK/GD32VW55X_Wifi_BLE_SDK/GD32VW55x_RELEASE_V1.0.2/MSDK/cloud/alicloud/src/infra/utils/digest\utils_hmac.c **** 
 119:C:/Users/stapi/OneDrive/Desktop/GD32VW553/V1_MQTT_OK/GD32VW55X_Wifi_BLE_SDK/GD32VW55x_RELEASE_V1.0.2/MSDK/cloud/alicloud/src/infra/utils/digest\utils_hmac.c ****     if (key_len > KEY_IOPAD_SIZE) {
 120:C:/Users/stapi/OneDrive/Desktop/GD32VW553/V1_MQTT_OK/GD32VW55X_Wifi_BLE_SDK/GD32VW55x_RELEASE_V1.0.2/MSDK/cloud/alicloud/src/infra/utils/digest\utils_hmac.c ****         utils_err("key_len > size(%d) of array", KEY_IOPAD_SIZE);
 518              		.loc 1 120 9
 519 0034 37050000 		lui	a0,%hi(.LC2)
 520 0038 13050500 		addi	a0,a0,%lo(.LC2)
 521 003c 97000000 		call	HAL_Printf
 521      E7800000 
 522              	.LVL69:
 523              		.loc 1 120 9
 121:C:/Users/stapi/OneDrive/Desktop/GD32VW553/V1_MQTT_OK/GD32VW55X_Wifi_BLE_SDK/GD32VW55x_RELEASE_V1.0.2/MSDK/cloud/alicloud/src/infra/utils/digest\utils_hmac.c ****         return;
 524              		.loc 1 121 9
 525              	.L34:
 122:C:/Users/stapi/OneDrive/Desktop/GD32VW553/V1_MQTT_OK/GD32VW55X_Wifi_BLE_SDK/GD32VW55x_RELEASE_V1.0.2/MSDK/cloud/alicloud/src/infra/utils/digest\utils_hmac.c ****     }
 123:C:/Users/stapi/OneDrive/Desktop/GD32VW553/V1_MQTT_OK/GD32VW55X_Wifi_BLE_SDK/GD32VW55x_RELEASE_V1.0.2/MSDK/cloud/alicloud/src/infra/utils/digest\utils_hmac.c **** 
 124:C:/Users/stapi/OneDrive/Desktop/GD32VW553/V1_MQTT_OK/GD32VW55X_Wifi_BLE_SDK/GD32VW55x_RELEASE_V1.0.2/MSDK/cloud/alicloud/src/infra/utils/digest\utils_hmac.c ****     iot_sha256_context context;
 125:C:/Users/stapi/OneDrive/Desktop/GD32VW553/V1_MQTT_OK/GD32VW55X_Wifi_BLE_SDK/GD32VW55x_RELEASE_V1.0.2/MSDK/cloud/alicloud/src/infra/utils/digest\utils_hmac.c ****     unsigned char k_ipad[KEY_IOPAD_SIZE];    /* inner padding - key XORd with ipad  */
 126:C:/Users/stapi/OneDrive/Desktop/GD32VW553/V1_MQTT_OK/GD32VW55X_Wifi_BLE_SDK/GD32VW55x_RELEASE_V1.0.2/MSDK/cloud/alicloud/src/infra/utils/digest\utils_hmac.c ****     unsigned char k_opad[KEY_IOPAD_SIZE];    /* outer padding - key XORd with opad */
 127:C:/Users/stapi/OneDrive/Desktop/GD32VW553/V1_MQTT_OK/GD32VW55X_Wifi_BLE_SDK/GD32VW55x_RELEASE_V1.0.2/MSDK/cloud/alicloud/src/infra/utils/digest\utils_hmac.c ****     unsigned char out[SHA256_DIGEST_SIZE];
 128:C:/Users/stapi/OneDrive/Desktop/GD32VW553/V1_MQTT_OK/GD32VW55X_Wifi_BLE_SDK/GD32VW55x_RELEASE_V1.0.2/MSDK/cloud/alicloud/src/infra/utils/digest\utils_hmac.c ****     int i;
 129:C:/Users/stapi/OneDrive/Desktop/GD32VW553/V1_MQTT_OK/GD32VW55X_Wifi_BLE_SDK/GD32VW55x_RELEASE_V1.0.2/MSDK/cloud/alicloud/src/infra/utils/digest\utils_hmac.c **** 
 130:C:/Users/stapi/OneDrive/Desktop/GD32VW553/V1_MQTT_OK/GD32VW55X_Wifi_BLE_SDK/GD32VW55x_RELEASE_V1.0.2/MSDK/cloud/alicloud/src/infra/utils/digest\utils_hmac.c ****     /* start out by storing key in pads */
 131:C:/Users/stapi/OneDrive/Desktop/GD32VW553/V1_MQTT_OK/GD32VW55X_Wifi_BLE_SDK/GD32VW55x_RELEASE_V1.0.2/MSDK/cloud/alicloud/src/infra/utils/digest\utils_hmac.c ****     memset(k_ipad, 0, sizeof(k_ipad));
 132:C:/Users/stapi/OneDrive/Desktop/GD32VW553/V1_MQTT_OK/GD32VW55X_Wifi_BLE_SDK/GD32VW55x_RELEASE_V1.0.2/MSDK/cloud/alicloud/src/infra/utils/digest\utils_hmac.c ****     memset(k_opad, 0, sizeof(k_opad));
 133:C:/Users/stapi/OneDrive/Desktop/GD32VW553/V1_MQTT_OK/GD32VW55X_Wifi_BLE_SDK/GD32VW55x_RELEASE_V1.0.2/MSDK/cloud/alicloud/src/infra/utils/digest\utils_hmac.c ****     memcpy(k_ipad, key, key_len);
 134:C:/Users/stapi/OneDrive/Desktop/GD32VW553/V1_MQTT_OK/GD32VW55X_Wifi_BLE_SDK/GD32VW55x_RELEASE_V1.0.2/MSDK/cloud/alicloud/src/infra/utils/digest\utils_hmac.c ****     memcpy(k_opad, key, key_len);
 135:C:/Users/stapi/OneDrive/Desktop/GD32VW553/V1_MQTT_OK/GD32VW55X_Wifi_BLE_SDK/GD32VW55x_RELEASE_V1.0.2/MSDK/cloud/alicloud/src/infra/utils/digest\utils_hmac.c **** 
 136:C:/Users/stapi/OneDrive/Desktop/GD32VW553/V1_MQTT_OK/GD32VW55X_Wifi_BLE_SDK/GD32VW55x_RELEASE_V1.0.2/MSDK/cloud/alicloud/src/infra/utils/digest\utils_hmac.c ****     /* XOR key with ipad and opad values */
 137:C:/Users/stapi/OneDrive/Desktop/GD32VW553/V1_MQTT_OK/GD32VW55X_Wifi_BLE_SDK/GD32VW55x_RELEASE_V1.0.2/MSDK/cloud/alicloud/src/infra/utils/digest\utils_hmac.c ****     for (i = 0; i < KEY_IOPAD_SIZE; i++) {
 138:C:/Users/stapi/OneDrive/Desktop/GD32VW553/V1_MQTT_OK/GD32VW55X_Wifi_BLE_SDK/GD32VW55x_RELEASE_V1.0.2/MSDK/cloud/alicloud/src/infra/utils/digest\utils_hmac.c ****         k_ipad[i] ^= 0x36;
 139:C:/Users/stapi/OneDrive/Desktop/GD32VW553/V1_MQTT_OK/GD32VW55X_Wifi_BLE_SDK/GD32VW55x_RELEASE_V1.0.2/MSDK/cloud/alicloud/src/infra/utils/digest\utils_hmac.c ****         k_opad[i] ^= 0x5c;
 140:C:/Users/stapi/OneDrive/Desktop/GD32VW553/V1_MQTT_OK/GD32VW55X_Wifi_BLE_SDK/GD32VW55x_RELEASE_V1.0.2/MSDK/cloud/alicloud/src/infra/utils/digest\utils_hmac.c ****     }
 141:C:/Users/stapi/OneDrive/Desktop/GD32VW553/V1_MQTT_OK/GD32VW55X_Wifi_BLE_SDK/GD32VW55x_RELEASE_V1.0.2/MSDK/cloud/alicloud/src/infra/utils/digest\utils_hmac.c **** 
 142:C:/Users/stapi/OneDrive/Desktop/GD32VW553/V1_MQTT_OK/GD32VW55X_Wifi_BLE_SDK/GD32VW55x_RELEASE_V1.0.2/MSDK/cloud/alicloud/src/infra/utils/digest\utils_hmac.c ****     /* perform inner SHA */
 143:C:/Users/stapi/OneDrive/Desktop/GD32VW553/V1_MQTT_OK/GD32VW55X_Wifi_BLE_SDK/GD32VW55x_RELEASE_V1.0.2/MSDK/cloud/alicloud/src/infra/utils/digest\utils_hmac.c ****     utils_sha256_init(&context);                                      /* init context for 1st pass 
 144:C:/Users/stapi/OneDrive/Desktop/GD32VW553/V1_MQTT_OK/GD32VW55X_Wifi_BLE_SDK/GD32VW55x_RELEASE_V1.0.2/MSDK/cloud/alicloud/src/infra/utils/digest\utils_hmac.c ****     utils_sha256_starts(&context);                                    /* setup context for 1st pass
 145:C:/Users/stapi/OneDrive/Desktop/GD32VW553/V1_MQTT_OK/GD32VW55X_Wifi_BLE_SDK/GD32VW55x_RELEASE_V1.0.2/MSDK/cloud/alicloud/src/infra/utils/digest\utils_hmac.c ****     utils_sha256_update(&context, k_ipad, KEY_IOPAD_SIZE);            /* start with inner pad */
 146:C:/Users/stapi/OneDrive/Desktop/GD32VW553/V1_MQTT_OK/GD32VW55X_Wifi_BLE_SDK/GD32VW55x_RELEASE_V1.0.2/MSDK/cloud/alicloud/src/infra/utils/digest\utils_hmac.c ****     utils_sha256_update(&context, (unsigned char *) msg, msg_len);    /* then text of datagram */
 147:C:/Users/stapi/OneDrive/Desktop/GD32VW553/V1_MQTT_OK/GD32VW55X_Wifi_BLE_SDK/GD32VW55x_RELEASE_V1.0.2/MSDK/cloud/alicloud/src/infra/utils/digest\utils_hmac.c ****     utils_sha256_finish(&context, out);                               /* finish up 1st pass */
 148:C:/Users/stapi/OneDrive/Desktop/GD32VW553/V1_MQTT_OK/GD32VW55X_Wifi_BLE_SDK/GD32VW55x_RELEASE_V1.0.2/MSDK/cloud/alicloud/src/infra/utils/digest\utils_hmac.c **** 
 149:C:/Users/stapi/OneDrive/Desktop/GD32VW553/V1_MQTT_OK/GD32VW55X_Wifi_BLE_SDK/GD32VW55x_RELEASE_V1.0.2/MSDK/cloud/alicloud/src/infra/utils/digest\utils_hmac.c ****     /* perform outer SHA */
 150:C:/Users/stapi/OneDrive/Desktop/GD32VW553/V1_MQTT_OK/GD32VW55X_Wifi_BLE_SDK/GD32VW55x_RELEASE_V1.0.2/MSDK/cloud/alicloud/src/infra/utils/digest\utils_hmac.c ****     utils_sha256_init(&context);                              /* init context for 2nd pass */
 151:C:/Users/stapi/OneDrive/Desktop/GD32VW553/V1_MQTT_OK/GD32VW55X_Wifi_BLE_SDK/GD32VW55x_RELEASE_V1.0.2/MSDK/cloud/alicloud/src/infra/utils/digest\utils_hmac.c ****     utils_sha256_starts(&context);                            /* setup context for 2nd pass */
 152:C:/Users/stapi/OneDrive/Desktop/GD32VW553/V1_MQTT_OK/GD32VW55X_Wifi_BLE_SDK/GD32VW55x_RELEASE_V1.0.2/MSDK/cloud/alicloud/src/infra/utils/digest\utils_hmac.c ****     utils_sha256_update(&context, k_opad, KEY_IOPAD_SIZE);    /* start with outer pad */
 153:C:/Users/stapi/OneDrive/Desktop/GD32VW553/V1_MQTT_OK/GD32VW55X_Wifi_BLE_SDK/GD32VW55x_RELEASE_V1.0.2/MSDK/cloud/alicloud/src/infra/utils/digest\utils_hmac.c ****     utils_sha256_update(&context, out, SHA256_DIGEST_SIZE);     /* then results of 1st hash */
 154:C:/Users/stapi/OneDrive/Desktop/GD32VW553/V1_MQTT_OK/GD32VW55X_Wifi_BLE_SDK/GD32VW55x_RELEASE_V1.0.2/MSDK/cloud/alicloud/src/infra/utils/digest\utils_hmac.c ****     utils_sha256_finish(&context, out);                       /* finish up 2nd pass */
 155:C:/Users/stapi/OneDrive/Desktop/GD32VW553/V1_MQTT_OK/GD32VW55X_Wifi_BLE_SDK/GD32VW55x_RELEASE_V1.0.2/MSDK/cloud/alicloud/src/infra/utils/digest\utils_hmac.c **** 
 156:C:/Users/stapi/OneDrive/Desktop/GD32VW553/V1_MQTT_OK/GD32VW55X_Wifi_BLE_SDK/GD32VW55x_RELEASE_V1.0.2/MSDK/cloud/alicloud/src/infra/utils/digest\utils_hmac.c ****     for (i = 0; i < SHA256_DIGEST_SIZE; ++i) {
 157:C:/Users/stapi/OneDrive/Desktop/GD32VW553/V1_MQTT_OK/GD32VW55X_Wifi_BLE_SDK/GD32VW55x_RELEASE_V1.0.2/MSDK/cloud/alicloud/src/infra/utils/digest\utils_hmac.c ****         digest[i * 2] = utils_hb2hex(out[i] >> 4);
 158:C:/Users/stapi/OneDrive/Desktop/GD32VW553/V1_MQTT_OK/GD32VW55X_Wifi_BLE_SDK/GD32VW55x_RELEASE_V1.0.2/MSDK/cloud/alicloud/src/infra/utils/digest\utils_hmac.c ****         digest[i * 2 + 1] = utils_hb2hex(out[i]);
 159:C:/Users/stapi/OneDrive/Desktop/GD32VW553/V1_MQTT_OK/GD32VW55X_Wifi_BLE_SDK/GD32VW55x_RELEASE_V1.0.2/MSDK/cloud/alicloud/src/infra/utils/digest\utils_hmac.c ****     }
 160:C:/Users/stapi/OneDrive/Desktop/GD32VW553/V1_MQTT_OK/GD32VW55X_Wifi_BLE_SDK/GD32VW55x_RELEASE_V1.0.2/MSDK/cloud/alicloud/src/infra/utils/digest\utils_hmac.c **** }
 526              		.loc 1 160 1 is_stmt 0
 527 0044 5161     		addi	sp,sp,272
 528              		.cfi_remember_state
 529              		.cfi_def_cfa_offset 0
 530 0046 17030000 		tail	__riscv_restore_6
 530      67000300 
 531              		.cfi_restore 21
 532              		.cfi_restore 20
 533              		.cfi_restore 19
 534              		.cfi_restore 18
 535              		.cfi_restore 9
 536              		.cfi_restore 8
 537              		.cfi_restore 1
 538              		.cfi_def_cfa_offset -32
 539              	.LVL70:
 540              	.L36:
 541              		.cfi_restore_state
 119:C:/Users/stapi/OneDrive/Desktop/GD32VW553/V1_MQTT_OK/GD32VW55X_Wifi_BLE_SDK/GD32VW55x_RELEASE_V1.0.2/MSDK/cloud/alicloud/src/infra/utils/digest\utils_hmac.c ****         utils_err("key_len > size(%d) of array", KEY_IOPAD_SIZE);
 542              		.loc 1 119 8
 543 004e 93070004 		li	a5,64
 544 0052 BA89     		mv	s3,a4
 119:C:/Users/stapi/OneDrive/Desktop/GD32VW553/V1_MQTT_OK/GD32VW55X_Wifi_BLE_SDK/GD32VW55x_RELEASE_V1.0.2/MSDK/cloud/alicloud/src/infra/utils/digest\utils_hmac.c ****         utils_err("key_len > size(%d) of array", KEY_IOPAD_SIZE);
 545              		.loc 1 119 5 is_stmt 1
 119:C:/Users/stapi/OneDrive/Desktop/GD32VW553/V1_MQTT_OK/GD32VW55X_Wifi_BLE_SDK/GD32VW55x_RELEASE_V1.0.2/MSDK/cloud/alicloud/src/infra/utils/digest\utils_hmac.c ****         utils_err("key_len > size(%d) of array", KEY_IOPAD_SIZE);
 546              		.loc 1 119 8 is_stmt 0
 547 0054 63D5E702 		ble	a4,a5,.L38
 120:C:/Users/stapi/OneDrive/Desktop/GD32VW553/V1_MQTT_OK/GD32VW55X_Wifi_BLE_SDK/GD32VW55x_RELEASE_V1.0.2/MSDK/cloud/alicloud/src/infra/utils/digest\utils_hmac.c ****         return;
 548              		.loc 1 120 9 is_stmt 1
 120:C:/Users/stapi/OneDrive/Desktop/GD32VW553/V1_MQTT_OK/GD32VW55X_Wifi_BLE_SDK/GD32VW55x_RELEASE_V1.0.2/MSDK/cloud/alicloud/src/infra/utils/digest\utils_hmac.c ****         return;
 549              		.loc 1 120 9
 550 0058 37050000 		lui	a0,%hi(.LC0)
 551              	.LVL71:
 552 005c 13050500 		addi	a0,a0,%lo(.LC0)
 553 0060 97000000 		call	HAL_Printf
 553      E7800000 
 554              	.LVL72:
 120:C:/Users/stapi/OneDrive/Desktop/GD32VW553/V1_MQTT_OK/GD32VW55X_Wifi_BLE_SDK/GD32VW55x_RELEASE_V1.0.2/MSDK/cloud/alicloud/src/infra/utils/digest\utils_hmac.c ****         return;
 555              		.loc 1 120 9
 556 0068 37050000 		lui	a0,%hi(.LC3)
 557 006c 93050004 		li	a1,64
 558 0070 13050500 		addi	a0,a0,%lo(.LC3)
 559 0074 97000000 		call	HAL_Printf
 559      E7800000 
 560              	.LVL73:
 561 007c 65BF     		j	.L50
 562              	.LVL74:
 563              	.L38:
 131:C:/Users/stapi/OneDrive/Desktop/GD32VW553/V1_MQTT_OK/GD32VW55X_Wifi_BLE_SDK/GD32VW55x_RELEASE_V1.0.2/MSDK/cloud/alicloud/src/infra/utils/digest\utils_hmac.c ****     memset(k_opad, 0, sizeof(k_opad));
 564              		.loc 1 131 5 is_stmt 0
 565 007e 13060004 		li	a2,64
 566 0082 2A8A     		mv	s4,a0
 567 0084 AE8A     		mv	s5,a1
 124:C:/Users/stapi/OneDrive/Desktop/GD32VW553/V1_MQTT_OK/GD32VW55X_Wifi_BLE_SDK/GD32VW55x_RELEASE_V1.0.2/MSDK/cloud/alicloud/src/infra/utils/digest\utils_hmac.c ****     unsigned char k_ipad[KEY_IOPAD_SIZE];    /* inner padding - key XORd with ipad  */
 568              		.loc 1 124 5 is_stmt 1
 125:C:/Users/stapi/OneDrive/Desktop/GD32VW553/V1_MQTT_OK/GD32VW55X_Wifi_BLE_SDK/GD32VW55x_RELEASE_V1.0.2/MSDK/cloud/alicloud/src/infra/utils/digest\utils_hmac.c ****     unsigned char k_opad[KEY_IOPAD_SIZE];    /* outer padding - key XORd with opad */
 569              		.loc 1 125 5
 126:C:/Users/stapi/OneDrive/Desktop/GD32VW553/V1_MQTT_OK/GD32VW55X_Wifi_BLE_SDK/GD32VW55x_RELEASE_V1.0.2/MSDK/cloud/alicloud/src/infra/utils/digest\utils_hmac.c ****     unsigned char out[SHA256_DIGEST_SIZE];
 570              		.loc 1 126 5
 127:C:/Users/stapi/OneDrive/Desktop/GD32VW553/V1_MQTT_OK/GD32VW55X_Wifi_BLE_SDK/GD32VW55x_RELEASE_V1.0.2/MSDK/cloud/alicloud/src/infra/utils/digest\utils_hmac.c ****     int i;
 571              		.loc 1 127 5
 128:C:/Users/stapi/OneDrive/Desktop/GD32VW553/V1_MQTT_OK/GD32VW55X_Wifi_BLE_SDK/GD32VW55x_RELEASE_V1.0.2/MSDK/cloud/alicloud/src/infra/utils/digest\utils_hmac.c **** 
 572              		.loc 1 128 5
 131:C:/Users/stapi/OneDrive/Desktop/GD32VW553/V1_MQTT_OK/GD32VW55X_Wifi_BLE_SDK/GD32VW55x_RELEASE_V1.0.2/MSDK/cloud/alicloud/src/infra/utils/digest\utils_hmac.c ****     memset(k_opad, 0, sizeof(k_opad));
 573              		.loc 1 131 5
 574 0086 2810     		addi	a0,sp,40
 575              	.LVL75:
 576 0088 8145     		li	a1,0
 577              	.LVL76:
 578 008a 97000000 		call	memset
 578      E7800000 
 579              	.LVL77:
 132:C:/Users/stapi/OneDrive/Desktop/GD32VW553/V1_MQTT_OK/GD32VW55X_Wifi_BLE_SDK/GD32VW55x_RELEASE_V1.0.2/MSDK/cloud/alicloud/src/infra/utils/digest\utils_hmac.c ****     memcpy(k_ipad, key, key_len);
 580              		.loc 1 132 5
 581 0092 A410     		addi	s1,sp,104
 582 0094 13060004 		li	a2,64
 583 0098 8145     		li	a1,0
 584 009a 2685     		mv	a0,s1
 585 009c 97000000 		call	memset
 585      E7800000 
 586              	.LVL78:
 133:C:/Users/stapi/OneDrive/Desktop/GD32VW553/V1_MQTT_OK/GD32VW55X_Wifi_BLE_SDK/GD32VW55x_RELEASE_V1.0.2/MSDK/cloud/alicloud/src/infra/utils/digest\utils_hmac.c ****     memcpy(k_opad, key, key_len);
 587              		.loc 1 133 5
 588 00a4 4E86     		mv	a2,s3
 589 00a6 CA85     		mv	a1,s2
 590 00a8 2810     		addi	a0,sp,40
 591 00aa 97000000 		call	memcpy
 591      E7800000 
 592              	.LVL79:
 134:C:/Users/stapi/OneDrive/Desktop/GD32VW553/V1_MQTT_OK/GD32VW55X_Wifi_BLE_SDK/GD32VW55x_RELEASE_V1.0.2/MSDK/cloud/alicloud/src/infra/utils/digest\utils_hmac.c **** 
 593              		.loc 1 134 5
 594 00b2 4E86     		mv	a2,s3
 595 00b4 CA85     		mv	a1,s2
 596 00b6 2685     		mv	a0,s1
 597 00b8 97000000 		call	memcpy
 597      E7800000 
 598              	.LVL80:
 137:C:/Users/stapi/OneDrive/Desktop/GD32VW553/V1_MQTT_OK/GD32VW55X_Wifi_BLE_SDK/GD32VW55x_RELEASE_V1.0.2/MSDK/cloud/alicloud/src/infra/utils/digest\utils_hmac.c ****         k_ipad[i] ^= 0x36;
 599              		.loc 1 137 5
 137:C:/Users/stapi/OneDrive/Desktop/GD32VW553/V1_MQTT_OK/GD32VW55X_Wifi_BLE_SDK/GD32VW55x_RELEASE_V1.0.2/MSDK/cloud/alicloud/src/infra/utils/digest\utils_hmac.c ****         k_ipad[i] ^= 0x36;
 600              		.loc 1 137 17
 601 00c0 3C10     		addi	a5,sp,40
 602 00c2 2687     		mv	a4,s1
 603              	.LVL81:
 604              	.L39:
 138:C:/Users/stapi/OneDrive/Desktop/GD32VW553/V1_MQTT_OK/GD32VW55X_Wifi_BLE_SDK/GD32VW55x_RELEASE_V1.0.2/MSDK/cloud/alicloud/src/infra/utils/digest\utils_hmac.c ****         k_opad[i] ^= 0x5c;
 605              		.loc 1 138 9 discriminator 3
 138:C:/Users/stapi/OneDrive/Desktop/GD32VW553/V1_MQTT_OK/GD32VW55X_Wifi_BLE_SDK/GD32VW55x_RELEASE_V1.0.2/MSDK/cloud/alicloud/src/infra/utils/digest\utils_hmac.c ****         k_opad[i] ^= 0x5c;
 606              		.loc 1 138 19 is_stmt 0 discriminator 3
 607 00c4 83C60700 		lbu	a3,0(a5)
 137:C:/Users/stapi/OneDrive/Desktop/GD32VW553/V1_MQTT_OK/GD32VW55X_Wifi_BLE_SDK/GD32VW55x_RELEASE_V1.0.2/MSDK/cloud/alicloud/src/infra/utils/digest\utils_hmac.c ****         k_ipad[i] ^= 0x36;
 608              		.loc 1 137 5 discriminator 3
 609 00c8 8507     		addi	a5,a5,1
 610              	.LVL82:
 611 00ca 0507     		addi	a4,a4,1
 138:C:/Users/stapi/OneDrive/Desktop/GD32VW553/V1_MQTT_OK/GD32VW55X_Wifi_BLE_SDK/GD32VW55x_RELEASE_V1.0.2/MSDK/cloud/alicloud/src/infra/utils/digest\utils_hmac.c ****         k_opad[i] ^= 0x5c;
 612              		.loc 1 138 19 discriminator 3
 613 00cc 93C66603 		xori	a3,a3,54
 614 00d0 A38FD7FE 		sb	a3,-1(a5)
 139:C:/Users/stapi/OneDrive/Desktop/GD32VW553/V1_MQTT_OK/GD32VW55X_Wifi_BLE_SDK/GD32VW55x_RELEASE_V1.0.2/MSDK/cloud/alicloud/src/infra/utils/digest\utils_hmac.c ****     }
 615              		.loc 1 139 9 is_stmt 1 discriminator 3
 139:C:/Users/stapi/OneDrive/Desktop/GD32VW553/V1_MQTT_OK/GD32VW55X_Wifi_BLE_SDK/GD32VW55x_RELEASE_V1.0.2/MSDK/cloud/alicloud/src/infra/utils/digest\utils_hmac.c ****     }
 616              		.loc 1 139 19 is_stmt 0 discriminator 3
 617 00d4 8346F7FF 		lbu	a3,-1(a4)
 618 00d8 93C6C605 		xori	a3,a3,92
 619 00dc A30FD7FE 		sb	a3,-1(a4)
 137:C:/Users/stapi/OneDrive/Desktop/GD32VW553/V1_MQTT_OK/GD32VW55X_Wifi_BLE_SDK/GD32VW55x_RELEASE_V1.0.2/MSDK/cloud/alicloud/src/infra/utils/digest\utils_hmac.c ****         k_ipad[i] ^= 0x36;
 620              		.loc 1 137 37 is_stmt 1 discriminator 3
 621              	.LVL83:
 137:C:/Users/stapi/OneDrive/Desktop/GD32VW553/V1_MQTT_OK/GD32VW55X_Wifi_BLE_SDK/GD32VW55x_RELEASE_V1.0.2/MSDK/cloud/alicloud/src/infra/utils/digest\utils_hmac.c ****         k_ipad[i] ^= 0x36;
 622              		.loc 1 137 17 discriminator 3
 137:C:/Users/stapi/OneDrive/Desktop/GD32VW553/V1_MQTT_OK/GD32VW55X_Wifi_BLE_SDK/GD32VW55x_RELEASE_V1.0.2/MSDK/cloud/alicloud/src/infra/utils/digest\utils_hmac.c ****         k_ipad[i] ^= 0x36;
 623              		.loc 1 137 5 is_stmt 0 discriminator 3
 624 00e0 E392F4FE 		bne	s1,a5,.L39
 143:C:/Users/stapi/OneDrive/Desktop/GD32VW553/V1_MQTT_OK/GD32VW55X_Wifi_BLE_SDK/GD32VW55x_RELEASE_V1.0.2/MSDK/cloud/alicloud/src/infra/utils/digest\utils_hmac.c ****     utils_sha256_starts(&context);                                    /* setup context for 1st pass
 625              		.loc 1 143 5 is_stmt 1
 626 00e4 2811     		addi	a0,sp,168
 627 00e6 97000000 		call	utils_sha256_init
 627      E7800000 
 628              	.LVL84:
 144:C:/Users/stapi/OneDrive/Desktop/GD32VW553/V1_MQTT_OK/GD32VW55X_Wifi_BLE_SDK/GD32VW55x_RELEASE_V1.0.2/MSDK/cloud/alicloud/src/infra/utils/digest\utils_hmac.c ****     utils_sha256_update(&context, k_ipad, KEY_IOPAD_SIZE);            /* start with inner pad */
 629              		.loc 1 144 5
 630 00ee 2811     		addi	a0,sp,168
 631 00f0 97000000 		call	utils_sha256_starts
 631      E7800000 
 632              	.LVL85:
 145:C:/Users/stapi/OneDrive/Desktop/GD32VW553/V1_MQTT_OK/GD32VW55X_Wifi_BLE_SDK/GD32VW55x_RELEASE_V1.0.2/MSDK/cloud/alicloud/src/infra/utils/digest\utils_hmac.c ****     utils_sha256_update(&context, (unsigned char *) msg, msg_len);    /* then text of datagram */
 633              		.loc 1 145 5
 634 00f8 13060004 		li	a2,64
 635 00fc 2C10     		addi	a1,sp,40
 636 00fe 2811     		addi	a0,sp,168
 637 0100 97000000 		call	utils_sha256_update
 637      E7800000 
 638              	.LVL86:
 146:C:/Users/stapi/OneDrive/Desktop/GD32VW553/V1_MQTT_OK/GD32VW55X_Wifi_BLE_SDK/GD32VW55x_RELEASE_V1.0.2/MSDK/cloud/alicloud/src/infra/utils/digest\utils_hmac.c ****     utils_sha256_finish(&context, out);                               /* finish up 1st pass */
 639              		.loc 1 146 5
 640 0108 5686     		mv	a2,s5
 641 010a D285     		mv	a1,s4
 642 010c 2811     		addi	a0,sp,168
 643 010e 97000000 		call	utils_sha256_update
 643      E7800000 
 644              	.LVL87:
 147:C:/Users/stapi/OneDrive/Desktop/GD32VW553/V1_MQTT_OK/GD32VW55X_Wifi_BLE_SDK/GD32VW55x_RELEASE_V1.0.2/MSDK/cloud/alicloud/src/infra/utils/digest\utils_hmac.c **** 
 645              		.loc 1 147 5
 646 0116 2C00     		addi	a1,sp,8
 647 0118 2811     		addi	a0,sp,168
 648 011a 97000000 		call	utils_sha256_finish
 648      E7800000 
 649              	.LVL88:
 150:C:/Users/stapi/OneDrive/Desktop/GD32VW553/V1_MQTT_OK/GD32VW55X_Wifi_BLE_SDK/GD32VW55x_RELEASE_V1.0.2/MSDK/cloud/alicloud/src/infra/utils/digest\utils_hmac.c ****     utils_sha256_starts(&context);                            /* setup context for 2nd pass */
 650              		.loc 1 150 5
 651 0122 2811     		addi	a0,sp,168
 652 0124 97000000 		call	utils_sha256_init
 652      E7800000 
 653              	.LVL89:
 151:C:/Users/stapi/OneDrive/Desktop/GD32VW553/V1_MQTT_OK/GD32VW55X_Wifi_BLE_SDK/GD32VW55x_RELEASE_V1.0.2/MSDK/cloud/alicloud/src/infra/utils/digest\utils_hmac.c ****     utils_sha256_update(&context, k_opad, KEY_IOPAD_SIZE);    /* start with outer pad */
 654              		.loc 1 151 5
 655 012c 2811     		addi	a0,sp,168
 656 012e 97000000 		call	utils_sha256_starts
 656      E7800000 
 657              	.LVL90:
 152:C:/Users/stapi/OneDrive/Desktop/GD32VW553/V1_MQTT_OK/GD32VW55X_Wifi_BLE_SDK/GD32VW55x_RELEASE_V1.0.2/MSDK/cloud/alicloud/src/infra/utils/digest\utils_hmac.c ****     utils_sha256_update(&context, out, SHA256_DIGEST_SIZE);     /* then results of 1st hash */
 658              		.loc 1 152 5
 659 0136 A685     		mv	a1,s1
 660 0138 13060004 		li	a2,64
 661 013c 2811     		addi	a0,sp,168
 662 013e 97000000 		call	utils_sha256_update
 662      E7800000 
 663              	.LVL91:
 153:C:/Users/stapi/OneDrive/Desktop/GD32VW553/V1_MQTT_OK/GD32VW55X_Wifi_BLE_SDK/GD32VW55x_RELEASE_V1.0.2/MSDK/cloud/alicloud/src/infra/utils/digest\utils_hmac.c ****     utils_sha256_finish(&context, out);                       /* finish up 2nd pass */
 664              		.loc 1 153 5
 665 0146 13060002 		li	a2,32
 666 014a 2C00     		addi	a1,sp,8
 667 014c 2811     		addi	a0,sp,168
 668 014e 97000000 		call	utils_sha256_update
 668      E7800000 
 669              	.LVL92:
 154:C:/Users/stapi/OneDrive/Desktop/GD32VW553/V1_MQTT_OK/GD32VW55X_Wifi_BLE_SDK/GD32VW55x_RELEASE_V1.0.2/MSDK/cloud/alicloud/src/infra/utils/digest\utils_hmac.c **** 
 670              		.loc 1 154 5
 671 0156 2C00     		addi	a1,sp,8
 672 0158 2811     		addi	a0,sp,168
 673 015a 97000000 		call	utils_sha256_finish
 673      E7800000 
 674              	.LVL93:
 156:C:/Users/stapi/OneDrive/Desktop/GD32VW553/V1_MQTT_OK/GD32VW55X_Wifi_BLE_SDK/GD32VW55x_RELEASE_V1.0.2/MSDK/cloud/alicloud/src/infra/utils/digest\utils_hmac.c ****         digest[i * 2] = utils_hb2hex(out[i] >> 4);
 675              		.loc 1 156 5
 156:C:/Users/stapi/OneDrive/Desktop/GD32VW553/V1_MQTT_OK/GD32VW55X_Wifi_BLE_SDK/GD32VW55x_RELEASE_V1.0.2/MSDK/cloud/alicloud/src/infra/utils/digest\utils_hmac.c ****         digest[i * 2] = utils_hb2hex(out[i] >> 4);
 676              		.loc 1 156 17
 677 0162 2400     		addi	s1,sp,8
 678 0164 13090404 		addi	s2,s0,64
 679              	.LVL94:
 680              	.L40:
 157:C:/Users/stapi/OneDrive/Desktop/GD32VW553/V1_MQTT_OK/GD32VW55X_Wifi_BLE_SDK/GD32VW55x_RELEASE_V1.0.2/MSDK/cloud/alicloud/src/infra/utils/digest\utils_hmac.c ****         digest[i * 2 + 1] = utils_hb2hex(out[i]);
 681              		.loc 1 157 9 discriminator 3
 157:C:/Users/stapi/OneDrive/Desktop/GD32VW553/V1_MQTT_OK/GD32VW55X_Wifi_BLE_SDK/GD32VW55x_RELEASE_V1.0.2/MSDK/cloud/alicloud/src/infra/utils/digest\utils_hmac.c ****         digest[i * 2 + 1] = utils_hb2hex(out[i]);
 682              		.loc 1 157 25 is_stmt 0 discriminator 3
 683 0168 03C50400 		lbu	a0,0(s1)
 156:C:/Users/stapi/OneDrive/Desktop/GD32VW553/V1_MQTT_OK/GD32VW55X_Wifi_BLE_SDK/GD32VW55x_RELEASE_V1.0.2/MSDK/cloud/alicloud/src/infra/utils/digest\utils_hmac.c ****         digest[i * 2] = utils_hb2hex(out[i] >> 4);
 684              		.loc 1 156 5 discriminator 3
 685 016c 0904     		addi	s0,s0,2
 686 016e 8504     		addi	s1,s1,1
 687              	.LVL95:
 157:C:/Users/stapi/OneDrive/Desktop/GD32VW553/V1_MQTT_OK/GD32VW55X_Wifi_BLE_SDK/GD32VW55x_RELEASE_V1.0.2/MSDK/cloud/alicloud/src/infra/utils/digest\utils_hmac.c ****         digest[i * 2 + 1] = utils_hb2hex(out[i]);
 688              		.loc 1 157 25 discriminator 3
 689 0170 1181     		srli	a0,a0,4
 690 0172 97000000 		call	utils_hb2hex
 690      E7800000 
 691              	.LVL96:
 157:C:/Users/stapi/OneDrive/Desktop/GD32VW553/V1_MQTT_OK/GD32VW55X_Wifi_BLE_SDK/GD32VW55x_RELEASE_V1.0.2/MSDK/cloud/alicloud/src/infra/utils/digest\utils_hmac.c ****         digest[i * 2 + 1] = utils_hb2hex(out[i]);
 692              		.loc 1 157 23 discriminator 3
 693 017a 230FA4FE 		sb	a0,-2(s0)
 158:C:/Users/stapi/OneDrive/Desktop/GD32VW553/V1_MQTT_OK/GD32VW55X_Wifi_BLE_SDK/GD32VW55x_RELEASE_V1.0.2/MSDK/cloud/alicloud/src/infra/utils/digest\utils_hmac.c ****     }
 694              		.loc 1 158 9 is_stmt 1 discriminator 3
 158:C:/Users/stapi/OneDrive/Desktop/GD32VW553/V1_MQTT_OK/GD32VW55X_Wifi_BLE_SDK/GD32VW55x_RELEASE_V1.0.2/MSDK/cloud/alicloud/src/infra/utils/digest\utils_hmac.c ****     }
 695              		.loc 1 158 29 is_stmt 0 discriminator 3
 696 017e 03C5F4FF 		lbu	a0,-1(s1)
 697 0182 97000000 		call	utils_hb2hex
 697      E7800000 
 698              	.LVL97:
 158:C:/Users/stapi/OneDrive/Desktop/GD32VW553/V1_MQTT_OK/GD32VW55X_Wifi_BLE_SDK/GD32VW55x_RELEASE_V1.0.2/MSDK/cloud/alicloud/src/infra/utils/digest\utils_hmac.c ****     }
 699              		.loc 1 158 27 discriminator 3
 700 018a A30FA4FE 		sb	a0,-1(s0)
 156:C:/Users/stapi/OneDrive/Desktop/GD32VW553/V1_MQTT_OK/GD32VW55X_Wifi_BLE_SDK/GD32VW55x_RELEASE_V1.0.2/MSDK/cloud/alicloud/src/infra/utils/digest\utils_hmac.c ****         digest[i * 2] = utils_hb2hex(out[i] >> 4);
 701              		.loc 1 156 41 is_stmt 1 discriminator 3
 702              	.LVL98:
 156:C:/Users/stapi/OneDrive/Desktop/GD32VW553/V1_MQTT_OK/GD32VW55X_Wifi_BLE_SDK/GD32VW55x_RELEASE_V1.0.2/MSDK/cloud/alicloud/src/infra/utils/digest\utils_hmac.c ****         digest[i * 2] = utils_hb2hex(out[i] >> 4);
 703              		.loc 1 156 17 discriminator 3
 156:C:/Users/stapi/OneDrive/Desktop/GD32VW553/V1_MQTT_OK/GD32VW55X_Wifi_BLE_SDK/GD32VW55x_RELEASE_V1.0.2/MSDK/cloud/alicloud/src/infra/utils/digest\utils_hmac.c ****         digest[i * 2] = utils_hb2hex(out[i] >> 4);
 704              		.loc 1 156 5 is_stmt 0 discriminator 3
 705 018e E31D24FD 		bne	s0,s2,.L40
 706 0192 4DBD     		j	.L34
 707              		.cfi_endproc
 708              	.LFE22:
 710              		.section	.text.utils_hmac_sha1,"ax",@progbits
 711              		.align	1
 712              		.globl	utils_hmac_sha1
 714              	utils_hmac_sha1:
 715              	.LFB23:
 161:C:/Users/stapi/OneDrive/Desktop/GD32VW553/V1_MQTT_OK/GD32VW55X_Wifi_BLE_SDK/GD32VW55x_RELEASE_V1.0.2/MSDK/cloud/alicloud/src/infra/utils/digest\utils_hmac.c **** 
 162:C:/Users/stapi/OneDrive/Desktop/GD32VW553/V1_MQTT_OK/GD32VW55X_Wifi_BLE_SDK/GD32VW55x_RELEASE_V1.0.2/MSDK/cloud/alicloud/src/infra/utils/digest\utils_hmac.c **** void utils_hmac_sha1(const char *msg, int msg_len, char *digest, const char *key, int key_len)
 163:C:/Users/stapi/OneDrive/Desktop/GD32VW553/V1_MQTT_OK/GD32VW55X_Wifi_BLE_SDK/GD32VW55x_RELEASE_V1.0.2/MSDK/cloud/alicloud/src/infra/utils/digest\utils_hmac.c **** {
 716              		.loc 1 163 1 is_stmt 1
 717              		.cfi_startproc
 718              	.LVL99:
 719 0000 17030000 		call	t0,__riscv_save_6
 719      E7020300 
 720              		.cfi_offset 21, -28
 721              		.cfi_offset 20, -24
 722              		.cfi_offset 19, -20
 723              		.cfi_offset 18, -16
 724              		.cfi_offset 9, -12
 725              		.cfi_offset 8, -8
 726              		.cfi_offset 1, -4
 727              		.cfi_def_cfa_offset 32
 164:C:/Users/stapi/OneDrive/Desktop/GD32VW553/V1_MQTT_OK/GD32VW55X_Wifi_BLE_SDK/GD32VW55x_RELEASE_V1.0.2/MSDK/cloud/alicloud/src/infra/utils/digest\utils_hmac.c ****     if ((NULL == msg) || (NULL == digest) || (NULL == key)) {
 728              		.loc 1 164 5
 163:C:/Users/stapi/OneDrive/Desktop/GD32VW553/V1_MQTT_OK/GD32VW55X_Wifi_BLE_SDK/GD32VW55x_RELEASE_V1.0.2/MSDK/cloud/alicloud/src/infra/utils/digest\utils_hmac.c ****     if ((NULL == msg) || (NULL == digest) || (NULL == key)) {
 729              		.loc 1 163 1 is_stmt 0
 730 0008 5171     		addi	sp,sp,-240
 731              		.cfi_def_cfa_offset 272
 732              		.loc 1 164 8
 733 000a 09C5     		beq	a0,zero,.L52
 734 000c 3284     		mv	s0,a2
 735              		.loc 1 164 23 discriminator 1
 736 000e 19C2     		beq	a2,zero,.L52
 737 0010 3689     		mv	s2,a3
 738              		.loc 1 164 43 discriminator 2
 739 0012 95EE     		bne	a3,zero,.L53
 740              	.L52:
 165:C:/Users/stapi/OneDrive/Desktop/GD32VW553/V1_MQTT_OK/GD32VW55X_Wifi_BLE_SDK/GD32VW55x_RELEASE_V1.0.2/MSDK/cloud/alicloud/src/infra/utils/digest\utils_hmac.c ****         utils_err("parameter is Null,failed!");
 741              		.loc 1 165 9 is_stmt 1
 742              		.loc 1 165 9
 743 0014 37050000 		lui	a0,%hi(.LC0)
 744              	.LVL100:
 745 0018 13050500 		addi	a0,a0,%lo(.LC0)
 746 001c 97000000 		call	HAL_Printf
 746      E7800000 
 747              	.LVL101:
 748              		.loc 1 165 9
 749 0024 37050000 		lui	a0,%hi(.LC1)
 750 0028 13050500 		addi	a0,a0,%lo(.LC1)
 751 002c 97000000 		call	HAL_Printf
 751      E7800000 
 752              	.LVL102:
 753              		.loc 1 165 9
 754              	.L67:
 166:C:/Users/stapi/OneDrive/Desktop/GD32VW553/V1_MQTT_OK/GD32VW55X_Wifi_BLE_SDK/GD32VW55x_RELEASE_V1.0.2/MSDK/cloud/alicloud/src/infra/utils/digest\utils_hmac.c ****         return;
 167:C:/Users/stapi/OneDrive/Desktop/GD32VW553/V1_MQTT_OK/GD32VW55X_Wifi_BLE_SDK/GD32VW55x_RELEASE_V1.0.2/MSDK/cloud/alicloud/src/infra/utils/digest\utils_hmac.c ****     }
 168:C:/Users/stapi/OneDrive/Desktop/GD32VW553/V1_MQTT_OK/GD32VW55X_Wifi_BLE_SDK/GD32VW55x_RELEASE_V1.0.2/MSDK/cloud/alicloud/src/infra/utils/digest\utils_hmac.c **** 
 169:C:/Users/stapi/OneDrive/Desktop/GD32VW553/V1_MQTT_OK/GD32VW55X_Wifi_BLE_SDK/GD32VW55x_RELEASE_V1.0.2/MSDK/cloud/alicloud/src/infra/utils/digest\utils_hmac.c ****     if (key_len > KEY_IOPAD_SIZE) {
 170:C:/Users/stapi/OneDrive/Desktop/GD32VW553/V1_MQTT_OK/GD32VW55X_Wifi_BLE_SDK/GD32VW55x_RELEASE_V1.0.2/MSDK/cloud/alicloud/src/infra/utils/digest\utils_hmac.c ****         utils_err("key_len > size(%d) of array", KEY_IOPAD_SIZE);
 755              		.loc 1 170 9
 756 0034 37050000 		lui	a0,%hi(.LC2)
 757 0038 13050500 		addi	a0,a0,%lo(.LC2)
 758 003c 97000000 		call	HAL_Printf
 758      E7800000 
 759              	.LVL103:
 760              		.loc 1 170 9
 171:C:/Users/stapi/OneDrive/Desktop/GD32VW553/V1_MQTT_OK/GD32VW55X_Wifi_BLE_SDK/GD32VW55x_RELEASE_V1.0.2/MSDK/cloud/alicloud/src/infra/utils/digest\utils_hmac.c ****         return;
 761              		.loc 1 171 9
 762              	.L51:
 172:C:/Users/stapi/OneDrive/Desktop/GD32VW553/V1_MQTT_OK/GD32VW55X_Wifi_BLE_SDK/GD32VW55x_RELEASE_V1.0.2/MSDK/cloud/alicloud/src/infra/utils/digest\utils_hmac.c ****     }
 173:C:/Users/stapi/OneDrive/Desktop/GD32VW553/V1_MQTT_OK/GD32VW55X_Wifi_BLE_SDK/GD32VW55x_RELEASE_V1.0.2/MSDK/cloud/alicloud/src/infra/utils/digest\utils_hmac.c **** 
 174:C:/Users/stapi/OneDrive/Desktop/GD32VW553/V1_MQTT_OK/GD32VW55X_Wifi_BLE_SDK/GD32VW55x_RELEASE_V1.0.2/MSDK/cloud/alicloud/src/infra/utils/digest\utils_hmac.c ****     iot_sha1_context context;
 175:C:/Users/stapi/OneDrive/Desktop/GD32VW553/V1_MQTT_OK/GD32VW55X_Wifi_BLE_SDK/GD32VW55x_RELEASE_V1.0.2/MSDK/cloud/alicloud/src/infra/utils/digest\utils_hmac.c ****     unsigned char k_ipad[KEY_IOPAD_SIZE];    /* inner padding - key XORd with ipad  */
 176:C:/Users/stapi/OneDrive/Desktop/GD32VW553/V1_MQTT_OK/GD32VW55X_Wifi_BLE_SDK/GD32VW55x_RELEASE_V1.0.2/MSDK/cloud/alicloud/src/infra/utils/digest\utils_hmac.c ****     unsigned char k_opad[KEY_IOPAD_SIZE];    /* outer padding - key XORd with opad */
 177:C:/Users/stapi/OneDrive/Desktop/GD32VW553/V1_MQTT_OK/GD32VW55X_Wifi_BLE_SDK/GD32VW55x_RELEASE_V1.0.2/MSDK/cloud/alicloud/src/infra/utils/digest\utils_hmac.c ****     unsigned char out[SHA1_DIGEST_SIZE];
 178:C:/Users/stapi/OneDrive/Desktop/GD32VW553/V1_MQTT_OK/GD32VW55X_Wifi_BLE_SDK/GD32VW55x_RELEASE_V1.0.2/MSDK/cloud/alicloud/src/infra/utils/digest\utils_hmac.c ****     int i;
 179:C:/Users/stapi/OneDrive/Desktop/GD32VW553/V1_MQTT_OK/GD32VW55X_Wifi_BLE_SDK/GD32VW55x_RELEASE_V1.0.2/MSDK/cloud/alicloud/src/infra/utils/digest\utils_hmac.c **** 
 180:C:/Users/stapi/OneDrive/Desktop/GD32VW553/V1_MQTT_OK/GD32VW55X_Wifi_BLE_SDK/GD32VW55x_RELEASE_V1.0.2/MSDK/cloud/alicloud/src/infra/utils/digest\utils_hmac.c ****     /* start out by storing key in pads */
 181:C:/Users/stapi/OneDrive/Desktop/GD32VW553/V1_MQTT_OK/GD32VW55X_Wifi_BLE_SDK/GD32VW55x_RELEASE_V1.0.2/MSDK/cloud/alicloud/src/infra/utils/digest\utils_hmac.c ****     memset(k_ipad, 0, sizeof(k_ipad));
 182:C:/Users/stapi/OneDrive/Desktop/GD32VW553/V1_MQTT_OK/GD32VW55X_Wifi_BLE_SDK/GD32VW55x_RELEASE_V1.0.2/MSDK/cloud/alicloud/src/infra/utils/digest\utils_hmac.c ****     memset(k_opad, 0, sizeof(k_opad));
 183:C:/Users/stapi/OneDrive/Desktop/GD32VW553/V1_MQTT_OK/GD32VW55X_Wifi_BLE_SDK/GD32VW55x_RELEASE_V1.0.2/MSDK/cloud/alicloud/src/infra/utils/digest\utils_hmac.c ****     memcpy(k_ipad, key, key_len);
 184:C:/Users/stapi/OneDrive/Desktop/GD32VW553/V1_MQTT_OK/GD32VW55X_Wifi_BLE_SDK/GD32VW55x_RELEASE_V1.0.2/MSDK/cloud/alicloud/src/infra/utils/digest\utils_hmac.c ****     memcpy(k_opad, key, key_len);
 185:C:/Users/stapi/OneDrive/Desktop/GD32VW553/V1_MQTT_OK/GD32VW55X_Wifi_BLE_SDK/GD32VW55x_RELEASE_V1.0.2/MSDK/cloud/alicloud/src/infra/utils/digest\utils_hmac.c **** 
 186:C:/Users/stapi/OneDrive/Desktop/GD32VW553/V1_MQTT_OK/GD32VW55X_Wifi_BLE_SDK/GD32VW55x_RELEASE_V1.0.2/MSDK/cloud/alicloud/src/infra/utils/digest\utils_hmac.c ****     /* XOR key with ipad and opad values */
 187:C:/Users/stapi/OneDrive/Desktop/GD32VW553/V1_MQTT_OK/GD32VW55X_Wifi_BLE_SDK/GD32VW55x_RELEASE_V1.0.2/MSDK/cloud/alicloud/src/infra/utils/digest\utils_hmac.c ****     for (i = 0; i < KEY_IOPAD_SIZE; i++) {
 188:C:/Users/stapi/OneDrive/Desktop/GD32VW553/V1_MQTT_OK/GD32VW55X_Wifi_BLE_SDK/GD32VW55x_RELEASE_V1.0.2/MSDK/cloud/alicloud/src/infra/utils/digest\utils_hmac.c ****         k_ipad[i] ^= 0x36;
 189:C:/Users/stapi/OneDrive/Desktop/GD32VW553/V1_MQTT_OK/GD32VW55X_Wifi_BLE_SDK/GD32VW55x_RELEASE_V1.0.2/MSDK/cloud/alicloud/src/infra/utils/digest\utils_hmac.c ****         k_opad[i] ^= 0x5c;
 190:C:/Users/stapi/OneDrive/Desktop/GD32VW553/V1_MQTT_OK/GD32VW55X_Wifi_BLE_SDK/GD32VW55x_RELEASE_V1.0.2/MSDK/cloud/alicloud/src/infra/utils/digest\utils_hmac.c ****     }
 191:C:/Users/stapi/OneDrive/Desktop/GD32VW553/V1_MQTT_OK/GD32VW55X_Wifi_BLE_SDK/GD32VW55x_RELEASE_V1.0.2/MSDK/cloud/alicloud/src/infra/utils/digest\utils_hmac.c **** 
 192:C:/Users/stapi/OneDrive/Desktop/GD32VW553/V1_MQTT_OK/GD32VW55X_Wifi_BLE_SDK/GD32VW55x_RELEASE_V1.0.2/MSDK/cloud/alicloud/src/infra/utils/digest\utils_hmac.c ****     /* perform inner SHA */
 193:C:/Users/stapi/OneDrive/Desktop/GD32VW553/V1_MQTT_OK/GD32VW55X_Wifi_BLE_SDK/GD32VW55x_RELEASE_V1.0.2/MSDK/cloud/alicloud/src/infra/utils/digest\utils_hmac.c ****     utils_sha1_init(&context);                                      /* init context for 1st pass */
 194:C:/Users/stapi/OneDrive/Desktop/GD32VW553/V1_MQTT_OK/GD32VW55X_Wifi_BLE_SDK/GD32VW55x_RELEASE_V1.0.2/MSDK/cloud/alicloud/src/infra/utils/digest\utils_hmac.c ****     utils_sha1_starts(&context);                                    /* setup context for 1st pass *
 195:C:/Users/stapi/OneDrive/Desktop/GD32VW553/V1_MQTT_OK/GD32VW55X_Wifi_BLE_SDK/GD32VW55x_RELEASE_V1.0.2/MSDK/cloud/alicloud/src/infra/utils/digest\utils_hmac.c ****     utils_sha1_update(&context, k_ipad, KEY_IOPAD_SIZE);            /* start with inner pad */
 196:C:/Users/stapi/OneDrive/Desktop/GD32VW553/V1_MQTT_OK/GD32VW55X_Wifi_BLE_SDK/GD32VW55x_RELEASE_V1.0.2/MSDK/cloud/alicloud/src/infra/utils/digest\utils_hmac.c ****     utils_sha1_update(&context, (unsigned char *) msg, msg_len);    /* then text of datagram */
 197:C:/Users/stapi/OneDrive/Desktop/GD32VW553/V1_MQTT_OK/GD32VW55X_Wifi_BLE_SDK/GD32VW55x_RELEASE_V1.0.2/MSDK/cloud/alicloud/src/infra/utils/digest\utils_hmac.c ****     utils_sha1_finish(&context, out);                               /* finish up 1st pass */
 198:C:/Users/stapi/OneDrive/Desktop/GD32VW553/V1_MQTT_OK/GD32VW55X_Wifi_BLE_SDK/GD32VW55x_RELEASE_V1.0.2/MSDK/cloud/alicloud/src/infra/utils/digest\utils_hmac.c **** 
 199:C:/Users/stapi/OneDrive/Desktop/GD32VW553/V1_MQTT_OK/GD32VW55X_Wifi_BLE_SDK/GD32VW55x_RELEASE_V1.0.2/MSDK/cloud/alicloud/src/infra/utils/digest\utils_hmac.c ****     /* perform outer SHA */
 200:C:/Users/stapi/OneDrive/Desktop/GD32VW553/V1_MQTT_OK/GD32VW55X_Wifi_BLE_SDK/GD32VW55x_RELEASE_V1.0.2/MSDK/cloud/alicloud/src/infra/utils/digest\utils_hmac.c ****     utils_sha1_init(&context);                              /* init context for 2nd pass */
 201:C:/Users/stapi/OneDrive/Desktop/GD32VW553/V1_MQTT_OK/GD32VW55X_Wifi_BLE_SDK/GD32VW55x_RELEASE_V1.0.2/MSDK/cloud/alicloud/src/infra/utils/digest\utils_hmac.c ****     utils_sha1_starts(&context);                            /* setup context for 2nd pass */
 202:C:/Users/stapi/OneDrive/Desktop/GD32VW553/V1_MQTT_OK/GD32VW55X_Wifi_BLE_SDK/GD32VW55x_RELEASE_V1.0.2/MSDK/cloud/alicloud/src/infra/utils/digest\utils_hmac.c ****     utils_sha1_update(&context, k_opad, KEY_IOPAD_SIZE);    /* start with outer pad */
 203:C:/Users/stapi/OneDrive/Desktop/GD32VW553/V1_MQTT_OK/GD32VW55X_Wifi_BLE_SDK/GD32VW55x_RELEASE_V1.0.2/MSDK/cloud/alicloud/src/infra/utils/digest\utils_hmac.c ****     utils_sha1_update(&context, out, SHA1_DIGEST_SIZE);     /* then results of 1st hash */
 204:C:/Users/stapi/OneDrive/Desktop/GD32VW553/V1_MQTT_OK/GD32VW55X_Wifi_BLE_SDK/GD32VW55x_RELEASE_V1.0.2/MSDK/cloud/alicloud/src/infra/utils/digest\utils_hmac.c ****     utils_sha1_finish(&context, out);                       /* finish up 2nd pass */
 205:C:/Users/stapi/OneDrive/Desktop/GD32VW553/V1_MQTT_OK/GD32VW55X_Wifi_BLE_SDK/GD32VW55x_RELEASE_V1.0.2/MSDK/cloud/alicloud/src/infra/utils/digest\utils_hmac.c **** 
 206:C:/Users/stapi/OneDrive/Desktop/GD32VW553/V1_MQTT_OK/GD32VW55X_Wifi_BLE_SDK/GD32VW55x_RELEASE_V1.0.2/MSDK/cloud/alicloud/src/infra/utils/digest\utils_hmac.c ****     for (i = 0; i < SHA1_DIGEST_SIZE; ++i) {
 207:C:/Users/stapi/OneDrive/Desktop/GD32VW553/V1_MQTT_OK/GD32VW55X_Wifi_BLE_SDK/GD32VW55x_RELEASE_V1.0.2/MSDK/cloud/alicloud/src/infra/utils/digest\utils_hmac.c ****         digest[i * 2] = utils_hb2hex(out[i] >> 4);
 208:C:/Users/stapi/OneDrive/Desktop/GD32VW553/V1_MQTT_OK/GD32VW55X_Wifi_BLE_SDK/GD32VW55x_RELEASE_V1.0.2/MSDK/cloud/alicloud/src/infra/utils/digest\utils_hmac.c ****         digest[i * 2 + 1] = utils_hb2hex(out[i]);
 209:C:/Users/stapi/OneDrive/Desktop/GD32VW553/V1_MQTT_OK/GD32VW55X_Wifi_BLE_SDK/GD32VW55x_RELEASE_V1.0.2/MSDK/cloud/alicloud/src/infra/utils/digest\utils_hmac.c ****     }
 210:C:/Users/stapi/OneDrive/Desktop/GD32VW553/V1_MQTT_OK/GD32VW55X_Wifi_BLE_SDK/GD32VW55x_RELEASE_V1.0.2/MSDK/cloud/alicloud/src/infra/utils/digest\utils_hmac.c **** }
 763              		.loc 1 210 1 is_stmt 0
 764 0044 6D61     		addi	sp,sp,240
 765              		.cfi_remember_state
 766              		.cfi_def_cfa_offset 0
 767 0046 17030000 		tail	__riscv_restore_6
 767      67000300 
 768              		.cfi_restore 21
 769              		.cfi_restore 20
 770              		.cfi_restore 19
 771              		.cfi_restore 18
 772              		.cfi_restore 9
 773              		.cfi_restore 8
 774              		.cfi_restore 1
 775              		.cfi_def_cfa_offset -32
 776              	.LVL104:
 777              	.L53:
 778              		.cfi_restore_state
 169:C:/Users/stapi/OneDrive/Desktop/GD32VW553/V1_MQTT_OK/GD32VW55X_Wifi_BLE_SDK/GD32VW55x_RELEASE_V1.0.2/MSDK/cloud/alicloud/src/infra/utils/digest\utils_hmac.c ****         utils_err("key_len > size(%d) of array", KEY_IOPAD_SIZE);
 779              		.loc 1 169 8
 780 004e 93070004 		li	a5,64
 781 0052 BA89     		mv	s3,a4
 169:C:/Users/stapi/OneDrive/Desktop/GD32VW553/V1_MQTT_OK/GD32VW55X_Wifi_BLE_SDK/GD32VW55x_RELEASE_V1.0.2/MSDK/cloud/alicloud/src/infra/utils/digest\utils_hmac.c ****         utils_err("key_len > size(%d) of array", KEY_IOPAD_SIZE);
 782              		.loc 1 169 5 is_stmt 1
 169:C:/Users/stapi/OneDrive/Desktop/GD32VW553/V1_MQTT_OK/GD32VW55X_Wifi_BLE_SDK/GD32VW55x_RELEASE_V1.0.2/MSDK/cloud/alicloud/src/infra/utils/digest\utils_hmac.c ****         utils_err("key_len > size(%d) of array", KEY_IOPAD_SIZE);
 783              		.loc 1 169 8 is_stmt 0
 784 0054 63D5E702 		ble	a4,a5,.L55
 170:C:/Users/stapi/OneDrive/Desktop/GD32VW553/V1_MQTT_OK/GD32VW55X_Wifi_BLE_SDK/GD32VW55x_RELEASE_V1.0.2/MSDK/cloud/alicloud/src/infra/utils/digest\utils_hmac.c ****         return;
 785              		.loc 1 170 9 is_stmt 1
 170:C:/Users/stapi/OneDrive/Desktop/GD32VW553/V1_MQTT_OK/GD32VW55X_Wifi_BLE_SDK/GD32VW55x_RELEASE_V1.0.2/MSDK/cloud/alicloud/src/infra/utils/digest\utils_hmac.c ****         return;
 786              		.loc 1 170 9
 787 0058 37050000 		lui	a0,%hi(.LC0)
 788              	.LVL105:
 789 005c 13050500 		addi	a0,a0,%lo(.LC0)
 790 0060 97000000 		call	HAL_Printf
 790      E7800000 
 791              	.LVL106:
 170:C:/Users/stapi/OneDrive/Desktop/GD32VW553/V1_MQTT_OK/GD32VW55X_Wifi_BLE_SDK/GD32VW55x_RELEASE_V1.0.2/MSDK/cloud/alicloud/src/infra/utils/digest\utils_hmac.c ****         return;
 792              		.loc 1 170 9
 793 0068 37050000 		lui	a0,%hi(.LC3)
 794 006c 93050004 		li	a1,64
 795 0070 13050500 		addi	a0,a0,%lo(.LC3)
 796 0074 97000000 		call	HAL_Printf
 796      E7800000 
 797              	.LVL107:
 798 007c 65BF     		j	.L67
 799              	.LVL108:
 800              	.L55:
 181:C:/Users/stapi/OneDrive/Desktop/GD32VW553/V1_MQTT_OK/GD32VW55X_Wifi_BLE_SDK/GD32VW55x_RELEASE_V1.0.2/MSDK/cloud/alicloud/src/infra/utils/digest\utils_hmac.c ****     memset(k_opad, 0, sizeof(k_opad));
 801              		.loc 1 181 5 is_stmt 0
 802 007e 13060004 		li	a2,64
 803 0082 2A8A     		mv	s4,a0
 804 0084 AE8A     		mv	s5,a1
 174:C:/Users/stapi/OneDrive/Desktop/GD32VW553/V1_MQTT_OK/GD32VW55X_Wifi_BLE_SDK/GD32VW55x_RELEASE_V1.0.2/MSDK/cloud/alicloud/src/infra/utils/digest\utils_hmac.c ****     unsigned char k_ipad[KEY_IOPAD_SIZE];    /* inner padding - key XORd with ipad  */
 805              		.loc 1 174 5 is_stmt 1
 175:C:/Users/stapi/OneDrive/Desktop/GD32VW553/V1_MQTT_OK/GD32VW55X_Wifi_BLE_SDK/GD32VW55x_RELEASE_V1.0.2/MSDK/cloud/alicloud/src/infra/utils/digest\utils_hmac.c ****     unsigned char k_opad[KEY_IOPAD_SIZE];    /* outer padding - key XORd with opad */
 806              		.loc 1 175 5
 176:C:/Users/stapi/OneDrive/Desktop/GD32VW553/V1_MQTT_OK/GD32VW55X_Wifi_BLE_SDK/GD32VW55x_RELEASE_V1.0.2/MSDK/cloud/alicloud/src/infra/utils/digest\utils_hmac.c ****     unsigned char out[SHA1_DIGEST_SIZE];
 807              		.loc 1 176 5
 177:C:/Users/stapi/OneDrive/Desktop/GD32VW553/V1_MQTT_OK/GD32VW55X_Wifi_BLE_SDK/GD32VW55x_RELEASE_V1.0.2/MSDK/cloud/alicloud/src/infra/utils/digest\utils_hmac.c ****     int i;
 808              		.loc 1 177 5
 178:C:/Users/stapi/OneDrive/Desktop/GD32VW553/V1_MQTT_OK/GD32VW55X_Wifi_BLE_SDK/GD32VW55x_RELEASE_V1.0.2/MSDK/cloud/alicloud/src/infra/utils/digest\utils_hmac.c **** 
 809              		.loc 1 178 5
 181:C:/Users/stapi/OneDrive/Desktop/GD32VW553/V1_MQTT_OK/GD32VW55X_Wifi_BLE_SDK/GD32VW55x_RELEASE_V1.0.2/MSDK/cloud/alicloud/src/infra/utils/digest\utils_hmac.c ****     memset(k_opad, 0, sizeof(k_opad));
 810              		.loc 1 181 5
 811 0086 4808     		addi	a0,sp,20
 812              	.LVL109:
 813 0088 8145     		li	a1,0
 814              	.LVL110:
 815 008a 97000000 		call	memset
 815      E7800000 
 816              	.LVL111:
 182:C:/Users/stapi/OneDrive/Desktop/GD32VW553/V1_MQTT_OK/GD32VW55X_Wifi_BLE_SDK/GD32VW55x_RELEASE_V1.0.2/MSDK/cloud/alicloud/src/infra/utils/digest\utils_hmac.c ****     memcpy(k_ipad, key, key_len);
 817              		.loc 1 182 5
 818 0092 C408     		addi	s1,sp,84
 819 0094 13060004 		li	a2,64
 820 0098 8145     		li	a1,0
 821 009a 2685     		mv	a0,s1
 822 009c 97000000 		call	memset
 822      E7800000 
 823              	.LVL112:
 183:C:/Users/stapi/OneDrive/Desktop/GD32VW553/V1_MQTT_OK/GD32VW55X_Wifi_BLE_SDK/GD32VW55x_RELEASE_V1.0.2/MSDK/cloud/alicloud/src/infra/utils/digest\utils_hmac.c ****     memcpy(k_opad, key, key_len);
 824              		.loc 1 183 5
 825 00a4 4E86     		mv	a2,s3
 826 00a6 CA85     		mv	a1,s2
 827 00a8 4808     		addi	a0,sp,20
 828 00aa 97000000 		call	memcpy
 828      E7800000 
 829              	.LVL113:
 184:C:/Users/stapi/OneDrive/Desktop/GD32VW553/V1_MQTT_OK/GD32VW55X_Wifi_BLE_SDK/GD32VW55x_RELEASE_V1.0.2/MSDK/cloud/alicloud/src/infra/utils/digest\utils_hmac.c **** 
 830              		.loc 1 184 5
 831 00b2 4E86     		mv	a2,s3
 832 00b4 CA85     		mv	a1,s2
 833 00b6 2685     		mv	a0,s1
 834 00b8 97000000 		call	memcpy
 834      E7800000 
 835              	.LVL114:
 187:C:/Users/stapi/OneDrive/Desktop/GD32VW553/V1_MQTT_OK/GD32VW55X_Wifi_BLE_SDK/GD32VW55x_RELEASE_V1.0.2/MSDK/cloud/alicloud/src/infra/utils/digest\utils_hmac.c ****         k_ipad[i] ^= 0x36;
 836              		.loc 1 187 5
 187:C:/Users/stapi/OneDrive/Desktop/GD32VW553/V1_MQTT_OK/GD32VW55X_Wifi_BLE_SDK/GD32VW55x_RELEASE_V1.0.2/MSDK/cloud/alicloud/src/infra/utils/digest\utils_hmac.c ****         k_ipad[i] ^= 0x36;
 837              		.loc 1 187 17
 838 00c0 5C08     		addi	a5,sp,20
 839 00c2 2687     		mv	a4,s1
 840              	.LVL115:
 841              	.L56:
 188:C:/Users/stapi/OneDrive/Desktop/GD32VW553/V1_MQTT_OK/GD32VW55X_Wifi_BLE_SDK/GD32VW55x_RELEASE_V1.0.2/MSDK/cloud/alicloud/src/infra/utils/digest\utils_hmac.c ****         k_opad[i] ^= 0x5c;
 842              		.loc 1 188 9 discriminator 3
 188:C:/Users/stapi/OneDrive/Desktop/GD32VW553/V1_MQTT_OK/GD32VW55X_Wifi_BLE_SDK/GD32VW55x_RELEASE_V1.0.2/MSDK/cloud/alicloud/src/infra/utils/digest\utils_hmac.c ****         k_opad[i] ^= 0x5c;
 843              		.loc 1 188 19 is_stmt 0 discriminator 3
 844 00c4 83C60700 		lbu	a3,0(a5)
 187:C:/Users/stapi/OneDrive/Desktop/GD32VW553/V1_MQTT_OK/GD32VW55X_Wifi_BLE_SDK/GD32VW55x_RELEASE_V1.0.2/MSDK/cloud/alicloud/src/infra/utils/digest\utils_hmac.c ****         k_ipad[i] ^= 0x36;
 845              		.loc 1 187 5 discriminator 3
 846 00c8 8507     		addi	a5,a5,1
 847              	.LVL116:
 848 00ca 0507     		addi	a4,a4,1
 188:C:/Users/stapi/OneDrive/Desktop/GD32VW553/V1_MQTT_OK/GD32VW55X_Wifi_BLE_SDK/GD32VW55x_RELEASE_V1.0.2/MSDK/cloud/alicloud/src/infra/utils/digest\utils_hmac.c ****         k_opad[i] ^= 0x5c;
 849              		.loc 1 188 19 discriminator 3
 850 00cc 93C66603 		xori	a3,a3,54
 851 00d0 A38FD7FE 		sb	a3,-1(a5)
 189:C:/Users/stapi/OneDrive/Desktop/GD32VW553/V1_MQTT_OK/GD32VW55X_Wifi_BLE_SDK/GD32VW55x_RELEASE_V1.0.2/MSDK/cloud/alicloud/src/infra/utils/digest\utils_hmac.c ****     }
 852              		.loc 1 189 9 is_stmt 1 discriminator 3
 189:C:/Users/stapi/OneDrive/Desktop/GD32VW553/V1_MQTT_OK/GD32VW55X_Wifi_BLE_SDK/GD32VW55x_RELEASE_V1.0.2/MSDK/cloud/alicloud/src/infra/utils/digest\utils_hmac.c ****     }
 853              		.loc 1 189 19 is_stmt 0 discriminator 3
 854 00d4 8346F7FF 		lbu	a3,-1(a4)
 855 00d8 93C6C605 		xori	a3,a3,92
 856 00dc A30FD7FE 		sb	a3,-1(a4)
 187:C:/Users/stapi/OneDrive/Desktop/GD32VW553/V1_MQTT_OK/GD32VW55X_Wifi_BLE_SDK/GD32VW55x_RELEASE_V1.0.2/MSDK/cloud/alicloud/src/infra/utils/digest\utils_hmac.c ****         k_ipad[i] ^= 0x36;
 857              		.loc 1 187 37 is_stmt 1 discriminator 3
 858              	.LVL117:
 187:C:/Users/stapi/OneDrive/Desktop/GD32VW553/V1_MQTT_OK/GD32VW55X_Wifi_BLE_SDK/GD32VW55x_RELEASE_V1.0.2/MSDK/cloud/alicloud/src/infra/utils/digest\utils_hmac.c ****         k_ipad[i] ^= 0x36;
 859              		.loc 1 187 17 discriminator 3
 187:C:/Users/stapi/OneDrive/Desktop/GD32VW553/V1_MQTT_OK/GD32VW55X_Wifi_BLE_SDK/GD32VW55x_RELEASE_V1.0.2/MSDK/cloud/alicloud/src/infra/utils/digest\utils_hmac.c ****         k_ipad[i] ^= 0x36;
 860              		.loc 1 187 5 is_stmt 0 discriminator 3
 861 00e0 E392F4FE 		bne	s1,a5,.L56
 193:C:/Users/stapi/OneDrive/Desktop/GD32VW553/V1_MQTT_OK/GD32VW55X_Wifi_BLE_SDK/GD32VW55x_RELEASE_V1.0.2/MSDK/cloud/alicloud/src/infra/utils/digest\utils_hmac.c ****     utils_sha1_starts(&context);                                    /* setup context for 1st pass *
 862              		.loc 1 193 5 is_stmt 1
 863 00e4 4809     		addi	a0,sp,148
 864 00e6 97000000 		call	utils_sha1_init
 864      E7800000 
 865              	.LVL118:
 194:C:/Users/stapi/OneDrive/Desktop/GD32VW553/V1_MQTT_OK/GD32VW55X_Wifi_BLE_SDK/GD32VW55x_RELEASE_V1.0.2/MSDK/cloud/alicloud/src/infra/utils/digest\utils_hmac.c ****     utils_sha1_update(&context, k_ipad, KEY_IOPAD_SIZE);            /* start with inner pad */
 866              		.loc 1 194 5
 867 00ee 4809     		addi	a0,sp,148
 868 00f0 97000000 		call	utils_sha1_starts
 868      E7800000 
 869              	.LVL119:
 195:C:/Users/stapi/OneDrive/Desktop/GD32VW553/V1_MQTT_OK/GD32VW55X_Wifi_BLE_SDK/GD32VW55x_RELEASE_V1.0.2/MSDK/cloud/alicloud/src/infra/utils/digest\utils_hmac.c ****     utils_sha1_update(&context, (unsigned char *) msg, msg_len);    /* then text of datagram */
 870              		.loc 1 195 5
 871 00f8 13060004 		li	a2,64
 872 00fc 4C08     		addi	a1,sp,20
 873 00fe 4809     		addi	a0,sp,148
 874 0100 97000000 		call	utils_sha1_update
 874      E7800000 
 875              	.LVL120:
 196:C:/Users/stapi/OneDrive/Desktop/GD32VW553/V1_MQTT_OK/GD32VW55X_Wifi_BLE_SDK/GD32VW55x_RELEASE_V1.0.2/MSDK/cloud/alicloud/src/infra/utils/digest\utils_hmac.c ****     utils_sha1_finish(&context, out);                               /* finish up 1st pass */
 876              		.loc 1 196 5
 877 0108 5686     		mv	a2,s5
 878 010a D285     		mv	a1,s4
 879 010c 4809     		addi	a0,sp,148
 880 010e 97000000 		call	utils_sha1_update
 880      E7800000 
 881              	.LVL121:
 197:C:/Users/stapi/OneDrive/Desktop/GD32VW553/V1_MQTT_OK/GD32VW55X_Wifi_BLE_SDK/GD32VW55x_RELEASE_V1.0.2/MSDK/cloud/alicloud/src/infra/utils/digest\utils_hmac.c **** 
 882              		.loc 1 197 5
 883 0116 8A85     		mv	a1,sp
 884 0118 4809     		addi	a0,sp,148
 885 011a 97000000 		call	utils_sha1_finish
 885      E7800000 
 886              	.LVL122:
 200:C:/Users/stapi/OneDrive/Desktop/GD32VW553/V1_MQTT_OK/GD32VW55X_Wifi_BLE_SDK/GD32VW55x_RELEASE_V1.0.2/MSDK/cloud/alicloud/src/infra/utils/digest\utils_hmac.c ****     utils_sha1_starts(&context);                            /* setup context for 2nd pass */
 887              		.loc 1 200 5
 888 0122 4809     		addi	a0,sp,148
 889 0124 97000000 		call	utils_sha1_init
 889      E7800000 
 890              	.LVL123:
 201:C:/Users/stapi/OneDrive/Desktop/GD32VW553/V1_MQTT_OK/GD32VW55X_Wifi_BLE_SDK/GD32VW55x_RELEASE_V1.0.2/MSDK/cloud/alicloud/src/infra/utils/digest\utils_hmac.c ****     utils_sha1_update(&context, k_opad, KEY_IOPAD_SIZE);    /* start with outer pad */
 891              		.loc 1 201 5
 892 012c 4809     		addi	a0,sp,148
 893 012e 97000000 		call	utils_sha1_starts
 893      E7800000 
 894              	.LVL124:
 202:C:/Users/stapi/OneDrive/Desktop/GD32VW553/V1_MQTT_OK/GD32VW55X_Wifi_BLE_SDK/GD32VW55x_RELEASE_V1.0.2/MSDK/cloud/alicloud/src/infra/utils/digest\utils_hmac.c ****     utils_sha1_update(&context, out, SHA1_DIGEST_SIZE);     /* then results of 1st hash */
 895              		.loc 1 202 5
 896 0136 A685     		mv	a1,s1
 897 0138 13060004 		li	a2,64
 898 013c 4809     		addi	a0,sp,148
 899 013e 97000000 		call	utils_sha1_update
 899      E7800000 
 900              	.LVL125:
 203:C:/Users/stapi/OneDrive/Desktop/GD32VW553/V1_MQTT_OK/GD32VW55X_Wifi_BLE_SDK/GD32VW55x_RELEASE_V1.0.2/MSDK/cloud/alicloud/src/infra/utils/digest\utils_hmac.c ****     utils_sha1_finish(&context, out);                       /* finish up 2nd pass */
 901              		.loc 1 203 5
 902 0146 5146     		li	a2,20
 903 0148 8A85     		mv	a1,sp
 904 014a 4809     		addi	a0,sp,148
 905 014c 97000000 		call	utils_sha1_update
 905      E7800000 
 906              	.LVL126:
 204:C:/Users/stapi/OneDrive/Desktop/GD32VW553/V1_MQTT_OK/GD32VW55X_Wifi_BLE_SDK/GD32VW55x_RELEASE_V1.0.2/MSDK/cloud/alicloud/src/infra/utils/digest\utils_hmac.c **** 
 907              		.loc 1 204 5
 908 0154 8A85     		mv	a1,sp
 909 0156 4809     		addi	a0,sp,148
 910 0158 97000000 		call	utils_sha1_finish
 910      E7800000 
 911              	.LVL127:
 206:C:/Users/stapi/OneDrive/Desktop/GD32VW553/V1_MQTT_OK/GD32VW55X_Wifi_BLE_SDK/GD32VW55x_RELEASE_V1.0.2/MSDK/cloud/alicloud/src/infra/utils/digest\utils_hmac.c ****         digest[i * 2] = utils_hb2hex(out[i] >> 4);
 912              		.loc 1 206 5
 206:C:/Users/stapi/OneDrive/Desktop/GD32VW553/V1_MQTT_OK/GD32VW55X_Wifi_BLE_SDK/GD32VW55x_RELEASE_V1.0.2/MSDK/cloud/alicloud/src/infra/utils/digest\utils_hmac.c ****         digest[i * 2] = utils_hb2hex(out[i] >> 4);
 913              		.loc 1 206 17
 914 0160 8A84     		mv	s1,sp
 915 0162 13098402 		addi	s2,s0,40
 916              	.LVL128:
 917              	.L57:
 207:C:/Users/stapi/OneDrive/Desktop/GD32VW553/V1_MQTT_OK/GD32VW55X_Wifi_BLE_SDK/GD32VW55x_RELEASE_V1.0.2/MSDK/cloud/alicloud/src/infra/utils/digest\utils_hmac.c ****         digest[i * 2 + 1] = utils_hb2hex(out[i]);
 918              		.loc 1 207 9 discriminator 3
 207:C:/Users/stapi/OneDrive/Desktop/GD32VW553/V1_MQTT_OK/GD32VW55X_Wifi_BLE_SDK/GD32VW55x_RELEASE_V1.0.2/MSDK/cloud/alicloud/src/infra/utils/digest\utils_hmac.c ****         digest[i * 2 + 1] = utils_hb2hex(out[i]);
 919              		.loc 1 207 25 is_stmt 0 discriminator 3
 920 0166 03C50400 		lbu	a0,0(s1)
 206:C:/Users/stapi/OneDrive/Desktop/GD32VW553/V1_MQTT_OK/GD32VW55X_Wifi_BLE_SDK/GD32VW55x_RELEASE_V1.0.2/MSDK/cloud/alicloud/src/infra/utils/digest\utils_hmac.c ****         digest[i * 2] = utils_hb2hex(out[i] >> 4);
 921              		.loc 1 206 5 discriminator 3
 922 016a 0904     		addi	s0,s0,2
 923 016c 8504     		addi	s1,s1,1
 924              	.LVL129:
 207:C:/Users/stapi/OneDrive/Desktop/GD32VW553/V1_MQTT_OK/GD32VW55X_Wifi_BLE_SDK/GD32VW55x_RELEASE_V1.0.2/MSDK/cloud/alicloud/src/infra/utils/digest\utils_hmac.c ****         digest[i * 2 + 1] = utils_hb2hex(out[i]);
 925              		.loc 1 207 25 discriminator 3
 926 016e 1181     		srli	a0,a0,4
 927 0170 97000000 		call	utils_hb2hex
 927      E7800000 
 928              	.LVL130:
 207:C:/Users/stapi/OneDrive/Desktop/GD32VW553/V1_MQTT_OK/GD32VW55X_Wifi_BLE_SDK/GD32VW55x_RELEASE_V1.0.2/MSDK/cloud/alicloud/src/infra/utils/digest\utils_hmac.c ****         digest[i * 2 + 1] = utils_hb2hex(out[i]);
 929              		.loc 1 207 23 discriminator 3
 930 0178 230FA4FE 		sb	a0,-2(s0)
 208:C:/Users/stapi/OneDrive/Desktop/GD32VW553/V1_MQTT_OK/GD32VW55X_Wifi_BLE_SDK/GD32VW55x_RELEASE_V1.0.2/MSDK/cloud/alicloud/src/infra/utils/digest\utils_hmac.c ****     }
 931              		.loc 1 208 9 is_stmt 1 discriminator 3
 208:C:/Users/stapi/OneDrive/Desktop/GD32VW553/V1_MQTT_OK/GD32VW55X_Wifi_BLE_SDK/GD32VW55x_RELEASE_V1.0.2/MSDK/cloud/alicloud/src/infra/utils/digest\utils_hmac.c ****     }
 932              		.loc 1 208 29 is_stmt 0 discriminator 3
 933 017c 03C5F4FF 		lbu	a0,-1(s1)
 934 0180 97000000 		call	utils_hb2hex
 934      E7800000 
 935              	.LVL131:
 208:C:/Users/stapi/OneDrive/Desktop/GD32VW553/V1_MQTT_OK/GD32VW55X_Wifi_BLE_SDK/GD32VW55x_RELEASE_V1.0.2/MSDK/cloud/alicloud/src/infra/utils/digest\utils_hmac.c ****     }
 936              		.loc 1 208 27 discriminator 3
 937 0188 A30FA4FE 		sb	a0,-1(s0)
 206:C:/Users/stapi/OneDrive/Desktop/GD32VW553/V1_MQTT_OK/GD32VW55X_Wifi_BLE_SDK/GD32VW55x_RELEASE_V1.0.2/MSDK/cloud/alicloud/src/infra/utils/digest\utils_hmac.c ****         digest[i * 2] = utils_hb2hex(out[i] >> 4);
 938              		.loc 1 206 39 is_stmt 1 discriminator 3
 939              	.LVL132:
 206:C:/Users/stapi/OneDrive/Desktop/GD32VW553/V1_MQTT_OK/GD32VW55X_Wifi_BLE_SDK/GD32VW55x_RELEASE_V1.0.2/MSDK/cloud/alicloud/src/infra/utils/digest\utils_hmac.c ****         digest[i * 2] = utils_hb2hex(out[i] >> 4);
 940              		.loc 1 206 17 discriminator 3
 206:C:/Users/stapi/OneDrive/Desktop/GD32VW553/V1_MQTT_OK/GD32VW55X_Wifi_BLE_SDK/GD32VW55x_RELEASE_V1.0.2/MSDK/cloud/alicloud/src/infra/utils/digest\utils_hmac.c ****         digest[i * 2] = utils_hb2hex(out[i] >> 4);
 941              		.loc 1 206 5 is_stmt 0 discriminator 3
 942 018c E31D24FD 		bne	s0,s2,.L57
 943 0190 55BD     		j	.L51
 944              		.cfi_endproc
 945              	.LFE23:
 947              		.section	.text.utils_hmac_sha1_raw,"ax",@progbits
 948              		.align	1
 949              		.globl	utils_hmac_sha1_raw
 951              	utils_hmac_sha1_raw:
 952              	.LFB27:
 953              		.cfi_startproc
 954 0000 17030000 		tail	utils_hmac_sha1_hex
 954      67000300 
 955              		.cfi_endproc
 956              	.LFE27:
 958              		.section	.text.utils_hmac_sha1_base64,"ax",@progbits
 959              		.align	1
 960              		.globl	utils_hmac_sha1_base64
 962              	utils_hmac_sha1_base64:
 963              	.LFB25:
 211:C:/Users/stapi/OneDrive/Desktop/GD32VW553/V1_MQTT_OK/GD32VW55X_Wifi_BLE_SDK/GD32VW55x_RELEASE_V1.0.2/MSDK/cloud/alicloud/src/infra/utils/digest\utils_hmac.c **** 
 212:C:/Users/stapi/OneDrive/Desktop/GD32VW553/V1_MQTT_OK/GD32VW55X_Wifi_BLE_SDK/GD32VW55x_RELEASE_V1.0.2/MSDK/cloud/alicloud/src/infra/utils/digest\utils_hmac.c **** void utils_hmac_sha1_raw(const char *msg, int msg_len, char *digest, const char *key, int key_len)
 213:C:/Users/stapi/OneDrive/Desktop/GD32VW553/V1_MQTT_OK/GD32VW55X_Wifi_BLE_SDK/GD32VW55x_RELEASE_V1.0.2/MSDK/cloud/alicloud/src/infra/utils/digest\utils_hmac.c **** {
 214:C:/Users/stapi/OneDrive/Desktop/GD32VW553/V1_MQTT_OK/GD32VW55X_Wifi_BLE_SDK/GD32VW55x_RELEASE_V1.0.2/MSDK/cloud/alicloud/src/infra/utils/digest\utils_hmac.c ****     if ((NULL == msg) || (NULL == digest) || (NULL == key)) {
 215:C:/Users/stapi/OneDrive/Desktop/GD32VW553/V1_MQTT_OK/GD32VW55X_Wifi_BLE_SDK/GD32VW55x_RELEASE_V1.0.2/MSDK/cloud/alicloud/src/infra/utils/digest\utils_hmac.c ****         utils_err("parameter is Null,failed!");
 216:C:/Users/stapi/OneDrive/Desktop/GD32VW553/V1_MQTT_OK/GD32VW55X_Wifi_BLE_SDK/GD32VW55x_RELEASE_V1.0.2/MSDK/cloud/alicloud/src/infra/utils/digest\utils_hmac.c ****         return;
 217:C:/Users/stapi/OneDrive/Desktop/GD32VW553/V1_MQTT_OK/GD32VW55X_Wifi_BLE_SDK/GD32VW55x_RELEASE_V1.0.2/MSDK/cloud/alicloud/src/infra/utils/digest\utils_hmac.c ****     }
 218:C:/Users/stapi/OneDrive/Desktop/GD32VW553/V1_MQTT_OK/GD32VW55X_Wifi_BLE_SDK/GD32VW55x_RELEASE_V1.0.2/MSDK/cloud/alicloud/src/infra/utils/digest\utils_hmac.c **** 
 219:C:/Users/stapi/OneDrive/Desktop/GD32VW553/V1_MQTT_OK/GD32VW55X_Wifi_BLE_SDK/GD32VW55x_RELEASE_V1.0.2/MSDK/cloud/alicloud/src/infra/utils/digest\utils_hmac.c ****     if (key_len > KEY_IOPAD_SIZE) {
 220:C:/Users/stapi/OneDrive/Desktop/GD32VW553/V1_MQTT_OK/GD32VW55X_Wifi_BLE_SDK/GD32VW55x_RELEASE_V1.0.2/MSDK/cloud/alicloud/src/infra/utils/digest\utils_hmac.c ****         utils_err("key_len > size(%d) of array", KEY_IOPAD_SIZE);
 221:C:/Users/stapi/OneDrive/Desktop/GD32VW553/V1_MQTT_OK/GD32VW55X_Wifi_BLE_SDK/GD32VW55x_RELEASE_V1.0.2/MSDK/cloud/alicloud/src/infra/utils/digest\utils_hmac.c ****         return;
 222:C:/Users/stapi/OneDrive/Desktop/GD32VW553/V1_MQTT_OK/GD32VW55X_Wifi_BLE_SDK/GD32VW55x_RELEASE_V1.0.2/MSDK/cloud/alicloud/src/infra/utils/digest\utils_hmac.c ****     }
 223:C:/Users/stapi/OneDrive/Desktop/GD32VW553/V1_MQTT_OK/GD32VW55X_Wifi_BLE_SDK/GD32VW55x_RELEASE_V1.0.2/MSDK/cloud/alicloud/src/infra/utils/digest\utils_hmac.c **** 
 224:C:/Users/stapi/OneDrive/Desktop/GD32VW553/V1_MQTT_OK/GD32VW55X_Wifi_BLE_SDK/GD32VW55x_RELEASE_V1.0.2/MSDK/cloud/alicloud/src/infra/utils/digest\utils_hmac.c ****     iot_sha1_context context;
 225:C:/Users/stapi/OneDrive/Desktop/GD32VW553/V1_MQTT_OK/GD32VW55X_Wifi_BLE_SDK/GD32VW55x_RELEASE_V1.0.2/MSDK/cloud/alicloud/src/infra/utils/digest\utils_hmac.c ****     unsigned char k_ipad[KEY_IOPAD_SIZE];    /* inner padding - key XORd with ipad  */
 226:C:/Users/stapi/OneDrive/Desktop/GD32VW553/V1_MQTT_OK/GD32VW55X_Wifi_BLE_SDK/GD32VW55x_RELEASE_V1.0.2/MSDK/cloud/alicloud/src/infra/utils/digest\utils_hmac.c ****     unsigned char k_opad[KEY_IOPAD_SIZE];    /* outer padding - key XORd with opad */
 227:C:/Users/stapi/OneDrive/Desktop/GD32VW553/V1_MQTT_OK/GD32VW55X_Wifi_BLE_SDK/GD32VW55x_RELEASE_V1.0.2/MSDK/cloud/alicloud/src/infra/utils/digest\utils_hmac.c ****     unsigned char out[SHA1_DIGEST_SIZE];
 228:C:/Users/stapi/OneDrive/Desktop/GD32VW553/V1_MQTT_OK/GD32VW55X_Wifi_BLE_SDK/GD32VW55x_RELEASE_V1.0.2/MSDK/cloud/alicloud/src/infra/utils/digest\utils_hmac.c ****     int i;
 229:C:/Users/stapi/OneDrive/Desktop/GD32VW553/V1_MQTT_OK/GD32VW55X_Wifi_BLE_SDK/GD32VW55x_RELEASE_V1.0.2/MSDK/cloud/alicloud/src/infra/utils/digest\utils_hmac.c **** 
 230:C:/Users/stapi/OneDrive/Desktop/GD32VW553/V1_MQTT_OK/GD32VW55X_Wifi_BLE_SDK/GD32VW55x_RELEASE_V1.0.2/MSDK/cloud/alicloud/src/infra/utils/digest\utils_hmac.c ****     /* start out by storing key in pads */
 231:C:/Users/stapi/OneDrive/Desktop/GD32VW553/V1_MQTT_OK/GD32VW55X_Wifi_BLE_SDK/GD32VW55x_RELEASE_V1.0.2/MSDK/cloud/alicloud/src/infra/utils/digest\utils_hmac.c ****     memset(k_ipad, 0, sizeof(k_ipad));
 232:C:/Users/stapi/OneDrive/Desktop/GD32VW553/V1_MQTT_OK/GD32VW55X_Wifi_BLE_SDK/GD32VW55x_RELEASE_V1.0.2/MSDK/cloud/alicloud/src/infra/utils/digest\utils_hmac.c ****     memset(k_opad, 0, sizeof(k_opad));
 233:C:/Users/stapi/OneDrive/Desktop/GD32VW553/V1_MQTT_OK/GD32VW55X_Wifi_BLE_SDK/GD32VW55x_RELEASE_V1.0.2/MSDK/cloud/alicloud/src/infra/utils/digest\utils_hmac.c ****     memcpy(k_ipad, key, key_len);
 234:C:/Users/stapi/OneDrive/Desktop/GD32VW553/V1_MQTT_OK/GD32VW55X_Wifi_BLE_SDK/GD32VW55x_RELEASE_V1.0.2/MSDK/cloud/alicloud/src/infra/utils/digest\utils_hmac.c ****     memcpy(k_opad, key, key_len);
 235:C:/Users/stapi/OneDrive/Desktop/GD32VW553/V1_MQTT_OK/GD32VW55X_Wifi_BLE_SDK/GD32VW55x_RELEASE_V1.0.2/MSDK/cloud/alicloud/src/infra/utils/digest\utils_hmac.c **** 
 236:C:/Users/stapi/OneDrive/Desktop/GD32VW553/V1_MQTT_OK/GD32VW55X_Wifi_BLE_SDK/GD32VW55x_RELEASE_V1.0.2/MSDK/cloud/alicloud/src/infra/utils/digest\utils_hmac.c ****     /* XOR key with ipad and opad values */
 237:C:/Users/stapi/OneDrive/Desktop/GD32VW553/V1_MQTT_OK/GD32VW55X_Wifi_BLE_SDK/GD32VW55x_RELEASE_V1.0.2/MSDK/cloud/alicloud/src/infra/utils/digest\utils_hmac.c ****     for (i = 0; i < KEY_IOPAD_SIZE; i++) {
 238:C:/Users/stapi/OneDrive/Desktop/GD32VW553/V1_MQTT_OK/GD32VW55X_Wifi_BLE_SDK/GD32VW55x_RELEASE_V1.0.2/MSDK/cloud/alicloud/src/infra/utils/digest\utils_hmac.c ****         k_ipad[i] ^= 0x36;
 239:C:/Users/stapi/OneDrive/Desktop/GD32VW553/V1_MQTT_OK/GD32VW55X_Wifi_BLE_SDK/GD32VW55x_RELEASE_V1.0.2/MSDK/cloud/alicloud/src/infra/utils/digest\utils_hmac.c ****         k_opad[i] ^= 0x5c;
 240:C:/Users/stapi/OneDrive/Desktop/GD32VW553/V1_MQTT_OK/GD32VW55X_Wifi_BLE_SDK/GD32VW55x_RELEASE_V1.0.2/MSDK/cloud/alicloud/src/infra/utils/digest\utils_hmac.c ****     }
 241:C:/Users/stapi/OneDrive/Desktop/GD32VW553/V1_MQTT_OK/GD32VW55X_Wifi_BLE_SDK/GD32VW55x_RELEASE_V1.0.2/MSDK/cloud/alicloud/src/infra/utils/digest\utils_hmac.c **** 
 242:C:/Users/stapi/OneDrive/Desktop/GD32VW553/V1_MQTT_OK/GD32VW55X_Wifi_BLE_SDK/GD32VW55x_RELEASE_V1.0.2/MSDK/cloud/alicloud/src/infra/utils/digest\utils_hmac.c ****     /* perform inner SHA */
 243:C:/Users/stapi/OneDrive/Desktop/GD32VW553/V1_MQTT_OK/GD32VW55X_Wifi_BLE_SDK/GD32VW55x_RELEASE_V1.0.2/MSDK/cloud/alicloud/src/infra/utils/digest\utils_hmac.c ****     utils_sha1_init(&context);                                      /* init context for 1st pass */
 244:C:/Users/stapi/OneDrive/Desktop/GD32VW553/V1_MQTT_OK/GD32VW55X_Wifi_BLE_SDK/GD32VW55x_RELEASE_V1.0.2/MSDK/cloud/alicloud/src/infra/utils/digest\utils_hmac.c ****     utils_sha1_starts(&context);                                    /* setup context for 1st pass *
 245:C:/Users/stapi/OneDrive/Desktop/GD32VW553/V1_MQTT_OK/GD32VW55X_Wifi_BLE_SDK/GD32VW55x_RELEASE_V1.0.2/MSDK/cloud/alicloud/src/infra/utils/digest\utils_hmac.c ****     utils_sha1_update(&context, k_ipad, KEY_IOPAD_SIZE);            /* start with inner pad */
 246:C:/Users/stapi/OneDrive/Desktop/GD32VW553/V1_MQTT_OK/GD32VW55X_Wifi_BLE_SDK/GD32VW55x_RELEASE_V1.0.2/MSDK/cloud/alicloud/src/infra/utils/digest\utils_hmac.c ****     utils_sha1_update(&context, (unsigned char *) msg, msg_len);    /* then text of datagram */
 247:C:/Users/stapi/OneDrive/Desktop/GD32VW553/V1_MQTT_OK/GD32VW55X_Wifi_BLE_SDK/GD32VW55x_RELEASE_V1.0.2/MSDK/cloud/alicloud/src/infra/utils/digest\utils_hmac.c ****     utils_sha1_finish(&context, out);                               /* finish up 1st pass */
 248:C:/Users/stapi/OneDrive/Desktop/GD32VW553/V1_MQTT_OK/GD32VW55X_Wifi_BLE_SDK/GD32VW55x_RELEASE_V1.0.2/MSDK/cloud/alicloud/src/infra/utils/digest\utils_hmac.c **** 
 249:C:/Users/stapi/OneDrive/Desktop/GD32VW553/V1_MQTT_OK/GD32VW55X_Wifi_BLE_SDK/GD32VW55x_RELEASE_V1.0.2/MSDK/cloud/alicloud/src/infra/utils/digest\utils_hmac.c ****     /* perform outer SHA */
 250:C:/Users/stapi/OneDrive/Desktop/GD32VW553/V1_MQTT_OK/GD32VW55X_Wifi_BLE_SDK/GD32VW55x_RELEASE_V1.0.2/MSDK/cloud/alicloud/src/infra/utils/digest\utils_hmac.c ****     utils_sha1_init(&context);                              /* init context for 2nd pass */
 251:C:/Users/stapi/OneDrive/Desktop/GD32VW553/V1_MQTT_OK/GD32VW55X_Wifi_BLE_SDK/GD32VW55x_RELEASE_V1.0.2/MSDK/cloud/alicloud/src/infra/utils/digest\utils_hmac.c ****     utils_sha1_starts(&context);                            /* setup context for 2nd pass */
 252:C:/Users/stapi/OneDrive/Desktop/GD32VW553/V1_MQTT_OK/GD32VW55X_Wifi_BLE_SDK/GD32VW55x_RELEASE_V1.0.2/MSDK/cloud/alicloud/src/infra/utils/digest\utils_hmac.c ****     utils_sha1_update(&context, k_opad, KEY_IOPAD_SIZE);    /* start with outer pad */
 253:C:/Users/stapi/OneDrive/Desktop/GD32VW553/V1_MQTT_OK/GD32VW55X_Wifi_BLE_SDK/GD32VW55x_RELEASE_V1.0.2/MSDK/cloud/alicloud/src/infra/utils/digest\utils_hmac.c ****     utils_sha1_update(&context, out, SHA1_DIGEST_SIZE);     /* then results of 1st hash */
 254:C:/Users/stapi/OneDrive/Desktop/GD32VW553/V1_MQTT_OK/GD32VW55X_Wifi_BLE_SDK/GD32VW55x_RELEASE_V1.0.2/MSDK/cloud/alicloud/src/infra/utils/digest\utils_hmac.c ****     utils_sha1_finish(&context, out);                       /* finish up 2nd pass */
 255:C:/Users/stapi/OneDrive/Desktop/GD32VW553/V1_MQTT_OK/GD32VW55X_Wifi_BLE_SDK/GD32VW55x_RELEASE_V1.0.2/MSDK/cloud/alicloud/src/infra/utils/digest\utils_hmac.c **** 
 256:C:/Users/stapi/OneDrive/Desktop/GD32VW553/V1_MQTT_OK/GD32VW55X_Wifi_BLE_SDK/GD32VW55x_RELEASE_V1.0.2/MSDK/cloud/alicloud/src/infra/utils/digest\utils_hmac.c ****     memcpy(digest, out, SHA1_DIGEST_SIZE);
 257:C:/Users/stapi/OneDrive/Desktop/GD32VW553/V1_MQTT_OK/GD32VW55X_Wifi_BLE_SDK/GD32VW55x_RELEASE_V1.0.2/MSDK/cloud/alicloud/src/infra/utils/digest\utils_hmac.c **** }
 258:C:/Users/stapi/OneDrive/Desktop/GD32VW553/V1_MQTT_OK/GD32VW55X_Wifi_BLE_SDK/GD32VW55x_RELEASE_V1.0.2/MSDK/cloud/alicloud/src/infra/utils/digest\utils_hmac.c **** 
 259:C:/Users/stapi/OneDrive/Desktop/GD32VW553/V1_MQTT_OK/GD32VW55X_Wifi_BLE_SDK/GD32VW55x_RELEASE_V1.0.2/MSDK/cloud/alicloud/src/infra/utils/digest\utils_hmac.c **** void utils_hmac_sha1_base64(const char *msg, int msg_len, const char *key, int key_len, char *diges
 260:C:/Users/stapi/OneDrive/Desktop/GD32VW553/V1_MQTT_OK/GD32VW55X_Wifi_BLE_SDK/GD32VW55x_RELEASE_V1.0.2/MSDK/cloud/alicloud/src/infra/utils/digest\utils_hmac.c **** {
 964              		.loc 1 260 1 is_stmt 1
 965              		.cfi_startproc
 966              	.LVL133:
 967              		.loc 1 260 1 is_stmt 0
 968 0000 17030000 		call	t0,__riscv_save_2
 968      E7020300 
 969              		.cfi_offset 9, -12
 970              		.cfi_offset 8, -8
 971              		.cfi_offset 1, -4
 972              		.cfi_def_cfa_offset 16
 261:C:/Users/stapi/OneDrive/Desktop/GD32VW553/V1_MQTT_OK/GD32VW55X_Wifi_BLE_SDK/GD32VW55x_RELEASE_V1.0.2/MSDK/cloud/alicloud/src/infra/utils/digest\utils_hmac.c ****     char buf[SHA1_DIGEST_SIZE];
 973              		.loc 1 261 5 is_stmt 1
 262:C:/Users/stapi/OneDrive/Desktop/GD32VW553/V1_MQTT_OK/GD32VW55X_Wifi_BLE_SDK/GD32VW55x_RELEASE_V1.0.2/MSDK/cloud/alicloud/src/infra/utils/digest\utils_hmac.c ****     utils_hmac_sha1_raw(msg, msg_len, buf, key, key_len);
 974              		.loc 1 262 5
 260:C:/Users/stapi/OneDrive/Desktop/GD32VW553/V1_MQTT_OK/GD32VW55X_Wifi_BLE_SDK/GD32VW55x_RELEASE_V1.0.2/MSDK/cloud/alicloud/src/infra/utils/digest\utils_hmac.c ****     char buf[SHA1_DIGEST_SIZE];
 975              		.loc 1 260 1 is_stmt 0
 976 0008 0111     		addi	sp,sp,-32
 977              		.cfi_def_cfa_offset 48
 260:C:/Users/stapi/OneDrive/Desktop/GD32VW553/V1_MQTT_OK/GD32VW55X_Wifi_BLE_SDK/GD32VW55x_RELEASE_V1.0.2/MSDK/cloud/alicloud/src/infra/utils/digest\utils_hmac.c ****     char buf[SHA1_DIGEST_SIZE];
 978              		.loc 1 260 1
 979 000a BA84     		mv	s1,a4
 980              		.loc 1 262 5
 981 000c 3687     		mv	a4,a3
 982              	.LVL134:
 983 000e B286     		mv	a3,a2
 984              	.LVL135:
 985 0010 7000     		addi	a2,sp,12
 986              	.LVL136:
 260:C:/Users/stapi/OneDrive/Desktop/GD32VW553/V1_MQTT_OK/GD32VW55X_Wifi_BLE_SDK/GD32VW55x_RELEASE_V1.0.2/MSDK/cloud/alicloud/src/infra/utils/digest\utils_hmac.c ****     char buf[SHA1_DIGEST_SIZE];
 987              		.loc 1 260 1
 988 0012 3E84     		mv	s0,a5
 989              		.loc 1 262 5
 990 0014 97000000 		call	utils_hmac_sha1_hex
 990      E7800000 
 991              	.LVL137:
 263:C:/Users/stapi/OneDrive/Desktop/GD32VW553/V1_MQTT_OK/GD32VW55X_Wifi_BLE_SDK/GD32VW55x_RELEASE_V1.0.2/MSDK/cloud/alicloud/src/infra/utils/digest\utils_hmac.c **** 
 264:C:/Users/stapi/OneDrive/Desktop/GD32VW553/V1_MQTT_OK/GD32VW55X_Wifi_BLE_SDK/GD32VW55x_RELEASE_V1.0.2/MSDK/cloud/alicloud/src/infra/utils/digest\utils_hmac.c ****     uint32_t outlen;
 992              		.loc 1 264 5 is_stmt 1
 265:C:/Users/stapi/OneDrive/Desktop/GD32VW553/V1_MQTT_OK/GD32VW55X_Wifi_BLE_SDK/GD32VW55x_RELEASE_V1.0.2/MSDK/cloud/alicloud/src/infra/utils/digest\utils_hmac.c ****     utils_base64encode((unsigned char *)buf, SHA1_DIGEST_SIZE, *digest_len, (unsigned char *)digest
 993              		.loc 1 265 5
 994 001c 1040     		lw	a2,0(s0)
 995 001e 3800     		addi	a4,sp,8
 996 0020 A686     		mv	a3,s1
 997 0022 D145     		li	a1,20
 998 0024 6800     		addi	a0,sp,12
 999 0026 97000000 		call	utils_base64encode
 999      E7800000 
 1000              	.LVL138:
 266:C:/Users/stapi/OneDrive/Desktop/GD32VW553/V1_MQTT_OK/GD32VW55X_Wifi_BLE_SDK/GD32VW55x_RELEASE_V1.0.2/MSDK/cloud/alicloud/src/infra/utils/digest\utils_hmac.c ****     *digest_len = outlen;
 1001              		.loc 1 266 5
 1002              		.loc 1 266 17 is_stmt 0
 1003 002e A247     		lw	a5,8(sp)
 1004 0030 1CC0     		sw	a5,0(s0)
 267:C:/Users/stapi/OneDrive/Desktop/GD32VW553/V1_MQTT_OK/GD32VW55X_Wifi_BLE_SDK/GD32VW55x_RELEASE_V1.0.2/MSDK/cloud/alicloud/src/infra/utils/digest\utils_hmac.c **** }
 1005              		.loc 1 267 1
 1006 0032 0561     		addi	sp,sp,32
 1007              		.cfi_def_cfa_offset 0
 1008 0034 17030000 		tail	__riscv_restore_2
 1008      67000300 
 1009              		.cfi_restore 9
 1010              		.cfi_restore 8
 1011              		.cfi_restore 1
 1012              		.cfi_def_cfa_offset -16
 1013              		.cfi_endproc
 1014              	.LFE25:
 1016              		.text
 1017              	.Letext0:
 1018              		.file 2 "c:\\users\\stapi\\onedrive\\desktop\\gd32vw553\\embeddedbuilder_v1.4.7.26843\\tools\\nucl
 1019              		.file 3 "c:\\users\\stapi\\onedrive\\desktop\\gd32vw553\\embeddedbuilder_v1.4.7.26843\\tools\\nucl
 1020              		.file 4 "..\\..\\..\\..\\cloud\\alicloud\\src\\infra\\utils\\digest/utils_md5.h"
 1021              		.file 5 "..\\..\\..\\..\\cloud\\alicloud\\src\\infra\\utils\\digest/utils_sha256.h"
 1022              		.file 6 "C:/Users/stapi/OneDrive/Desktop/GD32VW553/V1_MQTT_OK/GD32VW55X_Wifi_BLE_SDK/GD32VW55x_REL
 1023              		.file 7 "C:/Users/stapi/OneDrive/Desktop/GD32VW553/V1_MQTT_OK/GD32VW55X_Wifi_BLE_SDK/GD32VW55x_REL
 1024              		.file 8 "..\\..\\..\\..\\cloud\\alicloud\\include/iot_import.h"
 1025              		.file 9 "<built-in>"