   1              		.file	"utils_sha1.c"
   2              		.option nopic
   3              		.attribute arch, "rv32i2p0_m2p0_a2p0_f2p0_c2p0_b_p0p94"
   4              		.attribute unaligned_access, 0
   5              		.attribute stack_align, 16
   6              		.text
   7              	.Ltext0:
   8              		.cfi_sections	.debug_frame
   9              		.section	.text.utils_sha1_init,"ax",@progbits
  10              		.align	1
  11              		.globl	utils_sha1_init
  13              	utils_sha1_init:
  14              	.LFB5:
  15              		.file 1 "C:/Users/stapi/OneDrive/Desktop/GD32VW553/V1_MQTT_OK/GD32VW55X_Wifi_BLE_SDK/GD32VW55x_REL
   1:C:/Users/stapi/OneDrive/Desktop/GD32VW553/V1_MQTT_OK/GD32VW55X_Wifi_BLE_SDK/GD32VW55x_RELEASE_V1.0.2/MSDK/cloud/alicloud/src/infra/utils/digest\utils_sha1.c **** /*
   2:C:/Users/stapi/OneDrive/Desktop/GD32VW553/V1_MQTT_OK/GD32VW55X_Wifi_BLE_SDK/GD32VW55x_RELEASE_V1.0.2/MSDK/cloud/alicloud/src/infra/utils/digest\utils_sha1.c ****  * Copyright (C) 2015-2018 Alibaba Group Holding Limited
   3:C:/Users/stapi/OneDrive/Desktop/GD32VW553/V1_MQTT_OK/GD32VW55X_Wifi_BLE_SDK/GD32VW55x_RELEASE_V1.0.2/MSDK/cloud/alicloud/src/infra/utils/digest\utils_sha1.c ****  */
   4:C:/Users/stapi/OneDrive/Desktop/GD32VW553/V1_MQTT_OK/GD32VW55X_Wifi_BLE_SDK/GD32VW55x_RELEASE_V1.0.2/MSDK/cloud/alicloud/src/infra/utils/digest\utils_sha1.c **** 
   5:C:/Users/stapi/OneDrive/Desktop/GD32VW553/V1_MQTT_OK/GD32VW55X_Wifi_BLE_SDK/GD32VW55x_RELEASE_V1.0.2/MSDK/cloud/alicloud/src/infra/utils/digest\utils_sha1.c **** 
   6:C:/Users/stapi/OneDrive/Desktop/GD32VW553/V1_MQTT_OK/GD32VW55X_Wifi_BLE_SDK/GD32VW55x_RELEASE_V1.0.2/MSDK/cloud/alicloud/src/infra/utils/digest\utils_sha1.c **** #include <stdlib.h>
   7:C:/Users/stapi/OneDrive/Desktop/GD32VW553/V1_MQTT_OK/GD32VW55X_Wifi_BLE_SDK/GD32VW55x_RELEASE_V1.0.2/MSDK/cloud/alicloud/src/infra/utils/digest\utils_sha1.c **** #include <string.h>
   8:C:/Users/stapi/OneDrive/Desktop/GD32VW553/V1_MQTT_OK/GD32VW55X_Wifi_BLE_SDK/GD32VW55x_RELEASE_V1.0.2/MSDK/cloud/alicloud/src/infra/utils/digest\utils_sha1.c **** #include "iot_import.h"
   9:C:/Users/stapi/OneDrive/Desktop/GD32VW553/V1_MQTT_OK/GD32VW55X_Wifi_BLE_SDK/GD32VW55x_RELEASE_V1.0.2/MSDK/cloud/alicloud/src/infra/utils/digest\utils_sha1.c **** #include "iotx_log.h"
  10:C:/Users/stapi/OneDrive/Desktop/GD32VW553/V1_MQTT_OK/GD32VW55X_Wifi_BLE_SDK/GD32VW55x_RELEASE_V1.0.2/MSDK/cloud/alicloud/src/infra/utils/digest\utils_sha1.c **** #include "utils_sha1.h"
  11:C:/Users/stapi/OneDrive/Desktop/GD32VW553/V1_MQTT_OK/GD32VW55X_Wifi_BLE_SDK/GD32VW55x_RELEASE_V1.0.2/MSDK/cloud/alicloud/src/infra/utils/digest\utils_sha1.c **** 
  12:C:/Users/stapi/OneDrive/Desktop/GD32VW553/V1_MQTT_OK/GD32VW55X_Wifi_BLE_SDK/GD32VW55x_RELEASE_V1.0.2/MSDK/cloud/alicloud/src/infra/utils/digest\utils_sha1.c **** #ifndef BUILD_AOS
  13:C:/Users/stapi/OneDrive/Desktop/GD32VW553/V1_MQTT_OK/GD32VW55X_Wifi_BLE_SDK/GD32VW55x_RELEASE_V1.0.2/MSDK/cloud/alicloud/src/infra/utils/digest\utils_sha1.c **** 
  14:C:/Users/stapi/OneDrive/Desktop/GD32VW553/V1_MQTT_OK/GD32VW55X_Wifi_BLE_SDK/GD32VW55x_RELEASE_V1.0.2/MSDK/cloud/alicloud/src/infra/utils/digest\utils_sha1.c **** /* Implementation that should never be optimized out by the compiler */
  15:C:/Users/stapi/OneDrive/Desktop/GD32VW553/V1_MQTT_OK/GD32VW55X_Wifi_BLE_SDK/GD32VW55x_RELEASE_V1.0.2/MSDK/cloud/alicloud/src/infra/utils/digest\utils_sha1.c **** static void utils_sha1_zeroize(void *v, size_t n)
  16:C:/Users/stapi/OneDrive/Desktop/GD32VW553/V1_MQTT_OK/GD32VW55X_Wifi_BLE_SDK/GD32VW55x_RELEASE_V1.0.2/MSDK/cloud/alicloud/src/infra/utils/digest\utils_sha1.c **** {
  17:C:/Users/stapi/OneDrive/Desktop/GD32VW553/V1_MQTT_OK/GD32VW55X_Wifi_BLE_SDK/GD32VW55x_RELEASE_V1.0.2/MSDK/cloud/alicloud/src/infra/utils/digest\utils_sha1.c ****     volatile unsigned char *p = v;
  18:C:/Users/stapi/OneDrive/Desktop/GD32VW553/V1_MQTT_OK/GD32VW55X_Wifi_BLE_SDK/GD32VW55x_RELEASE_V1.0.2/MSDK/cloud/alicloud/src/infra/utils/digest\utils_sha1.c ****     while (n--) {
  19:C:/Users/stapi/OneDrive/Desktop/GD32VW553/V1_MQTT_OK/GD32VW55X_Wifi_BLE_SDK/GD32VW55x_RELEASE_V1.0.2/MSDK/cloud/alicloud/src/infra/utils/digest\utils_sha1.c ****         *p++ = 0;
  20:C:/Users/stapi/OneDrive/Desktop/GD32VW553/V1_MQTT_OK/GD32VW55X_Wifi_BLE_SDK/GD32VW55x_RELEASE_V1.0.2/MSDK/cloud/alicloud/src/infra/utils/digest\utils_sha1.c ****     }
  21:C:/Users/stapi/OneDrive/Desktop/GD32VW553/V1_MQTT_OK/GD32VW55X_Wifi_BLE_SDK/GD32VW55x_RELEASE_V1.0.2/MSDK/cloud/alicloud/src/infra/utils/digest\utils_sha1.c **** }
  22:C:/Users/stapi/OneDrive/Desktop/GD32VW553/V1_MQTT_OK/GD32VW55X_Wifi_BLE_SDK/GD32VW55x_RELEASE_V1.0.2/MSDK/cloud/alicloud/src/infra/utils/digest\utils_sha1.c **** 
  23:C:/Users/stapi/OneDrive/Desktop/GD32VW553/V1_MQTT_OK/GD32VW55X_Wifi_BLE_SDK/GD32VW55x_RELEASE_V1.0.2/MSDK/cloud/alicloud/src/infra/utils/digest\utils_sha1.c **** /*
  24:C:/Users/stapi/OneDrive/Desktop/GD32VW553/V1_MQTT_OK/GD32VW55X_Wifi_BLE_SDK/GD32VW55x_RELEASE_V1.0.2/MSDK/cloud/alicloud/src/infra/utils/digest\utils_sha1.c ****  * 32-bit integer manipulation macros (big endian)
  25:C:/Users/stapi/OneDrive/Desktop/GD32VW553/V1_MQTT_OK/GD32VW55X_Wifi_BLE_SDK/GD32VW55x_RELEASE_V1.0.2/MSDK/cloud/alicloud/src/infra/utils/digest\utils_sha1.c ****  */
  26:C:/Users/stapi/OneDrive/Desktop/GD32VW553/V1_MQTT_OK/GD32VW55X_Wifi_BLE_SDK/GD32VW55x_RELEASE_V1.0.2/MSDK/cloud/alicloud/src/infra/utils/digest\utils_sha1.c **** #ifndef IOT_SHA1_GET_UINT32_BE
  27:C:/Users/stapi/OneDrive/Desktop/GD32VW553/V1_MQTT_OK/GD32VW55X_Wifi_BLE_SDK/GD32VW55x_RELEASE_V1.0.2/MSDK/cloud/alicloud/src/infra/utils/digest\utils_sha1.c **** #define IOT_SHA1_GET_UINT32_BE(n,b,i)                            \
  28:C:/Users/stapi/OneDrive/Desktop/GD32VW553/V1_MQTT_OK/GD32VW55X_Wifi_BLE_SDK/GD32VW55x_RELEASE_V1.0.2/MSDK/cloud/alicloud/src/infra/utils/digest\utils_sha1.c ****     {                                                       \
  29:C:/Users/stapi/OneDrive/Desktop/GD32VW553/V1_MQTT_OK/GD32VW55X_Wifi_BLE_SDK/GD32VW55x_RELEASE_V1.0.2/MSDK/cloud/alicloud/src/infra/utils/digest\utils_sha1.c ****         (n) = ( (uint32_t) (b)[(i)    ] << 24 )             \
  30:C:/Users/stapi/OneDrive/Desktop/GD32VW553/V1_MQTT_OK/GD32VW55X_Wifi_BLE_SDK/GD32VW55x_RELEASE_V1.0.2/MSDK/cloud/alicloud/src/infra/utils/digest\utils_sha1.c ****               | ( (uint32_t) (b)[(i) + 1] << 16 )             \
  31:C:/Users/stapi/OneDrive/Desktop/GD32VW553/V1_MQTT_OK/GD32VW55X_Wifi_BLE_SDK/GD32VW55x_RELEASE_V1.0.2/MSDK/cloud/alicloud/src/infra/utils/digest\utils_sha1.c ****               | ( (uint32_t) (b)[(i) + 2] <<  8 )             \
  32:C:/Users/stapi/OneDrive/Desktop/GD32VW553/V1_MQTT_OK/GD32VW55X_Wifi_BLE_SDK/GD32VW55x_RELEASE_V1.0.2/MSDK/cloud/alicloud/src/infra/utils/digest\utils_sha1.c ****               | ( (uint32_t) (b)[(i) + 3]       );            \
  33:C:/Users/stapi/OneDrive/Desktop/GD32VW553/V1_MQTT_OK/GD32VW55X_Wifi_BLE_SDK/GD32VW55x_RELEASE_V1.0.2/MSDK/cloud/alicloud/src/infra/utils/digest\utils_sha1.c ****     }
  34:C:/Users/stapi/OneDrive/Desktop/GD32VW553/V1_MQTT_OK/GD32VW55X_Wifi_BLE_SDK/GD32VW55x_RELEASE_V1.0.2/MSDK/cloud/alicloud/src/infra/utils/digest\utils_sha1.c **** #endif
  35:C:/Users/stapi/OneDrive/Desktop/GD32VW553/V1_MQTT_OK/GD32VW55X_Wifi_BLE_SDK/GD32VW55x_RELEASE_V1.0.2/MSDK/cloud/alicloud/src/infra/utils/digest\utils_sha1.c **** 
  36:C:/Users/stapi/OneDrive/Desktop/GD32VW553/V1_MQTT_OK/GD32VW55X_Wifi_BLE_SDK/GD32VW55x_RELEASE_V1.0.2/MSDK/cloud/alicloud/src/infra/utils/digest\utils_sha1.c **** #ifndef IOT_SHA1_PUT_UINT32_BE
  37:C:/Users/stapi/OneDrive/Desktop/GD32VW553/V1_MQTT_OK/GD32VW55X_Wifi_BLE_SDK/GD32VW55x_RELEASE_V1.0.2/MSDK/cloud/alicloud/src/infra/utils/digest\utils_sha1.c **** #define IOT_SHA1_PUT_UINT32_BE(n,b,i)                            \
  38:C:/Users/stapi/OneDrive/Desktop/GD32VW553/V1_MQTT_OK/GD32VW55X_Wifi_BLE_SDK/GD32VW55x_RELEASE_V1.0.2/MSDK/cloud/alicloud/src/infra/utils/digest\utils_sha1.c ****     {                                                       \
  39:C:/Users/stapi/OneDrive/Desktop/GD32VW553/V1_MQTT_OK/GD32VW55X_Wifi_BLE_SDK/GD32VW55x_RELEASE_V1.0.2/MSDK/cloud/alicloud/src/infra/utils/digest\utils_sha1.c ****         (b)[(i)    ] = (unsigned char) ( (n) >> 24 );       \
  40:C:/Users/stapi/OneDrive/Desktop/GD32VW553/V1_MQTT_OK/GD32VW55X_Wifi_BLE_SDK/GD32VW55x_RELEASE_V1.0.2/MSDK/cloud/alicloud/src/infra/utils/digest\utils_sha1.c ****         (b)[(i) + 1] = (unsigned char) ( (n) >> 16 );       \
  41:C:/Users/stapi/OneDrive/Desktop/GD32VW553/V1_MQTT_OK/GD32VW55X_Wifi_BLE_SDK/GD32VW55x_RELEASE_V1.0.2/MSDK/cloud/alicloud/src/infra/utils/digest\utils_sha1.c ****         (b)[(i) + 2] = (unsigned char) ( (n) >>  8 );       \
  42:C:/Users/stapi/OneDrive/Desktop/GD32VW553/V1_MQTT_OK/GD32VW55X_Wifi_BLE_SDK/GD32VW55x_RELEASE_V1.0.2/MSDK/cloud/alicloud/src/infra/utils/digest\utils_sha1.c ****         (b)[(i) + 3] = (unsigned char) ( (n)       );       \
  43:C:/Users/stapi/OneDrive/Desktop/GD32VW553/V1_MQTT_OK/GD32VW55X_Wifi_BLE_SDK/GD32VW55x_RELEASE_V1.0.2/MSDK/cloud/alicloud/src/infra/utils/digest\utils_sha1.c ****     }
  44:C:/Users/stapi/OneDrive/Desktop/GD32VW553/V1_MQTT_OK/GD32VW55X_Wifi_BLE_SDK/GD32VW55x_RELEASE_V1.0.2/MSDK/cloud/alicloud/src/infra/utils/digest\utils_sha1.c **** #endif
  45:C:/Users/stapi/OneDrive/Desktop/GD32VW553/V1_MQTT_OK/GD32VW55X_Wifi_BLE_SDK/GD32VW55x_RELEASE_V1.0.2/MSDK/cloud/alicloud/src/infra/utils/digest\utils_sha1.c **** 
  46:C:/Users/stapi/OneDrive/Desktop/GD32VW553/V1_MQTT_OK/GD32VW55X_Wifi_BLE_SDK/GD32VW55x_RELEASE_V1.0.2/MSDK/cloud/alicloud/src/infra/utils/digest\utils_sha1.c **** void utils_sha1_init(iot_sha1_context *ctx)
  47:C:/Users/stapi/OneDrive/Desktop/GD32VW553/V1_MQTT_OK/GD32VW55X_Wifi_BLE_SDK/GD32VW55x_RELEASE_V1.0.2/MSDK/cloud/alicloud/src/infra/utils/digest\utils_sha1.c **** {
  16              		.loc 1 47 1
  17              		.cfi_startproc
  18              	.LVL0:
  48:C:/Users/stapi/OneDrive/Desktop/GD32VW553/V1_MQTT_OK/GD32VW55X_Wifi_BLE_SDK/GD32VW55x_RELEASE_V1.0.2/MSDK/cloud/alicloud/src/infra/utils/digest\utils_sha1.c ****     memset(ctx, 0, sizeof(iot_sha1_context));
  19              		.loc 1 48 5
  20 0000 1306C005 		li	a2,92
  21 0004 8145     		li	a1,0
  22 0006 17030000 		tail	memset
  22      67000300 
  23              	.LVL1:
  24              		.cfi_endproc
  25              	.LFE5:
  27              		.section	.text.utils_sha1_free,"ax",@progbits
  28              		.align	1
  29              		.globl	utils_sha1_free
  31              	utils_sha1_free:
  32              	.LFB6:
  49:C:/Users/stapi/OneDrive/Desktop/GD32VW553/V1_MQTT_OK/GD32VW55X_Wifi_BLE_SDK/GD32VW55x_RELEASE_V1.0.2/MSDK/cloud/alicloud/src/infra/utils/digest\utils_sha1.c **** }
  50:C:/Users/stapi/OneDrive/Desktop/GD32VW553/V1_MQTT_OK/GD32VW55X_Wifi_BLE_SDK/GD32VW55x_RELEASE_V1.0.2/MSDK/cloud/alicloud/src/infra/utils/digest\utils_sha1.c **** 
  51:C:/Users/stapi/OneDrive/Desktop/GD32VW553/V1_MQTT_OK/GD32VW55X_Wifi_BLE_SDK/GD32VW55x_RELEASE_V1.0.2/MSDK/cloud/alicloud/src/infra/utils/digest\utils_sha1.c **** void utils_sha1_free(iot_sha1_context *ctx)
  52:C:/Users/stapi/OneDrive/Desktop/GD32VW553/V1_MQTT_OK/GD32VW55X_Wifi_BLE_SDK/GD32VW55x_RELEASE_V1.0.2/MSDK/cloud/alicloud/src/infra/utils/digest\utils_sha1.c **** {
  33              		.loc 1 52 1
  34              		.cfi_startproc
  35              	.LVL2:
  53:C:/Users/stapi/OneDrive/Desktop/GD32VW553/V1_MQTT_OK/GD32VW55X_Wifi_BLE_SDK/GD32VW55x_RELEASE_V1.0.2/MSDK/cloud/alicloud/src/infra/utils/digest\utils_sha1.c ****     if (ctx == NULL) {
  36              		.loc 1 53 5
  37 0000 9307C505 		addi	a5,a0,92
  38              		.loc 1 53 8 is_stmt 0
  39 0004 09E5     		bne	a0,zero,.L5
  40              	.LVL3:
  41              	.L3:
  54:C:/Users/stapi/OneDrive/Desktop/GD32VW553/V1_MQTT_OK/GD32VW55X_Wifi_BLE_SDK/GD32VW55x_RELEASE_V1.0.2/MSDK/cloud/alicloud/src/infra/utils/digest\utils_sha1.c ****         return;
  55:C:/Users/stapi/OneDrive/Desktop/GD32VW553/V1_MQTT_OK/GD32VW55X_Wifi_BLE_SDK/GD32VW55x_RELEASE_V1.0.2/MSDK/cloud/alicloud/src/infra/utils/digest\utils_sha1.c ****     }
  56:C:/Users/stapi/OneDrive/Desktop/GD32VW553/V1_MQTT_OK/GD32VW55X_Wifi_BLE_SDK/GD32VW55x_RELEASE_V1.0.2/MSDK/cloud/alicloud/src/infra/utils/digest\utils_sha1.c **** 
  57:C:/Users/stapi/OneDrive/Desktop/GD32VW553/V1_MQTT_OK/GD32VW55X_Wifi_BLE_SDK/GD32VW55x_RELEASE_V1.0.2/MSDK/cloud/alicloud/src/infra/utils/digest\utils_sha1.c ****     utils_sha1_zeroize(ctx, sizeof(iot_sha1_context));
  58:C:/Users/stapi/OneDrive/Desktop/GD32VW553/V1_MQTT_OK/GD32VW55X_Wifi_BLE_SDK/GD32VW55x_RELEASE_V1.0.2/MSDK/cloud/alicloud/src/infra/utils/digest\utils_sha1.c **** }
  42              		.loc 1 58 1
  43 0006 8280     		ret
  44              	.LVL4:
  45              	.L6:
  46              	.LBB6:
  47              	.LBB7:
  19:C:/Users/stapi/OneDrive/Desktop/GD32VW553/V1_MQTT_OK/GD32VW55X_Wifi_BLE_SDK/GD32VW55x_RELEASE_V1.0.2/MSDK/cloud/alicloud/src/infra/utils/digest\utils_sha1.c ****     }
  48              		.loc 1 19 9 is_stmt 1
  19:C:/Users/stapi/OneDrive/Desktop/GD32VW553/V1_MQTT_OK/GD32VW55X_Wifi_BLE_SDK/GD32VW55x_RELEASE_V1.0.2/MSDK/cloud/alicloud/src/infra/utils/digest\utils_sha1.c ****     }
  49              		.loc 1 19 14 is_stmt 0
  50 0008 23000500 		sb	zero,0(a0)
  19:C:/Users/stapi/OneDrive/Desktop/GD32VW553/V1_MQTT_OK/GD32VW55X_Wifi_BLE_SDK/GD32VW55x_RELEASE_V1.0.2/MSDK/cloud/alicloud/src/infra/utils/digest\utils_sha1.c ****     }
  51              		.loc 1 19 11
  52 000c 0505     		addi	a0,a0,1
  53              	.LVL5:
  54              	.L5:
  18:C:/Users/stapi/OneDrive/Desktop/GD32VW553/V1_MQTT_OK/GD32VW55X_Wifi_BLE_SDK/GD32VW55x_RELEASE_V1.0.2/MSDK/cloud/alicloud/src/infra/utils/digest\utils_sha1.c ****         *p++ = 0;
  55              		.loc 1 18 11 is_stmt 1
  56 000e E31DF5FE 		bne	a0,a5,.L6
  57 0012 D5BF     		j	.L3
  58              	.LBE7:
  59              	.LBE6:
  60              		.cfi_endproc
  61              	.LFE6:
  63              		.section	.text.utils_sha1_clone,"ax",@progbits
  64              		.align	1
  65              		.globl	utils_sha1_clone
  67              	utils_sha1_clone:
  68              	.LFB7:
  59:C:/Users/stapi/OneDrive/Desktop/GD32VW553/V1_MQTT_OK/GD32VW55X_Wifi_BLE_SDK/GD32VW55x_RELEASE_V1.0.2/MSDK/cloud/alicloud/src/infra/utils/digest\utils_sha1.c **** 
  60:C:/Users/stapi/OneDrive/Desktop/GD32VW553/V1_MQTT_OK/GD32VW55X_Wifi_BLE_SDK/GD32VW55x_RELEASE_V1.0.2/MSDK/cloud/alicloud/src/infra/utils/digest\utils_sha1.c **** void utils_sha1_clone(iot_sha1_context *dst,
  61:C:/Users/stapi/OneDrive/Desktop/GD32VW553/V1_MQTT_OK/GD32VW55X_Wifi_BLE_SDK/GD32VW55x_RELEASE_V1.0.2/MSDK/cloud/alicloud/src/infra/utils/digest\utils_sha1.c ****                       const iot_sha1_context *src)
  62:C:/Users/stapi/OneDrive/Desktop/GD32VW553/V1_MQTT_OK/GD32VW55X_Wifi_BLE_SDK/GD32VW55x_RELEASE_V1.0.2/MSDK/cloud/alicloud/src/infra/utils/digest\utils_sha1.c **** {
  69              		.loc 1 62 1
  70              		.cfi_startproc
  71              	.LVL6:
  63:C:/Users/stapi/OneDrive/Desktop/GD32VW553/V1_MQTT_OK/GD32VW55X_Wifi_BLE_SDK/GD32VW55x_RELEASE_V1.0.2/MSDK/cloud/alicloud/src/infra/utils/digest\utils_sha1.c ****     *dst = *src;
  72              		.loc 1 63 5
  73              		.loc 1 63 10 is_stmt 0
  74 0000 1306C005 		li	a2,92
  75 0004 17030000 		tail	memcpy
  75      67000300 
  76              	.LVL7:
  77              		.cfi_endproc
  78              	.LFE7:
  80              		.section	.text.utils_sha1_starts,"ax",@progbits
  81              		.align	1
  82              		.globl	utils_sha1_starts
  84              	utils_sha1_starts:
  85              	.LFB8:
  64:C:/Users/stapi/OneDrive/Desktop/GD32VW553/V1_MQTT_OK/GD32VW55X_Wifi_BLE_SDK/GD32VW55x_RELEASE_V1.0.2/MSDK/cloud/alicloud/src/infra/utils/digest\utils_sha1.c **** }
  65:C:/Users/stapi/OneDrive/Desktop/GD32VW553/V1_MQTT_OK/GD32VW55X_Wifi_BLE_SDK/GD32VW55x_RELEASE_V1.0.2/MSDK/cloud/alicloud/src/infra/utils/digest\utils_sha1.c **** 
  66:C:/Users/stapi/OneDrive/Desktop/GD32VW553/V1_MQTT_OK/GD32VW55X_Wifi_BLE_SDK/GD32VW55x_RELEASE_V1.0.2/MSDK/cloud/alicloud/src/infra/utils/digest\utils_sha1.c **** /*
  67:C:/Users/stapi/OneDrive/Desktop/GD32VW553/V1_MQTT_OK/GD32VW55X_Wifi_BLE_SDK/GD32VW55x_RELEASE_V1.0.2/MSDK/cloud/alicloud/src/infra/utils/digest\utils_sha1.c ****  * SHA-1 context setup
  68:C:/Users/stapi/OneDrive/Desktop/GD32VW553/V1_MQTT_OK/GD32VW55X_Wifi_BLE_SDK/GD32VW55x_RELEASE_V1.0.2/MSDK/cloud/alicloud/src/infra/utils/digest\utils_sha1.c ****  */
  69:C:/Users/stapi/OneDrive/Desktop/GD32VW553/V1_MQTT_OK/GD32VW55X_Wifi_BLE_SDK/GD32VW55x_RELEASE_V1.0.2/MSDK/cloud/alicloud/src/infra/utils/digest\utils_sha1.c **** void utils_sha1_starts(iot_sha1_context *ctx)
  70:C:/Users/stapi/OneDrive/Desktop/GD32VW553/V1_MQTT_OK/GD32VW55X_Wifi_BLE_SDK/GD32VW55x_RELEASE_V1.0.2/MSDK/cloud/alicloud/src/infra/utils/digest\utils_sha1.c **** {
  86              		.loc 1 70 1 is_stmt 1
  87              		.cfi_startproc
  88              	.LVL8:
  71:C:/Users/stapi/OneDrive/Desktop/GD32VW553/V1_MQTT_OK/GD32VW55X_Wifi_BLE_SDK/GD32VW55x_RELEASE_V1.0.2/MSDK/cloud/alicloud/src/infra/utils/digest\utils_sha1.c ****     ctx->total[0] = 0;
  89              		.loc 1 71 5
  72:C:/Users/stapi/OneDrive/Desktop/GD32VW553/V1_MQTT_OK/GD32VW55X_Wifi_BLE_SDK/GD32VW55x_RELEASE_V1.0.2/MSDK/cloud/alicloud/src/infra/utils/digest\utils_sha1.c ****     ctx->total[1] = 0;
  73:C:/Users/stapi/OneDrive/Desktop/GD32VW553/V1_MQTT_OK/GD32VW55X_Wifi_BLE_SDK/GD32VW55x_RELEASE_V1.0.2/MSDK/cloud/alicloud/src/infra/utils/digest\utils_sha1.c **** 
  74:C:/Users/stapi/OneDrive/Desktop/GD32VW553/V1_MQTT_OK/GD32VW55X_Wifi_BLE_SDK/GD32VW55x_RELEASE_V1.0.2/MSDK/cloud/alicloud/src/infra/utils/digest\utils_sha1.c ****     ctx->state[0] = 0x67452301;
  90              		.loc 1 74 19 is_stmt 0
  91 0000 B7274567 		li	a5,1732583424
  92 0004 93871730 		addi	a5,a5,769
  93 0008 1CC5     		sw	a5,8(a0)
  75:C:/Users/stapi/OneDrive/Desktop/GD32VW553/V1_MQTT_OK/GD32VW55X_Wifi_BLE_SDK/GD32VW55x_RELEASE_V1.0.2/MSDK/cloud/alicloud/src/infra/utils/digest\utils_sha1.c ****     ctx->state[1] = 0xEFCDAB89;
  94              		.loc 1 75 19
  95 000a B7B7CDEF 		li	a5,-271732736
  96 000e 938797B8 		addi	a5,a5,-1143
  97 0012 5CC5     		sw	a5,12(a0)
  76:C:/Users/stapi/OneDrive/Desktop/GD32VW553/V1_MQTT_OK/GD32VW55X_Wifi_BLE_SDK/GD32VW55x_RELEASE_V1.0.2/MSDK/cloud/alicloud/src/infra/utils/digest\utils_sha1.c ****     ctx->state[2] = 0x98BADCFE;
  98              		.loc 1 76 19
  99 0014 B7E7BA98 		li	a5,-1732583424
 100 0018 9387E7CF 		addi	a5,a5,-770
 101 001c 1CC9     		sw	a5,16(a0)
  77:C:/Users/stapi/OneDrive/Desktop/GD32VW553/V1_MQTT_OK/GD32VW55X_Wifi_BLE_SDK/GD32VW55x_RELEASE_V1.0.2/MSDK/cloud/alicloud/src/infra/utils/digest\utils_sha1.c ****     ctx->state[3] = 0x10325476;
 102              		.loc 1 77 19
 103 001e B7573210 		li	a5,271732736
 104 0022 93876747 		addi	a5,a5,1142
 105 0026 5CC9     		sw	a5,20(a0)
  78:C:/Users/stapi/OneDrive/Desktop/GD32VW553/V1_MQTT_OK/GD32VW55X_Wifi_BLE_SDK/GD32VW55x_RELEASE_V1.0.2/MSDK/cloud/alicloud/src/infra/utils/digest\utils_sha1.c ****     ctx->state[4] = 0xC3D2E1F0;
 106              		.loc 1 78 19
 107 0028 B7E7D2C3 		li	a5,-1009590272
 108 002c 9387071F 		addi	a5,a5,496
  71:C:/Users/stapi/OneDrive/Desktop/GD32VW553/V1_MQTT_OK/GD32VW55X_Wifi_BLE_SDK/GD32VW55x_RELEASE_V1.0.2/MSDK/cloud/alicloud/src/infra/utils/digest\utils_sha1.c ****     ctx->total[1] = 0;
 109              		.loc 1 71 19
 110 0030 23200500 		sw	zero,0(a0)
  72:C:/Users/stapi/OneDrive/Desktop/GD32VW553/V1_MQTT_OK/GD32VW55X_Wifi_BLE_SDK/GD32VW55x_RELEASE_V1.0.2/MSDK/cloud/alicloud/src/infra/utils/digest\utils_sha1.c **** 
 111              		.loc 1 72 5 is_stmt 1
  72:C:/Users/stapi/OneDrive/Desktop/GD32VW553/V1_MQTT_OK/GD32VW55X_Wifi_BLE_SDK/GD32VW55x_RELEASE_V1.0.2/MSDK/cloud/alicloud/src/infra/utils/digest\utils_sha1.c **** 
 112              		.loc 1 72 19 is_stmt 0
 113 0034 23220500 		sw	zero,4(a0)
  74:C:/Users/stapi/OneDrive/Desktop/GD32VW553/V1_MQTT_OK/GD32VW55X_Wifi_BLE_SDK/GD32VW55x_RELEASE_V1.0.2/MSDK/cloud/alicloud/src/infra/utils/digest\utils_sha1.c ****     ctx->state[1] = 0xEFCDAB89;
 114              		.loc 1 74 5 is_stmt 1
  75:C:/Users/stapi/OneDrive/Desktop/GD32VW553/V1_MQTT_OK/GD32VW55X_Wifi_BLE_SDK/GD32VW55x_RELEASE_V1.0.2/MSDK/cloud/alicloud/src/infra/utils/digest\utils_sha1.c ****     ctx->state[2] = 0x98BADCFE;
 115              		.loc 1 75 5
  76:C:/Users/stapi/OneDrive/Desktop/GD32VW553/V1_MQTT_OK/GD32VW55X_Wifi_BLE_SDK/GD32VW55x_RELEASE_V1.0.2/MSDK/cloud/alicloud/src/infra/utils/digest\utils_sha1.c ****     ctx->state[3] = 0x10325476;
 116              		.loc 1 76 5
  77:C:/Users/stapi/OneDrive/Desktop/GD32VW553/V1_MQTT_OK/GD32VW55X_Wifi_BLE_SDK/GD32VW55x_RELEASE_V1.0.2/MSDK/cloud/alicloud/src/infra/utils/digest\utils_sha1.c ****     ctx->state[4] = 0xC3D2E1F0;
 117              		.loc 1 77 5
 118              		.loc 1 78 5
 119              		.loc 1 78 19 is_stmt 0
 120 0038 1CCD     		sw	a5,24(a0)
  79:C:/Users/stapi/OneDrive/Desktop/GD32VW553/V1_MQTT_OK/GD32VW55X_Wifi_BLE_SDK/GD32VW55x_RELEASE_V1.0.2/MSDK/cloud/alicloud/src/infra/utils/digest\utils_sha1.c **** }
 121              		.loc 1 79 1
 122 003a 8280     		ret
 123              		.cfi_endproc
 124              	.LFE8:
 126              		.section	.text.utils_sha1_process,"ax",@progbits
 127              		.align	1
 128              		.globl	utils_sha1_process
 130              	utils_sha1_process:
 131              	.LFB9:
  80:C:/Users/stapi/OneDrive/Desktop/GD32VW553/V1_MQTT_OK/GD32VW55X_Wifi_BLE_SDK/GD32VW55x_RELEASE_V1.0.2/MSDK/cloud/alicloud/src/infra/utils/digest\utils_sha1.c **** 
  81:C:/Users/stapi/OneDrive/Desktop/GD32VW553/V1_MQTT_OK/GD32VW55X_Wifi_BLE_SDK/GD32VW55x_RELEASE_V1.0.2/MSDK/cloud/alicloud/src/infra/utils/digest\utils_sha1.c **** void utils_sha1_process(iot_sha1_context *ctx, const unsigned char data[64])
  82:C:/Users/stapi/OneDrive/Desktop/GD32VW553/V1_MQTT_OK/GD32VW55X_Wifi_BLE_SDK/GD32VW55x_RELEASE_V1.0.2/MSDK/cloud/alicloud/src/infra/utils/digest\utils_sha1.c **** {
 132              		.loc 1 82 1 is_stmt 1
 133              		.cfi_startproc
 134              	.LVL9:
  83:C:/Users/stapi/OneDrive/Desktop/GD32VW553/V1_MQTT_OK/GD32VW55X_Wifi_BLE_SDK/GD32VW55x_RELEASE_V1.0.2/MSDK/cloud/alicloud/src/infra/utils/digest\utils_sha1.c ****     uint32_t temp, W[16], A, B, C, D, E;
 135              		.loc 1 83 5
  84:C:/Users/stapi/OneDrive/Desktop/GD32VW553/V1_MQTT_OK/GD32VW55X_Wifi_BLE_SDK/GD32VW55x_RELEASE_V1.0.2/MSDK/cloud/alicloud/src/infra/utils/digest\utils_sha1.c **** 
  85:C:/Users/stapi/OneDrive/Desktop/GD32VW553/V1_MQTT_OK/GD32VW55X_Wifi_BLE_SDK/GD32VW55x_RELEASE_V1.0.2/MSDK/cloud/alicloud/src/infra/utils/digest\utils_sha1.c ****     IOT_SHA1_GET_UINT32_BE(W[ 0], data,  0);
 136              		.loc 1 85 5
  82:C:/Users/stapi/OneDrive/Desktop/GD32VW553/V1_MQTT_OK/GD32VW55X_Wifi_BLE_SDK/GD32VW55x_RELEASE_V1.0.2/MSDK/cloud/alicloud/src/infra/utils/digest\utils_sha1.c ****     uint32_t temp, W[16], A, B, C, D, E;
 137              		.loc 1 82 1 is_stmt 0
 138 0000 3971     		addi	sp,sp,-64
 139              		.cfi_def_cfa_offset 64
 140 0002 22DE     		sw	s0,60(sp)
 141 0004 4ED8     		sw	s3,48(sp)
 142 0006 52D6     		sw	s4,44(sp)
 143 0008 56D4     		sw	s5,40(sp)
 144 000a 5AD2     		sw	s6,36(sp)
 145 000c 5ED0     		sw	s7,32(sp)
 146 000e 62CE     		sw	s8,28(sp)
 147 0010 66CC     		sw	s9,24(sp)
 148 0012 6ACA     		sw	s10,20(sp)
 149 0014 6EC8     		sw	s11,16(sp)
 150 0016 26DC     		sw	s1,56(sp)
 151 0018 4ADA     		sw	s2,52(sp)
 152              		.cfi_offset 8, -4
 153              		.cfi_offset 19, -16
 154              		.cfi_offset 20, -20
 155              		.cfi_offset 21, -24
 156              		.cfi_offset 22, -28
 157              		.cfi_offset 23, -32
 158              		.cfi_offset 24, -36
 159              		.cfi_offset 25, -40
 160              		.cfi_offset 26, -44
 161              		.cfi_offset 27, -48
 162              		.cfi_offset 9, -8
 163              		.cfi_offset 18, -12
 164 001a 83C71500 		lbu	a5,1(a1)
 165 001e 83CE0500 		lbu	t4,0(a1)
 166 0022 83C84500 		lbu	a7,4(a1)
 167 0026 A207     		slli	a5,a5,8
 168 0028 B3E7D701 		or	a5,a5,t4
 169 002c 83CE2500 		lbu	t4,2(a1)
 170 0030 03C98500 		lbu	s2,8(a1)
 171 0034 83C4C500 		lbu	s1,12(a1)
 172 0038 C20E     		slli	t4,t4,16
 173 003a B3E7FE00 		or	a5,t4,a5
 174 003e 83CE3500 		lbu	t4,3(a1)
 175 0042 83C30501 		lbu	t2,16(a1)
 176 0046 E20E     		slli	t4,t4,24
 177 0048 B3EEFE00 		or	t4,t4,a5
 178 004c 83C75500 		lbu	a5,5(a1)
 179 0050 93DE8E69 		rev8	t4,t4
 180              	.LVL10:
 181              		.loc 1 85 44 is_stmt 1
  86:C:/Users/stapi/OneDrive/Desktop/GD32VW553/V1_MQTT_OK/GD32VW55X_Wifi_BLE_SDK/GD32VW55x_RELEASE_V1.0.2/MSDK/cloud/alicloud/src/infra/utils/digest\utils_sha1.c ****     IOT_SHA1_GET_UINT32_BE(W[ 1], data,  4);
 182              		.loc 1 86 5
 183 0054 A207     		slli	a5,a5,8
 184 0056 B3E71701 		or	a5,a5,a7
 185 005a 83C86500 		lbu	a7,6(a1)
 186 005e C208     		slli	a7,a7,16
 187 0060 B3E7F800 		or	a5,a7,a5
 188 0064 83C87500 		lbu	a7,7(a1)
 189 0068 E208     		slli	a7,a7,24
 190 006a B3E8F800 		or	a7,a7,a5
 191 006e 83C79500 		lbu	a5,9(a1)
 192 0072 93D88869 		rev8	a7,a7
 193              	.LVL11:
 194              		.loc 1 86 44
  87:C:/Users/stapi/OneDrive/Desktop/GD32VW553/V1_MQTT_OK/GD32VW55X_Wifi_BLE_SDK/GD32VW55x_RELEASE_V1.0.2/MSDK/cloud/alicloud/src/infra/utils/digest\utils_sha1.c ****     IOT_SHA1_GET_UINT32_BE(W[ 2], data,  8);
 195              		.loc 1 87 5
 196 0076 A207     		slli	a5,a5,8
 197 0078 B3E72701 		or	a5,a5,s2
 198 007c 03C9A500 		lbu	s2,10(a1)
 199 0080 4209     		slli	s2,s2,16
 200 0082 B367F900 		or	a5,s2,a5
 201 0086 03C9B500 		lbu	s2,11(a1)
 202 008a 6209     		slli	s2,s2,24
 203 008c 3369F900 		or	s2,s2,a5
 204 0090 83C7D500 		lbu	a5,13(a1)
 205 0094 13598969 		rev8	s2,s2
 206              	.LVL12:
 207              		.loc 1 87 44
  88:C:/Users/stapi/OneDrive/Desktop/GD32VW553/V1_MQTT_OK/GD32VW55X_Wifi_BLE_SDK/GD32VW55x_RELEASE_V1.0.2/MSDK/cloud/alicloud/src/infra/utils/digest\utils_sha1.c ****     IOT_SHA1_GET_UINT32_BE(W[ 3], data, 12);
 208              		.loc 1 88 5
 209 0098 A207     		slli	a5,a5,8
 210 009a C58F     		or	a5,a5,s1
 211 009c 83C4E500 		lbu	s1,14(a1)
 212 00a0 C204     		slli	s1,s1,16
 213 00a2 C58F     		or	a5,s1,a5
 214 00a4 83C4F500 		lbu	s1,15(a1)
 215 00a8 E204     		slli	s1,s1,24
 216 00aa DD8C     		or	s1,s1,a5
 217 00ac 83C71501 		lbu	a5,17(a1)
 218 00b0 93D48469 		rev8	s1,s1
 219              	.LVL13:
 220              		.loc 1 88 44
  89:C:/Users/stapi/OneDrive/Desktop/GD32VW553/V1_MQTT_OK/GD32VW55X_Wifi_BLE_SDK/GD32VW55x_RELEASE_V1.0.2/MSDK/cloud/alicloud/src/infra/utils/digest\utils_sha1.c ****     IOT_SHA1_GET_UINT32_BE(W[ 4], data, 16);
 221              		.loc 1 89 5
 222 00b4 A207     		slli	a5,a5,8
 223 00b6 B3E77700 		or	a5,a5,t2
 224 00ba 83C32501 		lbu	t2,18(a1)
 225 00be C203     		slli	t2,t2,16
 226 00c0 B3E7F300 		or	a5,t2,a5
 227 00c4 83C33501 		lbu	t2,19(a1)
 228 00c8 83CF4501 		lbu	t6,20(a1)
 229 00cc 03CE8501 		lbu	t3,24(a1)
 230 00d0 E203     		slli	t2,t2,24
 231 00d2 B3E3F300 		or	t2,t2,a5
 232 00d6 83C75501 		lbu	a5,21(a1)
 233 00da 83CBC501 		lbu	s7,28(a1)
 234 00de 03C40502 		lbu	s0,32(a1)
 235 00e2 A207     		slli	a5,a5,8
 236 00e4 B3E7F701 		or	a5,a5,t6
 237 00e8 83CF6501 		lbu	t6,22(a1)
 238 00ec 83C24502 		lbu	t0,36(a1)
 239 00f0 03CF8502 		lbu	t5,40(a1)
 240 00f4 C20F     		slli	t6,t6,16
 241 00f6 B3E7FF00 		or	a5,t6,a5
 242 00fa 83CF7501 		lbu	t6,23(a1)
 243 00fe 03C3C502 		lbu	t1,44(a1)
 244 0102 03CB0503 		lbu	s6,48(a1)
 245 0106 E20F     		slli	t6,t6,24
 246 0108 B3EFFF00 		or	t6,t6,a5
 247 010c 83C79501 		lbu	a5,25(a1)
 248 0110 93D38369 		rev8	t2,t2
 249              	.LVL14:
 250              		.loc 1 89 44
  90:C:/Users/stapi/OneDrive/Desktop/GD32VW553/V1_MQTT_OK/GD32VW55X_Wifi_BLE_SDK/GD32VW55x_RELEASE_V1.0.2/MSDK/cloud/alicloud/src/infra/utils/digest\utils_sha1.c ****     IOT_SHA1_GET_UINT32_BE(W[ 5], data, 20);
 251              		.loc 1 90 5
 252 0114 93DF8F69 		rev8	t6,t6
 253              	.LVL15:
 254              		.loc 1 90 44
  91:C:/Users/stapi/OneDrive/Desktop/GD32VW553/V1_MQTT_OK/GD32VW55X_Wifi_BLE_SDK/GD32VW55x_RELEASE_V1.0.2/MSDK/cloud/alicloud/src/infra/utils/digest\utils_sha1.c ****     IOT_SHA1_GET_UINT32_BE(W[ 6], data, 24);
 255              		.loc 1 91 5
 256 0118 A207     		slli	a5,a5,8
 257 011a B3E7C701 		or	a5,a5,t3
 258 011e 03CEA501 		lbu	t3,26(a1)
 259 0122 420E     		slli	t3,t3,16
 260 0124 B367FE00 		or	a5,t3,a5
 261 0128 03CEB501 		lbu	t3,27(a1)
 262 012c 620E     		slli	t3,t3,24
 263 012e 336EFE00 		or	t3,t3,a5
 264 0132 83C7D501 		lbu	a5,29(a1)
 265 0136 135E8E69 		rev8	t3,t3
 266              	.LVL16:
 267              		.loc 1 91 44
  92:C:/Users/stapi/OneDrive/Desktop/GD32VW553/V1_MQTT_OK/GD32VW55X_Wifi_BLE_SDK/GD32VW55x_RELEASE_V1.0.2/MSDK/cloud/alicloud/src/infra/utils/digest\utils_sha1.c ****     IOT_SHA1_GET_UINT32_BE(W[ 7], data, 28);
 268              		.loc 1 92 5
 269 013a A207     		slli	a5,a5,8
 270 013c B3E77701 		or	a5,a5,s7
 271 0140 83CBE501 		lbu	s7,30(a1)
 272 0144 C20B     		slli	s7,s7,16
 273 0146 B3E7FB00 		or	a5,s7,a5
 274 014a 83CBF501 		lbu	s7,31(a1)
 275 014e E20B     		slli	s7,s7,24
 276 0150 B3EBFB00 		or	s7,s7,a5
 277 0154 83C71502 		lbu	a5,33(a1)
 278 0158 93DB8B69 		rev8	s7,s7
 279              	.LVL17:
 280              		.loc 1 92 44
  93:C:/Users/stapi/OneDrive/Desktop/GD32VW553/V1_MQTT_OK/GD32VW55X_Wifi_BLE_SDK/GD32VW55x_RELEASE_V1.0.2/MSDK/cloud/alicloud/src/infra/utils/digest\utils_sha1.c ****     IOT_SHA1_GET_UINT32_BE(W[ 8], data, 32);
 281              		.loc 1 93 5
 282 015c A207     		slli	a5,a5,8
 283 015e C18F     		or	a5,a5,s0
 284 0160 03C42502 		lbu	s0,34(a1)
 285 0164 4204     		slli	s0,s0,16
 286 0166 C18F     		or	a5,s0,a5
 287 0168 03C43502 		lbu	s0,35(a1)
 288 016c 6204     		slli	s0,s0,24
 289 016e 5D8C     		or	s0,s0,a5
 290 0170 83C75502 		lbu	a5,37(a1)
 291 0174 13548469 		rev8	s0,s0
 292              		.loc 1 93 44
  94:C:/Users/stapi/OneDrive/Desktop/GD32VW553/V1_MQTT_OK/GD32VW55X_Wifi_BLE_SDK/GD32VW55x_RELEASE_V1.0.2/MSDK/cloud/alicloud/src/infra/utils/digest\utils_sha1.c ****     IOT_SHA1_GET_UINT32_BE(W[ 9], data, 36);
 293              		.loc 1 94 5
 294 0178 A207     		slli	a5,a5,8
 295 017a B3E75700 		or	a5,a5,t0
 296 017e 83C26502 		lbu	t0,38(a1)
 297 0182 C202     		slli	t0,t0,16
 298 0184 B3E7F200 		or	a5,t0,a5
 299 0188 83C27502 		lbu	t0,39(a1)
 300 018c E202     		slli	t0,t0,24
 301 018e B3E2F200 		or	t0,t0,a5
 302 0192 83C79502 		lbu	a5,41(a1)
 303 0196 93D28269 		rev8	t0,t0
 304              		.loc 1 94 44
  95:C:/Users/stapi/OneDrive/Desktop/GD32VW553/V1_MQTT_OK/GD32VW55X_Wifi_BLE_SDK/GD32VW55x_RELEASE_V1.0.2/MSDK/cloud/alicloud/src/infra/utils/digest\utils_sha1.c ****     IOT_SHA1_GET_UINT32_BE(W[10], data, 40);
 305              		.loc 1 95 5
 306 019a A207     		slli	a5,a5,8
 307 019c B3E7E701 		or	a5,a5,t5
 308 01a0 03CFA502 		lbu	t5,42(a1)
 309 01a4 420F     		slli	t5,t5,16
 310 01a6 B367FF00 		or	a5,t5,a5
 311 01aa 03CFB502 		lbu	t5,43(a1)
 312 01ae 620F     		slli	t5,t5,24
 313 01b0 336FFF00 		or	t5,t5,a5
 314 01b4 83C7D502 		lbu	a5,45(a1)
 315 01b8 135F8F69 		rev8	t5,t5
 316              		.loc 1 95 44
  96:C:/Users/stapi/OneDrive/Desktop/GD32VW553/V1_MQTT_OK/GD32VW55X_Wifi_BLE_SDK/GD32VW55x_RELEASE_V1.0.2/MSDK/cloud/alicloud/src/infra/utils/digest\utils_sha1.c ****     IOT_SHA1_GET_UINT32_BE(W[11], data, 44);
 317              		.loc 1 96 5
 318 01bc A207     		slli	a5,a5,8
 319 01be B3E76700 		or	a5,a5,t1
 320 01c2 03C3E502 		lbu	t1,46(a1)
 321 01c6 4203     		slli	t1,t1,16
 322 01c8 B367F300 		or	a5,t1,a5
 323 01cc 03C3F502 		lbu	t1,47(a1)
 324 01d0 6203     		slli	t1,t1,24
 325 01d2 3363F300 		or	t1,t1,a5
 326 01d6 83C71503 		lbu	a5,49(a1)
 327 01da 13538369 		rev8	t1,t1
 328              		.loc 1 96 44
  97:C:/Users/stapi/OneDrive/Desktop/GD32VW553/V1_MQTT_OK/GD32VW55X_Wifi_BLE_SDK/GD32VW55x_RELEASE_V1.0.2/MSDK/cloud/alicloud/src/infra/utils/digest\utils_sha1.c ****     IOT_SHA1_GET_UINT32_BE(W[12], data, 48);
 329              		.loc 1 97 5
 330 01de A207     		slli	a5,a5,8
 331 01e0 B3E76701 		or	a5,a5,s6
 332 01e4 03CB2503 		lbu	s6,50(a1)
 333 01e8 420B     		slli	s6,s6,16
 334 01ea B367FB00 		or	a5,s6,a5
 335 01ee 03CB3503 		lbu	s6,51(a1)
 336 01f2 03C64503 		lbu	a2,52(a1)
 337 01f6 83C68503 		lbu	a3,56(a1)
 338 01fa 620B     		slli	s6,s6,24
 339 01fc 336BFB00 		or	s6,s6,a5
 340 0200 83C75503 		lbu	a5,53(a1)
 341 0204 03C7C503 		lbu	a4,60(a1)
  98:C:/Users/stapi/OneDrive/Desktop/GD32VW553/V1_MQTT_OK/GD32VW55X_Wifi_BLE_SDK/GD32VW55x_RELEASE_V1.0.2/MSDK/cloud/alicloud/src/infra/utils/digest\utils_sha1.c ****     IOT_SHA1_GET_UINT32_BE(W[13], data, 52);
  99:C:/Users/stapi/OneDrive/Desktop/GD32VW553/V1_MQTT_OK/GD32VW55X_Wifi_BLE_SDK/GD32VW55x_RELEASE_V1.0.2/MSDK/cloud/alicloud/src/infra/utils/digest\utils_sha1.c ****     IOT_SHA1_GET_UINT32_BE(W[14], data, 56);
 100:C:/Users/stapi/OneDrive/Desktop/GD32VW553/V1_MQTT_OK/GD32VW55X_Wifi_BLE_SDK/GD32VW55x_RELEASE_V1.0.2/MSDK/cloud/alicloud/src/infra/utils/digest\utils_sha1.c ****     IOT_SHA1_GET_UINT32_BE(W[15], data, 60);
 101:C:/Users/stapi/OneDrive/Desktop/GD32VW553/V1_MQTT_OK/GD32VW55X_Wifi_BLE_SDK/GD32VW55x_RELEASE_V1.0.2/MSDK/cloud/alicloud/src/infra/utils/digest\utils_sha1.c **** 
 102:C:/Users/stapi/OneDrive/Desktop/GD32VW553/V1_MQTT_OK/GD32VW55X_Wifi_BLE_SDK/GD32VW55x_RELEASE_V1.0.2/MSDK/cloud/alicloud/src/infra/utils/digest\utils_sha1.c **** #define S(x,n) ((x << n) | ((x & 0xFFFFFFFF) >> (32 - n)))
 103:C:/Users/stapi/OneDrive/Desktop/GD32VW553/V1_MQTT_OK/GD32VW55X_Wifi_BLE_SDK/GD32VW55x_RELEASE_V1.0.2/MSDK/cloud/alicloud/src/infra/utils/digest\utils_sha1.c **** 
 104:C:/Users/stapi/OneDrive/Desktop/GD32VW553/V1_MQTT_OK/GD32VW55X_Wifi_BLE_SDK/GD32VW55x_RELEASE_V1.0.2/MSDK/cloud/alicloud/src/infra/utils/digest\utils_sha1.c **** #define R(t)                                            \
 105:C:/Users/stapi/OneDrive/Desktop/GD32VW553/V1_MQTT_OK/GD32VW55X_Wifi_BLE_SDK/GD32VW55x_RELEASE_V1.0.2/MSDK/cloud/alicloud/src/infra/utils/digest\utils_sha1.c ****     (                                                       \
 106:C:/Users/stapi/OneDrive/Desktop/GD32VW553/V1_MQTT_OK/GD32VW55X_Wifi_BLE_SDK/GD32VW55x_RELEASE_V1.0.2/MSDK/cloud/alicloud/src/infra/utils/digest\utils_sha1.c ****             temp = W[( t -  3 ) & 0x0F] ^ W[( t - 8 ) & 0x0F] ^ \
 107:C:/Users/stapi/OneDrive/Desktop/GD32VW553/V1_MQTT_OK/GD32VW55X_Wifi_BLE_SDK/GD32VW55x_RELEASE_V1.0.2/MSDK/cloud/alicloud/src/infra/utils/digest\utils_sha1.c ****                    W[( t - 14 ) & 0x0F] ^ W[  t       & 0x0F],  \
 108:C:/Users/stapi/OneDrive/Desktop/GD32VW553/V1_MQTT_OK/GD32VW55X_Wifi_BLE_SDK/GD32VW55x_RELEASE_V1.0.2/MSDK/cloud/alicloud/src/infra/utils/digest\utils_sha1.c ****             ( W[t & 0x0F] = S(temp,1) )                         \
 109:C:/Users/stapi/OneDrive/Desktop/GD32VW553/V1_MQTT_OK/GD32VW55X_Wifi_BLE_SDK/GD32VW55x_RELEASE_V1.0.2/MSDK/cloud/alicloud/src/infra/utils/digest\utils_sha1.c ****     )
 110:C:/Users/stapi/OneDrive/Desktop/GD32VW553/V1_MQTT_OK/GD32VW55X_Wifi_BLE_SDK/GD32VW55x_RELEASE_V1.0.2/MSDK/cloud/alicloud/src/infra/utils/digest\utils_sha1.c **** 
 111:C:/Users/stapi/OneDrive/Desktop/GD32VW553/V1_MQTT_OK/GD32VW55X_Wifi_BLE_SDK/GD32VW55x_RELEASE_V1.0.2/MSDK/cloud/alicloud/src/infra/utils/digest\utils_sha1.c **** #define P(a,b,c,d,e,x)                                  \
 112:C:/Users/stapi/OneDrive/Desktop/GD32VW553/V1_MQTT_OK/GD32VW55X_Wifi_BLE_SDK/GD32VW55x_RELEASE_V1.0.2/MSDK/cloud/alicloud/src/infra/utils/digest\utils_sha1.c ****     {                                                       \
 113:C:/Users/stapi/OneDrive/Desktop/GD32VW553/V1_MQTT_OK/GD32VW55X_Wifi_BLE_SDK/GD32VW55x_RELEASE_V1.0.2/MSDK/cloud/alicloud/src/infra/utils/digest\utils_sha1.c ****         e += S(a,5) + F(b,c,d) + K + x; b = S(b,30);        \
 114:C:/Users/stapi/OneDrive/Desktop/GD32VW553/V1_MQTT_OK/GD32VW55X_Wifi_BLE_SDK/GD32VW55x_RELEASE_V1.0.2/MSDK/cloud/alicloud/src/infra/utils/digest\utils_sha1.c ****     }
 115:C:/Users/stapi/OneDrive/Desktop/GD32VW553/V1_MQTT_OK/GD32VW55X_Wifi_BLE_SDK/GD32VW55x_RELEASE_V1.0.2/MSDK/cloud/alicloud/src/infra/utils/digest\utils_sha1.c **** 
 116:C:/Users/stapi/OneDrive/Desktop/GD32VW553/V1_MQTT_OK/GD32VW55X_Wifi_BLE_SDK/GD32VW55x_RELEASE_V1.0.2/MSDK/cloud/alicloud/src/infra/utils/digest\utils_sha1.c ****     A = ctx->state[0];
 117:C:/Users/stapi/OneDrive/Desktop/GD32VW553/V1_MQTT_OK/GD32VW55X_Wifi_BLE_SDK/GD32VW55x_RELEASE_V1.0.2/MSDK/cloud/alicloud/src/infra/utils/digest\utils_sha1.c ****     B = ctx->state[1];
 118:C:/Users/stapi/OneDrive/Desktop/GD32VW553/V1_MQTT_OK/GD32VW55X_Wifi_BLE_SDK/GD32VW55x_RELEASE_V1.0.2/MSDK/cloud/alicloud/src/infra/utils/digest\utils_sha1.c ****     C = ctx->state[2];
 119:C:/Users/stapi/OneDrive/Desktop/GD32VW553/V1_MQTT_OK/GD32VW55X_Wifi_BLE_SDK/GD32VW55x_RELEASE_V1.0.2/MSDK/cloud/alicloud/src/infra/utils/digest\utils_sha1.c ****     D = ctx->state[3];
 120:C:/Users/stapi/OneDrive/Desktop/GD32VW553/V1_MQTT_OK/GD32VW55X_Wifi_BLE_SDK/GD32VW55x_RELEASE_V1.0.2/MSDK/cloud/alicloud/src/infra/utils/digest\utils_sha1.c ****     E = ctx->state[4];
 121:C:/Users/stapi/OneDrive/Desktop/GD32VW553/V1_MQTT_OK/GD32VW55X_Wifi_BLE_SDK/GD32VW55x_RELEASE_V1.0.2/MSDK/cloud/alicloud/src/infra/utils/digest\utils_sha1.c **** 
 122:C:/Users/stapi/OneDrive/Desktop/GD32VW553/V1_MQTT_OK/GD32VW55X_Wifi_BLE_SDK/GD32VW55x_RELEASE_V1.0.2/MSDK/cloud/alicloud/src/infra/utils/digest\utils_sha1.c **** #define F(x,y,z) (z ^ (x & (y ^ z)))
 123:C:/Users/stapi/OneDrive/Desktop/GD32VW553/V1_MQTT_OK/GD32VW55X_Wifi_BLE_SDK/GD32VW55x_RELEASE_V1.0.2/MSDK/cloud/alicloud/src/infra/utils/digest\utils_sha1.c **** #define K 0x5A827999
 124:C:/Users/stapi/OneDrive/Desktop/GD32VW553/V1_MQTT_OK/GD32VW55X_Wifi_BLE_SDK/GD32VW55x_RELEASE_V1.0.2/MSDK/cloud/alicloud/src/infra/utils/digest\utils_sha1.c **** 
 125:C:/Users/stapi/OneDrive/Desktop/GD32VW553/V1_MQTT_OK/GD32VW55X_Wifi_BLE_SDK/GD32VW55x_RELEASE_V1.0.2/MSDK/cloud/alicloud/src/infra/utils/digest\utils_sha1.c ****     P(A, B, C, D, E, W[0]);
 342              		.loc 1 125 5 is_stmt 0
 343 0208 03288500 		lw	a6,8(a0)
 344 020c A207     		slli	a5,a5,8
 345 020e D18F     		or	a5,a5,a2
 346 0210 03C66503 		lbu	a2,54(a1)
 347 0214 032A8501 		lw	s4,24(a0)
 348 0218 135B8B69 		rev8	s6,s6
  97:C:/Users/stapi/OneDrive/Desktop/GD32VW553/V1_MQTT_OK/GD32VW55X_Wifi_BLE_SDK/GD32VW55x_RELEASE_V1.0.2/MSDK/cloud/alicloud/src/infra/utils/digest\utils_sha1.c ****     IOT_SHA1_GET_UINT32_BE(W[12], data, 48);
 349              		.loc 1 97 44 is_stmt 1
  98:C:/Users/stapi/OneDrive/Desktop/GD32VW553/V1_MQTT_OK/GD32VW55X_Wifi_BLE_SDK/GD32VW55x_RELEASE_V1.0.2/MSDK/cloud/alicloud/src/infra/utils/digest\utils_sha1.c ****     IOT_SHA1_GET_UINT32_BE(W[13], data, 52);
 350              		.loc 1 98 5
 351 021c 4206     		slli	a2,a2,16
 352 021e D18F     		or	a5,a2,a5
 353 0220 03C67503 		lbu	a2,55(a1)
 354 0224 6206     		slli	a2,a2,24
 355 0226 5D8E     		or	a2,a2,a5
 356 0228 83C79503 		lbu	a5,57(a1)
 357 022c 13568669 		rev8	a2,a2
  98:C:/Users/stapi/OneDrive/Desktop/GD32VW553/V1_MQTT_OK/GD32VW55X_Wifi_BLE_SDK/GD32VW55x_RELEASE_V1.0.2/MSDK/cloud/alicloud/src/infra/utils/digest\utils_sha1.c ****     IOT_SHA1_GET_UINT32_BE(W[13], data, 52);
 358              		.loc 1 98 44
  99:C:/Users/stapi/OneDrive/Desktop/GD32VW553/V1_MQTT_OK/GD32VW55X_Wifi_BLE_SDK/GD32VW55x_RELEASE_V1.0.2/MSDK/cloud/alicloud/src/infra/utils/digest\utils_sha1.c ****     IOT_SHA1_GET_UINT32_BE(W[15], data, 60);
 359              		.loc 1 99 5
 360 0230 A207     		slli	a5,a5,8
 361 0232 D58F     		or	a5,a5,a3
 362 0234 83C6A503 		lbu	a3,58(a1)
 363 0238 C206     		slli	a3,a3,16
 364 023a D58F     		or	a5,a3,a5
 365 023c 83C6B503 		lbu	a3,59(a1)
 366 0240 E206     		slli	a3,a3,24
 367 0242 DD8E     		or	a3,a3,a5
 368 0244 83C7D503 		lbu	a5,61(a1)
 369 0248 93D68669 		rev8	a3,a3
  99:C:/Users/stapi/OneDrive/Desktop/GD32VW553/V1_MQTT_OK/GD32VW55X_Wifi_BLE_SDK/GD32VW55x_RELEASE_V1.0.2/MSDK/cloud/alicloud/src/infra/utils/digest\utils_sha1.c ****     IOT_SHA1_GET_UINT32_BE(W[15], data, 60);
 370              		.loc 1 99 44
 100:C:/Users/stapi/OneDrive/Desktop/GD32VW553/V1_MQTT_OK/GD32VW55X_Wifi_BLE_SDK/GD32VW55x_RELEASE_V1.0.2/MSDK/cloud/alicloud/src/infra/utils/digest\utils_sha1.c **** 
 371              		.loc 1 100 5
 372 024c A207     		slli	a5,a5,8
 373 024e D98F     		or	a5,a5,a4
 374 0250 03C7E503 		lbu	a4,62(a1)
 375 0254 4207     		slli	a4,a4,16
 376 0256 D98F     		or	a5,a4,a5
 377 0258 03C7F503 		lbu	a4,63(a1)
 378              		.loc 1 125 5 is_stmt 0
 379 025c 4C49     		lw	a1,20(a0)
 380              	.LVL18:
 381 025e 6207     		slli	a4,a4,24
 382 0260 5D8F     		or	a4,a4,a5
 383 0262 1C49     		lw	a5,16(a0)
 384 0264 13578769 		rev8	a4,a4
 100:C:/Users/stapi/OneDrive/Desktop/GD32VW553/V1_MQTT_OK/GD32VW55X_Wifi_BLE_SDK/GD32VW55x_RELEASE_V1.0.2/MSDK/cloud/alicloud/src/infra/utils/digest\utils_sha1.c **** 
 385              		.loc 1 100 44 is_stmt 1
 116:C:/Users/stapi/OneDrive/Desktop/GD32VW553/V1_MQTT_OK/GD32VW55X_Wifi_BLE_SDK/GD32VW55x_RELEASE_V1.0.2/MSDK/cloud/alicloud/src/infra/utils/digest\utils_sha1.c ****     B = ctx->state[1];
 386              		.loc 1 116 5
 387              	.LVL19:
 117:C:/Users/stapi/OneDrive/Desktop/GD32VW553/V1_MQTT_OK/GD32VW55X_Wifi_BLE_SDK/GD32VW55x_RELEASE_V1.0.2/MSDK/cloud/alicloud/src/infra/utils/digest\utils_sha1.c ****     C = ctx->state[2];
 388              		.loc 1 117 5
 118:C:/Users/stapi/OneDrive/Desktop/GD32VW553/V1_MQTT_OK/GD32VW55X_Wifi_BLE_SDK/GD32VW55x_RELEASE_V1.0.2/MSDK/cloud/alicloud/src/infra/utils/digest\utils_sha1.c ****     D = ctx->state[3];
 389              		.loc 1 118 5
 119:C:/Users/stapi/OneDrive/Desktop/GD32VW553/V1_MQTT_OK/GD32VW55X_Wifi_BLE_SDK/GD32VW55x_RELEASE_V1.0.2/MSDK/cloud/alicloud/src/infra/utils/digest\utils_sha1.c ****     E = ctx->state[4];
 390              		.loc 1 119 5
 120:C:/Users/stapi/OneDrive/Desktop/GD32VW553/V1_MQTT_OK/GD32VW55X_Wifi_BLE_SDK/GD32VW55x_RELEASE_V1.0.2/MSDK/cloud/alicloud/src/infra/utils/digest\utils_sha1.c **** 
 391              		.loc 1 120 5
 392              		.loc 1 125 5
 393 0268 BD8D     		xor	a1,a5,a1
 394              	.LVL20:
 395 026a 5C45     		lw	a5,12(a0)
 396              	.LVL21:
 397 026c FD8D     		and	a1,a1,a5
 398 026e 5C49     		lw	a5,20(a0)
 399 0270 BD8D     		xor	a1,a1,a5
 400 0272 9547     		li	a5,5
 401 0274 B319F860 		rol	s3,a6,a5
 402 0278 3788825A 		li	a6,1518501888
 403              	.LVL22:
 404 027c 13089899 		addi	a6,a6,-1639
 405 0280 429A     		add	s4,s4,a6
 406              	.LVL23:
 407 0282 D299     		add	s3,s3,s4
 408 0284 CE95     		add	a1,a1,s3
 409 0286 8329C500 		lw	s3,12(a0)
 126:C:/Users/stapi/OneDrive/Desktop/GD32VW553/V1_MQTT_OK/GD32VW55X_Wifi_BLE_SDK/GD32VW55x_RELEASE_V1.0.2/MSDK/cloud/alicloud/src/infra/utils/digest\utils_sha1.c ****     P(E, A, B, C, D, W[1]);
 410              		.loc 1 126 5 is_stmt 0
 411 028a 032A8500 		lw	s4,8(a0)
 125:C:/Users/stapi/OneDrive/Desktop/GD32VW553/V1_MQTT_OK/GD32VW55X_Wifi_BLE_SDK/GD32VW55x_RELEASE_V1.0.2/MSDK/cloud/alicloud/src/infra/utils/digest\utils_sha1.c ****     P(E, A, B, C, D, W[1]);
 412              		.loc 1 125 5
 413 028e F695     		add	a1,t4,a1
 414              	.LVL24:
 125:C:/Users/stapi/OneDrive/Desktop/GD32VW553/V1_MQTT_OK/GD32VW55X_Wifi_BLE_SDK/GD32VW55x_RELEASE_V1.0.2/MSDK/cloud/alicloud/src/infra/utils/digest\utils_sha1.c ****     P(E, A, B, C, D, W[1]);
 415              		.loc 1 125 5 is_stmt 1
 416 0290 93DC2960 		rori	s9,s3,2
 417              	.LVL25:
 125:C:/Users/stapi/OneDrive/Desktop/GD32VW553/V1_MQTT_OK/GD32VW55X_Wifi_BLE_SDK/GD32VW55x_RELEASE_V1.0.2/MSDK/cloud/alicloud/src/infra/utils/digest\utils_sha1.c ****     P(E, A, B, C, D, W[1]);
 418              		.loc 1 125 27
 419              		.loc 1 126 5
 420 0294 83290501 		lw	s3,16(a0)
 421 0298 339CF560 		rol	s8,a1,a5
 127:C:/Users/stapi/OneDrive/Desktop/GD32VW553/V1_MQTT_OK/GD32VW55X_Wifi_BLE_SDK/GD32VW55x_RELEASE_V1.0.2/MSDK/cloud/alicloud/src/infra/utils/digest\utils_sha1.c ****     P(D, E, A, B, C, W[2]);
 128:C:/Users/stapi/OneDrive/Desktop/GD32VW553/V1_MQTT_OK/GD32VW55X_Wifi_BLE_SDK/GD32VW55x_RELEASE_V1.0.2/MSDK/cloud/alicloud/src/infra/utils/digest\utils_sha1.c ****     P(C, D, E, A, B, W[3]);
 129:C:/Users/stapi/OneDrive/Desktop/GD32VW553/V1_MQTT_OK/GD32VW55X_Wifi_BLE_SDK/GD32VW55x_RELEASE_V1.0.2/MSDK/cloud/alicloud/src/infra/utils/digest\utils_sha1.c ****     P(B, C, D, E, A, W[4]);
 130:C:/Users/stapi/OneDrive/Desktop/GD32VW553/V1_MQTT_OK/GD32VW55X_Wifi_BLE_SDK/GD32VW55x_RELEASE_V1.0.2/MSDK/cloud/alicloud/src/infra/utils/digest\utils_sha1.c ****     P(A, B, C, D, E, W[5]);
 131:C:/Users/stapi/OneDrive/Desktop/GD32VW553/V1_MQTT_OK/GD32VW55X_Wifi_BLE_SDK/GD32VW55x_RELEASE_V1.0.2/MSDK/cloud/alicloud/src/infra/utils/digest\utils_sha1.c ****     P(E, A, B, C, D, W[6]);
 132:C:/Users/stapi/OneDrive/Desktop/GD32VW553/V1_MQTT_OK/GD32VW55X_Wifi_BLE_SDK/GD32VW55x_RELEASE_V1.0.2/MSDK/cloud/alicloud/src/infra/utils/digest\utils_sha1.c ****     P(D, E, A, B, C, W[7]);
 133:C:/Users/stapi/OneDrive/Desktop/GD32VW553/V1_MQTT_OK/GD32VW55X_Wifi_BLE_SDK/GD32VW55x_RELEASE_V1.0.2/MSDK/cloud/alicloud/src/infra/utils/digest\utils_sha1.c ****     P(C, D, E, A, B, W[8]);
 134:C:/Users/stapi/OneDrive/Desktop/GD32VW553/V1_MQTT_OK/GD32VW55X_Wifi_BLE_SDK/GD32VW55x_RELEASE_V1.0.2/MSDK/cloud/alicloud/src/infra/utils/digest\utils_sha1.c ****     P(B, C, D, E, A, W[9]);
 135:C:/Users/stapi/OneDrive/Desktop/GD32VW553/V1_MQTT_OK/GD32VW55X_Wifi_BLE_SDK/GD32VW55x_RELEASE_V1.0.2/MSDK/cloud/alicloud/src/infra/utils/digest\utils_sha1.c ****     P(A, B, C, D, E, W[10]);
 136:C:/Users/stapi/OneDrive/Desktop/GD32VW553/V1_MQTT_OK/GD32VW55X_Wifi_BLE_SDK/GD32VW55x_RELEASE_V1.0.2/MSDK/cloud/alicloud/src/infra/utils/digest\utils_sha1.c ****     P(E, A, B, C, D, W[11]);
 137:C:/Users/stapi/OneDrive/Desktop/GD32VW553/V1_MQTT_OK/GD32VW55X_Wifi_BLE_SDK/GD32VW55x_RELEASE_V1.0.2/MSDK/cloud/alicloud/src/infra/utils/digest\utils_sha1.c ****     P(D, E, A, B, C, W[12]);
 138:C:/Users/stapi/OneDrive/Desktop/GD32VW553/V1_MQTT_OK/GD32VW55X_Wifi_BLE_SDK/GD32VW55x_RELEASE_V1.0.2/MSDK/cloud/alicloud/src/infra/utils/digest\utils_sha1.c ****     P(C, D, E, A, B, W[13]);
 139:C:/Users/stapi/OneDrive/Desktop/GD32VW553/V1_MQTT_OK/GD32VW55X_Wifi_BLE_SDK/GD32VW55x_RELEASE_V1.0.2/MSDK/cloud/alicloud/src/infra/utils/digest\utils_sha1.c ****     P(B, C, D, E, A, W[14]);
 140:C:/Users/stapi/OneDrive/Desktop/GD32VW553/V1_MQTT_OK/GD32VW55X_Wifi_BLE_SDK/GD32VW55x_RELEASE_V1.0.2/MSDK/cloud/alicloud/src/infra/utils/digest\utils_sha1.c ****     P(A, B, C, D, E, W[15]);
 141:C:/Users/stapi/OneDrive/Desktop/GD32VW553/V1_MQTT_OK/GD32VW55X_Wifi_BLE_SDK/GD32VW55x_RELEASE_V1.0.2/MSDK/cloud/alicloud/src/infra/utils/digest\utils_sha1.c ****     P(E, A, B, C, D, R(16));
 422              		.loc 1 141 5 is_stmt 0
 423 029c B3CE2E01 		xor	t4,t4,s2
 126:C:/Users/stapi/OneDrive/Desktop/GD32VW553/V1_MQTT_OK/GD32VW55X_Wifi_BLE_SDK/GD32VW55x_RELEASE_V1.0.2/MSDK/cloud/alicloud/src/infra/utils/digest\utils_sha1.c ****     P(D, E, A, B, C, W[2]);
 424              		.loc 1 126 5
 425 02a0 B3C99901 		xor	s3,s3,s9
 426 02a4 B3F94901 		and	s3,s3,s4
 427 02a8 032A0501 		lw	s4,16(a0)
 428              		.loc 1 141 5
 429 02ac B3CE8E00 		xor	t4,t4,s0
 430 02b0 B3CECE00 		xor	t4,t4,a2
 126:C:/Users/stapi/OneDrive/Desktop/GD32VW553/V1_MQTT_OK/GD32VW55X_Wifi_BLE_SDK/GD32VW55x_RELEASE_V1.0.2/MSDK/cloud/alicloud/src/infra/utils/digest\utils_sha1.c ****     P(D, E, A, B, C, W[2]);
 431              		.loc 1 126 5
 432 02b4 B3C94901 		xor	s3,s3,s4
 433 02b8 032A4501 		lw	s4,20(a0)
 434 02bc 429A     		add	s4,s4,a6
 435 02be D299     		add	s3,s3,s4
 436 02c0 032A8500 		lw	s4,8(a0)
 437 02c4 C699     		add	s3,s3,a7
 438 02c6 E299     		add	s3,s8,s3
 439              	.LVL26:
 126:C:/Users/stapi/OneDrive/Desktop/GD32VW553/V1_MQTT_OK/GD32VW55X_Wifi_BLE_SDK/GD32VW55x_RELEASE_V1.0.2/MSDK/cloud/alicloud/src/infra/utils/digest\utils_sha1.c ****     P(D, E, A, B, C, W[2]);
 440              		.loc 1 126 5 is_stmt 1
 441 02c8 135A2A60 		rori	s4,s4,2
 442              	.LVL27:
 126:C:/Users/stapi/OneDrive/Desktop/GD32VW553/V1_MQTT_OK/GD32VW55X_Wifi_BLE_SDK/GD32VW55x_RELEASE_V1.0.2/MSDK/cloud/alicloud/src/infra/utils/digest\utils_sha1.c ****     P(D, E, A, B, C, W[2]);
 443              		.loc 1 126 27
 127:C:/Users/stapi/OneDrive/Desktop/GD32VW553/V1_MQTT_OK/GD32VW55X_Wifi_BLE_SDK/GD32VW55x_RELEASE_V1.0.2/MSDK/cloud/alicloud/src/infra/utils/digest\utils_sha1.c ****     P(D, E, A, B, C, W[2]);
 444              		.loc 1 127 5
 445 02cc B3CA4C01 		xor	s5,s9,s4
 446 02d0 B3FABA00 		and	s5,s5,a1
 447 02d4 33CC9A01 		xor	s8,s5,s9
 448 02d8 832A0501 		lw	s5,16(a0)
 449 02dc 93D52560 		rori	a1,a1,2
 450              	.LVL28:
 128:C:/Users/stapi/OneDrive/Desktop/GD32VW553/V1_MQTT_OK/GD32VW55X_Wifi_BLE_SDK/GD32VW55x_RELEASE_V1.0.2/MSDK/cloud/alicloud/src/infra/utils/digest\utils_sha1.c ****     P(B, C, D, E, A, W[4]);
 451              		.loc 1 128 5 is_stmt 0
 452 02e0 B34DBA00 		xor	s11,s4,a1
 453 02e4 C29A     		add	s5,s5,a6
 454 02e6 CA9A     		add	s5,s5,s2
 455 02e8 B3FD3D01 		and	s11,s11,s3
 456 02ec C29C     		add	s9,s9,a6
 457              	.LVL29:
 458 02ee E29A     		add	s5,s8,s5
 127:C:/Users/stapi/OneDrive/Desktop/GD32VW553/V1_MQTT_OK/GD32VW55X_Wifi_BLE_SDK/GD32VW55x_RELEASE_V1.0.2/MSDK/cloud/alicloud/src/infra/utils/digest\utils_sha1.c ****     P(D, E, A, B, C, W[2]);
 459              		.loc 1 127 5
 460 02f0 339CF960 		rol	s8,s3,a5
 461 02f4 E29A     		add	s5,s8,s5
 462              	.LVL30:
 127:C:/Users/stapi/OneDrive/Desktop/GD32VW553/V1_MQTT_OK/GD32VW55X_Wifi_BLE_SDK/GD32VW55x_RELEASE_V1.0.2/MSDK/cloud/alicloud/src/infra/utils/digest\utils_sha1.c ****     P(D, E, A, B, C, W[2]);
 463              		.loc 1 127 5 is_stmt 1
 127:C:/Users/stapi/OneDrive/Desktop/GD32VW553/V1_MQTT_OK/GD32VW55X_Wifi_BLE_SDK/GD32VW55x_RELEASE_V1.0.2/MSDK/cloud/alicloud/src/infra/utils/digest\utils_sha1.c ****     P(D, E, A, B, C, W[2]);
 464              		.loc 1 127 27
 128:C:/Users/stapi/OneDrive/Desktop/GD32VW553/V1_MQTT_OK/GD32VW55X_Wifi_BLE_SDK/GD32VW55x_RELEASE_V1.0.2/MSDK/cloud/alicloud/src/infra/utils/digest\utils_sha1.c ****     P(B, C, D, E, A, W[4]);
 465              		.loc 1 128 5
 466 02f6 33CC4D01 		xor	s8,s11,s4
 467 02fa B38D9C00 		add	s11,s9,s1
 468 02fe B30CBC01 		add	s9,s8,s11
 469              	.LVL31:
 470 0302 93D92960 		rori	s3,s3,2
 471              	.LVL32:
 472 0306 B39DFA60 		rol	s11,s5,a5
 473 030a E69D     		add	s11,s11,s9
 474              	.LVL33:
 128:C:/Users/stapi/OneDrive/Desktop/GD32VW553/V1_MQTT_OK/GD32VW55X_Wifi_BLE_SDK/GD32VW55x_RELEASE_V1.0.2/MSDK/cloud/alicloud/src/infra/utils/digest\utils_sha1.c ****     P(B, C, D, E, A, W[4]);
 475              		.loc 1 128 5
 128:C:/Users/stapi/OneDrive/Desktop/GD32VW553/V1_MQTT_OK/GD32VW55X_Wifi_BLE_SDK/GD32VW55x_RELEASE_V1.0.2/MSDK/cloud/alicloud/src/infra/utils/digest\utils_sha1.c ****     P(B, C, D, E, A, W[4]);
 476              		.loc 1 128 27
 129:C:/Users/stapi/OneDrive/Desktop/GD32VW553/V1_MQTT_OK/GD32VW55X_Wifi_BLE_SDK/GD32VW55x_RELEASE_V1.0.2/MSDK/cloud/alicloud/src/infra/utils/digest\utils_sha1.c ****     P(A, B, C, D, E, W[5]);
 477              		.loc 1 129 5
 478 030c B3CC3501 		xor	s9,a1,s3
 479 0310 B3FC5C01 		and	s9,s9,s5
 480 0314 429A     		add	s4,s4,a6
 481              	.LVL34:
 482 0316 33CCBC00 		xor	s8,s9,a1
 483 031a B30C7A00 		add	s9,s4,t2
 484 031e 330A9C01 		add	s4,s8,s9
 485              	.LVL35:
 486 0322 93DA2A60 		rori	s5,s5,2
 487              	.LVL36:
 488 0326 B39CFD60 		rol	s9,s11,a5
 489 032a D29C     		add	s9,s9,s4
 490              	.LVL37:
 129:C:/Users/stapi/OneDrive/Desktop/GD32VW553/V1_MQTT_OK/GD32VW55X_Wifi_BLE_SDK/GD32VW55x_RELEASE_V1.0.2/MSDK/cloud/alicloud/src/infra/utils/digest\utils_sha1.c ****     P(A, B, C, D, E, W[5]);
 491              		.loc 1 129 5
 129:C:/Users/stapi/OneDrive/Desktop/GD32VW553/V1_MQTT_OK/GD32VW55X_Wifi_BLE_SDK/GD32VW55x_RELEASE_V1.0.2/MSDK/cloud/alicloud/src/infra/utils/digest\utils_sha1.c ****     P(A, B, C, D, E, W[5]);
 492              		.loc 1 129 27
 130:C:/Users/stapi/OneDrive/Desktop/GD32VW553/V1_MQTT_OK/GD32VW55X_Wifi_BLE_SDK/GD32VW55x_RELEASE_V1.0.2/MSDK/cloud/alicloud/src/infra/utils/digest\utils_sha1.c ****     P(E, A, B, C, D, W[6]);
 493              		.loc 1 130 5
 494 032c 33CA5901 		xor	s4,s3,s5
 495 0330 337ABA01 		and	s4,s4,s11
 496 0334 334C3A01 		xor	s8,s4,s3
 497 0338 338A0F01 		add	s4,t6,a6
 498 033c 2E9A     		add	s4,s4,a1
 499 033e B3054C01 		add	a1,s8,s4
 500              	.LVL38:
 501 0342 93DD2D60 		rori	s11,s11,2
 502              	.LVL39:
 131:C:/Users/stapi/OneDrive/Desktop/GD32VW553/V1_MQTT_OK/GD32VW55X_Wifi_BLE_SDK/GD32VW55x_RELEASE_V1.0.2/MSDK/cloud/alicloud/src/infra/utils/digest\utils_sha1.c ****     P(D, E, A, B, C, W[7]);
 503              		.loc 1 131 5 is_stmt 0
 504 0346 33CCBA01 		xor	s8,s5,s11
 505 034a 337C9C01 		and	s8,s8,s9
 130:C:/Users/stapi/OneDrive/Desktop/GD32VW553/V1_MQTT_OK/GD32VW55X_Wifi_BLE_SDK/GD32VW55x_RELEASE_V1.0.2/MSDK/cloud/alicloud/src/infra/utils/digest\utils_sha1.c ****     P(E, A, B, C, D, W[6]);
 506              		.loc 1 130 5
 507 034e 339AFC60 		rol	s4,s9,a5
 508 0352 2E9A     		add	s4,s4,a1
 509              	.LVL40:
 130:C:/Users/stapi/OneDrive/Desktop/GD32VW553/V1_MQTT_OK/GD32VW55X_Wifi_BLE_SDK/GD32VW55x_RELEASE_V1.0.2/MSDK/cloud/alicloud/src/infra/utils/digest\utils_sha1.c ****     P(E, A, B, C, D, W[6]);
 510              		.loc 1 130 5 is_stmt 1
 130:C:/Users/stapi/OneDrive/Desktop/GD32VW553/V1_MQTT_OK/GD32VW55X_Wifi_BLE_SDK/GD32VW55x_RELEASE_V1.0.2/MSDK/cloud/alicloud/src/infra/utils/digest\utils_sha1.c ****     P(E, A, B, C, D, W[6]);
 511              		.loc 1 130 27
 131:C:/Users/stapi/OneDrive/Desktop/GD32VW553/V1_MQTT_OK/GD32VW55X_Wifi_BLE_SDK/GD32VW55x_RELEASE_V1.0.2/MSDK/cloud/alicloud/src/infra/utils/digest\utils_sha1.c ****     P(D, E, A, B, C, W[7]);
 512              		.loc 1 131 5
 513 0354 B3455C01 		xor	a1,s8,s5
 514 0358 330C0E01 		add	s8,t3,a6
 515 035c 4E9C     		add	s8,s8,s3
 516 035e 93DC2C60 		rori	s9,s9,2
 517              	.LVL41:
 518 0362 B3898501 		add	s3,a1,s8
 519              	.LVL42:
 132:C:/Users/stapi/OneDrive/Desktop/GD32VW553/V1_MQTT_OK/GD32VW55X_Wifi_BLE_SDK/GD32VW55x_RELEASE_V1.0.2/MSDK/cloud/alicloud/src/infra/utils/digest\utils_sha1.c ****     P(C, D, E, A, B, W[8]);
 520              		.loc 1 132 5 is_stmt 0
 521 0366 B3C59D01 		xor	a1,s11,s9
 522 036a B3F54501 		and	a1,a1,s4
 131:C:/Users/stapi/OneDrive/Desktop/GD32VW553/V1_MQTT_OK/GD32VW55X_Wifi_BLE_SDK/GD32VW55x_RELEASE_V1.0.2/MSDK/cloud/alicloud/src/infra/utils/digest\utils_sha1.c ****     P(D, E, A, B, C, W[7]);
 523              		.loc 1 131 5
 524 036e 331CFA60 		rol	s8,s4,a5
 525 0372 4E9C     		add	s8,s8,s3
 526              	.LVL43:
 131:C:/Users/stapi/OneDrive/Desktop/GD32VW553/V1_MQTT_OK/GD32VW55X_Wifi_BLE_SDK/GD32VW55x_RELEASE_V1.0.2/MSDK/cloud/alicloud/src/infra/utils/digest\utils_sha1.c ****     P(D, E, A, B, C, W[7]);
 527              		.loc 1 131 5 is_stmt 1
 131:C:/Users/stapi/OneDrive/Desktop/GD32VW553/V1_MQTT_OK/GD32VW55X_Wifi_BLE_SDK/GD32VW55x_RELEASE_V1.0.2/MSDK/cloud/alicloud/src/infra/utils/digest\utils_sha1.c ****     P(D, E, A, B, C, W[7]);
 528              		.loc 1 131 27
 132:C:/Users/stapi/OneDrive/Desktop/GD32VW553/V1_MQTT_OK/GD32VW55X_Wifi_BLE_SDK/GD32VW55x_RELEASE_V1.0.2/MSDK/cloud/alicloud/src/infra/utils/digest\utils_sha1.c ****     P(C, D, E, A, B, W[8]);
 529              		.loc 1 132 5
 530 0374 B3C9B501 		xor	s3,a1,s11
 531 0378 B3850B01 		add	a1,s7,a6
 532 037c D695     		add	a1,a1,s5
 533 037e 135A2A60 		rori	s4,s4,2
 534              	.LVL44:
 535 0382 B38AB900 		add	s5,s3,a1
 536              	.LVL45:
 133:C:/Users/stapi/OneDrive/Desktop/GD32VW553/V1_MQTT_OK/GD32VW55X_Wifi_BLE_SDK/GD32VW55x_RELEASE_V1.0.2/MSDK/cloud/alicloud/src/infra/utils/digest\utils_sha1.c ****     P(B, C, D, E, A, W[9]);
 537              		.loc 1 133 5 is_stmt 0
 538 0386 B3C94C01 		xor	s3,s9,s4
 539 038a B3F98901 		and	s3,s3,s8
 132:C:/Users/stapi/OneDrive/Desktop/GD32VW553/V1_MQTT_OK/GD32VW55X_Wifi_BLE_SDK/GD32VW55x_RELEASE_V1.0.2/MSDK/cloud/alicloud/src/infra/utils/digest\utils_sha1.c ****     P(C, D, E, A, B, W[8]);
 540              		.loc 1 132 5
 541 038e B315FC60 		rol	a1,s8,a5
 542 0392 D695     		add	a1,a1,s5
 543              	.LVL46:
 132:C:/Users/stapi/OneDrive/Desktop/GD32VW553/V1_MQTT_OK/GD32VW55X_Wifi_BLE_SDK/GD32VW55x_RELEASE_V1.0.2/MSDK/cloud/alicloud/src/infra/utils/digest\utils_sha1.c ****     P(C, D, E, A, B, W[8]);
 544              		.loc 1 132 5 is_stmt 1
 132:C:/Users/stapi/OneDrive/Desktop/GD32VW553/V1_MQTT_OK/GD32VW55X_Wifi_BLE_SDK/GD32VW55x_RELEASE_V1.0.2/MSDK/cloud/alicloud/src/infra/utils/digest\utils_sha1.c ****     P(C, D, E, A, B, W[8]);
 545              		.loc 1 132 27
 133:C:/Users/stapi/OneDrive/Desktop/GD32VW553/V1_MQTT_OK/GD32VW55X_Wifi_BLE_SDK/GD32VW55x_RELEASE_V1.0.2/MSDK/cloud/alicloud/src/infra/utils/digest\utils_sha1.c ****     P(B, C, D, E, A, W[9]);
 546              		.loc 1 133 5
 547 0394 B3CA9901 		xor	s5,s3,s9
 548 0398 B3090401 		add	s3,s0,a6
 549 039c 135C2C60 		rori	s8,s8,2
 550              	.LVL47:
 551 03a0 CE9D     		add	s11,s3,s11
 552              	.LVL48:
 134:C:/Users/stapi/OneDrive/Desktop/GD32VW553/V1_MQTT_OK/GD32VW55X_Wifi_BLE_SDK/GD32VW55x_RELEASE_V1.0.2/MSDK/cloud/alicloud/src/infra/utils/digest\utils_sha1.c ****     P(A, B, C, D, E, W[10]);
 553              		.loc 1 134 5 is_stmt 0
 554 03a2 334D8A01 		xor	s10,s4,s8
 133:C:/Users/stapi/OneDrive/Desktop/GD32VW553/V1_MQTT_OK/GD32VW55X_Wifi_BLE_SDK/GD32VW55x_RELEASE_V1.0.2/MSDK/cloud/alicloud/src/infra/utils/digest\utils_sha1.c ****     P(B, C, D, E, A, W[9]);
 555              		.loc 1 133 5
 556 03a6 B399F560 		rol	s3,a1,a5
 134:C:/Users/stapi/OneDrive/Desktop/GD32VW553/V1_MQTT_OK/GD32VW55X_Wifi_BLE_SDK/GD32VW55x_RELEASE_V1.0.2/MSDK/cloud/alicloud/src/infra/utils/digest\utils_sha1.c ****     P(A, B, C, D, E, W[10]);
 557              		.loc 1 134 5
 558 03aa 337DBD00 		and	s10,s10,a1
 559 03ae D69D     		add	s11,s5,s11
 133:C:/Users/stapi/OneDrive/Desktop/GD32VW553/V1_MQTT_OK/GD32VW55X_Wifi_BLE_SDK/GD32VW55x_RELEASE_V1.0.2/MSDK/cloud/alicloud/src/infra/utils/digest\utils_sha1.c ****     P(B, C, D, E, A, W[9]);
 560              		.loc 1 133 5
 561 03b0 CE9D     		add	s11,s3,s11
 562              	.LVL49:
 133:C:/Users/stapi/OneDrive/Desktop/GD32VW553/V1_MQTT_OK/GD32VW55X_Wifi_BLE_SDK/GD32VW55x_RELEASE_V1.0.2/MSDK/cloud/alicloud/src/infra/utils/digest\utils_sha1.c ****     P(B, C, D, E, A, W[9]);
 563              		.loc 1 133 5 is_stmt 1
 133:C:/Users/stapi/OneDrive/Desktop/GD32VW553/V1_MQTT_OK/GD32VW55X_Wifi_BLE_SDK/GD32VW55x_RELEASE_V1.0.2/MSDK/cloud/alicloud/src/infra/utils/digest\utils_sha1.c ****     P(B, C, D, E, A, W[9]);
 564              		.loc 1 133 27
 134:C:/Users/stapi/OneDrive/Desktop/GD32VW553/V1_MQTT_OK/GD32VW55X_Wifi_BLE_SDK/GD32VW55x_RELEASE_V1.0.2/MSDK/cloud/alicloud/src/infra/utils/digest\utils_sha1.c ****     P(A, B, C, D, E, W[10]);
 565              		.loc 1 134 5
 566 03b2 B3494D01 		xor	s3,s10,s4
 567 03b6 338D0201 		add	s10,t0,a6
 568 03ba 669D     		add	s10,s10,s9
 569 03bc B38CA901 		add	s9,s3,s10
 570              	.LVL50:
 571 03c0 93D52560 		rori	a1,a1,2
 572              	.LVL51:
 135:C:/Users/stapi/OneDrive/Desktop/GD32VW553/V1_MQTT_OK/GD32VW55X_Wifi_BLE_SDK/GD32VW55x_RELEASE_V1.0.2/MSDK/cloud/alicloud/src/infra/utils/digest\utils_sha1.c ****     P(E, A, B, C, D, W[11]);
 573              		.loc 1 135 5 is_stmt 0
 574 03c4 B349BC00 		xor	s3,s8,a1
 575 03c8 B3F9B901 		and	s3,s3,s11
 576 03cc B3CA8901 		xor	s5,s3,s8
 577 03d0 B3090F01 		add	s3,t5,a6
 578 03d4 D299     		add	s3,s3,s4
 579 03d6 338A3A01 		add	s4,s5,s3
 580              	.LVL52:
 134:C:/Users/stapi/OneDrive/Desktop/GD32VW553/V1_MQTT_OK/GD32VW55X_Wifi_BLE_SDK/GD32VW55x_RELEASE_V1.0.2/MSDK/cloud/alicloud/src/infra/utils/digest\utils_sha1.c ****     P(A, B, C, D, E, W[10]);
 581              		.loc 1 134 5
 582 03da 339DFD60 		rol	s10,s11,a5
 135:C:/Users/stapi/OneDrive/Desktop/GD32VW553/V1_MQTT_OK/GD32VW55X_Wifi_BLE_SDK/GD32VW55x_RELEASE_V1.0.2/MSDK/cloud/alicloud/src/infra/utils/digest\utils_sha1.c ****     P(E, A, B, C, D, W[11]);
 583              		.loc 1 135 5
 584 03de 93DD2D60 		rori	s11,s11,2
 585              	.LVL53:
 134:C:/Users/stapi/OneDrive/Desktop/GD32VW553/V1_MQTT_OK/GD32VW55X_Wifi_BLE_SDK/GD32VW55x_RELEASE_V1.0.2/MSDK/cloud/alicloud/src/infra/utils/digest\utils_sha1.c ****     P(A, B, C, D, E, W[10]);
 586              		.loc 1 134 5
 587 03e2 669D     		add	s10,s10,s9
 588              	.LVL54:
 134:C:/Users/stapi/OneDrive/Desktop/GD32VW553/V1_MQTT_OK/GD32VW55X_Wifi_BLE_SDK/GD32VW55x_RELEASE_V1.0.2/MSDK/cloud/alicloud/src/infra/utils/digest\utils_sha1.c ****     P(A, B, C, D, E, W[10]);
 589              		.loc 1 134 5 is_stmt 1
 134:C:/Users/stapi/OneDrive/Desktop/GD32VW553/V1_MQTT_OK/GD32VW55X_Wifi_BLE_SDK/GD32VW55x_RELEASE_V1.0.2/MSDK/cloud/alicloud/src/infra/utils/digest\utils_sha1.c ****     P(A, B, C, D, E, W[10]);
 590              		.loc 1 134 27
 135:C:/Users/stapi/OneDrive/Desktop/GD32VW553/V1_MQTT_OK/GD32VW55X_Wifi_BLE_SDK/GD32VW55x_RELEASE_V1.0.2/MSDK/cloud/alicloud/src/infra/utils/digest\utils_sha1.c ****     P(E, A, B, C, D, W[11]);
 591              		.loc 1 135 5
 136:C:/Users/stapi/OneDrive/Desktop/GD32VW553/V1_MQTT_OK/GD32VW55X_Wifi_BLE_SDK/GD32VW55x_RELEASE_V1.0.2/MSDK/cloud/alicloud/src/infra/utils/digest\utils_sha1.c ****     P(D, E, A, B, C, W[12]);
 592              		.loc 1 136 5 is_stmt 0
 593 03e4 B3CAB501 		xor	s5,a1,s11
 594 03e8 B3FAAA01 		and	s5,s5,s10
 135:C:/Users/stapi/OneDrive/Desktop/GD32VW553/V1_MQTT_OK/GD32VW55X_Wifi_BLE_SDK/GD32VW55x_RELEASE_V1.0.2/MSDK/cloud/alicloud/src/infra/utils/digest\utils_sha1.c ****     P(E, A, B, C, D, W[11]);
 595              		.loc 1 135 5
 596 03ec B319FD60 		rol	s3,s10,a5
 597 03f0 D299     		add	s3,s3,s4
 598              	.LVL55:
 135:C:/Users/stapi/OneDrive/Desktop/GD32VW553/V1_MQTT_OK/GD32VW55X_Wifi_BLE_SDK/GD32VW55x_RELEASE_V1.0.2/MSDK/cloud/alicloud/src/infra/utils/digest\utils_sha1.c ****     P(E, A, B, C, D, W[11]);
 599              		.loc 1 135 5 is_stmt 1
 135:C:/Users/stapi/OneDrive/Desktop/GD32VW553/V1_MQTT_OK/GD32VW55X_Wifi_BLE_SDK/GD32VW55x_RELEASE_V1.0.2/MSDK/cloud/alicloud/src/infra/utils/digest\utils_sha1.c ****     P(E, A, B, C, D, W[11]);
 600              		.loc 1 135 28
 136:C:/Users/stapi/OneDrive/Desktop/GD32VW553/V1_MQTT_OK/GD32VW55X_Wifi_BLE_SDK/GD32VW55x_RELEASE_V1.0.2/MSDK/cloud/alicloud/src/infra/utils/digest\utils_sha1.c ****     P(D, E, A, B, C, W[12]);
 601              		.loc 1 136 5
 602 03f2 33CABA00 		xor	s4,s5,a1
 603 03f6 B30A0301 		add	s5,t1,a6
 604 03fa E29A     		add	s5,s5,s8
 605 03fc 135D2D60 		rori	s10,s10,2
 606              	.LVL56:
 607 0400 330C5A01 		add	s8,s4,s5
 608              	.LVL57:
 137:C:/Users/stapi/OneDrive/Desktop/GD32VW553/V1_MQTT_OK/GD32VW55X_Wifi_BLE_SDK/GD32VW55x_RELEASE_V1.0.2/MSDK/cloud/alicloud/src/infra/utils/digest\utils_sha1.c ****     P(C, D, E, A, B, W[13]);
 609              		.loc 1 137 5 is_stmt 0
 610 0404 33CAAD01 		xor	s4,s11,s10
 611 0408 337A3A01 		and	s4,s4,s3
 136:C:/Users/stapi/OneDrive/Desktop/GD32VW553/V1_MQTT_OK/GD32VW55X_Wifi_BLE_SDK/GD32VW55x_RELEASE_V1.0.2/MSDK/cloud/alicloud/src/infra/utils/digest\utils_sha1.c ****     P(D, E, A, B, C, W[12]);
 612              		.loc 1 136 5
 613 040c B39AF960 		rol	s5,s3,a5
 614 0410 E29A     		add	s5,s5,s8
 615              	.LVL58:
 136:C:/Users/stapi/OneDrive/Desktop/GD32VW553/V1_MQTT_OK/GD32VW55X_Wifi_BLE_SDK/GD32VW55x_RELEASE_V1.0.2/MSDK/cloud/alicloud/src/infra/utils/digest\utils_sha1.c ****     P(D, E, A, B, C, W[12]);
 616              		.loc 1 136 5 is_stmt 1
 136:C:/Users/stapi/OneDrive/Desktop/GD32VW553/V1_MQTT_OK/GD32VW55X_Wifi_BLE_SDK/GD32VW55x_RELEASE_V1.0.2/MSDK/cloud/alicloud/src/infra/utils/digest\utils_sha1.c ****     P(D, E, A, B, C, W[12]);
 617              		.loc 1 136 28
 137:C:/Users/stapi/OneDrive/Desktop/GD32VW553/V1_MQTT_OK/GD32VW55X_Wifi_BLE_SDK/GD32VW55x_RELEASE_V1.0.2/MSDK/cloud/alicloud/src/infra/utils/digest\utils_sha1.c ****     P(C, D, E, A, B, W[13]);
 618              		.loc 1 137 5
 619 0412 334CBA01 		xor	s8,s4,s11
 620 0416 330A0B01 		add	s4,s6,a6
 621 041a 93D92960 		rori	s3,s3,2
 622              	.LVL59:
 623 041e D295     		add	a1,s4,a1
 624              	.LVL60:
 138:C:/Users/stapi/OneDrive/Desktop/GD32VW553/V1_MQTT_OK/GD32VW55X_Wifi_BLE_SDK/GD32VW55x_RELEASE_V1.0.2/MSDK/cloud/alicloud/src/infra/utils/digest\utils_sha1.c ****     P(B, C, D, E, A, W[14]);
 625              		.loc 1 138 5 is_stmt 0
 626 0420 B34C3D01 		xor	s9,s10,s3
 137:C:/Users/stapi/OneDrive/Desktop/GD32VW553/V1_MQTT_OK/GD32VW55X_Wifi_BLE_SDK/GD32VW55x_RELEASE_V1.0.2/MSDK/cloud/alicloud/src/infra/utils/digest\utils_sha1.c ****     P(C, D, E, A, B, W[13]);
 627              		.loc 1 137 5
 628 0424 339AFA60 		rol	s4,s5,a5
 138:C:/Users/stapi/OneDrive/Desktop/GD32VW553/V1_MQTT_OK/GD32VW55X_Wifi_BLE_SDK/GD32VW55x_RELEASE_V1.0.2/MSDK/cloud/alicloud/src/infra/utils/digest\utils_sha1.c ****     P(B, C, D, E, A, W[14]);
 629              		.loc 1 138 5
 630 0428 B3FC5C01 		and	s9,s9,s5
 631 042c E295     		add	a1,s8,a1
 137:C:/Users/stapi/OneDrive/Desktop/GD32VW553/V1_MQTT_OK/GD32VW55X_Wifi_BLE_SDK/GD32VW55x_RELEASE_V1.0.2/MSDK/cloud/alicloud/src/infra/utils/digest\utils_sha1.c ****     P(C, D, E, A, B, W[13]);
 632              		.loc 1 137 5
 633 042e D295     		add	a1,s4,a1
 634              	.LVL61:
 137:C:/Users/stapi/OneDrive/Desktop/GD32VW553/V1_MQTT_OK/GD32VW55X_Wifi_BLE_SDK/GD32VW55x_RELEASE_V1.0.2/MSDK/cloud/alicloud/src/infra/utils/digest\utils_sha1.c ****     P(C, D, E, A, B, W[13]);
 635              		.loc 1 137 5 is_stmt 1
 137:C:/Users/stapi/OneDrive/Desktop/GD32VW553/V1_MQTT_OK/GD32VW55X_Wifi_BLE_SDK/GD32VW55x_RELEASE_V1.0.2/MSDK/cloud/alicloud/src/infra/utils/digest\utils_sha1.c ****     P(C, D, E, A, B, W[13]);
 636              		.loc 1 137 28
 138:C:/Users/stapi/OneDrive/Desktop/GD32VW553/V1_MQTT_OK/GD32VW55X_Wifi_BLE_SDK/GD32VW55x_RELEASE_V1.0.2/MSDK/cloud/alicloud/src/infra/utils/digest\utils_sha1.c ****     P(B, C, D, E, A, W[14]);
 637              		.loc 1 138 5
 638 0430 33CAAC01 		xor	s4,s9,s10
 639 0434 B30C0601 		add	s9,a2,a6
 640 0438 EE9C     		add	s9,s9,s11
 641 043a B30D9A01 		add	s11,s4,s9
 642              	.LVL62:
 643 043e 93DA2A60 		rori	s5,s5,2
 644              	.LVL63:
 139:C:/Users/stapi/OneDrive/Desktop/GD32VW553/V1_MQTT_OK/GD32VW55X_Wifi_BLE_SDK/GD32VW55x_RELEASE_V1.0.2/MSDK/cloud/alicloud/src/infra/utils/digest\utils_sha1.c ****     P(A, B, C, D, E, W[15]);
 645              		.loc 1 139 5 is_stmt 0
 646 0442 33CA5901 		xor	s4,s3,s5
 647 0446 337ABA00 		and	s4,s4,a1
 648 044a 334C3A01 		xor	s8,s4,s3
 649 044e 338A0601 		add	s4,a3,a6
 650 0452 6A9A     		add	s4,s4,s10
 651 0454 330D4C01 		add	s10,s8,s4
 652              	.LVL64:
 138:C:/Users/stapi/OneDrive/Desktop/GD32VW553/V1_MQTT_OK/GD32VW55X_Wifi_BLE_SDK/GD32VW55x_RELEASE_V1.0.2/MSDK/cloud/alicloud/src/infra/utils/digest\utils_sha1.c ****     P(B, C, D, E, A, W[14]);
 653              		.loc 1 138 5
 654 0458 B39CF560 		rol	s9,a1,a5
 139:C:/Users/stapi/OneDrive/Desktop/GD32VW553/V1_MQTT_OK/GD32VW55X_Wifi_BLE_SDK/GD32VW55x_RELEASE_V1.0.2/MSDK/cloud/alicloud/src/infra/utils/digest\utils_sha1.c ****     P(A, B, C, D, E, W[15]);
 655              		.loc 1 139 5
 656 045c 93D52560 		rori	a1,a1,2
 657              	.LVL65:
 138:C:/Users/stapi/OneDrive/Desktop/GD32VW553/V1_MQTT_OK/GD32VW55X_Wifi_BLE_SDK/GD32VW55x_RELEASE_V1.0.2/MSDK/cloud/alicloud/src/infra/utils/digest\utils_sha1.c ****     P(B, C, D, E, A, W[14]);
 658              		.loc 1 138 5
 659 0460 EE9C     		add	s9,s9,s11
 660              	.LVL66:
 138:C:/Users/stapi/OneDrive/Desktop/GD32VW553/V1_MQTT_OK/GD32VW55X_Wifi_BLE_SDK/GD32VW55x_RELEASE_V1.0.2/MSDK/cloud/alicloud/src/infra/utils/digest\utils_sha1.c ****     P(B, C, D, E, A, W[14]);
 661              		.loc 1 138 5 is_stmt 1
 138:C:/Users/stapi/OneDrive/Desktop/GD32VW553/V1_MQTT_OK/GD32VW55X_Wifi_BLE_SDK/GD32VW55x_RELEASE_V1.0.2/MSDK/cloud/alicloud/src/infra/utils/digest\utils_sha1.c ****     P(B, C, D, E, A, W[14]);
 662              		.loc 1 138 28
 139:C:/Users/stapi/OneDrive/Desktop/GD32VW553/V1_MQTT_OK/GD32VW55X_Wifi_BLE_SDK/GD32VW55x_RELEASE_V1.0.2/MSDK/cloud/alicloud/src/infra/utils/digest\utils_sha1.c ****     P(A, B, C, D, E, W[15]);
 663              		.loc 1 139 5
 140:C:/Users/stapi/OneDrive/Desktop/GD32VW553/V1_MQTT_OK/GD32VW55X_Wifi_BLE_SDK/GD32VW55x_RELEASE_V1.0.2/MSDK/cloud/alicloud/src/infra/utils/digest\utils_sha1.c ****     P(E, A, B, C, D, R(16));
 664              		.loc 1 140 5 is_stmt 0
 665 0462 33CCBA00 		xor	s8,s5,a1
 666 0466 337C9C01 		and	s8,s8,s9
 139:C:/Users/stapi/OneDrive/Desktop/GD32VW553/V1_MQTT_OK/GD32VW55X_Wifi_BLE_SDK/GD32VW55x_RELEASE_V1.0.2/MSDK/cloud/alicloud/src/infra/utils/digest\utils_sha1.c ****     P(A, B, C, D, E, W[15]);
 667              		.loc 1 139 5
 668 046a 339AFC60 		rol	s4,s9,a5
 669 046e 6A9A     		add	s4,s4,s10
 670              	.LVL67:
 139:C:/Users/stapi/OneDrive/Desktop/GD32VW553/V1_MQTT_OK/GD32VW55X_Wifi_BLE_SDK/GD32VW55x_RELEASE_V1.0.2/MSDK/cloud/alicloud/src/infra/utils/digest\utils_sha1.c ****     P(A, B, C, D, E, W[15]);
 671              		.loc 1 139 5 is_stmt 1
 139:C:/Users/stapi/OneDrive/Desktop/GD32VW553/V1_MQTT_OK/GD32VW55X_Wifi_BLE_SDK/GD32VW55x_RELEASE_V1.0.2/MSDK/cloud/alicloud/src/infra/utils/digest\utils_sha1.c ****     P(A, B, C, D, E, W[15]);
 672              		.loc 1 139 28
 140:C:/Users/stapi/OneDrive/Desktop/GD32VW553/V1_MQTT_OK/GD32VW55X_Wifi_BLE_SDK/GD32VW55x_RELEASE_V1.0.2/MSDK/cloud/alicloud/src/infra/utils/digest\utils_sha1.c ****     P(E, A, B, C, D, R(16));
 673              		.loc 1 140 5
 674 0470 334D5C01 		xor	s10,s8,s5
 675 0474 330C0701 		add	s8,a4,a6
 676 0478 4E9C     		add	s8,s8,s3
 677 047a 93DC2C60 		rori	s9,s9,2
 678              	.LVL68:
 679 047e B3098D01 		add	s3,s10,s8
 680              	.LVL69:
 681              		.loc 1 141 5 is_stmt 0
 682 0482 33CD9501 		xor	s10,a1,s9
 683 0486 337D4D01 		and	s10,s10,s4
 140:C:/Users/stapi/OneDrive/Desktop/GD32VW553/V1_MQTT_OK/GD32VW55X_Wifi_BLE_SDK/GD32VW55x_RELEASE_V1.0.2/MSDK/cloud/alicloud/src/infra/utils/digest\utils_sha1.c ****     P(E, A, B, C, D, R(16));
 684              		.loc 1 140 5
 685 048a 331CFA60 		rol	s8,s4,a5
 686 048e 4E9C     		add	s8,s8,s3
 687              	.LVL70:
 140:C:/Users/stapi/OneDrive/Desktop/GD32VW553/V1_MQTT_OK/GD32VW55X_Wifi_BLE_SDK/GD32VW55x_RELEASE_V1.0.2/MSDK/cloud/alicloud/src/infra/utils/digest\utils_sha1.c ****     P(E, A, B, C, D, R(16));
 688              		.loc 1 140 5 is_stmt 1
 140:C:/Users/stapi/OneDrive/Desktop/GD32VW553/V1_MQTT_OK/GD32VW55X_Wifi_BLE_SDK/GD32VW55x_RELEASE_V1.0.2/MSDK/cloud/alicloud/src/infra/utils/digest\utils_sha1.c ****     P(E, A, B, C, D, R(16));
 689              		.loc 1 140 28
 690              		.loc 1 141 5
 691 0490 8549     		li	s3,1
 692 0492 B39E3E61 		rol	t4,t4,s3
 693              	.LVL71:
 694 0496 B34DBD00 		xor	s11,s10,a1
 695 049a 338D0E01 		add	s10,t4,a6
 696 049e EA9A     		add	s5,s10,s5
 697              	.LVL72:
 698 04a0 EE9A     		add	s5,s11,s5
 699 04a2 331DFC60 		rol	s10,s8,a5
 142:C:/Users/stapi/OneDrive/Desktop/GD32VW553/V1_MQTT_OK/GD32VW55X_Wifi_BLE_SDK/GD32VW55x_RELEASE_V1.0.2/MSDK/cloud/alicloud/src/infra/utils/digest\utils_sha1.c ****     P(D, E, A, B, C, R(17));
 700              		.loc 1 142 5 is_stmt 0
 701 04a6 B3C89800 		xor	a7,a7,s1
 141:C:/Users/stapi/OneDrive/Desktop/GD32VW553/V1_MQTT_OK/GD32VW55X_Wifi_BLE_SDK/GD32VW55x_RELEASE_V1.0.2/MSDK/cloud/alicloud/src/infra/utils/digest\utils_sha1.c ****     P(D, E, A, B, C, R(17));
 702              		.loc 1 141 5
 703 04aa 135A2A60 		rori	s4,s4,2
 704              	.LVL73:
 705 04ae EA9A     		add	s5,s10,s5
 706              	.LVL74:
 141:C:/Users/stapi/OneDrive/Desktop/GD32VW553/V1_MQTT_OK/GD32VW55X_Wifi_BLE_SDK/GD32VW55x_RELEASE_V1.0.2/MSDK/cloud/alicloud/src/infra/utils/digest\utils_sha1.c ****     P(D, E, A, B, C, R(17));
 707              		.loc 1 141 5 is_stmt 1
 141:C:/Users/stapi/OneDrive/Desktop/GD32VW553/V1_MQTT_OK/GD32VW55X_Wifi_BLE_SDK/GD32VW55x_RELEASE_V1.0.2/MSDK/cloud/alicloud/src/infra/utils/digest\utils_sha1.c ****     P(D, E, A, B, C, R(17));
 708              		.loc 1 141 28
 709              		.loc 1 142 5
 710 04b0 B3C85800 		xor	a7,a7,t0
 711 04b4 33CD4C01 		xor	s10,s9,s4
 712 04b8 337D8D01 		and	s10,s10,s8
 713 04bc B3C8D800 		xor	a7,a7,a3
 714 04c0 B3983861 		rol	a7,a7,s3
 715              	.LVL75:
 716 04c4 B34D9D01 		xor	s11,s10,s9
 717 04c8 338D0801 		add	s10,a7,a6
 718 04cc EA95     		add	a1,s10,a1
 719              	.LVL76:
 143:C:/Users/stapi/OneDrive/Desktop/GD32VW553/V1_MQTT_OK/GD32VW55X_Wifi_BLE_SDK/GD32VW55x_RELEASE_V1.0.2/MSDK/cloud/alicloud/src/infra/utils/digest\utils_sha1.c ****     P(C, D, E, A, B, R(18));
 720              		.loc 1 143 5 is_stmt 0
 721 04ce 33497900 		xor	s2,s2,t2
 142:C:/Users/stapi/OneDrive/Desktop/GD32VW553/V1_MQTT_OK/GD32VW55X_Wifi_BLE_SDK/GD32VW55x_RELEASE_V1.0.2/MSDK/cloud/alicloud/src/infra/utils/digest\utils_sha1.c ****     P(D, E, A, B, C, R(17));
 722              		.loc 1 142 5
 723 04d2 135C2C60 		rori	s8,s8,2
 724              	.LVL77:
 725 04d6 EE95     		add	a1,s11,a1
 726              		.loc 1 143 5
 727 04d8 3349E901 		xor	s2,s2,t5
 728 04dc B34D8A01 		xor	s11,s4,s8
 142:C:/Users/stapi/OneDrive/Desktop/GD32VW553/V1_MQTT_OK/GD32VW55X_Wifi_BLE_SDK/GD32VW55x_RELEASE_V1.0.2/MSDK/cloud/alicloud/src/infra/utils/digest\utils_sha1.c ****     P(D, E, A, B, C, R(17));
 729              		.loc 1 142 5
 730 04e0 339DFA60 		rol	s10,s5,a5
 731              		.loc 1 143 5
 732 04e4 B3FD5D01 		and	s11,s11,s5
 733 04e8 3349E900 		xor	s2,s2,a4
 734 04ec 33193961 		rol	s2,s2,s3
 142:C:/Users/stapi/OneDrive/Desktop/GD32VW553/V1_MQTT_OK/GD32VW55X_Wifi_BLE_SDK/GD32VW55x_RELEASE_V1.0.2/MSDK/cloud/alicloud/src/infra/utils/digest\utils_sha1.c ****     P(D, E, A, B, C, R(17));
 735              		.loc 1 142 5
 736 04f0 EA95     		add	a1,s10,a1
 737              	.LVL78:
 142:C:/Users/stapi/OneDrive/Desktop/GD32VW553/V1_MQTT_OK/GD32VW55X_Wifi_BLE_SDK/GD32VW55x_RELEASE_V1.0.2/MSDK/cloud/alicloud/src/infra/utils/digest\utils_sha1.c ****     P(D, E, A, B, C, R(17));
 738              		.loc 1 142 5 is_stmt 1
 142:C:/Users/stapi/OneDrive/Desktop/GD32VW553/V1_MQTT_OK/GD32VW55X_Wifi_BLE_SDK/GD32VW55x_RELEASE_V1.0.2/MSDK/cloud/alicloud/src/infra/utils/digest\utils_sha1.c ****     P(D, E, A, B, C, R(17));
 739              		.loc 1 142 28
 740              		.loc 1 143 5
 144:C:/Users/stapi/OneDrive/Desktop/GD32VW553/V1_MQTT_OK/GD32VW55X_Wifi_BLE_SDK/GD32VW55x_RELEASE_V1.0.2/MSDK/cloud/alicloud/src/infra/utils/digest\utils_sha1.c ****     P(B, C, D, E, A, R(19));
 741              		.loc 1 144 5 is_stmt 0
 742 04f2 B3C4F401 		xor	s1,s1,t6
 143:C:/Users/stapi/OneDrive/Desktop/GD32VW553/V1_MQTT_OK/GD32VW55X_Wifi_BLE_SDK/GD32VW55x_RELEASE_V1.0.2/MSDK/cloud/alicloud/src/infra/utils/digest\utils_sha1.c ****     P(C, D, E, A, B, R(18));
 743              		.loc 1 143 5
 744 04f6 33CD4D01 		xor	s10,s11,s4
 745 04fa B30D0901 		add	s11,s2,a6
 746 04fe E69D     		add	s11,s11,s9
 747              		.loc 1 144 5
 748 0500 B3C46400 		xor	s1,s1,t1
 749 0504 B30CBD01 		add	s9,s10,s11
 750              	.LVL79:
 143:C:/Users/stapi/OneDrive/Desktop/GD32VW553/V1_MQTT_OK/GD32VW55X_Wifi_BLE_SDK/GD32VW55x_RELEASE_V1.0.2/MSDK/cloud/alicloud/src/infra/utils/digest\utils_sha1.c ****     P(C, D, E, A, B, R(18));
 751              		.loc 1 143 5
 752 0508 93DA2A60 		rori	s5,s5,2
 753              	.LVL80:
 754              		.loc 1 144 5
 755 050c B3C4D401 		xor	s1,s1,t4
 756 0510 334D5C01 		xor	s10,s8,s5
 757 0514 B3943461 		rol	s1,s1,s3
 758 0518 337DBD00 		and	s10,s10,a1
 759 051c 2698     		add	a6,s1,a6
 145:C:/Users/stapi/OneDrive/Desktop/GD32VW553/V1_MQTT_OK/GD32VW55X_Wifi_BLE_SDK/GD32VW55x_RELEASE_V1.0.2/MSDK/cloud/alicloud/src/infra/utils/digest\utils_sha1.c **** 
 146:C:/Users/stapi/OneDrive/Desktop/GD32VW553/V1_MQTT_OK/GD32VW55X_Wifi_BLE_SDK/GD32VW55x_RELEASE_V1.0.2/MSDK/cloud/alicloud/src/infra/utils/digest\utils_sha1.c **** #undef K
 147:C:/Users/stapi/OneDrive/Desktop/GD32VW553/V1_MQTT_OK/GD32VW55X_Wifi_BLE_SDK/GD32VW55x_RELEASE_V1.0.2/MSDK/cloud/alicloud/src/infra/utils/digest\utils_sha1.c **** #undef F
 148:C:/Users/stapi/OneDrive/Desktop/GD32VW553/V1_MQTT_OK/GD32VW55X_Wifi_BLE_SDK/GD32VW55x_RELEASE_V1.0.2/MSDK/cloud/alicloud/src/infra/utils/digest\utils_sha1.c **** 
 149:C:/Users/stapi/OneDrive/Desktop/GD32VW553/V1_MQTT_OK/GD32VW55X_Wifi_BLE_SDK/GD32VW55x_RELEASE_V1.0.2/MSDK/cloud/alicloud/src/infra/utils/digest\utils_sha1.c **** #define F(x,y,z) (x ^ y ^ z)
 150:C:/Users/stapi/OneDrive/Desktop/GD32VW553/V1_MQTT_OK/GD32VW55X_Wifi_BLE_SDK/GD32VW55x_RELEASE_V1.0.2/MSDK/cloud/alicloud/src/infra/utils/digest\utils_sha1.c **** #define K 0x6ED9EBA1
 151:C:/Users/stapi/OneDrive/Desktop/GD32VW553/V1_MQTT_OK/GD32VW55X_Wifi_BLE_SDK/GD32VW55x_RELEASE_V1.0.2/MSDK/cloud/alicloud/src/infra/utils/digest\utils_sha1.c **** 
 152:C:/Users/stapi/OneDrive/Desktop/GD32VW553/V1_MQTT_OK/GD32VW55X_Wifi_BLE_SDK/GD32VW55x_RELEASE_V1.0.2/MSDK/cloud/alicloud/src/infra/utils/digest\utils_sha1.c ****     P(A, B, C, D, E, R(20));
 760              		.loc 1 152 5
 761 051e B3C3C301 		xor	t2,t2,t3
 143:C:/Users/stapi/OneDrive/Desktop/GD32VW553/V1_MQTT_OK/GD32VW55X_Wifi_BLE_SDK/GD32VW55x_RELEASE_V1.0.2/MSDK/cloud/alicloud/src/infra/utils/digest\utils_sha1.c ****     P(B, C, D, E, A, R(19));
 762              		.loc 1 143 5
 763 0522 B39DF560 		rol	s11,a1,a5
 764              		.loc 1 152 5
 765 0526 B3C36301 		xor	t2,t2,s6
 143:C:/Users/stapi/OneDrive/Desktop/GD32VW553/V1_MQTT_OK/GD32VW55X_Wifi_BLE_SDK/GD32VW55x_RELEASE_V1.0.2/MSDK/cloud/alicloud/src/infra/utils/digest\utils_sha1.c ****     P(B, C, D, E, A, R(19));
 766              		.loc 1 143 5
 767 052a E69D     		add	s11,s11,s9
 768              	.LVL81:
 143:C:/Users/stapi/OneDrive/Desktop/GD32VW553/V1_MQTT_OK/GD32VW55X_Wifi_BLE_SDK/GD32VW55x_RELEASE_V1.0.2/MSDK/cloud/alicloud/src/infra/utils/digest\utils_sha1.c ****     P(B, C, D, E, A, R(19));
 769              		.loc 1 143 5 is_stmt 1
 143:C:/Users/stapi/OneDrive/Desktop/GD32VW553/V1_MQTT_OK/GD32VW55X_Wifi_BLE_SDK/GD32VW55x_RELEASE_V1.0.2/MSDK/cloud/alicloud/src/infra/utils/digest\utils_sha1.c ****     P(B, C, D, E, A, R(19));
 770              		.loc 1 143 28
 144:C:/Users/stapi/OneDrive/Desktop/GD32VW553/V1_MQTT_OK/GD32VW55X_Wifi_BLE_SDK/GD32VW55x_RELEASE_V1.0.2/MSDK/cloud/alicloud/src/infra/utils/digest\utils_sha1.c ****     P(B, C, D, E, A, R(19));
 771              		.loc 1 144 5
 772 052c B34C8D01 		xor	s9,s10,s8
 773 0530 330D4801 		add	s10,a6,s4
 774 0534 37FAD96E 		li	s4,1859776512
 775              	.LVL82:
 776 0538 130A1ABA 		addi	s4,s4,-1119
 777 053c 13D82560 		rori	a6,a1,2
 778 0540 669D     		add	s10,s9,s10
 779              		.loc 1 152 5 is_stmt 0
 780 0542 B3C50A01 		xor	a1,s5,a6
 781              	.LVL83:
 144:C:/Users/stapi/OneDrive/Desktop/GD32VW553/V1_MQTT_OK/GD32VW55X_Wifi_BLE_SDK/GD32VW55x_RELEASE_V1.0.2/MSDK/cloud/alicloud/src/infra/utils/digest\utils_sha1.c ****     P(B, C, D, E, A, R(19));
 782              		.loc 1 144 5
 783 0546 B39CFD60 		rol	s9,s11,a5
 784              		.loc 1 152 5
 785 054a B3C31301 		xor	t2,t2,a7
 786 054e B3933361 		rol	t2,t2,s3
 144:C:/Users/stapi/OneDrive/Desktop/GD32VW553/V1_MQTT_OK/GD32VW55X_Wifi_BLE_SDK/GD32VW55x_RELEASE_V1.0.2/MSDK/cloud/alicloud/src/infra/utils/digest\utils_sha1.c ****     P(B, C, D, E, A, R(19));
 787              		.loc 1 144 5
 788 0552 669D     		add	s10,s9,s10
 789              	.LVL84:
 144:C:/Users/stapi/OneDrive/Desktop/GD32VW553/V1_MQTT_OK/GD32VW55X_Wifi_BLE_SDK/GD32VW55x_RELEASE_V1.0.2/MSDK/cloud/alicloud/src/infra/utils/digest\utils_sha1.c ****     P(B, C, D, E, A, R(19));
 790              		.loc 1 144 5 is_stmt 1
 144:C:/Users/stapi/OneDrive/Desktop/GD32VW553/V1_MQTT_OK/GD32VW55X_Wifi_BLE_SDK/GD32VW55x_RELEASE_V1.0.2/MSDK/cloud/alicloud/src/infra/utils/digest\utils_sha1.c ****     P(B, C, D, E, A, R(19));
 791              		.loc 1 144 28
 792              		.loc 1 152 5
 793 0554 B3CCB501 		xor	s9,a1,s11
 794 0558 B3854301 		add	a1,t2,s4
 795 055c 2E9C     		add	s8,a1,s8
 796              	.LVL85:
 153:C:/Users/stapi/OneDrive/Desktop/GD32VW553/V1_MQTT_OK/GD32VW55X_Wifi_BLE_SDK/GD32VW55x_RELEASE_V1.0.2/MSDK/cloud/alicloud/src/infra/utils/digest\utils_sha1.c ****     P(E, A, B, C, D, R(21));
 797              		.loc 1 153 5 is_stmt 0
 798 055e B3CF7F01 		xor	t6,t6,s7
 152:C:/Users/stapi/OneDrive/Desktop/GD32VW553/V1_MQTT_OK/GD32VW55X_Wifi_BLE_SDK/GD32VW55x_RELEASE_V1.0.2/MSDK/cloud/alicloud/src/infra/utils/digest\utils_sha1.c ****     P(E, A, B, C, D, R(21));
 799              		.loc 1 152 5
 800 0562 B315FD60 		rol	a1,s10,a5
 801 0566 669C     		add	s8,s9,s8
 802              		.loc 1 153 5
 803 0568 B3CFCF00 		xor	t6,t6,a2
 152:C:/Users/stapi/OneDrive/Desktop/GD32VW553/V1_MQTT_OK/GD32VW55X_Wifi_BLE_SDK/GD32VW55x_RELEASE_V1.0.2/MSDK/cloud/alicloud/src/infra/utils/digest\utils_sha1.c ****     P(E, A, B, C, D, R(21));
 804              		.loc 1 152 5
 805 056c 2E9C     		add	s8,a1,s8
 806              	.LVL86:
 152:C:/Users/stapi/OneDrive/Desktop/GD32VW553/V1_MQTT_OK/GD32VW55X_Wifi_BLE_SDK/GD32VW55x_RELEASE_V1.0.2/MSDK/cloud/alicloud/src/infra/utils/digest\utils_sha1.c ****     P(E, A, B, C, D, R(21));
 807              		.loc 1 152 5 is_stmt 1
 808 056e 93DD2D60 		rori	s11,s11,2
 809              	.LVL87:
 152:C:/Users/stapi/OneDrive/Desktop/GD32VW553/V1_MQTT_OK/GD32VW55X_Wifi_BLE_SDK/GD32VW55x_RELEASE_V1.0.2/MSDK/cloud/alicloud/src/infra/utils/digest\utils_sha1.c ****     P(E, A, B, C, D, R(21));
 810              		.loc 1 152 28
 811              		.loc 1 153 5
 812 0572 B3CF2F01 		xor	t6,t6,s2
 813 0576 B345B801 		xor	a1,a6,s11
 814 057a B39F3F61 		rol	t6,t6,s3
 815              	.LVL88:
 816 057e B3CCA501 		xor	s9,a1,s10
 817 0582 B3854F01 		add	a1,t6,s4
 818 0586 AE9A     		add	s5,a1,s5
 819              	.LVL89:
 154:C:/Users/stapi/OneDrive/Desktop/GD32VW553/V1_MQTT_OK/GD32VW55X_Wifi_BLE_SDK/GD32VW55x_RELEASE_V1.0.2/MSDK/cloud/alicloud/src/infra/utils/digest\utils_sha1.c ****     P(D, E, A, B, C, R(22));
 820              		.loc 1 154 5 is_stmt 0
 821 0588 334E8E00 		xor	t3,t3,s0
 153:C:/Users/stapi/OneDrive/Desktop/GD32VW553/V1_MQTT_OK/GD32VW55X_Wifi_BLE_SDK/GD32VW55x_RELEASE_V1.0.2/MSDK/cloud/alicloud/src/infra/utils/digest\utils_sha1.c ****     P(E, A, B, C, D, R(21));
 822              		.loc 1 153 5
 823 058c B315FC60 		rol	a1,s8,a5
 824 0590 E69A     		add	s5,s9,s5
 825              		.loc 1 154 5
 826 0592 334EDE00 		xor	t3,t3,a3
 153:C:/Users/stapi/OneDrive/Desktop/GD32VW553/V1_MQTT_OK/GD32VW55X_Wifi_BLE_SDK/GD32VW55x_RELEASE_V1.0.2/MSDK/cloud/alicloud/src/infra/utils/digest\utils_sha1.c ****     P(E, A, B, C, D, R(21));
 827              		.loc 1 153 5
 828 0596 AE9A     		add	s5,a1,s5
 829              	.LVL90:
 153:C:/Users/stapi/OneDrive/Desktop/GD32VW553/V1_MQTT_OK/GD32VW55X_Wifi_BLE_SDK/GD32VW55x_RELEASE_V1.0.2/MSDK/cloud/alicloud/src/infra/utils/digest\utils_sha1.c ****     P(E, A, B, C, D, R(21));
 830              		.loc 1 153 5 is_stmt 1
 831 0598 135D2D60 		rori	s10,s10,2
 832              	.LVL91:
 153:C:/Users/stapi/OneDrive/Desktop/GD32VW553/V1_MQTT_OK/GD32VW55X_Wifi_BLE_SDK/GD32VW55x_RELEASE_V1.0.2/MSDK/cloud/alicloud/src/infra/utils/digest\utils_sha1.c ****     P(E, A, B, C, D, R(21));
 833              		.loc 1 153 28
 834              		.loc 1 154 5
 835 059c 334E9E00 		xor	t3,t3,s1
 836 05a0 B3C5AD01 		xor	a1,s11,s10
 837 05a4 331E3E61 		rol	t3,t3,s3
 838              	.LVL92:
 839 05a8 B3CC8501 		xor	s9,a1,s8
 840 05ac B3054E01 		add	a1,t3,s4
 841 05b0 C295     		add	a1,a1,a6
 842 05b2 3388BC00 		add	a6,s9,a1
 843              	.LVL93:
 844 05b6 B395FA60 		rol	a1,s5,a5
 845 05ba C295     		add	a1,a1,a6
 846              	.LVL94:
 847              		.loc 1 154 5
 155:C:/Users/stapi/OneDrive/Desktop/GD32VW553/V1_MQTT_OK/GD32VW55X_Wifi_BLE_SDK/GD32VW55x_RELEASE_V1.0.2/MSDK/cloud/alicloud/src/infra/utils/digest\utils_sha1.c ****     P(C, D, E, A, B, R(23));
 848              		.loc 1 155 5 is_stmt 0
 849 05bc 33C85B00 		xor	a6,s7,t0
 850 05c0 3348E800 		xor	a6,a6,a4
 154:C:/Users/stapi/OneDrive/Desktop/GD32VW553/V1_MQTT_OK/GD32VW55X_Wifi_BLE_SDK/GD32VW55x_RELEASE_V1.0.2/MSDK/cloud/alicloud/src/infra/utils/digest\utils_sha1.c ****     P(D, E, A, B, C, R(22));
 851              		.loc 1 154 5
 852 05c4 135C2C60 		rori	s8,s8,2
 853              	.LVL95:
 154:C:/Users/stapi/OneDrive/Desktop/GD32VW553/V1_MQTT_OK/GD32VW55X_Wifi_BLE_SDK/GD32VW55x_RELEASE_V1.0.2/MSDK/cloud/alicloud/src/infra/utils/digest\utils_sha1.c ****     P(D, E, A, B, C, R(22));
 854              		.loc 1 154 28 is_stmt 1
 855              		.loc 1 155 5
 856 05c8 33487800 		xor	a6,a6,t2
 857              	.LVL96:
 858 05cc B34B8D01 		xor	s7,s10,s8
 859 05d0 33183861 		rol	a6,a6,s3
 860              	.LVL97:
 861 05d4 B3CC5B01 		xor	s9,s7,s5
 156:C:/Users/stapi/OneDrive/Desktop/GD32VW553/V1_MQTT_OK/GD32VW55X_Wifi_BLE_SDK/GD32VW55x_RELEASE_V1.0.2/MSDK/cloud/alicloud/src/infra/utils/digest\utils_sha1.c ****     P(B, C, D, E, A, R(24));
 862              		.loc 1 156 5 is_stmt 0
 863 05d8 3344E401 		xor	s0,s0,t5
 864 05dc B30B4801 		add	s7,a6,s4
 865 05e0 DE9D     		add	s11,s7,s11
 866              	.LVL98:
 867 05e2 3344D401 		xor	s0,s0,t4
 155:C:/Users/stapi/OneDrive/Desktop/GD32VW553/V1_MQTT_OK/GD32VW55X_Wifi_BLE_SDK/GD32VW55x_RELEASE_V1.0.2/MSDK/cloud/alicloud/src/infra/utils/digest\utils_sha1.c ****     P(C, D, E, A, B, R(23));
 868              		.loc 1 155 5
 869 05e6 B39BF560 		rol	s7,a1,a5
 870 05ea 93DA2A60 		rori	s5,s5,2
 871              	.LVL99:
 872 05ee E69D     		add	s11,s9,s11
 873              		.loc 1 156 5
 874 05f0 3344F401 		xor	s0,s0,t6
 875 05f4 B34C5C01 		xor	s9,s8,s5
 876 05f8 33143461 		rol	s0,s0,s3
 155:C:/Users/stapi/OneDrive/Desktop/GD32VW553/V1_MQTT_OK/GD32VW55X_Wifi_BLE_SDK/GD32VW55x_RELEASE_V1.0.2/MSDK/cloud/alicloud/src/infra/utils/digest\utils_sha1.c ****     P(C, D, E, A, B, R(23));
 877              		.loc 1 155 5
 878 05fc DE9D     		add	s11,s7,s11
 879              	.LVL100:
 155:C:/Users/stapi/OneDrive/Desktop/GD32VW553/V1_MQTT_OK/GD32VW55X_Wifi_BLE_SDK/GD32VW55x_RELEASE_V1.0.2/MSDK/cloud/alicloud/src/infra/utils/digest\utils_sha1.c ****     P(C, D, E, A, B, R(23));
 880              		.loc 1 155 5 is_stmt 1
 155:C:/Users/stapi/OneDrive/Desktop/GD32VW553/V1_MQTT_OK/GD32VW55X_Wifi_BLE_SDK/GD32VW55x_RELEASE_V1.0.2/MSDK/cloud/alicloud/src/infra/utils/digest\utils_sha1.c ****     P(C, D, E, A, B, R(23));
 881              		.loc 1 155 28
 882              		.loc 1 156 5
 157:C:/Users/stapi/OneDrive/Desktop/GD32VW553/V1_MQTT_OK/GD32VW55X_Wifi_BLE_SDK/GD32VW55x_RELEASE_V1.0.2/MSDK/cloud/alicloud/src/infra/utils/digest\utils_sha1.c ****     P(A, B, C, D, E, R(25));
 883              		.loc 1 157 5 is_stmt 0
 884 05fe B3C26200 		xor	t0,t0,t1
 156:C:/Users/stapi/OneDrive/Desktop/GD32VW553/V1_MQTT_OK/GD32VW55X_Wifi_BLE_SDK/GD32VW55x_RELEASE_V1.0.2/MSDK/cloud/alicloud/src/infra/utils/digest\utils_sha1.c ****     P(B, C, D, E, A, R(24));
 885              		.loc 1 156 5
 886 0602 B3CBBC00 		xor	s7,s9,a1
 887 0606 B30C4401 		add	s9,s0,s4
 888 060a EA9C     		add	s9,s9,s10
 889              		.loc 1 157 5
 890 060c B3C21201 		xor	t0,t0,a7
 891 0610 338D9B01 		add	s10,s7,s9
 892              	.LVL101:
 156:C:/Users/stapi/OneDrive/Desktop/GD32VW553/V1_MQTT_OK/GD32VW55X_Wifi_BLE_SDK/GD32VW55x_RELEASE_V1.0.2/MSDK/cloud/alicloud/src/infra/utils/digest\utils_sha1.c ****     P(B, C, D, E, A, R(24));
 893              		.loc 1 156 5
 894 0614 93D52560 		rori	a1,a1,2
 895              	.LVL102:
 896              		.loc 1 157 5
 897 0618 B3C2C201 		xor	t0,t0,t3
 898 061c B3CBBA00 		xor	s7,s5,a1
 899 0620 B3923261 		rol	t0,t0,s3
 156:C:/Users/stapi/OneDrive/Desktop/GD32VW553/V1_MQTT_OK/GD32VW55X_Wifi_BLE_SDK/GD32VW55x_RELEASE_V1.0.2/MSDK/cloud/alicloud/src/infra/utils/digest\utils_sha1.c ****     P(B, C, D, E, A, R(24));
 900              		.loc 1 156 5
 901 0624 B39CFD60 		rol	s9,s11,a5
 902 0628 EA9C     		add	s9,s9,s10
 903              	.LVL103:
 156:C:/Users/stapi/OneDrive/Desktop/GD32VW553/V1_MQTT_OK/GD32VW55X_Wifi_BLE_SDK/GD32VW55x_RELEASE_V1.0.2/MSDK/cloud/alicloud/src/infra/utils/digest\utils_sha1.c ****     P(B, C, D, E, A, R(24));
 904              		.loc 1 156 5 is_stmt 1
 156:C:/Users/stapi/OneDrive/Desktop/GD32VW553/V1_MQTT_OK/GD32VW55X_Wifi_BLE_SDK/GD32VW55x_RELEASE_V1.0.2/MSDK/cloud/alicloud/src/infra/utils/digest\utils_sha1.c ****     P(B, C, D, E, A, R(24));
 905              		.loc 1 156 28
 906              		.loc 1 157 5
 907 062a 33CDBB01 		xor	s10,s7,s11
 908 062e B38B4201 		add	s7,t0,s4
 909 0632 5E9C     		add	s8,s7,s8
 910              	.LVL104:
 158:C:/Users/stapi/OneDrive/Desktop/GD32VW553/V1_MQTT_OK/GD32VW55X_Wifi_BLE_SDK/GD32VW55x_RELEASE_V1.0.2/MSDK/cloud/alicloud/src/infra/utils/digest\utils_sha1.c ****     P(E, A, B, C, D, R(26));
 911              		.loc 1 158 5 is_stmt 0
 912 0634 334F6F01 		xor	t5,t5,s6
 157:C:/Users/stapi/OneDrive/Desktop/GD32VW553/V1_MQTT_OK/GD32VW55X_Wifi_BLE_SDK/GD32VW55x_RELEASE_V1.0.2/MSDK/cloud/alicloud/src/infra/utils/digest\utils_sha1.c ****     P(A, B, C, D, E, R(25));
 913              		.loc 1 157 5
 914 0638 B39BFC60 		rol	s7,s9,a5
 915 063c 6A9C     		add	s8,s10,s8
 916              		.loc 1 158 5
 917 063e 334F2F01 		xor	t5,t5,s2
 157:C:/Users/stapi/OneDrive/Desktop/GD32VW553/V1_MQTT_OK/GD32VW55X_Wifi_BLE_SDK/GD32VW55x_RELEASE_V1.0.2/MSDK/cloud/alicloud/src/infra/utils/digest\utils_sha1.c ****     P(A, B, C, D, E, R(25));
 918              		.loc 1 157 5
 919 0642 5E9C     		add	s8,s7,s8
 920              	.LVL105:
 157:C:/Users/stapi/OneDrive/Desktop/GD32VW553/V1_MQTT_OK/GD32VW55X_Wifi_BLE_SDK/GD32VW55x_RELEASE_V1.0.2/MSDK/cloud/alicloud/src/infra/utils/digest\utils_sha1.c ****     P(A, B, C, D, E, R(25));
 921              		.loc 1 157 5 is_stmt 1
 922 0644 93DD2D60 		rori	s11,s11,2
 923              	.LVL106:
 157:C:/Users/stapi/OneDrive/Desktop/GD32VW553/V1_MQTT_OK/GD32VW55X_Wifi_BLE_SDK/GD32VW55x_RELEASE_V1.0.2/MSDK/cloud/alicloud/src/infra/utils/digest\utils_sha1.c ****     P(A, B, C, D, E, R(25));
 924              		.loc 1 157 28
 925              		.loc 1 158 5
 926 0648 334F0F01 		xor	t5,t5,a6
 927 064c B3CBB501 		xor	s7,a1,s11
 928 0650 331F3F61 		rol	t5,t5,s3
 929 0654 33CD9B01 		xor	s10,s7,s9
 930 0658 B30B4F01 		add	s7,t5,s4
 931 065c DE9A     		add	s5,s7,s5
 932              	.LVL107:
 159:C:/Users/stapi/OneDrive/Desktop/GD32VW553/V1_MQTT_OK/GD32VW55X_Wifi_BLE_SDK/GD32VW55x_RELEASE_V1.0.2/MSDK/cloud/alicloud/src/infra/utils/digest\utils_sha1.c ****     P(D, E, A, B, C, R(27));
 933              		.loc 1 159 5 is_stmt 0
 934 065e 3343C300 		xor	t1,t1,a2
 158:C:/Users/stapi/OneDrive/Desktop/GD32VW553/V1_MQTT_OK/GD32VW55X_Wifi_BLE_SDK/GD32VW55x_RELEASE_V1.0.2/MSDK/cloud/alicloud/src/infra/utils/digest\utils_sha1.c ****     P(E, A, B, C, D, R(26));
 935              		.loc 1 158 5
 936 0662 B31BFC60 		rol	s7,s8,a5
 937 0666 EA9A     		add	s5,s10,s5
 938              		.loc 1 159 5
 939 0668 33439300 		xor	t1,t1,s1
 158:C:/Users/stapi/OneDrive/Desktop/GD32VW553/V1_MQTT_OK/GD32VW55X_Wifi_BLE_SDK/GD32VW55x_RELEASE_V1.0.2/MSDK/cloud/alicloud/src/infra/utils/digest\utils_sha1.c ****     P(E, A, B, C, D, R(26));
 940              		.loc 1 158 5
 941 066c DE9A     		add	s5,s7,s5
 942              	.LVL108:
 158:C:/Users/stapi/OneDrive/Desktop/GD32VW553/V1_MQTT_OK/GD32VW55X_Wifi_BLE_SDK/GD32VW55x_RELEASE_V1.0.2/MSDK/cloud/alicloud/src/infra/utils/digest\utils_sha1.c ****     P(E, A, B, C, D, R(26));
 943              		.loc 1 158 5 is_stmt 1
 944 066e 93DC2C60 		rori	s9,s9,2
 945              	.LVL109:
 158:C:/Users/stapi/OneDrive/Desktop/GD32VW553/V1_MQTT_OK/GD32VW55X_Wifi_BLE_SDK/GD32VW55x_RELEASE_V1.0.2/MSDK/cloud/alicloud/src/infra/utils/digest\utils_sha1.c ****     P(E, A, B, C, D, R(26));
 946              		.loc 1 158 28
 947              		.loc 1 159 5
 948 0672 33438300 		xor	t1,t1,s0
 949 0676 B3CB9D01 		xor	s7,s11,s9
 950 067a 33133361 		rol	t1,t1,s3
 951 067e 33CD8B01 		xor	s10,s7,s8
 952 0682 B30B4301 		add	s7,t1,s4
 953 0686 AE9B     		add	s7,s7,a1
 954 0688 B3057D01 		add	a1,s10,s7
 955              	.LVL110:
 956 068c B39BFA60 		rol	s7,s5,a5
 957 0690 AE9B     		add	s7,s7,a1
 958              	.LVL111:
 959              		.loc 1 159 5
 160:C:/Users/stapi/OneDrive/Desktop/GD32VW553/V1_MQTT_OK/GD32VW55X_Wifi_BLE_SDK/GD32VW55x_RELEASE_V1.0.2/MSDK/cloud/alicloud/src/infra/utils/digest\utils_sha1.c ****     P(C, D, E, A, B, R(28));
 960              		.loc 1 160 5 is_stmt 0
 961 0692 B345DB00 		xor	a1,s6,a3
 962 0696 B3C57500 		xor	a1,a1,t2
 159:C:/Users/stapi/OneDrive/Desktop/GD32VW553/V1_MQTT_OK/GD32VW55X_Wifi_BLE_SDK/GD32VW55x_RELEASE_V1.0.2/MSDK/cloud/alicloud/src/infra/utils/digest\utils_sha1.c ****     P(D, E, A, B, C, R(27));
 963              		.loc 1 159 5
 964 069a 135C2C60 		rori	s8,s8,2
 965              	.LVL112:
 159:C:/Users/stapi/OneDrive/Desktop/GD32VW553/V1_MQTT_OK/GD32VW55X_Wifi_BLE_SDK/GD32VW55x_RELEASE_V1.0.2/MSDK/cloud/alicloud/src/infra/utils/digest\utils_sha1.c ****     P(D, E, A, B, C, R(27));
 966              		.loc 1 159 28 is_stmt 1
 967              		.loc 1 160 5
 968 069e B3C55500 		xor	a1,a1,t0
 969              	.LVL113:
 970 06a2 33CB8C01 		xor	s6,s9,s8
 971 06a6 B3953561 		rol	a1,a1,s3
 972              	.LVL114:
 973 06aa 334D5B01 		xor	s10,s6,s5
 161:C:/Users/stapi/OneDrive/Desktop/GD32VW553/V1_MQTT_OK/GD32VW55X_Wifi_BLE_SDK/GD32VW55x_RELEASE_V1.0.2/MSDK/cloud/alicloud/src/infra/utils/digest\utils_sha1.c ****     P(B, C, D, E, A, R(29));
 974              		.loc 1 161 5 is_stmt 0
 975 06ae 398E     		xor	a2,a2,a4
 976 06b0 338B4501 		add	s6,a1,s4
 977 06b4 6E9B     		add	s6,s6,s11
 978 06b6 3346F601 		xor	a2,a2,t6
 979 06ba B30D6D01 		add	s11,s10,s6
 980              	.LVL115:
 160:C:/Users/stapi/OneDrive/Desktop/GD32VW553/V1_MQTT_OK/GD32VW55X_Wifi_BLE_SDK/GD32VW55x_RELEASE_V1.0.2/MSDK/cloud/alicloud/src/infra/utils/digest\utils_sha1.c ****     P(C, D, E, A, B, R(28));
 981              		.loc 1 160 5
 982 06be 93DA2A60 		rori	s5,s5,2
 983              	.LVL116:
 984              		.loc 1 161 5
 985 06c2 3346E601 		xor	a2,a2,t5
 986 06c6 334D5C01 		xor	s10,s8,s5
 987 06ca 33163661 		rol	a2,a2,s3
 160:C:/Users/stapi/OneDrive/Desktop/GD32VW553/V1_MQTT_OK/GD32VW55X_Wifi_BLE_SDK/GD32VW55x_RELEASE_V1.0.2/MSDK/cloud/alicloud/src/infra/utils/digest\utils_sha1.c ****     P(C, D, E, A, B, R(28));
 988              		.loc 1 160 5
 989 06ce 339BFB60 		rol	s6,s7,a5
 990 06d2 6E9B     		add	s6,s6,s11
 991              	.LVL117:
 160:C:/Users/stapi/OneDrive/Desktop/GD32VW553/V1_MQTT_OK/GD32VW55X_Wifi_BLE_SDK/GD32VW55x_RELEASE_V1.0.2/MSDK/cloud/alicloud/src/infra/utils/digest\utils_sha1.c ****     P(C, D, E, A, B, R(28));
 992              		.loc 1 160 5 is_stmt 1
 160:C:/Users/stapi/OneDrive/Desktop/GD32VW553/V1_MQTT_OK/GD32VW55X_Wifi_BLE_SDK/GD32VW55x_RELEASE_V1.0.2/MSDK/cloud/alicloud/src/infra/utils/digest\utils_sha1.c ****     P(C, D, E, A, B, R(28));
 993              		.loc 1 160 28
 994              		.loc 1 161 5
 995 06d4 B34D7D01 		xor	s11,s10,s7
 996 06d8 330D4601 		add	s10,a2,s4
 997 06dc 669D     		add	s10,s10,s9
 162:C:/Users/stapi/OneDrive/Desktop/GD32VW553/V1_MQTT_OK/GD32VW55X_Wifi_BLE_SDK/GD32VW55x_RELEASE_V1.0.2/MSDK/cloud/alicloud/src/infra/utils/digest\utils_sha1.c ****     P(A, B, C, D, E, R(30));
 998              		.loc 1 162 5 is_stmt 0
 999 06de B3C6D601 		xor	a3,a3,t4
 1000 06e2 B38CAD01 		add	s9,s11,s10
 1001              	.LVL118:
 1002 06e6 B3C6C601 		xor	a3,a3,t3
 161:C:/Users/stapi/OneDrive/Desktop/GD32VW553/V1_MQTT_OK/GD32VW55X_Wifi_BLE_SDK/GD32VW55x_RELEASE_V1.0.2/MSDK/cloud/alicloud/src/infra/utils/digest\utils_sha1.c ****     P(B, C, D, E, A, R(29));
 1003              		.loc 1 161 5
 1004 06ea 331DFB60 		rol	s10,s6,a5
 1005 06ee 93DB2B60 		rori	s7,s7,2
 1006              	.LVL119:
 1007 06f2 669D     		add	s10,s10,s9
 1008              	.LVL120:
 161:C:/Users/stapi/OneDrive/Desktop/GD32VW553/V1_MQTT_OK/GD32VW55X_Wifi_BLE_SDK/GD32VW55x_RELEASE_V1.0.2/MSDK/cloud/alicloud/src/infra/utils/digest\utils_sha1.c ****     P(B, C, D, E, A, R(29));
 1009              		.loc 1 161 5 is_stmt 1
 161:C:/Users/stapi/OneDrive/Desktop/GD32VW553/V1_MQTT_OK/GD32VW55X_Wifi_BLE_SDK/GD32VW55x_RELEASE_V1.0.2/MSDK/cloud/alicloud/src/infra/utils/digest\utils_sha1.c ****     P(B, C, D, E, A, R(29));
 1010              		.loc 1 161 28
 1011              		.loc 1 162 5
 1012 06f4 B3C66600 		xor	a3,a3,t1
 1013 06f8 B3CC7A01 		xor	s9,s5,s7
 1014 06fc B3963661 		rol	a3,a3,s3
 1015 0700 B3CD6C01 		xor	s11,s9,s6
 163:C:/Users/stapi/OneDrive/Desktop/GD32VW553/V1_MQTT_OK/GD32VW55X_Wifi_BLE_SDK/GD32VW55x_RELEASE_V1.0.2/MSDK/cloud/alicloud/src/infra/utils/digest\utils_sha1.c ****     P(E, A, B, C, D, R(31));
 1016              		.loc 1 163 5 is_stmt 0
 1017 0704 33471701 		xor	a4,a4,a7
 1018 0708 B38C4601 		add	s9,a3,s4
 1019 070c 669C     		add	s8,s9,s8
 1020              	.LVL121:
 1021 070e 33470701 		xor	a4,a4,a6
 162:C:/Users/stapi/OneDrive/Desktop/GD32VW553/V1_MQTT_OK/GD32VW55X_Wifi_BLE_SDK/GD32VW55x_RELEASE_V1.0.2/MSDK/cloud/alicloud/src/infra/utils/digest\utils_sha1.c ****     P(A, B, C, D, E, R(30));
 1022              		.loc 1 162 5
 1023 0712 B31CFD60 		rol	s9,s10,a5
 1024 0716 135B2B60 		rori	s6,s6,2
 1025              	.LVL122:
 1026 071a 6E9C     		add	s8,s11,s8
 1027              		.loc 1 163 5
 1028 071c 2D8F     		xor	a4,a4,a1
 1029 071e B3CD6B01 		xor	s11,s7,s6
 1030 0722 33173761 		rol	a4,a4,s3
 162:C:/Users/stapi/OneDrive/Desktop/GD32VW553/V1_MQTT_OK/GD32VW55X_Wifi_BLE_SDK/GD32VW55x_RELEASE_V1.0.2/MSDK/cloud/alicloud/src/infra/utils/digest\utils_sha1.c ****     P(A, B, C, D, E, R(30));
 1031              		.loc 1 162 5
 1032 0726 669C     		add	s8,s9,s8
 1033              	.LVL123:
 162:C:/Users/stapi/OneDrive/Desktop/GD32VW553/V1_MQTT_OK/GD32VW55X_Wifi_BLE_SDK/GD32VW55x_RELEASE_V1.0.2/MSDK/cloud/alicloud/src/infra/utils/digest\utils_sha1.c ****     P(A, B, C, D, E, R(30));
 1034              		.loc 1 162 5 is_stmt 1
 162:C:/Users/stapi/OneDrive/Desktop/GD32VW553/V1_MQTT_OK/GD32VW55X_Wifi_BLE_SDK/GD32VW55x_RELEASE_V1.0.2/MSDK/cloud/alicloud/src/infra/utils/digest\utils_sha1.c ****     P(A, B, C, D, E, R(30));
 1035              		.loc 1 162 28
 1036              		.loc 1 163 5
 1037 0728 B3CCAD01 		xor	s9,s11,s10
 1038 072c B30D4701 		add	s11,a4,s4
 1039 0730 D69D     		add	s11,s11,s5
 164:C:/Users/stapi/OneDrive/Desktop/GD32VW553/V1_MQTT_OK/GD32VW55X_Wifi_BLE_SDK/GD32VW55x_RELEASE_V1.0.2/MSDK/cloud/alicloud/src/infra/utils/digest\utils_sha1.c ****     P(D, E, A, B, C, R(32));
 1040              		.loc 1 164 5 is_stmt 0
 1041 0732 B3CE2E01 		xor	t4,t4,s2
 1042              	.LVL124:
 1043 0736 B38ABC01 		add	s5,s9,s11
 1044              	.LVL125:
 1045 073a B3CE8E00 		xor	t4,t4,s0
 163:C:/Users/stapi/OneDrive/Desktop/GD32VW553/V1_MQTT_OK/GD32VW55X_Wifi_BLE_SDK/GD32VW55x_RELEASE_V1.0.2/MSDK/cloud/alicloud/src/infra/utils/digest\utils_sha1.c ****     P(E, A, B, C, D, R(31));
 1046              		.loc 1 163 5
 1047 073e 135D2D60 		rori	s10,s10,2
 1048              	.LVL126:
 1049 0742 B31DFC60 		rol	s11,s8,a5
 1050              		.loc 1 164 5
 1051 0746 B3CECE00 		xor	t4,t4,a2
 163:C:/Users/stapi/OneDrive/Desktop/GD32VW553/V1_MQTT_OK/GD32VW55X_Wifi_BLE_SDK/GD32VW55x_RELEASE_V1.0.2/MSDK/cloud/alicloud/src/infra/utils/digest\utils_sha1.c ****     P(E, A, B, C, D, R(31));
 1052              		.loc 1 163 5
 1053 074a D69D     		add	s11,s11,s5
 1054              	.LVL127:
 163:C:/Users/stapi/OneDrive/Desktop/GD32VW553/V1_MQTT_OK/GD32VW55X_Wifi_BLE_SDK/GD32VW55x_RELEASE_V1.0.2/MSDK/cloud/alicloud/src/infra/utils/digest\utils_sha1.c ****     P(E, A, B, C, D, R(31));
 1055              		.loc 1 163 5 is_stmt 1
 163:C:/Users/stapi/OneDrive/Desktop/GD32VW553/V1_MQTT_OK/GD32VW55X_Wifi_BLE_SDK/GD32VW55x_RELEASE_V1.0.2/MSDK/cloud/alicloud/src/infra/utils/digest\utils_sha1.c ****     P(E, A, B, C, D, R(31));
 1056              		.loc 1 163 28
 1057              		.loc 1 164 5
 1058 074c B34AAB01 		xor	s5,s6,s10
 1059 0750 B39E3E61 		rol	t4,t4,s3
 1060              	.LVL128:
 1061 0754 B3CC8A01 		xor	s9,s5,s8
 165:C:/Users/stapi/OneDrive/Desktop/GD32VW553/V1_MQTT_OK/GD32VW55X_Wifi_BLE_SDK/GD32VW55x_RELEASE_V1.0.2/MSDK/cloud/alicloud/src/infra/utils/digest\utils_sha1.c ****     P(C, D, E, A, B, R(33));
 1062              		.loc 1 165 5 is_stmt 0
 1063 0758 B3C89800 		xor	a7,a7,s1
 1064              	.LVL129:
 1065 075c B38A4E01 		add	s5,t4,s4
 1066 0760 D69B     		add	s7,s5,s7
 1067              	.LVL130:
 1068 0762 B3C85800 		xor	a7,a7,t0
 164:C:/Users/stapi/OneDrive/Desktop/GD32VW553/V1_MQTT_OK/GD32VW55X_Wifi_BLE_SDK/GD32VW55x_RELEASE_V1.0.2/MSDK/cloud/alicloud/src/infra/utils/digest\utils_sha1.c ****     P(D, E, A, B, C, R(32));
 1069              		.loc 1 164 5
 1070 0766 B39AFD60 		rol	s5,s11,a5
 1071 076a 135C2C60 		rori	s8,s8,2
 1072              	.LVL131:
 1073 076e E69B     		add	s7,s9,s7
 1074              		.loc 1 165 5
 1075 0770 B3C8D800 		xor	a7,a7,a3
 1076 0774 B34C8D01 		xor	s9,s10,s8
 1077 0778 B3983861 		rol	a7,a7,s3
 164:C:/Users/stapi/OneDrive/Desktop/GD32VW553/V1_MQTT_OK/GD32VW55X_Wifi_BLE_SDK/GD32VW55x_RELEASE_V1.0.2/MSDK/cloud/alicloud/src/infra/utils/digest\utils_sha1.c ****     P(D, E, A, B, C, R(32));
 1078              		.loc 1 164 5
 1079 077c D69B     		add	s7,s5,s7
 1080              	.LVL132:
 164:C:/Users/stapi/OneDrive/Desktop/GD32VW553/V1_MQTT_OK/GD32VW55X_Wifi_BLE_SDK/GD32VW55x_RELEASE_V1.0.2/MSDK/cloud/alicloud/src/infra/utils/digest\utils_sha1.c ****     P(D, E, A, B, C, R(32));
 1081              		.loc 1 164 5 is_stmt 1
 164:C:/Users/stapi/OneDrive/Desktop/GD32VW553/V1_MQTT_OK/GD32VW55X_Wifi_BLE_SDK/GD32VW55x_RELEASE_V1.0.2/MSDK/cloud/alicloud/src/infra/utils/digest\utils_sha1.c ****     P(D, E, A, B, C, R(32));
 1082              		.loc 1 164 28
 1083              		.loc 1 165 5
 166:C:/Users/stapi/OneDrive/Desktop/GD32VW553/V1_MQTT_OK/GD32VW55X_Wifi_BLE_SDK/GD32VW55x_RELEASE_V1.0.2/MSDK/cloud/alicloud/src/infra/utils/digest\utils_sha1.c ****     P(B, C, D, E, A, R(34));
 1084              		.loc 1 166 5 is_stmt 0
 1085 077e 33497900 		xor	s2,s2,t2
 1086              	.LVL133:
 165:C:/Users/stapi/OneDrive/Desktop/GD32VW553/V1_MQTT_OK/GD32VW55X_Wifi_BLE_SDK/GD32VW55x_RELEASE_V1.0.2/MSDK/cloud/alicloud/src/infra/utils/digest\utils_sha1.c ****     P(C, D, E, A, B, R(33));
 1087              		.loc 1 165 5
 1088 0782 B3CABC01 		xor	s5,s9,s11
 1089 0786 B38C4801 		add	s9,a7,s4
 1090 078a DA9C     		add	s9,s9,s6
 1091              		.loc 1 166 5
 1092 078c 3349E901 		xor	s2,s2,t5
 1093 0790 338B9A01 		add	s6,s5,s9
 1094              	.LVL134:
 165:C:/Users/stapi/OneDrive/Desktop/GD32VW553/V1_MQTT_OK/GD32VW55X_Wifi_BLE_SDK/GD32VW55x_RELEASE_V1.0.2/MSDK/cloud/alicloud/src/infra/utils/digest\utils_sha1.c ****     P(C, D, E, A, B, R(33));
 1095              		.loc 1 165 5
 1096 0794 93DD2D60 		rori	s11,s11,2
 1097              	.LVL135:
 1098              		.loc 1 166 5
 1099 0798 3349E900 		xor	s2,s2,a4
 1100 079c B34ABC01 		xor	s5,s8,s11
 1101 07a0 33193961 		rol	s2,s2,s3
 165:C:/Users/stapi/OneDrive/Desktop/GD32VW553/V1_MQTT_OK/GD32VW55X_Wifi_BLE_SDK/GD32VW55x_RELEASE_V1.0.2/MSDK/cloud/alicloud/src/infra/utils/digest\utils_sha1.c ****     P(C, D, E, A, B, R(33));
 1102              		.loc 1 165 5
 1103 07a4 B39CFB60 		rol	s9,s7,a5
 167:C:/Users/stapi/OneDrive/Desktop/GD32VW553/V1_MQTT_OK/GD32VW55X_Wifi_BLE_SDK/GD32VW55x_RELEASE_V1.0.2/MSDK/cloud/alicloud/src/infra/utils/digest\utils_sha1.c ****     P(A, B, C, D, E, R(35));
 1104              		.loc 1 167 5
 1105 07a8 B3C4F401 		xor	s1,s1,t6
 1106              	.LVL136:
 165:C:/Users/stapi/OneDrive/Desktop/GD32VW553/V1_MQTT_OK/GD32VW55X_Wifi_BLE_SDK/GD32VW55x_RELEASE_V1.0.2/MSDK/cloud/alicloud/src/infra/utils/digest\utils_sha1.c ****     P(C, D, E, A, B, R(33));
 1107              		.loc 1 165 5
 1108 07ac DA9C     		add	s9,s9,s6
 1109              	.LVL137:
 165:C:/Users/stapi/OneDrive/Desktop/GD32VW553/V1_MQTT_OK/GD32VW55X_Wifi_BLE_SDK/GD32VW55x_RELEASE_V1.0.2/MSDK/cloud/alicloud/src/infra/utils/digest\utils_sha1.c ****     P(C, D, E, A, B, R(33));
 1110              		.loc 1 165 5 is_stmt 1
 165:C:/Users/stapi/OneDrive/Desktop/GD32VW553/V1_MQTT_OK/GD32VW55X_Wifi_BLE_SDK/GD32VW55x_RELEASE_V1.0.2/MSDK/cloud/alicloud/src/infra/utils/digest\utils_sha1.c ****     P(C, D, E, A, B, R(33));
 1111              		.loc 1 165 28
 166:C:/Users/stapi/OneDrive/Desktop/GD32VW553/V1_MQTT_OK/GD32VW55X_Wifi_BLE_SDK/GD32VW55x_RELEASE_V1.0.2/MSDK/cloud/alicloud/src/infra/utils/digest\utils_sha1.c ****     P(B, C, D, E, A, R(34));
 1112              		.loc 1 166 5
 1113 07ae 33CB7A01 		xor	s6,s5,s7
 1114 07b2 B30A4901 		add	s5,s2,s4
 1115 07b6 EA9A     		add	s5,s5,s10
 1116              		.loc 1 167 5 is_stmt 0
 1117 07b8 B3C46400 		xor	s1,s1,t1
 1118 07bc 330D5B01 		add	s10,s6,s5
 1119              	.LVL138:
 166:C:/Users/stapi/OneDrive/Desktop/GD32VW553/V1_MQTT_OK/GD32VW55X_Wifi_BLE_SDK/GD32VW55x_RELEASE_V1.0.2/MSDK/cloud/alicloud/src/infra/utils/digest\utils_sha1.c ****     P(B, C, D, E, A, R(34));
 1120              		.loc 1 166 5
 1121 07c0 93DB2B60 		rori	s7,s7,2
 1122              	.LVL139:
 1123              		.loc 1 167 5
 1124 07c4 B3C4D401 		xor	s1,s1,t4
 1125 07c8 33CB7D01 		xor	s6,s11,s7
 1126 07cc B3943461 		rol	s1,s1,s3
 166:C:/Users/stapi/OneDrive/Desktop/GD32VW553/V1_MQTT_OK/GD32VW55X_Wifi_BLE_SDK/GD32VW55x_RELEASE_V1.0.2/MSDK/cloud/alicloud/src/infra/utils/digest\utils_sha1.c ****     P(B, C, D, E, A, R(34));
 1127              		.loc 1 166 5
 1128 07d0 B39AFC60 		rol	s5,s9,a5
 1129 07d4 EA9A     		add	s5,s5,s10
 1130              	.LVL140:
 166:C:/Users/stapi/OneDrive/Desktop/GD32VW553/V1_MQTT_OK/GD32VW55X_Wifi_BLE_SDK/GD32VW55x_RELEASE_V1.0.2/MSDK/cloud/alicloud/src/infra/utils/digest\utils_sha1.c ****     P(B, C, D, E, A, R(34));
 1131              		.loc 1 166 5 is_stmt 1
 166:C:/Users/stapi/OneDrive/Desktop/GD32VW553/V1_MQTT_OK/GD32VW55X_Wifi_BLE_SDK/GD32VW55x_RELEASE_V1.0.2/MSDK/cloud/alicloud/src/infra/utils/digest\utils_sha1.c ****     P(B, C, D, E, A, R(34));
 1132              		.loc 1 166 28
 1133              		.loc 1 167 5
 1134 07d6 334D9B01 		xor	s10,s6,s9
 1135 07da 338B4401 		add	s6,s1,s4
 1136 07de 5A9C     		add	s8,s6,s8
 1137              	.LVL141:
 168:C:/Users/stapi/OneDrive/Desktop/GD32VW553/V1_MQTT_OK/GD32VW55X_Wifi_BLE_SDK/GD32VW55x_RELEASE_V1.0.2/MSDK/cloud/alicloud/src/infra/utils/digest\utils_sha1.c ****     P(E, A, B, C, D, R(36));
 1138              		.loc 1 168 5 is_stmt 0
 1139 07e0 B3C3C301 		xor	t2,t2,t3
 1140              	.LVL142:
 167:C:/Users/stapi/OneDrive/Desktop/GD32VW553/V1_MQTT_OK/GD32VW55X_Wifi_BLE_SDK/GD32VW55x_RELEASE_V1.0.2/MSDK/cloud/alicloud/src/infra/utils/digest\utils_sha1.c ****     P(A, B, C, D, E, R(35));
 1141              		.loc 1 167 5
 1142 07e4 339BFA60 		rol	s6,s5,a5
 1143 07e8 6A9C     		add	s8,s10,s8
 1144              		.loc 1 168 5
 1145 07ea B3C3B300 		xor	t2,t2,a1
 167:C:/Users/stapi/OneDrive/Desktop/GD32VW553/V1_MQTT_OK/GD32VW55X_Wifi_BLE_SDK/GD32VW55x_RELEASE_V1.0.2/MSDK/cloud/alicloud/src/infra/utils/digest\utils_sha1.c ****     P(A, B, C, D, E, R(35));
 1146              		.loc 1 167 5
 1147 07ee 5A9C     		add	s8,s6,s8
 1148              	.LVL143:
 167:C:/Users/stapi/OneDrive/Desktop/GD32VW553/V1_MQTT_OK/GD32VW55X_Wifi_BLE_SDK/GD32VW55x_RELEASE_V1.0.2/MSDK/cloud/alicloud/src/infra/utils/digest\utils_sha1.c ****     P(A, B, C, D, E, R(35));
 1149              		.loc 1 167 5 is_stmt 1
 1150 07f0 93DC2C60 		rori	s9,s9,2
 1151              	.LVL144:
 167:C:/Users/stapi/OneDrive/Desktop/GD32VW553/V1_MQTT_OK/GD32VW55X_Wifi_BLE_SDK/GD32VW55x_RELEASE_V1.0.2/MSDK/cloud/alicloud/src/infra/utils/digest\utils_sha1.c ****     P(A, B, C, D, E, R(35));
 1152              		.loc 1 167 28
 1153              		.loc 1 168 5
 1154 07f4 B3C31301 		xor	t2,t2,a7
 1155 07f8 33CB9B01 		xor	s6,s7,s9
 1156 07fc B3933361 		rol	t2,t2,s3
 1157              	.LVL145:
 1158 0800 334D5B01 		xor	s10,s6,s5
 169:C:/Users/stapi/OneDrive/Desktop/GD32VW553/V1_MQTT_OK/GD32VW55X_Wifi_BLE_SDK/GD32VW55x_RELEASE_V1.0.2/MSDK/cloud/alicloud/src/infra/utils/digest\utils_sha1.c ****     P(D, E, A, B, C, R(37));
 1159              		.loc 1 169 5 is_stmt 0
 1160 0804 B3CF0F01 		xor	t6,t6,a6
 1161              	.LVL146:
 1162 0808 338B4301 		add	s6,t2,s4
 1163 080c 6E9B     		add	s6,s6,s11
 1164 080e B3CFCF00 		xor	t6,t6,a2
 1165 0812 B30D6D01 		add	s11,s10,s6
 1166              	.LVL147:
 168:C:/Users/stapi/OneDrive/Desktop/GD32VW553/V1_MQTT_OK/GD32VW55X_Wifi_BLE_SDK/GD32VW55x_RELEASE_V1.0.2/MSDK/cloud/alicloud/src/infra/utils/digest\utils_sha1.c ****     P(E, A, B, C, D, R(36));
 1167              		.loc 1 168 5
 1168 0816 93DA2A60 		rori	s5,s5,2
 1169              	.LVL148:
 1170              		.loc 1 169 5
 1171 081a B3CF2F01 		xor	t6,t6,s2
 1172 081e 33CD5C01 		xor	s10,s9,s5
 1173 0822 B39F3F61 		rol	t6,t6,s3
 168:C:/Users/stapi/OneDrive/Desktop/GD32VW553/V1_MQTT_OK/GD32VW55X_Wifi_BLE_SDK/GD32VW55x_RELEASE_V1.0.2/MSDK/cloud/alicloud/src/infra/utils/digest\utils_sha1.c ****     P(E, A, B, C, D, R(36));
 1174              		.loc 1 168 5
 1175 0826 331BFC60 		rol	s6,s8,a5
 1176 082a 6E9B     		add	s6,s6,s11
 1177              	.LVL149:
 168:C:/Users/stapi/OneDrive/Desktop/GD32VW553/V1_MQTT_OK/GD32VW55X_Wifi_BLE_SDK/GD32VW55x_RELEASE_V1.0.2/MSDK/cloud/alicloud/src/infra/utils/digest\utils_sha1.c ****     P(E, A, B, C, D, R(36));
 1178              		.loc 1 168 5 is_stmt 1
 168:C:/Users/stapi/OneDrive/Desktop/GD32VW553/V1_MQTT_OK/GD32VW55X_Wifi_BLE_SDK/GD32VW55x_RELEASE_V1.0.2/MSDK/cloud/alicloud/src/infra/utils/digest\utils_sha1.c ****     P(E, A, B, C, D, R(36));
 1179              		.loc 1 168 28
 1180              		.loc 1 169 5
 1181 082c B34D8D01 		xor	s11,s10,s8
 1182 0830 338D4F01 		add	s10,t6,s4
 1183 0834 EA9B     		add	s7,s10,s7
 1184              	.LVL150:
 170:C:/Users/stapi/OneDrive/Desktop/GD32VW553/V1_MQTT_OK/GD32VW55X_Wifi_BLE_SDK/GD32VW55x_RELEASE_V1.0.2/MSDK/cloud/alicloud/src/infra/utils/digest\utils_sha1.c ****     P(C, D, E, A, B, R(38));
 1185              		.loc 1 170 5 is_stmt 0
 1186 0836 334E8E00 		xor	t3,t3,s0
 1187              	.LVL151:
 169:C:/Users/stapi/OneDrive/Desktop/GD32VW553/V1_MQTT_OK/GD32VW55X_Wifi_BLE_SDK/GD32VW55x_RELEASE_V1.0.2/MSDK/cloud/alicloud/src/infra/utils/digest\utils_sha1.c ****     P(D, E, A, B, C, R(37));
 1188              		.loc 1 169 5
 1189 083a 331DFB60 		rol	s10,s6,a5
 1190 083e EE9B     		add	s7,s11,s7
 1191              		.loc 1 170 5
 1192 0840 334EDE00 		xor	t3,t3,a3
 169:C:/Users/stapi/OneDrive/Desktop/GD32VW553/V1_MQTT_OK/GD32VW55X_Wifi_BLE_SDK/GD32VW55x_RELEASE_V1.0.2/MSDK/cloud/alicloud/src/infra/utils/digest\utils_sha1.c ****     P(D, E, A, B, C, R(37));
 1193              		.loc 1 169 5
 1194 0844 EA9B     		add	s7,s10,s7
 1195              	.LVL152:
 169:C:/Users/stapi/OneDrive/Desktop/GD32VW553/V1_MQTT_OK/GD32VW55X_Wifi_BLE_SDK/GD32VW55x_RELEASE_V1.0.2/MSDK/cloud/alicloud/src/infra/utils/digest\utils_sha1.c ****     P(D, E, A, B, C, R(37));
 1196              		.loc 1 169 5 is_stmt 1
 1197 0846 135C2C60 		rori	s8,s8,2
 1198              	.LVL153:
 169:C:/Users/stapi/OneDrive/Desktop/GD32VW553/V1_MQTT_OK/GD32VW55X_Wifi_BLE_SDK/GD32VW55x_RELEASE_V1.0.2/MSDK/cloud/alicloud/src/infra/utils/digest\utils_sha1.c ****     P(D, E, A, B, C, R(37));
 1199              		.loc 1 169 28
 1200              		.loc 1 170 5
 1201 084a 334E9E00 		xor	t3,t3,s1
 1202 084e 33CD8A01 		xor	s10,s5,s8
 1203 0852 331E3E61 		rol	t3,t3,s3
 1204              	.LVL154:
 1205 0856 B34D6D01 		xor	s11,s10,s6
 171:C:/Users/stapi/OneDrive/Desktop/GD32VW553/V1_MQTT_OK/GD32VW55X_Wifi_BLE_SDK/GD32VW55x_RELEASE_V1.0.2/MSDK/cloud/alicloud/src/infra/utils/digest\utils_sha1.c ****     P(B, C, D, E, A, R(39));
 1206              		.loc 1 171 5 is_stmt 0
 1207 085a 33485800 		xor	a6,a6,t0
 1208              	.LVL155:
 1209 085e 330D4E01 		add	s10,t3,s4
 1210 0862 EA9C     		add	s9,s10,s9
 1211              	.LVL156:
 1212 0864 3348E800 		xor	a6,a6,a4
 170:C:/Users/stapi/OneDrive/Desktop/GD32VW553/V1_MQTT_OK/GD32VW55X_Wifi_BLE_SDK/GD32VW55x_RELEASE_V1.0.2/MSDK/cloud/alicloud/src/infra/utils/digest\utils_sha1.c ****     P(C, D, E, A, B, R(38));
 1213              		.loc 1 170 5
 1214 0868 339DFB60 		rol	s10,s7,a5
 1215 086c EE9C     		add	s9,s11,s9
 1216              		.loc 1 171 5
 1217 086e 33487800 		xor	a6,a6,t2
 1218 0872 33183861 		rol	a6,a6,s3
 170:C:/Users/stapi/OneDrive/Desktop/GD32VW553/V1_MQTT_OK/GD32VW55X_Wifi_BLE_SDK/GD32VW55x_RELEASE_V1.0.2/MSDK/cloud/alicloud/src/infra/utils/digest\utils_sha1.c ****     P(C, D, E, A, B, R(38));
 1219              		.loc 1 170 5
 1220 0876 EA9C     		add	s9,s10,s9
 1221              	.LVL157:
 170:C:/Users/stapi/OneDrive/Desktop/GD32VW553/V1_MQTT_OK/GD32VW55X_Wifi_BLE_SDK/GD32VW55x_RELEASE_V1.0.2/MSDK/cloud/alicloud/src/infra/utils/digest\utils_sha1.c ****     P(C, D, E, A, B, R(38));
 1222              		.loc 1 170 5 is_stmt 1
 1223 0878 135B2B60 		rori	s6,s6,2
 1224              	.LVL158:
 170:C:/Users/stapi/OneDrive/Desktop/GD32VW553/V1_MQTT_OK/GD32VW55X_Wifi_BLE_SDK/GD32VW55x_RELEASE_V1.0.2/MSDK/cloud/alicloud/src/infra/utils/digest\utils_sha1.c ****     P(C, D, E, A, B, R(38));
 1225              		.loc 1 170 28
 1226              		.loc 1 171 5
 1227 087c 429A     		add	s4,a6,s4
 1228 087e 334D6C01 		xor	s10,s8,s6
 1229 0882 B34D7D01 		xor	s11,s10,s7
 1230 0886 330D5A01 		add	s10,s4,s5
 1231 088a 6E9D     		add	s10,s11,s10
 1232 088c 339AFC60 		rol	s4,s9,a5
 172:C:/Users/stapi/OneDrive/Desktop/GD32VW553/V1_MQTT_OK/GD32VW55X_Wifi_BLE_SDK/GD32VW55x_RELEASE_V1.0.2/MSDK/cloud/alicloud/src/infra/utils/digest\utils_sha1.c **** 
 173:C:/Users/stapi/OneDrive/Desktop/GD32VW553/V1_MQTT_OK/GD32VW55X_Wifi_BLE_SDK/GD32VW55x_RELEASE_V1.0.2/MSDK/cloud/alicloud/src/infra/utils/digest\utils_sha1.c **** #undef K
 174:C:/Users/stapi/OneDrive/Desktop/GD32VW553/V1_MQTT_OK/GD32VW55X_Wifi_BLE_SDK/GD32VW55x_RELEASE_V1.0.2/MSDK/cloud/alicloud/src/infra/utils/digest\utils_sha1.c **** #undef F
 175:C:/Users/stapi/OneDrive/Desktop/GD32VW553/V1_MQTT_OK/GD32VW55X_Wifi_BLE_SDK/GD32VW55x_RELEASE_V1.0.2/MSDK/cloud/alicloud/src/infra/utils/digest\utils_sha1.c **** 
 176:C:/Users/stapi/OneDrive/Desktop/GD32VW553/V1_MQTT_OK/GD32VW55X_Wifi_BLE_SDK/GD32VW55x_RELEASE_V1.0.2/MSDK/cloud/alicloud/src/infra/utils/digest\utils_sha1.c **** #define F(x,y,z) ((x & y) | (z & (x | y)))
 177:C:/Users/stapi/OneDrive/Desktop/GD32VW553/V1_MQTT_OK/GD32VW55X_Wifi_BLE_SDK/GD32VW55x_RELEASE_V1.0.2/MSDK/cloud/alicloud/src/infra/utils/digest\utils_sha1.c **** #define K 0x8F1BBCDC
 178:C:/Users/stapi/OneDrive/Desktop/GD32VW553/V1_MQTT_OK/GD32VW55X_Wifi_BLE_SDK/GD32VW55x_RELEASE_V1.0.2/MSDK/cloud/alicloud/src/infra/utils/digest\utils_sha1.c **** 
 179:C:/Users/stapi/OneDrive/Desktop/GD32VW553/V1_MQTT_OK/GD32VW55X_Wifi_BLE_SDK/GD32VW55x_RELEASE_V1.0.2/MSDK/cloud/alicloud/src/infra/utils/digest\utils_sha1.c ****     P(A, B, C, D, E, R(40));
 1233              		.loc 1 179 5 is_stmt 0
 1234 0890 3344E401 		xor	s0,s0,t5
 171:C:/Users/stapi/OneDrive/Desktop/GD32VW553/V1_MQTT_OK/GD32VW55X_Wifi_BLE_SDK/GD32VW55x_RELEASE_V1.0.2/MSDK/cloud/alicloud/src/infra/utils/digest\utils_sha1.c ****     P(B, C, D, E, A, R(39));
 1235              		.loc 1 171 5
 1236 0894 529D     		add	s10,s4,s10
 1237              	.LVL159:
 171:C:/Users/stapi/OneDrive/Desktop/GD32VW553/V1_MQTT_OK/GD32VW55X_Wifi_BLE_SDK/GD32VW55x_RELEASE_V1.0.2/MSDK/cloud/alicloud/src/infra/utils/digest\utils_sha1.c ****     P(B, C, D, E, A, R(39));
 1238              		.loc 1 171 5 is_stmt 1
 1239              		.loc 1 179 5 is_stmt 0
 1240 0896 3344D401 		xor	s0,s0,t4
 1241 089a 37CA1B8F 		li	s4,-1894006784
 1242 089e 130ACACD 		addi	s4,s4,-804
 1243 08a2 3344F401 		xor	s0,s0,t6
 1244 08a6 33143461 		rol	s0,s0,s3
 1245 08aa B30A4401 		add	s5,s0,s4
 1246 08ae 569C     		add	s8,s5,s8
 1247              	.LVL160:
 171:C:/Users/stapi/OneDrive/Desktop/GD32VW553/V1_MQTT_OK/GD32VW55X_Wifi_BLE_SDK/GD32VW55x_RELEASE_V1.0.2/MSDK/cloud/alicloud/src/infra/utils/digest\utils_sha1.c ****     P(B, C, D, E, A, R(39));
 1248              		.loc 1 171 5
 1249 08b0 93DB2B60 		rori	s7,s7,2
 1250              	.LVL161:
 171:C:/Users/stapi/OneDrive/Desktop/GD32VW553/V1_MQTT_OK/GD32VW55X_Wifi_BLE_SDK/GD32VW55x_RELEASE_V1.0.2/MSDK/cloud/alicloud/src/infra/utils/digest\utils_sha1.c ****     P(B, C, D, E, A, R(39));
 1251              		.loc 1 171 28 is_stmt 1
 1252              		.loc 1 179 5
 1253 08b4 B31AFD60 		rol	s5,s10,a5
 1254 08b8 B30D5C01 		add	s11,s8,s5
 1255 08bc 33EC7C01 		or	s8,s9,s7
 1256 08c0 B3FA7C01 		and	s5,s9,s7
 1257 08c4 337C6C01 		and	s8,s8,s6
 1258 08c8 336C5C01 		or	s8,s8,s5
 180:C:/Users/stapi/OneDrive/Desktop/GD32VW553/V1_MQTT_OK/GD32VW55X_Wifi_BLE_SDK/GD32VW55x_RELEASE_V1.0.2/MSDK/cloud/alicloud/src/infra/utils/digest\utils_sha1.c ****     P(E, A, B, C, D, R(41));
 1259              		.loc 1 180 5 is_stmt 0
 1260 08cc B3C26200 		xor	t0,t0,t1
 179:C:/Users/stapi/OneDrive/Desktop/GD32VW553/V1_MQTT_OK/GD32VW55X_Wifi_BLE_SDK/GD32VW55x_RELEASE_V1.0.2/MSDK/cloud/alicloud/src/infra/utils/digest\utils_sha1.c ****     P(E, A, B, C, D, R(41));
 1261              		.loc 1 179 5
 1262 08d0 6E9C     		add	s8,s8,s11
 1263              	.LVL162:
 179:C:/Users/stapi/OneDrive/Desktop/GD32VW553/V1_MQTT_OK/GD32VW55X_Wifi_BLE_SDK/GD32VW55x_RELEASE_V1.0.2/MSDK/cloud/alicloud/src/infra/utils/digest\utils_sha1.c ****     P(E, A, B, C, D, R(41));
 1264              		.loc 1 179 5 is_stmt 1
 1265 08d2 93DC2C60 		rori	s9,s9,2
 1266              	.LVL163:
 179:C:/Users/stapi/OneDrive/Desktop/GD32VW553/V1_MQTT_OK/GD32VW55X_Wifi_BLE_SDK/GD32VW55x_RELEASE_V1.0.2/MSDK/cloud/alicloud/src/infra/utils/digest\utils_sha1.c ****     P(E, A, B, C, D, R(41));
 1267              		.loc 1 179 28
 1268              		.loc 1 180 5
 1269 08d6 B3C21201 		xor	t0,t0,a7
 1270 08da B36D9D01 		or	s11,s10,s9
 1271 08de B3FD7D01 		and	s11,s11,s7
 1272 08e2 B37A9D01 		and	s5,s10,s9
 1273 08e6 B3C2C201 		xor	t0,t0,t3
 1274 08ea B3923261 		rol	t0,t0,s3
 1275 08ee B3EA5D01 		or	s5,s11,s5
 181:C:/Users/stapi/OneDrive/Desktop/GD32VW553/V1_MQTT_OK/GD32VW55X_Wifi_BLE_SDK/GD32VW55x_RELEASE_V1.0.2/MSDK/cloud/alicloud/src/infra/utils/digest\utils_sha1.c ****     P(D, E, A, B, C, R(42));
 1276              		.loc 1 181 5 is_stmt 0
 1277 08f2 334FBF00 		xor	t5,t5,a1
 1278 08f6 B38D4201 		add	s11,t0,s4
 1279 08fa DA9D     		add	s11,s11,s6
 1280 08fc 334F2F01 		xor	t5,t5,s2
 1281 0900 D69D     		add	s11,s5,s11
 1282 0902 334F0F01 		xor	t5,t5,a6
 180:C:/Users/stapi/OneDrive/Desktop/GD32VW553/V1_MQTT_OK/GD32VW55X_Wifi_BLE_SDK/GD32VW55x_RELEASE_V1.0.2/MSDK/cloud/alicloud/src/infra/utils/digest\utils_sha1.c ****     P(E, A, B, C, D, R(41));
 1283              		.loc 1 180 5
 1284 0906 B31AFC60 		rol	s5,s8,a5
 1285              		.loc 1 181 5
 1286 090a 331F3F61 		rol	t5,t5,s3
 180:C:/Users/stapi/OneDrive/Desktop/GD32VW553/V1_MQTT_OK/GD32VW55X_Wifi_BLE_SDK/GD32VW55x_RELEASE_V1.0.2/MSDK/cloud/alicloud/src/infra/utils/digest\utils_sha1.c ****     P(E, A, B, C, D, R(41));
 1287              		.loc 1 180 5
 1288 090e D69D     		add	s11,s5,s11
 1289              	.LVL164:
 180:C:/Users/stapi/OneDrive/Desktop/GD32VW553/V1_MQTT_OK/GD32VW55X_Wifi_BLE_SDK/GD32VW55x_RELEASE_V1.0.2/MSDK/cloud/alicloud/src/infra/utils/digest\utils_sha1.c ****     P(E, A, B, C, D, R(41));
 1290              		.loc 1 180 5 is_stmt 1
 1291 0910 B30A4F01 		add	s5,t5,s4
 1292 0914 D69B     		add	s7,s5,s7
 1293              	.LVL165:
 1294 0916 135D2D60 		rori	s10,s10,2
 1295              	.LVL166:
 180:C:/Users/stapi/OneDrive/Desktop/GD32VW553/V1_MQTT_OK/GD32VW55X_Wifi_BLE_SDK/GD32VW55x_RELEASE_V1.0.2/MSDK/cloud/alicloud/src/infra/utils/digest\utils_sha1.c ****     P(E, A, B, C, D, R(41));
 1296              		.loc 1 180 28
 1297              		.loc 1 181 5
 1298 091a B39AFD60 		rol	s5,s11,a5
 1299 091e 338B5B01 		add	s6,s7,s5
 1300 0922 B36BAC01 		or	s7,s8,s10
 1301 0926 B37AAC01 		and	s5,s8,s10
 1302 092a B3FB9B01 		and	s7,s7,s9
 182:C:/Users/stapi/OneDrive/Desktop/GD32VW553/V1_MQTT_OK/GD32VW55X_Wifi_BLE_SDK/GD32VW55x_RELEASE_V1.0.2/MSDK/cloud/alicloud/src/infra/utils/digest\utils_sha1.c ****     P(C, D, E, A, B, R(43));
 1303              		.loc 1 182 5 is_stmt 0
 1304 092e 3343C300 		xor	t1,t1,a2
 181:C:/Users/stapi/OneDrive/Desktop/GD32VW553/V1_MQTT_OK/GD32VW55X_Wifi_BLE_SDK/GD32VW55x_RELEASE_V1.0.2/MSDK/cloud/alicloud/src/infra/utils/digest\utils_sha1.c ****     P(D, E, A, B, C, R(42));
 1305              		.loc 1 181 5
 1306 0932 135C2C60 		rori	s8,s8,2
 1307              	.LVL167:
 1308 0936 B3EB5B01 		or	s7,s7,s5
 1309              		.loc 1 182 5
 1310 093a 33439300 		xor	t1,t1,s1
 1311 093e B3EA8D01 		or	s5,s11,s8
 181:C:/Users/stapi/OneDrive/Desktop/GD32VW553/V1_MQTT_OK/GD32VW55X_Wifi_BLE_SDK/GD32VW55x_RELEASE_V1.0.2/MSDK/cloud/alicloud/src/infra/utils/digest\utils_sha1.c ****     P(D, E, A, B, C, R(42));
 1312              		.loc 1 181 5
 1313 0942 DA9B     		add	s7,s7,s6
 1314              	.LVL168:
 181:C:/Users/stapi/OneDrive/Desktop/GD32VW553/V1_MQTT_OK/GD32VW55X_Wifi_BLE_SDK/GD32VW55x_RELEASE_V1.0.2/MSDK/cloud/alicloud/src/infra/utils/digest\utils_sha1.c ****     P(D, E, A, B, C, R(42));
 1315              		.loc 1 181 5 is_stmt 1
 181:C:/Users/stapi/OneDrive/Desktop/GD32VW553/V1_MQTT_OK/GD32VW55X_Wifi_BLE_SDK/GD32VW55x_RELEASE_V1.0.2/MSDK/cloud/alicloud/src/infra/utils/digest\utils_sha1.c ****     P(D, E, A, B, C, R(42));
 1316              		.loc 1 181 28
 1317              		.loc 1 182 5
 1318 0944 B3FAAA01 		and	s5,s5,s10
 1319 0948 33FB8D01 		and	s6,s11,s8
 1320 094c 33438300 		xor	t1,t1,s0
 1321 0950 33133361 		rol	t1,t1,s3
 1322 0954 33EB6A01 		or	s6,s5,s6
 183:C:/Users/stapi/OneDrive/Desktop/GD32VW553/V1_MQTT_OK/GD32VW55X_Wifi_BLE_SDK/GD32VW55x_RELEASE_V1.0.2/MSDK/cloud/alicloud/src/infra/utils/digest\utils_sha1.c ****     P(B, C, D, E, A, R(44));
 1323              		.loc 1 183 5 is_stmt 0
 1324 0958 B58D     		xor	a1,a1,a3
 1325 095a B30A4301 		add	s5,t1,s4
 1326 095e E69A     		add	s5,s5,s9
 1327 0960 B3C57500 		xor	a1,a1,t2
 1328 0964 DA9A     		add	s5,s6,s5
 1329 0966 B3C55500 		xor	a1,a1,t0
 182:C:/Users/stapi/OneDrive/Desktop/GD32VW553/V1_MQTT_OK/GD32VW55X_Wifi_BLE_SDK/GD32VW55x_RELEASE_V1.0.2/MSDK/cloud/alicloud/src/infra/utils/digest\utils_sha1.c ****     P(C, D, E, A, B, R(43));
 1330              		.loc 1 182 5
 1331 096a 339BFB60 		rol	s6,s7,a5
 1332              		.loc 1 183 5
 1333 096e B3953561 		rol	a1,a1,s3
 182:C:/Users/stapi/OneDrive/Desktop/GD32VW553/V1_MQTT_OK/GD32VW55X_Wifi_BLE_SDK/GD32VW55x_RELEASE_V1.0.2/MSDK/cloud/alicloud/src/infra/utils/digest\utils_sha1.c ****     P(C, D, E, A, B, R(43));
 1334              		.loc 1 182 5
 1335 0972 DA9A     		add	s5,s6,s5
 1336              	.LVL169:
 182:C:/Users/stapi/OneDrive/Desktop/GD32VW553/V1_MQTT_OK/GD32VW55X_Wifi_BLE_SDK/GD32VW55x_RELEASE_V1.0.2/MSDK/cloud/alicloud/src/infra/utils/digest\utils_sha1.c ****     P(C, D, E, A, B, R(43));
 1337              		.loc 1 182 5 is_stmt 1
 1338 0974 338B4501 		add	s6,a1,s4
 1339 0978 5A9D     		add	s10,s6,s10
 1340              	.LVL170:
 1341 097a 93DD2D60 		rori	s11,s11,2
 1342              	.LVL171:
 182:C:/Users/stapi/OneDrive/Desktop/GD32VW553/V1_MQTT_OK/GD32VW55X_Wifi_BLE_SDK/GD32VW55x_RELEASE_V1.0.2/MSDK/cloud/alicloud/src/infra/utils/digest\utils_sha1.c ****     P(C, D, E, A, B, R(43));
 1343              		.loc 1 182 28
 1344              		.loc 1 183 5
 1345 097e 339BFA60 		rol	s6,s5,a5
 1346 0982 B30C6D01 		add	s9,s10,s6
 1347 0986 33EDBB01 		or	s10,s7,s11
 1348 098a 33FBBB01 		and	s6,s7,s11
 1349 098e 337D8D01 		and	s10,s10,s8
 184:C:/Users/stapi/OneDrive/Desktop/GD32VW553/V1_MQTT_OK/GD32VW55X_Wifi_BLE_SDK/GD32VW55x_RELEASE_V1.0.2/MSDK/cloud/alicloud/src/infra/utils/digest\utils_sha1.c ****     P(A, B, C, D, E, R(45));
 1350              		.loc 1 184 5 is_stmt 0
 1351 0992 398E     		xor	a2,a2,a4
 183:C:/Users/stapi/OneDrive/Desktop/GD32VW553/V1_MQTT_OK/GD32VW55X_Wifi_BLE_SDK/GD32VW55x_RELEASE_V1.0.2/MSDK/cloud/alicloud/src/infra/utils/digest\utils_sha1.c ****     P(B, C, D, E, A, R(44));
 1352              		.loc 1 183 5
 1353 0994 93DB2B60 		rori	s7,s7,2
 1354              	.LVL172:
 1355 0998 336D6D01 		or	s10,s10,s6
 1356              		.loc 1 184 5
 1357 099c 3346F601 		xor	a2,a2,t6
 1358 09a0 33EB7A01 		or	s6,s5,s7
 183:C:/Users/stapi/OneDrive/Desktop/GD32VW553/V1_MQTT_OK/GD32VW55X_Wifi_BLE_SDK/GD32VW55x_RELEASE_V1.0.2/MSDK/cloud/alicloud/src/infra/utils/digest\utils_sha1.c ****     P(B, C, D, E, A, R(44));
 1359              		.loc 1 183 5
 1360 09a4 669D     		add	s10,s10,s9
 1361              	.LVL173:
 183:C:/Users/stapi/OneDrive/Desktop/GD32VW553/V1_MQTT_OK/GD32VW55X_Wifi_BLE_SDK/GD32VW55x_RELEASE_V1.0.2/MSDK/cloud/alicloud/src/infra/utils/digest\utils_sha1.c ****     P(B, C, D, E, A, R(44));
 1362              		.loc 1 183 5 is_stmt 1
 183:C:/Users/stapi/OneDrive/Desktop/GD32VW553/V1_MQTT_OK/GD32VW55X_Wifi_BLE_SDK/GD32VW55x_RELEASE_V1.0.2/MSDK/cloud/alicloud/src/infra/utils/digest\utils_sha1.c ****     P(B, C, D, E, A, R(44));
 1363              		.loc 1 183 28
 1364              		.loc 1 184 5
 1365 09a6 337BBB01 		and	s6,s6,s11
 1366 09aa B3FC7A01 		and	s9,s5,s7
 1367 09ae 3346E601 		xor	a2,a2,t5
 1368 09b2 33163661 		rol	a2,a2,s3
 1369 09b6 B36C9B01 		or	s9,s6,s9
 185:C:/Users/stapi/OneDrive/Desktop/GD32VW553/V1_MQTT_OK/GD32VW55X_Wifi_BLE_SDK/GD32VW55x_RELEASE_V1.0.2/MSDK/cloud/alicloud/src/infra/utils/digest\utils_sha1.c ****     P(E, A, B, C, D, R(46));
 1370              		.loc 1 185 5 is_stmt 0
 1371 09ba B3C6D601 		xor	a3,a3,t4
 1372 09be 330B4601 		add	s6,a2,s4
 1373 09c2 629B     		add	s6,s6,s8
 1374 09c4 B3C6C601 		xor	a3,a3,t3
 184:C:/Users/stapi/OneDrive/Desktop/GD32VW553/V1_MQTT_OK/GD32VW55X_Wifi_BLE_SDK/GD32VW55x_RELEASE_V1.0.2/MSDK/cloud/alicloud/src/infra/utils/digest\utils_sha1.c ****     P(A, B, C, D, E, R(45));
 1375              		.loc 1 184 5
 1376 09c8 331CFD60 		rol	s8,s10,a5
 1377              	.LVL174:
 1378 09cc 669B     		add	s6,s9,s6
 1379              		.loc 1 185 5
 1380 09ce B3C66600 		xor	a3,a3,t1
 1381 09d2 B3963661 		rol	a3,a3,s3
 184:C:/Users/stapi/OneDrive/Desktop/GD32VW553/V1_MQTT_OK/GD32VW55X_Wifi_BLE_SDK/GD32VW55x_RELEASE_V1.0.2/MSDK/cloud/alicloud/src/infra/utils/digest\utils_sha1.c ****     P(A, B, C, D, E, R(45));
 1382              		.loc 1 184 5
 1383 09d6 629B     		add	s6,s8,s6
 1384              	.LVL175:
 184:C:/Users/stapi/OneDrive/Desktop/GD32VW553/V1_MQTT_OK/GD32VW55X_Wifi_BLE_SDK/GD32VW55x_RELEASE_V1.0.2/MSDK/cloud/alicloud/src/infra/utils/digest\utils_sha1.c ****     P(A, B, C, D, E, R(45));
 1385              		.loc 1 184 5 is_stmt 1
 1386 09d8 338C4601 		add	s8,a3,s4
 1387 09dc E29D     		add	s11,s8,s11
 1388              	.LVL176:
 1389 09de 93DA2A60 		rori	s5,s5,2
 1390              	.LVL177:
 184:C:/Users/stapi/OneDrive/Desktop/GD32VW553/V1_MQTT_OK/GD32VW55X_Wifi_BLE_SDK/GD32VW55x_RELEASE_V1.0.2/MSDK/cloud/alicloud/src/infra/utils/digest\utils_sha1.c ****     P(A, B, C, D, E, R(45));
 1391              		.loc 1 184 28
 1392              		.loc 1 185 5
 1393 09e2 331CFB60 		rol	s8,s6,a5
 1394 09e6 B38C8D01 		add	s9,s11,s8
 1395 09ea B36D5D01 		or	s11,s10,s5
 1396 09ee 337C5D01 		and	s8,s10,s5
 1397 09f2 B3FD7D01 		and	s11,s11,s7
 1398 09f6 B3ED8D01 		or	s11,s11,s8
 186:C:/Users/stapi/OneDrive/Desktop/GD32VW553/V1_MQTT_OK/GD32VW55X_Wifi_BLE_SDK/GD32VW55x_RELEASE_V1.0.2/MSDK/cloud/alicloud/src/infra/utils/digest\utils_sha1.c ****     P(D, E, A, B, C, R(47));
 1399              		.loc 1 186 5 is_stmt 0
 1400 09fa 33471701 		xor	a4,a4,a7
 185:C:/Users/stapi/OneDrive/Desktop/GD32VW553/V1_MQTT_OK/GD32VW55X_Wifi_BLE_SDK/GD32VW55x_RELEASE_V1.0.2/MSDK/cloud/alicloud/src/infra/utils/digest\utils_sha1.c ****     P(E, A, B, C, D, R(46));
 1401              		.loc 1 185 5
 1402 09fe E69D     		add	s11,s11,s9
 1403              	.LVL178:
 185:C:/Users/stapi/OneDrive/Desktop/GD32VW553/V1_MQTT_OK/GD32VW55X_Wifi_BLE_SDK/GD32VW55x_RELEASE_V1.0.2/MSDK/cloud/alicloud/src/infra/utils/digest\utils_sha1.c ****     P(E, A, B, C, D, R(46));
 1404              		.loc 1 185 5 is_stmt 1
 1405 0a00 135D2D60 		rori	s10,s10,2
 1406              	.LVL179:
 185:C:/Users/stapi/OneDrive/Desktop/GD32VW553/V1_MQTT_OK/GD32VW55X_Wifi_BLE_SDK/GD32VW55x_RELEASE_V1.0.2/MSDK/cloud/alicloud/src/infra/utils/digest\utils_sha1.c ****     P(E, A, B, C, D, R(46));
 1407              		.loc 1 185 28
 1408              		.loc 1 186 5
 1409 0a04 33470701 		xor	a4,a4,a6
 1410 0a08 B36CAB01 		or	s9,s6,s10
 1411 0a0c B3FC5C01 		and	s9,s9,s5
 1412 0a10 337CAB01 		and	s8,s6,s10
 1413 0a14 2D8F     		xor	a4,a4,a1
 1414 0a16 33173761 		rol	a4,a4,s3
 1415 0a1a 33EC8C01 		or	s8,s9,s8
 187:C:/Users/stapi/OneDrive/Desktop/GD32VW553/V1_MQTT_OK/GD32VW55X_Wifi_BLE_SDK/GD32VW55x_RELEASE_V1.0.2/MSDK/cloud/alicloud/src/infra/utils/digest\utils_sha1.c ****     P(C, D, E, A, B, R(48));
 1416              		.loc 1 187 5 is_stmt 0
 1417 0a1e B3CE2E01 		xor	t4,t4,s2
 1418              	.LVL180:
 1419 0a22 B30C4701 		add	s9,a4,s4
 1420 0a26 DE9C     		add	s9,s9,s7
 1421 0a28 B3CE8E00 		xor	t4,t4,s0
 186:C:/Users/stapi/OneDrive/Desktop/GD32VW553/V1_MQTT_OK/GD32VW55X_Wifi_BLE_SDK/GD32VW55x_RELEASE_V1.0.2/MSDK/cloud/alicloud/src/infra/utils/digest\utils_sha1.c ****     P(D, E, A, B, C, R(47));
 1422              		.loc 1 186 5
 1423 0a2c B39BFD60 		rol	s7,s11,a5
 1424              	.LVL181:
 1425 0a30 E29C     		add	s9,s8,s9
 1426              		.loc 1 187 5
 1427 0a32 B3CECE00 		xor	t4,t4,a2
 1428 0a36 B39E3E61 		rol	t4,t4,s3
 186:C:/Users/stapi/OneDrive/Desktop/GD32VW553/V1_MQTT_OK/GD32VW55X_Wifi_BLE_SDK/GD32VW55x_RELEASE_V1.0.2/MSDK/cloud/alicloud/src/infra/utils/digest\utils_sha1.c ****     P(D, E, A, B, C, R(47));
 1429              		.loc 1 186 5
 1430 0a3a DE9C     		add	s9,s7,s9
 1431              	.LVL182:
 186:C:/Users/stapi/OneDrive/Desktop/GD32VW553/V1_MQTT_OK/GD32VW55X_Wifi_BLE_SDK/GD32VW55x_RELEASE_V1.0.2/MSDK/cloud/alicloud/src/infra/utils/digest\utils_sha1.c ****     P(D, E, A, B, C, R(47));
 1432              		.loc 1 186 5 is_stmt 1
 1433 0a3c B38B4E01 		add	s7,t4,s4
 1434 0a40 DE9A     		add	s5,s7,s5
 1435              	.LVL183:
 1436 0a42 135B2B60 		rori	s6,s6,2
 1437              	.LVL184:
 186:C:/Users/stapi/OneDrive/Desktop/GD32VW553/V1_MQTT_OK/GD32VW55X_Wifi_BLE_SDK/GD32VW55x_RELEASE_V1.0.2/MSDK/cloud/alicloud/src/infra/utils/digest\utils_sha1.c ****     P(D, E, A, B, C, R(47));
 1438              		.loc 1 186 28
 1439              		.loc 1 187 5
 1440 0a46 B39BFC60 		rol	s7,s9,a5
 1441 0a4a 338C7A01 		add	s8,s5,s7
 1442 0a4e B3EA6D01 		or	s5,s11,s6
 1443 0a52 B3FB6D01 		and	s7,s11,s6
 1444 0a56 B3FAAA01 		and	s5,s5,s10
 1445 0a5a B3EA7A01 		or	s5,s5,s7
 188:C:/Users/stapi/OneDrive/Desktop/GD32VW553/V1_MQTT_OK/GD32VW55X_Wifi_BLE_SDK/GD32VW55x_RELEASE_V1.0.2/MSDK/cloud/alicloud/src/infra/utils/digest\utils_sha1.c ****     P(B, C, D, E, A, R(49));
 1446              		.loc 1 188 5 is_stmt 0
 1447 0a5e B3C89800 		xor	a7,a7,s1
 1448              	.LVL185:
 187:C:/Users/stapi/OneDrive/Desktop/GD32VW553/V1_MQTT_OK/GD32VW55X_Wifi_BLE_SDK/GD32VW55x_RELEASE_V1.0.2/MSDK/cloud/alicloud/src/infra/utils/digest\utils_sha1.c ****     P(C, D, E, A, B, R(48));
 1449              		.loc 1 187 5
 1450 0a62 E29A     		add	s5,s5,s8
 1451              	.LVL186:
 187:C:/Users/stapi/OneDrive/Desktop/GD32VW553/V1_MQTT_OK/GD32VW55X_Wifi_BLE_SDK/GD32VW55x_RELEASE_V1.0.2/MSDK/cloud/alicloud/src/infra/utils/digest\utils_sha1.c ****     P(C, D, E, A, B, R(48));
 1452              		.loc 1 187 5 is_stmt 1
 1453 0a64 93DD2D60 		rori	s11,s11,2
 1454              	.LVL187:
 187:C:/Users/stapi/OneDrive/Desktop/GD32VW553/V1_MQTT_OK/GD32VW55X_Wifi_BLE_SDK/GD32VW55x_RELEASE_V1.0.2/MSDK/cloud/alicloud/src/infra/utils/digest\utils_sha1.c ****     P(C, D, E, A, B, R(48));
 1455              		.loc 1 187 28
 1456              		.loc 1 188 5
 1457 0a68 B3C85800 		xor	a7,a7,t0
 1458 0a6c 33ECBC01 		or	s8,s9,s11
 1459 0a70 337C6C01 		and	s8,s8,s6
 1460 0a74 B3FBBC01 		and	s7,s9,s11
 1461 0a78 B3C8D800 		xor	a7,a7,a3
 1462 0a7c B3983861 		rol	a7,a7,s3
 1463              	.LVL188:
 1464 0a80 B36B7C01 		or	s7,s8,s7
 189:C:/Users/stapi/OneDrive/Desktop/GD32VW553/V1_MQTT_OK/GD32VW55X_Wifi_BLE_SDK/GD32VW55x_RELEASE_V1.0.2/MSDK/cloud/alicloud/src/infra/utils/digest\utils_sha1.c ****     P(A, B, C, D, E, R(50));
 1465              		.loc 1 189 5 is_stmt 0
 1466 0a84 33497900 		xor	s2,s2,t2
 1467              	.LVL189:
 1468 0a88 338C4801 		add	s8,a7,s4
 1469 0a8c 6A9C     		add	s8,s8,s10
 1470 0a8e 3349E901 		xor	s2,s2,t5
 1471 0a92 5E9C     		add	s8,s7,s8
 1472 0a94 3349E900 		xor	s2,s2,a4
 188:C:/Users/stapi/OneDrive/Desktop/GD32VW553/V1_MQTT_OK/GD32VW55X_Wifi_BLE_SDK/GD32VW55x_RELEASE_V1.0.2/MSDK/cloud/alicloud/src/infra/utils/digest\utils_sha1.c ****     P(B, C, D, E, A, R(49));
 1473              		.loc 1 188 5
 1474 0a98 B39BFA60 		rol	s7,s5,a5
 1475              		.loc 1 189 5
 1476 0a9c 33193961 		rol	s2,s2,s3
 188:C:/Users/stapi/OneDrive/Desktop/GD32VW553/V1_MQTT_OK/GD32VW55X_Wifi_BLE_SDK/GD32VW55x_RELEASE_V1.0.2/MSDK/cloud/alicloud/src/infra/utils/digest\utils_sha1.c ****     P(B, C, D, E, A, R(49));
 1477              		.loc 1 188 5
 1478 0aa0 5E9C     		add	s8,s7,s8
 1479              	.LVL190:
 188:C:/Users/stapi/OneDrive/Desktop/GD32VW553/V1_MQTT_OK/GD32VW55X_Wifi_BLE_SDK/GD32VW55x_RELEASE_V1.0.2/MSDK/cloud/alicloud/src/infra/utils/digest\utils_sha1.c ****     P(B, C, D, E, A, R(49));
 1480              		.loc 1 188 5 is_stmt 1
 1481 0aa2 B30B4901 		add	s7,s2,s4
 1482 0aa6 5E9B     		add	s6,s7,s6
 1483              	.LVL191:
 1484 0aa8 93DC2C60 		rori	s9,s9,2
 1485              	.LVL192:
 188:C:/Users/stapi/OneDrive/Desktop/GD32VW553/V1_MQTT_OK/GD32VW55X_Wifi_BLE_SDK/GD32VW55x_RELEASE_V1.0.2/MSDK/cloud/alicloud/src/infra/utils/digest\utils_sha1.c ****     P(B, C, D, E, A, R(49));
 1486              		.loc 1 188 28
 1487              		.loc 1 189 5
 1488 0aac B31BFC60 		rol	s7,s8,a5
 1489 0ab0 330D7B01 		add	s10,s6,s7
 1490 0ab4 33EB9A01 		or	s6,s5,s9
 1491 0ab8 B3FB9A01 		and	s7,s5,s9
 1492 0abc 337BBB01 		and	s6,s6,s11
 190:C:/Users/stapi/OneDrive/Desktop/GD32VW553/V1_MQTT_OK/GD32VW55X_Wifi_BLE_SDK/GD32VW55x_RELEASE_V1.0.2/MSDK/cloud/alicloud/src/infra/utils/digest\utils_sha1.c ****     P(E, A, B, C, D, R(51));
 1493              		.loc 1 190 5 is_stmt 0
 1494 0ac0 B3C4F401 		xor	s1,s1,t6
 1495              	.LVL193:
 189:C:/Users/stapi/OneDrive/Desktop/GD32VW553/V1_MQTT_OK/GD32VW55X_Wifi_BLE_SDK/GD32VW55x_RELEASE_V1.0.2/MSDK/cloud/alicloud/src/infra/utils/digest\utils_sha1.c ****     P(A, B, C, D, E, R(50));
 1496              		.loc 1 189 5
 1497 0ac4 93DA2A60 		rori	s5,s5,2
 1498              	.LVL194:
 1499 0ac8 336B7B01 		or	s6,s6,s7
 1500              		.loc 1 190 5
 1501 0acc B3C46400 		xor	s1,s1,t1
 1502 0ad0 B36B5C01 		or	s7,s8,s5
 189:C:/Users/stapi/OneDrive/Desktop/GD32VW553/V1_MQTT_OK/GD32VW55X_Wifi_BLE_SDK/GD32VW55x_RELEASE_V1.0.2/MSDK/cloud/alicloud/src/infra/utils/digest\utils_sha1.c ****     P(A, B, C, D, E, R(50));
 1503              		.loc 1 189 5
 1504 0ad4 6A9B     		add	s6,s6,s10
 1505              	.LVL195:
 189:C:/Users/stapi/OneDrive/Desktop/GD32VW553/V1_MQTT_OK/GD32VW55X_Wifi_BLE_SDK/GD32VW55x_RELEASE_V1.0.2/MSDK/cloud/alicloud/src/infra/utils/digest\utils_sha1.c ****     P(A, B, C, D, E, R(50));
 1506              		.loc 1 189 5 is_stmt 1
 189:C:/Users/stapi/OneDrive/Desktop/GD32VW553/V1_MQTT_OK/GD32VW55X_Wifi_BLE_SDK/GD32VW55x_RELEASE_V1.0.2/MSDK/cloud/alicloud/src/infra/utils/digest\utils_sha1.c ****     P(A, B, C, D, E, R(50));
 1507              		.loc 1 189 28
 1508              		.loc 1 190 5
 1509 0ad6 B3FB9B01 		and	s7,s7,s9
 1510 0ada 337D5C01 		and	s10,s8,s5
 1511 0ade B3C4D401 		xor	s1,s1,t4
 1512 0ae2 B3943461 		rol	s1,s1,s3
 1513              	.LVL196:
 1514 0ae6 33EDAB01 		or	s10,s7,s10
 191:C:/Users/stapi/OneDrive/Desktop/GD32VW553/V1_MQTT_OK/GD32VW55X_Wifi_BLE_SDK/GD32VW55x_RELEASE_V1.0.2/MSDK/cloud/alicloud/src/infra/utils/digest\utils_sha1.c ****     P(D, E, A, B, C, R(52));
 1515              		.loc 1 191 5 is_stmt 0
 1516 0aea B3C3C301 		xor	t2,t2,t3
 1517              	.LVL197:
 1518 0aee B38B4401 		add	s7,s1,s4
 1519 0af2 EE9B     		add	s7,s7,s11
 1520 0af4 B3C3B300 		xor	t2,t2,a1
 1521 0af8 EA9B     		add	s7,s10,s7
 1522 0afa B3C31301 		xor	t2,t2,a7
 190:C:/Users/stapi/OneDrive/Desktop/GD32VW553/V1_MQTT_OK/GD32VW55X_Wifi_BLE_SDK/GD32VW55x_RELEASE_V1.0.2/MSDK/cloud/alicloud/src/infra/utils/digest\utils_sha1.c ****     P(E, A, B, C, D, R(51));
 1523              		.loc 1 190 5
 1524 0afe 331DFB60 		rol	s10,s6,a5
 1525              		.loc 1 191 5
 1526 0b02 B3933361 		rol	t2,t2,s3
 190:C:/Users/stapi/OneDrive/Desktop/GD32VW553/V1_MQTT_OK/GD32VW55X_Wifi_BLE_SDK/GD32VW55x_RELEASE_V1.0.2/MSDK/cloud/alicloud/src/infra/utils/digest\utils_sha1.c ****     P(E, A, B, C, D, R(51));
 1527              		.loc 1 190 5
 1528 0b06 EA9B     		add	s7,s10,s7
 1529              	.LVL198:
 190:C:/Users/stapi/OneDrive/Desktop/GD32VW553/V1_MQTT_OK/GD32VW55X_Wifi_BLE_SDK/GD32VW55x_RELEASE_V1.0.2/MSDK/cloud/alicloud/src/infra/utils/digest\utils_sha1.c ****     P(E, A, B, C, D, R(51));
 1530              		.loc 1 190 5 is_stmt 1
 1531 0b08 338D4301 		add	s10,t2,s4
 1532 0b0c EA9C     		add	s9,s10,s9
 1533              	.LVL199:
 1534 0b0e 135C2C60 		rori	s8,s8,2
 1535              	.LVL200:
 190:C:/Users/stapi/OneDrive/Desktop/GD32VW553/V1_MQTT_OK/GD32VW55X_Wifi_BLE_SDK/GD32VW55x_RELEASE_V1.0.2/MSDK/cloud/alicloud/src/infra/utils/digest\utils_sha1.c ****     P(E, A, B, C, D, R(51));
 1536              		.loc 1 190 28
 1537              		.loc 1 191 5
 1538 0b12 339DFB60 		rol	s10,s7,a5
 1539 0b16 B38DAC01 		add	s11,s9,s10
 1540 0b1a B36C8B01 		or	s9,s6,s8
 1541 0b1e 337D8B01 		and	s10,s6,s8
 1542 0b22 B3FC5C01 		and	s9,s9,s5
 192:C:/Users/stapi/OneDrive/Desktop/GD32VW553/V1_MQTT_OK/GD32VW55X_Wifi_BLE_SDK/GD32VW55x_RELEASE_V1.0.2/MSDK/cloud/alicloud/src/infra/utils/digest\utils_sha1.c ****     P(C, D, E, A, B, R(53));
 1543              		.loc 1 192 5 is_stmt 0
 1544 0b26 B3CF0F01 		xor	t6,t6,a6
 1545              	.LVL201:
 191:C:/Users/stapi/OneDrive/Desktop/GD32VW553/V1_MQTT_OK/GD32VW55X_Wifi_BLE_SDK/GD32VW55x_RELEASE_V1.0.2/MSDK/cloud/alicloud/src/infra/utils/digest\utils_sha1.c ****     P(D, E, A, B, C, R(52));
 1546              		.loc 1 191 5
 1547 0b2a 135B2B60 		rori	s6,s6,2
 1548              	.LVL202:
 1549 0b2e B3ECAC01 		or	s9,s9,s10
 1550              		.loc 1 192 5
 1551 0b32 B3CFCF00 		xor	t6,t6,a2
 1552 0b36 33ED6B01 		or	s10,s7,s6
 191:C:/Users/stapi/OneDrive/Desktop/GD32VW553/V1_MQTT_OK/GD32VW55X_Wifi_BLE_SDK/GD32VW55x_RELEASE_V1.0.2/MSDK/cloud/alicloud/src/infra/utils/digest\utils_sha1.c ****     P(D, E, A, B, C, R(52));
 1553              		.loc 1 191 5
 1554 0b3a EE9C     		add	s9,s9,s11
 1555              	.LVL203:
 191:C:/Users/stapi/OneDrive/Desktop/GD32VW553/V1_MQTT_OK/GD32VW55X_Wifi_BLE_SDK/GD32VW55x_RELEASE_V1.0.2/MSDK/cloud/alicloud/src/infra/utils/digest\utils_sha1.c ****     P(D, E, A, B, C, R(52));
 1556              		.loc 1 191 5 is_stmt 1
 191:C:/Users/stapi/OneDrive/Desktop/GD32VW553/V1_MQTT_OK/GD32VW55X_Wifi_BLE_SDK/GD32VW55x_RELEASE_V1.0.2/MSDK/cloud/alicloud/src/infra/utils/digest\utils_sha1.c ****     P(D, E, A, B, C, R(52));
 1557              		.loc 1 191 28
 1558              		.loc 1 192 5
 1559 0b3c 337D8D01 		and	s10,s10,s8
 1560 0b40 B3FD6B01 		and	s11,s7,s6
 1561 0b44 B3CF2F01 		xor	t6,t6,s2
 1562 0b48 B39F3F61 		rol	t6,t6,s3
 1563              	.LVL204:
 1564 0b4c B36DBD01 		or	s11,s10,s11
 193:C:/Users/stapi/OneDrive/Desktop/GD32VW553/V1_MQTT_OK/GD32VW55X_Wifi_BLE_SDK/GD32VW55x_RELEASE_V1.0.2/MSDK/cloud/alicloud/src/infra/utils/digest\utils_sha1.c ****     P(B, C, D, E, A, R(54));
 1565              		.loc 1 193 5 is_stmt 0
 1566 0b50 334E8E00 		xor	t3,t3,s0
 1567              	.LVL205:
 1568 0b54 338D4F01 		add	s10,t6,s4
 1569 0b58 569D     		add	s10,s10,s5
 1570 0b5a 334EDE00 		xor	t3,t3,a3
 1571 0b5e 6E9D     		add	s10,s11,s10
 1572 0b60 334E9E00 		xor	t3,t3,s1
 192:C:/Users/stapi/OneDrive/Desktop/GD32VW553/V1_MQTT_OK/GD32VW55X_Wifi_BLE_SDK/GD32VW55x_RELEASE_V1.0.2/MSDK/cloud/alicloud/src/infra/utils/digest\utils_sha1.c ****     P(C, D, E, A, B, R(53));
 1573              		.loc 1 192 5
 1574 0b64 B39DFC60 		rol	s11,s9,a5
 1575              		.loc 1 193 5
 1576 0b68 331E3E61 		rol	t3,t3,s3
 192:C:/Users/stapi/OneDrive/Desktop/GD32VW553/V1_MQTT_OK/GD32VW55X_Wifi_BLE_SDK/GD32VW55x_RELEASE_V1.0.2/MSDK/cloud/alicloud/src/infra/utils/digest\utils_sha1.c ****     P(C, D, E, A, B, R(53));
 1577              		.loc 1 192 5
 1578 0b6c 6E9D     		add	s10,s11,s10
 1579              	.LVL206:
 192:C:/Users/stapi/OneDrive/Desktop/GD32VW553/V1_MQTT_OK/GD32VW55X_Wifi_BLE_SDK/GD32VW55x_RELEASE_V1.0.2/MSDK/cloud/alicloud/src/infra/utils/digest\utils_sha1.c ****     P(C, D, E, A, B, R(53));
 1580              		.loc 1 192 5 is_stmt 1
 1581 0b6e B30D4E01 		add	s11,t3,s4
 1582 0b72 6E9C     		add	s8,s11,s8
 1583              	.LVL207:
 1584 0b74 93DB2B60 		rori	s7,s7,2
 1585              	.LVL208:
 1586              		.loc 1 193 5 is_stmt 0
 1587 0b78 B31DFD60 		rol	s11,s10,a5
 192:C:/Users/stapi/OneDrive/Desktop/GD32VW553/V1_MQTT_OK/GD32VW55X_Wifi_BLE_SDK/GD32VW55x_RELEASE_V1.0.2/MSDK/cloud/alicloud/src/infra/utils/digest\utils_sha1.c ****     P(C, D, E, A, B, R(53));
 1588              		.loc 1 192 5
 1589 0b7c 5EC4     		sw	s7,8(sp)
 1590              	.LVL209:
 192:C:/Users/stapi/OneDrive/Desktop/GD32VW553/V1_MQTT_OK/GD32VW55X_Wifi_BLE_SDK/GD32VW55x_RELEASE_V1.0.2/MSDK/cloud/alicloud/src/infra/utils/digest\utils_sha1.c ****     P(C, D, E, A, B, R(53));
 1591              		.loc 1 192 28 is_stmt 1
 1592              		.loc 1 193 5
 1593 0b7e 6E9C     		add	s8,s8,s11
 1594 0b80 62C2     		sw	s8,4(sp)
 1595 0b82 224C     		lw	s8,8(sp)
 1596 0b84 A24D     		lw	s11,8(sp)
 194:C:/Users/stapi/OneDrive/Desktop/GD32VW553/V1_MQTT_OK/GD32VW55X_Wifi_BLE_SDK/GD32VW55x_RELEASE_V1.0.2/MSDK/cloud/alicloud/src/infra/utils/digest\utils_sha1.c ****     P(A, B, C, D, E, R(55));
 1597              		.loc 1 194 5 is_stmt 0
 1598 0b86 33485800 		xor	a6,a6,t0
 1599              	.LVL210:
 193:C:/Users/stapi/OneDrive/Desktop/GD32VW553/V1_MQTT_OK/GD32VW55X_Wifi_BLE_SDK/GD32VW55x_RELEASE_V1.0.2/MSDK/cloud/alicloud/src/infra/utils/digest\utils_sha1.c ****     P(B, C, D, E, A, R(54));
 1600              		.loc 1 193 5
 1601 0b8a 33EC8C01 		or	s8,s9,s8
 1602 0b8e 337C6C01 		and	s8,s8,s6
 1603 0b92 B3FDBC01 		and	s11,s9,s11
 1604 0b96 B36DBC01 		or	s11,s8,s11
 1605 0b9a 124C     		lw	s8,4(sp)
 1606              		.loc 1 194 5
 1607 0b9c 3348E800 		xor	a6,a6,a4
 1608 0ba0 33487800 		xor	a6,a6,t2
 193:C:/Users/stapi/OneDrive/Desktop/GD32VW553/V1_MQTT_OK/GD32VW55X_Wifi_BLE_SDK/GD32VW55x_RELEASE_V1.0.2/MSDK/cloud/alicloud/src/infra/utils/digest\utils_sha1.c ****     P(B, C, D, E, A, R(54));
 1609              		.loc 1 193 5
 1610 0ba4 E29D     		add	s11,s11,s8
 1611              	.LVL211:
 193:C:/Users/stapi/OneDrive/Desktop/GD32VW553/V1_MQTT_OK/GD32VW55X_Wifi_BLE_SDK/GD32VW55x_RELEASE_V1.0.2/MSDK/cloud/alicloud/src/infra/utils/digest\utils_sha1.c ****     P(B, C, D, E, A, R(54));
 1612              		.loc 1 193 5 is_stmt 1
 1613              		.loc 1 194 5 is_stmt 0
 1614 0ba6 33183861 		rol	a6,a6,s3
 193:C:/Users/stapi/OneDrive/Desktop/GD32VW553/V1_MQTT_OK/GD32VW55X_Wifi_BLE_SDK/GD32VW55x_RELEASE_V1.0.2/MSDK/cloud/alicloud/src/infra/utils/digest\utils_sha1.c ****     P(B, C, D, E, A, R(54));
 1615              		.loc 1 193 5
 1616 0baa 13DC2C60 		rori	s8,s9,2
 1617              		.loc 1 194 5
 1618 0bae 42C2     		sw	a6,4(sp)
 193:C:/Users/stapi/OneDrive/Desktop/GD32VW553/V1_MQTT_OK/GD32VW55X_Wifi_BLE_SDK/GD32VW55x_RELEASE_V1.0.2/MSDK/cloud/alicloud/src/infra/utils/digest\utils_sha1.c ****     P(B, C, D, E, A, R(54));
 1619              		.loc 1 193 5
 1620 0bb0 62C6     		sw	s8,12(sp)
 1621              	.LVL212:
 193:C:/Users/stapi/OneDrive/Desktop/GD32VW553/V1_MQTT_OK/GD32VW55X_Wifi_BLE_SDK/GD32VW55x_RELEASE_V1.0.2/MSDK/cloud/alicloud/src/infra/utils/digest\utils_sha1.c ****     P(B, C, D, E, A, R(54));
 1622              		.loc 1 193 28 is_stmt 1
 1623              		.loc 1 194 5
 1624 0bb2 A24C     		lw	s9,8(sp)
 1625 0bb4 336C8D01 		or	s8,s10,s8
 1626              	.LVL213:
 195:C:/Users/stapi/OneDrive/Desktop/GD32VW553/V1_MQTT_OK/GD32VW55X_Wifi_BLE_SDK/GD32VW55x_RELEASE_V1.0.2/MSDK/cloud/alicloud/src/infra/utils/digest\utils_sha1.c ****     P(E, A, B, C, D, R(56));
 1627              		.loc 1 195 5 is_stmt 0
 1628 0bb8 3344E401 		xor	s0,s0,t5
 194:C:/Users/stapi/OneDrive/Desktop/GD32VW553/V1_MQTT_OK/GD32VW55X_Wifi_BLE_SDK/GD32VW55x_RELEASE_V1.0.2/MSDK/cloud/alicloud/src/infra/utils/digest\utils_sha1.c ****     P(A, B, C, D, E, R(55));
 1629              		.loc 1 194 5
 1630 0bbc 337C9C01 		and	s8,s8,s9
 1631 0bc0 B24C     		lw	s9,12(sp)
 1632              		.loc 1 195 5
 1633 0bc2 3344D401 		xor	s0,s0,t4
 1634 0bc6 3344F401 		xor	s0,s0,t6
 194:C:/Users/stapi/OneDrive/Desktop/GD32VW553/V1_MQTT_OK/GD32VW55X_Wifi_BLE_SDK/GD32VW55x_RELEASE_V1.0.2/MSDK/cloud/alicloud/src/infra/utils/digest\utils_sha1.c ****     P(A, B, C, D, E, R(55));
 1635              		.loc 1 194 5
 1636 0bca B37C9D01 		and	s9,s10,s9
 1637 0bce 336C9C01 		or	s8,s8,s9
 1638 0bd2 B30C4801 		add	s9,a6,s4
 1639 0bd6 669B     		add	s6,s9,s6
 1640              	.LVL214:
 1641 0bd8 A24C     		lw	s9,8(sp)
 1642 0bda 629B     		add	s6,s8,s6
 1643 0bdc 339CFD60 		rol	s8,s11,a5
 1644              		.loc 1 195 5
 1645 0be0 3248     		lw	a6,12(sp)
 1646              	.LVL215:
 194:C:/Users/stapi/OneDrive/Desktop/GD32VW553/V1_MQTT_OK/GD32VW55X_Wifi_BLE_SDK/GD32VW55x_RELEASE_V1.0.2/MSDK/cloud/alicloud/src/infra/utils/digest\utils_sha1.c ****     P(A, B, C, D, E, R(55));
 1647              		.loc 1 194 5
 1648 0be2 629B     		add	s6,s8,s6
 1649              	.LVL216:
 194:C:/Users/stapi/OneDrive/Desktop/GD32VW553/V1_MQTT_OK/GD32VW55X_Wifi_BLE_SDK/GD32VW55x_RELEASE_V1.0.2/MSDK/cloud/alicloud/src/infra/utils/digest\utils_sha1.c ****     P(A, B, C, D, E, R(55));
 1650              		.loc 1 194 5 is_stmt 1
 1651              		.loc 1 195 5 is_stmt 0
 1652 0be4 33143461 		rol	s0,s0,s3
 1653 0be8 330C4401 		add	s8,s0,s4
 1654 0bec 669C     		add	s8,s8,s9
 194:C:/Users/stapi/OneDrive/Desktop/GD32VW553/V1_MQTT_OK/GD32VW55X_Wifi_BLE_SDK/GD32VW55x_RELEASE_V1.0.2/MSDK/cloud/alicloud/src/infra/utils/digest\utils_sha1.c ****     P(A, B, C, D, E, R(55));
 1655              		.loc 1 194 5
 1656 0bee 135D2D60 		rori	s10,s10,2
 1657              	.LVL217:
 194:C:/Users/stapi/OneDrive/Desktop/GD32VW553/V1_MQTT_OK/GD32VW55X_Wifi_BLE_SDK/GD32VW55x_RELEASE_V1.0.2/MSDK/cloud/alicloud/src/infra/utils/digest\utils_sha1.c ****     P(A, B, C, D, E, R(55));
 1658              		.loc 1 194 28 is_stmt 1
 1659              		.loc 1 195 5
 1660 0bf2 B31CFB60 		rol	s9,s6,a5
 1661 0bf6 E29C     		add	s9,s8,s9
 1662 0bf8 33ECAD01 		or	s8,s11,s10
 1663 0bfc 337C0C01 		and	s8,s8,a6
 1664 0c00 33F8AD01 		and	a6,s11,s10
 1665 0c04 336C0C01 		or	s8,s8,a6
 1666 0c08 33089C01 		add	a6,s8,s9
 196:C:/Users/stapi/OneDrive/Desktop/GD32VW553/V1_MQTT_OK/GD32VW55X_Wifi_BLE_SDK/GD32VW55x_RELEASE_V1.0.2/MSDK/cloud/alicloud/src/infra/utils/digest\utils_sha1.c ****     P(D, E, A, B, C, R(57));
 1667              		.loc 1 196 5 is_stmt 0
 1668 0c0c B3C26200 		xor	t0,t0,t1
 195:C:/Users/stapi/OneDrive/Desktop/GD32VW553/V1_MQTT_OK/GD32VW55X_Wifi_BLE_SDK/GD32VW55x_RELEASE_V1.0.2/MSDK/cloud/alicloud/src/infra/utils/digest\utils_sha1.c ****     P(E, A, B, C, D, R(56));
 1669              		.loc 1 195 5
 1670 0c10 42C4     		sw	a6,8(sp)
 1671              	.LVL218:
 195:C:/Users/stapi/OneDrive/Desktop/GD32VW553/V1_MQTT_OK/GD32VW55X_Wifi_BLE_SDK/GD32VW55x_RELEASE_V1.0.2/MSDK/cloud/alicloud/src/infra/utils/digest\utils_sha1.c ****     P(E, A, B, C, D, R(56));
 1672              		.loc 1 195 5 is_stmt 1
 1673 0c12 93DD2D60 		rori	s11,s11,2
 1674              	.LVL219:
 195:C:/Users/stapi/OneDrive/Desktop/GD32VW553/V1_MQTT_OK/GD32VW55X_Wifi_BLE_SDK/GD32VW55x_RELEASE_V1.0.2/MSDK/cloud/alicloud/src/infra/utils/digest\utils_sha1.c ****     P(E, A, B, C, D, R(56));
 1675              		.loc 1 195 28
 1676              		.loc 1 196 5
 1677 0c16 3248     		lw	a6,12(sp)
 1678              	.LVL220:
 1679 0c18 336CBB01 		or	s8,s6,s11
 1680 0c1c B3C21201 		xor	t0,t0,a7
 1681 0c20 B37CBB01 		and	s9,s6,s11
 1682 0c24 B3C2C201 		xor	t0,t0,t3
 1683 0c28 337CAC01 		and	s8,s8,s10
 1684 0c2c B3923261 		rol	t0,t0,s3
 1685 0c30 336C9C01 		or	s8,s8,s9
 1686 0c34 B38C4201 		add	s9,t0,s4
 1687 0c38 C29C     		add	s9,s9,a6
 1688 0c3a 2248     		lw	a6,8(sp)
 1689 0c3c E29C     		add	s9,s8,s9
 197:C:/Users/stapi/OneDrive/Desktop/GD32VW553/V1_MQTT_OK/GD32VW55X_Wifi_BLE_SDK/GD32VW55x_RELEASE_V1.0.2/MSDK/cloud/alicloud/src/infra/utils/digest\utils_sha1.c ****     P(C, D, E, A, B, R(58));
 1690              		.loc 1 197 5 is_stmt 0
 1691 0c3e 334FBF00 		xor	t5,t5,a1
 196:C:/Users/stapi/OneDrive/Desktop/GD32VW553/V1_MQTT_OK/GD32VW55X_Wifi_BLE_SDK/GD32VW55x_RELEASE_V1.0.2/MSDK/cloud/alicloud/src/infra/utils/digest\utils_sha1.c ****     P(D, E, A, B, C, R(57));
 1692              		.loc 1 196 5
 1693 0c42 331CF860 		rol	s8,a6,a5
 1694              		.loc 1 197 5
 1695 0c46 1248     		lw	a6,4(sp)
 1696 0c48 334F2F01 		xor	t5,t5,s2
 196:C:/Users/stapi/OneDrive/Desktop/GD32VW553/V1_MQTT_OK/GD32VW55X_Wifi_BLE_SDK/GD32VW55x_RELEASE_V1.0.2/MSDK/cloud/alicloud/src/infra/utils/digest\utils_sha1.c ****     P(D, E, A, B, C, R(57));
 1697              		.loc 1 196 5
 1698 0c4c E29C     		add	s9,s8,s9
 1699              	.LVL221:
 196:C:/Users/stapi/OneDrive/Desktop/GD32VW553/V1_MQTT_OK/GD32VW55X_Wifi_BLE_SDK/GD32VW55x_RELEASE_V1.0.2/MSDK/cloud/alicloud/src/infra/utils/digest\utils_sha1.c ****     P(D, E, A, B, C, R(57));
 1700              		.loc 1 196 5 is_stmt 1
 1701              		.loc 1 197 5 is_stmt 0
 1702 0c4e 334F0F01 		xor	t5,t5,a6
 196:C:/Users/stapi/OneDrive/Desktop/GD32VW553/V1_MQTT_OK/GD32VW55X_Wifi_BLE_SDK/GD32VW55x_RELEASE_V1.0.2/MSDK/cloud/alicloud/src/infra/utils/digest\utils_sha1.c ****     P(D, E, A, B, C, R(57));
 1703              		.loc 1 196 5
 1704 0c52 135C2B60 		rori	s8,s6,2
 1705              	.LVL222:
 196:C:/Users/stapi/OneDrive/Desktop/GD32VW553/V1_MQTT_OK/GD32VW55X_Wifi_BLE_SDK/GD32VW55x_RELEASE_V1.0.2/MSDK/cloud/alicloud/src/infra/utils/digest\utils_sha1.c ****     P(D, E, A, B, C, R(57));
 1706              		.loc 1 196 28 is_stmt 1
 1707              		.loc 1 197 5
 1708 0c56 331F3F61 		rol	t5,t5,s3
 1709 0c5a 330B4F01 		add	s6,t5,s4
 1710 0c5e 5A9D     		add	s10,s6,s10
 1711              	.LVL223:
 1712 0c60 339BFC60 		rol	s6,s9,a5
 1713 0c64 33086D01 		add	a6,s10,s6
 1714 0c68 42C6     		sw	a6,12(sp)
 1715 0c6a 2248     		lw	a6,8(sp)
 198:C:/Users/stapi/OneDrive/Desktop/GD32VW553/V1_MQTT_OK/GD32VW55X_Wifi_BLE_SDK/GD32VW55x_RELEASE_V1.0.2/MSDK/cloud/alicloud/src/infra/utils/digest\utils_sha1.c ****     P(B, C, D, E, A, R(59));
 1716              		.loc 1 198 5 is_stmt 0
 1717 0c6c 3343C300 		xor	t1,t1,a2
 1718 0c70 33439300 		xor	t1,t1,s1
 197:C:/Users/stapi/OneDrive/Desktop/GD32VW553/V1_MQTT_OK/GD32VW55X_Wifi_BLE_SDK/GD32VW55x_RELEASE_V1.0.2/MSDK/cloud/alicloud/src/infra/utils/digest\utils_sha1.c ****     P(C, D, E, A, B, R(58));
 1719              		.loc 1 197 5
 1720 0c74 336B8801 		or	s6,a6,s8
 1721 0c78 337D8801 		and	s10,a6,s8
 1722 0c7c 3248     		lw	a6,12(sp)
 1723 0c7e 337BBB01 		and	s6,s6,s11
 1724 0c82 336DAB01 		or	s10,s6,s10
 1725 0c86 6A98     		add	a6,s10,a6
 1726 0c88 42C6     		sw	a6,12(sp)
 1727              	.LVL224:
 197:C:/Users/stapi/OneDrive/Desktop/GD32VW553/V1_MQTT_OK/GD32VW55X_Wifi_BLE_SDK/GD32VW55x_RELEASE_V1.0.2/MSDK/cloud/alicloud/src/infra/utils/digest\utils_sha1.c ****     P(C, D, E, A, B, R(58));
 1728              		.loc 1 197 5 is_stmt 1
 1729 0c8a 2248     		lw	a6,8(sp)
 1730              	.LVL225:
 1731              		.loc 1 198 5 is_stmt 0
 1732 0c8c 33438300 		xor	t1,t1,s0
 1733 0c90 33133361 		rol	t1,t1,s3
 197:C:/Users/stapi/OneDrive/Desktop/GD32VW553/V1_MQTT_OK/GD32VW55X_Wifi_BLE_SDK/GD32VW55x_RELEASE_V1.0.2/MSDK/cloud/alicloud/src/infra/utils/digest\utils_sha1.c ****     P(C, D, E, A, B, R(58));
 1734              		.loc 1 197 5
 1735 0c94 13582860 		rori	a6,a6,2
 1736 0c98 42C4     		sw	a6,8(sp)
 1737              	.LVL226:
 197:C:/Users/stapi/OneDrive/Desktop/GD32VW553/V1_MQTT_OK/GD32VW55X_Wifi_BLE_SDK/GD32VW55x_RELEASE_V1.0.2/MSDK/cloud/alicloud/src/infra/utils/digest\utils_sha1.c ****     P(C, D, E, A, B, R(58));
 1738              		.loc 1 197 28 is_stmt 1
 1739              		.loc 1 198 5
 1740 0c9a 33EB0C01 		or	s6,s9,a6
 1741 0c9e 33FD0C01 		and	s10,s9,a6
 1742 0ca2 3248     		lw	a6,12(sp)
 1743              	.LVL227:
 1744 0ca4 337B8B01 		and	s6,s6,s8
 1745 0ca8 336DAB01 		or	s10,s6,s10
 1746 0cac 1A9A     		add	s4,t1,s4
 1747 0cae 331BF860 		rol	s6,a6,a5
 199:C:/Users/stapi/OneDrive/Desktop/GD32VW553/V1_MQTT_OK/GD32VW55X_Wifi_BLE_SDK/GD32VW55x_RELEASE_V1.0.2/MSDK/cloud/alicloud/src/infra/utils/digest\utils_sha1.c **** 
 200:C:/Users/stapi/OneDrive/Desktop/GD32VW553/V1_MQTT_OK/GD32VW55X_Wifi_BLE_SDK/GD32VW55x_RELEASE_V1.0.2/MSDK/cloud/alicloud/src/infra/utils/digest\utils_sha1.c **** #undef K
 201:C:/Users/stapi/OneDrive/Desktop/GD32VW553/V1_MQTT_OK/GD32VW55X_Wifi_BLE_SDK/GD32VW55x_RELEASE_V1.0.2/MSDK/cloud/alicloud/src/infra/utils/digest\utils_sha1.c **** #undef F
 202:C:/Users/stapi/OneDrive/Desktop/GD32VW553/V1_MQTT_OK/GD32VW55X_Wifi_BLE_SDK/GD32VW55x_RELEASE_V1.0.2/MSDK/cloud/alicloud/src/infra/utils/digest\utils_sha1.c **** 
 203:C:/Users/stapi/OneDrive/Desktop/GD32VW553/V1_MQTT_OK/GD32VW55X_Wifi_BLE_SDK/GD32VW55x_RELEASE_V1.0.2/MSDK/cloud/alicloud/src/infra/utils/digest\utils_sha1.c **** #define F(x,y,z) (x ^ y ^ z)
 204:C:/Users/stapi/OneDrive/Desktop/GD32VW553/V1_MQTT_OK/GD32VW55X_Wifi_BLE_SDK/GD32VW55x_RELEASE_V1.0.2/MSDK/cloud/alicloud/src/infra/utils/digest\utils_sha1.c **** #define K 0xCA62C1D6
 205:C:/Users/stapi/OneDrive/Desktop/GD32VW553/V1_MQTT_OK/GD32VW55X_Wifi_BLE_SDK/GD32VW55x_RELEASE_V1.0.2/MSDK/cloud/alicloud/src/infra/utils/digest\utils_sha1.c **** 
 206:C:/Users/stapi/OneDrive/Desktop/GD32VW553/V1_MQTT_OK/GD32VW55X_Wifi_BLE_SDK/GD32VW55x_RELEASE_V1.0.2/MSDK/cloud/alicloud/src/infra/utils/digest\utils_sha1.c ****     P(A, B, C, D, E, R(60));
 1748              		.loc 1 206 5 is_stmt 0
 1749 0cb2 2248     		lw	a6,8(sp)
 1750 0cb4 D29D     		add	s11,s4,s11
 1751              	.LVL228:
 1752 0cb6 EA9D     		add	s11,s10,s11
 198:C:/Users/stapi/OneDrive/Desktop/GD32VW553/V1_MQTT_OK/GD32VW55X_Wifi_BLE_SDK/GD32VW55x_RELEASE_V1.0.2/MSDK/cloud/alicloud/src/infra/utils/digest\utils_sha1.c ****     P(B, C, D, E, A, R(59));
 1753              		.loc 1 198 5
 1754 0cb8 DA9D     		add	s11,s6,s11
 1755              	.LVL229:
 198:C:/Users/stapi/OneDrive/Desktop/GD32VW553/V1_MQTT_OK/GD32VW55X_Wifi_BLE_SDK/GD32VW55x_RELEASE_V1.0.2/MSDK/cloud/alicloud/src/infra/utils/digest\utils_sha1.c ****     P(B, C, D, E, A, R(59));
 1756              		.loc 1 198 5 is_stmt 1
 1757 0cba 93DC2C60 		rori	s9,s9,2
 1758              	.LVL230:
 198:C:/Users/stapi/OneDrive/Desktop/GD32VW553/V1_MQTT_OK/GD32VW55X_Wifi_BLE_SDK/GD32VW55x_RELEASE_V1.0.2/MSDK/cloud/alicloud/src/infra/utils/digest\utils_sha1.c ****     P(B, C, D, E, A, R(59));
 1759              		.loc 1 198 28
 1760              		.loc 1 206 5
 1761 0cbe B58D     		xor	a1,a1,a3
 1762              	.LVL231:
 1763 0cc0 334B9801 		xor	s6,a6,s9
 1764 0cc4 3248     		lw	a6,12(sp)
 1765 0cc6 B3C57500 		xor	a1,a1,t2
 1766 0cca 37CA62CA 		li	s4,-899497984
 1767 0cce 130A6A1D 		addi	s4,s4,470
 1768 0cd2 B3C55500 		xor	a1,a1,t0
 1769              	.LVL232:
 1770 0cd6 B3953561 		rol	a1,a1,s3
 1771              	.LVL233:
 1772 0cda 334D0B01 		xor	s10,s6,a6
 1773 0cde 338B4501 		add	s6,a1,s4
 1774 0ce2 629B     		add	s6,s6,s8
 1775 0ce4 13582860 		rori	a6,a6,2
 1776 0ce8 339CFD60 		rol	s8,s11,a5
 1777              	.LVL234:
 1778 0cec 6A9B     		add	s6,s10,s6
 207:C:/Users/stapi/OneDrive/Desktop/GD32VW553/V1_MQTT_OK/GD32VW55X_Wifi_BLE_SDK/GD32VW55x_RELEASE_V1.0.2/MSDK/cloud/alicloud/src/infra/utils/digest\utils_sha1.c ****     P(E, A, B, C, D, R(61));
 1779              		.loc 1 207 5 is_stmt 0
 1780 0cee 398E     		xor	a2,a2,a4
 206:C:/Users/stapi/OneDrive/Desktop/GD32VW553/V1_MQTT_OK/GD32VW55X_Wifi_BLE_SDK/GD32VW55x_RELEASE_V1.0.2/MSDK/cloud/alicloud/src/infra/utils/digest\utils_sha1.c ****     P(E, A, B, C, D, R(61));
 1781              		.loc 1 206 5
 1782 0cf0 42C6     		sw	a6,12(sp)
 1783              	.LVL235:
 1784 0cf2 629B     		add	s6,s8,s6
 1785              	.LVL236:
 206:C:/Users/stapi/OneDrive/Desktop/GD32VW553/V1_MQTT_OK/GD32VW55X_Wifi_BLE_SDK/GD32VW55x_RELEASE_V1.0.2/MSDK/cloud/alicloud/src/infra/utils/digest\utils_sha1.c ****     P(E, A, B, C, D, R(61));
 1786              		.loc 1 206 5 is_stmt 1
 206:C:/Users/stapi/OneDrive/Desktop/GD32VW553/V1_MQTT_OK/GD32VW55X_Wifi_BLE_SDK/GD32VW55x_RELEASE_V1.0.2/MSDK/cloud/alicloud/src/infra/utils/digest\utils_sha1.c ****     P(E, A, B, C, D, R(61));
 1787              		.loc 1 206 28
 1788              		.loc 1 207 5
 1789 0cf4 3346F601 		xor	a2,a2,t6
 1790 0cf8 33CC0C01 		xor	s8,s9,a6
 1791 0cfc 2248     		lw	a6,8(sp)
 1792              	.LVL237:
 1793 0cfe 3346E601 		xor	a2,a2,t5
 1794 0d02 33163661 		rol	a2,a2,s3
 1795 0d06 334DBC01 		xor	s10,s8,s11
 1796 0d0a 330C4601 		add	s8,a2,s4
 1797 0d0e 429C     		add	s8,s8,a6
 208:C:/Users/stapi/OneDrive/Desktop/GD32VW553/V1_MQTT_OK/GD32VW55X_Wifi_BLE_SDK/GD32VW55x_RELEASE_V1.0.2/MSDK/cloud/alicloud/src/infra/utils/digest\utils_sha1.c ****     P(D, E, A, B, C, R(62));
 1798              		.loc 1 208 5 is_stmt 0
 1799 0d10 B3C6D601 		xor	a3,a3,t4
 1800 0d14 3248     		lw	a6,12(sp)
 1801 0d16 B3C6C601 		xor	a3,a3,t3
 1802 0d1a 6A9C     		add	s8,s10,s8
 1803 0d1c B3C66600 		xor	a3,a3,t1
 1804 0d20 B3963661 		rol	a3,a3,s3
 207:C:/Users/stapi/OneDrive/Desktop/GD32VW553/V1_MQTT_OK/GD32VW55X_Wifi_BLE_SDK/GD32VW55x_RELEASE_V1.0.2/MSDK/cloud/alicloud/src/infra/utils/digest\utils_sha1.c ****     P(E, A, B, C, D, R(61));
 1805              		.loc 1 207 5
 1806 0d24 331DFB60 		rol	s10,s6,a5
 1807 0d28 93DD2D60 		rori	s11,s11,2
 1808              	.LVL238:
 1809 0d2c 629D     		add	s10,s10,s8
 1810              	.LVL239:
 207:C:/Users/stapi/OneDrive/Desktop/GD32VW553/V1_MQTT_OK/GD32VW55X_Wifi_BLE_SDK/GD32VW55x_RELEASE_V1.0.2/MSDK/cloud/alicloud/src/infra/utils/digest\utils_sha1.c ****     P(E, A, B, C, D, R(61));
 1811              		.loc 1 207 5 is_stmt 1
 207:C:/Users/stapi/OneDrive/Desktop/GD32VW553/V1_MQTT_OK/GD32VW55X_Wifi_BLE_SDK/GD32VW55x_RELEASE_V1.0.2/MSDK/cloud/alicloud/src/infra/utils/digest\utils_sha1.c ****     P(E, A, B, C, D, R(61));
 1812              		.loc 1 207 28
 1813              		.loc 1 208 5
 1814 0d2e 334CB801 		xor	s8,a6,s11
 1815 0d32 33884601 		add	a6,a3,s4
 1816 0d36 C29C     		add	s9,a6,s9
 1817              	.LVL240:
 1818 0d38 13582B60 		rori	a6,s6,2
 1819 0d3c 42C4     		sw	a6,8(sp)
 209:C:/Users/stapi/OneDrive/Desktop/GD32VW553/V1_MQTT_OK/GD32VW55X_Wifi_BLE_SDK/GD32VW55x_RELEASE_V1.0.2/MSDK/cloud/alicloud/src/infra/utils/digest\utils_sha1.c ****     P(C, D, E, A, B, R(63));
 1820              		.loc 1 209 5 is_stmt 0
 1821 0d3e 1248     		lw	a6,4(sp)
 1822 0d40 33471701 		xor	a4,a4,a7
 208:C:/Users/stapi/OneDrive/Desktop/GD32VW553/V1_MQTT_OK/GD32VW55X_Wifi_BLE_SDK/GD32VW55x_RELEASE_V1.0.2/MSDK/cloud/alicloud/src/infra/utils/digest\utils_sha1.c ****     P(D, E, A, B, C, R(62));
 1823              		.loc 1 208 5
 1824 0d44 334C6C01 		xor	s8,s8,s6
 1825              		.loc 1 209 5
 1826 0d48 33470701 		xor	a4,a4,a6
 1827 0d4c 2248     		lw	a6,8(sp)
 1828 0d4e E29C     		add	s9,s8,s9
 1829 0d50 2D8F     		xor	a4,a4,a1
 1830 0d52 33CB0D01 		xor	s6,s11,a6
 1831              	.LVL241:
 1832 0d56 3248     		lw	a6,12(sp)
 208:C:/Users/stapi/OneDrive/Desktop/GD32VW553/V1_MQTT_OK/GD32VW55X_Wifi_BLE_SDK/GD32VW55x_RELEASE_V1.0.2/MSDK/cloud/alicloud/src/infra/utils/digest\utils_sha1.c ****     P(D, E, A, B, C, R(62));
 1833              		.loc 1 208 5
 1834 0d58 331CFD60 		rol	s8,s10,a5
 1835              		.loc 1 209 5
 1836 0d5c 33173761 		rol	a4,a4,s3
 208:C:/Users/stapi/OneDrive/Desktop/GD32VW553/V1_MQTT_OK/GD32VW55X_Wifi_BLE_SDK/GD32VW55x_RELEASE_V1.0.2/MSDK/cloud/alicloud/src/infra/utils/digest\utils_sha1.c ****     P(D, E, A, B, C, R(62));
 1837              		.loc 1 208 5
 1838 0d60 E29C     		add	s9,s8,s9
 1839              	.LVL242:
 208:C:/Users/stapi/OneDrive/Desktop/GD32VW553/V1_MQTT_OK/GD32VW55X_Wifi_BLE_SDK/GD32VW55x_RELEASE_V1.0.2/MSDK/cloud/alicloud/src/infra/utils/digest\utils_sha1.c ****     P(D, E, A, B, C, R(62));
 1840              		.loc 1 208 5 is_stmt 1
 208:C:/Users/stapi/OneDrive/Desktop/GD32VW553/V1_MQTT_OK/GD32VW55X_Wifi_BLE_SDK/GD32VW55x_RELEASE_V1.0.2/MSDK/cloud/alicloud/src/infra/utils/digest\utils_sha1.c ****     P(D, E, A, B, C, R(62));
 1841              		.loc 1 208 28
 1842              		.loc 1 209 5
 1843 0d62 334CAB01 		xor	s8,s6,s10
 1844 0d66 330B4701 		add	s6,a4,s4
 1845 0d6a 429B     		add	s6,s6,a6
 210:C:/Users/stapi/OneDrive/Desktop/GD32VW553/V1_MQTT_OK/GD32VW55X_Wifi_BLE_SDK/GD32VW55x_RELEASE_V1.0.2/MSDK/cloud/alicloud/src/infra/utils/digest\utils_sha1.c ****     P(B, C, D, E, A, R(64));
 1846              		.loc 1 210 5 is_stmt 0
 1847 0d6c B3CE2E01 		xor	t4,t4,s2
 1848              	.LVL243:
 1849 0d70 2248     		lw	a6,8(sp)
 1850 0d72 B3CE8E00 		xor	t4,t4,s0
 1851 0d76 629B     		add	s6,s8,s6
 1852 0d78 B3CECE00 		xor	t4,t4,a2
 1853 0d7c B39E3E61 		rol	t4,t4,s3
 209:C:/Users/stapi/OneDrive/Desktop/GD32VW553/V1_MQTT_OK/GD32VW55X_Wifi_BLE_SDK/GD32VW55x_RELEASE_V1.0.2/MSDK/cloud/alicloud/src/infra/utils/digest\utils_sha1.c ****     P(C, D, E, A, B, R(63));
 1854              		.loc 1 209 5
 1855 0d80 339CFC60 		rol	s8,s9,a5
 1856 0d84 135D2D60 		rori	s10,s10,2
 1857              	.LVL244:
 1858 0d88 5A9C     		add	s8,s8,s6
 1859              	.LVL245:
 209:C:/Users/stapi/OneDrive/Desktop/GD32VW553/V1_MQTT_OK/GD32VW55X_Wifi_BLE_SDK/GD32VW55x_RELEASE_V1.0.2/MSDK/cloud/alicloud/src/infra/utils/digest\utils_sha1.c ****     P(C, D, E, A, B, R(63));
 1860              		.loc 1 209 5 is_stmt 1
 209:C:/Users/stapi/OneDrive/Desktop/GD32VW553/V1_MQTT_OK/GD32VW55X_Wifi_BLE_SDK/GD32VW55x_RELEASE_V1.0.2/MSDK/cloud/alicloud/src/infra/utils/digest\utils_sha1.c ****     P(C, D, E, A, B, R(63));
 1861              		.loc 1 209 28
 1862              		.loc 1 210 5
 1863 0d8a 334BA801 		xor	s6,a6,s10
 1864 0d8e 33884E01 		add	a6,t4,s4
 1865 0d92 334B9B01 		xor	s6,s6,s9
 1866 0d96 C29D     		add	s11,a6,s11
 1867              	.LVL246:
 1868 0d98 DA9D     		add	s11,s6,s11
 1869 0d9a 13D82C60 		rori	a6,s9,2
 1870 0d9e 331BFC60 		rol	s6,s8,a5
 211:C:/Users/stapi/OneDrive/Desktop/GD32VW553/V1_MQTT_OK/GD32VW55X_Wifi_BLE_SDK/GD32VW55x_RELEASE_V1.0.2/MSDK/cloud/alicloud/src/infra/utils/digest\utils_sha1.c ****     P(A, B, C, D, E, R(65));
 1871              		.loc 1 211 5 is_stmt 0
 1872 0da2 B3C89800 		xor	a7,a7,s1
 1873              	.LVL247:
 210:C:/Users/stapi/OneDrive/Desktop/GD32VW553/V1_MQTT_OK/GD32VW55X_Wifi_BLE_SDK/GD32VW55x_RELEASE_V1.0.2/MSDK/cloud/alicloud/src/infra/utils/digest\utils_sha1.c ****     P(B, C, D, E, A, R(64));
 1874              		.loc 1 210 5
 1875 0da6 DA9D     		add	s11,s6,s11
 1876              	.LVL248:
 210:C:/Users/stapi/OneDrive/Desktop/GD32VW553/V1_MQTT_OK/GD32VW55X_Wifi_BLE_SDK/GD32VW55x_RELEASE_V1.0.2/MSDK/cloud/alicloud/src/infra/utils/digest\utils_sha1.c ****     P(B, C, D, E, A, R(64));
 1877              		.loc 1 210 5 is_stmt 1
 1878 0da8 42C6     		sw	a6,12(sp)
 1879              	.LVL249:
 210:C:/Users/stapi/OneDrive/Desktop/GD32VW553/V1_MQTT_OK/GD32VW55X_Wifi_BLE_SDK/GD32VW55x_RELEASE_V1.0.2/MSDK/cloud/alicloud/src/infra/utils/digest\utils_sha1.c ****     P(B, C, D, E, A, R(64));
 1880              		.loc 1 210 28
 1881              		.loc 1 211 5
 1882 0daa 334B0D01 		xor	s6,s10,a6
 1883 0dae B3C85800 		xor	a7,a7,t0
 1884 0db2 2248     		lw	a6,8(sp)
 1885              	.LVL250:
 1886 0db4 B3C8D800 		xor	a7,a7,a3
 1887 0db8 B3983861 		rol	a7,a7,s3
 1888              	.LVL251:
 1889 0dbc B34C8B01 		xor	s9,s6,s8
 1890 0dc0 338B4801 		add	s6,a7,s4
 1891 0dc4 429B     		add	s6,s6,a6
 212:C:/Users/stapi/OneDrive/Desktop/GD32VW553/V1_MQTT_OK/GD32VW55X_Wifi_BLE_SDK/GD32VW55x_RELEASE_V1.0.2/MSDK/cloud/alicloud/src/infra/utils/digest\utils_sha1.c ****     P(E, A, B, C, D, R(66));
 1892              		.loc 1 212 5 is_stmt 0
 1893 0dc6 33497900 		xor	s2,s2,t2
 1894              	.LVL252:
 1895 0dca 3248     		lw	a6,12(sp)
 1896 0dcc 3349E901 		xor	s2,s2,t5
 1897 0dd0 3349E900 		xor	s2,s2,a4
 1898 0dd4 B3193961 		rol	s3,s2,s3
 1899 0dd8 669B     		add	s6,s9,s6
 211:C:/Users/stapi/OneDrive/Desktop/GD32VW553/V1_MQTT_OK/GD32VW55X_Wifi_BLE_SDK/GD32VW55x_RELEASE_V1.0.2/MSDK/cloud/alicloud/src/infra/utils/digest\utils_sha1.c ****     P(A, B, C, D, E, R(65));
 1900              		.loc 1 211 5
 1901 0dda 135C2C60 		rori	s8,s8,2
 1902              	.LVL253:
 1903              		.loc 1 212 5
 1904 0dde 33498801 		xor	s2,a6,s8
 211:C:/Users/stapi/OneDrive/Desktop/GD32VW553/V1_MQTT_OK/GD32VW55X_Wifi_BLE_SDK/GD32VW55x_RELEASE_V1.0.2/MSDK/cloud/alicloud/src/infra/utils/digest\utils_sha1.c ****     P(A, B, C, D, E, R(65));
 1905              		.loc 1 211 5
 1906 0de2 B39CFD60 		rol	s9,s11,a5
 1907 0de6 DA9C     		add	s9,s9,s6
 1908              	.LVL254:
 211:C:/Users/stapi/OneDrive/Desktop/GD32VW553/V1_MQTT_OK/GD32VW55X_Wifi_BLE_SDK/GD32VW55x_RELEASE_V1.0.2/MSDK/cloud/alicloud/src/infra/utils/digest\utils_sha1.c ****     P(A, B, C, D, E, R(65));
 1909              		.loc 1 211 5 is_stmt 1
 211:C:/Users/stapi/OneDrive/Desktop/GD32VW553/V1_MQTT_OK/GD32VW55X_Wifi_BLE_SDK/GD32VW55x_RELEASE_V1.0.2/MSDK/cloud/alicloud/src/infra/utils/digest\utils_sha1.c ****     P(A, B, C, D, E, R(65));
 1910              		.loc 1 211 28
 1911              		.loc 1 212 5
 1912 0de8 334BB901 		xor	s6,s2,s11
 1913 0dec 33894901 		add	s2,s3,s4
 1914 0df0 4A9D     		add	s10,s2,s10
 1915              	.LVL255:
 213:C:/Users/stapi/OneDrive/Desktop/GD32VW553/V1_MQTT_OK/GD32VW55X_Wifi_BLE_SDK/GD32VW55x_RELEASE_V1.0.2/MSDK/cloud/alicloud/src/infra/utils/digest\utils_sha1.c ****     P(D, E, A, B, C, R(67));
 1916              		.loc 1 213 5 is_stmt 0
 1917 0df2 B3C4F401 		xor	s1,s1,t6
 1918              	.LVL256:
 1919 0df6 5A9D     		add	s10,s6,s10
 1920 0df8 B3C46400 		xor	s1,s1,t1
 193:C:/Users/stapi/OneDrive/Desktop/GD32VW553/V1_MQTT_OK/GD32VW55X_Wifi_BLE_SDK/GD32VW55x_RELEASE_V1.0.2/MSDK/cloud/alicloud/src/infra/utils/digest\utils_sha1.c ****     P(A, B, C, D, E, R(55));
 1921              		.loc 1 193 5
 1922 0dfc 854B     		li	s7,1
 212:C:/Users/stapi/OneDrive/Desktop/GD32VW553/V1_MQTT_OK/GD32VW55X_Wifi_BLE_SDK/GD32VW55x_RELEASE_V1.0.2/MSDK/cloud/alicloud/src/infra/utils/digest\utils_sha1.c ****     P(E, A, B, C, D, R(66));
 1923              		.loc 1 212 5
 1924 0dfe 93DD2D60 		rori	s11,s11,2
 1925              	.LVL257:
 1926 0e02 B397FC60 		rol	a5,s9,a5
 1927              		.loc 1 213 5
 1928 0e06 B3C4D401 		xor	s1,s1,t4
 212:C:/Users/stapi/OneDrive/Desktop/GD32VW553/V1_MQTT_OK/GD32VW55X_Wifi_BLE_SDK/GD32VW55x_RELEASE_V1.0.2/MSDK/cloud/alicloud/src/infra/utils/digest\utils_sha1.c ****     P(E, A, B, C, D, R(66));
 1929              		.loc 1 212 5
 1930 0e0a EA97     		add	a5,a5,s10
 1931              	.LVL258:
 212:C:/Users/stapi/OneDrive/Desktop/GD32VW553/V1_MQTT_OK/GD32VW55X_Wifi_BLE_SDK/GD32VW55x_RELEASE_V1.0.2/MSDK/cloud/alicloud/src/infra/utils/digest\utils_sha1.c ****     P(E, A, B, C, D, R(66));
 1932              		.loc 1 212 5 is_stmt 1
 212:C:/Users/stapi/OneDrive/Desktop/GD32VW553/V1_MQTT_OK/GD32VW55X_Wifi_BLE_SDK/GD32VW55x_RELEASE_V1.0.2/MSDK/cloud/alicloud/src/infra/utils/digest\utils_sha1.c ****     P(E, A, B, C, D, R(66));
 1933              		.loc 1 212 28
 1934              		.loc 1 213 5
 1935 0e0c 334DBC01 		xor	s10,s8,s11
 1936 0e10 B3947461 		rol	s1,s1,s7
 1937              	.LVL259:
 1938 0e14 33499D01 		xor	s2,s10,s9
 1939 0e18 338D4401 		add	s10,s1,s4
 1940 0e1c 429D     		add	s10,s10,a6
 214:C:/Users/stapi/OneDrive/Desktop/GD32VW553/V1_MQTT_OK/GD32VW55X_Wifi_BLE_SDK/GD32VW55x_RELEASE_V1.0.2/MSDK/cloud/alicloud/src/infra/utils/digest\utils_sha1.c ****     P(C, D, E, A, B, R(68));
 1941              		.loc 1 214 5 is_stmt 0
 1942 0e1e B3C3C301 		xor	t2,t2,t3
 1943              	.LVL260:
 215:C:/Users/stapi/OneDrive/Desktop/GD32VW553/V1_MQTT_OK/GD32VW55X_Wifi_BLE_SDK/GD32VW55x_RELEASE_V1.0.2/MSDK/cloud/alicloud/src/infra/utils/digest\utils_sha1.c ****     P(B, C, D, E, A, R(69));
 1944              		.loc 1 215 5
 1945 0e22 1248     		lw	a6,4(sp)
 214:C:/Users/stapi/OneDrive/Desktop/GD32VW553/V1_MQTT_OK/GD32VW55X_Wifi_BLE_SDK/GD32VW55x_RELEASE_V1.0.2/MSDK/cloud/alicloud/src/infra/utils/digest\utils_sha1.c ****     P(C, D, E, A, B, R(68));
 1946              		.loc 1 214 5
 1947 0e24 B3C3B300 		xor	t2,t2,a1
 192:C:/Users/stapi/OneDrive/Desktop/GD32VW553/V1_MQTT_OK/GD32VW55X_Wifi_BLE_SDK/GD32VW55x_RELEASE_V1.0.2/MSDK/cloud/alicloud/src/infra/utils/digest\utils_sha1.c ****     P(B, C, D, E, A, R(54));
 1948              		.loc 1 192 5
 1949 0e28 954A     		li	s5,5
 1950 0e2a 6A99     		add	s2,s2,s10
 214:C:/Users/stapi/OneDrive/Desktop/GD32VW553/V1_MQTT_OK/GD32VW55X_Wifi_BLE_SDK/GD32VW55x_RELEASE_V1.0.2/MSDK/cloud/alicloud/src/infra/utils/digest\utils_sha1.c ****     P(C, D, E, A, B, R(68));
 1951              		.loc 1 214 5
 1952 0e2c B3C31301 		xor	t2,t2,a7
 1953 0e30 B3937361 		rol	t2,t2,s7
 213:C:/Users/stapi/OneDrive/Desktop/GD32VW553/V1_MQTT_OK/GD32VW55X_Wifi_BLE_SDK/GD32VW55x_RELEASE_V1.0.2/MSDK/cloud/alicloud/src/infra/utils/digest\utils_sha1.c ****     P(C, D, E, A, B, R(68));
 1954              		.loc 1 213 5
 1955 0e34 339D5761 		rol	s10,a5,s5
 1956 0e38 338B4301 		add	s6,t2,s4
 1957 0e3c 4A9D     		add	s10,s10,s2
 1958              	.LVL261:
 213:C:/Users/stapi/OneDrive/Desktop/GD32VW553/V1_MQTT_OK/GD32VW55X_Wifi_BLE_SDK/GD32VW55x_RELEASE_V1.0.2/MSDK/cloud/alicloud/src/infra/utils/digest\utils_sha1.c ****     P(C, D, E, A, B, R(68));
 1959              		.loc 1 213 5 is_stmt 1
 1960 0e3e 93DC2C60 		rori	s9,s9,2
 1961              	.LVL262:
 213:C:/Users/stapi/OneDrive/Desktop/GD32VW553/V1_MQTT_OK/GD32VW55X_Wifi_BLE_SDK/GD32VW55x_RELEASE_V1.0.2/MSDK/cloud/alicloud/src/infra/utils/digest\utils_sha1.c ****     P(C, D, E, A, B, R(68));
 1962              		.loc 1 213 28
 214:C:/Users/stapi/OneDrive/Desktop/GD32VW553/V1_MQTT_OK/GD32VW55X_Wifi_BLE_SDK/GD32VW55x_RELEASE_V1.0.2/MSDK/cloud/alicloud/src/infra/utils/digest\utils_sha1.c ****     P(B, C, D, E, A, R(69));
 1963              		.loc 1 214 5
 1964              		.loc 1 215 5 is_stmt 0
 1965 0e42 B3CF0F01 		xor	t6,t6,a6
 1966              	.LVL263:
 214:C:/Users/stapi/OneDrive/Desktop/GD32VW553/V1_MQTT_OK/GD32VW55X_Wifi_BLE_SDK/GD32VW55x_RELEASE_V1.0.2/MSDK/cloud/alicloud/src/infra/utils/digest\utils_sha1.c ****     P(B, C, D, E, A, R(69));
 1967              		.loc 1 214 5
 1968 0e46 33C99D01 		xor	s2,s11,s9
 1969 0e4a 3349F900 		xor	s2,s2,a5
 1970 0e4e 5A9C     		add	s8,s6,s8
 1971              	.LVL264:
 1972              		.loc 1 215 5
 1973 0e50 B3CFCF00 		xor	t6,t6,a2
 1974 0e54 4A9C     		add	s8,s2,s8
 1975 0e56 B3CF3F01 		xor	t6,t6,s3
 214:C:/Users/stapi/OneDrive/Desktop/GD32VW553/V1_MQTT_OK/GD32VW55X_Wifi_BLE_SDK/GD32VW55x_RELEASE_V1.0.2/MSDK/cloud/alicloud/src/infra/utils/digest\utils_sha1.c ****     P(B, C, D, E, A, R(69));
 1976              		.loc 1 214 5
 1977 0e5a 33195D61 		rol	s2,s10,s5
 1978              		.loc 1 215 5
 1979 0e5e B39F7F61 		rol	t6,t6,s7
 214:C:/Users/stapi/OneDrive/Desktop/GD32VW553/V1_MQTT_OK/GD32VW55X_Wifi_BLE_SDK/GD32VW55x_RELEASE_V1.0.2/MSDK/cloud/alicloud/src/infra/utils/digest\utils_sha1.c ****     P(B, C, D, E, A, R(69));
 1980              		.loc 1 214 5
 1981 0e62 4A9C     		add	s8,s2,s8
 1982              	.LVL265:
 214:C:/Users/stapi/OneDrive/Desktop/GD32VW553/V1_MQTT_OK/GD32VW55X_Wifi_BLE_SDK/GD32VW55x_RELEASE_V1.0.2/MSDK/cloud/alicloud/src/infra/utils/digest\utils_sha1.c ****     P(B, C, D, E, A, R(69));
 1983              		.loc 1 214 5 is_stmt 1
 1984 0e64 338B4F01 		add	s6,t6,s4
 1985 0e68 93D72760 		rori	a5,a5,2
 1986              	.LVL266:
 214:C:/Users/stapi/OneDrive/Desktop/GD32VW553/V1_MQTT_OK/GD32VW55X_Wifi_BLE_SDK/GD32VW55x_RELEASE_V1.0.2/MSDK/cloud/alicloud/src/infra/utils/digest\utils_sha1.c ****     P(B, C, D, E, A, R(69));
 1987              		.loc 1 214 28
 1988              		.loc 1 215 5
 216:C:/Users/stapi/OneDrive/Desktop/GD32VW553/V1_MQTT_OK/GD32VW55X_Wifi_BLE_SDK/GD32VW55x_RELEASE_V1.0.2/MSDK/cloud/alicloud/src/infra/utils/digest\utils_sha1.c ****     P(A, B, C, D, E, R(70));
 1989              		.loc 1 216 5 is_stmt 0
 1990 0e6c 334E8E00 		xor	t3,t3,s0
 1991              	.LVL267:
 215:C:/Users/stapi/OneDrive/Desktop/GD32VW553/V1_MQTT_OK/GD32VW55X_Wifi_BLE_SDK/GD32VW55x_RELEASE_V1.0.2/MSDK/cloud/alicloud/src/infra/utils/digest\utils_sha1.c ****     P(A, B, C, D, E, R(70));
 1992              		.loc 1 215 5
 1993 0e70 33C9FC00 		xor	s2,s9,a5
 1994 0e74 3349A901 		xor	s2,s2,s10
 1995 0e78 DA9D     		add	s11,s6,s11
 1996              	.LVL268:
 1997              		.loc 1 216 5
 1998 0e7a 334EDE00 		xor	t3,t3,a3
 1999 0e7e CA9D     		add	s11,s2,s11
 2000 0e80 334E9E00 		xor	t3,t3,s1
 215:C:/Users/stapi/OneDrive/Desktop/GD32VW553/V1_MQTT_OK/GD32VW55X_Wifi_BLE_SDK/GD32VW55x_RELEASE_V1.0.2/MSDK/cloud/alicloud/src/infra/utils/digest\utils_sha1.c ****     P(A, B, C, D, E, R(70));
 2001              		.loc 1 215 5
 2002 0e84 33195C61 		rol	s2,s8,s5
 2003              		.loc 1 216 5
 2004 0e88 331E7E61 		rol	t3,t3,s7
 215:C:/Users/stapi/OneDrive/Desktop/GD32VW553/V1_MQTT_OK/GD32VW55X_Wifi_BLE_SDK/GD32VW55x_RELEASE_V1.0.2/MSDK/cloud/alicloud/src/infra/utils/digest\utils_sha1.c ****     P(A, B, C, D, E, R(70));
 2005              		.loc 1 215 5
 2006 0e8c CA9D     		add	s11,s2,s11
 2007              	.LVL269:
 215:C:/Users/stapi/OneDrive/Desktop/GD32VW553/V1_MQTT_OK/GD32VW55X_Wifi_BLE_SDK/GD32VW55x_RELEASE_V1.0.2/MSDK/cloud/alicloud/src/infra/utils/digest\utils_sha1.c ****     P(A, B, C, D, E, R(70));
 2008              		.loc 1 215 5 is_stmt 1
 2009 0e8e 330B4E01 		add	s6,t3,s4
 2010 0e92 135D2D60 		rori	s10,s10,2
 2011              	.LVL270:
 215:C:/Users/stapi/OneDrive/Desktop/GD32VW553/V1_MQTT_OK/GD32VW55X_Wifi_BLE_SDK/GD32VW55x_RELEASE_V1.0.2/MSDK/cloud/alicloud/src/infra/utils/digest\utils_sha1.c ****     P(A, B, C, D, E, R(70));
 2012              		.loc 1 215 28
 2013              		.loc 1 216 5
 2014 0e96 33C9A701 		xor	s2,a5,s10
 2015 0e9a 33498901 		xor	s2,s2,s8
 2016 0e9e DA9C     		add	s9,s6,s9
 2017              	.LVL271:
 217:C:/Users/stapi/OneDrive/Desktop/GD32VW553/V1_MQTT_OK/GD32VW55X_Wifi_BLE_SDK/GD32VW55x_RELEASE_V1.0.2/MSDK/cloud/alicloud/src/infra/utils/digest\utils_sha1.c ****     P(E, A, B, C, D, R(71));
 2018              		.loc 1 217 5 is_stmt 0
 2019 0ea0 33485800 		xor	a6,a6,t0
 2020 0ea4 CA9C     		add	s9,s2,s9
 2021 0ea6 3348E800 		xor	a6,a6,a4
 216:C:/Users/stapi/OneDrive/Desktop/GD32VW553/V1_MQTT_OK/GD32VW55X_Wifi_BLE_SDK/GD32VW55x_RELEASE_V1.0.2/MSDK/cloud/alicloud/src/infra/utils/digest\utils_sha1.c ****     P(A, B, C, D, E, R(70));
 2022              		.loc 1 216 5
 2023 0eaa 33995D61 		rol	s2,s11,s5
 2024 0eae 135C2C60 		rori	s8,s8,2
 2025              	.LVL272:
 2026 0eb2 CA9C     		add	s9,s2,s9
 2027              	.LVL273:
 216:C:/Users/stapi/OneDrive/Desktop/GD32VW553/V1_MQTT_OK/GD32VW55X_Wifi_BLE_SDK/GD32VW55x_RELEASE_V1.0.2/MSDK/cloud/alicloud/src/infra/utils/digest\utils_sha1.c ****     P(A, B, C, D, E, R(70));
 2028              		.loc 1 216 5 is_stmt 1
 216:C:/Users/stapi/OneDrive/Desktop/GD32VW553/V1_MQTT_OK/GD32VW55X_Wifi_BLE_SDK/GD32VW55x_RELEASE_V1.0.2/MSDK/cloud/alicloud/src/infra/utils/digest\utils_sha1.c ****     P(A, B, C, D, E, R(70));
 2029              		.loc 1 216 28
 2030              		.loc 1 217 5
 2031 0eb4 33487800 		xor	a6,a6,t2
 2032              	.LVL274:
 2033 0eb8 33498D01 		xor	s2,s10,s8
 2034 0ebc 334BB901 		xor	s6,s2,s11
 2035 0ec0 33187861 		rol	a6,a6,s7
 2036              	.LVL275:
 2037 0ec4 33094801 		add	s2,a6,s4
 2038 0ec8 CA97     		add	a5,s2,a5
 2039              	.LVL276:
 218:C:/Users/stapi/OneDrive/Desktop/GD32VW553/V1_MQTT_OK/GD32VW55X_Wifi_BLE_SDK/GD32VW55x_RELEASE_V1.0.2/MSDK/cloud/alicloud/src/infra/utils/digest\utils_sha1.c ****     P(D, E, A, B, C, R(72));
 2040              		.loc 1 218 5 is_stmt 0
 2041 0eca 3344E401 		xor	s0,s0,t5
 217:C:/Users/stapi/OneDrive/Desktop/GD32VW553/V1_MQTT_OK/GD32VW55X_Wifi_BLE_SDK/GD32VW55x_RELEASE_V1.0.2/MSDK/cloud/alicloud/src/infra/utils/digest\utils_sha1.c ****     P(E, A, B, C, D, R(71));
 2042              		.loc 1 217 5
 2043 0ece 33995C61 		rol	s2,s9,s5
 2044 0ed2 DA97     		add	a5,s6,a5
 2045              		.loc 1 218 5
 2046 0ed4 3344D401 		xor	s0,s0,t4
 217:C:/Users/stapi/OneDrive/Desktop/GD32VW553/V1_MQTT_OK/GD32VW55X_Wifi_BLE_SDK/GD32VW55x_RELEASE_V1.0.2/MSDK/cloud/alicloud/src/infra/utils/digest\utils_sha1.c ****     P(E, A, B, C, D, R(71));
 2047              		.loc 1 217 5
 2048 0ed8 CA97     		add	a5,s2,a5
 2049              	.LVL277:
 217:C:/Users/stapi/OneDrive/Desktop/GD32VW553/V1_MQTT_OK/GD32VW55X_Wifi_BLE_SDK/GD32VW55x_RELEASE_V1.0.2/MSDK/cloud/alicloud/src/infra/utils/digest\utils_sha1.c ****     P(E, A, B, C, D, R(71));
 2050              		.loc 1 217 5 is_stmt 1
 2051 0eda 93DD2D60 		rori	s11,s11,2
 2052              	.LVL278:
 217:C:/Users/stapi/OneDrive/Desktop/GD32VW553/V1_MQTT_OK/GD32VW55X_Wifi_BLE_SDK/GD32VW55x_RELEASE_V1.0.2/MSDK/cloud/alicloud/src/infra/utils/digest\utils_sha1.c ****     P(E, A, B, C, D, R(71));
 2053              		.loc 1 217 28
 2054              		.loc 1 218 5
 2055 0ede 3344F401 		xor	s0,s0,t6
 2056 0ee2 3349BC01 		xor	s2,s8,s11
 2057 0ee6 334B9901 		xor	s6,s2,s9
 2058 0eea 33147461 		rol	s0,s0,s7
 2059 0eee 33094401 		add	s2,s0,s4
 2060 0ef2 4A9D     		add	s10,s2,s10
 2061              	.LVL279:
 219:C:/Users/stapi/OneDrive/Desktop/GD32VW553/V1_MQTT_OK/GD32VW55X_Wifi_BLE_SDK/GD32VW55x_RELEASE_V1.0.2/MSDK/cloud/alicloud/src/infra/utils/digest\utils_sha1.c ****     P(C, D, E, A, B, R(73));
 2062              		.loc 1 219 5 is_stmt 0
 2063 0ef4 B3C26200 		xor	t0,t0,t1
 218:C:/Users/stapi/OneDrive/Desktop/GD32VW553/V1_MQTT_OK/GD32VW55X_Wifi_BLE_SDK/GD32VW55x_RELEASE_V1.0.2/MSDK/cloud/alicloud/src/infra/utils/digest\utils_sha1.c ****     P(D, E, A, B, C, R(72));
 2064              		.loc 1 218 5
 2065 0ef8 33995761 		rol	s2,a5,s5
 2066 0efc 5A9D     		add	s10,s6,s10
 2067              		.loc 1 219 5
 2068 0efe B3C21201 		xor	t0,t0,a7
 218:C:/Users/stapi/OneDrive/Desktop/GD32VW553/V1_MQTT_OK/GD32VW55X_Wifi_BLE_SDK/GD32VW55x_RELEASE_V1.0.2/MSDK/cloud/alicloud/src/infra/utils/digest\utils_sha1.c ****     P(D, E, A, B, C, R(72));
 2069              		.loc 1 218 5
 2070 0f02 4A9D     		add	s10,s2,s10
 2071              	.LVL280:
 218:C:/Users/stapi/OneDrive/Desktop/GD32VW553/V1_MQTT_OK/GD32VW55X_Wifi_BLE_SDK/GD32VW55x_RELEASE_V1.0.2/MSDK/cloud/alicloud/src/infra/utils/digest\utils_sha1.c ****     P(D, E, A, B, C, R(72));
 2072              		.loc 1 218 5 is_stmt 1
 2073 0f04 93DC2C60 		rori	s9,s9,2
 2074              	.LVL281:
 218:C:/Users/stapi/OneDrive/Desktop/GD32VW553/V1_MQTT_OK/GD32VW55X_Wifi_BLE_SDK/GD32VW55x_RELEASE_V1.0.2/MSDK/cloud/alicloud/src/infra/utils/digest\utils_sha1.c ****     P(D, E, A, B, C, R(72));
 2075              		.loc 1 218 28
 2076              		.loc 1 219 5
 2077 0f08 B3C2C201 		xor	t0,t0,t3
 2078 0f0c 33C99D01 		xor	s2,s11,s9
 2079 0f10 334BF900 		xor	s6,s2,a5
 220:C:/Users/stapi/OneDrive/Desktop/GD32VW553/V1_MQTT_OK/GD32VW55X_Wifi_BLE_SDK/GD32VW55x_RELEASE_V1.0.2/MSDK/cloud/alicloud/src/infra/utils/digest\utils_sha1.c ****     P(B, C, D, E, A, R(74));
 2080              		.loc 1 220 5 is_stmt 0
 2081 0f14 334FBF00 		xor	t5,t5,a1
 219:C:/Users/stapi/OneDrive/Desktop/GD32VW553/V1_MQTT_OK/GD32VW55X_Wifi_BLE_SDK/GD32VW55x_RELEASE_V1.0.2/MSDK/cloud/alicloud/src/infra/utils/digest\utils_sha1.c ****     P(C, D, E, A, B, R(73));
 2082              		.loc 1 219 5
 2083 0f18 B3927261 		rol	t0,t0,s7
 2084 0f1c 33894201 		add	s2,t0,s4
 2085 0f20 4A9C     		add	s8,s2,s8
 2086              	.LVL282:
 2087              		.loc 1 220 5
 2088 0f22 B3493F01 		xor	s3,t5,s3
 2089              	.LVL283:
 219:C:/Users/stapi/OneDrive/Desktop/GD32VW553/V1_MQTT_OK/GD32VW55X_Wifi_BLE_SDK/GD32VW55x_RELEASE_V1.0.2/MSDK/cloud/alicloud/src/infra/utils/digest\utils_sha1.c ****     P(C, D, E, A, B, R(73));
 2090              		.loc 1 219 5
 2091 0f26 33195D61 		rol	s2,s10,s5
 2092 0f2a 93D72760 		rori	a5,a5,2
 2093              	.LVL284:
 2094 0f2e 5A9C     		add	s8,s6,s8
 2095              		.loc 1 220 5
 2096 0f30 33CFFC00 		xor	t5,s9,a5
 2097 0f34 B3C90901 		xor	s3,s3,a6
 219:C:/Users/stapi/OneDrive/Desktop/GD32VW553/V1_MQTT_OK/GD32VW55X_Wifi_BLE_SDK/GD32VW55x_RELEASE_V1.0.2/MSDK/cloud/alicloud/src/infra/utils/digest\utils_sha1.c ****     P(C, D, E, A, B, R(73));
 2098              		.loc 1 219 5
 2099 0f38 4A9C     		add	s8,s2,s8
 2100              	.LVL285:
 219:C:/Users/stapi/OneDrive/Desktop/GD32VW553/V1_MQTT_OK/GD32VW55X_Wifi_BLE_SDK/GD32VW55x_RELEASE_V1.0.2/MSDK/cloud/alicloud/src/infra/utils/digest\utils_sha1.c ****     P(C, D, E, A, B, R(73));
 2101              		.loc 1 219 5 is_stmt 1
 219:C:/Users/stapi/OneDrive/Desktop/GD32VW553/V1_MQTT_OK/GD32VW55X_Wifi_BLE_SDK/GD32VW55x_RELEASE_V1.0.2/MSDK/cloud/alicloud/src/infra/utils/digest\utils_sha1.c ****     P(C, D, E, A, B, R(73));
 2102              		.loc 1 219 28
 2103              		.loc 1 220 5
 2104 0f3a B3997961 		rol	s3,s3,s7
 2105 0f3e 3349AF01 		xor	s2,t5,s10
 221:C:/Users/stapi/OneDrive/Desktop/GD32VW553/V1_MQTT_OK/GD32VW55X_Wifi_BLE_SDK/GD32VW55x_RELEASE_V1.0.2/MSDK/cloud/alicloud/src/infra/utils/digest\utils_sha1.c ****     P(A, B, C, D, E, R(75));
 2106              		.loc 1 221 5 is_stmt 0
 2107 0f42 3343C300 		xor	t1,t1,a2
 2108 0f46 338F4901 		add	t5,s3,s4
 2109 0f4a FA9D     		add	s11,t5,s11
 2110              	.LVL286:
 2111 0f4c 33439300 		xor	t1,t1,s1
 220:C:/Users/stapi/OneDrive/Desktop/GD32VW553/V1_MQTT_OK/GD32VW55X_Wifi_BLE_SDK/GD32VW55x_RELEASE_V1.0.2/MSDK/cloud/alicloud/src/infra/utils/digest\utils_sha1.c ****     P(B, C, D, E, A, R(74));
 2112              		.loc 1 220 5
 2113 0f50 331F5C61 		rol	t5,s8,s5
 222:C:/Users/stapi/OneDrive/Desktop/GD32VW553/V1_MQTT_OK/GD32VW55X_Wifi_BLE_SDK/GD32VW55x_RELEASE_V1.0.2/MSDK/cloud/alicloud/src/infra/utils/digest\utils_sha1.c ****     P(E, A, B, C, D, R(76));
 2114              		.loc 1 222 5
 2115 0f54 B58D     		xor	a1,a1,a3
 2116 0f56 CA9D     		add	s11,s2,s11
 221:C:/Users/stapi/OneDrive/Desktop/GD32VW553/V1_MQTT_OK/GD32VW55X_Wifi_BLE_SDK/GD32VW55x_RELEASE_V1.0.2/MSDK/cloud/alicloud/src/infra/utils/digest\utils_sha1.c ****     P(A, B, C, D, E, R(75));
 2117              		.loc 1 221 5
 2118 0f58 33438300 		xor	t1,t1,s0
 220:C:/Users/stapi/OneDrive/Desktop/GD32VW553/V1_MQTT_OK/GD32VW55X_Wifi_BLE_SDK/GD32VW55x_RELEASE_V1.0.2/MSDK/cloud/alicloud/src/infra/utils/digest\utils_sha1.c ****     P(B, C, D, E, A, R(74));
 2119              		.loc 1 220 5
 2120 0f5c FA9D     		add	s11,t5,s11
 2121              	.LVL287:
 220:C:/Users/stapi/OneDrive/Desktop/GD32VW553/V1_MQTT_OK/GD32VW55X_Wifi_BLE_SDK/GD32VW55x_RELEASE_V1.0.2/MSDK/cloud/alicloud/src/infra/utils/digest\utils_sha1.c ****     P(B, C, D, E, A, R(74));
 2122              		.loc 1 220 5 is_stmt 1
 221:C:/Users/stapi/OneDrive/Desktop/GD32VW553/V1_MQTT_OK/GD32VW55X_Wifi_BLE_SDK/GD32VW55x_RELEASE_V1.0.2/MSDK/cloud/alicloud/src/infra/utils/digest\utils_sha1.c ****     P(A, B, C, D, E, R(75));
 2123              		.loc 1 221 5 is_stmt 0
 2124 0f5e 33147361 		rol	s0,t1,s7
 223:C:/Users/stapi/OneDrive/Desktop/GD32VW553/V1_MQTT_OK/GD32VW55X_Wifi_BLE_SDK/GD32VW55x_RELEASE_V1.0.2/MSDK/cloud/alicloud/src/infra/utils/digest\utils_sha1.c ****     P(D, E, A, B, C, R(77));
 2125              		.loc 1 223 5
 2126 0f62 398E     		xor	a2,a2,a4
 2127 0f64 33034401 		add	t1,s0,s4
 220:C:/Users/stapi/OneDrive/Desktop/GD32VW553/V1_MQTT_OK/GD32VW55X_Wifi_BLE_SDK/GD32VW55x_RELEASE_V1.0.2/MSDK/cloud/alicloud/src/infra/utils/digest\utils_sha1.c ****     P(A, B, C, D, E, R(75));
 2128              		.loc 1 220 5
 2129 0f68 135D2D60 		rori	s10,s10,2
 2130              	.LVL288:
 220:C:/Users/stapi/OneDrive/Desktop/GD32VW553/V1_MQTT_OK/GD32VW55X_Wifi_BLE_SDK/GD32VW55x_RELEASE_V1.0.2/MSDK/cloud/alicloud/src/infra/utils/digest\utils_sha1.c ****     P(A, B, C, D, E, R(75));
 2131              		.loc 1 220 28 is_stmt 1
 221:C:/Users/stapi/OneDrive/Desktop/GD32VW553/V1_MQTT_OK/GD32VW55X_Wifi_BLE_SDK/GD32VW55x_RELEASE_V1.0.2/MSDK/cloud/alicloud/src/infra/utils/digest\utils_sha1.c ****     P(E, A, B, C, D, R(76));
 2132              		.loc 1 221 5
 222:C:/Users/stapi/OneDrive/Desktop/GD32VW553/V1_MQTT_OK/GD32VW55X_Wifi_BLE_SDK/GD32VW55x_RELEASE_V1.0.2/MSDK/cloud/alicloud/src/infra/utils/digest\utils_sha1.c ****     P(D, E, A, B, C, R(77));
 2133              		.loc 1 222 5 is_stmt 0
 2134 0f6c B3C37500 		xor	t2,a1,t2
 2135              	.LVL289:
 221:C:/Users/stapi/OneDrive/Desktop/GD32VW553/V1_MQTT_OK/GD32VW55X_Wifi_BLE_SDK/GD32VW55x_RELEASE_V1.0.2/MSDK/cloud/alicloud/src/infra/utils/digest\utils_sha1.c ****     P(E, A, B, C, D, R(76));
 2136              		.loc 1 221 5
 2137 0f70 33CFA701 		xor	t5,a5,s10
 2138 0f74 9A9C     		add	s9,t1,s9
 2139              	.LVL290:
 2140 0f76 334F8F01 		xor	t5,t5,s8
 2141              		.loc 1 223 5
 2142 0f7a B34FF601 		xor	t6,a2,t6
 2143              	.LVL291:
 224:C:/Users/stapi/OneDrive/Desktop/GD32VW553/V1_MQTT_OK/GD32VW55X_Wifi_BLE_SDK/GD32VW55x_RELEASE_V1.0.2/MSDK/cloud/alicloud/src/infra/utils/digest\utils_sha1.c ****     P(C, D, E, A, B, R(78));
 2144              		.loc 1 224 5
 2145 0f7e 33C9D601 		xor	s2,a3,t4
 225:C:/Users/stapi/OneDrive/Desktop/GD32VW553/V1_MQTT_OK/GD32VW55X_Wifi_BLE_SDK/GD32VW55x_RELEASE_V1.0.2/MSDK/cloud/alicloud/src/infra/utils/digest\utils_sha1.c ****     P(B, C, D, E, A, R(79));
 2146              		.loc 1 225 5
 2147 0f82 33471701 		xor	a4,a4,a7
 222:C:/Users/stapi/OneDrive/Desktop/GD32VW553/V1_MQTT_OK/GD32VW55X_Wifi_BLE_SDK/GD32VW55x_RELEASE_V1.0.2/MSDK/cloud/alicloud/src/infra/utils/digest\utils_sha1.c ****     P(D, E, A, B, C, R(77));
 2148              		.loc 1 222 5
 2149 0f86 B3C25300 		xor	t0,t2,t0
 2150 0f8a 669F     		add	t5,t5,s9
 221:C:/Users/stapi/OneDrive/Desktop/GD32VW553/V1_MQTT_OK/GD32VW55X_Wifi_BLE_SDK/GD32VW55x_RELEASE_V1.0.2/MSDK/cloud/alicloud/src/infra/utils/digest\utils_sha1.c ****     P(E, A, B, C, D, R(76));
 2151              		.loc 1 221 5
 2152 0f8c 135C2C60 		rori	s8,s8,2
 2153              	.LVL292:
 222:C:/Users/stapi/OneDrive/Desktop/GD32VW553/V1_MQTT_OK/GD32VW55X_Wifi_BLE_SDK/GD32VW55x_RELEASE_V1.0.2/MSDK/cloud/alicloud/src/infra/utils/digest\utils_sha1.c ****     P(D, E, A, B, C, R(77));
 2154              		.loc 1 222 5
 2155 0f90 B3927261 		rol	t0,t0,s7
 2156 0f94 B3458D01 		xor	a1,s10,s8
 2157 0f98 33834201 		add	t1,t0,s4
 2158              		.loc 1 225 5
 2159 0f9c 33480701 		xor	a6,a4,a6
 2160              	.LVL293:
 223:C:/Users/stapi/OneDrive/Desktop/GD32VW553/V1_MQTT_OK/GD32VW55X_Wifi_BLE_SDK/GD32VW55x_RELEASE_V1.0.2/MSDK/cloud/alicloud/src/infra/utils/digest\utils_sha1.c ****     P(C, D, E, A, B, R(78));
 2161              		.loc 1 223 5
 2162 0fa0 B3C93F01 		xor	s3,t6,s3
 226:C:/Users/stapi/OneDrive/Desktop/GD32VW553/V1_MQTT_OK/GD32VW55X_Wifi_BLE_SDK/GD32VW55x_RELEASE_V1.0.2/MSDK/cloud/alicloud/src/infra/utils/digest\utils_sha1.c **** 
 227:C:/Users/stapi/OneDrive/Desktop/GD32VW553/V1_MQTT_OK/GD32VW55X_Wifi_BLE_SDK/GD32VW55x_RELEASE_V1.0.2/MSDK/cloud/alicloud/src/infra/utils/digest\utils_sha1.c **** #undef K
 228:C:/Users/stapi/OneDrive/Desktop/GD32VW553/V1_MQTT_OK/GD32VW55X_Wifi_BLE_SDK/GD32VW55x_RELEASE_V1.0.2/MSDK/cloud/alicloud/src/infra/utils/digest\utils_sha1.c **** #undef F
 229:C:/Users/stapi/OneDrive/Desktop/GD32VW553/V1_MQTT_OK/GD32VW55X_Wifi_BLE_SDK/GD32VW55x_RELEASE_V1.0.2/MSDK/cloud/alicloud/src/infra/utils/digest\utils_sha1.c **** 
 230:C:/Users/stapi/OneDrive/Desktop/GD32VW553/V1_MQTT_OK/GD32VW55X_Wifi_BLE_SDK/GD32VW55x_RELEASE_V1.0.2/MSDK/cloud/alicloud/src/infra/utils/digest\utils_sha1.c ****     ctx->state[0] += A;
 2163              		.loc 1 230 19
 2164 0fa4 1845     		lw	a4,8(a0)
 224:C:/Users/stapi/OneDrive/Desktop/GD32VW553/V1_MQTT_OK/GD32VW55X_Wifi_BLE_SDK/GD32VW55x_RELEASE_V1.0.2/MSDK/cloud/alicloud/src/infra/utils/digest\utils_sha1.c ****     P(B, C, D, E, A, R(79));
 2165              		.loc 1 224 5
 2166 0fa6 3349C901 		xor	s2,s2,t3
 222:C:/Users/stapi/OneDrive/Desktop/GD32VW553/V1_MQTT_OK/GD32VW55X_Wifi_BLE_SDK/GD32VW55x_RELEASE_V1.0.2/MSDK/cloud/alicloud/src/infra/utils/digest\utils_sha1.c ****     P(D, E, A, B, C, R(77));
 2167              		.loc 1 222 5
 2168 0faa B3C5B501 		xor	a1,a1,s11
 221:C:/Users/stapi/OneDrive/Desktop/GD32VW553/V1_MQTT_OK/GD32VW55X_Wifi_BLE_SDK/GD32VW55x_RELEASE_V1.0.2/MSDK/cloud/alicloud/src/infra/utils/digest\utils_sha1.c ****     P(E, A, B, C, D, R(76));
 2169              		.loc 1 221 5
 2170 0fae B39C5D61 		rol	s9,s11,s5
 224:C:/Users/stapi/OneDrive/Desktop/GD32VW553/V1_MQTT_OK/GD32VW55X_Wifi_BLE_SDK/GD32VW55x_RELEASE_V1.0.2/MSDK/cloud/alicloud/src/infra/utils/digest\utils_sha1.c ****     P(B, C, D, E, A, R(79));
 2171              		.loc 1 224 5
 2172 0fb2 33498900 		xor	s2,s2,s0
 221:C:/Users/stapi/OneDrive/Desktop/GD32VW553/V1_MQTT_OK/GD32VW55X_Wifi_BLE_SDK/GD32VW55x_RELEASE_V1.0.2/MSDK/cloud/alicloud/src/infra/utils/digest\utils_sha1.c ****     P(E, A, B, C, D, R(76));
 2173              		.loc 1 221 5
 2174 0fb6 FA9C     		add	s9,s9,t5
 2175              	.LVL294:
 221:C:/Users/stapi/OneDrive/Desktop/GD32VW553/V1_MQTT_OK/GD32VW55X_Wifi_BLE_SDK/GD32VW55x_RELEASE_V1.0.2/MSDK/cloud/alicloud/src/infra/utils/digest\utils_sha1.c ****     P(E, A, B, C, D, R(76));
 2176              		.loc 1 221 5 is_stmt 1
 221:C:/Users/stapi/OneDrive/Desktop/GD32VW553/V1_MQTT_OK/GD32VW55X_Wifi_BLE_SDK/GD32VW55x_RELEASE_V1.0.2/MSDK/cloud/alicloud/src/infra/utils/digest\utils_sha1.c ****     P(E, A, B, C, D, R(76));
 2177              		.loc 1 221 28
 222:C:/Users/stapi/OneDrive/Desktop/GD32VW553/V1_MQTT_OK/GD32VW55X_Wifi_BLE_SDK/GD32VW55x_RELEASE_V1.0.2/MSDK/cloud/alicloud/src/infra/utils/digest\utils_sha1.c ****     P(D, E, A, B, C, R(77));
 2178              		.loc 1 222 5
 2179 0fb8 93DD2D60 		rori	s11,s11,2
 2180              	.LVL295:
 223:C:/Users/stapi/OneDrive/Desktop/GD32VW553/V1_MQTT_OK/GD32VW55X_Wifi_BLE_SDK/GD32VW55x_RELEASE_V1.0.2/MSDK/cloud/alicloud/src/infra/utils/digest\utils_sha1.c ****     P(C, D, E, A, B, R(78));
 2181              		.loc 1 223 5 is_stmt 0
 2182 0fbc B3997961 		rol	s3,s3,s7
 2183 0fc0 3346BC01 		xor	a2,s8,s11
 2184 0fc4 D299     		add	s3,s3,s4
 2185 0fc6 9A97     		add	a5,t1,a5
 2186              	.LVL296:
 2187 0fc8 33469601 		xor	a2,a2,s9
 2188 0fcc AE97     		add	a5,a1,a5
 2189 0fce 4E9D     		add	s10,s3,s10
 2190              	.LVL297:
 224:C:/Users/stapi/OneDrive/Desktop/GD32VW553/V1_MQTT_OK/GD32VW55X_Wifi_BLE_SDK/GD32VW55x_RELEASE_V1.0.2/MSDK/cloud/alicloud/src/infra/utils/digest\utils_sha1.c ****     P(B, C, D, E, A, R(79));
 2191              		.loc 1 224 5
 2192 0fd0 33197961 		rol	s2,s2,s7
 2193 0fd4 5299     		add	s2,s2,s4
 222:C:/Users/stapi/OneDrive/Desktop/GD32VW553/V1_MQTT_OK/GD32VW55X_Wifi_BLE_SDK/GD32VW55x_RELEASE_V1.0.2/MSDK/cloud/alicloud/src/infra/utils/digest\utils_sha1.c ****     P(D, E, A, B, C, R(77));
 2194              		.loc 1 222 5
 2195 0fd6 B3955C61 		rol	a1,s9,s5
 2196 0fda 329D     		add	s10,s10,a2
 2197 0fdc AE97     		add	a5,a1,a5
 2198              	.LVL298:
 222:C:/Users/stapi/OneDrive/Desktop/GD32VW553/V1_MQTT_OK/GD32VW55X_Wifi_BLE_SDK/GD32VW55x_RELEASE_V1.0.2/MSDK/cloud/alicloud/src/infra/utils/digest\utils_sha1.c ****     P(D, E, A, B, C, R(77));
 2199              		.loc 1 222 5 is_stmt 1
 222:C:/Users/stapi/OneDrive/Desktop/GD32VW553/V1_MQTT_OK/GD32VW55X_Wifi_BLE_SDK/GD32VW55x_RELEASE_V1.0.2/MSDK/cloud/alicloud/src/infra/utils/digest\utils_sha1.c ****     P(D, E, A, B, C, R(77));
 2200              		.loc 1 222 28
 223:C:/Users/stapi/OneDrive/Desktop/GD32VW553/V1_MQTT_OK/GD32VW55X_Wifi_BLE_SDK/GD32VW55x_RELEASE_V1.0.2/MSDK/cloud/alicloud/src/infra/utils/digest\utils_sha1.c ****     P(C, D, E, A, B, R(78));
 2201              		.loc 1 223 5
 2202 0fde 93DC2C60 		rori	s9,s9,2
 2203              	.LVL299:
 2204 0fe2 4A9C     		add	s8,s2,s8
 2205              	.LVL300:
 2206              		.loc 1 230 19 is_stmt 0
 2207 0fe4 3A9A     		add	s4,a4,s4
 224:C:/Users/stapi/OneDrive/Desktop/GD32VW553/V1_MQTT_OK/GD32VW55X_Wifi_BLE_SDK/GD32VW55x_RELEASE_V1.0.2/MSDK/cloud/alicloud/src/infra/utils/digest\utils_sha1.c ****     P(B, C, D, E, A, R(79));
 2208              		.loc 1 224 5
 2209 0fe6 33C99D01 		xor	s2,s11,s9
 225:C:/Users/stapi/OneDrive/Desktop/GD32VW553/V1_MQTT_OK/GD32VW55X_Wifi_BLE_SDK/GD32VW55x_RELEASE_V1.0.2/MSDK/cloud/alicloud/src/infra/utils/digest\utils_sha1.c **** 
 2210              		.loc 1 225 5
 2211 0fea B3425800 		xor	t0,a6,t0
 224:C:/Users/stapi/OneDrive/Desktop/GD32VW553/V1_MQTT_OK/GD32VW55X_Wifi_BLE_SDK/GD32VW55x_RELEASE_V1.0.2/MSDK/cloud/alicloud/src/infra/utils/digest\utils_sha1.c ****     P(B, C, D, E, A, R(79));
 2212              		.loc 1 224 5
 2213 0fee 3349F900 		xor	s2,s2,a5
 223:C:/Users/stapi/OneDrive/Desktop/GD32VW553/V1_MQTT_OK/GD32VW55X_Wifi_BLE_SDK/GD32VW55x_RELEASE_V1.0.2/MSDK/cloud/alicloud/src/infra/utils/digest\utils_sha1.c ****     P(C, D, E, A, B, R(78));
 2214              		.loc 1 223 5
 2215 0ff2 33965761 		rol	a2,a5,s5
 225:C:/Users/stapi/OneDrive/Desktop/GD32VW553/V1_MQTT_OK/GD32VW55X_Wifi_BLE_SDK/GD32VW55x_RELEASE_V1.0.2/MSDK/cloud/alicloud/src/infra/utils/digest\utils_sha1.c **** 
 2216              		.loc 1 225 5
 2217 0ff6 B39B7261 		rol	s7,t0,s7
 223:C:/Users/stapi/OneDrive/Desktop/GD32VW553/V1_MQTT_OK/GD32VW55X_Wifi_BLE_SDK/GD32VW55x_RELEASE_V1.0.2/MSDK/cloud/alicloud/src/infra/utils/digest\utils_sha1.c ****     P(C, D, E, A, B, R(78));
 2218              		.loc 1 223 5
 2219 0ffa 329D     		add	s10,a2,s10
 2220              	.LVL301:
 223:C:/Users/stapi/OneDrive/Desktop/GD32VW553/V1_MQTT_OK/GD32VW55X_Wifi_BLE_SDK/GD32VW55x_RELEASE_V1.0.2/MSDK/cloud/alicloud/src/infra/utils/digest\utils_sha1.c ****     P(C, D, E, A, B, R(78));
 2221              		.loc 1 223 5 is_stmt 1
 223:C:/Users/stapi/OneDrive/Desktop/GD32VW553/V1_MQTT_OK/GD32VW55X_Wifi_BLE_SDK/GD32VW55x_RELEASE_V1.0.2/MSDK/cloud/alicloud/src/infra/utils/digest\utils_sha1.c ****     P(C, D, E, A, B, R(78));
 2222              		.loc 1 223 28
 224:C:/Users/stapi/OneDrive/Desktop/GD32VW553/V1_MQTT_OK/GD32VW55X_Wifi_BLE_SDK/GD32VW55x_RELEASE_V1.0.2/MSDK/cloud/alicloud/src/infra/utils/digest\utils_sha1.c ****     P(B, C, D, E, A, R(79));
 2223              		.loc 1 224 5
 2224              		.loc 1 230 19 is_stmt 0
 2225 0ffc 5E9A     		add	s4,s7,s4
 224:C:/Users/stapi/OneDrive/Desktop/GD32VW553/V1_MQTT_OK/GD32VW55X_Wifi_BLE_SDK/GD32VW55x_RELEASE_V1.0.2/MSDK/cloud/alicloud/src/infra/utils/digest\utils_sha1.c ****     P(B, C, D, E, A, R(79));
 2226              		.loc 1 224 5
 2227 0ffe 93D72760 		rori	a5,a5,2
 2228              	.LVL302:
 225:C:/Users/stapi/OneDrive/Desktop/GD32VW553/V1_MQTT_OK/GD32VW55X_Wifi_BLE_SDK/GD32VW55x_RELEASE_V1.0.2/MSDK/cloud/alicloud/src/infra/utils/digest\utils_sha1.c **** 
 2229              		.loc 1 225 5
 2230 1002 33CFFC00 		xor	t5,s9,a5
 231:C:/Users/stapi/OneDrive/Desktop/GD32VW553/V1_MQTT_OK/GD32VW55X_Wifi_BLE_SDK/GD32VW55x_RELEASE_V1.0.2/MSDK/cloud/alicloud/src/infra/utils/digest\utils_sha1.c ****     ctx->state[1] += B;
 2231              		.loc 1 231 19
 2232 1006 5845     		lw	a4,12(a0)
 2233 1008 4A9C     		add	s8,s8,s2
 230:C:/Users/stapi/OneDrive/Desktop/GD32VW553/V1_MQTT_OK/GD32VW55X_Wifi_BLE_SDK/GD32VW55x_RELEASE_V1.0.2/MSDK/cloud/alicloud/src/infra/utils/digest\utils_sha1.c ****     ctx->state[1] += B;
 2234              		.loc 1 230 19
 2235 100a D29D     		add	s11,s4,s11
 2236              	.LVL303:
 225:C:/Users/stapi/OneDrive/Desktop/GD32VW553/V1_MQTT_OK/GD32VW55X_Wifi_BLE_SDK/GD32VW55x_RELEASE_V1.0.2/MSDK/cloud/alicloud/src/infra/utils/digest\utils_sha1.c **** 
 2237              		.loc 1 225 5
 2238 100c 334FAF01 		xor	t5,t5,s10
 224:C:/Users/stapi/OneDrive/Desktop/GD32VW553/V1_MQTT_OK/GD32VW55X_Wifi_BLE_SDK/GD32VW55x_RELEASE_V1.0.2/MSDK/cloud/alicloud/src/infra/utils/digest\utils_sha1.c ****     P(B, C, D, E, A, R(79));
 2239              		.loc 1 224 5
 2240 1010 B3165D61 		rol	a3,s10,s5
 2241              	.LVL304:
 230:C:/Users/stapi/OneDrive/Desktop/GD32VW553/V1_MQTT_OK/GD32VW55X_Wifi_BLE_SDK/GD32VW55x_RELEASE_V1.0.2/MSDK/cloud/alicloud/src/infra/utils/digest\utils_sha1.c ****     ctx->state[1] += B;
 2242              		.loc 1 230 19
 2243 1014 FA9D     		add	s11,s11,t5
 224:C:/Users/stapi/OneDrive/Desktop/GD32VW553/V1_MQTT_OK/GD32VW55X_Wifi_BLE_SDK/GD32VW55x_RELEASE_V1.0.2/MSDK/cloud/alicloud/src/infra/utils/digest\utils_sha1.c ****     P(B, C, D, E, A, R(79));
 2244              		.loc 1 224 5
 2245 1016 369C     		add	s8,a3,s8
 2246              	.LVL305:
 224:C:/Users/stapi/OneDrive/Desktop/GD32VW553/V1_MQTT_OK/GD32VW55X_Wifi_BLE_SDK/GD32VW55x_RELEASE_V1.0.2/MSDK/cloud/alicloud/src/infra/utils/digest\utils_sha1.c ****     P(B, C, D, E, A, R(79));
 2247              		.loc 1 224 5 is_stmt 1
 224:C:/Users/stapi/OneDrive/Desktop/GD32VW553/V1_MQTT_OK/GD32VW55X_Wifi_BLE_SDK/GD32VW55x_RELEASE_V1.0.2/MSDK/cloud/alicloud/src/infra/utils/digest\utils_sha1.c ****     P(B, C, D, E, A, R(79));
 2248              		.loc 1 224 28
 225:C:/Users/stapi/OneDrive/Desktop/GD32VW553/V1_MQTT_OK/GD32VW55X_Wifi_BLE_SDK/GD32VW55x_RELEASE_V1.0.2/MSDK/cloud/alicloud/src/infra/utils/digest\utils_sha1.c **** 
 2249              		.loc 1 225 5
 225:C:/Users/stapi/OneDrive/Desktop/GD32VW553/V1_MQTT_OK/GD32VW55X_Wifi_BLE_SDK/GD32VW55x_RELEASE_V1.0.2/MSDK/cloud/alicloud/src/infra/utils/digest\utils_sha1.c **** 
 2250              		.loc 1 225 5
 225:C:/Users/stapi/OneDrive/Desktop/GD32VW553/V1_MQTT_OK/GD32VW55X_Wifi_BLE_SDK/GD32VW55x_RELEASE_V1.0.2/MSDK/cloud/alicloud/src/infra/utils/digest\utils_sha1.c **** 
 2251              		.loc 1 225 28
 230:C:/Users/stapi/OneDrive/Desktop/GD32VW553/V1_MQTT_OK/GD32VW55X_Wifi_BLE_SDK/GD32VW55x_RELEASE_V1.0.2/MSDK/cloud/alicloud/src/infra/utils/digest\utils_sha1.c ****     ctx->state[1] += B;
 2252              		.loc 1 230 5
 225:C:/Users/stapi/OneDrive/Desktop/GD32VW553/V1_MQTT_OK/GD32VW55X_Wifi_BLE_SDK/GD32VW55x_RELEASE_V1.0.2/MSDK/cloud/alicloud/src/infra/utils/digest\utils_sha1.c **** 
 2253              		.loc 1 225 5 is_stmt 0
 2254 1018 B31A5C61 		rol	s5,s8,s5
 230:C:/Users/stapi/OneDrive/Desktop/GD32VW553/V1_MQTT_OK/GD32VW55X_Wifi_BLE_SDK/GD32VW55x_RELEASE_V1.0.2/MSDK/cloud/alicloud/src/infra/utils/digest\utils_sha1.c ****     ctx->state[1] += B;
 2255              		.loc 1 230 19
 2256 101c EE9A     		add	s5,s11,s5
 2257              		.loc 1 231 19
 2258 101e 3A9C     		add	s8,a4,s8
 2259              	.LVL306:
 230:C:/Users/stapi/OneDrive/Desktop/GD32VW553/V1_MQTT_OK/GD32VW55X_Wifi_BLE_SDK/GD32VW55x_RELEASE_V1.0.2/MSDK/cloud/alicloud/src/infra/utils/digest\utils_sha1.c ****     ctx->state[1] += B;
 2260              		.loc 1 230 19
 2261 1020 23245501 		sw	s5,8(a0)
 2262              		.loc 1 231 5 is_stmt 1
 2263              		.loc 1 231 19 is_stmt 0
 2264 1024 23268501 		sw	s8,12(a0)
 232:C:/Users/stapi/OneDrive/Desktop/GD32VW553/V1_MQTT_OK/GD32VW55X_Wifi_BLE_SDK/GD32VW55x_RELEASE_V1.0.2/MSDK/cloud/alicloud/src/infra/utils/digest\utils_sha1.c ****     ctx->state[2] += C;
 2265              		.loc 1 232 5 is_stmt 1
 2266              		.loc 1 232 19 is_stmt 0
 2267 1028 1849     		lw	a4,16(a0)
 225:C:/Users/stapi/OneDrive/Desktop/GD32VW553/V1_MQTT_OK/GD32VW55X_Wifi_BLE_SDK/GD32VW55x_RELEASE_V1.0.2/MSDK/cloud/alicloud/src/infra/utils/digest\utils_sha1.c **** 
 2268              		.loc 1 225 5
 2269 102a 135D2D60 		rori	s10,s10,2
 2270              	.LVL307:
 233:C:/Users/stapi/OneDrive/Desktop/GD32VW553/V1_MQTT_OK/GD32VW55X_Wifi_BLE_SDK/GD32VW55x_RELEASE_V1.0.2/MSDK/cloud/alicloud/src/infra/utils/digest\utils_sha1.c ****     ctx->state[3] += D;
 234:C:/Users/stapi/OneDrive/Desktop/GD32VW553/V1_MQTT_OK/GD32VW55X_Wifi_BLE_SDK/GD32VW55x_RELEASE_V1.0.2/MSDK/cloud/alicloud/src/infra/utils/digest\utils_sha1.c ****     ctx->state[4] += E;
 235:C:/Users/stapi/OneDrive/Desktop/GD32VW553/V1_MQTT_OK/GD32VW55X_Wifi_BLE_SDK/GD32VW55x_RELEASE_V1.0.2/MSDK/cloud/alicloud/src/infra/utils/digest\utils_sha1.c **** }
 2271              		.loc 1 235 1
 2272 102e 7254     		lw	s0,60(sp)
 2273              		.cfi_restore 8
 232:C:/Users/stapi/OneDrive/Desktop/GD32VW553/V1_MQTT_OK/GD32VW55X_Wifi_BLE_SDK/GD32VW55x_RELEASE_V1.0.2/MSDK/cloud/alicloud/src/infra/utils/digest\utils_sha1.c ****     ctx->state[2] += C;
 2274              		.loc 1 232 19
 2275 1030 3A9D     		add	s10,s10,a4
 2276              	.LVL308:
 233:C:/Users/stapi/OneDrive/Desktop/GD32VW553/V1_MQTT_OK/GD32VW55X_Wifi_BLE_SDK/GD32VW55x_RELEASE_V1.0.2/MSDK/cloud/alicloud/src/infra/utils/digest\utils_sha1.c ****     ctx->state[3] += D;
 2277              		.loc 1 233 19
 2278 1032 5849     		lw	a4,20(a0)
 232:C:/Users/stapi/OneDrive/Desktop/GD32VW553/V1_MQTT_OK/GD32VW55X_Wifi_BLE_SDK/GD32VW55x_RELEASE_V1.0.2/MSDK/cloud/alicloud/src/infra/utils/digest\utils_sha1.c ****     ctx->state[2] += C;
 2279              		.loc 1 232 19
 2280 1034 2328A501 		sw	s10,16(a0)
 233:C:/Users/stapi/OneDrive/Desktop/GD32VW553/V1_MQTT_OK/GD32VW55X_Wifi_BLE_SDK/GD32VW55x_RELEASE_V1.0.2/MSDK/cloud/alicloud/src/infra/utils/digest\utils_sha1.c ****     ctx->state[3] += D;
 2281              		.loc 1 233 5 is_stmt 1
 2282              		.loc 1 235 1 is_stmt 0
 2283 1038 E254     		lw	s1,56(sp)
 2284              		.cfi_restore 9
 2285              	.LVL309:
 233:C:/Users/stapi/OneDrive/Desktop/GD32VW553/V1_MQTT_OK/GD32VW55X_Wifi_BLE_SDK/GD32VW55x_RELEASE_V1.0.2/MSDK/cloud/alicloud/src/infra/utils/digest\utils_sha1.c ****     ctx->state[3] += D;
 2286              		.loc 1 233 19
 2287 103a BA97     		add	a5,a4,a5
 2288              	.LVL310:
 2289 103c 5CC9     		sw	a5,20(a0)
 234:C:/Users/stapi/OneDrive/Desktop/GD32VW553/V1_MQTT_OK/GD32VW55X_Wifi_BLE_SDK/GD32VW55x_RELEASE_V1.0.2/MSDK/cloud/alicloud/src/infra/utils/digest\utils_sha1.c **** }
 2290              		.loc 1 234 5 is_stmt 1
 234:C:/Users/stapi/OneDrive/Desktop/GD32VW553/V1_MQTT_OK/GD32VW55X_Wifi_BLE_SDK/GD32VW55x_RELEASE_V1.0.2/MSDK/cloud/alicloud/src/infra/utils/digest\utils_sha1.c **** }
 2291              		.loc 1 234 19 is_stmt 0
 2292 103e 1C4D     		lw	a5,24(a0)
 2293              		.loc 1 235 1
 2294 1040 5259     		lw	s2,52(sp)
 2295              		.cfi_restore 18
 2296 1042 C259     		lw	s3,48(sp)
 2297              		.cfi_restore 19
 234:C:/Users/stapi/OneDrive/Desktop/GD32VW553/V1_MQTT_OK/GD32VW55X_Wifi_BLE_SDK/GD32VW55x_RELEASE_V1.0.2/MSDK/cloud/alicloud/src/infra/utils/digest\utils_sha1.c **** }
 2298              		.loc 1 234 19
 2299 1044 BE9C     		add	s9,a5,s9
 2300              	.LVL311:
 2301 1046 232C9501 		sw	s9,24(a0)
 2302              		.loc 1 235 1
 2303 104a 325A     		lw	s4,44(sp)
 2304              		.cfi_restore 20
 2305 104c A25A     		lw	s5,40(sp)
 2306              		.cfi_restore 21
 2307 104e 125B     		lw	s6,36(sp)
 2308              		.cfi_restore 22
 2309 1050 825B     		lw	s7,32(sp)
 2310              		.cfi_restore 23
 2311 1052 724C     		lw	s8,28(sp)
 2312              		.cfi_restore 24
 2313 1054 E24C     		lw	s9,24(sp)
 2314              		.cfi_restore 25
 2315 1056 524D     		lw	s10,20(sp)
 2316              		.cfi_restore 26
 2317 1058 C24D     		lw	s11,16(sp)
 2318              		.cfi_restore 27
 2319 105a 2161     		addi	sp,sp,64
 2320              		.cfi_def_cfa_offset 0
 2321 105c 8280     		jr	ra
 2322              		.cfi_endproc
 2323              	.LFE9:
 2325              		.section	.text.utils_sha1_update.part.0,"ax",@progbits
 2326              		.align	1
 2328              	utils_sha1_update.part.0:
 2329              	.LFB13:
 236:C:/Users/stapi/OneDrive/Desktop/GD32VW553/V1_MQTT_OK/GD32VW55X_Wifi_BLE_SDK/GD32VW55x_RELEASE_V1.0.2/MSDK/cloud/alicloud/src/infra/utils/digest\utils_sha1.c **** 
 237:C:/Users/stapi/OneDrive/Desktop/GD32VW553/V1_MQTT_OK/GD32VW55X_Wifi_BLE_SDK/GD32VW55x_RELEASE_V1.0.2/MSDK/cloud/alicloud/src/infra/utils/digest\utils_sha1.c **** /*
 238:C:/Users/stapi/OneDrive/Desktop/GD32VW553/V1_MQTT_OK/GD32VW55X_Wifi_BLE_SDK/GD32VW55x_RELEASE_V1.0.2/MSDK/cloud/alicloud/src/infra/utils/digest\utils_sha1.c ****  * SHA-1 process buffer
 239:C:/Users/stapi/OneDrive/Desktop/GD32VW553/V1_MQTT_OK/GD32VW55X_Wifi_BLE_SDK/GD32VW55x_RELEASE_V1.0.2/MSDK/cloud/alicloud/src/infra/utils/digest\utils_sha1.c ****  */
 240:C:/Users/stapi/OneDrive/Desktop/GD32VW553/V1_MQTT_OK/GD32VW55X_Wifi_BLE_SDK/GD32VW55x_RELEASE_V1.0.2/MSDK/cloud/alicloud/src/infra/utils/digest\utils_sha1.c **** void utils_sha1_update(iot_sha1_context *ctx, const unsigned char *input, size_t ilen)
 2330              		.loc 1 240 6 is_stmt 1
 2331              		.cfi_startproc
 2332              	.LVL312:
 2333 0000 17030000 		call	t0,__riscv_save_7
 2333      E7020300 
 2334              		.cfi_offset 22, -32
 2335              		.cfi_offset 21, -28
 2336              		.cfi_offset 20, -24
 2337              		.cfi_offset 19, -20
 2338              		.cfi_offset 18, -16
 2339              		.cfi_offset 9, -12
 2340              		.cfi_offset 8, -8
 2341              		.cfi_offset 1, -4
 2342              		.cfi_def_cfa_offset 32
 241:C:/Users/stapi/OneDrive/Desktop/GD32VW553/V1_MQTT_OK/GD32VW55X_Wifi_BLE_SDK/GD32VW55x_RELEASE_V1.0.2/MSDK/cloud/alicloud/src/infra/utils/digest\utils_sha1.c **** {
 242:C:/Users/stapi/OneDrive/Desktop/GD32VW553/V1_MQTT_OK/GD32VW55X_Wifi_BLE_SDK/GD32VW55x_RELEASE_V1.0.2/MSDK/cloud/alicloud/src/infra/utils/digest\utils_sha1.c ****     size_t fill;
 243:C:/Users/stapi/OneDrive/Desktop/GD32VW553/V1_MQTT_OK/GD32VW55X_Wifi_BLE_SDK/GD32VW55x_RELEASE_V1.0.2/MSDK/cloud/alicloud/src/infra/utils/digest\utils_sha1.c ****     uint32_t left;
 244:C:/Users/stapi/OneDrive/Desktop/GD32VW553/V1_MQTT_OK/GD32VW55X_Wifi_BLE_SDK/GD32VW55x_RELEASE_V1.0.2/MSDK/cloud/alicloud/src/infra/utils/digest\utils_sha1.c **** 
 245:C:/Users/stapi/OneDrive/Desktop/GD32VW553/V1_MQTT_OK/GD32VW55X_Wifi_BLE_SDK/GD32VW55x_RELEASE_V1.0.2/MSDK/cloud/alicloud/src/infra/utils/digest\utils_sha1.c ****     if (ilen == 0) {
 246:C:/Users/stapi/OneDrive/Desktop/GD32VW553/V1_MQTT_OK/GD32VW55X_Wifi_BLE_SDK/GD32VW55x_RELEASE_V1.0.2/MSDK/cloud/alicloud/src/infra/utils/digest\utils_sha1.c ****         return;
 247:C:/Users/stapi/OneDrive/Desktop/GD32VW553/V1_MQTT_OK/GD32VW55X_Wifi_BLE_SDK/GD32VW55x_RELEASE_V1.0.2/MSDK/cloud/alicloud/src/infra/utils/digest\utils_sha1.c ****     }
 248:C:/Users/stapi/OneDrive/Desktop/GD32VW553/V1_MQTT_OK/GD32VW55X_Wifi_BLE_SDK/GD32VW55x_RELEASE_V1.0.2/MSDK/cloud/alicloud/src/infra/utils/digest\utils_sha1.c **** 
 249:C:/Users/stapi/OneDrive/Desktop/GD32VW553/V1_MQTT_OK/GD32VW55X_Wifi_BLE_SDK/GD32VW55x_RELEASE_V1.0.2/MSDK/cloud/alicloud/src/infra/utils/digest\utils_sha1.c ****     left = ctx->total[0] & 0x3F;
 2343              		.loc 1 249 5
 2344              		.loc 1 249 22 is_stmt 0
 2345 0008 1C41     		lw	a5,0(a0)
 240:C:/Users/stapi/OneDrive/Desktop/GD32VW553/V1_MQTT_OK/GD32VW55X_Wifi_BLE_SDK/GD32VW55x_RELEASE_V1.0.2/MSDK/cloud/alicloud/src/infra/utils/digest\utils_sha1.c **** {
 2346              		.loc 1 240 6
 2347 000a AA84     		mv	s1,a0
 2348 000c 2E89     		mv	s2,a1
 2349              		.loc 1 249 10
 2350 000e 93F9F703 		andi	s3,a5,63
 2351              	.LVL313:
 250:C:/Users/stapi/OneDrive/Desktop/GD32VW553/V1_MQTT_OK/GD32VW55X_Wifi_BLE_SDK/GD32VW55x_RELEASE_V1.0.2/MSDK/cloud/alicloud/src/infra/utils/digest\utils_sha1.c ****     fill = 64 - left;
 2352              		.loc 1 250 5 is_stmt 1
 251:C:/Users/stapi/OneDrive/Desktop/GD32VW553/V1_MQTT_OK/GD32VW55X_Wifi_BLE_SDK/GD32VW55x_RELEASE_V1.0.2/MSDK/cloud/alicloud/src/infra/utils/digest\utils_sha1.c **** 
 252:C:/Users/stapi/OneDrive/Desktop/GD32VW553/V1_MQTT_OK/GD32VW55X_Wifi_BLE_SDK/GD32VW55x_RELEASE_V1.0.2/MSDK/cloud/alicloud/src/infra/utils/digest\utils_sha1.c ****     ctx->total[0] += (uint32_t) ilen;
 2353              		.loc 1 252 5
 2354              		.loc 1 252 19 is_stmt 0
 2355 0012 B297     		add	a5,a5,a2
 2356 0014 1CC1     		sw	a5,0(a0)
 253:C:/Users/stapi/OneDrive/Desktop/GD32VW553/V1_MQTT_OK/GD32VW55X_Wifi_BLE_SDK/GD32VW55x_RELEASE_V1.0.2/MSDK/cloud/alicloud/src/infra/utils/digest\utils_sha1.c ****     ctx->total[0] &= 0xFFFFFFFF;
 2357              		.loc 1 253 5 is_stmt 1
 254:C:/Users/stapi/OneDrive/Desktop/GD32VW553/V1_MQTT_OK/GD32VW55X_Wifi_BLE_SDK/GD32VW55x_RELEASE_V1.0.2/MSDK/cloud/alicloud/src/infra/utils/digest\utils_sha1.c **** 
 255:C:/Users/stapi/OneDrive/Desktop/GD32VW553/V1_MQTT_OK/GD32VW55X_Wifi_BLE_SDK/GD32VW55x_RELEASE_V1.0.2/MSDK/cloud/alicloud/src/infra/utils/digest\utils_sha1.c ****     if (ctx->total[0] < (uint32_t) ilen) {
 2358              		.loc 1 255 5
 240:C:/Users/stapi/OneDrive/Desktop/GD32VW553/V1_MQTT_OK/GD32VW55X_Wifi_BLE_SDK/GD32VW55x_RELEASE_V1.0.2/MSDK/cloud/alicloud/src/infra/utils/digest\utils_sha1.c **** {
 2359              		.loc 1 240 6 is_stmt 0
 2360 0016 3284     		mv	s0,a2
 2361              		.loc 1 255 8
 2362 0018 63F5C700 		bleu	a2,a5,.L16
 256:C:/Users/stapi/OneDrive/Desktop/GD32VW553/V1_MQTT_OK/GD32VW55X_Wifi_BLE_SDK/GD32VW55x_RELEASE_V1.0.2/MSDK/cloud/alicloud/src/infra/utils/digest\utils_sha1.c ****         ctx->total[1]++;
 2363              		.loc 1 256 9 is_stmt 1
 2364              		.loc 1 256 22 is_stmt 0
 2365 001c 5C41     		lw	a5,4(a0)
 2366 001e 8507     		addi	a5,a5,1
 2367 0020 5CC1     		sw	a5,4(a0)
 2368              	.L16:
 257:C:/Users/stapi/OneDrive/Desktop/GD32VW553/V1_MQTT_OK/GD32VW55X_Wifi_BLE_SDK/GD32VW55x_RELEASE_V1.0.2/MSDK/cloud/alicloud/src/infra/utils/digest\utils_sha1.c ****     }
 258:C:/Users/stapi/OneDrive/Desktop/GD32VW553/V1_MQTT_OK/GD32VW55X_Wifi_BLE_SDK/GD32VW55x_RELEASE_V1.0.2/MSDK/cloud/alicloud/src/infra/utils/digest\utils_sha1.c **** 
 259:C:/Users/stapi/OneDrive/Desktop/GD32VW553/V1_MQTT_OK/GD32VW55X_Wifi_BLE_SDK/GD32VW55x_RELEASE_V1.0.2/MSDK/cloud/alicloud/src/infra/utils/digest\utils_sha1.c ****     if (left && ilen >= fill) {
 2369              		.loc 1 259 5 is_stmt 1
 2370              		.loc 1 259 8 is_stmt 0
 2371 0022 638D0902 		beq	s3,zero,.L17
 250:C:/Users/stapi/OneDrive/Desktop/GD32VW553/V1_MQTT_OK/GD32VW55X_Wifi_BLE_SDK/GD32VW55x_RELEASE_V1.0.2/MSDK/cloud/alicloud/src/infra/utils/digest\utils_sha1.c **** 
 2372              		.loc 1 250 10
 2373 0026 130A0004 		li	s4,64
 2374 002a 330A3A41 		sub	s4,s4,s3
 2375              		.loc 1 259 14
 2376 002e 63674403 		bgtu	s4,s0,.L17
 260:C:/Users/stapi/OneDrive/Desktop/GD32VW553/V1_MQTT_OK/GD32VW55X_Wifi_BLE_SDK/GD32VW55x_RELEASE_V1.0.2/MSDK/cloud/alicloud/src/infra/utils/digest\utils_sha1.c ****         memcpy((void *)(ctx->buffer + left), input, fill);
 2377              		.loc 1 260 9 is_stmt 1
 2378              		.loc 1 260 25 is_stmt 0
 2379 0032 938AC401 		addi	s5,s1,28
 2380              		.loc 1 260 9
 2381 0036 CA85     		mv	a1,s2
 2382              	.LVL314:
 2383 0038 5286     		mv	a2,s4
 2384              	.LVL315:
 2385 003a 33853A01 		add	a0,s5,s3
 2386              	.LVL316:
 2387 003e 97000000 		call	memcpy
 2387      E7800000 
 2388              	.LVL317:
 261:C:/Users/stapi/OneDrive/Desktop/GD32VW553/V1_MQTT_OK/GD32VW55X_Wifi_BLE_SDK/GD32VW55x_RELEASE_V1.0.2/MSDK/cloud/alicloud/src/infra/utils/digest\utils_sha1.c ****         utils_sha1_process(ctx, ctx->buffer);
 2389              		.loc 1 261 9 is_stmt 1
 2390 0046 D685     		mv	a1,s5
 2391 0048 2685     		mv	a0,s1
 2392 004a 130404FC 		addi	s0,s0,-64
 2393              	.LVL318:
 262:C:/Users/stapi/OneDrive/Desktop/GD32VW553/V1_MQTT_OK/GD32VW55X_Wifi_BLE_SDK/GD32VW55x_RELEASE_V1.0.2/MSDK/cloud/alicloud/src/infra/utils/digest\utils_sha1.c ****         input += fill;
 263:C:/Users/stapi/OneDrive/Desktop/GD32VW553/V1_MQTT_OK/GD32VW55X_Wifi_BLE_SDK/GD32VW55x_RELEASE_V1.0.2/MSDK/cloud/alicloud/src/infra/utils/digest\utils_sha1.c ****         ilen  -= fill;
 2394              		.loc 1 263 15 is_stmt 0
 2395 004e 4E94     		add	s0,s3,s0
 2396              	.LVL319:
 261:C:/Users/stapi/OneDrive/Desktop/GD32VW553/V1_MQTT_OK/GD32VW55X_Wifi_BLE_SDK/GD32VW55x_RELEASE_V1.0.2/MSDK/cloud/alicloud/src/infra/utils/digest\utils_sha1.c ****         utils_sha1_process(ctx, ctx->buffer);
 2397              		.loc 1 261 9
 2398 0050 97000000 		call	utils_sha1_process
 2398      E7800000 
 2399              	.LVL320:
 262:C:/Users/stapi/OneDrive/Desktop/GD32VW553/V1_MQTT_OK/GD32VW55X_Wifi_BLE_SDK/GD32VW55x_RELEASE_V1.0.2/MSDK/cloud/alicloud/src/infra/utils/digest\utils_sha1.c ****         input += fill;
 2400              		.loc 1 262 9 is_stmt 1
 262:C:/Users/stapi/OneDrive/Desktop/GD32VW553/V1_MQTT_OK/GD32VW55X_Wifi_BLE_SDK/GD32VW55x_RELEASE_V1.0.2/MSDK/cloud/alicloud/src/infra/utils/digest\utils_sha1.c ****         input += fill;
 2401              		.loc 1 262 15 is_stmt 0
 2402 0058 5299     		add	s2,s2,s4
 2403              	.LVL321:
 2404              		.loc 1 263 9 is_stmt 1
 264:C:/Users/stapi/OneDrive/Desktop/GD32VW553/V1_MQTT_OK/GD32VW55X_Wifi_BLE_SDK/GD32VW55x_RELEASE_V1.0.2/MSDK/cloud/alicloud/src/infra/utils/digest\utils_sha1.c ****         left = 0;
 2405              		.loc 1 264 9
 2406              		.loc 1 264 14 is_stmt 0
 2407 005a 8149     		li	s3,0
 2408              	.LVL322:
 2409              	.L17:
 2410 005c 228A     		mv	s4,s0
 2411 005e 330B8900 		add	s6,s2,s0
 265:C:/Users/stapi/OneDrive/Desktop/GD32VW553/V1_MQTT_OK/GD32VW55X_Wifi_BLE_SDK/GD32VW55x_RELEASE_V1.0.2/MSDK/cloud/alicloud/src/infra/utils/digest\utils_sha1.c ****     }
 266:C:/Users/stapi/OneDrive/Desktop/GD32VW553/V1_MQTT_OK/GD32VW55X_Wifi_BLE_SDK/GD32VW55x_RELEASE_V1.0.2/MSDK/cloud/alicloud/src/infra/utils/digest\utils_sha1.c **** 
 267:C:/Users/stapi/OneDrive/Desktop/GD32VW553/V1_MQTT_OK/GD32VW55X_Wifi_BLE_SDK/GD32VW55x_RELEASE_V1.0.2/MSDK/cloud/alicloud/src/infra/utils/digest\utils_sha1.c ****     while (ilen >= 64) {
 2412              		.loc 1 267 11
 2413 0062 930AF003 		li	s5,63
 2414 0066 01A8     		j	.L18
 2415              	.LVL323:
 2416              	.L19:
 268:C:/Users/stapi/OneDrive/Desktop/GD32VW553/V1_MQTT_OK/GD32VW55X_Wifi_BLE_SDK/GD32VW55x_RELEASE_V1.0.2/MSDK/cloud/alicloud/src/infra/utils/digest\utils_sha1.c ****         utils_sha1_process(ctx, input);
 2417              		.loc 1 268 9 is_stmt 1
 2418 0068 2685     		mv	a0,s1
 2419 006a 97000000 		call	utils_sha1_process
 2419      E7800000 
 2420              	.LVL324:
 269:C:/Users/stapi/OneDrive/Desktop/GD32VW553/V1_MQTT_OK/GD32VW55X_Wifi_BLE_SDK/GD32VW55x_RELEASE_V1.0.2/MSDK/cloud/alicloud/src/infra/utils/digest\utils_sha1.c ****         input += 64;
 2421              		.loc 1 269 9
 270:C:/Users/stapi/OneDrive/Desktop/GD32VW553/V1_MQTT_OK/GD32VW55X_Wifi_BLE_SDK/GD32VW55x_RELEASE_V1.0.2/MSDK/cloud/alicloud/src/infra/utils/digest\utils_sha1.c ****         ilen  -= 64;
 2422              		.loc 1 270 9
 2423              		.loc 1 270 15 is_stmt 0
 2424 0072 130A0AFC 		addi	s4,s4,-64
 2425              	.LVL325:
 2426              	.L18:
 2427 0076 B3054B41 		sub	a1,s6,s4
 2428              	.LVL326:
 267:C:/Users/stapi/OneDrive/Desktop/GD32VW553/V1_MQTT_OK/GD32VW55X_Wifi_BLE_SDK/GD32VW55x_RELEASE_V1.0.2/MSDK/cloud/alicloud/src/infra/utils/digest\utils_sha1.c ****         utils_sha1_process(ctx, input);
 2429              		.loc 1 267 11 is_stmt 1
 2430 007a E3E74AFF 		bgtu	s4,s5,.L19
 2431 007e 13576400 		srli	a4,s0,6
 2432 0082 937504FC 		andi	a1,s0,-64
 2433              	.LVL327:
 2434 0086 930700FC 		li	a5,-64
 2435 008a 2286     		mv	a2,s0
 2436 008c CA95     		add	a1,s2,a1
 2437 008e 7F16F7C4 		maddr32	a2, a4, a5
 271:C:/Users/stapi/OneDrive/Desktop/GD32VW553/V1_MQTT_OK/GD32VW55X_Wifi_BLE_SDK/GD32VW55x_RELEASE_V1.0.2/MSDK/cloud/alicloud/src/infra/utils/digest\utils_sha1.c ****     }
 272:C:/Users/stapi/OneDrive/Desktop/GD32VW553/V1_MQTT_OK/GD32VW55X_Wifi_BLE_SDK/GD32VW55x_RELEASE_V1.0.2/MSDK/cloud/alicloud/src/infra/utils/digest\utils_sha1.c **** 
 273:C:/Users/stapi/OneDrive/Desktop/GD32VW553/V1_MQTT_OK/GD32VW55X_Wifi_BLE_SDK/GD32VW55x_RELEASE_V1.0.2/MSDK/cloud/alicloud/src/infra/utils/digest\utils_sha1.c ****     if (ilen > 0) {
 2438              		.loc 1 273 5
 2439              		.loc 1 273 8 is_stmt 0
 2440 0092 01CA     		beq	a2,zero,.L15
 274:C:/Users/stapi/OneDrive/Desktop/GD32VW553/V1_MQTT_OK/GD32VW55X_Wifi_BLE_SDK/GD32VW55x_RELEASE_V1.0.2/MSDK/cloud/alicloud/src/infra/utils/digest\utils_sha1.c ****         memcpy((void *)(ctx->buffer + left), input, ilen);
 2441              		.loc 1 274 9 is_stmt 1
 2442              		.loc 1 274 25 is_stmt 0
 2443 0094 1385C401 		addi	a0,s1,28
 2444              		.loc 1 274 9
 2445 0098 4E95     		add	a0,a0,s3
 2446 009a 97000000 		call	memcpy
 2446      E7800000 
 2447              	.LVL328:
 2448              	.L15:
 275:C:/Users/stapi/OneDrive/Desktop/GD32VW553/V1_MQTT_OK/GD32VW55X_Wifi_BLE_SDK/GD32VW55x_RELEASE_V1.0.2/MSDK/cloud/alicloud/src/infra/utils/digest\utils_sha1.c ****     }
 276:C:/Users/stapi/OneDrive/Desktop/GD32VW553/V1_MQTT_OK/GD32VW55X_Wifi_BLE_SDK/GD32VW55x_RELEASE_V1.0.2/MSDK/cloud/alicloud/src/infra/utils/digest\utils_sha1.c **** }
 2449              		.loc 1 276 1
 2450 00a2 17030000 		tail	__riscv_restore_7
 2450      67000300 
 2451              		.cfi_restore 22
 2452              		.cfi_restore 21
 2453              		.cfi_restore 20
 2454              		.cfi_restore 19
 2455              		.cfi_restore 18
 2456              		.cfi_restore 9
 2457              		.cfi_restore 8
 2458              		.cfi_restore 1
 2459              		.cfi_def_cfa_offset 0
 2460              		.cfi_endproc
 2461              	.LFE13:
 2463              		.section	.text.utils_sha1_update,"ax",@progbits
 2464              		.align	1
 2465              		.globl	utils_sha1_update
 2467              	utils_sha1_update:
 2468              	.LFB10:
 241:C:/Users/stapi/OneDrive/Desktop/GD32VW553/V1_MQTT_OK/GD32VW55X_Wifi_BLE_SDK/GD32VW55x_RELEASE_V1.0.2/MSDK/cloud/alicloud/src/infra/utils/digest\utils_sha1.c ****     size_t fill;
 2469              		.loc 1 241 1 is_stmt 1
 2470              		.cfi_startproc
 2471              	.LVL329:
 242:C:/Users/stapi/OneDrive/Desktop/GD32VW553/V1_MQTT_OK/GD32VW55X_Wifi_BLE_SDK/GD32VW55x_RELEASE_V1.0.2/MSDK/cloud/alicloud/src/infra/utils/digest\utils_sha1.c ****     uint32_t left;
 2472              		.loc 1 242 5
 243:C:/Users/stapi/OneDrive/Desktop/GD32VW553/V1_MQTT_OK/GD32VW55X_Wifi_BLE_SDK/GD32VW55x_RELEASE_V1.0.2/MSDK/cloud/alicloud/src/infra/utils/digest\utils_sha1.c **** 
 2473              		.loc 1 243 5
 245:C:/Users/stapi/OneDrive/Desktop/GD32VW553/V1_MQTT_OK/GD32VW55X_Wifi_BLE_SDK/GD32VW55x_RELEASE_V1.0.2/MSDK/cloud/alicloud/src/infra/utils/digest\utils_sha1.c ****         return;
 2474              		.loc 1 245 5
 245:C:/Users/stapi/OneDrive/Desktop/GD32VW553/V1_MQTT_OK/GD32VW55X_Wifi_BLE_SDK/GD32VW55x_RELEASE_V1.0.2/MSDK/cloud/alicloud/src/infra/utils/digest\utils_sha1.c ****         return;
 2475              		.loc 1 245 8 is_stmt 0
 2476 0000 09C6     		beq	a2,zero,.L34
 2477 0002 17030000 		tail	utils_sha1_update.part.0
 2477      67000300 
 2478              	.LVL330:
 2479              	.L34:
 2480 000a 8280     		ret
 2481              		.cfi_endproc
 2482              	.LFE10:
 2484              		.section	.text.utils_sha1_finish,"ax",@progbits
 2485              		.align	1
 2486              		.globl	utils_sha1_finish
 2488              	utils_sha1_finish:
 2489              	.LFB11:
 277:C:/Users/stapi/OneDrive/Desktop/GD32VW553/V1_MQTT_OK/GD32VW55X_Wifi_BLE_SDK/GD32VW55x_RELEASE_V1.0.2/MSDK/cloud/alicloud/src/infra/utils/digest\utils_sha1.c **** 
 278:C:/Users/stapi/OneDrive/Desktop/GD32VW553/V1_MQTT_OK/GD32VW55X_Wifi_BLE_SDK/GD32VW55x_RELEASE_V1.0.2/MSDK/cloud/alicloud/src/infra/utils/digest\utils_sha1.c **** static const unsigned char iot_sha1_padding[64] = {
 279:C:/Users/stapi/OneDrive/Desktop/GD32VW553/V1_MQTT_OK/GD32VW55X_Wifi_BLE_SDK/GD32VW55x_RELEASE_V1.0.2/MSDK/cloud/alicloud/src/infra/utils/digest\utils_sha1.c ****     0x80, 0, 0, 0, 0, 0, 0, 0, 0, 0, 0, 0, 0, 0, 0, 0,
 280:C:/Users/stapi/OneDrive/Desktop/GD32VW553/V1_MQTT_OK/GD32VW55X_Wifi_BLE_SDK/GD32VW55x_RELEASE_V1.0.2/MSDK/cloud/alicloud/src/infra/utils/digest\utils_sha1.c ****     0, 0, 0, 0, 0, 0, 0, 0, 0, 0, 0, 0, 0, 0, 0, 0,
 281:C:/Users/stapi/OneDrive/Desktop/GD32VW553/V1_MQTT_OK/GD32VW55X_Wifi_BLE_SDK/GD32VW55x_RELEASE_V1.0.2/MSDK/cloud/alicloud/src/infra/utils/digest\utils_sha1.c ****     0, 0, 0, 0, 0, 0, 0, 0, 0, 0, 0, 0, 0, 0, 0, 0,
 282:C:/Users/stapi/OneDrive/Desktop/GD32VW553/V1_MQTT_OK/GD32VW55X_Wifi_BLE_SDK/GD32VW55x_RELEASE_V1.0.2/MSDK/cloud/alicloud/src/infra/utils/digest\utils_sha1.c ****     0, 0, 0, 0, 0, 0, 0, 0, 0, 0, 0, 0, 0, 0, 0, 0
 283:C:/Users/stapi/OneDrive/Desktop/GD32VW553/V1_MQTT_OK/GD32VW55X_Wifi_BLE_SDK/GD32VW55x_RELEASE_V1.0.2/MSDK/cloud/alicloud/src/infra/utils/digest\utils_sha1.c **** };
 284:C:/Users/stapi/OneDrive/Desktop/GD32VW553/V1_MQTT_OK/GD32VW55X_Wifi_BLE_SDK/GD32VW55x_RELEASE_V1.0.2/MSDK/cloud/alicloud/src/infra/utils/digest\utils_sha1.c **** 
 285:C:/Users/stapi/OneDrive/Desktop/GD32VW553/V1_MQTT_OK/GD32VW55X_Wifi_BLE_SDK/GD32VW55x_RELEASE_V1.0.2/MSDK/cloud/alicloud/src/infra/utils/digest\utils_sha1.c **** /*
 286:C:/Users/stapi/OneDrive/Desktop/GD32VW553/V1_MQTT_OK/GD32VW55X_Wifi_BLE_SDK/GD32VW55x_RELEASE_V1.0.2/MSDK/cloud/alicloud/src/infra/utils/digest\utils_sha1.c ****  * SHA-1 final digest
 287:C:/Users/stapi/OneDrive/Desktop/GD32VW553/V1_MQTT_OK/GD32VW55X_Wifi_BLE_SDK/GD32VW55x_RELEASE_V1.0.2/MSDK/cloud/alicloud/src/infra/utils/digest\utils_sha1.c ****  */
 288:C:/Users/stapi/OneDrive/Desktop/GD32VW553/V1_MQTT_OK/GD32VW55X_Wifi_BLE_SDK/GD32VW55x_RELEASE_V1.0.2/MSDK/cloud/alicloud/src/infra/utils/digest\utils_sha1.c **** void utils_sha1_finish(iot_sha1_context *ctx, unsigned char output[20])
 289:C:/Users/stapi/OneDrive/Desktop/GD32VW553/V1_MQTT_OK/GD32VW55X_Wifi_BLE_SDK/GD32VW55x_RELEASE_V1.0.2/MSDK/cloud/alicloud/src/infra/utils/digest\utils_sha1.c **** {
 2490              		.loc 1 289 1 is_stmt 1
 2491              		.cfi_startproc
 2492              	.LVL331:
 2493              		.loc 1 289 1 is_stmt 0
 2494 0000 17030000 		call	t0,__riscv_save_2
 2494      E7020300 
 2495              		.cfi_offset 9, -12
 2496              		.cfi_offset 8, -8
 2497              		.cfi_offset 1, -4
 2498              		.cfi_def_cfa_offset 16
 290:C:/Users/stapi/OneDrive/Desktop/GD32VW553/V1_MQTT_OK/GD32VW55X_Wifi_BLE_SDK/GD32VW55x_RELEASE_V1.0.2/MSDK/cloud/alicloud/src/infra/utils/digest\utils_sha1.c ****     uint32_t last, padn;
 2499              		.loc 1 290 5 is_stmt 1
 291:C:/Users/stapi/OneDrive/Desktop/GD32VW553/V1_MQTT_OK/GD32VW55X_Wifi_BLE_SDK/GD32VW55x_RELEASE_V1.0.2/MSDK/cloud/alicloud/src/infra/utils/digest\utils_sha1.c ****     uint32_t high, low;
 2500              		.loc 1 291 5
 292:C:/Users/stapi/OneDrive/Desktop/GD32VW553/V1_MQTT_OK/GD32VW55X_Wifi_BLE_SDK/GD32VW55x_RELEASE_V1.0.2/MSDK/cloud/alicloud/src/infra/utils/digest\utils_sha1.c ****     unsigned char msglen[8];
 2501              		.loc 1 292 5
 293:C:/Users/stapi/OneDrive/Desktop/GD32VW553/V1_MQTT_OK/GD32VW55X_Wifi_BLE_SDK/GD32VW55x_RELEASE_V1.0.2/MSDK/cloud/alicloud/src/infra/utils/digest\utils_sha1.c **** 
 294:C:/Users/stapi/OneDrive/Desktop/GD32VW553/V1_MQTT_OK/GD32VW55X_Wifi_BLE_SDK/GD32VW55x_RELEASE_V1.0.2/MSDK/cloud/alicloud/src/infra/utils/digest\utils_sha1.c ****     high = (ctx->total[0] >> 29)
 2502              		.loc 1 294 5
 2503              		.loc 1 294 23 is_stmt 0
 2504 0008 1041     		lw	a2,0(a0)
 2505              	.LVL332:
 295:C:/Users/stapi/OneDrive/Desktop/GD32VW553/V1_MQTT_OK/GD32VW55X_Wifi_BLE_SDK/GD32VW55x_RELEASE_V1.0.2/MSDK/cloud/alicloud/src/infra/utils/digest\utils_sha1.c ****            | (ctx->total[1] <<  3);
 296:C:/Users/stapi/OneDrive/Desktop/GD32VW553/V1_MQTT_OK/GD32VW55X_Wifi_BLE_SDK/GD32VW55x_RELEASE_V1.0.2/MSDK/cloud/alicloud/src/infra/utils/digest\utils_sha1.c ****     low  = (ctx->total[0] <<  3);
 2506              		.loc 1 296 5 is_stmt 1
 297:C:/Users/stapi/OneDrive/Desktop/GD32VW553/V1_MQTT_OK/GD32VW55X_Wifi_BLE_SDK/GD32VW55x_RELEASE_V1.0.2/MSDK/cloud/alicloud/src/infra/utils/digest\utils_sha1.c **** 
 298:C:/Users/stapi/OneDrive/Desktop/GD32VW553/V1_MQTT_OK/GD32VW55X_Wifi_BLE_SDK/GD32VW55x_RELEASE_V1.0.2/MSDK/cloud/alicloud/src/infra/utils/digest\utils_sha1.c ****     IOT_SHA1_PUT_UINT32_BE(high, msglen, 0);
 2507              		.loc 1 298 5
 2508              		.loc 1 298 5
 2509              		.loc 1 298 5
 2510              		.loc 1 298 5
 295:C:/Users/stapi/OneDrive/Desktop/GD32VW553/V1_MQTT_OK/GD32VW55X_Wifi_BLE_SDK/GD32VW55x_RELEASE_V1.0.2/MSDK/cloud/alicloud/src/infra/utils/digest\utils_sha1.c ****            | (ctx->total[1] <<  3);
 2511              		.loc 1 295 29 is_stmt 0
 2512 000a 5C41     		lw	a5,4(a0)
 289:C:/Users/stapi/OneDrive/Desktop/GD32VW553/V1_MQTT_OK/GD32VW55X_Wifi_BLE_SDK/GD32VW55x_RELEASE_V1.0.2/MSDK/cloud/alicloud/src/infra/utils/digest\utils_sha1.c ****     uint32_t last, padn;
 2513              		.loc 1 289 1
 2514 000c 4111     		addi	sp,sp,-16
 2515              		.cfi_def_cfa_offset 32
 294:C:/Users/stapi/OneDrive/Desktop/GD32VW553/V1_MQTT_OK/GD32VW55X_Wifi_BLE_SDK/GD32VW55x_RELEASE_V1.0.2/MSDK/cloud/alicloud/src/infra/utils/digest\utils_sha1.c ****            | (ctx->total[1] <<  3);
 2516              		.loc 1 294 27
 2517 000e 1357D601 		srli	a4,a2,29
 295:C:/Users/stapi/OneDrive/Desktop/GD32VW553/V1_MQTT_OK/GD32VW55X_Wifi_BLE_SDK/GD32VW55x_RELEASE_V1.0.2/MSDK/cloud/alicloud/src/infra/utils/digest\utils_sha1.c ****     low  = (ctx->total[0] <<  3);
 2518              		.loc 1 295 29
 2519 0012 8E07     		slli	a5,a5,3
 294:C:/Users/stapi/OneDrive/Desktop/GD32VW553/V1_MQTT_OK/GD32VW55X_Wifi_BLE_SDK/GD32VW55x_RELEASE_V1.0.2/MSDK/cloud/alicloud/src/infra/utils/digest\utils_sha1.c ****            | (ctx->total[1] <<  3);
 2520              		.loc 1 294 10
 2521 0014 D98F     		or	a5,a5,a4
 2522              	.LVL333:
 2523 0016 93D78769 		rev8	a5,a5
 2524              	.LVL334:
 2525              		.loc 1 298 5
 2526 001a 3EC4     		sw	a5,8(sp)
 2527              		.loc 1 298 44 is_stmt 1
 299:C:/Users/stapi/OneDrive/Desktop/GD32VW553/V1_MQTT_OK/GD32VW55X_Wifi_BLE_SDK/GD32VW55x_RELEASE_V1.0.2/MSDK/cloud/alicloud/src/infra/utils/digest\utils_sha1.c ****     IOT_SHA1_PUT_UINT32_BE(low,  msglen, 4);
 2528              		.loc 1 299 5
 2529              		.loc 1 299 5
 2530              		.loc 1 299 5
 2531              		.loc 1 299 5
 296:C:/Users/stapi/OneDrive/Desktop/GD32VW553/V1_MQTT_OK/GD32VW55X_Wifi_BLE_SDK/GD32VW55x_RELEASE_V1.0.2/MSDK/cloud/alicloud/src/infra/utils/digest\utils_sha1.c **** 
 2532              		.loc 1 296 10 is_stmt 0
 2533 001c 93173600 		slli	a5,a2,3
 2534              	.LVL335:
 2535 0020 93D78769 		rev8	a5,a5
 2536              	.LVL336:
 300:C:/Users/stapi/OneDrive/Desktop/GD32VW553/V1_MQTT_OK/GD32VW55X_Wifi_BLE_SDK/GD32VW55x_RELEASE_V1.0.2/MSDK/cloud/alicloud/src/infra/utils/digest\utils_sha1.c **** 
 301:C:/Users/stapi/OneDrive/Desktop/GD32VW553/V1_MQTT_OK/GD32VW55X_Wifi_BLE_SDK/GD32VW55x_RELEASE_V1.0.2/MSDK/cloud/alicloud/src/infra/utils/digest\utils_sha1.c ****     last = ctx->total[0] & 0x3F;
 2537              		.loc 1 301 10
 2538 0024 1376F603 		andi	a2,a2,63
 2539              	.LVL337:
 299:C:/Users/stapi/OneDrive/Desktop/GD32VW553/V1_MQTT_OK/GD32VW55X_Wifi_BLE_SDK/GD32VW55x_RELEASE_V1.0.2/MSDK/cloud/alicloud/src/infra/utils/digest\utils_sha1.c **** 
 2540              		.loc 1 299 5
 2541 0028 3EC6     		sw	a5,12(sp)
 299:C:/Users/stapi/OneDrive/Desktop/GD32VW553/V1_MQTT_OK/GD32VW55X_Wifi_BLE_SDK/GD32VW55x_RELEASE_V1.0.2/MSDK/cloud/alicloud/src/infra/utils/digest\utils_sha1.c **** 
 2542              		.loc 1 299 44 is_stmt 1
 2543              		.loc 1 301 5
 2544              	.LVL338:
 302:C:/Users/stapi/OneDrive/Desktop/GD32VW553/V1_MQTT_OK/GD32VW55X_Wifi_BLE_SDK/GD32VW55x_RELEASE_V1.0.2/MSDK/cloud/alicloud/src/infra/utils/digest\utils_sha1.c ****     padn = (last < 56) ? (56 - last) : (120 - last);
 2545              		.loc 1 302 5
 2546              		.loc 1 302 38 is_stmt 0
 2547 002a 93077003 		li	a5,55
 289:C:/Users/stapi/OneDrive/Desktop/GD32VW553/V1_MQTT_OK/GD32VW55X_Wifi_BLE_SDK/GD32VW55x_RELEASE_V1.0.2/MSDK/cloud/alicloud/src/infra/utils/digest\utils_sha1.c ****     uint32_t last, padn;
 2548              		.loc 1 289 1
 2549 002e 2A84     		mv	s0,a0
 2550 0030 AE84     		mv	s1,a1
 2551              		.loc 1 302 38
 2552 0032 63E6C70C 		bgtu	a2,a5,.L38
 2553              		.loc 1 302 38 discriminator 1
 2554 0036 93078003 		li	a5,56
 2555              	.L41:
 303:C:/Users/stapi/OneDrive/Desktop/GD32VW553/V1_MQTT_OK/GD32VW55X_Wifi_BLE_SDK/GD32VW55x_RELEASE_V1.0.2/MSDK/cloud/alicloud/src/infra/utils/digest\utils_sha1.c **** 
 304:C:/Users/stapi/OneDrive/Desktop/GD32VW553/V1_MQTT_OK/GD32VW55X_Wifi_BLE_SDK/GD32VW55x_RELEASE_V1.0.2/MSDK/cloud/alicloud/src/infra/utils/digest\utils_sha1.c ****     utils_sha1_update(ctx, iot_sha1_padding, padn);
 2556              		.loc 1 304 5 discriminator 2
 2557 003a B7050000 		lui	a1,%hi(.LANCHOR0)
 2558              	.LVL339:
 302:C:/Users/stapi/OneDrive/Desktop/GD32VW553/V1_MQTT_OK/GD32VW55X_Wifi_BLE_SDK/GD32VW55x_RELEASE_V1.0.2/MSDK/cloud/alicloud/src/infra/utils/digest\utils_sha1.c **** 
 2559              		.loc 1 302 38 discriminator 2
 2560 003e 3386C740 		sub	a2,a5,a2
 2561              	.LVL340:
 2562              		.loc 1 304 5 is_stmt 1 discriminator 2
 2563 0042 2285     		mv	a0,s0
 2564              	.LVL341:
 2565 0044 93850500 		addi	a1,a1,%lo(.LANCHOR0)
 2566 0048 97000000 		call	utils_sha1_update
 2566      E7800000 
 2567              	.LVL342:
 305:C:/Users/stapi/OneDrive/Desktop/GD32VW553/V1_MQTT_OK/GD32VW55X_Wifi_BLE_SDK/GD32VW55x_RELEASE_V1.0.2/MSDK/cloud/alicloud/src/infra/utils/digest\utils_sha1.c ****     utils_sha1_update(ctx, msglen, 8);
 2568              		.loc 1 305 5 discriminator 2
 2569              	.LBB8:
 2570              	.LBB9:
 242:C:/Users/stapi/OneDrive/Desktop/GD32VW553/V1_MQTT_OK/GD32VW55X_Wifi_BLE_SDK/GD32VW55x_RELEASE_V1.0.2/MSDK/cloud/alicloud/src/infra/utils/digest\utils_sha1.c ****     uint32_t left;
 2571              		.loc 1 242 5 discriminator 2
 243:C:/Users/stapi/OneDrive/Desktop/GD32VW553/V1_MQTT_OK/GD32VW55X_Wifi_BLE_SDK/GD32VW55x_RELEASE_V1.0.2/MSDK/cloud/alicloud/src/infra/utils/digest\utils_sha1.c **** 
 2572              		.loc 1 243 5 discriminator 2
 245:C:/Users/stapi/OneDrive/Desktop/GD32VW553/V1_MQTT_OK/GD32VW55X_Wifi_BLE_SDK/GD32VW55x_RELEASE_V1.0.2/MSDK/cloud/alicloud/src/infra/utils/digest\utils_sha1.c ****         return;
 2573              		.loc 1 245 5 discriminator 2
 2574 0050 2C00     		addi	a1,sp,8
 2575              	.LVL343:
 2576 0052 2146     		li	a2,8
 2577 0054 2285     		mv	a0,s0
 2578 0056 97000000 		call	utils_sha1_update.part.0
 2578      E7800000 
 2579              	.LVL344:
 2580              	.LBE9:
 2581              	.LBE8:
 306:C:/Users/stapi/OneDrive/Desktop/GD32VW553/V1_MQTT_OK/GD32VW55X_Wifi_BLE_SDK/GD32VW55x_RELEASE_V1.0.2/MSDK/cloud/alicloud/src/infra/utils/digest\utils_sha1.c **** 
 307:C:/Users/stapi/OneDrive/Desktop/GD32VW553/V1_MQTT_OK/GD32VW55X_Wifi_BLE_SDK/GD32VW55x_RELEASE_V1.0.2/MSDK/cloud/alicloud/src/infra/utils/digest\utils_sha1.c ****     IOT_SHA1_PUT_UINT32_BE(ctx->state[0], output,  0);
 2582              		.loc 1 307 5 discriminator 2
 2583 005e 8347B400 		lbu	a5,11(s0)
 2584 0062 2380F400 		sb	a5,0(s1)
 2585              		.loc 1 307 5 discriminator 2
 2586 0066 8357A400 		lhu	a5,10(s0)
 2587 006a A380F400 		sb	a5,1(s1)
 2588              		.loc 1 307 5 discriminator 2
 2589 006e 1C44     		lw	a5,8(s0)
 2590 0070 A183     		srli	a5,a5,8
 2591 0072 2381F400 		sb	a5,2(s1)
 2592              		.loc 1 307 5 discriminator 2
 2593 0076 1C44     		lw	a5,8(s0)
 2594 0078 A381F400 		sb	a5,3(s1)
 2595              		.loc 1 307 54 discriminator 2
 308:C:/Users/stapi/OneDrive/Desktop/GD32VW553/V1_MQTT_OK/GD32VW55X_Wifi_BLE_SDK/GD32VW55x_RELEASE_V1.0.2/MSDK/cloud/alicloud/src/infra/utils/digest\utils_sha1.c ****     IOT_SHA1_PUT_UINT32_BE(ctx->state[1], output,  4);
 2596              		.loc 1 308 5 discriminator 2
 2597 007c 8347F400 		lbu	a5,15(s0)
 2598 0080 2382F400 		sb	a5,4(s1)
 2599              		.loc 1 308 5 discriminator 2
 2600 0084 8357E400 		lhu	a5,14(s0)
 2601 0088 A382F400 		sb	a5,5(s1)
 2602              		.loc 1 308 5 discriminator 2
 2603 008c 5C44     		lw	a5,12(s0)
 2604 008e A183     		srli	a5,a5,8
 2605 0090 2383F400 		sb	a5,6(s1)
 2606              		.loc 1 308 5 discriminator 2
 2607 0094 5C44     		lw	a5,12(s0)
 2608 0096 A383F400 		sb	a5,7(s1)
 2609              		.loc 1 308 54 discriminator 2
 309:C:/Users/stapi/OneDrive/Desktop/GD32VW553/V1_MQTT_OK/GD32VW55X_Wifi_BLE_SDK/GD32VW55x_RELEASE_V1.0.2/MSDK/cloud/alicloud/src/infra/utils/digest\utils_sha1.c ****     IOT_SHA1_PUT_UINT32_BE(ctx->state[2], output,  8);
 2610              		.loc 1 309 5 discriminator 2
 2611 009a 83473401 		lbu	a5,19(s0)
 2612 009e 2384F400 		sb	a5,8(s1)
 2613              		.loc 1 309 5 discriminator 2
 2614 00a2 83572401 		lhu	a5,18(s0)
 2615 00a6 A384F400 		sb	a5,9(s1)
 2616              		.loc 1 309 5 discriminator 2
 2617 00aa 1C48     		lw	a5,16(s0)
 2618 00ac A183     		srli	a5,a5,8
 2619 00ae 2385F400 		sb	a5,10(s1)
 2620              		.loc 1 309 5 discriminator 2
 2621 00b2 1C48     		lw	a5,16(s0)
 2622 00b4 A385F400 		sb	a5,11(s1)
 2623              		.loc 1 309 54 discriminator 2
 310:C:/Users/stapi/OneDrive/Desktop/GD32VW553/V1_MQTT_OK/GD32VW55X_Wifi_BLE_SDK/GD32VW55x_RELEASE_V1.0.2/MSDK/cloud/alicloud/src/infra/utils/digest\utils_sha1.c ****     IOT_SHA1_PUT_UINT32_BE(ctx->state[3], output, 12);
 2624              		.loc 1 310 5 discriminator 2
 2625 00b8 83477401 		lbu	a5,23(s0)
 2626 00bc 2386F400 		sb	a5,12(s1)
 2627              		.loc 1 310 5 discriminator 2
 2628 00c0 83576401 		lhu	a5,22(s0)
 2629 00c4 A386F400 		sb	a5,13(s1)
 2630              		.loc 1 310 5 discriminator 2
 2631 00c8 5C48     		lw	a5,20(s0)
 2632 00ca A183     		srli	a5,a5,8
 2633 00cc 2387F400 		sb	a5,14(s1)
 2634              		.loc 1 310 5 discriminator 2
 2635 00d0 5C48     		lw	a5,20(s0)
 2636 00d2 A387F400 		sb	a5,15(s1)
 2637              		.loc 1 310 54 discriminator 2
 311:C:/Users/stapi/OneDrive/Desktop/GD32VW553/V1_MQTT_OK/GD32VW55X_Wifi_BLE_SDK/GD32VW55x_RELEASE_V1.0.2/MSDK/cloud/alicloud/src/infra/utils/digest\utils_sha1.c ****     IOT_SHA1_PUT_UINT32_BE(ctx->state[4], output, 16);
 2638              		.loc 1 311 5 discriminator 2
 2639 00d6 8347B401 		lbu	a5,27(s0)
 2640 00da 2388F400 		sb	a5,16(s1)
 2641              		.loc 1 311 5 discriminator 2
 2642 00de 8357A401 		lhu	a5,26(s0)
 2643 00e2 A388F400 		sb	a5,17(s1)
 2644              		.loc 1 311 5 discriminator 2
 2645 00e6 1C4C     		lw	a5,24(s0)
 2646 00e8 A183     		srli	a5,a5,8
 2647 00ea 2389F400 		sb	a5,18(s1)
 2648              		.loc 1 311 5 discriminator 2
 2649 00ee 1C4C     		lw	a5,24(s0)
 2650 00f0 A389F400 		sb	a5,19(s1)
 2651              		.loc 1 311 54 discriminator 2
 312:C:/Users/stapi/OneDrive/Desktop/GD32VW553/V1_MQTT_OK/GD32VW55X_Wifi_BLE_SDK/GD32VW55x_RELEASE_V1.0.2/MSDK/cloud/alicloud/src/infra/utils/digest\utils_sha1.c **** }
 2652              		.loc 1 312 1 is_stmt 0 discriminator 2
 2653 00f4 4101     		addi	sp,sp,16
 2654              		.cfi_remember_state
 2655              		.cfi_def_cfa_offset 0
 2656 00f6 17030000 		tail	__riscv_restore_2
 2656      67000300 
 2657              		.cfi_restore 9
 2658              		.cfi_restore 8
 2659              		.cfi_restore 1
 2660              		.cfi_def_cfa_offset -16
 2661              	.LVL345:
 2662              	.L38:
 2663              		.cfi_restore_state
 302:C:/Users/stapi/OneDrive/Desktop/GD32VW553/V1_MQTT_OK/GD32VW55X_Wifi_BLE_SDK/GD32VW55x_RELEASE_V1.0.2/MSDK/cloud/alicloud/src/infra/utils/digest\utils_sha1.c **** 
 2664              		.loc 1 302 38 discriminator 2
 2665 00fe 93078007 		li	a5,120
 2666 0102 25BF     		j	.L41
 2667              		.cfi_endproc
 2668              	.LFE11:
 2670              		.section	.text.utils_sha1,"ax",@progbits
 2671              		.align	1
 2672              		.globl	utils_sha1
 2674              	utils_sha1:
 2675              	.LFB12:
 313:C:/Users/stapi/OneDrive/Desktop/GD32VW553/V1_MQTT_OK/GD32VW55X_Wifi_BLE_SDK/GD32VW55x_RELEASE_V1.0.2/MSDK/cloud/alicloud/src/infra/utils/digest\utils_sha1.c **** 
 314:C:/Users/stapi/OneDrive/Desktop/GD32VW553/V1_MQTT_OK/GD32VW55X_Wifi_BLE_SDK/GD32VW55x_RELEASE_V1.0.2/MSDK/cloud/alicloud/src/infra/utils/digest\utils_sha1.c **** 
 315:C:/Users/stapi/OneDrive/Desktop/GD32VW553/V1_MQTT_OK/GD32VW55X_Wifi_BLE_SDK/GD32VW55x_RELEASE_V1.0.2/MSDK/cloud/alicloud/src/infra/utils/digest\utils_sha1.c **** /*
 316:C:/Users/stapi/OneDrive/Desktop/GD32VW553/V1_MQTT_OK/GD32VW55X_Wifi_BLE_SDK/GD32VW55x_RELEASE_V1.0.2/MSDK/cloud/alicloud/src/infra/utils/digest\utils_sha1.c ****  * output = SHA-1( input buffer )
 317:C:/Users/stapi/OneDrive/Desktop/GD32VW553/V1_MQTT_OK/GD32VW55X_Wifi_BLE_SDK/GD32VW55x_RELEASE_V1.0.2/MSDK/cloud/alicloud/src/infra/utils/digest\utils_sha1.c ****  */
 318:C:/Users/stapi/OneDrive/Desktop/GD32VW553/V1_MQTT_OK/GD32VW55X_Wifi_BLE_SDK/GD32VW55x_RELEASE_V1.0.2/MSDK/cloud/alicloud/src/infra/utils/digest\utils_sha1.c **** void utils_sha1(const unsigned char *input, size_t ilen, unsigned char output[20])
 319:C:/Users/stapi/OneDrive/Desktop/GD32VW553/V1_MQTT_OK/GD32VW55X_Wifi_BLE_SDK/GD32VW55x_RELEASE_V1.0.2/MSDK/cloud/alicloud/src/infra/utils/digest\utils_sha1.c **** {
 2676              		.loc 1 319 1 is_stmt 1
 2677              		.cfi_startproc
 2678              	.LVL346:
 2679 0000 17030000 		call	t0,__riscv_save_3
 2679      E7020300 
 2680              		.cfi_offset 18, -16
 2681              		.cfi_offset 9, -12
 2682              		.cfi_offset 8, -8
 2683              		.cfi_offset 1, -4
 2684              		.cfi_def_cfa_offset 16
 320:C:/Users/stapi/OneDrive/Desktop/GD32VW553/V1_MQTT_OK/GD32VW55X_Wifi_BLE_SDK/GD32VW55x_RELEASE_V1.0.2/MSDK/cloud/alicloud/src/infra/utils/digest\utils_sha1.c ****     iot_sha1_context ctx;
 2685              		.loc 1 320 5
 321:C:/Users/stapi/OneDrive/Desktop/GD32VW553/V1_MQTT_OK/GD32VW55X_Wifi_BLE_SDK/GD32VW55x_RELEASE_V1.0.2/MSDK/cloud/alicloud/src/infra/utils/digest\utils_sha1.c **** 
 322:C:/Users/stapi/OneDrive/Desktop/GD32VW553/V1_MQTT_OK/GD32VW55X_Wifi_BLE_SDK/GD32VW55x_RELEASE_V1.0.2/MSDK/cloud/alicloud/src/infra/utils/digest\utils_sha1.c ****     utils_sha1_init(&ctx);
 2686              		.loc 1 322 5
 319:C:/Users/stapi/OneDrive/Desktop/GD32VW553/V1_MQTT_OK/GD32VW55X_Wifi_BLE_SDK/GD32VW55x_RELEASE_V1.0.2/MSDK/cloud/alicloud/src/infra/utils/digest\utils_sha1.c ****     iot_sha1_context ctx;
 2687              		.loc 1 319 1 is_stmt 0
 2688 0008 1D71     		addi	sp,sp,-96
 2689              		.cfi_def_cfa_offset 112
 319:C:/Users/stapi/OneDrive/Desktop/GD32VW553/V1_MQTT_OK/GD32VW55X_Wifi_BLE_SDK/GD32VW55x_RELEASE_V1.0.2/MSDK/cloud/alicloud/src/infra/utils/digest\utils_sha1.c ****     iot_sha1_context ctx;
 2690              		.loc 1 319 1
 2691 000a AA84     		mv	s1,a0
 2692              		.loc 1 322 5
 2693 000c 4800     		addi	a0,sp,4
 2694              	.LVL347:
 319:C:/Users/stapi/OneDrive/Desktop/GD32VW553/V1_MQTT_OK/GD32VW55X_Wifi_BLE_SDK/GD32VW55x_RELEASE_V1.0.2/MSDK/cloud/alicloud/src/infra/utils/digest\utils_sha1.c ****     iot_sha1_context ctx;
 2695              		.loc 1 319 1
 2696 000e 3284     		mv	s0,a2
 2697 0010 2E89     		mv	s2,a1
 2698              		.loc 1 322 5
 2699 0012 97000000 		call	utils_sha1_init
 2699      E7800000 
 2700              	.LVL348:
 323:C:/Users/stapi/OneDrive/Desktop/GD32VW553/V1_MQTT_OK/GD32VW55X_Wifi_BLE_SDK/GD32VW55x_RELEASE_V1.0.2/MSDK/cloud/alicloud/src/infra/utils/digest\utils_sha1.c ****     utils_sha1_starts(&ctx);
 2701              		.loc 1 323 5 is_stmt 1
 2702 001a 4800     		addi	a0,sp,4
 2703 001c 97000000 		call	utils_sha1_starts
 2703      E7800000 
 2704              	.LVL349:
 324:C:/Users/stapi/OneDrive/Desktop/GD32VW553/V1_MQTT_OK/GD32VW55X_Wifi_BLE_SDK/GD32VW55x_RELEASE_V1.0.2/MSDK/cloud/alicloud/src/infra/utils/digest\utils_sha1.c ****     utils_sha1_update(&ctx, input, ilen);
 2705              		.loc 1 324 5
 2706 0024 4A86     		mv	a2,s2
 2707 0026 A685     		mv	a1,s1
 2708 0028 4800     		addi	a0,sp,4
 2709 002a 97000000 		call	utils_sha1_update
 2709      E7800000 
 2710              	.LVL350:
 325:C:/Users/stapi/OneDrive/Desktop/GD32VW553/V1_MQTT_OK/GD32VW55X_Wifi_BLE_SDK/GD32VW55x_RELEASE_V1.0.2/MSDK/cloud/alicloud/src/infra/utils/digest\utils_sha1.c ****     utils_sha1_finish(&ctx, output);
 2711              		.loc 1 325 5
 2712 0032 A285     		mv	a1,s0
 2713 0034 4800     		addi	a0,sp,4
 2714 0036 97000000 		call	utils_sha1_finish
 2714      E7800000 
 2715              	.LVL351:
 326:C:/Users/stapi/OneDrive/Desktop/GD32VW553/V1_MQTT_OK/GD32VW55X_Wifi_BLE_SDK/GD32VW55x_RELEASE_V1.0.2/MSDK/cloud/alicloud/src/infra/utils/digest\utils_sha1.c ****     utils_sha1_free(&ctx);
 2716              		.loc 1 326 5
 2717 003e 4800     		addi	a0,sp,4
 2718 0040 97000000 		call	utils_sha1_free
 2718      E7800000 
 2719              	.LVL352:
 327:C:/Users/stapi/OneDrive/Desktop/GD32VW553/V1_MQTT_OK/GD32VW55X_Wifi_BLE_SDK/GD32VW55x_RELEASE_V1.0.2/MSDK/cloud/alicloud/src/infra/utils/digest\utils_sha1.c **** }
 2720              		.loc 1 327 1 is_stmt 0
 2721 0048 2561     		addi	sp,sp,96
 2722              		.cfi_def_cfa_offset 0
 2723 004a 17030000 		tail	__riscv_restore_3
 2723      67000300 
 2724              		.cfi_restore 18
 2725              		.cfi_restore 9
 2726              		.cfi_restore 8
 2727              		.cfi_restore 1
 2728              		.cfi_def_cfa_offset -16
 2729              		.cfi_endproc
 2730              	.LFE12:
 2732              		.section	.rodata.iot_sha1_padding,"a"
 2733              		.align	2
 2734              		.set	.LANCHOR0,. + 0
 2737              	iot_sha1_padding:
 2738 0000 8000     		.string	"\200"
 2739 0002 00       		.string	""
 2740 0003 00       		.string	""
 2741 0004 00       		.string	""
 2742 0005 00       		.string	""
 2743 0006 00       		.string	""
 2744 0007 00       		.string	""
 2745 0008 00       		.string	""
 2746 0009 00       		.string	""
 2747 000a 00       		.string	""
 2748 000b 00       		.string	""
 2749 000c 00       		.string	""
 2750 000d 00       		.string	""
 2751 000e 00       		.string	""
 2752 000f 00       		.string	""
 2753 0010 00       		.string	""
 2754 0011 00       		.string	""
 2755 0012 00       		.string	""
 2756 0013 00       		.string	""
 2757 0014 00       		.string	""
 2758 0015 00       		.string	""
 2759 0016 00       		.string	""
 2760 0017 00       		.string	""
 2761 0018 00       		.string	""
 2762 0019 00       		.string	""
 2763 001a 00       		.string	""
 2764 001b 00       		.string	""
 2765 001c 00       		.string	""
 2766 001d 00       		.string	""
 2767 001e 00       		.string	""
 2768 001f 00       		.string	""
 2769 0020 00       		.string	""
 2770 0021 00       		.string	""
 2771 0022 00       		.string	""
 2772 0023 00       		.string	""
 2773 0024 00       		.string	""
 2774 0025 00       		.string	""
 2775 0026 00       		.string	""
 2776 0027 00       		.string	""
 2777 0028 00       		.string	""
 2778 0029 00       		.string	""
 2779 002a 00       		.string	""
 2780 002b 00       		.string	""
 2781 002c 00       		.string	""
 2782 002d 00       		.string	""
 2783 002e 00       		.string	""
 2784 002f 00       		.string	""
 2785 0030 00       		.string	""
 2786 0031 00       		.string	""
 2787 0032 00       		.string	""
 2788 0033 00       		.string	""
 2789 0034 00       		.string	""
 2790 0035 00       		.string	""
 2791 0036 00       		.string	""
 2792 0037 00       		.string	""
 2793 0038 00       		.string	""
 2794 0039 00       		.string	""
 2795 003a 00       		.string	""
 2796 003b 00       		.string	""
 2797 003c 00       		.string	""
 2798 003d 00       		.string	""
 2799 003e 00       		.string	""
 2800 003f 00       		.string	""
 2801              		.text
 2802              	.Letext0:
 2803              		.file 2 "c:\\users\\stapi\\onedrive\\desktop\\gd32vw553\\embeddedbuilder_v1.4.7.26843\\tools\\nucl
 2804              		.file 3 "c:\\users\\stapi\\onedrive\\desktop\\gd32vw553\\embeddedbuilder_v1.4.7.26843\\tools\\nucl
 2805              		.file 4 "c:\\users\\stapi\\onedrive\\desktop\\gd32vw553\\embeddedbuilder_v1.4.7.26843\\tools\\nucl
 2806              		.file 5 "C:/Users/stapi/OneDrive/Desktop/GD32VW553/V1_MQTT_OK/GD32VW55X_Wifi_BLE_SDK/GD32VW55x_REL
 2807              		.file 6 "<built-in>"