   1              		.file	"utils_sha256.c"
   2              		.option nopic
   3              		.attribute arch, "rv32i2p0_m2p0_a2p0_f2p0_c2p0_b_p0p94"
   4              		.attribute unaligned_access, 0
   5              		.attribute stack_align, 16
   6              		.text
   7              	.Ltext0:
   8              		.cfi_sections	.debug_frame
   9              		.section	.text.utils_sha256_starts.part.0,"ax",@progbits
  10              		.align	1
  12              	utils_sha256_starts.part.0:
  13              	.LFB21:
  14              		.file 1 "C:/Users/stapi/OneDrive/Desktop/GD32VW553/V1_MQTT_OK/GD32VW55X_Wifi_BLE_SDK/GD32VW55x_REL
   1:C:/Users/stapi/OneDrive/Desktop/GD32VW553/V1_MQTT_OK/GD32VW55X_Wifi_BLE_SDK/GD32VW55x_RELEASE_V1.0.2/MSDK/cloud/alicloud/src/infra/utils/digest\utils_sha256.c **** /*
   2:C:/Users/stapi/OneDrive/Desktop/GD32VW553/V1_MQTT_OK/GD32VW55X_Wifi_BLE_SDK/GD32VW55x_RELEASE_V1.0.2/MSDK/cloud/alicloud/src/infra/utils/digest\utils_sha256.c ****  * Copyright (C) 2015-2018 Alibaba Group Holding Limited
   3:C:/Users/stapi/OneDrive/Desktop/GD32VW553/V1_MQTT_OK/GD32VW55X_Wifi_BLE_SDK/GD32VW55x_RELEASE_V1.0.2/MSDK/cloud/alicloud/src/infra/utils/digest\utils_sha256.c ****  */
   4:C:/Users/stapi/OneDrive/Desktop/GD32VW553/V1_MQTT_OK/GD32VW55X_Wifi_BLE_SDK/GD32VW55x_RELEASE_V1.0.2/MSDK/cloud/alicloud/src/infra/utils/digest\utils_sha256.c **** 
   5:C:/Users/stapi/OneDrive/Desktop/GD32VW553/V1_MQTT_OK/GD32VW55X_Wifi_BLE_SDK/GD32VW55x_RELEASE_V1.0.2/MSDK/cloud/alicloud/src/infra/utils/digest\utils_sha256.c **** 
   6:C:/Users/stapi/OneDrive/Desktop/GD32VW553/V1_MQTT_OK/GD32VW55X_Wifi_BLE_SDK/GD32VW55x_RELEASE_V1.0.2/MSDK/cloud/alicloud/src/infra/utils/digest\utils_sha256.c **** 
   7:C:/Users/stapi/OneDrive/Desktop/GD32VW553/V1_MQTT_OK/GD32VW55X_Wifi_BLE_SDK/GD32VW55x_RELEASE_V1.0.2/MSDK/cloud/alicloud/src/infra/utils/digest\utils_sha256.c **** 
   8:C:/Users/stapi/OneDrive/Desktop/GD32VW553/V1_MQTT_OK/GD32VW55X_Wifi_BLE_SDK/GD32VW55x_RELEASE_V1.0.2/MSDK/cloud/alicloud/src/infra/utils/digest\utils_sha256.c **** #include <stdlib.h>
   9:C:/Users/stapi/OneDrive/Desktop/GD32VW553/V1_MQTT_OK/GD32VW55X_Wifi_BLE_SDK/GD32VW55x_RELEASE_V1.0.2/MSDK/cloud/alicloud/src/infra/utils/digest\utils_sha256.c **** #include <string.h>
  10:C:/Users/stapi/OneDrive/Desktop/GD32VW553/V1_MQTT_OK/GD32VW55X_Wifi_BLE_SDK/GD32VW55x_RELEASE_V1.0.2/MSDK/cloud/alicloud/src/infra/utils/digest\utils_sha256.c **** #include "iot_import.h"
  11:C:/Users/stapi/OneDrive/Desktop/GD32VW553/V1_MQTT_OK/GD32VW55X_Wifi_BLE_SDK/GD32VW55x_RELEASE_V1.0.2/MSDK/cloud/alicloud/src/infra/utils/digest\utils_sha256.c **** #include "iotx_log.h"
  12:C:/Users/stapi/OneDrive/Desktop/GD32VW553/V1_MQTT_OK/GD32VW55X_Wifi_BLE_SDK/GD32VW55x_RELEASE_V1.0.2/MSDK/cloud/alicloud/src/infra/utils/digest\utils_sha256.c **** #include "utils_sha256.h"
  13:C:/Users/stapi/OneDrive/Desktop/GD32VW553/V1_MQTT_OK/GD32VW55X_Wifi_BLE_SDK/GD32VW55x_RELEASE_V1.0.2/MSDK/cloud/alicloud/src/infra/utils/digest\utils_sha256.c **** /* Shift-right (used in SHA-256, SHA-384, and SHA-512): */
  14:C:/Users/stapi/OneDrive/Desktop/GD32VW553/V1_MQTT_OK/GD32VW55X_Wifi_BLE_SDK/GD32VW55x_RELEASE_V1.0.2/MSDK/cloud/alicloud/src/infra/utils/digest\utils_sha256.c **** #define R(b,x)      ((x) >> (b))
  15:C:/Users/stapi/OneDrive/Desktop/GD32VW553/V1_MQTT_OK/GD32VW55X_Wifi_BLE_SDK/GD32VW55x_RELEASE_V1.0.2/MSDK/cloud/alicloud/src/infra/utils/digest\utils_sha256.c **** /* 32-bit Rotate-right (used in SHA-256): */
  16:C:/Users/stapi/OneDrive/Desktop/GD32VW553/V1_MQTT_OK/GD32VW55X_Wifi_BLE_SDK/GD32VW55x_RELEASE_V1.0.2/MSDK/cloud/alicloud/src/infra/utils/digest\utils_sha256.c **** #define _S32(b,x)   (((x) >> (b)) | ((x) << (32 - (b))))
  17:C:/Users/stapi/OneDrive/Desktop/GD32VW553/V1_MQTT_OK/GD32VW55X_Wifi_BLE_SDK/GD32VW55x_RELEASE_V1.0.2/MSDK/cloud/alicloud/src/infra/utils/digest\utils_sha256.c **** 
  18:C:/Users/stapi/OneDrive/Desktop/GD32VW553/V1_MQTT_OK/GD32VW55X_Wifi_BLE_SDK/GD32VW55x_RELEASE_V1.0.2/MSDK/cloud/alicloud/src/infra/utils/digest\utils_sha256.c **** /* Two of six logical functions used in SHA-256, SHA-384, and SHA-512: */
  19:C:/Users/stapi/OneDrive/Desktop/GD32VW553/V1_MQTT_OK/GD32VW55X_Wifi_BLE_SDK/GD32VW55x_RELEASE_V1.0.2/MSDK/cloud/alicloud/src/infra/utils/digest\utils_sha256.c **** #define Ch(x,y,z)   (((x) & (y)) ^ ((~(x)) & (z)))
  20:C:/Users/stapi/OneDrive/Desktop/GD32VW553/V1_MQTT_OK/GD32VW55X_Wifi_BLE_SDK/GD32VW55x_RELEASE_V1.0.2/MSDK/cloud/alicloud/src/infra/utils/digest\utils_sha256.c **** #define Maj(x,y,z)  (((x) & (y)) ^ ((x) & (z)) ^ ((y) & (z)))
  21:C:/Users/stapi/OneDrive/Desktop/GD32VW553/V1_MQTT_OK/GD32VW55X_Wifi_BLE_SDK/GD32VW55x_RELEASE_V1.0.2/MSDK/cloud/alicloud/src/infra/utils/digest\utils_sha256.c **** 
  22:C:/Users/stapi/OneDrive/Desktop/GD32VW553/V1_MQTT_OK/GD32VW55X_Wifi_BLE_SDK/GD32VW55x_RELEASE_V1.0.2/MSDK/cloud/alicloud/src/infra/utils/digest\utils_sha256.c **** /* Four of six logical functions used in SHA-256: */
  23:C:/Users/stapi/OneDrive/Desktop/GD32VW553/V1_MQTT_OK/GD32VW55X_Wifi_BLE_SDK/GD32VW55x_RELEASE_V1.0.2/MSDK/cloud/alicloud/src/infra/utils/digest\utils_sha256.c **** #define Sigma0_256(x)   (_S32(2,  (x)) ^ _S32(13, (x)) ^ _S32(22, (x)))
  24:C:/Users/stapi/OneDrive/Desktop/GD32VW553/V1_MQTT_OK/GD32VW55X_Wifi_BLE_SDK/GD32VW55x_RELEASE_V1.0.2/MSDK/cloud/alicloud/src/infra/utils/digest\utils_sha256.c **** #define Sigma1_256(x)   (_S32(6,  (x)) ^ _S32(11, (x)) ^ _S32(25, (x)))
  25:C:/Users/stapi/OneDrive/Desktop/GD32VW553/V1_MQTT_OK/GD32VW55X_Wifi_BLE_SDK/GD32VW55x_RELEASE_V1.0.2/MSDK/cloud/alicloud/src/infra/utils/digest\utils_sha256.c **** #define sigma0_256(x)   (_S32(7,  (x)) ^ _S32(18, (x)) ^ R(3 ,   (x)))
  26:C:/Users/stapi/OneDrive/Desktop/GD32VW553/V1_MQTT_OK/GD32VW55X_Wifi_BLE_SDK/GD32VW55x_RELEASE_V1.0.2/MSDK/cloud/alicloud/src/infra/utils/digest\utils_sha256.c **** #define sigma1_256(x)   (_S32(17, (x)) ^ _S32(19, (x)) ^ R(10,   (x)))
  27:C:/Users/stapi/OneDrive/Desktop/GD32VW553/V1_MQTT_OK/GD32VW55X_Wifi_BLE_SDK/GD32VW55x_RELEASE_V1.0.2/MSDK/cloud/alicloud/src/infra/utils/digest\utils_sha256.c **** 
  28:C:/Users/stapi/OneDrive/Desktop/GD32VW553/V1_MQTT_OK/GD32VW55X_Wifi_BLE_SDK/GD32VW55x_RELEASE_V1.0.2/MSDK/cloud/alicloud/src/infra/utils/digest\utils_sha256.c **** /* Hash constant words K for SHA-256: */
  29:C:/Users/stapi/OneDrive/Desktop/GD32VW553/V1_MQTT_OK/GD32VW55X_Wifi_BLE_SDK/GD32VW55x_RELEASE_V1.0.2/MSDK/cloud/alicloud/src/infra/utils/digest\utils_sha256.c **** const static uint32_t K256[64] = {
  30:C:/Users/stapi/OneDrive/Desktop/GD32VW553/V1_MQTT_OK/GD32VW55X_Wifi_BLE_SDK/GD32VW55x_RELEASE_V1.0.2/MSDK/cloud/alicloud/src/infra/utils/digest\utils_sha256.c ****     0x428a2f98UL, 0x71374491UL, 0xb5c0fbcfUL, 0xe9b5dba5UL,
  31:C:/Users/stapi/OneDrive/Desktop/GD32VW553/V1_MQTT_OK/GD32VW55X_Wifi_BLE_SDK/GD32VW55x_RELEASE_V1.0.2/MSDK/cloud/alicloud/src/infra/utils/digest\utils_sha256.c ****     0x3956c25bUL, 0x59f111f1UL, 0x923f82a4UL, 0xab1c5ed5UL,
  32:C:/Users/stapi/OneDrive/Desktop/GD32VW553/V1_MQTT_OK/GD32VW55X_Wifi_BLE_SDK/GD32VW55x_RELEASE_V1.0.2/MSDK/cloud/alicloud/src/infra/utils/digest\utils_sha256.c ****     0xd807aa98UL, 0x12835b01UL, 0x243185beUL, 0x550c7dc3UL,
  33:C:/Users/stapi/OneDrive/Desktop/GD32VW553/V1_MQTT_OK/GD32VW55X_Wifi_BLE_SDK/GD32VW55x_RELEASE_V1.0.2/MSDK/cloud/alicloud/src/infra/utils/digest\utils_sha256.c ****     0x72be5d74UL, 0x80deb1feUL, 0x9bdc06a7UL, 0xc19bf174UL,
  34:C:/Users/stapi/OneDrive/Desktop/GD32VW553/V1_MQTT_OK/GD32VW55X_Wifi_BLE_SDK/GD32VW55x_RELEASE_V1.0.2/MSDK/cloud/alicloud/src/infra/utils/digest\utils_sha256.c ****     0xe49b69c1UL, 0xefbe4786UL, 0x0fc19dc6UL, 0x240ca1ccUL,
  35:C:/Users/stapi/OneDrive/Desktop/GD32VW553/V1_MQTT_OK/GD32VW55X_Wifi_BLE_SDK/GD32VW55x_RELEASE_V1.0.2/MSDK/cloud/alicloud/src/infra/utils/digest\utils_sha256.c ****     0x2de92c6fUL, 0x4a7484aaUL, 0x5cb0a9dcUL, 0x76f988daUL,
  36:C:/Users/stapi/OneDrive/Desktop/GD32VW553/V1_MQTT_OK/GD32VW55X_Wifi_BLE_SDK/GD32VW55x_RELEASE_V1.0.2/MSDK/cloud/alicloud/src/infra/utils/digest\utils_sha256.c ****     0x983e5152UL, 0xa831c66dUL, 0xb00327c8UL, 0xbf597fc7UL,
  37:C:/Users/stapi/OneDrive/Desktop/GD32VW553/V1_MQTT_OK/GD32VW55X_Wifi_BLE_SDK/GD32VW55x_RELEASE_V1.0.2/MSDK/cloud/alicloud/src/infra/utils/digest\utils_sha256.c ****     0xc6e00bf3UL, 0xd5a79147UL, 0x06ca6351UL, 0x14292967UL,
  38:C:/Users/stapi/OneDrive/Desktop/GD32VW553/V1_MQTT_OK/GD32VW55X_Wifi_BLE_SDK/GD32VW55x_RELEASE_V1.0.2/MSDK/cloud/alicloud/src/infra/utils/digest\utils_sha256.c ****     0x27b70a85UL, 0x2e1b2138UL, 0x4d2c6dfcUL, 0x53380d13UL,
  39:C:/Users/stapi/OneDrive/Desktop/GD32VW553/V1_MQTT_OK/GD32VW55X_Wifi_BLE_SDK/GD32VW55x_RELEASE_V1.0.2/MSDK/cloud/alicloud/src/infra/utils/digest\utils_sha256.c ****     0x650a7354UL, 0x766a0abbUL, 0x81c2c92eUL, 0x92722c85UL,
  40:C:/Users/stapi/OneDrive/Desktop/GD32VW553/V1_MQTT_OK/GD32VW55X_Wifi_BLE_SDK/GD32VW55x_RELEASE_V1.0.2/MSDK/cloud/alicloud/src/infra/utils/digest\utils_sha256.c ****     0xa2bfe8a1UL, 0xa81a664bUL, 0xc24b8b70UL, 0xc76c51a3UL,
  41:C:/Users/stapi/OneDrive/Desktop/GD32VW553/V1_MQTT_OK/GD32VW55X_Wifi_BLE_SDK/GD32VW55x_RELEASE_V1.0.2/MSDK/cloud/alicloud/src/infra/utils/digest\utils_sha256.c ****     0xd192e819UL, 0xd6990624UL, 0xf40e3585UL, 0x106aa070UL,
  42:C:/Users/stapi/OneDrive/Desktop/GD32VW553/V1_MQTT_OK/GD32VW55X_Wifi_BLE_SDK/GD32VW55x_RELEASE_V1.0.2/MSDK/cloud/alicloud/src/infra/utils/digest\utils_sha256.c ****     0x19a4c116UL, 0x1e376c08UL, 0x2748774cUL, 0x34b0bcb5UL,
  43:C:/Users/stapi/OneDrive/Desktop/GD32VW553/V1_MQTT_OK/GD32VW55X_Wifi_BLE_SDK/GD32VW55x_RELEASE_V1.0.2/MSDK/cloud/alicloud/src/infra/utils/digest\utils_sha256.c ****     0x391c0cb3UL, 0x4ed8aa4aUL, 0x5b9cca4fUL, 0x682e6ff3UL,
  44:C:/Users/stapi/OneDrive/Desktop/GD32VW553/V1_MQTT_OK/GD32VW55X_Wifi_BLE_SDK/GD32VW55x_RELEASE_V1.0.2/MSDK/cloud/alicloud/src/infra/utils/digest\utils_sha256.c ****     0x748f82eeUL, 0x78a5636fUL, 0x84c87814UL, 0x8cc70208UL,
  45:C:/Users/stapi/OneDrive/Desktop/GD32VW553/V1_MQTT_OK/GD32VW55X_Wifi_BLE_SDK/GD32VW55x_RELEASE_V1.0.2/MSDK/cloud/alicloud/src/infra/utils/digest\utils_sha256.c ****     0x90befffaUL, 0xa4506cebUL, 0xbef9a3f7UL, 0xc67178f2UL
  46:C:/Users/stapi/OneDrive/Desktop/GD32VW553/V1_MQTT_OK/GD32VW55X_Wifi_BLE_SDK/GD32VW55x_RELEASE_V1.0.2/MSDK/cloud/alicloud/src/infra/utils/digest\utils_sha256.c **** };
  47:C:/Users/stapi/OneDrive/Desktop/GD32VW553/V1_MQTT_OK/GD32VW55X_Wifi_BLE_SDK/GD32VW55x_RELEASE_V1.0.2/MSDK/cloud/alicloud/src/infra/utils/digest\utils_sha256.c **** /* Initial hash value H for SHA-256: */
  48:C:/Users/stapi/OneDrive/Desktop/GD32VW553/V1_MQTT_OK/GD32VW55X_Wifi_BLE_SDK/GD32VW55x_RELEASE_V1.0.2/MSDK/cloud/alicloud/src/infra/utils/digest\utils_sha256.c **** const static uint32_t sha256_initial_hash_value[8] = {
  49:C:/Users/stapi/OneDrive/Desktop/GD32VW553/V1_MQTT_OK/GD32VW55X_Wifi_BLE_SDK/GD32VW55x_RELEASE_V1.0.2/MSDK/cloud/alicloud/src/infra/utils/digest\utils_sha256.c ****     0x6a09e667UL,
  50:C:/Users/stapi/OneDrive/Desktop/GD32VW553/V1_MQTT_OK/GD32VW55X_Wifi_BLE_SDK/GD32VW55x_RELEASE_V1.0.2/MSDK/cloud/alicloud/src/infra/utils/digest\utils_sha256.c ****     0xbb67ae85UL,
  51:C:/Users/stapi/OneDrive/Desktop/GD32VW553/V1_MQTT_OK/GD32VW55X_Wifi_BLE_SDK/GD32VW55x_RELEASE_V1.0.2/MSDK/cloud/alicloud/src/infra/utils/digest\utils_sha256.c ****     0x3c6ef372UL,
  52:C:/Users/stapi/OneDrive/Desktop/GD32VW553/V1_MQTT_OK/GD32VW55X_Wifi_BLE_SDK/GD32VW55x_RELEASE_V1.0.2/MSDK/cloud/alicloud/src/infra/utils/digest\utils_sha256.c ****     0xa54ff53aUL,
  53:C:/Users/stapi/OneDrive/Desktop/GD32VW553/V1_MQTT_OK/GD32VW55X_Wifi_BLE_SDK/GD32VW55x_RELEASE_V1.0.2/MSDK/cloud/alicloud/src/infra/utils/digest\utils_sha256.c ****     0x510e527fUL,
  54:C:/Users/stapi/OneDrive/Desktop/GD32VW553/V1_MQTT_OK/GD32VW55X_Wifi_BLE_SDK/GD32VW55x_RELEASE_V1.0.2/MSDK/cloud/alicloud/src/infra/utils/digest\utils_sha256.c ****     0x9b05688cUL,
  55:C:/Users/stapi/OneDrive/Desktop/GD32VW553/V1_MQTT_OK/GD32VW55X_Wifi_BLE_SDK/GD32VW55x_RELEASE_V1.0.2/MSDK/cloud/alicloud/src/infra/utils/digest\utils_sha256.c ****     0x1f83d9abUL,
  56:C:/Users/stapi/OneDrive/Desktop/GD32VW553/V1_MQTT_OK/GD32VW55X_Wifi_BLE_SDK/GD32VW55x_RELEASE_V1.0.2/MSDK/cloud/alicloud/src/infra/utils/digest\utils_sha256.c ****     0x5be0cd19UL
  57:C:/Users/stapi/OneDrive/Desktop/GD32VW553/V1_MQTT_OK/GD32VW55X_Wifi_BLE_SDK/GD32VW55x_RELEASE_V1.0.2/MSDK/cloud/alicloud/src/infra/utils/digest\utils_sha256.c **** };
  58:C:/Users/stapi/OneDrive/Desktop/GD32VW553/V1_MQTT_OK/GD32VW55X_Wifi_BLE_SDK/GD32VW55x_RELEASE_V1.0.2/MSDK/cloud/alicloud/src/infra/utils/digest\utils_sha256.c **** 
  59:C:/Users/stapi/OneDrive/Desktop/GD32VW553/V1_MQTT_OK/GD32VW55X_Wifi_BLE_SDK/GD32VW55x_RELEASE_V1.0.2/MSDK/cloud/alicloud/src/infra/utils/digest\utils_sha256.c **** extern uint32_t os_htobe32(uint32_t data);
  60:C:/Users/stapi/OneDrive/Desktop/GD32VW553/V1_MQTT_OK/GD32VW55X_Wifi_BLE_SDK/GD32VW55x_RELEASE_V1.0.2/MSDK/cloud/alicloud/src/infra/utils/digest\utils_sha256.c **** extern uint64_t os_htobe64(uint64_t data);
  61:C:/Users/stapi/OneDrive/Desktop/GD32VW553/V1_MQTT_OK/GD32VW55X_Wifi_BLE_SDK/GD32VW55x_RELEASE_V1.0.2/MSDK/cloud/alicloud/src/infra/utils/digest\utils_sha256.c **** extern uint32_t os_be32toh(uint32_t data);
  62:C:/Users/stapi/OneDrive/Desktop/GD32VW553/V1_MQTT_OK/GD32VW55X_Wifi_BLE_SDK/GD32VW55x_RELEASE_V1.0.2/MSDK/cloud/alicloud/src/infra/utils/digest\utils_sha256.c **** 
  63:C:/Users/stapi/OneDrive/Desktop/GD32VW553/V1_MQTT_OK/GD32VW55X_Wifi_BLE_SDK/GD32VW55x_RELEASE_V1.0.2/MSDK/cloud/alicloud/src/infra/utils/digest\utils_sha256.c **** #ifndef BUILD_AOS
  64:C:/Users/stapi/OneDrive/Desktop/GD32VW553/V1_MQTT_OK/GD32VW55X_Wifi_BLE_SDK/GD32VW55x_RELEASE_V1.0.2/MSDK/cloud/alicloud/src/infra/utils/digest\utils_sha256.c **** static uint8_t is_little_endian()
  65:C:/Users/stapi/OneDrive/Desktop/GD32VW553/V1_MQTT_OK/GD32VW55X_Wifi_BLE_SDK/GD32VW55x_RELEASE_V1.0.2/MSDK/cloud/alicloud/src/infra/utils/digest\utils_sha256.c **** {
  66:C:/Users/stapi/OneDrive/Desktop/GD32VW553/V1_MQTT_OK/GD32VW55X_Wifi_BLE_SDK/GD32VW55x_RELEASE_V1.0.2/MSDK/cloud/alicloud/src/infra/utils/digest\utils_sha256.c ****     static uint32_t _endian_x_ = 1;
  67:C:/Users/stapi/OneDrive/Desktop/GD32VW553/V1_MQTT_OK/GD32VW55X_Wifi_BLE_SDK/GD32VW55x_RELEASE_V1.0.2/MSDK/cloud/alicloud/src/infra/utils/digest\utils_sha256.c ****     return ((const uint8_t *)(& _endian_x_))[0];
  68:C:/Users/stapi/OneDrive/Desktop/GD32VW553/V1_MQTT_OK/GD32VW55X_Wifi_BLE_SDK/GD32VW55x_RELEASE_V1.0.2/MSDK/cloud/alicloud/src/infra/utils/digest\utils_sha256.c **** }
  69:C:/Users/stapi/OneDrive/Desktop/GD32VW553/V1_MQTT_OK/GD32VW55X_Wifi_BLE_SDK/GD32VW55x_RELEASE_V1.0.2/MSDK/cloud/alicloud/src/infra/utils/digest\utils_sha256.c **** 
  70:C:/Users/stapi/OneDrive/Desktop/GD32VW553/V1_MQTT_OK/GD32VW55X_Wifi_BLE_SDK/GD32VW55x_RELEASE_V1.0.2/MSDK/cloud/alicloud/src/infra/utils/digest\utils_sha256.c **** static uint8_t  is_big_endian()
  71:C:/Users/stapi/OneDrive/Desktop/GD32VW553/V1_MQTT_OK/GD32VW55X_Wifi_BLE_SDK/GD32VW55x_RELEASE_V1.0.2/MSDK/cloud/alicloud/src/infra/utils/digest\utils_sha256.c **** {
  72:C:/Users/stapi/OneDrive/Desktop/GD32VW553/V1_MQTT_OK/GD32VW55X_Wifi_BLE_SDK/GD32VW55x_RELEASE_V1.0.2/MSDK/cloud/alicloud/src/infra/utils/digest\utils_sha256.c ****     return !is_little_endian();
  73:C:/Users/stapi/OneDrive/Desktop/GD32VW553/V1_MQTT_OK/GD32VW55X_Wifi_BLE_SDK/GD32VW55x_RELEASE_V1.0.2/MSDK/cloud/alicloud/src/infra/utils/digest\utils_sha256.c **** }
  74:C:/Users/stapi/OneDrive/Desktop/GD32VW553/V1_MQTT_OK/GD32VW55X_Wifi_BLE_SDK/GD32VW55x_RELEASE_V1.0.2/MSDK/cloud/alicloud/src/infra/utils/digest\utils_sha256.c **** //reverse byte order
  75:C:/Users/stapi/OneDrive/Desktop/GD32VW553/V1_MQTT_OK/GD32VW55X_Wifi_BLE_SDK/GD32VW55x_RELEASE_V1.0.2/MSDK/cloud/alicloud/src/infra/utils/digest\utils_sha256.c **** static  uint32_t reverse_32bit(uint32_t data)
  76:C:/Users/stapi/OneDrive/Desktop/GD32VW553/V1_MQTT_OK/GD32VW55X_Wifi_BLE_SDK/GD32VW55x_RELEASE_V1.0.2/MSDK/cloud/alicloud/src/infra/utils/digest\utils_sha256.c **** {
  77:C:/Users/stapi/OneDrive/Desktop/GD32VW553/V1_MQTT_OK/GD32VW55X_Wifi_BLE_SDK/GD32VW55x_RELEASE_V1.0.2/MSDK/cloud/alicloud/src/infra/utils/digest\utils_sha256.c ****     data = (data >> 16) | (data << 16);
  78:C:/Users/stapi/OneDrive/Desktop/GD32VW553/V1_MQTT_OK/GD32VW55X_Wifi_BLE_SDK/GD32VW55x_RELEASE_V1.0.2/MSDK/cloud/alicloud/src/infra/utils/digest\utils_sha256.c ****     return ((data & 0xff00ff00UL) >> 8) | ((data & 0x00ff00ffUL) << 8);
  79:C:/Users/stapi/OneDrive/Desktop/GD32VW553/V1_MQTT_OK/GD32VW55X_Wifi_BLE_SDK/GD32VW55x_RELEASE_V1.0.2/MSDK/cloud/alicloud/src/infra/utils/digest\utils_sha256.c **** }
  80:C:/Users/stapi/OneDrive/Desktop/GD32VW553/V1_MQTT_OK/GD32VW55X_Wifi_BLE_SDK/GD32VW55x_RELEASE_V1.0.2/MSDK/cloud/alicloud/src/infra/utils/digest\utils_sha256.c **** #endif
  81:C:/Users/stapi/OneDrive/Desktop/GD32VW553/V1_MQTT_OK/GD32VW55X_Wifi_BLE_SDK/GD32VW55x_RELEASE_V1.0.2/MSDK/cloud/alicloud/src/infra/utils/digest\utils_sha256.c **** 
  82:C:/Users/stapi/OneDrive/Desktop/GD32VW553/V1_MQTT_OK/GD32VW55X_Wifi_BLE_SDK/GD32VW55x_RELEASE_V1.0.2/MSDK/cloud/alicloud/src/infra/utils/digest\utils_sha256.c **** #ifndef BUILD_AOS
  83:C:/Users/stapi/OneDrive/Desktop/GD32VW553/V1_MQTT_OK/GD32VW55X_Wifi_BLE_SDK/GD32VW55x_RELEASE_V1.0.2/MSDK/cloud/alicloud/src/infra/utils/digest\utils_sha256.c **** //host byte order to big endian
  84:C:/Users/stapi/OneDrive/Desktop/GD32VW553/V1_MQTT_OK/GD32VW55X_Wifi_BLE_SDK/GD32VW55x_RELEASE_V1.0.2/MSDK/cloud/alicloud/src/infra/utils/digest\utils_sha256.c **** uint32_t os_htobe32(uint32_t data)
  85:C:/Users/stapi/OneDrive/Desktop/GD32VW553/V1_MQTT_OK/GD32VW55X_Wifi_BLE_SDK/GD32VW55x_RELEASE_V1.0.2/MSDK/cloud/alicloud/src/infra/utils/digest\utils_sha256.c **** {
  86:C:/Users/stapi/OneDrive/Desktop/GD32VW553/V1_MQTT_OK/GD32VW55X_Wifi_BLE_SDK/GD32VW55x_RELEASE_V1.0.2/MSDK/cloud/alicloud/src/infra/utils/digest\utils_sha256.c ****     if (is_big_endian()) {
  87:C:/Users/stapi/OneDrive/Desktop/GD32VW553/V1_MQTT_OK/GD32VW55X_Wifi_BLE_SDK/GD32VW55x_RELEASE_V1.0.2/MSDK/cloud/alicloud/src/infra/utils/digest\utils_sha256.c ****         return data;
  88:C:/Users/stapi/OneDrive/Desktop/GD32VW553/V1_MQTT_OK/GD32VW55X_Wifi_BLE_SDK/GD32VW55x_RELEASE_V1.0.2/MSDK/cloud/alicloud/src/infra/utils/digest\utils_sha256.c ****     }
  89:C:/Users/stapi/OneDrive/Desktop/GD32VW553/V1_MQTT_OK/GD32VW55X_Wifi_BLE_SDK/GD32VW55x_RELEASE_V1.0.2/MSDK/cloud/alicloud/src/infra/utils/digest\utils_sha256.c ****     return reverse_32bit(data);
  90:C:/Users/stapi/OneDrive/Desktop/GD32VW553/V1_MQTT_OK/GD32VW55X_Wifi_BLE_SDK/GD32VW55x_RELEASE_V1.0.2/MSDK/cloud/alicloud/src/infra/utils/digest\utils_sha256.c **** }
  91:C:/Users/stapi/OneDrive/Desktop/GD32VW553/V1_MQTT_OK/GD32VW55X_Wifi_BLE_SDK/GD32VW55x_RELEASE_V1.0.2/MSDK/cloud/alicloud/src/infra/utils/digest\utils_sha256.c **** //big endian to host byte order
  92:C:/Users/stapi/OneDrive/Desktop/GD32VW553/V1_MQTT_OK/GD32VW55X_Wifi_BLE_SDK/GD32VW55x_RELEASE_V1.0.2/MSDK/cloud/alicloud/src/infra/utils/digest\utils_sha256.c **** uint32_t os_be32toh(uint32_t data)
  93:C:/Users/stapi/OneDrive/Desktop/GD32VW553/V1_MQTT_OK/GD32VW55X_Wifi_BLE_SDK/GD32VW55x_RELEASE_V1.0.2/MSDK/cloud/alicloud/src/infra/utils/digest\utils_sha256.c **** {
  94:C:/Users/stapi/OneDrive/Desktop/GD32VW553/V1_MQTT_OK/GD32VW55X_Wifi_BLE_SDK/GD32VW55x_RELEASE_V1.0.2/MSDK/cloud/alicloud/src/infra/utils/digest\utils_sha256.c ****     return os_htobe32(data);
  95:C:/Users/stapi/OneDrive/Desktop/GD32VW553/V1_MQTT_OK/GD32VW55X_Wifi_BLE_SDK/GD32VW55x_RELEASE_V1.0.2/MSDK/cloud/alicloud/src/infra/utils/digest\utils_sha256.c **** }
  96:C:/Users/stapi/OneDrive/Desktop/GD32VW553/V1_MQTT_OK/GD32VW55X_Wifi_BLE_SDK/GD32VW55x_RELEASE_V1.0.2/MSDK/cloud/alicloud/src/infra/utils/digest\utils_sha256.c **** static inline uint64_t reverse_64bit(uint64_t data)
  97:C:/Users/stapi/OneDrive/Desktop/GD32VW553/V1_MQTT_OK/GD32VW55X_Wifi_BLE_SDK/GD32VW55x_RELEASE_V1.0.2/MSDK/cloud/alicloud/src/infra/utils/digest\utils_sha256.c **** {
  98:C:/Users/stapi/OneDrive/Desktop/GD32VW553/V1_MQTT_OK/GD32VW55X_Wifi_BLE_SDK/GD32VW55x_RELEASE_V1.0.2/MSDK/cloud/alicloud/src/infra/utils/digest\utils_sha256.c ****     data = (data >> 32) | (data << 32);
  99:C:/Users/stapi/OneDrive/Desktop/GD32VW553/V1_MQTT_OK/GD32VW55X_Wifi_BLE_SDK/GD32VW55x_RELEASE_V1.0.2/MSDK/cloud/alicloud/src/infra/utils/digest\utils_sha256.c ****     data = ((data & 0xff00ff00ff00ff00ULL) >> 8) | ((data & 0x00ff00ff00ff00ffULL) << 8);
 100:C:/Users/stapi/OneDrive/Desktop/GD32VW553/V1_MQTT_OK/GD32VW55X_Wifi_BLE_SDK/GD32VW55x_RELEASE_V1.0.2/MSDK/cloud/alicloud/src/infra/utils/digest\utils_sha256.c **** 
 101:C:/Users/stapi/OneDrive/Desktop/GD32VW553/V1_MQTT_OK/GD32VW55X_Wifi_BLE_SDK/GD32VW55x_RELEASE_V1.0.2/MSDK/cloud/alicloud/src/infra/utils/digest\utils_sha256.c ****     return ((data & 0xffff0000ffff0000ULL) >> 16) | ((data & 0x0000ffff0000ffffULL) << 16);
 102:C:/Users/stapi/OneDrive/Desktop/GD32VW553/V1_MQTT_OK/GD32VW55X_Wifi_BLE_SDK/GD32VW55x_RELEASE_V1.0.2/MSDK/cloud/alicloud/src/infra/utils/digest\utils_sha256.c **** }
 103:C:/Users/stapi/OneDrive/Desktop/GD32VW553/V1_MQTT_OK/GD32VW55X_Wifi_BLE_SDK/GD32VW55x_RELEASE_V1.0.2/MSDK/cloud/alicloud/src/infra/utils/digest\utils_sha256.c **** 
 104:C:/Users/stapi/OneDrive/Desktop/GD32VW553/V1_MQTT_OK/GD32VW55X_Wifi_BLE_SDK/GD32VW55x_RELEASE_V1.0.2/MSDK/cloud/alicloud/src/infra/utils/digest\utils_sha256.c **** //host to big endian
 105:C:/Users/stapi/OneDrive/Desktop/GD32VW553/V1_MQTT_OK/GD32VW55X_Wifi_BLE_SDK/GD32VW55x_RELEASE_V1.0.2/MSDK/cloud/alicloud/src/infra/utils/digest\utils_sha256.c **** uint64_t os_htobe64(uint64_t data)
 106:C:/Users/stapi/OneDrive/Desktop/GD32VW553/V1_MQTT_OK/GD32VW55X_Wifi_BLE_SDK/GD32VW55x_RELEASE_V1.0.2/MSDK/cloud/alicloud/src/infra/utils/digest\utils_sha256.c **** {
 107:C:/Users/stapi/OneDrive/Desktop/GD32VW553/V1_MQTT_OK/GD32VW55X_Wifi_BLE_SDK/GD32VW55x_RELEASE_V1.0.2/MSDK/cloud/alicloud/src/infra/utils/digest\utils_sha256.c ****     if (is_big_endian()) {
 108:C:/Users/stapi/OneDrive/Desktop/GD32VW553/V1_MQTT_OK/GD32VW55X_Wifi_BLE_SDK/GD32VW55x_RELEASE_V1.0.2/MSDK/cloud/alicloud/src/infra/utils/digest\utils_sha256.c ****         return data;
 109:C:/Users/stapi/OneDrive/Desktop/GD32VW553/V1_MQTT_OK/GD32VW55X_Wifi_BLE_SDK/GD32VW55x_RELEASE_V1.0.2/MSDK/cloud/alicloud/src/infra/utils/digest\utils_sha256.c ****     }
 110:C:/Users/stapi/OneDrive/Desktop/GD32VW553/V1_MQTT_OK/GD32VW55X_Wifi_BLE_SDK/GD32VW55x_RELEASE_V1.0.2/MSDK/cloud/alicloud/src/infra/utils/digest\utils_sha256.c **** 
 111:C:/Users/stapi/OneDrive/Desktop/GD32VW553/V1_MQTT_OK/GD32VW55X_Wifi_BLE_SDK/GD32VW55x_RELEASE_V1.0.2/MSDK/cloud/alicloud/src/infra/utils/digest\utils_sha256.c ****     return reverse_64bit(data);
 112:C:/Users/stapi/OneDrive/Desktop/GD32VW553/V1_MQTT_OK/GD32VW55X_Wifi_BLE_SDK/GD32VW55x_RELEASE_V1.0.2/MSDK/cloud/alicloud/src/infra/utils/digest\utils_sha256.c **** }
 113:C:/Users/stapi/OneDrive/Desktop/GD32VW553/V1_MQTT_OK/GD32VW55X_Wifi_BLE_SDK/GD32VW55x_RELEASE_V1.0.2/MSDK/cloud/alicloud/src/infra/utils/digest\utils_sha256.c **** #endif
 114:C:/Users/stapi/OneDrive/Desktop/GD32VW553/V1_MQTT_OK/GD32VW55X_Wifi_BLE_SDK/GD32VW55x_RELEASE_V1.0.2/MSDK/cloud/alicloud/src/infra/utils/digest\utils_sha256.c **** static void utils_sha256_zeroize(void *v, size_t n)
 115:C:/Users/stapi/OneDrive/Desktop/GD32VW553/V1_MQTT_OK/GD32VW55X_Wifi_BLE_SDK/GD32VW55x_RELEASE_V1.0.2/MSDK/cloud/alicloud/src/infra/utils/digest\utils_sha256.c **** {
 116:C:/Users/stapi/OneDrive/Desktop/GD32VW553/V1_MQTT_OK/GD32VW55X_Wifi_BLE_SDK/GD32VW55x_RELEASE_V1.0.2/MSDK/cloud/alicloud/src/infra/utils/digest\utils_sha256.c ****     volatile unsigned char *p = v;
 117:C:/Users/stapi/OneDrive/Desktop/GD32VW553/V1_MQTT_OK/GD32VW55X_Wifi_BLE_SDK/GD32VW55x_RELEASE_V1.0.2/MSDK/cloud/alicloud/src/infra/utils/digest\utils_sha256.c ****     while (n--) {
 118:C:/Users/stapi/OneDrive/Desktop/GD32VW553/V1_MQTT_OK/GD32VW55X_Wifi_BLE_SDK/GD32VW55x_RELEASE_V1.0.2/MSDK/cloud/alicloud/src/infra/utils/digest\utils_sha256.c ****         *p++ = 0;
 119:C:/Users/stapi/OneDrive/Desktop/GD32VW553/V1_MQTT_OK/GD32VW55X_Wifi_BLE_SDK/GD32VW55x_RELEASE_V1.0.2/MSDK/cloud/alicloud/src/infra/utils/digest\utils_sha256.c ****     }
 120:C:/Users/stapi/OneDrive/Desktop/GD32VW553/V1_MQTT_OK/GD32VW55X_Wifi_BLE_SDK/GD32VW55x_RELEASE_V1.0.2/MSDK/cloud/alicloud/src/infra/utils/digest\utils_sha256.c **** }
 121:C:/Users/stapi/OneDrive/Desktop/GD32VW553/V1_MQTT_OK/GD32VW55X_Wifi_BLE_SDK/GD32VW55x_RELEASE_V1.0.2/MSDK/cloud/alicloud/src/infra/utils/digest\utils_sha256.c **** void utils_sha256_init(iot_sha256_context *ctx)
 122:C:/Users/stapi/OneDrive/Desktop/GD32VW553/V1_MQTT_OK/GD32VW55X_Wifi_BLE_SDK/GD32VW55x_RELEASE_V1.0.2/MSDK/cloud/alicloud/src/infra/utils/digest\utils_sha256.c **** {
 123:C:/Users/stapi/OneDrive/Desktop/GD32VW553/V1_MQTT_OK/GD32VW55X_Wifi_BLE_SDK/GD32VW55x_RELEASE_V1.0.2/MSDK/cloud/alicloud/src/infra/utils/digest\utils_sha256.c ****     memset(ctx, 0, sizeof(iot_sha256_context));
 124:C:/Users/stapi/OneDrive/Desktop/GD32VW553/V1_MQTT_OK/GD32VW55X_Wifi_BLE_SDK/GD32VW55x_RELEASE_V1.0.2/MSDK/cloud/alicloud/src/infra/utils/digest\utils_sha256.c **** }
 125:C:/Users/stapi/OneDrive/Desktop/GD32VW553/V1_MQTT_OK/GD32VW55X_Wifi_BLE_SDK/GD32VW55x_RELEASE_V1.0.2/MSDK/cloud/alicloud/src/infra/utils/digest\utils_sha256.c **** void utils_sha256_free(iot_sha256_context *ctx)
 126:C:/Users/stapi/OneDrive/Desktop/GD32VW553/V1_MQTT_OK/GD32VW55X_Wifi_BLE_SDK/GD32VW55x_RELEASE_V1.0.2/MSDK/cloud/alicloud/src/infra/utils/digest\utils_sha256.c **** {
 127:C:/Users/stapi/OneDrive/Desktop/GD32VW553/V1_MQTT_OK/GD32VW55X_Wifi_BLE_SDK/GD32VW55x_RELEASE_V1.0.2/MSDK/cloud/alicloud/src/infra/utils/digest\utils_sha256.c ****     if (NULL == ctx) {
 128:C:/Users/stapi/OneDrive/Desktop/GD32VW553/V1_MQTT_OK/GD32VW55X_Wifi_BLE_SDK/GD32VW55x_RELEASE_V1.0.2/MSDK/cloud/alicloud/src/infra/utils/digest\utils_sha256.c ****         return;
 129:C:/Users/stapi/OneDrive/Desktop/GD32VW553/V1_MQTT_OK/GD32VW55X_Wifi_BLE_SDK/GD32VW55x_RELEASE_V1.0.2/MSDK/cloud/alicloud/src/infra/utils/digest\utils_sha256.c ****     }
 130:C:/Users/stapi/OneDrive/Desktop/GD32VW553/V1_MQTT_OK/GD32VW55X_Wifi_BLE_SDK/GD32VW55x_RELEASE_V1.0.2/MSDK/cloud/alicloud/src/infra/utils/digest\utils_sha256.c **** 
 131:C:/Users/stapi/OneDrive/Desktop/GD32VW553/V1_MQTT_OK/GD32VW55X_Wifi_BLE_SDK/GD32VW55x_RELEASE_V1.0.2/MSDK/cloud/alicloud/src/infra/utils/digest\utils_sha256.c ****     utils_sha256_zeroize(ctx, sizeof(iot_sha256_context));
 132:C:/Users/stapi/OneDrive/Desktop/GD32VW553/V1_MQTT_OK/GD32VW55X_Wifi_BLE_SDK/GD32VW55x_RELEASE_V1.0.2/MSDK/cloud/alicloud/src/infra/utils/digest\utils_sha256.c **** }
 133:C:/Users/stapi/OneDrive/Desktop/GD32VW553/V1_MQTT_OK/GD32VW55X_Wifi_BLE_SDK/GD32VW55x_RELEASE_V1.0.2/MSDK/cloud/alicloud/src/infra/utils/digest\utils_sha256.c **** void utils_sha256_clone(iot_sha256_context *dst,
 134:C:/Users/stapi/OneDrive/Desktop/GD32VW553/V1_MQTT_OK/GD32VW55X_Wifi_BLE_SDK/GD32VW55x_RELEASE_V1.0.2/MSDK/cloud/alicloud/src/infra/utils/digest\utils_sha256.c ****                         const iot_sha256_context *src)
 135:C:/Users/stapi/OneDrive/Desktop/GD32VW553/V1_MQTT_OK/GD32VW55X_Wifi_BLE_SDK/GD32VW55x_RELEASE_V1.0.2/MSDK/cloud/alicloud/src/infra/utils/digest\utils_sha256.c **** {
 136:C:/Users/stapi/OneDrive/Desktop/GD32VW553/V1_MQTT_OK/GD32VW55X_Wifi_BLE_SDK/GD32VW55x_RELEASE_V1.0.2/MSDK/cloud/alicloud/src/infra/utils/digest\utils_sha256.c ****     *dst = *src;
 137:C:/Users/stapi/OneDrive/Desktop/GD32VW553/V1_MQTT_OK/GD32VW55X_Wifi_BLE_SDK/GD32VW55x_RELEASE_V1.0.2/MSDK/cloud/alicloud/src/infra/utils/digest\utils_sha256.c **** }
 138:C:/Users/stapi/OneDrive/Desktop/GD32VW553/V1_MQTT_OK/GD32VW55X_Wifi_BLE_SDK/GD32VW55x_RELEASE_V1.0.2/MSDK/cloud/alicloud/src/infra/utils/digest\utils_sha256.c **** void utils_sha256_starts(iot_sha256_context *ctx)
  15              		.loc 1 138 6
  16              		.cfi_startproc
  17              	.LVL0:
  18 0000 17030000 		call	t0,__riscv_save_1
  18      E7020300 
  19              		.cfi_offset 8, -8
  20              		.cfi_offset 1, -4
  21              		.cfi_def_cfa_offset 16
 139:C:/Users/stapi/OneDrive/Desktop/GD32VW553/V1_MQTT_OK/GD32VW55X_Wifi_BLE_SDK/GD32VW55x_RELEASE_V1.0.2/MSDK/cloud/alicloud/src/infra/utils/digest\utils_sha256.c **** {
 140:C:/Users/stapi/OneDrive/Desktop/GD32VW553/V1_MQTT_OK/GD32VW55X_Wifi_BLE_SDK/GD32VW55x_RELEASE_V1.0.2/MSDK/cloud/alicloud/src/infra/utils/digest\utils_sha256.c ****     if (NULL == ctx) {
 141:C:/Users/stapi/OneDrive/Desktop/GD32VW553/V1_MQTT_OK/GD32VW55X_Wifi_BLE_SDK/GD32VW55x_RELEASE_V1.0.2/MSDK/cloud/alicloud/src/infra/utils/digest\utils_sha256.c ****         return;
 142:C:/Users/stapi/OneDrive/Desktop/GD32VW553/V1_MQTT_OK/GD32VW55X_Wifi_BLE_SDK/GD32VW55x_RELEASE_V1.0.2/MSDK/cloud/alicloud/src/infra/utils/digest\utils_sha256.c ****     }
 143:C:/Users/stapi/OneDrive/Desktop/GD32VW553/V1_MQTT_OK/GD32VW55X_Wifi_BLE_SDK/GD32VW55x_RELEASE_V1.0.2/MSDK/cloud/alicloud/src/infra/utils/digest\utils_sha256.c ****     memcpy(ctx->state, sha256_initial_hash_value, SHA256_DIGEST_LENGTH);
  22              		.loc 1 143 5
  23 0008 B7050000 		lui	a1,%hi(.LANCHOR0)
  24 000c 13060002 		li	a2,32
  25 0010 93850500 		addi	a1,a1,%lo(.LANCHOR0)
 138:C:/Users/stapi/OneDrive/Desktop/GD32VW553/V1_MQTT_OK/GD32VW55X_Wifi_BLE_SDK/GD32VW55x_RELEASE_V1.0.2/MSDK/cloud/alicloud/src/infra/utils/digest\utils_sha256.c **** {
  26              		.loc 1 138 6 is_stmt 0
  27 0014 2A84     		mv	s0,a0
  28              		.loc 1 143 5
  29 0016 97000000 		call	memcpy
  29      E7800000 
  30              	.LVL1:
 144:C:/Users/stapi/OneDrive/Desktop/GD32VW553/V1_MQTT_OK/GD32VW55X_Wifi_BLE_SDK/GD32VW55x_RELEASE_V1.0.2/MSDK/cloud/alicloud/src/infra/utils/digest\utils_sha256.c ****     memset(ctx->buffer, 0, SHA256_BLOCK_LENGTH);
  31              		.loc 1 144 5 is_stmt 1
  32 001e 13060004 		li	a2,64
  33 0022 8145     		li	a1,0
  34 0024 13058402 		addi	a0,s0,40
  35 0028 97000000 		call	memset
  35      E7800000 
  36              	.LVL2:
 145:C:/Users/stapi/OneDrive/Desktop/GD32VW553/V1_MQTT_OK/GD32VW55X_Wifi_BLE_SDK/GD32VW55x_RELEASE_V1.0.2/MSDK/cloud/alicloud/src/infra/utils/digest\utils_sha256.c ****     ctx->bitcount = 0;
  37              		.loc 1 145 5
  38              		.loc 1 145 19 is_stmt 0
  39 0030 0147     		li	a4,0
  40 0032 8147     		li	a5,0
  41 0034 18D0     		sw	a4,32(s0)
  42 0036 5CD0     		sw	a5,36(s0)
 146:C:/Users/stapi/OneDrive/Desktop/GD32VW553/V1_MQTT_OK/GD32VW55X_Wifi_BLE_SDK/GD32VW55x_RELEASE_V1.0.2/MSDK/cloud/alicloud/src/infra/utils/digest\utils_sha256.c **** }
  43              		.loc 1 146 1
  44 0038 17030000 		tail	__riscv_restore_1
  44      67000300 
  45              		.cfi_restore 8
  46              		.cfi_restore 1
  47              		.cfi_def_cfa_offset 0
  48              		.cfi_endproc
  49              	.LFE21:
  51              		.section	.text.os_htobe32,"ax",@progbits
  52              		.align	1
  53              		.globl	os_htobe32
  55              	os_htobe32:
  56              	.LFB7:
  85:C:/Users/stapi/OneDrive/Desktop/GD32VW553/V1_MQTT_OK/GD32VW55X_Wifi_BLE_SDK/GD32VW55x_RELEASE_V1.0.2/MSDK/cloud/alicloud/src/infra/utils/digest\utils_sha256.c ****     if (is_big_endian()) {
  57              		.loc 1 85 1 is_stmt 1
  58              		.cfi_startproc
  59              	.LVL3:
  86:C:/Users/stapi/OneDrive/Desktop/GD32VW553/V1_MQTT_OK/GD32VW55X_Wifi_BLE_SDK/GD32VW55x_RELEASE_V1.0.2/MSDK/cloud/alicloud/src/infra/utils/digest\utils_sha256.c ****         return data;
  60              		.loc 1 86 5
  72:C:/Users/stapi/OneDrive/Desktop/GD32VW553/V1_MQTT_OK/GD32VW55X_Wifi_BLE_SDK/GD32VW55x_RELEASE_V1.0.2/MSDK/cloud/alicloud/src/infra/utils/digest\utils_sha256.c **** }
  61              		.loc 1 72 5
  66:C:/Users/stapi/OneDrive/Desktop/GD32VW553/V1_MQTT_OK/GD32VW55X_Wifi_BLE_SDK/GD32VW55x_RELEASE_V1.0.2/MSDK/cloud/alicloud/src/infra/utils/digest\utils_sha256.c ****     return ((const uint8_t *)(& _endian_x_))[0];
  62              		.loc 1 66 5
  67:C:/Users/stapi/OneDrive/Desktop/GD32VW553/V1_MQTT_OK/GD32VW55X_Wifi_BLE_SDK/GD32VW55x_RELEASE_V1.0.2/MSDK/cloud/alicloud/src/infra/utils/digest\utils_sha256.c **** }
  63              		.loc 1 67 5
  89:C:/Users/stapi/OneDrive/Desktop/GD32VW553/V1_MQTT_OK/GD32VW55X_Wifi_BLE_SDK/GD32VW55x_RELEASE_V1.0.2/MSDK/cloud/alicloud/src/infra/utils/digest\utils_sha256.c **** }
  64              		.loc 1 89 5
  77:C:/Users/stapi/OneDrive/Desktop/GD32VW553/V1_MQTT_OK/GD32VW55X_Wifi_BLE_SDK/GD32VW55x_RELEASE_V1.0.2/MSDK/cloud/alicloud/src/infra/utils/digest\utils_sha256.c ****     return ((data & 0xff00ff00UL) >> 8) | ((data & 0x00ff00ffUL) << 8);
  65              		.loc 1 77 5
  78:C:/Users/stapi/OneDrive/Desktop/GD32VW553/V1_MQTT_OK/GD32VW55X_Wifi_BLE_SDK/GD32VW55x_RELEASE_V1.0.2/MSDK/cloud/alicloud/src/infra/utils/digest\utils_sha256.c **** }
  66              		.loc 1 78 5
  90:C:/Users/stapi/OneDrive/Desktop/GD32VW553/V1_MQTT_OK/GD32VW55X_Wifi_BLE_SDK/GD32VW55x_RELEASE_V1.0.2/MSDK/cloud/alicloud/src/infra/utils/digest\utils_sha256.c **** //big endian to host byte order
  67              		.loc 1 90 1 is_stmt 0
  68 0000 13558569 		rev8	a0,a0
  69              	.LVL4:
  70 0004 8280     		ret
  71              		.cfi_endproc
  72              	.LFE7:
  74              		.section	.text.os_be32toh,"ax",@progbits
  75              		.align	1
  76              		.globl	os_be32toh
  78              	os_be32toh:
  79              	.LFB8:
  93:C:/Users/stapi/OneDrive/Desktop/GD32VW553/V1_MQTT_OK/GD32VW55X_Wifi_BLE_SDK/GD32VW55x_RELEASE_V1.0.2/MSDK/cloud/alicloud/src/infra/utils/digest\utils_sha256.c ****     return os_htobe32(data);
  80              		.loc 1 93 1 is_stmt 1
  81              		.cfi_startproc
  82              	.LVL5:
  94:C:/Users/stapi/OneDrive/Desktop/GD32VW553/V1_MQTT_OK/GD32VW55X_Wifi_BLE_SDK/GD32VW55x_RELEASE_V1.0.2/MSDK/cloud/alicloud/src/infra/utils/digest\utils_sha256.c **** }
  83              		.loc 1 94 5
  94:C:/Users/stapi/OneDrive/Desktop/GD32VW553/V1_MQTT_OK/GD32VW55X_Wifi_BLE_SDK/GD32VW55x_RELEASE_V1.0.2/MSDK/cloud/alicloud/src/infra/utils/digest\utils_sha256.c **** }
  84              		.loc 1 94 12 is_stmt 0
  85 0000 17030000 		tail	os_htobe32
  85      67000300 
  86              	.LVL6:
  87              		.cfi_endproc
  88              	.LFE8:
  90              		.section	.text.os_htobe64,"ax",@progbits
  91              		.align	1
  92              		.globl	os_htobe64
  94              	os_htobe64:
  95              	.LFB10:
 106:C:/Users/stapi/OneDrive/Desktop/GD32VW553/V1_MQTT_OK/GD32VW55X_Wifi_BLE_SDK/GD32VW55x_RELEASE_V1.0.2/MSDK/cloud/alicloud/src/infra/utils/digest\utils_sha256.c ****     if (is_big_endian()) {
  96              		.loc 1 106 1 is_stmt 1
  97              		.cfi_startproc
  98              	.LVL7:
 107:C:/Users/stapi/OneDrive/Desktop/GD32VW553/V1_MQTT_OK/GD32VW55X_Wifi_BLE_SDK/GD32VW55x_RELEASE_V1.0.2/MSDK/cloud/alicloud/src/infra/utils/digest\utils_sha256.c ****         return data;
  99              		.loc 1 107 5
  72:C:/Users/stapi/OneDrive/Desktop/GD32VW553/V1_MQTT_OK/GD32VW55X_Wifi_BLE_SDK/GD32VW55x_RELEASE_V1.0.2/MSDK/cloud/alicloud/src/infra/utils/digest\utils_sha256.c **** }
 100              		.loc 1 72 5
  66:C:/Users/stapi/OneDrive/Desktop/GD32VW553/V1_MQTT_OK/GD32VW55X_Wifi_BLE_SDK/GD32VW55x_RELEASE_V1.0.2/MSDK/cloud/alicloud/src/infra/utils/digest\utils_sha256.c ****     return ((const uint8_t *)(& _endian_x_))[0];
 101              		.loc 1 66 5
  67:C:/Users/stapi/OneDrive/Desktop/GD32VW553/V1_MQTT_OK/GD32VW55X_Wifi_BLE_SDK/GD32VW55x_RELEASE_V1.0.2/MSDK/cloud/alicloud/src/infra/utils/digest\utils_sha256.c **** }
 102              		.loc 1 67 5
 106:C:/Users/stapi/OneDrive/Desktop/GD32VW553/V1_MQTT_OK/GD32VW55X_Wifi_BLE_SDK/GD32VW55x_RELEASE_V1.0.2/MSDK/cloud/alicloud/src/infra/utils/digest\utils_sha256.c ****     if (is_big_endian()) {
 103              		.loc 1 106 1 is_stmt 0
 104 0000 AA87     		mv	a5,a0
 105              	.LVL8:
 111:C:/Users/stapi/OneDrive/Desktop/GD32VW553/V1_MQTT_OK/GD32VW55X_Wifi_BLE_SDK/GD32VW55x_RELEASE_V1.0.2/MSDK/cloud/alicloud/src/infra/utils/digest\utils_sha256.c **** }
 106              		.loc 1 111 5 is_stmt 1
  98:C:/Users/stapi/OneDrive/Desktop/GD32VW553/V1_MQTT_OK/GD32VW55X_Wifi_BLE_SDK/GD32VW55x_RELEASE_V1.0.2/MSDK/cloud/alicloud/src/infra/utils/digest\utils_sha256.c ****     data = ((data & 0xff00ff00ff00ff00ULL) >> 8) | ((data & 0x00ff00ff00ff00ffULL) << 8);
 107              		.loc 1 98 5
  99:C:/Users/stapi/OneDrive/Desktop/GD32VW553/V1_MQTT_OK/GD32VW55X_Wifi_BLE_SDK/GD32VW55x_RELEASE_V1.0.2/MSDK/cloud/alicloud/src/infra/utils/digest\utils_sha256.c **** 
 108              		.loc 1 99 5
 101:C:/Users/stapi/OneDrive/Desktop/GD32VW553/V1_MQTT_OK/GD32VW55X_Wifi_BLE_SDK/GD32VW55x_RELEASE_V1.0.2/MSDK/cloud/alicloud/src/infra/utils/digest\utils_sha256.c **** }
 109              		.loc 1 101 5
 112:C:/Users/stapi/OneDrive/Desktop/GD32VW553/V1_MQTT_OK/GD32VW55X_Wifi_BLE_SDK/GD32VW55x_RELEASE_V1.0.2/MSDK/cloud/alicloud/src/infra/utils/digest\utils_sha256.c **** #endif
 110              		.loc 1 112 1 is_stmt 0
 111 0002 13D58569 		rev8	a0,a1
 112              	.LVL9:
 113 0006 93D58769 		rev8	a1,a5
 114 000a 8280     		ret
 115              		.cfi_endproc
 116              	.LFE10:
 118              		.section	.text.utils_sha256_init,"ax",@progbits
 119              		.align	1
 120              		.globl	utils_sha256_init
 122              	utils_sha256_init:
 123              	.LFB12:
 122:C:/Users/stapi/OneDrive/Desktop/GD32VW553/V1_MQTT_OK/GD32VW55X_Wifi_BLE_SDK/GD32VW55x_RELEASE_V1.0.2/MSDK/cloud/alicloud/src/infra/utils/digest\utils_sha256.c ****     memset(ctx, 0, sizeof(iot_sha256_context));
 124              		.loc 1 122 1 is_stmt 1
 125              		.cfi_startproc
 126              	.LVL10:
 123:C:/Users/stapi/OneDrive/Desktop/GD32VW553/V1_MQTT_OK/GD32VW55X_Wifi_BLE_SDK/GD32VW55x_RELEASE_V1.0.2/MSDK/cloud/alicloud/src/infra/utils/digest\utils_sha256.c **** }
 127              		.loc 1 123 5
 128 0000 13068006 		li	a2,104
 129 0004 8145     		li	a1,0
 130 0006 17030000 		tail	memset
 130      67000300 
 131              	.LVL11:
 132              		.cfi_endproc
 133              	.LFE12:
 135              		.section	.text.utils_sha256_free,"ax",@progbits
 136              		.align	1
 137              		.globl	utils_sha256_free
 139              	utils_sha256_free:
 140              	.LFB13:
 126:C:/Users/stapi/OneDrive/Desktop/GD32VW553/V1_MQTT_OK/GD32VW55X_Wifi_BLE_SDK/GD32VW55x_RELEASE_V1.0.2/MSDK/cloud/alicloud/src/infra/utils/digest\utils_sha256.c ****     if (NULL == ctx) {
 141              		.loc 1 126 1
 142              		.cfi_startproc
 143              	.LVL12:
 127:C:/Users/stapi/OneDrive/Desktop/GD32VW553/V1_MQTT_OK/GD32VW55X_Wifi_BLE_SDK/GD32VW55x_RELEASE_V1.0.2/MSDK/cloud/alicloud/src/infra/utils/digest\utils_sha256.c ****         return;
 144              		.loc 1 127 5
 145 0000 93078506 		addi	a5,a0,104
 127:C:/Users/stapi/OneDrive/Desktop/GD32VW553/V1_MQTT_OK/GD32VW55X_Wifi_BLE_SDK/GD32VW55x_RELEASE_V1.0.2/MSDK/cloud/alicloud/src/infra/utils/digest\utils_sha256.c ****         return;
 146              		.loc 1 127 8 is_stmt 0
 147 0004 09E5     		bne	a0,zero,.L11
 148              	.LVL13:
 149              	.L9:
 132:C:/Users/stapi/OneDrive/Desktop/GD32VW553/V1_MQTT_OK/GD32VW55X_Wifi_BLE_SDK/GD32VW55x_RELEASE_V1.0.2/MSDK/cloud/alicloud/src/infra/utils/digest\utils_sha256.c **** void utils_sha256_clone(iot_sha256_context *dst,
 150              		.loc 1 132 1
 151 0006 8280     		ret
 152              	.LVL14:
 153              	.L12:
 154              	.LBB40:
 155              	.LBB41:
 118:C:/Users/stapi/OneDrive/Desktop/GD32VW553/V1_MQTT_OK/GD32VW55X_Wifi_BLE_SDK/GD32VW55x_RELEASE_V1.0.2/MSDK/cloud/alicloud/src/infra/utils/digest\utils_sha256.c ****     }
 156              		.loc 1 118 9 is_stmt 1
 118:C:/Users/stapi/OneDrive/Desktop/GD32VW553/V1_MQTT_OK/GD32VW55X_Wifi_BLE_SDK/GD32VW55x_RELEASE_V1.0.2/MSDK/cloud/alicloud/src/infra/utils/digest\utils_sha256.c ****     }
 157              		.loc 1 118 14 is_stmt 0
 158 0008 23000500 		sb	zero,0(a0)
 118:C:/Users/stapi/OneDrive/Desktop/GD32VW553/V1_MQTT_OK/GD32VW55X_Wifi_BLE_SDK/GD32VW55x_RELEASE_V1.0.2/MSDK/cloud/alicloud/src/infra/utils/digest\utils_sha256.c ****     }
 159              		.loc 1 118 11
 160 000c 0505     		addi	a0,a0,1
 161              	.LVL15:
 162              	.L11:
 117:C:/Users/stapi/OneDrive/Desktop/GD32VW553/V1_MQTT_OK/GD32VW55X_Wifi_BLE_SDK/GD32VW55x_RELEASE_V1.0.2/MSDK/cloud/alicloud/src/infra/utils/digest\utils_sha256.c ****         *p++ = 0;
 163              		.loc 1 117 11 is_stmt 1
 164 000e E31DF5FE 		bne	a0,a5,.L12
 165 0012 D5BF     		j	.L9
 166              	.LBE41:
 167              	.LBE40:
 168              		.cfi_endproc
 169              	.LFE13:
 171              		.section	.text.utils_sha256_clone,"ax",@progbits
 172              		.align	1
 173              		.globl	utils_sha256_clone
 175              	utils_sha256_clone:
 176              	.LFB14:
 135:C:/Users/stapi/OneDrive/Desktop/GD32VW553/V1_MQTT_OK/GD32VW55X_Wifi_BLE_SDK/GD32VW55x_RELEASE_V1.0.2/MSDK/cloud/alicloud/src/infra/utils/digest\utils_sha256.c ****     *dst = *src;
 177              		.loc 1 135 1
 178              		.cfi_startproc
 179              	.LVL16:
 136:C:/Users/stapi/OneDrive/Desktop/GD32VW553/V1_MQTT_OK/GD32VW55X_Wifi_BLE_SDK/GD32VW55x_RELEASE_V1.0.2/MSDK/cloud/alicloud/src/infra/utils/digest\utils_sha256.c **** }
 180              		.loc 1 136 5
 136:C:/Users/stapi/OneDrive/Desktop/GD32VW553/V1_MQTT_OK/GD32VW55X_Wifi_BLE_SDK/GD32VW55x_RELEASE_V1.0.2/MSDK/cloud/alicloud/src/infra/utils/digest\utils_sha256.c **** }
 181              		.loc 1 136 10 is_stmt 0
 182 0000 13068006 		li	a2,104
 183 0004 17030000 		tail	memcpy
 183      67000300 
 184              	.LVL17:
 185              		.cfi_endproc
 186              	.LFE14:
 188              		.section	.text.utils_sha256_starts,"ax",@progbits
 189              		.align	1
 190              		.globl	utils_sha256_starts
 192              	utils_sha256_starts:
 193              	.LFB15:
 139:C:/Users/stapi/OneDrive/Desktop/GD32VW553/V1_MQTT_OK/GD32VW55X_Wifi_BLE_SDK/GD32VW55x_RELEASE_V1.0.2/MSDK/cloud/alicloud/src/infra/utils/digest\utils_sha256.c ****     if (NULL == ctx) {
 194              		.loc 1 139 1 is_stmt 1
 195              		.cfi_startproc
 196              	.LVL18:
 140:C:/Users/stapi/OneDrive/Desktop/GD32VW553/V1_MQTT_OK/GD32VW55X_Wifi_BLE_SDK/GD32VW55x_RELEASE_V1.0.2/MSDK/cloud/alicloud/src/infra/utils/digest\utils_sha256.c ****         return;
 197              		.loc 1 140 5
 140:C:/Users/stapi/OneDrive/Desktop/GD32VW553/V1_MQTT_OK/GD32VW55X_Wifi_BLE_SDK/GD32VW55x_RELEASE_V1.0.2/MSDK/cloud/alicloud/src/infra/utils/digest\utils_sha256.c ****         return;
 198              		.loc 1 140 8 is_stmt 0
 199 0000 09C5     		beq	a0,zero,.L24
 200 0002 17030000 		tail	utils_sha256_starts.part.0
 200      67000300 
 201              	.LVL19:
 202              	.L24:
 203 000a 8280     		ret
 204              		.cfi_endproc
 205              	.LFE15:
 207              		.section	.text.utils_sha256_process,"ax",@progbits
 208              		.align	1
 209              		.globl	utils_sha256_process
 211              	utils_sha256_process:
 212              	.LFB16:
 147:C:/Users/stapi/OneDrive/Desktop/GD32VW553/V1_MQTT_OK/GD32VW55X_Wifi_BLE_SDK/GD32VW55x_RELEASE_V1.0.2/MSDK/cloud/alicloud/src/infra/utils/digest\utils_sha256.c **** void utils_sha256_process(iot_sha256_context *ctx, const uint32_t *data)
 148:C:/Users/stapi/OneDrive/Desktop/GD32VW553/V1_MQTT_OK/GD32VW55X_Wifi_BLE_SDK/GD32VW55x_RELEASE_V1.0.2/MSDK/cloud/alicloud/src/infra/utils/digest\utils_sha256.c **** {
 213              		.loc 1 148 1 is_stmt 1
 214              		.cfi_startproc
 215              	.LVL20:
 216              		.loc 1 148 1 is_stmt 0
 217 0000 17030000 		call	t0,__riscv_save_12
 217      E7020300 
 218              		.cfi_offset 27, -52
 219              		.cfi_offset 26, -48
 220              		.cfi_offset 25, -44
 221              		.cfi_offset 24, -40
 222              		.cfi_offset 23, -36
 223              		.cfi_offset 22, -32
 224              		.cfi_offset 21, -28
 225              		.cfi_offset 20, -24
 226              		.cfi_offset 19, -20
 227              		.cfi_offset 18, -16
 228              		.cfi_offset 9, -12
 229              		.cfi_offset 8, -8
 230              		.cfi_offset 1, -4
 231              		.cfi_def_cfa_offset 64
 149:C:/Users/stapi/OneDrive/Desktop/GD32VW553/V1_MQTT_OK/GD32VW55X_Wifi_BLE_SDK/GD32VW55x_RELEASE_V1.0.2/MSDK/cloud/alicloud/src/infra/utils/digest\utils_sha256.c ****     uint32_t a, b, c, d, e, f, g, h, s0, s1;
 232              		.loc 1 149 5 is_stmt 1
 150:C:/Users/stapi/OneDrive/Desktop/GD32VW553/V1_MQTT_OK/GD32VW55X_Wifi_BLE_SDK/GD32VW55x_RELEASE_V1.0.2/MSDK/cloud/alicloud/src/infra/utils/digest\utils_sha256.c ****     uint32_t T1, T2, *W256;
 233              		.loc 1 150 5
 151:C:/Users/stapi/OneDrive/Desktop/GD32VW553/V1_MQTT_OK/GD32VW55X_Wifi_BLE_SDK/GD32VW55x_RELEASE_V1.0.2/MSDK/cloud/alicloud/src/infra/utils/digest\utils_sha256.c ****     int j;
 234              		.loc 1 151 5
 152:C:/Users/stapi/OneDrive/Desktop/GD32VW553/V1_MQTT_OK/GD32VW55X_Wifi_BLE_SDK/GD32VW55x_RELEASE_V1.0.2/MSDK/cloud/alicloud/src/infra/utils/digest\utils_sha256.c **** 
 153:C:/Users/stapi/OneDrive/Desktop/GD32VW553/V1_MQTT_OK/GD32VW55X_Wifi_BLE_SDK/GD32VW55x_RELEASE_V1.0.2/MSDK/cloud/alicloud/src/infra/utils/digest\utils_sha256.c ****     W256 = (uint32_t *) ctx->buffer;
 235              		.loc 1 153 5
 154:C:/Users/stapi/OneDrive/Desktop/GD32VW553/V1_MQTT_OK/GD32VW55X_Wifi_BLE_SDK/GD32VW55x_RELEASE_V1.0.2/MSDK/cloud/alicloud/src/infra/utils/digest\utils_sha256.c **** 
 155:C:/Users/stapi/OneDrive/Desktop/GD32VW553/V1_MQTT_OK/GD32VW55X_Wifi_BLE_SDK/GD32VW55x_RELEASE_V1.0.2/MSDK/cloud/alicloud/src/infra/utils/digest\utils_sha256.c ****     /* Initialize registers with the prev. intermediate value */
 156:C:/Users/stapi/OneDrive/Desktop/GD32VW553/V1_MQTT_OK/GD32VW55X_Wifi_BLE_SDK/GD32VW55x_RELEASE_V1.0.2/MSDK/cloud/alicloud/src/infra/utils/digest\utils_sha256.c ****     a = ctx->state[0];
 236              		.loc 1 156 7 is_stmt 0
 237 0008 03290500 		lw	s2,0(a0)
 157:C:/Users/stapi/OneDrive/Desktop/GD32VW553/V1_MQTT_OK/GD32VW55X_Wifi_BLE_SDK/GD32VW55x_RELEASE_V1.0.2/MSDK/cloud/alicloud/src/infra/utils/digest\utils_sha256.c ****     b = ctx->state[1];
 238              		.loc 1 157 7
 239 000c 83294500 		lw	s3,4(a0)
 158:C:/Users/stapi/OneDrive/Desktop/GD32VW553/V1_MQTT_OK/GD32VW55X_Wifi_BLE_SDK/GD32VW55x_RELEASE_V1.0.2/MSDK/cloud/alicloud/src/infra/utils/digest\utils_sha256.c ****     c = ctx->state[2];
 240              		.loc 1 158 7
 241 0010 832A8500 		lw	s5,8(a0)
 159:C:/Users/stapi/OneDrive/Desktop/GD32VW553/V1_MQTT_OK/GD32VW55X_Wifi_BLE_SDK/GD32VW55x_RELEASE_V1.0.2/MSDK/cloud/alicloud/src/infra/utils/digest\utils_sha256.c ****     d = ctx->state[3];
 242              		.loc 1 159 7
 243 0014 832DC500 		lw	s11,12(a0)
 160:C:/Users/stapi/OneDrive/Desktop/GD32VW553/V1_MQTT_OK/GD32VW55X_Wifi_BLE_SDK/GD32VW55x_RELEASE_V1.0.2/MSDK/cloud/alicloud/src/infra/utils/digest\utils_sha256.c ****     e = ctx->state[4];
 244              		.loc 1 160 7
 245 0018 0449     		lw	s1,16(a0)
 161:C:/Users/stapi/OneDrive/Desktop/GD32VW553/V1_MQTT_OK/GD32VW55X_Wifi_BLE_SDK/GD32VW55x_RELEASE_V1.0.2/MSDK/cloud/alicloud/src/infra/utils/digest\utils_sha256.c ****     f = ctx->state[5];
 246              		.loc 1 161 7
 247 001a 032A4501 		lw	s4,20(a0)
 162:C:/Users/stapi/OneDrive/Desktop/GD32VW553/V1_MQTT_OK/GD32VW55X_Wifi_BLE_SDK/GD32VW55x_RELEASE_V1.0.2/MSDK/cloud/alicloud/src/infra/utils/digest\utils_sha256.c ****     g = ctx->state[6];
 248              		.loc 1 162 7
 249 001e 832B8501 		lw	s7,24(a0)
 163:C:/Users/stapi/OneDrive/Desktop/GD32VW553/V1_MQTT_OK/GD32VW55X_Wifi_BLE_SDK/GD32VW55x_RELEASE_V1.0.2/MSDK/cloud/alicloud/src/infra/utils/digest\utils_sha256.c ****     h = ctx->state[7];
 250              		.loc 1 163 7
 251 0022 584D     		lw	a4,28(a0)
 148:C:/Users/stapi/OneDrive/Desktop/GD32VW553/V1_MQTT_OK/GD32VW55X_Wifi_BLE_SDK/GD32VW55x_RELEASE_V1.0.2/MSDK/cloud/alicloud/src/infra/utils/digest\utils_sha256.c ****     uint32_t a, b, c, d, e, f, g, h, s0, s1;
 252              		.loc 1 148 1
 253 0024 2E8D     		mv	s10,a1
 164:C:/Users/stapi/OneDrive/Desktop/GD32VW553/V1_MQTT_OK/GD32VW55X_Wifi_BLE_SDK/GD32VW55x_RELEASE_V1.0.2/MSDK/cloud/alicloud/src/infra/utils/digest\utils_sha256.c **** 
 165:C:/Users/stapi/OneDrive/Desktop/GD32VW553/V1_MQTT_OK/GD32VW55X_Wifi_BLE_SDK/GD32VW55x_RELEASE_V1.0.2/MSDK/cloud/alicloud/src/infra/utils/digest\utils_sha256.c ****     j = 0;
 166:C:/Users/stapi/OneDrive/Desktop/GD32VW553/V1_MQTT_OK/GD32VW55X_Wifi_BLE_SDK/GD32VW55x_RELEASE_V1.0.2/MSDK/cloud/alicloud/src/infra/utils/digest\utils_sha256.c **** 
 167:C:/Users/stapi/OneDrive/Desktop/GD32VW553/V1_MQTT_OK/GD32VW55X_Wifi_BLE_SDK/GD32VW55x_RELEASE_V1.0.2/MSDK/cloud/alicloud/src/infra/utils/digest\utils_sha256.c ****     do {
 168:C:/Users/stapi/OneDrive/Desktop/GD32VW553/V1_MQTT_OK/GD32VW55X_Wifi_BLE_SDK/GD32VW55x_RELEASE_V1.0.2/MSDK/cloud/alicloud/src/infra/utils/digest\utils_sha256.c ****         /* Copy data while converting to host byte order */
 169:C:/Users/stapi/OneDrive/Desktop/GD32VW553/V1_MQTT_OK/GD32VW55X_Wifi_BLE_SDK/GD32VW55x_RELEASE_V1.0.2/MSDK/cloud/alicloud/src/infra/utils/digest\utils_sha256.c ****         W256[j] = os_htobe32(*data++);
 170:C:/Users/stapi/OneDrive/Desktop/GD32VW553/V1_MQTT_OK/GD32VW55X_Wifi_BLE_SDK/GD32VW55x_RELEASE_V1.0.2/MSDK/cloud/alicloud/src/infra/utils/digest\utils_sha256.c **** 
 171:C:/Users/stapi/OneDrive/Desktop/GD32VW553/V1_MQTT_OK/GD32VW55X_Wifi_BLE_SDK/GD32VW55x_RELEASE_V1.0.2/MSDK/cloud/alicloud/src/infra/utils/digest\utils_sha256.c ****         /* Apply the SHA-256 compression function to update a..h */
 172:C:/Users/stapi/OneDrive/Desktop/GD32VW553/V1_MQTT_OK/GD32VW55X_Wifi_BLE_SDK/GD32VW55x_RELEASE_V1.0.2/MSDK/cloud/alicloud/src/infra/utils/digest\utils_sha256.c ****         T1 = h + Sigma1_256(e) + Ch(e, f, g) + K256[j] + W256[j];
 254              		.loc 1 172 52
 255 0026 B7050000 		lui	a1,%hi(.LANCHOR1)
 256              	.LVL21:
 148:C:/Users/stapi/OneDrive/Desktop/GD32VW553/V1_MQTT_OK/GD32VW55X_Wifi_BLE_SDK/GD32VW55x_RELEASE_V1.0.2/MSDK/cloud/alicloud/src/infra/utils/digest\utils_sha256.c ****     uint32_t a, b, c, d, e, f, g, h, s0, s1;
 257              		.loc 1 148 1
 258 002a 4111     		addi	sp,sp,-16
 259              		.cfi_def_cfa_offset 80
 148:C:/Users/stapi/OneDrive/Desktop/GD32VW553/V1_MQTT_OK/GD32VW55X_Wifi_BLE_SDK/GD32VW55x_RELEASE_V1.0.2/MSDK/cloud/alicloud/src/infra/utils/digest\utils_sha256.c ****     uint32_t a, b, c, d, e, f, g, h, s0, s1;
 260              		.loc 1 148 1
 261 002c 2A84     		mv	s0,a0
 153:C:/Users/stapi/OneDrive/Desktop/GD32VW553/V1_MQTT_OK/GD32VW55X_Wifi_BLE_SDK/GD32VW55x_RELEASE_V1.0.2/MSDK/cloud/alicloud/src/infra/utils/digest\utils_sha256.c **** 
 262              		.loc 1 153 10
 263 002e 130B8502 		addi	s6,a0,40
 264              	.LVL22:
 156:C:/Users/stapi/OneDrive/Desktop/GD32VW553/V1_MQTT_OK/GD32VW55X_Wifi_BLE_SDK/GD32VW55x_RELEASE_V1.0.2/MSDK/cloud/alicloud/src/infra/utils/digest\utils_sha256.c ****     b = ctx->state[1];
 265              		.loc 1 156 5 is_stmt 1
 157:C:/Users/stapi/OneDrive/Desktop/GD32VW553/V1_MQTT_OK/GD32VW55X_Wifi_BLE_SDK/GD32VW55x_RELEASE_V1.0.2/MSDK/cloud/alicloud/src/infra/utils/digest\utils_sha256.c ****     c = ctx->state[2];
 266              		.loc 1 157 5
 158:C:/Users/stapi/OneDrive/Desktop/GD32VW553/V1_MQTT_OK/GD32VW55X_Wifi_BLE_SDK/GD32VW55x_RELEASE_V1.0.2/MSDK/cloud/alicloud/src/infra/utils/digest\utils_sha256.c ****     d = ctx->state[3];
 267              		.loc 1 158 5
 159:C:/Users/stapi/OneDrive/Desktop/GD32VW553/V1_MQTT_OK/GD32VW55X_Wifi_BLE_SDK/GD32VW55x_RELEASE_V1.0.2/MSDK/cloud/alicloud/src/infra/utils/digest\utils_sha256.c ****     e = ctx->state[4];
 268              		.loc 1 159 5
 160:C:/Users/stapi/OneDrive/Desktop/GD32VW553/V1_MQTT_OK/GD32VW55X_Wifi_BLE_SDK/GD32VW55x_RELEASE_V1.0.2/MSDK/cloud/alicloud/src/infra/utils/digest\utils_sha256.c ****     f = ctx->state[5];
 269              		.loc 1 160 5
 161:C:/Users/stapi/OneDrive/Desktop/GD32VW553/V1_MQTT_OK/GD32VW55X_Wifi_BLE_SDK/GD32VW55x_RELEASE_V1.0.2/MSDK/cloud/alicloud/src/infra/utils/digest\utils_sha256.c ****     g = ctx->state[6];
 270              		.loc 1 161 5
 162:C:/Users/stapi/OneDrive/Desktop/GD32VW553/V1_MQTT_OK/GD32VW55X_Wifi_BLE_SDK/GD32VW55x_RELEASE_V1.0.2/MSDK/cloud/alicloud/src/infra/utils/digest\utils_sha256.c ****     h = ctx->state[7];
 271              		.loc 1 162 5
 163:C:/Users/stapi/OneDrive/Desktop/GD32VW553/V1_MQTT_OK/GD32VW55X_Wifi_BLE_SDK/GD32VW55x_RELEASE_V1.0.2/MSDK/cloud/alicloud/src/infra/utils/digest\utils_sha256.c **** 
 272              		.loc 1 163 5
 165:C:/Users/stapi/OneDrive/Desktop/GD32VW553/V1_MQTT_OK/GD32VW55X_Wifi_BLE_SDK/GD32VW55x_RELEASE_V1.0.2/MSDK/cloud/alicloud/src/infra/utils/digest\utils_sha256.c **** 
 273              		.loc 1 165 5
 163:C:/Users/stapi/OneDrive/Desktop/GD32VW553/V1_MQTT_OK/GD32VW55X_Wifi_BLE_SDK/GD32VW55x_RELEASE_V1.0.2/MSDK/cloud/alicloud/src/infra/utils/digest\utils_sha256.c **** 
 274              		.loc 1 163 7 is_stmt 0
 275 0032 014C     		li	s8,0
 276              		.loc 1 172 52
 277 0034 938C0500 		addi	s9,a1,%lo(.LANCHOR1)
 278              	.LVL23:
 279              	.L28:
 169:C:/Users/stapi/OneDrive/Desktop/GD32VW553/V1_MQTT_OK/GD32VW55X_Wifi_BLE_SDK/GD32VW55x_RELEASE_V1.0.2/MSDK/cloud/alicloud/src/infra/utils/digest\utils_sha256.c **** 
 280              		.loc 1 169 19 discriminator 1
 281 0038 B3078D01 		add	a5,s10,s8
 282 003c 8843     		lw	a0,0(a5)
 283 003e 3AC6     		sw	a4,12(sp)
 284              	.LVL24:
 167:C:/Users/stapi/OneDrive/Desktop/GD32VW553/V1_MQTT_OK/GD32VW55X_Wifi_BLE_SDK/GD32VW55x_RELEASE_V1.0.2/MSDK/cloud/alicloud/src/infra/utils/digest\utils_sha256.c ****         /* Copy data while converting to host byte order */
 285              		.loc 1 167 5 is_stmt 1 discriminator 1
 169:C:/Users/stapi/OneDrive/Desktop/GD32VW553/V1_MQTT_OK/GD32VW55X_Wifi_BLE_SDK/GD32VW55x_RELEASE_V1.0.2/MSDK/cloud/alicloud/src/infra/utils/digest\utils_sha256.c **** 
 286              		.loc 1 169 9 discriminator 1
 169:C:/Users/stapi/OneDrive/Desktop/GD32VW553/V1_MQTT_OK/GD32VW55X_Wifi_BLE_SDK/GD32VW55x_RELEASE_V1.0.2/MSDK/cloud/alicloud/src/infra/utils/digest\utils_sha256.c **** 
 287              		.loc 1 169 19 is_stmt 0 discriminator 1
 288 0040 97000000 		call	os_htobe32
 288      E7800000 
 289              	.LVL25:
 169:C:/Users/stapi/OneDrive/Desktop/GD32VW553/V1_MQTT_OK/GD32VW55X_Wifi_BLE_SDK/GD32VW55x_RELEASE_V1.0.2/MSDK/cloud/alicloud/src/infra/utils/digest\utils_sha256.c **** 
 290              		.loc 1 169 17 discriminator 1
 291 0048 B3078401 		add	a5,s0,s8
 292              		.loc 1 172 18 discriminator 1
 293 004c 13D6B460 		rori	a2,s1,11
 294 0050 1D48     		li	a6,7
 169:C:/Users/stapi/OneDrive/Desktop/GD32VW553/V1_MQTT_OK/GD32VW55X_Wifi_BLE_SDK/GD32VW55x_RELEASE_V1.0.2/MSDK/cloud/alicloud/src/infra/utils/digest\utils_sha256.c **** 
 295              		.loc 1 169 17 discriminator 1
 296 0052 88D7     		sw	a0,40(a5)
 297              		.loc 1 172 9 is_stmt 1 discriminator 1
 298              		.loc 1 172 18 is_stmt 0 discriminator 1
 299 0054 93D76460 		rori	a5,s1,6
 300 0058 B18F     		xor	a5,a5,a2
 301 005a 33960461 		rol	a2,s1,a6
 302 005e B18F     		xor	a5,a5,a2
 303              		.loc 1 172 52 discriminator 1
 304 0060 33868C01 		add	a2,s9,s8
 305              		.loc 1 172 12 discriminator 1
 306 0064 1042     		lw	a2,0(a2)
 307 0066 3247     		lw	a4,12(sp)
 173:C:/Users/stapi/OneDrive/Desktop/GD32VW553/V1_MQTT_OK/GD32VW55X_Wifi_BLE_SDK/GD32VW55x_RELEASE_V1.0.2/MSDK/cloud/alicloud/src/infra/utils/digest\utils_sha256.c **** 
 174:C:/Users/stapi/OneDrive/Desktop/GD32VW553/V1_MQTT_OK/GD32VW55X_Wifi_BLE_SDK/GD32VW55x_RELEASE_V1.0.2/MSDK/cloud/alicloud/src/infra/utils/digest\utils_sha256.c ****         T2 = Sigma0_256(a) + Maj(a, b, c);
 308              		.loc 1 174 14 discriminator 1
 309 0068 A945     		li	a1,10
 172:C:/Users/stapi/OneDrive/Desktop/GD32VW553/V1_MQTT_OK/GD32VW55X_Wifi_BLE_SDK/GD32VW55x_RELEASE_V1.0.2/MSDK/cloud/alicloud/src/infra/utils/digest\utils_sha256.c **** 
 310              		.loc 1 172 12 discriminator 1
 311 006a 3295     		add	a0,a0,a2
 172:C:/Users/stapi/OneDrive/Desktop/GD32VW553/V1_MQTT_OK/GD32VW55X_Wifi_BLE_SDK/GD32VW55x_RELEASE_V1.0.2/MSDK/cloud/alicloud/src/infra/utils/digest\utils_sha256.c **** 
 312              		.loc 1 172 34 discriminator 1
 313 006c 33F64401 		and	a2,s1,s4
 172:C:/Users/stapi/OneDrive/Desktop/GD32VW553/V1_MQTT_OK/GD32VW55X_Wifi_BLE_SDK/GD32VW55x_RELEASE_V1.0.2/MSDK/cloud/alicloud/src/infra/utils/digest\utils_sha256.c **** 
 314              		.loc 1 172 12 discriminator 1
 315 0070 3E95     		add	a0,a5,a0
 172:C:/Users/stapi/OneDrive/Desktop/GD32VW553/V1_MQTT_OK/GD32VW55X_Wifi_BLE_SDK/GD32VW55x_RELEASE_V1.0.2/MSDK/cloud/alicloud/src/infra/utils/digest\utils_sha256.c **** 
 316              		.loc 1 172 34 discriminator 1
 317 0072 B3F79B40 		andn	a5,s7,s1
 318 0076 B18F     		xor	a5,a5,a2
 172:C:/Users/stapi/OneDrive/Desktop/GD32VW553/V1_MQTT_OK/GD32VW55X_Wifi_BLE_SDK/GD32VW55x_RELEASE_V1.0.2/MSDK/cloud/alicloud/src/infra/utils/digest\utils_sha256.c **** 
 319              		.loc 1 172 12 discriminator 1
 320 0078 AA97     		add	a5,a0,a5
 321              		.loc 1 174 14 discriminator 1
 322 007a 1356D960 		rori	a2,s2,13
 172:C:/Users/stapi/OneDrive/Desktop/GD32VW553/V1_MQTT_OK/GD32VW55X_Wifi_BLE_SDK/GD32VW55x_RELEASE_V1.0.2/MSDK/cloud/alicloud/src/infra/utils/digest\utils_sha256.c **** 
 323              		.loc 1 172 12 discriminator 1
 324 007e BA97     		add	a5,a5,a4
 325              	.LVL26:
 326              		.loc 1 174 9 is_stmt 1 discriminator 1
 327              		.loc 1 174 14 is_stmt 0 discriminator 1
 328 0080 13572960 		rori	a4,s2,2
 329 0084 318F     		xor	a4,a4,a2
 330 0086 3316B960 		rol	a2,s2,a1
 331 008a 318F     		xor	a4,a4,a2
 332              		.loc 1 174 30 discriminator 1
 333 008c 33C65901 		xor	a2,s3,s5
 334 0090 33762601 		and	a2,a2,s2
 335 0094 33F55901 		and	a0,s3,s5
 336 0098 298E     		xor	a2,a2,a0
 337              		.loc 1 174 12 discriminator 1
 338 009a 3297     		add	a4,a4,a2
 339              	.LVL27:
 175:C:/Users/stapi/OneDrive/Desktop/GD32VW553/V1_MQTT_OK/GD32VW55X_Wifi_BLE_SDK/GD32VW55x_RELEASE_V1.0.2/MSDK/cloud/alicloud/src/infra/utils/digest\utils_sha256.c ****         h = g;
 340              		.loc 1 175 9 is_stmt 1 discriminator 1
 176:C:/Users/stapi/OneDrive/Desktop/GD32VW553/V1_MQTT_OK/GD32VW55X_Wifi_BLE_SDK/GD32VW55x_RELEASE_V1.0.2/MSDK/cloud/alicloud/src/infra/utils/digest\utils_sha256.c ****         g = f;
 341              		.loc 1 176 9 discriminator 1
 177:C:/Users/stapi/OneDrive/Desktop/GD32VW553/V1_MQTT_OK/GD32VW55X_Wifi_BLE_SDK/GD32VW55x_RELEASE_V1.0.2/MSDK/cloud/alicloud/src/infra/utils/digest\utils_sha256.c ****         f = e;
 342              		.loc 1 177 9 discriminator 1
 178:C:/Users/stapi/OneDrive/Desktop/GD32VW553/V1_MQTT_OK/GD32VW55X_Wifi_BLE_SDK/GD32VW55x_RELEASE_V1.0.2/MSDK/cloud/alicloud/src/infra/utils/digest\utils_sha256.c ****         e = d + T1;
 343              		.loc 1 178 9 discriminator 1
 179:C:/Users/stapi/OneDrive/Desktop/GD32VW553/V1_MQTT_OK/GD32VW55X_Wifi_BLE_SDK/GD32VW55x_RELEASE_V1.0.2/MSDK/cloud/alicloud/src/infra/utils/digest\utils_sha256.c ****         d = c;
 180:C:/Users/stapi/OneDrive/Desktop/GD32VW553/V1_MQTT_OK/GD32VW55X_Wifi_BLE_SDK/GD32VW55x_RELEASE_V1.0.2/MSDK/cloud/alicloud/src/infra/utils/digest\utils_sha256.c ****         c = b;
 181:C:/Users/stapi/OneDrive/Desktop/GD32VW553/V1_MQTT_OK/GD32VW55X_Wifi_BLE_SDK/GD32VW55x_RELEASE_V1.0.2/MSDK/cloud/alicloud/src/infra/utils/digest\utils_sha256.c ****         b = a;
 182:C:/Users/stapi/OneDrive/Desktop/GD32VW553/V1_MQTT_OK/GD32VW55X_Wifi_BLE_SDK/GD32VW55x_RELEASE_V1.0.2/MSDK/cloud/alicloud/src/infra/utils/digest\utils_sha256.c ****         a = T1 + T2;
 183:C:/Users/stapi/OneDrive/Desktop/GD32VW553/V1_MQTT_OK/GD32VW55X_Wifi_BLE_SDK/GD32VW55x_RELEASE_V1.0.2/MSDK/cloud/alicloud/src/infra/utils/digest\utils_sha256.c **** 
 184:C:/Users/stapi/OneDrive/Desktop/GD32VW553/V1_MQTT_OK/GD32VW55X_Wifi_BLE_SDK/GD32VW55x_RELEASE_V1.0.2/MSDK/cloud/alicloud/src/infra/utils/digest\utils_sha256.c ****         j++;
 185:C:/Users/stapi/OneDrive/Desktop/GD32VW553/V1_MQTT_OK/GD32VW55X_Wifi_BLE_SDK/GD32VW55x_RELEASE_V1.0.2/MSDK/cloud/alicloud/src/infra/utils/digest\utils_sha256.c ****     } while (j < 16);
 344              		.loc 1 185 5 is_stmt 0 discriminator 1
 345 009c 110C     		addi	s8,s8,4
 346              	.LVL28:
 347 009e 93060004 		li	a3,64
 178:C:/Users/stapi/OneDrive/Desktop/GD32VW553/V1_MQTT_OK/GD32VW55X_Wifi_BLE_SDK/GD32VW55x_RELEASE_V1.0.2/MSDK/cloud/alicloud/src/infra/utils/digest\utils_sha256.c ****         e = d + T1;
 348              		.loc 1 178 11 discriminator 1
 349 00a2 3386FD00 		add	a2,s11,a5
 350              	.LVL29:
 179:C:/Users/stapi/OneDrive/Desktop/GD32VW553/V1_MQTT_OK/GD32VW55X_Wifi_BLE_SDK/GD32VW55x_RELEASE_V1.0.2/MSDK/cloud/alicloud/src/infra/utils/digest\utils_sha256.c ****         d = c;
 351              		.loc 1 179 9 is_stmt 1 discriminator 1
 180:C:/Users/stapi/OneDrive/Desktop/GD32VW553/V1_MQTT_OK/GD32VW55X_Wifi_BLE_SDK/GD32VW55x_RELEASE_V1.0.2/MSDK/cloud/alicloud/src/infra/utils/digest\utils_sha256.c ****         b = a;
 352              		.loc 1 180 9 discriminator 1
 181:C:/Users/stapi/OneDrive/Desktop/GD32VW553/V1_MQTT_OK/GD32VW55X_Wifi_BLE_SDK/GD32VW55x_RELEASE_V1.0.2/MSDK/cloud/alicloud/src/infra/utils/digest\utils_sha256.c ****         a = T1 + T2;
 353              		.loc 1 181 9 discriminator 1
 182:C:/Users/stapi/OneDrive/Desktop/GD32VW553/V1_MQTT_OK/GD32VW55X_Wifi_BLE_SDK/GD32VW55x_RELEASE_V1.0.2/MSDK/cloud/alicloud/src/infra/utils/digest\utils_sha256.c **** 
 354              		.loc 1 182 9 discriminator 1
 182:C:/Users/stapi/OneDrive/Desktop/GD32VW553/V1_MQTT_OK/GD32VW55X_Wifi_BLE_SDK/GD32VW55x_RELEASE_V1.0.2/MSDK/cloud/alicloud/src/infra/utils/digest\utils_sha256.c **** 
 355              		.loc 1 182 11 is_stmt 0 discriminator 1
 356 00a6 BA97     		add	a5,a5,a4
 357              	.LVL30:
 184:C:/Users/stapi/OneDrive/Desktop/GD32VW553/V1_MQTT_OK/GD32VW55X_Wifi_BLE_SDK/GD32VW55x_RELEASE_V1.0.2/MSDK/cloud/alicloud/src/infra/utils/digest\utils_sha256.c ****     } while (j < 16);
 358              		.loc 1 184 9 is_stmt 1 discriminator 1
 359              		.loc 1 185 13 discriminator 1
 360 00a8 D68D     		mv	s11,s5
 361 00aa 5E87     		mv	a4,s7
 362              	.LVL31:
 363              		.loc 1 185 5 is_stmt 0 discriminator 1
 364 00ac 631DDC10 		bne	s8,a3,.L30
 365              	.LVL32:
 366 00b0 E685     		mv	a1,s9
 367              	.LVL33:
 184:C:/Users/stapi/OneDrive/Desktop/GD32VW553/V1_MQTT_OK/GD32VW55X_Wifi_BLE_SDK/GD32VW55x_RELEASE_V1.0.2/MSDK/cloud/alicloud/src/infra/utils/digest\utils_sha256.c ****     } while (j < 16);
 368              		.loc 1 184 10
 369 00b2 4145     		li	a0,16
 370              	.LVL34:
 186:C:/Users/stapi/OneDrive/Desktop/GD32VW553/V1_MQTT_OK/GD32VW55X_Wifi_BLE_SDK/GD32VW55x_RELEASE_V1.0.2/MSDK/cloud/alicloud/src/infra/utils/digest\utils_sha256.c **** 
 187:C:/Users/stapi/OneDrive/Desktop/GD32VW553/V1_MQTT_OK/GD32VW55X_Wifi_BLE_SDK/GD32VW55x_RELEASE_V1.0.2/MSDK/cloud/alicloud/src/infra/utils/digest\utils_sha256.c ****     do {
 188:C:/Users/stapi/OneDrive/Desktop/GD32VW553/V1_MQTT_OK/GD32VW55X_Wifi_BLE_SDK/GD32VW55x_RELEASE_V1.0.2/MSDK/cloud/alicloud/src/infra/utils/digest\utils_sha256.c ****         /* Part of the message block expansion: */
 189:C:/Users/stapi/OneDrive/Desktop/GD32VW553/V1_MQTT_OK/GD32VW55X_Wifi_BLE_SDK/GD32VW55x_RELEASE_V1.0.2/MSDK/cloud/alicloud/src/infra/utils/digest\utils_sha256.c ****         s0 = W256[(j + 1) & 0x0f];
 190:C:/Users/stapi/OneDrive/Desktop/GD32VW553/V1_MQTT_OK/GD32VW55X_Wifi_BLE_SDK/GD32VW55x_RELEASE_V1.0.2/MSDK/cloud/alicloud/src/infra/utils/digest\utils_sha256.c ****         s0 = sigma0_256(s0);
 371              		.loc 1 190 14
 372 00b4 394F     		li	t5,14
 191:C:/Users/stapi/OneDrive/Desktop/GD32VW553/V1_MQTT_OK/GD32VW55X_Wifi_BLE_SDK/GD32VW55x_RELEASE_V1.0.2/MSDK/cloud/alicloud/src/infra/utils/digest\utils_sha256.c ****         s1 = W256[(j + 14) & 0x0f];
 192:C:/Users/stapi/OneDrive/Desktop/GD32VW553/V1_MQTT_OK/GD32VW55X_Wifi_BLE_SDK/GD32VW55x_RELEASE_V1.0.2/MSDK/cloud/alicloud/src/infra/utils/digest\utils_sha256.c ****         s1 = sigma1_256(s1);
 373              		.loc 1 192 14
 374 00b6 BD4E     		li	t4,15
 375 00b8 354E     		li	t3,13
 193:C:/Users/stapi/OneDrive/Desktop/GD32VW553/V1_MQTT_OK/GD32VW55X_Wifi_BLE_SDK/GD32VW55x_RELEASE_V1.0.2/MSDK/cloud/alicloud/src/infra/utils/digest\utils_sha256.c **** 
 194:C:/Users/stapi/OneDrive/Desktop/GD32VW553/V1_MQTT_OK/GD32VW55X_Wifi_BLE_SDK/GD32VW55x_RELEASE_V1.0.2/MSDK/cloud/alicloud/src/infra/utils/digest\utils_sha256.c ****         /* Apply the SHA-256 compression function to update a..h */
 195:C:/Users/stapi/OneDrive/Desktop/GD32VW553/V1_MQTT_OK/GD32VW55X_Wifi_BLE_SDK/GD32VW55x_RELEASE_V1.0.2/MSDK/cloud/alicloud/src/infra/utils/digest\utils_sha256.c ****         T1 = h + Sigma1_256(e) + Ch(e, f, g) + K256[j] + (W256[j & 0x0f] += s1 + W256[(j + 9) & 0x0
 376              		.loc 1 195 18
 377 00ba 1D43     		li	t1,7
 196:C:/Users/stapi/OneDrive/Desktop/GD32VW553/V1_MQTT_OK/GD32VW55X_Wifi_BLE_SDK/GD32VW55x_RELEASE_V1.0.2/MSDK/cloud/alicloud/src/infra/utils/digest\utils_sha256.c ****         T2 = Sigma0_256(a) + Maj(a, b, c);
 378              		.loc 1 196 14
 379 00bc A948     		li	a7,10
 380              	.LVL35:
 197:C:/Users/stapi/OneDrive/Desktop/GD32VW553/V1_MQTT_OK/GD32VW55X_Wifi_BLE_SDK/GD32VW55x_RELEASE_V1.0.2/MSDK/cloud/alicloud/src/infra/utils/digest\utils_sha256.c ****         h = g;
 198:C:/Users/stapi/OneDrive/Desktop/GD32VW553/V1_MQTT_OK/GD32VW55X_Wifi_BLE_SDK/GD32VW55x_RELEASE_V1.0.2/MSDK/cloud/alicloud/src/infra/utils/digest\utils_sha256.c ****         g = f;
 199:C:/Users/stapi/OneDrive/Desktop/GD32VW553/V1_MQTT_OK/GD32VW55X_Wifi_BLE_SDK/GD32VW55x_RELEASE_V1.0.2/MSDK/cloud/alicloud/src/infra/utils/digest\utils_sha256.c ****         f = e;
 200:C:/Users/stapi/OneDrive/Desktop/GD32VW553/V1_MQTT_OK/GD32VW55X_Wifi_BLE_SDK/GD32VW55x_RELEASE_V1.0.2/MSDK/cloud/alicloud/src/infra/utils/digest\utils_sha256.c ****         e = d + T1;
 201:C:/Users/stapi/OneDrive/Desktop/GD32VW553/V1_MQTT_OK/GD32VW55X_Wifi_BLE_SDK/GD32VW55x_RELEASE_V1.0.2/MSDK/cloud/alicloud/src/infra/utils/digest\utils_sha256.c ****         d = c;
 202:C:/Users/stapi/OneDrive/Desktop/GD32VW553/V1_MQTT_OK/GD32VW55X_Wifi_BLE_SDK/GD32VW55x_RELEASE_V1.0.2/MSDK/cloud/alicloud/src/infra/utils/digest\utils_sha256.c ****         c = b;
 203:C:/Users/stapi/OneDrive/Desktop/GD32VW553/V1_MQTT_OK/GD32VW55X_Wifi_BLE_SDK/GD32VW55x_RELEASE_V1.0.2/MSDK/cloud/alicloud/src/infra/utils/digest\utils_sha256.c ****         b = a;
 204:C:/Users/stapi/OneDrive/Desktop/GD32VW553/V1_MQTT_OK/GD32VW55X_Wifi_BLE_SDK/GD32VW55x_RELEASE_V1.0.2/MSDK/cloud/alicloud/src/infra/utils/digest\utils_sha256.c ****         a = T1 + T2;
 205:C:/Users/stapi/OneDrive/Desktop/GD32VW553/V1_MQTT_OK/GD32VW55X_Wifi_BLE_SDK/GD32VW55x_RELEASE_V1.0.2/MSDK/cloud/alicloud/src/infra/utils/digest\utils_sha256.c **** 
 206:C:/Users/stapi/OneDrive/Desktop/GD32VW553/V1_MQTT_OK/GD32VW55X_Wifi_BLE_SDK/GD32VW55x_RELEASE_V1.0.2/MSDK/cloud/alicloud/src/infra/utils/digest\utils_sha256.c ****         j++;
 207:C:/Users/stapi/OneDrive/Desktop/GD32VW553/V1_MQTT_OK/GD32VW55X_Wifi_BLE_SDK/GD32VW55x_RELEASE_V1.0.2/MSDK/cloud/alicloud/src/infra/utils/digest\utils_sha256.c ****     } while (j < 64);
 381              		.loc 1 207 5
 382 00be 13080004 		li	a6,64
 383              	.LVL36:
 384              	.L29:
 187:C:/Users/stapi/OneDrive/Desktop/GD32VW553/V1_MQTT_OK/GD32VW55X_Wifi_BLE_SDK/GD32VW55x_RELEASE_V1.0.2/MSDK/cloud/alicloud/src/infra/utils/digest\utils_sha256.c ****         /* Part of the message block expansion: */
 385              		.loc 1 187 5 is_stmt 1 discriminator 1
 189:C:/Users/stapi/OneDrive/Desktop/GD32VW553/V1_MQTT_OK/GD32VW55X_Wifi_BLE_SDK/GD32VW55x_RELEASE_V1.0.2/MSDK/cloud/alicloud/src/infra/utils/digest\utils_sha256.c ****         s0 = sigma0_256(s0);
 386              		.loc 1 189 9 discriminator 1
 387 00c2 2A87     		mv	a4,a0
 189:C:/Users/stapi/OneDrive/Desktop/GD32VW553/V1_MQTT_OK/GD32VW55X_Wifi_BLE_SDK/GD32VW55x_RELEASE_V1.0.2/MSDK/cloud/alicloud/src/infra/utils/digest\utils_sha256.c ****         s0 = sigma0_256(s0);
 388              		.loc 1 189 22 is_stmt 0 discriminator 1
 389 00c4 0505     		addi	a0,a0,1
 390              	.LVL37:
 189:C:/Users/stapi/OneDrive/Desktop/GD32VW553/V1_MQTT_OK/GD32VW55X_Wifi_BLE_SDK/GD32VW55x_RELEASE_V1.0.2/MSDK/cloud/alicloud/src/infra/utils/digest\utils_sha256.c ****         s0 = sigma0_256(s0);
 391              		.loc 1 189 27 discriminator 1
 392 00c6 9376F500 		andi	a3,a0,15
 189:C:/Users/stapi/OneDrive/Desktop/GD32VW553/V1_MQTT_OK/GD32VW55X_Wifi_BLE_SDK/GD32VW55x_RELEASE_V1.0.2/MSDK/cloud/alicloud/src/infra/utils/digest\utils_sha256.c ****         s0 = sigma0_256(s0);
 393              		.loc 1 189 12 discriminator 1
 394 00ca B3C66621 		sh2add	a3,a3,s6
 395 00ce 83AC0600 		lw	s9,0(a3)
 396              	.LVL38:
 190:C:/Users/stapi/OneDrive/Desktop/GD32VW553/V1_MQTT_OK/GD32VW55X_Wifi_BLE_SDK/GD32VW55x_RELEASE_V1.0.2/MSDK/cloud/alicloud/src/infra/utils/digest\utils_sha256.c ****         s1 = W256[(j + 14) & 0x0f];
 397              		.loc 1 190 9 is_stmt 1 discriminator 1
 195:C:/Users/stapi/OneDrive/Desktop/GD32VW553/V1_MQTT_OK/GD32VW55X_Wifi_BLE_SDK/GD32VW55x_RELEASE_V1.0.2/MSDK/cloud/alicloud/src/infra/utils/digest\utils_sha256.c ****         T2 = Sigma0_256(a) + Maj(a, b, c);
 398              		.loc 1 195 74 is_stmt 0 discriminator 1
 399 00d2 937FF700 		andi	t6,a4,15
 400 00d6 B3CF6F21 		sh2add	t6,t6,s6
 190:C:/Users/stapi/OneDrive/Desktop/GD32VW553/V1_MQTT_OK/GD32VW55X_Wifi_BLE_SDK/GD32VW55x_RELEASE_V1.0.2/MSDK/cloud/alicloud/src/infra/utils/digest\utils_sha256.c ****         s1 = W256[(j + 14) & 0x0f];
 401              		.loc 1 190 14 discriminator 1
 402 00da B396EC61 		rol	a3,s9,t5
 403 00de 13DC7C60 		rori	s8,s9,7
 404 00e2 334CDC00 		xor	s8,s8,a3
 191:C:/Users/stapi/OneDrive/Desktop/GD32VW553/V1_MQTT_OK/GD32VW55X_Wifi_BLE_SDK/GD32VW55x_RELEASE_V1.0.2/MSDK/cloud/alicloud/src/infra/utils/digest\utils_sha256.c ****         s1 = sigma1_256(s1);
 405              		.loc 1 191 28 discriminator 1
 406 00e6 9306E700 		addi	a3,a4,14
 407 00ea BD8A     		andi	a3,a3,15
 191:C:/Users/stapi/OneDrive/Desktop/GD32VW553/V1_MQTT_OK/GD32VW55X_Wifi_BLE_SDK/GD32VW55x_RELEASE_V1.0.2/MSDK/cloud/alicloud/src/infra/utils/digest\utils_sha256.c ****         s1 = sigma1_256(s1);
 408              		.loc 1 191 12 discriminator 1
 409 00ec B3C66621 		sh2add	a3,a3,s6
 410 00f0 83A30600 		lw	t2,0(a3)
 195:C:/Users/stapi/OneDrive/Desktop/GD32VW553/V1_MQTT_OK/GD32VW55X_Wifi_BLE_SDK/GD32VW55x_RELEASE_V1.0.2/MSDK/cloud/alicloud/src/infra/utils/digest\utils_sha256.c ****         T2 = Sigma0_256(a) + Maj(a, b, c);
 411              		.loc 1 195 95 discriminator 1
 412 00f4 2507     		addi	a4,a4,9
 413              	.LVL39:
 414 00f6 3D8B     		andi	a4,a4,15
 415              	.LVL40:
 192:C:/Users/stapi/OneDrive/Desktop/GD32VW553/V1_MQTT_OK/GD32VW55X_Wifi_BLE_SDK/GD32VW55x_RELEASE_V1.0.2/MSDK/cloud/alicloud/src/infra/utils/digest\utils_sha256.c **** 
 416              		.loc 1 192 14 discriminator 1
 417 00f8 B392D361 		rol	t0,t2,t4
 195:C:/Users/stapi/OneDrive/Desktop/GD32VW553/V1_MQTT_OK/GD32VW55X_Wifi_BLE_SDK/GD32VW55x_RELEASE_V1.0.2/MSDK/cloud/alicloud/src/infra/utils/digest\utils_sha256.c ****         T2 = Sigma0_256(a) + Maj(a, b, c);
 418              		.loc 1 195 86 discriminator 1
 419 00fc 33476721 		sh2add	a4,a4,s6
 192:C:/Users/stapi/OneDrive/Desktop/GD32VW553/V1_MQTT_OK/GD32VW55X_Wifi_BLE_SDK/GD32VW55x_RELEASE_V1.0.2/MSDK/cloud/alicloud/src/infra/utils/digest\utils_sha256.c **** 
 420              		.loc 1 192 14 discriminator 1
 421 0100 B396C361 		rol	a3,t2,t3
 422 0104 B3C6D200 		xor	a3,t0,a3
 195:C:/Users/stapi/OneDrive/Desktop/GD32VW553/V1_MQTT_OK/GD32VW55X_Wifi_BLE_SDK/GD32VW55x_RELEASE_V1.0.2/MSDK/cloud/alicloud/src/infra/utils/digest\utils_sha256.c ****         T2 = Sigma0_256(a) + Maj(a, b, c);
 423              		.loc 1 195 74 discriminator 1
 424 0108 83220700 		lw	t0,0(a4)
 425 010c 03A70F00 		lw	a4,0(t6)
 190:C:/Users/stapi/OneDrive/Desktop/GD32VW553/V1_MQTT_OK/GD32VW55X_Wifi_BLE_SDK/GD32VW55x_RELEASE_V1.0.2/MSDK/cloud/alicloud/src/infra/utils/digest\utils_sha256.c ****         s1 = W256[(j + 14) & 0x0f];
 426              		.loc 1 190 14 discriminator 1
 427 0110 93DC3C00 		srli	s9,s9,3
 428              	.LVL41:
 191:C:/Users/stapi/OneDrive/Desktop/GD32VW553/V1_MQTT_OK/GD32VW55X_Wifi_BLE_SDK/GD32VW55x_RELEASE_V1.0.2/MSDK/cloud/alicloud/src/infra/utils/digest\utils_sha256.c ****         s1 = sigma1_256(s1);
 429              		.loc 1 191 9 is_stmt 1 discriminator 1
 192:C:/Users/stapi/OneDrive/Desktop/GD32VW553/V1_MQTT_OK/GD32VW55X_Wifi_BLE_SDK/GD32VW55x_RELEASE_V1.0.2/MSDK/cloud/alicloud/src/infra/utils/digest\utils_sha256.c **** 
 430              		.loc 1 192 9 discriminator 1
 192:C:/Users/stapi/OneDrive/Desktop/GD32VW553/V1_MQTT_OK/GD32VW55X_Wifi_BLE_SDK/GD32VW55x_RELEASE_V1.0.2/MSDK/cloud/alicloud/src/infra/utils/digest\utils_sha256.c **** 
 431              		.loc 1 192 14 is_stmt 0 discriminator 1
 432 0114 93D3A300 		srli	t2,t2,10
 433              	.LVL42:
 195:C:/Users/stapi/OneDrive/Desktop/GD32VW553/V1_MQTT_OK/GD32VW55X_Wifi_BLE_SDK/GD32VW55x_RELEASE_V1.0.2/MSDK/cloud/alicloud/src/infra/utils/digest\utils_sha256.c ****         T2 = Sigma0_256(a) + Maj(a, b, c);
 434              		.loc 1 195 9 is_stmt 1 discriminator 1
 195:C:/Users/stapi/OneDrive/Desktop/GD32VW553/V1_MQTT_OK/GD32VW55X_Wifi_BLE_SDK/GD32VW55x_RELEASE_V1.0.2/MSDK/cloud/alicloud/src/infra/utils/digest\utils_sha256.c ****         T2 = Sigma0_256(a) + Maj(a, b, c);
 435              		.loc 1 195 74 is_stmt 0 discriminator 1
 436 0118 BA92     		add	t0,t0,a4
 190:C:/Users/stapi/OneDrive/Desktop/GD32VW553/V1_MQTT_OK/GD32VW55X_Wifi_BLE_SDK/GD32VW55x_RELEASE_V1.0.2/MSDK/cloud/alicloud/src/infra/utils/digest\utils_sha256.c ****         s1 = W256[(j + 14) & 0x0f];
 437              		.loc 1 190 12 discriminator 1
 438 011a 334C9C01 		xor	s8,s8,s9
 439              	.LVL43:
 192:C:/Users/stapi/OneDrive/Desktop/GD32VW553/V1_MQTT_OK/GD32VW55X_Wifi_BLE_SDK/GD32VW55x_RELEASE_V1.0.2/MSDK/cloud/alicloud/src/infra/utils/digest\utils_sha256.c **** 
 440              		.loc 1 192 12 discriminator 1
 441 011e B3C67600 		xor	a3,a3,t2
 442              	.LVL44:
 195:C:/Users/stapi/OneDrive/Desktop/GD32VW553/V1_MQTT_OK/GD32VW55X_Wifi_BLE_SDK/GD32VW55x_RELEASE_V1.0.2/MSDK/cloud/alicloud/src/infra/utils/digest\utils_sha256.c ****         T2 = Sigma0_256(a) + Maj(a, b, c);
 443              		.loc 1 195 74 discriminator 1
 444 0122 E292     		add	t0,t0,s8
 445 0124 B692     		add	t0,t0,a3
 195:C:/Users/stapi/OneDrive/Desktop/GD32VW553/V1_MQTT_OK/GD32VW55X_Wifi_BLE_SDK/GD32VW55x_RELEASE_V1.0.2/MSDK/cloud/alicloud/src/infra/utils/digest\utils_sha256.c ****         T2 = Sigma0_256(a) + Maj(a, b, c);
 446              		.loc 1 195 18 discriminator 1
 447 0126 9356B660 		rori	a3,a2,11
 448              	.LVL45:
 449 012a 13576660 		rori	a4,a2,6
 450 012e 358F     		xor	a4,a4,a3
 451 0130 B3166660 		rol	a3,a2,t1
 452 0134 358F     		xor	a4,a4,a3
 453 0136 B441     		lw	a3,64(a1)
 195:C:/Users/stapi/OneDrive/Desktop/GD32VW553/V1_MQTT_OK/GD32VW55X_Wifi_BLE_SDK/GD32VW55x_RELEASE_V1.0.2/MSDK/cloud/alicloud/src/infra/utils/digest\utils_sha256.c ****         T2 = Sigma0_256(a) + Maj(a, b, c);
 454              		.loc 1 195 34 discriminator 1
 455 0138 B3739600 		and	t2,a2,s1
 456              	.LVL46:
 195:C:/Users/stapi/OneDrive/Desktop/GD32VW553/V1_MQTT_OK/GD32VW55X_Wifi_BLE_SDK/GD32VW55x_RELEASE_V1.0.2/MSDK/cloud/alicloud/src/infra/utils/digest\utils_sha256.c ****         T2 = Sigma0_256(a) + Maj(a, b, c);
 457              		.loc 1 195 74 discriminator 1
 458 013c 23A05F00 		sw	t0,0(t6)
 459              	.LVL47:
 460 0140 9696     		add	a3,t0,a3
 461 0142 BA96     		add	a3,a4,a3
 196:C:/Users/stapi/OneDrive/Desktop/GD32VW553/V1_MQTT_OK/GD32VW55X_Wifi_BLE_SDK/GD32VW55x_RELEASE_V1.0.2/MSDK/cloud/alicloud/src/infra/utils/digest\utils_sha256.c ****         h = g;
 462              		.loc 1 196 14 discriminator 1
 463 0144 93DFD760 		rori	t6,a5,13
 195:C:/Users/stapi/OneDrive/Desktop/GD32VW553/V1_MQTT_OK/GD32VW55X_Wifi_BLE_SDK/GD32VW55x_RELEASE_V1.0.2/MSDK/cloud/alicloud/src/infra/utils/digest\utils_sha256.c ****         T2 = Sigma0_256(a) + Maj(a, b, c);
 464              		.loc 1 195 34 discriminator 1
 465 0148 3377CA40 		andn	a4,s4,a2
 466 014c 33477700 		xor	a4,a4,t2
 467 0150 3697     		add	a4,a3,a4
 196:C:/Users/stapi/OneDrive/Desktop/GD32VW553/V1_MQTT_OK/GD32VW55X_Wifi_BLE_SDK/GD32VW55x_RELEASE_V1.0.2/MSDK/cloud/alicloud/src/infra/utils/digest\utils_sha256.c ****         h = g;
 468              		.loc 1 196 14 discriminator 1
 469 0152 93D62760 		rori	a3,a5,2
 470 0156 B3C6F601 		xor	a3,a3,t6
 471 015a B39F1761 		rol	t6,a5,a7
 472 015e B3C6F601 		xor	a3,a3,t6
 196:C:/Users/stapi/OneDrive/Desktop/GD32VW553/V1_MQTT_OK/GD32VW55X_Wifi_BLE_SDK/GD32VW55x_RELEASE_V1.0.2/MSDK/cloud/alicloud/src/infra/utils/digest\utils_sha256.c ****         h = g;
 473              		.loc 1 196 30 discriminator 1
 474 0162 B34F3901 		xor	t6,s2,s3
 475 0166 B3FFFF00 		and	t6,t6,a5
 476 016a B3723901 		and	t0,s2,s3
 477 016e B3CF5F00 		xor	t6,t6,t0
 195:C:/Users/stapi/OneDrive/Desktop/GD32VW553/V1_MQTT_OK/GD32VW55X_Wifi_BLE_SDK/GD32VW55x_RELEASE_V1.0.2/MSDK/cloud/alicloud/src/infra/utils/digest\utils_sha256.c ****         T2 = Sigma0_256(a) + Maj(a, b, c);
 478              		.loc 1 195 12 discriminator 1
 479 0172 5E97     		add	a4,s7,a4
 480              	.LVL48:
 196:C:/Users/stapi/OneDrive/Desktop/GD32VW553/V1_MQTT_OK/GD32VW55X_Wifi_BLE_SDK/GD32VW55x_RELEASE_V1.0.2/MSDK/cloud/alicloud/src/infra/utils/digest\utils_sha256.c ****         h = g;
 481              		.loc 1 196 9 is_stmt 1 discriminator 1
 196:C:/Users/stapi/OneDrive/Desktop/GD32VW553/V1_MQTT_OK/GD32VW55X_Wifi_BLE_SDK/GD32VW55x_RELEASE_V1.0.2/MSDK/cloud/alicloud/src/infra/utils/digest\utils_sha256.c ****         h = g;
 482              		.loc 1 196 12 is_stmt 0 discriminator 1
 483 0174 FE96     		add	a3,a3,t6
 484              	.LVL49:
 197:C:/Users/stapi/OneDrive/Desktop/GD32VW553/V1_MQTT_OK/GD32VW55X_Wifi_BLE_SDK/GD32VW55x_RELEASE_V1.0.2/MSDK/cloud/alicloud/src/infra/utils/digest\utils_sha256.c ****         g = f;
 485              		.loc 1 197 9 is_stmt 1 discriminator 1
 198:C:/Users/stapi/OneDrive/Desktop/GD32VW553/V1_MQTT_OK/GD32VW55X_Wifi_BLE_SDK/GD32VW55x_RELEASE_V1.0.2/MSDK/cloud/alicloud/src/infra/utils/digest\utils_sha256.c ****         f = e;
 486              		.loc 1 198 9 discriminator 1
 199:C:/Users/stapi/OneDrive/Desktop/GD32VW553/V1_MQTT_OK/GD32VW55X_Wifi_BLE_SDK/GD32VW55x_RELEASE_V1.0.2/MSDK/cloud/alicloud/src/infra/utils/digest\utils_sha256.c ****         e = d + T1;
 487              		.loc 1 199 9 discriminator 1
 200:C:/Users/stapi/OneDrive/Desktop/GD32VW553/V1_MQTT_OK/GD32VW55X_Wifi_BLE_SDK/GD32VW55x_RELEASE_V1.0.2/MSDK/cloud/alicloud/src/infra/utils/digest\utils_sha256.c ****         d = c;
 488              		.loc 1 200 9 discriminator 1
 204:C:/Users/stapi/OneDrive/Desktop/GD32VW553/V1_MQTT_OK/GD32VW55X_Wifi_BLE_SDK/GD32VW55x_RELEASE_V1.0.2/MSDK/cloud/alicloud/src/infra/utils/digest\utils_sha256.c **** 
 489              		.loc 1 204 11 is_stmt 0 discriminator 1
 490 0176 BA96     		add	a3,a4,a3
 491              	.LVL50:
 200:C:/Users/stapi/OneDrive/Desktop/GD32VW553/V1_MQTT_OK/GD32VW55X_Wifi_BLE_SDK/GD32VW55x_RELEASE_V1.0.2/MSDK/cloud/alicloud/src/infra/utils/digest\utils_sha256.c ****         d = c;
 492              		.loc 1 200 11 discriminator 1
 493 0178 B38FEA00 		add	t6,s5,a4
 494              	.LVL51:
 201:C:/Users/stapi/OneDrive/Desktop/GD32VW553/V1_MQTT_OK/GD32VW55X_Wifi_BLE_SDK/GD32VW55x_RELEASE_V1.0.2/MSDK/cloud/alicloud/src/infra/utils/digest\utils_sha256.c ****         c = b;
 495              		.loc 1 201 9 is_stmt 1 discriminator 1
 202:C:/Users/stapi/OneDrive/Desktop/GD32VW553/V1_MQTT_OK/GD32VW55X_Wifi_BLE_SDK/GD32VW55x_RELEASE_V1.0.2/MSDK/cloud/alicloud/src/infra/utils/digest\utils_sha256.c ****         b = a;
 496              		.loc 1 202 9 discriminator 1
 203:C:/Users/stapi/OneDrive/Desktop/GD32VW553/V1_MQTT_OK/GD32VW55X_Wifi_BLE_SDK/GD32VW55x_RELEASE_V1.0.2/MSDK/cloud/alicloud/src/infra/utils/digest\utils_sha256.c ****         a = T1 + T2;
 497              		.loc 1 203 9 discriminator 1
 204:C:/Users/stapi/OneDrive/Desktop/GD32VW553/V1_MQTT_OK/GD32VW55X_Wifi_BLE_SDK/GD32VW55x_RELEASE_V1.0.2/MSDK/cloud/alicloud/src/infra/utils/digest\utils_sha256.c **** 
 498              		.loc 1 204 9 discriminator 1
 206:C:/Users/stapi/OneDrive/Desktop/GD32VW553/V1_MQTT_OK/GD32VW55X_Wifi_BLE_SDK/GD32VW55x_RELEASE_V1.0.2/MSDK/cloud/alicloud/src/infra/utils/digest\utils_sha256.c ****     } while (j < 64);
 499              		.loc 1 206 9 discriminator 1
 500              		.loc 1 207 13 discriminator 1
 501              		.loc 1 207 5 is_stmt 0 discriminator 1
 502 017c 9105     		addi	a1,a1,4
 503 017e CE8A     		mv	s5,s3
 504 0180 D28B     		mv	s7,s4
 505 0182 63190505 		bne	a0,a6,.L31
 208:C:/Users/stapi/OneDrive/Desktop/GD32VW553/V1_MQTT_OK/GD32VW55X_Wifi_BLE_SDK/GD32VW55x_RELEASE_V1.0.2/MSDK/cloud/alicloud/src/infra/utils/digest\utils_sha256.c **** 
 209:C:/Users/stapi/OneDrive/Desktop/GD32VW553/V1_MQTT_OK/GD32VW55X_Wifi_BLE_SDK/GD32VW55x_RELEASE_V1.0.2/MSDK/cloud/alicloud/src/infra/utils/digest\utils_sha256.c ****     /* Compute the current intermediate hash value */
 210:C:/Users/stapi/OneDrive/Desktop/GD32VW553/V1_MQTT_OK/GD32VW55X_Wifi_BLE_SDK/GD32VW55x_RELEASE_V1.0.2/MSDK/cloud/alicloud/src/infra/utils/digest\utils_sha256.c ****     ctx->state[0] += a;
 506              		.loc 1 210 5 is_stmt 1
 507              		.loc 1 210 19 is_stmt 0
 508 0186 1840     		lw	a4,0(s0)
 509              	.LVL52:
 510 0188 BA96     		add	a3,a4,a3
 511              	.LVL53:
 211:C:/Users/stapi/OneDrive/Desktop/GD32VW553/V1_MQTT_OK/GD32VW55X_Wifi_BLE_SDK/GD32VW55x_RELEASE_V1.0.2/MSDK/cloud/alicloud/src/infra/utils/digest\utils_sha256.c ****     ctx->state[1] += b;
 512              		.loc 1 211 19
 513 018a 5840     		lw	a4,4(s0)
 210:C:/Users/stapi/OneDrive/Desktop/GD32VW553/V1_MQTT_OK/GD32VW55X_Wifi_BLE_SDK/GD32VW55x_RELEASE_V1.0.2/MSDK/cloud/alicloud/src/infra/utils/digest\utils_sha256.c ****     ctx->state[1] += b;
 514              		.loc 1 210 19
 515 018c 14C0     		sw	a3,0(s0)
 516              		.loc 1 211 5 is_stmt 1
 517              		.loc 1 211 19 is_stmt 0
 518 018e BA97     		add	a5,a4,a5
 519              	.LVL54:
 520 0190 5CC0     		sw	a5,4(s0)
 212:C:/Users/stapi/OneDrive/Desktop/GD32VW553/V1_MQTT_OK/GD32VW55X_Wifi_BLE_SDK/GD32VW55x_RELEASE_V1.0.2/MSDK/cloud/alicloud/src/infra/utils/digest\utils_sha256.c ****     ctx->state[2] += c;
 521              		.loc 1 212 5 is_stmt 1
 213:C:/Users/stapi/OneDrive/Desktop/GD32VW553/V1_MQTT_OK/GD32VW55X_Wifi_BLE_SDK/GD32VW55x_RELEASE_V1.0.2/MSDK/cloud/alicloud/src/infra/utils/digest\utils_sha256.c ****     ctx->state[3] += d;
 214:C:/Users/stapi/OneDrive/Desktop/GD32VW553/V1_MQTT_OK/GD32VW55X_Wifi_BLE_SDK/GD32VW55x_RELEASE_V1.0.2/MSDK/cloud/alicloud/src/infra/utils/digest\utils_sha256.c ****     ctx->state[4] += e;
 522              		.loc 1 214 19 is_stmt 0
 523 0192 1C48     		lw	a5,16(s0)
 212:C:/Users/stapi/OneDrive/Desktop/GD32VW553/V1_MQTT_OK/GD32VW55X_Wifi_BLE_SDK/GD32VW55x_RELEASE_V1.0.2/MSDK/cloud/alicloud/src/infra/utils/digest\utils_sha256.c ****     ctx->state[2] += c;
 524              		.loc 1 212 19
 525 0194 1844     		lw	a4,8(s0)
 526              		.loc 1 214 19
 527 0196 FE97     		add	a5,a5,t6
 528 0198 1CC8     		sw	a5,16(s0)
 215:C:/Users/stapi/OneDrive/Desktop/GD32VW553/V1_MQTT_OK/GD32VW55X_Wifi_BLE_SDK/GD32VW55x_RELEASE_V1.0.2/MSDK/cloud/alicloud/src/infra/utils/digest\utils_sha256.c ****     ctx->state[5] += f;
 529              		.loc 1 215 19
 530 019a 5C48     		lw	a5,20(s0)
 212:C:/Users/stapi/OneDrive/Desktop/GD32VW553/V1_MQTT_OK/GD32VW55X_Wifi_BLE_SDK/GD32VW55x_RELEASE_V1.0.2/MSDK/cloud/alicloud/src/infra/utils/digest\utils_sha256.c ****     ctx->state[2] += c;
 531              		.loc 1 212 19
 532 019c 3A99     		add	s2,a4,s2
 533              	.LVL55:
 213:C:/Users/stapi/OneDrive/Desktop/GD32VW553/V1_MQTT_OK/GD32VW55X_Wifi_BLE_SDK/GD32VW55x_RELEASE_V1.0.2/MSDK/cloud/alicloud/src/infra/utils/digest\utils_sha256.c ****     ctx->state[3] += d;
 534              		.loc 1 213 19
 535 019e 5844     		lw	a4,12(s0)
 536              		.loc 1 215 19
 537 01a0 3E96     		add	a2,a5,a2
 538              	.LVL56:
 216:C:/Users/stapi/OneDrive/Desktop/GD32VW553/V1_MQTT_OK/GD32VW55X_Wifi_BLE_SDK/GD32VW55x_RELEASE_V1.0.2/MSDK/cloud/alicloud/src/infra/utils/digest\utils_sha256.c ****     ctx->state[6] += g;
 539              		.loc 1 216 19
 540 01a2 1C4C     		lw	a5,24(s0)
 213:C:/Users/stapi/OneDrive/Desktop/GD32VW553/V1_MQTT_OK/GD32VW55X_Wifi_BLE_SDK/GD32VW55x_RELEASE_V1.0.2/MSDK/cloud/alicloud/src/infra/utils/digest\utils_sha256.c ****     ctx->state[3] += d;
 541              		.loc 1 213 19
 542 01a4 BA99     		add	s3,a4,s3
 543              	.LVL57:
 212:C:/Users/stapi/OneDrive/Desktop/GD32VW553/V1_MQTT_OK/GD32VW55X_Wifi_BLE_SDK/GD32VW55x_RELEASE_V1.0.2/MSDK/cloud/alicloud/src/infra/utils/digest\utils_sha256.c ****     ctx->state[3] += d;
 544              		.loc 1 212 19
 545 01a6 23242401 		sw	s2,8(s0)
 213:C:/Users/stapi/OneDrive/Desktop/GD32VW553/V1_MQTT_OK/GD32VW55X_Wifi_BLE_SDK/GD32VW55x_RELEASE_V1.0.2/MSDK/cloud/alicloud/src/infra/utils/digest\utils_sha256.c ****     ctx->state[4] += e;
 546              		.loc 1 213 5 is_stmt 1
 547              		.loc 1 216 19 is_stmt 0
 548 01aa BE94     		add	s1,a5,s1
 549              	.LVL58:
 217:C:/Users/stapi/OneDrive/Desktop/GD32VW553/V1_MQTT_OK/GD32VW55X_Wifi_BLE_SDK/GD32VW55x_RELEASE_V1.0.2/MSDK/cloud/alicloud/src/infra/utils/digest\utils_sha256.c ****     ctx->state[7] += h;
 550              		.loc 1 217 19
 551 01ac 5C4C     		lw	a5,28(s0)
 213:C:/Users/stapi/OneDrive/Desktop/GD32VW553/V1_MQTT_OK/GD32VW55X_Wifi_BLE_SDK/GD32VW55x_RELEASE_V1.0.2/MSDK/cloud/alicloud/src/infra/utils/digest\utils_sha256.c ****     ctx->state[4] += e;
 552              		.loc 1 213 19
 553 01ae 23263401 		sw	s3,12(s0)
 214:C:/Users/stapi/OneDrive/Desktop/GD32VW553/V1_MQTT_OK/GD32VW55X_Wifi_BLE_SDK/GD32VW55x_RELEASE_V1.0.2/MSDK/cloud/alicloud/src/infra/utils/digest\utils_sha256.c ****     ctx->state[5] += f;
 554              		.loc 1 214 5 is_stmt 1
 215:C:/Users/stapi/OneDrive/Desktop/GD32VW553/V1_MQTT_OK/GD32VW55X_Wifi_BLE_SDK/GD32VW55x_RELEASE_V1.0.2/MSDK/cloud/alicloud/src/infra/utils/digest\utils_sha256.c ****     ctx->state[6] += g;
 555              		.loc 1 215 5
 215:C:/Users/stapi/OneDrive/Desktop/GD32VW553/V1_MQTT_OK/GD32VW55X_Wifi_BLE_SDK/GD32VW55x_RELEASE_V1.0.2/MSDK/cloud/alicloud/src/infra/utils/digest\utils_sha256.c ****     ctx->state[6] += g;
 556              		.loc 1 215 19 is_stmt 0
 557 01b2 50C8     		sw	a2,20(s0)
 216:C:/Users/stapi/OneDrive/Desktop/GD32VW553/V1_MQTT_OK/GD32VW55X_Wifi_BLE_SDK/GD32VW55x_RELEASE_V1.0.2/MSDK/cloud/alicloud/src/infra/utils/digest\utils_sha256.c ****     ctx->state[7] += h;
 558              		.loc 1 216 5 is_stmt 1
 559              		.loc 1 217 19 is_stmt 0
 560 01b4 3E9A     		add	s4,a5,s4
 561              	.LVL59:
 216:C:/Users/stapi/OneDrive/Desktop/GD32VW553/V1_MQTT_OK/GD32VW55X_Wifi_BLE_SDK/GD32VW55x_RELEASE_V1.0.2/MSDK/cloud/alicloud/src/infra/utils/digest\utils_sha256.c ****     ctx->state[7] += h;
 562              		.loc 1 216 19
 563 01b6 04CC     		sw	s1,24(s0)
 564              		.loc 1 217 5 is_stmt 1
 565              		.loc 1 217 19 is_stmt 0
 566 01b8 232E4401 		sw	s4,28(s0)
 218:C:/Users/stapi/OneDrive/Desktop/GD32VW553/V1_MQTT_OK/GD32VW55X_Wifi_BLE_SDK/GD32VW55x_RELEASE_V1.0.2/MSDK/cloud/alicloud/src/infra/utils/digest\utils_sha256.c **** 
 219:C:/Users/stapi/OneDrive/Desktop/GD32VW553/V1_MQTT_OK/GD32VW55X_Wifi_BLE_SDK/GD32VW55x_RELEASE_V1.0.2/MSDK/cloud/alicloud/src/infra/utils/digest\utils_sha256.c ****     /* Clean up */
 220:C:/Users/stapi/OneDrive/Desktop/GD32VW553/V1_MQTT_OK/GD32VW55X_Wifi_BLE_SDK/GD32VW55x_RELEASE_V1.0.2/MSDK/cloud/alicloud/src/infra/utils/digest\utils_sha256.c ****     a = b = c = d = e = f = g = h = T1 = T2 = 0;
 567              		.loc 1 220 5 is_stmt 1
 568              	.LVL60:
 221:C:/Users/stapi/OneDrive/Desktop/GD32VW553/V1_MQTT_OK/GD32VW55X_Wifi_BLE_SDK/GD32VW55x_RELEASE_V1.0.2/MSDK/cloud/alicloud/src/infra/utils/digest\utils_sha256.c **** }
 569              		.loc 1 221 1 is_stmt 0
 570 01bc 4101     		addi	sp,sp,16
 571              		.cfi_remember_state
 572              		.cfi_def_cfa_offset 0
 573 01be 17030000 		tail	__riscv_restore_12
 573      67000300 
 574              		.cfi_restore 27
 575              		.cfi_restore 26
 576              		.cfi_restore 25
 577              		.cfi_restore 24
 578              		.cfi_restore 23
 579              		.cfi_restore 22
 580              		.cfi_restore 21
 581              		.cfi_restore 20
 582              		.cfi_restore 19
 583              		.cfi_restore 18
 584              		.cfi_restore 9
 585              		.cfi_restore 8
 586              		.cfi_restore 1
 587              		.cfi_def_cfa_offset -64
 588              	.LVL61:
 589              	.L30:
 590              		.cfi_restore_state
 591 01c6 D28B     		mv	s7,s4
 592 01c8 CE8A     		mv	s5,s3
 593              	.LVL62:
 594 01ca 268A     		mv	s4,s1
 595              	.LVL63:
 596 01cc CA89     		mv	s3,s2
 597              	.LVL64:
 178:C:/Users/stapi/OneDrive/Desktop/GD32VW553/V1_MQTT_OK/GD32VW55X_Wifi_BLE_SDK/GD32VW55x_RELEASE_V1.0.2/MSDK/cloud/alicloud/src/infra/utils/digest\utils_sha256.c ****         d = c;
 598              		.loc 1 178 11
 599 01ce B284     		mv	s1,a2
 600              	.LVL65:
 182:C:/Users/stapi/OneDrive/Desktop/GD32VW553/V1_MQTT_OK/GD32VW55X_Wifi_BLE_SDK/GD32VW55x_RELEASE_V1.0.2/MSDK/cloud/alicloud/src/infra/utils/digest\utils_sha256.c **** 
 601              		.loc 1 182 11
 602 01d0 3E89     		mv	s2,a5
 603              	.LVL66:
 604 01d2 9DB5     		j	.L28
 605              	.LVL67:
 606              	.L31:
 607 01d4 268A     		mv	s4,s1
 608              	.LVL68:
 609 01d6 CA89     		mv	s3,s2
 610              	.LVL69:
 611 01d8 B284     		mv	s1,a2
 612              	.LVL70:
 613 01da 3E89     		mv	s2,a5
 614              	.LVL71:
 200:C:/Users/stapi/OneDrive/Desktop/GD32VW553/V1_MQTT_OK/GD32VW55X_Wifi_BLE_SDK/GD32VW55x_RELEASE_V1.0.2/MSDK/cloud/alicloud/src/infra/utils/digest\utils_sha256.c ****         d = c;
 615              		.loc 1 200 11
 616 01dc 7E86     		mv	a2,t6
 617              	.LVL72:
 204:C:/Users/stapi/OneDrive/Desktop/GD32VW553/V1_MQTT_OK/GD32VW55X_Wifi_BLE_SDK/GD32VW55x_RELEASE_V1.0.2/MSDK/cloud/alicloud/src/infra/utils/digest\utils_sha256.c **** 
 618              		.loc 1 204 11
 619 01de B687     		mv	a5,a3
 620              	.LVL73:
 621 01e0 CDB5     		j	.L29
 622              		.cfi_endproc
 623              	.LFE16:
 625              		.section	.text.utils_sha256_update,"ax",@progbits
 626              		.align	1
 627              		.globl	utils_sha256_update
 629              	utils_sha256_update:
 630              	.LFB17:
 222:C:/Users/stapi/OneDrive/Desktop/GD32VW553/V1_MQTT_OK/GD32VW55X_Wifi_BLE_SDK/GD32VW55x_RELEASE_V1.0.2/MSDK/cloud/alicloud/src/infra/utils/digest\utils_sha256.c **** void utils_sha256_update(iot_sha256_context *ctx, const unsigned char *input, size_t ilen)
 223:C:/Users/stapi/OneDrive/Desktop/GD32VW553/V1_MQTT_OK/GD32VW55X_Wifi_BLE_SDK/GD32VW55x_RELEASE_V1.0.2/MSDK/cloud/alicloud/src/infra/utils/digest\utils_sha256.c **** {
 631              		.loc 1 223 1 is_stmt 1
 632              		.cfi_startproc
 633              	.LVL74:
 224:C:/Users/stapi/OneDrive/Desktop/GD32VW553/V1_MQTT_OK/GD32VW55X_Wifi_BLE_SDK/GD32VW55x_RELEASE_V1.0.2/MSDK/cloud/alicloud/src/infra/utils/digest\utils_sha256.c ****     unsigned int freespace, usedspace;
 634              		.loc 1 224 5
 225:C:/Users/stapi/OneDrive/Desktop/GD32VW553/V1_MQTT_OK/GD32VW55X_Wifi_BLE_SDK/GD32VW55x_RELEASE_V1.0.2/MSDK/cloud/alicloud/src/infra/utils/digest\utils_sha256.c **** 
 226:C:/Users/stapi/OneDrive/Desktop/GD32VW553/V1_MQTT_OK/GD32VW55X_Wifi_BLE_SDK/GD32VW55x_RELEASE_V1.0.2/MSDK/cloud/alicloud/src/infra/utils/digest\utils_sha256.c ****     if (ilen == 0) {
 635              		.loc 1 226 5
 636              		.loc 1 226 8 is_stmt 0
 637 0000 61CE     		beq	a2,zero,.L54
 223:C:/Users/stapi/OneDrive/Desktop/GD32VW553/V1_MQTT_OK/GD32VW55X_Wifi_BLE_SDK/GD32VW55x_RELEASE_V1.0.2/MSDK/cloud/alicloud/src/infra/utils/digest\utils_sha256.c ****     unsigned int freespace, usedspace;
 638              		.loc 1 223 1
 639 0002 17030000 		call	t0,__riscv_save_6
 639      E7020300 
 640              		.cfi_offset 21, -28
 641              		.cfi_offset 20, -24
 642              		.cfi_offset 19, -20
 643              		.cfi_offset 18, -16
 644              		.cfi_offset 9, -12
 645              		.cfi_offset 8, -8
 646              		.cfi_offset 1, -4
 647              		.cfi_def_cfa_offset 32
 648 000a 2A84     		mv	s0,a0
 227:C:/Users/stapi/OneDrive/Desktop/GD32VW553/V1_MQTT_OK/GD32VW55X_Wifi_BLE_SDK/GD32VW55x_RELEASE_V1.0.2/MSDK/cloud/alicloud/src/infra/utils/digest\utils_sha256.c ****         /* Calling with no data is valid - we do nothing */
 228:C:/Users/stapi/OneDrive/Desktop/GD32VW553/V1_MQTT_OK/GD32VW55X_Wifi_BLE_SDK/GD32VW55x_RELEASE_V1.0.2/MSDK/cloud/alicloud/src/infra/utils/digest\utils_sha256.c ****         return;
 229:C:/Users/stapi/OneDrive/Desktop/GD32VW553/V1_MQTT_OK/GD32VW55X_Wifi_BLE_SDK/GD32VW55x_RELEASE_V1.0.2/MSDK/cloud/alicloud/src/infra/utils/digest\utils_sha256.c ****     }
 230:C:/Users/stapi/OneDrive/Desktop/GD32VW553/V1_MQTT_OK/GD32VW55X_Wifi_BLE_SDK/GD32VW55x_RELEASE_V1.0.2/MSDK/cloud/alicloud/src/infra/utils/digest\utils_sha256.c **** 
 231:C:/Users/stapi/OneDrive/Desktop/GD32VW553/V1_MQTT_OK/GD32VW55X_Wifi_BLE_SDK/GD32VW55x_RELEASE_V1.0.2/MSDK/cloud/alicloud/src/infra/utils/digest\utils_sha256.c ****     /* Sanity check: */
 232:C:/Users/stapi/OneDrive/Desktop/GD32VW553/V1_MQTT_OK/GD32VW55X_Wifi_BLE_SDK/GD32VW55x_RELEASE_V1.0.2/MSDK/cloud/alicloud/src/infra/utils/digest\utils_sha256.c ****     if (ctx == (iot_sha256_context *) 0 || input == (unsigned char *) 0) {
 649              		.loc 1 232 5 is_stmt 1
 650              		.loc 1 232 8 is_stmt 0
 651 000c 4DC1     		beq	a0,zero,.L33
 652 000e 2E89     		mv	s2,a1
 653              		.loc 1 232 41 discriminator 1
 654 0010 D9CD     		beq	a1,zero,.L33
 655              	.LBB44:
 656              	.LBB45:
 233:C:/Users/stapi/OneDrive/Desktop/GD32VW553/V1_MQTT_OK/GD32VW55X_Wifi_BLE_SDK/GD32VW55x_RELEASE_V1.0.2/MSDK/cloud/alicloud/src/infra/utils/digest\utils_sha256.c ****         return;
 234:C:/Users/stapi/OneDrive/Desktop/GD32VW553/V1_MQTT_OK/GD32VW55X_Wifi_BLE_SDK/GD32VW55x_RELEASE_V1.0.2/MSDK/cloud/alicloud/src/infra/utils/digest\utils_sha256.c ****     }
 235:C:/Users/stapi/OneDrive/Desktop/GD32VW553/V1_MQTT_OK/GD32VW55X_Wifi_BLE_SDK/GD32VW55x_RELEASE_V1.0.2/MSDK/cloud/alicloud/src/infra/utils/digest\utils_sha256.c **** 
 236:C:/Users/stapi/OneDrive/Desktop/GD32VW553/V1_MQTT_OK/GD32VW55X_Wifi_BLE_SDK/GD32VW55x_RELEASE_V1.0.2/MSDK/cloud/alicloud/src/infra/utils/digest\utils_sha256.c ****     usedspace = (ctx->bitcount >> 3) % SHA256_BLOCK_LENGTH;
 657              		.loc 1 236 32
 658 0012 83290502 		lw	s3,32(a0)
 659 0016 B284     		mv	s1,a2
 660              	.LVL75:
 661              		.loc 1 236 5 is_stmt 1
 662              		.loc 1 236 32 is_stmt 0
 663 0018 93D93900 		srli	s3,s3,3
 664              		.loc 1 236 15
 665 001c 93F9F903 		andi	s3,s3,63
 666              	.LVL76:
 237:C:/Users/stapi/OneDrive/Desktop/GD32VW553/V1_MQTT_OK/GD32VW55X_Wifi_BLE_SDK/GD32VW55x_RELEASE_V1.0.2/MSDK/cloud/alicloud/src/infra/utils/digest\utils_sha256.c ****     if (usedspace > 0) {
 667              		.loc 1 237 5 is_stmt 1
 668              		.loc 1 237 8 is_stmt 0
 669 0020 63840904 		beq	s3,zero,.L37
 238:C:/Users/stapi/OneDrive/Desktop/GD32VW553/V1_MQTT_OK/GD32VW55X_Wifi_BLE_SDK/GD32VW55x_RELEASE_V1.0.2/MSDK/cloud/alicloud/src/infra/utils/digest\utils_sha256.c ****         /* Calculate how much free space is available in the buffer */
 239:C:/Users/stapi/OneDrive/Desktop/GD32VW553/V1_MQTT_OK/GD32VW55X_Wifi_BLE_SDK/GD32VW55x_RELEASE_V1.0.2/MSDK/cloud/alicloud/src/infra/utils/digest\utils_sha256.c ****         freespace = SHA256_BLOCK_LENGTH - usedspace;
 670              		.loc 1 239 9 is_stmt 1
 671              		.loc 1 239 19 is_stmt 0
 672 0024 130A0004 		li	s4,64
 240:C:/Users/stapi/OneDrive/Desktop/GD32VW553/V1_MQTT_OK/GD32VW55X_Wifi_BLE_SDK/GD32VW55x_RELEASE_V1.0.2/MSDK/cloud/alicloud/src/infra/utils/digest\utils_sha256.c **** 
 241:C:/Users/stapi/OneDrive/Desktop/GD32VW553/V1_MQTT_OK/GD32VW55X_Wifi_BLE_SDK/GD32VW55x_RELEASE_V1.0.2/MSDK/cloud/alicloud/src/infra/utils/digest\utils_sha256.c ****         if (ilen >= freespace) {
 242:C:/Users/stapi/OneDrive/Desktop/GD32VW553/V1_MQTT_OK/GD32VW55X_Wifi_BLE_SDK/GD32VW55x_RELEASE_V1.0.2/MSDK/cloud/alicloud/src/infra/utils/digest\utils_sha256.c ****             /* Fill the buffer completely and process it */
 243:C:/Users/stapi/OneDrive/Desktop/GD32VW553/V1_MQTT_OK/GD32VW55X_Wifi_BLE_SDK/GD32VW55x_RELEASE_V1.0.2/MSDK/cloud/alicloud/src/infra/utils/digest\utils_sha256.c ****             memcpy(&ctx->buffer[usedspace], input, freespace);
 673              		.loc 1 243 20
 674 0028 13858902 		addi	a0,s3,40
 675              	.LVL77:
 239:C:/Users/stapi/OneDrive/Desktop/GD32VW553/V1_MQTT_OK/GD32VW55X_Wifi_BLE_SDK/GD32VW55x_RELEASE_V1.0.2/MSDK/cloud/alicloud/src/infra/utils/digest\utils_sha256.c **** 
 676              		.loc 1 239 19
 677 002c 330A3A41 		sub	s4,s4,s3
 678              	.LVL78:
 241:C:/Users/stapi/OneDrive/Desktop/GD32VW553/V1_MQTT_OK/GD32VW55X_Wifi_BLE_SDK/GD32VW55x_RELEASE_V1.0.2/MSDK/cloud/alicloud/src/infra/utils/digest\utils_sha256.c ****             /* Fill the buffer completely and process it */
 679              		.loc 1 241 9 is_stmt 1
 680              		.loc 1 243 20 is_stmt 0
 681 0030 2295     		add	a0,s0,a0
 241:C:/Users/stapi/OneDrive/Desktop/GD32VW553/V1_MQTT_OK/GD32VW55X_Wifi_BLE_SDK/GD32VW55x_RELEASE_V1.0.2/MSDK/cloud/alicloud/src/infra/utils/digest\utils_sha256.c ****             /* Fill the buffer completely and process it */
 682              		.loc 1 241 12
 683 0032 63614607 		bltu	a2,s4,.L57
 684              		.loc 1 243 13 is_stmt 1
 685 0036 5286     		mv	a2,s4
 686              	.LVL79:
 687 0038 97000000 		call	memcpy
 687      E7800000 
 688              	.LVL80:
 244:C:/Users/stapi/OneDrive/Desktop/GD32VW553/V1_MQTT_OK/GD32VW55X_Wifi_BLE_SDK/GD32VW55x_RELEASE_V1.0.2/MSDK/cloud/alicloud/src/infra/utils/digest\utils_sha256.c ****             ctx->bitcount += freespace << 3;
 689              		.loc 1 244 13
 690              		.loc 1 244 27 is_stmt 0
 691 0040 1C50     		lw	a5,32(s0)
 692 0042 5450     		lw	a3,36(s0)
 245:C:/Users/stapi/OneDrive/Desktop/GD32VW553/V1_MQTT_OK/GD32VW55X_Wifi_BLE_SDK/GD32VW55x_RELEASE_V1.0.2/MSDK/cloud/alicloud/src/infra/utils/digest\utils_sha256.c ****             ilen -= freespace;
 693              		.loc 1 245 18
 694 0044 938404FC 		addi	s1,s1,-64
 695              	.LVL81:
 244:C:/Users/stapi/OneDrive/Desktop/GD32VW553/V1_MQTT_OK/GD32VW55X_Wifi_BLE_SDK/GD32VW55x_RELEASE_V1.0.2/MSDK/cloud/alicloud/src/infra/utils/digest\utils_sha256.c ****             ctx->bitcount += freespace << 3;
 696              		.loc 1 244 27
 697 0048 3367FA20 		sh3add	a4,s4,a5
 698 004c B337F700 		sltu	a5,a4,a5
 699 0050 B697     		add	a5,a5,a3
 700 0052 18D0     		sw	a4,32(s0)
 701 0054 5CD0     		sw	a5,36(s0)
 702              		.loc 1 245 13 is_stmt 1
 246:C:/Users/stapi/OneDrive/Desktop/GD32VW553/V1_MQTT_OK/GD32VW55X_Wifi_BLE_SDK/GD32VW55x_RELEASE_V1.0.2/MSDK/cloud/alicloud/src/infra/utils/digest\utils_sha256.c ****             input += freespace;
 247:C:/Users/stapi/OneDrive/Desktop/GD32VW553/V1_MQTT_OK/GD32VW55X_Wifi_BLE_SDK/GD32VW55x_RELEASE_V1.0.2/MSDK/cloud/alicloud/src/infra/utils/digest\utils_sha256.c ****             utils_sha256_process(ctx, (uint32_t *) ctx->buffer);
 703              		.loc 1 247 13 is_stmt 0
 704 0056 93058402 		addi	a1,s0,40
 705 005a 2285     		mv	a0,s0
 245:C:/Users/stapi/OneDrive/Desktop/GD32VW553/V1_MQTT_OK/GD32VW55X_Wifi_BLE_SDK/GD32VW55x_RELEASE_V1.0.2/MSDK/cloud/alicloud/src/infra/utils/digest\utils_sha256.c ****             ilen -= freespace;
 706              		.loc 1 245 18
 707 005c CE94     		add	s1,s1,s3
 708              	.LVL82:
 246:C:/Users/stapi/OneDrive/Desktop/GD32VW553/V1_MQTT_OK/GD32VW55X_Wifi_BLE_SDK/GD32VW55x_RELEASE_V1.0.2/MSDK/cloud/alicloud/src/infra/utils/digest\utils_sha256.c ****             input += freespace;
 709              		.loc 1 246 13 is_stmt 1
 246:C:/Users/stapi/OneDrive/Desktop/GD32VW553/V1_MQTT_OK/GD32VW55X_Wifi_BLE_SDK/GD32VW55x_RELEASE_V1.0.2/MSDK/cloud/alicloud/src/infra/utils/digest\utils_sha256.c ****             input += freespace;
 710              		.loc 1 246 19 is_stmt 0
 711 005e 5299     		add	s2,s2,s4
 712              	.LVL83:
 713              		.loc 1 247 13 is_stmt 1
 714 0060 97000000 		call	utils_sha256_process
 714      E7800000 
 715              	.LVL84:
 716              	.L37:
 717              	.LBE45:
 718              	.LBE44:
 223:C:/Users/stapi/OneDrive/Desktop/GD32VW553/V1_MQTT_OK/GD32VW55X_Wifi_BLE_SDK/GD32VW55x_RELEASE_V1.0.2/MSDK/cloud/alicloud/src/infra/utils/digest\utils_sha256.c ****     unsigned int freespace, usedspace;
 719              		.loc 1 223 1 is_stmt 0
 720 0068 A689     		mv	s3,s1
 721              	.LVL85:
 722 006a B30A9900 		add	s5,s2,s1
 723              	.LBB48:
 724              	.LBB46:
 248:C:/Users/stapi/OneDrive/Desktop/GD32VW553/V1_MQTT_OK/GD32VW55X_Wifi_BLE_SDK/GD32VW55x_RELEASE_V1.0.2/MSDK/cloud/alicloud/src/infra/utils/digest\utils_sha256.c ****         } else {
 249:C:/Users/stapi/OneDrive/Desktop/GD32VW553/V1_MQTT_OK/GD32VW55X_Wifi_BLE_SDK/GD32VW55x_RELEASE_V1.0.2/MSDK/cloud/alicloud/src/infra/utils/digest\utils_sha256.c ****             /* The buffer is not yet full */
 250:C:/Users/stapi/OneDrive/Desktop/GD32VW553/V1_MQTT_OK/GD32VW55X_Wifi_BLE_SDK/GD32VW55x_RELEASE_V1.0.2/MSDK/cloud/alicloud/src/infra/utils/digest\utils_sha256.c ****             memcpy(&ctx->buffer[usedspace], input, ilen);
 251:C:/Users/stapi/OneDrive/Desktop/GD32VW553/V1_MQTT_OK/GD32VW55X_Wifi_BLE_SDK/GD32VW55x_RELEASE_V1.0.2/MSDK/cloud/alicloud/src/infra/utils/digest\utils_sha256.c ****             ctx->bitcount += ilen << 3;
 252:C:/Users/stapi/OneDrive/Desktop/GD32VW553/V1_MQTT_OK/GD32VW55X_Wifi_BLE_SDK/GD32VW55x_RELEASE_V1.0.2/MSDK/cloud/alicloud/src/infra/utils/digest\utils_sha256.c ****             /* Clean up: */
 253:C:/Users/stapi/OneDrive/Desktop/GD32VW553/V1_MQTT_OK/GD32VW55X_Wifi_BLE_SDK/GD32VW55x_RELEASE_V1.0.2/MSDK/cloud/alicloud/src/infra/utils/digest\utils_sha256.c ****             usedspace = freespace = 0;
 254:C:/Users/stapi/OneDrive/Desktop/GD32VW553/V1_MQTT_OK/GD32VW55X_Wifi_BLE_SDK/GD32VW55x_RELEASE_V1.0.2/MSDK/cloud/alicloud/src/infra/utils/digest\utils_sha256.c ****             return;
 255:C:/Users/stapi/OneDrive/Desktop/GD32VW553/V1_MQTT_OK/GD32VW55X_Wifi_BLE_SDK/GD32VW55x_RELEASE_V1.0.2/MSDK/cloud/alicloud/src/infra/utils/digest\utils_sha256.c ****         }
 256:C:/Users/stapi/OneDrive/Desktop/GD32VW553/V1_MQTT_OK/GD32VW55X_Wifi_BLE_SDK/GD32VW55x_RELEASE_V1.0.2/MSDK/cloud/alicloud/src/infra/utils/digest\utils_sha256.c ****     }
 257:C:/Users/stapi/OneDrive/Desktop/GD32VW553/V1_MQTT_OK/GD32VW55X_Wifi_BLE_SDK/GD32VW55x_RELEASE_V1.0.2/MSDK/cloud/alicloud/src/infra/utils/digest\utils_sha256.c ****     while (ilen >= SHA256_BLOCK_LENGTH) {
 725              		.loc 1 257 11
 726 006e 130AF003 		li	s4,63
 727              	.LVL86:
 728              	.L39:
 729 0072 B3853A41 		sub	a1,s5,s3
 730              	.LVL87:
 731              		.loc 1 257 11 is_stmt 1
 732 0076 63603A05 		bgtu	s3,s4,.L40
 733 007a 93F504FC 		andi	a1,s1,-64
 734              	.LVL88:
 735 007e 13D76400 		srli	a4,s1,6
 736 0082 930700FC 		li	a5,-64
 737 0086 CA95     		add	a1,s2,a1
 738 0088 FF14F7C4 		maddr32	s1, a4, a5
 258:C:/Users/stapi/OneDrive/Desktop/GD32VW553/V1_MQTT_OK/GD32VW55X_Wifi_BLE_SDK/GD32VW55x_RELEASE_V1.0.2/MSDK/cloud/alicloud/src/infra/utils/digest\utils_sha256.c ****         /* Process as many complete blocks as we can */
 259:C:/Users/stapi/OneDrive/Desktop/GD32VW553/V1_MQTT_OK/GD32VW55X_Wifi_BLE_SDK/GD32VW55x_RELEASE_V1.0.2/MSDK/cloud/alicloud/src/infra/utils/digest\utils_sha256.c ****         utils_sha256_process(ctx, (uint32_t *) input);
 260:C:/Users/stapi/OneDrive/Desktop/GD32VW553/V1_MQTT_OK/GD32VW55X_Wifi_BLE_SDK/GD32VW55x_RELEASE_V1.0.2/MSDK/cloud/alicloud/src/infra/utils/digest\utils_sha256.c ****         ctx->bitcount += SHA256_BLOCK_LENGTH << 3;
 261:C:/Users/stapi/OneDrive/Desktop/GD32VW553/V1_MQTT_OK/GD32VW55X_Wifi_BLE_SDK/GD32VW55x_RELEASE_V1.0.2/MSDK/cloud/alicloud/src/infra/utils/digest\utils_sha256.c ****         ilen -= SHA256_BLOCK_LENGTH;
 262:C:/Users/stapi/OneDrive/Desktop/GD32VW553/V1_MQTT_OK/GD32VW55X_Wifi_BLE_SDK/GD32VW55x_RELEASE_V1.0.2/MSDK/cloud/alicloud/src/infra/utils/digest\utils_sha256.c ****         input += SHA256_BLOCK_LENGTH;
 263:C:/Users/stapi/OneDrive/Desktop/GD32VW553/V1_MQTT_OK/GD32VW55X_Wifi_BLE_SDK/GD32VW55x_RELEASE_V1.0.2/MSDK/cloud/alicloud/src/infra/utils/digest\utils_sha256.c ****     }
 264:C:/Users/stapi/OneDrive/Desktop/GD32VW553/V1_MQTT_OK/GD32VW55X_Wifi_BLE_SDK/GD32VW55x_RELEASE_V1.0.2/MSDK/cloud/alicloud/src/infra/utils/digest\utils_sha256.c ****     if (ilen > 0) {
 739              		.loc 1 264 5
 740              		.loc 1 264 8 is_stmt 0
 741 008c 8DC0     		beq	s1,zero,.L33
 265:C:/Users/stapi/OneDrive/Desktop/GD32VW553/V1_MQTT_OK/GD32VW55X_Wifi_BLE_SDK/GD32VW55x_RELEASE_V1.0.2/MSDK/cloud/alicloud/src/infra/utils/digest\utils_sha256.c ****         /* There's left-overs, so save 'em */
 266:C:/Users/stapi/OneDrive/Desktop/GD32VW553/V1_MQTT_OK/GD32VW55X_Wifi_BLE_SDK/GD32VW55x_RELEASE_V1.0.2/MSDK/cloud/alicloud/src/infra/utils/digest\utils_sha256.c ****         memcpy(ctx->buffer, input, ilen);
 742              		.loc 1 266 9 is_stmt 1
 743 008e 2686     		mv	a2,s1
 744 0090 13058402 		addi	a0,s0,40
 745              	.LVL89:
 746              	.L57:
 747 0094 97000000 		call	memcpy
 747      E7800000 
 748              	.LVL90:
 267:C:/Users/stapi/OneDrive/Desktop/GD32VW553/V1_MQTT_OK/GD32VW55X_Wifi_BLE_SDK/GD32VW55x_RELEASE_V1.0.2/MSDK/cloud/alicloud/src/infra/utils/digest\utils_sha256.c ****         ctx->bitcount += ilen << 3;
 749              		.loc 1 267 9
 750              		.loc 1 267 23 is_stmt 0
 751 009c 1C50     		lw	a5,32(s0)
 752 009e 5850     		lw	a4,36(s0)
 753 00a0 B3E4F420 		sh3add	s1,s1,a5
 754 00a4 B3B7F400 		sltu	a5,s1,a5
 755 00a8 BA97     		add	a5,a5,a4
 756 00aa 04D0     		sw	s1,32(s0)
 757 00ac 5CD0     		sw	a5,36(s0)
 758              	.LVL91:
 759              	.L33:
 760              	.LBE46:
 761              	.LBE48:
 268:C:/Users/stapi/OneDrive/Desktop/GD32VW553/V1_MQTT_OK/GD32VW55X_Wifi_BLE_SDK/GD32VW55x_RELEASE_V1.0.2/MSDK/cloud/alicloud/src/infra/utils/digest\utils_sha256.c ****     }
 269:C:/Users/stapi/OneDrive/Desktop/GD32VW553/V1_MQTT_OK/GD32VW55X_Wifi_BLE_SDK/GD32VW55x_RELEASE_V1.0.2/MSDK/cloud/alicloud/src/infra/utils/digest\utils_sha256.c ****     /* Clean up: */
 270:C:/Users/stapi/OneDrive/Desktop/GD32VW553/V1_MQTT_OK/GD32VW55X_Wifi_BLE_SDK/GD32VW55x_RELEASE_V1.0.2/MSDK/cloud/alicloud/src/infra/utils/digest\utils_sha256.c ****     usedspace = freespace = 0;
 271:C:/Users/stapi/OneDrive/Desktop/GD32VW553/V1_MQTT_OK/GD32VW55X_Wifi_BLE_SDK/GD32VW55x_RELEASE_V1.0.2/MSDK/cloud/alicloud/src/infra/utils/digest\utils_sha256.c **** }
 762              		.loc 1 271 1
 763 00ae 17030000 		tail	__riscv_restore_6
 763      67000300 
 764              		.cfi_remember_state
 765              		.cfi_restore 21
 766              		.cfi_restore 20
 767              		.cfi_restore 19
 768              		.cfi_restore 18
 769              		.cfi_restore 9
 770              		.cfi_restore 8
 771              		.cfi_restore 1
 772              		.cfi_def_cfa_offset 0
 773              	.LVL92:
 774              	.L40:
 775              		.cfi_restore_state
 776              	.LBB49:
 777              	.LBB47:
 259:C:/Users/stapi/OneDrive/Desktop/GD32VW553/V1_MQTT_OK/GD32VW55X_Wifi_BLE_SDK/GD32VW55x_RELEASE_V1.0.2/MSDK/cloud/alicloud/src/infra/utils/digest\utils_sha256.c ****         ctx->bitcount += SHA256_BLOCK_LENGTH << 3;
 778              		.loc 1 259 9 is_stmt 1
 779 00b6 2285     		mv	a0,s0
 780 00b8 97000000 		call	utils_sha256_process
 780      E7800000 
 781              	.LVL93:
 260:C:/Users/stapi/OneDrive/Desktop/GD32VW553/V1_MQTT_OK/GD32VW55X_Wifi_BLE_SDK/GD32VW55x_RELEASE_V1.0.2/MSDK/cloud/alicloud/src/infra/utils/digest\utils_sha256.c ****         ilen -= SHA256_BLOCK_LENGTH;
 782              		.loc 1 260 9
 260:C:/Users/stapi/OneDrive/Desktop/GD32VW553/V1_MQTT_OK/GD32VW55X_Wifi_BLE_SDK/GD32VW55x_RELEASE_V1.0.2/MSDK/cloud/alicloud/src/infra/utils/digest\utils_sha256.c ****         ilen -= SHA256_BLOCK_LENGTH;
 783              		.loc 1 260 23 is_stmt 0
 784 00c0 1C50     		lw	a5,32(s0)
 785 00c2 5450     		lw	a3,36(s0)
 261:C:/Users/stapi/OneDrive/Desktop/GD32VW553/V1_MQTT_OK/GD32VW55X_Wifi_BLE_SDK/GD32VW55x_RELEASE_V1.0.2/MSDK/cloud/alicloud/src/infra/utils/digest\utils_sha256.c ****         input += SHA256_BLOCK_LENGTH;
 786              		.loc 1 261 14
 787 00c4 938909FC 		addi	s3,s3,-64
 788              	.LVL94:
 260:C:/Users/stapi/OneDrive/Desktop/GD32VW553/V1_MQTT_OK/GD32VW55X_Wifi_BLE_SDK/GD32VW55x_RELEASE_V1.0.2/MSDK/cloud/alicloud/src/infra/utils/digest\utils_sha256.c ****         ilen -= SHA256_BLOCK_LENGTH;
 789              		.loc 1 260 23
 790 00c8 13870720 		addi	a4,a5,512
 791 00cc B337F700 		sltu	a5,a4,a5
 792 00d0 B697     		add	a5,a5,a3
 793 00d2 18D0     		sw	a4,32(s0)
 794 00d4 5CD0     		sw	a5,36(s0)
 261:C:/Users/stapi/OneDrive/Desktop/GD32VW553/V1_MQTT_OK/GD32VW55X_Wifi_BLE_SDK/GD32VW55x_RELEASE_V1.0.2/MSDK/cloud/alicloud/src/infra/utils/digest\utils_sha256.c ****         input += SHA256_BLOCK_LENGTH;
 795              		.loc 1 261 9 is_stmt 1
 796              	.LVL95:
 262:C:/Users/stapi/OneDrive/Desktop/GD32VW553/V1_MQTT_OK/GD32VW55X_Wifi_BLE_SDK/GD32VW55x_RELEASE_V1.0.2/MSDK/cloud/alicloud/src/infra/utils/digest\utils_sha256.c ****     }
 797              		.loc 1 262 9
 798 00d6 71BF     		j	.L39
 799              	.LVL96:
 800              	.L54:
 801              		.cfi_def_cfa_offset 0
 802              		.cfi_restore 1
 803              		.cfi_restore 8
 804              		.cfi_restore 9
 805              		.cfi_restore 18
 806              		.cfi_restore 19
 807              		.cfi_restore 20
 808              		.cfi_restore 21
 809 00d8 8280     		ret
 810              	.LBE47:
 811              	.LBE49:
 812              		.cfi_endproc
 813              	.LFE17:
 815              		.section	.text.utils_sha256_finish,"ax",@progbits
 816              		.align	1
 817              		.globl	utils_sha256_finish
 819              	utils_sha256_finish:
 820              	.LFB18:
 272:C:/Users/stapi/OneDrive/Desktop/GD32VW553/V1_MQTT_OK/GD32VW55X_Wifi_BLE_SDK/GD32VW55x_RELEASE_V1.0.2/MSDK/cloud/alicloud/src/infra/utils/digest\utils_sha256.c **** void utils_sha256_finish(iot_sha256_context *ctx, unsigned char output[32])
 273:C:/Users/stapi/OneDrive/Desktop/GD32VW553/V1_MQTT_OK/GD32VW55X_Wifi_BLE_SDK/GD32VW55x_RELEASE_V1.0.2/MSDK/cloud/alicloud/src/infra/utils/digest\utils_sha256.c **** {
 821              		.loc 1 273 1
 822              		.cfi_startproc
 823              	.LVL97:
 274:C:/Users/stapi/OneDrive/Desktop/GD32VW553/V1_MQTT_OK/GD32VW55X_Wifi_BLE_SDK/GD32VW55x_RELEASE_V1.0.2/MSDK/cloud/alicloud/src/infra/utils/digest\utils_sha256.c ****     //  int icount = 0;
 275:C:/Users/stapi/OneDrive/Desktop/GD32VW553/V1_MQTT_OK/GD32VW55X_Wifi_BLE_SDK/GD32VW55x_RELEASE_V1.0.2/MSDK/cloud/alicloud/src/infra/utils/digest\utils_sha256.c ****     uint32_t *d = (uint32_t *) output;
 824              		.loc 1 275 5
 276:C:/Users/stapi/OneDrive/Desktop/GD32VW553/V1_MQTT_OK/GD32VW55X_Wifi_BLE_SDK/GD32VW55x_RELEASE_V1.0.2/MSDK/cloud/alicloud/src/infra/utils/digest\utils_sha256.c ****     unsigned int usedspace;
 825              		.loc 1 276 5
 277:C:/Users/stapi/OneDrive/Desktop/GD32VW553/V1_MQTT_OK/GD32VW55X_Wifi_BLE_SDK/GD32VW55x_RELEASE_V1.0.2/MSDK/cloud/alicloud/src/infra/utils/digest\utils_sha256.c **** 
 278:C:/Users/stapi/OneDrive/Desktop/GD32VW553/V1_MQTT_OK/GD32VW55X_Wifi_BLE_SDK/GD32VW55x_RELEASE_V1.0.2/MSDK/cloud/alicloud/src/infra/utils/digest\utils_sha256.c ****     /* Sanity check: */
 279:C:/Users/stapi/OneDrive/Desktop/GD32VW553/V1_MQTT_OK/GD32VW55X_Wifi_BLE_SDK/GD32VW55x_RELEASE_V1.0.2/MSDK/cloud/alicloud/src/infra/utils/digest\utils_sha256.c ****     if (ctx == (iot_sha256_context *) 0) {
 826              		.loc 1 279 5
 827              		.loc 1 279 8 is_stmt 0
 828 0000 63040512 		beq	a0,zero,.L72
 273:C:/Users/stapi/OneDrive/Desktop/GD32VW553/V1_MQTT_OK/GD32VW55X_Wifi_BLE_SDK/GD32VW55x_RELEASE_V1.0.2/MSDK/cloud/alicloud/src/infra/utils/digest\utils_sha256.c ****     //  int icount = 0;
 829              		.loc 1 273 1
 830 0004 17030000 		call	t0,__riscv_save_5
 830      E7020300 
 831              		.cfi_offset 20, -24
 832              		.cfi_offset 19, -20
 833              		.cfi_offset 18, -16
 834              		.cfi_offset 9, -12
 835              		.cfi_offset 8, -8
 836              		.cfi_offset 1, -4
 837              		.cfi_def_cfa_offset 32
 838 000c 2A84     		mv	s0,a0
 839 000e 2E89     		mv	s2,a1
 280:C:/Users/stapi/OneDrive/Desktop/GD32VW553/V1_MQTT_OK/GD32VW55X_Wifi_BLE_SDK/GD32VW55x_RELEASE_V1.0.2/MSDK/cloud/alicloud/src/infra/utils/digest\utils_sha256.c ****         return;
 281:C:/Users/stapi/OneDrive/Desktop/GD32VW553/V1_MQTT_OK/GD32VW55X_Wifi_BLE_SDK/GD32VW55x_RELEASE_V1.0.2/MSDK/cloud/alicloud/src/infra/utils/digest\utils_sha256.c ****     }
 282:C:/Users/stapi/OneDrive/Desktop/GD32VW553/V1_MQTT_OK/GD32VW55X_Wifi_BLE_SDK/GD32VW55x_RELEASE_V1.0.2/MSDK/cloud/alicloud/src/infra/utils/digest\utils_sha256.c **** 
 283:C:/Users/stapi/OneDrive/Desktop/GD32VW553/V1_MQTT_OK/GD32VW55X_Wifi_BLE_SDK/GD32VW55x_RELEASE_V1.0.2/MSDK/cloud/alicloud/src/infra/utils/digest\utils_sha256.c ****     /* If no digest buffer is passed, we don't bother doing this: */
 284:C:/Users/stapi/OneDrive/Desktop/GD32VW553/V1_MQTT_OK/GD32VW55X_Wifi_BLE_SDK/GD32VW55x_RELEASE_V1.0.2/MSDK/cloud/alicloud/src/infra/utils/digest\utils_sha256.c ****     if (output != (unsigned char *) 0) {
 840              		.loc 1 284 5 is_stmt 1
 841              		.loc 1 284 8 is_stmt 0
 842 0010 89ED     		bne	a1,zero,.L60
 843              	.LVL98:
 844              	.L66:
 285:C:/Users/stapi/OneDrive/Desktop/GD32VW553/V1_MQTT_OK/GD32VW55X_Wifi_BLE_SDK/GD32VW55x_RELEASE_V1.0.2/MSDK/cloud/alicloud/src/infra/utils/digest\utils_sha256.c ****         usedspace = (ctx->bitcount >> 3) % SHA256_BLOCK_LENGTH;
 286:C:/Users/stapi/OneDrive/Desktop/GD32VW553/V1_MQTT_OK/GD32VW55X_Wifi_BLE_SDK/GD32VW55x_RELEASE_V1.0.2/MSDK/cloud/alicloud/src/infra/utils/digest\utils_sha256.c ****         ctx->bitcount = os_htobe64(ctx->bitcount);
 287:C:/Users/stapi/OneDrive/Desktop/GD32VW553/V1_MQTT_OK/GD32VW55X_Wifi_BLE_SDK/GD32VW55x_RELEASE_V1.0.2/MSDK/cloud/alicloud/src/infra/utils/digest\utils_sha256.c ****         if (usedspace > 0) {
 288:C:/Users/stapi/OneDrive/Desktop/GD32VW553/V1_MQTT_OK/GD32VW55X_Wifi_BLE_SDK/GD32VW55x_RELEASE_V1.0.2/MSDK/cloud/alicloud/src/infra/utils/digest\utils_sha256.c ****             /* Begin padding with a 1 bit: */
 289:C:/Users/stapi/OneDrive/Desktop/GD32VW553/V1_MQTT_OK/GD32VW55X_Wifi_BLE_SDK/GD32VW55x_RELEASE_V1.0.2/MSDK/cloud/alicloud/src/infra/utils/digest\utils_sha256.c ****             ctx->buffer[usedspace++] = 0x80;
 290:C:/Users/stapi/OneDrive/Desktop/GD32VW553/V1_MQTT_OK/GD32VW55X_Wifi_BLE_SDK/GD32VW55x_RELEASE_V1.0.2/MSDK/cloud/alicloud/src/infra/utils/digest\utils_sha256.c **** 
 291:C:/Users/stapi/OneDrive/Desktop/GD32VW553/V1_MQTT_OK/GD32VW55X_Wifi_BLE_SDK/GD32VW55x_RELEASE_V1.0.2/MSDK/cloud/alicloud/src/infra/utils/digest\utils_sha256.c ****             if (usedspace <= SHA256_SHORT_BLOCK_LENGTH) {
 292:C:/Users/stapi/OneDrive/Desktop/GD32VW553/V1_MQTT_OK/GD32VW55X_Wifi_BLE_SDK/GD32VW55x_RELEASE_V1.0.2/MSDK/cloud/alicloud/src/infra/utils/digest\utils_sha256.c ****                 /* Set-up for the last transform: */
 293:C:/Users/stapi/OneDrive/Desktop/GD32VW553/V1_MQTT_OK/GD32VW55X_Wifi_BLE_SDK/GD32VW55x_RELEASE_V1.0.2/MSDK/cloud/alicloud/src/infra/utils/digest\utils_sha256.c ****                 memset(&ctx->buffer[usedspace], 0, SHA256_SHORT_BLOCK_LENGTH - usedspace);
 294:C:/Users/stapi/OneDrive/Desktop/GD32VW553/V1_MQTT_OK/GD32VW55X_Wifi_BLE_SDK/GD32VW55x_RELEASE_V1.0.2/MSDK/cloud/alicloud/src/infra/utils/digest\utils_sha256.c ****             } else {
 295:C:/Users/stapi/OneDrive/Desktop/GD32VW553/V1_MQTT_OK/GD32VW55X_Wifi_BLE_SDK/GD32VW55x_RELEASE_V1.0.2/MSDK/cloud/alicloud/src/infra/utils/digest\utils_sha256.c ****                 if (usedspace < SHA256_BLOCK_LENGTH) {
 296:C:/Users/stapi/OneDrive/Desktop/GD32VW553/V1_MQTT_OK/GD32VW55X_Wifi_BLE_SDK/GD32VW55x_RELEASE_V1.0.2/MSDK/cloud/alicloud/src/infra/utils/digest\utils_sha256.c ****                     memset(&ctx->buffer[usedspace], 0, SHA256_BLOCK_LENGTH - usedspace);
 297:C:/Users/stapi/OneDrive/Desktop/GD32VW553/V1_MQTT_OK/GD32VW55X_Wifi_BLE_SDK/GD32VW55x_RELEASE_V1.0.2/MSDK/cloud/alicloud/src/infra/utils/digest\utils_sha256.c ****                 }
 298:C:/Users/stapi/OneDrive/Desktop/GD32VW553/V1_MQTT_OK/GD32VW55X_Wifi_BLE_SDK/GD32VW55x_RELEASE_V1.0.2/MSDK/cloud/alicloud/src/infra/utils/digest\utils_sha256.c ****                 /* Do second-to-last transform: */
 299:C:/Users/stapi/OneDrive/Desktop/GD32VW553/V1_MQTT_OK/GD32VW55X_Wifi_BLE_SDK/GD32VW55x_RELEASE_V1.0.2/MSDK/cloud/alicloud/src/infra/utils/digest\utils_sha256.c ****                 utils_sha256_process(ctx, (uint32_t *) ctx->buffer);
 300:C:/Users/stapi/OneDrive/Desktop/GD32VW553/V1_MQTT_OK/GD32VW55X_Wifi_BLE_SDK/GD32VW55x_RELEASE_V1.0.2/MSDK/cloud/alicloud/src/infra/utils/digest\utils_sha256.c **** 
 301:C:/Users/stapi/OneDrive/Desktop/GD32VW553/V1_MQTT_OK/GD32VW55X_Wifi_BLE_SDK/GD32VW55x_RELEASE_V1.0.2/MSDK/cloud/alicloud/src/infra/utils/digest\utils_sha256.c ****                 /* And set-up for the last transform: */
 302:C:/Users/stapi/OneDrive/Desktop/GD32VW553/V1_MQTT_OK/GD32VW55X_Wifi_BLE_SDK/GD32VW55x_RELEASE_V1.0.2/MSDK/cloud/alicloud/src/infra/utils/digest\utils_sha256.c ****                 memset(ctx->buffer, 0, SHA256_SHORT_BLOCK_LENGTH);
 303:C:/Users/stapi/OneDrive/Desktop/GD32VW553/V1_MQTT_OK/GD32VW55X_Wifi_BLE_SDK/GD32VW55x_RELEASE_V1.0.2/MSDK/cloud/alicloud/src/infra/utils/digest\utils_sha256.c ****             }
 304:C:/Users/stapi/OneDrive/Desktop/GD32VW553/V1_MQTT_OK/GD32VW55X_Wifi_BLE_SDK/GD32VW55x_RELEASE_V1.0.2/MSDK/cloud/alicloud/src/infra/utils/digest\utils_sha256.c ****         } else {
 305:C:/Users/stapi/OneDrive/Desktop/GD32VW553/V1_MQTT_OK/GD32VW55X_Wifi_BLE_SDK/GD32VW55x_RELEASE_V1.0.2/MSDK/cloud/alicloud/src/infra/utils/digest\utils_sha256.c ****             /* Set-up for the last transform: */
 306:C:/Users/stapi/OneDrive/Desktop/GD32VW553/V1_MQTT_OK/GD32VW55X_Wifi_BLE_SDK/GD32VW55x_RELEASE_V1.0.2/MSDK/cloud/alicloud/src/infra/utils/digest\utils_sha256.c ****             memset(ctx->buffer, 0, SHA256_SHORT_BLOCK_LENGTH);
 307:C:/Users/stapi/OneDrive/Desktop/GD32VW553/V1_MQTT_OK/GD32VW55X_Wifi_BLE_SDK/GD32VW55x_RELEASE_V1.0.2/MSDK/cloud/alicloud/src/infra/utils/digest\utils_sha256.c **** 
 308:C:/Users/stapi/OneDrive/Desktop/GD32VW553/V1_MQTT_OK/GD32VW55X_Wifi_BLE_SDK/GD32VW55x_RELEASE_V1.0.2/MSDK/cloud/alicloud/src/infra/utils/digest\utils_sha256.c ****             /* Begin padding with a 1 bit: */
 309:C:/Users/stapi/OneDrive/Desktop/GD32VW553/V1_MQTT_OK/GD32VW55X_Wifi_BLE_SDK/GD32VW55x_RELEASE_V1.0.2/MSDK/cloud/alicloud/src/infra/utils/digest\utils_sha256.c ****             *ctx->buffer = 0x80;
 310:C:/Users/stapi/OneDrive/Desktop/GD32VW553/V1_MQTT_OK/GD32VW55X_Wifi_BLE_SDK/GD32VW55x_RELEASE_V1.0.2/MSDK/cloud/alicloud/src/infra/utils/digest\utils_sha256.c ****         }
 311:C:/Users/stapi/OneDrive/Desktop/GD32VW553/V1_MQTT_OK/GD32VW55X_Wifi_BLE_SDK/GD32VW55x_RELEASE_V1.0.2/MSDK/cloud/alicloud/src/infra/utils/digest\utils_sha256.c ****         /* Set the bit count: */
 312:C:/Users/stapi/OneDrive/Desktop/GD32VW553/V1_MQTT_OK/GD32VW55X_Wifi_BLE_SDK/GD32VW55x_RELEASE_V1.0.2/MSDK/cloud/alicloud/src/infra/utils/digest\utils_sha256.c ****         u_retLen tmp;
 313:C:/Users/stapi/OneDrive/Desktop/GD32VW553/V1_MQTT_OK/GD32VW55X_Wifi_BLE_SDK/GD32VW55x_RELEASE_V1.0.2/MSDK/cloud/alicloud/src/infra/utils/digest\utils_sha256.c ****         tmp.lint = ctx->bitcount;
 314:C:/Users/stapi/OneDrive/Desktop/GD32VW553/V1_MQTT_OK/GD32VW55X_Wifi_BLE_SDK/GD32VW55x_RELEASE_V1.0.2/MSDK/cloud/alicloud/src/infra/utils/digest\utils_sha256.c ****         memcpy(&ctx->buffer[SHA256_SHORT_BLOCK_LENGTH], tmp.sptr, 8);
 315:C:/Users/stapi/OneDrive/Desktop/GD32VW553/V1_MQTT_OK/GD32VW55X_Wifi_BLE_SDK/GD32VW55x_RELEASE_V1.0.2/MSDK/cloud/alicloud/src/infra/utils/digest\utils_sha256.c **** 
 316:C:/Users/stapi/OneDrive/Desktop/GD32VW553/V1_MQTT_OK/GD32VW55X_Wifi_BLE_SDK/GD32VW55x_RELEASE_V1.0.2/MSDK/cloud/alicloud/src/infra/utils/digest\utils_sha256.c **** 
 317:C:/Users/stapi/OneDrive/Desktop/GD32VW553/V1_MQTT_OK/GD32VW55X_Wifi_BLE_SDK/GD32VW55x_RELEASE_V1.0.2/MSDK/cloud/alicloud/src/infra/utils/digest\utils_sha256.c ****         /* Final transform: */
 318:C:/Users/stapi/OneDrive/Desktop/GD32VW553/V1_MQTT_OK/GD32VW55X_Wifi_BLE_SDK/GD32VW55x_RELEASE_V1.0.2/MSDK/cloud/alicloud/src/infra/utils/digest\utils_sha256.c ****         utils_sha256_process(ctx, (uint32_t *) ctx->buffer);
 319:C:/Users/stapi/OneDrive/Desktop/GD32VW553/V1_MQTT_OK/GD32VW55X_Wifi_BLE_SDK/GD32VW55x_RELEASE_V1.0.2/MSDK/cloud/alicloud/src/infra/utils/digest\utils_sha256.c **** 
 320:C:/Users/stapi/OneDrive/Desktop/GD32VW553/V1_MQTT_OK/GD32VW55X_Wifi_BLE_SDK/GD32VW55x_RELEASE_V1.0.2/MSDK/cloud/alicloud/src/infra/utils/digest\utils_sha256.c ****         {
 321:C:/Users/stapi/OneDrive/Desktop/GD32VW553/V1_MQTT_OK/GD32VW55X_Wifi_BLE_SDK/GD32VW55x_RELEASE_V1.0.2/MSDK/cloud/alicloud/src/infra/utils/digest\utils_sha256.c ****             /* Convert TO host byte order */
 322:C:/Users/stapi/OneDrive/Desktop/GD32VW553/V1_MQTT_OK/GD32VW55X_Wifi_BLE_SDK/GD32VW55x_RELEASE_V1.0.2/MSDK/cloud/alicloud/src/infra/utils/digest\utils_sha256.c ****             int j;
 323:C:/Users/stapi/OneDrive/Desktop/GD32VW553/V1_MQTT_OK/GD32VW55X_Wifi_BLE_SDK/GD32VW55x_RELEASE_V1.0.2/MSDK/cloud/alicloud/src/infra/utils/digest\utils_sha256.c ****             for (j = 0; j < 8; j++) {
 324:C:/Users/stapi/OneDrive/Desktop/GD32VW553/V1_MQTT_OK/GD32VW55X_Wifi_BLE_SDK/GD32VW55x_RELEASE_V1.0.2/MSDK/cloud/alicloud/src/infra/utils/digest\utils_sha256.c ****                 ctx->state[j] = os_be32toh(ctx->state[j]);
 325:C:/Users/stapi/OneDrive/Desktop/GD32VW553/V1_MQTT_OK/GD32VW55X_Wifi_BLE_SDK/GD32VW55x_RELEASE_V1.0.2/MSDK/cloud/alicloud/src/infra/utils/digest\utils_sha256.c ****                 *d++ = ctx->state[j];
 326:C:/Users/stapi/OneDrive/Desktop/GD32VW553/V1_MQTT_OK/GD32VW55X_Wifi_BLE_SDK/GD32VW55x_RELEASE_V1.0.2/MSDK/cloud/alicloud/src/infra/utils/digest\utils_sha256.c ****             }
 327:C:/Users/stapi/OneDrive/Desktop/GD32VW553/V1_MQTT_OK/GD32VW55X_Wifi_BLE_SDK/GD32VW55x_RELEASE_V1.0.2/MSDK/cloud/alicloud/src/infra/utils/digest\utils_sha256.c ****         }
 328:C:/Users/stapi/OneDrive/Desktop/GD32VW553/V1_MQTT_OK/GD32VW55X_Wifi_BLE_SDK/GD32VW55x_RELEASE_V1.0.2/MSDK/cloud/alicloud/src/infra/utils/digest\utils_sha256.c ****     }
 329:C:/Users/stapi/OneDrive/Desktop/GD32VW553/V1_MQTT_OK/GD32VW55X_Wifi_BLE_SDK/GD32VW55x_RELEASE_V1.0.2/MSDK/cloud/alicloud/src/infra/utils/digest\utils_sha256.c **** 
 330:C:/Users/stapi/OneDrive/Desktop/GD32VW553/V1_MQTT_OK/GD32VW55X_Wifi_BLE_SDK/GD32VW55x_RELEASE_V1.0.2/MSDK/cloud/alicloud/src/infra/utils/digest\utils_sha256.c ****     /* Clean up state data: */
 331:C:/Users/stapi/OneDrive/Desktop/GD32VW553/V1_MQTT_OK/GD32VW55X_Wifi_BLE_SDK/GD32VW55x_RELEASE_V1.0.2/MSDK/cloud/alicloud/src/infra/utils/digest\utils_sha256.c ****     memset(ctx, 0, sizeof(iot_sha256_context));
 845              		.loc 1 331 5 is_stmt 1
 846 0012 13068006 		li	a2,104
 847 0016 8145     		li	a1,0
 848 0018 2285     		mv	a0,s0
 849 001a 97000000 		call	memset
 849      E7800000 
 850              	.LVL99:
 332:C:/Users/stapi/OneDrive/Desktop/GD32VW553/V1_MQTT_OK/GD32VW55X_Wifi_BLE_SDK/GD32VW55x_RELEASE_V1.0.2/MSDK/cloud/alicloud/src/infra/utils/digest\utils_sha256.c ****     usedspace = 0;
 851              		.loc 1 332 5
 333:C:/Users/stapi/OneDrive/Desktop/GD32VW553/V1_MQTT_OK/GD32VW55X_Wifi_BLE_SDK/GD32VW55x_RELEASE_V1.0.2/MSDK/cloud/alicloud/src/infra/utils/digest\utils_sha256.c **** }
 852              		.loc 1 333 1 is_stmt 0
 853 0022 17030000 		tail	__riscv_restore_5
 853      67000300 
 854              		.cfi_remember_state
 855              		.cfi_restore 20
 856              		.cfi_restore 19
 857              		.cfi_restore 18
 858              		.cfi_restore 9
 859              		.cfi_restore 8
 860              		.cfi_restore 1
 861              		.cfi_def_cfa_offset 0
 862              	.LVL100:
 863              	.L60:
 864              		.cfi_restore_state
 865              	.LBB50:
 285:C:/Users/stapi/OneDrive/Desktop/GD32VW553/V1_MQTT_OK/GD32VW55X_Wifi_BLE_SDK/GD32VW55x_RELEASE_V1.0.2/MSDK/cloud/alicloud/src/infra/utils/digest\utils_sha256.c ****         usedspace = (ctx->bitcount >> 3) % SHA256_BLOCK_LENGTH;
 866              		.loc 1 285 9 is_stmt 1
 285:C:/Users/stapi/OneDrive/Desktop/GD32VW553/V1_MQTT_OK/GD32VW55X_Wifi_BLE_SDK/GD32VW55x_RELEASE_V1.0.2/MSDK/cloud/alicloud/src/infra/utils/digest\utils_sha256.c ****         usedspace = (ctx->bitcount >> 3) % SHA256_BLOCK_LENGTH;
 867              		.loc 1 285 25 is_stmt 0
 868 002a 0851     		lw	a0,32(a0)
 286:C:/Users/stapi/OneDrive/Desktop/GD32VW553/V1_MQTT_OK/GD32VW55X_Wifi_BLE_SDK/GD32VW55x_RELEASE_V1.0.2/MSDK/cloud/alicloud/src/infra/utils/digest\utils_sha256.c ****         if (usedspace > 0) {
 869              		.loc 1 286 25
 870 002c 4C50     		lw	a1,36(s0)
 871              	.LVL101:
 299:C:/Users/stapi/OneDrive/Desktop/GD32VW553/V1_MQTT_OK/GD32VW55X_Wifi_BLE_SDK/GD32VW55x_RELEASE_V1.0.2/MSDK/cloud/alicloud/src/infra/utils/digest\utils_sha256.c **** 
 872              		.loc 1 299 56
 873 002e 93098402 		addi	s3,s0,40
 285:C:/Users/stapi/OneDrive/Desktop/GD32VW553/V1_MQTT_OK/GD32VW55X_Wifi_BLE_SDK/GD32VW55x_RELEASE_V1.0.2/MSDK/cloud/alicloud/src/infra/utils/digest\utils_sha256.c ****         ctx->bitcount = os_htobe64(ctx->bitcount);
 874              		.loc 1 285 36
 875 0032 93543500 		srli	s1,a0,3
 286:C:/Users/stapi/OneDrive/Desktop/GD32VW553/V1_MQTT_OK/GD32VW55X_Wifi_BLE_SDK/GD32VW55x_RELEASE_V1.0.2/MSDK/cloud/alicloud/src/infra/utils/digest\utils_sha256.c ****         if (usedspace > 0) {
 876              		.loc 1 286 25
 877 0036 97000000 		call	os_htobe64
 877      E7800000 
 878              	.LVL102:
 285:C:/Users/stapi/OneDrive/Desktop/GD32VW553/V1_MQTT_OK/GD32VW55X_Wifi_BLE_SDK/GD32VW55x_RELEASE_V1.0.2/MSDK/cloud/alicloud/src/infra/utils/digest\utils_sha256.c ****         ctx->bitcount = os_htobe64(ctx->bitcount);
 879              		.loc 1 285 19
 880 003e 93F4F403 		andi	s1,s1,63
 881              	.LVL103:
 286:C:/Users/stapi/OneDrive/Desktop/GD32VW553/V1_MQTT_OK/GD32VW55X_Wifi_BLE_SDK/GD32VW55x_RELEASE_V1.0.2/MSDK/cloud/alicloud/src/infra/utils/digest\utils_sha256.c ****         if (usedspace > 0) {
 882              		.loc 1 286 9 is_stmt 1
 286:C:/Users/stapi/OneDrive/Desktop/GD32VW553/V1_MQTT_OK/GD32VW55X_Wifi_BLE_SDK/GD32VW55x_RELEASE_V1.0.2/MSDK/cloud/alicloud/src/infra/utils/digest\utils_sha256.c ****         if (usedspace > 0) {
 883              		.loc 1 286 23 is_stmt 0
 884 0042 08D0     		sw	a0,32(s0)
 885 0044 4CD0     		sw	a1,36(s0)
 287:C:/Users/stapi/OneDrive/Desktop/GD32VW553/V1_MQTT_OK/GD32VW55X_Wifi_BLE_SDK/GD32VW55x_RELEASE_V1.0.2/MSDK/cloud/alicloud/src/infra/utils/digest\utils_sha256.c ****             /* Begin padding with a 1 bit: */
 886              		.loc 1 287 9 is_stmt 1
 287:C:/Users/stapi/OneDrive/Desktop/GD32VW553/V1_MQTT_OK/GD32VW55X_Wifi_BLE_SDK/GD32VW55x_RELEASE_V1.0.2/MSDK/cloud/alicloud/src/infra/utils/digest\utils_sha256.c ****             /* Begin padding with a 1 bit: */
 887              		.loc 1 287 12 is_stmt 0
 888 0046 E1C4     		beq	s1,zero,.L61
 289:C:/Users/stapi/OneDrive/Desktop/GD32VW553/V1_MQTT_OK/GD32VW55X_Wifi_BLE_SDK/GD32VW55x_RELEASE_V1.0.2/MSDK/cloud/alicloud/src/infra/utils/digest\utils_sha256.c **** 
 889              		.loc 1 289 13 is_stmt 1
 289:C:/Users/stapi/OneDrive/Desktop/GD32VW553/V1_MQTT_OK/GD32VW55X_Wifi_BLE_SDK/GD32VW55x_RELEASE_V1.0.2/MSDK/cloud/alicloud/src/infra/utils/digest\utils_sha256.c **** 
 890              		.loc 1 289 38 is_stmt 0
 891 0048 33079400 		add	a4,s0,s1
 892 004c 930600F8 		li	a3,-128
 289:C:/Users/stapi/OneDrive/Desktop/GD32VW553/V1_MQTT_OK/GD32VW55X_Wifi_BLE_SDK/GD32VW55x_RELEASE_V1.0.2/MSDK/cloud/alicloud/src/infra/utils/digest\utils_sha256.c **** 
 893              		.loc 1 289 34
 894 0050 93871400 		addi	a5,s1,1
 895              	.LVL104:
 289:C:/Users/stapi/OneDrive/Desktop/GD32VW553/V1_MQTT_OK/GD32VW55X_Wifi_BLE_SDK/GD32VW55x_RELEASE_V1.0.2/MSDK/cloud/alicloud/src/infra/utils/digest\utils_sha256.c **** 
 896              		.loc 1 289 38
 897 0054 2304D702 		sb	a3,40(a4)
 291:C:/Users/stapi/OneDrive/Desktop/GD32VW553/V1_MQTT_OK/GD32VW55X_Wifi_BLE_SDK/GD32VW55x_RELEASE_V1.0.2/MSDK/cloud/alicloud/src/infra/utils/digest\utils_sha256.c ****                 /* Set-up for the last transform: */
 898              		.loc 1 291 13 is_stmt 1
 291:C:/Users/stapi/OneDrive/Desktop/GD32VW553/V1_MQTT_OK/GD32VW55X_Wifi_BLE_SDK/GD32VW55x_RELEASE_V1.0.2/MSDK/cloud/alicloud/src/infra/utils/digest\utils_sha256.c ****                 /* Set-up for the last transform: */
 899              		.loc 1 291 16 is_stmt 0
 900 0058 13068003 		li	a2,56
 901 005c 6361F608 		bgtu	a5,a2,.L62
 293:C:/Users/stapi/OneDrive/Desktop/GD32VW553/V1_MQTT_OK/GD32VW55X_Wifi_BLE_SDK/GD32VW55x_RELEASE_V1.0.2/MSDK/cloud/alicloud/src/infra/utils/digest\utils_sha256.c ****             } else {
 902              		.loc 1 293 17 is_stmt 1
 293:C:/Users/stapi/OneDrive/Desktop/GD32VW553/V1_MQTT_OK/GD32VW55X_Wifi_BLE_SDK/GD32VW55x_RELEASE_V1.0.2/MSDK/cloud/alicloud/src/infra/utils/digest\utils_sha256.c ****             } else {
 903              		.loc 1 293 24 is_stmt 0
 904 0060 13859402 		addi	a0,s1,41
 293:C:/Users/stapi/OneDrive/Desktop/GD32VW553/V1_MQTT_OK/GD32VW55X_Wifi_BLE_SDK/GD32VW55x_RELEASE_V1.0.2/MSDK/cloud/alicloud/src/infra/utils/digest\utils_sha256.c ****             } else {
 905              		.loc 1 293 17
 906 0064 1D8E     		sub	a2,a2,a5
 907 0066 8145     		li	a1,0
 908 0068 2295     		add	a0,s0,a0
 909              	.LVL105:
 910              	.L75:
 302:C:/Users/stapi/OneDrive/Desktop/GD32VW553/V1_MQTT_OK/GD32VW55X_Wifi_BLE_SDK/GD32VW55x_RELEASE_V1.0.2/MSDK/cloud/alicloud/src/infra/utils/digest\utils_sha256.c ****             }
 911              		.loc 1 302 17
 912 006a 97000000 		call	memset
 912      E7800000 
 913              	.LVL106:
 914              	.L63:
 312:C:/Users/stapi/OneDrive/Desktop/GD32VW553/V1_MQTT_OK/GD32VW55X_Wifi_BLE_SDK/GD32VW55x_RELEASE_V1.0.2/MSDK/cloud/alicloud/src/infra/utils/digest\utils_sha256.c ****         tmp.lint = ctx->bitcount;
 915              		.loc 1 312 9 is_stmt 1
 313:C:/Users/stapi/OneDrive/Desktop/GD32VW553/V1_MQTT_OK/GD32VW55X_Wifi_BLE_SDK/GD32VW55x_RELEASE_V1.0.2/MSDK/cloud/alicloud/src/infra/utils/digest\utils_sha256.c ****         memcpy(&ctx->buffer[SHA256_SHORT_BLOCK_LENGTH], tmp.sptr, 8);
 916              		.loc 1 313 9
 314:C:/Users/stapi/OneDrive/Desktop/GD32VW553/V1_MQTT_OK/GD32VW55X_Wifi_BLE_SDK/GD32VW55x_RELEASE_V1.0.2/MSDK/cloud/alicloud/src/infra/utils/digest\utils_sha256.c **** 
 917              		.loc 1 314 9
 918 0072 1850     		lw	a4,32(s0)
 919 0074 5C50     		lw	a5,36(s0)
 318:C:/Users/stapi/OneDrive/Desktop/GD32VW553/V1_MQTT_OK/GD32VW55X_Wifi_BLE_SDK/GD32VW55x_RELEASE_V1.0.2/MSDK/cloud/alicloud/src/infra/utils/digest\utils_sha256.c **** 
 920              		.loc 1 318 9 is_stmt 0
 921 0076 CE85     		mv	a1,s3
 314:C:/Users/stapi/OneDrive/Desktop/GD32VW553/V1_MQTT_OK/GD32VW55X_Wifi_BLE_SDK/GD32VW55x_RELEASE_V1.0.2/MSDK/cloud/alicloud/src/infra/utils/digest\utils_sha256.c **** 
 922              		.loc 1 314 9
 923 0078 93568700 		srli	a3,a4,8
 924 007c 2300E406 		sb	a4,96(s0)
 925 0080 A300D406 		sb	a3,97(s0)
 926 0084 93560701 		srli	a3,a4,16
 927 0088 6183     		srli	a4,a4,24
 928 008a A301E406 		sb	a4,99(s0)
 929 008e 13D78700 		srli	a4,a5,8
 930 0092 2302F406 		sb	a5,100(s0)
 931 0096 A302E406 		sb	a4,101(s0)
 932 009a 13D70701 		srli	a4,a5,16
 933 009e E183     		srli	a5,a5,24
 934 00a0 2301D406 		sb	a3,98(s0)
 935 00a4 2303E406 		sb	a4,102(s0)
 936 00a8 A303F406 		sb	a5,103(s0)
 318:C:/Users/stapi/OneDrive/Desktop/GD32VW553/V1_MQTT_OK/GD32VW55X_Wifi_BLE_SDK/GD32VW55x_RELEASE_V1.0.2/MSDK/cloud/alicloud/src/infra/utils/digest\utils_sha256.c **** 
 937              		.loc 1 318 9 is_stmt 1
 938 00ac 2285     		mv	a0,s0
 939 00ae 97000000 		call	utils_sha256_process
 939      E7800000 
 940              	.LVL107:
 941              	.LBB51:
 322:C:/Users/stapi/OneDrive/Desktop/GD32VW553/V1_MQTT_OK/GD32VW55X_Wifi_BLE_SDK/GD32VW55x_RELEASE_V1.0.2/MSDK/cloud/alicloud/src/infra/utils/digest\utils_sha256.c ****             for (j = 0; j < 8; j++) {
 942              		.loc 1 322 13
 323:C:/Users/stapi/OneDrive/Desktop/GD32VW553/V1_MQTT_OK/GD32VW55X_Wifi_BLE_SDK/GD32VW55x_RELEASE_V1.0.2/MSDK/cloud/alicloud/src/infra/utils/digest\utils_sha256.c ****                 ctx->state[j] = os_be32toh(ctx->state[j]);
 943              		.loc 1 323 13
 323:C:/Users/stapi/OneDrive/Desktop/GD32VW553/V1_MQTT_OK/GD32VW55X_Wifi_BLE_SDK/GD32VW55x_RELEASE_V1.0.2/MSDK/cloud/alicloud/src/infra/utils/digest\utils_sha256.c ****                 ctx->state[j] = os_be32toh(ctx->state[j]);
 944              		.loc 1 323 25
 945              	.LBE51:
 318:C:/Users/stapi/OneDrive/Desktop/GD32VW553/V1_MQTT_OK/GD32VW55X_Wifi_BLE_SDK/GD32VW55x_RELEASE_V1.0.2/MSDK/cloud/alicloud/src/infra/utils/digest\utils_sha256.c **** 
 946              		.loc 1 318 9 is_stmt 0
 947 00b6 8144     		li	s1,0
 948              	.LBB54:
 323:C:/Users/stapi/OneDrive/Desktop/GD32VW553/V1_MQTT_OK/GD32VW55X_Wifi_BLE_SDK/GD32VW55x_RELEASE_V1.0.2/MSDK/cloud/alicloud/src/infra/utils/digest\utils_sha256.c ****                 ctx->state[j] = os_be32toh(ctx->state[j]);
 949              		.loc 1 323 13
 950 00b8 130A0002 		li	s4,32
 951              	.LVL108:
 952              	.L65:
 324:C:/Users/stapi/OneDrive/Desktop/GD32VW553/V1_MQTT_OK/GD32VW55X_Wifi_BLE_SDK/GD32VW55x_RELEASE_V1.0.2/MSDK/cloud/alicloud/src/infra/utils/digest\utils_sha256.c ****                 *d++ = ctx->state[j];
 953              		.loc 1 324 17 is_stmt 1 discriminator 3
 954 00bc B3099400 		add	s3,s0,s1
 955              	.LVL109:
 956              	.LBB52:
 957              	.LBB53:
  94:C:/Users/stapi/OneDrive/Desktop/GD32VW553/V1_MQTT_OK/GD32VW55X_Wifi_BLE_SDK/GD32VW55x_RELEASE_V1.0.2/MSDK/cloud/alicloud/src/infra/utils/digest\utils_sha256.c **** }
 958              		.loc 1 94 5 discriminator 3
  94:C:/Users/stapi/OneDrive/Desktop/GD32VW553/V1_MQTT_OK/GD32VW55X_Wifi_BLE_SDK/GD32VW55x_RELEASE_V1.0.2/MSDK/cloud/alicloud/src/infra/utils/digest\utils_sha256.c **** }
 959              		.loc 1 94 12 is_stmt 0 discriminator 3
 960 00c0 03A50900 		lw	a0,0(s3)
 961 00c4 97000000 		call	os_htobe32
 961      E7800000 
 962              	.LVL110:
 963              	.LBE53:
 964              	.LBE52:
 325:C:/Users/stapi/OneDrive/Desktop/GD32VW553/V1_MQTT_OK/GD32VW55X_Wifi_BLE_SDK/GD32VW55x_RELEASE_V1.0.2/MSDK/cloud/alicloud/src/infra/utils/digest\utils_sha256.c ****             }
 965              		.loc 1 325 22 discriminator 3
 966 00cc B3079900 		add	a5,s2,s1
 967              	.LVL111:
 324:C:/Users/stapi/OneDrive/Desktop/GD32VW553/V1_MQTT_OK/GD32VW55X_Wifi_BLE_SDK/GD32VW55x_RELEASE_V1.0.2/MSDK/cloud/alicloud/src/infra/utils/digest\utils_sha256.c ****                 *d++ = ctx->state[j];
 968              		.loc 1 324 31 discriminator 3
 969 00d0 23A0A900 		sw	a0,0(s3)
 325:C:/Users/stapi/OneDrive/Desktop/GD32VW553/V1_MQTT_OK/GD32VW55X_Wifi_BLE_SDK/GD32VW55x_RELEASE_V1.0.2/MSDK/cloud/alicloud/src/infra/utils/digest\utils_sha256.c ****             }
 970              		.loc 1 325 17 is_stmt 1 discriminator 3
 971              	.LVL112:
 325:C:/Users/stapi/OneDrive/Desktop/GD32VW553/V1_MQTT_OK/GD32VW55X_Wifi_BLE_SDK/GD32VW55x_RELEASE_V1.0.2/MSDK/cloud/alicloud/src/infra/utils/digest\utils_sha256.c ****             }
 972              		.loc 1 325 22 is_stmt 0 discriminator 3
 973 00d4 88C3     		sw	a0,0(a5)
 323:C:/Users/stapi/OneDrive/Desktop/GD32VW553/V1_MQTT_OK/GD32VW55X_Wifi_BLE_SDK/GD32VW55x_RELEASE_V1.0.2/MSDK/cloud/alicloud/src/infra/utils/digest\utils_sha256.c ****                 ctx->state[j] = os_be32toh(ctx->state[j]);
 974              		.loc 1 323 32 is_stmt 1 discriminator 3
 323:C:/Users/stapi/OneDrive/Desktop/GD32VW553/V1_MQTT_OK/GD32VW55X_Wifi_BLE_SDK/GD32VW55x_RELEASE_V1.0.2/MSDK/cloud/alicloud/src/infra/utils/digest\utils_sha256.c ****                 ctx->state[j] = os_be32toh(ctx->state[j]);
 975              		.loc 1 323 25 discriminator 3
 323:C:/Users/stapi/OneDrive/Desktop/GD32VW553/V1_MQTT_OK/GD32VW55X_Wifi_BLE_SDK/GD32VW55x_RELEASE_V1.0.2/MSDK/cloud/alicloud/src/infra/utils/digest\utils_sha256.c ****                 ctx->state[j] = os_be32toh(ctx->state[j]);
 976              		.loc 1 323 13 is_stmt 0 discriminator 3
 977 00d6 9104     		addi	s1,s1,4
 978              	.LVL113:
 979 00d8 E39244FF 		bne	s1,s4,.L65
 980 00dc 1DBF     		j	.L66
 981              	.LVL114:
 982              	.L62:
 983              	.LBE54:
 295:C:/Users/stapi/OneDrive/Desktop/GD32VW553/V1_MQTT_OK/GD32VW55X_Wifi_BLE_SDK/GD32VW55x_RELEASE_V1.0.2/MSDK/cloud/alicloud/src/infra/utils/digest\utils_sha256.c ****                     memset(&ctx->buffer[usedspace], 0, SHA256_BLOCK_LENGTH - usedspace);
 984              		.loc 1 295 17 is_stmt 1
 295:C:/Users/stapi/OneDrive/Desktop/GD32VW553/V1_MQTT_OK/GD32VW55X_Wifi_BLE_SDK/GD32VW55x_RELEASE_V1.0.2/MSDK/cloud/alicloud/src/infra/utils/digest\utils_sha256.c ****                     memset(&ctx->buffer[usedspace], 0, SHA256_BLOCK_LENGTH - usedspace);
 985              		.loc 1 295 20 is_stmt 0
 986 00de 13060004 		li	a2,64
 987 00e2 638BC700 		beq	a5,a2,.L64
 296:C:/Users/stapi/OneDrive/Desktop/GD32VW553/V1_MQTT_OK/GD32VW55X_Wifi_BLE_SDK/GD32VW55x_RELEASE_V1.0.2/MSDK/cloud/alicloud/src/infra/utils/digest\utils_sha256.c ****                 }
 988              		.loc 1 296 21 is_stmt 1
 296:C:/Users/stapi/OneDrive/Desktop/GD32VW553/V1_MQTT_OK/GD32VW55X_Wifi_BLE_SDK/GD32VW55x_RELEASE_V1.0.2/MSDK/cloud/alicloud/src/infra/utils/digest\utils_sha256.c ****                 }
 989              		.loc 1 296 28 is_stmt 0
 990 00e6 13859402 		addi	a0,s1,41
 296:C:/Users/stapi/OneDrive/Desktop/GD32VW553/V1_MQTT_OK/GD32VW55X_Wifi_BLE_SDK/GD32VW55x_RELEASE_V1.0.2/MSDK/cloud/alicloud/src/infra/utils/digest\utils_sha256.c ****                 }
 991              		.loc 1 296 21
 992 00ea 1D8E     		sub	a2,a2,a5
 993 00ec 8145     		li	a1,0
 994 00ee 2295     		add	a0,s0,a0
 995 00f0 97000000 		call	memset
 995      E7800000 
 996              	.LVL115:
 997              	.L64:
 299:C:/Users/stapi/OneDrive/Desktop/GD32VW553/V1_MQTT_OK/GD32VW55X_Wifi_BLE_SDK/GD32VW55x_RELEASE_V1.0.2/MSDK/cloud/alicloud/src/infra/utils/digest\utils_sha256.c **** 
 998              		.loc 1 299 17 is_stmt 1
 999 00f8 CE85     		mv	a1,s3
 1000 00fa 2285     		mv	a0,s0
 1001 00fc 97000000 		call	utils_sha256_process
 1001      E7800000 
 1002              	.LVL116:
 302:C:/Users/stapi/OneDrive/Desktop/GD32VW553/V1_MQTT_OK/GD32VW55X_Wifi_BLE_SDK/GD32VW55x_RELEASE_V1.0.2/MSDK/cloud/alicloud/src/infra/utils/digest\utils_sha256.c ****             }
 1003              		.loc 1 302 17
 1004 0104 13068003 		li	a2,56
 1005 0108 8145     		li	a1,0
 1006 010a 4E85     		mv	a0,s3
 1007 010c B9BF     		j	.L75
 1008              	.LVL117:
 1009              	.L61:
 306:C:/Users/stapi/OneDrive/Desktop/GD32VW553/V1_MQTT_OK/GD32VW55X_Wifi_BLE_SDK/GD32VW55x_RELEASE_V1.0.2/MSDK/cloud/alicloud/src/infra/utils/digest\utils_sha256.c **** 
 1010              		.loc 1 306 13
 1011 010e 13068003 		li	a2,56
 1012 0112 8145     		li	a1,0
 1013 0114 4E85     		mv	a0,s3
 1014 0116 97000000 		call	memset
 1014      E7800000 
 1015              	.LVL118:
 309:C:/Users/stapi/OneDrive/Desktop/GD32VW553/V1_MQTT_OK/GD32VW55X_Wifi_BLE_SDK/GD32VW55x_RELEASE_V1.0.2/MSDK/cloud/alicloud/src/infra/utils/digest\utils_sha256.c ****         }
 1016              		.loc 1 309 13
 309:C:/Users/stapi/OneDrive/Desktop/GD32VW553/V1_MQTT_OK/GD32VW55X_Wifi_BLE_SDK/GD32VW55x_RELEASE_V1.0.2/MSDK/cloud/alicloud/src/infra/utils/digest\utils_sha256.c ****         }
 1017              		.loc 1 309 26 is_stmt 0
 1018 011e 930700F8 		li	a5,-128
 1019 0122 2304F402 		sb	a5,40(s0)
 1020 0126 B1B7     		j	.L63
 1021              	.LVL119:
 1022              	.L72:
 1023              		.cfi_def_cfa_offset 0
 1024              		.cfi_restore 1
 1025              		.cfi_restore 8
 1026              		.cfi_restore 9
 1027              		.cfi_restore 18
 1028              		.cfi_restore 19
 1029              		.cfi_restore 20
 1030 0128 8280     		ret
 1031              	.LBE50:
 1032              		.cfi_endproc
 1033              	.LFE18:
 1035              		.section	.text.utils_sha256,"ax",@progbits
 1036              		.align	1
 1037              		.globl	utils_sha256
 1039              	utils_sha256:
 1040              	.LFB19:
 334:C:/Users/stapi/OneDrive/Desktop/GD32VW553/V1_MQTT_OK/GD32VW55X_Wifi_BLE_SDK/GD32VW55x_RELEASE_V1.0.2/MSDK/cloud/alicloud/src/infra/utils/digest\utils_sha256.c **** void utils_sha256(const unsigned char *input, size_t ilen, unsigned char output[32])
 335:C:/Users/stapi/OneDrive/Desktop/GD32VW553/V1_MQTT_OK/GD32VW55X_Wifi_BLE_SDK/GD32VW55x_RELEASE_V1.0.2/MSDK/cloud/alicloud/src/infra/utils/digest\utils_sha256.c **** {
 1041              		.loc 1 335 1 is_stmt 1
 1042              		.cfi_startproc
 1043              	.LVL120:
 1044 0000 17030000 		call	t0,__riscv_save_3
 1044      E7020300 
 1045              		.cfi_offset 18, -16
 1046              		.cfi_offset 9, -12
 1047              		.cfi_offset 8, -8
 1048              		.cfi_offset 1, -4
 1049              		.cfi_def_cfa_offset 16
 336:C:/Users/stapi/OneDrive/Desktop/GD32VW553/V1_MQTT_OK/GD32VW55X_Wifi_BLE_SDK/GD32VW55x_RELEASE_V1.0.2/MSDK/cloud/alicloud/src/infra/utils/digest\utils_sha256.c ****     iot_sha256_context ctx;
 1050              		.loc 1 336 5
 337:C:/Users/stapi/OneDrive/Desktop/GD32VW553/V1_MQTT_OK/GD32VW55X_Wifi_BLE_SDK/GD32VW55x_RELEASE_V1.0.2/MSDK/cloud/alicloud/src/infra/utils/digest\utils_sha256.c **** 
 338:C:/Users/stapi/OneDrive/Desktop/GD32VW553/V1_MQTT_OK/GD32VW55X_Wifi_BLE_SDK/GD32VW55x_RELEASE_V1.0.2/MSDK/cloud/alicloud/src/infra/utils/digest\utils_sha256.c ****     utils_sha256_init(&ctx);
 1051              		.loc 1 338 5
 335:C:/Users/stapi/OneDrive/Desktop/GD32VW553/V1_MQTT_OK/GD32VW55X_Wifi_BLE_SDK/GD32VW55x_RELEASE_V1.0.2/MSDK/cloud/alicloud/src/infra/utils/digest\utils_sha256.c ****     iot_sha256_context ctx;
 1052              		.loc 1 335 1 is_stmt 0
 1053 0008 5971     		addi	sp,sp,-112
 1054              		.cfi_def_cfa_offset 128
 335:C:/Users/stapi/OneDrive/Desktop/GD32VW553/V1_MQTT_OK/GD32VW55X_Wifi_BLE_SDK/GD32VW55x_RELEASE_V1.0.2/MSDK/cloud/alicloud/src/infra/utils/digest\utils_sha256.c ****     iot_sha256_context ctx;
 1055              		.loc 1 335 1
 1056 000a AA84     		mv	s1,a0
 1057              		.loc 1 338 5
 1058 000c 2800     		addi	a0,sp,8
 1059              	.LVL121:
 335:C:/Users/stapi/OneDrive/Desktop/GD32VW553/V1_MQTT_OK/GD32VW55X_Wifi_BLE_SDK/GD32VW55x_RELEASE_V1.0.2/MSDK/cloud/alicloud/src/infra/utils/digest\utils_sha256.c ****     iot_sha256_context ctx;
 1060              		.loc 1 335 1
 1061 000e 3284     		mv	s0,a2
 1062 0010 2E89     		mv	s2,a1
 1063              		.loc 1 338 5
 1064 0012 97000000 		call	utils_sha256_init
 1064      E7800000 
 1065              	.LVL122:
 339:C:/Users/stapi/OneDrive/Desktop/GD32VW553/V1_MQTT_OK/GD32VW55X_Wifi_BLE_SDK/GD32VW55x_RELEASE_V1.0.2/MSDK/cloud/alicloud/src/infra/utils/digest\utils_sha256.c ****     utils_sha256_starts(&ctx);
 1066              		.loc 1 339 5 is_stmt 1
 1067              	.LBB55:
 1068              	.LBB56:
 140:C:/Users/stapi/OneDrive/Desktop/GD32VW553/V1_MQTT_OK/GD32VW55X_Wifi_BLE_SDK/GD32VW55x_RELEASE_V1.0.2/MSDK/cloud/alicloud/src/infra/utils/digest\utils_sha256.c ****         return;
 1069              		.loc 1 140 5
 1070 001a 2800     		addi	a0,sp,8
 1071              	.LVL123:
 1072 001c 97000000 		call	utils_sha256_starts.part.0
 1072      E7800000 
 1073              	.LVL124:
 1074              	.LBE56:
 1075              	.LBE55:
 340:C:/Users/stapi/OneDrive/Desktop/GD32VW553/V1_MQTT_OK/GD32VW55X_Wifi_BLE_SDK/GD32VW55x_RELEASE_V1.0.2/MSDK/cloud/alicloud/src/infra/utils/digest\utils_sha256.c ****     utils_sha256_update(&ctx, input, ilen);
 1076              		.loc 1 340 5
 1077 0024 4A86     		mv	a2,s2
 1078 0026 A685     		mv	a1,s1
 1079 0028 2800     		addi	a0,sp,8
 1080 002a 97000000 		call	utils_sha256_update
 1080      E7800000 
 1081              	.LVL125:
 341:C:/Users/stapi/OneDrive/Desktop/GD32VW553/V1_MQTT_OK/GD32VW55X_Wifi_BLE_SDK/GD32VW55x_RELEASE_V1.0.2/MSDK/cloud/alicloud/src/infra/utils/digest\utils_sha256.c ****     utils_sha256_finish(&ctx, output);
 1082              		.loc 1 341 5
 1083 0032 A285     		mv	a1,s0
 1084 0034 2800     		addi	a0,sp,8
 1085 0036 97000000 		call	utils_sha256_finish
 1085      E7800000 
 1086              	.LVL126:
 342:C:/Users/stapi/OneDrive/Desktop/GD32VW553/V1_MQTT_OK/GD32VW55X_Wifi_BLE_SDK/GD32VW55x_RELEASE_V1.0.2/MSDK/cloud/alicloud/src/infra/utils/digest\utils_sha256.c ****     utils_sha256_free(&ctx);
 1087              		.loc 1 342 5
 1088 003e 2800     		addi	a0,sp,8
 1089 0040 97000000 		call	utils_sha256_free
 1089      E7800000 
 1090              	.LVL127:
 343:C:/Users/stapi/OneDrive/Desktop/GD32VW553/V1_MQTT_OK/GD32VW55X_Wifi_BLE_SDK/GD32VW55x_RELEASE_V1.0.2/MSDK/cloud/alicloud/src/infra/utils/digest\utils_sha256.c **** }
 1091              		.loc 1 343 1 is_stmt 0
 1092 0048 6561     		addi	sp,sp,112
 1093              		.cfi_def_cfa_offset 0
 1094 004a 17030000 		tail	__riscv_restore_3
 1094      67000300 
 1095              		.cfi_restore 18
 1096              		.cfi_restore 9
 1097              		.cfi_restore 8
 1098              		.cfi_restore 1
 1099              		.cfi_def_cfa_offset -16
 1100              		.cfi_endproc
 1101              	.LFE19:
 1103              		.section	.rodata.K256,"a"
 1104              		.align	2
 1105              		.set	.LANCHOR1,. + 0
 1108              	K256:
 1109 0000 982F8A42 		.word	1116352408
 1110 0004 91443771 		.word	1899447441
 1111 0008 CFFBC0B5 		.word	-1245643825
 1112 000c A5DBB5E9 		.word	-373957723
 1113 0010 5BC25639 		.word	961987163
 1114 0014 F111F159 		.word	1508970993
 1115 0018 A4823F92 		.word	-1841331548
 1116 001c D55E1CAB 		.word	-1424204075
 1117 0020 98AA07D8 		.word	-670586216
 1118 0024 015B8312 		.word	310598401
 1119 0028 BE853124 		.word	607225278
 1120 002c C37D0C55 		.word	1426881987
 1121 0030 745DBE72 		.word	1925078388
 1122 0034 FEB1DE80 		.word	-2132889090
 1123 0038 A706DC9B 		.word	-1680079193
 1124 003c 74F19BC1 		.word	-1046744716
 1125 0040 C1699BE4 		.word	-459576895
 1126 0044 8647BEEF 		.word	-272742522
 1127 0048 C69DC10F 		.word	264347078
 1128 004c CCA10C24 		.word	604807628
 1129 0050 6F2CE92D 		.word	770255983
 1130 0054 AA84744A 		.word	1249150122
 1131 0058 DCA9B05C 		.word	1555081692
 1132 005c DA88F976 		.word	1996064986
 1133 0060 52513E98 		.word	-1740746414
 1134 0064 6DC631A8 		.word	-1473132947
 1135 0068 C82703B0 		.word	-1341970488
 1136 006c C77F59BF 		.word	-1084653625
 1137 0070 F30BE0C6 		.word	-958395405
 1138 0074 4791A7D5 		.word	-710438585
 1139 0078 5163CA06 		.word	113926993
 1140 007c 67292914 		.word	338241895
 1141 0080 850AB727 		.word	666307205
 1142 0084 38211B2E 		.word	773529912
 1143 0088 FC6D2C4D 		.word	1294757372
 1144 008c 130D3853 		.word	1396182291
 1145 0090 54730A65 		.word	1695183700
 1146 0094 BB0A6A76 		.word	1986661051
 1147 0098 2EC9C281 		.word	-2117940946
 1148 009c 852C7292 		.word	-1838011259
 1149 00a0 A1E8BFA2 		.word	-1564481375
 1150 00a4 4B661AA8 		.word	-1474664885
 1151 00a8 708B4BC2 		.word	-1035236496
 1152 00ac A3516CC7 		.word	-949202525
 1153 00b0 19E892D1 		.word	-778901479
 1154 00b4 240699D6 		.word	-694614492
 1155 00b8 85350EF4 		.word	-200395387
 1156 00bc 70A06A10 		.word	275423344
 1157 00c0 16C1A419 		.word	430227734
 1158 00c4 086C371E 		.word	506948616
 1159 00c8 4C774827 		.word	659060556
 1160 00cc B5BCB034 		.word	883997877
 1161 00d0 B30C1C39 		.word	958139571
 1162 00d4 4AAAD84E 		.word	1322822218
 1163 00d8 4FCA9C5B 		.word	1537002063
 1164 00dc F36F2E68 		.word	1747873779
 1165 00e0 EE828F74 		.word	1955562222
 1166 00e4 6F63A578 		.word	2024104815
 1167 00e8 1478C884 		.word	-2067236844
 1168 00ec 0802C78C 		.word	-1933114872
 1169 00f0 FAFFBE90 		.word	-1866530822
 1170 00f4 EB6C50A4 		.word	-1538233109
 1171 00f8 F7A3F9BE 		.word	-1090935817
 1172 00fc F27871C6 		.word	-965641998
 1173              		.section	.rodata.sha256_initial_hash_value,"a"
 1174              		.align	2
 1175              		.set	.LANCHOR0,. + 0
 1178              	sha256_initial_hash_value:
 1179 0000 67E6096A 		.word	1779033703
 1180 0004 85AE67BB 		.word	-1150833019
 1181 0008 72F36E3C 		.word	1013904242
 1182 000c 3AF54FA5 		.word	-1521486534
 1183 0010 7F520E51 		.word	1359893119
 1184 0014 8C68059B 		.word	-1694144372
 1185 0018 ABD9831F 		.word	528734635
 1186 001c 19CDE05B 		.word	1541459225
 1187              		.text
 1188              	.Letext0:
 1189              		.file 2 "c:\\users\\stapi\\onedrive\\desktop\\gd32vw553\\embeddedbuilder_v1.4.7.26843\\tools\\nucl
 1190              		.file 3 "c:\\users\\stapi\\onedrive\\desktop\\gd32vw553\\embeddedbuilder_v1.4.7.26843\\tools\\nucl
 1191              		.file 4 "c:\\users\\stapi\\onedrive\\desktop\\gd32vw553\\embeddedbuilder_v1.4.7.26843\\tools\\nucl
 1192              		.file 5 "C:/Users/stapi/OneDrive/Desktop/GD32VW553/V1_MQTT_OK/GD32VW55X_Wifi_BLE_SDK/GD32VW55x_REL
 1193              		.file 6 "<built-in>"
DEFINED SYMBOLS
                            *ABS*:0000000000000000 utils_sha256.c
C:\Users\stapi\AppData\Local\Temp\cc0tbpIX.s:12     .text.utils_sha256_starts.part.0:0000000000000000 utils_sha256_starts.part.0
C:\Users\stapi\AppData\Local\Temp\cc0tbpIX.s:16     .text.utils_sha256_starts.part.0:0000000000000000 .L0 
C:\Users\stapi\AppData\Local\Temp\cc0tbpIX.s:18     .text.utils_sha256_starts.part.0:0000000000000000 .L0 
C:\Users\stapi\AppData\Local\Temp\cc0tbpIX.s:19     .text.utils_sha256_starts.part.0:0000000000000008 .L0 
C:\Users\stapi\AppData\Local\Temp\cc0tbpIX.s:20     .text.utils_sha256_starts.part.0:0000000000000008 .L0 
C:\Users\stapi\AppData\Local\Temp\cc0tbpIX.s:21     .text.utils_sha256_starts.part.0:0000000000000008 .L0 
C:\Users\stapi\AppData\Local\Temp\cc0tbpIX.s:23     .text.utils_sha256_starts.part.0:0000000000000008 .L0 
C:\Users\stapi\AppData\Local\Temp\cc0tbpIX.s:27     .text.utils_sha256_starts.part.0:0000000000000014 .L0 
C:\Users\stapi\AppData\Local\Temp\cc0tbpIX.s:29     .text.utils_sha256_starts.part.0:0000000000000016 .L0 
C:\Users\stapi\AppData\Local\Temp\cc0tbpIX.s:32     .text.utils_sha256_starts.part.0:000000000000001e .L0 
C:\Users\stapi\AppData\Local\Temp\cc0tbpIX.s:38     .text.utils_sha256_starts.part.0:0000000000000030 .L0 
C:\Users\stapi\AppData\Local\Temp\cc0tbpIX.s:39     .text.utils_sha256_starts.part.0:0000000000000030 .L0 
C:\Users\stapi\AppData\Local\Temp\cc0tbpIX.s:44     .text.utils_sha256_starts.part.0:0000000000000038 .L0 
C:\Users\stapi\AppData\Local\Temp\cc0tbpIX.s:45     .text.utils_sha256_starts.part.0:0000000000000040 .L0 
C:\Users\stapi\AppData\Local\Temp\cc0tbpIX.s:46     .text.utils_sha256_starts.part.0:0000000000000040 .L0 
C:\Users\stapi\AppData\Local\Temp\cc0tbpIX.s:47     .text.utils_sha256_starts.part.0:0000000000000040 .L0 
C:\Users\stapi\AppData\Local\Temp\cc0tbpIX.s:48     .text.utils_sha256_starts.part.0:0000000000000040 .L0 
C:\Users\stapi\AppData\Local\Temp\cc0tbpIX.s:55     .text.os_htobe32:0000000000000000 os_htobe32
C:\Users\stapi\AppData\Local\Temp\cc0tbpIX.s:58     .text.os_htobe32:0000000000000000 .L0 
C:\Users\stapi\AppData\Local\Temp\cc0tbpIX.s:60     .text.os_htobe32:0000000000000000 .L0 
C:\Users\stapi\AppData\Local\Temp\cc0tbpIX.s:61     .text.os_htobe32:0000000000000000 .L0 
C:\Users\stapi\AppData\Local\Temp\cc0tbpIX.s:62     .text.os_htobe32:0000000000000000 .L0 
C:\Users\stapi\AppData\Local\Temp\cc0tbpIX.s:63     .text.os_htobe32:0000000000000000 .L0 
C:\Users\stapi\AppData\Local\Temp\cc0tbpIX.s:64     .text.os_htobe32:0000000000000000 .L0 
C:\Users\stapi\AppData\Local\Temp\cc0tbpIX.s:65     .text.os_htobe32:0000000000000000 .L0 
C:\Users\stapi\AppData\Local\Temp\cc0tbpIX.s:66     .text.os_htobe32:0000000000000000 .L0 
C:\Users\stapi\AppData\Local\Temp\cc0tbpIX.s:67     .text.os_htobe32:0000000000000000 .L0 
C:\Users\stapi\AppData\Local\Temp\cc0tbpIX.s:68     .text.os_htobe32:0000000000000000 .L0 
C:\Users\stapi\AppData\Local\Temp\cc0tbpIX.s:71     .text.os_htobe32:0000000000000006 .L0 
C:\Users\stapi\AppData\Local\Temp\cc0tbpIX.s:78     .text.os_be32toh:0000000000000000 os_be32toh
C:\Users\stapi\AppData\Local\Temp\cc0tbpIX.s:81     .text.os_be32toh:0000000000000000 .L0 
C:\Users\stapi\AppData\Local\Temp\cc0tbpIX.s:83     .text.os_be32toh:0000000000000000 .L0 
C:\Users\stapi\AppData\Local\Temp\cc0tbpIX.s:84     .text.os_be32toh:0000000000000000 .L0 
C:\Users\stapi\AppData\Local\Temp\cc0tbpIX.s:85     .text.os_be32toh:0000000000000000 .L0 
C:\Users\stapi\AppData\Local\Temp\cc0tbpIX.s:87     .text.os_be32toh:0000000000000008 .L0 
C:\Users\stapi\AppData\Local\Temp\cc0tbpIX.s:94     .text.os_htobe64:0000000000000000 os_htobe64
C:\Users\stapi\AppData\Local\Temp\cc0tbpIX.s:97     .text.os_htobe64:0000000000000000 .L0 
C:\Users\stapi\AppData\Local\Temp\cc0tbpIX.s:99     .text.os_htobe64:0000000000000000 .L0 
C:\Users\stapi\AppData\Local\Temp\cc0tbpIX.s:100    .text.os_htobe64:0000000000000000 .L0 
C:\Users\stapi\AppData\Local\Temp\cc0tbpIX.s:101    .text.os_htobe64:0000000000000000 .L0 
C:\Users\stapi\AppData\Local\Temp\cc0tbpIX.s:102    .text.os_htobe64:0000000000000000 .L0 
C:\Users\stapi\AppData\Local\Temp\cc0tbpIX.s:103    .text.os_htobe64:0000000000000000 .L0 
C:\Users\stapi\AppData\Local\Temp\cc0tbpIX.s:104    .text.os_htobe64:0000000000000000 .L0 
C:\Users\stapi\AppData\Local\Temp\cc0tbpIX.s:107    .text.os_htobe64:0000000000000002 .L0 
C:\Users\stapi\AppData\Local\Temp\cc0tbpIX.s:108    .text.os_htobe64:0000000000000002 .L0 
C:\Users\stapi\AppData\Local\Temp\cc0tbpIX.s:109    .text.os_htobe64:0000000000000002 .L0 
C:\Users\stapi\AppData\Local\Temp\cc0tbpIX.s:110    .text.os_htobe64:0000000000000002 .L0 
C:\Users\stapi\AppData\Local\Temp\cc0tbpIX.s:111    .text.os_htobe64:0000000000000002 .L0 
C:\Users\stapi\AppData\Local\Temp\cc0tbpIX.s:115    .text.os_htobe64:000000000000000c .L0 
C:\Users\stapi\AppData\Local\Temp\cc0tbpIX.s:122    .text.utils_sha256_init:0000000000000000 utils_sha256_init
C:\Users\stapi\AppData\Local\Temp\cc0tbpIX.s:125    .text.utils_sha256_init:0000000000000000 .L0 
C:\Users\stapi\AppData\Local\Temp\cc0tbpIX.s:127    .text.utils_sha256_init:0000000000000000 .L0 
C:\Users\stapi\AppData\Local\Temp\cc0tbpIX.s:128    .text.utils_sha256_init:0000000000000000 .L0 
C:\Users\stapi\AppData\Local\Temp\cc0tbpIX.s:132    .text.utils_sha256_init:000000000000000e .L0 
C:\Users\stapi\AppData\Local\Temp\cc0tbpIX.s:139    .text.utils_sha256_free:0000000000000000 utils_sha256_free
C:\Users\stapi\AppData\Local\Temp\cc0tbpIX.s:142    .text.utils_sha256_free:0000000000000000 .L0 
C:\Users\stapi\AppData\Local\Temp\cc0tbpIX.s:144    .text.utils_sha256_free:0000000000000000 .L0 
C:\Users\stapi\AppData\Local\Temp\cc0tbpIX.s:145    .text.utils_sha256_free:0000000000000000 .L0 
C:\Users\stapi\AppData\Local\Temp\cc0tbpIX.s:147    .text.utils_sha256_free:0000000000000004 .L0 
C:\Users\stapi\AppData\Local\Temp\cc0tbpIX.s:151    .text.utils_sha256_free:0000000000000006 .L0 
C:\Users\stapi\AppData\Local\Temp\cc0tbpIX.s:157    .text.utils_sha256_free:0000000000000008 .L0 
C:\Users\stapi\AppData\Local\Temp\cc0tbpIX.s:158    .text.utils_sha256_free:0000000000000008 .L0 
C:\Users\stapi\AppData\Local\Temp\cc0tbpIX.s:160    .text.utils_sha256_free:000000000000000c .L0 
C:\Users\stapi\AppData\Local\Temp\cc0tbpIX.s:164    .text.utils_sha256_free:000000000000000e .L0 
C:\Users\stapi\AppData\Local\Temp\cc0tbpIX.s:168    .text.utils_sha256_free:0000000000000014 .L0 
C:\Users\stapi\AppData\Local\Temp\cc0tbpIX.s:175    .text.utils_sha256_clone:0000000000000000 utils_sha256_clone
C:\Users\stapi\AppData\Local\Temp\cc0tbpIX.s:178    .text.utils_sha256_clone:0000000000000000 .L0 
C:\Users\stapi\AppData\Local\Temp\cc0tbpIX.s:180    .text.utils_sha256_clone:0000000000000000 .L0 
C:\Users\stapi\AppData\Local\Temp\cc0tbpIX.s:181    .text.utils_sha256_clone:0000000000000000 .L0 
C:\Users\stapi\AppData\Local\Temp\cc0tbpIX.s:182    .text.utils_sha256_clone:0000000000000000 .L0 
C:\Users\stapi\AppData\Local\Temp\cc0tbpIX.s:185    .text.utils_sha256_clone:000000000000000c .L0 
C:\Users\stapi\AppData\Local\Temp\cc0tbpIX.s:192    .text.utils_sha256_starts:0000000000000000 utils_sha256_starts
C:\Users\stapi\AppData\Local\Temp\cc0tbpIX.s:195    .text.utils_sha256_starts:0000000000000000 .L0 
C:\Users\stapi\AppData\Local\Temp\cc0tbpIX.s:197    .text.utils_sha256_starts:0000000000000000 .L0 
C:\Users\stapi\AppData\Local\Temp\cc0tbpIX.s:198    .text.utils_sha256_starts:0000000000000000 .L0 
C:\Users\stapi\AppData\Local\Temp\cc0tbpIX.s:199    .text.utils_sha256_starts:0000000000000000 .L0 
C:\Users\stapi\AppData\Local\Temp\cc0tbpIX.s:204    .text.utils_sha256_starts:000000000000000c .L0 
C:\Users\stapi\AppData\Local\Temp\cc0tbpIX.s:211    .text.utils_sha256_process:0000000000000000 utils_sha256_process
C:\Users\stapi\AppData\Local\Temp\cc0tbpIX.s:214    .text.utils_sha256_process:0000000000000000 .L0 
C:\Users\stapi\AppData\Local\Temp\cc0tbpIX.s:216    .text.utils_sha256_process:0000000000000000 .L0 
C:\Users\stapi\AppData\Local\Temp\cc0tbpIX.s:217    .text.utils_sha256_process:0000000000000000 .L0 
C:\Users\stapi\AppData\Local\Temp\cc0tbpIX.s:218    .text.utils_sha256_process:0000000000000008 .L0 
C:\Users\stapi\AppData\Local\Temp\cc0tbpIX.s:219    .text.utils_sha256_process:0000000000000008 .L0 
C:\Users\stapi\AppData\Local\Temp\cc0tbpIX.s:220    .text.utils_sha256_process:0000000000000008 .L0 
C:\Users\stapi\AppData\Local\Temp\cc0tbpIX.s:221    .text.utils_sha256_process:0000000000000008 .L0 
C:\Users\stapi\AppData\Local\Temp\cc0tbpIX.s:222    .text.utils_sha256_process:0000000000000008 .L0 
C:\Users\stapi\AppData\Local\Temp\cc0tbpIX.s:223    .text.utils_sha256_process:0000000000000008 .L0 
C:\Users\stapi\AppData\Local\Temp\cc0tbpIX.s:224    .text.utils_sha256_process:0000000000000008 .L0 
C:\Users\stapi\AppData\Local\Temp\cc0tbpIX.s:225    .text.utils_sha256_process:0000000000000008 .L0 
C:\Users\stapi\AppData\Local\Temp\cc0tbpIX.s:226    .text.utils_sha256_process:0000000000000008 .L0 
C:\Users\stapi\AppData\Local\Temp\cc0tbpIX.s:227    .text.utils_sha256_process:0000000000000008 .L0 
C:\Users\stapi\AppData\Local\Temp\cc0tbpIX.s:228    .text.utils_sha256_process:0000000000000008 .L0 
C:\Users\stapi\AppData\Local\Temp\cc0tbpIX.s:229    .text.utils_sha256_process:0000000000000008 .L0 
C:\Users\stapi\AppData\Local\Temp\cc0tbpIX.s:230    .text.utils_sha256_process:0000000000000008 .L0 
C:\Users\stapi\AppData\Local\Temp\cc0tbpIX.s:231    .text.utils_sha256_process:0000000000000008 .L0 
C:\Users\stapi\AppData\Local\Temp\cc0tbpIX.s:233    .text.utils_sha256_process:0000000000000008 .L0 
C:\Users\stapi\AppData\Local\Temp\cc0tbpIX.s:234    .text.utils_sha256_process:0000000000000008 .L0 
C:\Users\stapi\AppData\Local\Temp\cc0tbpIX.s:235    .text.utils_sha256_process:0000000000000008 .L0 
C:\Users\stapi\AppData\Local\Temp\cc0tbpIX.s:236    .text.utils_sha256_process:0000000000000008 .L0 
C:\Users\stapi\AppData\Local\Temp\cc0tbpIX.s:237    .text.utils_sha256_process:0000000000000008 .L0 
C:\Users\stapi\AppData\Local\Temp\cc0tbpIX.s:239    .text.utils_sha256_process:000000000000000c .L0 
C:\Users\stapi\AppData\Local\Temp\cc0tbpIX.s:241    .text.utils_sha256_process:0000000000000010 .L0 
C:\Users\stapi\AppData\Local\Temp\cc0tbpIX.s:243    .text.utils_sha256_process:0000000000000014 .L0 
C:\Users\stapi\AppData\Local\Temp\cc0tbpIX.s:245    .text.utils_sha256_process:0000000000000018 .L0 
C:\Users\stapi\AppData\Local\Temp\cc0tbpIX.s:247    .text.utils_sha256_process:000000000000001a .L0 
C:\Users\stapi\AppData\Local\Temp\cc0tbpIX.s:249    .text.utils_sha256_process:000000000000001e .L0 
C:\Users\stapi\AppData\Local\Temp\cc0tbpIX.s:251    .text.utils_sha256_process:0000000000000022 .L0 
C:\Users\stapi\AppData\Local\Temp\cc0tbpIX.s:253    .text.utils_sha256_process:0000000000000024 .L0 
C:\Users\stapi\AppData\Local\Temp\cc0tbpIX.s:255    .text.utils_sha256_process:0000000000000026 .L0 
C:\Users\stapi\AppData\Local\Temp\cc0tbpIX.s:258    .text.utils_sha256_process:000000000000002a .L0 
C:\Users\stapi\AppData\Local\Temp\cc0tbpIX.s:259    .text.utils_sha256_process:000000000000002c .L0 
C:\Users\stapi\AppData\Local\Temp\cc0tbpIX.s:261    .text.utils_sha256_process:000000000000002c .L0 
C:\Users\stapi\AppData\Local\Temp\cc0tbpIX.s:263    .text.utils_sha256_process:000000000000002e .L0 
C:\Users\stapi\AppData\Local\Temp\cc0tbpIX.s:266    .text.utils_sha256_process:0000000000000032 .L0 
C:\Users\stapi\AppData\Local\Temp\cc0tbpIX.s:267    .text.utils_sha256_process:0000000000000032 .L0 
C:\Users\stapi\AppData\Local\Temp\cc0tbpIX.s:268    .text.utils_sha256_process:0000000000000032 .L0 
C:\Users\stapi\AppData\Local\Temp\cc0tbpIX.s:269    .text.utils_sha256_process:0000000000000032 .L0 
C:\Users\stapi\AppData\Local\Temp\cc0tbpIX.s:270    .text.utils_sha256_process:0000000000000032 .L0 
C:\Users\stapi\AppData\Local\Temp\cc0tbpIX.s:271    .text.utils_sha256_process:0000000000000032 .L0 
C:\Users\stapi\AppData\Local\Temp\cc0tbpIX.s:272    .text.utils_sha256_process:0000000000000032 .L0 
C:\Users\stapi\AppData\Local\Temp\cc0tbpIX.s:273    .text.utils_sha256_process:0000000000000032 .L0 
C:\Users\stapi\AppData\Local\Temp\cc0tbpIX.s:274    .text.utils_sha256_process:0000000000000032 .L0 
C:\Users\stapi\AppData\Local\Temp\cc0tbpIX.s:275    .text.utils_sha256_process:0000000000000032 .L0 
C:\Users\stapi\AppData\Local\Temp\cc0tbpIX.s:277    .text.utils_sha256_process:0000000000000034 .L0 
C:\Users\stapi\AppData\Local\Temp\cc0tbpIX.s:281    .text.utils_sha256_process:0000000000000038 .L0 
C:\Users\stapi\AppData\Local\Temp\cc0tbpIX.s:286    .text.utils_sha256_process:0000000000000040 .L0 
C:\Users\stapi\AppData\Local\Temp\cc0tbpIX.s:287    .text.utils_sha256_process:0000000000000040 .L0 
C:\Users\stapi\AppData\Local\Temp\cc0tbpIX.s:288    .text.utils_sha256_process:0000000000000040 .L0 
C:\Users\stapi\AppData\Local\Temp\cc0tbpIX.s:291    .text.utils_sha256_process:0000000000000048 .L0 
C:\Users\stapi\AppData\Local\Temp\cc0tbpIX.s:293    .text.utils_sha256_process:000000000000004c .L0 
C:\Users\stapi\AppData\Local\Temp\cc0tbpIX.s:296    .text.utils_sha256_process:0000000000000052 .L0 
C:\Users\stapi\AppData\Local\Temp\cc0tbpIX.s:298    .text.utils_sha256_process:0000000000000054 .L0 
C:\Users\stapi\AppData\Local\Temp\cc0tbpIX.s:299    .text.utils_sha256_process:0000000000000054 .L0 
C:\Users\stapi\AppData\Local\Temp\cc0tbpIX.s:304    .text.utils_sha256_process:0000000000000060 .L0 
C:\Users\stapi\AppData\Local\Temp\cc0tbpIX.s:306    .text.utils_sha256_process:0000000000000064 .L0 
C:\Users\stapi\AppData\Local\Temp\cc0tbpIX.s:309    .text.utils_sha256_process:0000000000000068 .L0 
C:\Users\stapi\AppData\Local\Temp\cc0tbpIX.s:311    .text.utils_sha256_process:000000000000006a .L0 
C:\Users\stapi\AppData\Local\Temp\cc0tbpIX.s:313    .text.utils_sha256_process:000000000000006c .L0 
C:\Users\stapi\AppData\Local\Temp\cc0tbpIX.s:315    .text.utils_sha256_process:0000000000000070 .L0 
C:\Users\stapi\AppData\Local\Temp\cc0tbpIX.s:317    .text.utils_sha256_process:0000000000000072 .L0 
C:\Users\stapi\AppData\Local\Temp\cc0tbpIX.s:320    .text.utils_sha256_process:0000000000000078 .L0 
C:\Users\stapi\AppData\Local\Temp\cc0tbpIX.s:322    .text.utils_sha256_process:000000000000007a .L0 
C:\Users\stapi\AppData\Local\Temp\cc0tbpIX.s:324    .text.utils_sha256_process:000000000000007e .L0 
C:\Users\stapi\AppData\Local\Temp\cc0tbpIX.s:327    .text.utils_sha256_process:0000000000000080 .L0 
C:\Users\stapi\AppData\Local\Temp\cc0tbpIX.s:328    .text.utils_sha256_process:0000000000000080 .L0 
C:\Users\stapi\AppData\Local\Temp\cc0tbpIX.s:333    .text.utils_sha256_process:000000000000008c .L0 
C:\Users\stapi\AppData\Local\Temp\cc0tbpIX.s:338    .text.utils_sha256_process:000000000000009a .L0 
C:\Users\stapi\AppData\Local\Temp\cc0tbpIX.s:341    .text.utils_sha256_process:000000000000009c .L0 
C:\Users\stapi\AppData\Local\Temp\cc0tbpIX.s:342    .text.utils_sha256_process:000000000000009c .L0 
C:\Users\stapi\AppData\Local\Temp\cc0tbpIX.s:343    .text.utils_sha256_process:000000000000009c .L0 
C:\Users\stapi\AppData\Local\Temp\cc0tbpIX.s:344    .text.utils_sha256_process:000000000000009c .L0 
C:\Users\stapi\AppData\Local\Temp\cc0tbpIX.s:345    .text.utils_sha256_process:000000000000009c .L0 
C:\Users\stapi\AppData\Local\Temp\cc0tbpIX.s:349    .text.utils_sha256_process:00000000000000a2 .L0 
C:\Users\stapi\AppData\Local\Temp\cc0tbpIX.s:352    .text.utils_sha256_process:00000000000000a6 .L0 
C:\Users\stapi\AppData\Local\Temp\cc0tbpIX.s:353    .text.utils_sha256_process:00000000000000a6 .L0 
C:\Users\stapi\AppData\Local\Temp\cc0tbpIX.s:354    .text.utils_sha256_process:00000000000000a6 .L0 
C:\Users\stapi\AppData\Local\Temp\cc0tbpIX.s:355    .text.utils_sha256_process:00000000000000a6 .L0 
C:\Users\stapi\AppData\Local\Temp\cc0tbpIX.s:356    .text.utils_sha256_process:00000000000000a6 .L0 
C:\Users\stapi\AppData\Local\Temp\cc0tbpIX.s:359    .text.utils_sha256_process:00000000000000a8 .L0 
C:\Users\stapi\AppData\Local\Temp\cc0tbpIX.s:360    .text.utils_sha256_process:00000000000000a8 .L0 
C:\Users\stapi\AppData\Local\Temp\cc0tbpIX.s:364    .text.utils_sha256_process:00000000000000ac .L0 
C:\Users\stapi\AppData\Local\Temp\cc0tbpIX.s:369    .text.utils_sha256_process:00000000000000b2 .L0 
C:\Users\stapi\AppData\Local\Temp\cc0tbpIX.s:372    .text.utils_sha256_process:00000000000000b4 .L0 
C:\Users\stapi\AppData\Local\Temp\cc0tbpIX.s:374    .text.utils_sha256_process:00000000000000b6 .L0 
C:\Users\stapi\AppData\Local\Temp\cc0tbpIX.s:377    .text.utils_sha256_process:00000000000000ba .L0 
C:\Users\stapi\AppData\Local\Temp\cc0tbpIX.s:379    .text.utils_sha256_process:00000000000000bc .L0 
C:\Users\stapi\AppData\Local\Temp\cc0tbpIX.s:382    .text.utils_sha256_process:00000000000000be .L0 
C:\Users\stapi\AppData\Local\Temp\cc0tbpIX.s:386    .text.utils_sha256_process:00000000000000c2 .L0 
C:\Users\stapi\AppData\Local\Temp\cc0tbpIX.s:387    .text.utils_sha256_process:00000000000000c2 .L0 
C:\Users\stapi\AppData\Local\Temp\cc0tbpIX.s:389    .text.utils_sha256_process:00000000000000c4 .L0 
C:\Users\stapi\AppData\Local\Temp\cc0tbpIX.s:392    .text.utils_sha256_process:00000000000000c6 .L0 
C:\Users\stapi\AppData\Local\Temp\cc0tbpIX.s:394    .text.utils_sha256_process:00000000000000ca .L0 
C:\Users\stapi\AppData\Local\Temp\cc0tbpIX.s:398    .text.utils_sha256_process:00000000000000d2 .L0 
C:\Users\stapi\AppData\Local\Temp\cc0tbpIX.s:399    .text.utils_sha256_process:00000000000000d2 .L0 
C:\Users\stapi\AppData\Local\Temp\cc0tbpIX.s:402    .text.utils_sha256_process:00000000000000da .L0 
C:\Users\stapi\AppData\Local\Temp\cc0tbpIX.s:406    .text.utils_sha256_process:00000000000000e6 .L0 
C:\Users\stapi\AppData\Local\Temp\cc0tbpIX.s:409    .text.utils_sha256_process:00000000000000ec .L0 
C:\Users\stapi\AppData\Local\Temp\cc0tbpIX.s:412    .text.utils_sha256_process:00000000000000f4 .L0 
C:\Users\stapi\AppData\Local\Temp\cc0tbpIX.s:417    .text.utils_sha256_process:00000000000000f8 .L0 
C:\Users\stapi\AppData\Local\Temp\cc0tbpIX.s:419    .text.utils_sha256_process:00000000000000fc .L0 
C:\Users\stapi\AppData\Local\Temp\cc0tbpIX.s:421    .text.utils_sha256_process:0000000000000100 .L0 
C:\Users\stapi\AppData\Local\Temp\cc0tbpIX.s:424    .text.utils_sha256_process:0000000000000108 .L0 
C:\Users\stapi\AppData\Local\Temp\cc0tbpIX.s:427    .text.utils_sha256_process:0000000000000110 .L0 
C:\Users\stapi\AppData\Local\Temp\cc0tbpIX.s:430    .text.utils_sha256_process:0000000000000114 .L0 
C:\Users\stapi\AppData\Local\Temp\cc0tbpIX.s:431    .text.utils_sha256_process:0000000000000114 .L0 
C:\Users\stapi\AppData\Local\Temp\cc0tbpIX.s:432    .text.utils_sha256_process:0000000000000114 .L0 
C:\Users\stapi\AppData\Local\Temp\cc0tbpIX.s:435    .text.utils_sha256_process:0000000000000118 .L0 
C:\Users\stapi\AppData\Local\Temp\cc0tbpIX.s:436    .text.utils_sha256_process:0000000000000118 .L0 
C:\Users\stapi\AppData\Local\Temp\cc0tbpIX.s:438    .text.utils_sha256_process:000000000000011a .L0 
C:\Users\stapi\AppData\Local\Temp\cc0tbpIX.s:441    .text.utils_sha256_process:000000000000011e .L0 
C:\Users\stapi\AppData\Local\Temp\cc0tbpIX.s:444    .text.utils_sha256_process:0000000000000122 .L0 
C:\Users\stapi\AppData\Local\Temp\cc0tbpIX.s:447    .text.utils_sha256_process:0000000000000126 .L0 
C:\Users\stapi\AppData\Local\Temp\cc0tbpIX.s:455    .text.utils_sha256_process:0000000000000138 .L0 
C:\Users\stapi\AppData\Local\Temp\cc0tbpIX.s:458    .text.utils_sha256_process:000000000000013c .L0 
C:\Users\stapi\AppData\Local\Temp\cc0tbpIX.s:463    .text.utils_sha256_process:0000000000000144 .L0 
C:\Users\stapi\AppData\Local\Temp\cc0tbpIX.s:465    .text.utils_sha256_process:0000000000000148 .L0 
C:\Users\stapi\AppData\Local\Temp\cc0tbpIX.s:469    .text.utils_sha256_process:0000000000000152 .L0 
C:\Users\stapi\AppData\Local\Temp\cc0tbpIX.s:474    .text.utils_sha256_process:0000000000000162 .L0 
C:\Users\stapi\AppData\Local\Temp\cc0tbpIX.s:479    .text.utils_sha256_process:0000000000000172 .L0 
C:\Users\stapi\AppData\Local\Temp\cc0tbpIX.s:482    .text.utils_sha256_process:0000000000000174 .L0 
C:\Users\stapi\AppData\Local\Temp\cc0tbpIX.s:483    .text.utils_sha256_process:0000000000000174 .L0 
C:\Users\stapi\AppData\Local\Temp\cc0tbpIX.s:486    .text.utils_sha256_process:0000000000000176 .L0 
C:\Users\stapi\AppData\Local\Temp\cc0tbpIX.s:487    .text.utils_sha256_process:0000000000000176 .L0 
C:\Users\stapi\AppData\Local\Temp\cc0tbpIX.s:488    .text.utils_sha256_process:0000000000000176 .L0 
C:\Users\stapi\AppData\Local\Temp\cc0tbpIX.s:489    .text.utils_sha256_process:0000000000000176 .L0 
C:\Users\stapi\AppData\Local\Temp\cc0tbpIX.s:490    .text.utils_sha256_process:0000000000000176 .L0 
C:\Users\stapi\AppData\Local\Temp\cc0tbpIX.s:493    .text.utils_sha256_process:0000000000000178 .L0 
C:\Users\stapi\AppData\Local\Temp\cc0tbpIX.s:496    .text.utils_sha256_process:000000000000017c .L0 
C:\Users\stapi\AppData\Local\Temp\cc0tbpIX.s:497    .text.utils_sha256_process:000000000000017c .L0 
C:\Users\stapi\AppData\Local\Temp\cc0tbpIX.s:498    .text.utils_sha256_process:000000000000017c .L0 
C:\Users\stapi\AppData\Local\Temp\cc0tbpIX.s:499    .text.utils_sha256_process:000000000000017c .L0 
C:\Users\stapi\AppData\Local\Temp\cc0tbpIX.s:500    .text.utils_sha256_process:000000000000017c .L0 
C:\Users\stapi\AppData\Local\Temp\cc0tbpIX.s:501    .text.utils_sha256_process:000000000000017c .L0 
C:\Users\stapi\AppData\Local\Temp\cc0tbpIX.s:502    .text.utils_sha256_process:000000000000017c .L0 
C:\Users\stapi\AppData\Local\Temp\cc0tbpIX.s:507    .text.utils_sha256_process:0000000000000186 .L0 
C:\Users\stapi\AppData\Local\Temp\cc0tbpIX.s:508    .text.utils_sha256_process:0000000000000186 .L0 
C:\Users\stapi\AppData\Local\Temp\cc0tbpIX.s:513    .text.utils_sha256_process:000000000000018a .L0 
C:\Users\stapi\AppData\Local\Temp\cc0tbpIX.s:515    .text.utils_sha256_process:000000000000018c .L0 
C:\Users\stapi\AppData\Local\Temp\cc0tbpIX.s:517    .text.utils_sha256_process:000000000000018e .L0 
C:\Users\stapi\AppData\Local\Temp\cc0tbpIX.s:518    .text.utils_sha256_process:000000000000018e .L0 
C:\Users\stapi\AppData\Local\Temp\cc0tbpIX.s:522    .text.utils_sha256_process:0000000000000192 .L0 
C:\Users\stapi\AppData\Local\Temp\cc0tbpIX.s:523    .text.utils_sha256_process:0000000000000192 .L0 
C:\Users\stapi\AppData\Local\Temp\cc0tbpIX.s:525    .text.utils_sha256_process:0000000000000194 .L0 
C:\Users\stapi\AppData\Local\Temp\cc0tbpIX.s:527    .text.utils_sha256_process:0000000000000196 .L0 
C:\Users\stapi\AppData\Local\Temp\cc0tbpIX.s:530    .text.utils_sha256_process:000000000000019a .L0 
C:\Users\stapi\AppData\Local\Temp\cc0tbpIX.s:532    .text.utils_sha256_process:000000000000019c .L0 
C:\Users\stapi\AppData\Local\Temp\cc0tbpIX.s:535    .text.utils_sha256_process:000000000000019e .L0 
C:\Users\stapi\AppData\Local\Temp\cc0tbpIX.s:537    .text.utils_sha256_process:00000000000001a0 .L0 
C:\Users\stapi\AppData\Local\Temp\cc0tbpIX.s:540    .text.utils_sha256_process:00000000000001a2 .L0 
C:\Users\stapi\AppData\Local\Temp\cc0tbpIX.s:542    .text.utils_sha256_process:00000000000001a4 .L0 
C:\Users\stapi\AppData\Local\Temp\cc0tbpIX.s:545    .text.utils_sha256_process:00000000000001a6 .L0 
C:\Users\stapi\AppData\Local\Temp\cc0tbpIX.s:547    .text.utils_sha256_process:00000000000001aa .L0 
C:\Users\stapi\AppData\Local\Temp\cc0tbpIX.s:548    .text.utils_sha256_process:00000000000001aa .L0 
C:\Users\stapi\AppData\Local\Temp\cc0tbpIX.s:551    .text.utils_sha256_process:00000000000001ac .L0 
C:\Users\stapi\AppData\Local\Temp\cc0tbpIX.s:553    .text.utils_sha256_process:00000000000001ae .L0 
C:\Users\stapi\AppData\Local\Temp\cc0tbpIX.s:555    .text.utils_sha256_process:00000000000001b2 .L0 
C:\Users\stapi\AppData\Local\Temp\cc0tbpIX.s:556    .text.utils_sha256_process:00000000000001b2 .L0 
C:\Users\stapi\AppData\Local\Temp\cc0tbpIX.s:557    .text.utils_sha256_process:00000000000001b2 .L0 
C:\Users\stapi\AppData\Local\Temp\cc0tbpIX.s:559    .text.utils_sha256_process:00000000000001b4 .L0 
C:\Users\stapi\AppData\Local\Temp\cc0tbpIX.s:560    .text.utils_sha256_process:00000000000001b4 .L0 
C:\Users\stapi\AppData\Local\Temp\cc0tbpIX.s:563    .text.utils_sha256_process:00000000000001b6 .L0 
C:\Users\stapi\AppData\Local\Temp\cc0tbpIX.s:565    .text.utils_sha256_process:00000000000001b8 .L0 
C:\Users\stapi\AppData\Local\Temp\cc0tbpIX.s:566    .text.utils_sha256_process:00000000000001b8 .L0 
C:\Users\stapi\AppData\Local\Temp\cc0tbpIX.s:569    .text.utils_sha256_process:00000000000001bc .L0 
C:\Users\stapi\AppData\Local\Temp\cc0tbpIX.s:570    .text.utils_sha256_process:00000000000001bc .L0 
C:\Users\stapi\AppData\Local\Temp\cc0tbpIX.s:571    .text.utils_sha256_process:00000000000001be .L0 
C:\Users\stapi\AppData\Local\Temp\cc0tbpIX.s:572    .text.utils_sha256_process:00000000000001be .L0 
C:\Users\stapi\AppData\Local\Temp\cc0tbpIX.s:574    .text.utils_sha256_process:00000000000001c6 .L0 
C:\Users\stapi\AppData\Local\Temp\cc0tbpIX.s:575    .text.utils_sha256_process:00000000000001c6 .L0 
C:\Users\stapi\AppData\Local\Temp\cc0tbpIX.s:576    .text.utils_sha256_process:00000000000001c6 .L0 
C:\Users\stapi\AppData\Local\Temp\cc0tbpIX.s:577    .text.utils_sha256_process:00000000000001c6 .L0 
C:\Users\stapi\AppData\Local\Temp\cc0tbpIX.s:578    .text.utils_sha256_process:00000000000001c6 .L0 
C:\Users\stapi\AppData\Local\Temp\cc0tbpIX.s:579    .text.utils_sha256_process:00000000000001c6 .L0 
C:\Users\stapi\AppData\Local\Temp\cc0tbpIX.s:580    .text.utils_sha256_process:00000000000001c6 .L0 
C:\Users\stapi\AppData\Local\Temp\cc0tbpIX.s:581    .text.utils_sha256_process:00000000000001c6 .L0 
C:\Users\stapi\AppData\Local\Temp\cc0tbpIX.s:582    .text.utils_sha256_process:00000000000001c6 .L0 
C:\Users\stapi\AppData\Local\Temp\cc0tbpIX.s:583    .text.utils_sha256_process:00000000000001c6 .L0 
C:\Users\stapi\AppData\Local\Temp\cc0tbpIX.s:584    .text.utils_sha256_process:00000000000001c6 .L0 
C:\Users\stapi\AppData\Local\Temp\cc0tbpIX.s:585    .text.utils_sha256_process:00000000000001c6 .L0 
C:\Users\stapi\AppData\Local\Temp\cc0tbpIX.s:586    .text.utils_sha256_process:00000000000001c6 .L0 
C:\Users\stapi\AppData\Local\Temp\cc0tbpIX.s:587    .text.utils_sha256_process:00000000000001c6 .L0 
C:\Users\stapi\AppData\Local\Temp\cc0tbpIX.s:590    .text.utils_sha256_process:00000000000001c6 .L0 
C:\Users\stapi\AppData\Local\Temp\cc0tbpIX.s:599    .text.utils_sha256_process:00000000000001ce .L0 
C:\Users\stapi\AppData\Local\Temp\cc0tbpIX.s:602    .text.utils_sha256_process:00000000000001d0 .L0 
C:\Users\stapi\AppData\Local\Temp\cc0tbpIX.s:616    .text.utils_sha256_process:00000000000001dc .L0 
C:\Users\stapi\AppData\Local\Temp\cc0tbpIX.s:619    .text.utils_sha256_process:00000000000001de .L0 
C:\Users\stapi\AppData\Local\Temp\cc0tbpIX.s:622    .text.utils_sha256_process:00000000000001e2 .L0 
C:\Users\stapi\AppData\Local\Temp\cc0tbpIX.s:629    .text.utils_sha256_update:0000000000000000 utils_sha256_update
C:\Users\stapi\AppData\Local\Temp\cc0tbpIX.s:632    .text.utils_sha256_update:0000000000000000 .L0 
C:\Users\stapi\AppData\Local\Temp\cc0tbpIX.s:634    .text.utils_sha256_update:0000000000000000 .L0 
C:\Users\stapi\AppData\Local\Temp\cc0tbpIX.s:635    .text.utils_sha256_update:0000000000000000 .L0 
C:\Users\stapi\AppData\Local\Temp\cc0tbpIX.s:636    .text.utils_sha256_update:0000000000000000 .L0 
C:\Users\stapi\AppData\Local\Temp\cc0tbpIX.s:637    .text.utils_sha256_update:0000000000000000 .L0 
C:\Users\stapi\AppData\Local\Temp\cc0tbpIX.s:639    .text.utils_sha256_update:0000000000000002 .L0 
C:\Users\stapi\AppData\Local\Temp\cc0tbpIX.s:640    .text.utils_sha256_update:000000000000000a .L0 
C:\Users\stapi\AppData\Local\Temp\cc0tbpIX.s:641    .text.utils_sha256_update:000000000000000a .L0 
C:\Users\stapi\AppData\Local\Temp\cc0tbpIX.s:642    .text.utils_sha256_update:000000000000000a .L0 
C:\Users\stapi\AppData\Local\Temp\cc0tbpIX.s:643    .text.utils_sha256_update:000000000000000a .L0 
C:\Users\stapi\AppData\Local\Temp\cc0tbpIX.s:644    .text.utils_sha256_update:000000000000000a .L0 
C:\Users\stapi\AppData\Local\Temp\cc0tbpIX.s:645    .text.utils_sha256_update:000000000000000a .L0 
C:\Users\stapi\AppData\Local\Temp\cc0tbpIX.s:646    .text.utils_sha256_update:000000000000000a .L0 
C:\Users\stapi\AppData\Local\Temp\cc0tbpIX.s:647    .text.utils_sha256_update:000000000000000a .L0 
C:\Users\stapi\AppData\Local\Temp\cc0tbpIX.s:650    .text.utils_sha256_update:000000000000000c .L0 
C:\Users\stapi\AppData\Local\Temp\cc0tbpIX.s:651    .text.utils_sha256_update:000000000000000c .L0 
C:\Users\stapi\AppData\Local\Temp\cc0tbpIX.s:654    .text.utils_sha256_update:0000000000000010 .L0 
C:\Users\stapi\AppData\Local\Temp\cc0tbpIX.s:658    .text.utils_sha256_update:0000000000000012 .L0 
C:\Users\stapi\AppData\Local\Temp\cc0tbpIX.s:662    .text.utils_sha256_update:0000000000000018 .L0 
C:\Users\stapi\AppData\Local\Temp\cc0tbpIX.s:663    .text.utils_sha256_update:0000000000000018 .L0 
C:\Users\stapi\AppData\Local\Temp\cc0tbpIX.s:665    .text.utils_sha256_update:000000000000001c .L0 
C:\Users\stapi\AppData\Local\Temp\cc0tbpIX.s:668    .text.utils_sha256_update:0000000000000020 .L0 
C:\Users\stapi\AppData\Local\Temp\cc0tbpIX.s:669    .text.utils_sha256_update:0000000000000020 .L0 
C:\Users\stapi\AppData\Local\Temp\cc0tbpIX.s:671    .text.utils_sha256_update:0000000000000024 .L0 
C:\Users\stapi\AppData\Local\Temp\cc0tbpIX.s:672    .text.utils_sha256_update:0000000000000024 .L0 
C:\Users\stapi\AppData\Local\Temp\cc0tbpIX.s:674    .text.utils_sha256_update:0000000000000028 .L0 
C:\Users\stapi\AppData\Local\Temp\cc0tbpIX.s:677    .text.utils_sha256_update:000000000000002c .L0 
C:\Users\stapi\AppData\Local\Temp\cc0tbpIX.s:680    .text.utils_sha256_update:0000000000000030 .L0 
C:\Users\stapi\AppData\Local\Temp\cc0tbpIX.s:681    .text.utils_sha256_update:0000000000000030 .L0 
C:\Users\stapi\AppData\Local\Temp\cc0tbpIX.s:683    .text.utils_sha256_update:0000000000000032 .L0 
C:\Users\stapi\AppData\Local\Temp\cc0tbpIX.s:685    .text.utils_sha256_update:0000000000000036 .L0 
C:\Users\stapi\AppData\Local\Temp\cc0tbpIX.s:690    .text.utils_sha256_update:0000000000000040 .L0 
C:\Users\stapi\AppData\Local\Temp\cc0tbpIX.s:691    .text.utils_sha256_update:0000000000000040 .L0 
C:\Users\stapi\AppData\Local\Temp\cc0tbpIX.s:694    .text.utils_sha256_update:0000000000000044 .L0 
C:\Users\stapi\AppData\Local\Temp\cc0tbpIX.s:697    .text.utils_sha256_update:0000000000000048 .L0 
C:\Users\stapi\AppData\Local\Temp\cc0tbpIX.s:703    .text.utils_sha256_update:0000000000000056 .L0 
C:\Users\stapi\AppData\Local\Temp\cc0tbpIX.s:704    .text.utils_sha256_update:0000000000000056 .L0 
C:\Users\stapi\AppData\Local\Temp\cc0tbpIX.s:707    .text.utils_sha256_update:000000000000005c .L0 
C:\Users\stapi\AppData\Local\Temp\cc0tbpIX.s:710    .text.utils_sha256_update:000000000000005e .L0 
C:\Users\stapi\AppData\Local\Temp\cc0tbpIX.s:711    .text.utils_sha256_update:000000000000005e .L0 
C:\Users\stapi\AppData\Local\Temp\cc0tbpIX.s:714    .text.utils_sha256_update:0000000000000060 .L0 
C:\Users\stapi\AppData\Local\Temp\cc0tbpIX.s:720    .text.utils_sha256_update:0000000000000068 .L0 
C:\Users\stapi\AppData\Local\Temp\cc0tbpIX.s:726    .text.utils_sha256_update:000000000000006e .L0 
C:\Users\stapi\AppData\Local\Temp\cc0tbpIX.s:732    .text.utils_sha256_update:0000000000000076 .L0 
C:\Users\stapi\AppData\Local\Temp\cc0tbpIX.s:740    .text.utils_sha256_update:000000000000008c .L0 
C:\Users\stapi\AppData\Local\Temp\cc0tbpIX.s:741    .text.utils_sha256_update:000000000000008c .L0 
C:\Users\stapi\AppData\Local\Temp\cc0tbpIX.s:743    .text.utils_sha256_update:000000000000008e .L0 
C:\Users\stapi\AppData\Local\Temp\cc0tbpIX.s:750    .text.utils_sha256_update:000000000000009c .L0 
C:\Users\stapi\AppData\Local\Temp\cc0tbpIX.s:751    .text.utils_sha256_update:000000000000009c .L0 
C:\Users\stapi\AppData\Local\Temp\cc0tbpIX.s:763    .text.utils_sha256_update:00000000000000ae .L0 
C:\Users\stapi\AppData\Local\Temp\cc0tbpIX.s:764    .text.utils_sha256_update:00000000000000b6 .L0 
C:\Users\stapi\AppData\Local\Temp\cc0tbpIX.s:765    .text.utils_sha256_update:00000000000000b6 .L0 
C:\Users\stapi\AppData\Local\Temp\cc0tbpIX.s:766    .text.utils_sha256_update:00000000000000b6 .L0 
C:\Users\stapi\AppData\Local\Temp\cc0tbpIX.s:767    .text.utils_sha256_update:00000000000000b6 .L0 
C:\Users\stapi\AppData\Local\Temp\cc0tbpIX.s:768    .text.utils_sha256_update:00000000000000b6 .L0 
C:\Users\stapi\AppData\Local\Temp\cc0tbpIX.s:769    .text.utils_sha256_update:00000000000000b6 .L0 
C:\Users\stapi\AppData\Local\Temp\cc0tbpIX.s:770    .text.utils_sha256_update:00000000000000b6 .L0 
C:\Users\stapi\AppData\Local\Temp\cc0tbpIX.s:771    .text.utils_sha256_update:00000000000000b6 .L0 
C:\Users\stapi\AppData\Local\Temp\cc0tbpIX.s:772    .text.utils_sha256_update:00000000000000b6 .L0 
C:\Users\stapi\AppData\Local\Temp\cc0tbpIX.s:775    .text.utils_sha256_update:00000000000000b6 .L0 
C:\Users\stapi\AppData\Local\Temp\cc0tbpIX.s:779    .text.utils_sha256_update:00000000000000b6 .L0 
C:\Users\stapi\AppData\Local\Temp\cc0tbpIX.s:783    .text.utils_sha256_update:00000000000000c0 .L0 
C:\Users\stapi\AppData\Local\Temp\cc0tbpIX.s:784    .text.utils_sha256_update:00000000000000c0 .L0 
C:\Users\stapi\AppData\Local\Temp\cc0tbpIX.s:787    .text.utils_sha256_update:00000000000000c4 .L0 
C:\Users\stapi\AppData\Local\Temp\cc0tbpIX.s:790    .text.utils_sha256_update:00000000000000c8 .L0 
C:\Users\stapi\AppData\Local\Temp\cc0tbpIX.s:797    .text.utils_sha256_update:00000000000000d6 .L0 
C:\Users\stapi\AppData\Local\Temp\cc0tbpIX.s:798    .text.utils_sha256_update:00000000000000d6 .L0 
C:\Users\stapi\AppData\Local\Temp\cc0tbpIX.s:801    .text.utils_sha256_update:00000000000000d8 .L0 
C:\Users\stapi\AppData\Local\Temp\cc0tbpIX.s:802    .text.utils_sha256_update:00000000000000d8 .L0 
C:\Users\stapi\AppData\Local\Temp\cc0tbpIX.s:803    .text.utils_sha256_update:00000000000000d8 .L0 
C:\Users\stapi\AppData\Local\Temp\cc0tbpIX.s:804    .text.utils_sha256_update:00000000000000d8 .L0 
C:\Users\stapi\AppData\Local\Temp\cc0tbpIX.s:805    .text.utils_sha256_update:00000000000000d8 .L0 
C:\Users\stapi\AppData\Local\Temp\cc0tbpIX.s:806    .text.utils_sha256_update:00000000000000d8 .L0 
C:\Users\stapi\AppData\Local\Temp\cc0tbpIX.s:807    .text.utils_sha256_update:00000000000000d8 .L0 
C:\Users\stapi\AppData\Local\Temp\cc0tbpIX.s:808    .text.utils_sha256_update:00000000000000d8 .L0 
C:\Users\stapi\AppData\Local\Temp\cc0tbpIX.s:812    .text.utils_sha256_update:00000000000000da .L0 
C:\Users\stapi\AppData\Local\Temp\cc0tbpIX.s:819    .text.utils_sha256_finish:0000000000000000 utils_sha256_finish
C:\Users\stapi\AppData\Local\Temp\cc0tbpIX.s:822    .text.utils_sha256_finish:0000000000000000 .L0 
C:\Users\stapi\AppData\Local\Temp\cc0tbpIX.s:824    .text.utils_sha256_finish:0000000000000000 .L0 
C:\Users\stapi\AppData\Local\Temp\cc0tbpIX.s:825    .text.utils_sha256_finish:0000000000000000 .L0 
C:\Users\stapi\AppData\Local\Temp\cc0tbpIX.s:826    .text.utils_sha256_finish:0000000000000000 .L0 
C:\Users\stapi\AppData\Local\Temp\cc0tbpIX.s:827    .text.utils_sha256_finish:0000000000000000 .L0 
C:\Users\stapi\AppData\Local\Temp\cc0tbpIX.s:828    .text.utils_sha256_finish:0000000000000000 .L0 
C:\Users\stapi\AppData\Local\Temp\cc0tbpIX.s:830    .text.utils_sha256_finish:0000000000000004 .L0 
C:\Users\stapi\AppData\Local\Temp\cc0tbpIX.s:831    .text.utils_sha256_finish:000000000000000c .L0 
C:\Users\stapi\AppData\Local\Temp\cc0tbpIX.s:832    .text.utils_sha256_finish:000000000000000c .L0 
C:\Users\stapi\AppData\Local\Temp\cc0tbpIX.s:833    .text.utils_sha256_finish:000000000000000c .L0 
C:\Users\stapi\AppData\Local\Temp\cc0tbpIX.s:834    .text.utils_sha256_finish:000000000000000c .L0 
C:\Users\stapi\AppData\Local\Temp\cc0tbpIX.s:835    .text.utils_sha256_finish:000000000000000c .L0 
C:\Users\stapi\AppData\Local\Temp\cc0tbpIX.s:836    .text.utils_sha256_finish:000000000000000c .L0 
C:\Users\stapi\AppData\Local\Temp\cc0tbpIX.s:837    .text.utils_sha256_finish:000000000000000c .L0 
C:\Users\stapi\AppData\Local\Temp\cc0tbpIX.s:841    .text.utils_sha256_finish:0000000000000010 .L0 
C:\Users\stapi\AppData\Local\Temp\cc0tbpIX.s:842    .text.utils_sha256_finish:0000000000000010 .L0 
C:\Users\stapi\AppData\Local\Temp\cc0tbpIX.s:846    .text.utils_sha256_finish:0000000000000012 .L0 
C:\Users\stapi\AppData\Local\Temp\cc0tbpIX.s:852    .text.utils_sha256_finish:0000000000000022 .L0 
C:\Users\stapi\AppData\Local\Temp\cc0tbpIX.s:853    .text.utils_sha256_finish:0000000000000022 .L0 
C:\Users\stapi\AppData\Local\Temp\cc0tbpIX.s:854    .text.utils_sha256_finish:000000000000002a .L0 
C:\Users\stapi\AppData\Local\Temp\cc0tbpIX.s:855    .text.utils_sha256_finish:000000000000002a .L0 
C:\Users\stapi\AppData\Local\Temp\cc0tbpIX.s:856    .text.utils_sha256_finish:000000000000002a .L0 
C:\Users\stapi\AppData\Local\Temp\cc0tbpIX.s:857    .text.utils_sha256_finish:000000000000002a .L0 
C:\Users\stapi\AppData\Local\Temp\cc0tbpIX.s:858    .text.utils_sha256_finish:000000000000002a .L0 
C:\Users\stapi\AppData\Local\Temp\cc0tbpIX.s:859    .text.utils_sha256_finish:000000000000002a .L0 
C:\Users\stapi\AppData\Local\Temp\cc0tbpIX.s:860    .text.utils_sha256_finish:000000000000002a .L0 
C:\Users\stapi\AppData\Local\Temp\cc0tbpIX.s:861    .text.utils_sha256_finish:000000000000002a .L0 
C:\Users\stapi\AppData\Local\Temp\cc0tbpIX.s:864    .text.utils_sha256_finish:000000000000002a .L0 
C:\Users\stapi\AppData\Local\Temp\cc0tbpIX.s:867    .text.utils_sha256_finish:000000000000002a .L0 
C:\Users\stapi\AppData\Local\Temp\cc0tbpIX.s:868    .text.utils_sha256_finish:000000000000002a .L0 
C:\Users\stapi\AppData\Local\Temp\cc0tbpIX.s:870    .text.utils_sha256_finish:000000000000002c .L0 
C:\Users\stapi\AppData\Local\Temp\cc0tbpIX.s:873    .text.utils_sha256_finish:000000000000002e .L0 
C:\Users\stapi\AppData\Local\Temp\cc0tbpIX.s:875    .text.utils_sha256_finish:0000000000000032 .L0 
C:\Users\stapi\AppData\Local\Temp\cc0tbpIX.s:877    .text.utils_sha256_finish:0000000000000036 .L0 
C:\Users\stapi\AppData\Local\Temp\cc0tbpIX.s:880    .text.utils_sha256_finish:000000000000003e .L0 
C:\Users\stapi\AppData\Local\Temp\cc0tbpIX.s:883    .text.utils_sha256_finish:0000000000000042 .L0 
C:\Users\stapi\AppData\Local\Temp\cc0tbpIX.s:884    .text.utils_sha256_finish:0000000000000042 .L0 
C:\Users\stapi\AppData\Local\Temp\cc0tbpIX.s:887    .text.utils_sha256_finish:0000000000000046 .L0 
C:\Users\stapi\AppData\Local\Temp\cc0tbpIX.s:888    .text.utils_sha256_finish:0000000000000046 .L0 
C:\Users\stapi\AppData\Local\Temp\cc0tbpIX.s:890    .text.utils_sha256_finish:0000000000000048 .L0 
C:\Users\stapi\AppData\Local\Temp\cc0tbpIX.s:891    .text.utils_sha256_finish:0000000000000048 .L0 
C:\Users\stapi\AppData\Local\Temp\cc0tbpIX.s:894    .text.utils_sha256_finish:0000000000000050 .L0 
C:\Users\stapi\AppData\Local\Temp\cc0tbpIX.s:897    .text.utils_sha256_finish:0000000000000054 .L0 
C:\Users\stapi\AppData\Local\Temp\cc0tbpIX.s:899    .text.utils_sha256_finish:0000000000000058 .L0 
C:\Users\stapi\AppData\Local\Temp\cc0tbpIX.s:900    .text.utils_sha256_finish:0000000000000058 .L0 
C:\Users\stapi\AppData\Local\Temp\cc0tbpIX.s:903    .text.utils_sha256_finish:0000000000000060 .L0 
C:\Users\stapi\AppData\Local\Temp\cc0tbpIX.s:904    .text.utils_sha256_finish:0000000000000060 .L0 
C:\Users\stapi\AppData\Local\Temp\cc0tbpIX.s:906    .text.utils_sha256_finish:0000000000000064 .L0 
C:\Users\stapi\AppData\Local\Temp\cc0tbpIX.s:912    .text.utils_sha256_finish:000000000000006a .L0 
C:\Users\stapi\AppData\Local\Temp\cc0tbpIX.s:916    .text.utils_sha256_finish:0000000000000072 .L0 
C:\Users\stapi\AppData\Local\Temp\cc0tbpIX.s:917    .text.utils_sha256_finish:0000000000000072 .L0 
C:\Users\stapi\AppData\Local\Temp\cc0tbpIX.s:918    .text.utils_sha256_finish:0000000000000072 .L0 
C:\Users\stapi\AppData\Local\Temp\cc0tbpIX.s:921    .text.utils_sha256_finish:0000000000000076 .L0 
C:\Users\stapi\AppData\Local\Temp\cc0tbpIX.s:923    .text.utils_sha256_finish:0000000000000078 .L0 
C:\Users\stapi\AppData\Local\Temp\cc0tbpIX.s:938    .text.utils_sha256_finish:00000000000000ac .L0 
C:\Users\stapi\AppData\Local\Temp\cc0tbpIX.s:943    .text.utils_sha256_finish:00000000000000b6 .L0 
C:\Users\stapi\AppData\Local\Temp\cc0tbpIX.s:944    .text.utils_sha256_finish:00000000000000b6 .L0 
C:\Users\stapi\AppData\Local\Temp\cc0tbpIX.s:946    .text.utils_sha256_finish:00000000000000b6 .L0 
C:\Users\stapi\AppData\Local\Temp\cc0tbpIX.s:947    .text.utils_sha256_finish:00000000000000b6 .L0 
C:\Users\stapi\AppData\Local\Temp\cc0tbpIX.s:950    .text.utils_sha256_finish:00000000000000b8 .L0 
C:\Users\stapi\AppData\Local\Temp\cc0tbpIX.s:954    .text.utils_sha256_finish:00000000000000bc .L0 
C:\Users\stapi\AppData\Local\Temp\cc0tbpIX.s:959    .text.utils_sha256_finish:00000000000000c0 .L0 
C:\Users\stapi\AppData\Local\Temp\cc0tbpIX.s:960    .text.utils_sha256_finish:00000000000000c0 .L0 
C:\Users\stapi\AppData\Local\Temp\cc0tbpIX.s:966    .text.utils_sha256_finish:00000000000000cc .L0 
C:\Users\stapi\AppData\Local\Temp\cc0tbpIX.s:969    .text.utils_sha256_finish:00000000000000d0 .L0 
C:\Users\stapi\AppData\Local\Temp\cc0tbpIX.s:972    .text.utils_sha256_finish:00000000000000d4 .L0 
C:\Users\stapi\AppData\Local\Temp\cc0tbpIX.s:973    .text.utils_sha256_finish:00000000000000d4 .L0 
C:\Users\stapi\AppData\Local\Temp\cc0tbpIX.s:975    .text.utils_sha256_finish:00000000000000d6 .L0 
C:\Users\stapi\AppData\Local\Temp\cc0tbpIX.s:976    .text.utils_sha256_finish:00000000000000d6 .L0 
C:\Users\stapi\AppData\Local\Temp\cc0tbpIX.s:977    .text.utils_sha256_finish:00000000000000d6 .L0 
C:\Users\stapi\AppData\Local\Temp\cc0tbpIX.s:985    .text.utils_sha256_finish:00000000000000de .L0 
C:\Users\stapi\AppData\Local\Temp\cc0tbpIX.s:986    .text.utils_sha256_finish:00000000000000de .L0 
C:\Users\stapi\AppData\Local\Temp\cc0tbpIX.s:989    .text.utils_sha256_finish:00000000000000e6 .L0 
C:\Users\stapi\AppData\Local\Temp\cc0tbpIX.s:990    .text.utils_sha256_finish:00000000000000e6 .L0 
C:\Users\stapi\AppData\Local\Temp\cc0tbpIX.s:992    .text.utils_sha256_finish:00000000000000ea .L0 
C:\Users\stapi\AppData\Local\Temp\cc0tbpIX.s:999    .text.utils_sha256_finish:00000000000000f8 .L0 
C:\Users\stapi\AppData\Local\Temp\cc0tbpIX.s:1004   .text.utils_sha256_finish:0000000000000104 .L0 
C:\Users\stapi\AppData\Local\Temp\cc0tbpIX.s:1011   .text.utils_sha256_finish:000000000000010e .L0 
C:\Users\stapi\AppData\Local\Temp\cc0tbpIX.s:1017   .text.utils_sha256_finish:000000000000011e .L0 
C:\Users\stapi\AppData\Local\Temp\cc0tbpIX.s:1018   .text.utils_sha256_finish:000000000000011e .L0 
C:\Users\stapi\AppData\Local\Temp\cc0tbpIX.s:1023   .text.utils_sha256_finish:0000000000000128 .L0 
C:\Users\stapi\AppData\Local\Temp\cc0tbpIX.s:1024   .text.utils_sha256_finish:0000000000000128 .L0 
C:\Users\stapi\AppData\Local\Temp\cc0tbpIX.s:1025   .text.utils_sha256_finish:0000000000000128 .L0 
C:\Users\stapi\AppData\Local\Temp\cc0tbpIX.s:1026   .text.utils_sha256_finish:0000000000000128 .L0 
C:\Users\stapi\AppData\Local\Temp\cc0tbpIX.s:1027   .text.utils_sha256_finish:0000000000000128 .L0 
C:\Users\stapi\AppData\Local\Temp\cc0tbpIX.s:1028   .text.utils_sha256_finish:0000000000000128 .L0 
C:\Users\stapi\AppData\Local\Temp\cc0tbpIX.s:1029   .text.utils_sha256_finish:0000000000000128 .L0 
C:\Users\stapi\AppData\Local\Temp\cc0tbpIX.s:1032   .text.utils_sha256_finish:000000000000012a .L0 
C:\Users\stapi\AppData\Local\Temp\cc0tbpIX.s:1039   .text.utils_sha256:0000000000000000 utils_sha256
C:\Users\stapi\AppData\Local\Temp\cc0tbpIX.s:1042   .text.utils_sha256:0000000000000000 .L0 
C:\Users\stapi\AppData\Local\Temp\cc0tbpIX.s:1044   .text.utils_sha256:0000000000000000 .L0 
C:\Users\stapi\AppData\Local\Temp\cc0tbpIX.s:1045   .text.utils_sha256:0000000000000008 .L0 
C:\Users\stapi\AppData\Local\Temp\cc0tbpIX.s:1046   .text.utils_sha256:0000000000000008 .L0 
C:\Users\stapi\AppData\Local\Temp\cc0tbpIX.s:1047   .text.utils_sha256:0000000000000008 .L0 
C:\Users\stapi\AppData\Local\Temp\cc0tbpIX.s:1048   .text.utils_sha256:0000000000000008 .L0 
C:\Users\stapi\AppData\Local\Temp\cc0tbpIX.s:1049   .text.utils_sha256:0000000000000008 .L0 
C:\Users\stapi\AppData\Local\Temp\cc0tbpIX.s:1051   .text.utils_sha256:0000000000000008 .L0 
C:\Users\stapi\AppData\Local\Temp\cc0tbpIX.s:1052   .text.utils_sha256:0000000000000008 .L0 
C:\Users\stapi\AppData\Local\Temp\cc0tbpIX.s:1053   .text.utils_sha256:0000000000000008 .L0 
C:\Users\stapi\AppData\Local\Temp\cc0tbpIX.s:1054   .text.utils_sha256:000000000000000a .L0 
C:\Users\stapi\AppData\Local\Temp\cc0tbpIX.s:1056   .text.utils_sha256:000000000000000a .L0 
C:\Users\stapi\AppData\Local\Temp\cc0tbpIX.s:1058   .text.utils_sha256:000000000000000c .L0 
C:\Users\stapi\AppData\Local\Temp\cc0tbpIX.s:1061   .text.utils_sha256:000000000000000e .L0 
C:\Users\stapi\AppData\Local\Temp\cc0tbpIX.s:1064   .text.utils_sha256:0000000000000012 .L0 
C:\Users\stapi\AppData\Local\Temp\cc0tbpIX.s:1069   .text.utils_sha256:000000000000001a .L0 
C:\Users\stapi\AppData\Local\Temp\cc0tbpIX.s:1070   .text.utils_sha256:000000000000001a .L0 
C:\Users\stapi\AppData\Local\Temp\cc0tbpIX.s:1077   .text.utils_sha256:0000000000000024 .L0 
C:\Users\stapi\AppData\Local\Temp\cc0tbpIX.s:1083   .text.utils_sha256:0000000000000032 .L0 
C:\Users\stapi\AppData\Local\Temp\cc0tbpIX.s:1088   .text.utils_sha256:000000000000003e .L0 
C:\Users\stapi\AppData\Local\Temp\cc0tbpIX.s:1092   .text.utils_sha256:0000000000000048 .L0 
C:\Users\stapi\AppData\Local\Temp\cc0tbpIX.s:1093   .text.utils_sha256:000000000000004a .L0 
C:\Users\stapi\AppData\Local\Temp\cc0tbpIX.s:1095   .text.utils_sha256:0000000000000052 .L0 
C:\Users\stapi\AppData\Local\Temp\cc0tbpIX.s:1096   .text.utils_sha256:0000000000000052 .L0 
C:\Users\stapi\AppData\Local\Temp\cc0tbpIX.s:1097   .text.utils_sha256:0000000000000052 .L0 
C:\Users\stapi\AppData\Local\Temp\cc0tbpIX.s:1098   .text.utils_sha256:0000000000000052 .L0 
C:\Users\stapi\AppData\Local\Temp\cc0tbpIX.s:1099   .text.utils_sha256:0000000000000052 .L0 
C:\Users\stapi\AppData\Local\Temp\cc0tbpIX.s:1100   .text.utils_sha256:0000000000000052 .L0 
C:\Users\stapi\AppData\Local\Temp\cc0tbpIX.s:1105   .rodata.K256:0000000000000000 .LANCHOR1
C:\Users\stapi\AppData\Local\Temp\cc0tbpIX.s:1108   .rodata.K256:0000000000000000 K256
C:\Users\stapi\AppData\Local\Temp\cc0tbpIX.s:1175   .rodata.sha256_initial_hash_value:0000000000000000 .LANCHOR0
C:\Users\stapi\AppData\Local\Temp\cc0tbpIX.s:1178   .rodata.sha256_initial_hash_value:0000000000000000 sha256_initial_hash_value
C:\Users\stapi\AppData\Local\Temp\cc0tbpIX.s:51     .text.utils_sha256_starts.part.0:0000000000000040 .L0 
C:\Users\stapi\AppData\Local\Temp\cc0tbpIX.s:74     .text.os_htobe32:0000000000000006 .L0 
C:\Users\stapi\AppData\Local\Temp\cc0tbpIX.s:90     .text.os_be32toh:0000000000000008 .L0 
C:\Users\stapi\AppData\Local\Temp\cc0tbpIX.s:118    .text.os_htobe64:000000000000000c .L0 
C:\Users\stapi\AppData\Local\Temp\cc0tbpIX.s:135    .text.utils_sha256_init:000000000000000e .L0 
C:\Users\stapi\AppData\Local\Temp\cc0tbpIX.s:171    .text.utils_sha256_free:0000000000000014 .L0 
C:\Users\stapi\AppData\Local\Temp\cc0tbpIX.s:188    .text.utils_sha256_clone:000000000000000c .L0 
C:\Users\stapi\AppData\Local\Temp\cc0tbpIX.s:207    .text.utils_sha256_starts:000000000000000c .L0 
C:\Users\stapi\AppData\Local\Temp\cc0tbpIX.s:625    .text.utils_sha256_process:00000000000001e2 .L0 
C:\Users\stapi\AppData\Local\Temp\cc0tbpIX.s:815    .text.utils_sha256_update:00000000000000da .L0 
C:\Users\stapi\AppData\Local\Temp\cc0tbpIX.s:1035   .text.utils_sha256_finish:000000000000012a .L0 
C:\Users\stapi\AppData\Local\Temp\cc0tbpIX.s:1103   .text.utils_sha256:0000000000000052 .L0 
                     .debug_frame:0000000000000000 .L0 
C:\Users\stapi\AppData\Local\Temp\cc0tbpIX.s:162    .text.utils_sha256_free:000000000000000e .L11
C:\Users\stapi\AppData\Local\Temp\cc0tbpIX.s:153    .text.utils_sha256_free:0000000000000008 .L12
C:\Users\stapi\AppData\Local\Temp\cc0tbpIX.s:149    .text.utils_sha256_free:0000000000000006 .L9
C:\Users\stapi\AppData\Local\Temp\cc0tbpIX.s:202    .text.utils_sha256_starts:000000000000000a .L24
C:\Users\stapi\AppData\Local\Temp\cc0tbpIX.s:589    .text.utils_sha256_process:00000000000001c6 .L30
C:\Users\stapi\AppData\Local\Temp\cc0tbpIX.s:606    .text.utils_sha256_process:00000000000001d4 .L31
C:\Users\stapi\AppData\Local\Temp\cc0tbpIX.s:279    .text.utils_sha256_process:0000000000000038 .L28
C:\Users\stapi\AppData\Local\Temp\cc0tbpIX.s:384    .text.utils_sha256_process:00000000000000c2 .L29
C:\Users\stapi\AppData\Local\Temp\cc0tbpIX.s:800    .text.utils_sha256_update:00000000000000d8 .L54
C:\Users\stapi\AppData\Local\Temp\cc0tbpIX.s:759    .text.utils_sha256_update:00000000000000ae .L33
C:\Users\stapi\AppData\Local\Temp\cc0tbpIX.s:716    .text.utils_sha256_update:0000000000000068 .L37
C:\Users\stapi\AppData\Local\Temp\cc0tbpIX.s:746    .text.utils_sha256_update:0000000000000094 .L57
C:\Users\stapi\AppData\Local\Temp\cc0tbpIX.s:774    .text.utils_sha256_update:00000000000000b6 .L40
C:\Users\stapi\AppData\Local\Temp\cc0tbpIX.s:728    .text.utils_sha256_update:0000000000000072 .L39
C:\Users\stapi\AppData\Local\Temp\cc0tbpIX.s:1022   .text.utils_sha256_finish:0000000000000128 .L72
C:\Users\stapi\AppData\Local\Temp\cc0tbpIX.s:863    .text.utils_sha256_finish:000000000000002a .L60
C:\Users\stapi\AppData\Local\Temp\cc0tbpIX.s:1009   .text.utils_sha256_finish:000000000000010e .L61
C:\Users\stapi\AppData\Local\Temp\cc0tbpIX.s:982    .text.utils_sha256_finish:00000000000000de .L62
C:\Users\stapi\AppData\Local\Temp\cc0tbpIX.s:952    .text.utils_sha256_finish:00000000000000bc .L65
C:\Users\stapi\AppData\Local\Temp\cc0tbpIX.s:844    .text.utils_sha256_finish:0000000000000012 .L66
C:\Users\stapi\AppData\Local\Temp\cc0tbpIX.s:997    .text.utils_sha256_finish:00000000000000f8 .L64
C:\Users\stapi\AppData\Local\Temp\cc0tbpIX.s:910    .text.utils_sha256_finish:000000000000006a .L75
C:\Users\stapi\AppData\Local\Temp\cc0tbpIX.s:914    .text.utils_sha256_finish:0000000000000072 .L63
C:\Users\stapi\AppData\Local\Temp\cc0tbpIX.s:2409   .debug_abbrev:0000000000000000 .Ldebug_abbrev0
C:\Users\stapi\AppData\Local\Temp\cc0tbpIX.s:5667   .debug_str:00000000000000f1 .LASF52
C:\Users\stapi\AppData\Local\Temp\cc0tbpIX.s:5721   .debug_str:000000000000039e .LASF53
C:\Users\stapi\AppData\Local\Temp\cc0tbpIX.s:5699   .debug_str:000000000000029e .LASF54
C:\Users\stapi\AppData\Local\Temp\cc0tbpIX.s:5583   .debug_ranges:0000000000000000 .Ldebug_ranges0
C:\Users\stapi\AppData\Local\Temp\cc0tbpIX.s:5625   .debug_line:0000000000000000 .Ldebug_line0
C:\Users\stapi\AppData\Local\Temp\cc0tbpIX.s:5693   .debug_str:000000000000026f .LASF0
C:\Users\stapi\AppData\Local\Temp\cc0tbpIX.s:5641   .debug_str:0000000000000053 .LASF3
C:\Users\stapi\AppData\Local\Temp\cc0tbpIX.s:5695   .debug_str:0000000000000286 .LASF1
C:\Users\stapi\AppData\Local\Temp\cc0tbpIX.s:5663   .debug_str:00000000000000d1 .LASF2
C:\Users\stapi\AppData\Local\Temp\cc0tbpIX.s:5677   .debug_str:0000000000000200 .LASF4
C:\Users\stapi\AppData\Local\Temp\cc0tbpIX.s:5689   .debug_str:0000000000000257 .LASF5
C:\Users\stapi\AppData\Local\Temp\cc0tbpIX.s:5639   .debug_str:0000000000000049 .LASF6
C:\Users\stapi\AppData\Local\Temp\cc0tbpIX.s:5703   .debug_str:000000000000033a .LASF7
C:\Users\stapi\AppData\Local\Temp\cc0tbpIX.s:5675   .debug_str:00000000000001f7 .LASF8
C:\Users\stapi\AppData\Local\Temp\cc0tbpIX.s:5647   .debug_str:000000000000006e .LASF9
C:\Users\stapi\AppData\Local\Temp\cc0tbpIX.s:5717   .debug_str:0000000000000379 .LASF10
C:\Users\stapi\AppData\Local\Temp\cc0tbpIX.s:5645   .debug_str:0000000000000060 .LASF11
C:\Users\stapi\AppData\Local\Temp\cc0tbpIX.s:5711   .debug_str:0000000000000362 .LASF12
C:\Users\stapi\AppData\Local\Temp\cc0tbpIX.s:5705   .debug_str:000000000000034d .LASF13
C:\Users\stapi\AppData\Local\Temp\cc0tbpIX.s:5657   .debug_str:00000000000000ac .LASF14
C:\Users\stapi\AppData\Local\Temp\cc0tbpIX.s:5661   .debug_str:00000000000000c8 .LASF15
C:\Users\stapi\AppData\Local\Temp\cc0tbpIX.s:5635   .debug_str:0000000000000033 .LASF16
C:\Users\stapi\AppData\Local\Temp\cc0tbpIX.s:5633   .debug_str:000000000000002d .LASF17
C:\Users\stapi\AppData\Local\Temp\cc0tbpIX.s:5685   .debug_str:0000000000000243 .LASF18
C:\Users\stapi\AppData\Local\Temp\cc0tbpIX.s:5715   .debug_str:0000000000000372 .LASF19
C:\Users\stapi\AppData\Local\Temp\cc0tbpIX.s:5673   .debug_str:00000000000001e4 .LASF20
C:\Users\stapi\AppData\Local\Temp\cc0tbpIX.s:5739   .debug_str:00000000000004a8 .LASF21
C:\Users\stapi\AppData\Local\Temp\cc0tbpIX.s:5669   .debug_str:00000000000001d8 .LASF22
C:\Users\stapi\AppData\Local\Temp\cc0tbpIX.s:5655   .debug_str:00000000000000a3 .LASF23
C:\Users\stapi\AppData\Local\Temp\cc0tbpIX.s:5709   .debug_str:000000000000035d .LASF24
C:\Users\stapi\AppData\Local\Temp\cc0tbpIX.s:5679   .debug_str:000000000000020a .LASF25
C:\Users\stapi\AppData\Local\Temp\cc0tbpIX.s:5637   .debug_str:000000000000003c .LASF29
C:\Users\stapi\AppData\Local\Temp\cc0tbpIX.s:1040   .text.utils_sha256:0000000000000000 .LFB19
C:\Users\stapi\AppData\Local\Temp\cc0tbpIX.s:1101   .text.utils_sha256:0000000000000052 .LFE19
C:\Users\stapi\AppData\Local\Temp\cc0tbpIX.s:5643   .debug_str:000000000000005a .LASF26
C:\Users\stapi\AppData\Local\Temp\cc0tbpIX.s:3216   .debug_loc:0000000000000000 .LLST40
C:\Users\stapi\AppData\Local\Temp\cc0tbpIX.s:5723   .debug_str:000000000000043d .LASF27
C:\Users\stapi\AppData\Local\Temp\cc0tbpIX.s:3227   .debug_loc:000000000000001e .LLST41
C:\Users\stapi\AppData\Local\Temp\cc0tbpIX.s:5735   .debug_str:0000000000000497 .LASF28
C:\Users\stapi\AppData\Local\Temp\cc0tbpIX.s:3238   .debug_loc:000000000000003c .LLST42
C:\Users\stapi\AppData\Local\Temp\cc0tbpIX.s:1067   .text.utils_sha256:000000000000001a .LBB55
C:\Users\stapi\AppData\Local\Temp\cc0tbpIX.s:1075   .text.utils_sha256:0000000000000024 .LBE55
C:\Users\stapi\AppData\Local\Temp\cc0tbpIX.s:3249   .debug_loc:000000000000005a .LLST43
C:\Users\stapi\AppData\Local\Temp\cc0tbpIX.s:1073   .text.utils_sha256:0000000000000024 .LVL124
C:\Users\stapi\AppData\Local\Temp\cc0tbpIX.s:1065   .text.utils_sha256:000000000000001a .LVL122
C:\Users\stapi\AppData\Local\Temp\cc0tbpIX.s:1081   .text.utils_sha256:0000000000000032 .LVL125
C:\Users\stapi\AppData\Local\Temp\cc0tbpIX.s:1086   .text.utils_sha256:000000000000003e .LVL126
C:\Users\stapi\AppData\Local\Temp\cc0tbpIX.s:1090   .text.utils_sha256:0000000000000048 .LVL127
C:\Users\stapi\AppData\Local\Temp\cc0tbpIX.s:5665   .debug_str:00000000000000dd .LASF30
C:\Users\stapi\AppData\Local\Temp\cc0tbpIX.s:820    .text.utils_sha256_finish:0000000000000000 .LFB18
C:\Users\stapi\AppData\Local\Temp\cc0tbpIX.s:1033   .text.utils_sha256_finish:000000000000012a .LFE18
C:\Users\stapi\AppData\Local\Temp\cc0tbpIX.s:3268   .debug_loc:0000000000000089 .LLST33
C:\Users\stapi\AppData\Local\Temp\cc0tbpIX.s:3283   .debug_loc:00000000000000b2 .LLST34
C:\Users\stapi\AppData\Local\Temp\cc0tbpIX.s:3306   .debug_loc:00000000000000f1 .LLST35
C:\Users\stapi\AppData\Local\Temp\cc0tbpIX.s:5737   .debug_str:000000000000049e .LASF31
C:\Users\stapi\AppData\Local\Temp\cc0tbpIX.s:3362   .debug_loc:000000000000016d .LLST36
C:\Users\stapi\AppData\Local\Temp\cc0tbpIX.s:865    .text.utils_sha256_finish:000000000000002a .LBB50
C:\Users\stapi\AppData\Local\Temp\cc0tbpIX.s:1031   .text.utils_sha256_finish:000000000000012a .LBE50
C:\Users\stapi\AppData\Local\Temp\cc0tbpIX.s:3398   .debug_loc:00000000000001c7 .LLST37
C:\Users\stapi\AppData\Local\Temp\cc0tbpIX.s:3408   .debug_loc:00000000000001dd .LLST38
C:\Users\stapi\AppData\Local\Temp\cc0tbpIX.s:956    .text.utils_sha256_finish:00000000000000c0 .LBB52
C:\Users\stapi\AppData\Local\Temp\cc0tbpIX.s:964    .text.utils_sha256_finish:00000000000000cc .LBE52
C:\Users\stapi\AppData\Local\Temp\cc0tbpIX.s:3416   .debug_loc:00000000000001f1 .LLST39
C:\Users\stapi\AppData\Local\Temp\cc0tbpIX.s:962    .text.utils_sha256_finish:00000000000000cc .LVL110
C:\Users\stapi\AppData\Local\Temp\cc0tbpIX.s:878    .text.utils_sha256_finish:000000000000003e .LVL102
C:\Users\stapi\AppData\Local\Temp\cc0tbpIX.s:913    .text.utils_sha256_finish:0000000000000072 .LVL106
C:\Users\stapi\AppData\Local\Temp\cc0tbpIX.s:940    .text.utils_sha256_finish:00000000000000b6 .LVL107
C:\Users\stapi\AppData\Local\Temp\cc0tbpIX.s:996    .text.utils_sha256_finish:00000000000000f8 .LVL115
C:\Users\stapi\AppData\Local\Temp\cc0tbpIX.s:1002   .text.utils_sha256_finish:0000000000000104 .LVL116
C:\Users\stapi\AppData\Local\Temp\cc0tbpIX.s:1015   .text.utils_sha256_finish:000000000000011e .LVL118
C:\Users\stapi\AppData\Local\Temp\cc0tbpIX.s:850    .text.utils_sha256_finish:0000000000000022 .LVL99
C:\Users\stapi\AppData\Local\Temp\cc0tbpIX.s:5659   .debug_str:00000000000000b4 .LASF36
C:\Users\stapi\AppData\Local\Temp\cc0tbpIX.s:5691   .debug_str:0000000000000265 .LASF32
C:\Users\stapi\AppData\Local\Temp\cc0tbpIX.s:5727   .debug_str:0000000000000447 .LASF33
C:\Users\stapi\AppData\Local\Temp\cc0tbpIX.s:212    .text.utils_sha256_process:0000000000000000 .LFB16
C:\Users\stapi\AppData\Local\Temp\cc0tbpIX.s:623    .text.utils_sha256_process:00000000000001e2 .LFE16
C:\Users\stapi\AppData\Local\Temp\cc0tbpIX.s:3424   .debug_loc:0000000000000205 .LLST10
C:\Users\stapi\AppData\Local\Temp\cc0tbpIX.s:5713   .debug_str:000000000000036d .LASF34
C:\Users\stapi\AppData\Local\Temp\cc0tbpIX.s:3435   .debug_loc:0000000000000223 .LLST11
C:\Users\stapi\AppData\Local\Temp\cc0tbpIX.s:3475   .debug_loc:0000000000000273 .LLST12
C:\Users\stapi\AppData\Local\Temp\cc0tbpIX.s:3503   .debug_loc:00000000000002be .LLST13
C:\Users\stapi\AppData\Local\Temp\cc0tbpIX.s:3539   .debug_loc:000000000000031f .LLST14
C:\Users\stapi\AppData\Local\Temp\cc0tbpIX.s:3575   .debug_loc:0000000000000380 .LLST15
C:\Users\stapi\AppData\Local\Temp\cc0tbpIX.s:3615   .debug_loc:00000000000003ec .LLST16
C:\Users\stapi\AppData\Local\Temp\cc0tbpIX.s:3643   .debug_loc:0000000000000437 .LLST17
C:\Users\stapi\AppData\Local\Temp\cc0tbpIX.s:3679   .debug_loc:0000000000000498 .LLST18
C:\Users\stapi\AppData\Local\Temp\cc0tbpIX.s:3715   .debug_loc:00000000000004f9 .LLST19
C:\Users\stapi\AppData\Local\Temp\cc0tbpIX.s:3764   .debug_loc:000000000000057c .LLST20
C:\Users\stapi\AppData\Local\Temp\cc0tbpIX.s:3788   .debug_loc:00000000000005b5 .LLST21
C:\Users\stapi\AppData\Local\Temp\cc0tbpIX.s:3930   .debug_loc:000000000000066b .LLST22
C:\Users\stapi\AppData\Local\Temp\cc0tbpIX.s:4355   .debug_loc:0000000000000858 .LLST23
C:\Users\stapi\AppData\Local\Temp\cc0tbpIX.s:5725   .debug_str:0000000000000442 .LASF35
C:\Users\stapi\AppData\Local\Temp\cc0tbpIX.s:5172   .debug_loc:0000000000000c05 .LLST24
C:\Users\stapi\AppData\Local\Temp\cc0tbpIX.s:289    .text.utils_sha256_process:0000000000000048 .LVL25
C:\Users\stapi\AppData\Local\Temp\cc0tbpIX.s:5733   .debug_str:0000000000000483 .LASF37
C:\Users\stapi\AppData\Local\Temp\cc0tbpIX.s:5719   .debug_str:000000000000038b .LASF38
C:\Users\stapi\AppData\Local\Temp\cc0tbpIX.s:176    .text.utils_sha256_clone:0000000000000000 .LFB14
C:\Users\stapi\AppData\Local\Temp\cc0tbpIX.s:186    .text.utils_sha256_clone:000000000000000c .LFE14
C:\Users\stapi\AppData\Local\Temp\cc0tbpIX.s:5208   .debug_loc:0000000000000c5f .LLST7
C:\Users\stapi\AppData\Local\Temp\cc0tbpIX.s:5222   .debug_loc:0000000000000c80 .LLST8
C:\Users\stapi\AppData\Local\Temp\cc0tbpIX.s:184    .text.utils_sha256_clone:000000000000000c .LVL17
C:\Users\stapi\AppData\Local\Temp\cc0tbpIX.s:5731   .debug_str:0000000000000471 .LASF39
C:\Users\stapi\AppData\Local\Temp\cc0tbpIX.s:140    .text.utils_sha256_free:0000000000000000 .LFB13
C:\Users\stapi\AppData\Local\Temp\cc0tbpIX.s:169    .text.utils_sha256_free:0000000000000014 .LFE13
C:\Users\stapi\AppData\Local\Temp\cc0tbpIX.s:5236   .debug_loc:0000000000000ca1 .LLST5
C:\Users\stapi\AppData\Local\Temp\cc0tbpIX.s:154    .text.utils_sha256_free:0000000000000008 .LBB40
C:\Users\stapi\AppData\Local\Temp\cc0tbpIX.s:167    .text.utils_sha256_free:0000000000000014 .LBE40
C:\Users\stapi\AppData\Local\Temp\cc0tbpIX.s:5249   .debug_loc:0000000000000cc2 .LLST6
C:\Users\stapi\AppData\Local\Temp\cc0tbpIX.s:5651   .debug_str:0000000000000080 .LASF40
C:\Users\stapi\AppData\Local\Temp\cc0tbpIX.s:123    .text.utils_sha256_init:0000000000000000 .LFB12
C:\Users\stapi\AppData\Local\Temp\cc0tbpIX.s:133    .text.utils_sha256_init:000000000000000e .LFE12
C:\Users\stapi\AppData\Local\Temp\cc0tbpIX.s:5262   .debug_loc:0000000000000ce2 .LLST4
C:\Users\stapi\AppData\Local\Temp\cc0tbpIX.s:131    .text.utils_sha256_init:000000000000000e .LVL11
C:\Users\stapi\AppData\Local\Temp\cc0tbpIX.s:5729   .debug_str:000000000000045c .LASF45
C:\Users\stapi\AppData\Local\Temp\cc0tbpIX.s:5687   .debug_str:000000000000024c .LASF41
C:\Users\stapi\AppData\Local\Temp\cc0tbpIX.s:5627   .debug_str:0000000000000000 .LASF43
C:\Users\stapi\AppData\Local\Temp\cc0tbpIX.s:5697   .debug_str:0000000000000293 .LASF42
C:\Users\stapi\AppData\Local\Temp\cc0tbpIX.s:5707   .debug_str:0000000000000352 .LASF55
C:\Users\stapi\AppData\Local\Temp\cc0tbpIX.s:56     .text.os_htobe32:0000000000000000 .LFB7
C:\Users\stapi\AppData\Local\Temp\cc0tbpIX.s:72     .text.os_htobe32:0000000000000006 .LFE7
C:\Users\stapi\AppData\Local\Temp\cc0tbpIX.s:5276   .debug_loc:0000000000000d03 .LLST1
C:\Users\stapi\AppData\Local\Temp\cc0tbpIX.s:5631   .debug_str:000000000000001f .LASF44
C:\Users\stapi\AppData\Local\Temp\cc0tbpIX.s:5683   .debug_str:0000000000000235 .LASF56
C:\Users\stapi\AppData\Local\Temp\cc0tbpIX.s:5681   .debug_str:0000000000000224 .LASF46
C:\Users\stapi\AppData\Local\Temp\cc0tbpIX.s:5701   .debug_str:000000000000032f .LASF47
C:\Users\stapi\AppData\Local\Temp\cc0tbpIX.s:13     .text.utils_sha256_starts.part.0:0000000000000000 .LFB21
C:\Users\stapi\AppData\Local\Temp\cc0tbpIX.s:49     .text.utils_sha256_starts.part.0:0000000000000040 .LFE21
C:\Users\stapi\AppData\Local\Temp\cc0tbpIX.s:5290   .debug_loc:0000000000000d24 .LLST0
C:\Users\stapi\AppData\Local\Temp\cc0tbpIX.s:30     .text.utils_sha256_starts.part.0:000000000000001e .LVL1
C:\Users\stapi\AppData\Local\Temp\cc0tbpIX.s:36     .text.utils_sha256_starts.part.0:0000000000000030 .LVL2
C:\Users\stapi\AppData\Local\Temp\cc0tbpIX.s:79     .text.os_be32toh:0000000000000000 .LFB8
C:\Users\stapi\AppData\Local\Temp\cc0tbpIX.s:88     .text.os_be32toh:0000000000000008 .LFE8
C:\Users\stapi\AppData\Local\Temp\cc0tbpIX.s:5301   .debug_loc:0000000000000d42 .LLST2
C:\Users\stapi\AppData\Local\Temp\cc0tbpIX.s:86     .text.os_be32toh:0000000000000008 .LVL6
C:\Users\stapi\AppData\Local\Temp\cc0tbpIX.s:95     .text.os_htobe64:0000000000000000 .LFB10
C:\Users\stapi\AppData\Local\Temp\cc0tbpIX.s:116    .text.os_htobe64:000000000000000c .LFE10
C:\Users\stapi\AppData\Local\Temp\cc0tbpIX.s:5315   .debug_loc:0000000000000d63 .LLST3
C:\Users\stapi\AppData\Local\Temp\cc0tbpIX.s:193    .text.utils_sha256_starts:0000000000000000 .LFB15
C:\Users\stapi\AppData\Local\Temp\cc0tbpIX.s:205    .text.utils_sha256_starts:000000000000000c .LFE15
C:\Users\stapi\AppData\Local\Temp\cc0tbpIX.s:5336   .debug_loc:0000000000000d8b .LLST9
C:\Users\stapi\AppData\Local\Temp\cc0tbpIX.s:201    .text.utils_sha256_starts:000000000000000a .LVL19
C:\Users\stapi\AppData\Local\Temp\cc0tbpIX.s:630    .text.utils_sha256_update:0000000000000000 .LFB17
C:\Users\stapi\AppData\Local\Temp\cc0tbpIX.s:813    .text.utils_sha256_update:00000000000000da .LFE17
C:\Users\stapi\AppData\Local\Temp\cc0tbpIX.s:5354   .debug_loc:0000000000000db7 .LLST25
C:\Users\stapi\AppData\Local\Temp\cc0tbpIX.s:5369   .debug_loc:0000000000000de0 .LLST26
C:\Users\stapi\AppData\Local\Temp\cc0tbpIX.s:5391   .debug_loc:0000000000000e17 .LLST27
C:\Users\stapi\AppData\Local\Temp\cc0tbpIX.s:655    .text.utils_sha256_update:0000000000000012 .LBB44
C:\Users\stapi\AppData\Local\Temp\cc0tbpIX.s:5419   .debug_loc:0000000000000e5c .LLST28
C:\Users\stapi\AppData\Local\Temp\cc0tbpIX.s:5458   .debug_loc:0000000000000ec2 .LLST29
C:\Users\stapi\AppData\Local\Temp\cc0tbpIX.s:5519   .debug_loc:0000000000000f3c .LLST30
C:\Users\stapi\AppData\Local\Temp\cc0tbpIX.s:5534   .debug_loc:0000000000000f65 .LLST31
C:\Users\stapi\AppData\Local\Temp\cc0tbpIX.s:5541   .debug_loc:0000000000000f78 .LLST32
C:\Users\stapi\AppData\Local\Temp\cc0tbpIX.s:688    .text.utils_sha256_update:0000000000000040 .LVL80
C:\Users\stapi\AppData\Local\Temp\cc0tbpIX.s:715    .text.utils_sha256_update:0000000000000068 .LVL84
C:\Users\stapi\AppData\Local\Temp\cc0tbpIX.s:748    .text.utils_sha256_update:000000000000009c .LVL90
C:\Users\stapi\AppData\Local\Temp\cc0tbpIX.s:781    .text.utils_sha256_update:00000000000000c0 .LVL93
C:\Users\stapi\AppData\Local\Temp\cc0tbpIX.s:5671   .debug_str:00000000000001dd .LASF48
C:\Users\stapi\AppData\Local\Temp\cc0tbpIX.s:5653   .debug_str:0000000000000092 .LASF50
C:\Users\stapi\AppData\Local\Temp\cc0tbpIX.s:5649   .debug_str:0000000000000079 .LASF49
C:\Users\stapi\AppData\Local\Temp\cc0tbpIX.s:5629   .debug_str:000000000000000e .LASF51
C:\Users\stapi\AppData\Local\Temp\cc0tbpIX.s:1043   .text.utils_sha256:0000000000000000 .LVL120
C:\Users\stapi\AppData\Local\Temp\cc0tbpIX.s:1059   .text.utils_sha256:000000000000000e .LVL121
C:\Users\stapi\AppData\Local\Temp\cc0tbpIX.s:1071   .text.utils_sha256:000000000000001c .LVL123
C:\Users\stapi\AppData\Local\Temp\cc0tbpIX.s:823    .text.utils_sha256_finish:0000000000000000 .LVL97
C:\Users\stapi\AppData\Local\Temp\cc0tbpIX.s:843    .text.utils_sha256_finish:0000000000000012 .LVL98
C:\Users\stapi\AppData\Local\Temp\cc0tbpIX.s:1021   .text.utils_sha256_finish:0000000000000128 .LVL119
C:\Users\stapi\AppData\Local\Temp\cc0tbpIX.s:862    .text.utils_sha256_finish:000000000000002a .LVL100
C:\Users\stapi\AppData\Local\Temp\cc0tbpIX.s:871    .text.utils_sha256_finish:000000000000002e .LVL101
C:\Users\stapi\AppData\Local\Temp\cc0tbpIX.s:951    .text.utils_sha256_finish:00000000000000bc .LVL108
C:\Users\stapi\AppData\Local\Temp\cc0tbpIX.s:967    .text.utils_sha256_finish:00000000000000d0 .LVL111
C:\Users\stapi\AppData\Local\Temp\cc0tbpIX.s:971    .text.utils_sha256_finish:00000000000000d4 .LVL112
C:\Users\stapi\AppData\Local\Temp\cc0tbpIX.s:978    .text.utils_sha256_finish:00000000000000d8 .LVL113
C:\Users\stapi\AppData\Local\Temp\cc0tbpIX.s:981    .text.utils_sha256_finish:00000000000000de .LVL114
C:\Users\stapi\AppData\Local\Temp\cc0tbpIX.s:881    .text.utils_sha256_finish:0000000000000042 .LVL103
C:\Users\stapi\AppData\Local\Temp\cc0tbpIX.s:895    .text.utils_sha256_finish:0000000000000054 .LVL104
C:\Users\stapi\AppData\Local\Temp\cc0tbpIX.s:909    .text.utils_sha256_finish:000000000000006a .LVL105
C:\Users\stapi\AppData\Local\Temp\cc0tbpIX.s:1008   .text.utils_sha256_finish:000000000000010e .LVL117
C:\Users\stapi\AppData\Local\Temp\cc0tbpIX.s:955    .text.utils_sha256_finish:00000000000000c0 .LVL109
C:\Users\stapi\AppData\Local\Temp\cc0tbpIX.s:215    .text.utils_sha256_process:0000000000000000 .LVL20
C:\Users\stapi\AppData\Local\Temp\cc0tbpIX.s:278    .text.utils_sha256_process:0000000000000038 .LVL23
C:\Users\stapi\AppData\Local\Temp\cc0tbpIX.s:256    .text.utils_sha256_process:000000000000002a .LVL21
C:\Users\stapi\AppData\Local\Temp\cc0tbpIX.s:284    .text.utils_sha256_process:0000000000000040 .LVL24
C:\Users\stapi\AppData\Local\Temp\cc0tbpIX.s:346    .text.utils_sha256_process:000000000000009e .LVL28
C:\Users\stapi\AppData\Local\Temp\cc0tbpIX.s:383    .text.utils_sha256_process:00000000000000c2 .LVL36
C:\Users\stapi\AppData\Local\Temp\cc0tbpIX.s:588    .text.utils_sha256_process:00000000000001c6 .LVL61
C:\Users\stapi\AppData\Local\Temp\cc0tbpIX.s:605    .text.utils_sha256_process:00000000000001d4 .LVL67
C:\Users\stapi\AppData\Local\Temp\cc0tbpIX.s:264    .text.utils_sha256_process:0000000000000032 .LVL22
C:\Users\stapi\AppData\Local\Temp\cc0tbpIX.s:357    .text.utils_sha256_process:00000000000000a8 .LVL30
C:\Users\stapi\AppData\Local\Temp\cc0tbpIX.s:494    .text.utils_sha256_process:000000000000017c .LVL51
C:\Users\stapi\AppData\Local\Temp\cc0tbpIX.s:511    .text.utils_sha256_process:000000000000018a .LVL53
C:\Users\stapi\AppData\Local\Temp\cc0tbpIX.s:568    .text.utils_sha256_process:00000000000001bc .LVL60
C:\Users\stapi\AppData\Local\Temp\cc0tbpIX.s:350    .text.utils_sha256_process:00000000000000a6 .LVL29
C:\Users\stapi\AppData\Local\Temp\cc0tbpIX.s:519    .text.utils_sha256_process:0000000000000190 .LVL54
C:\Users\stapi\AppData\Local\Temp\cc0tbpIX.s:603    .text.utils_sha256_process:00000000000001d2 .LVL66
C:\Users\stapi\AppData\Local\Temp\cc0tbpIX.s:620    .text.utils_sha256_process:00000000000001e0 .LVL73
C:\Users\stapi\AppData\Local\Temp\cc0tbpIX.s:533    .text.utils_sha256_process:000000000000019e .LVL55
C:\Users\stapi\AppData\Local\Temp\cc0tbpIX.s:597    .text.utils_sha256_process:00000000000001ce .LVL64
C:\Users\stapi\AppData\Local\Temp\cc0tbpIX.s:614    .text.utils_sha256_process:00000000000001dc .LVL71
C:\Users\stapi\AppData\Local\Temp\cc0tbpIX.s:543    .text.utils_sha256_process:00000000000001a6 .LVL57
C:\Users\stapi\AppData\Local\Temp\cc0tbpIX.s:593    .text.utils_sha256_process:00000000000001ca .LVL62
C:\Users\stapi\AppData\Local\Temp\cc0tbpIX.s:610    .text.utils_sha256_process:00000000000001d8 .LVL69
C:\Users\stapi\AppData\Local\Temp\cc0tbpIX.s:339    .text.utils_sha256_process:000000000000009c .LVL27
C:\Users\stapi\AppData\Local\Temp\cc0tbpIX.s:484    .text.utils_sha256_process:0000000000000176 .LVL49
C:\Users\stapi\AppData\Local\Temp\cc0tbpIX.s:538    .text.utils_sha256_process:00000000000001a2 .LVL56
C:\Users\stapi\AppData\Local\Temp\cc0tbpIX.s:600    .text.utils_sha256_process:00000000000001d0 .LVL65
C:\Users\stapi\AppData\Local\Temp\cc0tbpIX.s:617    .text.utils_sha256_process:00000000000001de .LVL72
C:\Users\stapi\AppData\Local\Temp\cc0tbpIX.s:549    .text.utils_sha256_process:00000000000001ac .LVL58
C:\Users\stapi\AppData\Local\Temp\cc0tbpIX.s:595    .text.utils_sha256_process:00000000000001cc .LVL63
C:\Users\stapi\AppData\Local\Temp\cc0tbpIX.s:612    .text.utils_sha256_process:00000000000001da .LVL70
C:\Users\stapi\AppData\Local\Temp\cc0tbpIX.s:365    .text.utils_sha256_process:00000000000000b0 .LVL32
C:\Users\stapi\AppData\Local\Temp\cc0tbpIX.s:561    .text.utils_sha256_process:00000000000001b6 .LVL59
C:\Users\stapi\AppData\Local\Temp\cc0tbpIX.s:608    .text.utils_sha256_process:00000000000001d6 .LVL68
C:\Users\stapi\AppData\Local\Temp\cc0tbpIX.s:396    .text.utils_sha256_process:00000000000000d2 .LVL38
C:\Users\stapi\AppData\Local\Temp\cc0tbpIX.s:428    .text.utils_sha256_process:0000000000000114 .LVL41
C:\Users\stapi\AppData\Local\Temp\cc0tbpIX.s:439    .text.utils_sha256_process:000000000000011e .LVL43
C:\Users\stapi\AppData\Local\Temp\cc0tbpIX.s:433    .text.utils_sha256_process:0000000000000118 .LVL42
C:\Users\stapi\AppData\Local\Temp\cc0tbpIX.s:442    .text.utils_sha256_process:0000000000000122 .LVL44
C:\Users\stapi\AppData\Local\Temp\cc0tbpIX.s:448    .text.utils_sha256_process:000000000000012a .LVL45
C:\Users\stapi\AppData\Local\Temp\cc0tbpIX.s:456    .text.utils_sha256_process:000000000000013c .LVL46
C:\Users\stapi\AppData\Local\Temp\cc0tbpIX.s:459    .text.utils_sha256_process:0000000000000140 .LVL47
C:\Users\stapi\AppData\Local\Temp\cc0tbpIX.s:325    .text.utils_sha256_process:0000000000000080 .LVL26
C:\Users\stapi\AppData\Local\Temp\cc0tbpIX.s:480    .text.utils_sha256_process:0000000000000174 .LVL48
C:\Users\stapi\AppData\Local\Temp\cc0tbpIX.s:509    .text.utils_sha256_process:0000000000000188 .LVL52
C:\Users\stapi\AppData\Local\Temp\cc0tbpIX.s:362    .text.utils_sha256_process:00000000000000ac .LVL31
C:\Users\stapi\AppData\Local\Temp\cc0tbpIX.s:367    .text.utils_sha256_process:00000000000000b2 .LVL33
C:\Users\stapi\AppData\Local\Temp\cc0tbpIX.s:370    .text.utils_sha256_process:00000000000000b4 .LVL34
C:\Users\stapi\AppData\Local\Temp\cc0tbpIX.s:380    .text.utils_sha256_process:00000000000000be .LVL35
C:\Users\stapi\AppData\Local\Temp\cc0tbpIX.s:491    .text.utils_sha256_process:0000000000000178 .LVL50
C:\Users\stapi\AppData\Local\Temp\cc0tbpIX.s:390    .text.utils_sha256_process:00000000000000c6 .LVL37
C:\Users\stapi\AppData\Local\Temp\cc0tbpIX.s:413    .text.utils_sha256_process:00000000000000f6 .LVL39
C:\Users\stapi\AppData\Local\Temp\cc0tbpIX.s:415    .text.utils_sha256_process:00000000000000f8 .LVL40
C:\Users\stapi\AppData\Local\Temp\cc0tbpIX.s:179    .text.utils_sha256_clone:0000000000000000 .LVL16
C:\Users\stapi\AppData\Local\Temp\cc0tbpIX.s:143    .text.utils_sha256_free:0000000000000000 .LVL12
C:\Users\stapi\AppData\Local\Temp\cc0tbpIX.s:148    .text.utils_sha256_free:0000000000000006 .LVL13
C:\Users\stapi\AppData\Local\Temp\cc0tbpIX.s:152    .text.utils_sha256_free:0000000000000008 .LVL14
C:\Users\stapi\AppData\Local\Temp\cc0tbpIX.s:161    .text.utils_sha256_free:000000000000000e .LVL15
C:\Users\stapi\AppData\Local\Temp\cc0tbpIX.s:126    .text.utils_sha256_init:0000000000000000 .LVL10
C:\Users\stapi\AppData\Local\Temp\cc0tbpIX.s:59     .text.os_htobe32:0000000000000000 .LVL3
C:\Users\stapi\AppData\Local\Temp\cc0tbpIX.s:69     .text.os_htobe32:0000000000000004 .LVL4
C:\Users\stapi\AppData\Local\Temp\cc0tbpIX.s:17     .text.utils_sha256_starts.part.0:0000000000000000 .LVL0
C:\Users\stapi\AppData\Local\Temp\cc0tbpIX.s:82     .text.os_be32toh:0000000000000000 .LVL5
C:\Users\stapi\AppData\Local\Temp\cc0tbpIX.s:98     .text.os_htobe64:0000000000000000 .LVL7
C:\Users\stapi\AppData\Local\Temp\cc0tbpIX.s:112    .text.os_htobe64:0000000000000006 .LVL9
C:\Users\stapi\AppData\Local\Temp\cc0tbpIX.s:196    .text.utils_sha256_starts:0000000000000000 .LVL18
C:\Users\stapi\AppData\Local\Temp\cc0tbpIX.s:633    .text.utils_sha256_update:0000000000000000 .LVL74
C:\Users\stapi\AppData\Local\Temp\cc0tbpIX.s:675    .text.utils_sha256_update:000000000000002c .LVL77
C:\Users\stapi\AppData\Local\Temp\cc0tbpIX.s:799    .text.utils_sha256_update:00000000000000d8 .LVL96
C:\Users\stapi\AppData\Local\Temp\cc0tbpIX.s:712    .text.utils_sha256_update:0000000000000060 .LVL83
C:\Users\stapi\AppData\Local\Temp\cc0tbpIX.s:686    .text.utils_sha256_update:0000000000000038 .LVL79
C:\Users\stapi\AppData\Local\Temp\cc0tbpIX.s:695    .text.utils_sha256_update:0000000000000048 .LVL81
C:\Users\stapi\AppData\Local\Temp\cc0tbpIX.s:708    .text.utils_sha256_update:000000000000005e .LVL82
C:\Users\stapi\AppData\Local\Temp\cc0tbpIX.s:660    .text.utils_sha256_update:0000000000000018 .LVL75
C:\Users\stapi\AppData\Local\Temp\cc0tbpIX.s:727    .text.utils_sha256_update:0000000000000072 .LVL86
C:\Users\stapi\AppData\Local\Temp\cc0tbpIX.s:745    .text.utils_sha256_update:0000000000000094 .LVL89
C:\Users\stapi\AppData\Local\Temp\cc0tbpIX.s:773    .text.utils_sha256_update:00000000000000b6 .LVL92
C:\Users\stapi\AppData\Local\Temp\cc0tbpIX.s:788    .text.utils_sha256_update:00000000000000c8 .LVL94
C:\Users\stapi\AppData\Local\Temp\cc0tbpIX.s:796    .text.utils_sha256_update:00000000000000d6 .LVL95
C:\Users\stapi\AppData\Local\Temp\cc0tbpIX.s:730    .text.utils_sha256_update:0000000000000076 .LVL87
C:\Users\stapi\AppData\Local\Temp\cc0tbpIX.s:734    .text.utils_sha256_update:000000000000007e .LVL88
C:\Users\stapi\AppData\Local\Temp\cc0tbpIX.s:758    .text.utils_sha256_update:00000000000000ae .LVL91
C:\Users\stapi\AppData\Local\Temp\cc0tbpIX.s:678    .text.utils_sha256_update:0000000000000030 .LVL78
C:\Users\stapi\AppData\Local\Temp\cc0tbpIX.s:666    .text.utils_sha256_update:0000000000000020 .LVL76
C:\Users\stapi\AppData\Local\Temp\cc0tbpIX.s:721    .text.utils_sha256_update:000000000000006a .LVL85
C:\Users\stapi\AppData\Local\Temp\cc0tbpIX.s:1195   .debug_info:0000000000000000 .Ldebug_info0
C:\Users\stapi\AppData\Local\Temp\cc0tbpIX.s:718    .text.utils_sha256_update:0000000000000068 .LBE44
C:\Users\stapi\AppData\Local\Temp\cc0tbpIX.s:723    .text.utils_sha256_update:000000000000006e .LBB48
C:\Users\stapi\AppData\Local\Temp\cc0tbpIX.s:761    .text.utils_sha256_update:00000000000000ae .LBE48
C:\Users\stapi\AppData\Local\Temp\cc0tbpIX.s:776    .text.utils_sha256_update:00000000000000b6 .LBB49
C:\Users\stapi\AppData\Local\Temp\cc0tbpIX.s:811    .text.utils_sha256_update:00000000000000da .LBE49
C:\Users\stapi\AppData\Local\Temp\cc0tbpIX.s:941    .text.utils_sha256_finish:00000000000000b6 .LBB51
C:\Users\stapi\AppData\Local\Temp\cc0tbpIX.s:945    .text.utils_sha256_finish:00000000000000b6 .LBE51
C:\Users\stapi\AppData\Local\Temp\cc0tbpIX.s:948    .text.utils_sha256_finish:00000000000000b8 .LBB54
C:\Users\stapi\AppData\Local\Temp\cc0tbpIX.s:983    .text.utils_sha256_finish:00000000000000de .LBE54

UNDEFINED SYMBOLS
__riscv_save_1
memcpy
memset
__riscv_restore_1
__riscv_save_12
__riscv_restore_12
__riscv_save_6
__riscv_restore_6
__riscv_save_5
__riscv_restore_5
__riscv_save_3
__riscv_restore_3
