   1              		.file	"utils_base64.c"
   2              		.option nopic
   3              		.attribute arch, "rv32i2p0_m2p0_a2p0_f2p0_c2p0_b_p0p94"
   4              		.attribute unaligned_access, 0
   5              		.attribute stack_align, 16
   6              		.text
   7              	.Ltext0:
   8              		.cfi_sections	.debug_frame
   9              		.section	.rodata.utils_base64encode.str1.4,"aMS",@progbits,1
  10              		.align	2
  11              	.LC0:
  12 0000 5B657272 		.string	"[err] "
  12      5D2000
  13 0007 00       		.align	2
  14              	.LC1:
  15 0008 706F696E 		.string	"pointer of encodedData is NULL!"
  15      74657220 
  15      6F662065 
  15      6E636F64 
  15      65644461 
  16              		.align	2
  17              	.LC2:
  18 0028 0D0A00   		.string	"\r\n"
  19 002b 00       		.align	2
  20              	.LC3:
  21 002c 74686520 		.string	"the length of output memory is not enough!"
  21      6C656E67 
  21      7468206F 
  21      66206F75 
  21      74707574 
  22              		.section	.text.utils_base64encode,"ax",@progbits
  23              		.align	1
  24              		.globl	utils_base64encode
  26              	utils_base64encode:
  27              	.LFB21:
  28              		.file 1 "C:/Users/stapi/OneDrive/Desktop/GD32VW553/V1_MQTT_OK/GD32VW55X_Wifi_BLE_SDK/GD32VW55x_REL
   1:C:/Users/stapi/OneDrive/Desktop/GD32VW553/V1_MQTT_OK/GD32VW55X_Wifi_BLE_SDK/GD32VW55x_RELEASE_V1.0.2/MSDK/cloud/alicloud/src/infra/utils/digest\utils_base64.c **** /*
   2:C:/Users/stapi/OneDrive/Desktop/GD32VW553/V1_MQTT_OK/GD32VW55X_Wifi_BLE_SDK/GD32VW55x_RELEASE_V1.0.2/MSDK/cloud/alicloud/src/infra/utils/digest\utils_base64.c ****  * Copyright (C) 2015-2018 Alibaba Group Holding Limited
   3:C:/Users/stapi/OneDrive/Desktop/GD32VW553/V1_MQTT_OK/GD32VW55X_Wifi_BLE_SDK/GD32VW55x_RELEASE_V1.0.2/MSDK/cloud/alicloud/src/infra/utils/digest\utils_base64.c ****  */
   4:C:/Users/stapi/OneDrive/Desktop/GD32VW553/V1_MQTT_OK/GD32VW55X_Wifi_BLE_SDK/GD32VW55x_RELEASE_V1.0.2/MSDK/cloud/alicloud/src/infra/utils/digest\utils_base64.c **** 
   5:C:/Users/stapi/OneDrive/Desktop/GD32VW553/V1_MQTT_OK/GD32VW55X_Wifi_BLE_SDK/GD32VW55x_RELEASE_V1.0.2/MSDK/cloud/alicloud/src/infra/utils/digest\utils_base64.c **** 
   6:C:/Users/stapi/OneDrive/Desktop/GD32VW553/V1_MQTT_OK/GD32VW55X_Wifi_BLE_SDK/GD32VW55x_RELEASE_V1.0.2/MSDK/cloud/alicloud/src/infra/utils/digest\utils_base64.c **** 
   7:C:/Users/stapi/OneDrive/Desktop/GD32VW553/V1_MQTT_OK/GD32VW55X_Wifi_BLE_SDK/GD32VW55x_RELEASE_V1.0.2/MSDK/cloud/alicloud/src/infra/utils/digest\utils_base64.c **** 
   8:C:/Users/stapi/OneDrive/Desktop/GD32VW553/V1_MQTT_OK/GD32VW55X_Wifi_BLE_SDK/GD32VW55x_RELEASE_V1.0.2/MSDK/cloud/alicloud/src/infra/utils/digest\utils_base64.c **** #include <stdint.h>
   9:C:/Users/stapi/OneDrive/Desktop/GD32VW553/V1_MQTT_OK/GD32VW55X_Wifi_BLE_SDK/GD32VW55x_RELEASE_V1.0.2/MSDK/cloud/alicloud/src/infra/utils/digest\utils_base64.c **** #include <stdlib.h>
  10:C:/Users/stapi/OneDrive/Desktop/GD32VW553/V1_MQTT_OK/GD32VW55X_Wifi_BLE_SDK/GD32VW55x_RELEASE_V1.0.2/MSDK/cloud/alicloud/src/infra/utils/digest\utils_base64.c **** 
  11:C:/Users/stapi/OneDrive/Desktop/GD32VW553/V1_MQTT_OK/GD32VW55X_Wifi_BLE_SDK/GD32VW55x_RELEASE_V1.0.2/MSDK/cloud/alicloud/src/infra/utils/digest\utils_base64.c **** #include "iot_import.h"
  12:C:/Users/stapi/OneDrive/Desktop/GD32VW553/V1_MQTT_OK/GD32VW55X_Wifi_BLE_SDK/GD32VW55x_RELEASE_V1.0.2/MSDK/cloud/alicloud/src/infra/utils/digest\utils_base64.c **** #include "iot_export.h"
  13:C:/Users/stapi/OneDrive/Desktop/GD32VW553/V1_MQTT_OK/GD32VW55X_Wifi_BLE_SDK/GD32VW55x_RELEASE_V1.0.2/MSDK/cloud/alicloud/src/infra/utils/digest\utils_base64.c **** 
  14:C:/Users/stapi/OneDrive/Desktop/GD32VW553/V1_MQTT_OK/GD32VW55X_Wifi_BLE_SDK/GD32VW55x_RELEASE_V1.0.2/MSDK/cloud/alicloud/src/infra/utils/digest\utils_base64.c **** #include "iotx_utils_internal.h"
  15:C:/Users/stapi/OneDrive/Desktop/GD32VW553/V1_MQTT_OK/GD32VW55X_Wifi_BLE_SDK/GD32VW55x_RELEASE_V1.0.2/MSDK/cloud/alicloud/src/infra/utils/digest\utils_base64.c **** #include "utils_base64.h"
  16:C:/Users/stapi/OneDrive/Desktop/GD32VW553/V1_MQTT_OK/GD32VW55X_Wifi_BLE_SDK/GD32VW55x_RELEASE_V1.0.2/MSDK/cloud/alicloud/src/infra/utils/digest\utils_base64.c **** 
  17:C:/Users/stapi/OneDrive/Desktop/GD32VW553/V1_MQTT_OK/GD32VW55X_Wifi_BLE_SDK/GD32VW55x_RELEASE_V1.0.2/MSDK/cloud/alicloud/src/infra/utils/digest\utils_base64.c **** static int8_t g_encodingTable[] = {'A', 'B', 'C', 'D', 'E', 'F', 'G', 'H',
  18:C:/Users/stapi/OneDrive/Desktop/GD32VW553/V1_MQTT_OK/GD32VW55X_Wifi_BLE_SDK/GD32VW55x_RELEASE_V1.0.2/MSDK/cloud/alicloud/src/infra/utils/digest\utils_base64.c ****                                    'I', 'J', 'K', 'L', 'M', 'N', 'O', 'P',
  19:C:/Users/stapi/OneDrive/Desktop/GD32VW553/V1_MQTT_OK/GD32VW55X_Wifi_BLE_SDK/GD32VW55x_RELEASE_V1.0.2/MSDK/cloud/alicloud/src/infra/utils/digest\utils_base64.c ****                                    'Q', 'R', 'S', 'T', 'U', 'V', 'W', 'X',
  20:C:/Users/stapi/OneDrive/Desktop/GD32VW553/V1_MQTT_OK/GD32VW55X_Wifi_BLE_SDK/GD32VW55x_RELEASE_V1.0.2/MSDK/cloud/alicloud/src/infra/utils/digest\utils_base64.c ****                                    'Y', 'Z', 'a', 'b', 'c', 'd', 'e', 'f',
  21:C:/Users/stapi/OneDrive/Desktop/GD32VW553/V1_MQTT_OK/GD32VW55X_Wifi_BLE_SDK/GD32VW55x_RELEASE_V1.0.2/MSDK/cloud/alicloud/src/infra/utils/digest\utils_base64.c ****                                    'g', 'h', 'i', 'j', 'k', 'l', 'm', 'n',
  22:C:/Users/stapi/OneDrive/Desktop/GD32VW553/V1_MQTT_OK/GD32VW55X_Wifi_BLE_SDK/GD32VW55x_RELEASE_V1.0.2/MSDK/cloud/alicloud/src/infra/utils/digest\utils_base64.c ****                                    'o', 'p', 'q', 'r', 's', 't', 'u', 'v',
  23:C:/Users/stapi/OneDrive/Desktop/GD32VW553/V1_MQTT_OK/GD32VW55X_Wifi_BLE_SDK/GD32VW55x_RELEASE_V1.0.2/MSDK/cloud/alicloud/src/infra/utils/digest\utils_base64.c ****                                    'w', 'x', 'y', 'z', '0', '1', '2', '3',
  24:C:/Users/stapi/OneDrive/Desktop/GD32VW553/V1_MQTT_OK/GD32VW55X_Wifi_BLE_SDK/GD32VW55x_RELEASE_V1.0.2/MSDK/cloud/alicloud/src/infra/utils/digest\utils_base64.c ****                                    '4', '5', '6', '7', '8', '9', '+', '/'
  25:C:/Users/stapi/OneDrive/Desktop/GD32VW553/V1_MQTT_OK/GD32VW55X_Wifi_BLE_SDK/GD32VW55x_RELEASE_V1.0.2/MSDK/cloud/alicloud/src/infra/utils/digest\utils_base64.c ****                                   };
  26:C:/Users/stapi/OneDrive/Desktop/GD32VW553/V1_MQTT_OK/GD32VW55X_Wifi_BLE_SDK/GD32VW55x_RELEASE_V1.0.2/MSDK/cloud/alicloud/src/infra/utils/digest\utils_base64.c **** 
  27:C:/Users/stapi/OneDrive/Desktop/GD32VW553/V1_MQTT_OK/GD32VW55X_Wifi_BLE_SDK/GD32VW55x_RELEASE_V1.0.2/MSDK/cloud/alicloud/src/infra/utils/digest\utils_base64.c **** static int8_t g_decodingTable[256];
  28:C:/Users/stapi/OneDrive/Desktop/GD32VW553/V1_MQTT_OK/GD32VW55X_Wifi_BLE_SDK/GD32VW55x_RELEASE_V1.0.2/MSDK/cloud/alicloud/src/infra/utils/digest\utils_base64.c **** static int32_t g_modTable[] = { 0, 2, 1 };
  29:C:/Users/stapi/OneDrive/Desktop/GD32VW553/V1_MQTT_OK/GD32VW55X_Wifi_BLE_SDK/GD32VW55x_RELEASE_V1.0.2/MSDK/cloud/alicloud/src/infra/utils/digest\utils_base64.c **** 
  30:C:/Users/stapi/OneDrive/Desktop/GD32VW553/V1_MQTT_OK/GD32VW55X_Wifi_BLE_SDK/GD32VW55x_RELEASE_V1.0.2/MSDK/cloud/alicloud/src/infra/utils/digest\utils_base64.c **** static void build_decoding_table()
  31:C:/Users/stapi/OneDrive/Desktop/GD32VW553/V1_MQTT_OK/GD32VW55X_Wifi_BLE_SDK/GD32VW55x_RELEASE_V1.0.2/MSDK/cloud/alicloud/src/infra/utils/digest\utils_base64.c **** {
  32:C:/Users/stapi/OneDrive/Desktop/GD32VW553/V1_MQTT_OK/GD32VW55X_Wifi_BLE_SDK/GD32VW55x_RELEASE_V1.0.2/MSDK/cloud/alicloud/src/infra/utils/digest\utils_base64.c ****     static int32_t signal = 0;
  33:C:/Users/stapi/OneDrive/Desktop/GD32VW553/V1_MQTT_OK/GD32VW55X_Wifi_BLE_SDK/GD32VW55x_RELEASE_V1.0.2/MSDK/cloud/alicloud/src/infra/utils/digest\utils_base64.c ****     int32_t i = 0;
  34:C:/Users/stapi/OneDrive/Desktop/GD32VW553/V1_MQTT_OK/GD32VW55X_Wifi_BLE_SDK/GD32VW55x_RELEASE_V1.0.2/MSDK/cloud/alicloud/src/infra/utils/digest\utils_base64.c **** 
  35:C:/Users/stapi/OneDrive/Desktop/GD32VW553/V1_MQTT_OK/GD32VW55X_Wifi_BLE_SDK/GD32VW55x_RELEASE_V1.0.2/MSDK/cloud/alicloud/src/infra/utils/digest\utils_base64.c ****     if (signal != 0) {
  36:C:/Users/stapi/OneDrive/Desktop/GD32VW553/V1_MQTT_OK/GD32VW55X_Wifi_BLE_SDK/GD32VW55x_RELEASE_V1.0.2/MSDK/cloud/alicloud/src/infra/utils/digest\utils_base64.c ****         return;
  37:C:/Users/stapi/OneDrive/Desktop/GD32VW553/V1_MQTT_OK/GD32VW55X_Wifi_BLE_SDK/GD32VW55x_RELEASE_V1.0.2/MSDK/cloud/alicloud/src/infra/utils/digest\utils_base64.c ****     }
  38:C:/Users/stapi/OneDrive/Desktop/GD32VW553/V1_MQTT_OK/GD32VW55X_Wifi_BLE_SDK/GD32VW55x_RELEASE_V1.0.2/MSDK/cloud/alicloud/src/infra/utils/digest\utils_base64.c **** 
  39:C:/Users/stapi/OneDrive/Desktop/GD32VW553/V1_MQTT_OK/GD32VW55X_Wifi_BLE_SDK/GD32VW55x_RELEASE_V1.0.2/MSDK/cloud/alicloud/src/infra/utils/digest\utils_base64.c ****     for (i = 0; i < 64; i++) {
  40:C:/Users/stapi/OneDrive/Desktop/GD32VW553/V1_MQTT_OK/GD32VW55X_Wifi_BLE_SDK/GD32VW55x_RELEASE_V1.0.2/MSDK/cloud/alicloud/src/infra/utils/digest\utils_base64.c ****         g_decodingTable[(uint8_t) g_encodingTable[i]] = i;
  41:C:/Users/stapi/OneDrive/Desktop/GD32VW553/V1_MQTT_OK/GD32VW55X_Wifi_BLE_SDK/GD32VW55x_RELEASE_V1.0.2/MSDK/cloud/alicloud/src/infra/utils/digest\utils_base64.c ****     }
  42:C:/Users/stapi/OneDrive/Desktop/GD32VW553/V1_MQTT_OK/GD32VW55X_Wifi_BLE_SDK/GD32VW55x_RELEASE_V1.0.2/MSDK/cloud/alicloud/src/infra/utils/digest\utils_base64.c **** 
  43:C:/Users/stapi/OneDrive/Desktop/GD32VW553/V1_MQTT_OK/GD32VW55X_Wifi_BLE_SDK/GD32VW55x_RELEASE_V1.0.2/MSDK/cloud/alicloud/src/infra/utils/digest\utils_base64.c ****     signal = 1;
  44:C:/Users/stapi/OneDrive/Desktop/GD32VW553/V1_MQTT_OK/GD32VW55X_Wifi_BLE_SDK/GD32VW55x_RELEASE_V1.0.2/MSDK/cloud/alicloud/src/infra/utils/digest\utils_base64.c ****     return;
  45:C:/Users/stapi/OneDrive/Desktop/GD32VW553/V1_MQTT_OK/GD32VW55X_Wifi_BLE_SDK/GD32VW55x_RELEASE_V1.0.2/MSDK/cloud/alicloud/src/infra/utils/digest\utils_base64.c **** }
  46:C:/Users/stapi/OneDrive/Desktop/GD32VW553/V1_MQTT_OK/GD32VW55X_Wifi_BLE_SDK/GD32VW55x_RELEASE_V1.0.2/MSDK/cloud/alicloud/src/infra/utils/digest\utils_base64.c **** 
  47:C:/Users/stapi/OneDrive/Desktop/GD32VW553/V1_MQTT_OK/GD32VW55X_Wifi_BLE_SDK/GD32VW55x_RELEASE_V1.0.2/MSDK/cloud/alicloud/src/infra/utils/digest\utils_base64.c **** iotx_err_t utils_base64encode(const uint8_t *data, uint32_t inputLength, uint32_t outputLenMax,
  48:C:/Users/stapi/OneDrive/Desktop/GD32VW553/V1_MQTT_OK/GD32VW55X_Wifi_BLE_SDK/GD32VW55x_RELEASE_V1.0.2/MSDK/cloud/alicloud/src/infra/utils/digest\utils_base64.c ****                               uint8_t *encodedData, uint32_t *outputLength)
  49:C:/Users/stapi/OneDrive/Desktop/GD32VW553/V1_MQTT_OK/GD32VW55X_Wifi_BLE_SDK/GD32VW55x_RELEASE_V1.0.2/MSDK/cloud/alicloud/src/infra/utils/digest\utils_base64.c **** {
  29              		.loc 1 49 1
  30              		.cfi_startproc
  31              	.LVL0:
  32 0000 17030000 		call	t0,__riscv_save_0
  32      E7020300 
  33              		.cfi_offset 1, -4
  34              		.cfi_def_cfa_offset 16
  50:C:/Users/stapi/OneDrive/Desktop/GD32VW553/V1_MQTT_OK/GD32VW55X_Wifi_BLE_SDK/GD32VW55x_RELEASE_V1.0.2/MSDK/cloud/alicloud/src/infra/utils/digest\utils_base64.c ****     uint32_t i = 0;
  35              		.loc 1 50 5
  36              	.LVL1:
  51:C:/Users/stapi/OneDrive/Desktop/GD32VW553/V1_MQTT_OK/GD32VW55X_Wifi_BLE_SDK/GD32VW55x_RELEASE_V1.0.2/MSDK/cloud/alicloud/src/infra/utils/digest\utils_base64.c ****     uint32_t j = 0;
  37              		.loc 1 51 5
  52:C:/Users/stapi/OneDrive/Desktop/GD32VW553/V1_MQTT_OK/GD32VW55X_Wifi_BLE_SDK/GD32VW55x_RELEASE_V1.0.2/MSDK/cloud/alicloud/src/infra/utils/digest\utils_base64.c **** 
  53:C:/Users/stapi/OneDrive/Desktop/GD32VW553/V1_MQTT_OK/GD32VW55X_Wifi_BLE_SDK/GD32VW55x_RELEASE_V1.0.2/MSDK/cloud/alicloud/src/infra/utils/digest\utils_base64.c ****     if (NULL == encodedData) {
  38              		.loc 1 53 5
  39              		.loc 1 53 8 is_stmt 0
  40 0008 95EE     		bne	a3,zero,.L2
  54:C:/Users/stapi/OneDrive/Desktop/GD32VW553/V1_MQTT_OK/GD32VW55X_Wifi_BLE_SDK/GD32VW55x_RELEASE_V1.0.2/MSDK/cloud/alicloud/src/infra/utils/digest\utils_base64.c ****         utils_err("pointer of encodedData is NULL!");
  41              		.loc 1 54 9 is_stmt 1
  42              		.loc 1 54 9
  43 000a 37050000 		lui	a0,%hi(.LC0)
  44              	.LVL2:
  45 000e 13050500 		addi	a0,a0,%lo(.LC0)
  46 0012 97000000 		call	HAL_Printf
  46      E7800000 
  47              	.LVL3:
  48              		.loc 1 54 9
  49 001a 37050000 		lui	a0,%hi(.LC1)
  50 001e 13050500 		addi	a0,a0,%lo(.LC1)
  51              	.L14:
  55:C:/Users/stapi/OneDrive/Desktop/GD32VW553/V1_MQTT_OK/GD32VW55X_Wifi_BLE_SDK/GD32VW55x_RELEASE_V1.0.2/MSDK/cloud/alicloud/src/infra/utils/digest\utils_base64.c ****         return FAIL_RETURN;
  56:C:/Users/stapi/OneDrive/Desktop/GD32VW553/V1_MQTT_OK/GD32VW55X_Wifi_BLE_SDK/GD32VW55x_RELEASE_V1.0.2/MSDK/cloud/alicloud/src/infra/utils/digest\utils_base64.c ****     }
  57:C:/Users/stapi/OneDrive/Desktop/GD32VW553/V1_MQTT_OK/GD32VW55X_Wifi_BLE_SDK/GD32VW55x_RELEASE_V1.0.2/MSDK/cloud/alicloud/src/infra/utils/digest\utils_base64.c **** 
  58:C:/Users/stapi/OneDrive/Desktop/GD32VW553/V1_MQTT_OK/GD32VW55X_Wifi_BLE_SDK/GD32VW55x_RELEASE_V1.0.2/MSDK/cloud/alicloud/src/infra/utils/digest\utils_base64.c ****     *outputLength = 4 * ((inputLength + 2) / 3);
  59:C:/Users/stapi/OneDrive/Desktop/GD32VW553/V1_MQTT_OK/GD32VW55X_Wifi_BLE_SDK/GD32VW55x_RELEASE_V1.0.2/MSDK/cloud/alicloud/src/infra/utils/digest\utils_base64.c **** 
  60:C:/Users/stapi/OneDrive/Desktop/GD32VW553/V1_MQTT_OK/GD32VW55X_Wifi_BLE_SDK/GD32VW55x_RELEASE_V1.0.2/MSDK/cloud/alicloud/src/infra/utils/digest\utils_base64.c ****     if (outputLenMax < *outputLength) {
  61:C:/Users/stapi/OneDrive/Desktop/GD32VW553/V1_MQTT_OK/GD32VW55X_Wifi_BLE_SDK/GD32VW55x_RELEASE_V1.0.2/MSDK/cloud/alicloud/src/infra/utils/digest\utils_base64.c ****         utils_err("the length of output memory is not enough!");
  52              		.loc 1 61 9 is_stmt 0
  53 0022 97000000 		call	HAL_Printf
  53      E7800000 
  54              	.LVL4:
  55              		.loc 1 61 9 is_stmt 1
  56 002a 37050000 		lui	a0,%hi(.LC2)
  57 002e 13050500 		addi	a0,a0,%lo(.LC2)
  58 0032 97000000 		call	HAL_Printf
  58      E7800000 
  59              	.LVL5:
  60              		.loc 1 61 9
  62:C:/Users/stapi/OneDrive/Desktop/GD32VW553/V1_MQTT_OK/GD32VW55X_Wifi_BLE_SDK/GD32VW55x_RELEASE_V1.0.2/MSDK/cloud/alicloud/src/infra/utils/digest\utils_base64.c ****         return FAIL_RETURN;
  61              		.loc 1 62 9
  62              		.loc 1 62 16 is_stmt 0
  63 003a 7D55     		li	a0,-1
  64              	.LVL6:
  65              	.L1:
  63:C:/Users/stapi/OneDrive/Desktop/GD32VW553/V1_MQTT_OK/GD32VW55X_Wifi_BLE_SDK/GD32VW55x_RELEASE_V1.0.2/MSDK/cloud/alicloud/src/infra/utils/digest\utils_base64.c ****     }
  64:C:/Users/stapi/OneDrive/Desktop/GD32VW553/V1_MQTT_OK/GD32VW55X_Wifi_BLE_SDK/GD32VW55x_RELEASE_V1.0.2/MSDK/cloud/alicloud/src/infra/utils/digest\utils_base64.c **** 
  65:C:/Users/stapi/OneDrive/Desktop/GD32VW553/V1_MQTT_OK/GD32VW55X_Wifi_BLE_SDK/GD32VW55x_RELEASE_V1.0.2/MSDK/cloud/alicloud/src/infra/utils/digest\utils_base64.c ****     for (i = 0, j = 0; i < inputLength;) {
  66:C:/Users/stapi/OneDrive/Desktop/GD32VW553/V1_MQTT_OK/GD32VW55X_Wifi_BLE_SDK/GD32VW55x_RELEASE_V1.0.2/MSDK/cloud/alicloud/src/infra/utils/digest\utils_base64.c ****         uint32_t octet_a = i < inputLength ? (uint8_t) data[i++] : 0;
  67:C:/Users/stapi/OneDrive/Desktop/GD32VW553/V1_MQTT_OK/GD32VW55X_Wifi_BLE_SDK/GD32VW55x_RELEASE_V1.0.2/MSDK/cloud/alicloud/src/infra/utils/digest\utils_base64.c ****         uint32_t octet_b = i < inputLength ? (uint8_t) data[i++] : 0;
  68:C:/Users/stapi/OneDrive/Desktop/GD32VW553/V1_MQTT_OK/GD32VW55X_Wifi_BLE_SDK/GD32VW55x_RELEASE_V1.0.2/MSDK/cloud/alicloud/src/infra/utils/digest\utils_base64.c ****         uint32_t octet_c = i < inputLength ? (uint8_t) data[i++] : 0;
  69:C:/Users/stapi/OneDrive/Desktop/GD32VW553/V1_MQTT_OK/GD32VW55X_Wifi_BLE_SDK/GD32VW55x_RELEASE_V1.0.2/MSDK/cloud/alicloud/src/infra/utils/digest\utils_base64.c **** 
  70:C:/Users/stapi/OneDrive/Desktop/GD32VW553/V1_MQTT_OK/GD32VW55X_Wifi_BLE_SDK/GD32VW55x_RELEASE_V1.0.2/MSDK/cloud/alicloud/src/infra/utils/digest\utils_base64.c ****         uint32_t triple = (octet_a << 0x10) + (octet_b << 0x08) + octet_c;
  71:C:/Users/stapi/OneDrive/Desktop/GD32VW553/V1_MQTT_OK/GD32VW55X_Wifi_BLE_SDK/GD32VW55x_RELEASE_V1.0.2/MSDK/cloud/alicloud/src/infra/utils/digest\utils_base64.c **** 
  72:C:/Users/stapi/OneDrive/Desktop/GD32VW553/V1_MQTT_OK/GD32VW55X_Wifi_BLE_SDK/GD32VW55x_RELEASE_V1.0.2/MSDK/cloud/alicloud/src/infra/utils/digest\utils_base64.c ****         encodedData[j++] = g_encodingTable[(triple >> 3 * 6) & 0x3F];
  73:C:/Users/stapi/OneDrive/Desktop/GD32VW553/V1_MQTT_OK/GD32VW55X_Wifi_BLE_SDK/GD32VW55x_RELEASE_V1.0.2/MSDK/cloud/alicloud/src/infra/utils/digest\utils_base64.c ****         encodedData[j++] = g_encodingTable[(triple >> 2 * 6) & 0x3F];
  74:C:/Users/stapi/OneDrive/Desktop/GD32VW553/V1_MQTT_OK/GD32VW55X_Wifi_BLE_SDK/GD32VW55x_RELEASE_V1.0.2/MSDK/cloud/alicloud/src/infra/utils/digest\utils_base64.c ****         encodedData[j++] = g_encodingTable[(triple >> 1 * 6) & 0x3F];
  75:C:/Users/stapi/OneDrive/Desktop/GD32VW553/V1_MQTT_OK/GD32VW55X_Wifi_BLE_SDK/GD32VW55x_RELEASE_V1.0.2/MSDK/cloud/alicloud/src/infra/utils/digest\utils_base64.c ****         encodedData[j++] = g_encodingTable[(triple >> 0 * 6) & 0x3F];
  76:C:/Users/stapi/OneDrive/Desktop/GD32VW553/V1_MQTT_OK/GD32VW55X_Wifi_BLE_SDK/GD32VW55x_RELEASE_V1.0.2/MSDK/cloud/alicloud/src/infra/utils/digest\utils_base64.c ****     }
  77:C:/Users/stapi/OneDrive/Desktop/GD32VW553/V1_MQTT_OK/GD32VW55X_Wifi_BLE_SDK/GD32VW55x_RELEASE_V1.0.2/MSDK/cloud/alicloud/src/infra/utils/digest\utils_base64.c **** 
  78:C:/Users/stapi/OneDrive/Desktop/GD32VW553/V1_MQTT_OK/GD32VW55X_Wifi_BLE_SDK/GD32VW55x_RELEASE_V1.0.2/MSDK/cloud/alicloud/src/infra/utils/digest\utils_base64.c ****     for (i = 0; i < g_modTable[inputLength % 3]; i++) {
  79:C:/Users/stapi/OneDrive/Desktop/GD32VW553/V1_MQTT_OK/GD32VW55X_Wifi_BLE_SDK/GD32VW55x_RELEASE_V1.0.2/MSDK/cloud/alicloud/src/infra/utils/digest\utils_base64.c ****         encodedData[*outputLength - 1 - i] = '=';
  80:C:/Users/stapi/OneDrive/Desktop/GD32VW553/V1_MQTT_OK/GD32VW55X_Wifi_BLE_SDK/GD32VW55x_RELEASE_V1.0.2/MSDK/cloud/alicloud/src/infra/utils/digest\utils_base64.c ****     }
  81:C:/Users/stapi/OneDrive/Desktop/GD32VW553/V1_MQTT_OK/GD32VW55X_Wifi_BLE_SDK/GD32VW55x_RELEASE_V1.0.2/MSDK/cloud/alicloud/src/infra/utils/digest\utils_base64.c **** 
  82:C:/Users/stapi/OneDrive/Desktop/GD32VW553/V1_MQTT_OK/GD32VW55X_Wifi_BLE_SDK/GD32VW55x_RELEASE_V1.0.2/MSDK/cloud/alicloud/src/infra/utils/digest\utils_base64.c ****     return SUCCESS_RETURN;
  83:C:/Users/stapi/OneDrive/Desktop/GD32VW553/V1_MQTT_OK/GD32VW55X_Wifi_BLE_SDK/GD32VW55x_RELEASE_V1.0.2/MSDK/cloud/alicloud/src/infra/utils/digest\utils_base64.c **** }
  66              		.loc 1 83 1
  67 003c 17030000 		tail	__riscv_restore_0
  67      67000300 
  68              		.cfi_remember_state
  69              		.cfi_restore 1
  70              		.cfi_def_cfa_offset 0
  71              	.LVL7:
  72              	.L2:
  73              		.cfi_restore_state
  58:C:/Users/stapi/OneDrive/Desktop/GD32VW553/V1_MQTT_OK/GD32VW55X_Wifi_BLE_SDK/GD32VW55x_RELEASE_V1.0.2/MSDK/cloud/alicloud/src/infra/utils/digest\utils_base64.c **** 
  74              		.loc 1 58 5 is_stmt 1
  58:C:/Users/stapi/OneDrive/Desktop/GD32VW553/V1_MQTT_OK/GD32VW55X_Wifi_BLE_SDK/GD32VW55x_RELEASE_V1.0.2/MSDK/cloud/alicloud/src/infra/utils/digest\utils_base64.c **** 
  75              		.loc 1 58 39 is_stmt 0
  76 0044 93872500 		addi	a5,a1,2
  58:C:/Users/stapi/OneDrive/Desktop/GD32VW553/V1_MQTT_OK/GD32VW55X_Wifi_BLE_SDK/GD32VW55x_RELEASE_V1.0.2/MSDK/cloud/alicloud/src/infra/utils/digest\utils_base64.c **** 
  77              		.loc 1 58 44
  78 0048 0D48     		li	a6,3
  79 004a B3D70703 		divu	a5,a5,a6
  58:C:/Users/stapi/OneDrive/Desktop/GD32VW553/V1_MQTT_OK/GD32VW55X_Wifi_BLE_SDK/GD32VW55x_RELEASE_V1.0.2/MSDK/cloud/alicloud/src/infra/utils/digest\utils_base64.c **** 
  80              		.loc 1 58 23
  81 004e 8A07     		slli	a5,a5,2
  58:C:/Users/stapi/OneDrive/Desktop/GD32VW553/V1_MQTT_OK/GD32VW55X_Wifi_BLE_SDK/GD32VW55x_RELEASE_V1.0.2/MSDK/cloud/alicloud/src/infra/utils/digest\utils_base64.c **** 
  82              		.loc 1 58 19
  83 0050 1CC3     		sw	a5,0(a4)
  60:C:/Users/stapi/OneDrive/Desktop/GD32VW553/V1_MQTT_OK/GD32VW55X_Wifi_BLE_SDK/GD32VW55x_RELEASE_V1.0.2/MSDK/cloud/alicloud/src/infra/utils/digest\utils_base64.c ****         utils_err("the length of output memory is not enough!");
  84              		.loc 1 60 5 is_stmt 1
  60:C:/Users/stapi/OneDrive/Desktop/GD32VW553/V1_MQTT_OK/GD32VW55X_Wifi_BLE_SDK/GD32VW55x_RELEASE_V1.0.2/MSDK/cloud/alicloud/src/infra/utils/digest\utils_base64.c ****         utils_err("the length of output memory is not enough!");
  85              		.loc 1 60 8 is_stmt 0
  86 0052 636BF602 		bgtu	a5,a2,.L4
  87              	.LBB2:
  72:C:/Users/stapi/OneDrive/Desktop/GD32VW553/V1_MQTT_OK/GD32VW55X_Wifi_BLE_SDK/GD32VW55x_RELEASE_V1.0.2/MSDK/cloud/alicloud/src/infra/utils/digest\utils_base64.c ****         encodedData[j++] = g_encodingTable[(triple >> 2 * 6) & 0x3F];
  88              		.loc 1 72 43
  89 0056 37030000 		lui	t1,%hi(.LANCHOR0)
  90 005a B688     		mv	a7,a3
  91              	.LBE2:
  65:C:/Users/stapi/OneDrive/Desktop/GD32VW553/V1_MQTT_OK/GD32VW55X_Wifi_BLE_SDK/GD32VW55x_RELEASE_V1.0.2/MSDK/cloud/alicloud/src/infra/utils/digest\utils_base64.c ****         uint32_t octet_a = i < inputLength ? (uint8_t) data[i++] : 0;
  92              		.loc 1 65 12
  93 005c 0146     		li	a2,0
  94              	.LVL8:
  95              	.LBB3:
  72:C:/Users/stapi/OneDrive/Desktop/GD32VW553/V1_MQTT_OK/GD32VW55X_Wifi_BLE_SDK/GD32VW55x_RELEASE_V1.0.2/MSDK/cloud/alicloud/src/infra/utils/digest\utils_base64.c ****         encodedData[j++] = g_encodingTable[(triple >> 2 * 6) & 0x3F];
  96              		.loc 1 72 43
  97 005e 13030300 		addi	t1,t1,%lo(.LANCHOR0)
  98              	.LVL9:
  99              	.L5:
 100              	.LBE3:
  65:C:/Users/stapi/OneDrive/Desktop/GD32VW553/V1_MQTT_OK/GD32VW55X_Wifi_BLE_SDK/GD32VW55x_RELEASE_V1.0.2/MSDK/cloud/alicloud/src/infra/utils/digest\utils_base64.c ****         uint32_t octet_a = i < inputLength ? (uint8_t) data[i++] : 0;
 101              		.loc 1 65 24 is_stmt 1 discriminator 1
  65:C:/Users/stapi/OneDrive/Desktop/GD32VW553/V1_MQTT_OK/GD32VW55X_Wifi_BLE_SDK/GD32VW55x_RELEASE_V1.0.2/MSDK/cloud/alicloud/src/infra/utils/digest\utils_base64.c ****         uint32_t octet_a = i < inputLength ? (uint8_t) data[i++] : 0;
 102              		.loc 1 65 5 is_stmt 0 discriminator 1
 103 0062 6360B604 		bltu	a2,a1,.L7
  78:C:/Users/stapi/OneDrive/Desktop/GD32VW553/V1_MQTT_OK/GD32VW55X_Wifi_BLE_SDK/GD32VW55x_RELEASE_V1.0.2/MSDK/cloud/alicloud/src/infra/utils/digest\utils_base64.c ****         encodedData[*outputLength - 1 - i] = '=';
 104              		.loc 1 78 44
 105 0066 8D47     		li	a5,3
 106 0068 B3F5F502 		remu	a1,a1,a5
 107              	.LVL10:
  78:C:/Users/stapi/OneDrive/Desktop/GD32VW553/V1_MQTT_OK/GD32VW55X_Wifi_BLE_SDK/GD32VW55x_RELEASE_V1.0.2/MSDK/cloud/alicloud/src/infra/utils/digest\utils_base64.c ****         encodedData[*outputLength - 1 - i] = '=';
 108              		.loc 1 78 31
 109 006c B7070000 		lui	a5,%hi(.LANCHOR1)
 110 0070 93870700 		addi	a5,a5,%lo(.LANCHOR1)
  78:C:/Users/stapi/OneDrive/Desktop/GD32VW553/V1_MQTT_OK/GD32VW55X_Wifi_BLE_SDK/GD32VW55x_RELEASE_V1.0.2/MSDK/cloud/alicloud/src/infra/utils/digest\utils_base64.c ****         encodedData[*outputLength - 1 - i] = '=';
 111              		.loc 1 78 12
 112 0074 0146     		li	a2,0
 113              	.LVL11:
  79:C:/Users/stapi/OneDrive/Desktop/GD32VW553/V1_MQTT_OK/GD32VW55X_Wifi_BLE_SDK/GD32VW55x_RELEASE_V1.0.2/MSDK/cloud/alicloud/src/infra/utils/digest\utils_base64.c ****     }
 114              		.loc 1 79 44
 115 0076 1305D003 		li	a0,61
 116              	.LVL12:
  78:C:/Users/stapi/OneDrive/Desktop/GD32VW553/V1_MQTT_OK/GD32VW55X_Wifi_BLE_SDK/GD32VW55x_RELEASE_V1.0.2/MSDK/cloud/alicloud/src/infra/utils/digest\utils_base64.c ****         encodedData[*outputLength - 1 - i] = '=';
 117              		.loc 1 78 31
 118 007a B3C5F520 		sh2add	a1,a1,a5
 119 007e 8C41     		lw	a1,0(a1)
 120              	.L8:
 121              	.LVL13:
  78:C:/Users/stapi/OneDrive/Desktop/GD32VW553/V1_MQTT_OK/GD32VW55X_Wifi_BLE_SDK/GD32VW55x_RELEASE_V1.0.2/MSDK/cloud/alicloud/src/infra/utils/digest\utils_base64.c ****         encodedData[*outputLength - 1 - i] = '=';
 122              		.loc 1 78 17 is_stmt 1 discriminator 1
  78:C:/Users/stapi/OneDrive/Desktop/GD32VW553/V1_MQTT_OK/GD32VW55X_Wifi_BLE_SDK/GD32VW55x_RELEASE_V1.0.2/MSDK/cloud/alicloud/src/infra/utils/digest\utils_base64.c ****         encodedData[*outputLength - 1 - i] = '=';
 123              		.loc 1 78 5 is_stmt 0 discriminator 1
 124 0080 6390C50A 		bne	a1,a2,.L9
  82:C:/Users/stapi/OneDrive/Desktop/GD32VW553/V1_MQTT_OK/GD32VW55X_Wifi_BLE_SDK/GD32VW55x_RELEASE_V1.0.2/MSDK/cloud/alicloud/src/infra/utils/digest\utils_base64.c **** }
 125              		.loc 1 82 12
 126 0084 0145     		li	a0,0
 127 0086 5DBF     		j	.L1
 128              	.LVL14:
 129              	.L4:
  61:C:/Users/stapi/OneDrive/Desktop/GD32VW553/V1_MQTT_OK/GD32VW55X_Wifi_BLE_SDK/GD32VW55x_RELEASE_V1.0.2/MSDK/cloud/alicloud/src/infra/utils/digest\utils_base64.c ****         return FAIL_RETURN;
 130              		.loc 1 61 9 is_stmt 1
  61:C:/Users/stapi/OneDrive/Desktop/GD32VW553/V1_MQTT_OK/GD32VW55X_Wifi_BLE_SDK/GD32VW55x_RELEASE_V1.0.2/MSDK/cloud/alicloud/src/infra/utils/digest\utils_base64.c ****         return FAIL_RETURN;
 131              		.loc 1 61 9
 132 0088 37050000 		lui	a0,%hi(.LC0)
 133              	.LVL15:
 134 008c 13050500 		addi	a0,a0,%lo(.LC0)
 135 0090 97000000 		call	HAL_Printf
 135      E7800000 
 136              	.LVL16:
  61:C:/Users/stapi/OneDrive/Desktop/GD32VW553/V1_MQTT_OK/GD32VW55X_Wifi_BLE_SDK/GD32VW55x_RELEASE_V1.0.2/MSDK/cloud/alicloud/src/infra/utils/digest\utils_base64.c ****         return FAIL_RETURN;
 137              		.loc 1 61 9
 138 0098 37050000 		lui	a0,%hi(.LC3)
 139 009c 13050500 		addi	a0,a0,%lo(.LC3)
 140 00a0 49B7     		j	.L14
 141              	.LVL17:
 142              	.L7:
 143              	.LBB4:
  66:C:/Users/stapi/OneDrive/Desktop/GD32VW553/V1_MQTT_OK/GD32VW55X_Wifi_BLE_SDK/GD32VW55x_RELEASE_V1.0.2/MSDK/cloud/alicloud/src/infra/utils/digest\utils_base64.c ****         uint32_t octet_b = i < inputLength ? (uint8_t) data[i++] : 0;
 144              		.loc 1 66 9 discriminator 1
  66:C:/Users/stapi/OneDrive/Desktop/GD32VW553/V1_MQTT_OK/GD32VW55X_Wifi_BLE_SDK/GD32VW55x_RELEASE_V1.0.2/MSDK/cloud/alicloud/src/infra/utils/digest\utils_base64.c ****         uint32_t octet_b = i < inputLength ? (uint8_t) data[i++] : 0;
 145              		.loc 1 66 60 is_stmt 0 discriminator 1
 146 00a2 B307C500 		add	a5,a0,a2
  66:C:/Users/stapi/OneDrive/Desktop/GD32VW553/V1_MQTT_OK/GD32VW55X_Wifi_BLE_SDK/GD32VW55x_RELEASE_V1.0.2/MSDK/cloud/alicloud/src/infra/utils/digest\utils_base64.c ****         uint32_t octet_b = i < inputLength ? (uint8_t) data[i++] : 0;
 147              		.loc 1 66 62 discriminator 1
 148 00a6 13081600 		addi	a6,a2,1
 149              	.LVL18:
  66:C:/Users/stapi/OneDrive/Desktop/GD32VW553/V1_MQTT_OK/GD32VW55X_Wifi_BLE_SDK/GD32VW55x_RELEASE_V1.0.2/MSDK/cloud/alicloud/src/infra/utils/digest\utils_base64.c ****         uint32_t octet_b = i < inputLength ? (uint8_t) data[i++] : 0;
 150              		.loc 1 66 66 discriminator 1
 151 00aa 83C70700 		lbu	a5,0(a5)
 152              	.LVL19:
  67:C:/Users/stapi/OneDrive/Desktop/GD32VW553/V1_MQTT_OK/GD32VW55X_Wifi_BLE_SDK/GD32VW55x_RELEASE_V1.0.2/MSDK/cloud/alicloud/src/infra/utils/digest\utils_base64.c ****         uint32_t octet_c = i < inputLength ? (uint8_t) data[i++] : 0;
 153              		.loc 1 67 9 is_stmt 1 discriminator 1
  67:C:/Users/stapi/OneDrive/Desktop/GD32VW553/V1_MQTT_OK/GD32VW55X_Wifi_BLE_SDK/GD32VW55x_RELEASE_V1.0.2/MSDK/cloud/alicloud/src/infra/utils/digest\utils_base64.c ****         uint32_t octet_c = i < inputLength ? (uint8_t) data[i++] : 0;
 154              		.loc 1 67 66 is_stmt 0 discriminator 1
 155 00ae 6374B806 		bleu	a1,a6,.L10
  67:C:/Users/stapi/OneDrive/Desktop/GD32VW553/V1_MQTT_OK/GD32VW55X_Wifi_BLE_SDK/GD32VW55x_RELEASE_V1.0.2/MSDK/cloud/alicloud/src/infra/utils/digest\utils_base64.c ****         uint32_t octet_c = i < inputLength ? (uint8_t) data[i++] : 0;
 156              		.loc 1 67 60 discriminator 1
 157 00b2 2A98     		add	a6,a0,a6
 158              	.LVL20:
  67:C:/Users/stapi/OneDrive/Desktop/GD32VW553/V1_MQTT_OK/GD32VW55X_Wifi_BLE_SDK/GD32VW55x_RELEASE_V1.0.2/MSDK/cloud/alicloud/src/infra/utils/digest\utils_base64.c ****         uint32_t octet_c = i < inputLength ? (uint8_t) data[i++] : 0;
 159              		.loc 1 67 62 discriminator 1
 160 00b4 130E2600 		addi	t3,a2,2
 161              	.LVL21:
  67:C:/Users/stapi/OneDrive/Desktop/GD32VW553/V1_MQTT_OK/GD32VW55X_Wifi_BLE_SDK/GD32VW55x_RELEASE_V1.0.2/MSDK/cloud/alicloud/src/infra/utils/digest\utils_base64.c ****         uint32_t octet_c = i < inputLength ? (uint8_t) data[i++] : 0;
 162              		.loc 1 67 66 discriminator 1
 163 00b8 834E0800 		lbu	t4,0(a6)
 164              	.LVL22:
  68:C:/Users/stapi/OneDrive/Desktop/GD32VW553/V1_MQTT_OK/GD32VW55X_Wifi_BLE_SDK/GD32VW55x_RELEASE_V1.0.2/MSDK/cloud/alicloud/src/infra/utils/digest\utils_base64.c **** 
 165              		.loc 1 68 9 is_stmt 1 discriminator 1
  68:C:/Users/stapi/OneDrive/Desktop/GD32VW553/V1_MQTT_OK/GD32VW55X_Wifi_BLE_SDK/GD32VW55x_RELEASE_V1.0.2/MSDK/cloud/alicloud/src/infra/utils/digest\utils_base64.c **** 
 166              		.loc 1 68 66 is_stmt 0 discriminator 1
 167 00bc 6370BE06 		bleu	a1,t3,.L11
  68:C:/Users/stapi/OneDrive/Desktop/GD32VW553/V1_MQTT_OK/GD32VW55X_Wifi_BLE_SDK/GD32VW55x_RELEASE_V1.0.2/MSDK/cloud/alicloud/src/infra/utils/digest\utils_base64.c **** 
 168              		.loc 1 68 60 discriminator 1
 169 00c0 2A9E     		add	t3,a0,t3
 170              	.LVL23:
  68:C:/Users/stapi/OneDrive/Desktop/GD32VW553/V1_MQTT_OK/GD32VW55X_Wifi_BLE_SDK/GD32VW55x_RELEASE_V1.0.2/MSDK/cloud/alicloud/src/infra/utils/digest\utils_base64.c **** 
 171              		.loc 1 68 62 discriminator 1
 172 00c2 13083600 		addi	a6,a2,3
 173              	.LVL24:
  68:C:/Users/stapi/OneDrive/Desktop/GD32VW553/V1_MQTT_OK/GD32VW55X_Wifi_BLE_SDK/GD32VW55x_RELEASE_V1.0.2/MSDK/cloud/alicloud/src/infra/utils/digest\utils_base64.c **** 
 174              		.loc 1 68 66 discriminator 1
 175 00c6 03460E00 		lbu	a2,0(t3)
 176              	.LVL25:
 177              	.L6:
  70:C:/Users/stapi/OneDrive/Desktop/GD32VW553/V1_MQTT_OK/GD32VW55X_Wifi_BLE_SDK/GD32VW55x_RELEASE_V1.0.2/MSDK/cloud/alicloud/src/infra/utils/digest\utils_base64.c **** 
 178              		.loc 1 70 9 is_stmt 1 discriminator 4
  70:C:/Users/stapi/OneDrive/Desktop/GD32VW553/V1_MQTT_OK/GD32VW55X_Wifi_BLE_SDK/GD32VW55x_RELEASE_V1.0.2/MSDK/cloud/alicloud/src/infra/utils/digest\utils_base64.c **** 
 179              		.loc 1 70 36 is_stmt 0 discriminator 4
 180 00ca C207     		slli	a5,a5,16
 181              	.LVL26:
  70:C:/Users/stapi/OneDrive/Desktop/GD32VW553/V1_MQTT_OK/GD32VW55X_Wifi_BLE_SDK/GD32VW55x_RELEASE_V1.0.2/MSDK/cloud/alicloud/src/infra/utils/digest\utils_base64.c **** 
 182              		.loc 1 70 56 discriminator 4
 183 00cc A20E     		slli	t4,t4,8
  70:C:/Users/stapi/OneDrive/Desktop/GD32VW553/V1_MQTT_OK/GD32VW55X_Wifi_BLE_SDK/GD32VW55x_RELEASE_V1.0.2/MSDK/cloud/alicloud/src/infra/utils/digest\utils_base64.c **** 
 184              		.loc 1 70 45 discriminator 4
 185 00ce F697     		add	a5,a5,t4
  70:C:/Users/stapi/OneDrive/Desktop/GD32VW553/V1_MQTT_OK/GD32VW55X_Wifi_BLE_SDK/GD32VW55x_RELEASE_V1.0.2/MSDK/cloud/alicloud/src/infra/utils/digest\utils_base64.c **** 
 186              		.loc 1 70 18 discriminator 4
 187 00d0 3E96     		add	a2,a5,a2
 188              	.LVL27:
  72:C:/Users/stapi/OneDrive/Desktop/GD32VW553/V1_MQTT_OK/GD32VW55X_Wifi_BLE_SDK/GD32VW55x_RELEASE_V1.0.2/MSDK/cloud/alicloud/src/infra/utils/digest\utils_base64.c ****         encodedData[j++] = g_encodingTable[(triple >> 2 * 6) & 0x3F];
 189              		.loc 1 72 9 is_stmt 1 discriminator 4
  72:C:/Users/stapi/OneDrive/Desktop/GD32VW553/V1_MQTT_OK/GD32VW55X_Wifi_BLE_SDK/GD32VW55x_RELEASE_V1.0.2/MSDK/cloud/alicloud/src/infra/utils/digest\utils_base64.c ****         encodedData[j++] = g_encodingTable[(triple >> 2 * 6) & 0x3F];
 190              		.loc 1 72 52 is_stmt 0 discriminator 4
 191 00d2 13DE2701 		srli	t3,a5,18
  73:C:/Users/stapi/OneDrive/Desktop/GD32VW553/V1_MQTT_OK/GD32VW55X_Wifi_BLE_SDK/GD32VW55x_RELEASE_V1.0.2/MSDK/cloud/alicloud/src/infra/utils/digest\utils_base64.c ****         encodedData[j++] = g_encodingTable[(triple >> 1 * 6) & 0x3F];
 192              		.loc 1 73 52 discriminator 4
 193 00d6 B183     		srli	a5,a5,12
  73:C:/Users/stapi/OneDrive/Desktop/GD32VW553/V1_MQTT_OK/GD32VW55X_Wifi_BLE_SDK/GD32VW55x_RELEASE_V1.0.2/MSDK/cloud/alicloud/src/infra/utils/digest\utils_base64.c ****         encodedData[j++] = g_encodingTable[(triple >> 1 * 6) & 0x3F];
 194              		.loc 1 73 62 discriminator 4
 195 00d8 93F7F703 		andi	a5,a5,63
  73:C:/Users/stapi/OneDrive/Desktop/GD32VW553/V1_MQTT_OK/GD32VW55X_Wifi_BLE_SDK/GD32VW55x_RELEASE_V1.0.2/MSDK/cloud/alicloud/src/infra/utils/digest\utils_base64.c ****         encodedData[j++] = g_encodingTable[(triple >> 1 * 6) & 0x3F];
 196              		.loc 1 73 43 discriminator 4
 197 00dc 9A97     		add	a5,t1,a5
  73:C:/Users/stapi/OneDrive/Desktop/GD32VW553/V1_MQTT_OK/GD32VW55X_Wifi_BLE_SDK/GD32VW55x_RELEASE_V1.0.2/MSDK/cloud/alicloud/src/infra/utils/digest\utils_base64.c ****         encodedData[j++] = g_encodingTable[(triple >> 1 * 6) & 0x3F];
 198              		.loc 1 73 26 discriminator 4
 199 00de 83C70700 		lbu	a5,0(a5)
  72:C:/Users/stapi/OneDrive/Desktop/GD32VW553/V1_MQTT_OK/GD32VW55X_Wifi_BLE_SDK/GD32VW55x_RELEASE_V1.0.2/MSDK/cloud/alicloud/src/infra/utils/digest\utils_base64.c ****         encodedData[j++] = g_encodingTable[(triple >> 2 * 6) & 0x3F];
 200              		.loc 1 72 43 discriminator 4
 201 00e2 1A9E     		add	t3,t1,t3
  72:C:/Users/stapi/OneDrive/Desktop/GD32VW553/V1_MQTT_OK/GD32VW55X_Wifi_BLE_SDK/GD32VW55x_RELEASE_V1.0.2/MSDK/cloud/alicloud/src/infra/utils/digest\utils_base64.c ****         encodedData[j++] = g_encodingTable[(triple >> 2 * 6) & 0x3F];
 202              		.loc 1 72 26 discriminator 4
 203 00e4 034E0E00 		lbu	t3,0(t3)
  73:C:/Users/stapi/OneDrive/Desktop/GD32VW553/V1_MQTT_OK/GD32VW55X_Wifi_BLE_SDK/GD32VW55x_RELEASE_V1.0.2/MSDK/cloud/alicloud/src/infra/utils/digest\utils_base64.c ****         encodedData[j++] = g_encodingTable[(triple >> 1 * 6) & 0x3F];
 204              		.loc 1 73 26 discriminator 4
 205 00e8 A380F800 		sb	a5,1(a7)
  74:C:/Users/stapi/OneDrive/Desktop/GD32VW553/V1_MQTT_OK/GD32VW55X_Wifi_BLE_SDK/GD32VW55x_RELEASE_V1.0.2/MSDK/cloud/alicloud/src/infra/utils/digest\utils_base64.c ****         encodedData[j++] = g_encodingTable[(triple >> 0 * 6) & 0x3F];
 206              		.loc 1 74 52 discriminator 4
 207 00ec 93576600 		srli	a5,a2,6
  74:C:/Users/stapi/OneDrive/Desktop/GD32VW553/V1_MQTT_OK/GD32VW55X_Wifi_BLE_SDK/GD32VW55x_RELEASE_V1.0.2/MSDK/cloud/alicloud/src/infra/utils/digest\utils_base64.c ****         encodedData[j++] = g_encodingTable[(triple >> 0 * 6) & 0x3F];
 208              		.loc 1 74 62 discriminator 4
 209 00f0 93F7F703 		andi	a5,a5,63
  74:C:/Users/stapi/OneDrive/Desktop/GD32VW553/V1_MQTT_OK/GD32VW55X_Wifi_BLE_SDK/GD32VW55x_RELEASE_V1.0.2/MSDK/cloud/alicloud/src/infra/utils/digest\utils_base64.c ****         encodedData[j++] = g_encodingTable[(triple >> 0 * 6) & 0x3F];
 210              		.loc 1 74 43 discriminator 4
 211 00f4 9A97     		add	a5,t1,a5
  74:C:/Users/stapi/OneDrive/Desktop/GD32VW553/V1_MQTT_OK/GD32VW55X_Wifi_BLE_SDK/GD32VW55x_RELEASE_V1.0.2/MSDK/cloud/alicloud/src/infra/utils/digest\utils_base64.c ****         encodedData[j++] = g_encodingTable[(triple >> 0 * 6) & 0x3F];
 212              		.loc 1 74 26 discriminator 4
 213 00f6 83C70700 		lbu	a5,0(a5)
  75:C:/Users/stapi/OneDrive/Desktop/GD32VW553/V1_MQTT_OK/GD32VW55X_Wifi_BLE_SDK/GD32VW55x_RELEASE_V1.0.2/MSDK/cloud/alicloud/src/infra/utils/digest\utils_base64.c ****     }
 214              		.loc 1 75 62 discriminator 4
 215 00fa 1376F603 		andi	a2,a2,63
 216              	.LVL28:
  75:C:/Users/stapi/OneDrive/Desktop/GD32VW553/V1_MQTT_OK/GD32VW55X_Wifi_BLE_SDK/GD32VW55x_RELEASE_V1.0.2/MSDK/cloud/alicloud/src/infra/utils/digest\utils_base64.c ****     }
 217              		.loc 1 75 43 discriminator 4
 218 00fe 1A96     		add	a2,t1,a2
  74:C:/Users/stapi/OneDrive/Desktop/GD32VW553/V1_MQTT_OK/GD32VW55X_Wifi_BLE_SDK/GD32VW55x_RELEASE_V1.0.2/MSDK/cloud/alicloud/src/infra/utils/digest\utils_base64.c ****         encodedData[j++] = g_encodingTable[(triple >> 0 * 6) & 0x3F];
 219              		.loc 1 74 26 discriminator 4
 220 0100 2381F800 		sb	a5,2(a7)
  75:C:/Users/stapi/OneDrive/Desktop/GD32VW553/V1_MQTT_OK/GD32VW55X_Wifi_BLE_SDK/GD32VW55x_RELEASE_V1.0.2/MSDK/cloud/alicloud/src/infra/utils/digest\utils_base64.c ****     }
 221              		.loc 1 75 26 discriminator 4
 222 0104 83470600 		lbu	a5,0(a2)
  72:C:/Users/stapi/OneDrive/Desktop/GD32VW553/V1_MQTT_OK/GD32VW55X_Wifi_BLE_SDK/GD32VW55x_RELEASE_V1.0.2/MSDK/cloud/alicloud/src/infra/utils/digest\utils_base64.c ****         encodedData[j++] = g_encodingTable[(triple >> 2 * 6) & 0x3F];
 223              		.loc 1 72 26 discriminator 4
 224 0108 2380C801 		sb	t3,0(a7)
  73:C:/Users/stapi/OneDrive/Desktop/GD32VW553/V1_MQTT_OK/GD32VW55X_Wifi_BLE_SDK/GD32VW55x_RELEASE_V1.0.2/MSDK/cloud/alicloud/src/infra/utils/digest\utils_base64.c ****         encodedData[j++] = g_encodingTable[(triple >> 1 * 6) & 0x3F];
 225              		.loc 1 73 9 is_stmt 1 discriminator 4
 226              	.LVL29:
  74:C:/Users/stapi/OneDrive/Desktop/GD32VW553/V1_MQTT_OK/GD32VW55X_Wifi_BLE_SDK/GD32VW55x_RELEASE_V1.0.2/MSDK/cloud/alicloud/src/infra/utils/digest\utils_base64.c ****         encodedData[j++] = g_encodingTable[(triple >> 0 * 6) & 0x3F];
 227              		.loc 1 74 9 discriminator 4
  75:C:/Users/stapi/OneDrive/Desktop/GD32VW553/V1_MQTT_OK/GD32VW55X_Wifi_BLE_SDK/GD32VW55x_RELEASE_V1.0.2/MSDK/cloud/alicloud/src/infra/utils/digest\utils_base64.c ****     }
 228              		.loc 1 75 9 discriminator 4
  75:C:/Users/stapi/OneDrive/Desktop/GD32VW553/V1_MQTT_OK/GD32VW55X_Wifi_BLE_SDK/GD32VW55x_RELEASE_V1.0.2/MSDK/cloud/alicloud/src/infra/utils/digest\utils_base64.c ****     }
 229              		.loc 1 75 26 is_stmt 0 discriminator 4
 230 010c 4286     		mv	a2,a6
 231 010e A381F800 		sb	a5,3(a7)
 232 0112 9108     		addi	a7,a7,4
 233              	.LVL30:
 234 0114 B9B7     		j	.L5
 235              	.LVL31:
 236              	.L10:
  67:C:/Users/stapi/OneDrive/Desktop/GD32VW553/V1_MQTT_OK/GD32VW55X_Wifi_BLE_SDK/GD32VW55x_RELEASE_V1.0.2/MSDK/cloud/alicloud/src/infra/utils/digest\utils_base64.c ****         uint32_t octet_c = i < inputLength ? (uint8_t) data[i++] : 0;
 237              		.loc 1 67 66
 238 0116 814E     		li	t4,0
 239              	.L13:
  68:C:/Users/stapi/OneDrive/Desktop/GD32VW553/V1_MQTT_OK/GD32VW55X_Wifi_BLE_SDK/GD32VW55x_RELEASE_V1.0.2/MSDK/cloud/alicloud/src/infra/utils/digest\utils_base64.c **** 
 240              		.loc 1 68 66
 241 0118 0146     		li	a2,0
 242 011a 45BF     		j	.L6
 243              	.LVL32:
 244              	.L11:
 245 011c 7288     		mv	a6,t3
 246 011e EDBF     		j	.L13
 247              	.LVL33:
 248              	.L9:
 249              	.LBE4:
  79:C:/Users/stapi/OneDrive/Desktop/GD32VW553/V1_MQTT_OK/GD32VW55X_Wifi_BLE_SDK/GD32VW55x_RELEASE_V1.0.2/MSDK/cloud/alicloud/src/infra/utils/digest\utils_base64.c ****     }
 250              		.loc 1 79 9 is_stmt 1 discriminator 3
  79:C:/Users/stapi/OneDrive/Desktop/GD32VW553/V1_MQTT_OK/GD32VW55X_Wifi_BLE_SDK/GD32VW55x_RELEASE_V1.0.2/MSDK/cloud/alicloud/src/infra/utils/digest\utils_base64.c ****     }
 251              		.loc 1 79 39 is_stmt 0 discriminator 3
 252 0120 1C43     		lw	a5,0(a4)
 253 0122 FD17     		addi	a5,a5,-1
 254 0124 918F     		sub	a5,a5,a2
  79:C:/Users/stapi/OneDrive/Desktop/GD32VW553/V1_MQTT_OK/GD32VW55X_Wifi_BLE_SDK/GD32VW55x_RELEASE_V1.0.2/MSDK/cloud/alicloud/src/infra/utils/digest\utils_base64.c ****     }
 255              		.loc 1 79 44 discriminator 3
 256 0126 B697     		add	a5,a3,a5
 257 0128 2380A700 		sb	a0,0(a5)
  78:C:/Users/stapi/OneDrive/Desktop/GD32VW553/V1_MQTT_OK/GD32VW55X_Wifi_BLE_SDK/GD32VW55x_RELEASE_V1.0.2/MSDK/cloud/alicloud/src/infra/utils/digest\utils_base64.c ****         encodedData[*outputLength - 1 - i] = '=';
 258              		.loc 1 78 50 is_stmt 1 discriminator 3
  78:C:/Users/stapi/OneDrive/Desktop/GD32VW553/V1_MQTT_OK/GD32VW55X_Wifi_BLE_SDK/GD32VW55x_RELEASE_V1.0.2/MSDK/cloud/alicloud/src/infra/utils/digest\utils_base64.c ****         encodedData[*outputLength - 1 - i] = '=';
 259              		.loc 1 78 51 is_stmt 0 discriminator 3
 260 012c 0506     		addi	a2,a2,1
 261              	.LVL34:
 262 012e 89BF     		j	.L8
 263              		.cfi_endproc
 264              	.LFE21:
 266              		.section	.rodata.utils_base64decode.str1.4,"aMS",@progbits,1
 267              		.align	2
 268              	.LC4:
 269 0000 74686520 		.string	"the input length is error!"
 269      696E7075 
 269      74206C65 
 269      6E677468 
 269      20697320 
 270              		.section	.text.utils_base64decode,"ax",@progbits
 271              		.align	1
 272              		.globl	utils_base64decode
 274              	utils_base64decode:
 275              	.LFB22:
  84:C:/Users/stapi/OneDrive/Desktop/GD32VW553/V1_MQTT_OK/GD32VW55X_Wifi_BLE_SDK/GD32VW55x_RELEASE_V1.0.2/MSDK/cloud/alicloud/src/infra/utils/digest\utils_base64.c **** 
  85:C:/Users/stapi/OneDrive/Desktop/GD32VW553/V1_MQTT_OK/GD32VW55X_Wifi_BLE_SDK/GD32VW55x_RELEASE_V1.0.2/MSDK/cloud/alicloud/src/infra/utils/digest\utils_base64.c **** iotx_err_t utils_base64decode(const uint8_t *data, uint32_t inputLength, uint32_t outputLenMax,
  86:C:/Users/stapi/OneDrive/Desktop/GD32VW553/V1_MQTT_OK/GD32VW55X_Wifi_BLE_SDK/GD32VW55x_RELEASE_V1.0.2/MSDK/cloud/alicloud/src/infra/utils/digest\utils_base64.c ****                               uint8_t *decodedData, uint32_t *outputLength)
  87:C:/Users/stapi/OneDrive/Desktop/GD32VW553/V1_MQTT_OK/GD32VW55X_Wifi_BLE_SDK/GD32VW55x_RELEASE_V1.0.2/MSDK/cloud/alicloud/src/infra/utils/digest\utils_base64.c **** {
 276              		.loc 1 87 1 is_stmt 1
 277              		.cfi_startproc
 278              	.LVL35:
 279 0000 17030000 		call	t0,__riscv_save_0
 279      E7020300 
 280              		.cfi_offset 1, -4
 281              		.cfi_def_cfa_offset 16
  88:C:/Users/stapi/OneDrive/Desktop/GD32VW553/V1_MQTT_OK/GD32VW55X_Wifi_BLE_SDK/GD32VW55x_RELEASE_V1.0.2/MSDK/cloud/alicloud/src/infra/utils/digest\utils_base64.c ****     uint32_t i = 0;
 282              		.loc 1 88 5
 283              	.LVL36:
  89:C:/Users/stapi/OneDrive/Desktop/GD32VW553/V1_MQTT_OK/GD32VW55X_Wifi_BLE_SDK/GD32VW55x_RELEASE_V1.0.2/MSDK/cloud/alicloud/src/infra/utils/digest\utils_base64.c ****     uint32_t j = 0;
 284              		.loc 1 89 5
  90:C:/Users/stapi/OneDrive/Desktop/GD32VW553/V1_MQTT_OK/GD32VW55X_Wifi_BLE_SDK/GD32VW55x_RELEASE_V1.0.2/MSDK/cloud/alicloud/src/infra/utils/digest\utils_base64.c **** 
  91:C:/Users/stapi/OneDrive/Desktop/GD32VW553/V1_MQTT_OK/GD32VW55X_Wifi_BLE_SDK/GD32VW55x_RELEASE_V1.0.2/MSDK/cloud/alicloud/src/infra/utils/digest\utils_base64.c ****     build_decoding_table();
 285              		.loc 1 91 5
 286              	.LBB7:
 287              	.LBB8:
  32:C:/Users/stapi/OneDrive/Desktop/GD32VW553/V1_MQTT_OK/GD32VW55X_Wifi_BLE_SDK/GD32VW55x_RELEASE_V1.0.2/MSDK/cloud/alicloud/src/infra/utils/digest\utils_base64.c ****     int32_t i = 0;
 288              		.loc 1 32 5
  33:C:/Users/stapi/OneDrive/Desktop/GD32VW553/V1_MQTT_OK/GD32VW55X_Wifi_BLE_SDK/GD32VW55x_RELEASE_V1.0.2/MSDK/cloud/alicloud/src/infra/utils/digest\utils_base64.c **** 
 289              		.loc 1 33 5
  35:C:/Users/stapi/OneDrive/Desktop/GD32VW553/V1_MQTT_OK/GD32VW55X_Wifi_BLE_SDK/GD32VW55x_RELEASE_V1.0.2/MSDK/cloud/alicloud/src/infra/utils/digest\utils_base64.c ****         return;
 290              		.loc 1 35 5
  35:C:/Users/stapi/OneDrive/Desktop/GD32VW553/V1_MQTT_OK/GD32VW55X_Wifi_BLE_SDK/GD32VW55x_RELEASE_V1.0.2/MSDK/cloud/alicloud/src/infra/utils/digest\utils_base64.c ****         return;
 291              		.loc 1 35 16 is_stmt 0
 292 0008 37080000 		lui	a6,%hi(.LANCHOR2)
 293 000c 83270800 		lw	a5,%lo(.LANCHOR2)(a6)
  35:C:/Users/stapi/OneDrive/Desktop/GD32VW553/V1_MQTT_OK/GD32VW55X_Wifi_BLE_SDK/GD32VW55x_RELEASE_V1.0.2/MSDK/cloud/alicloud/src/infra/utils/digest\utils_base64.c ****         return;
 294              		.loc 1 35 8
 295 0010 95EB     		bne	a5,zero,.L16
  40:C:/Users/stapi/OneDrive/Desktop/GD32VW553/V1_MQTT_OK/GD32VW55X_Wifi_BLE_SDK/GD32VW55x_RELEASE_V1.0.2/MSDK/cloud/alicloud/src/infra/utils/digest\utils_base64.c ****     }
 296              		.loc 1 40 55
 297 0012 37030000 		lui	t1,%hi(.LANCHOR3)
  40:C:/Users/stapi/OneDrive/Desktop/GD32VW553/V1_MQTT_OK/GD32VW55X_Wifi_BLE_SDK/GD32VW55x_RELEASE_V1.0.2/MSDK/cloud/alicloud/src/infra/utils/digest\utils_base64.c ****     }
 298              		.loc 1 40 50
 299 0016 370E0000 		lui	t3,%hi(.LANCHOR0)
 300 001a 13080800 		addi	a6,a6,%lo(.LANCHOR2)
  40:C:/Users/stapi/OneDrive/Desktop/GD32VW553/V1_MQTT_OK/GD32VW55X_Wifi_BLE_SDK/GD32VW55x_RELEASE_V1.0.2/MSDK/cloud/alicloud/src/infra/utils/digest\utils_base64.c ****     }
 301              		.loc 1 40 55
 302 001e 13030300 		addi	t1,t1,%lo(.LANCHOR3)
  40:C:/Users/stapi/OneDrive/Desktop/GD32VW553/V1_MQTT_OK/GD32VW55X_Wifi_BLE_SDK/GD32VW55x_RELEASE_V1.0.2/MSDK/cloud/alicloud/src/infra/utils/digest\utils_base64.c ****     }
 303              		.loc 1 40 50
 304 0022 130E0E00 		addi	t3,t3,%lo(.LANCHOR0)
  39:C:/Users/stapi/OneDrive/Desktop/GD32VW553/V1_MQTT_OK/GD32VW55X_Wifi_BLE_SDK/GD32VW55x_RELEASE_V1.0.2/MSDK/cloud/alicloud/src/infra/utils/digest\utils_base64.c ****         g_decodingTable[(uint8_t) g_encodingTable[i]] = i;
 305              		.loc 1 39 5
 306 0026 930E0004 		li	t4,64
 307              	.LVL37:
 308              	.L17:
  40:C:/Users/stapi/OneDrive/Desktop/GD32VW553/V1_MQTT_OK/GD32VW55X_Wifi_BLE_SDK/GD32VW55x_RELEASE_V1.0.2/MSDK/cloud/alicloud/src/infra/utils/digest\utils_base64.c ****     }
 309              		.loc 1 40 9 is_stmt 1
  40:C:/Users/stapi/OneDrive/Desktop/GD32VW553/V1_MQTT_OK/GD32VW55X_Wifi_BLE_SDK/GD32VW55x_RELEASE_V1.0.2/MSDK/cloud/alicloud/src/infra/utils/digest\utils_base64.c ****     }
 310              		.loc 1 40 50 is_stmt 0
 311 002a B308FE00 		add	a7,t3,a5
  40:C:/Users/stapi/OneDrive/Desktop/GD32VW553/V1_MQTT_OK/GD32VW55X_Wifi_BLE_SDK/GD32VW55x_RELEASE_V1.0.2/MSDK/cloud/alicloud/src/infra/utils/digest\utils_base64.c ****     }
 312              		.loc 1 40 25
 313 002e 83C80800 		lbu	a7,0(a7)
  40:C:/Users/stapi/OneDrive/Desktop/GD32VW553/V1_MQTT_OK/GD32VW55X_Wifi_BLE_SDK/GD32VW55x_RELEASE_V1.0.2/MSDK/cloud/alicloud/src/infra/utils/digest\utils_base64.c ****     }
 314              		.loc 1 40 55
 315 0032 9A98     		add	a7,t1,a7
 316 0034 2380F800 		sb	a5,0(a7)
  39:C:/Users/stapi/OneDrive/Desktop/GD32VW553/V1_MQTT_OK/GD32VW55X_Wifi_BLE_SDK/GD32VW55x_RELEASE_V1.0.2/MSDK/cloud/alicloud/src/infra/utils/digest\utils_base64.c ****         g_decodingTable[(uint8_t) g_encodingTable[i]] = i;
 317              		.loc 1 39 25 is_stmt 1
  39:C:/Users/stapi/OneDrive/Desktop/GD32VW553/V1_MQTT_OK/GD32VW55X_Wifi_BLE_SDK/GD32VW55x_RELEASE_V1.0.2/MSDK/cloud/alicloud/src/infra/utils/digest\utils_base64.c ****         g_decodingTable[(uint8_t) g_encodingTable[i]] = i;
 318              		.loc 1 39 26 is_stmt 0
 319 0038 8507     		addi	a5,a5,1
 320              	.LVL38:
  39:C:/Users/stapi/OneDrive/Desktop/GD32VW553/V1_MQTT_OK/GD32VW55X_Wifi_BLE_SDK/GD32VW55x_RELEASE_V1.0.2/MSDK/cloud/alicloud/src/infra/utils/digest\utils_base64.c ****         g_decodingTable[(uint8_t) g_encodingTable[i]] = i;
 321              		.loc 1 39 17 is_stmt 1
  39:C:/Users/stapi/OneDrive/Desktop/GD32VW553/V1_MQTT_OK/GD32VW55X_Wifi_BLE_SDK/GD32VW55x_RELEASE_V1.0.2/MSDK/cloud/alicloud/src/infra/utils/digest\utils_base64.c ****         g_decodingTable[(uint8_t) g_encodingTable[i]] = i;
 322              		.loc 1 39 5 is_stmt 0
 323 003a E398D7FF 		bne	a5,t4,.L17
  43:C:/Users/stapi/OneDrive/Desktop/GD32VW553/V1_MQTT_OK/GD32VW55X_Wifi_BLE_SDK/GD32VW55x_RELEASE_V1.0.2/MSDK/cloud/alicloud/src/infra/utils/digest\utils_base64.c ****     return;
 324              		.loc 1 43 5 is_stmt 1
  43:C:/Users/stapi/OneDrive/Desktop/GD32VW553/V1_MQTT_OK/GD32VW55X_Wifi_BLE_SDK/GD32VW55x_RELEASE_V1.0.2/MSDK/cloud/alicloud/src/infra/utils/digest\utils_base64.c ****     return;
 325              		.loc 1 43 12 is_stmt 0
 326 003e 8547     		li	a5,1
 327              	.LVL39:
 328 0040 2320F800 		sw	a5,0(a6)
  44:C:/Users/stapi/OneDrive/Desktop/GD32VW553/V1_MQTT_OK/GD32VW55X_Wifi_BLE_SDK/GD32VW55x_RELEASE_V1.0.2/MSDK/cloud/alicloud/src/infra/utils/digest\utils_base64.c **** }
 329              		.loc 1 44 5 is_stmt 1
 330              	.L16:
 331              	.LBE8:
 332              	.LBE7:
  92:C:/Users/stapi/OneDrive/Desktop/GD32VW553/V1_MQTT_OK/GD32VW55X_Wifi_BLE_SDK/GD32VW55x_RELEASE_V1.0.2/MSDK/cloud/alicloud/src/infra/utils/digest\utils_base64.c **** 
  93:C:/Users/stapi/OneDrive/Desktop/GD32VW553/V1_MQTT_OK/GD32VW55X_Wifi_BLE_SDK/GD32VW55x_RELEASE_V1.0.2/MSDK/cloud/alicloud/src/infra/utils/digest\utils_base64.c ****     if (inputLength % 4 != 0) {
 333              		.loc 1 93 5
 334              		.loc 1 93 21 is_stmt 0
 335 0044 93F73500 		andi	a5,a1,3
 336              		.loc 1 93 8
 337 0048 95CF     		beq	a5,zero,.L18
  94:C:/Users/stapi/OneDrive/Desktop/GD32VW553/V1_MQTT_OK/GD32VW55X_Wifi_BLE_SDK/GD32VW55x_RELEASE_V1.0.2/MSDK/cloud/alicloud/src/infra/utils/digest\utils_base64.c ****         utils_err("the input length is error!");
 338              		.loc 1 94 9 is_stmt 1
 339              		.loc 1 94 9
 340 004a 37050000 		lui	a0,%hi(.LC0)
 341              	.LVL40:
 342 004e 13050500 		addi	a0,a0,%lo(.LC0)
 343 0052 97000000 		call	HAL_Printf
 343      E7800000 
 344              	.LVL41:
 345              		.loc 1 94 9
 346 005a 37050000 		lui	a0,%hi(.LC4)
 347 005e 13050500 		addi	a0,a0,%lo(.LC4)
 348              	.L38:
  95:C:/Users/stapi/OneDrive/Desktop/GD32VW553/V1_MQTT_OK/GD32VW55X_Wifi_BLE_SDK/GD32VW55x_RELEASE_V1.0.2/MSDK/cloud/alicloud/src/infra/utils/digest\utils_base64.c ****         return FAIL_RETURN;
  96:C:/Users/stapi/OneDrive/Desktop/GD32VW553/V1_MQTT_OK/GD32VW55X_Wifi_BLE_SDK/GD32VW55x_RELEASE_V1.0.2/MSDK/cloud/alicloud/src/infra/utils/digest\utils_base64.c ****     }
  97:C:/Users/stapi/OneDrive/Desktop/GD32VW553/V1_MQTT_OK/GD32VW55X_Wifi_BLE_SDK/GD32VW55x_RELEASE_V1.0.2/MSDK/cloud/alicloud/src/infra/utils/digest\utils_base64.c **** 
  98:C:/Users/stapi/OneDrive/Desktop/GD32VW553/V1_MQTT_OK/GD32VW55X_Wifi_BLE_SDK/GD32VW55x_RELEASE_V1.0.2/MSDK/cloud/alicloud/src/infra/utils/digest\utils_base64.c ****     *outputLength = inputLength / 4 * 3;
  99:C:/Users/stapi/OneDrive/Desktop/GD32VW553/V1_MQTT_OK/GD32VW55X_Wifi_BLE_SDK/GD32VW55x_RELEASE_V1.0.2/MSDK/cloud/alicloud/src/infra/utils/digest\utils_base64.c **** 
 100:C:/Users/stapi/OneDrive/Desktop/GD32VW553/V1_MQTT_OK/GD32VW55X_Wifi_BLE_SDK/GD32VW55x_RELEASE_V1.0.2/MSDK/cloud/alicloud/src/infra/utils/digest\utils_base64.c **** 
 101:C:/Users/stapi/OneDrive/Desktop/GD32VW553/V1_MQTT_OK/GD32VW55X_Wifi_BLE_SDK/GD32VW55x_RELEASE_V1.0.2/MSDK/cloud/alicloud/src/infra/utils/digest\utils_base64.c ****     if (data[inputLength - 1] == '=') {
 102:C:/Users/stapi/OneDrive/Desktop/GD32VW553/V1_MQTT_OK/GD32VW55X_Wifi_BLE_SDK/GD32VW55x_RELEASE_V1.0.2/MSDK/cloud/alicloud/src/infra/utils/digest\utils_base64.c ****         (*outputLength)--;
 103:C:/Users/stapi/OneDrive/Desktop/GD32VW553/V1_MQTT_OK/GD32VW55X_Wifi_BLE_SDK/GD32VW55x_RELEASE_V1.0.2/MSDK/cloud/alicloud/src/infra/utils/digest\utils_base64.c ****     }
 104:C:/Users/stapi/OneDrive/Desktop/GD32VW553/V1_MQTT_OK/GD32VW55X_Wifi_BLE_SDK/GD32VW55x_RELEASE_V1.0.2/MSDK/cloud/alicloud/src/infra/utils/digest\utils_base64.c **** 
 105:C:/Users/stapi/OneDrive/Desktop/GD32VW553/V1_MQTT_OK/GD32VW55X_Wifi_BLE_SDK/GD32VW55x_RELEASE_V1.0.2/MSDK/cloud/alicloud/src/infra/utils/digest\utils_base64.c ****     if (data[inputLength - 2] == '=') {
 106:C:/Users/stapi/OneDrive/Desktop/GD32VW553/V1_MQTT_OK/GD32VW55X_Wifi_BLE_SDK/GD32VW55x_RELEASE_V1.0.2/MSDK/cloud/alicloud/src/infra/utils/digest\utils_base64.c ****         (*outputLength)--;
 107:C:/Users/stapi/OneDrive/Desktop/GD32VW553/V1_MQTT_OK/GD32VW55X_Wifi_BLE_SDK/GD32VW55x_RELEASE_V1.0.2/MSDK/cloud/alicloud/src/infra/utils/digest\utils_base64.c ****     }
 108:C:/Users/stapi/OneDrive/Desktop/GD32VW553/V1_MQTT_OK/GD32VW55X_Wifi_BLE_SDK/GD32VW55x_RELEASE_V1.0.2/MSDK/cloud/alicloud/src/infra/utils/digest\utils_base64.c **** 
 109:C:/Users/stapi/OneDrive/Desktop/GD32VW553/V1_MQTT_OK/GD32VW55X_Wifi_BLE_SDK/GD32VW55x_RELEASE_V1.0.2/MSDK/cloud/alicloud/src/infra/utils/digest\utils_base64.c ****     if (outputLenMax < *outputLength) {
 110:C:/Users/stapi/OneDrive/Desktop/GD32VW553/V1_MQTT_OK/GD32VW55X_Wifi_BLE_SDK/GD32VW55x_RELEASE_V1.0.2/MSDK/cloud/alicloud/src/infra/utils/digest\utils_base64.c ****         utils_err("the length of output memory is not enough!");
 349              		.loc 1 110 9 is_stmt 0
 350 0062 97000000 		call	HAL_Printf
 350      E7800000 
 351              	.LVL42:
 352              		.loc 1 110 9 is_stmt 1
 353 006a 37050000 		lui	a0,%hi(.LC2)
 354 006e 13050500 		addi	a0,a0,%lo(.LC2)
 355 0072 97000000 		call	HAL_Printf
 355      E7800000 
 356              	.LVL43:
 357              		.loc 1 110 9
 111:C:/Users/stapi/OneDrive/Desktop/GD32VW553/V1_MQTT_OK/GD32VW55X_Wifi_BLE_SDK/GD32VW55x_RELEASE_V1.0.2/MSDK/cloud/alicloud/src/infra/utils/digest\utils_base64.c ****         return FAIL_RETURN;
 358              		.loc 1 111 9
 359              		.loc 1 111 16 is_stmt 0
 360 007a 7D55     		li	a0,-1
 361              	.LVL44:
 362              	.L15:
 112:C:/Users/stapi/OneDrive/Desktop/GD32VW553/V1_MQTT_OK/GD32VW55X_Wifi_BLE_SDK/GD32VW55x_RELEASE_V1.0.2/MSDK/cloud/alicloud/src/infra/utils/digest\utils_base64.c ****     }
 113:C:/Users/stapi/OneDrive/Desktop/GD32VW553/V1_MQTT_OK/GD32VW55X_Wifi_BLE_SDK/GD32VW55x_RELEASE_V1.0.2/MSDK/cloud/alicloud/src/infra/utils/digest\utils_base64.c **** 
 114:C:/Users/stapi/OneDrive/Desktop/GD32VW553/V1_MQTT_OK/GD32VW55X_Wifi_BLE_SDK/GD32VW55x_RELEASE_V1.0.2/MSDK/cloud/alicloud/src/infra/utils/digest\utils_base64.c ****     uint32_t sextet_a = 0;
 115:C:/Users/stapi/OneDrive/Desktop/GD32VW553/V1_MQTT_OK/GD32VW55X_Wifi_BLE_SDK/GD32VW55x_RELEASE_V1.0.2/MSDK/cloud/alicloud/src/infra/utils/digest\utils_base64.c ****     uint32_t sextet_b = 0;
 116:C:/Users/stapi/OneDrive/Desktop/GD32VW553/V1_MQTT_OK/GD32VW55X_Wifi_BLE_SDK/GD32VW55x_RELEASE_V1.0.2/MSDK/cloud/alicloud/src/infra/utils/digest\utils_base64.c ****     uint32_t sextet_c = 0;
 117:C:/Users/stapi/OneDrive/Desktop/GD32VW553/V1_MQTT_OK/GD32VW55X_Wifi_BLE_SDK/GD32VW55x_RELEASE_V1.0.2/MSDK/cloud/alicloud/src/infra/utils/digest\utils_base64.c ****     uint32_t sextet_d = 0;
 118:C:/Users/stapi/OneDrive/Desktop/GD32VW553/V1_MQTT_OK/GD32VW55X_Wifi_BLE_SDK/GD32VW55x_RELEASE_V1.0.2/MSDK/cloud/alicloud/src/infra/utils/digest\utils_base64.c ****     uint32_t triple = 0;
 119:C:/Users/stapi/OneDrive/Desktop/GD32VW553/V1_MQTT_OK/GD32VW55X_Wifi_BLE_SDK/GD32VW55x_RELEASE_V1.0.2/MSDK/cloud/alicloud/src/infra/utils/digest\utils_base64.c **** 
 120:C:/Users/stapi/OneDrive/Desktop/GD32VW553/V1_MQTT_OK/GD32VW55X_Wifi_BLE_SDK/GD32VW55x_RELEASE_V1.0.2/MSDK/cloud/alicloud/src/infra/utils/digest\utils_base64.c ****     for (i = 0, j = 0; i < inputLength;) {
 121:C:/Users/stapi/OneDrive/Desktop/GD32VW553/V1_MQTT_OK/GD32VW55X_Wifi_BLE_SDK/GD32VW55x_RELEASE_V1.0.2/MSDK/cloud/alicloud/src/infra/utils/digest\utils_base64.c ****         sextet_a = data[i] == '=' ? 0 & i++ : g_decodingTable[data[i++]];
 122:C:/Users/stapi/OneDrive/Desktop/GD32VW553/V1_MQTT_OK/GD32VW55X_Wifi_BLE_SDK/GD32VW55x_RELEASE_V1.0.2/MSDK/cloud/alicloud/src/infra/utils/digest\utils_base64.c ****         sextet_b = data[i] == '=' ? 0 & i++ : g_decodingTable[data[i++]];
 123:C:/Users/stapi/OneDrive/Desktop/GD32VW553/V1_MQTT_OK/GD32VW55X_Wifi_BLE_SDK/GD32VW55x_RELEASE_V1.0.2/MSDK/cloud/alicloud/src/infra/utils/digest\utils_base64.c ****         sextet_c = data[i] == '=' ? 0 & i++ : g_decodingTable[data[i++]];
 124:C:/Users/stapi/OneDrive/Desktop/GD32VW553/V1_MQTT_OK/GD32VW55X_Wifi_BLE_SDK/GD32VW55x_RELEASE_V1.0.2/MSDK/cloud/alicloud/src/infra/utils/digest\utils_base64.c ****         sextet_d = data[i] == '=' ? 0 & i++ : g_decodingTable[data[i++]];
 125:C:/Users/stapi/OneDrive/Desktop/GD32VW553/V1_MQTT_OK/GD32VW55X_Wifi_BLE_SDK/GD32VW55x_RELEASE_V1.0.2/MSDK/cloud/alicloud/src/infra/utils/digest\utils_base64.c **** 
 126:C:/Users/stapi/OneDrive/Desktop/GD32VW553/V1_MQTT_OK/GD32VW55X_Wifi_BLE_SDK/GD32VW55x_RELEASE_V1.0.2/MSDK/cloud/alicloud/src/infra/utils/digest\utils_base64.c ****         triple = (sextet_a << 3 * 6) + (sextet_b << 2 * 6) + (sextet_c << 1 * 6) + (sextet_d << 0 *
 127:C:/Users/stapi/OneDrive/Desktop/GD32VW553/V1_MQTT_OK/GD32VW55X_Wifi_BLE_SDK/GD32VW55x_RELEASE_V1.0.2/MSDK/cloud/alicloud/src/infra/utils/digest\utils_base64.c **** 
 128:C:/Users/stapi/OneDrive/Desktop/GD32VW553/V1_MQTT_OK/GD32VW55X_Wifi_BLE_SDK/GD32VW55x_RELEASE_V1.0.2/MSDK/cloud/alicloud/src/infra/utils/digest\utils_base64.c ****         if (j < *outputLength) {
 129:C:/Users/stapi/OneDrive/Desktop/GD32VW553/V1_MQTT_OK/GD32VW55X_Wifi_BLE_SDK/GD32VW55x_RELEASE_V1.0.2/MSDK/cloud/alicloud/src/infra/utils/digest\utils_base64.c ****             decodedData[j++] = (triple >> 2 * 8) & 0xFF;
 130:C:/Users/stapi/OneDrive/Desktop/GD32VW553/V1_MQTT_OK/GD32VW55X_Wifi_BLE_SDK/GD32VW55x_RELEASE_V1.0.2/MSDK/cloud/alicloud/src/infra/utils/digest\utils_base64.c ****         }
 131:C:/Users/stapi/OneDrive/Desktop/GD32VW553/V1_MQTT_OK/GD32VW55X_Wifi_BLE_SDK/GD32VW55x_RELEASE_V1.0.2/MSDK/cloud/alicloud/src/infra/utils/digest\utils_base64.c **** 
 132:C:/Users/stapi/OneDrive/Desktop/GD32VW553/V1_MQTT_OK/GD32VW55X_Wifi_BLE_SDK/GD32VW55x_RELEASE_V1.0.2/MSDK/cloud/alicloud/src/infra/utils/digest\utils_base64.c ****         if (j < *outputLength) {
 133:C:/Users/stapi/OneDrive/Desktop/GD32VW553/V1_MQTT_OK/GD32VW55X_Wifi_BLE_SDK/GD32VW55x_RELEASE_V1.0.2/MSDK/cloud/alicloud/src/infra/utils/digest\utils_base64.c ****             decodedData[j++] = (triple >> 1 * 8) & 0xFF;
 134:C:/Users/stapi/OneDrive/Desktop/GD32VW553/V1_MQTT_OK/GD32VW55X_Wifi_BLE_SDK/GD32VW55x_RELEASE_V1.0.2/MSDK/cloud/alicloud/src/infra/utils/digest\utils_base64.c ****         }
 135:C:/Users/stapi/OneDrive/Desktop/GD32VW553/V1_MQTT_OK/GD32VW55X_Wifi_BLE_SDK/GD32VW55x_RELEASE_V1.0.2/MSDK/cloud/alicloud/src/infra/utils/digest\utils_base64.c **** 
 136:C:/Users/stapi/OneDrive/Desktop/GD32VW553/V1_MQTT_OK/GD32VW55X_Wifi_BLE_SDK/GD32VW55x_RELEASE_V1.0.2/MSDK/cloud/alicloud/src/infra/utils/digest\utils_base64.c ****         if (j < *outputLength) {
 137:C:/Users/stapi/OneDrive/Desktop/GD32VW553/V1_MQTT_OK/GD32VW55X_Wifi_BLE_SDK/GD32VW55x_RELEASE_V1.0.2/MSDK/cloud/alicloud/src/infra/utils/digest\utils_base64.c ****             decodedData[j++] = (triple >> 0 * 8) & 0xFF;
 138:C:/Users/stapi/OneDrive/Desktop/GD32VW553/V1_MQTT_OK/GD32VW55X_Wifi_BLE_SDK/GD32VW55x_RELEASE_V1.0.2/MSDK/cloud/alicloud/src/infra/utils/digest\utils_base64.c ****         }
 139:C:/Users/stapi/OneDrive/Desktop/GD32VW553/V1_MQTT_OK/GD32VW55X_Wifi_BLE_SDK/GD32VW55x_RELEASE_V1.0.2/MSDK/cloud/alicloud/src/infra/utils/digest\utils_base64.c ****     }
 140:C:/Users/stapi/OneDrive/Desktop/GD32VW553/V1_MQTT_OK/GD32VW55X_Wifi_BLE_SDK/GD32VW55x_RELEASE_V1.0.2/MSDK/cloud/alicloud/src/infra/utils/digest\utils_base64.c **** 
 141:C:/Users/stapi/OneDrive/Desktop/GD32VW553/V1_MQTT_OK/GD32VW55X_Wifi_BLE_SDK/GD32VW55x_RELEASE_V1.0.2/MSDK/cloud/alicloud/src/infra/utils/digest\utils_base64.c ****     return SUCCESS_RETURN;
 142:C:/Users/stapi/OneDrive/Desktop/GD32VW553/V1_MQTT_OK/GD32VW55X_Wifi_BLE_SDK/GD32VW55x_RELEASE_V1.0.2/MSDK/cloud/alicloud/src/infra/utils/digest\utils_base64.c **** }
 363              		.loc 1 142 1
 364 007c 17030000 		tail	__riscv_restore_0
 364      67000300 
 365              		.cfi_remember_state
 366              		.cfi_restore 1
 367              		.cfi_def_cfa_offset 0
 368              	.LVL45:
 369              	.L18:
 370              		.cfi_restore_state
  98:C:/Users/stapi/OneDrive/Desktop/GD32VW553/V1_MQTT_OK/GD32VW55X_Wifi_BLE_SDK/GD32VW55x_RELEASE_V1.0.2/MSDK/cloud/alicloud/src/infra/utils/digest\utils_base64.c **** 
 371              		.loc 1 98 5 is_stmt 1
  98:C:/Users/stapi/OneDrive/Desktop/GD32VW553/V1_MQTT_OK/GD32VW55X_Wifi_BLE_SDK/GD32VW55x_RELEASE_V1.0.2/MSDK/cloud/alicloud/src/infra/utils/digest\utils_base64.c **** 
 372              		.loc 1 98 37 is_stmt 0
 373 0084 0D48     		li	a6,3
  98:C:/Users/stapi/OneDrive/Desktop/GD32VW553/V1_MQTT_OK/GD32VW55X_Wifi_BLE_SDK/GD32VW55x_RELEASE_V1.0.2/MSDK/cloud/alicloud/src/infra/utils/digest\utils_base64.c **** 
 374              		.loc 1 98 33
 375 0086 93D72500 		srli	a5,a1,2
  98:C:/Users/stapi/OneDrive/Desktop/GD32VW553/V1_MQTT_OK/GD32VW55X_Wifi_BLE_SDK/GD32VW55x_RELEASE_V1.0.2/MSDK/cloud/alicloud/src/infra/utils/digest\utils_base64.c **** 
 376              		.loc 1 98 37
 377 008a B3870703 		mul	a5,a5,a6
 101:C:/Users/stapi/OneDrive/Desktop/GD32VW553/V1_MQTT_OK/GD32VW55X_Wifi_BLE_SDK/GD32VW55x_RELEASE_V1.0.2/MSDK/cloud/alicloud/src/infra/utils/digest\utils_base64.c ****         (*outputLength)--;
 378              		.loc 1 101 13
 379 008e 3308B500 		add	a6,a0,a1
 101:C:/Users/stapi/OneDrive/Desktop/GD32VW553/V1_MQTT_OK/GD32VW55X_Wifi_BLE_SDK/GD32VW55x_RELEASE_V1.0.2/MSDK/cloud/alicloud/src/infra/utils/digest\utils_base64.c ****         (*outputLength)--;
 380              		.loc 1 101 8
 381 0092 9308D003 		li	a7,61
  98:C:/Users/stapi/OneDrive/Desktop/GD32VW553/V1_MQTT_OK/GD32VW55X_Wifi_BLE_SDK/GD32VW55x_RELEASE_V1.0.2/MSDK/cloud/alicloud/src/infra/utils/digest\utils_base64.c **** 
 382              		.loc 1 98 19
 383 0096 1CC3     		sw	a5,0(a4)
 101:C:/Users/stapi/OneDrive/Desktop/GD32VW553/V1_MQTT_OK/GD32VW55X_Wifi_BLE_SDK/GD32VW55x_RELEASE_V1.0.2/MSDK/cloud/alicloud/src/infra/utils/digest\utils_base64.c ****         (*outputLength)--;
 384              		.loc 1 101 5 is_stmt 1
 101:C:/Users/stapi/OneDrive/Desktop/GD32VW553/V1_MQTT_OK/GD32VW55X_Wifi_BLE_SDK/GD32VW55x_RELEASE_V1.0.2/MSDK/cloud/alicloud/src/infra/utils/digest\utils_base64.c ****         (*outputLength)--;
 385              		.loc 1 101 8 is_stmt 0
 386 0098 0343F8FF 		lbu	t1,-1(a6)
 387 009c 63141301 		bne	t1,a7,.L20
 102:C:/Users/stapi/OneDrive/Desktop/GD32VW553/V1_MQTT_OK/GD32VW55X_Wifi_BLE_SDK/GD32VW55x_RELEASE_V1.0.2/MSDK/cloud/alicloud/src/infra/utils/digest\utils_base64.c ****     }
 388              		.loc 1 102 9 is_stmt 1
 102:C:/Users/stapi/OneDrive/Desktop/GD32VW553/V1_MQTT_OK/GD32VW55X_Wifi_BLE_SDK/GD32VW55x_RELEASE_V1.0.2/MSDK/cloud/alicloud/src/infra/utils/digest\utils_base64.c ****     }
 389              		.loc 1 102 24 is_stmt 0
 390 00a0 FD17     		addi	a5,a5,-1
 391 00a2 1CC3     		sw	a5,0(a4)
 392              	.L20:
 105:C:/Users/stapi/OneDrive/Desktop/GD32VW553/V1_MQTT_OK/GD32VW55X_Wifi_BLE_SDK/GD32VW55x_RELEASE_V1.0.2/MSDK/cloud/alicloud/src/infra/utils/digest\utils_base64.c ****         (*outputLength)--;
 393              		.loc 1 105 5 is_stmt 1
 105:C:/Users/stapi/OneDrive/Desktop/GD32VW553/V1_MQTT_OK/GD32VW55X_Wifi_BLE_SDK/GD32VW55x_RELEASE_V1.0.2/MSDK/cloud/alicloud/src/infra/utils/digest\utils_base64.c ****         (*outputLength)--;
 394              		.loc 1 105 8 is_stmt 0
 395 00a4 0348E8FF 		lbu	a6,-2(a6)
 396 00a8 9307D003 		li	a5,61
 397 00ac 6315F800 		bne	a6,a5,.L21
 106:C:/Users/stapi/OneDrive/Desktop/GD32VW553/V1_MQTT_OK/GD32VW55X_Wifi_BLE_SDK/GD32VW55x_RELEASE_V1.0.2/MSDK/cloud/alicloud/src/infra/utils/digest\utils_base64.c ****     }
 398              		.loc 1 106 9 is_stmt 1
 106:C:/Users/stapi/OneDrive/Desktop/GD32VW553/V1_MQTT_OK/GD32VW55X_Wifi_BLE_SDK/GD32VW55x_RELEASE_V1.0.2/MSDK/cloud/alicloud/src/infra/utils/digest\utils_base64.c ****     }
 399              		.loc 1 106 24 is_stmt 0
 400 00b0 1C43     		lw	a5,0(a4)
 401 00b2 FD17     		addi	a5,a5,-1
 402 00b4 1CC3     		sw	a5,0(a4)
 403              	.L21:
 109:C:/Users/stapi/OneDrive/Desktop/GD32VW553/V1_MQTT_OK/GD32VW55X_Wifi_BLE_SDK/GD32VW55x_RELEASE_V1.0.2/MSDK/cloud/alicloud/src/infra/utils/digest\utils_base64.c ****         utils_err("the length of output memory is not enough!");
 404              		.loc 1 109 5 is_stmt 1
 109:C:/Users/stapi/OneDrive/Desktop/GD32VW553/V1_MQTT_OK/GD32VW55X_Wifi_BLE_SDK/GD32VW55x_RELEASE_V1.0.2/MSDK/cloud/alicloud/src/infra/utils/digest\utils_base64.c ****         utils_err("the length of output memory is not enough!");
 405              		.loc 1 109 8 is_stmt 0
 406 00b6 1C43     		lw	a5,0(a4)
 407 00b8 6360F602 		bgtu	a5,a2,.L22
 121:C:/Users/stapi/OneDrive/Desktop/GD32VW553/V1_MQTT_OK/GD32VW55X_Wifi_BLE_SDK/GD32VW55x_RELEASE_V1.0.2/MSDK/cloud/alicloud/src/infra/utils/digest\utils_base64.c ****         sextet_b = data[i] == '=' ? 0 & i++ : g_decodingTable[data[i++]];
 408              		.loc 1 121 62
 409 00bc 370E0000 		lui	t3,%hi(.LANCHOR3)
 109:C:/Users/stapi/OneDrive/Desktop/GD32VW553/V1_MQTT_OK/GD32VW55X_Wifi_BLE_SDK/GD32VW55x_RELEASE_V1.0.2/MSDK/cloud/alicloud/src/infra/utils/digest\utils_base64.c ****         utils_err("the length of output memory is not enough!");
 410              		.loc 1 109 8
 411 00c0 2A88     		mv	a6,a0
 120:C:/Users/stapi/OneDrive/Desktop/GD32VW553/V1_MQTT_OK/GD32VW55X_Wifi_BLE_SDK/GD32VW55x_RELEASE_V1.0.2/MSDK/cloud/alicloud/src/infra/utils/digest\utils_base64.c ****         sextet_a = data[i] == '=' ? 0 & i++ : g_decodingTable[data[i++]];
 412              		.loc 1 120 19
 413 00c2 8148     		li	a7,0
 121:C:/Users/stapi/OneDrive/Desktop/GD32VW553/V1_MQTT_OK/GD32VW55X_Wifi_BLE_SDK/GD32VW55x_RELEASE_V1.0.2/MSDK/cloud/alicloud/src/infra/utils/digest\utils_base64.c ****         sextet_b = data[i] == '=' ? 0 & i++ : g_decodingTable[data[i++]];
 414              		.loc 1 121 45
 415 00c4 930ED003 		li	t4,61
 121:C:/Users/stapi/OneDrive/Desktop/GD32VW553/V1_MQTT_OK/GD32VW55X_Wifi_BLE_SDK/GD32VW55x_RELEASE_V1.0.2/MSDK/cloud/alicloud/src/infra/utils/digest\utils_base64.c ****         sextet_b = data[i] == '=' ? 0 & i++ : g_decodingTable[data[i++]];
 416              		.loc 1 121 62
 417 00c8 130E0E00 		addi	t3,t3,%lo(.LANCHOR3)
 418              	.LVL46:
 419              	.L23:
 120:C:/Users/stapi/OneDrive/Desktop/GD32VW553/V1_MQTT_OK/GD32VW55X_Wifi_BLE_SDK/GD32VW55x_RELEASE_V1.0.2/MSDK/cloud/alicloud/src/infra/utils/digest\utils_base64.c ****         sextet_a = data[i] == '=' ? 0 & i++ : g_decodingTable[data[i++]];
 420              		.loc 1 120 24 is_stmt 1 discriminator 1
 120:C:/Users/stapi/OneDrive/Desktop/GD32VW553/V1_MQTT_OK/GD32VW55X_Wifi_BLE_SDK/GD32VW55x_RELEASE_V1.0.2/MSDK/cloud/alicloud/src/infra/utils/digest\utils_base64.c ****         sextet_a = data[i] == '=' ? 0 & i++ : g_decodingTable[data[i++]];
 421              		.loc 1 120 5 is_stmt 0 discriminator 1
 422 00cc B307A840 		sub	a5,a6,a0
 423 00d0 63E1B702 		bltu	a5,a1,.L30
 141:C:/Users/stapi/OneDrive/Desktop/GD32VW553/V1_MQTT_OK/GD32VW55X_Wifi_BLE_SDK/GD32VW55x_RELEASE_V1.0.2/MSDK/cloud/alicloud/src/infra/utils/digest\utils_base64.c **** }
 424              		.loc 1 141 12
 425 00d4 0145     		li	a0,0
 426              	.LVL47:
 427 00d6 5DB7     		j	.L15
 428              	.LVL48:
 429              	.L22:
 110:C:/Users/stapi/OneDrive/Desktop/GD32VW553/V1_MQTT_OK/GD32VW55X_Wifi_BLE_SDK/GD32VW55x_RELEASE_V1.0.2/MSDK/cloud/alicloud/src/infra/utils/digest\utils_base64.c ****         return FAIL_RETURN;
 430              		.loc 1 110 9 is_stmt 1
 110:C:/Users/stapi/OneDrive/Desktop/GD32VW553/V1_MQTT_OK/GD32VW55X_Wifi_BLE_SDK/GD32VW55x_RELEASE_V1.0.2/MSDK/cloud/alicloud/src/infra/utils/digest\utils_base64.c ****         return FAIL_RETURN;
 431              		.loc 1 110 9
 432 00d8 37050000 		lui	a0,%hi(.LC0)
 433              	.LVL49:
 434 00dc 13050500 		addi	a0,a0,%lo(.LC0)
 435 00e0 97000000 		call	HAL_Printf
 435      E7800000 
 436              	.LVL50:
 110:C:/Users/stapi/OneDrive/Desktop/GD32VW553/V1_MQTT_OK/GD32VW55X_Wifi_BLE_SDK/GD32VW55x_RELEASE_V1.0.2/MSDK/cloud/alicloud/src/infra/utils/digest\utils_base64.c ****         return FAIL_RETURN;
 437              		.loc 1 110 9
 438 00e8 37050000 		lui	a0,%hi(.LC3)
 439 00ec 13050500 		addi	a0,a0,%lo(.LC3)
 440 00f0 8DBF     		j	.L38
 441              	.LVL51:
 442              	.L30:
 121:C:/Users/stapi/OneDrive/Desktop/GD32VW553/V1_MQTT_OK/GD32VW55X_Wifi_BLE_SDK/GD32VW55x_RELEASE_V1.0.2/MSDK/cloud/alicloud/src/infra/utils/digest\utils_base64.c ****         sextet_b = data[i] == '=' ? 0 & i++ : g_decodingTable[data[i++]];
 443              		.loc 1 121 9
 121:C:/Users/stapi/OneDrive/Desktop/GD32VW553/V1_MQTT_OK/GD32VW55X_Wifi_BLE_SDK/GD32VW55x_RELEASE_V1.0.2/MSDK/cloud/alicloud/src/infra/utils/digest\utils_base64.c ****         sextet_b = data[i] == '=' ? 0 & i++ : g_decodingTable[data[i++]];
 444              		.loc 1 121 24 is_stmt 0
 445 00f2 83470800 		lbu	a5,0(a6)
 121:C:/Users/stapi/OneDrive/Desktop/GD32VW553/V1_MQTT_OK/GD32VW55X_Wifi_BLE_SDK/GD32VW55x_RELEASE_V1.0.2/MSDK/cloud/alicloud/src/infra/utils/digest\utils_base64.c ****         sextet_b = data[i] == '=' ? 0 & i++ : g_decodingTable[data[i++]];
 446              		.loc 1 121 45
 447 00f6 0146     		li	a2,0
 448 00f8 6385D701 		beq	a5,t4,.L24
 449              	.LVL52:
 121:C:/Users/stapi/OneDrive/Desktop/GD32VW553/V1_MQTT_OK/GD32VW55X_Wifi_BLE_SDK/GD32VW55x_RELEASE_V1.0.2/MSDK/cloud/alicloud/src/infra/utils/digest\utils_base64.c ****         sextet_b = data[i] == '=' ? 0 & i++ : g_decodingTable[data[i++]];
 450              		.loc 1 121 62 discriminator 2
 451 00fc F297     		add	a5,t3,a5
 121:C:/Users/stapi/OneDrive/Desktop/GD32VW553/V1_MQTT_OK/GD32VW55X_Wifi_BLE_SDK/GD32VW55x_RELEASE_V1.0.2/MSDK/cloud/alicloud/src/infra/utils/digest\utils_base64.c ****         sextet_b = data[i] == '=' ? 0 & i++ : g_decodingTable[data[i++]];
 452              		.loc 1 121 45 discriminator 2
 453 00fe 03860700 		lb	a2,0(a5)
 454              	.LVL53:
 455              	.L24:
 122:C:/Users/stapi/OneDrive/Desktop/GD32VW553/V1_MQTT_OK/GD32VW55X_Wifi_BLE_SDK/GD32VW55x_RELEASE_V1.0.2/MSDK/cloud/alicloud/src/infra/utils/digest\utils_base64.c ****         sextet_c = data[i] == '=' ? 0 & i++ : g_decodingTable[data[i++]];
 456              		.loc 1 122 9 is_stmt 1 discriminator 4
 122:C:/Users/stapi/OneDrive/Desktop/GD32VW553/V1_MQTT_OK/GD32VW55X_Wifi_BLE_SDK/GD32VW55x_RELEASE_V1.0.2/MSDK/cloud/alicloud/src/infra/utils/digest\utils_base64.c ****         sextet_c = data[i] == '=' ? 0 & i++ : g_decodingTable[data[i++]];
 457              		.loc 1 122 24 is_stmt 0 discriminator 4
 458 0102 03431800 		lbu	t1,1(a6)
 122:C:/Users/stapi/OneDrive/Desktop/GD32VW553/V1_MQTT_OK/GD32VW55X_Wifi_BLE_SDK/GD32VW55x_RELEASE_V1.0.2/MSDK/cloud/alicloud/src/infra/utils/digest\utils_base64.c ****         sextet_c = data[i] == '=' ? 0 & i++ : g_decodingTable[data[i++]];
 459              		.loc 1 122 45 discriminator 4
 460 0106 8147     		li	a5,0
 461 0108 6305D301 		beq	t1,t4,.L25
 462              	.LVL54:
 122:C:/Users/stapi/OneDrive/Desktop/GD32VW553/V1_MQTT_OK/GD32VW55X_Wifi_BLE_SDK/GD32VW55x_RELEASE_V1.0.2/MSDK/cloud/alicloud/src/infra/utils/digest\utils_base64.c ****         sextet_c = data[i] == '=' ? 0 & i++ : g_decodingTable[data[i++]];
 463              		.loc 1 122 62 discriminator 2
 464 010c 7293     		add	t1,t3,t1
 122:C:/Users/stapi/OneDrive/Desktop/GD32VW553/V1_MQTT_OK/GD32VW55X_Wifi_BLE_SDK/GD32VW55x_RELEASE_V1.0.2/MSDK/cloud/alicloud/src/infra/utils/digest\utils_base64.c ****         sextet_c = data[i] == '=' ? 0 & i++ : g_decodingTable[data[i++]];
 465              		.loc 1 122 45 discriminator 2
 466 010e 83070300 		lb	a5,0(t1)
 467              	.LVL55:
 468              	.L25:
 123:C:/Users/stapi/OneDrive/Desktop/GD32VW553/V1_MQTT_OK/GD32VW55X_Wifi_BLE_SDK/GD32VW55x_RELEASE_V1.0.2/MSDK/cloud/alicloud/src/infra/utils/digest\utils_base64.c ****         sextet_d = data[i] == '=' ? 0 & i++ : g_decodingTable[data[i++]];
 469              		.loc 1 123 9 is_stmt 1 discriminator 4
 123:C:/Users/stapi/OneDrive/Desktop/GD32VW553/V1_MQTT_OK/GD32VW55X_Wifi_BLE_SDK/GD32VW55x_RELEASE_V1.0.2/MSDK/cloud/alicloud/src/infra/utils/digest\utils_base64.c ****         sextet_d = data[i] == '=' ? 0 & i++ : g_decodingTable[data[i++]];
 470              		.loc 1 123 24 is_stmt 0 discriminator 4
 471 0112 034F2800 		lbu	t5,2(a6)
 123:C:/Users/stapi/OneDrive/Desktop/GD32VW553/V1_MQTT_OK/GD32VW55X_Wifi_BLE_SDK/GD32VW55x_RELEASE_V1.0.2/MSDK/cloud/alicloud/src/infra/utils/digest\utils_base64.c ****         sextet_d = data[i] == '=' ? 0 & i++ : g_decodingTable[data[i++]];
 472              		.loc 1 123 45 discriminator 4
 473 0116 0143     		li	t1,0
 474 0118 6305DF01 		beq	t5,t4,.L26
 475              	.LVL56:
 123:C:/Users/stapi/OneDrive/Desktop/GD32VW553/V1_MQTT_OK/GD32VW55X_Wifi_BLE_SDK/GD32VW55x_RELEASE_V1.0.2/MSDK/cloud/alicloud/src/infra/utils/digest\utils_base64.c ****         sextet_d = data[i] == '=' ? 0 & i++ : g_decodingTable[data[i++]];
 476              		.loc 1 123 62 discriminator 2
 477 011c 729F     		add	t5,t3,t5
 123:C:/Users/stapi/OneDrive/Desktop/GD32VW553/V1_MQTT_OK/GD32VW55X_Wifi_BLE_SDK/GD32VW55x_RELEASE_V1.0.2/MSDK/cloud/alicloud/src/infra/utils/digest\utils_base64.c ****         sextet_d = data[i] == '=' ? 0 & i++ : g_decodingTable[data[i++]];
 478              		.loc 1 123 45 discriminator 2
 479 011e 03030F00 		lb	t1,0(t5)
 480              	.LVL57:
 481              	.L26:
 124:C:/Users/stapi/OneDrive/Desktop/GD32VW553/V1_MQTT_OK/GD32VW55X_Wifi_BLE_SDK/GD32VW55x_RELEASE_V1.0.2/MSDK/cloud/alicloud/src/infra/utils/digest\utils_base64.c **** 
 482              		.loc 1 124 9 is_stmt 1 discriminator 4
 124:C:/Users/stapi/OneDrive/Desktop/GD32VW553/V1_MQTT_OK/GD32VW55X_Wifi_BLE_SDK/GD32VW55x_RELEASE_V1.0.2/MSDK/cloud/alicloud/src/infra/utils/digest\utils_base64.c **** 
 483              		.loc 1 124 24 is_stmt 0 discriminator 4
 484 0122 034F3800 		lbu	t5,3(a6)
 124:C:/Users/stapi/OneDrive/Desktop/GD32VW553/V1_MQTT_OK/GD32VW55X_Wifi_BLE_SDK/GD32VW55x_RELEASE_V1.0.2/MSDK/cloud/alicloud/src/infra/utils/digest\utils_base64.c **** 
 485              		.loc 1 124 45 discriminator 4
 486 0126 814F     		li	t6,0
 487 0128 6305DF01 		beq	t5,t4,.L27
 488              	.LVL58:
 124:C:/Users/stapi/OneDrive/Desktop/GD32VW553/V1_MQTT_OK/GD32VW55X_Wifi_BLE_SDK/GD32VW55x_RELEASE_V1.0.2/MSDK/cloud/alicloud/src/infra/utils/digest\utils_base64.c **** 
 489              		.loc 1 124 62 discriminator 2
 490 012c 729F     		add	t5,t3,t5
 124:C:/Users/stapi/OneDrive/Desktop/GD32VW553/V1_MQTT_OK/GD32VW55X_Wifi_BLE_SDK/GD32VW55x_RELEASE_V1.0.2/MSDK/cloud/alicloud/src/infra/utils/digest\utils_base64.c **** 
 491              		.loc 1 124 45 discriminator 2
 492 012e 830F0F00 		lb	t6,0(t5)
 493              	.LVL59:
 494              	.L27:
 126:C:/Users/stapi/OneDrive/Desktop/GD32VW553/V1_MQTT_OK/GD32VW55X_Wifi_BLE_SDK/GD32VW55x_RELEASE_V1.0.2/MSDK/cloud/alicloud/src/infra/utils/digest\utils_base64.c **** 
 495              		.loc 1 126 9 is_stmt 1 discriminator 4
 128:C:/Users/stapi/OneDrive/Desktop/GD32VW553/V1_MQTT_OK/GD32VW55X_Wifi_BLE_SDK/GD32VW55x_RELEASE_V1.0.2/MSDK/cloud/alicloud/src/infra/utils/digest\utils_base64.c ****             decodedData[j++] = (triple >> 2 * 8) & 0xFF;
 496              		.loc 1 128 9 discriminator 4
 128:C:/Users/stapi/OneDrive/Desktop/GD32VW553/V1_MQTT_OK/GD32VW55X_Wifi_BLE_SDK/GD32VW55x_RELEASE_V1.0.2/MSDK/cloud/alicloud/src/infra/utils/digest\utils_base64.c ****             decodedData[j++] = (triple >> 2 * 8) & 0xFF;
 497              		.loc 1 128 12 is_stmt 0 discriminator 4
 498 0132 032F0700 		lw	t5,0(a4)
 499 0136 63F6E805 		bleu	t5,a7,.L35
 126:C:/Users/stapi/OneDrive/Desktop/GD32VW553/V1_MQTT_OK/GD32VW55X_Wifi_BLE_SDK/GD32VW55x_RELEASE_V1.0.2/MSDK/cloud/alicloud/src/infra/utils/digest\utils_base64.c **** 
 500              		.loc 1 126 28
 501 013a 4A06     		slli	a2,a2,18
 502              	.LVL60:
 126:C:/Users/stapi/OneDrive/Desktop/GD32VW553/V1_MQTT_OK/GD32VW55X_Wifi_BLE_SDK/GD32VW55x_RELEASE_V1.0.2/MSDK/cloud/alicloud/src/infra/utils/digest\utils_base64.c **** 
 503              		.loc 1 126 50
 504 013c B207     		slli	a5,a5,12
 505              	.LVL61:
 126:C:/Users/stapi/OneDrive/Desktop/GD32VW553/V1_MQTT_OK/GD32VW55X_Wifi_BLE_SDK/GD32VW55x_RELEASE_V1.0.2/MSDK/cloud/alicloud/src/infra/utils/digest\utils_base64.c **** 
 506              		.loc 1 126 38
 507 013e B297     		add	a5,a2,a5
 508              	.LVL62:
 126:C:/Users/stapi/OneDrive/Desktop/GD32VW553/V1_MQTT_OK/GD32VW55X_Wifi_BLE_SDK/GD32VW55x_RELEASE_V1.0.2/MSDK/cloud/alicloud/src/infra/utils/digest\utils_base64.c **** 
 509              		.loc 1 126 72
 510 0140 1A03     		slli	t1,t1,6
 511              	.LVL63:
 126:C:/Users/stapi/OneDrive/Desktop/GD32VW553/V1_MQTT_OK/GD32VW55X_Wifi_BLE_SDK/GD32VW55x_RELEASE_V1.0.2/MSDK/cloud/alicloud/src/infra/utils/digest\utils_base64.c **** 
 512              		.loc 1 126 60
 513 0142 9A97     		add	a5,a5,t1
 126:C:/Users/stapi/OneDrive/Desktop/GD32VW553/V1_MQTT_OK/GD32VW55X_Wifi_BLE_SDK/GD32VW55x_RELEASE_V1.0.2/MSDK/cloud/alicloud/src/infra/utils/digest\utils_base64.c **** 
 514              		.loc 1 126 16
 515 0144 FE97     		add	a5,a5,t6
 129:C:/Users/stapi/OneDrive/Desktop/GD32VW553/V1_MQTT_OK/GD32VW55X_Wifi_BLE_SDK/GD32VW55x_RELEASE_V1.0.2/MSDK/cloud/alicloud/src/infra/utils/digest\utils_base64.c ****         }
 516              		.loc 1 129 13 is_stmt 1
 129:C:/Users/stapi/OneDrive/Desktop/GD32VW553/V1_MQTT_OK/GD32VW55X_Wifi_BLE_SDK/GD32VW55x_RELEASE_V1.0.2/MSDK/cloud/alicloud/src/infra/utils/digest\utils_base64.c ****         }
 517              		.loc 1 129 30 is_stmt 0
 518 0146 33861601 		add	a2,a3,a7
 129:C:/Users/stapi/OneDrive/Desktop/GD32VW553/V1_MQTT_OK/GD32VW55X_Wifi_BLE_SDK/GD32VW55x_RELEASE_V1.0.2/MSDK/cloud/alicloud/src/infra/utils/digest\utils_base64.c ****         }
 519              		.loc 1 129 40
 520 014a 13DF0701 		srli	t5,a5,16
 129:C:/Users/stapi/OneDrive/Desktop/GD32VW553/V1_MQTT_OK/GD32VW55X_Wifi_BLE_SDK/GD32VW55x_RELEASE_V1.0.2/MSDK/cloud/alicloud/src/infra/utils/digest\utils_base64.c ****         }
 521              		.loc 1 129 30
 522 014e 2300E601 		sb	t5,0(a2)
 132:C:/Users/stapi/OneDrive/Desktop/GD32VW553/V1_MQTT_OK/GD32VW55X_Wifi_BLE_SDK/GD32VW55x_RELEASE_V1.0.2/MSDK/cloud/alicloud/src/infra/utils/digest\utils_base64.c ****             decodedData[j++] = (triple >> 1 * 8) & 0xFF;
 523              		.loc 1 132 12
 524 0152 1043     		lw	a2,0(a4)
 129:C:/Users/stapi/OneDrive/Desktop/GD32VW553/V1_MQTT_OK/GD32VW55X_Wifi_BLE_SDK/GD32VW55x_RELEASE_V1.0.2/MSDK/cloud/alicloud/src/infra/utils/digest\utils_base64.c ****         }
 525              		.loc 1 129 26
 526 0154 13831800 		addi	t1,a7,1
 527              	.LVL64:
 132:C:/Users/stapi/OneDrive/Desktop/GD32VW553/V1_MQTT_OK/GD32VW55X_Wifi_BLE_SDK/GD32VW55x_RELEASE_V1.0.2/MSDK/cloud/alicloud/src/infra/utils/digest\utils_base64.c ****             decodedData[j++] = (triple >> 1 * 8) & 0xFF;
 528              		.loc 1 132 9 is_stmt 1
 132:C:/Users/stapi/OneDrive/Desktop/GD32VW553/V1_MQTT_OK/GD32VW55X_Wifi_BLE_SDK/GD32VW55x_RELEASE_V1.0.2/MSDK/cloud/alicloud/src/infra/utils/digest\utils_base64.c ****             decodedData[j++] = (triple >> 1 * 8) & 0xFF;
 529              		.loc 1 132 12 is_stmt 0
 530 0158 6376C302 		bleu	a2,t1,.L28
 133:C:/Users/stapi/OneDrive/Desktop/GD32VW553/V1_MQTT_OK/GD32VW55X_Wifi_BLE_SDK/GD32VW55x_RELEASE_V1.0.2/MSDK/cloud/alicloud/src/infra/utils/digest\utils_base64.c ****         }
 531              		.loc 1 133 13 is_stmt 1
 133:C:/Users/stapi/OneDrive/Desktop/GD32VW553/V1_MQTT_OK/GD32VW55X_Wifi_BLE_SDK/GD32VW55x_RELEASE_V1.0.2/MSDK/cloud/alicloud/src/infra/utils/digest\utils_base64.c ****         }
 532              		.loc 1 133 30 is_stmt 0
 533 015c 3693     		add	t1,a3,t1
 534              	.LVL65:
 133:C:/Users/stapi/OneDrive/Desktop/GD32VW553/V1_MQTT_OK/GD32VW55X_Wifi_BLE_SDK/GD32VW55x_RELEASE_V1.0.2/MSDK/cloud/alicloud/src/infra/utils/digest\utils_base64.c ****         }
 535              		.loc 1 133 40
 536 015e 13DF8700 		srli	t5,a5,8
 133:C:/Users/stapi/OneDrive/Desktop/GD32VW553/V1_MQTT_OK/GD32VW55X_Wifi_BLE_SDK/GD32VW55x_RELEASE_V1.0.2/MSDK/cloud/alicloud/src/infra/utils/digest\utils_base64.c ****         }
 537              		.loc 1 133 30
 538 0162 2300E301 		sb	t5,0(t1)
 136:C:/Users/stapi/OneDrive/Desktop/GD32VW553/V1_MQTT_OK/GD32VW55X_Wifi_BLE_SDK/GD32VW55x_RELEASE_V1.0.2/MSDK/cloud/alicloud/src/infra/utils/digest\utils_base64.c ****             decodedData[j++] = (triple >> 0 * 8) & 0xFF;
 539              		.loc 1 136 12
 540 0166 03230700 		lw	t1,0(a4)
 133:C:/Users/stapi/OneDrive/Desktop/GD32VW553/V1_MQTT_OK/GD32VW55X_Wifi_BLE_SDK/GD32VW55x_RELEASE_V1.0.2/MSDK/cloud/alicloud/src/infra/utils/digest\utils_base64.c ****         }
 541              		.loc 1 133 26
 542 016a 13862800 		addi	a2,a7,2
 543              	.LVL66:
 136:C:/Users/stapi/OneDrive/Desktop/GD32VW553/V1_MQTT_OK/GD32VW55X_Wifi_BLE_SDK/GD32VW55x_RELEASE_V1.0.2/MSDK/cloud/alicloud/src/infra/utils/digest\utils_base64.c ****             decodedData[j++] = (triple >> 0 * 8) & 0xFF;
 544              		.loc 1 136 9 is_stmt 1
 136:C:/Users/stapi/OneDrive/Desktop/GD32VW553/V1_MQTT_OK/GD32VW55X_Wifi_BLE_SDK/GD32VW55x_RELEASE_V1.0.2/MSDK/cloud/alicloud/src/infra/utils/digest\utils_base64.c ****             decodedData[j++] = (triple >> 0 * 8) & 0xFF;
 545              		.loc 1 136 12 is_stmt 0
 546 016e 63776600 		bleu	t1,a2,.L29
 137:C:/Users/stapi/OneDrive/Desktop/GD32VW553/V1_MQTT_OK/GD32VW55X_Wifi_BLE_SDK/GD32VW55x_RELEASE_V1.0.2/MSDK/cloud/alicloud/src/infra/utils/digest\utils_base64.c ****         }
 547              		.loc 1 137 13 is_stmt 1
 548              	.LVL67:
 137:C:/Users/stapi/OneDrive/Desktop/GD32VW553/V1_MQTT_OK/GD32VW55X_Wifi_BLE_SDK/GD32VW55x_RELEASE_V1.0.2/MSDK/cloud/alicloud/src/infra/utils/digest\utils_base64.c ****         }
 549              		.loc 1 137 30 is_stmt 0
 550 0172 3696     		add	a2,a3,a2
 551 0174 2300F600 		sb	a5,0(a2)
 137:C:/Users/stapi/OneDrive/Desktop/GD32VW553/V1_MQTT_OK/GD32VW55X_Wifi_BLE_SDK/GD32VW55x_RELEASE_V1.0.2/MSDK/cloud/alicloud/src/infra/utils/digest\utils_base64.c ****         }
 552              		.loc 1 137 26
 553 0178 13863800 		addi	a2,a7,3
 554              	.LVL68:
 555              	.L29:
 556 017c 1108     		addi	a6,a6,4
 557              	.LVL69:
 137:C:/Users/stapi/OneDrive/Desktop/GD32VW553/V1_MQTT_OK/GD32VW55X_Wifi_BLE_SDK/GD32VW55x_RELEASE_V1.0.2/MSDK/cloud/alicloud/src/infra/utils/digest\utils_base64.c ****         }
 558              		.loc 1 137 26 discriminator 1
 559 017e B288     		mv	a7,a2
 560 0180 B1B7     		j	.L23
 561              	.LVL70:
 562              	.L35:
 563 0182 4683     		mv	t1,a7
 564              	.LVL71:
 565              	.L28:
 136:C:/Users/stapi/OneDrive/Desktop/GD32VW553/V1_MQTT_OK/GD32VW55X_Wifi_BLE_SDK/GD32VW55x_RELEASE_V1.0.2/MSDK/cloud/alicloud/src/infra/utils/digest\utils_base64.c ****             decodedData[j++] = (triple >> 0 * 8) & 0xFF;
 566              		.loc 1 136 9 is_stmt 1
 124:C:/Users/stapi/OneDrive/Desktop/GD32VW553/V1_MQTT_OK/GD32VW55X_Wifi_BLE_SDK/GD32VW55x_RELEASE_V1.0.2/MSDK/cloud/alicloud/src/infra/utils/digest\utils_base64.c **** 
 567              		.loc 1 124 45 is_stmt 0
 568 0184 1A86     		mv	a2,t1
 569 0186 DDBF     		j	.L29
 570              		.cfi_endproc
 571              	.LFE22:
 573              		.section	.bss.g_decodingTable,"aw",@nobits
 574              		.align	2
 575              		.set	.LANCHOR3,. + 0
 578              	g_decodingTable:
 579 0000 00000000 		.zero	256
 579      00000000 
 579      00000000 
 579      00000000 
 579      00000000 
 580              		.section	.rodata.g_encodingTable,"a"
 581              		.align	2
 582              		.set	.LANCHOR0,. + 0
 585              	g_encodingTable:
 586 0000 41424344 		.ascii	"ABCDEFGHIJKLMNOPQRSTUVWXYZabcdefghijklmnopqrstuvwxyz01234567"
 586      45464748 
 586      494A4B4C 
 586      4D4E4F50 
 586      51525354 
 587 003c 38392B2F 		.ascii	"89+/"
 588              		.section	.rodata.g_modTable,"a"
 589              		.align	2
 590              		.set	.LANCHOR1,. + 0
 593              	g_modTable:
 594 0000 00000000 		.word	0
 595 0004 02000000 		.word	2
 596 0008 01000000 		.word	1
 597              		.section	.sbss.signal.0,"aw",@nobits
 598              		.align	2
 599              		.set	.LANCHOR2,. + 0
 602              	signal.0:
 603 0000 00000000 		.zero	4
 604              		.text
 605              	.Letext0:
 606              		.file 2 "c:\\users\\stapi\\onedrive\\desktop\\gd32vw553\\embeddedbuilder_v1.4.7.26843\\tools\\nucl
 607              		.file 3 "c:\\users\\stapi\\onedrive\\desktop\\gd32vw553\\embeddedbuilder_v1.4.7.26843\\tools\\nucl
 608              		.file 4 "..\\..\\..\\..\\cloud\\alicloud\\include/exports/iot_export_errno.h"
 609              		.file 5 "..\\..\\..\\..\\cloud\\alicloud\\include/iot_import.h"