   1              		.file	"bench.c"
   2              		.option nopic
   3              		.attribute arch, "rv32i2p0_m2p0_a2p0_f2p0_c2p0_b_p0p94"
   4              		.attribute unaligned_access, 0
   5              		.attribute stack_align, 16
   6              		.text
   7              	.Ltext0:
   8              		.cfi_sections	.debug_frame
   9              		.section	.text.on_info,"ax",@progbits
  10              		.align	1
  12              	on_info:
  13              	.LFB4:
  14              		.file 1 "C:/Users/stapi/OneDrive/Desktop/GD32VW553/V1_MQTT_OK/GD32VW55X_Wifi_BLE_SDK/GD32VW55x_REL
   1:C:/Users/stapi/OneDrive/Desktop/GD32VW553/V1_MQTT_OK/GD32VW55X_Wifi_BLE_SDK/GD32VW55x_RELEASE_V1.0.2/MSDK/cloud/azureiot/libs/azure-iot-middleware-freertos/libraries/coreHTTP/source/dependency/3rdparty/http_parser\bench.c **** /* Copyright Fedor Indutny. All rights reserved.
   2:C:/Users/stapi/OneDrive/Desktop/GD32VW553/V1_MQTT_OK/GD32VW55X_Wifi_BLE_SDK/GD32VW55x_RELEASE_V1.0.2/MSDK/cloud/azureiot/libs/azure-iot-middleware-freertos/libraries/coreHTTP/source/dependency/3rdparty/http_parser\bench.c ****  *
   3:C:/Users/stapi/OneDrive/Desktop/GD32VW553/V1_MQTT_OK/GD32VW55X_Wifi_BLE_SDK/GD32VW55x_RELEASE_V1.0.2/MSDK/cloud/azureiot/libs/azure-iot-middleware-freertos/libraries/coreHTTP/source/dependency/3rdparty/http_parser\bench.c ****  * Permission is hereby granted, free of charge, to any person obtaining a copy
   4:C:/Users/stapi/OneDrive/Desktop/GD32VW553/V1_MQTT_OK/GD32VW55X_Wifi_BLE_SDK/GD32VW55x_RELEASE_V1.0.2/MSDK/cloud/azureiot/libs/azure-iot-middleware-freertos/libraries/coreHTTP/source/dependency/3rdparty/http_parser\bench.c ****  * of this software and associated documentation files (the "Software"), to
   5:C:/Users/stapi/OneDrive/Desktop/GD32VW553/V1_MQTT_OK/GD32VW55X_Wifi_BLE_SDK/GD32VW55x_RELEASE_V1.0.2/MSDK/cloud/azureiot/libs/azure-iot-middleware-freertos/libraries/coreHTTP/source/dependency/3rdparty/http_parser\bench.c ****  * deal in the Software without restriction, including without limitation the
   6:C:/Users/stapi/OneDrive/Desktop/GD32VW553/V1_MQTT_OK/GD32VW55X_Wifi_BLE_SDK/GD32VW55x_RELEASE_V1.0.2/MSDK/cloud/azureiot/libs/azure-iot-middleware-freertos/libraries/coreHTTP/source/dependency/3rdparty/http_parser\bench.c ****  * rights to use, copy, modify, merge, publish, distribute, sublicense, and/or
   7:C:/Users/stapi/OneDrive/Desktop/GD32VW553/V1_MQTT_OK/GD32VW55X_Wifi_BLE_SDK/GD32VW55x_RELEASE_V1.0.2/MSDK/cloud/azureiot/libs/azure-iot-middleware-freertos/libraries/coreHTTP/source/dependency/3rdparty/http_parser\bench.c ****  * sell copies of the Software, and to permit persons to whom the Software is
   8:C:/Users/stapi/OneDrive/Desktop/GD32VW553/V1_MQTT_OK/GD32VW55X_Wifi_BLE_SDK/GD32VW55x_RELEASE_V1.0.2/MSDK/cloud/azureiot/libs/azure-iot-middleware-freertos/libraries/coreHTTP/source/dependency/3rdparty/http_parser\bench.c ****  * furnished to do so, subject to the following conditions:
   9:C:/Users/stapi/OneDrive/Desktop/GD32VW553/V1_MQTT_OK/GD32VW55X_Wifi_BLE_SDK/GD32VW55x_RELEASE_V1.0.2/MSDK/cloud/azureiot/libs/azure-iot-middleware-freertos/libraries/coreHTTP/source/dependency/3rdparty/http_parser\bench.c ****  *
  10:C:/Users/stapi/OneDrive/Desktop/GD32VW553/V1_MQTT_OK/GD32VW55X_Wifi_BLE_SDK/GD32VW55x_RELEASE_V1.0.2/MSDK/cloud/azureiot/libs/azure-iot-middleware-freertos/libraries/coreHTTP/source/dependency/3rdparty/http_parser\bench.c ****  * The above copyright notice and this permission notice shall be included in
  11:C:/Users/stapi/OneDrive/Desktop/GD32VW553/V1_MQTT_OK/GD32VW55X_Wifi_BLE_SDK/GD32VW55x_RELEASE_V1.0.2/MSDK/cloud/azureiot/libs/azure-iot-middleware-freertos/libraries/coreHTTP/source/dependency/3rdparty/http_parser\bench.c ****  * all copies or substantial portions of the Software.
  12:C:/Users/stapi/OneDrive/Desktop/GD32VW553/V1_MQTT_OK/GD32VW55X_Wifi_BLE_SDK/GD32VW55x_RELEASE_V1.0.2/MSDK/cloud/azureiot/libs/azure-iot-middleware-freertos/libraries/coreHTTP/source/dependency/3rdparty/http_parser\bench.c ****  *
  13:C:/Users/stapi/OneDrive/Desktop/GD32VW553/V1_MQTT_OK/GD32VW55X_Wifi_BLE_SDK/GD32VW55x_RELEASE_V1.0.2/MSDK/cloud/azureiot/libs/azure-iot-middleware-freertos/libraries/coreHTTP/source/dependency/3rdparty/http_parser\bench.c ****  * THE SOFTWARE IS PROVIDED "AS IS", WITHOUT WARRANTY OF ANY KIND, EXPRESS OR
  14:C:/Users/stapi/OneDrive/Desktop/GD32VW553/V1_MQTT_OK/GD32VW55X_Wifi_BLE_SDK/GD32VW55x_RELEASE_V1.0.2/MSDK/cloud/azureiot/libs/azure-iot-middleware-freertos/libraries/coreHTTP/source/dependency/3rdparty/http_parser\bench.c ****  * IMPLIED, INCLUDING BUT NOT LIMITED TO THE WARRANTIES OF MERCHANTABILITY,
  15:C:/Users/stapi/OneDrive/Desktop/GD32VW553/V1_MQTT_OK/GD32VW55X_Wifi_BLE_SDK/GD32VW55x_RELEASE_V1.0.2/MSDK/cloud/azureiot/libs/azure-iot-middleware-freertos/libraries/coreHTTP/source/dependency/3rdparty/http_parser\bench.c ****  * FITNESS FOR A PARTICULAR PURPOSE AND NONINFRINGEMENT. IN NO EVENT SHALL THE
  16:C:/Users/stapi/OneDrive/Desktop/GD32VW553/V1_MQTT_OK/GD32VW55X_Wifi_BLE_SDK/GD32VW55x_RELEASE_V1.0.2/MSDK/cloud/azureiot/libs/azure-iot-middleware-freertos/libraries/coreHTTP/source/dependency/3rdparty/http_parser\bench.c ****  * AUTHORS OR COPYRIGHT HOLDERS BE LIABLE FOR ANY CLAIM, DAMAGES OR OTHER
  17:C:/Users/stapi/OneDrive/Desktop/GD32VW553/V1_MQTT_OK/GD32VW55X_Wifi_BLE_SDK/GD32VW55x_RELEASE_V1.0.2/MSDK/cloud/azureiot/libs/azure-iot-middleware-freertos/libraries/coreHTTP/source/dependency/3rdparty/http_parser\bench.c ****  * LIABILITY, WHETHER IN AN ACTION OF CONTRACT, TORT OR OTHERWISE, ARISING
  18:C:/Users/stapi/OneDrive/Desktop/GD32VW553/V1_MQTT_OK/GD32VW55X_Wifi_BLE_SDK/GD32VW55x_RELEASE_V1.0.2/MSDK/cloud/azureiot/libs/azure-iot-middleware-freertos/libraries/coreHTTP/source/dependency/3rdparty/http_parser\bench.c ****  * FROM, OUT OF OR IN CONNECTION WITH THE SOFTWARE OR THE USE OR OTHER DEALINGS
  19:C:/Users/stapi/OneDrive/Desktop/GD32VW553/V1_MQTT_OK/GD32VW55X_Wifi_BLE_SDK/GD32VW55x_RELEASE_V1.0.2/MSDK/cloud/azureiot/libs/azure-iot-middleware-freertos/libraries/coreHTTP/source/dependency/3rdparty/http_parser\bench.c ****  * IN THE SOFTWARE.
  20:C:/Users/stapi/OneDrive/Desktop/GD32VW553/V1_MQTT_OK/GD32VW55X_Wifi_BLE_SDK/GD32VW55x_RELEASE_V1.0.2/MSDK/cloud/azureiot/libs/azure-iot-middleware-freertos/libraries/coreHTTP/source/dependency/3rdparty/http_parser\bench.c ****  */
  21:C:/Users/stapi/OneDrive/Desktop/GD32VW553/V1_MQTT_OK/GD32VW55X_Wifi_BLE_SDK/GD32VW55x_RELEASE_V1.0.2/MSDK/cloud/azureiot/libs/azure-iot-middleware-freertos/libraries/coreHTTP/source/dependency/3rdparty/http_parser\bench.c **** #include "http_parser.h"
  22:C:/Users/stapi/OneDrive/Desktop/GD32VW553/V1_MQTT_OK/GD32VW55X_Wifi_BLE_SDK/GD32VW55x_RELEASE_V1.0.2/MSDK/cloud/azureiot/libs/azure-iot-middleware-freertos/libraries/coreHTTP/source/dependency/3rdparty/http_parser\bench.c **** #include <assert.h>
  23:C:/Users/stapi/OneDrive/Desktop/GD32VW553/V1_MQTT_OK/GD32VW55X_Wifi_BLE_SDK/GD32VW55x_RELEASE_V1.0.2/MSDK/cloud/azureiot/libs/azure-iot-middleware-freertos/libraries/coreHTTP/source/dependency/3rdparty/http_parser\bench.c **** #include <stdint.h>
  24:C:/Users/stapi/OneDrive/Desktop/GD32VW553/V1_MQTT_OK/GD32VW55X_Wifi_BLE_SDK/GD32VW55x_RELEASE_V1.0.2/MSDK/cloud/azureiot/libs/azure-iot-middleware-freertos/libraries/coreHTTP/source/dependency/3rdparty/http_parser\bench.c **** #include <stdio.h>
  25:C:/Users/stapi/OneDrive/Desktop/GD32VW553/V1_MQTT_OK/GD32VW55X_Wifi_BLE_SDK/GD32VW55x_RELEASE_V1.0.2/MSDK/cloud/azureiot/libs/azure-iot-middleware-freertos/libraries/coreHTTP/source/dependency/3rdparty/http_parser\bench.c **** #include <string.h>
  26:C:/Users/stapi/OneDrive/Desktop/GD32VW553/V1_MQTT_OK/GD32VW55X_Wifi_BLE_SDK/GD32VW55x_RELEASE_V1.0.2/MSDK/cloud/azureiot/libs/azure-iot-middleware-freertos/libraries/coreHTTP/source/dependency/3rdparty/http_parser\bench.c **** #include <sys/time.h>
  27:C:/Users/stapi/OneDrive/Desktop/GD32VW553/V1_MQTT_OK/GD32VW55X_Wifi_BLE_SDK/GD32VW55x_RELEASE_V1.0.2/MSDK/cloud/azureiot/libs/azure-iot-middleware-freertos/libraries/coreHTTP/source/dependency/3rdparty/http_parser\bench.c **** 
  28:C:/Users/stapi/OneDrive/Desktop/GD32VW553/V1_MQTT_OK/GD32VW55X_Wifi_BLE_SDK/GD32VW55x_RELEASE_V1.0.2/MSDK/cloud/azureiot/libs/azure-iot-middleware-freertos/libraries/coreHTTP/source/dependency/3rdparty/http_parser\bench.c **** /* 8 gb */
  29:C:/Users/stapi/OneDrive/Desktop/GD32VW553/V1_MQTT_OK/GD32VW55X_Wifi_BLE_SDK/GD32VW55x_RELEASE_V1.0.2/MSDK/cloud/azureiot/libs/azure-iot-middleware-freertos/libraries/coreHTTP/source/dependency/3rdparty/http_parser\bench.c **** static const int64_t kBytes = 8LL << 30;
  30:C:/Users/stapi/OneDrive/Desktop/GD32VW553/V1_MQTT_OK/GD32VW55X_Wifi_BLE_SDK/GD32VW55x_RELEASE_V1.0.2/MSDK/cloud/azureiot/libs/azure-iot-middleware-freertos/libraries/coreHTTP/source/dependency/3rdparty/http_parser\bench.c **** 
  31:C:/Users/stapi/OneDrive/Desktop/GD32VW553/V1_MQTT_OK/GD32VW55X_Wifi_BLE_SDK/GD32VW55x_RELEASE_V1.0.2/MSDK/cloud/azureiot/libs/azure-iot-middleware-freertos/libraries/coreHTTP/source/dependency/3rdparty/http_parser\bench.c **** static const char data[] =
  32:C:/Users/stapi/OneDrive/Desktop/GD32VW553/V1_MQTT_OK/GD32VW55X_Wifi_BLE_SDK/GD32VW55x_RELEASE_V1.0.2/MSDK/cloud/azureiot/libs/azure-iot-middleware-freertos/libraries/coreHTTP/source/dependency/3rdparty/http_parser\bench.c ****     "POST /joyent/http-parser HTTP/1.1\r\n"
  33:C:/Users/stapi/OneDrive/Desktop/GD32VW553/V1_MQTT_OK/GD32VW55X_Wifi_BLE_SDK/GD32VW55x_RELEASE_V1.0.2/MSDK/cloud/azureiot/libs/azure-iot-middleware-freertos/libraries/coreHTTP/source/dependency/3rdparty/http_parser\bench.c ****     "Host: github.com\r\n"
  34:C:/Users/stapi/OneDrive/Desktop/GD32VW553/V1_MQTT_OK/GD32VW55X_Wifi_BLE_SDK/GD32VW55x_RELEASE_V1.0.2/MSDK/cloud/azureiot/libs/azure-iot-middleware-freertos/libraries/coreHTTP/source/dependency/3rdparty/http_parser\bench.c ****     "DNT: 1\r\n"
  35:C:/Users/stapi/OneDrive/Desktop/GD32VW553/V1_MQTT_OK/GD32VW55X_Wifi_BLE_SDK/GD32VW55x_RELEASE_V1.0.2/MSDK/cloud/azureiot/libs/azure-iot-middleware-freertos/libraries/coreHTTP/source/dependency/3rdparty/http_parser\bench.c ****     "Accept-Encoding: gzip, deflate, sdch\r\n"
  36:C:/Users/stapi/OneDrive/Desktop/GD32VW553/V1_MQTT_OK/GD32VW55X_Wifi_BLE_SDK/GD32VW55x_RELEASE_V1.0.2/MSDK/cloud/azureiot/libs/azure-iot-middleware-freertos/libraries/coreHTTP/source/dependency/3rdparty/http_parser\bench.c ****     "Accept-Language: ru-RU,ru;q=0.8,en-US;q=0.6,en;q=0.4\r\n"
  37:C:/Users/stapi/OneDrive/Desktop/GD32VW553/V1_MQTT_OK/GD32VW55X_Wifi_BLE_SDK/GD32VW55x_RELEASE_V1.0.2/MSDK/cloud/azureiot/libs/azure-iot-middleware-freertos/libraries/coreHTTP/source/dependency/3rdparty/http_parser\bench.c ****     "User-Agent: Mozilla/5.0 (Macintosh; Intel Mac OS X 10_10_1) "
  38:C:/Users/stapi/OneDrive/Desktop/GD32VW553/V1_MQTT_OK/GD32VW55X_Wifi_BLE_SDK/GD32VW55x_RELEASE_V1.0.2/MSDK/cloud/azureiot/libs/azure-iot-middleware-freertos/libraries/coreHTTP/source/dependency/3rdparty/http_parser\bench.c ****         "AppleWebKit/537.36 (KHTML, like Gecko) "
  39:C:/Users/stapi/OneDrive/Desktop/GD32VW553/V1_MQTT_OK/GD32VW55X_Wifi_BLE_SDK/GD32VW55x_RELEASE_V1.0.2/MSDK/cloud/azureiot/libs/azure-iot-middleware-freertos/libraries/coreHTTP/source/dependency/3rdparty/http_parser\bench.c ****         "Chrome/39.0.2171.65 Safari/537.36\r\n"
  40:C:/Users/stapi/OneDrive/Desktop/GD32VW553/V1_MQTT_OK/GD32VW55X_Wifi_BLE_SDK/GD32VW55x_RELEASE_V1.0.2/MSDK/cloud/azureiot/libs/azure-iot-middleware-freertos/libraries/coreHTTP/source/dependency/3rdparty/http_parser\bench.c ****     "Accept: text/html,application/xhtml+xml,application/xml;q=0.9,"
  41:C:/Users/stapi/OneDrive/Desktop/GD32VW553/V1_MQTT_OK/GD32VW55X_Wifi_BLE_SDK/GD32VW55x_RELEASE_V1.0.2/MSDK/cloud/azureiot/libs/azure-iot-middleware-freertos/libraries/coreHTTP/source/dependency/3rdparty/http_parser\bench.c ****         "image/webp,*/*;q=0.8\r\n"
  42:C:/Users/stapi/OneDrive/Desktop/GD32VW553/V1_MQTT_OK/GD32VW55X_Wifi_BLE_SDK/GD32VW55x_RELEASE_V1.0.2/MSDK/cloud/azureiot/libs/azure-iot-middleware-freertos/libraries/coreHTTP/source/dependency/3rdparty/http_parser\bench.c ****     "Referer: https://github.com/joyent/http-parser\r\n"
  43:C:/Users/stapi/OneDrive/Desktop/GD32VW553/V1_MQTT_OK/GD32VW55X_Wifi_BLE_SDK/GD32VW55x_RELEASE_V1.0.2/MSDK/cloud/azureiot/libs/azure-iot-middleware-freertos/libraries/coreHTTP/source/dependency/3rdparty/http_parser\bench.c ****     "Connection: keep-alive\r\n"
  44:C:/Users/stapi/OneDrive/Desktop/GD32VW553/V1_MQTT_OK/GD32VW55X_Wifi_BLE_SDK/GD32VW55x_RELEASE_V1.0.2/MSDK/cloud/azureiot/libs/azure-iot-middleware-freertos/libraries/coreHTTP/source/dependency/3rdparty/http_parser\bench.c ****     "Transfer-Encoding: chunked\r\n"
  45:C:/Users/stapi/OneDrive/Desktop/GD32VW553/V1_MQTT_OK/GD32VW55X_Wifi_BLE_SDK/GD32VW55x_RELEASE_V1.0.2/MSDK/cloud/azureiot/libs/azure-iot-middleware-freertos/libraries/coreHTTP/source/dependency/3rdparty/http_parser\bench.c ****     "Cache-Control: max-age=0\r\n\r\nb\r\nhello world\r\n0\r\n";
  46:C:/Users/stapi/OneDrive/Desktop/GD32VW553/V1_MQTT_OK/GD32VW55X_Wifi_BLE_SDK/GD32VW55x_RELEASE_V1.0.2/MSDK/cloud/azureiot/libs/azure-iot-middleware-freertos/libraries/coreHTTP/source/dependency/3rdparty/http_parser\bench.c **** static const size_t data_len = sizeof(data) - 1;
  47:C:/Users/stapi/OneDrive/Desktop/GD32VW553/V1_MQTT_OK/GD32VW55X_Wifi_BLE_SDK/GD32VW55x_RELEASE_V1.0.2/MSDK/cloud/azureiot/libs/azure-iot-middleware-freertos/libraries/coreHTTP/source/dependency/3rdparty/http_parser\bench.c **** 
  48:C:/Users/stapi/OneDrive/Desktop/GD32VW553/V1_MQTT_OK/GD32VW55X_Wifi_BLE_SDK/GD32VW55x_RELEASE_V1.0.2/MSDK/cloud/azureiot/libs/azure-iot-middleware-freertos/libraries/coreHTTP/source/dependency/3rdparty/http_parser\bench.c **** static int on_info(http_parser* p) {
  15              		.loc 1 48 36
  16              		.cfi_startproc
  17              	.LVL0:
  49:C:/Users/stapi/OneDrive/Desktop/GD32VW553/V1_MQTT_OK/GD32VW55X_Wifi_BLE_SDK/GD32VW55x_RELEASE_V1.0.2/MSDK/cloud/azureiot/libs/azure-iot-middleware-freertos/libraries/coreHTTP/source/dependency/3rdparty/http_parser\bench.c ****   return 0;
  18              		.loc 1 49 3
  50:C:/Users/stapi/OneDrive/Desktop/GD32VW553/V1_MQTT_OK/GD32VW55X_Wifi_BLE_SDK/GD32VW55x_RELEASE_V1.0.2/MSDK/cloud/azureiot/libs/azure-iot-middleware-freertos/libraries/coreHTTP/source/dependency/3rdparty/http_parser\bench.c **** }
  19              		.loc 1 50 1 is_stmt 0
  20 0000 0145     		li	a0,0
  21              	.LVL1:
  22 0002 8280     		ret
  23              		.cfi_endproc
  24              	.LFE4:
  26              		.section	.text.on_data,"ax",@progbits
  27              		.align	1
  29              	on_data:
  30              	.LFB5:
  51:C:/Users/stapi/OneDrive/Desktop/GD32VW553/V1_MQTT_OK/GD32VW55X_Wifi_BLE_SDK/GD32VW55x_RELEASE_V1.0.2/MSDK/cloud/azureiot/libs/azure-iot-middleware-freertos/libraries/coreHTTP/source/dependency/3rdparty/http_parser\bench.c **** 
  52:C:/Users/stapi/OneDrive/Desktop/GD32VW553/V1_MQTT_OK/GD32VW55X_Wifi_BLE_SDK/GD32VW55x_RELEASE_V1.0.2/MSDK/cloud/azureiot/libs/azure-iot-middleware-freertos/libraries/coreHTTP/source/dependency/3rdparty/http_parser\bench.c **** 
  53:C:/Users/stapi/OneDrive/Desktop/GD32VW553/V1_MQTT_OK/GD32VW55X_Wifi_BLE_SDK/GD32VW55x_RELEASE_V1.0.2/MSDK/cloud/azureiot/libs/azure-iot-middleware-freertos/libraries/coreHTTP/source/dependency/3rdparty/http_parser\bench.c **** static int on_data(http_parser* p, const char *at, size_t length) {
  31              		.loc 1 53 67 is_stmt 1
  32              		.cfi_startproc
  33              	.LVL2:
  54:C:/Users/stapi/OneDrive/Desktop/GD32VW553/V1_MQTT_OK/GD32VW55X_Wifi_BLE_SDK/GD32VW55x_RELEASE_V1.0.2/MSDK/cloud/azureiot/libs/azure-iot-middleware-freertos/libraries/coreHTTP/source/dependency/3rdparty/http_parser\bench.c ****   return 0;
  34              		.loc 1 54 3
  55:C:/Users/stapi/OneDrive/Desktop/GD32VW553/V1_MQTT_OK/GD32VW55X_Wifi_BLE_SDK/GD32VW55x_RELEASE_V1.0.2/MSDK/cloud/azureiot/libs/azure-iot-middleware-freertos/libraries/coreHTTP/source/dependency/3rdparty/http_parser\bench.c **** }
  35              		.loc 1 55 1 is_stmt 0
  36 0000 0145     		li	a0,0
  37              	.LVL3:
  38 0002 8280     		ret
  39              		.cfi_endproc
  40              	.LFE5:
  42              		.section	.rodata.bench.str1.4,"aMS",@progbits,1
  43              		.align	2
  44              	.LC0:
  45 0000 65727220 		.string	"err == 0"
  45      3D3D2030 
  45      00
  46 0009 000000   		.align	2
  47              	.LC1:
  48 000c 433A2F55 		.string	"C:/Users/stapi/OneDrive/Desktop/GD32VW553/V1_MQTT_OK/GD32VW55X_Wifi_BLE_SDK/GD32VW55x_REL
  48      73657273 
  48      2F737461 
  48      70692F4F 
  48      6E654472 
  49 00ea 0000     		.align	2
  50              	.LC2:
  51 00ec 7265715F 		.string	"req_len=%d\n"
  51      6C656E3D 
  51      25640A00 
  52              		.align	2
  53              	.LC3:
  54 00f8 70617273 		.string	"parsed == data_len"
  54      6564203D 
  54      3D206461 
  54      74615F6C 
  54      656E00
  55 010b 00       		.align	2
  56              	.LC4:
  57 010c 42656E63 		.string	"Benchmark result:\n"
  57      686D6172 
  57      6B207265 
  57      73756C74 
  57      3A0A00
  58              		.globl	__floatdidf
  59              		.globl	__extendsfdf2
  60              		.globl	__adddf3
  61              		.globl	__floatsidf
  62              		.globl	__muldf3
  63              		.globl	__divdf3
  64 011f 00       		.align	2
  65              	.LC8:
  66 0120 252E3266 		.string	"%.2f mb | %.2f mb/s | %.2f req/sec | %.2f s\n"
  66      206D6220 
  66      7C20252E 
  66      3266206D 
  66      622F7320 
  67              		.section	.text.bench,"ax",@progbits
  68              		.align	1
  69              		.globl	bench
  71              	bench:
  72              	.LFB6:
  56:C:/Users/stapi/OneDrive/Desktop/GD32VW553/V1_MQTT_OK/GD32VW55X_Wifi_BLE_SDK/GD32VW55x_RELEASE_V1.0.2/MSDK/cloud/azureiot/libs/azure-iot-middleware-freertos/libraries/coreHTTP/source/dependency/3rdparty/http_parser\bench.c **** 
  57:C:/Users/stapi/OneDrive/Desktop/GD32VW553/V1_MQTT_OK/GD32VW55X_Wifi_BLE_SDK/GD32VW55x_RELEASE_V1.0.2/MSDK/cloud/azureiot/libs/azure-iot-middleware-freertos/libraries/coreHTTP/source/dependency/3rdparty/http_parser\bench.c **** static http_parser_settings settings = {
  58:C:/Users/stapi/OneDrive/Desktop/GD32VW553/V1_MQTT_OK/GD32VW55X_Wifi_BLE_SDK/GD32VW55x_RELEASE_V1.0.2/MSDK/cloud/azureiot/libs/azure-iot-middleware-freertos/libraries/coreHTTP/source/dependency/3rdparty/http_parser\bench.c ****   .on_message_begin = on_info,
  59:C:/Users/stapi/OneDrive/Desktop/GD32VW553/V1_MQTT_OK/GD32VW55X_Wifi_BLE_SDK/GD32VW55x_RELEASE_V1.0.2/MSDK/cloud/azureiot/libs/azure-iot-middleware-freertos/libraries/coreHTTP/source/dependency/3rdparty/http_parser\bench.c ****   .on_headers_complete = on_info,
  60:C:/Users/stapi/OneDrive/Desktop/GD32VW553/V1_MQTT_OK/GD32VW55X_Wifi_BLE_SDK/GD32VW55x_RELEASE_V1.0.2/MSDK/cloud/azureiot/libs/azure-iot-middleware-freertos/libraries/coreHTTP/source/dependency/3rdparty/http_parser\bench.c ****   .on_message_complete = on_info,
  61:C:/Users/stapi/OneDrive/Desktop/GD32VW553/V1_MQTT_OK/GD32VW55X_Wifi_BLE_SDK/GD32VW55x_RELEASE_V1.0.2/MSDK/cloud/azureiot/libs/azure-iot-middleware-freertos/libraries/coreHTTP/source/dependency/3rdparty/http_parser\bench.c ****   .on_header_field = on_data,
  62:C:/Users/stapi/OneDrive/Desktop/GD32VW553/V1_MQTT_OK/GD32VW55X_Wifi_BLE_SDK/GD32VW55x_RELEASE_V1.0.2/MSDK/cloud/azureiot/libs/azure-iot-middleware-freertos/libraries/coreHTTP/source/dependency/3rdparty/http_parser\bench.c ****   .on_header_value = on_data,
  63:C:/Users/stapi/OneDrive/Desktop/GD32VW553/V1_MQTT_OK/GD32VW55X_Wifi_BLE_SDK/GD32VW55x_RELEASE_V1.0.2/MSDK/cloud/azureiot/libs/azure-iot-middleware-freertos/libraries/coreHTTP/source/dependency/3rdparty/http_parser\bench.c ****   .on_url = on_data,
  64:C:/Users/stapi/OneDrive/Desktop/GD32VW553/V1_MQTT_OK/GD32VW55X_Wifi_BLE_SDK/GD32VW55x_RELEASE_V1.0.2/MSDK/cloud/azureiot/libs/azure-iot-middleware-freertos/libraries/coreHTTP/source/dependency/3rdparty/http_parser\bench.c ****   .on_status = on_data,
  65:C:/Users/stapi/OneDrive/Desktop/GD32VW553/V1_MQTT_OK/GD32VW55X_Wifi_BLE_SDK/GD32VW55x_RELEASE_V1.0.2/MSDK/cloud/azureiot/libs/azure-iot-middleware-freertos/libraries/coreHTTP/source/dependency/3rdparty/http_parser\bench.c ****   .on_body = on_data
  66:C:/Users/stapi/OneDrive/Desktop/GD32VW553/V1_MQTT_OK/GD32VW55X_Wifi_BLE_SDK/GD32VW55x_RELEASE_V1.0.2/MSDK/cloud/azureiot/libs/azure-iot-middleware-freertos/libraries/coreHTTP/source/dependency/3rdparty/http_parser\bench.c **** };
  67:C:/Users/stapi/OneDrive/Desktop/GD32VW553/V1_MQTT_OK/GD32VW55X_Wifi_BLE_SDK/GD32VW55x_RELEASE_V1.0.2/MSDK/cloud/azureiot/libs/azure-iot-middleware-freertos/libraries/coreHTTP/source/dependency/3rdparty/http_parser\bench.c **** 
  68:C:/Users/stapi/OneDrive/Desktop/GD32VW553/V1_MQTT_OK/GD32VW55X_Wifi_BLE_SDK/GD32VW55x_RELEASE_V1.0.2/MSDK/cloud/azureiot/libs/azure-iot-middleware-freertos/libraries/coreHTTP/source/dependency/3rdparty/http_parser\bench.c **** int bench(int iter_count, int silent) {
  73              		.loc 1 68 39 is_stmt 1
  74              		.cfi_startproc
  75              	.LVL4:
  76 0000 17030000 		call	t0,__riscv_save_10
  76      E7020300 
  77              		.cfi_offset 25, -44
  78              		.cfi_offset 24, -40
  79              		.cfi_offset 23, -36
  80              		.cfi_offset 22, -32
  81              		.cfi_offset 21, -28
  82              		.cfi_offset 20, -24
  83              		.cfi_offset 19, -20
  84              		.cfi_offset 18, -16
  85              		.cfi_offset 9, -12
  86              		.cfi_offset 8, -8
  87              		.cfi_offset 1, -4
  88              		.cfi_def_cfa_offset 48
  69:C:/Users/stapi/OneDrive/Desktop/GD32VW553/V1_MQTT_OK/GD32VW55X_Wifi_BLE_SDK/GD32VW55x_RELEASE_V1.0.2/MSDK/cloud/azureiot/libs/azure-iot-middleware-freertos/libraries/coreHTTP/source/dependency/3rdparty/http_parser\bench.c ****   struct http_parser parser;
  89              		.loc 1 69 3
  70:C:/Users/stapi/OneDrive/Desktop/GD32VW553/V1_MQTT_OK/GD32VW55X_Wifi_BLE_SDK/GD32VW55x_RELEASE_V1.0.2/MSDK/cloud/azureiot/libs/azure-iot-middleware-freertos/libraries/coreHTTP/source/dependency/3rdparty/http_parser\bench.c ****   int i;
  90              		.loc 1 70 3
  71:C:/Users/stapi/OneDrive/Desktop/GD32VW553/V1_MQTT_OK/GD32VW55X_Wifi_BLE_SDK/GD32VW55x_RELEASE_V1.0.2/MSDK/cloud/azureiot/libs/azure-iot-middleware-freertos/libraries/coreHTTP/source/dependency/3rdparty/http_parser\bench.c ****   int err;
  91              		.loc 1 71 3
  72:C:/Users/stapi/OneDrive/Desktop/GD32VW553/V1_MQTT_OK/GD32VW55X_Wifi_BLE_SDK/GD32VW55x_RELEASE_V1.0.2/MSDK/cloud/azureiot/libs/azure-iot-middleware-freertos/libraries/coreHTTP/source/dependency/3rdparty/http_parser\bench.c ****   struct timeval start;
  92              		.loc 1 72 3
  73:C:/Users/stapi/OneDrive/Desktop/GD32VW553/V1_MQTT_OK/GD32VW55X_Wifi_BLE_SDK/GD32VW55x_RELEASE_V1.0.2/MSDK/cloud/azureiot/libs/azure-iot-middleware-freertos/libraries/coreHTTP/source/dependency/3rdparty/http_parser\bench.c ****   struct timeval end;
  93              		.loc 1 73 3
  74:C:/Users/stapi/OneDrive/Desktop/GD32VW553/V1_MQTT_OK/GD32VW55X_Wifi_BLE_SDK/GD32VW55x_RELEASE_V1.0.2/MSDK/cloud/azureiot/libs/azure-iot-middleware-freertos/libraries/coreHTTP/source/dependency/3rdparty/http_parser\bench.c **** 
  75:C:/Users/stapi/OneDrive/Desktop/GD32VW553/V1_MQTT_OK/GD32VW55X_Wifi_BLE_SDK/GD32VW55x_RELEASE_V1.0.2/MSDK/cloud/azureiot/libs/azure-iot-middleware-freertos/libraries/coreHTTP/source/dependency/3rdparty/http_parser\bench.c ****   if (!silent) {
  94              		.loc 1 75 3
  68:C:/Users/stapi/OneDrive/Desktop/GD32VW553/V1_MQTT_OK/GD32VW55X_Wifi_BLE_SDK/GD32VW55x_RELEASE_V1.0.2/MSDK/cloud/azureiot/libs/azure-iot-middleware-freertos/libraries/coreHTTP/source/dependency/3rdparty/http_parser\bench.c ****   struct http_parser parser;
  95              		.loc 1 68 39 is_stmt 0
  96 0008 5D71     		addi	sp,sp,-80
  97              		.cfi_def_cfa_offset 128
  68:C:/Users/stapi/OneDrive/Desktop/GD32VW553/V1_MQTT_OK/GD32VW55X_Wifi_BLE_SDK/GD32VW55x_RELEASE_V1.0.2/MSDK/cloud/azureiot/libs/azure-iot-middleware-freertos/libraries/coreHTTP/source/dependency/3rdparty/http_parser\bench.c ****   struct http_parser parser;
  98              		.loc 1 68 39
  99 000a AA89     		mv	s3,a0
 100 000c AE84     		mv	s1,a1
 101              		.loc 1 75 6
 102 000e 8DE9     		bne	a1,zero,.L4
  76:C:/Users/stapi/OneDrive/Desktop/GD32VW553/V1_MQTT_OK/GD32VW55X_Wifi_BLE_SDK/GD32VW55x_RELEASE_V1.0.2/MSDK/cloud/azureiot/libs/azure-iot-middleware-freertos/libraries/coreHTTP/source/dependency/3rdparty/http_parser\bench.c ****     err = gettimeofday(&start, NULL);
 103              		.loc 1 76 5 is_stmt 1
 104              		.loc 1 76 11 is_stmt 0
 105 0010 0808     		addi	a0,sp,16
 106              	.LVL5:
 107 0012 97000000 		call	gettimeofday
 107      E7800000 
 108              	.LVL6:
  77:C:/Users/stapi/OneDrive/Desktop/GD32VW553/V1_MQTT_OK/GD32VW55X_Wifi_BLE_SDK/GD32VW55x_RELEASE_V1.0.2/MSDK/cloud/azureiot/libs/azure-iot-middleware-freertos/libraries/coreHTTP/source/dependency/3rdparty/http_parser\bench.c ****     assert(err == 0);
 109              		.loc 1 77 5 is_stmt 1
 110 001a 1DC1     		beq	a0,zero,.L4
 111              		.loc 1 77 5 is_stmt 0 discriminator 1
 112 001c B7060000 		lui	a3,%hi(.LC0)
 113 0020 37060000 		lui	a2,%hi(.LANCHOR0)
 114 0024 93860600 		addi	a3,a3,%lo(.LC0)
 115 0028 13060600 		addi	a2,a2,%lo(.LANCHOR0)
 116 002c 9305D004 		li	a1,77
 117              	.LVL7:
 118              	.L14:
 119              	.LBB2:
  78:C:/Users/stapi/OneDrive/Desktop/GD32VW553/V1_MQTT_OK/GD32VW55X_Wifi_BLE_SDK/GD32VW55x_RELEASE_V1.0.2/MSDK/cloud/azureiot/libs/azure-iot-middleware-freertos/libraries/coreHTTP/source/dependency/3rdparty/http_parser\bench.c ****   }
  79:C:/Users/stapi/OneDrive/Desktop/GD32VW553/V1_MQTT_OK/GD32VW55X_Wifi_BLE_SDK/GD32VW55x_RELEASE_V1.0.2/MSDK/cloud/azureiot/libs/azure-iot-middleware-freertos/libraries/coreHTTP/source/dependency/3rdparty/http_parser\bench.c **** 
  80:C:/Users/stapi/OneDrive/Desktop/GD32VW553/V1_MQTT_OK/GD32VW55X_Wifi_BLE_SDK/GD32VW55x_RELEASE_V1.0.2/MSDK/cloud/azureiot/libs/azure-iot-middleware-freertos/libraries/coreHTTP/source/dependency/3rdparty/http_parser\bench.c ****   fprintf(stderr, "req_len=%d\n", (int) data_len);
  81:C:/Users/stapi/OneDrive/Desktop/GD32VW553/V1_MQTT_OK/GD32VW55X_Wifi_BLE_SDK/GD32VW55x_RELEASE_V1.0.2/MSDK/cloud/azureiot/libs/azure-iot-middleware-freertos/libraries/coreHTTP/source/dependency/3rdparty/http_parser\bench.c ****   for (i = 0; i < iter_count; i++) {
  82:C:/Users/stapi/OneDrive/Desktop/GD32VW553/V1_MQTT_OK/GD32VW55X_Wifi_BLE_SDK/GD32VW55x_RELEASE_V1.0.2/MSDK/cloud/azureiot/libs/azure-iot-middleware-freertos/libraries/coreHTTP/source/dependency/3rdparty/http_parser\bench.c ****     size_t parsed;
  83:C:/Users/stapi/OneDrive/Desktop/GD32VW553/V1_MQTT_OK/GD32VW55X_Wifi_BLE_SDK/GD32VW55x_RELEASE_V1.0.2/MSDK/cloud/azureiot/libs/azure-iot-middleware-freertos/libraries/coreHTTP/source/dependency/3rdparty/http_parser\bench.c ****     http_parser_init(&parser, HTTP_REQUEST);
  84:C:/Users/stapi/OneDrive/Desktop/GD32VW553/V1_MQTT_OK/GD32VW55X_Wifi_BLE_SDK/GD32VW55x_RELEASE_V1.0.2/MSDK/cloud/azureiot/libs/azure-iot-middleware-freertos/libraries/coreHTTP/source/dependency/3rdparty/http_parser\bench.c **** 
  85:C:/Users/stapi/OneDrive/Desktop/GD32VW553/V1_MQTT_OK/GD32VW55X_Wifi_BLE_SDK/GD32VW55x_RELEASE_V1.0.2/MSDK/cloud/azureiot/libs/azure-iot-middleware-freertos/libraries/coreHTTP/source/dependency/3rdparty/http_parser\bench.c ****     parsed = http_parser_execute(&parser, &settings, data, data_len);
  86:C:/Users/stapi/OneDrive/Desktop/GD32VW553/V1_MQTT_OK/GD32VW55X_Wifi_BLE_SDK/GD32VW55x_RELEASE_V1.0.2/MSDK/cloud/azureiot/libs/azure-iot-middleware-freertos/libraries/coreHTTP/source/dependency/3rdparty/http_parser\bench.c ****     assert(parsed == data_len);
 120              		.loc 1 86 5 discriminator 1
 121 0030 37050000 		lui	a0,%hi(.LC1)
 122 0034 13050500 		addi	a0,a0,%lo(.LC1)
 123 0038 97000000 		call	__assert_func
 123      E7800000 
 124              	.LVL8:
 125              	.L4:
 126              	.LBE2:
  80:C:/Users/stapi/OneDrive/Desktop/GD32VW553/V1_MQTT_OK/GD32VW55X_Wifi_BLE_SDK/GD32VW55x_RELEASE_V1.0.2/MSDK/cloud/azureiot/libs/azure-iot-middleware-freertos/libraries/coreHTTP/source/dependency/3rdparty/http_parser\bench.c ****   for (i = 0; i < iter_count; i++) {
 127              		.loc 1 80 3 is_stmt 1
  80:C:/Users/stapi/OneDrive/Desktop/GD32VW553/V1_MQTT_OK/GD32VW55X_Wifi_BLE_SDK/GD32VW55x_RELEASE_V1.0.2/MSDK/cloud/azureiot/libs/azure-iot-middleware-freertos/libraries/coreHTTP/source/dependency/3rdparty/http_parser\bench.c ****   for (i = 0; i < iter_count; i++) {
 128              		.loc 1 80 11 is_stmt 0
 129 0040 37040000 		lui	s0,%hi(_impure_ptr)
 130 0044 83270400 		lw	a5,%lo(_impure_ptr)(s0)
  80:C:/Users/stapi/OneDrive/Desktop/GD32VW553/V1_MQTT_OK/GD32VW55X_Wifi_BLE_SDK/GD32VW55x_RELEASE_V1.0.2/MSDK/cloud/azureiot/libs/azure-iot-middleware-freertos/libraries/coreHTTP/source/dependency/3rdparty/http_parser\bench.c ****   for (i = 0; i < iter_count; i++) {
 131              		.loc 1 80 3
 132 0048 B7050000 		lui	a1,%hi(.LC2)
 133 004c 13066020 		li	a2,518
 134 0050 C847     		lw	a0,12(a5)
 135 0052 93850500 		addi	a1,a1,%lo(.LC2)
  81:C:/Users/stapi/OneDrive/Desktop/GD32VW553/V1_MQTT_OK/GD32VW55X_Wifi_BLE_SDK/GD32VW55x_RELEASE_V1.0.2/MSDK/cloud/azureiot/libs/azure-iot-middleware-freertos/libraries/coreHTTP/source/dependency/3rdparty/http_parser\bench.c ****     size_t parsed;
 136              		.loc 1 81 10
 137 0056 0149     		li	s2,0
  80:C:/Users/stapi/OneDrive/Desktop/GD32VW553/V1_MQTT_OK/GD32VW55X_Wifi_BLE_SDK/GD32VW55x_RELEASE_V1.0.2/MSDK/cloud/azureiot/libs/azure-iot-middleware-freertos/libraries/coreHTTP/source/dependency/3rdparty/http_parser\bench.c ****   for (i = 0; i < iter_count; i++) {
 138              		.loc 1 80 3
 139 0058 97000000 		call	fprintf
 139      E7800000 
 140              	.LVL9:
  81:C:/Users/stapi/OneDrive/Desktop/GD32VW553/V1_MQTT_OK/GD32VW55X_Wifi_BLE_SDK/GD32VW55x_RELEASE_V1.0.2/MSDK/cloud/azureiot/libs/azure-iot-middleware-freertos/libraries/coreHTTP/source/dependency/3rdparty/http_parser\bench.c ****     size_t parsed;
 141              		.loc 1 81 3 is_stmt 1
 142              	.LBB3:
  85:C:/Users/stapi/OneDrive/Desktop/GD32VW553/V1_MQTT_OK/GD32VW55X_Wifi_BLE_SDK/GD32VW55x_RELEASE_V1.0.2/MSDK/cloud/azureiot/libs/azure-iot-middleware-freertos/libraries/coreHTTP/source/dependency/3rdparty/http_parser\bench.c ****     assert(parsed == data_len);
 143              		.loc 1 85 14 is_stmt 0
 144 0060 370A0000 		lui	s4,%hi(.LANCHOR1)
 145 0064 B70A0000 		lui	s5,%hi(.LANCHOR2)
 146              	.LVL10:
 147              	.L5:
 148              	.LBE3:
  81:C:/Users/stapi/OneDrive/Desktop/GD32VW553/V1_MQTT_OK/GD32VW55X_Wifi_BLE_SDK/GD32VW55x_RELEASE_V1.0.2/MSDK/cloud/azureiot/libs/azure-iot-middleware-freertos/libraries/coreHTTP/source/dependency/3rdparty/http_parser\bench.c ****     size_t parsed;
 149              		.loc 1 81 15 is_stmt 1 discriminator 1
  81:C:/Users/stapi/OneDrive/Desktop/GD32VW553/V1_MQTT_OK/GD32VW55X_Wifi_BLE_SDK/GD32VW55x_RELEASE_V1.0.2/MSDK/cloud/azureiot/libs/azure-iot-middleware-freertos/libraries/coreHTTP/source/dependency/3rdparty/http_parser\bench.c ****     size_t parsed;
 150              		.loc 1 81 3 is_stmt 0 discriminator 1
 151 0068 63463903 		blt	s2,s3,.L7
  87:C:/Users/stapi/OneDrive/Desktop/GD32VW553/V1_MQTT_OK/GD32VW55X_Wifi_BLE_SDK/GD32VW55x_RELEASE_V1.0.2/MSDK/cloud/azureiot/libs/azure-iot-middleware-freertos/libraries/coreHTTP/source/dependency/3rdparty/http_parser\bench.c ****   }
  88:C:/Users/stapi/OneDrive/Desktop/GD32VW553/V1_MQTT_OK/GD32VW55X_Wifi_BLE_SDK/GD32VW55x_RELEASE_V1.0.2/MSDK/cloud/azureiot/libs/azure-iot-middleware-freertos/libraries/coreHTTP/source/dependency/3rdparty/http_parser\bench.c **** 
  89:C:/Users/stapi/OneDrive/Desktop/GD32VW553/V1_MQTT_OK/GD32VW55X_Wifi_BLE_SDK/GD32VW55x_RELEASE_V1.0.2/MSDK/cloud/azureiot/libs/azure-iot-middleware-freertos/libraries/coreHTTP/source/dependency/3rdparty/http_parser\bench.c ****   if (!silent) {
 152              		.loc 1 89 3 is_stmt 1
 153              		.loc 1 89 6 is_stmt 0
 154 006c 63900418 		bne	s1,zero,.L8
 155              	.LBB4:
  90:C:/Users/stapi/OneDrive/Desktop/GD32VW553/V1_MQTT_OK/GD32VW55X_Wifi_BLE_SDK/GD32VW55x_RELEASE_V1.0.2/MSDK/cloud/azureiot/libs/azure-iot-middleware-freertos/libraries/coreHTTP/source/dependency/3rdparty/http_parser\bench.c ****     double elapsed;
 156              		.loc 1 90 5 is_stmt 1
  91:C:/Users/stapi/OneDrive/Desktop/GD32VW553/V1_MQTT_OK/GD32VW55X_Wifi_BLE_SDK/GD32VW55x_RELEASE_V1.0.2/MSDK/cloud/azureiot/libs/azure-iot-middleware-freertos/libraries/coreHTTP/source/dependency/3rdparty/http_parser\bench.c ****     double bw;
 157              		.loc 1 91 5
  92:C:/Users/stapi/OneDrive/Desktop/GD32VW553/V1_MQTT_OK/GD32VW55X_Wifi_BLE_SDK/GD32VW55x_RELEASE_V1.0.2/MSDK/cloud/azureiot/libs/azure-iot-middleware-freertos/libraries/coreHTTP/source/dependency/3rdparty/http_parser\bench.c ****     double total;
 158              		.loc 1 92 5
  93:C:/Users/stapi/OneDrive/Desktop/GD32VW553/V1_MQTT_OK/GD32VW55X_Wifi_BLE_SDK/GD32VW55x_RELEASE_V1.0.2/MSDK/cloud/azureiot/libs/azure-iot-middleware-freertos/libraries/coreHTTP/source/dependency/3rdparty/http_parser\bench.c **** 
  94:C:/Users/stapi/OneDrive/Desktop/GD32VW553/V1_MQTT_OK/GD32VW55X_Wifi_BLE_SDK/GD32VW55x_RELEASE_V1.0.2/MSDK/cloud/azureiot/libs/azure-iot-middleware-freertos/libraries/coreHTTP/source/dependency/3rdparty/http_parser\bench.c ****     err = gettimeofday(&end, NULL);
 159              		.loc 1 94 5
 160              		.loc 1 94 11 is_stmt 0
 161 0070 8145     		li	a1,0
 162 0072 0810     		addi	a0,sp,32
 163 0074 97000000 		call	gettimeofday
 163      E7800000 
 164              	.LVL11:
  95:C:/Users/stapi/OneDrive/Desktop/GD32VW553/V1_MQTT_OK/GD32VW55X_Wifi_BLE_SDK/GD32VW55x_RELEASE_V1.0.2/MSDK/cloud/azureiot/libs/azure-iot-middleware-freertos/libraries/coreHTTP/source/dependency/3rdparty/http_parser\bench.c ****     assert(err == 0);
 165              		.loc 1 95 5 is_stmt 1
 166 007c 31CD     		beq	a0,zero,.L9
 167              		.loc 1 95 5 is_stmt 0 discriminator 1
 168 007e B7060000 		lui	a3,%hi(.LC0)
 169 0082 37060000 		lui	a2,%hi(.LANCHOR0)
 170 0086 93860600 		addi	a3,a3,%lo(.LC0)
 171 008a 13060600 		addi	a2,a2,%lo(.LANCHOR0)
 172 008e 9305F005 		li	a1,95
 173 0092 79BF     		j	.L14
 174              	.LVL12:
 175              	.L7:
 176              	.LBE4:
 177              	.LBB5:
  82:C:/Users/stapi/OneDrive/Desktop/GD32VW553/V1_MQTT_OK/GD32VW55X_Wifi_BLE_SDK/GD32VW55x_RELEASE_V1.0.2/MSDK/cloud/azureiot/libs/azure-iot-middleware-freertos/libraries/coreHTTP/source/dependency/3rdparty/http_parser\bench.c ****     http_parser_init(&parser, HTTP_REQUEST);
 178              		.loc 1 82 5 is_stmt 1
  83:C:/Users/stapi/OneDrive/Desktop/GD32VW553/V1_MQTT_OK/GD32VW55X_Wifi_BLE_SDK/GD32VW55x_RELEASE_V1.0.2/MSDK/cloud/azureiot/libs/azure-iot-middleware-freertos/libraries/coreHTTP/source/dependency/3rdparty/http_parser\bench.c **** 
 179              		.loc 1 83 5
 180 0094 8145     		li	a1,0
 181 0096 0818     		addi	a0,sp,48
 182 0098 97000000 		call	http_parser_init
 182      E7800000 
 183              	.LVL13:
  85:C:/Users/stapi/OneDrive/Desktop/GD32VW553/V1_MQTT_OK/GD32VW55X_Wifi_BLE_SDK/GD32VW55x_RELEASE_V1.0.2/MSDK/cloud/azureiot/libs/azure-iot-middleware-freertos/libraries/coreHTTP/source/dependency/3rdparty/http_parser\bench.c ****     assert(parsed == data_len);
 184              		.loc 1 85 5
  85:C:/Users/stapi/OneDrive/Desktop/GD32VW553/V1_MQTT_OK/GD32VW55X_Wifi_BLE_SDK/GD32VW55x_RELEASE_V1.0.2/MSDK/cloud/azureiot/libs/azure-iot-middleware-freertos/libraries/coreHTTP/source/dependency/3rdparty/http_parser\bench.c ****     assert(parsed == data_len);
 185              		.loc 1 85 14 is_stmt 0
 186 00a0 93066020 		li	a3,518
 187 00a4 13060A00 		addi	a2,s4,%lo(.LANCHOR1)
 188 00a8 93850A00 		addi	a1,s5,%lo(.LANCHOR2)
 189 00ac 0818     		addi	a0,sp,48
 190 00ae 97000000 		call	http_parser_execute
 190      E7800000 
 191              	.LVL14:
  86:C:/Users/stapi/OneDrive/Desktop/GD32VW553/V1_MQTT_OK/GD32VW55X_Wifi_BLE_SDK/GD32VW55x_RELEASE_V1.0.2/MSDK/cloud/azureiot/libs/azure-iot-middleware-freertos/libraries/coreHTTP/source/dependency/3rdparty/http_parser\bench.c ****   }
 192              		.loc 1 86 5 is_stmt 1
 193 00b6 93076020 		li	a5,518
 194 00ba 630DF500 		beq	a0,a5,.L6
  86:C:/Users/stapi/OneDrive/Desktop/GD32VW553/V1_MQTT_OK/GD32VW55X_Wifi_BLE_SDK/GD32VW55x_RELEASE_V1.0.2/MSDK/cloud/azureiot/libs/azure-iot-middleware-freertos/libraries/coreHTTP/source/dependency/3rdparty/http_parser\bench.c ****   }
 195              		.loc 1 86 5 is_stmt 0 discriminator 1
 196 00be B7060000 		lui	a3,%hi(.LC3)
 197 00c2 37060000 		lui	a2,%hi(.LANCHOR0)
 198 00c6 93860600 		addi	a3,a3,%lo(.LC3)
 199 00ca 13060600 		addi	a2,a2,%lo(.LANCHOR0)
 200 00ce 93056005 		li	a1,86
 201 00d2 B9BF     		j	.L14
 202              	.L6:
 203              	.LBE5:
  81:C:/Users/stapi/OneDrive/Desktop/GD32VW553/V1_MQTT_OK/GD32VW55X_Wifi_BLE_SDK/GD32VW55x_RELEASE_V1.0.2/MSDK/cloud/azureiot/libs/azure-iot-middleware-freertos/libraries/coreHTTP/source/dependency/3rdparty/http_parser\bench.c ****     size_t parsed;
 204              		.loc 1 81 31 is_stmt 1 discriminator 2
  81:C:/Users/stapi/OneDrive/Desktop/GD32VW553/V1_MQTT_OK/GD32VW55X_Wifi_BLE_SDK/GD32VW55x_RELEASE_V1.0.2/MSDK/cloud/azureiot/libs/azure-iot-middleware-freertos/libraries/coreHTTP/source/dependency/3rdparty/http_parser\bench.c ****     size_t parsed;
 205              		.loc 1 81 32 is_stmt 0 discriminator 2
 206 00d4 0509     		addi	s2,s2,1
 207              	.LVL15:
 208 00d6 49BF     		j	.L5
 209              	.LVL16:
 210              	.L9:
 211              	.LBB6:
  96:C:/Users/stapi/OneDrive/Desktop/GD32VW553/V1_MQTT_OK/GD32VW55X_Wifi_BLE_SDK/GD32VW55x_RELEASE_V1.0.2/MSDK/cloud/azureiot/libs/azure-iot-middleware-freertos/libraries/coreHTTP/source/dependency/3rdparty/http_parser\bench.c **** 
  97:C:/Users/stapi/OneDrive/Desktop/GD32VW553/V1_MQTT_OK/GD32VW55X_Wifi_BLE_SDK/GD32VW55x_RELEASE_V1.0.2/MSDK/cloud/azureiot/libs/azure-iot-middleware-freertos/libraries/coreHTTP/source/dependency/3rdparty/http_parser\bench.c ****     fprintf(stdout, "Benchmark result:\n");
 212              		.loc 1 97 5 is_stmt 1
 213              		.loc 1 97 13 is_stmt 0
 214 00d8 83270400 		lw	a5,%lo(_impure_ptr)(s0)
 215              		.loc 1 97 5
 216 00dc 37050000 		lui	a0,%hi(.LC4)
 217              	.LVL17:
 218 00e0 13050500 		addi	a0,a0,%lo(.LC4)
 219 00e4 8C47     		lw	a1,8(a5)
  98:C:/Users/stapi/OneDrive/Desktop/GD32VW553/V1_MQTT_OK/GD32VW55X_Wifi_BLE_SDK/GD32VW55x_RELEASE_V1.0.2/MSDK/cloud/azureiot/libs/azure-iot-middleware-freertos/libraries/coreHTTP/source/dependency/3rdparty/http_parser\bench.c **** 
  99:C:/Users/stapi/OneDrive/Desktop/GD32VW553/V1_MQTT_OK/GD32VW55X_Wifi_BLE_SDK/GD32VW55x_RELEASE_V1.0.2/MSDK/cloud/azureiot/libs/azure-iot-middleware-freertos/libraries/coreHTTP/source/dependency/3rdparty/http_parser\bench.c ****     elapsed = (double) (end.tv_sec - start.tv_sec) +
 100:C:/Users/stapi/OneDrive/Desktop/GD32VW553/V1_MQTT_OK/GD32VW55X_Wifi_BLE_SDK/GD32VW55x_RELEASE_V1.0.2/MSDK/cloud/azureiot/libs/azure-iot-middleware-freertos/libraries/coreHTTP/source/dependency/3rdparty/http_parser\bench.c ****               (end.tv_usec - start.tv_usec) * 1e-6f;
 101:C:/Users/stapi/OneDrive/Desktop/GD32VW553/V1_MQTT_OK/GD32VW55X_Wifi_BLE_SDK/GD32VW55x_RELEASE_V1.0.2/MSDK/cloud/azureiot/libs/azure-iot-middleware-freertos/libraries/coreHTTP/source/dependency/3rdparty/http_parser\bench.c **** 
 102:C:/Users/stapi/OneDrive/Desktop/GD32VW553/V1_MQTT_OK/GD32VW55X_Wifi_BLE_SDK/GD32VW55x_RELEASE_V1.0.2/MSDK/cloud/azureiot/libs/azure-iot-middleware-freertos/libraries/coreHTTP/source/dependency/3rdparty/http_parser\bench.c ****     total = (double) iter_count * data_len;
 103:C:/Users/stapi/OneDrive/Desktop/GD32VW553/V1_MQTT_OK/GD32VW55X_Wifi_BLE_SDK/GD32VW55x_RELEASE_V1.0.2/MSDK/cloud/azureiot/libs/azure-iot-middleware-freertos/libraries/coreHTTP/source/dependency/3rdparty/http_parser\bench.c ****     bw = (double) total / elapsed;
 104:C:/Users/stapi/OneDrive/Desktop/GD32VW553/V1_MQTT_OK/GD32VW55X_Wifi_BLE_SDK/GD32VW55x_RELEASE_V1.0.2/MSDK/cloud/azureiot/libs/azure-iot-middleware-freertos/libraries/coreHTTP/source/dependency/3rdparty/http_parser\bench.c **** 
 105:C:/Users/stapi/OneDrive/Desktop/GD32VW553/V1_MQTT_OK/GD32VW55X_Wifi_BLE_SDK/GD32VW55x_RELEASE_V1.0.2/MSDK/cloud/azureiot/libs/azure-iot-middleware-freertos/libraries/coreHTTP/source/dependency/3rdparty/http_parser\bench.c ****     fprintf(stdout, "%.2f mb | %.2f mb/s | %.2f req/sec | %.2f s\n",
 220              		.loc 1 105 5
 221 00e6 B70C0000 		lui	s9,%hi(.LC7)
  97:C:/Users/stapi/OneDrive/Desktop/GD32VW553/V1_MQTT_OK/GD32VW55X_Wifi_BLE_SDK/GD32VW55x_RELEASE_V1.0.2/MSDK/cloud/azureiot/libs/azure-iot-middleware-freertos/libraries/coreHTTP/source/dependency/3rdparty/http_parser\bench.c **** 
 222              		.loc 1 97 5
 223 00ea 97000000 		call	fputs
 223      E7800000 
 224              	.LVL18:
  99:C:/Users/stapi/OneDrive/Desktop/GD32VW553/V1_MQTT_OK/GD32VW55X_Wifi_BLE_SDK/GD32VW55x_RELEASE_V1.0.2/MSDK/cloud/azureiot/libs/azure-iot-middleware-freertos/libraries/coreHTTP/source/dependency/3rdparty/http_parser\bench.c ****               (end.tv_usec - start.tv_usec) * 1e-6f;
 225              		.loc 1 99 5 is_stmt 1
  99:C:/Users/stapi/OneDrive/Desktop/GD32VW553/V1_MQTT_OK/GD32VW55X_Wifi_BLE_SDK/GD32VW55x_RELEASE_V1.0.2/MSDK/cloud/azureiot/libs/azure-iot-middleware-freertos/libraries/coreHTTP/source/dependency/3rdparty/http_parser\bench.c ****               (end.tv_usec - start.tv_usec) * 1e-6f;
 226              		.loc 1 99 36 is_stmt 0
 227 00f2 8255     		lw	a1,32(sp)
 228 00f4 4245     		lw	a0,16(sp)
 229 00f6 5247     		lw	a4,20(sp)
 230 00f8 9257     		lw	a5,36(sp)
 231 00fa 3385A540 		sub	a0,a1,a0
 232 00fe B3B5A500 		sgtu	a1,a0,a1
 233 0102 998F     		sub	a5,a5,a4
  99:C:/Users/stapi/OneDrive/Desktop/GD32VW553/V1_MQTT_OK/GD32VW55X_Wifi_BLE_SDK/GD32VW55x_RELEASE_V1.0.2/MSDK/cloud/azureiot/libs/azure-iot-middleware-freertos/libraries/coreHTTP/source/dependency/3rdparty/http_parser\bench.c ****               (end.tv_usec - start.tv_usec) * 1e-6f;
 234              		.loc 1 99 15
 235 0104 B385B740 		sub	a1,a5,a1
 236 0108 97000000 		call	__floatdidf
 236      E7800000 
 237              	.LVL19:
 100:C:/Users/stapi/OneDrive/Desktop/GD32VW553/V1_MQTT_OK/GD32VW55X_Wifi_BLE_SDK/GD32VW55x_RELEASE_V1.0.2/MSDK/cloud/azureiot/libs/azure-iot-middleware-freertos/libraries/coreHTTP/source/dependency/3rdparty/http_parser\bench.c **** 
 238              		.loc 1 100 28
 239 0110 6247     		lw	a4,24(sp)
 240 0112 A257     		lw	a5,40(sp)
  99:C:/Users/stapi/OneDrive/Desktop/GD32VW553/V1_MQTT_OK/GD32VW55X_Wifi_BLE_SDK/GD32VW55x_RELEASE_V1.0.2/MSDK/cloud/azureiot/libs/azure-iot-middleware-freertos/libraries/coreHTTP/source/dependency/3rdparty/http_parser\bench.c ****               (end.tv_usec - start.tv_usec) * 1e-6f;
 241              		.loc 1 99 15
 242 0114 2A89     		mv	s2,a0
 243              	.LVL20:
 244 0116 AE84     		mv	s1,a1
 245              	.LVL21:
 100:C:/Users/stapi/OneDrive/Desktop/GD32VW553/V1_MQTT_OK/GD32VW55X_Wifi_BLE_SDK/GD32VW55x_RELEASE_V1.0.2/MSDK/cloud/azureiot/libs/azure-iot-middleware-freertos/libraries/coreHTTP/source/dependency/3rdparty/http_parser\bench.c **** 
 246              		.loc 1 100 28
 247 0118 998F     		sub	a5,a5,a4
 100:C:/Users/stapi/OneDrive/Desktop/GD32VW553/V1_MQTT_OK/GD32VW55X_Wifi_BLE_SDK/GD32VW55x_RELEASE_V1.0.2/MSDK/cloud/azureiot/libs/azure-iot-middleware-freertos/libraries/coreHTTP/source/dependency/3rdparty/http_parser\bench.c **** 
 248              		.loc 1 100 45
 249 011a 53F507D0 		fcvt.s.w	fa0,a5
 250 011e B7070000 		lui	a5,%hi(.LC5)
 251 0122 87A70700 		flw	fa5,%lo(.LC5)(a5)
 252 0126 5375F510 		fmul.s	fa0,fa0,fa5
 253 012a 97000000 		call	__extendsfdf2
 253      E7800000 
 254              	.LVL22:
 255 0132 2A86     		mv	a2,a0
 256 0134 AE86     		mv	a3,a1
  99:C:/Users/stapi/OneDrive/Desktop/GD32VW553/V1_MQTT_OK/GD32VW55X_Wifi_BLE_SDK/GD32VW55x_RELEASE_V1.0.2/MSDK/cloud/azureiot/libs/azure-iot-middleware-freertos/libraries/coreHTTP/source/dependency/3rdparty/http_parser\bench.c ****               (end.tv_usec - start.tv_usec) * 1e-6f;
 257              		.loc 1 99 13
 258 0136 4A85     		mv	a0,s2
 259 0138 A685     		mv	a1,s1
 260 013a 97000000 		call	__adddf3
 260      E7800000 
 261              	.LVL23:
 262 0142 2A89     		mv	s2,a0
 102:C:/Users/stapi/OneDrive/Desktop/GD32VW553/V1_MQTT_OK/GD32VW55X_Wifi_BLE_SDK/GD32VW55x_RELEASE_V1.0.2/MSDK/cloud/azureiot/libs/azure-iot-middleware-freertos/libraries/coreHTTP/source/dependency/3rdparty/http_parser\bench.c ****     bw = (double) total / elapsed;
 263              		.loc 1 102 13
 264 0144 4E85     		mv	a0,s3
  99:C:/Users/stapi/OneDrive/Desktop/GD32VW553/V1_MQTT_OK/GD32VW55X_Wifi_BLE_SDK/GD32VW55x_RELEASE_V1.0.2/MSDK/cloud/azureiot/libs/azure-iot-middleware-freertos/libraries/coreHTTP/source/dependency/3rdparty/http_parser\bench.c ****               (end.tv_usec - start.tv_usec) * 1e-6f;
 265              		.loc 1 99 13
 266 0146 AE84     		mv	s1,a1
 267              	.LVL24:
 102:C:/Users/stapi/OneDrive/Desktop/GD32VW553/V1_MQTT_OK/GD32VW55X_Wifi_BLE_SDK/GD32VW55x_RELEASE_V1.0.2/MSDK/cloud/azureiot/libs/azure-iot-middleware-freertos/libraries/coreHTTP/source/dependency/3rdparty/http_parser\bench.c ****     bw = (double) total / elapsed;
 268              		.loc 1 102 5 is_stmt 1
 102:C:/Users/stapi/OneDrive/Desktop/GD32VW553/V1_MQTT_OK/GD32VW55X_Wifi_BLE_SDK/GD32VW55x_RELEASE_V1.0.2/MSDK/cloud/azureiot/libs/azure-iot-middleware-freertos/libraries/coreHTTP/source/dependency/3rdparty/http_parser\bench.c ****     bw = (double) total / elapsed;
 269              		.loc 1 102 13 is_stmt 0
 270 0148 97000000 		call	__floatsidf
 270      E7800000 
 271              	.LVL25:
 102:C:/Users/stapi/OneDrive/Desktop/GD32VW553/V1_MQTT_OK/GD32VW55X_Wifi_BLE_SDK/GD32VW55x_RELEASE_V1.0.2/MSDK/cloud/azureiot/libs/azure-iot-middleware-freertos/libraries/coreHTTP/source/dependency/3rdparty/http_parser\bench.c ****     bw = (double) total / elapsed;
 272              		.loc 1 102 11
 273 0150 B7070000 		lui	a5,%hi(.LC6)
 274 0154 03A60700 		lw	a2,%lo(.LC6)(a5)
 275 0158 83A64700 		lw	a3,%lo(.LC6+4)(a5)
 102:C:/Users/stapi/OneDrive/Desktop/GD32VW553/V1_MQTT_OK/GD32VW55X_Wifi_BLE_SDK/GD32VW55x_RELEASE_V1.0.2/MSDK/cloud/azureiot/libs/azure-iot-middleware-freertos/libraries/coreHTTP/source/dependency/3rdparty/http_parser\bench.c ****     bw = (double) total / elapsed;
 276              		.loc 1 102 13
 277 015c 2A8B     		mv	s6,a0
 278 015e AE8A     		mv	s5,a1
 102:C:/Users/stapi/OneDrive/Desktop/GD32VW553/V1_MQTT_OK/GD32VW55X_Wifi_BLE_SDK/GD32VW55x_RELEASE_V1.0.2/MSDK/cloud/azureiot/libs/azure-iot-middleware-freertos/libraries/coreHTTP/source/dependency/3rdparty/http_parser\bench.c ****     bw = (double) total / elapsed;
 279              		.loc 1 102 11
 280 0160 97000000 		call	__muldf3
 280      E7800000 
 281              	.LVL26:
 282 0168 2A8A     		mv	s4,a0
 283 016a AE89     		mv	s3,a1
 284              	.LVL27:
 103:C:/Users/stapi/OneDrive/Desktop/GD32VW553/V1_MQTT_OK/GD32VW55X_Wifi_BLE_SDK/GD32VW55x_RELEASE_V1.0.2/MSDK/cloud/azureiot/libs/azure-iot-middleware-freertos/libraries/coreHTTP/source/dependency/3rdparty/http_parser\bench.c **** 
 285              		.loc 1 103 5 is_stmt 1
 286              		.loc 1 105 5
 287 016c 4A86     		mv	a2,s2
 288 016e A686     		mv	a3,s1
 289 0170 5A85     		mv	a0,s6
 290              	.LVL28:
 291 0172 D685     		mv	a1,s5
 292              	.LVL29:
 293 0174 97000000 		call	__divdf3
 293      E7800000 
 294              	.LVL30:
 295 017c 2A8C     		mv	s8,a0
 296 017e AE8B     		mv	s7,a1
 103:C:/Users/stapi/OneDrive/Desktop/GD32VW553/V1_MQTT_OK/GD32VW55X_Wifi_BLE_SDK/GD32VW55x_RELEASE_V1.0.2/MSDK/cloud/azureiot/libs/azure-iot-middleware-freertos/libraries/coreHTTP/source/dependency/3rdparty/http_parser\bench.c **** 
 297              		.loc 1 103 8 is_stmt 0
 298 0180 4A86     		mv	a2,s2
 299 0182 A686     		mv	a3,s1
 300 0184 5285     		mv	a0,s4
 301 0186 CE85     		mv	a1,s3
 302 0188 97000000 		call	__divdf3
 302      E7800000 
 303              	.LVL31:
 304              		.loc 1 105 5
 305 0190 03A60C00 		lw	a2,%lo(.LC7)(s9)
 306 0194 83A64C00 		lw	a3,%lo(.LC7+4)(s9)
 307 0198 97000000 		call	__muldf3
 307      E7800000 
 308              	.LVL32:
 309 01a0 03A60C00 		lw	a2,%lo(.LC7)(s9)
 310 01a4 83A64C00 		lw	a3,%lo(.LC7+4)(s9)
 311 01a8 2A8B     		mv	s6,a0
 312 01aa AE8A     		mv	s5,a1
 313 01ac 5285     		mv	a0,s4
 314 01ae CE85     		mv	a1,s3
 315 01b0 97000000 		call	__muldf3
 315      E7800000 
 316              	.LVL33:
 317              		.loc 1 105 13
 318 01b8 83270400 		lw	a5,%lo(_impure_ptr)(s0)
 319              		.loc 1 105 5
 320 01bc 2A86     		mv	a2,a0
 321 01be AE86     		mv	a3,a1
 322 01c0 8847     		lw	a0,8(a5)
 323 01c2 B7050000 		lui	a1,%hi(.LC8)
 324 01c6 D687     		mv	a5,s5
 325 01c8 4AC0     		sw	s2,0(sp)
 326 01ca 26C2     		sw	s1,4(sp)
 327 01cc 6288     		mv	a6,s8
 328 01ce DE88     		mv	a7,s7
 329 01d0 5A87     		mv	a4,s6
 330 01d2 93850500 		addi	a1,a1,%lo(.LC8)
 331 01d6 97000000 		call	fprintf
 331      E7800000 
 332              	.LVL34:
 106:C:/Users/stapi/OneDrive/Desktop/GD32VW553/V1_MQTT_OK/GD32VW55X_Wifi_BLE_SDK/GD32VW55x_RELEASE_V1.0.2/MSDK/cloud/azureiot/libs/azure-iot-middleware-freertos/libraries/coreHTTP/source/dependency/3rdparty/http_parser\bench.c ****         (double) total / (1024 * 1024),
 107:C:/Users/stapi/OneDrive/Desktop/GD32VW553/V1_MQTT_OK/GD32VW55X_Wifi_BLE_SDK/GD32VW55x_RELEASE_V1.0.2/MSDK/cloud/azureiot/libs/azure-iot-middleware-freertos/libraries/coreHTTP/source/dependency/3rdparty/http_parser\bench.c ****         bw / (1024 * 1024),
 108:C:/Users/stapi/OneDrive/Desktop/GD32VW553/V1_MQTT_OK/GD32VW55X_Wifi_BLE_SDK/GD32VW55x_RELEASE_V1.0.2/MSDK/cloud/azureiot/libs/azure-iot-middleware-freertos/libraries/coreHTTP/source/dependency/3rdparty/http_parser\bench.c ****         (double) iter_count / elapsed,
 109:C:/Users/stapi/OneDrive/Desktop/GD32VW553/V1_MQTT_OK/GD32VW55X_Wifi_BLE_SDK/GD32VW55x_RELEASE_V1.0.2/MSDK/cloud/azureiot/libs/azure-iot-middleware-freertos/libraries/coreHTTP/source/dependency/3rdparty/http_parser\bench.c ****         elapsed);
 110:C:/Users/stapi/OneDrive/Desktop/GD32VW553/V1_MQTT_OK/GD32VW55X_Wifi_BLE_SDK/GD32VW55x_RELEASE_V1.0.2/MSDK/cloud/azureiot/libs/azure-iot-middleware-freertos/libraries/coreHTTP/source/dependency/3rdparty/http_parser\bench.c **** 
 111:C:/Users/stapi/OneDrive/Desktop/GD32VW553/V1_MQTT_OK/GD32VW55X_Wifi_BLE_SDK/GD32VW55x_RELEASE_V1.0.2/MSDK/cloud/azureiot/libs/azure-iot-middleware-freertos/libraries/coreHTTP/source/dependency/3rdparty/http_parser\bench.c ****     fflush(stdout);
 333              		.loc 1 111 5 is_stmt 1
 334              		.loc 1 111 12 is_stmt 0
 335 01de 83270400 		lw	a5,%lo(_impure_ptr)(s0)
 336              		.loc 1 111 5
 337 01e2 8847     		lw	a0,8(a5)
 338 01e4 97000000 		call	fflush
 338      E7800000 
 339              	.LVL35:
 340              	.L8:
 341              	.LBE6:
 112:C:/Users/stapi/OneDrive/Desktop/GD32VW553/V1_MQTT_OK/GD32VW55X_Wifi_BLE_SDK/GD32VW55x_RELEASE_V1.0.2/MSDK/cloud/azureiot/libs/azure-iot-middleware-freertos/libraries/coreHTTP/source/dependency/3rdparty/http_parser\bench.c ****   }
 113:C:/Users/stapi/OneDrive/Desktop/GD32VW553/V1_MQTT_OK/GD32VW55X_Wifi_BLE_SDK/GD32VW55x_RELEASE_V1.0.2/MSDK/cloud/azureiot/libs/azure-iot-middleware-freertos/libraries/coreHTTP/source/dependency/3rdparty/http_parser\bench.c **** 
 114:C:/Users/stapi/OneDrive/Desktop/GD32VW553/V1_MQTT_OK/GD32VW55X_Wifi_BLE_SDK/GD32VW55x_RELEASE_V1.0.2/MSDK/cloud/azureiot/libs/azure-iot-middleware-freertos/libraries/coreHTTP/source/dependency/3rdparty/http_parser\bench.c ****   return 0;
 342              		.loc 1 114 3 is_stmt 1
 115:C:/Users/stapi/OneDrive/Desktop/GD32VW553/V1_MQTT_OK/GD32VW55X_Wifi_BLE_SDK/GD32VW55x_RELEASE_V1.0.2/MSDK/cloud/azureiot/libs/azure-iot-middleware-freertos/libraries/coreHTTP/source/dependency/3rdparty/http_parser\bench.c **** }
 343              		.loc 1 115 1 is_stmt 0
 344 01ec 0145     		li	a0,0
 345 01ee 6161     		addi	sp,sp,80
 346              		.cfi_def_cfa_offset 0
 347 01f0 17030000 		tail	__riscv_restore_10
 347      67000300 
 348              		.cfi_restore 25
 349              		.cfi_restore 24
 350              		.cfi_restore 23
 351              		.cfi_restore 22
 352              		.cfi_restore 21
 353              		.cfi_restore 20
 354              		.cfi_restore 19
 355              		.cfi_restore 18
 356              		.cfi_restore 9
 357              		.cfi_restore 8
 358              		.cfi_restore 1
 359              		.cfi_def_cfa_offset -48
 360              		.cfi_endproc
 361              	.LFE6:
 363              		.section	.rodata.main.str1.4,"aMS",@progbits,1
 364              		.align	2
 365              	.LC9:
 366 0000 696E6669 		.string	"infinite"
 366      6E697465 
 366      00
 367              		.section	.text.startup.main,"ax",@progbits
 368              		.align	1
 369              		.globl	main
 371              	main:
 372              	.LFB7:
 116:C:/Users/stapi/OneDrive/Desktop/GD32VW553/V1_MQTT_OK/GD32VW55X_Wifi_BLE_SDK/GD32VW55x_RELEASE_V1.0.2/MSDK/cloud/azureiot/libs/azure-iot-middleware-freertos/libraries/coreHTTP/source/dependency/3rdparty/http_parser\bench.c **** 
 117:C:/Users/stapi/OneDrive/Desktop/GD32VW553/V1_MQTT_OK/GD32VW55X_Wifi_BLE_SDK/GD32VW55x_RELEASE_V1.0.2/MSDK/cloud/azureiot/libs/azure-iot-middleware-freertos/libraries/coreHTTP/source/dependency/3rdparty/http_parser\bench.c **** int main(int argc, char** argv) {
 373              		.loc 1 117 33 is_stmt 1
 374              		.cfi_startproc
 375              	.LVL36:
 376 0000 17030000 		call	t0,__riscv_save_1
 376      E7020300 
 377              		.cfi_offset 8, -8
 378              		.cfi_offset 1, -4
 379              		.cfi_def_cfa_offset 16
 118:C:/Users/stapi/OneDrive/Desktop/GD32VW553/V1_MQTT_OK/GD32VW55X_Wifi_BLE_SDK/GD32VW55x_RELEASE_V1.0.2/MSDK/cloud/azureiot/libs/azure-iot-middleware-freertos/libraries/coreHTTP/source/dependency/3rdparty/http_parser\bench.c ****   int64_t iterations;
 380              		.loc 1 118 3
 119:C:/Users/stapi/OneDrive/Desktop/GD32VW553/V1_MQTT_OK/GD32VW55X_Wifi_BLE_SDK/GD32VW55x_RELEASE_V1.0.2/MSDK/cloud/azureiot/libs/azure-iot-middleware-freertos/libraries/coreHTTP/source/dependency/3rdparty/http_parser\bench.c **** 
 120:C:/Users/stapi/OneDrive/Desktop/GD32VW553/V1_MQTT_OK/GD32VW55X_Wifi_BLE_SDK/GD32VW55x_RELEASE_V1.0.2/MSDK/cloud/azureiot/libs/azure-iot-middleware-freertos/libraries/coreHTTP/source/dependency/3rdparty/http_parser\bench.c ****   iterations = kBytes / (int64_t) data_len;
 381              		.loc 1 120 3
 382              	.LVL37:
 121:C:/Users/stapi/OneDrive/Desktop/GD32VW553/V1_MQTT_OK/GD32VW55X_Wifi_BLE_SDK/GD32VW55x_RELEASE_V1.0.2/MSDK/cloud/azureiot/libs/azure-iot-middleware-freertos/libraries/coreHTTP/source/dependency/3rdparty/http_parser\bench.c ****   if (argc == 2 && strcmp(argv[1], "infinite") == 0) {
 383              		.loc 1 121 3
 384              		.loc 1 121 6 is_stmt 0
 385 0008 0947     		li	a4,2
 386 000a 6318E502 		bne	a0,a4,.L16
 387 000e AE87     		mv	a5,a1
 388              		.loc 1 121 20 discriminator 1
 389 0010 C843     		lw	a0,4(a5)
 390              	.LVL38:
 391 0012 B7050000 		lui	a1,%hi(.LC9)
 392              	.LVL39:
 393 0016 93850500 		addi	a1,a1,%lo(.LC9)
 394 001a 97000000 		call	strcmp
 394      E7800000 
 395              	.LVL40:
 396              		.loc 1 121 17 discriminator 1
 397 0022 01ED     		bne	a0,zero,.L16
 122:C:/Users/stapi/OneDrive/Desktop/GD32VW553/V1_MQTT_OK/GD32VW55X_Wifi_BLE_SDK/GD32VW55x_RELEASE_V1.0.2/MSDK/cloud/azureiot/libs/azure-iot-middleware-freertos/libraries/coreHTTP/source/dependency/3rdparty/http_parser\bench.c ****     for (;;)
 123:C:/Users/stapi/OneDrive/Desktop/GD32VW553/V1_MQTT_OK/GD32VW55X_Wifi_BLE_SDK/GD32VW55x_RELEASE_V1.0.2/MSDK/cloud/azureiot/libs/azure-iot-middleware-freertos/libraries/coreHTTP/source/dependency/3rdparty/http_parser\bench.c ****       bench(iterations, 1);
 398              		.loc 1 123 7
 399 0024 3714FD00 		li	s0,16584704
 400 0028 1304548E 		addi	s0,s0,-1819
 401              	.L17:
 122:C:/Users/stapi/OneDrive/Desktop/GD32VW553/V1_MQTT_OK/GD32VW55X_Wifi_BLE_SDK/GD32VW55x_RELEASE_V1.0.2/MSDK/cloud/azureiot/libs/azure-iot-middleware-freertos/libraries/coreHTTP/source/dependency/3rdparty/http_parser\bench.c ****     for (;;)
 402              		.loc 1 122 5 is_stmt 1 discriminator 1
 403              		.loc 1 123 7 discriminator 1
 404 002c 8545     		li	a1,1
 405 002e 2285     		mv	a0,s0
 406 0030 97000000 		call	bench
 406      E7800000 
 407              	.LVL41:
 122:C:/Users/stapi/OneDrive/Desktop/GD32VW553/V1_MQTT_OK/GD32VW55X_Wifi_BLE_SDK/GD32VW55x_RELEASE_V1.0.2/MSDK/cloud/azureiot/libs/azure-iot-middleware-freertos/libraries/coreHTTP/source/dependency/3rdparty/http_parser\bench.c ****     for (;;)
 408              		.loc 1 122 11 discriminator 1
 409 0038 D5BF     		j	.L17
 410              	.L16:
 124:C:/Users/stapi/OneDrive/Desktop/GD32VW553/V1_MQTT_OK/GD32VW55X_Wifi_BLE_SDK/GD32VW55x_RELEASE_V1.0.2/MSDK/cloud/azureiot/libs/azure-iot-middleware-freertos/libraries/coreHTTP/source/dependency/3rdparty/http_parser\bench.c ****     return 0;
 125:C:/Users/stapi/OneDrive/Desktop/GD32VW553/V1_MQTT_OK/GD32VW55X_Wifi_BLE_SDK/GD32VW55x_RELEASE_V1.0.2/MSDK/cloud/azureiot/libs/azure-iot-middleware-freertos/libraries/coreHTTP/source/dependency/3rdparty/http_parser\bench.c ****   } else {
 126:C:/Users/stapi/OneDrive/Desktop/GD32VW553/V1_MQTT_OK/GD32VW55X_Wifi_BLE_SDK/GD32VW55x_RELEASE_V1.0.2/MSDK/cloud/azureiot/libs/azure-iot-middleware-freertos/libraries/coreHTTP/source/dependency/3rdparty/http_parser\bench.c ****     return bench(iterations, 0);
 411              		.loc 1 126 5
 412              		.loc 1 126 12 is_stmt 0
 413 003a 3715FD00 		li	a0,16584704
 414 003e 8145     		li	a1,0
 415 0040 1305558E 		addi	a0,a0,-1819
 416 0044 97000000 		call	bench
 416      E7800000 
 417              	.LVL42:
 127:C:/Users/stapi/OneDrive/Desktop/GD32VW553/V1_MQTT_OK/GD32VW55X_Wifi_BLE_SDK/GD32VW55x_RELEASE_V1.0.2/MSDK/cloud/azureiot/libs/azure-iot-middleware-freertos/libraries/coreHTTP/source/dependency/3rdparty/http_parser\bench.c ****   }
 128:C:/Users/stapi/OneDrive/Desktop/GD32VW553/V1_MQTT_OK/GD32VW55X_Wifi_BLE_SDK/GD32VW55x_RELEASE_V1.0.2/MSDK/cloud/azureiot/libs/azure-iot-middleware-freertos/libraries/coreHTTP/source/dependency/3rdparty/http_parser\bench.c **** }
 418              		.loc 1 128 1
 419 004c 17030000 		tail	__riscv_restore_1
 419      67000300 
 420              		.cfi_restore 8
 421              		.cfi_restore 1
 422              		.cfi_def_cfa_offset 0
 423              		.cfi_endproc
 424              	.LFE7:
 426              		.section	.srodata.cst4,"aM",@progbits,4
 427              		.align	2
 428              	.LC5:
 429 0000 BD378635 		.word	897988541
 430              		.section	.srodata.cst8,"aM",@progbits,8
 431              		.align	3
 432              	.LC6:
 433 0000 00000000 		.word	0
 434 0004 00308040 		.word	1082142720
 435              		.align	3
 436              	.LC7:
 437 0008 00000000 		.word	0
 438 000c 0000B03E 		.word	1051721728
 439              		.section	.data.settings,"aw"
 440              		.align	2
 441              		.set	.LANCHOR2,. + 0
 444              	settings:
 445 0000 00000000 		.word	on_info
 446 0004 00000000 		.word	on_data
 447 0008 00000000 		.word	on_data
 448 000c 00000000 		.word	on_data
 449 0010 00000000 		.word	on_data
 450 0014 00000000 		.word	on_info
 451 0018 00000000 		.word	on_data
 452 001c 00000000 		.word	on_info
 453 0020 00000000 		.zero	8
 453      00000000 
 454              		.section	.rodata.data,"a"
 455              		.align	2
 456              		.set	.LANCHOR1,. + 0
 459              	data:
 460 0000 504F5354 		.ascii	"POST /joyent/http-parser HTTP/1.1\r\nHost: github.com\r\nDNT"
 460      202F6A6F 
 460      79656E74 
 460      2F687474 
 460      702D7061 
 461 0038 3A20310D 		.ascii	": 1\r\nAccept-Encoding: gzip, deflate, sdch\r\nAccept-Langua"
 461      0A416363 
 461      6570742D 
 461      456E636F 
 461      64696E67 
 462 0070 67653A20 		.ascii	"ge: ru-RU,ru;q=0.8,en-US;q=0.6,en;q=0.4\r\nUser-Agent: Mozil"
 462      72752D52 
 462      552C7275 
 462      3B713D30 
 462      2E382C65 
 463 00aa 6C612F35 		.ascii	"la/5.0 (Macintosh; Intel Mac OS X 10_10_1) AppleWebKit/537.3"
 463      2E302028 
 463      4D616369 
 463      6E746F73 
 463      683B2049 
 464 00e6 3620284B 		.ascii	"6 (KHTML, like Gecko) Chrome/39."
 464      48544D4C 
 464      2C206C69 
 464      6B652047 
 464      65636B6F 
 465 0106 302E3231 		.string	"0.2171.65 Safari/537.36\r\nAccept: text/html,application/xhtml+xml,application/xml;q=0.9,
 465      37312E36 
 465      35205361 
 465      66617269 
 465      2F353337 
 466              		.section	.srodata.__func__.0,"a"
 467              		.align	2
 468              		.set	.LANCHOR0,. + 0
 471              	__func__.0:
 472 0000 62656E63 		.string	"bench"
 472      6800
 473              		.text
 474              	.Letext0:
 475              		.file 2 "c:\\users\\stapi\\onedrive\\desktop\\gd32vw553\\embeddedbuilder_v1.4.7.26843\\tools\\nucl
 476              		.file 3 "c:\\users\\stapi\\onedrive\\desktop\\gd32vw553\\embeddedbuilder_v1.4.7.26843\\tools\\nucl
 477              		.file 4 "c:\\users\\stapi\\onedrive\\desktop\\gd32vw553\\embeddedbuilder_v1.4.7.26843\\tools\\nucl
 478              		.file 5 "C:/Users/stapi/OneDrive/Desktop/GD32VW553/V1_MQTT_OK/GD32VW55X_Wifi_BLE_SDK/GD32VW55x_REL
 479              		.file 6 "c:\\users\\stapi\\onedrive\\desktop\\gd32vw553\\embeddedbuilder_v1.4.7.26843\\tools\\nucl
 480              		.file 7 "c:\\users\\stapi\\onedrive\\desktop\\gd32vw553\\embeddedbuilder_v1.4.7.26843\\tools\\nucl
 481              		.file 8 "c:\\users\\stapi\\onedrive\\desktop\\gd32vw553\\embeddedbuilder_v1.4.7.26843\\tools\\nucl
 482              		.file 9 "c:\\users\\stapi\\onedrive\\desktop\\gd32vw553\\embeddedbuilder_v1.4.7.26843\\tools\\nucl
 483              		.file 10 "c:\\users\\stapi\\onedrive\\desktop\\gd32vw553\\embeddedbuilder_v1.4.7.26843\\tools\\nuc
 484              		.file 11 "c:\\users\\stapi\\onedrive\\desktop\\gd32vw553\\embeddedbuilder_v1.4.7.26843\\tools\\nuc
 485              		.file 12 "c:\\users\\stapi\\onedrive\\desktop\\gd32vw553\\embeddedbuilder_v1.4.7.26843\\tools\\nuc
 486              		.file 13 "c:\\users\\stapi\\onedrive\\desktop\\gd32vw553\\embeddedbuilder_v1.4.7.26843\\tools\\nuc
 487              		.file 14 "c:\\users\\stapi\\onedrive\\desktop\\gd32vw553\\embeddedbuilder_v1.4.7.26843\\tools\\nuc
 488              		.file 15 "<built-in>"
DEFINED SYMBOLS
                            *ABS*:0000000000000000 bench.c
C:\Users\stapi\AppData\Local\Temp\cclMZBuF.s:12     .text.on_info:0000000000000000 on_info
C:\Users\stapi\AppData\Local\Temp\cclMZBuF.s:16     .text.on_info:0000000000000000 .L0 
C:\Users\stapi\AppData\Local\Temp\cclMZBuF.s:18     .text.on_info:0000000000000000 .L0 
C:\Users\stapi\AppData\Local\Temp\cclMZBuF.s:19     .text.on_info:0000000000000000 .L0 
C:\Users\stapi\AppData\Local\Temp\cclMZBuF.s:20     .text.on_info:0000000000000000 .L0 
C:\Users\stapi\AppData\Local\Temp\cclMZBuF.s:23     .text.on_info:0000000000000004 .L0 
C:\Users\stapi\AppData\Local\Temp\cclMZBuF.s:29     .text.on_data:0000000000000000 on_data
C:\Users\stapi\AppData\Local\Temp\cclMZBuF.s:32     .text.on_data:0000000000000000 .L0 
C:\Users\stapi\AppData\Local\Temp\cclMZBuF.s:34     .text.on_data:0000000000000000 .L0 
C:\Users\stapi\AppData\Local\Temp\cclMZBuF.s:35     .text.on_data:0000000000000000 .L0 
C:\Users\stapi\AppData\Local\Temp\cclMZBuF.s:36     .text.on_data:0000000000000000 .L0 
C:\Users\stapi\AppData\Local\Temp\cclMZBuF.s:39     .text.on_data:0000000000000004 .L0 
C:\Users\stapi\AppData\Local\Temp\cclMZBuF.s:71     .text.bench:0000000000000000 bench
C:\Users\stapi\AppData\Local\Temp\cclMZBuF.s:74     .text.bench:0000000000000000 .L0 
C:\Users\stapi\AppData\Local\Temp\cclMZBuF.s:76     .text.bench:0000000000000000 .L0 
C:\Users\stapi\AppData\Local\Temp\cclMZBuF.s:77     .text.bench:0000000000000008 .L0 
C:\Users\stapi\AppData\Local\Temp\cclMZBuF.s:78     .text.bench:0000000000000008 .L0 
C:\Users\stapi\AppData\Local\Temp\cclMZBuF.s:79     .text.bench:0000000000000008 .L0 
C:\Users\stapi\AppData\Local\Temp\cclMZBuF.s:80     .text.bench:0000000000000008 .L0 
C:\Users\stapi\AppData\Local\Temp\cclMZBuF.s:81     .text.bench:0000000000000008 .L0 
C:\Users\stapi\AppData\Local\Temp\cclMZBuF.s:82     .text.bench:0000000000000008 .L0 
C:\Users\stapi\AppData\Local\Temp\cclMZBuF.s:83     .text.bench:0000000000000008 .L0 
C:\Users\stapi\AppData\Local\Temp\cclMZBuF.s:84     .text.bench:0000000000000008 .L0 
C:\Users\stapi\AppData\Local\Temp\cclMZBuF.s:85     .text.bench:0000000000000008 .L0 
C:\Users\stapi\AppData\Local\Temp\cclMZBuF.s:86     .text.bench:0000000000000008 .L0 
C:\Users\stapi\AppData\Local\Temp\cclMZBuF.s:87     .text.bench:0000000000000008 .L0 
C:\Users\stapi\AppData\Local\Temp\cclMZBuF.s:88     .text.bench:0000000000000008 .L0 
C:\Users\stapi\AppData\Local\Temp\cclMZBuF.s:90     .text.bench:0000000000000008 .L0 
C:\Users\stapi\AppData\Local\Temp\cclMZBuF.s:91     .text.bench:0000000000000008 .L0 
C:\Users\stapi\AppData\Local\Temp\cclMZBuF.s:92     .text.bench:0000000000000008 .L0 
C:\Users\stapi\AppData\Local\Temp\cclMZBuF.s:93     .text.bench:0000000000000008 .L0 
C:\Users\stapi\AppData\Local\Temp\cclMZBuF.s:94     .text.bench:0000000000000008 .L0 
C:\Users\stapi\AppData\Local\Temp\cclMZBuF.s:95     .text.bench:0000000000000008 .L0 
C:\Users\stapi\AppData\Local\Temp\cclMZBuF.s:96     .text.bench:0000000000000008 .L0 
C:\Users\stapi\AppData\Local\Temp\cclMZBuF.s:97     .text.bench:000000000000000a .L0 
C:\Users\stapi\AppData\Local\Temp\cclMZBuF.s:99     .text.bench:000000000000000a .L0 
C:\Users\stapi\AppData\Local\Temp\cclMZBuF.s:102    .text.bench:000000000000000e .L0 
C:\Users\stapi\AppData\Local\Temp\cclMZBuF.s:104    .text.bench:0000000000000010 .L0 
C:\Users\stapi\AppData\Local\Temp\cclMZBuF.s:105    .text.bench:0000000000000010 .L0 
C:\Users\stapi\AppData\Local\Temp\cclMZBuF.s:110    .text.bench:000000000000001a .L0 
C:\Users\stapi\AppData\Local\Temp\cclMZBuF.s:112    .text.bench:000000000000001c .L0 
C:\Users\stapi\AppData\Local\Temp\cclMZBuF.s:121    .text.bench:0000000000000030 .L0 
C:\Users\stapi\AppData\Local\Temp\cclMZBuF.s:128    .text.bench:0000000000000040 .L0 
C:\Users\stapi\AppData\Local\Temp\cclMZBuF.s:129    .text.bench:0000000000000040 .L0 
C:\Users\stapi\AppData\Local\Temp\cclMZBuF.s:132    .text.bench:0000000000000048 .L0 
C:\Users\stapi\AppData\Local\Temp\cclMZBuF.s:137    .text.bench:0000000000000056 .L0 
C:\Users\stapi\AppData\Local\Temp\cclMZBuF.s:139    .text.bench:0000000000000058 .L0 
C:\Users\stapi\AppData\Local\Temp\cclMZBuF.s:143    .text.bench:0000000000000060 .L0 
C:\Users\stapi\AppData\Local\Temp\cclMZBuF.s:144    .text.bench:0000000000000060 .L0 
C:\Users\stapi\AppData\Local\Temp\cclMZBuF.s:150    .text.bench:0000000000000068 .L0 
C:\Users\stapi\AppData\Local\Temp\cclMZBuF.s:151    .text.bench:0000000000000068 .L0 
C:\Users\stapi\AppData\Local\Temp\cclMZBuF.s:153    .text.bench:000000000000006c .L0 
C:\Users\stapi\AppData\Local\Temp\cclMZBuF.s:154    .text.bench:000000000000006c .L0 
C:\Users\stapi\AppData\Local\Temp\cclMZBuF.s:157    .text.bench:0000000000000070 .L0 
C:\Users\stapi\AppData\Local\Temp\cclMZBuF.s:158    .text.bench:0000000000000070 .L0 
C:\Users\stapi\AppData\Local\Temp\cclMZBuF.s:159    .text.bench:0000000000000070 .L0 
C:\Users\stapi\AppData\Local\Temp\cclMZBuF.s:160    .text.bench:0000000000000070 .L0 
C:\Users\stapi\AppData\Local\Temp\cclMZBuF.s:161    .text.bench:0000000000000070 .L0 
C:\Users\stapi\AppData\Local\Temp\cclMZBuF.s:166    .text.bench:000000000000007c .L0 
C:\Users\stapi\AppData\Local\Temp\cclMZBuF.s:168    .text.bench:000000000000007e .L0 
C:\Users\stapi\AppData\Local\Temp\cclMZBuF.s:179    .text.bench:0000000000000094 .L0 
C:\Users\stapi\AppData\Local\Temp\cclMZBuF.s:180    .text.bench:0000000000000094 .L0 
C:\Users\stapi\AppData\Local\Temp\cclMZBuF.s:185    .text.bench:00000000000000a0 .L0 
C:\Users\stapi\AppData\Local\Temp\cclMZBuF.s:186    .text.bench:00000000000000a0 .L0 
C:\Users\stapi\AppData\Local\Temp\cclMZBuF.s:193    .text.bench:00000000000000b6 .L0 
C:\Users\stapi\AppData\Local\Temp\cclMZBuF.s:196    .text.bench:00000000000000be .L0 
C:\Users\stapi\AppData\Local\Temp\cclMZBuF.s:205    .text.bench:00000000000000d4 .L0 
C:\Users\stapi\AppData\Local\Temp\cclMZBuF.s:206    .text.bench:00000000000000d4 .L0 
C:\Users\stapi\AppData\Local\Temp\cclMZBuF.s:213    .text.bench:00000000000000d8 .L0 
C:\Users\stapi\AppData\Local\Temp\cclMZBuF.s:214    .text.bench:00000000000000d8 .L0 
C:\Users\stapi\AppData\Local\Temp\cclMZBuF.s:216    .text.bench:00000000000000dc .L0 
C:\Users\stapi\AppData\Local\Temp\cclMZBuF.s:221    .text.bench:00000000000000e6 .L0 
C:\Users\stapi\AppData\Local\Temp\cclMZBuF.s:223    .text.bench:00000000000000ea .L0 
C:\Users\stapi\AppData\Local\Temp\cclMZBuF.s:226    .text.bench:00000000000000f2 .L0 
C:\Users\stapi\AppData\Local\Temp\cclMZBuF.s:227    .text.bench:00000000000000f2 .L0 
C:\Users\stapi\AppData\Local\Temp\cclMZBuF.s:235    .text.bench:0000000000000104 .L0 
C:\Users\stapi\AppData\Local\Temp\cclMZBuF.s:239    .text.bench:0000000000000110 .L0 
C:\Users\stapi\AppData\Local\Temp\cclMZBuF.s:242    .text.bench:0000000000000114 .L0 
C:\Users\stapi\AppData\Local\Temp\cclMZBuF.s:247    .text.bench:0000000000000118 .L0 
C:\Users\stapi\AppData\Local\Temp\cclMZBuF.s:249    .text.bench:000000000000011a .L0 
C:\Users\stapi\AppData\Local\Temp\cclMZBuF.s:258    .text.bench:0000000000000136 .L0 
C:\Users\stapi\AppData\Local\Temp\cclMZBuF.s:264    .text.bench:0000000000000144 .L0 
C:\Users\stapi\AppData\Local\Temp\cclMZBuF.s:266    .text.bench:0000000000000146 .L0 
C:\Users\stapi\AppData\Local\Temp\cclMZBuF.s:269    .text.bench:0000000000000148 .L0 
C:\Users\stapi\AppData\Local\Temp\cclMZBuF.s:270    .text.bench:0000000000000148 .L0 
C:\Users\stapi\AppData\Local\Temp\cclMZBuF.s:273    .text.bench:0000000000000150 .L0 
C:\Users\stapi\AppData\Local\Temp\cclMZBuF.s:277    .text.bench:000000000000015c .L0 
C:\Users\stapi\AppData\Local\Temp\cclMZBuF.s:280    .text.bench:0000000000000160 .L0 
C:\Users\stapi\AppData\Local\Temp\cclMZBuF.s:286    .text.bench:000000000000016c .L0 
C:\Users\stapi\AppData\Local\Temp\cclMZBuF.s:287    .text.bench:000000000000016c .L0 
C:\Users\stapi\AppData\Local\Temp\cclMZBuF.s:298    .text.bench:0000000000000180 .L0 
C:\Users\stapi\AppData\Local\Temp\cclMZBuF.s:305    .text.bench:0000000000000190 .L0 
C:\Users\stapi\AppData\Local\Temp\cclMZBuF.s:318    .text.bench:00000000000001b8 .L0 
C:\Users\stapi\AppData\Local\Temp\cclMZBuF.s:320    .text.bench:00000000000001bc .L0 
C:\Users\stapi\AppData\Local\Temp\cclMZBuF.s:334    .text.bench:00000000000001de .L0 
C:\Users\stapi\AppData\Local\Temp\cclMZBuF.s:335    .text.bench:00000000000001de .L0 
C:\Users\stapi\AppData\Local\Temp\cclMZBuF.s:337    .text.bench:00000000000001e2 .L0 
C:\Users\stapi\AppData\Local\Temp\cclMZBuF.s:343    .text.bench:00000000000001ec .L0 
C:\Users\stapi\AppData\Local\Temp\cclMZBuF.s:344    .text.bench:00000000000001ec .L0 
C:\Users\stapi\AppData\Local\Temp\cclMZBuF.s:346    .text.bench:00000000000001f0 .L0 
C:\Users\stapi\AppData\Local\Temp\cclMZBuF.s:348    .text.bench:00000000000001f8 .L0 
C:\Users\stapi\AppData\Local\Temp\cclMZBuF.s:349    .text.bench:00000000000001f8 .L0 
C:\Users\stapi\AppData\Local\Temp\cclMZBuF.s:350    .text.bench:00000000000001f8 .L0 
C:\Users\stapi\AppData\Local\Temp\cclMZBuF.s:351    .text.bench:00000000000001f8 .L0 
C:\Users\stapi\AppData\Local\Temp\cclMZBuF.s:352    .text.bench:00000000000001f8 .L0 
C:\Users\stapi\AppData\Local\Temp\cclMZBuF.s:353    .text.bench:00000000000001f8 .L0 
C:\Users\stapi\AppData\Local\Temp\cclMZBuF.s:354    .text.bench:00000000000001f8 .L0 
C:\Users\stapi\AppData\Local\Temp\cclMZBuF.s:355    .text.bench:00000000000001f8 .L0 
C:\Users\stapi\AppData\Local\Temp\cclMZBuF.s:356    .text.bench:00000000000001f8 .L0 
C:\Users\stapi\AppData\Local\Temp\cclMZBuF.s:357    .text.bench:00000000000001f8 .L0 
C:\Users\stapi\AppData\Local\Temp\cclMZBuF.s:358    .text.bench:00000000000001f8 .L0 
C:\Users\stapi\AppData\Local\Temp\cclMZBuF.s:359    .text.bench:00000000000001f8 .L0 
C:\Users\stapi\AppData\Local\Temp\cclMZBuF.s:360    .text.bench:00000000000001f8 .L0 
C:\Users\stapi\AppData\Local\Temp\cclMZBuF.s:371    .text.startup.main:0000000000000000 main
C:\Users\stapi\AppData\Local\Temp\cclMZBuF.s:374    .text.startup.main:0000000000000000 .L0 
C:\Users\stapi\AppData\Local\Temp\cclMZBuF.s:376    .text.startup.main:0000000000000000 .L0 
C:\Users\stapi\AppData\Local\Temp\cclMZBuF.s:377    .text.startup.main:0000000000000008 .L0 
C:\Users\stapi\AppData\Local\Temp\cclMZBuF.s:378    .text.startup.main:0000000000000008 .L0 
C:\Users\stapi\AppData\Local\Temp\cclMZBuF.s:379    .text.startup.main:0000000000000008 .L0 
C:\Users\stapi\AppData\Local\Temp\cclMZBuF.s:381    .text.startup.main:0000000000000008 .L0 
C:\Users\stapi\AppData\Local\Temp\cclMZBuF.s:383    .text.startup.main:0000000000000008 .L0 
C:\Users\stapi\AppData\Local\Temp\cclMZBuF.s:384    .text.startup.main:0000000000000008 .L0 
C:\Users\stapi\AppData\Local\Temp\cclMZBuF.s:385    .text.startup.main:0000000000000008 .L0 
C:\Users\stapi\AppData\Local\Temp\cclMZBuF.s:389    .text.startup.main:0000000000000010 .L0 
C:\Users\stapi\AppData\Local\Temp\cclMZBuF.s:397    .text.startup.main:0000000000000022 .L0 
C:\Users\stapi\AppData\Local\Temp\cclMZBuF.s:399    .text.startup.main:0000000000000024 .L0 
C:\Users\stapi\AppData\Local\Temp\cclMZBuF.s:403    .text.startup.main:000000000000002c .L0 
C:\Users\stapi\AppData\Local\Temp\cclMZBuF.s:404    .text.startup.main:000000000000002c .L0 
C:\Users\stapi\AppData\Local\Temp\cclMZBuF.s:409    .text.startup.main:0000000000000038 .L0 
C:\Users\stapi\AppData\Local\Temp\cclMZBuF.s:412    .text.startup.main:000000000000003a .L0 
C:\Users\stapi\AppData\Local\Temp\cclMZBuF.s:413    .text.startup.main:000000000000003a .L0 
C:\Users\stapi\AppData\Local\Temp\cclMZBuF.s:419    .text.startup.main:000000000000004c .L0 
C:\Users\stapi\AppData\Local\Temp\cclMZBuF.s:420    .text.startup.main:0000000000000054 .L0 
C:\Users\stapi\AppData\Local\Temp\cclMZBuF.s:421    .text.startup.main:0000000000000054 .L0 
C:\Users\stapi\AppData\Local\Temp\cclMZBuF.s:422    .text.startup.main:0000000000000054 .L0 
C:\Users\stapi\AppData\Local\Temp\cclMZBuF.s:423    .text.startup.main:0000000000000054 .L0 
C:\Users\stapi\AppData\Local\Temp\cclMZBuF.s:441    .data.settings:0000000000000000 .LANCHOR2
C:\Users\stapi\AppData\Local\Temp\cclMZBuF.s:444    .data.settings:0000000000000000 settings
C:\Users\stapi\AppData\Local\Temp\cclMZBuF.s:456    .rodata.data:0000000000000000 .LANCHOR1
C:\Users\stapi\AppData\Local\Temp\cclMZBuF.s:459    .rodata.data:0000000000000000 data
C:\Users\stapi\AppData\Local\Temp\cclMZBuF.s:468    .srodata.__func__.0:0000000000000000 .LANCHOR0
C:\Users\stapi\AppData\Local\Temp\cclMZBuF.s:471    .srodata.__func__.0:0000000000000000 __func__.0
C:\Users\stapi\AppData\Local\Temp\cclMZBuF.s:26     .text.on_info:0000000000000004 .L0 
C:\Users\stapi\AppData\Local\Temp\cclMZBuF.s:42     .text.on_data:0000000000000004 .L0 
C:\Users\stapi\AppData\Local\Temp\cclMZBuF.s:363    .text.bench:00000000000001f8 .L0 
C:\Users\stapi\AppData\Local\Temp\cclMZBuF.s:426    .text.startup.main:0000000000000054 .L0 
                     .debug_frame:0000000000000000 .L0 
C:\Users\stapi\AppData\Local\Temp\cclMZBuF.s:44     .rodata.bench.str1.4:0000000000000000 .LC0
C:\Users\stapi\AppData\Local\Temp\cclMZBuF.s:47     .rodata.bench.str1.4:000000000000000c .LC1
C:\Users\stapi\AppData\Local\Temp\cclMZBuF.s:50     .rodata.bench.str1.4:00000000000000ec .LC2
C:\Users\stapi\AppData\Local\Temp\cclMZBuF.s:53     .rodata.bench.str1.4:00000000000000f8 .LC3
C:\Users\stapi\AppData\Local\Temp\cclMZBuF.s:56     .rodata.bench.str1.4:000000000000010c .LC4
C:\Users\stapi\AppData\Local\Temp\cclMZBuF.s:436    .srodata.cst8:0000000000000008 .LC7
C:\Users\stapi\AppData\Local\Temp\cclMZBuF.s:428    .srodata.cst4:0000000000000000 .LC5
C:\Users\stapi\AppData\Local\Temp\cclMZBuF.s:432    .srodata.cst8:0000000000000000 .LC6
C:\Users\stapi\AppData\Local\Temp\cclMZBuF.s:65     .rodata.bench.str1.4:0000000000000120 .LC8
C:\Users\stapi\AppData\Local\Temp\cclMZBuF.s:125    .text.bench:0000000000000040 .L4
C:\Users\stapi\AppData\Local\Temp\cclMZBuF.s:175    .text.bench:0000000000000094 .L7
C:\Users\stapi\AppData\Local\Temp\cclMZBuF.s:340    .text.bench:00000000000001ec .L8
C:\Users\stapi\AppData\Local\Temp\cclMZBuF.s:210    .text.bench:00000000000000d8 .L9
C:\Users\stapi\AppData\Local\Temp\cclMZBuF.s:118    .text.bench:0000000000000030 .L14
C:\Users\stapi\AppData\Local\Temp\cclMZBuF.s:202    .text.bench:00000000000000d4 .L6
C:\Users\stapi\AppData\Local\Temp\cclMZBuF.s:147    .text.bench:0000000000000068 .L5
C:\Users\stapi\AppData\Local\Temp\cclMZBuF.s:365    .rodata.main.str1.4:0000000000000000 .LC9
C:\Users\stapi\AppData\Local\Temp\cclMZBuF.s:410    .text.startup.main:000000000000003a .L16
C:\Users\stapi\AppData\Local\Temp\cclMZBuF.s:401    .text.startup.main:000000000000002c .L17
C:\Users\stapi\AppData\Local\Temp\cclMZBuF.s:2569   .debug_abbrev:0000000000000000 .Ldebug_abbrev0
C:\Users\stapi\AppData\Local\Temp\cclMZBuF.s:3849   .debug_str:0000000000000447 .LASF197
C:\Users\stapi\AppData\Local\Temp\cclMZBuF.s:3963   .debug_str:000000000000072d .LASF198
C:\Users\stapi\AppData\Local\Temp\cclMZBuF.s:3705   .debug_str:00000000000000e6 .LASF199
C:\Users\stapi\AppData\Local\Temp\cclMZBuF.s:3629   .debug_ranges:0000000000000000 .Ldebug_ranges0
C:\Users\stapi\AppData\Local\Temp\cclMZBuF.s:3655   .debug_line:0000000000000000 .Ldebug_line0
C:\Users\stapi\AppData\Local\Temp\cclMZBuF.s:3769   .debug_str:00000000000002bf .LASF6
C:\Users\stapi\AppData\Local\Temp\cclMZBuF.s:3673   .debug_str:0000000000000051 .LASF0
C:\Users\stapi\AppData\Local\Temp\cclMZBuF.s:4021   .debug_str:0000000000000936 .LASF1
C:\Users\stapi\AppData\Local\Temp\cclMZBuF.s:3981   .debug_str:0000000000000867 .LASF2
C:\Users\stapi\AppData\Local\Temp\cclMZBuF.s:3915   .debug_str:0000000000000655 .LASF3
C:\Users\stapi\AppData\Local\Temp\cclMZBuF.s:4025   .debug_str:0000000000000949 .LASF4
C:\Users\stapi\AppData\Local\Temp\cclMZBuF.s:3919   .debug_str:000000000000066c .LASF5
C:\Users\stapi\AppData\Local\Temp\cclMZBuF.s:3983   .debug_str:0000000000000875 .LASF7
C:\Users\stapi\AppData\Local\Temp\cclMZBuF.s:3965   .debug_str:000000000000080b .LASF8
C:\Users\stapi\AppData\Local\Temp\cclMZBuF.s:3887   .debug_str:00000000000005d5 .LASF9
C:\Users\stapi\AppData\Local\Temp\cclMZBuF.s:3847   .debug_str:0000000000000439 .LASF10
C:\Users\stapi\AppData\Local\Temp\cclMZBuF.s:3793   .debug_str:0000000000000328 .LASF11
C:\Users\stapi\AppData\Local\Temp\cclMZBuF.s:3739   .debug_str:0000000000000216 .LASF12
C:\Users\stapi\AppData\Local\Temp\cclMZBuF.s:3903   .debug_str:0000000000000614 .LASF13
C:\Users\stapi\AppData\Local\Temp\cclMZBuF.s:3713   .debug_str:0000000000000191 .LASF14
C:\Users\stapi\AppData\Local\Temp\cclMZBuF.s:3771   .debug_str:00000000000002c6 .LASF15
C:\Users\stapi\AppData\Local\Temp\cclMZBuF.s:3935   .debug_str:00000000000006ad .LASF16
C:\Users\stapi\AppData\Local\Temp\cclMZBuF.s:3775   .debug_str:00000000000002d7 .LASF17
C:\Users\stapi\AppData\Local\Temp\cclMZBuF.s:3977   .debug_str:000000000000085a .LASF18
C:\Users\stapi\AppData\Local\Temp\cclMZBuF.s:3665   .debug_str:000000000000002c .LASF19
C:\Users\stapi\AppData\Local\Temp\cclMZBuF.s:3997   .debug_str:00000000000008bb .LASF20
C:\Users\stapi\AppData\Local\Temp\cclMZBuF.s:3901   .debug_str:0000000000000607 .LASF21
C:\Users\stapi\AppData\Local\Temp\cclMZBuF.s:3729   .debug_str:00000000000001dc .LASF22
C:\Users\stapi\AppData\Local\Temp\cclMZBuF.s:4001   .debug_str:00000000000008cc .LASF23
C:\Users\stapi\AppData\Local\Temp\cclMZBuF.s:3971   .debug_str:000000000000082b .LASF24
C:\Users\stapi\AppData\Local\Temp\cclMZBuF.s:3749   .debug_str:000000000000025c .LASF25
C:\Users\stapi\AppData\Local\Temp\cclMZBuF.s:4017   .debug_str:0000000000000927 .LASF26
C:\Users\stapi\AppData\Local\Temp\cclMZBuF.s:3927   .debug_str:0000000000000687 .LASF27
C:\Users\stapi\AppData\Local\Temp\cclMZBuF.s:3913   .debug_str:000000000000064a .LASF28
C:\Users\stapi\AppData\Local\Temp\cclMZBuF.s:3995   .debug_str:00000000000008b0 .LASF29
C:\Users\stapi\AppData\Local\Temp\cclMZBuF.s:4013   .debug_str:0000000000000913 .LASF30
C:\Users\stapi\AppData\Local\Temp\cclMZBuF.s:3991   .debug_str:000000000000089b .LASF31
C:\Users\stapi\AppData\Local\Temp\cclMZBuF.s:3797   .debug_str:000000000000033a .LASF32
C:\Users\stapi\AppData\Local\Temp\cclMZBuF.s:3875   .debug_str:00000000000005a2 .LASF33
C:\Users\stapi\AppData\Local\Temp\cclMZBuF.s:3827   .debug_str:00000000000003e7 .LASF34
C:\Users\stapi\AppData\Local\Temp\cclMZBuF.s:3741   .debug_str:000000000000022d .LASF35
C:\Users\stapi\AppData\Local\Temp\cclMZBuF.s:4045   .debug_str:00000000000009b4 .LASF36
C:\Users\stapi\AppData\Local\Temp\cclMZBuF.s:3685   .debug_str:000000000000008d .LASF37
C:\Users\stapi\AppData\Local\Temp\cclMZBuF.s:3929   .debug_str:0000000000000696 .LASF38
C:\Users\stapi\AppData\Local\Temp\cclMZBuF.s:3735   .debug_str:00000000000001fc .LASF39
C:\Users\stapi\AppData\Local\Temp\cclMZBuF.s:3813   .debug_str:0000000000000387 .LASF40
C:\Users\stapi\AppData\Local\Temp\cclMZBuF.s:4049   .debug_str:00000000000009cd .LASF41
C:\Users\stapi\AppData\Local\Temp\cclMZBuF.s:3695   .debug_str:00000000000000c1 .LASF42
C:\Users\stapi\AppData\Local\Temp\cclMZBuF.s:3823   .debug_str:00000000000003c3 .LASF43
C:\Users\stapi\AppData\Local\Temp\cclMZBuF.s:3825   .debug_str:00000000000003d7 .LASF44
C:\Users\stapi\AppData\Local\Temp\cclMZBuF.s:3731   .debug_str:00000000000001e2 .LASF45
C:\Users\stapi\AppData\Local\Temp\cclMZBuF.s:4067   .debug_str:0000000000000a2c .LASF46
C:\Users\stapi\AppData\Local\Temp\cclMZBuF.s:3811   .debug_str:0000000000000382 .LASF47
C:\Users\stapi\AppData\Local\Temp\cclMZBuF.s:3691   .debug_str:00000000000000b3 .LASF48
C:\Users\stapi\AppData\Local\Temp\cclMZBuF.s:3757   .debug_str:0000000000000286 .LASF200
C:\Users\stapi\AppData\Local\Temp\cclMZBuF.s:3869   .debug_str:0000000000000582 .LASF49
C:\Users\stapi\AppData\Local\Temp\cclMZBuF.s:3975   .debug_str:000000000000084c .LASF50
C:\Users\stapi\AppData\Local\Temp\cclMZBuF.s:3783   .debug_str:00000000000002f7 .LASF51
C:\Users\stapi\AppData\Local\Temp\cclMZBuF.s:3969   .debug_str:0000000000000824 .LASF52
C:\Users\stapi\AppData\Local\Temp\cclMZBuF.s:4037   .debug_str:0000000000000981 .LASF53
C:\Users\stapi\AppData\Local\Temp\cclMZBuF.s:3699   .debug_str:00000000000000d1 .LASF54
C:\Users\stapi\AppData\Local\Temp\cclMZBuF.s:4019   .debug_str:000000000000092d .LASF55
C:\Users\stapi\AppData\Local\Temp\cclMZBuF.s:3831   .debug_str:00000000000003f3 .LASF56
C:\Users\stapi\AppData\Local\Temp\cclMZBuF.s:3933   .debug_str:00000000000006a6 .LASF57
C:\Users\stapi\AppData\Local\Temp\cclMZBuF.s:3719   .debug_str:00000000000001b0 .LASF58
C:\Users\stapi\AppData\Local\Temp\cclMZBuF.s:3801   .debug_str:000000000000034e .LASF59
C:\Users\stapi\AppData\Local\Temp\cclMZBuF.s:3867   .debug_str:0000000000000577 .LASF60
C:\Users\stapi\AppData\Local\Temp\cclMZBuF.s:3993   .debug_str:00000000000008a2 .LASF61
C:\Users\stapi\AppData\Local\Temp\cclMZBuF.s:3857   .debug_str:0000000000000544 .LASF62
C:\Users\stapi\AppData\Local\Temp\cclMZBuF.s:3681   .debug_str:0000000000000075 .LASF63
C:\Users\stapi\AppData\Local\Temp\cclMZBuF.s:3657   .debug_str:0000000000000000 .LASF64
C:\Users\stapi\AppData\Local\Temp\cclMZBuF.s:3707   .debug_str:0000000000000177 .LASF65
C:\Users\stapi\AppData\Local\Temp\cclMZBuF.s:3787   .debug_str:0000000000000309 .LASF66
C:\Users\stapi\AppData\Local\Temp\cclMZBuF.s:3947   .debug_str:00000000000006e4 .LASF67
C:\Users\stapi\AppData\Local\Temp\cclMZBuF.s:3925   .debug_str:0000000000000681 .LASF68
C:\Users\stapi\AppData\Local\Temp\cclMZBuF.s:3747   .debug_str:0000000000000257 .LASF69
C:\Users\stapi\AppData\Local\Temp\cclMZBuF.s:3953   .debug_str:00000000000006ff .LASF70
C:\Users\stapi\AppData\Local\Temp\cclMZBuF.s:3773   .debug_str:00000000000002ce .LASF71
C:\Users\stapi\AppData\Local\Temp\cclMZBuF.s:3723   .debug_str:00000000000001c0 .LASF72
C:\Users\stapi\AppData\Local\Temp\cclMZBuF.s:3715   .debug_str:000000000000019a .LASF73
C:\Users\stapi\AppData\Local\Temp\cclMZBuF.s:3815   .debug_str:0000000000000397 .LASF74
C:\Users\stapi\AppData\Local\Temp\cclMZBuF.s:3885   .debug_str:00000000000005cc .LASF75
C:\Users\stapi\AppData\Local\Temp\cclMZBuF.s:3937   .debug_str:00000000000006b6 .LASF76
C:\Users\stapi\AppData\Local\Temp\cclMZBuF.s:3709   .debug_str:000000000000017f .LASF77
C:\Users\stapi\AppData\Local\Temp\cclMZBuF.s:3777   .debug_str:00000000000002e3 .LASF78
C:\Users\stapi\AppData\Local\Temp\cclMZBuF.s:3873   .debug_str:0000000000000597 .LASF79
C:\Users\stapi\AppData\Local\Temp\cclMZBuF.s:3661   .debug_str:0000000000000010 .LASF80
C:\Users\stapi\AppData\Local\Temp\cclMZBuF.s:3871   .debug_str:000000000000058f .LASF81
C:\Users\stapi\AppData\Local\Temp\cclMZBuF.s:3973   .debug_str:0000000000000840 .LASF82
C:\Users\stapi\AppData\Local\Temp\cclMZBuF.s:4031   .debug_str:000000000000096b .LASF83
C:\Users\stapi\AppData\Local\Temp\cclMZBuF.s:4051   .debug_str:00000000000009e1 .LASF84
C:\Users\stapi\AppData\Local\Temp\cclMZBuF.s:3905   .debug_str:0000000000000624 .LASF85
C:\Users\stapi\AppData\Local\Temp\cclMZBuF.s:3781   .debug_str:00000000000002f2 .LASF86
C:\Users\stapi\AppData\Local\Temp\cclMZBuF.s:3701   .debug_str:00000000000000d9 .LASF87
C:\Users\stapi\AppData\Local\Temp\cclMZBuF.s:3893   .debug_str:00000000000005eb .LASF88
C:\Users\stapi\AppData\Local\Temp\cclMZBuF.s:3851   .debug_str:000000000000052e .LASF89
C:\Users\stapi\AppData\Local\Temp\cclMZBuF.s:4033   .debug_str:0000000000000974 .LASF90
C:\Users\stapi\AppData\Local\Temp\cclMZBuF.s:3745   .debug_str:000000000000024f .LASF91
C:\Users\stapi\AppData\Local\Temp\cclMZBuF.s:3677   .debug_str:0000000000000067 .LASF92
C:\Users\stapi\AppData\Local\Temp\cclMZBuF.s:3861   .debug_str:000000000000055b .LASF93
C:\Users\stapi\AppData\Local\Temp\cclMZBuF.s:3675   .debug_str:000000000000005e .LASF94
C:\Users\stapi\AppData\Local\Temp\cclMZBuF.s:3703   .debug_str:00000000000000de .LASF95
C:\Users\stapi\AppData\Local\Temp\cclMZBuF.s:3683   .debug_str:0000000000000087 .LASF96
C:\Users\stapi\AppData\Local\Temp\cclMZBuF.s:3897   .debug_str:00000000000005f7 .LASF97
C:\Users\stapi\AppData\Local\Temp\cclMZBuF.s:4059   .debug_str:0000000000000a05 .LASF98
C:\Users\stapi\AppData\Local\Temp\cclMZBuF.s:3837   .debug_str:0000000000000406 .LASF99
C:\Users\stapi\AppData\Local\Temp\cclMZBuF.s:3755   .debug_str:0000000000000280 .LASF100
C:\Users\stapi\AppData\Local\Temp\cclMZBuF.s:4039   .debug_str:0000000000000988 .LASF101
C:\Users\stapi\AppData\Local\Temp\cclMZBuF.s:3951   .debug_str:00000000000006f6 .LASF102
C:\Users\stapi\AppData\Local\Temp\cclMZBuF.s:3753   .debug_str:0000000000000278 .LASF103
C:\Users\stapi\AppData\Local\Temp\cclMZBuF.s:3931   .debug_str:00000000000006a0 .LASF104
C:\Users\stapi\AppData\Local\Temp\cclMZBuF.s:3959   .debug_str:0000000000000720 .LASF105
C:\Users\stapi\AppData\Local\Temp\cclMZBuF.s:3907   .debug_str:000000000000062c .LASF106
C:\Users\stapi\AppData\Local\Temp\cclMZBuF.s:4047   .debug_str:00000000000009c5 .LASF107
C:\Users\stapi\AppData\Local\Temp\cclMZBuF.s:4023   .debug_str:0000000000000942 .LASF108
C:\Users\stapi\AppData\Local\Temp\cclMZBuF.s:3679   .debug_str:000000000000006e .LASF109
C:\Users\stapi\AppData\Local\Temp\cclMZBuF.s:3843   .debug_str:0000000000000423 .LASF110
C:\Users\stapi\AppData\Local\Temp\cclMZBuF.s:3697   .debug_str:00000000000000c9 .LASF111
C:\Users\stapi\AppData\Local\Temp\cclMZBuF.s:4063   .debug_str:0000000000000a1b .LASF112
C:\Users\stapi\AppData\Local\Temp\cclMZBuF.s:3779   .debug_str:00000000000002ed .LASF113
C:\Users\stapi\AppData\Local\Temp\cclMZBuF.s:3763   .debug_str:00000000000002a5 .LASF114
C:\Users\stapi\AppData\Local\Temp\cclMZBuF.s:4043   .debug_str:000000000000099b .LASF115
C:\Users\stapi\AppData\Local\Temp\cclMZBuF.s:4015   .debug_str:000000000000091f .LASF116
C:\Users\stapi\AppData\Local\Temp\cclMZBuF.s:3839   .debug_str:000000000000040d .LASF117
C:\Users\stapi\AppData\Local\Temp\cclMZBuF.s:3865   .debug_str:000000000000056d .LASF118
C:\Users\stapi\AppData\Local\Temp\cclMZBuF.s:3711   .debug_str:0000000000000189 .LASF119
C:\Users\stapi\AppData\Local\Temp\cclMZBuF.s:3737   .debug_str:000000000000020c .LASF120
C:\Users\stapi\AppData\Local\Temp\cclMZBuF.s:3803   .debug_str:0000000000000356 .LASF121
C:\Users\stapi\AppData\Local\Temp\cclMZBuF.s:3853   .debug_str:0000000000000534 .LASF122
C:\Users\stapi\AppData\Local\Temp\cclMZBuF.s:3945   .debug_str:00000000000006dc .LASF123
C:\Users\stapi\AppData\Local\Temp\cclMZBuF.s:3979   .debug_str:000000000000085f .LASF124
C:\Users\stapi\AppData\Local\Temp\cclMZBuF.s:3943   .debug_str:00000000000006d7 .LASF125
C:\Users\stapi\AppData\Local\Temp\cclMZBuF.s:3821   .debug_str:00000000000003ba .LASF126
C:\Users\stapi\AppData\Local\Temp\cclMZBuF.s:3817   .debug_str:00000000000003a1 .LASF127
C:\Users\stapi\AppData\Local\Temp\cclMZBuF.s:4005   .debug_str:00000000000008e9 .LASF128
C:\Users\stapi\AppData\Local\Temp\cclMZBuF.s:3923   .debug_str:000000000000067c .LASF129
C:\Users\stapi\AppData\Local\Temp\cclMZBuF.s:3751   .debug_str:0000000000000271 .LASF130
C:\Users\stapi\AppData\Local\Temp\cclMZBuF.s:4003   .debug_str:00000000000008e3 .LASF131
C:\Users\stapi\AppData\Local\Temp\cclMZBuF.s:3967   .debug_str:000000000000081d .LASF132
C:\Users\stapi\AppData\Local\Temp\cclMZBuF.s:3833   .debug_str:00000000000003f9 .LASF133
C:\Users\stapi\AppData\Local\Temp\cclMZBuF.s:3733   .debug_str:00000000000001f4 .LASF134
C:\Users\stapi\AppData\Local\Temp\cclMZBuF.s:4053   .debug_str:00000000000009e9 .LASF135
C:\Users\stapi\AppData\Local\Temp\cclMZBuF.s:3855   .debug_str:000000000000053e .LASF136
C:\Users\stapi\AppData\Local\Temp\cclMZBuF.s:3989   .debug_str:0000000000000896 .LASF137
C:\Users\stapi\AppData\Local\Temp\cclMZBuF.s:4041   .debug_str:000000000000098e .LASF138
C:\Users\stapi\AppData\Local\Temp\cclMZBuF.s:4009   .debug_str:00000000000008f8 .LASF139
C:\Users\stapi\AppData\Local\Temp\cclMZBuF.s:3743   .debug_str:0000000000000242 .LASF140
C:\Users\stapi\AppData\Local\Temp\cclMZBuF.s:3939   .debug_str:00000000000006c0 .LASF141
C:\Users\stapi\AppData\Local\Temp\cclMZBuF.s:3845   .debug_str:000000000000042a .LASF142
C:\Users\stapi\AppData\Local\Temp\cclMZBuF.s:4055   .debug_str:00000000000009ef .LASF143
C:\Users\stapi\AppData\Local\Temp\cclMZBuF.s:3667   .debug_str:0000000000000032 .LASF144
C:\Users\stapi\AppData\Local\Temp\cclMZBuF.s:3809   .debug_str:0000000000000375 .LASF145
C:\Users\stapi\AppData\Local\Temp\cclMZBuF.s:4011   .debug_str:0000000000000905 .LASF146
C:\Users\stapi\AppData\Local\Temp\cclMZBuF.s:3663   .debug_str:000000000000001e .LASF147
C:\Users\stapi\AppData\Local\Temp\cclMZBuF.s:3949   .debug_str:00000000000006ec .LASF148
C:\Users\stapi\AppData\Local\Temp\cclMZBuF.s:3671   .debug_str:0000000000000045 .LASF149
C:\Users\stapi\AppData\Local\Temp\cclMZBuF.s:3985   .debug_str:0000000000000880 .LASF150
C:\Users\stapi\AppData\Local\Temp\cclMZBuF.s:3689   .debug_str:00000000000000a5 .LASF151
C:\Users\stapi\AppData\Local\Temp\cclMZBuF.s:3819   .debug_str:00000000000003ab .LASF152
C:\Users\stapi\AppData\Local\Temp\cclMZBuF.s:3791   .debug_str:0000000000000317 .LASF153
C:\Users\stapi\AppData\Local\Temp\cclMZBuF.s:3859   .debug_str:000000000000054c .LASF154
C:\Users\stapi\AppData\Local\Temp\cclMZBuF.s:3807   .debug_str:0000000000000364 .LASF155
C:\Users\stapi\AppData\Local\Temp\cclMZBuF.s:3881   .debug_str:00000000000005be .LASF156
C:\Users\stapi\AppData\Local\Temp\cclMZBuF.s:3727   .debug_str:00000000000001d5 .LASF157
C:\Users\stapi\AppData\Local\Temp\cclMZBuF.s:4065   .debug_str:0000000000000a23 .LASF158
C:\Users\stapi\AppData\Local\Temp\cclMZBuF.s:3941   .debug_str:00000000000006cf .LASF159
C:\Users\stapi\AppData\Local\Temp\cclMZBuF.s:4057   .debug_str:00000000000009fa .LASF201
C:\Users\stapi\AppData\Local\Temp\cclMZBuF.s:3725   .debug_str:00000000000001c9 .LASF202
C:\Users\stapi\AppData\Local\Temp\cclMZBuF.s:3835   .debug_str:00000000000003ff .LASF160
C:\Users\stapi\AppData\Local\Temp\cclMZBuF.s:3911   .debug_str:000000000000063e .LASF161
C:\Users\stapi\AppData\Local\Temp\cclMZBuF.s:3765   .debug_str:00000000000002b0 .LASF162
C:\Users\stapi\AppData\Local\Temp\cclMZBuF.s:3961   .debug_str:0000000000000726 .LASF163
C:\Users\stapi\AppData\Local\Temp\cclMZBuF.s:3789   .debug_str:000000000000030f .LASF164
C:\Users\stapi\AppData\Local\Temp\cclMZBuF.s:4007   .debug_str:00000000000008f1 .LASF165
C:\Users\stapi\AppData\Local\Temp\cclMZBuF.s:3899   .debug_str:00000000000005fe .LASF166
C:\Users\stapi\AppData\Local\Temp\cclMZBuF.s:3805   .debug_str:000000000000035b .LASF167
C:\Users\stapi\AppData\Local\Temp\cclMZBuF.s:3895   .debug_str:00000000000005f2 .LASF171
C:\Users\stapi\AppData\Local\Temp\cclMZBuF.s:372    .text.startup.main:0000000000000000 .LFB7
C:\Users\stapi\AppData\Local\Temp\cclMZBuF.s:424    .text.startup.main:0000000000000054 .LFE7
C:\Users\stapi\AppData\Local\Temp\cclMZBuF.s:3883   .debug_str:00000000000005c7 .LASF168
C:\Users\stapi\AppData\Local\Temp\cclMZBuF.s:3438   .debug_loc:0000000000000000 .LLST9
C:\Users\stapi\AppData\Local\Temp\cclMZBuF.s:3889   .debug_str:00000000000005df .LASF169
C:\Users\stapi\AppData\Local\Temp\cclMZBuF.s:3452   .debug_loc:0000000000000021 .LLST10
C:\Users\stapi\AppData\Local\Temp\cclMZBuF.s:3999   .debug_str:00000000000008c1 .LASF170
C:\Users\stapi\AppData\Local\Temp\cclMZBuF.s:395    .text.startup.main:0000000000000022 .LVL40
C:\Users\stapi\AppData\Local\Temp\cclMZBuF.s:407    .text.startup.main:0000000000000038 .LVL41
C:\Users\stapi\AppData\Local\Temp\cclMZBuF.s:417    .text.startup.main:000000000000004c .LVL42
C:\Users\stapi\AppData\Local\Temp\cclMZBuF.s:3761   .debug_str:000000000000029f .LASF172
C:\Users\stapi\AppData\Local\Temp\cclMZBuF.s:72     .text.bench:0000000000000000 .LFB6
C:\Users\stapi\AppData\Local\Temp\cclMZBuF.s:361    .text.bench:00000000000001f8 .LFE6
C:\Users\stapi\AppData\Local\Temp\cclMZBuF.s:3841   .debug_str:0000000000000418 .LASF173
C:\Users\stapi\AppData\Local\Temp\cclMZBuF.s:3470   .debug_loc:000000000000004d .LLST2
C:\Users\stapi\AppData\Local\Temp\cclMZBuF.s:3795   .debug_str:0000000000000333 .LASF174
C:\Users\stapi\AppData\Local\Temp\cclMZBuF.s:3488   .debug_loc:0000000000000079 .LLST3
C:\Users\stapi\AppData\Local\Temp\cclMZBuF.s:3891   .debug_str:00000000000005e4 .LASF175
C:\Users\stapi\AppData\Local\Temp\cclMZBuF.s:3506   .debug_loc:00000000000000a5 .LLST4
C:\Users\stapi\AppData\Local\Temp\cclMZBuF.s:3518   .debug_loc:00000000000000c4 .LLST5
C:\Users\stapi\AppData\Local\Temp\cclMZBuF.s:3879   .debug_str:00000000000005b8 .LASF176
C:\Users\stapi\AppData\Local\Temp\cclMZBuF.s:3909   .debug_str:0000000000000635 .LASF203
C:\Users\stapi\AppData\Local\Temp\cclMZBuF.s:3659   .debug_str:0000000000000009 .LASF177
C:\Users\stapi\AppData\Local\Temp\cclMZBuF.s:3533   .debug_loc:00000000000000ed .LLST6
C:\Users\stapi\AppData\Local\Temp\cclMZBuF.s:124    .text.bench:0000000000000040 .LVL8
C:\Users\stapi\AppData\Local\Temp\cclMZBuF.s:183    .text.bench:00000000000000a0 .LVL13
C:\Users\stapi\AppData\Local\Temp\cclMZBuF.s:191    .text.bench:00000000000000b6 .LVL14
C:\Users\stapi\AppData\Local\Temp\cclMZBuF.s:3785   .debug_str:0000000000000301 .LASF178
C:\Users\stapi\AppData\Local\Temp\cclMZBuF.s:3540   .debug_loc:0000000000000100 .LLST7
C:\Users\stapi\AppData\Local\Temp\cclMZBuF.s:4029   .debug_str:0000000000000965 .LASF179
C:\Users\stapi\AppData\Local\Temp\cclMZBuF.s:3552   .debug_loc:0000000000000118 .LLST8
C:\Users\stapi\AppData\Local\Temp\cclMZBuF.s:164    .text.bench:000000000000007c .LVL11
C:\Users\stapi\AppData\Local\Temp\cclMZBuF.s:224    .text.bench:00000000000000f2 .LVL18
C:\Users\stapi\AppData\Local\Temp\cclMZBuF.s:237    .text.bench:0000000000000110 .LVL19
C:\Users\stapi\AppData\Local\Temp\cclMZBuF.s:254    .text.bench:0000000000000132 .LVL22
C:\Users\stapi\AppData\Local\Temp\cclMZBuF.s:261    .text.bench:0000000000000142 .LVL23
C:\Users\stapi\AppData\Local\Temp\cclMZBuF.s:271    .text.bench:0000000000000150 .LVL25
C:\Users\stapi\AppData\Local\Temp\cclMZBuF.s:281    .text.bench:0000000000000168 .LVL26
C:\Users\stapi\AppData\Local\Temp\cclMZBuF.s:294    .text.bench:000000000000017c .LVL30
C:\Users\stapi\AppData\Local\Temp\cclMZBuF.s:303    .text.bench:0000000000000190 .LVL31
C:\Users\stapi\AppData\Local\Temp\cclMZBuF.s:308    .text.bench:00000000000001a0 .LVL32
C:\Users\stapi\AppData\Local\Temp\cclMZBuF.s:316    .text.bench:00000000000001b8 .LVL33
C:\Users\stapi\AppData\Local\Temp\cclMZBuF.s:332    .text.bench:00000000000001de .LVL34
C:\Users\stapi\AppData\Local\Temp\cclMZBuF.s:339    .text.bench:00000000000001ec .LVL35
C:\Users\stapi\AppData\Local\Temp\cclMZBuF.s:108    .text.bench:000000000000001a .LVL6
C:\Users\stapi\AppData\Local\Temp\cclMZBuF.s:140    .text.bench:0000000000000060 .LVL9
C:\Users\stapi\AppData\Local\Temp\cclMZBuF.s:4035   .debug_str:000000000000097a .LASF180
C:\Users\stapi\AppData\Local\Temp\cclMZBuF.s:3957   .debug_str:0000000000000718 .LASF182
C:\Users\stapi\AppData\Local\Temp\cclMZBuF.s:30     .text.on_data:0000000000000000 .LFB5
C:\Users\stapi\AppData\Local\Temp\cclMZBuF.s:40     .text.on_data:0000000000000004 .LFE5
C:\Users\stapi\AppData\Local\Temp\cclMZBuF.s:3582   .debug_loc:0000000000000150 .LLST1
C:\Users\stapi\AppData\Local\Temp\cclMZBuF.s:3921   .debug_str:0000000000000675 .LASF181
C:\Users\stapi\AppData\Local\Temp\cclMZBuF.s:3721   .debug_str:00000000000001b8 .LASF183
C:\Users\stapi\AppData\Local\Temp\cclMZBuF.s:13     .text.on_info:0000000000000000 .LFB4
C:\Users\stapi\AppData\Local\Temp\cclMZBuF.s:24     .text.on_info:0000000000000004 .LFE4
C:\Users\stapi\AppData\Local\Temp\cclMZBuF.s:3596   .debug_loc:0000000000000171 .LLST0
C:\Users\stapi\AppData\Local\Temp\cclMZBuF.s:3829   .debug_str:00000000000003ec .LASF184
C:\Users\stapi\AppData\Local\Temp\cclMZBuF.s:3669   .debug_str:0000000000000037 .LASF185
C:\Users\stapi\AppData\Local\Temp\cclMZBuF.s:3687   .debug_str:0000000000000094 .LASF186
C:\Users\stapi\AppData\Local\Temp\cclMZBuF.s:3955   .debug_str:0000000000000704 .LASF187
C:\Users\stapi\AppData\Local\Temp\cclMZBuF.s:3917   .debug_str:000000000000065f .LASF188
C:\Users\stapi\AppData\Local\Temp\cclMZBuF.s:3693   .debug_str:00000000000000bb .LASF204
C:\Users\stapi\AppData\Local\Temp\cclMZBuF.s:4061   .debug_str:0000000000000a0b .LASF205
C:\Users\stapi\AppData\Local\Temp\cclMZBuF.s:3863   .debug_str:0000000000000561 .LASF189
C:\Users\stapi\AppData\Local\Temp\cclMZBuF.s:3877   .debug_str:00000000000005aa .LASF190
C:\Users\stapi\AppData\Local\Temp\cclMZBuF.s:4027   .debug_str:000000000000095c .LASF191
C:\Users\stapi\AppData\Local\Temp\cclMZBuF.s:3717   .debug_str:00000000000001a4 .LASF192
C:\Users\stapi\AppData\Local\Temp\cclMZBuF.s:3987   .debug_str:000000000000088d .LASF193
C:\Users\stapi\AppData\Local\Temp\cclMZBuF.s:3799   .debug_str:0000000000000345 .LASF194
C:\Users\stapi\AppData\Local\Temp\cclMZBuF.s:3759   .debug_str:0000000000000297 .LASF195
C:\Users\stapi\AppData\Local\Temp\cclMZBuF.s:3767   .debug_str:00000000000002b8 .LASF196
C:\Users\stapi\AppData\Local\Temp\cclMZBuF.s:375    .text.startup.main:0000000000000000 .LVL36
C:\Users\stapi\AppData\Local\Temp\cclMZBuF.s:390    .text.startup.main:0000000000000012 .LVL38
C:\Users\stapi\AppData\Local\Temp\cclMZBuF.s:392    .text.startup.main:0000000000000016 .LVL39
C:\Users\stapi\AppData\Local\Temp\cclMZBuF.s:75     .text.bench:0000000000000000 .LVL4
C:\Users\stapi\AppData\Local\Temp\cclMZBuF.s:106    .text.bench:0000000000000012 .LVL5
C:\Users\stapi\AppData\Local\Temp\cclMZBuF.s:284    .text.bench:000000000000016c .LVL27
C:\Users\stapi\AppData\Local\Temp\cclMZBuF.s:245    .text.bench:0000000000000118 .LVL21
C:\Users\stapi\AppData\Local\Temp\cclMZBuF.s:146    .text.bench:0000000000000068 .LVL10
C:\Users\stapi\AppData\Local\Temp\cclMZBuF.s:243    .text.bench:0000000000000116 .LVL20
C:\Users\stapi\AppData\Local\Temp\cclMZBuF.s:117    .text.bench:0000000000000030 .LVL7
C:\Users\stapi\AppData\Local\Temp\cclMZBuF.s:174    .text.bench:0000000000000094 .LVL12
C:\Users\stapi\AppData\Local\Temp\cclMZBuF.s:209    .text.bench:00000000000000d8 .LVL16
C:\Users\stapi\AppData\Local\Temp\cclMZBuF.s:217    .text.bench:00000000000000e0 .LVL17
C:\Users\stapi\AppData\Local\Temp\cclMZBuF.s:267    .text.bench:0000000000000148 .LVL24
C:\Users\stapi\AppData\Local\Temp\cclMZBuF.s:290    .text.bench:0000000000000172 .LVL28
C:\Users\stapi\AppData\Local\Temp\cclMZBuF.s:292    .text.bench:0000000000000174 .LVL29
C:\Users\stapi\AppData\Local\Temp\cclMZBuF.s:33     .text.on_data:0000000000000000 .LVL2
C:\Users\stapi\AppData\Local\Temp\cclMZBuF.s:37     .text.on_data:0000000000000002 .LVL3
C:\Users\stapi\AppData\Local\Temp\cclMZBuF.s:17     .text.on_info:0000000000000000 .LVL0
C:\Users\stapi\AppData\Local\Temp\cclMZBuF.s:21     .text.on_info:0000000000000002 .LVL1
C:\Users\stapi\AppData\Local\Temp\cclMZBuF.s:490    .debug_info:0000000000000000 .Ldebug_info0
C:\Users\stapi\AppData\Local\Temp\cclMZBuF.s:119    .text.bench:0000000000000030 .LBB2
C:\Users\stapi\AppData\Local\Temp\cclMZBuF.s:126    .text.bench:0000000000000040 .LBE2
C:\Users\stapi\AppData\Local\Temp\cclMZBuF.s:142    .text.bench:0000000000000060 .LBB3
C:\Users\stapi\AppData\Local\Temp\cclMZBuF.s:148    .text.bench:0000000000000068 .LBE3
C:\Users\stapi\AppData\Local\Temp\cclMZBuF.s:177    .text.bench:0000000000000094 .LBB5
C:\Users\stapi\AppData\Local\Temp\cclMZBuF.s:203    .text.bench:00000000000000d4 .LBE5
C:\Users\stapi\AppData\Local\Temp\cclMZBuF.s:155    .text.bench:0000000000000070 .LBB4
C:\Users\stapi\AppData\Local\Temp\cclMZBuF.s:176    .text.bench:0000000000000094 .LBE4
C:\Users\stapi\AppData\Local\Temp\cclMZBuF.s:211    .text.bench:00000000000000d8 .LBB6
C:\Users\stapi\AppData\Local\Temp\cclMZBuF.s:341    .text.bench:00000000000001ec .LBE6

UNDEFINED SYMBOLS
__floatdidf
__extendsfdf2
__adddf3
__floatsidf
__muldf3
__divdf3
__riscv_save_10
gettimeofday
__assert_func
_impure_ptr
fprintf
http_parser_init
http_parser_execute
fputs
fflush
__riscv_restore_10
__riscv_save_1
strcmp
__riscv_restore_1
