   1              		.file	"app_per_sync_mgr.c"
   2              		.option nopic
   3              		.attribute arch, "rv32i2p0_m2p0_a2p0_f2p0_c2p0_b_p0p94"
   4              		.attribute unaligned_access, 0
   5              		.attribute stack_align, 16
   6              		.text
   7              	.Ltext0:
   8              		.cfi_sections	.debug_frame
   9              		.section	.text.sync_mgr_find_device_by_idx,"ax",@progbits
  10              		.align	1
  12              	sync_mgr_find_device_by_idx:
  13              	.LFB1:
  14              		.file 1 "C:/Users/stapi/OneDrive/Desktop/GD32VW553/GD32VW55X_Wifi_BLE_SDK/GD32VW55x_RELEASE_V1.0.2
   1:C:/Users/stapi/OneDrive/Desktop/GD32VW553/GD32VW55X_Wifi_BLE_SDK/GD32VW55x_RELEASE_V1.0.2/MSDK/ble/app\app_per_sync_mgr.c **** /*!
   2:C:/Users/stapi/OneDrive/Desktop/GD32VW553/GD32VW55X_Wifi_BLE_SDK/GD32VW55x_RELEASE_V1.0.2/MSDK/ble/app\app_per_sync_mgr.c ****     \file    app_peri_sync_mgr.c
   3:C:/Users/stapi/OneDrive/Desktop/GD32VW553/GD32VW55X_Wifi_BLE_SDK/GD32VW55x_RELEASE_V1.0.2/MSDK/ble/app\app_per_sync_mgr.c ****     \brief   Implementation of BLE application periodic sync manager to record devices.
   4:C:/Users/stapi/OneDrive/Desktop/GD32VW553/GD32VW55X_Wifi_BLE_SDK/GD32VW55x_RELEASE_V1.0.2/MSDK/ble/app\app_per_sync_mgr.c **** 
   5:C:/Users/stapi/OneDrive/Desktop/GD32VW553/GD32VW55X_Wifi_BLE_SDK/GD32VW55x_RELEASE_V1.0.2/MSDK/ble/app\app_per_sync_mgr.c ****     \version 2023-07-20, V1.0.0, firmware for GD32VW55x
   6:C:/Users/stapi/OneDrive/Desktop/GD32VW553/GD32VW55X_Wifi_BLE_SDK/GD32VW55x_RELEASE_V1.0.2/MSDK/ble/app\app_per_sync_mgr.c **** */
   7:C:/Users/stapi/OneDrive/Desktop/GD32VW553/GD32VW55X_Wifi_BLE_SDK/GD32VW55x_RELEASE_V1.0.2/MSDK/ble/app\app_per_sync_mgr.c **** 
   8:C:/Users/stapi/OneDrive/Desktop/GD32VW553/GD32VW55X_Wifi_BLE_SDK/GD32VW55x_RELEASE_V1.0.2/MSDK/ble/app\app_per_sync_mgr.c **** /*
   9:C:/Users/stapi/OneDrive/Desktop/GD32VW553/GD32VW55X_Wifi_BLE_SDK/GD32VW55x_RELEASE_V1.0.2/MSDK/ble/app\app_per_sync_mgr.c ****     Copyright (c) 2023, GigaDevice Semiconductor Inc.
  10:C:/Users/stapi/OneDrive/Desktop/GD32VW553/GD32VW55X_Wifi_BLE_SDK/GD32VW55x_RELEASE_V1.0.2/MSDK/ble/app\app_per_sync_mgr.c **** 
  11:C:/Users/stapi/OneDrive/Desktop/GD32VW553/GD32VW55X_Wifi_BLE_SDK/GD32VW55x_RELEASE_V1.0.2/MSDK/ble/app\app_per_sync_mgr.c ****     Redistribution and use in source and binary forms, with or without modification,
  12:C:/Users/stapi/OneDrive/Desktop/GD32VW553/GD32VW55X_Wifi_BLE_SDK/GD32VW55x_RELEASE_V1.0.2/MSDK/ble/app\app_per_sync_mgr.c **** are permitted provided that the following conditions are met:
  13:C:/Users/stapi/OneDrive/Desktop/GD32VW553/GD32VW55X_Wifi_BLE_SDK/GD32VW55x_RELEASE_V1.0.2/MSDK/ble/app\app_per_sync_mgr.c **** 
  14:C:/Users/stapi/OneDrive/Desktop/GD32VW553/GD32VW55X_Wifi_BLE_SDK/GD32VW55x_RELEASE_V1.0.2/MSDK/ble/app\app_per_sync_mgr.c ****     1. Redistributions of source code must retain the above copyright notice, this
  15:C:/Users/stapi/OneDrive/Desktop/GD32VW553/GD32VW55X_Wifi_BLE_SDK/GD32VW55x_RELEASE_V1.0.2/MSDK/ble/app\app_per_sync_mgr.c ****        list of conditions and the following disclaimer.
  16:C:/Users/stapi/OneDrive/Desktop/GD32VW553/GD32VW55X_Wifi_BLE_SDK/GD32VW55x_RELEASE_V1.0.2/MSDK/ble/app\app_per_sync_mgr.c ****     2. Redistributions in binary form must reproduce the above copyright notice,
  17:C:/Users/stapi/OneDrive/Desktop/GD32VW553/GD32VW55X_Wifi_BLE_SDK/GD32VW55x_RELEASE_V1.0.2/MSDK/ble/app\app_per_sync_mgr.c ****        this list of conditions and the following disclaimer in the documentation
  18:C:/Users/stapi/OneDrive/Desktop/GD32VW553/GD32VW55X_Wifi_BLE_SDK/GD32VW55x_RELEASE_V1.0.2/MSDK/ble/app\app_per_sync_mgr.c ****        and/or other materials provided with the distribution.
  19:C:/Users/stapi/OneDrive/Desktop/GD32VW553/GD32VW55X_Wifi_BLE_SDK/GD32VW55x_RELEASE_V1.0.2/MSDK/ble/app\app_per_sync_mgr.c ****     3. Neither the name of the copyright holder nor the names of its contributors
  20:C:/Users/stapi/OneDrive/Desktop/GD32VW553/GD32VW55X_Wifi_BLE_SDK/GD32VW55x_RELEASE_V1.0.2/MSDK/ble/app\app_per_sync_mgr.c ****        may be used to endorse or promote products derived from this software without
  21:C:/Users/stapi/OneDrive/Desktop/GD32VW553/GD32VW55X_Wifi_BLE_SDK/GD32VW55x_RELEASE_V1.0.2/MSDK/ble/app\app_per_sync_mgr.c ****        specific prior written permission.
  22:C:/Users/stapi/OneDrive/Desktop/GD32VW553/GD32VW55X_Wifi_BLE_SDK/GD32VW55x_RELEASE_V1.0.2/MSDK/ble/app\app_per_sync_mgr.c **** 
  23:C:/Users/stapi/OneDrive/Desktop/GD32VW553/GD32VW55X_Wifi_BLE_SDK/GD32VW55x_RELEASE_V1.0.2/MSDK/ble/app\app_per_sync_mgr.c ****     THIS SOFTWARE IS PROVIDED BY THE COPYRIGHT HOLDERS AND CONTRIBUTORS "AS IS"
  24:C:/Users/stapi/OneDrive/Desktop/GD32VW553/GD32VW55X_Wifi_BLE_SDK/GD32VW55x_RELEASE_V1.0.2/MSDK/ble/app\app_per_sync_mgr.c **** AND ANY EXPRESS OR IMPLIED WARRANTIES, INCLUDING, BUT NOT LIMITED TO, THE IMPLIED
  25:C:/Users/stapi/OneDrive/Desktop/GD32VW553/GD32VW55X_Wifi_BLE_SDK/GD32VW55x_RELEASE_V1.0.2/MSDK/ble/app\app_per_sync_mgr.c **** WARRANTIES OF MERCHANTABILITY AND FITNESS FOR A PARTICULAR PURPOSE ARE DISCLAIMED.
  26:C:/Users/stapi/OneDrive/Desktop/GD32VW553/GD32VW55X_Wifi_BLE_SDK/GD32VW55x_RELEASE_V1.0.2/MSDK/ble/app\app_per_sync_mgr.c **** IN NO EVENT SHALL THE COPYRIGHT HOLDER OR CONTRIBUTORS BE LIABLE FOR ANY DIRECT,
  27:C:/Users/stapi/OneDrive/Desktop/GD32VW553/GD32VW55X_Wifi_BLE_SDK/GD32VW55x_RELEASE_V1.0.2/MSDK/ble/app\app_per_sync_mgr.c **** INDIRECT, INCIDENTAL, SPECIAL, EXEMPLARY, OR CONSEQUENTIAL DAMAGES (INCLUDING, BUT
  28:C:/Users/stapi/OneDrive/Desktop/GD32VW553/GD32VW55X_Wifi_BLE_SDK/GD32VW55x_RELEASE_V1.0.2/MSDK/ble/app\app_per_sync_mgr.c **** NOT LIMITED TO, PROCUREMENT OF SUBSTITUTE GOODS OR SERVICES; LOSS OF USE, DATA, OR
  29:C:/Users/stapi/OneDrive/Desktop/GD32VW553/GD32VW55X_Wifi_BLE_SDK/GD32VW55x_RELEASE_V1.0.2/MSDK/ble/app\app_per_sync_mgr.c **** PROFITS; OR BUSINESS INTERRUPTION) HOWEVER CAUSED AND ON ANY THEORY OF LIABILITY,
  30:C:/Users/stapi/OneDrive/Desktop/GD32VW553/GD32VW55X_Wifi_BLE_SDK/GD32VW55x_RELEASE_V1.0.2/MSDK/ble/app\app_per_sync_mgr.c **** WHETHER IN CONTRACT, STRICT LIABILITY, OR TORT (INCLUDING NEGLIGENCE OR OTHERWISE)
  31:C:/Users/stapi/OneDrive/Desktop/GD32VW553/GD32VW55X_Wifi_BLE_SDK/GD32VW55x_RELEASE_V1.0.2/MSDK/ble/app\app_per_sync_mgr.c **** ARISING IN ANY WAY OUT OF THE USE OF THIS SOFTWARE, EVEN IF ADVISED OF THE POSSIBILITY
  32:C:/Users/stapi/OneDrive/Desktop/GD32VW553/GD32VW55X_Wifi_BLE_SDK/GD32VW55x_RELEASE_V1.0.2/MSDK/ble/app\app_per_sync_mgr.c **** OF SUCH DAMAGE.
  33:C:/Users/stapi/OneDrive/Desktop/GD32VW553/GD32VW55X_Wifi_BLE_SDK/GD32VW55x_RELEASE_V1.0.2/MSDK/ble/app\app_per_sync_mgr.c **** */
  34:C:/Users/stapi/OneDrive/Desktop/GD32VW553/GD32VW55X_Wifi_BLE_SDK/GD32VW55x_RELEASE_V1.0.2/MSDK/ble/app\app_per_sync_mgr.c **** 
  35:C:/Users/stapi/OneDrive/Desktop/GD32VW553/GD32VW55X_Wifi_BLE_SDK/GD32VW55x_RELEASE_V1.0.2/MSDK/ble/app\app_per_sync_mgr.c **** #include "ble_app_config.h"
  36:C:/Users/stapi/OneDrive/Desktop/GD32VW553/GD32VW55X_Wifi_BLE_SDK/GD32VW55x_RELEASE_V1.0.2/MSDK/ble/app\app_per_sync_mgr.c **** 
  37:C:/Users/stapi/OneDrive/Desktop/GD32VW553/GD32VW55X_Wifi_BLE_SDK/GD32VW55x_RELEASE_V1.0.2/MSDK/ble/app\app_per_sync_mgr.c **** #if (BLE_APP_SUPPORT && BLE_APP_PER_ADV_SUPPORT)
  38:C:/Users/stapi/OneDrive/Desktop/GD32VW553/GD32VW55X_Wifi_BLE_SDK/GD32VW55x_RELEASE_V1.0.2/MSDK/ble/app\app_per_sync_mgr.c **** #include <string.h>
  39:C:/Users/stapi/OneDrive/Desktop/GD32VW553/GD32VW55X_Wifi_BLE_SDK/GD32VW55x_RELEASE_V1.0.2/MSDK/ble/app\app_per_sync_mgr.c **** #include "ble_per_sync.h"
  40:C:/Users/stapi/OneDrive/Desktop/GD32VW553/GD32VW55X_Wifi_BLE_SDK/GD32VW55x_RELEASE_V1.0.2/MSDK/ble/app\app_per_sync_mgr.c **** #include "app_per_sync_mgr.h"
  41:C:/Users/stapi/OneDrive/Desktop/GD32VW553/GD32VW55X_Wifi_BLE_SDK/GD32VW55x_RELEASE_V1.0.2/MSDK/ble/app\app_per_sync_mgr.c **** 
  42:C:/Users/stapi/OneDrive/Desktop/GD32VW553/GD32VW55X_Wifi_BLE_SDK/GD32VW55x_RELEASE_V1.0.2/MSDK/ble/app\app_per_sync_mgr.c **** #include "wrapper_os.h"
  43:C:/Users/stapi/OneDrive/Desktop/GD32VW553/GD32VW55X_Wifi_BLE_SDK/GD32VW55x_RELEASE_V1.0.2/MSDK/ble/app\app_per_sync_mgr.c **** #include "dbg_print.h"
  44:C:/Users/stapi/OneDrive/Desktop/GD32VW553/GD32VW55X_Wifi_BLE_SDK/GD32VW55x_RELEASE_V1.0.2/MSDK/ble/app\app_per_sync_mgr.c **** 
  45:C:/Users/stapi/OneDrive/Desktop/GD32VW553/GD32VW55X_Wifi_BLE_SDK/GD32VW55x_RELEASE_V1.0.2/MSDK/ble/app\app_per_sync_mgr.c **** /* Application periodic sync manager environment structure */
  46:C:/Users/stapi/OneDrive/Desktop/GD32VW553/GD32VW55X_Wifi_BLE_SDK/GD32VW55x_RELEASE_V1.0.2/MSDK/ble/app\app_per_sync_mgr.c **** typedef struct sync_mgr_cb
  47:C:/Users/stapi/OneDrive/Desktop/GD32VW553/GD32VW55X_Wifi_BLE_SDK/GD32VW55x_RELEASE_V1.0.2/MSDK/ble/app\app_per_sync_mgr.c **** {
  48:C:/Users/stapi/OneDrive/Desktop/GD32VW553/GD32VW55X_Wifi_BLE_SDK/GD32VW55x_RELEASE_V1.0.2/MSDK/ble/app\app_per_sync_mgr.c ****     dlist_t devs_list;
  49:C:/Users/stapi/OneDrive/Desktop/GD32VW553/GD32VW55X_Wifi_BLE_SDK/GD32VW55x_RELEASE_V1.0.2/MSDK/ble/app\app_per_sync_mgr.c **** } sync_mgr_cb_t;
  50:C:/Users/stapi/OneDrive/Desktop/GD32VW553/GD32VW55X_Wifi_BLE_SDK/GD32VW55x_RELEASE_V1.0.2/MSDK/ble/app\app_per_sync_mgr.c **** 
  51:C:/Users/stapi/OneDrive/Desktop/GD32VW553/GD32VW55X_Wifi_BLE_SDK/GD32VW55x_RELEASE_V1.0.2/MSDK/ble/app\app_per_sync_mgr.c **** /* Application periodic sync manager environment data */
  52:C:/Users/stapi/OneDrive/Desktop/GD32VW553/GD32VW55X_Wifi_BLE_SDK/GD32VW55x_RELEASE_V1.0.2/MSDK/ble/app\app_per_sync_mgr.c **** static sync_mgr_cb_t ble_sync_mgr_cb;
  53:C:/Users/stapi/OneDrive/Desktop/GD32VW553/GD32VW55X_Wifi_BLE_SDK/GD32VW55x_RELEASE_V1.0.2/MSDK/ble/app\app_per_sync_mgr.c **** 
  54:C:/Users/stapi/OneDrive/Desktop/GD32VW553/GD32VW55X_Wifi_BLE_SDK/GD32VW55x_RELEASE_V1.0.2/MSDK/ble/app\app_per_sync_mgr.c **** /*!
  55:C:/Users/stapi/OneDrive/Desktop/GD32VW553/GD32VW55X_Wifi_BLE_SDK/GD32VW55x_RELEASE_V1.0.2/MSDK/ble/app\app_per_sync_mgr.c ****     \brief      Find periodic sync device information by index
  56:C:/Users/stapi/OneDrive/Desktop/GD32VW553/GD32VW55X_Wifi_BLE_SDK/GD32VW55x_RELEASE_V1.0.2/MSDK/ble/app\app_per_sync_mgr.c ****     \param[in]  sync_idx: periodic sync index
  57:C:/Users/stapi/OneDrive/Desktop/GD32VW553/GD32VW55X_Wifi_BLE_SDK/GD32VW55x_RELEASE_V1.0.2/MSDK/ble/app\app_per_sync_mgr.c ****     \param[out] none
  58:C:/Users/stapi/OneDrive/Desktop/GD32VW553/GD32VW55X_Wifi_BLE_SDK/GD32VW55x_RELEASE_V1.0.2/MSDK/ble/app\app_per_sync_mgr.c ****     \retval     per_dev_info_t *: pointer to periodic sync device information found
  59:C:/Users/stapi/OneDrive/Desktop/GD32VW553/GD32VW55X_Wifi_BLE_SDK/GD32VW55x_RELEASE_V1.0.2/MSDK/ble/app\app_per_sync_mgr.c **** */
  60:C:/Users/stapi/OneDrive/Desktop/GD32VW553/GD32VW55X_Wifi_BLE_SDK/GD32VW55x_RELEASE_V1.0.2/MSDK/ble/app\app_per_sync_mgr.c **** static per_dev_info_t *sync_mgr_find_device_by_idx(uint8_t sync_idx)
  61:C:/Users/stapi/OneDrive/Desktop/GD32VW553/GD32VW55X_Wifi_BLE_SDK/GD32VW55x_RELEASE_V1.0.2/MSDK/ble/app\app_per_sync_mgr.c **** {
  15              		.loc 1 61 1
  16              		.cfi_startproc
  17              	.LVL0:
  18 0000 17030000 		call	t0,__riscv_save_2
  18      E7020300 
  19              		.cfi_offset 9, -12
  20              		.cfi_offset 8, -8
  21              		.cfi_offset 1, -4
  22              		.cfi_def_cfa_offset 16
  62:C:/Users/stapi/OneDrive/Desktop/GD32VW553/GD32VW55X_Wifi_BLE_SDK/GD32VW55x_RELEASE_V1.0.2/MSDK/ble/app\app_per_sync_mgr.c ****     per_dev_info_t *p_sync_dev = NULL;
  23              		.loc 1 62 5
  24              	.LVL1:
  63:C:/Users/stapi/OneDrive/Desktop/GD32VW553/GD32VW55X_Wifi_BLE_SDK/GD32VW55x_RELEASE_V1.0.2/MSDK/ble/app\app_per_sync_mgr.c ****     dlist_t *pos, *n;
  25              		.loc 1 63 5
  64:C:/Users/stapi/OneDrive/Desktop/GD32VW553/GD32VW55X_Wifi_BLE_SDK/GD32VW55x_RELEASE_V1.0.2/MSDK/ble/app\app_per_sync_mgr.c **** 
  65:C:/Users/stapi/OneDrive/Desktop/GD32VW553/GD32VW55X_Wifi_BLE_SDK/GD32VW55x_RELEASE_V1.0.2/MSDK/ble/app\app_per_sync_mgr.c ****     if (list_empty(&ble_sync_mgr_cb.devs_list)) {
  26              		.loc 1 65 5
  27              		.loc 1 65 9 is_stmt 0
  28 0008 37040000 		lui	s0,%hi(.LANCHOR0)
  61:C:/Users/stapi/OneDrive/Desktop/GD32VW553/GD32VW55X_Wifi_BLE_SDK/GD32VW55x_RELEASE_V1.0.2/MSDK/ble/app\app_per_sync_mgr.c ****     per_dev_info_t *p_sync_dev = NULL;
  29              		.loc 1 61 1
  30 000c AA84     		mv	s1,a0
  31              		.loc 1 65 9
  32 000e 13050400 		addi	a0,s0,%lo(.LANCHOR0)
  33              	.LVL2:
  34 0012 97000000 		call	list_empty
  34      E7800000 
  35              	.LVL3:
  36              		.loc 1 65 8
  37 001a 19E5     		bne	a0,zero,.L5
  38 001c 13040400 		addi	s0,s0,%lo(.LANCHOR0)
  66:C:/Users/stapi/OneDrive/Desktop/GD32VW553/GD32VW55X_Wifi_BLE_SDK/GD32VW55x_RELEASE_V1.0.2/MSDK/ble/app\app_per_sync_mgr.c ****         return NULL;
  67:C:/Users/stapi/OneDrive/Desktop/GD32VW553/GD32VW55X_Wifi_BLE_SDK/GD32VW55x_RELEASE_V1.0.2/MSDK/ble/app\app_per_sync_mgr.c ****     }
  68:C:/Users/stapi/OneDrive/Desktop/GD32VW553/GD32VW55X_Wifi_BLE_SDK/GD32VW55x_RELEASE_V1.0.2/MSDK/ble/app\app_per_sync_mgr.c **** 
  69:C:/Users/stapi/OneDrive/Desktop/GD32VW553/GD32VW55X_Wifi_BLE_SDK/GD32VW55x_RELEASE_V1.0.2/MSDK/ble/app\app_per_sync_mgr.c ****     list_for_each_safe(pos, n, &ble_sync_mgr_cb.devs_list) {
  39              		.loc 1 69 5 is_stmt 1
  40 0020 0840     		lw	a0,0(s0)
  41              	.LVL4:
  42 0022 1C41     		lw	a5,0(a0)
  43              	.LVL5:
  44              	.L3:
  45              		.loc 1 69 5 discriminator 1
  46 0024 63178500 		bne	a0,s0,.L4
  47              	.LVL6:
  48              	.L5:
  66:C:/Users/stapi/OneDrive/Desktop/GD32VW553/GD32VW55X_Wifi_BLE_SDK/GD32VW55x_RELEASE_V1.0.2/MSDK/ble/app\app_per_sync_mgr.c ****         return NULL;
  49              		.loc 1 66 16 is_stmt 0
  50 0028 0145     		li	a0,0
  51              	.L1:
  70:C:/Users/stapi/OneDrive/Desktop/GD32VW553/GD32VW55X_Wifi_BLE_SDK/GD32VW55x_RELEASE_V1.0.2/MSDK/ble/app\app_per_sync_mgr.c ****         p_sync_dev = list_entry(pos, per_dev_info_t, list);
  71:C:/Users/stapi/OneDrive/Desktop/GD32VW553/GD32VW55X_Wifi_BLE_SDK/GD32VW55x_RELEASE_V1.0.2/MSDK/ble/app\app_per_sync_mgr.c ****         if (p_sync_dev->sync_idx == sync_idx) {
  72:C:/Users/stapi/OneDrive/Desktop/GD32VW553/GD32VW55X_Wifi_BLE_SDK/GD32VW55x_RELEASE_V1.0.2/MSDK/ble/app\app_per_sync_mgr.c ****             return p_sync_dev;
  73:C:/Users/stapi/OneDrive/Desktop/GD32VW553/GD32VW55X_Wifi_BLE_SDK/GD32VW55x_RELEASE_V1.0.2/MSDK/ble/app\app_per_sync_mgr.c ****         }
  74:C:/Users/stapi/OneDrive/Desktop/GD32VW553/GD32VW55X_Wifi_BLE_SDK/GD32VW55x_RELEASE_V1.0.2/MSDK/ble/app\app_per_sync_mgr.c ****     }
  75:C:/Users/stapi/OneDrive/Desktop/GD32VW553/GD32VW55X_Wifi_BLE_SDK/GD32VW55x_RELEASE_V1.0.2/MSDK/ble/app\app_per_sync_mgr.c **** 
  76:C:/Users/stapi/OneDrive/Desktop/GD32VW553/GD32VW55X_Wifi_BLE_SDK/GD32VW55x_RELEASE_V1.0.2/MSDK/ble/app\app_per_sync_mgr.c ****     return NULL;
  77:C:/Users/stapi/OneDrive/Desktop/GD32VW553/GD32VW55X_Wifi_BLE_SDK/GD32VW55x_RELEASE_V1.0.2/MSDK/ble/app\app_per_sync_mgr.c **** }
  52              		.loc 1 77 1
  53 002a 17030000 		tail	__riscv_restore_2
  53      67000300 
  54              		.cfi_remember_state
  55              		.cfi_restore 9
  56              		.cfi_restore 8
  57              		.cfi_restore 1
  58              		.cfi_def_cfa_offset 0
  59              	.LVL7:
  60              	.L4:
  61              		.cfi_restore_state
  70:C:/Users/stapi/OneDrive/Desktop/GD32VW553/GD32VW55X_Wifi_BLE_SDK/GD32VW55x_RELEASE_V1.0.2/MSDK/ble/app\app_per_sync_mgr.c ****         p_sync_dev = list_entry(pos, per_dev_info_t, list);
  62              		.loc 1 70 9 is_stmt 1
  71:C:/Users/stapi/OneDrive/Desktop/GD32VW553/GD32VW55X_Wifi_BLE_SDK/GD32VW55x_RELEASE_V1.0.2/MSDK/ble/app\app_per_sync_mgr.c ****             return p_sync_dev;
  63              		.loc 1 71 9
  71:C:/Users/stapi/OneDrive/Desktop/GD32VW553/GD32VW55X_Wifi_BLE_SDK/GD32VW55x_RELEASE_V1.0.2/MSDK/ble/app\app_per_sync_mgr.c ****             return p_sync_dev;
  64              		.loc 1 71 12 is_stmt 0
  65 0032 03478500 		lbu	a4,8(a0)
  66 0036 E30A97FE 		beq	a4,s1,.L1
  69:C:/Users/stapi/OneDrive/Desktop/GD32VW553/GD32VW55X_Wifi_BLE_SDK/GD32VW55x_RELEASE_V1.0.2/MSDK/ble/app\app_per_sync_mgr.c ****         p_sync_dev = list_entry(pos, per_dev_info_t, list);
  67              		.loc 1 69 5 is_stmt 1 discriminator 2
  68              	.LVL8:
  69 003a 3E85     		mv	a0,a5
  70              	.LVL9:
  71 003c 9C43     		lw	a5,0(a5)
  72              	.LVL10:
  73 003e DDB7     		j	.L3
  74              		.cfi_endproc
  75              	.LFE1:
  77              		.section	.text.ble_per_sync_clear_all_dev_list_flag,"ax",@progbits
  78              		.align	1
  79              		.globl	ble_per_sync_clear_all_dev_list_flag
  81              	ble_per_sync_clear_all_dev_list_flag:
  82              	.LFB3:
  78:C:/Users/stapi/OneDrive/Desktop/GD32VW553/GD32VW55X_Wifi_BLE_SDK/GD32VW55x_RELEASE_V1.0.2/MSDK/ble/app\app_per_sync_mgr.c **** 
  79:C:/Users/stapi/OneDrive/Desktop/GD32VW553/GD32VW55X_Wifi_BLE_SDK/GD32VW55x_RELEASE_V1.0.2/MSDK/ble/app\app_per_sync_mgr.c **** /*!
  80:C:/Users/stapi/OneDrive/Desktop/GD32VW553/GD32VW55X_Wifi_BLE_SDK/GD32VW55x_RELEASE_V1.0.2/MSDK/ble/app\app_per_sync_mgr.c ****     \brief      Callback function to handle BLE periodic sync events
  81:C:/Users/stapi/OneDrive/Desktop/GD32VW553/GD32VW55X_Wifi_BLE_SDK/GD32VW55x_RELEASE_V1.0.2/MSDK/ble/app\app_per_sync_mgr.c ****     \param[in]  event: BLE periodic sync event type
  82:C:/Users/stapi/OneDrive/Desktop/GD32VW553/GD32VW55X_Wifi_BLE_SDK/GD32VW55x_RELEASE_V1.0.2/MSDK/ble/app\app_per_sync_mgr.c ****     \param[in]  p_data: pointer to BLE periodic sync event data
  83:C:/Users/stapi/OneDrive/Desktop/GD32VW553/GD32VW55X_Wifi_BLE_SDK/GD32VW55x_RELEASE_V1.0.2/MSDK/ble/app\app_per_sync_mgr.c ****     \param[out] none
  84:C:/Users/stapi/OneDrive/Desktop/GD32VW553/GD32VW55X_Wifi_BLE_SDK/GD32VW55x_RELEASE_V1.0.2/MSDK/ble/app\app_per_sync_mgr.c ****     \retval     none
  85:C:/Users/stapi/OneDrive/Desktop/GD32VW553/GD32VW55X_Wifi_BLE_SDK/GD32VW55x_RELEASE_V1.0.2/MSDK/ble/app\app_per_sync_mgr.c **** */
  86:C:/Users/stapi/OneDrive/Desktop/GD32VW553/GD32VW55X_Wifi_BLE_SDK/GD32VW55x_RELEASE_V1.0.2/MSDK/ble/app\app_per_sync_mgr.c **** static void ble_per_sync_evt_handler(ble_per_sync_evt_t event, ble_per_sync_data_u *p_data)
  87:C:/Users/stapi/OneDrive/Desktop/GD32VW553/GD32VW55X_Wifi_BLE_SDK/GD32VW55x_RELEASE_V1.0.2/MSDK/ble/app\app_per_sync_mgr.c **** {
  88:C:/Users/stapi/OneDrive/Desktop/GD32VW553/GD32VW55X_Wifi_BLE_SDK/GD32VW55x_RELEASE_V1.0.2/MSDK/ble/app\app_per_sync_mgr.c ****     per_dev_info_t *p_sync_dev = NULL;
  89:C:/Users/stapi/OneDrive/Desktop/GD32VW553/GD32VW55X_Wifi_BLE_SDK/GD32VW55x_RELEASE_V1.0.2/MSDK/ble/app\app_per_sync_mgr.c ****     switch (event) {
  90:C:/Users/stapi/OneDrive/Desktop/GD32VW553/GD32VW55X_Wifi_BLE_SDK/GD32VW55x_RELEASE_V1.0.2/MSDK/ble/app\app_per_sync_mgr.c ****     case BLE_PER_SYNC_EVT_STATE_CHG:
  91:C:/Users/stapi/OneDrive/Desktop/GD32VW553/GD32VW55X_Wifi_BLE_SDK/GD32VW55x_RELEASE_V1.0.2/MSDK/ble/app\app_per_sync_mgr.c ****         dbg_print(NOTICE, "periodic sync idx %u, state %u \r\n", p_data->sync_state.sync_idx,
  92:C:/Users/stapi/OneDrive/Desktop/GD32VW553/GD32VW55X_Wifi_BLE_SDK/GD32VW55x_RELEASE_V1.0.2/MSDK/ble/app\app_per_sync_mgr.c ****                p_data->sync_state.state);
  93:C:/Users/stapi/OneDrive/Desktop/GD32VW553/GD32VW55X_Wifi_BLE_SDK/GD32VW55x_RELEASE_V1.0.2/MSDK/ble/app\app_per_sync_mgr.c ****         break;
  94:C:/Users/stapi/OneDrive/Desktop/GD32VW553/GD32VW55X_Wifi_BLE_SDK/GD32VW55x_RELEASE_V1.0.2/MSDK/ble/app\app_per_sync_mgr.c **** 
  95:C:/Users/stapi/OneDrive/Desktop/GD32VW553/GD32VW55X_Wifi_BLE_SDK/GD32VW55x_RELEASE_V1.0.2/MSDK/ble/app\app_per_sync_mgr.c ****     case BLE_PER_SYNC_EVT_ESTABLISHED:
  96:C:/Users/stapi/OneDrive/Desktop/GD32VW553/GD32VW55X_Wifi_BLE_SDK/GD32VW55x_RELEASE_V1.0.2/MSDK/ble/app\app_per_sync_mgr.c ****         dbg_print(NOTICE, "periodic device synced. sync idx %u, addr %02X:%02X:%02X:%02X:%02X:%02X 
  97:C:/Users/stapi/OneDrive/Desktop/GD32VW553/GD32VW55X_Wifi_BLE_SDK/GD32VW55x_RELEASE_V1.0.2/MSDK/ble/app\app_per_sync_mgr.c ****                p_data->establish.param.actv_idx, p_data->establish.param.addr.addr[5],
  98:C:/Users/stapi/OneDrive/Desktop/GD32VW553/GD32VW55X_Wifi_BLE_SDK/GD32VW55x_RELEASE_V1.0.2/MSDK/ble/app\app_per_sync_mgr.c ****                p_data->establish.param.addr.addr[4], p_data->establish.param.addr.addr[3],
  99:C:/Users/stapi/OneDrive/Desktop/GD32VW553/GD32VW55X_Wifi_BLE_SDK/GD32VW55x_RELEASE_V1.0.2/MSDK/ble/app\app_per_sync_mgr.c ****                p_data->establish.param.addr.addr[2], p_data->establish.param.addr.addr[1],
 100:C:/Users/stapi/OneDrive/Desktop/GD32VW553/GD32VW55X_Wifi_BLE_SDK/GD32VW55x_RELEASE_V1.0.2/MSDK/ble/app\app_per_sync_mgr.c ****                p_data->establish.param.addr.addr[0]);
 101:C:/Users/stapi/OneDrive/Desktop/GD32VW553/GD32VW55X_Wifi_BLE_SDK/GD32VW55x_RELEASE_V1.0.2/MSDK/ble/app\app_per_sync_mgr.c ****         p_sync_dev = ble_per_sync_mgr_find_alloc_device(&p_data->establish.param.addr,
 102:C:/Users/stapi/OneDrive/Desktop/GD32VW553/GD32VW55X_Wifi_BLE_SDK/GD32VW55x_RELEASE_V1.0.2/MSDK/ble/app\app_per_sync_mgr.c ****                                                         p_data->establish.param.adv_sid,
 103:C:/Users/stapi/OneDrive/Desktop/GD32VW553/GD32VW55X_Wifi_BLE_SDK/GD32VW55x_RELEASE_V1.0.2/MSDK/ble/app\app_per_sync_mgr.c ****                                                         p_data->establish.param.intv);
 104:C:/Users/stapi/OneDrive/Desktop/GD32VW553/GD32VW55X_Wifi_BLE_SDK/GD32VW55x_RELEASE_V1.0.2/MSDK/ble/app\app_per_sync_mgr.c ****         if (p_sync_dev) {
 105:C:/Users/stapi/OneDrive/Desktop/GD32VW553/GD32VW55X_Wifi_BLE_SDK/GD32VW55x_RELEASE_V1.0.2/MSDK/ble/app\app_per_sync_mgr.c ****             p_sync_dev->sync_idx = p_data->establish.param.actv_idx;
 106:C:/Users/stapi/OneDrive/Desktop/GD32VW553/GD32VW55X_Wifi_BLE_SDK/GD32VW55x_RELEASE_V1.0.2/MSDK/ble/app\app_per_sync_mgr.c ****             p_sync_dev->phy = p_data->establish.param.phy;
 107:C:/Users/stapi/OneDrive/Desktop/GD32VW553/GD32VW55X_Wifi_BLE_SDK/GD32VW55x_RELEASE_V1.0.2/MSDK/ble/app\app_per_sync_mgr.c ****             p_sync_dev->period_adv_intv = p_data->establish.param.intv;
 108:C:/Users/stapi/OneDrive/Desktop/GD32VW553/GD32VW55X_Wifi_BLE_SDK/GD32VW55x_RELEASE_V1.0.2/MSDK/ble/app\app_per_sync_mgr.c ****             p_sync_dev->serv_data = p_data->establish.param.serv_data;
 109:C:/Users/stapi/OneDrive/Desktop/GD32VW553/GD32VW55X_Wifi_BLE_SDK/GD32VW55x_RELEASE_V1.0.2/MSDK/ble/app\app_per_sync_mgr.c ****         }
 110:C:/Users/stapi/OneDrive/Desktop/GD32VW553/GD32VW55X_Wifi_BLE_SDK/GD32VW55x_RELEASE_V1.0.2/MSDK/ble/app\app_per_sync_mgr.c ****         break;
 111:C:/Users/stapi/OneDrive/Desktop/GD32VW553/GD32VW55X_Wifi_BLE_SDK/GD32VW55x_RELEASE_V1.0.2/MSDK/ble/app\app_per_sync_mgr.c **** 
 112:C:/Users/stapi/OneDrive/Desktop/GD32VW553/GD32VW55X_Wifi_BLE_SDK/GD32VW55x_RELEASE_V1.0.2/MSDK/ble/app\app_per_sync_mgr.c ****     case BLE_PER_SYNC_EVT_REPORT: {
 113:C:/Users/stapi/OneDrive/Desktop/GD32VW553/GD32VW55X_Wifi_BLE_SDK/GD32VW55x_RELEASE_V1.0.2/MSDK/ble/app\app_per_sync_mgr.c ****         ble_gap_adv_report_info_t  *p_report = p_data->report.p_report;
 114:C:/Users/stapi/OneDrive/Desktop/GD32VW553/GD32VW55X_Wifi_BLE_SDK/GD32VW55x_RELEASE_V1.0.2/MSDK/ble/app\app_per_sync_mgr.c ****         p_sync_dev = sync_mgr_find_device_by_idx(p_report->actv_idx);
 115:C:/Users/stapi/OneDrive/Desktop/GD32VW553/GD32VW55X_Wifi_BLE_SDK/GD32VW55x_RELEASE_V1.0.2/MSDK/ble/app\app_per_sync_mgr.c **** 
 116:C:/Users/stapi/OneDrive/Desktop/GD32VW553/GD32VW55X_Wifi_BLE_SDK/GD32VW55x_RELEASE_V1.0.2/MSDK/ble/app\app_per_sync_mgr.c ****         if (p_sync_dev) {
 117:C:/Users/stapi/OneDrive/Desktop/GD32VW553/GD32VW55X_Wifi_BLE_SDK/GD32VW55x_RELEASE_V1.0.2/MSDK/ble/app\app_per_sync_mgr.c ****             dbg_print(NOTICE, "periodic device reported, addr %02X:%02X:%02X:%02X:%02X:%02X \r\n",
 118:C:/Users/stapi/OneDrive/Desktop/GD32VW553/GD32VW55X_Wifi_BLE_SDK/GD32VW55x_RELEASE_V1.0.2/MSDK/ble/app\app_per_sync_mgr.c ****                    p_sync_dev->sync_info.addr[5], p_sync_dev->sync_info.addr[4], p_sync_dev->sync_i
 119:C:/Users/stapi/OneDrive/Desktop/GD32VW553/GD32VW55X_Wifi_BLE_SDK/GD32VW55x_RELEASE_V1.0.2/MSDK/ble/app\app_per_sync_mgr.c ****                    p_sync_dev->sync_info.addr[2], p_sync_dev->sync_info.addr[1], p_sync_dev->sync_i
 120:C:/Users/stapi/OneDrive/Desktop/GD32VW553/GD32VW55X_Wifi_BLE_SDK/GD32VW55x_RELEASE_V1.0.2/MSDK/ble/app\app_per_sync_mgr.c ****         }
 121:C:/Users/stapi/OneDrive/Desktop/GD32VW553/GD32VW55X_Wifi_BLE_SDK/GD32VW55x_RELEASE_V1.0.2/MSDK/ble/app\app_per_sync_mgr.c ****     }
 122:C:/Users/stapi/OneDrive/Desktop/GD32VW553/GD32VW55X_Wifi_BLE_SDK/GD32VW55x_RELEASE_V1.0.2/MSDK/ble/app\app_per_sync_mgr.c ****     break;
 123:C:/Users/stapi/OneDrive/Desktop/GD32VW553/GD32VW55X_Wifi_BLE_SDK/GD32VW55x_RELEASE_V1.0.2/MSDK/ble/app\app_per_sync_mgr.c **** 
 124:C:/Users/stapi/OneDrive/Desktop/GD32VW553/GD32VW55X_Wifi_BLE_SDK/GD32VW55x_RELEASE_V1.0.2/MSDK/ble/app\app_per_sync_mgr.c ****     case BLE_PER_SYNC_EVT_RPT_CTRL_RSP: {
 125:C:/Users/stapi/OneDrive/Desktop/GD32VW553/GD32VW55X_Wifi_BLE_SDK/GD32VW55x_RELEASE_V1.0.2/MSDK/ble/app\app_per_sync_mgr.c ****         ble_per_sync_rpt_ctrl_rsp_t  *p_res = &p_data->rpt_ctrl_rsp;
 126:C:/Users/stapi/OneDrive/Desktop/GD32VW553/GD32VW55X_Wifi_BLE_SDK/GD32VW55x_RELEASE_V1.0.2/MSDK/ble/app\app_per_sync_mgr.c ****         p_sync_dev = sync_mgr_find_device_by_idx(p_res->param.actv_idx);
 127:C:/Users/stapi/OneDrive/Desktop/GD32VW553/GD32VW55X_Wifi_BLE_SDK/GD32VW55x_RELEASE_V1.0.2/MSDK/ble/app\app_per_sync_mgr.c **** 
 128:C:/Users/stapi/OneDrive/Desktop/GD32VW553/GD32VW55X_Wifi_BLE_SDK/GD32VW55x_RELEASE_V1.0.2/MSDK/ble/app\app_per_sync_mgr.c ****         if (p_sync_dev) {
 129:C:/Users/stapi/OneDrive/Desktop/GD32VW553/GD32VW55X_Wifi_BLE_SDK/GD32VW55x_RELEASE_V1.0.2/MSDK/ble/app\app_per_sync_mgr.c ****             dbg_print(NOTICE, "periodic device report ctrl status 0x%x \r\n", p_res->param.status);
 130:C:/Users/stapi/OneDrive/Desktop/GD32VW553/GD32VW55X_Wifi_BLE_SDK/GD32VW55x_RELEASE_V1.0.2/MSDK/ble/app\app_per_sync_mgr.c ****         }
 131:C:/Users/stapi/OneDrive/Desktop/GD32VW553/GD32VW55X_Wifi_BLE_SDK/GD32VW55x_RELEASE_V1.0.2/MSDK/ble/app\app_per_sync_mgr.c ****     }
 132:C:/Users/stapi/OneDrive/Desktop/GD32VW553/GD32VW55X_Wifi_BLE_SDK/GD32VW55x_RELEASE_V1.0.2/MSDK/ble/app\app_per_sync_mgr.c ****     break;
 133:C:/Users/stapi/OneDrive/Desktop/GD32VW553/GD32VW55X_Wifi_BLE_SDK/GD32VW55x_RELEASE_V1.0.2/MSDK/ble/app\app_per_sync_mgr.c **** 
 134:C:/Users/stapi/OneDrive/Desktop/GD32VW553/GD32VW55X_Wifi_BLE_SDK/GD32VW55x_RELEASE_V1.0.2/MSDK/ble/app\app_per_sync_mgr.c ****     default:
 135:C:/Users/stapi/OneDrive/Desktop/GD32VW553/GD32VW55X_Wifi_BLE_SDK/GD32VW55x_RELEASE_V1.0.2/MSDK/ble/app\app_per_sync_mgr.c ****         break;
 136:C:/Users/stapi/OneDrive/Desktop/GD32VW553/GD32VW55X_Wifi_BLE_SDK/GD32VW55x_RELEASE_V1.0.2/MSDK/ble/app\app_per_sync_mgr.c ****     }
 137:C:/Users/stapi/OneDrive/Desktop/GD32VW553/GD32VW55X_Wifi_BLE_SDK/GD32VW55x_RELEASE_V1.0.2/MSDK/ble/app\app_per_sync_mgr.c **** }
 138:C:/Users/stapi/OneDrive/Desktop/GD32VW553/GD32VW55X_Wifi_BLE_SDK/GD32VW55x_RELEASE_V1.0.2/MSDK/ble/app\app_per_sync_mgr.c **** 
 139:C:/Users/stapi/OneDrive/Desktop/GD32VW553/GD32VW55X_Wifi_BLE_SDK/GD32VW55x_RELEASE_V1.0.2/MSDK/ble/app\app_per_sync_mgr.c **** /*!
 140:C:/Users/stapi/OneDrive/Desktop/GD32VW553/GD32VW55X_Wifi_BLE_SDK/GD32VW55x_RELEASE_V1.0.2/MSDK/ble/app\app_per_sync_mgr.c ****     \brief      Clear PAL flag of all devices in the list
 141:C:/Users/stapi/OneDrive/Desktop/GD32VW553/GD32VW55X_Wifi_BLE_SDK/GD32VW55x_RELEASE_V1.0.2/MSDK/ble/app\app_per_sync_mgr.c ****     \param[in]  none
 142:C:/Users/stapi/OneDrive/Desktop/GD32VW553/GD32VW55X_Wifi_BLE_SDK/GD32VW55x_RELEASE_V1.0.2/MSDK/ble/app\app_per_sync_mgr.c ****     \param[out] none
 143:C:/Users/stapi/OneDrive/Desktop/GD32VW553/GD32VW55X_Wifi_BLE_SDK/GD32VW55x_RELEASE_V1.0.2/MSDK/ble/app\app_per_sync_mgr.c ****     \retval     none
 144:C:/Users/stapi/OneDrive/Desktop/GD32VW553/GD32VW55X_Wifi_BLE_SDK/GD32VW55x_RELEASE_V1.0.2/MSDK/ble/app\app_per_sync_mgr.c **** */
 145:C:/Users/stapi/OneDrive/Desktop/GD32VW553/GD32VW55X_Wifi_BLE_SDK/GD32VW55x_RELEASE_V1.0.2/MSDK/ble/app\app_per_sync_mgr.c **** void ble_per_sync_clear_all_dev_list_flag(void)
 146:C:/Users/stapi/OneDrive/Desktop/GD32VW553/GD32VW55X_Wifi_BLE_SDK/GD32VW55x_RELEASE_V1.0.2/MSDK/ble/app\app_per_sync_mgr.c **** {
  83              		.loc 1 146 1
  84              		.cfi_startproc
  85 0000 17030000 		call	t0,__riscv_save_1
  85      E7020300 
  86              		.cfi_offset 8, -8
  87              		.cfi_offset 1, -4
  88              		.cfi_def_cfa_offset 16
 147:C:/Users/stapi/OneDrive/Desktop/GD32VW553/GD32VW55X_Wifi_BLE_SDK/GD32VW55x_RELEASE_V1.0.2/MSDK/ble/app\app_per_sync_mgr.c ****     per_dev_info_t *p_sync_dev = NULL;
  89              		.loc 1 147 5
  90              	.LVL11:
 148:C:/Users/stapi/OneDrive/Desktop/GD32VW553/GD32VW55X_Wifi_BLE_SDK/GD32VW55x_RELEASE_V1.0.2/MSDK/ble/app\app_per_sync_mgr.c ****     dlist_t *pos, *n;
  91              		.loc 1 148 5
 149:C:/Users/stapi/OneDrive/Desktop/GD32VW553/GD32VW55X_Wifi_BLE_SDK/GD32VW55x_RELEASE_V1.0.2/MSDK/ble/app\app_per_sync_mgr.c **** 
 150:C:/Users/stapi/OneDrive/Desktop/GD32VW553/GD32VW55X_Wifi_BLE_SDK/GD32VW55x_RELEASE_V1.0.2/MSDK/ble/app\app_per_sync_mgr.c ****     if (list_empty(&ble_sync_mgr_cb.devs_list)) {
  92              		.loc 1 150 5
  93              		.loc 1 150 9 is_stmt 0
  94 0008 37040000 		lui	s0,%hi(.LANCHOR0)
  95 000c 13050400 		addi	a0,s0,%lo(.LANCHOR0)
  96 0010 97000000 		call	list_empty
  96      E7800000 
  97              	.LVL12:
  98              		.loc 1 150 8
  99 0018 19E5     		bne	a0,zero,.L7
 100 001a 13040400 		addi	s0,s0,%lo(.LANCHOR0)
 151:C:/Users/stapi/OneDrive/Desktop/GD32VW553/GD32VW55X_Wifi_BLE_SDK/GD32VW55x_RELEASE_V1.0.2/MSDK/ble/app\app_per_sync_mgr.c ****         return;
 152:C:/Users/stapi/OneDrive/Desktop/GD32VW553/GD32VW55X_Wifi_BLE_SDK/GD32VW55x_RELEASE_V1.0.2/MSDK/ble/app\app_per_sync_mgr.c ****     }
 153:C:/Users/stapi/OneDrive/Desktop/GD32VW553/GD32VW55X_Wifi_BLE_SDK/GD32VW55x_RELEASE_V1.0.2/MSDK/ble/app\app_per_sync_mgr.c **** 
 154:C:/Users/stapi/OneDrive/Desktop/GD32VW553/GD32VW55X_Wifi_BLE_SDK/GD32VW55x_RELEASE_V1.0.2/MSDK/ble/app\app_per_sync_mgr.c ****     list_for_each_safe(pos, n, &ble_sync_mgr_cb.devs_list) {
 101              		.loc 1 154 5 is_stmt 1
 102 001e 1C40     		lw	a5,0(s0)
 103              	.LVL13:
 104 0020 9843     		lw	a4,0(a5)
 105              	.LVL14:
 106              	.L9:
 107              		.loc 1 154 5 discriminator 1
 108 0022 63968700 		bne	a5,s0,.L10
 109              	.LVL15:
 110              	.L7:
 155:C:/Users/stapi/OneDrive/Desktop/GD32VW553/GD32VW55X_Wifi_BLE_SDK/GD32VW55x_RELEASE_V1.0.2/MSDK/ble/app\app_per_sync_mgr.c ****         p_sync_dev = list_entry(pos, per_dev_info_t, list);
 156:C:/Users/stapi/OneDrive/Desktop/GD32VW553/GD32VW55X_Wifi_BLE_SDK/GD32VW55x_RELEASE_V1.0.2/MSDK/ble/app\app_per_sync_mgr.c ****         p_sync_dev->in_pal = false;
 157:C:/Users/stapi/OneDrive/Desktop/GD32VW553/GD32VW55X_Wifi_BLE_SDK/GD32VW55x_RELEASE_V1.0.2/MSDK/ble/app\app_per_sync_mgr.c ****     }
 158:C:/Users/stapi/OneDrive/Desktop/GD32VW553/GD32VW55X_Wifi_BLE_SDK/GD32VW55x_RELEASE_V1.0.2/MSDK/ble/app\app_per_sync_mgr.c **** }
 111              		.loc 1 158 1 is_stmt 0
 112 0026 17030000 		tail	__riscv_restore_1
 112      67000300 
 113              		.cfi_remember_state
 114              		.cfi_restore 8
 115              		.cfi_restore 1
 116              		.cfi_def_cfa_offset 0
 117              	.LVL16:
 118              	.L10:
 119              		.cfi_restore_state
 155:C:/Users/stapi/OneDrive/Desktop/GD32VW553/GD32VW55X_Wifi_BLE_SDK/GD32VW55x_RELEASE_V1.0.2/MSDK/ble/app\app_per_sync_mgr.c ****         p_sync_dev = list_entry(pos, per_dev_info_t, list);
 120              		.loc 1 155 9 is_stmt 1 discriminator 3
 156:C:/Users/stapi/OneDrive/Desktop/GD32VW553/GD32VW55X_Wifi_BLE_SDK/GD32VW55x_RELEASE_V1.0.2/MSDK/ble/app\app_per_sync_mgr.c ****     }
 121              		.loc 1 156 9 discriminator 3
 156:C:/Users/stapi/OneDrive/Desktop/GD32VW553/GD32VW55X_Wifi_BLE_SDK/GD32VW55x_RELEASE_V1.0.2/MSDK/ble/app\app_per_sync_mgr.c ****     }
 122              		.loc 1 156 28 is_stmt 0 discriminator 3
 123 002e A3840700 		sb	zero,9(a5)
 154:C:/Users/stapi/OneDrive/Desktop/GD32VW553/GD32VW55X_Wifi_BLE_SDK/GD32VW55x_RELEASE_V1.0.2/MSDK/ble/app\app_per_sync_mgr.c ****         p_sync_dev = list_entry(pos, per_dev_info_t, list);
 124              		.loc 1 154 5 is_stmt 1 discriminator 3
 125              	.LVL17:
 126 0032 BA87     		mv	a5,a4
 127              	.LVL18:
 128 0034 1843     		lw	a4,0(a4)
 129              	.LVL19:
 130 0036 F5B7     		j	.L9
 131              		.cfi_endproc
 132              	.LFE3:
 134              		.section	.text.ble_per_sync_mgr_find_device,"ax",@progbits
 135              		.align	1
 136              		.globl	ble_per_sync_mgr_find_device
 138              	ble_per_sync_mgr_find_device:
 139              	.LFB4:
 159:C:/Users/stapi/OneDrive/Desktop/GD32VW553/GD32VW55X_Wifi_BLE_SDK/GD32VW55x_RELEASE_V1.0.2/MSDK/ble/app\app_per_sync_mgr.c **** 
 160:C:/Users/stapi/OneDrive/Desktop/GD32VW553/GD32VW55X_Wifi_BLE_SDK/GD32VW55x_RELEASE_V1.0.2/MSDK/ble/app\app_per_sync_mgr.c **** /*!
 161:C:/Users/stapi/OneDrive/Desktop/GD32VW553/GD32VW55X_Wifi_BLE_SDK/GD32VW55x_RELEASE_V1.0.2/MSDK/ble/app\app_per_sync_mgr.c ****     \brief      Find device in periodic sync manager list
 162:C:/Users/stapi/OneDrive/Desktop/GD32VW553/GD32VW55X_Wifi_BLE_SDK/GD32VW55x_RELEASE_V1.0.2/MSDK/ble/app\app_per_sync_mgr.c ****     \param[in]  p_peer_addr: pointer to peer address
 163:C:/Users/stapi/OneDrive/Desktop/GD32VW553/GD32VW55X_Wifi_BLE_SDK/GD32VW55x_RELEASE_V1.0.2/MSDK/ble/app\app_per_sync_mgr.c ****     \param[in]  adv_sid: advertising sid
 164:C:/Users/stapi/OneDrive/Desktop/GD32VW553/GD32VW55X_Wifi_BLE_SDK/GD32VW55x_RELEASE_V1.0.2/MSDK/ble/app\app_per_sync_mgr.c ****     \param[out] none
 165:C:/Users/stapi/OneDrive/Desktop/GD32VW553/GD32VW55X_Wifi_BLE_SDK/GD32VW55x_RELEASE_V1.0.2/MSDK/ble/app\app_per_sync_mgr.c ****     \retval     per_dev_info_t *: pointer to periodic sync device information found
 166:C:/Users/stapi/OneDrive/Desktop/GD32VW553/GD32VW55X_Wifi_BLE_SDK/GD32VW55x_RELEASE_V1.0.2/MSDK/ble/app\app_per_sync_mgr.c **** */
 167:C:/Users/stapi/OneDrive/Desktop/GD32VW553/GD32VW55X_Wifi_BLE_SDK/GD32VW55x_RELEASE_V1.0.2/MSDK/ble/app\app_per_sync_mgr.c **** per_dev_info_t *ble_per_sync_mgr_find_device(ble_gap_addr_t *p_peer_addr, uint8_t adv_sid)
 168:C:/Users/stapi/OneDrive/Desktop/GD32VW553/GD32VW55X_Wifi_BLE_SDK/GD32VW55x_RELEASE_V1.0.2/MSDK/ble/app\app_per_sync_mgr.c **** {
 140              		.loc 1 168 1
 141              		.cfi_startproc
 142              	.LVL20:
 143 0000 17030000 		call	t0,__riscv_save_6
 143      E7020300 
 144              		.cfi_offset 21, -28
 145              		.cfi_offset 20, -24
 146              		.cfi_offset 19, -20
 147              		.cfi_offset 18, -16
 148              		.cfi_offset 9, -12
 149              		.cfi_offset 8, -8
 150              		.cfi_offset 1, -4
 151              		.cfi_def_cfa_offset 32
 169:C:/Users/stapi/OneDrive/Desktop/GD32VW553/GD32VW55X_Wifi_BLE_SDK/GD32VW55x_RELEASE_V1.0.2/MSDK/ble/app\app_per_sync_mgr.c ****     per_dev_info_t *p_sync_dev = NULL;
 152              		.loc 1 169 5
 153              	.LVL21:
 170:C:/Users/stapi/OneDrive/Desktop/GD32VW553/GD32VW55X_Wifi_BLE_SDK/GD32VW55x_RELEASE_V1.0.2/MSDK/ble/app\app_per_sync_mgr.c ****     dlist_t *pos, *n;
 154              		.loc 1 170 5
 171:C:/Users/stapi/OneDrive/Desktop/GD32VW553/GD32VW55X_Wifi_BLE_SDK/GD32VW55x_RELEASE_V1.0.2/MSDK/ble/app\app_per_sync_mgr.c **** 
 172:C:/Users/stapi/OneDrive/Desktop/GD32VW553/GD32VW55X_Wifi_BLE_SDK/GD32VW55x_RELEASE_V1.0.2/MSDK/ble/app\app_per_sync_mgr.c ****     if (list_empty(&ble_sync_mgr_cb.devs_list)) {
 155              		.loc 1 172 5
 156              		.loc 1 172 9 is_stmt 0
 157 0008 B7040000 		lui	s1,%hi(.LANCHOR0)
 168:C:/Users/stapi/OneDrive/Desktop/GD32VW553/GD32VW55X_Wifi_BLE_SDK/GD32VW55x_RELEASE_V1.0.2/MSDK/ble/app\app_per_sync_mgr.c ****     per_dev_info_t *p_sync_dev = NULL;
 158              		.loc 1 168 1
 159 000c 2A89     		mv	s2,a0
 160              		.loc 1 172 9
 161 000e 13850400 		addi	a0,s1,%lo(.LANCHOR0)
 162              	.LVL22:
 168:C:/Users/stapi/OneDrive/Desktop/GD32VW553/GD32VW55X_Wifi_BLE_SDK/GD32VW55x_RELEASE_V1.0.2/MSDK/ble/app\app_per_sync_mgr.c ****     per_dev_info_t *p_sync_dev = NULL;
 163              		.loc 1 168 1
 164 0012 2E8A     		mv	s4,a1
 165              		.loc 1 172 9
 166 0014 97000000 		call	list_empty
 166      E7800000 
 167              	.LVL23:
 168              		.loc 1 172 8
 169 001c 11E9     		bne	a0,zero,.L18
 170 001e 93840400 		addi	s1,s1,%lo(.LANCHOR0)
 173:C:/Users/stapi/OneDrive/Desktop/GD32VW553/GD32VW55X_Wifi_BLE_SDK/GD32VW55x_RELEASE_V1.0.2/MSDK/ble/app\app_per_sync_mgr.c ****         return NULL;
 174:C:/Users/stapi/OneDrive/Desktop/GD32VW553/GD32VW55X_Wifi_BLE_SDK/GD32VW55x_RELEASE_V1.0.2/MSDK/ble/app\app_per_sync_mgr.c ****     }
 175:C:/Users/stapi/OneDrive/Desktop/GD32VW553/GD32VW55X_Wifi_BLE_SDK/GD32VW55x_RELEASE_V1.0.2/MSDK/ble/app\app_per_sync_mgr.c **** 
 176:C:/Users/stapi/OneDrive/Desktop/GD32VW553/GD32VW55X_Wifi_BLE_SDK/GD32VW55x_RELEASE_V1.0.2/MSDK/ble/app\app_per_sync_mgr.c ****     list_for_each_safe(pos, n, &ble_sync_mgr_cb.devs_list) {
 171              		.loc 1 176 5 is_stmt 1
 172 0022 8040     		lw	s0,0(s1)
 173              	.LVL24:
 177:C:/Users/stapi/OneDrive/Desktop/GD32VW553/GD32VW55X_Wifi_BLE_SDK/GD32VW55x_RELEASE_V1.0.2/MSDK/ble/app\app_per_sync_mgr.c ****         p_sync_dev = list_entry(pos, per_dev_info_t, list);
 178:C:/Users/stapi/OneDrive/Desktop/GD32VW553/GD32VW55X_Wifi_BLE_SDK/GD32VW55x_RELEASE_V1.0.2/MSDK/ble/app\app_per_sync_mgr.c ****         if (p_peer_addr->addr_type == p_sync_dev->sync_info.addr_type &&
 179:C:/Users/stapi/OneDrive/Desktop/GD32VW553/GD32VW55X_Wifi_BLE_SDK/GD32VW55x_RELEASE_V1.0.2/MSDK/ble/app\app_per_sync_mgr.c ****             adv_sid == p_sync_dev->sync_info.adv_sid &&
 180:C:/Users/stapi/OneDrive/Desktop/GD32VW553/GD32VW55X_Wifi_BLE_SDK/GD32VW55x_RELEASE_V1.0.2/MSDK/ble/app\app_per_sync_mgr.c ****             !memcmp(p_peer_addr->addr, p_sync_dev->sync_info.addr, BLE_GAP_ADDR_LEN)) {
 174              		.loc 1 180 14 is_stmt 0
 175 0024 930A1900 		addi	s5,s2,1
 176:C:/Users/stapi/OneDrive/Desktop/GD32VW553/GD32VW55X_Wifi_BLE_SDK/GD32VW55x_RELEASE_V1.0.2/MSDK/ble/app\app_per_sync_mgr.c ****         p_sync_dev = list_entry(pos, per_dev_info_t, list);
 176              		.loc 1 176 5
 177 0028 83290400 		lw	s3,0(s0)
 178              	.LVL25:
 179              	.L15:
 176:C:/Users/stapi/OneDrive/Desktop/GD32VW553/GD32VW55X_Wifi_BLE_SDK/GD32VW55x_RELEASE_V1.0.2/MSDK/ble/app\app_per_sync_mgr.c ****         p_sync_dev = list_entry(pos, per_dev_info_t, list);
 180              		.loc 1 176 5 is_stmt 1 discriminator 1
 181 002c 63189400 		bne	s0,s1,.L17
 182              	.LVL26:
 183              	.L18:
 173:C:/Users/stapi/OneDrive/Desktop/GD32VW553/GD32VW55X_Wifi_BLE_SDK/GD32VW55x_RELEASE_V1.0.2/MSDK/ble/app\app_per_sync_mgr.c ****         return NULL;
 184              		.loc 1 173 16 is_stmt 0
 185 0030 0144     		li	s0,0
 186              	.L13:
 181:C:/Users/stapi/OneDrive/Desktop/GD32VW553/GD32VW55X_Wifi_BLE_SDK/GD32VW55x_RELEASE_V1.0.2/MSDK/ble/app\app_per_sync_mgr.c ****             return p_sync_dev;
 182:C:/Users/stapi/OneDrive/Desktop/GD32VW553/GD32VW55X_Wifi_BLE_SDK/GD32VW55x_RELEASE_V1.0.2/MSDK/ble/app\app_per_sync_mgr.c ****         }
 183:C:/Users/stapi/OneDrive/Desktop/GD32VW553/GD32VW55X_Wifi_BLE_SDK/GD32VW55x_RELEASE_V1.0.2/MSDK/ble/app\app_per_sync_mgr.c ****     }
 184:C:/Users/stapi/OneDrive/Desktop/GD32VW553/GD32VW55X_Wifi_BLE_SDK/GD32VW55x_RELEASE_V1.0.2/MSDK/ble/app\app_per_sync_mgr.c **** 
 185:C:/Users/stapi/OneDrive/Desktop/GD32VW553/GD32VW55X_Wifi_BLE_SDK/GD32VW55x_RELEASE_V1.0.2/MSDK/ble/app\app_per_sync_mgr.c ****     return NULL;
 186:C:/Users/stapi/OneDrive/Desktop/GD32VW553/GD32VW55X_Wifi_BLE_SDK/GD32VW55x_RELEASE_V1.0.2/MSDK/ble/app\app_per_sync_mgr.c **** }
 187              		.loc 1 186 1
 188 0032 2285     		mv	a0,s0
 189 0034 17030000 		tail	__riscv_restore_6
 189      67000300 
 190              		.cfi_remember_state
 191              		.cfi_restore 21
 192              		.cfi_restore 20
 193              		.cfi_restore 19
 194              		.cfi_restore 18
 195              		.cfi_restore 9
 196              		.cfi_restore 8
 197              		.cfi_restore 1
 198              		.cfi_def_cfa_offset 0
 199              	.LVL27:
 200              	.L17:
 201              		.cfi_restore_state
 177:C:/Users/stapi/OneDrive/Desktop/GD32VW553/GD32VW55X_Wifi_BLE_SDK/GD32VW55x_RELEASE_V1.0.2/MSDK/ble/app\app_per_sync_mgr.c ****         if (p_peer_addr->addr_type == p_sync_dev->sync_info.addr_type &&
 202              		.loc 1 177 9 is_stmt 1
 178:C:/Users/stapi/OneDrive/Desktop/GD32VW553/GD32VW55X_Wifi_BLE_SDK/GD32VW55x_RELEASE_V1.0.2/MSDK/ble/app\app_per_sync_mgr.c ****             adv_sid == p_sync_dev->sync_info.adv_sid &&
 203              		.loc 1 178 9
 178:C:/Users/stapi/OneDrive/Desktop/GD32VW553/GD32VW55X_Wifi_BLE_SDK/GD32VW55x_RELEASE_V1.0.2/MSDK/ble/app\app_per_sync_mgr.c ****             adv_sid == p_sync_dev->sync_info.adv_sid &&
 204              		.loc 1 178 12 is_stmt 0
 205 003c 03470900 		lbu	a4,0(s2)
 206 0040 83476401 		lbu	a5,22(s0)
 207 0044 631FF700 		bne	a4,a5,.L16
 178:C:/Users/stapi/OneDrive/Desktop/GD32VW553/GD32VW55X_Wifi_BLE_SDK/GD32VW55x_RELEASE_V1.0.2/MSDK/ble/app\app_per_sync_mgr.c ****             adv_sid == p_sync_dev->sync_info.adv_sid &&
 208              		.loc 1 178 71 discriminator 1
 209 0048 83477401 		lbu	a5,23(s0)
 210 004c 639B4701 		bne	a5,s4,.L16
 180:C:/Users/stapi/OneDrive/Desktop/GD32VW553/GD32VW55X_Wifi_BLE_SDK/GD32VW55x_RELEASE_V1.0.2/MSDK/ble/app\app_per_sync_mgr.c ****             return p_sync_dev;
 211              		.loc 1 180 14
 212 0050 1946     		li	a2,6
 213 0052 93050401 		addi	a1,s0,16
 214 0056 5685     		mv	a0,s5
 215 0058 97000000 		call	memcmp
 215      E7800000 
 216              	.LVL28:
 179:C:/Users/stapi/OneDrive/Desktop/GD32VW553/GD32VW55X_Wifi_BLE_SDK/GD32VW55x_RELEASE_V1.0.2/MSDK/ble/app\app_per_sync_mgr.c ****             !memcmp(p_peer_addr->addr, p_sync_dev->sync_info.addr, BLE_GAP_ADDR_LEN)) {
 217              		.loc 1 179 54
 218 0060 69D9     		beq	a0,zero,.L13
 219              	.L16:
 176:C:/Users/stapi/OneDrive/Desktop/GD32VW553/GD32VW55X_Wifi_BLE_SDK/GD32VW55x_RELEASE_V1.0.2/MSDK/ble/app\app_per_sync_mgr.c ****         p_sync_dev = list_entry(pos, per_dev_info_t, list);
 220              		.loc 1 176 5 is_stmt 1 discriminator 2
 221              	.LVL29:
 222 0062 4E84     		mv	s0,s3
 223              	.LVL30:
 224 0064 83A90900 		lw	s3,0(s3)
 225              	.LVL31:
 226 0068 D1B7     		j	.L15
 227              		.cfi_endproc
 228              	.LFE4:
 230              		.section	.text.ble_per_sync_mgr_find_alloc_device,"ax",@progbits
 231              		.align	1
 232              		.globl	ble_per_sync_mgr_find_alloc_device
 234              	ble_per_sync_mgr_find_alloc_device:
 235              	.LFB5:
 187:C:/Users/stapi/OneDrive/Desktop/GD32VW553/GD32VW55X_Wifi_BLE_SDK/GD32VW55x_RELEASE_V1.0.2/MSDK/ble/app\app_per_sync_mgr.c **** 
 188:C:/Users/stapi/OneDrive/Desktop/GD32VW553/GD32VW55X_Wifi_BLE_SDK/GD32VW55x_RELEASE_V1.0.2/MSDK/ble/app\app_per_sync_mgr.c **** /*!
 189:C:/Users/stapi/OneDrive/Desktop/GD32VW553/GD32VW55X_Wifi_BLE_SDK/GD32VW55x_RELEASE_V1.0.2/MSDK/ble/app\app_per_sync_mgr.c ****     \brief      Find device in periodic sync manager list, if no such device, allocate one
 190:C:/Users/stapi/OneDrive/Desktop/GD32VW553/GD32VW55X_Wifi_BLE_SDK/GD32VW55x_RELEASE_V1.0.2/MSDK/ble/app\app_per_sync_mgr.c ****     \param[in]  p_peer_addr: pointer to peer address
 191:C:/Users/stapi/OneDrive/Desktop/GD32VW553/GD32VW55X_Wifi_BLE_SDK/GD32VW55x_RELEASE_V1.0.2/MSDK/ble/app\app_per_sync_mgr.c ****     \param[in]  adv_sid: advertising sid
 192:C:/Users/stapi/OneDrive/Desktop/GD32VW553/GD32VW55X_Wifi_BLE_SDK/GD32VW55x_RELEASE_V1.0.2/MSDK/ble/app\app_per_sync_mgr.c ****     \param[in]  period_adv_intv: periodic advertising interval
 193:C:/Users/stapi/OneDrive/Desktop/GD32VW553/GD32VW55X_Wifi_BLE_SDK/GD32VW55x_RELEASE_V1.0.2/MSDK/ble/app\app_per_sync_mgr.c ****     \param[out] none
 194:C:/Users/stapi/OneDrive/Desktop/GD32VW553/GD32VW55X_Wifi_BLE_SDK/GD32VW55x_RELEASE_V1.0.2/MSDK/ble/app\app_per_sync_mgr.c ****     \retval     per_dev_info_t *: pointer to periodic sync device information found or allocated
 195:C:/Users/stapi/OneDrive/Desktop/GD32VW553/GD32VW55X_Wifi_BLE_SDK/GD32VW55x_RELEASE_V1.0.2/MSDK/ble/app\app_per_sync_mgr.c **** */
 196:C:/Users/stapi/OneDrive/Desktop/GD32VW553/GD32VW55X_Wifi_BLE_SDK/GD32VW55x_RELEASE_V1.0.2/MSDK/ble/app\app_per_sync_mgr.c **** per_dev_info_t *ble_per_sync_mgr_find_alloc_device(ble_gap_addr_t *p_peer_addr, uint8_t adv_sid,
 197:C:/Users/stapi/OneDrive/Desktop/GD32VW553/GD32VW55X_Wifi_BLE_SDK/GD32VW55x_RELEASE_V1.0.2/MSDK/ble/app\app_per_sync_mgr.c ****                                                    uint16_t period_adv_intv)
 198:C:/Users/stapi/OneDrive/Desktop/GD32VW553/GD32VW55X_Wifi_BLE_SDK/GD32VW55x_RELEASE_V1.0.2/MSDK/ble/app\app_per_sync_mgr.c **** {
 236              		.loc 1 198 1
 237              		.cfi_startproc
 238              	.LVL32:
 239 0000 17030000 		call	t0,__riscv_save_4
 239      E7020300 
 240              		.cfi_offset 19, -20
 241              		.cfi_offset 18, -16
 242              		.cfi_offset 9, -12
 243              		.cfi_offset 8, -8
 244              		.cfi_offset 1, -4
 245              		.cfi_def_cfa_offset 32
 199:C:/Users/stapi/OneDrive/Desktop/GD32VW553/GD32VW55X_Wifi_BLE_SDK/GD32VW55x_RELEASE_V1.0.2/MSDK/ble/app\app_per_sync_mgr.c ****     per_dev_info_t *p_sync_dev = ble_per_sync_mgr_find_device(p_peer_addr, adv_sid);
 246              		.loc 1 199 5
 198:C:/Users/stapi/OneDrive/Desktop/GD32VW553/GD32VW55X_Wifi_BLE_SDK/GD32VW55x_RELEASE_V1.0.2/MSDK/ble/app\app_per_sync_mgr.c ****     per_dev_info_t *p_sync_dev = ble_per_sync_mgr_find_device(p_peer_addr, adv_sid);
 247              		.loc 1 198 1 is_stmt 0
 248 0008 AA84     		mv	s1,a0
 249 000a AE89     		mv	s3,a1
 250 000c 3289     		mv	s2,a2
 251              		.loc 1 199 34
 252 000e 97000000 		call	ble_per_sync_mgr_find_device
 252      E7800000 
 253              	.LVL33:
 254 0016 2A84     		mv	s0,a0
 255              	.LVL34:
 200:C:/Users/stapi/OneDrive/Desktop/GD32VW553/GD32VW55X_Wifi_BLE_SDK/GD32VW55x_RELEASE_V1.0.2/MSDK/ble/app\app_per_sync_mgr.c **** 
 201:C:/Users/stapi/OneDrive/Desktop/GD32VW553/GD32VW55X_Wifi_BLE_SDK/GD32VW55x_RELEASE_V1.0.2/MSDK/ble/app\app_per_sync_mgr.c ****     if (p_sync_dev != NULL) {
 256              		.loc 1 201 5 is_stmt 1
 257              		.loc 1 201 8 is_stmt 0
 258 0018 39E9     		bne	a0,zero,.L23
 259              	.LVL35:
 260              	.LBB4:
 261              	.LBB5:
 202:C:/Users/stapi/OneDrive/Desktop/GD32VW553/GD32VW55X_Wifi_BLE_SDK/GD32VW55x_RELEASE_V1.0.2/MSDK/ble/app\app_per_sync_mgr.c ****         return p_sync_dev;
 203:C:/Users/stapi/OneDrive/Desktop/GD32VW553/GD32VW55X_Wifi_BLE_SDK/GD32VW55x_RELEASE_V1.0.2/MSDK/ble/app\app_per_sync_mgr.c ****     }
 204:C:/Users/stapi/OneDrive/Desktop/GD32VW553/GD32VW55X_Wifi_BLE_SDK/GD32VW55x_RELEASE_V1.0.2/MSDK/ble/app\app_per_sync_mgr.c **** 
 205:C:/Users/stapi/OneDrive/Desktop/GD32VW553/GD32VW55X_Wifi_BLE_SDK/GD32VW55x_RELEASE_V1.0.2/MSDK/ble/app\app_per_sync_mgr.c ****     p_sync_dev = (per_dev_info_t *)sys_malloc(sizeof(per_dev_info_t));
 262              		.loc 1 205 5 is_stmt 1
 263              		.loc 1 205 36 is_stmt 0
 264 001a 7145     		li	a0,28
 265 001c 97000000 		call	sys_malloc
 265      E7800000 
 266              	.LVL36:
 267 0024 2A84     		mv	s0,a0
 268              	.LVL37:
 206:C:/Users/stapi/OneDrive/Desktop/GD32VW553/GD32VW55X_Wifi_BLE_SDK/GD32VW55x_RELEASE_V1.0.2/MSDK/ble/app\app_per_sync_mgr.c ****     if (p_sync_dev) {
 269              		.loc 1 206 5 is_stmt 1
 270              		.loc 1 206 8 is_stmt 0
 271 0026 21C5     		beq	a0,zero,.L23
 207:C:/Users/stapi/OneDrive/Desktop/GD32VW553/GD32VW55X_Wifi_BLE_SDK/GD32VW55x_RELEASE_V1.0.2/MSDK/ble/app\app_per_sync_mgr.c ****         memset(p_sync_dev, 0, sizeof(per_dev_info_t));
 272              		.loc 1 207 9 is_stmt 1
 273 0028 5146     		li	a2,20
 274 002a 8145     		li	a1,0
 275 002c 2105     		addi	a0,a0,8
 276 002e 97000000 		call	memset
 276      E7800000 
 277              	.LVL38:
 208:C:/Users/stapi/OneDrive/Desktop/GD32VW553/GD32VW55X_Wifi_BLE_SDK/GD32VW55x_RELEASE_V1.0.2/MSDK/ble/app\app_per_sync_mgr.c ****         INIT_DLIST_HEAD(&p_sync_dev->list);
 278              		.loc 1 208 9
 279              		.loc 1 208 9
 280 0036 00C0     		sw	s0,0(s0)
 281              		.loc 1 208 9
 282 0038 40C0     		sw	s0,4(s0)
 283              		.loc 1 208 9
 209:C:/Users/stapi/OneDrive/Desktop/GD32VW553/GD32VW55X_Wifi_BLE_SDK/GD32VW55x_RELEASE_V1.0.2/MSDK/ble/app\app_per_sync_mgr.c ****         p_sync_dev->sync_info.addr_type = p_peer_addr->addr_type;
 284              		.loc 1 209 9
 285              		.loc 1 209 41 is_stmt 0
 286 003a 83C70400 		lbu	a5,0(s1)
 210:C:/Users/stapi/OneDrive/Desktop/GD32VW553/GD32VW55X_Wifi_BLE_SDK/GD32VW55x_RELEASE_V1.0.2/MSDK/ble/app\app_per_sync_mgr.c ****         memcpy(p_sync_dev->sync_info.addr, p_peer_addr->addr, BLE_GAP_ADDR_LEN);
 287              		.loc 1 210 9
 288 003e 93851400 		addi	a1,s1,1
 289 0042 1946     		li	a2,6
 209:C:/Users/stapi/OneDrive/Desktop/GD32VW553/GD32VW55X_Wifi_BLE_SDK/GD32VW55x_RELEASE_V1.0.2/MSDK/ble/app\app_per_sync_mgr.c ****         p_sync_dev->sync_info.addr_type = p_peer_addr->addr_type;
 290              		.loc 1 209 41
 291 0044 230BF400 		sb	a5,22(s0)
 292              		.loc 1 210 9 is_stmt 1
 293 0048 13050401 		addi	a0,s0,16
 294 004c 97000000 		call	memcpy
 294      E7800000 
 295              	.LVL39:
 211:C:/Users/stapi/OneDrive/Desktop/GD32VW553/GD32VW55X_Wifi_BLE_SDK/GD32VW55x_RELEASE_V1.0.2/MSDK/ble/app\app_per_sync_mgr.c ****         p_sync_dev->sync_info.adv_sid = adv_sid;
 296              		.loc 1 211 9
 212:C:/Users/stapi/OneDrive/Desktop/GD32VW553/GD32VW55X_Wifi_BLE_SDK/GD32VW55x_RELEASE_V1.0.2/MSDK/ble/app\app_per_sync_mgr.c ****         p_sync_dev->period_adv_intv = period_adv_intv;
 213:C:/Users/stapi/OneDrive/Desktop/GD32VW553/GD32VW55X_Wifi_BLE_SDK/GD32VW55x_RELEASE_V1.0.2/MSDK/ble/app\app_per_sync_mgr.c ****         list_add_tail(&p_sync_dev->list, &ble_sync_mgr_cb.devs_list);
 297              		.loc 1 213 9 is_stmt 0
 298 0054 B7050000 		lui	a1,%hi(.LANCHOR0)
 211:C:/Users/stapi/OneDrive/Desktop/GD32VW553/GD32VW55X_Wifi_BLE_SDK/GD32VW55x_RELEASE_V1.0.2/MSDK/ble/app\app_per_sync_mgr.c ****         p_sync_dev->sync_info.adv_sid = adv_sid;
 299              		.loc 1 211 39
 300 0058 A30B3401 		sb	s3,23(s0)
 212:C:/Users/stapi/OneDrive/Desktop/GD32VW553/GD32VW55X_Wifi_BLE_SDK/GD32VW55x_RELEASE_V1.0.2/MSDK/ble/app\app_per_sync_mgr.c ****         p_sync_dev->period_adv_intv = period_adv_intv;
 301              		.loc 1 212 9 is_stmt 1
 212:C:/Users/stapi/OneDrive/Desktop/GD32VW553/GD32VW55X_Wifi_BLE_SDK/GD32VW55x_RELEASE_V1.0.2/MSDK/ble/app\app_per_sync_mgr.c ****         p_sync_dev->period_adv_intv = period_adv_intv;
 302              		.loc 1 212 37 is_stmt 0
 303 005c 23162401 		sh	s2,12(s0)
 304              		.loc 1 213 9 is_stmt 1
 305 0060 93850500 		addi	a1,a1,%lo(.LANCHOR0)
 306 0064 2285     		mv	a0,s0
 307 0066 97000000 		call	list_add_tail
 307      E7800000 
 308              	.LVL40:
 309              	.L23:
 310              	.LBE5:
 311              	.LBE4:
 214:C:/Users/stapi/OneDrive/Desktop/GD32VW553/GD32VW55X_Wifi_BLE_SDK/GD32VW55x_RELEASE_V1.0.2/MSDK/ble/app\app_per_sync_mgr.c ****     }
 215:C:/Users/stapi/OneDrive/Desktop/GD32VW553/GD32VW55X_Wifi_BLE_SDK/GD32VW55x_RELEASE_V1.0.2/MSDK/ble/app\app_per_sync_mgr.c ****     return p_sync_dev;
 216:C:/Users/stapi/OneDrive/Desktop/GD32VW553/GD32VW55X_Wifi_BLE_SDK/GD32VW55x_RELEASE_V1.0.2/MSDK/ble/app\app_per_sync_mgr.c **** }
 312              		.loc 1 216 1 is_stmt 0
 313 006e 2285     		mv	a0,s0
 314 0070 17030000 		tail	__riscv_restore_4
 314      67000300 
 315              		.cfi_restore 19
 316              		.cfi_restore 18
 317              		.cfi_restore 9
 318              		.cfi_restore 8
 319              		.cfi_restore 1
 320              		.cfi_def_cfa_offset 0
 321              		.cfi_endproc
 322              	.LFE5:
 324              		.section	.rodata.ble_per_sync_evt_handler.str1.4,"aMS",@progbits,1
 325              		.align	2
 326              	.LC0:
 327 0000 70657269 		.string	"periodic sync idx %u, state %u \r\n"
 327      6F646963 
 327      2073796E 
 327      63206964 
 327      78202575 
 328 0022 0000     		.align	2
 329              	.LC1:
 330 0024 70657269 		.string	"periodic device synced. sync idx %u, addr %02X:%02X:%02X:%02X:%02X:%02X \r\n"
 330      6F646963 
 330      20646576 
 330      69636520 
 330      73796E63 
 331 006f 00       		.align	2
 332              	.LC2:
 333 0070 70657269 		.string	"periodic device reported, addr %02X:%02X:%02X:%02X:%02X:%02X \r\n"
 333      6F646963 
 333      20646576 
 333      69636520 
 333      7265706F 
 334              		.align	2
 335              	.LC3:
 336 00b0 70657269 		.string	"periodic device report ctrl status 0x%x \r\n"
 336      6F646963 
 336      20646576 
 336      69636520 
 336      7265706F 
 337              		.section	.text.ble_per_sync_evt_handler,"ax",@progbits
 338              		.align	1
 340              	ble_per_sync_evt_handler:
 341              	.LFB2:
  87:C:/Users/stapi/OneDrive/Desktop/GD32VW553/GD32VW55X_Wifi_BLE_SDK/GD32VW55x_RELEASE_V1.0.2/MSDK/ble/app\app_per_sync_mgr.c ****     per_dev_info_t *p_sync_dev = NULL;
 342              		.loc 1 87 1 is_stmt 1
 343              		.cfi_startproc
 344              	.LVL41:
 345 0000 17030000 		call	t0,__riscv_save_2
 345      E7020300 
 346              		.cfi_offset 9, -12
 347              		.cfi_offset 8, -8
 348              		.cfi_offset 1, -4
 349              		.cfi_def_cfa_offset 16
  88:C:/Users/stapi/OneDrive/Desktop/GD32VW553/GD32VW55X_Wifi_BLE_SDK/GD32VW55x_RELEASE_V1.0.2/MSDK/ble/app\app_per_sync_mgr.c ****     switch (event) {
 350              		.loc 1 88 5
 351              	.LVL42:
  89:C:/Users/stapi/OneDrive/Desktop/GD32VW553/GD32VW55X_Wifi_BLE_SDK/GD32VW55x_RELEASE_V1.0.2/MSDK/ble/app\app_per_sync_mgr.c ****     case BLE_PER_SYNC_EVT_STATE_CHG:
 352              		.loc 1 89 5
 353 0008 8944     		li	s1,2
  87:C:/Users/stapi/OneDrive/Desktop/GD32VW553/GD32VW55X_Wifi_BLE_SDK/GD32VW55x_RELEASE_V1.0.2/MSDK/ble/app\app_per_sync_mgr.c ****     per_dev_info_t *p_sync_dev = NULL;
 354              		.loc 1 87 1 is_stmt 0
 355 000a 2E84     		mv	s0,a1
  89:C:/Users/stapi/OneDrive/Desktop/GD32VW553/GD32VW55X_Wifi_BLE_SDK/GD32VW55x_RELEASE_V1.0.2/MSDK/ble/app\app_per_sync_mgr.c ****     case BLE_PER_SYNC_EVT_STATE_CHG:
 356              		.loc 1 89 5
 357 000c 630E9502 		beq	a0,s1,.L30
 358 0010 63E5A402 		bgtu	a0,s1,.L31
 359 0014 55E1     		bne	a0,zero,.L48
  91:C:/Users/stapi/OneDrive/Desktop/GD32VW553/GD32VW55X_Wifi_BLE_SDK/GD32VW55x_RELEASE_V1.0.2/MSDK/ble/app\app_per_sync_mgr.c ****                p_data->sync_state.state);
 360              		.loc 1 91 9 is_stmt 1
  91:C:/Users/stapi/OneDrive/Desktop/GD32VW553/GD32VW55X_Wifi_BLE_SDK/GD32VW55x_RELEASE_V1.0.2/MSDK/ble/app\app_per_sync_mgr.c ****                p_data->sync_state.state);
 361              		.loc 1 91 9
 362 0016 B7070000 		lui	a5,%hi(global_debug_level)
 363 001a 83C70700 		lbu	a5,%lo(global_debug_level)(a5)
 364 001e 63F1F402 		bleu	a5,s1,.L29
  91:C:/Users/stapi/OneDrive/Desktop/GD32VW553/GD32VW55X_Wifi_BLE_SDK/GD32VW55x_RELEASE_V1.0.2/MSDK/ble/app\app_per_sync_mgr.c ****                p_data->sync_state.state);
 365              		.loc 1 91 9 discriminator 1
 366 0022 D041     		lw	a2,4(a1)
 367 0024 83C50500 		lbu	a1,0(a1)
 368              	.LVL43:
 369 0028 37050000 		lui	a0,%hi(.LC0)
 370              	.LVL44:
 371 002c 13050500 		addi	a0,a0,%lo(.LC0)
 372 0030 97000000 		call	co_printf
 372      E7800000 
 373              	.LVL45:
 374 0038 21A0     		j	.L29
 375              	.LVL46:
 376              	.L31:
  89:C:/Users/stapi/OneDrive/Desktop/GD32VW553/GD32VW55X_Wifi_BLE_SDK/GD32VW55x_RELEASE_V1.0.2/MSDK/ble/app\app_per_sync_mgr.c ****     case BLE_PER_SYNC_EVT_STATE_CHG:
 377              		.loc 1 89 5 is_stmt 0
 378 003a 8D47     		li	a5,3
 379 003c 6301F50C 		beq	a0,a5,.L34
 380              	.LVL47:
 381              	.L29:
 137:C:/Users/stapi/OneDrive/Desktop/GD32VW553/GD32VW55X_Wifi_BLE_SDK/GD32VW55x_RELEASE_V1.0.2/MSDK/ble/app\app_per_sync_mgr.c **** 
 382              		.loc 1 137 1
 383 0040 17030000 		tail	__riscv_restore_2
 383      67000300 
 384              		.cfi_remember_state
 385              		.cfi_restore 9
 386              		.cfi_restore 8
 387              		.cfi_restore 1
 388              		.cfi_def_cfa_offset 0
 389              	.LVL48:
 390              	.L30:
 391              		.cfi_restore_state
  96:C:/Users/stapi/OneDrive/Desktop/GD32VW553/GD32VW55X_Wifi_BLE_SDK/GD32VW55x_RELEASE_V1.0.2/MSDK/ble/app\app_per_sync_mgr.c ****                p_data->establish.param.actv_idx, p_data->establish.param.addr.addr[5],
 392              		.loc 1 96 9 is_stmt 1
  96:C:/Users/stapi/OneDrive/Desktop/GD32VW553/GD32VW55X_Wifi_BLE_SDK/GD32VW55x_RELEASE_V1.0.2/MSDK/ble/app\app_per_sync_mgr.c ****                p_data->establish.param.actv_idx, p_data->establish.param.addr.addr[5],
 393              		.loc 1 96 9
 394 0048 B7070000 		lui	a5,%hi(global_debug_level)
 395 004c 83C70700 		lbu	a5,%lo(global_debug_level)(a5)
 396 0050 6378F502 		bleu	a5,a0,.L37
  96:C:/Users/stapi/OneDrive/Desktop/GD32VW553/GD32VW55X_Wifi_BLE_SDK/GD32VW55x_RELEASE_V1.0.2/MSDK/ble/app\app_per_sync_mgr.c ****                p_data->establish.param.actv_idx, p_data->establish.param.addr.addr[5],
 397              		.loc 1 96 9 discriminator 1
 398 0054 83C87500 		lbu	a7,7(a1)
 399 0058 03C88500 		lbu	a6,8(a1)
 400 005c 83C79500 		lbu	a5,9(a1)
 401 0060 03C7A500 		lbu	a4,10(a1)
 402 0064 83C6B500 		lbu	a3,11(a1)
 403 0068 03C6C500 		lbu	a2,12(a1)
 404 006c 83C50500 		lbu	a1,0(a1)
 405 0070 37050000 		lui	a0,%hi(.LC1)
 406              	.LVL49:
 407 0074 13050500 		addi	a0,a0,%lo(.LC1)
 408 0078 97000000 		call	co_printf
 408      E7800000 
 409              	.LVL50:
 410              	.L37:
  96:C:/Users/stapi/OneDrive/Desktop/GD32VW553/GD32VW55X_Wifi_BLE_SDK/GD32VW55x_RELEASE_V1.0.2/MSDK/ble/app\app_per_sync_mgr.c ****                p_data->establish.param.actv_idx, p_data->establish.param.addr.addr[5],
 411              		.loc 1 96 9 discriminator 3
 101:C:/Users/stapi/OneDrive/Desktop/GD32VW553/GD32VW55X_Wifi_BLE_SDK/GD32VW55x_RELEASE_V1.0.2/MSDK/ble/app\app_per_sync_mgr.c ****                                                         p_data->establish.param.adv_sid,
 412              		.loc 1 101 9 discriminator 3
 101:C:/Users/stapi/OneDrive/Desktop/GD32VW553/GD32VW55X_Wifi_BLE_SDK/GD32VW55x_RELEASE_V1.0.2/MSDK/ble/app\app_per_sync_mgr.c ****                                                         p_data->establish.param.adv_sid,
 413              		.loc 1 101 22 is_stmt 0 discriminator 3
 414 0080 03562400 		lhu	a2,2(s0)
 415 0084 83454400 		lbu	a1,4(s0)
 416 0088 13056400 		addi	a0,s0,6
 417 008c 97000000 		call	ble_per_sync_mgr_find_alloc_device
 417      E7800000 
 418              	.LVL51:
 104:C:/Users/stapi/OneDrive/Desktop/GD32VW553/GD32VW55X_Wifi_BLE_SDK/GD32VW55x_RELEASE_V1.0.2/MSDK/ble/app\app_per_sync_mgr.c ****             p_sync_dev->sync_idx = p_data->establish.param.actv_idx;
 419              		.loc 1 104 9 is_stmt 1 discriminator 3
 104:C:/Users/stapi/OneDrive/Desktop/GD32VW553/GD32VW55X_Wifi_BLE_SDK/GD32VW55x_RELEASE_V1.0.2/MSDK/ble/app\app_per_sync_mgr.c ****             p_sync_dev->sync_idx = p_data->establish.param.actv_idx;
 420              		.loc 1 104 12 is_stmt 0 discriminator 3
 421 0094 55D5     		beq	a0,zero,.L29
 105:C:/Users/stapi/OneDrive/Desktop/GD32VW553/GD32VW55X_Wifi_BLE_SDK/GD32VW55x_RELEASE_V1.0.2/MSDK/ble/app\app_per_sync_mgr.c ****             p_sync_dev->phy = p_data->establish.param.phy;
 422              		.loc 1 105 13 is_stmt 1
 105:C:/Users/stapi/OneDrive/Desktop/GD32VW553/GD32VW55X_Wifi_BLE_SDK/GD32VW55x_RELEASE_V1.0.2/MSDK/ble/app\app_per_sync_mgr.c ****             p_sync_dev->phy = p_data->establish.param.phy;
 423              		.loc 1 105 34 is_stmt 0
 424 0096 83470400 		lbu	a5,0(s0)
 425 009a 2304F500 		sb	a5,8(a0)
 106:C:/Users/stapi/OneDrive/Desktop/GD32VW553/GD32VW55X_Wifi_BLE_SDK/GD32VW55x_RELEASE_V1.0.2/MSDK/ble/app\app_per_sync_mgr.c ****             p_sync_dev->period_adv_intv = p_data->establish.param.intv;
 426              		.loc 1 106 13 is_stmt 1
 106:C:/Users/stapi/OneDrive/Desktop/GD32VW553/GD32VW55X_Wifi_BLE_SDK/GD32VW55x_RELEASE_V1.0.2/MSDK/ble/app\app_per_sync_mgr.c ****             p_sync_dev->period_adv_intv = p_data->establish.param.intv;
 427              		.loc 1 106 29 is_stmt 0
 428 009e 83471400 		lbu	a5,1(s0)
 429 00a2 2305F500 		sb	a5,10(a0)
 107:C:/Users/stapi/OneDrive/Desktop/GD32VW553/GD32VW55X_Wifi_BLE_SDK/GD32VW55x_RELEASE_V1.0.2/MSDK/ble/app\app_per_sync_mgr.c ****             p_sync_dev->serv_data = p_data->establish.param.serv_data;
 430              		.loc 1 107 13 is_stmt 1
 107:C:/Users/stapi/OneDrive/Desktop/GD32VW553/GD32VW55X_Wifi_BLE_SDK/GD32VW55x_RELEASE_V1.0.2/MSDK/ble/app\app_per_sync_mgr.c ****             p_sync_dev->serv_data = p_data->establish.param.serv_data;
 431              		.loc 1 107 41 is_stmt 0
 432 00a6 83572400 		lhu	a5,2(s0)
 433 00aa 2316F500 		sh	a5,12(a0)
 108:C:/Users/stapi/OneDrive/Desktop/GD32VW553/GD32VW55X_Wifi_BLE_SDK/GD32VW55x_RELEASE_V1.0.2/MSDK/ble/app\app_per_sync_mgr.c ****         }
 434              		.loc 1 108 13 is_stmt 1
 108:C:/Users/stapi/OneDrive/Desktop/GD32VW553/GD32VW55X_Wifi_BLE_SDK/GD32VW55x_RELEASE_V1.0.2/MSDK/ble/app\app_per_sync_mgr.c ****         }
 435              		.loc 1 108 35 is_stmt 0
 436 00ae 8357E400 		lhu	a5,14(s0)
 437 00b2 2317F500 		sh	a5,14(a0)
 438 00b6 69B7     		j	.L29
 439              	.LVL52:
 440              	.L48:
 441              	.LBB6:
 113:C:/Users/stapi/OneDrive/Desktop/GD32VW553/GD32VW55X_Wifi_BLE_SDK/GD32VW55x_RELEASE_V1.0.2/MSDK/ble/app\app_per_sync_mgr.c ****         p_sync_dev = sync_mgr_find_device_by_idx(p_report->actv_idx);
 442              		.loc 1 113 9 is_stmt 1
 114:C:/Users/stapi/OneDrive/Desktop/GD32VW553/GD32VW55X_Wifi_BLE_SDK/GD32VW55x_RELEASE_V1.0.2/MSDK/ble/app\app_per_sync_mgr.c **** 
 443              		.loc 1 114 9
 114:C:/Users/stapi/OneDrive/Desktop/GD32VW553/GD32VW55X_Wifi_BLE_SDK/GD32VW55x_RELEASE_V1.0.2/MSDK/ble/app\app_per_sync_mgr.c **** 
 444              		.loc 1 114 22 is_stmt 0
 445 00b8 9C41     		lw	a5,0(a1)
 446 00ba 03C50700 		lbu	a0,0(a5)
 447              	.LVL53:
 448 00be 97000000 		call	sync_mgr_find_device_by_idx
 448      E7800000 
 449              	.LVL54:
 116:C:/Users/stapi/OneDrive/Desktop/GD32VW553/GD32VW55X_Wifi_BLE_SDK/GD32VW55x_RELEASE_V1.0.2/MSDK/ble/app\app_per_sync_mgr.c ****             dbg_print(NOTICE, "periodic device reported, addr %02X:%02X:%02X:%02X:%02X:%02X \r\n",
 450              		.loc 1 116 9 is_stmt 1
 116:C:/Users/stapi/OneDrive/Desktop/GD32VW553/GD32VW55X_Wifi_BLE_SDK/GD32VW55x_RELEASE_V1.0.2/MSDK/ble/app\app_per_sync_mgr.c ****             dbg_print(NOTICE, "periodic device reported, addr %02X:%02X:%02X:%02X:%02X:%02X \r\n",
 451              		.loc 1 116 12 is_stmt 0
 452 00c6 2DDD     		beq	a0,zero,.L29
 117:C:/Users/stapi/OneDrive/Desktop/GD32VW553/GD32VW55X_Wifi_BLE_SDK/GD32VW55x_RELEASE_V1.0.2/MSDK/ble/app\app_per_sync_mgr.c ****                    p_sync_dev->sync_info.addr[5], p_sync_dev->sync_info.addr[4], p_sync_dev->sync_i
 453              		.loc 1 117 13 is_stmt 1
 117:C:/Users/stapi/OneDrive/Desktop/GD32VW553/GD32VW55X_Wifi_BLE_SDK/GD32VW55x_RELEASE_V1.0.2/MSDK/ble/app\app_per_sync_mgr.c ****                    p_sync_dev->sync_info.addr[5], p_sync_dev->sync_info.addr[4], p_sync_dev->sync_i
 454              		.loc 1 117 13
 455 00c8 B7070000 		lui	a5,%hi(global_debug_level)
 456 00cc 83C70700 		lbu	a5,%lo(global_debug_level)(a5)
 457 00d0 E3F8F4F6 		bleu	a5,s1,.L29
 117:C:/Users/stapi/OneDrive/Desktop/GD32VW553/GD32VW55X_Wifi_BLE_SDK/GD32VW55x_RELEASE_V1.0.2/MSDK/ble/app\app_per_sync_mgr.c ****                    p_sync_dev->sync_info.addr[5], p_sync_dev->sync_info.addr[4], p_sync_dev->sync_i
 458              		.loc 1 117 13 discriminator 1
 459 00d4 03480501 		lbu	a6,16(a0)
 460 00d8 83471501 		lbu	a5,17(a0)
 461 00dc 03472501 		lbu	a4,18(a0)
 462 00e0 83463501 		lbu	a3,19(a0)
 463 00e4 03464501 		lbu	a2,20(a0)
 464 00e8 83455501 		lbu	a1,21(a0)
 465 00ec 37050000 		lui	a0,%hi(.LC2)
 466              	.LVL55:
 467 00f0 13050500 		addi	a0,a0,%lo(.LC2)
 468 00f4 97000000 		call	co_printf
 468      E7800000 
 469              	.LVL56:
 470 00fc 91B7     		j	.L29
 471              	.LVL57:
 472              	.L34:
 473              	.LBE6:
 474              	.LBB7:
 125:C:/Users/stapi/OneDrive/Desktop/GD32VW553/GD32VW55X_Wifi_BLE_SDK/GD32VW55x_RELEASE_V1.0.2/MSDK/ble/app\app_per_sync_mgr.c ****         p_sync_dev = sync_mgr_find_device_by_idx(p_res->param.actv_idx);
 475              		.loc 1 125 9
 126:C:/Users/stapi/OneDrive/Desktop/GD32VW553/GD32VW55X_Wifi_BLE_SDK/GD32VW55x_RELEASE_V1.0.2/MSDK/ble/app\app_per_sync_mgr.c **** 
 476              		.loc 1 126 9
 126:C:/Users/stapi/OneDrive/Desktop/GD32VW553/GD32VW55X_Wifi_BLE_SDK/GD32VW55x_RELEASE_V1.0.2/MSDK/ble/app\app_per_sync_mgr.c **** 
 477              		.loc 1 126 22 is_stmt 0
 478 00fe 03C52500 		lbu	a0,2(a1)
 479              	.LVL58:
 480 0102 97000000 		call	sync_mgr_find_device_by_idx
 480      E7800000 
 481              	.LVL59:
 128:C:/Users/stapi/OneDrive/Desktop/GD32VW553/GD32VW55X_Wifi_BLE_SDK/GD32VW55x_RELEASE_V1.0.2/MSDK/ble/app\app_per_sync_mgr.c ****             dbg_print(NOTICE, "periodic device report ctrl status 0x%x \r\n", p_res->param.status);
 482              		.loc 1 128 9 is_stmt 1
 128:C:/Users/stapi/OneDrive/Desktop/GD32VW553/GD32VW55X_Wifi_BLE_SDK/GD32VW55x_RELEASE_V1.0.2/MSDK/ble/app\app_per_sync_mgr.c ****             dbg_print(NOTICE, "periodic device report ctrl status 0x%x \r\n", p_res->param.status);
 483              		.loc 1 128 12 is_stmt 0
 484 010a 1DD9     		beq	a0,zero,.L29
 129:C:/Users/stapi/OneDrive/Desktop/GD32VW553/GD32VW55X_Wifi_BLE_SDK/GD32VW55x_RELEASE_V1.0.2/MSDK/ble/app\app_per_sync_mgr.c ****         }
 485              		.loc 1 129 13 is_stmt 1
 129:C:/Users/stapi/OneDrive/Desktop/GD32VW553/GD32VW55X_Wifi_BLE_SDK/GD32VW55x_RELEASE_V1.0.2/MSDK/ble/app\app_per_sync_mgr.c ****         }
 486              		.loc 1 129 13
 487 010c B7070000 		lui	a5,%hi(global_debug_level)
 488 0110 83C70700 		lbu	a5,%lo(global_debug_level)(a5)
 489 0114 E3F6F4F2 		bleu	a5,s1,.L29
 129:C:/Users/stapi/OneDrive/Desktop/GD32VW553/GD32VW55X_Wifi_BLE_SDK/GD32VW55x_RELEASE_V1.0.2/MSDK/ble/app\app_per_sync_mgr.c ****         }
 490              		.loc 1 129 13 discriminator 1
 491 0118 83550400 		lhu	a1,0(s0)
 492 011c 37050000 		lui	a0,%hi(.LC3)
 493              	.LVL60:
 494 0120 13050500 		addi	a0,a0,%lo(.LC3)
 495 0124 97000000 		call	co_printf
 495      E7800000 
 496              	.LVL61:
 497              	.LBE7:
 137:C:/Users/stapi/OneDrive/Desktop/GD32VW553/GD32VW55X_Wifi_BLE_SDK/GD32VW55x_RELEASE_V1.0.2/MSDK/ble/app\app_per_sync_mgr.c **** 
 498              		.loc 1 137 1 is_stmt 0 discriminator 1
 499 012c 11BF     		j	.L29
 500              		.cfi_endproc
 501              	.LFE2:
 503              		.section	.text.per_sync_mgr_clear_dev_list,"ax",@progbits
 504              		.align	1
 505              		.globl	per_sync_mgr_clear_dev_list
 507              	per_sync_mgr_clear_dev_list:
 508              	.LFB6:
 217:C:/Users/stapi/OneDrive/Desktop/GD32VW553/GD32VW55X_Wifi_BLE_SDK/GD32VW55x_RELEASE_V1.0.2/MSDK/ble/app\app_per_sync_mgr.c **** 
 218:C:/Users/stapi/OneDrive/Desktop/GD32VW553/GD32VW55X_Wifi_BLE_SDK/GD32VW55x_RELEASE_V1.0.2/MSDK/ble/app\app_per_sync_mgr.c **** /*!
 219:C:/Users/stapi/OneDrive/Desktop/GD32VW553/GD32VW55X_Wifi_BLE_SDK/GD32VW55x_RELEASE_V1.0.2/MSDK/ble/app\app_per_sync_mgr.c ****     \brief      Clear periodic sync manager list
 220:C:/Users/stapi/OneDrive/Desktop/GD32VW553/GD32VW55X_Wifi_BLE_SDK/GD32VW55x_RELEASE_V1.0.2/MSDK/ble/app\app_per_sync_mgr.c ****     \param[in]  none
 221:C:/Users/stapi/OneDrive/Desktop/GD32VW553/GD32VW55X_Wifi_BLE_SDK/GD32VW55x_RELEASE_V1.0.2/MSDK/ble/app\app_per_sync_mgr.c ****     \param[out] none
 222:C:/Users/stapi/OneDrive/Desktop/GD32VW553/GD32VW55X_Wifi_BLE_SDK/GD32VW55x_RELEASE_V1.0.2/MSDK/ble/app\app_per_sync_mgr.c ****     \retval     none
 223:C:/Users/stapi/OneDrive/Desktop/GD32VW553/GD32VW55X_Wifi_BLE_SDK/GD32VW55x_RELEASE_V1.0.2/MSDK/ble/app\app_per_sync_mgr.c **** */
 224:C:/Users/stapi/OneDrive/Desktop/GD32VW553/GD32VW55X_Wifi_BLE_SDK/GD32VW55x_RELEASE_V1.0.2/MSDK/ble/app\app_per_sync_mgr.c **** void per_sync_mgr_clear_dev_list(void)
 225:C:/Users/stapi/OneDrive/Desktop/GD32VW553/GD32VW55X_Wifi_BLE_SDK/GD32VW55x_RELEASE_V1.0.2/MSDK/ble/app\app_per_sync_mgr.c **** {
 509              		.loc 1 225 1 is_stmt 1
 510              		.cfi_startproc
 511 0000 17030000 		call	t0,__riscv_save_2
 511      E7020300 
 512              		.cfi_offset 9, -12
 513              		.cfi_offset 8, -8
 514              		.cfi_offset 1, -4
 515              		.cfi_def_cfa_offset 16
 226:C:/Users/stapi/OneDrive/Desktop/GD32VW553/GD32VW55X_Wifi_BLE_SDK/GD32VW55x_RELEASE_V1.0.2/MSDK/ble/app\app_per_sync_mgr.c ****     per_dev_info_t *p_sync_dev = NULL;
 516              		.loc 1 226 5
 517              	.LVL62:
 227:C:/Users/stapi/OneDrive/Desktop/GD32VW553/GD32VW55X_Wifi_BLE_SDK/GD32VW55x_RELEASE_V1.0.2/MSDK/ble/app\app_per_sync_mgr.c ****     dlist_t *pos, *n;
 518              		.loc 1 227 5
 228:C:/Users/stapi/OneDrive/Desktop/GD32VW553/GD32VW55X_Wifi_BLE_SDK/GD32VW55x_RELEASE_V1.0.2/MSDK/ble/app\app_per_sync_mgr.c **** 
 229:C:/Users/stapi/OneDrive/Desktop/GD32VW553/GD32VW55X_Wifi_BLE_SDK/GD32VW55x_RELEASE_V1.0.2/MSDK/ble/app\app_per_sync_mgr.c ****     if (list_empty(&ble_sync_mgr_cb.devs_list)) {
 519              		.loc 1 229 5
 520              		.loc 1 229 9 is_stmt 0
 521 0008 37040000 		lui	s0,%hi(.LANCHOR0)
 225:C:/Users/stapi/OneDrive/Desktop/GD32VW553/GD32VW55X_Wifi_BLE_SDK/GD32VW55x_RELEASE_V1.0.2/MSDK/ble/app\app_per_sync_mgr.c ****     per_dev_info_t *p_sync_dev = NULL;
 522              		.loc 1 225 1
 523 000c 4111     		addi	sp,sp,-16
 524              		.cfi_def_cfa_offset 32
 525              		.loc 1 229 9
 526 000e 13050400 		addi	a0,s0,%lo(.LANCHOR0)
 527 0012 97000000 		call	list_empty
 527      E7800000 
 528              	.LVL63:
 529              		.loc 1 229 8
 530 001a 19E5     		bne	a0,zero,.L50
 531 001c 13040400 		addi	s0,s0,%lo(.LANCHOR0)
 532              	.LBB10:
 533              	.LBB11:
 230:C:/Users/stapi/OneDrive/Desktop/GD32VW553/GD32VW55X_Wifi_BLE_SDK/GD32VW55x_RELEASE_V1.0.2/MSDK/ble/app\app_per_sync_mgr.c ****         return;
 231:C:/Users/stapi/OneDrive/Desktop/GD32VW553/GD32VW55X_Wifi_BLE_SDK/GD32VW55x_RELEASE_V1.0.2/MSDK/ble/app\app_per_sync_mgr.c ****     }
 232:C:/Users/stapi/OneDrive/Desktop/GD32VW553/GD32VW55X_Wifi_BLE_SDK/GD32VW55x_RELEASE_V1.0.2/MSDK/ble/app\app_per_sync_mgr.c **** 
 233:C:/Users/stapi/OneDrive/Desktop/GD32VW553/GD32VW55X_Wifi_BLE_SDK/GD32VW55x_RELEASE_V1.0.2/MSDK/ble/app\app_per_sync_mgr.c ****     list_for_each_safe(pos, n, &ble_sync_mgr_cb.devs_list) {
 534              		.loc 1 233 5 is_stmt 1
 535 0020 0840     		lw	a0,0(s0)
 536              	.LVL64:
 537 0022 0441     		lw	s1,0(a0)
 538              	.LVL65:
 539              	.L52:
 540              		.loc 1 233 5
 541 0024 63178500 		bne	a0,s0,.L53
 542              	.LVL66:
 543              	.L50:
 544              	.LBE11:
 545              	.LBE10:
 234:C:/Users/stapi/OneDrive/Desktop/GD32VW553/GD32VW55X_Wifi_BLE_SDK/GD32VW55x_RELEASE_V1.0.2/MSDK/ble/app\app_per_sync_mgr.c ****         p_sync_dev = list_entry(pos, per_dev_info_t, list);
 235:C:/Users/stapi/OneDrive/Desktop/GD32VW553/GD32VW55X_Wifi_BLE_SDK/GD32VW55x_RELEASE_V1.0.2/MSDK/ble/app\app_per_sync_mgr.c ****         list_del(&p_sync_dev->list);
 236:C:/Users/stapi/OneDrive/Desktop/GD32VW553/GD32VW55X_Wifi_BLE_SDK/GD32VW55x_RELEASE_V1.0.2/MSDK/ble/app\app_per_sync_mgr.c ****         sys_mfree((void *)p_sync_dev);
 237:C:/Users/stapi/OneDrive/Desktop/GD32VW553/GD32VW55X_Wifi_BLE_SDK/GD32VW55x_RELEASE_V1.0.2/MSDK/ble/app\app_per_sync_mgr.c ****     }
 238:C:/Users/stapi/OneDrive/Desktop/GD32VW553/GD32VW55X_Wifi_BLE_SDK/GD32VW55x_RELEASE_V1.0.2/MSDK/ble/app\app_per_sync_mgr.c **** }
 546              		.loc 1 238 1 is_stmt 0
 547 0028 4101     		addi	sp,sp,16
 548              		.cfi_remember_state
 549              		.cfi_def_cfa_offset 0
 550 002a 17030000 		tail	__riscv_restore_2
 550      67000300 
 551              		.cfi_restore 9
 552              		.cfi_restore 8
 553              		.cfi_restore 1
 554              		.cfi_def_cfa_offset -16
 555              	.LVL67:
 556              	.L53:
 557              		.cfi_restore_state
 558              	.LBB13:
 559              	.LBB12:
 234:C:/Users/stapi/OneDrive/Desktop/GD32VW553/GD32VW55X_Wifi_BLE_SDK/GD32VW55x_RELEASE_V1.0.2/MSDK/ble/app\app_per_sync_mgr.c ****         p_sync_dev = list_entry(pos, per_dev_info_t, list);
 560              		.loc 1 234 9 is_stmt 1
 235:C:/Users/stapi/OneDrive/Desktop/GD32VW553/GD32VW55X_Wifi_BLE_SDK/GD32VW55x_RELEASE_V1.0.2/MSDK/ble/app\app_per_sync_mgr.c ****         sys_mfree((void *)p_sync_dev);
 561              		.loc 1 235 9
 562 0032 2AC6     		sw	a0,12(sp)
 563 0034 97000000 		call	list_del
 563      E7800000 
 564              	.LVL68:
 236:C:/Users/stapi/OneDrive/Desktop/GD32VW553/GD32VW55X_Wifi_BLE_SDK/GD32VW55x_RELEASE_V1.0.2/MSDK/ble/app\app_per_sync_mgr.c ****     }
 565              		.loc 1 236 9
 566 003c 3245     		lw	a0,12(sp)
 567 003e 97000000 		call	sys_mfree
 567      E7800000 
 568              	.LVL69:
 233:C:/Users/stapi/OneDrive/Desktop/GD32VW553/GD32VW55X_Wifi_BLE_SDK/GD32VW55x_RELEASE_V1.0.2/MSDK/ble/app\app_per_sync_mgr.c ****         p_sync_dev = list_entry(pos, per_dev_info_t, list);
 569              		.loc 1 233 5
 570 0046 2685     		mv	a0,s1
 571 0048 8440     		lw	s1,0(s1)
 572              	.LVL70:
 573 004a E9BF     		j	.L52
 574              	.LBE12:
 575              	.LBE13:
 576              		.cfi_endproc
 577              	.LFE6:
 579              		.section	.text.app_per_sync_mgr_reset,"ax",@progbits
 580              		.align	1
 581              		.globl	app_per_sync_mgr_reset
 583              	app_per_sync_mgr_reset:
 584              	.LFB7:
 239:C:/Users/stapi/OneDrive/Desktop/GD32VW553/GD32VW55X_Wifi_BLE_SDK/GD32VW55x_RELEASE_V1.0.2/MSDK/ble/app\app_per_sync_mgr.c **** 
 240:C:/Users/stapi/OneDrive/Desktop/GD32VW553/GD32VW55X_Wifi_BLE_SDK/GD32VW55x_RELEASE_V1.0.2/MSDK/ble/app\app_per_sync_mgr.c **** /*!
 241:C:/Users/stapi/OneDrive/Desktop/GD32VW553/GD32VW55X_Wifi_BLE_SDK/GD32VW55x_RELEASE_V1.0.2/MSDK/ble/app\app_per_sync_mgr.c ****     \brief      Reset application periodic sync manager
 242:C:/Users/stapi/OneDrive/Desktop/GD32VW553/GD32VW55X_Wifi_BLE_SDK/GD32VW55x_RELEASE_V1.0.2/MSDK/ble/app\app_per_sync_mgr.c ****     \param[in]  none
 243:C:/Users/stapi/OneDrive/Desktop/GD32VW553/GD32VW55X_Wifi_BLE_SDK/GD32VW55x_RELEASE_V1.0.2/MSDK/ble/app\app_per_sync_mgr.c ****     \param[out] none
 244:C:/Users/stapi/OneDrive/Desktop/GD32VW553/GD32VW55X_Wifi_BLE_SDK/GD32VW55x_RELEASE_V1.0.2/MSDK/ble/app\app_per_sync_mgr.c ****     \retval     none
 245:C:/Users/stapi/OneDrive/Desktop/GD32VW553/GD32VW55X_Wifi_BLE_SDK/GD32VW55x_RELEASE_V1.0.2/MSDK/ble/app\app_per_sync_mgr.c **** */
 246:C:/Users/stapi/OneDrive/Desktop/GD32VW553/GD32VW55X_Wifi_BLE_SDK/GD32VW55x_RELEASE_V1.0.2/MSDK/ble/app\app_per_sync_mgr.c **** void app_per_sync_mgr_reset(void)
 247:C:/Users/stapi/OneDrive/Desktop/GD32VW553/GD32VW55X_Wifi_BLE_SDK/GD32VW55x_RELEASE_V1.0.2/MSDK/ble/app\app_per_sync_mgr.c **** {
 585              		.loc 1 247 1
 586              		.cfi_startproc
 587 0000 17030000 		call	t0,__riscv_save_0
 587      E7020300 
 588              		.cfi_offset 1, -4
 589              		.cfi_def_cfa_offset 16
 248:C:/Users/stapi/OneDrive/Desktop/GD32VW553/GD32VW55X_Wifi_BLE_SDK/GD32VW55x_RELEASE_V1.0.2/MSDK/ble/app\app_per_sync_mgr.c ****     per_sync_mgr_clear_dev_list();
 590              		.loc 1 248 5
 591 0008 97000000 		call	per_sync_mgr_clear_dev_list
 591      E7800000 
 592              	.LVL71:
 249:C:/Users/stapi/OneDrive/Desktop/GD32VW553/GD32VW55X_Wifi_BLE_SDK/GD32VW55x_RELEASE_V1.0.2/MSDK/ble/app\app_per_sync_mgr.c ****     ble_per_sync_callback_register(ble_per_sync_evt_handler);
 593              		.loc 1 249 5
 594 0010 37050000 		lui	a0,%hi(ble_per_sync_evt_handler)
 595 0014 13050500 		addi	a0,a0,%lo(ble_per_sync_evt_handler)
 596 0018 97000000 		call	ble_per_sync_callback_register
 596      E7800000 
 597              	.LVL72:
 250:C:/Users/stapi/OneDrive/Desktop/GD32VW553/GD32VW55X_Wifi_BLE_SDK/GD32VW55x_RELEASE_V1.0.2/MSDK/ble/app\app_per_sync_mgr.c **** }
 598              		.loc 1 250 1 is_stmt 0
 599 0020 17030000 		tail	__riscv_restore_0
 599      67000300 
 600              		.cfi_restore 1
 601              		.cfi_def_cfa_offset 0
 602              		.cfi_endproc
 603              	.LFE7:
 605              		.section	.rodata.app_per_sync_cancel.str1.4,"aMS",@progbits,1
 606              		.align	2
 607              	.LC4:
 608 0000 70657220 		.string	"per sync cancel fail! status: %x\r\n"
 608      73796E63 
 608      2063616E 
 608      63656C20 
 608      6661696C 
 609 0023 00       		.align	2
 610              	.LC5:
 611 0024 70657220 		.string	"per sync cancel success\r\n"
 611      73796E63 
 611      2063616E 
 611      63656C20 
 611      73756363 
 612              		.section	.text.app_per_sync_cancel,"ax",@progbits
 613              		.align	1
 614              		.globl	app_per_sync_cancel
 616              	app_per_sync_cancel:
 617              	.LFB8:
 251:C:/Users/stapi/OneDrive/Desktop/GD32VW553/GD32VW55X_Wifi_BLE_SDK/GD32VW55x_RELEASE_V1.0.2/MSDK/ble/app\app_per_sync_mgr.c **** 
 252:C:/Users/stapi/OneDrive/Desktop/GD32VW553/GD32VW55X_Wifi_BLE_SDK/GD32VW55x_RELEASE_V1.0.2/MSDK/ble/app\app_per_sync_mgr.c **** /*!
 253:C:/Users/stapi/OneDrive/Desktop/GD32VW553/GD32VW55X_Wifi_BLE_SDK/GD32VW55x_RELEASE_V1.0.2/MSDK/ble/app\app_per_sync_mgr.c ****     \brief      Cancel ongoing periodic sync procedure
 254:C:/Users/stapi/OneDrive/Desktop/GD32VW553/GD32VW55X_Wifi_BLE_SDK/GD32VW55x_RELEASE_V1.0.2/MSDK/ble/app\app_per_sync_mgr.c ****     \param[in]  none
 255:C:/Users/stapi/OneDrive/Desktop/GD32VW553/GD32VW55X_Wifi_BLE_SDK/GD32VW55x_RELEASE_V1.0.2/MSDK/ble/app\app_per_sync_mgr.c ****     \param[out] none
 256:C:/Users/stapi/OneDrive/Desktop/GD32VW553/GD32VW55X_Wifi_BLE_SDK/GD32VW55x_RELEASE_V1.0.2/MSDK/ble/app\app_per_sync_mgr.c ****     \retval     none
 257:C:/Users/stapi/OneDrive/Desktop/GD32VW553/GD32VW55X_Wifi_BLE_SDK/GD32VW55x_RELEASE_V1.0.2/MSDK/ble/app\app_per_sync_mgr.c **** */
 258:C:/Users/stapi/OneDrive/Desktop/GD32VW553/GD32VW55X_Wifi_BLE_SDK/GD32VW55x_RELEASE_V1.0.2/MSDK/ble/app\app_per_sync_mgr.c **** void app_per_sync_cancel(void)
 259:C:/Users/stapi/OneDrive/Desktop/GD32VW553/GD32VW55X_Wifi_BLE_SDK/GD32VW55x_RELEASE_V1.0.2/MSDK/ble/app\app_per_sync_mgr.c **** {
 618              		.loc 1 259 1 is_stmt 1
 619              		.cfi_startproc
 620 0000 17030000 		call	t0,__riscv_save_0
 620      E7020300 
 621              		.cfi_offset 1, -4
 622              		.cfi_def_cfa_offset 16
 260:C:/Users/stapi/OneDrive/Desktop/GD32VW553/GD32VW55X_Wifi_BLE_SDK/GD32VW55x_RELEASE_V1.0.2/MSDK/ble/app\app_per_sync_mgr.c ****     ble_status_t status = ble_per_sync_cancel();
 623              		.loc 1 260 5
 624              		.loc 1 260 27 is_stmt 0
 625 0008 97000000 		call	ble_per_sync_cancel
 625      E7800000 
 626              	.LVL73:
 261:C:/Users/stapi/OneDrive/Desktop/GD32VW553/GD32VW55X_Wifi_BLE_SDK/GD32VW55x_RELEASE_V1.0.2/MSDK/ble/app\app_per_sync_mgr.c ****     if (status != BLE_ERR_NO_ERROR) {
 627              		.loc 1 261 5 is_stmt 1
 628 0010 B7070000 		lui	a5,%hi(global_debug_level)
 629              		.loc 1 261 8 is_stmt 0
 630 0014 0DC1     		beq	a0,zero,.L59
 262:C:/Users/stapi/OneDrive/Desktop/GD32VW553/GD32VW55X_Wifi_BLE_SDK/GD32VW55x_RELEASE_V1.0.2/MSDK/ble/app\app_per_sync_mgr.c ****         dbg_print(ERR, "per sync cancel fail! status: %x\r\n", status);
 631              		.loc 1 262 9 is_stmt 1
 632              		.loc 1 262 9
 633 0016 83C70700 		lbu	a5,%lo(global_debug_level)(a5)
 634 001a 91CB     		beq	a5,zero,.L58
 635 001c AA85     		mv	a1,a0
 636              		.loc 1 262 9 discriminator 1
 637 001e 37050000 		lui	a0,%hi(.LC4)
 638              	.LVL74:
 639 0022 13050500 		addi	a0,a0,%lo(.LC4)
 640 0026 97000000 		call	co_printf
 640      E7800000 
 641              	.LVL75:
 642              	.L58:
 263:C:/Users/stapi/OneDrive/Desktop/GD32VW553/GD32VW55X_Wifi_BLE_SDK/GD32VW55x_RELEASE_V1.0.2/MSDK/ble/app\app_per_sync_mgr.c ****         return;
 264:C:/Users/stapi/OneDrive/Desktop/GD32VW553/GD32VW55X_Wifi_BLE_SDK/GD32VW55x_RELEASE_V1.0.2/MSDK/ble/app\app_per_sync_mgr.c ****     }
 265:C:/Users/stapi/OneDrive/Desktop/GD32VW553/GD32VW55X_Wifi_BLE_SDK/GD32VW55x_RELEASE_V1.0.2/MSDK/ble/app\app_per_sync_mgr.c **** 
 266:C:/Users/stapi/OneDrive/Desktop/GD32VW553/GD32VW55X_Wifi_BLE_SDK/GD32VW55x_RELEASE_V1.0.2/MSDK/ble/app\app_per_sync_mgr.c ****     dbg_print(NOTICE, "per sync cancel success\r\n");
 267:C:/Users/stapi/OneDrive/Desktop/GD32VW553/GD32VW55X_Wifi_BLE_SDK/GD32VW55x_RELEASE_V1.0.2/MSDK/ble/app\app_per_sync_mgr.c **** }
 643              		.loc 1 267 1 is_stmt 0
 644 002e 17030000 		tail	__riscv_restore_0
 644      67000300 
 645              		.cfi_remember_state
 646              		.cfi_restore 1
 647              		.cfi_def_cfa_offset 0
 648              	.LVL76:
 649              	.L59:
 650              		.cfi_restore_state
 266:C:/Users/stapi/OneDrive/Desktop/GD32VW553/GD32VW55X_Wifi_BLE_SDK/GD32VW55x_RELEASE_V1.0.2/MSDK/ble/app\app_per_sync_mgr.c **** }
 651              		.loc 1 266 5 is_stmt 1
 266:C:/Users/stapi/OneDrive/Desktop/GD32VW553/GD32VW55X_Wifi_BLE_SDK/GD32VW55x_RELEASE_V1.0.2/MSDK/ble/app\app_per_sync_mgr.c **** }
 652              		.loc 1 266 5
 653 0036 03C70700 		lbu	a4,%lo(global_debug_level)(a5)
 654 003a 8947     		li	a5,2
 655 003c E3F9E7FE 		bleu	a4,a5,.L58
 266:C:/Users/stapi/OneDrive/Desktop/GD32VW553/GD32VW55X_Wifi_BLE_SDK/GD32VW55x_RELEASE_V1.0.2/MSDK/ble/app\app_per_sync_mgr.c **** }
 656              		.loc 1 266 5 discriminator 1
 657 0040 37050000 		lui	a0,%hi(.LC5)
 658              	.LVL77:
 659 0044 13050500 		addi	a0,a0,%lo(.LC5)
 660 0048 97000000 		call	co_printf
 660      E7800000 
 661              	.LVL78:
 266:C:/Users/stapi/OneDrive/Desktop/GD32VW553/GD32VW55X_Wifi_BLE_SDK/GD32VW55x_RELEASE_V1.0.2/MSDK/ble/app\app_per_sync_mgr.c **** }
 662              		.loc 1 266 5 discriminator 1
 663 0050 F9BF     		j	.L58
 664              		.cfi_endproc
 665              	.LFE8:
 667              		.section	.rodata.app_per_sync_terminate.str1.4,"aMS",@progbits,1
 668              		.align	2
 669              	.LC6:
 670 0000 6170705F 		.string	"app_per_sync_terminate fail! not found sync device\r\n"
 670      7065725F 
 670      73796E63 
 670      5F746572 
 670      6D696E61 
 671 0035 000000   		.align	2
 672              	.LC7:
 673 0038 6170705F 		.string	"app_per_sync_terminate fail! \r\n"
 673      7065725F 
 673      73796E63 
 673      5F746572 
 673      6D696E61 
 674              		.section	.text.app_per_sync_terminate,"ax",@progbits
 675              		.align	1
 676              		.globl	app_per_sync_terminate
 678              	app_per_sync_terminate:
 679              	.LFB9:
 268:C:/Users/stapi/OneDrive/Desktop/GD32VW553/GD32VW55X_Wifi_BLE_SDK/GD32VW55x_RELEASE_V1.0.2/MSDK/ble/app\app_per_sync_mgr.c **** 
 269:C:/Users/stapi/OneDrive/Desktop/GD32VW553/GD32VW55X_Wifi_BLE_SDK/GD32VW55x_RELEASE_V1.0.2/MSDK/ble/app\app_per_sync_mgr.c **** /*!
 270:C:/Users/stapi/OneDrive/Desktop/GD32VW553/GD32VW55X_Wifi_BLE_SDK/GD32VW55x_RELEASE_V1.0.2/MSDK/ble/app\app_per_sync_mgr.c ****     \brief      Terminate periodic sync
 271:C:/Users/stapi/OneDrive/Desktop/GD32VW553/GD32VW55X_Wifi_BLE_SDK/GD32VW55x_RELEASE_V1.0.2/MSDK/ble/app\app_per_sync_mgr.c ****     \param[in]  sync_idx: periodic sync index
 272:C:/Users/stapi/OneDrive/Desktop/GD32VW553/GD32VW55X_Wifi_BLE_SDK/GD32VW55x_RELEASE_V1.0.2/MSDK/ble/app\app_per_sync_mgr.c ****     \param[out] none
 273:C:/Users/stapi/OneDrive/Desktop/GD32VW553/GD32VW55X_Wifi_BLE_SDK/GD32VW55x_RELEASE_V1.0.2/MSDK/ble/app\app_per_sync_mgr.c ****     \retval     none
 274:C:/Users/stapi/OneDrive/Desktop/GD32VW553/GD32VW55X_Wifi_BLE_SDK/GD32VW55x_RELEASE_V1.0.2/MSDK/ble/app\app_per_sync_mgr.c **** */
 275:C:/Users/stapi/OneDrive/Desktop/GD32VW553/GD32VW55X_Wifi_BLE_SDK/GD32VW55x_RELEASE_V1.0.2/MSDK/ble/app\app_per_sync_mgr.c **** void app_per_sync_terminate(uint8_t sync_idx)
 276:C:/Users/stapi/OneDrive/Desktop/GD32VW553/GD32VW55X_Wifi_BLE_SDK/GD32VW55x_RELEASE_V1.0.2/MSDK/ble/app\app_per_sync_mgr.c **** {
 680              		.loc 1 276 1
 681              		.cfi_startproc
 682              	.LVL79:
 683 0000 17030000 		call	t0,__riscv_save_1
 683      E7020300 
 684              		.cfi_offset 8, -8
 685              		.cfi_offset 1, -4
 686              		.cfi_def_cfa_offset 16
 277:C:/Users/stapi/OneDrive/Desktop/GD32VW553/GD32VW55X_Wifi_BLE_SDK/GD32VW55x_RELEASE_V1.0.2/MSDK/ble/app\app_per_sync_mgr.c ****     per_dev_info_t *p_sync_dev = sync_mgr_find_device_by_idx(sync_idx);
 687              		.loc 1 277 5
 276:C:/Users/stapi/OneDrive/Desktop/GD32VW553/GD32VW55X_Wifi_BLE_SDK/GD32VW55x_RELEASE_V1.0.2/MSDK/ble/app\app_per_sync_mgr.c ****     per_dev_info_t *p_sync_dev = sync_mgr_find_device_by_idx(sync_idx);
 688              		.loc 1 276 1 is_stmt 0
 689 0008 2A84     		mv	s0,a0
 690              		.loc 1 277 34
 691 000a 97000000 		call	sync_mgr_find_device_by_idx
 691      E7800000 
 692              	.LVL80:
 278:C:/Users/stapi/OneDrive/Desktop/GD32VW553/GD32VW55X_Wifi_BLE_SDK/GD32VW55x_RELEASE_V1.0.2/MSDK/ble/app\app_per_sync_mgr.c ****     if (p_sync_dev == NULL) {
 693              		.loc 1 278 5 is_stmt 1
 694              		.loc 1 278 8 is_stmt 0
 695 0012 15E1     		bne	a0,zero,.L66
 279:C:/Users/stapi/OneDrive/Desktop/GD32VW553/GD32VW55X_Wifi_BLE_SDK/GD32VW55x_RELEASE_V1.0.2/MSDK/ble/app\app_per_sync_mgr.c ****         dbg_print(ERR, "app_per_sync_terminate fail! not found sync device\r\n");
 696              		.loc 1 279 9 is_stmt 1
 697              		.loc 1 279 9
 698 0014 B7070000 		lui	a5,%hi(global_debug_level)
 699 0018 83C70700 		lbu	a5,%lo(global_debug_level)(a5)
 700 001c 89CB     		beq	a5,zero,.L65
 701              		.loc 1 279 9 discriminator 1
 702 001e 37050000 		lui	a0,%hi(.LC6)
 703              	.LVL81:
 704 0022 13050500 		addi	a0,a0,%lo(.LC6)
 705              	.L74:
 280:C:/Users/stapi/OneDrive/Desktop/GD32VW553/GD32VW55X_Wifi_BLE_SDK/GD32VW55x_RELEASE_V1.0.2/MSDK/ble/app\app_per_sync_mgr.c ****         return;
 281:C:/Users/stapi/OneDrive/Desktop/GD32VW553/GD32VW55X_Wifi_BLE_SDK/GD32VW55x_RELEASE_V1.0.2/MSDK/ble/app\app_per_sync_mgr.c ****     }
 282:C:/Users/stapi/OneDrive/Desktop/GD32VW553/GD32VW55X_Wifi_BLE_SDK/GD32VW55x_RELEASE_V1.0.2/MSDK/ble/app\app_per_sync_mgr.c **** 
 283:C:/Users/stapi/OneDrive/Desktop/GD32VW553/GD32VW55X_Wifi_BLE_SDK/GD32VW55x_RELEASE_V1.0.2/MSDK/ble/app\app_per_sync_mgr.c ****     if (ble_per_sync_terminate(sync_idx) != BLE_ERR_NO_ERROR) {
 284:C:/Users/stapi/OneDrive/Desktop/GD32VW553/GD32VW55X_Wifi_BLE_SDK/GD32VW55x_RELEASE_V1.0.2/MSDK/ble/app\app_per_sync_mgr.c ****         dbg_print(NOTICE, "app_per_sync_terminate fail! \r\n");
 706              		.loc 1 284 9 is_stmt 0 discriminator 1
 707 0026 97000000 		call	co_printf
 707      E7800000 
 708              	.LVL82:
 709              		.loc 1 284 9 is_stmt 1 discriminator 1
 710              	.L65:
 285:C:/Users/stapi/OneDrive/Desktop/GD32VW553/GD32VW55X_Wifi_BLE_SDK/GD32VW55x_RELEASE_V1.0.2/MSDK/ble/app\app_per_sync_mgr.c ****     }
 286:C:/Users/stapi/OneDrive/Desktop/GD32VW553/GD32VW55X_Wifi_BLE_SDK/GD32VW55x_RELEASE_V1.0.2/MSDK/ble/app\app_per_sync_mgr.c **** }
 711              		.loc 1 286 1 is_stmt 0
 712 002e 17030000 		tail	__riscv_restore_1
 712      67000300 
 713              		.cfi_remember_state
 714              		.cfi_restore 8
 715              		.cfi_restore 1
 716              		.cfi_def_cfa_offset 0
 717              	.LVL83:
 718              	.L66:
 719              		.cfi_restore_state
 283:C:/Users/stapi/OneDrive/Desktop/GD32VW553/GD32VW55X_Wifi_BLE_SDK/GD32VW55x_RELEASE_V1.0.2/MSDK/ble/app\app_per_sync_mgr.c ****         dbg_print(NOTICE, "app_per_sync_terminate fail! \r\n");
 720              		.loc 1 283 5 is_stmt 1
 283:C:/Users/stapi/OneDrive/Desktop/GD32VW553/GD32VW55X_Wifi_BLE_SDK/GD32VW55x_RELEASE_V1.0.2/MSDK/ble/app\app_per_sync_mgr.c ****         dbg_print(NOTICE, "app_per_sync_terminate fail! \r\n");
 721              		.loc 1 283 9 is_stmt 0
 722 0036 2285     		mv	a0,s0
 723              	.LVL84:
 724 0038 97000000 		call	ble_per_sync_terminate
 724      E7800000 
 725              	.LVL85:
 283:C:/Users/stapi/OneDrive/Desktop/GD32VW553/GD32VW55X_Wifi_BLE_SDK/GD32VW55x_RELEASE_V1.0.2/MSDK/ble/app\app_per_sync_mgr.c ****         dbg_print(NOTICE, "app_per_sync_terminate fail! \r\n");
 726              		.loc 1 283 8
 727 0040 7DD5     		beq	a0,zero,.L65
 284:C:/Users/stapi/OneDrive/Desktop/GD32VW553/GD32VW55X_Wifi_BLE_SDK/GD32VW55x_RELEASE_V1.0.2/MSDK/ble/app\app_per_sync_mgr.c ****     }
 728              		.loc 1 284 9 is_stmt 1
 284:C:/Users/stapi/OneDrive/Desktop/GD32VW553/GD32VW55X_Wifi_BLE_SDK/GD32VW55x_RELEASE_V1.0.2/MSDK/ble/app\app_per_sync_mgr.c ****     }
 729              		.loc 1 284 9
 730 0042 B7070000 		lui	a5,%hi(global_debug_level)
 731 0046 03C70700 		lbu	a4,%lo(global_debug_level)(a5)
 732 004a 8947     		li	a5,2
 733 004c E3F1E7FE 		bleu	a4,a5,.L65
 284:C:/Users/stapi/OneDrive/Desktop/GD32VW553/GD32VW55X_Wifi_BLE_SDK/GD32VW55x_RELEASE_V1.0.2/MSDK/ble/app\app_per_sync_mgr.c ****     }
 734              		.loc 1 284 9 discriminator 1
 735 0050 37050000 		lui	a0,%hi(.LC7)
 736 0054 13050500 		addi	a0,a0,%lo(.LC7)
 737 0058 F9B7     		j	.L74
 738              		.cfi_endproc
 739              	.LFE9:
 741              		.section	.text.app_per_sync_mgr_init,"ax",@progbits
 742              		.align	1
 743              		.globl	app_per_sync_mgr_init
 745              	app_per_sync_mgr_init:
 746              	.LFB10:
 287:C:/Users/stapi/OneDrive/Desktop/GD32VW553/GD32VW55X_Wifi_BLE_SDK/GD32VW55x_RELEASE_V1.0.2/MSDK/ble/app\app_per_sync_mgr.c **** 
 288:C:/Users/stapi/OneDrive/Desktop/GD32VW553/GD32VW55X_Wifi_BLE_SDK/GD32VW55x_RELEASE_V1.0.2/MSDK/ble/app\app_per_sync_mgr.c **** /*!
 289:C:/Users/stapi/OneDrive/Desktop/GD32VW553/GD32VW55X_Wifi_BLE_SDK/GD32VW55x_RELEASE_V1.0.2/MSDK/ble/app\app_per_sync_mgr.c ****     \brief      Init application periodic sync manager
 290:C:/Users/stapi/OneDrive/Desktop/GD32VW553/GD32VW55X_Wifi_BLE_SDK/GD32VW55x_RELEASE_V1.0.2/MSDK/ble/app\app_per_sync_mgr.c ****     \param[in]  none
 291:C:/Users/stapi/OneDrive/Desktop/GD32VW553/GD32VW55X_Wifi_BLE_SDK/GD32VW55x_RELEASE_V1.0.2/MSDK/ble/app\app_per_sync_mgr.c ****     \param[out] none
 292:C:/Users/stapi/OneDrive/Desktop/GD32VW553/GD32VW55X_Wifi_BLE_SDK/GD32VW55x_RELEASE_V1.0.2/MSDK/ble/app\app_per_sync_mgr.c ****     \retval     none
 293:C:/Users/stapi/OneDrive/Desktop/GD32VW553/GD32VW55X_Wifi_BLE_SDK/GD32VW55x_RELEASE_V1.0.2/MSDK/ble/app\app_per_sync_mgr.c **** */
 294:C:/Users/stapi/OneDrive/Desktop/GD32VW553/GD32VW55X_Wifi_BLE_SDK/GD32VW55x_RELEASE_V1.0.2/MSDK/ble/app\app_per_sync_mgr.c **** void app_per_sync_mgr_init(void)
 295:C:/Users/stapi/OneDrive/Desktop/GD32VW553/GD32VW55X_Wifi_BLE_SDK/GD32VW55x_RELEASE_V1.0.2/MSDK/ble/app\app_per_sync_mgr.c **** {
 747              		.loc 1 295 1
 748              		.cfi_startproc
 749 0000 17030000 		call	t0,__riscv_save_0
 749      E7020300 
 750              		.cfi_offset 1, -4
 751              		.cfi_def_cfa_offset 16
 296:C:/Users/stapi/OneDrive/Desktop/GD32VW553/GD32VW55X_Wifi_BLE_SDK/GD32VW55x_RELEASE_V1.0.2/MSDK/ble/app\app_per_sync_mgr.c ****     INIT_DLIST_HEAD(&ble_sync_mgr_cb.devs_list);
 752              		.loc 1 296 5
 753              		.loc 1 296 5
 754 0008 B7070000 		lui	a5,%hi(.LANCHOR0)
 755 000c 93870700 		addi	a5,a5,%lo(.LANCHOR0)
 756 0010 9CC3     		sw	a5,0(a5)
 757              		.loc 1 296 5
 758 0012 DCC3     		sw	a5,4(a5)
 759              		.loc 1 296 5
 297:C:/Users/stapi/OneDrive/Desktop/GD32VW553/GD32VW55X_Wifi_BLE_SDK/GD32VW55x_RELEASE_V1.0.2/MSDK/ble/app\app_per_sync_mgr.c ****     ble_per_sync_init();
 760              		.loc 1 297 5
 761 0014 97000000 		call	ble_per_sync_init
 761      E7800000 
 762              	.LVL86:
 298:C:/Users/stapi/OneDrive/Desktop/GD32VW553/GD32VW55X_Wifi_BLE_SDK/GD32VW55x_RELEASE_V1.0.2/MSDK/ble/app\app_per_sync_mgr.c ****     ble_per_sync_callback_register(ble_per_sync_evt_handler);
 763              		.loc 1 298 5
 764 001c 37050000 		lui	a0,%hi(ble_per_sync_evt_handler)
 765 0020 13050500 		addi	a0,a0,%lo(ble_per_sync_evt_handler)
 766 0024 97000000 		call	ble_per_sync_callback_register
 766      E7800000 
 767              	.LVL87:
 299:C:/Users/stapi/OneDrive/Desktop/GD32VW553/GD32VW55X_Wifi_BLE_SDK/GD32VW55x_RELEASE_V1.0.2/MSDK/ble/app\app_per_sync_mgr.c **** }
 768              		.loc 1 299 1 is_stmt 0
 769 002c 17030000 		tail	__riscv_restore_0
 769      67000300 
 770              		.cfi_restore 1
 771              		.cfi_def_cfa_offset 0
 772              		.cfi_endproc
 773              	.LFE10:
 775              		.section	.text.app_per_sync_mgr_deinit,"ax",@progbits
 776              		.align	1
 777              		.globl	app_per_sync_mgr_deinit
 779              	app_per_sync_mgr_deinit:
 780              	.LFB11:
 300:C:/Users/stapi/OneDrive/Desktop/GD32VW553/GD32VW55X_Wifi_BLE_SDK/GD32VW55x_RELEASE_V1.0.2/MSDK/ble/app\app_per_sync_mgr.c **** 
 301:C:/Users/stapi/OneDrive/Desktop/GD32VW553/GD32VW55X_Wifi_BLE_SDK/GD32VW55x_RELEASE_V1.0.2/MSDK/ble/app\app_per_sync_mgr.c **** /*!
 302:C:/Users/stapi/OneDrive/Desktop/GD32VW553/GD32VW55X_Wifi_BLE_SDK/GD32VW55x_RELEASE_V1.0.2/MSDK/ble/app\app_per_sync_mgr.c ****     \brief      Deinit application periodic sync manager
 303:C:/Users/stapi/OneDrive/Desktop/GD32VW553/GD32VW55X_Wifi_BLE_SDK/GD32VW55x_RELEASE_V1.0.2/MSDK/ble/app\app_per_sync_mgr.c ****     \param[in]  none
 304:C:/Users/stapi/OneDrive/Desktop/GD32VW553/GD32VW55X_Wifi_BLE_SDK/GD32VW55x_RELEASE_V1.0.2/MSDK/ble/app\app_per_sync_mgr.c ****     \param[out] none
 305:C:/Users/stapi/OneDrive/Desktop/GD32VW553/GD32VW55X_Wifi_BLE_SDK/GD32VW55x_RELEASE_V1.0.2/MSDK/ble/app\app_per_sync_mgr.c ****     \retval     none
 306:C:/Users/stapi/OneDrive/Desktop/GD32VW553/GD32VW55X_Wifi_BLE_SDK/GD32VW55x_RELEASE_V1.0.2/MSDK/ble/app\app_per_sync_mgr.c **** */
 307:C:/Users/stapi/OneDrive/Desktop/GD32VW553/GD32VW55X_Wifi_BLE_SDK/GD32VW55x_RELEASE_V1.0.2/MSDK/ble/app\app_per_sync_mgr.c **** void app_per_sync_mgr_deinit(void)
 308:C:/Users/stapi/OneDrive/Desktop/GD32VW553/GD32VW55X_Wifi_BLE_SDK/GD32VW55x_RELEASE_V1.0.2/MSDK/ble/app\app_per_sync_mgr.c **** {
 781              		.loc 1 308 1 is_stmt 1
 782              		.cfi_startproc
 309:C:/Users/stapi/OneDrive/Desktop/GD32VW553/GD32VW55X_Wifi_BLE_SDK/GD32VW55x_RELEASE_V1.0.2/MSDK/ble/app\app_per_sync_mgr.c ****     ble_per_sync_callback_unregister(ble_per_sync_evt_handler);
 783              		.loc 1 309 5
 784 0000 37050000 		lui	a0,%hi(ble_per_sync_evt_handler)
 785 0004 13050500 		addi	a0,a0,%lo(ble_per_sync_evt_handler)
 786 0008 17030000 		tail	ble_per_sync_callback_unregister
 786      67000300 
 787              	.LVL88:
 788              		.cfi_endproc
 789              	.LFE11:
 791              		.section	.sbss.ble_sync_mgr_cb,"aw",@nobits
 792              		.align	2
 793              		.set	.LANCHOR0,. + 0
 796              	ble_sync_mgr_cb:
 797 0000 00000000 		.zero	8
 797      00000000 
 798              		.text
 799              	.Letext0:
 800              		.file 2 "c:\\users\\stapi\\onedrive\\desktop\\gd32vw553\\embeddedbuilder_v1.4.7.26843\\tools\\nucl
 801              		.file 3 "c:\\users\\stapi\\onedrive\\desktop\\gd32vw553\\embeddedbuilder_v1.4.7.26843\\tools\\nucl
 802              		.file 4 "..\\..\\..\\..\\blesw\\src\\export/ble_types.h"
 803              		.file 5 "..\\..\\..\\..\\blesw\\src\\export/ble_error.h"
 804              		.file 6 "..\\..\\..\\..\\blesw\\src\\export/ble_gap.h"
 805              		.file 7 "..\\..\\..\\..\\blesw\\src\\export/ble_per_sync.h"
 806              		.file 8 "..\\..\\..\\..\\util\\include/dlist.h"
 807              		.file 9 "C:/Users/stapi/OneDrive/Desktop/GD32VW553/GD32VW55X_Wifi_BLE_SDK/GD32VW55x_RELEASE_V1.0.2
 808              		.file 10 "..\\..\\..\\..\\util\\include/dbg_print.h"
 809              		.file 11 "..\\..\\..\\..\\util\\include/debug_print.h"
 810              		.file 12 "c:\\users\\stapi\\onedrive\\desktop\\gd32vw553\\embeddedbuilder_v1.4.7.26843\\tools\\nuc
 811              		.file 13 "..\\..\\..\\..\\rtos\\rtos_wrapper/wrapper_os.h"
 812              		.file 14 "<built-in>"
DEFINED SYMBOLS
                            *ABS*:0000000000000000 app_per_sync_mgr.c
C:\Users\stapi\AppData\Local\Temp\ccmC26Ly.s:12     .text.sync_mgr_find_device_by_idx:0000000000000000 sync_mgr_find_device_by_idx
C:\Users\stapi\AppData\Local\Temp\ccmC26Ly.s:16     .text.sync_mgr_find_device_by_idx:0000000000000000 .L0 
C:\Users\stapi\AppData\Local\Temp\ccmC26Ly.s:18     .text.sync_mgr_find_device_by_idx:0000000000000000 .L0 
C:\Users\stapi\AppData\Local\Temp\ccmC26Ly.s:19     .text.sync_mgr_find_device_by_idx:0000000000000008 .L0 
C:\Users\stapi\AppData\Local\Temp\ccmC26Ly.s:20     .text.sync_mgr_find_device_by_idx:0000000000000008 .L0 
C:\Users\stapi\AppData\Local\Temp\ccmC26Ly.s:21     .text.sync_mgr_find_device_by_idx:0000000000000008 .L0 
C:\Users\stapi\AppData\Local\Temp\ccmC26Ly.s:22     .text.sync_mgr_find_device_by_idx:0000000000000008 .L0 
C:\Users\stapi\AppData\Local\Temp\ccmC26Ly.s:25     .text.sync_mgr_find_device_by_idx:0000000000000008 .L0 
C:\Users\stapi\AppData\Local\Temp\ccmC26Ly.s:26     .text.sync_mgr_find_device_by_idx:0000000000000008 .L0 
C:\Users\stapi\AppData\Local\Temp\ccmC26Ly.s:27     .text.sync_mgr_find_device_by_idx:0000000000000008 .L0 
C:\Users\stapi\AppData\Local\Temp\ccmC26Ly.s:28     .text.sync_mgr_find_device_by_idx:0000000000000008 .L0 
C:\Users\stapi\AppData\Local\Temp\ccmC26Ly.s:30     .text.sync_mgr_find_device_by_idx:000000000000000c .L0 
C:\Users\stapi\AppData\Local\Temp\ccmC26Ly.s:32     .text.sync_mgr_find_device_by_idx:000000000000000e .L0 
C:\Users\stapi\AppData\Local\Temp\ccmC26Ly.s:37     .text.sync_mgr_find_device_by_idx:000000000000001a .L0 
C:\Users\stapi\AppData\Local\Temp\ccmC26Ly.s:40     .text.sync_mgr_find_device_by_idx:0000000000000020 .L0 
C:\Users\stapi\AppData\Local\Temp\ccmC26Ly.s:46     .text.sync_mgr_find_device_by_idx:0000000000000024 .L0 
C:\Users\stapi\AppData\Local\Temp\ccmC26Ly.s:50     .text.sync_mgr_find_device_by_idx:0000000000000028 .L0 
C:\Users\stapi\AppData\Local\Temp\ccmC26Ly.s:53     .text.sync_mgr_find_device_by_idx:000000000000002a .L0 
C:\Users\stapi\AppData\Local\Temp\ccmC26Ly.s:54     .text.sync_mgr_find_device_by_idx:0000000000000032 .L0 
C:\Users\stapi\AppData\Local\Temp\ccmC26Ly.s:55     .text.sync_mgr_find_device_by_idx:0000000000000032 .L0 
C:\Users\stapi\AppData\Local\Temp\ccmC26Ly.s:56     .text.sync_mgr_find_device_by_idx:0000000000000032 .L0 
C:\Users\stapi\AppData\Local\Temp\ccmC26Ly.s:57     .text.sync_mgr_find_device_by_idx:0000000000000032 .L0 
C:\Users\stapi\AppData\Local\Temp\ccmC26Ly.s:58     .text.sync_mgr_find_device_by_idx:0000000000000032 .L0 
C:\Users\stapi\AppData\Local\Temp\ccmC26Ly.s:61     .text.sync_mgr_find_device_by_idx:0000000000000032 .L0 
C:\Users\stapi\AppData\Local\Temp\ccmC26Ly.s:63     .text.sync_mgr_find_device_by_idx:0000000000000032 .L0 
C:\Users\stapi\AppData\Local\Temp\ccmC26Ly.s:64     .text.sync_mgr_find_device_by_idx:0000000000000032 .L0 
C:\Users\stapi\AppData\Local\Temp\ccmC26Ly.s:65     .text.sync_mgr_find_device_by_idx:0000000000000032 .L0 
C:\Users\stapi\AppData\Local\Temp\ccmC26Ly.s:69     .text.sync_mgr_find_device_by_idx:000000000000003a .L0 
C:\Users\stapi\AppData\Local\Temp\ccmC26Ly.s:74     .text.sync_mgr_find_device_by_idx:0000000000000040 .L0 
C:\Users\stapi\AppData\Local\Temp\ccmC26Ly.s:81     .text.ble_per_sync_clear_all_dev_list_flag:0000000000000000 ble_per_sync_clear_all_dev_list_flag
C:\Users\stapi\AppData\Local\Temp\ccmC26Ly.s:84     .text.ble_per_sync_clear_all_dev_list_flag:0000000000000000 .L0 
C:\Users\stapi\AppData\Local\Temp\ccmC26Ly.s:85     .text.ble_per_sync_clear_all_dev_list_flag:0000000000000000 .L0 
C:\Users\stapi\AppData\Local\Temp\ccmC26Ly.s:86     .text.ble_per_sync_clear_all_dev_list_flag:0000000000000008 .L0 
C:\Users\stapi\AppData\Local\Temp\ccmC26Ly.s:87     .text.ble_per_sync_clear_all_dev_list_flag:0000000000000008 .L0 
C:\Users\stapi\AppData\Local\Temp\ccmC26Ly.s:88     .text.ble_per_sync_clear_all_dev_list_flag:0000000000000008 .L0 
C:\Users\stapi\AppData\Local\Temp\ccmC26Ly.s:91     .text.ble_per_sync_clear_all_dev_list_flag:0000000000000008 .L0 
C:\Users\stapi\AppData\Local\Temp\ccmC26Ly.s:92     .text.ble_per_sync_clear_all_dev_list_flag:0000000000000008 .L0 
C:\Users\stapi\AppData\Local\Temp\ccmC26Ly.s:93     .text.ble_per_sync_clear_all_dev_list_flag:0000000000000008 .L0 
C:\Users\stapi\AppData\Local\Temp\ccmC26Ly.s:94     .text.ble_per_sync_clear_all_dev_list_flag:0000000000000008 .L0 
C:\Users\stapi\AppData\Local\Temp\ccmC26Ly.s:99     .text.ble_per_sync_clear_all_dev_list_flag:0000000000000018 .L0 
C:\Users\stapi\AppData\Local\Temp\ccmC26Ly.s:102    .text.ble_per_sync_clear_all_dev_list_flag:000000000000001e .L0 
C:\Users\stapi\AppData\Local\Temp\ccmC26Ly.s:108    .text.ble_per_sync_clear_all_dev_list_flag:0000000000000022 .L0 
C:\Users\stapi\AppData\Local\Temp\ccmC26Ly.s:112    .text.ble_per_sync_clear_all_dev_list_flag:0000000000000026 .L0 
C:\Users\stapi\AppData\Local\Temp\ccmC26Ly.s:113    .text.ble_per_sync_clear_all_dev_list_flag:000000000000002e .L0 
C:\Users\stapi\AppData\Local\Temp\ccmC26Ly.s:114    .text.ble_per_sync_clear_all_dev_list_flag:000000000000002e .L0 
C:\Users\stapi\AppData\Local\Temp\ccmC26Ly.s:115    .text.ble_per_sync_clear_all_dev_list_flag:000000000000002e .L0 
C:\Users\stapi\AppData\Local\Temp\ccmC26Ly.s:116    .text.ble_per_sync_clear_all_dev_list_flag:000000000000002e .L0 
C:\Users\stapi\AppData\Local\Temp\ccmC26Ly.s:119    .text.ble_per_sync_clear_all_dev_list_flag:000000000000002e .L0 
C:\Users\stapi\AppData\Local\Temp\ccmC26Ly.s:121    .text.ble_per_sync_clear_all_dev_list_flag:000000000000002e .L0 
C:\Users\stapi\AppData\Local\Temp\ccmC26Ly.s:122    .text.ble_per_sync_clear_all_dev_list_flag:000000000000002e .L0 
C:\Users\stapi\AppData\Local\Temp\ccmC26Ly.s:123    .text.ble_per_sync_clear_all_dev_list_flag:000000000000002e .L0 
C:\Users\stapi\AppData\Local\Temp\ccmC26Ly.s:126    .text.ble_per_sync_clear_all_dev_list_flag:0000000000000032 .L0 
C:\Users\stapi\AppData\Local\Temp\ccmC26Ly.s:131    .text.ble_per_sync_clear_all_dev_list_flag:0000000000000038 .L0 
C:\Users\stapi\AppData\Local\Temp\ccmC26Ly.s:138    .text.ble_per_sync_mgr_find_device:0000000000000000 ble_per_sync_mgr_find_device
C:\Users\stapi\AppData\Local\Temp\ccmC26Ly.s:141    .text.ble_per_sync_mgr_find_device:0000000000000000 .L0 
C:\Users\stapi\AppData\Local\Temp\ccmC26Ly.s:143    .text.ble_per_sync_mgr_find_device:0000000000000000 .L0 
C:\Users\stapi\AppData\Local\Temp\ccmC26Ly.s:144    .text.ble_per_sync_mgr_find_device:0000000000000008 .L0 
C:\Users\stapi\AppData\Local\Temp\ccmC26Ly.s:145    .text.ble_per_sync_mgr_find_device:0000000000000008 .L0 
C:\Users\stapi\AppData\Local\Temp\ccmC26Ly.s:146    .text.ble_per_sync_mgr_find_device:0000000000000008 .L0 
C:\Users\stapi\AppData\Local\Temp\ccmC26Ly.s:147    .text.ble_per_sync_mgr_find_device:0000000000000008 .L0 
C:\Users\stapi\AppData\Local\Temp\ccmC26Ly.s:148    .text.ble_per_sync_mgr_find_device:0000000000000008 .L0 
C:\Users\stapi\AppData\Local\Temp\ccmC26Ly.s:149    .text.ble_per_sync_mgr_find_device:0000000000000008 .L0 
C:\Users\stapi\AppData\Local\Temp\ccmC26Ly.s:150    .text.ble_per_sync_mgr_find_device:0000000000000008 .L0 
C:\Users\stapi\AppData\Local\Temp\ccmC26Ly.s:151    .text.ble_per_sync_mgr_find_device:0000000000000008 .L0 
C:\Users\stapi\AppData\Local\Temp\ccmC26Ly.s:154    .text.ble_per_sync_mgr_find_device:0000000000000008 .L0 
C:\Users\stapi\AppData\Local\Temp\ccmC26Ly.s:155    .text.ble_per_sync_mgr_find_device:0000000000000008 .L0 
C:\Users\stapi\AppData\Local\Temp\ccmC26Ly.s:156    .text.ble_per_sync_mgr_find_device:0000000000000008 .L0 
C:\Users\stapi\AppData\Local\Temp\ccmC26Ly.s:157    .text.ble_per_sync_mgr_find_device:0000000000000008 .L0 
C:\Users\stapi\AppData\Local\Temp\ccmC26Ly.s:159    .text.ble_per_sync_mgr_find_device:000000000000000c .L0 
C:\Users\stapi\AppData\Local\Temp\ccmC26Ly.s:161    .text.ble_per_sync_mgr_find_device:000000000000000e .L0 
C:\Users\stapi\AppData\Local\Temp\ccmC26Ly.s:164    .text.ble_per_sync_mgr_find_device:0000000000000012 .L0 
C:\Users\stapi\AppData\Local\Temp\ccmC26Ly.s:166    .text.ble_per_sync_mgr_find_device:0000000000000014 .L0 
C:\Users\stapi\AppData\Local\Temp\ccmC26Ly.s:169    .text.ble_per_sync_mgr_find_device:000000000000001c .L0 
C:\Users\stapi\AppData\Local\Temp\ccmC26Ly.s:172    .text.ble_per_sync_mgr_find_device:0000000000000022 .L0 
C:\Users\stapi\AppData\Local\Temp\ccmC26Ly.s:175    .text.ble_per_sync_mgr_find_device:0000000000000024 .L0 
C:\Users\stapi\AppData\Local\Temp\ccmC26Ly.s:177    .text.ble_per_sync_mgr_find_device:0000000000000028 .L0 
C:\Users\stapi\AppData\Local\Temp\ccmC26Ly.s:181    .text.ble_per_sync_mgr_find_device:000000000000002c .L0 
C:\Users\stapi\AppData\Local\Temp\ccmC26Ly.s:185    .text.ble_per_sync_mgr_find_device:0000000000000030 .L0 
C:\Users\stapi\AppData\Local\Temp\ccmC26Ly.s:188    .text.ble_per_sync_mgr_find_device:0000000000000032 .L0 
C:\Users\stapi\AppData\Local\Temp\ccmC26Ly.s:190    .text.ble_per_sync_mgr_find_device:000000000000003c .L0 
C:\Users\stapi\AppData\Local\Temp\ccmC26Ly.s:191    .text.ble_per_sync_mgr_find_device:000000000000003c .L0 
C:\Users\stapi\AppData\Local\Temp\ccmC26Ly.s:192    .text.ble_per_sync_mgr_find_device:000000000000003c .L0 
C:\Users\stapi\AppData\Local\Temp\ccmC26Ly.s:193    .text.ble_per_sync_mgr_find_device:000000000000003c .L0 
C:\Users\stapi\AppData\Local\Temp\ccmC26Ly.s:194    .text.ble_per_sync_mgr_find_device:000000000000003c .L0 
C:\Users\stapi\AppData\Local\Temp\ccmC26Ly.s:195    .text.ble_per_sync_mgr_find_device:000000000000003c .L0 
C:\Users\stapi\AppData\Local\Temp\ccmC26Ly.s:196    .text.ble_per_sync_mgr_find_device:000000000000003c .L0 
C:\Users\stapi\AppData\Local\Temp\ccmC26Ly.s:197    .text.ble_per_sync_mgr_find_device:000000000000003c .L0 
C:\Users\stapi\AppData\Local\Temp\ccmC26Ly.s:198    .text.ble_per_sync_mgr_find_device:000000000000003c .L0 
C:\Users\stapi\AppData\Local\Temp\ccmC26Ly.s:201    .text.ble_per_sync_mgr_find_device:000000000000003c .L0 
C:\Users\stapi\AppData\Local\Temp\ccmC26Ly.s:203    .text.ble_per_sync_mgr_find_device:000000000000003c .L0 
C:\Users\stapi\AppData\Local\Temp\ccmC26Ly.s:204    .text.ble_per_sync_mgr_find_device:000000000000003c .L0 
C:\Users\stapi\AppData\Local\Temp\ccmC26Ly.s:205    .text.ble_per_sync_mgr_find_device:000000000000003c .L0 
C:\Users\stapi\AppData\Local\Temp\ccmC26Ly.s:209    .text.ble_per_sync_mgr_find_device:0000000000000048 .L0 
C:\Users\stapi\AppData\Local\Temp\ccmC26Ly.s:212    .text.ble_per_sync_mgr_find_device:0000000000000050 .L0 
C:\Users\stapi\AppData\Local\Temp\ccmC26Ly.s:218    .text.ble_per_sync_mgr_find_device:0000000000000060 .L0 
C:\Users\stapi\AppData\Local\Temp\ccmC26Ly.s:222    .text.ble_per_sync_mgr_find_device:0000000000000062 .L0 
C:\Users\stapi\AppData\Local\Temp\ccmC26Ly.s:227    .text.ble_per_sync_mgr_find_device:000000000000006a .L0 
C:\Users\stapi\AppData\Local\Temp\ccmC26Ly.s:234    .text.ble_per_sync_mgr_find_alloc_device:0000000000000000 ble_per_sync_mgr_find_alloc_device
C:\Users\stapi\AppData\Local\Temp\ccmC26Ly.s:237    .text.ble_per_sync_mgr_find_alloc_device:0000000000000000 .L0 
C:\Users\stapi\AppData\Local\Temp\ccmC26Ly.s:239    .text.ble_per_sync_mgr_find_alloc_device:0000000000000000 .L0 
C:\Users\stapi\AppData\Local\Temp\ccmC26Ly.s:240    .text.ble_per_sync_mgr_find_alloc_device:0000000000000008 .L0 
C:\Users\stapi\AppData\Local\Temp\ccmC26Ly.s:241    .text.ble_per_sync_mgr_find_alloc_device:0000000000000008 .L0 
C:\Users\stapi\AppData\Local\Temp\ccmC26Ly.s:242    .text.ble_per_sync_mgr_find_alloc_device:0000000000000008 .L0 
C:\Users\stapi\AppData\Local\Temp\ccmC26Ly.s:243    .text.ble_per_sync_mgr_find_alloc_device:0000000000000008 .L0 
C:\Users\stapi\AppData\Local\Temp\ccmC26Ly.s:244    .text.ble_per_sync_mgr_find_alloc_device:0000000000000008 .L0 
C:\Users\stapi\AppData\Local\Temp\ccmC26Ly.s:245    .text.ble_per_sync_mgr_find_alloc_device:0000000000000008 .L0 
C:\Users\stapi\AppData\Local\Temp\ccmC26Ly.s:247    .text.ble_per_sync_mgr_find_alloc_device:0000000000000008 .L0 
C:\Users\stapi\AppData\Local\Temp\ccmC26Ly.s:248    .text.ble_per_sync_mgr_find_alloc_device:0000000000000008 .L0 
C:\Users\stapi\AppData\Local\Temp\ccmC26Ly.s:252    .text.ble_per_sync_mgr_find_alloc_device:000000000000000e .L0 
C:\Users\stapi\AppData\Local\Temp\ccmC26Ly.s:257    .text.ble_per_sync_mgr_find_alloc_device:0000000000000018 .L0 
C:\Users\stapi\AppData\Local\Temp\ccmC26Ly.s:258    .text.ble_per_sync_mgr_find_alloc_device:0000000000000018 .L0 
C:\Users\stapi\AppData\Local\Temp\ccmC26Ly.s:263    .text.ble_per_sync_mgr_find_alloc_device:000000000000001a .L0 
C:\Users\stapi\AppData\Local\Temp\ccmC26Ly.s:264    .text.ble_per_sync_mgr_find_alloc_device:000000000000001a .L0 
C:\Users\stapi\AppData\Local\Temp\ccmC26Ly.s:270    .text.ble_per_sync_mgr_find_alloc_device:0000000000000026 .L0 
C:\Users\stapi\AppData\Local\Temp\ccmC26Ly.s:271    .text.ble_per_sync_mgr_find_alloc_device:0000000000000026 .L0 
C:\Users\stapi\AppData\Local\Temp\ccmC26Ly.s:273    .text.ble_per_sync_mgr_find_alloc_device:0000000000000028 .L0 
C:\Users\stapi\AppData\Local\Temp\ccmC26Ly.s:279    .text.ble_per_sync_mgr_find_alloc_device:0000000000000036 .L0 
C:\Users\stapi\AppData\Local\Temp\ccmC26Ly.s:280    .text.ble_per_sync_mgr_find_alloc_device:0000000000000036 .L0 
C:\Users\stapi\AppData\Local\Temp\ccmC26Ly.s:282    .text.ble_per_sync_mgr_find_alloc_device:0000000000000038 .L0 
C:\Users\stapi\AppData\Local\Temp\ccmC26Ly.s:284    .text.ble_per_sync_mgr_find_alloc_device:000000000000003a .L0 
C:\Users\stapi\AppData\Local\Temp\ccmC26Ly.s:285    .text.ble_per_sync_mgr_find_alloc_device:000000000000003a .L0 
C:\Users\stapi\AppData\Local\Temp\ccmC26Ly.s:286    .text.ble_per_sync_mgr_find_alloc_device:000000000000003a .L0 
C:\Users\stapi\AppData\Local\Temp\ccmC26Ly.s:288    .text.ble_per_sync_mgr_find_alloc_device:000000000000003e .L0 
C:\Users\stapi\AppData\Local\Temp\ccmC26Ly.s:291    .text.ble_per_sync_mgr_find_alloc_device:0000000000000044 .L0 
C:\Users\stapi\AppData\Local\Temp\ccmC26Ly.s:293    .text.ble_per_sync_mgr_find_alloc_device:0000000000000048 .L0 
C:\Users\stapi\AppData\Local\Temp\ccmC26Ly.s:297    .text.ble_per_sync_mgr_find_alloc_device:0000000000000054 .L0 
C:\Users\stapi\AppData\Local\Temp\ccmC26Ly.s:298    .text.ble_per_sync_mgr_find_alloc_device:0000000000000054 .L0 
C:\Users\stapi\AppData\Local\Temp\ccmC26Ly.s:300    .text.ble_per_sync_mgr_find_alloc_device:0000000000000058 .L0 
C:\Users\stapi\AppData\Local\Temp\ccmC26Ly.s:302    .text.ble_per_sync_mgr_find_alloc_device:000000000000005c .L0 
C:\Users\stapi\AppData\Local\Temp\ccmC26Ly.s:303    .text.ble_per_sync_mgr_find_alloc_device:000000000000005c .L0 
C:\Users\stapi\AppData\Local\Temp\ccmC26Ly.s:305    .text.ble_per_sync_mgr_find_alloc_device:0000000000000060 .L0 
C:\Users\stapi\AppData\Local\Temp\ccmC26Ly.s:313    .text.ble_per_sync_mgr_find_alloc_device:000000000000006e .L0 
C:\Users\stapi\AppData\Local\Temp\ccmC26Ly.s:315    .text.ble_per_sync_mgr_find_alloc_device:0000000000000078 .L0 
C:\Users\stapi\AppData\Local\Temp\ccmC26Ly.s:316    .text.ble_per_sync_mgr_find_alloc_device:0000000000000078 .L0 
C:\Users\stapi\AppData\Local\Temp\ccmC26Ly.s:317    .text.ble_per_sync_mgr_find_alloc_device:0000000000000078 .L0 
C:\Users\stapi\AppData\Local\Temp\ccmC26Ly.s:318    .text.ble_per_sync_mgr_find_alloc_device:0000000000000078 .L0 
C:\Users\stapi\AppData\Local\Temp\ccmC26Ly.s:319    .text.ble_per_sync_mgr_find_alloc_device:0000000000000078 .L0 
C:\Users\stapi\AppData\Local\Temp\ccmC26Ly.s:320    .text.ble_per_sync_mgr_find_alloc_device:0000000000000078 .L0 
C:\Users\stapi\AppData\Local\Temp\ccmC26Ly.s:321    .text.ble_per_sync_mgr_find_alloc_device:0000000000000078 .L0 
C:\Users\stapi\AppData\Local\Temp\ccmC26Ly.s:340    .text.ble_per_sync_evt_handler:0000000000000000 ble_per_sync_evt_handler
C:\Users\stapi\AppData\Local\Temp\ccmC26Ly.s:343    .text.ble_per_sync_evt_handler:0000000000000000 .L0 
C:\Users\stapi\AppData\Local\Temp\ccmC26Ly.s:345    .text.ble_per_sync_evt_handler:0000000000000000 .L0 
C:\Users\stapi\AppData\Local\Temp\ccmC26Ly.s:346    .text.ble_per_sync_evt_handler:0000000000000008 .L0 
C:\Users\stapi\AppData\Local\Temp\ccmC26Ly.s:347    .text.ble_per_sync_evt_handler:0000000000000008 .L0 
C:\Users\stapi\AppData\Local\Temp\ccmC26Ly.s:348    .text.ble_per_sync_evt_handler:0000000000000008 .L0 
C:\Users\stapi\AppData\Local\Temp\ccmC26Ly.s:349    .text.ble_per_sync_evt_handler:0000000000000008 .L0 
C:\Users\stapi\AppData\Local\Temp\ccmC26Ly.s:352    .text.ble_per_sync_evt_handler:0000000000000008 .L0 
C:\Users\stapi\AppData\Local\Temp\ccmC26Ly.s:353    .text.ble_per_sync_evt_handler:0000000000000008 .L0 
C:\Users\stapi\AppData\Local\Temp\ccmC26Ly.s:355    .text.ble_per_sync_evt_handler:000000000000000a .L0 
C:\Users\stapi\AppData\Local\Temp\ccmC26Ly.s:357    .text.ble_per_sync_evt_handler:000000000000000c .L0 
C:\Users\stapi\AppData\Local\Temp\ccmC26Ly.s:361    .text.ble_per_sync_evt_handler:0000000000000016 .L0 
C:\Users\stapi\AppData\Local\Temp\ccmC26Ly.s:362    .text.ble_per_sync_evt_handler:0000000000000016 .L0 
C:\Users\stapi\AppData\Local\Temp\ccmC26Ly.s:366    .text.ble_per_sync_evt_handler:0000000000000022 .L0 
C:\Users\stapi\AppData\Local\Temp\ccmC26Ly.s:378    .text.ble_per_sync_evt_handler:000000000000003a .L0 
C:\Users\stapi\AppData\Local\Temp\ccmC26Ly.s:383    .text.ble_per_sync_evt_handler:0000000000000040 .L0 
C:\Users\stapi\AppData\Local\Temp\ccmC26Ly.s:384    .text.ble_per_sync_evt_handler:0000000000000048 .L0 
C:\Users\stapi\AppData\Local\Temp\ccmC26Ly.s:385    .text.ble_per_sync_evt_handler:0000000000000048 .L0 
C:\Users\stapi\AppData\Local\Temp\ccmC26Ly.s:386    .text.ble_per_sync_evt_handler:0000000000000048 .L0 
C:\Users\stapi\AppData\Local\Temp\ccmC26Ly.s:387    .text.ble_per_sync_evt_handler:0000000000000048 .L0 
C:\Users\stapi\AppData\Local\Temp\ccmC26Ly.s:388    .text.ble_per_sync_evt_handler:0000000000000048 .L0 
C:\Users\stapi\AppData\Local\Temp\ccmC26Ly.s:391    .text.ble_per_sync_evt_handler:0000000000000048 .L0 
C:\Users\stapi\AppData\Local\Temp\ccmC26Ly.s:393    .text.ble_per_sync_evt_handler:0000000000000048 .L0 
C:\Users\stapi\AppData\Local\Temp\ccmC26Ly.s:394    .text.ble_per_sync_evt_handler:0000000000000048 .L0 
C:\Users\stapi\AppData\Local\Temp\ccmC26Ly.s:398    .text.ble_per_sync_evt_handler:0000000000000054 .L0 
C:\Users\stapi\AppData\Local\Temp\ccmC26Ly.s:412    .text.ble_per_sync_evt_handler:0000000000000080 .L0 
C:\Users\stapi\AppData\Local\Temp\ccmC26Ly.s:413    .text.ble_per_sync_evt_handler:0000000000000080 .L0 
C:\Users\stapi\AppData\Local\Temp\ccmC26Ly.s:414    .text.ble_per_sync_evt_handler:0000000000000080 .L0 
C:\Users\stapi\AppData\Local\Temp\ccmC26Ly.s:420    .text.ble_per_sync_evt_handler:0000000000000094 .L0 
C:\Users\stapi\AppData\Local\Temp\ccmC26Ly.s:421    .text.ble_per_sync_evt_handler:0000000000000094 .L0 
C:\Users\stapi\AppData\Local\Temp\ccmC26Ly.s:423    .text.ble_per_sync_evt_handler:0000000000000096 .L0 
C:\Users\stapi\AppData\Local\Temp\ccmC26Ly.s:424    .text.ble_per_sync_evt_handler:0000000000000096 .L0 
C:\Users\stapi\AppData\Local\Temp\ccmC26Ly.s:427    .text.ble_per_sync_evt_handler:000000000000009e .L0 
C:\Users\stapi\AppData\Local\Temp\ccmC26Ly.s:428    .text.ble_per_sync_evt_handler:000000000000009e .L0 
C:\Users\stapi\AppData\Local\Temp\ccmC26Ly.s:431    .text.ble_per_sync_evt_handler:00000000000000a6 .L0 
C:\Users\stapi\AppData\Local\Temp\ccmC26Ly.s:432    .text.ble_per_sync_evt_handler:00000000000000a6 .L0 
C:\Users\stapi\AppData\Local\Temp\ccmC26Ly.s:435    .text.ble_per_sync_evt_handler:00000000000000ae .L0 
C:\Users\stapi\AppData\Local\Temp\ccmC26Ly.s:436    .text.ble_per_sync_evt_handler:00000000000000ae .L0 
C:\Users\stapi\AppData\Local\Temp\ccmC26Ly.s:443    .text.ble_per_sync_evt_handler:00000000000000b8 .L0 
C:\Users\stapi\AppData\Local\Temp\ccmC26Ly.s:444    .text.ble_per_sync_evt_handler:00000000000000b8 .L0 
C:\Users\stapi\AppData\Local\Temp\ccmC26Ly.s:445    .text.ble_per_sync_evt_handler:00000000000000b8 .L0 
C:\Users\stapi\AppData\Local\Temp\ccmC26Ly.s:451    .text.ble_per_sync_evt_handler:00000000000000c6 .L0 
C:\Users\stapi\AppData\Local\Temp\ccmC26Ly.s:452    .text.ble_per_sync_evt_handler:00000000000000c6 .L0 
C:\Users\stapi\AppData\Local\Temp\ccmC26Ly.s:454    .text.ble_per_sync_evt_handler:00000000000000c8 .L0 
C:\Users\stapi\AppData\Local\Temp\ccmC26Ly.s:455    .text.ble_per_sync_evt_handler:00000000000000c8 .L0 
C:\Users\stapi\AppData\Local\Temp\ccmC26Ly.s:459    .text.ble_per_sync_evt_handler:00000000000000d4 .L0 
C:\Users\stapi\AppData\Local\Temp\ccmC26Ly.s:476    .text.ble_per_sync_evt_handler:00000000000000fe .L0 
C:\Users\stapi\AppData\Local\Temp\ccmC26Ly.s:477    .text.ble_per_sync_evt_handler:00000000000000fe .L0 
C:\Users\stapi\AppData\Local\Temp\ccmC26Ly.s:478    .text.ble_per_sync_evt_handler:00000000000000fe .L0 
C:\Users\stapi\AppData\Local\Temp\ccmC26Ly.s:483    .text.ble_per_sync_evt_handler:000000000000010a .L0 
C:\Users\stapi\AppData\Local\Temp\ccmC26Ly.s:484    .text.ble_per_sync_evt_handler:000000000000010a .L0 
C:\Users\stapi\AppData\Local\Temp\ccmC26Ly.s:486    .text.ble_per_sync_evt_handler:000000000000010c .L0 
C:\Users\stapi\AppData\Local\Temp\ccmC26Ly.s:487    .text.ble_per_sync_evt_handler:000000000000010c .L0 
C:\Users\stapi\AppData\Local\Temp\ccmC26Ly.s:491    .text.ble_per_sync_evt_handler:0000000000000118 .L0 
C:\Users\stapi\AppData\Local\Temp\ccmC26Ly.s:499    .text.ble_per_sync_evt_handler:000000000000012c .L0 
C:\Users\stapi\AppData\Local\Temp\ccmC26Ly.s:500    .text.ble_per_sync_evt_handler:000000000000012e .L0 
C:\Users\stapi\AppData\Local\Temp\ccmC26Ly.s:507    .text.per_sync_mgr_clear_dev_list:0000000000000000 per_sync_mgr_clear_dev_list
C:\Users\stapi\AppData\Local\Temp\ccmC26Ly.s:510    .text.per_sync_mgr_clear_dev_list:0000000000000000 .L0 
C:\Users\stapi\AppData\Local\Temp\ccmC26Ly.s:511    .text.per_sync_mgr_clear_dev_list:0000000000000000 .L0 
C:\Users\stapi\AppData\Local\Temp\ccmC26Ly.s:512    .text.per_sync_mgr_clear_dev_list:0000000000000008 .L0 
C:\Users\stapi\AppData\Local\Temp\ccmC26Ly.s:513    .text.per_sync_mgr_clear_dev_list:0000000000000008 .L0 
C:\Users\stapi\AppData\Local\Temp\ccmC26Ly.s:514    .text.per_sync_mgr_clear_dev_list:0000000000000008 .L0 
C:\Users\stapi\AppData\Local\Temp\ccmC26Ly.s:515    .text.per_sync_mgr_clear_dev_list:0000000000000008 .L0 
C:\Users\stapi\AppData\Local\Temp\ccmC26Ly.s:518    .text.per_sync_mgr_clear_dev_list:0000000000000008 .L0 
C:\Users\stapi\AppData\Local\Temp\ccmC26Ly.s:519    .text.per_sync_mgr_clear_dev_list:0000000000000008 .L0 
C:\Users\stapi\AppData\Local\Temp\ccmC26Ly.s:520    .text.per_sync_mgr_clear_dev_list:0000000000000008 .L0 
C:\Users\stapi\AppData\Local\Temp\ccmC26Ly.s:521    .text.per_sync_mgr_clear_dev_list:0000000000000008 .L0 
C:\Users\stapi\AppData\Local\Temp\ccmC26Ly.s:523    .text.per_sync_mgr_clear_dev_list:000000000000000c .L0 
C:\Users\stapi\AppData\Local\Temp\ccmC26Ly.s:524    .text.per_sync_mgr_clear_dev_list:000000000000000e .L0 
C:\Users\stapi\AppData\Local\Temp\ccmC26Ly.s:526    .text.per_sync_mgr_clear_dev_list:000000000000000e .L0 
C:\Users\stapi\AppData\Local\Temp\ccmC26Ly.s:530    .text.per_sync_mgr_clear_dev_list:000000000000001a .L0 
C:\Users\stapi\AppData\Local\Temp\ccmC26Ly.s:535    .text.per_sync_mgr_clear_dev_list:0000000000000020 .L0 
C:\Users\stapi\AppData\Local\Temp\ccmC26Ly.s:541    .text.per_sync_mgr_clear_dev_list:0000000000000024 .L0 
C:\Users\stapi\AppData\Local\Temp\ccmC26Ly.s:547    .text.per_sync_mgr_clear_dev_list:0000000000000028 .L0 
C:\Users\stapi\AppData\Local\Temp\ccmC26Ly.s:548    .text.per_sync_mgr_clear_dev_list:000000000000002a .L0 
C:\Users\stapi\AppData\Local\Temp\ccmC26Ly.s:549    .text.per_sync_mgr_clear_dev_list:000000000000002a .L0 
C:\Users\stapi\AppData\Local\Temp\ccmC26Ly.s:551    .text.per_sync_mgr_clear_dev_list:0000000000000032 .L0 
C:\Users\stapi\AppData\Local\Temp\ccmC26Ly.s:552    .text.per_sync_mgr_clear_dev_list:0000000000000032 .L0 
C:\Users\stapi\AppData\Local\Temp\ccmC26Ly.s:553    .text.per_sync_mgr_clear_dev_list:0000000000000032 .L0 
C:\Users\stapi\AppData\Local\Temp\ccmC26Ly.s:554    .text.per_sync_mgr_clear_dev_list:0000000000000032 .L0 
C:\Users\stapi\AppData\Local\Temp\ccmC26Ly.s:557    .text.per_sync_mgr_clear_dev_list:0000000000000032 .L0 
C:\Users\stapi\AppData\Local\Temp\ccmC26Ly.s:561    .text.per_sync_mgr_clear_dev_list:0000000000000032 .L0 
C:\Users\stapi\AppData\Local\Temp\ccmC26Ly.s:562    .text.per_sync_mgr_clear_dev_list:0000000000000032 .L0 
C:\Users\stapi\AppData\Local\Temp\ccmC26Ly.s:566    .text.per_sync_mgr_clear_dev_list:000000000000003c .L0 
C:\Users\stapi\AppData\Local\Temp\ccmC26Ly.s:570    .text.per_sync_mgr_clear_dev_list:0000000000000046 .L0 
C:\Users\stapi\AppData\Local\Temp\ccmC26Ly.s:576    .text.per_sync_mgr_clear_dev_list:000000000000004c .L0 
C:\Users\stapi\AppData\Local\Temp\ccmC26Ly.s:583    .text.app_per_sync_mgr_reset:0000000000000000 app_per_sync_mgr_reset
C:\Users\stapi\AppData\Local\Temp\ccmC26Ly.s:586    .text.app_per_sync_mgr_reset:0000000000000000 .L0 
C:\Users\stapi\AppData\Local\Temp\ccmC26Ly.s:587    .text.app_per_sync_mgr_reset:0000000000000000 .L0 
C:\Users\stapi\AppData\Local\Temp\ccmC26Ly.s:588    .text.app_per_sync_mgr_reset:0000000000000008 .L0 
C:\Users\stapi\AppData\Local\Temp\ccmC26Ly.s:589    .text.app_per_sync_mgr_reset:0000000000000008 .L0 
C:\Users\stapi\AppData\Local\Temp\ccmC26Ly.s:591    .text.app_per_sync_mgr_reset:0000000000000008 .L0 
C:\Users\stapi\AppData\Local\Temp\ccmC26Ly.s:594    .text.app_per_sync_mgr_reset:0000000000000010 .L0 
C:\Users\stapi\AppData\Local\Temp\ccmC26Ly.s:599    .text.app_per_sync_mgr_reset:0000000000000020 .L0 
C:\Users\stapi\AppData\Local\Temp\ccmC26Ly.s:600    .text.app_per_sync_mgr_reset:0000000000000028 .L0 
C:\Users\stapi\AppData\Local\Temp\ccmC26Ly.s:601    .text.app_per_sync_mgr_reset:0000000000000028 .L0 
C:\Users\stapi\AppData\Local\Temp\ccmC26Ly.s:602    .text.app_per_sync_mgr_reset:0000000000000028 .L0 
C:\Users\stapi\AppData\Local\Temp\ccmC26Ly.s:616    .text.app_per_sync_cancel:0000000000000000 app_per_sync_cancel
C:\Users\stapi\AppData\Local\Temp\ccmC26Ly.s:619    .text.app_per_sync_cancel:0000000000000000 .L0 
C:\Users\stapi\AppData\Local\Temp\ccmC26Ly.s:620    .text.app_per_sync_cancel:0000000000000000 .L0 
C:\Users\stapi\AppData\Local\Temp\ccmC26Ly.s:621    .text.app_per_sync_cancel:0000000000000008 .L0 
C:\Users\stapi\AppData\Local\Temp\ccmC26Ly.s:622    .text.app_per_sync_cancel:0000000000000008 .L0 
C:\Users\stapi\AppData\Local\Temp\ccmC26Ly.s:624    .text.app_per_sync_cancel:0000000000000008 .L0 
C:\Users\stapi\AppData\Local\Temp\ccmC26Ly.s:625    .text.app_per_sync_cancel:0000000000000008 .L0 
C:\Users\stapi\AppData\Local\Temp\ccmC26Ly.s:628    .text.app_per_sync_cancel:0000000000000010 .L0 
C:\Users\stapi\AppData\Local\Temp\ccmC26Ly.s:630    .text.app_per_sync_cancel:0000000000000014 .L0 
C:\Users\stapi\AppData\Local\Temp\ccmC26Ly.s:632    .text.app_per_sync_cancel:0000000000000016 .L0 
C:\Users\stapi\AppData\Local\Temp\ccmC26Ly.s:633    .text.app_per_sync_cancel:0000000000000016 .L0 
C:\Users\stapi\AppData\Local\Temp\ccmC26Ly.s:637    .text.app_per_sync_cancel:000000000000001e .L0 
C:\Users\stapi\AppData\Local\Temp\ccmC26Ly.s:644    .text.app_per_sync_cancel:000000000000002e .L0 
C:\Users\stapi\AppData\Local\Temp\ccmC26Ly.s:645    .text.app_per_sync_cancel:0000000000000036 .L0 
C:\Users\stapi\AppData\Local\Temp\ccmC26Ly.s:646    .text.app_per_sync_cancel:0000000000000036 .L0 
C:\Users\stapi\AppData\Local\Temp\ccmC26Ly.s:647    .text.app_per_sync_cancel:0000000000000036 .L0 
C:\Users\stapi\AppData\Local\Temp\ccmC26Ly.s:650    .text.app_per_sync_cancel:0000000000000036 .L0 
C:\Users\stapi\AppData\Local\Temp\ccmC26Ly.s:652    .text.app_per_sync_cancel:0000000000000036 .L0 
C:\Users\stapi\AppData\Local\Temp\ccmC26Ly.s:653    .text.app_per_sync_cancel:0000000000000036 .L0 
C:\Users\stapi\AppData\Local\Temp\ccmC26Ly.s:657    .text.app_per_sync_cancel:0000000000000040 .L0 
C:\Users\stapi\AppData\Local\Temp\ccmC26Ly.s:663    .text.app_per_sync_cancel:0000000000000050 .L0 
C:\Users\stapi\AppData\Local\Temp\ccmC26Ly.s:664    .text.app_per_sync_cancel:0000000000000052 .L0 
C:\Users\stapi\AppData\Local\Temp\ccmC26Ly.s:678    .text.app_per_sync_terminate:0000000000000000 app_per_sync_terminate
C:\Users\stapi\AppData\Local\Temp\ccmC26Ly.s:681    .text.app_per_sync_terminate:0000000000000000 .L0 
C:\Users\stapi\AppData\Local\Temp\ccmC26Ly.s:683    .text.app_per_sync_terminate:0000000000000000 .L0 
C:\Users\stapi\AppData\Local\Temp\ccmC26Ly.s:684    .text.app_per_sync_terminate:0000000000000008 .L0 
C:\Users\stapi\AppData\Local\Temp\ccmC26Ly.s:685    .text.app_per_sync_terminate:0000000000000008 .L0 
C:\Users\stapi\AppData\Local\Temp\ccmC26Ly.s:686    .text.app_per_sync_terminate:0000000000000008 .L0 
C:\Users\stapi\AppData\Local\Temp\ccmC26Ly.s:688    .text.app_per_sync_terminate:0000000000000008 .L0 
C:\Users\stapi\AppData\Local\Temp\ccmC26Ly.s:689    .text.app_per_sync_terminate:0000000000000008 .L0 
C:\Users\stapi\AppData\Local\Temp\ccmC26Ly.s:691    .text.app_per_sync_terminate:000000000000000a .L0 
C:\Users\stapi\AppData\Local\Temp\ccmC26Ly.s:694    .text.app_per_sync_terminate:0000000000000012 .L0 
C:\Users\stapi\AppData\Local\Temp\ccmC26Ly.s:695    .text.app_per_sync_terminate:0000000000000012 .L0 
C:\Users\stapi\AppData\Local\Temp\ccmC26Ly.s:697    .text.app_per_sync_terminate:0000000000000014 .L0 
C:\Users\stapi\AppData\Local\Temp\ccmC26Ly.s:698    .text.app_per_sync_terminate:0000000000000014 .L0 
C:\Users\stapi\AppData\Local\Temp\ccmC26Ly.s:702    .text.app_per_sync_terminate:000000000000001e .L0 
C:\Users\stapi\AppData\Local\Temp\ccmC26Ly.s:707    .text.app_per_sync_terminate:0000000000000026 .L0 
C:\Users\stapi\AppData\Local\Temp\ccmC26Ly.s:711    .text.app_per_sync_terminate:000000000000002e .L0 
C:\Users\stapi\AppData\Local\Temp\ccmC26Ly.s:712    .text.app_per_sync_terminate:000000000000002e .L0 
C:\Users\stapi\AppData\Local\Temp\ccmC26Ly.s:713    .text.app_per_sync_terminate:0000000000000036 .L0 
C:\Users\stapi\AppData\Local\Temp\ccmC26Ly.s:714    .text.app_per_sync_terminate:0000000000000036 .L0 
C:\Users\stapi\AppData\Local\Temp\ccmC26Ly.s:715    .text.app_per_sync_terminate:0000000000000036 .L0 
C:\Users\stapi\AppData\Local\Temp\ccmC26Ly.s:716    .text.app_per_sync_terminate:0000000000000036 .L0 
C:\Users\stapi\AppData\Local\Temp\ccmC26Ly.s:719    .text.app_per_sync_terminate:0000000000000036 .L0 
C:\Users\stapi\AppData\Local\Temp\ccmC26Ly.s:721    .text.app_per_sync_terminate:0000000000000036 .L0 
C:\Users\stapi\AppData\Local\Temp\ccmC26Ly.s:722    .text.app_per_sync_terminate:0000000000000036 .L0 
C:\Users\stapi\AppData\Local\Temp\ccmC26Ly.s:727    .text.app_per_sync_terminate:0000000000000040 .L0 
C:\Users\stapi\AppData\Local\Temp\ccmC26Ly.s:729    .text.app_per_sync_terminate:0000000000000042 .L0 
C:\Users\stapi\AppData\Local\Temp\ccmC26Ly.s:730    .text.app_per_sync_terminate:0000000000000042 .L0 
C:\Users\stapi\AppData\Local\Temp\ccmC26Ly.s:735    .text.app_per_sync_terminate:0000000000000050 .L0 
C:\Users\stapi\AppData\Local\Temp\ccmC26Ly.s:738    .text.app_per_sync_terminate:000000000000005a .L0 
C:\Users\stapi\AppData\Local\Temp\ccmC26Ly.s:745    .text.app_per_sync_mgr_init:0000000000000000 app_per_sync_mgr_init
C:\Users\stapi\AppData\Local\Temp\ccmC26Ly.s:748    .text.app_per_sync_mgr_init:0000000000000000 .L0 
C:\Users\stapi\AppData\Local\Temp\ccmC26Ly.s:749    .text.app_per_sync_mgr_init:0000000000000000 .L0 
C:\Users\stapi\AppData\Local\Temp\ccmC26Ly.s:750    .text.app_per_sync_mgr_init:0000000000000008 .L0 
C:\Users\stapi\AppData\Local\Temp\ccmC26Ly.s:751    .text.app_per_sync_mgr_init:0000000000000008 .L0 
C:\Users\stapi\AppData\Local\Temp\ccmC26Ly.s:753    .text.app_per_sync_mgr_init:0000000000000008 .L0 
C:\Users\stapi\AppData\Local\Temp\ccmC26Ly.s:754    .text.app_per_sync_mgr_init:0000000000000008 .L0 
C:\Users\stapi\AppData\Local\Temp\ccmC26Ly.s:758    .text.app_per_sync_mgr_init:0000000000000012 .L0 
C:\Users\stapi\AppData\Local\Temp\ccmC26Ly.s:760    .text.app_per_sync_mgr_init:0000000000000014 .L0 
C:\Users\stapi\AppData\Local\Temp\ccmC26Ly.s:761    .text.app_per_sync_mgr_init:0000000000000014 .L0 
C:\Users\stapi\AppData\Local\Temp\ccmC26Ly.s:764    .text.app_per_sync_mgr_init:000000000000001c .L0 
C:\Users\stapi\AppData\Local\Temp\ccmC26Ly.s:769    .text.app_per_sync_mgr_init:000000000000002c .L0 
C:\Users\stapi\AppData\Local\Temp\ccmC26Ly.s:770    .text.app_per_sync_mgr_init:0000000000000034 .L0 
C:\Users\stapi\AppData\Local\Temp\ccmC26Ly.s:771    .text.app_per_sync_mgr_init:0000000000000034 .L0 
C:\Users\stapi\AppData\Local\Temp\ccmC26Ly.s:772    .text.app_per_sync_mgr_init:0000000000000034 .L0 
C:\Users\stapi\AppData\Local\Temp\ccmC26Ly.s:779    .text.app_per_sync_mgr_deinit:0000000000000000 app_per_sync_mgr_deinit
C:\Users\stapi\AppData\Local\Temp\ccmC26Ly.s:782    .text.app_per_sync_mgr_deinit:0000000000000000 .L0 
C:\Users\stapi\AppData\Local\Temp\ccmC26Ly.s:783    .text.app_per_sync_mgr_deinit:0000000000000000 .L0 
C:\Users\stapi\AppData\Local\Temp\ccmC26Ly.s:784    .text.app_per_sync_mgr_deinit:0000000000000000 .L0 
C:\Users\stapi\AppData\Local\Temp\ccmC26Ly.s:788    .text.app_per_sync_mgr_deinit:0000000000000010 .L0 
C:\Users\stapi\AppData\Local\Temp\ccmC26Ly.s:793    .sbss.ble_sync_mgr_cb:0000000000000000 .LANCHOR0
C:\Users\stapi\AppData\Local\Temp\ccmC26Ly.s:796    .sbss.ble_sync_mgr_cb:0000000000000000 ble_sync_mgr_cb
C:\Users\stapi\AppData\Local\Temp\ccmC26Ly.s:77     .text.sync_mgr_find_device_by_idx:0000000000000040 .L0 
C:\Users\stapi\AppData\Local\Temp\ccmC26Ly.s:134    .text.ble_per_sync_clear_all_dev_list_flag:0000000000000038 .L0 
C:\Users\stapi\AppData\Local\Temp\ccmC26Ly.s:230    .text.ble_per_sync_mgr_find_device:000000000000006a .L0 
C:\Users\stapi\AppData\Local\Temp\ccmC26Ly.s:324    .text.ble_per_sync_mgr_find_alloc_device:0000000000000078 .L0 
C:\Users\stapi\AppData\Local\Temp\ccmC26Ly.s:503    .text.ble_per_sync_evt_handler:000000000000012e .L0 
C:\Users\stapi\AppData\Local\Temp\ccmC26Ly.s:579    .text.per_sync_mgr_clear_dev_list:000000000000004c .L0 
C:\Users\stapi\AppData\Local\Temp\ccmC26Ly.s:605    .text.app_per_sync_mgr_reset:0000000000000028 .L0 
C:\Users\stapi\AppData\Local\Temp\ccmC26Ly.s:667    .text.app_per_sync_cancel:0000000000000052 .L0 
C:\Users\stapi\AppData\Local\Temp\ccmC26Ly.s:741    .text.app_per_sync_terminate:000000000000005a .L0 
C:\Users\stapi\AppData\Local\Temp\ccmC26Ly.s:775    .text.app_per_sync_mgr_init:0000000000000034 .L0 
C:\Users\stapi\AppData\Local\Temp\ccmC26Ly.s:791    .text.app_per_sync_mgr_deinit:0000000000000010 .L0 
                     .debug_frame:0000000000000000 .L0 
C:\Users\stapi\AppData\Local\Temp\ccmC26Ly.s:48     .text.sync_mgr_find_device_by_idx:0000000000000028 .L5
C:\Users\stapi\AppData\Local\Temp\ccmC26Ly.s:60     .text.sync_mgr_find_device_by_idx:0000000000000032 .L4
C:\Users\stapi\AppData\Local\Temp\ccmC26Ly.s:51     .text.sync_mgr_find_device_by_idx:000000000000002a .L1
C:\Users\stapi\AppData\Local\Temp\ccmC26Ly.s:44     .text.sync_mgr_find_device_by_idx:0000000000000024 .L3
C:\Users\stapi\AppData\Local\Temp\ccmC26Ly.s:110    .text.ble_per_sync_clear_all_dev_list_flag:0000000000000026 .L7
C:\Users\stapi\AppData\Local\Temp\ccmC26Ly.s:118    .text.ble_per_sync_clear_all_dev_list_flag:000000000000002e .L10
C:\Users\stapi\AppData\Local\Temp\ccmC26Ly.s:106    .text.ble_per_sync_clear_all_dev_list_flag:0000000000000022 .L9
C:\Users\stapi\AppData\Local\Temp\ccmC26Ly.s:183    .text.ble_per_sync_mgr_find_device:0000000000000030 .L18
C:\Users\stapi\AppData\Local\Temp\ccmC26Ly.s:200    .text.ble_per_sync_mgr_find_device:000000000000003c .L17
C:\Users\stapi\AppData\Local\Temp\ccmC26Ly.s:219    .text.ble_per_sync_mgr_find_device:0000000000000062 .L16
C:\Users\stapi\AppData\Local\Temp\ccmC26Ly.s:186    .text.ble_per_sync_mgr_find_device:0000000000000032 .L13
C:\Users\stapi\AppData\Local\Temp\ccmC26Ly.s:179    .text.ble_per_sync_mgr_find_device:000000000000002c .L15
C:\Users\stapi\AppData\Local\Temp\ccmC26Ly.s:309    .text.ble_per_sync_mgr_find_alloc_device:000000000000006e .L23
C:\Users\stapi\AppData\Local\Temp\ccmC26Ly.s:326    .rodata.ble_per_sync_evt_handler.str1.4:0000000000000000 .LC0
C:\Users\stapi\AppData\Local\Temp\ccmC26Ly.s:329    .rodata.ble_per_sync_evt_handler.str1.4:0000000000000024 .LC1
C:\Users\stapi\AppData\Local\Temp\ccmC26Ly.s:332    .rodata.ble_per_sync_evt_handler.str1.4:0000000000000070 .LC2
C:\Users\stapi\AppData\Local\Temp\ccmC26Ly.s:335    .rodata.ble_per_sync_evt_handler.str1.4:00000000000000b0 .LC3
C:\Users\stapi\AppData\Local\Temp\ccmC26Ly.s:390    .text.ble_per_sync_evt_handler:0000000000000048 .L30
C:\Users\stapi\AppData\Local\Temp\ccmC26Ly.s:376    .text.ble_per_sync_evt_handler:000000000000003a .L31
C:\Users\stapi\AppData\Local\Temp\ccmC26Ly.s:440    .text.ble_per_sync_evt_handler:00000000000000b8 .L48
C:\Users\stapi\AppData\Local\Temp\ccmC26Ly.s:381    .text.ble_per_sync_evt_handler:0000000000000040 .L29
C:\Users\stapi\AppData\Local\Temp\ccmC26Ly.s:472    .text.ble_per_sync_evt_handler:00000000000000fe .L34
C:\Users\stapi\AppData\Local\Temp\ccmC26Ly.s:410    .text.ble_per_sync_evt_handler:0000000000000080 .L37
C:\Users\stapi\AppData\Local\Temp\ccmC26Ly.s:543    .text.per_sync_mgr_clear_dev_list:0000000000000028 .L50
C:\Users\stapi\AppData\Local\Temp\ccmC26Ly.s:556    .text.per_sync_mgr_clear_dev_list:0000000000000032 .L53
C:\Users\stapi\AppData\Local\Temp\ccmC26Ly.s:539    .text.per_sync_mgr_clear_dev_list:0000000000000024 .L52
C:\Users\stapi\AppData\Local\Temp\ccmC26Ly.s:607    .rodata.app_per_sync_cancel.str1.4:0000000000000000 .LC4
C:\Users\stapi\AppData\Local\Temp\ccmC26Ly.s:610    .rodata.app_per_sync_cancel.str1.4:0000000000000024 .LC5
C:\Users\stapi\AppData\Local\Temp\ccmC26Ly.s:649    .text.app_per_sync_cancel:0000000000000036 .L59
C:\Users\stapi\AppData\Local\Temp\ccmC26Ly.s:642    .text.app_per_sync_cancel:000000000000002e .L58
C:\Users\stapi\AppData\Local\Temp\ccmC26Ly.s:669    .rodata.app_per_sync_terminate.str1.4:0000000000000000 .LC6
C:\Users\stapi\AppData\Local\Temp\ccmC26Ly.s:672    .rodata.app_per_sync_terminate.str1.4:0000000000000038 .LC7
C:\Users\stapi\AppData\Local\Temp\ccmC26Ly.s:718    .text.app_per_sync_terminate:0000000000000036 .L66
C:\Users\stapi\AppData\Local\Temp\ccmC26Ly.s:710    .text.app_per_sync_terminate:000000000000002e .L65
C:\Users\stapi\AppData\Local\Temp\ccmC26Ly.s:705    .text.app_per_sync_terminate:0000000000000026 .L74
C:\Users\stapi\AppData\Local\Temp\ccmC26Ly.s:3098   .debug_abbrev:0000000000000000 .Ldebug_abbrev0
C:\Users\stapi\AppData\Local\Temp\ccmC26Ly.s:4825   .debug_str:0000000000000dc5 .LASF328
C:\Users\stapi\AppData\Local\Temp\ccmC26Ly.s:5009   .debug_str:000000000000178a .LASF329
C:\Users\stapi\AppData\Local\Temp\ccmC26Ly.s:4907   .debug_str:000000000000122b .LASF330
C:\Users\stapi\AppData\Local\Temp\ccmC26Ly.s:4493   .debug_ranges:0000000000000000 .Ldebug_ranges0
C:\Users\stapi\AppData\Local\Temp\ccmC26Ly.s:4525   .debug_line:0000000000000000 .Ldebug_line0
C:\Users\stapi\AppData\Local\Temp\ccmC26Ly.s:4905   .debug_str:000000000000121e .LASF0
C:\Users\stapi\AppData\Local\Temp\ccmC26Ly.s:4977   .debug_str:00000000000015f1 .LASF2
C:\Users\stapi\AppData\Local\Temp\ccmC26Ly.s:4653   .debug_str:00000000000005a1 .LASF1
C:\Users\stapi\AppData\Local\Temp\ccmC26Ly.s:4603   .debug_str:000000000000034e .LASF3
C:\Users\stapi\AppData\Local\Temp\ccmC26Ly.s:4677   .debug_str:000000000000068e .LASF4
C:\Users\stapi\AppData\Local\Temp\ccmC26Ly.s:5077   .debug_str:0000000000001b06 .LASF5
C:\Users\stapi\AppData\Local\Temp\ccmC26Ly.s:4717   .debug_str:0000000000000873 .LASF6
C:\Users\stapi\AppData\Local\Temp\ccmC26Ly.s:5153   .debug_str:0000000000001ede .LASF7
C:\Users\stapi\AppData\Local\Temp\ccmC26Ly.s:4621   .debug_str:0000000000000418 .LASF8
C:\Users\stapi\AppData\Local\Temp\ccmC26Ly.s:4857   .debug_str:0000000000001037 .LASF9
C:\Users\stapi\AppData\Local\Temp\ccmC26Ly.s:4809   .debug_str:0000000000000d3a .LASF10
C:\Users\stapi\AppData\Local\Temp\ccmC26Ly.s:4863   .debug_str:000000000000107f .LASF11
C:\Users\stapi\AppData\Local\Temp\ccmC26Ly.s:4983   .debug_str:0000000000001624 .LASF12
C:\Users\stapi\AppData\Local\Temp\ccmC26Ly.s:4709   .debug_str:000000000000081b .LASF13
C:\Users\stapi\AppData\Local\Temp\ccmC26Ly.s:4527   .debug_str:0000000000000000 .LASF14
C:\Users\stapi\AppData\Local\Temp\ccmC26Ly.s:4657   .debug_str:00000000000005b8 .LASF15
C:\Users\stapi\AppData\Local\Temp\ccmC26Ly.s:4993   .debug_str:00000000000016c6 .LASF16
C:\Users\stapi\AppData\Local\Temp\ccmC26Ly.s:5131   .debug_str:0000000000001dcd .LASF17
C:\Users\stapi\AppData\Local\Temp\ccmC26Ly.s:4623   .debug_str:0000000000000421 .LASF18
C:\Users\stapi\AppData\Local\Temp\ccmC26Ly.s:4735   .debug_str:000000000000095b .LASF19
C:\Users\stapi\AppData\Local\Temp\ccmC26Ly.s:4575   .debug_str:000000000000022f .LASF20
C:\Users\stapi\AppData\Local\Temp\ccmC26Ly.s:5163   .debug_str:0000000000001f52 .LASF21
C:\Users\stapi\AppData\Local\Temp\ccmC26Ly.s:4627   .debug_str:0000000000000443 .LASF22
C:\Users\stapi\AppData\Local\Temp\ccmC26Ly.s:4783   .debug_str:0000000000000c00 .LASF23
C:\Users\stapi\AppData\Local\Temp\ccmC26Ly.s:4971   .debug_str:000000000000159a .LASF24
C:\Users\stapi\AppData\Local\Temp\ccmC26Ly.s:5013   .debug_str:0000000000001827 .LASF25
C:\Users\stapi\AppData\Local\Temp\ccmC26Ly.s:5109   .debug_str:0000000000001c95 .LASF26
C:\Users\stapi\AppData\Local\Temp\ccmC26Ly.s:4663   .debug_str:00000000000005e1 .LASF27
C:\Users\stapi\AppData\Local\Temp\ccmC26Ly.s:4569   .debug_str:00000000000001f8 .LASF28
C:\Users\stapi\AppData\Local\Temp\ccmC26Ly.s:4693   .debug_str:0000000000000746 .LASF29
C:\Users\stapi\AppData\Local\Temp\ccmC26Ly.s:4553   .debug_str:000000000000011e .LASF30
C:\Users\stapi\AppData\Local\Temp\ccmC26Ly.s:4789   .debug_str:0000000000000c42 .LASF31
C:\Users\stapi\AppData\Local\Temp\ccmC26Ly.s:4947   .debug_str:0000000000001467 .LASF32
C:\Users\stapi\AppData\Local\Temp\ccmC26Ly.s:5107   .debug_str:0000000000001c6f .LASF33
C:\Users\stapi\AppData\Local\Temp\ccmC26Ly.s:4551   .debug_str:0000000000000105 .LASF34
C:\Users\stapi\AppData\Local\Temp\ccmC26Ly.s:4661   .debug_str:00000000000005ca .LASF35
C:\Users\stapi\AppData\Local\Temp\ccmC26Ly.s:5043   .debug_str:0000000000001967 .LASF36
C:\Users\stapi\AppData\Local\Temp\ccmC26Ly.s:5133   .debug_str:0000000000001dd6 .LASF37
C:\Users\stapi\AppData\Local\Temp\ccmC26Ly.s:4613   .debug_str:00000000000003ac .LASF38
C:\Users\stapi\AppData\Local\Temp\ccmC26Ly.s:4619   .debug_str:00000000000003fa .LASF39
C:\Users\stapi\AppData\Local\Temp\ccmC26Ly.s:4975   .debug_str:00000000000015d3 .LASF40
C:\Users\stapi\AppData\Local\Temp\ccmC26Ly.s:4867   .debug_str:00000000000010a0 .LASF41
C:\Users\stapi\AppData\Local\Temp\ccmC26Ly.s:4795   .debug_str:0000000000000c89 .LASF42
C:\Users\stapi\AppData\Local\Temp\ccmC26Ly.s:4765   .debug_str:0000000000000b13 .LASF43
C:\Users\stapi\AppData\Local\Temp\ccmC26Ly.s:5155   .debug_str:0000000000001ef1 .LASF44
C:\Users\stapi\AppData\Local\Temp\ccmC26Ly.s:4965   .debug_str:000000000000154a .LASF45
C:\Users\stapi\AppData\Local\Temp\ccmC26Ly.s:4889   .debug_str:0000000000001184 .LASF46
C:\Users\stapi\AppData\Local\Temp\ccmC26Ly.s:4715   .debug_str:0000000000000859 .LASF47
C:\Users\stapi\AppData\Local\Temp\ccmC26Ly.s:5029   .debug_str:00000000000018d5 .LASF48
C:\Users\stapi\AppData\Local\Temp\ccmC26Ly.s:5137   .debug_str:0000000000001e07 .LASF49
C:\Users\stapi\AppData\Local\Temp\ccmC26Ly.s:4845   .debug_str:0000000000000faf .LASF50
C:\Users\stapi\AppData\Local\Temp\ccmC26Ly.s:5069   .debug_str:0000000000001a9b .LASF51
C:\Users\stapi\AppData\Local\Temp\ccmC26Ly.s:4997   .debug_str:00000000000016f9 .LASF52
C:\Users\stapi\AppData\Local\Temp\ccmC26Ly.s:5113   .debug_str:0000000000001cdc .LASF53
C:\Users\stapi\AppData\Local\Temp\ccmC26Ly.s:4565   .debug_str:00000000000001b9 .LASF54
C:\Users\stapi\AppData\Local\Temp\ccmC26Ly.s:4681   .debug_str:00000000000006af .LASF55
C:\Users\stapi\AppData\Local\Temp\ccmC26Ly.s:4803   .debug_str:0000000000000d07 .LASF56
C:\Users\stapi\AppData\Local\Temp\ccmC26Ly.s:4941   .debug_str:0000000000001411 .LASF57
C:\Users\stapi\AppData\Local\Temp\ccmC26Ly.s:4699   .debug_str:000000000000078a .LASF58
C:\Users\stapi\AppData\Local\Temp\ccmC26Ly.s:5169   .debug_str:0000000000001faf .LASF59
C:\Users\stapi\AppData\Local\Temp\ccmC26Ly.s:5033   .debug_str:00000000000018f8 .LASF60
C:\Users\stapi\AppData\Local\Temp\ccmC26Ly.s:4831   .debug_str:0000000000000edf .LASF61
C:\Users\stapi\AppData\Local\Temp\ccmC26Ly.s:4827   .debug_str:0000000000000ebe .LASF62
C:\Users\stapi\AppData\Local\Temp\ccmC26Ly.s:4555   .debug_str:000000000000013e .LASF63
C:\Users\stapi\AppData\Local\Temp\ccmC26Ly.s:4669   .debug_str:000000000000062f .LASF64
C:\Users\stapi\AppData\Local\Temp\ccmC26Ly.s:4607   .debug_str:0000000000000373 .LASF65
C:\Users\stapi\AppData\Local\Temp\ccmC26Ly.s:5139   .debug_str:0000000000001e28 .LASF66
C:\Users\stapi\AppData\Local\Temp\ccmC26Ly.s:4799   .debug_str:0000000000000cce .LASF67
C:\Users\stapi\AppData\Local\Temp\ccmC26Ly.s:4599   .debug_str:000000000000031e .LASF68
C:\Users\stapi\AppData\Local\Temp\ccmC26Ly.s:4601   .debug_str:0000000000000333 .LASF69
C:\Users\stapi\AppData\Local\Temp\ccmC26Ly.s:4913   .debug_str:00000000000012c3 .LASF70
C:\Users\stapi\AppData\Local\Temp\ccmC26Ly.s:4683   .debug_str:00000000000006cb .LASF71
C:\Users\stapi\AppData\Local\Temp\ccmC26Ly.s:5187   .debug_str:0000000000002048 .LASF72
C:\Users\stapi\AppData\Local\Temp\ccmC26Ly.s:4741   .debug_str:00000000000009a4 .LASF73
C:\Users\stapi\AppData\Local\Temp\ccmC26Ly.s:4543   .debug_str:00000000000000ac .LASF74
C:\Users\stapi\AppData\Local\Temp\ccmC26Ly.s:4841   .debug_str:0000000000000f76 .LASF75
C:\Users\stapi\AppData\Local\Temp\ccmC26Ly.s:5149   .debug_str:0000000000001eb3 .LASF76
C:\Users\stapi\AppData\Local\Temp\ccmC26Ly.s:4731   .debug_str:0000000000000922 .LASF77
C:\Users\stapi\AppData\Local\Temp\ccmC26Ly.s:4843   .debug_str:0000000000000f87 .LASF78
C:\Users\stapi\AppData\Local\Temp\ccmC26Ly.s:4979   .debug_str:00000000000015fa .LASF79
C:\Users\stapi\AppData\Local\Temp\ccmC26Ly.s:4991   .debug_str:00000000000016ac .LASF80
C:\Users\stapi\AppData\Local\Temp\ccmC26Ly.s:5045   .debug_str:0000000000001983 .LASF81
C:\Users\stapi\AppData\Local\Temp\ccmC26Ly.s:4915   .debug_str:00000000000012e0 .LASF82
C:\Users\stapi\AppData\Local\Temp\ccmC26Ly.s:4771   .debug_str:0000000000000b5f .LASF83
C:\Users\stapi\AppData\Local\Temp\ccmC26Ly.s:4773   .debug_str:0000000000000b79 .LASF84
C:\Users\stapi\AppData\Local\Temp\ccmC26Ly.s:4777   .debug_str:0000000000000ba1 .LASF85
C:\Users\stapi\AppData\Local\Temp\ccmC26Ly.s:5095   .debug_str:0000000000001bce .LASF86
C:\Users\stapi\AppData\Local\Temp\ccmC26Ly.s:4923   .debug_str:0000000000001343 .LASF87
C:\Users\stapi\AppData\Local\Temp\ccmC26Ly.s:4587   .debug_str:00000000000002a1 .LASF88
C:\Users\stapi\AppData\Local\Temp\ccmC26Ly.s:4937   .debug_str:00000000000013d8 .LASF89
C:\Users\stapi\AppData\Local\Temp\ccmC26Ly.s:4933   .debug_str:00000000000013a1 .LASF90
C:\Users\stapi\AppData\Local\Temp\ccmC26Ly.s:4917   .debug_str:0000000000001306 .LASF91
C:\Users\stapi\AppData\Local\Temp\ccmC26Ly.s:5141   .debug_str:0000000000001e41 .LASF92
C:\Users\stapi\AppData\Local\Temp\ccmC26Ly.s:4823   .debug_str:0000000000000da2 .LASF93
C:\Users\stapi\AppData\Local\Temp\ccmC26Ly.s:4943   .debug_str:000000000000142c .LASF94
C:\Users\stapi\AppData\Local\Temp\ccmC26Ly.s:5023   .debug_str:0000000000001888 .LASF95
C:\Users\stapi\AppData\Local\Temp\ccmC26Ly.s:4859   .debug_str:0000000000001042 .LASF96
C:\Users\stapi\AppData\Local\Temp\ccmC26Ly.s:4985   .debug_str:000000000000163b .LASF97
C:\Users\stapi\AppData\Local\Temp\ccmC26Ly.s:5167   .debug_str:0000000000001f85 .LASF98
C:\Users\stapi\AppData\Local\Temp\ccmC26Ly.s:5125   .debug_str:0000000000001d6a .LASF99
C:\Users\stapi\AppData\Local\Temp\ccmC26Ly.s:4535   .debug_str:000000000000004d .LASF100
C:\Users\stapi\AppData\Local\Temp\ccmC26Ly.s:4797   .debug_str:0000000000000cac .LASF101
C:\Users\stapi\AppData\Local\Temp\ccmC26Ly.s:4851   .debug_str:0000000000000ffb .LASF102
C:\Users\stapi\AppData\Local\Temp\ccmC26Ly.s:4769   .debug_str:0000000000000b3f .LASF103
C:\Users\stapi\AppData\Local\Temp\ccmC26Ly.s:4973   .debug_str:00000000000015b2 .LASF104
C:\Users\stapi\AppData\Local\Temp\ccmC26Ly.s:4959   .debug_str:00000000000014f8 .LASF105
C:\Users\stapi\AppData\Local\Temp\ccmC26Ly.s:5003   .debug_str:000000000000174d .LASF106
C:\Users\stapi\AppData\Local\Temp\ccmC26Ly.s:4849   .debug_str:0000000000000fd8 .LASF107
C:\Users\stapi\AppData\Local\Temp\ccmC26Ly.s:4875   .debug_str:00000000000010fa .LASF108
C:\Users\stapi\AppData\Local\Temp\ccmC26Ly.s:4705   .debug_str:00000000000007e1 .LASF109
C:\Users\stapi\AppData\Local\Temp\ccmC26Ly.s:4891   .debug_str:000000000000119e .LASF110
C:\Users\stapi\AppData\Local\Temp\ccmC26Ly.s:4995   .debug_str:00000000000016cf .LASF111
C:\Users\stapi\AppData\Local\Temp\ccmC26Ly.s:5171   .debug_str:0000000000001fc9 .LASF112
C:\Users\stapi\AppData\Local\Temp\ccmC26Ly.s:4725   .debug_str:00000000000008c1 .LASF113
C:\Users\stapi\AppData\Local\Temp\ccmC26Ly.s:4879   .debug_str:0000000000001131 .LASF114
C:\Users\stapi\AppData\Local\Temp\ccmC26Ly.s:5019   .debug_str:0000000000001863 .LASF115
C:\Users\stapi\AppData\Local\Temp\ccmC26Ly.s:5085   .debug_str:0000000000001b64 .LASF116
C:\Users\stapi\AppData\Local\Temp\ccmC26Ly.s:4963   .debug_str:000000000000152c .LASF117
C:\Users\stapi\AppData\Local\Temp\ccmC26Ly.s:4639   .debug_str:00000000000004c9 .LASF118
C:\Users\stapi\AppData\Local\Temp\ccmC26Ly.s:4651   .debug_str:000000000000058a .LASF119
C:\Users\stapi\AppData\Local\Temp\ccmC26Ly.s:4711   .debug_str:0000000000000820 .LASF120
C:\Users\stapi\AppData\Local\Temp\ccmC26Ly.s:4861   .debug_str:0000000000001065 .LASF121
C:\Users\stapi\AppData\Local\Temp\ccmC26Ly.s:5073   .debug_str:0000000000001ad9 .LASF122
C:\Users\stapi\AppData\Local\Temp\ccmC26Ly.s:5011   .debug_str:0000000000001804 .LASF123
C:\Users\stapi\AppData\Local\Temp\ccmC26Ly.s:4945   .debug_str:000000000000144e .LASF124
C:\Users\stapi\AppData\Local\Temp\ccmC26Ly.s:5035   .debug_str:0000000000001912 .LASF125
C:\Users\stapi\AppData\Local\Temp\ccmC26Ly.s:4701   .debug_str:00000000000007aa .LASF126
C:\Users\stapi\AppData\Local\Temp\ccmC26Ly.s:4877   .debug_str:000000000000111c .LASF127
C:\Users\stapi\AppData\Local\Temp\ccmC26Ly.s:5145   .debug_str:0000000000001e7e .LASF128
C:\Users\stapi\AppData\Local\Temp\ccmC26Ly.s:4999   .debug_str:000000000000171b .LASF129
C:\Users\stapi\AppData\Local\Temp\ccmC26Ly.s:4537   .debug_str:0000000000000072 .LASF130
C:\Users\stapi\AppData\Local\Temp\ccmC26Ly.s:4931   .debug_str:000000000000137f .LASF131
C:\Users\stapi\AppData\Local\Temp\ccmC26Ly.s:4625   .debug_str:0000000000000428 .LASF132
C:\Users\stapi\AppData\Local\Temp\ccmC26Ly.s:4579   .debug_str:000000000000025b .LASF133
C:\Users\stapi\AppData\Local\Temp\ccmC26Ly.s:4629   .debug_str:0000000000000462 .LASF134
C:\Users\stapi\AppData\Local\Temp\ccmC26Ly.s:5083   .debug_str:0000000000001b45 .LASF135
C:\Users\stapi\AppData\Local\Temp\ccmC26Ly.s:4703   .debug_str:00000000000007c4 .LASF136
C:\Users\stapi\AppData\Local\Temp\ccmC26Ly.s:5001   .debug_str:0000000000001734 .LASF137
C:\Users\stapi\AppData\Local\Temp\ccmC26Ly.s:4545   .debug_str:00000000000000c7 .LASF138
C:\Users\stapi\AppData\Local\Temp\ccmC26Ly.s:4667   .debug_str:000000000000061b .LASF139
C:\Users\stapi\AppData\Local\Temp\ccmC26Ly.s:4547   .debug_str:00000000000000dc .LASF140
C:\Users\stapi\AppData\Local\Temp\ccmC26Ly.s:4647   .debug_str:0000000000000547 .LASF141
C:\Users\stapi\AppData\Local\Temp\ccmC26Ly.s:5199   .debug_str:00000000000020c3 .LASF142
C:\Users\stapi\AppData\Local\Temp\ccmC26Ly.s:5165   .debug_str:0000000000001f6d .LASF143
C:\Users\stapi\AppData\Local\Temp\ccmC26Ly.s:4747   .debug_str:00000000000009f9 .LASF144
C:\Users\stapi\AppData\Local\Temp\ccmC26Ly.s:4961   .debug_str:0000000000001515 .LASF145
C:\Users\stapi\AppData\Local\Temp\ccmC26Ly.s:5115   .debug_str:0000000000001cf5 .LASF146
C:\Users\stapi\AppData\Local\Temp\ccmC26Ly.s:4541   .debug_str:0000000000000095 .LASF147
C:\Users\stapi\AppData\Local\Temp\ccmC26Ly.s:4707   .debug_str:00000000000007ff .LASF148
C:\Users\stapi\AppData\Local\Temp\ccmC26Ly.s:5111   .debug_str:0000000000001cb7 .LASF149
C:\Users\stapi\AppData\Local\Temp\ccmC26Ly.s:5091   .debug_str:0000000000001b9e .LASF150
C:\Users\stapi\AppData\Local\Temp\ccmC26Ly.s:5193   .debug_str:0000000000002081 .LASF151
C:\Users\stapi\AppData\Local\Temp\ccmC26Ly.s:5101   .debug_str:0000000000001c23 .LASF152
C:\Users\stapi\AppData\Local\Temp\ccmC26Ly.s:4689   .debug_str:0000000000000717 .LASF153
C:\Users\stapi\AppData\Local\Temp\ccmC26Ly.s:5027   .debug_str:00000000000018ad .LASF154
C:\Users\stapi\AppData\Local\Temp\ccmC26Ly.s:4833   .debug_str:0000000000000efc .LASF155
C:\Users\stapi\AppData\Local\Temp\ccmC26Ly.s:4981   .debug_str:000000000000160d .LASF156
C:\Users\stapi\AppData\Local\Temp\ccmC26Ly.s:5189   .debug_str:000000000000205f .LASF157
C:\Users\stapi\AppData\Local\Temp\ccmC26Ly.s:4791   .debug_str:0000000000000c61 .LASF158
C:\Users\stapi\AppData\Local\Temp\ccmC26Ly.s:4761   .debug_str:0000000000000acd .LASF159
C:\Users\stapi\AppData\Local\Temp\ccmC26Ly.s:4745   .debug_str:00000000000009d9 .LASF160
C:\Users\stapi\AppData\Local\Temp\ccmC26Ly.s:5161   .debug_str:0000000000001f30 .LASF161
C:\Users\stapi\AppData\Local\Temp\ccmC26Ly.s:5049   .debug_str:00000000000019b6 .LASF162
C:\Users\stapi\AppData\Local\Temp\ccmC26Ly.s:4719   .debug_str:000000000000087e .LASF163
C:\Users\stapi\AppData\Local\Temp\ccmC26Ly.s:5015   .debug_str:0000000000001841 .LASF164
C:\Users\stapi\AppData\Local\Temp\ccmC26Ly.s:4957   .debug_str:00000000000014d2 .LASF165
C:\Users\stapi\AppData\Local\Temp\ccmC26Ly.s:5065   .debug_str:0000000000001a72 .LASF166
C:\Users\stapi\AppData\Local\Temp\ccmC26Ly.s:5175   .debug_str:0000000000001ff8 .LASF167
C:\Users\stapi\AppData\Local\Temp\ccmC26Ly.s:4739   .debug_str:0000000000000983 .LASF168
C:\Users\stapi\AppData\Local\Temp\ccmC26Ly.s:4673   .debug_str:0000000000000666 .LASF169
C:\Users\stapi\AppData\Local\Temp\ccmC26Ly.s:4763   .debug_str:0000000000000af6 .LASF170
C:\Users\stapi\AppData\Local\Temp\ccmC26Ly.s:4713   .debug_str:0000000000000832 .LASF171
C:\Users\stapi\AppData\Local\Temp\ccmC26Ly.s:4801   .debug_str:0000000000000ce4 .LASF172
C:\Users\stapi\AppData\Local\Temp\ccmC26Ly.s:4605   .debug_str:0000000000000358 .LASF173
C:\Users\stapi\AppData\Local\Temp\ccmC26Ly.s:4939   .debug_str:00000000000013f8 .LASF174
C:\Users\stapi\AppData\Local\Temp\ccmC26Ly.s:4695   .debug_str:0000000000000765 .LASF175
C:\Users\stapi\AppData\Local\Temp\ccmC26Ly.s:5119   .debug_str:0000000000001d1a .LASF176
C:\Users\stapi\AppData\Local\Temp\ccmC26Ly.s:4633   .debug_str:000000000000048c .LASF177
C:\Users\stapi\AppData\Local\Temp\ccmC26Ly.s:4781   .debug_str:0000000000000be3 .LASF178
C:\Users\stapi\AppData\Local\Temp\ccmC26Ly.s:4557   .debug_str:000000000000015d .LASF179
C:\Users\stapi\AppData\Local\Temp\ccmC26Ly.s:4989   .debug_str:0000000000001683 .LASF180
C:\Users\stapi\AppData\Local\Temp\ccmC26Ly.s:4645   .debug_str:0000000000000521 .LASF181
C:\Users\stapi\AppData\Local\Temp\ccmC26Ly.s:5071   .debug_str:0000000000001ab7 .LASF182
C:\Users\stapi\AppData\Local\Temp\ccmC26Ly.s:4743   .debug_str:00000000000009c1 .LASF183
C:\Users\stapi\AppData\Local\Temp\ccmC26Ly.s:4901   .debug_str:00000000000011df .LASF184
C:\Users\stapi\AppData\Local\Temp\ccmC26Ly.s:4641   .debug_str:00000000000004e1 .LASF185
C:\Users\stapi\AppData\Local\Temp\ccmC26Ly.s:4751   .debug_str:0000000000000a2d .LASF186
C:\Users\stapi\AppData\Local\Temp\ccmC26Ly.s:4749   .debug_str:0000000000000a11 .LASF187
C:\Users\stapi\AppData\Local\Temp\ccmC26Ly.s:4837   .debug_str:0000000000000f3a .LASF188
C:\Users\stapi\AppData\Local\Temp\ccmC26Ly.s:4729   .debug_str:0000000000000906 .LASF189
C:\Users\stapi\AppData\Local\Temp\ccmC26Ly.s:4839   .debug_str:0000000000000f5d .LASF190
C:\Users\stapi\AppData\Local\Temp\ccmC26Ly.s:5097   .debug_str:0000000000001bf3 .LASF191
C:\Users\stapi\AppData\Local\Temp\ccmC26Ly.s:4737   .debug_str:0000000000000966 .LASF192
C:\Users\stapi\AppData\Local\Temp\ccmC26Ly.s:5061   .debug_str:0000000000001a36 .LASF193
C:\Users\stapi\AppData\Local\Temp\ccmC26Ly.s:4533   .debug_str:000000000000002a .LASF194
C:\Users\stapi\AppData\Local\Temp\ccmC26Ly.s:4585   .debug_str:0000000000000288 .LASF195
C:\Users\stapi\AppData\Local\Temp\ccmC26Ly.s:4969   .debug_str:0000000000001578 .LASF196
C:\Users\stapi\AppData\Local\Temp\ccmC26Ly.s:5059   .debug_str:0000000000001a15 .LASF197
C:\Users\stapi\AppData\Local\Temp\ccmC26Ly.s:5143   .debug_str:0000000000001e63 .LASF198
C:\Users\stapi\AppData\Local\Temp\ccmC26Ly.s:4671   .debug_str:0000000000000644 .LASF199
C:\Users\stapi\AppData\Local\Temp\ccmC26Ly.s:4759   .debug_str:0000000000000aa9 .LASF200
C:\Users\stapi\AppData\Local\Temp\ccmC26Ly.s:4649   .debug_str:0000000000000568 .LASF201
C:\Users\stapi\AppData\Local\Temp\ccmC26Ly.s:4597   .debug_str:0000000000000305 .LASF202
C:\Users\stapi\AppData\Local\Temp\ccmC26Ly.s:4779   .debug_str:0000000000000bbd .LASF203
C:\Users\stapi\AppData\Local\Temp\ccmC26Ly.s:5037   .debug_str:0000000000001938 .LASF204
C:\Users\stapi\AppData\Local\Temp\ccmC26Ly.s:4953   .debug_str:00000000000014a8 .LASF205
C:\Users\stapi\AppData\Local\Temp\ccmC26Ly.s:4871   .debug_str:00000000000010cc .LASF206
C:\Users\stapi\AppData\Local\Temp\ccmC26Ly.s:4921   .debug_str:000000000000132e .LASF207
C:\Users\stapi\AppData\Local\Temp\ccmC26Ly.s:5147   .debug_str:0000000000001e99 .LASF208
C:\Users\stapi\AppData\Local\Temp\ccmC26Ly.s:4935   .debug_str:00000000000013c2 .LASF209
C:\Users\stapi\AppData\Local\Temp\ccmC26Ly.s:4767   .debug_str:0000000000000b29 .LASF210
C:\Users\stapi\AppData\Local\Temp\ccmC26Ly.s:4685   .debug_str:00000000000006e8 .LASF211
C:\Users\stapi\AppData\Local\Temp\ccmC26Ly.s:4659   .debug_str:00000000000005c0 .LASF212
C:\Users\stapi\AppData\Local\Temp\ccmC26Ly.s:5047   .debug_str:00000000000019a9 .LASF213
C:\Users\stapi\AppData\Local\Temp\ccmC26Ly.s:5087   .debug_str:0000000000001b80 .LASF219
C:\Users\stapi\AppData\Local\Temp\ccmC26Ly.s:5063   .debug_str:0000000000001a51 .LASF214
C:\Users\stapi\AppData\Local\Temp\ccmC26Ly.s:4643   .debug_str:0000000000000502 .LASF215
C:\Users\stapi\AppData\Local\Temp\ccmC26Ly.s:4595   .debug_str:00000000000002e7 .LASF216
C:\Users\stapi\AppData\Local\Temp\ccmC26Ly.s:5129   .debug_str:0000000000001dae .LASF217
C:\Users\stapi\AppData\Local\Temp\ccmC26Ly.s:4665   .debug_str:00000000000005fc .LASF218
C:\Users\stapi\AppData\Local\Temp\ccmC26Ly.s:5075   .debug_str:0000000000001af4 .LASF220
C:\Users\stapi\AppData\Local\Temp\ccmC26Ly.s:4855   .debug_str:0000000000001020 .LASF221
C:\Users\stapi\AppData\Local\Temp\ccmC26Ly.s:4817   .debug_str:0000000000000d7e .LASF222
C:\Users\stapi\AppData\Local\Temp\ccmC26Ly.s:5177   .debug_str:0000000000002019 .LASF223
C:\Users\stapi\AppData\Local\Temp\ccmC26Ly.s:5105   .debug_str:0000000000001c55 .LASF224
C:\Users\stapi\AppData\Local\Temp\ccmC26Ly.s:5081   .debug_str:0000000000001b29 .LASF225
C:\Users\stapi\AppData\Local\Temp\ccmC26Ly.s:5093   .debug_str:0000000000001bb8 .LASF226
C:\Users\stapi\AppData\Local\Temp\ccmC26Ly.s:4951   .debug_str:000000000000149e .LASF227
C:\Users\stapi\AppData\Local\Temp\ccmC26Ly.s:4899   .debug_str:00000000000011da .LASF228
C:\Users\stapi\AppData\Local\Temp\ccmC26Ly.s:5099   .debug_str:0000000000001c14 .LASF229
C:\Users\stapi\AppData\Local\Temp\ccmC26Ly.s:4883   .debug_str:0000000000001157 .LASF230
C:\Users\stapi\AppData\Local\Temp\ccmC26Ly.s:4679   .debug_str:000000000000069c .LASF231
C:\Users\stapi\AppData\Local\Temp\ccmC26Ly.s:4819   .debug_str:0000000000000d95 .LASF232
C:\Users\stapi\AppData\Local\Temp\ccmC26Ly.s:4811   .debug_str:0000000000000d4c .LASF233
C:\Users\stapi\AppData\Local\Temp\ccmC26Ly.s:4611   .debug_str:000000000000038c .LASF234
C:\Users\stapi\AppData\Local\Temp\ccmC26Ly.s:4807   .debug_str:0000000000000d2e .LASF235
C:\Users\stapi\AppData\Local\Temp\ccmC26Ly.s:5055   .debug_str:00000000000019ee .LASF236
C:\Users\stapi\AppData\Local\Temp\ccmC26Ly.s:4721   .debug_str:000000000000089d .LASF237
C:\Users\stapi\AppData\Local\Temp\ccmC26Ly.s:5123   .debug_str:0000000000001d5c .LASF238
C:\Users\stapi\AppData\Local\Temp\ccmC26Ly.s:4869   .debug_str:00000000000010bf .LASF239
C:\Users\stapi\AppData\Local\Temp\ccmC26Ly.s:4805   .debug_str:0000000000000d24 .LASF240
C:\Users\stapi\AppData\Local\Temp\ccmC26Ly.s:5181   .debug_str:0000000000002035 .LASF241
C:\Users\stapi\AppData\Local\Temp\ccmC26Ly.s:4753   .debug_str:0000000000000a50 .LASF242
C:\Users\stapi\AppData\Local\Temp\ccmC26Ly.s:4581   .debug_str:0000000000000274 .LASF243
C:\Users\stapi\AppData\Local\Temp\ccmC26Ly.s:4637   .debug_str:00000000000004bf .LASF244
C:\Users\stapi\AppData\Local\Temp\ccmC26Ly.s:4853   .debug_str:0000000000001014 .LASF245
C:\Users\stapi\AppData\Local\Temp\ccmC26Ly.s:5103   .debug_str:0000000000001c49 .LASF246
C:\Users\stapi\AppData\Local\Temp\ccmC26Ly.s:4563   .debug_str:00000000000001ab .LASF247
C:\Users\stapi\AppData\Local\Temp\ccmC26Ly.s:4881   .debug_str:000000000000114e .LASF248
C:\Users\stapi\AppData\Local\Temp\ccmC26Ly.s:5173   .debug_str:0000000000001ff3 .LASF249
C:\Users\stapi\AppData\Local\Temp\ccmC26Ly.s:5185   .debug_str:0000000000002043 .LASF250
C:\Users\stapi\AppData\Local\Temp\ccmC26Ly.s:4785   .debug_str:0000000000000c20 .LASF251
C:\Users\stapi\AppData\Local\Temp\ccmC26Ly.s:4687   .debug_str:00000000000006fd .LASF252
C:\Users\stapi\AppData\Local\Temp\ccmC26Ly.s:4609   .debug_str:0000000000000387 .LASF253
C:\Users\stapi\AppData\Local\Temp\ccmC26Ly.s:4793   .debug_str:0000000000000c81 .LASF254
C:\Users\stapi\AppData\Local\Temp\ccmC26Ly.s:4539   .debug_str:000000000000008b .LASF255
C:\Users\stapi\AppData\Local\Temp\ccmC26Ly.s:4903   .debug_str:0000000000001200 .LASF256
C:\Users\stapi\AppData\Local\Temp\ccmC26Ly.s:4697   .debug_str:0000000000000784 .LASF257
C:\Users\stapi\AppData\Local\Temp\ccmC26Ly.s:4723   .debug_str:00000000000008a6 .LASF258
C:\Users\stapi\AppData\Local\Temp\ccmC26Ly.s:4835   .debug_str:0000000000000f22 .LASF259
C:\Users\stapi\AppData\Local\Temp\ccmC26Ly.s:4885   .debug_str:000000000000115f .LASF260
C:\Users\stapi\AppData\Local\Temp\ccmC26Ly.s:4987   .debug_str:0000000000001665 .LASF261
C:\Users\stapi\AppData\Local\Temp\ccmC26Ly.s:4865   .debug_str:000000000000108d .LASF262
C:\Users\stapi\AppData\Local\Temp\ccmC26Ly.s:4755   .debug_str:0000000000000a6a .LASF263
C:\Users\stapi\AppData\Local\Temp\ccmC26Ly.s:5159   .debug_str:0000000000001f15 .LASF264
C:\Users\stapi\AppData\Local\Temp\ccmC26Ly.s:5201   .debug_str:00000000000020df .LASF265
C:\Users\stapi\AppData\Local\Temp\ccmC26Ly.s:4529   .debug_str:0000000000000007 .LASF266
C:\Users\stapi\AppData\Local\Temp\ccmC26Ly.s:4567   .debug_str:00000000000001d9 .LASF267
C:\Users\stapi\AppData\Local\Temp\ccmC26Ly.s:5135   .debug_str:0000000000001df2 .LASF268
C:\Users\stapi\AppData\Local\Temp\ccmC26Ly.s:4893   .debug_str:00000000000011c1 .LASF269
C:\Users\stapi\AppData\Local\Temp\ccmC26Ly.s:4571   .debug_str:0000000000000212 .LASF270
C:\Users\stapi\AppData\Local\Temp\ccmC26Ly.s:5007   .debug_str:0000000000001783 .LASF271
C:\Users\stapi\AppData\Local\Temp\ccmC26Ly.s:5079   .debug_str:0000000000001b10 .LASF272
C:\Users\stapi\AppData\Local\Temp\ccmC26Ly.s:5021   .debug_str:000000000000187f .LASF273
C:\Users\stapi\AppData\Local\Temp\ccmC26Ly.s:4593   .debug_str:00000000000002d5 .LASF274
C:\Users\stapi\AppData\Local\Temp\ccmC26Ly.s:4821   .debug_str:0000000000000d9c .LASF275
C:\Users\stapi\AppData\Local\Temp\ccmC26Ly.s:4577   .debug_str:0000000000000240 .LASF276
C:\Users\stapi\AppData\Local\Temp\ccmC26Ly.s:4559   .debug_str:0000000000000177 .LASF277
C:\Users\stapi\AppData\Local\Temp\ccmC26Ly.s:4911   .debug_str:00000000000012b1 .LASF331
C:\Users\stapi\AppData\Local\Temp\ccmC26Ly.s:4655   .debug_str:00000000000005ad .LASF278
C:\Users\stapi\AppData\Local\Temp\ccmC26Ly.s:4925   .debug_str:0000000000001365 .LASF279
C:\Users\stapi\AppData\Local\Temp\ccmC26Ly.s:4895   .debug_str:00000000000011ca .LASF280
C:\Users\stapi\AppData\Local\Temp\ccmC26Ly.s:4847   .debug_str:0000000000000fcb .LASF281
C:\Users\stapi\AppData\Local\Temp\ccmC26Ly.s:5053   .debug_str:00000000000019da .LASF282
C:\Users\stapi\AppData\Local\Temp\ccmC26Ly.s:4549   .debug_str:00000000000000fb .LASF286
C:\Users\stapi\AppData\Local\Temp\ccmC26Ly.s:5183   .debug_str:000000000000203e .LASF283
C:\Users\stapi\AppData\Local\Temp\ccmC26Ly.s:5191   .debug_str:000000000000207c .LASF284
C:\Users\stapi\AppData\Local\Temp\ccmC26Ly.s:4909   .debug_str:00000000000012a9 .LASF285
C:\Users\stapi\AppData\Local\Temp\ccmC26Ly.s:4815   .debug_str:0000000000000d71 .LASF287
C:\Users\stapi\AppData\Local\Temp\ccmC26Ly.s:4929   .debug_str:000000000000137a .LASF288
C:\Users\stapi\AppData\Local\Temp\ccmC26Ly.s:5025   .debug_str:00000000000018a6 .LASF289
C:\Users\stapi\AppData\Local\Temp\ccmC26Ly.s:4691   .debug_str:000000000000073c .LASF290
C:\Users\stapi\AppData\Local\Temp\ccmC26Ly.s:4583   .debug_str:0000000000000279 .LASF291
C:\Users\stapi\AppData\Local\Temp\ccmC26Ly.s:5179   .debug_str:0000000000002030 .LASF292
C:\Users\stapi\AppData\Local\Temp\ccmC26Ly.s:4887   .debug_str:000000000000117c .LASF293
C:\Users\stapi\AppData\Local\Temp\ccmC26Ly.s:4829   .debug_str:0000000000000ed8 .LASF294
C:\Users\stapi\AppData\Local\Temp\ccmC26Ly.s:5195   .debug_str:000000000000209f .LASF295
C:\Users\stapi\AppData\Local\Temp\ccmC26Ly.s:4531   .debug_str:0000000000000024 .LASF296
C:\Users\stapi\AppData\Local\Temp\ccmC26Ly.s:4589   .debug_str:00000000000002ba .LASF297
C:\Users\stapi\AppData\Local\Temp\ccmC26Ly.s:4635   .debug_str:00000000000004ac .LASF332
C:\Users\stapi\AppData\Local\Temp\ccmC26Ly.s:5151   .debug_str:0000000000001ed2 .LASF298
C:\Users\stapi\AppData\Local\Temp\ccmC26Ly.s:4775   .debug_str:0000000000000b97 .LASF299
C:\Users\stapi\AppData\Local\Temp\ccmC26Ly.s:4617   .debug_str:00000000000003ec .LASF300
C:\Users\stapi\AppData\Local\Temp\ccmC26Ly.s:5127   .debug_str:0000000000001d9e .LASF304
C:\Users\stapi\AppData\Local\Temp\ccmC26Ly.s:4561   .debug_str:0000000000000193 .LASF301
C:\Users\stapi\AppData\Local\Temp\ccmC26Ly.s:780    .text.app_per_sync_mgr_deinit:0000000000000000 .LFB11
C:\Users\stapi\AppData\Local\Temp\ccmC26Ly.s:789    .text.app_per_sync_mgr_deinit:0000000000000010 .LFE11
C:\Users\stapi\AppData\Local\Temp\ccmC26Ly.s:787    .text.app_per_sync_mgr_deinit:0000000000000010 .LVL88
C:\Users\stapi\AppData\Local\Temp\ccmC26Ly.s:4591   .debug_str:00000000000002bf .LASF302
C:\Users\stapi\AppData\Local\Temp\ccmC26Ly.s:746    .text.app_per_sync_mgr_init:0000000000000000 .LFB10
C:\Users\stapi\AppData\Local\Temp\ccmC26Ly.s:773    .text.app_per_sync_mgr_init:0000000000000034 .LFE10
C:\Users\stapi\AppData\Local\Temp\ccmC26Ly.s:762    .text.app_per_sync_mgr_init:000000000000001c .LVL86
C:\Users\stapi\AppData\Local\Temp\ccmC26Ly.s:767    .text.app_per_sync_mgr_init:000000000000002c .LVL87
C:\Users\stapi\AppData\Local\Temp\ccmC26Ly.s:4949   .debug_str:0000000000001487 .LASF303
C:\Users\stapi\AppData\Local\Temp\ccmC26Ly.s:679    .text.app_per_sync_terminate:0000000000000000 .LFB9
C:\Users\stapi\AppData\Local\Temp\ccmC26Ly.s:739    .text.app_per_sync_terminate:000000000000005a .LFE9
C:\Users\stapi\AppData\Local\Temp\ccmC26Ly.s:3986   .debug_loc:0000000000000000 .LLST28
C:\Users\stapi\AppData\Local\Temp\ccmC26Ly.s:5041   .debug_str:000000000000195c .LASF305
C:\Users\stapi\AppData\Local\Temp\ccmC26Ly.s:4000   .debug_loc:0000000000000021 .LLST29
C:\Users\stapi\AppData\Local\Temp\ccmC26Ly.s:692    .text.app_per_sync_terminate:0000000000000012 .LVL80
C:\Users\stapi\AppData\Local\Temp\ccmC26Ly.s:708    .text.app_per_sync_terminate:000000000000002e .LVL82
C:\Users\stapi\AppData\Local\Temp\ccmC26Ly.s:725    .text.app_per_sync_terminate:0000000000000040 .LVL85
C:\Users\stapi\AppData\Local\Temp\ccmC26Ly.s:4967   .debug_str:0000000000001564 .LASF306
C:\Users\stapi\AppData\Local\Temp\ccmC26Ly.s:617    .text.app_per_sync_cancel:0000000000000000 .LFB8
C:\Users\stapi\AppData\Local\Temp\ccmC26Ly.s:665    .text.app_per_sync_cancel:0000000000000052 .LFE8
C:\Users\stapi\AppData\Local\Temp\ccmC26Ly.s:4011   .debug_loc:000000000000003f .LLST27
C:\Users\stapi\AppData\Local\Temp\ccmC26Ly.s:626    .text.app_per_sync_cancel:0000000000000010 .LVL73
C:\Users\stapi\AppData\Local\Temp\ccmC26Ly.s:641    .text.app_per_sync_cancel:000000000000002e .LVL75
C:\Users\stapi\AppData\Local\Temp\ccmC26Ly.s:661    .text.app_per_sync_cancel:0000000000000050 .LVL78
C:\Users\stapi\AppData\Local\Temp\ccmC26Ly.s:4955   .debug_str:00000000000014bb .LASF307
C:\Users\stapi\AppData\Local\Temp\ccmC26Ly.s:584    .text.app_per_sync_mgr_reset:0000000000000000 .LFB7
C:\Users\stapi\AppData\Local\Temp\ccmC26Ly.s:603    .text.app_per_sync_mgr_reset:0000000000000028 .LFE7
C:\Users\stapi\AppData\Local\Temp\ccmC26Ly.s:592    .text.app_per_sync_mgr_reset:0000000000000010 .LVL71
C:\Users\stapi\AppData\Local\Temp\ccmC26Ly.s:597    .text.app_per_sync_mgr_reset:0000000000000020 .LVL72
C:\Users\stapi\AppData\Local\Temp\ccmC26Ly.s:4733   .debug_str:000000000000093f .LASF333
C:\Users\stapi\AppData\Local\Temp\ccmC26Ly.s:5121   .debug_str:0000000000001d39 .LASF334
C:\Users\stapi\AppData\Local\Temp\ccmC26Ly.s:5039   .debug_str:0000000000001950 .LASF308
C:\Users\stapi\AppData\Local\Temp\ccmC26Ly.s:5057   .debug_str:00000000000019f8 .LASF335
C:\Users\stapi\AppData\Local\Temp\ccmC26Ly.s:139    .text.ble_per_sync_mgr_find_device:0000000000000000 .LFB4
C:\Users\stapi\AppData\Local\Temp\ccmC26Ly.s:228    .text.ble_per_sync_mgr_find_device:000000000000006a .LFE4
C:\Users\stapi\AppData\Local\Temp\ccmC26Ly.s:4026   .debug_loc:0000000000000068 .LLST7
C:\Users\stapi\AppData\Local\Temp\ccmC26Ly.s:4037   .debug_loc:0000000000000086 .LLST8
C:\Users\stapi\AppData\Local\Temp\ccmC26Ly.s:4051   .debug_loc:00000000000000a7 .LLST9
C:\Users\stapi\AppData\Local\Temp\ccmC26Ly.s:4063   .debug_loc:00000000000000c6 .LLST10
C:\Users\stapi\AppData\Local\Temp\ccmC26Ly.s:4082   .debug_loc:00000000000000fa .LLST11
C:\Users\stapi\AppData\Local\Temp\ccmC26Ly.s:167    .text.ble_per_sync_mgr_find_device:000000000000001c .LVL23
C:\Users\stapi\AppData\Local\Temp\ccmC26Ly.s:216    .text.ble_per_sync_mgr_find_device:0000000000000060 .LVL28
C:\Users\stapi\AppData\Local\Temp\ccmC26Ly.s:4615   .debug_str:00000000000003c7 .LASF309
C:\Users\stapi\AppData\Local\Temp\ccmC26Ly.s:82     .text.ble_per_sync_clear_all_dev_list_flag:0000000000000000 .LFB3
C:\Users\stapi\AppData\Local\Temp\ccmC26Ly.s:132    .text.ble_per_sync_clear_all_dev_list_flag:0000000000000038 .LFE3
C:\Users\stapi\AppData\Local\Temp\ccmC26Ly.s:4102   .debug_loc:000000000000012f .LLST4
C:\Users\stapi\AppData\Local\Temp\ccmC26Ly.s:4114   .debug_loc:000000000000014e .LLST5
C:\Users\stapi\AppData\Local\Temp\ccmC26Ly.s:4133   .debug_loc:0000000000000182 .LLST6
C:\Users\stapi\AppData\Local\Temp\ccmC26Ly.s:97     .text.ble_per_sync_clear_all_dev_list_flag:0000000000000018 .LVL12
C:\Users\stapi\AppData\Local\Temp\ccmC26Ly.s:4873   .debug_str:00000000000010e1 .LASF336
C:\Users\stapi\AppData\Local\Temp\ccmC26Ly.s:341    .text.ble_per_sync_evt_handler:0000000000000000 .LFB2
C:\Users\stapi\AppData\Local\Temp\ccmC26Ly.s:501    .text.ble_per_sync_evt_handler:000000000000012e .LFE2
C:\Users\stapi\AppData\Local\Temp\ccmC26Ly.s:4897   .debug_str:00000000000011d4 .LASF310
C:\Users\stapi\AppData\Local\Temp\ccmC26Ly.s:4153   .debug_loc:00000000000001b7 .LLST20
C:\Users\stapi\AppData\Local\Temp\ccmC26Ly.s:4211   .debug_loc:000000000000023c .LLST21
C:\Users\stapi\AppData\Local\Temp\ccmC26Ly.s:4222   .debug_loc:000000000000025a .LLST22
C:\Users\stapi\AppData\Local\Temp\ccmC26Ly.s:441    .text.ble_per_sync_evt_handler:00000000000000b8 .LBB6
C:\Users\stapi\AppData\Local\Temp\ccmC26Ly.s:473    .text.ble_per_sync_evt_handler:00000000000000fe .LBE6
C:\Users\stapi\AppData\Local\Temp\ccmC26Ly.s:4257   .debug_loc:00000000000002b3 .LLST23
C:\Users\stapi\AppData\Local\Temp\ccmC26Ly.s:449    .text.ble_per_sync_evt_handler:00000000000000c6 .LVL54
C:\Users\stapi\AppData\Local\Temp\ccmC26Ly.s:469    .text.ble_per_sync_evt_handler:00000000000000fc .LVL56
C:\Users\stapi\AppData\Local\Temp\ccmC26Ly.s:474    .text.ble_per_sync_evt_handler:00000000000000fe .LBB7
C:\Users\stapi\AppData\Local\Temp\ccmC26Ly.s:497    .text.ble_per_sync_evt_handler:000000000000012c .LBE7
C:\Users\stapi\AppData\Local\Temp\ccmC26Ly.s:5157   .debug_str:0000000000001f0f .LASF311
C:\Users\stapi\AppData\Local\Temp\ccmC26Ly.s:481    .text.ble_per_sync_evt_handler:000000000000010a .LVL59
C:\Users\stapi\AppData\Local\Temp\ccmC26Ly.s:496    .text.ble_per_sync_evt_handler:000000000000012c .LVL61
C:\Users\stapi\AppData\Local\Temp\ccmC26Ly.s:373    .text.ble_per_sync_evt_handler:0000000000000038 .LVL45
C:\Users\stapi\AppData\Local\Temp\ccmC26Ly.s:409    .text.ble_per_sync_evt_handler:0000000000000080 .LVL50
C:\Users\stapi\AppData\Local\Temp\ccmC26Ly.s:418    .text.ble_per_sync_evt_handler:0000000000000094 .LVL51
C:\Users\stapi\AppData\Local\Temp\ccmC26Ly.s:4813   .debug_str:0000000000000d55 .LASF337
C:\Users\stapi\AppData\Local\Temp\ccmC26Ly.s:13     .text.sync_mgr_find_device_by_idx:0000000000000000 .LFB1
C:\Users\stapi\AppData\Local\Temp\ccmC26Ly.s:75     .text.sync_mgr_find_device_by_idx:0000000000000040 .LFE1
C:\Users\stapi\AppData\Local\Temp\ccmC26Ly.s:4265   .debug_loc:00000000000002c7 .LLST0
C:\Users\stapi\AppData\Local\Temp\ccmC26Ly.s:4279   .debug_loc:00000000000002e8 .LLST1
C:\Users\stapi\AppData\Local\Temp\ccmC26Ly.s:4291   .debug_loc:0000000000000307 .LLST2
C:\Users\stapi\AppData\Local\Temp\ccmC26Ly.s:4310   .debug_loc:000000000000033b .LLST3
C:\Users\stapi\AppData\Local\Temp\ccmC26Ly.s:35     .text.sync_mgr_find_device_by_idx:000000000000001a .LVL3
C:\Users\stapi\AppData\Local\Temp\ccmC26Ly.s:235    .text.ble_per_sync_mgr_find_alloc_device:0000000000000000 .LFB5
C:\Users\stapi\AppData\Local\Temp\ccmC26Ly.s:322    .text.ble_per_sync_mgr_find_alloc_device:0000000000000078 .LFE5
C:\Users\stapi\AppData\Local\Temp\ccmC26Ly.s:4330   .debug_loc:0000000000000370 .LLST12
C:\Users\stapi\AppData\Local\Temp\ccmC26Ly.s:4341   .debug_loc:000000000000038e .LLST13
C:\Users\stapi\AppData\Local\Temp\ccmC26Ly.s:4355   .debug_loc:00000000000003af .LLST14
C:\Users\stapi\AppData\Local\Temp\ccmC26Ly.s:4369   .debug_loc:00000000000003d0 .LLST15
C:\Users\stapi\AppData\Local\Temp\ccmC26Ly.s:260    .text.ble_per_sync_mgr_find_alloc_device:000000000000001a .LBB4
C:\Users\stapi\AppData\Local\Temp\ccmC26Ly.s:311    .text.ble_per_sync_mgr_find_alloc_device:000000000000006e .LBE4
C:\Users\stapi\AppData\Local\Temp\ccmC26Ly.s:4376   .debug_loc:00000000000003e3 .LLST16
C:\Users\stapi\AppData\Local\Temp\ccmC26Ly.s:4383   .debug_loc:00000000000003f6 .LLST17
C:\Users\stapi\AppData\Local\Temp\ccmC26Ly.s:4390   .debug_loc:0000000000000409 .LLST18
C:\Users\stapi\AppData\Local\Temp\ccmC26Ly.s:4397   .debug_loc:000000000000041c .LLST19
C:\Users\stapi\AppData\Local\Temp\ccmC26Ly.s:266    .text.ble_per_sync_mgr_find_alloc_device:0000000000000024 .LVL36
C:\Users\stapi\AppData\Local\Temp\ccmC26Ly.s:277    .text.ble_per_sync_mgr_find_alloc_device:0000000000000036 .LVL38
C:\Users\stapi\AppData\Local\Temp\ccmC26Ly.s:295    .text.ble_per_sync_mgr_find_alloc_device:0000000000000054 .LVL39
C:\Users\stapi\AppData\Local\Temp\ccmC26Ly.s:308    .text.ble_per_sync_mgr_find_alloc_device:000000000000006e .LVL40
C:\Users\stapi\AppData\Local\Temp\ccmC26Ly.s:253    .text.ble_per_sync_mgr_find_alloc_device:0000000000000016 .LVL33
C:\Users\stapi\AppData\Local\Temp\ccmC26Ly.s:508    .text.per_sync_mgr_clear_dev_list:0000000000000000 .LFB6
C:\Users\stapi\AppData\Local\Temp\ccmC26Ly.s:577    .text.per_sync_mgr_clear_dev_list:000000000000004c .LFE6
C:\Users\stapi\AppData\Local\Temp\ccmC26Ly.s:532    .text.per_sync_mgr_clear_dev_list:0000000000000020 .LBB10
C:\Users\stapi\AppData\Local\Temp\ccmC26Ly.s:4404   .debug_loc:000000000000042f .LLST24
C:\Users\stapi\AppData\Local\Temp\ccmC26Ly.s:4416   .debug_loc:000000000000044e .LLST25
C:\Users\stapi\AppData\Local\Temp\ccmC26Ly.s:4440   .debug_loc:000000000000048e .LLST26
C:\Users\stapi\AppData\Local\Temp\ccmC26Ly.s:564    .text.per_sync_mgr_clear_dev_list:000000000000003c .LVL68
C:\Users\stapi\AppData\Local\Temp\ccmC26Ly.s:568    .text.per_sync_mgr_clear_dev_list:0000000000000046 .LVL69
C:\Users\stapi\AppData\Local\Temp\ccmC26Ly.s:528    .text.per_sync_mgr_clear_dev_list:000000000000001a .LVL63
C:\Users\stapi\AppData\Local\Temp\ccmC26Ly.s:4757   .debug_str:0000000000000a88 .LASF312
C:\Users\stapi\AppData\Local\Temp\ccmC26Ly.s:4787   .debug_str:0000000000000c30 .LASF313
C:\Users\stapi\AppData\Local\Temp\ccmC26Ly.s:5197   .debug_str:00000000000020a4 .LASF314
C:\Users\stapi\AppData\Local\Temp\ccmC26Ly.s:5089   .debug_str:0000000000001b94 .LASF315
C:\Users\stapi\AppData\Local\Temp\ccmC26Ly.s:4573   .debug_str:0000000000000218 .LASF316
C:\Users\stapi\AppData\Local\Temp\ccmC26Ly.s:5005   .debug_str:000000000000176f .LASF317
C:\Users\stapi\AppData\Local\Temp\ccmC26Ly.s:4919   .debug_str:0000000000001323 .LASF318
C:\Users\stapi\AppData\Local\Temp\ccmC26Ly.s:5051   .debug_str:00000000000019d3 .LASF319
C:\Users\stapi\AppData\Local\Temp\ccmC26Ly.s:4675   .debug_str:0000000000000683 .LASF320
C:\Users\stapi\AppData\Local\Temp\ccmC26Ly.s:5017   .debug_str:000000000000185c .LASF321
C:\Users\stapi\AppData\Local\Temp\ccmC26Ly.s:4631   .debug_str:000000000000047b .LASF323
C:\Users\stapi\AppData\Local\Temp\ccmC26Ly.s:5117   .debug_str:0000000000001d13 .LASF322
C:\Users\stapi\AppData\Local\Temp\ccmC26Ly.s:4727   .debug_str:00000000000008f5 .LASF324
C:\Users\stapi\AppData\Local\Temp\ccmC26Ly.s:4927   .debug_str:000000000000136c .LASF325
C:\Users\stapi\AppData\Local\Temp\ccmC26Ly.s:5031   .debug_str:00000000000018ef .LASF326
C:\Users\stapi\AppData\Local\Temp\ccmC26Ly.s:5067   .debug_str:0000000000001a91 .LASF327
C:\Users\stapi\AppData\Local\Temp\ccmC26Ly.s:682    .text.app_per_sync_terminate:0000000000000000 .LVL79
C:\Users\stapi\AppData\Local\Temp\ccmC26Ly.s:703    .text.app_per_sync_terminate:0000000000000022 .LVL81
C:\Users\stapi\AppData\Local\Temp\ccmC26Ly.s:717    .text.app_per_sync_terminate:0000000000000036 .LVL83
C:\Users\stapi\AppData\Local\Temp\ccmC26Ly.s:723    .text.app_per_sync_terminate:0000000000000038 .LVL84
C:\Users\stapi\AppData\Local\Temp\ccmC26Ly.s:638    .text.app_per_sync_cancel:0000000000000022 .LVL74
C:\Users\stapi\AppData\Local\Temp\ccmC26Ly.s:648    .text.app_per_sync_cancel:0000000000000036 .LVL76
C:\Users\stapi\AppData\Local\Temp\ccmC26Ly.s:658    .text.app_per_sync_cancel:0000000000000044 .LVL77
C:\Users\stapi\AppData\Local\Temp\ccmC26Ly.s:142    .text.ble_per_sync_mgr_find_device:0000000000000000 .LVL20
C:\Users\stapi\AppData\Local\Temp\ccmC26Ly.s:162    .text.ble_per_sync_mgr_find_device:0000000000000012 .LVL22
C:\Users\stapi\AppData\Local\Temp\ccmC26Ly.s:153    .text.ble_per_sync_mgr_find_device:0000000000000008 .LVL21
C:\Users\stapi\AppData\Local\Temp\ccmC26Ly.s:178    .text.ble_per_sync_mgr_find_device:000000000000002c .LVL25
C:\Users\stapi\AppData\Local\Temp\ccmC26Ly.s:199    .text.ble_per_sync_mgr_find_device:000000000000003c .LVL27
C:\Users\stapi\AppData\Local\Temp\ccmC26Ly.s:223    .text.ble_per_sync_mgr_find_device:0000000000000064 .LVL30
C:\Users\stapi\AppData\Local\Temp\ccmC26Ly.s:173    .text.ble_per_sync_mgr_find_device:0000000000000024 .LVL24
C:\Users\stapi\AppData\Local\Temp\ccmC26Ly.s:182    .text.ble_per_sync_mgr_find_device:0000000000000030 .LVL26
C:\Users\stapi\AppData\Local\Temp\ccmC26Ly.s:221    .text.ble_per_sync_mgr_find_device:0000000000000062 .LVL29
C:\Users\stapi\AppData\Local\Temp\ccmC26Ly.s:225    .text.ble_per_sync_mgr_find_device:0000000000000068 .LVL31
C:\Users\stapi\AppData\Local\Temp\ccmC26Ly.s:90     .text.ble_per_sync_clear_all_dev_list_flag:0000000000000008 .LVL11
C:\Users\stapi\AppData\Local\Temp\ccmC26Ly.s:105    .text.ble_per_sync_clear_all_dev_list_flag:0000000000000022 .LVL14
C:\Users\stapi\AppData\Local\Temp\ccmC26Ly.s:117    .text.ble_per_sync_clear_all_dev_list_flag:000000000000002e .LVL16
C:\Users\stapi\AppData\Local\Temp\ccmC26Ly.s:127    .text.ble_per_sync_clear_all_dev_list_flag:0000000000000034 .LVL18
C:\Users\stapi\AppData\Local\Temp\ccmC26Ly.s:103    .text.ble_per_sync_clear_all_dev_list_flag:0000000000000020 .LVL13
C:\Users\stapi\AppData\Local\Temp\ccmC26Ly.s:109    .text.ble_per_sync_clear_all_dev_list_flag:0000000000000026 .LVL15
C:\Users\stapi\AppData\Local\Temp\ccmC26Ly.s:125    .text.ble_per_sync_clear_all_dev_list_flag:0000000000000032 .LVL17
C:\Users\stapi\AppData\Local\Temp\ccmC26Ly.s:129    .text.ble_per_sync_clear_all_dev_list_flag:0000000000000036 .LVL19
C:\Users\stapi\AppData\Local\Temp\ccmC26Ly.s:344    .text.ble_per_sync_evt_handler:0000000000000000 .LVL41
C:\Users\stapi\AppData\Local\Temp\ccmC26Ly.s:370    .text.ble_per_sync_evt_handler:000000000000002c .LVL44
C:\Users\stapi\AppData\Local\Temp\ccmC26Ly.s:375    .text.ble_per_sync_evt_handler:000000000000003a .LVL46
C:\Users\stapi\AppData\Local\Temp\ccmC26Ly.s:380    .text.ble_per_sync_evt_handler:0000000000000040 .LVL47
C:\Users\stapi\AppData\Local\Temp\ccmC26Ly.s:389    .text.ble_per_sync_evt_handler:0000000000000048 .LVL48
C:\Users\stapi\AppData\Local\Temp\ccmC26Ly.s:406    .text.ble_per_sync_evt_handler:0000000000000074 .LVL49
C:\Users\stapi\AppData\Local\Temp\ccmC26Ly.s:439    .text.ble_per_sync_evt_handler:00000000000000b8 .LVL52
C:\Users\stapi\AppData\Local\Temp\ccmC26Ly.s:447    .text.ble_per_sync_evt_handler:00000000000000be .LVL53
C:\Users\stapi\AppData\Local\Temp\ccmC26Ly.s:471    .text.ble_per_sync_evt_handler:00000000000000fe .LVL57
C:\Users\stapi\AppData\Local\Temp\ccmC26Ly.s:479    .text.ble_per_sync_evt_handler:0000000000000102 .LVL58
C:\Users\stapi\AppData\Local\Temp\ccmC26Ly.s:368    .text.ble_per_sync_evt_handler:0000000000000028 .LVL43
C:\Users\stapi\AppData\Local\Temp\ccmC26Ly.s:351    .text.ble_per_sync_evt_handler:0000000000000008 .LVL42
C:\Users\stapi\AppData\Local\Temp\ccmC26Ly.s:466    .text.ble_per_sync_evt_handler:00000000000000f0 .LVL55
C:\Users\stapi\AppData\Local\Temp\ccmC26Ly.s:493    .text.ble_per_sync_evt_handler:0000000000000120 .LVL60
C:\Users\stapi\AppData\Local\Temp\ccmC26Ly.s:17     .text.sync_mgr_find_device_by_idx:0000000000000000 .LVL0
C:\Users\stapi\AppData\Local\Temp\ccmC26Ly.s:33     .text.sync_mgr_find_device_by_idx:0000000000000012 .LVL2
C:\Users\stapi\AppData\Local\Temp\ccmC26Ly.s:24     .text.sync_mgr_find_device_by_idx:0000000000000008 .LVL1
C:\Users\stapi\AppData\Local\Temp\ccmC26Ly.s:43     .text.sync_mgr_find_device_by_idx:0000000000000024 .LVL5
C:\Users\stapi\AppData\Local\Temp\ccmC26Ly.s:59     .text.sync_mgr_find_device_by_idx:0000000000000032 .LVL7
C:\Users\stapi\AppData\Local\Temp\ccmC26Ly.s:70     .text.sync_mgr_find_device_by_idx:000000000000003c .LVL9
C:\Users\stapi\AppData\Local\Temp\ccmC26Ly.s:41     .text.sync_mgr_find_device_by_idx:0000000000000022 .LVL4
C:\Users\stapi\AppData\Local\Temp\ccmC26Ly.s:47     .text.sync_mgr_find_device_by_idx:0000000000000028 .LVL6
C:\Users\stapi\AppData\Local\Temp\ccmC26Ly.s:68     .text.sync_mgr_find_device_by_idx:000000000000003a .LVL8
C:\Users\stapi\AppData\Local\Temp\ccmC26Ly.s:72     .text.sync_mgr_find_device_by_idx:000000000000003e .LVL10
C:\Users\stapi\AppData\Local\Temp\ccmC26Ly.s:238    .text.ble_per_sync_mgr_find_alloc_device:0000000000000000 .LVL32
C:\Users\stapi\AppData\Local\Temp\ccmC26Ly.s:255    .text.ble_per_sync_mgr_find_alloc_device:0000000000000018 .LVL34
C:\Users\stapi\AppData\Local\Temp\ccmC26Ly.s:268    .text.ble_per_sync_mgr_find_alloc_device:0000000000000026 .LVL37
C:\Users\stapi\AppData\Local\Temp\ccmC26Ly.s:259    .text.ble_per_sync_mgr_find_alloc_device:000000000000001a .LVL35
C:\Users\stapi\AppData\Local\Temp\ccmC26Ly.s:555    .text.per_sync_mgr_clear_dev_list:0000000000000032 .LVL67
C:\Users\stapi\AppData\Local\Temp\ccmC26Ly.s:536    .text.per_sync_mgr_clear_dev_list:0000000000000022 .LVL64
C:\Users\stapi\AppData\Local\Temp\ccmC26Ly.s:542    .text.per_sync_mgr_clear_dev_list:0000000000000028 .LVL66
C:\Users\stapi\AppData\Local\Temp\ccmC26Ly.s:572    .text.per_sync_mgr_clear_dev_list:000000000000004a .LVL70
C:\Users\stapi\AppData\Local\Temp\ccmC26Ly.s:538    .text.per_sync_mgr_clear_dev_list:0000000000000024 .LVL65
C:\Users\stapi\AppData\Local\Temp\ccmC26Ly.s:814    .debug_info:0000000000000000 .Ldebug_info0
C:\Users\stapi\AppData\Local\Temp\ccmC26Ly.s:545    .text.per_sync_mgr_clear_dev_list:0000000000000028 .LBE10
C:\Users\stapi\AppData\Local\Temp\ccmC26Ly.s:558    .text.per_sync_mgr_clear_dev_list:0000000000000032 .LBB13
C:\Users\stapi\AppData\Local\Temp\ccmC26Ly.s:575    .text.per_sync_mgr_clear_dev_list:000000000000004c .LBE13

UNDEFINED SYMBOLS
__riscv_save_2
list_empty
__riscv_restore_2
__riscv_save_1
__riscv_restore_1
__riscv_save_6
__riscv_restore_6
memcmp
__riscv_save_4
sys_malloc
memset
memcpy
list_add_tail
__riscv_restore_4
global_debug_level
co_printf
list_del
sys_mfree
__riscv_save_0
ble_per_sync_callback_register
__riscv_restore_0
ble_per_sync_cancel
ble_per_sync_terminate
ble_per_sync_init
ble_per_sync_callback_unregister
