   1              		.file	"app_adapter_mgr.c"
   2              		.option nopic
   3              		.attribute arch, "rv32i2p0_m2p0_a2p0_f2p0_c2p0_b_p0p94"
   4              		.attribute unaligned_access, 0
   5              		.attribute stack_align, 16
   6              		.text
   7              	.Ltext0:
   8              		.cfi_sections	.debug_frame
   9              		.section	.text.app_adapter_cfg,"ax",@progbits
  10              		.align	1
  12              	app_adapter_cfg:
  13              	.LFB22:
  14              		.file 1 "C:/Users/stapi/OneDrive/Desktop/GD32VW553/GD32VW55X_Wifi_BLE_SDK/GD32VW55x_RELEASE_V1.0.2
   1:C:/Users/stapi/OneDrive/Desktop/GD32VW553/GD32VW55X_Wifi_BLE_SDK/GD32VW55x_RELEASE_V1.0.2/MSDK/ble/app\app_adapter_mgr.c **** /*!
   2:C:/Users/stapi/OneDrive/Desktop/GD32VW553/GD32VW55X_Wifi_BLE_SDK/GD32VW55x_RELEASE_V1.0.2/MSDK/ble/app\app_adapter_mgr.c ****     \file    app_adapter_mgr.c
   3:C:/Users/stapi/OneDrive/Desktop/GD32VW553/GD32VW55X_Wifi_BLE_SDK/GD32VW55x_RELEASE_V1.0.2/MSDK/ble/app\app_adapter_mgr.c ****     \brief   BLE Application adapter manager
   4:C:/Users/stapi/OneDrive/Desktop/GD32VW553/GD32VW55X_Wifi_BLE_SDK/GD32VW55x_RELEASE_V1.0.2/MSDK/ble/app\app_adapter_mgr.c **** 
   5:C:/Users/stapi/OneDrive/Desktop/GD32VW553/GD32VW55X_Wifi_BLE_SDK/GD32VW55x_RELEASE_V1.0.2/MSDK/ble/app\app_adapter_mgr.c ****     \version 2023-07-20, V1.0.0, firmware for GD32VW55x
   6:C:/Users/stapi/OneDrive/Desktop/GD32VW553/GD32VW55X_Wifi_BLE_SDK/GD32VW55x_RELEASE_V1.0.2/MSDK/ble/app\app_adapter_mgr.c **** */
   7:C:/Users/stapi/OneDrive/Desktop/GD32VW553/GD32VW55X_Wifi_BLE_SDK/GD32VW55x_RELEASE_V1.0.2/MSDK/ble/app\app_adapter_mgr.c **** 
   8:C:/Users/stapi/OneDrive/Desktop/GD32VW553/GD32VW55X_Wifi_BLE_SDK/GD32VW55x_RELEASE_V1.0.2/MSDK/ble/app\app_adapter_mgr.c **** /*
   9:C:/Users/stapi/OneDrive/Desktop/GD32VW553/GD32VW55X_Wifi_BLE_SDK/GD32VW55x_RELEASE_V1.0.2/MSDK/ble/app\app_adapter_mgr.c ****     Copyright (c) 2023, GigaDevice Semiconductor Inc.
  10:C:/Users/stapi/OneDrive/Desktop/GD32VW553/GD32VW55X_Wifi_BLE_SDK/GD32VW55x_RELEASE_V1.0.2/MSDK/ble/app\app_adapter_mgr.c **** 
  11:C:/Users/stapi/OneDrive/Desktop/GD32VW553/GD32VW55X_Wifi_BLE_SDK/GD32VW55x_RELEASE_V1.0.2/MSDK/ble/app\app_adapter_mgr.c ****     Redistribution and use in source and binary forms, with or without modification,
  12:C:/Users/stapi/OneDrive/Desktop/GD32VW553/GD32VW55X_Wifi_BLE_SDK/GD32VW55x_RELEASE_V1.0.2/MSDK/ble/app\app_adapter_mgr.c **** are permitted provided that the following conditions are met:
  13:C:/Users/stapi/OneDrive/Desktop/GD32VW553/GD32VW55X_Wifi_BLE_SDK/GD32VW55x_RELEASE_V1.0.2/MSDK/ble/app\app_adapter_mgr.c **** 
  14:C:/Users/stapi/OneDrive/Desktop/GD32VW553/GD32VW55X_Wifi_BLE_SDK/GD32VW55x_RELEASE_V1.0.2/MSDK/ble/app\app_adapter_mgr.c ****     1. Redistributions of source code must retain the above copyright notice, this
  15:C:/Users/stapi/OneDrive/Desktop/GD32VW553/GD32VW55X_Wifi_BLE_SDK/GD32VW55x_RELEASE_V1.0.2/MSDK/ble/app\app_adapter_mgr.c ****        list of conditions and the following disclaimer.
  16:C:/Users/stapi/OneDrive/Desktop/GD32VW553/GD32VW55X_Wifi_BLE_SDK/GD32VW55x_RELEASE_V1.0.2/MSDK/ble/app\app_adapter_mgr.c ****     2. Redistributions in binary form must reproduce the above copyright notice,
  17:C:/Users/stapi/OneDrive/Desktop/GD32VW553/GD32VW55X_Wifi_BLE_SDK/GD32VW55x_RELEASE_V1.0.2/MSDK/ble/app\app_adapter_mgr.c ****        this list of conditions and the following disclaimer in the documentation
  18:C:/Users/stapi/OneDrive/Desktop/GD32VW553/GD32VW55X_Wifi_BLE_SDK/GD32VW55x_RELEASE_V1.0.2/MSDK/ble/app\app_adapter_mgr.c ****        and/or other materials provided with the distribution.
  19:C:/Users/stapi/OneDrive/Desktop/GD32VW553/GD32VW55X_Wifi_BLE_SDK/GD32VW55x_RELEASE_V1.0.2/MSDK/ble/app\app_adapter_mgr.c ****     3. Neither the name of the copyright holder nor the names of its contributors
  20:C:/Users/stapi/OneDrive/Desktop/GD32VW553/GD32VW55X_Wifi_BLE_SDK/GD32VW55x_RELEASE_V1.0.2/MSDK/ble/app\app_adapter_mgr.c ****        may be used to endorse or promote products derived from this software without
  21:C:/Users/stapi/OneDrive/Desktop/GD32VW553/GD32VW55X_Wifi_BLE_SDK/GD32VW55x_RELEASE_V1.0.2/MSDK/ble/app\app_adapter_mgr.c ****        specific prior written permission.
  22:C:/Users/stapi/OneDrive/Desktop/GD32VW553/GD32VW55X_Wifi_BLE_SDK/GD32VW55x_RELEASE_V1.0.2/MSDK/ble/app\app_adapter_mgr.c **** 
  23:C:/Users/stapi/OneDrive/Desktop/GD32VW553/GD32VW55X_Wifi_BLE_SDK/GD32VW55x_RELEASE_V1.0.2/MSDK/ble/app\app_adapter_mgr.c ****     THIS SOFTWARE IS PROVIDED BY THE COPYRIGHT HOLDERS AND CONTRIBUTORS "AS IS"
  24:C:/Users/stapi/OneDrive/Desktop/GD32VW553/GD32VW55X_Wifi_BLE_SDK/GD32VW55x_RELEASE_V1.0.2/MSDK/ble/app\app_adapter_mgr.c **** AND ANY EXPRESS OR IMPLIED WARRANTIES, INCLUDING, BUT NOT LIMITED TO, THE IMPLIED
  25:C:/Users/stapi/OneDrive/Desktop/GD32VW553/GD32VW55X_Wifi_BLE_SDK/GD32VW55x_RELEASE_V1.0.2/MSDK/ble/app\app_adapter_mgr.c **** WARRANTIES OF MERCHANTABILITY AND FITNESS FOR A PARTICULAR PURPOSE ARE DISCLAIMED.
  26:C:/Users/stapi/OneDrive/Desktop/GD32VW553/GD32VW55X_Wifi_BLE_SDK/GD32VW55x_RELEASE_V1.0.2/MSDK/ble/app\app_adapter_mgr.c **** IN NO EVENT SHALL THE COPYRIGHT HOLDER OR CONTRIBUTORS BE LIABLE FOR ANY DIRECT,
  27:C:/Users/stapi/OneDrive/Desktop/GD32VW553/GD32VW55X_Wifi_BLE_SDK/GD32VW55x_RELEASE_V1.0.2/MSDK/ble/app\app_adapter_mgr.c **** INDIRECT, INCIDENTAL, SPECIAL, EXEMPLARY, OR CONSEQUENTIAL DAMAGES (INCLUDING, BUT
  28:C:/Users/stapi/OneDrive/Desktop/GD32VW553/GD32VW55X_Wifi_BLE_SDK/GD32VW55x_RELEASE_V1.0.2/MSDK/ble/app\app_adapter_mgr.c **** NOT LIMITED TO, PROCUREMENT OF SUBSTITUTE GOODS OR SERVICES; LOSS OF USE, DATA, OR
  29:C:/Users/stapi/OneDrive/Desktop/GD32VW553/GD32VW55X_Wifi_BLE_SDK/GD32VW55x_RELEASE_V1.0.2/MSDK/ble/app\app_adapter_mgr.c **** PROFITS; OR BUSINESS INTERRUPTION) HOWEVER CAUSED AND ON ANY THEORY OF LIABILITY,
  30:C:/Users/stapi/OneDrive/Desktop/GD32VW553/GD32VW55X_Wifi_BLE_SDK/GD32VW55x_RELEASE_V1.0.2/MSDK/ble/app\app_adapter_mgr.c **** WHETHER IN CONTRACT, STRICT LIABILITY, OR TORT (INCLUDING NEGLIGENCE OR OTHERWISE)
  31:C:/Users/stapi/OneDrive/Desktop/GD32VW553/GD32VW55X_Wifi_BLE_SDK/GD32VW55x_RELEASE_V1.0.2/MSDK/ble/app\app_adapter_mgr.c **** ARISING IN ANY WAY OUT OF THE USE OF THIS SOFTWARE, EVEN IF ADVISED OF THE POSSIBILITY
  32:C:/Users/stapi/OneDrive/Desktop/GD32VW553/GD32VW55X_Wifi_BLE_SDK/GD32VW55x_RELEASE_V1.0.2/MSDK/ble/app\app_adapter_mgr.c **** OF SUCH DAMAGE.
  33:C:/Users/stapi/OneDrive/Desktop/GD32VW553/GD32VW55X_Wifi_BLE_SDK/GD32VW55x_RELEASE_V1.0.2/MSDK/ble/app\app_adapter_mgr.c **** */
  34:C:/Users/stapi/OneDrive/Desktop/GD32VW553/GD32VW55X_Wifi_BLE_SDK/GD32VW55x_RELEASE_V1.0.2/MSDK/ble/app\app_adapter_mgr.c **** 
  35:C:/Users/stapi/OneDrive/Desktop/GD32VW553/GD32VW55X_Wifi_BLE_SDK/GD32VW55x_RELEASE_V1.0.2/MSDK/ble/app\app_adapter_mgr.c **** /*
  36:C:/Users/stapi/OneDrive/Desktop/GD32VW553/GD32VW55X_Wifi_BLE_SDK/GD32VW55x_RELEASE_V1.0.2/MSDK/ble/app\app_adapter_mgr.c ****  * INCLUDE FILES
  37:C:/Users/stapi/OneDrive/Desktop/GD32VW553/GD32VW55X_Wifi_BLE_SDK/GD32VW55x_RELEASE_V1.0.2/MSDK/ble/app\app_adapter_mgr.c ****  ****************************************************************************************
  38:C:/Users/stapi/OneDrive/Desktop/GD32VW553/GD32VW55X_Wifi_BLE_SDK/GD32VW55x_RELEASE_V1.0.2/MSDK/ble/app\app_adapter_mgr.c ****  */
  39:C:/Users/stapi/OneDrive/Desktop/GD32VW553/GD32VW55X_Wifi_BLE_SDK/GD32VW55x_RELEASE_V1.0.2/MSDK/ble/app\app_adapter_mgr.c **** 
  40:C:/Users/stapi/OneDrive/Desktop/GD32VW553/GD32VW55X_Wifi_BLE_SDK/GD32VW55x_RELEASE_V1.0.2/MSDK/ble/app\app_adapter_mgr.c **** #include "ble_app_config.h"
  41:C:/Users/stapi/OneDrive/Desktop/GD32VW553/GD32VW55X_Wifi_BLE_SDK/GD32VW55x_RELEASE_V1.0.2/MSDK/ble/app\app_adapter_mgr.c **** #include "ble_profile_config.h"
  42:C:/Users/stapi/OneDrive/Desktop/GD32VW553/GD32VW55X_Wifi_BLE_SDK/GD32VW55x_RELEASE_V1.0.2/MSDK/ble/app\app_adapter_mgr.c **** 
  43:C:/Users/stapi/OneDrive/Desktop/GD32VW553/GD32VW55X_Wifi_BLE_SDK/GD32VW55x_RELEASE_V1.0.2/MSDK/ble/app\app_adapter_mgr.c **** #if (BLE_APP_SUPPORT)
  44:C:/Users/stapi/OneDrive/Desktop/GD32VW553/GD32VW55X_Wifi_BLE_SDK/GD32VW55x_RELEASE_V1.0.2/MSDK/ble/app\app_adapter_mgr.c **** #include <string.h>
  45:C:/Users/stapi/OneDrive/Desktop/GD32VW553/GD32VW55X_Wifi_BLE_SDK/GD32VW55x_RELEASE_V1.0.2/MSDK/ble/app\app_adapter_mgr.c **** 
  46:C:/Users/stapi/OneDrive/Desktop/GD32VW553/GD32VW55X_Wifi_BLE_SDK/GD32VW55x_RELEASE_V1.0.2/MSDK/ble/app\app_adapter_mgr.c **** #include "ble_types.h"
  47:C:/Users/stapi/OneDrive/Desktop/GD32VW553/GD32VW55X_Wifi_BLE_SDK/GD32VW55x_RELEASE_V1.0.2/MSDK/ble/app\app_adapter_mgr.c **** 
  48:C:/Users/stapi/OneDrive/Desktop/GD32VW553/GD32VW55X_Wifi_BLE_SDK/GD32VW55x_RELEASE_V1.0.2/MSDK/ble/app\app_adapter_mgr.c **** #include "app_adapter_mgr.h"
  49:C:/Users/stapi/OneDrive/Desktop/GD32VW553/GD32VW55X_Wifi_BLE_SDK/GD32VW55x_RELEASE_V1.0.2/MSDK/ble/app\app_adapter_mgr.c **** #include "app_sec_mgr.h"
  50:C:/Users/stapi/OneDrive/Desktop/GD32VW553/GD32VW55X_Wifi_BLE_SDK/GD32VW55x_RELEASE_V1.0.2/MSDK/ble/app\app_adapter_mgr.c **** #include "app_l2cap.h"
  51:C:/Users/stapi/OneDrive/Desktop/GD32VW553/GD32VW55X_Wifi_BLE_SDK/GD32VW55x_RELEASE_V1.0.2/MSDK/ble/app\app_adapter_mgr.c **** #include "ble_scan.h"
  52:C:/Users/stapi/OneDrive/Desktop/GD32VW553/GD32VW55X_Wifi_BLE_SDK/GD32VW55x_RELEASE_V1.0.2/MSDK/ble/app\app_adapter_mgr.c **** #include "ble_conn.h"
  53:C:/Users/stapi/OneDrive/Desktop/GD32VW553/GD32VW55X_Wifi_BLE_SDK/GD32VW55x_RELEASE_V1.0.2/MSDK/ble/app\app_adapter_mgr.c **** #include "app_scan_mgr.h"
  54:C:/Users/stapi/OneDrive/Desktop/GD32VW553/GD32VW55X_Wifi_BLE_SDK/GD32VW55x_RELEASE_V1.0.2/MSDK/ble/app\app_adapter_mgr.c **** #include "app_conn_mgr.h"
  55:C:/Users/stapi/OneDrive/Desktop/GD32VW553/GD32VW55X_Wifi_BLE_SDK/GD32VW55x_RELEASE_V1.0.2/MSDK/ble/app\app_adapter_mgr.c **** #include "app_dev_mgr.h"
  56:C:/Users/stapi/OneDrive/Desktop/GD32VW553/GD32VW55X_Wifi_BLE_SDK/GD32VW55x_RELEASE_V1.0.2/MSDK/ble/app\app_adapter_mgr.c **** #include "app_per_sync_mgr.h"
  57:C:/Users/stapi/OneDrive/Desktop/GD32VW553/GD32VW55X_Wifi_BLE_SDK/GD32VW55x_RELEASE_V1.0.2/MSDK/ble/app\app_adapter_mgr.c **** #include "app_list_mgr.h"
  58:C:/Users/stapi/OneDrive/Desktop/GD32VW553/GD32VW55X_Wifi_BLE_SDK/GD32VW55x_RELEASE_V1.0.2/MSDK/ble/app\app_adapter_mgr.c **** #include "app_adv_mgr.h"
  59:C:/Users/stapi/OneDrive/Desktop/GD32VW553/GD32VW55X_Wifi_BLE_SDK/GD32VW55x_RELEASE_V1.0.2/MSDK/ble/app\app_adapter_mgr.c **** #include "app_iso_mgr.h"
  60:C:/Users/stapi/OneDrive/Desktop/GD32VW553/GD32VW55X_Wifi_BLE_SDK/GD32VW55x_RELEASE_V1.0.2/MSDK/ble/app\app_adapter_mgr.c **** #include "app_diss.h"
  61:C:/Users/stapi/OneDrive/Desktop/GD32VW553/GD32VW55X_Wifi_BLE_SDK/GD32VW55x_RELEASE_V1.0.2/MSDK/ble/app\app_adapter_mgr.c **** #include "app_bass.h"
  62:C:/Users/stapi/OneDrive/Desktop/GD32VW553/GD32VW55X_Wifi_BLE_SDK/GD32VW55x_RELEASE_V1.0.2/MSDK/ble/app\app_adapter_mgr.c **** #include "app_cscss.h"
  63:C:/Users/stapi/OneDrive/Desktop/GD32VW553/GD32VW55X_Wifi_BLE_SDK/GD32VW55x_RELEASE_V1.0.2/MSDK/ble/app\app_adapter_mgr.c **** #include "app_blue_courier_link.h"
  64:C:/Users/stapi/OneDrive/Desktop/GD32VW553/GD32VW55X_Wifi_BLE_SDK/GD32VW55x_RELEASE_V1.0.2/MSDK/ble/app\app_adapter_mgr.c **** 
  65:C:/Users/stapi/OneDrive/Desktop/GD32VW553/GD32VW55X_Wifi_BLE_SDK/GD32VW55x_RELEASE_V1.0.2/MSDK/ble/app\app_adapter_mgr.c **** #include "wrapper_os.h"
  66:C:/Users/stapi/OneDrive/Desktop/GD32VW553/GD32VW55X_Wifi_BLE_SDK/GD32VW55x_RELEASE_V1.0.2/MSDK/ble/app\app_adapter_mgr.c **** #include "ble_export.h"
  67:C:/Users/stapi/OneDrive/Desktop/GD32VW553/GD32VW55X_Wifi_BLE_SDK/GD32VW55x_RELEASE_V1.0.2/MSDK/ble/app\app_adapter_mgr.c **** #include "ble_list.h"
  68:C:/Users/stapi/OneDrive/Desktop/GD32VW553/GD32VW55X_Wifi_BLE_SDK/GD32VW55x_RELEASE_V1.0.2/MSDK/ble/app\app_adapter_mgr.c **** #include "ble_adapter.h"
  69:C:/Users/stapi/OneDrive/Desktop/GD32VW553/GD32VW55X_Wifi_BLE_SDK/GD32VW55x_RELEASE_V1.0.2/MSDK/ble/app\app_adapter_mgr.c **** #include "ble_utils.h"
  70:C:/Users/stapi/OneDrive/Desktop/GD32VW553/GD32VW55X_Wifi_BLE_SDK/GD32VW55x_RELEASE_V1.0.2/MSDK/ble/app\app_adapter_mgr.c **** #include "ble_init.h"
  71:C:/Users/stapi/OneDrive/Desktop/GD32VW553/GD32VW55X_Wifi_BLE_SDK/GD32VW55x_RELEASE_V1.0.2/MSDK/ble/app\app_adapter_mgr.c **** #include "ble_gatts.h"
  72:C:/Users/stapi/OneDrive/Desktop/GD32VW553/GD32VW55X_Wifi_BLE_SDK/GD32VW55x_RELEASE_V1.0.2/MSDK/ble/app\app_adapter_mgr.c **** #include "dbg_print.h"
  73:C:/Users/stapi/OneDrive/Desktop/GD32VW553/GD32VW55X_Wifi_BLE_SDK/GD32VW55x_RELEASE_V1.0.2/MSDK/ble/app\app_adapter_mgr.c **** #include "util.h"
  74:C:/Users/stapi/OneDrive/Desktop/GD32VW553/GD32VW55X_Wifi_BLE_SDK/GD32VW55x_RELEASE_V1.0.2/MSDK/ble/app\app_adapter_mgr.c **** 
  75:C:/Users/stapi/OneDrive/Desktop/GD32VW553/GD32VW55X_Wifi_BLE_SDK/GD32VW55x_RELEASE_V1.0.2/MSDK/ble/app\app_adapter_mgr.c **** /* Default Device Name */
  76:C:/Users/stapi/OneDrive/Desktop/GD32VW553/GD32VW55X_Wifi_BLE_SDK/GD32VW55x_RELEASE_V1.0.2/MSDK/ble/app\app_adapter_mgr.c **** #define APP_DFLT_DEVICE_NAME_MAX_LEN    31
  77:C:/Users/stapi/OneDrive/Desktop/GD32VW553/GD32VW55X_Wifi_BLE_SDK/GD32VW55x_RELEASE_V1.0.2/MSDK/ble/app\app_adapter_mgr.c **** #define APP_DFLT_DEVICE_NAME            ("GD-BLE")
  78:C:/Users/stapi/OneDrive/Desktop/GD32VW553/GD32VW55X_Wifi_BLE_SDK/GD32VW55x_RELEASE_V1.0.2/MSDK/ble/app\app_adapter_mgr.c **** #define APP_DFLT_DEVICE_NAME_LEN        (strlen(APP_DFLT_DEVICE_NAME))
  79:C:/Users/stapi/OneDrive/Desktop/GD32VW553/GD32VW55X_Wifi_BLE_SDK/GD32VW55x_RELEASE_V1.0.2/MSDK/ble/app\app_adapter_mgr.c **** 
  80:C:/Users/stapi/OneDrive/Desktop/GD32VW553/GD32VW55X_Wifi_BLE_SDK/GD32VW55x_RELEASE_V1.0.2/MSDK/ble/app\app_adapter_mgr.c **** /* BLE adapter application environment structure */
  81:C:/Users/stapi/OneDrive/Desktop/GD32VW553/GD32VW55X_Wifi_BLE_SDK/GD32VW55x_RELEASE_V1.0.2/MSDK/ble/app\app_adapter_mgr.c **** struct adapter_env_tag
  82:C:/Users/stapi/OneDrive/Desktop/GD32VW553/GD32VW55X_Wifi_BLE_SDK/GD32VW55x_RELEASE_V1.0.2/MSDK/ble/app\app_adapter_mgr.c **** {
  83:C:/Users/stapi/OneDrive/Desktop/GD32VW553/GD32VW55X_Wifi_BLE_SDK/GD32VW55x_RELEASE_V1.0.2/MSDK/ble/app\app_adapter_mgr.c ****     bool           process_reset;                       /*!< Reset is processing */
  84:C:/Users/stapi/OneDrive/Desktop/GD32VW553/GD32VW55X_Wifi_BLE_SDK/GD32VW55x_RELEASE_V1.0.2/MSDK/ble/app\app_adapter_mgr.c ****     ble_gap_addr_t id_addr;                             /*!< Local identity address */
  85:C:/Users/stapi/OneDrive/Desktop/GD32VW553/GD32VW55X_Wifi_BLE_SDK/GD32VW55x_RELEASE_V1.0.2/MSDK/ble/app\app_adapter_mgr.c ****     uint8_t own_addr_type;                              /*!< Local address type */
  86:C:/Users/stapi/OneDrive/Desktop/GD32VW553/GD32VW55X_Wifi_BLE_SDK/GD32VW55x_RELEASE_V1.0.2/MSDK/ble/app\app_adapter_mgr.c ****     uint8_t loc_irk[BLE_GAP_KEY_LEN];                   /*!< Local IRK */
  87:C:/Users/stapi/OneDrive/Desktop/GD32VW553/GD32VW55X_Wifi_BLE_SDK/GD32VW55x_RELEASE_V1.0.2/MSDK/ble/app\app_adapter_mgr.c ****     uint8_t adapter_name[APP_DFLT_DEVICE_NAME_MAX_LEN]; /*!< Adapter name */
  88:C:/Users/stapi/OneDrive/Desktop/GD32VW553/GD32VW55X_Wifi_BLE_SDK/GD32VW55x_RELEASE_V1.0.2/MSDK/ble/app\app_adapter_mgr.c **** };
  89:C:/Users/stapi/OneDrive/Desktop/GD32VW553/GD32VW55X_Wifi_BLE_SDK/GD32VW55x_RELEASE_V1.0.2/MSDK/ble/app\app_adapter_mgr.c **** 
  90:C:/Users/stapi/OneDrive/Desktop/GD32VW553/GD32VW55X_Wifi_BLE_SDK/GD32VW55x_RELEASE_V1.0.2/MSDK/ble/app\app_adapter_mgr.c **** /* BLE adapter application environment data */
  91:C:/Users/stapi/OneDrive/Desktop/GD32VW553/GD32VW55X_Wifi_BLE_SDK/GD32VW55x_RELEASE_V1.0.2/MSDK/ble/app\app_adapter_mgr.c **** struct adapter_env_tag app_env;
  92:C:/Users/stapi/OneDrive/Desktop/GD32VW553/GD32VW55X_Wifi_BLE_SDK/GD32VW55x_RELEASE_V1.0.2/MSDK/ble/app\app_adapter_mgr.c **** 
  93:C:/Users/stapi/OneDrive/Desktop/GD32VW553/GD32VW55X_Wifi_BLE_SDK/GD32VW55x_RELEASE_V1.0.2/MSDK/ble/app\app_adapter_mgr.c **** /*!
  94:C:/Users/stapi/OneDrive/Desktop/GD32VW553/GD32VW55X_Wifi_BLE_SDK/GD32VW55x_RELEASE_V1.0.2/MSDK/ble/app\app_adapter_mgr.c ****     \brief      Function called after BLE stack enabled, used to get local IRK and set local name
  95:C:/Users/stapi/OneDrive/Desktop/GD32VW553/GD32VW55X_Wifi_BLE_SDK/GD32VW55x_RELEASE_V1.0.2/MSDK/ble/app\app_adapter_mgr.c ****     \param[in]  status: BLE stack enable status
  96:C:/Users/stapi/OneDrive/Desktop/GD32VW553/GD32VW55X_Wifi_BLE_SDK/GD32VW55x_RELEASE_V1.0.2/MSDK/ble/app\app_adapter_mgr.c ****     \param[out] none
  97:C:/Users/stapi/OneDrive/Desktop/GD32VW553/GD32VW55X_Wifi_BLE_SDK/GD32VW55x_RELEASE_V1.0.2/MSDK/ble/app\app_adapter_mgr.c ****     \retval     none
  98:C:/Users/stapi/OneDrive/Desktop/GD32VW553/GD32VW55X_Wifi_BLE_SDK/GD32VW55x_RELEASE_V1.0.2/MSDK/ble/app\app_adapter_mgr.c **** */
  99:C:/Users/stapi/OneDrive/Desktop/GD32VW553/GD32VW55X_Wifi_BLE_SDK/GD32VW55x_RELEASE_V1.0.2/MSDK/ble/app\app_adapter_mgr.c **** static void app_enable_cmplt_handler(uint16_t status)
 100:C:/Users/stapi/OneDrive/Desktop/GD32VW553/GD32VW55X_Wifi_BLE_SDK/GD32VW55x_RELEASE_V1.0.2/MSDK/ble/app\app_adapter_mgr.c **** {
 101:C:/Users/stapi/OneDrive/Desktop/GD32VW553/GD32VW55X_Wifi_BLE_SDK/GD32VW55x_RELEASE_V1.0.2/MSDK/ble/app\app_adapter_mgr.c ****     //ASSERT_ERR(status == BLE_ERR_NO_ERROR);
 102:C:/Users/stapi/OneDrive/Desktop/GD32VW553/GD32VW55X_Wifi_BLE_SDK/GD32VW55x_RELEASE_V1.0.2/MSDK/ble/app\app_adapter_mgr.c ****     uint8_t str_len;
 103:C:/Users/stapi/OneDrive/Desktop/GD32VW553/GD32VW55X_Wifi_BLE_SDK/GD32VW55x_RELEASE_V1.0.2/MSDK/ble/app\app_adapter_mgr.c **** 
 104:C:/Users/stapi/OneDrive/Desktop/GD32VW553/GD32VW55X_Wifi_BLE_SDK/GD32VW55x_RELEASE_V1.0.2/MSDK/ble/app\app_adapter_mgr.c ****     str_len = snprintf((char *)app_env.adapter_name, APP_DFLT_DEVICE_NAME_MAX_LEN,
 105:C:/Users/stapi/OneDrive/Desktop/GD32VW553/GD32VW55X_Wifi_BLE_SDK/GD32VW55x_RELEASE_V1.0.2/MSDK/ble/app\app_adapter_mgr.c ****                        "%s-%02x:%02x:%02x:%02x:%02x:%02x", APP_DFLT_DEVICE_NAME,
 106:C:/Users/stapi/OneDrive/Desktop/GD32VW553/GD32VW55X_Wifi_BLE_SDK/GD32VW55x_RELEASE_V1.0.2/MSDK/ble/app\app_adapter_mgr.c ****                        app_env.id_addr.addr[0], app_env.id_addr.addr[1],
 107:C:/Users/stapi/OneDrive/Desktop/GD32VW553/GD32VW55X_Wifi_BLE_SDK/GD32VW55x_RELEASE_V1.0.2/MSDK/ble/app\app_adapter_mgr.c ****                        app_env.id_addr.addr[2], app_env.id_addr.addr[3],
 108:C:/Users/stapi/OneDrive/Desktop/GD32VW553/GD32VW55X_Wifi_BLE_SDK/GD32VW55x_RELEASE_V1.0.2/MSDK/ble/app\app_adapter_mgr.c ****                        app_env.id_addr.addr[4], app_env.id_addr.addr[5]);
 109:C:/Users/stapi/OneDrive/Desktop/GD32VW553/GD32VW55X_Wifi_BLE_SDK/GD32VW55x_RELEASE_V1.0.2/MSDK/ble/app\app_adapter_mgr.c **** 
 110:C:/Users/stapi/OneDrive/Desktop/GD32VW553/GD32VW55X_Wifi_BLE_SDK/GD32VW55x_RELEASE_V1.0.2/MSDK/ble/app\app_adapter_mgr.c ****     str_len = str_len > APP_DFLT_DEVICE_NAME_MAX_LEN ? APP_DFLT_DEVICE_NAME_MAX_LEN : str_len;
 111:C:/Users/stapi/OneDrive/Desktop/GD32VW553/GD32VW55X_Wifi_BLE_SDK/GD32VW55x_RELEASE_V1.0.2/MSDK/ble/app\app_adapter_mgr.c **** 
 112:C:/Users/stapi/OneDrive/Desktop/GD32VW553/GD32VW55X_Wifi_BLE_SDK/GD32VW55x_RELEASE_V1.0.2/MSDK/ble/app\app_adapter_mgr.c ****     ble_adp_loc_irk_get(app_env.loc_irk);
 113:C:/Users/stapi/OneDrive/Desktop/GD32VW553/GD32VW55X_Wifi_BLE_SDK/GD32VW55x_RELEASE_V1.0.2/MSDK/ble/app\app_adapter_mgr.c ****     ble_adp_name_set((uint8_t *)app_env.adapter_name, str_len);
 114:C:/Users/stapi/OneDrive/Desktop/GD32VW553/GD32VW55X_Wifi_BLE_SDK/GD32VW55x_RELEASE_V1.0.2/MSDK/ble/app\app_adapter_mgr.c **** }
 115:C:/Users/stapi/OneDrive/Desktop/GD32VW553/GD32VW55X_Wifi_BLE_SDK/GD32VW55x_RELEASE_V1.0.2/MSDK/ble/app\app_adapter_mgr.c **** 
 116:C:/Users/stapi/OneDrive/Desktop/GD32VW553/GD32VW55X_Wifi_BLE_SDK/GD32VW55x_RELEASE_V1.0.2/MSDK/ble/app\app_adapter_mgr.c **** /*!
 117:C:/Users/stapi/OneDrive/Desktop/GD32VW553/GD32VW55X_Wifi_BLE_SDK/GD32VW55x_RELEASE_V1.0.2/MSDK/ble/app\app_adapter_mgr.c ****     \brief      Configure BLE adapter
 118:C:/Users/stapi/OneDrive/Desktop/GD32VW553/GD32VW55X_Wifi_BLE_SDK/GD32VW55x_RELEASE_V1.0.2/MSDK/ble/app\app_adapter_mgr.c ****     \param[in]  none
 119:C:/Users/stapi/OneDrive/Desktop/GD32VW553/GD32VW55X_Wifi_BLE_SDK/GD32VW55x_RELEASE_V1.0.2/MSDK/ble/app\app_adapter_mgr.c ****     \param[out] none
 120:C:/Users/stapi/OneDrive/Desktop/GD32VW553/GD32VW55X_Wifi_BLE_SDK/GD32VW55x_RELEASE_V1.0.2/MSDK/ble/app\app_adapter_mgr.c ****     \retval     none
 121:C:/Users/stapi/OneDrive/Desktop/GD32VW553/GD32VW55X_Wifi_BLE_SDK/GD32VW55x_RELEASE_V1.0.2/MSDK/ble/app\app_adapter_mgr.c **** */
 122:C:/Users/stapi/OneDrive/Desktop/GD32VW553/GD32VW55X_Wifi_BLE_SDK/GD32VW55x_RELEASE_V1.0.2/MSDK/ble/app\app_adapter_mgr.c **** static void app_adapter_cfg(void)
 123:C:/Users/stapi/OneDrive/Desktop/GD32VW553/GD32VW55X_Wifi_BLE_SDK/GD32VW55x_RELEASE_V1.0.2/MSDK/ble/app\app_adapter_mgr.c **** {
  15              		.loc 1 123 1
  16              		.cfi_startproc
  17 0000 17030000 		call	t0,__riscv_save_0
  17      E7020300 
  18              		.cfi_offset 1, -4
  19              		.cfi_def_cfa_offset 16
 124:C:/Users/stapi/OneDrive/Desktop/GD32VW553/GD32VW55X_Wifi_BLE_SDK/GD32VW55x_RELEASE_V1.0.2/MSDK/ble/app\app_adapter_mgr.c ****     ble_adp_config_t cfg = {0};
  20              		.loc 1 124 5
 123:C:/Users/stapi/OneDrive/Desktop/GD32VW553/GD32VW55X_Wifi_BLE_SDK/GD32VW55x_RELEASE_V1.0.2/MSDK/ble/app\app_adapter_mgr.c ****     ble_adp_config_t cfg = {0};
  21              		.loc 1 123 1 is_stmt 0
  22 0008 4111     		addi	sp,sp,-16
  23              		.cfi_def_cfa_offset 32
  24              		.loc 1 124 22
  25 000a 02C2     		sw	zero,4(sp)
  26 000c 02C4     		sw	zero,8(sp)
  27 000e 02C6     		sw	zero,12(sp)
 125:C:/Users/stapi/OneDrive/Desktop/GD32VW553/GD32VW55X_Wifi_BLE_SDK/GD32VW55x_RELEASE_V1.0.2/MSDK/ble/app\app_adapter_mgr.c **** 
 126:C:/Users/stapi/OneDrive/Desktop/GD32VW553/GD32VW55X_Wifi_BLE_SDK/GD32VW55x_RELEASE_V1.0.2/MSDK/ble/app\app_adapter_mgr.c ****     cfg.keys_user_mgr = app_sec_user_key_mgr_get();
  28              		.loc 1 126 5 is_stmt 1
  29              		.loc 1 126 25 is_stmt 0
  30 0010 97000000 		call	app_sec_user_key_mgr_get
  30      E7800000 
  31              	.LVL0:
 127:C:/Users/stapi/OneDrive/Desktop/GD32VW553/GD32VW55X_Wifi_BLE_SDK/GD32VW55x_RELEASE_V1.0.2/MSDK/ble/app\app_adapter_mgr.c ****     // Set the operation
 128:C:/Users/stapi/OneDrive/Desktop/GD32VW553/GD32VW55X_Wifi_BLE_SDK/GD32VW55x_RELEASE_V1.0.2/MSDK/ble/app\app_adapter_mgr.c **** #if (BLE_CFG_ROLE & BLE_CFG_ROLE_PERIPHERAL)
 129:C:/Users/stapi/OneDrive/Desktop/GD32VW553/GD32VW55X_Wifi_BLE_SDK/GD32VW55x_RELEASE_V1.0.2/MSDK/ble/app\app_adapter_mgr.c ****     cfg.role |= BLE_GAP_ROLE_PERIPHERAL;
 130:C:/Users/stapi/OneDrive/Desktop/GD32VW553/GD32VW55X_Wifi_BLE_SDK/GD32VW55x_RELEASE_V1.0.2/MSDK/ble/app\app_adapter_mgr.c **** #endif
 131:C:/Users/stapi/OneDrive/Desktop/GD32VW553/GD32VW55X_Wifi_BLE_SDK/GD32VW55x_RELEASE_V1.0.2/MSDK/ble/app\app_adapter_mgr.c **** #if (BLE_CFG_ROLE & BLE_CFG_ROLE_CENTRAL)
 132:C:/Users/stapi/OneDrive/Desktop/GD32VW553/GD32VW55X_Wifi_BLE_SDK/GD32VW55x_RELEASE_V1.0.2/MSDK/ble/app\app_adapter_mgr.c ****     cfg.role |= BLE_GAP_ROLE_CENTRAL;
  32              		.loc 1 132 14
  33 0018 83475100 		lbu	a5,5(sp)
 126:C:/Users/stapi/OneDrive/Desktop/GD32VW553/GD32VW55X_Wifi_BLE_SDK/GD32VW55x_RELEASE_V1.0.2/MSDK/ble/app\app_adapter_mgr.c ****     // Set the operation
  34              		.loc 1 126 23
  35 001c 2302A100 		sb	a0,4(sp)
 129:C:/Users/stapi/OneDrive/Desktop/GD32VW553/GD32VW55X_Wifi_BLE_SDK/GD32VW55x_RELEASE_V1.0.2/MSDK/ble/app\app_adapter_mgr.c **** #endif
  36              		.loc 1 129 5 is_stmt 1
  37              		.loc 1 132 5
 133:C:/Users/stapi/OneDrive/Desktop/GD32VW553/GD32VW55X_Wifi_BLE_SDK/GD32VW55x_RELEASE_V1.0.2/MSDK/ble/app\app_adapter_mgr.c **** #endif
 134:C:/Users/stapi/OneDrive/Desktop/GD32VW553/GD32VW55X_Wifi_BLE_SDK/GD32VW55x_RELEASE_V1.0.2/MSDK/ble/app\app_adapter_mgr.c **** 
 135:C:/Users/stapi/OneDrive/Desktop/GD32VW553/GD32VW55X_Wifi_BLE_SDK/GD32VW55x_RELEASE_V1.0.2/MSDK/ble/app\app_adapter_mgr.c ****     cfg.pairing_mode = BLE_GAP_PAIRING_SECURE_CONNECTION | BLE_GAP_PAIRING_LEGACY;
 136:C:/Users/stapi/OneDrive/Desktop/GD32VW553/GD32VW55X_Wifi_BLE_SDK/GD32VW55x_RELEASE_V1.0.2/MSDK/ble/app\app_adapter_mgr.c **** 
 137:C:/Users/stapi/OneDrive/Desktop/GD32VW553/GD32VW55X_Wifi_BLE_SDK/GD32VW55x_RELEASE_V1.0.2/MSDK/ble/app\app_adapter_mgr.c ****     cfg.att_cfg = 0;
 138:C:/Users/stapi/OneDrive/Desktop/GD32VW553/GD32VW55X_Wifi_BLE_SDK/GD32VW55x_RELEASE_V1.0.2/MSDK/ble/app\app_adapter_mgr.c ****     SETF(cfg.att_cfg, BLE_GAP_ATT_CLI_DIS_AUTO_MTU_EXCH, 1);
 139:C:/Users/stapi/OneDrive/Desktop/GD32VW553/GD32VW55X_Wifi_BLE_SDK/GD32VW55x_RELEASE_V1.0.2/MSDK/ble/app\app_adapter_mgr.c ****     SETF(cfg.att_cfg, BLE_GAP_ATT_CLI_DIS_AUTO_FEAT_EN, 1);
 140:C:/Users/stapi/OneDrive/Desktop/GD32VW553/GD32VW55X_Wifi_BLE_SDK/GD32VW55x_RELEASE_V1.0.2/MSDK/ble/app\app_adapter_mgr.c ****     SETF(cfg.att_cfg, BLE_GAP_ATT_CLI_DIS_AUTO_EATT, 1);
 141:C:/Users/stapi/OneDrive/Desktop/GD32VW553/GD32VW55X_Wifi_BLE_SDK/GD32VW55x_RELEASE_V1.0.2/MSDK/ble/app\app_adapter_mgr.c **** 
 142:C:/Users/stapi/OneDrive/Desktop/GD32VW553/GD32VW55X_Wifi_BLE_SDK/GD32VW55x_RELEASE_V1.0.2/MSDK/ble/app\app_adapter_mgr.c ****     SETF(cfg.att_cfg, BLE_GAP_ATT_SLV_PREF_CON_PAR_EN, 1);
 143:C:/Users/stapi/OneDrive/Desktop/GD32VW553/GD32VW55X_Wifi_BLE_SDK/GD32VW55x_RELEASE_V1.0.2/MSDK/ble/app\app_adapter_mgr.c ****     SETF(cfg.att_cfg, BLE_GAP_ATT_NAME_PERM, BLE_GAP_WRITE_NOT_ENC);
 144:C:/Users/stapi/OneDrive/Desktop/GD32VW553/GD32VW55X_Wifi_BLE_SDK/GD32VW55x_RELEASE_V1.0.2/MSDK/ble/app\app_adapter_mgr.c ****     SETF(cfg.att_cfg, BLE_GAP_ATT_APPEARENCE_PERM, BLE_GAP_WRITE_NOT_ENC);
 145:C:/Users/stapi/OneDrive/Desktop/GD32VW553/GD32VW55X_Wifi_BLE_SDK/GD32VW55x_RELEASE_V1.0.2/MSDK/ble/app\app_adapter_mgr.c **** 
 146:C:/Users/stapi/OneDrive/Desktop/GD32VW553/GD32VW55X_Wifi_BLE_SDK/GD32VW55x_RELEASE_V1.0.2/MSDK/ble/app\app_adapter_mgr.c ****     cfg.privacy_cfg = BLE_GAP_PRIV_CFG_PRIV_EN_BIT;
 147:C:/Users/stapi/OneDrive/Desktop/GD32VW553/GD32VW55X_Wifi_BLE_SDK/GD32VW55x_RELEASE_V1.0.2/MSDK/ble/app\app_adapter_mgr.c **** 
 148:C:/Users/stapi/OneDrive/Desktop/GD32VW553/GD32VW55X_Wifi_BLE_SDK/GD32VW55x_RELEASE_V1.0.2/MSDK/ble/app\app_adapter_mgr.c ****     ble_adp_cfg(&cfg);
  38              		.loc 1 148 5 is_stmt 0
  39 0020 4800     		addi	a0,sp,4
 132:C:/Users/stapi/OneDrive/Desktop/GD32VW553/GD32VW55X_Wifi_BLE_SDK/GD32VW55x_RELEASE_V1.0.2/MSDK/ble/app\app_adapter_mgr.c **** #endif
  40              		.loc 1 132 14
  41 0022 93E7F700 		ori	a5,a5,15
  42 0026 A302F100 		sb	a5,5(sp)
 135:C:/Users/stapi/OneDrive/Desktop/GD32VW553/GD32VW55X_Wifi_BLE_SDK/GD32VW55x_RELEASE_V1.0.2/MSDK/ble/app\app_adapter_mgr.c **** 
  43              		.loc 1 135 5 is_stmt 1
 137:C:/Users/stapi/OneDrive/Desktop/GD32VW553/GD32VW55X_Wifi_BLE_SDK/GD32VW55x_RELEASE_V1.0.2/MSDK/ble/app\app_adapter_mgr.c ****     SETF(cfg.att_cfg, BLE_GAP_ATT_CLI_DIS_AUTO_MTU_EXCH, 1);
  44              		.loc 1 137 5
 138:C:/Users/stapi/OneDrive/Desktop/GD32VW553/GD32VW55X_Wifi_BLE_SDK/GD32VW55x_RELEASE_V1.0.2/MSDK/ble/app\app_adapter_mgr.c ****     SETF(cfg.att_cfg, BLE_GAP_ATT_CLI_DIS_AUTO_FEAT_EN, 1);
  45              		.loc 1 138 5
 138:C:/Users/stapi/OneDrive/Desktop/GD32VW553/GD32VW55X_Wifi_BLE_SDK/GD32VW55x_RELEASE_V1.0.2/MSDK/ble/app\app_adapter_mgr.c ****     SETF(cfg.att_cfg, BLE_GAP_ATT_CLI_DIS_AUTO_FEAT_EN, 1);
  46              		.loc 1 138 5
 138:C:/Users/stapi/OneDrive/Desktop/GD32VW553/GD32VW55X_Wifi_BLE_SDK/GD32VW55x_RELEASE_V1.0.2/MSDK/ble/app\app_adapter_mgr.c ****     SETF(cfg.att_cfg, BLE_GAP_ATT_CLI_DIS_AUTO_FEAT_EN, 1);
  47              		.loc 1 138 5
 139:C:/Users/stapi/OneDrive/Desktop/GD32VW553/GD32VW55X_Wifi_BLE_SDK/GD32VW55x_RELEASE_V1.0.2/MSDK/ble/app\app_adapter_mgr.c ****     SETF(cfg.att_cfg, BLE_GAP_ATT_CLI_DIS_AUTO_EATT, 1);
  48              		.loc 1 139 5
 139:C:/Users/stapi/OneDrive/Desktop/GD32VW553/GD32VW55X_Wifi_BLE_SDK/GD32VW55x_RELEASE_V1.0.2/MSDK/ble/app\app_adapter_mgr.c ****     SETF(cfg.att_cfg, BLE_GAP_ATT_CLI_DIS_AUTO_EATT, 1);
  49              		.loc 1 139 5
 139:C:/Users/stapi/OneDrive/Desktop/GD32VW553/GD32VW55X_Wifi_BLE_SDK/GD32VW55x_RELEASE_V1.0.2/MSDK/ble/app\app_adapter_mgr.c ****     SETF(cfg.att_cfg, BLE_GAP_ATT_CLI_DIS_AUTO_EATT, 1);
  50              		.loc 1 139 5
 140:C:/Users/stapi/OneDrive/Desktop/GD32VW553/GD32VW55X_Wifi_BLE_SDK/GD32VW55x_RELEASE_V1.0.2/MSDK/ble/app\app_adapter_mgr.c **** 
  51              		.loc 1 140 5
 140:C:/Users/stapi/OneDrive/Desktop/GD32VW553/GD32VW55X_Wifi_BLE_SDK/GD32VW55x_RELEASE_V1.0.2/MSDK/ble/app\app_adapter_mgr.c **** 
  52              		.loc 1 140 5
 140:C:/Users/stapi/OneDrive/Desktop/GD32VW553/GD32VW55X_Wifi_BLE_SDK/GD32VW55x_RELEASE_V1.0.2/MSDK/ble/app\app_adapter_mgr.c **** 
  53              		.loc 1 140 5
 142:C:/Users/stapi/OneDrive/Desktop/GD32VW553/GD32VW55X_Wifi_BLE_SDK/GD32VW55x_RELEASE_V1.0.2/MSDK/ble/app\app_adapter_mgr.c ****     SETF(cfg.att_cfg, BLE_GAP_ATT_NAME_PERM, BLE_GAP_WRITE_NOT_ENC);
  54              		.loc 1 142 5
 142:C:/Users/stapi/OneDrive/Desktop/GD32VW553/GD32VW55X_Wifi_BLE_SDK/GD32VW55x_RELEASE_V1.0.2/MSDK/ble/app\app_adapter_mgr.c ****     SETF(cfg.att_cfg, BLE_GAP_ATT_NAME_PERM, BLE_GAP_WRITE_NOT_ENC);
  55              		.loc 1 142 5
 142:C:/Users/stapi/OneDrive/Desktop/GD32VW553/GD32VW55X_Wifi_BLE_SDK/GD32VW55x_RELEASE_V1.0.2/MSDK/ble/app\app_adapter_mgr.c ****     SETF(cfg.att_cfg, BLE_GAP_ATT_NAME_PERM, BLE_GAP_WRITE_NOT_ENC);
  56              		.loc 1 142 5
 143:C:/Users/stapi/OneDrive/Desktop/GD32VW553/GD32VW55X_Wifi_BLE_SDK/GD32VW55x_RELEASE_V1.0.2/MSDK/ble/app\app_adapter_mgr.c ****     SETF(cfg.att_cfg, BLE_GAP_ATT_APPEARENCE_PERM, BLE_GAP_WRITE_NOT_ENC);
  57              		.loc 1 143 5
 143:C:/Users/stapi/OneDrive/Desktop/GD32VW553/GD32VW55X_Wifi_BLE_SDK/GD32VW55x_RELEASE_V1.0.2/MSDK/ble/app\app_adapter_mgr.c ****     SETF(cfg.att_cfg, BLE_GAP_ATT_APPEARENCE_PERM, BLE_GAP_WRITE_NOT_ENC);
  58              		.loc 1 143 5
 143:C:/Users/stapi/OneDrive/Desktop/GD32VW553/GD32VW55X_Wifi_BLE_SDK/GD32VW55x_RELEASE_V1.0.2/MSDK/ble/app\app_adapter_mgr.c ****     SETF(cfg.att_cfg, BLE_GAP_ATT_APPEARENCE_PERM, BLE_GAP_WRITE_NOT_ENC);
  59              		.loc 1 143 5
 144:C:/Users/stapi/OneDrive/Desktop/GD32VW553/GD32VW55X_Wifi_BLE_SDK/GD32VW55x_RELEASE_V1.0.2/MSDK/ble/app\app_adapter_mgr.c **** 
  60              		.loc 1 144 5
 144:C:/Users/stapi/OneDrive/Desktop/GD32VW553/GD32VW55X_Wifi_BLE_SDK/GD32VW55x_RELEASE_V1.0.2/MSDK/ble/app\app_adapter_mgr.c **** 
  61              		.loc 1 144 5
 144:C:/Users/stapi/OneDrive/Desktop/GD32VW553/GD32VW55X_Wifi_BLE_SDK/GD32VW55x_RELEASE_V1.0.2/MSDK/ble/app\app_adapter_mgr.c **** 
  62              		.loc 1 144 5
 146:C:/Users/stapi/OneDrive/Desktop/GD32VW553/GD32VW55X_Wifi_BLE_SDK/GD32VW55x_RELEASE_V1.0.2/MSDK/ble/app\app_adapter_mgr.c **** 
  63              		.loc 1 146 5
 135:C:/Users/stapi/OneDrive/Desktop/GD32VW553/GD32VW55X_Wifi_BLE_SDK/GD32VW55x_RELEASE_V1.0.2/MSDK/ble/app\app_adapter_mgr.c **** 
  64              		.loc 1 135 22 is_stmt 0
  65 002a 93073040 		li	a5,1027
  66 002e 2313F100 		sh	a5,6(sp)
 144:C:/Users/stapi/OneDrive/Desktop/GD32VW553/GD32VW55X_Wifi_BLE_SDK/GD32VW55x_RELEASE_V1.0.2/MSDK/ble/app\app_adapter_mgr.c **** 
  67              		.loc 1 144 5
  68 0032 9307903C 		li	a5,969
  69 0036 2314F100 		sh	a5,8(sp)
  70              		.loc 1 148 5 is_stmt 1
  71 003a 97000000 		call	ble_adp_cfg
  71      E7800000 
  72              	.LVL1:
 149:C:/Users/stapi/OneDrive/Desktop/GD32VW553/GD32VW55X_Wifi_BLE_SDK/GD32VW55x_RELEASE_V1.0.2/MSDK/ble/app\app_adapter_mgr.c **** }
  73              		.loc 1 149 1 is_stmt 0
  74 0042 4101     		addi	sp,sp,16
  75              		.cfi_def_cfa_offset 0
  76 0044 17030000 		tail	__riscv_restore_0
  76      67000300 
  77              		.cfi_restore 1
  78              		.cfi_def_cfa_offset -16
  79              		.cfi_endproc
  80              	.LFE22:
  82              		.section	.rodata.ble_adp_evt_handler.str1.4,"aMS",@progbits,1
  83              		.align	2
  84              	.LC0:
  85 0000 3D3D3D20 		.string	"=== Adapter enable success ===\r\n"
  85      41646170 
  85      74657220 
  85      656E6162 
  85      6C652073 
  86 0021 000000   		.align	2
  87              	.LC1:
  88 0024 6863695F 		.string	"hci_ver 0x%x, hci_subver 0x%x, lmp_ver 0x%x, lmp_subver 0x%x, manuf_name 0x%x\r\n"
  88      76657220 
  88      30782578 
  88      2C206863 
  88      695F7375 
  89              		.align	2
  90              	.LC2:
  91 0074 6164765F 		.string	"adv_set_num %u, min_tx_pwr %d, max_tx_pwr %d, max_adv_data_len %d \r\n"
  91      7365745F 
  91      6E756D20 
  91      25752C20 
  91      6D696E5F 
  92 00b9 000000   		.align	2
  93              	.LC3:
  94 00bc 73756767 		.string	"sugg_max_tx_octets %u, sugg_max_tx_time %u \r\n"
  94      5F6D6178 
  94      5F74785F 
  94      6F637465 
  94      74732025 
  95 00ea 0000     		.align	2
  96              	.LC4:
  97 00ec 6C6F6320 		.string	"loc irk:"
  97      69726B3A 
  97      00
  98 00f5 000000   		.align	2
  99              	.LC5:
 100 00f8 20253032 		.string	" %02x"
 100      7800
 101 00fe 0000     		.align	2
 102              	.LC6:
 103 0100 0D0A00   		.string	"\r\n"
 104 0103 00       		.align	2
 105              	.LC7:
 106 0104 6964656E 		.string	"identity addr %02X:%02X:%02X:%02X:%02X:%02X \r\n "
 106      74697479 
 106      20616464 
 106      72202530 
 106      32583A25 
 107              		.align	2
 108              	.LC8:
 109 0134 3D3D3D20 		.string	"=== BLE Adapter enable complete ===\r\n"
 109      424C4520 
 109      41646170 
 109      74657220 
 109      656E6162 
 110 015a 0000     		.align	2
 111              	.LC9:
 112 015c 47442D42 		.string	"GD-BLE"
 112      4C4500
 113 0163 00       		.align	2
 114              	.LC10:
 115 0164 25732D25 		.string	"%s-%02x:%02x:%02x:%02x:%02x:%02x"
 115      3032783A 
 115      25303278 
 115      3A253032 
 115      783A2530 
 116 0185 000000   		.align	2
 117              	.LC11:
 118 0188 626C6520 		.string	"ble disable success\r\n"
 118      64697361 
 118      626C6520 
 118      73756363 
 118      6573730D 
 119 019e 0000     		.align	2
 120              	.LC12:
 121 01a0 424C4520 		.string	"BLE local addr: %02X:%02X:%02X:%02X:%02X:%02X, type 0x%x\r\n"
 121      6C6F6361 
 121      6C206164 
 121      64723A20 
 121      25303258 
 122 01db 00       		.align	2
 123              	.LC13:
 124 01dc 424C4520 		.string	"BLE generated random addr: %02X:%02X:%02X:%02X:%02X:%02X\r\n"
 124      67656E65 
 124      72617465 
 124      64207261 
 124      6E646F6D 
 125 0217 00       		.align	2
 126              	.LC14:
 127 0218 6C652074 		.string	"le test end, status 0x%x\r\n"
 127      65737420 
 127      656E642C 
 127      20737461 
 127      74757320 
 128 0233 00       		.align	2
 129              	.LC15:
 130 0234 6C652074 		.string	"le test rx received pkt num: %d\r\n"
 130      65737420 
 130      72782072 
 130      65636569 
 130      76656420 
 131 0256 0000     		.align	2
 132              	.LC16:
 133 0258 626C6520 		.string	"ble test tx status %x\r\n"
 133      74657374 
 133      20747820 
 133      73746174 
 133      75732025 
 134              		.align	2
 135              	.LC17:
 136 0270 626C6520 		.string	"ble test rx status %x\r\n"
 136      74657374 
 136      20727820 
 136      73746174 
 136      75732025 
 137              		.section	.text.ble_adp_evt_handler,"ax",@progbits
 138              		.align	1
 140              	ble_adp_evt_handler:
 141              	.LFB29:
 150:C:/Users/stapi/OneDrive/Desktop/GD32VW553/GD32VW55X_Wifi_BLE_SDK/GD32VW55x_RELEASE_V1.0.2/MSDK/ble/app\app_adapter_mgr.c **** 
 151:C:/Users/stapi/OneDrive/Desktop/GD32VW553/GD32VW55X_Wifi_BLE_SDK/GD32VW55x_RELEASE_V1.0.2/MSDK/ble/app\app_adapter_mgr.c **** /*!
 152:C:/Users/stapi/OneDrive/Desktop/GD32VW553/GD32VW55X_Wifi_BLE_SDK/GD32VW55x_RELEASE_V1.0.2/MSDK/ble/app\app_adapter_mgr.c ****     \brief      Reset BLE profiles
 153:C:/Users/stapi/OneDrive/Desktop/GD32VW553/GD32VW55X_Wifi_BLE_SDK/GD32VW55x_RELEASE_V1.0.2/MSDK/ble/app\app_adapter_mgr.c ****     \param[in]  none
 154:C:/Users/stapi/OneDrive/Desktop/GD32VW553/GD32VW55X_Wifi_BLE_SDK/GD32VW55x_RELEASE_V1.0.2/MSDK/ble/app\app_adapter_mgr.c ****     \param[out] none
 155:C:/Users/stapi/OneDrive/Desktop/GD32VW553/GD32VW55X_Wifi_BLE_SDK/GD32VW55x_RELEASE_V1.0.2/MSDK/ble/app\app_adapter_mgr.c ****     \retval     none
 156:C:/Users/stapi/OneDrive/Desktop/GD32VW553/GD32VW55X_Wifi_BLE_SDK/GD32VW55x_RELEASE_V1.0.2/MSDK/ble/app\app_adapter_mgr.c **** */
 157:C:/Users/stapi/OneDrive/Desktop/GD32VW553/GD32VW55X_Wifi_BLE_SDK/GD32VW55x_RELEASE_V1.0.2/MSDK/ble/app\app_adapter_mgr.c **** static void app_profile_reset(void)
 158:C:/Users/stapi/OneDrive/Desktop/GD32VW553/GD32VW55X_Wifi_BLE_SDK/GD32VW55x_RELEASE_V1.0.2/MSDK/ble/app\app_adapter_mgr.c **** {
 159:C:/Users/stapi/OneDrive/Desktop/GD32VW553/GD32VW55X_Wifi_BLE_SDK/GD32VW55x_RELEASE_V1.0.2/MSDK/ble/app\app_adapter_mgr.c **** #if BLE_PROFILE_DIS_SERVER
 160:C:/Users/stapi/OneDrive/Desktop/GD32VW553/GD32VW55X_Wifi_BLE_SDK/GD32VW55x_RELEASE_V1.0.2/MSDK/ble/app\app_adapter_mgr.c ****     ble_app_diss_init();
 161:C:/Users/stapi/OneDrive/Desktop/GD32VW553/GD32VW55X_Wifi_BLE_SDK/GD32VW55x_RELEASE_V1.0.2/MSDK/ble/app\app_adapter_mgr.c **** #endif
 162:C:/Users/stapi/OneDrive/Desktop/GD32VW553/GD32VW55X_Wifi_BLE_SDK/GD32VW55x_RELEASE_V1.0.2/MSDK/ble/app\app_adapter_mgr.c **** 
 163:C:/Users/stapi/OneDrive/Desktop/GD32VW553/GD32VW55X_Wifi_BLE_SDK/GD32VW55x_RELEASE_V1.0.2/MSDK/ble/app\app_adapter_mgr.c **** #if BLE_PROFILE_SAMPLE_SERVER
 164:C:/Users/stapi/OneDrive/Desktop/GD32VW553/GD32VW55X_Wifi_BLE_SDK/GD32VW55x_RELEASE_V1.0.2/MSDK/ble/app\app_adapter_mgr.c ****     ble_sample_srv_init();
 165:C:/Users/stapi/OneDrive/Desktop/GD32VW553/GD32VW55X_Wifi_BLE_SDK/GD32VW55x_RELEASE_V1.0.2/MSDK/ble/app\app_adapter_mgr.c **** #endif
 166:C:/Users/stapi/OneDrive/Desktop/GD32VW553/GD32VW55X_Wifi_BLE_SDK/GD32VW55x_RELEASE_V1.0.2/MSDK/ble/app\app_adapter_mgr.c **** 
 167:C:/Users/stapi/OneDrive/Desktop/GD32VW553/GD32VW55X_Wifi_BLE_SDK/GD32VW55x_RELEASE_V1.0.2/MSDK/ble/app\app_adapter_mgr.c **** #if BLE_PROFILE_BAS_SERVER
 168:C:/Users/stapi/OneDrive/Desktop/GD32VW553/GD32VW55X_Wifi_BLE_SDK/GD32VW55x_RELEASE_V1.0.2/MSDK/ble/app\app_adapter_mgr.c ****     ble_app_bass_init();
 169:C:/Users/stapi/OneDrive/Desktop/GD32VW553/GD32VW55X_Wifi_BLE_SDK/GD32VW55x_RELEASE_V1.0.2/MSDK/ble/app\app_adapter_mgr.c **** #endif
 170:C:/Users/stapi/OneDrive/Desktop/GD32VW553/GD32VW55X_Wifi_BLE_SDK/GD32VW55x_RELEASE_V1.0.2/MSDK/ble/app\app_adapter_mgr.c **** 
 171:C:/Users/stapi/OneDrive/Desktop/GD32VW553/GD32VW55X_Wifi_BLE_SDK/GD32VW55x_RELEASE_V1.0.2/MSDK/ble/app\app_adapter_mgr.c **** #if BLE_PROFILE_CSCS_SERVER
 172:C:/Users/stapi/OneDrive/Desktop/GD32VW553/GD32VW55X_Wifi_BLE_SDK/GD32VW55x_RELEASE_V1.0.2/MSDK/ble/app\app_adapter_mgr.c ****     ble_app_cscss_init();
 173:C:/Users/stapi/OneDrive/Desktop/GD32VW553/GD32VW55X_Wifi_BLE_SDK/GD32VW55x_RELEASE_V1.0.2/MSDK/ble/app\app_adapter_mgr.c **** #endif
 174:C:/Users/stapi/OneDrive/Desktop/GD32VW553/GD32VW55X_Wifi_BLE_SDK/GD32VW55x_RELEASE_V1.0.2/MSDK/ble/app\app_adapter_mgr.c **** 
 175:C:/Users/stapi/OneDrive/Desktop/GD32VW553/GD32VW55X_Wifi_BLE_SDK/GD32VW55x_RELEASE_V1.0.2/MSDK/ble/app\app_adapter_mgr.c **** #if BLE_PROFILE_BLUE_COURIER_SERVER
 176:C:/Users/stapi/OneDrive/Desktop/GD32VW553/GD32VW55X_Wifi_BLE_SDK/GD32VW55x_RELEASE_V1.0.2/MSDK/ble/app\app_adapter_mgr.c ****     app_blue_courier_init();
 177:C:/Users/stapi/OneDrive/Desktop/GD32VW553/GD32VW55X_Wifi_BLE_SDK/GD32VW55x_RELEASE_V1.0.2/MSDK/ble/app\app_adapter_mgr.c **** #endif
 178:C:/Users/stapi/OneDrive/Desktop/GD32VW553/GD32VW55X_Wifi_BLE_SDK/GD32VW55x_RELEASE_V1.0.2/MSDK/ble/app\app_adapter_mgr.c **** 
 179:C:/Users/stapi/OneDrive/Desktop/GD32VW553/GD32VW55X_Wifi_BLE_SDK/GD32VW55x_RELEASE_V1.0.2/MSDK/ble/app\app_adapter_mgr.c **** #if BLE_PROFILE_THROUGHPUT_SERVER
 180:C:/Users/stapi/OneDrive/Desktop/GD32VW553/GD32VW55X_Wifi_BLE_SDK/GD32VW55x_RELEASE_V1.0.2/MSDK/ble/app\app_adapter_mgr.c ****     ble_throughput_srv_init();
 181:C:/Users/stapi/OneDrive/Desktop/GD32VW553/GD32VW55X_Wifi_BLE_SDK/GD32VW55x_RELEASE_V1.0.2/MSDK/ble/app\app_adapter_mgr.c **** #endif
 182:C:/Users/stapi/OneDrive/Desktop/GD32VW553/GD32VW55X_Wifi_BLE_SDK/GD32VW55x_RELEASE_V1.0.2/MSDK/ble/app\app_adapter_mgr.c **** }
 183:C:/Users/stapi/OneDrive/Desktop/GD32VW553/GD32VW55X_Wifi_BLE_SDK/GD32VW55x_RELEASE_V1.0.2/MSDK/ble/app\app_adapter_mgr.c **** 
 184:C:/Users/stapi/OneDrive/Desktop/GD32VW553/GD32VW55X_Wifi_BLE_SDK/GD32VW55x_RELEASE_V1.0.2/MSDK/ble/app\app_adapter_mgr.c **** /*!
 185:C:/Users/stapi/OneDrive/Desktop/GD32VW553/GD32VW55X_Wifi_BLE_SDK/GD32VW55x_RELEASE_V1.0.2/MSDK/ble/app\app_adapter_mgr.c ****     \brief      Reset BLE app modules and profiles, this function is called after BLE stack is rese
 186:C:/Users/stapi/OneDrive/Desktop/GD32VW553/GD32VW55X_Wifi_BLE_SDK/GD32VW55x_RELEASE_V1.0.2/MSDK/ble/app\app_adapter_mgr.c ****     \param[in]  none
 187:C:/Users/stapi/OneDrive/Desktop/GD32VW553/GD32VW55X_Wifi_BLE_SDK/GD32VW55x_RELEASE_V1.0.2/MSDK/ble/app\app_adapter_mgr.c ****     \param[out] none
 188:C:/Users/stapi/OneDrive/Desktop/GD32VW553/GD32VW55X_Wifi_BLE_SDK/GD32VW55x_RELEASE_V1.0.2/MSDK/ble/app\app_adapter_mgr.c ****     \retval     none
 189:C:/Users/stapi/OneDrive/Desktop/GD32VW553/GD32VW55X_Wifi_BLE_SDK/GD32VW55x_RELEASE_V1.0.2/MSDK/ble/app\app_adapter_mgr.c **** */
 190:C:/Users/stapi/OneDrive/Desktop/GD32VW553/GD32VW55X_Wifi_BLE_SDK/GD32VW55x_RELEASE_V1.0.2/MSDK/ble/app\app_adapter_mgr.c **** static void app_reset(void)
 191:C:/Users/stapi/OneDrive/Desktop/GD32VW553/GD32VW55X_Wifi_BLE_SDK/GD32VW55x_RELEASE_V1.0.2/MSDK/ble/app\app_adapter_mgr.c **** {
 192:C:/Users/stapi/OneDrive/Desktop/GD32VW553/GD32VW55X_Wifi_BLE_SDK/GD32VW55x_RELEASE_V1.0.2/MSDK/ble/app\app_adapter_mgr.c **** #if (BLE_CFG_ROLE & (BLE_CFG_ROLE_BROADCASTER | BLE_CFG_ROLE_PERIPHERAL))
 193:C:/Users/stapi/OneDrive/Desktop/GD32VW553/GD32VW55X_Wifi_BLE_SDK/GD32VW55x_RELEASE_V1.0.2/MSDK/ble/app\app_adapter_mgr.c ****     app_adv_mgr_reset();
 194:C:/Users/stapi/OneDrive/Desktop/GD32VW553/GD32VW55X_Wifi_BLE_SDK/GD32VW55x_RELEASE_V1.0.2/MSDK/ble/app\app_adapter_mgr.c **** #endif
 195:C:/Users/stapi/OneDrive/Desktop/GD32VW553/GD32VW55X_Wifi_BLE_SDK/GD32VW55x_RELEASE_V1.0.2/MSDK/ble/app\app_adapter_mgr.c **** 
 196:C:/Users/stapi/OneDrive/Desktop/GD32VW553/GD32VW55X_Wifi_BLE_SDK/GD32VW55x_RELEASE_V1.0.2/MSDK/ble/app\app_adapter_mgr.c **** #if (BLE_CFG_ROLE & (BLE_CFG_ROLE_PERIPHERAL | BLE_CFG_ROLE_CENTRAL))
 197:C:/Users/stapi/OneDrive/Desktop/GD32VW553/GD32VW55X_Wifi_BLE_SDK/GD32VW55x_RELEASE_V1.0.2/MSDK/ble/app\app_adapter_mgr.c ****     app_sec_mgr_reset();
 198:C:/Users/stapi/OneDrive/Desktop/GD32VW553/GD32VW55X_Wifi_BLE_SDK/GD32VW55x_RELEASE_V1.0.2/MSDK/ble/app\app_adapter_mgr.c ****     app_conn_mgr_reset();
 199:C:/Users/stapi/OneDrive/Desktop/GD32VW553/GD32VW55X_Wifi_BLE_SDK/GD32VW55x_RELEASE_V1.0.2/MSDK/ble/app\app_adapter_mgr.c **** #endif
 200:C:/Users/stapi/OneDrive/Desktop/GD32VW553/GD32VW55X_Wifi_BLE_SDK/GD32VW55x_RELEASE_V1.0.2/MSDK/ble/app\app_adapter_mgr.c **** 
 201:C:/Users/stapi/OneDrive/Desktop/GD32VW553/GD32VW55X_Wifi_BLE_SDK/GD32VW55x_RELEASE_V1.0.2/MSDK/ble/app\app_adapter_mgr.c ****     app_list_mgr_reset();
 202:C:/Users/stapi/OneDrive/Desktop/GD32VW553/GD32VW55X_Wifi_BLE_SDK/GD32VW55x_RELEASE_V1.0.2/MSDK/ble/app\app_adapter_mgr.c **** 
 203:C:/Users/stapi/OneDrive/Desktop/GD32VW553/GD32VW55X_Wifi_BLE_SDK/GD32VW55x_RELEASE_V1.0.2/MSDK/ble/app\app_adapter_mgr.c ****     app_l2cap_reset();
 204:C:/Users/stapi/OneDrive/Desktop/GD32VW553/GD32VW55X_Wifi_BLE_SDK/GD32VW55x_RELEASE_V1.0.2/MSDK/ble/app\app_adapter_mgr.c **** 
 205:C:/Users/stapi/OneDrive/Desktop/GD32VW553/GD32VW55X_Wifi_BLE_SDK/GD32VW55x_RELEASE_V1.0.2/MSDK/ble/app\app_adapter_mgr.c ****     app_dm_reset();
 206:C:/Users/stapi/OneDrive/Desktop/GD32VW553/GD32VW55X_Wifi_BLE_SDK/GD32VW55x_RELEASE_V1.0.2/MSDK/ble/app\app_adapter_mgr.c **** 
 207:C:/Users/stapi/OneDrive/Desktop/GD32VW553/GD32VW55X_Wifi_BLE_SDK/GD32VW55x_RELEASE_V1.0.2/MSDK/ble/app\app_adapter_mgr.c **** #if (BLE_CFG_ROLE & (BLE_CFG_ROLE_OBSERVER | BLE_CFG_ROLE_CENTRAL))
 208:C:/Users/stapi/OneDrive/Desktop/GD32VW553/GD32VW55X_Wifi_BLE_SDK/GD32VW55x_RELEASE_V1.0.2/MSDK/ble/app\app_adapter_mgr.c ****     app_scan_mgr_reset();
 209:C:/Users/stapi/OneDrive/Desktop/GD32VW553/GD32VW55X_Wifi_BLE_SDK/GD32VW55x_RELEASE_V1.0.2/MSDK/ble/app\app_adapter_mgr.c **** #endif
 210:C:/Users/stapi/OneDrive/Desktop/GD32VW553/GD32VW55X_Wifi_BLE_SDK/GD32VW55x_RELEASE_V1.0.2/MSDK/ble/app\app_adapter_mgr.c **** 
 211:C:/Users/stapi/OneDrive/Desktop/GD32VW553/GD32VW55X_Wifi_BLE_SDK/GD32VW55x_RELEASE_V1.0.2/MSDK/ble/app\app_adapter_mgr.c **** #if (BLE_APP_PER_ADV_SUPPORT)
 212:C:/Users/stapi/OneDrive/Desktop/GD32VW553/GD32VW55X_Wifi_BLE_SDK/GD32VW55x_RELEASE_V1.0.2/MSDK/ble/app\app_adapter_mgr.c ****     app_per_sync_mgr_reset();
 213:C:/Users/stapi/OneDrive/Desktop/GD32VW553/GD32VW55X_Wifi_BLE_SDK/GD32VW55x_RELEASE_V1.0.2/MSDK/ble/app\app_adapter_mgr.c **** #endif
 214:C:/Users/stapi/OneDrive/Desktop/GD32VW553/GD32VW55X_Wifi_BLE_SDK/GD32VW55x_RELEASE_V1.0.2/MSDK/ble/app\app_adapter_mgr.c **** 
 215:C:/Users/stapi/OneDrive/Desktop/GD32VW553/GD32VW55X_Wifi_BLE_SDK/GD32VW55x_RELEASE_V1.0.2/MSDK/ble/app\app_adapter_mgr.c ****     ble_adp_loc_irk_get(app_env.loc_irk);
 216:C:/Users/stapi/OneDrive/Desktop/GD32VW553/GD32VW55X_Wifi_BLE_SDK/GD32VW55x_RELEASE_V1.0.2/MSDK/ble/app\app_adapter_mgr.c ****     ble_adp_name_set((uint8_t *)app_env.adapter_name, strlen((char *)app_env.adapter_name));
 217:C:/Users/stapi/OneDrive/Desktop/GD32VW553/GD32VW55X_Wifi_BLE_SDK/GD32VW55x_RELEASE_V1.0.2/MSDK/ble/app\app_adapter_mgr.c **** 
 218:C:/Users/stapi/OneDrive/Desktop/GD32VW553/GD32VW55X_Wifi_BLE_SDK/GD32VW55x_RELEASE_V1.0.2/MSDK/ble/app\app_adapter_mgr.c ****     app_profile_reset();
 219:C:/Users/stapi/OneDrive/Desktop/GD32VW553/GD32VW55X_Wifi_BLE_SDK/GD32VW55x_RELEASE_V1.0.2/MSDK/ble/app\app_adapter_mgr.c **** }
 220:C:/Users/stapi/OneDrive/Desktop/GD32VW553/GD32VW55X_Wifi_BLE_SDK/GD32VW55x_RELEASE_V1.0.2/MSDK/ble/app\app_adapter_mgr.c **** 
 221:C:/Users/stapi/OneDrive/Desktop/GD32VW553/GD32VW55X_Wifi_BLE_SDK/GD32VW55x_RELEASE_V1.0.2/MSDK/ble/app\app_adapter_mgr.c **** /*!
 222:C:/Users/stapi/OneDrive/Desktop/GD32VW553/GD32VW55X_Wifi_BLE_SDK/GD32VW55x_RELEASE_V1.0.2/MSDK/ble/app\app_adapter_mgr.c ****     \brief      Callback function to handle @ref BLE_ADP_EVT_LOC_ADDR_INFO event
 223:C:/Users/stapi/OneDrive/Desktop/GD32VW553/GD32VW55X_Wifi_BLE_SDK/GD32VW55x_RELEASE_V1.0.2/MSDK/ble/app\app_adapter_mgr.c ****     \param[in]  p_info: pointer to local address information
 224:C:/Users/stapi/OneDrive/Desktop/GD32VW553/GD32VW55X_Wifi_BLE_SDK/GD32VW55x_RELEASE_V1.0.2/MSDK/ble/app\app_adapter_mgr.c ****     \param[out] none
 225:C:/Users/stapi/OneDrive/Desktop/GD32VW553/GD32VW55X_Wifi_BLE_SDK/GD32VW55x_RELEASE_V1.0.2/MSDK/ble/app\app_adapter_mgr.c ****     \retval     none
 226:C:/Users/stapi/OneDrive/Desktop/GD32VW553/GD32VW55X_Wifi_BLE_SDK/GD32VW55x_RELEASE_V1.0.2/MSDK/ble/app\app_adapter_mgr.c **** */
 227:C:/Users/stapi/OneDrive/Desktop/GD32VW553/GD32VW55X_Wifi_BLE_SDK/GD32VW55x_RELEASE_V1.0.2/MSDK/ble/app\app_adapter_mgr.c **** static void app_local_addr_hdlr(ble_gap_local_addr_info_t *p_info)
 228:C:/Users/stapi/OneDrive/Desktop/GD32VW553/GD32VW55X_Wifi_BLE_SDK/GD32VW55x_RELEASE_V1.0.2/MSDK/ble/app\app_adapter_mgr.c **** {
 229:C:/Users/stapi/OneDrive/Desktop/GD32VW553/GD32VW55X_Wifi_BLE_SDK/GD32VW55x_RELEASE_V1.0.2/MSDK/ble/app\app_adapter_mgr.c ****     dbg_print(NOTICE, "BLE local addr: %02X:%02X:%02X:%02X:%02X:%02X, type 0x%x\r\n",
 230:C:/Users/stapi/OneDrive/Desktop/GD32VW553/GD32VW55X_Wifi_BLE_SDK/GD32VW55x_RELEASE_V1.0.2/MSDK/ble/app\app_adapter_mgr.c ****            p_info->addr.addr[5], p_info->addr.addr[4], p_info->addr.addr[3],
 231:C:/Users/stapi/OneDrive/Desktop/GD32VW553/GD32VW55X_Wifi_BLE_SDK/GD32VW55x_RELEASE_V1.0.2/MSDK/ble/app\app_adapter_mgr.c ****            p_info->addr.addr[2], p_info->addr.addr[1], p_info->addr.addr[0],
 232:C:/Users/stapi/OneDrive/Desktop/GD32VW553/GD32VW55X_Wifi_BLE_SDK/GD32VW55x_RELEASE_V1.0.2/MSDK/ble/app\app_adapter_mgr.c ****            p_info->addr.addr_type);
 233:C:/Users/stapi/OneDrive/Desktop/GD32VW553/GD32VW55X_Wifi_BLE_SDK/GD32VW55x_RELEASE_V1.0.2/MSDK/ble/app\app_adapter_mgr.c **** 
 234:C:/Users/stapi/OneDrive/Desktop/GD32VW553/GD32VW55X_Wifi_BLE_SDK/GD32VW55x_RELEASE_V1.0.2/MSDK/ble/app\app_adapter_mgr.c ****     app_env.id_addr.addr_type = p_info->addr.addr_type;
 235:C:/Users/stapi/OneDrive/Desktop/GD32VW553/GD32VW55X_Wifi_BLE_SDK/GD32VW55x_RELEASE_V1.0.2/MSDK/ble/app\app_adapter_mgr.c ****     memcpy(app_env.id_addr.addr, p_info->addr.addr, BLE_GAP_ADDR_LEN);
 236:C:/Users/stapi/OneDrive/Desktop/GD32VW553/GD32VW55X_Wifi_BLE_SDK/GD32VW55x_RELEASE_V1.0.2/MSDK/ble/app\app_adapter_mgr.c **** }
 237:C:/Users/stapi/OneDrive/Desktop/GD32VW553/GD32VW55X_Wifi_BLE_SDK/GD32VW55x_RELEASE_V1.0.2/MSDK/ble/app\app_adapter_mgr.c **** 
 238:C:/Users/stapi/OneDrive/Desktop/GD32VW553/GD32VW55X_Wifi_BLE_SDK/GD32VW55x_RELEASE_V1.0.2/MSDK/ble/app\app_adapter_mgr.c **** /*!
 239:C:/Users/stapi/OneDrive/Desktop/GD32VW553/GD32VW55X_Wifi_BLE_SDK/GD32VW55x_RELEASE_V1.0.2/MSDK/ble/app\app_adapter_mgr.c ****     \brief      Callback function to handle @ref BLE_ADP_EVT_RAND_ADDR_GEN_RSP event
 240:C:/Users/stapi/OneDrive/Desktop/GD32VW553/GD32VW55X_Wifi_BLE_SDK/GD32VW55x_RELEASE_V1.0.2/MSDK/ble/app\app_adapter_mgr.c ****     \param[in]  p_rsp: pointer to response data of generate random address
 241:C:/Users/stapi/OneDrive/Desktop/GD32VW553/GD32VW55X_Wifi_BLE_SDK/GD32VW55x_RELEASE_V1.0.2/MSDK/ble/app\app_adapter_mgr.c ****     \param[out] none
 242:C:/Users/stapi/OneDrive/Desktop/GD32VW553/GD32VW55X_Wifi_BLE_SDK/GD32VW55x_RELEASE_V1.0.2/MSDK/ble/app\app_adapter_mgr.c ****     \retval     none
 243:C:/Users/stapi/OneDrive/Desktop/GD32VW553/GD32VW55X_Wifi_BLE_SDK/GD32VW55x_RELEASE_V1.0.2/MSDK/ble/app\app_adapter_mgr.c **** */
 244:C:/Users/stapi/OneDrive/Desktop/GD32VW553/GD32VW55X_Wifi_BLE_SDK/GD32VW55x_RELEASE_V1.0.2/MSDK/ble/app\app_adapter_mgr.c **** static void app_random_addr_gen_hdlr(ble_gap_rand_addr_gen_rsp_t *p_rsp)
 245:C:/Users/stapi/OneDrive/Desktop/GD32VW553/GD32VW55X_Wifi_BLE_SDK/GD32VW55x_RELEASE_V1.0.2/MSDK/ble/app\app_adapter_mgr.c **** {
 246:C:/Users/stapi/OneDrive/Desktop/GD32VW553/GD32VW55X_Wifi_BLE_SDK/GD32VW55x_RELEASE_V1.0.2/MSDK/ble/app\app_adapter_mgr.c ****     if (!p_rsp->status) {
 247:C:/Users/stapi/OneDrive/Desktop/GD32VW553/GD32VW55X_Wifi_BLE_SDK/GD32VW55x_RELEASE_V1.0.2/MSDK/ble/app\app_adapter_mgr.c ****         dbg_print(NOTICE, "BLE generated random addr: %02X:%02X:%02X:%02X:%02X:%02X\r\n",
 248:C:/Users/stapi/OneDrive/Desktop/GD32VW553/GD32VW55X_Wifi_BLE_SDK/GD32VW55x_RELEASE_V1.0.2/MSDK/ble/app\app_adapter_mgr.c ****                p_rsp->addr[5], p_rsp->addr[4], p_rsp->addr[3],
 249:C:/Users/stapi/OneDrive/Desktop/GD32VW553/GD32VW55X_Wifi_BLE_SDK/GD32VW55x_RELEASE_V1.0.2/MSDK/ble/app\app_adapter_mgr.c ****                p_rsp->addr[2], p_rsp->addr[1], p_rsp->addr[0]);
 250:C:/Users/stapi/OneDrive/Desktop/GD32VW553/GD32VW55X_Wifi_BLE_SDK/GD32VW55x_RELEASE_V1.0.2/MSDK/ble/app\app_adapter_mgr.c ****     }
 251:C:/Users/stapi/OneDrive/Desktop/GD32VW553/GD32VW55X_Wifi_BLE_SDK/GD32VW55x_RELEASE_V1.0.2/MSDK/ble/app\app_adapter_mgr.c **** }
 252:C:/Users/stapi/OneDrive/Desktop/GD32VW553/GD32VW55X_Wifi_BLE_SDK/GD32VW55x_RELEASE_V1.0.2/MSDK/ble/app\app_adapter_mgr.c **** 
 253:C:/Users/stapi/OneDrive/Desktop/GD32VW553/GD32VW55X_Wifi_BLE_SDK/GD32VW55x_RELEASE_V1.0.2/MSDK/ble/app\app_adapter_mgr.c **** /*!
 254:C:/Users/stapi/OneDrive/Desktop/GD32VW553/GD32VW55X_Wifi_BLE_SDK/GD32VW55x_RELEASE_V1.0.2/MSDK/ble/app\app_adapter_mgr.c ****     \brief      Callback function to handle @ref BLE_ADP_EVT_TEST_END_RSP event
 255:C:/Users/stapi/OneDrive/Desktop/GD32VW553/GD32VW55X_Wifi_BLE_SDK/GD32VW55x_RELEASE_V1.0.2/MSDK/ble/app\app_adapter_mgr.c ****     \param[in]  p_rsp: pointer to BLE test end response data
 256:C:/Users/stapi/OneDrive/Desktop/GD32VW553/GD32VW55X_Wifi_BLE_SDK/GD32VW55x_RELEASE_V1.0.2/MSDK/ble/app\app_adapter_mgr.c ****     \param[out] none
 257:C:/Users/stapi/OneDrive/Desktop/GD32VW553/GD32VW55X_Wifi_BLE_SDK/GD32VW55x_RELEASE_V1.0.2/MSDK/ble/app\app_adapter_mgr.c ****     \retval     none
 258:C:/Users/stapi/OneDrive/Desktop/GD32VW553/GD32VW55X_Wifi_BLE_SDK/GD32VW55x_RELEASE_V1.0.2/MSDK/ble/app\app_adapter_mgr.c **** */
 259:C:/Users/stapi/OneDrive/Desktop/GD32VW553/GD32VW55X_Wifi_BLE_SDK/GD32VW55x_RELEASE_V1.0.2/MSDK/ble/app\app_adapter_mgr.c **** static void app_le_test_ended_hdlr(ble_gap_test_end_rsp_t *p_rsp)
 260:C:/Users/stapi/OneDrive/Desktop/GD32VW553/GD32VW55X_Wifi_BLE_SDK/GD32VW55x_RELEASE_V1.0.2/MSDK/ble/app\app_adapter_mgr.c **** {
 261:C:/Users/stapi/OneDrive/Desktop/GD32VW553/GD32VW55X_Wifi_BLE_SDK/GD32VW55x_RELEASE_V1.0.2/MSDK/ble/app\app_adapter_mgr.c ****     dbg_print(NOTICE, "le test end, status 0x%x\r\n", p_rsp->status);
 262:C:/Users/stapi/OneDrive/Desktop/GD32VW553/GD32VW55X_Wifi_BLE_SDK/GD32VW55x_RELEASE_V1.0.2/MSDK/ble/app\app_adapter_mgr.c **** }
 263:C:/Users/stapi/OneDrive/Desktop/GD32VW553/GD32VW55X_Wifi_BLE_SDK/GD32VW55x_RELEASE_V1.0.2/MSDK/ble/app\app_adapter_mgr.c **** 
 264:C:/Users/stapi/OneDrive/Desktop/GD32VW553/GD32VW55X_Wifi_BLE_SDK/GD32VW55x_RELEASE_V1.0.2/MSDK/ble/app\app_adapter_mgr.c **** /*!
 265:C:/Users/stapi/OneDrive/Desktop/GD32VW553/GD32VW55X_Wifi_BLE_SDK/GD32VW55x_RELEASE_V1.0.2/MSDK/ble/app\app_adapter_mgr.c ****     \brief      Callback function to handle @ref BLE_ADP_EVT_TEST_RX_PKT_INFO event
 266:C:/Users/stapi/OneDrive/Desktop/GD32VW553/GD32VW55X_Wifi_BLE_SDK/GD32VW55x_RELEASE_V1.0.2/MSDK/ble/app\app_adapter_mgr.c ****     \param[in]  p_info: pointer to BLE test rx packet information data
 267:C:/Users/stapi/OneDrive/Desktop/GD32VW553/GD32VW55X_Wifi_BLE_SDK/GD32VW55x_RELEASE_V1.0.2/MSDK/ble/app\app_adapter_mgr.c ****     \param[out] none
 268:C:/Users/stapi/OneDrive/Desktop/GD32VW553/GD32VW55X_Wifi_BLE_SDK/GD32VW55x_RELEASE_V1.0.2/MSDK/ble/app\app_adapter_mgr.c ****     \retval     none
 269:C:/Users/stapi/OneDrive/Desktop/GD32VW553/GD32VW55X_Wifi_BLE_SDK/GD32VW55x_RELEASE_V1.0.2/MSDK/ble/app\app_adapter_mgr.c **** */
 270:C:/Users/stapi/OneDrive/Desktop/GD32VW553/GD32VW55X_Wifi_BLE_SDK/GD32VW55x_RELEASE_V1.0.2/MSDK/ble/app\app_adapter_mgr.c **** static void app_le_test_rx_pkt_info_hdlr(ble_gap_test_rx_pkt_info_t *p_info)
 271:C:/Users/stapi/OneDrive/Desktop/GD32VW553/GD32VW55X_Wifi_BLE_SDK/GD32VW55x_RELEASE_V1.0.2/MSDK/ble/app\app_adapter_mgr.c **** {
 272:C:/Users/stapi/OneDrive/Desktop/GD32VW553/GD32VW55X_Wifi_BLE_SDK/GD32VW55x_RELEASE_V1.0.2/MSDK/ble/app\app_adapter_mgr.c ****     dbg_print(NOTICE, "le test rx received pkt num: %d\r\n", p_info->rcv_pkt_num);
 273:C:/Users/stapi/OneDrive/Desktop/GD32VW553/GD32VW55X_Wifi_BLE_SDK/GD32VW55x_RELEASE_V1.0.2/MSDK/ble/app\app_adapter_mgr.c **** }
 274:C:/Users/stapi/OneDrive/Desktop/GD32VW553/GD32VW55X_Wifi_BLE_SDK/GD32VW55x_RELEASE_V1.0.2/MSDK/ble/app\app_adapter_mgr.c **** 
 275:C:/Users/stapi/OneDrive/Desktop/GD32VW553/GD32VW55X_Wifi_BLE_SDK/GD32VW55x_RELEASE_V1.0.2/MSDK/ble/app\app_adapter_mgr.c **** /*!
 276:C:/Users/stapi/OneDrive/Desktop/GD32VW553/GD32VW55X_Wifi_BLE_SDK/GD32VW55x_RELEASE_V1.0.2/MSDK/ble/app\app_adapter_mgr.c ****     \brief      Callback function to handle BLE adapter events
 277:C:/Users/stapi/OneDrive/Desktop/GD32VW553/GD32VW55X_Wifi_BLE_SDK/GD32VW55x_RELEASE_V1.0.2/MSDK/ble/app\app_adapter_mgr.c ****     \param[in]  event: BLE adapter event type
 278:C:/Users/stapi/OneDrive/Desktop/GD32VW553/GD32VW55X_Wifi_BLE_SDK/GD32VW55x_RELEASE_V1.0.2/MSDK/ble/app\app_adapter_mgr.c ****     \param[in]  p_data: pointer to BLE adapter event data
 279:C:/Users/stapi/OneDrive/Desktop/GD32VW553/GD32VW55X_Wifi_BLE_SDK/GD32VW55x_RELEASE_V1.0.2/MSDK/ble/app\app_adapter_mgr.c ****     \param[out] none
 280:C:/Users/stapi/OneDrive/Desktop/GD32VW553/GD32VW55X_Wifi_BLE_SDK/GD32VW55x_RELEASE_V1.0.2/MSDK/ble/app\app_adapter_mgr.c ****     \retval     none
 281:C:/Users/stapi/OneDrive/Desktop/GD32VW553/GD32VW55X_Wifi_BLE_SDK/GD32VW55x_RELEASE_V1.0.2/MSDK/ble/app\app_adapter_mgr.c **** */
 282:C:/Users/stapi/OneDrive/Desktop/GD32VW553/GD32VW55X_Wifi_BLE_SDK/GD32VW55x_RELEASE_V1.0.2/MSDK/ble/app\app_adapter_mgr.c **** static void ble_adp_evt_handler(ble_adp_evt_t event, ble_adp_data_u *p_data)
 283:C:/Users/stapi/OneDrive/Desktop/GD32VW553/GD32VW55X_Wifi_BLE_SDK/GD32VW55x_RELEASE_V1.0.2/MSDK/ble/app\app_adapter_mgr.c **** {
 142              		.loc 1 283 1 is_stmt 1
 143              		.cfi_startproc
 144              	.LVL2:
 284:C:/Users/stapi/OneDrive/Desktop/GD32VW553/GD32VW55X_Wifi_BLE_SDK/GD32VW55x_RELEASE_V1.0.2/MSDK/ble/app\app_adapter_mgr.c ****     uint8_t i = 0;
 145              		.loc 1 284 5
 285:C:/Users/stapi/OneDrive/Desktop/GD32VW553/GD32VW55X_Wifi_BLE_SDK/GD32VW55x_RELEASE_V1.0.2/MSDK/ble/app\app_adapter_mgr.c ****     switch (event) {
 146              		.loc 1 285 5
 147 0000 B147     		li	a5,12
 148 0002 63EEA738 		bgtu	a0,a5,.L32
 283:C:/Users/stapi/OneDrive/Desktop/GD32VW553/GD32VW55X_Wifi_BLE_SDK/GD32VW55x_RELEASE_V1.0.2/MSDK/ble/app\app_adapter_mgr.c ****     uint8_t i = 0;
 149              		.loc 1 283 1 is_stmt 0
 150 0006 17030000 		call	t0,__riscv_save_6
 150      E7020300 
 151              		.cfi_offset 21, -28
 152              		.cfi_offset 20, -24
 153              		.cfi_offset 19, -20
 154              		.cfi_offset 18, -16
 155              		.cfi_offset 9, -12
 156              		.cfi_offset 8, -8
 157              		.cfi_offset 1, -4
 158              		.cfi_def_cfa_offset 32
 159 000e B7070000 		lui	a5,%hi(.L6)
 160 0012 93870700 		addi	a5,a5,%lo(.L6)
 161 0016 3345F520 		sh2add	a0,a0,a5
 162              	.LVL3:
 163 001a 1C41     		lw	a5,0(a0)
 164 001c 4111     		addi	sp,sp,-16
 165              		.cfi_def_cfa_offset 48
 166 001e 2E84     		mv	s0,a1
 167 0020 8287     		jr	a5
 168              		.section	.rodata.ble_adp_evt_handler,"a",@progbits
 169              		.align	2
 170              		.align	2
 171              	.L6:
 172 0000 00000000 		.word	.L14
 173 0004 00000000 		.word	.L13
 174 0008 00000000 		.word	.L12
 175 000c 00000000 		.word	.L3
 176 0010 00000000 		.word	.L3
 177 0014 00000000 		.word	.L11
 178 0018 00000000 		.word	.L3
 179 001c 00000000 		.word	.L3
 180 0020 00000000 		.word	.L10
 181 0024 00000000 		.word	.L9
 182 0028 00000000 		.word	.L8
 183 002c 00000000 		.word	.L7
 184 0030 00000000 		.word	.L5
 185              		.section	.text.ble_adp_evt_handler
 186              	.L13:
 286:C:/Users/stapi/OneDrive/Desktop/GD32VW553/GD32VW55X_Wifi_BLE_SDK/GD32VW55x_RELEASE_V1.0.2/MSDK/ble/app\app_adapter_mgr.c ****     case BLE_ADP_EVT_RESET_CMPL_INFO:
 287:C:/Users/stapi/OneDrive/Desktop/GD32VW553/GD32VW55X_Wifi_BLE_SDK/GD32VW55x_RELEASE_V1.0.2/MSDK/ble/app\app_adapter_mgr.c ****         app_adapter_cfg();
 187              		.loc 1 287 9 is_stmt 1
 188 0022 97000000 		call	app_adapter_cfg
 188      E7800000 
 189              	.LVL4:
 288:C:/Users/stapi/OneDrive/Desktop/GD32VW553/GD32VW55X_Wifi_BLE_SDK/GD32VW55x_RELEASE_V1.0.2/MSDK/ble/app\app_adapter_mgr.c ****         break;
 190              		.loc 1 288 9
 191              	.L3:
 289:C:/Users/stapi/OneDrive/Desktop/GD32VW553/GD32VW55X_Wifi_BLE_SDK/GD32VW55x_RELEASE_V1.0.2/MSDK/ble/app\app_adapter_mgr.c **** 
 290:C:/Users/stapi/OneDrive/Desktop/GD32VW553/GD32VW55X_Wifi_BLE_SDK/GD32VW55x_RELEASE_V1.0.2/MSDK/ble/app\app_adapter_mgr.c ****     case BLE_ADP_EVT_ENABLE_CMPL_INFO:
 291:C:/Users/stapi/OneDrive/Desktop/GD32VW553/GD32VW55X_Wifi_BLE_SDK/GD32VW55x_RELEASE_V1.0.2/MSDK/ble/app\app_adapter_mgr.c ****         if (p_data->adapter_info.status == BLE_ERR_NO_ERROR) {
 292:C:/Users/stapi/OneDrive/Desktop/GD32VW553/GD32VW55X_Wifi_BLE_SDK/GD32VW55x_RELEASE_V1.0.2/MSDK/ble/app\app_adapter_mgr.c ****             dbg_print(INFO, "=== Adapter enable success ===\r\n");
 293:C:/Users/stapi/OneDrive/Desktop/GD32VW553/GD32VW55X_Wifi_BLE_SDK/GD32VW55x_RELEASE_V1.0.2/MSDK/ble/app\app_adapter_mgr.c ****             dbg_print(INFO, "hci_ver 0x%x, hci_subver 0x%x, lmp_ver 0x%x, lmp_subver 0x%x, manuf_na
 294:C:/Users/stapi/OneDrive/Desktop/GD32VW553/GD32VW55X_Wifi_BLE_SDK/GD32VW55x_RELEASE_V1.0.2/MSDK/ble/app\app_adapter_mgr.c ****                    p_data->adapter_info.version.hci_ver, p_data->adapter_info.version.hci_subver,
 295:C:/Users/stapi/OneDrive/Desktop/GD32VW553/GD32VW55X_Wifi_BLE_SDK/GD32VW55x_RELEASE_V1.0.2/MSDK/ble/app\app_adapter_mgr.c ****                    p_data->adapter_info.version.lmp_ver, p_data->adapter_info.version.lmp_subver,
 296:C:/Users/stapi/OneDrive/Desktop/GD32VW553/GD32VW55X_Wifi_BLE_SDK/GD32VW55x_RELEASE_V1.0.2/MSDK/ble/app\app_adapter_mgr.c ****                    p_data->adapter_info.version.manuf_name);
 297:C:/Users/stapi/OneDrive/Desktop/GD32VW553/GD32VW55X_Wifi_BLE_SDK/GD32VW55x_RELEASE_V1.0.2/MSDK/ble/app\app_adapter_mgr.c **** 
 298:C:/Users/stapi/OneDrive/Desktop/GD32VW553/GD32VW55X_Wifi_BLE_SDK/GD32VW55x_RELEASE_V1.0.2/MSDK/ble/app\app_adapter_mgr.c ****             dbg_print(INFO, "adv_set_num %u, min_tx_pwr %d, max_tx_pwr %d, max_adv_data_len %d \r\n
 299:C:/Users/stapi/OneDrive/Desktop/GD32VW553/GD32VW55X_Wifi_BLE_SDK/GD32VW55x_RELEASE_V1.0.2/MSDK/ble/app\app_adapter_mgr.c ****                    p_data->adapter_info.adv_set_num, p_data->adapter_info.tx_pwr_range.min_tx_pwr,
 300:C:/Users/stapi/OneDrive/Desktop/GD32VW553/GD32VW55X_Wifi_BLE_SDK/GD32VW55x_RELEASE_V1.0.2/MSDK/ble/app\app_adapter_mgr.c ****                    p_data->adapter_info.tx_pwr_range.max_tx_pwr, p_data->adapter_info.max_adv_data_
 301:C:/Users/stapi/OneDrive/Desktop/GD32VW553/GD32VW55X_Wifi_BLE_SDK/GD32VW55x_RELEASE_V1.0.2/MSDK/ble/app\app_adapter_mgr.c ****             dbg_print(INFO, "sugg_max_tx_octets %u, sugg_max_tx_time %u \r\n",
 302:C:/Users/stapi/OneDrive/Desktop/GD32VW553/GD32VW55X_Wifi_BLE_SDK/GD32VW55x_RELEASE_V1.0.2/MSDK/ble/app\app_adapter_mgr.c ****                    p_data->adapter_info.sugg_dft_data.sugg_max_tx_octets,
 303:C:/Users/stapi/OneDrive/Desktop/GD32VW553/GD32VW55X_Wifi_BLE_SDK/GD32VW55x_RELEASE_V1.0.2/MSDK/ble/app\app_adapter_mgr.c ****                    p_data->adapter_info.sugg_dft_data.sugg_max_tx_time);
 304:C:/Users/stapi/OneDrive/Desktop/GD32VW553/GD32VW55X_Wifi_BLE_SDK/GD32VW55x_RELEASE_V1.0.2/MSDK/ble/app\app_adapter_mgr.c **** 
 305:C:/Users/stapi/OneDrive/Desktop/GD32VW553/GD32VW55X_Wifi_BLE_SDK/GD32VW55x_RELEASE_V1.0.2/MSDK/ble/app\app_adapter_mgr.c ****             dbg_print(INFO, "loc irk:");
 306:C:/Users/stapi/OneDrive/Desktop/GD32VW553/GD32VW55X_Wifi_BLE_SDK/GD32VW55x_RELEASE_V1.0.2/MSDK/ble/app\app_adapter_mgr.c **** 
 307:C:/Users/stapi/OneDrive/Desktop/GD32VW553/GD32VW55X_Wifi_BLE_SDK/GD32VW55x_RELEASE_V1.0.2/MSDK/ble/app\app_adapter_mgr.c ****             for (i = 0; i < BLE_GAP_KEY_LEN; i++) {
 308:C:/Users/stapi/OneDrive/Desktop/GD32VW553/GD32VW55X_Wifi_BLE_SDK/GD32VW55x_RELEASE_V1.0.2/MSDK/ble/app\app_adapter_mgr.c ****                 dbg_print(INFO, " %02x", p_data->adapter_info.loc_irk_info.irk[i]);
 309:C:/Users/stapi/OneDrive/Desktop/GD32VW553/GD32VW55X_Wifi_BLE_SDK/GD32VW55x_RELEASE_V1.0.2/MSDK/ble/app\app_adapter_mgr.c ****             }
 310:C:/Users/stapi/OneDrive/Desktop/GD32VW553/GD32VW55X_Wifi_BLE_SDK/GD32VW55x_RELEASE_V1.0.2/MSDK/ble/app\app_adapter_mgr.c **** 
 311:C:/Users/stapi/OneDrive/Desktop/GD32VW553/GD32VW55X_Wifi_BLE_SDK/GD32VW55x_RELEASE_V1.0.2/MSDK/ble/app\app_adapter_mgr.c ****             dbg_print(INFO, "\r\n");
 312:C:/Users/stapi/OneDrive/Desktop/GD32VW553/GD32VW55X_Wifi_BLE_SDK/GD32VW55x_RELEASE_V1.0.2/MSDK/ble/app\app_adapter_mgr.c ****             dbg_print(INFO, "identity addr %02X:%02X:%02X:%02X:%02X:%02X \r\n ",
 313:C:/Users/stapi/OneDrive/Desktop/GD32VW553/GD32VW55X_Wifi_BLE_SDK/GD32VW55x_RELEASE_V1.0.2/MSDK/ble/app\app_adapter_mgr.c ****                    p_data->adapter_info.loc_irk_info.identity.addr[5],
 314:C:/Users/stapi/OneDrive/Desktop/GD32VW553/GD32VW55X_Wifi_BLE_SDK/GD32VW55x_RELEASE_V1.0.2/MSDK/ble/app\app_adapter_mgr.c ****                    p_data->adapter_info.loc_irk_info.identity.addr[4],
 315:C:/Users/stapi/OneDrive/Desktop/GD32VW553/GD32VW55X_Wifi_BLE_SDK/GD32VW55x_RELEASE_V1.0.2/MSDK/ble/app\app_adapter_mgr.c ****                    p_data->adapter_info.loc_irk_info.identity.addr[3],
 316:C:/Users/stapi/OneDrive/Desktop/GD32VW553/GD32VW55X_Wifi_BLE_SDK/GD32VW55x_RELEASE_V1.0.2/MSDK/ble/app\app_adapter_mgr.c ****                    p_data->adapter_info.loc_irk_info.identity.addr[2],
 317:C:/Users/stapi/OneDrive/Desktop/GD32VW553/GD32VW55X_Wifi_BLE_SDK/GD32VW55x_RELEASE_V1.0.2/MSDK/ble/app\app_adapter_mgr.c ****                    p_data->adapter_info.loc_irk_info.identity.addr[1],
 318:C:/Users/stapi/OneDrive/Desktop/GD32VW553/GD32VW55X_Wifi_BLE_SDK/GD32VW55x_RELEASE_V1.0.2/MSDK/ble/app\app_adapter_mgr.c ****                    p_data->adapter_info.loc_irk_info.identity.addr[0]);
 319:C:/Users/stapi/OneDrive/Desktop/GD32VW553/GD32VW55X_Wifi_BLE_SDK/GD32VW55x_RELEASE_V1.0.2/MSDK/ble/app\app_adapter_mgr.c **** 
 320:C:/Users/stapi/OneDrive/Desktop/GD32VW553/GD32VW55X_Wifi_BLE_SDK/GD32VW55x_RELEASE_V1.0.2/MSDK/ble/app\app_adapter_mgr.c ****             dbg_print(NOTICE, "=== BLE Adapter enable complete ===\r\n");
 321:C:/Users/stapi/OneDrive/Desktop/GD32VW553/GD32VW55X_Wifi_BLE_SDK/GD32VW55x_RELEASE_V1.0.2/MSDK/ble/app\app_adapter_mgr.c ****         }
 322:C:/Users/stapi/OneDrive/Desktop/GD32VW553/GD32VW55X_Wifi_BLE_SDK/GD32VW55x_RELEASE_V1.0.2/MSDK/ble/app\app_adapter_mgr.c **** 
 323:C:/Users/stapi/OneDrive/Desktop/GD32VW553/GD32VW55X_Wifi_BLE_SDK/GD32VW55x_RELEASE_V1.0.2/MSDK/ble/app\app_adapter_mgr.c ****         if (app_env.process_reset) {
 324:C:/Users/stapi/OneDrive/Desktop/GD32VW553/GD32VW55X_Wifi_BLE_SDK/GD32VW55x_RELEASE_V1.0.2/MSDK/ble/app\app_adapter_mgr.c ****             app_env.process_reset = false;
 325:C:/Users/stapi/OneDrive/Desktop/GD32VW553/GD32VW55X_Wifi_BLE_SDK/GD32VW55x_RELEASE_V1.0.2/MSDK/ble/app\app_adapter_mgr.c ****             app_reset();
 326:C:/Users/stapi/OneDrive/Desktop/GD32VW553/GD32VW55X_Wifi_BLE_SDK/GD32VW55x_RELEASE_V1.0.2/MSDK/ble/app\app_adapter_mgr.c ****         } else {
 327:C:/Users/stapi/OneDrive/Desktop/GD32VW553/GD32VW55X_Wifi_BLE_SDK/GD32VW55x_RELEASE_V1.0.2/MSDK/ble/app\app_adapter_mgr.c ****             app_enable_cmplt_handler(p_data->status);
 328:C:/Users/stapi/OneDrive/Desktop/GD32VW553/GD32VW55X_Wifi_BLE_SDK/GD32VW55x_RELEASE_V1.0.2/MSDK/ble/app\app_adapter_mgr.c ****             ble_task_ready();
 329:C:/Users/stapi/OneDrive/Desktop/GD32VW553/GD32VW55X_Wifi_BLE_SDK/GD32VW55x_RELEASE_V1.0.2/MSDK/ble/app\app_adapter_mgr.c ****         }
 330:C:/Users/stapi/OneDrive/Desktop/GD32VW553/GD32VW55X_Wifi_BLE_SDK/GD32VW55x_RELEASE_V1.0.2/MSDK/ble/app\app_adapter_mgr.c ****         break;
 331:C:/Users/stapi/OneDrive/Desktop/GD32VW553/GD32VW55X_Wifi_BLE_SDK/GD32VW55x_RELEASE_V1.0.2/MSDK/ble/app\app_adapter_mgr.c **** 
 332:C:/Users/stapi/OneDrive/Desktop/GD32VW553/GD32VW55X_Wifi_BLE_SDK/GD32VW55x_RELEASE_V1.0.2/MSDK/ble/app\app_adapter_mgr.c ****     case BLE_ADP_EVT_DISABLE_CMPL_INFO:
 333:C:/Users/stapi/OneDrive/Desktop/GD32VW553/GD32VW55X_Wifi_BLE_SDK/GD32VW55x_RELEASE_V1.0.2/MSDK/ble/app\app_adapter_mgr.c ****         if (!p_data->status) {
 334:C:/Users/stapi/OneDrive/Desktop/GD32VW553/GD32VW55X_Wifi_BLE_SDK/GD32VW55x_RELEASE_V1.0.2/MSDK/ble/app\app_adapter_mgr.c ****             ble_deinit();
 335:C:/Users/stapi/OneDrive/Desktop/GD32VW553/GD32VW55X_Wifi_BLE_SDK/GD32VW55x_RELEASE_V1.0.2/MSDK/ble/app\app_adapter_mgr.c ****             app_print("ble disable success\r\n");
 336:C:/Users/stapi/OneDrive/Desktop/GD32VW553/GD32VW55X_Wifi_BLE_SDK/GD32VW55x_RELEASE_V1.0.2/MSDK/ble/app\app_adapter_mgr.c ****         }
 337:C:/Users/stapi/OneDrive/Desktop/GD32VW553/GD32VW55X_Wifi_BLE_SDK/GD32VW55x_RELEASE_V1.0.2/MSDK/ble/app\app_adapter_mgr.c ****         break;
 338:C:/Users/stapi/OneDrive/Desktop/GD32VW553/GD32VW55X_Wifi_BLE_SDK/GD32VW55x_RELEASE_V1.0.2/MSDK/ble/app\app_adapter_mgr.c **** 
 339:C:/Users/stapi/OneDrive/Desktop/GD32VW553/GD32VW55X_Wifi_BLE_SDK/GD32VW55x_RELEASE_V1.0.2/MSDK/ble/app\app_adapter_mgr.c ****     case BLE_ADP_EVT_LOC_ADDR_INFO:
 340:C:/Users/stapi/OneDrive/Desktop/GD32VW553/GD32VW55X_Wifi_BLE_SDK/GD32VW55x_RELEASE_V1.0.2/MSDK/ble/app\app_adapter_mgr.c ****         app_local_addr_hdlr(&p_data->loc_addr);
 341:C:/Users/stapi/OneDrive/Desktop/GD32VW553/GD32VW55X_Wifi_BLE_SDK/GD32VW55x_RELEASE_V1.0.2/MSDK/ble/app\app_adapter_mgr.c ****         break;
 342:C:/Users/stapi/OneDrive/Desktop/GD32VW553/GD32VW55X_Wifi_BLE_SDK/GD32VW55x_RELEASE_V1.0.2/MSDK/ble/app\app_adapter_mgr.c **** 
 343:C:/Users/stapi/OneDrive/Desktop/GD32VW553/GD32VW55X_Wifi_BLE_SDK/GD32VW55x_RELEASE_V1.0.2/MSDK/ble/app\app_adapter_mgr.c ****     case BLE_ADP_EVT_RAND_ADDR_GEN_RSP:
 344:C:/Users/stapi/OneDrive/Desktop/GD32VW553/GD32VW55X_Wifi_BLE_SDK/GD32VW55x_RELEASE_V1.0.2/MSDK/ble/app\app_adapter_mgr.c ****         app_random_addr_gen_hdlr(&p_data->rand_addr);
 345:C:/Users/stapi/OneDrive/Desktop/GD32VW553/GD32VW55X_Wifi_BLE_SDK/GD32VW55x_RELEASE_V1.0.2/MSDK/ble/app\app_adapter_mgr.c ****         break;
 346:C:/Users/stapi/OneDrive/Desktop/GD32VW553/GD32VW55X_Wifi_BLE_SDK/GD32VW55x_RELEASE_V1.0.2/MSDK/ble/app\app_adapter_mgr.c **** 
 347:C:/Users/stapi/OneDrive/Desktop/GD32VW553/GD32VW55X_Wifi_BLE_SDK/GD32VW55x_RELEASE_V1.0.2/MSDK/ble/app\app_adapter_mgr.c ****     case BLE_ADP_EVT_TEST_END_RSP:
 348:C:/Users/stapi/OneDrive/Desktop/GD32VW553/GD32VW55X_Wifi_BLE_SDK/GD32VW55x_RELEASE_V1.0.2/MSDK/ble/app\app_adapter_mgr.c ****         app_le_test_ended_hdlr(&p_data->test_end_rsp);
 349:C:/Users/stapi/OneDrive/Desktop/GD32VW553/GD32VW55X_Wifi_BLE_SDK/GD32VW55x_RELEASE_V1.0.2/MSDK/ble/app\app_adapter_mgr.c ****         break;
 350:C:/Users/stapi/OneDrive/Desktop/GD32VW553/GD32VW55X_Wifi_BLE_SDK/GD32VW55x_RELEASE_V1.0.2/MSDK/ble/app\app_adapter_mgr.c **** 
 351:C:/Users/stapi/OneDrive/Desktop/GD32VW553/GD32VW55X_Wifi_BLE_SDK/GD32VW55x_RELEASE_V1.0.2/MSDK/ble/app\app_adapter_mgr.c ****     case BLE_ADP_EVT_TEST_RX_PKT_INFO:
 352:C:/Users/stapi/OneDrive/Desktop/GD32VW553/GD32VW55X_Wifi_BLE_SDK/GD32VW55x_RELEASE_V1.0.2/MSDK/ble/app\app_adapter_mgr.c ****         app_le_test_rx_pkt_info_hdlr(&p_data->test_rx_pkt_info);
 353:C:/Users/stapi/OneDrive/Desktop/GD32VW553/GD32VW55X_Wifi_BLE_SDK/GD32VW55x_RELEASE_V1.0.2/MSDK/ble/app\app_adapter_mgr.c ****         break;
 354:C:/Users/stapi/OneDrive/Desktop/GD32VW553/GD32VW55X_Wifi_BLE_SDK/GD32VW55x_RELEASE_V1.0.2/MSDK/ble/app\app_adapter_mgr.c **** 
 355:C:/Users/stapi/OneDrive/Desktop/GD32VW553/GD32VW55X_Wifi_BLE_SDK/GD32VW55x_RELEASE_V1.0.2/MSDK/ble/app\app_adapter_mgr.c ****     case BLE_ADP_EVT_TEST_TX_RSP:
 356:C:/Users/stapi/OneDrive/Desktop/GD32VW553/GD32VW55X_Wifi_BLE_SDK/GD32VW55x_RELEASE_V1.0.2/MSDK/ble/app\app_adapter_mgr.c ****         dbg_print(NOTICE, "ble test tx status %x\r\n", p_data->status);
 357:C:/Users/stapi/OneDrive/Desktop/GD32VW553/GD32VW55X_Wifi_BLE_SDK/GD32VW55x_RELEASE_V1.0.2/MSDK/ble/app\app_adapter_mgr.c ****         break;
 358:C:/Users/stapi/OneDrive/Desktop/GD32VW553/GD32VW55X_Wifi_BLE_SDK/GD32VW55x_RELEASE_V1.0.2/MSDK/ble/app\app_adapter_mgr.c **** 
 359:C:/Users/stapi/OneDrive/Desktop/GD32VW553/GD32VW55X_Wifi_BLE_SDK/GD32VW55x_RELEASE_V1.0.2/MSDK/ble/app\app_adapter_mgr.c ****     case BLE_ADP_EVT_TEST_RX_RSP:
 360:C:/Users/stapi/OneDrive/Desktop/GD32VW553/GD32VW55X_Wifi_BLE_SDK/GD32VW55x_RELEASE_V1.0.2/MSDK/ble/app\app_adapter_mgr.c ****         dbg_print(NOTICE, "ble test rx status %x\r\n", p_data->status);
 361:C:/Users/stapi/OneDrive/Desktop/GD32VW553/GD32VW55X_Wifi_BLE_SDK/GD32VW55x_RELEASE_V1.0.2/MSDK/ble/app\app_adapter_mgr.c ****         break;
 362:C:/Users/stapi/OneDrive/Desktop/GD32VW553/GD32VW55X_Wifi_BLE_SDK/GD32VW55x_RELEASE_V1.0.2/MSDK/ble/app\app_adapter_mgr.c **** 
 363:C:/Users/stapi/OneDrive/Desktop/GD32VW553/GD32VW55X_Wifi_BLE_SDK/GD32VW55x_RELEASE_V1.0.2/MSDK/ble/app\app_adapter_mgr.c ****     default:
 364:C:/Users/stapi/OneDrive/Desktop/GD32VW553/GD32VW55X_Wifi_BLE_SDK/GD32VW55x_RELEASE_V1.0.2/MSDK/ble/app\app_adapter_mgr.c ****         break;
 365:C:/Users/stapi/OneDrive/Desktop/GD32VW553/GD32VW55X_Wifi_BLE_SDK/GD32VW55x_RELEASE_V1.0.2/MSDK/ble/app\app_adapter_mgr.c ****     }
 366:C:/Users/stapi/OneDrive/Desktop/GD32VW553/GD32VW55X_Wifi_BLE_SDK/GD32VW55x_RELEASE_V1.0.2/MSDK/ble/app\app_adapter_mgr.c **** }
 192              		.loc 1 366 1 is_stmt 0
 193 002a 4101     		addi	sp,sp,16
 194              		.cfi_remember_state
 195              		.cfi_def_cfa_offset 0
 196 002c 17030000 		tail	__riscv_restore_6
 196      67000300 
 197              		.cfi_restore 21
 198              		.cfi_restore 20
 199              		.cfi_restore 19
 200              		.cfi_restore 18
 201              		.cfi_restore 9
 202              		.cfi_restore 8
 203              		.cfi_restore 1
 204              		.cfi_def_cfa_offset -32
 205              	.LVL5:
 206              	.L14:
 207              		.cfi_restore_state
 291:C:/Users/stapi/OneDrive/Desktop/GD32VW553/GD32VW55X_Wifi_BLE_SDK/GD32VW55x_RELEASE_V1.0.2/MSDK/ble/app\app_adapter_mgr.c ****             dbg_print(INFO, "=== Adapter enable success ===\r\n");
 208              		.loc 1 291 9 is_stmt 1
 291:C:/Users/stapi/OneDrive/Desktop/GD32VW553/GD32VW55X_Wifi_BLE_SDK/GD32VW55x_RELEASE_V1.0.2/MSDK/ble/app\app_adapter_mgr.c ****             dbg_print(INFO, "=== Adapter enable success ===\r\n");
 209              		.loc 1 291 12 is_stmt 0
 210 0034 83D70500 		lhu	a5,0(a1)
 211 0038 639F0712 		bne	a5,zero,.L16
 292:C:/Users/stapi/OneDrive/Desktop/GD32VW553/GD32VW55X_Wifi_BLE_SDK/GD32VW55x_RELEASE_V1.0.2/MSDK/ble/app\app_adapter_mgr.c ****             dbg_print(INFO, "hci_ver 0x%x, hci_subver 0x%x, lmp_ver 0x%x, lmp_subver 0x%x, manuf_na
 212              		.loc 1 292 13 is_stmt 1
 292:C:/Users/stapi/OneDrive/Desktop/GD32VW553/GD32VW55X_Wifi_BLE_SDK/GD32VW55x_RELEASE_V1.0.2/MSDK/ble/app\app_adapter_mgr.c ****             dbg_print(INFO, "hci_ver 0x%x, hci_subver 0x%x, lmp_ver 0x%x, lmp_subver 0x%x, manuf_na
 213              		.loc 1 292 13
 214 003c B7040000 		lui	s1,%hi(global_debug_level)
 215 0040 83C70400 		lbu	a5,%lo(global_debug_level)(s1)
 216 0044 0D49     		li	s2,3
 217 0046 6370F90A 		bleu	a5,s2,.L29
 292:C:/Users/stapi/OneDrive/Desktop/GD32VW553/GD32VW55X_Wifi_BLE_SDK/GD32VW55x_RELEASE_V1.0.2/MSDK/ble/app\app_adapter_mgr.c ****             dbg_print(INFO, "hci_ver 0x%x, hci_subver 0x%x, lmp_ver 0x%x, lmp_subver 0x%x, manuf_na
 218              		.loc 1 292 13 discriminator 1
 219 004a 37050000 		lui	a0,%hi(.LC0)
 220 004e 13050500 		addi	a0,a0,%lo(.LC0)
 221 0052 97000000 		call	co_printf
 221      E7800000 
 222              	.LVL6:
 292:C:/Users/stapi/OneDrive/Desktop/GD32VW553/GD32VW55X_Wifi_BLE_SDK/GD32VW55x_RELEASE_V1.0.2/MSDK/ble/app\app_adapter_mgr.c ****             dbg_print(INFO, "hci_ver 0x%x, hci_subver 0x%x, lmp_ver 0x%x, lmp_subver 0x%x, manuf_na
 223              		.loc 1 292 13 discriminator 1
 293:C:/Users/stapi/OneDrive/Desktop/GD32VW553/GD32VW55X_Wifi_BLE_SDK/GD32VW55x_RELEASE_V1.0.2/MSDK/ble/app\app_adapter_mgr.c ****                    p_data->adapter_info.version.hci_ver, p_data->adapter_info.version.hci_subver,
 224              		.loc 1 293 13 discriminator 1
 293:C:/Users/stapi/OneDrive/Desktop/GD32VW553/GD32VW55X_Wifi_BLE_SDK/GD32VW55x_RELEASE_V1.0.2/MSDK/ble/app\app_adapter_mgr.c ****                    p_data->adapter_info.version.hci_ver, p_data->adapter_info.version.hci_subver,
 225              		.loc 1 293 13 discriminator 1
 226 005a 83C70400 		lbu	a5,%lo(global_debug_level)(s1)
 227 005e 6374F908 		bleu	a5,s2,.L29
 293:C:/Users/stapi/OneDrive/Desktop/GD32VW553/GD32VW55X_Wifi_BLE_SDK/GD32VW55x_RELEASE_V1.0.2/MSDK/ble/app\app_adapter_mgr.c ****                    p_data->adapter_info.version.hci_ver, p_data->adapter_info.version.hci_subver,
 228              		.loc 1 293 13 discriminator 1
 229 0062 83570403 		lhu	a5,48(s0)
 230 0066 0357E402 		lhu	a4,46(s0)
 231 006a 8346B402 		lbu	a3,43(s0)
 232 006e 0356C402 		lhu	a2,44(s0)
 233 0072 8345A402 		lbu	a1,42(s0)
 234 0076 37050000 		lui	a0,%hi(.LC1)
 235 007a 13050500 		addi	a0,a0,%lo(.LC1)
 236 007e 97000000 		call	co_printf
 236      E7800000 
 237              	.LVL7:
 293:C:/Users/stapi/OneDrive/Desktop/GD32VW553/GD32VW55X_Wifi_BLE_SDK/GD32VW55x_RELEASE_V1.0.2/MSDK/ble/app\app_adapter_mgr.c ****                    p_data->adapter_info.version.hci_ver, p_data->adapter_info.version.hci_subver,
 238              		.loc 1 293 13 discriminator 1
 298:C:/Users/stapi/OneDrive/Desktop/GD32VW553/GD32VW55X_Wifi_BLE_SDK/GD32VW55x_RELEASE_V1.0.2/MSDK/ble/app\app_adapter_mgr.c ****                    p_data->adapter_info.adv_set_num, p_data->adapter_info.tx_pwr_range.min_tx_pwr,
 239              		.loc 1 298 13 discriminator 1
 298:C:/Users/stapi/OneDrive/Desktop/GD32VW553/GD32VW55X_Wifi_BLE_SDK/GD32VW55x_RELEASE_V1.0.2/MSDK/ble/app\app_adapter_mgr.c ****                    p_data->adapter_info.adv_set_num, p_data->adapter_info.tx_pwr_range.min_tx_pwr,
 240              		.loc 1 298 13 discriminator 1
 241 0086 83C70400 		lbu	a5,%lo(global_debug_level)(s1)
 242 008a 637EF904 		bleu	a5,s2,.L29
 298:C:/Users/stapi/OneDrive/Desktop/GD32VW553/GD32VW55X_Wifi_BLE_SDK/GD32VW55x_RELEASE_V1.0.2/MSDK/ble/app\app_adapter_mgr.c ****                    p_data->adapter_info.adv_set_num, p_data->adapter_info.tx_pwr_range.min_tx_pwr,
 243              		.loc 1 298 13 discriminator 1
 244 008e 03572403 		lhu	a4,50(s0)
 245 0092 83452400 		lbu	a1,2(s0)
 246 0096 37050000 		lui	a0,%hi(.LC2)
 247 009a 13050500 		addi	a0,a0,%lo(.LC2)
 248 009e 83064400 		lb	a3,4(s0)
 249 00a2 03063400 		lb	a2,3(s0)
 250 00a6 97000000 		call	co_printf
 250      E7800000 
 251              	.LVL8:
 298:C:/Users/stapi/OneDrive/Desktop/GD32VW553/GD32VW55X_Wifi_BLE_SDK/GD32VW55x_RELEASE_V1.0.2/MSDK/ble/app\app_adapter_mgr.c ****                    p_data->adapter_info.adv_set_num, p_data->adapter_info.tx_pwr_range.min_tx_pwr,
 252              		.loc 1 298 13 discriminator 1
 301:C:/Users/stapi/OneDrive/Desktop/GD32VW553/GD32VW55X_Wifi_BLE_SDK/GD32VW55x_RELEASE_V1.0.2/MSDK/ble/app\app_adapter_mgr.c ****                    p_data->adapter_info.sugg_dft_data.sugg_max_tx_octets,
 253              		.loc 1 301 13 discriminator 1
 301:C:/Users/stapi/OneDrive/Desktop/GD32VW553/GD32VW55X_Wifi_BLE_SDK/GD32VW55x_RELEASE_V1.0.2/MSDK/ble/app\app_adapter_mgr.c ****                    p_data->adapter_info.sugg_dft_data.sugg_max_tx_octets,
 254              		.loc 1 301 13 discriminator 1
 255 00ae 83C70400 		lbu	a5,%lo(global_debug_level)(s1)
 256 00b2 637AF902 		bleu	a5,s2,.L29
 301:C:/Users/stapi/OneDrive/Desktop/GD32VW553/GD32VW55X_Wifi_BLE_SDK/GD32VW55x_RELEASE_V1.0.2/MSDK/ble/app\app_adapter_mgr.c ****                    p_data->adapter_info.sugg_dft_data.sugg_max_tx_octets,
 257              		.loc 1 301 13 discriminator 1
 258 00b6 03568400 		lhu	a2,8(s0)
 259 00ba 83556400 		lhu	a1,6(s0)
 260 00be 37050000 		lui	a0,%hi(.LC3)
 261 00c2 13050500 		addi	a0,a0,%lo(.LC3)
 262 00c6 97000000 		call	co_printf
 262      E7800000 
 263              	.LVL9:
 301:C:/Users/stapi/OneDrive/Desktop/GD32VW553/GD32VW55X_Wifi_BLE_SDK/GD32VW55x_RELEASE_V1.0.2/MSDK/ble/app\app_adapter_mgr.c ****                    p_data->adapter_info.sugg_dft_data.sugg_max_tx_octets,
 264              		.loc 1 301 13 discriminator 1
 305:C:/Users/stapi/OneDrive/Desktop/GD32VW553/GD32VW55X_Wifi_BLE_SDK/GD32VW55x_RELEASE_V1.0.2/MSDK/ble/app\app_adapter_mgr.c **** 
 265              		.loc 1 305 13 discriminator 1
 305:C:/Users/stapi/OneDrive/Desktop/GD32VW553/GD32VW55X_Wifi_BLE_SDK/GD32VW55x_RELEASE_V1.0.2/MSDK/ble/app\app_adapter_mgr.c **** 
 266              		.loc 1 305 13 discriminator 1
 267 00ce 83C70400 		lbu	a5,%lo(global_debug_level)(s1)
 268 00d2 637AF900 		bleu	a5,s2,.L29
 305:C:/Users/stapi/OneDrive/Desktop/GD32VW553/GD32VW55X_Wifi_BLE_SDK/GD32VW55x_RELEASE_V1.0.2/MSDK/ble/app\app_adapter_mgr.c **** 
 269              		.loc 1 305 13 discriminator 1
 270 00d6 37050000 		lui	a0,%hi(.LC4)
 271 00da 13050500 		addi	a0,a0,%lo(.LC4)
 272 00de 97000000 		call	co_printf
 272      E7800000 
 273              	.LVL10:
 274              	.L29:
 275 00e6 13092401 		addi	s2,s0,18
 276 00ea 93092402 		addi	s3,s0,34
 308:C:/Users/stapi/OneDrive/Desktop/GD32VW553/GD32VW55X_Wifi_BLE_SDK/GD32VW55x_RELEASE_V1.0.2/MSDK/ble/app\app_adapter_mgr.c ****             }
 277              		.loc 1 308 17 is_stmt 0
 278 00ee 0D4A     		li	s4,3
 279 00f0 B70A0000 		lui	s5,%hi(.LC5)
 280              	.LVL11:
 281              	.L22:
 308:C:/Users/stapi/OneDrive/Desktop/GD32VW553/GD32VW55X_Wifi_BLE_SDK/GD32VW55x_RELEASE_V1.0.2/MSDK/ble/app\app_adapter_mgr.c ****             }
 282              		.loc 1 308 17 is_stmt 1
 308:C:/Users/stapi/OneDrive/Desktop/GD32VW553/GD32VW55X_Wifi_BLE_SDK/GD32VW55x_RELEASE_V1.0.2/MSDK/ble/app\app_adapter_mgr.c ****             }
 283              		.loc 1 308 17
 284 00f4 83C70400 		lbu	a5,%lo(global_debug_level)(s1)
 285 00f8 637AFA00 		bleu	a5,s4,.L21
 308:C:/Users/stapi/OneDrive/Desktop/GD32VW553/GD32VW55X_Wifi_BLE_SDK/GD32VW55x_RELEASE_V1.0.2/MSDK/ble/app\app_adapter_mgr.c ****             }
 286              		.loc 1 308 17 discriminator 1
 287 00fc 83450900 		lbu	a1,0(s2)
 288 0100 13850A00 		addi	a0,s5,%lo(.LC5)
 289 0104 97000000 		call	co_printf
 289      E7800000 
 290              	.LVL12:
 291              	.L21:
 308:C:/Users/stapi/OneDrive/Desktop/GD32VW553/GD32VW55X_Wifi_BLE_SDK/GD32VW55x_RELEASE_V1.0.2/MSDK/ble/app\app_adapter_mgr.c ****             }
 292              		.loc 1 308 17 discriminator 3
 307:C:/Users/stapi/OneDrive/Desktop/GD32VW553/GD32VW55X_Wifi_BLE_SDK/GD32VW55x_RELEASE_V1.0.2/MSDK/ble/app\app_adapter_mgr.c ****                 dbg_print(INFO, " %02x", p_data->adapter_info.loc_irk_info.irk[i]);
 293              		.loc 1 307 46 discriminator 3
 307:C:/Users/stapi/OneDrive/Desktop/GD32VW553/GD32VW55X_Wifi_BLE_SDK/GD32VW55x_RELEASE_V1.0.2/MSDK/ble/app\app_adapter_mgr.c ****                 dbg_print(INFO, " %02x", p_data->adapter_info.loc_irk_info.irk[i]);
 294              		.loc 1 307 25 discriminator 3
 307:C:/Users/stapi/OneDrive/Desktop/GD32VW553/GD32VW55X_Wifi_BLE_SDK/GD32VW55x_RELEASE_V1.0.2/MSDK/ble/app\app_adapter_mgr.c ****                 dbg_print(INFO, " %02x", p_data->adapter_info.loc_irk_info.irk[i]);
 295              		.loc 1 307 13 is_stmt 0 discriminator 3
 296 010c 0509     		addi	s2,s2,1
 297              	.LVL13:
 298 010e E39329FF 		bne	s3,s2,.L22
 311:C:/Users/stapi/OneDrive/Desktop/GD32VW553/GD32VW55X_Wifi_BLE_SDK/GD32VW55x_RELEASE_V1.0.2/MSDK/ble/app\app_adapter_mgr.c ****             dbg_print(INFO, "identity addr %02X:%02X:%02X:%02X:%02X:%02X \r\n ",
 299              		.loc 1 311 13 is_stmt 1
 311:C:/Users/stapi/OneDrive/Desktop/GD32VW553/GD32VW55X_Wifi_BLE_SDK/GD32VW55x_RELEASE_V1.0.2/MSDK/ble/app\app_adapter_mgr.c ****             dbg_print(INFO, "identity addr %02X:%02X:%02X:%02X:%02X:%02X \r\n ",
 300              		.loc 1 311 13
 301 0112 83C70400 		lbu	a5,%lo(global_debug_level)(s1)
 302 0116 0D49     		li	s2,3
 303 0118 6372F904 		bleu	a5,s2,.L24
 311:C:/Users/stapi/OneDrive/Desktop/GD32VW553/GD32VW55X_Wifi_BLE_SDK/GD32VW55x_RELEASE_V1.0.2/MSDK/ble/app\app_adapter_mgr.c ****             dbg_print(INFO, "identity addr %02X:%02X:%02X:%02X:%02X:%02X \r\n ",
 304              		.loc 1 311 13 discriminator 1
 305 011c 37050000 		lui	a0,%hi(.LC6)
 306 0120 13050500 		addi	a0,a0,%lo(.LC6)
 307 0124 97000000 		call	co_printf
 307      E7800000 
 308              	.LVL14:
 311:C:/Users/stapi/OneDrive/Desktop/GD32VW553/GD32VW55X_Wifi_BLE_SDK/GD32VW55x_RELEASE_V1.0.2/MSDK/ble/app\app_adapter_mgr.c ****             dbg_print(INFO, "identity addr %02X:%02X:%02X:%02X:%02X:%02X \r\n ",
 309              		.loc 1 311 13 discriminator 1
 312:C:/Users/stapi/OneDrive/Desktop/GD32VW553/GD32VW55X_Wifi_BLE_SDK/GD32VW55x_RELEASE_V1.0.2/MSDK/ble/app\app_adapter_mgr.c ****                    p_data->adapter_info.loc_irk_info.identity.addr[5],
 310              		.loc 1 312 13 discriminator 1
 312:C:/Users/stapi/OneDrive/Desktop/GD32VW553/GD32VW55X_Wifi_BLE_SDK/GD32VW55x_RELEASE_V1.0.2/MSDK/ble/app\app_adapter_mgr.c ****                    p_data->adapter_info.loc_irk_info.identity.addr[5],
 311              		.loc 1 312 13 discriminator 1
 312 012c 83C70400 		lbu	a5,%lo(global_debug_level)(s1)
 313 0130 6376F902 		bleu	a5,s2,.L24
 312:C:/Users/stapi/OneDrive/Desktop/GD32VW553/GD32VW55X_Wifi_BLE_SDK/GD32VW55x_RELEASE_V1.0.2/MSDK/ble/app\app_adapter_mgr.c ****                    p_data->adapter_info.loc_irk_info.identity.addr[5],
 314              		.loc 1 312 13 discriminator 1
 315 0134 03483402 		lbu	a6,35(s0)
 316 0138 83474402 		lbu	a5,36(s0)
 317 013c 03475402 		lbu	a4,37(s0)
 318 0140 83466402 		lbu	a3,38(s0)
 319 0144 03467402 		lbu	a2,39(s0)
 320 0148 83458402 		lbu	a1,40(s0)
 321 014c 37050000 		lui	a0,%hi(.LC7)
 322 0150 13050500 		addi	a0,a0,%lo(.LC7)
 323 0154 97000000 		call	co_printf
 323      E7800000 
 324              	.LVL15:
 325              	.L24:
 312:C:/Users/stapi/OneDrive/Desktop/GD32VW553/GD32VW55X_Wifi_BLE_SDK/GD32VW55x_RELEASE_V1.0.2/MSDK/ble/app\app_adapter_mgr.c ****                    p_data->adapter_info.loc_irk_info.identity.addr[5],
 326              		.loc 1 312 13 discriminator 3
 320:C:/Users/stapi/OneDrive/Desktop/GD32VW553/GD32VW55X_Wifi_BLE_SDK/GD32VW55x_RELEASE_V1.0.2/MSDK/ble/app\app_adapter_mgr.c ****         }
 327              		.loc 1 320 13 discriminator 3
 320:C:/Users/stapi/OneDrive/Desktop/GD32VW553/GD32VW55X_Wifi_BLE_SDK/GD32VW55x_RELEASE_V1.0.2/MSDK/ble/app\app_adapter_mgr.c ****         }
 328              		.loc 1 320 13 discriminator 3
 329 015c 03C70400 		lbu	a4,%lo(global_debug_level)(s1)
 330 0160 8947     		li	a5,2
 331 0162 63FAE700 		bleu	a4,a5,.L16
 320:C:/Users/stapi/OneDrive/Desktop/GD32VW553/GD32VW55X_Wifi_BLE_SDK/GD32VW55x_RELEASE_V1.0.2/MSDK/ble/app\app_adapter_mgr.c ****         }
 332              		.loc 1 320 13 discriminator 1
 333 0166 37050000 		lui	a0,%hi(.LC8)
 334 016a 13050500 		addi	a0,a0,%lo(.LC8)
 335 016e 97000000 		call	co_printf
 335      E7800000 
 336              	.LVL16:
 337              	.L16:
 320:C:/Users/stapi/OneDrive/Desktop/GD32VW553/GD32VW55X_Wifi_BLE_SDK/GD32VW55x_RELEASE_V1.0.2/MSDK/ble/app\app_adapter_mgr.c ****         }
 338              		.loc 1 320 13 discriminator 3
 323:C:/Users/stapi/OneDrive/Desktop/GD32VW553/GD32VW55X_Wifi_BLE_SDK/GD32VW55x_RELEASE_V1.0.2/MSDK/ble/app\app_adapter_mgr.c ****             app_env.process_reset = false;
 339              		.loc 1 323 9 discriminator 3
 323:C:/Users/stapi/OneDrive/Desktop/GD32VW553/GD32VW55X_Wifi_BLE_SDK/GD32VW55x_RELEASE_V1.0.2/MSDK/ble/app\app_adapter_mgr.c ****             app_env.process_reset = false;
 340              		.loc 1 323 20 is_stmt 0 discriminator 3
 341 0176 37070000 		lui	a4,%hi(.LANCHOR0)
 342 017a 13070700 		addi	a4,a4,%lo(.LANCHOR0)
 323:C:/Users/stapi/OneDrive/Desktop/GD32VW553/GD32VW55X_Wifi_BLE_SDK/GD32VW55x_RELEASE_V1.0.2/MSDK/ble/app\app_adapter_mgr.c ****             app_env.process_reset = false;
 343              		.loc 1 323 12 discriminator 3
 344 017e 83470700 		lbu	a5,0(a4)
 345 0182 B7040000 		lui	s1,%hi(.LANCHOR0+9)
 346 0186 37040000 		lui	s0,%hi(.LANCHOR0+25)
 347              	.LVL17:
 348 018a C1C3     		beq	a5,zero,.L27
 324:C:/Users/stapi/OneDrive/Desktop/GD32VW553/GD32VW55X_Wifi_BLE_SDK/GD32VW55x_RELEASE_V1.0.2/MSDK/ble/app\app_adapter_mgr.c ****             app_reset();
 349              		.loc 1 324 13 is_stmt 1
 324:C:/Users/stapi/OneDrive/Desktop/GD32VW553/GD32VW55X_Wifi_BLE_SDK/GD32VW55x_RELEASE_V1.0.2/MSDK/ble/app\app_adapter_mgr.c ****             app_reset();
 350              		.loc 1 324 35 is_stmt 0
 351 018c 23000700 		sb	zero,0(a4)
 325:C:/Users/stapi/OneDrive/Desktop/GD32VW553/GD32VW55X_Wifi_BLE_SDK/GD32VW55x_RELEASE_V1.0.2/MSDK/ble/app\app_adapter_mgr.c ****         } else {
 352              		.loc 1 325 13 is_stmt 1
 353              	.LBB16:
 354              	.LBB17:
 193:C:/Users/stapi/OneDrive/Desktop/GD32VW553/GD32VW55X_Wifi_BLE_SDK/GD32VW55x_RELEASE_V1.0.2/MSDK/ble/app\app_adapter_mgr.c **** #endif
 355              		.loc 1 193 5
 356 0190 97000000 		call	app_adv_mgr_reset
 356      E7800000 
 357              	.LVL18:
 197:C:/Users/stapi/OneDrive/Desktop/GD32VW553/GD32VW55X_Wifi_BLE_SDK/GD32VW55x_RELEASE_V1.0.2/MSDK/ble/app\app_adapter_mgr.c ****     app_conn_mgr_reset();
 358              		.loc 1 197 5
 359 0198 97000000 		call	app_sec_mgr_reset
 359      E7800000 
 360              	.LVL19:
 198:C:/Users/stapi/OneDrive/Desktop/GD32VW553/GD32VW55X_Wifi_BLE_SDK/GD32VW55x_RELEASE_V1.0.2/MSDK/ble/app\app_adapter_mgr.c **** #endif
 361              		.loc 1 198 5
 362 01a0 97000000 		call	app_conn_mgr_reset
 362      E7800000 
 363              	.LVL20:
 201:C:/Users/stapi/OneDrive/Desktop/GD32VW553/GD32VW55X_Wifi_BLE_SDK/GD32VW55x_RELEASE_V1.0.2/MSDK/ble/app\app_adapter_mgr.c **** 
 364              		.loc 1 201 5
 365 01a8 97000000 		call	app_list_mgr_reset
 365      E7800000 
 366              	.LVL21:
 203:C:/Users/stapi/OneDrive/Desktop/GD32VW553/GD32VW55X_Wifi_BLE_SDK/GD32VW55x_RELEASE_V1.0.2/MSDK/ble/app\app_adapter_mgr.c **** 
 367              		.loc 1 203 5
 368 01b0 97000000 		call	app_l2cap_reset
 368      E7800000 
 369              	.LVL22:
 205:C:/Users/stapi/OneDrive/Desktop/GD32VW553/GD32VW55X_Wifi_BLE_SDK/GD32VW55x_RELEASE_V1.0.2/MSDK/ble/app\app_adapter_mgr.c **** 
 370              		.loc 1 205 5
 371 01b8 97000000 		call	app_dm_reset
 371      E7800000 
 372              	.LVL23:
 208:C:/Users/stapi/OneDrive/Desktop/GD32VW553/GD32VW55X_Wifi_BLE_SDK/GD32VW55x_RELEASE_V1.0.2/MSDK/ble/app\app_adapter_mgr.c **** #endif
 373              		.loc 1 208 5
 374 01c0 97000000 		call	app_scan_mgr_reset
 374      E7800000 
 375              	.LVL24:
 212:C:/Users/stapi/OneDrive/Desktop/GD32VW553/GD32VW55X_Wifi_BLE_SDK/GD32VW55x_RELEASE_V1.0.2/MSDK/ble/app\app_adapter_mgr.c **** #endif
 376              		.loc 1 212 5
 377 01c8 97000000 		call	app_per_sync_mgr_reset
 377      E7800000 
 378              	.LVL25:
 215:C:/Users/stapi/OneDrive/Desktop/GD32VW553/GD32VW55X_Wifi_BLE_SDK/GD32VW55x_RELEASE_V1.0.2/MSDK/ble/app\app_adapter_mgr.c ****     ble_adp_name_set((uint8_t *)app_env.adapter_name, strlen((char *)app_env.adapter_name));
 379              		.loc 1 215 5
 380 01d0 13859400 		addi	a0,s1,%lo(.LANCHOR0+9)
 381 01d4 97000000 		call	ble_adp_loc_irk_get
 381      E7800000 
 382              	.LVL26:
 216:C:/Users/stapi/OneDrive/Desktop/GD32VW553/GD32VW55X_Wifi_BLE_SDK/GD32VW55x_RELEASE_V1.0.2/MSDK/ble/app\app_adapter_mgr.c **** 
 383              		.loc 1 216 5
 216:C:/Users/stapi/OneDrive/Desktop/GD32VW553/GD32VW55X_Wifi_BLE_SDK/GD32VW55x_RELEASE_V1.0.2/MSDK/ble/app\app_adapter_mgr.c **** 
 384              		.loc 1 216 55 is_stmt 0
 385 01dc 13059401 		addi	a0,s0,%lo(.LANCHOR0+25)
 386 01e0 97000000 		call	strlen
 386      E7800000 
 387              	.LVL27:
 216:C:/Users/stapi/OneDrive/Desktop/GD32VW553/GD32VW55X_Wifi_BLE_SDK/GD32VW55x_RELEASE_V1.0.2/MSDK/ble/app\app_adapter_mgr.c **** 
 388              		.loc 1 216 5
 389 01e8 9375F50F 		andi	a1,a0,0xff
 390 01ec 13059401 		addi	a0,s0,%lo(.LANCHOR0+25)
 391 01f0 97000000 		call	ble_adp_name_set
 391      E7800000 
 392              	.LVL28:
 218:C:/Users/stapi/OneDrive/Desktop/GD32VW553/GD32VW55X_Wifi_BLE_SDK/GD32VW55x_RELEASE_V1.0.2/MSDK/ble/app\app_adapter_mgr.c **** }
 393              		.loc 1 218 5 is_stmt 1
 394              	.LBB18:
 395              	.LBB19:
 160:C:/Users/stapi/OneDrive/Desktop/GD32VW553/GD32VW55X_Wifi_BLE_SDK/GD32VW55x_RELEASE_V1.0.2/MSDK/ble/app\app_adapter_mgr.c **** #endif
 396              		.loc 1 160 5
 397 01f8 97000000 		call	ble_app_diss_init
 397      E7800000 
 398              	.LVL29:
 176:C:/Users/stapi/OneDrive/Desktop/GD32VW553/GD32VW55X_Wifi_BLE_SDK/GD32VW55x_RELEASE_V1.0.2/MSDK/ble/app\app_adapter_mgr.c **** #endif
 399              		.loc 1 176 5
 400 0200 97000000 		call	app_blue_courier_init
 400      E7800000 
 401              	.LVL30:
 182:C:/Users/stapi/OneDrive/Desktop/GD32VW553/GD32VW55X_Wifi_BLE_SDK/GD32VW55x_RELEASE_V1.0.2/MSDK/ble/app\app_adapter_mgr.c **** 
 402              		.loc 1 182 1 is_stmt 0
 403 0208 0DB5     		j	.L3
 404              	.L27:
 405              	.LBE19:
 406              	.LBE18:
 407              	.LBE17:
 408              	.LBE16:
 327:C:/Users/stapi/OneDrive/Desktop/GD32VW553/GD32VW55X_Wifi_BLE_SDK/GD32VW55x_RELEASE_V1.0.2/MSDK/ble/app\app_adapter_mgr.c ****             ble_task_ready();
 409              		.loc 1 327 13 is_stmt 1
 410              	.LVL31:
 411              	.LBB20:
 412              	.LBB21:
 102:C:/Users/stapi/OneDrive/Desktop/GD32VW553/GD32VW55X_Wifi_BLE_SDK/GD32VW55x_RELEASE_V1.0.2/MSDK/ble/app\app_adapter_mgr.c **** 
 413              		.loc 1 102 5
 104:C:/Users/stapi/OneDrive/Desktop/GD32VW553/GD32VW55X_Wifi_BLE_SDK/GD32VW55x_RELEASE_V1.0.2/MSDK/ble/app\app_adapter_mgr.c ****                        "%s-%02x:%02x:%02x:%02x:%02x:%02x", APP_DFLT_DEVICE_NAME,
 414              		.loc 1 104 5
 104:C:/Users/stapi/OneDrive/Desktop/GD32VW553/GD32VW55X_Wifi_BLE_SDK/GD32VW55x_RELEASE_V1.0.2/MSDK/ble/app\app_adapter_mgr.c ****                        "%s-%02x:%02x:%02x:%02x:%02x:%02x", APP_DFLT_DEVICE_NAME,
 415              		.loc 1 104 15 is_stmt 0
 416 020a 83477700 		lbu	a5,7(a4)
 417 020e B7060000 		lui	a3,%hi(.LC9)
 418 0212 37060000 		lui	a2,%hi(.LC10)
 419 0216 3EC2     		sw	a5,4(sp)
 420              	.LVL32:
 421 0218 83476700 		lbu	a5,6(a4)
 422 021c 93860600 		addi	a3,a3,%lo(.LC9)
 423 0220 13060600 		addi	a2,a2,%lo(.LC10)
 424 0224 3EC0     		sw	a5,0(sp)
 425 0226 83485700 		lbu	a7,5(a4)
 426 022a 03484700 		lbu	a6,4(a4)
 427 022e 83473700 		lbu	a5,3(a4)
 428 0232 03472700 		lbu	a4,2(a4)
 429 0236 FD45     		li	a1,31
 430 0238 13059401 		addi	a0,s0,%lo(.LANCHOR0+25)
 431 023c 97000000 		call	snprintf
 431      E7800000 
 432              	.LVL33:
 110:C:/Users/stapi/OneDrive/Desktop/GD32VW553/GD32VW55X_Wifi_BLE_SDK/GD32VW55x_RELEASE_V1.0.2/MSDK/ble/app\app_adapter_mgr.c **** 
 433              		.loc 1 110 5 is_stmt 1
 112:C:/Users/stapi/OneDrive/Desktop/GD32VW553/GD32VW55X_Wifi_BLE_SDK/GD32VW55x_RELEASE_V1.0.2/MSDK/ble/app\app_adapter_mgr.c ****     ble_adp_name_set((uint8_t *)app_env.adapter_name, str_len);
 434              		.loc 1 112 5
 435 0244 13859400 		addi	a0,s1,%lo(.LANCHOR0+9)
 436 0248 97000000 		call	ble_adp_loc_irk_get
 436      E7800000 
 437              	.LVL34:
 113:C:/Users/stapi/OneDrive/Desktop/GD32VW553/GD32VW55X_Wifi_BLE_SDK/GD32VW55x_RELEASE_V1.0.2/MSDK/ble/app\app_adapter_mgr.c **** }
 438              		.loc 1 113 5
 439 0250 E145     		li	a1,24
 440 0252 13059401 		addi	a0,s0,%lo(.LANCHOR0+25)
 441 0256 97000000 		call	ble_adp_name_set
 441      E7800000 
 442              	.LVL35:
 443              	.LBE21:
 444              	.LBE20:
 328:C:/Users/stapi/OneDrive/Desktop/GD32VW553/GD32VW55X_Wifi_BLE_SDK/GD32VW55x_RELEASE_V1.0.2/MSDK/ble/app\app_adapter_mgr.c ****         }
 445              		.loc 1 328 13
 446 025e 97000000 		call	ble_task_ready
 446      E7800000 
 447              	.LVL36:
 448 0266 D1B3     		j	.L3
 449              	.LVL37:
 450              	.L12:
 333:C:/Users/stapi/OneDrive/Desktop/GD32VW553/GD32VW55X_Wifi_BLE_SDK/GD32VW55x_RELEASE_V1.0.2/MSDK/ble/app\app_adapter_mgr.c ****             ble_deinit();
 451              		.loc 1 333 9
 333:C:/Users/stapi/OneDrive/Desktop/GD32VW553/GD32VW55X_Wifi_BLE_SDK/GD32VW55x_RELEASE_V1.0.2/MSDK/ble/app\app_adapter_mgr.c ****             ble_deinit();
 452              		.loc 1 333 12 is_stmt 0
 453 0268 83D70500 		lhu	a5,0(a1)
 454 026c E39F07DA 		bne	a5,zero,.L3
 334:C:/Users/stapi/OneDrive/Desktop/GD32VW553/GD32VW55X_Wifi_BLE_SDK/GD32VW55x_RELEASE_V1.0.2/MSDK/ble/app\app_adapter_mgr.c ****             app_print("ble disable success\r\n");
 455              		.loc 1 334 13 is_stmt 1
 456 0270 97000000 		call	ble_deinit
 456      E7800000 
 457              	.LVL38:
 335:C:/Users/stapi/OneDrive/Desktop/GD32VW553/GD32VW55X_Wifi_BLE_SDK/GD32VW55x_RELEASE_V1.0.2/MSDK/ble/app\app_adapter_mgr.c ****         }
 458              		.loc 1 335 13
 459 0278 37050000 		lui	a0,%hi(.LC11)
 460 027c 13050500 		addi	a0,a0,%lo(.LC11)
 461 0280 97000000 		call	co_printf
 461      E7800000 
 462              	.LVL39:
 463 0288 4DB3     		j	.L3
 464              	.L11:
 340:C:/Users/stapi/OneDrive/Desktop/GD32VW553/GD32VW55X_Wifi_BLE_SDK/GD32VW55x_RELEASE_V1.0.2/MSDK/ble/app\app_adapter_mgr.c ****         break;
 465              		.loc 1 340 9
 466              	.LVL40:
 467              	.LBB22:
 468              	.LBB23:
 229:C:/Users/stapi/OneDrive/Desktop/GD32VW553/GD32VW55X_Wifi_BLE_SDK/GD32VW55x_RELEASE_V1.0.2/MSDK/ble/app\app_adapter_mgr.c ****            p_info->addr.addr[5], p_info->addr.addr[4], p_info->addr.addr[3],
 469              		.loc 1 229 5
 229:C:/Users/stapi/OneDrive/Desktop/GD32VW553/GD32VW55X_Wifi_BLE_SDK/GD32VW55x_RELEASE_V1.0.2/MSDK/ble/app\app_adapter_mgr.c ****            p_info->addr.addr[5], p_info->addr.addr[4], p_info->addr.addr[3],
 470              		.loc 1 229 5
 471 028a B7070000 		lui	a5,%hi(global_debug_level)
 472 028e 03C70700 		lbu	a4,%lo(global_debug_level)(a5)
 473 0292 8947     		li	a5,2
 474 0294 63F8E702 		bleu	a4,a5,.L28
 229:C:/Users/stapi/OneDrive/Desktop/GD32VW553/GD32VW55X_Wifi_BLE_SDK/GD32VW55x_RELEASE_V1.0.2/MSDK/ble/app\app_adapter_mgr.c ****            p_info->addr.addr[5], p_info->addr.addr[4], p_info->addr.addr[3],
 475              		.loc 1 229 5
 476 0298 83C80500 		lbu	a7,0(a1)
 477 029c 03C81500 		lbu	a6,1(a1)
 478 02a0 83C72500 		lbu	a5,2(a1)
 479 02a4 03C73500 		lbu	a4,3(a1)
 480 02a8 83C64500 		lbu	a3,4(a1)
 481 02ac 03C65500 		lbu	a2,5(a1)
 482 02b0 83C56500 		lbu	a1,6(a1)
 483 02b4 37050000 		lui	a0,%hi(.LC12)
 484 02b8 13050500 		addi	a0,a0,%lo(.LC12)
 485 02bc 97000000 		call	co_printf
 485      E7800000 
 486              	.LVL41:
 487              	.L28:
 229:C:/Users/stapi/OneDrive/Desktop/GD32VW553/GD32VW55X_Wifi_BLE_SDK/GD32VW55x_RELEASE_V1.0.2/MSDK/ble/app\app_adapter_mgr.c ****            p_info->addr.addr[5], p_info->addr.addr[4], p_info->addr.addr[3],
 488              		.loc 1 229 5
 234:C:/Users/stapi/OneDrive/Desktop/GD32VW553/GD32VW55X_Wifi_BLE_SDK/GD32VW55x_RELEASE_V1.0.2/MSDK/ble/app\app_adapter_mgr.c ****     memcpy(app_env.id_addr.addr, p_info->addr.addr, BLE_GAP_ADDR_LEN);
 489              		.loc 1 234 5
 234:C:/Users/stapi/OneDrive/Desktop/GD32VW553/GD32VW55X_Wifi_BLE_SDK/GD32VW55x_RELEASE_V1.0.2/MSDK/ble/app\app_adapter_mgr.c ****     memcpy(app_env.id_addr.addr, p_info->addr.addr, BLE_GAP_ADDR_LEN);
 490              		.loc 1 234 31 is_stmt 0
 491 02c4 83470400 		lbu	a5,0(s0)
 492 02c8 37050000 		lui	a0,%hi(.LANCHOR0)
 493 02cc 13050500 		addi	a0,a0,%lo(.LANCHOR0)
 494 02d0 A300F500 		sb	a5,1(a0)
 235:C:/Users/stapi/OneDrive/Desktop/GD32VW553/GD32VW55X_Wifi_BLE_SDK/GD32VW55x_RELEASE_V1.0.2/MSDK/ble/app\app_adapter_mgr.c **** }
 495              		.loc 1 235 5 is_stmt 1
 496 02d4 1946     		li	a2,6
 497 02d6 93051400 		addi	a1,s0,1
 498 02da 0905     		addi	a0,a0,2
 499 02dc 97000000 		call	memcpy
 499      E7800000 
 500              	.LVL42:
 236:C:/Users/stapi/OneDrive/Desktop/GD32VW553/GD32VW55X_Wifi_BLE_SDK/GD32VW55x_RELEASE_V1.0.2/MSDK/ble/app\app_adapter_mgr.c **** 
 501              		.loc 1 236 1 is_stmt 0
 502 02e4 99B3     		j	.L3
 503              	.LVL43:
 504              	.L10:
 505              	.LBE23:
 506              	.LBE22:
 344:C:/Users/stapi/OneDrive/Desktop/GD32VW553/GD32VW55X_Wifi_BLE_SDK/GD32VW55x_RELEASE_V1.0.2/MSDK/ble/app\app_adapter_mgr.c ****         break;
 507              		.loc 1 344 9 is_stmt 1
 508              	.LBB24:
 509              	.LBB25:
 246:C:/Users/stapi/OneDrive/Desktop/GD32VW553/GD32VW55X_Wifi_BLE_SDK/GD32VW55x_RELEASE_V1.0.2/MSDK/ble/app\app_adapter_mgr.c ****         dbg_print(NOTICE, "BLE generated random addr: %02X:%02X:%02X:%02X:%02X:%02X\r\n",
 510              		.loc 1 246 5
 246:C:/Users/stapi/OneDrive/Desktop/GD32VW553/GD32VW55X_Wifi_BLE_SDK/GD32VW55x_RELEASE_V1.0.2/MSDK/ble/app\app_adapter_mgr.c ****         dbg_print(NOTICE, "BLE generated random addr: %02X:%02X:%02X:%02X:%02X:%02X\r\n",
 511              		.loc 1 246 8 is_stmt 0
 512 02e6 83D70500 		lhu	a5,0(a1)
 513 02ea E39007D4 		bne	a5,zero,.L3
 247:C:/Users/stapi/OneDrive/Desktop/GD32VW553/GD32VW55X_Wifi_BLE_SDK/GD32VW55x_RELEASE_V1.0.2/MSDK/ble/app\app_adapter_mgr.c ****                p_rsp->addr[5], p_rsp->addr[4], p_rsp->addr[3],
 514              		.loc 1 247 9 is_stmt 1
 247:C:/Users/stapi/OneDrive/Desktop/GD32VW553/GD32VW55X_Wifi_BLE_SDK/GD32VW55x_RELEASE_V1.0.2/MSDK/ble/app\app_adapter_mgr.c ****                p_rsp->addr[5], p_rsp->addr[4], p_rsp->addr[3],
 515              		.loc 1 247 9
 516 02ee B7070000 		lui	a5,%hi(global_debug_level)
 517 02f2 03C70700 		lbu	a4,%lo(global_debug_level)(a5)
 518 02f6 8947     		li	a5,2
 519 02f8 E3F9E7D2 		bleu	a4,a5,.L3
 247:C:/Users/stapi/OneDrive/Desktop/GD32VW553/GD32VW55X_Wifi_BLE_SDK/GD32VW55x_RELEASE_V1.0.2/MSDK/ble/app\app_adapter_mgr.c ****                p_rsp->addr[5], p_rsp->addr[4], p_rsp->addr[3],
 520              		.loc 1 247 9
 521 02fc 03C82500 		lbu	a6,2(a1)
 522 0300 83C73500 		lbu	a5,3(a1)
 523 0304 03C74500 		lbu	a4,4(a1)
 524 0308 83C65500 		lbu	a3,5(a1)
 525 030c 03C66500 		lbu	a2,6(a1)
 526 0310 83C57500 		lbu	a1,7(a1)
 527 0314 37050000 		lui	a0,%hi(.LC13)
 528 0318 13050500 		addi	a0,a0,%lo(.LC13)
 529 031c 97000000 		call	co_printf
 529      E7800000 
 530              	.LVL44:
 531 0324 19B3     		j	.L3
 532              	.LVL45:
 533              	.L7:
 534              	.LBE25:
 535              	.LBE24:
 348:C:/Users/stapi/OneDrive/Desktop/GD32VW553/GD32VW55X_Wifi_BLE_SDK/GD32VW55x_RELEASE_V1.0.2/MSDK/ble/app\app_adapter_mgr.c ****         break;
 536              		.loc 1 348 9
 537              	.LBB26:
 538              	.LBB27:
 261:C:/Users/stapi/OneDrive/Desktop/GD32VW553/GD32VW55X_Wifi_BLE_SDK/GD32VW55x_RELEASE_V1.0.2/MSDK/ble/app\app_adapter_mgr.c **** }
 539              		.loc 1 261 5
 261:C:/Users/stapi/OneDrive/Desktop/GD32VW553/GD32VW55X_Wifi_BLE_SDK/GD32VW55x_RELEASE_V1.0.2/MSDK/ble/app\app_adapter_mgr.c **** }
 540              		.loc 1 261 5
 541 0326 B7070000 		lui	a5,%hi(global_debug_level)
 542 032a 03C70700 		lbu	a4,%lo(global_debug_level)(a5)
 543 032e 8947     		li	a5,2
 544 0330 E3FDE7CE 		bleu	a4,a5,.L3
 261:C:/Users/stapi/OneDrive/Desktop/GD32VW553/GD32VW55X_Wifi_BLE_SDK/GD32VW55x_RELEASE_V1.0.2/MSDK/ble/app\app_adapter_mgr.c **** }
 545              		.loc 1 261 5
 546 0334 83D50500 		lhu	a1,0(a1)
 547 0338 37050000 		lui	a0,%hi(.LC14)
 548 033c 13050500 		addi	a0,a0,%lo(.LC14)
 549              	.LVL46:
 550              	.L35:
 551              	.LBE27:
 552              	.LBE26:
 360:C:/Users/stapi/OneDrive/Desktop/GD32VW553/GD32VW55X_Wifi_BLE_SDK/GD32VW55x_RELEASE_V1.0.2/MSDK/ble/app\app_adapter_mgr.c ****         break;
 553              		.loc 1 360 9 is_stmt 0 discriminator 1
 554 0340 97000000 		call	co_printf
 554      E7800000 
 555              	.LVL47:
 556              		.loc 1 366 1 discriminator 1
 557 0348 CDB1     		j	.L3
 558              	.L5:
 352:C:/Users/stapi/OneDrive/Desktop/GD32VW553/GD32VW55X_Wifi_BLE_SDK/GD32VW55x_RELEASE_V1.0.2/MSDK/ble/app\app_adapter_mgr.c ****         break;
 559              		.loc 1 352 9 is_stmt 1
 560              	.LVL48:
 561              	.LBB28:
 562              	.LBB29:
 272:C:/Users/stapi/OneDrive/Desktop/GD32VW553/GD32VW55X_Wifi_BLE_SDK/GD32VW55x_RELEASE_V1.0.2/MSDK/ble/app\app_adapter_mgr.c **** }
 563              		.loc 1 272 5
 272:C:/Users/stapi/OneDrive/Desktop/GD32VW553/GD32VW55X_Wifi_BLE_SDK/GD32VW55x_RELEASE_V1.0.2/MSDK/ble/app\app_adapter_mgr.c **** }
 564              		.loc 1 272 5
 565 034a B7070000 		lui	a5,%hi(global_debug_level)
 566 034e 03C70700 		lbu	a4,%lo(global_debug_level)(a5)
 567 0352 8947     		li	a5,2
 568 0354 E3FBE7CC 		bleu	a4,a5,.L3
 272:C:/Users/stapi/OneDrive/Desktop/GD32VW553/GD32VW55X_Wifi_BLE_SDK/GD32VW55x_RELEASE_V1.0.2/MSDK/ble/app\app_adapter_mgr.c **** }
 569              		.loc 1 272 5
 570 0358 37050000 		lui	a0,%hi(.LC15)
 571 035c 83D50500 		lhu	a1,0(a1)
 572 0360 13050500 		addi	a0,a0,%lo(.LC15)
 573 0364 F1BF     		j	.L35
 574              	.LVL49:
 575              	.L9:
 576              	.LBE29:
 577              	.LBE28:
 356:C:/Users/stapi/OneDrive/Desktop/GD32VW553/GD32VW55X_Wifi_BLE_SDK/GD32VW55x_RELEASE_V1.0.2/MSDK/ble/app\app_adapter_mgr.c ****         break;
 578              		.loc 1 356 9
 356:C:/Users/stapi/OneDrive/Desktop/GD32VW553/GD32VW55X_Wifi_BLE_SDK/GD32VW55x_RELEASE_V1.0.2/MSDK/ble/app\app_adapter_mgr.c ****         break;
 579              		.loc 1 356 9
 580 0366 B7070000 		lui	a5,%hi(global_debug_level)
 581 036a 03C70700 		lbu	a4,%lo(global_debug_level)(a5)
 582 036e 8947     		li	a5,2
 583 0370 E3FDE7CA 		bleu	a4,a5,.L3
 356:C:/Users/stapi/OneDrive/Desktop/GD32VW553/GD32VW55X_Wifi_BLE_SDK/GD32VW55x_RELEASE_V1.0.2/MSDK/ble/app\app_adapter_mgr.c ****         break;
 584              		.loc 1 356 9 discriminator 1
 585 0374 37050000 		lui	a0,%hi(.LC16)
 586 0378 83D50500 		lhu	a1,0(a1)
 587 037c 13050500 		addi	a0,a0,%lo(.LC16)
 588 0380 C1B7     		j	.L35
 589              	.L8:
 360:C:/Users/stapi/OneDrive/Desktop/GD32VW553/GD32VW55X_Wifi_BLE_SDK/GD32VW55x_RELEASE_V1.0.2/MSDK/ble/app\app_adapter_mgr.c ****         break;
 590              		.loc 1 360 9
 360:C:/Users/stapi/OneDrive/Desktop/GD32VW553/GD32VW55X_Wifi_BLE_SDK/GD32VW55x_RELEASE_V1.0.2/MSDK/ble/app\app_adapter_mgr.c ****         break;
 591              		.loc 1 360 9
 592 0382 B7070000 		lui	a5,%hi(global_debug_level)
 593 0386 03C70700 		lbu	a4,%lo(global_debug_level)(a5)
 594 038a 8947     		li	a5,2
 595 038c E3FFE7C8 		bleu	a4,a5,.L3
 360:C:/Users/stapi/OneDrive/Desktop/GD32VW553/GD32VW55X_Wifi_BLE_SDK/GD32VW55x_RELEASE_V1.0.2/MSDK/ble/app\app_adapter_mgr.c ****         break;
 596              		.loc 1 360 9 discriminator 1
 597 0390 37050000 		lui	a0,%hi(.LC17)
 598 0394 83D50500 		lhu	a1,0(a1)
 599 0398 13050500 		addi	a0,a0,%lo(.LC17)
 600 039c 55B7     		j	.L35
 601              	.LVL50:
 602              	.L32:
 603              		.cfi_def_cfa_offset 0
 604              		.cfi_restore 1
 605              		.cfi_restore 8
 606              		.cfi_restore 9
 607              		.cfi_restore 18
 608              		.cfi_restore 19
 609              		.cfi_restore 20
 610              		.cfi_restore 21
 611 039e 8280     		ret
 612              		.cfi_endproc
 613              	.LFE29:
 615              		.section	.text.app_adapter_init,"ax",@progbits
 616              		.align	1
 617              		.globl	app_adapter_init
 619              	app_adapter_init:
 620              	.LFB30:
 367:C:/Users/stapi/OneDrive/Desktop/GD32VW553/GD32VW55X_Wifi_BLE_SDK/GD32VW55x_RELEASE_V1.0.2/MSDK/ble/app\app_adapter_mgr.c **** 
 368:C:/Users/stapi/OneDrive/Desktop/GD32VW553/GD32VW55X_Wifi_BLE_SDK/GD32VW55x_RELEASE_V1.0.2/MSDK/ble/app\app_adapter_mgr.c **** /*!
 369:C:/Users/stapi/OneDrive/Desktop/GD32VW553/GD32VW55X_Wifi_BLE_SDK/GD32VW55x_RELEASE_V1.0.2/MSDK/ble/app\app_adapter_mgr.c ****     \brief      Init adapter application module
 370:C:/Users/stapi/OneDrive/Desktop/GD32VW553/GD32VW55X_Wifi_BLE_SDK/GD32VW55x_RELEASE_V1.0.2/MSDK/ble/app\app_adapter_mgr.c ****     \param[in]  none
 371:C:/Users/stapi/OneDrive/Desktop/GD32VW553/GD32VW55X_Wifi_BLE_SDK/GD32VW55x_RELEASE_V1.0.2/MSDK/ble/app\app_adapter_mgr.c ****     \param[out] none
 372:C:/Users/stapi/OneDrive/Desktop/GD32VW553/GD32VW55X_Wifi_BLE_SDK/GD32VW55x_RELEASE_V1.0.2/MSDK/ble/app\app_adapter_mgr.c ****     \retval     none
 373:C:/Users/stapi/OneDrive/Desktop/GD32VW553/GD32VW55X_Wifi_BLE_SDK/GD32VW55x_RELEASE_V1.0.2/MSDK/ble/app\app_adapter_mgr.c **** */
 374:C:/Users/stapi/OneDrive/Desktop/GD32VW553/GD32VW55X_Wifi_BLE_SDK/GD32VW55x_RELEASE_V1.0.2/MSDK/ble/app\app_adapter_mgr.c **** void app_adapter_init(void)
 375:C:/Users/stapi/OneDrive/Desktop/GD32VW553/GD32VW55X_Wifi_BLE_SDK/GD32VW55x_RELEASE_V1.0.2/MSDK/ble/app\app_adapter_mgr.c **** {
 621              		.loc 1 375 1
 622              		.cfi_startproc
 623 0000 17030000 		call	t0,__riscv_save_0
 623      E7020300 
 624              		.cfi_offset 1, -4
 625              		.cfi_def_cfa_offset 16
 376:C:/Users/stapi/OneDrive/Desktop/GD32VW553/GD32VW55X_Wifi_BLE_SDK/GD32VW55x_RELEASE_V1.0.2/MSDK/ble/app\app_adapter_mgr.c ****     // Reset the application manager environment
 377:C:/Users/stapi/OneDrive/Desktop/GD32VW553/GD32VW55X_Wifi_BLE_SDK/GD32VW55x_RELEASE_V1.0.2/MSDK/ble/app\app_adapter_mgr.c ****     memset(&app_env, 0, sizeof(app_env));
 626              		.loc 1 377 5
 627 0008 37050000 		lui	a0,%hi(.LANCHOR0)
 628 000c 13068003 		li	a2,56
 629 0010 8145     		li	a1,0
 630 0012 13050500 		addi	a0,a0,%lo(.LANCHOR0)
 631 0016 97000000 		call	memset
 631      E7800000 
 632              	.LVL51:
 378:C:/Users/stapi/OneDrive/Desktop/GD32VW553/GD32VW55X_Wifi_BLE_SDK/GD32VW55x_RELEASE_V1.0.2/MSDK/ble/app\app_adapter_mgr.c **** 
 379:C:/Users/stapi/OneDrive/Desktop/GD32VW553/GD32VW55X_Wifi_BLE_SDK/GD32VW55x_RELEASE_V1.0.2/MSDK/ble/app\app_adapter_mgr.c ****     ble_adp_callback_register(ble_adp_evt_handler);
 633              		.loc 1 379 5
 634 001e 37050000 		lui	a0,%hi(ble_adp_evt_handler)
 635 0022 13050500 		addi	a0,a0,%lo(ble_adp_evt_handler)
 636 0026 97000000 		call	ble_adp_callback_register
 636      E7800000 
 637              	.LVL52:
 380:C:/Users/stapi/OneDrive/Desktop/GD32VW553/GD32VW55X_Wifi_BLE_SDK/GD32VW55x_RELEASE_V1.0.2/MSDK/ble/app\app_adapter_mgr.c **** 
 381:C:/Users/stapi/OneDrive/Desktop/GD32VW553/GD32VW55X_Wifi_BLE_SDK/GD32VW55x_RELEASE_V1.0.2/MSDK/ble/app\app_adapter_mgr.c ****     app_adapter_cfg();
 638              		.loc 1 381 5
 639 002e 97000000 		call	app_adapter_cfg
 639      E7800000 
 640              	.LVL53:
 382:C:/Users/stapi/OneDrive/Desktop/GD32VW553/GD32VW55X_Wifi_BLE_SDK/GD32VW55x_RELEASE_V1.0.2/MSDK/ble/app\app_adapter_mgr.c **** }
 641              		.loc 1 382 1 is_stmt 0
 642 0036 17030000 		tail	__riscv_restore_0
 642      67000300 
 643              		.cfi_restore 1
 644              		.cfi_def_cfa_offset 0
 645              		.cfi_endproc
 646              	.LFE30:
 648              		.section	.text.app_adapter_deinit,"ax",@progbits
 649              		.align	1
 650              		.globl	app_adapter_deinit
 652              	app_adapter_deinit:
 653              	.LFB31:
 383:C:/Users/stapi/OneDrive/Desktop/GD32VW553/GD32VW55X_Wifi_BLE_SDK/GD32VW55x_RELEASE_V1.0.2/MSDK/ble/app\app_adapter_mgr.c **** 
 384:C:/Users/stapi/OneDrive/Desktop/GD32VW553/GD32VW55X_Wifi_BLE_SDK/GD32VW55x_RELEASE_V1.0.2/MSDK/ble/app\app_adapter_mgr.c **** /*!
 385:C:/Users/stapi/OneDrive/Desktop/GD32VW553/GD32VW55X_Wifi_BLE_SDK/GD32VW55x_RELEASE_V1.0.2/MSDK/ble/app\app_adapter_mgr.c ****     \brief      Deinit adapter application module
 386:C:/Users/stapi/OneDrive/Desktop/GD32VW553/GD32VW55X_Wifi_BLE_SDK/GD32VW55x_RELEASE_V1.0.2/MSDK/ble/app\app_adapter_mgr.c ****     \param[in]  none
 387:C:/Users/stapi/OneDrive/Desktop/GD32VW553/GD32VW55X_Wifi_BLE_SDK/GD32VW55x_RELEASE_V1.0.2/MSDK/ble/app\app_adapter_mgr.c ****     \param[out] none
 388:C:/Users/stapi/OneDrive/Desktop/GD32VW553/GD32VW55X_Wifi_BLE_SDK/GD32VW55x_RELEASE_V1.0.2/MSDK/ble/app\app_adapter_mgr.c ****     \retval     none
 389:C:/Users/stapi/OneDrive/Desktop/GD32VW553/GD32VW55X_Wifi_BLE_SDK/GD32VW55x_RELEASE_V1.0.2/MSDK/ble/app\app_adapter_mgr.c **** */
 390:C:/Users/stapi/OneDrive/Desktop/GD32VW553/GD32VW55X_Wifi_BLE_SDK/GD32VW55x_RELEASE_V1.0.2/MSDK/ble/app\app_adapter_mgr.c **** void app_adapter_deinit(void)
 391:C:/Users/stapi/OneDrive/Desktop/GD32VW553/GD32VW55X_Wifi_BLE_SDK/GD32VW55x_RELEASE_V1.0.2/MSDK/ble/app\app_adapter_mgr.c **** {
 654              		.loc 1 391 1 is_stmt 1
 655              		.cfi_startproc
 392:C:/Users/stapi/OneDrive/Desktop/GD32VW553/GD32VW55X_Wifi_BLE_SDK/GD32VW55x_RELEASE_V1.0.2/MSDK/ble/app\app_adapter_mgr.c ****     ble_adp_callback_unregister(ble_adp_evt_handler);
 656              		.loc 1 392 5
 657 0000 37050000 		lui	a0,%hi(ble_adp_evt_handler)
 658 0004 13050500 		addi	a0,a0,%lo(ble_adp_evt_handler)
 659 0008 17030000 		tail	ble_adp_callback_unregister
 659      67000300 
 660              	.LVL54:
 661              		.cfi_endproc
 662              	.LFE31:
 664              		.section	.text.app_le_set_chann_map,"ax",@progbits
 665              		.align	1
 666              		.globl	app_le_set_chann_map
 668              	app_le_set_chann_map:
 669              	.LFB32:
 393:C:/Users/stapi/OneDrive/Desktop/GD32VW553/GD32VW55X_Wifi_BLE_SDK/GD32VW55x_RELEASE_V1.0.2/MSDK/ble/app\app_adapter_mgr.c **** }
 394:C:/Users/stapi/OneDrive/Desktop/GD32VW553/GD32VW55X_Wifi_BLE_SDK/GD32VW55x_RELEASE_V1.0.2/MSDK/ble/app\app_adapter_mgr.c **** 
 395:C:/Users/stapi/OneDrive/Desktop/GD32VW553/GD32VW55X_Wifi_BLE_SDK/GD32VW55x_RELEASE_V1.0.2/MSDK/ble/app\app_adapter_mgr.c **** /*!
 396:C:/Users/stapi/OneDrive/Desktop/GD32VW553/GD32VW55X_Wifi_BLE_SDK/GD32VW55x_RELEASE_V1.0.2/MSDK/ble/app\app_adapter_mgr.c ****     \brief      Set BLE channel map
 397:C:/Users/stapi/OneDrive/Desktop/GD32VW553/GD32VW55X_Wifi_BLE_SDK/GD32VW55x_RELEASE_V1.0.2/MSDK/ble/app\app_adapter_mgr.c ****     \param[in]  map: BLE channel map
 398:C:/Users/stapi/OneDrive/Desktop/GD32VW553/GD32VW55X_Wifi_BLE_SDK/GD32VW55x_RELEASE_V1.0.2/MSDK/ble/app\app_adapter_mgr.c ****     \param[out] none
 399:C:/Users/stapi/OneDrive/Desktop/GD32VW553/GD32VW55X_Wifi_BLE_SDK/GD32VW55x_RELEASE_V1.0.2/MSDK/ble/app\app_adapter_mgr.c ****     \retval     none
 400:C:/Users/stapi/OneDrive/Desktop/GD32VW553/GD32VW55X_Wifi_BLE_SDK/GD32VW55x_RELEASE_V1.0.2/MSDK/ble/app\app_adapter_mgr.c **** */
 401:C:/Users/stapi/OneDrive/Desktop/GD32VW553/GD32VW55X_Wifi_BLE_SDK/GD32VW55x_RELEASE_V1.0.2/MSDK/ble/app\app_adapter_mgr.c **** void app_le_set_chann_map(uint8_t map[5])
 402:C:/Users/stapi/OneDrive/Desktop/GD32VW553/GD32VW55X_Wifi_BLE_SDK/GD32VW55x_RELEASE_V1.0.2/MSDK/ble/app\app_adapter_mgr.c **** {
 670              		.loc 1 402 1
 671              		.cfi_startproc
 672              	.LVL55:
 403:C:/Users/stapi/OneDrive/Desktop/GD32VW553/GD32VW55X_Wifi_BLE_SDK/GD32VW55x_RELEASE_V1.0.2/MSDK/ble/app\app_adapter_mgr.c ****     ble_adp_chann_map_set(map);
 673              		.loc 1 403 5
 674 0000 17030000 		tail	ble_adp_chann_map_set
 674      67000300 
 675              	.LVL56:
 676              		.cfi_endproc
 677              	.LFE32:
 679              		.section	.text.app_ble_reset,"ax",@progbits
 680              		.align	1
 681              		.globl	app_ble_reset
 683              	app_ble_reset:
 684              	.LFB33:
 404:C:/Users/stapi/OneDrive/Desktop/GD32VW553/GD32VW55X_Wifi_BLE_SDK/GD32VW55x_RELEASE_V1.0.2/MSDK/ble/app\app_adapter_mgr.c **** }
 405:C:/Users/stapi/OneDrive/Desktop/GD32VW553/GD32VW55X_Wifi_BLE_SDK/GD32VW55x_RELEASE_V1.0.2/MSDK/ble/app\app_adapter_mgr.c **** 
 406:C:/Users/stapi/OneDrive/Desktop/GD32VW553/GD32VW55X_Wifi_BLE_SDK/GD32VW55x_RELEASE_V1.0.2/MSDK/ble/app\app_adapter_mgr.c **** /*!
 407:C:/Users/stapi/OneDrive/Desktop/GD32VW553/GD32VW55X_Wifi_BLE_SDK/GD32VW55x_RELEASE_V1.0.2/MSDK/ble/app\app_adapter_mgr.c ****     \brief      Reset adapter application module
 408:C:/Users/stapi/OneDrive/Desktop/GD32VW553/GD32VW55X_Wifi_BLE_SDK/GD32VW55x_RELEASE_V1.0.2/MSDK/ble/app\app_adapter_mgr.c ****     \param[in]  none
 409:C:/Users/stapi/OneDrive/Desktop/GD32VW553/GD32VW55X_Wifi_BLE_SDK/GD32VW55x_RELEASE_V1.0.2/MSDK/ble/app\app_adapter_mgr.c ****     \param[out] none
 410:C:/Users/stapi/OneDrive/Desktop/GD32VW553/GD32VW55X_Wifi_BLE_SDK/GD32VW55x_RELEASE_V1.0.2/MSDK/ble/app\app_adapter_mgr.c ****     \retval     none
 411:C:/Users/stapi/OneDrive/Desktop/GD32VW553/GD32VW55X_Wifi_BLE_SDK/GD32VW55x_RELEASE_V1.0.2/MSDK/ble/app\app_adapter_mgr.c **** */
 412:C:/Users/stapi/OneDrive/Desktop/GD32VW553/GD32VW55X_Wifi_BLE_SDK/GD32VW55x_RELEASE_V1.0.2/MSDK/ble/app\app_adapter_mgr.c **** void app_ble_reset(void)
 413:C:/Users/stapi/OneDrive/Desktop/GD32VW553/GD32VW55X_Wifi_BLE_SDK/GD32VW55x_RELEASE_V1.0.2/MSDK/ble/app\app_adapter_mgr.c **** {
 685              		.loc 1 413 1
 686              		.cfi_startproc
 414:C:/Users/stapi/OneDrive/Desktop/GD32VW553/GD32VW55X_Wifi_BLE_SDK/GD32VW55x_RELEASE_V1.0.2/MSDK/ble/app\app_adapter_mgr.c ****     app_env.process_reset = true;
 687              		.loc 1 414 5
 688              		.loc 1 414 27 is_stmt 0
 689 0000 B7070000 		lui	a5,%hi(.LANCHOR0)
 690 0004 0547     		li	a4,1
 691 0006 2380E700 		sb	a4,%lo(.LANCHOR0)(a5)
 415:C:/Users/stapi/OneDrive/Desktop/GD32VW553/GD32VW55X_Wifi_BLE_SDK/GD32VW55x_RELEASE_V1.0.2/MSDK/ble/app\app_adapter_mgr.c ****     ble_adp_reset();
 692              		.loc 1 415 5 is_stmt 1
 693 000a 17030000 		tail	ble_adp_reset
 693      67000300 
 694              	.LVL57:
 695              		.cfi_endproc
 696              	.LFE33:
 698              		.section	.text.app_adp_get_name,"ax",@progbits
 699              		.align	1
 700              		.globl	app_adp_get_name
 702              	app_adp_get_name:
 703              	.LFB34:
 416:C:/Users/stapi/OneDrive/Desktop/GD32VW553/GD32VW55X_Wifi_BLE_SDK/GD32VW55x_RELEASE_V1.0.2/MSDK/ble/app\app_adapter_mgr.c **** }
 417:C:/Users/stapi/OneDrive/Desktop/GD32VW553/GD32VW55X_Wifi_BLE_SDK/GD32VW55x_RELEASE_V1.0.2/MSDK/ble/app\app_adapter_mgr.c **** 
 418:C:/Users/stapi/OneDrive/Desktop/GD32VW553/GD32VW55X_Wifi_BLE_SDK/GD32VW55x_RELEASE_V1.0.2/MSDK/ble/app\app_adapter_mgr.c **** /*!
 419:C:/Users/stapi/OneDrive/Desktop/GD32VW553/GD32VW55X_Wifi_BLE_SDK/GD32VW55x_RELEASE_V1.0.2/MSDK/ble/app\app_adapter_mgr.c ****     \brief      Get BLE adapter name
 420:C:/Users/stapi/OneDrive/Desktop/GD32VW553/GD32VW55X_Wifi_BLE_SDK/GD32VW55x_RELEASE_V1.0.2/MSDK/ble/app\app_adapter_mgr.c ****     \param[in]  none
 421:C:/Users/stapi/OneDrive/Desktop/GD32VW553/GD32VW55X_Wifi_BLE_SDK/GD32VW55x_RELEASE_V1.0.2/MSDK/ble/app\app_adapter_mgr.c ****     \param[out] p_name: pointer to address of adapter name
 422:C:/Users/stapi/OneDrive/Desktop/GD32VW553/GD32VW55X_Wifi_BLE_SDK/GD32VW55x_RELEASE_V1.0.2/MSDK/ble/app\app_adapter_mgr.c ****     \retval     uint8_t: name length
 423:C:/Users/stapi/OneDrive/Desktop/GD32VW553/GD32VW55X_Wifi_BLE_SDK/GD32VW55x_RELEASE_V1.0.2/MSDK/ble/app\app_adapter_mgr.c **** */
 424:C:/Users/stapi/OneDrive/Desktop/GD32VW553/GD32VW55X_Wifi_BLE_SDK/GD32VW55x_RELEASE_V1.0.2/MSDK/ble/app\app_adapter_mgr.c **** uint8_t app_adp_get_name(uint8_t **p_name)
 425:C:/Users/stapi/OneDrive/Desktop/GD32VW553/GD32VW55X_Wifi_BLE_SDK/GD32VW55x_RELEASE_V1.0.2/MSDK/ble/app\app_adapter_mgr.c **** {
 704              		.loc 1 425 1
 705              		.cfi_startproc
 706              	.LVL58:
 707 0000 17030000 		call	t0,__riscv_save_0
 707      E7020300 
 708              		.cfi_offset 1, -4
 709              		.cfi_def_cfa_offset 16
 426:C:/Users/stapi/OneDrive/Desktop/GD32VW553/GD32VW55X_Wifi_BLE_SDK/GD32VW55x_RELEASE_V1.0.2/MSDK/ble/app\app_adapter_mgr.c ****     *p_name = app_env.adapter_name;
 710              		.loc 1 426 5
 711              		.loc 1 426 13 is_stmt 0
 712 0008 B7070000 		lui	a5,%hi(.LANCHOR0+25)
 713 000c 93879701 		addi	a5,a5,%lo(.LANCHOR0+25)
 714 0010 1CC1     		sw	a5,0(a0)
 427:C:/Users/stapi/OneDrive/Desktop/GD32VW553/GD32VW55X_Wifi_BLE_SDK/GD32VW55x_RELEASE_V1.0.2/MSDK/ble/app\app_adapter_mgr.c ****     return (strlen((char *)app_env.adapter_name));
 715              		.loc 1 427 5 is_stmt 1
 716              		.loc 1 427 13 is_stmt 0
 717 0012 3E85     		mv	a0,a5
 718              	.LVL59:
 719 0014 97000000 		call	strlen
 719      E7800000 
 720              	.LVL60:
 428:C:/Users/stapi/OneDrive/Desktop/GD32VW553/GD32VW55X_Wifi_BLE_SDK/GD32VW55x_RELEASE_V1.0.2/MSDK/ble/app\app_adapter_mgr.c **** }
 721              		.loc 1 428 1
 722 001c 1375F50F 		andi	a0,a0,0xff
 723 0020 17030000 		tail	__riscv_restore_0
 723      67000300 
 724              		.cfi_restore 1
 725              		.cfi_def_cfa_offset 0
 726              		.cfi_endproc
 727              	.LFE34:
 729              		.section	.text.app_adp_set_name,"ax",@progbits
 730              		.align	1
 731              		.globl	app_adp_set_name
 733              	app_adp_set_name:
 734              	.LFB35:
 429:C:/Users/stapi/OneDrive/Desktop/GD32VW553/GD32VW55X_Wifi_BLE_SDK/GD32VW55x_RELEASE_V1.0.2/MSDK/ble/app\app_adapter_mgr.c **** 
 430:C:/Users/stapi/OneDrive/Desktop/GD32VW553/GD32VW55X_Wifi_BLE_SDK/GD32VW55x_RELEASE_V1.0.2/MSDK/ble/app\app_adapter_mgr.c **** /*!
 431:C:/Users/stapi/OneDrive/Desktop/GD32VW553/GD32VW55X_Wifi_BLE_SDK/GD32VW55x_RELEASE_V1.0.2/MSDK/ble/app\app_adapter_mgr.c ****     \brief      Set BLE adapter name
 432:C:/Users/stapi/OneDrive/Desktop/GD32VW553/GD32VW55X_Wifi_BLE_SDK/GD32VW55x_RELEASE_V1.0.2/MSDK/ble/app\app_adapter_mgr.c ****     \param[in]  p_name: pointer to device name which need to change
 433:C:/Users/stapi/OneDrive/Desktop/GD32VW553/GD32VW55X_Wifi_BLE_SDK/GD32VW55x_RELEASE_V1.0.2/MSDK/ble/app\app_adapter_mgr.c ****     \param[in]  len: name length
 434:C:/Users/stapi/OneDrive/Desktop/GD32VW553/GD32VW55X_Wifi_BLE_SDK/GD32VW55x_RELEASE_V1.0.2/MSDK/ble/app\app_adapter_mgr.c ****     \param[out] none
 435:C:/Users/stapi/OneDrive/Desktop/GD32VW553/GD32VW55X_Wifi_BLE_SDK/GD32VW55x_RELEASE_V1.0.2/MSDK/ble/app\app_adapter_mgr.c ****     \retval     bool: true if set device name successfully, otherwise false
 436:C:/Users/stapi/OneDrive/Desktop/GD32VW553/GD32VW55X_Wifi_BLE_SDK/GD32VW55x_RELEASE_V1.0.2/MSDK/ble/app\app_adapter_mgr.c **** */
 437:C:/Users/stapi/OneDrive/Desktop/GD32VW553/GD32VW55X_Wifi_BLE_SDK/GD32VW55x_RELEASE_V1.0.2/MSDK/ble/app\app_adapter_mgr.c **** bool app_adp_set_name(char *p_name, uint16_t len)
 438:C:/Users/stapi/OneDrive/Desktop/GD32VW553/GD32VW55X_Wifi_BLE_SDK/GD32VW55x_RELEASE_V1.0.2/MSDK/ble/app\app_adapter_mgr.c **** {
 735              		.loc 1 438 1 is_stmt 1
 736              		.cfi_startproc
 737              	.LVL61:
 439:C:/Users/stapi/OneDrive/Desktop/GD32VW553/GD32VW55X_Wifi_BLE_SDK/GD32VW55x_RELEASE_V1.0.2/MSDK/ble/app\app_adapter_mgr.c ****     if (!p_name || len == 0 || len > APP_DFLT_DEVICE_NAME_MAX_LEN)
 738              		.loc 1 439 5
 739              		.loc 1 439 8 is_stmt 0
 740 0000 39C9     		beq	a0,zero,.L48
 438:C:/Users/stapi/OneDrive/Desktop/GD32VW553/GD32VW55X_Wifi_BLE_SDK/GD32VW55x_RELEASE_V1.0.2/MSDK/ble/app\app_adapter_mgr.c ****     if (!p_name || len == 0 || len > APP_DFLT_DEVICE_NAME_MAX_LEN)
 741              		.loc 1 438 1 discriminator 1
 742 0002 17030000 		call	t0,__riscv_save_2
 742      E7020300 
 743              		.cfi_offset 9, -12
 744              		.cfi_offset 8, -8
 745              		.cfi_offset 1, -4
 746              		.cfi_def_cfa_offset 16
 747              		.loc 1 439 17 discriminator 1
 748 000a 9387F5FF 		addi	a5,a1,-1
 749 000e 7947     		li	a4,30
 750 0010 AA84     		mv	s1,a0
 751 0012 2E84     		mv	s0,a1
 440:C:/Users/stapi/OneDrive/Desktop/GD32VW553/GD32VW55X_Wifi_BLE_SDK/GD32VW55x_RELEASE_V1.0.2/MSDK/ble/app\app_adapter_mgr.c ****         return false;
 752              		.loc 1 440 16 discriminator 1
 753 0014 0145     		li	a0,0
 754              	.LVL62:
 439:C:/Users/stapi/OneDrive/Desktop/GD32VW553/GD32VW55X_Wifi_BLE_SDK/GD32VW55x_RELEASE_V1.0.2/MSDK/ble/app\app_adapter_mgr.c ****     if (!p_name || len == 0 || len > APP_DFLT_DEVICE_NAME_MAX_LEN)
 755              		.loc 1 439 17 discriminator 1
 756 0016 B3C70708 		zext.h	a5,a5
 757 001a 636AF702 		bgtu	a5,a4,.L47
 441:C:/Users/stapi/OneDrive/Desktop/GD32VW553/GD32VW55X_Wifi_BLE_SDK/GD32VW55x_RELEASE_V1.0.2/MSDK/ble/app\app_adapter_mgr.c **** 
 442:C:/Users/stapi/OneDrive/Desktop/GD32VW553/GD32VW55X_Wifi_BLE_SDK/GD32VW55x_RELEASE_V1.0.2/MSDK/ble/app\app_adapter_mgr.c ****     memset(app_env.adapter_name, 0, APP_DFLT_DEVICE_NAME_MAX_LEN);
 758              		.loc 1 442 5 is_stmt 1
 759 001e B7070000 		lui	a5,%hi(.LANCHOR0+25)
 760 0022 93879701 		addi	a5,a5,%lo(.LANCHOR0+25)
 761 0026 3E85     		mv	a0,a5
 762 0028 7D46     		li	a2,31
 763 002a 8145     		li	a1,0
 764              	.LVL63:
 765 002c 97000000 		call	memset
 765      E7800000 
 766              	.LVL64:
 443:C:/Users/stapi/OneDrive/Desktop/GD32VW553/GD32VW55X_Wifi_BLE_SDK/GD32VW55x_RELEASE_V1.0.2/MSDK/ble/app\app_adapter_mgr.c ****     memcpy(app_env.adapter_name, p_name, len);
 767              		.loc 1 443 5
 768 0034 2286     		mv	a2,s0
 769 0036 A685     		mv	a1,s1
 770 0038 97000000 		call	memcpy
 770      E7800000 
 771              	.LVL65:
 444:C:/Users/stapi/OneDrive/Desktop/GD32VW553/GD32VW55X_Wifi_BLE_SDK/GD32VW55x_RELEASE_V1.0.2/MSDK/ble/app\app_adapter_mgr.c ****     ble_adp_name_set((uint8_t *)app_env.adapter_name, len);
 772              		.loc 1 444 5
 773 0040 9375F40F 		andi	a1,s0,0xff
 774 0044 97000000 		call	ble_adp_name_set
 774      E7800000 
 775              	.LVL66:
 445:C:/Users/stapi/OneDrive/Desktop/GD32VW553/GD32VW55X_Wifi_BLE_SDK/GD32VW55x_RELEASE_V1.0.2/MSDK/ble/app\app_adapter_mgr.c **** 
 446:C:/Users/stapi/OneDrive/Desktop/GD32VW553/GD32VW55X_Wifi_BLE_SDK/GD32VW55x_RELEASE_V1.0.2/MSDK/ble/app\app_adapter_mgr.c ****     return true;
 776              		.loc 1 446 5
 777              		.loc 1 446 12 is_stmt 0
 778 004c 0545     		li	a0,1
 779              	.L47:
 447:C:/Users/stapi/OneDrive/Desktop/GD32VW553/GD32VW55X_Wifi_BLE_SDK/GD32VW55x_RELEASE_V1.0.2/MSDK/ble/app\app_adapter_mgr.c **** }
 780              		.loc 1 447 1
 781 004e 17030000 		tail	__riscv_restore_2
 781      67000300 
 782              		.cfi_restore 9
 783              		.cfi_restore 8
 784              		.cfi_restore 1
 785              		.cfi_def_cfa_offset 0
 786              	.LVL67:
 787              	.L48:
 440:C:/Users/stapi/OneDrive/Desktop/GD32VW553/GD32VW55X_Wifi_BLE_SDK/GD32VW55x_RELEASE_V1.0.2/MSDK/ble/app\app_adapter_mgr.c **** 
 788              		.loc 1 440 16
 789 0056 0145     		li	a0,0
 790              	.LVL68:
 791              		.loc 1 447 1
 792 0058 8280     		ret
 793              		.cfi_endproc
 794              	.LFE35:
 796              		.section	.text.app_le_tx_test,"ax",@progbits
 797              		.align	1
 798              		.globl	app_le_tx_test
 800              	app_le_tx_test:
 801              	.LFB36:
 448:C:/Users/stapi/OneDrive/Desktop/GD32VW553/GD32VW55X_Wifi_BLE_SDK/GD32VW55x_RELEASE_V1.0.2/MSDK/ble/app\app_adapter_mgr.c **** 
 449:C:/Users/stapi/OneDrive/Desktop/GD32VW553/GD32VW55X_Wifi_BLE_SDK/GD32VW55x_RELEASE_V1.0.2/MSDK/ble/app\app_adapter_mgr.c **** /*!
 450:C:/Users/stapi/OneDrive/Desktop/GD32VW553/GD32VW55X_Wifi_BLE_SDK/GD32VW55x_RELEASE_V1.0.2/MSDK/ble/app\app_adapter_mgr.c ****     \brief      Control local adapter to enter BLE Test TX Mode
 451:C:/Users/stapi/OneDrive/Desktop/GD32VW553/GD32VW55X_Wifi_BLE_SDK/GD32VW55x_RELEASE_V1.0.2/MSDK/ble/app\app_adapter_mgr.c ****     \param[in]  chann: TX channel, range from 0x00 to 0x27
 452:C:/Users/stapi/OneDrive/Desktop/GD32VW553/GD32VW55X_Wifi_BLE_SDK/GD32VW55x_RELEASE_V1.0.2/MSDK/ble/app\app_adapter_mgr.c ****     \param[in]  tx_data_len: length in bytes of payload data in each packet, range from 0x00 to 0xF
 453:C:/Users/stapi/OneDrive/Desktop/GD32VW553/GD32VW55X_Wifi_BLE_SDK/GD32VW55x_RELEASE_V1.0.2/MSDK/ble/app\app_adapter_mgr.c ****     \param[in]  tx_pkt_pl: payload type, @ref ble_gap_packet_payload_type
 454:C:/Users/stapi/OneDrive/Desktop/GD32VW553/GD32VW55X_Wifi_BLE_SDK/GD32VW55x_RELEASE_V1.0.2/MSDK/ble/app\app_adapter_mgr.c ****     \param[in]  phy: test PHY rate, @ref ble_gap_phy_pwr_value
 455:C:/Users/stapi/OneDrive/Desktop/GD32VW553/GD32VW55X_Wifi_BLE_SDK/GD32VW55x_RELEASE_V1.0.2/MSDK/ble/app\app_adapter_mgr.c ****     \param[in]  tx_pwr_lvl: transmit power level in dBm range from -127 to +20, 0x7E for minimum an
 456:C:/Users/stapi/OneDrive/Desktop/GD32VW553/GD32VW55X_Wifi_BLE_SDK/GD32VW55x_RELEASE_V1.0.2/MSDK/ble/app\app_adapter_mgr.c ****     \param[out] none
 457:C:/Users/stapi/OneDrive/Desktop/GD32VW553/GD32VW55X_Wifi_BLE_SDK/GD32VW55x_RELEASE_V1.0.2/MSDK/ble/app\app_adapter_mgr.c ****     \retval     none
 458:C:/Users/stapi/OneDrive/Desktop/GD32VW553/GD32VW55X_Wifi_BLE_SDK/GD32VW55x_RELEASE_V1.0.2/MSDK/ble/app\app_adapter_mgr.c **** */
 459:C:/Users/stapi/OneDrive/Desktop/GD32VW553/GD32VW55X_Wifi_BLE_SDK/GD32VW55x_RELEASE_V1.0.2/MSDK/ble/app\app_adapter_mgr.c **** void app_le_tx_test(uint8_t chann, uint8_t tx_data_len, uint8_t tx_pkt_pl, uint8_t phy,
 460:C:/Users/stapi/OneDrive/Desktop/GD32VW553/GD32VW55X_Wifi_BLE_SDK/GD32VW55x_RELEASE_V1.0.2/MSDK/ble/app\app_adapter_mgr.c ****                     int8_t tx_pwr_lvl)
 461:C:/Users/stapi/OneDrive/Desktop/GD32VW553/GD32VW55X_Wifi_BLE_SDK/GD32VW55x_RELEASE_V1.0.2/MSDK/ble/app\app_adapter_mgr.c **** {
 802              		.loc 1 461 1 is_stmt 1
 803              		.cfi_startproc
 804              	.LVL69:
 462:C:/Users/stapi/OneDrive/Desktop/GD32VW553/GD32VW55X_Wifi_BLE_SDK/GD32VW55x_RELEASE_V1.0.2/MSDK/ble/app\app_adapter_mgr.c ****     ble_adp_test_tx(chann, tx_data_len, tx_pkt_pl, phy, tx_pwr_lvl);
 805              		.loc 1 462 5
 806 0000 17030000 		tail	ble_adp_test_tx
 806      67000300 
 807              	.LVL70:
 808              		.cfi_endproc
 809              	.LFE36:
 811              		.section	.text.app_le_rx_test,"ax",@progbits
 812              		.align	1
 813              		.globl	app_le_rx_test
 815              	app_le_rx_test:
 816              	.LFB37:
 463:C:/Users/stapi/OneDrive/Desktop/GD32VW553/GD32VW55X_Wifi_BLE_SDK/GD32VW55x_RELEASE_V1.0.2/MSDK/ble/app\app_adapter_mgr.c **** }
 464:C:/Users/stapi/OneDrive/Desktop/GD32VW553/GD32VW55X_Wifi_BLE_SDK/GD32VW55x_RELEASE_V1.0.2/MSDK/ble/app\app_adapter_mgr.c **** 
 465:C:/Users/stapi/OneDrive/Desktop/GD32VW553/GD32VW55X_Wifi_BLE_SDK/GD32VW55x_RELEASE_V1.0.2/MSDK/ble/app\app_adapter_mgr.c **** /*!
 466:C:/Users/stapi/OneDrive/Desktop/GD32VW553/GD32VW55X_Wifi_BLE_SDK/GD32VW55x_RELEASE_V1.0.2/MSDK/ble/app\app_adapter_mgr.c ****     \brief      Control local adapter to enter BLE Test RX Mode
 467:C:/Users/stapi/OneDrive/Desktop/GD32VW553/GD32VW55X_Wifi_BLE_SDK/GD32VW55x_RELEASE_V1.0.2/MSDK/ble/app\app_adapter_mgr.c ****     \param[in]  chann: RX channel, range from 0x00 to 0x27
 468:C:/Users/stapi/OneDrive/Desktop/GD32VW553/GD32VW55X_Wifi_BLE_SDK/GD32VW55x_RELEASE_V1.0.2/MSDK/ble/app\app_adapter_mgr.c ****     \param[in]  phy: test PHY rate, @ref ble_gap_phy_pwr_value
 469:C:/Users/stapi/OneDrive/Desktop/GD32VW553/GD32VW55X_Wifi_BLE_SDK/GD32VW55x_RELEASE_V1.0.2/MSDK/ble/app\app_adapter_mgr.c ****     \param[in]  modulation_idx: modulation Index
 470:C:/Users/stapi/OneDrive/Desktop/GD32VW553/GD32VW55X_Wifi_BLE_SDK/GD32VW55x_RELEASE_V1.0.2/MSDK/ble/app\app_adapter_mgr.c ****     \param[out] none
 471:C:/Users/stapi/OneDrive/Desktop/GD32VW553/GD32VW55X_Wifi_BLE_SDK/GD32VW55x_RELEASE_V1.0.2/MSDK/ble/app\app_adapter_mgr.c ****     \retval     none
 472:C:/Users/stapi/OneDrive/Desktop/GD32VW553/GD32VW55X_Wifi_BLE_SDK/GD32VW55x_RELEASE_V1.0.2/MSDK/ble/app\app_adapter_mgr.c **** */
 473:C:/Users/stapi/OneDrive/Desktop/GD32VW553/GD32VW55X_Wifi_BLE_SDK/GD32VW55x_RELEASE_V1.0.2/MSDK/ble/app\app_adapter_mgr.c **** void app_le_rx_test(uint8_t chann, uint8_t phy, uint8_t modulation_idx)
 474:C:/Users/stapi/OneDrive/Desktop/GD32VW553/GD32VW55X_Wifi_BLE_SDK/GD32VW55x_RELEASE_V1.0.2/MSDK/ble/app\app_adapter_mgr.c **** {
 817              		.loc 1 474 1
 818              		.cfi_startproc
 819              	.LVL71:
 475:C:/Users/stapi/OneDrive/Desktop/GD32VW553/GD32VW55X_Wifi_BLE_SDK/GD32VW55x_RELEASE_V1.0.2/MSDK/ble/app\app_adapter_mgr.c ****     ble_adp_test_rx(chann, phy, modulation_idx);
 820              		.loc 1 475 5
 821 0000 17030000 		tail	ble_adp_test_rx
 821      67000300 
 822              	.LVL72:
 823              		.cfi_endproc
 824              	.LFE37:
 826              		.section	.text.app_le_test_end,"ax",@progbits
 827              		.align	1
 828              		.globl	app_le_test_end
 830              	app_le_test_end:
 831              	.LFB38:
 476:C:/Users/stapi/OneDrive/Desktop/GD32VW553/GD32VW55X_Wifi_BLE_SDK/GD32VW55x_RELEASE_V1.0.2/MSDK/ble/app\app_adapter_mgr.c **** }
 477:C:/Users/stapi/OneDrive/Desktop/GD32VW553/GD32VW55X_Wifi_BLE_SDK/GD32VW55x_RELEASE_V1.0.2/MSDK/ble/app\app_adapter_mgr.c **** 
 478:C:/Users/stapi/OneDrive/Desktop/GD32VW553/GD32VW55X_Wifi_BLE_SDK/GD32VW55x_RELEASE_V1.0.2/MSDK/ble/app\app_adapter_mgr.c **** /*!
 479:C:/Users/stapi/OneDrive/Desktop/GD32VW553/GD32VW55X_Wifi_BLE_SDK/GD32VW55x_RELEASE_V1.0.2/MSDK/ble/app\app_adapter_mgr.c ****     \brief      Control local adapter to exit BLE Test Mode
 480:C:/Users/stapi/OneDrive/Desktop/GD32VW553/GD32VW55X_Wifi_BLE_SDK/GD32VW55x_RELEASE_V1.0.2/MSDK/ble/app\app_adapter_mgr.c ****     \param[in]  none
 481:C:/Users/stapi/OneDrive/Desktop/GD32VW553/GD32VW55X_Wifi_BLE_SDK/GD32VW55x_RELEASE_V1.0.2/MSDK/ble/app\app_adapter_mgr.c ****     \param[out] none
 482:C:/Users/stapi/OneDrive/Desktop/GD32VW553/GD32VW55X_Wifi_BLE_SDK/GD32VW55x_RELEASE_V1.0.2/MSDK/ble/app\app_adapter_mgr.c ****     \retval     none
 483:C:/Users/stapi/OneDrive/Desktop/GD32VW553/GD32VW55X_Wifi_BLE_SDK/GD32VW55x_RELEASE_V1.0.2/MSDK/ble/app\app_adapter_mgr.c **** */
 484:C:/Users/stapi/OneDrive/Desktop/GD32VW553/GD32VW55X_Wifi_BLE_SDK/GD32VW55x_RELEASE_V1.0.2/MSDK/ble/app\app_adapter_mgr.c **** void app_le_test_end(void)
 485:C:/Users/stapi/OneDrive/Desktop/GD32VW553/GD32VW55X_Wifi_BLE_SDK/GD32VW55x_RELEASE_V1.0.2/MSDK/ble/app\app_adapter_mgr.c **** {
 832              		.loc 1 485 1
 833              		.cfi_startproc
 486:C:/Users/stapi/OneDrive/Desktop/GD32VW553/GD32VW55X_Wifi_BLE_SDK/GD32VW55x_RELEASE_V1.0.2/MSDK/ble/app\app_adapter_mgr.c ****     ble_adp_test_end();
 834              		.loc 1 486 5
 835 0000 17030000 		tail	ble_adp_test_end
 835      67000300 
 836              	.LVL73:
 837              		.cfi_endproc
 838              	.LFE38:
 840              		.section	.rodata.app_ble_enable.str1.4,"aMS",@progbits,1
 841              		.align	2
 842              	.LC18:
 843 0000 626C6520 		.string	"ble already enable\r\n"
 843      616C7265 
 843      61647920 
 843      656E6162 
 843      6C650D0A 
 844              		.section	.text.app_ble_enable,"ax",@progbits
 845              		.align	1
 846              		.globl	app_ble_enable
 848              	app_ble_enable:
 849              	.LFB39:
 487:C:/Users/stapi/OneDrive/Desktop/GD32VW553/GD32VW55X_Wifi_BLE_SDK/GD32VW55x_RELEASE_V1.0.2/MSDK/ble/app\app_adapter_mgr.c **** }
 488:C:/Users/stapi/OneDrive/Desktop/GD32VW553/GD32VW55X_Wifi_BLE_SDK/GD32VW55x_RELEASE_V1.0.2/MSDK/ble/app\app_adapter_mgr.c **** 
 489:C:/Users/stapi/OneDrive/Desktop/GD32VW553/GD32VW55X_Wifi_BLE_SDK/GD32VW55x_RELEASE_V1.0.2/MSDK/ble/app\app_adapter_mgr.c **** /*!
 490:C:/Users/stapi/OneDrive/Desktop/GD32VW553/GD32VW55X_Wifi_BLE_SDK/GD32VW55x_RELEASE_V1.0.2/MSDK/ble/app\app_adapter_mgr.c ****     \brief      Enable adapter application module
 491:C:/Users/stapi/OneDrive/Desktop/GD32VW553/GD32VW55X_Wifi_BLE_SDK/GD32VW55x_RELEASE_V1.0.2/MSDK/ble/app\app_adapter_mgr.c ****     \param[in]  none
 492:C:/Users/stapi/OneDrive/Desktop/GD32VW553/GD32VW55X_Wifi_BLE_SDK/GD32VW55x_RELEASE_V1.0.2/MSDK/ble/app\app_adapter_mgr.c ****     \param[out] none
 493:C:/Users/stapi/OneDrive/Desktop/GD32VW553/GD32VW55X_Wifi_BLE_SDK/GD32VW55x_RELEASE_V1.0.2/MSDK/ble/app\app_adapter_mgr.c ****     \retval     none
 494:C:/Users/stapi/OneDrive/Desktop/GD32VW553/GD32VW55X_Wifi_BLE_SDK/GD32VW55x_RELEASE_V1.0.2/MSDK/ble/app\app_adapter_mgr.c **** */
 495:C:/Users/stapi/OneDrive/Desktop/GD32VW553/GD32VW55X_Wifi_BLE_SDK/GD32VW55x_RELEASE_V1.0.2/MSDK/ble/app\app_adapter_mgr.c **** void app_ble_enable(void)
 496:C:/Users/stapi/OneDrive/Desktop/GD32VW553/GD32VW55X_Wifi_BLE_SDK/GD32VW55x_RELEASE_V1.0.2/MSDK/ble/app\app_adapter_mgr.c **** {
 850              		.loc 1 496 1
 851              		.cfi_startproc
 852 0000 17030000 		call	t0,__riscv_save_0
 852      E7020300 
 853              		.cfi_offset 1, -4
 854              		.cfi_def_cfa_offset 16
 497:C:/Users/stapi/OneDrive/Desktop/GD32VW553/GD32VW55X_Wifi_BLE_SDK/GD32VW55x_RELEASE_V1.0.2/MSDK/ble/app\app_adapter_mgr.c ****     if (ble_work_status_get() == BLE_WORK_STATUS_ENABLE) {
 855              		.loc 1 497 5
 856              		.loc 1 497 9 is_stmt 0
 857 0008 97000000 		call	ble_work_status_get
 857      E7800000 
 858              	.LVL74:
 859              		.loc 1 497 8
 860 0010 09ED     		bne	a0,zero,.L61
 498:C:/Users/stapi/OneDrive/Desktop/GD32VW553/GD32VW55X_Wifi_BLE_SDK/GD32VW55x_RELEASE_V1.0.2/MSDK/ble/app\app_adapter_mgr.c ****         app_print("ble already enable\r\n");
 861              		.loc 1 498 9 is_stmt 1
 862 0012 37050000 		lui	a0,%hi(.LC18)
 863 0016 13050500 		addi	a0,a0,%lo(.LC18)
 864 001a 97000000 		call	co_printf
 864      E7800000 
 865              	.LVL75:
 499:C:/Users/stapi/OneDrive/Desktop/GD32VW553/GD32VW55X_Wifi_BLE_SDK/GD32VW55x_RELEASE_V1.0.2/MSDK/ble/app\app_adapter_mgr.c ****         return;
 866              		.loc 1 499 9
 867              	.L60:
 500:C:/Users/stapi/OneDrive/Desktop/GD32VW553/GD32VW55X_Wifi_BLE_SDK/GD32VW55x_RELEASE_V1.0.2/MSDK/ble/app\app_adapter_mgr.c ****     }
 501:C:/Users/stapi/OneDrive/Desktop/GD32VW553/GD32VW55X_Wifi_BLE_SDK/GD32VW55x_RELEASE_V1.0.2/MSDK/ble/app\app_adapter_mgr.c **** 
 502:C:/Users/stapi/OneDrive/Desktop/GD32VW553/GD32VW55X_Wifi_BLE_SDK/GD32VW55x_RELEASE_V1.0.2/MSDK/ble/app\app_adapter_mgr.c ****     ble_init(true);
 503:C:/Users/stapi/OneDrive/Desktop/GD32VW553/GD32VW55X_Wifi_BLE_SDK/GD32VW55x_RELEASE_V1.0.2/MSDK/ble/app\app_adapter_mgr.c **** }
 868              		.loc 1 503 1 is_stmt 0
 869 0022 17030000 		tail	__riscv_restore_0
 869      67000300 
 870              		.cfi_remember_state
 871              		.cfi_restore 1
 872              		.cfi_def_cfa_offset 0
 873              	.L61:
 874              		.cfi_restore_state
 502:C:/Users/stapi/OneDrive/Desktop/GD32VW553/GD32VW55X_Wifi_BLE_SDK/GD32VW55x_RELEASE_V1.0.2/MSDK/ble/app\app_adapter_mgr.c **** }
 875              		.loc 1 502 5 is_stmt 1
 876 002a 0545     		li	a0,1
 877 002c 97000000 		call	ble_init
 877      E7800000 
 878              	.LVL76:
 879 0034 FDB7     		j	.L60
 880              		.cfi_endproc
 881              	.LFE39:
 883              		.section	.rodata.app_ble_disable.str1.4,"aMS",@progbits,1
 884              		.align	2
 885              	.LC19:
 886 0000 626C6520 		.string	"ble already disable\r\n"
 886      616C7265 
 886      61647920 
 886      64697361 
 886      626C650D 
 887              		.section	.text.app_ble_disable,"ax",@progbits
 888              		.align	1
 889              		.globl	app_ble_disable
 891              	app_ble_disable:
 892              	.LFB40:
 504:C:/Users/stapi/OneDrive/Desktop/GD32VW553/GD32VW55X_Wifi_BLE_SDK/GD32VW55x_RELEASE_V1.0.2/MSDK/ble/app\app_adapter_mgr.c **** 
 505:C:/Users/stapi/OneDrive/Desktop/GD32VW553/GD32VW55X_Wifi_BLE_SDK/GD32VW55x_RELEASE_V1.0.2/MSDK/ble/app\app_adapter_mgr.c **** /*!
 506:C:/Users/stapi/OneDrive/Desktop/GD32VW553/GD32VW55X_Wifi_BLE_SDK/GD32VW55x_RELEASE_V1.0.2/MSDK/ble/app\app_adapter_mgr.c ****     \brief      Disable adapter application module
 507:C:/Users/stapi/OneDrive/Desktop/GD32VW553/GD32VW55X_Wifi_BLE_SDK/GD32VW55x_RELEASE_V1.0.2/MSDK/ble/app\app_adapter_mgr.c ****     \param[in]  none
 508:C:/Users/stapi/OneDrive/Desktop/GD32VW553/GD32VW55X_Wifi_BLE_SDK/GD32VW55x_RELEASE_V1.0.2/MSDK/ble/app\app_adapter_mgr.c ****     \param[out] none
 509:C:/Users/stapi/OneDrive/Desktop/GD32VW553/GD32VW55X_Wifi_BLE_SDK/GD32VW55x_RELEASE_V1.0.2/MSDK/ble/app\app_adapter_mgr.c ****     \retval     none
 510:C:/Users/stapi/OneDrive/Desktop/GD32VW553/GD32VW55X_Wifi_BLE_SDK/GD32VW55x_RELEASE_V1.0.2/MSDK/ble/app\app_adapter_mgr.c **** */
 511:C:/Users/stapi/OneDrive/Desktop/GD32VW553/GD32VW55X_Wifi_BLE_SDK/GD32VW55x_RELEASE_V1.0.2/MSDK/ble/app\app_adapter_mgr.c **** void app_ble_disable(void)
 512:C:/Users/stapi/OneDrive/Desktop/GD32VW553/GD32VW55X_Wifi_BLE_SDK/GD32VW55x_RELEASE_V1.0.2/MSDK/ble/app\app_adapter_mgr.c **** {
 893              		.loc 1 512 1
 894              		.cfi_startproc
 895 0000 17030000 		call	t0,__riscv_save_0
 895      E7020300 
 896              		.cfi_offset 1, -4
 897              		.cfi_def_cfa_offset 16
 513:C:/Users/stapi/OneDrive/Desktop/GD32VW553/GD32VW55X_Wifi_BLE_SDK/GD32VW55x_RELEASE_V1.0.2/MSDK/ble/app\app_adapter_mgr.c ****     if (ble_work_status_get() == BLE_WORK_STATUS_DISABLE) {
 898              		.loc 1 513 5
 899              		.loc 1 513 9 is_stmt 0
 900 0008 97000000 		call	ble_work_status_get
 900      E7800000 
 901              	.LVL77:
 902              		.loc 1 513 8
 903 0010 8547     		li	a5,1
 904 0012 631EF500 		bne	a0,a5,.L65
 514:C:/Users/stapi/OneDrive/Desktop/GD32VW553/GD32VW55X_Wifi_BLE_SDK/GD32VW55x_RELEASE_V1.0.2/MSDK/ble/app\app_adapter_mgr.c ****         app_print("ble already disable\r\n");
 905              		.loc 1 514 9 is_stmt 1
 906 0016 37050000 		lui	a0,%hi(.LC19)
 907 001a 13050500 		addi	a0,a0,%lo(.LC19)
 908 001e 97000000 		call	co_printf
 908      E7800000 
 909              	.LVL78:
 515:C:/Users/stapi/OneDrive/Desktop/GD32VW553/GD32VW55X_Wifi_BLE_SDK/GD32VW55x_RELEASE_V1.0.2/MSDK/ble/app\app_adapter_mgr.c ****         return;
 910              		.loc 1 515 9
 911              	.L64:
 516:C:/Users/stapi/OneDrive/Desktop/GD32VW553/GD32VW55X_Wifi_BLE_SDK/GD32VW55x_RELEASE_V1.0.2/MSDK/ble/app\app_adapter_mgr.c ****     }
 517:C:/Users/stapi/OneDrive/Desktop/GD32VW553/GD32VW55X_Wifi_BLE_SDK/GD32VW55x_RELEASE_V1.0.2/MSDK/ble/app\app_adapter_mgr.c **** 
 518:C:/Users/stapi/OneDrive/Desktop/GD32VW553/GD32VW55X_Wifi_BLE_SDK/GD32VW55x_RELEASE_V1.0.2/MSDK/ble/app\app_adapter_mgr.c ****     ble_adp_disable();
 519:C:/Users/stapi/OneDrive/Desktop/GD32VW553/GD32VW55X_Wifi_BLE_SDK/GD32VW55x_RELEASE_V1.0.2/MSDK/ble/app\app_adapter_mgr.c **** }
 912              		.loc 1 519 1 is_stmt 0
 913 0026 17030000 		tail	__riscv_restore_0
 913      67000300 
 914              		.cfi_remember_state
 915              		.cfi_restore 1
 916              		.cfi_def_cfa_offset 0
 917              	.L65:
 918              		.cfi_restore_state
 518:C:/Users/stapi/OneDrive/Desktop/GD32VW553/GD32VW55X_Wifi_BLE_SDK/GD32VW55x_RELEASE_V1.0.2/MSDK/ble/app\app_adapter_mgr.c **** }
 919              		.loc 1 518 5 is_stmt 1
 920 002e 97000000 		call	ble_adp_disable
 920      E7800000 
 921              	.LVL79:
 922 0036 C5BF     		j	.L64
 923              		.cfi_endproc
 924              	.LFE40:
 926              		.globl	app_env
 927              		.section	.bss.app_env,"aw",@nobits
 928              		.align	2
 929              		.set	.LANCHOR0,. + 0
 932              	app_env:
 933 0000 00000000 		.zero	56
 933      00000000 
 933      00000000 
 933      00000000 
 933      00000000 
 934              		.text
 935              	.Letext0:
 936              		.file 2 "c:\\users\\stapi\\onedrive\\desktop\\gd32vw553\\embeddedbuilder_v1.4.7.26843\\tools\\nucl
 937              		.file 3 "c:\\users\\stapi\\onedrive\\desktop\\gd32vw553\\embeddedbuilder_v1.4.7.26843\\tools\\nucl
 938              		.file 4 "..\\..\\..\\..\\blesw\\src\\export/ble_gap.h"
 939              		.file 5 "..\\..\\..\\..\\blesw\\src\\export/ble_export.h"
 940              		.file 6 "..\\..\\..\\..\\blesw\\src\\export/ble_error.h"
 941              		.file 7 "..\\..\\..\\..\\blesw\\src\\export/ble_adapter.h"
 942              		.file 8 "..\\..\\..\\..\\util\\include/dbg_print.h"
 943              		.file 9 "..\\..\\..\\..\\util\\include/debug_print.h"
 944              		.file 10 "C:/Users/stapi/OneDrive/Desktop/GD32VW553/GD32VW55X_Wifi_BLE_SDK/GD32VW55x_RELEASE_V1.0.
 945              		.file 11 "<built-in>"
 946              		.file 12 "c:\\users\\stapi\\onedrive\\desktop\\gd32vw553\\embeddedbuilder_v1.4.7.26843\\tools\\nuc
 947              		.file 13 "C:/Users/stapi/OneDrive/Desktop/GD32VW553/GD32VW55X_Wifi_BLE_SDK/GD32VW55x_RELEASE_V1.0.
 948              		.file 14 "C:/Users/stapi/OneDrive/Desktop/GD32VW553/GD32VW55X_Wifi_BLE_SDK/GD32VW55x_RELEASE_V1.0.
 949              		.file 15 "C:/Users/stapi/OneDrive/Desktop/GD32VW553/GD32VW55X_Wifi_BLE_SDK/GD32VW55x_RELEASE_V1.0.
 950              		.file 16 "C:/Users/stapi/OneDrive/Desktop/GD32VW553/GD32VW55X_Wifi_BLE_SDK/GD32VW55x_RELEASE_V1.0.
 951              		.file 17 "C:/Users/stapi/OneDrive/Desktop/GD32VW553/GD32VW55X_Wifi_BLE_SDK/GD32VW55x_RELEASE_V1.0.
 952              		.file 18 "C:/Users/stapi/OneDrive/Desktop/GD32VW553/GD32VW55X_Wifi_BLE_SDK/GD32VW55x_RELEASE_V1.0.
 953              		.file 19 "C:/Users/stapi/OneDrive/Desktop/GD32VW553/GD32VW55X_Wifi_BLE_SDK/GD32VW55x_RELEASE_V1.0.
 954              		.file 20 "C:/Users/stapi/OneDrive/Desktop/GD32VW553/GD32VW55X_Wifi_BLE_SDK/GD32VW55x_RELEASE_V1.0.
 955              		.file 21 "C:/Users/stapi/OneDrive/Desktop/GD32VW553/GD32VW55X_Wifi_BLE_SDK/GD32VW55x_RELEASE_V1.0.
 956              		.file 22 "C:/Users/stapi/OneDrive/Desktop/GD32VW553/GD32VW55X_Wifi_BLE_SDK/GD32VW55x_RELEASE_V1.0.
 957              		.file 23 "c:\\users\\stapi\\onedrive\\desktop\\gd32vw553\\embeddedbuilder_v1.4.7.26843\\tools\\nuc