   1              		.file	"app_dev_mgr.c"
   2              		.option nopic
   3              		.attribute arch, "rv32i2p0_m2p0_a2p0_f2p0_c2p0_b_p0p94"
   4              		.attribute unaligned_access, 0
   5              		.attribute stack_align, 16
   6              		.text
   7              	.Ltext0:
   8              		.cfi_sections	.debug_frame
   9              		.section	.rodata.ble_addr_resolvable.str1.4,"aMS",@progbits,1
  10              		.align	2
  11              	.LC0:
  12 0000 626C655F 		.string	"ble_addr_resolvable match irk %02X:%02X:%02X:%02X:%02X:%02X \r\n"
  12      61646472 
  12      5F726573 
  12      6F6C7661 
  12      626C6520 
  13              		.section	.text.ble_addr_resolvable,"ax",@progbits
  14              		.align	1
  16              	ble_addr_resolvable:
  17              	.LFB2:
  18              		.file 1 "C:/Users/stapi/OneDrive/Desktop/GD32VW553/V1_MQTT_OK/GD32VW55X_Wifi_BLE_SDK/GD32VW55x_REL
   1:C:/Users/stapi/OneDrive/Desktop/GD32VW553/V1_MQTT_OK/GD32VW55X_Wifi_BLE_SDK/GD32VW55x_RELEASE_V1.0.2/MSDK/ble/app\app_dev_mgr.c **** /*!
   2:C:/Users/stapi/OneDrive/Desktop/GD32VW553/V1_MQTT_OK/GD32VW55X_Wifi_BLE_SDK/GD32VW55x_RELEASE_V1.0.2/MSDK/ble/app\app_dev_mgr.c ****     \file    app_dev_mgr.c
   3:C:/Users/stapi/OneDrive/Desktop/GD32VW553/V1_MQTT_OK/GD32VW55X_Wifi_BLE_SDK/GD32VW55x_RELEASE_V1.0.2/MSDK/ble/app\app_dev_mgr.c ****     \brief   Implementation of BLE application dev manager to record paired or connected devices.
   4:C:/Users/stapi/OneDrive/Desktop/GD32VW553/V1_MQTT_OK/GD32VW55X_Wifi_BLE_SDK/GD32VW55x_RELEASE_V1.0.2/MSDK/ble/app\app_dev_mgr.c **** 
   5:C:/Users/stapi/OneDrive/Desktop/GD32VW553/V1_MQTT_OK/GD32VW55X_Wifi_BLE_SDK/GD32VW55x_RELEASE_V1.0.2/MSDK/ble/app\app_dev_mgr.c ****     \version 2023-07-20, V1.0.0, firmware for GD32VW55x
   6:C:/Users/stapi/OneDrive/Desktop/GD32VW553/V1_MQTT_OK/GD32VW55X_Wifi_BLE_SDK/GD32VW55x_RELEASE_V1.0.2/MSDK/ble/app\app_dev_mgr.c **** */
   7:C:/Users/stapi/OneDrive/Desktop/GD32VW553/V1_MQTT_OK/GD32VW55X_Wifi_BLE_SDK/GD32VW55x_RELEASE_V1.0.2/MSDK/ble/app\app_dev_mgr.c **** 
   8:C:/Users/stapi/OneDrive/Desktop/GD32VW553/V1_MQTT_OK/GD32VW55X_Wifi_BLE_SDK/GD32VW55x_RELEASE_V1.0.2/MSDK/ble/app\app_dev_mgr.c **** /*
   9:C:/Users/stapi/OneDrive/Desktop/GD32VW553/V1_MQTT_OK/GD32VW55X_Wifi_BLE_SDK/GD32VW55x_RELEASE_V1.0.2/MSDK/ble/app\app_dev_mgr.c ****     Copyright (c) 2023, GigaDevice Semiconductor Inc.
  10:C:/Users/stapi/OneDrive/Desktop/GD32VW553/V1_MQTT_OK/GD32VW55X_Wifi_BLE_SDK/GD32VW55x_RELEASE_V1.0.2/MSDK/ble/app\app_dev_mgr.c **** 
  11:C:/Users/stapi/OneDrive/Desktop/GD32VW553/V1_MQTT_OK/GD32VW55X_Wifi_BLE_SDK/GD32VW55x_RELEASE_V1.0.2/MSDK/ble/app\app_dev_mgr.c ****     Redistribution and use in source and binary forms, with or without modification,
  12:C:/Users/stapi/OneDrive/Desktop/GD32VW553/V1_MQTT_OK/GD32VW55X_Wifi_BLE_SDK/GD32VW55x_RELEASE_V1.0.2/MSDK/ble/app\app_dev_mgr.c **** are permitted provided that the following conditions are met:
  13:C:/Users/stapi/OneDrive/Desktop/GD32VW553/V1_MQTT_OK/GD32VW55X_Wifi_BLE_SDK/GD32VW55x_RELEASE_V1.0.2/MSDK/ble/app\app_dev_mgr.c **** 
  14:C:/Users/stapi/OneDrive/Desktop/GD32VW553/V1_MQTT_OK/GD32VW55X_Wifi_BLE_SDK/GD32VW55x_RELEASE_V1.0.2/MSDK/ble/app\app_dev_mgr.c ****     1. Redistributions of source code must retain the above copyright notice, this
  15:C:/Users/stapi/OneDrive/Desktop/GD32VW553/V1_MQTT_OK/GD32VW55X_Wifi_BLE_SDK/GD32VW55x_RELEASE_V1.0.2/MSDK/ble/app\app_dev_mgr.c ****        list of conditions and the following disclaimer.
  16:C:/Users/stapi/OneDrive/Desktop/GD32VW553/V1_MQTT_OK/GD32VW55X_Wifi_BLE_SDK/GD32VW55x_RELEASE_V1.0.2/MSDK/ble/app\app_dev_mgr.c ****     2. Redistributions in binary form must reproduce the above copyright notice,
  17:C:/Users/stapi/OneDrive/Desktop/GD32VW553/V1_MQTT_OK/GD32VW55X_Wifi_BLE_SDK/GD32VW55x_RELEASE_V1.0.2/MSDK/ble/app\app_dev_mgr.c ****        this list of conditions and the following disclaimer in the documentation
  18:C:/Users/stapi/OneDrive/Desktop/GD32VW553/V1_MQTT_OK/GD32VW55X_Wifi_BLE_SDK/GD32VW55x_RELEASE_V1.0.2/MSDK/ble/app\app_dev_mgr.c ****        and/or other materials provided with the distribution.
  19:C:/Users/stapi/OneDrive/Desktop/GD32VW553/V1_MQTT_OK/GD32VW55X_Wifi_BLE_SDK/GD32VW55x_RELEASE_V1.0.2/MSDK/ble/app\app_dev_mgr.c ****     3. Neither the name of the copyright holder nor the names of its contributors
  20:C:/Users/stapi/OneDrive/Desktop/GD32VW553/V1_MQTT_OK/GD32VW55X_Wifi_BLE_SDK/GD32VW55x_RELEASE_V1.0.2/MSDK/ble/app\app_dev_mgr.c ****        may be used to endorse or promote products derived from this software without
  21:C:/Users/stapi/OneDrive/Desktop/GD32VW553/V1_MQTT_OK/GD32VW55X_Wifi_BLE_SDK/GD32VW55x_RELEASE_V1.0.2/MSDK/ble/app\app_dev_mgr.c ****        specific prior written permission.
  22:C:/Users/stapi/OneDrive/Desktop/GD32VW553/V1_MQTT_OK/GD32VW55X_Wifi_BLE_SDK/GD32VW55x_RELEASE_V1.0.2/MSDK/ble/app\app_dev_mgr.c **** 
  23:C:/Users/stapi/OneDrive/Desktop/GD32VW553/V1_MQTT_OK/GD32VW55X_Wifi_BLE_SDK/GD32VW55x_RELEASE_V1.0.2/MSDK/ble/app\app_dev_mgr.c ****     THIS SOFTWARE IS PROVIDED BY THE COPYRIGHT HOLDERS AND CONTRIBUTORS "AS IS"
  24:C:/Users/stapi/OneDrive/Desktop/GD32VW553/V1_MQTT_OK/GD32VW55X_Wifi_BLE_SDK/GD32VW55x_RELEASE_V1.0.2/MSDK/ble/app\app_dev_mgr.c **** AND ANY EXPRESS OR IMPLIED WARRANTIES, INCLUDING, BUT NOT LIMITED TO, THE IMPLIED
  25:C:/Users/stapi/OneDrive/Desktop/GD32VW553/V1_MQTT_OK/GD32VW55X_Wifi_BLE_SDK/GD32VW55x_RELEASE_V1.0.2/MSDK/ble/app\app_dev_mgr.c **** WARRANTIES OF MERCHANTABILITY AND FITNESS FOR A PARTICULAR PURPOSE ARE DISCLAIMED.
  26:C:/Users/stapi/OneDrive/Desktop/GD32VW553/V1_MQTT_OK/GD32VW55X_Wifi_BLE_SDK/GD32VW55x_RELEASE_V1.0.2/MSDK/ble/app\app_dev_mgr.c **** IN NO EVENT SHALL THE COPYRIGHT HOLDER OR CONTRIBUTORS BE LIABLE FOR ANY DIRECT,
  27:C:/Users/stapi/OneDrive/Desktop/GD32VW553/V1_MQTT_OK/GD32VW55X_Wifi_BLE_SDK/GD32VW55x_RELEASE_V1.0.2/MSDK/ble/app\app_dev_mgr.c **** INDIRECT, INCIDENTAL, SPECIAL, EXEMPLARY, OR CONSEQUENTIAL DAMAGES (INCLUDING, BUT
  28:C:/Users/stapi/OneDrive/Desktop/GD32VW553/V1_MQTT_OK/GD32VW55X_Wifi_BLE_SDK/GD32VW55x_RELEASE_V1.0.2/MSDK/ble/app\app_dev_mgr.c **** NOT LIMITED TO, PROCUREMENT OF SUBSTITUTE GOODS OR SERVICES; LOSS OF USE, DATA, OR
  29:C:/Users/stapi/OneDrive/Desktop/GD32VW553/V1_MQTT_OK/GD32VW55X_Wifi_BLE_SDK/GD32VW55x_RELEASE_V1.0.2/MSDK/ble/app\app_dev_mgr.c **** PROFITS; OR BUSINESS INTERRUPTION) HOWEVER CAUSED AND ON ANY THEORY OF LIABILITY,
  30:C:/Users/stapi/OneDrive/Desktop/GD32VW553/V1_MQTT_OK/GD32VW55X_Wifi_BLE_SDK/GD32VW55x_RELEASE_V1.0.2/MSDK/ble/app\app_dev_mgr.c **** WHETHER IN CONTRACT, STRICT LIABILITY, OR TORT (INCLUDING NEGLIGENCE OR OTHERWISE)
  31:C:/Users/stapi/OneDrive/Desktop/GD32VW553/V1_MQTT_OK/GD32VW55X_Wifi_BLE_SDK/GD32VW55x_RELEASE_V1.0.2/MSDK/ble/app\app_dev_mgr.c **** ARISING IN ANY WAY OUT OF THE USE OF THIS SOFTWARE, EVEN IF ADVISED OF THE POSSIBILITY
  32:C:/Users/stapi/OneDrive/Desktop/GD32VW553/V1_MQTT_OK/GD32VW55X_Wifi_BLE_SDK/GD32VW55x_RELEASE_V1.0.2/MSDK/ble/app\app_dev_mgr.c **** OF SUCH DAMAGE.
  33:C:/Users/stapi/OneDrive/Desktop/GD32VW553/V1_MQTT_OK/GD32VW55X_Wifi_BLE_SDK/GD32VW55x_RELEASE_V1.0.2/MSDK/ble/app\app_dev_mgr.c **** */
  34:C:/Users/stapi/OneDrive/Desktop/GD32VW553/V1_MQTT_OK/GD32VW55X_Wifi_BLE_SDK/GD32VW55x_RELEASE_V1.0.2/MSDK/ble/app\app_dev_mgr.c **** 
  35:C:/Users/stapi/OneDrive/Desktop/GD32VW553/V1_MQTT_OK/GD32VW55X_Wifi_BLE_SDK/GD32VW55x_RELEASE_V1.0.2/MSDK/ble/app\app_dev_mgr.c **** #include "ble_app_config.h"
  36:C:/Users/stapi/OneDrive/Desktop/GD32VW553/V1_MQTT_OK/GD32VW55X_Wifi_BLE_SDK/GD32VW55x_RELEASE_V1.0.2/MSDK/ble/app\app_dev_mgr.c **** 
  37:C:/Users/stapi/OneDrive/Desktop/GD32VW553/V1_MQTT_OK/GD32VW55X_Wifi_BLE_SDK/GD32VW55x_RELEASE_V1.0.2/MSDK/ble/app\app_dev_mgr.c **** #if (BLE_APP_SUPPORT)
  38:C:/Users/stapi/OneDrive/Desktop/GD32VW553/V1_MQTT_OK/GD32VW55X_Wifi_BLE_SDK/GD32VW55x_RELEASE_V1.0.2/MSDK/ble/app\app_dev_mgr.c **** #include <string.h>
  39:C:/Users/stapi/OneDrive/Desktop/GD32VW553/V1_MQTT_OK/GD32VW55X_Wifi_BLE_SDK/GD32VW55x_RELEASE_V1.0.2/MSDK/ble/app\app_dev_mgr.c **** #include "app_dev_mgr.h"
  40:C:/Users/stapi/OneDrive/Desktop/GD32VW553/V1_MQTT_OK/GD32VW55X_Wifi_BLE_SDK/GD32VW55x_RELEASE_V1.0.2/MSDK/ble/app\app_dev_mgr.c **** #include "app_adapter_mgr.h"
  41:C:/Users/stapi/OneDrive/Desktop/GD32VW553/V1_MQTT_OK/GD32VW55X_Wifi_BLE_SDK/GD32VW55x_RELEASE_V1.0.2/MSDK/ble/app\app_dev_mgr.c **** 
  42:C:/Users/stapi/OneDrive/Desktop/GD32VW553/V1_MQTT_OK/GD32VW55X_Wifi_BLE_SDK/GD32VW55x_RELEASE_V1.0.2/MSDK/ble/app\app_dev_mgr.c **** #include "wrapper_os.h"
  43:C:/Users/stapi/OneDrive/Desktop/GD32VW553/V1_MQTT_OK/GD32VW55X_Wifi_BLE_SDK/GD32VW55x_RELEASE_V1.0.2/MSDK/ble/app\app_dev_mgr.c **** #include "ble_storage.h"
  44:C:/Users/stapi/OneDrive/Desktop/GD32VW553/V1_MQTT_OK/GD32VW55X_Wifi_BLE_SDK/GD32VW55x_RELEASE_V1.0.2/MSDK/ble/app\app_dev_mgr.c **** #include "dbg_print.h"
  45:C:/Users/stapi/OneDrive/Desktop/GD32VW553/V1_MQTT_OK/GD32VW55X_Wifi_BLE_SDK/GD32VW55x_RELEASE_V1.0.2/MSDK/ble/app\app_dev_mgr.c **** 
  46:C:/Users/stapi/OneDrive/Desktop/GD32VW553/V1_MQTT_OK/GD32VW55X_Wifi_BLE_SDK/GD32VW55x_RELEASE_V1.0.2/MSDK/ble/app\app_dev_mgr.c **** /* Application device manager environment structure */
  47:C:/Users/stapi/OneDrive/Desktop/GD32VW553/V1_MQTT_OK/GD32VW55X_Wifi_BLE_SDK/GD32VW55x_RELEASE_V1.0.2/MSDK/ble/app\app_dev_mgr.c **** struct ble_dev_mgr
  48:C:/Users/stapi/OneDrive/Desktop/GD32VW553/V1_MQTT_OK/GD32VW55X_Wifi_BLE_SDK/GD32VW55x_RELEASE_V1.0.2/MSDK/ble/app\app_dev_mgr.c **** {
  49:C:/Users/stapi/OneDrive/Desktop/GD32VW553/V1_MQTT_OK/GD32VW55X_Wifi_BLE_SDK/GD32VW55x_RELEASE_V1.0.2/MSDK/ble/app\app_dev_mgr.c ****     dlist_t     sec_dev_list;
  50:C:/Users/stapi/OneDrive/Desktop/GD32VW553/V1_MQTT_OK/GD32VW55X_Wifi_BLE_SDK/GD32VW55x_RELEASE_V1.0.2/MSDK/ble/app\app_dev_mgr.c **** };
  51:C:/Users/stapi/OneDrive/Desktop/GD32VW553/V1_MQTT_OK/GD32VW55X_Wifi_BLE_SDK/GD32VW55x_RELEASE_V1.0.2/MSDK/ble/app\app_dev_mgr.c **** 
  52:C:/Users/stapi/OneDrive/Desktop/GD32VW553/V1_MQTT_OK/GD32VW55X_Wifi_BLE_SDK/GD32VW55x_RELEASE_V1.0.2/MSDK/ble/app\app_dev_mgr.c **** /* Application device manager environment data */
  53:C:/Users/stapi/OneDrive/Desktop/GD32VW553/V1_MQTT_OK/GD32VW55X_Wifi_BLE_SDK/GD32VW55x_RELEASE_V1.0.2/MSDK/ble/app\app_dev_mgr.c **** static struct ble_dev_mgr device_mgr;
  54:C:/Users/stapi/OneDrive/Desktop/GD32VW553/V1_MQTT_OK/GD32VW55X_Wifi_BLE_SDK/GD32VW55x_RELEASE_V1.0.2/MSDK/ble/app\app_dev_mgr.c **** 
  55:C:/Users/stapi/OneDrive/Desktop/GD32VW553/V1_MQTT_OK/GD32VW55X_Wifi_BLE_SDK/GD32VW55x_RELEASE_V1.0.2/MSDK/ble/app\app_dev_mgr.c **** /*!
  56:C:/Users/stapi/OneDrive/Desktop/GD32VW553/V1_MQTT_OK/GD32VW55X_Wifi_BLE_SDK/GD32VW55x_RELEASE_V1.0.2/MSDK/ble/app\app_dev_mgr.c ****     \brief      Check if the device address can be resolved by given IRK
  57:C:/Users/stapi/OneDrive/Desktop/GD32VW553/V1_MQTT_OK/GD32VW55X_Wifi_BLE_SDK/GD32VW55x_RELEASE_V1.0.2/MSDK/ble/app\app_dev_mgr.c ****     \param[in]  p_addr: pointer to device address
  58:C:/Users/stapi/OneDrive/Desktop/GD32VW553/V1_MQTT_OK/GD32VW55X_Wifi_BLE_SDK/GD32VW55x_RELEASE_V1.0.2/MSDK/ble/app\app_dev_mgr.c ****     \param[in]  p_device: pointer to device information which contains IRK information
  59:C:/Users/stapi/OneDrive/Desktop/GD32VW553/V1_MQTT_OK/GD32VW55X_Wifi_BLE_SDK/GD32VW55x_RELEASE_V1.0.2/MSDK/ble/app\app_dev_mgr.c ****     \param[out] none
  60:C:/Users/stapi/OneDrive/Desktop/GD32VW553/V1_MQTT_OK/GD32VW55X_Wifi_BLE_SDK/GD32VW55x_RELEASE_V1.0.2/MSDK/ble/app\app_dev_mgr.c ****     \retval     bool: true if the address can be resolved by the given IRK in the device informatio
  61:C:/Users/stapi/OneDrive/Desktop/GD32VW553/V1_MQTT_OK/GD32VW55X_Wifi_BLE_SDK/GD32VW55x_RELEASE_V1.0.2/MSDK/ble/app\app_dev_mgr.c **** */
  62:C:/Users/stapi/OneDrive/Desktop/GD32VW553/V1_MQTT_OK/GD32VW55X_Wifi_BLE_SDK/GD32VW55x_RELEASE_V1.0.2/MSDK/ble/app\app_dev_mgr.c **** static bool ble_addr_resolvable(ble_gap_addr_t *p_addr, ble_device_t *p_device)
  63:C:/Users/stapi/OneDrive/Desktop/GD32VW553/V1_MQTT_OK/GD32VW55X_Wifi_BLE_SDK/GD32VW55x_RELEASE_V1.0.2/MSDK/ble/app\app_dev_mgr.c **** {
  19              		.loc 1 63 1
  20              		.cfi_startproc
  21              	.LVL0:
  22 0000 17030000 		call	t0,__riscv_save_2
  22      E7020300 
  23              		.cfi_offset 9, -12
  24              		.cfi_offset 8, -8
  25              		.cfi_offset 1, -4
  26              		.cfi_def_cfa_offset 16
  64:C:/Users/stapi/OneDrive/Desktop/GD32VW553/V1_MQTT_OK/GD32VW55X_Wifi_BLE_SDK/GD32VW55x_RELEASE_V1.0.2/MSDK/ble/app\app_dev_mgr.c ****     if (p_addr->addr_type != BLE_GAP_ADDR_TYPE_RANDOM ||
  27              		.loc 1 64 5
  28              		.loc 1 64 8 is_stmt 0
  29 0008 03470500 		lbu	a4,0(a0)
  30 000c 8547     		li	a5,1
  31 000e 6308F700 		beq	a4,a5,.L2
  32              	.LVL1:
  33              	.L4:
  65:C:/Users/stapi/OneDrive/Desktop/GD32VW553/V1_MQTT_OK/GD32VW55X_Wifi_BLE_SDK/GD32VW55x_RELEASE_V1.0.2/MSDK/ble/app\app_dev_mgr.c ****         BLE_IS_RESOLVE_BDA(p_addr->addr) != true) {
  66:C:/Users/stapi/OneDrive/Desktop/GD32VW553/V1_MQTT_OK/GD32VW55X_Wifi_BLE_SDK/GD32VW55x_RELEASE_V1.0.2/MSDK/ble/app\app_dev_mgr.c ****         return false;
  34              		.loc 1 66 16
  35 0012 8144     		li	s1,0
  36              	.L3:
  67:C:/Users/stapi/OneDrive/Desktop/GD32VW553/V1_MQTT_OK/GD32VW55X_Wifi_BLE_SDK/GD32VW55x_RELEASE_V1.0.2/MSDK/ble/app\app_dev_mgr.c ****     }
  68:C:/Users/stapi/OneDrive/Desktop/GD32VW553/V1_MQTT_OK/GD32VW55X_Wifi_BLE_SDK/GD32VW55x_RELEASE_V1.0.2/MSDK/ble/app\app_dev_mgr.c **** 
  69:C:/Users/stapi/OneDrive/Desktop/GD32VW553/V1_MQTT_OK/GD32VW55X_Wifi_BLE_SDK/GD32VW55x_RELEASE_V1.0.2/MSDK/ble/app\app_dev_mgr.c ****     if (p_device->bond_info.key_msk & BLE_GAP_KDIST_IDKEY) {
  70:C:/Users/stapi/OneDrive/Desktop/GD32VW553/V1_MQTT_OK/GD32VW55X_Wifi_BLE_SDK/GD32VW55x_RELEASE_V1.0.2/MSDK/ble/app\app_dev_mgr.c ****         if (ble_gap_rpa_matches_irk(p_addr->addr, p_device->bond_info.peer_irk.irk)) {
  71:C:/Users/stapi/OneDrive/Desktop/GD32VW553/V1_MQTT_OK/GD32VW55X_Wifi_BLE_SDK/GD32VW55x_RELEASE_V1.0.2/MSDK/ble/app\app_dev_mgr.c ****             dbg_print(NOTICE, "ble_addr_resolvable match irk %02X:%02X:%02X:%02X:%02X:%02X \r\n",
  72:C:/Users/stapi/OneDrive/Desktop/GD32VW553/V1_MQTT_OK/GD32VW55X_Wifi_BLE_SDK/GD32VW55x_RELEASE_V1.0.2/MSDK/ble/app\app_dev_mgr.c ****                    p_device->cur_addr.addr[5], p_device->cur_addr.addr[4], p_device->cur_addr.addr[
  73:C:/Users/stapi/OneDrive/Desktop/GD32VW553/V1_MQTT_OK/GD32VW55X_Wifi_BLE_SDK/GD32VW55x_RELEASE_V1.0.2/MSDK/ble/app\app_dev_mgr.c ****                    p_device->cur_addr.addr[2], p_device->cur_addr.addr[1], p_device->cur_addr.addr[
  74:C:/Users/stapi/OneDrive/Desktop/GD32VW553/V1_MQTT_OK/GD32VW55X_Wifi_BLE_SDK/GD32VW55x_RELEASE_V1.0.2/MSDK/ble/app\app_dev_mgr.c **** 
  75:C:/Users/stapi/OneDrive/Desktop/GD32VW553/V1_MQTT_OK/GD32VW55X_Wifi_BLE_SDK/GD32VW55x_RELEASE_V1.0.2/MSDK/ble/app\app_dev_mgr.c ****             return true;
  76:C:/Users/stapi/OneDrive/Desktop/GD32VW553/V1_MQTT_OK/GD32VW55X_Wifi_BLE_SDK/GD32VW55x_RELEASE_V1.0.2/MSDK/ble/app\app_dev_mgr.c ****         }
  77:C:/Users/stapi/OneDrive/Desktop/GD32VW553/V1_MQTT_OK/GD32VW55X_Wifi_BLE_SDK/GD32VW55x_RELEASE_V1.0.2/MSDK/ble/app\app_dev_mgr.c ****     }
  78:C:/Users/stapi/OneDrive/Desktop/GD32VW553/V1_MQTT_OK/GD32VW55X_Wifi_BLE_SDK/GD32VW55x_RELEASE_V1.0.2/MSDK/ble/app\app_dev_mgr.c **** 
  79:C:/Users/stapi/OneDrive/Desktop/GD32VW553/V1_MQTT_OK/GD32VW55X_Wifi_BLE_SDK/GD32VW55x_RELEASE_V1.0.2/MSDK/ble/app\app_dev_mgr.c ****     return false;
  80:C:/Users/stapi/OneDrive/Desktop/GD32VW553/V1_MQTT_OK/GD32VW55X_Wifi_BLE_SDK/GD32VW55x_RELEASE_V1.0.2/MSDK/ble/app\app_dev_mgr.c **** }
  37              		.loc 1 80 1
  38 0014 2685     		mv	a0,s1
  39 0016 17030000 		tail	__riscv_restore_2
  39      67000300 
  40              		.cfi_remember_state
  41              		.cfi_restore 9
  42              		.cfi_restore 8
  43              		.cfi_restore 1
  44              		.cfi_def_cfa_offset 0
  45              	.LVL2:
  46              	.L2:
  47              		.cfi_restore_state
  48              	.LBB12:
  49              	.LBB13:
  50              		.file 2 "..\\..\\..\\..\\blesw\\src\\export/ble_conn.h"
   1:..\..\..\..\blesw\src\export/ble_conn.h **** /*!
   2:..\..\..\..\blesw\src\export/ble_conn.h ****     \file    ble_conn.h
   3:..\..\..\..\blesw\src\export/ble_conn.h ****     \brief   Module for handling the BLE connection.
   4:..\..\..\..\blesw\src\export/ble_conn.h **** 
   5:..\..\..\..\blesw\src\export/ble_conn.h ****     \version 2023-07-20, V1.0.0, firmware for GD32VW55x
   6:..\..\..\..\blesw\src\export/ble_conn.h **** */
   7:..\..\..\..\blesw\src\export/ble_conn.h **** 
   8:..\..\..\..\blesw\src\export/ble_conn.h **** /*
   9:..\..\..\..\blesw\src\export/ble_conn.h ****     Copyright (c) 2023, GigaDevice Semiconductor Inc.
  10:..\..\..\..\blesw\src\export/ble_conn.h **** 
  11:..\..\..\..\blesw\src\export/ble_conn.h ****     Redistribution and use in source and binary forms, with or without modification,
  12:..\..\..\..\blesw\src\export/ble_conn.h **** are permitted provided that the following conditions are met:
  13:..\..\..\..\blesw\src\export/ble_conn.h **** 
  14:..\..\..\..\blesw\src\export/ble_conn.h ****     1. Redistributions of source code must retain the above copyright notice, this
  15:..\..\..\..\blesw\src\export/ble_conn.h ****        list of conditions and the following disclaimer.
  16:..\..\..\..\blesw\src\export/ble_conn.h ****     2. Redistributions in binary form must reproduce the above copyright notice,
  17:..\..\..\..\blesw\src\export/ble_conn.h ****        this list of conditions and the following disclaimer in the documentation
  18:..\..\..\..\blesw\src\export/ble_conn.h ****        and/or other materials provided with the distribution.
  19:..\..\..\..\blesw\src\export/ble_conn.h ****     3. Neither the name of the copyright holder nor the names of its contributors
  20:..\..\..\..\blesw\src\export/ble_conn.h ****        may be used to endorse or promote products derived from this software without
  21:..\..\..\..\blesw\src\export/ble_conn.h ****        specific prior written permission.
  22:..\..\..\..\blesw\src\export/ble_conn.h **** 
  23:..\..\..\..\blesw\src\export/ble_conn.h ****     THIS SOFTWARE IS PROVIDED BY THE COPYRIGHT HOLDERS AND CONTRIBUTORS "AS IS"
  24:..\..\..\..\blesw\src\export/ble_conn.h **** AND ANY EXPRESS OR IMPLIED WARRANTIES, INCLUDING, BUT NOT LIMITED TO, THE IMPLIED
  25:..\..\..\..\blesw\src\export/ble_conn.h **** WARRANTIES OF MERCHANTABILITY AND FITNESS FOR A PARTICULAR PURPOSE ARE DISCLAIMED.
  26:..\..\..\..\blesw\src\export/ble_conn.h **** IN NO EVENT SHALL THE COPYRIGHT HOLDER OR CONTRIBUTORS BE LIABLE FOR ANY DIRECT,
  27:..\..\..\..\blesw\src\export/ble_conn.h **** INDIRECT, INCIDENTAL, SPECIAL, EXEMPLARY, OR CONSEQUENTIAL DAMAGES (INCLUDING, BUT
  28:..\..\..\..\blesw\src\export/ble_conn.h **** NOT LIMITED TO, PROCUREMENT OF SUBSTITUTE GOODS OR SERVICES; LOSS OF USE, DATA, OR
  29:..\..\..\..\blesw\src\export/ble_conn.h **** PROFITS; OR BUSINESS INTERRUPTION) HOWEVER CAUSED AND ON ANY THEORY OF LIABILITY,
  30:..\..\..\..\blesw\src\export/ble_conn.h **** WHETHER IN CONTRACT, STRICT LIABILITY, OR TORT (INCLUDING NEGLIGENCE OR OTHERWISE)
  31:..\..\..\..\blesw\src\export/ble_conn.h **** ARISING IN ANY WAY OUT OF THE USE OF THIS SOFTWARE, EVEN IF ADVISED OF THE POSSIBILITY
  32:..\..\..\..\blesw\src\export/ble_conn.h **** OF SUCH DAMAGE.
  33:..\..\..\..\blesw\src\export/ble_conn.h **** */
  34:..\..\..\..\blesw\src\export/ble_conn.h **** 
  35:..\..\..\..\blesw\src\export/ble_conn.h **** #ifndef _BLE_CONN_H__
  36:..\..\..\..\blesw\src\export/ble_conn.h **** #define _BLE_CONN_H__
  37:..\..\..\..\blesw\src\export/ble_conn.h **** 
  38:..\..\..\..\blesw\src\export/ble_conn.h **** #include <stdint.h>
  39:..\..\..\..\blesw\src\export/ble_conn.h **** #include <stdbool.h>
  40:..\..\..\..\blesw\src\export/ble_conn.h **** 
  41:..\..\..\..\blesw\src\export/ble_conn.h **** #include "ble_gap.h"
  42:..\..\..\..\blesw\src\export/ble_conn.h **** #include "ble_error.h"
  43:..\..\..\..\blesw\src\export/ble_conn.h **** 
  44:..\..\..\..\blesw\src\export/ble_conn.h **** #ifdef __cplusplus
  45:..\..\..\..\blesw\src\export/ble_conn.h **** extern "C" {
  46:..\..\..\..\blesw\src\export/ble_conn.h **** #endif
  47:..\..\..\..\blesw\src\export/ble_conn.h **** 
  48:..\..\..\..\blesw\src\export/ble_conn.h **** /* Resolvable private address mask */
  49:..\..\..\..\blesw\src\export/ble_conn.h **** #define BLE_RESOLVE_ADDR_MASK   0xC0
  50:..\..\..\..\blesw\src\export/ble_conn.h **** 
  51:..\..\..\..\blesw\src\export/ble_conn.h **** /* MSB of resolvable private address */
  52:..\..\..\..\blesw\src\export/ble_conn.h **** #define BLE_RESOLVE_ADDR_MSB    0x40
  53:..\..\..\..\blesw\src\export/ble_conn.h **** 
  54:..\..\..\..\blesw\src\export/ble_conn.h **** /*!
  55:..\..\..\..\blesw\src\export/ble_conn.h ****     \brief      Check if an address is resolvable private address
  56:..\..\..\..\blesw\src\export/ble_conn.h ****     \param[in]  x: address to check
  57:..\..\..\..\blesw\src\export/ble_conn.h ****     \param[out] none
  58:..\..\..\..\blesw\src\export/ble_conn.h ****     \retval     bool: true if the address is resolvable private address, otherwise false
  59:..\..\..\..\blesw\src\export/ble_conn.h **** */
  60:..\..\..\..\blesw\src\export/ble_conn.h **** static inline bool BLE_IS_RESOLVE_BDA(uint8_t x[6])
  61:..\..\..\..\blesw\src\export/ble_conn.h **** {
  62:..\..\..\..\blesw\src\export/ble_conn.h ****     return (x[5] & BLE_RESOLVE_ADDR_MASK) == BLE_RESOLVE_ADDR_MSB;
  51              		.loc 2 62 5 is_stmt 1 discriminator 1
  52              	.LBE13:
  53              	.LBE12:
  64:C:/Users/stapi/OneDrive/Desktop/GD32VW553/V1_MQTT_OK/GD32VW55X_Wifi_BLE_SDK/GD32VW55x_RELEASE_V1.0.2/MSDK/ble/app\app_dev_mgr.c ****         BLE_IS_RESOLVE_BDA(p_addr->addr) != true) {
  54              		.loc 1 64 55 is_stmt 0 discriminator 1
  55 001e 83476500 		lbu	a5,6(a0)
  56 0022 13070004 		li	a4,64
  57 0026 93F7070C 		andi	a5,a5,192
  58 002a E394E7FE 		bne	a5,a4,.L4
  69:C:/Users/stapi/OneDrive/Desktop/GD32VW553/V1_MQTT_OK/GD32VW55X_Wifi_BLE_SDK/GD32VW55x_RELEASE_V1.0.2/MSDK/ble/app\app_dev_mgr.c ****         if (ble_gap_rpa_matches_irk(p_addr->addr, p_device->bond_info.peer_irk.irk)) {
  59              		.loc 1 69 37
  60 002e BC41     		lw	a5,64(a1)
  61 0030 2E84     		mv	s0,a1
  69:C:/Users/stapi/OneDrive/Desktop/GD32VW553/V1_MQTT_OK/GD32VW55X_Wifi_BLE_SDK/GD32VW55x_RELEASE_V1.0.2/MSDK/ble/app\app_dev_mgr.c ****         if (ble_gap_rpa_matches_irk(p_addr->addr, p_device->bond_info.peer_irk.irk)) {
  62              		.loc 1 69 5 is_stmt 1
  69:C:/Users/stapi/OneDrive/Desktop/GD32VW553/V1_MQTT_OK/GD32VW55X_Wifi_BLE_SDK/GD32VW55x_RELEASE_V1.0.2/MSDK/ble/app\app_dev_mgr.c ****         if (ble_gap_rpa_matches_irk(p_addr->addr, p_device->bond_info.peer_irk.irk)) {
  63              		.loc 1 69 37 is_stmt 0
  64 0032 898B     		andi	a5,a5,2
  69:C:/Users/stapi/OneDrive/Desktop/GD32VW553/V1_MQTT_OK/GD32VW55X_Wifi_BLE_SDK/GD32VW55x_RELEASE_V1.0.2/MSDK/ble/app\app_dev_mgr.c ****         if (ble_gap_rpa_matches_irk(p_addr->addr, p_device->bond_info.peer_irk.irk)) {
  65              		.loc 1 69 8
  66 0034 F9DF     		beq	a5,zero,.L4
  67              	.LVL3:
  70:C:/Users/stapi/OneDrive/Desktop/GD32VW553/V1_MQTT_OK/GD32VW55X_Wifi_BLE_SDK/GD32VW55x_RELEASE_V1.0.2/MSDK/ble/app\app_dev_mgr.c ****             dbg_print(NOTICE, "ble_addr_resolvable match irk %02X:%02X:%02X:%02X:%02X:%02X \r\n",
  68              		.loc 1 70 9 is_stmt 1
  70:C:/Users/stapi/OneDrive/Desktop/GD32VW553/V1_MQTT_OK/GD32VW55X_Wifi_BLE_SDK/GD32VW55x_RELEASE_V1.0.2/MSDK/ble/app\app_dev_mgr.c ****             dbg_print(NOTICE, "ble_addr_resolvable match irk %02X:%02X:%02X:%02X:%02X:%02X \r\n",
  69              		.loc 1 70 13 is_stmt 0
  70 0036 93854504 		addi	a1,a1,68
  71 003a 0505     		addi	a0,a0,1
  72              	.LVL4:
  73 003c 97000000 		call	ble_gap_rpa_matches_irk
  73      E7800000 
  74              	.LVL5:
  75 0044 AA84     		mv	s1,a0
  70:C:/Users/stapi/OneDrive/Desktop/GD32VW553/V1_MQTT_OK/GD32VW55X_Wifi_BLE_SDK/GD32VW55x_RELEASE_V1.0.2/MSDK/ble/app\app_dev_mgr.c ****             dbg_print(NOTICE, "ble_addr_resolvable match irk %02X:%02X:%02X:%02X:%02X:%02X \r\n",
  76              		.loc 1 70 12
  77 0046 71D5     		beq	a0,zero,.L4
  78              	.LVL6:
  79              	.LBB14:
  80              	.LBB15:
  71:C:/Users/stapi/OneDrive/Desktop/GD32VW553/V1_MQTT_OK/GD32VW55X_Wifi_BLE_SDK/GD32VW55x_RELEASE_V1.0.2/MSDK/ble/app\app_dev_mgr.c ****                    p_device->cur_addr.addr[5], p_device->cur_addr.addr[4], p_device->cur_addr.addr[
  81              		.loc 1 71 13 is_stmt 1
  71:C:/Users/stapi/OneDrive/Desktop/GD32VW553/V1_MQTT_OK/GD32VW55X_Wifi_BLE_SDK/GD32VW55x_RELEASE_V1.0.2/MSDK/ble/app\app_dev_mgr.c ****                    p_device->cur_addr.addr[5], p_device->cur_addr.addr[4], p_device->cur_addr.addr[
  82              		.loc 1 71 13
  83 0048 B7070000 		lui	a5,%hi(global_debug_level)
  84 004c 03C70700 		lbu	a4,%lo(global_debug_level)(a5)
  85 0050 8947     		li	a5,2
  86 0052 E3F1E7FC 		bleu	a4,a5,.L3
  71:C:/Users/stapi/OneDrive/Desktop/GD32VW553/V1_MQTT_OK/GD32VW55X_Wifi_BLE_SDK/GD32VW55x_RELEASE_V1.0.2/MSDK/ble/app\app_dev_mgr.c ****                    p_device->cur_addr.addr[5], p_device->cur_addr.addr[4], p_device->cur_addr.addr[
  87              		.loc 1 71 13
  88 0056 03489400 		lbu	a6,9(s0)
  89 005a 8347A400 		lbu	a5,10(s0)
  90 005e 0347B400 		lbu	a4,11(s0)
  91 0062 8346C400 		lbu	a3,12(s0)
  92 0066 0346D400 		lbu	a2,13(s0)
  93 006a 8345E400 		lbu	a1,14(s0)
  94 006e 37050000 		lui	a0,%hi(.LC0)
  95 0072 13050500 		addi	a0,a0,%lo(.LC0)
  96 0076 97000000 		call	co_printf
  96      E7800000 
  97              	.LVL7:
  98 007e 59BF     		j	.L3
  99              	.LBE15:
 100              	.LBE14:
 101              		.cfi_endproc
 102              	.LFE2:
 104              		.section	.text.dm_clear_all_dev_list_flag,"ax",@progbits
 105              		.align	1
 106              		.globl	dm_clear_all_dev_list_flag
 108              	dm_clear_all_dev_list_flag:
 109              	.LFB3:
  81:C:/Users/stapi/OneDrive/Desktop/GD32VW553/V1_MQTT_OK/GD32VW55X_Wifi_BLE_SDK/GD32VW55x_RELEASE_V1.0.2/MSDK/ble/app\app_dev_mgr.c **** 
  82:C:/Users/stapi/OneDrive/Desktop/GD32VW553/V1_MQTT_OK/GD32VW55X_Wifi_BLE_SDK/GD32VW55x_RELEASE_V1.0.2/MSDK/ble/app\app_dev_mgr.c **** /*!
  83:C:/Users/stapi/OneDrive/Desktop/GD32VW553/V1_MQTT_OK/GD32VW55X_Wifi_BLE_SDK/GD32VW55x_RELEASE_V1.0.2/MSDK/ble/app\app_dev_mgr.c ****     \brief      Clear list flag of all the devices
  84:C:/Users/stapi/OneDrive/Desktop/GD32VW553/V1_MQTT_OK/GD32VW55X_Wifi_BLE_SDK/GD32VW55x_RELEASE_V1.0.2/MSDK/ble/app\app_dev_mgr.c ****     \param[in]  wl: true to clear FAL list, otherwise clear RAL list
  85:C:/Users/stapi/OneDrive/Desktop/GD32VW553/V1_MQTT_OK/GD32VW55X_Wifi_BLE_SDK/GD32VW55x_RELEASE_V1.0.2/MSDK/ble/app\app_dev_mgr.c ****     \param[out] none
  86:C:/Users/stapi/OneDrive/Desktop/GD32VW553/V1_MQTT_OK/GD32VW55X_Wifi_BLE_SDK/GD32VW55x_RELEASE_V1.0.2/MSDK/ble/app\app_dev_mgr.c ****     \retval     none
  87:C:/Users/stapi/OneDrive/Desktop/GD32VW553/V1_MQTT_OK/GD32VW55X_Wifi_BLE_SDK/GD32VW55x_RELEASE_V1.0.2/MSDK/ble/app\app_dev_mgr.c **** */
  88:C:/Users/stapi/OneDrive/Desktop/GD32VW553/V1_MQTT_OK/GD32VW55X_Wifi_BLE_SDK/GD32VW55x_RELEASE_V1.0.2/MSDK/ble/app\app_dev_mgr.c **** void dm_clear_all_dev_list_flag(bool wl)
  89:C:/Users/stapi/OneDrive/Desktop/GD32VW553/V1_MQTT_OK/GD32VW55X_Wifi_BLE_SDK/GD32VW55x_RELEASE_V1.0.2/MSDK/ble/app\app_dev_mgr.c **** {
 110              		.loc 1 89 1
 111              		.cfi_startproc
 112              	.LVL8:
 113 0000 17030000 		call	t0,__riscv_save_2
 113      E7020300 
 114              		.cfi_offset 9, -12
 115              		.cfi_offset 8, -8
 116              		.cfi_offset 1, -4
 117              		.cfi_def_cfa_offset 16
  90:C:/Users/stapi/OneDrive/Desktop/GD32VW553/V1_MQTT_OK/GD32VW55X_Wifi_BLE_SDK/GD32VW55x_RELEASE_V1.0.2/MSDK/ble/app\app_dev_mgr.c ****     dlist_t *pos, *n;
 118              		.loc 1 90 5
  91:C:/Users/stapi/OneDrive/Desktop/GD32VW553/V1_MQTT_OK/GD32VW55X_Wifi_BLE_SDK/GD32VW55x_RELEASE_V1.0.2/MSDK/ble/app\app_dev_mgr.c ****     ble_device_t *p_device;
 119              		.loc 1 91 5
  92:C:/Users/stapi/OneDrive/Desktop/GD32VW553/V1_MQTT_OK/GD32VW55X_Wifi_BLE_SDK/GD32VW55x_RELEASE_V1.0.2/MSDK/ble/app\app_dev_mgr.c **** 
  93:C:/Users/stapi/OneDrive/Desktop/GD32VW553/V1_MQTT_OK/GD32VW55X_Wifi_BLE_SDK/GD32VW55x_RELEASE_V1.0.2/MSDK/ble/app\app_dev_mgr.c ****     if (list_empty(&device_mgr.sec_dev_list)) {
 120              		.loc 1 93 5
 121              		.loc 1 93 9 is_stmt 0
 122 0008 37040000 		lui	s0,%hi(.LANCHOR0)
  89:C:/Users/stapi/OneDrive/Desktop/GD32VW553/V1_MQTT_OK/GD32VW55X_Wifi_BLE_SDK/GD32VW55x_RELEASE_V1.0.2/MSDK/ble/app\app_dev_mgr.c ****     dlist_t *pos, *n;
 123              		.loc 1 89 1
 124 000c AA84     		mv	s1,a0
 125              		.loc 1 93 9
 126 000e 13050400 		addi	a0,s0,%lo(.LANCHOR0)
 127              	.LVL9:
 128 0012 97000000 		call	list_empty
 128      E7800000 
 129              	.LVL10:
 130              		.loc 1 93 8
 131 001a 19E5     		bne	a0,zero,.L12
 132 001c 13040400 		addi	s0,s0,%lo(.LANCHOR0)
  94:C:/Users/stapi/OneDrive/Desktop/GD32VW553/V1_MQTT_OK/GD32VW55X_Wifi_BLE_SDK/GD32VW55x_RELEASE_V1.0.2/MSDK/ble/app\app_dev_mgr.c ****         return;
  95:C:/Users/stapi/OneDrive/Desktop/GD32VW553/V1_MQTT_OK/GD32VW55X_Wifi_BLE_SDK/GD32VW55x_RELEASE_V1.0.2/MSDK/ble/app\app_dev_mgr.c ****     }
  96:C:/Users/stapi/OneDrive/Desktop/GD32VW553/V1_MQTT_OK/GD32VW55X_Wifi_BLE_SDK/GD32VW55x_RELEASE_V1.0.2/MSDK/ble/app\app_dev_mgr.c **** 
  97:C:/Users/stapi/OneDrive/Desktop/GD32VW553/V1_MQTT_OK/GD32VW55X_Wifi_BLE_SDK/GD32VW55x_RELEASE_V1.0.2/MSDK/ble/app\app_dev_mgr.c ****     list_for_each_safe(pos, n, &device_mgr.sec_dev_list) {
 133              		.loc 1 97 5 is_stmt 1
 134 0020 1C40     		lw	a5,0(s0)
 135              	.LVL11:
 136 0022 9843     		lw	a4,0(a5)
 137              	.LVL12:
 138              	.L14:
 139              		.loc 1 97 5 discriminator 1
 140 0024 63968700 		bne	a5,s0,.L17
 141              	.LVL13:
 142              	.L12:
  98:C:/Users/stapi/OneDrive/Desktop/GD32VW553/V1_MQTT_OK/GD32VW55X_Wifi_BLE_SDK/GD32VW55x_RELEASE_V1.0.2/MSDK/ble/app\app_dev_mgr.c ****         p_device = list_entry(pos, ble_device_t, list);
  99:C:/Users/stapi/OneDrive/Desktop/GD32VW553/V1_MQTT_OK/GD32VW55X_Wifi_BLE_SDK/GD32VW55x_RELEASE_V1.0.2/MSDK/ble/app\app_dev_mgr.c ****         if (wl) {
 100:C:/Users/stapi/OneDrive/Desktop/GD32VW553/V1_MQTT_OK/GD32VW55X_Wifi_BLE_SDK/GD32VW55x_RELEASE_V1.0.2/MSDK/ble/app\app_dev_mgr.c ****             p_device->in_wl = false;
 101:C:/Users/stapi/OneDrive/Desktop/GD32VW553/V1_MQTT_OK/GD32VW55X_Wifi_BLE_SDK/GD32VW55x_RELEASE_V1.0.2/MSDK/ble/app\app_dev_mgr.c ****         } else {
 102:C:/Users/stapi/OneDrive/Desktop/GD32VW553/V1_MQTT_OK/GD32VW55X_Wifi_BLE_SDK/GD32VW55x_RELEASE_V1.0.2/MSDK/ble/app\app_dev_mgr.c ****             p_device->in_ral = false;
 103:C:/Users/stapi/OneDrive/Desktop/GD32VW553/V1_MQTT_OK/GD32VW55X_Wifi_BLE_SDK/GD32VW55x_RELEASE_V1.0.2/MSDK/ble/app\app_dev_mgr.c ****         }
 104:C:/Users/stapi/OneDrive/Desktop/GD32VW553/V1_MQTT_OK/GD32VW55X_Wifi_BLE_SDK/GD32VW55x_RELEASE_V1.0.2/MSDK/ble/app\app_dev_mgr.c ****     }
 105:C:/Users/stapi/OneDrive/Desktop/GD32VW553/V1_MQTT_OK/GD32VW55X_Wifi_BLE_SDK/GD32VW55x_RELEASE_V1.0.2/MSDK/ble/app\app_dev_mgr.c **** }
 143              		.loc 1 105 1 is_stmt 0
 144 0028 17030000 		tail	__riscv_restore_2
 144      67000300 
 145              		.cfi_remember_state
 146              		.cfi_restore 9
 147              		.cfi_restore 8
 148              		.cfi_restore 1
 149              		.cfi_def_cfa_offset 0
 150              	.LVL14:
 151              	.L17:
 152              		.cfi_restore_state
  98:C:/Users/stapi/OneDrive/Desktop/GD32VW553/V1_MQTT_OK/GD32VW55X_Wifi_BLE_SDK/GD32VW55x_RELEASE_V1.0.2/MSDK/ble/app\app_dev_mgr.c ****         p_device = list_entry(pos, ble_device_t, list);
 153              		.loc 1 98 9 is_stmt 1
  99:C:/Users/stapi/OneDrive/Desktop/GD32VW553/V1_MQTT_OK/GD32VW55X_Wifi_BLE_SDK/GD32VW55x_RELEASE_V1.0.2/MSDK/ble/app\app_dev_mgr.c ****             p_device->in_wl = false;
 154              		.loc 1 99 9
  99:C:/Users/stapi/OneDrive/Desktop/GD32VW553/V1_MQTT_OK/GD32VW55X_Wifi_BLE_SDK/GD32VW55x_RELEASE_V1.0.2/MSDK/ble/app\app_dev_mgr.c ****             p_device->in_wl = false;
 155              		.loc 1 99 12 is_stmt 0
 156 0030 91C4     		beq	s1,zero,.L15
 100:C:/Users/stapi/OneDrive/Desktop/GD32VW553/V1_MQTT_OK/GD32VW55X_Wifi_BLE_SDK/GD32VW55x_RELEASE_V1.0.2/MSDK/ble/app\app_dev_mgr.c ****         } else {
 157              		.loc 1 100 13 is_stmt 1
 100:C:/Users/stapi/OneDrive/Desktop/GD32VW553/V1_MQTT_OK/GD32VW55X_Wifi_BLE_SDK/GD32VW55x_RELEASE_V1.0.2/MSDK/ble/app\app_dev_mgr.c ****         } else {
 158              		.loc 1 100 29 is_stmt 0
 159 0032 A38A0700 		sb	zero,21(a5)
 160              	.L16:
  97:C:/Users/stapi/OneDrive/Desktop/GD32VW553/V1_MQTT_OK/GD32VW55X_Wifi_BLE_SDK/GD32VW55x_RELEASE_V1.0.2/MSDK/ble/app\app_dev_mgr.c ****         p_device = list_entry(pos, ble_device_t, list);
 161              		.loc 1 97 5 is_stmt 1 discriminator 2
 162              	.LVL15:
 163 0036 BA87     		mv	a5,a4
 164              	.LVL16:
 165 0038 1843     		lw	a4,0(a4)
 166              	.LVL17:
 167 003a EDB7     		j	.L14
 168              	.LVL18:
 169              	.L15:
 102:C:/Users/stapi/OneDrive/Desktop/GD32VW553/V1_MQTT_OK/GD32VW55X_Wifi_BLE_SDK/GD32VW55x_RELEASE_V1.0.2/MSDK/ble/app\app_dev_mgr.c ****         }
 170              		.loc 1 102 13
 102:C:/Users/stapi/OneDrive/Desktop/GD32VW553/V1_MQTT_OK/GD32VW55X_Wifi_BLE_SDK/GD32VW55x_RELEASE_V1.0.2/MSDK/ble/app\app_dev_mgr.c ****         }
 171              		.loc 1 102 30 is_stmt 0
 172 003c 238B0700 		sb	zero,22(a5)
 173 0040 DDBF     		j	.L16
 174              		.cfi_endproc
 175              	.LFE3:
 177              		.section	.text.dm_remove_dev_by_addr,"ax",@progbits
 178              		.align	1
 179              		.globl	dm_remove_dev_by_addr
 181              	dm_remove_dev_by_addr:
 182              	.LFB5:
 106:C:/Users/stapi/OneDrive/Desktop/GD32VW553/V1_MQTT_OK/GD32VW55X_Wifi_BLE_SDK/GD32VW55x_RELEASE_V1.0.2/MSDK/ble/app\app_dev_mgr.c **** 
 107:C:/Users/stapi/OneDrive/Desktop/GD32VW553/V1_MQTT_OK/GD32VW55X_Wifi_BLE_SDK/GD32VW55x_RELEASE_V1.0.2/MSDK/ble/app\app_dev_mgr.c **** /*!
 108:C:/Users/stapi/OneDrive/Desktop/GD32VW553/V1_MQTT_OK/GD32VW55X_Wifi_BLE_SDK/GD32VW55x_RELEASE_V1.0.2/MSDK/ble/app\app_dev_mgr.c ****     \brief      Function to handle connection disconnected event
 109:C:/Users/stapi/OneDrive/Desktop/GD32VW553/V1_MQTT_OK/GD32VW55X_Wifi_BLE_SDK/GD32VW55x_RELEASE_V1.0.2/MSDK/ble/app\app_dev_mgr.c ****     \param[in]  conidx: connection index
 110:C:/Users/stapi/OneDrive/Desktop/GD32VW553/V1_MQTT_OK/GD32VW55X_Wifi_BLE_SDK/GD32VW55x_RELEASE_V1.0.2/MSDK/ble/app\app_dev_mgr.c ****     \param[out] none
 111:C:/Users/stapi/OneDrive/Desktop/GD32VW553/V1_MQTT_OK/GD32VW55X_Wifi_BLE_SDK/GD32VW55x_RELEASE_V1.0.2/MSDK/ble/app\app_dev_mgr.c ****     \retval     none
 112:C:/Users/stapi/OneDrive/Desktop/GD32VW553/V1_MQTT_OK/GD32VW55X_Wifi_BLE_SDK/GD32VW55x_RELEASE_V1.0.2/MSDK/ble/app\app_dev_mgr.c **** */
 113:C:/Users/stapi/OneDrive/Desktop/GD32VW553/V1_MQTT_OK/GD32VW55X_Wifi_BLE_SDK/GD32VW55x_RELEASE_V1.0.2/MSDK/ble/app\app_dev_mgr.c **** void dm_handle_dev_disconnected(uint8_t conidx)
 114:C:/Users/stapi/OneDrive/Desktop/GD32VW553/V1_MQTT_OK/GD32VW55X_Wifi_BLE_SDK/GD32VW55x_RELEASE_V1.0.2/MSDK/ble/app\app_dev_mgr.c **** {
 115:C:/Users/stapi/OneDrive/Desktop/GD32VW553/V1_MQTT_OK/GD32VW55X_Wifi_BLE_SDK/GD32VW55x_RELEASE_V1.0.2/MSDK/ble/app\app_dev_mgr.c ****     ble_device_t *p_device = dm_find_dev_by_conidx(conidx);
 116:C:/Users/stapi/OneDrive/Desktop/GD32VW553/V1_MQTT_OK/GD32VW55X_Wifi_BLE_SDK/GD32VW55x_RELEASE_V1.0.2/MSDK/ble/app\app_dev_mgr.c **** 
 117:C:/Users/stapi/OneDrive/Desktop/GD32VW553/V1_MQTT_OK/GD32VW55X_Wifi_BLE_SDK/GD32VW55x_RELEASE_V1.0.2/MSDK/ble/app\app_dev_mgr.c ****     if (p_device == NULL) {
 118:C:/Users/stapi/OneDrive/Desktop/GD32VW553/V1_MQTT_OK/GD32VW55X_Wifi_BLE_SDK/GD32VW55x_RELEASE_V1.0.2/MSDK/ble/app\app_dev_mgr.c ****         return;
 119:C:/Users/stapi/OneDrive/Desktop/GD32VW553/V1_MQTT_OK/GD32VW55X_Wifi_BLE_SDK/GD32VW55x_RELEASE_V1.0.2/MSDK/ble/app\app_dev_mgr.c ****     }
 120:C:/Users/stapi/OneDrive/Desktop/GD32VW553/V1_MQTT_OK/GD32VW55X_Wifi_BLE_SDK/GD32VW55x_RELEASE_V1.0.2/MSDK/ble/app\app_dev_mgr.c **** 
 121:C:/Users/stapi/OneDrive/Desktop/GD32VW553/V1_MQTT_OK/GD32VW55X_Wifi_BLE_SDK/GD32VW55x_RELEASE_V1.0.2/MSDK/ble/app\app_dev_mgr.c ****     if (p_device->pending_remove && p_device->bonded) {
 122:C:/Users/stapi/OneDrive/Desktop/GD32VW553/V1_MQTT_OK/GD32VW55X_Wifi_BLE_SDK/GD32VW55x_RELEASE_V1.0.2/MSDK/ble/app\app_dev_mgr.c ****         ble_peer_data_delete(&p_device->cur_addr);
 123:C:/Users/stapi/OneDrive/Desktop/GD32VW553/V1_MQTT_OK/GD32VW55X_Wifi_BLE_SDK/GD32VW55x_RELEASE_V1.0.2/MSDK/ble/app\app_dev_mgr.c ****         memset(&p_device->bond_info, 0, sizeof(ble_gap_sec_bond_data_t));
 124:C:/Users/stapi/OneDrive/Desktop/GD32VW553/V1_MQTT_OK/GD32VW55X_Wifi_BLE_SDK/GD32VW55x_RELEASE_V1.0.2/MSDK/ble/app\app_dev_mgr.c ****         p_device->bonded = false;
 125:C:/Users/stapi/OneDrive/Desktop/GD32VW553/V1_MQTT_OK/GD32VW55X_Wifi_BLE_SDK/GD32VW55x_RELEASE_V1.0.2/MSDK/ble/app\app_dev_mgr.c ****     }
 126:C:/Users/stapi/OneDrive/Desktop/GD32VW553/V1_MQTT_OK/GD32VW55X_Wifi_BLE_SDK/GD32VW55x_RELEASE_V1.0.2/MSDK/ble/app\app_dev_mgr.c **** 
 127:C:/Users/stapi/OneDrive/Desktop/GD32VW553/V1_MQTT_OK/GD32VW55X_Wifi_BLE_SDK/GD32VW55x_RELEASE_V1.0.2/MSDK/ble/app\app_dev_mgr.c ****     if (!p_device->bonded && !p_device->in_wl && !p_device->in_ral) {
 128:C:/Users/stapi/OneDrive/Desktop/GD32VW553/V1_MQTT_OK/GD32VW55X_Wifi_BLE_SDK/GD32VW55x_RELEASE_V1.0.2/MSDK/ble/app\app_dev_mgr.c ****         list_del(&p_device->list);
 129:C:/Users/stapi/OneDrive/Desktop/GD32VW553/V1_MQTT_OK/GD32VW55X_Wifi_BLE_SDK/GD32VW55x_RELEASE_V1.0.2/MSDK/ble/app\app_dev_mgr.c ****         sys_mfree(p_device);
 130:C:/Users/stapi/OneDrive/Desktop/GD32VW553/V1_MQTT_OK/GD32VW55X_Wifi_BLE_SDK/GD32VW55x_RELEASE_V1.0.2/MSDK/ble/app\app_dev_mgr.c ****     } else {
 131:C:/Users/stapi/OneDrive/Desktop/GD32VW553/V1_MQTT_OK/GD32VW55X_Wifi_BLE_SDK/GD32VW55x_RELEASE_V1.0.2/MSDK/ble/app\app_dev_mgr.c ****         p_device->conn_hdl = BLE_CONN_HANDLE_INVALID;
 132:C:/Users/stapi/OneDrive/Desktop/GD32VW553/V1_MQTT_OK/GD32VW55X_Wifi_BLE_SDK/GD32VW55x_RELEASE_V1.0.2/MSDK/ble/app\app_dev_mgr.c ****         p_device->conn_idx = BLE_CONN_CONIDX_INVALID;
 133:C:/Users/stapi/OneDrive/Desktop/GD32VW553/V1_MQTT_OK/GD32VW55X_Wifi_BLE_SDK/GD32VW55x_RELEASE_V1.0.2/MSDK/ble/app\app_dev_mgr.c ****         p_device->state = BLE_CONN_STATE_DISCONNECTD;
 134:C:/Users/stapi/OneDrive/Desktop/GD32VW553/V1_MQTT_OK/GD32VW55X_Wifi_BLE_SDK/GD32VW55x_RELEASE_V1.0.2/MSDK/ble/app\app_dev_mgr.c ****         p_device->encry_cmplt = false;
 135:C:/Users/stapi/OneDrive/Desktop/GD32VW553/V1_MQTT_OK/GD32VW55X_Wifi_BLE_SDK/GD32VW55x_RELEASE_V1.0.2/MSDK/ble/app\app_dev_mgr.c ****         p_device->update_state = IDLE_STATE;
 136:C:/Users/stapi/OneDrive/Desktop/GD32VW553/V1_MQTT_OK/GD32VW55X_Wifi_BLE_SDK/GD32VW55x_RELEASE_V1.0.2/MSDK/ble/app\app_dev_mgr.c ****         p_device->enable_fast_param = false;
 137:C:/Users/stapi/OneDrive/Desktop/GD32VW553/V1_MQTT_OK/GD32VW55X_Wifi_BLE_SDK/GD32VW55x_RELEASE_V1.0.2/MSDK/ble/app\app_dev_mgr.c ****     }
 138:C:/Users/stapi/OneDrive/Desktop/GD32VW553/V1_MQTT_OK/GD32VW55X_Wifi_BLE_SDK/GD32VW55x_RELEASE_V1.0.2/MSDK/ble/app\app_dev_mgr.c **** }
 139:C:/Users/stapi/OneDrive/Desktop/GD32VW553/V1_MQTT_OK/GD32VW55X_Wifi_BLE_SDK/GD32VW55x_RELEASE_V1.0.2/MSDK/ble/app\app_dev_mgr.c **** 
 140:C:/Users/stapi/OneDrive/Desktop/GD32VW553/V1_MQTT_OK/GD32VW55X_Wifi_BLE_SDK/GD32VW55x_RELEASE_V1.0.2/MSDK/ble/app\app_dev_mgr.c **** /*!
 141:C:/Users/stapi/OneDrive/Desktop/GD32VW553/V1_MQTT_OK/GD32VW55X_Wifi_BLE_SDK/GD32VW55x_RELEASE_V1.0.2/MSDK/ble/app\app_dev_mgr.c ****     \brief      Remove device with specific address from the device list
 142:C:/Users/stapi/OneDrive/Desktop/GD32VW553/V1_MQTT_OK/GD32VW55X_Wifi_BLE_SDK/GD32VW55x_RELEASE_V1.0.2/MSDK/ble/app\app_dev_mgr.c ****     \param[in]  address: device address
 143:C:/Users/stapi/OneDrive/Desktop/GD32VW553/V1_MQTT_OK/GD32VW55X_Wifi_BLE_SDK/GD32VW55x_RELEASE_V1.0.2/MSDK/ble/app\app_dev_mgr.c ****     \param[out] none
 144:C:/Users/stapi/OneDrive/Desktop/GD32VW553/V1_MQTT_OK/GD32VW55X_Wifi_BLE_SDK/GD32VW55x_RELEASE_V1.0.2/MSDK/ble/app\app_dev_mgr.c ****     \retval     none
 145:C:/Users/stapi/OneDrive/Desktop/GD32VW553/V1_MQTT_OK/GD32VW55X_Wifi_BLE_SDK/GD32VW55x_RELEASE_V1.0.2/MSDK/ble/app\app_dev_mgr.c **** */
 146:C:/Users/stapi/OneDrive/Desktop/GD32VW553/V1_MQTT_OK/GD32VW55X_Wifi_BLE_SDK/GD32VW55x_RELEASE_V1.0.2/MSDK/ble/app\app_dev_mgr.c **** void dm_remove_dev_by_addr(ble_gap_addr_t address)
 147:C:/Users/stapi/OneDrive/Desktop/GD32VW553/V1_MQTT_OK/GD32VW55X_Wifi_BLE_SDK/GD32VW55x_RELEASE_V1.0.2/MSDK/ble/app\app_dev_mgr.c **** {
 183              		.loc 1 147 1 is_stmt 1
 184              		.cfi_startproc
 185 0000 17030000 		call	t0,__riscv_save_3
 185      E7020300 
 186              		.cfi_offset 18, -16
 187              		.cfi_offset 9, -12
 188              		.cfi_offset 8, -8
 189              		.cfi_offset 1, -4
 190              		.cfi_def_cfa_offset 16
 148:C:/Users/stapi/OneDrive/Desktop/GD32VW553/V1_MQTT_OK/GD32VW55X_Wifi_BLE_SDK/GD32VW55x_RELEASE_V1.0.2/MSDK/ble/app\app_dev_mgr.c ****     dlist_t *pos, *n;
 191              		.loc 1 148 5
 149:C:/Users/stapi/OneDrive/Desktop/GD32VW553/V1_MQTT_OK/GD32VW55X_Wifi_BLE_SDK/GD32VW55x_RELEASE_V1.0.2/MSDK/ble/app\app_dev_mgr.c ****     ble_device_t *p_device = NULL;
 192              		.loc 1 149 5
 193              	.LVL19:
 150:C:/Users/stapi/OneDrive/Desktop/GD32VW553/V1_MQTT_OK/GD32VW55X_Wifi_BLE_SDK/GD32VW55x_RELEASE_V1.0.2/MSDK/ble/app\app_dev_mgr.c ****     bool found = false;
 194              		.loc 1 150 5
 151:C:/Users/stapi/OneDrive/Desktop/GD32VW553/V1_MQTT_OK/GD32VW55X_Wifi_BLE_SDK/GD32VW55x_RELEASE_V1.0.2/MSDK/ble/app\app_dev_mgr.c **** 
 152:C:/Users/stapi/OneDrive/Desktop/GD32VW553/V1_MQTT_OK/GD32VW55X_Wifi_BLE_SDK/GD32VW55x_RELEASE_V1.0.2/MSDK/ble/app\app_dev_mgr.c ****     if (list_empty(&device_mgr.sec_dev_list)) {
 195              		.loc 1 152 5
 147:C:/Users/stapi/OneDrive/Desktop/GD32VW553/V1_MQTT_OK/GD32VW55X_Wifi_BLE_SDK/GD32VW55x_RELEASE_V1.0.2/MSDK/ble/app\app_dev_mgr.c ****     dlist_t *pos, *n;
 196              		.loc 1 147 1 is_stmt 0
 197 0008 4111     		addi	sp,sp,-16
 198              		.cfi_def_cfa_offset 32
 199              		.loc 1 152 9
 200 000a B7040000 		lui	s1,%hi(.LANCHOR0)
 147:C:/Users/stapi/OneDrive/Desktop/GD32VW553/V1_MQTT_OK/GD32VW55X_Wifi_BLE_SDK/GD32VW55x_RELEASE_V1.0.2/MSDK/ble/app\app_dev_mgr.c ****     dlist_t *pos, *n;
 201              		.loc 1 147 1
 202 000e 2AC4     		sw	a0,8(sp)
 203              		.loc 1 152 9
 204 0010 13850400 		addi	a0,s1,%lo(.LANCHOR0)
 147:C:/Users/stapi/OneDrive/Desktop/GD32VW553/V1_MQTT_OK/GD32VW55X_Wifi_BLE_SDK/GD32VW55x_RELEASE_V1.0.2/MSDK/ble/app\app_dev_mgr.c ****     dlist_t *pos, *n;
 205              		.loc 1 147 1
 206 0014 2EC6     		sw	a1,12(sp)
 207              		.loc 1 152 9
 208 0016 97000000 		call	list_empty
 208      E7800000 
 209              	.LVL20:
 210              		.loc 1 152 8
 211 001e 01E9     		bne	a0,zero,.L20
 212 0020 93840400 		addi	s1,s1,%lo(.LANCHOR0)
 153:C:/Users/stapi/OneDrive/Desktop/GD32VW553/V1_MQTT_OK/GD32VW55X_Wifi_BLE_SDK/GD32VW55x_RELEASE_V1.0.2/MSDK/ble/app\app_dev_mgr.c ****         return;
 154:C:/Users/stapi/OneDrive/Desktop/GD32VW553/V1_MQTT_OK/GD32VW55X_Wifi_BLE_SDK/GD32VW55x_RELEASE_V1.0.2/MSDK/ble/app\app_dev_mgr.c ****     }
 155:C:/Users/stapi/OneDrive/Desktop/GD32VW553/V1_MQTT_OK/GD32VW55X_Wifi_BLE_SDK/GD32VW55x_RELEASE_V1.0.2/MSDK/ble/app\app_dev_mgr.c **** 
 156:C:/Users/stapi/OneDrive/Desktop/GD32VW553/V1_MQTT_OK/GD32VW55X_Wifi_BLE_SDK/GD32VW55x_RELEASE_V1.0.2/MSDK/ble/app\app_dev_mgr.c ****     list_for_each_safe(pos, n, &device_mgr.sec_dev_list) {
 213              		.loc 1 156 5 is_stmt 1
 214 0024 8040     		lw	s0,0(s1)
 215              	.LVL21:
 216 0026 03290400 		lw	s2,0(s0)
 217              	.LVL22:
 218              	.L23:
 219              		.loc 1 156 5 discriminator 1
 220 002a 63179400 		bne	s0,s1,.L25
 221              	.LVL23:
 222              	.L20:
 157:C:/Users/stapi/OneDrive/Desktop/GD32VW553/V1_MQTT_OK/GD32VW55X_Wifi_BLE_SDK/GD32VW55x_RELEASE_V1.0.2/MSDK/ble/app\app_dev_mgr.c ****         p_device = list_entry(pos, ble_device_t, list);
 158:C:/Users/stapi/OneDrive/Desktop/GD32VW553/V1_MQTT_OK/GD32VW55X_Wifi_BLE_SDK/GD32VW55x_RELEASE_V1.0.2/MSDK/ble/app\app_dev_mgr.c ****         if (!memcmp(&p_device->cur_addr, &address, sizeof(ble_gap_addr_t))) {
 159:C:/Users/stapi/OneDrive/Desktop/GD32VW553/V1_MQTT_OK/GD32VW55X_Wifi_BLE_SDK/GD32VW55x_RELEASE_V1.0.2/MSDK/ble/app\app_dev_mgr.c ****             found = true;
 160:C:/Users/stapi/OneDrive/Desktop/GD32VW553/V1_MQTT_OK/GD32VW55X_Wifi_BLE_SDK/GD32VW55x_RELEASE_V1.0.2/MSDK/ble/app\app_dev_mgr.c ****             break;
 161:C:/Users/stapi/OneDrive/Desktop/GD32VW553/V1_MQTT_OK/GD32VW55X_Wifi_BLE_SDK/GD32VW55x_RELEASE_V1.0.2/MSDK/ble/app\app_dev_mgr.c ****         }
 162:C:/Users/stapi/OneDrive/Desktop/GD32VW553/V1_MQTT_OK/GD32VW55X_Wifi_BLE_SDK/GD32VW55x_RELEASE_V1.0.2/MSDK/ble/app\app_dev_mgr.c **** 
 163:C:/Users/stapi/OneDrive/Desktop/GD32VW553/V1_MQTT_OK/GD32VW55X_Wifi_BLE_SDK/GD32VW55x_RELEASE_V1.0.2/MSDK/ble/app\app_dev_mgr.c ****         if (!memcmp(&p_device->bond_info.peer_irk.identity, &address, sizeof(ble_gap_addr_t))) {
 164:C:/Users/stapi/OneDrive/Desktop/GD32VW553/V1_MQTT_OK/GD32VW55X_Wifi_BLE_SDK/GD32VW55x_RELEASE_V1.0.2/MSDK/ble/app\app_dev_mgr.c ****             found = true;
 165:C:/Users/stapi/OneDrive/Desktop/GD32VW553/V1_MQTT_OK/GD32VW55X_Wifi_BLE_SDK/GD32VW55x_RELEASE_V1.0.2/MSDK/ble/app\app_dev_mgr.c ****             break;
 166:C:/Users/stapi/OneDrive/Desktop/GD32VW553/V1_MQTT_OK/GD32VW55X_Wifi_BLE_SDK/GD32VW55x_RELEASE_V1.0.2/MSDK/ble/app\app_dev_mgr.c ****         }
 167:C:/Users/stapi/OneDrive/Desktop/GD32VW553/V1_MQTT_OK/GD32VW55X_Wifi_BLE_SDK/GD32VW55x_RELEASE_V1.0.2/MSDK/ble/app\app_dev_mgr.c **** 
 168:C:/Users/stapi/OneDrive/Desktop/GD32VW553/V1_MQTT_OK/GD32VW55X_Wifi_BLE_SDK/GD32VW55x_RELEASE_V1.0.2/MSDK/ble/app\app_dev_mgr.c ****         if (ble_addr_resolvable(&address, p_device)) {
 169:C:/Users/stapi/OneDrive/Desktop/GD32VW553/V1_MQTT_OK/GD32VW55X_Wifi_BLE_SDK/GD32VW55x_RELEASE_V1.0.2/MSDK/ble/app\app_dev_mgr.c ****             found = true;
 170:C:/Users/stapi/OneDrive/Desktop/GD32VW553/V1_MQTT_OK/GD32VW55X_Wifi_BLE_SDK/GD32VW55x_RELEASE_V1.0.2/MSDK/ble/app\app_dev_mgr.c ****             break;
 171:C:/Users/stapi/OneDrive/Desktop/GD32VW553/V1_MQTT_OK/GD32VW55X_Wifi_BLE_SDK/GD32VW55x_RELEASE_V1.0.2/MSDK/ble/app\app_dev_mgr.c ****         }
 172:C:/Users/stapi/OneDrive/Desktop/GD32VW553/V1_MQTT_OK/GD32VW55X_Wifi_BLE_SDK/GD32VW55x_RELEASE_V1.0.2/MSDK/ble/app\app_dev_mgr.c ****     }
 173:C:/Users/stapi/OneDrive/Desktop/GD32VW553/V1_MQTT_OK/GD32VW55X_Wifi_BLE_SDK/GD32VW55x_RELEASE_V1.0.2/MSDK/ble/app\app_dev_mgr.c **** 
 174:C:/Users/stapi/OneDrive/Desktop/GD32VW553/V1_MQTT_OK/GD32VW55X_Wifi_BLE_SDK/GD32VW55x_RELEASE_V1.0.2/MSDK/ble/app\app_dev_mgr.c ****     if (found) {
 175:C:/Users/stapi/OneDrive/Desktop/GD32VW553/V1_MQTT_OK/GD32VW55X_Wifi_BLE_SDK/GD32VW55x_RELEASE_V1.0.2/MSDK/ble/app\app_dev_mgr.c ****         list_del(&p_device->list);
 176:C:/Users/stapi/OneDrive/Desktop/GD32VW553/V1_MQTT_OK/GD32VW55X_Wifi_BLE_SDK/GD32VW55x_RELEASE_V1.0.2/MSDK/ble/app\app_dev_mgr.c ****         sys_mfree(p_device);
 177:C:/Users/stapi/OneDrive/Desktop/GD32VW553/V1_MQTT_OK/GD32VW55X_Wifi_BLE_SDK/GD32VW55x_RELEASE_V1.0.2/MSDK/ble/app\app_dev_mgr.c ****     }
 178:C:/Users/stapi/OneDrive/Desktop/GD32VW553/V1_MQTT_OK/GD32VW55X_Wifi_BLE_SDK/GD32VW55x_RELEASE_V1.0.2/MSDK/ble/app\app_dev_mgr.c **** }
 223              		.loc 1 178 1 is_stmt 0
 224 002e 4101     		addi	sp,sp,16
 225              		.cfi_remember_state
 226              		.cfi_def_cfa_offset 0
 227 0030 17030000 		tail	__riscv_restore_3
 227      67000300 
 228              		.cfi_restore 18
 229              		.cfi_restore 9
 230              		.cfi_restore 8
 231              		.cfi_restore 1
 232              		.cfi_def_cfa_offset -16
 233              	.LVL24:
 234              	.L25:
 235              		.cfi_restore_state
 157:C:/Users/stapi/OneDrive/Desktop/GD32VW553/V1_MQTT_OK/GD32VW55X_Wifi_BLE_SDK/GD32VW55x_RELEASE_V1.0.2/MSDK/ble/app\app_dev_mgr.c ****         p_device = list_entry(pos, ble_device_t, list);
 236              		.loc 1 157 9 is_stmt 1
 158:C:/Users/stapi/OneDrive/Desktop/GD32VW553/V1_MQTT_OK/GD32VW55X_Wifi_BLE_SDK/GD32VW55x_RELEASE_V1.0.2/MSDK/ble/app\app_dev_mgr.c ****             found = true;
 237              		.loc 1 158 9
 158:C:/Users/stapi/OneDrive/Desktop/GD32VW553/V1_MQTT_OK/GD32VW55X_Wifi_BLE_SDK/GD32VW55x_RELEASE_V1.0.2/MSDK/ble/app\app_dev_mgr.c ****             found = true;
 238              		.loc 1 158 14 is_stmt 0
 239 0038 1D46     		li	a2,7
 240 003a 2C00     		addi	a1,sp,8
 241 003c 13058400 		addi	a0,s0,8
 242 0040 97000000 		call	memcmp
 242      E7800000 
 243              	.LVL25:
 158:C:/Users/stapi/OneDrive/Desktop/GD32VW553/V1_MQTT_OK/GD32VW55X_Wifi_BLE_SDK/GD32VW55x_RELEASE_V1.0.2/MSDK/ble/app\app_dev_mgr.c ****             found = true;
 244              		.loc 1 158 12
 245 0048 0DC5     		beq	a0,zero,.L24
 163:C:/Users/stapi/OneDrive/Desktop/GD32VW553/V1_MQTT_OK/GD32VW55X_Wifi_BLE_SDK/GD32VW55x_RELEASE_V1.0.2/MSDK/ble/app\app_dev_mgr.c ****             found = true;
 246              		.loc 1 163 9 is_stmt 1
 163:C:/Users/stapi/OneDrive/Desktop/GD32VW553/V1_MQTT_OK/GD32VW55X_Wifi_BLE_SDK/GD32VW55x_RELEASE_V1.0.2/MSDK/ble/app\app_dev_mgr.c ****             found = true;
 247              		.loc 1 163 14 is_stmt 0
 248 004a 1D46     		li	a2,7
 249 004c 2C00     		addi	a1,sp,8
 250 004e 13054405 		addi	a0,s0,84
 251 0052 97000000 		call	memcmp
 251      E7800000 
 252              	.LVL26:
 163:C:/Users/stapi/OneDrive/Desktop/GD32VW553/V1_MQTT_OK/GD32VW55X_Wifi_BLE_SDK/GD32VW55x_RELEASE_V1.0.2/MSDK/ble/app\app_dev_mgr.c ****             found = true;
 253              		.loc 1 163 12
 254 005a 01CD     		beq	a0,zero,.L24
 168:C:/Users/stapi/OneDrive/Desktop/GD32VW553/V1_MQTT_OK/GD32VW55X_Wifi_BLE_SDK/GD32VW55x_RELEASE_V1.0.2/MSDK/ble/app\app_dev_mgr.c ****             found = true;
 255              		.loc 1 168 9 is_stmt 1
 168:C:/Users/stapi/OneDrive/Desktop/GD32VW553/V1_MQTT_OK/GD32VW55X_Wifi_BLE_SDK/GD32VW55x_RELEASE_V1.0.2/MSDK/ble/app\app_dev_mgr.c ****             found = true;
 256              		.loc 1 168 13 is_stmt 0
 257 005c A285     		mv	a1,s0
 258 005e 2800     		addi	a0,sp,8
 259 0060 97000000 		call	ble_addr_resolvable
 259      E7800000 
 260              	.LVL27:
 168:C:/Users/stapi/OneDrive/Desktop/GD32VW553/V1_MQTT_OK/GD32VW55X_Wifi_BLE_SDK/GD32VW55x_RELEASE_V1.0.2/MSDK/ble/app\app_dev_mgr.c ****             found = true;
 261              		.loc 1 168 12
 262 0068 09E5     		bne	a0,zero,.L24
 156:C:/Users/stapi/OneDrive/Desktop/GD32VW553/V1_MQTT_OK/GD32VW55X_Wifi_BLE_SDK/GD32VW55x_RELEASE_V1.0.2/MSDK/ble/app\app_dev_mgr.c ****         p_device = list_entry(pos, ble_device_t, list);
 263              		.loc 1 156 5 is_stmt 1 discriminator 2
 264              	.LVL28:
 265 006a 4A84     		mv	s0,s2
 266              	.LVL29:
 267 006c 03290900 		lw	s2,0(s2)
 268              	.LVL30:
 269 0070 6DBF     		j	.L23
 270              	.LVL31:
 271              	.L24:
 174:C:/Users/stapi/OneDrive/Desktop/GD32VW553/V1_MQTT_OK/GD32VW55X_Wifi_BLE_SDK/GD32VW55x_RELEASE_V1.0.2/MSDK/ble/app\app_dev_mgr.c ****         list_del(&p_device->list);
 272              		.loc 1 174 5
 175:C:/Users/stapi/OneDrive/Desktop/GD32VW553/V1_MQTT_OK/GD32VW55X_Wifi_BLE_SDK/GD32VW55x_RELEASE_V1.0.2/MSDK/ble/app\app_dev_mgr.c ****         sys_mfree(p_device);
 273              		.loc 1 175 9
 274 0072 2285     		mv	a0,s0
 275 0074 97000000 		call	list_del
 275      E7800000 
 276              	.LVL32:
 176:C:/Users/stapi/OneDrive/Desktop/GD32VW553/V1_MQTT_OK/GD32VW55X_Wifi_BLE_SDK/GD32VW55x_RELEASE_V1.0.2/MSDK/ble/app\app_dev_mgr.c ****     }
 277              		.loc 1 176 9
 278 007c 2285     		mv	a0,s0
 279 007e 97000000 		call	sys_mfree
 279      E7800000 
 280              	.LVL33:
 281 0086 65B7     		j	.L20
 282              		.cfi_endproc
 283              	.LFE5:
 285              		.section	.text.dm_alloc_dev_by_addr,"ax",@progbits
 286              		.align	1
 287              		.globl	dm_alloc_dev_by_addr
 289              	dm_alloc_dev_by_addr:
 290              	.LFB6:
 179:C:/Users/stapi/OneDrive/Desktop/GD32VW553/V1_MQTT_OK/GD32VW55X_Wifi_BLE_SDK/GD32VW55x_RELEASE_V1.0.2/MSDK/ble/app\app_dev_mgr.c **** 
 180:C:/Users/stapi/OneDrive/Desktop/GD32VW553/V1_MQTT_OK/GD32VW55X_Wifi_BLE_SDK/GD32VW55x_RELEASE_V1.0.2/MSDK/ble/app\app_dev_mgr.c **** /*!
 181:C:/Users/stapi/OneDrive/Desktop/GD32VW553/V1_MQTT_OK/GD32VW55X_Wifi_BLE_SDK/GD32VW55x_RELEASE_V1.0.2/MSDK/ble/app\app_dev_mgr.c ****     \brief      Allocate device by address and put it in the device list
 182:C:/Users/stapi/OneDrive/Desktop/GD32VW553/V1_MQTT_OK/GD32VW55X_Wifi_BLE_SDK/GD32VW55x_RELEASE_V1.0.2/MSDK/ble/app\app_dev_mgr.c ****     \param[in]  address: device address
 183:C:/Users/stapi/OneDrive/Desktop/GD32VW553/V1_MQTT_OK/GD32VW55X_Wifi_BLE_SDK/GD32VW55x_RELEASE_V1.0.2/MSDK/ble/app\app_dev_mgr.c ****     \param[out] none
 184:C:/Users/stapi/OneDrive/Desktop/GD32VW553/V1_MQTT_OK/GD32VW55X_Wifi_BLE_SDK/GD32VW55x_RELEASE_V1.0.2/MSDK/ble/app\app_dev_mgr.c ****     \retval     ble_device_t *: pointer to the allocated device information
 185:C:/Users/stapi/OneDrive/Desktop/GD32VW553/V1_MQTT_OK/GD32VW55X_Wifi_BLE_SDK/GD32VW55x_RELEASE_V1.0.2/MSDK/ble/app\app_dev_mgr.c **** */
 186:C:/Users/stapi/OneDrive/Desktop/GD32VW553/V1_MQTT_OK/GD32VW55X_Wifi_BLE_SDK/GD32VW55x_RELEASE_V1.0.2/MSDK/ble/app\app_dev_mgr.c **** ble_device_t *dm_alloc_dev_by_addr(ble_gap_addr_t address)
 187:C:/Users/stapi/OneDrive/Desktop/GD32VW553/V1_MQTT_OK/GD32VW55X_Wifi_BLE_SDK/GD32VW55x_RELEASE_V1.0.2/MSDK/ble/app\app_dev_mgr.c **** {
 291              		.loc 1 187 1
 292              		.cfi_startproc
 293 0000 17030000 		call	t0,__riscv_save_2
 293      E7020300 
 294              		.cfi_offset 9, -12
 295              		.cfi_offset 8, -8
 296              		.cfi_offset 1, -4
 297              		.cfi_def_cfa_offset 16
 188:C:/Users/stapi/OneDrive/Desktop/GD32VW553/V1_MQTT_OK/GD32VW55X_Wifi_BLE_SDK/GD32VW55x_RELEASE_V1.0.2/MSDK/ble/app\app_dev_mgr.c ****     ble_status_t ret;
 298              		.loc 1 188 5
 189:C:/Users/stapi/OneDrive/Desktop/GD32VW553/V1_MQTT_OK/GD32VW55X_Wifi_BLE_SDK/GD32VW55x_RELEASE_V1.0.2/MSDK/ble/app\app_dev_mgr.c ****     ble_device_t *p_device = NULL;
 299              		.loc 1 189 5
 300              	.LVL34:
 190:C:/Users/stapi/OneDrive/Desktop/GD32VW553/V1_MQTT_OK/GD32VW55X_Wifi_BLE_SDK/GD32VW55x_RELEASE_V1.0.2/MSDK/ble/app\app_dev_mgr.c **** 
 191:C:/Users/stapi/OneDrive/Desktop/GD32VW553/V1_MQTT_OK/GD32VW55X_Wifi_BLE_SDK/GD32VW55x_RELEASE_V1.0.2/MSDK/ble/app\app_dev_mgr.c ****     p_device = (ble_device_t *)sys_malloc(sizeof(ble_device_t));
 301              		.loc 1 191 5
 187:C:/Users/stapi/OneDrive/Desktop/GD32VW553/V1_MQTT_OK/GD32VW55X_Wifi_BLE_SDK/GD32VW55x_RELEASE_V1.0.2/MSDK/ble/app\app_dev_mgr.c ****     ble_status_t ret;
 302              		.loc 1 187 1 is_stmt 0
 303 0008 4111     		addi	sp,sp,-16
 304              		.cfi_def_cfa_offset 32
 187:C:/Users/stapi/OneDrive/Desktop/GD32VW553/V1_MQTT_OK/GD32VW55X_Wifi_BLE_SDK/GD32VW55x_RELEASE_V1.0.2/MSDK/ble/app\app_dev_mgr.c ****     ble_status_t ret;
 305              		.loc 1 187 1
 306 000a 2AC4     		sw	a0,8(sp)
 307              		.loc 1 191 32
 308 000c 1305400B 		li	a0,180
 187:C:/Users/stapi/OneDrive/Desktop/GD32VW553/V1_MQTT_OK/GD32VW55X_Wifi_BLE_SDK/GD32VW55x_RELEASE_V1.0.2/MSDK/ble/app\app_dev_mgr.c ****     ble_status_t ret;
 309              		.loc 1 187 1
 310 0010 2EC6     		sw	a1,12(sp)
 311              		.loc 1 191 32
 312 0012 97000000 		call	sys_malloc
 312      E7800000 
 313              	.LVL35:
 314 001a 2A84     		mv	s0,a0
 315              	.LVL36:
 192:C:/Users/stapi/OneDrive/Desktop/GD32VW553/V1_MQTT_OK/GD32VW55X_Wifi_BLE_SDK/GD32VW55x_RELEASE_V1.0.2/MSDK/ble/app\app_dev_mgr.c **** 
 193:C:/Users/stapi/OneDrive/Desktop/GD32VW553/V1_MQTT_OK/GD32VW55X_Wifi_BLE_SDK/GD32VW55x_RELEASE_V1.0.2/MSDK/ble/app\app_dev_mgr.c ****     if (p_device == NULL) {
 316              		.loc 1 193 5 is_stmt 1
 317              		.loc 1 193 8 is_stmt 0
 318 001c 35C9     		beq	a0,zero,.L34
 194:C:/Users/stapi/OneDrive/Desktop/GD32VW553/V1_MQTT_OK/GD32VW55X_Wifi_BLE_SDK/GD32VW55x_RELEASE_V1.0.2/MSDK/ble/app\app_dev_mgr.c ****         return NULL;
 195:C:/Users/stapi/OneDrive/Desktop/GD32VW553/V1_MQTT_OK/GD32VW55X_Wifi_BLE_SDK/GD32VW55x_RELEASE_V1.0.2/MSDK/ble/app\app_dev_mgr.c ****     }
 196:C:/Users/stapi/OneDrive/Desktop/GD32VW553/V1_MQTT_OK/GD32VW55X_Wifi_BLE_SDK/GD32VW55x_RELEASE_V1.0.2/MSDK/ble/app\app_dev_mgr.c ****     memset(p_device, 0, sizeof(ble_device_t));
 319              		.loc 1 196 5 is_stmt 1
 320 001e 93048500 		addi	s1,a0,8
 321 0022 1306C00A 		li	a2,172
 322 0026 8145     		li	a1,0
 323 0028 2685     		mv	a0,s1
 324 002a 97000000 		call	memset
 324      E7800000 
 325              	.LVL37:
 197:C:/Users/stapi/OneDrive/Desktop/GD32VW553/V1_MQTT_OK/GD32VW55X_Wifi_BLE_SDK/GD32VW55x_RELEASE_V1.0.2/MSDK/ble/app\app_dev_mgr.c **** 
 198:C:/Users/stapi/OneDrive/Desktop/GD32VW553/V1_MQTT_OK/GD32VW55X_Wifi_BLE_SDK/GD32VW55x_RELEASE_V1.0.2/MSDK/ble/app\app_dev_mgr.c ****     INIT_DLIST_HEAD(&p_device->list);
 326              		.loc 1 198 5
 327              		.loc 1 198 5
 199:C:/Users/stapi/OneDrive/Desktop/GD32VW553/V1_MQTT_OK/GD32VW55X_Wifi_BLE_SDK/GD32VW55x_RELEASE_V1.0.2/MSDK/ble/app\app_dev_mgr.c ****     memcpy(&p_device->cur_addr, &address, sizeof(ble_gap_addr_t));
 328              		.loc 1 199 5 is_stmt 0
 329 0032 1D46     		li	a2,7
 198:C:/Users/stapi/OneDrive/Desktop/GD32VW553/V1_MQTT_OK/GD32VW55X_Wifi_BLE_SDK/GD32VW55x_RELEASE_V1.0.2/MSDK/ble/app\app_dev_mgr.c ****     memcpy(&p_device->cur_addr, &address, sizeof(ble_gap_addr_t));
 330              		.loc 1 198 5
 331 0034 00C0     		sw	s0,0(s0)
 198:C:/Users/stapi/OneDrive/Desktop/GD32VW553/V1_MQTT_OK/GD32VW55X_Wifi_BLE_SDK/GD32VW55x_RELEASE_V1.0.2/MSDK/ble/app\app_dev_mgr.c ****     memcpy(&p_device->cur_addr, &address, sizeof(ble_gap_addr_t));
 332              		.loc 1 198 5 is_stmt 1
 333 0036 40C0     		sw	s0,4(s0)
 198:C:/Users/stapi/OneDrive/Desktop/GD32VW553/V1_MQTT_OK/GD32VW55X_Wifi_BLE_SDK/GD32VW55x_RELEASE_V1.0.2/MSDK/ble/app\app_dev_mgr.c ****     memcpy(&p_device->cur_addr, &address, sizeof(ble_gap_addr_t));
 334              		.loc 1 198 5
 335              		.loc 1 199 5
 336 0038 2C00     		addi	a1,sp,8
 337 003a 2685     		mv	a0,s1
 338 003c 97000000 		call	memcpy
 338      E7800000 
 339              	.LVL38:
 200:C:/Users/stapi/OneDrive/Desktop/GD32VW553/V1_MQTT_OK/GD32VW55X_Wifi_BLE_SDK/GD32VW55x_RELEASE_V1.0.2/MSDK/ble/app\app_dev_mgr.c **** 
 201:C:/Users/stapi/OneDrive/Desktop/GD32VW553/V1_MQTT_OK/GD32VW55X_Wifi_BLE_SDK/GD32VW55x_RELEASE_V1.0.2/MSDK/ble/app\app_dev_mgr.c ****     if (address.addr_type == BLE_GAP_ADDR_TYPE_PUBLIC ||
 340              		.loc 1 201 5
 341              		.loc 1 201 8 is_stmt 0
 342 0044 03478100 		lbu	a4,8(sp)
 343 0048 8547     		li	a5,1
 344 004a 63EAE700 		bgtu	a4,a5,.L36
 202:C:/Users/stapi/OneDrive/Desktop/GD32VW553/V1_MQTT_OK/GD32VW55X_Wifi_BLE_SDK/GD32VW55x_RELEASE_V1.0.2/MSDK/ble/app\app_dev_mgr.c ****         address.addr_type == BLE_GAP_ADDR_TYPE_RANDOM) {
 203:C:/Users/stapi/OneDrive/Desktop/GD32VW553/V1_MQTT_OK/GD32VW55X_Wifi_BLE_SDK/GD32VW55x_RELEASE_V1.0.2/MSDK/ble/app\app_dev_mgr.c ****         memcpy(&p_device->bond_info.peer_irk.identity, &address, sizeof(ble_gap_addr_t));
 345              		.loc 1 203 9 is_stmt 1
 346 004e 1D46     		li	a2,7
 347 0050 2C00     		addi	a1,sp,8
 348 0052 13054405 		addi	a0,s0,84
 349 0056 97000000 		call	memcpy
 349      E7800000 
 350              	.LVL39:
 351              	.L36:
 204:C:/Users/stapi/OneDrive/Desktop/GD32VW553/V1_MQTT_OK/GD32VW55X_Wifi_BLE_SDK/GD32VW55x_RELEASE_V1.0.2/MSDK/ble/app\app_dev_mgr.c ****     }
 205:C:/Users/stapi/OneDrive/Desktop/GD32VW553/V1_MQTT_OK/GD32VW55X_Wifi_BLE_SDK/GD32VW55x_RELEASE_V1.0.2/MSDK/ble/app\app_dev_mgr.c **** 
 206:C:/Users/stapi/OneDrive/Desktop/GD32VW553/V1_MQTT_OK/GD32VW55X_Wifi_BLE_SDK/GD32VW55x_RELEASE_V1.0.2/MSDK/ble/app\app_dev_mgr.c ****     /* loading bond info */
 207:C:/Users/stapi/OneDrive/Desktop/GD32VW553/V1_MQTT_OK/GD32VW55X_Wifi_BLE_SDK/GD32VW55x_RELEASE_V1.0.2/MSDK/ble/app\app_dev_mgr.c ****     ret = ble_peer_data_bond_load(&p_device->cur_addr, &p_device->bond_info);
 352              		.loc 1 207 5
 353              		.loc 1 207 11 is_stmt 0
 354 005e 9305C403 		addi	a1,s0,60
 355 0062 2685     		mv	a0,s1
 356 0064 97000000 		call	ble_peer_data_bond_load
 356      E7800000 
 357              	.LVL40:
 208:C:/Users/stapi/OneDrive/Desktop/GD32VW553/V1_MQTT_OK/GD32VW55X_Wifi_BLE_SDK/GD32VW55x_RELEASE_V1.0.2/MSDK/ble/app\app_dev_mgr.c ****     if (ret == BLE_ERR_NO_ERROR) {
 358              		.loc 1 208 5 is_stmt 1
 359              		.loc 1 208 8 is_stmt 0
 360 006c 01E5     		bne	a0,zero,.L37
 209:C:/Users/stapi/OneDrive/Desktop/GD32VW553/V1_MQTT_OK/GD32VW55X_Wifi_BLE_SDK/GD32VW55x_RELEASE_V1.0.2/MSDK/ble/app\app_dev_mgr.c ****         p_device->bonded = true;
 361              		.loc 1 209 9 is_stmt 1
 362              		.loc 1 209 26 is_stmt 0
 363 006e 8547     		li	a5,1
 364 0070 2309F400 		sb	a5,18(s0)
 365              	.L37:
 210:C:/Users/stapi/OneDrive/Desktop/GD32VW553/V1_MQTT_OK/GD32VW55X_Wifi_BLE_SDK/GD32VW55x_RELEASE_V1.0.2/MSDK/ble/app\app_dev_mgr.c ****     }
 211:C:/Users/stapi/OneDrive/Desktop/GD32VW553/V1_MQTT_OK/GD32VW55X_Wifi_BLE_SDK/GD32VW55x_RELEASE_V1.0.2/MSDK/ble/app\app_dev_mgr.c **** 
 212:C:/Users/stapi/OneDrive/Desktop/GD32VW553/V1_MQTT_OK/GD32VW55X_Wifi_BLE_SDK/GD32VW55x_RELEASE_V1.0.2/MSDK/ble/app\app_dev_mgr.c ****     p_device->conn_idx = BLE_CONN_CONIDX_INVALID;
 366              		.loc 1 212 5 is_stmt 1
 367              		.loc 1 212 24 is_stmt 0
 368 0074 FD57     		li	a5,-1
 213:C:/Users/stapi/OneDrive/Desktop/GD32VW553/V1_MQTT_OK/GD32VW55X_Wifi_BLE_SDK/GD32VW55x_RELEASE_V1.0.2/MSDK/ble/app\app_dev_mgr.c ****     p_device->conn_hdl = BLE_CONN_HANDLE_INVALID;
 214:C:/Users/stapi/OneDrive/Desktop/GD32VW553/V1_MQTT_OK/GD32VW55X_Wifi_BLE_SDK/GD32VW55x_RELEASE_V1.0.2/MSDK/ble/app\app_dev_mgr.c **** 
 215:C:/Users/stapi/OneDrive/Desktop/GD32VW553/V1_MQTT_OK/GD32VW55X_Wifi_BLE_SDK/GD32VW55x_RELEASE_V1.0.2/MSDK/ble/app\app_dev_mgr.c ****     list_add_tail(&p_device->list, &device_mgr.sec_dev_list);
 369              		.loc 1 215 5
 370 0076 B7050000 		lui	a1,%hi(.LANCHOR0)
 212:C:/Users/stapi/OneDrive/Desktop/GD32VW553/V1_MQTT_OK/GD32VW55X_Wifi_BLE_SDK/GD32VW55x_RELEASE_V1.0.2/MSDK/ble/app\app_dev_mgr.c ****     p_device->conn_hdl = BLE_CONN_HANDLE_INVALID;
 371              		.loc 1 212 24
 372 007a A307F400 		sb	a5,15(s0)
 213:C:/Users/stapi/OneDrive/Desktop/GD32VW553/V1_MQTT_OK/GD32VW55X_Wifi_BLE_SDK/GD32VW55x_RELEASE_V1.0.2/MSDK/ble/app\app_dev_mgr.c ****     p_device->conn_hdl = BLE_CONN_HANDLE_INVALID;
 373              		.loc 1 213 5 is_stmt 1
 213:C:/Users/stapi/OneDrive/Desktop/GD32VW553/V1_MQTT_OK/GD32VW55X_Wifi_BLE_SDK/GD32VW55x_RELEASE_V1.0.2/MSDK/ble/app\app_dev_mgr.c ****     p_device->conn_hdl = BLE_CONN_HANDLE_INVALID;
 374              		.loc 1 213 24 is_stmt 0
 375 007e 2318F400 		sh	a5,16(s0)
 376              		.loc 1 215 5 is_stmt 1
 377 0082 93850500 		addi	a1,a1,%lo(.LANCHOR0)
 378 0086 2285     		mv	a0,s0
 379              	.LVL41:
 380 0088 97000000 		call	list_add_tail
 380      E7800000 
 381              	.LVL42:
 216:C:/Users/stapi/OneDrive/Desktop/GD32VW553/V1_MQTT_OK/GD32VW55X_Wifi_BLE_SDK/GD32VW55x_RELEASE_V1.0.2/MSDK/ble/app\app_dev_mgr.c ****     return p_device;
 382              		.loc 1 216 5
 383              	.L34:
 217:C:/Users/stapi/OneDrive/Desktop/GD32VW553/V1_MQTT_OK/GD32VW55X_Wifi_BLE_SDK/GD32VW55x_RELEASE_V1.0.2/MSDK/ble/app\app_dev_mgr.c **** }
 384              		.loc 1 217 1 is_stmt 0
 385 0090 2285     		mv	a0,s0
 386 0092 4101     		addi	sp,sp,16
 387              		.cfi_def_cfa_offset 0
 388 0094 17030000 		tail	__riscv_restore_2
 388      67000300 
 389              		.cfi_restore 9
 390              		.cfi_restore 8
 391              		.cfi_restore 1
 392              		.cfi_def_cfa_offset -16
 393              		.cfi_endproc
 394              	.LFE6:
 396              		.section	.text.dm_find_dev_by_addr,"ax",@progbits
 397              		.align	1
 398              		.globl	dm_find_dev_by_addr
 400              	dm_find_dev_by_addr:
 401              	.LFB7:
 218:C:/Users/stapi/OneDrive/Desktop/GD32VW553/V1_MQTT_OK/GD32VW55X_Wifi_BLE_SDK/GD32VW55x_RELEASE_V1.0.2/MSDK/ble/app\app_dev_mgr.c **** 
 219:C:/Users/stapi/OneDrive/Desktop/GD32VW553/V1_MQTT_OK/GD32VW55X_Wifi_BLE_SDK/GD32VW55x_RELEASE_V1.0.2/MSDK/ble/app\app_dev_mgr.c **** /*!
 220:C:/Users/stapi/OneDrive/Desktop/GD32VW553/V1_MQTT_OK/GD32VW55X_Wifi_BLE_SDK/GD32VW55x_RELEASE_V1.0.2/MSDK/ble/app\app_dev_mgr.c ****     \brief      Find device information in the device list by address
 221:C:/Users/stapi/OneDrive/Desktop/GD32VW553/V1_MQTT_OK/GD32VW55X_Wifi_BLE_SDK/GD32VW55x_RELEASE_V1.0.2/MSDK/ble/app\app_dev_mgr.c ****     \param[in]  address: device address
 222:C:/Users/stapi/OneDrive/Desktop/GD32VW553/V1_MQTT_OK/GD32VW55X_Wifi_BLE_SDK/GD32VW55x_RELEASE_V1.0.2/MSDK/ble/app\app_dev_mgr.c ****     \param[out] none
 223:C:/Users/stapi/OneDrive/Desktop/GD32VW553/V1_MQTT_OK/GD32VW55X_Wifi_BLE_SDK/GD32VW55x_RELEASE_V1.0.2/MSDK/ble/app\app_dev_mgr.c ****     \retval     ble_device_t *: pointer to the device information found, NULL if no such device
 224:C:/Users/stapi/OneDrive/Desktop/GD32VW553/V1_MQTT_OK/GD32VW55X_Wifi_BLE_SDK/GD32VW55x_RELEASE_V1.0.2/MSDK/ble/app\app_dev_mgr.c **** */
 225:C:/Users/stapi/OneDrive/Desktop/GD32VW553/V1_MQTT_OK/GD32VW55X_Wifi_BLE_SDK/GD32VW55x_RELEASE_V1.0.2/MSDK/ble/app\app_dev_mgr.c **** ble_device_t *dm_find_dev_by_addr(ble_gap_addr_t address)
 226:C:/Users/stapi/OneDrive/Desktop/GD32VW553/V1_MQTT_OK/GD32VW55X_Wifi_BLE_SDK/GD32VW55x_RELEASE_V1.0.2/MSDK/ble/app\app_dev_mgr.c **** {
 402              		.loc 1 226 1 is_stmt 1
 403              		.cfi_startproc
 404 0000 17030000 		call	t0,__riscv_save_3
 404      E7020300 
 405              		.cfi_offset 18, -16
 406              		.cfi_offset 9, -12
 407              		.cfi_offset 8, -8
 408              		.cfi_offset 1, -4
 409              		.cfi_def_cfa_offset 16
 227:C:/Users/stapi/OneDrive/Desktop/GD32VW553/V1_MQTT_OK/GD32VW55X_Wifi_BLE_SDK/GD32VW55x_RELEASE_V1.0.2/MSDK/ble/app\app_dev_mgr.c ****     dlist_t *pos, *n;
 410              		.loc 1 227 5
 228:C:/Users/stapi/OneDrive/Desktop/GD32VW553/V1_MQTT_OK/GD32VW55X_Wifi_BLE_SDK/GD32VW55x_RELEASE_V1.0.2/MSDK/ble/app\app_dev_mgr.c ****     ble_device_t *p_device;
 411              		.loc 1 228 5
 229:C:/Users/stapi/OneDrive/Desktop/GD32VW553/V1_MQTT_OK/GD32VW55X_Wifi_BLE_SDK/GD32VW55x_RELEASE_V1.0.2/MSDK/ble/app\app_dev_mgr.c **** 
 230:C:/Users/stapi/OneDrive/Desktop/GD32VW553/V1_MQTT_OK/GD32VW55X_Wifi_BLE_SDK/GD32VW55x_RELEASE_V1.0.2/MSDK/ble/app\app_dev_mgr.c ****     if (list_empty(&device_mgr.sec_dev_list)) {
 412              		.loc 1 230 5
 226:C:/Users/stapi/OneDrive/Desktop/GD32VW553/V1_MQTT_OK/GD32VW55X_Wifi_BLE_SDK/GD32VW55x_RELEASE_V1.0.2/MSDK/ble/app\app_dev_mgr.c ****     dlist_t *pos, *n;
 413              		.loc 1 226 1 is_stmt 0
 414 0008 4111     		addi	sp,sp,-16
 415              		.cfi_def_cfa_offset 32
 416              		.loc 1 230 9
 417 000a B7040000 		lui	s1,%hi(.LANCHOR0)
 226:C:/Users/stapi/OneDrive/Desktop/GD32VW553/V1_MQTT_OK/GD32VW55X_Wifi_BLE_SDK/GD32VW55x_RELEASE_V1.0.2/MSDK/ble/app\app_dev_mgr.c ****     dlist_t *pos, *n;
 418              		.loc 1 226 1
 419 000e 2AC4     		sw	a0,8(sp)
 420              		.loc 1 230 9
 421 0010 13850400 		addi	a0,s1,%lo(.LANCHOR0)
 226:C:/Users/stapi/OneDrive/Desktop/GD32VW553/V1_MQTT_OK/GD32VW55X_Wifi_BLE_SDK/GD32VW55x_RELEASE_V1.0.2/MSDK/ble/app\app_dev_mgr.c ****     dlist_t *pos, *n;
 422              		.loc 1 226 1
 423 0014 2EC6     		sw	a1,12(sp)
 424              		.loc 1 230 9
 425 0016 97000000 		call	list_empty
 425      E7800000 
 426              	.LVL43:
 427              		.loc 1 230 8
 428 001e 01C9     		beq	a0,zero,.L43
 429              	.L47:
 231:C:/Users/stapi/OneDrive/Desktop/GD32VW553/V1_MQTT_OK/GD32VW55X_Wifi_BLE_SDK/GD32VW55x_RELEASE_V1.0.2/MSDK/ble/app\app_dev_mgr.c ****         return NULL;
 430              		.loc 1 231 16
 431 0020 0144     		li	s0,0
 432              	.L42:
 232:C:/Users/stapi/OneDrive/Desktop/GD32VW553/V1_MQTT_OK/GD32VW55X_Wifi_BLE_SDK/GD32VW55x_RELEASE_V1.0.2/MSDK/ble/app\app_dev_mgr.c ****     }
 233:C:/Users/stapi/OneDrive/Desktop/GD32VW553/V1_MQTT_OK/GD32VW55X_Wifi_BLE_SDK/GD32VW55x_RELEASE_V1.0.2/MSDK/ble/app\app_dev_mgr.c **** 
 234:C:/Users/stapi/OneDrive/Desktop/GD32VW553/V1_MQTT_OK/GD32VW55X_Wifi_BLE_SDK/GD32VW55x_RELEASE_V1.0.2/MSDK/ble/app\app_dev_mgr.c ****     list_for_each_safe(pos, n, &device_mgr.sec_dev_list) {
 235:C:/Users/stapi/OneDrive/Desktop/GD32VW553/V1_MQTT_OK/GD32VW55X_Wifi_BLE_SDK/GD32VW55x_RELEASE_V1.0.2/MSDK/ble/app\app_dev_mgr.c ****         p_device = list_entry(pos, ble_device_t, list);
 236:C:/Users/stapi/OneDrive/Desktop/GD32VW553/V1_MQTT_OK/GD32VW55X_Wifi_BLE_SDK/GD32VW55x_RELEASE_V1.0.2/MSDK/ble/app\app_dev_mgr.c ****         if (!memcmp(&p_device->cur_addr, &address, sizeof(ble_gap_addr_t))) {
 237:C:/Users/stapi/OneDrive/Desktop/GD32VW553/V1_MQTT_OK/GD32VW55X_Wifi_BLE_SDK/GD32VW55x_RELEASE_V1.0.2/MSDK/ble/app\app_dev_mgr.c ****             return p_device;
 238:C:/Users/stapi/OneDrive/Desktop/GD32VW553/V1_MQTT_OK/GD32VW55X_Wifi_BLE_SDK/GD32VW55x_RELEASE_V1.0.2/MSDK/ble/app\app_dev_mgr.c ****         }
 239:C:/Users/stapi/OneDrive/Desktop/GD32VW553/V1_MQTT_OK/GD32VW55X_Wifi_BLE_SDK/GD32VW55x_RELEASE_V1.0.2/MSDK/ble/app\app_dev_mgr.c **** 
 240:C:/Users/stapi/OneDrive/Desktop/GD32VW553/V1_MQTT_OK/GD32VW55X_Wifi_BLE_SDK/GD32VW55x_RELEASE_V1.0.2/MSDK/ble/app\app_dev_mgr.c ****         if (!memcmp(&p_device->bond_info.peer_irk.identity, &address, sizeof(ble_gap_addr_t))) {
 241:C:/Users/stapi/OneDrive/Desktop/GD32VW553/V1_MQTT_OK/GD32VW55X_Wifi_BLE_SDK/GD32VW55x_RELEASE_V1.0.2/MSDK/ble/app\app_dev_mgr.c ****             return p_device;
 242:C:/Users/stapi/OneDrive/Desktop/GD32VW553/V1_MQTT_OK/GD32VW55X_Wifi_BLE_SDK/GD32VW55x_RELEASE_V1.0.2/MSDK/ble/app\app_dev_mgr.c ****         }
 243:C:/Users/stapi/OneDrive/Desktop/GD32VW553/V1_MQTT_OK/GD32VW55X_Wifi_BLE_SDK/GD32VW55x_RELEASE_V1.0.2/MSDK/ble/app\app_dev_mgr.c **** 
 244:C:/Users/stapi/OneDrive/Desktop/GD32VW553/V1_MQTT_OK/GD32VW55X_Wifi_BLE_SDK/GD32VW55x_RELEASE_V1.0.2/MSDK/ble/app\app_dev_mgr.c ****         if (ble_addr_resolvable(&address, p_device)) {
 245:C:/Users/stapi/OneDrive/Desktop/GD32VW553/V1_MQTT_OK/GD32VW55X_Wifi_BLE_SDK/GD32VW55x_RELEASE_V1.0.2/MSDK/ble/app\app_dev_mgr.c ****             return p_device;
 246:C:/Users/stapi/OneDrive/Desktop/GD32VW553/V1_MQTT_OK/GD32VW55X_Wifi_BLE_SDK/GD32VW55x_RELEASE_V1.0.2/MSDK/ble/app\app_dev_mgr.c ****         }
 247:C:/Users/stapi/OneDrive/Desktop/GD32VW553/V1_MQTT_OK/GD32VW55X_Wifi_BLE_SDK/GD32VW55x_RELEASE_V1.0.2/MSDK/ble/app\app_dev_mgr.c ****     }
 248:C:/Users/stapi/OneDrive/Desktop/GD32VW553/V1_MQTT_OK/GD32VW55X_Wifi_BLE_SDK/GD32VW55x_RELEASE_V1.0.2/MSDK/ble/app\app_dev_mgr.c **** 
 249:C:/Users/stapi/OneDrive/Desktop/GD32VW553/V1_MQTT_OK/GD32VW55X_Wifi_BLE_SDK/GD32VW55x_RELEASE_V1.0.2/MSDK/ble/app\app_dev_mgr.c ****     return NULL;
 250:C:/Users/stapi/OneDrive/Desktop/GD32VW553/V1_MQTT_OK/GD32VW55X_Wifi_BLE_SDK/GD32VW55x_RELEASE_V1.0.2/MSDK/ble/app\app_dev_mgr.c **** }
 433              		.loc 1 250 1
 434 0022 2285     		mv	a0,s0
 435 0024 4101     		addi	sp,sp,16
 436              		.cfi_remember_state
 437              		.cfi_def_cfa_offset 0
 438 0026 17030000 		tail	__riscv_restore_3
 438      67000300 
 439              		.cfi_restore 18
 440              		.cfi_restore 9
 441              		.cfi_restore 8
 442              		.cfi_restore 1
 443              		.cfi_def_cfa_offset -16
 444              	.L43:
 445              		.cfi_restore_state
 446 002e 93840400 		addi	s1,s1,%lo(.LANCHOR0)
 234:C:/Users/stapi/OneDrive/Desktop/GD32VW553/V1_MQTT_OK/GD32VW55X_Wifi_BLE_SDK/GD32VW55x_RELEASE_V1.0.2/MSDK/ble/app\app_dev_mgr.c ****         p_device = list_entry(pos, ble_device_t, list);
 447              		.loc 1 234 5 is_stmt 1
 448 0032 8040     		lw	s0,0(s1)
 449              	.LVL44:
 450 0034 03290400 		lw	s2,0(s0)
 451              	.LVL45:
 452              	.L45:
 234:C:/Users/stapi/OneDrive/Desktop/GD32VW553/V1_MQTT_OK/GD32VW55X_Wifi_BLE_SDK/GD32VW55x_RELEASE_V1.0.2/MSDK/ble/app\app_dev_mgr.c ****         p_device = list_entry(pos, ble_device_t, list);
 453              		.loc 1 234 5 discriminator 1
 454 0038 E30494FE 		beq	s0,s1,.L47
 235:C:/Users/stapi/OneDrive/Desktop/GD32VW553/V1_MQTT_OK/GD32VW55X_Wifi_BLE_SDK/GD32VW55x_RELEASE_V1.0.2/MSDK/ble/app\app_dev_mgr.c ****         if (!memcmp(&p_device->cur_addr, &address, sizeof(ble_gap_addr_t))) {
 455              		.loc 1 235 9
 456              	.LVL46:
 236:C:/Users/stapi/OneDrive/Desktop/GD32VW553/V1_MQTT_OK/GD32VW55X_Wifi_BLE_SDK/GD32VW55x_RELEASE_V1.0.2/MSDK/ble/app\app_dev_mgr.c ****             return p_device;
 457              		.loc 1 236 9
 236:C:/Users/stapi/OneDrive/Desktop/GD32VW553/V1_MQTT_OK/GD32VW55X_Wifi_BLE_SDK/GD32VW55x_RELEASE_V1.0.2/MSDK/ble/app\app_dev_mgr.c ****             return p_device;
 458              		.loc 1 236 14 is_stmt 0
 459 003c 1D46     		li	a2,7
 460 003e 2C00     		addi	a1,sp,8
 461 0040 13058400 		addi	a0,s0,8
 462 0044 97000000 		call	memcmp
 462      E7800000 
 463              	.LVL47:
 236:C:/Users/stapi/OneDrive/Desktop/GD32VW553/V1_MQTT_OK/GD32VW55X_Wifi_BLE_SDK/GD32VW55x_RELEASE_V1.0.2/MSDK/ble/app\app_dev_mgr.c ****             return p_device;
 464              		.loc 1 236 12
 465 004c 79D9     		beq	a0,zero,.L42
 240:C:/Users/stapi/OneDrive/Desktop/GD32VW553/V1_MQTT_OK/GD32VW55X_Wifi_BLE_SDK/GD32VW55x_RELEASE_V1.0.2/MSDK/ble/app\app_dev_mgr.c ****             return p_device;
 466              		.loc 1 240 9 is_stmt 1
 240:C:/Users/stapi/OneDrive/Desktop/GD32VW553/V1_MQTT_OK/GD32VW55X_Wifi_BLE_SDK/GD32VW55x_RELEASE_V1.0.2/MSDK/ble/app\app_dev_mgr.c ****             return p_device;
 467              		.loc 1 240 14 is_stmt 0
 468 004e 1D46     		li	a2,7
 469 0050 2C00     		addi	a1,sp,8
 470 0052 13054405 		addi	a0,s0,84
 471 0056 97000000 		call	memcmp
 471      E7800000 
 472              	.LVL48:
 240:C:/Users/stapi/OneDrive/Desktop/GD32VW553/V1_MQTT_OK/GD32VW55X_Wifi_BLE_SDK/GD32VW55x_RELEASE_V1.0.2/MSDK/ble/app\app_dev_mgr.c ****             return p_device;
 473              		.loc 1 240 12
 474 005e 71D1     		beq	a0,zero,.L42
 244:C:/Users/stapi/OneDrive/Desktop/GD32VW553/V1_MQTT_OK/GD32VW55X_Wifi_BLE_SDK/GD32VW55x_RELEASE_V1.0.2/MSDK/ble/app\app_dev_mgr.c ****             return p_device;
 475              		.loc 1 244 9 is_stmt 1
 244:C:/Users/stapi/OneDrive/Desktop/GD32VW553/V1_MQTT_OK/GD32VW55X_Wifi_BLE_SDK/GD32VW55x_RELEASE_V1.0.2/MSDK/ble/app\app_dev_mgr.c ****             return p_device;
 476              		.loc 1 244 13 is_stmt 0
 477 0060 A285     		mv	a1,s0
 478 0062 2800     		addi	a0,sp,8
 479 0064 97000000 		call	ble_addr_resolvable
 479      E7800000 
 480              	.LVL49:
 244:C:/Users/stapi/OneDrive/Desktop/GD32VW553/V1_MQTT_OK/GD32VW55X_Wifi_BLE_SDK/GD32VW55x_RELEASE_V1.0.2/MSDK/ble/app\app_dev_mgr.c ****             return p_device;
 481              		.loc 1 244 12
 482 006c 5DF9     		bne	a0,zero,.L42
 234:C:/Users/stapi/OneDrive/Desktop/GD32VW553/V1_MQTT_OK/GD32VW55X_Wifi_BLE_SDK/GD32VW55x_RELEASE_V1.0.2/MSDK/ble/app\app_dev_mgr.c ****         p_device = list_entry(pos, ble_device_t, list);
 483              		.loc 1 234 5 is_stmt 1 discriminator 2
 484              	.LVL50:
 485 006e 4A84     		mv	s0,s2
 486              	.LVL51:
 487 0070 03290900 		lw	s2,0(s2)
 488              	.LVL52:
 489 0074 D1B7     		j	.L45
 490              		.cfi_endproc
 491              	.LFE7:
 493              		.section	.text.dm_find_alloc_dev_by_addr,"ax",@progbits
 494              		.align	1
 495              		.globl	dm_find_alloc_dev_by_addr
 497              	dm_find_alloc_dev_by_addr:
 498              	.LFB8:
 251:C:/Users/stapi/OneDrive/Desktop/GD32VW553/V1_MQTT_OK/GD32VW55X_Wifi_BLE_SDK/GD32VW55x_RELEASE_V1.0.2/MSDK/ble/app\app_dev_mgr.c **** 
 252:C:/Users/stapi/OneDrive/Desktop/GD32VW553/V1_MQTT_OK/GD32VW55X_Wifi_BLE_SDK/GD32VW55x_RELEASE_V1.0.2/MSDK/ble/app\app_dev_mgr.c **** /*!
 253:C:/Users/stapi/OneDrive/Desktop/GD32VW553/V1_MQTT_OK/GD32VW55X_Wifi_BLE_SDK/GD32VW55x_RELEASE_V1.0.2/MSDK/ble/app\app_dev_mgr.c ****     \brief      Find device information in the device list by address, if not in the list, allocate
 254:C:/Users/stapi/OneDrive/Desktop/GD32VW553/V1_MQTT_OK/GD32VW55X_Wifi_BLE_SDK/GD32VW55x_RELEASE_V1.0.2/MSDK/ble/app\app_dev_mgr.c ****     \param[in]  address: device address
 255:C:/Users/stapi/OneDrive/Desktop/GD32VW553/V1_MQTT_OK/GD32VW55X_Wifi_BLE_SDK/GD32VW55x_RELEASE_V1.0.2/MSDK/ble/app\app_dev_mgr.c ****     \param[out] none
 256:C:/Users/stapi/OneDrive/Desktop/GD32VW553/V1_MQTT_OK/GD32VW55X_Wifi_BLE_SDK/GD32VW55x_RELEASE_V1.0.2/MSDK/ble/app\app_dev_mgr.c ****     \retval     ble_device_t *: pointer to the device information found or allocated
 257:C:/Users/stapi/OneDrive/Desktop/GD32VW553/V1_MQTT_OK/GD32VW55X_Wifi_BLE_SDK/GD32VW55x_RELEASE_V1.0.2/MSDK/ble/app\app_dev_mgr.c **** */
 258:C:/Users/stapi/OneDrive/Desktop/GD32VW553/V1_MQTT_OK/GD32VW55X_Wifi_BLE_SDK/GD32VW55x_RELEASE_V1.0.2/MSDK/ble/app\app_dev_mgr.c **** ble_device_t *dm_find_alloc_dev_by_addr(ble_gap_addr_t address)
 259:C:/Users/stapi/OneDrive/Desktop/GD32VW553/V1_MQTT_OK/GD32VW55X_Wifi_BLE_SDK/GD32VW55x_RELEASE_V1.0.2/MSDK/ble/app\app_dev_mgr.c **** {
 499              		.loc 1 259 1
 500              		.cfi_startproc
 501 0000 17030000 		call	t0,__riscv_save_0
 501      E7020300 
 502              		.cfi_offset 1, -4
 503              		.cfi_def_cfa_offset 16
 260:C:/Users/stapi/OneDrive/Desktop/GD32VW553/V1_MQTT_OK/GD32VW55X_Wifi_BLE_SDK/GD32VW55x_RELEASE_V1.0.2/MSDK/ble/app\app_dev_mgr.c ****     ble_device_t *p_device = dm_find_dev_by_addr(address);
 504              		.loc 1 260 5
 259:C:/Users/stapi/OneDrive/Desktop/GD32VW553/V1_MQTT_OK/GD32VW55X_Wifi_BLE_SDK/GD32VW55x_RELEASE_V1.0.2/MSDK/ble/app\app_dev_mgr.c ****     ble_device_t *p_device = dm_find_dev_by_addr(address);
 505              		.loc 1 259 1 is_stmt 0
 506 0008 4111     		addi	sp,sp,-16
 507              		.cfi_def_cfa_offset 32
 259:C:/Users/stapi/OneDrive/Desktop/GD32VW553/V1_MQTT_OK/GD32VW55X_Wifi_BLE_SDK/GD32VW55x_RELEASE_V1.0.2/MSDK/ble/app\app_dev_mgr.c ****     ble_device_t *p_device = dm_find_dev_by_addr(address);
 508              		.loc 1 259 1
 509 000a 2AC4     		sw	a0,8(sp)
 510 000c 2EC6     		sw	a1,12(sp)
 511              		.loc 1 260 30
 512 000e 97000000 		call	dm_find_dev_by_addr
 512      E7800000 
 513              	.LVL53:
 261:C:/Users/stapi/OneDrive/Desktop/GD32VW553/V1_MQTT_OK/GD32VW55X_Wifi_BLE_SDK/GD32VW55x_RELEASE_V1.0.2/MSDK/ble/app\app_dev_mgr.c ****     if (p_device != NULL) {
 514              		.loc 1 261 5 is_stmt 1
 515              		.loc 1 261 8 is_stmt 0
 516 0016 19E5     		bne	a0,zero,.L55
 262:C:/Users/stapi/OneDrive/Desktop/GD32VW553/V1_MQTT_OK/GD32VW55X_Wifi_BLE_SDK/GD32VW55x_RELEASE_V1.0.2/MSDK/ble/app\app_dev_mgr.c ****         return p_device;
 263:C:/Users/stapi/OneDrive/Desktop/GD32VW553/V1_MQTT_OK/GD32VW55X_Wifi_BLE_SDK/GD32VW55x_RELEASE_V1.0.2/MSDK/ble/app\app_dev_mgr.c ****     }
 264:C:/Users/stapi/OneDrive/Desktop/GD32VW553/V1_MQTT_OK/GD32VW55X_Wifi_BLE_SDK/GD32VW55x_RELEASE_V1.0.2/MSDK/ble/app\app_dev_mgr.c **** 
 265:C:/Users/stapi/OneDrive/Desktop/GD32VW553/V1_MQTT_OK/GD32VW55X_Wifi_BLE_SDK/GD32VW55x_RELEASE_V1.0.2/MSDK/ble/app\app_dev_mgr.c ****     p_device = dm_alloc_dev_by_addr(address);
 517              		.loc 1 265 5 is_stmt 1
 518              		.loc 1 265 16 is_stmt 0
 519 0018 2245     		lw	a0,8(sp)
 520              	.LVL54:
 521 001a B245     		lw	a1,12(sp)
 522 001c 97000000 		call	dm_alloc_dev_by_addr
 522      E7800000 
 523              	.LVL55:
 266:C:/Users/stapi/OneDrive/Desktop/GD32VW553/V1_MQTT_OK/GD32VW55X_Wifi_BLE_SDK/GD32VW55x_RELEASE_V1.0.2/MSDK/ble/app\app_dev_mgr.c ****     return p_device;
 524              		.loc 1 266 5 is_stmt 1
 525              	.L55:
 267:C:/Users/stapi/OneDrive/Desktop/GD32VW553/V1_MQTT_OK/GD32VW55X_Wifi_BLE_SDK/GD32VW55x_RELEASE_V1.0.2/MSDK/ble/app\app_dev_mgr.c **** }
 526              		.loc 1 267 1 is_stmt 0
 527 0024 4101     		addi	sp,sp,16
 528              		.cfi_def_cfa_offset 0
 529 0026 17030000 		tail	__riscv_restore_0
 529      67000300 
 530              		.cfi_restore 1
 531              		.cfi_def_cfa_offset -16
 532              		.cfi_endproc
 533              	.LFE8:
 535              		.section	.text.dm_find_dev_by_conidx,"ax",@progbits
 536              		.align	1
 537              		.globl	dm_find_dev_by_conidx
 539              	dm_find_dev_by_conidx:
 540              	.LFB9:
 268:C:/Users/stapi/OneDrive/Desktop/GD32VW553/V1_MQTT_OK/GD32VW55X_Wifi_BLE_SDK/GD32VW55x_RELEASE_V1.0.2/MSDK/ble/app\app_dev_mgr.c **** 
 269:C:/Users/stapi/OneDrive/Desktop/GD32VW553/V1_MQTT_OK/GD32VW55X_Wifi_BLE_SDK/GD32VW55x_RELEASE_V1.0.2/MSDK/ble/app\app_dev_mgr.c **** /*!
 270:C:/Users/stapi/OneDrive/Desktop/GD32VW553/V1_MQTT_OK/GD32VW55X_Wifi_BLE_SDK/GD32VW55x_RELEASE_V1.0.2/MSDK/ble/app\app_dev_mgr.c ****     \brief      Find device information in the device list by connection index
 271:C:/Users/stapi/OneDrive/Desktop/GD32VW553/V1_MQTT_OK/GD32VW55X_Wifi_BLE_SDK/GD32VW55x_RELEASE_V1.0.2/MSDK/ble/app\app_dev_mgr.c ****     \param[in]  conidx: connection index
 272:C:/Users/stapi/OneDrive/Desktop/GD32VW553/V1_MQTT_OK/GD32VW55X_Wifi_BLE_SDK/GD32VW55x_RELEASE_V1.0.2/MSDK/ble/app\app_dev_mgr.c ****     \param[out] none
 273:C:/Users/stapi/OneDrive/Desktop/GD32VW553/V1_MQTT_OK/GD32VW55X_Wifi_BLE_SDK/GD32VW55x_RELEASE_V1.0.2/MSDK/ble/app\app_dev_mgr.c ****     \retval     ble_device_t *: pointer to the device information found, NULL if no such device
 274:C:/Users/stapi/OneDrive/Desktop/GD32VW553/V1_MQTT_OK/GD32VW55X_Wifi_BLE_SDK/GD32VW55x_RELEASE_V1.0.2/MSDK/ble/app\app_dev_mgr.c **** */
 275:C:/Users/stapi/OneDrive/Desktop/GD32VW553/V1_MQTT_OK/GD32VW55X_Wifi_BLE_SDK/GD32VW55x_RELEASE_V1.0.2/MSDK/ble/app\app_dev_mgr.c **** ble_device_t *dm_find_dev_by_conidx(uint8_t conidx)
 276:C:/Users/stapi/OneDrive/Desktop/GD32VW553/V1_MQTT_OK/GD32VW55X_Wifi_BLE_SDK/GD32VW55x_RELEASE_V1.0.2/MSDK/ble/app\app_dev_mgr.c **** {
 541              		.loc 1 276 1 is_stmt 1
 542              		.cfi_startproc
 543              	.LVL56:
 544 0000 17030000 		call	t0,__riscv_save_2
 544      E7020300 
 545              		.cfi_offset 9, -12
 546              		.cfi_offset 8, -8
 547              		.cfi_offset 1, -4
 548              		.cfi_def_cfa_offset 16
 277:C:/Users/stapi/OneDrive/Desktop/GD32VW553/V1_MQTT_OK/GD32VW55X_Wifi_BLE_SDK/GD32VW55x_RELEASE_V1.0.2/MSDK/ble/app\app_dev_mgr.c ****     dlist_t *pos, *n;
 549              		.loc 1 277 5
 278:C:/Users/stapi/OneDrive/Desktop/GD32VW553/V1_MQTT_OK/GD32VW55X_Wifi_BLE_SDK/GD32VW55x_RELEASE_V1.0.2/MSDK/ble/app\app_dev_mgr.c ****     ble_device_t *p_device;
 550              		.loc 1 278 5
 279:C:/Users/stapi/OneDrive/Desktop/GD32VW553/V1_MQTT_OK/GD32VW55X_Wifi_BLE_SDK/GD32VW55x_RELEASE_V1.0.2/MSDK/ble/app\app_dev_mgr.c **** 
 280:C:/Users/stapi/OneDrive/Desktop/GD32VW553/V1_MQTT_OK/GD32VW55X_Wifi_BLE_SDK/GD32VW55x_RELEASE_V1.0.2/MSDK/ble/app\app_dev_mgr.c ****     if (list_empty(&device_mgr.sec_dev_list)) {
 551              		.loc 1 280 5
 552              		.loc 1 280 9 is_stmt 0
 553 0008 37040000 		lui	s0,%hi(.LANCHOR0)
 276:C:/Users/stapi/OneDrive/Desktop/GD32VW553/V1_MQTT_OK/GD32VW55X_Wifi_BLE_SDK/GD32VW55x_RELEASE_V1.0.2/MSDK/ble/app\app_dev_mgr.c ****     dlist_t *pos, *n;
 554              		.loc 1 276 1
 555 000c AA84     		mv	s1,a0
 556              		.loc 1 280 9
 557 000e 13050400 		addi	a0,s0,%lo(.LANCHOR0)
 558              	.LVL57:
 559 0012 97000000 		call	list_empty
 559      E7800000 
 560              	.LVL58:
 561              		.loc 1 280 8
 562 001a 19E5     		bne	a0,zero,.L62
 563 001c 13040400 		addi	s0,s0,%lo(.LANCHOR0)
 281:C:/Users/stapi/OneDrive/Desktop/GD32VW553/V1_MQTT_OK/GD32VW55X_Wifi_BLE_SDK/GD32VW55x_RELEASE_V1.0.2/MSDK/ble/app\app_dev_mgr.c ****         return NULL;
 282:C:/Users/stapi/OneDrive/Desktop/GD32VW553/V1_MQTT_OK/GD32VW55X_Wifi_BLE_SDK/GD32VW55x_RELEASE_V1.0.2/MSDK/ble/app\app_dev_mgr.c ****     }
 283:C:/Users/stapi/OneDrive/Desktop/GD32VW553/V1_MQTT_OK/GD32VW55X_Wifi_BLE_SDK/GD32VW55x_RELEASE_V1.0.2/MSDK/ble/app\app_dev_mgr.c **** 
 284:C:/Users/stapi/OneDrive/Desktop/GD32VW553/V1_MQTT_OK/GD32VW55X_Wifi_BLE_SDK/GD32VW55x_RELEASE_V1.0.2/MSDK/ble/app\app_dev_mgr.c ****     list_for_each_safe(pos, n, &device_mgr.sec_dev_list) {
 564              		.loc 1 284 5 is_stmt 1
 565 0020 0840     		lw	a0,0(s0)
 566              	.LVL59:
 567 0022 1C41     		lw	a5,0(a0)
 568              	.LVL60:
 569              	.L60:
 570              		.loc 1 284 5 discriminator 1
 571 0024 63178500 		bne	a0,s0,.L61
 572              	.LVL61:
 573              	.L62:
 281:C:/Users/stapi/OneDrive/Desktop/GD32VW553/V1_MQTT_OK/GD32VW55X_Wifi_BLE_SDK/GD32VW55x_RELEASE_V1.0.2/MSDK/ble/app\app_dev_mgr.c ****         return NULL;
 574              		.loc 1 281 16 is_stmt 0
 575 0028 0145     		li	a0,0
 576              	.L58:
 285:C:/Users/stapi/OneDrive/Desktop/GD32VW553/V1_MQTT_OK/GD32VW55X_Wifi_BLE_SDK/GD32VW55x_RELEASE_V1.0.2/MSDK/ble/app\app_dev_mgr.c ****         p_device = list_entry(pos, ble_device_t, list);
 286:C:/Users/stapi/OneDrive/Desktop/GD32VW553/V1_MQTT_OK/GD32VW55X_Wifi_BLE_SDK/GD32VW55x_RELEASE_V1.0.2/MSDK/ble/app\app_dev_mgr.c ****         if (p_device->conn_idx == conidx) {
 287:C:/Users/stapi/OneDrive/Desktop/GD32VW553/V1_MQTT_OK/GD32VW55X_Wifi_BLE_SDK/GD32VW55x_RELEASE_V1.0.2/MSDK/ble/app\app_dev_mgr.c ****             return p_device;
 288:C:/Users/stapi/OneDrive/Desktop/GD32VW553/V1_MQTT_OK/GD32VW55X_Wifi_BLE_SDK/GD32VW55x_RELEASE_V1.0.2/MSDK/ble/app\app_dev_mgr.c ****         }
 289:C:/Users/stapi/OneDrive/Desktop/GD32VW553/V1_MQTT_OK/GD32VW55X_Wifi_BLE_SDK/GD32VW55x_RELEASE_V1.0.2/MSDK/ble/app\app_dev_mgr.c ****     }
 290:C:/Users/stapi/OneDrive/Desktop/GD32VW553/V1_MQTT_OK/GD32VW55X_Wifi_BLE_SDK/GD32VW55x_RELEASE_V1.0.2/MSDK/ble/app\app_dev_mgr.c **** 
 291:C:/Users/stapi/OneDrive/Desktop/GD32VW553/V1_MQTT_OK/GD32VW55X_Wifi_BLE_SDK/GD32VW55x_RELEASE_V1.0.2/MSDK/ble/app\app_dev_mgr.c ****     return NULL;
 292:C:/Users/stapi/OneDrive/Desktop/GD32VW553/V1_MQTT_OK/GD32VW55X_Wifi_BLE_SDK/GD32VW55x_RELEASE_V1.0.2/MSDK/ble/app\app_dev_mgr.c **** }
 577              		.loc 1 292 1
 578 002a 17030000 		tail	__riscv_restore_2
 578      67000300 
 579              		.cfi_remember_state
 580              		.cfi_restore 9
 581              		.cfi_restore 8
 582              		.cfi_restore 1
 583              		.cfi_def_cfa_offset 0
 584              	.LVL62:
 585              	.L61:
 586              		.cfi_restore_state
 285:C:/Users/stapi/OneDrive/Desktop/GD32VW553/V1_MQTT_OK/GD32VW55X_Wifi_BLE_SDK/GD32VW55x_RELEASE_V1.0.2/MSDK/ble/app\app_dev_mgr.c ****         p_device = list_entry(pos, ble_device_t, list);
 587              		.loc 1 285 9 is_stmt 1
 286:C:/Users/stapi/OneDrive/Desktop/GD32VW553/V1_MQTT_OK/GD32VW55X_Wifi_BLE_SDK/GD32VW55x_RELEASE_V1.0.2/MSDK/ble/app\app_dev_mgr.c ****             return p_device;
 588              		.loc 1 286 9
 286:C:/Users/stapi/OneDrive/Desktop/GD32VW553/V1_MQTT_OK/GD32VW55X_Wifi_BLE_SDK/GD32VW55x_RELEASE_V1.0.2/MSDK/ble/app\app_dev_mgr.c ****             return p_device;
 589              		.loc 1 286 12 is_stmt 0
 590 0032 0347F500 		lbu	a4,15(a0)
 591 0036 E30A97FE 		beq	a4,s1,.L58
 284:C:/Users/stapi/OneDrive/Desktop/GD32VW553/V1_MQTT_OK/GD32VW55X_Wifi_BLE_SDK/GD32VW55x_RELEASE_V1.0.2/MSDK/ble/app\app_dev_mgr.c ****         p_device = list_entry(pos, ble_device_t, list);
 592              		.loc 1 284 5 is_stmt 1 discriminator 2
 593              	.LVL63:
 594 003a 3E85     		mv	a0,a5
 595              	.LVL64:
 596 003c 9C43     		lw	a5,0(a5)
 597              	.LVL65:
 598 003e DDB7     		j	.L60
 599              		.cfi_endproc
 600              	.LFE9:
 602              		.section	.text.dm_handle_dev_disconnected,"ax",@progbits
 603              		.align	1
 604              		.globl	dm_handle_dev_disconnected
 606              	dm_handle_dev_disconnected:
 607              	.LFB4:
 114:C:/Users/stapi/OneDrive/Desktop/GD32VW553/V1_MQTT_OK/GD32VW55X_Wifi_BLE_SDK/GD32VW55x_RELEASE_V1.0.2/MSDK/ble/app\app_dev_mgr.c ****     ble_device_t *p_device = dm_find_dev_by_conidx(conidx);
 608              		.loc 1 114 1
 609              		.cfi_startproc
 610              	.LVL66:
 611 0000 17030000 		call	t0,__riscv_save_1
 611      E7020300 
 612              		.cfi_offset 8, -8
 613              		.cfi_offset 1, -4
 614              		.cfi_def_cfa_offset 16
 115:C:/Users/stapi/OneDrive/Desktop/GD32VW553/V1_MQTT_OK/GD32VW55X_Wifi_BLE_SDK/GD32VW55x_RELEASE_V1.0.2/MSDK/ble/app\app_dev_mgr.c **** 
 615              		.loc 1 115 5
 115:C:/Users/stapi/OneDrive/Desktop/GD32VW553/V1_MQTT_OK/GD32VW55X_Wifi_BLE_SDK/GD32VW55x_RELEASE_V1.0.2/MSDK/ble/app\app_dev_mgr.c **** 
 616              		.loc 1 115 30 is_stmt 0
 617 0008 97000000 		call	dm_find_dev_by_conidx
 617      E7800000 
 618              	.LVL67:
 117:C:/Users/stapi/OneDrive/Desktop/GD32VW553/V1_MQTT_OK/GD32VW55X_Wifi_BLE_SDK/GD32VW55x_RELEASE_V1.0.2/MSDK/ble/app\app_dev_mgr.c ****         return;
 619              		.loc 1 117 5 is_stmt 1
 117:C:/Users/stapi/OneDrive/Desktop/GD32VW553/V1_MQTT_OK/GD32VW55X_Wifi_BLE_SDK/GD32VW55x_RELEASE_V1.0.2/MSDK/ble/app\app_dev_mgr.c ****         return;
 620              		.loc 1 117 8 is_stmt 0
 621 0010 21C9     		beq	a0,zero,.L64
 121:C:/Users/stapi/OneDrive/Desktop/GD32VW553/V1_MQTT_OK/GD32VW55X_Wifi_BLE_SDK/GD32VW55x_RELEASE_V1.0.2/MSDK/ble/app\app_dev_mgr.c ****         ble_peer_data_delete(&p_device->cur_addr);
 622              		.loc 1 121 8
 623 0012 03474501 		lbu	a4,20(a0)
 121:C:/Users/stapi/OneDrive/Desktop/GD32VW553/V1_MQTT_OK/GD32VW55X_Wifi_BLE_SDK/GD32VW55x_RELEASE_V1.0.2/MSDK/ble/app\app_dev_mgr.c ****         ble_peer_data_delete(&p_device->cur_addr);
 624              		.loc 1 121 45
 625 0016 83472501 		lbu	a5,18(a0)
 626 001a 2A84     		mv	s0,a0
 121:C:/Users/stapi/OneDrive/Desktop/GD32VW553/V1_MQTT_OK/GD32VW55X_Wifi_BLE_SDK/GD32VW55x_RELEASE_V1.0.2/MSDK/ble/app\app_dev_mgr.c ****         ble_peer_data_delete(&p_device->cur_addr);
 627              		.loc 1 121 5 is_stmt 1
 121:C:/Users/stapi/OneDrive/Desktop/GD32VW553/V1_MQTT_OK/GD32VW55X_Wifi_BLE_SDK/GD32VW55x_RELEASE_V1.0.2/MSDK/ble/app\app_dev_mgr.c ****         ble_peer_data_delete(&p_device->cur_addr);
 628              		.loc 1 121 8 is_stmt 0
 629 001c 31C7     		beq	a4,zero,.L66
 121:C:/Users/stapi/OneDrive/Desktop/GD32VW553/V1_MQTT_OK/GD32VW55X_Wifi_BLE_SDK/GD32VW55x_RELEASE_V1.0.2/MSDK/ble/app\app_dev_mgr.c ****         ble_peer_data_delete(&p_device->cur_addr);
 630              		.loc 1 121 34 discriminator 1
 631 001e 8DC3     		beq	a5,zero,.L67
 122:C:/Users/stapi/OneDrive/Desktop/GD32VW553/V1_MQTT_OK/GD32VW55X_Wifi_BLE_SDK/GD32VW55x_RELEASE_V1.0.2/MSDK/ble/app\app_dev_mgr.c ****         memset(&p_device->bond_info, 0, sizeof(ble_gap_sec_bond_data_t));
 632              		.loc 1 122 9 is_stmt 1
 633 0020 2105     		addi	a0,a0,8
 634              	.LVL68:
 635 0022 97000000 		call	ble_peer_data_delete
 635      E7800000 
 636              	.LVL69:
 123:C:/Users/stapi/OneDrive/Desktop/GD32VW553/V1_MQTT_OK/GD32VW55X_Wifi_BLE_SDK/GD32VW55x_RELEASE_V1.0.2/MSDK/ble/app\app_dev_mgr.c ****         p_device->bonded = false;
 637              		.loc 1 123 9
 638 002a 13068007 		li	a2,120
 639 002e 8145     		li	a1,0
 640 0030 1305C403 		addi	a0,s0,60
 641 0034 97000000 		call	memset
 641      E7800000 
 642              	.LVL70:
 124:C:/Users/stapi/OneDrive/Desktop/GD32VW553/V1_MQTT_OK/GD32VW55X_Wifi_BLE_SDK/GD32VW55x_RELEASE_V1.0.2/MSDK/ble/app\app_dev_mgr.c ****     }
 643              		.loc 1 124 9
 124:C:/Users/stapi/OneDrive/Desktop/GD32VW553/V1_MQTT_OK/GD32VW55X_Wifi_BLE_SDK/GD32VW55x_RELEASE_V1.0.2/MSDK/ble/app\app_dev_mgr.c ****     }
 644              		.loc 1 124 26 is_stmt 0
 645 003c 23090400 		sb	zero,18(s0)
 646              	.L67:
 127:C:/Users/stapi/OneDrive/Desktop/GD32VW553/V1_MQTT_OK/GD32VW55X_Wifi_BLE_SDK/GD32VW55x_RELEASE_V1.0.2/MSDK/ble/app\app_dev_mgr.c ****         list_del(&p_device->list);
 647              		.loc 1 127 5 is_stmt 1
 127:C:/Users/stapi/OneDrive/Desktop/GD32VW553/V1_MQTT_OK/GD32VW55X_Wifi_BLE_SDK/GD32VW55x_RELEASE_V1.0.2/MSDK/ble/app\app_dev_mgr.c ****         list_del(&p_device->list);
 648              		.loc 1 127 27 is_stmt 0
 649 0040 83475401 		lbu	a5,21(s0)
 650 0044 9DE3     		bne	a5,zero,.L68
 127:C:/Users/stapi/OneDrive/Desktop/GD32VW553/V1_MQTT_OK/GD32VW55X_Wifi_BLE_SDK/GD32VW55x_RELEASE_V1.0.2/MSDK/ble/app\app_dev_mgr.c ****         list_del(&p_device->list);
 651              		.loc 1 127 47 discriminator 2
 652 0046 83476401 		lbu	a5,22(s0)
 653 004a 85E3     		bne	a5,zero,.L68
 128:C:/Users/stapi/OneDrive/Desktop/GD32VW553/V1_MQTT_OK/GD32VW55X_Wifi_BLE_SDK/GD32VW55x_RELEASE_V1.0.2/MSDK/ble/app\app_dev_mgr.c ****         sys_mfree(p_device);
 654              		.loc 1 128 9 is_stmt 1
 655 004c 2285     		mv	a0,s0
 656 004e 97000000 		call	list_del
 656      E7800000 
 657              	.LVL71:
 129:C:/Users/stapi/OneDrive/Desktop/GD32VW553/V1_MQTT_OK/GD32VW55X_Wifi_BLE_SDK/GD32VW55x_RELEASE_V1.0.2/MSDK/ble/app\app_dev_mgr.c ****     } else {
 658              		.loc 1 129 9
 659 0056 2285     		mv	a0,s0
 660 0058 97000000 		call	sys_mfree
 660      E7800000 
 661              	.LVL72:
 662              	.L64:
 138:C:/Users/stapi/OneDrive/Desktop/GD32VW553/V1_MQTT_OK/GD32VW55X_Wifi_BLE_SDK/GD32VW55x_RELEASE_V1.0.2/MSDK/ble/app\app_dev_mgr.c **** 
 663              		.loc 1 138 1 is_stmt 0
 664 0060 17030000 		tail	__riscv_restore_1
 664      67000300 
 665              		.cfi_remember_state
 666              		.cfi_restore 8
 667              		.cfi_restore 1
 668              		.cfi_def_cfa_offset 0
 669              	.LVL73:
 670              	.L66:
 671              		.cfi_restore_state
 127:C:/Users/stapi/OneDrive/Desktop/GD32VW553/V1_MQTT_OK/GD32VW55X_Wifi_BLE_SDK/GD32VW55x_RELEASE_V1.0.2/MSDK/ble/app\app_dev_mgr.c ****         list_del(&p_device->list);
 672              		.loc 1 127 5 is_stmt 1
 127:C:/Users/stapi/OneDrive/Desktop/GD32VW553/V1_MQTT_OK/GD32VW55X_Wifi_BLE_SDK/GD32VW55x_RELEASE_V1.0.2/MSDK/ble/app\app_dev_mgr.c ****         list_del(&p_device->list);
 673              		.loc 1 127 8 is_stmt 0
 674 0068 E1DF     		beq	a5,zero,.L67
 675              	.L68:
 131:C:/Users/stapi/OneDrive/Desktop/GD32VW553/V1_MQTT_OK/GD32VW55X_Wifi_BLE_SDK/GD32VW55x_RELEASE_V1.0.2/MSDK/ble/app\app_dev_mgr.c ****         p_device->conn_idx = BLE_CONN_CONIDX_INVALID;
 676              		.loc 1 131 9 is_stmt 1
 131:C:/Users/stapi/OneDrive/Desktop/GD32VW553/V1_MQTT_OK/GD32VW55X_Wifi_BLE_SDK/GD32VW55x_RELEASE_V1.0.2/MSDK/ble/app\app_dev_mgr.c ****         p_device->conn_idx = BLE_CONN_CONIDX_INVALID;
 677              		.loc 1 131 28 is_stmt 0
 678 006a FD57     		li	a5,-1
 679 006c 2318F400 		sh	a5,16(s0)
 132:C:/Users/stapi/OneDrive/Desktop/GD32VW553/V1_MQTT_OK/GD32VW55X_Wifi_BLE_SDK/GD32VW55x_RELEASE_V1.0.2/MSDK/ble/app\app_dev_mgr.c ****         p_device->state = BLE_CONN_STATE_DISCONNECTD;
 680              		.loc 1 132 9 is_stmt 1
 132:C:/Users/stapi/OneDrive/Desktop/GD32VW553/V1_MQTT_OK/GD32VW55X_Wifi_BLE_SDK/GD32VW55x_RELEASE_V1.0.2/MSDK/ble/app\app_dev_mgr.c ****         p_device->state = BLE_CONN_STATE_DISCONNECTD;
 681              		.loc 1 132 28 is_stmt 0
 682 0070 A307F400 		sb	a5,15(s0)
 133:C:/Users/stapi/OneDrive/Desktop/GD32VW553/V1_MQTT_OK/GD32VW55X_Wifi_BLE_SDK/GD32VW55x_RELEASE_V1.0.2/MSDK/ble/app\app_dev_mgr.c ****         p_device->encry_cmplt = false;
 683              		.loc 1 133 9 is_stmt 1
 133:C:/Users/stapi/OneDrive/Desktop/GD32VW553/V1_MQTT_OK/GD32VW55X_Wifi_BLE_SDK/GD32VW55x_RELEASE_V1.0.2/MSDK/ble/app\app_dev_mgr.c ****         p_device->encry_cmplt = false;
 684              		.loc 1 133 25 is_stmt 0
 685 0074 232C0400 		sw	zero,24(s0)
 134:C:/Users/stapi/OneDrive/Desktop/GD32VW553/V1_MQTT_OK/GD32VW55X_Wifi_BLE_SDK/GD32VW55x_RELEASE_V1.0.2/MSDK/ble/app\app_dev_mgr.c ****         p_device->update_state = IDLE_STATE;
 686              		.loc 1 134 9 is_stmt 1
 134:C:/Users/stapi/OneDrive/Desktop/GD32VW553/V1_MQTT_OK/GD32VW55X_Wifi_BLE_SDK/GD32VW55x_RELEASE_V1.0.2/MSDK/ble/app\app_dev_mgr.c ****         p_device->update_state = IDLE_STATE;
 687              		.loc 1 134 31 is_stmt 0
 688 0078 A3090400 		sb	zero,19(s0)
 135:C:/Users/stapi/OneDrive/Desktop/GD32VW553/V1_MQTT_OK/GD32VW55X_Wifi_BLE_SDK/GD32VW55x_RELEASE_V1.0.2/MSDK/ble/app\app_dev_mgr.c ****         p_device->enable_fast_param = false;
 689              		.loc 1 135 9 is_stmt 1
 135:C:/Users/stapi/OneDrive/Desktop/GD32VW553/V1_MQTT_OK/GD32VW55X_Wifi_BLE_SDK/GD32VW55x_RELEASE_V1.0.2/MSDK/ble/app\app_dev_mgr.c ****         p_device->enable_fast_param = false;
 690              		.loc 1 135 32 is_stmt 0
 691 007c 23220402 		sw	zero,36(s0)
 136:C:/Users/stapi/OneDrive/Desktop/GD32VW553/V1_MQTT_OK/GD32VW55X_Wifi_BLE_SDK/GD32VW55x_RELEASE_V1.0.2/MSDK/ble/app\app_dev_mgr.c ****     }
 692              		.loc 1 136 9 is_stmt 1
 136:C:/Users/stapi/OneDrive/Desktop/GD32VW553/V1_MQTT_OK/GD32VW55X_Wifi_BLE_SDK/GD32VW55x_RELEASE_V1.0.2/MSDK/ble/app\app_dev_mgr.c ****     }
 693              		.loc 1 136 37 is_stmt 0
 694 0080 23000402 		sb	zero,32(s0)
 695 0084 F1BF     		j	.L64
 696              		.cfi_endproc
 697              	.LFE4:
 699              		.section	.text.dm_find_dev_by_idx,"ax",@progbits
 700              		.align	1
 701              		.globl	dm_find_dev_by_idx
 703              	dm_find_dev_by_idx:
 704              	.LFB10:
 293:C:/Users/stapi/OneDrive/Desktop/GD32VW553/V1_MQTT_OK/GD32VW55X_Wifi_BLE_SDK/GD32VW55x_RELEASE_V1.0.2/MSDK/ble/app\app_dev_mgr.c **** 
 294:C:/Users/stapi/OneDrive/Desktop/GD32VW553/V1_MQTT_OK/GD32VW55X_Wifi_BLE_SDK/GD32VW55x_RELEASE_V1.0.2/MSDK/ble/app\app_dev_mgr.c **** /*!
 295:C:/Users/stapi/OneDrive/Desktop/GD32VW553/V1_MQTT_OK/GD32VW55X_Wifi_BLE_SDK/GD32VW55x_RELEASE_V1.0.2/MSDK/ble/app\app_dev_mgr.c ****     \brief      Find device information in the device list by device index
 296:C:/Users/stapi/OneDrive/Desktop/GD32VW553/V1_MQTT_OK/GD32VW55X_Wifi_BLE_SDK/GD32VW55x_RELEASE_V1.0.2/MSDK/ble/app\app_dev_mgr.c ****     \param[in]  idx: device index
 297:C:/Users/stapi/OneDrive/Desktop/GD32VW553/V1_MQTT_OK/GD32VW55X_Wifi_BLE_SDK/GD32VW55x_RELEASE_V1.0.2/MSDK/ble/app\app_dev_mgr.c ****     \param[out] none
 298:C:/Users/stapi/OneDrive/Desktop/GD32VW553/V1_MQTT_OK/GD32VW55X_Wifi_BLE_SDK/GD32VW55x_RELEASE_V1.0.2/MSDK/ble/app\app_dev_mgr.c ****     \retval     ble_device_t *: pointer to the device information found, NULL if no such device
 299:C:/Users/stapi/OneDrive/Desktop/GD32VW553/V1_MQTT_OK/GD32VW55X_Wifi_BLE_SDK/GD32VW55x_RELEASE_V1.0.2/MSDK/ble/app\app_dev_mgr.c **** */
 300:C:/Users/stapi/OneDrive/Desktop/GD32VW553/V1_MQTT_OK/GD32VW55X_Wifi_BLE_SDK/GD32VW55x_RELEASE_V1.0.2/MSDK/ble/app\app_dev_mgr.c **** ble_device_t *dm_find_dev_by_idx(uint8_t idx)
 301:C:/Users/stapi/OneDrive/Desktop/GD32VW553/V1_MQTT_OK/GD32VW55X_Wifi_BLE_SDK/GD32VW55x_RELEASE_V1.0.2/MSDK/ble/app\app_dev_mgr.c **** {
 705              		.loc 1 301 1 is_stmt 1
 706              		.cfi_startproc
 707              	.LVL74:
 708 0000 17030000 		call	t0,__riscv_save_2
 708      E7020300 
 709              		.cfi_offset 9, -12
 710              		.cfi_offset 8, -8
 711              		.cfi_offset 1, -4
 712              		.cfi_def_cfa_offset 16
 302:C:/Users/stapi/OneDrive/Desktop/GD32VW553/V1_MQTT_OK/GD32VW55X_Wifi_BLE_SDK/GD32VW55x_RELEASE_V1.0.2/MSDK/ble/app\app_dev_mgr.c ****     dlist_t *pos, *n;
 713              		.loc 1 302 5
 303:C:/Users/stapi/OneDrive/Desktop/GD32VW553/V1_MQTT_OK/GD32VW55X_Wifi_BLE_SDK/GD32VW55x_RELEASE_V1.0.2/MSDK/ble/app\app_dev_mgr.c ****     ble_device_t *p_device;
 714              		.loc 1 303 5
 304:C:/Users/stapi/OneDrive/Desktop/GD32VW553/V1_MQTT_OK/GD32VW55X_Wifi_BLE_SDK/GD32VW55x_RELEASE_V1.0.2/MSDK/ble/app\app_dev_mgr.c ****     uint8_t cnt = 0;
 715              		.loc 1 304 5
 716              	.LVL75:
 305:C:/Users/stapi/OneDrive/Desktop/GD32VW553/V1_MQTT_OK/GD32VW55X_Wifi_BLE_SDK/GD32VW55x_RELEASE_V1.0.2/MSDK/ble/app\app_dev_mgr.c **** 
 306:C:/Users/stapi/OneDrive/Desktop/GD32VW553/V1_MQTT_OK/GD32VW55X_Wifi_BLE_SDK/GD32VW55x_RELEASE_V1.0.2/MSDK/ble/app\app_dev_mgr.c ****     if (list_empty(&device_mgr.sec_dev_list)) {
 717              		.loc 1 306 5
 718              		.loc 1 306 9 is_stmt 0
 719 0008 37040000 		lui	s0,%hi(.LANCHOR0)
 301:C:/Users/stapi/OneDrive/Desktop/GD32VW553/V1_MQTT_OK/GD32VW55X_Wifi_BLE_SDK/GD32VW55x_RELEASE_V1.0.2/MSDK/ble/app\app_dev_mgr.c ****     dlist_t *pos, *n;
 720              		.loc 1 301 1
 721 000c AA84     		mv	s1,a0
 722              		.loc 1 306 9
 723 000e 13050400 		addi	a0,s0,%lo(.LANCHOR0)
 724              	.LVL76:
 725 0012 97000000 		call	list_empty
 725      E7800000 
 726              	.LVL77:
 727              		.loc 1 306 8
 728 001a 01E9     		bne	a0,zero,.L82
 729 001c 13040400 		addi	s0,s0,%lo(.LANCHOR0)
 307:C:/Users/stapi/OneDrive/Desktop/GD32VW553/V1_MQTT_OK/GD32VW55X_Wifi_BLE_SDK/GD32VW55x_RELEASE_V1.0.2/MSDK/ble/app\app_dev_mgr.c ****         return NULL;
 308:C:/Users/stapi/OneDrive/Desktop/GD32VW553/V1_MQTT_OK/GD32VW55X_Wifi_BLE_SDK/GD32VW55x_RELEASE_V1.0.2/MSDK/ble/app\app_dev_mgr.c ****     }
 309:C:/Users/stapi/OneDrive/Desktop/GD32VW553/V1_MQTT_OK/GD32VW55X_Wifi_BLE_SDK/GD32VW55x_RELEASE_V1.0.2/MSDK/ble/app\app_dev_mgr.c **** 
 310:C:/Users/stapi/OneDrive/Desktop/GD32VW553/V1_MQTT_OK/GD32VW55X_Wifi_BLE_SDK/GD32VW55x_RELEASE_V1.0.2/MSDK/ble/app\app_dev_mgr.c ****     list_for_each_safe(pos, n, &device_mgr.sec_dev_list) {
 730              		.loc 1 310 5 is_stmt 1
 731 0020 0840     		lw	a0,0(s0)
 732              	.LVL78:
 304:C:/Users/stapi/OneDrive/Desktop/GD32VW553/V1_MQTT_OK/GD32VW55X_Wifi_BLE_SDK/GD32VW55x_RELEASE_V1.0.2/MSDK/ble/app\app_dev_mgr.c **** 
 733              		.loc 1 304 13 is_stmt 0
 734 0022 8147     		li	a5,0
 735              		.loc 1 310 5
 736 0024 1841     		lw	a4,0(a0)
 737              	.LVL79:
 738              	.L80:
 739              		.loc 1 310 5 is_stmt 1 discriminator 1
 740 0026 63178500 		bne	a0,s0,.L81
 741              	.LVL80:
 742              	.L82:
 307:C:/Users/stapi/OneDrive/Desktop/GD32VW553/V1_MQTT_OK/GD32VW55X_Wifi_BLE_SDK/GD32VW55x_RELEASE_V1.0.2/MSDK/ble/app\app_dev_mgr.c ****         return NULL;
 743              		.loc 1 307 16 is_stmt 0
 744 002a 0145     		li	a0,0
 745              	.L78:
 311:C:/Users/stapi/OneDrive/Desktop/GD32VW553/V1_MQTT_OK/GD32VW55X_Wifi_BLE_SDK/GD32VW55x_RELEASE_V1.0.2/MSDK/ble/app\app_dev_mgr.c ****         p_device = list_entry(pos, ble_device_t, list);
 312:C:/Users/stapi/OneDrive/Desktop/GD32VW553/V1_MQTT_OK/GD32VW55X_Wifi_BLE_SDK/GD32VW55x_RELEASE_V1.0.2/MSDK/ble/app\app_dev_mgr.c ****         if (cnt == idx) {
 313:C:/Users/stapi/OneDrive/Desktop/GD32VW553/V1_MQTT_OK/GD32VW55X_Wifi_BLE_SDK/GD32VW55x_RELEASE_V1.0.2/MSDK/ble/app\app_dev_mgr.c ****             return p_device;
 314:C:/Users/stapi/OneDrive/Desktop/GD32VW553/V1_MQTT_OK/GD32VW55X_Wifi_BLE_SDK/GD32VW55x_RELEASE_V1.0.2/MSDK/ble/app\app_dev_mgr.c ****         }
 315:C:/Users/stapi/OneDrive/Desktop/GD32VW553/V1_MQTT_OK/GD32VW55X_Wifi_BLE_SDK/GD32VW55x_RELEASE_V1.0.2/MSDK/ble/app\app_dev_mgr.c ****         cnt++;
 316:C:/Users/stapi/OneDrive/Desktop/GD32VW553/V1_MQTT_OK/GD32VW55X_Wifi_BLE_SDK/GD32VW55x_RELEASE_V1.0.2/MSDK/ble/app\app_dev_mgr.c ****     }
 317:C:/Users/stapi/OneDrive/Desktop/GD32VW553/V1_MQTT_OK/GD32VW55X_Wifi_BLE_SDK/GD32VW55x_RELEASE_V1.0.2/MSDK/ble/app\app_dev_mgr.c **** 
 318:C:/Users/stapi/OneDrive/Desktop/GD32VW553/V1_MQTT_OK/GD32VW55X_Wifi_BLE_SDK/GD32VW55x_RELEASE_V1.0.2/MSDK/ble/app\app_dev_mgr.c ****     return NULL;
 319:C:/Users/stapi/OneDrive/Desktop/GD32VW553/V1_MQTT_OK/GD32VW55X_Wifi_BLE_SDK/GD32VW55x_RELEASE_V1.0.2/MSDK/ble/app\app_dev_mgr.c **** }
 746              		.loc 1 319 1
 747 002c 17030000 		tail	__riscv_restore_2
 747      67000300 
 748              		.cfi_remember_state
 749              		.cfi_restore 9
 750              		.cfi_restore 8
 751              		.cfi_restore 1
 752              		.cfi_def_cfa_offset 0
 753              	.LVL81:
 754              	.L81:
 755              		.cfi_restore_state
 311:C:/Users/stapi/OneDrive/Desktop/GD32VW553/V1_MQTT_OK/GD32VW55X_Wifi_BLE_SDK/GD32VW55x_RELEASE_V1.0.2/MSDK/ble/app\app_dev_mgr.c ****         p_device = list_entry(pos, ble_device_t, list);
 756              		.loc 1 311 9 is_stmt 1
 312:C:/Users/stapi/OneDrive/Desktop/GD32VW553/V1_MQTT_OK/GD32VW55X_Wifi_BLE_SDK/GD32VW55x_RELEASE_V1.0.2/MSDK/ble/app\app_dev_mgr.c ****             return p_device;
 757              		.loc 1 312 9
 312:C:/Users/stapi/OneDrive/Desktop/GD32VW553/V1_MQTT_OK/GD32VW55X_Wifi_BLE_SDK/GD32VW55x_RELEASE_V1.0.2/MSDK/ble/app\app_dev_mgr.c ****             return p_device;
 758              		.loc 1 312 12 is_stmt 0
 759 0034 E38C97FE 		beq	a5,s1,.L78
 315:C:/Users/stapi/OneDrive/Desktop/GD32VW553/V1_MQTT_OK/GD32VW55X_Wifi_BLE_SDK/GD32VW55x_RELEASE_V1.0.2/MSDK/ble/app\app_dev_mgr.c ****     }
 760              		.loc 1 315 9 is_stmt 1 discriminator 2
 315:C:/Users/stapi/OneDrive/Desktop/GD32VW553/V1_MQTT_OK/GD32VW55X_Wifi_BLE_SDK/GD32VW55x_RELEASE_V1.0.2/MSDK/ble/app\app_dev_mgr.c ****     }
 761              		.loc 1 315 12 is_stmt 0 discriminator 2
 762 0038 8507     		addi	a5,a5,1
 763              	.LVL82:
 310:C:/Users/stapi/OneDrive/Desktop/GD32VW553/V1_MQTT_OK/GD32VW55X_Wifi_BLE_SDK/GD32VW55x_RELEASE_V1.0.2/MSDK/ble/app\app_dev_mgr.c ****         p_device = list_entry(pos, ble_device_t, list);
 764              		.loc 1 310 5 discriminator 2
 765 003a 3A85     		mv	a0,a4
 766              	.LVL83:
 315:C:/Users/stapi/OneDrive/Desktop/GD32VW553/V1_MQTT_OK/GD32VW55X_Wifi_BLE_SDK/GD32VW55x_RELEASE_V1.0.2/MSDK/ble/app\app_dev_mgr.c ****     }
 767              		.loc 1 315 12 discriminator 2
 768 003c 93F7F70F 		andi	a5,a5,0xff
 769              	.LVL84:
 310:C:/Users/stapi/OneDrive/Desktop/GD32VW553/V1_MQTT_OK/GD32VW55X_Wifi_BLE_SDK/GD32VW55x_RELEASE_V1.0.2/MSDK/ble/app\app_dev_mgr.c ****         p_device = list_entry(pos, ble_device_t, list);
 770              		.loc 1 310 5 is_stmt 1 discriminator 2
 771 0040 1843     		lw	a4,0(a4)
 772 0042 D5B7     		j	.L80
 773              		.cfi_endproc
 774              	.LFE10:
 776              		.section	.rodata.dm_list_sec_devices.str1.4,"aMS",@progbits,1
 777              		.align	2
 778              	.LC1:
 779 0000 3D3D3D3D 		.string	"======= list empty =========\r\n"
 779      3D3D3D20 
 779      6C697374 
 779      20656D70 
 779      7479203D 
 780 001f 00       		.align	2
 781              	.LC2:
 782 0020 3D3D3D3D 		.string	"======= dev idx %u =========\r\n"
 782      3D3D3D20 
 782      64657620 
 782      69647820 
 782      2575203D 
 783 003f 00       		.align	2
 784              	.LC3:
 785 0040 2D2D3E20 		.string	"-->   sec device cur_addr %02X:%02X:%02X:%02X:%02X:%02X \r\n"
 785      20207365 
 785      63206465 
 785      76696365 
 785      20637572 
 786 007b 00       		.align	2
 787              	.LC4:
 788 007c 2D2D3E20 		.string	"-->   sec device id_addr %02X:%02X:%02X:%02X:%02X:%02X \r\n"
 788      20207365 
 788      63206465 
 788      76696365 
 788      2069645F 
 789 00b6 0000     		.align	2
 790              	.LC5:
 791 00b8 6C6F6361 		.string	"local key size %d, ltk(hex): "
 791      6C206B65 
 791      79207369 
 791      7A652025 
 791      642C206C 
 792 00d6 0000     		.align	2
 793              	.LC6:
 794 00d8 25303278 		.string	"%02x"
 794      00
 795 00dd 000000   		.align	2
 796              	.LC7:
 797 00e0 0D0A00   		.string	"\r\n"
 798 00e3 00       		.align	2
 799              	.LC8:
 800 00e4 70656572 		.string	"peer key size %d, ltk(hex): "
 800      206B6579 
 800      2073697A 
 800      65202564 
 800      2C206C74 
 801 0101 000000   		.align	2
 802              	.LC9:
 803 0104 70656572 		.string	"peer irk(hex): "
 803      2069726B 
 803      28686578 
 803      293A2000 
 804              		.align	2
 805              	.LC10:
 806 0114 6C6F6361 		.string	"local csrk(hex): "
 806      6C206373 
 806      726B2868 
 806      6578293A 
 806      2000
 807 0126 0000     		.align	2
 808              	.LC11:
 809 0128 70656572 		.string	"peer csrk(hex): "
 809      20637372 
 809      6B286865 
 809      78293A20 
 809      00
 810              		.section	.text.dm_list_sec_devices,"ax",@progbits
 811              		.align	1
 812              		.globl	dm_list_sec_devices
 814              	dm_list_sec_devices:
 815              	.LFB11:
 320:C:/Users/stapi/OneDrive/Desktop/GD32VW553/V1_MQTT_OK/GD32VW55X_Wifi_BLE_SDK/GD32VW55x_RELEASE_V1.0.2/MSDK/ble/app\app_dev_mgr.c **** 
 321:C:/Users/stapi/OneDrive/Desktop/GD32VW553/V1_MQTT_OK/GD32VW55X_Wifi_BLE_SDK/GD32VW55x_RELEASE_V1.0.2/MSDK/ble/app\app_dev_mgr.c **** /*!
 322:C:/Users/stapi/OneDrive/Desktop/GD32VW553/V1_MQTT_OK/GD32VW55X_Wifi_BLE_SDK/GD32VW55x_RELEASE_V1.0.2/MSDK/ble/app\app_dev_mgr.c ****     \brief      List all the device information in the list
 323:C:/Users/stapi/OneDrive/Desktop/GD32VW553/V1_MQTT_OK/GD32VW55X_Wifi_BLE_SDK/GD32VW55x_RELEASE_V1.0.2/MSDK/ble/app\app_dev_mgr.c ****     \param[in]  none
 324:C:/Users/stapi/OneDrive/Desktop/GD32VW553/V1_MQTT_OK/GD32VW55X_Wifi_BLE_SDK/GD32VW55x_RELEASE_V1.0.2/MSDK/ble/app\app_dev_mgr.c ****     \param[out] none
 325:C:/Users/stapi/OneDrive/Desktop/GD32VW553/V1_MQTT_OK/GD32VW55X_Wifi_BLE_SDK/GD32VW55x_RELEASE_V1.0.2/MSDK/ble/app\app_dev_mgr.c ****     \retval     none
 326:C:/Users/stapi/OneDrive/Desktop/GD32VW553/V1_MQTT_OK/GD32VW55X_Wifi_BLE_SDK/GD32VW55x_RELEASE_V1.0.2/MSDK/ble/app\app_dev_mgr.c **** */
 327:C:/Users/stapi/OneDrive/Desktop/GD32VW553/V1_MQTT_OK/GD32VW55X_Wifi_BLE_SDK/GD32VW55x_RELEASE_V1.0.2/MSDK/ble/app\app_dev_mgr.c **** void dm_list_sec_devices(void)
 328:C:/Users/stapi/OneDrive/Desktop/GD32VW553/V1_MQTT_OK/GD32VW55X_Wifi_BLE_SDK/GD32VW55x_RELEASE_V1.0.2/MSDK/ble/app\app_dev_mgr.c **** {
 816              		.loc 1 328 1
 817              		.cfi_startproc
 818 0000 17030000 		call	t0,__riscv_save_12
 818      E7020300 
 819              		.cfi_offset 27, -52
 820              		.cfi_offset 26, -48
 821              		.cfi_offset 25, -44
 822              		.cfi_offset 24, -40
 823              		.cfi_offset 23, -36
 824              		.cfi_offset 22, -32
 825              		.cfi_offset 21, -28
 826              		.cfi_offset 20, -24
 827              		.cfi_offset 19, -20
 828              		.cfi_offset 18, -16
 829              		.cfi_offset 9, -12
 830              		.cfi_offset 8, -8
 831              		.cfi_offset 1, -4
 832              		.cfi_def_cfa_offset 64
 329:C:/Users/stapi/OneDrive/Desktop/GD32VW553/V1_MQTT_OK/GD32VW55X_Wifi_BLE_SDK/GD32VW55x_RELEASE_V1.0.2/MSDK/ble/app\app_dev_mgr.c ****     dlist_t *pos, *n;
 833              		.loc 1 329 5
 330:C:/Users/stapi/OneDrive/Desktop/GD32VW553/V1_MQTT_OK/GD32VW55X_Wifi_BLE_SDK/GD32VW55x_RELEASE_V1.0.2/MSDK/ble/app\app_dev_mgr.c ****     ble_device_t *p_device;
 834              		.loc 1 330 5
 331:C:/Users/stapi/OneDrive/Desktop/GD32VW553/V1_MQTT_OK/GD32VW55X_Wifi_BLE_SDK/GD32VW55x_RELEASE_V1.0.2/MSDK/ble/app\app_dev_mgr.c ****     uint8_t elt_idx = 0;
 835              		.loc 1 331 5
 836              	.LVL85:
 332:C:/Users/stapi/OneDrive/Desktop/GD32VW553/V1_MQTT_OK/GD32VW55X_Wifi_BLE_SDK/GD32VW55x_RELEASE_V1.0.2/MSDK/ble/app\app_dev_mgr.c ****     uint8_t i;
 837              		.loc 1 332 5
 333:C:/Users/stapi/OneDrive/Desktop/GD32VW553/V1_MQTT_OK/GD32VW55X_Wifi_BLE_SDK/GD32VW55x_RELEASE_V1.0.2/MSDK/ble/app\app_dev_mgr.c **** 
 334:C:/Users/stapi/OneDrive/Desktop/GD32VW553/V1_MQTT_OK/GD32VW55X_Wifi_BLE_SDK/GD32VW55x_RELEASE_V1.0.2/MSDK/ble/app\app_dev_mgr.c ****     if (list_empty(&device_mgr.sec_dev_list)) {
 838              		.loc 1 334 5
 839              		.loc 1 334 9 is_stmt 0
 840 0008 37090000 		lui	s2,%hi(.LANCHOR0)
 328:C:/Users/stapi/OneDrive/Desktop/GD32VW553/V1_MQTT_OK/GD32VW55X_Wifi_BLE_SDK/GD32VW55x_RELEASE_V1.0.2/MSDK/ble/app\app_dev_mgr.c ****     dlist_t *pos, *n;
 841              		.loc 1 328 1
 842 000c 4111     		addi	sp,sp,-16
 843              		.cfi_def_cfa_offset 80
 844              		.loc 1 334 9
 845 000e 13050900 		addi	a0,s2,%lo(.LANCHOR0)
 846 0012 97000000 		call	list_empty
 846      E7800000 
 847              	.LVL86:
 848              		.loc 1 334 8
 849 001a 0DC5     		beq	a0,zero,.L85
 335:C:/Users/stapi/OneDrive/Desktop/GD32VW553/V1_MQTT_OK/GD32VW55X_Wifi_BLE_SDK/GD32VW55x_RELEASE_V1.0.2/MSDK/ble/app\app_dev_mgr.c ****         dbg_print(NOTICE, "======= list empty =========\r\n");
 850              		.loc 1 335 9 is_stmt 1
 851              		.loc 1 335 9
 852 001c B7070000 		lui	a5,%hi(global_debug_level)
 853 0020 03C70700 		lbu	a4,%lo(global_debug_level)(a5)
 854 0024 8947     		li	a5,2
 855 0026 63FAE700 		bleu	a4,a5,.L84
 856              		.loc 1 335 9 discriminator 1
 857 002a 37050000 		lui	a0,%hi(.LC1)
 858 002e 13050500 		addi	a0,a0,%lo(.LC1)
 859 0032 97000000 		call	co_printf
 859      E7800000 
 860              	.LVL87:
 861              	.L84:
 336:C:/Users/stapi/OneDrive/Desktop/GD32VW553/V1_MQTT_OK/GD32VW55X_Wifi_BLE_SDK/GD32VW55x_RELEASE_V1.0.2/MSDK/ble/app\app_dev_mgr.c ****         return;
 337:C:/Users/stapi/OneDrive/Desktop/GD32VW553/V1_MQTT_OK/GD32VW55X_Wifi_BLE_SDK/GD32VW55x_RELEASE_V1.0.2/MSDK/ble/app\app_dev_mgr.c ****     }
 338:C:/Users/stapi/OneDrive/Desktop/GD32VW553/V1_MQTT_OK/GD32VW55X_Wifi_BLE_SDK/GD32VW55x_RELEASE_V1.0.2/MSDK/ble/app\app_dev_mgr.c **** 
 339:C:/Users/stapi/OneDrive/Desktop/GD32VW553/V1_MQTT_OK/GD32VW55X_Wifi_BLE_SDK/GD32VW55x_RELEASE_V1.0.2/MSDK/ble/app\app_dev_mgr.c ****     list_for_each_safe(pos, n, &device_mgr.sec_dev_list) {
 340:C:/Users/stapi/OneDrive/Desktop/GD32VW553/V1_MQTT_OK/GD32VW55X_Wifi_BLE_SDK/GD32VW55x_RELEASE_V1.0.2/MSDK/ble/app\app_dev_mgr.c ****         p_device = list_entry(pos, ble_device_t, list);
 341:C:/Users/stapi/OneDrive/Desktop/GD32VW553/V1_MQTT_OK/GD32VW55X_Wifi_BLE_SDK/GD32VW55x_RELEASE_V1.0.2/MSDK/ble/app\app_dev_mgr.c ****         dbg_print(NOTICE, "======= dev idx %u =========\r\n", elt_idx);
 342:C:/Users/stapi/OneDrive/Desktop/GD32VW553/V1_MQTT_OK/GD32VW55X_Wifi_BLE_SDK/GD32VW55x_RELEASE_V1.0.2/MSDK/ble/app\app_dev_mgr.c ****         dbg_print(NOTICE, "-->   sec device cur_addr %02X:%02X:%02X:%02X:%02X:%02X \r\n",
 343:C:/Users/stapi/OneDrive/Desktop/GD32VW553/V1_MQTT_OK/GD32VW55X_Wifi_BLE_SDK/GD32VW55x_RELEASE_V1.0.2/MSDK/ble/app\app_dev_mgr.c ****                p_device->cur_addr.addr[5], p_device->cur_addr.addr[4], p_device->cur_addr.addr[3],
 344:C:/Users/stapi/OneDrive/Desktop/GD32VW553/V1_MQTT_OK/GD32VW55X_Wifi_BLE_SDK/GD32VW55x_RELEASE_V1.0.2/MSDK/ble/app\app_dev_mgr.c ****                p_device->cur_addr.addr[2], p_device->cur_addr.addr[1], p_device->cur_addr.addr[0]);
 345:C:/Users/stapi/OneDrive/Desktop/GD32VW553/V1_MQTT_OK/GD32VW55X_Wifi_BLE_SDK/GD32VW55x_RELEASE_V1.0.2/MSDK/ble/app\app_dev_mgr.c ****         dbg_print(NOTICE, "-->   sec device id_addr %02X:%02X:%02X:%02X:%02X:%02X \r\n",
 346:C:/Users/stapi/OneDrive/Desktop/GD32VW553/V1_MQTT_OK/GD32VW55X_Wifi_BLE_SDK/GD32VW55x_RELEASE_V1.0.2/MSDK/ble/app\app_dev_mgr.c ****                p_device->bond_info.peer_irk.identity.addr[5], p_device->bond_info.peer_irk.identity
 347:C:/Users/stapi/OneDrive/Desktop/GD32VW553/V1_MQTT_OK/GD32VW55X_Wifi_BLE_SDK/GD32VW55x_RELEASE_V1.0.2/MSDK/ble/app\app_dev_mgr.c ****                p_device->bond_info.peer_irk.identity.addr[3], p_device->bond_info.peer_irk.identity
 348:C:/Users/stapi/OneDrive/Desktop/GD32VW553/V1_MQTT_OK/GD32VW55X_Wifi_BLE_SDK/GD32VW55x_RELEASE_V1.0.2/MSDK/ble/app\app_dev_mgr.c ****                p_device->bond_info.peer_irk.identity.addr[1], p_device->bond_info.peer_irk.identity
 349:C:/Users/stapi/OneDrive/Desktop/GD32VW553/V1_MQTT_OK/GD32VW55X_Wifi_BLE_SDK/GD32VW55x_RELEASE_V1.0.2/MSDK/ble/app\app_dev_mgr.c ****         if (p_device->bonded) {
 350:C:/Users/stapi/OneDrive/Desktop/GD32VW553/V1_MQTT_OK/GD32VW55X_Wifi_BLE_SDK/GD32VW55x_RELEASE_V1.0.2/MSDK/ble/app\app_dev_mgr.c ****             if (p_device->bond_info.key_msk & BLE_LOC_LTK_ENCKEY) {
 351:C:/Users/stapi/OneDrive/Desktop/GD32VW553/V1_MQTT_OK/GD32VW55X_Wifi_BLE_SDK/GD32VW55x_RELEASE_V1.0.2/MSDK/ble/app\app_dev_mgr.c ****                 dbg_print(NOTICE, "local key size %d, ltk(hex): ", p_device->bond_info.local_ltk.ke
 352:C:/Users/stapi/OneDrive/Desktop/GD32VW553/V1_MQTT_OK/GD32VW55X_Wifi_BLE_SDK/GD32VW55x_RELEASE_V1.0.2/MSDK/ble/app\app_dev_mgr.c **** 
 353:C:/Users/stapi/OneDrive/Desktop/GD32VW553/V1_MQTT_OK/GD32VW55X_Wifi_BLE_SDK/GD32VW55x_RELEASE_V1.0.2/MSDK/ble/app\app_dev_mgr.c ****                 for (i = 0; i < BLE_GAP_KEY_LEN; i++) {
 354:C:/Users/stapi/OneDrive/Desktop/GD32VW553/V1_MQTT_OK/GD32VW55X_Wifi_BLE_SDK/GD32VW55x_RELEASE_V1.0.2/MSDK/ble/app\app_dev_mgr.c ****                     dbg_print(NOTICE, "%02x", p_device->bond_info.local_ltk.ltk[i]);
 355:C:/Users/stapi/OneDrive/Desktop/GD32VW553/V1_MQTT_OK/GD32VW55X_Wifi_BLE_SDK/GD32VW55x_RELEASE_V1.0.2/MSDK/ble/app\app_dev_mgr.c ****                 }
 356:C:/Users/stapi/OneDrive/Desktop/GD32VW553/V1_MQTT_OK/GD32VW55X_Wifi_BLE_SDK/GD32VW55x_RELEASE_V1.0.2/MSDK/ble/app\app_dev_mgr.c ****                 dbg_print(NOTICE, "\r\n");
 357:C:/Users/stapi/OneDrive/Desktop/GD32VW553/V1_MQTT_OK/GD32VW55X_Wifi_BLE_SDK/GD32VW55x_RELEASE_V1.0.2/MSDK/ble/app\app_dev_mgr.c ****             }
 358:C:/Users/stapi/OneDrive/Desktop/GD32VW553/V1_MQTT_OK/GD32VW55X_Wifi_BLE_SDK/GD32VW55x_RELEASE_V1.0.2/MSDK/ble/app\app_dev_mgr.c **** 
 359:C:/Users/stapi/OneDrive/Desktop/GD32VW553/V1_MQTT_OK/GD32VW55X_Wifi_BLE_SDK/GD32VW55x_RELEASE_V1.0.2/MSDK/ble/app\app_dev_mgr.c ****             if (p_device->bond_info.key_msk & BLE_PEER_LTK_ENCKEY) {
 360:C:/Users/stapi/OneDrive/Desktop/GD32VW553/V1_MQTT_OK/GD32VW55X_Wifi_BLE_SDK/GD32VW55x_RELEASE_V1.0.2/MSDK/ble/app\app_dev_mgr.c ****                 dbg_print(NOTICE, "peer key size %d, ltk(hex): ", p_device->bond_info.peer_ltk.key_
 361:C:/Users/stapi/OneDrive/Desktop/GD32VW553/V1_MQTT_OK/GD32VW55X_Wifi_BLE_SDK/GD32VW55x_RELEASE_V1.0.2/MSDK/ble/app\app_dev_mgr.c **** 
 362:C:/Users/stapi/OneDrive/Desktop/GD32VW553/V1_MQTT_OK/GD32VW55X_Wifi_BLE_SDK/GD32VW55x_RELEASE_V1.0.2/MSDK/ble/app\app_dev_mgr.c ****                 for (i = 0; i < BLE_GAP_KEY_LEN; i++) {
 363:C:/Users/stapi/OneDrive/Desktop/GD32VW553/V1_MQTT_OK/GD32VW55X_Wifi_BLE_SDK/GD32VW55x_RELEASE_V1.0.2/MSDK/ble/app\app_dev_mgr.c ****                     dbg_print(NOTICE, "%02x", p_device->bond_info.peer_ltk.ltk[i]);
 364:C:/Users/stapi/OneDrive/Desktop/GD32VW553/V1_MQTT_OK/GD32VW55X_Wifi_BLE_SDK/GD32VW55x_RELEASE_V1.0.2/MSDK/ble/app\app_dev_mgr.c ****                 }
 365:C:/Users/stapi/OneDrive/Desktop/GD32VW553/V1_MQTT_OK/GD32VW55X_Wifi_BLE_SDK/GD32VW55x_RELEASE_V1.0.2/MSDK/ble/app\app_dev_mgr.c ****                 dbg_print(NOTICE, "\r\n");
 366:C:/Users/stapi/OneDrive/Desktop/GD32VW553/V1_MQTT_OK/GD32VW55X_Wifi_BLE_SDK/GD32VW55x_RELEASE_V1.0.2/MSDK/ble/app\app_dev_mgr.c ****             }
 367:C:/Users/stapi/OneDrive/Desktop/GD32VW553/V1_MQTT_OK/GD32VW55X_Wifi_BLE_SDK/GD32VW55x_RELEASE_V1.0.2/MSDK/ble/app\app_dev_mgr.c **** 
 368:C:/Users/stapi/OneDrive/Desktop/GD32VW553/V1_MQTT_OK/GD32VW55X_Wifi_BLE_SDK/GD32VW55x_RELEASE_V1.0.2/MSDK/ble/app\app_dev_mgr.c ****             if (p_device->bond_info.key_msk & BLE_PEER_IDKEY) {
 369:C:/Users/stapi/OneDrive/Desktop/GD32VW553/V1_MQTT_OK/GD32VW55X_Wifi_BLE_SDK/GD32VW55x_RELEASE_V1.0.2/MSDK/ble/app\app_dev_mgr.c ****                 dbg_print(NOTICE, "peer irk(hex): ");
 370:C:/Users/stapi/OneDrive/Desktop/GD32VW553/V1_MQTT_OK/GD32VW55X_Wifi_BLE_SDK/GD32VW55x_RELEASE_V1.0.2/MSDK/ble/app\app_dev_mgr.c **** 
 371:C:/Users/stapi/OneDrive/Desktop/GD32VW553/V1_MQTT_OK/GD32VW55X_Wifi_BLE_SDK/GD32VW55x_RELEASE_V1.0.2/MSDK/ble/app\app_dev_mgr.c ****                 for (i = 0; i < BLE_GAP_KEY_LEN; i++) {
 372:C:/Users/stapi/OneDrive/Desktop/GD32VW553/V1_MQTT_OK/GD32VW55X_Wifi_BLE_SDK/GD32VW55x_RELEASE_V1.0.2/MSDK/ble/app\app_dev_mgr.c ****                     dbg_print(NOTICE, "%02x", p_device->bond_info.peer_irk.irk[i]);
 373:C:/Users/stapi/OneDrive/Desktop/GD32VW553/V1_MQTT_OK/GD32VW55X_Wifi_BLE_SDK/GD32VW55x_RELEASE_V1.0.2/MSDK/ble/app\app_dev_mgr.c ****                 }
 374:C:/Users/stapi/OneDrive/Desktop/GD32VW553/V1_MQTT_OK/GD32VW55X_Wifi_BLE_SDK/GD32VW55x_RELEASE_V1.0.2/MSDK/ble/app\app_dev_mgr.c ****                 dbg_print(NOTICE, "\r\n");
 375:C:/Users/stapi/OneDrive/Desktop/GD32VW553/V1_MQTT_OK/GD32VW55X_Wifi_BLE_SDK/GD32VW55x_RELEASE_V1.0.2/MSDK/ble/app\app_dev_mgr.c ****             }
 376:C:/Users/stapi/OneDrive/Desktop/GD32VW553/V1_MQTT_OK/GD32VW55X_Wifi_BLE_SDK/GD32VW55x_RELEASE_V1.0.2/MSDK/ble/app\app_dev_mgr.c **** 
 377:C:/Users/stapi/OneDrive/Desktop/GD32VW553/V1_MQTT_OK/GD32VW55X_Wifi_BLE_SDK/GD32VW55x_RELEASE_V1.0.2/MSDK/ble/app\app_dev_mgr.c ****             if (p_device->bond_info.key_msk & BLE_LOC_CSRK) {
 378:C:/Users/stapi/OneDrive/Desktop/GD32VW553/V1_MQTT_OK/GD32VW55X_Wifi_BLE_SDK/GD32VW55x_RELEASE_V1.0.2/MSDK/ble/app\app_dev_mgr.c ****                 dbg_print(NOTICE, "local csrk(hex): ");
 379:C:/Users/stapi/OneDrive/Desktop/GD32VW553/V1_MQTT_OK/GD32VW55X_Wifi_BLE_SDK/GD32VW55x_RELEASE_V1.0.2/MSDK/ble/app\app_dev_mgr.c **** 
 380:C:/Users/stapi/OneDrive/Desktop/GD32VW553/V1_MQTT_OK/GD32VW55X_Wifi_BLE_SDK/GD32VW55x_RELEASE_V1.0.2/MSDK/ble/app\app_dev_mgr.c ****                 for (i = 0; i < BLE_GAP_KEY_LEN; i++) {
 381:C:/Users/stapi/OneDrive/Desktop/GD32VW553/V1_MQTT_OK/GD32VW55X_Wifi_BLE_SDK/GD32VW55x_RELEASE_V1.0.2/MSDK/ble/app\app_dev_mgr.c ****                     dbg_print(NOTICE, "%02x", p_device->bond_info.local_csrk.csrk[i]);
 382:C:/Users/stapi/OneDrive/Desktop/GD32VW553/V1_MQTT_OK/GD32VW55X_Wifi_BLE_SDK/GD32VW55x_RELEASE_V1.0.2/MSDK/ble/app\app_dev_mgr.c ****                 }
 383:C:/Users/stapi/OneDrive/Desktop/GD32VW553/V1_MQTT_OK/GD32VW55X_Wifi_BLE_SDK/GD32VW55x_RELEASE_V1.0.2/MSDK/ble/app\app_dev_mgr.c ****                 dbg_print(NOTICE, "\r\n");
 384:C:/Users/stapi/OneDrive/Desktop/GD32VW553/V1_MQTT_OK/GD32VW55X_Wifi_BLE_SDK/GD32VW55x_RELEASE_V1.0.2/MSDK/ble/app\app_dev_mgr.c ****             }
 385:C:/Users/stapi/OneDrive/Desktop/GD32VW553/V1_MQTT_OK/GD32VW55X_Wifi_BLE_SDK/GD32VW55x_RELEASE_V1.0.2/MSDK/ble/app\app_dev_mgr.c **** 
 386:C:/Users/stapi/OneDrive/Desktop/GD32VW553/V1_MQTT_OK/GD32VW55X_Wifi_BLE_SDK/GD32VW55x_RELEASE_V1.0.2/MSDK/ble/app\app_dev_mgr.c ****             if (p_device->bond_info.key_msk & BLE_PEER_CSRK) {
 387:C:/Users/stapi/OneDrive/Desktop/GD32VW553/V1_MQTT_OK/GD32VW55X_Wifi_BLE_SDK/GD32VW55x_RELEASE_V1.0.2/MSDK/ble/app\app_dev_mgr.c ****                 dbg_print(NOTICE, "peer csrk(hex): ");
 388:C:/Users/stapi/OneDrive/Desktop/GD32VW553/V1_MQTT_OK/GD32VW55X_Wifi_BLE_SDK/GD32VW55x_RELEASE_V1.0.2/MSDK/ble/app\app_dev_mgr.c **** 
 389:C:/Users/stapi/OneDrive/Desktop/GD32VW553/V1_MQTT_OK/GD32VW55X_Wifi_BLE_SDK/GD32VW55x_RELEASE_V1.0.2/MSDK/ble/app\app_dev_mgr.c ****                 for (i = 0; i < BLE_GAP_KEY_LEN; i++) {
 390:C:/Users/stapi/OneDrive/Desktop/GD32VW553/V1_MQTT_OK/GD32VW55X_Wifi_BLE_SDK/GD32VW55x_RELEASE_V1.0.2/MSDK/ble/app\app_dev_mgr.c ****                     dbg_print(NOTICE, "%02x", p_device->bond_info.peer_csrk.csrk[i]);
 391:C:/Users/stapi/OneDrive/Desktop/GD32VW553/V1_MQTT_OK/GD32VW55X_Wifi_BLE_SDK/GD32VW55x_RELEASE_V1.0.2/MSDK/ble/app\app_dev_mgr.c ****                 }
 392:C:/Users/stapi/OneDrive/Desktop/GD32VW553/V1_MQTT_OK/GD32VW55X_Wifi_BLE_SDK/GD32VW55x_RELEASE_V1.0.2/MSDK/ble/app\app_dev_mgr.c ****                 dbg_print(NOTICE, "\r\n");
 393:C:/Users/stapi/OneDrive/Desktop/GD32VW553/V1_MQTT_OK/GD32VW55X_Wifi_BLE_SDK/GD32VW55x_RELEASE_V1.0.2/MSDK/ble/app\app_dev_mgr.c ****             }
 394:C:/Users/stapi/OneDrive/Desktop/GD32VW553/V1_MQTT_OK/GD32VW55X_Wifi_BLE_SDK/GD32VW55x_RELEASE_V1.0.2/MSDK/ble/app\app_dev_mgr.c ****         }
 395:C:/Users/stapi/OneDrive/Desktop/GD32VW553/V1_MQTT_OK/GD32VW55X_Wifi_BLE_SDK/GD32VW55x_RELEASE_V1.0.2/MSDK/ble/app\app_dev_mgr.c ****         elt_idx++;
 396:C:/Users/stapi/OneDrive/Desktop/GD32VW553/V1_MQTT_OK/GD32VW55X_Wifi_BLE_SDK/GD32VW55x_RELEASE_V1.0.2/MSDK/ble/app\app_dev_mgr.c ****     }
 397:C:/Users/stapi/OneDrive/Desktop/GD32VW553/V1_MQTT_OK/GD32VW55X_Wifi_BLE_SDK/GD32VW55x_RELEASE_V1.0.2/MSDK/ble/app\app_dev_mgr.c **** }
 862              		.loc 1 397 1 is_stmt 0
 863 003a 4101     		addi	sp,sp,16
 864              		.cfi_remember_state
 865              		.cfi_def_cfa_offset 0
 866 003c 17030000 		tail	__riscv_restore_12
 866      67000300 
 867              		.cfi_restore 27
 868              		.cfi_restore 26
 869              		.cfi_restore 25
 870              		.cfi_restore 24
 871              		.cfi_restore 23
 872              		.cfi_restore 22
 873              		.cfi_restore 21
 874              		.cfi_restore 20
 875              		.cfi_restore 19
 876              		.cfi_restore 18
 877              		.cfi_restore 9
 878              		.cfi_restore 8
 879              		.cfi_restore 1
 880              		.cfi_def_cfa_offset -64
 881              	.LVL88:
 882              	.L85:
 883              		.cfi_restore_state
 884 0044 13090900 		addi	s2,s2,%lo(.LANCHOR0)
 339:C:/Users/stapi/OneDrive/Desktop/GD32VW553/V1_MQTT_OK/GD32VW55X_Wifi_BLE_SDK/GD32VW55x_RELEASE_V1.0.2/MSDK/ble/app\app_dev_mgr.c ****         p_device = list_entry(pos, ble_device_t, list);
 885              		.loc 1 339 5 is_stmt 1
 886 0048 03240900 		lw	s0,0(s2)
 887              	.LVL89:
 331:C:/Users/stapi/OneDrive/Desktop/GD32VW553/V1_MQTT_OK/GD32VW55X_Wifi_BLE_SDK/GD32VW55x_RELEASE_V1.0.2/MSDK/ble/app\app_dev_mgr.c ****     uint8_t i;
 888              		.loc 1 331 13 is_stmt 0
 889 004c 8149     		li	s3,0
 341:C:/Users/stapi/OneDrive/Desktop/GD32VW553/V1_MQTT_OK/GD32VW55X_Wifi_BLE_SDK/GD32VW55x_RELEASE_V1.0.2/MSDK/ble/app\app_dev_mgr.c ****         dbg_print(NOTICE, "-->   sec device cur_addr %02X:%02X:%02X:%02X:%02X:%02X \r\n",
 890              		.loc 1 341 9
 891 004e B7040000 		lui	s1,%hi(global_debug_level)
 339:C:/Users/stapi/OneDrive/Desktop/GD32VW553/V1_MQTT_OK/GD32VW55X_Wifi_BLE_SDK/GD32VW55x_RELEASE_V1.0.2/MSDK/ble/app\app_dev_mgr.c ****         p_device = list_entry(pos, ble_device_t, list);
 892              		.loc 1 339 5
 893 0052 832B0400 		lw	s7,0(s0)
 894              	.LVL90:
 341:C:/Users/stapi/OneDrive/Desktop/GD32VW553/V1_MQTT_OK/GD32VW55X_Wifi_BLE_SDK/GD32VW55x_RELEASE_V1.0.2/MSDK/ble/app\app_dev_mgr.c ****         dbg_print(NOTICE, "-->   sec device cur_addr %02X:%02X:%02X:%02X:%02X:%02X \r\n",
 895              		.loc 1 341 9
 896 0056 370C0000 		lui	s8,%hi(.LC2)
 342:C:/Users/stapi/OneDrive/Desktop/GD32VW553/V1_MQTT_OK/GD32VW55X_Wifi_BLE_SDK/GD32VW55x_RELEASE_V1.0.2/MSDK/ble/app\app_dev_mgr.c ****                p_device->cur_addr.addr[5], p_device->cur_addr.addr[4], p_device->cur_addr.addr[3],
 897              		.loc 1 342 9
 898 005a B70C0000 		lui	s9,%hi(.LC3)
 345:C:/Users/stapi/OneDrive/Desktop/GD32VW553/V1_MQTT_OK/GD32VW55X_Wifi_BLE_SDK/GD32VW55x_RELEASE_V1.0.2/MSDK/ble/app\app_dev_mgr.c ****                p_device->bond_info.peer_irk.identity.addr[5], p_device->bond_info.peer_irk.identity
 899              		.loc 1 345 9
 900 005e 370D0000 		lui	s10,%hi(.LC4)
 390:C:/Users/stapi/OneDrive/Desktop/GD32VW553/V1_MQTT_OK/GD32VW55X_Wifi_BLE_SDK/GD32VW55x_RELEASE_V1.0.2/MSDK/ble/app\app_dev_mgr.c ****                 }
 901              		.loc 1 390 21
 902 0062 370A0000 		lui	s4,%hi(.LC6)
 392:C:/Users/stapi/OneDrive/Desktop/GD32VW553/V1_MQTT_OK/GD32VW55X_Wifi_BLE_SDK/GD32VW55x_RELEASE_V1.0.2/MSDK/ble/app\app_dev_mgr.c ****             }
 903              		.loc 1 392 17
 904 0066 B70A0000 		lui	s5,%hi(.LC7)
 387:C:/Users/stapi/OneDrive/Desktop/GD32VW553/V1_MQTT_OK/GD32VW55X_Wifi_BLE_SDK/GD32VW55x_RELEASE_V1.0.2/MSDK/ble/app\app_dev_mgr.c **** 
 905              		.loc 1 387 17
 906 006a B70D0000 		lui	s11,%hi(.LC11)
 907              	.LVL91:
 908              	.L88:
 339:C:/Users/stapi/OneDrive/Desktop/GD32VW553/V1_MQTT_OK/GD32VW55X_Wifi_BLE_SDK/GD32VW55x_RELEASE_V1.0.2/MSDK/ble/app\app_dev_mgr.c ****         p_device = list_entry(pos, ble_device_t, list);
 909              		.loc 1 339 5 is_stmt 1 discriminator 2
 910 006e E30624FD 		beq	s0,s2,.L84
 340:C:/Users/stapi/OneDrive/Desktop/GD32VW553/V1_MQTT_OK/GD32VW55X_Wifi_BLE_SDK/GD32VW55x_RELEASE_V1.0.2/MSDK/ble/app\app_dev_mgr.c ****         dbg_print(NOTICE, "======= dev idx %u =========\r\n", elt_idx);
 911              		.loc 1 340 9
 912              	.LVL92:
 341:C:/Users/stapi/OneDrive/Desktop/GD32VW553/V1_MQTT_OK/GD32VW55X_Wifi_BLE_SDK/GD32VW55x_RELEASE_V1.0.2/MSDK/ble/app\app_dev_mgr.c ****         dbg_print(NOTICE, "-->   sec device cur_addr %02X:%02X:%02X:%02X:%02X:%02X \r\n",
 913              		.loc 1 341 9
 341:C:/Users/stapi/OneDrive/Desktop/GD32VW553/V1_MQTT_OK/GD32VW55X_Wifi_BLE_SDK/GD32VW55x_RELEASE_V1.0.2/MSDK/ble/app\app_dev_mgr.c ****         dbg_print(NOTICE, "-->   sec device cur_addr %02X:%02X:%02X:%02X:%02X:%02X \r\n",
 914              		.loc 1 341 9
 915 0072 83C70400 		lbu	a5,%lo(global_debug_level)(s1)
 916 0076 094B     		li	s6,2
 917 0078 6375FB06 		bleu	a5,s6,.L123
 341:C:/Users/stapi/OneDrive/Desktop/GD32VW553/V1_MQTT_OK/GD32VW55X_Wifi_BLE_SDK/GD32VW55x_RELEASE_V1.0.2/MSDK/ble/app\app_dev_mgr.c ****         dbg_print(NOTICE, "-->   sec device cur_addr %02X:%02X:%02X:%02X:%02X:%02X \r\n",
 918              		.loc 1 341 9 discriminator 1
 919 007c CE85     		mv	a1,s3
 920 007e 13050C00 		addi	a0,s8,%lo(.LC2)
 921 0082 97000000 		call	co_printf
 921      E7800000 
 922              	.LVL93:
 341:C:/Users/stapi/OneDrive/Desktop/GD32VW553/V1_MQTT_OK/GD32VW55X_Wifi_BLE_SDK/GD32VW55x_RELEASE_V1.0.2/MSDK/ble/app\app_dev_mgr.c ****         dbg_print(NOTICE, "-->   sec device cur_addr %02X:%02X:%02X:%02X:%02X:%02X \r\n",
 923              		.loc 1 341 9 discriminator 1
 342:C:/Users/stapi/OneDrive/Desktop/GD32VW553/V1_MQTT_OK/GD32VW55X_Wifi_BLE_SDK/GD32VW55x_RELEASE_V1.0.2/MSDK/ble/app\app_dev_mgr.c ****                p_device->cur_addr.addr[5], p_device->cur_addr.addr[4], p_device->cur_addr.addr[3],
 924              		.loc 1 342 9 discriminator 1
 342:C:/Users/stapi/OneDrive/Desktop/GD32VW553/V1_MQTT_OK/GD32VW55X_Wifi_BLE_SDK/GD32VW55x_RELEASE_V1.0.2/MSDK/ble/app\app_dev_mgr.c ****                p_device->cur_addr.addr[5], p_device->cur_addr.addr[4], p_device->cur_addr.addr[3],
 925              		.loc 1 342 9 discriminator 1
 926 008a 83C70400 		lbu	a5,%lo(global_debug_level)(s1)
 927 008e 637AFB04 		bleu	a5,s6,.L123
 342:C:/Users/stapi/OneDrive/Desktop/GD32VW553/V1_MQTT_OK/GD32VW55X_Wifi_BLE_SDK/GD32VW55x_RELEASE_V1.0.2/MSDK/ble/app\app_dev_mgr.c ****                p_device->cur_addr.addr[5], p_device->cur_addr.addr[4], p_device->cur_addr.addr[3],
 928              		.loc 1 342 9 discriminator 1
 929 0092 8347A400 		lbu	a5,10(s0)
 930 0096 03489400 		lbu	a6,9(s0)
 931 009a 0347B400 		lbu	a4,11(s0)
 932 009e 8346C400 		lbu	a3,12(s0)
 933 00a2 0346D400 		lbu	a2,13(s0)
 934 00a6 8345E400 		lbu	a1,14(s0)
 935 00aa 13850C00 		addi	a0,s9,%lo(.LC3)
 936 00ae 97000000 		call	co_printf
 936      E7800000 
 937              	.LVL94:
 342:C:/Users/stapi/OneDrive/Desktop/GD32VW553/V1_MQTT_OK/GD32VW55X_Wifi_BLE_SDK/GD32VW55x_RELEASE_V1.0.2/MSDK/ble/app\app_dev_mgr.c ****                p_device->cur_addr.addr[5], p_device->cur_addr.addr[4], p_device->cur_addr.addr[3],
 938              		.loc 1 342 9 discriminator 1
 345:C:/Users/stapi/OneDrive/Desktop/GD32VW553/V1_MQTT_OK/GD32VW55X_Wifi_BLE_SDK/GD32VW55x_RELEASE_V1.0.2/MSDK/ble/app\app_dev_mgr.c ****                p_device->bond_info.peer_irk.identity.addr[5], p_device->bond_info.peer_irk.identity
 939              		.loc 1 345 9 discriminator 1
 345:C:/Users/stapi/OneDrive/Desktop/GD32VW553/V1_MQTT_OK/GD32VW55X_Wifi_BLE_SDK/GD32VW55x_RELEASE_V1.0.2/MSDK/ble/app\app_dev_mgr.c ****                p_device->bond_info.peer_irk.identity.addr[5], p_device->bond_info.peer_irk.identity
 940              		.loc 1 345 9 discriminator 1
 941 00b6 83C70400 		lbu	a5,%lo(global_debug_level)(s1)
 942 00ba 6374FB02 		bleu	a5,s6,.L123
 345:C:/Users/stapi/OneDrive/Desktop/GD32VW553/V1_MQTT_OK/GD32VW55X_Wifi_BLE_SDK/GD32VW55x_RELEASE_V1.0.2/MSDK/ble/app\app_dev_mgr.c ****                p_device->bond_info.peer_irk.identity.addr[5], p_device->bond_info.peer_irk.identity
 943              		.loc 1 345 9 discriminator 1
 944 00be 03485405 		lbu	a6,85(s0)
 945 00c2 83476405 		lbu	a5,86(s0)
 946 00c6 03477405 		lbu	a4,87(s0)
 947 00ca 83468405 		lbu	a3,88(s0)
 948 00ce 03469405 		lbu	a2,89(s0)
 949 00d2 8345A405 		lbu	a1,90(s0)
 950 00d6 13050D00 		addi	a0,s10,%lo(.LC4)
 951 00da 97000000 		call	co_printf
 951      E7800000 
 952              	.LVL95:
 953              	.L123:
 345:C:/Users/stapi/OneDrive/Desktop/GD32VW553/V1_MQTT_OK/GD32VW55X_Wifi_BLE_SDK/GD32VW55x_RELEASE_V1.0.2/MSDK/ble/app\app_dev_mgr.c ****                p_device->bond_info.peer_irk.identity.addr[5], p_device->bond_info.peer_irk.identity
 954              		.loc 1 345 9 discriminator 3
 349:C:/Users/stapi/OneDrive/Desktop/GD32VW553/V1_MQTT_OK/GD32VW55X_Wifi_BLE_SDK/GD32VW55x_RELEASE_V1.0.2/MSDK/ble/app\app_dev_mgr.c ****             if (p_device->bond_info.key_msk & BLE_LOC_LTK_ENCKEY) {
 955              		.loc 1 349 9 discriminator 3
 349:C:/Users/stapi/OneDrive/Desktop/GD32VW553/V1_MQTT_OK/GD32VW55X_Wifi_BLE_SDK/GD32VW55x_RELEASE_V1.0.2/MSDK/ble/app\app_dev_mgr.c ****             if (p_device->bond_info.key_msk & BLE_LOC_LTK_ENCKEY) {
 956              		.loc 1 349 12 is_stmt 0 discriminator 3
 957 00e2 83472401 		lbu	a5,18(s0)
 958 00e6 638C071E 		beq	a5,zero,.L92
 350:C:/Users/stapi/OneDrive/Desktop/GD32VW553/V1_MQTT_OK/GD32VW55X_Wifi_BLE_SDK/GD32VW55x_RELEASE_V1.0.2/MSDK/ble/app\app_dev_mgr.c ****                 dbg_print(NOTICE, "local key size %d, ltk(hex): ", p_device->bond_info.local_ltk.ke
 959              		.loc 1 350 13 is_stmt 1
 350:C:/Users/stapi/OneDrive/Desktop/GD32VW553/V1_MQTT_OK/GD32VW55X_Wifi_BLE_SDK/GD32VW55x_RELEASE_V1.0.2/MSDK/ble/app\app_dev_mgr.c ****                 dbg_print(NOTICE, "local key size %d, ltk(hex): ", p_device->bond_info.local_ltk.ke
 960              		.loc 1 350 45 is_stmt 0
 961 00ea 3C40     		lw	a5,64(s0)
 962 00ec 858B     		andi	a5,a5,1
 350:C:/Users/stapi/OneDrive/Desktop/GD32VW553/V1_MQTT_OK/GD32VW55X_Wifi_BLE_SDK/GD32VW55x_RELEASE_V1.0.2/MSDK/ble/app\app_dev_mgr.c ****                 dbg_print(NOTICE, "local key size %d, ltk(hex): ", p_device->bond_info.local_ltk.ke
 963              		.loc 1 350 16
 964 00ee B5C3     		beq	a5,zero,.L94
 351:C:/Users/stapi/OneDrive/Desktop/GD32VW553/V1_MQTT_OK/GD32VW55X_Wifi_BLE_SDK/GD32VW55x_RELEASE_V1.0.2/MSDK/ble/app\app_dev_mgr.c **** 
 965              		.loc 1 351 17 is_stmt 1
 351:C:/Users/stapi/OneDrive/Desktop/GD32VW553/V1_MQTT_OK/GD32VW55X_Wifi_BLE_SDK/GD32VW55x_RELEASE_V1.0.2/MSDK/ble/app\app_dev_mgr.c **** 
 966              		.loc 1 351 17
 967 00f0 03C70400 		lbu	a4,%lo(global_debug_level)(s1)
 968 00f4 8947     		li	a5,2
 969 00f6 63FCE700 		bleu	a4,a5,.L95
 351:C:/Users/stapi/OneDrive/Desktop/GD32VW553/V1_MQTT_OK/GD32VW55X_Wifi_BLE_SDK/GD32VW55x_RELEASE_V1.0.2/MSDK/ble/app\app_dev_mgr.c **** 
 970              		.loc 1 351 17 discriminator 1
 971 00fa 83452409 		lbu	a1,146(s0)
 972 00fe 37050000 		lui	a0,%hi(.LC5)
 973 0102 13050500 		addi	a0,a0,%lo(.LC5)
 974 0106 97000000 		call	co_printf
 974      E7800000 
 975              	.LVL96:
 976              	.L95:
 977 010e 130B8407 		addi	s6,s0,120
 978 0112 93078408 		addi	a5,s0,136
 354:C:/Users/stapi/OneDrive/Desktop/GD32VW553/V1_MQTT_OK/GD32VW55X_Wifi_BLE_SDK/GD32VW55x_RELEASE_V1.0.2/MSDK/ble/app\app_dev_mgr.c ****                 }
 979              		.loc 1 354 21 is_stmt 0
 980 0116 0947     		li	a4,2
 981              	.L97:
 982              	.LVL97:
 354:C:/Users/stapi/OneDrive/Desktop/GD32VW553/V1_MQTT_OK/GD32VW55X_Wifi_BLE_SDK/GD32VW55x_RELEASE_V1.0.2/MSDK/ble/app\app_dev_mgr.c ****                 }
 983              		.loc 1 354 21 is_stmt 1
 354:C:/Users/stapi/OneDrive/Desktop/GD32VW553/V1_MQTT_OK/GD32VW55X_Wifi_BLE_SDK/GD32VW55x_RELEASE_V1.0.2/MSDK/ble/app\app_dev_mgr.c ****                 }
 984              		.loc 1 354 21
 985 0118 83C60400 		lbu	a3,%lo(global_debug_level)(s1)
 986 011c 637DD700 		bleu	a3,a4,.L96
 354:C:/Users/stapi/OneDrive/Desktop/GD32VW553/V1_MQTT_OK/GD32VW55X_Wifi_BLE_SDK/GD32VW55x_RELEASE_V1.0.2/MSDK/ble/app\app_dev_mgr.c ****                 }
 987              		.loc 1 354 21 is_stmt 0 discriminator 1
 988 0120 83450B00 		lbu	a1,0(s6)
 989 0124 13050A00 		addi	a0,s4,%lo(.LC6)
 990 0128 3EC6     		sw	a5,12(sp)
 354:C:/Users/stapi/OneDrive/Desktop/GD32VW553/V1_MQTT_OK/GD32VW55X_Wifi_BLE_SDK/GD32VW55x_RELEASE_V1.0.2/MSDK/ble/app\app_dev_mgr.c ****                 }
 991              		.loc 1 354 21 is_stmt 1 discriminator 1
 992 012a 97000000 		call	co_printf
 992      E7800000 
 993              	.LVL98:
 994 0132 B247     		lw	a5,12(sp)
 995 0134 0947     		li	a4,2
 996              	.L96:
 354:C:/Users/stapi/OneDrive/Desktop/GD32VW553/V1_MQTT_OK/GD32VW55X_Wifi_BLE_SDK/GD32VW55x_RELEASE_V1.0.2/MSDK/ble/app\app_dev_mgr.c ****                 }
 997              		.loc 1 354 21 discriminator 3
 353:C:/Users/stapi/OneDrive/Desktop/GD32VW553/V1_MQTT_OK/GD32VW55X_Wifi_BLE_SDK/GD32VW55x_RELEASE_V1.0.2/MSDK/ble/app\app_dev_mgr.c ****                     dbg_print(NOTICE, "%02x", p_device->bond_info.local_ltk.ltk[i]);
 998              		.loc 1 353 50 discriminator 3
 999              	.LVL99:
 353:C:/Users/stapi/OneDrive/Desktop/GD32VW553/V1_MQTT_OK/GD32VW55X_Wifi_BLE_SDK/GD32VW55x_RELEASE_V1.0.2/MSDK/ble/app\app_dev_mgr.c ****                     dbg_print(NOTICE, "%02x", p_device->bond_info.local_ltk.ltk[i]);
 1000              		.loc 1 353 29 discriminator 3
 353:C:/Users/stapi/OneDrive/Desktop/GD32VW553/V1_MQTT_OK/GD32VW55X_Wifi_BLE_SDK/GD32VW55x_RELEASE_V1.0.2/MSDK/ble/app\app_dev_mgr.c ****                     dbg_print(NOTICE, "%02x", p_device->bond_info.local_ltk.ltk[i]);
 1001              		.loc 1 353 17 is_stmt 0 discriminator 3
 1002 0136 050B     		addi	s6,s6,1
 1003              	.LVL100:
 1004 0138 E310FBFE 		bne	s6,a5,.L97
 356:C:/Users/stapi/OneDrive/Desktop/GD32VW553/V1_MQTT_OK/GD32VW55X_Wifi_BLE_SDK/GD32VW55x_RELEASE_V1.0.2/MSDK/ble/app\app_dev_mgr.c ****             }
 1005              		.loc 1 356 17 is_stmt 1
 356:C:/Users/stapi/OneDrive/Desktop/GD32VW553/V1_MQTT_OK/GD32VW55X_Wifi_BLE_SDK/GD32VW55x_RELEASE_V1.0.2/MSDK/ble/app\app_dev_mgr.c ****             }
 1006              		.loc 1 356 17
 1007 013c 03C70400 		lbu	a4,%lo(global_debug_level)(s1)
 1008 0140 8947     		li	a5,2
 1009 0142 63F8E700 		bleu	a4,a5,.L94
 356:C:/Users/stapi/OneDrive/Desktop/GD32VW553/V1_MQTT_OK/GD32VW55X_Wifi_BLE_SDK/GD32VW55x_RELEASE_V1.0.2/MSDK/ble/app\app_dev_mgr.c ****             }
 1010              		.loc 1 356 17 discriminator 1
 1011 0146 13850A00 		addi	a0,s5,%lo(.LC7)
 1012 014a 97000000 		call	co_printf
 1012      E7800000 
 1013              	.LVL101:
 1014              	.L94:
 356:C:/Users/stapi/OneDrive/Desktop/GD32VW553/V1_MQTT_OK/GD32VW55X_Wifi_BLE_SDK/GD32VW55x_RELEASE_V1.0.2/MSDK/ble/app\app_dev_mgr.c ****             }
 1015              		.loc 1 356 17 discriminator 3
 359:C:/Users/stapi/OneDrive/Desktop/GD32VW553/V1_MQTT_OK/GD32VW55X_Wifi_BLE_SDK/GD32VW55x_RELEASE_V1.0.2/MSDK/ble/app\app_dev_mgr.c ****                 dbg_print(NOTICE, "peer key size %d, ltk(hex): ", p_device->bond_info.peer_ltk.key_
 1016              		.loc 1 359 13 discriminator 3
 359:C:/Users/stapi/OneDrive/Desktop/GD32VW553/V1_MQTT_OK/GD32VW55X_Wifi_BLE_SDK/GD32VW55x_RELEASE_V1.0.2/MSDK/ble/app\app_dev_mgr.c ****                 dbg_print(NOTICE, "peer key size %d, ltk(hex): ", p_device->bond_info.peer_ltk.key_
 1017              		.loc 1 359 45 is_stmt 0 discriminator 3
 1018 0152 3C40     		lw	a5,64(s0)
 1019 0154 898B     		andi	a5,a5,2
 359:C:/Users/stapi/OneDrive/Desktop/GD32VW553/V1_MQTT_OK/GD32VW55X_Wifi_BLE_SDK/GD32VW55x_RELEASE_V1.0.2/MSDK/ble/app\app_dev_mgr.c ****                 dbg_print(NOTICE, "peer key size %d, ltk(hex): ", p_device->bond_info.peer_ltk.key_
 1020              		.loc 1 359 16 discriminator 3
 1021 0156 B5C3     		beq	a5,zero,.L100
 360:C:/Users/stapi/OneDrive/Desktop/GD32VW553/V1_MQTT_OK/GD32VW55X_Wifi_BLE_SDK/GD32VW55x_RELEASE_V1.0.2/MSDK/ble/app\app_dev_mgr.c **** 
 1022              		.loc 1 360 17 is_stmt 1
 360:C:/Users/stapi/OneDrive/Desktop/GD32VW553/V1_MQTT_OK/GD32VW55X_Wifi_BLE_SDK/GD32VW55x_RELEASE_V1.0.2/MSDK/ble/app\app_dev_mgr.c **** 
 1023              		.loc 1 360 17
 1024 0158 03C70400 		lbu	a4,%lo(global_debug_level)(s1)
 1025 015c 8947     		li	a5,2
 1026 015e 63FCE700 		bleu	a4,a5,.L101
 360:C:/Users/stapi/OneDrive/Desktop/GD32VW553/V1_MQTT_OK/GD32VW55X_Wifi_BLE_SDK/GD32VW55x_RELEASE_V1.0.2/MSDK/ble/app\app_dev_mgr.c **** 
 1027              		.loc 1 360 17 discriminator 1
 1028 0162 83456407 		lbu	a1,118(s0)
 1029 0166 37050000 		lui	a0,%hi(.LC8)
 1030 016a 13050500 		addi	a0,a0,%lo(.LC8)
 1031 016e 97000000 		call	co_printf
 1031      E7800000 
 1032              	.LVL102:
 1033              	.L101:
 1034 0176 130BC405 		addi	s6,s0,92
 1035 017a 9307C406 		addi	a5,s0,108
 363:C:/Users/stapi/OneDrive/Desktop/GD32VW553/V1_MQTT_OK/GD32VW55X_Wifi_BLE_SDK/GD32VW55x_RELEASE_V1.0.2/MSDK/ble/app\app_dev_mgr.c ****                 }
 1036              		.loc 1 363 21 is_stmt 0
 1037 017e 0947     		li	a4,2
 1038              	.L103:
 1039              	.LVL103:
 363:C:/Users/stapi/OneDrive/Desktop/GD32VW553/V1_MQTT_OK/GD32VW55X_Wifi_BLE_SDK/GD32VW55x_RELEASE_V1.0.2/MSDK/ble/app\app_dev_mgr.c ****                 }
 1040              		.loc 1 363 21 is_stmt 1
 363:C:/Users/stapi/OneDrive/Desktop/GD32VW553/V1_MQTT_OK/GD32VW55X_Wifi_BLE_SDK/GD32VW55x_RELEASE_V1.0.2/MSDK/ble/app\app_dev_mgr.c ****                 }
 1041              		.loc 1 363 21
 1042 0180 83C60400 		lbu	a3,%lo(global_debug_level)(s1)
 1043 0184 637DD700 		bleu	a3,a4,.L102
 363:C:/Users/stapi/OneDrive/Desktop/GD32VW553/V1_MQTT_OK/GD32VW55X_Wifi_BLE_SDK/GD32VW55x_RELEASE_V1.0.2/MSDK/ble/app\app_dev_mgr.c ****                 }
 1044              		.loc 1 363 21 is_stmt 0 discriminator 1
 1045 0188 83450B00 		lbu	a1,0(s6)
 1046 018c 13050A00 		addi	a0,s4,%lo(.LC6)
 1047 0190 3EC6     		sw	a5,12(sp)
 363:C:/Users/stapi/OneDrive/Desktop/GD32VW553/V1_MQTT_OK/GD32VW55X_Wifi_BLE_SDK/GD32VW55x_RELEASE_V1.0.2/MSDK/ble/app\app_dev_mgr.c ****                 }
 1048              		.loc 1 363 21 is_stmt 1 discriminator 1
 1049 0192 97000000 		call	co_printf
 1049      E7800000 
 1050              	.LVL104:
 1051 019a B247     		lw	a5,12(sp)
 1052 019c 0947     		li	a4,2
 1053              	.L102:
 363:C:/Users/stapi/OneDrive/Desktop/GD32VW553/V1_MQTT_OK/GD32VW55X_Wifi_BLE_SDK/GD32VW55x_RELEASE_V1.0.2/MSDK/ble/app\app_dev_mgr.c ****                 }
 1054              		.loc 1 363 21 discriminator 3
 362:C:/Users/stapi/OneDrive/Desktop/GD32VW553/V1_MQTT_OK/GD32VW55X_Wifi_BLE_SDK/GD32VW55x_RELEASE_V1.0.2/MSDK/ble/app\app_dev_mgr.c ****                     dbg_print(NOTICE, "%02x", p_device->bond_info.peer_ltk.ltk[i]);
 1055              		.loc 1 362 50 discriminator 3
 1056              	.LVL105:
 362:C:/Users/stapi/OneDrive/Desktop/GD32VW553/V1_MQTT_OK/GD32VW55X_Wifi_BLE_SDK/GD32VW55x_RELEASE_V1.0.2/MSDK/ble/app\app_dev_mgr.c ****                     dbg_print(NOTICE, "%02x", p_device->bond_info.peer_ltk.ltk[i]);
 1057              		.loc 1 362 29 discriminator 3
 362:C:/Users/stapi/OneDrive/Desktop/GD32VW553/V1_MQTT_OK/GD32VW55X_Wifi_BLE_SDK/GD32VW55x_RELEASE_V1.0.2/MSDK/ble/app\app_dev_mgr.c ****                     dbg_print(NOTICE, "%02x", p_device->bond_info.peer_ltk.ltk[i]);
 1058              		.loc 1 362 17 is_stmt 0 discriminator 3
 1059 019e 050B     		addi	s6,s6,1
 1060              	.LVL106:
 1061 01a0 E310FBFE 		bne	s6,a5,.L103
 365:C:/Users/stapi/OneDrive/Desktop/GD32VW553/V1_MQTT_OK/GD32VW55X_Wifi_BLE_SDK/GD32VW55x_RELEASE_V1.0.2/MSDK/ble/app\app_dev_mgr.c ****             }
 1062              		.loc 1 365 17 is_stmt 1
 365:C:/Users/stapi/OneDrive/Desktop/GD32VW553/V1_MQTT_OK/GD32VW55X_Wifi_BLE_SDK/GD32VW55x_RELEASE_V1.0.2/MSDK/ble/app\app_dev_mgr.c ****             }
 1063              		.loc 1 365 17
 1064 01a4 03C70400 		lbu	a4,%lo(global_debug_level)(s1)
 1065 01a8 8947     		li	a5,2
 1066 01aa 63F8E700 		bleu	a4,a5,.L100
 365:C:/Users/stapi/OneDrive/Desktop/GD32VW553/V1_MQTT_OK/GD32VW55X_Wifi_BLE_SDK/GD32VW55x_RELEASE_V1.0.2/MSDK/ble/app\app_dev_mgr.c ****             }
 1067              		.loc 1 365 17 discriminator 1
 1068 01ae 13850A00 		addi	a0,s5,%lo(.LC7)
 1069 01b2 97000000 		call	co_printf
 1069      E7800000 
 1070              	.LVL107:
 1071              	.L100:
 365:C:/Users/stapi/OneDrive/Desktop/GD32VW553/V1_MQTT_OK/GD32VW55X_Wifi_BLE_SDK/GD32VW55x_RELEASE_V1.0.2/MSDK/ble/app\app_dev_mgr.c ****             }
 1072              		.loc 1 365 17 discriminator 3
 368:C:/Users/stapi/OneDrive/Desktop/GD32VW553/V1_MQTT_OK/GD32VW55X_Wifi_BLE_SDK/GD32VW55x_RELEASE_V1.0.2/MSDK/ble/app\app_dev_mgr.c ****                 dbg_print(NOTICE, "peer irk(hex): ");
 1073              		.loc 1 368 13 discriminator 3
 368:C:/Users/stapi/OneDrive/Desktop/GD32VW553/V1_MQTT_OK/GD32VW55X_Wifi_BLE_SDK/GD32VW55x_RELEASE_V1.0.2/MSDK/ble/app\app_dev_mgr.c ****                 dbg_print(NOTICE, "peer irk(hex): ");
 1074              		.loc 1 368 45 is_stmt 0 discriminator 3
 1075 01ba 3C40     		lw	a5,64(s0)
 1076 01bc 918B     		andi	a5,a5,4
 368:C:/Users/stapi/OneDrive/Desktop/GD32VW553/V1_MQTT_OK/GD32VW55X_Wifi_BLE_SDK/GD32VW55x_RELEASE_V1.0.2/MSDK/ble/app\app_dev_mgr.c ****                 dbg_print(NOTICE, "peer irk(hex): ");
 1077              		.loc 1 368 16 discriminator 3
 1078 01be A5C3     		beq	a5,zero,.L106
 369:C:/Users/stapi/OneDrive/Desktop/GD32VW553/V1_MQTT_OK/GD32VW55X_Wifi_BLE_SDK/GD32VW55x_RELEASE_V1.0.2/MSDK/ble/app\app_dev_mgr.c **** 
 1079              		.loc 1 369 17 is_stmt 1
 369:C:/Users/stapi/OneDrive/Desktop/GD32VW553/V1_MQTT_OK/GD32VW55X_Wifi_BLE_SDK/GD32VW55x_RELEASE_V1.0.2/MSDK/ble/app\app_dev_mgr.c **** 
 1080              		.loc 1 369 17
 1081 01c0 03C70400 		lbu	a4,%lo(global_debug_level)(s1)
 1082 01c4 8947     		li	a5,2
 1083 01c6 63FAE700 		bleu	a4,a5,.L107
 369:C:/Users/stapi/OneDrive/Desktop/GD32VW553/V1_MQTT_OK/GD32VW55X_Wifi_BLE_SDK/GD32VW55x_RELEASE_V1.0.2/MSDK/ble/app\app_dev_mgr.c **** 
 1084              		.loc 1 369 17 discriminator 1
 1085 01ca 37050000 		lui	a0,%hi(.LC9)
 1086 01ce 13050500 		addi	a0,a0,%lo(.LC9)
 1087 01d2 97000000 		call	co_printf
 1087      E7800000 
 1088              	.LVL108:
 1089              	.L107:
 1090 01da 130B4404 		addi	s6,s0,68
 1091 01de 93074405 		addi	a5,s0,84
 372:C:/Users/stapi/OneDrive/Desktop/GD32VW553/V1_MQTT_OK/GD32VW55X_Wifi_BLE_SDK/GD32VW55x_RELEASE_V1.0.2/MSDK/ble/app\app_dev_mgr.c ****                 }
 1092              		.loc 1 372 21 is_stmt 0
 1093 01e2 0947     		li	a4,2
 1094              	.L109:
 1095              	.LVL109:
 372:C:/Users/stapi/OneDrive/Desktop/GD32VW553/V1_MQTT_OK/GD32VW55X_Wifi_BLE_SDK/GD32VW55x_RELEASE_V1.0.2/MSDK/ble/app\app_dev_mgr.c ****                 }
 1096              		.loc 1 372 21 is_stmt 1
 372:C:/Users/stapi/OneDrive/Desktop/GD32VW553/V1_MQTT_OK/GD32VW55X_Wifi_BLE_SDK/GD32VW55x_RELEASE_V1.0.2/MSDK/ble/app\app_dev_mgr.c ****                 }
 1097              		.loc 1 372 21
 1098 01e4 83C60400 		lbu	a3,%lo(global_debug_level)(s1)
 1099 01e8 637DD700 		bleu	a3,a4,.L108
 372:C:/Users/stapi/OneDrive/Desktop/GD32VW553/V1_MQTT_OK/GD32VW55X_Wifi_BLE_SDK/GD32VW55x_RELEASE_V1.0.2/MSDK/ble/app\app_dev_mgr.c ****                 }
 1100              		.loc 1 372 21 is_stmt 0 discriminator 1
 1101 01ec 83450B00 		lbu	a1,0(s6)
 1102 01f0 13050A00 		addi	a0,s4,%lo(.LC6)
 1103 01f4 3EC6     		sw	a5,12(sp)
 372:C:/Users/stapi/OneDrive/Desktop/GD32VW553/V1_MQTT_OK/GD32VW55X_Wifi_BLE_SDK/GD32VW55x_RELEASE_V1.0.2/MSDK/ble/app\app_dev_mgr.c ****                 }
 1104              		.loc 1 372 21 is_stmt 1 discriminator 1
 1105 01f6 97000000 		call	co_printf
 1105      E7800000 
 1106              	.LVL110:
 1107 01fe B247     		lw	a5,12(sp)
 1108 0200 0947     		li	a4,2
 1109              	.L108:
 372:C:/Users/stapi/OneDrive/Desktop/GD32VW553/V1_MQTT_OK/GD32VW55X_Wifi_BLE_SDK/GD32VW55x_RELEASE_V1.0.2/MSDK/ble/app\app_dev_mgr.c ****                 }
 1110              		.loc 1 372 21 discriminator 3
 371:C:/Users/stapi/OneDrive/Desktop/GD32VW553/V1_MQTT_OK/GD32VW55X_Wifi_BLE_SDK/GD32VW55x_RELEASE_V1.0.2/MSDK/ble/app\app_dev_mgr.c ****                     dbg_print(NOTICE, "%02x", p_device->bond_info.peer_irk.irk[i]);
 1111              		.loc 1 371 50 discriminator 3
 1112              	.LVL111:
 371:C:/Users/stapi/OneDrive/Desktop/GD32VW553/V1_MQTT_OK/GD32VW55X_Wifi_BLE_SDK/GD32VW55x_RELEASE_V1.0.2/MSDK/ble/app\app_dev_mgr.c ****                     dbg_print(NOTICE, "%02x", p_device->bond_info.peer_irk.irk[i]);
 1113              		.loc 1 371 29 discriminator 3
 371:C:/Users/stapi/OneDrive/Desktop/GD32VW553/V1_MQTT_OK/GD32VW55X_Wifi_BLE_SDK/GD32VW55x_RELEASE_V1.0.2/MSDK/ble/app\app_dev_mgr.c ****                     dbg_print(NOTICE, "%02x", p_device->bond_info.peer_irk.irk[i]);
 1114              		.loc 1 371 17 is_stmt 0 discriminator 3
 1115 0202 050B     		addi	s6,s6,1
 1116              	.LVL112:
 1117 0204 E310FBFE 		bne	s6,a5,.L109
 374:C:/Users/stapi/OneDrive/Desktop/GD32VW553/V1_MQTT_OK/GD32VW55X_Wifi_BLE_SDK/GD32VW55x_RELEASE_V1.0.2/MSDK/ble/app\app_dev_mgr.c ****             }
 1118              		.loc 1 374 17 is_stmt 1
 374:C:/Users/stapi/OneDrive/Desktop/GD32VW553/V1_MQTT_OK/GD32VW55X_Wifi_BLE_SDK/GD32VW55x_RELEASE_V1.0.2/MSDK/ble/app\app_dev_mgr.c ****             }
 1119              		.loc 1 374 17
 1120 0208 03C70400 		lbu	a4,%lo(global_debug_level)(s1)
 1121 020c 8947     		li	a5,2
 1122 020e 63F8E700 		bleu	a4,a5,.L106
 374:C:/Users/stapi/OneDrive/Desktop/GD32VW553/V1_MQTT_OK/GD32VW55X_Wifi_BLE_SDK/GD32VW55x_RELEASE_V1.0.2/MSDK/ble/app\app_dev_mgr.c ****             }
 1123              		.loc 1 374 17 discriminator 1
 1124 0212 13850A00 		addi	a0,s5,%lo(.LC7)
 1125 0216 97000000 		call	co_printf
 1125      E7800000 
 1126              	.LVL113:
 1127              	.L106:
 374:C:/Users/stapi/OneDrive/Desktop/GD32VW553/V1_MQTT_OK/GD32VW55X_Wifi_BLE_SDK/GD32VW55x_RELEASE_V1.0.2/MSDK/ble/app\app_dev_mgr.c ****             }
 1128              		.loc 1 374 17 discriminator 3
 377:C:/Users/stapi/OneDrive/Desktop/GD32VW553/V1_MQTT_OK/GD32VW55X_Wifi_BLE_SDK/GD32VW55x_RELEASE_V1.0.2/MSDK/ble/app\app_dev_mgr.c ****                 dbg_print(NOTICE, "local csrk(hex): ");
 1129              		.loc 1 377 13 discriminator 3
 377:C:/Users/stapi/OneDrive/Desktop/GD32VW553/V1_MQTT_OK/GD32VW55X_Wifi_BLE_SDK/GD32VW55x_RELEASE_V1.0.2/MSDK/ble/app\app_dev_mgr.c ****                 dbg_print(NOTICE, "local csrk(hex): ");
 1130              		.loc 1 377 45 is_stmt 0 discriminator 3
 1131 021e 3C40     		lw	a5,64(s0)
 1132 0220 A18B     		andi	a5,a5,8
 377:C:/Users/stapi/OneDrive/Desktop/GD32VW553/V1_MQTT_OK/GD32VW55X_Wifi_BLE_SDK/GD32VW55x_RELEASE_V1.0.2/MSDK/ble/app\app_dev_mgr.c ****                 dbg_print(NOTICE, "local csrk(hex): ");
 1133              		.loc 1 377 16 discriminator 3
 1134 0222 A5C3     		beq	a5,zero,.L112
 378:C:/Users/stapi/OneDrive/Desktop/GD32VW553/V1_MQTT_OK/GD32VW55X_Wifi_BLE_SDK/GD32VW55x_RELEASE_V1.0.2/MSDK/ble/app\app_dev_mgr.c **** 
 1135              		.loc 1 378 17 is_stmt 1
 378:C:/Users/stapi/OneDrive/Desktop/GD32VW553/V1_MQTT_OK/GD32VW55X_Wifi_BLE_SDK/GD32VW55x_RELEASE_V1.0.2/MSDK/ble/app\app_dev_mgr.c **** 
 1136              		.loc 1 378 17
 1137 0224 03C70400 		lbu	a4,%lo(global_debug_level)(s1)
 1138 0228 8947     		li	a5,2
 1139 022a 63FAE700 		bleu	a4,a5,.L113
 378:C:/Users/stapi/OneDrive/Desktop/GD32VW553/V1_MQTT_OK/GD32VW55X_Wifi_BLE_SDK/GD32VW55x_RELEASE_V1.0.2/MSDK/ble/app\app_dev_mgr.c **** 
 1140              		.loc 1 378 17 discriminator 1
 1141 022e 37050000 		lui	a0,%hi(.LC10)
 1142 0232 13050500 		addi	a0,a0,%lo(.LC10)
 1143 0236 97000000 		call	co_printf
 1143      E7800000 
 1144              	.LVL114:
 1145              	.L113:
 1146 023e 130B440A 		addi	s6,s0,164
 1147 0242 9307440B 		addi	a5,s0,180
 381:C:/Users/stapi/OneDrive/Desktop/GD32VW553/V1_MQTT_OK/GD32VW55X_Wifi_BLE_SDK/GD32VW55x_RELEASE_V1.0.2/MSDK/ble/app\app_dev_mgr.c ****                 }
 1148              		.loc 1 381 21 is_stmt 0
 1149 0246 0947     		li	a4,2
 1150              	.L115:
 1151              	.LVL115:
 381:C:/Users/stapi/OneDrive/Desktop/GD32VW553/V1_MQTT_OK/GD32VW55X_Wifi_BLE_SDK/GD32VW55x_RELEASE_V1.0.2/MSDK/ble/app\app_dev_mgr.c ****                 }
 1152              		.loc 1 381 21 is_stmt 1
 381:C:/Users/stapi/OneDrive/Desktop/GD32VW553/V1_MQTT_OK/GD32VW55X_Wifi_BLE_SDK/GD32VW55x_RELEASE_V1.0.2/MSDK/ble/app\app_dev_mgr.c ****                 }
 1153              		.loc 1 381 21
 1154 0248 83C60400 		lbu	a3,%lo(global_debug_level)(s1)
 1155 024c 637DD700 		bleu	a3,a4,.L114
 381:C:/Users/stapi/OneDrive/Desktop/GD32VW553/V1_MQTT_OK/GD32VW55X_Wifi_BLE_SDK/GD32VW55x_RELEASE_V1.0.2/MSDK/ble/app\app_dev_mgr.c ****                 }
 1156              		.loc 1 381 21 is_stmt 0 discriminator 1
 1157 0250 83450B00 		lbu	a1,0(s6)
 1158 0254 13050A00 		addi	a0,s4,%lo(.LC6)
 1159 0258 3EC6     		sw	a5,12(sp)
 381:C:/Users/stapi/OneDrive/Desktop/GD32VW553/V1_MQTT_OK/GD32VW55X_Wifi_BLE_SDK/GD32VW55x_RELEASE_V1.0.2/MSDK/ble/app\app_dev_mgr.c ****                 }
 1160              		.loc 1 381 21 is_stmt 1 discriminator 1
 1161 025a 97000000 		call	co_printf
 1161      E7800000 
 1162              	.LVL116:
 1163 0262 B247     		lw	a5,12(sp)
 1164 0264 0947     		li	a4,2
 1165              	.L114:
 381:C:/Users/stapi/OneDrive/Desktop/GD32VW553/V1_MQTT_OK/GD32VW55X_Wifi_BLE_SDK/GD32VW55x_RELEASE_V1.0.2/MSDK/ble/app\app_dev_mgr.c ****                 }
 1166              		.loc 1 381 21 discriminator 3
 380:C:/Users/stapi/OneDrive/Desktop/GD32VW553/V1_MQTT_OK/GD32VW55X_Wifi_BLE_SDK/GD32VW55x_RELEASE_V1.0.2/MSDK/ble/app\app_dev_mgr.c ****                     dbg_print(NOTICE, "%02x", p_device->bond_info.local_csrk.csrk[i]);
 1167              		.loc 1 380 50 discriminator 3
 1168              	.LVL117:
 380:C:/Users/stapi/OneDrive/Desktop/GD32VW553/V1_MQTT_OK/GD32VW55X_Wifi_BLE_SDK/GD32VW55x_RELEASE_V1.0.2/MSDK/ble/app\app_dev_mgr.c ****                     dbg_print(NOTICE, "%02x", p_device->bond_info.local_csrk.csrk[i]);
 1169              		.loc 1 380 29 discriminator 3
 380:C:/Users/stapi/OneDrive/Desktop/GD32VW553/V1_MQTT_OK/GD32VW55X_Wifi_BLE_SDK/GD32VW55x_RELEASE_V1.0.2/MSDK/ble/app\app_dev_mgr.c ****                     dbg_print(NOTICE, "%02x", p_device->bond_info.local_csrk.csrk[i]);
 1170              		.loc 1 380 17 is_stmt 0 discriminator 3
 1171 0266 050B     		addi	s6,s6,1
 1172              	.LVL118:
 1173 0268 E39067FF 		bne	a5,s6,.L115
 383:C:/Users/stapi/OneDrive/Desktop/GD32VW553/V1_MQTT_OK/GD32VW55X_Wifi_BLE_SDK/GD32VW55x_RELEASE_V1.0.2/MSDK/ble/app\app_dev_mgr.c ****             }
 1174              		.loc 1 383 17 is_stmt 1
 383:C:/Users/stapi/OneDrive/Desktop/GD32VW553/V1_MQTT_OK/GD32VW55X_Wifi_BLE_SDK/GD32VW55x_RELEASE_V1.0.2/MSDK/ble/app\app_dev_mgr.c ****             }
 1175              		.loc 1 383 17
 1176 026c 03C70400 		lbu	a4,%lo(global_debug_level)(s1)
 1177 0270 8947     		li	a5,2
 1178 0272 63F8E700 		bleu	a4,a5,.L112
 383:C:/Users/stapi/OneDrive/Desktop/GD32VW553/V1_MQTT_OK/GD32VW55X_Wifi_BLE_SDK/GD32VW55x_RELEASE_V1.0.2/MSDK/ble/app\app_dev_mgr.c ****             }
 1179              		.loc 1 383 17 discriminator 1
 1180 0276 13850A00 		addi	a0,s5,%lo(.LC7)
 1181 027a 97000000 		call	co_printf
 1181      E7800000 
 1182              	.LVL119:
 1183              	.L112:
 383:C:/Users/stapi/OneDrive/Desktop/GD32VW553/V1_MQTT_OK/GD32VW55X_Wifi_BLE_SDK/GD32VW55x_RELEASE_V1.0.2/MSDK/ble/app\app_dev_mgr.c ****             }
 1184              		.loc 1 383 17 discriminator 3
 386:C:/Users/stapi/OneDrive/Desktop/GD32VW553/V1_MQTT_OK/GD32VW55X_Wifi_BLE_SDK/GD32VW55x_RELEASE_V1.0.2/MSDK/ble/app\app_dev_mgr.c ****                 dbg_print(NOTICE, "peer csrk(hex): ");
 1185              		.loc 1 386 13 discriminator 3
 386:C:/Users/stapi/OneDrive/Desktop/GD32VW553/V1_MQTT_OK/GD32VW55X_Wifi_BLE_SDK/GD32VW55x_RELEASE_V1.0.2/MSDK/ble/app\app_dev_mgr.c ****                 dbg_print(NOTICE, "peer csrk(hex): ");
 1186              		.loc 1 386 45 is_stmt 0 discriminator 3
 1187 0282 3C40     		lw	a5,64(s0)
 1188 0284 C18B     		andi	a5,a5,16
 386:C:/Users/stapi/OneDrive/Desktop/GD32VW553/V1_MQTT_OK/GD32VW55X_Wifi_BLE_SDK/GD32VW55x_RELEASE_V1.0.2/MSDK/ble/app\app_dev_mgr.c ****                 dbg_print(NOTICE, "peer csrk(hex): ");
 1189              		.loc 1 386 16 discriminator 3
 1190 0286 A1CF     		beq	a5,zero,.L92
 387:C:/Users/stapi/OneDrive/Desktop/GD32VW553/V1_MQTT_OK/GD32VW55X_Wifi_BLE_SDK/GD32VW55x_RELEASE_V1.0.2/MSDK/ble/app\app_dev_mgr.c **** 
 1191              		.loc 1 387 17 is_stmt 1
 387:C:/Users/stapi/OneDrive/Desktop/GD32VW553/V1_MQTT_OK/GD32VW55X_Wifi_BLE_SDK/GD32VW55x_RELEASE_V1.0.2/MSDK/ble/app\app_dev_mgr.c **** 
 1192              		.loc 1 387 17
 1193 0288 03C70400 		lbu	a4,%lo(global_debug_level)(s1)
 1194 028c 8947     		li	a5,2
 1195 028e 63F8E700 		bleu	a4,a5,.L118
 387:C:/Users/stapi/OneDrive/Desktop/GD32VW553/V1_MQTT_OK/GD32VW55X_Wifi_BLE_SDK/GD32VW55x_RELEASE_V1.0.2/MSDK/ble/app\app_dev_mgr.c **** 
 1196              		.loc 1 387 17 discriminator 1
 1197 0292 13850D00 		addi	a0,s11,%lo(.LC11)
 1198 0296 97000000 		call	co_printf
 1198      E7800000 
 1199              	.LVL120:
 1200              	.L118:
 1201 029e 130B4409 		addi	s6,s0,148
 390:C:/Users/stapi/OneDrive/Desktop/GD32VW553/V1_MQTT_OK/GD32VW55X_Wifi_BLE_SDK/GD32VW55x_RELEASE_V1.0.2/MSDK/ble/app\app_dev_mgr.c ****                 }
 1202              		.loc 1 390 21 is_stmt 0
 1203 02a2 8947     		li	a5,2
 1204 02a4 1304440A 		addi	s0,s0,164
 1205              	.LVL121:
 1206              	.L120:
 390:C:/Users/stapi/OneDrive/Desktop/GD32VW553/V1_MQTT_OK/GD32VW55X_Wifi_BLE_SDK/GD32VW55x_RELEASE_V1.0.2/MSDK/ble/app\app_dev_mgr.c ****                 }
 1207              		.loc 1 390 21 is_stmt 1
 390:C:/Users/stapi/OneDrive/Desktop/GD32VW553/V1_MQTT_OK/GD32VW55X_Wifi_BLE_SDK/GD32VW55x_RELEASE_V1.0.2/MSDK/ble/app\app_dev_mgr.c ****                 }
 1208              		.loc 1 390 21
 1209 02a8 03C70400 		lbu	a4,%lo(global_debug_level)(s1)
 1210 02ac 63FBE700 		bleu	a4,a5,.L119
 390:C:/Users/stapi/OneDrive/Desktop/GD32VW553/V1_MQTT_OK/GD32VW55X_Wifi_BLE_SDK/GD32VW55x_RELEASE_V1.0.2/MSDK/ble/app\app_dev_mgr.c ****                 }
 1211              		.loc 1 390 21 discriminator 1
 1212 02b0 83450B00 		lbu	a1,0(s6)
 1213 02b4 13050A00 		addi	a0,s4,%lo(.LC6)
 1214 02b8 97000000 		call	co_printf
 1214      E7800000 
 1215              	.LVL122:
 1216 02c0 8947     		li	a5,2
 1217              	.L119:
 390:C:/Users/stapi/OneDrive/Desktop/GD32VW553/V1_MQTT_OK/GD32VW55X_Wifi_BLE_SDK/GD32VW55x_RELEASE_V1.0.2/MSDK/ble/app\app_dev_mgr.c ****                 }
 1218              		.loc 1 390 21 discriminator 3
 389:C:/Users/stapi/OneDrive/Desktop/GD32VW553/V1_MQTT_OK/GD32VW55X_Wifi_BLE_SDK/GD32VW55x_RELEASE_V1.0.2/MSDK/ble/app\app_dev_mgr.c ****                     dbg_print(NOTICE, "%02x", p_device->bond_info.peer_csrk.csrk[i]);
 1219              		.loc 1 389 50 discriminator 3
 1220              	.LVL123:
 389:C:/Users/stapi/OneDrive/Desktop/GD32VW553/V1_MQTT_OK/GD32VW55X_Wifi_BLE_SDK/GD32VW55x_RELEASE_V1.0.2/MSDK/ble/app\app_dev_mgr.c ****                     dbg_print(NOTICE, "%02x", p_device->bond_info.peer_csrk.csrk[i]);
 1221              		.loc 1 389 29 discriminator 3
 389:C:/Users/stapi/OneDrive/Desktop/GD32VW553/V1_MQTT_OK/GD32VW55X_Wifi_BLE_SDK/GD32VW55x_RELEASE_V1.0.2/MSDK/ble/app\app_dev_mgr.c ****                     dbg_print(NOTICE, "%02x", p_device->bond_info.peer_csrk.csrk[i]);
 1222              		.loc 1 389 17 is_stmt 0 discriminator 3
 1223 02c2 050B     		addi	s6,s6,1
 1224              	.LVL124:
 1225 02c4 E31264FF 		bne	s0,s6,.L120
 392:C:/Users/stapi/OneDrive/Desktop/GD32VW553/V1_MQTT_OK/GD32VW55X_Wifi_BLE_SDK/GD32VW55x_RELEASE_V1.0.2/MSDK/ble/app\app_dev_mgr.c ****             }
 1226              		.loc 1 392 17 is_stmt 1
 392:C:/Users/stapi/OneDrive/Desktop/GD32VW553/V1_MQTT_OK/GD32VW55X_Wifi_BLE_SDK/GD32VW55x_RELEASE_V1.0.2/MSDK/ble/app\app_dev_mgr.c ****             }
 1227              		.loc 1 392 17
 1228 02c8 03C70400 		lbu	a4,%lo(global_debug_level)(s1)
 1229 02cc 8947     		li	a5,2
 1230 02ce 63F8E700 		bleu	a4,a5,.L92
 392:C:/Users/stapi/OneDrive/Desktop/GD32VW553/V1_MQTT_OK/GD32VW55X_Wifi_BLE_SDK/GD32VW55x_RELEASE_V1.0.2/MSDK/ble/app\app_dev_mgr.c ****             }
 1231              		.loc 1 392 17 discriminator 1
 1232 02d2 13850A00 		addi	a0,s5,%lo(.LC7)
 1233 02d6 97000000 		call	co_printf
 1233      E7800000 
 1234              	.LVL125:
 1235              	.L92:
 392:C:/Users/stapi/OneDrive/Desktop/GD32VW553/V1_MQTT_OK/GD32VW55X_Wifi_BLE_SDK/GD32VW55x_RELEASE_V1.0.2/MSDK/ble/app\app_dev_mgr.c ****             }
 1236              		.loc 1 392 17 discriminator 3
 395:C:/Users/stapi/OneDrive/Desktop/GD32VW553/V1_MQTT_OK/GD32VW55X_Wifi_BLE_SDK/GD32VW55x_RELEASE_V1.0.2/MSDK/ble/app\app_dev_mgr.c ****     }
 1237              		.loc 1 395 9 discriminator 3
 395:C:/Users/stapi/OneDrive/Desktop/GD32VW553/V1_MQTT_OK/GD32VW55X_Wifi_BLE_SDK/GD32VW55x_RELEASE_V1.0.2/MSDK/ble/app\app_dev_mgr.c ****     }
 1238              		.loc 1 395 16 is_stmt 0 discriminator 3
 1239 02de 8509     		addi	s3,s3,1
 1240              	.LVL126:
 339:C:/Users/stapi/OneDrive/Desktop/GD32VW553/V1_MQTT_OK/GD32VW55X_Wifi_BLE_SDK/GD32VW55x_RELEASE_V1.0.2/MSDK/ble/app\app_dev_mgr.c ****         p_device = list_entry(pos, ble_device_t, list);
 1241              		.loc 1 339 5 discriminator 3
 1242 02e0 5E84     		mv	s0,s7
 395:C:/Users/stapi/OneDrive/Desktop/GD32VW553/V1_MQTT_OK/GD32VW55X_Wifi_BLE_SDK/GD32VW55x_RELEASE_V1.0.2/MSDK/ble/app\app_dev_mgr.c ****     }
 1243              		.loc 1 395 16 discriminator 3
 1244 02e2 93F9F90F 		andi	s3,s3,0xff
 1245              	.LVL127:
 339:C:/Users/stapi/OneDrive/Desktop/GD32VW553/V1_MQTT_OK/GD32VW55X_Wifi_BLE_SDK/GD32VW55x_RELEASE_V1.0.2/MSDK/ble/app\app_dev_mgr.c ****         p_device = list_entry(pos, ble_device_t, list);
 1246              		.loc 1 339 5 is_stmt 1 discriminator 3
 1247 02e6 83AB0B00 		lw	s7,0(s7)
 1248 02ea 51B3     		j	.L88
 1249              		.cfi_endproc
 1250              	.LFE11:
 1252              		.section	.text.dm_get_conidx_bf,"ax",@progbits
 1253              		.align	1
 1254              		.globl	dm_get_conidx_bf
 1256              	dm_get_conidx_bf:
 1257              	.LFB12:
 398:C:/Users/stapi/OneDrive/Desktop/GD32VW553/V1_MQTT_OK/GD32VW55X_Wifi_BLE_SDK/GD32VW55x_RELEASE_V1.0.2/MSDK/ble/app\app_dev_mgr.c **** 
 399:C:/Users/stapi/OneDrive/Desktop/GD32VW553/V1_MQTT_OK/GD32VW55X_Wifi_BLE_SDK/GD32VW55x_RELEASE_V1.0.2/MSDK/ble/app\app_dev_mgr.c **** /*!
 400:C:/Users/stapi/OneDrive/Desktop/GD32VW553/V1_MQTT_OK/GD32VW55X_Wifi_BLE_SDK/GD32VW55x_RELEASE_V1.0.2/MSDK/ble/app\app_dev_mgr.c ****     \brief      dm get connection index bit field
 401:C:/Users/stapi/OneDrive/Desktop/GD32VW553/V1_MQTT_OK/GD32VW55X_Wifi_BLE_SDK/GD32VW55x_RELEASE_V1.0.2/MSDK/ble/app\app_dev_mgr.c ****     \param[in]  none
 402:C:/Users/stapi/OneDrive/Desktop/GD32VW553/V1_MQTT_OK/GD32VW55X_Wifi_BLE_SDK/GD32VW55x_RELEASE_V1.0.2/MSDK/ble/app\app_dev_mgr.c ****     \param[out] none
 403:C:/Users/stapi/OneDrive/Desktop/GD32VW553/V1_MQTT_OK/GD32VW55X_Wifi_BLE_SDK/GD32VW55x_RELEASE_V1.0.2/MSDK/ble/app\app_dev_mgr.c ****     \retval     uint32_t: connection index bit field
 404:C:/Users/stapi/OneDrive/Desktop/GD32VW553/V1_MQTT_OK/GD32VW55X_Wifi_BLE_SDK/GD32VW55x_RELEASE_V1.0.2/MSDK/ble/app\app_dev_mgr.c **** */
 405:C:/Users/stapi/OneDrive/Desktop/GD32VW553/V1_MQTT_OK/GD32VW55X_Wifi_BLE_SDK/GD32VW55x_RELEASE_V1.0.2/MSDK/ble/app\app_dev_mgr.c **** uint32_t dm_get_conidx_bf(void)
 406:C:/Users/stapi/OneDrive/Desktop/GD32VW553/V1_MQTT_OK/GD32VW55X_Wifi_BLE_SDK/GD32VW55x_RELEASE_V1.0.2/MSDK/ble/app\app_dev_mgr.c **** {
 1258              		.loc 1 406 1
 1259              		.cfi_startproc
 1260 0000 17030000 		call	t0,__riscv_save_1
 1260      E7020300 
 1261              		.cfi_offset 8, -8
 1262              		.cfi_offset 1, -4
 1263              		.cfi_def_cfa_offset 16
 407:C:/Users/stapi/OneDrive/Desktop/GD32VW553/V1_MQTT_OK/GD32VW55X_Wifi_BLE_SDK/GD32VW55x_RELEASE_V1.0.2/MSDK/ble/app\app_dev_mgr.c ****     uint32_t conidx_bf = 0;
 1264              		.loc 1 407 5
 1265              	.LVL128:
 408:C:/Users/stapi/OneDrive/Desktop/GD32VW553/V1_MQTT_OK/GD32VW55X_Wifi_BLE_SDK/GD32VW55x_RELEASE_V1.0.2/MSDK/ble/app\app_dev_mgr.c ****     dlist_t *pos, *n;
 1266              		.loc 1 408 5
 409:C:/Users/stapi/OneDrive/Desktop/GD32VW553/V1_MQTT_OK/GD32VW55X_Wifi_BLE_SDK/GD32VW55x_RELEASE_V1.0.2/MSDK/ble/app\app_dev_mgr.c ****     ble_device_t *p_device;
 1267              		.loc 1 409 5
 410:C:/Users/stapi/OneDrive/Desktop/GD32VW553/V1_MQTT_OK/GD32VW55X_Wifi_BLE_SDK/GD32VW55x_RELEASE_V1.0.2/MSDK/ble/app\app_dev_mgr.c **** 
 411:C:/Users/stapi/OneDrive/Desktop/GD32VW553/V1_MQTT_OK/GD32VW55X_Wifi_BLE_SDK/GD32VW55x_RELEASE_V1.0.2/MSDK/ble/app\app_dev_mgr.c ****     if (list_empty(&device_mgr.sec_dev_list)) {
 1268              		.loc 1 411 5
 1269              		.loc 1 411 9 is_stmt 0
 1270 0008 37040000 		lui	s0,%hi(.LANCHOR0)
 1271 000c 13050400 		addi	a0,s0,%lo(.LANCHOR0)
 1272 0010 97000000 		call	list_empty
 1272      E7800000 
 1273              	.LVL129:
 412:C:/Users/stapi/OneDrive/Desktop/GD32VW553/V1_MQTT_OK/GD32VW55X_Wifi_BLE_SDK/GD32VW55x_RELEASE_V1.0.2/MSDK/ble/app\app_dev_mgr.c ****         return conidx_bf;
 1274              		.loc 1 412 16
 1275 0018 8147     		li	a5,0
 411:C:/Users/stapi/OneDrive/Desktop/GD32VW553/V1_MQTT_OK/GD32VW55X_Wifi_BLE_SDK/GD32VW55x_RELEASE_V1.0.2/MSDK/ble/app\app_dev_mgr.c ****         return conidx_bf;
 1276              		.loc 1 411 8
 1277 001a 01E9     		bne	a0,zero,.L133
 1278 001c 13040400 		addi	s0,s0,%lo(.LANCHOR0)
 413:C:/Users/stapi/OneDrive/Desktop/GD32VW553/V1_MQTT_OK/GD32VW55X_Wifi_BLE_SDK/GD32VW55x_RELEASE_V1.0.2/MSDK/ble/app\app_dev_mgr.c ****     }
 414:C:/Users/stapi/OneDrive/Desktop/GD32VW553/V1_MQTT_OK/GD32VW55X_Wifi_BLE_SDK/GD32VW55x_RELEASE_V1.0.2/MSDK/ble/app\app_dev_mgr.c **** 
 415:C:/Users/stapi/OneDrive/Desktop/GD32VW553/V1_MQTT_OK/GD32VW55X_Wifi_BLE_SDK/GD32VW55x_RELEASE_V1.0.2/MSDK/ble/app\app_dev_mgr.c ****     list_for_each_safe(pos, n, &device_mgr.sec_dev_list) {
 1279              		.loc 1 415 5 is_stmt 1
 1280 0020 1840     		lw	a4,0(s0)
 1281              	.LVL130:
 416:C:/Users/stapi/OneDrive/Desktop/GD32VW553/V1_MQTT_OK/GD32VW55X_Wifi_BLE_SDK/GD32VW55x_RELEASE_V1.0.2/MSDK/ble/app\app_dev_mgr.c ****         p_device = list_entry(pos, ble_device_t, list);
 417:C:/Users/stapi/OneDrive/Desktop/GD32VW553/V1_MQTT_OK/GD32VW55X_Wifi_BLE_SDK/GD32VW55x_RELEASE_V1.0.2/MSDK/ble/app\app_dev_mgr.c ****         if (p_device->conn_idx < BLE_PEER_NUM_MAX) {
 1282              		.loc 1 417 12 is_stmt 0
 1283 0022 1D46     		li	a2,7
 415:C:/Users/stapi/OneDrive/Desktop/GD32VW553/V1_MQTT_OK/GD32VW55X_Wifi_BLE_SDK/GD32VW55x_RELEASE_V1.0.2/MSDK/ble/app\app_dev_mgr.c ****         p_device = list_entry(pos, ble_device_t, list);
 1284              		.loc 1 415 5
 1285 0024 1443     		lw	a3,0(a4)
 1286              	.LVL131:
 1287              	.L135:
 415:C:/Users/stapi/OneDrive/Desktop/GD32VW553/V1_MQTT_OK/GD32VW55X_Wifi_BLE_SDK/GD32VW55x_RELEASE_V1.0.2/MSDK/ble/app\app_dev_mgr.c ****         p_device = list_entry(pos, ble_device_t, list);
 1288              		.loc 1 415 5 is_stmt 1 discriminator 1
 1289 0026 63178700 		bne	a4,s0,.L137
 1290              	.LVL132:
 1291              	.L133:
 418:C:/Users/stapi/OneDrive/Desktop/GD32VW553/V1_MQTT_OK/GD32VW55X_Wifi_BLE_SDK/GD32VW55x_RELEASE_V1.0.2/MSDK/ble/app\app_dev_mgr.c ****             conidx_bf |= 1 << p_device->conn_idx;
 419:C:/Users/stapi/OneDrive/Desktop/GD32VW553/V1_MQTT_OK/GD32VW55X_Wifi_BLE_SDK/GD32VW55x_RELEASE_V1.0.2/MSDK/ble/app\app_dev_mgr.c ****         }
 420:C:/Users/stapi/OneDrive/Desktop/GD32VW553/V1_MQTT_OK/GD32VW55X_Wifi_BLE_SDK/GD32VW55x_RELEASE_V1.0.2/MSDK/ble/app\app_dev_mgr.c ****     }
 421:C:/Users/stapi/OneDrive/Desktop/GD32VW553/V1_MQTT_OK/GD32VW55X_Wifi_BLE_SDK/GD32VW55x_RELEASE_V1.0.2/MSDK/ble/app\app_dev_mgr.c **** 
 422:C:/Users/stapi/OneDrive/Desktop/GD32VW553/V1_MQTT_OK/GD32VW55X_Wifi_BLE_SDK/GD32VW55x_RELEASE_V1.0.2/MSDK/ble/app\app_dev_mgr.c ****     return conidx_bf;
 423:C:/Users/stapi/OneDrive/Desktop/GD32VW553/V1_MQTT_OK/GD32VW55X_Wifi_BLE_SDK/GD32VW55x_RELEASE_V1.0.2/MSDK/ble/app\app_dev_mgr.c **** }
 1292              		.loc 1 423 1 is_stmt 0
 1293 002a 3E85     		mv	a0,a5
 1294 002c 17030000 		tail	__riscv_restore_1
 1294      67000300 
 1295              		.cfi_remember_state
 1296              		.cfi_restore 8
 1297              		.cfi_restore 1
 1298              		.cfi_def_cfa_offset 0
 1299              	.LVL133:
 1300              	.L137:
 1301              		.cfi_restore_state
 416:C:/Users/stapi/OneDrive/Desktop/GD32VW553/V1_MQTT_OK/GD32VW55X_Wifi_BLE_SDK/GD32VW55x_RELEASE_V1.0.2/MSDK/ble/app\app_dev_mgr.c ****         if (p_device->conn_idx < BLE_PEER_NUM_MAX) {
 1302              		.loc 1 416 9 is_stmt 1
 417:C:/Users/stapi/OneDrive/Desktop/GD32VW553/V1_MQTT_OK/GD32VW55X_Wifi_BLE_SDK/GD32VW55x_RELEASE_V1.0.2/MSDK/ble/app\app_dev_mgr.c ****             conidx_bf |= 1 << p_device->conn_idx;
 1303              		.loc 1 417 9
 417:C:/Users/stapi/OneDrive/Desktop/GD32VW553/V1_MQTT_OK/GD32VW55X_Wifi_BLE_SDK/GD32VW55x_RELEASE_V1.0.2/MSDK/ble/app\app_dev_mgr.c ****             conidx_bf |= 1 << p_device->conn_idx;
 1304              		.loc 1 417 21 is_stmt 0
 1305 0034 0347F700 		lbu	a4,15(a4)
 1306              	.LVL134:
 417:C:/Users/stapi/OneDrive/Desktop/GD32VW553/V1_MQTT_OK/GD32VW55X_Wifi_BLE_SDK/GD32VW55x_RELEASE_V1.0.2/MSDK/ble/app\app_dev_mgr.c ****             conidx_bf |= 1 << p_device->conn_idx;
 1307              		.loc 1 417 12
 1308 0038 6365E600 		bgtu	a4,a2,.L136
 418:C:/Users/stapi/OneDrive/Desktop/GD32VW553/V1_MQTT_OK/GD32VW55X_Wifi_BLE_SDK/GD32VW55x_RELEASE_V1.0.2/MSDK/ble/app\app_dev_mgr.c ****             conidx_bf |= 1 << p_device->conn_idx;
 1309              		.loc 1 418 13 is_stmt 1
 418:C:/Users/stapi/OneDrive/Desktop/GD32VW553/V1_MQTT_OK/GD32VW55X_Wifi_BLE_SDK/GD32VW55x_RELEASE_V1.0.2/MSDK/ble/app\app_dev_mgr.c ****             conidx_bf |= 1 << p_device->conn_idx;
 1310              		.loc 1 418 28 is_stmt 0
 1311 003c 3317E028 		bset	a4,x0,a4
 418:C:/Users/stapi/OneDrive/Desktop/GD32VW553/V1_MQTT_OK/GD32VW55X_Wifi_BLE_SDK/GD32VW55x_RELEASE_V1.0.2/MSDK/ble/app\app_dev_mgr.c ****             conidx_bf |= 1 << p_device->conn_idx;
 1312              		.loc 1 418 23
 1313 0040 D98F     		or	a5,a5,a4
 1314              	.LVL135:
 1315              	.L136:
 415:C:/Users/stapi/OneDrive/Desktop/GD32VW553/V1_MQTT_OK/GD32VW55X_Wifi_BLE_SDK/GD32VW55x_RELEASE_V1.0.2/MSDK/ble/app\app_dev_mgr.c ****         p_device = list_entry(pos, ble_device_t, list);
 1316              		.loc 1 415 5 is_stmt 1 discriminator 2
 1317 0042 3687     		mv	a4,a3
 1318 0044 9442     		lw	a3,0(a3)
 1319              	.LVL136:
 1320 0046 C5B7     		j	.L135
 1321              		.cfi_endproc
 1322              	.LFE12:
 1324              		.section	.text.dm_check_connection_valid,"ax",@progbits
 1325              		.align	1
 1326              		.globl	dm_check_connection_valid
 1328              	dm_check_connection_valid:
 1329              	.LFB13:
 424:C:/Users/stapi/OneDrive/Desktop/GD32VW553/V1_MQTT_OK/GD32VW55X_Wifi_BLE_SDK/GD32VW55x_RELEASE_V1.0.2/MSDK/ble/app\app_dev_mgr.c **** 
 425:C:/Users/stapi/OneDrive/Desktop/GD32VW553/V1_MQTT_OK/GD32VW55X_Wifi_BLE_SDK/GD32VW55x_RELEASE_V1.0.2/MSDK/ble/app\app_dev_mgr.c **** /*!
 426:C:/Users/stapi/OneDrive/Desktop/GD32VW553/V1_MQTT_OK/GD32VW55X_Wifi_BLE_SDK/GD32VW55x_RELEASE_V1.0.2/MSDK/ble/app\app_dev_mgr.c ****     \brief      dm check connection valid
 427:C:/Users/stapi/OneDrive/Desktop/GD32VW553/V1_MQTT_OK/GD32VW55X_Wifi_BLE_SDK/GD32VW55x_RELEASE_V1.0.2/MSDK/ble/app\app_dev_mgr.c ****     \param[in]  conn_idx: connection index
 428:C:/Users/stapi/OneDrive/Desktop/GD32VW553/V1_MQTT_OK/GD32VW55X_Wifi_BLE_SDK/GD32VW55x_RELEASE_V1.0.2/MSDK/ble/app\app_dev_mgr.c ****     \param[out] none
 429:C:/Users/stapi/OneDrive/Desktop/GD32VW553/V1_MQTT_OK/GD32VW55X_Wifi_BLE_SDK/GD32VW55x_RELEASE_V1.0.2/MSDK/ble/app\app_dev_mgr.c ****     \retval     bool: true if connection is valid, otherwise false
 430:C:/Users/stapi/OneDrive/Desktop/GD32VW553/V1_MQTT_OK/GD32VW55X_Wifi_BLE_SDK/GD32VW55x_RELEASE_V1.0.2/MSDK/ble/app\app_dev_mgr.c **** */
 431:C:/Users/stapi/OneDrive/Desktop/GD32VW553/V1_MQTT_OK/GD32VW55X_Wifi_BLE_SDK/GD32VW55x_RELEASE_V1.0.2/MSDK/ble/app\app_dev_mgr.c **** bool dm_check_connection_valid(uint8_t conn_idx)
 432:C:/Users/stapi/OneDrive/Desktop/GD32VW553/V1_MQTT_OK/GD32VW55X_Wifi_BLE_SDK/GD32VW55x_RELEASE_V1.0.2/MSDK/ble/app\app_dev_mgr.c **** {
 1330              		.loc 1 432 1
 1331              		.cfi_startproc
 1332              	.LVL137:
 1333 0000 17030000 		call	t0,__riscv_save_2
 1333      E7020300 
 1334              		.cfi_offset 9, -12
 1335              		.cfi_offset 8, -8
 1336              		.cfi_offset 1, -4
 1337              		.cfi_def_cfa_offset 16
 433:C:/Users/stapi/OneDrive/Desktop/GD32VW553/V1_MQTT_OK/GD32VW55X_Wifi_BLE_SDK/GD32VW55x_RELEASE_V1.0.2/MSDK/ble/app\app_dev_mgr.c ****     dlist_t *pos, *n;
 1338              		.loc 1 433 5
 434:C:/Users/stapi/OneDrive/Desktop/GD32VW553/V1_MQTT_OK/GD32VW55X_Wifi_BLE_SDK/GD32VW55x_RELEASE_V1.0.2/MSDK/ble/app\app_dev_mgr.c ****     ble_device_t *p_device;
 1339              		.loc 1 434 5
 435:C:/Users/stapi/OneDrive/Desktop/GD32VW553/V1_MQTT_OK/GD32VW55X_Wifi_BLE_SDK/GD32VW55x_RELEASE_V1.0.2/MSDK/ble/app\app_dev_mgr.c **** 
 436:C:/Users/stapi/OneDrive/Desktop/GD32VW553/V1_MQTT_OK/GD32VW55X_Wifi_BLE_SDK/GD32VW55x_RELEASE_V1.0.2/MSDK/ble/app\app_dev_mgr.c ****     if (list_empty(&device_mgr.sec_dev_list)) {
 1340              		.loc 1 436 5
 1341              		.loc 1 436 9 is_stmt 0
 1342 0008 37040000 		lui	s0,%hi(.LANCHOR0)
 432:C:/Users/stapi/OneDrive/Desktop/GD32VW553/V1_MQTT_OK/GD32VW55X_Wifi_BLE_SDK/GD32VW55x_RELEASE_V1.0.2/MSDK/ble/app\app_dev_mgr.c ****     dlist_t *pos, *n;
 1343              		.loc 1 432 1
 1344 000c AA84     		mv	s1,a0
 1345              		.loc 1 436 9
 1346 000e 13050400 		addi	a0,s0,%lo(.LANCHOR0)
 1347              	.LVL138:
 1348 0012 97000000 		call	list_empty
 1348      E7800000 
 1349              	.LVL139:
 1350              		.loc 1 436 8
 1351 001a 19E9     		bne	a0,zero,.L144
 437:C:/Users/stapi/OneDrive/Desktop/GD32VW553/V1_MQTT_OK/GD32VW55X_Wifi_BLE_SDK/GD32VW55x_RELEASE_V1.0.2/MSDK/ble/app\app_dev_mgr.c ****         return false;
 438:C:/Users/stapi/OneDrive/Desktop/GD32VW553/V1_MQTT_OK/GD32VW55X_Wifi_BLE_SDK/GD32VW55x_RELEASE_V1.0.2/MSDK/ble/app\app_dev_mgr.c ****     }
 439:C:/Users/stapi/OneDrive/Desktop/GD32VW553/V1_MQTT_OK/GD32VW55X_Wifi_BLE_SDK/GD32VW55x_RELEASE_V1.0.2/MSDK/ble/app\app_dev_mgr.c **** 
 440:C:/Users/stapi/OneDrive/Desktop/GD32VW553/V1_MQTT_OK/GD32VW55X_Wifi_BLE_SDK/GD32VW55x_RELEASE_V1.0.2/MSDK/ble/app\app_dev_mgr.c ****     if (conn_idx == BLE_CONN_CONIDX_INVALID)
 1352              		.loc 1 440 5 is_stmt 1
 1353              		.loc 1 440 8 is_stmt 0
 1354 001c 9307F00F 		li	a5,255
 1355 0020 6389F400 		beq	s1,a5,.L141
 1356 0024 13040400 		addi	s0,s0,%lo(.LANCHOR0)
 441:C:/Users/stapi/OneDrive/Desktop/GD32VW553/V1_MQTT_OK/GD32VW55X_Wifi_BLE_SDK/GD32VW55x_RELEASE_V1.0.2/MSDK/ble/app\app_dev_mgr.c ****         return false;
 442:C:/Users/stapi/OneDrive/Desktop/GD32VW553/V1_MQTT_OK/GD32VW55X_Wifi_BLE_SDK/GD32VW55x_RELEASE_V1.0.2/MSDK/ble/app\app_dev_mgr.c **** 
 443:C:/Users/stapi/OneDrive/Desktop/GD32VW553/V1_MQTT_OK/GD32VW55X_Wifi_BLE_SDK/GD32VW55x_RELEASE_V1.0.2/MSDK/ble/app\app_dev_mgr.c ****     list_for_each_safe(pos, n, &device_mgr.sec_dev_list) {
 1357              		.loc 1 443 5 is_stmt 1
 1358 0028 1C40     		lw	a5,0(s0)
 1359              	.LVL140:
 1360 002a 9843     		lw	a4,0(a5)
 1361              	.LVL141:
 1362              	.L142:
 1363              		.loc 1 443 5 discriminator 1
 1364 002c 63978700 		bne	a5,s0,.L143
 1365              	.LVL142:
 1366              	.L144:
 437:C:/Users/stapi/OneDrive/Desktop/GD32VW553/V1_MQTT_OK/GD32VW55X_Wifi_BLE_SDK/GD32VW55x_RELEASE_V1.0.2/MSDK/ble/app\app_dev_mgr.c ****         return false;
 1367              		.loc 1 437 16 is_stmt 0
 1368 0030 0145     		li	a0,0
 1369              	.L141:
 444:C:/Users/stapi/OneDrive/Desktop/GD32VW553/V1_MQTT_OK/GD32VW55X_Wifi_BLE_SDK/GD32VW55x_RELEASE_V1.0.2/MSDK/ble/app\app_dev_mgr.c ****         p_device = list_entry(pos, ble_device_t, list);
 445:C:/Users/stapi/OneDrive/Desktop/GD32VW553/V1_MQTT_OK/GD32VW55X_Wifi_BLE_SDK/GD32VW55x_RELEASE_V1.0.2/MSDK/ble/app\app_dev_mgr.c ****         if (p_device->conn_idx == conn_idx) {
 446:C:/Users/stapi/OneDrive/Desktop/GD32VW553/V1_MQTT_OK/GD32VW55X_Wifi_BLE_SDK/GD32VW55x_RELEASE_V1.0.2/MSDK/ble/app\app_dev_mgr.c ****             return true;
 447:C:/Users/stapi/OneDrive/Desktop/GD32VW553/V1_MQTT_OK/GD32VW55X_Wifi_BLE_SDK/GD32VW55x_RELEASE_V1.0.2/MSDK/ble/app\app_dev_mgr.c ****         }
 448:C:/Users/stapi/OneDrive/Desktop/GD32VW553/V1_MQTT_OK/GD32VW55X_Wifi_BLE_SDK/GD32VW55x_RELEASE_V1.0.2/MSDK/ble/app\app_dev_mgr.c ****     }
 449:C:/Users/stapi/OneDrive/Desktop/GD32VW553/V1_MQTT_OK/GD32VW55X_Wifi_BLE_SDK/GD32VW55x_RELEASE_V1.0.2/MSDK/ble/app\app_dev_mgr.c **** 
 450:C:/Users/stapi/OneDrive/Desktop/GD32VW553/V1_MQTT_OK/GD32VW55X_Wifi_BLE_SDK/GD32VW55x_RELEASE_V1.0.2/MSDK/ble/app\app_dev_mgr.c ****     return false;
 451:C:/Users/stapi/OneDrive/Desktop/GD32VW553/V1_MQTT_OK/GD32VW55X_Wifi_BLE_SDK/GD32VW55x_RELEASE_V1.0.2/MSDK/ble/app\app_dev_mgr.c **** }
 1370              		.loc 1 451 1
 1371 0032 17030000 		tail	__riscv_restore_2
 1371      67000300 
 1372              		.cfi_remember_state
 1373              		.cfi_restore 9
 1374              		.cfi_restore 8
 1375              		.cfi_restore 1
 1376              		.cfi_def_cfa_offset 0
 1377              	.LVL143:
 1378              	.L143:
 1379              		.cfi_restore_state
 444:C:/Users/stapi/OneDrive/Desktop/GD32VW553/V1_MQTT_OK/GD32VW55X_Wifi_BLE_SDK/GD32VW55x_RELEASE_V1.0.2/MSDK/ble/app\app_dev_mgr.c ****         p_device = list_entry(pos, ble_device_t, list);
 1380              		.loc 1 444 9 is_stmt 1
 445:C:/Users/stapi/OneDrive/Desktop/GD32VW553/V1_MQTT_OK/GD32VW55X_Wifi_BLE_SDK/GD32VW55x_RELEASE_V1.0.2/MSDK/ble/app\app_dev_mgr.c ****             return true;
 1381              		.loc 1 445 9
 445:C:/Users/stapi/OneDrive/Desktop/GD32VW553/V1_MQTT_OK/GD32VW55X_Wifi_BLE_SDK/GD32VW55x_RELEASE_V1.0.2/MSDK/ble/app\app_dev_mgr.c ****             return true;
 1382              		.loc 1 445 12 is_stmt 0
 1383 003a 83C7F700 		lbu	a5,15(a5)
 1384              	.LVL144:
 1385 003e 63859700 		beq	a5,s1,.L146
 443:C:/Users/stapi/OneDrive/Desktop/GD32VW553/V1_MQTT_OK/GD32VW55X_Wifi_BLE_SDK/GD32VW55x_RELEASE_V1.0.2/MSDK/ble/app\app_dev_mgr.c ****         p_device = list_entry(pos, ble_device_t, list);
 1386              		.loc 1 443 5 is_stmt 1 discriminator 2
 1387              	.LVL145:
 1388 0042 BA87     		mv	a5,a4
 1389 0044 1843     		lw	a4,0(a4)
 1390              	.LVL146:
 1391 0046 DDB7     		j	.L142
 1392              	.LVL147:
 1393              	.L146:
 446:C:/Users/stapi/OneDrive/Desktop/GD32VW553/V1_MQTT_OK/GD32VW55X_Wifi_BLE_SDK/GD32VW55x_RELEASE_V1.0.2/MSDK/ble/app\app_dev_mgr.c ****         }
 1394              		.loc 1 446 20 is_stmt 0
 1395 0048 0545     		li	a0,1
 1396 004a E5B7     		j	.L141
 1397              		.cfi_endproc
 1398              	.LFE13:
 1400              		.section	.text.app_dm_reset,"ax",@progbits
 1401              		.align	1
 1402              		.globl	app_dm_reset
 1404              	app_dm_reset:
 1405              	.LFB14:
 452:C:/Users/stapi/OneDrive/Desktop/GD32VW553/V1_MQTT_OK/GD32VW55X_Wifi_BLE_SDK/GD32VW55x_RELEASE_V1.0.2/MSDK/ble/app\app_dev_mgr.c **** 
 453:C:/Users/stapi/OneDrive/Desktop/GD32VW553/V1_MQTT_OK/GD32VW55X_Wifi_BLE_SDK/GD32VW55x_RELEASE_V1.0.2/MSDK/ble/app\app_dev_mgr.c **** /*!
 454:C:/Users/stapi/OneDrive/Desktop/GD32VW553/V1_MQTT_OK/GD32VW55X_Wifi_BLE_SDK/GD32VW55x_RELEASE_V1.0.2/MSDK/ble/app\app_dev_mgr.c ****     \brief      Reset application device manager module
 455:C:/Users/stapi/OneDrive/Desktop/GD32VW553/V1_MQTT_OK/GD32VW55X_Wifi_BLE_SDK/GD32VW55x_RELEASE_V1.0.2/MSDK/ble/app\app_dev_mgr.c ****     \param[in]  none
 456:C:/Users/stapi/OneDrive/Desktop/GD32VW553/V1_MQTT_OK/GD32VW55X_Wifi_BLE_SDK/GD32VW55x_RELEASE_V1.0.2/MSDK/ble/app\app_dev_mgr.c ****     \param[out] none
 457:C:/Users/stapi/OneDrive/Desktop/GD32VW553/V1_MQTT_OK/GD32VW55X_Wifi_BLE_SDK/GD32VW55x_RELEASE_V1.0.2/MSDK/ble/app\app_dev_mgr.c ****     \retval     none
 458:C:/Users/stapi/OneDrive/Desktop/GD32VW553/V1_MQTT_OK/GD32VW55X_Wifi_BLE_SDK/GD32VW55x_RELEASE_V1.0.2/MSDK/ble/app\app_dev_mgr.c **** */
 459:C:/Users/stapi/OneDrive/Desktop/GD32VW553/V1_MQTT_OK/GD32VW55X_Wifi_BLE_SDK/GD32VW55x_RELEASE_V1.0.2/MSDK/ble/app\app_dev_mgr.c **** void app_dm_reset(void)
 460:C:/Users/stapi/OneDrive/Desktop/GD32VW553/V1_MQTT_OK/GD32VW55X_Wifi_BLE_SDK/GD32VW55x_RELEASE_V1.0.2/MSDK/ble/app\app_dev_mgr.c **** {
 1406              		.loc 1 460 1 is_stmt 1
 1407              		.cfi_startproc
 1408 0000 17030000 		call	t0,__riscv_save_3
 1408      E7020300 
 1409              		.cfi_offset 18, -16
 1410              		.cfi_offset 9, -12
 1411              		.cfi_offset 8, -8
 1412              		.cfi_offset 1, -4
 1413              		.cfi_def_cfa_offset 16
 461:C:/Users/stapi/OneDrive/Desktop/GD32VW553/V1_MQTT_OK/GD32VW55X_Wifi_BLE_SDK/GD32VW55x_RELEASE_V1.0.2/MSDK/ble/app\app_dev_mgr.c ****     dlist_t *pos, *n;
 1414              		.loc 1 461 5
 462:C:/Users/stapi/OneDrive/Desktop/GD32VW553/V1_MQTT_OK/GD32VW55X_Wifi_BLE_SDK/GD32VW55x_RELEASE_V1.0.2/MSDK/ble/app\app_dev_mgr.c ****     ble_device_t *p_device;
 1415              		.loc 1 462 5
 463:C:/Users/stapi/OneDrive/Desktop/GD32VW553/V1_MQTT_OK/GD32VW55X_Wifi_BLE_SDK/GD32VW55x_RELEASE_V1.0.2/MSDK/ble/app\app_dev_mgr.c ****     uint8_t i, num = BLE_PEER_NUM_MAX;
 1416              		.loc 1 463 5
 464:C:/Users/stapi/OneDrive/Desktop/GD32VW553/V1_MQTT_OK/GD32VW55X_Wifi_BLE_SDK/GD32VW55x_RELEASE_V1.0.2/MSDK/ble/app\app_dev_mgr.c ****     ble_gap_addr_t addr_array[BLE_PEER_NUM_MAX];
 465:C:/Users/stapi/OneDrive/Desktop/GD32VW553/V1_MQTT_OK/GD32VW55X_Wifi_BLE_SDK/GD32VW55x_RELEASE_V1.0.2/MSDK/ble/app\app_dev_mgr.c **** 
 466:C:/Users/stapi/OneDrive/Desktop/GD32VW553/V1_MQTT_OK/GD32VW55X_Wifi_BLE_SDK/GD32VW55x_RELEASE_V1.0.2/MSDK/ble/app\app_dev_mgr.c ****     if (list_empty(&device_mgr.sec_dev_list)) {
 1417              		.loc 1 466 9 is_stmt 0
 1418 0008 37040000 		lui	s0,%hi(.LANCHOR0)
 460:C:/Users/stapi/OneDrive/Desktop/GD32VW553/V1_MQTT_OK/GD32VW55X_Wifi_BLE_SDK/GD32VW55x_RELEASE_V1.0.2/MSDK/ble/app\app_dev_mgr.c ****     dlist_t *pos, *n;
 1419              		.loc 1 460 1
 1420 000c 5D71     		addi	sp,sp,-80
 1421              		.cfi_def_cfa_offset 96
 463:C:/Users/stapi/OneDrive/Desktop/GD32VW553/V1_MQTT_OK/GD32VW55X_Wifi_BLE_SDK/GD32VW55x_RELEASE_V1.0.2/MSDK/ble/app\app_dev_mgr.c ****     uint8_t i, num = BLE_PEER_NUM_MAX;
 1422              		.loc 1 463 16
 1423 000e A147     		li	a5,8
 1424              		.loc 1 466 9
 1425 0010 13050400 		addi	a0,s0,%lo(.LANCHOR0)
 463:C:/Users/stapi/OneDrive/Desktop/GD32VW553/V1_MQTT_OK/GD32VW55X_Wifi_BLE_SDK/GD32VW55x_RELEASE_V1.0.2/MSDK/ble/app\app_dev_mgr.c ****     uint8_t i, num = BLE_PEER_NUM_MAX;
 1426              		.loc 1 463 16
 1427 0014 A30BF100 		sb	a5,23(sp)
 464:C:/Users/stapi/OneDrive/Desktop/GD32VW553/V1_MQTT_OK/GD32VW55X_Wifi_BLE_SDK/GD32VW55x_RELEASE_V1.0.2/MSDK/ble/app\app_dev_mgr.c ****     ble_gap_addr_t addr_array[BLE_PEER_NUM_MAX];
 1428              		.loc 1 464 5 is_stmt 1
 1429              		.loc 1 466 5
 1430              		.loc 1 466 9 is_stmt 0
 1431 0018 97000000 		call	list_empty
 1431      E7800000 
 1432              	.LVL148:
 1433              		.loc 1 466 8
 1434 0020 19ED     		bne	a0,zero,.L148
 1435 0022 13040400 		addi	s0,s0,%lo(.LANCHOR0)
 467:C:/Users/stapi/OneDrive/Desktop/GD32VW553/V1_MQTT_OK/GD32VW55X_Wifi_BLE_SDK/GD32VW55x_RELEASE_V1.0.2/MSDK/ble/app\app_dev_mgr.c ****         return;
 468:C:/Users/stapi/OneDrive/Desktop/GD32VW553/V1_MQTT_OK/GD32VW55X_Wifi_BLE_SDK/GD32VW55x_RELEASE_V1.0.2/MSDK/ble/app\app_dev_mgr.c ****     }
 469:C:/Users/stapi/OneDrive/Desktop/GD32VW553/V1_MQTT_OK/GD32VW55X_Wifi_BLE_SDK/GD32VW55x_RELEASE_V1.0.2/MSDK/ble/app\app_dev_mgr.c **** 
 470:C:/Users/stapi/OneDrive/Desktop/GD32VW553/V1_MQTT_OK/GD32VW55X_Wifi_BLE_SDK/GD32VW55x_RELEASE_V1.0.2/MSDK/ble/app\app_dev_mgr.c ****     list_for_each_safe(pos, n, &device_mgr.sec_dev_list) {
 1436              		.loc 1 470 5 is_stmt 1
 1437 0026 0840     		lw	a0,0(s0)
 1438              	.LVL149:
 1439 0028 0441     		lw	s1,0(a0)
 1440              	.LVL150:
 1441              	.L150:
 1442              		.loc 1 470 5 discriminator 1
 1443 002a 631F8500 		bne	a0,s0,.L151
 471:C:/Users/stapi/OneDrive/Desktop/GD32VW553/V1_MQTT_OK/GD32VW55X_Wifi_BLE_SDK/GD32VW55x_RELEASE_V1.0.2/MSDK/ble/app\app_dev_mgr.c ****         p_device = list_entry(pos, ble_device_t, list);
 472:C:/Users/stapi/OneDrive/Desktop/GD32VW553/V1_MQTT_OK/GD32VW55X_Wifi_BLE_SDK/GD32VW55x_RELEASE_V1.0.2/MSDK/ble/app\app_dev_mgr.c ****         list_del(&p_device->list);
 473:C:/Users/stapi/OneDrive/Desktop/GD32VW553/V1_MQTT_OK/GD32VW55X_Wifi_BLE_SDK/GD32VW55x_RELEASE_V1.0.2/MSDK/ble/app\app_dev_mgr.c ****         sys_mfree(p_device);
 474:C:/Users/stapi/OneDrive/Desktop/GD32VW553/V1_MQTT_OK/GD32VW55X_Wifi_BLE_SDK/GD32VW55x_RELEASE_V1.0.2/MSDK/ble/app\app_dev_mgr.c ****     }
 475:C:/Users/stapi/OneDrive/Desktop/GD32VW553/V1_MQTT_OK/GD32VW55X_Wifi_BLE_SDK/GD32VW55x_RELEASE_V1.0.2/MSDK/ble/app\app_dev_mgr.c **** 
 476:C:/Users/stapi/OneDrive/Desktop/GD32VW553/V1_MQTT_OK/GD32VW55X_Wifi_BLE_SDK/GD32VW55x_RELEASE_V1.0.2/MSDK/ble/app\app_dev_mgr.c ****     //load bonded information
 477:C:/Users/stapi/OneDrive/Desktop/GD32VW553/V1_MQTT_OK/GD32VW55X_Wifi_BLE_SDK/GD32VW55x_RELEASE_V1.0.2/MSDK/ble/app\app_dev_mgr.c ****     if (ble_peer_all_addr_get(&num, addr_array) == BLE_ERR_NO_ERROR) {
 1444              		.loc 1 477 5
 1445              		.loc 1 477 9 is_stmt 0
 1446 002e 2C08     		addi	a1,sp,24
 1447 0030 13057101 		addi	a0,sp,23
 1448              	.LVL151:
 1449 0034 97000000 		call	ble_peer_all_addr_get
 1449      E7800000 
 1450              	.LVL152:
 1451              		.loc 1 477 8
 1452 003c 3DC9     		beq	a0,zero,.L156
 1453              	.LVL153:
 1454              	.L148:
 478:C:/Users/stapi/OneDrive/Desktop/GD32VW553/V1_MQTT_OK/GD32VW55X_Wifi_BLE_SDK/GD32VW55x_RELEASE_V1.0.2/MSDK/ble/app\app_dev_mgr.c ****         for (i = 0; i < num; i++) {
 479:C:/Users/stapi/OneDrive/Desktop/GD32VW553/V1_MQTT_OK/GD32VW55X_Wifi_BLE_SDK/GD32VW55x_RELEASE_V1.0.2/MSDK/ble/app\app_dev_mgr.c ****             dm_alloc_dev_by_addr(addr_array[i]);
 480:C:/Users/stapi/OneDrive/Desktop/GD32VW553/V1_MQTT_OK/GD32VW55X_Wifi_BLE_SDK/GD32VW55x_RELEASE_V1.0.2/MSDK/ble/app\app_dev_mgr.c ****         }
 481:C:/Users/stapi/OneDrive/Desktop/GD32VW553/V1_MQTT_OK/GD32VW55X_Wifi_BLE_SDK/GD32VW55x_RELEASE_V1.0.2/MSDK/ble/app\app_dev_mgr.c ****     }
 482:C:/Users/stapi/OneDrive/Desktop/GD32VW553/V1_MQTT_OK/GD32VW55X_Wifi_BLE_SDK/GD32VW55x_RELEASE_V1.0.2/MSDK/ble/app\app_dev_mgr.c **** }
 1455              		.loc 1 482 1
 1456 003e 6161     		addi	sp,sp,80
 1457              		.cfi_remember_state
 1458              		.cfi_def_cfa_offset 0
 1459 0040 17030000 		tail	__riscv_restore_3
 1459      67000300 
 1460              		.cfi_restore 18
 1461              		.cfi_restore 9
 1462              		.cfi_restore 8
 1463              		.cfi_restore 1
 1464              		.cfi_def_cfa_offset -16
 1465              	.LVL154:
 1466              	.L151:
 1467              		.cfi_restore_state
 471:C:/Users/stapi/OneDrive/Desktop/GD32VW553/V1_MQTT_OK/GD32VW55X_Wifi_BLE_SDK/GD32VW55x_RELEASE_V1.0.2/MSDK/ble/app\app_dev_mgr.c ****         p_device = list_entry(pos, ble_device_t, list);
 1468              		.loc 1 471 9 is_stmt 1 discriminator 3
 472:C:/Users/stapi/OneDrive/Desktop/GD32VW553/V1_MQTT_OK/GD32VW55X_Wifi_BLE_SDK/GD32VW55x_RELEASE_V1.0.2/MSDK/ble/app\app_dev_mgr.c ****         sys_mfree(p_device);
 1469              		.loc 1 472 9 discriminator 3
 1470 0048 2AC6     		sw	a0,12(sp)
 1471 004a 97000000 		call	list_del
 1471      E7800000 
 1472              	.LVL155:
 473:C:/Users/stapi/OneDrive/Desktop/GD32VW553/V1_MQTT_OK/GD32VW55X_Wifi_BLE_SDK/GD32VW55x_RELEASE_V1.0.2/MSDK/ble/app\app_dev_mgr.c ****     }
 1473              		.loc 1 473 9 discriminator 3
 1474 0052 3245     		lw	a0,12(sp)
 1475 0054 97000000 		call	sys_mfree
 1475      E7800000 
 1476              	.LVL156:
 470:C:/Users/stapi/OneDrive/Desktop/GD32VW553/V1_MQTT_OK/GD32VW55X_Wifi_BLE_SDK/GD32VW55x_RELEASE_V1.0.2/MSDK/ble/app\app_dev_mgr.c ****         p_device = list_entry(pos, ble_device_t, list);
 1477              		.loc 1 470 5 discriminator 3
 1478 005c 2685     		mv	a0,s1
 1479 005e 8440     		lw	s1,0(s1)
 1480              	.LVL157:
 1481 0060 E9B7     		j	.L150
 1482              	.LVL158:
 1483              	.L154:
 479:C:/Users/stapi/OneDrive/Desktop/GD32VW553/V1_MQTT_OK/GD32VW55X_Wifi_BLE_SDK/GD32VW55x_RELEASE_V1.0.2/MSDK/ble/app\app_dev_mgr.c ****         }
 1484              		.loc 1 479 13 discriminator 3
 1485 0062 9C08     		addi	a5,sp,80
 1486 0064 FF1724C5 		maddr32	a5, s0, s2
 1487 0068 03C597FC 		lbu	a0,-55(a5)
 1488 006c 03C787FC 		lbu	a4,-56(a5)
 1489 0070 83C5D7FC 		lbu	a1,-51(a5)
 1490 0074 2205     		slli	a0,a0,8
 1491 0076 598D     		or	a0,a0,a4
 1492 0078 83C6C7FC 		lbu	a3,-52(a5)
 1493 007c 03C7A7FC 		lbu	a4,-54(a5)
 1494 0080 A205     		slli	a1,a1,8
 1495 0082 CD8E     		or	a3,a1,a3
 1496 0084 4207     		slli	a4,a4,16
 1497 0086 83C5E7FC 		lbu	a1,-50(a5)
 1498 008a 498F     		or	a4,a4,a0
 1499 008c 03C5B7FC 		lbu	a0,-53(a5)
 1500 0090 C205     		slli	a1,a1,16
 1501 0092 D58D     		or	a1,a1,a3
 1502 0094 6205     		slli	a0,a0,24
 1503 0096 598D     		or	a0,a0,a4
 1504 0098 E58D     		and	a1,a1,s1
 478:C:/Users/stapi/OneDrive/Desktop/GD32VW553/V1_MQTT_OK/GD32VW55X_Wifi_BLE_SDK/GD32VW55x_RELEASE_V1.0.2/MSDK/ble/app\app_dev_mgr.c ****             dm_alloc_dev_by_addr(addr_array[i]);
 1505              		.loc 1 478 31 is_stmt 0 discriminator 3
 1506 009a 0504     		addi	s0,s0,1
 1507              	.LVL159:
 479:C:/Users/stapi/OneDrive/Desktop/GD32VW553/V1_MQTT_OK/GD32VW55X_Wifi_BLE_SDK/GD32VW55x_RELEASE_V1.0.2/MSDK/ble/app\app_dev_mgr.c ****         }
 1508              		.loc 1 479 13 discriminator 3
 1509 009c 97000000 		call	dm_alloc_dev_by_addr
 1509      E7800000 
 1510              	.LVL160:
 478:C:/Users/stapi/OneDrive/Desktop/GD32VW553/V1_MQTT_OK/GD32VW55X_Wifi_BLE_SDK/GD32VW55x_RELEASE_V1.0.2/MSDK/ble/app\app_dev_mgr.c ****             dm_alloc_dev_by_addr(addr_array[i]);
 1511              		.loc 1 478 30 is_stmt 1 discriminator 3
 478:C:/Users/stapi/OneDrive/Desktop/GD32VW553/V1_MQTT_OK/GD32VW55X_Wifi_BLE_SDK/GD32VW55x_RELEASE_V1.0.2/MSDK/ble/app\app_dev_mgr.c ****             dm_alloc_dev_by_addr(addr_array[i]);
 1512              		.loc 1 478 31 is_stmt 0 discriminator 3
 1513 00a4 1374F40F 		andi	s0,s0,0xff
 1514              	.LVL161:
 1515              	.L152:
 478:C:/Users/stapi/OneDrive/Desktop/GD32VW553/V1_MQTT_OK/GD32VW55X_Wifi_BLE_SDK/GD32VW55x_RELEASE_V1.0.2/MSDK/ble/app\app_dev_mgr.c ****             dm_alloc_dev_by_addr(addr_array[i]);
 1516              		.loc 1 478 21 is_stmt 1 discriminator 1
 478:C:/Users/stapi/OneDrive/Desktop/GD32VW553/V1_MQTT_OK/GD32VW55X_Wifi_BLE_SDK/GD32VW55x_RELEASE_V1.0.2/MSDK/ble/app\app_dev_mgr.c ****             dm_alloc_dev_by_addr(addr_array[i]);
 1517              		.loc 1 478 9 is_stmt 0 discriminator 1
 1518 00a8 83477101 		lbu	a5,23(sp)
 1519 00ac E36BF4FA 		bgtu	a5,s0,.L154
 1520 00b0 79B7     		j	.L148
 1521              	.LVL162:
 1522              	.L156:
 479:C:/Users/stapi/OneDrive/Desktop/GD32VW553/V1_MQTT_OK/GD32VW55X_Wifi_BLE_SDK/GD32VW55x_RELEASE_V1.0.2/MSDK/ble/app\app_dev_mgr.c ****         }
 1523              		.loc 1 479 13
 1524 00b2 B7040001 		li	s1,16777216
 1525              	.LVL163:
 478:C:/Users/stapi/OneDrive/Desktop/GD32VW553/V1_MQTT_OK/GD32VW55X_Wifi_BLE_SDK/GD32VW55x_RELEASE_V1.0.2/MSDK/ble/app\app_dev_mgr.c ****             dm_alloc_dev_by_addr(addr_array[i]);
 1526              		.loc 1 478 16
 1527 00b6 0144     		li	s0,0
 479:C:/Users/stapi/OneDrive/Desktop/GD32VW553/V1_MQTT_OK/GD32VW55X_Wifi_BLE_SDK/GD32VW55x_RELEASE_V1.0.2/MSDK/ble/app\app_dev_mgr.c ****         }
 1528              		.loc 1 479 13
 1529 00b8 1D49     		li	s2,7
 1530 00ba FD14     		addi	s1,s1,-1
 1531 00bc F5B7     		j	.L152
 1532              		.cfi_endproc
 1533              	.LFE14:
 1535              		.section	.text.app_dm_init,"ax",@progbits
 1536              		.align	1
 1537              		.globl	app_dm_init
 1539              	app_dm_init:
 1540              	.LFB15:
 483:C:/Users/stapi/OneDrive/Desktop/GD32VW553/V1_MQTT_OK/GD32VW55X_Wifi_BLE_SDK/GD32VW55x_RELEASE_V1.0.2/MSDK/ble/app\app_dev_mgr.c **** 
 484:C:/Users/stapi/OneDrive/Desktop/GD32VW553/V1_MQTT_OK/GD32VW55X_Wifi_BLE_SDK/GD32VW55x_RELEASE_V1.0.2/MSDK/ble/app\app_dev_mgr.c **** /*!
 485:C:/Users/stapi/OneDrive/Desktop/GD32VW553/V1_MQTT_OK/GD32VW55X_Wifi_BLE_SDK/GD32VW55x_RELEASE_V1.0.2/MSDK/ble/app\app_dev_mgr.c ****     \brief      Init application device manager module
 486:C:/Users/stapi/OneDrive/Desktop/GD32VW553/V1_MQTT_OK/GD32VW55X_Wifi_BLE_SDK/GD32VW55x_RELEASE_V1.0.2/MSDK/ble/app\app_dev_mgr.c ****     \param[in]  none
 487:C:/Users/stapi/OneDrive/Desktop/GD32VW553/V1_MQTT_OK/GD32VW55X_Wifi_BLE_SDK/GD32VW55x_RELEASE_V1.0.2/MSDK/ble/app\app_dev_mgr.c ****     \param[out] none
 488:C:/Users/stapi/OneDrive/Desktop/GD32VW553/V1_MQTT_OK/GD32VW55X_Wifi_BLE_SDK/GD32VW55x_RELEASE_V1.0.2/MSDK/ble/app\app_dev_mgr.c ****     \retval     none
 489:C:/Users/stapi/OneDrive/Desktop/GD32VW553/V1_MQTT_OK/GD32VW55X_Wifi_BLE_SDK/GD32VW55x_RELEASE_V1.0.2/MSDK/ble/app\app_dev_mgr.c **** */
 490:C:/Users/stapi/OneDrive/Desktop/GD32VW553/V1_MQTT_OK/GD32VW55X_Wifi_BLE_SDK/GD32VW55x_RELEASE_V1.0.2/MSDK/ble/app\app_dev_mgr.c **** void app_dm_init(void)
 491:C:/Users/stapi/OneDrive/Desktop/GD32VW553/V1_MQTT_OK/GD32VW55X_Wifi_BLE_SDK/GD32VW55x_RELEASE_V1.0.2/MSDK/ble/app\app_dev_mgr.c **** {
 1541              		.loc 1 491 1 is_stmt 1
 1542              		.cfi_startproc
 1543 0000 17030000 		call	t0,__riscv_save_3
 1543      E7020300 
 1544              		.cfi_offset 18, -16
 1545              		.cfi_offset 9, -12
 1546              		.cfi_offset 8, -8
 1547              		.cfi_offset 1, -4
 1548              		.cfi_def_cfa_offset 16
 492:C:/Users/stapi/OneDrive/Desktop/GD32VW553/V1_MQTT_OK/GD32VW55X_Wifi_BLE_SDK/GD32VW55x_RELEASE_V1.0.2/MSDK/ble/app\app_dev_mgr.c ****     uint8_t i, num = BLE_PEER_NUM_MAX;
 1549              		.loc 1 492 5
 491:C:/Users/stapi/OneDrive/Desktop/GD32VW553/V1_MQTT_OK/GD32VW55X_Wifi_BLE_SDK/GD32VW55x_RELEASE_V1.0.2/MSDK/ble/app\app_dev_mgr.c ****     uint8_t i, num = BLE_PEER_NUM_MAX;
 1550              		.loc 1 491 1 is_stmt 0
 1551 0008 3971     		addi	sp,sp,-64
 1552              		.cfi_def_cfa_offset 80
 1553              		.loc 1 492 16
 1554 000a A147     		li	a5,8
 1555 000c A303F100 		sb	a5,7(sp)
 493:C:/Users/stapi/OneDrive/Desktop/GD32VW553/V1_MQTT_OK/GD32VW55X_Wifi_BLE_SDK/GD32VW55x_RELEASE_V1.0.2/MSDK/ble/app\app_dev_mgr.c ****     ble_gap_addr_t addr_array[BLE_PEER_NUM_MAX];
 1556              		.loc 1 493 5 is_stmt 1
 494:C:/Users/stapi/OneDrive/Desktop/GD32VW553/V1_MQTT_OK/GD32VW55X_Wifi_BLE_SDK/GD32VW55x_RELEASE_V1.0.2/MSDK/ble/app\app_dev_mgr.c ****     memset(&device_mgr, 0, sizeof(struct ble_dev_mgr));
 1557              		.loc 1 494 5
 495:C:/Users/stapi/OneDrive/Desktop/GD32VW553/V1_MQTT_OK/GD32VW55X_Wifi_BLE_SDK/GD32VW55x_RELEASE_V1.0.2/MSDK/ble/app\app_dev_mgr.c ****     INIT_DLIST_HEAD(&device_mgr.sec_dev_list);
 1558              		.loc 1 495 5
 1559              		.loc 1 495 5
 1560 0010 B7070000 		lui	a5,%hi(.LANCHOR0)
 1561 0014 93870700 		addi	a5,a5,%lo(.LANCHOR0)
 496:C:/Users/stapi/OneDrive/Desktop/GD32VW553/V1_MQTT_OK/GD32VW55X_Wifi_BLE_SDK/GD32VW55x_RELEASE_V1.0.2/MSDK/ble/app\app_dev_mgr.c **** 
 497:C:/Users/stapi/OneDrive/Desktop/GD32VW553/V1_MQTT_OK/GD32VW55X_Wifi_BLE_SDK/GD32VW55x_RELEASE_V1.0.2/MSDK/ble/app\app_dev_mgr.c ****     //load bonded information
 498:C:/Users/stapi/OneDrive/Desktop/GD32VW553/V1_MQTT_OK/GD32VW55X_Wifi_BLE_SDK/GD32VW55x_RELEASE_V1.0.2/MSDK/ble/app\app_dev_mgr.c ****     if (ble_peer_all_addr_get(&num, addr_array) == BLE_ERR_NO_ERROR) {
 1562              		.loc 1 498 9 is_stmt 0
 1563 0018 2C00     		addi	a1,sp,8
 1564 001a 13057100 		addi	a0,sp,7
 495:C:/Users/stapi/OneDrive/Desktop/GD32VW553/V1_MQTT_OK/GD32VW55X_Wifi_BLE_SDK/GD32VW55x_RELEASE_V1.0.2/MSDK/ble/app\app_dev_mgr.c ****     INIT_DLIST_HEAD(&device_mgr.sec_dev_list);
 1565              		.loc 1 495 5
 1566 001e 9CC3     		sw	a5,0(a5)
 495:C:/Users/stapi/OneDrive/Desktop/GD32VW553/V1_MQTT_OK/GD32VW55X_Wifi_BLE_SDK/GD32VW55x_RELEASE_V1.0.2/MSDK/ble/app\app_dev_mgr.c ****     INIT_DLIST_HEAD(&device_mgr.sec_dev_list);
 1567              		.loc 1 495 5 is_stmt 1
 1568 0020 DCC3     		sw	a5,4(a5)
 495:C:/Users/stapi/OneDrive/Desktop/GD32VW553/V1_MQTT_OK/GD32VW55X_Wifi_BLE_SDK/GD32VW55x_RELEASE_V1.0.2/MSDK/ble/app\app_dev_mgr.c ****     INIT_DLIST_HEAD(&device_mgr.sec_dev_list);
 1569              		.loc 1 495 5
 1570              		.loc 1 498 5
 1571              		.loc 1 498 9 is_stmt 0
 1572 0022 97000000 		call	ble_peer_all_addr_get
 1572      E7800000 
 1573              	.LVL164:
 1574              		.loc 1 498 8
 1575 002a 31CD     		beq	a0,zero,.L162
 1576              	.L158:
 499:C:/Users/stapi/OneDrive/Desktop/GD32VW553/V1_MQTT_OK/GD32VW55X_Wifi_BLE_SDK/GD32VW55x_RELEASE_V1.0.2/MSDK/ble/app\app_dev_mgr.c ****         for (i = 0; i < num; i++) {
 500:C:/Users/stapi/OneDrive/Desktop/GD32VW553/V1_MQTT_OK/GD32VW55X_Wifi_BLE_SDK/GD32VW55x_RELEASE_V1.0.2/MSDK/ble/app\app_dev_mgr.c ****             dm_alloc_dev_by_addr(addr_array[i]);
 501:C:/Users/stapi/OneDrive/Desktop/GD32VW553/V1_MQTT_OK/GD32VW55X_Wifi_BLE_SDK/GD32VW55x_RELEASE_V1.0.2/MSDK/ble/app\app_dev_mgr.c ****         }
 502:C:/Users/stapi/OneDrive/Desktop/GD32VW553/V1_MQTT_OK/GD32VW55X_Wifi_BLE_SDK/GD32VW55x_RELEASE_V1.0.2/MSDK/ble/app\app_dev_mgr.c ****     }
 503:C:/Users/stapi/OneDrive/Desktop/GD32VW553/V1_MQTT_OK/GD32VW55X_Wifi_BLE_SDK/GD32VW55x_RELEASE_V1.0.2/MSDK/ble/app\app_dev_mgr.c **** }
 1577              		.loc 1 503 1
 1578 002c 2161     		addi	sp,sp,64
 1579              		.cfi_remember_state
 1580              		.cfi_def_cfa_offset 0
 1581 002e 17030000 		tail	__riscv_restore_3
 1581      67000300 
 1582              		.cfi_restore 18
 1583              		.cfi_restore 9
 1584              		.cfi_restore 8
 1585              		.cfi_restore 1
 1586              		.cfi_def_cfa_offset -16
 1587              	.LVL165:
 1588              	.L160:
 1589              		.cfi_restore_state
 500:C:/Users/stapi/OneDrive/Desktop/GD32VW553/V1_MQTT_OK/GD32VW55X_Wifi_BLE_SDK/GD32VW55x_RELEASE_V1.0.2/MSDK/ble/app\app_dev_mgr.c ****         }
 1590              		.loc 1 500 13 is_stmt 1 discriminator 3
 1591 0036 9C00     		addi	a5,sp,64
 1592 0038 FF1724C5 		maddr32	a5, s0, s2
 1593 003c 03C597FC 		lbu	a0,-55(a5)
 1594 0040 03C787FC 		lbu	a4,-56(a5)
 1595 0044 83C5D7FC 		lbu	a1,-51(a5)
 1596 0048 2205     		slli	a0,a0,8
 1597 004a 598D     		or	a0,a0,a4
 1598 004c 83C6C7FC 		lbu	a3,-52(a5)
 1599 0050 03C7A7FC 		lbu	a4,-54(a5)
 1600 0054 A205     		slli	a1,a1,8
 1601 0056 CD8E     		or	a3,a1,a3
 1602 0058 4207     		slli	a4,a4,16
 1603 005a 83C5E7FC 		lbu	a1,-50(a5)
 1604 005e 498F     		or	a4,a4,a0
 1605 0060 03C5B7FC 		lbu	a0,-53(a5)
 1606 0064 C205     		slli	a1,a1,16
 1607 0066 D58D     		or	a1,a1,a3
 1608 0068 6205     		slli	a0,a0,24
 1609 006a 598D     		or	a0,a0,a4
 1610 006c E58D     		and	a1,a1,s1
 499:C:/Users/stapi/OneDrive/Desktop/GD32VW553/V1_MQTT_OK/GD32VW55X_Wifi_BLE_SDK/GD32VW55x_RELEASE_V1.0.2/MSDK/ble/app\app_dev_mgr.c ****         for (i = 0; i < num; i++) {
 1611              		.loc 1 499 31 is_stmt 0 discriminator 3
 1612 006e 0504     		addi	s0,s0,1
 1613              	.LVL166:
 500:C:/Users/stapi/OneDrive/Desktop/GD32VW553/V1_MQTT_OK/GD32VW55X_Wifi_BLE_SDK/GD32VW55x_RELEASE_V1.0.2/MSDK/ble/app\app_dev_mgr.c ****         }
 1614              		.loc 1 500 13 discriminator 3
 1615 0070 97000000 		call	dm_alloc_dev_by_addr
 1615      E7800000 
 1616              	.LVL167:
 499:C:/Users/stapi/OneDrive/Desktop/GD32VW553/V1_MQTT_OK/GD32VW55X_Wifi_BLE_SDK/GD32VW55x_RELEASE_V1.0.2/MSDK/ble/app\app_dev_mgr.c ****         for (i = 0; i < num; i++) {
 1617              		.loc 1 499 30 is_stmt 1 discriminator 3
 499:C:/Users/stapi/OneDrive/Desktop/GD32VW553/V1_MQTT_OK/GD32VW55X_Wifi_BLE_SDK/GD32VW55x_RELEASE_V1.0.2/MSDK/ble/app\app_dev_mgr.c ****         for (i = 0; i < num; i++) {
 1618              		.loc 1 499 31 is_stmt 0 discriminator 3
 1619 0078 1374F40F 		andi	s0,s0,0xff
 1620              	.LVL168:
 1621              	.L159:
 499:C:/Users/stapi/OneDrive/Desktop/GD32VW553/V1_MQTT_OK/GD32VW55X_Wifi_BLE_SDK/GD32VW55x_RELEASE_V1.0.2/MSDK/ble/app\app_dev_mgr.c ****         for (i = 0; i < num; i++) {
 1622              		.loc 1 499 21 is_stmt 1 discriminator 1
 499:C:/Users/stapi/OneDrive/Desktop/GD32VW553/V1_MQTT_OK/GD32VW55X_Wifi_BLE_SDK/GD32VW55x_RELEASE_V1.0.2/MSDK/ble/app\app_dev_mgr.c ****         for (i = 0; i < num; i++) {
 1623              		.loc 1 499 9 is_stmt 0 discriminator 1
 1624 007c 83477100 		lbu	a5,7(sp)
 1625 0080 E36BF4FA 		bgtu	a5,s0,.L160
 1626 0084 65B7     		j	.L158
 1627              	.LVL169:
 1628              	.L162:
 500:C:/Users/stapi/OneDrive/Desktop/GD32VW553/V1_MQTT_OK/GD32VW55X_Wifi_BLE_SDK/GD32VW55x_RELEASE_V1.0.2/MSDK/ble/app\app_dev_mgr.c ****         }
 1629              		.loc 1 500 13
 1630 0086 B7040001 		li	s1,16777216
 499:C:/Users/stapi/OneDrive/Desktop/GD32VW553/V1_MQTT_OK/GD32VW55X_Wifi_BLE_SDK/GD32VW55x_RELEASE_V1.0.2/MSDK/ble/app\app_dev_mgr.c ****         for (i = 0; i < num; i++) {
 1631              		.loc 1 499 16
 1632 008a 0144     		li	s0,0
 500:C:/Users/stapi/OneDrive/Desktop/GD32VW553/V1_MQTT_OK/GD32VW55X_Wifi_BLE_SDK/GD32VW55x_RELEASE_V1.0.2/MSDK/ble/app\app_dev_mgr.c ****         }
 1633              		.loc 1 500 13
 1634 008c 1D49     		li	s2,7
 1635 008e FD14     		addi	s1,s1,-1
 1636 0090 F5B7     		j	.L159
 1637              		.cfi_endproc
 1638              	.LFE15:
 1640              		.section	.text.app_dm_deinit,"ax",@progbits
 1641              		.align	1
 1642              		.globl	app_dm_deinit
 1644              	app_dm_deinit:
 1645              	.LFB16:
 504:C:/Users/stapi/OneDrive/Desktop/GD32VW553/V1_MQTT_OK/GD32VW55X_Wifi_BLE_SDK/GD32VW55x_RELEASE_V1.0.2/MSDK/ble/app\app_dev_mgr.c **** 
 505:C:/Users/stapi/OneDrive/Desktop/GD32VW553/V1_MQTT_OK/GD32VW55X_Wifi_BLE_SDK/GD32VW55x_RELEASE_V1.0.2/MSDK/ble/app\app_dev_mgr.c **** /*!
 506:C:/Users/stapi/OneDrive/Desktop/GD32VW553/V1_MQTT_OK/GD32VW55X_Wifi_BLE_SDK/GD32VW55x_RELEASE_V1.0.2/MSDK/ble/app\app_dev_mgr.c ****     \brief      Deinit application device manager module
 507:C:/Users/stapi/OneDrive/Desktop/GD32VW553/V1_MQTT_OK/GD32VW55X_Wifi_BLE_SDK/GD32VW55x_RELEASE_V1.0.2/MSDK/ble/app\app_dev_mgr.c ****     \param[in]  none
 508:C:/Users/stapi/OneDrive/Desktop/GD32VW553/V1_MQTT_OK/GD32VW55X_Wifi_BLE_SDK/GD32VW55x_RELEASE_V1.0.2/MSDK/ble/app\app_dev_mgr.c ****     \param[out] none
 509:C:/Users/stapi/OneDrive/Desktop/GD32VW553/V1_MQTT_OK/GD32VW55X_Wifi_BLE_SDK/GD32VW55x_RELEASE_V1.0.2/MSDK/ble/app\app_dev_mgr.c ****     \retval     none
 510:C:/Users/stapi/OneDrive/Desktop/GD32VW553/V1_MQTT_OK/GD32VW55X_Wifi_BLE_SDK/GD32VW55x_RELEASE_V1.0.2/MSDK/ble/app\app_dev_mgr.c **** */
 511:C:/Users/stapi/OneDrive/Desktop/GD32VW553/V1_MQTT_OK/GD32VW55X_Wifi_BLE_SDK/GD32VW55x_RELEASE_V1.0.2/MSDK/ble/app\app_dev_mgr.c **** void app_dm_deinit(void)
 512:C:/Users/stapi/OneDrive/Desktop/GD32VW553/V1_MQTT_OK/GD32VW55X_Wifi_BLE_SDK/GD32VW55x_RELEASE_V1.0.2/MSDK/ble/app\app_dev_mgr.c **** {
 1646              		.loc 1 512 1 is_stmt 1
 1647              		.cfi_startproc
 1648 0000 17030000 		call	t0,__riscv_save_2
 1648      E7020300 
 1649              		.cfi_offset 9, -12
 1650              		.cfi_offset 8, -8
 1651              		.cfi_offset 1, -4
 1652              		.cfi_def_cfa_offset 16
 513:C:/Users/stapi/OneDrive/Desktop/GD32VW553/V1_MQTT_OK/GD32VW55X_Wifi_BLE_SDK/GD32VW55x_RELEASE_V1.0.2/MSDK/ble/app\app_dev_mgr.c ****     dlist_t *pos, *n;
 1653              		.loc 1 513 5
 514:C:/Users/stapi/OneDrive/Desktop/GD32VW553/V1_MQTT_OK/GD32VW55X_Wifi_BLE_SDK/GD32VW55x_RELEASE_V1.0.2/MSDK/ble/app\app_dev_mgr.c ****     ble_device_t *p_device = NULL;
 1654              		.loc 1 514 5
 1655              	.LVL170:
 515:C:/Users/stapi/OneDrive/Desktop/GD32VW553/V1_MQTT_OK/GD32VW55X_Wifi_BLE_SDK/GD32VW55x_RELEASE_V1.0.2/MSDK/ble/app\app_dev_mgr.c **** 
 516:C:/Users/stapi/OneDrive/Desktop/GD32VW553/V1_MQTT_OK/GD32VW55X_Wifi_BLE_SDK/GD32VW55x_RELEASE_V1.0.2/MSDK/ble/app\app_dev_mgr.c ****     if (list_empty(&device_mgr.sec_dev_list)) {
 1656              		.loc 1 516 5
 1657              		.loc 1 516 9 is_stmt 0
 1658 0008 37040000 		lui	s0,%hi(.LANCHOR0)
 512:C:/Users/stapi/OneDrive/Desktop/GD32VW553/V1_MQTT_OK/GD32VW55X_Wifi_BLE_SDK/GD32VW55x_RELEASE_V1.0.2/MSDK/ble/app\app_dev_mgr.c ****     dlist_t *pos, *n;
 1659              		.loc 1 512 1
 1660 000c 4111     		addi	sp,sp,-16
 1661              		.cfi_def_cfa_offset 32
 1662              		.loc 1 516 9
 1663 000e 13050400 		addi	a0,s0,%lo(.LANCHOR0)
 1664 0012 97000000 		call	list_empty
 1664      E7800000 
 1665              	.LVL171:
 1666              		.loc 1 516 8
 1667 001a 19E5     		bne	a0,zero,.L164
 1668 001c 13040400 		addi	s0,s0,%lo(.LANCHOR0)
 517:C:/Users/stapi/OneDrive/Desktop/GD32VW553/V1_MQTT_OK/GD32VW55X_Wifi_BLE_SDK/GD32VW55x_RELEASE_V1.0.2/MSDK/ble/app\app_dev_mgr.c ****         return;
 518:C:/Users/stapi/OneDrive/Desktop/GD32VW553/V1_MQTT_OK/GD32VW55X_Wifi_BLE_SDK/GD32VW55x_RELEASE_V1.0.2/MSDK/ble/app\app_dev_mgr.c ****     }
 519:C:/Users/stapi/OneDrive/Desktop/GD32VW553/V1_MQTT_OK/GD32VW55X_Wifi_BLE_SDK/GD32VW55x_RELEASE_V1.0.2/MSDK/ble/app\app_dev_mgr.c **** 
 520:C:/Users/stapi/OneDrive/Desktop/GD32VW553/V1_MQTT_OK/GD32VW55X_Wifi_BLE_SDK/GD32VW55x_RELEASE_V1.0.2/MSDK/ble/app\app_dev_mgr.c ****     list_for_each_safe(pos, n, &device_mgr.sec_dev_list) {
 1669              		.loc 1 520 5 is_stmt 1
 1670 0020 0840     		lw	a0,0(s0)
 1671              	.LVL172:
 1672 0022 0441     		lw	s1,0(a0)
 1673              	.LVL173:
 1674              	.L166:
 1675              		.loc 1 520 5 discriminator 1
 1676 0024 63178500 		bne	a0,s0,.L167
 1677              	.LVL174:
 1678              	.L164:
 521:C:/Users/stapi/OneDrive/Desktop/GD32VW553/V1_MQTT_OK/GD32VW55X_Wifi_BLE_SDK/GD32VW55x_RELEASE_V1.0.2/MSDK/ble/app\app_dev_mgr.c ****         p_device = list_entry(pos, ble_device_t, list);
 522:C:/Users/stapi/OneDrive/Desktop/GD32VW553/V1_MQTT_OK/GD32VW55X_Wifi_BLE_SDK/GD32VW55x_RELEASE_V1.0.2/MSDK/ble/app\app_dev_mgr.c ****         list_del(&p_device->list);
 523:C:/Users/stapi/OneDrive/Desktop/GD32VW553/V1_MQTT_OK/GD32VW55X_Wifi_BLE_SDK/GD32VW55x_RELEASE_V1.0.2/MSDK/ble/app\app_dev_mgr.c ****         sys_mfree(p_device);
 524:C:/Users/stapi/OneDrive/Desktop/GD32VW553/V1_MQTT_OK/GD32VW55X_Wifi_BLE_SDK/GD32VW55x_RELEASE_V1.0.2/MSDK/ble/app\app_dev_mgr.c ****     }
 525:C:/Users/stapi/OneDrive/Desktop/GD32VW553/V1_MQTT_OK/GD32VW55X_Wifi_BLE_SDK/GD32VW55x_RELEASE_V1.0.2/MSDK/ble/app\app_dev_mgr.c **** }
 1679              		.loc 1 525 1 is_stmt 0
 1680 0028 4101     		addi	sp,sp,16
 1681              		.cfi_remember_state
 1682              		.cfi_def_cfa_offset 0
 1683 002a 17030000 		tail	__riscv_restore_2
 1683      67000300 
 1684              		.cfi_restore 9
 1685              		.cfi_restore 8
 1686              		.cfi_restore 1
 1687              		.cfi_def_cfa_offset -16
 1688              	.LVL175:
 1689              	.L167:
 1690              		.cfi_restore_state
 521:C:/Users/stapi/OneDrive/Desktop/GD32VW553/V1_MQTT_OK/GD32VW55X_Wifi_BLE_SDK/GD32VW55x_RELEASE_V1.0.2/MSDK/ble/app\app_dev_mgr.c ****         p_device = list_entry(pos, ble_device_t, list);
 1691              		.loc 1 521 9 is_stmt 1 discriminator 3
 522:C:/Users/stapi/OneDrive/Desktop/GD32VW553/V1_MQTT_OK/GD32VW55X_Wifi_BLE_SDK/GD32VW55x_RELEASE_V1.0.2/MSDK/ble/app\app_dev_mgr.c ****         sys_mfree(p_device);
 1692              		.loc 1 522 9 discriminator 3
 1693 0032 2AC6     		sw	a0,12(sp)
 1694 0034 97000000 		call	list_del
 1694      E7800000 
 1695              	.LVL176:
 523:C:/Users/stapi/OneDrive/Desktop/GD32VW553/V1_MQTT_OK/GD32VW55X_Wifi_BLE_SDK/GD32VW55x_RELEASE_V1.0.2/MSDK/ble/app\app_dev_mgr.c ****     }
 1696              		.loc 1 523 9 discriminator 3
 1697 003c 3245     		lw	a0,12(sp)
 1698 003e 97000000 		call	sys_mfree
 1698      E7800000 
 1699              	.LVL177:
 520:C:/Users/stapi/OneDrive/Desktop/GD32VW553/V1_MQTT_OK/GD32VW55X_Wifi_BLE_SDK/GD32VW55x_RELEASE_V1.0.2/MSDK/ble/app\app_dev_mgr.c ****         p_device = list_entry(pos, ble_device_t, list);
 1700              		.loc 1 520 5 discriminator 3
 1701 0046 2685     		mv	a0,s1
 1702 0048 8440     		lw	s1,0(s1)
 1703              	.LVL178:
 1704 004a E9BF     		j	.L166
 1705              		.cfi_endproc
 1706              	.LFE16:
 1708              		.section	.sbss.device_mgr,"aw",@nobits
 1709              		.align	2
 1710              		.set	.LANCHOR0,. + 0
 1713              	device_mgr:
 1714 0000 00000000 		.zero	8
 1714      00000000 
 1715              		.text
 1716              	.Letext0:
 1717              		.file 3 "c:\\users\\stapi\\onedrive\\desktop\\gd32vw553\\embeddedbuilder_v1.4.7.26843\\tools\\nucl
 1718              		.file 4 "c:\\users\\stapi\\onedrive\\desktop\\gd32vw553\\embeddedbuilder_v1.4.7.26843\\tools\\nucl
 1719              		.file 5 "..\\..\\..\\..\\blesw\\src\\export/ble_error.h"
 1720              		.file 6 "..\\..\\..\\..\\blesw\\src\\export/ble_gap.h"
 1721              		.file 7 "..\\..\\..\\..\\util\\include/dlist.h"
 1722              		.file 8 "C:/Users/stapi/OneDrive/Desktop/GD32VW553/V1_MQTT_OK/GD32VW55X_Wifi_BLE_SDK/GD32VW55x_REL
 1723              		.file 9 "C:/Users/stapi/OneDrive/Desktop/GD32VW553/V1_MQTT_OK/GD32VW55X_Wifi_BLE_SDK/GD32VW55x_REL
 1724              		.file 10 "..\\..\\..\\..\\util\\include/dbg_print.h"
 1725              		.file 11 "..\\..\\..\\..\\rtos\\rtos_wrapper/wrapper_os.h"
 1726              		.file 12 "..\\..\\..\\..\\blesw\\src\\export/ble_storage.h"
 1727              		.file 13 "..\\..\\..\\..\\util\\include/debug_print.h"
 1728              		.file 14 "c:\\users\\stapi\\onedrive\\desktop\\gd32vw553\\embeddedbuilder_v1.4.7.26843\\tools\\nuc
 1729              		.file 15 "<built-in>"