   1              		.file	"app_blue_courier_prot.c"
   2              		.option nopic
   3              		.attribute arch, "rv32i2p0_m2p0_a2p0_f2p0_c2p0_b_p0p94"
   4              		.attribute unaligned_access, 0
   5              		.attribute stack_align, 16
   6              		.text
   7              	.Ltext0:
   8              		.cfi_sections	.debug_frame
   9              		.section	.rodata.bcwp_cb_scan_fail.str1.4,"aMS",@progbits,1
  10              		.align	2
  11              	.LC0:
  12 0000 626C6520 		.string	"ble config wifi scan cb failed\r\n"
  12      636F6E66 
  12      69672077 
  12      69666920 
  12      7363616E 
  13              		.section	.text.bcwp_cb_scan_fail,"ax",@progbits
  14              		.align	1
  16              	bcwp_cb_scan_fail:
  17              	.LFB17:
  18              		.file 1 "C:/Users/stapi/OneDrive/Desktop/GD32VW553/V1_MQTT_OK/GD32VW55X_Wifi_BLE_SDK/GD32VW55x_REL
   1:C:/Users/stapi/OneDrive/Desktop/GD32VW553/V1_MQTT_OK/GD32VW55X_Wifi_BLE_SDK/GD32VW55x_RELEASE_V1.0.2/MSDK/ble/app\app_blue_courier_prot.c **** /*!
   2:C:/Users/stapi/OneDrive/Desktop/GD32VW553/V1_MQTT_OK/GD32VW55X_Wifi_BLE_SDK/GD32VW55x_RELEASE_V1.0.2/MSDK/ble/app\app_blue_courier_prot.c ****     \file    app_blue_courier_prot.c
   3:C:/Users/stapi/OneDrive/Desktop/GD32VW553/V1_MQTT_OK/GD32VW55X_Wifi_BLE_SDK/GD32VW55x_RELEASE_V1.0.2/MSDK/ble/app\app_blue_courier_prot.c ****     \brief   Implemetions of blue courier wifi protocol
   4:C:/Users/stapi/OneDrive/Desktop/GD32VW553/V1_MQTT_OK/GD32VW55X_Wifi_BLE_SDK/GD32VW55x_RELEASE_V1.0.2/MSDK/ble/app\app_blue_courier_prot.c **** 
   5:C:/Users/stapi/OneDrive/Desktop/GD32VW553/V1_MQTT_OK/GD32VW55X_Wifi_BLE_SDK/GD32VW55x_RELEASE_V1.0.2/MSDK/ble/app\app_blue_courier_prot.c ****     \version 2023-07-20, V1.0.0, firmware for GD32VW55x
   6:C:/Users/stapi/OneDrive/Desktop/GD32VW553/V1_MQTT_OK/GD32VW55X_Wifi_BLE_SDK/GD32VW55x_RELEASE_V1.0.2/MSDK/ble/app\app_blue_courier_prot.c **** */
   7:C:/Users/stapi/OneDrive/Desktop/GD32VW553/V1_MQTT_OK/GD32VW55X_Wifi_BLE_SDK/GD32VW55x_RELEASE_V1.0.2/MSDK/ble/app\app_blue_courier_prot.c **** 
   8:C:/Users/stapi/OneDrive/Desktop/GD32VW553/V1_MQTT_OK/GD32VW55X_Wifi_BLE_SDK/GD32VW55x_RELEASE_V1.0.2/MSDK/ble/app\app_blue_courier_prot.c **** /*
   9:C:/Users/stapi/OneDrive/Desktop/GD32VW553/V1_MQTT_OK/GD32VW55X_Wifi_BLE_SDK/GD32VW55x_RELEASE_V1.0.2/MSDK/ble/app\app_blue_courier_prot.c ****     Copyright (c) 2023, GigaDevice Semiconductor Inc.
  10:C:/Users/stapi/OneDrive/Desktop/GD32VW553/V1_MQTT_OK/GD32VW55X_Wifi_BLE_SDK/GD32VW55x_RELEASE_V1.0.2/MSDK/ble/app\app_blue_courier_prot.c **** 
  11:C:/Users/stapi/OneDrive/Desktop/GD32VW553/V1_MQTT_OK/GD32VW55X_Wifi_BLE_SDK/GD32VW55x_RELEASE_V1.0.2/MSDK/ble/app\app_blue_courier_prot.c ****     Redistribution and use in source and binary forms, with or without modification,
  12:C:/Users/stapi/OneDrive/Desktop/GD32VW553/V1_MQTT_OK/GD32VW55X_Wifi_BLE_SDK/GD32VW55x_RELEASE_V1.0.2/MSDK/ble/app\app_blue_courier_prot.c **** are permitted provided that the following conditions are met:
  13:C:/Users/stapi/OneDrive/Desktop/GD32VW553/V1_MQTT_OK/GD32VW55X_Wifi_BLE_SDK/GD32VW55x_RELEASE_V1.0.2/MSDK/ble/app\app_blue_courier_prot.c **** 
  14:C:/Users/stapi/OneDrive/Desktop/GD32VW553/V1_MQTT_OK/GD32VW55X_Wifi_BLE_SDK/GD32VW55x_RELEASE_V1.0.2/MSDK/ble/app\app_blue_courier_prot.c ****     1. Redistributions of source code must retain the above copyright notice, this
  15:C:/Users/stapi/OneDrive/Desktop/GD32VW553/V1_MQTT_OK/GD32VW55X_Wifi_BLE_SDK/GD32VW55x_RELEASE_V1.0.2/MSDK/ble/app\app_blue_courier_prot.c ****        list of conditions and the following disclaimer.
  16:C:/Users/stapi/OneDrive/Desktop/GD32VW553/V1_MQTT_OK/GD32VW55X_Wifi_BLE_SDK/GD32VW55x_RELEASE_V1.0.2/MSDK/ble/app\app_blue_courier_prot.c ****     2. Redistributions in binary form must reproduce the above copyright notice,
  17:C:/Users/stapi/OneDrive/Desktop/GD32VW553/V1_MQTT_OK/GD32VW55X_Wifi_BLE_SDK/GD32VW55x_RELEASE_V1.0.2/MSDK/ble/app\app_blue_courier_prot.c ****        this list of conditions and the following disclaimer in the documentation
  18:C:/Users/stapi/OneDrive/Desktop/GD32VW553/V1_MQTT_OK/GD32VW55X_Wifi_BLE_SDK/GD32VW55x_RELEASE_V1.0.2/MSDK/ble/app\app_blue_courier_prot.c ****        and/or other materials provided with the distribution.
  19:C:/Users/stapi/OneDrive/Desktop/GD32VW553/V1_MQTT_OK/GD32VW55X_Wifi_BLE_SDK/GD32VW55x_RELEASE_V1.0.2/MSDK/ble/app\app_blue_courier_prot.c ****     3. Neither the name of the copyright holder nor the names of its contributors
  20:C:/Users/stapi/OneDrive/Desktop/GD32VW553/V1_MQTT_OK/GD32VW55X_Wifi_BLE_SDK/GD32VW55x_RELEASE_V1.0.2/MSDK/ble/app\app_blue_courier_prot.c ****        may be used to endorse or promote products derived from this software without
  21:C:/Users/stapi/OneDrive/Desktop/GD32VW553/V1_MQTT_OK/GD32VW55X_Wifi_BLE_SDK/GD32VW55x_RELEASE_V1.0.2/MSDK/ble/app\app_blue_courier_prot.c ****        specific prior written permission.
  22:C:/Users/stapi/OneDrive/Desktop/GD32VW553/V1_MQTT_OK/GD32VW55X_Wifi_BLE_SDK/GD32VW55x_RELEASE_V1.0.2/MSDK/ble/app\app_blue_courier_prot.c **** 
  23:C:/Users/stapi/OneDrive/Desktop/GD32VW553/V1_MQTT_OK/GD32VW55X_Wifi_BLE_SDK/GD32VW55x_RELEASE_V1.0.2/MSDK/ble/app\app_blue_courier_prot.c ****     THIS SOFTWARE IS PROVIDED BY THE COPYRIGHT HOLDERS AND CONTRIBUTORS "AS IS"
  24:C:/Users/stapi/OneDrive/Desktop/GD32VW553/V1_MQTT_OK/GD32VW55X_Wifi_BLE_SDK/GD32VW55x_RELEASE_V1.0.2/MSDK/ble/app\app_blue_courier_prot.c **** AND ANY EXPRESS OR IMPLIED WARRANTIES, INCLUDING, BUT NOT LIMITED TO, THE IMPLIED
  25:C:/Users/stapi/OneDrive/Desktop/GD32VW553/V1_MQTT_OK/GD32VW55X_Wifi_BLE_SDK/GD32VW55x_RELEASE_V1.0.2/MSDK/ble/app\app_blue_courier_prot.c **** WARRANTIES OF MERCHANTABILITY AND FITNESS FOR A PARTICULAR PURPOSE ARE DISCLAIMED.
  26:C:/Users/stapi/OneDrive/Desktop/GD32VW553/V1_MQTT_OK/GD32VW55X_Wifi_BLE_SDK/GD32VW55x_RELEASE_V1.0.2/MSDK/ble/app\app_blue_courier_prot.c **** IN NO EVENT SHALL THE COPYRIGHT HOLDER OR CONTRIBUTORS BE LIABLE FOR ANY DIRECT,
  27:C:/Users/stapi/OneDrive/Desktop/GD32VW553/V1_MQTT_OK/GD32VW55X_Wifi_BLE_SDK/GD32VW55x_RELEASE_V1.0.2/MSDK/ble/app\app_blue_courier_prot.c **** INDIRECT, INCIDENTAL, SPECIAL, EXEMPLARY, OR CONSEQUENTIAL DAMAGES (INCLUDING, BUT
  28:C:/Users/stapi/OneDrive/Desktop/GD32VW553/V1_MQTT_OK/GD32VW55X_Wifi_BLE_SDK/GD32VW55x_RELEASE_V1.0.2/MSDK/ble/app\app_blue_courier_prot.c **** NOT LIMITED TO, PROCUREMENT OF SUBSTITUTE GOODS OR SERVICES; LOSS OF USE, DATA, OR
  29:C:/Users/stapi/OneDrive/Desktop/GD32VW553/V1_MQTT_OK/GD32VW55X_Wifi_BLE_SDK/GD32VW55x_RELEASE_V1.0.2/MSDK/ble/app\app_blue_courier_prot.c **** PROFITS; OR BUSINESS INTERRUPTION) HOWEVER CAUSED AND ON ANY THEORY OF LIABILITY,
  30:C:/Users/stapi/OneDrive/Desktop/GD32VW553/V1_MQTT_OK/GD32VW55X_Wifi_BLE_SDK/GD32VW55x_RELEASE_V1.0.2/MSDK/ble/app\app_blue_courier_prot.c **** WHETHER IN CONTRACT, STRICT LIABILITY, OR TORT (INCLUDING NEGLIGENCE OR OTHERWISE)
  31:C:/Users/stapi/OneDrive/Desktop/GD32VW553/V1_MQTT_OK/GD32VW55X_Wifi_BLE_SDK/GD32VW55x_RELEASE_V1.0.2/MSDK/ble/app\app_blue_courier_prot.c **** ARISING IN ANY WAY OUT OF THE USE OF THIS SOFTWARE, EVEN IF ADVISED OF THE POSSIBILITY
  32:C:/Users/stapi/OneDrive/Desktop/GD32VW553/V1_MQTT_OK/GD32VW55X_Wifi_BLE_SDK/GD32VW55x_RELEASE_V1.0.2/MSDK/ble/app\app_blue_courier_prot.c **** OF SUCH DAMAGE.
  33:C:/Users/stapi/OneDrive/Desktop/GD32VW553/V1_MQTT_OK/GD32VW55X_Wifi_BLE_SDK/GD32VW55x_RELEASE_V1.0.2/MSDK/ble/app\app_blue_courier_prot.c **** */
  34:C:/Users/stapi/OneDrive/Desktop/GD32VW553/V1_MQTT_OK/GD32VW55X_Wifi_BLE_SDK/GD32VW55x_RELEASE_V1.0.2/MSDK/ble/app\app_blue_courier_prot.c **** 
  35:C:/Users/stapi/OneDrive/Desktop/GD32VW553/V1_MQTT_OK/GD32VW55X_Wifi_BLE_SDK/GD32VW55x_RELEASE_V1.0.2/MSDK/ble/app\app_blue_courier_prot.c **** #include "ble_app_config.h"
  36:C:/Users/stapi/OneDrive/Desktop/GD32VW553/V1_MQTT_OK/GD32VW55X_Wifi_BLE_SDK/GD32VW55x_RELEASE_V1.0.2/MSDK/ble/app\app_blue_courier_prot.c **** 
  37:C:/Users/stapi/OneDrive/Desktop/GD32VW553/V1_MQTT_OK/GD32VW55X_Wifi_BLE_SDK/GD32VW55x_RELEASE_V1.0.2/MSDK/ble/app\app_blue_courier_prot.c **** #if (BLE_APP_SUPPORT)
  38:C:/Users/stapi/OneDrive/Desktop/GD32VW553/V1_MQTT_OK/GD32VW55X_Wifi_BLE_SDK/GD32VW55x_RELEASE_V1.0.2/MSDK/ble/app\app_blue_courier_prot.c **** #include "app_blue_courier_link.h"
  39:C:/Users/stapi/OneDrive/Desktop/GD32VW553/V1_MQTT_OK/GD32VW55X_Wifi_BLE_SDK/GD32VW55x_RELEASE_V1.0.2/MSDK/ble/app\app_blue_courier_prot.c **** #include "app_blue_courier.h"
  40:C:/Users/stapi/OneDrive/Desktop/GD32VW553/V1_MQTT_OK/GD32VW55X_Wifi_BLE_SDK/GD32VW55x_RELEASE_V1.0.2/MSDK/ble/app\app_blue_courier_prot.c **** #include "ble_error.h"
  41:C:/Users/stapi/OneDrive/Desktop/GD32VW553/V1_MQTT_OK/GD32VW55X_Wifi_BLE_SDK/GD32VW55x_RELEASE_V1.0.2/MSDK/ble/app\app_blue_courier_prot.c **** #include "ble_export.h"
  42:C:/Users/stapi/OneDrive/Desktop/GD32VW553/V1_MQTT_OK/GD32VW55X_Wifi_BLE_SDK/GD32VW55x_RELEASE_V1.0.2/MSDK/ble/app\app_blue_courier_prot.c **** #include "dbg_print.h"
  43:C:/Users/stapi/OneDrive/Desktop/GD32VW553/V1_MQTT_OK/GD32VW55X_Wifi_BLE_SDK/GD32VW55x_RELEASE_V1.0.2/MSDK/ble/app\app_blue_courier_prot.c **** #include "wrapper_os.h"
  44:C:/Users/stapi/OneDrive/Desktop/GD32VW553/V1_MQTT_OK/GD32VW55X_Wifi_BLE_SDK/GD32VW55x_RELEASE_V1.0.2/MSDK/ble/app\app_blue_courier_prot.c **** #include "wifi_management.h"
  45:C:/Users/stapi/OneDrive/Desktop/GD32VW553/V1_MQTT_OK/GD32VW55X_Wifi_BLE_SDK/GD32VW55x_RELEASE_V1.0.2/MSDK/ble/app\app_blue_courier_prot.c **** #include "wifi_vif.h"
  46:C:/Users/stapi/OneDrive/Desktop/GD32VW553/V1_MQTT_OK/GD32VW55X_Wifi_BLE_SDK/GD32VW55x_RELEASE_V1.0.2/MSDK/ble/app\app_blue_courier_prot.c **** #include "wifi_net_ip.h"
  47:C:/Users/stapi/OneDrive/Desktop/GD32VW553/V1_MQTT_OK/GD32VW55X_Wifi_BLE_SDK/GD32VW55x_RELEASE_V1.0.2/MSDK/ble/app\app_blue_courier_prot.c **** #include "dhcpd.h"
  48:C:/Users/stapi/OneDrive/Desktop/GD32VW553/V1_MQTT_OK/GD32VW55X_Wifi_BLE_SDK/GD32VW55x_RELEASE_V1.0.2/MSDK/ble/app\app_blue_courier_prot.c **** 
  49:C:/Users/stapi/OneDrive/Desktop/GD32VW553/V1_MQTT_OK/GD32VW55X_Wifi_BLE_SDK/GD32VW55x_RELEASE_V1.0.2/MSDK/ble/app\app_blue_courier_prot.c **** /* Wifi client information in softAP mode */
  50:C:/Users/stapi/OneDrive/Desktop/GD32VW553/V1_MQTT_OK/GD32VW55X_Wifi_BLE_SDK/GD32VW55x_RELEASE_V1.0.2/MSDK/ble/app\app_blue_courier_prot.c **** struct cli_info {
  51:C:/Users/stapi/OneDrive/Desktop/GD32VW553/V1_MQTT_OK/GD32VW55X_Wifi_BLE_SDK/GD32VW55x_RELEASE_V1.0.2/MSDK/ble/app\app_blue_courier_prot.c ****     uint8_t mac[MAC_ADDR_LEN];
  52:C:/Users/stapi/OneDrive/Desktop/GD32VW553/V1_MQTT_OK/GD32VW55X_Wifi_BLE_SDK/GD32VW55x_RELEASE_V1.0.2/MSDK/ble/app\app_blue_courier_prot.c ****     uint8_t ip[4];
  53:C:/Users/stapi/OneDrive/Desktop/GD32VW553/V1_MQTT_OK/GD32VW55X_Wifi_BLE_SDK/GD32VW55x_RELEASE_V1.0.2/MSDK/ble/app\app_blue_courier_prot.c **** };
  54:C:/Users/stapi/OneDrive/Desktop/GD32VW553/V1_MQTT_OK/GD32VW55X_Wifi_BLE_SDK/GD32VW55x_RELEASE_V1.0.2/MSDK/ble/app\app_blue_courier_prot.c **** 
  55:C:/Users/stapi/OneDrive/Desktop/GD32VW553/V1_MQTT_OK/GD32VW55X_Wifi_BLE_SDK/GD32VW55x_RELEASE_V1.0.2/MSDK/ble/app\app_blue_courier_prot.c **** /* Wifi status information */
  56:C:/Users/stapi/OneDrive/Desktop/GD32VW553/V1_MQTT_OK/GD32VW55X_Wifi_BLE_SDK/GD32VW55x_RELEASE_V1.0.2/MSDK/ble/app\app_blue_courier_prot.c **** typedef struct {
  57:C:/Users/stapi/OneDrive/Desktop/GD32VW553/V1_MQTT_OK/GD32VW55X_Wifi_BLE_SDK/GD32VW55x_RELEASE_V1.0.2/MSDK/ble/app\app_blue_courier_prot.c ****     uint8_t         vif_idx;
  58:C:/Users/stapi/OneDrive/Desktop/GD32VW553/V1_MQTT_OK/GD32VW55X_Wifi_BLE_SDK/GD32VW55x_RELEASE_V1.0.2/MSDK/ble/app\app_blue_courier_prot.c ****     uint8_t         vif_name[4];
  59:C:/Users/stapi/OneDrive/Desktop/GD32VW553/V1_MQTT_OK/GD32VW55X_Wifi_BLE_SDK/GD32VW55x_RELEASE_V1.0.2/MSDK/ble/app\app_blue_courier_prot.c ****     uint8_t         vif_mac[MAC_ADDR_LEN];
  60:C:/Users/stapi/OneDrive/Desktop/GD32VW553/V1_MQTT_OK/GD32VW55X_Wifi_BLE_SDK/GD32VW55x_RELEASE_V1.0.2/MSDK/ble/app\app_blue_courier_prot.c ****     uint8_t         mode;
  61:C:/Users/stapi/OneDrive/Desktop/GD32VW553/V1_MQTT_OK/GD32VW55X_Wifi_BLE_SDK/GD32VW55x_RELEASE_V1.0.2/MSDK/ble/app\app_blue_courier_prot.c ****     uint8_t         channel;
  62:C:/Users/stapi/OneDrive/Desktop/GD32VW553/V1_MQTT_OK/GD32VW55X_Wifi_BLE_SDK/GD32VW55x_RELEASE_V1.0.2/MSDK/ble/app\app_blue_courier_prot.c ****     uint8_t         bw;
  63:C:/Users/stapi/OneDrive/Desktop/GD32VW553/V1_MQTT_OK/GD32VW55X_Wifi_BLE_SDK/GD32VW55x_RELEASE_V1.0.2/MSDK/ble/app\app_blue_courier_prot.c ****     uint8_t         akm;
  64:C:/Users/stapi/OneDrive/Desktop/GD32VW553/V1_MQTT_OK/GD32VW55X_Wifi_BLE_SDK/GD32VW55x_RELEASE_V1.0.2/MSDK/ble/app\app_blue_courier_prot.c ****     uint8_t         ip_addr[4];
  65:C:/Users/stapi/OneDrive/Desktop/GD32VW553/V1_MQTT_OK/GD32VW55X_Wifi_BLE_SDK/GD32VW55x_RELEASE_V1.0.2/MSDK/ble/app\app_blue_courier_prot.c ****     uint8_t         gw[4];
  66:C:/Users/stapi/OneDrive/Desktop/GD32VW553/V1_MQTT_OK/GD32VW55X_Wifi_BLE_SDK/GD32VW55x_RELEASE_V1.0.2/MSDK/ble/app\app_blue_courier_prot.c ****     uint8_t         sta_status;
  67:C:/Users/stapi/OneDrive/Desktop/GD32VW553/V1_MQTT_OK/GD32VW55X_Wifi_BLE_SDK/GD32VW55x_RELEASE_V1.0.2/MSDK/ble/app\app_blue_courier_prot.c ****     int8_t          sta_rssi;
  68:C:/Users/stapi/OneDrive/Desktop/GD32VW553/V1_MQTT_OK/GD32VW55X_Wifi_BLE_SDK/GD32VW55x_RELEASE_V1.0.2/MSDK/ble/app\app_blue_courier_prot.c ****     uint8_t         sta_bssid[MAC_ADDR_LEN];
  69:C:/Users/stapi/OneDrive/Desktop/GD32VW553/V1_MQTT_OK/GD32VW55X_Wifi_BLE_SDK/GD32VW55x_RELEASE_V1.0.2/MSDK/ble/app\app_blue_courier_prot.c ****     struct mac_ssid sta_ssid;
  70:C:/Users/stapi/OneDrive/Desktop/GD32VW553/V1_MQTT_OK/GD32VW55X_Wifi_BLE_SDK/GD32VW55x_RELEASE_V1.0.2/MSDK/ble/app\app_blue_courier_prot.c ****     uint8_t         ap_status;
  71:C:/Users/stapi/OneDrive/Desktop/GD32VW553/V1_MQTT_OK/GD32VW55X_Wifi_BLE_SDK/GD32VW55x_RELEASE_V1.0.2/MSDK/ble/app\app_blue_courier_prot.c ****     struct mac_ssid ap_ssid;
  72:C:/Users/stapi/OneDrive/Desktop/GD32VW553/V1_MQTT_OK/GD32VW55X_Wifi_BLE_SDK/GD32VW55x_RELEASE_V1.0.2/MSDK/ble/app\app_blue_courier_prot.c ****     uint8_t         cli_num;
  73:C:/Users/stapi/OneDrive/Desktop/GD32VW553/V1_MQTT_OK/GD32VW55X_Wifi_BLE_SDK/GD32VW55x_RELEASE_V1.0.2/MSDK/ble/app\app_blue_courier_prot.c ****     struct cli_info cli[CFG_STA_NUM];
  74:C:/Users/stapi/OneDrive/Desktop/GD32VW553/V1_MQTT_OK/GD32VW55X_Wifi_BLE_SDK/GD32VW55x_RELEASE_V1.0.2/MSDK/ble/app\app_blue_courier_prot.c **** } bcwp_wifi_status_t;
  75:C:/Users/stapi/OneDrive/Desktop/GD32VW553/V1_MQTT_OK/GD32VW55X_Wifi_BLE_SDK/GD32VW55x_RELEASE_V1.0.2/MSDK/ble/app\app_blue_courier_prot.c **** 
  76:C:/Users/stapi/OneDrive/Desktop/GD32VW553/V1_MQTT_OK/GD32VW55X_Wifi_BLE_SDK/GD32VW55x_RELEASE_V1.0.2/MSDK/ble/app\app_blue_courier_prot.c **** /*!
  77:C:/Users/stapi/OneDrive/Desktop/GD32VW553/V1_MQTT_OK/GD32VW55X_Wifi_BLE_SDK/GD32VW55x_RELEASE_V1.0.2/MSDK/ble/app\app_blue_courier_prot.c ****     \brief      Get wifi scan result information after scan is complete
  78:C:/Users/stapi/OneDrive/Desktop/GD32VW553/V1_MQTT_OK/GD32VW55X_Wifi_BLE_SDK/GD32VW55x_RELEASE_V1.0.2/MSDK/ble/app\app_blue_courier_prot.c ****     \param[in]  none
  79:C:/Users/stapi/OneDrive/Desktop/GD32VW553/V1_MQTT_OK/GD32VW55X_Wifi_BLE_SDK/GD32VW55x_RELEASE_V1.0.2/MSDK/ble/app\app_blue_courier_prot.c ****     \param[out] none
  80:C:/Users/stapi/OneDrive/Desktop/GD32VW553/V1_MQTT_OK/GD32VW55X_Wifi_BLE_SDK/GD32VW55x_RELEASE_V1.0.2/MSDK/ble/app\app_blue_courier_prot.c ****     \retval     none
  81:C:/Users/stapi/OneDrive/Desktop/GD32VW553/V1_MQTT_OK/GD32VW55X_Wifi_BLE_SDK/GD32VW55x_RELEASE_V1.0.2/MSDK/ble/app\app_blue_courier_prot.c **** */
  82:C:/Users/stapi/OneDrive/Desktop/GD32VW553/V1_MQTT_OK/GD32VW55X_Wifi_BLE_SDK/GD32VW55x_RELEASE_V1.0.2/MSDK/ble/app\app_blue_courier_prot.c **** static void bcwp_wifi_scan_list_get(void)
  83:C:/Users/stapi/OneDrive/Desktop/GD32VW553/V1_MQTT_OK/GD32VW55X_Wifi_BLE_SDK/GD32VW55x_RELEASE_V1.0.2/MSDK/ble/app\app_blue_courier_prot.c **** {
  84:C:/Users/stapi/OneDrive/Desktop/GD32VW553/V1_MQTT_OK/GD32VW55X_Wifi_BLE_SDK/GD32VW55x_RELEASE_V1.0.2/MSDK/ble/app\app_blue_courier_prot.c ****     struct macif_scan_results *results;
  85:C:/Users/stapi/OneDrive/Desktop/GD32VW553/V1_MQTT_OK/GD32VW55X_Wifi_BLE_SDK/GD32VW55x_RELEASE_V1.0.2/MSDK/ble/app\app_blue_courier_prot.c ****     struct mac_scan_result *result;
  86:C:/Users/stapi/OneDrive/Desktop/GD32VW553/V1_MQTT_OK/GD32VW55X_Wifi_BLE_SDK/GD32VW55x_RELEASE_V1.0.2/MSDK/ble/app\app_blue_courier_prot.c ****     uint8_t ntf_result[BCW_VALUE_LEN];
  87:C:/Users/stapi/OneDrive/Desktop/GD32VW553/V1_MQTT_OK/GD32VW55X_Wifi_BLE_SDK/GD32VW55x_RELEASE_V1.0.2/MSDK/ble/app\app_blue_courier_prot.c ****     uint16_t i = 0, j;
  88:C:/Users/stapi/OneDrive/Desktop/GD32VW553/V1_MQTT_OK/GD32VW55X_Wifi_BLE_SDK/GD32VW55x_RELEASE_V1.0.2/MSDK/ble/app\app_blue_courier_prot.c ****     uint8_t mode = 0;
  89:C:/Users/stapi/OneDrive/Desktop/GD32VW553/V1_MQTT_OK/GD32VW55X_Wifi_BLE_SDK/GD32VW55x_RELEASE_V1.0.2/MSDK/ble/app\app_blue_courier_prot.c **** 
  90:C:/Users/stapi/OneDrive/Desktop/GD32VW553/V1_MQTT_OK/GD32VW55X_Wifi_BLE_SDK/GD32VW55x_RELEASE_V1.0.2/MSDK/ble/app\app_blue_courier_prot.c ****     dbg_print(INFO, "[Scanned AP list]\r\n");
  91:C:/Users/stapi/OneDrive/Desktop/GD32VW553/V1_MQTT_OK/GD32VW55X_Wifi_BLE_SDK/GD32VW55x_RELEASE_V1.0.2/MSDK/ble/app\app_blue_courier_prot.c **** 
  92:C:/Users/stapi/OneDrive/Desktop/GD32VW553/V1_MQTT_OK/GD32VW55X_Wifi_BLE_SDK/GD32VW55x_RELEASE_V1.0.2/MSDK/ble/app\app_blue_courier_prot.c ****     results = (struct macif_scan_results *)sys_malloc(sizeof(struct macif_scan_results));
  93:C:/Users/stapi/OneDrive/Desktop/GD32VW553/V1_MQTT_OK/GD32VW55X_Wifi_BLE_SDK/GD32VW55x_RELEASE_V1.0.2/MSDK/ble/app\app_blue_courier_prot.c ****     if (NULL == results)
  94:C:/Users/stapi/OneDrive/Desktop/GD32VW553/V1_MQTT_OK/GD32VW55X_Wifi_BLE_SDK/GD32VW55x_RELEASE_V1.0.2/MSDK/ble/app\app_blue_courier_prot.c ****         return;
  95:C:/Users/stapi/OneDrive/Desktop/GD32VW553/V1_MQTT_OK/GD32VW55X_Wifi_BLE_SDK/GD32VW55x_RELEASE_V1.0.2/MSDK/ble/app\app_blue_courier_prot.c **** 
  96:C:/Users/stapi/OneDrive/Desktop/GD32VW553/V1_MQTT_OK/GD32VW55X_Wifi_BLE_SDK/GD32VW55x_RELEASE_V1.0.2/MSDK/ble/app\app_blue_courier_prot.c ****     if (wifi_netlink_scan_results_get(WIFI_VIF_INDEX_DEFAULT, results)) {
  97:C:/Users/stapi/OneDrive/Desktop/GD32VW553/V1_MQTT_OK/GD32VW55X_Wifi_BLE_SDK/GD32VW55x_RELEASE_V1.0.2/MSDK/ble/app\app_blue_courier_prot.c ****         sys_mfree(results);
  98:C:/Users/stapi/OneDrive/Desktop/GD32VW553/V1_MQTT_OK/GD32VW55X_Wifi_BLE_SDK/GD32VW55x_RELEASE_V1.0.2/MSDK/ble/app\app_blue_courier_prot.c ****         return;
  99:C:/Users/stapi/OneDrive/Desktop/GD32VW553/V1_MQTT_OK/GD32VW55X_Wifi_BLE_SDK/GD32VW55x_RELEASE_V1.0.2/MSDK/ble/app\app_blue_courier_prot.c ****     }
 100:C:/Users/stapi/OneDrive/Desktop/GD32VW553/V1_MQTT_OK/GD32VW55X_Wifi_BLE_SDK/GD32VW55x_RELEASE_V1.0.2/MSDK/ble/app\app_blue_courier_prot.c **** 
 101:C:/Users/stapi/OneDrive/Desktop/GD32VW553/V1_MQTT_OK/GD32VW55X_Wifi_BLE_SDK/GD32VW55x_RELEASE_V1.0.2/MSDK/ble/app\app_blue_courier_prot.c ****     for (j = 0; j < results->result_cnt; j++) {
 102:C:/Users/stapi/OneDrive/Desktop/GD32VW553/V1_MQTT_OK/GD32VW55X_Wifi_BLE_SDK/GD32VW55x_RELEASE_V1.0.2/MSDK/ble/app\app_blue_courier_prot.c ****         result = &results->result[j];
 103:C:/Users/stapi/OneDrive/Desktop/GD32VW553/V1_MQTT_OK/GD32VW55X_Wifi_BLE_SDK/GD32VW55x_RELEASE_V1.0.2/MSDK/ble/app\app_blue_courier_prot.c ****         if (result->ssid.length < sizeof(result->ssid.array))
 104:C:/Users/stapi/OneDrive/Desktop/GD32VW553/V1_MQTT_OK/GD32VW55X_Wifi_BLE_SDK/GD32VW55x_RELEASE_V1.0.2/MSDK/ble/app\app_blue_courier_prot.c ****             result->ssid.array[result->ssid.length] = '\0';
 105:C:/Users/stapi/OneDrive/Desktop/GD32VW553/V1_MQTT_OK/GD32VW55X_Wifi_BLE_SDK/GD32VW55x_RELEASE_V1.0.2/MSDK/ble/app\app_blue_courier_prot.c ****         else
 106:C:/Users/stapi/OneDrive/Desktop/GD32VW553/V1_MQTT_OK/GD32VW55X_Wifi_BLE_SDK/GD32VW55x_RELEASE_V1.0.2/MSDK/ble/app\app_blue_courier_prot.c ****             result->ssid.array[result->ssid.length - 1] = '\0';
 107:C:/Users/stapi/OneDrive/Desktop/GD32VW553/V1_MQTT_OK/GD32VW55X_Wifi_BLE_SDK/GD32VW55x_RELEASE_V1.0.2/MSDK/ble/app\app_blue_courier_prot.c **** 
 108:C:/Users/stapi/OneDrive/Desktop/GD32VW553/V1_MQTT_OK/GD32VW55X_Wifi_BLE_SDK/GD32VW55x_RELEASE_V1.0.2/MSDK/ble/app\app_blue_courier_prot.c ****         if (result->ssid.length == 0)
 109:C:/Users/stapi/OneDrive/Desktop/GD32VW553/V1_MQTT_OK/GD32VW55X_Wifi_BLE_SDK/GD32VW55x_RELEASE_V1.0.2/MSDK/ble/app\app_blue_courier_prot.c ****             continue;
 110:C:/Users/stapi/OneDrive/Desktop/GD32VW553/V1_MQTT_OK/GD32VW55X_Wifi_BLE_SDK/GD32VW55x_RELEASE_V1.0.2/MSDK/ble/app\app_blue_courier_prot.c **** 
 111:C:/Users/stapi/OneDrive/Desktop/GD32VW553/V1_MQTT_OK/GD32VW55X_Wifi_BLE_SDK/GD32VW55x_RELEASE_V1.0.2/MSDK/ble/app\app_blue_courier_prot.c ****         if (i + result->ssid.length + 3 > sizeof(ntf_result))
 112:C:/Users/stapi/OneDrive/Desktop/GD32VW553/V1_MQTT_OK/GD32VW55X_Wifi_BLE_SDK/GD32VW55x_RELEASE_V1.0.2/MSDK/ble/app\app_blue_courier_prot.c ****             break;
 113:C:/Users/stapi/OneDrive/Desktop/GD32VW553/V1_MQTT_OK/GD32VW55X_Wifi_BLE_SDK/GD32VW55x_RELEASE_V1.0.2/MSDK/ble/app\app_blue_courier_prot.c **** 
 114:C:/Users/stapi/OneDrive/Desktop/GD32VW553/V1_MQTT_OK/GD32VW55X_Wifi_BLE_SDK/GD32VW55x_RELEASE_V1.0.2/MSDK/ble/app\app_blue_courier_prot.c ****         dbg_print(INFO, "(%d dBm) SSID=%s ", result->rssi, (char *)result->ssid.array);
 115:C:/Users/stapi/OneDrive/Desktop/GD32VW553/V1_MQTT_OK/GD32VW55X_Wifi_BLE_SDK/GD32VW55x_RELEASE_V1.0.2/MSDK/ble/app\app_blue_courier_prot.c **** 
 116:C:/Users/stapi/OneDrive/Desktop/GD32VW553/V1_MQTT_OK/GD32VW55X_Wifi_BLE_SDK/GD32VW55x_RELEASE_V1.0.2/MSDK/ble/app\app_blue_courier_prot.c ****         if (result->akm & CO_BIT(MAC_AKM_NONE)) {
 117:C:/Users/stapi/OneDrive/Desktop/GD32VW553/V1_MQTT_OK/GD32VW55X_Wifi_BLE_SDK/GD32VW55x_RELEASE_V1.0.2/MSDK/ble/app\app_blue_courier_prot.c ****             dbg_print(INFO, "[OPEN]\n");
 118:C:/Users/stapi/OneDrive/Desktop/GD32VW553/V1_MQTT_OK/GD32VW55X_Wifi_BLE_SDK/GD32VW55x_RELEASE_V1.0.2/MSDK/ble/app\app_blue_courier_prot.c ****             mode = 0;
 119:C:/Users/stapi/OneDrive/Desktop/GD32VW553/V1_MQTT_OK/GD32VW55X_Wifi_BLE_SDK/GD32VW55x_RELEASE_V1.0.2/MSDK/ble/app\app_blue_courier_prot.c ****         } else if (result->akm == CO_BIT(MAC_AKM_PRE_RSN)) {
 120:C:/Users/stapi/OneDrive/Desktop/GD32VW553/V1_MQTT_OK/GD32VW55X_Wifi_BLE_SDK/GD32VW55x_RELEASE_V1.0.2/MSDK/ble/app\app_blue_courier_prot.c ****             dbg_print(INFO, "[WEP]\n");
 121:C:/Users/stapi/OneDrive/Desktop/GD32VW553/V1_MQTT_OK/GD32VW55X_Wifi_BLE_SDK/GD32VW55x_RELEASE_V1.0.2/MSDK/ble/app\app_blue_courier_prot.c ****             mode = 1;
 122:C:/Users/stapi/OneDrive/Desktop/GD32VW553/V1_MQTT_OK/GD32VW55X_Wifi_BLE_SDK/GD32VW55x_RELEASE_V1.0.2/MSDK/ble/app\app_blue_courier_prot.c ****         } else if (result->akm & CO_BIT(MAC_AKM_WAPI_CERT) || result->akm & CO_BIT(MAC_AKM_WAPI_PSK
 123:C:/Users/stapi/OneDrive/Desktop/GD32VW553/V1_MQTT_OK/GD32VW55X_Wifi_BLE_SDK/GD32VW55x_RELEASE_V1.0.2/MSDK/ble/app\app_blue_courier_prot.c ****             dbg_print(INFO, "[WAPI]\n");
 124:C:/Users/stapi/OneDrive/Desktop/GD32VW553/V1_MQTT_OK/GD32VW55X_Wifi_BLE_SDK/GD32VW55x_RELEASE_V1.0.2/MSDK/ble/app\app_blue_courier_prot.c ****             mode = 2;
 125:C:/Users/stapi/OneDrive/Desktop/GD32VW553/V1_MQTT_OK/GD32VW55X_Wifi_BLE_SDK/GD32VW55x_RELEASE_V1.0.2/MSDK/ble/app\app_blue_courier_prot.c ****         } else if (result->akm & CO_BIT(MAC_AKM_PRE_RSN)) {
 126:C:/Users/stapi/OneDrive/Desktop/GD32VW553/V1_MQTT_OK/GD32VW55X_Wifi_BLE_SDK/GD32VW55x_RELEASE_V1.0.2/MSDK/ble/app\app_blue_courier_prot.c ****             dbg_print(INFO, "[WPA]\n");
 127:C:/Users/stapi/OneDrive/Desktop/GD32VW553/V1_MQTT_OK/GD32VW55X_Wifi_BLE_SDK/GD32VW55x_RELEASE_V1.0.2/MSDK/ble/app\app_blue_courier_prot.c ****             mode = 3;
 128:C:/Users/stapi/OneDrive/Desktop/GD32VW553/V1_MQTT_OK/GD32VW55X_Wifi_BLE_SDK/GD32VW55x_RELEASE_V1.0.2/MSDK/ble/app\app_blue_courier_prot.c ****         } else {
 129:C:/Users/stapi/OneDrive/Desktop/GD32VW553/V1_MQTT_OK/GD32VW55X_Wifi_BLE_SDK/GD32VW55x_RELEASE_V1.0.2/MSDK/ble/app\app_blue_courier_prot.c ****             dbg_print(INFO, "[RSN]\n");
 130:C:/Users/stapi/OneDrive/Desktop/GD32VW553/V1_MQTT_OK/GD32VW55X_Wifi_BLE_SDK/GD32VW55x_RELEASE_V1.0.2/MSDK/ble/app\app_blue_courier_prot.c ****             mode = 4;
 131:C:/Users/stapi/OneDrive/Desktop/GD32VW553/V1_MQTT_OK/GD32VW55X_Wifi_BLE_SDK/GD32VW55x_RELEASE_V1.0.2/MSDK/ble/app\app_blue_courier_prot.c ****         }
 132:C:/Users/stapi/OneDrive/Desktop/GD32VW553/V1_MQTT_OK/GD32VW55X_Wifi_BLE_SDK/GD32VW55x_RELEASE_V1.0.2/MSDK/ble/app\app_blue_courier_prot.c **** 
 133:C:/Users/stapi/OneDrive/Desktop/GD32VW553/V1_MQTT_OK/GD32VW55X_Wifi_BLE_SDK/GD32VW55x_RELEASE_V1.0.2/MSDK/ble/app\app_blue_courier_prot.c ****         // len + rssi + mode + ssid
 134:C:/Users/stapi/OneDrive/Desktop/GD32VW553/V1_MQTT_OK/GD32VW55X_Wifi_BLE_SDK/GD32VW55x_RELEASE_V1.0.2/MSDK/ble/app\app_blue_courier_prot.c ****         ntf_result[i++] = result->ssid.length + 2;
 135:C:/Users/stapi/OneDrive/Desktop/GD32VW553/V1_MQTT_OK/GD32VW55X_Wifi_BLE_SDK/GD32VW55x_RELEASE_V1.0.2/MSDK/ble/app\app_blue_courier_prot.c ****         ntf_result[i++] = result->rssi;
 136:C:/Users/stapi/OneDrive/Desktop/GD32VW553/V1_MQTT_OK/GD32VW55X_Wifi_BLE_SDK/GD32VW55x_RELEASE_V1.0.2/MSDK/ble/app\app_blue_courier_prot.c ****         ntf_result[i++] = mode;
 137:C:/Users/stapi/OneDrive/Desktop/GD32VW553/V1_MQTT_OK/GD32VW55X_Wifi_BLE_SDK/GD32VW55x_RELEASE_V1.0.2/MSDK/ble/app\app_blue_courier_prot.c ****         sys_memcpy(&ntf_result[i], result->ssid.array, result->ssid.length);
 138:C:/Users/stapi/OneDrive/Desktop/GD32VW553/V1_MQTT_OK/GD32VW55X_Wifi_BLE_SDK/GD32VW55x_RELEASE_V1.0.2/MSDK/ble/app\app_blue_courier_prot.c ****         i += result->ssid.length;
 139:C:/Users/stapi/OneDrive/Desktop/GD32VW553/V1_MQTT_OK/GD32VW55X_Wifi_BLE_SDK/GD32VW55x_RELEASE_V1.0.2/MSDK/ble/app\app_blue_courier_prot.c ****     }
 140:C:/Users/stapi/OneDrive/Desktop/GD32VW553/V1_MQTT_OK/GD32VW55X_Wifi_BLE_SDK/GD32VW55x_RELEASE_V1.0.2/MSDK/ble/app\app_blue_courier_prot.c **** 
 141:C:/Users/stapi/OneDrive/Desktop/GD32VW553/V1_MQTT_OK/GD32VW55X_Wifi_BLE_SDK/GD32VW55x_RELEASE_V1.0.2/MSDK/ble/app\app_blue_courier_prot.c ****     dbg_print(INFO, "[scan finished, Scanned AP number: %d]\r\n", results->result_cnt);
 142:C:/Users/stapi/OneDrive/Desktop/GD32VW553/V1_MQTT_OK/GD32VW55X_Wifi_BLE_SDK/GD32VW55x_RELEASE_V1.0.2/MSDK/ble/app\app_blue_courier_prot.c ****     sys_mfree(results);
 143:C:/Users/stapi/OneDrive/Desktop/GD32VW553/V1_MQTT_OK/GD32VW55X_Wifi_BLE_SDK/GD32VW55x_RELEASE_V1.0.2/MSDK/ble/app\app_blue_courier_prot.c **** 
 144:C:/Users/stapi/OneDrive/Desktop/GD32VW553/V1_MQTT_OK/GD32VW55X_Wifi_BLE_SDK/GD32VW55x_RELEASE_V1.0.2/MSDK/ble/app\app_blue_courier_prot.c ****     bcwl_send(BCWL_OPCODE_BUILD(BCWL_OPCODE_TYPE_DATA, BCWL_OPCODE_DATA_SUBTYPE_GET_SCAN_LIST), ntf
 145:C:/Users/stapi/OneDrive/Desktop/GD32VW553/V1_MQTT_OK/GD32VW55X_Wifi_BLE_SDK/GD32VW55x_RELEASE_V1.0.2/MSDK/ble/app\app_blue_courier_prot.c **** }
 146:C:/Users/stapi/OneDrive/Desktop/GD32VW553/V1_MQTT_OK/GD32VW55X_Wifi_BLE_SDK/GD32VW55x_RELEASE_V1.0.2/MSDK/ble/app\app_blue_courier_prot.c **** 
 147:C:/Users/stapi/OneDrive/Desktop/GD32VW553/V1_MQTT_OK/GD32VW55X_Wifi_BLE_SDK/GD32VW55x_RELEASE_V1.0.2/MSDK/ble/app\app_blue_courier_prot.c **** /*!
 148:C:/Users/stapi/OneDrive/Desktop/GD32VW553/V1_MQTT_OK/GD32VW55X_Wifi_BLE_SDK/GD32VW55x_RELEASE_V1.0.2/MSDK/ble/app\app_blue_courier_prot.c ****     \brief      Wifi scan complete handler
 149:C:/Users/stapi/OneDrive/Desktop/GD32VW553/V1_MQTT_OK/GD32VW55X_Wifi_BLE_SDK/GD32VW55x_RELEASE_V1.0.2/MSDK/ble/app\app_blue_courier_prot.c ****     \param[in]  eloop_data: callback context data
 150:C:/Users/stapi/OneDrive/Desktop/GD32VW553/V1_MQTT_OK/GD32VW55X_Wifi_BLE_SDK/GD32VW55x_RELEASE_V1.0.2/MSDK/ble/app\app_blue_courier_prot.c ****     \param[in]  user_ctx: callback context data
 151:C:/Users/stapi/OneDrive/Desktop/GD32VW553/V1_MQTT_OK/GD32VW55X_Wifi_BLE_SDK/GD32VW55x_RELEASE_V1.0.2/MSDK/ble/app\app_blue_courier_prot.c ****     \param[out] none
 152:C:/Users/stapi/OneDrive/Desktop/GD32VW553/V1_MQTT_OK/GD32VW55X_Wifi_BLE_SDK/GD32VW55x_RELEASE_V1.0.2/MSDK/ble/app\app_blue_courier_prot.c ****     \retval     none
 153:C:/Users/stapi/OneDrive/Desktop/GD32VW553/V1_MQTT_OK/GD32VW55X_Wifi_BLE_SDK/GD32VW55x_RELEASE_V1.0.2/MSDK/ble/app\app_blue_courier_prot.c **** */
 154:C:/Users/stapi/OneDrive/Desktop/GD32VW553/V1_MQTT_OK/GD32VW55X_Wifi_BLE_SDK/GD32VW55x_RELEASE_V1.0.2/MSDK/ble/app\app_blue_courier_prot.c **** static void bcwp_cb_scan_done(void *eloop_data, void *user_ctx)
 155:C:/Users/stapi/OneDrive/Desktop/GD32VW553/V1_MQTT_OK/GD32VW55X_Wifi_BLE_SDK/GD32VW55x_RELEASE_V1.0.2/MSDK/ble/app\app_blue_courier_prot.c **** {
 156:C:/Users/stapi/OneDrive/Desktop/GD32VW553/V1_MQTT_OK/GD32VW55X_Wifi_BLE_SDK/GD32VW55x_RELEASE_V1.0.2/MSDK/ble/app\app_blue_courier_prot.c ****     bcwp_wifi_scan_list_get();
 157:C:/Users/stapi/OneDrive/Desktop/GD32VW553/V1_MQTT_OK/GD32VW55X_Wifi_BLE_SDK/GD32VW55x_RELEASE_V1.0.2/MSDK/ble/app\app_blue_courier_prot.c ****     eloop_event_unregister(WIFI_MGMT_EVENT_SCAN_DONE);
 158:C:/Users/stapi/OneDrive/Desktop/GD32VW553/V1_MQTT_OK/GD32VW55X_Wifi_BLE_SDK/GD32VW55x_RELEASE_V1.0.2/MSDK/ble/app\app_blue_courier_prot.c ****     eloop_event_unregister(WIFI_MGMT_EVENT_SCAN_FAIL);
 159:C:/Users/stapi/OneDrive/Desktop/GD32VW553/V1_MQTT_OK/GD32VW55X_Wifi_BLE_SDK/GD32VW55x_RELEASE_V1.0.2/MSDK/ble/app\app_blue_courier_prot.c **** }
 160:C:/Users/stapi/OneDrive/Desktop/GD32VW553/V1_MQTT_OK/GD32VW55X_Wifi_BLE_SDK/GD32VW55x_RELEASE_V1.0.2/MSDK/ble/app\app_blue_courier_prot.c **** 
 161:C:/Users/stapi/OneDrive/Desktop/GD32VW553/V1_MQTT_OK/GD32VW55X_Wifi_BLE_SDK/GD32VW55x_RELEASE_V1.0.2/MSDK/ble/app\app_blue_courier_prot.c **** /*!
 162:C:/Users/stapi/OneDrive/Desktop/GD32VW553/V1_MQTT_OK/GD32VW55X_Wifi_BLE_SDK/GD32VW55x_RELEASE_V1.0.2/MSDK/ble/app\app_blue_courier_prot.c ****     \brief      Wifi scan fail handler
 163:C:/Users/stapi/OneDrive/Desktop/GD32VW553/V1_MQTT_OK/GD32VW55X_Wifi_BLE_SDK/GD32VW55x_RELEASE_V1.0.2/MSDK/ble/app\app_blue_courier_prot.c ****     \param[in]  eloop_data: callback context data
 164:C:/Users/stapi/OneDrive/Desktop/GD32VW553/V1_MQTT_OK/GD32VW55X_Wifi_BLE_SDK/GD32VW55x_RELEASE_V1.0.2/MSDK/ble/app\app_blue_courier_prot.c ****     \param[in]  user_ctx: callback context data
 165:C:/Users/stapi/OneDrive/Desktop/GD32VW553/V1_MQTT_OK/GD32VW55X_Wifi_BLE_SDK/GD32VW55x_RELEASE_V1.0.2/MSDK/ble/app\app_blue_courier_prot.c ****     \param[out] none
 166:C:/Users/stapi/OneDrive/Desktop/GD32VW553/V1_MQTT_OK/GD32VW55X_Wifi_BLE_SDK/GD32VW55x_RELEASE_V1.0.2/MSDK/ble/app\app_blue_courier_prot.c ****     \retval     none
 167:C:/Users/stapi/OneDrive/Desktop/GD32VW553/V1_MQTT_OK/GD32VW55X_Wifi_BLE_SDK/GD32VW55x_RELEASE_V1.0.2/MSDK/ble/app\app_blue_courier_prot.c **** */
 168:C:/Users/stapi/OneDrive/Desktop/GD32VW553/V1_MQTT_OK/GD32VW55X_Wifi_BLE_SDK/GD32VW55x_RELEASE_V1.0.2/MSDK/ble/app\app_blue_courier_prot.c **** static void bcwp_cb_scan_fail(void *eloop_data, void *user_ctx)
 169:C:/Users/stapi/OneDrive/Desktop/GD32VW553/V1_MQTT_OK/GD32VW55X_Wifi_BLE_SDK/GD32VW55x_RELEASE_V1.0.2/MSDK/ble/app\app_blue_courier_prot.c **** {
  19              		.loc 1 169 1
  20              		.cfi_startproc
  21              	.LVL0:
  22 0000 17030000 		call	t0,__riscv_save_0
  22      E7020300 
  23              		.cfi_offset 1, -4
  24              		.cfi_def_cfa_offset 16
 170:C:/Users/stapi/OneDrive/Desktop/GD32VW553/V1_MQTT_OK/GD32VW55X_Wifi_BLE_SDK/GD32VW55x_RELEASE_V1.0.2/MSDK/ble/app\app_blue_courier_prot.c ****     dbg_print(ERR, "ble config wifi scan cb failed\r\n");
  25              		.loc 1 170 5
  26              		.loc 1 170 5
  27 0008 B7070000 		lui	a5,%hi(global_debug_level)
  28 000c 83C70700 		lbu	a5,%lo(global_debug_level)(a5)
  29 0010 89CB     		beq	a5,zero,.L2
  30              		.loc 1 170 5 discriminator 1
  31 0012 37050000 		lui	a0,%hi(.LC0)
  32              	.LVL1:
  33 0016 13050500 		addi	a0,a0,%lo(.LC0)
  34 001a 97000000 		call	co_printf
  34      E7800000 
  35              	.LVL2:
  36              	.L2:
  37              		.loc 1 170 5 discriminator 3
 171:C:/Users/stapi/OneDrive/Desktop/GD32VW553/V1_MQTT_OK/GD32VW55X_Wifi_BLE_SDK/GD32VW55x_RELEASE_V1.0.2/MSDK/ble/app\app_blue_courier_prot.c ****     eloop_event_unregister(WIFI_MGMT_EVENT_SCAN_DONE);
  38              		.loc 1 171 5 discriminator 3
  39 0022 3945     		li	a0,14
  40 0024 97000000 		call	eloop_event_unregister
  40      E7800000 
  41              	.LVL3:
 172:C:/Users/stapi/OneDrive/Desktop/GD32VW553/V1_MQTT_OK/GD32VW55X_Wifi_BLE_SDK/GD32VW55x_RELEASE_V1.0.2/MSDK/ble/app\app_blue_courier_prot.c ****     eloop_event_unregister(WIFI_MGMT_EVENT_SCAN_FAIL);
  42              		.loc 1 172 5 discriminator 3
  43 002c 3D45     		li	a0,15
  44 002e 97000000 		call	eloop_event_unregister
  44      E7800000 
  45              	.LVL4:
 173:C:/Users/stapi/OneDrive/Desktop/GD32VW553/V1_MQTT_OK/GD32VW55X_Wifi_BLE_SDK/GD32VW55x_RELEASE_V1.0.2/MSDK/ble/app\app_blue_courier_prot.c **** }
  46              		.loc 1 173 1 is_stmt 0 discriminator 3
  47 0036 17030000 		tail	__riscv_restore_0
  47      67000300 
  48              		.cfi_restore 1
  49              		.cfi_def_cfa_offset 0
  50              		.cfi_endproc
  51              	.LFE17:
  53              		.section	.rodata.bcwp_wifi_scan_list_get.str1.4,"aMS",@progbits,1
  54              		.align	2
  55              	.LC1:
  56 0000 5B536361 		.string	"[Scanned AP list]\r\n"
  56      6E6E6564 
  56      20415020 
  56      6C697374 
  56      5D0D0A00 
  57              		.align	2
  58              	.LC2:
  59 0014 28256420 		.string	"(%d dBm) SSID=%s "
  59      64426D29 
  59      20535349 
  59      443D2573 
  59      2000
  60 0026 0000     		.align	2
  61              	.LC3:
  62 0028 5B4F5045 		.string	"[OPEN]\n"
  62      4E5D0A00 
  63              		.align	2
  64              	.LC4:
  65 0030 5B574550 		.string	"[WEP]\n"
  65      5D0A00
  66 0037 00       		.align	2
  67              	.LC5:
  68 0038 5B574150 		.string	"[WAPI]\n"
  68      495D0A00 
  69              		.align	2
  70              	.LC6:
  71 0040 5B575041 		.string	"[WPA]\n"
  71      5D0A00
  72 0047 00       		.align	2
  73              	.LC7:
  74 0048 5B52534E 		.string	"[RSN]\n"
  74      5D0A00
  75 004f 00       		.align	2
  76              	.LC8:
  77 0050 5B736361 		.string	"[scan finished, Scanned AP number: %d]\r\n"
  77      6E206669 
  77      6E697368 
  77      65642C20 
  77      5363616E 
  78              		.section	.text.bcwp_wifi_scan_list_get,"ax",@progbits
  79              		.align	1
  81              	bcwp_wifi_scan_list_get:
  82              	.LFB15:
  83:C:/Users/stapi/OneDrive/Desktop/GD32VW553/V1_MQTT_OK/GD32VW55X_Wifi_BLE_SDK/GD32VW55x_RELEASE_V1.0.2/MSDK/ble/app\app_blue_courier_prot.c ****     struct macif_scan_results *results;
  83              		.loc 1 83 1 is_stmt 1
  84              		.cfi_startproc
  85 0000 17030000 		call	t0,__riscv_save_12
  85      E7020300 
  86              		.cfi_offset 27, -52
  87              		.cfi_offset 26, -48
  88              		.cfi_offset 25, -44
  89              		.cfi_offset 24, -40
  90              		.cfi_offset 23, -36
  91              		.cfi_offset 22, -32
  92              		.cfi_offset 21, -28
  93              		.cfi_offset 20, -24
  94              		.cfi_offset 19, -20
  95              		.cfi_offset 18, -16
  96              		.cfi_offset 9, -12
  97              		.cfi_offset 8, -8
  98              		.cfi_offset 1, -4
  99              		.cfi_def_cfa_offset 64
  84:C:/Users/stapi/OneDrive/Desktop/GD32VW553/V1_MQTT_OK/GD32VW55X_Wifi_BLE_SDK/GD32VW55x_RELEASE_V1.0.2/MSDK/ble/app\app_blue_courier_prot.c ****     struct mac_scan_result *result;
 100              		.loc 1 84 5
  85:C:/Users/stapi/OneDrive/Desktop/GD32VW553/V1_MQTT_OK/GD32VW55X_Wifi_BLE_SDK/GD32VW55x_RELEASE_V1.0.2/MSDK/ble/app\app_blue_courier_prot.c ****     uint8_t ntf_result[BCW_VALUE_LEN];
 101              		.loc 1 85 5
  86:C:/Users/stapi/OneDrive/Desktop/GD32VW553/V1_MQTT_OK/GD32VW55X_Wifi_BLE_SDK/GD32VW55x_RELEASE_V1.0.2/MSDK/ble/app\app_blue_courier_prot.c ****     uint16_t i = 0, j;
 102              		.loc 1 86 5
  87:C:/Users/stapi/OneDrive/Desktop/GD32VW553/V1_MQTT_OK/GD32VW55X_Wifi_BLE_SDK/GD32VW55x_RELEASE_V1.0.2/MSDK/ble/app\app_blue_courier_prot.c ****     uint8_t mode = 0;
 103              		.loc 1 87 5
 104              	.LVL5:
  88:C:/Users/stapi/OneDrive/Desktop/GD32VW553/V1_MQTT_OK/GD32VW55X_Wifi_BLE_SDK/GD32VW55x_RELEASE_V1.0.2/MSDK/ble/app\app_blue_courier_prot.c **** 
 105              		.loc 1 88 5
  90:C:/Users/stapi/OneDrive/Desktop/GD32VW553/V1_MQTT_OK/GD32VW55X_Wifi_BLE_SDK/GD32VW55x_RELEASE_V1.0.2/MSDK/ble/app\app_blue_courier_prot.c **** 
 106              		.loc 1 90 5
  90:C:/Users/stapi/OneDrive/Desktop/GD32VW553/V1_MQTT_OK/GD32VW55X_Wifi_BLE_SDK/GD32VW55x_RELEASE_V1.0.2/MSDK/ble/app\app_blue_courier_prot.c **** 
 107              		.loc 1 90 5
 108 0008 B7090000 		lui	s3,%hi(global_debug_level)
 109 000c 03C70900 		lbu	a4,%lo(global_debug_level)(s3)
 110 0010 8D47     		li	a5,3
  83:C:/Users/stapi/OneDrive/Desktop/GD32VW553/V1_MQTT_OK/GD32VW55X_Wifi_BLE_SDK/GD32VW55x_RELEASE_V1.0.2/MSDK/ble/app\app_blue_courier_prot.c ****     struct macif_scan_results *results;
 111              		.loc 1 83 1 is_stmt 0
 112 0012 130101DF 		addi	sp,sp,-528
 113              		.cfi_def_cfa_offset 592
  90:C:/Users/stapi/OneDrive/Desktop/GD32VW553/V1_MQTT_OK/GD32VW55X_Wifi_BLE_SDK/GD32VW55x_RELEASE_V1.0.2/MSDK/ble/app\app_blue_courier_prot.c **** 
 114              		.loc 1 90 5
 115 0016 63FAE700 		bleu	a4,a5,.L8
  90:C:/Users/stapi/OneDrive/Desktop/GD32VW553/V1_MQTT_OK/GD32VW55X_Wifi_BLE_SDK/GD32VW55x_RELEASE_V1.0.2/MSDK/ble/app\app_blue_courier_prot.c **** 
 116              		.loc 1 90 5 is_stmt 1 discriminator 1
 117 001a 37050000 		lui	a0,%hi(.LC1)
 118 001e 13050500 		addi	a0,a0,%lo(.LC1)
 119 0022 97000000 		call	co_printf
 119      E7800000 
 120              	.LVL6:
 121              	.L8:
  90:C:/Users/stapi/OneDrive/Desktop/GD32VW553/V1_MQTT_OK/GD32VW55X_Wifi_BLE_SDK/GD32VW55x_RELEASE_V1.0.2/MSDK/ble/app\app_blue_courier_prot.c **** 
 122              		.loc 1 90 5 discriminator 3
  92:C:/Users/stapi/OneDrive/Desktop/GD32VW553/V1_MQTT_OK/GD32VW55X_Wifi_BLE_SDK/GD32VW55x_RELEASE_V1.0.2/MSDK/ble/app\app_blue_courier_prot.c ****     if (NULL == results)
 123              		.loc 1 92 5 discriminator 3
  92:C:/Users/stapi/OneDrive/Desktop/GD32VW553/V1_MQTT_OK/GD32VW55X_Wifi_BLE_SDK/GD32VW55x_RELEASE_V1.0.2/MSDK/ble/app\app_blue_courier_prot.c ****     if (NULL == results)
 124              		.loc 1 92 44 is_stmt 0 discriminator 3
 125 002a 13054078 		li	a0,1924
 126 002e 97000000 		call	sys_malloc
 126      E7800000 
 127              	.LVL7:
 128 0036 AA84     		mv	s1,a0
 129              	.LVL8:
  93:C:/Users/stapi/OneDrive/Desktop/GD32VW553/V1_MQTT_OK/GD32VW55X_Wifi_BLE_SDK/GD32VW55x_RELEASE_V1.0.2/MSDK/ble/app\app_blue_courier_prot.c ****         return;
 130              		.loc 1 93 5 is_stmt 1 discriminator 3
  93:C:/Users/stapi/OneDrive/Desktop/GD32VW553/V1_MQTT_OK/GD32VW55X_Wifi_BLE_SDK/GD32VW55x_RELEASE_V1.0.2/MSDK/ble/app\app_blue_courier_prot.c ****         return;
 131              		.loc 1 93 8 is_stmt 0 discriminator 3
 132 0038 11CD     		beq	a0,zero,.L7
  96:C:/Users/stapi/OneDrive/Desktop/GD32VW553/V1_MQTT_OK/GD32VW55X_Wifi_BLE_SDK/GD32VW55x_RELEASE_V1.0.2/MSDK/ble/app\app_blue_courier_prot.c ****         sys_mfree(results);
 133              		.loc 1 96 5 is_stmt 1
  96:C:/Users/stapi/OneDrive/Desktop/GD32VW553/V1_MQTT_OK/GD32VW55X_Wifi_BLE_SDK/GD32VW55x_RELEASE_V1.0.2/MSDK/ble/app\app_blue_courier_prot.c ****         sys_mfree(results);
 134              		.loc 1 96 9 is_stmt 0
 135 003a AA85     		mv	a1,a0
 136 003c 0145     		li	a0,0
 137 003e 97000000 		call	wifi_netlink_scan_results_get
 137      E7800000 
 138              	.LVL9:
  96:C:/Users/stapi/OneDrive/Desktop/GD32VW553/V1_MQTT_OK/GD32VW55X_Wifi_BLE_SDK/GD32VW55x_RELEASE_V1.0.2/MSDK/ble/app\app_blue_courier_prot.c ****         sys_mfree(results);
 139              		.loc 1 96 8
 140 0046 63050518 		beq	a0,zero,.L26
  97:C:/Users/stapi/OneDrive/Desktop/GD32VW553/V1_MQTT_OK/GD32VW55X_Wifi_BLE_SDK/GD32VW55x_RELEASE_V1.0.2/MSDK/ble/app\app_blue_courier_prot.c ****         return;
 141              		.loc 1 97 9 is_stmt 1
 142 004a 2685     		mv	a0,s1
 143 004c 97000000 		call	sys_mfree
 143      E7800000 
 144              	.LVL10:
  98:C:/Users/stapi/OneDrive/Desktop/GD32VW553/V1_MQTT_OK/GD32VW55X_Wifi_BLE_SDK/GD32VW55x_RELEASE_V1.0.2/MSDK/ble/app\app_blue_courier_prot.c ****     }
 145              		.loc 1 98 9
 146              	.L7:
 145:C:/Users/stapi/OneDrive/Desktop/GD32VW553/V1_MQTT_OK/GD32VW55X_Wifi_BLE_SDK/GD32VW55x_RELEASE_V1.0.2/MSDK/ble/app\app_blue_courier_prot.c **** 
 147              		.loc 1 145 1 is_stmt 0
 148 0054 13010121 		addi	sp,sp,528
 149              		.cfi_remember_state
 150              		.cfi_def_cfa_offset 0
 151 0058 17030000 		tail	__riscv_restore_12
 151      67000300 
 152              		.cfi_restore 27
 153              		.cfi_restore 26
 154              		.cfi_restore 25
 155              		.cfi_restore 24
 156              		.cfi_restore 23
 157              		.cfi_restore 22
 158              		.cfi_restore 21
 159              		.cfi_restore 20
 160              		.cfi_restore 19
 161              		.cfi_restore 18
 162              		.cfi_restore 9
 163              		.cfi_restore 8
 164              		.cfi_restore 1
 165              		.cfi_def_cfa_offset -64
 166              	.LVL11:
 167              	.L11:
 168              		.cfi_restore_state
 106:C:/Users/stapi/OneDrive/Desktop/GD32VW553/V1_MQTT_OK/GD32VW55X_Wifi_BLE_SDK/GD32VW55x_RELEASE_V1.0.2/MSDK/ble/app\app_blue_courier_prot.c **** 
 169              		.loc 1 106 13 is_stmt 1
 106:C:/Users/stapi/OneDrive/Desktop/GD32VW553/V1_MQTT_OK/GD32VW55X_Wifi_BLE_SDK/GD32VW55x_RELEASE_V1.0.2/MSDK/ble/app\app_blue_courier_prot.c **** 
 170              		.loc 1 106 57 is_stmt 0
 171 0060 23060700 		sb	zero,12(a4)
 108:C:/Users/stapi/OneDrive/Desktop/GD32VW553/V1_MQTT_OK/GD32VW55X_Wifi_BLE_SDK/GD32VW55x_RELEASE_V1.0.2/MSDK/ble/app\app_blue_courier_prot.c ****             continue;
 172              		.loc 1 108 9 is_stmt 1
 173 0064 C1A8     		j	.L13
 174              	.L14:
 114:C:/Users/stapi/OneDrive/Desktop/GD32VW553/V1_MQTT_OK/GD32VW55X_Wifi_BLE_SDK/GD32VW55x_RELEASE_V1.0.2/MSDK/ble/app\app_blue_courier_prot.c **** 
 175              		.loc 1 114 9
 114:C:/Users/stapi/OneDrive/Desktop/GD32VW553/V1_MQTT_OK/GD32VW55X_Wifi_BLE_SDK/GD32VW55x_RELEASE_V1.0.2/MSDK/ble/app\app_blue_courier_prot.c **** 
 176              		.loc 1 114 9
 177 0066 8D47     		li	a5,3
 178 0068 350B     		addi	s6,s6,13
 179 006a 63FFE700 		bleu	a4,a5,.L17
 114:C:/Users/stapi/OneDrive/Desktop/GD32VW553/V1_MQTT_OK/GD32VW55X_Wifi_BLE_SDK/GD32VW55x_RELEASE_V1.0.2/MSDK/ble/app\app_blue_courier_prot.c **** 
 180              		.loc 1 114 9 discriminator 1
 181 006e A687     		mv	a5,s1
 182 0070 FF1779C5 		maddr32	a5, s2, s7
 183 0074 33866401 		add	a2,s1,s6
 184 0078 13850D00 		addi	a0,s11,%lo(.LC2)
 185 007c 8385C703 		lb	a1,60(a5)
 186 0080 97000000 		call	co_printf
 186      E7800000 
 187              	.LVL12:
 188              	.L17:
 114:C:/Users/stapi/OneDrive/Desktop/GD32VW553/V1_MQTT_OK/GD32VW55X_Wifi_BLE_SDK/GD32VW55x_RELEASE_V1.0.2/MSDK/ble/app\app_blue_courier_prot.c **** 
 189              		.loc 1 114 9 discriminator 3
 116:C:/Users/stapi/OneDrive/Desktop/GD32VW553/V1_MQTT_OK/GD32VW55X_Wifi_BLE_SDK/GD32VW55x_RELEASE_V1.0.2/MSDK/ble/app\app_blue_courier_prot.c ****             dbg_print(INFO, "[OPEN]\n");
 190              		.loc 1 116 9 discriminator 3
 116:C:/Users/stapi/OneDrive/Desktop/GD32VW553/V1_MQTT_OK/GD32VW55X_Wifi_BLE_SDK/GD32VW55x_RELEASE_V1.0.2/MSDK/ble/app\app_blue_courier_prot.c ****             dbg_print(INFO, "[OPEN]\n");
 191              		.loc 1 116 19 is_stmt 0 discriminator 3
 192 0088 A687     		mv	a5,s1
 193 008a FF1779C5 		maddr32	a5, s2, s7
 194 008e DC5B     		lw	a5,52(a5)
 117:C:/Users/stapi/OneDrive/Desktop/GD32VW553/V1_MQTT_OK/GD32VW55X_Wifi_BLE_SDK/GD32VW55x_RELEASE_V1.0.2/MSDK/ble/app\app_blue_courier_prot.c ****             mode = 0;
 195              		.loc 1 117 13 discriminator 3
 196 0090 03C70900 		lbu	a4,%lo(global_debug_level)(s3)
 116:C:/Users/stapi/OneDrive/Desktop/GD32VW553/V1_MQTT_OK/GD32VW55X_Wifi_BLE_SDK/GD32VW55x_RELEASE_V1.0.2/MSDK/ble/app\app_blue_courier_prot.c ****             dbg_print(INFO, "[OPEN]\n");
 197              		.loc 1 116 25 discriminator 3
 198 0094 93F61700 		andi	a3,a5,1
 116:C:/Users/stapi/OneDrive/Desktop/GD32VW553/V1_MQTT_OK/GD32VW55X_Wifi_BLE_SDK/GD32VW55x_RELEASE_V1.0.2/MSDK/ble/app\app_blue_courier_prot.c ****             dbg_print(INFO, "[OPEN]\n");
 199              		.loc 1 116 12 discriminator 3
 200 0098 E5C2     		beq	a3,zero,.L18
 117:C:/Users/stapi/OneDrive/Desktop/GD32VW553/V1_MQTT_OK/GD32VW55X_Wifi_BLE_SDK/GD32VW55x_RELEASE_V1.0.2/MSDK/ble/app\app_blue_courier_prot.c ****             mode = 0;
 201              		.loc 1 117 13 is_stmt 1
 117:C:/Users/stapi/OneDrive/Desktop/GD32VW553/V1_MQTT_OK/GD32VW55X_Wifi_BLE_SDK/GD32VW55x_RELEASE_V1.0.2/MSDK/ble/app\app_blue_courier_prot.c ****             mode = 0;
 202              		.loc 1 117 13
 203 009a 8D47     		li	a5,3
 118:C:/Users/stapi/OneDrive/Desktop/GD32VW553/V1_MQTT_OK/GD32VW55X_Wifi_BLE_SDK/GD32VW55x_RELEASE_V1.0.2/MSDK/ble/app\app_blue_courier_prot.c ****         } else if (result->akm == CO_BIT(MAC_AKM_PRE_RSN)) {
 204              		.loc 1 118 18 is_stmt 0
 205 009c 014A     		li	s4,0
 117:C:/Users/stapi/OneDrive/Desktop/GD32VW553/V1_MQTT_OK/GD32VW55X_Wifi_BLE_SDK/GD32VW55x_RELEASE_V1.0.2/MSDK/ble/app\app_blue_courier_prot.c ****             mode = 0;
 206              		.loc 1 117 13
 207 009e 13050D00 		addi	a0,s10,%lo(.LC3)
 208 00a2 63E4E70E 		bgtu	a4,a5,.L39
 209              	.L19:
 210              	.LVL13:
 134:C:/Users/stapi/OneDrive/Desktop/GD32VW553/V1_MQTT_OK/GD32VW55X_Wifi_BLE_SDK/GD32VW55x_RELEASE_V1.0.2/MSDK/ble/app\app_blue_courier_prot.c ****         ntf_result[i++] = result->rssi;
 211              		.loc 1 134 9 is_stmt 1
 134:C:/Users/stapi/OneDrive/Desktop/GD32VW553/V1_MQTT_OK/GD32VW55X_Wifi_BLE_SDK/GD32VW55x_RELEASE_V1.0.2/MSDK/ble/app\app_blue_courier_prot.c ****         ntf_result[i++] = result->rssi;
 212              		.loc 1 134 25 is_stmt 0
 213 00a6 1C0C     		addi	a5,sp,528
 214 00a8 33878700 		add	a4,a5,s0
 134:C:/Users/stapi/OneDrive/Desktop/GD32VW553/V1_MQTT_OK/GD32VW55X_Wifi_BLE_SDK/GD32VW55x_RELEASE_V1.0.2/MSDK/ble/app\app_blue_courier_prot.c ****         ntf_result[i++] = result->rssi;
 215              		.loc 1 134 47
 216 00ac 83C7CA00 		lbu	a5,12(s5)
 137:C:/Users/stapi/OneDrive/Desktop/GD32VW553/V1_MQTT_OK/GD32VW55X_Wifi_BLE_SDK/GD32VW55x_RELEASE_V1.0.2/MSDK/ble/app\app_blue_courier_prot.c ****         i += result->ssid.length;
 217              		.loc 1 137 9
 218 00b0 B3856401 		add	a1,s1,s6
 134:C:/Users/stapi/OneDrive/Desktop/GD32VW553/V1_MQTT_OK/GD32VW55X_Wifi_BLE_SDK/GD32VW55x_RELEASE_V1.0.2/MSDK/ble/app\app_blue_courier_prot.c ****         ntf_result[i++] = result->rssi;
 219              		.loc 1 134 47
 220 00b4 8907     		addi	a5,a5,2
 134:C:/Users/stapi/OneDrive/Desktop/GD32VW553/V1_MQTT_OK/GD32VW55X_Wifi_BLE_SDK/GD32VW55x_RELEASE_V1.0.2/MSDK/ble/app\app_blue_courier_prot.c ****         ntf_result[i++] = result->rssi;
 221              		.loc 1 134 25
 222 00b6 2300F7E0 		sb	a5,-512(a4)
 135:C:/Users/stapi/OneDrive/Desktop/GD32VW553/V1_MQTT_OK/GD32VW55X_Wifi_BLE_SDK/GD32VW55x_RELEASE_V1.0.2/MSDK/ble/app\app_blue_courier_prot.c ****         ntf_result[i++] = mode;
 223              		.loc 1 135 9 is_stmt 1
 224              	.LVL14:
 134:C:/Users/stapi/OneDrive/Desktop/GD32VW553/V1_MQTT_OK/GD32VW55X_Wifi_BLE_SDK/GD32VW55x_RELEASE_V1.0.2/MSDK/ble/app\app_blue_courier_prot.c ****         ntf_result[i++] = result->rssi;
 225              		.loc 1 134 21 is_stmt 0
 226 00ba 93071400 		addi	a5,s0,1
 135:C:/Users/stapi/OneDrive/Desktop/GD32VW553/V1_MQTT_OK/GD32VW55X_Wifi_BLE_SDK/GD32VW55x_RELEASE_V1.0.2/MSDK/ble/app\app_blue_courier_prot.c ****         ntf_result[i++] = mode;
 227              		.loc 1 135 25
 228 00be 180C     		addi	a4,sp,528
 135:C:/Users/stapi/OneDrive/Desktop/GD32VW553/V1_MQTT_OK/GD32VW55X_Wifi_BLE_SDK/GD32VW55x_RELEASE_V1.0.2/MSDK/ble/app\app_blue_courier_prot.c ****         ntf_result[i++] = mode;
 229              		.loc 1 135 21
 230 00c0 B3C70708 		zext.h	a5,a5
 135:C:/Users/stapi/OneDrive/Desktop/GD32VW553/V1_MQTT_OK/GD32VW55X_Wifi_BLE_SDK/GD32VW55x_RELEASE_V1.0.2/MSDK/ble/app\app_blue_courier_prot.c ****         ntf_result[i++] = mode;
 231              		.loc 1 135 25
 232 00c4 BA97     		add	a5,a4,a5
 135:C:/Users/stapi/OneDrive/Desktop/GD32VW553/V1_MQTT_OK/GD32VW55X_Wifi_BLE_SDK/GD32VW55x_RELEASE_V1.0.2/MSDK/ble/app\app_blue_courier_prot.c ****         ntf_result[i++] = mode;
 233              		.loc 1 135 33
 234 00c6 2687     		mv	a4,s1
 235 00c8 7F1779C5 		maddr32	a4, s2, s7
 135:C:/Users/stapi/OneDrive/Desktop/GD32VW553/V1_MQTT_OK/GD32VW55X_Wifi_BLE_SDK/GD32VW55x_RELEASE_V1.0.2/MSDK/ble/app\app_blue_courier_prot.c ****         ntf_result[i++] = mode;
 236              		.loc 1 135 25
 237 00cc 0347C703 		lbu	a4,60(a4)
 238 00d0 2380E7E0 		sb	a4,-512(a5)
 136:C:/Users/stapi/OneDrive/Desktop/GD32VW553/V1_MQTT_OK/GD32VW55X_Wifi_BLE_SDK/GD32VW55x_RELEASE_V1.0.2/MSDK/ble/app\app_blue_courier_prot.c ****         sys_memcpy(&ntf_result[i], result->ssid.array, result->ssid.length);
 239              		.loc 1 136 9 is_stmt 1
 136:C:/Users/stapi/OneDrive/Desktop/GD32VW553/V1_MQTT_OK/GD32VW55X_Wifi_BLE_SDK/GD32VW55x_RELEASE_V1.0.2/MSDK/ble/app\app_blue_courier_prot.c ****         sys_memcpy(&ntf_result[i], result->ssid.array, result->ssid.length);
 240              		.loc 1 136 21 is_stmt 0
 241 00d4 93073400 		addi	a5,s0,3
 136:C:/Users/stapi/OneDrive/Desktop/GD32VW553/V1_MQTT_OK/GD32VW55X_Wifi_BLE_SDK/GD32VW55x_RELEASE_V1.0.2/MSDK/ble/app\app_blue_courier_prot.c ****         sys_memcpy(&ntf_result[i], result->ssid.array, result->ssid.length);
 242              		.loc 1 136 25
 243 00d8 180C     		addi	a4,sp,528
 135:C:/Users/stapi/OneDrive/Desktop/GD32VW553/V1_MQTT_OK/GD32VW55X_Wifi_BLE_SDK/GD32VW55x_RELEASE_V1.0.2/MSDK/ble/app\app_blue_courier_prot.c ****         ntf_result[i++] = mode;
 244              		.loc 1 135 21
 245 00da 0904     		addi	s0,s0,2
 246              	.LVL15:
 136:C:/Users/stapi/OneDrive/Desktop/GD32VW553/V1_MQTT_OK/GD32VW55X_Wifi_BLE_SDK/GD32VW55x_RELEASE_V1.0.2/MSDK/ble/app\app_blue_courier_prot.c ****         sys_memcpy(&ntf_result[i], result->ssid.array, result->ssid.length);
 247              		.loc 1 136 21
 248 00dc 33440408 		zext.h	s0,s0
 136:C:/Users/stapi/OneDrive/Desktop/GD32VW553/V1_MQTT_OK/GD32VW55X_Wifi_BLE_SDK/GD32VW55x_RELEASE_V1.0.2/MSDK/ble/app\app_blue_courier_prot.c ****         sys_memcpy(&ntf_result[i], result->ssid.array, result->ssid.length);
 249              		.loc 1 136 25
 250 00e0 3A94     		add	s0,a4,s0
 251 00e2 230044E1 		sb	s4,-512(s0)
 137:C:/Users/stapi/OneDrive/Desktop/GD32VW553/V1_MQTT_OK/GD32VW55X_Wifi_BLE_SDK/GD32VW55x_RELEASE_V1.0.2/MSDK/ble/app\app_blue_courier_prot.c ****         i += result->ssid.length;
 252              		.loc 1 137 9
 253 00e6 03C6CA00 		lbu	a2,12(s5)
 254 00ea 1808     		addi	a4,sp,16
 136:C:/Users/stapi/OneDrive/Desktop/GD32VW553/V1_MQTT_OK/GD32VW55X_Wifi_BLE_SDK/GD32VW55x_RELEASE_V1.0.2/MSDK/ble/app\app_blue_courier_prot.c ****         sys_memcpy(&ntf_result[i], result->ssid.array, result->ssid.length);
 255              		.loc 1 136 21
 256 00ec B3C70708 		zext.h	a5,a5
 257              	.LVL16:
 137:C:/Users/stapi/OneDrive/Desktop/GD32VW553/V1_MQTT_OK/GD32VW55X_Wifi_BLE_SDK/GD32VW55x_RELEASE_V1.0.2/MSDK/ble/app\app_blue_courier_prot.c ****         i += result->ssid.length;
 258              		.loc 1 137 9 is_stmt 1
 259 00f0 3305F700 		add	a0,a4,a5
 260 00f4 3EC6     		sw	a5,12(sp)
 261 00f6 97000000 		call	sys_memcpy
 261      E7800000 
 262              	.LVL17:
 138:C:/Users/stapi/OneDrive/Desktop/GD32VW553/V1_MQTT_OK/GD32VW55X_Wifi_BLE_SDK/GD32VW55x_RELEASE_V1.0.2/MSDK/ble/app\app_blue_courier_prot.c ****     }
 263              		.loc 1 138 9
 138:C:/Users/stapi/OneDrive/Desktop/GD32VW553/V1_MQTT_OK/GD32VW55X_Wifi_BLE_SDK/GD32VW55x_RELEASE_V1.0.2/MSDK/ble/app\app_blue_courier_prot.c ****     }
 264              		.loc 1 138 11 is_stmt 0
 265 00fe B247     		lw	a5,12(sp)
 138:C:/Users/stapi/OneDrive/Desktop/GD32VW553/V1_MQTT_OK/GD32VW55X_Wifi_BLE_SDK/GD32VW55x_RELEASE_V1.0.2/MSDK/ble/app\app_blue_courier_prot.c ****     }
 266              		.loc 1 138 26
 267 0100 03C4CA00 		lbu	s0,12(s5)
 138:C:/Users/stapi/OneDrive/Desktop/GD32VW553/V1_MQTT_OK/GD32VW55X_Wifi_BLE_SDK/GD32VW55x_RELEASE_V1.0.2/MSDK/ble/app\app_blue_courier_prot.c ****     }
 268              		.loc 1 138 11
 269 0104 A297     		add	a5,a5,s0
 270 0106 33C40708 		zext.h	s0,a5
 271              	.LVL18:
 272              	.L12:
 101:C:/Users/stapi/OneDrive/Desktop/GD32VW553/V1_MQTT_OK/GD32VW55X_Wifi_BLE_SDK/GD32VW55x_RELEASE_V1.0.2/MSDK/ble/app\app_blue_courier_prot.c ****         result = &results->result[j];
 273              		.loc 1 101 42 is_stmt 1 discriminator 2
 101:C:/Users/stapi/OneDrive/Desktop/GD32VW553/V1_MQTT_OK/GD32VW55X_Wifi_BLE_SDK/GD32VW55x_RELEASE_V1.0.2/MSDK/ble/app\app_blue_courier_prot.c ****         result = &results->result[j];
 274              		.loc 1 101 43 is_stmt 0 discriminator 2
 275 010a 0509     		addi	s2,s2,1
 276              	.LVL19:
 277 010c 33490908 		zext.h	s2,s2
 278              	.LVL20:
 279              	.L10:
 101:C:/Users/stapi/OneDrive/Desktop/GD32VW553/V1_MQTT_OK/GD32VW55X_Wifi_BLE_SDK/GD32VW55x_RELEASE_V1.0.2/MSDK/ble/app\app_blue_courier_prot.c ****         result = &results->result[j];
 280              		.loc 1 101 17 is_stmt 1 discriminator 1
 101:C:/Users/stapi/OneDrive/Desktop/GD32VW553/V1_MQTT_OK/GD32VW55X_Wifi_BLE_SDK/GD32VW55x_RELEASE_V1.0.2/MSDK/ble/app\app_blue_courier_prot.c ****         result = &results->result[j];
 281              		.loc 1 101 28 is_stmt 0 discriminator 1
 282 0110 8C40     		lw	a1,0(s1)
 101:C:/Users/stapi/OneDrive/Desktop/GD32VW553/V1_MQTT_OK/GD32VW55X_Wifi_BLE_SDK/GD32VW55x_RELEASE_V1.0.2/MSDK/ble/app\app_blue_courier_prot.c ****         result = &results->result[j];
 283              		.loc 1 101 5 discriminator 1
 284 0112 6378B902 		bgeu	s2,a1,.L24
 102:C:/Users/stapi/OneDrive/Desktop/GD32VW553/V1_MQTT_OK/GD32VW55X_Wifi_BLE_SDK/GD32VW55x_RELEASE_V1.0.2/MSDK/ble/app\app_blue_courier_prot.c ****         if (result->ssid.length < sizeof(result->ssid.array))
 285              		.loc 1 102 9 is_stmt 1
 286              	.LVL21:
 103:C:/Users/stapi/OneDrive/Desktop/GD32VW553/V1_MQTT_OK/GD32VW55X_Wifi_BLE_SDK/GD32VW55x_RELEASE_V1.0.2/MSDK/ble/app\app_blue_courier_prot.c ****             result->ssid.array[result->ssid.length] = '\0';
 287              		.loc 1 103 9
 288 0116 330B7903 		mul	s6,s2,s7
 103:C:/Users/stapi/OneDrive/Desktop/GD32VW553/V1_MQTT_OK/GD32VW55X_Wifi_BLE_SDK/GD32VW55x_RELEASE_V1.0.2/MSDK/ble/app\app_blue_courier_prot.c ****             result->ssid.array[result->ssid.length] = '\0';
 289              		.loc 1 103 12 is_stmt 0
 290 011a 93060002 		li	a3,32
 291 011e B38A6401 		add	s5,s1,s6
 103:C:/Users/stapi/OneDrive/Desktop/GD32VW553/V1_MQTT_OK/GD32VW55X_Wifi_BLE_SDK/GD32VW55x_RELEASE_V1.0.2/MSDK/ble/app\app_blue_courier_prot.c ****             result->ssid.array[result->ssid.length] = '\0';
 292              		.loc 1 103 25
 293 0122 83C7CA00 		lbu	a5,12(s5)
 294 0126 3387FA00 		add	a4,s5,a5
 103:C:/Users/stapi/OneDrive/Desktop/GD32VW553/V1_MQTT_OK/GD32VW55X_Wifi_BLE_SDK/GD32VW55x_RELEASE_V1.0.2/MSDK/ble/app\app_blue_courier_prot.c ****             result->ssid.array[result->ssid.length] = '\0';
 295              		.loc 1 103 12
 296 012a E3EBF6F2 		bgtu	a5,a3,.L11
 104:C:/Users/stapi/OneDrive/Desktop/GD32VW553/V1_MQTT_OK/GD32VW55X_Wifi_BLE_SDK/GD32VW55x_RELEASE_V1.0.2/MSDK/ble/app\app_blue_courier_prot.c ****         else
 297              		.loc 1 104 13 is_stmt 1
 104:C:/Users/stapi/OneDrive/Desktop/GD32VW553/V1_MQTT_OK/GD32VW55X_Wifi_BLE_SDK/GD32VW55x_RELEASE_V1.0.2/MSDK/ble/app\app_blue_courier_prot.c ****         else
 298              		.loc 1 104 53 is_stmt 0
 299 012e A3060700 		sb	zero,13(a4)
 108:C:/Users/stapi/OneDrive/Desktop/GD32VW553/V1_MQTT_OK/GD32VW55X_Wifi_BLE_SDK/GD32VW55x_RELEASE_V1.0.2/MSDK/ble/app\app_blue_courier_prot.c ****             continue;
 300              		.loc 1 108 9 is_stmt 1
 108:C:/Users/stapi/OneDrive/Desktop/GD32VW553/V1_MQTT_OK/GD32VW55X_Wifi_BLE_SDK/GD32VW55x_RELEASE_V1.0.2/MSDK/ble/app\app_blue_courier_prot.c ****             continue;
 301              		.loc 1 108 12 is_stmt 0
 302 0132 E1DF     		beq	a5,zero,.L12
 303              	.L13:
 111:C:/Users/stapi/OneDrive/Desktop/GD32VW553/V1_MQTT_OK/GD32VW55X_Wifi_BLE_SDK/GD32VW55x_RELEASE_V1.0.2/MSDK/ble/app\app_blue_courier_prot.c ****             break;
 304              		.loc 1 111 9 is_stmt 1
 111:C:/Users/stapi/OneDrive/Desktop/GD32VW553/V1_MQTT_OK/GD32VW55X_Wifi_BLE_SDK/GD32VW55x_RELEASE_V1.0.2/MSDK/ble/app\app_blue_courier_prot.c ****             break;
 305              		.loc 1 111 15 is_stmt 0
 306 0134 A297     		add	a5,s0,a5
 111:C:/Users/stapi/OneDrive/Desktop/GD32VW553/V1_MQTT_OK/GD32VW55X_Wifi_BLE_SDK/GD32VW55x_RELEASE_V1.0.2/MSDK/ble/app\app_blue_courier_prot.c ****             break;
 307              		.loc 1 111 12
 308 0136 9306D01F 		li	a3,509
 114:C:/Users/stapi/OneDrive/Desktop/GD32VW553/V1_MQTT_OK/GD32VW55X_Wifi_BLE_SDK/GD32VW55x_RELEASE_V1.0.2/MSDK/ble/app\app_blue_courier_prot.c **** 
 309              		.loc 1 114 9
 310 013a 03C70900 		lbu	a4,%lo(global_debug_level)(s3)
 111:C:/Users/stapi/OneDrive/Desktop/GD32VW553/V1_MQTT_OK/GD32VW55X_Wifi_BLE_SDK/GD32VW55x_RELEASE_V1.0.2/MSDK/ble/app\app_blue_courier_prot.c ****             break;
 311              		.loc 1 111 12
 312 013e E3D4F6F2 		ble	a5,a3,.L14
 313              	.LVL22:
 314              	.L24:
 141:C:/Users/stapi/OneDrive/Desktop/GD32VW553/V1_MQTT_OK/GD32VW55X_Wifi_BLE_SDK/GD32VW55x_RELEASE_V1.0.2/MSDK/ble/app\app_blue_courier_prot.c ****     sys_mfree(results);
 315              		.loc 1 141 5 is_stmt 1
 141:C:/Users/stapi/OneDrive/Desktop/GD32VW553/V1_MQTT_OK/GD32VW55X_Wifi_BLE_SDK/GD32VW55x_RELEASE_V1.0.2/MSDK/ble/app\app_blue_courier_prot.c ****     sys_mfree(results);
 316              		.loc 1 141 5
 317 0142 03C70900 		lbu	a4,%lo(global_debug_level)(s3)
 318 0146 8D47     		li	a5,3
 319 0148 63FAE700 		bleu	a4,a5,.L16
 141:C:/Users/stapi/OneDrive/Desktop/GD32VW553/V1_MQTT_OK/GD32VW55X_Wifi_BLE_SDK/GD32VW55x_RELEASE_V1.0.2/MSDK/ble/app\app_blue_courier_prot.c ****     sys_mfree(results);
 320              		.loc 1 141 5 discriminator 1
 321 014c 37050000 		lui	a0,%hi(.LC8)
 322 0150 13050500 		addi	a0,a0,%lo(.LC8)
 323 0154 97000000 		call	co_printf
 323      E7800000 
 324              	.LVL23:
 325              	.L16:
 141:C:/Users/stapi/OneDrive/Desktop/GD32VW553/V1_MQTT_OK/GD32VW55X_Wifi_BLE_SDK/GD32VW55x_RELEASE_V1.0.2/MSDK/ble/app\app_blue_courier_prot.c ****     sys_mfree(results);
 326              		.loc 1 141 5 discriminator 3
 142:C:/Users/stapi/OneDrive/Desktop/GD32VW553/V1_MQTT_OK/GD32VW55X_Wifi_BLE_SDK/GD32VW55x_RELEASE_V1.0.2/MSDK/ble/app\app_blue_courier_prot.c **** 
 327              		.loc 1 142 5 discriminator 3
 328 015c 2685     		mv	a0,s1
 329 015e 97000000 		call	sys_mfree
 329      E7800000 
 330              	.LVL24:
 144:C:/Users/stapi/OneDrive/Desktop/GD32VW553/V1_MQTT_OK/GD32VW55X_Wifi_BLE_SDK/GD32VW55x_RELEASE_V1.0.2/MSDK/ble/app\app_blue_courier_prot.c **** }
 331              		.loc 1 144 5 discriminator 3
 332 0166 2286     		mv	a2,s0
 333 0168 0C08     		addi	a1,sp,16
 334 016a 13051004 		li	a0,65
 335 016e 97000000 		call	bcwl_send
 335      E7800000 
 336              	.LVL25:
 337 0176 F9BD     		j	.L7
 338              	.LVL26:
 339              	.L18:
 119:C:/Users/stapi/OneDrive/Desktop/GD32VW553/V1_MQTT_OK/GD32VW55X_Wifi_BLE_SDK/GD32VW55x_RELEASE_V1.0.2/MSDK/ble/app\app_blue_courier_prot.c ****             dbg_print(INFO, "[WEP]\n");
 340              		.loc 1 119 16
 119:C:/Users/stapi/OneDrive/Desktop/GD32VW553/V1_MQTT_OK/GD32VW55X_Wifi_BLE_SDK/GD32VW55x_RELEASE_V1.0.2/MSDK/ble/app\app_blue_courier_prot.c ****             dbg_print(INFO, "[WEP]\n");
 341              		.loc 1 119 19 is_stmt 0
 342 0178 8946     		li	a3,2
 343 017a 639DD700 		bne	a5,a3,.L20
 120:C:/Users/stapi/OneDrive/Desktop/GD32VW553/V1_MQTT_OK/GD32VW55X_Wifi_BLE_SDK/GD32VW55x_RELEASE_V1.0.2/MSDK/ble/app\app_blue_courier_prot.c ****             mode = 1;
 344              		.loc 1 120 13 is_stmt 1
 120:C:/Users/stapi/OneDrive/Desktop/GD32VW553/V1_MQTT_OK/GD32VW55X_Wifi_BLE_SDK/GD32VW55x_RELEASE_V1.0.2/MSDK/ble/app\app_blue_courier_prot.c ****             mode = 1;
 345              		.loc 1 120 13
 346 017e 8D47     		li	a5,3
 121:C:/Users/stapi/OneDrive/Desktop/GD32VW553/V1_MQTT_OK/GD32VW55X_Wifi_BLE_SDK/GD32VW55x_RELEASE_V1.0.2/MSDK/ble/app\app_blue_courier_prot.c ****         } else if (result->akm & CO_BIT(MAC_AKM_WAPI_CERT) || result->akm & CO_BIT(MAC_AKM_WAPI_PSK
 347              		.loc 1 121 18 is_stmt 0
 348 0180 054A     		li	s4,1
 120:C:/Users/stapi/OneDrive/Desktop/GD32VW553/V1_MQTT_OK/GD32VW55X_Wifi_BLE_SDK/GD32VW55x_RELEASE_V1.0.2/MSDK/ble/app\app_blue_courier_prot.c ****             mode = 1;
 349              		.loc 1 120 13
 350 0182 13850C00 		addi	a0,s9,%lo(.LC4)
 351 0186 E3F0E7F2 		bleu	a4,a5,.L19
 352              	.L39:
 129:C:/Users/stapi/OneDrive/Desktop/GD32VW553/V1_MQTT_OK/GD32VW55X_Wifi_BLE_SDK/GD32VW55x_RELEASE_V1.0.2/MSDK/ble/app\app_blue_courier_prot.c ****             mode = 4;
 353              		.loc 1 129 13 discriminator 1
 354 018a 97000000 		call	co_printf
 354      E7800000 
 355              	.LVL27:
 356 0192 11BF     		j	.L19
 357              	.L20:
 122:C:/Users/stapi/OneDrive/Desktop/GD32VW553/V1_MQTT_OK/GD32VW55X_Wifi_BLE_SDK/GD32VW55x_RELEASE_V1.0.2/MSDK/ble/app\app_blue_courier_prot.c ****             dbg_print(INFO, "[WAPI]\n");
 358              		.loc 1 122 16 is_stmt 1
 122:C:/Users/stapi/OneDrive/Desktop/GD32VW553/V1_MQTT_OK/GD32VW55X_Wifi_BLE_SDK/GD32VW55x_RELEASE_V1.0.2/MSDK/ble/app\app_blue_courier_prot.c ****             dbg_print(INFO, "[WAPI]\n");
 359              		.loc 1 122 60 is_stmt 0
 360 0194 B7060C00 		li	a3,786432
 361 0198 FD8E     		and	a3,a5,a3
 122:C:/Users/stapi/OneDrive/Desktop/GD32VW553/V1_MQTT_OK/GD32VW55X_Wifi_BLE_SDK/GD32VW55x_RELEASE_V1.0.2/MSDK/ble/app\app_blue_courier_prot.c ****             dbg_print(INFO, "[WAPI]\n");
 362              		.loc 1 122 19
 363 019a 81CA     		beq	a3,zero,.L21
 123:C:/Users/stapi/OneDrive/Desktop/GD32VW553/V1_MQTT_OK/GD32VW55X_Wifi_BLE_SDK/GD32VW55x_RELEASE_V1.0.2/MSDK/ble/app\app_blue_courier_prot.c ****             mode = 2;
 364              		.loc 1 123 13 is_stmt 1
 123:C:/Users/stapi/OneDrive/Desktop/GD32VW553/V1_MQTT_OK/GD32VW55X_Wifi_BLE_SDK/GD32VW55x_RELEASE_V1.0.2/MSDK/ble/app\app_blue_courier_prot.c ****             mode = 2;
 365              		.loc 1 123 13
 366 019c 8D47     		li	a5,3
 124:C:/Users/stapi/OneDrive/Desktop/GD32VW553/V1_MQTT_OK/GD32VW55X_Wifi_BLE_SDK/GD32VW55x_RELEASE_V1.0.2/MSDK/ble/app\app_blue_courier_prot.c ****         } else if (result->akm & CO_BIT(MAC_AKM_PRE_RSN)) {
 367              		.loc 1 124 18 is_stmt 0
 368 019e 094A     		li	s4,2
 123:C:/Users/stapi/OneDrive/Desktop/GD32VW553/V1_MQTT_OK/GD32VW55X_Wifi_BLE_SDK/GD32VW55x_RELEASE_V1.0.2/MSDK/ble/app\app_blue_courier_prot.c ****             mode = 2;
 369              		.loc 1 123 13
 370 01a0 13050C00 		addi	a0,s8,%lo(.LC5)
 371 01a4 E3F1E7F0 		bleu	a4,a5,.L19
 372 01a8 CDB7     		j	.L39
 373              	.L21:
 125:C:/Users/stapi/OneDrive/Desktop/GD32VW553/V1_MQTT_OK/GD32VW55X_Wifi_BLE_SDK/GD32VW55x_RELEASE_V1.0.2/MSDK/ble/app\app_blue_courier_prot.c ****             dbg_print(INFO, "[WPA]\n");
 374              		.loc 1 125 16 is_stmt 1
 125:C:/Users/stapi/OneDrive/Desktop/GD32VW553/V1_MQTT_OK/GD32VW55X_Wifi_BLE_SDK/GD32VW55x_RELEASE_V1.0.2/MSDK/ble/app\app_blue_courier_prot.c ****             dbg_print(INFO, "[WPA]\n");
 375              		.loc 1 125 32 is_stmt 0
 376 01aa 898B     		andi	a5,a5,2
 125:C:/Users/stapi/OneDrive/Desktop/GD32VW553/V1_MQTT_OK/GD32VW55X_Wifi_BLE_SDK/GD32VW55x_RELEASE_V1.0.2/MSDK/ble/app\app_blue_courier_prot.c ****             dbg_print(INFO, "[WPA]\n");
 377              		.loc 1 125 19
 378 01ac 89CB     		beq	a5,zero,.L22
 126:C:/Users/stapi/OneDrive/Desktop/GD32VW553/V1_MQTT_OK/GD32VW55X_Wifi_BLE_SDK/GD32VW55x_RELEASE_V1.0.2/MSDK/ble/app\app_blue_courier_prot.c ****             mode = 3;
 379              		.loc 1 126 13 is_stmt 1
 126:C:/Users/stapi/OneDrive/Desktop/GD32VW553/V1_MQTT_OK/GD32VW55X_Wifi_BLE_SDK/GD32VW55x_RELEASE_V1.0.2/MSDK/ble/app\app_blue_courier_prot.c ****             mode = 3;
 380              		.loc 1 126 13
 127:C:/Users/stapi/OneDrive/Desktop/GD32VW553/V1_MQTT_OK/GD32VW55X_Wifi_BLE_SDK/GD32VW55x_RELEASE_V1.0.2/MSDK/ble/app\app_blue_courier_prot.c ****         } else {
 381              		.loc 1 127 18 is_stmt 0
 382 01ae 0D4A     		li	s4,3
 126:C:/Users/stapi/OneDrive/Desktop/GD32VW553/V1_MQTT_OK/GD32VW55X_Wifi_BLE_SDK/GD32VW55x_RELEASE_V1.0.2/MSDK/ble/app\app_blue_courier_prot.c ****             mode = 3;
 383              		.loc 1 126 13
 384 01b0 E37BEAEE 		bleu	a4,s4,.L19
 126:C:/Users/stapi/OneDrive/Desktop/GD32VW553/V1_MQTT_OK/GD32VW55X_Wifi_BLE_SDK/GD32VW55x_RELEASE_V1.0.2/MSDK/ble/app\app_blue_courier_prot.c ****             mode = 3;
 385              		.loc 1 126 13 is_stmt 1 discriminator 1
 386 01b4 B7070000 		lui	a5,%hi(.LC6)
 387 01b8 13850700 		addi	a0,a5,%lo(.LC6)
 388 01bc F9B7     		j	.L39
 389              	.L22:
 129:C:/Users/stapi/OneDrive/Desktop/GD32VW553/V1_MQTT_OK/GD32VW55X_Wifi_BLE_SDK/GD32VW55x_RELEASE_V1.0.2/MSDK/ble/app\app_blue_courier_prot.c ****             mode = 4;
 390              		.loc 1 129 13
 129:C:/Users/stapi/OneDrive/Desktop/GD32VW553/V1_MQTT_OK/GD32VW55X_Wifi_BLE_SDK/GD32VW55x_RELEASE_V1.0.2/MSDK/ble/app\app_blue_courier_prot.c ****             mode = 4;
 391              		.loc 1 129 13
 392 01be 8D47     		li	a5,3
 130:C:/Users/stapi/OneDrive/Desktop/GD32VW553/V1_MQTT_OK/GD32VW55X_Wifi_BLE_SDK/GD32VW55x_RELEASE_V1.0.2/MSDK/ble/app\app_blue_courier_prot.c ****         }
 393              		.loc 1 130 18 is_stmt 0
 394 01c0 114A     		li	s4,4
 129:C:/Users/stapi/OneDrive/Desktop/GD32VW553/V1_MQTT_OK/GD32VW55X_Wifi_BLE_SDK/GD32VW55x_RELEASE_V1.0.2/MSDK/ble/app\app_blue_courier_prot.c ****             mode = 4;
 395              		.loc 1 129 13
 396 01c2 E3F2E7EE 		bleu	a4,a5,.L19
 129:C:/Users/stapi/OneDrive/Desktop/GD32VW553/V1_MQTT_OK/GD32VW55X_Wifi_BLE_SDK/GD32VW55x_RELEASE_V1.0.2/MSDK/ble/app\app_blue_courier_prot.c ****             mode = 4;
 397              		.loc 1 129 13 is_stmt 1 discriminator 1
 398 01c6 B7070000 		lui	a5,%hi(.LC7)
 399 01ca 13850700 		addi	a0,a5,%lo(.LC7)
 400 01ce 75BF     		j	.L39
 401              	.LVL28:
 402              	.L26:
 101:C:/Users/stapi/OneDrive/Desktop/GD32VW553/V1_MQTT_OK/GD32VW55X_Wifi_BLE_SDK/GD32VW55x_RELEASE_V1.0.2/MSDK/ble/app\app_blue_courier_prot.c ****         result = &results->result[j];
 403              		.loc 1 101 12 is_stmt 0
 404 01d0 0149     		li	s2,0
  87:C:/Users/stapi/OneDrive/Desktop/GD32VW553/V1_MQTT_OK/GD32VW55X_Wifi_BLE_SDK/GD32VW55x_RELEASE_V1.0.2/MSDK/ble/app\app_blue_courier_prot.c ****     uint8_t mode = 0;
 405              		.loc 1 87 14
 406 01d2 0144     		li	s0,0
 407 01d4 930BC003 		li	s7,60
 123:C:/Users/stapi/OneDrive/Desktop/GD32VW553/V1_MQTT_OK/GD32VW55X_Wifi_BLE_SDK/GD32VW55x_RELEASE_V1.0.2/MSDK/ble/app\app_blue_courier_prot.c ****             mode = 2;
 408              		.loc 1 123 13
 409 01d8 370C0000 		lui	s8,%hi(.LC5)
 120:C:/Users/stapi/OneDrive/Desktop/GD32VW553/V1_MQTT_OK/GD32VW55X_Wifi_BLE_SDK/GD32VW55x_RELEASE_V1.0.2/MSDK/ble/app\app_blue_courier_prot.c ****             mode = 1;
 410              		.loc 1 120 13
 411 01dc B70C0000 		lui	s9,%hi(.LC4)
 117:C:/Users/stapi/OneDrive/Desktop/GD32VW553/V1_MQTT_OK/GD32VW55X_Wifi_BLE_SDK/GD32VW55x_RELEASE_V1.0.2/MSDK/ble/app\app_blue_courier_prot.c ****             mode = 0;
 412              		.loc 1 117 13
 413 01e0 370D0000 		lui	s10,%hi(.LC3)
 114:C:/Users/stapi/OneDrive/Desktop/GD32VW553/V1_MQTT_OK/GD32VW55X_Wifi_BLE_SDK/GD32VW55x_RELEASE_V1.0.2/MSDK/ble/app\app_blue_courier_prot.c **** 
 414              		.loc 1 114 9
 415 01e4 B70D0000 		lui	s11,%hi(.LC2)
 416 01e8 25B7     		j	.L10
 417              		.cfi_endproc
 418              	.LFE15:
 420              		.section	.text.bcwp_cb_scan_done,"ax",@progbits
 421              		.align	1
 423              	bcwp_cb_scan_done:
 424              	.LFB16:
 155:C:/Users/stapi/OneDrive/Desktop/GD32VW553/V1_MQTT_OK/GD32VW55X_Wifi_BLE_SDK/GD32VW55x_RELEASE_V1.0.2/MSDK/ble/app\app_blue_courier_prot.c ****     bcwp_wifi_scan_list_get();
 425              		.loc 1 155 1 is_stmt 1
 426              		.cfi_startproc
 427              	.LVL29:
 428 0000 17030000 		call	t0,__riscv_save_0
 428      E7020300 
 429              		.cfi_offset 1, -4
 430              		.cfi_def_cfa_offset 16
 156:C:/Users/stapi/OneDrive/Desktop/GD32VW553/V1_MQTT_OK/GD32VW55X_Wifi_BLE_SDK/GD32VW55x_RELEASE_V1.0.2/MSDK/ble/app\app_blue_courier_prot.c ****     eloop_event_unregister(WIFI_MGMT_EVENT_SCAN_DONE);
 431              		.loc 1 156 5
 432 0008 97000000 		call	bcwp_wifi_scan_list_get
 432      E7800000 
 433              	.LVL30:
 157:C:/Users/stapi/OneDrive/Desktop/GD32VW553/V1_MQTT_OK/GD32VW55X_Wifi_BLE_SDK/GD32VW55x_RELEASE_V1.0.2/MSDK/ble/app\app_blue_courier_prot.c ****     eloop_event_unregister(WIFI_MGMT_EVENT_SCAN_FAIL);
 434              		.loc 1 157 5
 435 0010 3945     		li	a0,14
 436 0012 97000000 		call	eloop_event_unregister
 436      E7800000 
 437              	.LVL31:
 158:C:/Users/stapi/OneDrive/Desktop/GD32VW553/V1_MQTT_OK/GD32VW55X_Wifi_BLE_SDK/GD32VW55x_RELEASE_V1.0.2/MSDK/ble/app\app_blue_courier_prot.c **** }
 438              		.loc 1 158 5
 439 001a 3D45     		li	a0,15
 440 001c 97000000 		call	eloop_event_unregister
 440      E7800000 
 441              	.LVL32:
 159:C:/Users/stapi/OneDrive/Desktop/GD32VW553/V1_MQTT_OK/GD32VW55X_Wifi_BLE_SDK/GD32VW55x_RELEASE_V1.0.2/MSDK/ble/app\app_blue_courier_prot.c **** 
 442              		.loc 1 159 1 is_stmt 0
 443 0024 17030000 		tail	__riscv_restore_0
 443      67000300 
 444              		.cfi_restore 1
 445              		.cfi_def_cfa_offset 0
 446              		.cfi_endproc
 447              	.LFE16:
 449              		.section	.text.bcwp_wifi_connect_success,"ax",@progbits
 450              		.align	1
 452              	bcwp_wifi_connect_success:
 453              	.LFB20:
 174:C:/Users/stapi/OneDrive/Desktop/GD32VW553/V1_MQTT_OK/GD32VW55X_Wifi_BLE_SDK/GD32VW55x_RELEASE_V1.0.2/MSDK/ble/app\app_blue_courier_prot.c **** 
 175:C:/Users/stapi/OneDrive/Desktop/GD32VW553/V1_MQTT_OK/GD32VW55X_Wifi_BLE_SDK/GD32VW55x_RELEASE_V1.0.2/MSDK/ble/app\app_blue_courier_prot.c **** /*!
 176:C:/Users/stapi/OneDrive/Desktop/GD32VW553/V1_MQTT_OK/GD32VW55X_Wifi_BLE_SDK/GD32VW55x_RELEASE_V1.0.2/MSDK/ble/app\app_blue_courier_prot.c ****     \brief      Blue courier triggers wifi scan in station mode
 177:C:/Users/stapi/OneDrive/Desktop/GD32VW553/V1_MQTT_OK/GD32VW55X_Wifi_BLE_SDK/GD32VW55x_RELEASE_V1.0.2/MSDK/ble/app\app_blue_courier_prot.c ****     \param[in]  none
 178:C:/Users/stapi/OneDrive/Desktop/GD32VW553/V1_MQTT_OK/GD32VW55X_Wifi_BLE_SDK/GD32VW55x_RELEASE_V1.0.2/MSDK/ble/app\app_blue_courier_prot.c ****     \param[out] none
 179:C:/Users/stapi/OneDrive/Desktop/GD32VW553/V1_MQTT_OK/GD32VW55X_Wifi_BLE_SDK/GD32VW55x_RELEASE_V1.0.2/MSDK/ble/app\app_blue_courier_prot.c ****     \retval     none
 180:C:/Users/stapi/OneDrive/Desktop/GD32VW553/V1_MQTT_OK/GD32VW55X_Wifi_BLE_SDK/GD32VW55x_RELEASE_V1.0.2/MSDK/ble/app\app_blue_courier_prot.c **** */
 181:C:/Users/stapi/OneDrive/Desktop/GD32VW553/V1_MQTT_OK/GD32VW55X_Wifi_BLE_SDK/GD32VW55x_RELEASE_V1.0.2/MSDK/ble/app\app_blue_courier_prot.c **** static void bcwp_wifi_scan(void)
 182:C:/Users/stapi/OneDrive/Desktop/GD32VW553/V1_MQTT_OK/GD32VW55X_Wifi_BLE_SDK/GD32VW55x_RELEASE_V1.0.2/MSDK/ble/app\app_blue_courier_prot.c **** {
 183:C:/Users/stapi/OneDrive/Desktop/GD32VW553/V1_MQTT_OK/GD32VW55X_Wifi_BLE_SDK/GD32VW55x_RELEASE_V1.0.2/MSDK/ble/app\app_blue_courier_prot.c ****     eloop_event_register(WIFI_MGMT_EVENT_SCAN_DONE, bcwp_cb_scan_done, NULL, NULL);
 184:C:/Users/stapi/OneDrive/Desktop/GD32VW553/V1_MQTT_OK/GD32VW55X_Wifi_BLE_SDK/GD32VW55x_RELEASE_V1.0.2/MSDK/ble/app\app_blue_courier_prot.c ****     eloop_event_register(WIFI_MGMT_EVENT_SCAN_FAIL, bcwp_cb_scan_fail, NULL, NULL);
 185:C:/Users/stapi/OneDrive/Desktop/GD32VW553/V1_MQTT_OK/GD32VW55X_Wifi_BLE_SDK/GD32VW55x_RELEASE_V1.0.2/MSDK/ble/app\app_blue_courier_prot.c **** 
 186:C:/Users/stapi/OneDrive/Desktop/GD32VW553/V1_MQTT_OK/GD32VW55X_Wifi_BLE_SDK/GD32VW55x_RELEASE_V1.0.2/MSDK/ble/app\app_blue_courier_prot.c ****     if (wifi_management_scan(false, NULL) == -1) {
 187:C:/Users/stapi/OneDrive/Desktop/GD32VW553/V1_MQTT_OK/GD32VW55X_Wifi_BLE_SDK/GD32VW55x_RELEASE_V1.0.2/MSDK/ble/app\app_blue_courier_prot.c ****         eloop_event_unregister(WIFI_MGMT_EVENT_SCAN_DONE);
 188:C:/Users/stapi/OneDrive/Desktop/GD32VW553/V1_MQTT_OK/GD32VW55X_Wifi_BLE_SDK/GD32VW55x_RELEASE_V1.0.2/MSDK/ble/app\app_blue_courier_prot.c ****         eloop_event_unregister(WIFI_MGMT_EVENT_SCAN_FAIL);
 189:C:/Users/stapi/OneDrive/Desktop/GD32VW553/V1_MQTT_OK/GD32VW55X_Wifi_BLE_SDK/GD32VW55x_RELEASE_V1.0.2/MSDK/ble/app\app_blue_courier_prot.c ****         dbg_print(ERR, "ble config wifi scan failed\r\n");
 190:C:/Users/stapi/OneDrive/Desktop/GD32VW553/V1_MQTT_OK/GD32VW55X_Wifi_BLE_SDK/GD32VW55x_RELEASE_V1.0.2/MSDK/ble/app\app_blue_courier_prot.c ****     }
 191:C:/Users/stapi/OneDrive/Desktop/GD32VW553/V1_MQTT_OK/GD32VW55X_Wifi_BLE_SDK/GD32VW55x_RELEASE_V1.0.2/MSDK/ble/app\app_blue_courier_prot.c **** }
 192:C:/Users/stapi/OneDrive/Desktop/GD32VW553/V1_MQTT_OK/GD32VW55X_Wifi_BLE_SDK/GD32VW55x_RELEASE_V1.0.2/MSDK/ble/app\app_blue_courier_prot.c **** 
 193:C:/Users/stapi/OneDrive/Desktop/GD32VW553/V1_MQTT_OK/GD32VW55X_Wifi_BLE_SDK/GD32VW55x_RELEASE_V1.0.2/MSDK/ble/app\app_blue_courier_prot.c **** /*!
 194:C:/Users/stapi/OneDrive/Desktop/GD32VW553/V1_MQTT_OK/GD32VW55X_Wifi_BLE_SDK/GD32VW55x_RELEASE_V1.0.2/MSDK/ble/app\app_blue_courier_prot.c ****     \brief      Wifi connect fail handler
 195:C:/Users/stapi/OneDrive/Desktop/GD32VW553/V1_MQTT_OK/GD32VW55X_Wifi_BLE_SDK/GD32VW55x_RELEASE_V1.0.2/MSDK/ble/app\app_blue_courier_prot.c ****     \param[in]  eloop_data: callback context data
 196:C:/Users/stapi/OneDrive/Desktop/GD32VW553/V1_MQTT_OK/GD32VW55X_Wifi_BLE_SDK/GD32VW55x_RELEASE_V1.0.2/MSDK/ble/app\app_blue_courier_prot.c ****     \param[in]  user_ctx: callback context data
 197:C:/Users/stapi/OneDrive/Desktop/GD32VW553/V1_MQTT_OK/GD32VW55X_Wifi_BLE_SDK/GD32VW55x_RELEASE_V1.0.2/MSDK/ble/app\app_blue_courier_prot.c ****     \param[out] none
 198:C:/Users/stapi/OneDrive/Desktop/GD32VW553/V1_MQTT_OK/GD32VW55X_Wifi_BLE_SDK/GD32VW55x_RELEASE_V1.0.2/MSDK/ble/app\app_blue_courier_prot.c ****     \retval     none
 199:C:/Users/stapi/OneDrive/Desktop/GD32VW553/V1_MQTT_OK/GD32VW55X_Wifi_BLE_SDK/GD32VW55x_RELEASE_V1.0.2/MSDK/ble/app\app_blue_courier_prot.c **** */
 200:C:/Users/stapi/OneDrive/Desktop/GD32VW553/V1_MQTT_OK/GD32VW55X_Wifi_BLE_SDK/GD32VW55x_RELEASE_V1.0.2/MSDK/ble/app\app_blue_courier_prot.c **** static void bcwp_wifi_connect_fail(void *eloop_ctx, void *user_ctx)
 201:C:/Users/stapi/OneDrive/Desktop/GD32VW553/V1_MQTT_OK/GD32VW55X_Wifi_BLE_SDK/GD32VW55x_RELEASE_V1.0.2/MSDK/ble/app\app_blue_courier_prot.c **** {
 202:C:/Users/stapi/OneDrive/Desktop/GD32VW553/V1_MQTT_OK/GD32VW55X_Wifi_BLE_SDK/GD32VW55x_RELEASE_V1.0.2/MSDK/ble/app\app_blue_courier_prot.c ****     uint8_t state = 1;
 203:C:/Users/stapi/OneDrive/Desktop/GD32VW553/V1_MQTT_OK/GD32VW55X_Wifi_BLE_SDK/GD32VW55x_RELEASE_V1.0.2/MSDK/ble/app\app_blue_courier_prot.c **** 
 204:C:/Users/stapi/OneDrive/Desktop/GD32VW553/V1_MQTT_OK/GD32VW55X_Wifi_BLE_SDK/GD32VW55x_RELEASE_V1.0.2/MSDK/ble/app\app_blue_courier_prot.c ****     dbg_print(ERR, "ble config wifi connect failed\r\n");
 205:C:/Users/stapi/OneDrive/Desktop/GD32VW553/V1_MQTT_OK/GD32VW55X_Wifi_BLE_SDK/GD32VW55x_RELEASE_V1.0.2/MSDK/ble/app\app_blue_courier_prot.c ****     eloop_event_unregister(WIFI_MGMT_EVENT_DHCP_SUCCESS);
 206:C:/Users/stapi/OneDrive/Desktop/GD32VW553/V1_MQTT_OK/GD32VW55X_Wifi_BLE_SDK/GD32VW55x_RELEASE_V1.0.2/MSDK/ble/app\app_blue_courier_prot.c ****     eloop_event_unregister(WIFI_MGMT_EVENT_DHCP_FAIL);
 207:C:/Users/stapi/OneDrive/Desktop/GD32VW553/V1_MQTT_OK/GD32VW55X_Wifi_BLE_SDK/GD32VW55x_RELEASE_V1.0.2/MSDK/ble/app\app_blue_courier_prot.c ****     eloop_event_unregister(WIFI_MGMT_EVENT_CONNECT_FAIL);
 208:C:/Users/stapi/OneDrive/Desktop/GD32VW553/V1_MQTT_OK/GD32VW55X_Wifi_BLE_SDK/GD32VW55x_RELEASE_V1.0.2/MSDK/ble/app\app_blue_courier_prot.c ****     eloop_timeout_cancel(bcwp_wifi_connect_fail, ELOOP_ALL_CTX, ELOOP_ALL_CTX);
 209:C:/Users/stapi/OneDrive/Desktop/GD32VW553/V1_MQTT_OK/GD32VW55X_Wifi_BLE_SDK/GD32VW55x_RELEASE_V1.0.2/MSDK/ble/app\app_blue_courier_prot.c **** 
 210:C:/Users/stapi/OneDrive/Desktop/GD32VW553/V1_MQTT_OK/GD32VW55X_Wifi_BLE_SDK/GD32VW55x_RELEASE_V1.0.2/MSDK/ble/app\app_blue_courier_prot.c ****     bcwl_send(BCWL_OPCODE_BUILD(BCWL_OPCODE_TYPE_DATA, BCWL_OPCODE_DATA_SUBTYPE_STAMODE_CONNECT), &
 211:C:/Users/stapi/OneDrive/Desktop/GD32VW553/V1_MQTT_OK/GD32VW55X_Wifi_BLE_SDK/GD32VW55x_RELEASE_V1.0.2/MSDK/ble/app\app_blue_courier_prot.c **** }
 212:C:/Users/stapi/OneDrive/Desktop/GD32VW553/V1_MQTT_OK/GD32VW55X_Wifi_BLE_SDK/GD32VW55x_RELEASE_V1.0.2/MSDK/ble/app\app_blue_courier_prot.c **** 
 213:C:/Users/stapi/OneDrive/Desktop/GD32VW553/V1_MQTT_OK/GD32VW55X_Wifi_BLE_SDK/GD32VW55x_RELEASE_V1.0.2/MSDK/ble/app\app_blue_courier_prot.c **** /*!
 214:C:/Users/stapi/OneDrive/Desktop/GD32VW553/V1_MQTT_OK/GD32VW55X_Wifi_BLE_SDK/GD32VW55x_RELEASE_V1.0.2/MSDK/ble/app\app_blue_courier_prot.c ****     \brief      Wifi connect success handler
 215:C:/Users/stapi/OneDrive/Desktop/GD32VW553/V1_MQTT_OK/GD32VW55X_Wifi_BLE_SDK/GD32VW55x_RELEASE_V1.0.2/MSDK/ble/app\app_blue_courier_prot.c ****     \param[in]  eloop_data: callback context data
 216:C:/Users/stapi/OneDrive/Desktop/GD32VW553/V1_MQTT_OK/GD32VW55X_Wifi_BLE_SDK/GD32VW55x_RELEASE_V1.0.2/MSDK/ble/app\app_blue_courier_prot.c ****     \param[in]  user_ctx: callback context data
 217:C:/Users/stapi/OneDrive/Desktop/GD32VW553/V1_MQTT_OK/GD32VW55X_Wifi_BLE_SDK/GD32VW55x_RELEASE_V1.0.2/MSDK/ble/app\app_blue_courier_prot.c ****     \param[out] none
 218:C:/Users/stapi/OneDrive/Desktop/GD32VW553/V1_MQTT_OK/GD32VW55X_Wifi_BLE_SDK/GD32VW55x_RELEASE_V1.0.2/MSDK/ble/app\app_blue_courier_prot.c ****     \retval     none
 219:C:/Users/stapi/OneDrive/Desktop/GD32VW553/V1_MQTT_OK/GD32VW55X_Wifi_BLE_SDK/GD32VW55x_RELEASE_V1.0.2/MSDK/ble/app\app_blue_courier_prot.c **** */
 220:C:/Users/stapi/OneDrive/Desktop/GD32VW553/V1_MQTT_OK/GD32VW55X_Wifi_BLE_SDK/GD32VW55x_RELEASE_V1.0.2/MSDK/ble/app\app_blue_courier_prot.c **** static void bcwp_wifi_connect_success(void *eloop_data, void *user_ctx)
 221:C:/Users/stapi/OneDrive/Desktop/GD32VW553/V1_MQTT_OK/GD32VW55X_Wifi_BLE_SDK/GD32VW55x_RELEASE_V1.0.2/MSDK/ble/app\app_blue_courier_prot.c **** {
 454              		.loc 1 221 1 is_stmt 1
 455              		.cfi_startproc
 456              	.LVL33:
 457 0000 17030000 		call	t0,__riscv_save_0
 457      E7020300 
 458              		.cfi_offset 1, -4
 459              		.cfi_def_cfa_offset 16
 222:C:/Users/stapi/OneDrive/Desktop/GD32VW553/V1_MQTT_OK/GD32VW55X_Wifi_BLE_SDK/GD32VW55x_RELEASE_V1.0.2/MSDK/ble/app\app_blue_courier_prot.c ****     uint8_t state = 0;
 460              		.loc 1 222 5
 221:C:/Users/stapi/OneDrive/Desktop/GD32VW553/V1_MQTT_OK/GD32VW55X_Wifi_BLE_SDK/GD32VW55x_RELEASE_V1.0.2/MSDK/ble/app\app_blue_courier_prot.c ****     uint8_t state = 0;
 461              		.loc 1 221 1 is_stmt 0
 462 0008 4111     		addi	sp,sp,-16
 463              		.cfi_def_cfa_offset 32
 223:C:/Users/stapi/OneDrive/Desktop/GD32VW553/V1_MQTT_OK/GD32VW55X_Wifi_BLE_SDK/GD32VW55x_RELEASE_V1.0.2/MSDK/ble/app\app_blue_courier_prot.c **** 
 224:C:/Users/stapi/OneDrive/Desktop/GD32VW553/V1_MQTT_OK/GD32VW55X_Wifi_BLE_SDK/GD32VW55x_RELEASE_V1.0.2/MSDK/ble/app\app_blue_courier_prot.c ****     eloop_event_unregister(WIFI_MGMT_EVENT_DHCP_SUCCESS);
 464              		.loc 1 224 5
 465 000a 5145     		li	a0,20
 466              	.LVL34:
 222:C:/Users/stapi/OneDrive/Desktop/GD32VW553/V1_MQTT_OK/GD32VW55X_Wifi_BLE_SDK/GD32VW55x_RELEASE_V1.0.2/MSDK/ble/app\app_blue_courier_prot.c **** 
 467              		.loc 1 222 13
 468 000c A3070100 		sb	zero,15(sp)
 469              		.loc 1 224 5 is_stmt 1
 470 0010 97000000 		call	eloop_event_unregister
 470      E7800000 
 471              	.LVL35:
 225:C:/Users/stapi/OneDrive/Desktop/GD32VW553/V1_MQTT_OK/GD32VW55X_Wifi_BLE_SDK/GD32VW55x_RELEASE_V1.0.2/MSDK/ble/app\app_blue_courier_prot.c ****     eloop_event_unregister(WIFI_MGMT_EVENT_DHCP_FAIL);
 472              		.loc 1 225 5
 473 0018 5545     		li	a0,21
 474 001a 97000000 		call	eloop_event_unregister
 474      E7800000 
 475              	.LVL36:
 226:C:/Users/stapi/OneDrive/Desktop/GD32VW553/V1_MQTT_OK/GD32VW55X_Wifi_BLE_SDK/GD32VW55x_RELEASE_V1.0.2/MSDK/ble/app\app_blue_courier_prot.c ****     eloop_event_unregister(WIFI_MGMT_EVENT_CONNECT_FAIL);
 476              		.loc 1 226 5
 477 0022 5D45     		li	a0,23
 478 0024 97000000 		call	eloop_event_unregister
 478      E7800000 
 479              	.LVL37:
 227:C:/Users/stapi/OneDrive/Desktop/GD32VW553/V1_MQTT_OK/GD32VW55X_Wifi_BLE_SDK/GD32VW55x_RELEASE_V1.0.2/MSDK/ble/app\app_blue_courier_prot.c ****     eloop_timeout_cancel(bcwp_wifi_connect_fail, ELOOP_ALL_CTX, ELOOP_ALL_CTX);
 480              		.loc 1 227 5
 481 002c 37050000 		lui	a0,%hi(bcwp_wifi_connect_fail)
 482 0030 7D56     		li	a2,-1
 483 0032 FD55     		li	a1,-1
 484 0034 13050500 		addi	a0,a0,%lo(bcwp_wifi_connect_fail)
 485 0038 97000000 		call	eloop_timeout_cancel
 485      E7800000 
 486              	.LVL38:
 228:C:/Users/stapi/OneDrive/Desktop/GD32VW553/V1_MQTT_OK/GD32VW55X_Wifi_BLE_SDK/GD32VW55x_RELEASE_V1.0.2/MSDK/ble/app\app_blue_courier_prot.c **** 
 229:C:/Users/stapi/OneDrive/Desktop/GD32VW553/V1_MQTT_OK/GD32VW55X_Wifi_BLE_SDK/GD32VW55x_RELEASE_V1.0.2/MSDK/ble/app\app_blue_courier_prot.c ****     bcwl_send(BCWL_OPCODE_BUILD(BCWL_OPCODE_TYPE_DATA, BCWL_OPCODE_DATA_SUBTYPE_STAMODE_CONNECT), &
 487              		.loc 1 229 5
 488 0040 9305F100 		addi	a1,sp,15
 489 0044 0546     		li	a2,1
 490 0046 13052004 		li	a0,66
 491 004a 97000000 		call	bcwl_send
 491      E7800000 
 492              	.LVL39:
 230:C:/Users/stapi/OneDrive/Desktop/GD32VW553/V1_MQTT_OK/GD32VW55X_Wifi_BLE_SDK/GD32VW55x_RELEASE_V1.0.2/MSDK/ble/app\app_blue_courier_prot.c **** }
 493              		.loc 1 230 1 is_stmt 0
 494 0052 4101     		addi	sp,sp,16
 495              		.cfi_def_cfa_offset 0
 496 0054 17030000 		tail	__riscv_restore_0
 496      67000300 
 497              		.cfi_restore 1
 498              		.cfi_def_cfa_offset -16
 499              		.cfi_endproc
 500              	.LFE20:
 502              		.section	.rodata.bcwp_wifi_connect_fail.str1.4,"aMS",@progbits,1
 503              		.align	2
 504              	.LC9:
 505 0000 626C6520 		.string	"ble config wifi connect failed\r\n"
 505      636F6E66 
 505      69672077 
 505      69666920 
 505      636F6E6E 
 506              		.section	.text.bcwp_wifi_connect_fail,"ax",@progbits
 507              		.align	1
 509              	bcwp_wifi_connect_fail:
 510              	.LFB19:
 201:C:/Users/stapi/OneDrive/Desktop/GD32VW553/V1_MQTT_OK/GD32VW55X_Wifi_BLE_SDK/GD32VW55x_RELEASE_V1.0.2/MSDK/ble/app\app_blue_courier_prot.c ****     uint8_t state = 1;
 511              		.loc 1 201 1 is_stmt 1
 512              		.cfi_startproc
 513              	.LVL40:
 514 0000 17030000 		call	t0,__riscv_save_0
 514      E7020300 
 515              		.cfi_offset 1, -4
 516              		.cfi_def_cfa_offset 16
 202:C:/Users/stapi/OneDrive/Desktop/GD32VW553/V1_MQTT_OK/GD32VW55X_Wifi_BLE_SDK/GD32VW55x_RELEASE_V1.0.2/MSDK/ble/app\app_blue_courier_prot.c **** 
 517              		.loc 1 202 5
 202:C:/Users/stapi/OneDrive/Desktop/GD32VW553/V1_MQTT_OK/GD32VW55X_Wifi_BLE_SDK/GD32VW55x_RELEASE_V1.0.2/MSDK/ble/app\app_blue_courier_prot.c **** 
 518              		.loc 1 202 13 is_stmt 0
 519 0008 8547     		li	a5,1
 201:C:/Users/stapi/OneDrive/Desktop/GD32VW553/V1_MQTT_OK/GD32VW55X_Wifi_BLE_SDK/GD32VW55x_RELEASE_V1.0.2/MSDK/ble/app\app_blue_courier_prot.c ****     uint8_t state = 1;
 520              		.loc 1 201 1
 521 000a 4111     		addi	sp,sp,-16
 522              		.cfi_def_cfa_offset 32
 202:C:/Users/stapi/OneDrive/Desktop/GD32VW553/V1_MQTT_OK/GD32VW55X_Wifi_BLE_SDK/GD32VW55x_RELEASE_V1.0.2/MSDK/ble/app\app_blue_courier_prot.c **** 
 523              		.loc 1 202 13
 524 000c A307F100 		sb	a5,15(sp)
 204:C:/Users/stapi/OneDrive/Desktop/GD32VW553/V1_MQTT_OK/GD32VW55X_Wifi_BLE_SDK/GD32VW55x_RELEASE_V1.0.2/MSDK/ble/app\app_blue_courier_prot.c ****     eloop_event_unregister(WIFI_MGMT_EVENT_DHCP_SUCCESS);
 525              		.loc 1 204 5 is_stmt 1
 204:C:/Users/stapi/OneDrive/Desktop/GD32VW553/V1_MQTT_OK/GD32VW55X_Wifi_BLE_SDK/GD32VW55x_RELEASE_V1.0.2/MSDK/ble/app\app_blue_courier_prot.c ****     eloop_event_unregister(WIFI_MGMT_EVENT_DHCP_SUCCESS);
 526              		.loc 1 204 5
 527 0010 B7070000 		lui	a5,%hi(global_debug_level)
 528 0014 83C70700 		lbu	a5,%lo(global_debug_level)(a5)
 529 0018 89CB     		beq	a5,zero,.L45
 204:C:/Users/stapi/OneDrive/Desktop/GD32VW553/V1_MQTT_OK/GD32VW55X_Wifi_BLE_SDK/GD32VW55x_RELEASE_V1.0.2/MSDK/ble/app\app_blue_courier_prot.c ****     eloop_event_unregister(WIFI_MGMT_EVENT_DHCP_SUCCESS);
 530              		.loc 1 204 5 discriminator 1
 531 001a 37050000 		lui	a0,%hi(.LC9)
 532              	.LVL41:
 533 001e 13050500 		addi	a0,a0,%lo(.LC9)
 534 0022 97000000 		call	co_printf
 534      E7800000 
 535              	.LVL42:
 536              	.L45:
 204:C:/Users/stapi/OneDrive/Desktop/GD32VW553/V1_MQTT_OK/GD32VW55X_Wifi_BLE_SDK/GD32VW55x_RELEASE_V1.0.2/MSDK/ble/app\app_blue_courier_prot.c ****     eloop_event_unregister(WIFI_MGMT_EVENT_DHCP_SUCCESS);
 537              		.loc 1 204 5 discriminator 3
 205:C:/Users/stapi/OneDrive/Desktop/GD32VW553/V1_MQTT_OK/GD32VW55X_Wifi_BLE_SDK/GD32VW55x_RELEASE_V1.0.2/MSDK/ble/app\app_blue_courier_prot.c ****     eloop_event_unregister(WIFI_MGMT_EVENT_DHCP_FAIL);
 538              		.loc 1 205 5 discriminator 3
 539 002a 5145     		li	a0,20
 540 002c 97000000 		call	eloop_event_unregister
 540      E7800000 
 541              	.LVL43:
 206:C:/Users/stapi/OneDrive/Desktop/GD32VW553/V1_MQTT_OK/GD32VW55X_Wifi_BLE_SDK/GD32VW55x_RELEASE_V1.0.2/MSDK/ble/app\app_blue_courier_prot.c ****     eloop_event_unregister(WIFI_MGMT_EVENT_CONNECT_FAIL);
 542              		.loc 1 206 5 discriminator 3
 543 0034 5545     		li	a0,21
 544 0036 97000000 		call	eloop_event_unregister
 544      E7800000 
 545              	.LVL44:
 207:C:/Users/stapi/OneDrive/Desktop/GD32VW553/V1_MQTT_OK/GD32VW55X_Wifi_BLE_SDK/GD32VW55x_RELEASE_V1.0.2/MSDK/ble/app\app_blue_courier_prot.c ****     eloop_timeout_cancel(bcwp_wifi_connect_fail, ELOOP_ALL_CTX, ELOOP_ALL_CTX);
 546              		.loc 1 207 5 discriminator 3
 547 003e 5D45     		li	a0,23
 548 0040 97000000 		call	eloop_event_unregister
 548      E7800000 
 549              	.LVL45:
 208:C:/Users/stapi/OneDrive/Desktop/GD32VW553/V1_MQTT_OK/GD32VW55X_Wifi_BLE_SDK/GD32VW55x_RELEASE_V1.0.2/MSDK/ble/app\app_blue_courier_prot.c **** 
 550              		.loc 1 208 5 discriminator 3
 551 0048 37050000 		lui	a0,%hi(bcwp_wifi_connect_fail)
 552 004c 7D56     		li	a2,-1
 553 004e FD55     		li	a1,-1
 554 0050 13050500 		addi	a0,a0,%lo(bcwp_wifi_connect_fail)
 555 0054 97000000 		call	eloop_timeout_cancel
 555      E7800000 
 556              	.LVL46:
 210:C:/Users/stapi/OneDrive/Desktop/GD32VW553/V1_MQTT_OK/GD32VW55X_Wifi_BLE_SDK/GD32VW55x_RELEASE_V1.0.2/MSDK/ble/app\app_blue_courier_prot.c **** }
 557              		.loc 1 210 5 discriminator 3
 558 005c 9305F100 		addi	a1,sp,15
 559 0060 0546     		li	a2,1
 560 0062 13052004 		li	a0,66
 561 0066 97000000 		call	bcwl_send
 561      E7800000 
 562              	.LVL47:
 211:C:/Users/stapi/OneDrive/Desktop/GD32VW553/V1_MQTT_OK/GD32VW55X_Wifi_BLE_SDK/GD32VW55x_RELEASE_V1.0.2/MSDK/ble/app\app_blue_courier_prot.c **** 
 563              		.loc 1 211 1 is_stmt 0 discriminator 3
 564 006e 4101     		addi	sp,sp,16
 565              		.cfi_def_cfa_offset 0
 566 0070 17030000 		tail	__riscv_restore_0
 566      67000300 
 567              		.cfi_restore 1
 568              		.cfi_def_cfa_offset -16
 569              		.cfi_endproc
 570              	.LFE19:
 572              		.section	.text.bcwp_wifi_status_get,"ax",@progbits
 573              		.align	1
 574              		.globl	bcwp_wifi_status_get
 576              	bcwp_wifi_status_get:
 577              	.LFB25:
 231:C:/Users/stapi/OneDrive/Desktop/GD32VW553/V1_MQTT_OK/GD32VW55X_Wifi_BLE_SDK/GD32VW55x_RELEASE_V1.0.2/MSDK/ble/app\app_blue_courier_prot.c **** 
 232:C:/Users/stapi/OneDrive/Desktop/GD32VW553/V1_MQTT_OK/GD32VW55X_Wifi_BLE_SDK/GD32VW55x_RELEASE_V1.0.2/MSDK/ble/app\app_blue_courier_prot.c **** /*!
 233:C:/Users/stapi/OneDrive/Desktop/GD32VW553/V1_MQTT_OK/GD32VW55X_Wifi_BLE_SDK/GD32VW55x_RELEASE_V1.0.2/MSDK/ble/app\app_blue_courier_prot.c ****     \brief      Blue courier triggers wifi to connect AP in station mode
 234:C:/Users/stapi/OneDrive/Desktop/GD32VW553/V1_MQTT_OK/GD32VW55X_Wifi_BLE_SDK/GD32VW55x_RELEASE_V1.0.2/MSDK/ble/app\app_blue_courier_prot.c ****     \param[in]  data: pointer to wifi ssid and password information (1 byte ssid length + ssid + 1 
 235:C:/Users/stapi/OneDrive/Desktop/GD32VW553/V1_MQTT_OK/GD32VW55X_Wifi_BLE_SDK/GD32VW55x_RELEASE_V1.0.2/MSDK/ble/app\app_blue_courier_prot.c ****     \param[in]  len: data length
 236:C:/Users/stapi/OneDrive/Desktop/GD32VW553/V1_MQTT_OK/GD32VW55X_Wifi_BLE_SDK/GD32VW55x_RELEASE_V1.0.2/MSDK/ble/app\app_blue_courier_prot.c ****     \param[out] none
 237:C:/Users/stapi/OneDrive/Desktop/GD32VW553/V1_MQTT_OK/GD32VW55X_Wifi_BLE_SDK/GD32VW55x_RELEASE_V1.0.2/MSDK/ble/app\app_blue_courier_prot.c ****     \retval     none
 238:C:/Users/stapi/OneDrive/Desktop/GD32VW553/V1_MQTT_OK/GD32VW55X_Wifi_BLE_SDK/GD32VW55x_RELEASE_V1.0.2/MSDK/ble/app\app_blue_courier_prot.c **** */
 239:C:/Users/stapi/OneDrive/Desktop/GD32VW553/V1_MQTT_OK/GD32VW55X_Wifi_BLE_SDK/GD32VW55x_RELEASE_V1.0.2/MSDK/ble/app\app_blue_courier_prot.c **** static void bcwp_wifi_connect(uint8_t *data, uint16_t len)
 240:C:/Users/stapi/OneDrive/Desktop/GD32VW553/V1_MQTT_OK/GD32VW55X_Wifi_BLE_SDK/GD32VW55x_RELEASE_V1.0.2/MSDK/ble/app\app_blue_courier_prot.c **** {
 241:C:/Users/stapi/OneDrive/Desktop/GD32VW553/V1_MQTT_OK/GD32VW55X_Wifi_BLE_SDK/GD32VW55x_RELEASE_V1.0.2/MSDK/ble/app\app_blue_courier_prot.c ****     uint8_t state = 1;
 242:C:/Users/stapi/OneDrive/Desktop/GD32VW553/V1_MQTT_OK/GD32VW55X_Wifi_BLE_SDK/GD32VW55x_RELEASE_V1.0.2/MSDK/ble/app\app_blue_courier_prot.c ****     uint8_t ssid_len, password_len;
 243:C:/Users/stapi/OneDrive/Desktop/GD32VW553/V1_MQTT_OK/GD32VW55X_Wifi_BLE_SDK/GD32VW55x_RELEASE_V1.0.2/MSDK/ble/app\app_blue_courier_prot.c ****     uint8_t wifi_ssid[MAC_SSID_LEN + 1];
 244:C:/Users/stapi/OneDrive/Desktop/GD32VW553/V1_MQTT_OK/GD32VW55X_Wifi_BLE_SDK/GD32VW55x_RELEASE_V1.0.2/MSDK/ble/app\app_blue_courier_prot.c ****     uint8_t wifi_password[WPA_MAX_PSK_LEN + 1];
 245:C:/Users/stapi/OneDrive/Desktop/GD32VW553/V1_MQTT_OK/GD32VW55X_Wifi_BLE_SDK/GD32VW55x_RELEASE_V1.0.2/MSDK/ble/app\app_blue_courier_prot.c ****     char *password = NULL;
 246:C:/Users/stapi/OneDrive/Desktop/GD32VW553/V1_MQTT_OK/GD32VW55X_Wifi_BLE_SDK/GD32VW55x_RELEASE_V1.0.2/MSDK/ble/app\app_blue_courier_prot.c **** 
 247:C:/Users/stapi/OneDrive/Desktop/GD32VW553/V1_MQTT_OK/GD32VW55X_Wifi_BLE_SDK/GD32VW55x_RELEASE_V1.0.2/MSDK/ble/app\app_blue_courier_prot.c ****     if (len <= 0)
 248:C:/Users/stapi/OneDrive/Desktop/GD32VW553/V1_MQTT_OK/GD32VW55X_Wifi_BLE_SDK/GD32VW55x_RELEASE_V1.0.2/MSDK/ble/app\app_blue_courier_prot.c ****         goto exit;
 249:C:/Users/stapi/OneDrive/Desktop/GD32VW553/V1_MQTT_OK/GD32VW55X_Wifi_BLE_SDK/GD32VW55x_RELEASE_V1.0.2/MSDK/ble/app\app_blue_courier_prot.c **** 
 250:C:/Users/stapi/OneDrive/Desktop/GD32VW553/V1_MQTT_OK/GD32VW55X_Wifi_BLE_SDK/GD32VW55x_RELEASE_V1.0.2/MSDK/ble/app\app_blue_courier_prot.c ****     /* decode */
 251:C:/Users/stapi/OneDrive/Desktop/GD32VW553/V1_MQTT_OK/GD32VW55X_Wifi_BLE_SDK/GD32VW55x_RELEASE_V1.0.2/MSDK/ble/app\app_blue_courier_prot.c ****     ble_internal_decode(data, len - 1, data[len - 1]);
 252:C:/Users/stapi/OneDrive/Desktop/GD32VW553/V1_MQTT_OK/GD32VW55X_Wifi_BLE_SDK/GD32VW55x_RELEASE_V1.0.2/MSDK/ble/app\app_blue_courier_prot.c **** 
 253:C:/Users/stapi/OneDrive/Desktop/GD32VW553/V1_MQTT_OK/GD32VW55X_Wifi_BLE_SDK/GD32VW55x_RELEASE_V1.0.2/MSDK/ble/app\app_blue_courier_prot.c ****     /* 1byte ssid_len + ssid + 1byte password_len + password + 1byte random */
 254:C:/Users/stapi/OneDrive/Desktop/GD32VW553/V1_MQTT_OK/GD32VW55X_Wifi_BLE_SDK/GD32VW55x_RELEASE_V1.0.2/MSDK/ble/app\app_blue_courier_prot.c ****     ssid_len = data[0];
 255:C:/Users/stapi/OneDrive/Desktop/GD32VW553/V1_MQTT_OK/GD32VW55X_Wifi_BLE_SDK/GD32VW55x_RELEASE_V1.0.2/MSDK/ble/app\app_blue_courier_prot.c ****     if (ssid_len > len || ssid_len > WPA_MAX_PSK_LEN)
 256:C:/Users/stapi/OneDrive/Desktop/GD32VW553/V1_MQTT_OK/GD32VW55X_Wifi_BLE_SDK/GD32VW55x_RELEASE_V1.0.2/MSDK/ble/app\app_blue_courier_prot.c ****         goto exit;
 257:C:/Users/stapi/OneDrive/Desktop/GD32VW553/V1_MQTT_OK/GD32VW55X_Wifi_BLE_SDK/GD32VW55x_RELEASE_V1.0.2/MSDK/ble/app\app_blue_courier_prot.c **** 
 258:C:/Users/stapi/OneDrive/Desktop/GD32VW553/V1_MQTT_OK/GD32VW55X_Wifi_BLE_SDK/GD32VW55x_RELEASE_V1.0.2/MSDK/ble/app\app_blue_courier_prot.c ****     password_len = data[ssid_len + 1];
 259:C:/Users/stapi/OneDrive/Desktop/GD32VW553/V1_MQTT_OK/GD32VW55X_Wifi_BLE_SDK/GD32VW55x_RELEASE_V1.0.2/MSDK/ble/app\app_blue_courier_prot.c ****     if ((ssid_len + password_len + 3) != len || password_len > WPA_MAX_PSK_LEN)
 260:C:/Users/stapi/OneDrive/Desktop/GD32VW553/V1_MQTT_OK/GD32VW55X_Wifi_BLE_SDK/GD32VW55x_RELEASE_V1.0.2/MSDK/ble/app\app_blue_courier_prot.c ****         goto exit;
 261:C:/Users/stapi/OneDrive/Desktop/GD32VW553/V1_MQTT_OK/GD32VW55X_Wifi_BLE_SDK/GD32VW55x_RELEASE_V1.0.2/MSDK/ble/app\app_blue_courier_prot.c **** 
 262:C:/Users/stapi/OneDrive/Desktop/GD32VW553/V1_MQTT_OK/GD32VW55X_Wifi_BLE_SDK/GD32VW55x_RELEASE_V1.0.2/MSDK/ble/app\app_blue_courier_prot.c ****     sys_memcpy(wifi_ssid, &data[1], ssid_len);
 263:C:/Users/stapi/OneDrive/Desktop/GD32VW553/V1_MQTT_OK/GD32VW55X_Wifi_BLE_SDK/GD32VW55x_RELEASE_V1.0.2/MSDK/ble/app\app_blue_courier_prot.c ****     wifi_ssid[ssid_len] = '\0';
 264:C:/Users/stapi/OneDrive/Desktop/GD32VW553/V1_MQTT_OK/GD32VW55X_Wifi_BLE_SDK/GD32VW55x_RELEASE_V1.0.2/MSDK/ble/app\app_blue_courier_prot.c **** 
 265:C:/Users/stapi/OneDrive/Desktop/GD32VW553/V1_MQTT_OK/GD32VW55X_Wifi_BLE_SDK/GD32VW55x_RELEASE_V1.0.2/MSDK/ble/app\app_blue_courier_prot.c ****     if (password_len != 0) {
 266:C:/Users/stapi/OneDrive/Desktop/GD32VW553/V1_MQTT_OK/GD32VW55X_Wifi_BLE_SDK/GD32VW55x_RELEASE_V1.0.2/MSDK/ble/app\app_blue_courier_prot.c ****         sys_memcpy(wifi_password, &data[ssid_len + 2], password_len);
 267:C:/Users/stapi/OneDrive/Desktop/GD32VW553/V1_MQTT_OK/GD32VW55X_Wifi_BLE_SDK/GD32VW55x_RELEASE_V1.0.2/MSDK/ble/app\app_blue_courier_prot.c ****         wifi_password[password_len] = '\0';
 268:C:/Users/stapi/OneDrive/Desktop/GD32VW553/V1_MQTT_OK/GD32VW55X_Wifi_BLE_SDK/GD32VW55x_RELEASE_V1.0.2/MSDK/ble/app\app_blue_courier_prot.c ****         password = (char *)wifi_password;
 269:C:/Users/stapi/OneDrive/Desktop/GD32VW553/V1_MQTT_OK/GD32VW55X_Wifi_BLE_SDK/GD32VW55x_RELEASE_V1.0.2/MSDK/ble/app\app_blue_courier_prot.c ****     }
 270:C:/Users/stapi/OneDrive/Desktop/GD32VW553/V1_MQTT_OK/GD32VW55X_Wifi_BLE_SDK/GD32VW55x_RELEASE_V1.0.2/MSDK/ble/app\app_blue_courier_prot.c **** 
 271:C:/Users/stapi/OneDrive/Desktop/GD32VW553/V1_MQTT_OK/GD32VW55X_Wifi_BLE_SDK/GD32VW55x_RELEASE_V1.0.2/MSDK/ble/app\app_blue_courier_prot.c ****     eloop_event_register(WIFI_MGMT_EVENT_DHCP_SUCCESS, bcwp_wifi_connect_success, NULL, NULL);
 272:C:/Users/stapi/OneDrive/Desktop/GD32VW553/V1_MQTT_OK/GD32VW55X_Wifi_BLE_SDK/GD32VW55x_RELEASE_V1.0.2/MSDK/ble/app\app_blue_courier_prot.c ****     eloop_event_register(WIFI_MGMT_EVENT_DHCP_FAIL, bcwp_wifi_connect_fail, NULL, NULL);
 273:C:/Users/stapi/OneDrive/Desktop/GD32VW553/V1_MQTT_OK/GD32VW55X_Wifi_BLE_SDK/GD32VW55x_RELEASE_V1.0.2/MSDK/ble/app\app_blue_courier_prot.c ****     eloop_event_register(WIFI_MGMT_EVENT_CONNECT_FAIL, bcwp_wifi_connect_fail, NULL, NULL);
 274:C:/Users/stapi/OneDrive/Desktop/GD32VW553/V1_MQTT_OK/GD32VW55X_Wifi_BLE_SDK/GD32VW55x_RELEASE_V1.0.2/MSDK/ble/app\app_blue_courier_prot.c ****     eloop_timeout_register(WIFI_MGMT_LINK_POLLING_INTERVAL, bcwp_wifi_connect_fail, NULL, NULL);
 275:C:/Users/stapi/OneDrive/Desktop/GD32VW553/V1_MQTT_OK/GD32VW55X_Wifi_BLE_SDK/GD32VW55x_RELEASE_V1.0.2/MSDK/ble/app\app_blue_courier_prot.c **** 
 276:C:/Users/stapi/OneDrive/Desktop/GD32VW553/V1_MQTT_OK/GD32VW55X_Wifi_BLE_SDK/GD32VW55x_RELEASE_V1.0.2/MSDK/ble/app\app_blue_courier_prot.c ****     if (wifi_management_connect((char *)wifi_ssid, password, false)) {
 277:C:/Users/stapi/OneDrive/Desktop/GD32VW553/V1_MQTT_OK/GD32VW55X_Wifi_BLE_SDK/GD32VW55x_RELEASE_V1.0.2/MSDK/ble/app\app_blue_courier_prot.c ****         bcwp_wifi_connect_fail(ELOOP_ALL_CTX, ELOOP_ALL_CTX);
 278:C:/Users/stapi/OneDrive/Desktop/GD32VW553/V1_MQTT_OK/GD32VW55X_Wifi_BLE_SDK/GD32VW55x_RELEASE_V1.0.2/MSDK/ble/app\app_blue_courier_prot.c ****     }
 279:C:/Users/stapi/OneDrive/Desktop/GD32VW553/V1_MQTT_OK/GD32VW55X_Wifi_BLE_SDK/GD32VW55x_RELEASE_V1.0.2/MSDK/ble/app\app_blue_courier_prot.c **** 
 280:C:/Users/stapi/OneDrive/Desktop/GD32VW553/V1_MQTT_OK/GD32VW55X_Wifi_BLE_SDK/GD32VW55x_RELEASE_V1.0.2/MSDK/ble/app\app_blue_courier_prot.c ****     return;
 281:C:/Users/stapi/OneDrive/Desktop/GD32VW553/V1_MQTT_OK/GD32VW55X_Wifi_BLE_SDK/GD32VW55x_RELEASE_V1.0.2/MSDK/ble/app\app_blue_courier_prot.c **** exit:
 282:C:/Users/stapi/OneDrive/Desktop/GD32VW553/V1_MQTT_OK/GD32VW55X_Wifi_BLE_SDK/GD32VW55x_RELEASE_V1.0.2/MSDK/ble/app\app_blue_courier_prot.c ****     bcwl_send(BCWL_OPCODE_BUILD(BCWL_OPCODE_TYPE_DATA, BCWL_OPCODE_DATA_SUBTYPE_STAMODE_CONNECT), &
 283:C:/Users/stapi/OneDrive/Desktop/GD32VW553/V1_MQTT_OK/GD32VW55X_Wifi_BLE_SDK/GD32VW55x_RELEASE_V1.0.2/MSDK/ble/app\app_blue_courier_prot.c **** }
 284:C:/Users/stapi/OneDrive/Desktop/GD32VW553/V1_MQTT_OK/GD32VW55X_Wifi_BLE_SDK/GD32VW55x_RELEASE_V1.0.2/MSDK/ble/app\app_blue_courier_prot.c **** 
 285:C:/Users/stapi/OneDrive/Desktop/GD32VW553/V1_MQTT_OK/GD32VW55X_Wifi_BLE_SDK/GD32VW55x_RELEASE_V1.0.2/MSDK/ble/app\app_blue_courier_prot.c **** /*!
 286:C:/Users/stapi/OneDrive/Desktop/GD32VW553/V1_MQTT_OK/GD32VW55X_Wifi_BLE_SDK/GD32VW55x_RELEASE_V1.0.2/MSDK/ble/app\app_blue_courier_prot.c ****     \brief      Blue courier triggers wifi to disconnect current connection in station mode
 287:C:/Users/stapi/OneDrive/Desktop/GD32VW553/V1_MQTT_OK/GD32VW55X_Wifi_BLE_SDK/GD32VW55x_RELEASE_V1.0.2/MSDK/ble/app\app_blue_courier_prot.c ****     \param[in]  none
 288:C:/Users/stapi/OneDrive/Desktop/GD32VW553/V1_MQTT_OK/GD32VW55X_Wifi_BLE_SDK/GD32VW55x_RELEASE_V1.0.2/MSDK/ble/app\app_blue_courier_prot.c ****     \param[out] none
 289:C:/Users/stapi/OneDrive/Desktop/GD32VW553/V1_MQTT_OK/GD32VW55X_Wifi_BLE_SDK/GD32VW55x_RELEASE_V1.0.2/MSDK/ble/app\app_blue_courier_prot.c ****     \retval     none
 290:C:/Users/stapi/OneDrive/Desktop/GD32VW553/V1_MQTT_OK/GD32VW55X_Wifi_BLE_SDK/GD32VW55x_RELEASE_V1.0.2/MSDK/ble/app\app_blue_courier_prot.c **** */
 291:C:/Users/stapi/OneDrive/Desktop/GD32VW553/V1_MQTT_OK/GD32VW55X_Wifi_BLE_SDK/GD32VW55x_RELEASE_V1.0.2/MSDK/ble/app\app_blue_courier_prot.c **** static void bcwp_wifi_disconnect(void)
 292:C:/Users/stapi/OneDrive/Desktop/GD32VW553/V1_MQTT_OK/GD32VW55X_Wifi_BLE_SDK/GD32VW55x_RELEASE_V1.0.2/MSDK/ble/app\app_blue_courier_prot.c **** {
 293:C:/Users/stapi/OneDrive/Desktop/GD32VW553/V1_MQTT_OK/GD32VW55X_Wifi_BLE_SDK/GD32VW55x_RELEASE_V1.0.2/MSDK/ble/app\app_blue_courier_prot.c ****     uint8_t state = 0;
 294:C:/Users/stapi/OneDrive/Desktop/GD32VW553/V1_MQTT_OK/GD32VW55X_Wifi_BLE_SDK/GD32VW55x_RELEASE_V1.0.2/MSDK/ble/app\app_blue_courier_prot.c ****     wifi_management_disconnect();
 295:C:/Users/stapi/OneDrive/Desktop/GD32VW553/V1_MQTT_OK/GD32VW55X_Wifi_BLE_SDK/GD32VW55x_RELEASE_V1.0.2/MSDK/ble/app\app_blue_courier_prot.c ****     bcwl_send(BCWL_OPCODE_BUILD(BCWL_OPCODE_TYPE_DATA, BCWL_OPCODE_DATA_SUBTYPE_STAMODE_DISCONNECT)
 296:C:/Users/stapi/OneDrive/Desktop/GD32VW553/V1_MQTT_OK/GD32VW55X_Wifi_BLE_SDK/GD32VW55x_RELEASE_V1.0.2/MSDK/ble/app\app_blue_courier_prot.c **** }
 297:C:/Users/stapi/OneDrive/Desktop/GD32VW553/V1_MQTT_OK/GD32VW55X_Wifi_BLE_SDK/GD32VW55x_RELEASE_V1.0.2/MSDK/ble/app\app_blue_courier_prot.c **** 
 298:C:/Users/stapi/OneDrive/Desktop/GD32VW553/V1_MQTT_OK/GD32VW55X_Wifi_BLE_SDK/GD32VW55x_RELEASE_V1.0.2/MSDK/ble/app\app_blue_courier_prot.c **** /*!
 299:C:/Users/stapi/OneDrive/Desktop/GD32VW553/V1_MQTT_OK/GD32VW55X_Wifi_BLE_SDK/GD32VW55x_RELEASE_V1.0.2/MSDK/ble/app\app_blue_courier_prot.c ****     \brief      Blue courier triggers wifi to create AP in softAP mode
 300:C:/Users/stapi/OneDrive/Desktop/GD32VW553/V1_MQTT_OK/GD32VW55X_Wifi_BLE_SDK/GD32VW55x_RELEASE_V1.0.2/MSDK/ble/app\app_blue_courier_prot.c ****     \param[in]  data: pointer to wifi information(1byte ssid length + ssid + 1byte passwaord length
 301:C:/Users/stapi/OneDrive/Desktop/GD32VW553/V1_MQTT_OK/GD32VW55X_Wifi_BLE_SDK/GD32VW55x_RELEASE_V1.0.2/MSDK/ble/app\app_blue_courier_prot.c ****     \param[in]  len: data length
 302:C:/Users/stapi/OneDrive/Desktop/GD32VW553/V1_MQTT_OK/GD32VW55X_Wifi_BLE_SDK/GD32VW55x_RELEASE_V1.0.2/MSDK/ble/app\app_blue_courier_prot.c ****     \param[out] none
 303:C:/Users/stapi/OneDrive/Desktop/GD32VW553/V1_MQTT_OK/GD32VW55X_Wifi_BLE_SDK/GD32VW55x_RELEASE_V1.0.2/MSDK/ble/app\app_blue_courier_prot.c ****     \retval     none
 304:C:/Users/stapi/OneDrive/Desktop/GD32VW553/V1_MQTT_OK/GD32VW55X_Wifi_BLE_SDK/GD32VW55x_RELEASE_V1.0.2/MSDK/ble/app\app_blue_courier_prot.c **** */
 305:C:/Users/stapi/OneDrive/Desktop/GD32VW553/V1_MQTT_OK/GD32VW55X_Wifi_BLE_SDK/GD32VW55x_RELEASE_V1.0.2/MSDK/ble/app\app_blue_courier_prot.c **** static void bcwp_wifi_ap_start(uint8_t *data, uint16_t len)
 306:C:/Users/stapi/OneDrive/Desktop/GD32VW553/V1_MQTT_OK/GD32VW55X_Wifi_BLE_SDK/GD32VW55x_RELEASE_V1.0.2/MSDK/ble/app\app_blue_courier_prot.c **** {
 307:C:/Users/stapi/OneDrive/Desktop/GD32VW553/V1_MQTT_OK/GD32VW55X_Wifi_BLE_SDK/GD32VW55x_RELEASE_V1.0.2/MSDK/ble/app\app_blue_courier_prot.c ****     uint8_t state = 1;
 308:C:/Users/stapi/OneDrive/Desktop/GD32VW553/V1_MQTT_OK/GD32VW55X_Wifi_BLE_SDK/GD32VW55x_RELEASE_V1.0.2/MSDK/ble/app\app_blue_courier_prot.c ****     uint8_t ssid_len, password_len, channel, akm, hide;
 309:C:/Users/stapi/OneDrive/Desktop/GD32VW553/V1_MQTT_OK/GD32VW55X_Wifi_BLE_SDK/GD32VW55x_RELEASE_V1.0.2/MSDK/ble/app\app_blue_courier_prot.c ****     uint8_t wifi_ssid[MAC_SSID_LEN + 1];
 310:C:/Users/stapi/OneDrive/Desktop/GD32VW553/V1_MQTT_OK/GD32VW55X_Wifi_BLE_SDK/GD32VW55x_RELEASE_V1.0.2/MSDK/ble/app\app_blue_courier_prot.c ****     uint8_t wifi_password[WPA_MAX_PSK_LEN + 1];
 311:C:/Users/stapi/OneDrive/Desktop/GD32VW553/V1_MQTT_OK/GD32VW55X_Wifi_BLE_SDK/GD32VW55x_RELEASE_V1.0.2/MSDK/ble/app\app_blue_courier_prot.c ****     char *password = NULL;
 312:C:/Users/stapi/OneDrive/Desktop/GD32VW553/V1_MQTT_OK/GD32VW55X_Wifi_BLE_SDK/GD32VW55x_RELEASE_V1.0.2/MSDK/ble/app\app_blue_courier_prot.c ****     wifi_ap_auth_mode_t auth_mode;
 313:C:/Users/stapi/OneDrive/Desktop/GD32VW553/V1_MQTT_OK/GD32VW55X_Wifi_BLE_SDK/GD32VW55x_RELEASE_V1.0.2/MSDK/ble/app\app_blue_courier_prot.c **** 
 314:C:/Users/stapi/OneDrive/Desktop/GD32VW553/V1_MQTT_OK/GD32VW55X_Wifi_BLE_SDK/GD32VW55x_RELEASE_V1.0.2/MSDK/ble/app\app_blue_courier_prot.c ****     if (len <= 0)
 315:C:/Users/stapi/OneDrive/Desktop/GD32VW553/V1_MQTT_OK/GD32VW55X_Wifi_BLE_SDK/GD32VW55x_RELEASE_V1.0.2/MSDK/ble/app\app_blue_courier_prot.c ****         goto exit;
 316:C:/Users/stapi/OneDrive/Desktop/GD32VW553/V1_MQTT_OK/GD32VW55X_Wifi_BLE_SDK/GD32VW55x_RELEASE_V1.0.2/MSDK/ble/app\app_blue_courier_prot.c **** 
 317:C:/Users/stapi/OneDrive/Desktop/GD32VW553/V1_MQTT_OK/GD32VW55X_Wifi_BLE_SDK/GD32VW55x_RELEASE_V1.0.2/MSDK/ble/app\app_blue_courier_prot.c ****     /* decode */
 318:C:/Users/stapi/OneDrive/Desktop/GD32VW553/V1_MQTT_OK/GD32VW55X_Wifi_BLE_SDK/GD32VW55x_RELEASE_V1.0.2/MSDK/ble/app\app_blue_courier_prot.c ****     ble_internal_decode(data, len - 1, data[len - 1]);
 319:C:/Users/stapi/OneDrive/Desktop/GD32VW553/V1_MQTT_OK/GD32VW55X_Wifi_BLE_SDK/GD32VW55x_RELEASE_V1.0.2/MSDK/ble/app\app_blue_courier_prot.c **** 
 320:C:/Users/stapi/OneDrive/Desktop/GD32VW553/V1_MQTT_OK/GD32VW55X_Wifi_BLE_SDK/GD32VW55x_RELEASE_V1.0.2/MSDK/ble/app\app_blue_courier_prot.c ****     /* 1byte ssid_len + ssid + 1byte password_len + password + 1byte channel + 1byte akm + 1byte hi
 321:C:/Users/stapi/OneDrive/Desktop/GD32VW553/V1_MQTT_OK/GD32VW55X_Wifi_BLE_SDK/GD32VW55x_RELEASE_V1.0.2/MSDK/ble/app\app_blue_courier_prot.c ****     ssid_len = data[0];
 322:C:/Users/stapi/OneDrive/Desktop/GD32VW553/V1_MQTT_OK/GD32VW55X_Wifi_BLE_SDK/GD32VW55x_RELEASE_V1.0.2/MSDK/ble/app\app_blue_courier_prot.c ****     if (ssid_len > len || ssid_len > WPA_MAX_PSK_LEN)
 323:C:/Users/stapi/OneDrive/Desktop/GD32VW553/V1_MQTT_OK/GD32VW55X_Wifi_BLE_SDK/GD32VW55x_RELEASE_V1.0.2/MSDK/ble/app\app_blue_courier_prot.c ****         goto exit;
 324:C:/Users/stapi/OneDrive/Desktop/GD32VW553/V1_MQTT_OK/GD32VW55X_Wifi_BLE_SDK/GD32VW55x_RELEASE_V1.0.2/MSDK/ble/app\app_blue_courier_prot.c **** 
 325:C:/Users/stapi/OneDrive/Desktop/GD32VW553/V1_MQTT_OK/GD32VW55X_Wifi_BLE_SDK/GD32VW55x_RELEASE_V1.0.2/MSDK/ble/app\app_blue_courier_prot.c ****     password_len = data[ssid_len + 1];
 326:C:/Users/stapi/OneDrive/Desktop/GD32VW553/V1_MQTT_OK/GD32VW55X_Wifi_BLE_SDK/GD32VW55x_RELEASE_V1.0.2/MSDK/ble/app\app_blue_courier_prot.c ****     if ((ssid_len + password_len + 6) != len || password_len > WPA_MAX_PSK_LEN)
 327:C:/Users/stapi/OneDrive/Desktop/GD32VW553/V1_MQTT_OK/GD32VW55X_Wifi_BLE_SDK/GD32VW55x_RELEASE_V1.0.2/MSDK/ble/app\app_blue_courier_prot.c ****         goto exit;
 328:C:/Users/stapi/OneDrive/Desktop/GD32VW553/V1_MQTT_OK/GD32VW55X_Wifi_BLE_SDK/GD32VW55x_RELEASE_V1.0.2/MSDK/ble/app\app_blue_courier_prot.c **** 
 329:C:/Users/stapi/OneDrive/Desktop/GD32VW553/V1_MQTT_OK/GD32VW55X_Wifi_BLE_SDK/GD32VW55x_RELEASE_V1.0.2/MSDK/ble/app\app_blue_courier_prot.c ****     sys_memcpy(wifi_ssid, &data[1], ssid_len);
 330:C:/Users/stapi/OneDrive/Desktop/GD32VW553/V1_MQTT_OK/GD32VW55X_Wifi_BLE_SDK/GD32VW55x_RELEASE_V1.0.2/MSDK/ble/app\app_blue_courier_prot.c ****     wifi_ssid[ssid_len] = '\0';
 331:C:/Users/stapi/OneDrive/Desktop/GD32VW553/V1_MQTT_OK/GD32VW55X_Wifi_BLE_SDK/GD32VW55x_RELEASE_V1.0.2/MSDK/ble/app\app_blue_courier_prot.c **** 
 332:C:/Users/stapi/OneDrive/Desktop/GD32VW553/V1_MQTT_OK/GD32VW55X_Wifi_BLE_SDK/GD32VW55x_RELEASE_V1.0.2/MSDK/ble/app\app_blue_courier_prot.c ****     if (password_len != 0) {
 333:C:/Users/stapi/OneDrive/Desktop/GD32VW553/V1_MQTT_OK/GD32VW55X_Wifi_BLE_SDK/GD32VW55x_RELEASE_V1.0.2/MSDK/ble/app\app_blue_courier_prot.c ****         sys_memcpy(wifi_password, &data[ssid_len + 2], password_len);
 334:C:/Users/stapi/OneDrive/Desktop/GD32VW553/V1_MQTT_OK/GD32VW55X_Wifi_BLE_SDK/GD32VW55x_RELEASE_V1.0.2/MSDK/ble/app\app_blue_courier_prot.c ****         wifi_password[password_len] = '\0';
 335:C:/Users/stapi/OneDrive/Desktop/GD32VW553/V1_MQTT_OK/GD32VW55X_Wifi_BLE_SDK/GD32VW55x_RELEASE_V1.0.2/MSDK/ble/app\app_blue_courier_prot.c ****         password = (char *)wifi_password;
 336:C:/Users/stapi/OneDrive/Desktop/GD32VW553/V1_MQTT_OK/GD32VW55X_Wifi_BLE_SDK/GD32VW55x_RELEASE_V1.0.2/MSDK/ble/app\app_blue_courier_prot.c ****     }
 337:C:/Users/stapi/OneDrive/Desktop/GD32VW553/V1_MQTT_OK/GD32VW55X_Wifi_BLE_SDK/GD32VW55x_RELEASE_V1.0.2/MSDK/ble/app\app_blue_courier_prot.c **** 
 338:C:/Users/stapi/OneDrive/Desktop/GD32VW553/V1_MQTT_OK/GD32VW55X_Wifi_BLE_SDK/GD32VW55x_RELEASE_V1.0.2/MSDK/ble/app\app_blue_courier_prot.c ****     channel = data[ssid_len + password_len + 2];
 339:C:/Users/stapi/OneDrive/Desktop/GD32VW553/V1_MQTT_OK/GD32VW55X_Wifi_BLE_SDK/GD32VW55x_RELEASE_V1.0.2/MSDK/ble/app\app_blue_courier_prot.c ****     akm = data[ssid_len + password_len + 3];
 340:C:/Users/stapi/OneDrive/Desktop/GD32VW553/V1_MQTT_OK/GD32VW55X_Wifi_BLE_SDK/GD32VW55x_RELEASE_V1.0.2/MSDK/ble/app\app_blue_courier_prot.c ****     hide = data[ssid_len + password_len + 4];
 341:C:/Users/stapi/OneDrive/Desktop/GD32VW553/V1_MQTT_OK/GD32VW55X_Wifi_BLE_SDK/GD32VW55x_RELEASE_V1.0.2/MSDK/ble/app\app_blue_courier_prot.c **** 
 342:C:/Users/stapi/OneDrive/Desktop/GD32VW553/V1_MQTT_OK/GD32VW55X_Wifi_BLE_SDK/GD32VW55x_RELEASE_V1.0.2/MSDK/ble/app\app_blue_courier_prot.c ****     switch(akm) {
 343:C:/Users/stapi/OneDrive/Desktop/GD32VW553/V1_MQTT_OK/GD32VW55X_Wifi_BLE_SDK/GD32VW55x_RELEASE_V1.0.2/MSDK/ble/app\app_blue_courier_prot.c ****     case 0:
 344:C:/Users/stapi/OneDrive/Desktop/GD32VW553/V1_MQTT_OK/GD32VW55X_Wifi_BLE_SDK/GD32VW55x_RELEASE_V1.0.2/MSDK/ble/app\app_blue_courier_prot.c ****         auth_mode = AUTH_MODE_OPEN;
 345:C:/Users/stapi/OneDrive/Desktop/GD32VW553/V1_MQTT_OK/GD32VW55X_Wifi_BLE_SDK/GD32VW55x_RELEASE_V1.0.2/MSDK/ble/app\app_blue_courier_prot.c ****         break;
 346:C:/Users/stapi/OneDrive/Desktop/GD32VW553/V1_MQTT_OK/GD32VW55X_Wifi_BLE_SDK/GD32VW55x_RELEASE_V1.0.2/MSDK/ble/app\app_blue_courier_prot.c ****     case 1:
 347:C:/Users/stapi/OneDrive/Desktop/GD32VW553/V1_MQTT_OK/GD32VW55X_Wifi_BLE_SDK/GD32VW55x_RELEASE_V1.0.2/MSDK/ble/app\app_blue_courier_prot.c ****         auth_mode = AUTH_MODE_WPA2;
 348:C:/Users/stapi/OneDrive/Desktop/GD32VW553/V1_MQTT_OK/GD32VW55X_Wifi_BLE_SDK/GD32VW55x_RELEASE_V1.0.2/MSDK/ble/app\app_blue_courier_prot.c ****         break;
 349:C:/Users/stapi/OneDrive/Desktop/GD32VW553/V1_MQTT_OK/GD32VW55X_Wifi_BLE_SDK/GD32VW55x_RELEASE_V1.0.2/MSDK/ble/app\app_blue_courier_prot.c ****     case 2:
 350:C:/Users/stapi/OneDrive/Desktop/GD32VW553/V1_MQTT_OK/GD32VW55X_Wifi_BLE_SDK/GD32VW55x_RELEASE_V1.0.2/MSDK/ble/app\app_blue_courier_prot.c ****         auth_mode = AUTH_MODE_WPA3;
 351:C:/Users/stapi/OneDrive/Desktop/GD32VW553/V1_MQTT_OK/GD32VW55X_Wifi_BLE_SDK/GD32VW55x_RELEASE_V1.0.2/MSDK/ble/app\app_blue_courier_prot.c ****         break;
 352:C:/Users/stapi/OneDrive/Desktop/GD32VW553/V1_MQTT_OK/GD32VW55X_Wifi_BLE_SDK/GD32VW55x_RELEASE_V1.0.2/MSDK/ble/app\app_blue_courier_prot.c ****     default:
 353:C:/Users/stapi/OneDrive/Desktop/GD32VW553/V1_MQTT_OK/GD32VW55X_Wifi_BLE_SDK/GD32VW55x_RELEASE_V1.0.2/MSDK/ble/app\app_blue_courier_prot.c ****         auth_mode= AUTH_MODE_WPA2_WPA3;
 354:C:/Users/stapi/OneDrive/Desktop/GD32VW553/V1_MQTT_OK/GD32VW55X_Wifi_BLE_SDK/GD32VW55x_RELEASE_V1.0.2/MSDK/ble/app\app_blue_courier_prot.c ****         break;
 355:C:/Users/stapi/OneDrive/Desktop/GD32VW553/V1_MQTT_OK/GD32VW55X_Wifi_BLE_SDK/GD32VW55x_RELEASE_V1.0.2/MSDK/ble/app\app_blue_courier_prot.c ****     }
 356:C:/Users/stapi/OneDrive/Desktop/GD32VW553/V1_MQTT_OK/GD32VW55X_Wifi_BLE_SDK/GD32VW55x_RELEASE_V1.0.2/MSDK/ble/app\app_blue_courier_prot.c **** 
 357:C:/Users/stapi/OneDrive/Desktop/GD32VW553/V1_MQTT_OK/GD32VW55X_Wifi_BLE_SDK/GD32VW55x_RELEASE_V1.0.2/MSDK/ble/app\app_blue_courier_prot.c ****     if (wifi_management_ap_start((char *)wifi_ssid, password, channel, auth_mode, hide)) {
 358:C:/Users/stapi/OneDrive/Desktop/GD32VW553/V1_MQTT_OK/GD32VW55X_Wifi_BLE_SDK/GD32VW55x_RELEASE_V1.0.2/MSDK/ble/app\app_blue_courier_prot.c ****         dbg_print(ERR, "bcwp failed to start AP, check your configuration.\r\n");
 359:C:/Users/stapi/OneDrive/Desktop/GD32VW553/V1_MQTT_OK/GD32VW55X_Wifi_BLE_SDK/GD32VW55x_RELEASE_V1.0.2/MSDK/ble/app\app_blue_courier_prot.c ****         goto exit;
 360:C:/Users/stapi/OneDrive/Desktop/GD32VW553/V1_MQTT_OK/GD32VW55X_Wifi_BLE_SDK/GD32VW55x_RELEASE_V1.0.2/MSDK/ble/app\app_blue_courier_prot.c ****     }
 361:C:/Users/stapi/OneDrive/Desktop/GD32VW553/V1_MQTT_OK/GD32VW55X_Wifi_BLE_SDK/GD32VW55x_RELEASE_V1.0.2/MSDK/ble/app\app_blue_courier_prot.c **** 
 362:C:/Users/stapi/OneDrive/Desktop/GD32VW553/V1_MQTT_OK/GD32VW55X_Wifi_BLE_SDK/GD32VW55x_RELEASE_V1.0.2/MSDK/ble/app\app_blue_courier_prot.c ****     state = 0;
 363:C:/Users/stapi/OneDrive/Desktop/GD32VW553/V1_MQTT_OK/GD32VW55X_Wifi_BLE_SDK/GD32VW55x_RELEASE_V1.0.2/MSDK/ble/app\app_blue_courier_prot.c ****     dbg_print(NOTICE, "bcwp softAP successfully started!\r\n");
 364:C:/Users/stapi/OneDrive/Desktop/GD32VW553/V1_MQTT_OK/GD32VW55X_Wifi_BLE_SDK/GD32VW55x_RELEASE_V1.0.2/MSDK/ble/app\app_blue_courier_prot.c **** exit:
 365:C:/Users/stapi/OneDrive/Desktop/GD32VW553/V1_MQTT_OK/GD32VW55X_Wifi_BLE_SDK/GD32VW55x_RELEASE_V1.0.2/MSDK/ble/app\app_blue_courier_prot.c ****     bcwl_send(BCWL_OPCODE_BUILD(BCWL_OPCODE_TYPE_DATA, BCWL_OPCODE_DATA_SUBTYPE_SOFTAPMODE_START), 
 366:C:/Users/stapi/OneDrive/Desktop/GD32VW553/V1_MQTT_OK/GD32VW55X_Wifi_BLE_SDK/GD32VW55x_RELEASE_V1.0.2/MSDK/ble/app\app_blue_courier_prot.c **** }
 367:C:/Users/stapi/OneDrive/Desktop/GD32VW553/V1_MQTT_OK/GD32VW55X_Wifi_BLE_SDK/GD32VW55x_RELEASE_V1.0.2/MSDK/ble/app\app_blue_courier_prot.c **** 
 368:C:/Users/stapi/OneDrive/Desktop/GD32VW553/V1_MQTT_OK/GD32VW55X_Wifi_BLE_SDK/GD32VW55x_RELEASE_V1.0.2/MSDK/ble/app\app_blue_courier_prot.c **** /*!
 369:C:/Users/stapi/OneDrive/Desktop/GD32VW553/V1_MQTT_OK/GD32VW55X_Wifi_BLE_SDK/GD32VW55x_RELEASE_V1.0.2/MSDK/ble/app\app_blue_courier_prot.c ****     \brief      Blue courier triggers wifi to stop AP in softAP mode
 370:C:/Users/stapi/OneDrive/Desktop/GD32VW553/V1_MQTT_OK/GD32VW55X_Wifi_BLE_SDK/GD32VW55x_RELEASE_V1.0.2/MSDK/ble/app\app_blue_courier_prot.c ****     \param[in]  none
 371:C:/Users/stapi/OneDrive/Desktop/GD32VW553/V1_MQTT_OK/GD32VW55X_Wifi_BLE_SDK/GD32VW55x_RELEASE_V1.0.2/MSDK/ble/app\app_blue_courier_prot.c ****     \param[out] none
 372:C:/Users/stapi/OneDrive/Desktop/GD32VW553/V1_MQTT_OK/GD32VW55X_Wifi_BLE_SDK/GD32VW55x_RELEASE_V1.0.2/MSDK/ble/app\app_blue_courier_prot.c ****     \retval     none
 373:C:/Users/stapi/OneDrive/Desktop/GD32VW553/V1_MQTT_OK/GD32VW55X_Wifi_BLE_SDK/GD32VW55x_RELEASE_V1.0.2/MSDK/ble/app\app_blue_courier_prot.c **** */
 374:C:/Users/stapi/OneDrive/Desktop/GD32VW553/V1_MQTT_OK/GD32VW55X_Wifi_BLE_SDK/GD32VW55x_RELEASE_V1.0.2/MSDK/ble/app\app_blue_courier_prot.c **** static void bcwp_wifi_ap_stop(void)
 375:C:/Users/stapi/OneDrive/Desktop/GD32VW553/V1_MQTT_OK/GD32VW55X_Wifi_BLE_SDK/GD32VW55x_RELEASE_V1.0.2/MSDK/ble/app\app_blue_courier_prot.c **** {
 376:C:/Users/stapi/OneDrive/Desktop/GD32VW553/V1_MQTT_OK/GD32VW55X_Wifi_BLE_SDK/GD32VW55x_RELEASE_V1.0.2/MSDK/ble/app\app_blue_courier_prot.c ****     uint8_t state = 0;
 377:C:/Users/stapi/OneDrive/Desktop/GD32VW553/V1_MQTT_OK/GD32VW55X_Wifi_BLE_SDK/GD32VW55x_RELEASE_V1.0.2/MSDK/ble/app\app_blue_courier_prot.c **** 
 378:C:/Users/stapi/OneDrive/Desktop/GD32VW553/V1_MQTT_OK/GD32VW55X_Wifi_BLE_SDK/GD32VW55x_RELEASE_V1.0.2/MSDK/ble/app\app_blue_courier_prot.c ****     if (wifi_management_ap_stop() == 0) {
 379:C:/Users/stapi/OneDrive/Desktop/GD32VW553/V1_MQTT_OK/GD32VW55X_Wifi_BLE_SDK/GD32VW55x_RELEASE_V1.0.2/MSDK/ble/app\app_blue_courier_prot.c ****         dbg_print(NOTICE, "bcwp softAP successfully stoped!\r\n");
 380:C:/Users/stapi/OneDrive/Desktop/GD32VW553/V1_MQTT_OK/GD32VW55X_Wifi_BLE_SDK/GD32VW55x_RELEASE_V1.0.2/MSDK/ble/app\app_blue_courier_prot.c ****         bcwl_send(BCWL_OPCODE_BUILD(BCWL_OPCODE_TYPE_DATA, BCWL_OPCODE_DATA_SUBTYPE_SOFTAPMODE_STOP
 381:C:/Users/stapi/OneDrive/Desktop/GD32VW553/V1_MQTT_OK/GD32VW55X_Wifi_BLE_SDK/GD32VW55x_RELEASE_V1.0.2/MSDK/ble/app\app_blue_courier_prot.c ****     } else {
 382:C:/Users/stapi/OneDrive/Desktop/GD32VW553/V1_MQTT_OK/GD32VW55X_Wifi_BLE_SDK/GD32VW55x_RELEASE_V1.0.2/MSDK/ble/app\app_blue_courier_prot.c ****         state = 1;
 383:C:/Users/stapi/OneDrive/Desktop/GD32VW553/V1_MQTT_OK/GD32VW55X_Wifi_BLE_SDK/GD32VW55x_RELEASE_V1.0.2/MSDK/ble/app\app_blue_courier_prot.c ****         bcwl_send(BCWL_OPCODE_BUILD(BCWL_OPCODE_TYPE_DATA, BCWL_OPCODE_DATA_SUBTYPE_SOFTAPMODE_STOP
 384:C:/Users/stapi/OneDrive/Desktop/GD32VW553/V1_MQTT_OK/GD32VW55X_Wifi_BLE_SDK/GD32VW55x_RELEASE_V1.0.2/MSDK/ble/app\app_blue_courier_prot.c ****     }
 385:C:/Users/stapi/OneDrive/Desktop/GD32VW553/V1_MQTT_OK/GD32VW55X_Wifi_BLE_SDK/GD32VW55x_RELEASE_V1.0.2/MSDK/ble/app\app_blue_courier_prot.c **** }
 386:C:/Users/stapi/OneDrive/Desktop/GD32VW553/V1_MQTT_OK/GD32VW55X_Wifi_BLE_SDK/GD32VW55x_RELEASE_V1.0.2/MSDK/ble/app\app_blue_courier_prot.c **** 
 387:C:/Users/stapi/OneDrive/Desktop/GD32VW553/V1_MQTT_OK/GD32VW55X_Wifi_BLE_SDK/GD32VW55x_RELEASE_V1.0.2/MSDK/ble/app\app_blue_courier_prot.c **** /*!
 388:C:/Users/stapi/OneDrive/Desktop/GD32VW553/V1_MQTT_OK/GD32VW55X_Wifi_BLE_SDK/GD32VW55x_RELEASE_V1.0.2/MSDK/ble/app\app_blue_courier_prot.c ****     \brief      Blue courier get wifi status information
 389:C:/Users/stapi/OneDrive/Desktop/GD32VW553/V1_MQTT_OK/GD32VW55X_Wifi_BLE_SDK/GD32VW55x_RELEASE_V1.0.2/MSDK/ble/app\app_blue_courier_prot.c ****     \param[in]  none
 390:C:/Users/stapi/OneDrive/Desktop/GD32VW553/V1_MQTT_OK/GD32VW55X_Wifi_BLE_SDK/GD32VW55x_RELEASE_V1.0.2/MSDK/ble/app\app_blue_courier_prot.c ****     \param[out] none
 391:C:/Users/stapi/OneDrive/Desktop/GD32VW553/V1_MQTT_OK/GD32VW55X_Wifi_BLE_SDK/GD32VW55x_RELEASE_V1.0.2/MSDK/ble/app\app_blue_courier_prot.c ****     \retval     none
 392:C:/Users/stapi/OneDrive/Desktop/GD32VW553/V1_MQTT_OK/GD32VW55X_Wifi_BLE_SDK/GD32VW55x_RELEASE_V1.0.2/MSDK/ble/app\app_blue_courier_prot.c **** */
 393:C:/Users/stapi/OneDrive/Desktop/GD32VW553/V1_MQTT_OK/GD32VW55X_Wifi_BLE_SDK/GD32VW55x_RELEASE_V1.0.2/MSDK/ble/app\app_blue_courier_prot.c **** void bcwp_wifi_status_get(void)
 394:C:/Users/stapi/OneDrive/Desktop/GD32VW553/V1_MQTT_OK/GD32VW55X_Wifi_BLE_SDK/GD32VW55x_RELEASE_V1.0.2/MSDK/ble/app\app_blue_courier_prot.c **** {
 578              		.loc 1 394 1 is_stmt 1
 579              		.cfi_startproc
 580 0000 17030000 		call	t0,__riscv_save_4
 580      E7020300 
 581              		.cfi_offset 19, -20
 582              		.cfi_offset 18, -16
 583              		.cfi_offset 9, -12
 584              		.cfi_offset 8, -8
 585              		.cfi_offset 1, -4
 586              		.cfi_def_cfa_offset 32
 395:C:/Users/stapi/OneDrive/Desktop/GD32VW553/V1_MQTT_OK/GD32VW55X_Wifi_BLE_SDK/GD32VW55x_RELEASE_V1.0.2/MSDK/ble/app\app_blue_courier_prot.c ****     struct wifi_ip_addr_cfg ip_cfg;
 587              		.loc 1 395 5
 396:C:/Users/stapi/OneDrive/Desktop/GD32VW553/V1_MQTT_OK/GD32VW55X_Wifi_BLE_SDK/GD32VW55x_RELEASE_V1.0.2/MSDK/ble/app\app_blue_courier_prot.c ****     struct wifi_vif_tag *wvif = (struct wifi_vif_tag *)vif_idx_to_wvif(WIFI_VIF_INDEX_DEFAULT);
 588              		.loc 1 396 5
 394:C:/Users/stapi/OneDrive/Desktop/GD32VW553/V1_MQTT_OK/GD32VW55X_Wifi_BLE_SDK/GD32VW55x_RELEASE_V1.0.2/MSDK/ble/app\app_blue_courier_prot.c ****     struct wifi_ip_addr_cfg ip_cfg;
 589              		.loc 1 394 1 is_stmt 0
 590 0008 3171     		addi	sp,sp,-192
 591              		.cfi_def_cfa_offset 224
 592              		.loc 1 396 56
 593 000a 0145     		li	a0,0
 594 000c 97000000 		call	vif_idx_to_wvif
 594      E7800000 
 595              	.LVL48:
 596 0014 2A84     		mv	s0,a0
 597              	.LVL49:
 397:C:/Users/stapi/OneDrive/Desktop/GD32VW553/V1_MQTT_OK/GD32VW55X_Wifi_BLE_SDK/GD32VW55x_RELEASE_V1.0.2/MSDK/ble/app\app_blue_courier_prot.c ****     struct mac_addr cli_mac[CFG_STA_NUM];
 598              		.loc 1 397 5 is_stmt 1
 398:C:/Users/stapi/OneDrive/Desktop/GD32VW553/V1_MQTT_OK/GD32VW55X_Wifi_BLE_SDK/GD32VW55x_RELEASE_V1.0.2/MSDK/ble/app\app_blue_courier_prot.c ****     bcwp_wifi_status_t wifi_status_rsp = {0};
 599              		.loc 1 398 5
 600              		.loc 1 398 24 is_stmt 0
 601 0016 13063008 		li	a2,131
 602 001a 8145     		li	a1,0
 603 001c 6818     		addi	a0,sp,60
 604 001e 97000000 		call	memset
 604      E7800000 
 605              	.LVL50:
 399:C:/Users/stapi/OneDrive/Desktop/GD32VW553/V1_MQTT_OK/GD32VW55X_Wifi_BLE_SDK/GD32VW55x_RELEASE_V1.0.2/MSDK/ble/app\app_blue_courier_prot.c ****     uint32_t i, ip;
 606              		.loc 1 399 5 is_stmt 1
 400:C:/Users/stapi/OneDrive/Desktop/GD32VW553/V1_MQTT_OK/GD32VW55X_Wifi_BLE_SDK/GD32VW55x_RELEASE_V1.0.2/MSDK/ble/app\app_blue_courier_prot.c **** 
 401:C:/Users/stapi/OneDrive/Desktop/GD32VW553/V1_MQTT_OK/GD32VW55X_Wifi_BLE_SDK/GD32VW55x_RELEASE_V1.0.2/MSDK/ble/app\app_blue_courier_prot.c ****     wifi_status_rsp.vif_idx = WIFI_VIF_INDEX_DEFAULT;
 607              		.loc 1 401 5
 402:C:/Users/stapi/OneDrive/Desktop/GD32VW553/V1_MQTT_OK/GD32VW55X_Wifi_BLE_SDK/GD32VW55x_RELEASE_V1.0.2/MSDK/ble/app\app_blue_courier_prot.c ****     wifi_vif_name(wifi_status_rsp.vif_idx, (char *)wifi_status_rsp.vif_name, sizeof(wifi_status_rsp
 608              		.loc 1 402 5
 609 0026 0D46     		li	a2,3
 610 0028 9305D103 		addi	a1,sp,61
 611 002c 0145     		li	a0,0
 612 002e 97000000 		call	wifi_vif_name
 612      E7800000 
 613              	.LVL51:
 403:C:/Users/stapi/OneDrive/Desktop/GD32VW553/V1_MQTT_OK/GD32VW55X_Wifi_BLE_SDK/GD32VW55x_RELEASE_V1.0.2/MSDK/ble/app\app_blue_courier_prot.c **** 
 404:C:/Users/stapi/OneDrive/Desktop/GD32VW553/V1_MQTT_OK/GD32VW55X_Wifi_BLE_SDK/GD32VW55x_RELEASE_V1.0.2/MSDK/ble/app\app_blue_courier_prot.c ****     wifi_status_rsp.mode = wvif->wvif_type;
 614              		.loc 1 404 5
 615              		.loc 1 404 26 is_stmt 0
 616 0036 7C48     		lw	a5,84(s0)
 405:C:/Users/stapi/OneDrive/Desktop/GD32VW553/V1_MQTT_OK/GD32VW55X_Wifi_BLE_SDK/GD32VW55x_RELEASE_V1.0.2/MSDK/ble/app\app_blue_courier_prot.c ****     sys_memcpy(wifi_status_rsp.vif_mac, wvif->mac_addr.array, MAC_ADDR_LEN);
 617              		.loc 1 405 5
 618 0038 93054404 		addi	a1,s0,68
 619 003c 13051104 		addi	a0,sp,65
 620 0040 1946     		li	a2,6
 404:C:/Users/stapi/OneDrive/Desktop/GD32VW553/V1_MQTT_OK/GD32VW55X_Wifi_BLE_SDK/GD32VW55x_RELEASE_V1.0.2/MSDK/ble/app\app_blue_courier_prot.c ****     sys_memcpy(wifi_status_rsp.vif_mac, wvif->mac_addr.array, MAC_ADDR_LEN);
 621              		.loc 1 404 26
 622 0042 A303F104 		sb	a5,71(sp)
 623              		.loc 1 405 5 is_stmt 1
 624 0046 97000000 		call	sys_memcpy
 624      E7800000 
 625              	.LVL52:
 406:C:/Users/stapi/OneDrive/Desktop/GD32VW553/V1_MQTT_OK/GD32VW55X_Wifi_BLE_SDK/GD32VW55x_RELEASE_V1.0.2/MSDK/ble/app\app_blue_courier_prot.c **** 
 407:C:/Users/stapi/OneDrive/Desktop/GD32VW553/V1_MQTT_OK/GD32VW55X_Wifi_BLE_SDK/GD32VW55x_RELEASE_V1.0.2/MSDK/ble/app\app_blue_courier_prot.c ****     if (!wifi_get_vif_ip(wifi_status_rsp.vif_idx, &ip_cfg)) {
 626              		.loc 1 407 5
 627              		.loc 1 407 10 is_stmt 0
 628 004e 0345C103 		lbu	a0,60(sp)
 629 0052 4C10     		addi	a1,sp,36
 630 0054 97000000 		call	wifi_get_vif_ip
 630      E7800000 
 631              	.LVL53:
 632              		.loc 1 407 8
 633 005c 0DED     		bne	a0,zero,.L51
 408:C:/Users/stapi/OneDrive/Desktop/GD32VW553/V1_MQTT_OK/GD32VW55X_Wifi_BLE_SDK/GD32VW55x_RELEASE_V1.0.2/MSDK/ble/app\app_blue_courier_prot.c ****         *(uint32_t *)wifi_status_rsp.ip_addr = ip_cfg.ipv4.addr;
 634              		.loc 1 408 9 is_stmt 1
 635              		.loc 1 408 46 is_stmt 0
 636 005e B257     		lw	a5,44(sp)
 637 0060 13D78700 		srli	a4,a5,8
 638 0064 A305F104 		sb	a5,75(sp)
 639 0068 2306E104 		sb	a4,76(sp)
 640 006c 13D70701 		srli	a4,a5,16
 641 0070 E183     		srli	a5,a5,24
 642 0072 2307F104 		sb	a5,78(sp)
 409:C:/Users/stapi/OneDrive/Desktop/GD32VW553/V1_MQTT_OK/GD32VW55X_Wifi_BLE_SDK/GD32VW55x_RELEASE_V1.0.2/MSDK/ble/app\app_blue_courier_prot.c ****         *(uint32_t *)wifi_status_rsp.gw = ip_cfg.ipv4.gw;
 643              		.loc 1 409 9 is_stmt 1
 644              		.loc 1 409 41 is_stmt 0
 645 0076 D257     		lw	a5,52(sp)
 408:C:/Users/stapi/OneDrive/Desktop/GD32VW553/V1_MQTT_OK/GD32VW55X_Wifi_BLE_SDK/GD32VW55x_RELEASE_V1.0.2/MSDK/ble/app\app_blue_courier_prot.c ****         *(uint32_t *)wifi_status_rsp.ip_addr = ip_cfg.ipv4.addr;
 646              		.loc 1 408 46
 647 0078 A306E104 		sb	a4,77(sp)
 648              		.loc 1 409 41
 649 007c 13D78700 		srli	a4,a5,8
 650 0080 A307F104 		sb	a5,79(sp)
 651 0084 2308E104 		sb	a4,80(sp)
 652 0088 13D70701 		srli	a4,a5,16
 653 008c E183     		srli	a5,a5,24
 654 008e A308E104 		sb	a4,81(sp)
 655 0092 2309F104 		sb	a5,82(sp)
 656              	.L51:
 410:C:/Users/stapi/OneDrive/Desktop/GD32VW553/V1_MQTT_OK/GD32VW55X_Wifi_BLE_SDK/GD32VW55x_RELEASE_V1.0.2/MSDK/ble/app\app_blue_courier_prot.c ****     }
 411:C:/Users/stapi/OneDrive/Desktop/GD32VW553/V1_MQTT_OK/GD32VW55X_Wifi_BLE_SDK/GD32VW55x_RELEASE_V1.0.2/MSDK/ble/app\app_blue_courier_prot.c **** 
 412:C:/Users/stapi/OneDrive/Desktop/GD32VW553/V1_MQTT_OK/GD32VW55X_Wifi_BLE_SDK/GD32VW55x_RELEASE_V1.0.2/MSDK/ble/app\app_blue_courier_prot.c ****     if (wvif->wvif_type == WVIF_STA) {
 657              		.loc 1 412 5 is_stmt 1
 658              		.loc 1 412 13 is_stmt 0
 659 0096 6448     		lw	s1,84(s0)
 660              		.loc 1 412 8
 661 0098 8547     		li	a5,1
 662 009a 6390F40A 		bne	s1,a5,.L52
 413:C:/Users/stapi/OneDrive/Desktop/GD32VW553/V1_MQTT_OK/GD32VW55X_Wifi_BLE_SDK/GD32VW55x_RELEASE_V1.0.2/MSDK/ble/app\app_blue_courier_prot.c ****         wifi_status_rsp.sta_status = wvif->sta.state;
 663              		.loc 1 413 9 is_stmt 1
 664              		.loc 1 413 36 is_stmt 0
 665 009e 8327440D 		lw	a5,212(s0)
 414:C:/Users/stapi/OneDrive/Desktop/GD32VW553/V1_MQTT_OK/GD32VW55X_Wifi_BLE_SDK/GD32VW55x_RELEASE_V1.0.2/MSDK/ble/app\app_blue_courier_prot.c ****         wifi_status_rsp.sta_rssi = macif_vif_sta_rssi_get(wifi_status_rsp.vif_idx);
 666              		.loc 1 414 36
 667 00a2 0345C103 		lbu	a0,60(sp)
 413:C:/Users/stapi/OneDrive/Desktop/GD32VW553/V1_MQTT_OK/GD32VW55X_Wifi_BLE_SDK/GD32VW55x_RELEASE_V1.0.2/MSDK/ble/app\app_blue_courier_prot.c ****         wifi_status_rsp.sta_status = wvif->sta.state;
 668              		.loc 1 413 36
 669 00a6 A309F104 		sb	a5,83(sp)
 670              		.loc 1 414 9 is_stmt 1
 671              		.loc 1 414 36 is_stmt 0
 672 00aa 97000000 		call	macif_vif_sta_rssi_get
 672      E7800000 
 673              	.LVL54:
 415:C:/Users/stapi/OneDrive/Desktop/GD32VW553/V1_MQTT_OK/GD32VW55X_Wifi_BLE_SDK/GD32VW55x_RELEASE_V1.0.2/MSDK/ble/app\app_blue_courier_prot.c ****         wifi_status_rsp.sta_ssid.length = wvif->sta.cfg.ssid_len;
 674              		.loc 1 415 56
 675 00b2 03469407 		lbu	a2,121(s0)
 414:C:/Users/stapi/OneDrive/Desktop/GD32VW553/V1_MQTT_OK/GD32VW55X_Wifi_BLE_SDK/GD32VW55x_RELEASE_V1.0.2/MSDK/ble/app\app_blue_courier_prot.c ****         wifi_status_rsp.sta_rssi = macif_vif_sta_rssi_get(wifi_status_rsp.vif_idx);
 676              		.loc 1 414 34
 677 00b6 230AA104 		sb	a0,84(sp)
 678              		.loc 1 415 9 is_stmt 1
 416:C:/Users/stapi/OneDrive/Desktop/GD32VW553/V1_MQTT_OK/GD32VW55X_Wifi_BLE_SDK/GD32VW55x_RELEASE_V1.0.2/MSDK/ble/app\app_blue_courier_prot.c ****         sys_memcpy(wifi_status_rsp.sta_ssid.array, wvif->sta.cfg.ssid, wifi_status_rsp.sta_ssid.len
 679              		.loc 1 416 9 is_stmt 0
 680 00ba 93058405 		addi	a1,s0,88
 681 00be E808     		addi	a0,sp,92
 415:C:/Users/stapi/OneDrive/Desktop/GD32VW553/V1_MQTT_OK/GD32VW55X_Wifi_BLE_SDK/GD32VW55x_RELEASE_V1.0.2/MSDK/ble/app\app_blue_courier_prot.c ****         wifi_status_rsp.sta_ssid.length = wvif->sta.cfg.ssid_len;
 682              		.loc 1 415 41
 683 00c0 A30DC104 		sb	a2,91(sp)
 684              		.loc 1 416 9 is_stmt 1
 685 00c4 97000000 		call	sys_memcpy
 685      E7800000 
 686              	.LVL55:
 417:C:/Users/stapi/OneDrive/Desktop/GD32VW553/V1_MQTT_OK/GD32VW55X_Wifi_BLE_SDK/GD32VW55x_RELEASE_V1.0.2/MSDK/ble/app\app_blue_courier_prot.c ****         sys_memcpy(wifi_status_rsp.sta_bssid, wvif->sta.cfg.bssid, MAC_ADDR_LEN);
 687              		.loc 1 417 9
 688 00cc 1946     		li	a2,6
 689 00ce 9305C407 		addi	a1,s0,124
 690 00d2 13055105 		addi	a0,sp,85
 691 00d6 97000000 		call	sys_memcpy
 691      E7800000 
 692              	.LVL56:
 418:C:/Users/stapi/OneDrive/Desktop/GD32VW553/V1_MQTT_OK/GD32VW55X_Wifi_BLE_SDK/GD32VW55x_RELEASE_V1.0.2/MSDK/ble/app\app_blue_courier_prot.c ****         wifi_status_rsp.bw = 20; //wvif->sta.cfg.bw;
 693              		.loc 1 418 9
 694              		.loc 1 418 28 is_stmt 0
 695 00de D147     		li	a5,20
 696 00e0 A304F104 		sb	a5,73(sp)
 419:C:/Users/stapi/OneDrive/Desktop/GD32VW553/V1_MQTT_OK/GD32VW55X_Wifi_BLE_SDK/GD32VW55x_RELEASE_V1.0.2/MSDK/ble/app\app_blue_courier_prot.c ****         wifi_status_rsp.channel = wvif->sta.cfg.channel;
 697              		.loc 1 419 9 is_stmt 1
 698              		.loc 1 419 33 is_stmt 0
 699 00e4 8347A407 		lbu	a5,122(s0)
 700 00e8 2304F104 		sb	a5,72(sp)
 420:C:/Users/stapi/OneDrive/Desktop/GD32VW553/V1_MQTT_OK/GD32VW55X_Wifi_BLE_SDK/GD32VW55x_RELEASE_V1.0.2/MSDK/ble/app\app_blue_courier_prot.c **** 
 421:C:/Users/stapi/OneDrive/Desktop/GD32VW553/V1_MQTT_OK/GD32VW55X_Wifi_BLE_SDK/GD32VW55x_RELEASE_V1.0.2/MSDK/ble/app\app_blue_courier_prot.c ****         if (wvif->sta.cfg.akm & CO_BIT(MAC_AKM_SAE))
 701              		.loc 1 421 9 is_stmt 1
 702              		.loc 1 421 26 is_stmt 0
 703 00ec 83274408 		lw	a5,132(s0)
 704              		.loc 1 421 31
 705 00f0 13F70720 		andi	a4,a5,512
 706              		.loc 1 421 12
 707 00f4 09C7     		beq	a4,zero,.L53
 708              	.L63:
 422:C:/Users/stapi/OneDrive/Desktop/GD32VW553/V1_MQTT_OK/GD32VW55X_Wifi_BLE_SDK/GD32VW55x_RELEASE_V1.0.2/MSDK/ble/app\app_blue_courier_prot.c ****             wifi_status_rsp.akm = 3;
 709              		.loc 1 422 13 is_stmt 1
 710              		.loc 1 422 33 is_stmt 0
 711 00f6 8D47     		li	a5,3
 712              	.L65:
 423:C:/Users/stapi/OneDrive/Desktop/GD32VW553/V1_MQTT_OK/GD32VW55X_Wifi_BLE_SDK/GD32VW55x_RELEASE_V1.0.2/MSDK/ble/app\app_blue_courier_prot.c ****         else if (wvif->sta.cfg.akm == (CO_BIT(MAC_AKM_PSK) | CO_BIT(MAC_AKM_PRE_RSN)))
 424:C:/Users/stapi/OneDrive/Desktop/GD32VW553/V1_MQTT_OK/GD32VW55X_Wifi_BLE_SDK/GD32VW55x_RELEASE_V1.0.2/MSDK/ble/app\app_blue_courier_prot.c ****             wifi_status_rsp.akm = 1;
 425:C:/Users/stapi/OneDrive/Desktop/GD32VW553/V1_MQTT_OK/GD32VW55X_Wifi_BLE_SDK/GD32VW55x_RELEASE_V1.0.2/MSDK/ble/app\app_blue_courier_prot.c ****         else if (wvif->sta.cfg.akm == CO_BIT(MAC_AKM_PSK))
 426:C:/Users/stapi/OneDrive/Desktop/GD32VW553/V1_MQTT_OK/GD32VW55X_Wifi_BLE_SDK/GD32VW55x_RELEASE_V1.0.2/MSDK/ble/app\app_blue_courier_prot.c ****             wifi_status_rsp.akm = 2;
 427:C:/Users/stapi/OneDrive/Desktop/GD32VW553/V1_MQTT_OK/GD32VW55X_Wifi_BLE_SDK/GD32VW55x_RELEASE_V1.0.2/MSDK/ble/app\app_blue_courier_prot.c ****         else if (wvif->sta.cfg.akm == CO_BIT(MAC_AKM_NONE))
 428:C:/Users/stapi/OneDrive/Desktop/GD32VW553/V1_MQTT_OK/GD32VW55X_Wifi_BLE_SDK/GD32VW55x_RELEASE_V1.0.2/MSDK/ble/app\app_blue_courier_prot.c ****             wifi_status_rsp.akm = 0;
 429:C:/Users/stapi/OneDrive/Desktop/GD32VW553/V1_MQTT_OK/GD32VW55X_Wifi_BLE_SDK/GD32VW55x_RELEASE_V1.0.2/MSDK/ble/app\app_blue_courier_prot.c ****         else
 430:C:/Users/stapi/OneDrive/Desktop/GD32VW553/V1_MQTT_OK/GD32VW55X_Wifi_BLE_SDK/GD32VW55x_RELEASE_V1.0.2/MSDK/ble/app\app_blue_courier_prot.c ****             wifi_status_rsp.akm = 5;
 431:C:/Users/stapi/OneDrive/Desktop/GD32VW553/V1_MQTT_OK/GD32VW55X_Wifi_BLE_SDK/GD32VW55x_RELEASE_V1.0.2/MSDK/ble/app\app_blue_courier_prot.c ****     } else if (wvif->wvif_type == WVIF_AP) {
 432:C:/Users/stapi/OneDrive/Desktop/GD32VW553/V1_MQTT_OK/GD32VW55X_Wifi_BLE_SDK/GD32VW55x_RELEASE_V1.0.2/MSDK/ble/app\app_blue_courier_prot.c ****         wifi_status_rsp.ap_status = wvif->ap.ap_state;
 433:C:/Users/stapi/OneDrive/Desktop/GD32VW553/V1_MQTT_OK/GD32VW55X_Wifi_BLE_SDK/GD32VW55x_RELEASE_V1.0.2/MSDK/ble/app\app_blue_courier_prot.c ****         wifi_status_rsp.ap_ssid.length = wvif->ap.cfg.ssid_len;
 434:C:/Users/stapi/OneDrive/Desktop/GD32VW553/V1_MQTT_OK/GD32VW55X_Wifi_BLE_SDK/GD32VW55x_RELEASE_V1.0.2/MSDK/ble/app\app_blue_courier_prot.c ****         sys_memcpy(wifi_status_rsp.ap_ssid.array, wvif->ap.cfg.ssid, wifi_status_rsp.ap_ssid.length
 435:C:/Users/stapi/OneDrive/Desktop/GD32VW553/V1_MQTT_OK/GD32VW55X_Wifi_BLE_SDK/GD32VW55x_RELEASE_V1.0.2/MSDK/ble/app\app_blue_courier_prot.c ****         wifi_status_rsp.channel = wvif->ap.cfg.channel;
 436:C:/Users/stapi/OneDrive/Desktop/GD32VW553/V1_MQTT_OK/GD32VW55X_Wifi_BLE_SDK/GD32VW55x_RELEASE_V1.0.2/MSDK/ble/app\app_blue_courier_prot.c ****         wifi_status_rsp.cli_num = macif_vif_ap_assoc_info_get(wifi_status_rsp.vif_idx, (uint16_t *)
 437:C:/Users/stapi/OneDrive/Desktop/GD32VW553/V1_MQTT_OK/GD32VW55X_Wifi_BLE_SDK/GD32VW55x_RELEASE_V1.0.2/MSDK/ble/app\app_blue_courier_prot.c ****         for (i = 0; i < wifi_status_rsp.cli_num; i++) {
 438:C:/Users/stapi/OneDrive/Desktop/GD32VW553/V1_MQTT_OK/GD32VW55X_Wifi_BLE_SDK/GD32VW55x_RELEASE_V1.0.2/MSDK/ble/app\app_blue_courier_prot.c ****             sys_memcpy(wifi_status_rsp.cli[i].mac, (uint8_t *)cli_mac[i].array, MAC_ADDR_LEN);
 439:C:/Users/stapi/OneDrive/Desktop/GD32VW553/V1_MQTT_OK/GD32VW55X_Wifi_BLE_SDK/GD32VW55x_RELEASE_V1.0.2/MSDK/ble/app\app_blue_courier_prot.c ****             ip = dhcpd_find_ipaddr_by_macaddr((uint8_t *)cli_mac->array);
 440:C:/Users/stapi/OneDrive/Desktop/GD32VW553/V1_MQTT_OK/GD32VW55X_Wifi_BLE_SDK/GD32VW55x_RELEASE_V1.0.2/MSDK/ble/app\app_blue_courier_prot.c ****             sys_memcpy(wifi_status_rsp.cli[i].ip, (uint8_t *)&ip, 4);
 441:C:/Users/stapi/OneDrive/Desktop/GD32VW553/V1_MQTT_OK/GD32VW55X_Wifi_BLE_SDK/GD32VW55x_RELEASE_V1.0.2/MSDK/ble/app\app_blue_courier_prot.c ****         }
 442:C:/Users/stapi/OneDrive/Desktop/GD32VW553/V1_MQTT_OK/GD32VW55X_Wifi_BLE_SDK/GD32VW55x_RELEASE_V1.0.2/MSDK/ble/app\app_blue_courier_prot.c **** 
 443:C:/Users/stapi/OneDrive/Desktop/GD32VW553/V1_MQTT_OK/GD32VW55X_Wifi_BLE_SDK/GD32VW55x_RELEASE_V1.0.2/MSDK/ble/app\app_blue_courier_prot.c ****         if (wvif->ap.cfg.akm == CO_BIT(MAC_AKM_NONE))
 444:C:/Users/stapi/OneDrive/Desktop/GD32VW553/V1_MQTT_OK/GD32VW55X_Wifi_BLE_SDK/GD32VW55x_RELEASE_V1.0.2/MSDK/ble/app\app_blue_courier_prot.c ****             wifi_status_rsp.akm = 0;
 445:C:/Users/stapi/OneDrive/Desktop/GD32VW553/V1_MQTT_OK/GD32VW55X_Wifi_BLE_SDK/GD32VW55x_RELEASE_V1.0.2/MSDK/ble/app\app_blue_courier_prot.c ****         else if (wvif->ap.cfg.akm == (CO_BIT(MAC_AKM_PSK) | CO_BIT(MAC_AKM_PRE_RSN)))
 446:C:/Users/stapi/OneDrive/Desktop/GD32VW553/V1_MQTT_OK/GD32VW55X_Wifi_BLE_SDK/GD32VW55x_RELEASE_V1.0.2/MSDK/ble/app\app_blue_courier_prot.c ****             wifi_status_rsp.akm = 1;
 447:C:/Users/stapi/OneDrive/Desktop/GD32VW553/V1_MQTT_OK/GD32VW55X_Wifi_BLE_SDK/GD32VW55x_RELEASE_V1.0.2/MSDK/ble/app\app_blue_courier_prot.c ****         else if (wvif->ap.cfg.akm == CO_BIT(MAC_AKM_PSK))
 448:C:/Users/stapi/OneDrive/Desktop/GD32VW553/V1_MQTT_OK/GD32VW55X_Wifi_BLE_SDK/GD32VW55x_RELEASE_V1.0.2/MSDK/ble/app\app_blue_courier_prot.c ****             wifi_status_rsp.akm = 2;
 449:C:/Users/stapi/OneDrive/Desktop/GD32VW553/V1_MQTT_OK/GD32VW55X_Wifi_BLE_SDK/GD32VW55x_RELEASE_V1.0.2/MSDK/ble/app\app_blue_courier_prot.c ****         else if (wvif->ap.cfg.akm == CO_BIT(MAC_AKM_SAE))
 450:C:/Users/stapi/OneDrive/Desktop/GD32VW553/V1_MQTT_OK/GD32VW55X_Wifi_BLE_SDK/GD32VW55x_RELEASE_V1.0.2/MSDK/ble/app\app_blue_courier_prot.c ****             wifi_status_rsp.akm = 3;
 451:C:/Users/stapi/OneDrive/Desktop/GD32VW553/V1_MQTT_OK/GD32VW55X_Wifi_BLE_SDK/GD32VW55x_RELEASE_V1.0.2/MSDK/ble/app\app_blue_courier_prot.c ****         else if (wvif->ap.cfg.akm == (CO_BIT(MAC_AKM_PSK) | CO_BIT(MAC_AKM_SAE)))
 452:C:/Users/stapi/OneDrive/Desktop/GD32VW553/V1_MQTT_OK/GD32VW55X_Wifi_BLE_SDK/GD32VW55x_RELEASE_V1.0.2/MSDK/ble/app\app_blue_courier_prot.c ****             wifi_status_rsp.akm = 4;
 713              		.loc 1 452 33
 714 00f8 2305F104 		sb	a5,74(sp)
 715 00fc 39A8     		j	.L54
 716              	.L53:
 423:C:/Users/stapi/OneDrive/Desktop/GD32VW553/V1_MQTT_OK/GD32VW55X_Wifi_BLE_SDK/GD32VW55x_RELEASE_V1.0.2/MSDK/ble/app\app_blue_courier_prot.c ****         else if (wvif->sta.cfg.akm == (CO_BIT(MAC_AKM_PSK) | CO_BIT(MAC_AKM_PRE_RSN)))
 717              		.loc 1 423 14 is_stmt 1
 423:C:/Users/stapi/OneDrive/Desktop/GD32VW553/V1_MQTT_OK/GD32VW55X_Wifi_BLE_SDK/GD32VW55x_RELEASE_V1.0.2/MSDK/ble/app\app_blue_courier_prot.c ****         else if (wvif->sta.cfg.akm == (CO_BIT(MAC_AKM_PSK) | CO_BIT(MAC_AKM_PRE_RSN)))
 718              		.loc 1 423 17 is_stmt 0
 719 00fe 2947     		li	a4,10
 720 0100 6394E700 		bne	a5,a4,.L55
 721              	.L61:
 424:C:/Users/stapi/OneDrive/Desktop/GD32VW553/V1_MQTT_OK/GD32VW55X_Wifi_BLE_SDK/GD32VW55x_RELEASE_V1.0.2/MSDK/ble/app\app_blue_courier_prot.c ****         else if (wvif->sta.cfg.akm == CO_BIT(MAC_AKM_PSK))
 722              		.loc 1 424 13 is_stmt 1
 424:C:/Users/stapi/OneDrive/Desktop/GD32VW553/V1_MQTT_OK/GD32VW55X_Wifi_BLE_SDK/GD32VW55x_RELEASE_V1.0.2/MSDK/ble/app\app_blue_courier_prot.c ****         else if (wvif->sta.cfg.akm == CO_BIT(MAC_AKM_PSK))
 723              		.loc 1 424 33 is_stmt 0
 724 0104 8547     		li	a5,1
 725 0106 CDBF     		j	.L65
 726              	.L55:
 425:C:/Users/stapi/OneDrive/Desktop/GD32VW553/V1_MQTT_OK/GD32VW55X_Wifi_BLE_SDK/GD32VW55x_RELEASE_V1.0.2/MSDK/ble/app\app_blue_courier_prot.c ****             wifi_status_rsp.akm = 2;
 727              		.loc 1 425 14 is_stmt 1
 425:C:/Users/stapi/OneDrive/Desktop/GD32VW553/V1_MQTT_OK/GD32VW55X_Wifi_BLE_SDK/GD32VW55x_RELEASE_V1.0.2/MSDK/ble/app\app_blue_courier_prot.c ****             wifi_status_rsp.akm = 2;
 728              		.loc 1 425 17 is_stmt 0
 729 0108 2147     		li	a4,8
 730 010a 6394E700 		bne	a5,a4,.L56
 731              	.L62:
 426:C:/Users/stapi/OneDrive/Desktop/GD32VW553/V1_MQTT_OK/GD32VW55X_Wifi_BLE_SDK/GD32VW55x_RELEASE_V1.0.2/MSDK/ble/app\app_blue_courier_prot.c ****         else if (wvif->sta.cfg.akm == CO_BIT(MAC_AKM_NONE))
 732              		.loc 1 426 13 is_stmt 1
 426:C:/Users/stapi/OneDrive/Desktop/GD32VW553/V1_MQTT_OK/GD32VW55X_Wifi_BLE_SDK/GD32VW55x_RELEASE_V1.0.2/MSDK/ble/app\app_blue_courier_prot.c ****         else if (wvif->sta.cfg.akm == CO_BIT(MAC_AKM_NONE))
 733              		.loc 1 426 33 is_stmt 0
 734 010e 8947     		li	a5,2
 735 0110 E5B7     		j	.L65
 736              	.L56:
 427:C:/Users/stapi/OneDrive/Desktop/GD32VW553/V1_MQTT_OK/GD32VW55X_Wifi_BLE_SDK/GD32VW55x_RELEASE_V1.0.2/MSDK/ble/app\app_blue_courier_prot.c ****             wifi_status_rsp.akm = 0;
 737              		.loc 1 427 14 is_stmt 1
 427:C:/Users/stapi/OneDrive/Desktop/GD32VW553/V1_MQTT_OK/GD32VW55X_Wifi_BLE_SDK/GD32VW55x_RELEASE_V1.0.2/MSDK/ble/app\app_blue_courier_prot.c ****             wifi_status_rsp.akm = 0;
 738              		.loc 1 427 17 is_stmt 0
 739 0112 63929702 		bne	a5,s1,.L57
 740              	.L60:
 428:C:/Users/stapi/OneDrive/Desktop/GD32VW553/V1_MQTT_OK/GD32VW55X_Wifi_BLE_SDK/GD32VW55x_RELEASE_V1.0.2/MSDK/ble/app\app_blue_courier_prot.c ****         else
 741              		.loc 1 428 13 is_stmt 1
 428:C:/Users/stapi/OneDrive/Desktop/GD32VW553/V1_MQTT_OK/GD32VW55X_Wifi_BLE_SDK/GD32VW55x_RELEASE_V1.0.2/MSDK/ble/app\app_blue_courier_prot.c ****         else
 742              		.loc 1 428 33 is_stmt 0
 743 0116 23050104 		sb	zero,74(sp)
 744              	.L54:
 453:C:/Users/stapi/OneDrive/Desktop/GD32VW553/V1_MQTT_OK/GD32VW55X_Wifi_BLE_SDK/GD32VW55x_RELEASE_V1.0.2/MSDK/ble/app\app_blue_courier_prot.c ****         else
 454:C:/Users/stapi/OneDrive/Desktop/GD32VW553/V1_MQTT_OK/GD32VW55X_Wifi_BLE_SDK/GD32VW55x_RELEASE_V1.0.2/MSDK/ble/app\app_blue_courier_prot.c ****             wifi_status_rsp.akm = 5;
 455:C:/Users/stapi/OneDrive/Desktop/GD32VW553/V1_MQTT_OK/GD32VW55X_Wifi_BLE_SDK/GD32VW55x_RELEASE_V1.0.2/MSDK/ble/app\app_blue_courier_prot.c ****     }
 456:C:/Users/stapi/OneDrive/Desktop/GD32VW553/V1_MQTT_OK/GD32VW55X_Wifi_BLE_SDK/GD32VW55x_RELEASE_V1.0.2/MSDK/ble/app\app_blue_courier_prot.c **** 
 457:C:/Users/stapi/OneDrive/Desktop/GD32VW553/V1_MQTT_OK/GD32VW55X_Wifi_BLE_SDK/GD32VW55x_RELEASE_V1.0.2/MSDK/ble/app\app_blue_courier_prot.c ****     bcwl_send(BCWL_OPCODE_BUILD(BCWL_OPCODE_TYPE_DATA, BCWL_OPCODE_DATA_SUBTYPE_STATUS_GET),
 745              		.loc 1 457 5 is_stmt 1
 746 011a 6C18     		addi	a1,sp,60
 747 011c 13063008 		li	a2,131
 748 0120 13056004 		li	a0,70
 749 0124 97000000 		call	bcwl_send
 749      E7800000 
 750              	.LVL57:
 458:C:/Users/stapi/OneDrive/Desktop/GD32VW553/V1_MQTT_OK/GD32VW55X_Wifi_BLE_SDK/GD32VW55x_RELEASE_V1.0.2/MSDK/ble/app\app_blue_courier_prot.c ****         (uint8_t *)&wifi_status_rsp, sizeof(wifi_status_rsp));
 459:C:/Users/stapi/OneDrive/Desktop/GD32VW553/V1_MQTT_OK/GD32VW55X_Wifi_BLE_SDK/GD32VW55x_RELEASE_V1.0.2/MSDK/ble/app\app_blue_courier_prot.c **** }
 751              		.loc 1 459 1 is_stmt 0
 752 012c 2961     		addi	sp,sp,192
 753              		.cfi_remember_state
 754              		.cfi_def_cfa_offset 0
 755 012e 17030000 		tail	__riscv_restore_4
 755      67000300 
 756              		.cfi_restore 19
 757              		.cfi_restore 18
 758              		.cfi_restore 9
 759              		.cfi_restore 8
 760              		.cfi_restore 1
 761              		.cfi_def_cfa_offset -32
 762              	.L57:
 763              		.cfi_restore_state
 430:C:/Users/stapi/OneDrive/Desktop/GD32VW553/V1_MQTT_OK/GD32VW55X_Wifi_BLE_SDK/GD32VW55x_RELEASE_V1.0.2/MSDK/ble/app\app_blue_courier_prot.c ****     } else if (wvif->wvif_type == WVIF_AP) {
 764              		.loc 1 430 13 is_stmt 1
 430:C:/Users/stapi/OneDrive/Desktop/GD32VW553/V1_MQTT_OK/GD32VW55X_Wifi_BLE_SDK/GD32VW55x_RELEASE_V1.0.2/MSDK/ble/app\app_blue_courier_prot.c ****     } else if (wvif->wvif_type == WVIF_AP) {
 765              		.loc 1 430 33 is_stmt 0
 766 0136 9547     		li	a5,5
 767 0138 C1B7     		j	.L65
 768              	.L52:
 431:C:/Users/stapi/OneDrive/Desktop/GD32VW553/V1_MQTT_OK/GD32VW55X_Wifi_BLE_SDK/GD32VW55x_RELEASE_V1.0.2/MSDK/ble/app\app_blue_courier_prot.c ****         wifi_status_rsp.ap_status = wvif->ap.ap_state;
 769              		.loc 1 431 12 is_stmt 1
 431:C:/Users/stapi/OneDrive/Desktop/GD32VW553/V1_MQTT_OK/GD32VW55X_Wifi_BLE_SDK/GD32VW55x_RELEASE_V1.0.2/MSDK/ble/app\app_blue_courier_prot.c ****         wifi_status_rsp.ap_status = wvif->ap.ap_state;
 770              		.loc 1 431 15 is_stmt 0
 771 013a 8947     		li	a5,2
 772 013c E39FF4FC 		bne	s1,a5,.L54
 432:C:/Users/stapi/OneDrive/Desktop/GD32VW553/V1_MQTT_OK/GD32VW55X_Wifi_BLE_SDK/GD32VW55x_RELEASE_V1.0.2/MSDK/ble/app\app_blue_courier_prot.c ****         wifi_status_rsp.ap_ssid.length = wvif->ap.cfg.ssid_len;
 773              		.loc 1 432 9 is_stmt 1
 432:C:/Users/stapi/OneDrive/Desktop/GD32VW553/V1_MQTT_OK/GD32VW55X_Wifi_BLE_SDK/GD32VW55x_RELEASE_V1.0.2/MSDK/ble/app\app_blue_courier_prot.c ****         wifi_status_rsp.ap_ssid.length = wvif->ap.cfg.ssid_len;
 774              		.loc 1 432 35 is_stmt 0
 775 0140 8327040F 		lw	a5,240(s0)
 433:C:/Users/stapi/OneDrive/Desktop/GD32VW553/V1_MQTT_OK/GD32VW55X_Wifi_BLE_SDK/GD32VW55x_RELEASE_V1.0.2/MSDK/ble/app\app_blue_courier_prot.c ****         sys_memcpy(wifi_status_rsp.ap_ssid.array, wvif->ap.cfg.ssid, wifi_status_rsp.ap_ssid.length
 776              		.loc 1 433 54
 777 0144 03469407 		lbu	a2,121(s0)
 434:C:/Users/stapi/OneDrive/Desktop/GD32VW553/V1_MQTT_OK/GD32VW55X_Wifi_BLE_SDK/GD32VW55x_RELEASE_V1.0.2/MSDK/ble/app\app_blue_courier_prot.c ****         wifi_status_rsp.channel = wvif->ap.cfg.channel;
 778              		.loc 1 434 9
 779 0148 93058405 		addi	a1,s0,88
 780 014c 1305F107 		addi	a0,sp,127
 432:C:/Users/stapi/OneDrive/Desktop/GD32VW553/V1_MQTT_OK/GD32VW55X_Wifi_BLE_SDK/GD32VW55x_RELEASE_V1.0.2/MSDK/ble/app\app_blue_courier_prot.c ****         wifi_status_rsp.ap_ssid.length = wvif->ap.cfg.ssid_len;
 781              		.loc 1 432 35
 782 0150 A30EF106 		sb	a5,125(sp)
 433:C:/Users/stapi/OneDrive/Desktop/GD32VW553/V1_MQTT_OK/GD32VW55X_Wifi_BLE_SDK/GD32VW55x_RELEASE_V1.0.2/MSDK/ble/app\app_blue_courier_prot.c ****         sys_memcpy(wifi_status_rsp.ap_ssid.array, wvif->ap.cfg.ssid, wifi_status_rsp.ap_ssid.length
 783              		.loc 1 433 9 is_stmt 1
 433:C:/Users/stapi/OneDrive/Desktop/GD32VW553/V1_MQTT_OK/GD32VW55X_Wifi_BLE_SDK/GD32VW55x_RELEASE_V1.0.2/MSDK/ble/app\app_blue_courier_prot.c ****         sys_memcpy(wifi_status_rsp.ap_ssid.array, wvif->ap.cfg.ssid, wifi_status_rsp.ap_ssid.length
 784              		.loc 1 433 40 is_stmt 0
 785 0154 230FC106 		sb	a2,126(sp)
 434:C:/Users/stapi/OneDrive/Desktop/GD32VW553/V1_MQTT_OK/GD32VW55X_Wifi_BLE_SDK/GD32VW55x_RELEASE_V1.0.2/MSDK/ble/app\app_blue_courier_prot.c ****         wifi_status_rsp.channel = wvif->ap.cfg.channel;
 786              		.loc 1 434 9 is_stmt 1
 787 0158 97000000 		call	sys_memcpy
 787      E7800000 
 788              	.LVL58:
 435:C:/Users/stapi/OneDrive/Desktop/GD32VW553/V1_MQTT_OK/GD32VW55X_Wifi_BLE_SDK/GD32VW55x_RELEASE_V1.0.2/MSDK/ble/app\app_blue_courier_prot.c ****         wifi_status_rsp.cli_num = macif_vif_ap_assoc_info_get(wifi_status_rsp.vif_idx, (uint16_t *)
 789              		.loc 1 435 9
 435:C:/Users/stapi/OneDrive/Desktop/GD32VW553/V1_MQTT_OK/GD32VW55X_Wifi_BLE_SDK/GD32VW55x_RELEASE_V1.0.2/MSDK/ble/app\app_blue_courier_prot.c ****         wifi_status_rsp.cli_num = macif_vif_ap_assoc_info_get(wifi_status_rsp.vif_idx, (uint16_t *)
 790              		.loc 1 435 33 is_stmt 0
 791 0160 8347A407 		lbu	a5,122(s0)
 436:C:/Users/stapi/OneDrive/Desktop/GD32VW553/V1_MQTT_OK/GD32VW55X_Wifi_BLE_SDK/GD32VW55x_RELEASE_V1.0.2/MSDK/ble/app\app_blue_courier_prot.c ****         for (i = 0; i < wifi_status_rsp.cli_num; i++) {
 792              		.loc 1 436 35
 793 0164 0345C103 		lbu	a0,60(sp)
 794 0168 0C08     		addi	a1,sp,16
 435:C:/Users/stapi/OneDrive/Desktop/GD32VW553/V1_MQTT_OK/GD32VW55X_Wifi_BLE_SDK/GD32VW55x_RELEASE_V1.0.2/MSDK/ble/app\app_blue_courier_prot.c ****         wifi_status_rsp.cli_num = macif_vif_ap_assoc_info_get(wifi_status_rsp.vif_idx, (uint16_t *)
 795              		.loc 1 435 33
 796 016a 2304F104 		sb	a5,72(sp)
 436:C:/Users/stapi/OneDrive/Desktop/GD32VW553/V1_MQTT_OK/GD32VW55X_Wifi_BLE_SDK/GD32VW55x_RELEASE_V1.0.2/MSDK/ble/app\app_blue_courier_prot.c ****         for (i = 0; i < wifi_status_rsp.cli_num; i++) {
 797              		.loc 1 436 9 is_stmt 1
 436:C:/Users/stapi/OneDrive/Desktop/GD32VW553/V1_MQTT_OK/GD32VW55X_Wifi_BLE_SDK/GD32VW55x_RELEASE_V1.0.2/MSDK/ble/app\app_blue_courier_prot.c ****         for (i = 0; i < wifi_status_rsp.cli_num; i++) {
 798              		.loc 1 436 35 is_stmt 0
 799 016e 97000000 		call	macif_vif_ap_assoc_info_get
 799      E7800000 
 800              	.LVL59:
 436:C:/Users/stapi/OneDrive/Desktop/GD32VW553/V1_MQTT_OK/GD32VW55X_Wifi_BLE_SDK/GD32VW55x_RELEASE_V1.0.2/MSDK/ble/app\app_blue_courier_prot.c ****         for (i = 0; i < wifi_status_rsp.cli_num; i++) {
 801              		.loc 1 436 33
 802 0176 2300A10A 		sb	a0,160(sp)
 437:C:/Users/stapi/OneDrive/Desktop/GD32VW553/V1_MQTT_OK/GD32VW55X_Wifi_BLE_SDK/GD32VW55x_RELEASE_V1.0.2/MSDK/ble/app\app_blue_courier_prot.c ****             sys_memcpy(wifi_status_rsp.cli[i].mac, (uint8_t *)cli_mac[i].array, MAC_ADDR_LEN);
 803              		.loc 1 437 9 is_stmt 1
 804              	.LVL60:
 805 017a 9304110A 		addi	s1,sp,161
 806 017e 93090101 		addi	s3,sp,16
 437:C:/Users/stapi/OneDrive/Desktop/GD32VW553/V1_MQTT_OK/GD32VW55X_Wifi_BLE_SDK/GD32VW55x_RELEASE_V1.0.2/MSDK/ble/app\app_blue_courier_prot.c ****             sys_memcpy(wifi_status_rsp.cli[i].mac, (uint8_t *)cli_mac[i].array, MAC_ADDR_LEN);
 807              		.loc 1 437 16 is_stmt 0
 808 0182 0149     		li	s2,0
 809              	.LVL61:
 810              	.L58:
 437:C:/Users/stapi/OneDrive/Desktop/GD32VW553/V1_MQTT_OK/GD32VW55X_Wifi_BLE_SDK/GD32VW55x_RELEASE_V1.0.2/MSDK/ble/app\app_blue_courier_prot.c ****             sys_memcpy(wifi_status_rsp.cli[i].mac, (uint8_t *)cli_mac[i].array, MAC_ADDR_LEN);
 811              		.loc 1 437 21 is_stmt 1 discriminator 1
 437:C:/Users/stapi/OneDrive/Desktop/GD32VW553/V1_MQTT_OK/GD32VW55X_Wifi_BLE_SDK/GD32VW55x_RELEASE_V1.0.2/MSDK/ble/app\app_blue_courier_prot.c ****             sys_memcpy(wifi_status_rsp.cli[i].mac, (uint8_t *)cli_mac[i].array, MAC_ADDR_LEN);
 812              		.loc 1 437 40 is_stmt 0 discriminator 1
 813 0184 8347010A 		lbu	a5,160(sp)
 437:C:/Users/stapi/OneDrive/Desktop/GD32VW553/V1_MQTT_OK/GD32VW55X_Wifi_BLE_SDK/GD32VW55x_RELEASE_V1.0.2/MSDK/ble/app\app_blue_courier_prot.c ****             sys_memcpy(wifi_status_rsp.cli[i].mac, (uint8_t *)cli_mac[i].array, MAC_ADDR_LEN);
 814              		.loc 1 437 9 discriminator 1
 815 0188 6367F902 		bgtu	a5,s2,.L59
 443:C:/Users/stapi/OneDrive/Desktop/GD32VW553/V1_MQTT_OK/GD32VW55X_Wifi_BLE_SDK/GD32VW55x_RELEASE_V1.0.2/MSDK/ble/app\app_blue_courier_prot.c ****             wifi_status_rsp.akm = 0;
 816              		.loc 1 443 9 is_stmt 1
 443:C:/Users/stapi/OneDrive/Desktop/GD32VW553/V1_MQTT_OK/GD32VW55X_Wifi_BLE_SDK/GD32VW55x_RELEASE_V1.0.2/MSDK/ble/app\app_blue_courier_prot.c ****             wifi_status_rsp.akm = 0;
 817              		.loc 1 443 25 is_stmt 0
 818 018c 8327440C 		lw	a5,196(s0)
 443:C:/Users/stapi/OneDrive/Desktop/GD32VW553/V1_MQTT_OK/GD32VW55X_Wifi_BLE_SDK/GD32VW55x_RELEASE_V1.0.2/MSDK/ble/app\app_blue_courier_prot.c ****             wifi_status_rsp.akm = 0;
 819              		.loc 1 443 12
 820 0190 0547     		li	a4,1
 821 0192 E382E7F8 		beq	a5,a4,.L60
 445:C:/Users/stapi/OneDrive/Desktop/GD32VW553/V1_MQTT_OK/GD32VW55X_Wifi_BLE_SDK/GD32VW55x_RELEASE_V1.0.2/MSDK/ble/app\app_blue_courier_prot.c ****             wifi_status_rsp.akm = 1;
 822              		.loc 1 445 14 is_stmt 1
 445:C:/Users/stapi/OneDrive/Desktop/GD32VW553/V1_MQTT_OK/GD32VW55X_Wifi_BLE_SDK/GD32VW55x_RELEASE_V1.0.2/MSDK/ble/app\app_blue_courier_prot.c ****             wifi_status_rsp.akm = 1;
 823              		.loc 1 445 17 is_stmt 0
 824 0196 2947     		li	a4,10
 825 0198 E386E7F6 		beq	a5,a4,.L61
 447:C:/Users/stapi/OneDrive/Desktop/GD32VW553/V1_MQTT_OK/GD32VW55X_Wifi_BLE_SDK/GD32VW55x_RELEASE_V1.0.2/MSDK/ble/app\app_blue_courier_prot.c ****             wifi_status_rsp.akm = 2;
 826              		.loc 1 447 14 is_stmt 1
 447:C:/Users/stapi/OneDrive/Desktop/GD32VW553/V1_MQTT_OK/GD32VW55X_Wifi_BLE_SDK/GD32VW55x_RELEASE_V1.0.2/MSDK/ble/app\app_blue_courier_prot.c ****             wifi_status_rsp.akm = 2;
 827              		.loc 1 447 17 is_stmt 0
 828 019c 2147     		li	a4,8
 829 019e E388E7F6 		beq	a5,a4,.L62
 449:C:/Users/stapi/OneDrive/Desktop/GD32VW553/V1_MQTT_OK/GD32VW55X_Wifi_BLE_SDK/GD32VW55x_RELEASE_V1.0.2/MSDK/ble/app\app_blue_courier_prot.c ****             wifi_status_rsp.akm = 3;
 830              		.loc 1 449 14 is_stmt 1
 449:C:/Users/stapi/OneDrive/Desktop/GD32VW553/V1_MQTT_OK/GD32VW55X_Wifi_BLE_SDK/GD32VW55x_RELEASE_V1.0.2/MSDK/ble/app\app_blue_courier_prot.c ****             wifi_status_rsp.akm = 3;
 831              		.loc 1 449 17 is_stmt 0
 832 01a2 13070020 		li	a4,512
 833 01a6 E388E7F4 		beq	a5,a4,.L63
 451:C:/Users/stapi/OneDrive/Desktop/GD32VW553/V1_MQTT_OK/GD32VW55X_Wifi_BLE_SDK/GD32VW55x_RELEASE_V1.0.2/MSDK/ble/app\app_blue_courier_prot.c ****             wifi_status_rsp.akm = 4;
 834              		.loc 1 451 14 is_stmt 1
 451:C:/Users/stapi/OneDrive/Desktop/GD32VW553/V1_MQTT_OK/GD32VW55X_Wifi_BLE_SDK/GD32VW55x_RELEASE_V1.0.2/MSDK/ble/app\app_blue_courier_prot.c ****             wifi_status_rsp.akm = 4;
 835              		.loc 1 451 17 is_stmt 0
 836 01aa 13078020 		li	a4,520
 837 01ae E394E7F8 		bne	a5,a4,.L57
 452:C:/Users/stapi/OneDrive/Desktop/GD32VW553/V1_MQTT_OK/GD32VW55X_Wifi_BLE_SDK/GD32VW55x_RELEASE_V1.0.2/MSDK/ble/app\app_blue_courier_prot.c ****         else
 838              		.loc 1 452 13 is_stmt 1
 452:C:/Users/stapi/OneDrive/Desktop/GD32VW553/V1_MQTT_OK/GD32VW55X_Wifi_BLE_SDK/GD32VW55x_RELEASE_V1.0.2/MSDK/ble/app\app_blue_courier_prot.c ****         else
 839              		.loc 1 452 33 is_stmt 0
 840 01b2 9147     		li	a5,4
 841 01b4 91B7     		j	.L65
 842              	.L59:
 438:C:/Users/stapi/OneDrive/Desktop/GD32VW553/V1_MQTT_OK/GD32VW55X_Wifi_BLE_SDK/GD32VW55x_RELEASE_V1.0.2/MSDK/ble/app\app_blue_courier_prot.c ****             ip = dhcpd_find_ipaddr_by_macaddr((uint8_t *)cli_mac->array);
 843              		.loc 1 438 13 is_stmt 1 discriminator 3
 844 01b6 CE85     		mv	a1,s3
 845 01b8 1946     		li	a2,6
 846 01ba 2685     		mv	a0,s1
 847 01bc 97000000 		call	sys_memcpy
 847      E7800000 
 848              	.LVL62:
 439:C:/Users/stapi/OneDrive/Desktop/GD32VW553/V1_MQTT_OK/GD32VW55X_Wifi_BLE_SDK/GD32VW55x_RELEASE_V1.0.2/MSDK/ble/app\app_blue_courier_prot.c ****             sys_memcpy(wifi_status_rsp.cli[i].ip, (uint8_t *)&ip, 4);
 849              		.loc 1 439 13 discriminator 3
 439:C:/Users/stapi/OneDrive/Desktop/GD32VW553/V1_MQTT_OK/GD32VW55X_Wifi_BLE_SDK/GD32VW55x_RELEASE_V1.0.2/MSDK/ble/app\app_blue_courier_prot.c ****             sys_memcpy(wifi_status_rsp.cli[i].ip, (uint8_t *)&ip, 4);
 850              		.loc 1 439 18 is_stmt 0 discriminator 3
 851 01c4 0808     		addi	a0,sp,16
 852 01c6 97000000 		call	dhcpd_find_ipaddr_by_macaddr
 852      E7800000 
 853              	.LVL63:
 439:C:/Users/stapi/OneDrive/Desktop/GD32VW553/V1_MQTT_OK/GD32VW55X_Wifi_BLE_SDK/GD32VW55x_RELEASE_V1.0.2/MSDK/ble/app\app_blue_courier_prot.c ****             sys_memcpy(wifi_status_rsp.cli[i].ip, (uint8_t *)&ip, 4);
 854              		.loc 1 439 16 discriminator 3
 855 01ce 2AC6     		sw	a0,12(sp)
 440:C:/Users/stapi/OneDrive/Desktop/GD32VW553/V1_MQTT_OK/GD32VW55X_Wifi_BLE_SDK/GD32VW55x_RELEASE_V1.0.2/MSDK/ble/app\app_blue_courier_prot.c ****         }
 856              		.loc 1 440 13 is_stmt 1 discriminator 3
 857 01d0 1146     		li	a2,4
 858 01d2 13856400 		addi	a0,s1,6
 859 01d6 6C00     		addi	a1,sp,12
 860 01d8 97000000 		call	sys_memcpy
 860      E7800000 
 861              	.LVL64:
 437:C:/Users/stapi/OneDrive/Desktop/GD32VW553/V1_MQTT_OK/GD32VW55X_Wifi_BLE_SDK/GD32VW55x_RELEASE_V1.0.2/MSDK/ble/app\app_blue_courier_prot.c ****             sys_memcpy(wifi_status_rsp.cli[i].mac, (uint8_t *)cli_mac[i].array, MAC_ADDR_LEN);
 862              		.loc 1 437 50 discriminator 3
 437:C:/Users/stapi/OneDrive/Desktop/GD32VW553/V1_MQTT_OK/GD32VW55X_Wifi_BLE_SDK/GD32VW55x_RELEASE_V1.0.2/MSDK/ble/app\app_blue_courier_prot.c ****             sys_memcpy(wifi_status_rsp.cli[i].mac, (uint8_t *)cli_mac[i].array, MAC_ADDR_LEN);
 863              		.loc 1 437 51 is_stmt 0 discriminator 3
 864 01e0 0509     		addi	s2,s2,1
 865              	.LVL65:
 866 01e2 A904     		addi	s1,s1,10
 867 01e4 9909     		addi	s3,s3,6
 868 01e6 79BF     		j	.L58
 869              		.cfi_endproc
 870              	.LFE25:
 872              		.section	.rodata.bcwp_msg_handler.str1.4,"aMS",@progbits,1
 873              		.align	2
 874              	.LC10:
 875 0000 626C6520 		.string	"ble config wifi scan failed\r\n"
 875      636F6E66 
 875      69672077 
 875      69666920 
 875      7363616E 
 876 001e 0000     		.align	2
 877              	.LC11:
 878 0020 62637770 		.string	"bcwp failed to start AP, check your configuration.\r\n"
 878      20666169 
 878      6C656420 
 878      746F2073 
 878      74617274 
 879 0055 000000   		.align	2
 880              	.LC12:
 881 0058 62637770 		.string	"bcwp softAP successfully started!\r\n"
 881      20736F66 
 881      74415020 
 881      73756363 
 881      65737366 
 882              		.align	2
 883              	.LC13:
 884 007c 62637770 		.string	"bcwp softAP successfully stoped!\r\n"
 884      20736F66 
 884      74415020 
 884      73756363 
 884      65737366 
 885 009f 00       		.align	2
 886              	.LC14:
 887 00a0 62637770 		.string	"bcwp receive custom data: "
 887      20726563 
 887      65697665 
 887      20637573 
 887      746F6D20 
 888 00bb 00       		.align	2
 889              	.LC15:
 890 00bc 25303278 		.string	"%02x"
 890      00
 891 00c1 000000   		.align	2
 892              	.LC16:
 893 00c4 0D0A00   		.string	"\r\n"
 894              		.section	.text.bcwp_msg_handler,"ax",@progbits
 895              		.align	1
 896              		.globl	bcwp_msg_handler
 898              	bcwp_msg_handler:
 899              	.LFB27:
 460:C:/Users/stapi/OneDrive/Desktop/GD32VW553/V1_MQTT_OK/GD32VW55X_Wifi_BLE_SDK/GD32VW55x_RELEASE_V1.0.2/MSDK/ble/app\app_blue_courier_prot.c **** 
 461:C:/Users/stapi/OneDrive/Desktop/GD32VW553/V1_MQTT_OK/GD32VW55X_Wifi_BLE_SDK/GD32VW55x_RELEASE_V1.0.2/MSDK/ble/app\app_blue_courier_prot.c **** /*!
 462:C:/Users/stapi/OneDrive/Desktop/GD32VW553/V1_MQTT_OK/GD32VW55X_Wifi_BLE_SDK/GD32VW55x_RELEASE_V1.0.2/MSDK/ble/app\app_blue_courier_prot.c ****     \brief      Blue courier send custom data through BLE connection
 463:C:/Users/stapi/OneDrive/Desktop/GD32VW553/V1_MQTT_OK/GD32VW55X_Wifi_BLE_SDK/GD32VW55x_RELEASE_V1.0.2/MSDK/ble/app\app_blue_courier_prot.c ****     \param[in]  data: pointer to custom data
 464:C:/Users/stapi/OneDrive/Desktop/GD32VW553/V1_MQTT_OK/GD32VW55X_Wifi_BLE_SDK/GD32VW55x_RELEASE_V1.0.2/MSDK/ble/app\app_blue_courier_prot.c ****     \param[in]  len: data length
 465:C:/Users/stapi/OneDrive/Desktop/GD32VW553/V1_MQTT_OK/GD32VW55X_Wifi_BLE_SDK/GD32VW55x_RELEASE_V1.0.2/MSDK/ble/app\app_blue_courier_prot.c ****     \param[out] none
 466:C:/Users/stapi/OneDrive/Desktop/GD32VW553/V1_MQTT_OK/GD32VW55X_Wifi_BLE_SDK/GD32VW55x_RELEASE_V1.0.2/MSDK/ble/app\app_blue_courier_prot.c ****     \retval     none
 467:C:/Users/stapi/OneDrive/Desktop/GD32VW553/V1_MQTT_OK/GD32VW55X_Wifi_BLE_SDK/GD32VW55x_RELEASE_V1.0.2/MSDK/ble/app\app_blue_courier_prot.c **** */
 468:C:/Users/stapi/OneDrive/Desktop/GD32VW553/V1_MQTT_OK/GD32VW55X_Wifi_BLE_SDK/GD32VW55x_RELEASE_V1.0.2/MSDK/ble/app\app_blue_courier_prot.c **** static void bcwp_send_custom_data(uint8_t *data, uint16_t len)
 469:C:/Users/stapi/OneDrive/Desktop/GD32VW553/V1_MQTT_OK/GD32VW55X_Wifi_BLE_SDK/GD32VW55x_RELEASE_V1.0.2/MSDK/ble/app\app_blue_courier_prot.c **** {
 470:C:/Users/stapi/OneDrive/Desktop/GD32VW553/V1_MQTT_OK/GD32VW55X_Wifi_BLE_SDK/GD32VW55x_RELEASE_V1.0.2/MSDK/ble/app\app_blue_courier_prot.c ****     bcwl_send(BCWL_OPCODE_BUILD(BCWL_OPCODE_TYPE_DATA, BCWL_OPCODE_DATA_SUBTYPE_CUSTOM_DATA), data,
 471:C:/Users/stapi/OneDrive/Desktop/GD32VW553/V1_MQTT_OK/GD32VW55X_Wifi_BLE_SDK/GD32VW55x_RELEASE_V1.0.2/MSDK/ble/app\app_blue_courier_prot.c **** }
 472:C:/Users/stapi/OneDrive/Desktop/GD32VW553/V1_MQTT_OK/GD32VW55X_Wifi_BLE_SDK/GD32VW55x_RELEASE_V1.0.2/MSDK/ble/app\app_blue_courier_prot.c **** 
 473:C:/Users/stapi/OneDrive/Desktop/GD32VW553/V1_MQTT_OK/GD32VW55X_Wifi_BLE_SDK/GD32VW55x_RELEASE_V1.0.2/MSDK/ble/app\app_blue_courier_prot.c **** /*!
 474:C:/Users/stapi/OneDrive/Desktop/GD32VW553/V1_MQTT_OK/GD32VW55X_Wifi_BLE_SDK/GD32VW55x_RELEASE_V1.0.2/MSDK/ble/app\app_blue_courier_prot.c ****     \brief      Blue courier wifi protocol message handler
 475:C:/Users/stapi/OneDrive/Desktop/GD32VW553/V1_MQTT_OK/GD32VW55X_Wifi_BLE_SDK/GD32VW55x_RELEASE_V1.0.2/MSDK/ble/app\app_blue_courier_prot.c ****     \param[in]  subtype: message subtype, @ref bcw_opcode_data_subtype
 476:C:/Users/stapi/OneDrive/Desktop/GD32VW553/V1_MQTT_OK/GD32VW55X_Wifi_BLE_SDK/GD32VW55x_RELEASE_V1.0.2/MSDK/ble/app\app_blue_courier_prot.c ****     \param[in]  data: pointer to message data
 477:C:/Users/stapi/OneDrive/Desktop/GD32VW553/V1_MQTT_OK/GD32VW55X_Wifi_BLE_SDK/GD32VW55x_RELEASE_V1.0.2/MSDK/ble/app\app_blue_courier_prot.c ****     \param[in]  len: message length
 478:C:/Users/stapi/OneDrive/Desktop/GD32VW553/V1_MQTT_OK/GD32VW55X_Wifi_BLE_SDK/GD32VW55x_RELEASE_V1.0.2/MSDK/ble/app\app_blue_courier_prot.c ****     \param[out] none
 479:C:/Users/stapi/OneDrive/Desktop/GD32VW553/V1_MQTT_OK/GD32VW55X_Wifi_BLE_SDK/GD32VW55x_RELEASE_V1.0.2/MSDK/ble/app\app_blue_courier_prot.c ****     \retval     none
 480:C:/Users/stapi/OneDrive/Desktop/GD32VW553/V1_MQTT_OK/GD32VW55X_Wifi_BLE_SDK/GD32VW55x_RELEASE_V1.0.2/MSDK/ble/app\app_blue_courier_prot.c **** */
 481:C:/Users/stapi/OneDrive/Desktop/GD32VW553/V1_MQTT_OK/GD32VW55X_Wifi_BLE_SDK/GD32VW55x_RELEASE_V1.0.2/MSDK/ble/app\app_blue_courier_prot.c **** void bcwp_msg_handler(uint8_t subtype, uint8_t *data, uint16_t len)
 482:C:/Users/stapi/OneDrive/Desktop/GD32VW553/V1_MQTT_OK/GD32VW55X_Wifi_BLE_SDK/GD32VW55x_RELEASE_V1.0.2/MSDK/ble/app\app_blue_courier_prot.c **** {
 900              		.loc 1 482 1 is_stmt 1
 901              		.cfi_startproc
 902              	.LVL66:
 483:C:/Users/stapi/OneDrive/Desktop/GD32VW553/V1_MQTT_OK/GD32VW55X_Wifi_BLE_SDK/GD32VW55x_RELEASE_V1.0.2/MSDK/ble/app\app_blue_courier_prot.c ****     switch (subtype) {
 903              		.loc 1 483 5
 904 0000 9947     		li	a5,6
 905 0002 63E5A734 		bgtu	a0,a5,.L112
 482:C:/Users/stapi/OneDrive/Desktop/GD32VW553/V1_MQTT_OK/GD32VW55X_Wifi_BLE_SDK/GD32VW55x_RELEASE_V1.0.2/MSDK/ble/app\app_blue_courier_prot.c ****     switch (subtype) {
 906              		.loc 1 482 1 is_stmt 0
 907 0006 17030000 		call	t0,__riscv_save_6
 907      E7020300 
 908              		.cfi_offset 21, -28
 909              		.cfi_offset 20, -24
 910              		.cfi_offset 19, -20
 911              		.cfi_offset 18, -16
 912              		.cfi_offset 9, -12
 913              		.cfi_offset 8, -8
 914              		.cfi_offset 1, -4
 915              		.cfi_def_cfa_offset 32
 916 000e B7070000 		lui	a5,%hi(.L69)
 917 0012 93870700 		addi	a5,a5,%lo(.L69)
 918 0016 B347F520 		sh2add	a5,a0,a5
 919 001a 9C43     		lw	a5,0(a5)
 920 001c 5971     		addi	sp,sp,-112
 921              		.cfi_def_cfa_offset 144
 922 001e 2A89     		mv	s2,a0
 923 0020 2E84     		mv	s0,a1
 924 0022 B284     		mv	s1,a2
 925 0024 8287     		jr	a5
 926              		.section	.rodata.bcwp_msg_handler,"a",@progbits
 927              		.align	2
 928              		.align	2
 929              	.L69:
 930 0000 00000000 		.word	.L75
 931 0004 00000000 		.word	.L74
 932 0008 00000000 		.word	.L73
 933 000c 00000000 		.word	.L72
 934 0010 00000000 		.word	.L71
 935 0014 00000000 		.word	.L70
 936 0018 00000000 		.word	.L68
 937              		.section	.text.bcwp_msg_handler
 938              	.L74:
 484:C:/Users/stapi/OneDrive/Desktop/GD32VW553/V1_MQTT_OK/GD32VW55X_Wifi_BLE_SDK/GD32VW55x_RELEASE_V1.0.2/MSDK/ble/app\app_blue_courier_prot.c ****         case BCWL_OPCODE_DATA_SUBTYPE_GET_SCAN_LIST: {
 485:C:/Users/stapi/OneDrive/Desktop/GD32VW553/V1_MQTT_OK/GD32VW55X_Wifi_BLE_SDK/GD32VW55x_RELEASE_V1.0.2/MSDK/ble/app\app_blue_courier_prot.c ****             bcwp_wifi_scan();
 939              		.loc 1 485 13 is_stmt 1
 940              	.LBB13:
 941              	.LBB14:
 183:C:/Users/stapi/OneDrive/Desktop/GD32VW553/V1_MQTT_OK/GD32VW55X_Wifi_BLE_SDK/GD32VW55x_RELEASE_V1.0.2/MSDK/ble/app\app_blue_courier_prot.c ****     eloop_event_register(WIFI_MGMT_EVENT_SCAN_FAIL, bcwp_cb_scan_fail, NULL, NULL);
 942              		.loc 1 183 5
 943 0026 B7050000 		lui	a1,%hi(bcwp_cb_scan_done)
 944              	.LVL67:
 945 002a 8146     		li	a3,0
 946 002c 0146     		li	a2,0
 947              	.LVL68:
 948 002e 93850500 		addi	a1,a1,%lo(bcwp_cb_scan_done)
 949 0032 3945     		li	a0,14
 950              	.LVL69:
 951 0034 97000000 		call	eloop_event_register
 951      E7800000 
 952              	.LVL70:
 184:C:/Users/stapi/OneDrive/Desktop/GD32VW553/V1_MQTT_OK/GD32VW55X_Wifi_BLE_SDK/GD32VW55x_RELEASE_V1.0.2/MSDK/ble/app\app_blue_courier_prot.c **** 
 953              		.loc 1 184 5
 954 003c B7050000 		lui	a1,%hi(bcwp_cb_scan_fail)
 955 0040 8146     		li	a3,0
 956 0042 0146     		li	a2,0
 957 0044 93850500 		addi	a1,a1,%lo(bcwp_cb_scan_fail)
 958 0048 3D45     		li	a0,15
 959 004a 97000000 		call	eloop_event_register
 959      E7800000 
 960              	.LVL71:
 186:C:/Users/stapi/OneDrive/Desktop/GD32VW553/V1_MQTT_OK/GD32VW55X_Wifi_BLE_SDK/GD32VW55x_RELEASE_V1.0.2/MSDK/ble/app\app_blue_courier_prot.c ****         eloop_event_unregister(WIFI_MGMT_EVENT_SCAN_DONE);
 961              		.loc 1 186 5
 186:C:/Users/stapi/OneDrive/Desktop/GD32VW553/V1_MQTT_OK/GD32VW55X_Wifi_BLE_SDK/GD32VW55x_RELEASE_V1.0.2/MSDK/ble/app\app_blue_courier_prot.c ****         eloop_event_unregister(WIFI_MGMT_EVENT_SCAN_DONE);
 962              		.loc 1 186 9 is_stmt 0
 963 0052 8145     		li	a1,0
 964 0054 0145     		li	a0,0
 965 0056 97000000 		call	wifi_management_scan
 965      E7800000 
 966              	.LVL72:
 186:C:/Users/stapi/OneDrive/Desktop/GD32VW553/V1_MQTT_OK/GD32VW55X_Wifi_BLE_SDK/GD32VW55x_RELEASE_V1.0.2/MSDK/ble/app\app_blue_courier_prot.c ****         eloop_event_unregister(WIFI_MGMT_EVENT_SCAN_DONE);
 967              		.loc 1 186 8
 968 005e FD57     		li	a5,-1
 969 0060 6314F512 		bne	a0,a5,.L66
 187:C:/Users/stapi/OneDrive/Desktop/GD32VW553/V1_MQTT_OK/GD32VW55X_Wifi_BLE_SDK/GD32VW55x_RELEASE_V1.0.2/MSDK/ble/app\app_blue_courier_prot.c ****         eloop_event_unregister(WIFI_MGMT_EVENT_SCAN_FAIL);
 970              		.loc 1 187 9 is_stmt 1
 971 0064 3945     		li	a0,14
 972 0066 97000000 		call	eloop_event_unregister
 972      E7800000 
 973              	.LVL73:
 188:C:/Users/stapi/OneDrive/Desktop/GD32VW553/V1_MQTT_OK/GD32VW55X_Wifi_BLE_SDK/GD32VW55x_RELEASE_V1.0.2/MSDK/ble/app\app_blue_courier_prot.c ****         dbg_print(ERR, "ble config wifi scan failed\r\n");
 974              		.loc 1 188 9
 975 006e 3D45     		li	a0,15
 976 0070 97000000 		call	eloop_event_unregister
 976      E7800000 
 977              	.LVL74:
 189:C:/Users/stapi/OneDrive/Desktop/GD32VW553/V1_MQTT_OK/GD32VW55X_Wifi_BLE_SDK/GD32VW55x_RELEASE_V1.0.2/MSDK/ble/app\app_blue_courier_prot.c ****     }
 978              		.loc 1 189 9
 189:C:/Users/stapi/OneDrive/Desktop/GD32VW553/V1_MQTT_OK/GD32VW55X_Wifi_BLE_SDK/GD32VW55x_RELEASE_V1.0.2/MSDK/ble/app\app_blue_courier_prot.c ****     }
 979              		.loc 1 189 9
 980 0078 B7070000 		lui	a5,%hi(global_debug_level)
 981 007c 83C70700 		lbu	a5,%lo(global_debug_level)(a5)
 982 0080 63840710 		beq	a5,zero,.L66
 189:C:/Users/stapi/OneDrive/Desktop/GD32VW553/V1_MQTT_OK/GD32VW55X_Wifi_BLE_SDK/GD32VW55x_RELEASE_V1.0.2/MSDK/ble/app\app_blue_courier_prot.c ****     }
 983              		.loc 1 189 9
 984 0084 37050000 		lui	a0,%hi(.LC10)
 985 0088 13050500 		addi	a0,a0,%lo(.LC10)
 986              	.L116:
 987              	.LBE14:
 988              	.LBE13:
 486:C:/Users/stapi/OneDrive/Desktop/GD32VW553/V1_MQTT_OK/GD32VW55X_Wifi_BLE_SDK/GD32VW55x_RELEASE_V1.0.2/MSDK/ble/app\app_blue_courier_prot.c ****         } break;
 487:C:/Users/stapi/OneDrive/Desktop/GD32VW553/V1_MQTT_OK/GD32VW55X_Wifi_BLE_SDK/GD32VW55x_RELEASE_V1.0.2/MSDK/ble/app\app_blue_courier_prot.c ****         case BCWL_OPCODE_DATA_SUBTYPE_STAMODE_CONNECT: {
 488:C:/Users/stapi/OneDrive/Desktop/GD32VW553/V1_MQTT_OK/GD32VW55X_Wifi_BLE_SDK/GD32VW55x_RELEASE_V1.0.2/MSDK/ble/app\app_blue_courier_prot.c ****             bcwp_wifi_connect(data, len);
 489:C:/Users/stapi/OneDrive/Desktop/GD32VW553/V1_MQTT_OK/GD32VW55X_Wifi_BLE_SDK/GD32VW55x_RELEASE_V1.0.2/MSDK/ble/app\app_blue_courier_prot.c ****         } break;
 490:C:/Users/stapi/OneDrive/Desktop/GD32VW553/V1_MQTT_OK/GD32VW55X_Wifi_BLE_SDK/GD32VW55x_RELEASE_V1.0.2/MSDK/ble/app\app_blue_courier_prot.c ****         case BCWL_OPCODE_DATA_SUBTYPE_STAMODE_DISCONNECT: {
 491:C:/Users/stapi/OneDrive/Desktop/GD32VW553/V1_MQTT_OK/GD32VW55X_Wifi_BLE_SDK/GD32VW55x_RELEASE_V1.0.2/MSDK/ble/app\app_blue_courier_prot.c ****             bcwp_wifi_disconnect();
 492:C:/Users/stapi/OneDrive/Desktop/GD32VW553/V1_MQTT_OK/GD32VW55X_Wifi_BLE_SDK/GD32VW55x_RELEASE_V1.0.2/MSDK/ble/app\app_blue_courier_prot.c ****         } break;
 493:C:/Users/stapi/OneDrive/Desktop/GD32VW553/V1_MQTT_OK/GD32VW55X_Wifi_BLE_SDK/GD32VW55x_RELEASE_V1.0.2/MSDK/ble/app\app_blue_courier_prot.c ****         case BCWL_OPCODE_DATA_SUBTYPE_SOFTAPMODE_START: {
 494:C:/Users/stapi/OneDrive/Desktop/GD32VW553/V1_MQTT_OK/GD32VW55X_Wifi_BLE_SDK/GD32VW55x_RELEASE_V1.0.2/MSDK/ble/app\app_blue_courier_prot.c ****             bcwp_wifi_ap_start(data, len);
 495:C:/Users/stapi/OneDrive/Desktop/GD32VW553/V1_MQTT_OK/GD32VW55X_Wifi_BLE_SDK/GD32VW55x_RELEASE_V1.0.2/MSDK/ble/app\app_blue_courier_prot.c ****         } break;
 496:C:/Users/stapi/OneDrive/Desktop/GD32VW553/V1_MQTT_OK/GD32VW55X_Wifi_BLE_SDK/GD32VW55x_RELEASE_V1.0.2/MSDK/ble/app\app_blue_courier_prot.c ****         case BCWL_OPCODE_DATA_SUBTYPE_SOFTAPMODE_STOP: {
 497:C:/Users/stapi/OneDrive/Desktop/GD32VW553/V1_MQTT_OK/GD32VW55X_Wifi_BLE_SDK/GD32VW55x_RELEASE_V1.0.2/MSDK/ble/app\app_blue_courier_prot.c ****             bcwp_wifi_ap_stop();
 498:C:/Users/stapi/OneDrive/Desktop/GD32VW553/V1_MQTT_OK/GD32VW55X_Wifi_BLE_SDK/GD32VW55x_RELEASE_V1.0.2/MSDK/ble/app\app_blue_courier_prot.c ****         } break;
 499:C:/Users/stapi/OneDrive/Desktop/GD32VW553/V1_MQTT_OK/GD32VW55X_Wifi_BLE_SDK/GD32VW55x_RELEASE_V1.0.2/MSDK/ble/app\app_blue_courier_prot.c ****         case BCWL_OPCODE_DATA_SUBTYPE_STATUS_GET: {
 500:C:/Users/stapi/OneDrive/Desktop/GD32VW553/V1_MQTT_OK/GD32VW55X_Wifi_BLE_SDK/GD32VW55x_RELEASE_V1.0.2/MSDK/ble/app\app_blue_courier_prot.c ****             bcwp_wifi_status_get();
 501:C:/Users/stapi/OneDrive/Desktop/GD32VW553/V1_MQTT_OK/GD32VW55X_Wifi_BLE_SDK/GD32VW55x_RELEASE_V1.0.2/MSDK/ble/app\app_blue_courier_prot.c ****         } break;
 502:C:/Users/stapi/OneDrive/Desktop/GD32VW553/V1_MQTT_OK/GD32VW55X_Wifi_BLE_SDK/GD32VW55x_RELEASE_V1.0.2/MSDK/ble/app\app_blue_courier_prot.c ****         case BCWL_OPCODE_DATA_SUBTYPE_CUSTOM_DATA: {
 503:C:/Users/stapi/OneDrive/Desktop/GD32VW553/V1_MQTT_OK/GD32VW55X_Wifi_BLE_SDK/GD32VW55x_RELEASE_V1.0.2/MSDK/ble/app\app_blue_courier_prot.c ****             dbg_print(NOTICE, "bcwp receive custom data: ");
 504:C:/Users/stapi/OneDrive/Desktop/GD32VW553/V1_MQTT_OK/GD32VW55X_Wifi_BLE_SDK/GD32VW55x_RELEASE_V1.0.2/MSDK/ble/app\app_blue_courier_prot.c ****             for (uint8_t i = 0; i < len; i++)
 505:C:/Users/stapi/OneDrive/Desktop/GD32VW553/V1_MQTT_OK/GD32VW55X_Wifi_BLE_SDK/GD32VW55x_RELEASE_V1.0.2/MSDK/ble/app\app_blue_courier_prot.c ****                 dbg_print(NOTICE, "%02x", data[i]);
 506:C:/Users/stapi/OneDrive/Desktop/GD32VW553/V1_MQTT_OK/GD32VW55X_Wifi_BLE_SDK/GD32VW55x_RELEASE_V1.0.2/MSDK/ble/app\app_blue_courier_prot.c ****             dbg_print(NOTICE, "\r\n");
 989              		.loc 1 506 13 is_stmt 0 discriminator 1
 990 008c 97000000 		call	co_printf
 990      E7800000 
 991              	.LVL75:
 507:C:/Users/stapi/OneDrive/Desktop/GD32VW553/V1_MQTT_OK/GD32VW55X_Wifi_BLE_SDK/GD32VW55x_RELEASE_V1.0.2/MSDK/ble/app\app_blue_courier_prot.c ****             //bcwp_send_custom_data(data, len);
 508:C:/Users/stapi/OneDrive/Desktop/GD32VW553/V1_MQTT_OK/GD32VW55X_Wifi_BLE_SDK/GD32VW55x_RELEASE_V1.0.2/MSDK/ble/app\app_blue_courier_prot.c ****         } break;
 509:C:/Users/stapi/OneDrive/Desktop/GD32VW553/V1_MQTT_OK/GD32VW55X_Wifi_BLE_SDK/GD32VW55x_RELEASE_V1.0.2/MSDK/ble/app\app_blue_courier_prot.c ****         default: break;
 510:C:/Users/stapi/OneDrive/Desktop/GD32VW553/V1_MQTT_OK/GD32VW55X_Wifi_BLE_SDK/GD32VW55x_RELEASE_V1.0.2/MSDK/ble/app\app_blue_courier_prot.c ****     }
 511:C:/Users/stapi/OneDrive/Desktop/GD32VW553/V1_MQTT_OK/GD32VW55X_Wifi_BLE_SDK/GD32VW55x_RELEASE_V1.0.2/MSDK/ble/app\app_blue_courier_prot.c **** }
 992              		.loc 1 511 1 discriminator 1
 993 0094 D5A8     		j	.L66
 994              	.LVL76:
 995              	.L73:
 488:C:/Users/stapi/OneDrive/Desktop/GD32VW553/V1_MQTT_OK/GD32VW55X_Wifi_BLE_SDK/GD32VW55x_RELEASE_V1.0.2/MSDK/ble/app\app_blue_courier_prot.c ****         } break;
 996              		.loc 1 488 13 is_stmt 1
 997              	.LBB15:
 998              	.LBB16:
 241:C:/Users/stapi/OneDrive/Desktop/GD32VW553/V1_MQTT_OK/GD32VW55X_Wifi_BLE_SDK/GD32VW55x_RELEASE_V1.0.2/MSDK/ble/app\app_blue_courier_prot.c ****     uint8_t ssid_len, password_len;
 999              		.loc 1 241 5
 241:C:/Users/stapi/OneDrive/Desktop/GD32VW553/V1_MQTT_OK/GD32VW55X_Wifi_BLE_SDK/GD32VW55x_RELEASE_V1.0.2/MSDK/ble/app\app_blue_courier_prot.c ****     uint8_t ssid_len, password_len;
 1000              		.loc 1 241 13 is_stmt 0
 1001 0096 8547     		li	a5,1
 1002 0098 A305F100 		sb	a5,11(sp)
 242:C:/Users/stapi/OneDrive/Desktop/GD32VW553/V1_MQTT_OK/GD32VW55X_Wifi_BLE_SDK/GD32VW55x_RELEASE_V1.0.2/MSDK/ble/app\app_blue_courier_prot.c ****     uint8_t wifi_ssid[MAC_SSID_LEN + 1];
 1003              		.loc 1 242 5 is_stmt 1
 243:C:/Users/stapi/OneDrive/Desktop/GD32VW553/V1_MQTT_OK/GD32VW55X_Wifi_BLE_SDK/GD32VW55x_RELEASE_V1.0.2/MSDK/ble/app\app_blue_courier_prot.c ****     uint8_t wifi_password[WPA_MAX_PSK_LEN + 1];
 1004              		.loc 1 243 5
 244:C:/Users/stapi/OneDrive/Desktop/GD32VW553/V1_MQTT_OK/GD32VW55X_Wifi_BLE_SDK/GD32VW55x_RELEASE_V1.0.2/MSDK/ble/app\app_blue_courier_prot.c ****     char *password = NULL;
 1005              		.loc 1 244 5
 245:C:/Users/stapi/OneDrive/Desktop/GD32VW553/V1_MQTT_OK/GD32VW55X_Wifi_BLE_SDK/GD32VW55x_RELEASE_V1.0.2/MSDK/ble/app\app_blue_courier_prot.c **** 
 1006              		.loc 1 245 5
 1007              	.LVL77:
 247:C:/Users/stapi/OneDrive/Desktop/GD32VW553/V1_MQTT_OK/GD32VW55X_Wifi_BLE_SDK/GD32VW55x_RELEASE_V1.0.2/MSDK/ble/app\app_blue_courier_prot.c ****         goto exit;
 1008              		.loc 1 247 5
 247:C:/Users/stapi/OneDrive/Desktop/GD32VW553/V1_MQTT_OK/GD32VW55X_Wifi_BLE_SDK/GD32VW55x_RELEASE_V1.0.2/MSDK/ble/app\app_blue_courier_prot.c ****         goto exit;
 1009              		.loc 1 247 8 is_stmt 0
 1010 009c 7DCA     		beq	a2,zero,.L78
 251:C:/Users/stapi/OneDrive/Desktop/GD32VW553/V1_MQTT_OK/GD32VW55X_Wifi_BLE_SDK/GD32VW55x_RELEASE_V1.0.2/MSDK/ble/app\app_blue_courier_prot.c **** 
 1011              		.loc 1 251 5 is_stmt 1
 1012 009e B387C500 		add	a5,a1,a2
 1013 00a2 9305F6FF 		addi	a1,a2,-1
 1014 00a6 03C6F7FF 		lbu	a2,-1(a5)
 1015              	.LVL78:
 1016 00aa 2285     		mv	a0,s0
 1017              	.LVL79:
 1018 00ac B3C50508 		zext.h	a1,a1
 1019 00b0 97000000 		call	ble_internal_decode
 1019      E7800000 
 1020              	.LVL80:
 254:C:/Users/stapi/OneDrive/Desktop/GD32VW553/V1_MQTT_OK/GD32VW55X_Wifi_BLE_SDK/GD32VW55x_RELEASE_V1.0.2/MSDK/ble/app\app_blue_courier_prot.c ****     if (ssid_len > len || ssid_len > WPA_MAX_PSK_LEN)
 1021              		.loc 1 254 5
 254:C:/Users/stapi/OneDrive/Desktop/GD32VW553/V1_MQTT_OK/GD32VW55X_Wifi_BLE_SDK/GD32VW55x_RELEASE_V1.0.2/MSDK/ble/app\app_blue_courier_prot.c ****     if (ssid_len > len || ssid_len > WPA_MAX_PSK_LEN)
 1022              		.loc 1 254 14 is_stmt 0
 1023 00b8 03490400 		lbu	s2,0(s0)
 1024              	.LVL81:
 255:C:/Users/stapi/OneDrive/Desktop/GD32VW553/V1_MQTT_OK/GD32VW55X_Wifi_BLE_SDK/GD32VW55x_RELEASE_V1.0.2/MSDK/ble/app\app_blue_courier_prot.c ****         goto exit;
 1025              		.loc 1 255 5 is_stmt 1
 255:C:/Users/stapi/OneDrive/Desktop/GD32VW553/V1_MQTT_OK/GD32VW55X_Wifi_BLE_SDK/GD32VW55x_RELEASE_V1.0.2/MSDK/ble/app\app_blue_courier_prot.c ****         goto exit;
 1026              		.loc 1 255 8 is_stmt 0
 1027 00bc 63EB240D 		bltu	s1,s2,.L78
 255:C:/Users/stapi/OneDrive/Desktop/GD32VW553/V1_MQTT_OK/GD32VW55X_Wifi_BLE_SDK/GD32VW55x_RELEASE_V1.0.2/MSDK/ble/app\app_blue_courier_prot.c ****         goto exit;
 1028              		.loc 1 255 24
 1029 00c0 1307F003 		li	a4,63
 1030 00c4 6367270D 		bgtu	s2,a4,.L78
 258:C:/Users/stapi/OneDrive/Desktop/GD32VW553/V1_MQTT_OK/GD32VW55X_Wifi_BLE_SDK/GD32VW55x_RELEASE_V1.0.2/MSDK/ble/app\app_blue_courier_prot.c ****     if ((ssid_len + password_len + 3) != len || password_len > WPA_MAX_PSK_LEN)
 1031              		.loc 1 258 5 is_stmt 1
 258:C:/Users/stapi/OneDrive/Desktop/GD32VW553/V1_MQTT_OK/GD32VW55X_Wifi_BLE_SDK/GD32VW55x_RELEASE_V1.0.2/MSDK/ble/app\app_blue_courier_prot.c ****     if ((ssid_len + password_len + 3) != len || password_len > WPA_MAX_PSK_LEN)
 1032              		.loc 1 258 18 is_stmt 0
 1033 00c8 B3072401 		add	a5,s0,s2
 1034 00cc 83C91700 		lbu	s3,1(a5)
 1035              	.LVL82:
 259:C:/Users/stapi/OneDrive/Desktop/GD32VW553/V1_MQTT_OK/GD32VW55X_Wifi_BLE_SDK/GD32VW55x_RELEASE_V1.0.2/MSDK/ble/app\app_blue_courier_prot.c ****         goto exit;
 1036              		.loc 1 259 5 is_stmt 1
 259:C:/Users/stapi/OneDrive/Desktop/GD32VW553/V1_MQTT_OK/GD32VW55X_Wifi_BLE_SDK/GD32VW55x_RELEASE_V1.0.2/MSDK/ble/app\app_blue_courier_prot.c ****         goto exit;
 1037              		.loc 1 259 19 is_stmt 0
 1038 00d0 B3073901 		add	a5,s2,s3
 259:C:/Users/stapi/OneDrive/Desktop/GD32VW553/V1_MQTT_OK/GD32VW55X_Wifi_BLE_SDK/GD32VW55x_RELEASE_V1.0.2/MSDK/ble/app\app_blue_courier_prot.c ****         goto exit;
 1039              		.loc 1 259 34
 1040 00d4 8D07     		addi	a5,a5,3
 259:C:/Users/stapi/OneDrive/Desktop/GD32VW553/V1_MQTT_OK/GD32VW55X_Wifi_BLE_SDK/GD32VW55x_RELEASE_V1.0.2/MSDK/ble/app\app_blue_courier_prot.c ****         goto exit;
 1041              		.loc 1 259 8
 1042 00d6 639E970A 		bne	a5,s1,.L78
 259:C:/Users/stapi/OneDrive/Desktop/GD32VW553/V1_MQTT_OK/GD32VW55X_Wifi_BLE_SDK/GD32VW55x_RELEASE_V1.0.2/MSDK/ble/app\app_blue_courier_prot.c ****         goto exit;
 1043              		.loc 1 259 46
 1044 00da 636C370B 		bgtu	s3,a4,.L78
 262:C:/Users/stapi/OneDrive/Desktop/GD32VW553/V1_MQTT_OK/GD32VW55X_Wifi_BLE_SDK/GD32VW55x_RELEASE_V1.0.2/MSDK/ble/app\app_blue_courier_prot.c ****     wifi_ssid[ssid_len] = '\0';
 1045              		.loc 1 262 5 is_stmt 1
 1046 00de 4A86     		mv	a2,s2
 1047 00e0 93051400 		addi	a1,s0,1
 1048 00e4 6800     		addi	a0,sp,12
 1049 00e6 97000000 		call	sys_memcpy
 1049      E7800000 
 1050              	.LVL83:
 263:C:/Users/stapi/OneDrive/Desktop/GD32VW553/V1_MQTT_OK/GD32VW55X_Wifi_BLE_SDK/GD32VW55x_RELEASE_V1.0.2/MSDK/ble/app\app_blue_courier_prot.c **** 
 1051              		.loc 1 263 5
 263:C:/Users/stapi/OneDrive/Desktop/GD32VW553/V1_MQTT_OK/GD32VW55X_Wifi_BLE_SDK/GD32VW55x_RELEASE_V1.0.2/MSDK/ble/app\app_blue_courier_prot.c **** 
 1052              		.loc 1 263 25 is_stmt 0
 1053 00ee 9C18     		addi	a5,sp,112
 1054 00f0 CA97     		add	a5,a5,s2
 1055 00f2 238E07F8 		sb	zero,-100(a5)
 265:C:/Users/stapi/OneDrive/Desktop/GD32VW553/V1_MQTT_OK/GD32VW55X_Wifi_BLE_SDK/GD32VW55x_RELEASE_V1.0.2/MSDK/ble/app\app_blue_courier_prot.c ****         sys_memcpy(wifi_password, &data[ssid_len + 2], password_len);
 1056              		.loc 1 265 5 is_stmt 1
 245:C:/Users/stapi/OneDrive/Desktop/GD32VW553/V1_MQTT_OK/GD32VW55X_Wifi_BLE_SDK/GD32VW55x_RELEASE_V1.0.2/MSDK/ble/app\app_blue_courier_prot.c **** 
 1057              		.loc 1 245 11 is_stmt 0
 1058 00f6 8144     		li	s1,0
 265:C:/Users/stapi/OneDrive/Desktop/GD32VW553/V1_MQTT_OK/GD32VW55X_Wifi_BLE_SDK/GD32VW55x_RELEASE_V1.0.2/MSDK/ble/app\app_blue_courier_prot.c ****         sys_memcpy(wifi_password, &data[ssid_len + 2], password_len);
 1059              		.loc 1 265 8
 1060 00f8 63800902 		beq	s3,zero,.L79
 266:C:/Users/stapi/OneDrive/Desktop/GD32VW553/V1_MQTT_OK/GD32VW55X_Wifi_BLE_SDK/GD32VW55x_RELEASE_V1.0.2/MSDK/ble/app\app_blue_courier_prot.c ****         wifi_password[password_len] = '\0';
 1061              		.loc 1 266 9 is_stmt 1
 266:C:/Users/stapi/OneDrive/Desktop/GD32VW553/V1_MQTT_OK/GD32VW55X_Wifi_BLE_SDK/GD32VW55x_RELEASE_V1.0.2/MSDK/ble/app\app_blue_courier_prot.c ****         wifi_password[password_len] = '\0';
 1062              		.loc 1 266 40 is_stmt 0
 1063 00fc 93052900 		addi	a1,s2,2
 266:C:/Users/stapi/OneDrive/Desktop/GD32VW553/V1_MQTT_OK/GD32VW55X_Wifi_BLE_SDK/GD32VW55x_RELEASE_V1.0.2/MSDK/ble/app\app_blue_courier_prot.c ****         wifi_password[password_len] = '\0';
 1064              		.loc 1 266 9
 1065 0100 4E86     		mv	a2,s3
 1066 0102 A295     		add	a1,s0,a1
 1067 0104 0818     		addi	a0,sp,48
 1068 0106 97000000 		call	sys_memcpy
 1068      E7800000 
 1069              	.LVL84:
 267:C:/Users/stapi/OneDrive/Desktop/GD32VW553/V1_MQTT_OK/GD32VW55X_Wifi_BLE_SDK/GD32VW55x_RELEASE_V1.0.2/MSDK/ble/app\app_blue_courier_prot.c ****         password = (char *)wifi_password;
 1070              		.loc 1 267 9 is_stmt 1
 267:C:/Users/stapi/OneDrive/Desktop/GD32VW553/V1_MQTT_OK/GD32VW55X_Wifi_BLE_SDK/GD32VW55x_RELEASE_V1.0.2/MSDK/ble/app\app_blue_courier_prot.c ****         password = (char *)wifi_password;
 1071              		.loc 1 267 37 is_stmt 0
 1072 010e 9C18     		addi	a5,sp,112
 1073 0110 BE99     		add	s3,a5,s3
 1074              	.LVL85:
 1075 0112 238009FC 		sb	zero,-64(s3)
 268:C:/Users/stapi/OneDrive/Desktop/GD32VW553/V1_MQTT_OK/GD32VW55X_Wifi_BLE_SDK/GD32VW55x_RELEASE_V1.0.2/MSDK/ble/app\app_blue_courier_prot.c ****     }
 1076              		.loc 1 268 9 is_stmt 1
 1077              	.LVL86:
 268:C:/Users/stapi/OneDrive/Desktop/GD32VW553/V1_MQTT_OK/GD32VW55X_Wifi_BLE_SDK/GD32VW55x_RELEASE_V1.0.2/MSDK/ble/app\app_blue_courier_prot.c ****     }
 1078              		.loc 1 268 18 is_stmt 0
 1079 0116 0418     		addi	s1,sp,48
 1080              	.LVL87:
 1081              	.L79:
 271:C:/Users/stapi/OneDrive/Desktop/GD32VW553/V1_MQTT_OK/GD32VW55X_Wifi_BLE_SDK/GD32VW55x_RELEASE_V1.0.2/MSDK/ble/app\app_blue_courier_prot.c ****     eloop_event_register(WIFI_MGMT_EVENT_DHCP_FAIL, bcwp_wifi_connect_fail, NULL, NULL);
 1082              		.loc 1 271 5 is_stmt 1
 1083 0118 B7050000 		lui	a1,%hi(bcwp_wifi_connect_success)
 1084 011c 8146     		li	a3,0
 1085 011e 0146     		li	a2,0
 1086 0120 93850500 		addi	a1,a1,%lo(bcwp_wifi_connect_success)
 1087 0124 5145     		li	a0,20
 1088 0126 97000000 		call	eloop_event_register
 1088      E7800000 
 1089              	.LVL88:
 272:C:/Users/stapi/OneDrive/Desktop/GD32VW553/V1_MQTT_OK/GD32VW55X_Wifi_BLE_SDK/GD32VW55x_RELEASE_V1.0.2/MSDK/ble/app\app_blue_courier_prot.c ****     eloop_event_register(WIFI_MGMT_EVENT_CONNECT_FAIL, bcwp_wifi_connect_fail, NULL, NULL);
 1090              		.loc 1 272 5
 1091 012e 37040000 		lui	s0,%hi(bcwp_wifi_connect_fail)
 1092              	.LVL89:
 1093 0132 8146     		li	a3,0
 1094 0134 0146     		li	a2,0
 1095 0136 93050400 		addi	a1,s0,%lo(bcwp_wifi_connect_fail)
 1096 013a 5545     		li	a0,21
 1097 013c 97000000 		call	eloop_event_register
 1097      E7800000 
 1098              	.LVL90:
 273:C:/Users/stapi/OneDrive/Desktop/GD32VW553/V1_MQTT_OK/GD32VW55X_Wifi_BLE_SDK/GD32VW55x_RELEASE_V1.0.2/MSDK/ble/app\app_blue_courier_prot.c ****     eloop_timeout_register(WIFI_MGMT_LINK_POLLING_INTERVAL, bcwp_wifi_connect_fail, NULL, NULL);
 1099              		.loc 1 273 5
 1100 0144 8146     		li	a3,0
 1101 0146 0146     		li	a2,0
 1102 0148 93050400 		addi	a1,s0,%lo(bcwp_wifi_connect_fail)
 1103 014c 5D45     		li	a0,23
 1104 014e 97000000 		call	eloop_event_register
 1104      E7800000 
 1105              	.LVL91:
 274:C:/Users/stapi/OneDrive/Desktop/GD32VW553/V1_MQTT_OK/GD32VW55X_Wifi_BLE_SDK/GD32VW55x_RELEASE_V1.0.2/MSDK/ble/app\app_blue_courier_prot.c **** 
 1106              		.loc 1 274 5
 1107 0156 0565     		li	a0,4096
 1108 0158 0146     		li	a2,0
 1109 015a 93050400 		addi	a1,s0,%lo(bcwp_wifi_connect_fail)
 1110 015e 8146     		li	a3,0
 1111 0160 130585BB 		addi	a0,a0,-1096
 1112 0164 97000000 		call	eloop_timeout_register
 1112      E7800000 
 1113              	.LVL92:
 276:C:/Users/stapi/OneDrive/Desktop/GD32VW553/V1_MQTT_OK/GD32VW55X_Wifi_BLE_SDK/GD32VW55x_RELEASE_V1.0.2/MSDK/ble/app\app_blue_courier_prot.c ****         bcwp_wifi_connect_fail(ELOOP_ALL_CTX, ELOOP_ALL_CTX);
 1114              		.loc 1 276 5
 276:C:/Users/stapi/OneDrive/Desktop/GD32VW553/V1_MQTT_OK/GD32VW55X_Wifi_BLE_SDK/GD32VW55x_RELEASE_V1.0.2/MSDK/ble/app\app_blue_courier_prot.c ****         bcwp_wifi_connect_fail(ELOOP_ALL_CTX, ELOOP_ALL_CTX);
 1115              		.loc 1 276 9 is_stmt 0
 1116 016c 0146     		li	a2,0
 1117 016e A685     		mv	a1,s1
 1118 0170 6800     		addi	a0,sp,12
 1119 0172 97000000 		call	wifi_management_connect
 1119      E7800000 
 1120              	.LVL93:
 276:C:/Users/stapi/OneDrive/Desktop/GD32VW553/V1_MQTT_OK/GD32VW55X_Wifi_BLE_SDK/GD32VW55x_RELEASE_V1.0.2/MSDK/ble/app\app_blue_courier_prot.c ****         bcwp_wifi_connect_fail(ELOOP_ALL_CTX, ELOOP_ALL_CTX);
 1121              		.loc 1 276 8
 1122 017a 19C5     		beq	a0,zero,.L66
 277:C:/Users/stapi/OneDrive/Desktop/GD32VW553/V1_MQTT_OK/GD32VW55X_Wifi_BLE_SDK/GD32VW55x_RELEASE_V1.0.2/MSDK/ble/app\app_blue_courier_prot.c ****     }
 1123              		.loc 1 277 9 is_stmt 1
 1124 017c FD55     		li	a1,-1
 1125 017e 7D55     		li	a0,-1
 1126 0180 97000000 		call	bcwp_wifi_connect_fail
 1126      E7800000 
 1127              	.LVL94:
 1128              	.L66:
 1129              	.LBE16:
 1130              	.LBE15:
 1131              		.loc 1 511 1 is_stmt 0
 1132 0188 6561     		addi	sp,sp,112
 1133              		.cfi_remember_state
 1134              		.cfi_def_cfa_offset 0
 1135 018a 17030000 		tail	__riscv_restore_6
 1135      67000300 
 1136              		.cfi_restore 21
 1137              		.cfi_restore 20
 1138              		.cfi_restore 19
 1139              		.cfi_restore 18
 1140              		.cfi_restore 9
 1141              		.cfi_restore 8
 1142              		.cfi_restore 1
 1143              		.cfi_def_cfa_offset -32
 1144              	.LVL95:
 1145              	.L78:
 1146              		.cfi_restore_state
 1147              	.LDL1:
 1148              	.LBB18:
 1149              	.LBB17:
 282:C:/Users/stapi/OneDrive/Desktop/GD32VW553/V1_MQTT_OK/GD32VW55X_Wifi_BLE_SDK/GD32VW55x_RELEASE_V1.0.2/MSDK/ble/app\app_blue_courier_prot.c **** }
 1150              		.loc 1 282 5 is_stmt 1
 1151 0192 0546     		li	a2,1
 1152 0194 9305B100 		addi	a1,sp,11
 1153 0198 13052004 		li	a0,66
 1154              	.LVL96:
 1155              	.L117:
 1156              	.LBE17:
 1157              	.LBE18:
 1158              	.LBB19:
 1159              	.LBB20:
 383:C:/Users/stapi/OneDrive/Desktop/GD32VW553/V1_MQTT_OK/GD32VW55X_Wifi_BLE_SDK/GD32VW55x_RELEASE_V1.0.2/MSDK/ble/app\app_blue_courier_prot.c ****     }
 1160              		.loc 1 383 9 is_stmt 0
 1161 019c 97000000 		call	bcwl_send
 1161      E7800000 
 1162              	.LVL97:
 385:C:/Users/stapi/OneDrive/Desktop/GD32VW553/V1_MQTT_OK/GD32VW55X_Wifi_BLE_SDK/GD32VW55x_RELEASE_V1.0.2/MSDK/ble/app\app_blue_courier_prot.c **** 
 1163              		.loc 1 385 1
 1164 01a4 D5B7     		j	.L66
 1165              	.LVL98:
 1166              	.L72:
 1167              	.LBE20:
 1168              	.LBE19:
 491:C:/Users/stapi/OneDrive/Desktop/GD32VW553/V1_MQTT_OK/GD32VW55X_Wifi_BLE_SDK/GD32VW55x_RELEASE_V1.0.2/MSDK/ble/app\app_blue_courier_prot.c ****         } break;
 1169              		.loc 1 491 13 is_stmt 1
 1170              	.LBB22:
 1171              	.LBB23:
 293:C:/Users/stapi/OneDrive/Desktop/GD32VW553/V1_MQTT_OK/GD32VW55X_Wifi_BLE_SDK/GD32VW55x_RELEASE_V1.0.2/MSDK/ble/app\app_blue_courier_prot.c ****     wifi_management_disconnect();
 1172              		.loc 1 293 5
 293:C:/Users/stapi/OneDrive/Desktop/GD32VW553/V1_MQTT_OK/GD32VW55X_Wifi_BLE_SDK/GD32VW55x_RELEASE_V1.0.2/MSDK/ble/app\app_blue_courier_prot.c ****     wifi_management_disconnect();
 1173              		.loc 1 293 13 is_stmt 0
 1174 01a6 23080102 		sb	zero,48(sp)
 294:C:/Users/stapi/OneDrive/Desktop/GD32VW553/V1_MQTT_OK/GD32VW55X_Wifi_BLE_SDK/GD32VW55x_RELEASE_V1.0.2/MSDK/ble/app\app_blue_courier_prot.c ****     bcwl_send(BCWL_OPCODE_BUILD(BCWL_OPCODE_TYPE_DATA, BCWL_OPCODE_DATA_SUBTYPE_STAMODE_DISCONNECT)
 1175              		.loc 1 294 5 is_stmt 1
 1176 01aa 97000000 		call	wifi_management_disconnect
 1176      E7800000 
 1177              	.LVL99:
 295:C:/Users/stapi/OneDrive/Desktop/GD32VW553/V1_MQTT_OK/GD32VW55X_Wifi_BLE_SDK/GD32VW55x_RELEASE_V1.0.2/MSDK/ble/app\app_blue_courier_prot.c **** }
 1178              		.loc 1 295 5
 1179 01b2 0546     		li	a2,1
 1180 01b4 0C18     		addi	a1,sp,48
 1181 01b6 13053004 		li	a0,67
 1182 01ba CDB7     		j	.L117
 1183              	.LVL100:
 1184              	.L71:
 1185              	.LBE23:
 1186              	.LBE22:
 494:C:/Users/stapi/OneDrive/Desktop/GD32VW553/V1_MQTT_OK/GD32VW55X_Wifi_BLE_SDK/GD32VW55x_RELEASE_V1.0.2/MSDK/ble/app\app_blue_courier_prot.c ****         } break;
 1187              		.loc 1 494 13
 1188              	.LBB24:
 1189              	.LBB25:
 307:C:/Users/stapi/OneDrive/Desktop/GD32VW553/V1_MQTT_OK/GD32VW55X_Wifi_BLE_SDK/GD32VW55x_RELEASE_V1.0.2/MSDK/ble/app\app_blue_courier_prot.c ****     uint8_t ssid_len, password_len, channel, akm, hide;
 1190              		.loc 1 307 5
 307:C:/Users/stapi/OneDrive/Desktop/GD32VW553/V1_MQTT_OK/GD32VW55X_Wifi_BLE_SDK/GD32VW55x_RELEASE_V1.0.2/MSDK/ble/app\app_blue_courier_prot.c ****     uint8_t ssid_len, password_len, channel, akm, hide;
 1191              		.loc 1 307 13 is_stmt 0
 1192 01bc 8547     		li	a5,1
 1193 01be A305F100 		sb	a5,11(sp)
 308:C:/Users/stapi/OneDrive/Desktop/GD32VW553/V1_MQTT_OK/GD32VW55X_Wifi_BLE_SDK/GD32VW55x_RELEASE_V1.0.2/MSDK/ble/app\app_blue_courier_prot.c ****     uint8_t wifi_ssid[MAC_SSID_LEN + 1];
 1194              		.loc 1 308 5 is_stmt 1
 309:C:/Users/stapi/OneDrive/Desktop/GD32VW553/V1_MQTT_OK/GD32VW55X_Wifi_BLE_SDK/GD32VW55x_RELEASE_V1.0.2/MSDK/ble/app\app_blue_courier_prot.c ****     uint8_t wifi_password[WPA_MAX_PSK_LEN + 1];
 1195              		.loc 1 309 5
 310:C:/Users/stapi/OneDrive/Desktop/GD32VW553/V1_MQTT_OK/GD32VW55X_Wifi_BLE_SDK/GD32VW55x_RELEASE_V1.0.2/MSDK/ble/app\app_blue_courier_prot.c ****     char *password = NULL;
 1196              		.loc 1 310 5
 311:C:/Users/stapi/OneDrive/Desktop/GD32VW553/V1_MQTT_OK/GD32VW55X_Wifi_BLE_SDK/GD32VW55x_RELEASE_V1.0.2/MSDK/ble/app\app_blue_courier_prot.c ****     wifi_ap_auth_mode_t auth_mode;
 1197              		.loc 1 311 5
 1198              	.LVL101:
 312:C:/Users/stapi/OneDrive/Desktop/GD32VW553/V1_MQTT_OK/GD32VW55X_Wifi_BLE_SDK/GD32VW55x_RELEASE_V1.0.2/MSDK/ble/app\app_blue_courier_prot.c **** 
 1199              		.loc 1 312 5
 314:C:/Users/stapi/OneDrive/Desktop/GD32VW553/V1_MQTT_OK/GD32VW55X_Wifi_BLE_SDK/GD32VW55x_RELEASE_V1.0.2/MSDK/ble/app\app_blue_courier_prot.c ****         goto exit;
 1200              		.loc 1 314 5
 314:C:/Users/stapi/OneDrive/Desktop/GD32VW553/V1_MQTT_OK/GD32VW55X_Wifi_BLE_SDK/GD32VW55x_RELEASE_V1.0.2/MSDK/ble/app\app_blue_courier_prot.c ****         goto exit;
 1201              		.loc 1 314 8 is_stmt 0
 1202 01c2 61C2     		beq	a2,zero,.L82
 318:C:/Users/stapi/OneDrive/Desktop/GD32VW553/V1_MQTT_OK/GD32VW55X_Wifi_BLE_SDK/GD32VW55x_RELEASE_V1.0.2/MSDK/ble/app\app_blue_courier_prot.c **** 
 1203              		.loc 1 318 5 is_stmt 1
 1204 01c4 B387C500 		add	a5,a1,a2
 1205 01c8 9305F6FF 		addi	a1,a2,-1
 1206 01cc 03C6F7FF 		lbu	a2,-1(a5)
 1207              	.LVL102:
 1208 01d0 2285     		mv	a0,s0
 1209              	.LVL103:
 1210 01d2 B3C50508 		zext.h	a1,a1
 1211 01d6 97000000 		call	ble_internal_decode
 1211      E7800000 
 1212              	.LVL104:
 321:C:/Users/stapi/OneDrive/Desktop/GD32VW553/V1_MQTT_OK/GD32VW55X_Wifi_BLE_SDK/GD32VW55x_RELEASE_V1.0.2/MSDK/ble/app\app_blue_courier_prot.c ****     if (ssid_len > len || ssid_len > WPA_MAX_PSK_LEN)
 1213              		.loc 1 321 5
 321:C:/Users/stapi/OneDrive/Desktop/GD32VW553/V1_MQTT_OK/GD32VW55X_Wifi_BLE_SDK/GD32VW55x_RELEASE_V1.0.2/MSDK/ble/app\app_blue_courier_prot.c ****     if (ssid_len > len || ssid_len > WPA_MAX_PSK_LEN)
 1214              		.loc 1 321 14 is_stmt 0
 1215 01de 03490400 		lbu	s2,0(s0)
 1216              	.LVL105:
 322:C:/Users/stapi/OneDrive/Desktop/GD32VW553/V1_MQTT_OK/GD32VW55X_Wifi_BLE_SDK/GD32VW55x_RELEASE_V1.0.2/MSDK/ble/app\app_blue_courier_prot.c ****         goto exit;
 1217              		.loc 1 322 5 is_stmt 1
 322:C:/Users/stapi/OneDrive/Desktop/GD32VW553/V1_MQTT_OK/GD32VW55X_Wifi_BLE_SDK/GD32VW55x_RELEASE_V1.0.2/MSDK/ble/app\app_blue_courier_prot.c ****         goto exit;
 1218              		.loc 1 322 8 is_stmt 0
 1219 01e2 63E0240B 		bltu	s1,s2,.L82
 322:C:/Users/stapi/OneDrive/Desktop/GD32VW553/V1_MQTT_OK/GD32VW55X_Wifi_BLE_SDK/GD32VW55x_RELEASE_V1.0.2/MSDK/ble/app\app_blue_courier_prot.c ****         goto exit;
 1220              		.loc 1 322 24
 1221 01e6 9307F003 		li	a5,63
 1222 01ea 63EC2709 		bgtu	s2,a5,.L82
 325:C:/Users/stapi/OneDrive/Desktop/GD32VW553/V1_MQTT_OK/GD32VW55X_Wifi_BLE_SDK/GD32VW55x_RELEASE_V1.0.2/MSDK/ble/app\app_blue_courier_prot.c ****     if ((ssid_len + password_len + 6) != len || password_len > WPA_MAX_PSK_LEN)
 1223              		.loc 1 325 5 is_stmt 1
 325:C:/Users/stapi/OneDrive/Desktop/GD32VW553/V1_MQTT_OK/GD32VW55X_Wifi_BLE_SDK/GD32VW55x_RELEASE_V1.0.2/MSDK/ble/app\app_blue_courier_prot.c ****     if ((ssid_len + password_len + 6) != len || password_len > WPA_MAX_PSK_LEN)
 1224              		.loc 1 325 18 is_stmt 0
 1225 01ee 33072401 		add	a4,s0,s2
 1226 01f2 83491700 		lbu	s3,1(a4)
 1227              	.LVL106:
 326:C:/Users/stapi/OneDrive/Desktop/GD32VW553/V1_MQTT_OK/GD32VW55X_Wifi_BLE_SDK/GD32VW55x_RELEASE_V1.0.2/MSDK/ble/app\app_blue_courier_prot.c ****         goto exit;
 1228              		.loc 1 326 5 is_stmt 1
 326:C:/Users/stapi/OneDrive/Desktop/GD32VW553/V1_MQTT_OK/GD32VW55X_Wifi_BLE_SDK/GD32VW55x_RELEASE_V1.0.2/MSDK/ble/app\app_blue_courier_prot.c ****         goto exit;
 1229              		.loc 1 326 19 is_stmt 0
 1230 01f6 330A3901 		add	s4,s2,s3
 326:C:/Users/stapi/OneDrive/Desktop/GD32VW553/V1_MQTT_OK/GD32VW55X_Wifi_BLE_SDK/GD32VW55x_RELEASE_V1.0.2/MSDK/ble/app\app_blue_courier_prot.c ****         goto exit;
 1231              		.loc 1 326 34
 1232 01fa 13076A00 		addi	a4,s4,6
 326:C:/Users/stapi/OneDrive/Desktop/GD32VW553/V1_MQTT_OK/GD32VW55X_Wifi_BLE_SDK/GD32VW55x_RELEASE_V1.0.2/MSDK/ble/app\app_blue_courier_prot.c ****         goto exit;
 1233              		.loc 1 326 8
 1234 01fe 63129708 		bne	a4,s1,.L82
 326:C:/Users/stapi/OneDrive/Desktop/GD32VW553/V1_MQTT_OK/GD32VW55X_Wifi_BLE_SDK/GD32VW55x_RELEASE_V1.0.2/MSDK/ble/app\app_blue_courier_prot.c ****         goto exit;
 1235              		.loc 1 326 46
 1236 0202 63E03709 		bgtu	s3,a5,.L82
 329:C:/Users/stapi/OneDrive/Desktop/GD32VW553/V1_MQTT_OK/GD32VW55X_Wifi_BLE_SDK/GD32VW55x_RELEASE_V1.0.2/MSDK/ble/app\app_blue_courier_prot.c ****     wifi_ssid[ssid_len] = '\0';
 1237              		.loc 1 329 5 is_stmt 1
 1238 0206 93051400 		addi	a1,s0,1
 1239 020a 4A86     		mv	a2,s2
 1240 020c 6800     		addi	a0,sp,12
 1241 020e 97000000 		call	sys_memcpy
 1241      E7800000 
 1242              	.LVL107:
 330:C:/Users/stapi/OneDrive/Desktop/GD32VW553/V1_MQTT_OK/GD32VW55X_Wifi_BLE_SDK/GD32VW55x_RELEASE_V1.0.2/MSDK/ble/app\app_blue_courier_prot.c **** 
 1243              		.loc 1 330 5
 330:C:/Users/stapi/OneDrive/Desktop/GD32VW553/V1_MQTT_OK/GD32VW55X_Wifi_BLE_SDK/GD32VW55x_RELEASE_V1.0.2/MSDK/ble/app\app_blue_courier_prot.c **** 
 1244              		.loc 1 330 25 is_stmt 0
 1245 0216 9C18     		addi	a5,sp,112
 1246 0218 CA97     		add	a5,a5,s2
 1247 021a 238E07F8 		sb	zero,-100(a5)
 332:C:/Users/stapi/OneDrive/Desktop/GD32VW553/V1_MQTT_OK/GD32VW55X_Wifi_BLE_SDK/GD32VW55x_RELEASE_V1.0.2/MSDK/ble/app\app_blue_courier_prot.c ****         sys_memcpy(wifi_password, &data[ssid_len + 2], password_len);
 1248              		.loc 1 332 5 is_stmt 1
 311:C:/Users/stapi/OneDrive/Desktop/GD32VW553/V1_MQTT_OK/GD32VW55X_Wifi_BLE_SDK/GD32VW55x_RELEASE_V1.0.2/MSDK/ble/app\app_blue_courier_prot.c ****     wifi_ap_auth_mode_t auth_mode;
 1249              		.loc 1 311 11 is_stmt 0
 1250 021e 8145     		li	a1,0
 332:C:/Users/stapi/OneDrive/Desktop/GD32VW553/V1_MQTT_OK/GD32VW55X_Wifi_BLE_SDK/GD32VW55x_RELEASE_V1.0.2/MSDK/ble/app\app_blue_courier_prot.c ****         sys_memcpy(wifi_password, &data[ssid_len + 2], password_len);
 1251              		.loc 1 332 8
 1252 0220 63800902 		beq	s3,zero,.L84
 333:C:/Users/stapi/OneDrive/Desktop/GD32VW553/V1_MQTT_OK/GD32VW55X_Wifi_BLE_SDK/GD32VW55x_RELEASE_V1.0.2/MSDK/ble/app\app_blue_courier_prot.c ****         wifi_password[password_len] = '\0';
 1253              		.loc 1 333 9 is_stmt 1
 333:C:/Users/stapi/OneDrive/Desktop/GD32VW553/V1_MQTT_OK/GD32VW55X_Wifi_BLE_SDK/GD32VW55x_RELEASE_V1.0.2/MSDK/ble/app\app_blue_courier_prot.c ****         wifi_password[password_len] = '\0';
 1254              		.loc 1 333 40 is_stmt 0
 1255 0224 93052900 		addi	a1,s2,2
 333:C:/Users/stapi/OneDrive/Desktop/GD32VW553/V1_MQTT_OK/GD32VW55X_Wifi_BLE_SDK/GD32VW55x_RELEASE_V1.0.2/MSDK/ble/app\app_blue_courier_prot.c ****         wifi_password[password_len] = '\0';
 1256              		.loc 1 333 9
 1257 0228 4E86     		mv	a2,s3
 1258 022a A295     		add	a1,s0,a1
 1259 022c 0818     		addi	a0,sp,48
 1260 022e 97000000 		call	sys_memcpy
 1260      E7800000 
 1261              	.LVL108:
 334:C:/Users/stapi/OneDrive/Desktop/GD32VW553/V1_MQTT_OK/GD32VW55X_Wifi_BLE_SDK/GD32VW55x_RELEASE_V1.0.2/MSDK/ble/app\app_blue_courier_prot.c ****         password = (char *)wifi_password;
 1262              		.loc 1 334 9 is_stmt 1
 334:C:/Users/stapi/OneDrive/Desktop/GD32VW553/V1_MQTT_OK/GD32VW55X_Wifi_BLE_SDK/GD32VW55x_RELEASE_V1.0.2/MSDK/ble/app\app_blue_courier_prot.c ****         password = (char *)wifi_password;
 1263              		.loc 1 334 37 is_stmt 0
 1264 0236 9C18     		addi	a5,sp,112
 1265 0238 BE99     		add	s3,a5,s3
 1266              	.LVL109:
 1267 023a 238009FC 		sb	zero,-64(s3)
 335:C:/Users/stapi/OneDrive/Desktop/GD32VW553/V1_MQTT_OK/GD32VW55X_Wifi_BLE_SDK/GD32VW55x_RELEASE_V1.0.2/MSDK/ble/app\app_blue_courier_prot.c ****     }
 1268              		.loc 1 335 9 is_stmt 1
 1269              	.LVL110:
 335:C:/Users/stapi/OneDrive/Desktop/GD32VW553/V1_MQTT_OK/GD32VW55X_Wifi_BLE_SDK/GD32VW55x_RELEASE_V1.0.2/MSDK/ble/app\app_blue_courier_prot.c ****     }
 1270              		.loc 1 335 18 is_stmt 0
 1271 023e 0C18     		addi	a1,sp,48
 1272              	.LVL111:
 1273              	.L84:
 338:C:/Users/stapi/OneDrive/Desktop/GD32VW553/V1_MQTT_OK/GD32VW55X_Wifi_BLE_SDK/GD32VW55x_RELEASE_V1.0.2/MSDK/ble/app\app_blue_courier_prot.c ****     akm = data[ssid_len + password_len + 3];
 1274              		.loc 1 338 5 is_stmt 1
 338:C:/Users/stapi/OneDrive/Desktop/GD32VW553/V1_MQTT_OK/GD32VW55X_Wifi_BLE_SDK/GD32VW55x_RELEASE_V1.0.2/MSDK/ble/app\app_blue_courier_prot.c ****     akm = data[ssid_len + password_len + 3];
 1275              		.loc 1 338 13 is_stmt 0
 1276 0240 5294     		add	s0,s0,s4
 1277              	.LVL112:
 339:C:/Users/stapi/OneDrive/Desktop/GD32VW553/V1_MQTT_OK/GD32VW55X_Wifi_BLE_SDK/GD32VW55x_RELEASE_V1.0.2/MSDK/ble/app\app_blue_courier_prot.c ****     hide = data[ssid_len + password_len + 4];
 1278              		.loc 1 339 9
 1279 0242 83473400 		lbu	a5,3(s0)
 1280 0246 0945     		li	a0,2
 338:C:/Users/stapi/OneDrive/Desktop/GD32VW553/V1_MQTT_OK/GD32VW55X_Wifi_BLE_SDK/GD32VW55x_RELEASE_V1.0.2/MSDK/ble/app\app_blue_courier_prot.c ****     akm = data[ssid_len + password_len + 3];
 1281              		.loc 1 338 13
 1282 0248 03462400 		lbu	a2,2(s0)
 1283              	.LVL113:
 339:C:/Users/stapi/OneDrive/Desktop/GD32VW553/V1_MQTT_OK/GD32VW55X_Wifi_BLE_SDK/GD32VW55x_RELEASE_V1.0.2/MSDK/ble/app\app_blue_courier_prot.c ****     hide = data[ssid_len + password_len + 4];
 1284              		.loc 1 339 5 is_stmt 1
 340:C:/Users/stapi/OneDrive/Desktop/GD32VW553/V1_MQTT_OK/GD32VW55X_Wifi_BLE_SDK/GD32VW55x_RELEASE_V1.0.2/MSDK/ble/app\app_blue_courier_prot.c **** 
 1285              		.loc 1 340 5
 340:C:/Users/stapi/OneDrive/Desktop/GD32VW553/V1_MQTT_OK/GD32VW55X_Wifi_BLE_SDK/GD32VW55x_RELEASE_V1.0.2/MSDK/ble/app\app_blue_courier_prot.c **** 
 1286              		.loc 1 340 10 is_stmt 0
 1287 024c 03474400 		lbu	a4,4(s0)
 1288              	.LVL114:
 342:C:/Users/stapi/OneDrive/Desktop/GD32VW553/V1_MQTT_OK/GD32VW55X_Wifi_BLE_SDK/GD32VW55x_RELEASE_V1.0.2/MSDK/ble/app\app_blue_courier_prot.c ****     case 0:
 1289              		.loc 1 342 5 is_stmt 1
 340:C:/Users/stapi/OneDrive/Desktop/GD32VW553/V1_MQTT_OK/GD32VW55X_Wifi_BLE_SDK/GD32VW55x_RELEASE_V1.0.2/MSDK/ble/app\app_blue_courier_prot.c **** 
 1290              		.loc 1 340 10 is_stmt 0
 1291 0250 9546     		li	a3,5
 1292 0252 6365F500 		bgtu	a5,a0,.L85
 1293 0256 8D46     		li	a3,3
 1294 0258 B386D702 		mul	a3,a5,a3
 1295              	.L85:
 1296              	.LVL115:
 357:C:/Users/stapi/OneDrive/Desktop/GD32VW553/V1_MQTT_OK/GD32VW55X_Wifi_BLE_SDK/GD32VW55x_RELEASE_V1.0.2/MSDK/ble/app\app_blue_courier_prot.c ****         dbg_print(ERR, "bcwp failed to start AP, check your configuration.\r\n");
 1297              		.loc 1 357 5 is_stmt 1
 357:C:/Users/stapi/OneDrive/Desktop/GD32VW553/V1_MQTT_OK/GD32VW55X_Wifi_BLE_SDK/GD32VW55x_RELEASE_V1.0.2/MSDK/ble/app\app_blue_courier_prot.c ****         dbg_print(ERR, "bcwp failed to start AP, check your configuration.\r\n");
 1298              		.loc 1 357 9 is_stmt 0
 1299 025c 6800     		addi	a0,sp,12
 1300 025e 97000000 		call	wifi_management_ap_start
 1300      E7800000 
 1301              	.LVL116:
 1302 0266 B7070000 		lui	a5,%hi(global_debug_level)
 357:C:/Users/stapi/OneDrive/Desktop/GD32VW553/V1_MQTT_OK/GD32VW55X_Wifi_BLE_SDK/GD32VW55x_RELEASE_V1.0.2/MSDK/ble/app\app_blue_courier_prot.c ****         dbg_print(ERR, "bcwp failed to start AP, check your configuration.\r\n");
 1303              		.loc 1 357 8
 1304 026a 15C1     		beq	a0,zero,.L86
 358:C:/Users/stapi/OneDrive/Desktop/GD32VW553/V1_MQTT_OK/GD32VW55X_Wifi_BLE_SDK/GD32VW55x_RELEASE_V1.0.2/MSDK/ble/app\app_blue_courier_prot.c ****         goto exit;
 1305              		.loc 1 358 9 is_stmt 1
 358:C:/Users/stapi/OneDrive/Desktop/GD32VW553/V1_MQTT_OK/GD32VW55X_Wifi_BLE_SDK/GD32VW55x_RELEASE_V1.0.2/MSDK/ble/app\app_blue_courier_prot.c ****         goto exit;
 1306              		.loc 1 358 9
 1307 026c 83C70700 		lbu	a5,%lo(global_debug_level)(a5)
 1308 0270 89CB     		beq	a5,zero,.L82
 358:C:/Users/stapi/OneDrive/Desktop/GD32VW553/V1_MQTT_OK/GD32VW55X_Wifi_BLE_SDK/GD32VW55x_RELEASE_V1.0.2/MSDK/ble/app\app_blue_courier_prot.c ****         goto exit;
 1309              		.loc 1 358 9
 1310 0272 37050000 		lui	a0,%hi(.LC11)
 1311 0276 13050500 		addi	a0,a0,%lo(.LC11)
 1312              	.L115:
 363:C:/Users/stapi/OneDrive/Desktop/GD32VW553/V1_MQTT_OK/GD32VW55X_Wifi_BLE_SDK/GD32VW55x_RELEASE_V1.0.2/MSDK/ble/app\app_blue_courier_prot.c **** exit:
 1313              		.loc 1 363 5 is_stmt 0
 1314 027a 97000000 		call	co_printf
 1314      E7800000 
 1315              	.LVL117:
 1316              	.L82:
 363:C:/Users/stapi/OneDrive/Desktop/GD32VW553/V1_MQTT_OK/GD32VW55X_Wifi_BLE_SDK/GD32VW55x_RELEASE_V1.0.2/MSDK/ble/app\app_blue_courier_prot.c **** exit:
 1317              		.loc 1 363 5 is_stmt 1
 365:C:/Users/stapi/OneDrive/Desktop/GD32VW553/V1_MQTT_OK/GD32VW55X_Wifi_BLE_SDK/GD32VW55x_RELEASE_V1.0.2/MSDK/ble/app\app_blue_courier_prot.c **** }
 1318              		.loc 1 365 5
 1319 0282 0546     		li	a2,1
 1320 0284 9305B100 		addi	a1,sp,11
 1321 0288 13054004 		li	a0,68
 1322 028c 01BF     		j	.L117
 1323              	.LVL118:
 1324              	.L86:
 362:C:/Users/stapi/OneDrive/Desktop/GD32VW553/V1_MQTT_OK/GD32VW55X_Wifi_BLE_SDK/GD32VW55x_RELEASE_V1.0.2/MSDK/ble/app\app_blue_courier_prot.c ****     dbg_print(NOTICE, "bcwp softAP successfully started!\r\n");
 1325              		.loc 1 362 5
 363:C:/Users/stapi/OneDrive/Desktop/GD32VW553/V1_MQTT_OK/GD32VW55X_Wifi_BLE_SDK/GD32VW55x_RELEASE_V1.0.2/MSDK/ble/app\app_blue_courier_prot.c **** exit:
 1326              		.loc 1 363 5 is_stmt 0
 1327 028e 03C70700 		lbu	a4,%lo(global_debug_level)(a5)
 362:C:/Users/stapi/OneDrive/Desktop/GD32VW553/V1_MQTT_OK/GD32VW55X_Wifi_BLE_SDK/GD32VW55x_RELEASE_V1.0.2/MSDK/ble/app\app_blue_courier_prot.c ****     dbg_print(NOTICE, "bcwp softAP successfully started!\r\n");
 1328              		.loc 1 362 11
 1329 0292 A3050100 		sb	zero,11(sp)
 363:C:/Users/stapi/OneDrive/Desktop/GD32VW553/V1_MQTT_OK/GD32VW55X_Wifi_BLE_SDK/GD32VW55x_RELEASE_V1.0.2/MSDK/ble/app\app_blue_courier_prot.c **** exit:
 1330              		.loc 1 363 5 is_stmt 1
 363:C:/Users/stapi/OneDrive/Desktop/GD32VW553/V1_MQTT_OK/GD32VW55X_Wifi_BLE_SDK/GD32VW55x_RELEASE_V1.0.2/MSDK/ble/app\app_blue_courier_prot.c **** exit:
 1331              		.loc 1 363 5
 1332 0296 8947     		li	a5,2
 1333 0298 E3F5E7FE 		bleu	a4,a5,.L82
 363:C:/Users/stapi/OneDrive/Desktop/GD32VW553/V1_MQTT_OK/GD32VW55X_Wifi_BLE_SDK/GD32VW55x_RELEASE_V1.0.2/MSDK/ble/app\app_blue_courier_prot.c **** exit:
 1334              		.loc 1 363 5
 1335 029c 37050000 		lui	a0,%hi(.LC12)
 1336 02a0 13050500 		addi	a0,a0,%lo(.LC12)
 1337 02a4 D9BF     		j	.L115
 1338              	.LVL119:
 1339              	.L70:
 1340              	.LBE25:
 1341              	.LBE24:
 497:C:/Users/stapi/OneDrive/Desktop/GD32VW553/V1_MQTT_OK/GD32VW55X_Wifi_BLE_SDK/GD32VW55x_RELEASE_V1.0.2/MSDK/ble/app\app_blue_courier_prot.c ****         } break;
 1342              		.loc 1 497 13
 1343              	.LBB26:
 1344              	.LBB21:
 376:C:/Users/stapi/OneDrive/Desktop/GD32VW553/V1_MQTT_OK/GD32VW55X_Wifi_BLE_SDK/GD32VW55x_RELEASE_V1.0.2/MSDK/ble/app\app_blue_courier_prot.c **** 
 1345              		.loc 1 376 5
 376:C:/Users/stapi/OneDrive/Desktop/GD32VW553/V1_MQTT_OK/GD32VW55X_Wifi_BLE_SDK/GD32VW55x_RELEASE_V1.0.2/MSDK/ble/app\app_blue_courier_prot.c **** 
 1346              		.loc 1 376 13 is_stmt 0
 1347 02a6 23080102 		sb	zero,48(sp)
 378:C:/Users/stapi/OneDrive/Desktop/GD32VW553/V1_MQTT_OK/GD32VW55X_Wifi_BLE_SDK/GD32VW55x_RELEASE_V1.0.2/MSDK/ble/app\app_blue_courier_prot.c ****         dbg_print(NOTICE, "bcwp softAP successfully stoped!\r\n");
 1348              		.loc 1 378 5 is_stmt 1
 378:C:/Users/stapi/OneDrive/Desktop/GD32VW553/V1_MQTT_OK/GD32VW55X_Wifi_BLE_SDK/GD32VW55x_RELEASE_V1.0.2/MSDK/ble/app\app_blue_courier_prot.c ****         dbg_print(NOTICE, "bcwp softAP successfully stoped!\r\n");
 1349              		.loc 1 378 9 is_stmt 0
 1350 02aa 97000000 		call	wifi_management_ap_stop
 1350      E7800000 
 1351              	.LVL120:
 378:C:/Users/stapi/OneDrive/Desktop/GD32VW553/V1_MQTT_OK/GD32VW55X_Wifi_BLE_SDK/GD32VW55x_RELEASE_V1.0.2/MSDK/ble/app\app_blue_courier_prot.c ****         dbg_print(NOTICE, "bcwp softAP successfully stoped!\r\n");
 1352              		.loc 1 378 8
 1353 02b2 0DE5     		bne	a0,zero,.L87
 379:C:/Users/stapi/OneDrive/Desktop/GD32VW553/V1_MQTT_OK/GD32VW55X_Wifi_BLE_SDK/GD32VW55x_RELEASE_V1.0.2/MSDK/ble/app\app_blue_courier_prot.c ****         bcwl_send(BCWL_OPCODE_BUILD(BCWL_OPCODE_TYPE_DATA, BCWL_OPCODE_DATA_SUBTYPE_SOFTAPMODE_STOP
 1354              		.loc 1 379 9 is_stmt 1
 379:C:/Users/stapi/OneDrive/Desktop/GD32VW553/V1_MQTT_OK/GD32VW55X_Wifi_BLE_SDK/GD32VW55x_RELEASE_V1.0.2/MSDK/ble/app\app_blue_courier_prot.c ****         bcwl_send(BCWL_OPCODE_BUILD(BCWL_OPCODE_TYPE_DATA, BCWL_OPCODE_DATA_SUBTYPE_SOFTAPMODE_STOP
 1355              		.loc 1 379 9
 1356 02b4 B7070000 		lui	a5,%hi(global_debug_level)
 1357 02b8 03C70700 		lbu	a4,%lo(global_debug_level)(a5)
 1358 02bc 8947     		li	a5,2
 1359 02be 63FAE700 		bleu	a4,a5,.L118
 379:C:/Users/stapi/OneDrive/Desktop/GD32VW553/V1_MQTT_OK/GD32VW55X_Wifi_BLE_SDK/GD32VW55x_RELEASE_V1.0.2/MSDK/ble/app\app_blue_courier_prot.c ****         bcwl_send(BCWL_OPCODE_BUILD(BCWL_OPCODE_TYPE_DATA, BCWL_OPCODE_DATA_SUBTYPE_SOFTAPMODE_STOP
 1360              		.loc 1 379 9
 1361 02c2 37050000 		lui	a0,%hi(.LC13)
 1362 02c6 13050500 		addi	a0,a0,%lo(.LC13)
 1363 02ca 97000000 		call	co_printf
 1363      E7800000 
 1364              	.LVL121:
 379:C:/Users/stapi/OneDrive/Desktop/GD32VW553/V1_MQTT_OK/GD32VW55X_Wifi_BLE_SDK/GD32VW55x_RELEASE_V1.0.2/MSDK/ble/app\app_blue_courier_prot.c ****         bcwl_send(BCWL_OPCODE_BUILD(BCWL_OPCODE_TYPE_DATA, BCWL_OPCODE_DATA_SUBTYPE_SOFTAPMODE_STOP
 1365              		.loc 1 379 9
 380:C:/Users/stapi/OneDrive/Desktop/GD32VW553/V1_MQTT_OK/GD32VW55X_Wifi_BLE_SDK/GD32VW55x_RELEASE_V1.0.2/MSDK/ble/app\app_blue_courier_prot.c ****     } else {
 1366              		.loc 1 380 9
 1367              	.L118:
 383:C:/Users/stapi/OneDrive/Desktop/GD32VW553/V1_MQTT_OK/GD32VW55X_Wifi_BLE_SDK/GD32VW55x_RELEASE_V1.0.2/MSDK/ble/app\app_blue_courier_prot.c ****     }
 1368              		.loc 1 383 9
 1369 02d2 0546     		li	a2,1
 1370 02d4 0C18     		addi	a1,sp,48
 1371 02d6 13055004 		li	a0,69
 1372 02da C9B5     		j	.L117
 1373              	.L87:
 382:C:/Users/stapi/OneDrive/Desktop/GD32VW553/V1_MQTT_OK/GD32VW55X_Wifi_BLE_SDK/GD32VW55x_RELEASE_V1.0.2/MSDK/ble/app\app_blue_courier_prot.c ****         bcwl_send(BCWL_OPCODE_BUILD(BCWL_OPCODE_TYPE_DATA, BCWL_OPCODE_DATA_SUBTYPE_SOFTAPMODE_STOP
 1374              		.loc 1 382 9
 382:C:/Users/stapi/OneDrive/Desktop/GD32VW553/V1_MQTT_OK/GD32VW55X_Wifi_BLE_SDK/GD32VW55x_RELEASE_V1.0.2/MSDK/ble/app\app_blue_courier_prot.c ****         bcwl_send(BCWL_OPCODE_BUILD(BCWL_OPCODE_TYPE_DATA, BCWL_OPCODE_DATA_SUBTYPE_SOFTAPMODE_STOP
 1375              		.loc 1 382 15 is_stmt 0
 1376 02dc 8547     		li	a5,1
 1377 02de 2308F102 		sb	a5,48(sp)
 1378 02e2 C5BF     		j	.L118
 1379              	.LVL122:
 1380              	.L68:
 1381              	.LBE21:
 1382              	.LBE26:
 500:C:/Users/stapi/OneDrive/Desktop/GD32VW553/V1_MQTT_OK/GD32VW55X_Wifi_BLE_SDK/GD32VW55x_RELEASE_V1.0.2/MSDK/ble/app\app_blue_courier_prot.c ****         } break;
 1383              		.loc 1 500 13 is_stmt 1
 1384 02e4 97000000 		call	bcwp_wifi_status_get
 1384      E7800000 
 1385              	.LVL123:
 501:C:/Users/stapi/OneDrive/Desktop/GD32VW553/V1_MQTT_OK/GD32VW55X_Wifi_BLE_SDK/GD32VW55x_RELEASE_V1.0.2/MSDK/ble/app\app_blue_courier_prot.c ****         case BCWL_OPCODE_DATA_SUBTYPE_CUSTOM_DATA: {
 1386              		.loc 1 501 11
 501:C:/Users/stapi/OneDrive/Desktop/GD32VW553/V1_MQTT_OK/GD32VW55X_Wifi_BLE_SDK/GD32VW55x_RELEASE_V1.0.2/MSDK/ble/app\app_blue_courier_prot.c ****         case BCWL_OPCODE_DATA_SUBTYPE_CUSTOM_DATA: {
 1387              		.loc 1 501 9 is_stmt 0
 1388 02ec 71BD     		j	.L66
 1389              	.LVL124:
 1390              	.L75:
 503:C:/Users/stapi/OneDrive/Desktop/GD32VW553/V1_MQTT_OK/GD32VW55X_Wifi_BLE_SDK/GD32VW55x_RELEASE_V1.0.2/MSDK/ble/app\app_blue_courier_prot.c ****             for (uint8_t i = 0; i < len; i++)
 1391              		.loc 1 503 13 is_stmt 1
 503:C:/Users/stapi/OneDrive/Desktop/GD32VW553/V1_MQTT_OK/GD32VW55X_Wifi_BLE_SDK/GD32VW55x_RELEASE_V1.0.2/MSDK/ble/app\app_blue_courier_prot.c ****             for (uint8_t i = 0; i < len; i++)
 1392              		.loc 1 503 13
 1393 02ee B7070000 		lui	a5,%hi(global_debug_level)
 1394 02f2 83C60700 		lbu	a3,%lo(global_debug_level)(a5)
 1395 02f6 0947     		li	a4,2
 1396 02f8 BE89     		mv	s3,a5
 1397 02fa 637AD700 		bleu	a3,a4,.L90
 503:C:/Users/stapi/OneDrive/Desktop/GD32VW553/V1_MQTT_OK/GD32VW55X_Wifi_BLE_SDK/GD32VW55x_RELEASE_V1.0.2/MSDK/ble/app\app_blue_courier_prot.c ****             for (uint8_t i = 0; i < len; i++)
 1398              		.loc 1 503 13 discriminator 1
 1399 02fe 37050000 		lui	a0,%hi(.LC14)
 1400              	.LVL125:
 1401 0302 13050500 		addi	a0,a0,%lo(.LC14)
 1402 0306 97000000 		call	co_printf
 1402      E7800000 
 1403              	.LVL126:
 1404              	.L90:
 1405              	.LBB27:
 505:C:/Users/stapi/OneDrive/Desktop/GD32VW553/V1_MQTT_OK/GD32VW55X_Wifi_BLE_SDK/GD32VW55x_RELEASE_V1.0.2/MSDK/ble/app\app_blue_courier_prot.c ****             dbg_print(NOTICE, "\r\n");
 1406              		.loc 1 505 17 is_stmt 0 discriminator 2
 1407 030e 094A     		li	s4,2
 1408 0310 B70A0000 		lui	s5,%hi(.LC15)
 1409              	.L91:
 1410              	.LVL127:
 504:C:/Users/stapi/OneDrive/Desktop/GD32VW553/V1_MQTT_OK/GD32VW55X_Wifi_BLE_SDK/GD32VW55x_RELEASE_V1.0.2/MSDK/ble/app\app_blue_courier_prot.c ****                 dbg_print(NOTICE, "%02x", data[i]);
 1411              		.loc 1 504 33 is_stmt 1 discriminator 2
 505:C:/Users/stapi/OneDrive/Desktop/GD32VW553/V1_MQTT_OK/GD32VW55X_Wifi_BLE_SDK/GD32VW55x_RELEASE_V1.0.2/MSDK/ble/app\app_blue_courier_prot.c ****             dbg_print(NOTICE, "\r\n");
 1412              		.loc 1 505 17 is_stmt 0 discriminator 2
 1413 0314 83C70900 		lbu	a5,%lo(global_debug_level)(s3)
 504:C:/Users/stapi/OneDrive/Desktop/GD32VW553/V1_MQTT_OK/GD32VW55X_Wifi_BLE_SDK/GD32VW55x_RELEASE_V1.0.2/MSDK/ble/app\app_blue_courier_prot.c ****                 dbg_print(NOTICE, "%02x", data[i]);
 1414              		.loc 1 504 13 discriminator 2
 1415 0318 636A9900 		bltu	s2,s1,.L93
 1416              	.LBE27:
 506:C:/Users/stapi/OneDrive/Desktop/GD32VW553/V1_MQTT_OK/GD32VW55X_Wifi_BLE_SDK/GD32VW55x_RELEASE_V1.0.2/MSDK/ble/app\app_blue_courier_prot.c ****             //bcwp_send_custom_data(data, len);
 1417              		.loc 1 506 13 is_stmt 1
 506:C:/Users/stapi/OneDrive/Desktop/GD32VW553/V1_MQTT_OK/GD32VW55X_Wifi_BLE_SDK/GD32VW55x_RELEASE_V1.0.2/MSDK/ble/app\app_blue_courier_prot.c ****             //bcwp_send_custom_data(data, len);
 1418              		.loc 1 506 13
 1419 031c 0947     		li	a4,2
 1420 031e E375F7E6 		bleu	a5,a4,.L66
 506:C:/Users/stapi/OneDrive/Desktop/GD32VW553/V1_MQTT_OK/GD32VW55X_Wifi_BLE_SDK/GD32VW55x_RELEASE_V1.0.2/MSDK/ble/app\app_blue_courier_prot.c ****             //bcwp_send_custom_data(data, len);
 1421              		.loc 1 506 13 discriminator 1
 1422 0322 37050000 		lui	a0,%hi(.LC16)
 1423 0326 13050500 		addi	a0,a0,%lo(.LC16)
 1424 032a 8DB3     		j	.L116
 1425              	.L93:
 1426              	.LBB28:
 505:C:/Users/stapi/OneDrive/Desktop/GD32VW553/V1_MQTT_OK/GD32VW55X_Wifi_BLE_SDK/GD32VW55x_RELEASE_V1.0.2/MSDK/ble/app\app_blue_courier_prot.c ****             dbg_print(NOTICE, "\r\n");
 1427              		.loc 1 505 17
 505:C:/Users/stapi/OneDrive/Desktop/GD32VW553/V1_MQTT_OK/GD32VW55X_Wifi_BLE_SDK/GD32VW55x_RELEASE_V1.0.2/MSDK/ble/app\app_blue_courier_prot.c ****             dbg_print(NOTICE, "\r\n");
 1428              		.loc 1 505 17
 1429 032c 637CFA00 		bleu	a5,s4,.L92
 505:C:/Users/stapi/OneDrive/Desktop/GD32VW553/V1_MQTT_OK/GD32VW55X_Wifi_BLE_SDK/GD32VW55x_RELEASE_V1.0.2/MSDK/ble/app\app_blue_courier_prot.c ****             dbg_print(NOTICE, "\r\n");
 1430              		.loc 1 505 17 discriminator 1
 1431 0330 B3072401 		add	a5,s0,s2
 1432 0334 83C50700 		lbu	a1,0(a5)
 1433 0338 13850A00 		addi	a0,s5,%lo(.LC15)
 1434 033c 97000000 		call	co_printf
 1434      E7800000 
 1435              	.LVL128:
 1436              	.L92:
 505:C:/Users/stapi/OneDrive/Desktop/GD32VW553/V1_MQTT_OK/GD32VW55X_Wifi_BLE_SDK/GD32VW55x_RELEASE_V1.0.2/MSDK/ble/app\app_blue_courier_prot.c ****             dbg_print(NOTICE, "\r\n");
 1437              		.loc 1 505 17 discriminator 3
 504:C:/Users/stapi/OneDrive/Desktop/GD32VW553/V1_MQTT_OK/GD32VW55X_Wifi_BLE_SDK/GD32VW55x_RELEASE_V1.0.2/MSDK/ble/app\app_blue_courier_prot.c ****                 dbg_print(NOTICE, "%02x", data[i]);
 1438              		.loc 1 504 42 discriminator 3
 504:C:/Users/stapi/OneDrive/Desktop/GD32VW553/V1_MQTT_OK/GD32VW55X_Wifi_BLE_SDK/GD32VW55x_RELEASE_V1.0.2/MSDK/ble/app\app_blue_courier_prot.c ****                 dbg_print(NOTICE, "%02x", data[i]);
 1439              		.loc 1 504 43 is_stmt 0 discriminator 3
 1440 0344 0509     		addi	s2,s2,1
 1441              	.LVL129:
 1442 0346 1379F90F 		andi	s2,s2,0xff
 1443              	.LVL130:
 1444 034a E9B7     		j	.L91
 1445              	.LVL131:
 1446              	.L112:
 1447              		.cfi_def_cfa_offset 0
 1448              		.cfi_restore 1
 1449              		.cfi_restore 8
 1450              		.cfi_restore 9
 1451              		.cfi_restore 18
 1452              		.cfi_restore 19
 1453              		.cfi_restore 20
 1454              		.cfi_restore 21
 1455 034c 8280     		ret
 1456              	.LBE28:
 1457              		.cfi_endproc
 1458              	.LFE27:
 1460              		.text
 1461              	.Letext0:
 1462              		.file 2 "c:\\users\\stapi\\onedrive\\desktop\\gd32vw553\\embeddedbuilder_v1.4.7.26843\\tools\\nucl
 1463              		.file 3 "c:\\users\\stapi\\onedrive\\desktop\\gd32vw553\\embeddedbuilder_v1.4.7.26843\\tools\\nucl
 1464              		.file 4 "C:/Users/stapi/OneDrive/Desktop/GD32VW553/V1_MQTT_OK/GD32VW55X_Wifi_BLE_SDK/GD32VW55x_REL
 1465              		.file 5 "..\\..\\..\\..\\macsw\\export/mac_types.h"
 1466              		.file 6 "..\\..\\..\\..\\lwip\\lwip-2.1.2\\src\\include/lwip/arch.h"
 1467              		.file 7 "..\\..\\..\\..\\lwip\\lwip-2.1.2\\src\\include/lwip/err.h"
 1468              		.file 8 "..\\..\\..\\..\\lwip\\lwip-2.1.2\\src\\include/lwip/pbuf.h"
 1469              		.file 9 "..\\..\\..\\..\\macsw\\export/macif_types.h"
 1470              		.file 10 "..\\..\\..\\..\\macsw\\export/macif_api.h"
 1471              		.file 11 "..\\..\\..\\..\\lwip\\lwip-2.1.2\\src\\include/lwip/ip4_addr.h"
 1472              		.file 12 "..\\..\\..\\..\\lwip\\lwip-2.1.2\\src\\include/lwip/ip_addr.h"
 1473              		.file 13 "..\\..\\..\\..\\lwip\\lwip-2.1.2\\src\\include/lwip/netif.h"
 1474              		.file 14 "..\\..\\..\\..\\wifi_manager/wifi_vif.h"
 1475              		.file 15 "..\\..\\..\\..\\wifi_manager/wifi_wpa.h"
 1476              		.file 16 "..\\..\\..\\..\\util\\include/dbg_print.h"
 1477              		.file 17 "..\\..\\..\\..\\wifi_manager/wifi_management.h"
 1478              		.file 18 "..\\..\\..\\..\\wifi_manager/wifi_net_ip.h"
 1479              		.file 19 "..\\..\\..\\..\\util\\include/debug_print.h"
 1480              		.file 20 "..\\..\\..\\..\\wifi_manager/wifi_eloop.h"
 1481              		.file 21 "..\\..\\..\\..\\blesw\\src\\export/ble_export.h"
 1482              		.file 22 "..\\..\\..\\..\\macsw\\import/rtos_import.h"
 1483              		.file 23 "..\\..\\..\\..\\macsw\\export/macif_vif.h"
 1484              		.file 24 "..\\..\\..\\..\\lwip\\lwip-2.1.2\\port/dhcpd.h"
 1485              		.file 25 "..\\..\\..\\..\\wifi_manager/wifi_netlink.h"
 1486              		.file 26 "<built-in>"