   1              		.file	"app_adv_mgr.c"
   2              		.option nopic
   3              		.attribute arch, "rv32i2p0_m2p0_a2p0_f2p0_c2p0_b_p0p94"
   4              		.attribute unaligned_access, 0
   5              		.attribute stack_align, 16
   6              		.text
   7              	.Ltext0:
   8              		.cfi_sections	.debug_frame
   9              		.section	.text.app_build_adv_data,"ax",@progbits
  10              		.align	1
  12              	app_build_adv_data:
  13              	.LFB4:
  14              		.file 1 "C:/Users/stapi/OneDrive/Desktop/GD32VW553/V1_MQTT_OK/GD32VW55X_Wifi_BLE_SDK/GD32VW55x_REL
   1:C:/Users/stapi/OneDrive/Desktop/GD32VW553/V1_MQTT_OK/GD32VW55X_Wifi_BLE_SDK/GD32VW55x_RELEASE_V1.0.2/MSDK/ble/app\app_adv_mgr.c **** /*!
   2:C:/Users/stapi/OneDrive/Desktop/GD32VW553/V1_MQTT_OK/GD32VW55X_Wifi_BLE_SDK/GD32VW55x_RELEASE_V1.0.2/MSDK/ble/app\app_adv_mgr.c ****     \file    app_adv_mgr.c
   3:C:/Users/stapi/OneDrive/Desktop/GD32VW553/V1_MQTT_OK/GD32VW55X_Wifi_BLE_SDK/GD32VW55x_RELEASE_V1.0.2/MSDK/ble/app\app_adv_mgr.c ****     \brief   Implementation of BLE application advertising manager to advertise.
   4:C:/Users/stapi/OneDrive/Desktop/GD32VW553/V1_MQTT_OK/GD32VW55X_Wifi_BLE_SDK/GD32VW55x_RELEASE_V1.0.2/MSDK/ble/app\app_adv_mgr.c **** 
   5:C:/Users/stapi/OneDrive/Desktop/GD32VW553/V1_MQTT_OK/GD32VW55X_Wifi_BLE_SDK/GD32VW55x_RELEASE_V1.0.2/MSDK/ble/app\app_adv_mgr.c ****     \version 2023-07-20, V1.0.0, firmware for GD32VW55x
   6:C:/Users/stapi/OneDrive/Desktop/GD32VW553/V1_MQTT_OK/GD32VW55X_Wifi_BLE_SDK/GD32VW55x_RELEASE_V1.0.2/MSDK/ble/app\app_adv_mgr.c **** */
   7:C:/Users/stapi/OneDrive/Desktop/GD32VW553/V1_MQTT_OK/GD32VW55X_Wifi_BLE_SDK/GD32VW55x_RELEASE_V1.0.2/MSDK/ble/app\app_adv_mgr.c **** 
   8:C:/Users/stapi/OneDrive/Desktop/GD32VW553/V1_MQTT_OK/GD32VW55X_Wifi_BLE_SDK/GD32VW55x_RELEASE_V1.0.2/MSDK/ble/app\app_adv_mgr.c **** /*
   9:C:/Users/stapi/OneDrive/Desktop/GD32VW553/V1_MQTT_OK/GD32VW55X_Wifi_BLE_SDK/GD32VW55x_RELEASE_V1.0.2/MSDK/ble/app\app_adv_mgr.c ****     Copyright (c) 2023, GigaDevice Semiconductor Inc.
  10:C:/Users/stapi/OneDrive/Desktop/GD32VW553/V1_MQTT_OK/GD32VW55X_Wifi_BLE_SDK/GD32VW55x_RELEASE_V1.0.2/MSDK/ble/app\app_adv_mgr.c **** 
  11:C:/Users/stapi/OneDrive/Desktop/GD32VW553/V1_MQTT_OK/GD32VW55X_Wifi_BLE_SDK/GD32VW55x_RELEASE_V1.0.2/MSDK/ble/app\app_adv_mgr.c ****     Redistribution and use in source and binary forms, with or without modification,
  12:C:/Users/stapi/OneDrive/Desktop/GD32VW553/V1_MQTT_OK/GD32VW55X_Wifi_BLE_SDK/GD32VW55x_RELEASE_V1.0.2/MSDK/ble/app\app_adv_mgr.c **** are permitted provided that the following conditions are met:
  13:C:/Users/stapi/OneDrive/Desktop/GD32VW553/V1_MQTT_OK/GD32VW55X_Wifi_BLE_SDK/GD32VW55x_RELEASE_V1.0.2/MSDK/ble/app\app_adv_mgr.c **** 
  14:C:/Users/stapi/OneDrive/Desktop/GD32VW553/V1_MQTT_OK/GD32VW55X_Wifi_BLE_SDK/GD32VW55x_RELEASE_V1.0.2/MSDK/ble/app\app_adv_mgr.c ****     1. Redistributions of source code must retain the above copyright notice, this
  15:C:/Users/stapi/OneDrive/Desktop/GD32VW553/V1_MQTT_OK/GD32VW55X_Wifi_BLE_SDK/GD32VW55x_RELEASE_V1.0.2/MSDK/ble/app\app_adv_mgr.c ****        list of conditions and the following disclaimer.
  16:C:/Users/stapi/OneDrive/Desktop/GD32VW553/V1_MQTT_OK/GD32VW55X_Wifi_BLE_SDK/GD32VW55x_RELEASE_V1.0.2/MSDK/ble/app\app_adv_mgr.c ****     2. Redistributions in binary form must reproduce the above copyright notice,
  17:C:/Users/stapi/OneDrive/Desktop/GD32VW553/V1_MQTT_OK/GD32VW55X_Wifi_BLE_SDK/GD32VW55x_RELEASE_V1.0.2/MSDK/ble/app\app_adv_mgr.c ****        this list of conditions and the following disclaimer in the documentation
  18:C:/Users/stapi/OneDrive/Desktop/GD32VW553/V1_MQTT_OK/GD32VW55X_Wifi_BLE_SDK/GD32VW55x_RELEASE_V1.0.2/MSDK/ble/app\app_adv_mgr.c ****        and/or other materials provided with the distribution.
  19:C:/Users/stapi/OneDrive/Desktop/GD32VW553/V1_MQTT_OK/GD32VW55X_Wifi_BLE_SDK/GD32VW55x_RELEASE_V1.0.2/MSDK/ble/app\app_adv_mgr.c ****     3. Neither the name of the copyright holder nor the names of its contributors
  20:C:/Users/stapi/OneDrive/Desktop/GD32VW553/V1_MQTT_OK/GD32VW55X_Wifi_BLE_SDK/GD32VW55x_RELEASE_V1.0.2/MSDK/ble/app\app_adv_mgr.c ****        may be used to endorse or promote products derived from this software without
  21:C:/Users/stapi/OneDrive/Desktop/GD32VW553/V1_MQTT_OK/GD32VW55X_Wifi_BLE_SDK/GD32VW55x_RELEASE_V1.0.2/MSDK/ble/app\app_adv_mgr.c ****        specific prior written permission.
  22:C:/Users/stapi/OneDrive/Desktop/GD32VW553/V1_MQTT_OK/GD32VW55X_Wifi_BLE_SDK/GD32VW55x_RELEASE_V1.0.2/MSDK/ble/app\app_adv_mgr.c **** 
  23:C:/Users/stapi/OneDrive/Desktop/GD32VW553/V1_MQTT_OK/GD32VW55X_Wifi_BLE_SDK/GD32VW55x_RELEASE_V1.0.2/MSDK/ble/app\app_adv_mgr.c ****     THIS SOFTWARE IS PROVIDED BY THE COPYRIGHT HOLDERS AND CONTRIBUTORS "AS IS"
  24:C:/Users/stapi/OneDrive/Desktop/GD32VW553/V1_MQTT_OK/GD32VW55X_Wifi_BLE_SDK/GD32VW55x_RELEASE_V1.0.2/MSDK/ble/app\app_adv_mgr.c **** AND ANY EXPRESS OR IMPLIED WARRANTIES, INCLUDING, BUT NOT LIMITED TO, THE IMPLIED
  25:C:/Users/stapi/OneDrive/Desktop/GD32VW553/V1_MQTT_OK/GD32VW55X_Wifi_BLE_SDK/GD32VW55x_RELEASE_V1.0.2/MSDK/ble/app\app_adv_mgr.c **** WARRANTIES OF MERCHANTABILITY AND FITNESS FOR A PARTICULAR PURPOSE ARE DISCLAIMED.
  26:C:/Users/stapi/OneDrive/Desktop/GD32VW553/V1_MQTT_OK/GD32VW55X_Wifi_BLE_SDK/GD32VW55x_RELEASE_V1.0.2/MSDK/ble/app\app_adv_mgr.c **** IN NO EVENT SHALL THE COPYRIGHT HOLDER OR CONTRIBUTORS BE LIABLE FOR ANY DIRECT,
  27:C:/Users/stapi/OneDrive/Desktop/GD32VW553/V1_MQTT_OK/GD32VW55X_Wifi_BLE_SDK/GD32VW55x_RELEASE_V1.0.2/MSDK/ble/app\app_adv_mgr.c **** INDIRECT, INCIDENTAL, SPECIAL, EXEMPLARY, OR CONSEQUENTIAL DAMAGES (INCLUDING, BUT
  28:C:/Users/stapi/OneDrive/Desktop/GD32VW553/V1_MQTT_OK/GD32VW55X_Wifi_BLE_SDK/GD32VW55x_RELEASE_V1.0.2/MSDK/ble/app\app_adv_mgr.c **** NOT LIMITED TO, PROCUREMENT OF SUBSTITUTE GOODS OR SERVICES; LOSS OF USE, DATA, OR
  29:C:/Users/stapi/OneDrive/Desktop/GD32VW553/V1_MQTT_OK/GD32VW55X_Wifi_BLE_SDK/GD32VW55x_RELEASE_V1.0.2/MSDK/ble/app\app_adv_mgr.c **** PROFITS; OR BUSINESS INTERRUPTION) HOWEVER CAUSED AND ON ANY THEORY OF LIABILITY,
  30:C:/Users/stapi/OneDrive/Desktop/GD32VW553/V1_MQTT_OK/GD32VW55X_Wifi_BLE_SDK/GD32VW55x_RELEASE_V1.0.2/MSDK/ble/app\app_adv_mgr.c **** WHETHER IN CONTRACT, STRICT LIABILITY, OR TORT (INCLUDING NEGLIGENCE OR OTHERWISE)
  31:C:/Users/stapi/OneDrive/Desktop/GD32VW553/V1_MQTT_OK/GD32VW55X_Wifi_BLE_SDK/GD32VW55x_RELEASE_V1.0.2/MSDK/ble/app\app_adv_mgr.c **** ARISING IN ANY WAY OUT OF THE USE OF THIS SOFTWARE, EVEN IF ADVISED OF THE POSSIBILITY
  32:C:/Users/stapi/OneDrive/Desktop/GD32VW553/V1_MQTT_OK/GD32VW55X_Wifi_BLE_SDK/GD32VW55x_RELEASE_V1.0.2/MSDK/ble/app\app_adv_mgr.c **** OF SUCH DAMAGE.
  33:C:/Users/stapi/OneDrive/Desktop/GD32VW553/V1_MQTT_OK/GD32VW55X_Wifi_BLE_SDK/GD32VW55x_RELEASE_V1.0.2/MSDK/ble/app\app_adv_mgr.c **** */
  34:C:/Users/stapi/OneDrive/Desktop/GD32VW553/V1_MQTT_OK/GD32VW55X_Wifi_BLE_SDK/GD32VW55x_RELEASE_V1.0.2/MSDK/ble/app\app_adv_mgr.c **** 
  35:C:/Users/stapi/OneDrive/Desktop/GD32VW553/V1_MQTT_OK/GD32VW55X_Wifi_BLE_SDK/GD32VW55x_RELEASE_V1.0.2/MSDK/ble/app\app_adv_mgr.c **** #include "ble_app_config.h"
  36:C:/Users/stapi/OneDrive/Desktop/GD32VW553/V1_MQTT_OK/GD32VW55X_Wifi_BLE_SDK/GD32VW55x_RELEASE_V1.0.2/MSDK/ble/app\app_adv_mgr.c **** 
  37:C:/Users/stapi/OneDrive/Desktop/GD32VW553/V1_MQTT_OK/GD32VW55X_Wifi_BLE_SDK/GD32VW55x_RELEASE_V1.0.2/MSDK/ble/app\app_adv_mgr.c **** #if (BLE_APP_SUPPORT && (BLE_CFG_ROLE & (BLE_CFG_ROLE_BROADCASTER | BLE_CFG_ROLE_PERIPHERAL)))
  38:C:/Users/stapi/OneDrive/Desktop/GD32VW553/V1_MQTT_OK/GD32VW55X_Wifi_BLE_SDK/GD32VW55x_RELEASE_V1.0.2/MSDK/ble/app\app_adv_mgr.c **** #include <string.h>
  39:C:/Users/stapi/OneDrive/Desktop/GD32VW553/V1_MQTT_OK/GD32VW55X_Wifi_BLE_SDK/GD32VW55x_RELEASE_V1.0.2/MSDK/ble/app\app_adv_mgr.c **** #include <stdlib.h>
  40:C:/Users/stapi/OneDrive/Desktop/GD32VW553/V1_MQTT_OK/GD32VW55X_Wifi_BLE_SDK/GD32VW55x_RELEASE_V1.0.2/MSDK/ble/app\app_adv_mgr.c **** #include "app_adv_mgr.h"
  41:C:/Users/stapi/OneDrive/Desktop/GD32VW553/V1_MQTT_OK/GD32VW55X_Wifi_BLE_SDK/GD32VW55x_RELEASE_V1.0.2/MSDK/ble/app\app_adv_mgr.c **** #include "app_adapter_mgr.h"
  42:C:/Users/stapi/OneDrive/Desktop/GD32VW553/V1_MQTT_OK/GD32VW55X_Wifi_BLE_SDK/GD32VW55x_RELEASE_V1.0.2/MSDK/ble/app\app_adv_mgr.c **** 
  43:C:/Users/stapi/OneDrive/Desktop/GD32VW553/V1_MQTT_OK/GD32VW55X_Wifi_BLE_SDK/GD32VW55x_RELEASE_V1.0.2/MSDK/ble/app\app_adv_mgr.c **** #include "ble_adv_data.h"
  44:C:/Users/stapi/OneDrive/Desktop/GD32VW553/V1_MQTT_OK/GD32VW55X_Wifi_BLE_SDK/GD32VW55x_RELEASE_V1.0.2/MSDK/ble/app\app_adv_mgr.c **** #include "ble_adv.h"
  45:C:/Users/stapi/OneDrive/Desktop/GD32VW553/V1_MQTT_OK/GD32VW55X_Wifi_BLE_SDK/GD32VW55x_RELEASE_V1.0.2/MSDK/ble/app\app_adv_mgr.c **** 
  46:C:/Users/stapi/OneDrive/Desktop/GD32VW553/V1_MQTT_OK/GD32VW55X_Wifi_BLE_SDK/GD32VW55x_RELEASE_V1.0.2/MSDK/ble/app\app_adv_mgr.c **** #include "wrapper_os.h"
  47:C:/Users/stapi/OneDrive/Desktop/GD32VW553/V1_MQTT_OK/GD32VW55X_Wifi_BLE_SDK/GD32VW55x_RELEASE_V1.0.2/MSDK/ble/app\app_adv_mgr.c **** #include "dbg_print.h"
  48:C:/Users/stapi/OneDrive/Desktop/GD32VW553/V1_MQTT_OK/GD32VW55X_Wifi_BLE_SDK/GD32VW55x_RELEASE_V1.0.2/MSDK/ble/app\app_adv_mgr.c **** 
  49:C:/Users/stapi/OneDrive/Desktop/GD32VW553/V1_MQTT_OK/GD32VW55X_Wifi_BLE_SDK/GD32VW55x_RELEASE_V1.0.2/MSDK/ble/app\app_adv_mgr.c **** /* Max advertising set number */
  50:C:/Users/stapi/OneDrive/Desktop/GD32VW553/V1_MQTT_OK/GD32VW55X_Wifi_BLE_SDK/GD32VW55x_RELEASE_V1.0.2/MSDK/ble/app\app_adv_mgr.c **** #define APP_ADV_SET_NUM         2
  51:C:/Users/stapi/OneDrive/Desktop/GD32VW553/V1_MQTT_OK/GD32VW55X_Wifi_BLE_SDK/GD32VW55x_RELEASE_V1.0.2/MSDK/ble/app\app_adv_mgr.c **** 
  52:C:/Users/stapi/OneDrive/Desktop/GD32VW553/V1_MQTT_OK/GD32VW55X_Wifi_BLE_SDK/GD32VW55x_RELEASE_V1.0.2/MSDK/ble/app\app_adv_mgr.c **** /* Invalid advertising index */
  53:C:/Users/stapi/OneDrive/Desktop/GD32VW553/V1_MQTT_OK/GD32VW55X_Wifi_BLE_SDK/GD32VW55x_RELEASE_V1.0.2/MSDK/ble/app\app_adv_mgr.c **** #define ADV_INVALID_IDX         (0xFF)
  54:C:/Users/stapi/OneDrive/Desktop/GD32VW553/V1_MQTT_OK/GD32VW55X_Wifi_BLE_SDK/GD32VW55x_RELEASE_V1.0.2/MSDK/ble/app\app_adv_mgr.c **** 
  55:C:/Users/stapi/OneDrive/Desktop/GD32VW553/V1_MQTT_OK/GD32VW55X_Wifi_BLE_SDK/GD32VW55x_RELEASE_V1.0.2/MSDK/ble/app\app_adv_mgr.c **** /* Advertising channel map */
  56:C:/Users/stapi/OneDrive/Desktop/GD32VW553/V1_MQTT_OK/GD32VW55X_Wifi_BLE_SDK/GD32VW55x_RELEASE_V1.0.2/MSDK/ble/app\app_adv_mgr.c **** #define APP_ADV_CHMAP           (0x07)
  57:C:/Users/stapi/OneDrive/Desktop/GD32VW553/V1_MQTT_OK/GD32VW55X_Wifi_BLE_SDK/GD32VW55x_RELEASE_V1.0.2/MSDK/ble/app\app_adv_mgr.c **** 
  58:C:/Users/stapi/OneDrive/Desktop/GD32VW553/V1_MQTT_OK/GD32VW55X_Wifi_BLE_SDK/GD32VW55x_RELEASE_V1.0.2/MSDK/ble/app\app_adv_mgr.c **** /* Minimum advertising interval - 100ms */
  59:C:/Users/stapi/OneDrive/Desktop/GD32VW553/V1_MQTT_OK/GD32VW55X_Wifi_BLE_SDK/GD32VW55x_RELEASE_V1.0.2/MSDK/ble/app\app_adv_mgr.c **** #define APP_ADV_INT_MIN         (160)
  60:C:/Users/stapi/OneDrive/Desktop/GD32VW553/V1_MQTT_OK/GD32VW55X_Wifi_BLE_SDK/GD32VW55x_RELEASE_V1.0.2/MSDK/ble/app\app_adv_mgr.c **** /* Maximum advertising interval - 100ms */
  61:C:/Users/stapi/OneDrive/Desktop/GD32VW553/V1_MQTT_OK/GD32VW55X_Wifi_BLE_SDK/GD32VW55x_RELEASE_V1.0.2/MSDK/ble/app\app_adv_mgr.c **** #define APP_ADV_INT_MAX         (160)
  62:C:/Users/stapi/OneDrive/Desktop/GD32VW553/V1_MQTT_OK/GD32VW55X_Wifi_BLE_SDK/GD32VW55x_RELEASE_V1.0.2/MSDK/ble/app\app_adv_mgr.c **** 
  63:C:/Users/stapi/OneDrive/Desktop/GD32VW553/V1_MQTT_OK/GD32VW55X_Wifi_BLE_SDK/GD32VW55x_RELEASE_V1.0.2/MSDK/ble/app\app_adv_mgr.c **** /* Advertising data used for test */
  64:C:/Users/stapi/OneDrive/Desktop/GD32VW553/V1_MQTT_OK/GD32VW55X_Wifi_BLE_SDK/GD32VW55x_RELEASE_V1.0.2/MSDK/ble/app\app_adv_mgr.c **** static uint8_t adv_data_1[7] = {0x06, 0x16, 0x52, 0x18, 0x18, 0x36, 0x9A};
  65:C:/Users/stapi/OneDrive/Desktop/GD32VW553/V1_MQTT_OK/GD32VW55X_Wifi_BLE_SDK/GD32VW55x_RELEASE_V1.0.2/MSDK/ble/app\app_adv_mgr.c **** 
  66:C:/Users/stapi/OneDrive/Desktop/GD32VW553/V1_MQTT_OK/GD32VW55X_Wifi_BLE_SDK/GD32VW55x_RELEASE_V1.0.2/MSDK/ble/app\app_adv_mgr.c **** /* Periodic advertising data used for test */
  67:C:/Users/stapi/OneDrive/Desktop/GD32VW553/V1_MQTT_OK/GD32VW55X_Wifi_BLE_SDK/GD32VW55x_RELEASE_V1.0.2/MSDK/ble/app\app_adv_mgr.c **** static uint8_t per_data_1[52] = {0x33, 0x16, 0x51, 0x18, 0x40, 0x9c, 0x00, 0x01, 0x02, 0x06,
  68:C:/Users/stapi/OneDrive/Desktop/GD32VW553/V1_MQTT_OK/GD32VW55X_Wifi_BLE_SDK/GD32VW55x_RELEASE_V1.0.2/MSDK/ble/app\app_adv_mgr.c ****                                  0x00, 0x00, 0x00, 0x00, 0x0d, 0x02, 0x01, 0x08, 0x02, 0x02,
  69:C:/Users/stapi/OneDrive/Desktop/GD32VW553/V1_MQTT_OK/GD32VW55X_Wifi_BLE_SDK/GD32VW55x_RELEASE_V1.0.2/MSDK/ble/app\app_adv_mgr.c ****                                  0x01, 0x03, 0x04, 0x78, 0x00, 0x02, 0x05, 0x01, 0x07, 0x03,
  70:C:/Users/stapi/OneDrive/Desktop/GD32VW553/V1_MQTT_OK/GD32VW55X_Wifi_BLE_SDK/GD32VW55x_RELEASE_V1.0.2/MSDK/ble/app\app_adv_mgr.c ****                                  0x02, 0x04, 0x00, 0x02, 0x04, 0x80, 0x01, 0x06, 0x05, 0x03,
  71:C:/Users/stapi/OneDrive/Desktop/GD32VW553/V1_MQTT_OK/GD32VW55X_Wifi_BLE_SDK/GD32VW55x_RELEASE_V1.0.2/MSDK/ble/app\app_adv_mgr.c ****                                  0x00, 0x04, 0x00, 0x00, 0x02, 0x06, 0x05, 0x03, 0x00, 0x08,
  72:C:/Users/stapi/OneDrive/Desktop/GD32VW553/V1_MQTT_OK/GD32VW55X_Wifi_BLE_SDK/GD32VW55x_RELEASE_V1.0.2/MSDK/ble/app\app_adv_mgr.c ****                                  0x00, 0x00
  73:C:/Users/stapi/OneDrive/Desktop/GD32VW553/V1_MQTT_OK/GD32VW55X_Wifi_BLE_SDK/GD32VW55x_RELEASE_V1.0.2/MSDK/ble/app\app_adv_mgr.c ****                                 };
  74:C:/Users/stapi/OneDrive/Desktop/GD32VW553/V1_MQTT_OK/GD32VW55X_Wifi_BLE_SDK/GD32VW55x_RELEASE_V1.0.2/MSDK/ble/app\app_adv_mgr.c **** 
  75:C:/Users/stapi/OneDrive/Desktop/GD32VW553/V1_MQTT_OK/GD32VW55X_Wifi_BLE_SDK/GD32VW55x_RELEASE_V1.0.2/MSDK/ble/app\app_adv_mgr.c **** /* Advertising data used for HOGP test */
  76:C:/Users/stapi/OneDrive/Desktop/GD32VW553/V1_MQTT_OK/GD32VW55X_Wifi_BLE_SDK/GD32VW55x_RELEASE_V1.0.2/MSDK/ble/app\app_adv_mgr.c **** static uint8_t adv_data_hogp[] = {0x03, 0x19, 0x80, 0x01, 0x03, 0x02, 0x12, 0x18};
  77:C:/Users/stapi/OneDrive/Desktop/GD32VW553/V1_MQTT_OK/GD32VW55X_Wifi_BLE_SDK/GD32VW55x_RELEASE_V1.0.2/MSDK/ble/app\app_adv_mgr.c **** 
  78:C:/Users/stapi/OneDrive/Desktop/GD32VW553/V1_MQTT_OK/GD32VW55X_Wifi_BLE_SDK/GD32VW55x_RELEASE_V1.0.2/MSDK/ble/app\app_adv_mgr.c **** /* Advertising data used for BQB test */
  79:C:/Users/stapi/OneDrive/Desktop/GD32VW553/V1_MQTT_OK/GD32VW55X_Wifi_BLE_SDK/GD32VW55x_RELEASE_V1.0.2/MSDK/ble/app\app_adv_mgr.c **** static uint8_t bqb_adv_data_1[25] = {
  80:C:/Users/stapi/OneDrive/Desktop/GD32VW553/V1_MQTT_OK/GD32VW55X_Wifi_BLE_SDK/GD32VW55x_RELEASE_V1.0.2/MSDK/ble/app\app_adv_mgr.c ****     0x03,
  81:C:/Users/stapi/OneDrive/Desktop/GD32VW553/V1_MQTT_OK/GD32VW55X_Wifi_BLE_SDK/GD32VW55x_RELEASE_V1.0.2/MSDK/ble/app\app_adv_mgr.c ****     BLE_AD_TYPE_SERVICE_UUID_16_COMPLETE,
  82:C:/Users/stapi/OneDrive/Desktop/GD32VW553/V1_MQTT_OK/GD32VW55X_Wifi_BLE_SDK/GD32VW55x_RELEASE_V1.0.2/MSDK/ble/app\app_adv_mgr.c ****     0x0A,
  83:C:/Users/stapi/OneDrive/Desktop/GD32VW553/V1_MQTT_OK/GD32VW55X_Wifi_BLE_SDK/GD32VW55x_RELEASE_V1.0.2/MSDK/ble/app\app_adv_mgr.c ****     0x18,
  84:C:/Users/stapi/OneDrive/Desktop/GD32VW553/V1_MQTT_OK/GD32VW55X_Wifi_BLE_SDK/GD32VW55x_RELEASE_V1.0.2/MSDK/ble/app\app_adv_mgr.c **** 
  85:C:/Users/stapi/OneDrive/Desktop/GD32VW553/V1_MQTT_OK/GD32VW55X_Wifi_BLE_SDK/GD32VW55x_RELEASE_V1.0.2/MSDK/ble/app\app_adv_mgr.c ****     0x02,
  86:C:/Users/stapi/OneDrive/Desktop/GD32VW553/V1_MQTT_OK/GD32VW55X_Wifi_BLE_SDK/GD32VW55x_RELEASE_V1.0.2/MSDK/ble/app\app_adv_mgr.c ****     BLE_AD_TYPE_TX_POWER_LEVEL,
  87:C:/Users/stapi/OneDrive/Desktop/GD32VW553/V1_MQTT_OK/GD32VW55X_Wifi_BLE_SDK/GD32VW55x_RELEASE_V1.0.2/MSDK/ble/app\app_adv_mgr.c ****     -60,
  88:C:/Users/stapi/OneDrive/Desktop/GD32VW553/V1_MQTT_OK/GD32VW55X_Wifi_BLE_SDK/GD32VW55x_RELEASE_V1.0.2/MSDK/ble/app\app_adv_mgr.c **** 
  89:C:/Users/stapi/OneDrive/Desktop/GD32VW553/V1_MQTT_OK/GD32VW55X_Wifi_BLE_SDK/GD32VW55x_RELEASE_V1.0.2/MSDK/ble/app\app_adv_mgr.c ****     0x03,
  90:C:/Users/stapi/OneDrive/Desktop/GD32VW553/V1_MQTT_OK/GD32VW55X_Wifi_BLE_SDK/GD32VW55x_RELEASE_V1.0.2/MSDK/ble/app\app_adv_mgr.c ****     BLE_AD_TYPE_ADVERTISING_INTERVAL,
  91:C:/Users/stapi/OneDrive/Desktop/GD32VW553/V1_MQTT_OK/GD32VW55X_Wifi_BLE_SDK/GD32VW55x_RELEASE_V1.0.2/MSDK/ble/app\app_adv_mgr.c ****     0xA0,
  92:C:/Users/stapi/OneDrive/Desktop/GD32VW553/V1_MQTT_OK/GD32VW55X_Wifi_BLE_SDK/GD32VW55x_RELEASE_V1.0.2/MSDK/ble/app\app_adv_mgr.c ****     0x00,
  93:C:/Users/stapi/OneDrive/Desktop/GD32VW553/V1_MQTT_OK/GD32VW55X_Wifi_BLE_SDK/GD32VW55x_RELEASE_V1.0.2/MSDK/ble/app\app_adv_mgr.c **** 
  94:C:/Users/stapi/OneDrive/Desktop/GD32VW553/V1_MQTT_OK/GD32VW55X_Wifi_BLE_SDK/GD32VW55x_RELEASE_V1.0.2/MSDK/ble/app\app_adv_mgr.c ****     0x03,
  95:C:/Users/stapi/OneDrive/Desktop/GD32VW553/V1_MQTT_OK/GD32VW55X_Wifi_BLE_SDK/GD32VW55x_RELEASE_V1.0.2/MSDK/ble/app\app_adv_mgr.c ****     BLE_AD_TYPE_SERVICE_DATA_UUID_16,
  96:C:/Users/stapi/OneDrive/Desktop/GD32VW553/V1_MQTT_OK/GD32VW55X_Wifi_BLE_SDK/GD32VW55x_RELEASE_V1.0.2/MSDK/ble/app\app_adv_mgr.c ****     0x01,
  97:C:/Users/stapi/OneDrive/Desktop/GD32VW553/V1_MQTT_OK/GD32VW55X_Wifi_BLE_SDK/GD32VW55x_RELEASE_V1.0.2/MSDK/ble/app\app_adv_mgr.c ****     0x02,
  98:C:/Users/stapi/OneDrive/Desktop/GD32VW553/V1_MQTT_OK/GD32VW55X_Wifi_BLE_SDK/GD32VW55x_RELEASE_V1.0.2/MSDK/ble/app\app_adv_mgr.c **** 
  99:C:/Users/stapi/OneDrive/Desktop/GD32VW553/V1_MQTT_OK/GD32VW55X_Wifi_BLE_SDK/GD32VW55x_RELEASE_V1.0.2/MSDK/ble/app\app_adv_mgr.c ****     0x05,
 100:C:/Users/stapi/OneDrive/Desktop/GD32VW553/V1_MQTT_OK/GD32VW55X_Wifi_BLE_SDK/GD32VW55x_RELEASE_V1.0.2/MSDK/ble/app\app_adv_mgr.c ****     BLE_AD_TYPE_SLAVE_CONNECTION_INTERVAL_RANGE,
 101:C:/Users/stapi/OneDrive/Desktop/GD32VW553/V1_MQTT_OK/GD32VW55X_Wifi_BLE_SDK/GD32VW55x_RELEASE_V1.0.2/MSDK/ble/app\app_adv_mgr.c ****     0x10,
 102:C:/Users/stapi/OneDrive/Desktop/GD32VW553/V1_MQTT_OK/GD32VW55X_Wifi_BLE_SDK/GD32VW55x_RELEASE_V1.0.2/MSDK/ble/app\app_adv_mgr.c ****     0x00,
 103:C:/Users/stapi/OneDrive/Desktop/GD32VW553/V1_MQTT_OK/GD32VW55X_Wifi_BLE_SDK/GD32VW55x_RELEASE_V1.0.2/MSDK/ble/app\app_adv_mgr.c ****     0x00,
 104:C:/Users/stapi/OneDrive/Desktop/GD32VW553/V1_MQTT_OK/GD32VW55X_Wifi_BLE_SDK/GD32VW55x_RELEASE_V1.0.2/MSDK/ble/app\app_adv_mgr.c ****     0x01,
 105:C:/Users/stapi/OneDrive/Desktop/GD32VW553/V1_MQTT_OK/GD32VW55X_Wifi_BLE_SDK/GD32VW55x_RELEASE_V1.0.2/MSDK/ble/app\app_adv_mgr.c **** 
 106:C:/Users/stapi/OneDrive/Desktop/GD32VW553/V1_MQTT_OK/GD32VW55X_Wifi_BLE_SDK/GD32VW55x_RELEASE_V1.0.2/MSDK/ble/app\app_adv_mgr.c ****     0x03,
 107:C:/Users/stapi/OneDrive/Desktop/GD32VW553/V1_MQTT_OK/GD32VW55X_Wifi_BLE_SDK/GD32VW55x_RELEASE_V1.0.2/MSDK/ble/app\app_adv_mgr.c ****     BLE_AD_TYPE_SOLICITED_SERVICE_UUID_16,
 108:C:/Users/stapi/OneDrive/Desktop/GD32VW553/V1_MQTT_OK/GD32VW55X_Wifi_BLE_SDK/GD32VW55x_RELEASE_V1.0.2/MSDK/ble/app\app_adv_mgr.c ****     0x0A,
 109:C:/Users/stapi/OneDrive/Desktop/GD32VW553/V1_MQTT_OK/GD32VW55X_Wifi_BLE_SDK/GD32VW55x_RELEASE_V1.0.2/MSDK/ble/app\app_adv_mgr.c ****     0x18,
 110:C:/Users/stapi/OneDrive/Desktop/GD32VW553/V1_MQTT_OK/GD32VW55X_Wifi_BLE_SDK/GD32VW55x_RELEASE_V1.0.2/MSDK/ble/app\app_adv_mgr.c **** };
 111:C:/Users/stapi/OneDrive/Desktop/GD32VW553/V1_MQTT_OK/GD32VW55X_Wifi_BLE_SDK/GD32VW55x_RELEASE_V1.0.2/MSDK/ble/app\app_adv_mgr.c **** 
 112:C:/Users/stapi/OneDrive/Desktop/GD32VW553/V1_MQTT_OK/GD32VW55X_Wifi_BLE_SDK/GD32VW55x_RELEASE_V1.0.2/MSDK/ble/app\app_adv_mgr.c **** /* Advertising data used for BQB test */
 113:C:/Users/stapi/OneDrive/Desktop/GD32VW553/V1_MQTT_OK/GD32VW55X_Wifi_BLE_SDK/GD32VW55x_RELEASE_V1.0.2/MSDK/ble/app\app_adv_mgr.c **** static uint8_t bqb_adv_data_2[24] = {
 114:C:/Users/stapi/OneDrive/Desktop/GD32VW553/V1_MQTT_OK/GD32VW55X_Wifi_BLE_SDK/GD32VW55x_RELEASE_V1.0.2/MSDK/ble/app\app_adv_mgr.c ****     0x05, 0x03, 0x00, 0x18, 0x01, 0x18,
 115:C:/Users/stapi/OneDrive/Desktop/GD32VW553/V1_MQTT_OK/GD32VW55X_Wifi_BLE_SDK/GD32VW55x_RELEASE_V1.0.2/MSDK/ble/app\app_adv_mgr.c ****     0x0D, 0x09, 0x50, 0x54, 0x53, 0x2D, 0x47, 0x41, 0x50, 0x2D, 0x30, 0x36, 0x42, 0x38,
 116:C:/Users/stapi/OneDrive/Desktop/GD32VW553/V1_MQTT_OK/GD32VW55X_Wifi_BLE_SDK/GD32VW55x_RELEASE_V1.0.2/MSDK/ble/app\app_adv_mgr.c ****     0x03, 0x19, 0x00, 0x00
 117:C:/Users/stapi/OneDrive/Desktop/GD32VW553/V1_MQTT_OK/GD32VW55X_Wifi_BLE_SDK/GD32VW55x_RELEASE_V1.0.2/MSDK/ble/app\app_adv_mgr.c **** };
 118:C:/Users/stapi/OneDrive/Desktop/GD32VW553/V1_MQTT_OK/GD32VW55X_Wifi_BLE_SDK/GD32VW55x_RELEASE_V1.0.2/MSDK/ble/app\app_adv_mgr.c **** 
 119:C:/Users/stapi/OneDrive/Desktop/GD32VW553/V1_MQTT_OK/GD32VW55X_Wifi_BLE_SDK/GD32VW55x_RELEASE_V1.0.2/MSDK/ble/app\app_adv_mgr.c **** /* Advertising data used for BQB test */
 120:C:/Users/stapi/OneDrive/Desktop/GD32VW553/V1_MQTT_OK/GD32VW55X_Wifi_BLE_SDK/GD32VW55x_RELEASE_V1.0.2/MSDK/ble/app\app_adv_mgr.c **** static uint8_t bqb_adv_data_3[22] = {
 121:C:/Users/stapi/OneDrive/Desktop/GD32VW553/V1_MQTT_OK/GD32VW55X_Wifi_BLE_SDK/GD32VW55x_RELEASE_V1.0.2/MSDK/ble/app\app_adv_mgr.c ****     0x07,
 122:C:/Users/stapi/OneDrive/Desktop/GD32VW553/V1_MQTT_OK/GD32VW55X_Wifi_BLE_SDK/GD32VW55x_RELEASE_V1.0.2/MSDK/ble/app\app_adv_mgr.c ****     BLE_AD_TYPE_PUBLIC_TARGET_ADDRESS,
 123:C:/Users/stapi/OneDrive/Desktop/GD32VW553/V1_MQTT_OK/GD32VW55X_Wifi_BLE_SDK/GD32VW55x_RELEASE_V1.0.2/MSDK/ble/app\app_adv_mgr.c ****     0x11,
 124:C:/Users/stapi/OneDrive/Desktop/GD32VW553/V1_MQTT_OK/GD32VW55X_Wifi_BLE_SDK/GD32VW55x_RELEASE_V1.0.2/MSDK/ble/app\app_adv_mgr.c ****     0x22,
 125:C:/Users/stapi/OneDrive/Desktop/GD32VW553/V1_MQTT_OK/GD32VW55X_Wifi_BLE_SDK/GD32VW55x_RELEASE_V1.0.2/MSDK/ble/app\app_adv_mgr.c ****     0x33,
 126:C:/Users/stapi/OneDrive/Desktop/GD32VW553/V1_MQTT_OK/GD32VW55X_Wifi_BLE_SDK/GD32VW55x_RELEASE_V1.0.2/MSDK/ble/app\app_adv_mgr.c ****     0x44,
 127:C:/Users/stapi/OneDrive/Desktop/GD32VW553/V1_MQTT_OK/GD32VW55X_Wifi_BLE_SDK/GD32VW55x_RELEASE_V1.0.2/MSDK/ble/app\app_adv_mgr.c ****     0x55,
 128:C:/Users/stapi/OneDrive/Desktop/GD32VW553/V1_MQTT_OK/GD32VW55X_Wifi_BLE_SDK/GD32VW55x_RELEASE_V1.0.2/MSDK/ble/app\app_adv_mgr.c ****     0x66,
 129:C:/Users/stapi/OneDrive/Desktop/GD32VW553/V1_MQTT_OK/GD32VW55X_Wifi_BLE_SDK/GD32VW55x_RELEASE_V1.0.2/MSDK/ble/app\app_adv_mgr.c **** 
 130:C:/Users/stapi/OneDrive/Desktop/GD32VW553/V1_MQTT_OK/GD32VW55X_Wifi_BLE_SDK/GD32VW55x_RELEASE_V1.0.2/MSDK/ble/app\app_adv_mgr.c ****     0x07,
 131:C:/Users/stapi/OneDrive/Desktop/GD32VW553/V1_MQTT_OK/GD32VW55X_Wifi_BLE_SDK/GD32VW55x_RELEASE_V1.0.2/MSDK/ble/app\app_adv_mgr.c ****     BLE_AD_TYPE_RANDOM_TARGET_ADDRESS,
 132:C:/Users/stapi/OneDrive/Desktop/GD32VW553/V1_MQTT_OK/GD32VW55X_Wifi_BLE_SDK/GD32VW55x_RELEASE_V1.0.2/MSDK/ble/app\app_adv_mgr.c ****     0x11,
 133:C:/Users/stapi/OneDrive/Desktop/GD32VW553/V1_MQTT_OK/GD32VW55X_Wifi_BLE_SDK/GD32VW55x_RELEASE_V1.0.2/MSDK/ble/app\app_adv_mgr.c ****     0x22,
 134:C:/Users/stapi/OneDrive/Desktop/GD32VW553/V1_MQTT_OK/GD32VW55X_Wifi_BLE_SDK/GD32VW55x_RELEASE_V1.0.2/MSDK/ble/app\app_adv_mgr.c ****     0x33,
 135:C:/Users/stapi/OneDrive/Desktop/GD32VW553/V1_MQTT_OK/GD32VW55X_Wifi_BLE_SDK/GD32VW55x_RELEASE_V1.0.2/MSDK/ble/app\app_adv_mgr.c ****     0x44,
 136:C:/Users/stapi/OneDrive/Desktop/GD32VW553/V1_MQTT_OK/GD32VW55X_Wifi_BLE_SDK/GD32VW55x_RELEASE_V1.0.2/MSDK/ble/app\app_adv_mgr.c ****     0x55,
 137:C:/Users/stapi/OneDrive/Desktop/GD32VW553/V1_MQTT_OK/GD32VW55X_Wifi_BLE_SDK/GD32VW55x_RELEASE_V1.0.2/MSDK/ble/app\app_adv_mgr.c ****     0x66,
 138:C:/Users/stapi/OneDrive/Desktop/GD32VW553/V1_MQTT_OK/GD32VW55X_Wifi_BLE_SDK/GD32VW55x_RELEASE_V1.0.2/MSDK/ble/app\app_adv_mgr.c **** 
 139:C:/Users/stapi/OneDrive/Desktop/GD32VW553/V1_MQTT_OK/GD32VW55X_Wifi_BLE_SDK/GD32VW55x_RELEASE_V1.0.2/MSDK/ble/app\app_adv_mgr.c ****     0x05,
 140:C:/Users/stapi/OneDrive/Desktop/GD32VW553/V1_MQTT_OK/GD32VW55X_Wifi_BLE_SDK/GD32VW55x_RELEASE_V1.0.2/MSDK/ble/app\app_adv_mgr.c ****     BLE_AD_TYPE_ADVERTISING_INTERVAL_LONG,
 141:C:/Users/stapi/OneDrive/Desktop/GD32VW553/V1_MQTT_OK/GD32VW55X_Wifi_BLE_SDK/GD32VW55x_RELEASE_V1.0.2/MSDK/ble/app\app_adv_mgr.c ****     0x00,
 142:C:/Users/stapi/OneDrive/Desktop/GD32VW553/V1_MQTT_OK/GD32VW55X_Wifi_BLE_SDK/GD32VW55x_RELEASE_V1.0.2/MSDK/ble/app\app_adv_mgr.c ****     0x00,
 143:C:/Users/stapi/OneDrive/Desktop/GD32VW553/V1_MQTT_OK/GD32VW55X_Wifi_BLE_SDK/GD32VW55x_RELEASE_V1.0.2/MSDK/ble/app\app_adv_mgr.c ****     0x11,
 144:C:/Users/stapi/OneDrive/Desktop/GD32VW553/V1_MQTT_OK/GD32VW55X_Wifi_BLE_SDK/GD32VW55x_RELEASE_V1.0.2/MSDK/ble/app\app_adv_mgr.c ****     0x00,
 145:C:/Users/stapi/OneDrive/Desktop/GD32VW553/V1_MQTT_OK/GD32VW55X_Wifi_BLE_SDK/GD32VW55x_RELEASE_V1.0.2/MSDK/ble/app\app_adv_mgr.c **** };
 146:C:/Users/stapi/OneDrive/Desktop/GD32VW553/V1_MQTT_OK/GD32VW55X_Wifi_BLE_SDK/GD32VW55x_RELEASE_V1.0.2/MSDK/ble/app\app_adv_mgr.c **** 
 147:C:/Users/stapi/OneDrive/Desktop/GD32VW553/V1_MQTT_OK/GD32VW55X_Wifi_BLE_SDK/GD32VW55x_RELEASE_V1.0.2/MSDK/ble/app\app_adv_mgr.c **** /* Advertising data used for BQB test */
 148:C:/Users/stapi/OneDrive/Desktop/GD32VW553/V1_MQTT_OK/GD32VW55X_Wifi_BLE_SDK/GD32VW55x_RELEASE_V1.0.2/MSDK/ble/app\app_adv_mgr.c **** static uint8_t bqb_adv_data_4[28] = {
 149:C:/Users/stapi/OneDrive/Desktop/GD32VW553/V1_MQTT_OK/GD32VW55X_Wifi_BLE_SDK/GD32VW55x_RELEASE_V1.0.2/MSDK/ble/app\app_adv_mgr.c ****     0x1B,
 150:C:/Users/stapi/OneDrive/Desktop/GD32VW553/V1_MQTT_OK/GD32VW55X_Wifi_BLE_SDK/GD32VW55x_RELEASE_V1.0.2/MSDK/ble/app\app_adv_mgr.c ****     BLE_AD_TYPE_URI,
 151:C:/Users/stapi/OneDrive/Desktop/GD32VW553/V1_MQTT_OK/GD32VW55X_Wifi_BLE_SDK/GD32VW55x_RELEASE_V1.0.2/MSDK/ble/app\app_adv_mgr.c ****     0x00,
 152:C:/Users/stapi/OneDrive/Desktop/GD32VW553/V1_MQTT_OK/GD32VW55X_Wifi_BLE_SDK/GD32VW55x_RELEASE_V1.0.2/MSDK/ble/app\app_adv_mgr.c ****     0x01,
 153:C:/Users/stapi/OneDrive/Desktop/GD32VW553/V1_MQTT_OK/GD32VW55X_Wifi_BLE_SDK/GD32VW55x_RELEASE_V1.0.2/MSDK/ble/app\app_adv_mgr.c ****     0x68,
 154:C:/Users/stapi/OneDrive/Desktop/GD32VW553/V1_MQTT_OK/GD32VW55X_Wifi_BLE_SDK/GD32VW55x_RELEASE_V1.0.2/MSDK/ble/app\app_adv_mgr.c ****     0x74,
 155:C:/Users/stapi/OneDrive/Desktop/GD32VW553/V1_MQTT_OK/GD32VW55X_Wifi_BLE_SDK/GD32VW55x_RELEASE_V1.0.2/MSDK/ble/app\app_adv_mgr.c ****     0x74,
 156:C:/Users/stapi/OneDrive/Desktop/GD32VW553/V1_MQTT_OK/GD32VW55X_Wifi_BLE_SDK/GD32VW55x_RELEASE_V1.0.2/MSDK/ble/app\app_adv_mgr.c ****     0x70,
 157:C:/Users/stapi/OneDrive/Desktop/GD32VW553/V1_MQTT_OK/GD32VW55X_Wifi_BLE_SDK/GD32VW55x_RELEASE_V1.0.2/MSDK/ble/app\app_adv_mgr.c ****     0x73,
 158:C:/Users/stapi/OneDrive/Desktop/GD32VW553/V1_MQTT_OK/GD32VW55X_Wifi_BLE_SDK/GD32VW55x_RELEASE_V1.0.2/MSDK/ble/app\app_adv_mgr.c ****     0x3A,
 159:C:/Users/stapi/OneDrive/Desktop/GD32VW553/V1_MQTT_OK/GD32VW55X_Wifi_BLE_SDK/GD32VW55x_RELEASE_V1.0.2/MSDK/ble/app\app_adv_mgr.c ****     0x2F,
 160:C:/Users/stapi/OneDrive/Desktop/GD32VW553/V1_MQTT_OK/GD32VW55X_Wifi_BLE_SDK/GD32VW55x_RELEASE_V1.0.2/MSDK/ble/app\app_adv_mgr.c ****     0x2F,
 161:C:/Users/stapi/OneDrive/Desktop/GD32VW553/V1_MQTT_OK/GD32VW55X_Wifi_BLE_SDK/GD32VW55x_RELEASE_V1.0.2/MSDK/ble/app\app_adv_mgr.c ****     0x77,
 162:C:/Users/stapi/OneDrive/Desktop/GD32VW553/V1_MQTT_OK/GD32VW55X_Wifi_BLE_SDK/GD32VW55x_RELEASE_V1.0.2/MSDK/ble/app\app_adv_mgr.c ****     0x77,
 163:C:/Users/stapi/OneDrive/Desktop/GD32VW553/V1_MQTT_OK/GD32VW55X_Wifi_BLE_SDK/GD32VW55x_RELEASE_V1.0.2/MSDK/ble/app\app_adv_mgr.c ****     0x77,
 164:C:/Users/stapi/OneDrive/Desktop/GD32VW553/V1_MQTT_OK/GD32VW55X_Wifi_BLE_SDK/GD32VW55x_RELEASE_V1.0.2/MSDK/ble/app\app_adv_mgr.c ****     0x2E,
 165:C:/Users/stapi/OneDrive/Desktop/GD32VW553/V1_MQTT_OK/GD32VW55X_Wifi_BLE_SDK/GD32VW55x_RELEASE_V1.0.2/MSDK/ble/app\app_adv_mgr.c ****     0x62,
 166:C:/Users/stapi/OneDrive/Desktop/GD32VW553/V1_MQTT_OK/GD32VW55X_Wifi_BLE_SDK/GD32VW55x_RELEASE_V1.0.2/MSDK/ble/app\app_adv_mgr.c ****     0x6C,
 167:C:/Users/stapi/OneDrive/Desktop/GD32VW553/V1_MQTT_OK/GD32VW55X_Wifi_BLE_SDK/GD32VW55x_RELEASE_V1.0.2/MSDK/ble/app\app_adv_mgr.c ****     0x75,
 168:C:/Users/stapi/OneDrive/Desktop/GD32VW553/V1_MQTT_OK/GD32VW55X_Wifi_BLE_SDK/GD32VW55x_RELEASE_V1.0.2/MSDK/ble/app\app_adv_mgr.c ****     0x65,
 169:C:/Users/stapi/OneDrive/Desktop/GD32VW553/V1_MQTT_OK/GD32VW55X_Wifi_BLE_SDK/GD32VW55x_RELEASE_V1.0.2/MSDK/ble/app\app_adv_mgr.c ****     0x74,
 170:C:/Users/stapi/OneDrive/Desktop/GD32VW553/V1_MQTT_OK/GD32VW55X_Wifi_BLE_SDK/GD32VW55x_RELEASE_V1.0.2/MSDK/ble/app\app_adv_mgr.c ****     0x6F,
 171:C:/Users/stapi/OneDrive/Desktop/GD32VW553/V1_MQTT_OK/GD32VW55X_Wifi_BLE_SDK/GD32VW55x_RELEASE_V1.0.2/MSDK/ble/app\app_adv_mgr.c ****     0x6F,
 172:C:/Users/stapi/OneDrive/Desktop/GD32VW553/V1_MQTT_OK/GD32VW55X_Wifi_BLE_SDK/GD32VW55x_RELEASE_V1.0.2/MSDK/ble/app\app_adv_mgr.c ****     0x74,
 173:C:/Users/stapi/OneDrive/Desktop/GD32VW553/V1_MQTT_OK/GD32VW55X_Wifi_BLE_SDK/GD32VW55x_RELEASE_V1.0.2/MSDK/ble/app\app_adv_mgr.c ****     0x2E,
 174:C:/Users/stapi/OneDrive/Desktop/GD32VW553/V1_MQTT_OK/GD32VW55X_Wifi_BLE_SDK/GD32VW55x_RELEASE_V1.0.2/MSDK/ble/app\app_adv_mgr.c ****     0x63,
 175:C:/Users/stapi/OneDrive/Desktop/GD32VW553/V1_MQTT_OK/GD32VW55X_Wifi_BLE_SDK/GD32VW55x_RELEASE_V1.0.2/MSDK/ble/app\app_adv_mgr.c ****     0x6F,
 176:C:/Users/stapi/OneDrive/Desktop/GD32VW553/V1_MQTT_OK/GD32VW55X_Wifi_BLE_SDK/GD32VW55x_RELEASE_V1.0.2/MSDK/ble/app\app_adv_mgr.c ****     0x6D
 177:C:/Users/stapi/OneDrive/Desktop/GD32VW553/V1_MQTT_OK/GD32VW55X_Wifi_BLE_SDK/GD32VW55x_RELEASE_V1.0.2/MSDK/ble/app\app_adv_mgr.c **** };
 178:C:/Users/stapi/OneDrive/Desktop/GD32VW553/V1_MQTT_OK/GD32VW55X_Wifi_BLE_SDK/GD32VW55x_RELEASE_V1.0.2/MSDK/ble/app\app_adv_mgr.c **** 
 179:C:/Users/stapi/OneDrive/Desktop/GD32VW553/V1_MQTT_OK/GD32VW55X_Wifi_BLE_SDK/GD32VW55x_RELEASE_V1.0.2/MSDK/ble/app\app_adv_mgr.c **** /* Scan response data used for BQB test */
 180:C:/Users/stapi/OneDrive/Desktop/GD32VW553/V1_MQTT_OK/GD32VW55X_Wifi_BLE_SDK/GD32VW55x_RELEASE_V1.0.2/MSDK/ble/app\app_adv_mgr.c **** static uint8_t bqb_scan_rsp_data_2[27] = {
 181:C:/Users/stapi/OneDrive/Desktop/GD32VW553/V1_MQTT_OK/GD32VW55X_Wifi_BLE_SDK/GD32VW55x_RELEASE_V1.0.2/MSDK/ble/app\app_adv_mgr.c ****     0x02, 0x01, 0x04,
 182:C:/Users/stapi/OneDrive/Desktop/GD32VW553/V1_MQTT_OK/GD32VW55X_Wifi_BLE_SDK/GD32VW55x_RELEASE_V1.0.2/MSDK/ble/app\app_adv_mgr.c ****     0x05, 0x03, 0x00, 0x18, 0x01, 0x18,
 183:C:/Users/stapi/OneDrive/Desktop/GD32VW553/V1_MQTT_OK/GD32VW55X_Wifi_BLE_SDK/GD32VW55x_RELEASE_V1.0.2/MSDK/ble/app\app_adv_mgr.c ****     0x0D, 0x09, 0x50, 0x54, 0x53, 0x2D, 0x47, 0x41, 0x50, 0x2D, 0x30, 0x36, 0x42, 0x38,
 184:C:/Users/stapi/OneDrive/Desktop/GD32VW553/V1_MQTT_OK/GD32VW55X_Wifi_BLE_SDK/GD32VW55x_RELEASE_V1.0.2/MSDK/ble/app\app_adv_mgr.c ****     0x03, 0x19, 0x00, 0x00
 185:C:/Users/stapi/OneDrive/Desktop/GD32VW553/V1_MQTT_OK/GD32VW55X_Wifi_BLE_SDK/GD32VW55x_RELEASE_V1.0.2/MSDK/ble/app\app_adv_mgr.c **** };
 186:C:/Users/stapi/OneDrive/Desktop/GD32VW553/V1_MQTT_OK/GD32VW55X_Wifi_BLE_SDK/GD32VW55x_RELEASE_V1.0.2/MSDK/ble/app\app_adv_mgr.c **** 
 187:C:/Users/stapi/OneDrive/Desktop/GD32VW553/V1_MQTT_OK/GD32VW55X_Wifi_BLE_SDK/GD32VW55x_RELEASE_V1.0.2/MSDK/ble/app\app_adv_mgr.c **** /* Periodic advertising data used for BQB test */
 188:C:/Users/stapi/OneDrive/Desktop/GD32VW553/V1_MQTT_OK/GD32VW55X_Wifi_BLE_SDK/GD32VW55x_RELEASE_V1.0.2/MSDK/ble/app\app_adv_mgr.c **** static uint8_t bqb_per_adv_data_2[27] = {
 189:C:/Users/stapi/OneDrive/Desktop/GD32VW553/V1_MQTT_OK/GD32VW55X_Wifi_BLE_SDK/GD32VW55x_RELEASE_V1.0.2/MSDK/ble/app\app_adv_mgr.c ****     0x02, 0x01, 0x04,
 190:C:/Users/stapi/OneDrive/Desktop/GD32VW553/V1_MQTT_OK/GD32VW55X_Wifi_BLE_SDK/GD32VW55x_RELEASE_V1.0.2/MSDK/ble/app\app_adv_mgr.c ****     0x05, 0x03, 0x00, 0x18, 0x01, 0x18,
 191:C:/Users/stapi/OneDrive/Desktop/GD32VW553/V1_MQTT_OK/GD32VW55X_Wifi_BLE_SDK/GD32VW55x_RELEASE_V1.0.2/MSDK/ble/app\app_adv_mgr.c ****     0x0D, 0x09, 0x50, 0x54, 0x53, 0x2D, 0x47, 0x41, 0x50, 0x2D, 0x30, 0x36, 0x42, 0x38,
 192:C:/Users/stapi/OneDrive/Desktop/GD32VW553/V1_MQTT_OK/GD32VW55X_Wifi_BLE_SDK/GD32VW55x_RELEASE_V1.0.2/MSDK/ble/app\app_adv_mgr.c ****     0x03, 0x19, 0x00, 0x00
 193:C:/Users/stapi/OneDrive/Desktop/GD32VW553/V1_MQTT_OK/GD32VW55X_Wifi_BLE_SDK/GD32VW55x_RELEASE_V1.0.2/MSDK/ble/app\app_adv_mgr.c **** };
 194:C:/Users/stapi/OneDrive/Desktop/GD32VW553/V1_MQTT_OK/GD32VW55X_Wifi_BLE_SDK/GD32VW55x_RELEASE_V1.0.2/MSDK/ble/app\app_adv_mgr.c **** 
 195:C:/Users/stapi/OneDrive/Desktop/GD32VW553/V1_MQTT_OK/GD32VW55X_Wifi_BLE_SDK/GD32VW55x_RELEASE_V1.0.2/MSDK/ble/app\app_adv_mgr.c **** /* Service data used to put into advertising data */
 196:C:/Users/stapi/OneDrive/Desktop/GD32VW553/V1_MQTT_OK/GD32VW55X_Wifi_BLE_SDK/GD32VW55x_RELEASE_V1.0.2/MSDK/ble/app\app_adv_mgr.c **** static uint8_t service_data[8] = {0x00, 0x11, 0x22, 0x33, 0x44, 0x55, 0x66, 0x77};
 197:C:/Users/stapi/OneDrive/Desktop/GD32VW553/V1_MQTT_OK/GD32VW55X_Wifi_BLE_SDK/GD32VW55x_RELEASE_V1.0.2/MSDK/ble/app\app_adv_mgr.c **** 
 198:C:/Users/stapi/OneDrive/Desktop/GD32VW553/V1_MQTT_OK/GD32VW55X_Wifi_BLE_SDK/GD32VW55x_RELEASE_V1.0.2/MSDK/ble/app\app_adv_mgr.c **** /* URL data used to put into advertising data */
 199:C:/Users/stapi/OneDrive/Desktop/GD32VW553/V1_MQTT_OK/GD32VW55X_Wifi_BLE_SDK/GD32VW55x_RELEASE_V1.0.2/MSDK/ble/app\app_adv_mgr.c **** static uint8_t url[25] = {
 200:C:/Users/stapi/OneDrive/Desktop/GD32VW553/V1_MQTT_OK/GD32VW55X_Wifi_BLE_SDK/GD32VW55x_RELEASE_V1.0.2/MSDK/ble/app\app_adv_mgr.c ****     0x68,
 201:C:/Users/stapi/OneDrive/Desktop/GD32VW553/V1_MQTT_OK/GD32VW55X_Wifi_BLE_SDK/GD32VW55x_RELEASE_V1.0.2/MSDK/ble/app\app_adv_mgr.c ****     0x74,
 202:C:/Users/stapi/OneDrive/Desktop/GD32VW553/V1_MQTT_OK/GD32VW55X_Wifi_BLE_SDK/GD32VW55x_RELEASE_V1.0.2/MSDK/ble/app\app_adv_mgr.c ****     0x74,
 203:C:/Users/stapi/OneDrive/Desktop/GD32VW553/V1_MQTT_OK/GD32VW55X_Wifi_BLE_SDK/GD32VW55x_RELEASE_V1.0.2/MSDK/ble/app\app_adv_mgr.c ****     0x70,
 204:C:/Users/stapi/OneDrive/Desktop/GD32VW553/V1_MQTT_OK/GD32VW55X_Wifi_BLE_SDK/GD32VW55x_RELEASE_V1.0.2/MSDK/ble/app\app_adv_mgr.c ****     0x73,
 205:C:/Users/stapi/OneDrive/Desktop/GD32VW553/V1_MQTT_OK/GD32VW55X_Wifi_BLE_SDK/GD32VW55x_RELEASE_V1.0.2/MSDK/ble/app\app_adv_mgr.c ****     0x3A,
 206:C:/Users/stapi/OneDrive/Desktop/GD32VW553/V1_MQTT_OK/GD32VW55X_Wifi_BLE_SDK/GD32VW55x_RELEASE_V1.0.2/MSDK/ble/app\app_adv_mgr.c ****     0x2F,
 207:C:/Users/stapi/OneDrive/Desktop/GD32VW553/V1_MQTT_OK/GD32VW55X_Wifi_BLE_SDK/GD32VW55x_RELEASE_V1.0.2/MSDK/ble/app\app_adv_mgr.c ****     0x2F,
 208:C:/Users/stapi/OneDrive/Desktop/GD32VW553/V1_MQTT_OK/GD32VW55X_Wifi_BLE_SDK/GD32VW55x_RELEASE_V1.0.2/MSDK/ble/app\app_adv_mgr.c ****     0x77,
 209:C:/Users/stapi/OneDrive/Desktop/GD32VW553/V1_MQTT_OK/GD32VW55X_Wifi_BLE_SDK/GD32VW55x_RELEASE_V1.0.2/MSDK/ble/app\app_adv_mgr.c ****     0x77,
 210:C:/Users/stapi/OneDrive/Desktop/GD32VW553/V1_MQTT_OK/GD32VW55X_Wifi_BLE_SDK/GD32VW55x_RELEASE_V1.0.2/MSDK/ble/app\app_adv_mgr.c ****     0x77,
 211:C:/Users/stapi/OneDrive/Desktop/GD32VW553/V1_MQTT_OK/GD32VW55X_Wifi_BLE_SDK/GD32VW55x_RELEASE_V1.0.2/MSDK/ble/app\app_adv_mgr.c ****     0x2E,
 212:C:/Users/stapi/OneDrive/Desktop/GD32VW553/V1_MQTT_OK/GD32VW55X_Wifi_BLE_SDK/GD32VW55x_RELEASE_V1.0.2/MSDK/ble/app\app_adv_mgr.c ****     0x62,
 213:C:/Users/stapi/OneDrive/Desktop/GD32VW553/V1_MQTT_OK/GD32VW55X_Wifi_BLE_SDK/GD32VW55x_RELEASE_V1.0.2/MSDK/ble/app\app_adv_mgr.c ****     0x6C,
 214:C:/Users/stapi/OneDrive/Desktop/GD32VW553/V1_MQTT_OK/GD32VW55X_Wifi_BLE_SDK/GD32VW55x_RELEASE_V1.0.2/MSDK/ble/app\app_adv_mgr.c ****     0x75,
 215:C:/Users/stapi/OneDrive/Desktop/GD32VW553/V1_MQTT_OK/GD32VW55X_Wifi_BLE_SDK/GD32VW55x_RELEASE_V1.0.2/MSDK/ble/app\app_adv_mgr.c ****     0x65,
 216:C:/Users/stapi/OneDrive/Desktop/GD32VW553/V1_MQTT_OK/GD32VW55X_Wifi_BLE_SDK/GD32VW55x_RELEASE_V1.0.2/MSDK/ble/app\app_adv_mgr.c ****     0x74,
 217:C:/Users/stapi/OneDrive/Desktop/GD32VW553/V1_MQTT_OK/GD32VW55X_Wifi_BLE_SDK/GD32VW55x_RELEASE_V1.0.2/MSDK/ble/app\app_adv_mgr.c ****     0x6F,
 218:C:/Users/stapi/OneDrive/Desktop/GD32VW553/V1_MQTT_OK/GD32VW55X_Wifi_BLE_SDK/GD32VW55x_RELEASE_V1.0.2/MSDK/ble/app\app_adv_mgr.c ****     0x6F,
 219:C:/Users/stapi/OneDrive/Desktop/GD32VW553/V1_MQTT_OK/GD32VW55X_Wifi_BLE_SDK/GD32VW55x_RELEASE_V1.0.2/MSDK/ble/app\app_adv_mgr.c ****     0x74,
 220:C:/Users/stapi/OneDrive/Desktop/GD32VW553/V1_MQTT_OK/GD32VW55X_Wifi_BLE_SDK/GD32VW55x_RELEASE_V1.0.2/MSDK/ble/app\app_adv_mgr.c ****     0x68,
 221:C:/Users/stapi/OneDrive/Desktop/GD32VW553/V1_MQTT_OK/GD32VW55X_Wifi_BLE_SDK/GD32VW55x_RELEASE_V1.0.2/MSDK/ble/app\app_adv_mgr.c ****     0x2E,
 222:C:/Users/stapi/OneDrive/Desktop/GD32VW553/V1_MQTT_OK/GD32VW55X_Wifi_BLE_SDK/GD32VW55x_RELEASE_V1.0.2/MSDK/ble/app\app_adv_mgr.c ****     0x63,
 223:C:/Users/stapi/OneDrive/Desktop/GD32VW553/V1_MQTT_OK/GD32VW55X_Wifi_BLE_SDK/GD32VW55x_RELEASE_V1.0.2/MSDK/ble/app\app_adv_mgr.c ****     0x6F,
 224:C:/Users/stapi/OneDrive/Desktop/GD32VW553/V1_MQTT_OK/GD32VW55X_Wifi_BLE_SDK/GD32VW55x_RELEASE_V1.0.2/MSDK/ble/app\app_adv_mgr.c ****     0x6D
 225:C:/Users/stapi/OneDrive/Desktop/GD32VW553/V1_MQTT_OK/GD32VW55X_Wifi_BLE_SDK/GD32VW55x_RELEASE_V1.0.2/MSDK/ble/app\app_adv_mgr.c **** };
 226:C:/Users/stapi/OneDrive/Desktop/GD32VW553/V1_MQTT_OK/GD32VW55X_Wifi_BLE_SDK/GD32VW55x_RELEASE_V1.0.2/MSDK/ble/app\app_adv_mgr.c **** 
 227:C:/Users/stapi/OneDrive/Desktop/GD32VW553/V1_MQTT_OK/GD32VW55X_Wifi_BLE_SDK/GD32VW55x_RELEASE_V1.0.2/MSDK/ble/app\app_adv_mgr.c **** /* APP advertising set information structure */
 228:C:/Users/stapi/OneDrive/Desktop/GD32VW553/V1_MQTT_OK/GD32VW55X_Wifi_BLE_SDK/GD32VW55x_RELEASE_V1.0.2/MSDK/ble/app\app_adv_mgr.c **** typedef struct
 229:C:/Users/stapi/OneDrive/Desktop/GD32VW553/V1_MQTT_OK/GD32VW55X_Wifi_BLE_SDK/GD32VW55x_RELEASE_V1.0.2/MSDK/ble/app\app_adv_mgr.c **** {
 230:C:/Users/stapi/OneDrive/Desktop/GD32VW553/V1_MQTT_OK/GD32VW55X_Wifi_BLE_SDK/GD32VW55x_RELEASE_V1.0.2/MSDK/ble/app\app_adv_mgr.c ****     uint8_t idx                 /*!< Advertising set index */;
 231:C:/Users/stapi/OneDrive/Desktop/GD32VW553/V1_MQTT_OK/GD32VW55X_Wifi_BLE_SDK/GD32VW55x_RELEASE_V1.0.2/MSDK/ble/app\app_adv_mgr.c ****     uint8_t type;               /*!< advertising type, @ref ble_gap_adv_type_t */
 232:C:/Users/stapi/OneDrive/Desktop/GD32VW553/V1_MQTT_OK/GD32VW55X_Wifi_BLE_SDK/GD32VW55x_RELEASE_V1.0.2/MSDK/ble/app\app_adv_mgr.c ****     uint16_t prop;              /*!< Advertising properties.
 233:C:/Users/stapi/OneDrive/Desktop/GD32VW553/V1_MQTT_OK/GD32VW55X_Wifi_BLE_SDK/GD32VW55x_RELEASE_V1.0.2/MSDK/ble/app\app_adv_mgr.c ****                                     @ref ble_gap_legacy_adv_prop_t for legacy advertising,
 234:C:/Users/stapi/OneDrive/Desktop/GD32VW553/V1_MQTT_OK/GD32VW55X_Wifi_BLE_SDK/GD32VW55x_RELEASE_V1.0.2/MSDK/ble/app\app_adv_mgr.c ****                                     @ref ble_gap_extended_adv_prop_t for extended advertising,
 235:C:/Users/stapi/OneDrive/Desktop/GD32VW553/V1_MQTT_OK/GD32VW55X_Wifi_BLE_SDK/GD32VW55x_RELEASE_V1.0.2/MSDK/ble/app\app_adv_mgr.c ****                                     @ref ble_gap_periodic_adv_prop_t for periodic advertising */
 236:C:/Users/stapi/OneDrive/Desktop/GD32VW553/V1_MQTT_OK/GD32VW55X_Wifi_BLE_SDK/GD32VW55x_RELEASE_V1.0.2/MSDK/ble/app\app_adv_mgr.c ****     uint8_t pri_phy;            /*!< Indicate on which PHY primary advertising has to be performed,
 237:C:/Users/stapi/OneDrive/Desktop/GD32VW553/V1_MQTT_OK/GD32VW55X_Wifi_BLE_SDK/GD32VW55x_RELEASE_V1.0.2/MSDK/ble/app\app_adv_mgr.c ****     uint8_t sec_phy;            /*!< Indicate on which PHY secondary advertising has to be performe
 238:C:/Users/stapi/OneDrive/Desktop/GD32VW553/V1_MQTT_OK/GD32VW55X_Wifi_BLE_SDK/GD32VW55x_RELEASE_V1.0.2/MSDK/ble/app\app_adv_mgr.c ****     bool wl_enable;             /*!< True to use whitelist, otherwise do not use */
 239:C:/Users/stapi/OneDrive/Desktop/GD32VW553/V1_MQTT_OK/GD32VW55X_Wifi_BLE_SDK/GD32VW55x_RELEASE_V1.0.2/MSDK/ble/app\app_adv_mgr.c ****     uint8_t own_addr_type;      /*!< Own address type used in advertising, @ref ble_gap_local_addr_
 240:C:/Users/stapi/OneDrive/Desktop/GD32VW553/V1_MQTT_OK/GD32VW55X_Wifi_BLE_SDK/GD32VW55x_RELEASE_V1.0.2/MSDK/ble/app\app_adv_mgr.c ****     uint8_t disc_mode;          /*!< Discovery mode, @ref ble_gap_adv_discovery_mode_t */
 241:C:/Users/stapi/OneDrive/Desktop/GD32VW553/V1_MQTT_OK/GD32VW55X_Wifi_BLE_SDK/GD32VW55x_RELEASE_V1.0.2/MSDK/ble/app\app_adv_mgr.c ****     uint16_t max_data_len;      /*!< Max advertising data length */
 242:C:/Users/stapi/OneDrive/Desktop/GD32VW553/V1_MQTT_OK/GD32VW55X_Wifi_BLE_SDK/GD32VW55x_RELEASE_V1.0.2/MSDK/ble/app\app_adv_mgr.c ****     bool remove_after_stop;     /*!< True to remove advertising set after stopped */
 243:C:/Users/stapi/OneDrive/Desktop/GD32VW553/V1_MQTT_OK/GD32VW55X_Wifi_BLE_SDK/GD32VW55x_RELEASE_V1.0.2/MSDK/ble/app\app_adv_mgr.c ****     ble_gap_addr_t peer_addr;   /*!< Peer address, used for directed advertising */
 244:C:/Users/stapi/OneDrive/Desktop/GD32VW553/V1_MQTT_OK/GD32VW55X_Wifi_BLE_SDK/GD32VW55x_RELEASE_V1.0.2/MSDK/ble/app\app_adv_mgr.c ****     ble_adv_state_t state;      /*!< Advertising state */
 245:C:/Users/stapi/OneDrive/Desktop/GD32VW553/V1_MQTT_OK/GD32VW55X_Wifi_BLE_SDK/GD32VW55x_RELEASE_V1.0.2/MSDK/ble/app\app_adv_mgr.c **** } app_adv_set_t;
 246:C:/Users/stapi/OneDrive/Desktop/GD32VW553/V1_MQTT_OK/GD32VW55X_Wifi_BLE_SDK/GD32VW55x_RELEASE_V1.0.2/MSDK/ble/app\app_adv_mgr.c **** 
 247:C:/Users/stapi/OneDrive/Desktop/GD32VW553/V1_MQTT_OK/GD32VW55X_Wifi_BLE_SDK/GD32VW55x_RELEASE_V1.0.2/MSDK/ble/app\app_adv_mgr.c **** /* APP advertising environment structure */
 248:C:/Users/stapi/OneDrive/Desktop/GD32VW553/V1_MQTT_OK/GD32VW55X_Wifi_BLE_SDK/GD32VW55x_RELEASE_V1.0.2/MSDK/ble/app\app_adv_mgr.c **** typedef struct
 249:C:/Users/stapi/OneDrive/Desktop/GD32VW553/V1_MQTT_OK/GD32VW55X_Wifi_BLE_SDK/GD32VW55x_RELEASE_V1.0.2/MSDK/ble/app\app_adv_mgr.c **** {
 250:C:/Users/stapi/OneDrive/Desktop/GD32VW553/V1_MQTT_OK/GD32VW55X_Wifi_BLE_SDK/GD32VW55x_RELEASE_V1.0.2/MSDK/ble/app\app_adv_mgr.c ****     uint8_t adv_sid;                            /*!< Advertising SID */
 251:C:/Users/stapi/OneDrive/Desktop/GD32VW553/V1_MQTT_OK/GD32VW55X_Wifi_BLE_SDK/GD32VW55x_RELEASE_V1.0.2/MSDK/ble/app\app_adv_mgr.c ****     uint8_t adv_data_type;                      /* advertising data type. 0: app generate, 1: fix d
 252:C:/Users/stapi/OneDrive/Desktop/GD32VW553/V1_MQTT_OK/GD32VW55X_Wifi_BLE_SDK/GD32VW55x_RELEASE_V1.0.2/MSDK/ble/app\app_adv_mgr.c ****                                                    3,4,5,6: fix adv data for GAP bqb test, others: 
 253:C:/Users/stapi/OneDrive/Desktop/GD32VW553/V1_MQTT_OK/GD32VW55X_Wifi_BLE_SDK/GD32VW55x_RELEASE_V1.0.2/MSDK/ble/app\app_adv_mgr.c ****     app_adv_set_t adv_set[APP_ADV_SET_NUM];     /*!< Advertising set information */
 254:C:/Users/stapi/OneDrive/Desktop/GD32VW553/V1_MQTT_OK/GD32VW55X_Wifi_BLE_SDK/GD32VW55x_RELEASE_V1.0.2/MSDK/ble/app\app_adv_mgr.c **** } app_adv_env_t;
 255:C:/Users/stapi/OneDrive/Desktop/GD32VW553/V1_MQTT_OK/GD32VW55X_Wifi_BLE_SDK/GD32VW55x_RELEASE_V1.0.2/MSDK/ble/app\app_adv_mgr.c **** 
 256:C:/Users/stapi/OneDrive/Desktop/GD32VW553/V1_MQTT_OK/GD32VW55X_Wifi_BLE_SDK/GD32VW55x_RELEASE_V1.0.2/MSDK/ble/app\app_adv_mgr.c **** /* APP advertising environment data */
 257:C:/Users/stapi/OneDrive/Desktop/GD32VW553/V1_MQTT_OK/GD32VW55X_Wifi_BLE_SDK/GD32VW55x_RELEASE_V1.0.2/MSDK/ble/app\app_adv_mgr.c **** static app_adv_env_t app_adv_env;
 258:C:/Users/stapi/OneDrive/Desktop/GD32VW553/V1_MQTT_OK/GD32VW55X_Wifi_BLE_SDK/GD32VW55x_RELEASE_V1.0.2/MSDK/ble/app\app_adv_mgr.c **** 
 259:C:/Users/stapi/OneDrive/Desktop/GD32VW553/V1_MQTT_OK/GD32VW55X_Wifi_BLE_SDK/GD32VW55x_RELEASE_V1.0.2/MSDK/ble/app\app_adv_mgr.c **** /*!
 260:C:/Users/stapi/OneDrive/Desktop/GD32VW553/V1_MQTT_OK/GD32VW55X_Wifi_BLE_SDK/GD32VW55x_RELEASE_V1.0.2/MSDK/ble/app\app_adv_mgr.c ****     \brief      Get free advertising set
 261:C:/Users/stapi/OneDrive/Desktop/GD32VW553/V1_MQTT_OK/GD32VW55X_Wifi_BLE_SDK/GD32VW55x_RELEASE_V1.0.2/MSDK/ble/app\app_adv_mgr.c ****     \param[in]  none
 262:C:/Users/stapi/OneDrive/Desktop/GD32VW553/V1_MQTT_OK/GD32VW55X_Wifi_BLE_SDK/GD32VW55x_RELEASE_V1.0.2/MSDK/ble/app\app_adv_mgr.c ****     \param[out] none
 263:C:/Users/stapi/OneDrive/Desktop/GD32VW553/V1_MQTT_OK/GD32VW55X_Wifi_BLE_SDK/GD32VW55x_RELEASE_V1.0.2/MSDK/ble/app\app_adv_mgr.c ****     \retval     app_adv_set_t *: pointer to available BLE advertising set
 264:C:/Users/stapi/OneDrive/Desktop/GD32VW553/V1_MQTT_OK/GD32VW55X_Wifi_BLE_SDK/GD32VW55x_RELEASE_V1.0.2/MSDK/ble/app\app_adv_mgr.c **** */
 265:C:/Users/stapi/OneDrive/Desktop/GD32VW553/V1_MQTT_OK/GD32VW55X_Wifi_BLE_SDK/GD32VW55x_RELEASE_V1.0.2/MSDK/ble/app\app_adv_mgr.c **** static app_adv_set_t *app_get_free_adv(void)
 266:C:/Users/stapi/OneDrive/Desktop/GD32VW553/V1_MQTT_OK/GD32VW55X_Wifi_BLE_SDK/GD32VW55x_RELEASE_V1.0.2/MSDK/ble/app\app_adv_mgr.c **** {
 267:C:/Users/stapi/OneDrive/Desktop/GD32VW553/V1_MQTT_OK/GD32VW55X_Wifi_BLE_SDK/GD32VW55x_RELEASE_V1.0.2/MSDK/ble/app\app_adv_mgr.c ****     uint8_t i;
 268:C:/Users/stapi/OneDrive/Desktop/GD32VW553/V1_MQTT_OK/GD32VW55X_Wifi_BLE_SDK/GD32VW55x_RELEASE_V1.0.2/MSDK/ble/app\app_adv_mgr.c **** 
 269:C:/Users/stapi/OneDrive/Desktop/GD32VW553/V1_MQTT_OK/GD32VW55X_Wifi_BLE_SDK/GD32VW55x_RELEASE_V1.0.2/MSDK/ble/app\app_adv_mgr.c ****     for (i = 0; i < APP_ADV_SET_NUM; i++) {
 270:C:/Users/stapi/OneDrive/Desktop/GD32VW553/V1_MQTT_OK/GD32VW55X_Wifi_BLE_SDK/GD32VW55x_RELEASE_V1.0.2/MSDK/ble/app\app_adv_mgr.c ****         if (app_adv_env.adv_set[i].idx == ADV_INVALID_IDX) {
 271:C:/Users/stapi/OneDrive/Desktop/GD32VW553/V1_MQTT_OK/GD32VW55X_Wifi_BLE_SDK/GD32VW55x_RELEASE_V1.0.2/MSDK/ble/app\app_adv_mgr.c ****             return &app_adv_env.adv_set[i];
 272:C:/Users/stapi/OneDrive/Desktop/GD32VW553/V1_MQTT_OK/GD32VW55X_Wifi_BLE_SDK/GD32VW55x_RELEASE_V1.0.2/MSDK/ble/app\app_adv_mgr.c ****         }
 273:C:/Users/stapi/OneDrive/Desktop/GD32VW553/V1_MQTT_OK/GD32VW55X_Wifi_BLE_SDK/GD32VW55x_RELEASE_V1.0.2/MSDK/ble/app\app_adv_mgr.c ****     }
 274:C:/Users/stapi/OneDrive/Desktop/GD32VW553/V1_MQTT_OK/GD32VW55X_Wifi_BLE_SDK/GD32VW55x_RELEASE_V1.0.2/MSDK/ble/app\app_adv_mgr.c **** 
 275:C:/Users/stapi/OneDrive/Desktop/GD32VW553/V1_MQTT_OK/GD32VW55X_Wifi_BLE_SDK/GD32VW55x_RELEASE_V1.0.2/MSDK/ble/app\app_adv_mgr.c ****     return NULL;
 276:C:/Users/stapi/OneDrive/Desktop/GD32VW553/V1_MQTT_OK/GD32VW55X_Wifi_BLE_SDK/GD32VW55x_RELEASE_V1.0.2/MSDK/ble/app\app_adv_mgr.c **** }
 277:C:/Users/stapi/OneDrive/Desktop/GD32VW553/V1_MQTT_OK/GD32VW55X_Wifi_BLE_SDK/GD32VW55x_RELEASE_V1.0.2/MSDK/ble/app\app_adv_mgr.c **** 
 278:C:/Users/stapi/OneDrive/Desktop/GD32VW553/V1_MQTT_OK/GD32VW55X_Wifi_BLE_SDK/GD32VW55x_RELEASE_V1.0.2/MSDK/ble/app\app_adv_mgr.c **** /*!
 279:C:/Users/stapi/OneDrive/Desktop/GD32VW553/V1_MQTT_OK/GD32VW55X_Wifi_BLE_SDK/GD32VW55x_RELEASE_V1.0.2/MSDK/ble/app\app_adv_mgr.c ****     \brief      Free advertising set
 280:C:/Users/stapi/OneDrive/Desktop/GD32VW553/V1_MQTT_OK/GD32VW55X_Wifi_BLE_SDK/GD32VW55x_RELEASE_V1.0.2/MSDK/ble/app\app_adv_mgr.c ****     \param[in]  p_adv: pointer to BLE advertising set
 281:C:/Users/stapi/OneDrive/Desktop/GD32VW553/V1_MQTT_OK/GD32VW55X_Wifi_BLE_SDK/GD32VW55x_RELEASE_V1.0.2/MSDK/ble/app\app_adv_mgr.c ****     \param[out] none
 282:C:/Users/stapi/OneDrive/Desktop/GD32VW553/V1_MQTT_OK/GD32VW55X_Wifi_BLE_SDK/GD32VW55x_RELEASE_V1.0.2/MSDK/ble/app\app_adv_mgr.c ****     \retval     none
 283:C:/Users/stapi/OneDrive/Desktop/GD32VW553/V1_MQTT_OK/GD32VW55X_Wifi_BLE_SDK/GD32VW55x_RELEASE_V1.0.2/MSDK/ble/app\app_adv_mgr.c **** */
 284:C:/Users/stapi/OneDrive/Desktop/GD32VW553/V1_MQTT_OK/GD32VW55X_Wifi_BLE_SDK/GD32VW55x_RELEASE_V1.0.2/MSDK/ble/app\app_adv_mgr.c **** static void app_free_adv_set(app_adv_set_t *p_adv)
 285:C:/Users/stapi/OneDrive/Desktop/GD32VW553/V1_MQTT_OK/GD32VW55X_Wifi_BLE_SDK/GD32VW55x_RELEASE_V1.0.2/MSDK/ble/app\app_adv_mgr.c **** {
 286:C:/Users/stapi/OneDrive/Desktop/GD32VW553/V1_MQTT_OK/GD32VW55X_Wifi_BLE_SDK/GD32VW55x_RELEASE_V1.0.2/MSDK/ble/app\app_adv_mgr.c ****     p_adv->idx = ADV_INVALID_IDX;
 287:C:/Users/stapi/OneDrive/Desktop/GD32VW553/V1_MQTT_OK/GD32VW55X_Wifi_BLE_SDK/GD32VW55x_RELEASE_V1.0.2/MSDK/ble/app\app_adv_mgr.c ****     p_adv->state = BLE_ADV_STATE_IDLE;
 288:C:/Users/stapi/OneDrive/Desktop/GD32VW553/V1_MQTT_OK/GD32VW55X_Wifi_BLE_SDK/GD32VW55x_RELEASE_V1.0.2/MSDK/ble/app\app_adv_mgr.c **** }
 289:C:/Users/stapi/OneDrive/Desktop/GD32VW553/V1_MQTT_OK/GD32VW55X_Wifi_BLE_SDK/GD32VW55x_RELEASE_V1.0.2/MSDK/ble/app\app_adv_mgr.c **** 
 290:C:/Users/stapi/OneDrive/Desktop/GD32VW553/V1_MQTT_OK/GD32VW55X_Wifi_BLE_SDK/GD32VW55x_RELEASE_V1.0.2/MSDK/ble/app\app_adv_mgr.c **** /*!
 291:C:/Users/stapi/OneDrive/Desktop/GD32VW553/V1_MQTT_OK/GD32VW55X_Wifi_BLE_SDK/GD32VW55x_RELEASE_V1.0.2/MSDK/ble/app\app_adv_mgr.c ****     \brief      Get available advertising set ID to be used
 292:C:/Users/stapi/OneDrive/Desktop/GD32VW553/V1_MQTT_OK/GD32VW55X_Wifi_BLE_SDK/GD32VW55x_RELEASE_V1.0.2/MSDK/ble/app\app_adv_mgr.c ****     \param[in]  none
 293:C:/Users/stapi/OneDrive/Desktop/GD32VW553/V1_MQTT_OK/GD32VW55X_Wifi_BLE_SDK/GD32VW55x_RELEASE_V1.0.2/MSDK/ble/app\app_adv_mgr.c ****     \param[out] none
 294:C:/Users/stapi/OneDrive/Desktop/GD32VW553/V1_MQTT_OK/GD32VW55X_Wifi_BLE_SDK/GD32VW55x_RELEASE_V1.0.2/MSDK/ble/app\app_adv_mgr.c ****     \retval     uint8_t: advertising set ID value
 295:C:/Users/stapi/OneDrive/Desktop/GD32VW553/V1_MQTT_OK/GD32VW55X_Wifi_BLE_SDK/GD32VW55x_RELEASE_V1.0.2/MSDK/ble/app\app_adv_mgr.c **** */
 296:C:/Users/stapi/OneDrive/Desktop/GD32VW553/V1_MQTT_OK/GD32VW55X_Wifi_BLE_SDK/GD32VW55x_RELEASE_V1.0.2/MSDK/ble/app\app_adv_mgr.c **** static uint8_t app_get_adv_sid(void)
 297:C:/Users/stapi/OneDrive/Desktop/GD32VW553/V1_MQTT_OK/GD32VW55X_Wifi_BLE_SDK/GD32VW55x_RELEASE_V1.0.2/MSDK/ble/app\app_adv_mgr.c **** {
 298:C:/Users/stapi/OneDrive/Desktop/GD32VW553/V1_MQTT_OK/GD32VW55X_Wifi_BLE_SDK/GD32VW55x_RELEASE_V1.0.2/MSDK/ble/app\app_adv_mgr.c ****     app_adv_env.adv_sid++;
 299:C:/Users/stapi/OneDrive/Desktop/GD32VW553/V1_MQTT_OK/GD32VW55X_Wifi_BLE_SDK/GD32VW55x_RELEASE_V1.0.2/MSDK/ble/app\app_adv_mgr.c **** 
 300:C:/Users/stapi/OneDrive/Desktop/GD32VW553/V1_MQTT_OK/GD32VW55X_Wifi_BLE_SDK/GD32VW55x_RELEASE_V1.0.2/MSDK/ble/app\app_adv_mgr.c ****     if (app_adv_env.adv_sid > 0x0F) {
 301:C:/Users/stapi/OneDrive/Desktop/GD32VW553/V1_MQTT_OK/GD32VW55X_Wifi_BLE_SDK/GD32VW55x_RELEASE_V1.0.2/MSDK/ble/app\app_adv_mgr.c ****         app_adv_env.adv_sid = 0x00;
 302:C:/Users/stapi/OneDrive/Desktop/GD32VW553/V1_MQTT_OK/GD32VW55X_Wifi_BLE_SDK/GD32VW55x_RELEASE_V1.0.2/MSDK/ble/app\app_adv_mgr.c ****     }
 303:C:/Users/stapi/OneDrive/Desktop/GD32VW553/V1_MQTT_OK/GD32VW55X_Wifi_BLE_SDK/GD32VW55x_RELEASE_V1.0.2/MSDK/ble/app\app_adv_mgr.c **** 
 304:C:/Users/stapi/OneDrive/Desktop/GD32VW553/V1_MQTT_OK/GD32VW55X_Wifi_BLE_SDK/GD32VW55x_RELEASE_V1.0.2/MSDK/ble/app\app_adv_mgr.c ****     return app_adv_env.adv_sid;
 305:C:/Users/stapi/OneDrive/Desktop/GD32VW553/V1_MQTT_OK/GD32VW55X_Wifi_BLE_SDK/GD32VW55x_RELEASE_V1.0.2/MSDK/ble/app\app_adv_mgr.c **** }
 306:C:/Users/stapi/OneDrive/Desktop/GD32VW553/V1_MQTT_OK/GD32VW55X_Wifi_BLE_SDK/GD32VW55x_RELEASE_V1.0.2/MSDK/ble/app\app_adv_mgr.c **** 
 307:C:/Users/stapi/OneDrive/Desktop/GD32VW553/V1_MQTT_OK/GD32VW55X_Wifi_BLE_SDK/GD32VW55x_RELEASE_V1.0.2/MSDK/ble/app\app_adv_mgr.c **** /*!
 308:C:/Users/stapi/OneDrive/Desktop/GD32VW553/V1_MQTT_OK/GD32VW55X_Wifi_BLE_SDK/GD32VW55x_RELEASE_V1.0.2/MSDK/ble/app\app_adv_mgr.c ****     \brief      Build advertising data
 309:C:/Users/stapi/OneDrive/Desktop/GD32VW553/V1_MQTT_OK/GD32VW55X_Wifi_BLE_SDK/GD32VW55x_RELEASE_V1.0.2/MSDK/ble/app\app_adv_mgr.c ****     \details    Use name + multi manufacturer data to fill different length advertising data
 310:C:/Users/stapi/OneDrive/Desktop/GD32VW553/V1_MQTT_OK/GD32VW55X_Wifi_BLE_SDK/GD32VW55x_RELEASE_V1.0.2/MSDK/ble/app\app_adv_mgr.c ****     \param[in]  p_adv: pointer to BLE advertising set
 311:C:/Users/stapi/OneDrive/Desktop/GD32VW553/V1_MQTT_OK/GD32VW55X_Wifi_BLE_SDK/GD32VW55x_RELEASE_V1.0.2/MSDK/ble/app\app_adv_mgr.c ****     \param[in]  p_buf: buffer address to fill advertising data
 312:C:/Users/stapi/OneDrive/Desktop/GD32VW553/V1_MQTT_OK/GD32VW55X_Wifi_BLE_SDK/GD32VW55x_RELEASE_V1.0.2/MSDK/ble/app\app_adv_mgr.c ****     \param[in]  max_length: max length of advertising data
 313:C:/Users/stapi/OneDrive/Desktop/GD32VW553/V1_MQTT_OK/GD32VW55X_Wifi_BLE_SDK/GD32VW55x_RELEASE_V1.0.2/MSDK/ble/app\app_adv_mgr.c ****     \param[in]  flag: true if flag is needed in advertising data, otherwise false
 314:C:/Users/stapi/OneDrive/Desktop/GD32VW553/V1_MQTT_OK/GD32VW55X_Wifi_BLE_SDK/GD32VW55x_RELEASE_V1.0.2/MSDK/ble/app\app_adv_mgr.c ****     \param[out] none
 315:C:/Users/stapi/OneDrive/Desktop/GD32VW553/V1_MQTT_OK/GD32VW55X_Wifi_BLE_SDK/GD32VW55x_RELEASE_V1.0.2/MSDK/ble/app\app_adv_mgr.c ****     \retval     uint16_t: total length of the result advertising data
 316:C:/Users/stapi/OneDrive/Desktop/GD32VW553/V1_MQTT_OK/GD32VW55X_Wifi_BLE_SDK/GD32VW55x_RELEASE_V1.0.2/MSDK/ble/app\app_adv_mgr.c **** */
 317:C:/Users/stapi/OneDrive/Desktop/GD32VW553/V1_MQTT_OK/GD32VW55X_Wifi_BLE_SDK/GD32VW55x_RELEASE_V1.0.2/MSDK/ble/app\app_adv_mgr.c **** static uint16_t app_build_adv_data(app_adv_set_t *p_adv, uint8_t *p_buf, uint16_t max_length, bool 
 318:C:/Users/stapi/OneDrive/Desktop/GD32VW553/V1_MQTT_OK/GD32VW55X_Wifi_BLE_SDK/GD32VW55x_RELEASE_V1.0.2/MSDK/ble/app\app_adv_mgr.c **** {
  15              		.loc 1 318 1
  16              		.cfi_startproc
  17              	.LVL0:
  18 0000 17030000 		call	t0,__riscv_save_11
  18      E7020300 
  19              		.cfi_offset 26, -48
  20              		.cfi_offset 25, -44
  21              		.cfi_offset 24, -40
  22              		.cfi_offset 23, -36
  23              		.cfi_offset 22, -32
  24              		.cfi_offset 21, -28
  25              		.cfi_offset 20, -24
  26              		.cfi_offset 19, -20
  27              		.cfi_offset 18, -16
  28              		.cfi_offset 9, -12
  29              		.cfi_offset 8, -8
  30              		.cfi_offset 1, -4
  31              		.cfi_def_cfa_offset 48
 319:C:/Users/stapi/OneDrive/Desktop/GD32VW553/V1_MQTT_OK/GD32VW55X_Wifi_BLE_SDK/GD32VW55x_RELEASE_V1.0.2/MSDK/ble/app\app_adv_mgr.c ****     uint16_t rem_len = max_length;
  32              		.loc 1 319 5
  33              	.LVL1:
 320:C:/Users/stapi/OneDrive/Desktop/GD32VW553/V1_MQTT_OK/GD32VW55X_Wifi_BLE_SDK/GD32VW55x_RELEASE_V1.0.2/MSDK/ble/app\app_adv_mgr.c ****     uint8_t dev_name_length;
  34              		.loc 1 320 5
 321:C:/Users/stapi/OneDrive/Desktop/GD32VW553/V1_MQTT_OK/GD32VW55X_Wifi_BLE_SDK/GD32VW55x_RELEASE_V1.0.2/MSDK/ble/app\app_adv_mgr.c ****     uint8_t manu_len;
  35              		.loc 1 321 5
 322:C:/Users/stapi/OneDrive/Desktop/GD32VW553/V1_MQTT_OK/GD32VW55X_Wifi_BLE_SDK/GD32VW55x_RELEASE_V1.0.2/MSDK/ble/app\app_adv_mgr.c ****     uint8_t i;
  36              		.loc 1 322 5
 323:C:/Users/stapi/OneDrive/Desktop/GD32VW553/V1_MQTT_OK/GD32VW55X_Wifi_BLE_SDK/GD32VW55x_RELEASE_V1.0.2/MSDK/ble/app\app_adv_mgr.c ****     uint8_t *p_adp_name = NULL;
  37              		.loc 1 323 5
 318:C:/Users/stapi/OneDrive/Desktop/GD32VW553/V1_MQTT_OK/GD32VW55X_Wifi_BLE_SDK/GD32VW55x_RELEASE_V1.0.2/MSDK/ble/app\app_adv_mgr.c ****     uint16_t rem_len = max_length;
  38              		.loc 1 318 1 is_stmt 0
  39 0008 4111     		addi	sp,sp,-16
  40              		.cfi_def_cfa_offset 64
  41              		.loc 1 323 14
  42 000a 02C6     		sw	zero,12(sp)
 324:C:/Users/stapi/OneDrive/Desktop/GD32VW553/V1_MQTT_OK/GD32VW55X_Wifi_BLE_SDK/GD32VW55x_RELEASE_V1.0.2/MSDK/ble/app\app_adv_mgr.c ****     uint8_t adp_name_length;
  43              		.loc 1 324 5 is_stmt 1
 325:C:/Users/stapi/OneDrive/Desktop/GD32VW553/V1_MQTT_OK/GD32VW55X_Wifi_BLE_SDK/GD32VW55x_RELEASE_V1.0.2/MSDK/ble/app\app_adv_mgr.c **** 
 326:C:/Users/stapi/OneDrive/Desktop/GD32VW553/V1_MQTT_OK/GD32VW55X_Wifi_BLE_SDK/GD32VW55x_RELEASE_V1.0.2/MSDK/ble/app\app_adv_mgr.c ****     if (flag && (p_adv->disc_mode != BLE_GAP_ADV_MODE_BEACON)) {
  44              		.loc 1 326 5
 318:C:/Users/stapi/OneDrive/Desktop/GD32VW553/V1_MQTT_OK/GD32VW55X_Wifi_BLE_SDK/GD32VW55x_RELEASE_V1.0.2/MSDK/ble/app\app_adv_mgr.c ****     uint16_t rem_len = max_length;
  45              		.loc 1 318 1 is_stmt 0
  46 000c AE84     		mv	s1,a1
  47 000e 3289     		mv	s2,a2
  48              		.loc 1 326 8
  49 0010 B9CE     		beq	a3,zero,.L15
  50              		.loc 1 326 14 discriminator 1
  51 0012 83468500 		lbu	a3,8(a0)
  52              	.LVL2:
  53 0016 0D47     		li	a4,3
  54 0018 AA87     		mv	a5,a0
  55 001a 638AE604 		beq	a3,a4,.L15
 327:C:/Users/stapi/OneDrive/Desktop/GD32VW553/V1_MQTT_OK/GD32VW55X_Wifi_BLE_SDK/GD32VW55x_RELEASE_V1.0.2/MSDK/ble/app\app_adv_mgr.c ****         // Check if additional data can be added to the Advertising data - 2 bytes needed for type 
 328:C:/Users/stapi/OneDrive/Desktop/GD32VW553/V1_MQTT_OK/GD32VW55X_Wifi_BLE_SDK/GD32VW55x_RELEASE_V1.0.2/MSDK/ble/app\app_adv_mgr.c ****         if (rem_len < 3) {
  56              		.loc 1 328 9 is_stmt 1
  57              		.loc 1 328 12 is_stmt 0
  58 001e 0947     		li	a4,2
 329:C:/Users/stapi/OneDrive/Desktop/GD32VW553/V1_MQTT_OK/GD32VW55X_Wifi_BLE_SDK/GD32VW55x_RELEASE_V1.0.2/MSDK/ble/app\app_adv_mgr.c ****             return 0;
  59              		.loc 1 329 20
  60 0020 0145     		li	a0,0
  61              	.LVL3:
 328:C:/Users/stapi/OneDrive/Desktop/GD32VW553/V1_MQTT_OK/GD32VW55X_Wifi_BLE_SDK/GD32VW55x_RELEASE_V1.0.2/MSDK/ble/app\app_adv_mgr.c ****             return 0;
  62              		.loc 1 328 12
  63 0022 637DC702 		bleu	a2,a4,.L3
 330:C:/Users/stapi/OneDrive/Desktop/GD32VW553/V1_MQTT_OK/GD32VW55X_Wifi_BLE_SDK/GD32VW55x_RELEASE_V1.0.2/MSDK/ble/app\app_adv_mgr.c ****         }
 331:C:/Users/stapi/OneDrive/Desktop/GD32VW553/V1_MQTT_OK/GD32VW55X_Wifi_BLE_SDK/GD32VW55x_RELEASE_V1.0.2/MSDK/ble/app\app_adv_mgr.c **** 
 332:C:/Users/stapi/OneDrive/Desktop/GD32VW553/V1_MQTT_OK/GD32VW55X_Wifi_BLE_SDK/GD32VW55x_RELEASE_V1.0.2/MSDK/ble/app\app_adv_mgr.c ****         *p_buf++ = 0x02;
  64              		.loc 1 332 9 is_stmt 1
  65              	.LVL4:
 333:C:/Users/stapi/OneDrive/Desktop/GD32VW553/V1_MQTT_OK/GD32VW55X_Wifi_BLE_SDK/GD32VW55x_RELEASE_V1.0.2/MSDK/ble/app\app_adv_mgr.c ****         *p_buf++ = BLE_AD_TYPE_FLAGS;
  66              		.loc 1 333 18 is_stmt 0
  67 0026 8546     		li	a3,1
 334:C:/Users/stapi/OneDrive/Desktop/GD32VW553/V1_MQTT_OK/GD32VW55X_Wifi_BLE_SDK/GD32VW55x_RELEASE_V1.0.2/MSDK/ble/app\app_adv_mgr.c **** 
 335:C:/Users/stapi/OneDrive/Desktop/GD32VW553/V1_MQTT_OK/GD32VW55X_Wifi_BLE_SDK/GD32VW55x_RELEASE_V1.0.2/MSDK/ble/app\app_adv_mgr.c ****         *p_buf = BLE_GAP_ADV_FLAG_BR_EDR_NOT_SUPPORTED;
  68              		.loc 1 335 16
  69 0028 1146     		li	a2,4
  70              	.LVL5:
 332:C:/Users/stapi/OneDrive/Desktop/GD32VW553/V1_MQTT_OK/GD32VW55X_Wifi_BLE_SDK/GD32VW55x_RELEASE_V1.0.2/MSDK/ble/app\app_adv_mgr.c ****         *p_buf++ = BLE_AD_TYPE_FLAGS;
  71              		.loc 1 332 18
  72 002a 2380E500 		sb	a4,0(a1)
 333:C:/Users/stapi/OneDrive/Desktop/GD32VW553/V1_MQTT_OK/GD32VW55X_Wifi_BLE_SDK/GD32VW55x_RELEASE_V1.0.2/MSDK/ble/app\app_adv_mgr.c ****         *p_buf++ = BLE_AD_TYPE_FLAGS;
  73              		.loc 1 333 9 is_stmt 1
  74              	.LVL6:
 333:C:/Users/stapi/OneDrive/Desktop/GD32VW553/V1_MQTT_OK/GD32VW55X_Wifi_BLE_SDK/GD32VW55x_RELEASE_V1.0.2/MSDK/ble/app\app_adv_mgr.c ****         *p_buf++ = BLE_AD_TYPE_FLAGS;
  75              		.loc 1 333 18 is_stmt 0
  76 002e A380D500 		sb	a3,1(a1)
  77              		.loc 1 335 9 is_stmt 1
  78              		.loc 1 335 16 is_stmt 0
  79 0032 2381C500 		sb	a2,2(a1)
 336:C:/Users/stapi/OneDrive/Desktop/GD32VW553/V1_MQTT_OK/GD32VW55X_Wifi_BLE_SDK/GD32VW55x_RELEASE_V1.0.2/MSDK/ble/app\app_adv_mgr.c ****         if (p_adv->disc_mode == BLE_GAP_ADV_MODE_GEN_DISC) {
  80              		.loc 1 336 9 is_stmt 1
  81              		.loc 1 336 18 is_stmt 0
  82 0036 83C78700 		lbu	a5,8(a5)
  83              	.LVL7:
  84              		.loc 1 336 12
  85 003a 6396D702 		bne	a5,a3,.L4
 337:C:/Users/stapi/OneDrive/Desktop/GD32VW553/V1_MQTT_OK/GD32VW55X_Wifi_BLE_SDK/GD32VW55x_RELEASE_V1.0.2/MSDK/ble/app\app_adv_mgr.c ****             *p_buf |= BLE_GAP_ADV_FLAG_LE_GENERAL_DISC_MODE;
  86              		.loc 1 337 13 is_stmt 1
  87              		.loc 1 337 20 is_stmt 0
  88 003e 9947     		li	a5,6
  89              	.L21:
 338:C:/Users/stapi/OneDrive/Desktop/GD32VW553/V1_MQTT_OK/GD32VW55X_Wifi_BLE_SDK/GD32VW55x_RELEASE_V1.0.2/MSDK/ble/app\app_adv_mgr.c ****         } else if (p_adv->disc_mode == BLE_GAP_ADV_MODE_LIM_DISC) {
 339:C:/Users/stapi/OneDrive/Desktop/GD32VW553/V1_MQTT_OK/GD32VW55X_Wifi_BLE_SDK/GD32VW55x_RELEASE_V1.0.2/MSDK/ble/app\app_adv_mgr.c ****             *p_buf |= BLE_GAP_ADV_FLAG_LE_LIMITED_DISC_MODE;
  90              		.loc 1 339 20
  91 0040 2381F400 		sb	a5,2(s1)
  92              	.LVL8:
  93              	.L5:
 340:C:/Users/stapi/OneDrive/Desktop/GD32VW553/V1_MQTT_OK/GD32VW55X_Wifi_BLE_SDK/GD32VW55x_RELEASE_V1.0.2/MSDK/ble/app\app_adv_mgr.c ****         }
 341:C:/Users/stapi/OneDrive/Desktop/GD32VW553/V1_MQTT_OK/GD32VW55X_Wifi_BLE_SDK/GD32VW55x_RELEASE_V1.0.2/MSDK/ble/app\app_adv_mgr.c ****         p_buf++;
  94              		.loc 1 341 9 is_stmt 1
 342:C:/Users/stapi/OneDrive/Desktop/GD32VW553/V1_MQTT_OK/GD32VW55X_Wifi_BLE_SDK/GD32VW55x_RELEASE_V1.0.2/MSDK/ble/app\app_adv_mgr.c **** 
 343:C:/Users/stapi/OneDrive/Desktop/GD32VW553/V1_MQTT_OK/GD32VW55X_Wifi_BLE_SDK/GD32VW55x_RELEASE_V1.0.2/MSDK/ble/app\app_adv_mgr.c ****         rem_len -= 3;
  95              		.loc 1 343 17 is_stmt 0
  96 0044 1304D9FF 		addi	s0,s2,-3
 341:C:/Users/stapi/OneDrive/Desktop/GD32VW553/V1_MQTT_OK/GD32VW55X_Wifi_BLE_SDK/GD32VW55x_RELEASE_V1.0.2/MSDK/ble/app\app_adv_mgr.c **** 
  97              		.loc 1 341 14
  98 0048 8D04     		addi	s1,s1,3
  99              	.LVL9:
 100              		.loc 1 343 9 is_stmt 1
 101              		.loc 1 343 17 is_stmt 0
 102 004a 33440408 		zext.h	s0,s0
 103              	.LVL10:
 104              	.L2:
 344:C:/Users/stapi/OneDrive/Desktop/GD32VW553/V1_MQTT_OK/GD32VW55X_Wifi_BLE_SDK/GD32VW55x_RELEASE_V1.0.2/MSDK/ble/app\app_adv_mgr.c ****     }
 345:C:/Users/stapi/OneDrive/Desktop/GD32VW553/V1_MQTT_OK/GD32VW55X_Wifi_BLE_SDK/GD32VW55x_RELEASE_V1.0.2/MSDK/ble/app\app_adv_mgr.c **** 
 346:C:/Users/stapi/OneDrive/Desktop/GD32VW553/V1_MQTT_OK/GD32VW55X_Wifi_BLE_SDK/GD32VW55x_RELEASE_V1.0.2/MSDK/ble/app\app_adv_mgr.c ****     if (rem_len <= 2) {
 105              		.loc 1 346 5 is_stmt 1
 106              		.loc 1 346 8 is_stmt 0
 107 004e 8947     		li	a5,2
 108 0050 63E18702 		bgtu	s0,a5,.L6
 109              	.L22:
 347:C:/Users/stapi/OneDrive/Desktop/GD32VW553/V1_MQTT_OK/GD32VW55X_Wifi_BLE_SDK/GD32VW55x_RELEASE_V1.0.2/MSDK/ble/app\app_adv_mgr.c ****         return (max_length - rem_len);
 348:C:/Users/stapi/OneDrive/Desktop/GD32VW553/V1_MQTT_OK/GD32VW55X_Wifi_BLE_SDK/GD32VW55x_RELEASE_V1.0.2/MSDK/ble/app\app_adv_mgr.c ****     }
 349:C:/Users/stapi/OneDrive/Desktop/GD32VW553/V1_MQTT_OK/GD32VW55X_Wifi_BLE_SDK/GD32VW55x_RELEASE_V1.0.2/MSDK/ble/app\app_adv_mgr.c **** 
 350:C:/Users/stapi/OneDrive/Desktop/GD32VW553/V1_MQTT_OK/GD32VW55X_Wifi_BLE_SDK/GD32VW55x_RELEASE_V1.0.2/MSDK/ble/app\app_adv_mgr.c ****     adp_name_length = app_adp_get_name(&p_adp_name);
 351:C:/Users/stapi/OneDrive/Desktop/GD32VW553/V1_MQTT_OK/GD32VW55X_Wifi_BLE_SDK/GD32VW55x_RELEASE_V1.0.2/MSDK/ble/app\app_adv_mgr.c **** 
 352:C:/Users/stapi/OneDrive/Desktop/GD32VW553/V1_MQTT_OK/GD32VW55X_Wifi_BLE_SDK/GD32VW55x_RELEASE_V1.0.2/MSDK/ble/app\app_adv_mgr.c ****     dev_name_length = adp_name_length > (rem_len - 2) ? (rem_len - 2) :
 353:C:/Users/stapi/OneDrive/Desktop/GD32VW553/V1_MQTT_OK/GD32VW55X_Wifi_BLE_SDK/GD32VW55x_RELEASE_V1.0.2/MSDK/ble/app\app_adv_mgr.c ****                       adp_name_length;
 354:C:/Users/stapi/OneDrive/Desktop/GD32VW553/V1_MQTT_OK/GD32VW55X_Wifi_BLE_SDK/GD32VW55x_RELEASE_V1.0.2/MSDK/ble/app\app_adv_mgr.c **** 
 355:C:/Users/stapi/OneDrive/Desktop/GD32VW553/V1_MQTT_OK/GD32VW55X_Wifi_BLE_SDK/GD32VW55x_RELEASE_V1.0.2/MSDK/ble/app\app_adv_mgr.c ****     // Device name length
 356:C:/Users/stapi/OneDrive/Desktop/GD32VW553/V1_MQTT_OK/GD32VW55X_Wifi_BLE_SDK/GD32VW55x_RELEASE_V1.0.2/MSDK/ble/app\app_adv_mgr.c ****     *p_buf = dev_name_length + 1;
 357:C:/Users/stapi/OneDrive/Desktop/GD32VW553/V1_MQTT_OK/GD32VW55X_Wifi_BLE_SDK/GD32VW55x_RELEASE_V1.0.2/MSDK/ble/app\app_adv_mgr.c ****     // Device name flag (check if device name is complete or not)
 358:C:/Users/stapi/OneDrive/Desktop/GD32VW553/V1_MQTT_OK/GD32VW55X_Wifi_BLE_SDK/GD32VW55x_RELEASE_V1.0.2/MSDK/ble/app\app_adv_mgr.c ****     *(p_buf + 1) = (dev_name_length == adp_name_length) ? '\x09' : '\x08';
 359:C:/Users/stapi/OneDrive/Desktop/GD32VW553/V1_MQTT_OK/GD32VW55X_Wifi_BLE_SDK/GD32VW55x_RELEASE_V1.0.2/MSDK/ble/app\app_adv_mgr.c ****     // Copy device name
 360:C:/Users/stapi/OneDrive/Desktop/GD32VW553/V1_MQTT_OK/GD32VW55X_Wifi_BLE_SDK/GD32VW55x_RELEASE_V1.0.2/MSDK/ble/app\app_adv_mgr.c ****     memcpy(p_buf + 2, p_adp_name, dev_name_length);
 361:C:/Users/stapi/OneDrive/Desktop/GD32VW553/V1_MQTT_OK/GD32VW55X_Wifi_BLE_SDK/GD32VW55x_RELEASE_V1.0.2/MSDK/ble/app\app_adv_mgr.c **** 
 362:C:/Users/stapi/OneDrive/Desktop/GD32VW553/V1_MQTT_OK/GD32VW55X_Wifi_BLE_SDK/GD32VW55x_RELEASE_V1.0.2/MSDK/ble/app\app_adv_mgr.c ****     // Update advertising data length
 363:C:/Users/stapi/OneDrive/Desktop/GD32VW553/V1_MQTT_OK/GD32VW55X_Wifi_BLE_SDK/GD32VW55x_RELEASE_V1.0.2/MSDK/ble/app\app_adv_mgr.c ****     rem_len -= (dev_name_length + 2);
 364:C:/Users/stapi/OneDrive/Desktop/GD32VW553/V1_MQTT_OK/GD32VW55X_Wifi_BLE_SDK/GD32VW55x_RELEASE_V1.0.2/MSDK/ble/app\app_adv_mgr.c ****     p_buf += (dev_name_length + 2);
 365:C:/Users/stapi/OneDrive/Desktop/GD32VW553/V1_MQTT_OK/GD32VW55X_Wifi_BLE_SDK/GD32VW55x_RELEASE_V1.0.2/MSDK/ble/app\app_adv_mgr.c **** 
 366:C:/Users/stapi/OneDrive/Desktop/GD32VW553/V1_MQTT_OK/GD32VW55X_Wifi_BLE_SDK/GD32VW55x_RELEASE_V1.0.2/MSDK/ble/app\app_adv_mgr.c ****     while (rem_len >= 4) {
 367:C:/Users/stapi/OneDrive/Desktop/GD32VW553/V1_MQTT_OK/GD32VW55X_Wifi_BLE_SDK/GD32VW55x_RELEASE_V1.0.2/MSDK/ble/app\app_adv_mgr.c ****         // add manufacturer data
 368:C:/Users/stapi/OneDrive/Desktop/GD32VW553/V1_MQTT_OK/GD32VW55X_Wifi_BLE_SDK/GD32VW55x_RELEASE_V1.0.2/MSDK/ble/app\app_adv_mgr.c ****         // length, type(0xFF), 2 bytes company id
 369:C:/Users/stapi/OneDrive/Desktop/GD32VW553/V1_MQTT_OK/GD32VW55X_Wifi_BLE_SDK/GD32VW55x_RELEASE_V1.0.2/MSDK/ble/app\app_adv_mgr.c ****         manu_len = rem_len < 0xFF ? (uint8_t)rem_len : 0xFF;
 370:C:/Users/stapi/OneDrive/Desktop/GD32VW553/V1_MQTT_OK/GD32VW55X_Wifi_BLE_SDK/GD32VW55x_RELEASE_V1.0.2/MSDK/ble/app\app_adv_mgr.c ****         *p_buf++ = manu_len - 1;    // length
 371:C:/Users/stapi/OneDrive/Desktop/GD32VW553/V1_MQTT_OK/GD32VW55X_Wifi_BLE_SDK/GD32VW55x_RELEASE_V1.0.2/MSDK/ble/app\app_adv_mgr.c ****         *p_buf++ = 0xFF;            // type
 372:C:/Users/stapi/OneDrive/Desktop/GD32VW553/V1_MQTT_OK/GD32VW55X_Wifi_BLE_SDK/GD32VW55x_RELEASE_V1.0.2/MSDK/ble/app\app_adv_mgr.c ****         *p_buf++ = 0x2B;            // company id
 373:C:/Users/stapi/OneDrive/Desktop/GD32VW553/V1_MQTT_OK/GD32VW55X_Wifi_BLE_SDK/GD32VW55x_RELEASE_V1.0.2/MSDK/ble/app\app_adv_mgr.c ****         *p_buf++ = 0x0C;            // company id
 374:C:/Users/stapi/OneDrive/Desktop/GD32VW553/V1_MQTT_OK/GD32VW55X_Wifi_BLE_SDK/GD32VW55x_RELEASE_V1.0.2/MSDK/ble/app\app_adv_mgr.c ****         for (i = 0; i < (manu_len - 4); i++) {
 375:C:/Users/stapi/OneDrive/Desktop/GD32VW553/V1_MQTT_OK/GD32VW55X_Wifi_BLE_SDK/GD32VW55x_RELEASE_V1.0.2/MSDK/ble/app\app_adv_mgr.c ****             *p_buf++ = (uint8_t)(rand() & 0xFF);
 376:C:/Users/stapi/OneDrive/Desktop/GD32VW553/V1_MQTT_OK/GD32VW55X_Wifi_BLE_SDK/GD32VW55x_RELEASE_V1.0.2/MSDK/ble/app\app_adv_mgr.c ****         };
 377:C:/Users/stapi/OneDrive/Desktop/GD32VW553/V1_MQTT_OK/GD32VW55X_Wifi_BLE_SDK/GD32VW55x_RELEASE_V1.0.2/MSDK/ble/app\app_adv_mgr.c **** 
 378:C:/Users/stapi/OneDrive/Desktop/GD32VW553/V1_MQTT_OK/GD32VW55X_Wifi_BLE_SDK/GD32VW55x_RELEASE_V1.0.2/MSDK/ble/app\app_adv_mgr.c ****         rem_len -= manu_len;
 379:C:/Users/stapi/OneDrive/Desktop/GD32VW553/V1_MQTT_OK/GD32VW55X_Wifi_BLE_SDK/GD32VW55x_RELEASE_V1.0.2/MSDK/ble/app\app_adv_mgr.c ****     }
 380:C:/Users/stapi/OneDrive/Desktop/GD32VW553/V1_MQTT_OK/GD32VW55X_Wifi_BLE_SDK/GD32VW55x_RELEASE_V1.0.2/MSDK/ble/app\app_adv_mgr.c **** 
 381:C:/Users/stapi/OneDrive/Desktop/GD32VW553/V1_MQTT_OK/GD32VW55X_Wifi_BLE_SDK/GD32VW55x_RELEASE_V1.0.2/MSDK/ble/app\app_adv_mgr.c ****     return (max_length - rem_len);
 110              		.loc 1 381 5 is_stmt 1
 111              		.loc 1 381 24 is_stmt 0
 112 0054 33048940 		sub	s0,s2,s0
 113              	.LVL11:
 114 0058 33450408 		zext.h	a0,s0
 115              	.L3:
 382:C:/Users/stapi/OneDrive/Desktop/GD32VW553/V1_MQTT_OK/GD32VW55X_Wifi_BLE_SDK/GD32VW55x_RELEASE_V1.0.2/MSDK/ble/app\app_adv_mgr.c **** }
 116              		.loc 1 382 1
 117 005c 4101     		addi	sp,sp,16
 118              		.cfi_remember_state
 119              		.cfi_def_cfa_offset 0
 120 005e 17030000 		tail	__riscv_restore_11
 120      67000300 
 121              		.cfi_restore 26
 122              		.cfi_restore 25
 123              		.cfi_restore 24
 124              		.cfi_restore 23
 125              		.cfi_restore 22
 126              		.cfi_restore 21
 127              		.cfi_restore 20
 128              		.cfi_restore 19
 129              		.cfi_restore 18
 130              		.cfi_restore 9
 131              		.cfi_restore 8
 132              		.cfi_restore 1
 133              		.cfi_def_cfa_offset -48
 134              	.LVL12:
 135              	.L4:
 136              		.cfi_restore_state
 338:C:/Users/stapi/OneDrive/Desktop/GD32VW553/V1_MQTT_OK/GD32VW55X_Wifi_BLE_SDK/GD32VW55x_RELEASE_V1.0.2/MSDK/ble/app\app_adv_mgr.c ****             *p_buf |= BLE_GAP_ADV_FLAG_LE_LIMITED_DISC_MODE;
 137              		.loc 1 338 16 is_stmt 1
 338:C:/Users/stapi/OneDrive/Desktop/GD32VW553/V1_MQTT_OK/GD32VW55X_Wifi_BLE_SDK/GD32VW55x_RELEASE_V1.0.2/MSDK/ble/app\app_adv_mgr.c ****             *p_buf |= BLE_GAP_ADV_FLAG_LE_LIMITED_DISC_MODE;
 138              		.loc 1 338 19 is_stmt 0
 139 0066 E39FE7FC 		bne	a5,a4,.L5
 339:C:/Users/stapi/OneDrive/Desktop/GD32VW553/V1_MQTT_OK/GD32VW55X_Wifi_BLE_SDK/GD32VW55x_RELEASE_V1.0.2/MSDK/ble/app\app_adv_mgr.c ****         }
 140              		.loc 1 339 13 is_stmt 1
 339:C:/Users/stapi/OneDrive/Desktop/GD32VW553/V1_MQTT_OK/GD32VW55X_Wifi_BLE_SDK/GD32VW55x_RELEASE_V1.0.2/MSDK/ble/app\app_adv_mgr.c ****         }
 141              		.loc 1 339 20 is_stmt 0
 142 006a 9547     		li	a5,5
 143 006c D1BF     		j	.L21
 144              	.LVL13:
 145              	.L15:
 146 006e 4A84     		mv	s0,s2
 147 0070 F9BF     		j	.L2
 148              	.LVL14:
 149              	.L6:
 350:C:/Users/stapi/OneDrive/Desktop/GD32VW553/V1_MQTT_OK/GD32VW55X_Wifi_BLE_SDK/GD32VW55x_RELEASE_V1.0.2/MSDK/ble/app\app_adv_mgr.c **** 
 150              		.loc 1 350 5 is_stmt 1
 350:C:/Users/stapi/OneDrive/Desktop/GD32VW553/V1_MQTT_OK/GD32VW55X_Wifi_BLE_SDK/GD32VW55x_RELEASE_V1.0.2/MSDK/ble/app\app_adv_mgr.c **** 
 151              		.loc 1 350 23 is_stmt 0
 152 0072 6800     		addi	a0,sp,12
 153 0074 97000000 		call	app_adp_get_name
 153      E7800000 
 154              	.LVL15:
 352:C:/Users/stapi/OneDrive/Desktop/GD32VW553/V1_MQTT_OK/GD32VW55X_Wifi_BLE_SDK/GD32VW55x_RELEASE_V1.0.2/MSDK/ble/app\app_adv_mgr.c ****                       adp_name_length;
 155              		.loc 1 352 5 is_stmt 1
 352:C:/Users/stapi/OneDrive/Desktop/GD32VW553/V1_MQTT_OK/GD32VW55X_Wifi_BLE_SDK/GD32VW55x_RELEASE_V1.0.2/MSDK/ble/app\app_adv_mgr.c ****                       adp_name_length;
 156              		.loc 1 352 39 is_stmt 0
 157 007c 9307F4FF 		addi	a5,s0,-1
 352:C:/Users/stapi/OneDrive/Desktop/GD32VW553/V1_MQTT_OK/GD32VW55X_Wifi_BLE_SDK/GD32VW55x_RELEASE_V1.0.2/MSDK/ble/app\app_adv_mgr.c ****                       adp_name_length;
 158              		.loc 1 352 21
 159 0080 AA89     		mv	s3,a0
 160 0082 7914     		addi	s0,s0,-2
 161              	.LVL16:
 162 0084 6344F500 		bgt	a5,a0,.L7
 352:C:/Users/stapi/OneDrive/Desktop/GD32VW553/V1_MQTT_OK/GD32VW55X_Wifi_BLE_SDK/GD32VW55x_RELEASE_V1.0.2/MSDK/ble/app\app_adv_mgr.c ****                       adp_name_length;
 163              		.loc 1 352 21 discriminator 1
 164 0088 9379F40F 		andi	s3,s0,0xff
 165              	.L7:
 166              	.LVL17:
 356:C:/Users/stapi/OneDrive/Desktop/GD32VW553/V1_MQTT_OK/GD32VW55X_Wifi_BLE_SDK/GD32VW55x_RELEASE_V1.0.2/MSDK/ble/app\app_adv_mgr.c ****     // Device name flag (check if device name is complete or not)
 167              		.loc 1 356 5 is_stmt 1 discriminator 4
 356:C:/Users/stapi/OneDrive/Desktop/GD32VW553/V1_MQTT_OK/GD32VW55X_Wifi_BLE_SDK/GD32VW55x_RELEASE_V1.0.2/MSDK/ble/app\app_adv_mgr.c ****     // Device name flag (check if device name is complete or not)
 168              		.loc 1 356 30 is_stmt 0 discriminator 4
 169 008c 93871900 		addi	a5,s3,1
 356:C:/Users/stapi/OneDrive/Desktop/GD32VW553/V1_MQTT_OK/GD32VW55X_Wifi_BLE_SDK/GD32VW55x_RELEASE_V1.0.2/MSDK/ble/app\app_adv_mgr.c ****     // Device name flag (check if device name is complete or not)
 170              		.loc 1 356 12 discriminator 4
 171 0090 2380F400 		sb	a5,0(s1)
 358:C:/Users/stapi/OneDrive/Desktop/GD32VW553/V1_MQTT_OK/GD32VW55X_Wifi_BLE_SDK/GD32VW55x_RELEASE_V1.0.2/MSDK/ble/app\app_adv_mgr.c ****     // Copy device name
 172              		.loc 1 358 5 is_stmt 1 discriminator 4
 358:C:/Users/stapi/OneDrive/Desktop/GD32VW553/V1_MQTT_OK/GD32VW55X_Wifi_BLE_SDK/GD32VW55x_RELEASE_V1.0.2/MSDK/ble/app\app_adv_mgr.c ****     // Copy device name
 173              		.loc 1 358 18 is_stmt 0 discriminator 4
 174 0094 A547     		li	a5,9
 175 0096 6383A900 		beq	s3,a0,.L8
 358:C:/Users/stapi/OneDrive/Desktop/GD32VW553/V1_MQTT_OK/GD32VW55X_Wifi_BLE_SDK/GD32VW55x_RELEASE_V1.0.2/MSDK/ble/app\app_adv_mgr.c ****     // Copy device name
 176              		.loc 1 358 18
 177 009a A147     		li	a5,8
 178              	.L8:
 179              	.LVL18:
 360:C:/Users/stapi/OneDrive/Desktop/GD32VW553/V1_MQTT_OK/GD32VW55X_Wifi_BLE_SDK/GD32VW55x_RELEASE_V1.0.2/MSDK/ble/app\app_adv_mgr.c **** 
 180              		.loc 1 360 5 discriminator 4
 181 009c B245     		lw	a1,12(sp)
 358:C:/Users/stapi/OneDrive/Desktop/GD32VW553/V1_MQTT_OK/GD32VW55X_Wifi_BLE_SDK/GD32VW55x_RELEASE_V1.0.2/MSDK/ble/app\app_adv_mgr.c ****     // Copy device name
 182              		.loc 1 358 18 discriminator 4
 183 009e A380F400 		sb	a5,1(s1)
 360:C:/Users/stapi/OneDrive/Desktop/GD32VW553/V1_MQTT_OK/GD32VW55X_Wifi_BLE_SDK/GD32VW55x_RELEASE_V1.0.2/MSDK/ble/app\app_adv_mgr.c **** 
 184              		.loc 1 360 5 is_stmt 1 discriminator 4
 185 00a2 4E86     		mv	a2,s3
 186 00a4 13852400 		addi	a0,s1,2
 187              	.LVL19:
 363:C:/Users/stapi/OneDrive/Desktop/GD32VW553/V1_MQTT_OK/GD32VW55X_Wifi_BLE_SDK/GD32VW55x_RELEASE_V1.0.2/MSDK/ble/app\app_adv_mgr.c ****     p_buf += (dev_name_length + 2);
 188              		.loc 1 363 13 is_stmt 0 discriminator 4
 189 00a8 33043441 		sub	s0,s0,s3
 364:C:/Users/stapi/OneDrive/Desktop/GD32VW553/V1_MQTT_OK/GD32VW55X_Wifi_BLE_SDK/GD32VW55x_RELEASE_V1.0.2/MSDK/ble/app\app_adv_mgr.c **** 
 190              		.loc 1 364 11 discriminator 4
 191 00ac 8909     		addi	s3,s3,2
 360:C:/Users/stapi/OneDrive/Desktop/GD32VW553/V1_MQTT_OK/GD32VW55X_Wifi_BLE_SDK/GD32VW55x_RELEASE_V1.0.2/MSDK/ble/app\app_adv_mgr.c **** 
 192              		.loc 1 360 5 discriminator 4
 193 00ae 97000000 		call	memcpy
 193      E7800000 
 194              	.LVL20:
 363:C:/Users/stapi/OneDrive/Desktop/GD32VW553/V1_MQTT_OK/GD32VW55X_Wifi_BLE_SDK/GD32VW55x_RELEASE_V1.0.2/MSDK/ble/app\app_adv_mgr.c ****     p_buf += (dev_name_length + 2);
 195              		.loc 1 363 5 is_stmt 1 discriminator 4
 364:C:/Users/stapi/OneDrive/Desktop/GD32VW553/V1_MQTT_OK/GD32VW55X_Wifi_BLE_SDK/GD32VW55x_RELEASE_V1.0.2/MSDK/ble/app\app_adv_mgr.c **** 
 196              		.loc 1 364 11 is_stmt 0 discriminator 4
 197 00b6 CE94     		add	s1,s1,s3
 198              	.LVL21:
 366:C:/Users/stapi/OneDrive/Desktop/GD32VW553/V1_MQTT_OK/GD32VW55X_Wifi_BLE_SDK/GD32VW55x_RELEASE_V1.0.2/MSDK/ble/app\app_adv_mgr.c ****         // add manufacturer data
 199              		.loc 1 366 11 discriminator 4
 200 00b8 8D4A     		li	s5,3
 369:C:/Users/stapi/OneDrive/Desktop/GD32VW553/V1_MQTT_OK/GD32VW55X_Wifi_BLE_SDK/GD32VW55x_RELEASE_V1.0.2/MSDK/ble/app\app_adv_mgr.c ****         *p_buf++ = manu_len - 1;    // length
 201              		.loc 1 369 18 discriminator 4
 202 00ba 130BE00F 		li	s6,254
 371:C:/Users/stapi/OneDrive/Desktop/GD32VW553/V1_MQTT_OK/GD32VW55X_Wifi_BLE_SDK/GD32VW55x_RELEASE_V1.0.2/MSDK/ble/app\app_adv_mgr.c ****         *p_buf++ = 0x2B;            // company id
 203              		.loc 1 371 18 discriminator 4
 204 00be FD5B     		li	s7,-1
 372:C:/Users/stapi/OneDrive/Desktop/GD32VW553/V1_MQTT_OK/GD32VW55X_Wifi_BLE_SDK/GD32VW55x_RELEASE_V1.0.2/MSDK/ble/app\app_adv_mgr.c ****         *p_buf++ = 0x0C;            // company id
 205              		.loc 1 372 18 discriminator 4
 206 00c0 130CB002 		li	s8,43
 373:C:/Users/stapi/OneDrive/Desktop/GD32VW553/V1_MQTT_OK/GD32VW55X_Wifi_BLE_SDK/GD32VW55x_RELEASE_V1.0.2/MSDK/ble/app\app_adv_mgr.c ****         for (i = 0; i < (manu_len - 4); i++) {
 207              		.loc 1 373 18 discriminator 4
 208 00c4 B14C     		li	s9,12
 363:C:/Users/stapi/OneDrive/Desktop/GD32VW553/V1_MQTT_OK/GD32VW55X_Wifi_BLE_SDK/GD32VW55x_RELEASE_V1.0.2/MSDK/ble/app\app_adv_mgr.c ****     p_buf += (dev_name_length + 2);
 209              		.loc 1 363 13 discriminator 4
 210 00c6 33440408 		zext.h	s0,s0
 211              	.LVL22:
 364:C:/Users/stapi/OneDrive/Desktop/GD32VW553/V1_MQTT_OK/GD32VW55X_Wifi_BLE_SDK/GD32VW55x_RELEASE_V1.0.2/MSDK/ble/app\app_adv_mgr.c **** 
 212              		.loc 1 364 5 is_stmt 1 discriminator 4
 366:C:/Users/stapi/OneDrive/Desktop/GD32VW553/V1_MQTT_OK/GD32VW55X_Wifi_BLE_SDK/GD32VW55x_RELEASE_V1.0.2/MSDK/ble/app\app_adv_mgr.c ****         // add manufacturer data
 213              		.loc 1 366 5 discriminator 4
 214              	.L9:
 366:C:/Users/stapi/OneDrive/Desktop/GD32VW553/V1_MQTT_OK/GD32VW55X_Wifi_BLE_SDK/GD32VW55x_RELEASE_V1.0.2/MSDK/ble/app\app_adv_mgr.c ****         // add manufacturer data
 215              		.loc 1 366 11
 216 00ca E3F58AF8 		bleu	s0,s5,.L22
 369:C:/Users/stapi/OneDrive/Desktop/GD32VW553/V1_MQTT_OK/GD32VW55X_Wifi_BLE_SDK/GD32VW55x_RELEASE_V1.0.2/MSDK/ble/app\app_adv_mgr.c ****         *p_buf++ = manu_len - 1;    // length
 217              		.loc 1 369 9
 218 00ce 130AF00F 		li	s4,255
 369:C:/Users/stapi/OneDrive/Desktop/GD32VW553/V1_MQTT_OK/GD32VW55X_Wifi_BLE_SDK/GD32VW55x_RELEASE_V1.0.2/MSDK/ble/app\app_adv_mgr.c ****         *p_buf++ = manu_len - 1;    // length
 219              		.loc 1 369 18 is_stmt 0
 220 00d2 63638B00 		bgtu	s0,s6,.L10
 221 00d6 228A     		mv	s4,s0
 222              	.L10:
 223              	.LVL23:
 370:C:/Users/stapi/OneDrive/Desktop/GD32VW553/V1_MQTT_OK/GD32VW55X_Wifi_BLE_SDK/GD32VW55x_RELEASE_V1.0.2/MSDK/ble/app\app_adv_mgr.c ****         *p_buf++ = 0xFF;            // type
 224              		.loc 1 370 9 is_stmt 1 discriminator 4
 370:C:/Users/stapi/OneDrive/Desktop/GD32VW553/V1_MQTT_OK/GD32VW55X_Wifi_BLE_SDK/GD32VW55x_RELEASE_V1.0.2/MSDK/ble/app\app_adv_mgr.c ****         *p_buf++ = 0xFF;            // type
 225              		.loc 1 370 29 is_stmt 0 discriminator 4
 226 00d8 9307FAFF 		addi	a5,s4,-1
 370:C:/Users/stapi/OneDrive/Desktop/GD32VW553/V1_MQTT_OK/GD32VW55X_Wifi_BLE_SDK/GD32VW55x_RELEASE_V1.0.2/MSDK/ble/app\app_adv_mgr.c ****         *p_buf++ = 0xFF;            // type
 227              		.loc 1 370 18 discriminator 4
 228 00dc 2380F400 		sb	a5,0(s1)
 371:C:/Users/stapi/OneDrive/Desktop/GD32VW553/V1_MQTT_OK/GD32VW55X_Wifi_BLE_SDK/GD32VW55x_RELEASE_V1.0.2/MSDK/ble/app\app_adv_mgr.c ****         *p_buf++ = 0x2B;            // company id
 229              		.loc 1 371 9 is_stmt 1 discriminator 4
 230              	.LVL24:
 371:C:/Users/stapi/OneDrive/Desktop/GD32VW553/V1_MQTT_OK/GD32VW55X_Wifi_BLE_SDK/GD32VW55x_RELEASE_V1.0.2/MSDK/ble/app\app_adv_mgr.c ****         *p_buf++ = 0x2B;            // company id
 231              		.loc 1 371 18 is_stmt 0 discriminator 4
 232 00e0 A3807401 		sb	s7,1(s1)
 372:C:/Users/stapi/OneDrive/Desktop/GD32VW553/V1_MQTT_OK/GD32VW55X_Wifi_BLE_SDK/GD32VW55x_RELEASE_V1.0.2/MSDK/ble/app\app_adv_mgr.c ****         *p_buf++ = 0x0C;            // company id
 233              		.loc 1 372 9 is_stmt 1 discriminator 4
 234              	.LVL25:
 372:C:/Users/stapi/OneDrive/Desktop/GD32VW553/V1_MQTT_OK/GD32VW55X_Wifi_BLE_SDK/GD32VW55x_RELEASE_V1.0.2/MSDK/ble/app\app_adv_mgr.c ****         *p_buf++ = 0x0C;            // company id
 235              		.loc 1 372 18 is_stmt 0 discriminator 4
 236 00e4 23818401 		sb	s8,2(s1)
 373:C:/Users/stapi/OneDrive/Desktop/GD32VW553/V1_MQTT_OK/GD32VW55X_Wifi_BLE_SDK/GD32VW55x_RELEASE_V1.0.2/MSDK/ble/app\app_adv_mgr.c ****         for (i = 0; i < (manu_len - 4); i++) {
 237              		.loc 1 373 9 is_stmt 1 discriminator 4
 238              	.LVL26:
 373:C:/Users/stapi/OneDrive/Desktop/GD32VW553/V1_MQTT_OK/GD32VW55X_Wifi_BLE_SDK/GD32VW55x_RELEASE_V1.0.2/MSDK/ble/app\app_adv_mgr.c ****         for (i = 0; i < (manu_len - 4); i++) {
 239              		.loc 1 373 18 is_stmt 0 discriminator 4
 240 00e8 A3819401 		sb	s9,3(s1)
 374:C:/Users/stapi/OneDrive/Desktop/GD32VW553/V1_MQTT_OK/GD32VW55X_Wifi_BLE_SDK/GD32VW55x_RELEASE_V1.0.2/MSDK/ble/app\app_adv_mgr.c ****             *p_buf++ = (uint8_t)(rand() & 0xFF);
 241              		.loc 1 374 9 is_stmt 1 discriminator 4
 242              	.LVL27:
 374:C:/Users/stapi/OneDrive/Desktop/GD32VW553/V1_MQTT_OK/GD32VW55X_Wifi_BLE_SDK/GD32VW55x_RELEASE_V1.0.2/MSDK/ble/app\app_adv_mgr.c ****             *p_buf++ = (uint8_t)(rand() & 0xFF);
 243              		.loc 1 374 16 is_stmt 0 discriminator 4
 244 00ec 8149     		li	s3,0
 373:C:/Users/stapi/OneDrive/Desktop/GD32VW553/V1_MQTT_OK/GD32VW55X_Wifi_BLE_SDK/GD32VW55x_RELEASE_V1.0.2/MSDK/ble/app\app_adv_mgr.c ****         for (i = 0; i < (manu_len - 4); i++) {
 245              		.loc 1 373 15 discriminator 4
 246 00ee 9104     		addi	s1,s1,4
 247              	.LVL28:
 374:C:/Users/stapi/OneDrive/Desktop/GD32VW553/V1_MQTT_OK/GD32VW55X_Wifi_BLE_SDK/GD32VW55x_RELEASE_V1.0.2/MSDK/ble/app\app_adv_mgr.c ****             *p_buf++ = (uint8_t)(rand() & 0xFF);
 248              		.loc 1 374 35 discriminator 4
 249 00f0 130DCAFF 		addi	s10,s4,-4
 250              	.LVL29:
 251              	.L11:
 374:C:/Users/stapi/OneDrive/Desktop/GD32VW553/V1_MQTT_OK/GD32VW55X_Wifi_BLE_SDK/GD32VW55x_RELEASE_V1.0.2/MSDK/ble/app\app_adv_mgr.c ****             *p_buf++ = (uint8_t)(rand() & 0xFF);
 252              		.loc 1 374 21 is_stmt 1 discriminator 1
 374:C:/Users/stapi/OneDrive/Desktop/GD32VW553/V1_MQTT_OK/GD32VW55X_Wifi_BLE_SDK/GD32VW55x_RELEASE_V1.0.2/MSDK/ble/app\app_adv_mgr.c ****             *p_buf++ = (uint8_t)(rand() & 0xFF);
 253              		.loc 1 374 9 is_stmt 0 discriminator 1
 254 00f4 63C7A901 		blt	s3,s10,.L12
 376:C:/Users/stapi/OneDrive/Desktop/GD32VW553/V1_MQTT_OK/GD32VW55X_Wifi_BLE_SDK/GD32VW55x_RELEASE_V1.0.2/MSDK/ble/app\app_adv_mgr.c **** 
 255              		.loc 1 376 10 is_stmt 1
 378:C:/Users/stapi/OneDrive/Desktop/GD32VW553/V1_MQTT_OK/GD32VW55X_Wifi_BLE_SDK/GD32VW55x_RELEASE_V1.0.2/MSDK/ble/app\app_adv_mgr.c ****     }
 256              		.loc 1 378 9
 378:C:/Users/stapi/OneDrive/Desktop/GD32VW553/V1_MQTT_OK/GD32VW55X_Wifi_BLE_SDK/GD32VW55x_RELEASE_V1.0.2/MSDK/ble/app\app_adv_mgr.c ****     }
 257              		.loc 1 378 17 is_stmt 0
 258 00f8 33044441 		sub	s0,s0,s4
 259              	.LVL30:
 260 00fc 33440408 		zext.h	s0,s0
 261              	.LVL31:
 262 0100 E9B7     		j	.L9
 263              	.L12:
 375:C:/Users/stapi/OneDrive/Desktop/GD32VW553/V1_MQTT_OK/GD32VW55X_Wifi_BLE_SDK/GD32VW55x_RELEASE_V1.0.2/MSDK/ble/app\app_adv_mgr.c ****         };
 264              		.loc 1 375 13 is_stmt 1 discriminator 3
 375:C:/Users/stapi/OneDrive/Desktop/GD32VW553/V1_MQTT_OK/GD32VW55X_Wifi_BLE_SDK/GD32VW55x_RELEASE_V1.0.2/MSDK/ble/app\app_adv_mgr.c ****         };
 265              		.loc 1 375 34 is_stmt 0 discriminator 3
 266 0102 97000000 		call	rand
 266      E7800000 
 267              	.LVL32:
 374:C:/Users/stapi/OneDrive/Desktop/GD32VW553/V1_MQTT_OK/GD32VW55X_Wifi_BLE_SDK/GD32VW55x_RELEASE_V1.0.2/MSDK/ble/app\app_adv_mgr.c ****             *p_buf++ = (uint8_t)(rand() & 0xFF);
 268              		.loc 1 374 42 discriminator 3
 269 010a 8509     		addi	s3,s3,1
 270              	.LVL33:
 375:C:/Users/stapi/OneDrive/Desktop/GD32VW553/V1_MQTT_OK/GD32VW55X_Wifi_BLE_SDK/GD32VW55x_RELEASE_V1.0.2/MSDK/ble/app\app_adv_mgr.c ****         };
 271              		.loc 1 375 19 discriminator 3
 272 010c 8504     		addi	s1,s1,1
 273              	.LVL34:
 374:C:/Users/stapi/OneDrive/Desktop/GD32VW553/V1_MQTT_OK/GD32VW55X_Wifi_BLE_SDK/GD32VW55x_RELEASE_V1.0.2/MSDK/ble/app\app_adv_mgr.c ****             *p_buf++ = (uint8_t)(rand() & 0xFF);
 274              		.loc 1 374 42 discriminator 3
 275 010e 93F9F90F 		andi	s3,s3,0xff
 375:C:/Users/stapi/OneDrive/Desktop/GD32VW553/V1_MQTT_OK/GD32VW55X_Wifi_BLE_SDK/GD32VW55x_RELEASE_V1.0.2/MSDK/ble/app\app_adv_mgr.c ****         };
 276              		.loc 1 375 24 discriminator 3
 277 0112 A38FA4FE 		sb	a0,-1(s1)
 374:C:/Users/stapi/OneDrive/Desktop/GD32VW553/V1_MQTT_OK/GD32VW55X_Wifi_BLE_SDK/GD32VW55x_RELEASE_V1.0.2/MSDK/ble/app\app_adv_mgr.c ****             *p_buf++ = (uint8_t)(rand() & 0xFF);
 278              		.loc 1 374 41 is_stmt 1 discriminator 3
 279              	.LVL35:
 280 0116 F9BF     		j	.L11
 281              		.cfi_endproc
 282              	.LFE4:
 284              		.section	.text.app_adv_start,"ax",@progbits
 285              		.align	1
 287              	app_adv_start:
 288              	.LFB5:
 383:C:/Users/stapi/OneDrive/Desktop/GD32VW553/V1_MQTT_OK/GD32VW55X_Wifi_BLE_SDK/GD32VW55x_RELEASE_V1.0.2/MSDK/ble/app\app_adv_mgr.c **** 
 384:C:/Users/stapi/OneDrive/Desktop/GD32VW553/V1_MQTT_OK/GD32VW55X_Wifi_BLE_SDK/GD32VW55x_RELEASE_V1.0.2/MSDK/ble/app\app_adv_mgr.c **** /*!
 385:C:/Users/stapi/OneDrive/Desktop/GD32VW553/V1_MQTT_OK/GD32VW55X_Wifi_BLE_SDK/GD32VW55x_RELEASE_V1.0.2/MSDK/ble/app\app_adv_mgr.c ****     \brief      Start advertising
 386:C:/Users/stapi/OneDrive/Desktop/GD32VW553/V1_MQTT_OK/GD32VW55X_Wifi_BLE_SDK/GD32VW55x_RELEASE_V1.0.2/MSDK/ble/app\app_adv_mgr.c ****     \param[in]  p_adv: pointer to BLE advertising set
 387:C:/Users/stapi/OneDrive/Desktop/GD32VW553/V1_MQTT_OK/GD32VW55X_Wifi_BLE_SDK/GD32VW55x_RELEASE_V1.0.2/MSDK/ble/app\app_adv_mgr.c ****     \param[out] none
 388:C:/Users/stapi/OneDrive/Desktop/GD32VW553/V1_MQTT_OK/GD32VW55X_Wifi_BLE_SDK/GD32VW55x_RELEASE_V1.0.2/MSDK/ble/app\app_adv_mgr.c ****     \retval     none
 389:C:/Users/stapi/OneDrive/Desktop/GD32VW553/V1_MQTT_OK/GD32VW55X_Wifi_BLE_SDK/GD32VW55x_RELEASE_V1.0.2/MSDK/ble/app\app_adv_mgr.c **** */
 390:C:/Users/stapi/OneDrive/Desktop/GD32VW553/V1_MQTT_OK/GD32VW55X_Wifi_BLE_SDK/GD32VW55x_RELEASE_V1.0.2/MSDK/ble/app\app_adv_mgr.c **** static void app_adv_start(app_adv_set_t *p_adv)
 391:C:/Users/stapi/OneDrive/Desktop/GD32VW553/V1_MQTT_OK/GD32VW55X_Wifi_BLE_SDK/GD32VW55x_RELEASE_V1.0.2/MSDK/ble/app\app_adv_mgr.c **** {
 289              		.loc 1 391 1
 290              		.cfi_startproc
 291              	.LVL36:
 292 0000 17030000 		call	t0,__riscv_save_2
 292      E7020300 
 293              		.cfi_offset 9, -12
 294              		.cfi_offset 8, -8
 295              		.cfi_offset 1, -4
 296              		.cfi_def_cfa_offset 16
 392:C:/Users/stapi/OneDrive/Desktop/GD32VW553/V1_MQTT_OK/GD32VW55X_Wifi_BLE_SDK/GD32VW55x_RELEASE_V1.0.2/MSDK/ble/app\app_adv_mgr.c ****     ble_adv_data_set_t adv;
 297              		.loc 1 392 5
 393:C:/Users/stapi/OneDrive/Desktop/GD32VW553/V1_MQTT_OK/GD32VW55X_Wifi_BLE_SDK/GD32VW55x_RELEASE_V1.0.2/MSDK/ble/app\app_adv_mgr.c ****     ble_adv_data_set_t scan_rsp;
 298              		.loc 1 393 5
 394:C:/Users/stapi/OneDrive/Desktop/GD32VW553/V1_MQTT_OK/GD32VW55X_Wifi_BLE_SDK/GD32VW55x_RELEASE_V1.0.2/MSDK/ble/app\app_adv_mgr.c ****     ble_adv_data_set_t per_adv;
 299              		.loc 1 394 5
 395:C:/Users/stapi/OneDrive/Desktop/GD32VW553/V1_MQTT_OK/GD32VW55X_Wifi_BLE_SDK/GD32VW55x_RELEASE_V1.0.2/MSDK/ble/app\app_adv_mgr.c ****     uint8_t *p_adp_name = NULL;
 300              		.loc 1 395 5
 391:C:/Users/stapi/OneDrive/Desktop/GD32VW553/V1_MQTT_OK/GD32VW55X_Wifi_BLE_SDK/GD32VW55x_RELEASE_V1.0.2/MSDK/ble/app\app_adv_mgr.c ****     ble_adv_data_set_t adv;
 301              		.loc 1 391 1 is_stmt 0
 302 0008 2571     		addi	sp,sp,-416
 303              		.cfi_def_cfa_offset 432
 396:C:/Users/stapi/OneDrive/Desktop/GD32VW553/V1_MQTT_OK/GD32VW55X_Wifi_BLE_SDK/GD32VW55x_RELEASE_V1.0.2/MSDK/ble/app\app_adv_mgr.c ****     uint8_t adp_name_length;
 397:C:/Users/stapi/OneDrive/Desktop/GD32VW553/V1_MQTT_OK/GD32VW55X_Wifi_BLE_SDK/GD32VW55x_RELEASE_V1.0.2/MSDK/ble/app\app_adv_mgr.c **** 
 398:C:/Users/stapi/OneDrive/Desktop/GD32VW553/V1_MQTT_OK/GD32VW55X_Wifi_BLE_SDK/GD32VW55x_RELEASE_V1.0.2/MSDK/ble/app\app_adv_mgr.c ****     adv.data_force = true;
 304              		.loc 1 398 20
 305 000a 8547     		li	a5,1
 391:C:/Users/stapi/OneDrive/Desktop/GD32VW553/V1_MQTT_OK/GD32VW55X_Wifi_BLE_SDK/GD32VW55x_RELEASE_V1.0.2/MSDK/ble/app\app_adv_mgr.c ****     ble_adv_data_set_t adv;
 306              		.loc 1 391 1
 307 000c 2A84     		mv	s0,a0
 399:C:/Users/stapi/OneDrive/Desktop/GD32VW553/V1_MQTT_OK/GD32VW55X_Wifi_BLE_SDK/GD32VW55x_RELEASE_V1.0.2/MSDK/ble/app\app_adv_mgr.c ****     scan_rsp.data_force = true;
 400:C:/Users/stapi/OneDrive/Desktop/GD32VW553/V1_MQTT_OK/GD32VW55X_Wifi_BLE_SDK/GD32VW55x_RELEASE_V1.0.2/MSDK/ble/app\app_adv_mgr.c ****     per_adv.data_force = true;
 401:C:/Users/stapi/OneDrive/Desktop/GD32VW553/V1_MQTT_OK/GD32VW55X_Wifi_BLE_SDK/GD32VW55x_RELEASE_V1.0.2/MSDK/ble/app\app_adv_mgr.c ****     adp_name_length = app_adp_get_name(&p_adp_name);
 308              		.loc 1 401 23
 309 000e 4808     		addi	a0,sp,20
 310              	.LVL37:
 398:C:/Users/stapi/OneDrive/Desktop/GD32VW553/V1_MQTT_OK/GD32VW55X_Wifi_BLE_SDK/GD32VW55x_RELEASE_V1.0.2/MSDK/ble/app\app_adv_mgr.c ****     scan_rsp.data_force = true;
 311              		.loc 1 398 20
 312 0010 230EF100 		sb	a5,28(sp)
 399:C:/Users/stapi/OneDrive/Desktop/GD32VW553/V1_MQTT_OK/GD32VW55X_Wifi_BLE_SDK/GD32VW55x_RELEASE_V1.0.2/MSDK/ble/app\app_adv_mgr.c ****     scan_rsp.data_force = true;
 313              		.loc 1 399 25
 314 0014 2302F102 		sb	a5,36(sp)
 400:C:/Users/stapi/OneDrive/Desktop/GD32VW553/V1_MQTT_OK/GD32VW55X_Wifi_BLE_SDK/GD32VW55x_RELEASE_V1.0.2/MSDK/ble/app\app_adv_mgr.c ****     adp_name_length = app_adp_get_name(&p_adp_name);
 315              		.loc 1 400 24
 316 0018 2306F102 		sb	a5,44(sp)
 395:C:/Users/stapi/OneDrive/Desktop/GD32VW553/V1_MQTT_OK/GD32VW55X_Wifi_BLE_SDK/GD32VW55x_RELEASE_V1.0.2/MSDK/ble/app\app_adv_mgr.c ****     uint8_t adp_name_length;
 317              		.loc 1 395 14
 318 001c 02CA     		sw	zero,20(sp)
 396:C:/Users/stapi/OneDrive/Desktop/GD32VW553/V1_MQTT_OK/GD32VW55X_Wifi_BLE_SDK/GD32VW55x_RELEASE_V1.0.2/MSDK/ble/app\app_adv_mgr.c **** 
 319              		.loc 1 396 5 is_stmt 1
 398:C:/Users/stapi/OneDrive/Desktop/GD32VW553/V1_MQTT_OK/GD32VW55X_Wifi_BLE_SDK/GD32VW55x_RELEASE_V1.0.2/MSDK/ble/app\app_adv_mgr.c ****     scan_rsp.data_force = true;
 320              		.loc 1 398 5
 399:C:/Users/stapi/OneDrive/Desktop/GD32VW553/V1_MQTT_OK/GD32VW55X_Wifi_BLE_SDK/GD32VW55x_RELEASE_V1.0.2/MSDK/ble/app\app_adv_mgr.c ****     per_adv.data_force = true;
 321              		.loc 1 399 5
 400:C:/Users/stapi/OneDrive/Desktop/GD32VW553/V1_MQTT_OK/GD32VW55X_Wifi_BLE_SDK/GD32VW55x_RELEASE_V1.0.2/MSDK/ble/app\app_adv_mgr.c ****     adp_name_length = app_adp_get_name(&p_adp_name);
 322              		.loc 1 400 5
 323              		.loc 1 401 5
 324              		.loc 1 401 23 is_stmt 0
 325 001e 97000000 		call	app_adp_get_name
 325      E7800000 
 326              	.LVL38:
 402:C:/Users/stapi/OneDrive/Desktop/GD32VW553/V1_MQTT_OK/GD32VW55X_Wifi_BLE_SDK/GD32VW55x_RELEASE_V1.0.2/MSDK/ble/app\app_adv_mgr.c **** 
 403:C:/Users/stapi/OneDrive/Desktop/GD32VW553/V1_MQTT_OK/GD32VW55X_Wifi_BLE_SDK/GD32VW55x_RELEASE_V1.0.2/MSDK/ble/app\app_adv_mgr.c **** 
 404:C:/Users/stapi/OneDrive/Desktop/GD32VW553/V1_MQTT_OK/GD32VW55X_Wifi_BLE_SDK/GD32VW55x_RELEASE_V1.0.2/MSDK/ble/app\app_adv_mgr.c ****     switch (app_adv_env.adv_data_type) {
 327              		.loc 1 404 5 is_stmt 1
 328              		.loc 1 404 24 is_stmt 0
 329 0026 B7070000 		lui	a5,%hi(.LANCHOR0+1)
 330 002a 83C71700 		lbu	a5,%lo(.LANCHOR0+1)(a5)
 331 002e 1D47     		li	a4,7
 332 0030 FD17     		addi	a5,a5,-1
 333 0032 93F7F70F 		andi	a5,a5,0xff
 334 0036 6361F72E 		bgtu	a5,a4,.L24
 335 003a 37070000 		lui	a4,%hi(.L26)
 336 003e 13070700 		addi	a4,a4,%lo(.L26)
 337 0042 B3C7E720 		sh2add	a5,a5,a4
 338 0046 9C43     		lw	a5,0(a5)
 339 0048 8287     		jr	a5
 340              		.section	.rodata.app_adv_start,"a",@progbits
 341              		.align	2
 342              		.align	2
 343              	.L26:
 344 0000 00000000 		.word	.L33
 345 0004 00000000 		.word	.L32
 346 0008 00000000 		.word	.L31
 347 000c 00000000 		.word	.L30
 348 0010 00000000 		.word	.L29
 349 0014 00000000 		.word	.L28
 350 0018 00000000 		.word	.L27
 351 001c 00000000 		.word	.L25
 352              		.section	.text.app_adv_start
 353              	.L33:
 354              	.LBB7:
 405:C:/Users/stapi/OneDrive/Desktop/GD32VW553/V1_MQTT_OK/GD32VW55X_Wifi_BLE_SDK/GD32VW55x_RELEASE_V1.0.2/MSDK/ble/app\app_adv_mgr.c ****     case 1: {
 406:C:/Users/stapi/OneDrive/Desktop/GD32VW553/V1_MQTT_OK/GD32VW55X_Wifi_BLE_SDK/GD32VW55x_RELEASE_V1.0.2/MSDK/ble/app\app_adv_mgr.c ****         ble_data_t adv_data;
 355              		.loc 1 406 9 is_stmt 1
 407:C:/Users/stapi/OneDrive/Desktop/GD32VW553/V1_MQTT_OK/GD32VW55X_Wifi_BLE_SDK/GD32VW55x_RELEASE_V1.0.2/MSDK/ble/app\app_adv_mgr.c ****         ble_data_t per_adv_data;
 356              		.loc 1 407 9
 408:C:/Users/stapi/OneDrive/Desktop/GD32VW553/V1_MQTT_OK/GD32VW55X_Wifi_BLE_SDK/GD32VW55x_RELEASE_V1.0.2/MSDK/ble/app\app_adv_mgr.c **** 
 409:C:/Users/stapi/OneDrive/Desktop/GD32VW553/V1_MQTT_OK/GD32VW55X_Wifi_BLE_SDK/GD32VW55x_RELEASE_V1.0.2/MSDK/ble/app\app_adv_mgr.c ****         adv_data.len = 7;
 357              		.loc 1 409 9
 358              		.loc 1 409 22 is_stmt 0
 359 004a 9D47     		li	a5,7
 360 004c 231EF10C 		sh	a5,220(sp)
 410:C:/Users/stapi/OneDrive/Desktop/GD32VW553/V1_MQTT_OK/GD32VW55X_Wifi_BLE_SDK/GD32VW55x_RELEASE_V1.0.2/MSDK/ble/app\app_adv_mgr.c ****         adv_data.p_data = adv_data_1;
 361              		.loc 1 410 9 is_stmt 1
 362              		.loc 1 410 25 is_stmt 0
 363 0050 B7070000 		lui	a5,%hi(.LANCHOR1)
 364 0054 93870700 		addi	a5,a5,%lo(.LANCHOR1)
 365 0058 BECD     		sw	a5,216(sp)
 411:C:/Users/stapi/OneDrive/Desktop/GD32VW553/V1_MQTT_OK/GD32VW55X_Wifi_BLE_SDK/GD32VW55x_RELEASE_V1.0.2/MSDK/ble/app\app_adv_mgr.c **** 
 412:C:/Users/stapi/OneDrive/Desktop/GD32VW553/V1_MQTT_OK/GD32VW55X_Wifi_BLE_SDK/GD32VW55x_RELEASE_V1.0.2/MSDK/ble/app\app_adv_mgr.c ****         per_adv_data.len = 52;
 366              		.loc 1 412 9 is_stmt 1
 367              		.loc 1 412 26 is_stmt 0
 368 005a 93074003 		li	a5,52
 369 005e 2316F112 		sh	a5,300(sp)
 413:C:/Users/stapi/OneDrive/Desktop/GD32VW553/V1_MQTT_OK/GD32VW55X_Wifi_BLE_SDK/GD32VW55x_RELEASE_V1.0.2/MSDK/ble/app\app_adv_mgr.c ****         per_adv_data.p_data = per_data_1;
 370              		.loc 1 413 9 is_stmt 1
 371              		.loc 1 413 29 is_stmt 0
 372 0062 B7070000 		lui	a5,%hi(.LANCHOR2)
 373 0066 93870700 		addi	a5,a5,%lo(.LANCHOR2)
 374 006a 2324F112 		sw	a5,296(sp)
 414:C:/Users/stapi/OneDrive/Desktop/GD32VW553/V1_MQTT_OK/GD32VW55X_Wifi_BLE_SDK/GD32VW55x_RELEASE_V1.0.2/MSDK/ble/app\app_adv_mgr.c **** 
 415:C:/Users/stapi/OneDrive/Desktop/GD32VW553/V1_MQTT_OK/GD32VW55X_Wifi_BLE_SDK/GD32VW55x_RELEASE_V1.0.2/MSDK/ble/app\app_adv_mgr.c ****         adv.data.p_data_force = &adv_data;
 375              		.loc 1 415 9 is_stmt 1
 376              		.loc 1 415 31 is_stmt 0
 377 006e BC09     		addi	a5,sp,216
 378 0070 3ED0     		sw	a5,32(sp)
 416:C:/Users/stapi/OneDrive/Desktop/GD32VW553/V1_MQTT_OK/GD32VW55X_Wifi_BLE_SDK/GD32VW55x_RELEASE_V1.0.2/MSDK/ble/app\app_adv_mgr.c ****         scan_rsp.data.p_data_force = &adv_data;
 379              		.loc 1 416 9 is_stmt 1
 380              	.L54:
 381              	.LBE7:
 382              	.LBB8:
 417:C:/Users/stapi/OneDrive/Desktop/GD32VW553/V1_MQTT_OK/GD32VW55X_Wifi_BLE_SDK/GD32VW55x_RELEASE_V1.0.2/MSDK/ble/app\app_adv_mgr.c ****         per_adv.data.p_data_force = &per_adv_data;
 418:C:/Users/stapi/OneDrive/Desktop/GD32VW553/V1_MQTT_OK/GD32VW55X_Wifi_BLE_SDK/GD32VW55x_RELEASE_V1.0.2/MSDK/ble/app\app_adv_mgr.c **** 
 419:C:/Users/stapi/OneDrive/Desktop/GD32VW553/V1_MQTT_OK/GD32VW55X_Wifi_BLE_SDK/GD32VW55x_RELEASE_V1.0.2/MSDK/ble/app\app_adv_mgr.c ****         ble_adv_start(p_adv->idx, &adv, &scan_rsp, &per_adv);
 420:C:/Users/stapi/OneDrive/Desktop/GD32VW553/V1_MQTT_OK/GD32VW55X_Wifi_BLE_SDK/GD32VW55x_RELEASE_V1.0.2/MSDK/ble/app\app_adv_mgr.c ****     }
 421:C:/Users/stapi/OneDrive/Desktop/GD32VW553/V1_MQTT_OK/GD32VW55X_Wifi_BLE_SDK/GD32VW55x_RELEASE_V1.0.2/MSDK/ble/app\app_adv_mgr.c ****     break;
 422:C:/Users/stapi/OneDrive/Desktop/GD32VW553/V1_MQTT_OK/GD32VW55X_Wifi_BLE_SDK/GD32VW55x_RELEASE_V1.0.2/MSDK/ble/app\app_adv_mgr.c **** 
 423:C:/Users/stapi/OneDrive/Desktop/GD32VW553/V1_MQTT_OK/GD32VW55X_Wifi_BLE_SDK/GD32VW55x_RELEASE_V1.0.2/MSDK/ble/app\app_adv_mgr.c ****     case 2: {
 424:C:/Users/stapi/OneDrive/Desktop/GD32VW553/V1_MQTT_OK/GD32VW55X_Wifi_BLE_SDK/GD32VW55x_RELEASE_V1.0.2/MSDK/ble/app\app_adv_mgr.c ****         ble_data_t adv_data;
 425:C:/Users/stapi/OneDrive/Desktop/GD32VW553/V1_MQTT_OK/GD32VW55X_Wifi_BLE_SDK/GD32VW55x_RELEASE_V1.0.2/MSDK/ble/app\app_adv_mgr.c ****         ble_data_t sr_data;
 426:C:/Users/stapi/OneDrive/Desktop/GD32VW553/V1_MQTT_OK/GD32VW55X_Wifi_BLE_SDK/GD32VW55x_RELEASE_V1.0.2/MSDK/ble/app\app_adv_mgr.c ****         uint8_t *p_buf;
 427:C:/Users/stapi/OneDrive/Desktop/GD32VW553/V1_MQTT_OK/GD32VW55X_Wifi_BLE_SDK/GD32VW55x_RELEASE_V1.0.2/MSDK/ble/app\app_adv_mgr.c ****         uint16_t len;
 428:C:/Users/stapi/OneDrive/Desktop/GD32VW553/V1_MQTT_OK/GD32VW55X_Wifi_BLE_SDK/GD32VW55x_RELEASE_V1.0.2/MSDK/ble/app\app_adv_mgr.c **** 
 429:C:/Users/stapi/OneDrive/Desktop/GD32VW553/V1_MQTT_OK/GD32VW55X_Wifi_BLE_SDK/GD32VW55x_RELEASE_V1.0.2/MSDK/ble/app\app_adv_mgr.c ****         adv_data.len = 7;
 430:C:/Users/stapi/OneDrive/Desktop/GD32VW553/V1_MQTT_OK/GD32VW55X_Wifi_BLE_SDK/GD32VW55x_RELEASE_V1.0.2/MSDK/ble/app\app_adv_mgr.c ****         adv_data.p_data = adv_data_1;
 431:C:/Users/stapi/OneDrive/Desktop/GD32VW553/V1_MQTT_OK/GD32VW55X_Wifi_BLE_SDK/GD32VW55x_RELEASE_V1.0.2/MSDK/ble/app\app_adv_mgr.c ****         adv.data.p_data_force = &adv_data;
 432:C:/Users/stapi/OneDrive/Desktop/GD32VW553/V1_MQTT_OK/GD32VW55X_Wifi_BLE_SDK/GD32VW55x_RELEASE_V1.0.2/MSDK/ble/app\app_adv_mgr.c **** 
 433:C:/Users/stapi/OneDrive/Desktop/GD32VW553/V1_MQTT_OK/GD32VW55X_Wifi_BLE_SDK/GD32VW55x_RELEASE_V1.0.2/MSDK/ble/app\app_adv_mgr.c ****         p_buf = sys_malloc(p_adv->max_data_len);
 434:C:/Users/stapi/OneDrive/Desktop/GD32VW553/V1_MQTT_OK/GD32VW55X_Wifi_BLE_SDK/GD32VW55x_RELEASE_V1.0.2/MSDK/ble/app\app_adv_mgr.c ****         if (p_buf) {
 435:C:/Users/stapi/OneDrive/Desktop/GD32VW553/V1_MQTT_OK/GD32VW55X_Wifi_BLE_SDK/GD32VW55x_RELEASE_V1.0.2/MSDK/ble/app\app_adv_mgr.c ****             len = app_build_adv_data(p_adv, p_buf, p_adv->max_data_len, false);
 436:C:/Users/stapi/OneDrive/Desktop/GD32VW553/V1_MQTT_OK/GD32VW55X_Wifi_BLE_SDK/GD32VW55x_RELEASE_V1.0.2/MSDK/ble/app\app_adv_mgr.c **** 
 437:C:/Users/stapi/OneDrive/Desktop/GD32VW553/V1_MQTT_OK/GD32VW55X_Wifi_BLE_SDK/GD32VW55x_RELEASE_V1.0.2/MSDK/ble/app\app_adv_mgr.c ****             sr_data.p_data = p_buf;
 438:C:/Users/stapi/OneDrive/Desktop/GD32VW553/V1_MQTT_OK/GD32VW55X_Wifi_BLE_SDK/GD32VW55x_RELEASE_V1.0.2/MSDK/ble/app\app_adv_mgr.c ****             sr_data.len = len;
 439:C:/Users/stapi/OneDrive/Desktop/GD32VW553/V1_MQTT_OK/GD32VW55X_Wifi_BLE_SDK/GD32VW55x_RELEASE_V1.0.2/MSDK/ble/app\app_adv_mgr.c **** 
 440:C:/Users/stapi/OneDrive/Desktop/GD32VW553/V1_MQTT_OK/GD32VW55X_Wifi_BLE_SDK/GD32VW55x_RELEASE_V1.0.2/MSDK/ble/app\app_adv_mgr.c ****             scan_rsp.data.p_data_force = &sr_data;
 441:C:/Users/stapi/OneDrive/Desktop/GD32VW553/V1_MQTT_OK/GD32VW55X_Wifi_BLE_SDK/GD32VW55x_RELEASE_V1.0.2/MSDK/ble/app\app_adv_mgr.c ****             per_adv.data.p_data_force = &sr_data;
 442:C:/Users/stapi/OneDrive/Desktop/GD32VW553/V1_MQTT_OK/GD32VW55X_Wifi_BLE_SDK/GD32VW55x_RELEASE_V1.0.2/MSDK/ble/app\app_adv_mgr.c **** 
 443:C:/Users/stapi/OneDrive/Desktop/GD32VW553/V1_MQTT_OK/GD32VW55X_Wifi_BLE_SDK/GD32VW55x_RELEASE_V1.0.2/MSDK/ble/app\app_adv_mgr.c ****             ble_adv_start(p_adv->idx, &adv, &scan_rsp, &per_adv);
 444:C:/Users/stapi/OneDrive/Desktop/GD32VW553/V1_MQTT_OK/GD32VW55X_Wifi_BLE_SDK/GD32VW55x_RELEASE_V1.0.2/MSDK/ble/app\app_adv_mgr.c **** 
 445:C:/Users/stapi/OneDrive/Desktop/GD32VW553/V1_MQTT_OK/GD32VW55X_Wifi_BLE_SDK/GD32VW55x_RELEASE_V1.0.2/MSDK/ble/app\app_adv_mgr.c ****             sys_mfree(p_buf);
 446:C:/Users/stapi/OneDrive/Desktop/GD32VW553/V1_MQTT_OK/GD32VW55X_Wifi_BLE_SDK/GD32VW55x_RELEASE_V1.0.2/MSDK/ble/app\app_adv_mgr.c ****         }
 447:C:/Users/stapi/OneDrive/Desktop/GD32VW553/V1_MQTT_OK/GD32VW55X_Wifi_BLE_SDK/GD32VW55x_RELEASE_V1.0.2/MSDK/ble/app\app_adv_mgr.c ****     }
 448:C:/Users/stapi/OneDrive/Desktop/GD32VW553/V1_MQTT_OK/GD32VW55X_Wifi_BLE_SDK/GD32VW55x_RELEASE_V1.0.2/MSDK/ble/app\app_adv_mgr.c ****     break;
 449:C:/Users/stapi/OneDrive/Desktop/GD32VW553/V1_MQTT_OK/GD32VW55X_Wifi_BLE_SDK/GD32VW55x_RELEASE_V1.0.2/MSDK/ble/app\app_adv_mgr.c **** 
 450:C:/Users/stapi/OneDrive/Desktop/GD32VW553/V1_MQTT_OK/GD32VW55X_Wifi_BLE_SDK/GD32VW55x_RELEASE_V1.0.2/MSDK/ble/app\app_adv_mgr.c ****     case 3: {
 451:C:/Users/stapi/OneDrive/Desktop/GD32VW553/V1_MQTT_OK/GD32VW55X_Wifi_BLE_SDK/GD32VW55x_RELEASE_V1.0.2/MSDK/ble/app\app_adv_mgr.c ****         ble_data_t adv_data;
 452:C:/Users/stapi/OneDrive/Desktop/GD32VW553/V1_MQTT_OK/GD32VW55X_Wifi_BLE_SDK/GD32VW55x_RELEASE_V1.0.2/MSDK/ble/app\app_adv_mgr.c **** 
 453:C:/Users/stapi/OneDrive/Desktop/GD32VW553/V1_MQTT_OK/GD32VW55X_Wifi_BLE_SDK/GD32VW55x_RELEASE_V1.0.2/MSDK/ble/app\app_adv_mgr.c ****         adv_data.len = 25;
 454:C:/Users/stapi/OneDrive/Desktop/GD32VW553/V1_MQTT_OK/GD32VW55X_Wifi_BLE_SDK/GD32VW55x_RELEASE_V1.0.2/MSDK/ble/app\app_adv_mgr.c ****         adv_data.p_data = bqb_adv_data_1;
 455:C:/Users/stapi/OneDrive/Desktop/GD32VW553/V1_MQTT_OK/GD32VW55X_Wifi_BLE_SDK/GD32VW55x_RELEASE_V1.0.2/MSDK/ble/app\app_adv_mgr.c **** 
 456:C:/Users/stapi/OneDrive/Desktop/GD32VW553/V1_MQTT_OK/GD32VW55X_Wifi_BLE_SDK/GD32VW55x_RELEASE_V1.0.2/MSDK/ble/app\app_adv_mgr.c ****         adv.data.p_data_force = &adv_data;
 457:C:/Users/stapi/OneDrive/Desktop/GD32VW553/V1_MQTT_OK/GD32VW55X_Wifi_BLE_SDK/GD32VW55x_RELEASE_V1.0.2/MSDK/ble/app\app_adv_mgr.c **** 
 458:C:/Users/stapi/OneDrive/Desktop/GD32VW553/V1_MQTT_OK/GD32VW55X_Wifi_BLE_SDK/GD32VW55x_RELEASE_V1.0.2/MSDK/ble/app\app_adv_mgr.c ****         ble_adv_start(p_adv->idx, &adv, NULL, NULL);
 459:C:/Users/stapi/OneDrive/Desktop/GD32VW553/V1_MQTT_OK/GD32VW55X_Wifi_BLE_SDK/GD32VW55x_RELEASE_V1.0.2/MSDK/ble/app\app_adv_mgr.c ****     }
 460:C:/Users/stapi/OneDrive/Desktop/GD32VW553/V1_MQTT_OK/GD32VW55X_Wifi_BLE_SDK/GD32VW55x_RELEASE_V1.0.2/MSDK/ble/app\app_adv_mgr.c ****     break;
 461:C:/Users/stapi/OneDrive/Desktop/GD32VW553/V1_MQTT_OK/GD32VW55X_Wifi_BLE_SDK/GD32VW55x_RELEASE_V1.0.2/MSDK/ble/app\app_adv_mgr.c **** 
 462:C:/Users/stapi/OneDrive/Desktop/GD32VW553/V1_MQTT_OK/GD32VW55X_Wifi_BLE_SDK/GD32VW55x_RELEASE_V1.0.2/MSDK/ble/app\app_adv_mgr.c ****     case 4: {
 463:C:/Users/stapi/OneDrive/Desktop/GD32VW553/V1_MQTT_OK/GD32VW55X_Wifi_BLE_SDK/GD32VW55x_RELEASE_V1.0.2/MSDK/ble/app\app_adv_mgr.c ****         ble_data_t adv_data;
 464:C:/Users/stapi/OneDrive/Desktop/GD32VW553/V1_MQTT_OK/GD32VW55X_Wifi_BLE_SDK/GD32VW55x_RELEASE_V1.0.2/MSDK/ble/app\app_adv_mgr.c ****         ble_data_t scan_rsp_data;
 465:C:/Users/stapi/OneDrive/Desktop/GD32VW553/V1_MQTT_OK/GD32VW55X_Wifi_BLE_SDK/GD32VW55x_RELEASE_V1.0.2/MSDK/ble/app\app_adv_mgr.c ****         ble_data_t per_adv_data;
 466:C:/Users/stapi/OneDrive/Desktop/GD32VW553/V1_MQTT_OK/GD32VW55X_Wifi_BLE_SDK/GD32VW55x_RELEASE_V1.0.2/MSDK/ble/app\app_adv_mgr.c **** 
 467:C:/Users/stapi/OneDrive/Desktop/GD32VW553/V1_MQTT_OK/GD32VW55X_Wifi_BLE_SDK/GD32VW55x_RELEASE_V1.0.2/MSDK/ble/app\app_adv_mgr.c ****         adv_data.len = 24;
 468:C:/Users/stapi/OneDrive/Desktop/GD32VW553/V1_MQTT_OK/GD32VW55X_Wifi_BLE_SDK/GD32VW55x_RELEASE_V1.0.2/MSDK/ble/app\app_adv_mgr.c ****         adv_data.p_data = bqb_adv_data_2;
 469:C:/Users/stapi/OneDrive/Desktop/GD32VW553/V1_MQTT_OK/GD32VW55X_Wifi_BLE_SDK/GD32VW55x_RELEASE_V1.0.2/MSDK/ble/app\app_adv_mgr.c **** 
 470:C:/Users/stapi/OneDrive/Desktop/GD32VW553/V1_MQTT_OK/GD32VW55X_Wifi_BLE_SDK/GD32VW55x_RELEASE_V1.0.2/MSDK/ble/app\app_adv_mgr.c ****         scan_rsp_data.len = 27;
 471:C:/Users/stapi/OneDrive/Desktop/GD32VW553/V1_MQTT_OK/GD32VW55X_Wifi_BLE_SDK/GD32VW55x_RELEASE_V1.0.2/MSDK/ble/app\app_adv_mgr.c ****         scan_rsp_data.p_data = bqb_scan_rsp_data_2;
 472:C:/Users/stapi/OneDrive/Desktop/GD32VW553/V1_MQTT_OK/GD32VW55X_Wifi_BLE_SDK/GD32VW55x_RELEASE_V1.0.2/MSDK/ble/app\app_adv_mgr.c **** 
 473:C:/Users/stapi/OneDrive/Desktop/GD32VW553/V1_MQTT_OK/GD32VW55X_Wifi_BLE_SDK/GD32VW55x_RELEASE_V1.0.2/MSDK/ble/app\app_adv_mgr.c ****         per_adv_data.len = 27;
 474:C:/Users/stapi/OneDrive/Desktop/GD32VW553/V1_MQTT_OK/GD32VW55X_Wifi_BLE_SDK/GD32VW55x_RELEASE_V1.0.2/MSDK/ble/app\app_adv_mgr.c ****         per_adv_data.p_data = bqb_per_adv_data_2;
 475:C:/Users/stapi/OneDrive/Desktop/GD32VW553/V1_MQTT_OK/GD32VW55X_Wifi_BLE_SDK/GD32VW55x_RELEASE_V1.0.2/MSDK/ble/app\app_adv_mgr.c **** 
 476:C:/Users/stapi/OneDrive/Desktop/GD32VW553/V1_MQTT_OK/GD32VW55X_Wifi_BLE_SDK/GD32VW55x_RELEASE_V1.0.2/MSDK/ble/app\app_adv_mgr.c ****         adv.data.p_data_force = &adv_data;
 477:C:/Users/stapi/OneDrive/Desktop/GD32VW553/V1_MQTT_OK/GD32VW55X_Wifi_BLE_SDK/GD32VW55x_RELEASE_V1.0.2/MSDK/ble/app\app_adv_mgr.c ****         scan_rsp.data.p_data_force = &scan_rsp_data;
 383              		.loc 1 477 36 is_stmt 0 discriminator 4
 384 0072 3ED4     		sw	a5,40(sp)
 478:C:/Users/stapi/OneDrive/Desktop/GD32VW553/V1_MQTT_OK/GD32VW55X_Wifi_BLE_SDK/GD32VW55x_RELEASE_V1.0.2/MSDK/ble/app\app_adv_mgr.c ****         per_adv.data.p_data_force = &per_adv_data;
 385              		.loc 1 478 9 is_stmt 1 discriminator 4
 386              		.loc 1 478 35 is_stmt 0 discriminator 4
 387 0074 3C12     		addi	a5,sp,296
 388 0076 3ED8     		sw	a5,48(sp)
 479:C:/Users/stapi/OneDrive/Desktop/GD32VW553/V1_MQTT_OK/GD32VW55X_Wifi_BLE_SDK/GD32VW55x_RELEASE_V1.0.2/MSDK/ble/app\app_adv_mgr.c **** 
 480:C:/Users/stapi/OneDrive/Desktop/GD32VW553/V1_MQTT_OK/GD32VW55X_Wifi_BLE_SDK/GD32VW55x_RELEASE_V1.0.2/MSDK/ble/app\app_adv_mgr.c ****         ble_adv_start(p_adv->idx, &adv, &scan_rsp, &per_adv);
 389              		.loc 1 480 9 is_stmt 1 discriminator 4
 390 0078 7410     		addi	a3,sp,44
 391 007a 5010     		addi	a2,sp,36
 392 007c BDA8     		j	.L50
 393              	.L32:
 394              	.LBE8:
 395              	.LBB9:
 424:C:/Users/stapi/OneDrive/Desktop/GD32VW553/V1_MQTT_OK/GD32VW55X_Wifi_BLE_SDK/GD32VW55x_RELEASE_V1.0.2/MSDK/ble/app\app_adv_mgr.c ****         ble_data_t sr_data;
 396              		.loc 1 424 9
 425:C:/Users/stapi/OneDrive/Desktop/GD32VW553/V1_MQTT_OK/GD32VW55X_Wifi_BLE_SDK/GD32VW55x_RELEASE_V1.0.2/MSDK/ble/app\app_adv_mgr.c ****         uint8_t *p_buf;
 397              		.loc 1 425 9
 426:C:/Users/stapi/OneDrive/Desktop/GD32VW553/V1_MQTT_OK/GD32VW55X_Wifi_BLE_SDK/GD32VW55x_RELEASE_V1.0.2/MSDK/ble/app\app_adv_mgr.c ****         uint16_t len;
 398              		.loc 1 426 9
 427:C:/Users/stapi/OneDrive/Desktop/GD32VW553/V1_MQTT_OK/GD32VW55X_Wifi_BLE_SDK/GD32VW55x_RELEASE_V1.0.2/MSDK/ble/app\app_adv_mgr.c **** 
 399              		.loc 1 427 9
 429:C:/Users/stapi/OneDrive/Desktop/GD32VW553/V1_MQTT_OK/GD32VW55X_Wifi_BLE_SDK/GD32VW55x_RELEASE_V1.0.2/MSDK/ble/app\app_adv_mgr.c ****         adv_data.p_data = adv_data_1;
 400              		.loc 1 429 9
 429:C:/Users/stapi/OneDrive/Desktop/GD32VW553/V1_MQTT_OK/GD32VW55X_Wifi_BLE_SDK/GD32VW55x_RELEASE_V1.0.2/MSDK/ble/app\app_adv_mgr.c ****         adv_data.p_data = adv_data_1;
 401              		.loc 1 429 22 is_stmt 0
 402 007e 9D47     		li	a5,7
 403 0080 231EF10C 		sh	a5,220(sp)
 430:C:/Users/stapi/OneDrive/Desktop/GD32VW553/V1_MQTT_OK/GD32VW55X_Wifi_BLE_SDK/GD32VW55x_RELEASE_V1.0.2/MSDK/ble/app\app_adv_mgr.c ****         adv.data.p_data_force = &adv_data;
 404              		.loc 1 430 9 is_stmt 1
 433:C:/Users/stapi/OneDrive/Desktop/GD32VW553/V1_MQTT_OK/GD32VW55X_Wifi_BLE_SDK/GD32VW55x_RELEASE_V1.0.2/MSDK/ble/app\app_adv_mgr.c ****         if (p_buf) {
 405              		.loc 1 433 17 is_stmt 0
 406 0084 0355A400 		lhu	a0,10(s0)
 407              	.LVL39:
 430:C:/Users/stapi/OneDrive/Desktop/GD32VW553/V1_MQTT_OK/GD32VW55X_Wifi_BLE_SDK/GD32VW55x_RELEASE_V1.0.2/MSDK/ble/app\app_adv_mgr.c ****         adv.data.p_data_force = &adv_data;
 408              		.loc 1 430 25
 409 0088 B7070000 		lui	a5,%hi(.LANCHOR1)
 410 008c 93870700 		addi	a5,a5,%lo(.LANCHOR1)
 411 0090 BECD     		sw	a5,216(sp)
 431:C:/Users/stapi/OneDrive/Desktop/GD32VW553/V1_MQTT_OK/GD32VW55X_Wifi_BLE_SDK/GD32VW55x_RELEASE_V1.0.2/MSDK/ble/app\app_adv_mgr.c **** 
 412              		.loc 1 431 9 is_stmt 1
 431:C:/Users/stapi/OneDrive/Desktop/GD32VW553/V1_MQTT_OK/GD32VW55X_Wifi_BLE_SDK/GD32VW55x_RELEASE_V1.0.2/MSDK/ble/app\app_adv_mgr.c **** 
 413              		.loc 1 431 31 is_stmt 0
 414 0092 BC09     		addi	a5,sp,216
 415 0094 3ED0     		sw	a5,32(sp)
 433:C:/Users/stapi/OneDrive/Desktop/GD32VW553/V1_MQTT_OK/GD32VW55X_Wifi_BLE_SDK/GD32VW55x_RELEASE_V1.0.2/MSDK/ble/app\app_adv_mgr.c ****         if (p_buf) {
 416              		.loc 1 433 9 is_stmt 1
 433:C:/Users/stapi/OneDrive/Desktop/GD32VW553/V1_MQTT_OK/GD32VW55X_Wifi_BLE_SDK/GD32VW55x_RELEASE_V1.0.2/MSDK/ble/app\app_adv_mgr.c ****         if (p_buf) {
 417              		.loc 1 433 17 is_stmt 0
 418 0096 97000000 		call	sys_malloc
 418      E7800000 
 419              	.LVL40:
 420 009e AA84     		mv	s1,a0
 421              	.LVL41:
 434:C:/Users/stapi/OneDrive/Desktop/GD32VW553/V1_MQTT_OK/GD32VW55X_Wifi_BLE_SDK/GD32VW55x_RELEASE_V1.0.2/MSDK/ble/app\app_adv_mgr.c ****             len = app_build_adv_data(p_adv, p_buf, p_adv->max_data_len, false);
 422              		.loc 1 434 9 is_stmt 1
 434:C:/Users/stapi/OneDrive/Desktop/GD32VW553/V1_MQTT_OK/GD32VW55X_Wifi_BLE_SDK/GD32VW55x_RELEASE_V1.0.2/MSDK/ble/app\app_adv_mgr.c ****             len = app_build_adv_data(p_adv, p_buf, p_adv->max_data_len, false);
 423              		.loc 1 434 12 is_stmt 0
 424 00a0 25C5     		beq	a0,zero,.L23
 435:C:/Users/stapi/OneDrive/Desktop/GD32VW553/V1_MQTT_OK/GD32VW55X_Wifi_BLE_SDK/GD32VW55x_RELEASE_V1.0.2/MSDK/ble/app\app_adv_mgr.c **** 
 425              		.loc 1 435 13 is_stmt 1
 435:C:/Users/stapi/OneDrive/Desktop/GD32VW553/V1_MQTT_OK/GD32VW55X_Wifi_BLE_SDK/GD32VW55x_RELEASE_V1.0.2/MSDK/ble/app\app_adv_mgr.c **** 
 426              		.loc 1 435 19 is_stmt 0
 427 00a2 0356A400 		lhu	a2,10(s0)
 428 00a6 AA85     		mv	a1,a0
 429 00a8 8146     		li	a3,0
 430 00aa 2285     		mv	a0,s0
 431 00ac 97000000 		call	app_build_adv_data
 431      E7800000 
 432              	.LVL42:
 437:C:/Users/stapi/OneDrive/Desktop/GD32VW553/V1_MQTT_OK/GD32VW55X_Wifi_BLE_SDK/GD32VW55x_RELEASE_V1.0.2/MSDK/ble/app\app_adv_mgr.c ****             sr_data.len = len;
 433              		.loc 1 437 13 is_stmt 1
 440:C:/Users/stapi/OneDrive/Desktop/GD32VW553/V1_MQTT_OK/GD32VW55X_Wifi_BLE_SDK/GD32VW55x_RELEASE_V1.0.2/MSDK/ble/app\app_adv_mgr.c ****             per_adv.data.p_data_force = &sr_data;
 434              		.loc 1 440 40 is_stmt 0
 435 00b4 3C12     		addi	a5,sp,296
 437:C:/Users/stapi/OneDrive/Desktop/GD32VW553/V1_MQTT_OK/GD32VW55X_Wifi_BLE_SDK/GD32VW55x_RELEASE_V1.0.2/MSDK/ble/app\app_adv_mgr.c ****             sr_data.len = len;
 436              		.loc 1 437 28
 437 00b6 23249112 		sw	s1,296(sp)
 438:C:/Users/stapi/OneDrive/Desktop/GD32VW553/V1_MQTT_OK/GD32VW55X_Wifi_BLE_SDK/GD32VW55x_RELEASE_V1.0.2/MSDK/ble/app\app_adv_mgr.c **** 
 438              		.loc 1 438 13 is_stmt 1
 438:C:/Users/stapi/OneDrive/Desktop/GD32VW553/V1_MQTT_OK/GD32VW55X_Wifi_BLE_SDK/GD32VW55x_RELEASE_V1.0.2/MSDK/ble/app\app_adv_mgr.c **** 
 439              		.loc 1 438 25 is_stmt 0
 440 00ba 2316A112 		sh	a0,300(sp)
 440:C:/Users/stapi/OneDrive/Desktop/GD32VW553/V1_MQTT_OK/GD32VW55X_Wifi_BLE_SDK/GD32VW55x_RELEASE_V1.0.2/MSDK/ble/app\app_adv_mgr.c ****             per_adv.data.p_data_force = &sr_data;
 441              		.loc 1 440 13 is_stmt 1
 440:C:/Users/stapi/OneDrive/Desktop/GD32VW553/V1_MQTT_OK/GD32VW55X_Wifi_BLE_SDK/GD32VW55x_RELEASE_V1.0.2/MSDK/ble/app\app_adv_mgr.c ****             per_adv.data.p_data_force = &sr_data;
 442              		.loc 1 440 40 is_stmt 0
 443 00be 3ED4     		sw	a5,40(sp)
 441:C:/Users/stapi/OneDrive/Desktop/GD32VW553/V1_MQTT_OK/GD32VW55X_Wifi_BLE_SDK/GD32VW55x_RELEASE_V1.0.2/MSDK/ble/app\app_adv_mgr.c **** 
 444              		.loc 1 441 13 is_stmt 1
 441:C:/Users/stapi/OneDrive/Desktop/GD32VW553/V1_MQTT_OK/GD32VW55X_Wifi_BLE_SDK/GD32VW55x_RELEASE_V1.0.2/MSDK/ble/app\app_adv_mgr.c **** 
 445              		.loc 1 441 39 is_stmt 0
 446 00c0 3ED8     		sw	a5,48(sp)
 443:C:/Users/stapi/OneDrive/Desktop/GD32VW553/V1_MQTT_OK/GD32VW55X_Wifi_BLE_SDK/GD32VW55x_RELEASE_V1.0.2/MSDK/ble/app\app_adv_mgr.c **** 
 447              		.loc 1 443 13 is_stmt 1
 448              	.LVL43:
 449              	.L53:
 450              	.LBE9:
 451              	.LBB10:
 481:C:/Users/stapi/OneDrive/Desktop/GD32VW553/V1_MQTT_OK/GD32VW55X_Wifi_BLE_SDK/GD32VW55x_RELEASE_V1.0.2/MSDK/ble/app\app_adv_mgr.c ****     }
 482:C:/Users/stapi/OneDrive/Desktop/GD32VW553/V1_MQTT_OK/GD32VW55X_Wifi_BLE_SDK/GD32VW55x_RELEASE_V1.0.2/MSDK/ble/app\app_adv_mgr.c ****     break;
 483:C:/Users/stapi/OneDrive/Desktop/GD32VW553/V1_MQTT_OK/GD32VW55X_Wifi_BLE_SDK/GD32VW55x_RELEASE_V1.0.2/MSDK/ble/app\app_adv_mgr.c **** 
 484:C:/Users/stapi/OneDrive/Desktop/GD32VW553/V1_MQTT_OK/GD32VW55X_Wifi_BLE_SDK/GD32VW55x_RELEASE_V1.0.2/MSDK/ble/app\app_adv_mgr.c ****     case 5: {
 485:C:/Users/stapi/OneDrive/Desktop/GD32VW553/V1_MQTT_OK/GD32VW55X_Wifi_BLE_SDK/GD32VW55x_RELEASE_V1.0.2/MSDK/ble/app\app_adv_mgr.c ****         ble_data_t adv_data;
 486:C:/Users/stapi/OneDrive/Desktop/GD32VW553/V1_MQTT_OK/GD32VW55X_Wifi_BLE_SDK/GD32VW55x_RELEASE_V1.0.2/MSDK/ble/app\app_adv_mgr.c **** 
 487:C:/Users/stapi/OneDrive/Desktop/GD32VW553/V1_MQTT_OK/GD32VW55X_Wifi_BLE_SDK/GD32VW55x_RELEASE_V1.0.2/MSDK/ble/app\app_adv_mgr.c ****         adv_data.len = 22;
 488:C:/Users/stapi/OneDrive/Desktop/GD32VW553/V1_MQTT_OK/GD32VW55X_Wifi_BLE_SDK/GD32VW55x_RELEASE_V1.0.2/MSDK/ble/app\app_adv_mgr.c ****         adv_data.p_data = bqb_adv_data_3;
 489:C:/Users/stapi/OneDrive/Desktop/GD32VW553/V1_MQTT_OK/GD32VW55X_Wifi_BLE_SDK/GD32VW55x_RELEASE_V1.0.2/MSDK/ble/app\app_adv_mgr.c **** 
 490:C:/Users/stapi/OneDrive/Desktop/GD32VW553/V1_MQTT_OK/GD32VW55X_Wifi_BLE_SDK/GD32VW55x_RELEASE_V1.0.2/MSDK/ble/app\app_adv_mgr.c ****         adv.data.p_data_force = &adv_data;
 491:C:/Users/stapi/OneDrive/Desktop/GD32VW553/V1_MQTT_OK/GD32VW55X_Wifi_BLE_SDK/GD32VW55x_RELEASE_V1.0.2/MSDK/ble/app\app_adv_mgr.c **** 
 492:C:/Users/stapi/OneDrive/Desktop/GD32VW553/V1_MQTT_OK/GD32VW55X_Wifi_BLE_SDK/GD32VW55x_RELEASE_V1.0.2/MSDK/ble/app\app_adv_mgr.c ****         ble_adv_start(p_adv->idx, &adv, NULL, NULL);
 493:C:/Users/stapi/OneDrive/Desktop/GD32VW553/V1_MQTT_OK/GD32VW55X_Wifi_BLE_SDK/GD32VW55x_RELEASE_V1.0.2/MSDK/ble/app\app_adv_mgr.c ****     }
 494:C:/Users/stapi/OneDrive/Desktop/GD32VW553/V1_MQTT_OK/GD32VW55X_Wifi_BLE_SDK/GD32VW55x_RELEASE_V1.0.2/MSDK/ble/app\app_adv_mgr.c ****     break;
 495:C:/Users/stapi/OneDrive/Desktop/GD32VW553/V1_MQTT_OK/GD32VW55X_Wifi_BLE_SDK/GD32VW55x_RELEASE_V1.0.2/MSDK/ble/app\app_adv_mgr.c **** 
 496:C:/Users/stapi/OneDrive/Desktop/GD32VW553/V1_MQTT_OK/GD32VW55X_Wifi_BLE_SDK/GD32VW55x_RELEASE_V1.0.2/MSDK/ble/app\app_adv_mgr.c ****     case 6: {
 497:C:/Users/stapi/OneDrive/Desktop/GD32VW553/V1_MQTT_OK/GD32VW55X_Wifi_BLE_SDK/GD32VW55x_RELEASE_V1.0.2/MSDK/ble/app\app_adv_mgr.c ****         ble_data_t adv_data;
 498:C:/Users/stapi/OneDrive/Desktop/GD32VW553/V1_MQTT_OK/GD32VW55X_Wifi_BLE_SDK/GD32VW55x_RELEASE_V1.0.2/MSDK/ble/app\app_adv_mgr.c **** 
 499:C:/Users/stapi/OneDrive/Desktop/GD32VW553/V1_MQTT_OK/GD32VW55X_Wifi_BLE_SDK/GD32VW55x_RELEASE_V1.0.2/MSDK/ble/app\app_adv_mgr.c ****         adv_data.len = 28;
 500:C:/Users/stapi/OneDrive/Desktop/GD32VW553/V1_MQTT_OK/GD32VW55X_Wifi_BLE_SDK/GD32VW55x_RELEASE_V1.0.2/MSDK/ble/app\app_adv_mgr.c ****         adv_data.p_data = bqb_adv_data_4;
 501:C:/Users/stapi/OneDrive/Desktop/GD32VW553/V1_MQTT_OK/GD32VW55X_Wifi_BLE_SDK/GD32VW55x_RELEASE_V1.0.2/MSDK/ble/app\app_adv_mgr.c **** 
 502:C:/Users/stapi/OneDrive/Desktop/GD32VW553/V1_MQTT_OK/GD32VW55X_Wifi_BLE_SDK/GD32VW55x_RELEASE_V1.0.2/MSDK/ble/app\app_adv_mgr.c ****         adv.data.p_data_force = &adv_data;
 503:C:/Users/stapi/OneDrive/Desktop/GD32VW553/V1_MQTT_OK/GD32VW55X_Wifi_BLE_SDK/GD32VW55x_RELEASE_V1.0.2/MSDK/ble/app\app_adv_mgr.c **** 
 504:C:/Users/stapi/OneDrive/Desktop/GD32VW553/V1_MQTT_OK/GD32VW55X_Wifi_BLE_SDK/GD32VW55x_RELEASE_V1.0.2/MSDK/ble/app\app_adv_mgr.c ****         ble_adv_start(p_adv->idx, &adv, NULL, NULL);
 505:C:/Users/stapi/OneDrive/Desktop/GD32VW553/V1_MQTT_OK/GD32VW55X_Wifi_BLE_SDK/GD32VW55x_RELEASE_V1.0.2/MSDK/ble/app\app_adv_mgr.c ****     }
 506:C:/Users/stapi/OneDrive/Desktop/GD32VW553/V1_MQTT_OK/GD32VW55X_Wifi_BLE_SDK/GD32VW55x_RELEASE_V1.0.2/MSDK/ble/app\app_adv_mgr.c ****     break;
 507:C:/Users/stapi/OneDrive/Desktop/GD32VW553/V1_MQTT_OK/GD32VW55X_Wifi_BLE_SDK/GD32VW55x_RELEASE_V1.0.2/MSDK/ble/app\app_adv_mgr.c **** 
 508:C:/Users/stapi/OneDrive/Desktop/GD32VW553/V1_MQTT_OK/GD32VW55X_Wifi_BLE_SDK/GD32VW55x_RELEASE_V1.0.2/MSDK/ble/app\app_adv_mgr.c ****     case 7: {
 509:C:/Users/stapi/OneDrive/Desktop/GD32VW553/V1_MQTT_OK/GD32VW55X_Wifi_BLE_SDK/GD32VW55x_RELEASE_V1.0.2/MSDK/ble/app\app_adv_mgr.c ****         ble_data_t adv_data;
 510:C:/Users/stapi/OneDrive/Desktop/GD32VW553/V1_MQTT_OK/GD32VW55X_Wifi_BLE_SDK/GD32VW55x_RELEASE_V1.0.2/MSDK/ble/app\app_adv_mgr.c **** 
 511:C:/Users/stapi/OneDrive/Desktop/GD32VW553/V1_MQTT_OK/GD32VW55X_Wifi_BLE_SDK/GD32VW55x_RELEASE_V1.0.2/MSDK/ble/app\app_adv_mgr.c ****         adv_data.len = sizeof(adv_data_hogp);
 512:C:/Users/stapi/OneDrive/Desktop/GD32VW553/V1_MQTT_OK/GD32VW55X_Wifi_BLE_SDK/GD32VW55x_RELEASE_V1.0.2/MSDK/ble/app\app_adv_mgr.c ****         adv_data.p_data = adv_data_hogp;
 513:C:/Users/stapi/OneDrive/Desktop/GD32VW553/V1_MQTT_OK/GD32VW55X_Wifi_BLE_SDK/GD32VW55x_RELEASE_V1.0.2/MSDK/ble/app\app_adv_mgr.c **** 
 514:C:/Users/stapi/OneDrive/Desktop/GD32VW553/V1_MQTT_OK/GD32VW55X_Wifi_BLE_SDK/GD32VW55x_RELEASE_V1.0.2/MSDK/ble/app\app_adv_mgr.c ****         adv.data.p_data_force = &adv_data;
 515:C:/Users/stapi/OneDrive/Desktop/GD32VW553/V1_MQTT_OK/GD32VW55X_Wifi_BLE_SDK/GD32VW55x_RELEASE_V1.0.2/MSDK/ble/app\app_adv_mgr.c **** 
 516:C:/Users/stapi/OneDrive/Desktop/GD32VW553/V1_MQTT_OK/GD32VW55X_Wifi_BLE_SDK/GD32VW55x_RELEASE_V1.0.2/MSDK/ble/app\app_adv_mgr.c ****         ble_adv_start(p_adv->idx, &adv, NULL, NULL);
 517:C:/Users/stapi/OneDrive/Desktop/GD32VW553/V1_MQTT_OK/GD32VW55X_Wifi_BLE_SDK/GD32VW55x_RELEASE_V1.0.2/MSDK/ble/app\app_adv_mgr.c ****     }
 518:C:/Users/stapi/OneDrive/Desktop/GD32VW553/V1_MQTT_OK/GD32VW55X_Wifi_BLE_SDK/GD32VW55x_RELEASE_V1.0.2/MSDK/ble/app\app_adv_mgr.c ****     break;
 519:C:/Users/stapi/OneDrive/Desktop/GD32VW553/V1_MQTT_OK/GD32VW55X_Wifi_BLE_SDK/GD32VW55x_RELEASE_V1.0.2/MSDK/ble/app\app_adv_mgr.c **** 
 520:C:/Users/stapi/OneDrive/Desktop/GD32VW553/V1_MQTT_OK/GD32VW55X_Wifi_BLE_SDK/GD32VW55x_RELEASE_V1.0.2/MSDK/ble/app\app_adv_mgr.c ****     case 8: {
 521:C:/Users/stapi/OneDrive/Desktop/GD32VW553/V1_MQTT_OK/GD32VW55X_Wifi_BLE_SDK/GD32VW55x_RELEASE_V1.0.2/MSDK/ble/app\app_adv_mgr.c ****         uint8_t i;
 522:C:/Users/stapi/OneDrive/Desktop/GD32VW553/V1_MQTT_OK/GD32VW55X_Wifi_BLE_SDK/GD32VW55x_RELEASE_V1.0.2/MSDK/ble/app\app_adv_mgr.c ****         uint8_t s_data[3] = {0x00, 0x11, 0x22};
 523:C:/Users/stapi/OneDrive/Desktop/GD32VW553/V1_MQTT_OK/GD32VW55X_Wifi_BLE_SDK/GD32VW55x_RELEASE_V1.0.2/MSDK/ble/app\app_adv_mgr.c ****         int8_t tx_pwr = -80;
 524:C:/Users/stapi/OneDrive/Desktop/GD32VW553/V1_MQTT_OK/GD32VW55X_Wifi_BLE_SDK/GD32VW55x_RELEASE_V1.0.2/MSDK/ble/app\app_adv_mgr.c ****         ble_adv_data_conn_intv_t slave_conn_intv;
 525:C:/Users/stapi/OneDrive/Desktop/GD32VW553/V1_MQTT_OK/GD32VW55X_Wifi_BLE_SDK/GD32VW55x_RELEASE_V1.0.2/MSDK/ble/app\app_adv_mgr.c ****         ble_adv_data_srv_data_t srv_data[2];
 526:C:/Users/stapi/OneDrive/Desktop/GD32VW553/V1_MQTT_OK/GD32VW55X_Wifi_BLE_SDK/GD32VW55x_RELEASE_V1.0.2/MSDK/ble/app\app_adv_mgr.c ****         ble_adv_data_manuf_data_t manuf_data;
 527:C:/Users/stapi/OneDrive/Desktop/GD32VW553/V1_MQTT_OK/GD32VW55X_Wifi_BLE_SDK/GD32VW55x_RELEASE_V1.0.2/MSDK/ble/app\app_adv_mgr.c ****         ble_uuid_t uuid_more[2];
 528:C:/Users/stapi/OneDrive/Desktop/GD32VW553/V1_MQTT_OK/GD32VW55X_Wifi_BLE_SDK/GD32VW55x_RELEASE_V1.0.2/MSDK/ble/app\app_adv_mgr.c ****         ble_uuid_t uuid_cmpl[3];
 529:C:/Users/stapi/OneDrive/Desktop/GD32VW553/V1_MQTT_OK/GD32VW55X_Wifi_BLE_SDK/GD32VW55x_RELEASE_V1.0.2/MSDK/ble/app\app_adv_mgr.c ****         ble_uuid_t uuid_solicited[6];
 530:C:/Users/stapi/OneDrive/Desktop/GD32VW553/V1_MQTT_OK/GD32VW55X_Wifi_BLE_SDK/GD32VW55x_RELEASE_V1.0.2/MSDK/ble/app\app_adv_mgr.c ****         ble_adv_data_t adv_data;
 531:C:/Users/stapi/OneDrive/Desktop/GD32VW553/V1_MQTT_OK/GD32VW55X_Wifi_BLE_SDK/GD32VW55x_RELEASE_V1.0.2/MSDK/ble/app\app_adv_mgr.c **** 
 532:C:/Users/stapi/OneDrive/Desktop/GD32VW553/V1_MQTT_OK/GD32VW55X_Wifi_BLE_SDK/GD32VW55x_RELEASE_V1.0.2/MSDK/ble/app\app_adv_mgr.c ****         memset(&adv_data, 0, sizeof(ble_adv_data_t));
 533:C:/Users/stapi/OneDrive/Desktop/GD32VW553/V1_MQTT_OK/GD32VW55X_Wifi_BLE_SDK/GD32VW55x_RELEASE_V1.0.2/MSDK/ble/app\app_adv_mgr.c **** 
 534:C:/Users/stapi/OneDrive/Desktop/GD32VW553/V1_MQTT_OK/GD32VW55X_Wifi_BLE_SDK/GD32VW55x_RELEASE_V1.0.2/MSDK/ble/app\app_adv_mgr.c ****         adv_data.local_name.type = BLE_ADV_DATA_FULL_NAME;
 535:C:/Users/stapi/OneDrive/Desktop/GD32VW553/V1_MQTT_OK/GD32VW55X_Wifi_BLE_SDK/GD32VW55x_RELEASE_V1.0.2/MSDK/ble/app\app_adv_mgr.c ****         adv_data.local_name.name_len = adp_name_length;
 536:C:/Users/stapi/OneDrive/Desktop/GD32VW553/V1_MQTT_OK/GD32VW55X_Wifi_BLE_SDK/GD32VW55x_RELEASE_V1.0.2/MSDK/ble/app\app_adv_mgr.c ****         adv_data.local_name.p_name = (uint8_t *)p_adp_name;
 537:C:/Users/stapi/OneDrive/Desktop/GD32VW553/V1_MQTT_OK/GD32VW55X_Wifi_BLE_SDK/GD32VW55x_RELEASE_V1.0.2/MSDK/ble/app\app_adv_mgr.c **** 
 538:C:/Users/stapi/OneDrive/Desktop/GD32VW553/V1_MQTT_OK/GD32VW55X_Wifi_BLE_SDK/GD32VW55x_RELEASE_V1.0.2/MSDK/ble/app\app_adv_mgr.c ****         if (p_adv->disc_mode == BLE_GAP_ADV_MODE_LIM_DISC) {
 539:C:/Users/stapi/OneDrive/Desktop/GD32VW553/V1_MQTT_OK/GD32VW55X_Wifi_BLE_SDK/GD32VW55x_RELEASE_V1.0.2/MSDK/ble/app\app_adv_mgr.c ****             adv_data.flags = BLE_GAP_ADV_FLAG_LE_ONLY_LIMITED_DISC_MODE;
 540:C:/Users/stapi/OneDrive/Desktop/GD32VW553/V1_MQTT_OK/GD32VW55X_Wifi_BLE_SDK/GD32VW55x_RELEASE_V1.0.2/MSDK/ble/app\app_adv_mgr.c ****         }
 541:C:/Users/stapi/OneDrive/Desktop/GD32VW553/V1_MQTT_OK/GD32VW55X_Wifi_BLE_SDK/GD32VW55x_RELEASE_V1.0.2/MSDK/ble/app\app_adv_mgr.c **** 
 542:C:/Users/stapi/OneDrive/Desktop/GD32VW553/V1_MQTT_OK/GD32VW55X_Wifi_BLE_SDK/GD32VW55x_RELEASE_V1.0.2/MSDK/ble/app\app_adv_mgr.c ****         else {
 543:C:/Users/stapi/OneDrive/Desktop/GD32VW553/V1_MQTT_OK/GD32VW55X_Wifi_BLE_SDK/GD32VW55x_RELEASE_V1.0.2/MSDK/ble/app\app_adv_mgr.c ****             adv_data.flags = BLE_GAP_ADV_FLAG_LE_ONLY_GENERAL_DISC_MODE;
 544:C:/Users/stapi/OneDrive/Desktop/GD32VW553/V1_MQTT_OK/GD32VW55X_Wifi_BLE_SDK/GD32VW55x_RELEASE_V1.0.2/MSDK/ble/app\app_adv_mgr.c ****         }
 545:C:/Users/stapi/OneDrive/Desktop/GD32VW553/V1_MQTT_OK/GD32VW55X_Wifi_BLE_SDK/GD32VW55x_RELEASE_V1.0.2/MSDK/ble/app\app_adv_mgr.c **** 
 546:C:/Users/stapi/OneDrive/Desktop/GD32VW553/V1_MQTT_OK/GD32VW55X_Wifi_BLE_SDK/GD32VW55x_RELEASE_V1.0.2/MSDK/ble/app\app_adv_mgr.c ****         adv_data.appearance = BLE_APPEARANCE_GENERIC_REMOTE_CONTROL;
 547:C:/Users/stapi/OneDrive/Desktop/GD32VW553/V1_MQTT_OK/GD32VW55X_Wifi_BLE_SDK/GD32VW55x_RELEASE_V1.0.2/MSDK/ble/app\app_adv_mgr.c ****         adv_data.p_tx_pwr = &tx_pwr;
 548:C:/Users/stapi/OneDrive/Desktop/GD32VW553/V1_MQTT_OK/GD32VW55X_Wifi_BLE_SDK/GD32VW55x_RELEASE_V1.0.2/MSDK/ble/app\app_adv_mgr.c **** 
 549:C:/Users/stapi/OneDrive/Desktop/GD32VW553/V1_MQTT_OK/GD32VW55X_Wifi_BLE_SDK/GD32VW55x_RELEASE_V1.0.2/MSDK/ble/app\app_adv_mgr.c ****         adv_data.p_pub_tgt_addr = p_adv->peer_addr.addr;
 550:C:/Users/stapi/OneDrive/Desktop/GD32VW553/V1_MQTT_OK/GD32VW55X_Wifi_BLE_SDK/GD32VW55x_RELEASE_V1.0.2/MSDK/ble/app\app_adv_mgr.c ****         adv_data.p_rand_tgt_addr = p_adv->peer_addr.addr;
 551:C:/Users/stapi/OneDrive/Desktop/GD32VW553/V1_MQTT_OK/GD32VW55X_Wifi_BLE_SDK/GD32VW55x_RELEASE_V1.0.2/MSDK/ble/app\app_adv_mgr.c **** 
 552:C:/Users/stapi/OneDrive/Desktop/GD32VW553/V1_MQTT_OK/GD32VW55X_Wifi_BLE_SDK/GD32VW55x_RELEASE_V1.0.2/MSDK/ble/app\app_adv_mgr.c ****         adv_data.adv_intv = 0x00A0;
 553:C:/Users/stapi/OneDrive/Desktop/GD32VW553/V1_MQTT_OK/GD32VW55X_Wifi_BLE_SDK/GD32VW55x_RELEASE_V1.0.2/MSDK/ble/app\app_adv_mgr.c **** 
 554:C:/Users/stapi/OneDrive/Desktop/GD32VW553/V1_MQTT_OK/GD32VW55X_Wifi_BLE_SDK/GD32VW55x_RELEASE_V1.0.2/MSDK/ble/app\app_adv_mgr.c ****         slave_conn_intv.min_conn_intv = 0x0010;
 555:C:/Users/stapi/OneDrive/Desktop/GD32VW553/V1_MQTT_OK/GD32VW55X_Wifi_BLE_SDK/GD32VW55x_RELEASE_V1.0.2/MSDK/ble/app\app_adv_mgr.c ****         slave_conn_intv.max_conn_intv = 0x0100;
 556:C:/Users/stapi/OneDrive/Desktop/GD32VW553/V1_MQTT_OK/GD32VW55X_Wifi_BLE_SDK/GD32VW55x_RELEASE_V1.0.2/MSDK/ble/app\app_adv_mgr.c ****         adv_data.p_slave_conn_intv = &slave_conn_intv;
 557:C:/Users/stapi/OneDrive/Desktop/GD32VW553/V1_MQTT_OK/GD32VW55X_Wifi_BLE_SDK/GD32VW55x_RELEASE_V1.0.2/MSDK/ble/app\app_adv_mgr.c **** 
 558:C:/Users/stapi/OneDrive/Desktop/GD32VW553/V1_MQTT_OK/GD32VW55X_Wifi_BLE_SDK/GD32VW55x_RELEASE_V1.0.2/MSDK/ble/app\app_adv_mgr.c ****         uuid_more[0].type = BLE_UUID_TYPE_16;
 559:C:/Users/stapi/OneDrive/Desktop/GD32VW553/V1_MQTT_OK/GD32VW55X_Wifi_BLE_SDK/GD32VW55x_RELEASE_V1.0.2/MSDK/ble/app\app_adv_mgr.c ****         uuid_more[0].data.uuid_16 = 0x1234;
 560:C:/Users/stapi/OneDrive/Desktop/GD32VW553/V1_MQTT_OK/GD32VW55X_Wifi_BLE_SDK/GD32VW55x_RELEASE_V1.0.2/MSDK/ble/app\app_adv_mgr.c ****         uuid_more[1].type = BLE_UUID_TYPE_16;
 561:C:/Users/stapi/OneDrive/Desktop/GD32VW553/V1_MQTT_OK/GD32VW55X_Wifi_BLE_SDK/GD32VW55x_RELEASE_V1.0.2/MSDK/ble/app\app_adv_mgr.c ****         uuid_more[1].data.uuid_16 = 0x5678;
 562:C:/Users/stapi/OneDrive/Desktop/GD32VW553/V1_MQTT_OK/GD32VW55X_Wifi_BLE_SDK/GD32VW55x_RELEASE_V1.0.2/MSDK/ble/app\app_adv_mgr.c ****         adv_data.uuid_more_available.uuid_cnt = 2;
 563:C:/Users/stapi/OneDrive/Desktop/GD32VW553/V1_MQTT_OK/GD32VW55X_Wifi_BLE_SDK/GD32VW55x_RELEASE_V1.0.2/MSDK/ble/app\app_adv_mgr.c ****         adv_data.uuid_more_available.p_uuid = uuid_more;
 564:C:/Users/stapi/OneDrive/Desktop/GD32VW553/V1_MQTT_OK/GD32VW55X_Wifi_BLE_SDK/GD32VW55x_RELEASE_V1.0.2/MSDK/ble/app\app_adv_mgr.c **** 
 565:C:/Users/stapi/OneDrive/Desktop/GD32VW553/V1_MQTT_OK/GD32VW55X_Wifi_BLE_SDK/GD32VW55x_RELEASE_V1.0.2/MSDK/ble/app\app_adv_mgr.c ****         uuid_cmpl[0].type = BLE_UUID_TYPE_16;
 566:C:/Users/stapi/OneDrive/Desktop/GD32VW553/V1_MQTT_OK/GD32VW55X_Wifi_BLE_SDK/GD32VW55x_RELEASE_V1.0.2/MSDK/ble/app\app_adv_mgr.c ****         uuid_cmpl[0].data.uuid_16 = 0x1234;
 567:C:/Users/stapi/OneDrive/Desktop/GD32VW553/V1_MQTT_OK/GD32VW55X_Wifi_BLE_SDK/GD32VW55x_RELEASE_V1.0.2/MSDK/ble/app\app_adv_mgr.c ****         uuid_cmpl[1].type = BLE_UUID_TYPE_32;
 568:C:/Users/stapi/OneDrive/Desktop/GD32VW553/V1_MQTT_OK/GD32VW55X_Wifi_BLE_SDK/GD32VW55x_RELEASE_V1.0.2/MSDK/ble/app\app_adv_mgr.c ****         uuid_cmpl[1].data.uuid_32 = 0x56789ABC;
 569:C:/Users/stapi/OneDrive/Desktop/GD32VW553/V1_MQTT_OK/GD32VW55X_Wifi_BLE_SDK/GD32VW55x_RELEASE_V1.0.2/MSDK/ble/app\app_adv_mgr.c ****         uuid_cmpl[2].type = BLE_UUID_TYPE_128;
 570:C:/Users/stapi/OneDrive/Desktop/GD32VW553/V1_MQTT_OK/GD32VW55X_Wifi_BLE_SDK/GD32VW55x_RELEASE_V1.0.2/MSDK/ble/app\app_adv_mgr.c ****         for (i = 0; i < 16; i++) {
 571:C:/Users/stapi/OneDrive/Desktop/GD32VW553/V1_MQTT_OK/GD32VW55X_Wifi_BLE_SDK/GD32VW55x_RELEASE_V1.0.2/MSDK/ble/app\app_adv_mgr.c ****             uuid_cmpl[2].data.uuid_128[i] = i;
 572:C:/Users/stapi/OneDrive/Desktop/GD32VW553/V1_MQTT_OK/GD32VW55X_Wifi_BLE_SDK/GD32VW55x_RELEASE_V1.0.2/MSDK/ble/app\app_adv_mgr.c ****         }
 573:C:/Users/stapi/OneDrive/Desktop/GD32VW553/V1_MQTT_OK/GD32VW55X_Wifi_BLE_SDK/GD32VW55x_RELEASE_V1.0.2/MSDK/ble/app\app_adv_mgr.c ****         adv_data.uuid_complete.uuid_cnt = 3;
 574:C:/Users/stapi/OneDrive/Desktop/GD32VW553/V1_MQTT_OK/GD32VW55X_Wifi_BLE_SDK/GD32VW55x_RELEASE_V1.0.2/MSDK/ble/app\app_adv_mgr.c ****         adv_data.uuid_complete.p_uuid = uuid_cmpl;
 575:C:/Users/stapi/OneDrive/Desktop/GD32VW553/V1_MQTT_OK/GD32VW55X_Wifi_BLE_SDK/GD32VW55x_RELEASE_V1.0.2/MSDK/ble/app\app_adv_mgr.c **** 
 576:C:/Users/stapi/OneDrive/Desktop/GD32VW553/V1_MQTT_OK/GD32VW55X_Wifi_BLE_SDK/GD32VW55x_RELEASE_V1.0.2/MSDK/ble/app\app_adv_mgr.c ****         uuid_solicited[0].type = BLE_UUID_TYPE_16;
 577:C:/Users/stapi/OneDrive/Desktop/GD32VW553/V1_MQTT_OK/GD32VW55X_Wifi_BLE_SDK/GD32VW55x_RELEASE_V1.0.2/MSDK/ble/app\app_adv_mgr.c ****         uuid_solicited[0].data.uuid_16 = 0x1234;
 578:C:/Users/stapi/OneDrive/Desktop/GD32VW553/V1_MQTT_OK/GD32VW55X_Wifi_BLE_SDK/GD32VW55x_RELEASE_V1.0.2/MSDK/ble/app\app_adv_mgr.c ****         uuid_solicited[1].type = BLE_UUID_TYPE_32;
 579:C:/Users/stapi/OneDrive/Desktop/GD32VW553/V1_MQTT_OK/GD32VW55X_Wifi_BLE_SDK/GD32VW55x_RELEASE_V1.0.2/MSDK/ble/app\app_adv_mgr.c ****         uuid_solicited[1].data.uuid_32 = 0x11223344;
 580:C:/Users/stapi/OneDrive/Desktop/GD32VW553/V1_MQTT_OK/GD32VW55X_Wifi_BLE_SDK/GD32VW55x_RELEASE_V1.0.2/MSDK/ble/app\app_adv_mgr.c ****         uuid_solicited[2].type = BLE_UUID_TYPE_16;
 581:C:/Users/stapi/OneDrive/Desktop/GD32VW553/V1_MQTT_OK/GD32VW55X_Wifi_BLE_SDK/GD32VW55x_RELEASE_V1.0.2/MSDK/ble/app\app_adv_mgr.c ****         uuid_solicited[2].data.uuid_16 = 0x5678;
 582:C:/Users/stapi/OneDrive/Desktop/GD32VW553/V1_MQTT_OK/GD32VW55X_Wifi_BLE_SDK/GD32VW55x_RELEASE_V1.0.2/MSDK/ble/app\app_adv_mgr.c ****         uuid_solicited[3].type = BLE_UUID_TYPE_32;
 583:C:/Users/stapi/OneDrive/Desktop/GD32VW553/V1_MQTT_OK/GD32VW55X_Wifi_BLE_SDK/GD32VW55x_RELEASE_V1.0.2/MSDK/ble/app\app_adv_mgr.c ****         uuid_solicited[3].data.uuid_32 = 0x55667788;
 584:C:/Users/stapi/OneDrive/Desktop/GD32VW553/V1_MQTT_OK/GD32VW55X_Wifi_BLE_SDK/GD32VW55x_RELEASE_V1.0.2/MSDK/ble/app\app_adv_mgr.c ****         uuid_solicited[4].type = BLE_UUID_TYPE_16;
 585:C:/Users/stapi/OneDrive/Desktop/GD32VW553/V1_MQTT_OK/GD32VW55X_Wifi_BLE_SDK/GD32VW55x_RELEASE_V1.0.2/MSDK/ble/app\app_adv_mgr.c ****         uuid_solicited[4].data.uuid_16 = 0xABCD;
 586:C:/Users/stapi/OneDrive/Desktop/GD32VW553/V1_MQTT_OK/GD32VW55X_Wifi_BLE_SDK/GD32VW55x_RELEASE_V1.0.2/MSDK/ble/app\app_adv_mgr.c ****         uuid_solicited[5].type = BLE_UUID_TYPE_32;
 587:C:/Users/stapi/OneDrive/Desktop/GD32VW553/V1_MQTT_OK/GD32VW55X_Wifi_BLE_SDK/GD32VW55x_RELEASE_V1.0.2/MSDK/ble/app\app_adv_mgr.c ****         uuid_solicited[5].data.uuid_32 = 0xAABBCCDD;
 588:C:/Users/stapi/OneDrive/Desktop/GD32VW553/V1_MQTT_OK/GD32VW55X_Wifi_BLE_SDK/GD32VW55x_RELEASE_V1.0.2/MSDK/ble/app\app_adv_mgr.c ****         adv_data.uuid_solicited.uuid_cnt = 6;
 589:C:/Users/stapi/OneDrive/Desktop/GD32VW553/V1_MQTT_OK/GD32VW55X_Wifi_BLE_SDK/GD32VW55x_RELEASE_V1.0.2/MSDK/ble/app\app_adv_mgr.c ****         adv_data.uuid_solicited.p_uuid = uuid_solicited;
 590:C:/Users/stapi/OneDrive/Desktop/GD32VW553/V1_MQTT_OK/GD32VW55X_Wifi_BLE_SDK/GD32VW55x_RELEASE_V1.0.2/MSDK/ble/app\app_adv_mgr.c **** 
 591:C:/Users/stapi/OneDrive/Desktop/GD32VW553/V1_MQTT_OK/GD32VW55X_Wifi_BLE_SDK/GD32VW55x_RELEASE_V1.0.2/MSDK/ble/app\app_adv_mgr.c ****         srv_data[0].uuid.type = BLE_UUID_TYPE_16;
 592:C:/Users/stapi/OneDrive/Desktop/GD32VW553/V1_MQTT_OK/GD32VW55X_Wifi_BLE_SDK/GD32VW55x_RELEASE_V1.0.2/MSDK/ble/app\app_adv_mgr.c ****         srv_data[0].uuid.data.uuid_16 = 0x1199;
 593:C:/Users/stapi/OneDrive/Desktop/GD32VW553/V1_MQTT_OK/GD32VW55X_Wifi_BLE_SDK/GD32VW55x_RELEASE_V1.0.2/MSDK/ble/app\app_adv_mgr.c ****         srv_data[0].data_len = 8;
 594:C:/Users/stapi/OneDrive/Desktop/GD32VW553/V1_MQTT_OK/GD32VW55X_Wifi_BLE_SDK/GD32VW55x_RELEASE_V1.0.2/MSDK/ble/app\app_adv_mgr.c ****         srv_data[0].p_data = service_data;
 595:C:/Users/stapi/OneDrive/Desktop/GD32VW553/V1_MQTT_OK/GD32VW55X_Wifi_BLE_SDK/GD32VW55x_RELEASE_V1.0.2/MSDK/ble/app\app_adv_mgr.c ****         srv_data[1].uuid.type = BLE_UUID_TYPE_32;
 596:C:/Users/stapi/OneDrive/Desktop/GD32VW553/V1_MQTT_OK/GD32VW55X_Wifi_BLE_SDK/GD32VW55x_RELEASE_V1.0.2/MSDK/ble/app\app_adv_mgr.c ****         srv_data[1].uuid.data.uuid_32 = 0x12345678;
 597:C:/Users/stapi/OneDrive/Desktop/GD32VW553/V1_MQTT_OK/GD32VW55X_Wifi_BLE_SDK/GD32VW55x_RELEASE_V1.0.2/MSDK/ble/app\app_adv_mgr.c ****         srv_data[1].data_len = 3;
 598:C:/Users/stapi/OneDrive/Desktop/GD32VW553/V1_MQTT_OK/GD32VW55X_Wifi_BLE_SDK/GD32VW55x_RELEASE_V1.0.2/MSDK/ble/app\app_adv_mgr.c ****         srv_data[1].p_data = s_data;
 599:C:/Users/stapi/OneDrive/Desktop/GD32VW553/V1_MQTT_OK/GD32VW55X_Wifi_BLE_SDK/GD32VW55x_RELEASE_V1.0.2/MSDK/ble/app\app_adv_mgr.c ****         adv_data.srv_data.cnt = 2;
 600:C:/Users/stapi/OneDrive/Desktop/GD32VW553/V1_MQTT_OK/GD32VW55X_Wifi_BLE_SDK/GD32VW55x_RELEASE_V1.0.2/MSDK/ble/app\app_adv_mgr.c ****         adv_data.srv_data.p_data = srv_data;
 601:C:/Users/stapi/OneDrive/Desktop/GD32VW553/V1_MQTT_OK/GD32VW55X_Wifi_BLE_SDK/GD32VW55x_RELEASE_V1.0.2/MSDK/ble/app\app_adv_mgr.c **** 
 602:C:/Users/stapi/OneDrive/Desktop/GD32VW553/V1_MQTT_OK/GD32VW55X_Wifi_BLE_SDK/GD32VW55x_RELEASE_V1.0.2/MSDK/ble/app\app_adv_mgr.c ****         adv_data.url.url_len = 25;
 603:C:/Users/stapi/OneDrive/Desktop/GD32VW553/V1_MQTT_OK/GD32VW55X_Wifi_BLE_SDK/GD32VW55x_RELEASE_V1.0.2/MSDK/ble/app\app_adv_mgr.c ****         adv_data.url.p_url = url;
 604:C:/Users/stapi/OneDrive/Desktop/GD32VW553/V1_MQTT_OK/GD32VW55X_Wifi_BLE_SDK/GD32VW55x_RELEASE_V1.0.2/MSDK/ble/app\app_adv_mgr.c **** 
 605:C:/Users/stapi/OneDrive/Desktop/GD32VW553/V1_MQTT_OK/GD32VW55X_Wifi_BLE_SDK/GD32VW55x_RELEASE_V1.0.2/MSDK/ble/app\app_adv_mgr.c ****         manuf_data.company_id = 0x0C2B;
 606:C:/Users/stapi/OneDrive/Desktop/GD32VW553/V1_MQTT_OK/GD32VW55X_Wifi_BLE_SDK/GD32VW55x_RELEASE_V1.0.2/MSDK/ble/app\app_adv_mgr.c ****         manuf_data.data_len = 25;
 607:C:/Users/stapi/OneDrive/Desktop/GD32VW553/V1_MQTT_OK/GD32VW55X_Wifi_BLE_SDK/GD32VW55x_RELEASE_V1.0.2/MSDK/ble/app\app_adv_mgr.c ****         manuf_data.p_data = url;
 608:C:/Users/stapi/OneDrive/Desktop/GD32VW553/V1_MQTT_OK/GD32VW55X_Wifi_BLE_SDK/GD32VW55x_RELEASE_V1.0.2/MSDK/ble/app\app_adv_mgr.c ****         adv_data.p_manuf_specific_data = &manuf_data;
 609:C:/Users/stapi/OneDrive/Desktop/GD32VW553/V1_MQTT_OK/GD32VW55X_Wifi_BLE_SDK/GD32VW55x_RELEASE_V1.0.2/MSDK/ble/app\app_adv_mgr.c **** 
 610:C:/Users/stapi/OneDrive/Desktop/GD32VW553/V1_MQTT_OK/GD32VW55X_Wifi_BLE_SDK/GD32VW55x_RELEASE_V1.0.2/MSDK/ble/app\app_adv_mgr.c ****         adv.data_force = false;
 611:C:/Users/stapi/OneDrive/Desktop/GD32VW553/V1_MQTT_OK/GD32VW55X_Wifi_BLE_SDK/GD32VW55x_RELEASE_V1.0.2/MSDK/ble/app\app_adv_mgr.c ****         adv.data.p_data_enc = &adv_data;
 612:C:/Users/stapi/OneDrive/Desktop/GD32VW553/V1_MQTT_OK/GD32VW55X_Wifi_BLE_SDK/GD32VW55x_RELEASE_V1.0.2/MSDK/ble/app\app_adv_mgr.c **** 
 613:C:/Users/stapi/OneDrive/Desktop/GD32VW553/V1_MQTT_OK/GD32VW55X_Wifi_BLE_SDK/GD32VW55x_RELEASE_V1.0.2/MSDK/ble/app\app_adv_mgr.c ****         ble_adv_start(p_adv->idx, &adv, NULL, NULL);
 614:C:/Users/stapi/OneDrive/Desktop/GD32VW553/V1_MQTT_OK/GD32VW55X_Wifi_BLE_SDK/GD32VW55x_RELEASE_V1.0.2/MSDK/ble/app\app_adv_mgr.c ****     }
 615:C:/Users/stapi/OneDrive/Desktop/GD32VW553/V1_MQTT_OK/GD32VW55X_Wifi_BLE_SDK/GD32VW55x_RELEASE_V1.0.2/MSDK/ble/app\app_adv_mgr.c ****     break;
 616:C:/Users/stapi/OneDrive/Desktop/GD32VW553/V1_MQTT_OK/GD32VW55X_Wifi_BLE_SDK/GD32VW55x_RELEASE_V1.0.2/MSDK/ble/app\app_adv_mgr.c **** 
 617:C:/Users/stapi/OneDrive/Desktop/GD32VW553/V1_MQTT_OK/GD32VW55X_Wifi_BLE_SDK/GD32VW55x_RELEASE_V1.0.2/MSDK/ble/app\app_adv_mgr.c ****     default: {
 618:C:/Users/stapi/OneDrive/Desktop/GD32VW553/V1_MQTT_OK/GD32VW55X_Wifi_BLE_SDK/GD32VW55x_RELEASE_V1.0.2/MSDK/ble/app\app_adv_mgr.c ****         ble_data_t adv_data;
 619:C:/Users/stapi/OneDrive/Desktop/GD32VW553/V1_MQTT_OK/GD32VW55X_Wifi_BLE_SDK/GD32VW55x_RELEASE_V1.0.2/MSDK/ble/app\app_adv_mgr.c ****         ble_data_t sr_data;
 620:C:/Users/stapi/OneDrive/Desktop/GD32VW553/V1_MQTT_OK/GD32VW55X_Wifi_BLE_SDK/GD32VW55x_RELEASE_V1.0.2/MSDK/ble/app\app_adv_mgr.c ****         uint8_t *p_buf;
 621:C:/Users/stapi/OneDrive/Desktop/GD32VW553/V1_MQTT_OK/GD32VW55X_Wifi_BLE_SDK/GD32VW55x_RELEASE_V1.0.2/MSDK/ble/app\app_adv_mgr.c ****         uint16_t len;
 622:C:/Users/stapi/OneDrive/Desktop/GD32VW553/V1_MQTT_OK/GD32VW55X_Wifi_BLE_SDK/GD32VW55x_RELEASE_V1.0.2/MSDK/ble/app\app_adv_mgr.c **** 
 623:C:/Users/stapi/OneDrive/Desktop/GD32VW553/V1_MQTT_OK/GD32VW55X_Wifi_BLE_SDK/GD32VW55x_RELEASE_V1.0.2/MSDK/ble/app\app_adv_mgr.c ****         p_buf = sys_malloc(p_adv->max_data_len);
 624:C:/Users/stapi/OneDrive/Desktop/GD32VW553/V1_MQTT_OK/GD32VW55X_Wifi_BLE_SDK/GD32VW55x_RELEASE_V1.0.2/MSDK/ble/app\app_adv_mgr.c ****         if (p_buf) {
 625:C:/Users/stapi/OneDrive/Desktop/GD32VW553/V1_MQTT_OK/GD32VW55X_Wifi_BLE_SDK/GD32VW55x_RELEASE_V1.0.2/MSDK/ble/app\app_adv_mgr.c ****             len = app_build_adv_data(p_adv, p_buf, p_adv->max_data_len, true);
 626:C:/Users/stapi/OneDrive/Desktop/GD32VW553/V1_MQTT_OK/GD32VW55X_Wifi_BLE_SDK/GD32VW55x_RELEASE_V1.0.2/MSDK/ble/app\app_adv_mgr.c ****             adv_data.len = len;
 627:C:/Users/stapi/OneDrive/Desktop/GD32VW553/V1_MQTT_OK/GD32VW55X_Wifi_BLE_SDK/GD32VW55x_RELEASE_V1.0.2/MSDK/ble/app\app_adv_mgr.c ****             adv_data.p_data = p_buf;
 628:C:/Users/stapi/OneDrive/Desktop/GD32VW553/V1_MQTT_OK/GD32VW55X_Wifi_BLE_SDK/GD32VW55x_RELEASE_V1.0.2/MSDK/ble/app\app_adv_mgr.c **** 
 629:C:/Users/stapi/OneDrive/Desktop/GD32VW553/V1_MQTT_OK/GD32VW55X_Wifi_BLE_SDK/GD32VW55x_RELEASE_V1.0.2/MSDK/ble/app\app_adv_mgr.c ****             adv.data.p_data_force = &adv_data;
 630:C:/Users/stapi/OneDrive/Desktop/GD32VW553/V1_MQTT_OK/GD32VW55X_Wifi_BLE_SDK/GD32VW55x_RELEASE_V1.0.2/MSDK/ble/app\app_adv_mgr.c ****             per_adv.data.p_data_force = &adv_data;
 631:C:/Users/stapi/OneDrive/Desktop/GD32VW553/V1_MQTT_OK/GD32VW55X_Wifi_BLE_SDK/GD32VW55x_RELEASE_V1.0.2/MSDK/ble/app\app_adv_mgr.c **** 
 632:C:/Users/stapi/OneDrive/Desktop/GD32VW553/V1_MQTT_OK/GD32VW55X_Wifi_BLE_SDK/GD32VW55x_RELEASE_V1.0.2/MSDK/ble/app\app_adv_mgr.c ****             if (len > 3) {
 633:C:/Users/stapi/OneDrive/Desktop/GD32VW553/V1_MQTT_OK/GD32VW55X_Wifi_BLE_SDK/GD32VW55x_RELEASE_V1.0.2/MSDK/ble/app\app_adv_mgr.c ****                 sr_data.p_data = p_buf + 3;
 634:C:/Users/stapi/OneDrive/Desktop/GD32VW553/V1_MQTT_OK/GD32VW55X_Wifi_BLE_SDK/GD32VW55x_RELEASE_V1.0.2/MSDK/ble/app\app_adv_mgr.c ****                 sr_data.len = len - 3;
 635:C:/Users/stapi/OneDrive/Desktop/GD32VW553/V1_MQTT_OK/GD32VW55X_Wifi_BLE_SDK/GD32VW55x_RELEASE_V1.0.2/MSDK/ble/app\app_adv_mgr.c ****             } else {
 636:C:/Users/stapi/OneDrive/Desktop/GD32VW553/V1_MQTT_OK/GD32VW55X_Wifi_BLE_SDK/GD32VW55x_RELEASE_V1.0.2/MSDK/ble/app\app_adv_mgr.c ****                 sr_data.p_data = NULL;
 637:C:/Users/stapi/OneDrive/Desktop/GD32VW553/V1_MQTT_OK/GD32VW55X_Wifi_BLE_SDK/GD32VW55x_RELEASE_V1.0.2/MSDK/ble/app\app_adv_mgr.c ****                 sr_data.len = 0;
 638:C:/Users/stapi/OneDrive/Desktop/GD32VW553/V1_MQTT_OK/GD32VW55X_Wifi_BLE_SDK/GD32VW55x_RELEASE_V1.0.2/MSDK/ble/app\app_adv_mgr.c ****             }
 639:C:/Users/stapi/OneDrive/Desktop/GD32VW553/V1_MQTT_OK/GD32VW55X_Wifi_BLE_SDK/GD32VW55x_RELEASE_V1.0.2/MSDK/ble/app\app_adv_mgr.c ****             scan_rsp.data.p_data_force = &sr_data;
 640:C:/Users/stapi/OneDrive/Desktop/GD32VW553/V1_MQTT_OK/GD32VW55X_Wifi_BLE_SDK/GD32VW55x_RELEASE_V1.0.2/MSDK/ble/app\app_adv_mgr.c **** 
 641:C:/Users/stapi/OneDrive/Desktop/GD32VW553/V1_MQTT_OK/GD32VW55X_Wifi_BLE_SDK/GD32VW55x_RELEASE_V1.0.2/MSDK/ble/app\app_adv_mgr.c ****             ble_adv_start(p_adv->idx, &adv, &scan_rsp, &per_adv);
 452              		.loc 1 641 13
 453 00c2 03450400 		lbu	a0,0(s0)
 454 00c6 7410     		addi	a3,sp,44
 455 00c8 5010     		addi	a2,sp,36
 456 00ca 6C08     		addi	a1,sp,28
 457 00cc 97000000 		call	ble_adv_start
 457      E7800000 
 458              	.LVL44:
 642:C:/Users/stapi/OneDrive/Desktop/GD32VW553/V1_MQTT_OK/GD32VW55X_Wifi_BLE_SDK/GD32VW55x_RELEASE_V1.0.2/MSDK/ble/app\app_adv_mgr.c **** 
 643:C:/Users/stapi/OneDrive/Desktop/GD32VW553/V1_MQTT_OK/GD32VW55X_Wifi_BLE_SDK/GD32VW55x_RELEASE_V1.0.2/MSDK/ble/app\app_adv_mgr.c ****             sys_mfree(p_buf);
 459              		.loc 1 643 13
 460 00d4 2685     		mv	a0,s1
 461 00d6 97000000 		call	sys_mfree
 461      E7800000 
 462              	.LVL45:
 463              	.LBE10:
 644:C:/Users/stapi/OneDrive/Desktop/GD32VW553/V1_MQTT_OK/GD32VW55X_Wifi_BLE_SDK/GD32VW55x_RELEASE_V1.0.2/MSDK/ble/app\app_adv_mgr.c ****         }
 645:C:/Users/stapi/OneDrive/Desktop/GD32VW553/V1_MQTT_OK/GD32VW55X_Wifi_BLE_SDK/GD32VW55x_RELEASE_V1.0.2/MSDK/ble/app\app_adv_mgr.c ****     }
 646:C:/Users/stapi/OneDrive/Desktop/GD32VW553/V1_MQTT_OK/GD32VW55X_Wifi_BLE_SDK/GD32VW55x_RELEASE_V1.0.2/MSDK/ble/app\app_adv_mgr.c ****     break;
 464              		.loc 1 646 5
 647:C:/Users/stapi/OneDrive/Desktop/GD32VW553/V1_MQTT_OK/GD32VW55X_Wifi_BLE_SDK/GD32VW55x_RELEASE_V1.0.2/MSDK/ble/app\app_adv_mgr.c ****     }
 648:C:/Users/stapi/OneDrive/Desktop/GD32VW553/V1_MQTT_OK/GD32VW55X_Wifi_BLE_SDK/GD32VW55x_RELEASE_V1.0.2/MSDK/ble/app\app_adv_mgr.c **** }
 465              		.loc 1 648 1 is_stmt 0
 466 00de 2DA0     		j	.L23
 467              	.LVL46:
 468              	.L31:
 469              	.LBB11:
 451:C:/Users/stapi/OneDrive/Desktop/GD32VW553/V1_MQTT_OK/GD32VW55X_Wifi_BLE_SDK/GD32VW55x_RELEASE_V1.0.2/MSDK/ble/app\app_adv_mgr.c **** 
 470              		.loc 1 451 9 is_stmt 1 discriminator 3
 453:C:/Users/stapi/OneDrive/Desktop/GD32VW553/V1_MQTT_OK/GD32VW55X_Wifi_BLE_SDK/GD32VW55x_RELEASE_V1.0.2/MSDK/ble/app\app_adv_mgr.c ****         adv_data.p_data = bqb_adv_data_1;
 471              		.loc 1 453 9 discriminator 3
 453:C:/Users/stapi/OneDrive/Desktop/GD32VW553/V1_MQTT_OK/GD32VW55X_Wifi_BLE_SDK/GD32VW55x_RELEASE_V1.0.2/MSDK/ble/app\app_adv_mgr.c ****         adv_data.p_data = bqb_adv_data_1;
 472              		.loc 1 453 22 is_stmt 0 discriminator 3
 473 00e0 E547     		li	a5,25
 474 00e2 2316F112 		sh	a5,300(sp)
 454:C:/Users/stapi/OneDrive/Desktop/GD32VW553/V1_MQTT_OK/GD32VW55X_Wifi_BLE_SDK/GD32VW55x_RELEASE_V1.0.2/MSDK/ble/app\app_adv_mgr.c **** 
 475              		.loc 1 454 9 is_stmt 1 discriminator 3
 454:C:/Users/stapi/OneDrive/Desktop/GD32VW553/V1_MQTT_OK/GD32VW55X_Wifi_BLE_SDK/GD32VW55x_RELEASE_V1.0.2/MSDK/ble/app\app_adv_mgr.c **** 
 476              		.loc 1 454 25 is_stmt 0 discriminator 3
 477 00e6 B7070000 		lui	a5,%hi(.LANCHOR3)
 478 00ea 93870700 		addi	a5,a5,%lo(.LANCHOR3)
 479              	.L52:
 480 00ee 2324F112 		sw	a5,296(sp)
 456:C:/Users/stapi/OneDrive/Desktop/GD32VW553/V1_MQTT_OK/GD32VW55X_Wifi_BLE_SDK/GD32VW55x_RELEASE_V1.0.2/MSDK/ble/app\app_adv_mgr.c **** 
 481              		.loc 1 456 9 is_stmt 1 discriminator 3
 456:C:/Users/stapi/OneDrive/Desktop/GD32VW553/V1_MQTT_OK/GD32VW55X_Wifi_BLE_SDK/GD32VW55x_RELEASE_V1.0.2/MSDK/ble/app\app_adv_mgr.c **** 
 482              		.loc 1 456 31 is_stmt 0 discriminator 3
 483 00f2 3C12     		addi	a5,sp,296
 484              	.LVL47:
 485              	.L51:
 486 00f4 3ED0     		sw	a5,32(sp)
 458:C:/Users/stapi/OneDrive/Desktop/GD32VW553/V1_MQTT_OK/GD32VW55X_Wifi_BLE_SDK/GD32VW55x_RELEASE_V1.0.2/MSDK/ble/app\app_adv_mgr.c ****     }
 487              		.loc 1 458 9 is_stmt 1 discriminator 3
 488 00f6 8146     		li	a3,0
 489 00f8 0146     		li	a2,0
 490              	.L50:
 491 00fa 03450400 		lbu	a0,0(s0)
 492 00fe 6C08     		addi	a1,sp,28
 493 0100 97000000 		call	ble_adv_start
 493      E7800000 
 494              	.LVL48:
 495              	.LBE11:
 460:C:/Users/stapi/OneDrive/Desktop/GD32VW553/V1_MQTT_OK/GD32VW55X_Wifi_BLE_SDK/GD32VW55x_RELEASE_V1.0.2/MSDK/ble/app\app_adv_mgr.c **** 
 496              		.loc 1 460 5 discriminator 3
 497              	.L23:
 498              		.loc 1 648 1 is_stmt 0
 499 0108 1D61     		addi	sp,sp,416
 500              		.cfi_remember_state
 501              		.cfi_def_cfa_offset 0
 502 010a 17030000 		tail	__riscv_restore_2
 502      67000300 
 503              		.cfi_restore 9
 504              		.cfi_restore 8
 505              		.cfi_restore 1
 506              		.cfi_def_cfa_offset -16
 507              	.LVL49:
 508              	.L30:
 509              		.cfi_restore_state
 510              	.LBB12:
 463:C:/Users/stapi/OneDrive/Desktop/GD32VW553/V1_MQTT_OK/GD32VW55X_Wifi_BLE_SDK/GD32VW55x_RELEASE_V1.0.2/MSDK/ble/app\app_adv_mgr.c ****         ble_data_t scan_rsp_data;
 511              		.loc 1 463 9 is_stmt 1 discriminator 4
 464:C:/Users/stapi/OneDrive/Desktop/GD32VW553/V1_MQTT_OK/GD32VW55X_Wifi_BLE_SDK/GD32VW55x_RELEASE_V1.0.2/MSDK/ble/app\app_adv_mgr.c ****         ble_data_t per_adv_data;
 512              		.loc 1 464 9 discriminator 4
 465:C:/Users/stapi/OneDrive/Desktop/GD32VW553/V1_MQTT_OK/GD32VW55X_Wifi_BLE_SDK/GD32VW55x_RELEASE_V1.0.2/MSDK/ble/app\app_adv_mgr.c **** 
 513              		.loc 1 465 9 discriminator 4
 467:C:/Users/stapi/OneDrive/Desktop/GD32VW553/V1_MQTT_OK/GD32VW55X_Wifi_BLE_SDK/GD32VW55x_RELEASE_V1.0.2/MSDK/ble/app\app_adv_mgr.c ****         adv_data.p_data = bqb_adv_data_2;
 514              		.loc 1 467 9 discriminator 4
 467:C:/Users/stapi/OneDrive/Desktop/GD32VW553/V1_MQTT_OK/GD32VW55X_Wifi_BLE_SDK/GD32VW55x_RELEASE_V1.0.2/MSDK/ble/app\app_adv_mgr.c ****         adv_data.p_data = bqb_adv_data_2;
 515              		.loc 1 467 22 is_stmt 0 discriminator 4
 516 0112 E147     		li	a5,24
 517 0114 2310F10A 		sh	a5,160(sp)
 468:C:/Users/stapi/OneDrive/Desktop/GD32VW553/V1_MQTT_OK/GD32VW55X_Wifi_BLE_SDK/GD32VW55x_RELEASE_V1.0.2/MSDK/ble/app\app_adv_mgr.c **** 
 518              		.loc 1 468 9 is_stmt 1 discriminator 4
 468:C:/Users/stapi/OneDrive/Desktop/GD32VW553/V1_MQTT_OK/GD32VW55X_Wifi_BLE_SDK/GD32VW55x_RELEASE_V1.0.2/MSDK/ble/app\app_adv_mgr.c **** 
 519              		.loc 1 468 25 is_stmt 0 discriminator 4
 520 0118 B7070000 		lui	a5,%hi(.LANCHOR4)
 521 011c 93870700 		addi	a5,a5,%lo(.LANCHOR4)
 522 0120 3ECF     		sw	a5,156(sp)
 470:C:/Users/stapi/OneDrive/Desktop/GD32VW553/V1_MQTT_OK/GD32VW55X_Wifi_BLE_SDK/GD32VW55x_RELEASE_V1.0.2/MSDK/ble/app\app_adv_mgr.c ****         scan_rsp_data.p_data = bqb_scan_rsp_data_2;
 523              		.loc 1 470 9 is_stmt 1 discriminator 4
 471:C:/Users/stapi/OneDrive/Desktop/GD32VW553/V1_MQTT_OK/GD32VW55X_Wifi_BLE_SDK/GD32VW55x_RELEASE_V1.0.2/MSDK/ble/app\app_adv_mgr.c **** 
 524              		.loc 1 471 30 is_stmt 0 discriminator 4
 525 0122 B7070000 		lui	a5,%hi(.LANCHOR5)
 526 0126 93870700 		addi	a5,a5,%lo(.LANCHOR5)
 527 012a BECD     		sw	a5,216(sp)
 474:C:/Users/stapi/OneDrive/Desktop/GD32VW553/V1_MQTT_OK/GD32VW55X_Wifi_BLE_SDK/GD32VW55x_RELEASE_V1.0.2/MSDK/ble/app\app_adv_mgr.c **** 
 528              		.loc 1 474 29 discriminator 4
 529 012c B7070000 		lui	a5,%hi(.LANCHOR6)
 530 0130 93870700 		addi	a5,a5,%lo(.LANCHOR6)
 470:C:/Users/stapi/OneDrive/Desktop/GD32VW553/V1_MQTT_OK/GD32VW55X_Wifi_BLE_SDK/GD32VW55x_RELEASE_V1.0.2/MSDK/ble/app\app_adv_mgr.c ****         scan_rsp_data.p_data = bqb_scan_rsp_data_2;
 531              		.loc 1 470 27 discriminator 4
 532 0134 6D47     		li	a4,27
 474:C:/Users/stapi/OneDrive/Desktop/GD32VW553/V1_MQTT_OK/GD32VW55X_Wifi_BLE_SDK/GD32VW55x_RELEASE_V1.0.2/MSDK/ble/app\app_adv_mgr.c **** 
 533              		.loc 1 474 29 discriminator 4
 534 0136 2324F112 		sw	a5,296(sp)
 476:C:/Users/stapi/OneDrive/Desktop/GD32VW553/V1_MQTT_OK/GD32VW55X_Wifi_BLE_SDK/GD32VW55x_RELEASE_V1.0.2/MSDK/ble/app\app_adv_mgr.c ****         scan_rsp.data.p_data_force = &scan_rsp_data;
 535              		.loc 1 476 31 discriminator 4
 536 013a 7C09     		addi	a5,sp,156
 537 013c 3ED0     		sw	a5,32(sp)
 470:C:/Users/stapi/OneDrive/Desktop/GD32VW553/V1_MQTT_OK/GD32VW55X_Wifi_BLE_SDK/GD32VW55x_RELEASE_V1.0.2/MSDK/ble/app\app_adv_mgr.c ****         scan_rsp_data.p_data = bqb_scan_rsp_data_2;
 538              		.loc 1 470 27 discriminator 4
 539 013e 231EE10C 		sh	a4,220(sp)
 471:C:/Users/stapi/OneDrive/Desktop/GD32VW553/V1_MQTT_OK/GD32VW55X_Wifi_BLE_SDK/GD32VW55x_RELEASE_V1.0.2/MSDK/ble/app\app_adv_mgr.c **** 
 540              		.loc 1 471 9 is_stmt 1 discriminator 4
 473:C:/Users/stapi/OneDrive/Desktop/GD32VW553/V1_MQTT_OK/GD32VW55X_Wifi_BLE_SDK/GD32VW55x_RELEASE_V1.0.2/MSDK/ble/app\app_adv_mgr.c ****         per_adv_data.p_data = bqb_per_adv_data_2;
 541              		.loc 1 473 9 discriminator 4
 473:C:/Users/stapi/OneDrive/Desktop/GD32VW553/V1_MQTT_OK/GD32VW55X_Wifi_BLE_SDK/GD32VW55x_RELEASE_V1.0.2/MSDK/ble/app\app_adv_mgr.c ****         per_adv_data.p_data = bqb_per_adv_data_2;
 542              		.loc 1 473 26 is_stmt 0 discriminator 4
 543 0142 2316E112 		sh	a4,300(sp)
 474:C:/Users/stapi/OneDrive/Desktop/GD32VW553/V1_MQTT_OK/GD32VW55X_Wifi_BLE_SDK/GD32VW55x_RELEASE_V1.0.2/MSDK/ble/app\app_adv_mgr.c **** 
 544              		.loc 1 474 9 is_stmt 1 discriminator 4
 476:C:/Users/stapi/OneDrive/Desktop/GD32VW553/V1_MQTT_OK/GD32VW55X_Wifi_BLE_SDK/GD32VW55x_RELEASE_V1.0.2/MSDK/ble/app\app_adv_mgr.c ****         scan_rsp.data.p_data_force = &scan_rsp_data;
 545              		.loc 1 476 9 discriminator 4
 477:C:/Users/stapi/OneDrive/Desktop/GD32VW553/V1_MQTT_OK/GD32VW55X_Wifi_BLE_SDK/GD32VW55x_RELEASE_V1.0.2/MSDK/ble/app\app_adv_mgr.c ****         per_adv.data.p_data_force = &per_adv_data;
 546              		.loc 1 477 9 discriminator 4
 477:C:/Users/stapi/OneDrive/Desktop/GD32VW553/V1_MQTT_OK/GD32VW55X_Wifi_BLE_SDK/GD32VW55x_RELEASE_V1.0.2/MSDK/ble/app\app_adv_mgr.c ****         per_adv.data.p_data_force = &per_adv_data;
 547              		.loc 1 477 36 is_stmt 0 discriminator 4
 548 0146 BC09     		addi	a5,sp,216
 549 0148 2DB7     		j	.L54
 550              	.L29:
 551              	.LBE12:
 552              	.LBB13:
 485:C:/Users/stapi/OneDrive/Desktop/GD32VW553/V1_MQTT_OK/GD32VW55X_Wifi_BLE_SDK/GD32VW55x_RELEASE_V1.0.2/MSDK/ble/app\app_adv_mgr.c **** 
 553              		.loc 1 485 9 is_stmt 1 discriminator 5
 487:C:/Users/stapi/OneDrive/Desktop/GD32VW553/V1_MQTT_OK/GD32VW55X_Wifi_BLE_SDK/GD32VW55x_RELEASE_V1.0.2/MSDK/ble/app\app_adv_mgr.c ****         adv_data.p_data = bqb_adv_data_3;
 554              		.loc 1 487 9 discriminator 5
 487:C:/Users/stapi/OneDrive/Desktop/GD32VW553/V1_MQTT_OK/GD32VW55X_Wifi_BLE_SDK/GD32VW55x_RELEASE_V1.0.2/MSDK/ble/app\app_adv_mgr.c ****         adv_data.p_data = bqb_adv_data_3;
 555              		.loc 1 487 22 is_stmt 0 discriminator 5
 556 014a D947     		li	a5,22
 557 014c 2316F112 		sh	a5,300(sp)
 488:C:/Users/stapi/OneDrive/Desktop/GD32VW553/V1_MQTT_OK/GD32VW55X_Wifi_BLE_SDK/GD32VW55x_RELEASE_V1.0.2/MSDK/ble/app\app_adv_mgr.c **** 
 558              		.loc 1 488 9 is_stmt 1 discriminator 5
 488:C:/Users/stapi/OneDrive/Desktop/GD32VW553/V1_MQTT_OK/GD32VW55X_Wifi_BLE_SDK/GD32VW55x_RELEASE_V1.0.2/MSDK/ble/app\app_adv_mgr.c **** 
 559              		.loc 1 488 25 is_stmt 0 discriminator 5
 560 0150 B7070000 		lui	a5,%hi(.LANCHOR7)
 561 0154 93870700 		addi	a5,a5,%lo(.LANCHOR7)
 562 0158 59BF     		j	.L52
 563              	.L28:
 564              	.LBE13:
 565              	.LBB14:
 497:C:/Users/stapi/OneDrive/Desktop/GD32VW553/V1_MQTT_OK/GD32VW55X_Wifi_BLE_SDK/GD32VW55x_RELEASE_V1.0.2/MSDK/ble/app\app_adv_mgr.c **** 
 566              		.loc 1 497 9 is_stmt 1 discriminator 6
 499:C:/Users/stapi/OneDrive/Desktop/GD32VW553/V1_MQTT_OK/GD32VW55X_Wifi_BLE_SDK/GD32VW55x_RELEASE_V1.0.2/MSDK/ble/app\app_adv_mgr.c ****         adv_data.p_data = bqb_adv_data_4;
 567              		.loc 1 499 9 discriminator 6
 499:C:/Users/stapi/OneDrive/Desktop/GD32VW553/V1_MQTT_OK/GD32VW55X_Wifi_BLE_SDK/GD32VW55x_RELEASE_V1.0.2/MSDK/ble/app\app_adv_mgr.c ****         adv_data.p_data = bqb_adv_data_4;
 568              		.loc 1 499 22 is_stmt 0 discriminator 6
 569 015a F147     		li	a5,28
 570 015c 2316F112 		sh	a5,300(sp)
 500:C:/Users/stapi/OneDrive/Desktop/GD32VW553/V1_MQTT_OK/GD32VW55X_Wifi_BLE_SDK/GD32VW55x_RELEASE_V1.0.2/MSDK/ble/app\app_adv_mgr.c **** 
 571              		.loc 1 500 9 is_stmt 1 discriminator 6
 500:C:/Users/stapi/OneDrive/Desktop/GD32VW553/V1_MQTT_OK/GD32VW55X_Wifi_BLE_SDK/GD32VW55x_RELEASE_V1.0.2/MSDK/ble/app\app_adv_mgr.c **** 
 572              		.loc 1 500 25 is_stmt 0 discriminator 6
 573 0160 B7070000 		lui	a5,%hi(.LANCHOR8)
 574 0164 93870700 		addi	a5,a5,%lo(.LANCHOR8)
 575 0168 59B7     		j	.L52
 576              	.L27:
 577              	.LBE14:
 578              	.LBB15:
 509:C:/Users/stapi/OneDrive/Desktop/GD32VW553/V1_MQTT_OK/GD32VW55X_Wifi_BLE_SDK/GD32VW55x_RELEASE_V1.0.2/MSDK/ble/app\app_adv_mgr.c **** 
 579              		.loc 1 509 9 is_stmt 1 discriminator 7
 511:C:/Users/stapi/OneDrive/Desktop/GD32VW553/V1_MQTT_OK/GD32VW55X_Wifi_BLE_SDK/GD32VW55x_RELEASE_V1.0.2/MSDK/ble/app\app_adv_mgr.c ****         adv_data.p_data = adv_data_hogp;
 580              		.loc 1 511 9 discriminator 7
 511:C:/Users/stapi/OneDrive/Desktop/GD32VW553/V1_MQTT_OK/GD32VW55X_Wifi_BLE_SDK/GD32VW55x_RELEASE_V1.0.2/MSDK/ble/app\app_adv_mgr.c ****         adv_data.p_data = adv_data_hogp;
 581              		.loc 1 511 22 is_stmt 0 discriminator 7
 582 016a A147     		li	a5,8
 583 016c 2316F112 		sh	a5,300(sp)
 512:C:/Users/stapi/OneDrive/Desktop/GD32VW553/V1_MQTT_OK/GD32VW55X_Wifi_BLE_SDK/GD32VW55x_RELEASE_V1.0.2/MSDK/ble/app\app_adv_mgr.c **** 
 584              		.loc 1 512 9 is_stmt 1 discriminator 7
 512:C:/Users/stapi/OneDrive/Desktop/GD32VW553/V1_MQTT_OK/GD32VW55X_Wifi_BLE_SDK/GD32VW55x_RELEASE_V1.0.2/MSDK/ble/app\app_adv_mgr.c **** 
 585              		.loc 1 512 25 is_stmt 0 discriminator 7
 586 0170 B7070000 		lui	a5,%hi(.LANCHOR9)
 587 0174 93870700 		addi	a5,a5,%lo(.LANCHOR9)
 588 0178 9DBF     		j	.L52
 589              	.L25:
 590              	.LBE15:
 591              	.LBB16:
 522:C:/Users/stapi/OneDrive/Desktop/GD32VW553/V1_MQTT_OK/GD32VW55X_Wifi_BLE_SDK/GD32VW55x_RELEASE_V1.0.2/MSDK/ble/app\app_adv_mgr.c ****         int8_t tx_pwr = -80;
 592              		.loc 1 522 17
 593 017a 8567     		li	a5,4096
 594 017c 93870710 		addi	a5,a5,256
 595 0180 2318F100 		sh	a5,16(sp)
 596 0184 93072002 		li	a5,34
 597 0188 AA84     		mv	s1,a0
 521:C:/Users/stapi/OneDrive/Desktop/GD32VW553/V1_MQTT_OK/GD32VW55X_Wifi_BLE_SDK/GD32VW55x_RELEASE_V1.0.2/MSDK/ble/app\app_adv_mgr.c ****         uint8_t s_data[3] = {0x00, 0x11, 0x22};
 598              		.loc 1 521 9 is_stmt 1
 522:C:/Users/stapi/OneDrive/Desktop/GD32VW553/V1_MQTT_OK/GD32VW55X_Wifi_BLE_SDK/GD32VW55x_RELEASE_V1.0.2/MSDK/ble/app\app_adv_mgr.c ****         int8_t tx_pwr = -80;
 599              		.loc 1 522 9
 522:C:/Users/stapi/OneDrive/Desktop/GD32VW553/V1_MQTT_OK/GD32VW55X_Wifi_BLE_SDK/GD32VW55x_RELEASE_V1.0.2/MSDK/ble/app\app_adv_mgr.c ****         int8_t tx_pwr = -80;
 600              		.loc 1 522 17 is_stmt 0
 601 018a 2309F100 		sb	a5,18(sp)
 523:C:/Users/stapi/OneDrive/Desktop/GD32VW553/V1_MQTT_OK/GD32VW55X_Wifi_BLE_SDK/GD32VW55x_RELEASE_V1.0.2/MSDK/ble/app\app_adv_mgr.c ****         ble_adv_data_conn_intv_t slave_conn_intv;
 602              		.loc 1 523 9 is_stmt 1
 532:C:/Users/stapi/OneDrive/Desktop/GD32VW553/V1_MQTT_OK/GD32VW55X_Wifi_BLE_SDK/GD32VW55x_RELEASE_V1.0.2/MSDK/ble/app\app_adv_mgr.c **** 
 603              		.loc 1 532 9 is_stmt 0
 604 018e 13064004 		li	a2,68
 523:C:/Users/stapi/OneDrive/Desktop/GD32VW553/V1_MQTT_OK/GD32VW55X_Wifi_BLE_SDK/GD32VW55x_RELEASE_V1.0.2/MSDK/ble/app\app_adv_mgr.c ****         ble_adv_data_conn_intv_t slave_conn_intv;
 605              		.loc 1 523 16
 606 0192 930700FB 		li	a5,-80
 532:C:/Users/stapi/OneDrive/Desktop/GD32VW553/V1_MQTT_OK/GD32VW55X_Wifi_BLE_SDK/GD32VW55x_RELEASE_V1.0.2/MSDK/ble/app\app_adv_mgr.c **** 
 607              		.loc 1 532 9
 608 0196 8145     		li	a1,0
 609 0198 E809     		addi	a0,sp,220
 610              	.LVL50:
 523:C:/Users/stapi/OneDrive/Desktop/GD32VW553/V1_MQTT_OK/GD32VW55X_Wifi_BLE_SDK/GD32VW55x_RELEASE_V1.0.2/MSDK/ble/app\app_adv_mgr.c ****         ble_adv_data_conn_intv_t slave_conn_intv;
 611              		.loc 1 523 16
 612 019a A307F100 		sb	a5,15(sp)
 524:C:/Users/stapi/OneDrive/Desktop/GD32VW553/V1_MQTT_OK/GD32VW55X_Wifi_BLE_SDK/GD32VW55x_RELEASE_V1.0.2/MSDK/ble/app\app_adv_mgr.c ****         ble_adv_data_srv_data_t srv_data[2];
 613              		.loc 1 524 9 is_stmt 1
 525:C:/Users/stapi/OneDrive/Desktop/GD32VW553/V1_MQTT_OK/GD32VW55X_Wifi_BLE_SDK/GD32VW55x_RELEASE_V1.0.2/MSDK/ble/app\app_adv_mgr.c ****         ble_adv_data_manuf_data_t manuf_data;
 614              		.loc 1 525 9
 526:C:/Users/stapi/OneDrive/Desktop/GD32VW553/V1_MQTT_OK/GD32VW55X_Wifi_BLE_SDK/GD32VW55x_RELEASE_V1.0.2/MSDK/ble/app\app_adv_mgr.c ****         ble_uuid_t uuid_more[2];
 615              		.loc 1 526 9
 527:C:/Users/stapi/OneDrive/Desktop/GD32VW553/V1_MQTT_OK/GD32VW55X_Wifi_BLE_SDK/GD32VW55x_RELEASE_V1.0.2/MSDK/ble/app\app_adv_mgr.c ****         ble_uuid_t uuid_cmpl[3];
 616              		.loc 1 527 9
 528:C:/Users/stapi/OneDrive/Desktop/GD32VW553/V1_MQTT_OK/GD32VW55X_Wifi_BLE_SDK/GD32VW55x_RELEASE_V1.0.2/MSDK/ble/app\app_adv_mgr.c ****         ble_uuid_t uuid_solicited[6];
 617              		.loc 1 528 9
 529:C:/Users/stapi/OneDrive/Desktop/GD32VW553/V1_MQTT_OK/GD32VW55X_Wifi_BLE_SDK/GD32VW55x_RELEASE_V1.0.2/MSDK/ble/app\app_adv_mgr.c ****         ble_adv_data_t adv_data;
 618              		.loc 1 529 9
 530:C:/Users/stapi/OneDrive/Desktop/GD32VW553/V1_MQTT_OK/GD32VW55X_Wifi_BLE_SDK/GD32VW55x_RELEASE_V1.0.2/MSDK/ble/app\app_adv_mgr.c **** 
 619              		.loc 1 530 9
 532:C:/Users/stapi/OneDrive/Desktop/GD32VW553/V1_MQTT_OK/GD32VW55X_Wifi_BLE_SDK/GD32VW55x_RELEASE_V1.0.2/MSDK/ble/app\app_adv_mgr.c **** 
 620              		.loc 1 532 9
 621 019e 97000000 		call	memset
 621      E7800000 
 622              	.LVL51:
 534:C:/Users/stapi/OneDrive/Desktop/GD32VW553/V1_MQTT_OK/GD32VW55X_Wifi_BLE_SDK/GD32VW55x_RELEASE_V1.0.2/MSDK/ble/app\app_adv_mgr.c ****         adv_data.local_name.name_len = adp_name_length;
 623              		.loc 1 534 9
 536:C:/Users/stapi/OneDrive/Desktop/GD32VW553/V1_MQTT_OK/GD32VW55X_Wifi_BLE_SDK/GD32VW55x_RELEASE_V1.0.2/MSDK/ble/app\app_adv_mgr.c **** 
 624              		.loc 1 536 36 is_stmt 0
 625 01a6 D247     		lw	a5,20(sp)
 538:C:/Users/stapi/OneDrive/Desktop/GD32VW553/V1_MQTT_OK/GD32VW55X_Wifi_BLE_SDK/GD32VW55x_RELEASE_V1.0.2/MSDK/ble/app\app_adv_mgr.c ****             adv_data.flags = BLE_GAP_ADV_FLAG_LE_ONLY_LIMITED_DISC_MODE;
 626              		.loc 1 538 12
 627 01a8 83468400 		lbu	a3,8(s0)
 534:C:/Users/stapi/OneDrive/Desktop/GD32VW553/V1_MQTT_OK/GD32VW55X_Wifi_BLE_SDK/GD32VW55x_RELEASE_V1.0.2/MSDK/ble/app\app_adv_mgr.c ****         adv_data.local_name.name_len = adp_name_length;
 628              		.loc 1 534 34
 629 01ac 0947     		li	a4,2
 536:C:/Users/stapi/OneDrive/Desktop/GD32VW553/V1_MQTT_OK/GD32VW55X_Wifi_BLE_SDK/GD32VW55x_RELEASE_V1.0.2/MSDK/ble/app\app_adv_mgr.c **** 
 630              		.loc 1 536 36
 631 01ae BED1     		sw	a5,224(sp)
 534:C:/Users/stapi/OneDrive/Desktop/GD32VW553/V1_MQTT_OK/GD32VW55X_Wifi_BLE_SDK/GD32VW55x_RELEASE_V1.0.2/MSDK/ble/app\app_adv_mgr.c ****         adv_data.local_name.name_len = adp_name_length;
 632              		.loc 1 534 34
 633 01b0 BACD     		sw	a4,216(sp)
 535:C:/Users/stapi/OneDrive/Desktop/GD32VW553/V1_MQTT_OK/GD32VW55X_Wifi_BLE_SDK/GD32VW55x_RELEASE_V1.0.2/MSDK/ble/app\app_adv_mgr.c ****         adv_data.local_name.p_name = (uint8_t *)p_adp_name;
 634              		.loc 1 535 9 is_stmt 1
 535:C:/Users/stapi/OneDrive/Desktop/GD32VW553/V1_MQTT_OK/GD32VW55X_Wifi_BLE_SDK/GD32VW55x_RELEASE_V1.0.2/MSDK/ble/app\app_adv_mgr.c ****         adv_data.local_name.p_name = (uint8_t *)p_adp_name;
 635              		.loc 1 535 38 is_stmt 0
 636 01b2 230E910C 		sb	s1,220(sp)
 536:C:/Users/stapi/OneDrive/Desktop/GD32VW553/V1_MQTT_OK/GD32VW55X_Wifi_BLE_SDK/GD32VW55x_RELEASE_V1.0.2/MSDK/ble/app\app_adv_mgr.c **** 
 637              		.loc 1 536 9 is_stmt 1
 538:C:/Users/stapi/OneDrive/Desktop/GD32VW553/V1_MQTT_OK/GD32VW55X_Wifi_BLE_SDK/GD32VW55x_RELEASE_V1.0.2/MSDK/ble/app\app_adv_mgr.c ****             adv_data.flags = BLE_GAP_ADV_FLAG_LE_ONLY_LIMITED_DISC_MODE;
 638              		.loc 1 538 9
 539:C:/Users/stapi/OneDrive/Desktop/GD32VW553/V1_MQTT_OK/GD32VW55X_Wifi_BLE_SDK/GD32VW55x_RELEASE_V1.0.2/MSDK/ble/app\app_adv_mgr.c ****         }
 639              		.loc 1 539 28 is_stmt 0
 640 01b6 9547     		li	a5,5
 538:C:/Users/stapi/OneDrive/Desktop/GD32VW553/V1_MQTT_OK/GD32VW55X_Wifi_BLE_SDK/GD32VW55x_RELEASE_V1.0.2/MSDK/ble/app\app_adv_mgr.c ****             adv_data.flags = BLE_GAP_ADV_FLAG_LE_ONLY_LIMITED_DISC_MODE;
 641              		.loc 1 538 12
 642 01b8 6383E600 		beq	a3,a4,.L36
 543:C:/Users/stapi/OneDrive/Desktop/GD32VW553/V1_MQTT_OK/GD32VW55X_Wifi_BLE_SDK/GD32VW55x_RELEASE_V1.0.2/MSDK/ble/app\app_adv_mgr.c ****         }
 643              		.loc 1 543 28
 644 01bc 9947     		li	a5,6
 645              	.L36:
 646 01be 2302F10E 		sb	a5,228(sp)
 546:C:/Users/stapi/OneDrive/Desktop/GD32VW553/V1_MQTT_OK/GD32VW55X_Wifi_BLE_SDK/GD32VW55x_RELEASE_V1.0.2/MSDK/ble/app\app_adv_mgr.c ****         adv_data.p_tx_pwr = &tx_pwr;
 647              		.loc 1 546 9 is_stmt 1
 546:C:/Users/stapi/OneDrive/Desktop/GD32VW553/V1_MQTT_OK/GD32VW55X_Wifi_BLE_SDK/GD32VW55x_RELEASE_V1.0.2/MSDK/ble/app\app_adv_mgr.c ****         adv_data.p_tx_pwr = &tx_pwr;
 648              		.loc 1 546 29 is_stmt 0
 649 01c2 93070018 		li	a5,384
 650 01c6 2313F10E 		sh	a5,230(sp)
 547:C:/Users/stapi/OneDrive/Desktop/GD32VW553/V1_MQTT_OK/GD32VW55X_Wifi_BLE_SDK/GD32VW55x_RELEASE_V1.0.2/MSDK/ble/app\app_adv_mgr.c **** 
 651              		.loc 1 547 9 is_stmt 1
 547:C:/Users/stapi/OneDrive/Desktop/GD32VW553/V1_MQTT_OK/GD32VW55X_Wifi_BLE_SDK/GD32VW55x_RELEASE_V1.0.2/MSDK/ble/app\app_adv_mgr.c **** 
 652              		.loc 1 547 27 is_stmt 0
 653 01ca 9307F100 		addi	a5,sp,15
 654 01ce BED5     		sw	a5,232(sp)
 549:C:/Users/stapi/OneDrive/Desktop/GD32VW553/V1_MQTT_OK/GD32VW55X_Wifi_BLE_SDK/GD32VW55x_RELEASE_V1.0.2/MSDK/ble/app\app_adv_mgr.c ****         adv_data.p_rand_tgt_addr = p_adv->peer_addr.addr;
 655              		.loc 1 549 9 is_stmt 1
 549:C:/Users/stapi/OneDrive/Desktop/GD32VW553/V1_MQTT_OK/GD32VW55X_Wifi_BLE_SDK/GD32VW55x_RELEASE_V1.0.2/MSDK/ble/app\app_adv_mgr.c ****         adv_data.p_rand_tgt_addr = p_adv->peer_addr.addr;
 656              		.loc 1 549 35 is_stmt 0
 657 01d0 9307E400 		addi	a5,s0,14
 549:C:/Users/stapi/OneDrive/Desktop/GD32VW553/V1_MQTT_OK/GD32VW55X_Wifi_BLE_SDK/GD32VW55x_RELEASE_V1.0.2/MSDK/ble/app\app_adv_mgr.c ****         adv_data.p_rand_tgt_addr = p_adv->peer_addr.addr;
 658              		.loc 1 549 33
 659 01d4 2320F112 		sw	a5,288(sp)
 550:C:/Users/stapi/OneDrive/Desktop/GD32VW553/V1_MQTT_OK/GD32VW55X_Wifi_BLE_SDK/GD32VW55x_RELEASE_V1.0.2/MSDK/ble/app\app_adv_mgr.c **** 
 660              		.loc 1 550 9 is_stmt 1
 550:C:/Users/stapi/OneDrive/Desktop/GD32VW553/V1_MQTT_OK/GD32VW55X_Wifi_BLE_SDK/GD32VW55x_RELEASE_V1.0.2/MSDK/ble/app\app_adv_mgr.c **** 
 661              		.loc 1 550 34 is_stmt 0
 662 01d8 2322F112 		sw	a5,292(sp)
 552:C:/Users/stapi/OneDrive/Desktop/GD32VW553/V1_MQTT_OK/GD32VW55X_Wifi_BLE_SDK/GD32VW55x_RELEASE_V1.0.2/MSDK/ble/app\app_adv_mgr.c **** 
 663              		.loc 1 552 9 is_stmt 1
 552:C:/Users/stapi/OneDrive/Desktop/GD32VW553/V1_MQTT_OK/GD32VW55X_Wifi_BLE_SDK/GD32VW55x_RELEASE_V1.0.2/MSDK/ble/app\app_adv_mgr.c **** 
 664              		.loc 1 552 27 is_stmt 0
 665 01dc 9307000A 		li	a5,160
 666 01e0 231AF110 		sh	a5,276(sp)
 554:C:/Users/stapi/OneDrive/Desktop/GD32VW553/V1_MQTT_OK/GD32VW55X_Wifi_BLE_SDK/GD32VW55x_RELEASE_V1.0.2/MSDK/ble/app\app_adv_mgr.c ****         slave_conn_intv.max_conn_intv = 0x0100;
 667              		.loc 1 554 9 is_stmt 1
 555:C:/Users/stapi/OneDrive/Desktop/GD32VW553/V1_MQTT_OK/GD32VW55X_Wifi_BLE_SDK/GD32VW55x_RELEASE_V1.0.2/MSDK/ble/app\app_adv_mgr.c ****         adv_data.p_slave_conn_intv = &slave_conn_intv;
 668              		.loc 1 555 9
 554:C:/Users/stapi/OneDrive/Desktop/GD32VW553/V1_MQTT_OK/GD32VW55X_Wifi_BLE_SDK/GD32VW55x_RELEASE_V1.0.2/MSDK/ble/app\app_adv_mgr.c ****         slave_conn_intv.max_conn_intv = 0x0100;
 669              		.loc 1 554 39 is_stmt 0
 670 01e4 B7070001 		li	a5,16777216
 671 01e8 C107     		addi	a5,a5,16
 672 01ea 3ECC     		sw	a5,24(sp)
 556:C:/Users/stapi/OneDrive/Desktop/GD32VW553/V1_MQTT_OK/GD32VW55X_Wifi_BLE_SDK/GD32VW55x_RELEASE_V1.0.2/MSDK/ble/app\app_adv_mgr.c **** 
 673              		.loc 1 556 9 is_stmt 1
 556:C:/Users/stapi/OneDrive/Desktop/GD32VW553/V1_MQTT_OK/GD32VW55X_Wifi_BLE_SDK/GD32VW55x_RELEASE_V1.0.2/MSDK/ble/app\app_adv_mgr.c **** 
 674              		.loc 1 556 36 is_stmt 0
 675 01ec 3C08     		addi	a5,sp,24
 676 01ee 2322F110 		sw	a5,260(sp)
 558:C:/Users/stapi/OneDrive/Desktop/GD32VW553/V1_MQTT_OK/GD32VW55X_Wifi_BLE_SDK/GD32VW55x_RELEASE_V1.0.2/MSDK/ble/app\app_adv_mgr.c ****         uuid_more[0].data.uuid_16 = 0x1234;
 677              		.loc 1 558 9 is_stmt 1
 559:C:/Users/stapi/OneDrive/Desktop/GD32VW553/V1_MQTT_OK/GD32VW55X_Wifi_BLE_SDK/GD32VW55x_RELEASE_V1.0.2/MSDK/ble/app\app_adv_mgr.c ****         uuid_more[1].type = BLE_UUID_TYPE_16;
 678              		.loc 1 559 35 is_stmt 0
 679 01f2 8567     		li	a5,4096
 680 01f4 93874723 		addi	a5,a5,564
 561:C:/Users/stapi/OneDrive/Desktop/GD32VW553/V1_MQTT_OK/GD32VW55X_Wifi_BLE_SDK/GD32VW55x_RELEASE_V1.0.2/MSDK/ble/app\app_adv_mgr.c ****         adv_data.uuid_more_available.uuid_cnt = 2;
 681              		.loc 1 561 35
 682 01f8 1567     		li	a4,20480
 683 01fa 13078767 		addi	a4,a4,1656
 559:C:/Users/stapi/OneDrive/Desktop/GD32VW553/V1_MQTT_OK/GD32VW55X_Wifi_BLE_SDK/GD32VW55x_RELEASE_V1.0.2/MSDK/ble/app\app_adv_mgr.c ****         uuid_more[1].type = BLE_UUID_TYPE_16;
 684              		.loc 1 559 35
 685 01fe 2310F104 		sh	a5,64(sp)
 566:C:/Users/stapi/OneDrive/Desktop/GD32VW553/V1_MQTT_OK/GD32VW55X_Wifi_BLE_SDK/GD32VW55x_RELEASE_V1.0.2/MSDK/ble/app\app_adv_mgr.c ****         uuid_cmpl[1].type = BLE_UUID_TYPE_32;
 686              		.loc 1 566 35
 687 0202 2310F10A 		sh	a5,160(sp)
 567:C:/Users/stapi/OneDrive/Desktop/GD32VW553/V1_MQTT_OK/GD32VW55X_Wifi_BLE_SDK/GD32VW55x_RELEASE_V1.0.2/MSDK/ble/app\app_adv_mgr.c ****         uuid_cmpl[1].data.uuid_32 = 0x56789ABC;
 688              		.loc 1 567 27
 689 0206 8547     		li	a5,1
 561:C:/Users/stapi/OneDrive/Desktop/GD32VW553/V1_MQTT_OK/GD32VW55X_Wifi_BLE_SDK/GD32VW55x_RELEASE_V1.0.2/MSDK/ble/app\app_adv_mgr.c ****         adv_data.uuid_more_available.uuid_cnt = 2;
 690              		.loc 1 561 35
 691 0208 231AE104 		sh	a4,84(sp)
 567:C:/Users/stapi/OneDrive/Desktop/GD32VW553/V1_MQTT_OK/GD32VW55X_Wifi_BLE_SDK/GD32VW55x_RELEASE_V1.0.2/MSDK/ble/app\app_adv_mgr.c ****         uuid_cmpl[1].data.uuid_32 = 0x56789ABC;
 692              		.loc 1 567 27
 693 020c 3ED9     		sw	a5,176(sp)
 562:C:/Users/stapi/OneDrive/Desktop/GD32VW553/V1_MQTT_OK/GD32VW55X_Wifi_BLE_SDK/GD32VW55x_RELEASE_V1.0.2/MSDK/ble/app\app_adv_mgr.c ****         adv_data.uuid_more_available.p_uuid = uuid_more;
 694              		.loc 1 562 47
 695 020e 0947     		li	a4,2
 568:C:/Users/stapi/OneDrive/Desktop/GD32VW553/V1_MQTT_OK/GD32VW55X_Wifi_BLE_SDK/GD32VW55x_RELEASE_V1.0.2/MSDK/ble/app\app_adv_mgr.c ****         uuid_cmpl[2].type = BLE_UUID_TYPE_128;
 696              		.loc 1 568 35
 697 0210 B7A77856 		li	a5,1450745856
 563:C:/Users/stapi/OneDrive/Desktop/GD32VW553/V1_MQTT_OK/GD32VW55X_Wifi_BLE_SDK/GD32VW55x_RELEASE_V1.0.2/MSDK/ble/app\app_adv_mgr.c **** 
 698              		.loc 1 563 45
 699 0214 7418     		addi	a3,sp,60
 568:C:/Users/stapi/OneDrive/Desktop/GD32VW553/V1_MQTT_OK/GD32VW55X_Wifi_BLE_SDK/GD32VW55x_RELEASE_V1.0.2/MSDK/ble/app\app_adv_mgr.c ****         uuid_cmpl[2].type = BLE_UUID_TYPE_128;
 700              		.loc 1 568 35
 701 0216 9387C7AB 		addi	a5,a5,-1348
 562:C:/Users/stapi/OneDrive/Desktop/GD32VW553/V1_MQTT_OK/GD32VW55X_Wifi_BLE_SDK/GD32VW55x_RELEASE_V1.0.2/MSDK/ble/app\app_adv_mgr.c ****         adv_data.uuid_more_available.p_uuid = uuid_more;
 702              		.loc 1 562 47
 703 021a 2316E10E 		sh	a4,236(sp)
 569:C:/Users/stapi/OneDrive/Desktop/GD32VW553/V1_MQTT_OK/GD32VW55X_Wifi_BLE_SDK/GD32VW55x_RELEASE_V1.0.2/MSDK/ble/app\app_adv_mgr.c ****         for (i = 0; i < 16; i++) {
 704              		.loc 1 569 27
 705 021e BAC3     		sw	a4,196(sp)
 706 0220 7809     		addi	a4,sp,156
 563:C:/Users/stapi/OneDrive/Desktop/GD32VW553/V1_MQTT_OK/GD32VW55X_Wifi_BLE_SDK/GD32VW55x_RELEASE_V1.0.2/MSDK/ble/app\app_adv_mgr.c **** 
 707              		.loc 1 563 45
 708 0222 B6D9     		sw	a3,240(sp)
 568:C:/Users/stapi/OneDrive/Desktop/GD32VW553/V1_MQTT_OK/GD32VW55X_Wifi_BLE_SDK/GD32VW55x_RELEASE_V1.0.2/MSDK/ble/app\app_adv_mgr.c ****         uuid_cmpl[2].type = BLE_UUID_TYPE_128;
 709              		.loc 1 568 35
 710 0224 3EDB     		sw	a5,180(sp)
 558:C:/Users/stapi/OneDrive/Desktop/GD32VW553/V1_MQTT_OK/GD32VW55X_Wifi_BLE_SDK/GD32VW55x_RELEASE_V1.0.2/MSDK/ble/app\app_adv_mgr.c ****         uuid_more[0].data.uuid_16 = 0x1234;
 711              		.loc 1 558 27
 712 0226 02DE     		sw	zero,60(sp)
 559:C:/Users/stapi/OneDrive/Desktop/GD32VW553/V1_MQTT_OK/GD32VW55X_Wifi_BLE_SDK/GD32VW55x_RELEASE_V1.0.2/MSDK/ble/app\app_adv_mgr.c ****         uuid_more[1].type = BLE_UUID_TYPE_16;
 713              		.loc 1 559 9 is_stmt 1
 560:C:/Users/stapi/OneDrive/Desktop/GD32VW553/V1_MQTT_OK/GD32VW55X_Wifi_BLE_SDK/GD32VW55x_RELEASE_V1.0.2/MSDK/ble/app\app_adv_mgr.c ****         uuid_more[1].data.uuid_16 = 0x5678;
 714              		.loc 1 560 9
 560:C:/Users/stapi/OneDrive/Desktop/GD32VW553/V1_MQTT_OK/GD32VW55X_Wifi_BLE_SDK/GD32VW55x_RELEASE_V1.0.2/MSDK/ble/app\app_adv_mgr.c ****         uuid_more[1].data.uuid_16 = 0x5678;
 715              		.loc 1 560 27 is_stmt 0
 716 0228 82C8     		sw	zero,80(sp)
 561:C:/Users/stapi/OneDrive/Desktop/GD32VW553/V1_MQTT_OK/GD32VW55X_Wifi_BLE_SDK/GD32VW55x_RELEASE_V1.0.2/MSDK/ble/app\app_adv_mgr.c ****         adv_data.uuid_more_available.uuid_cnt = 2;
 717              		.loc 1 561 9 is_stmt 1
 562:C:/Users/stapi/OneDrive/Desktop/GD32VW553/V1_MQTT_OK/GD32VW55X_Wifi_BLE_SDK/GD32VW55x_RELEASE_V1.0.2/MSDK/ble/app\app_adv_mgr.c ****         adv_data.uuid_more_available.p_uuid = uuid_more;
 718              		.loc 1 562 9
 563:C:/Users/stapi/OneDrive/Desktop/GD32VW553/V1_MQTT_OK/GD32VW55X_Wifi_BLE_SDK/GD32VW55x_RELEASE_V1.0.2/MSDK/ble/app\app_adv_mgr.c **** 
 719              		.loc 1 563 9
 565:C:/Users/stapi/OneDrive/Desktop/GD32VW553/V1_MQTT_OK/GD32VW55X_Wifi_BLE_SDK/GD32VW55x_RELEASE_V1.0.2/MSDK/ble/app\app_adv_mgr.c ****         uuid_cmpl[0].data.uuid_16 = 0x1234;
 720              		.loc 1 565 9
 565:C:/Users/stapi/OneDrive/Desktop/GD32VW553/V1_MQTT_OK/GD32VW55X_Wifi_BLE_SDK/GD32VW55x_RELEASE_V1.0.2/MSDK/ble/app\app_adv_mgr.c ****         uuid_cmpl[0].data.uuid_16 = 0x1234;
 721              		.loc 1 565 27 is_stmt 0
 722 022a 02CF     		sw	zero,156(sp)
 566:C:/Users/stapi/OneDrive/Desktop/GD32VW553/V1_MQTT_OK/GD32VW55X_Wifi_BLE_SDK/GD32VW55x_RELEASE_V1.0.2/MSDK/ble/app\app_adv_mgr.c ****         uuid_cmpl[1].type = BLE_UUID_TYPE_32;
 723              		.loc 1 566 9 is_stmt 1
 567:C:/Users/stapi/OneDrive/Desktop/GD32VW553/V1_MQTT_OK/GD32VW55X_Wifi_BLE_SDK/GD32VW55x_RELEASE_V1.0.2/MSDK/ble/app\app_adv_mgr.c ****         uuid_cmpl[1].data.uuid_32 = 0x56789ABC;
 724              		.loc 1 567 9
 568:C:/Users/stapi/OneDrive/Desktop/GD32VW553/V1_MQTT_OK/GD32VW55X_Wifi_BLE_SDK/GD32VW55x_RELEASE_V1.0.2/MSDK/ble/app\app_adv_mgr.c ****         uuid_cmpl[2].type = BLE_UUID_TYPE_128;
 725              		.loc 1 568 9
 569:C:/Users/stapi/OneDrive/Desktop/GD32VW553/V1_MQTT_OK/GD32VW55X_Wifi_BLE_SDK/GD32VW55x_RELEASE_V1.0.2/MSDK/ble/app\app_adv_mgr.c ****         for (i = 0; i < 16; i++) {
 726              		.loc 1 569 9
 570:C:/Users/stapi/OneDrive/Desktop/GD32VW553/V1_MQTT_OK/GD32VW55X_Wifi_BLE_SDK/GD32VW55x_RELEASE_V1.0.2/MSDK/ble/app\app_adv_mgr.c ****             uuid_cmpl[2].data.uuid_128[i] = i;
 727              		.loc 1 570 9
 728              	.LVL52:
 570:C:/Users/stapi/OneDrive/Desktop/GD32VW553/V1_MQTT_OK/GD32VW55X_Wifi_BLE_SDK/GD32VW55x_RELEASE_V1.0.2/MSDK/ble/app\app_adv_mgr.c ****             uuid_cmpl[2].data.uuid_128[i] = i;
 729              		.loc 1 570 21
 570:C:/Users/stapi/OneDrive/Desktop/GD32VW553/V1_MQTT_OK/GD32VW55X_Wifi_BLE_SDK/GD32VW55x_RELEASE_V1.0.2/MSDK/ble/app\app_adv_mgr.c ****             uuid_cmpl[2].data.uuid_128[i] = i;
 730              		.loc 1 570 16 is_stmt 0
 731 022c 8147     		li	a5,0
 732 022e BA86     		mv	a3,a4
 570:C:/Users/stapi/OneDrive/Desktop/GD32VW553/V1_MQTT_OK/GD32VW55X_Wifi_BLE_SDK/GD32VW55x_RELEASE_V1.0.2/MSDK/ble/app\app_adv_mgr.c ****             uuid_cmpl[2].data.uuid_128[i] = i;
 733              		.loc 1 570 9
 734 0230 4146     		li	a2,16
 735              	.LVL53:
 736              	.L37:
 571:C:/Users/stapi/OneDrive/Desktop/GD32VW553/V1_MQTT_OK/GD32VW55X_Wifi_BLE_SDK/GD32VW55x_RELEASE_V1.0.2/MSDK/ble/app\app_adv_mgr.c ****         }
 737              		.loc 1 571 13 is_stmt 1 discriminator 3
 571:C:/Users/stapi/OneDrive/Desktop/GD32VW553/V1_MQTT_OK/GD32VW55X_Wifi_BLE_SDK/GD32VW55x_RELEASE_V1.0.2/MSDK/ble/app\app_adv_mgr.c ****         }
 738              		.loc 1 571 43 is_stmt 0 discriminator 3
 739 0232 2306F702 		sb	a5,44(a4)
 570:C:/Users/stapi/OneDrive/Desktop/GD32VW553/V1_MQTT_OK/GD32VW55X_Wifi_BLE_SDK/GD32VW55x_RELEASE_V1.0.2/MSDK/ble/app\app_adv_mgr.c ****             uuid_cmpl[2].data.uuid_128[i] = i;
 740              		.loc 1 570 29 is_stmt 1 discriminator 3
 570:C:/Users/stapi/OneDrive/Desktop/GD32VW553/V1_MQTT_OK/GD32VW55X_Wifi_BLE_SDK/GD32VW55x_RELEASE_V1.0.2/MSDK/ble/app\app_adv_mgr.c ****             uuid_cmpl[2].data.uuid_128[i] = i;
 741              		.loc 1 570 30 is_stmt 0 discriminator 3
 742 0236 8507     		addi	a5,a5,1
 743              	.LVL54:
 744 0238 93F7F70F 		andi	a5,a5,0xff
 745              	.LVL55:
 570:C:/Users/stapi/OneDrive/Desktop/GD32VW553/V1_MQTT_OK/GD32VW55X_Wifi_BLE_SDK/GD32VW55x_RELEASE_V1.0.2/MSDK/ble/app\app_adv_mgr.c ****             uuid_cmpl[2].data.uuid_128[i] = i;
 746              		.loc 1 570 21 is_stmt 1 discriminator 3
 570:C:/Users/stapi/OneDrive/Desktop/GD32VW553/V1_MQTT_OK/GD32VW55X_Wifi_BLE_SDK/GD32VW55x_RELEASE_V1.0.2/MSDK/ble/app\app_adv_mgr.c ****             uuid_cmpl[2].data.uuid_128[i] = i;
 747              		.loc 1 570 9 is_stmt 0 discriminator 3
 748 023c 0507     		addi	a4,a4,1
 749 023e E39AC7FE 		bne	a5,a2,.L37
 573:C:/Users/stapi/OneDrive/Desktop/GD32VW553/V1_MQTT_OK/GD32VW55X_Wifi_BLE_SDK/GD32VW55x_RELEASE_V1.0.2/MSDK/ble/app\app_adv_mgr.c ****         adv_data.uuid_complete.p_uuid = uuid_cmpl;
 750              		.loc 1 573 9 is_stmt 1 discriminator 8
 577:C:/Users/stapi/OneDrive/Desktop/GD32VW553/V1_MQTT_OK/GD32VW55X_Wifi_BLE_SDK/GD32VW55x_RELEASE_V1.0.2/MSDK/ble/app\app_adv_mgr.c ****         uuid_solicited[1].type = BLE_UUID_TYPE_32;
 751              		.loc 1 577 40 is_stmt 0 discriminator 8
 752 0242 0567     		li	a4,4096
 574:C:/Users/stapi/OneDrive/Desktop/GD32VW553/V1_MQTT_OK/GD32VW55X_Wifi_BLE_SDK/GD32VW55x_RELEASE_V1.0.2/MSDK/ble/app\app_adv_mgr.c **** 
 753              		.loc 1 574 39 discriminator 8
 754 0244 B6DD     		sw	a3,248(sp)
 579:C:/Users/stapi/OneDrive/Desktop/GD32VW553/V1_MQTT_OK/GD32VW55X_Wifi_BLE_SDK/GD32VW55x_RELEASE_V1.0.2/MSDK/ble/app\app_adv_mgr.c ****         uuid_solicited[2].type = BLE_UUID_TYPE_16;
 755              		.loc 1 579 40 discriminator 8
 756 0246 B7362211 		li	a3,287453184
 577:C:/Users/stapi/OneDrive/Desktop/GD32VW553/V1_MQTT_OK/GD32VW55X_Wifi_BLE_SDK/GD32VW55x_RELEASE_V1.0.2/MSDK/ble/app\app_adv_mgr.c ****         uuid_solicited[1].type = BLE_UUID_TYPE_32;
 757              		.loc 1 577 40 discriminator 8
 758 024a 93074723 		addi	a5,a4,564
 759              	.LVL56:
 579:C:/Users/stapi/OneDrive/Desktop/GD32VW553/V1_MQTT_OK/GD32VW55X_Wifi_BLE_SDK/GD32VW55x_RELEASE_V1.0.2/MSDK/ble/app\app_adv_mgr.c ****         uuid_solicited[2].type = BLE_UUID_TYPE_16;
 760              		.loc 1 579 40 discriminator 8
 761 024e 93864634 		addi	a3,a3,836
 577:C:/Users/stapi/OneDrive/Desktop/GD32VW553/V1_MQTT_OK/GD32VW55X_Wifi_BLE_SDK/GD32VW55x_RELEASE_V1.0.2/MSDK/ble/app\app_adv_mgr.c ****         uuid_solicited[1].type = BLE_UUID_TYPE_32;
 762              		.loc 1 577 40 discriminator 8
 763 0252 2316F112 		sh	a5,300(sp)
 579:C:/Users/stapi/OneDrive/Desktop/GD32VW553/V1_MQTT_OK/GD32VW55X_Wifi_BLE_SDK/GD32VW55x_RELEASE_V1.0.2/MSDK/ble/app\app_adv_mgr.c ****         uuid_solicited[2].type = BLE_UUID_TYPE_16;
 764              		.loc 1 579 40 discriminator 8
 765 0256 2320D114 		sw	a3,320(sp)
 578:C:/Users/stapi/OneDrive/Desktop/GD32VW553/V1_MQTT_OK/GD32VW55X_Wifi_BLE_SDK/GD32VW55x_RELEASE_V1.0.2/MSDK/ble/app\app_adv_mgr.c ****         uuid_solicited[1].data.uuid_32 = 0x11223344;
 766              		.loc 1 578 32 discriminator 8
 767 025a 8547     		li	a5,1
 581:C:/Users/stapi/OneDrive/Desktop/GD32VW553/V1_MQTT_OK/GD32VW55X_Wifi_BLE_SDK/GD32VW55x_RELEASE_V1.0.2/MSDK/ble/app\app_adv_mgr.c ****         uuid_solicited[3].type = BLE_UUID_TYPE_32;
 768              		.loc 1 581 40 discriminator 8
 769 025c 9566     		li	a3,20480
 770 025e 93868667 		addi	a3,a3,1656
 578:C:/Users/stapi/OneDrive/Desktop/GD32VW553/V1_MQTT_OK/GD32VW55X_Wifi_BLE_SDK/GD32VW55x_RELEASE_V1.0.2/MSDK/ble/app\app_adv_mgr.c ****         uuid_solicited[1].data.uuid_32 = 0x11223344;
 771              		.loc 1 578 32 discriminator 8
 772 0262 232EF112 		sw	a5,316(sp)
 582:C:/Users/stapi/OneDrive/Desktop/GD32VW553/V1_MQTT_OK/GD32VW55X_Wifi_BLE_SDK/GD32VW55x_RELEASE_V1.0.2/MSDK/ble/app\app_adv_mgr.c ****         uuid_solicited[3].data.uuid_32 = 0x55667788;
 773              		.loc 1 582 32 discriminator 8
 774 0266 2322F116 		sw	a5,356(sp)
 586:C:/Users/stapi/OneDrive/Desktop/GD32VW553/V1_MQTT_OK/GD32VW55X_Wifi_BLE_SDK/GD32VW55x_RELEASE_V1.0.2/MSDK/ble/app\app_adv_mgr.c ****         uuid_solicited[5].data.uuid_32 = 0xAABBCCDD;
 775              		.loc 1 586 32 discriminator 8
 776 026a 2326F118 		sw	a5,396(sp)
 595:C:/Users/stapi/OneDrive/Desktop/GD32VW553/V1_MQTT_OK/GD32VW55X_Wifi_BLE_SDK/GD32VW55x_RELEASE_V1.0.2/MSDK/ble/app\app_adv_mgr.c ****         srv_data[1].uuid.data.uuid_32 = 0x12345678;
 777              		.loc 1 595 31 discriminator 8
 778 026e 3EC1     		sw	a5,128(sp)
 596:C:/Users/stapi/OneDrive/Desktop/GD32VW553/V1_MQTT_OK/GD32VW55X_Wifi_BLE_SDK/GD32VW55x_RELEASE_V1.0.2/MSDK/ble/app\app_adv_mgr.c ****         srv_data[1].data_len = 3;
 779              		.loc 1 596 39 discriminator 8
 780 0270 B7573412 		li	a5,305418240
 781 0274 93878767 		addi	a5,a5,1656
 581:C:/Users/stapi/OneDrive/Desktop/GD32VW553/V1_MQTT_OK/GD32VW55X_Wifi_BLE_SDK/GD32VW55x_RELEASE_V1.0.2/MSDK/ble/app\app_adv_mgr.c ****         uuid_solicited[3].type = BLE_UUID_TYPE_32;
 782              		.loc 1 581 40 discriminator 8
 783 0278 231AD114 		sh	a3,340(sp)
 583:C:/Users/stapi/OneDrive/Desktop/GD32VW553/V1_MQTT_OK/GD32VW55X_Wifi_BLE_SDK/GD32VW55x_RELEASE_V1.0.2/MSDK/ble/app\app_adv_mgr.c ****         uuid_solicited[4].type = BLE_UUID_TYPE_16;
 784              		.loc 1 583 40 discriminator 8
 785 027c B7766655 		li	a3,1432776704
 786 0280 93868678 		addi	a3,a3,1928
 596:C:/Users/stapi/OneDrive/Desktop/GD32VW553/V1_MQTT_OK/GD32VW55X_Wifi_BLE_SDK/GD32VW55x_RELEASE_V1.0.2/MSDK/ble/app\app_adv_mgr.c ****         srv_data[1].data_len = 3;
 787              		.loc 1 596 39 discriminator 8
 788 0284 3EC3     		sw	a5,132(sp)
 598:C:/Users/stapi/OneDrive/Desktop/GD32VW553/V1_MQTT_OK/GD32VW55X_Wifi_BLE_SDK/GD32VW55x_RELEASE_V1.0.2/MSDK/ble/app\app_adv_mgr.c ****         adv_data.srv_data.cnt = 2;
 789              		.loc 1 598 28 discriminator 8
 790 0286 1C08     		addi	a5,sp,16
 592:C:/Users/stapi/OneDrive/Desktop/GD32VW553/V1_MQTT_OK/GD32VW55X_Wifi_BLE_SDK/GD32VW55x_RELEASE_V1.0.2/MSDK/ble/app\app_adv_mgr.c ****         srv_data[0].data_len = 8;
 791              		.loc 1 592 39 discriminator 8
 792 0288 13079719 		addi	a4,a4,409
 583:C:/Users/stapi/OneDrive/Desktop/GD32VW553/V1_MQTT_OK/GD32VW55X_Wifi_BLE_SDK/GD32VW55x_RELEASE_V1.0.2/MSDK/ble/app\app_adv_mgr.c ****         uuid_solicited[4].type = BLE_UUID_TYPE_16;
 793              		.loc 1 583 40 discriminator 8
 794 028c 2324D116 		sw	a3,360(sp)
 598:C:/Users/stapi/OneDrive/Desktop/GD32VW553/V1_MQTT_OK/GD32VW55X_Wifi_BLE_SDK/GD32VW55x_RELEASE_V1.0.2/MSDK/ble/app\app_adv_mgr.c ****         adv_data.srv_data.cnt = 2;
 795              		.loc 1 598 28 discriminator 8
 796 0290 3ECD     		sw	a5,152(sp)
 585:C:/Users/stapi/OneDrive/Desktop/GD32VW553/V1_MQTT_OK/GD32VW55X_Wifi_BLE_SDK/GD32VW55x_RELEASE_V1.0.2/MSDK/ble/app\app_adv_mgr.c ****         uuid_solicited[5].type = BLE_UUID_TYPE_32;
 797              		.loc 1 585 40 discriminator 8
 798 0292 ED76     		li	a3,-20480
 599:C:/Users/stapi/OneDrive/Desktop/GD32VW553/V1_MQTT_OK/GD32VW55X_Wifi_BLE_SDK/GD32VW55x_RELEASE_V1.0.2/MSDK/ble/app\app_adv_mgr.c ****         adv_data.srv_data.p_data = srv_data;
 799              		.loc 1 599 31 discriminator 8
 800 0294 8947     		li	a5,2
 585:C:/Users/stapi/OneDrive/Desktop/GD32VW553/V1_MQTT_OK/GD32VW55X_Wifi_BLE_SDK/GD32VW55x_RELEASE_V1.0.2/MSDK/ble/app\app_adv_mgr.c ****         uuid_solicited[5].type = BLE_UUID_TYPE_32;
 801              		.loc 1 585 40 discriminator 8
 802 0296 9386D6BC 		addi	a3,a3,-1075
 592:C:/Users/stapi/OneDrive/Desktop/GD32VW553/V1_MQTT_OK/GD32VW55X_Wifi_BLE_SDK/GD32VW55x_RELEASE_V1.0.2/MSDK/ble/app\app_adv_mgr.c ****         srv_data[0].data_len = 8;
 803              		.loc 1 592 39 discriminator 8
 804 029a 2314E106 		sh	a4,104(sp)
 599:C:/Users/stapi/OneDrive/Desktop/GD32VW553/V1_MQTT_OK/GD32VW55X_Wifi_BLE_SDK/GD32VW55x_RELEASE_V1.0.2/MSDK/ble/app\app_adv_mgr.c ****         adv_data.srv_data.p_data = srv_data;
 805              		.loc 1 599 31 discriminator 8
 806 029e 2306F110 		sb	a5,268(sp)
 593:C:/Users/stapi/OneDrive/Desktop/GD32VW553/V1_MQTT_OK/GD32VW55X_Wifi_BLE_SDK/GD32VW55x_RELEASE_V1.0.2/MSDK/ble/app\app_adv_mgr.c ****         srv_data[0].p_data = service_data;
 807              		.loc 1 593 30 discriminator 8
 808 02a2 2147     		li	a4,8
 600:C:/Users/stapi/OneDrive/Desktop/GD32VW553/V1_MQTT_OK/GD32VW55X_Wifi_BLE_SDK/GD32VW55x_RELEASE_V1.0.2/MSDK/ble/app\app_adv_mgr.c **** 
 809              		.loc 1 600 34 discriminator 8
 810 02a4 DC10     		addi	a5,sp,100
 585:C:/Users/stapi/OneDrive/Desktop/GD32VW553/V1_MQTT_OK/GD32VW55X_Wifi_BLE_SDK/GD32VW55x_RELEASE_V1.0.2/MSDK/ble/app\app_adv_mgr.c ****         uuid_solicited[5].type = BLE_UUID_TYPE_32;
 811              		.loc 1 585 40 discriminator 8
 812 02a6 231ED116 		sh	a3,380(sp)
 593:C:/Users/stapi/OneDrive/Desktop/GD32VW553/V1_MQTT_OK/GD32VW55X_Wifi_BLE_SDK/GD32VW55x_RELEASE_V1.0.2/MSDK/ble/app\app_adv_mgr.c ****         srv_data[0].p_data = service_data;
 813              		.loc 1 593 30 discriminator 8
 814 02aa 231CE106 		sh	a4,120(sp)
 587:C:/Users/stapi/OneDrive/Desktop/GD32VW553/V1_MQTT_OK/GD32VW55X_Wifi_BLE_SDK/GD32VW55x_RELEASE_V1.0.2/MSDK/ble/app\app_adv_mgr.c ****         adv_data.uuid_solicited.uuid_cnt = 6;
 815              		.loc 1 587 40 discriminator 8
 816 02ae B7D6BBAA 		li	a3,-1430532096
 594:C:/Users/stapi/OneDrive/Desktop/GD32VW553/V1_MQTT_OK/GD32VW55X_Wifi_BLE_SDK/GD32VW55x_RELEASE_V1.0.2/MSDK/ble/app\app_adv_mgr.c ****         srv_data[1].uuid.type = BLE_UUID_TYPE_32;
 817              		.loc 1 594 28 discriminator 8
 818 02b2 37070000 		lui	a4,%hi(.LANCHOR10)
 600:C:/Users/stapi/OneDrive/Desktop/GD32VW553/V1_MQTT_OK/GD32VW55X_Wifi_BLE_SDK/GD32VW55x_RELEASE_V1.0.2/MSDK/ble/app\app_adv_mgr.c **** 
 819              		.loc 1 600 34 discriminator 8
 820 02b6 2328F110 		sw	a5,272(sp)
 602:C:/Users/stapi/OneDrive/Desktop/GD32VW553/V1_MQTT_OK/GD32VW55X_Wifi_BLE_SDK/GD32VW55x_RELEASE_V1.0.2/MSDK/ble/app\app_adv_mgr.c ****         adv_data.url.p_url = url;
 821              		.loc 1 602 30 discriminator 8
 822 02ba E547     		li	a5,25
 587:C:/Users/stapi/OneDrive/Desktop/GD32VW553/V1_MQTT_OK/GD32VW55X_Wifi_BLE_SDK/GD32VW55x_RELEASE_V1.0.2/MSDK/ble/app\app_adv_mgr.c ****         adv_data.uuid_solicited.uuid_cnt = 6;
 823              		.loc 1 587 40 discriminator 8
 824 02bc 9386D6CD 		addi	a3,a3,-803
 594:C:/Users/stapi/OneDrive/Desktop/GD32VW553/V1_MQTT_OK/GD32VW55X_Wifi_BLE_SDK/GD32VW55x_RELEASE_V1.0.2/MSDK/ble/app\app_adv_mgr.c ****         srv_data[1].uuid.type = BLE_UUID_TYPE_32;
 825              		.loc 1 594 28 discriminator 8
 826 02c0 13070700 		addi	a4,a4,%lo(.LANCHOR10)
 602:C:/Users/stapi/OneDrive/Desktop/GD32VW553/V1_MQTT_OK/GD32VW55X_Wifi_BLE_SDK/GD32VW55x_RELEASE_V1.0.2/MSDK/ble/app\app_adv_mgr.c ****         adv_data.url.p_url = url;
 827              		.loc 1 602 30 discriminator 8
 828 02c4 231EF110 		sh	a5,284(sp)
 603:C:/Users/stapi/OneDrive/Desktop/GD32VW553/V1_MQTT_OK/GD32VW55X_Wifi_BLE_SDK/GD32VW55x_RELEASE_V1.0.2/MSDK/ble/app\app_adv_mgr.c **** 
 829              		.loc 1 603 28 discriminator 8
 830 02c8 B7070000 		lui	a5,%hi(.LANCHOR11)
 831 02cc 93870700 		addi	a5,a5,%lo(.LANCHOR11)
 587:C:/Users/stapi/OneDrive/Desktop/GD32VW553/V1_MQTT_OK/GD32VW55X_Wifi_BLE_SDK/GD32VW55x_RELEASE_V1.0.2/MSDK/ble/app\app_adv_mgr.c ****         adv_data.uuid_solicited.uuid_cnt = 6;
 832              		.loc 1 587 40 discriminator 8
 833 02d0 2328D118 		sw	a3,400(sp)
 594:C:/Users/stapi/OneDrive/Desktop/GD32VW553/V1_MQTT_OK/GD32VW55X_Wifi_BLE_SDK/GD32VW55x_RELEASE_V1.0.2/MSDK/ble/app\app_adv_mgr.c ****         srv_data[1].uuid.type = BLE_UUID_TYPE_32;
 834              		.loc 1 594 28 discriminator 8
 835 02d4 BADE     		sw	a4,124(sp)
 588:C:/Users/stapi/OneDrive/Desktop/GD32VW553/V1_MQTT_OK/GD32VW55X_Wifi_BLE_SDK/GD32VW55x_RELEASE_V1.0.2/MSDK/ble/app\app_adv_mgr.c ****         adv_data.uuid_solicited.p_uuid = uuid_solicited;
 836              		.loc 1 588 42 discriminator 8
 837 02d6 9946     		li	a3,6
 605:C:/Users/stapi/OneDrive/Desktop/GD32VW553/V1_MQTT_OK/GD32VW55X_Wifi_BLE_SDK/GD32VW55x_RELEASE_V1.0.2/MSDK/ble/app\app_adv_mgr.c ****         manuf_data.data_len = 25;
 838              		.loc 1 605 31 discriminator 8
 839 02d8 37171900 		li	a4,1642496
 573:C:/Users/stapi/OneDrive/Desktop/GD32VW553/V1_MQTT_OK/GD32VW55X_Wifi_BLE_SDK/GD32VW55x_RELEASE_V1.0.2/MSDK/ble/app\app_adv_mgr.c ****         adv_data.uuid_complete.p_uuid = uuid_cmpl;
 840              		.loc 1 573 41 discriminator 8
 841 02dc 0D46     		li	a2,3
 588:C:/Users/stapi/OneDrive/Desktop/GD32VW553/V1_MQTT_OK/GD32VW55X_Wifi_BLE_SDK/GD32VW55x_RELEASE_V1.0.2/MSDK/ble/app\app_adv_mgr.c ****         adv_data.uuid_solicited.p_uuid = uuid_solicited;
 842              		.loc 1 588 42 discriminator 8
 843 02de 231ED10E 		sh	a3,252(sp)
 603:C:/Users/stapi/OneDrive/Desktop/GD32VW553/V1_MQTT_OK/GD32VW55X_Wifi_BLE_SDK/GD32VW55x_RELEASE_V1.0.2/MSDK/ble/app\app_adv_mgr.c **** 
 844              		.loc 1 603 28 discriminator 8
 845 02e2 232CF110 		sw	a5,280(sp)
 589:C:/Users/stapi/OneDrive/Desktop/GD32VW553/V1_MQTT_OK/GD32VW55X_Wifi_BLE_SDK/GD32VW55x_RELEASE_V1.0.2/MSDK/ble/app\app_adv_mgr.c **** 
 846              		.loc 1 589 40 discriminator 8
 847 02e6 3412     		addi	a3,sp,296
 605:C:/Users/stapi/OneDrive/Desktop/GD32VW553/V1_MQTT_OK/GD32VW55X_Wifi_BLE_SDK/GD32VW55x_RELEASE_V1.0.2/MSDK/ble/app\app_adv_mgr.c ****         manuf_data.data_len = 25;
 848              		.loc 1 605 31 discriminator 8
 849 02e8 1307B7C2 		addi	a4,a4,-981
 607:C:/Users/stapi/OneDrive/Desktop/GD32VW553/V1_MQTT_OK/GD32VW55X_Wifi_BLE_SDK/GD32VW55x_RELEASE_V1.0.2/MSDK/ble/app\app_adv_mgr.c ****         adv_data.p_manuf_specific_data = &manuf_data;
 850              		.loc 1 607 27 discriminator 8
 851 02ec 3EDC     		sw	a5,56(sp)
 608:C:/Users/stapi/OneDrive/Desktop/GD32VW553/V1_MQTT_OK/GD32VW55X_Wifi_BLE_SDK/GD32VW55x_RELEASE_V1.0.2/MSDK/ble/app\app_adv_mgr.c **** 
 852              		.loc 1 608 40 discriminator 8
 853 02ee 5C18     		addi	a5,sp,52
 854 02f0 2324F110 		sw	a5,264(sp)
 573:C:/Users/stapi/OneDrive/Desktop/GD32VW553/V1_MQTT_OK/GD32VW55X_Wifi_BLE_SDK/GD32VW55x_RELEASE_V1.0.2/MSDK/ble/app\app_adv_mgr.c ****         adv_data.uuid_complete.p_uuid = uuid_cmpl;
 855              		.loc 1 573 41 discriminator 8
 856 02f4 231AC10E 		sh	a2,244(sp)
 574:C:/Users/stapi/OneDrive/Desktop/GD32VW553/V1_MQTT_OK/GD32VW55X_Wifi_BLE_SDK/GD32VW55x_RELEASE_V1.0.2/MSDK/ble/app\app_adv_mgr.c **** 
 857              		.loc 1 574 9 is_stmt 1 discriminator 8
 576:C:/Users/stapi/OneDrive/Desktop/GD32VW553/V1_MQTT_OK/GD32VW55X_Wifi_BLE_SDK/GD32VW55x_RELEASE_V1.0.2/MSDK/ble/app\app_adv_mgr.c ****         uuid_solicited[0].data.uuid_16 = 0x1234;
 858              		.loc 1 576 9 discriminator 8
 576:C:/Users/stapi/OneDrive/Desktop/GD32VW553/V1_MQTT_OK/GD32VW55X_Wifi_BLE_SDK/GD32VW55x_RELEASE_V1.0.2/MSDK/ble/app\app_adv_mgr.c ****         uuid_solicited[0].data.uuid_16 = 0x1234;
 859              		.loc 1 576 32 is_stmt 0 discriminator 8
 860 02f8 23240112 		sw	zero,296(sp)
 577:C:/Users/stapi/OneDrive/Desktop/GD32VW553/V1_MQTT_OK/GD32VW55X_Wifi_BLE_SDK/GD32VW55x_RELEASE_V1.0.2/MSDK/ble/app\app_adv_mgr.c ****         uuid_solicited[1].type = BLE_UUID_TYPE_32;
 861              		.loc 1 577 9 is_stmt 1 discriminator 8
 578:C:/Users/stapi/OneDrive/Desktop/GD32VW553/V1_MQTT_OK/GD32VW55X_Wifi_BLE_SDK/GD32VW55x_RELEASE_V1.0.2/MSDK/ble/app\app_adv_mgr.c ****         uuid_solicited[1].data.uuid_32 = 0x11223344;
 862              		.loc 1 578 9 discriminator 8
 579:C:/Users/stapi/OneDrive/Desktop/GD32VW553/V1_MQTT_OK/GD32VW55X_Wifi_BLE_SDK/GD32VW55x_RELEASE_V1.0.2/MSDK/ble/app\app_adv_mgr.c ****         uuid_solicited[2].type = BLE_UUID_TYPE_16;
 863              		.loc 1 579 9 discriminator 8
 580:C:/Users/stapi/OneDrive/Desktop/GD32VW553/V1_MQTT_OK/GD32VW55X_Wifi_BLE_SDK/GD32VW55x_RELEASE_V1.0.2/MSDK/ble/app\app_adv_mgr.c ****         uuid_solicited[2].data.uuid_16 = 0x5678;
 864              		.loc 1 580 9 discriminator 8
 580:C:/Users/stapi/OneDrive/Desktop/GD32VW553/V1_MQTT_OK/GD32VW55X_Wifi_BLE_SDK/GD32VW55x_RELEASE_V1.0.2/MSDK/ble/app\app_adv_mgr.c ****         uuid_solicited[2].data.uuid_16 = 0x5678;
 865              		.loc 1 580 32 is_stmt 0 discriminator 8
 866 02fc 23280114 		sw	zero,336(sp)
 581:C:/Users/stapi/OneDrive/Desktop/GD32VW553/V1_MQTT_OK/GD32VW55X_Wifi_BLE_SDK/GD32VW55x_RELEASE_V1.0.2/MSDK/ble/app\app_adv_mgr.c ****         uuid_solicited[3].type = BLE_UUID_TYPE_32;
 867              		.loc 1 581 9 is_stmt 1 discriminator 8
 582:C:/Users/stapi/OneDrive/Desktop/GD32VW553/V1_MQTT_OK/GD32VW55X_Wifi_BLE_SDK/GD32VW55x_RELEASE_V1.0.2/MSDK/ble/app\app_adv_mgr.c ****         uuid_solicited[3].data.uuid_32 = 0x55667788;
 868              		.loc 1 582 9 discriminator 8
 583:C:/Users/stapi/OneDrive/Desktop/GD32VW553/V1_MQTT_OK/GD32VW55X_Wifi_BLE_SDK/GD32VW55x_RELEASE_V1.0.2/MSDK/ble/app\app_adv_mgr.c ****         uuid_solicited[4].type = BLE_UUID_TYPE_16;
 869              		.loc 1 583 9 discriminator 8
 584:C:/Users/stapi/OneDrive/Desktop/GD32VW553/V1_MQTT_OK/GD32VW55X_Wifi_BLE_SDK/GD32VW55x_RELEASE_V1.0.2/MSDK/ble/app\app_adv_mgr.c ****         uuid_solicited[4].data.uuid_16 = 0xABCD;
 870              		.loc 1 584 9 discriminator 8
 584:C:/Users/stapi/OneDrive/Desktop/GD32VW553/V1_MQTT_OK/GD32VW55X_Wifi_BLE_SDK/GD32VW55x_RELEASE_V1.0.2/MSDK/ble/app\app_adv_mgr.c ****         uuid_solicited[4].data.uuid_16 = 0xABCD;
 871              		.loc 1 584 32 is_stmt 0 discriminator 8
 872 0300 232C0116 		sw	zero,376(sp)
 585:C:/Users/stapi/OneDrive/Desktop/GD32VW553/V1_MQTT_OK/GD32VW55X_Wifi_BLE_SDK/GD32VW55x_RELEASE_V1.0.2/MSDK/ble/app\app_adv_mgr.c ****         uuid_solicited[5].type = BLE_UUID_TYPE_32;
 873              		.loc 1 585 9 is_stmt 1 discriminator 8
 586:C:/Users/stapi/OneDrive/Desktop/GD32VW553/V1_MQTT_OK/GD32VW55X_Wifi_BLE_SDK/GD32VW55x_RELEASE_V1.0.2/MSDK/ble/app\app_adv_mgr.c ****         uuid_solicited[5].data.uuid_32 = 0xAABBCCDD;
 874              		.loc 1 586 9 discriminator 8
 587:C:/Users/stapi/OneDrive/Desktop/GD32VW553/V1_MQTT_OK/GD32VW55X_Wifi_BLE_SDK/GD32VW55x_RELEASE_V1.0.2/MSDK/ble/app\app_adv_mgr.c ****         adv_data.uuid_solicited.uuid_cnt = 6;
 875              		.loc 1 587 9 discriminator 8
 588:C:/Users/stapi/OneDrive/Desktop/GD32VW553/V1_MQTT_OK/GD32VW55X_Wifi_BLE_SDK/GD32VW55x_RELEASE_V1.0.2/MSDK/ble/app\app_adv_mgr.c ****         adv_data.uuid_solicited.p_uuid = uuid_solicited;
 876              		.loc 1 588 9 discriminator 8
 589:C:/Users/stapi/OneDrive/Desktop/GD32VW553/V1_MQTT_OK/GD32VW55X_Wifi_BLE_SDK/GD32VW55x_RELEASE_V1.0.2/MSDK/ble/app\app_adv_mgr.c **** 
 877              		.loc 1 589 9 discriminator 8
 589:C:/Users/stapi/OneDrive/Desktop/GD32VW553/V1_MQTT_OK/GD32VW55X_Wifi_BLE_SDK/GD32VW55x_RELEASE_V1.0.2/MSDK/ble/app\app_adv_mgr.c **** 
 878              		.loc 1 589 40 is_stmt 0 discriminator 8
 879 0304 2320D110 		sw	a3,256(sp)
 591:C:/Users/stapi/OneDrive/Desktop/GD32VW553/V1_MQTT_OK/GD32VW55X_Wifi_BLE_SDK/GD32VW55x_RELEASE_V1.0.2/MSDK/ble/app\app_adv_mgr.c ****         srv_data[0].uuid.data.uuid_16 = 0x1199;
 880              		.loc 1 591 9 is_stmt 1 discriminator 8
 591:C:/Users/stapi/OneDrive/Desktop/GD32VW553/V1_MQTT_OK/GD32VW55X_Wifi_BLE_SDK/GD32VW55x_RELEASE_V1.0.2/MSDK/ble/app\app_adv_mgr.c ****         srv_data[0].uuid.data.uuid_16 = 0x1199;
 881              		.loc 1 591 31 is_stmt 0 discriminator 8
 882 0308 82D2     		sw	zero,100(sp)
 592:C:/Users/stapi/OneDrive/Desktop/GD32VW553/V1_MQTT_OK/GD32VW55X_Wifi_BLE_SDK/GD32VW55x_RELEASE_V1.0.2/MSDK/ble/app\app_adv_mgr.c ****         srv_data[0].data_len = 8;
 883              		.loc 1 592 9 is_stmt 1 discriminator 8
 593:C:/Users/stapi/OneDrive/Desktop/GD32VW553/V1_MQTT_OK/GD32VW55X_Wifi_BLE_SDK/GD32VW55x_RELEASE_V1.0.2/MSDK/ble/app\app_adv_mgr.c ****         srv_data[0].p_data = service_data;
 884              		.loc 1 593 9 discriminator 8
 594:C:/Users/stapi/OneDrive/Desktop/GD32VW553/V1_MQTT_OK/GD32VW55X_Wifi_BLE_SDK/GD32VW55x_RELEASE_V1.0.2/MSDK/ble/app\app_adv_mgr.c ****         srv_data[1].uuid.type = BLE_UUID_TYPE_32;
 885              		.loc 1 594 9 discriminator 8
 595:C:/Users/stapi/OneDrive/Desktop/GD32VW553/V1_MQTT_OK/GD32VW55X_Wifi_BLE_SDK/GD32VW55x_RELEASE_V1.0.2/MSDK/ble/app\app_adv_mgr.c ****         srv_data[1].uuid.data.uuid_32 = 0x12345678;
 886              		.loc 1 595 9 discriminator 8
 596:C:/Users/stapi/OneDrive/Desktop/GD32VW553/V1_MQTT_OK/GD32VW55X_Wifi_BLE_SDK/GD32VW55x_RELEASE_V1.0.2/MSDK/ble/app\app_adv_mgr.c ****         srv_data[1].data_len = 3;
 887              		.loc 1 596 9 discriminator 8
 597:C:/Users/stapi/OneDrive/Desktop/GD32VW553/V1_MQTT_OK/GD32VW55X_Wifi_BLE_SDK/GD32VW55x_RELEASE_V1.0.2/MSDK/ble/app\app_adv_mgr.c ****         srv_data[1].p_data = s_data;
 888              		.loc 1 597 9 discriminator 8
 597:C:/Users/stapi/OneDrive/Desktop/GD32VW553/V1_MQTT_OK/GD32VW55X_Wifi_BLE_SDK/GD32VW55x_RELEASE_V1.0.2/MSDK/ble/app\app_adv_mgr.c ****         srv_data[1].p_data = s_data;
 889              		.loc 1 597 30 is_stmt 0 discriminator 8
 890 030a 231AC108 		sh	a2,148(sp)
 598:C:/Users/stapi/OneDrive/Desktop/GD32VW553/V1_MQTT_OK/GD32VW55X_Wifi_BLE_SDK/GD32VW55x_RELEASE_V1.0.2/MSDK/ble/app\app_adv_mgr.c ****         adv_data.srv_data.cnt = 2;
 891              		.loc 1 598 9 is_stmt 1 discriminator 8
 599:C:/Users/stapi/OneDrive/Desktop/GD32VW553/V1_MQTT_OK/GD32VW55X_Wifi_BLE_SDK/GD32VW55x_RELEASE_V1.0.2/MSDK/ble/app\app_adv_mgr.c ****         adv_data.srv_data.p_data = srv_data;
 892              		.loc 1 599 9 discriminator 8
 600:C:/Users/stapi/OneDrive/Desktop/GD32VW553/V1_MQTT_OK/GD32VW55X_Wifi_BLE_SDK/GD32VW55x_RELEASE_V1.0.2/MSDK/ble/app\app_adv_mgr.c **** 
 893              		.loc 1 600 9 discriminator 8
 602:C:/Users/stapi/OneDrive/Desktop/GD32VW553/V1_MQTT_OK/GD32VW55X_Wifi_BLE_SDK/GD32VW55x_RELEASE_V1.0.2/MSDK/ble/app\app_adv_mgr.c ****         adv_data.url.p_url = url;
 894              		.loc 1 602 9 discriminator 8
 603:C:/Users/stapi/OneDrive/Desktop/GD32VW553/V1_MQTT_OK/GD32VW55X_Wifi_BLE_SDK/GD32VW55x_RELEASE_V1.0.2/MSDK/ble/app\app_adv_mgr.c **** 
 895              		.loc 1 603 9 discriminator 8
 605:C:/Users/stapi/OneDrive/Desktop/GD32VW553/V1_MQTT_OK/GD32VW55X_Wifi_BLE_SDK/GD32VW55x_RELEASE_V1.0.2/MSDK/ble/app\app_adv_mgr.c ****         manuf_data.data_len = 25;
 896              		.loc 1 605 9 discriminator 8
 606:C:/Users/stapi/OneDrive/Desktop/GD32VW553/V1_MQTT_OK/GD32VW55X_Wifi_BLE_SDK/GD32VW55x_RELEASE_V1.0.2/MSDK/ble/app\app_adv_mgr.c ****         manuf_data.p_data = url;
 897              		.loc 1 606 9 discriminator 8
 605:C:/Users/stapi/OneDrive/Desktop/GD32VW553/V1_MQTT_OK/GD32VW55X_Wifi_BLE_SDK/GD32VW55x_RELEASE_V1.0.2/MSDK/ble/app\app_adv_mgr.c ****         manuf_data.data_len = 25;
 898              		.loc 1 605 31 is_stmt 0 discriminator 8
 899 030e 3ADA     		sw	a4,52(sp)
 607:C:/Users/stapi/OneDrive/Desktop/GD32VW553/V1_MQTT_OK/GD32VW55X_Wifi_BLE_SDK/GD32VW55x_RELEASE_V1.0.2/MSDK/ble/app\app_adv_mgr.c ****         adv_data.p_manuf_specific_data = &manuf_data;
 900              		.loc 1 607 9 is_stmt 1 discriminator 8
 608:C:/Users/stapi/OneDrive/Desktop/GD32VW553/V1_MQTT_OK/GD32VW55X_Wifi_BLE_SDK/GD32VW55x_RELEASE_V1.0.2/MSDK/ble/app\app_adv_mgr.c **** 
 901              		.loc 1 608 9 discriminator 8
 610:C:/Users/stapi/OneDrive/Desktop/GD32VW553/V1_MQTT_OK/GD32VW55X_Wifi_BLE_SDK/GD32VW55x_RELEASE_V1.0.2/MSDK/ble/app\app_adv_mgr.c ****         adv.data.p_data_enc = &adv_data;
 902              		.loc 1 610 9 discriminator 8
 610:C:/Users/stapi/OneDrive/Desktop/GD32VW553/V1_MQTT_OK/GD32VW55X_Wifi_BLE_SDK/GD32VW55x_RELEASE_V1.0.2/MSDK/ble/app\app_adv_mgr.c ****         adv.data.p_data_enc = &adv_data;
 903              		.loc 1 610 24 is_stmt 0 discriminator 8
 904 0310 230E0100 		sb	zero,28(sp)
 611:C:/Users/stapi/OneDrive/Desktop/GD32VW553/V1_MQTT_OK/GD32VW55X_Wifi_BLE_SDK/GD32VW55x_RELEASE_V1.0.2/MSDK/ble/app\app_adv_mgr.c **** 
 905              		.loc 1 611 9 is_stmt 1 discriminator 8
 611:C:/Users/stapi/OneDrive/Desktop/GD32VW553/V1_MQTT_OK/GD32VW55X_Wifi_BLE_SDK/GD32VW55x_RELEASE_V1.0.2/MSDK/ble/app\app_adv_mgr.c **** 
 906              		.loc 1 611 29 is_stmt 0 discriminator 8
 907 0314 BC09     		addi	a5,sp,216
 908 0316 F9BB     		j	.L51
 909              	.LVL57:
 910              	.L24:
 911              	.LBE16:
 912              	.LBB17:
 618:C:/Users/stapi/OneDrive/Desktop/GD32VW553/V1_MQTT_OK/GD32VW55X_Wifi_BLE_SDK/GD32VW55x_RELEASE_V1.0.2/MSDK/ble/app\app_adv_mgr.c ****         ble_data_t sr_data;
 913              		.loc 1 618 9 is_stmt 1
 619:C:/Users/stapi/OneDrive/Desktop/GD32VW553/V1_MQTT_OK/GD32VW55X_Wifi_BLE_SDK/GD32VW55x_RELEASE_V1.0.2/MSDK/ble/app\app_adv_mgr.c ****         uint8_t *p_buf;
 914              		.loc 1 619 9
 620:C:/Users/stapi/OneDrive/Desktop/GD32VW553/V1_MQTT_OK/GD32VW55X_Wifi_BLE_SDK/GD32VW55x_RELEASE_V1.0.2/MSDK/ble/app\app_adv_mgr.c ****         uint16_t len;
 915              		.loc 1 620 9
 621:C:/Users/stapi/OneDrive/Desktop/GD32VW553/V1_MQTT_OK/GD32VW55X_Wifi_BLE_SDK/GD32VW55x_RELEASE_V1.0.2/MSDK/ble/app\app_adv_mgr.c **** 
 916              		.loc 1 621 9
 623:C:/Users/stapi/OneDrive/Desktop/GD32VW553/V1_MQTT_OK/GD32VW55X_Wifi_BLE_SDK/GD32VW55x_RELEASE_V1.0.2/MSDK/ble/app\app_adv_mgr.c ****         if (p_buf) {
 917              		.loc 1 623 9
 623:C:/Users/stapi/OneDrive/Desktop/GD32VW553/V1_MQTT_OK/GD32VW55X_Wifi_BLE_SDK/GD32VW55x_RELEASE_V1.0.2/MSDK/ble/app\app_adv_mgr.c ****         if (p_buf) {
 918              		.loc 1 623 17 is_stmt 0
 919 0318 0355A400 		lhu	a0,10(s0)
 920              	.LVL58:
 921 031c 97000000 		call	sys_malloc
 921      E7800000 
 922              	.LVL59:
 923 0324 AA84     		mv	s1,a0
 924              	.LVL60:
 624:C:/Users/stapi/OneDrive/Desktop/GD32VW553/V1_MQTT_OK/GD32VW55X_Wifi_BLE_SDK/GD32VW55x_RELEASE_V1.0.2/MSDK/ble/app\app_adv_mgr.c ****             len = app_build_adv_data(p_adv, p_buf, p_adv->max_data_len, true);
 925              		.loc 1 624 9 is_stmt 1
 624:C:/Users/stapi/OneDrive/Desktop/GD32VW553/V1_MQTT_OK/GD32VW55X_Wifi_BLE_SDK/GD32VW55x_RELEASE_V1.0.2/MSDK/ble/app\app_adv_mgr.c ****             len = app_build_adv_data(p_adv, p_buf, p_adv->max_data_len, true);
 926              		.loc 1 624 12 is_stmt 0
 927 0326 E30105DE 		beq	a0,zero,.L23
 625:C:/Users/stapi/OneDrive/Desktop/GD32VW553/V1_MQTT_OK/GD32VW55X_Wifi_BLE_SDK/GD32VW55x_RELEASE_V1.0.2/MSDK/ble/app\app_adv_mgr.c ****             adv_data.len = len;
 928              		.loc 1 625 13 is_stmt 1
 625:C:/Users/stapi/OneDrive/Desktop/GD32VW553/V1_MQTT_OK/GD32VW55X_Wifi_BLE_SDK/GD32VW55x_RELEASE_V1.0.2/MSDK/ble/app\app_adv_mgr.c ****             adv_data.len = len;
 929              		.loc 1 625 19 is_stmt 0
 930 032a 0356A400 		lhu	a2,10(s0)
 931 032e AA85     		mv	a1,a0
 932 0330 8546     		li	a3,1
 933 0332 2285     		mv	a0,s0
 934 0334 97000000 		call	app_build_adv_data
 934      E7800000 
 935              	.LVL61:
 626:C:/Users/stapi/OneDrive/Desktop/GD32VW553/V1_MQTT_OK/GD32VW55X_Wifi_BLE_SDK/GD32VW55x_RELEASE_V1.0.2/MSDK/ble/app\app_adv_mgr.c ****             adv_data.p_data = p_buf;
 936              		.loc 1 626 13 is_stmt 1
 629:C:/Users/stapi/OneDrive/Desktop/GD32VW553/V1_MQTT_OK/GD32VW55X_Wifi_BLE_SDK/GD32VW55x_RELEASE_V1.0.2/MSDK/ble/app\app_adv_mgr.c ****             per_adv.data.p_data_force = &adv_data;
 937              		.loc 1 629 35 is_stmt 0
 938 033c BC09     		addi	a5,sp,216
 939 033e 3ED0     		sw	a5,32(sp)
 630:C:/Users/stapi/OneDrive/Desktop/GD32VW553/V1_MQTT_OK/GD32VW55X_Wifi_BLE_SDK/GD32VW55x_RELEASE_V1.0.2/MSDK/ble/app\app_adv_mgr.c **** 
 940              		.loc 1 630 39
 941 0340 3ED8     		sw	a5,48(sp)
 626:C:/Users/stapi/OneDrive/Desktop/GD32VW553/V1_MQTT_OK/GD32VW55X_Wifi_BLE_SDK/GD32VW55x_RELEASE_V1.0.2/MSDK/ble/app\app_adv_mgr.c ****             adv_data.p_data = p_buf;
 942              		.loc 1 626 26
 943 0342 231EA10C 		sh	a0,220(sp)
 627:C:/Users/stapi/OneDrive/Desktop/GD32VW553/V1_MQTT_OK/GD32VW55X_Wifi_BLE_SDK/GD32VW55x_RELEASE_V1.0.2/MSDK/ble/app\app_adv_mgr.c **** 
 944              		.loc 1 627 13 is_stmt 1
 627:C:/Users/stapi/OneDrive/Desktop/GD32VW553/V1_MQTT_OK/GD32VW55X_Wifi_BLE_SDK/GD32VW55x_RELEASE_V1.0.2/MSDK/ble/app\app_adv_mgr.c **** 
 945              		.loc 1 627 29 is_stmt 0
 946 0346 A6CD     		sw	s1,216(sp)
 629:C:/Users/stapi/OneDrive/Desktop/GD32VW553/V1_MQTT_OK/GD32VW55X_Wifi_BLE_SDK/GD32VW55x_RELEASE_V1.0.2/MSDK/ble/app\app_adv_mgr.c ****             per_adv.data.p_data_force = &adv_data;
 947              		.loc 1 629 13 is_stmt 1
 630:C:/Users/stapi/OneDrive/Desktop/GD32VW553/V1_MQTT_OK/GD32VW55X_Wifi_BLE_SDK/GD32VW55x_RELEASE_V1.0.2/MSDK/ble/app\app_adv_mgr.c **** 
 948              		.loc 1 630 13
 632:C:/Users/stapi/OneDrive/Desktop/GD32VW553/V1_MQTT_OK/GD32VW55X_Wifi_BLE_SDK/GD32VW55x_RELEASE_V1.0.2/MSDK/ble/app\app_adv_mgr.c ****                 sr_data.p_data = p_buf + 3;
 949              		.loc 1 632 13
 632:C:/Users/stapi/OneDrive/Desktop/GD32VW553/V1_MQTT_OK/GD32VW55X_Wifi_BLE_SDK/GD32VW55x_RELEASE_V1.0.2/MSDK/ble/app\app_adv_mgr.c ****                 sr_data.p_data = p_buf + 3;
 950              		.loc 1 632 16 is_stmt 0
 951 0348 8D47     		li	a5,3
 952 034a 63FCA700 		bleu	a0,a5,.L39
 633:C:/Users/stapi/OneDrive/Desktop/GD32VW553/V1_MQTT_OK/GD32VW55X_Wifi_BLE_SDK/GD32VW55x_RELEASE_V1.0.2/MSDK/ble/app\app_adv_mgr.c ****                 sr_data.len = len - 3;
 953              		.loc 1 633 17 is_stmt 1
 633:C:/Users/stapi/OneDrive/Desktop/GD32VW553/V1_MQTT_OK/GD32VW55X_Wifi_BLE_SDK/GD32VW55x_RELEASE_V1.0.2/MSDK/ble/app\app_adv_mgr.c ****                 sr_data.len = len - 3;
 954              		.loc 1 633 40 is_stmt 0
 955 034e 93873400 		addi	a5,s1,3
 634:C:/Users/stapi/OneDrive/Desktop/GD32VW553/V1_MQTT_OK/GD32VW55X_Wifi_BLE_SDK/GD32VW55x_RELEASE_V1.0.2/MSDK/ble/app\app_adv_mgr.c ****             } else {
 956              		.loc 1 634 35
 957 0352 7515     		addi	a0,a0,-3
 958              	.LVL62:
 633:C:/Users/stapi/OneDrive/Desktop/GD32VW553/V1_MQTT_OK/GD32VW55X_Wifi_BLE_SDK/GD32VW55x_RELEASE_V1.0.2/MSDK/ble/app\app_adv_mgr.c ****                 sr_data.len = len - 3;
 959              		.loc 1 633 32
 960 0354 2324F112 		sw	a5,296(sp)
 634:C:/Users/stapi/OneDrive/Desktop/GD32VW553/V1_MQTT_OK/GD32VW55X_Wifi_BLE_SDK/GD32VW55x_RELEASE_V1.0.2/MSDK/ble/app\app_adv_mgr.c ****             } else {
 961              		.loc 1 634 17 is_stmt 1
 634:C:/Users/stapi/OneDrive/Desktop/GD32VW553/V1_MQTT_OK/GD32VW55X_Wifi_BLE_SDK/GD32VW55x_RELEASE_V1.0.2/MSDK/ble/app\app_adv_mgr.c ****             } else {
 962              		.loc 1 634 29 is_stmt 0
 963 0358 2316A112 		sh	a0,300(sp)
 964              	.L40:
 639:C:/Users/stapi/OneDrive/Desktop/GD32VW553/V1_MQTT_OK/GD32VW55X_Wifi_BLE_SDK/GD32VW55x_RELEASE_V1.0.2/MSDK/ble/app\app_adv_mgr.c **** 
 965              		.loc 1 639 13 is_stmt 1
 639:C:/Users/stapi/OneDrive/Desktop/GD32VW553/V1_MQTT_OK/GD32VW55X_Wifi_BLE_SDK/GD32VW55x_RELEASE_V1.0.2/MSDK/ble/app\app_adv_mgr.c **** 
 966              		.loc 1 639 40 is_stmt 0
 967 035c 3C12     		addi	a5,sp,296
 968 035e 3ED4     		sw	a5,40(sp)
 969 0360 8DB3     		j	.L53
 970              	.LVL63:
 971              	.L39:
 636:C:/Users/stapi/OneDrive/Desktop/GD32VW553/V1_MQTT_OK/GD32VW55X_Wifi_BLE_SDK/GD32VW55x_RELEASE_V1.0.2/MSDK/ble/app\app_adv_mgr.c ****                 sr_data.len = 0;
 972              		.loc 1 636 17 is_stmt 1
 636:C:/Users/stapi/OneDrive/Desktop/GD32VW553/V1_MQTT_OK/GD32VW55X_Wifi_BLE_SDK/GD32VW55x_RELEASE_V1.0.2/MSDK/ble/app\app_adv_mgr.c ****                 sr_data.len = 0;
 973              		.loc 1 636 32 is_stmt 0
 974 0362 23240112 		sw	zero,296(sp)
 637:C:/Users/stapi/OneDrive/Desktop/GD32VW553/V1_MQTT_OK/GD32VW55X_Wifi_BLE_SDK/GD32VW55x_RELEASE_V1.0.2/MSDK/ble/app\app_adv_mgr.c ****             }
 975              		.loc 1 637 17 is_stmt 1
 637:C:/Users/stapi/OneDrive/Desktop/GD32VW553/V1_MQTT_OK/GD32VW55X_Wifi_BLE_SDK/GD32VW55x_RELEASE_V1.0.2/MSDK/ble/app\app_adv_mgr.c ****             }
 976              		.loc 1 637 29 is_stmt 0
 977 0366 23160112 		sh	zero,300(sp)
 978 036a CDBF     		j	.L40
 979              	.LBE17:
 980              		.cfi_endproc
 981              	.LFE5:
 983              		.section	.rodata.app_adv_mgr_evt_hdlr.str1.4,"aMS",@progbits,1
 984              		.align	2
 985              	.LC0:
 986 0000 61647620 		.string	"adv state change 0x%x ==> 0x%x, reason 0x%x\r\n"
 986      73746174 
 986      65206368 
 986      616E6765 
 986      20307825 
 987 002e 0000     		.align	2
 988              	.LC1:
 989 0030 61647620 		.string	"adv index %d\r\n"
 989      696E6465 
 989      78202564 
 989      0D0A00
 990 003f 00       		.align	2
 991              	.LC2:
 992 0040 61647620 		.string	"adv stopped, remove %d\r\n"
 992      73746F70 
 992      7065642C 
 992      2072656D 
 992      6F766520 
 993 0059 000000   		.align	2
 994              	.LC3:
 995 005c 61647620 		.string	"adv data update rsp, type %d, status 0x%x\r\n"
 995      64617461 
 995      20757064 
 995      61746520 
 995      7273702C 
 996              		.align	2
 997              	.LC4:
 998 0088 7363616E 		.string	"scan req rcv, device addr %02X:%02X:%02X:%02X:%02X:%02X\r\n"
 998      20726571 
 998      20726376 
 998      2C206465 
 998      76696365 
 999              		.section	.text.app_adv_mgr_evt_hdlr,"ax",@progbits
 1000              		.align	1
 1002              	app_adv_mgr_evt_hdlr:
 1003              	.LFB6:
 649:C:/Users/stapi/OneDrive/Desktop/GD32VW553/V1_MQTT_OK/GD32VW55X_Wifi_BLE_SDK/GD32VW55x_RELEASE_V1.0.2/MSDK/ble/app\app_adv_mgr.c **** 
 650:C:/Users/stapi/OneDrive/Desktop/GD32VW553/V1_MQTT_OK/GD32VW55X_Wifi_BLE_SDK/GD32VW55x_RELEASE_V1.0.2/MSDK/ble/app\app_adv_mgr.c **** /*!
 651:C:/Users/stapi/OneDrive/Desktop/GD32VW553/V1_MQTT_OK/GD32VW55X_Wifi_BLE_SDK/GD32VW55x_RELEASE_V1.0.2/MSDK/ble/app\app_adv_mgr.c ****     \brief      Callback function to handle BLE advertising events
 652:C:/Users/stapi/OneDrive/Desktop/GD32VW553/V1_MQTT_OK/GD32VW55X_Wifi_BLE_SDK/GD32VW55x_RELEASE_V1.0.2/MSDK/ble/app\app_adv_mgr.c ****     \param[in]  adv_evt: BLE advertising event type
 653:C:/Users/stapi/OneDrive/Desktop/GD32VW553/V1_MQTT_OK/GD32VW55X_Wifi_BLE_SDK/GD32VW55x_RELEASE_V1.0.2/MSDK/ble/app\app_adv_mgr.c ****     \param[in]  p_data: pointer to BLE advertising event data
 654:C:/Users/stapi/OneDrive/Desktop/GD32VW553/V1_MQTT_OK/GD32VW55X_Wifi_BLE_SDK/GD32VW55x_RELEASE_V1.0.2/MSDK/ble/app\app_adv_mgr.c ****     \param[in]  p_context: context data used when create advertising
 655:C:/Users/stapi/OneDrive/Desktop/GD32VW553/V1_MQTT_OK/GD32VW55X_Wifi_BLE_SDK/GD32VW55x_RELEASE_V1.0.2/MSDK/ble/app\app_adv_mgr.c ****     \param[out] none
 656:C:/Users/stapi/OneDrive/Desktop/GD32VW553/V1_MQTT_OK/GD32VW55X_Wifi_BLE_SDK/GD32VW55x_RELEASE_V1.0.2/MSDK/ble/app\app_adv_mgr.c ****     \retval     none
 657:C:/Users/stapi/OneDrive/Desktop/GD32VW553/V1_MQTT_OK/GD32VW55X_Wifi_BLE_SDK/GD32VW55x_RELEASE_V1.0.2/MSDK/ble/app\app_adv_mgr.c **** */
 658:C:/Users/stapi/OneDrive/Desktop/GD32VW553/V1_MQTT_OK/GD32VW55X_Wifi_BLE_SDK/GD32VW55x_RELEASE_V1.0.2/MSDK/ble/app\app_adv_mgr.c **** static void app_adv_mgr_evt_hdlr(ble_adv_evt_t adv_evt, void *p_data, void *p_context)
 659:C:/Users/stapi/OneDrive/Desktop/GD32VW553/V1_MQTT_OK/GD32VW55X_Wifi_BLE_SDK/GD32VW55x_RELEASE_V1.0.2/MSDK/ble/app\app_adv_mgr.c **** {
 1004              		.loc 1 659 1 is_stmt 1
 1005              		.cfi_startproc
 1006              	.LVL64:
 1007 0000 17030000 		call	t0,__riscv_save_4
 1007      E7020300 
 1008              		.cfi_offset 19, -20
 1009              		.cfi_offset 18, -16
 1010              		.cfi_offset 9, -12
 1011              		.cfi_offset 8, -8
 1012              		.cfi_offset 1, -4
 1013              		.cfi_def_cfa_offset 32
 660:C:/Users/stapi/OneDrive/Desktop/GD32VW553/V1_MQTT_OK/GD32VW55X_Wifi_BLE_SDK/GD32VW55x_RELEASE_V1.0.2/MSDK/ble/app\app_adv_mgr.c ****     app_adv_set_t *p_adv = (app_adv_set_t *)p_context;
 661:C:/Users/stapi/OneDrive/Desktop/GD32VW553/V1_MQTT_OK/GD32VW55X_Wifi_BLE_SDK/GD32VW55x_RELEASE_V1.0.2/MSDK/ble/app\app_adv_mgr.c **** 
 662:C:/Users/stapi/OneDrive/Desktop/GD32VW553/V1_MQTT_OK/GD32VW55X_Wifi_BLE_SDK/GD32VW55x_RELEASE_V1.0.2/MSDK/ble/app\app_adv_mgr.c ****     switch (adv_evt) {
 1014              		.loc 1 662 5 is_stmt 0
 1015 0008 8547     		li	a5,1
 659:C:/Users/stapi/OneDrive/Desktop/GD32VW553/V1_MQTT_OK/GD32VW55X_Wifi_BLE_SDK/GD32VW55x_RELEASE_V1.0.2/MSDK/ble/app\app_adv_mgr.c ****     app_adv_set_t *p_adv = (app_adv_set_t *)p_context;
 1016              		.loc 1 659 1
 1017 000a 2E84     		mv	s0,a1
 660:C:/Users/stapi/OneDrive/Desktop/GD32VW553/V1_MQTT_OK/GD32VW55X_Wifi_BLE_SDK/GD32VW55x_RELEASE_V1.0.2/MSDK/ble/app\app_adv_mgr.c ****     app_adv_set_t *p_adv = (app_adv_set_t *)p_context;
 1018              		.loc 1 660 5 is_stmt 1
 1019              	.LVL65:
 1020              		.loc 1 662 5
 1021 000c 630BF50A 		beq	a0,a5,.L56
 1022 0010 0947     		li	a4,2
 1023 0012 630BE50C 		beq	a0,a4,.L57
 1024 0016 25E1     		bne	a0,zero,.L55
 1025              	.LBB18:
 663:C:/Users/stapi/OneDrive/Desktop/GD32VW553/V1_MQTT_OK/GD32VW55X_Wifi_BLE_SDK/GD32VW55x_RELEASE_V1.0.2/MSDK/ble/app\app_adv_mgr.c ****     case BLE_ADV_EVT_STATE_CHG: {
 664:C:/Users/stapi/OneDrive/Desktop/GD32VW553/V1_MQTT_OK/GD32VW55X_Wifi_BLE_SDK/GD32VW55x_RELEASE_V1.0.2/MSDK/ble/app\app_adv_mgr.c ****         ble_adv_state_chg_t *p_chg = (ble_adv_state_chg_t *)p_data;
 665:C:/Users/stapi/OneDrive/Desktop/GD32VW553/V1_MQTT_OK/GD32VW55X_Wifi_BLE_SDK/GD32VW55x_RELEASE_V1.0.2/MSDK/ble/app\app_adv_mgr.c ****         ble_adv_state_t old_state = p_adv->state;
 666:C:/Users/stapi/OneDrive/Desktop/GD32VW553/V1_MQTT_OK/GD32VW55X_Wifi_BLE_SDK/GD32VW55x_RELEASE_V1.0.2/MSDK/ble/app\app_adv_mgr.c **** 
 667:C:/Users/stapi/OneDrive/Desktop/GD32VW553/V1_MQTT_OK/GD32VW55X_Wifi_BLE_SDK/GD32VW55x_RELEASE_V1.0.2/MSDK/ble/app\app_adv_mgr.c ****         dbg_print(NOTICE, "adv state change 0x%x ==> 0x%x, reason 0x%x\r\n", old_state, p_chg->stat
 1026              		.loc 1 667 9 is_stmt 0
 1027 0018 B7070000 		lui	a5,%hi(global_debug_level)
 1028 001c 83C60700 		lbu	a3,%lo(global_debug_level)(a5)
 665:C:/Users/stapi/OneDrive/Desktop/GD32VW553/V1_MQTT_OK/GD32VW55X_Wifi_BLE_SDK/GD32VW55x_RELEASE_V1.0.2/MSDK/ble/app\app_adv_mgr.c **** 
 1029              		.loc 1 665 25
 1030 0020 83294601 		lw	s3,20(a2)
 1031 0024 B284     		mv	s1,a2
 664:C:/Users/stapi/OneDrive/Desktop/GD32VW553/V1_MQTT_OK/GD32VW55X_Wifi_BLE_SDK/GD32VW55x_RELEASE_V1.0.2/MSDK/ble/app\app_adv_mgr.c ****         ble_adv_state_t old_state = p_adv->state;
 1032              		.loc 1 664 9 is_stmt 1
 1033              	.LVL66:
 665:C:/Users/stapi/OneDrive/Desktop/GD32VW553/V1_MQTT_OK/GD32VW55X_Wifi_BLE_SDK/GD32VW55x_RELEASE_V1.0.2/MSDK/ble/app\app_adv_mgr.c **** 
 1034              		.loc 1 665 9
 1035              		.loc 1 667 9
 1036              		.loc 1 667 9
 1037 0026 3E89     		mv	s2,a5
 1038 0028 637ED700 		bleu	a3,a4,.L59
 1039              		.loc 1 667 9 discriminator 1
 1040 002c 83D68500 		lhu	a3,8(a1)
 1041 0030 D041     		lw	a2,4(a1)
 1042              	.LVL67:
 1043 0032 37050000 		lui	a0,%hi(.LC0)
 1044              	.LVL68:
 1045 0036 CE85     		mv	a1,s3
 1046              	.LVL69:
 1047 0038 13050500 		addi	a0,a0,%lo(.LC0)
 1048 003c 97000000 		call	co_printf
 1048      E7800000 
 1049              	.LVL70:
 1050              	.L59:
 1051              		.loc 1 667 9 discriminator 3
 668:C:/Users/stapi/OneDrive/Desktop/GD32VW553/V1_MQTT_OK/GD32VW55X_Wifi_BLE_SDK/GD32VW55x_RELEASE_V1.0.2/MSDK/ble/app\app_adv_mgr.c **** 
 669:C:/Users/stapi/OneDrive/Desktop/GD32VW553/V1_MQTT_OK/GD32VW55X_Wifi_BLE_SDK/GD32VW55x_RELEASE_V1.0.2/MSDK/ble/app\app_adv_mgr.c ****         p_adv->state = p_chg->state;
 1052              		.loc 1 669 9 discriminator 3
 1053              		.loc 1 669 29 is_stmt 0 discriminator 3
 1054 0044 5C40     		lw	a5,4(s0)
 670:C:/Users/stapi/OneDrive/Desktop/GD32VW553/V1_MQTT_OK/GD32VW55X_Wifi_BLE_SDK/GD32VW55x_RELEASE_V1.0.2/MSDK/ble/app\app_adv_mgr.c **** 
 671:C:/Users/stapi/OneDrive/Desktop/GD32VW553/V1_MQTT_OK/GD32VW55X_Wifi_BLE_SDK/GD32VW55x_RELEASE_V1.0.2/MSDK/ble/app\app_adv_mgr.c ****         if ((p_chg->state == BLE_ADV_STATE_CREATE) && (old_state == BLE_ADV_STATE_CREATING)) {
 1055              		.loc 1 671 12 discriminator 3
 1056 0046 0947     		li	a4,2
 669:C:/Users/stapi/OneDrive/Desktop/GD32VW553/V1_MQTT_OK/GD32VW55X_Wifi_BLE_SDK/GD32VW55x_RELEASE_V1.0.2/MSDK/ble/app\app_adv_mgr.c **** 
 1057              		.loc 1 669 22 discriminator 3
 1058 0048 DCC8     		sw	a5,20(s1)
 1059              		.loc 1 671 9 is_stmt 1 discriminator 3
 1060              		.loc 1 671 12 is_stmt 0 discriminator 3
 1061 004a 6397E706 		bne	a5,a4,.L60
 1062              		.loc 1 671 52 discriminator 1
 1063 004e 0547     		li	a4,1
 1064 0050 6397E902 		bne	s3,a4,.L61
 672:C:/Users/stapi/OneDrive/Desktop/GD32VW553/V1_MQTT_OK/GD32VW55X_Wifi_BLE_SDK/GD32VW55x_RELEASE_V1.0.2/MSDK/ble/app\app_adv_mgr.c ****             p_adv->idx = p_chg->adv_idx;
 1065              		.loc 1 672 13 is_stmt 1
 1066              		.loc 1 672 31 is_stmt 0
 1067 0054 83450400 		lbu	a1,0(s0)
 673:C:/Users/stapi/OneDrive/Desktop/GD32VW553/V1_MQTT_OK/GD32VW55X_Wifi_BLE_SDK/GD32VW55x_RELEASE_V1.0.2/MSDK/ble/app\app_adv_mgr.c ****             app_print("adv index %d\r\n", p_adv->idx);
 1068              		.loc 1 673 13
 1069 0058 37050000 		lui	a0,%hi(.LC1)
 1070 005c 13050500 		addi	a0,a0,%lo(.LC1)
 672:C:/Users/stapi/OneDrive/Desktop/GD32VW553/V1_MQTT_OK/GD32VW55X_Wifi_BLE_SDK/GD32VW55x_RELEASE_V1.0.2/MSDK/ble/app\app_adv_mgr.c ****             p_adv->idx = p_chg->adv_idx;
 1071              		.loc 1 672 24
 1072 0060 2380B400 		sb	a1,0(s1)
 1073              		.loc 1 673 13 is_stmt 1
 1074 0064 97000000 		call	co_printf
 1074      E7800000 
 1075              	.LVL71:
 674:C:/Users/stapi/OneDrive/Desktop/GD32VW553/V1_MQTT_OK/GD32VW55X_Wifi_BLE_SDK/GD32VW55x_RELEASE_V1.0.2/MSDK/ble/app\app_adv_mgr.c **** 
 675:C:/Users/stapi/OneDrive/Desktop/GD32VW553/V1_MQTT_OK/GD32VW55X_Wifi_BLE_SDK/GD32VW55x_RELEASE_V1.0.2/MSDK/ble/app\app_adv_mgr.c ****             app_adv_start(p_adv);
 1076              		.loc 1 675 13
 1077 006c 2685     		mv	a0,s1
 1078 006e 97000000 		call	app_adv_start
 1078      E7800000 
 1079              	.LVL72:
 1080              	.L55:
 1081              	.LBE18:
 676:C:/Users/stapi/OneDrive/Desktop/GD32VW553/V1_MQTT_OK/GD32VW55X_Wifi_BLE_SDK/GD32VW55x_RELEASE_V1.0.2/MSDK/ble/app\app_adv_mgr.c ****         } else if ((p_chg->state == BLE_ADV_STATE_CREATE) && (old_state == BLE_ADV_STATE_START)) {
 677:C:/Users/stapi/OneDrive/Desktop/GD32VW553/V1_MQTT_OK/GD32VW55X_Wifi_BLE_SDK/GD32VW55x_RELEASE_V1.0.2/MSDK/ble/app\app_adv_mgr.c ****             dbg_print(NOTICE, "adv stopped, remove %d\r\n", p_adv->remove_after_stop);
 678:C:/Users/stapi/OneDrive/Desktop/GD32VW553/V1_MQTT_OK/GD32VW55X_Wifi_BLE_SDK/GD32VW55x_RELEASE_V1.0.2/MSDK/ble/app\app_adv_mgr.c **** 
 679:C:/Users/stapi/OneDrive/Desktop/GD32VW553/V1_MQTT_OK/GD32VW55X_Wifi_BLE_SDK/GD32VW55x_RELEASE_V1.0.2/MSDK/ble/app\app_adv_mgr.c ****             if (p_adv->remove_after_stop) {
 680:C:/Users/stapi/OneDrive/Desktop/GD32VW553/V1_MQTT_OK/GD32VW55X_Wifi_BLE_SDK/GD32VW55x_RELEASE_V1.0.2/MSDK/ble/app\app_adv_mgr.c ****                 ble_adv_remove(p_adv->idx);
 681:C:/Users/stapi/OneDrive/Desktop/GD32VW553/V1_MQTT_OK/GD32VW55X_Wifi_BLE_SDK/GD32VW55x_RELEASE_V1.0.2/MSDK/ble/app\app_adv_mgr.c ****                 p_adv->remove_after_stop = false;
 682:C:/Users/stapi/OneDrive/Desktop/GD32VW553/V1_MQTT_OK/GD32VW55X_Wifi_BLE_SDK/GD32VW55x_RELEASE_V1.0.2/MSDK/ble/app\app_adv_mgr.c ****             }
 683:C:/Users/stapi/OneDrive/Desktop/GD32VW553/V1_MQTT_OK/GD32VW55X_Wifi_BLE_SDK/GD32VW55x_RELEASE_V1.0.2/MSDK/ble/app\app_adv_mgr.c ****         } else if (p_chg->state == BLE_ADV_STATE_IDLE) {
 684:C:/Users/stapi/OneDrive/Desktop/GD32VW553/V1_MQTT_OK/GD32VW55X_Wifi_BLE_SDK/GD32VW55x_RELEASE_V1.0.2/MSDK/ble/app\app_adv_mgr.c ****             app_free_adv_set(p_adv);
 685:C:/Users/stapi/OneDrive/Desktop/GD32VW553/V1_MQTT_OK/GD32VW55X_Wifi_BLE_SDK/GD32VW55x_RELEASE_V1.0.2/MSDK/ble/app\app_adv_mgr.c ****         }
 686:C:/Users/stapi/OneDrive/Desktop/GD32VW553/V1_MQTT_OK/GD32VW55X_Wifi_BLE_SDK/GD32VW55x_RELEASE_V1.0.2/MSDK/ble/app\app_adv_mgr.c ****     } break;
 687:C:/Users/stapi/OneDrive/Desktop/GD32VW553/V1_MQTT_OK/GD32VW55X_Wifi_BLE_SDK/GD32VW55x_RELEASE_V1.0.2/MSDK/ble/app\app_adv_mgr.c **** 
 688:C:/Users/stapi/OneDrive/Desktop/GD32VW553/V1_MQTT_OK/GD32VW55X_Wifi_BLE_SDK/GD32VW55x_RELEASE_V1.0.2/MSDK/ble/app\app_adv_mgr.c ****     case BLE_ADV_EVT_DATA_UPDATE_RSP: {
 689:C:/Users/stapi/OneDrive/Desktop/GD32VW553/V1_MQTT_OK/GD32VW55X_Wifi_BLE_SDK/GD32VW55x_RELEASE_V1.0.2/MSDK/ble/app\app_adv_mgr.c ****         ble_adv_data_update_rsp_t *p_rsp = (ble_adv_data_update_rsp_t *)p_data;
 690:C:/Users/stapi/OneDrive/Desktop/GD32VW553/V1_MQTT_OK/GD32VW55X_Wifi_BLE_SDK/GD32VW55x_RELEASE_V1.0.2/MSDK/ble/app\app_adv_mgr.c **** 
 691:C:/Users/stapi/OneDrive/Desktop/GD32VW553/V1_MQTT_OK/GD32VW55X_Wifi_BLE_SDK/GD32VW55x_RELEASE_V1.0.2/MSDK/ble/app\app_adv_mgr.c ****         dbg_print(NOTICE, "adv data update rsp, type %d, status 0x%x\r\n", p_rsp->type, p_rsp->stat
 692:C:/Users/stapi/OneDrive/Desktop/GD32VW553/V1_MQTT_OK/GD32VW55X_Wifi_BLE_SDK/GD32VW55x_RELEASE_V1.0.2/MSDK/ble/app\app_adv_mgr.c ****     } break;
 693:C:/Users/stapi/OneDrive/Desktop/GD32VW553/V1_MQTT_OK/GD32VW55X_Wifi_BLE_SDK/GD32VW55x_RELEASE_V1.0.2/MSDK/ble/app\app_adv_mgr.c **** 
 694:C:/Users/stapi/OneDrive/Desktop/GD32VW553/V1_MQTT_OK/GD32VW55X_Wifi_BLE_SDK/GD32VW55x_RELEASE_V1.0.2/MSDK/ble/app\app_adv_mgr.c ****     case BLE_ADV_EVT_SCAN_REQ_RCV: {
 695:C:/Users/stapi/OneDrive/Desktop/GD32VW553/V1_MQTT_OK/GD32VW55X_Wifi_BLE_SDK/GD32VW55x_RELEASE_V1.0.2/MSDK/ble/app\app_adv_mgr.c ****         ble_adv_scan_req_rcv_t *p_req = (ble_adv_scan_req_rcv_t *)p_data;
 696:C:/Users/stapi/OneDrive/Desktop/GD32VW553/V1_MQTT_OK/GD32VW55X_Wifi_BLE_SDK/GD32VW55x_RELEASE_V1.0.2/MSDK/ble/app\app_adv_mgr.c **** 
 697:C:/Users/stapi/OneDrive/Desktop/GD32VW553/V1_MQTT_OK/GD32VW55X_Wifi_BLE_SDK/GD32VW55x_RELEASE_V1.0.2/MSDK/ble/app\app_adv_mgr.c ****         dbg_print(NOTICE, "scan req rcv, device addr %02X:%02X:%02X:%02X:%02X:%02X\r\n",
 698:C:/Users/stapi/OneDrive/Desktop/GD32VW553/V1_MQTT_OK/GD32VW55X_Wifi_BLE_SDK/GD32VW55x_RELEASE_V1.0.2/MSDK/ble/app\app_adv_mgr.c ****                p_req->peer_addr.addr[5], p_req->peer_addr.addr[4], p_req->peer_addr.addr[3],
 699:C:/Users/stapi/OneDrive/Desktop/GD32VW553/V1_MQTT_OK/GD32VW55X_Wifi_BLE_SDK/GD32VW55x_RELEASE_V1.0.2/MSDK/ble/app\app_adv_mgr.c ****                p_req->peer_addr.addr[2], p_req->peer_addr.addr[1], p_req->peer_addr.addr[0]);
 700:C:/Users/stapi/OneDrive/Desktop/GD32VW553/V1_MQTT_OK/GD32VW55X_Wifi_BLE_SDK/GD32VW55x_RELEASE_V1.0.2/MSDK/ble/app\app_adv_mgr.c ****     } break;
 701:C:/Users/stapi/OneDrive/Desktop/GD32VW553/V1_MQTT_OK/GD32VW55X_Wifi_BLE_SDK/GD32VW55x_RELEASE_V1.0.2/MSDK/ble/app\app_adv_mgr.c **** 
 702:C:/Users/stapi/OneDrive/Desktop/GD32VW553/V1_MQTT_OK/GD32VW55X_Wifi_BLE_SDK/GD32VW55x_RELEASE_V1.0.2/MSDK/ble/app\app_adv_mgr.c ****     default:
 703:C:/Users/stapi/OneDrive/Desktop/GD32VW553/V1_MQTT_OK/GD32VW55X_Wifi_BLE_SDK/GD32VW55x_RELEASE_V1.0.2/MSDK/ble/app\app_adv_mgr.c ****         break;
 704:C:/Users/stapi/OneDrive/Desktop/GD32VW553/V1_MQTT_OK/GD32VW55X_Wifi_BLE_SDK/GD32VW55x_RELEASE_V1.0.2/MSDK/ble/app\app_adv_mgr.c ****     }
 705:C:/Users/stapi/OneDrive/Desktop/GD32VW553/V1_MQTT_OK/GD32VW55X_Wifi_BLE_SDK/GD32VW55x_RELEASE_V1.0.2/MSDK/ble/app\app_adv_mgr.c **** }
 1082              		.loc 1 705 1 is_stmt 0
 1083 0076 17030000 		tail	__riscv_restore_4
 1083      67000300 
 1084              		.cfi_remember_state
 1085              		.cfi_restore 19
 1086              		.cfi_restore 18
 1087              		.cfi_restore 9
 1088              		.cfi_restore 8
 1089              		.cfi_restore 1
 1090              		.cfi_def_cfa_offset 0
 1091              	.LVL73:
 1092              	.L61:
 1093              		.cfi_restore_state
 1094              	.LBB21:
 676:C:/Users/stapi/OneDrive/Desktop/GD32VW553/V1_MQTT_OK/GD32VW55X_Wifi_BLE_SDK/GD32VW55x_RELEASE_V1.0.2/MSDK/ble/app\app_adv_mgr.c ****         } else if ((p_chg->state == BLE_ADV_STATE_CREATE) && (old_state == BLE_ADV_STATE_START)) {
 1095              		.loc 1 676 16 is_stmt 1 discriminator 1
 676:C:/Users/stapi/OneDrive/Desktop/GD32VW553/V1_MQTT_OK/GD32VW55X_Wifi_BLE_SDK/GD32VW55x_RELEASE_V1.0.2/MSDK/ble/app\app_adv_mgr.c ****         } else if ((p_chg->state == BLE_ADV_STATE_CREATE) && (old_state == BLE_ADV_STATE_START)) {
 1096              		.loc 1 676 59 is_stmt 0 discriminator 1
 1097 007e 1947     		li	a4,6
 1098 0080 E39BE9FE 		bne	s3,a4,.L55
 677:C:/Users/stapi/OneDrive/Desktop/GD32VW553/V1_MQTT_OK/GD32VW55X_Wifi_BLE_SDK/GD32VW55x_RELEASE_V1.0.2/MSDK/ble/app\app_adv_mgr.c **** 
 1099              		.loc 1 677 13 is_stmt 1
 677:C:/Users/stapi/OneDrive/Desktop/GD32VW553/V1_MQTT_OK/GD32VW55X_Wifi_BLE_SDK/GD32VW55x_RELEASE_V1.0.2/MSDK/ble/app\app_adv_mgr.c **** 
 1100              		.loc 1 677 13
 1101 0084 03470900 		lbu	a4,%lo(global_debug_level)(s2)
 1102 0088 63FCE700 		bleu	a4,a5,.L63
 677:C:/Users/stapi/OneDrive/Desktop/GD32VW553/V1_MQTT_OK/GD32VW55X_Wifi_BLE_SDK/GD32VW55x_RELEASE_V1.0.2/MSDK/ble/app\app_adv_mgr.c **** 
 1103              		.loc 1 677 13 discriminator 1
 1104 008c 83C5C400 		lbu	a1,12(s1)
 1105 0090 37050000 		lui	a0,%hi(.LC2)
 1106 0094 13050500 		addi	a0,a0,%lo(.LC2)
 1107 0098 97000000 		call	co_printf
 1107      E7800000 
 1108              	.LVL74:
 1109              	.L63:
 677:C:/Users/stapi/OneDrive/Desktop/GD32VW553/V1_MQTT_OK/GD32VW55X_Wifi_BLE_SDK/GD32VW55x_RELEASE_V1.0.2/MSDK/ble/app\app_adv_mgr.c **** 
 1110              		.loc 1 677 13 discriminator 3
 679:C:/Users/stapi/OneDrive/Desktop/GD32VW553/V1_MQTT_OK/GD32VW55X_Wifi_BLE_SDK/GD32VW55x_RELEASE_V1.0.2/MSDK/ble/app\app_adv_mgr.c ****                 ble_adv_remove(p_adv->idx);
 1111              		.loc 1 679 13 discriminator 3
 679:C:/Users/stapi/OneDrive/Desktop/GD32VW553/V1_MQTT_OK/GD32VW55X_Wifi_BLE_SDK/GD32VW55x_RELEASE_V1.0.2/MSDK/ble/app\app_adv_mgr.c ****                 ble_adv_remove(p_adv->idx);
 1112              		.loc 1 679 16 is_stmt 0 discriminator 3
 1113 00a0 83C7C400 		lbu	a5,12(s1)
 1114 00a4 E9DB     		beq	a5,zero,.L55
 680:C:/Users/stapi/OneDrive/Desktop/GD32VW553/V1_MQTT_OK/GD32VW55X_Wifi_BLE_SDK/GD32VW55x_RELEASE_V1.0.2/MSDK/ble/app\app_adv_mgr.c ****                 p_adv->remove_after_stop = false;
 1115              		.loc 1 680 17 is_stmt 1
 1116 00a6 03C50400 		lbu	a0,0(s1)
 1117 00aa 97000000 		call	ble_adv_remove
 1117      E7800000 
 1118              	.LVL75:
 681:C:/Users/stapi/OneDrive/Desktop/GD32VW553/V1_MQTT_OK/GD32VW55X_Wifi_BLE_SDK/GD32VW55x_RELEASE_V1.0.2/MSDK/ble/app\app_adv_mgr.c ****             }
 1119              		.loc 1 681 17
 681:C:/Users/stapi/OneDrive/Desktop/GD32VW553/V1_MQTT_OK/GD32VW55X_Wifi_BLE_SDK/GD32VW55x_RELEASE_V1.0.2/MSDK/ble/app\app_adv_mgr.c ****             }
 1120              		.loc 1 681 42 is_stmt 0
 1121 00b2 23860400 		sb	zero,12(s1)
 1122 00b6 C1B7     		j	.L55
 1123              	.L60:
 676:C:/Users/stapi/OneDrive/Desktop/GD32VW553/V1_MQTT_OK/GD32VW55X_Wifi_BLE_SDK/GD32VW55x_RELEASE_V1.0.2/MSDK/ble/app\app_adv_mgr.c ****             dbg_print(NOTICE, "adv stopped, remove %d\r\n", p_adv->remove_after_stop);
 1124              		.loc 1 676 16 is_stmt 1
 683:C:/Users/stapi/OneDrive/Desktop/GD32VW553/V1_MQTT_OK/GD32VW55X_Wifi_BLE_SDK/GD32VW55x_RELEASE_V1.0.2/MSDK/ble/app\app_adv_mgr.c ****             app_free_adv_set(p_adv);
 1125              		.loc 1 683 16
 683:C:/Users/stapi/OneDrive/Desktop/GD32VW553/V1_MQTT_OK/GD32VW55X_Wifi_BLE_SDK/GD32VW55x_RELEASE_V1.0.2/MSDK/ble/app\app_adv_mgr.c ****             app_free_adv_set(p_adv);
 1126              		.loc 1 683 19 is_stmt 0
 1127 00b8 DDFF     		bne	a5,zero,.L55
 684:C:/Users/stapi/OneDrive/Desktop/GD32VW553/V1_MQTT_OK/GD32VW55X_Wifi_BLE_SDK/GD32VW55x_RELEASE_V1.0.2/MSDK/ble/app\app_adv_mgr.c ****         }
 1128              		.loc 1 684 13 is_stmt 1
 1129              	.LVL76:
 1130              	.LBB19:
 1131              	.LBB20:
 286:C:/Users/stapi/OneDrive/Desktop/GD32VW553/V1_MQTT_OK/GD32VW55X_Wifi_BLE_SDK/GD32VW55x_RELEASE_V1.0.2/MSDK/ble/app\app_adv_mgr.c ****     p_adv->state = BLE_ADV_STATE_IDLE;
 1132              		.loc 1 286 5
 286:C:/Users/stapi/OneDrive/Desktop/GD32VW553/V1_MQTT_OK/GD32VW55X_Wifi_BLE_SDK/GD32VW55x_RELEASE_V1.0.2/MSDK/ble/app\app_adv_mgr.c ****     p_adv->state = BLE_ADV_STATE_IDLE;
 1133              		.loc 1 286 16 is_stmt 0
 1134 00ba FD57     		li	a5,-1
 1135 00bc 2380F400 		sb	a5,0(s1)
 287:C:/Users/stapi/OneDrive/Desktop/GD32VW553/V1_MQTT_OK/GD32VW55X_Wifi_BLE_SDK/GD32VW55x_RELEASE_V1.0.2/MSDK/ble/app\app_adv_mgr.c **** }
 1136              		.loc 1 287 5 is_stmt 1
 288:C:/Users/stapi/OneDrive/Desktop/GD32VW553/V1_MQTT_OK/GD32VW55X_Wifi_BLE_SDK/GD32VW55x_RELEASE_V1.0.2/MSDK/ble/app\app_adv_mgr.c **** 
 1137              		.loc 1 288 1 is_stmt 0
 1138 00c0 5DBF     		j	.L55
 1139              	.LVL77:
 1140              	.L56:
 1141              	.LBE20:
 1142              	.LBE19:
 1143              	.LBE21:
 1144              	.LBB22:
 689:C:/Users/stapi/OneDrive/Desktop/GD32VW553/V1_MQTT_OK/GD32VW55X_Wifi_BLE_SDK/GD32VW55x_RELEASE_V1.0.2/MSDK/ble/app\app_adv_mgr.c **** 
 1145              		.loc 1 689 9 is_stmt 1
 691:C:/Users/stapi/OneDrive/Desktop/GD32VW553/V1_MQTT_OK/GD32VW55X_Wifi_BLE_SDK/GD32VW55x_RELEASE_V1.0.2/MSDK/ble/app\app_adv_mgr.c ****     } break;
 1146              		.loc 1 691 9
 691:C:/Users/stapi/OneDrive/Desktop/GD32VW553/V1_MQTT_OK/GD32VW55X_Wifi_BLE_SDK/GD32VW55x_RELEASE_V1.0.2/MSDK/ble/app\app_adv_mgr.c ****     } break;
 1147              		.loc 1 691 9
 1148 00c2 B7070000 		lui	a5,%hi(global_debug_level)
 1149 00c6 03C70700 		lbu	a4,%lo(global_debug_level)(a5)
 1150 00ca 8947     		li	a5,2
 1151 00cc E3F5E7FA 		bleu	a4,a5,.L55
 691:C:/Users/stapi/OneDrive/Desktop/GD32VW553/V1_MQTT_OK/GD32VW55X_Wifi_BLE_SDK/GD32VW55x_RELEASE_V1.0.2/MSDK/ble/app\app_adv_mgr.c ****     } break;
 1152              		.loc 1 691 9 discriminator 1
 1153 00d0 03D64500 		lhu	a2,4(a1)
 1154              	.LVL78:
 1155 00d4 8C41     		lw	a1,0(a1)
 1156 00d6 37050000 		lui	a0,%hi(.LC3)
 1157              	.LVL79:
 1158 00da 13050500 		addi	a0,a0,%lo(.LC3)
 1159 00de 97000000 		call	co_printf
 1159      E7800000 
 1160              	.LVL80:
 1161 00e6 41BF     		j	.L55
 1162              	.LVL81:
 1163              	.L57:
 1164              	.LBE22:
 1165              	.LBB23:
 695:C:/Users/stapi/OneDrive/Desktop/GD32VW553/V1_MQTT_OK/GD32VW55X_Wifi_BLE_SDK/GD32VW55x_RELEASE_V1.0.2/MSDK/ble/app\app_adv_mgr.c **** 
 1166              		.loc 1 695 9
 697:C:/Users/stapi/OneDrive/Desktop/GD32VW553/V1_MQTT_OK/GD32VW55X_Wifi_BLE_SDK/GD32VW55x_RELEASE_V1.0.2/MSDK/ble/app\app_adv_mgr.c ****                p_req->peer_addr.addr[5], p_req->peer_addr.addr[4], p_req->peer_addr.addr[3],
 1167              		.loc 1 697 9
 697:C:/Users/stapi/OneDrive/Desktop/GD32VW553/V1_MQTT_OK/GD32VW55X_Wifi_BLE_SDK/GD32VW55x_RELEASE_V1.0.2/MSDK/ble/app\app_adv_mgr.c ****                p_req->peer_addr.addr[5], p_req->peer_addr.addr[4], p_req->peer_addr.addr[3],
 1168              		.loc 1 697 9
 1169 00e8 B7070000 		lui	a5,%hi(global_debug_level)
 1170 00ec 83C70700 		lbu	a5,%lo(global_debug_level)(a5)
 1171 00f0 E373F5F8 		bleu	a5,a0,.L55
 697:C:/Users/stapi/OneDrive/Desktop/GD32VW553/V1_MQTT_OK/GD32VW55X_Wifi_BLE_SDK/GD32VW55x_RELEASE_V1.0.2/MSDK/ble/app\app_adv_mgr.c ****                p_req->peer_addr.addr[5], p_req->peer_addr.addr[4], p_req->peer_addr.addr[3],
 1172              		.loc 1 697 9 discriminator 1
 1173 00f4 03C81500 		lbu	a6,1(a1)
 1174 00f8 83C72500 		lbu	a5,2(a1)
 1175 00fc 03C73500 		lbu	a4,3(a1)
 1176 0100 83C64500 		lbu	a3,4(a1)
 1177 0104 03C65500 		lbu	a2,5(a1)
 1178              	.LVL82:
 1179 0108 83C56500 		lbu	a1,6(a1)
 1180 010c 37050000 		lui	a0,%hi(.LC4)
 1181              	.LVL83:
 1182 0110 13050500 		addi	a0,a0,%lo(.LC4)
 1183 0114 97000000 		call	co_printf
 1183      E7800000 
 1184              	.LVL84:
 1185              	.LBE23:
 1186              		.loc 1 705 1 is_stmt 0 discriminator 1
 1187 011c A9BF     		j	.L55
 1188              		.cfi_endproc
 1189              	.LFE6:
 1191              		.section	.text.app_adv_create,"ax",@progbits
 1192              		.align	1
 1193              		.globl	app_adv_create
 1195              	app_adv_create:
 1196              	.LFB7:
 706:C:/Users/stapi/OneDrive/Desktop/GD32VW553/V1_MQTT_OK/GD32VW55X_Wifi_BLE_SDK/GD32VW55x_RELEASE_V1.0.2/MSDK/ble/app\app_adv_mgr.c **** 
 707:C:/Users/stapi/OneDrive/Desktop/GD32VW553/V1_MQTT_OK/GD32VW55X_Wifi_BLE_SDK/GD32VW55x_RELEASE_V1.0.2/MSDK/ble/app\app_adv_mgr.c **** /*!
 708:C:/Users/stapi/OneDrive/Desktop/GD32VW553/V1_MQTT_OK/GD32VW55X_Wifi_BLE_SDK/GD32VW55x_RELEASE_V1.0.2/MSDK/ble/app\app_adv_mgr.c ****     \brief      Create an advertising
 709:C:/Users/stapi/OneDrive/Desktop/GD32VW553/V1_MQTT_OK/GD32VW55X_Wifi_BLE_SDK/GD32VW55x_RELEASE_V1.0.2/MSDK/ble/app\app_adv_mgr.c ****     \param[in]  p_param: pointer to advertising parameters
 710:C:/Users/stapi/OneDrive/Desktop/GD32VW553/V1_MQTT_OK/GD32VW55X_Wifi_BLE_SDK/GD32VW55x_RELEASE_V1.0.2/MSDK/ble/app\app_adv_mgr.c ****     \param[out] none
 711:C:/Users/stapi/OneDrive/Desktop/GD32VW553/V1_MQTT_OK/GD32VW55X_Wifi_BLE_SDK/GD32VW55x_RELEASE_V1.0.2/MSDK/ble/app\app_adv_mgr.c ****     \retval     ble_status_t: BLE_ERR_NO_ERROR on success, otherwise an error code
 712:C:/Users/stapi/OneDrive/Desktop/GD32VW553/V1_MQTT_OK/GD32VW55X_Wifi_BLE_SDK/GD32VW55x_RELEASE_V1.0.2/MSDK/ble/app\app_adv_mgr.c **** */
 713:C:/Users/stapi/OneDrive/Desktop/GD32VW553/V1_MQTT_OK/GD32VW55X_Wifi_BLE_SDK/GD32VW55x_RELEASE_V1.0.2/MSDK/ble/app\app_adv_mgr.c **** ble_status_t app_adv_create(app_adv_param_t *p_param)
 714:C:/Users/stapi/OneDrive/Desktop/GD32VW553/V1_MQTT_OK/GD32VW55X_Wifi_BLE_SDK/GD32VW55x_RELEASE_V1.0.2/MSDK/ble/app\app_adv_mgr.c **** {
 1197              		.loc 1 714 1 is_stmt 1
 1198              		.cfi_startproc
 1199              	.LVL85:
 1200 0000 17030000 		call	t0,__riscv_save_6
 1200      E7020300 
 1201              		.cfi_offset 21, -28
 1202              		.cfi_offset 20, -24
 1203              		.cfi_offset 19, -20
 1204              		.cfi_offset 18, -16
 1205              		.cfi_offset 9, -12
 1206              		.cfi_offset 8, -8
 1207              		.cfi_offset 1, -4
 1208              		.cfi_def_cfa_offset 32
 715:C:/Users/stapi/OneDrive/Desktop/GD32VW553/V1_MQTT_OK/GD32VW55X_Wifi_BLE_SDK/GD32VW55x_RELEASE_V1.0.2/MSDK/ble/app\app_adv_mgr.c ****     app_adv_set_t *p_adv;
 1209              		.loc 1 715 5
 716:C:/Users/stapi/OneDrive/Desktop/GD32VW553/V1_MQTT_OK/GD32VW55X_Wifi_BLE_SDK/GD32VW55x_RELEASE_V1.0.2/MSDK/ble/app\app_adv_mgr.c ****     ble_adv_param_t adv_param = {0};
 1210              		.loc 1 716 5
 714:C:/Users/stapi/OneDrive/Desktop/GD32VW553/V1_MQTT_OK/GD32VW55X_Wifi_BLE_SDK/GD32VW55x_RELEASE_V1.0.2/MSDK/ble/app\app_adv_mgr.c ****     app_adv_set_t *p_adv;
 1211              		.loc 1 714 1 is_stmt 0
 1212 0008 3971     		addi	sp,sp,-64
 1213              		.cfi_def_cfa_offset 96
 714:C:/Users/stapi/OneDrive/Desktop/GD32VW553/V1_MQTT_OK/GD32VW55X_Wifi_BLE_SDK/GD32VW55x_RELEASE_V1.0.2/MSDK/ble/app\app_adv_mgr.c ****     app_adv_set_t *p_adv;
 1214              		.loc 1 714 1
 1215 000a 2A84     		mv	s0,a0
 1216              		.loc 1 716 21
 1217 000c 1306C002 		li	a2,44
 1218 0010 8145     		li	a1,0
 1219 0012 4808     		addi	a0,sp,20
 1220              	.LVL86:
 1221 0014 97000000 		call	memset
 1221      E7800000 
 1222              	.LVL87:
 717:C:/Users/stapi/OneDrive/Desktop/GD32VW553/V1_MQTT_OK/GD32VW55X_Wifi_BLE_SDK/GD32VW55x_RELEASE_V1.0.2/MSDK/ble/app\app_adv_mgr.c **** 
 718:C:/Users/stapi/OneDrive/Desktop/GD32VW553/V1_MQTT_OK/GD32VW55X_Wifi_BLE_SDK/GD32VW55x_RELEASE_V1.0.2/MSDK/ble/app\app_adv_mgr.c ****     p_adv = app_get_free_adv();
 1223              		.loc 1 718 5 is_stmt 1
 1224              	.LBB30:
 1225              	.LBB31:
 267:C:/Users/stapi/OneDrive/Desktop/GD32VW553/V1_MQTT_OK/GD32VW55X_Wifi_BLE_SDK/GD32VW55x_RELEASE_V1.0.2/MSDK/ble/app\app_adv_mgr.c **** 
 1226              		.loc 1 267 5
 269:C:/Users/stapi/OneDrive/Desktop/GD32VW553/V1_MQTT_OK/GD32VW55X_Wifi_BLE_SDK/GD32VW55x_RELEASE_V1.0.2/MSDK/ble/app\app_adv_mgr.c ****         if (app_adv_env.adv_set[i].idx == ADV_INVALID_IDX) {
 1227              		.loc 1 269 5
 269:C:/Users/stapi/OneDrive/Desktop/GD32VW553/V1_MQTT_OK/GD32VW55X_Wifi_BLE_SDK/GD32VW55x_RELEASE_V1.0.2/MSDK/ble/app\app_adv_mgr.c ****         if (app_adv_env.adv_set[i].idx == ADV_INVALID_IDX) {
 1228              		.loc 1 269 17
 270:C:/Users/stapi/OneDrive/Desktop/GD32VW553/V1_MQTT_OK/GD32VW55X_Wifi_BLE_SDK/GD32VW55x_RELEASE_V1.0.2/MSDK/ble/app\app_adv_mgr.c ****             return &app_adv_env.adv_set[i];
 1229              		.loc 1 270 9
 270:C:/Users/stapi/OneDrive/Desktop/GD32VW553/V1_MQTT_OK/GD32VW55X_Wifi_BLE_SDK/GD32VW55x_RELEASE_V1.0.2/MSDK/ble/app\app_adv_mgr.c ****             return &app_adv_env.adv_set[i];
 1230              		.loc 1 270 35 is_stmt 0
 1231 001c B7040000 		lui	s1,%hi(.LANCHOR0)
 1232 0020 93870400 		addi	a5,s1,%lo(.LANCHOR0)
 270:C:/Users/stapi/OneDrive/Desktop/GD32VW553/V1_MQTT_OK/GD32VW55X_Wifi_BLE_SDK/GD32VW55x_RELEASE_V1.0.2/MSDK/ble/app\app_adv_mgr.c ****             return &app_adv_env.adv_set[i];
 1233              		.loc 1 270 12
 1234 0024 03C74700 		lbu	a4,4(a5)
 1235 0028 9307F00F 		li	a5,255
 1236 002c 93840400 		addi	s1,s1,%lo(.LANCHOR0)
 1237 0030 6306F70E 		beq	a4,a5,.L87
 269:C:/Users/stapi/OneDrive/Desktop/GD32VW553/V1_MQTT_OK/GD32VW55X_Wifi_BLE_SDK/GD32VW55x_RELEASE_V1.0.2/MSDK/ble/app\app_adv_mgr.c ****         if (app_adv_env.adv_set[i].idx == ADV_INVALID_IDX) {
 1238              		.loc 1 269 38 is_stmt 1
 1239              	.LVL88:
 269:C:/Users/stapi/OneDrive/Desktop/GD32VW553/V1_MQTT_OK/GD32VW55X_Wifi_BLE_SDK/GD32VW55x_RELEASE_V1.0.2/MSDK/ble/app\app_adv_mgr.c ****         if (app_adv_env.adv_set[i].idx == ADV_INVALID_IDX) {
 1240              		.loc 1 269 17
 270:C:/Users/stapi/OneDrive/Desktop/GD32VW553/V1_MQTT_OK/GD32VW55X_Wifi_BLE_SDK/GD32VW55x_RELEASE_V1.0.2/MSDK/ble/app\app_adv_mgr.c ****             return &app_adv_env.adv_set[i];
 1241              		.loc 1 270 9
 270:C:/Users/stapi/OneDrive/Desktop/GD32VW553/V1_MQTT_OK/GD32VW55X_Wifi_BLE_SDK/GD32VW55x_RELEASE_V1.0.2/MSDK/ble/app\app_adv_mgr.c ****             return &app_adv_env.adv_set[i];
 1242              		.loc 1 270 12 is_stmt 0
 1243 0034 03C7C401 		lbu	a4,28(s1)
 1244              	.LBE31:
 1245              	.LBE30:
 719:C:/Users/stapi/OneDrive/Desktop/GD32VW553/V1_MQTT_OK/GD32VW55X_Wifi_BLE_SDK/GD32VW55x_RELEASE_V1.0.2/MSDK/ble/app\app_adv_mgr.c ****     if (p_adv == NULL) {
 720:C:/Users/stapi/OneDrive/Desktop/GD32VW553/V1_MQTT_OK/GD32VW55X_Wifi_BLE_SDK/GD32VW55x_RELEASE_V1.0.2/MSDK/ble/app\app_adv_mgr.c ****         return BLE_ERR_NO_RESOURCES;
 1246              		.loc 1 720 16
 1247 0038 1305200E 		li	a0,226
 1248              	.LBB36:
 1249              	.LBB32:
 270:C:/Users/stapi/OneDrive/Desktop/GD32VW553/V1_MQTT_OK/GD32VW55X_Wifi_BLE_SDK/GD32VW55x_RELEASE_V1.0.2/MSDK/ble/app\app_adv_mgr.c ****             return &app_adv_env.adv_set[i];
 1250              		.loc 1 270 12
 1251 003c 631BF70C 		bne	a4,a5,.L69
 270:C:/Users/stapi/OneDrive/Desktop/GD32VW553/V1_MQTT_OK/GD32VW55X_Wifi_BLE_SDK/GD32VW55x_RELEASE_V1.0.2/MSDK/ble/app\app_adv_mgr.c ****             return &app_adv_env.adv_set[i];
 1252              		.loc 1 270 35
 1253 0040 8549     		li	s3,1
 1254              	.LVL89:
 1255              	.L70:
 271:C:/Users/stapi/OneDrive/Desktop/GD32VW553/V1_MQTT_OK/GD32VW55X_Wifi_BLE_SDK/GD32VW55x_RELEASE_V1.0.2/MSDK/ble/app\app_adv_mgr.c ****         }
 1256              		.loc 1 271 13 is_stmt 1
 271:C:/Users/stapi/OneDrive/Desktop/GD32VW553/V1_MQTT_OK/GD32VW55X_Wifi_BLE_SDK/GD32VW55x_RELEASE_V1.0.2/MSDK/ble/app\app_adv_mgr.c ****         }
 1257              		.loc 1 271 20 is_stmt 0
 1258 0042 E147     		li	a5,24
 1259 0044 B387F902 		mul	a5,s3,a5
 1260              	.LBE32:
 1261              	.LBE36:
 721:C:/Users/stapi/OneDrive/Desktop/GD32VW553/V1_MQTT_OK/GD32VW55X_Wifi_BLE_SDK/GD32VW55x_RELEASE_V1.0.2/MSDK/ble/app\app_adv_mgr.c ****     }
 722:C:/Users/stapi/OneDrive/Desktop/GD32VW553/V1_MQTT_OK/GD32VW55X_Wifi_BLE_SDK/GD32VW55x_RELEASE_V1.0.2/MSDK/ble/app\app_adv_mgr.c **** 
 723:C:/Users/stapi/OneDrive/Desktop/GD32VW553/V1_MQTT_OK/GD32VW55X_Wifi_BLE_SDK/GD32VW55x_RELEASE_V1.0.2/MSDK/ble/app\app_adv_mgr.c ****     p_adv->max_data_len = p_param->max_data_len;
 1262              		.loc 1 723 25
 1263 0048 0357A400 		lhu	a4,10(s0)
 1264              	.LBB37:
 1265              	.LBB33:
 271:C:/Users/stapi/OneDrive/Desktop/GD32VW553/V1_MQTT_OK/GD32VW55X_Wifi_BLE_SDK/GD32VW55x_RELEASE_V1.0.2/MSDK/ble/app\app_adv_mgr.c ****         }
 1266              		.loc 1 271 20
 1267 004c 938A4700 		addi	s5,a5,4
 1268              	.LBE33:
 1269              	.LBE37:
 1270              		.loc 1 723 25
 1271 0050 A697     		add	a5,s1,a5
 1272 0052 2397E700 		sh	a4,14(a5)
 724:C:/Users/stapi/OneDrive/Desktop/GD32VW553/V1_MQTT_OK/GD32VW55X_Wifi_BLE_SDK/GD32VW55x_RELEASE_V1.0.2/MSDK/ble/app\app_adv_mgr.c **** 
 725:C:/Users/stapi/OneDrive/Desktop/GD32VW553/V1_MQTT_OK/GD32VW55X_Wifi_BLE_SDK/GD32VW55x_RELEASE_V1.0.2/MSDK/ble/app\app_adv_mgr.c ****     adv_param.param.own_addr_type = p_param->own_addr_type;
 1273              		.loc 1 725 35
 1274 0056 83477400 		lbu	a5,7(s0)
 726:C:/Users/stapi/OneDrive/Desktop/GD32VW553/V1_MQTT_OK/GD32VW55X_Wifi_BLE_SDK/GD32VW55x_RELEASE_V1.0.2/MSDK/ble/app\app_adv_mgr.c **** 
 727:C:/Users/stapi/OneDrive/Desktop/GD32VW553/V1_MQTT_OK/GD32VW55X_Wifi_BLE_SDK/GD32VW55x_RELEASE_V1.0.2/MSDK/ble/app\app_adv_mgr.c ****     if (p_param->type == BLE_ADV_TYPE_LEGACY) {
 1275              		.loc 1 727 16
 1276 005a 03490400 		lbu	s2,0(s0)
 1277              	.LBB38:
 1278              	.LBB34:
 271:C:/Users/stapi/OneDrive/Desktop/GD32VW553/V1_MQTT_OK/GD32VW55X_Wifi_BLE_SDK/GD32VW55x_RELEASE_V1.0.2/MSDK/ble/app\app_adv_mgr.c ****         }
 1279              		.loc 1 271 20
 1280 005e A69A     		add	s5,s1,s5
 1281              	.LVL90:
 1282              	.LBE34:
 1283              	.LBE38:
 719:C:/Users/stapi/OneDrive/Desktop/GD32VW553/V1_MQTT_OK/GD32VW55X_Wifi_BLE_SDK/GD32VW55x_RELEASE_V1.0.2/MSDK/ble/app\app_adv_mgr.c ****         return BLE_ERR_NO_RESOURCES;
 1284              		.loc 1 719 5 is_stmt 1
 723:C:/Users/stapi/OneDrive/Desktop/GD32VW553/V1_MQTT_OK/GD32VW55X_Wifi_BLE_SDK/GD32VW55x_RELEASE_V1.0.2/MSDK/ble/app\app_adv_mgr.c **** 
 1285              		.loc 1 723 5
 725:C:/Users/stapi/OneDrive/Desktop/GD32VW553/V1_MQTT_OK/GD32VW55X_Wifi_BLE_SDK/GD32VW55x_RELEASE_V1.0.2/MSDK/ble/app\app_adv_mgr.c **** 
 1286              		.loc 1 725 5
 725:C:/Users/stapi/OneDrive/Desktop/GD32VW553/V1_MQTT_OK/GD32VW55X_Wifi_BLE_SDK/GD32VW55x_RELEASE_V1.0.2/MSDK/ble/app\app_adv_mgr.c **** 
 1287              		.loc 1 725 35 is_stmt 0
 1288 0060 230AF100 		sb	a5,20(sp)
 1289              		.loc 1 727 5 is_stmt 1
 1290              		.loc 1 727 8 is_stmt 0
 1291 0064 6313090C 		bne	s2,zero,.L72
 728:C:/Users/stapi/OneDrive/Desktop/GD32VW553/V1_MQTT_OK/GD32VW55X_Wifi_BLE_SDK/GD32VW55x_RELEASE_V1.0.2/MSDK/ble/app\app_adv_mgr.c ****         adv_param.param.type = BLE_GAP_ADV_TYPE_LEGACY;
 1292              		.loc 1 728 9 is_stmt 1
 729:C:/Users/stapi/OneDrive/Desktop/GD32VW553/V1_MQTT_OK/GD32VW55X_Wifi_BLE_SDK/GD32VW55x_RELEASE_V1.0.2/MSDK/ble/app\app_adv_mgr.c ****         adv_param.param.prop = p_param->prop;
 1293              		.loc 1 729 9
 1294              		.loc 1 729 30 is_stmt 0
 1295 0068 83572400 		lhu	a5,2(s0)
 1296 006c 231BF100 		sh	a5,22(sp)
 730:C:/Users/stapi/OneDrive/Desktop/GD32VW553/V1_MQTT_OK/GD32VW55X_Wifi_BLE_SDK/GD32VW55x_RELEASE_V1.0.2/MSDK/ble/app\app_adv_mgr.c **** 
 731:C:/Users/stapi/OneDrive/Desktop/GD32VW553/V1_MQTT_OK/GD32VW55X_Wifi_BLE_SDK/GD32VW55x_RELEASE_V1.0.2/MSDK/ble/app\app_adv_mgr.c ****         if (p_param->wl_enable) {
 1297              		.loc 1 731 9 is_stmt 1
 1298              		.loc 1 731 12 is_stmt 0
 1299 0070 83476400 		lbu	a5,6(s0)
 1300 0074 D5C7     		beq	a5,zero,.L73
 732:C:/Users/stapi/OneDrive/Desktop/GD32VW553/V1_MQTT_OK/GD32VW55X_Wifi_BLE_SDK/GD32VW55x_RELEASE_V1.0.2/MSDK/ble/app\app_adv_mgr.c ****             adv_param.param.filter_pol = BLE_GAP_ADV_ALLOW_SCAN_FAL_CON_FAL;
 1301              		.loc 1 732 13 is_stmt 1
 1302              		.loc 1 732 40 is_stmt 0
 1303 0076 8D47     		li	a5,3
 1304 0078 230DF100 		sb	a5,26(sp)
 733:C:/Users/stapi/OneDrive/Desktop/GD32VW553/V1_MQTT_OK/GD32VW55X_Wifi_BLE_SDK/GD32VW55x_RELEASE_V1.0.2/MSDK/ble/app\app_adv_mgr.c ****             adv_param.param.disc_mode = BLE_GAP_ADV_MODE_NON_DISC;
 1305              		.loc 1 733 13 is_stmt 1
 1306              	.L74:
 734:C:/Users/stapi/OneDrive/Desktop/GD32VW553/V1_MQTT_OK/GD32VW55X_Wifi_BLE_SDK/GD32VW55x_RELEASE_V1.0.2/MSDK/ble/app\app_adv_mgr.c ****         } else {
 735:C:/Users/stapi/OneDrive/Desktop/GD32VW553/V1_MQTT_OK/GD32VW55X_Wifi_BLE_SDK/GD32VW55x_RELEASE_V1.0.2/MSDK/ble/app\app_adv_mgr.c ****             adv_param.param.filter_pol = BLE_GAP_ADV_ALLOW_SCAN_ANY_CON_ANY;
 736:C:/Users/stapi/OneDrive/Desktop/GD32VW553/V1_MQTT_OK/GD32VW55X_Wifi_BLE_SDK/GD32VW55x_RELEASE_V1.0.2/MSDK/ble/app\app_adv_mgr.c ****             adv_param.param.disc_mode = p_param->disc_mode;
 737:C:/Users/stapi/OneDrive/Desktop/GD32VW553/V1_MQTT_OK/GD32VW55X_Wifi_BLE_SDK/GD32VW55x_RELEASE_V1.0.2/MSDK/ble/app\app_adv_mgr.c ****         }
 738:C:/Users/stapi/OneDrive/Desktop/GD32VW553/V1_MQTT_OK/GD32VW55X_Wifi_BLE_SDK/GD32VW55x_RELEASE_V1.0.2/MSDK/ble/app\app_adv_mgr.c **** 
 739:C:/Users/stapi/OneDrive/Desktop/GD32VW553/V1_MQTT_OK/GD32VW55X_Wifi_BLE_SDK/GD32VW55x_RELEASE_V1.0.2/MSDK/ble/app\app_adv_mgr.c ****         adv_param.param.ch_map = APP_ADV_CHMAP;
 1307              		.loc 1 739 9
 1308              		.loc 1 739 32 is_stmt 0
 1309 007c 9D47     		li	a5,7
 1310 007e 2306F102 		sb	a5,44(sp)
 740:C:/Users/stapi/OneDrive/Desktop/GD32VW553/V1_MQTT_OK/GD32VW55X_Wifi_BLE_SDK/GD32VW55x_RELEASE_V1.0.2/MSDK/ble/app\app_adv_mgr.c ****         adv_param.param.primary_phy = p_param->pri_phy;
 1311              		.loc 1 740 9 is_stmt 1
 1312              		.loc 1 740 37 is_stmt 0
 1313 0082 83474400 		lbu	a5,4(s0)
 1314 0086 A306F102 		sb	a5,45(sp)
 1315              	.L75:
 741:C:/Users/stapi/OneDrive/Desktop/GD32VW553/V1_MQTT_OK/GD32VW55X_Wifi_BLE_SDK/GD32VW55x_RELEASE_V1.0.2/MSDK/ble/app\app_adv_mgr.c ****     } else if (p_param->type == BLE_ADV_TYPE_EXTENDED) {
 742:C:/Users/stapi/OneDrive/Desktop/GD32VW553/V1_MQTT_OK/GD32VW55X_Wifi_BLE_SDK/GD32VW55x_RELEASE_V1.0.2/MSDK/ble/app\app_adv_mgr.c ****         adv_param.param.type = BLE_GAP_ADV_TYPE_EXTENDED;
 743:C:/Users/stapi/OneDrive/Desktop/GD32VW553/V1_MQTT_OK/GD32VW55X_Wifi_BLE_SDK/GD32VW55x_RELEASE_V1.0.2/MSDK/ble/app\app_adv_mgr.c ****         adv_param.param.prop = p_param->prop;
 744:C:/Users/stapi/OneDrive/Desktop/GD32VW553/V1_MQTT_OK/GD32VW55X_Wifi_BLE_SDK/GD32VW55x_RELEASE_V1.0.2/MSDK/ble/app\app_adv_mgr.c **** 
 745:C:/Users/stapi/OneDrive/Desktop/GD32VW553/V1_MQTT_OK/GD32VW55X_Wifi_BLE_SDK/GD32VW55x_RELEASE_V1.0.2/MSDK/ble/app\app_adv_mgr.c ****         if (p_param->wl_enable) {
 746:C:/Users/stapi/OneDrive/Desktop/GD32VW553/V1_MQTT_OK/GD32VW55X_Wifi_BLE_SDK/GD32VW55x_RELEASE_V1.0.2/MSDK/ble/app\app_adv_mgr.c ****             adv_param.param.filter_pol = BLE_GAP_ADV_ALLOW_SCAN_FAL_CON_FAL;
 747:C:/Users/stapi/OneDrive/Desktop/GD32VW553/V1_MQTT_OK/GD32VW55X_Wifi_BLE_SDK/GD32VW55x_RELEASE_V1.0.2/MSDK/ble/app\app_adv_mgr.c ****             adv_param.param.disc_mode = BLE_GAP_ADV_MODE_NON_DISC;
 748:C:/Users/stapi/OneDrive/Desktop/GD32VW553/V1_MQTT_OK/GD32VW55X_Wifi_BLE_SDK/GD32VW55x_RELEASE_V1.0.2/MSDK/ble/app\app_adv_mgr.c ****         } else {
 749:C:/Users/stapi/OneDrive/Desktop/GD32VW553/V1_MQTT_OK/GD32VW55X_Wifi_BLE_SDK/GD32VW55x_RELEASE_V1.0.2/MSDK/ble/app\app_adv_mgr.c ****             adv_param.param.filter_pol = BLE_GAP_ADV_ALLOW_SCAN_ANY_CON_ANY;
 750:C:/Users/stapi/OneDrive/Desktop/GD32VW553/V1_MQTT_OK/GD32VW55X_Wifi_BLE_SDK/GD32VW55x_RELEASE_V1.0.2/MSDK/ble/app\app_adv_mgr.c ****             adv_param.param.disc_mode = p_param->disc_mode;
 751:C:/Users/stapi/OneDrive/Desktop/GD32VW553/V1_MQTT_OK/GD32VW55X_Wifi_BLE_SDK/GD32VW55x_RELEASE_V1.0.2/MSDK/ble/app\app_adv_mgr.c ****         }
 752:C:/Users/stapi/OneDrive/Desktop/GD32VW553/V1_MQTT_OK/GD32VW55X_Wifi_BLE_SDK/GD32VW55x_RELEASE_V1.0.2/MSDK/ble/app\app_adv_mgr.c **** 
 753:C:/Users/stapi/OneDrive/Desktop/GD32VW553/V1_MQTT_OK/GD32VW55X_Wifi_BLE_SDK/GD32VW55x_RELEASE_V1.0.2/MSDK/ble/app\app_adv_mgr.c ****         adv_param.param.ch_map = APP_ADV_CHMAP;
 754:C:/Users/stapi/OneDrive/Desktop/GD32VW553/V1_MQTT_OK/GD32VW55X_Wifi_BLE_SDK/GD32VW55x_RELEASE_V1.0.2/MSDK/ble/app\app_adv_mgr.c ****         adv_param.param.primary_phy = p_param->pri_phy;
 755:C:/Users/stapi/OneDrive/Desktop/GD32VW553/V1_MQTT_OK/GD32VW55X_Wifi_BLE_SDK/GD32VW55x_RELEASE_V1.0.2/MSDK/ble/app\app_adv_mgr.c ****         adv_param.param.adv_sid = app_get_adv_sid();
 756:C:/Users/stapi/OneDrive/Desktop/GD32VW553/V1_MQTT_OK/GD32VW55X_Wifi_BLE_SDK/GD32VW55x_RELEASE_V1.0.2/MSDK/ble/app\app_adv_mgr.c ****         adv_param.param.max_skip = 0x00;
 757:C:/Users/stapi/OneDrive/Desktop/GD32VW553/V1_MQTT_OK/GD32VW55X_Wifi_BLE_SDK/GD32VW55x_RELEASE_V1.0.2/MSDK/ble/app\app_adv_mgr.c ****         adv_param.param.secondary_phy = p_param->sec_phy;
 758:C:/Users/stapi/OneDrive/Desktop/GD32VW553/V1_MQTT_OK/GD32VW55X_Wifi_BLE_SDK/GD32VW55x_RELEASE_V1.0.2/MSDK/ble/app\app_adv_mgr.c ****     }
 759:C:/Users/stapi/OneDrive/Desktop/GD32VW553/V1_MQTT_OK/GD32VW55X_Wifi_BLE_SDK/GD32VW55x_RELEASE_V1.0.2/MSDK/ble/app\app_adv_mgr.c **** #if (BLE_APP_PER_ADV_SUPPORT)
 760:C:/Users/stapi/OneDrive/Desktop/GD32VW553/V1_MQTT_OK/GD32VW55X_Wifi_BLE_SDK/GD32VW55x_RELEASE_V1.0.2/MSDK/ble/app\app_adv_mgr.c ****     else if (p_param->type == BLE_ADV_TYPE_PERIODIC) {
 761:C:/Users/stapi/OneDrive/Desktop/GD32VW553/V1_MQTT_OK/GD32VW55X_Wifi_BLE_SDK/GD32VW55x_RELEASE_V1.0.2/MSDK/ble/app\app_adv_mgr.c ****         adv_param.param.type = BLE_GAP_ADV_TYPE_PERIODIC;
 762:C:/Users/stapi/OneDrive/Desktop/GD32VW553/V1_MQTT_OK/GD32VW55X_Wifi_BLE_SDK/GD32VW55x_RELEASE_V1.0.2/MSDK/ble/app\app_adv_mgr.c ****         adv_param.param.prop = p_param->prop;
 763:C:/Users/stapi/OneDrive/Desktop/GD32VW553/V1_MQTT_OK/GD32VW55X_Wifi_BLE_SDK/GD32VW55x_RELEASE_V1.0.2/MSDK/ble/app\app_adv_mgr.c ****         adv_param.param.filter_pol = BLE_GAP_ADV_ALLOW_SCAN_ANY_CON_ANY;
 764:C:/Users/stapi/OneDrive/Desktop/GD32VW553/V1_MQTT_OK/GD32VW55X_Wifi_BLE_SDK/GD32VW55x_RELEASE_V1.0.2/MSDK/ble/app\app_adv_mgr.c ****         adv_param.param.disc_mode = BLE_GAP_ADV_MODE_GEN_DISC;
 765:C:/Users/stapi/OneDrive/Desktop/GD32VW553/V1_MQTT_OK/GD32VW55X_Wifi_BLE_SDK/GD32VW55x_RELEASE_V1.0.2/MSDK/ble/app\app_adv_mgr.c ****         adv_param.param.ch_map = APP_ADV_CHMAP;
 766:C:/Users/stapi/OneDrive/Desktop/GD32VW553/V1_MQTT_OK/GD32VW55X_Wifi_BLE_SDK/GD32VW55x_RELEASE_V1.0.2/MSDK/ble/app\app_adv_mgr.c ****         adv_param.param.primary_phy = p_param->pri_phy;
 767:C:/Users/stapi/OneDrive/Desktop/GD32VW553/V1_MQTT_OK/GD32VW55X_Wifi_BLE_SDK/GD32VW55x_RELEASE_V1.0.2/MSDK/ble/app\app_adv_mgr.c ****         adv_param.param.adv_sid = app_get_adv_sid();
 768:C:/Users/stapi/OneDrive/Desktop/GD32VW553/V1_MQTT_OK/GD32VW55X_Wifi_BLE_SDK/GD32VW55x_RELEASE_V1.0.2/MSDK/ble/app\app_adv_mgr.c ****         adv_param.param.max_skip = 0x00;
 769:C:/Users/stapi/OneDrive/Desktop/GD32VW553/V1_MQTT_OK/GD32VW55X_Wifi_BLE_SDK/GD32VW55x_RELEASE_V1.0.2/MSDK/ble/app\app_adv_mgr.c ****         adv_param.param.secondary_phy = p_param->sec_phy;
 770:C:/Users/stapi/OneDrive/Desktop/GD32VW553/V1_MQTT_OK/GD32VW55X_Wifi_BLE_SDK/GD32VW55x_RELEASE_V1.0.2/MSDK/ble/app\app_adv_mgr.c ****         adv_param.param.per_intv_min = 80;    // 100ms
 771:C:/Users/stapi/OneDrive/Desktop/GD32VW553/V1_MQTT_OK/GD32VW55X_Wifi_BLE_SDK/GD32VW55x_RELEASE_V1.0.2/MSDK/ble/app\app_adv_mgr.c ****         adv_param.param.per_intv_max = 80;    // 100ms
 772:C:/Users/stapi/OneDrive/Desktop/GD32VW553/V1_MQTT_OK/GD32VW55X_Wifi_BLE_SDK/GD32VW55x_RELEASE_V1.0.2/MSDK/ble/app\app_adv_mgr.c ****     }
 773:C:/Users/stapi/OneDrive/Desktop/GD32VW553/V1_MQTT_OK/GD32VW55X_Wifi_BLE_SDK/GD32VW55x_RELEASE_V1.0.2/MSDK/ble/app\app_adv_mgr.c **** #endif // (BLE_PERIODIC_ADV)
 774:C:/Users/stapi/OneDrive/Desktop/GD32VW553/V1_MQTT_OK/GD32VW55X_Wifi_BLE_SDK/GD32VW55x_RELEASE_V1.0.2/MSDK/ble/app\app_adv_mgr.c ****     else {
 775:C:/Users/stapi/OneDrive/Desktop/GD32VW553/V1_MQTT_OK/GD32VW55X_Wifi_BLE_SDK/GD32VW55x_RELEASE_V1.0.2/MSDK/ble/app\app_adv_mgr.c ****         return BLE_GAP_ERR_INVALID_PARAM;
 776:C:/Users/stapi/OneDrive/Desktop/GD32VW553/V1_MQTT_OK/GD32VW55X_Wifi_BLE_SDK/GD32VW55x_RELEASE_V1.0.2/MSDK/ble/app\app_adv_mgr.c ****     }
 777:C:/Users/stapi/OneDrive/Desktop/GD32VW553/V1_MQTT_OK/GD32VW55X_Wifi_BLE_SDK/GD32VW55x_RELEASE_V1.0.2/MSDK/ble/app\app_adv_mgr.c **** 
 778:C:/Users/stapi/OneDrive/Desktop/GD32VW553/V1_MQTT_OK/GD32VW55X_Wifi_BLE_SDK/GD32VW55x_RELEASE_V1.0.2/MSDK/ble/app\app_adv_mgr.c ****     if (adv_param.param.prop & BLE_GAP_ADV_PROP_DIRECTED_BIT) {
 1316              		.loc 1 778 5 is_stmt 1
 1317              		.loc 1 778 24 is_stmt 0
 1318 008a 035A6101 		lhu	s4,22(sp)
 1319              		.loc 1 778 8
 1320 008e 93774A00 		andi	a5,s4,4
 1321 0092 85CB     		beq	a5,zero,.L83
 779:C:/Users/stapi/OneDrive/Desktop/GD32VW553/V1_MQTT_OK/GD32VW55X_Wifi_BLE_SDK/GD32VW55x_RELEASE_V1.0.2/MSDK/ble/app\app_adv_mgr.c ****         adv_param.param.peer_addr = p_param->peer_addr;
 1322              		.loc 1 779 9 is_stmt 1
 1323              		.loc 1 779 35 is_stmt 0
 1324 0094 9305C400 		addi	a1,s0,12
 1325 0098 1D46     		li	a2,7
 1326 009a 1305B101 		addi	a0,sp,27
 1327 009e 2EC6     		sw	a1,12(sp)
 1328 00a0 97000000 		call	memcpy
 1328      E7800000 
 1329              	.LVL91:
 780:C:/Users/stapi/OneDrive/Desktop/GD32VW553/V1_MQTT_OK/GD32VW55X_Wifi_BLE_SDK/GD32VW55x_RELEASE_V1.0.2/MSDK/ble/app\app_adv_mgr.c ****         adv_param.param.disc_mode = BLE_GAP_ADV_MODE_NON_DISC;
 1330              		.loc 1 780 9 is_stmt 1
 781:C:/Users/stapi/OneDrive/Desktop/GD32VW553/V1_MQTT_OK/GD32VW55X_Wifi_BLE_SDK/GD32VW55x_RELEASE_V1.0.2/MSDK/ble/app\app_adv_mgr.c ****         p_adv->peer_addr = p_param->peer_addr;
 1331              		.loc 1 781 26 is_stmt 0
 1332 00a8 B245     		lw	a1,12(sp)
 1333 00aa E147     		li	a5,24
 1334 00ac 2685     		mv	a0,s1
 1335 00ae 7F95F9C4 		maddr32	a0, s3, a5
 1336 00b2 1D46     		li	a2,7
 1337 00b4 4505     		addi	a0,a0,17
 780:C:/Users/stapi/OneDrive/Desktop/GD32VW553/V1_MQTT_OK/GD32VW55X_Wifi_BLE_SDK/GD32VW55x_RELEASE_V1.0.2/MSDK/ble/app\app_adv_mgr.c ****         adv_param.param.disc_mode = BLE_GAP_ADV_MODE_NON_DISC;
 1338              		.loc 1 780 35
 1339 00b6 230C0100 		sb	zero,24(sp)
 1340              		.loc 1 781 9 is_stmt 1
 1341              		.loc 1 781 26 is_stmt 0
 1342 00ba 97000000 		call	memcpy
 1342      E7800000 
 1343              	.LVL92:
 1344              	.L83:
 782:C:/Users/stapi/OneDrive/Desktop/GD32VW553/V1_MQTT_OK/GD32VW55X_Wifi_BLE_SDK/GD32VW55x_RELEASE_V1.0.2/MSDK/ble/app\app_adv_mgr.c ****     }
 783:C:/Users/stapi/OneDrive/Desktop/GD32VW553/V1_MQTT_OK/GD32VW55X_Wifi_BLE_SDK/GD32VW55x_RELEASE_V1.0.2/MSDK/ble/app\app_adv_mgr.c **** 
 784:C:/Users/stapi/OneDrive/Desktop/GD32VW553/V1_MQTT_OK/GD32VW55X_Wifi_BLE_SDK/GD32VW55x_RELEASE_V1.0.2/MSDK/ble/app\app_adv_mgr.c ****     if (adv_param.param.prop & BLE_GAP_ADV_PROP_ANONYMOUS_BIT) {
 1345              		.loc 1 784 5 is_stmt 1
 1346              		.loc 1 784 8 is_stmt 0
 1347 00c2 137A0A02 		andi	s4,s4,32
 1348 00c6 63040A00 		beq	s4,zero,.L84
 785:C:/Users/stapi/OneDrive/Desktop/GD32VW553/V1_MQTT_OK/GD32VW55X_Wifi_BLE_SDK/GD32VW55x_RELEASE_V1.0.2/MSDK/ble/app\app_adv_mgr.c ****         adv_param.param.disc_mode = BLE_GAP_ADV_MODE_NON_DISC;
 1349              		.loc 1 785 9 is_stmt 1
 1350              		.loc 1 785 35 is_stmt 0
 1351 00ca 230C0100 		sb	zero,24(sp)
 1352              	.L84:
 786:C:/Users/stapi/OneDrive/Desktop/GD32VW553/V1_MQTT_OK/GD32VW55X_Wifi_BLE_SDK/GD32VW55x_RELEASE_V1.0.2/MSDK/ble/app\app_adv_mgr.c ****     }
 787:C:/Users/stapi/OneDrive/Desktop/GD32VW553/V1_MQTT_OK/GD32VW55X_Wifi_BLE_SDK/GD32VW55x_RELEASE_V1.0.2/MSDK/ble/app\app_adv_mgr.c **** 
 788:C:/Users/stapi/OneDrive/Desktop/GD32VW553/V1_MQTT_OK/GD32VW55X_Wifi_BLE_SDK/GD32VW55x_RELEASE_V1.0.2/MSDK/ble/app\app_adv_mgr.c ****     p_adv->disc_mode = adv_param.param.disc_mode;
 1353              		.loc 1 788 5 is_stmt 1
 1354              		.loc 1 788 39 is_stmt 0
 1355 00ce 83478101 		lbu	a5,24(sp)
 1356              		.loc 1 788 22
 1357 00d2 6147     		li	a4,24
 1358 00d4 FF94E9C4 		maddr32	s1, s3, a4
 789:C:/Users/stapi/OneDrive/Desktop/GD32VW553/V1_MQTT_OK/GD32VW55X_Wifi_BLE_SDK/GD32VW55x_RELEASE_V1.0.2/MSDK/ble/app\app_adv_mgr.c **** 
 790:C:/Users/stapi/OneDrive/Desktop/GD32VW553/V1_MQTT_OK/GD32VW55X_Wifi_BLE_SDK/GD32VW55x_RELEASE_V1.0.2/MSDK/ble/app\app_adv_mgr.c ****     adv_param.param.adv_intv_min = APP_ADV_INT_MIN;
 1359              		.loc 1 790 34
 1360 00d8 1307000A 		li	a4,160
 1361 00dc 3AD2     		sw	a4,36(sp)
 791:C:/Users/stapi/OneDrive/Desktop/GD32VW553/V1_MQTT_OK/GD32VW55X_Wifi_BLE_SDK/GD32VW55x_RELEASE_V1.0.2/MSDK/ble/app\app_adv_mgr.c ****     adv_param.param.adv_intv_max = APP_ADV_INT_MAX;
 1362              		.loc 1 791 34
 1363 00de 3AD4     		sw	a4,40(sp)
 788:C:/Users/stapi/OneDrive/Desktop/GD32VW553/V1_MQTT_OK/GD32VW55X_Wifi_BLE_SDK/GD32VW55x_RELEASE_V1.0.2/MSDK/ble/app\app_adv_mgr.c **** 
 1364              		.loc 1 788 22
 1365 00e0 2386F400 		sb	a5,12(s1)
 790:C:/Users/stapi/OneDrive/Desktop/GD32VW553/V1_MQTT_OK/GD32VW55X_Wifi_BLE_SDK/GD32VW55x_RELEASE_V1.0.2/MSDK/ble/app\app_adv_mgr.c ****     adv_param.param.adv_intv_max = APP_ADV_INT_MAX;
 1366              		.loc 1 790 5 is_stmt 1
 1367              		.loc 1 791 5
 792:C:/Users/stapi/OneDrive/Desktop/GD32VW553/V1_MQTT_OK/GD32VW55X_Wifi_BLE_SDK/GD32VW55x_RELEASE_V1.0.2/MSDK/ble/app\app_adv_mgr.c **** 
 793:C:/Users/stapi/OneDrive/Desktop/GD32VW553/V1_MQTT_OK/GD32VW55X_Wifi_BLE_SDK/GD32VW55x_RELEASE_V1.0.2/MSDK/ble/app\app_adv_mgr.c ****     if (p_adv->disc_mode == BLE_GAP_ADV_MODE_LIM_DISC) {
 1368              		.loc 1 793 5
 1369              		.loc 1 793 8 is_stmt 0
 1370 00e4 0947     		li	a4,2
 1371 00e6 6396E700 		bne	a5,a4,.L85
 794:C:/Users/stapi/OneDrive/Desktop/GD32VW553/V1_MQTT_OK/GD32VW55X_Wifi_BLE_SDK/GD32VW55x_RELEASE_V1.0.2/MSDK/ble/app\app_adv_mgr.c ****         adv_param.param.duration = 1000;       // 10s
 1372              		.loc 1 794 9 is_stmt 1
 1373              		.loc 1 794 34 is_stmt 0
 1374 00ea 9307803E 		li	a5,1000
 1375 00ee 231BF102 		sh	a5,54(sp)
 1376              	.L85:
 795:C:/Users/stapi/OneDrive/Desktop/GD32VW553/V1_MQTT_OK/GD32VW55X_Wifi_BLE_SDK/GD32VW55x_RELEASE_V1.0.2/MSDK/ble/app\app_adv_mgr.c ****     }
 796:C:/Users/stapi/OneDrive/Desktop/GD32VW553/V1_MQTT_OK/GD32VW55X_Wifi_BLE_SDK/GD32VW55x_RELEASE_V1.0.2/MSDK/ble/app\app_adv_mgr.c **** 
 797:C:/Users/stapi/OneDrive/Desktop/GD32VW553/V1_MQTT_OK/GD32VW55X_Wifi_BLE_SDK/GD32VW55x_RELEASE_V1.0.2/MSDK/ble/app\app_adv_mgr.c ****     if (p_param->type != BLE_ADV_TYPE_LEGACY) {
 1377              		.loc 1 797 5 is_stmt 1
 1378              		.loc 1 797 8 is_stmt 0
 1379 00f2 63060900 		beq	s2,zero,.L86
 798:C:/Users/stapi/OneDrive/Desktop/GD32VW553/V1_MQTT_OK/GD32VW55X_Wifi_BLE_SDK/GD32VW55x_RELEASE_V1.0.2/MSDK/ble/app\app_adv_mgr.c ****         adv_param.include_tx_pwr = true;
 1380              		.loc 1 798 9 is_stmt 1
 799:C:/Users/stapi/OneDrive/Desktop/GD32VW553/V1_MQTT_OK/GD32VW55X_Wifi_BLE_SDK/GD32VW55x_RELEASE_V1.0.2/MSDK/ble/app\app_adv_mgr.c ****         adv_param.scan_req_ntf = true;
 1381              		.loc 1 799 9
 798:C:/Users/stapi/OneDrive/Desktop/GD32VW553/V1_MQTT_OK/GD32VW55X_Wifi_BLE_SDK/GD32VW55x_RELEASE_V1.0.2/MSDK/ble/app\app_adv_mgr.c ****         adv_param.include_tx_pwr = true;
 1382              		.loc 1 798 34 is_stmt 0
 1383 00f6 93071010 		li	a5,257
 1384 00fa 231EF102 		sh	a5,60(sp)
 1385              	.L86:
 800:C:/Users/stapi/OneDrive/Desktop/GD32VW553/V1_MQTT_OK/GD32VW55X_Wifi_BLE_SDK/GD32VW55x_RELEASE_V1.0.2/MSDK/ble/app\app_adv_mgr.c ****     }
 801:C:/Users/stapi/OneDrive/Desktop/GD32VW553/V1_MQTT_OK/GD32VW55X_Wifi_BLE_SDK/GD32VW55x_RELEASE_V1.0.2/MSDK/ble/app\app_adv_mgr.c **** 
 802:C:/Users/stapi/OneDrive/Desktop/GD32VW553/V1_MQTT_OK/GD32VW55X_Wifi_BLE_SDK/GD32VW55x_RELEASE_V1.0.2/MSDK/ble/app\app_adv_mgr.c ****     return ble_adv_create(&adv_param, app_adv_mgr_evt_hdlr, p_adv);
 1386              		.loc 1 802 5 is_stmt 1
 1387              		.loc 1 802 12 is_stmt 0
 1388 00fe B7050000 		lui	a1,%hi(app_adv_mgr_evt_hdlr)
 1389 0102 5686     		mv	a2,s5
 1390 0104 93850500 		addi	a1,a1,%lo(app_adv_mgr_evt_hdlr)
 1391 0108 4808     		addi	a0,sp,20
 1392 010a 97000000 		call	ble_adv_create
 1392      E7800000 
 1393              	.LVL93:
 1394              	.L69:
 803:C:/Users/stapi/OneDrive/Desktop/GD32VW553/V1_MQTT_OK/GD32VW55X_Wifi_BLE_SDK/GD32VW55x_RELEASE_V1.0.2/MSDK/ble/app\app_adv_mgr.c **** }
 1395              		.loc 1 803 1
 1396 0112 2161     		addi	sp,sp,64
 1397              		.cfi_remember_state
 1398              		.cfi_def_cfa_offset 0
 1399 0114 17030000 		tail	__riscv_restore_6
 1399      67000300 
 1400              		.cfi_restore 21
 1401              		.cfi_restore 20
 1402              		.cfi_restore 19
 1403              		.cfi_restore 18
 1404              		.cfi_restore 9
 1405              		.cfi_restore 8
 1406              		.cfi_restore 1
 1407              		.cfi_def_cfa_offset -32
 1408              	.LVL94:
 1409              	.L87:
 1410              		.cfi_restore_state
 1411              	.LBB39:
 1412              	.LBB35:
 270:C:/Users/stapi/OneDrive/Desktop/GD32VW553/V1_MQTT_OK/GD32VW55X_Wifi_BLE_SDK/GD32VW55x_RELEASE_V1.0.2/MSDK/ble/app\app_adv_mgr.c ****             return &app_adv_env.adv_set[i];
 1413              		.loc 1 270 35
 1414 011c 8149     		li	s3,0
 1415 011e 15B7     		j	.L70
 1416              	.LVL95:
 1417              	.L73:
 1418              	.LBE35:
 1419              	.LBE39:
 735:C:/Users/stapi/OneDrive/Desktop/GD32VW553/V1_MQTT_OK/GD32VW55X_Wifi_BLE_SDK/GD32VW55x_RELEASE_V1.0.2/MSDK/ble/app\app_adv_mgr.c ****             adv_param.param.disc_mode = p_param->disc_mode;
 1420              		.loc 1 735 13 is_stmt 1
 736:C:/Users/stapi/OneDrive/Desktop/GD32VW553/V1_MQTT_OK/GD32VW55X_Wifi_BLE_SDK/GD32VW55x_RELEASE_V1.0.2/MSDK/ble/app\app_adv_mgr.c ****         }
 1421              		.loc 1 736 13
 736:C:/Users/stapi/OneDrive/Desktop/GD32VW553/V1_MQTT_OK/GD32VW55X_Wifi_BLE_SDK/GD32VW55x_RELEASE_V1.0.2/MSDK/ble/app\app_adv_mgr.c ****         }
 1422              		.loc 1 736 39 is_stmt 0
 1423 0120 83478400 		lbu	a5,8(s0)
 1424 0124 230CF100 		sb	a5,24(sp)
 1425 0128 91BF     		j	.L74
 1426              	.L72:
 741:C:/Users/stapi/OneDrive/Desktop/GD32VW553/V1_MQTT_OK/GD32VW55X_Wifi_BLE_SDK/GD32VW55x_RELEASE_V1.0.2/MSDK/ble/app\app_adv_mgr.c ****         adv_param.param.type = BLE_GAP_ADV_TYPE_EXTENDED;
 1427              		.loc 1 741 12 is_stmt 1
 741:C:/Users/stapi/OneDrive/Desktop/GD32VW553/V1_MQTT_OK/GD32VW55X_Wifi_BLE_SDK/GD32VW55x_RELEASE_V1.0.2/MSDK/ble/app\app_adv_mgr.c ****         adv_param.param.type = BLE_GAP_ADV_TYPE_EXTENDED;
 1428              		.loc 1 741 15 is_stmt 0
 1429 012a 8547     		li	a5,1
 1430 012c 6310F906 		bne	s2,a5,.L76
 742:C:/Users/stapi/OneDrive/Desktop/GD32VW553/V1_MQTT_OK/GD32VW55X_Wifi_BLE_SDK/GD32VW55x_RELEASE_V1.0.2/MSDK/ble/app\app_adv_mgr.c ****         adv_param.param.prop = p_param->prop;
 1431              		.loc 1 742 9 is_stmt 1
 743:C:/Users/stapi/OneDrive/Desktop/GD32VW553/V1_MQTT_OK/GD32VW55X_Wifi_BLE_SDK/GD32VW55x_RELEASE_V1.0.2/MSDK/ble/app\app_adv_mgr.c **** 
 1432              		.loc 1 743 30 is_stmt 0
 1433 0130 83572400 		lhu	a5,2(s0)
 742:C:/Users/stapi/OneDrive/Desktop/GD32VW553/V1_MQTT_OK/GD32VW55X_Wifi_BLE_SDK/GD32VW55x_RELEASE_V1.0.2/MSDK/ble/app\app_adv_mgr.c ****         adv_param.param.prop = p_param->prop;
 1434              		.loc 1 742 30
 1435 0134 A30A2101 		sb	s2,21(sp)
 743:C:/Users/stapi/OneDrive/Desktop/GD32VW553/V1_MQTT_OK/GD32VW55X_Wifi_BLE_SDK/GD32VW55x_RELEASE_V1.0.2/MSDK/ble/app\app_adv_mgr.c **** 
 1436              		.loc 1 743 9 is_stmt 1
 743:C:/Users/stapi/OneDrive/Desktop/GD32VW553/V1_MQTT_OK/GD32VW55X_Wifi_BLE_SDK/GD32VW55x_RELEASE_V1.0.2/MSDK/ble/app\app_adv_mgr.c **** 
 1437              		.loc 1 743 30 is_stmt 0
 1438 0138 231BF100 		sh	a5,22(sp)
 745:C:/Users/stapi/OneDrive/Desktop/GD32VW553/V1_MQTT_OK/GD32VW55X_Wifi_BLE_SDK/GD32VW55x_RELEASE_V1.0.2/MSDK/ble/app\app_adv_mgr.c ****             adv_param.param.filter_pol = BLE_GAP_ADV_ALLOW_SCAN_FAL_CON_FAL;
 1439              		.loc 1 745 9 is_stmt 1
 745:C:/Users/stapi/OneDrive/Desktop/GD32VW553/V1_MQTT_OK/GD32VW55X_Wifi_BLE_SDK/GD32VW55x_RELEASE_V1.0.2/MSDK/ble/app\app_adv_mgr.c ****             adv_param.param.filter_pol = BLE_GAP_ADV_ALLOW_SCAN_FAL_CON_FAL;
 1440              		.loc 1 745 12 is_stmt 0
 1441 013c 83476400 		lbu	a5,6(s0)
 1442 0140 95CF     		beq	a5,zero,.L77
 746:C:/Users/stapi/OneDrive/Desktop/GD32VW553/V1_MQTT_OK/GD32VW55X_Wifi_BLE_SDK/GD32VW55x_RELEASE_V1.0.2/MSDK/ble/app\app_adv_mgr.c ****             adv_param.param.disc_mode = BLE_GAP_ADV_MODE_NON_DISC;
 1443              		.loc 1 746 13 is_stmt 1
 746:C:/Users/stapi/OneDrive/Desktop/GD32VW553/V1_MQTT_OK/GD32VW55X_Wifi_BLE_SDK/GD32VW55x_RELEASE_V1.0.2/MSDK/ble/app\app_adv_mgr.c ****             adv_param.param.disc_mode = BLE_GAP_ADV_MODE_NON_DISC;
 1444              		.loc 1 746 40 is_stmt 0
 1445 0142 8D47     		li	a5,3
 1446 0144 230DF100 		sb	a5,26(sp)
 747:C:/Users/stapi/OneDrive/Desktop/GD32VW553/V1_MQTT_OK/GD32VW55X_Wifi_BLE_SDK/GD32VW55x_RELEASE_V1.0.2/MSDK/ble/app\app_adv_mgr.c ****         } else {
 1447              		.loc 1 747 13 is_stmt 1
 1448              	.L78:
 753:C:/Users/stapi/OneDrive/Desktop/GD32VW553/V1_MQTT_OK/GD32VW55X_Wifi_BLE_SDK/GD32VW55x_RELEASE_V1.0.2/MSDK/ble/app\app_adv_mgr.c ****         adv_param.param.primary_phy = p_param->pri_phy;
 1449              		.loc 1 753 9
 753:C:/Users/stapi/OneDrive/Desktop/GD32VW553/V1_MQTT_OK/GD32VW55X_Wifi_BLE_SDK/GD32VW55x_RELEASE_V1.0.2/MSDK/ble/app\app_adv_mgr.c ****         adv_param.param.primary_phy = p_param->pri_phy;
 1450              		.loc 1 753 32 is_stmt 0
 1451 0148 9D47     		li	a5,7
 1452 014a 2306F102 		sb	a5,44(sp)
 754:C:/Users/stapi/OneDrive/Desktop/GD32VW553/V1_MQTT_OK/GD32VW55X_Wifi_BLE_SDK/GD32VW55x_RELEASE_V1.0.2/MSDK/ble/app\app_adv_mgr.c ****         adv_param.param.adv_sid = app_get_adv_sid();
 1453              		.loc 1 754 9 is_stmt 1
 754:C:/Users/stapi/OneDrive/Desktop/GD32VW553/V1_MQTT_OK/GD32VW55X_Wifi_BLE_SDK/GD32VW55x_RELEASE_V1.0.2/MSDK/ble/app\app_adv_mgr.c ****         adv_param.param.adv_sid = app_get_adv_sid();
 1454              		.loc 1 754 37 is_stmt 0
 1455 014e 83474400 		lbu	a5,4(s0)
 1456              	.LBB40:
 1457              	.LBB41:
 300:C:/Users/stapi/OneDrive/Desktop/GD32VW553/V1_MQTT_OK/GD32VW55X_Wifi_BLE_SDK/GD32VW55x_RELEASE_V1.0.2/MSDK/ble/app\app_adv_mgr.c ****         app_adv_env.adv_sid = 0x00;
 1458              		.loc 1 300 8
 1459 0152 3D47     		li	a4,15
 1460              	.LBE41:
 1461              	.LBE40:
 754:C:/Users/stapi/OneDrive/Desktop/GD32VW553/V1_MQTT_OK/GD32VW55X_Wifi_BLE_SDK/GD32VW55x_RELEASE_V1.0.2/MSDK/ble/app\app_adv_mgr.c ****         adv_param.param.adv_sid = app_get_adv_sid();
 1462              		.loc 1 754 37
 1463 0154 A306F102 		sb	a5,45(sp)
 755:C:/Users/stapi/OneDrive/Desktop/GD32VW553/V1_MQTT_OK/GD32VW55X_Wifi_BLE_SDK/GD32VW55x_RELEASE_V1.0.2/MSDK/ble/app\app_adv_mgr.c ****         adv_param.param.max_skip = 0x00;
 1464              		.loc 1 755 9 is_stmt 1
 1465              	.LBB44:
 1466              	.LBB42:
 298:C:/Users/stapi/OneDrive/Desktop/GD32VW553/V1_MQTT_OK/GD32VW55X_Wifi_BLE_SDK/GD32VW55x_RELEASE_V1.0.2/MSDK/ble/app\app_adv_mgr.c **** 
 1467              		.loc 1 298 5
 298:C:/Users/stapi/OneDrive/Desktop/GD32VW553/V1_MQTT_OK/GD32VW55X_Wifi_BLE_SDK/GD32VW55x_RELEASE_V1.0.2/MSDK/ble/app\app_adv_mgr.c **** 
 1468              		.loc 1 298 24 is_stmt 0
 1469 0158 83C70400 		lbu	a5,0(s1)
 1470 015c 8507     		addi	a5,a5,1
 1471 015e 93F7F70F 		andi	a5,a5,0xff
 300:C:/Users/stapi/OneDrive/Desktop/GD32VW553/V1_MQTT_OK/GD32VW55X_Wifi_BLE_SDK/GD32VW55x_RELEASE_V1.0.2/MSDK/ble/app\app_adv_mgr.c ****         app_adv_env.adv_sid = 0x00;
 1472              		.loc 1 300 5 is_stmt 1
 300:C:/Users/stapi/OneDrive/Desktop/GD32VW553/V1_MQTT_OK/GD32VW55X_Wifi_BLE_SDK/GD32VW55x_RELEASE_V1.0.2/MSDK/ble/app\app_adv_mgr.c ****         app_adv_env.adv_sid = 0x00;
 1473              		.loc 1 300 8 is_stmt 0
 1474 0162 6362F702 		bgtu	a5,a4,.L79
 298:C:/Users/stapi/OneDrive/Desktop/GD32VW553/V1_MQTT_OK/GD32VW55X_Wifi_BLE_SDK/GD32VW55x_RELEASE_V1.0.2/MSDK/ble/app\app_adv_mgr.c **** 
 1475              		.loc 1 298 24
 1476 0166 2380F400 		sb	a5,0(s1)
 1477              	.L80:
 304:C:/Users/stapi/OneDrive/Desktop/GD32VW553/V1_MQTT_OK/GD32VW55X_Wifi_BLE_SDK/GD32VW55x_RELEASE_V1.0.2/MSDK/ble/app\app_adv_mgr.c **** }
 1478              		.loc 1 304 5 is_stmt 1
 1479              	.LBE42:
 1480              	.LBE44:
 755:C:/Users/stapi/OneDrive/Desktop/GD32VW553/V1_MQTT_OK/GD32VW55X_Wifi_BLE_SDK/GD32VW55x_RELEASE_V1.0.2/MSDK/ble/app\app_adv_mgr.c ****         adv_param.param.max_skip = 0x00;
 1481              		.loc 1 755 33 is_stmt 0
 1482 016a 83C70400 		lbu	a5,0(s1)
 1483 016e 2308F102 		sb	a5,48(sp)
 756:C:/Users/stapi/OneDrive/Desktop/GD32VW553/V1_MQTT_OK/GD32VW55X_Wifi_BLE_SDK/GD32VW55x_RELEASE_V1.0.2/MSDK/ble/app\app_adv_mgr.c ****         adv_param.param.secondary_phy = p_param->sec_phy;
 1484              		.loc 1 756 9 is_stmt 1
 757:C:/Users/stapi/OneDrive/Desktop/GD32VW553/V1_MQTT_OK/GD32VW55X_Wifi_BLE_SDK/GD32VW55x_RELEASE_V1.0.2/MSDK/ble/app\app_adv_mgr.c ****     }
 1485              		.loc 1 757 9
 757:C:/Users/stapi/OneDrive/Desktop/GD32VW553/V1_MQTT_OK/GD32VW55X_Wifi_BLE_SDK/GD32VW55x_RELEASE_V1.0.2/MSDK/ble/app\app_adv_mgr.c ****     }
 1486              		.loc 1 757 39 is_stmt 0
 1487 0172 83475400 		lbu	a5,5(s0)
 1488 0176 A307F102 		sb	a5,47(sp)
 1489 017a 01BF     		j	.L75
 1490              	.L77:
 749:C:/Users/stapi/OneDrive/Desktop/GD32VW553/V1_MQTT_OK/GD32VW55X_Wifi_BLE_SDK/GD32VW55x_RELEASE_V1.0.2/MSDK/ble/app\app_adv_mgr.c ****             adv_param.param.disc_mode = p_param->disc_mode;
 1491              		.loc 1 749 13 is_stmt 1
 750:C:/Users/stapi/OneDrive/Desktop/GD32VW553/V1_MQTT_OK/GD32VW55X_Wifi_BLE_SDK/GD32VW55x_RELEASE_V1.0.2/MSDK/ble/app\app_adv_mgr.c ****         }
 1492              		.loc 1 750 13
 750:C:/Users/stapi/OneDrive/Desktop/GD32VW553/V1_MQTT_OK/GD32VW55X_Wifi_BLE_SDK/GD32VW55x_RELEASE_V1.0.2/MSDK/ble/app\app_adv_mgr.c ****         }
 1493              		.loc 1 750 39 is_stmt 0
 1494 017c 83478400 		lbu	a5,8(s0)
 1495 0180 230CF100 		sb	a5,24(sp)
 1496 0184 D1B7     		j	.L78
 1497              	.L79:
 1498              	.LBB45:
 1499              	.LBB43:
 301:C:/Users/stapi/OneDrive/Desktop/GD32VW553/V1_MQTT_OK/GD32VW55X_Wifi_BLE_SDK/GD32VW55x_RELEASE_V1.0.2/MSDK/ble/app\app_adv_mgr.c ****     }
 1500              		.loc 1 301 9 is_stmt 1
 301:C:/Users/stapi/OneDrive/Desktop/GD32VW553/V1_MQTT_OK/GD32VW55X_Wifi_BLE_SDK/GD32VW55x_RELEASE_V1.0.2/MSDK/ble/app\app_adv_mgr.c ****     }
 1501              		.loc 1 301 29 is_stmt 0
 1502 0186 23800400 		sb	zero,0(s1)
 1503 018a C5B7     		j	.L80
 1504              	.L76:
 1505              	.LBE43:
 1506              	.LBE45:
 760:C:/Users/stapi/OneDrive/Desktop/GD32VW553/V1_MQTT_OK/GD32VW55X_Wifi_BLE_SDK/GD32VW55x_RELEASE_V1.0.2/MSDK/ble/app\app_adv_mgr.c ****         adv_param.param.type = BLE_GAP_ADV_TYPE_PERIODIC;
 1507              		.loc 1 760 10 is_stmt 1
 760:C:/Users/stapi/OneDrive/Desktop/GD32VW553/V1_MQTT_OK/GD32VW55X_Wifi_BLE_SDK/GD32VW55x_RELEASE_V1.0.2/MSDK/ble/app\app_adv_mgr.c ****         adv_param.param.type = BLE_GAP_ADV_TYPE_PERIODIC;
 1508              		.loc 1 760 13 is_stmt 0
 1509 018c 0947     		li	a4,2
 775:C:/Users/stapi/OneDrive/Desktop/GD32VW553/V1_MQTT_OK/GD32VW55X_Wifi_BLE_SDK/GD32VW55x_RELEASE_V1.0.2/MSDK/ble/app\app_adv_mgr.c ****     }
 1510              		.loc 1 775 16
 1511 018e 13050004 		li	a0,64
 760:C:/Users/stapi/OneDrive/Desktop/GD32VW553/V1_MQTT_OK/GD32VW55X_Wifi_BLE_SDK/GD32VW55x_RELEASE_V1.0.2/MSDK/ble/app\app_adv_mgr.c ****         adv_param.param.type = BLE_GAP_ADV_TYPE_PERIODIC;
 1512              		.loc 1 760 13
 1513 0192 E310E9F8 		bne	s2,a4,.L69
 761:C:/Users/stapi/OneDrive/Desktop/GD32VW553/V1_MQTT_OK/GD32VW55X_Wifi_BLE_SDK/GD32VW55x_RELEASE_V1.0.2/MSDK/ble/app\app_adv_mgr.c ****         adv_param.param.prop = p_param->prop;
 1514              		.loc 1 761 9 is_stmt 1
 764:C:/Users/stapi/OneDrive/Desktop/GD32VW553/V1_MQTT_OK/GD32VW55X_Wifi_BLE_SDK/GD32VW55x_RELEASE_V1.0.2/MSDK/ble/app\app_adv_mgr.c ****         adv_param.param.ch_map = APP_ADV_CHMAP;
 1515              		.loc 1 764 35 is_stmt 0
 1516 0196 230CF100 		sb	a5,24(sp)
 765:C:/Users/stapi/OneDrive/Desktop/GD32VW553/V1_MQTT_OK/GD32VW55X_Wifi_BLE_SDK/GD32VW55x_RELEASE_V1.0.2/MSDK/ble/app\app_adv_mgr.c ****         adv_param.param.primary_phy = p_param->pri_phy;
 1517              		.loc 1 765 32
 1518 019a 9D47     		li	a5,7
 1519 019c 2306F102 		sb	a5,44(sp)
 766:C:/Users/stapi/OneDrive/Desktop/GD32VW553/V1_MQTT_OK/GD32VW55X_Wifi_BLE_SDK/GD32VW55x_RELEASE_V1.0.2/MSDK/ble/app\app_adv_mgr.c ****         adv_param.param.adv_sid = app_get_adv_sid();
 1520              		.loc 1 766 37
 1521 01a0 83474400 		lbu	a5,4(s0)
 762:C:/Users/stapi/OneDrive/Desktop/GD32VW553/V1_MQTT_OK/GD32VW55X_Wifi_BLE_SDK/GD32VW55x_RELEASE_V1.0.2/MSDK/ble/app\app_adv_mgr.c ****         adv_param.param.filter_pol = BLE_GAP_ADV_ALLOW_SCAN_ANY_CON_ANY;
 1522              		.loc 1 762 30
 1523 01a4 03572400 		lhu	a4,2(s0)
 761:C:/Users/stapi/OneDrive/Desktop/GD32VW553/V1_MQTT_OK/GD32VW55X_Wifi_BLE_SDK/GD32VW55x_RELEASE_V1.0.2/MSDK/ble/app\app_adv_mgr.c ****         adv_param.param.prop = p_param->prop;
 1524              		.loc 1 761 30
 1525 01a8 A30A2101 		sb	s2,21(sp)
 762:C:/Users/stapi/OneDrive/Desktop/GD32VW553/V1_MQTT_OK/GD32VW55X_Wifi_BLE_SDK/GD32VW55x_RELEASE_V1.0.2/MSDK/ble/app\app_adv_mgr.c ****         adv_param.param.filter_pol = BLE_GAP_ADV_ALLOW_SCAN_ANY_CON_ANY;
 1526              		.loc 1 762 9 is_stmt 1
 766:C:/Users/stapi/OneDrive/Desktop/GD32VW553/V1_MQTT_OK/GD32VW55X_Wifi_BLE_SDK/GD32VW55x_RELEASE_V1.0.2/MSDK/ble/app\app_adv_mgr.c ****         adv_param.param.adv_sid = app_get_adv_sid();
 1527              		.loc 1 766 37 is_stmt 0
 1528 01ac A306F102 		sb	a5,45(sp)
 1529              	.LBB46:
 1530              	.LBB47:
 298:C:/Users/stapi/OneDrive/Desktop/GD32VW553/V1_MQTT_OK/GD32VW55X_Wifi_BLE_SDK/GD32VW55x_RELEASE_V1.0.2/MSDK/ble/app\app_adv_mgr.c **** 
 1531              		.loc 1 298 24
 1532 01b0 83C70400 		lbu	a5,0(s1)
 1533              	.LBE47:
 1534              	.LBE46:
 762:C:/Users/stapi/OneDrive/Desktop/GD32VW553/V1_MQTT_OK/GD32VW55X_Wifi_BLE_SDK/GD32VW55x_RELEASE_V1.0.2/MSDK/ble/app\app_adv_mgr.c ****         adv_param.param.filter_pol = BLE_GAP_ADV_ALLOW_SCAN_ANY_CON_ANY;
 1535              		.loc 1 762 30
 1536 01b4 231BE100 		sh	a4,22(sp)
 763:C:/Users/stapi/OneDrive/Desktop/GD32VW553/V1_MQTT_OK/GD32VW55X_Wifi_BLE_SDK/GD32VW55x_RELEASE_V1.0.2/MSDK/ble/app\app_adv_mgr.c ****         adv_param.param.disc_mode = BLE_GAP_ADV_MODE_GEN_DISC;
 1537              		.loc 1 763 9 is_stmt 1
 764:C:/Users/stapi/OneDrive/Desktop/GD32VW553/V1_MQTT_OK/GD32VW55X_Wifi_BLE_SDK/GD32VW55x_RELEASE_V1.0.2/MSDK/ble/app\app_adv_mgr.c ****         adv_param.param.ch_map = APP_ADV_CHMAP;
 1538              		.loc 1 764 9
 765:C:/Users/stapi/OneDrive/Desktop/GD32VW553/V1_MQTT_OK/GD32VW55X_Wifi_BLE_SDK/GD32VW55x_RELEASE_V1.0.2/MSDK/ble/app\app_adv_mgr.c ****         adv_param.param.primary_phy = p_param->pri_phy;
 1539              		.loc 1 765 9
 766:C:/Users/stapi/OneDrive/Desktop/GD32VW553/V1_MQTT_OK/GD32VW55X_Wifi_BLE_SDK/GD32VW55x_RELEASE_V1.0.2/MSDK/ble/app\app_adv_mgr.c ****         adv_param.param.adv_sid = app_get_adv_sid();
 1540              		.loc 1 766 9
 767:C:/Users/stapi/OneDrive/Desktop/GD32VW553/V1_MQTT_OK/GD32VW55X_Wifi_BLE_SDK/GD32VW55x_RELEASE_V1.0.2/MSDK/ble/app\app_adv_mgr.c ****         adv_param.param.max_skip = 0x00;
 1541              		.loc 1 767 9
 1542              	.LBB50:
 1543              	.LBB48:
 298:C:/Users/stapi/OneDrive/Desktop/GD32VW553/V1_MQTT_OK/GD32VW55X_Wifi_BLE_SDK/GD32VW55x_RELEASE_V1.0.2/MSDK/ble/app\app_adv_mgr.c **** 
 1544              		.loc 1 298 5
 300:C:/Users/stapi/OneDrive/Desktop/GD32VW553/V1_MQTT_OK/GD32VW55X_Wifi_BLE_SDK/GD32VW55x_RELEASE_V1.0.2/MSDK/ble/app\app_adv_mgr.c ****         app_adv_env.adv_sid = 0x00;
 1545              		.loc 1 300 8 is_stmt 0
 1546 01b8 3D47     		li	a4,15
 298:C:/Users/stapi/OneDrive/Desktop/GD32VW553/V1_MQTT_OK/GD32VW55X_Wifi_BLE_SDK/GD32VW55x_RELEASE_V1.0.2/MSDK/ble/app\app_adv_mgr.c **** 
 1547              		.loc 1 298 24
 1548 01ba 8507     		addi	a5,a5,1
 1549 01bc 93F7F70F 		andi	a5,a5,0xff
 300:C:/Users/stapi/OneDrive/Desktop/GD32VW553/V1_MQTT_OK/GD32VW55X_Wifi_BLE_SDK/GD32VW55x_RELEASE_V1.0.2/MSDK/ble/app\app_adv_mgr.c ****         app_adv_env.adv_sid = 0x00;
 1550              		.loc 1 300 5 is_stmt 1
 300:C:/Users/stapi/OneDrive/Desktop/GD32VW553/V1_MQTT_OK/GD32VW55X_Wifi_BLE_SDK/GD32VW55x_RELEASE_V1.0.2/MSDK/ble/app\app_adv_mgr.c ****         app_adv_env.adv_sid = 0x00;
 1551              		.loc 1 300 8 is_stmt 0
 1552 01c0 6363F702 		bgtu	a5,a4,.L81
 298:C:/Users/stapi/OneDrive/Desktop/GD32VW553/V1_MQTT_OK/GD32VW55X_Wifi_BLE_SDK/GD32VW55x_RELEASE_V1.0.2/MSDK/ble/app\app_adv_mgr.c **** 
 1553              		.loc 1 298 24
 1554 01c4 2380F400 		sb	a5,0(s1)
 1555              	.L82:
 304:C:/Users/stapi/OneDrive/Desktop/GD32VW553/V1_MQTT_OK/GD32VW55X_Wifi_BLE_SDK/GD32VW55x_RELEASE_V1.0.2/MSDK/ble/app\app_adv_mgr.c **** }
 1556              		.loc 1 304 5 is_stmt 1
 1557              	.LBE48:
 1558              	.LBE50:
 767:C:/Users/stapi/OneDrive/Desktop/GD32VW553/V1_MQTT_OK/GD32VW55X_Wifi_BLE_SDK/GD32VW55x_RELEASE_V1.0.2/MSDK/ble/app\app_adv_mgr.c ****         adv_param.param.max_skip = 0x00;
 1559              		.loc 1 767 33 is_stmt 0
 1560 01c8 83C70400 		lbu	a5,0(s1)
 1561 01cc 2308F102 		sb	a5,48(sp)
 768:C:/Users/stapi/OneDrive/Desktop/GD32VW553/V1_MQTT_OK/GD32VW55X_Wifi_BLE_SDK/GD32VW55x_RELEASE_V1.0.2/MSDK/ble/app\app_adv_mgr.c ****         adv_param.param.secondary_phy = p_param->sec_phy;
 1562              		.loc 1 768 9 is_stmt 1
 769:C:/Users/stapi/OneDrive/Desktop/GD32VW553/V1_MQTT_OK/GD32VW55X_Wifi_BLE_SDK/GD32VW55x_RELEASE_V1.0.2/MSDK/ble/app\app_adv_mgr.c ****         adv_param.param.per_intv_min = 80;    // 100ms
 1563              		.loc 1 769 9
 769:C:/Users/stapi/OneDrive/Desktop/GD32VW553/V1_MQTT_OK/GD32VW55X_Wifi_BLE_SDK/GD32VW55x_RELEASE_V1.0.2/MSDK/ble/app\app_adv_mgr.c ****         adv_param.param.per_intv_min = 80;    // 100ms
 1564              		.loc 1 769 39 is_stmt 0
 1565 01d0 83475400 		lbu	a5,5(s0)
 1566 01d4 A307F102 		sb	a5,47(sp)
 770:C:/Users/stapi/OneDrive/Desktop/GD32VW553/V1_MQTT_OK/GD32VW55X_Wifi_BLE_SDK/GD32VW55x_RELEASE_V1.0.2/MSDK/ble/app\app_adv_mgr.c ****         adv_param.param.per_intv_max = 80;    // 100ms
 1567              		.loc 1 770 9 is_stmt 1
 770:C:/Users/stapi/OneDrive/Desktop/GD32VW553/V1_MQTT_OK/GD32VW55X_Wifi_BLE_SDK/GD32VW55x_RELEASE_V1.0.2/MSDK/ble/app\app_adv_mgr.c ****         adv_param.param.per_intv_max = 80;    // 100ms
 1568              		.loc 1 770 38 is_stmt 0
 1569 01d8 93070005 		li	a5,80
 1570 01dc 2319F102 		sh	a5,50(sp)
 771:C:/Users/stapi/OneDrive/Desktop/GD32VW553/V1_MQTT_OK/GD32VW55X_Wifi_BLE_SDK/GD32VW55x_RELEASE_V1.0.2/MSDK/ble/app\app_adv_mgr.c ****     }
 1571              		.loc 1 771 9 is_stmt 1
 771:C:/Users/stapi/OneDrive/Desktop/GD32VW553/V1_MQTT_OK/GD32VW55X_Wifi_BLE_SDK/GD32VW55x_RELEASE_V1.0.2/MSDK/ble/app\app_adv_mgr.c ****     }
 1572              		.loc 1 771 38 is_stmt 0
 1573 01e0 231AF102 		sh	a5,52(sp)
 1574 01e4 5DB5     		j	.L75
 1575              	.L81:
 1576              	.LBB51:
 1577              	.LBB49:
 301:C:/Users/stapi/OneDrive/Desktop/GD32VW553/V1_MQTT_OK/GD32VW55X_Wifi_BLE_SDK/GD32VW55x_RELEASE_V1.0.2/MSDK/ble/app\app_adv_mgr.c ****     }
 1578              		.loc 1 301 9 is_stmt 1
 301:C:/Users/stapi/OneDrive/Desktop/GD32VW553/V1_MQTT_OK/GD32VW55X_Wifi_BLE_SDK/GD32VW55x_RELEASE_V1.0.2/MSDK/ble/app\app_adv_mgr.c ****     }
 1579              		.loc 1 301 29 is_stmt 0
 1580 01e6 23800400 		sb	zero,0(s1)
 1581 01ea F9BF     		j	.L82
 1582              	.LBE49:
 1583              	.LBE51:
 1584              		.cfi_endproc
 1585              	.LFE7:
 1587              		.section	.text.app_adv_stop,"ax",@progbits
 1588              		.align	1
 1589              		.globl	app_adv_stop
 1591              	app_adv_stop:
 1592              	.LFB8:
 804:C:/Users/stapi/OneDrive/Desktop/GD32VW553/V1_MQTT_OK/GD32VW55X_Wifi_BLE_SDK/GD32VW55x_RELEASE_V1.0.2/MSDK/ble/app\app_adv_mgr.c **** 
 805:C:/Users/stapi/OneDrive/Desktop/GD32VW553/V1_MQTT_OK/GD32VW55X_Wifi_BLE_SDK/GD32VW55x_RELEASE_V1.0.2/MSDK/ble/app\app_adv_mgr.c **** /*!
 806:C:/Users/stapi/OneDrive/Desktop/GD32VW553/V1_MQTT_OK/GD32VW55X_Wifi_BLE_SDK/GD32VW55x_RELEASE_V1.0.2/MSDK/ble/app\app_adv_mgr.c ****     \brief      Stop an advertising if it is started
 807:C:/Users/stapi/OneDrive/Desktop/GD32VW553/V1_MQTT_OK/GD32VW55X_Wifi_BLE_SDK/GD32VW55x_RELEASE_V1.0.2/MSDK/ble/app\app_adv_mgr.c ****     \param[in]  idx: local advertising set index
 808:C:/Users/stapi/OneDrive/Desktop/GD32VW553/V1_MQTT_OK/GD32VW55X_Wifi_BLE_SDK/GD32VW55x_RELEASE_V1.0.2/MSDK/ble/app\app_adv_mgr.c ****     \param[in]  rmv_adv: true to remove advertising set after it is stopped, otherwise false
 809:C:/Users/stapi/OneDrive/Desktop/GD32VW553/V1_MQTT_OK/GD32VW55X_Wifi_BLE_SDK/GD32VW55x_RELEASE_V1.0.2/MSDK/ble/app\app_adv_mgr.c ****     \param[out] none
 810:C:/Users/stapi/OneDrive/Desktop/GD32VW553/V1_MQTT_OK/GD32VW55X_Wifi_BLE_SDK/GD32VW55x_RELEASE_V1.0.2/MSDK/ble/app\app_adv_mgr.c ****     \retval     ble_status_t: BLE_ERR_NO_ERROR on success, otherwise an error code
 811:C:/Users/stapi/OneDrive/Desktop/GD32VW553/V1_MQTT_OK/GD32VW55X_Wifi_BLE_SDK/GD32VW55x_RELEASE_V1.0.2/MSDK/ble/app\app_adv_mgr.c **** */
 812:C:/Users/stapi/OneDrive/Desktop/GD32VW553/V1_MQTT_OK/GD32VW55X_Wifi_BLE_SDK/GD32VW55x_RELEASE_V1.0.2/MSDK/ble/app\app_adv_mgr.c **** ble_status_t app_adv_stop(uint8_t idx, bool rmv_adv)
 813:C:/Users/stapi/OneDrive/Desktop/GD32VW553/V1_MQTT_OK/GD32VW55X_Wifi_BLE_SDK/GD32VW55x_RELEASE_V1.0.2/MSDK/ble/app\app_adv_mgr.c **** {
 1593              		.loc 1 813 1 is_stmt 1
 1594              		.cfi_startproc
 1595              	.LVL96:
 1596 0000 17030000 		call	t0,__riscv_save_2
 1596      E7020300 
 1597              		.cfi_offset 9, -12
 1598              		.cfi_offset 8, -8
 1599              		.cfi_offset 1, -4
 1600              		.cfi_def_cfa_offset 16
 814:C:/Users/stapi/OneDrive/Desktop/GD32VW553/V1_MQTT_OK/GD32VW55X_Wifi_BLE_SDK/GD32VW55x_RELEASE_V1.0.2/MSDK/ble/app\app_adv_mgr.c ****     uint8_t i;
 1601              		.loc 1 814 5
 815:C:/Users/stapi/OneDrive/Desktop/GD32VW553/V1_MQTT_OK/GD32VW55X_Wifi_BLE_SDK/GD32VW55x_RELEASE_V1.0.2/MSDK/ble/app\app_adv_mgr.c ****     app_adv_set_t *p_adv = NULL;
 1602              		.loc 1 815 5
 1603              	.LVL97:
 816:C:/Users/stapi/OneDrive/Desktop/GD32VW553/V1_MQTT_OK/GD32VW55X_Wifi_BLE_SDK/GD32VW55x_RELEASE_V1.0.2/MSDK/ble/app\app_adv_mgr.c ****     ble_status_t ret = BLE_ERR_NO_ERROR;
 1604              		.loc 1 816 5
 817:C:/Users/stapi/OneDrive/Desktop/GD32VW553/V1_MQTT_OK/GD32VW55X_Wifi_BLE_SDK/GD32VW55x_RELEASE_V1.0.2/MSDK/ble/app\app_adv_mgr.c **** 
 818:C:/Users/stapi/OneDrive/Desktop/GD32VW553/V1_MQTT_OK/GD32VW55X_Wifi_BLE_SDK/GD32VW55x_RELEASE_V1.0.2/MSDK/ble/app\app_adv_mgr.c ****     for (i = 0; i < APP_ADV_SET_NUM; i++) {
 1605              		.loc 1 818 5
 1606              		.loc 1 818 17
 819:C:/Users/stapi/OneDrive/Desktop/GD32VW553/V1_MQTT_OK/GD32VW55X_Wifi_BLE_SDK/GD32VW55x_RELEASE_V1.0.2/MSDK/ble/app\app_adv_mgr.c ****         if (app_adv_env.adv_set[i].idx == idx) {
 1607              		.loc 1 819 9
 1608              		.loc 1 819 35 is_stmt 0
 1609 0008 37040000 		lui	s0,%hi(.LANCHOR0)
 1610 000c 13070400 		addi	a4,s0,%lo(.LANCHOR0)
 1611              		.loc 1 819 12
 1612 0010 03474700 		lbu	a4,4(a4)
 813:C:/Users/stapi/OneDrive/Desktop/GD32VW553/V1_MQTT_OK/GD32VW55X_Wifi_BLE_SDK/GD32VW55x_RELEASE_V1.0.2/MSDK/ble/app\app_adv_mgr.c ****     uint8_t i;
 1613              		.loc 1 813 1
 1614 0014 AE84     		mv	s1,a1
 1615 0016 13040400 		addi	s0,s0,%lo(.LANCHOR0)
 1616              		.loc 1 819 12
 1617 001a 630EA702 		beq	a4,a0,.L104
 1618 001e 0347C401 		lbu	a4,28(s0)
 1619 0022 AA87     		mv	a5,a0
 818:C:/Users/stapi/OneDrive/Desktop/GD32VW553/V1_MQTT_OK/GD32VW55X_Wifi_BLE_SDK/GD32VW55x_RELEASE_V1.0.2/MSDK/ble/app\app_adv_mgr.c ****         if (app_adv_env.adv_set[i].idx == idx) {
 1620              		.loc 1 818 38 is_stmt 1
 1621              	.LVL98:
 818:C:/Users/stapi/OneDrive/Desktop/GD32VW553/V1_MQTT_OK/GD32VW55X_Wifi_BLE_SDK/GD32VW55x_RELEASE_V1.0.2/MSDK/ble/app\app_adv_mgr.c ****         if (app_adv_env.adv_set[i].idx == idx) {
 1622              		.loc 1 818 17
 1623              		.loc 1 819 9
 820:C:/Users/stapi/OneDrive/Desktop/GD32VW553/V1_MQTT_OK/GD32VW55X_Wifi_BLE_SDK/GD32VW55x_RELEASE_V1.0.2/MSDK/ble/app\app_adv_mgr.c ****             p_adv = &app_adv_env.adv_set[i];
 821:C:/Users/stapi/OneDrive/Desktop/GD32VW553/V1_MQTT_OK/GD32VW55X_Wifi_BLE_SDK/GD32VW55x_RELEASE_V1.0.2/MSDK/ble/app\app_adv_mgr.c ****             break;
 822:C:/Users/stapi/OneDrive/Desktop/GD32VW553/V1_MQTT_OK/GD32VW55X_Wifi_BLE_SDK/GD32VW55x_RELEASE_V1.0.2/MSDK/ble/app\app_adv_mgr.c ****         }
 823:C:/Users/stapi/OneDrive/Desktop/GD32VW553/V1_MQTT_OK/GD32VW55X_Wifi_BLE_SDK/GD32VW55x_RELEASE_V1.0.2/MSDK/ble/app\app_adv_mgr.c ****     }
 824:C:/Users/stapi/OneDrive/Desktop/GD32VW553/V1_MQTT_OK/GD32VW55X_Wifi_BLE_SDK/GD32VW55x_RELEASE_V1.0.2/MSDK/ble/app\app_adv_mgr.c **** 
 825:C:/Users/stapi/OneDrive/Desktop/GD32VW553/V1_MQTT_OK/GD32VW55X_Wifi_BLE_SDK/GD32VW55x_RELEASE_V1.0.2/MSDK/ble/app\app_adv_mgr.c ****     if (p_adv == NULL) {
 826:C:/Users/stapi/OneDrive/Desktop/GD32VW553/V1_MQTT_OK/GD32VW55X_Wifi_BLE_SDK/GD32VW55x_RELEASE_V1.0.2/MSDK/ble/app\app_adv_mgr.c ****         return BLE_GAP_ERR_INVALID_PARAM;
 1624              		.loc 1 826 16 is_stmt 0
 1625 0024 13050004 		li	a0,64
 1626              	.LVL99:
 819:C:/Users/stapi/OneDrive/Desktop/GD32VW553/V1_MQTT_OK/GD32VW55X_Wifi_BLE_SDK/GD32VW55x_RELEASE_V1.0.2/MSDK/ble/app\app_adv_mgr.c ****             p_adv = &app_adv_env.adv_set[i];
 1627              		.loc 1 819 12
 1628 0028 6313F702 		bne	a4,a5,.L100
 819:C:/Users/stapi/OneDrive/Desktop/GD32VW553/V1_MQTT_OK/GD32VW55X_Wifi_BLE_SDK/GD32VW55x_RELEASE_V1.0.2/MSDK/ble/app\app_adv_mgr.c ****             p_adv = &app_adv_env.adv_set[i];
 1629              		.loc 1 819 35
 1630 002c 8547     		li	a5,1
 1631              	.LVL100:
 1632              	.L101:
 820:C:/Users/stapi/OneDrive/Desktop/GD32VW553/V1_MQTT_OK/GD32VW55X_Wifi_BLE_SDK/GD32VW55x_RELEASE_V1.0.2/MSDK/ble/app\app_adv_mgr.c ****             p_adv = &app_adv_env.adv_set[i];
 1633              		.loc 1 820 13 is_stmt 1
 821:C:/Users/stapi/OneDrive/Desktop/GD32VW553/V1_MQTT_OK/GD32VW55X_Wifi_BLE_SDK/GD32VW55x_RELEASE_V1.0.2/MSDK/ble/app\app_adv_mgr.c ****         }
 1634              		.loc 1 821 13
 825:C:/Users/stapi/OneDrive/Desktop/GD32VW553/V1_MQTT_OK/GD32VW55X_Wifi_BLE_SDK/GD32VW55x_RELEASE_V1.0.2/MSDK/ble/app\app_adv_mgr.c ****         return BLE_GAP_ERR_INVALID_PARAM;
 1635              		.loc 1 825 5
 827:C:/Users/stapi/OneDrive/Desktop/GD32VW553/V1_MQTT_OK/GD32VW55X_Wifi_BLE_SDK/GD32VW55x_RELEASE_V1.0.2/MSDK/ble/app\app_adv_mgr.c ****     }
 828:C:/Users/stapi/OneDrive/Desktop/GD32VW553/V1_MQTT_OK/GD32VW55X_Wifi_BLE_SDK/GD32VW55x_RELEASE_V1.0.2/MSDK/ble/app\app_adv_mgr.c **** 
 829:C:/Users/stapi/OneDrive/Desktop/GD32VW553/V1_MQTT_OK/GD32VW55X_Wifi_BLE_SDK/GD32VW55x_RELEASE_V1.0.2/MSDK/ble/app\app_adv_mgr.c ****     if (p_adv->state == BLE_ADV_STATE_START) {
 1636              		.loc 1 829 5
 1637              		.loc 1 829 14 is_stmt 0
 1638 002e 6147     		li	a4,24
 1639 0030 7F94E7C4 		maddr32	s0, a5, a4
 1640              		.loc 1 829 8
 1641 0034 184C     		lw	a4,24(s0)
 1642 0036 9947     		li	a5,6
 1643              	.LVL101:
 1644 0038 6311F702 		bne	a4,a5,.L103
 830:C:/Users/stapi/OneDrive/Desktop/GD32VW553/V1_MQTT_OK/GD32VW55X_Wifi_BLE_SDK/GD32VW55x_RELEASE_V1.0.2/MSDK/ble/app\app_adv_mgr.c ****         ret = ble_adv_stop(p_adv->idx);
 1645              		.loc 1 830 9 is_stmt 1
 1646              		.loc 1 830 15 is_stmt 0
 1647 003c 03454400 		lbu	a0,4(s0)
 1648 0040 97000000 		call	ble_adv_stop
 1648      E7800000 
 1649              	.LVL102:
 831:C:/Users/stapi/OneDrive/Desktop/GD32VW553/V1_MQTT_OK/GD32VW55X_Wifi_BLE_SDK/GD32VW55x_RELEASE_V1.0.2/MSDK/ble/app\app_adv_mgr.c ****         if (ret == BLE_ERR_NO_ERROR) {
 1650              		.loc 1 831 9 is_stmt 1
 1651              		.loc 1 831 12 is_stmt 0
 1652 0048 19E1     		bne	a0,zero,.L100
 832:C:/Users/stapi/OneDrive/Desktop/GD32VW553/V1_MQTT_OK/GD32VW55X_Wifi_BLE_SDK/GD32VW55x_RELEASE_V1.0.2/MSDK/ble/app\app_adv_mgr.c ****             p_adv->remove_after_stop = rmv_adv;
 1653              		.loc 1 832 13 is_stmt 1
 1654              		.loc 1 832 38 is_stmt 0
 1655 004a 23089400 		sb	s1,16(s0)
 1656              	.LVL103:
 1657              	.L100:
 833:C:/Users/stapi/OneDrive/Desktop/GD32VW553/V1_MQTT_OK/GD32VW55X_Wifi_BLE_SDK/GD32VW55x_RELEASE_V1.0.2/MSDK/ble/app\app_adv_mgr.c ****         }
 834:C:/Users/stapi/OneDrive/Desktop/GD32VW553/V1_MQTT_OK/GD32VW55X_Wifi_BLE_SDK/GD32VW55x_RELEASE_V1.0.2/MSDK/ble/app\app_adv_mgr.c ****     } else if (rmv_adv) {
 835:C:/Users/stapi/OneDrive/Desktop/GD32VW553/V1_MQTT_OK/GD32VW55X_Wifi_BLE_SDK/GD32VW55x_RELEASE_V1.0.2/MSDK/ble/app\app_adv_mgr.c ****         ret = ble_adv_remove(p_adv->idx);
 836:C:/Users/stapi/OneDrive/Desktop/GD32VW553/V1_MQTT_OK/GD32VW55X_Wifi_BLE_SDK/GD32VW55x_RELEASE_V1.0.2/MSDK/ble/app\app_adv_mgr.c ****     }
 837:C:/Users/stapi/OneDrive/Desktop/GD32VW553/V1_MQTT_OK/GD32VW55X_Wifi_BLE_SDK/GD32VW55x_RELEASE_V1.0.2/MSDK/ble/app\app_adv_mgr.c **** 
 838:C:/Users/stapi/OneDrive/Desktop/GD32VW553/V1_MQTT_OK/GD32VW55X_Wifi_BLE_SDK/GD32VW55x_RELEASE_V1.0.2/MSDK/ble/app\app_adv_mgr.c ****     return ret;
 839:C:/Users/stapi/OneDrive/Desktop/GD32VW553/V1_MQTT_OK/GD32VW55X_Wifi_BLE_SDK/GD32VW55x_RELEASE_V1.0.2/MSDK/ble/app\app_adv_mgr.c **** }
 1658              		.loc 1 839 1
 1659 004e 17030000 		tail	__riscv_restore_2
 1659      67000300 
 1660              		.cfi_remember_state
 1661              		.cfi_restore 9
 1662              		.cfi_restore 8
 1663              		.cfi_restore 1
 1664              		.cfi_def_cfa_offset 0
 1665              	.LVL104:
 1666              	.L104:
 1667              		.cfi_restore_state
 819:C:/Users/stapi/OneDrive/Desktop/GD32VW553/V1_MQTT_OK/GD32VW55X_Wifi_BLE_SDK/GD32VW55x_RELEASE_V1.0.2/MSDK/ble/app\app_adv_mgr.c ****             p_adv = &app_adv_env.adv_set[i];
 1668              		.loc 1 819 35
 1669 0056 8147     		li	a5,0
 1670 0058 D9BF     		j	.L101
 1671              	.LVL105:
 1672              	.L103:
 834:C:/Users/stapi/OneDrive/Desktop/GD32VW553/V1_MQTT_OK/GD32VW55X_Wifi_BLE_SDK/GD32VW55x_RELEASE_V1.0.2/MSDK/ble/app\app_adv_mgr.c ****         ret = ble_adv_remove(p_adv->idx);
 1673              		.loc 1 834 12 is_stmt 1
 816:C:/Users/stapi/OneDrive/Desktop/GD32VW553/V1_MQTT_OK/GD32VW55X_Wifi_BLE_SDK/GD32VW55x_RELEASE_V1.0.2/MSDK/ble/app\app_adv_mgr.c **** 
 1674              		.loc 1 816 18 is_stmt 0
 1675 005a 0145     		li	a0,0
 834:C:/Users/stapi/OneDrive/Desktop/GD32VW553/V1_MQTT_OK/GD32VW55X_Wifi_BLE_SDK/GD32VW55x_RELEASE_V1.0.2/MSDK/ble/app\app_adv_mgr.c ****         ret = ble_adv_remove(p_adv->idx);
 1676              		.loc 1 834 15
 1677 005c EDD8     		beq	s1,zero,.L100
 835:C:/Users/stapi/OneDrive/Desktop/GD32VW553/V1_MQTT_OK/GD32VW55X_Wifi_BLE_SDK/GD32VW55x_RELEASE_V1.0.2/MSDK/ble/app\app_adv_mgr.c ****     }
 1678              		.loc 1 835 9 is_stmt 1
 835:C:/Users/stapi/OneDrive/Desktop/GD32VW553/V1_MQTT_OK/GD32VW55X_Wifi_BLE_SDK/GD32VW55x_RELEASE_V1.0.2/MSDK/ble/app\app_adv_mgr.c ****     }
 1679              		.loc 1 835 15 is_stmt 0
 1680 005e 03454400 		lbu	a0,4(s0)
 1681 0062 97000000 		call	ble_adv_remove
 1681      E7800000 
 1682              	.LVL106:
 1683 006a D5B7     		j	.L100
 1684              		.cfi_endproc
 1685              	.LFE8:
 1687              		.section	.text.app_adv_restart,"ax",@progbits
 1688              		.align	1
 1689              		.globl	app_adv_restart
 1691              	app_adv_restart:
 1692              	.LFB9:
 840:C:/Users/stapi/OneDrive/Desktop/GD32VW553/V1_MQTT_OK/GD32VW55X_Wifi_BLE_SDK/GD32VW55x_RELEASE_V1.0.2/MSDK/ble/app\app_adv_mgr.c **** 
 841:C:/Users/stapi/OneDrive/Desktop/GD32VW553/V1_MQTT_OK/GD32VW55X_Wifi_BLE_SDK/GD32VW55x_RELEASE_V1.0.2/MSDK/ble/app\app_adv_mgr.c **** /*!
 842:C:/Users/stapi/OneDrive/Desktop/GD32VW553/V1_MQTT_OK/GD32VW55X_Wifi_BLE_SDK/GD32VW55x_RELEASE_V1.0.2/MSDK/ble/app\app_adv_mgr.c ****     \brief      Restart an advertising if it is stopped
 843:C:/Users/stapi/OneDrive/Desktop/GD32VW553/V1_MQTT_OK/GD32VW55X_Wifi_BLE_SDK/GD32VW55x_RELEASE_V1.0.2/MSDK/ble/app\app_adv_mgr.c ****     \param[in]  idx: local advertising set index
 844:C:/Users/stapi/OneDrive/Desktop/GD32VW553/V1_MQTT_OK/GD32VW55X_Wifi_BLE_SDK/GD32VW55x_RELEASE_V1.0.2/MSDK/ble/app\app_adv_mgr.c ****     \param[out] none
 845:C:/Users/stapi/OneDrive/Desktop/GD32VW553/V1_MQTT_OK/GD32VW55X_Wifi_BLE_SDK/GD32VW55x_RELEASE_V1.0.2/MSDK/ble/app\app_adv_mgr.c ****     \retval     ble_status_t: BLE_ERR_NO_ERROR on success, otherwise an error code
 846:C:/Users/stapi/OneDrive/Desktop/GD32VW553/V1_MQTT_OK/GD32VW55X_Wifi_BLE_SDK/GD32VW55x_RELEASE_V1.0.2/MSDK/ble/app\app_adv_mgr.c **** */
 847:C:/Users/stapi/OneDrive/Desktop/GD32VW553/V1_MQTT_OK/GD32VW55X_Wifi_BLE_SDK/GD32VW55x_RELEASE_V1.0.2/MSDK/ble/app\app_adv_mgr.c **** ble_status_t app_adv_restart(uint8_t idx)
 848:C:/Users/stapi/OneDrive/Desktop/GD32VW553/V1_MQTT_OK/GD32VW55X_Wifi_BLE_SDK/GD32VW55x_RELEASE_V1.0.2/MSDK/ble/app\app_adv_mgr.c **** {
 1693              		.loc 1 848 1 is_stmt 1
 1694              		.cfi_startproc
 1695              	.LVL107:
 849:C:/Users/stapi/OneDrive/Desktop/GD32VW553/V1_MQTT_OK/GD32VW55X_Wifi_BLE_SDK/GD32VW55x_RELEASE_V1.0.2/MSDK/ble/app\app_adv_mgr.c ****     uint8_t i;
 1696              		.loc 1 849 5
 850:C:/Users/stapi/OneDrive/Desktop/GD32VW553/V1_MQTT_OK/GD32VW55X_Wifi_BLE_SDK/GD32VW55x_RELEASE_V1.0.2/MSDK/ble/app\app_adv_mgr.c ****     app_adv_set_t *p_adv = NULL;
 1697              		.loc 1 850 5
 851:C:/Users/stapi/OneDrive/Desktop/GD32VW553/V1_MQTT_OK/GD32VW55X_Wifi_BLE_SDK/GD32VW55x_RELEASE_V1.0.2/MSDK/ble/app\app_adv_mgr.c **** 
 852:C:/Users/stapi/OneDrive/Desktop/GD32VW553/V1_MQTT_OK/GD32VW55X_Wifi_BLE_SDK/GD32VW55x_RELEASE_V1.0.2/MSDK/ble/app\app_adv_mgr.c ****     for (i = 0; i < APP_ADV_SET_NUM; i++) {
 1698              		.loc 1 852 5
 1699              		.loc 1 852 17
 853:C:/Users/stapi/OneDrive/Desktop/GD32VW553/V1_MQTT_OK/GD32VW55X_Wifi_BLE_SDK/GD32VW55x_RELEASE_V1.0.2/MSDK/ble/app\app_adv_mgr.c ****         if (app_adv_env.adv_set[i].idx == idx) {
 1700              		.loc 1 853 9
 1701              		.loc 1 853 35 is_stmt 0
 1702 0000 B7070000 		lui	a5,%hi(.LANCHOR0)
 1703 0004 93860700 		addi	a3,a5,%lo(.LANCHOR0)
 1704              		.loc 1 853 12
 1705 0008 83C64600 		lbu	a3,4(a3)
 1706 000c 93870700 		addi	a5,a5,%lo(.LANCHOR0)
 1707 0010 6383A602 		beq	a3,a0,.L112
 1708 0014 83C6C701 		lbu	a3,28(a5)
 1709 0018 2A87     		mv	a4,a0
 852:C:/Users/stapi/OneDrive/Desktop/GD32VW553/V1_MQTT_OK/GD32VW55X_Wifi_BLE_SDK/GD32VW55x_RELEASE_V1.0.2/MSDK/ble/app\app_adv_mgr.c ****         if (app_adv_env.adv_set[i].idx == idx) {
 1710              		.loc 1 852 38 is_stmt 1
 1711              	.LVL108:
 852:C:/Users/stapi/OneDrive/Desktop/GD32VW553/V1_MQTT_OK/GD32VW55X_Wifi_BLE_SDK/GD32VW55x_RELEASE_V1.0.2/MSDK/ble/app\app_adv_mgr.c ****         if (app_adv_env.adv_set[i].idx == idx) {
 1712              		.loc 1 852 17
 1713              		.loc 1 853 9
 854:C:/Users/stapi/OneDrive/Desktop/GD32VW553/V1_MQTT_OK/GD32VW55X_Wifi_BLE_SDK/GD32VW55x_RELEASE_V1.0.2/MSDK/ble/app\app_adv_mgr.c ****             p_adv = &app_adv_env.adv_set[i];
 855:C:/Users/stapi/OneDrive/Desktop/GD32VW553/V1_MQTT_OK/GD32VW55X_Wifi_BLE_SDK/GD32VW55x_RELEASE_V1.0.2/MSDK/ble/app\app_adv_mgr.c ****             break;
 856:C:/Users/stapi/OneDrive/Desktop/GD32VW553/V1_MQTT_OK/GD32VW55X_Wifi_BLE_SDK/GD32VW55x_RELEASE_V1.0.2/MSDK/ble/app\app_adv_mgr.c ****         }
 857:C:/Users/stapi/OneDrive/Desktop/GD32VW553/V1_MQTT_OK/GD32VW55X_Wifi_BLE_SDK/GD32VW55x_RELEASE_V1.0.2/MSDK/ble/app\app_adv_mgr.c ****     }
 858:C:/Users/stapi/OneDrive/Desktop/GD32VW553/V1_MQTT_OK/GD32VW55X_Wifi_BLE_SDK/GD32VW55x_RELEASE_V1.0.2/MSDK/ble/app\app_adv_mgr.c **** 
 859:C:/Users/stapi/OneDrive/Desktop/GD32VW553/V1_MQTT_OK/GD32VW55X_Wifi_BLE_SDK/GD32VW55x_RELEASE_V1.0.2/MSDK/ble/app\app_adv_mgr.c ****     if (p_adv == NULL) {
 860:C:/Users/stapi/OneDrive/Desktop/GD32VW553/V1_MQTT_OK/GD32VW55X_Wifi_BLE_SDK/GD32VW55x_RELEASE_V1.0.2/MSDK/ble/app\app_adv_mgr.c ****         return BLE_GAP_ERR_INVALID_PARAM;
 1714              		.loc 1 860 16 is_stmt 0
 1715 001a 13050004 		li	a0,64
 1716              	.LVL109:
 853:C:/Users/stapi/OneDrive/Desktop/GD32VW553/V1_MQTT_OK/GD32VW55X_Wifi_BLE_SDK/GD32VW55x_RELEASE_V1.0.2/MSDK/ble/app\app_adv_mgr.c ****             p_adv = &app_adv_env.adv_set[i];
 1717              		.loc 1 853 12
 1718 001e 639EE600 		bne	a3,a4,.L115
 853:C:/Users/stapi/OneDrive/Desktop/GD32VW553/V1_MQTT_OK/GD32VW55X_Wifi_BLE_SDK/GD32VW55x_RELEASE_V1.0.2/MSDK/ble/app\app_adv_mgr.c ****             p_adv = &app_adv_env.adv_set[i];
 1719              		.loc 1 853 35
 1720 0022 0547     		li	a4,1
 1721              	.LVL110:
 1722              	.L110:
 854:C:/Users/stapi/OneDrive/Desktop/GD32VW553/V1_MQTT_OK/GD32VW55X_Wifi_BLE_SDK/GD32VW55x_RELEASE_V1.0.2/MSDK/ble/app\app_adv_mgr.c ****             p_adv = &app_adv_env.adv_set[i];
 1723              		.loc 1 854 13 is_stmt 1
 855:C:/Users/stapi/OneDrive/Desktop/GD32VW553/V1_MQTT_OK/GD32VW55X_Wifi_BLE_SDK/GD32VW55x_RELEASE_V1.0.2/MSDK/ble/app\app_adv_mgr.c ****         }
 1724              		.loc 1 855 13
 859:C:/Users/stapi/OneDrive/Desktop/GD32VW553/V1_MQTT_OK/GD32VW55X_Wifi_BLE_SDK/GD32VW55x_RELEASE_V1.0.2/MSDK/ble/app\app_adv_mgr.c ****         return BLE_GAP_ERR_INVALID_PARAM;
 1725              		.loc 1 859 5
 861:C:/Users/stapi/OneDrive/Desktop/GD32VW553/V1_MQTT_OK/GD32VW55X_Wifi_BLE_SDK/GD32VW55x_RELEASE_V1.0.2/MSDK/ble/app\app_adv_mgr.c ****     }
 862:C:/Users/stapi/OneDrive/Desktop/GD32VW553/V1_MQTT_OK/GD32VW55X_Wifi_BLE_SDK/GD32VW55x_RELEASE_V1.0.2/MSDK/ble/app\app_adv_mgr.c **** 
 863:C:/Users/stapi/OneDrive/Desktop/GD32VW553/V1_MQTT_OK/GD32VW55X_Wifi_BLE_SDK/GD32VW55x_RELEASE_V1.0.2/MSDK/ble/app\app_adv_mgr.c ****     return ble_adv_restart(p_adv->idx);
 1726              		.loc 1 863 5
 1727              		.loc 1 863 12 is_stmt 0
 1728 0024 E146     		li	a3,24
 1729 0026 FF17D7C4 		maddr32	a5, a4, a3
 1730 002a 03C54700 		lbu	a0,4(a5)
 1731 002e 17030000 		tail	ble_adv_restart
 1731      67000300 
 1732              	.LVL111:
 1733              	.L112:
 853:C:/Users/stapi/OneDrive/Desktop/GD32VW553/V1_MQTT_OK/GD32VW55X_Wifi_BLE_SDK/GD32VW55x_RELEASE_V1.0.2/MSDK/ble/app\app_adv_mgr.c ****             p_adv = &app_adv_env.adv_set[i];
 1734              		.loc 1 853 35
 1735 0036 0147     		li	a4,0
 1736 0038 F5B7     		j	.L110
 1737              	.LVL112:
 1738              	.L115:
 864:C:/Users/stapi/OneDrive/Desktop/GD32VW553/V1_MQTT_OK/GD32VW55X_Wifi_BLE_SDK/GD32VW55x_RELEASE_V1.0.2/MSDK/ble/app\app_adv_mgr.c **** }
 1739              		.loc 1 864 1
 1740 003a 8280     		ret
 1741              		.cfi_endproc
 1742              	.LFE9:
 1744              		.section	.text.app_adv_data_update,"ax",@progbits
 1745              		.align	1
 1746              		.globl	app_adv_data_update
 1748              	app_adv_data_update:
 1749              	.LFB10:
 865:C:/Users/stapi/OneDrive/Desktop/GD32VW553/V1_MQTT_OK/GD32VW55X_Wifi_BLE_SDK/GD32VW55x_RELEASE_V1.0.2/MSDK/ble/app\app_adv_mgr.c **** 
 866:C:/Users/stapi/OneDrive/Desktop/GD32VW553/V1_MQTT_OK/GD32VW55X_Wifi_BLE_SDK/GD32VW55x_RELEASE_V1.0.2/MSDK/ble/app\app_adv_mgr.c **** /*!
 867:C:/Users/stapi/OneDrive/Desktop/GD32VW553/V1_MQTT_OK/GD32VW55X_Wifi_BLE_SDK/GD32VW55x_RELEASE_V1.0.2/MSDK/ble/app\app_adv_mgr.c ****     \brief      Update advertising data
 868:C:/Users/stapi/OneDrive/Desktop/GD32VW553/V1_MQTT_OK/GD32VW55X_Wifi_BLE_SDK/GD32VW55x_RELEASE_V1.0.2/MSDK/ble/app\app_adv_mgr.c ****     \param[in]  idx: local advertising set index
 869:C:/Users/stapi/OneDrive/Desktop/GD32VW553/V1_MQTT_OK/GD32VW55X_Wifi_BLE_SDK/GD32VW55x_RELEASE_V1.0.2/MSDK/ble/app\app_adv_mgr.c ****     \param[out] none
 870:C:/Users/stapi/OneDrive/Desktop/GD32VW553/V1_MQTT_OK/GD32VW55X_Wifi_BLE_SDK/GD32VW55x_RELEASE_V1.0.2/MSDK/ble/app\app_adv_mgr.c ****     \retval     ble_status_t: BLE_ERR_NO_ERROR on success, otherwise an error code
 871:C:/Users/stapi/OneDrive/Desktop/GD32VW553/V1_MQTT_OK/GD32VW55X_Wifi_BLE_SDK/GD32VW55x_RELEASE_V1.0.2/MSDK/ble/app\app_adv_mgr.c **** */
 872:C:/Users/stapi/OneDrive/Desktop/GD32VW553/V1_MQTT_OK/GD32VW55X_Wifi_BLE_SDK/GD32VW55x_RELEASE_V1.0.2/MSDK/ble/app\app_adv_mgr.c **** ble_status_t app_adv_data_update(uint8_t idx)
 873:C:/Users/stapi/OneDrive/Desktop/GD32VW553/V1_MQTT_OK/GD32VW55X_Wifi_BLE_SDK/GD32VW55x_RELEASE_V1.0.2/MSDK/ble/app\app_adv_mgr.c **** {
 1750              		.loc 1 873 1 is_stmt 1
 1751              		.cfi_startproc
 1752              	.LVL113:
 1753 0000 17030000 		call	t0,__riscv_save_4
 1753      E7020300 
 1754              		.cfi_offset 19, -20
 1755              		.cfi_offset 18, -16
 1756              		.cfi_offset 9, -12
 1757              		.cfi_offset 8, -8
 1758              		.cfi_offset 1, -4
 1759              		.cfi_def_cfa_offset 32
 874:C:/Users/stapi/OneDrive/Desktop/GD32VW553/V1_MQTT_OK/GD32VW55X_Wifi_BLE_SDK/GD32VW55x_RELEASE_V1.0.2/MSDK/ble/app\app_adv_mgr.c ****     uint8_t i;
 1760              		.loc 1 874 5
 875:C:/Users/stapi/OneDrive/Desktop/GD32VW553/V1_MQTT_OK/GD32VW55X_Wifi_BLE_SDK/GD32VW55x_RELEASE_V1.0.2/MSDK/ble/app\app_adv_mgr.c ****     app_adv_set_t *p_adv = NULL;
 1761              		.loc 1 875 5
 1762              	.LVL114:
 876:C:/Users/stapi/OneDrive/Desktop/GD32VW553/V1_MQTT_OK/GD32VW55X_Wifi_BLE_SDK/GD32VW55x_RELEASE_V1.0.2/MSDK/ble/app\app_adv_mgr.c ****     ble_adv_data_set_t adv;
 1763              		.loc 1 876 5
 877:C:/Users/stapi/OneDrive/Desktop/GD32VW553/V1_MQTT_OK/GD32VW55X_Wifi_BLE_SDK/GD32VW55x_RELEASE_V1.0.2/MSDK/ble/app\app_adv_mgr.c ****     ble_adv_data_set_t scan_rsp;
 1764              		.loc 1 877 5
 878:C:/Users/stapi/OneDrive/Desktop/GD32VW553/V1_MQTT_OK/GD32VW55X_Wifi_BLE_SDK/GD32VW55x_RELEASE_V1.0.2/MSDK/ble/app\app_adv_mgr.c ****     ble_adv_data_set_t per_adv;
 1765              		.loc 1 878 5
 879:C:/Users/stapi/OneDrive/Desktop/GD32VW553/V1_MQTT_OK/GD32VW55X_Wifi_BLE_SDK/GD32VW55x_RELEASE_V1.0.2/MSDK/ble/app\app_adv_mgr.c ****     ble_data_t adv_data;
 1766              		.loc 1 879 5
 880:C:/Users/stapi/OneDrive/Desktop/GD32VW553/V1_MQTT_OK/GD32VW55X_Wifi_BLE_SDK/GD32VW55x_RELEASE_V1.0.2/MSDK/ble/app\app_adv_mgr.c ****     ble_data_t sr_data;
 1767              		.loc 1 880 5
 881:C:/Users/stapi/OneDrive/Desktop/GD32VW553/V1_MQTT_OK/GD32VW55X_Wifi_BLE_SDK/GD32VW55x_RELEASE_V1.0.2/MSDK/ble/app\app_adv_mgr.c ****     uint8_t *p_buf;
 1768              		.loc 1 881 5
 882:C:/Users/stapi/OneDrive/Desktop/GD32VW553/V1_MQTT_OK/GD32VW55X_Wifi_BLE_SDK/GD32VW55x_RELEASE_V1.0.2/MSDK/ble/app\app_adv_mgr.c ****     uint16_t len;
 1769              		.loc 1 882 5
 883:C:/Users/stapi/OneDrive/Desktop/GD32VW553/V1_MQTT_OK/GD32VW55X_Wifi_BLE_SDK/GD32VW55x_RELEASE_V1.0.2/MSDK/ble/app\app_adv_mgr.c ****     ble_status_t ret;
 1770              		.loc 1 883 5
 884:C:/Users/stapi/OneDrive/Desktop/GD32VW553/V1_MQTT_OK/GD32VW55X_Wifi_BLE_SDK/GD32VW55x_RELEASE_V1.0.2/MSDK/ble/app\app_adv_mgr.c **** 
 885:C:/Users/stapi/OneDrive/Desktop/GD32VW553/V1_MQTT_OK/GD32VW55X_Wifi_BLE_SDK/GD32VW55x_RELEASE_V1.0.2/MSDK/ble/app\app_adv_mgr.c ****     for (i = 0; i < APP_ADV_SET_NUM; i++) {
 1771              		.loc 1 885 5
 1772              		.loc 1 885 17
 886:C:/Users/stapi/OneDrive/Desktop/GD32VW553/V1_MQTT_OK/GD32VW55X_Wifi_BLE_SDK/GD32VW55x_RELEASE_V1.0.2/MSDK/ble/app\app_adv_mgr.c ****         if (app_adv_env.adv_set[i].idx == idx) {
 1773              		.loc 1 886 9
 1774              		.loc 1 886 35 is_stmt 0
 1775 0008 37040000 		lui	s0,%hi(.LANCHOR0)
 1776 000c 93070400 		addi	a5,s0,%lo(.LANCHOR0)
 1777              		.loc 1 886 12
 1778 0010 83C74700 		lbu	a5,4(a5)
 873:C:/Users/stapi/OneDrive/Desktop/GD32VW553/V1_MQTT_OK/GD32VW55X_Wifi_BLE_SDK/GD32VW55x_RELEASE_V1.0.2/MSDK/ble/app\app_adv_mgr.c ****     uint8_t i;
 1779              		.loc 1 873 1
 1780 0014 3971     		addi	sp,sp,-64
 1781              		.cfi_def_cfa_offset 96
 1782 0016 13040400 		addi	s0,s0,%lo(.LANCHOR0)
 1783              		.loc 1 886 12
 1784 001a 6382A70C 		beq	a5,a0,.L125
 885:C:/Users/stapi/OneDrive/Desktop/GD32VW553/V1_MQTT_OK/GD32VW55X_Wifi_BLE_SDK/GD32VW55x_RELEASE_V1.0.2/MSDK/ble/app\app_adv_mgr.c ****         if (app_adv_env.adv_set[i].idx == idx) {
 1785              		.loc 1 885 38 is_stmt 1
 1786              	.LVL115:
 885:C:/Users/stapi/OneDrive/Desktop/GD32VW553/V1_MQTT_OK/GD32VW55X_Wifi_BLE_SDK/GD32VW55x_RELEASE_V1.0.2/MSDK/ble/app\app_adv_mgr.c ****         if (app_adv_env.adv_set[i].idx == idx) {
 1787              		.loc 1 885 17
 1788              		.loc 1 886 9
 1789              		.loc 1 886 12 is_stmt 0
 1790 001e 8347C401 		lbu	a5,28(s0)
 887:C:/Users/stapi/OneDrive/Desktop/GD32VW553/V1_MQTT_OK/GD32VW55X_Wifi_BLE_SDK/GD32VW55x_RELEASE_V1.0.2/MSDK/ble/app\app_adv_mgr.c ****             p_adv = &app_adv_env.adv_set[i];
 888:C:/Users/stapi/OneDrive/Desktop/GD32VW553/V1_MQTT_OK/GD32VW55X_Wifi_BLE_SDK/GD32VW55x_RELEASE_V1.0.2/MSDK/ble/app\app_adv_mgr.c ****             break;
 889:C:/Users/stapi/OneDrive/Desktop/GD32VW553/V1_MQTT_OK/GD32VW55X_Wifi_BLE_SDK/GD32VW55x_RELEASE_V1.0.2/MSDK/ble/app\app_adv_mgr.c ****         }
 890:C:/Users/stapi/OneDrive/Desktop/GD32VW553/V1_MQTT_OK/GD32VW55X_Wifi_BLE_SDK/GD32VW55x_RELEASE_V1.0.2/MSDK/ble/app\app_adv_mgr.c ****     }
 891:C:/Users/stapi/OneDrive/Desktop/GD32VW553/V1_MQTT_OK/GD32VW55X_Wifi_BLE_SDK/GD32VW55x_RELEASE_V1.0.2/MSDK/ble/app\app_adv_mgr.c **** 
 892:C:/Users/stapi/OneDrive/Desktop/GD32VW553/V1_MQTT_OK/GD32VW55X_Wifi_BLE_SDK/GD32VW55x_RELEASE_V1.0.2/MSDK/ble/app\app_adv_mgr.c ****     if (p_adv == NULL)
 893:C:/Users/stapi/OneDrive/Desktop/GD32VW553/V1_MQTT_OK/GD32VW55X_Wifi_BLE_SDK/GD32VW55x_RELEASE_V1.0.2/MSDK/ble/app\app_adv_mgr.c ****         return BLE_ERR_NO_RESOURCES;
 1791              		.loc 1 893 16
 1792 0022 9304200E 		li	s1,226
 886:C:/Users/stapi/OneDrive/Desktop/GD32VW553/V1_MQTT_OK/GD32VW55X_Wifi_BLE_SDK/GD32VW55x_RELEASE_V1.0.2/MSDK/ble/app\app_adv_mgr.c ****             p_adv = &app_adv_env.adv_set[i];
 1793              		.loc 1 886 12
 1794 0026 6396A70A 		bne	a5,a0,.L117
 886:C:/Users/stapi/OneDrive/Desktop/GD32VW553/V1_MQTT_OK/GD32VW55X_Wifi_BLE_SDK/GD32VW55x_RELEASE_V1.0.2/MSDK/ble/app\app_adv_mgr.c ****             p_adv = &app_adv_env.adv_set[i];
 1795              		.loc 1 886 35
 1796 002a 8549     		li	s3,1
 1797              	.LVL116:
 1798              	.L118:
 887:C:/Users/stapi/OneDrive/Desktop/GD32VW553/V1_MQTT_OK/GD32VW55X_Wifi_BLE_SDK/GD32VW55x_RELEASE_V1.0.2/MSDK/ble/app\app_adv_mgr.c ****             p_adv = &app_adv_env.adv_set[i];
 1799              		.loc 1 887 13 is_stmt 1
 888:C:/Users/stapi/OneDrive/Desktop/GD32VW553/V1_MQTT_OK/GD32VW55X_Wifi_BLE_SDK/GD32VW55x_RELEASE_V1.0.2/MSDK/ble/app\app_adv_mgr.c ****         }
 1800              		.loc 1 888 13
 892:C:/Users/stapi/OneDrive/Desktop/GD32VW553/V1_MQTT_OK/GD32VW55X_Wifi_BLE_SDK/GD32VW55x_RELEASE_V1.0.2/MSDK/ble/app\app_adv_mgr.c ****         return BLE_ERR_NO_RESOURCES;
 1801              		.loc 1 892 5
 894:C:/Users/stapi/OneDrive/Desktop/GD32VW553/V1_MQTT_OK/GD32VW55X_Wifi_BLE_SDK/GD32VW55x_RELEASE_V1.0.2/MSDK/ble/app\app_adv_mgr.c **** 
 895:C:/Users/stapi/OneDrive/Desktop/GD32VW553/V1_MQTT_OK/GD32VW55X_Wifi_BLE_SDK/GD32VW55x_RELEASE_V1.0.2/MSDK/ble/app\app_adv_mgr.c ****     if (p_adv->state == BLE_ADV_STATE_START) {
 1802              		.loc 1 895 5
 896:C:/Users/stapi/OneDrive/Desktop/GD32VW553/V1_MQTT_OK/GD32VW55X_Wifi_BLE_SDK/GD32VW55x_RELEASE_V1.0.2/MSDK/ble/app\app_adv_mgr.c ****         len = (p_adv->max_data_len > 251) ? 251 : p_adv->max_data_len;
 1803              		.loc 1 896 21 is_stmt 0
 1804 002c 6147     		li	a4,24
 1805 002e A287     		mv	a5,s0
 1806 0030 FF97E9C4 		maddr32	a5, s3, a4
 895:C:/Users/stapi/OneDrive/Desktop/GD32VW553/V1_MQTT_OK/GD32VW55X_Wifi_BLE_SDK/GD32VW55x_RELEASE_V1.0.2/MSDK/ble/app\app_adv_mgr.c ****         len = (p_adv->max_data_len > 251) ? 251 : p_adv->max_data_len;
 1807              		.loc 1 895 8
 1808 0034 984F     		lw	a4,24(a5)
 1809              		.loc 1 896 21
 1810 0036 03D6E700 		lhu	a2,14(a5)
 895:C:/Users/stapi/OneDrive/Desktop/GD32VW553/V1_MQTT_OK/GD32VW55X_Wifi_BLE_SDK/GD32VW55x_RELEASE_V1.0.2/MSDK/ble/app\app_adv_mgr.c ****         len = (p_adv->max_data_len > 251) ? 251 : p_adv->max_data_len;
 1811              		.loc 1 895 8
 1812 003a 9947     		li	a5,6
 1813 003c 6316F700 		bne	a4,a5,.L120
 1814              		.loc 1 896 9 is_stmt 1
 1815              		.loc 1 896 13 is_stmt 0
 1816 0040 9307B00F 		li	a5,251
 1817 0044 3356F60A 		minu	a2,a2,a5
 1818              	.LVL117:
 1819              	.L120:
 897:C:/Users/stapi/OneDrive/Desktop/GD32VW553/V1_MQTT_OK/GD32VW55X_Wifi_BLE_SDK/GD32VW55x_RELEASE_V1.0.2/MSDK/ble/app\app_adv_mgr.c ****     } else {
 898:C:/Users/stapi/OneDrive/Desktop/GD32VW553/V1_MQTT_OK/GD32VW55X_Wifi_BLE_SDK/GD32VW55x_RELEASE_V1.0.2/MSDK/ble/app\app_adv_mgr.c ****         len = p_adv->max_data_len;
 899:C:/Users/stapi/OneDrive/Desktop/GD32VW553/V1_MQTT_OK/GD32VW55X_Wifi_BLE_SDK/GD32VW55x_RELEASE_V1.0.2/MSDK/ble/app\app_adv_mgr.c ****     }
 900:C:/Users/stapi/OneDrive/Desktop/GD32VW553/V1_MQTT_OK/GD32VW55X_Wifi_BLE_SDK/GD32VW55x_RELEASE_V1.0.2/MSDK/ble/app\app_adv_mgr.c **** 
 901:C:/Users/stapi/OneDrive/Desktop/GD32VW553/V1_MQTT_OK/GD32VW55X_Wifi_BLE_SDK/GD32VW55x_RELEASE_V1.0.2/MSDK/ble/app\app_adv_mgr.c ****     p_buf = sys_malloc(len);
 1820              		.loc 1 901 5 is_stmt 1
 1821              		.loc 1 901 13 is_stmt 0
 1822 0048 3285     		mv	a0,a2
 1823              	.LVL118:
 1824 004a 32C6     		sw	a2,12(sp)
 1825 004c 97000000 		call	sys_malloc
 1825      E7800000 
 1826              	.LVL119:
 1827 0054 2A89     		mv	s2,a0
 1828              	.LVL120:
 902:C:/Users/stapi/OneDrive/Desktop/GD32VW553/V1_MQTT_OK/GD32VW55X_Wifi_BLE_SDK/GD32VW55x_RELEASE_V1.0.2/MSDK/ble/app\app_adv_mgr.c **** 
 903:C:/Users/stapi/OneDrive/Desktop/GD32VW553/V1_MQTT_OK/GD32VW55X_Wifi_BLE_SDK/GD32VW55x_RELEASE_V1.0.2/MSDK/ble/app\app_adv_mgr.c ****     if (p_buf) {
 1829              		.loc 1 903 5 is_stmt 1
 904:C:/Users/stapi/OneDrive/Desktop/GD32VW553/V1_MQTT_OK/GD32VW55X_Wifi_BLE_SDK/GD32VW55x_RELEASE_V1.0.2/MSDK/ble/app\app_adv_mgr.c ****         len = app_build_adv_data(p_adv, p_buf, len, true);
 905:C:/Users/stapi/OneDrive/Desktop/GD32VW553/V1_MQTT_OK/GD32VW55X_Wifi_BLE_SDK/GD32VW55x_RELEASE_V1.0.2/MSDK/ble/app\app_adv_mgr.c ****         adv_data.len = len;
 906:C:/Users/stapi/OneDrive/Desktop/GD32VW553/V1_MQTT_OK/GD32VW55X_Wifi_BLE_SDK/GD32VW55x_RELEASE_V1.0.2/MSDK/ble/app\app_adv_mgr.c ****         adv_data.p_data = p_buf;
 907:C:/Users/stapi/OneDrive/Desktop/GD32VW553/V1_MQTT_OK/GD32VW55X_Wifi_BLE_SDK/GD32VW55x_RELEASE_V1.0.2/MSDK/ble/app\app_adv_mgr.c **** 
 908:C:/Users/stapi/OneDrive/Desktop/GD32VW553/V1_MQTT_OK/GD32VW55X_Wifi_BLE_SDK/GD32VW55x_RELEASE_V1.0.2/MSDK/ble/app\app_adv_mgr.c ****         adv.data_force = true;
 909:C:/Users/stapi/OneDrive/Desktop/GD32VW553/V1_MQTT_OK/GD32VW55X_Wifi_BLE_SDK/GD32VW55x_RELEASE_V1.0.2/MSDK/ble/app\app_adv_mgr.c ****         adv.data.p_data_force = &adv_data;
 910:C:/Users/stapi/OneDrive/Desktop/GD32VW553/V1_MQTT_OK/GD32VW55X_Wifi_BLE_SDK/GD32VW55x_RELEASE_V1.0.2/MSDK/ble/app\app_adv_mgr.c **** 
 911:C:/Users/stapi/OneDrive/Desktop/GD32VW553/V1_MQTT_OK/GD32VW55X_Wifi_BLE_SDK/GD32VW55x_RELEASE_V1.0.2/MSDK/ble/app\app_adv_mgr.c ****         per_adv.data_force = true;
 912:C:/Users/stapi/OneDrive/Desktop/GD32VW553/V1_MQTT_OK/GD32VW55X_Wifi_BLE_SDK/GD32VW55x_RELEASE_V1.0.2/MSDK/ble/app\app_adv_mgr.c ****         per_adv.data.p_data_force = &adv_data;
 913:C:/Users/stapi/OneDrive/Desktop/GD32VW553/V1_MQTT_OK/GD32VW55X_Wifi_BLE_SDK/GD32VW55x_RELEASE_V1.0.2/MSDK/ble/app\app_adv_mgr.c **** 
 914:C:/Users/stapi/OneDrive/Desktop/GD32VW553/V1_MQTT_OK/GD32VW55X_Wifi_BLE_SDK/GD32VW55x_RELEASE_V1.0.2/MSDK/ble/app\app_adv_mgr.c ****         if (len > 3) {
 915:C:/Users/stapi/OneDrive/Desktop/GD32VW553/V1_MQTT_OK/GD32VW55X_Wifi_BLE_SDK/GD32VW55x_RELEASE_V1.0.2/MSDK/ble/app\app_adv_mgr.c ****             sr_data.p_data = p_buf + 3;
 916:C:/Users/stapi/OneDrive/Desktop/GD32VW553/V1_MQTT_OK/GD32VW55X_Wifi_BLE_SDK/GD32VW55x_RELEASE_V1.0.2/MSDK/ble/app\app_adv_mgr.c ****             sr_data.len = len - 3;
 917:C:/Users/stapi/OneDrive/Desktop/GD32VW553/V1_MQTT_OK/GD32VW55X_Wifi_BLE_SDK/GD32VW55x_RELEASE_V1.0.2/MSDK/ble/app\app_adv_mgr.c ****         } else {
 918:C:/Users/stapi/OneDrive/Desktop/GD32VW553/V1_MQTT_OK/GD32VW55X_Wifi_BLE_SDK/GD32VW55x_RELEASE_V1.0.2/MSDK/ble/app\app_adv_mgr.c ****             sr_data.p_data = NULL;
 919:C:/Users/stapi/OneDrive/Desktop/GD32VW553/V1_MQTT_OK/GD32VW55X_Wifi_BLE_SDK/GD32VW55x_RELEASE_V1.0.2/MSDK/ble/app\app_adv_mgr.c ****             sr_data.len = 0;
 920:C:/Users/stapi/OneDrive/Desktop/GD32VW553/V1_MQTT_OK/GD32VW55X_Wifi_BLE_SDK/GD32VW55x_RELEASE_V1.0.2/MSDK/ble/app\app_adv_mgr.c ****         }
 921:C:/Users/stapi/OneDrive/Desktop/GD32VW553/V1_MQTT_OK/GD32VW55X_Wifi_BLE_SDK/GD32VW55x_RELEASE_V1.0.2/MSDK/ble/app\app_adv_mgr.c ****         scan_rsp.data_force = true;
 922:C:/Users/stapi/OneDrive/Desktop/GD32VW553/V1_MQTT_OK/GD32VW55X_Wifi_BLE_SDK/GD32VW55x_RELEASE_V1.0.2/MSDK/ble/app\app_adv_mgr.c ****         scan_rsp.data.p_data_force = &sr_data;
 923:C:/Users/stapi/OneDrive/Desktop/GD32VW553/V1_MQTT_OK/GD32VW55X_Wifi_BLE_SDK/GD32VW55x_RELEASE_V1.0.2/MSDK/ble/app\app_adv_mgr.c **** 
 924:C:/Users/stapi/OneDrive/Desktop/GD32VW553/V1_MQTT_OK/GD32VW55X_Wifi_BLE_SDK/GD32VW55x_RELEASE_V1.0.2/MSDK/ble/app\app_adv_mgr.c ****         if (p_adv->state == BLE_ADV_STATE_CREATE)
 925:C:/Users/stapi/OneDrive/Desktop/GD32VW553/V1_MQTT_OK/GD32VW55X_Wifi_BLE_SDK/GD32VW55x_RELEASE_V1.0.2/MSDK/ble/app\app_adv_mgr.c ****             ret = ble_adv_start(p_adv->idx, &adv, &scan_rsp, &per_adv);
 926:C:/Users/stapi/OneDrive/Desktop/GD32VW553/V1_MQTT_OK/GD32VW55X_Wifi_BLE_SDK/GD32VW55x_RELEASE_V1.0.2/MSDK/ble/app\app_adv_mgr.c ****         else if (p_adv->state == BLE_ADV_STATE_START)
 927:C:/Users/stapi/OneDrive/Desktop/GD32VW553/V1_MQTT_OK/GD32VW55X_Wifi_BLE_SDK/GD32VW55x_RELEASE_V1.0.2/MSDK/ble/app\app_adv_mgr.c ****             ret = ble_adv_data_update(p_adv->idx, &adv, &scan_rsp, &per_adv);
 928:C:/Users/stapi/OneDrive/Desktop/GD32VW553/V1_MQTT_OK/GD32VW55X_Wifi_BLE_SDK/GD32VW55x_RELEASE_V1.0.2/MSDK/ble/app\app_adv_mgr.c ****         else
 929:C:/Users/stapi/OneDrive/Desktop/GD32VW553/V1_MQTT_OK/GD32VW55X_Wifi_BLE_SDK/GD32VW55x_RELEASE_V1.0.2/MSDK/ble/app\app_adv_mgr.c ****             ret = BLE_ERR_PROCESSING;
 930:C:/Users/stapi/OneDrive/Desktop/GD32VW553/V1_MQTT_OK/GD32VW55X_Wifi_BLE_SDK/GD32VW55x_RELEASE_V1.0.2/MSDK/ble/app\app_adv_mgr.c **** 
 931:C:/Users/stapi/OneDrive/Desktop/GD32VW553/V1_MQTT_OK/GD32VW55X_Wifi_BLE_SDK/GD32VW55x_RELEASE_V1.0.2/MSDK/ble/app\app_adv_mgr.c ****         sys_mfree(p_buf);
 932:C:/Users/stapi/OneDrive/Desktop/GD32VW553/V1_MQTT_OK/GD32VW55X_Wifi_BLE_SDK/GD32VW55x_RELEASE_V1.0.2/MSDK/ble/app\app_adv_mgr.c ****     } else {
 933:C:/Users/stapi/OneDrive/Desktop/GD32VW553/V1_MQTT_OK/GD32VW55X_Wifi_BLE_SDK/GD32VW55x_RELEASE_V1.0.2/MSDK/ble/app\app_adv_mgr.c ****         ret = BLE_ERR_NO_MEM_AVAIL;
 1830              		.loc 1 933 13 is_stmt 0
 1831 0056 9304100E 		li	s1,225
 903:C:/Users/stapi/OneDrive/Desktop/GD32VW553/V1_MQTT_OK/GD32VW55X_Wifi_BLE_SDK/GD32VW55x_RELEASE_V1.0.2/MSDK/ble/app\app_adv_mgr.c ****         len = app_build_adv_data(p_adv, p_buf, len, true);
 1832              		.loc 1 903 8
 1833 005a 25CD     		beq	a0,zero,.L117
 904:C:/Users/stapi/OneDrive/Desktop/GD32VW553/V1_MQTT_OK/GD32VW55X_Wifi_BLE_SDK/GD32VW55x_RELEASE_V1.0.2/MSDK/ble/app\app_adv_mgr.c ****         len = app_build_adv_data(p_adv, p_buf, len, true);
 1834              		.loc 1 904 9 is_stmt 1
 904:C:/Users/stapi/OneDrive/Desktop/GD32VW553/V1_MQTT_OK/GD32VW55X_Wifi_BLE_SDK/GD32VW55x_RELEASE_V1.0.2/MSDK/ble/app\app_adv_mgr.c ****         len = app_build_adv_data(p_adv, p_buf, len, true);
 1835              		.loc 1 904 15 is_stmt 0
 1836 005c 3246     		lw	a2,12(sp)
 887:C:/Users/stapi/OneDrive/Desktop/GD32VW553/V1_MQTT_OK/GD32VW55X_Wifi_BLE_SDK/GD32VW55x_RELEASE_V1.0.2/MSDK/ble/app\app_adv_mgr.c ****             break;
 1837              		.loc 1 887 19
 1838 005e E147     		li	a5,24
 1839 0060 2285     		mv	a0,s0
 1840              	.LVL121:
 1841 0062 7F95F9C4 		maddr32	a0, s3, a5
 904:C:/Users/stapi/OneDrive/Desktop/GD32VW553/V1_MQTT_OK/GD32VW55X_Wifi_BLE_SDK/GD32VW55x_RELEASE_V1.0.2/MSDK/ble/app\app_adv_mgr.c ****         len = app_build_adv_data(p_adv, p_buf, len, true);
 1842              		.loc 1 904 15
 1843 0066 8546     		li	a3,1
 1844 0068 CA85     		mv	a1,s2
 1845 006a 1105     		addi	a0,a0,4
 1846 006c 97000000 		call	app_build_adv_data
 1846      E7800000 
 1847              	.LVL122:
 905:C:/Users/stapi/OneDrive/Desktop/GD32VW553/V1_MQTT_OK/GD32VW55X_Wifi_BLE_SDK/GD32VW55x_RELEASE_V1.0.2/MSDK/ble/app\app_adv_mgr.c ****         adv_data.p_data = p_buf;
 1848              		.loc 1 905 9 is_stmt 1
 908:C:/Users/stapi/OneDrive/Desktop/GD32VW553/V1_MQTT_OK/GD32VW55X_Wifi_BLE_SDK/GD32VW55x_RELEASE_V1.0.2/MSDK/ble/app\app_adv_mgr.c ****         adv.data.p_data_force = &adv_data;
 1849              		.loc 1 908 24 is_stmt 0
 1850 0074 8547     		li	a5,1
 909:C:/Users/stapi/OneDrive/Desktop/GD32VW553/V1_MQTT_OK/GD32VW55X_Wifi_BLE_SDK/GD32VW55x_RELEASE_V1.0.2/MSDK/ble/app\app_adv_mgr.c **** 
 1851              		.loc 1 909 31
 1852 0076 1818     		addi	a4,sp,48
 908:C:/Users/stapi/OneDrive/Desktop/GD32VW553/V1_MQTT_OK/GD32VW55X_Wifi_BLE_SDK/GD32VW55x_RELEASE_V1.0.2/MSDK/ble/app\app_adv_mgr.c ****         adv.data.p_data_force = &adv_data;
 1853              		.loc 1 908 24
 1854 0078 230CF100 		sb	a5,24(sp)
 911:C:/Users/stapi/OneDrive/Desktop/GD32VW553/V1_MQTT_OK/GD32VW55X_Wifi_BLE_SDK/GD32VW55x_RELEASE_V1.0.2/MSDK/ble/app\app_adv_mgr.c ****         per_adv.data.p_data_force = &adv_data;
 1855              		.loc 1 911 28
 1856 007c 2304F102 		sb	a5,40(sp)
 905:C:/Users/stapi/OneDrive/Desktop/GD32VW553/V1_MQTT_OK/GD32VW55X_Wifi_BLE_SDK/GD32VW55x_RELEASE_V1.0.2/MSDK/ble/app\app_adv_mgr.c ****         adv_data.p_data = p_buf;
 1857              		.loc 1 905 22
 1858 0080 231AA102 		sh	a0,52(sp)
 906:C:/Users/stapi/OneDrive/Desktop/GD32VW553/V1_MQTT_OK/GD32VW55X_Wifi_BLE_SDK/GD32VW55x_RELEASE_V1.0.2/MSDK/ble/app\app_adv_mgr.c **** 
 1859              		.loc 1 906 9 is_stmt 1
 906:C:/Users/stapi/OneDrive/Desktop/GD32VW553/V1_MQTT_OK/GD32VW55X_Wifi_BLE_SDK/GD32VW55x_RELEASE_V1.0.2/MSDK/ble/app\app_adv_mgr.c **** 
 1860              		.loc 1 906 25 is_stmt 0
 1861 0084 4AD8     		sw	s2,48(sp)
 908:C:/Users/stapi/OneDrive/Desktop/GD32VW553/V1_MQTT_OK/GD32VW55X_Wifi_BLE_SDK/GD32VW55x_RELEASE_V1.0.2/MSDK/ble/app\app_adv_mgr.c ****         adv.data.p_data_force = &adv_data;
 1862              		.loc 1 908 9 is_stmt 1
 909:C:/Users/stapi/OneDrive/Desktop/GD32VW553/V1_MQTT_OK/GD32VW55X_Wifi_BLE_SDK/GD32VW55x_RELEASE_V1.0.2/MSDK/ble/app\app_adv_mgr.c **** 
 1863              		.loc 1 909 9
 909:C:/Users/stapi/OneDrive/Desktop/GD32VW553/V1_MQTT_OK/GD32VW55X_Wifi_BLE_SDK/GD32VW55x_RELEASE_V1.0.2/MSDK/ble/app\app_adv_mgr.c **** 
 1864              		.loc 1 909 31 is_stmt 0
 1865 0086 3ACE     		sw	a4,28(sp)
 911:C:/Users/stapi/OneDrive/Desktop/GD32VW553/V1_MQTT_OK/GD32VW55X_Wifi_BLE_SDK/GD32VW55x_RELEASE_V1.0.2/MSDK/ble/app\app_adv_mgr.c ****         per_adv.data.p_data_force = &adv_data;
 1866              		.loc 1 911 9 is_stmt 1
 912:C:/Users/stapi/OneDrive/Desktop/GD32VW553/V1_MQTT_OK/GD32VW55X_Wifi_BLE_SDK/GD32VW55x_RELEASE_V1.0.2/MSDK/ble/app\app_adv_mgr.c **** 
 1867              		.loc 1 912 9
 912:C:/Users/stapi/OneDrive/Desktop/GD32VW553/V1_MQTT_OK/GD32VW55X_Wifi_BLE_SDK/GD32VW55x_RELEASE_V1.0.2/MSDK/ble/app\app_adv_mgr.c **** 
 1868              		.loc 1 912 35 is_stmt 0
 1869 0088 3AD6     		sw	a4,44(sp)
 914:C:/Users/stapi/OneDrive/Desktop/GD32VW553/V1_MQTT_OK/GD32VW55X_Wifi_BLE_SDK/GD32VW55x_RELEASE_V1.0.2/MSDK/ble/app\app_adv_mgr.c ****             sr_data.p_data = p_buf + 3;
 1870              		.loc 1 914 9 is_stmt 1
 914:C:/Users/stapi/OneDrive/Desktop/GD32VW553/V1_MQTT_OK/GD32VW55X_Wifi_BLE_SDK/GD32VW55x_RELEASE_V1.0.2/MSDK/ble/app\app_adv_mgr.c ****             sr_data.p_data = p_buf + 3;
 1871              		.loc 1 914 12 is_stmt 0
 1872 008a 8D47     		li	a5,3
 1873 008c 63FBA704 		bleu	a0,a5,.L121
 915:C:/Users/stapi/OneDrive/Desktop/GD32VW553/V1_MQTT_OK/GD32VW55X_Wifi_BLE_SDK/GD32VW55x_RELEASE_V1.0.2/MSDK/ble/app\app_adv_mgr.c ****             sr_data.len = len - 3;
 1874              		.loc 1 915 13 is_stmt 1
 915:C:/Users/stapi/OneDrive/Desktop/GD32VW553/V1_MQTT_OK/GD32VW55X_Wifi_BLE_SDK/GD32VW55x_RELEASE_V1.0.2/MSDK/ble/app\app_adv_mgr.c ****             sr_data.len = len - 3;
 1875              		.loc 1 915 36 is_stmt 0
 1876 0090 93073900 		addi	a5,s2,3
 916:C:/Users/stapi/OneDrive/Desktop/GD32VW553/V1_MQTT_OK/GD32VW55X_Wifi_BLE_SDK/GD32VW55x_RELEASE_V1.0.2/MSDK/ble/app\app_adv_mgr.c ****         } else {
 1877              		.loc 1 916 31
 1878 0094 7515     		addi	a0,a0,-3
 1879              	.LVL123:
 915:C:/Users/stapi/OneDrive/Desktop/GD32VW553/V1_MQTT_OK/GD32VW55X_Wifi_BLE_SDK/GD32VW55x_RELEASE_V1.0.2/MSDK/ble/app\app_adv_mgr.c ****             sr_data.len = len - 3;
 1880              		.loc 1 915 28
 1881 0096 3EDC     		sw	a5,56(sp)
 916:C:/Users/stapi/OneDrive/Desktop/GD32VW553/V1_MQTT_OK/GD32VW55X_Wifi_BLE_SDK/GD32VW55x_RELEASE_V1.0.2/MSDK/ble/app\app_adv_mgr.c ****         } else {
 1882              		.loc 1 916 13 is_stmt 1
 916:C:/Users/stapi/OneDrive/Desktop/GD32VW553/V1_MQTT_OK/GD32VW55X_Wifi_BLE_SDK/GD32VW55x_RELEASE_V1.0.2/MSDK/ble/app\app_adv_mgr.c ****         } else {
 1883              		.loc 1 916 25 is_stmt 0
 1884 0098 231EA102 		sh	a0,60(sp)
 1885              	.L122:
 921:C:/Users/stapi/OneDrive/Desktop/GD32VW553/V1_MQTT_OK/GD32VW55X_Wifi_BLE_SDK/GD32VW55x_RELEASE_V1.0.2/MSDK/ble/app\app_adv_mgr.c ****         scan_rsp.data.p_data_force = &sr_data;
 1886              		.loc 1 921 9 is_stmt 1
 921:C:/Users/stapi/OneDrive/Desktop/GD32VW553/V1_MQTT_OK/GD32VW55X_Wifi_BLE_SDK/GD32VW55x_RELEASE_V1.0.2/MSDK/ble/app\app_adv_mgr.c ****         scan_rsp.data.p_data_force = &sr_data;
 1887              		.loc 1 921 29 is_stmt 0
 1888 009c 8547     		li	a5,1
 1889 009e 2300F102 		sb	a5,32(sp)
 922:C:/Users/stapi/OneDrive/Desktop/GD32VW553/V1_MQTT_OK/GD32VW55X_Wifi_BLE_SDK/GD32VW55x_RELEASE_V1.0.2/MSDK/ble/app\app_adv_mgr.c **** 
 1890              		.loc 1 922 9 is_stmt 1
 922:C:/Users/stapi/OneDrive/Desktop/GD32VW553/V1_MQTT_OK/GD32VW55X_Wifi_BLE_SDK/GD32VW55x_RELEASE_V1.0.2/MSDK/ble/app\app_adv_mgr.c **** 
 1891              		.loc 1 922 36 is_stmt 0
 1892 00a2 3C18     		addi	a5,sp,56
 1893 00a4 3ED2     		sw	a5,36(sp)
 924:C:/Users/stapi/OneDrive/Desktop/GD32VW553/V1_MQTT_OK/GD32VW55X_Wifi_BLE_SDK/GD32VW55x_RELEASE_V1.0.2/MSDK/ble/app\app_adv_mgr.c ****             ret = ble_adv_start(p_adv->idx, &adv, &scan_rsp, &per_adv);
 1894              		.loc 1 924 9 is_stmt 1
 924:C:/Users/stapi/OneDrive/Desktop/GD32VW553/V1_MQTT_OK/GD32VW55X_Wifi_BLE_SDK/GD32VW55x_RELEASE_V1.0.2/MSDK/ble/app\app_adv_mgr.c ****             ret = ble_adv_start(p_adv->idx, &adv, &scan_rsp, &per_adv);
 1895              		.loc 1 924 18 is_stmt 0
 1896 00a6 E147     		li	a5,24
 1897 00a8 7F94F9C4 		maddr32	s0, s3, a5
 1898 00ac 1C4C     		lw	a5,24(s0)
 924:C:/Users/stapi/OneDrive/Desktop/GD32VW553/V1_MQTT_OK/GD32VW55X_Wifi_BLE_SDK/GD32VW55x_RELEASE_V1.0.2/MSDK/ble/app\app_adv_mgr.c ****             ret = ble_adv_start(p_adv->idx, &adv, &scan_rsp, &per_adv);
 1899              		.loc 1 924 12
 1900 00ae 0947     		li	a4,2
 1901 00b0 639DE702 		bne	a5,a4,.L123
 925:C:/Users/stapi/OneDrive/Desktop/GD32VW553/V1_MQTT_OK/GD32VW55X_Wifi_BLE_SDK/GD32VW55x_RELEASE_V1.0.2/MSDK/ble/app\app_adv_mgr.c ****         else if (p_adv->state == BLE_ADV_STATE_START)
 1902              		.loc 1 925 13 is_stmt 1
 925:C:/Users/stapi/OneDrive/Desktop/GD32VW553/V1_MQTT_OK/GD32VW55X_Wifi_BLE_SDK/GD32VW55x_RELEASE_V1.0.2/MSDK/ble/app\app_adv_mgr.c ****         else if (p_adv->state == BLE_ADV_STATE_START)
 1903              		.loc 1 925 19 is_stmt 0
 1904 00b4 03454400 		lbu	a0,4(s0)
 1905 00b8 3410     		addi	a3,sp,40
 1906 00ba 1010     		addi	a2,sp,32
 1907 00bc 2C08     		addi	a1,sp,24
 1908 00be 97000000 		call	ble_adv_start
 1908      E7800000 
 1909              	.LVL124:
 1910              	.L130:
 927:C:/Users/stapi/OneDrive/Desktop/GD32VW553/V1_MQTT_OK/GD32VW55X_Wifi_BLE_SDK/GD32VW55x_RELEASE_V1.0.2/MSDK/ble/app\app_adv_mgr.c ****         else
 1911              		.loc 1 927 19
 1912 00c6 AA84     		mv	s1,a0
 1913              	.LVL125:
 1914              	.L124:
 931:C:/Users/stapi/OneDrive/Desktop/GD32VW553/V1_MQTT_OK/GD32VW55X_Wifi_BLE_SDK/GD32VW55x_RELEASE_V1.0.2/MSDK/ble/app\app_adv_mgr.c ****     } else {
 1915              		.loc 1 931 9 is_stmt 1
 1916 00c8 4A85     		mv	a0,s2
 1917 00ca 97000000 		call	sys_mfree
 1917      E7800000 
 1918              	.LVL126:
 1919              	.L117:
 934:C:/Users/stapi/OneDrive/Desktop/GD32VW553/V1_MQTT_OK/GD32VW55X_Wifi_BLE_SDK/GD32VW55x_RELEASE_V1.0.2/MSDK/ble/app\app_adv_mgr.c ****     }
 935:C:/Users/stapi/OneDrive/Desktop/GD32VW553/V1_MQTT_OK/GD32VW55X_Wifi_BLE_SDK/GD32VW55x_RELEASE_V1.0.2/MSDK/ble/app\app_adv_mgr.c **** 
 936:C:/Users/stapi/OneDrive/Desktop/GD32VW553/V1_MQTT_OK/GD32VW55X_Wifi_BLE_SDK/GD32VW55x_RELEASE_V1.0.2/MSDK/ble/app\app_adv_mgr.c ****     return ret;
 937:C:/Users/stapi/OneDrive/Desktop/GD32VW553/V1_MQTT_OK/GD32VW55X_Wifi_BLE_SDK/GD32VW55x_RELEASE_V1.0.2/MSDK/ble/app\app_adv_mgr.c **** }
 1920              		.loc 1 937 1 is_stmt 0
 1921 00d2 2685     		mv	a0,s1
 1922 00d4 2161     		addi	sp,sp,64
 1923              		.cfi_remember_state
 1924              		.cfi_def_cfa_offset 0
 1925 00d6 17030000 		tail	__riscv_restore_4
 1925      67000300 
 1926              		.cfi_restore 19
 1927              		.cfi_restore 18
 1928              		.cfi_restore 9
 1929              		.cfi_restore 8
 1930              		.cfi_restore 1
 1931              		.cfi_def_cfa_offset -32
 1932              	.LVL127:
 1933              	.L125:
 1934              		.cfi_restore_state
 886:C:/Users/stapi/OneDrive/Desktop/GD32VW553/V1_MQTT_OK/GD32VW55X_Wifi_BLE_SDK/GD32VW55x_RELEASE_V1.0.2/MSDK/ble/app\app_adv_mgr.c ****             p_adv = &app_adv_env.adv_set[i];
 1935              		.loc 1 886 35
 1936 00de 8149     		li	s3,0
 1937 00e0 B1B7     		j	.L118
 1938              	.LVL128:
 1939              	.L121:
 918:C:/Users/stapi/OneDrive/Desktop/GD32VW553/V1_MQTT_OK/GD32VW55X_Wifi_BLE_SDK/GD32VW55x_RELEASE_V1.0.2/MSDK/ble/app\app_adv_mgr.c ****             sr_data.len = 0;
 1940              		.loc 1 918 13 is_stmt 1
 918:C:/Users/stapi/OneDrive/Desktop/GD32VW553/V1_MQTT_OK/GD32VW55X_Wifi_BLE_SDK/GD32VW55x_RELEASE_V1.0.2/MSDK/ble/app\app_adv_mgr.c ****             sr_data.len = 0;
 1941              		.loc 1 918 28 is_stmt 0
 1942 00e2 02DC     		sw	zero,56(sp)
 919:C:/Users/stapi/OneDrive/Desktop/GD32VW553/V1_MQTT_OK/GD32VW55X_Wifi_BLE_SDK/GD32VW55x_RELEASE_V1.0.2/MSDK/ble/app\app_adv_mgr.c ****         }
 1943              		.loc 1 919 13 is_stmt 1
 919:C:/Users/stapi/OneDrive/Desktop/GD32VW553/V1_MQTT_OK/GD32VW55X_Wifi_BLE_SDK/GD32VW55x_RELEASE_V1.0.2/MSDK/ble/app\app_adv_mgr.c ****         }
 1944              		.loc 1 919 25 is_stmt 0
 1945 00e4 231E0102 		sh	zero,60(sp)
 1946 00e8 55BF     		j	.L122
 1947              	.LVL129:
 1948              	.L123:
 926:C:/Users/stapi/OneDrive/Desktop/GD32VW553/V1_MQTT_OK/GD32VW55X_Wifi_BLE_SDK/GD32VW55x_RELEASE_V1.0.2/MSDK/ble/app\app_adv_mgr.c ****             ret = ble_adv_data_update(p_adv->idx, &adv, &scan_rsp, &per_adv);
 1949              		.loc 1 926 14 is_stmt 1
 926:C:/Users/stapi/OneDrive/Desktop/GD32VW553/V1_MQTT_OK/GD32VW55X_Wifi_BLE_SDK/GD32VW55x_RELEASE_V1.0.2/MSDK/ble/app\app_adv_mgr.c ****             ret = ble_adv_data_update(p_adv->idx, &adv, &scan_rsp, &per_adv);
 1950              		.loc 1 926 17 is_stmt 0
 1951 00ea 1947     		li	a4,6
 929:C:/Users/stapi/OneDrive/Desktop/GD32VW553/V1_MQTT_OK/GD32VW55X_Wifi_BLE_SDK/GD32VW55x_RELEASE_V1.0.2/MSDK/ble/app\app_adv_mgr.c **** 
 1952              		.loc 1 929 17
 1953 00ec 9304000E 		li	s1,224
 926:C:/Users/stapi/OneDrive/Desktop/GD32VW553/V1_MQTT_OK/GD32VW55X_Wifi_BLE_SDK/GD32VW55x_RELEASE_V1.0.2/MSDK/ble/app\app_adv_mgr.c ****             ret = ble_adv_data_update(p_adv->idx, &adv, &scan_rsp, &per_adv);
 1954              		.loc 1 926 17
 1955 00f0 E39CE7FC 		bne	a5,a4,.L124
 927:C:/Users/stapi/OneDrive/Desktop/GD32VW553/V1_MQTT_OK/GD32VW55X_Wifi_BLE_SDK/GD32VW55x_RELEASE_V1.0.2/MSDK/ble/app\app_adv_mgr.c ****         else
 1956              		.loc 1 927 13 is_stmt 1
 927:C:/Users/stapi/OneDrive/Desktop/GD32VW553/V1_MQTT_OK/GD32VW55X_Wifi_BLE_SDK/GD32VW55x_RELEASE_V1.0.2/MSDK/ble/app\app_adv_mgr.c ****         else
 1957              		.loc 1 927 19 is_stmt 0
 1958 00f4 03454400 		lbu	a0,4(s0)
 1959 00f8 3410     		addi	a3,sp,40
 1960 00fa 1010     		addi	a2,sp,32
 1961 00fc 2C08     		addi	a1,sp,24
 1962 00fe 97000000 		call	ble_adv_data_update
 1962      E7800000 
 1963              	.LVL130:
 1964 0106 C1B7     		j	.L130
 1965              		.cfi_endproc
 1966              	.LFE10:
 1968              		.section	.text.app_adv_data_update_all,"ax",@progbits
 1969              		.align	1
 1970              		.globl	app_adv_data_update_all
 1972              	app_adv_data_update_all:
 1973              	.LFB11:
 938:C:/Users/stapi/OneDrive/Desktop/GD32VW553/V1_MQTT_OK/GD32VW55X_Wifi_BLE_SDK/GD32VW55x_RELEASE_V1.0.2/MSDK/ble/app\app_adv_mgr.c **** 
 939:C:/Users/stapi/OneDrive/Desktop/GD32VW553/V1_MQTT_OK/GD32VW55X_Wifi_BLE_SDK/GD32VW55x_RELEASE_V1.0.2/MSDK/ble/app\app_adv_mgr.c **** /*!
 940:C:/Users/stapi/OneDrive/Desktop/GD32VW553/V1_MQTT_OK/GD32VW55X_Wifi_BLE_SDK/GD32VW55x_RELEASE_V1.0.2/MSDK/ble/app\app_adv_mgr.c ****     \brief      Update advertising data for all advertising set
 941:C:/Users/stapi/OneDrive/Desktop/GD32VW553/V1_MQTT_OK/GD32VW55X_Wifi_BLE_SDK/GD32VW55x_RELEASE_V1.0.2/MSDK/ble/app\app_adv_mgr.c ****     \param[in]  none
 942:C:/Users/stapi/OneDrive/Desktop/GD32VW553/V1_MQTT_OK/GD32VW55X_Wifi_BLE_SDK/GD32VW55x_RELEASE_V1.0.2/MSDK/ble/app\app_adv_mgr.c ****     \param[out] none
 943:C:/Users/stapi/OneDrive/Desktop/GD32VW553/V1_MQTT_OK/GD32VW55X_Wifi_BLE_SDK/GD32VW55x_RELEASE_V1.0.2/MSDK/ble/app\app_adv_mgr.c ****     \retval     none
 944:C:/Users/stapi/OneDrive/Desktop/GD32VW553/V1_MQTT_OK/GD32VW55X_Wifi_BLE_SDK/GD32VW55x_RELEASE_V1.0.2/MSDK/ble/app\app_adv_mgr.c **** */
 945:C:/Users/stapi/OneDrive/Desktop/GD32VW553/V1_MQTT_OK/GD32VW55X_Wifi_BLE_SDK/GD32VW55x_RELEASE_V1.0.2/MSDK/ble/app\app_adv_mgr.c **** void app_adv_data_update_all(void)
 946:C:/Users/stapi/OneDrive/Desktop/GD32VW553/V1_MQTT_OK/GD32VW55X_Wifi_BLE_SDK/GD32VW55x_RELEASE_V1.0.2/MSDK/ble/app\app_adv_mgr.c **** {
 1974              		.loc 1 946 1 is_stmt 1
 1975              		.cfi_startproc
 1976 0000 17030000 		call	t0,__riscv_save_0
 1976      E7020300 
 1977              		.cfi_offset 1, -4
 1978              		.cfi_def_cfa_offset 16
 947:C:/Users/stapi/OneDrive/Desktop/GD32VW553/V1_MQTT_OK/GD32VW55X_Wifi_BLE_SDK/GD32VW55x_RELEASE_V1.0.2/MSDK/ble/app\app_adv_mgr.c ****     uint8_t i = 0;
 1979              		.loc 1 947 5
 1980              	.LVL131:
 948:C:/Users/stapi/OneDrive/Desktop/GD32VW553/V1_MQTT_OK/GD32VW55X_Wifi_BLE_SDK/GD32VW55x_RELEASE_V1.0.2/MSDK/ble/app\app_adv_mgr.c **** 
 949:C:/Users/stapi/OneDrive/Desktop/GD32VW553/V1_MQTT_OK/GD32VW55X_Wifi_BLE_SDK/GD32VW55x_RELEASE_V1.0.2/MSDK/ble/app\app_adv_mgr.c ****     for (i = 0; i < APP_ADV_SET_NUM; i++) {
 1981              		.loc 1 949 5
 1982              		.loc 1 949 17
 950:C:/Users/stapi/OneDrive/Desktop/GD32VW553/V1_MQTT_OK/GD32VW55X_Wifi_BLE_SDK/GD32VW55x_RELEASE_V1.0.2/MSDK/ble/app\app_adv_mgr.c ****         app_adv_data_update(i);
 1983              		.loc 1 950 9
 1984 0008 0145     		li	a0,0
 1985 000a 97000000 		call	app_adv_data_update
 1985      E7800000 
 1986              	.LVL132:
 949:C:/Users/stapi/OneDrive/Desktop/GD32VW553/V1_MQTT_OK/GD32VW55X_Wifi_BLE_SDK/GD32VW55x_RELEASE_V1.0.2/MSDK/ble/app\app_adv_mgr.c ****         app_adv_data_update(i);
 1987              		.loc 1 949 38
 949:C:/Users/stapi/OneDrive/Desktop/GD32VW553/V1_MQTT_OK/GD32VW55X_Wifi_BLE_SDK/GD32VW55x_RELEASE_V1.0.2/MSDK/ble/app\app_adv_mgr.c ****         app_adv_data_update(i);
 1988              		.loc 1 949 17
 1989              		.loc 1 950 9
 1990 0012 0545     		li	a0,1
 1991 0014 97000000 		call	app_adv_data_update
 1991      E7800000 
 1992              	.LVL133:
 949:C:/Users/stapi/OneDrive/Desktop/GD32VW553/V1_MQTT_OK/GD32VW55X_Wifi_BLE_SDK/GD32VW55x_RELEASE_V1.0.2/MSDK/ble/app\app_adv_mgr.c ****         app_adv_data_update(i);
 1993              		.loc 1 949 38
 949:C:/Users/stapi/OneDrive/Desktop/GD32VW553/V1_MQTT_OK/GD32VW55X_Wifi_BLE_SDK/GD32VW55x_RELEASE_V1.0.2/MSDK/ble/app\app_adv_mgr.c ****         app_adv_data_update(i);
 1994              		.loc 1 949 17
 951:C:/Users/stapi/OneDrive/Desktop/GD32VW553/V1_MQTT_OK/GD32VW55X_Wifi_BLE_SDK/GD32VW55x_RELEASE_V1.0.2/MSDK/ble/app\app_adv_mgr.c ****     }
 952:C:/Users/stapi/OneDrive/Desktop/GD32VW553/V1_MQTT_OK/GD32VW55X_Wifi_BLE_SDK/GD32VW55x_RELEASE_V1.0.2/MSDK/ble/app\app_adv_mgr.c **** }
 1995              		.loc 1 952 1 is_stmt 0
 1996 001c 17030000 		tail	__riscv_restore_0
 1996      67000300 
 1997              		.cfi_restore 1
 1998              		.cfi_def_cfa_offset 0
 1999              		.cfi_endproc
 2000              	.LFE11:
 2002              		.section	.text.app_set_adv_data_type,"ax",@progbits
 2003              		.align	1
 2004              		.globl	app_set_adv_data_type
 2006              	app_set_adv_data_type:
 2007              	.LFB12:
 953:C:/Users/stapi/OneDrive/Desktop/GD32VW553/V1_MQTT_OK/GD32VW55X_Wifi_BLE_SDK/GD32VW55x_RELEASE_V1.0.2/MSDK/ble/app\app_adv_mgr.c **** 
 954:C:/Users/stapi/OneDrive/Desktop/GD32VW553/V1_MQTT_OK/GD32VW55X_Wifi_BLE_SDK/GD32VW55x_RELEASE_V1.0.2/MSDK/ble/app\app_adv_mgr.c **** /*!
 955:C:/Users/stapi/OneDrive/Desktop/GD32VW553/V1_MQTT_OK/GD32VW55X_Wifi_BLE_SDK/GD32VW55x_RELEASE_V1.0.2/MSDK/ble/app\app_adv_mgr.c ****     \brief      Choose advertising data to be used
 956:C:/Users/stapi/OneDrive/Desktop/GD32VW553/V1_MQTT_OK/GD32VW55X_Wifi_BLE_SDK/GD32VW55x_RELEASE_V1.0.2/MSDK/ble/app\app_adv_mgr.c ****     \param[in]  adv_data_type: advertising data type index
 957:C:/Users/stapi/OneDrive/Desktop/GD32VW553/V1_MQTT_OK/GD32VW55X_Wifi_BLE_SDK/GD32VW55x_RELEASE_V1.0.2/MSDK/ble/app\app_adv_mgr.c ****     \param[out] none
 958:C:/Users/stapi/OneDrive/Desktop/GD32VW553/V1_MQTT_OK/GD32VW55X_Wifi_BLE_SDK/GD32VW55x_RELEASE_V1.0.2/MSDK/ble/app\app_adv_mgr.c ****     \retval     none
 959:C:/Users/stapi/OneDrive/Desktop/GD32VW553/V1_MQTT_OK/GD32VW55X_Wifi_BLE_SDK/GD32VW55x_RELEASE_V1.0.2/MSDK/ble/app\app_adv_mgr.c **** */
 960:C:/Users/stapi/OneDrive/Desktop/GD32VW553/V1_MQTT_OK/GD32VW55X_Wifi_BLE_SDK/GD32VW55x_RELEASE_V1.0.2/MSDK/ble/app\app_adv_mgr.c **** void app_set_adv_data_type(uint8_t adv_data_type)
 961:C:/Users/stapi/OneDrive/Desktop/GD32VW553/V1_MQTT_OK/GD32VW55X_Wifi_BLE_SDK/GD32VW55x_RELEASE_V1.0.2/MSDK/ble/app\app_adv_mgr.c **** {
 2008              		.loc 1 961 1 is_stmt 1
 2009              		.cfi_startproc
 2010              	.LVL134:
 962:C:/Users/stapi/OneDrive/Desktop/GD32VW553/V1_MQTT_OK/GD32VW55X_Wifi_BLE_SDK/GD32VW55x_RELEASE_V1.0.2/MSDK/ble/app\app_adv_mgr.c ****     app_adv_env.adv_data_type = adv_data_type;
 2011              		.loc 1 962 5
 2012              		.loc 1 962 31 is_stmt 0
 2013 0000 B7070000 		lui	a5,%hi(.LANCHOR0+1)
 2014 0004 A380A700 		sb	a0,%lo(.LANCHOR0+1)(a5)
 963:C:/Users/stapi/OneDrive/Desktop/GD32VW553/V1_MQTT_OK/GD32VW55X_Wifi_BLE_SDK/GD32VW55x_RELEASE_V1.0.2/MSDK/ble/app\app_adv_mgr.c **** }
 2015              		.loc 1 963 1
 2016 0008 8280     		ret
 2017              		.cfi_endproc
 2018              	.LFE12:
 2020              		.section	.text.app_adv_mgr_reset,"ax",@progbits
 2021              		.align	1
 2022              		.globl	app_adv_mgr_reset
 2024              	app_adv_mgr_reset:
 2025              	.LFB13:
 964:C:/Users/stapi/OneDrive/Desktop/GD32VW553/V1_MQTT_OK/GD32VW55X_Wifi_BLE_SDK/GD32VW55x_RELEASE_V1.0.2/MSDK/ble/app\app_adv_mgr.c **** 
 965:C:/Users/stapi/OneDrive/Desktop/GD32VW553/V1_MQTT_OK/GD32VW55X_Wifi_BLE_SDK/GD32VW55x_RELEASE_V1.0.2/MSDK/ble/app\app_adv_mgr.c **** /*!
 966:C:/Users/stapi/OneDrive/Desktop/GD32VW553/V1_MQTT_OK/GD32VW55X_Wifi_BLE_SDK/GD32VW55x_RELEASE_V1.0.2/MSDK/ble/app\app_adv_mgr.c ****     \brief      Reset APP advertising manager module
 967:C:/Users/stapi/OneDrive/Desktop/GD32VW553/V1_MQTT_OK/GD32VW55X_Wifi_BLE_SDK/GD32VW55x_RELEASE_V1.0.2/MSDK/ble/app\app_adv_mgr.c ****     \param[in]  none
 968:C:/Users/stapi/OneDrive/Desktop/GD32VW553/V1_MQTT_OK/GD32VW55X_Wifi_BLE_SDK/GD32VW55x_RELEASE_V1.0.2/MSDK/ble/app\app_adv_mgr.c ****     \param[out] none
 969:C:/Users/stapi/OneDrive/Desktop/GD32VW553/V1_MQTT_OK/GD32VW55X_Wifi_BLE_SDK/GD32VW55x_RELEASE_V1.0.2/MSDK/ble/app\app_adv_mgr.c ****     \retval     none
 970:C:/Users/stapi/OneDrive/Desktop/GD32VW553/V1_MQTT_OK/GD32VW55X_Wifi_BLE_SDK/GD32VW55x_RELEASE_V1.0.2/MSDK/ble/app\app_adv_mgr.c **** */
 971:C:/Users/stapi/OneDrive/Desktop/GD32VW553/V1_MQTT_OK/GD32VW55X_Wifi_BLE_SDK/GD32VW55x_RELEASE_V1.0.2/MSDK/ble/app\app_adv_mgr.c **** void app_adv_mgr_reset(void)
 972:C:/Users/stapi/OneDrive/Desktop/GD32VW553/V1_MQTT_OK/GD32VW55X_Wifi_BLE_SDK/GD32VW55x_RELEASE_V1.0.2/MSDK/ble/app\app_adv_mgr.c **** {
 2026              		.loc 1 972 1 is_stmt 1
 2027              		.cfi_startproc
 2028 0000 17030000 		call	t0,__riscv_save_1
 2028      E7020300 
 2029              		.cfi_offset 8, -8
 2030              		.cfi_offset 1, -4
 2031              		.cfi_def_cfa_offset 16
 973:C:/Users/stapi/OneDrive/Desktop/GD32VW553/V1_MQTT_OK/GD32VW55X_Wifi_BLE_SDK/GD32VW55x_RELEASE_V1.0.2/MSDK/ble/app\app_adv_mgr.c ****     uint8_t i;
 2032              		.loc 1 973 5
 974:C:/Users/stapi/OneDrive/Desktop/GD32VW553/V1_MQTT_OK/GD32VW55X_Wifi_BLE_SDK/GD32VW55x_RELEASE_V1.0.2/MSDK/ble/app\app_adv_mgr.c ****     memset(app_adv_env.adv_set, 0, APP_ADV_SET_NUM * sizeof(app_adv_set_t));
 2033              		.loc 1 974 5
 2034 0008 37040000 		lui	s0,%hi(.LANCHOR0)
 2035 000c 13040400 		addi	s0,s0,%lo(.LANCHOR0)
 2036 0010 13060003 		li	a2,48
 2037 0014 8145     		li	a1,0
 2038 0016 13054400 		addi	a0,s0,4
 2039 001a 97000000 		call	memset
 2039      E7800000 
 2040              	.LVL135:
 975:C:/Users/stapi/OneDrive/Desktop/GD32VW553/V1_MQTT_OK/GD32VW55X_Wifi_BLE_SDK/GD32VW55x_RELEASE_V1.0.2/MSDK/ble/app\app_adv_mgr.c ****     for (i = 0; i < APP_ADV_SET_NUM; i++) {
 2041              		.loc 1 975 5
 2042              		.loc 1 975 17
 976:C:/Users/stapi/OneDrive/Desktop/GD32VW553/V1_MQTT_OK/GD32VW55X_Wifi_BLE_SDK/GD32VW55x_RELEASE_V1.0.2/MSDK/ble/app\app_adv_mgr.c ****         app_adv_env.adv_set[i].idx = ADV_INVALID_IDX;
 2043              		.loc 1 976 9
 2044              		.loc 1 976 36 is_stmt 0
 2045 0022 7D57     		li	a4,-1
 977:C:/Users/stapi/OneDrive/Desktop/GD32VW553/V1_MQTT_OK/GD32VW55X_Wifi_BLE_SDK/GD32VW55x_RELEASE_V1.0.2/MSDK/ble/app\app_adv_mgr.c ****         app_adv_env.adv_set[i].type = DEFAULT_ADV_TYPE;
 978:C:/Users/stapi/OneDrive/Desktop/GD32VW553/V1_MQTT_OK/GD32VW55X_Wifi_BLE_SDK/GD32VW55x_RELEASE_V1.0.2/MSDK/ble/app\app_adv_mgr.c ****         app_adv_env.adv_set[i].prop = 0x0000;
 979:C:/Users/stapi/OneDrive/Desktop/GD32VW553/V1_MQTT_OK/GD32VW55X_Wifi_BLE_SDK/GD32VW55x_RELEASE_V1.0.2/MSDK/ble/app\app_adv_mgr.c ****         app_adv_env.adv_set[i].pri_phy = BLE_GAP_PHY_1MBPS;
 2046              		.loc 1 979 40
 2047 0024 93071010 		li	a5,257
 976:C:/Users/stapi/OneDrive/Desktop/GD32VW553/V1_MQTT_OK/GD32VW55X_Wifi_BLE_SDK/GD32VW55x_RELEASE_V1.0.2/MSDK/ble/app\app_adv_mgr.c ****         app_adv_env.adv_set[i].idx = ADV_INVALID_IDX;
 2048              		.loc 1 976 36
 2049 0028 2302E400 		sb	a4,4(s0)
 977:C:/Users/stapi/OneDrive/Desktop/GD32VW553/V1_MQTT_OK/GD32VW55X_Wifi_BLE_SDK/GD32VW55x_RELEASE_V1.0.2/MSDK/ble/app\app_adv_mgr.c ****         app_adv_env.adv_set[i].type = DEFAULT_ADV_TYPE;
 2050              		.loc 1 977 9 is_stmt 1
 978:C:/Users/stapi/OneDrive/Desktop/GD32VW553/V1_MQTT_OK/GD32VW55X_Wifi_BLE_SDK/GD32VW55x_RELEASE_V1.0.2/MSDK/ble/app\app_adv_mgr.c ****         app_adv_env.adv_set[i].pri_phy = BLE_GAP_PHY_1MBPS;
 2051              		.loc 1 978 9
 2052              		.loc 1 979 9
 980:C:/Users/stapi/OneDrive/Desktop/GD32VW553/V1_MQTT_OK/GD32VW55X_Wifi_BLE_SDK/GD32VW55x_RELEASE_V1.0.2/MSDK/ble/app\app_adv_mgr.c ****         app_adv_env.adv_set[i].sec_phy = BLE_GAP_PHY_1MBPS;
 2053              		.loc 1 980 9
 979:C:/Users/stapi/OneDrive/Desktop/GD32VW553/V1_MQTT_OK/GD32VW55X_Wifi_BLE_SDK/GD32VW55x_RELEASE_V1.0.2/MSDK/ble/app\app_adv_mgr.c ****         app_adv_env.adv_set[i].sec_phy = BLE_GAP_PHY_1MBPS;
 2054              		.loc 1 979 40 is_stmt 0
 2055 002c 2314F400 		sh	a5,8(s0)
 981:C:/Users/stapi/OneDrive/Desktop/GD32VW553/V1_MQTT_OK/GD32VW55X_Wifi_BLE_SDK/GD32VW55x_RELEASE_V1.0.2/MSDK/ble/app\app_adv_mgr.c ****         app_adv_env.adv_set[i].wl_enable = false;
 2056              		.loc 1 981 9 is_stmt 1
 982:C:/Users/stapi/OneDrive/Desktop/GD32VW553/V1_MQTT_OK/GD32VW55X_Wifi_BLE_SDK/GD32VW55x_RELEASE_V1.0.2/MSDK/ble/app\app_adv_mgr.c ****         app_adv_env.adv_set[i].own_addr_type = BLE_GAP_LOCAL_ADDR_STATIC;
 2057              		.loc 1 982 9
 983:C:/Users/stapi/OneDrive/Desktop/GD32VW553/V1_MQTT_OK/GD32VW55X_Wifi_BLE_SDK/GD32VW55x_RELEASE_V1.0.2/MSDK/ble/app\app_adv_mgr.c ****         app_adv_env.adv_set[i].remove_after_stop = false;
 2058              		.loc 1 983 9
 975:C:/Users/stapi/OneDrive/Desktop/GD32VW553/V1_MQTT_OK/GD32VW55X_Wifi_BLE_SDK/GD32VW55x_RELEASE_V1.0.2/MSDK/ble/app\app_adv_mgr.c ****         app_adv_env.adv_set[i].idx = ADV_INVALID_IDX;
 2059              		.loc 1 975 38
 2060              	.LVL136:
 975:C:/Users/stapi/OneDrive/Desktop/GD32VW553/V1_MQTT_OK/GD32VW55X_Wifi_BLE_SDK/GD32VW55x_RELEASE_V1.0.2/MSDK/ble/app\app_adv_mgr.c ****         app_adv_env.adv_set[i].idx = ADV_INVALID_IDX;
 2061              		.loc 1 975 17
 976:C:/Users/stapi/OneDrive/Desktop/GD32VW553/V1_MQTT_OK/GD32VW55X_Wifi_BLE_SDK/GD32VW55x_RELEASE_V1.0.2/MSDK/ble/app\app_adv_mgr.c ****         app_adv_env.adv_set[i].type = DEFAULT_ADV_TYPE;
 2062              		.loc 1 976 9
 976:C:/Users/stapi/OneDrive/Desktop/GD32VW553/V1_MQTT_OK/GD32VW55X_Wifi_BLE_SDK/GD32VW55x_RELEASE_V1.0.2/MSDK/ble/app\app_adv_mgr.c ****         app_adv_env.adv_set[i].type = DEFAULT_ADV_TYPE;
 2063              		.loc 1 976 36 is_stmt 0
 2064 0030 230EE400 		sb	a4,28(s0)
 977:C:/Users/stapi/OneDrive/Desktop/GD32VW553/V1_MQTT_OK/GD32VW55X_Wifi_BLE_SDK/GD32VW55x_RELEASE_V1.0.2/MSDK/ble/app\app_adv_mgr.c ****         app_adv_env.adv_set[i].prop = 0x0000;
 2065              		.loc 1 977 9 is_stmt 1
 978:C:/Users/stapi/OneDrive/Desktop/GD32VW553/V1_MQTT_OK/GD32VW55X_Wifi_BLE_SDK/GD32VW55x_RELEASE_V1.0.2/MSDK/ble/app\app_adv_mgr.c ****         app_adv_env.adv_set[i].pri_phy = BLE_GAP_PHY_1MBPS;
 2066              		.loc 1 978 9
 979:C:/Users/stapi/OneDrive/Desktop/GD32VW553/V1_MQTT_OK/GD32VW55X_Wifi_BLE_SDK/GD32VW55x_RELEASE_V1.0.2/MSDK/ble/app\app_adv_mgr.c ****         app_adv_env.adv_set[i].sec_phy = BLE_GAP_PHY_1MBPS;
 2067              		.loc 1 979 9
 980:C:/Users/stapi/OneDrive/Desktop/GD32VW553/V1_MQTT_OK/GD32VW55X_Wifi_BLE_SDK/GD32VW55x_RELEASE_V1.0.2/MSDK/ble/app\app_adv_mgr.c ****         app_adv_env.adv_set[i].wl_enable = false;
 2068              		.loc 1 980 9
 979:C:/Users/stapi/OneDrive/Desktop/GD32VW553/V1_MQTT_OK/GD32VW55X_Wifi_BLE_SDK/GD32VW55x_RELEASE_V1.0.2/MSDK/ble/app\app_adv_mgr.c ****         app_adv_env.adv_set[i].sec_phy = BLE_GAP_PHY_1MBPS;
 2069              		.loc 1 979 40 is_stmt 0
 2070 0034 2310F402 		sh	a5,32(s0)
 981:C:/Users/stapi/OneDrive/Desktop/GD32VW553/V1_MQTT_OK/GD32VW55X_Wifi_BLE_SDK/GD32VW55x_RELEASE_V1.0.2/MSDK/ble/app\app_adv_mgr.c ****         app_adv_env.adv_set[i].own_addr_type = BLE_GAP_LOCAL_ADDR_STATIC;
 2071              		.loc 1 981 9 is_stmt 1
 982:C:/Users/stapi/OneDrive/Desktop/GD32VW553/V1_MQTT_OK/GD32VW55X_Wifi_BLE_SDK/GD32VW55x_RELEASE_V1.0.2/MSDK/ble/app\app_adv_mgr.c ****         app_adv_env.adv_set[i].remove_after_stop = false;
 2072              		.loc 1 982 9
 2073              		.loc 1 983 9
 975:C:/Users/stapi/OneDrive/Desktop/GD32VW553/V1_MQTT_OK/GD32VW55X_Wifi_BLE_SDK/GD32VW55x_RELEASE_V1.0.2/MSDK/ble/app\app_adv_mgr.c ****         app_adv_env.adv_set[i].idx = ADV_INVALID_IDX;
 2074              		.loc 1 975 38
 2075              	.LVL137:
 975:C:/Users/stapi/OneDrive/Desktop/GD32VW553/V1_MQTT_OK/GD32VW55X_Wifi_BLE_SDK/GD32VW55x_RELEASE_V1.0.2/MSDK/ble/app\app_adv_mgr.c ****         app_adv_env.adv_set[i].idx = ADV_INVALID_IDX;
 2076              		.loc 1 975 17
 984:C:/Users/stapi/OneDrive/Desktop/GD32VW553/V1_MQTT_OK/GD32VW55X_Wifi_BLE_SDK/GD32VW55x_RELEASE_V1.0.2/MSDK/ble/app\app_adv_mgr.c ****     }
 985:C:/Users/stapi/OneDrive/Desktop/GD32VW553/V1_MQTT_OK/GD32VW55X_Wifi_BLE_SDK/GD32VW55x_RELEASE_V1.0.2/MSDK/ble/app\app_adv_mgr.c **** }
 2077              		.loc 1 985 1 is_stmt 0
 2078 0038 17030000 		tail	__riscv_restore_1
 2078      67000300 
 2079              		.cfi_restore 8
 2080              		.cfi_restore 1
 2081              		.cfi_def_cfa_offset 0
 2082              		.cfi_endproc
 2083              	.LFE13:
 2085              		.section	.text.app_adv_mgr_init,"ax",@progbits
 2086              		.align	1
 2087              		.globl	app_adv_mgr_init
 2089              	app_adv_mgr_init:
 2090              	.LFB14:
 986:C:/Users/stapi/OneDrive/Desktop/GD32VW553/V1_MQTT_OK/GD32VW55X_Wifi_BLE_SDK/GD32VW55x_RELEASE_V1.0.2/MSDK/ble/app\app_adv_mgr.c **** 
 987:C:/Users/stapi/OneDrive/Desktop/GD32VW553/V1_MQTT_OK/GD32VW55X_Wifi_BLE_SDK/GD32VW55x_RELEASE_V1.0.2/MSDK/ble/app\app_adv_mgr.c **** /*!
 988:C:/Users/stapi/OneDrive/Desktop/GD32VW553/V1_MQTT_OK/GD32VW55X_Wifi_BLE_SDK/GD32VW55x_RELEASE_V1.0.2/MSDK/ble/app\app_adv_mgr.c ****     \brief      Init APP advertising manager module
 989:C:/Users/stapi/OneDrive/Desktop/GD32VW553/V1_MQTT_OK/GD32VW55X_Wifi_BLE_SDK/GD32VW55x_RELEASE_V1.0.2/MSDK/ble/app\app_adv_mgr.c ****     \param[in]  none
 990:C:/Users/stapi/OneDrive/Desktop/GD32VW553/V1_MQTT_OK/GD32VW55X_Wifi_BLE_SDK/GD32VW55x_RELEASE_V1.0.2/MSDK/ble/app\app_adv_mgr.c ****     \param[out] none
 991:C:/Users/stapi/OneDrive/Desktop/GD32VW553/V1_MQTT_OK/GD32VW55X_Wifi_BLE_SDK/GD32VW55x_RELEASE_V1.0.2/MSDK/ble/app\app_adv_mgr.c ****     \retval     none
 992:C:/Users/stapi/OneDrive/Desktop/GD32VW553/V1_MQTT_OK/GD32VW55X_Wifi_BLE_SDK/GD32VW55x_RELEASE_V1.0.2/MSDK/ble/app\app_adv_mgr.c **** */
 993:C:/Users/stapi/OneDrive/Desktop/GD32VW553/V1_MQTT_OK/GD32VW55X_Wifi_BLE_SDK/GD32VW55x_RELEASE_V1.0.2/MSDK/ble/app\app_adv_mgr.c **** void app_adv_mgr_init(void)
 994:C:/Users/stapi/OneDrive/Desktop/GD32VW553/V1_MQTT_OK/GD32VW55X_Wifi_BLE_SDK/GD32VW55x_RELEASE_V1.0.2/MSDK/ble/app\app_adv_mgr.c **** {
 2091              		.loc 1 994 1 is_stmt 1
 2092              		.cfi_startproc
 995:C:/Users/stapi/OneDrive/Desktop/GD32VW553/V1_MQTT_OK/GD32VW55X_Wifi_BLE_SDK/GD32VW55x_RELEASE_V1.0.2/MSDK/ble/app\app_adv_mgr.c ****     app_adv_mgr_reset();
 2093              		.loc 1 995 5
 2094 0000 17030000 		tail	app_adv_mgr_reset
 2094      67000300 
 2095              	.LVL138:
 2096              		.cfi_endproc
 2097              	.LFE14:
 2099              		.section	.text.app_adv_mgr_deinit,"ax",@progbits
 2100              		.align	1
 2101              		.globl	app_adv_mgr_deinit
 2103              	app_adv_mgr_deinit:
 2104              	.LFB17:
 2105              		.cfi_startproc
 2106 0000 17030000 		tail	app_adv_mgr_reset
 2106      67000300 
 2107              		.cfi_endproc
 2108              	.LFE17:
 2110              		.section	.bss.app_adv_env,"aw",@nobits
 2111              		.align	2
 2112              		.set	.LANCHOR0,. + 0
 2115              	app_adv_env:
 2116 0000 00000000 		.zero	52
 2116      00000000 
 2116      00000000 
 2116      00000000 
 2116      00000000 
 2117              		.section	.data.bqb_adv_data_1,"aw"
 2118              		.align	2
 2119              		.set	.LANCHOR3,. + 0
 2122              	bqb_adv_data_1:
 2123 0000 03030A18 		.string	"\003\003\n\030\002\n\304\003\032\240"
 2123      020AC403 
 2123      1AA000
 2124 000b 03160102 		.string	"\003\026\001\002\005\022\020"
 2124      05121000 
 2125 0013 00       		.string	""
 2126 0014 0103140A 		.ascii	"\001\003\024\n\030"
 2126      18
 2127              		.section	.data.bqb_adv_data_2,"aw"
 2128              		.align	2
 2129              		.set	.LANCHOR4,. + 0
 2132              	bqb_adv_data_2:
 2133 0000 050300   		.string	"\005\003"
 2134 0003 1801180D 		.string	"\030\001\030\r\tPTS-GAP-06B8\003\031"
 2134      09505453 
 2134      2D474150 
 2134      2D303642 
 2134      38031900 
 2135 0017 00       		.string	""
 2136              		.section	.data.bqb_adv_data_3,"aw"
 2137              		.align	2
 2138              		.set	.LANCHOR7,. + 0
 2141              	bqb_adv_data_3:
 2142 0000 07171122 		.string	"\007\027\021\"3DUf\007\030\021\"3DUf\005/"
 2142      33445566 
 2142      07181122 
 2142      33445566 
 2142      052F00
 2143 0013 00       		.string	""
 2144 0014 1100     		.string	"\021"
 2145              		.section	.data.bqb_adv_data_4,"aw"
 2146              		.align	2
 2147              		.set	.LANCHOR8,. + 0
 2150              	bqb_adv_data_4:
 2151 0000 1B2400   		.string	"\033$"
 2152 0003 01687474 		.ascii	"\001https://www.bluetoot.com"
 2152      70733A2F 
 2152      2F777777 
 2152      2E626C75 
 2152      65746F6F 
 2153              		.section	.data.bqb_per_adv_data_2,"aw"
 2154              		.align	2
 2155              		.set	.LANCHOR6,. + 0
 2158              	bqb_per_adv_data_2:
 2159 0000 02010405 		.string	"\002\001\004\005\003"
 2159      0300
 2160 0006 1801180D 		.string	"\030\001\030\r\tPTS-GAP-06B8\003\031"
 2160      09505453 
 2160      2D474150 
 2160      2D303642 
 2160      38031900 
 2161 001a 00       		.string	""
 2162              		.section	.data.bqb_scan_rsp_data_2,"aw"
 2163              		.align	2
 2164              		.set	.LANCHOR5,. + 0
 2167              	bqb_scan_rsp_data_2:
 2168 0000 02010405 		.string	"\002\001\004\005\003"
 2168      0300
 2169 0006 1801180D 		.string	"\030\001\030\r\tPTS-GAP-06B8\003\031"
 2169      09505453 
 2169      2D474150 
 2169      2D303642 
 2169      38031900 
 2170 001a 00       		.string	""
 2171              		.section	.data.per_data_1,"aw"
 2172              		.align	2
 2173              		.set	.LANCHOR2,. + 0
 2176              	per_data_1:
 2177 0000 33165118 		.string	"3\026Q\030@\234"
 2177      409C00
 2178 0007 01020600 		.string	"\001\002\006"
 2179 000b 00       		.string	""
 2180 000c 00       		.string	""
 2181 000d 00       		.string	""
 2182 000e 0D020108 		.string	"\r\002\001\b\002\002\001\003\004x"
 2182      02020103 
 2182      047800
 2183 0019 02050107 		.string	"\002\005\001\007\003\002\004"
 2183      03020400 
 2184 0021 02048001 		.string	"\002\004\200\001\006\005\003"
 2184      06050300 
 2185 0029 0400     		.string	"\004"
 2186 002b 00       		.string	""
 2187 002c 02060503 		.string	"\002\006\005\003"
 2187      00
 2188 0031 0800     		.string	"\b"
 2189 0033 00       		.string	""
 2190              		.section	.data.url,"aw"
 2191              		.align	2
 2192              		.set	.LANCHOR11,. + 0
 2195              	url:
 2196 0000 68747470 		.ascii	"https://www.bluetooth.com"
 2196      733A2F2F 
 2196      7777772E 
 2196      626C7565 
 2196      746F6F74 
 2197              		.section	.sdata.adv_data_1,"aw"
 2198              		.align	2
 2199              		.set	.LANCHOR1,. + 0
 2202              	adv_data_1:
 2203 0000 06165218 		.ascii	"\006\026R\030\0306\232"
 2203      18369A
 2204              		.section	.sdata.adv_data_hogp,"aw"
 2205              		.align	2
 2206              		.set	.LANCHOR9,. + 0
 2209              	adv_data_hogp:
 2210 0000 03198001 		.ascii	"\003\031\200\001\003\002\022\030"
 2210      03021218 
 2211              		.section	.sdata.service_data,"aw"
 2212              		.align	2
 2213              		.set	.LANCHOR10,. + 0
 2216              	service_data:
 2217 0000 00       		.string	""
 2218 0001 11223344 		.ascii	"\021\"3DUfw"
 2218      556677
 2219              		.text
 2220              	.Letext0:
 2221              		.file 2 "c:\\users\\stapi\\onedrive\\desktop\\gd32vw553\\embeddedbuilder_v1.4.7.26843\\tools\\nucl
 2222              		.file 3 "c:\\users\\stapi\\onedrive\\desktop\\gd32vw553\\embeddedbuilder_v1.4.7.26843\\tools\\nucl
 2223              		.file 4 "..\\..\\..\\..\\blesw\\src\\export/ble_types.h"
 2224              		.file 5 "..\\..\\..\\..\\blesw\\src\\export/ble_error.h"
 2225              		.file 6 "..\\..\\..\\..\\blesw\\src\\export/ble_gap.h"
 2226              		.file 7 "C:/Users/stapi/OneDrive/Desktop/GD32VW553/V1_MQTT_OK/GD32VW55X_Wifi_BLE_SDK/GD32VW55x_REL
 2227              		.file 8 "..\\..\\..\\..\\blesw\\src\\export/ble_adv_data.h"
 2228              		.file 9 "..\\..\\..\\..\\blesw\\src\\export/ble_adv.h"
 2229              		.file 10 "..\\..\\..\\..\\util\\include/dbg_print.h"
 2230              		.file 11 "..\\..\\..\\..\\rtos\\rtos_wrapper/wrapper_os.h"
 2231              		.file 12 "<built-in>"
 2232              		.file 13 "..\\..\\..\\..\\util\\include/debug_print.h"
 2233              		.file 14 "C:/Users/stapi/OneDrive/Desktop/GD32VW553/V1_MQTT_OK/GD32VW55X_Wifi_BLE_SDK/GD32VW55x_RE
 2234              		.file 15 "c:\\users\\stapi\\onedrive\\desktop\\gd32vw553\\embeddedbuilder_v1.4.7.26843\\tools\\nuc
DEFINED SYMBOLS
                            *ABS*:0000000000000000 app_adv_mgr.c
C:\Users\stapi\AppData\Local\Temp\cc81lQEz.s:12     .text.app_build_adv_data:0000000000000000 app_build_adv_data
C:\Users\stapi\AppData\Local\Temp\cc81lQEz.s:16     .text.app_build_adv_data:0000000000000000 .L0 
C:\Users\stapi\AppData\Local\Temp\cc81lQEz.s:18     .text.app_build_adv_data:0000000000000000 .L0 
C:\Users\stapi\AppData\Local\Temp\cc81lQEz.s:19     .text.app_build_adv_data:0000000000000008 .L0 
C:\Users\stapi\AppData\Local\Temp\cc81lQEz.s:20     .text.app_build_adv_data:0000000000000008 .L0 
C:\Users\stapi\AppData\Local\Temp\cc81lQEz.s:21     .text.app_build_adv_data:0000000000000008 .L0 
C:\Users\stapi\AppData\Local\Temp\cc81lQEz.s:22     .text.app_build_adv_data:0000000000000008 .L0 
C:\Users\stapi\AppData\Local\Temp\cc81lQEz.s:23     .text.app_build_adv_data:0000000000000008 .L0 
C:\Users\stapi\AppData\Local\Temp\cc81lQEz.s:24     .text.app_build_adv_data:0000000000000008 .L0 
C:\Users\stapi\AppData\Local\Temp\cc81lQEz.s:25     .text.app_build_adv_data:0000000000000008 .L0 
C:\Users\stapi\AppData\Local\Temp\cc81lQEz.s:26     .text.app_build_adv_data:0000000000000008 .L0 
C:\Users\stapi\AppData\Local\Temp\cc81lQEz.s:27     .text.app_build_adv_data:0000000000000008 .L0 
C:\Users\stapi\AppData\Local\Temp\cc81lQEz.s:28     .text.app_build_adv_data:0000000000000008 .L0 
C:\Users\stapi\AppData\Local\Temp\cc81lQEz.s:29     .text.app_build_adv_data:0000000000000008 .L0 
C:\Users\stapi\AppData\Local\Temp\cc81lQEz.s:30     .text.app_build_adv_data:0000000000000008 .L0 
C:\Users\stapi\AppData\Local\Temp\cc81lQEz.s:31     .text.app_build_adv_data:0000000000000008 .L0 
C:\Users\stapi\AppData\Local\Temp\cc81lQEz.s:34     .text.app_build_adv_data:0000000000000008 .L0 
C:\Users\stapi\AppData\Local\Temp\cc81lQEz.s:35     .text.app_build_adv_data:0000000000000008 .L0 
C:\Users\stapi\AppData\Local\Temp\cc81lQEz.s:36     .text.app_build_adv_data:0000000000000008 .L0 
C:\Users\stapi\AppData\Local\Temp\cc81lQEz.s:37     .text.app_build_adv_data:0000000000000008 .L0 
C:\Users\stapi\AppData\Local\Temp\cc81lQEz.s:38     .text.app_build_adv_data:0000000000000008 .L0 
C:\Users\stapi\AppData\Local\Temp\cc81lQEz.s:39     .text.app_build_adv_data:0000000000000008 .L0 
C:\Users\stapi\AppData\Local\Temp\cc81lQEz.s:40     .text.app_build_adv_data:000000000000000a .L0 
C:\Users\stapi\AppData\Local\Temp\cc81lQEz.s:42     .text.app_build_adv_data:000000000000000a .L0 
C:\Users\stapi\AppData\Local\Temp\cc81lQEz.s:44     .text.app_build_adv_data:000000000000000c .L0 
C:\Users\stapi\AppData\Local\Temp\cc81lQEz.s:45     .text.app_build_adv_data:000000000000000c .L0 
C:\Users\stapi\AppData\Local\Temp\cc81lQEz.s:46     .text.app_build_adv_data:000000000000000c .L0 
C:\Users\stapi\AppData\Local\Temp\cc81lQEz.s:49     .text.app_build_adv_data:0000000000000010 .L0 
C:\Users\stapi\AppData\Local\Temp\cc81lQEz.s:51     .text.app_build_adv_data:0000000000000012 .L0 
C:\Users\stapi\AppData\Local\Temp\cc81lQEz.s:57     .text.app_build_adv_data:000000000000001e .L0 
C:\Users\stapi\AppData\Local\Temp\cc81lQEz.s:58     .text.app_build_adv_data:000000000000001e .L0 
C:\Users\stapi\AppData\Local\Temp\cc81lQEz.s:60     .text.app_build_adv_data:0000000000000020 .L0 
C:\Users\stapi\AppData\Local\Temp\cc81lQEz.s:63     .text.app_build_adv_data:0000000000000022 .L0 
C:\Users\stapi\AppData\Local\Temp\cc81lQEz.s:66     .text.app_build_adv_data:0000000000000026 .L0 
C:\Users\stapi\AppData\Local\Temp\cc81lQEz.s:67     .text.app_build_adv_data:0000000000000026 .L0 
C:\Users\stapi\AppData\Local\Temp\cc81lQEz.s:69     .text.app_build_adv_data:0000000000000028 .L0 
C:\Users\stapi\AppData\Local\Temp\cc81lQEz.s:72     .text.app_build_adv_data:000000000000002a .L0 
C:\Users\stapi\AppData\Local\Temp\cc81lQEz.s:75     .text.app_build_adv_data:000000000000002e .L0 
C:\Users\stapi\AppData\Local\Temp\cc81lQEz.s:76     .text.app_build_adv_data:000000000000002e .L0 
C:\Users\stapi\AppData\Local\Temp\cc81lQEz.s:78     .text.app_build_adv_data:0000000000000032 .L0 
C:\Users\stapi\AppData\Local\Temp\cc81lQEz.s:79     .text.app_build_adv_data:0000000000000032 .L0 
C:\Users\stapi\AppData\Local\Temp\cc81lQEz.s:81     .text.app_build_adv_data:0000000000000036 .L0 
C:\Users\stapi\AppData\Local\Temp\cc81lQEz.s:82     .text.app_build_adv_data:0000000000000036 .L0 
C:\Users\stapi\AppData\Local\Temp\cc81lQEz.s:85     .text.app_build_adv_data:000000000000003a .L0 
C:\Users\stapi\AppData\Local\Temp\cc81lQEz.s:87     .text.app_build_adv_data:000000000000003e .L0 
C:\Users\stapi\AppData\Local\Temp\cc81lQEz.s:88     .text.app_build_adv_data:000000000000003e .L0 
C:\Users\stapi\AppData\Local\Temp\cc81lQEz.s:91     .text.app_build_adv_data:0000000000000040 .L0 
C:\Users\stapi\AppData\Local\Temp\cc81lQEz.s:95     .text.app_build_adv_data:0000000000000044 .L0 
C:\Users\stapi\AppData\Local\Temp\cc81lQEz.s:96     .text.app_build_adv_data:0000000000000044 .L0 
C:\Users\stapi\AppData\Local\Temp\cc81lQEz.s:98     .text.app_build_adv_data:0000000000000048 .L0 
C:\Users\stapi\AppData\Local\Temp\cc81lQEz.s:101    .text.app_build_adv_data:000000000000004a .L0 
C:\Users\stapi\AppData\Local\Temp\cc81lQEz.s:102    .text.app_build_adv_data:000000000000004a .L0 
C:\Users\stapi\AppData\Local\Temp\cc81lQEz.s:106    .text.app_build_adv_data:000000000000004e .L0 
C:\Users\stapi\AppData\Local\Temp\cc81lQEz.s:107    .text.app_build_adv_data:000000000000004e .L0 
C:\Users\stapi\AppData\Local\Temp\cc81lQEz.s:111    .text.app_build_adv_data:0000000000000054 .L0 
C:\Users\stapi\AppData\Local\Temp\cc81lQEz.s:112    .text.app_build_adv_data:0000000000000054 .L0 
C:\Users\stapi\AppData\Local\Temp\cc81lQEz.s:117    .text.app_build_adv_data:000000000000005c .L0 
C:\Users\stapi\AppData\Local\Temp\cc81lQEz.s:118    .text.app_build_adv_data:000000000000005e .L0 
C:\Users\stapi\AppData\Local\Temp\cc81lQEz.s:119    .text.app_build_adv_data:000000000000005e .L0 
C:\Users\stapi\AppData\Local\Temp\cc81lQEz.s:121    .text.app_build_adv_data:0000000000000066 .L0 
C:\Users\stapi\AppData\Local\Temp\cc81lQEz.s:122    .text.app_build_adv_data:0000000000000066 .L0 
C:\Users\stapi\AppData\Local\Temp\cc81lQEz.s:123    .text.app_build_adv_data:0000000000000066 .L0 
C:\Users\stapi\AppData\Local\Temp\cc81lQEz.s:124    .text.app_build_adv_data:0000000000000066 .L0 
C:\Users\stapi\AppData\Local\Temp\cc81lQEz.s:125    .text.app_build_adv_data:0000000000000066 .L0 
C:\Users\stapi\AppData\Local\Temp\cc81lQEz.s:126    .text.app_build_adv_data:0000000000000066 .L0 
C:\Users\stapi\AppData\Local\Temp\cc81lQEz.s:127    .text.app_build_adv_data:0000000000000066 .L0 
C:\Users\stapi\AppData\Local\Temp\cc81lQEz.s:128    .text.app_build_adv_data:0000000000000066 .L0 
C:\Users\stapi\AppData\Local\Temp\cc81lQEz.s:129    .text.app_build_adv_data:0000000000000066 .L0 
C:\Users\stapi\AppData\Local\Temp\cc81lQEz.s:130    .text.app_build_adv_data:0000000000000066 .L0 
C:\Users\stapi\AppData\Local\Temp\cc81lQEz.s:131    .text.app_build_adv_data:0000000000000066 .L0 
C:\Users\stapi\AppData\Local\Temp\cc81lQEz.s:132    .text.app_build_adv_data:0000000000000066 .L0 
C:\Users\stapi\AppData\Local\Temp\cc81lQEz.s:133    .text.app_build_adv_data:0000000000000066 .L0 
C:\Users\stapi\AppData\Local\Temp\cc81lQEz.s:136    .text.app_build_adv_data:0000000000000066 .L0 
C:\Users\stapi\AppData\Local\Temp\cc81lQEz.s:138    .text.app_build_adv_data:0000000000000066 .L0 
C:\Users\stapi\AppData\Local\Temp\cc81lQEz.s:139    .text.app_build_adv_data:0000000000000066 .L0 
C:\Users\stapi\AppData\Local\Temp\cc81lQEz.s:141    .text.app_build_adv_data:000000000000006a .L0 
C:\Users\stapi\AppData\Local\Temp\cc81lQEz.s:142    .text.app_build_adv_data:000000000000006a .L0 
C:\Users\stapi\AppData\Local\Temp\cc81lQEz.s:151    .text.app_build_adv_data:0000000000000072 .L0 
C:\Users\stapi\AppData\Local\Temp\cc81lQEz.s:152    .text.app_build_adv_data:0000000000000072 .L0 
C:\Users\stapi\AppData\Local\Temp\cc81lQEz.s:156    .text.app_build_adv_data:000000000000007c .L0 
C:\Users\stapi\AppData\Local\Temp\cc81lQEz.s:157    .text.app_build_adv_data:000000000000007c .L0 
C:\Users\stapi\AppData\Local\Temp\cc81lQEz.s:159    .text.app_build_adv_data:0000000000000080 .L0 
C:\Users\stapi\AppData\Local\Temp\cc81lQEz.s:164    .text.app_build_adv_data:0000000000000088 .L0 
C:\Users\stapi\AppData\Local\Temp\cc81lQEz.s:168    .text.app_build_adv_data:000000000000008c .L0 
C:\Users\stapi\AppData\Local\Temp\cc81lQEz.s:169    .text.app_build_adv_data:000000000000008c .L0 
C:\Users\stapi\AppData\Local\Temp\cc81lQEz.s:171    .text.app_build_adv_data:0000000000000090 .L0 
C:\Users\stapi\AppData\Local\Temp\cc81lQEz.s:173    .text.app_build_adv_data:0000000000000094 .L0 
C:\Users\stapi\AppData\Local\Temp\cc81lQEz.s:174    .text.app_build_adv_data:0000000000000094 .L0 
C:\Users\stapi\AppData\Local\Temp\cc81lQEz.s:177    .text.app_build_adv_data:000000000000009a .L0 
C:\Users\stapi\AppData\Local\Temp\cc81lQEz.s:181    .text.app_build_adv_data:000000000000009c .L0 
C:\Users\stapi\AppData\Local\Temp\cc81lQEz.s:183    .text.app_build_adv_data:000000000000009e .L0 
C:\Users\stapi\AppData\Local\Temp\cc81lQEz.s:185    .text.app_build_adv_data:00000000000000a2 .L0 
C:\Users\stapi\AppData\Local\Temp\cc81lQEz.s:189    .text.app_build_adv_data:00000000000000a8 .L0 
C:\Users\stapi\AppData\Local\Temp\cc81lQEz.s:191    .text.app_build_adv_data:00000000000000ac .L0 
C:\Users\stapi\AppData\Local\Temp\cc81lQEz.s:193    .text.app_build_adv_data:00000000000000ae .L0 
C:\Users\stapi\AppData\Local\Temp\cc81lQEz.s:196    .text.app_build_adv_data:00000000000000b6 .L0 
C:\Users\stapi\AppData\Local\Temp\cc81lQEz.s:197    .text.app_build_adv_data:00000000000000b6 .L0 
C:\Users\stapi\AppData\Local\Temp\cc81lQEz.s:200    .text.app_build_adv_data:00000000000000b8 .L0 
C:\Users\stapi\AppData\Local\Temp\cc81lQEz.s:202    .text.app_build_adv_data:00000000000000ba .L0 
C:\Users\stapi\AppData\Local\Temp\cc81lQEz.s:204    .text.app_build_adv_data:00000000000000be .L0 
C:\Users\stapi\AppData\Local\Temp\cc81lQEz.s:206    .text.app_build_adv_data:00000000000000c0 .L0 
C:\Users\stapi\AppData\Local\Temp\cc81lQEz.s:208    .text.app_build_adv_data:00000000000000c4 .L0 
C:\Users\stapi\AppData\Local\Temp\cc81lQEz.s:210    .text.app_build_adv_data:00000000000000c6 .L0 
C:\Users\stapi\AppData\Local\Temp\cc81lQEz.s:213    .text.app_build_adv_data:00000000000000ca .L0 
C:\Users\stapi\AppData\Local\Temp\cc81lQEz.s:215    .text.app_build_adv_data:00000000000000ca .L0 
C:\Users\stapi\AppData\Local\Temp\cc81lQEz.s:216    .text.app_build_adv_data:00000000000000ca .L0 
C:\Users\stapi\AppData\Local\Temp\cc81lQEz.s:218    .text.app_build_adv_data:00000000000000ce .L0 
C:\Users\stapi\AppData\Local\Temp\cc81lQEz.s:220    .text.app_build_adv_data:00000000000000d2 .L0 
C:\Users\stapi\AppData\Local\Temp\cc81lQEz.s:225    .text.app_build_adv_data:00000000000000d8 .L0 
C:\Users\stapi\AppData\Local\Temp\cc81lQEz.s:226    .text.app_build_adv_data:00000000000000d8 .L0 
C:\Users\stapi\AppData\Local\Temp\cc81lQEz.s:228    .text.app_build_adv_data:00000000000000dc .L0 
C:\Users\stapi\AppData\Local\Temp\cc81lQEz.s:231    .text.app_build_adv_data:00000000000000e0 .L0 
C:\Users\stapi\AppData\Local\Temp\cc81lQEz.s:232    .text.app_build_adv_data:00000000000000e0 .L0 
C:\Users\stapi\AppData\Local\Temp\cc81lQEz.s:235    .text.app_build_adv_data:00000000000000e4 .L0 
C:\Users\stapi\AppData\Local\Temp\cc81lQEz.s:236    .text.app_build_adv_data:00000000000000e4 .L0 
C:\Users\stapi\AppData\Local\Temp\cc81lQEz.s:239    .text.app_build_adv_data:00000000000000e8 .L0 
C:\Users\stapi\AppData\Local\Temp\cc81lQEz.s:240    .text.app_build_adv_data:00000000000000e8 .L0 
C:\Users\stapi\AppData\Local\Temp\cc81lQEz.s:243    .text.app_build_adv_data:00000000000000ec .L0 
C:\Users\stapi\AppData\Local\Temp\cc81lQEz.s:244    .text.app_build_adv_data:00000000000000ec .L0 
C:\Users\stapi\AppData\Local\Temp\cc81lQEz.s:246    .text.app_build_adv_data:00000000000000ee .L0 
C:\Users\stapi\AppData\Local\Temp\cc81lQEz.s:249    .text.app_build_adv_data:00000000000000f0 .L0 
C:\Users\stapi\AppData\Local\Temp\cc81lQEz.s:253    .text.app_build_adv_data:00000000000000f4 .L0 
C:\Users\stapi\AppData\Local\Temp\cc81lQEz.s:254    .text.app_build_adv_data:00000000000000f4 .L0 
C:\Users\stapi\AppData\Local\Temp\cc81lQEz.s:256    .text.app_build_adv_data:00000000000000f8 .L0 
C:\Users\stapi\AppData\Local\Temp\cc81lQEz.s:257    .text.app_build_adv_data:00000000000000f8 .L0 
C:\Users\stapi\AppData\Local\Temp\cc81lQEz.s:258    .text.app_build_adv_data:00000000000000f8 .L0 
C:\Users\stapi\AppData\Local\Temp\cc81lQEz.s:265    .text.app_build_adv_data:0000000000000102 .L0 
C:\Users\stapi\AppData\Local\Temp\cc81lQEz.s:266    .text.app_build_adv_data:0000000000000102 .L0 
C:\Users\stapi\AppData\Local\Temp\cc81lQEz.s:269    .text.app_build_adv_data:000000000000010a .L0 
C:\Users\stapi\AppData\Local\Temp\cc81lQEz.s:272    .text.app_build_adv_data:000000000000010c .L0 
C:\Users\stapi\AppData\Local\Temp\cc81lQEz.s:275    .text.app_build_adv_data:000000000000010e .L0 
C:\Users\stapi\AppData\Local\Temp\cc81lQEz.s:277    .text.app_build_adv_data:0000000000000112 .L0 
C:\Users\stapi\AppData\Local\Temp\cc81lQEz.s:280    .text.app_build_adv_data:0000000000000116 .L0 
C:\Users\stapi\AppData\Local\Temp\cc81lQEz.s:281    .text.app_build_adv_data:0000000000000118 .L0 
C:\Users\stapi\AppData\Local\Temp\cc81lQEz.s:287    .text.app_adv_start:0000000000000000 app_adv_start
C:\Users\stapi\AppData\Local\Temp\cc81lQEz.s:290    .text.app_adv_start:0000000000000000 .L0 
C:\Users\stapi\AppData\Local\Temp\cc81lQEz.s:292    .text.app_adv_start:0000000000000000 .L0 
C:\Users\stapi\AppData\Local\Temp\cc81lQEz.s:293    .text.app_adv_start:0000000000000008 .L0 
C:\Users\stapi\AppData\Local\Temp\cc81lQEz.s:294    .text.app_adv_start:0000000000000008 .L0 
C:\Users\stapi\AppData\Local\Temp\cc81lQEz.s:295    .text.app_adv_start:0000000000000008 .L0 
C:\Users\stapi\AppData\Local\Temp\cc81lQEz.s:296    .text.app_adv_start:0000000000000008 .L0 
C:\Users\stapi\AppData\Local\Temp\cc81lQEz.s:298    .text.app_adv_start:0000000000000008 .L0 
C:\Users\stapi\AppData\Local\Temp\cc81lQEz.s:299    .text.app_adv_start:0000000000000008 .L0 
C:\Users\stapi\AppData\Local\Temp\cc81lQEz.s:300    .text.app_adv_start:0000000000000008 .L0 
C:\Users\stapi\AppData\Local\Temp\cc81lQEz.s:301    .text.app_adv_start:0000000000000008 .L0 
C:\Users\stapi\AppData\Local\Temp\cc81lQEz.s:302    .text.app_adv_start:0000000000000008 .L0 
C:\Users\stapi\AppData\Local\Temp\cc81lQEz.s:303    .text.app_adv_start:000000000000000a .L0 
C:\Users\stapi\AppData\Local\Temp\cc81lQEz.s:305    .text.app_adv_start:000000000000000a .L0 
C:\Users\stapi\AppData\Local\Temp\cc81lQEz.s:307    .text.app_adv_start:000000000000000c .L0 
C:\Users\stapi\AppData\Local\Temp\cc81lQEz.s:309    .text.app_adv_start:000000000000000e .L0 
C:\Users\stapi\AppData\Local\Temp\cc81lQEz.s:312    .text.app_adv_start:0000000000000010 .L0 
C:\Users\stapi\AppData\Local\Temp\cc81lQEz.s:314    .text.app_adv_start:0000000000000014 .L0 
C:\Users\stapi\AppData\Local\Temp\cc81lQEz.s:316    .text.app_adv_start:0000000000000018 .L0 
C:\Users\stapi\AppData\Local\Temp\cc81lQEz.s:318    .text.app_adv_start:000000000000001c .L0 
C:\Users\stapi\AppData\Local\Temp\cc81lQEz.s:320    .text.app_adv_start:000000000000001e .L0 
C:\Users\stapi\AppData\Local\Temp\cc81lQEz.s:321    .text.app_adv_start:000000000000001e .L0 
C:\Users\stapi\AppData\Local\Temp\cc81lQEz.s:322    .text.app_adv_start:000000000000001e .L0 
C:\Users\stapi\AppData\Local\Temp\cc81lQEz.s:323    .text.app_adv_start:000000000000001e .L0 
C:\Users\stapi\AppData\Local\Temp\cc81lQEz.s:324    .text.app_adv_start:000000000000001e .L0 
C:\Users\stapi\AppData\Local\Temp\cc81lQEz.s:325    .text.app_adv_start:000000000000001e .L0 
C:\Users\stapi\AppData\Local\Temp\cc81lQEz.s:328    .text.app_adv_start:0000000000000026 .L0 
C:\Users\stapi\AppData\Local\Temp\cc81lQEz.s:329    .text.app_adv_start:0000000000000026 .L0 
C:\Users\stapi\AppData\Local\Temp\cc81lQEz.s:356    .text.app_adv_start:000000000000004a .L0 
C:\Users\stapi\AppData\Local\Temp\cc81lQEz.s:357    .text.app_adv_start:000000000000004a .L0 
C:\Users\stapi\AppData\Local\Temp\cc81lQEz.s:358    .text.app_adv_start:000000000000004a .L0 
C:\Users\stapi\AppData\Local\Temp\cc81lQEz.s:359    .text.app_adv_start:000000000000004a .L0 
C:\Users\stapi\AppData\Local\Temp\cc81lQEz.s:362    .text.app_adv_start:0000000000000050 .L0 
C:\Users\stapi\AppData\Local\Temp\cc81lQEz.s:363    .text.app_adv_start:0000000000000050 .L0 
C:\Users\stapi\AppData\Local\Temp\cc81lQEz.s:367    .text.app_adv_start:000000000000005a .L0 
C:\Users\stapi\AppData\Local\Temp\cc81lQEz.s:368    .text.app_adv_start:000000000000005a .L0 
C:\Users\stapi\AppData\Local\Temp\cc81lQEz.s:371    .text.app_adv_start:0000000000000062 .L0 
C:\Users\stapi\AppData\Local\Temp\cc81lQEz.s:372    .text.app_adv_start:0000000000000062 .L0 
C:\Users\stapi\AppData\Local\Temp\cc81lQEz.s:376    .text.app_adv_start:000000000000006e .L0 
C:\Users\stapi\AppData\Local\Temp\cc81lQEz.s:377    .text.app_adv_start:000000000000006e .L0 
C:\Users\stapi\AppData\Local\Temp\cc81lQEz.s:383    .text.app_adv_start:0000000000000072 .L0 
C:\Users\stapi\AppData\Local\Temp\cc81lQEz.s:384    .text.app_adv_start:0000000000000072 .L0 
C:\Users\stapi\AppData\Local\Temp\cc81lQEz.s:386    .text.app_adv_start:0000000000000074 .L0 
C:\Users\stapi\AppData\Local\Temp\cc81lQEz.s:387    .text.app_adv_start:0000000000000074 .L0 
C:\Users\stapi\AppData\Local\Temp\cc81lQEz.s:390    .text.app_adv_start:0000000000000078 .L0 
C:\Users\stapi\AppData\Local\Temp\cc81lQEz.s:397    .text.app_adv_start:000000000000007e .L0 
C:\Users\stapi\AppData\Local\Temp\cc81lQEz.s:398    .text.app_adv_start:000000000000007e .L0 
C:\Users\stapi\AppData\Local\Temp\cc81lQEz.s:399    .text.app_adv_start:000000000000007e .L0 
C:\Users\stapi\AppData\Local\Temp\cc81lQEz.s:400    .text.app_adv_start:000000000000007e .L0 
C:\Users\stapi\AppData\Local\Temp\cc81lQEz.s:401    .text.app_adv_start:000000000000007e .L0 
C:\Users\stapi\AppData\Local\Temp\cc81lQEz.s:402    .text.app_adv_start:000000000000007e .L0 
C:\Users\stapi\AppData\Local\Temp\cc81lQEz.s:405    .text.app_adv_start:0000000000000084 .L0 
C:\Users\stapi\AppData\Local\Temp\cc81lQEz.s:406    .text.app_adv_start:0000000000000084 .L0 
C:\Users\stapi\AppData\Local\Temp\cc81lQEz.s:409    .text.app_adv_start:0000000000000088 .L0 
C:\Users\stapi\AppData\Local\Temp\cc81lQEz.s:413    .text.app_adv_start:0000000000000092 .L0 
C:\Users\stapi\AppData\Local\Temp\cc81lQEz.s:414    .text.app_adv_start:0000000000000092 .L0 
C:\Users\stapi\AppData\Local\Temp\cc81lQEz.s:417    .text.app_adv_start:0000000000000096 .L0 
C:\Users\stapi\AppData\Local\Temp\cc81lQEz.s:418    .text.app_adv_start:0000000000000096 .L0 
C:\Users\stapi\AppData\Local\Temp\cc81lQEz.s:423    .text.app_adv_start:00000000000000a0 .L0 
C:\Users\stapi\AppData\Local\Temp\cc81lQEz.s:424    .text.app_adv_start:00000000000000a0 .L0 
C:\Users\stapi\AppData\Local\Temp\cc81lQEz.s:426    .text.app_adv_start:00000000000000a2 .L0 
C:\Users\stapi\AppData\Local\Temp\cc81lQEz.s:427    .text.app_adv_start:00000000000000a2 .L0 
C:\Users\stapi\AppData\Local\Temp\cc81lQEz.s:434    .text.app_adv_start:00000000000000b4 .L0 
C:\Users\stapi\AppData\Local\Temp\cc81lQEz.s:435    .text.app_adv_start:00000000000000b4 .L0 
C:\Users\stapi\AppData\Local\Temp\cc81lQEz.s:437    .text.app_adv_start:00000000000000b6 .L0 
C:\Users\stapi\AppData\Local\Temp\cc81lQEz.s:439    .text.app_adv_start:00000000000000ba .L0 
C:\Users\stapi\AppData\Local\Temp\cc81lQEz.s:440    .text.app_adv_start:00000000000000ba .L0 
C:\Users\stapi\AppData\Local\Temp\cc81lQEz.s:442    .text.app_adv_start:00000000000000be .L0 
C:\Users\stapi\AppData\Local\Temp\cc81lQEz.s:443    .text.app_adv_start:00000000000000be .L0 
C:\Users\stapi\AppData\Local\Temp\cc81lQEz.s:445    .text.app_adv_start:00000000000000c0 .L0 
C:\Users\stapi\AppData\Local\Temp\cc81lQEz.s:446    .text.app_adv_start:00000000000000c0 .L0 
C:\Users\stapi\AppData\Local\Temp\cc81lQEz.s:452    .text.app_adv_start:00000000000000c2 .L0 
C:\Users\stapi\AppData\Local\Temp\cc81lQEz.s:453    .text.app_adv_start:00000000000000c2 .L0 
C:\Users\stapi\AppData\Local\Temp\cc81lQEz.s:460    .text.app_adv_start:00000000000000d4 .L0 
C:\Users\stapi\AppData\Local\Temp\cc81lQEz.s:465    .text.app_adv_start:00000000000000de .L0 
C:\Users\stapi\AppData\Local\Temp\cc81lQEz.s:466    .text.app_adv_start:00000000000000de .L0 
C:\Users\stapi\AppData\Local\Temp\cc81lQEz.s:471    .text.app_adv_start:00000000000000e0 .L0 
C:\Users\stapi\AppData\Local\Temp\cc81lQEz.s:472    .text.app_adv_start:00000000000000e0 .L0 
C:\Users\stapi\AppData\Local\Temp\cc81lQEz.s:473    .text.app_adv_start:00000000000000e0 .L0 
C:\Users\stapi\AppData\Local\Temp\cc81lQEz.s:476    .text.app_adv_start:00000000000000e6 .L0 
C:\Users\stapi\AppData\Local\Temp\cc81lQEz.s:477    .text.app_adv_start:00000000000000e6 .L0 
C:\Users\stapi\AppData\Local\Temp\cc81lQEz.s:482    .text.app_adv_start:00000000000000f2 .L0 
C:\Users\stapi\AppData\Local\Temp\cc81lQEz.s:483    .text.app_adv_start:00000000000000f2 .L0 
C:\Users\stapi\AppData\Local\Temp\cc81lQEz.s:488    .text.app_adv_start:00000000000000f6 .L0 
C:\Users\stapi\AppData\Local\Temp\cc81lQEz.s:498    .text.app_adv_start:0000000000000108 .L0 
C:\Users\stapi\AppData\Local\Temp\cc81lQEz.s:499    .text.app_adv_start:0000000000000108 .L0 
C:\Users\stapi\AppData\Local\Temp\cc81lQEz.s:500    .text.app_adv_start:000000000000010a .L0 
C:\Users\stapi\AppData\Local\Temp\cc81lQEz.s:501    .text.app_adv_start:000000000000010a .L0 
C:\Users\stapi\AppData\Local\Temp\cc81lQEz.s:503    .text.app_adv_start:0000000000000112 .L0 
C:\Users\stapi\AppData\Local\Temp\cc81lQEz.s:504    .text.app_adv_start:0000000000000112 .L0 
C:\Users\stapi\AppData\Local\Temp\cc81lQEz.s:505    .text.app_adv_start:0000000000000112 .L0 
C:\Users\stapi\AppData\Local\Temp\cc81lQEz.s:506    .text.app_adv_start:0000000000000112 .L0 
C:\Users\stapi\AppData\Local\Temp\cc81lQEz.s:509    .text.app_adv_start:0000000000000112 .L0 
C:\Users\stapi\AppData\Local\Temp\cc81lQEz.s:512    .text.app_adv_start:0000000000000112 .L0 
C:\Users\stapi\AppData\Local\Temp\cc81lQEz.s:513    .text.app_adv_start:0000000000000112 .L0 
C:\Users\stapi\AppData\Local\Temp\cc81lQEz.s:514    .text.app_adv_start:0000000000000112 .L0 
C:\Users\stapi\AppData\Local\Temp\cc81lQEz.s:515    .text.app_adv_start:0000000000000112 .L0 
C:\Users\stapi\AppData\Local\Temp\cc81lQEz.s:516    .text.app_adv_start:0000000000000112 .L0 
C:\Users\stapi\AppData\Local\Temp\cc81lQEz.s:519    .text.app_adv_start:0000000000000118 .L0 
C:\Users\stapi\AppData\Local\Temp\cc81lQEz.s:520    .text.app_adv_start:0000000000000118 .L0 
C:\Users\stapi\AppData\Local\Temp\cc81lQEz.s:524    .text.app_adv_start:0000000000000122 .L0 
C:\Users\stapi\AppData\Local\Temp\cc81lQEz.s:525    .text.app_adv_start:0000000000000122 .L0 
C:\Users\stapi\AppData\Local\Temp\cc81lQEz.s:529    .text.app_adv_start:000000000000012c .L0 
C:\Users\stapi\AppData\Local\Temp\cc81lQEz.s:532    .text.app_adv_start:0000000000000134 .L0 
C:\Users\stapi\AppData\Local\Temp\cc81lQEz.s:534    .text.app_adv_start:0000000000000136 .L0 
C:\Users\stapi\AppData\Local\Temp\cc81lQEz.s:536    .text.app_adv_start:000000000000013a .L0 
C:\Users\stapi\AppData\Local\Temp\cc81lQEz.s:539    .text.app_adv_start:000000000000013e .L0 
C:\Users\stapi\AppData\Local\Temp\cc81lQEz.s:541    .text.app_adv_start:0000000000000142 .L0 
C:\Users\stapi\AppData\Local\Temp\cc81lQEz.s:542    .text.app_adv_start:0000000000000142 .L0 
C:\Users\stapi\AppData\Local\Temp\cc81lQEz.s:543    .text.app_adv_start:0000000000000142 .L0 
C:\Users\stapi\AppData\Local\Temp\cc81lQEz.s:545    .text.app_adv_start:0000000000000146 .L0 
C:\Users\stapi\AppData\Local\Temp\cc81lQEz.s:546    .text.app_adv_start:0000000000000146 .L0 
C:\Users\stapi\AppData\Local\Temp\cc81lQEz.s:547    .text.app_adv_start:0000000000000146 .L0 
C:\Users\stapi\AppData\Local\Temp\cc81lQEz.s:548    .text.app_adv_start:0000000000000146 .L0 
C:\Users\stapi\AppData\Local\Temp\cc81lQEz.s:554    .text.app_adv_start:000000000000014a .L0 
C:\Users\stapi\AppData\Local\Temp\cc81lQEz.s:555    .text.app_adv_start:000000000000014a .L0 
C:\Users\stapi\AppData\Local\Temp\cc81lQEz.s:556    .text.app_adv_start:000000000000014a .L0 
C:\Users\stapi\AppData\Local\Temp\cc81lQEz.s:559    .text.app_adv_start:0000000000000150 .L0 
C:\Users\stapi\AppData\Local\Temp\cc81lQEz.s:560    .text.app_adv_start:0000000000000150 .L0 
C:\Users\stapi\AppData\Local\Temp\cc81lQEz.s:567    .text.app_adv_start:000000000000015a .L0 
C:\Users\stapi\AppData\Local\Temp\cc81lQEz.s:568    .text.app_adv_start:000000000000015a .L0 
C:\Users\stapi\AppData\Local\Temp\cc81lQEz.s:569    .text.app_adv_start:000000000000015a .L0 
C:\Users\stapi\AppData\Local\Temp\cc81lQEz.s:572    .text.app_adv_start:0000000000000160 .L0 
C:\Users\stapi\AppData\Local\Temp\cc81lQEz.s:573    .text.app_adv_start:0000000000000160 .L0 
C:\Users\stapi\AppData\Local\Temp\cc81lQEz.s:580    .text.app_adv_start:000000000000016a .L0 
C:\Users\stapi\AppData\Local\Temp\cc81lQEz.s:581    .text.app_adv_start:000000000000016a .L0 
C:\Users\stapi\AppData\Local\Temp\cc81lQEz.s:582    .text.app_adv_start:000000000000016a .L0 
C:\Users\stapi\AppData\Local\Temp\cc81lQEz.s:585    .text.app_adv_start:0000000000000170 .L0 
C:\Users\stapi\AppData\Local\Temp\cc81lQEz.s:586    .text.app_adv_start:0000000000000170 .L0 
C:\Users\stapi\AppData\Local\Temp\cc81lQEz.s:593    .text.app_adv_start:000000000000017a .L0 
C:\Users\stapi\AppData\Local\Temp\cc81lQEz.s:599    .text.app_adv_start:000000000000018a .L0 
C:\Users\stapi\AppData\Local\Temp\cc81lQEz.s:600    .text.app_adv_start:000000000000018a .L0 
C:\Users\stapi\AppData\Local\Temp\cc81lQEz.s:601    .text.app_adv_start:000000000000018a .L0 
C:\Users\stapi\AppData\Local\Temp\cc81lQEz.s:603    .text.app_adv_start:000000000000018e .L0 
C:\Users\stapi\AppData\Local\Temp\cc81lQEz.s:604    .text.app_adv_start:000000000000018e .L0 
C:\Users\stapi\AppData\Local\Temp\cc81lQEz.s:606    .text.app_adv_start:0000000000000192 .L0 
C:\Users\stapi\AppData\Local\Temp\cc81lQEz.s:608    .text.app_adv_start:0000000000000196 .L0 
C:\Users\stapi\AppData\Local\Temp\cc81lQEz.s:612    .text.app_adv_start:000000000000019a .L0 
C:\Users\stapi\AppData\Local\Temp\cc81lQEz.s:614    .text.app_adv_start:000000000000019e .L0 
C:\Users\stapi\AppData\Local\Temp\cc81lQEz.s:615    .text.app_adv_start:000000000000019e .L0 
C:\Users\stapi\AppData\Local\Temp\cc81lQEz.s:616    .text.app_adv_start:000000000000019e .L0 
C:\Users\stapi\AppData\Local\Temp\cc81lQEz.s:617    .text.app_adv_start:000000000000019e .L0 
C:\Users\stapi\AppData\Local\Temp\cc81lQEz.s:618    .text.app_adv_start:000000000000019e .L0 
C:\Users\stapi\AppData\Local\Temp\cc81lQEz.s:619    .text.app_adv_start:000000000000019e .L0 
C:\Users\stapi\AppData\Local\Temp\cc81lQEz.s:620    .text.app_adv_start:000000000000019e .L0 
C:\Users\stapi\AppData\Local\Temp\cc81lQEz.s:621    .text.app_adv_start:000000000000019e .L0 
C:\Users\stapi\AppData\Local\Temp\cc81lQEz.s:624    .text.app_adv_start:00000000000001a6 .L0 
C:\Users\stapi\AppData\Local\Temp\cc81lQEz.s:625    .text.app_adv_start:00000000000001a6 .L0 
C:\Users\stapi\AppData\Local\Temp\cc81lQEz.s:627    .text.app_adv_start:00000000000001a8 .L0 
C:\Users\stapi\AppData\Local\Temp\cc81lQEz.s:629    .text.app_adv_start:00000000000001ac .L0 
C:\Users\stapi\AppData\Local\Temp\cc81lQEz.s:631    .text.app_adv_start:00000000000001ae .L0 
C:\Users\stapi\AppData\Local\Temp\cc81lQEz.s:633    .text.app_adv_start:00000000000001b0 .L0 
C:\Users\stapi\AppData\Local\Temp\cc81lQEz.s:635    .text.app_adv_start:00000000000001b2 .L0 
C:\Users\stapi\AppData\Local\Temp\cc81lQEz.s:636    .text.app_adv_start:00000000000001b2 .L0 
C:\Users\stapi\AppData\Local\Temp\cc81lQEz.s:638    .text.app_adv_start:00000000000001b6 .L0 
C:\Users\stapi\AppData\Local\Temp\cc81lQEz.s:639    .text.app_adv_start:00000000000001b6 .L0 
C:\Users\stapi\AppData\Local\Temp\cc81lQEz.s:640    .text.app_adv_start:00000000000001b6 .L0 
C:\Users\stapi\AppData\Local\Temp\cc81lQEz.s:642    .text.app_adv_start:00000000000001b8 .L0 
C:\Users\stapi\AppData\Local\Temp\cc81lQEz.s:644    .text.app_adv_start:00000000000001bc .L0 
C:\Users\stapi\AppData\Local\Temp\cc81lQEz.s:648    .text.app_adv_start:00000000000001c2 .L0 
C:\Users\stapi\AppData\Local\Temp\cc81lQEz.s:649    .text.app_adv_start:00000000000001c2 .L0 
C:\Users\stapi\AppData\Local\Temp\cc81lQEz.s:652    .text.app_adv_start:00000000000001ca .L0 
C:\Users\stapi\AppData\Local\Temp\cc81lQEz.s:653    .text.app_adv_start:00000000000001ca .L0 
C:\Users\stapi\AppData\Local\Temp\cc81lQEz.s:656    .text.app_adv_start:00000000000001d0 .L0 
C:\Users\stapi\AppData\Local\Temp\cc81lQEz.s:657    .text.app_adv_start:00000000000001d0 .L0 
C:\Users\stapi\AppData\Local\Temp\cc81lQEz.s:659    .text.app_adv_start:00000000000001d4 .L0 
C:\Users\stapi\AppData\Local\Temp\cc81lQEz.s:661    .text.app_adv_start:00000000000001d8 .L0 
C:\Users\stapi\AppData\Local\Temp\cc81lQEz.s:662    .text.app_adv_start:00000000000001d8 .L0 
C:\Users\stapi\AppData\Local\Temp\cc81lQEz.s:664    .text.app_adv_start:00000000000001dc .L0 
C:\Users\stapi\AppData\Local\Temp\cc81lQEz.s:665    .text.app_adv_start:00000000000001dc .L0 
C:\Users\stapi\AppData\Local\Temp\cc81lQEz.s:668    .text.app_adv_start:00000000000001e4 .L0 
C:\Users\stapi\AppData\Local\Temp\cc81lQEz.s:669    .text.app_adv_start:00000000000001e4 .L0 
C:\Users\stapi\AppData\Local\Temp\cc81lQEz.s:670    .text.app_adv_start:00000000000001e4 .L0 
C:\Users\stapi\AppData\Local\Temp\cc81lQEz.s:674    .text.app_adv_start:00000000000001ec .L0 
C:\Users\stapi\AppData\Local\Temp\cc81lQEz.s:675    .text.app_adv_start:00000000000001ec .L0 
C:\Users\stapi\AppData\Local\Temp\cc81lQEz.s:678    .text.app_adv_start:00000000000001f2 .L0 
C:\Users\stapi\AppData\Local\Temp\cc81lQEz.s:679    .text.app_adv_start:00000000000001f2 .L0 
C:\Users\stapi\AppData\Local\Temp\cc81lQEz.s:682    .text.app_adv_start:00000000000001f8 .L0 
C:\Users\stapi\AppData\Local\Temp\cc81lQEz.s:685    .text.app_adv_start:00000000000001fe .L0 
C:\Users\stapi\AppData\Local\Temp\cc81lQEz.s:687    .text.app_adv_start:0000000000000202 .L0 
C:\Users\stapi\AppData\Local\Temp\cc81lQEz.s:689    .text.app_adv_start:0000000000000206 .L0 
C:\Users\stapi\AppData\Local\Temp\cc81lQEz.s:691    .text.app_adv_start:0000000000000208 .L0 
C:\Users\stapi\AppData\Local\Temp\cc81lQEz.s:693    .text.app_adv_start:000000000000020c .L0 
C:\Users\stapi\AppData\Local\Temp\cc81lQEz.s:695    .text.app_adv_start:000000000000020e .L0 
C:\Users\stapi\AppData\Local\Temp\cc81lQEz.s:697    .text.app_adv_start:0000000000000210 .L0 
C:\Users\stapi\AppData\Local\Temp\cc81lQEz.s:699    .text.app_adv_start:0000000000000214 .L0 
C:\Users\stapi\AppData\Local\Temp\cc81lQEz.s:701    .text.app_adv_start:0000000000000216 .L0 
C:\Users\stapi\AppData\Local\Temp\cc81lQEz.s:703    .text.app_adv_start:000000000000021a .L0 
C:\Users\stapi\AppData\Local\Temp\cc81lQEz.s:705    .text.app_adv_start:000000000000021e .L0 
C:\Users\stapi\AppData\Local\Temp\cc81lQEz.s:708    .text.app_adv_start:0000000000000222 .L0 
C:\Users\stapi\AppData\Local\Temp\cc81lQEz.s:710    .text.app_adv_start:0000000000000224 .L0 
C:\Users\stapi\AppData\Local\Temp\cc81lQEz.s:712    .text.app_adv_start:0000000000000226 .L0 
C:\Users\stapi\AppData\Local\Temp\cc81lQEz.s:714    .text.app_adv_start:0000000000000228 .L0 
C:\Users\stapi\AppData\Local\Temp\cc81lQEz.s:715    .text.app_adv_start:0000000000000228 .L0 
C:\Users\stapi\AppData\Local\Temp\cc81lQEz.s:716    .text.app_adv_start:0000000000000228 .L0 
C:\Users\stapi\AppData\Local\Temp\cc81lQEz.s:718    .text.app_adv_start:000000000000022a .L0 
C:\Users\stapi\AppData\Local\Temp\cc81lQEz.s:719    .text.app_adv_start:000000000000022a .L0 
C:\Users\stapi\AppData\Local\Temp\cc81lQEz.s:720    .text.app_adv_start:000000000000022a .L0 
C:\Users\stapi\AppData\Local\Temp\cc81lQEz.s:721    .text.app_adv_start:000000000000022a .L0 
C:\Users\stapi\AppData\Local\Temp\cc81lQEz.s:722    .text.app_adv_start:000000000000022a .L0 
C:\Users\stapi\AppData\Local\Temp\cc81lQEz.s:724    .text.app_adv_start:000000000000022c .L0 
C:\Users\stapi\AppData\Local\Temp\cc81lQEz.s:725    .text.app_adv_start:000000000000022c .L0 
C:\Users\stapi\AppData\Local\Temp\cc81lQEz.s:726    .text.app_adv_start:000000000000022c .L0 
C:\Users\stapi\AppData\Local\Temp\cc81lQEz.s:727    .text.app_adv_start:000000000000022c .L0 
C:\Users\stapi\AppData\Local\Temp\cc81lQEz.s:729    .text.app_adv_start:000000000000022c .L0 
C:\Users\stapi\AppData\Local\Temp\cc81lQEz.s:730    .text.app_adv_start:000000000000022c .L0 
C:\Users\stapi\AppData\Local\Temp\cc81lQEz.s:731    .text.app_adv_start:000000000000022c .L0 
C:\Users\stapi\AppData\Local\Temp\cc81lQEz.s:734    .text.app_adv_start:0000000000000230 .L0 
C:\Users\stapi\AppData\Local\Temp\cc81lQEz.s:738    .text.app_adv_start:0000000000000232 .L0 
C:\Users\stapi\AppData\Local\Temp\cc81lQEz.s:739    .text.app_adv_start:0000000000000232 .L0 
C:\Users\stapi\AppData\Local\Temp\cc81lQEz.s:741    .text.app_adv_start:0000000000000236 .L0 
C:\Users\stapi\AppData\Local\Temp\cc81lQEz.s:742    .text.app_adv_start:0000000000000236 .L0 
C:\Users\stapi\AppData\Local\Temp\cc81lQEz.s:747    .text.app_adv_start:000000000000023c .L0 
C:\Users\stapi\AppData\Local\Temp\cc81lQEz.s:748    .text.app_adv_start:000000000000023c .L0 
C:\Users\stapi\AppData\Local\Temp\cc81lQEz.s:751    .text.app_adv_start:0000000000000242 .L0 
C:\Users\stapi\AppData\Local\Temp\cc81lQEz.s:752    .text.app_adv_start:0000000000000242 .L0 
C:\Users\stapi\AppData\Local\Temp\cc81lQEz.s:754    .text.app_adv_start:0000000000000244 .L0 
C:\Users\stapi\AppData\Local\Temp\cc81lQEz.s:756    .text.app_adv_start:0000000000000246 .L0 
C:\Users\stapi\AppData\Local\Temp\cc81lQEz.s:758    .text.app_adv_start:000000000000024a .L0 
C:\Users\stapi\AppData\Local\Temp\cc81lQEz.s:761    .text.app_adv_start:000000000000024e .L0 
C:\Users\stapi\AppData\Local\Temp\cc81lQEz.s:763    .text.app_adv_start:0000000000000252 .L0 
C:\Users\stapi\AppData\Local\Temp\cc81lQEz.s:765    .text.app_adv_start:0000000000000256 .L0 
C:\Users\stapi\AppData\Local\Temp\cc81lQEz.s:767    .text.app_adv_start:000000000000025a .L0 
C:\Users\stapi\AppData\Local\Temp\cc81lQEz.s:769    .text.app_adv_start:000000000000025c .L0 
C:\Users\stapi\AppData\Local\Temp\cc81lQEz.s:772    .text.app_adv_start:0000000000000262 .L0 
C:\Users\stapi\AppData\Local\Temp\cc81lQEz.s:774    .text.app_adv_start:0000000000000266 .L0 
C:\Users\stapi\AppData\Local\Temp\cc81lQEz.s:776    .text.app_adv_start:000000000000026a .L0 
C:\Users\stapi\AppData\Local\Temp\cc81lQEz.s:778    .text.app_adv_start:000000000000026e .L0 
C:\Users\stapi\AppData\Local\Temp\cc81lQEz.s:780    .text.app_adv_start:0000000000000270 .L0 
C:\Users\stapi\AppData\Local\Temp\cc81lQEz.s:783    .text.app_adv_start:0000000000000278 .L0 
C:\Users\stapi\AppData\Local\Temp\cc81lQEz.s:785    .text.app_adv_start:000000000000027c .L0 
C:\Users\stapi\AppData\Local\Temp\cc81lQEz.s:788    .text.app_adv_start:0000000000000284 .L0 
C:\Users\stapi\AppData\Local\Temp\cc81lQEz.s:790    .text.app_adv_start:0000000000000286 .L0 
C:\Users\stapi\AppData\Local\Temp\cc81lQEz.s:792    .text.app_adv_start:0000000000000288 .L0 
C:\Users\stapi\AppData\Local\Temp\cc81lQEz.s:794    .text.app_adv_start:000000000000028c .L0 
C:\Users\stapi\AppData\Local\Temp\cc81lQEz.s:796    .text.app_adv_start:0000000000000290 .L0 
C:\Users\stapi\AppData\Local\Temp\cc81lQEz.s:798    .text.app_adv_start:0000000000000292 .L0 
C:\Users\stapi\AppData\Local\Temp\cc81lQEz.s:800    .text.app_adv_start:0000000000000294 .L0 
C:\Users\stapi\AppData\Local\Temp\cc81lQEz.s:802    .text.app_adv_start:0000000000000296 .L0 
C:\Users\stapi\AppData\Local\Temp\cc81lQEz.s:804    .text.app_adv_start:000000000000029a .L0 
C:\Users\stapi\AppData\Local\Temp\cc81lQEz.s:806    .text.app_adv_start:000000000000029e .L0 
C:\Users\stapi\AppData\Local\Temp\cc81lQEz.s:808    .text.app_adv_start:00000000000002a2 .L0 
C:\Users\stapi\AppData\Local\Temp\cc81lQEz.s:810    .text.app_adv_start:00000000000002a4 .L0 
C:\Users\stapi\AppData\Local\Temp\cc81lQEz.s:812    .text.app_adv_start:00000000000002a6 .L0 
C:\Users\stapi\AppData\Local\Temp\cc81lQEz.s:814    .text.app_adv_start:00000000000002aa .L0 
C:\Users\stapi\AppData\Local\Temp\cc81lQEz.s:816    .text.app_adv_start:00000000000002ae .L0 
C:\Users\stapi\AppData\Local\Temp\cc81lQEz.s:818    .text.app_adv_start:00000000000002b2 .L0 
C:\Users\stapi\AppData\Local\Temp\cc81lQEz.s:820    .text.app_adv_start:00000000000002b6 .L0 
C:\Users\stapi\AppData\Local\Temp\cc81lQEz.s:822    .text.app_adv_start:00000000000002ba .L0 
C:\Users\stapi\AppData\Local\Temp\cc81lQEz.s:824    .text.app_adv_start:00000000000002bc .L0 
C:\Users\stapi\AppData\Local\Temp\cc81lQEz.s:826    .text.app_adv_start:00000000000002c0 .L0 
C:\Users\stapi\AppData\Local\Temp\cc81lQEz.s:828    .text.app_adv_start:00000000000002c4 .L0 
C:\Users\stapi\AppData\Local\Temp\cc81lQEz.s:830    .text.app_adv_start:00000000000002c8 .L0 
C:\Users\stapi\AppData\Local\Temp\cc81lQEz.s:833    .text.app_adv_start:00000000000002d0 .L0 
C:\Users\stapi\AppData\Local\Temp\cc81lQEz.s:835    .text.app_adv_start:00000000000002d4 .L0 
C:\Users\stapi\AppData\Local\Temp\cc81lQEz.s:837    .text.app_adv_start:00000000000002d6 .L0 
C:\Users\stapi\AppData\Local\Temp\cc81lQEz.s:839    .text.app_adv_start:00000000000002d8 .L0 
C:\Users\stapi\AppData\Local\Temp\cc81lQEz.s:841    .text.app_adv_start:00000000000002dc .L0 
C:\Users\stapi\AppData\Local\Temp\cc81lQEz.s:843    .text.app_adv_start:00000000000002de .L0 
C:\Users\stapi\AppData\Local\Temp\cc81lQEz.s:845    .text.app_adv_start:00000000000002e2 .L0 
C:\Users\stapi\AppData\Local\Temp\cc81lQEz.s:847    .text.app_adv_start:00000000000002e6 .L0 
C:\Users\stapi\AppData\Local\Temp\cc81lQEz.s:849    .text.app_adv_start:00000000000002e8 .L0 
C:\Users\stapi\AppData\Local\Temp\cc81lQEz.s:851    .text.app_adv_start:00000000000002ec .L0 
C:\Users\stapi\AppData\Local\Temp\cc81lQEz.s:853    .text.app_adv_start:00000000000002ee .L0 
C:\Users\stapi\AppData\Local\Temp\cc81lQEz.s:856    .text.app_adv_start:00000000000002f4 .L0 
C:\Users\stapi\AppData\Local\Temp\cc81lQEz.s:858    .text.app_adv_start:00000000000002f8 .L0 
C:\Users\stapi\AppData\Local\Temp\cc81lQEz.s:859    .text.app_adv_start:00000000000002f8 .L0 
C:\Users\stapi\AppData\Local\Temp\cc81lQEz.s:860    .text.app_adv_start:00000000000002f8 .L0 
C:\Users\stapi\AppData\Local\Temp\cc81lQEz.s:862    .text.app_adv_start:00000000000002fc .L0 
C:\Users\stapi\AppData\Local\Temp\cc81lQEz.s:863    .text.app_adv_start:00000000000002fc .L0 
C:\Users\stapi\AppData\Local\Temp\cc81lQEz.s:864    .text.app_adv_start:00000000000002fc .L0 
C:\Users\stapi\AppData\Local\Temp\cc81lQEz.s:865    .text.app_adv_start:00000000000002fc .L0 
C:\Users\stapi\AppData\Local\Temp\cc81lQEz.s:866    .text.app_adv_start:00000000000002fc .L0 
C:\Users\stapi\AppData\Local\Temp\cc81lQEz.s:868    .text.app_adv_start:0000000000000300 .L0 
C:\Users\stapi\AppData\Local\Temp\cc81lQEz.s:869    .text.app_adv_start:0000000000000300 .L0 
C:\Users\stapi\AppData\Local\Temp\cc81lQEz.s:870    .text.app_adv_start:0000000000000300 .L0 
C:\Users\stapi\AppData\Local\Temp\cc81lQEz.s:871    .text.app_adv_start:0000000000000300 .L0 
C:\Users\stapi\AppData\Local\Temp\cc81lQEz.s:872    .text.app_adv_start:0000000000000300 .L0 
C:\Users\stapi\AppData\Local\Temp\cc81lQEz.s:874    .text.app_adv_start:0000000000000304 .L0 
C:\Users\stapi\AppData\Local\Temp\cc81lQEz.s:875    .text.app_adv_start:0000000000000304 .L0 
C:\Users\stapi\AppData\Local\Temp\cc81lQEz.s:876    .text.app_adv_start:0000000000000304 .L0 
C:\Users\stapi\AppData\Local\Temp\cc81lQEz.s:877    .text.app_adv_start:0000000000000304 .L0 
C:\Users\stapi\AppData\Local\Temp\cc81lQEz.s:878    .text.app_adv_start:0000000000000304 .L0 
C:\Users\stapi\AppData\Local\Temp\cc81lQEz.s:879    .text.app_adv_start:0000000000000304 .L0 
C:\Users\stapi\AppData\Local\Temp\cc81lQEz.s:881    .text.app_adv_start:0000000000000308 .L0 
C:\Users\stapi\AppData\Local\Temp\cc81lQEz.s:882    .text.app_adv_start:0000000000000308 .L0 
C:\Users\stapi\AppData\Local\Temp\cc81lQEz.s:884    .text.app_adv_start:000000000000030a .L0 
C:\Users\stapi\AppData\Local\Temp\cc81lQEz.s:885    .text.app_adv_start:000000000000030a .L0 
C:\Users\stapi\AppData\Local\Temp\cc81lQEz.s:886    .text.app_adv_start:000000000000030a .L0 
C:\Users\stapi\AppData\Local\Temp\cc81lQEz.s:887    .text.app_adv_start:000000000000030a .L0 
C:\Users\stapi\AppData\Local\Temp\cc81lQEz.s:888    .text.app_adv_start:000000000000030a .L0 
C:\Users\stapi\AppData\Local\Temp\cc81lQEz.s:889    .text.app_adv_start:000000000000030a .L0 
C:\Users\stapi\AppData\Local\Temp\cc81lQEz.s:890    .text.app_adv_start:000000000000030a .L0 
C:\Users\stapi\AppData\Local\Temp\cc81lQEz.s:892    .text.app_adv_start:000000000000030e .L0 
C:\Users\stapi\AppData\Local\Temp\cc81lQEz.s:893    .text.app_adv_start:000000000000030e .L0 
C:\Users\stapi\AppData\Local\Temp\cc81lQEz.s:894    .text.app_adv_start:000000000000030e .L0 
C:\Users\stapi\AppData\Local\Temp\cc81lQEz.s:895    .text.app_adv_start:000000000000030e .L0 
C:\Users\stapi\AppData\Local\Temp\cc81lQEz.s:896    .text.app_adv_start:000000000000030e .L0 
C:\Users\stapi\AppData\Local\Temp\cc81lQEz.s:897    .text.app_adv_start:000000000000030e .L0 
C:\Users\stapi\AppData\Local\Temp\cc81lQEz.s:898    .text.app_adv_start:000000000000030e .L0 
C:\Users\stapi\AppData\Local\Temp\cc81lQEz.s:899    .text.app_adv_start:000000000000030e .L0 
C:\Users\stapi\AppData\Local\Temp\cc81lQEz.s:901    .text.app_adv_start:0000000000000310 .L0 
C:\Users\stapi\AppData\Local\Temp\cc81lQEz.s:902    .text.app_adv_start:0000000000000310 .L0 
C:\Users\stapi\AppData\Local\Temp\cc81lQEz.s:903    .text.app_adv_start:0000000000000310 .L0 
C:\Users\stapi\AppData\Local\Temp\cc81lQEz.s:904    .text.app_adv_start:0000000000000310 .L0 
C:\Users\stapi\AppData\Local\Temp\cc81lQEz.s:906    .text.app_adv_start:0000000000000314 .L0 
C:\Users\stapi\AppData\Local\Temp\cc81lQEz.s:907    .text.app_adv_start:0000000000000314 .L0 
C:\Users\stapi\AppData\Local\Temp\cc81lQEz.s:914    .text.app_adv_start:0000000000000318 .L0 
C:\Users\stapi\AppData\Local\Temp\cc81lQEz.s:915    .text.app_adv_start:0000000000000318 .L0 
C:\Users\stapi\AppData\Local\Temp\cc81lQEz.s:916    .text.app_adv_start:0000000000000318 .L0 
C:\Users\stapi\AppData\Local\Temp\cc81lQEz.s:917    .text.app_adv_start:0000000000000318 .L0 
C:\Users\stapi\AppData\Local\Temp\cc81lQEz.s:918    .text.app_adv_start:0000000000000318 .L0 
C:\Users\stapi\AppData\Local\Temp\cc81lQEz.s:919    .text.app_adv_start:0000000000000318 .L0 
C:\Users\stapi\AppData\Local\Temp\cc81lQEz.s:926    .text.app_adv_start:0000000000000326 .L0 
C:\Users\stapi\AppData\Local\Temp\cc81lQEz.s:927    .text.app_adv_start:0000000000000326 .L0 
C:\Users\stapi\AppData\Local\Temp\cc81lQEz.s:929    .text.app_adv_start:000000000000032a .L0 
C:\Users\stapi\AppData\Local\Temp\cc81lQEz.s:930    .text.app_adv_start:000000000000032a .L0 
C:\Users\stapi\AppData\Local\Temp\cc81lQEz.s:937    .text.app_adv_start:000000000000033c .L0 
C:\Users\stapi\AppData\Local\Temp\cc81lQEz.s:938    .text.app_adv_start:000000000000033c .L0 
C:\Users\stapi\AppData\Local\Temp\cc81lQEz.s:941    .text.app_adv_start:0000000000000340 .L0 
C:\Users\stapi\AppData\Local\Temp\cc81lQEz.s:943    .text.app_adv_start:0000000000000342 .L0 
C:\Users\stapi\AppData\Local\Temp\cc81lQEz.s:945    .text.app_adv_start:0000000000000346 .L0 
C:\Users\stapi\AppData\Local\Temp\cc81lQEz.s:946    .text.app_adv_start:0000000000000346 .L0 
C:\Users\stapi\AppData\Local\Temp\cc81lQEz.s:948    .text.app_adv_start:0000000000000348 .L0 
C:\Users\stapi\AppData\Local\Temp\cc81lQEz.s:949    .text.app_adv_start:0000000000000348 .L0 
C:\Users\stapi\AppData\Local\Temp\cc81lQEz.s:950    .text.app_adv_start:0000000000000348 .L0 
C:\Users\stapi\AppData\Local\Temp\cc81lQEz.s:951    .text.app_adv_start:0000000000000348 .L0 
C:\Users\stapi\AppData\Local\Temp\cc81lQEz.s:954    .text.app_adv_start:000000000000034e .L0 
C:\Users\stapi\AppData\Local\Temp\cc81lQEz.s:955    .text.app_adv_start:000000000000034e .L0 
C:\Users\stapi\AppData\Local\Temp\cc81lQEz.s:957    .text.app_adv_start:0000000000000352 .L0 
C:\Users\stapi\AppData\Local\Temp\cc81lQEz.s:960    .text.app_adv_start:0000000000000354 .L0 
C:\Users\stapi\AppData\Local\Temp\cc81lQEz.s:962    .text.app_adv_start:0000000000000358 .L0 
C:\Users\stapi\AppData\Local\Temp\cc81lQEz.s:963    .text.app_adv_start:0000000000000358 .L0 
C:\Users\stapi\AppData\Local\Temp\cc81lQEz.s:966    .text.app_adv_start:000000000000035c .L0 
C:\Users\stapi\AppData\Local\Temp\cc81lQEz.s:967    .text.app_adv_start:000000000000035c .L0 
C:\Users\stapi\AppData\Local\Temp\cc81lQEz.s:973    .text.app_adv_start:0000000000000362 .L0 
C:\Users\stapi\AppData\Local\Temp\cc81lQEz.s:974    .text.app_adv_start:0000000000000362 .L0 
C:\Users\stapi\AppData\Local\Temp\cc81lQEz.s:976    .text.app_adv_start:0000000000000366 .L0 
C:\Users\stapi\AppData\Local\Temp\cc81lQEz.s:977    .text.app_adv_start:0000000000000366 .L0 
C:\Users\stapi\AppData\Local\Temp\cc81lQEz.s:980    .text.app_adv_start:000000000000036c .L0 
C:\Users\stapi\AppData\Local\Temp\cc81lQEz.s:1002   .text.app_adv_mgr_evt_hdlr:0000000000000000 app_adv_mgr_evt_hdlr
C:\Users\stapi\AppData\Local\Temp\cc81lQEz.s:1005   .text.app_adv_mgr_evt_hdlr:0000000000000000 .L0 
C:\Users\stapi\AppData\Local\Temp\cc81lQEz.s:1007   .text.app_adv_mgr_evt_hdlr:0000000000000000 .L0 
C:\Users\stapi\AppData\Local\Temp\cc81lQEz.s:1008   .text.app_adv_mgr_evt_hdlr:0000000000000008 .L0 
C:\Users\stapi\AppData\Local\Temp\cc81lQEz.s:1009   .text.app_adv_mgr_evt_hdlr:0000000000000008 .L0 
C:\Users\stapi\AppData\Local\Temp\cc81lQEz.s:1010   .text.app_adv_mgr_evt_hdlr:0000000000000008 .L0 
C:\Users\stapi\AppData\Local\Temp\cc81lQEz.s:1011   .text.app_adv_mgr_evt_hdlr:0000000000000008 .L0 
C:\Users\stapi\AppData\Local\Temp\cc81lQEz.s:1012   .text.app_adv_mgr_evt_hdlr:0000000000000008 .L0 
C:\Users\stapi\AppData\Local\Temp\cc81lQEz.s:1013   .text.app_adv_mgr_evt_hdlr:0000000000000008 .L0 
C:\Users\stapi\AppData\Local\Temp\cc81lQEz.s:1015   .text.app_adv_mgr_evt_hdlr:0000000000000008 .L0 
C:\Users\stapi\AppData\Local\Temp\cc81lQEz.s:1017   .text.app_adv_mgr_evt_hdlr:000000000000000a .L0 
C:\Users\stapi\AppData\Local\Temp\cc81lQEz.s:1020   .text.app_adv_mgr_evt_hdlr:000000000000000c .L0 
C:\Users\stapi\AppData\Local\Temp\cc81lQEz.s:1021   .text.app_adv_mgr_evt_hdlr:000000000000000c .L0 
C:\Users\stapi\AppData\Local\Temp\cc81lQEz.s:1027   .text.app_adv_mgr_evt_hdlr:0000000000000018 .L0 
C:\Users\stapi\AppData\Local\Temp\cc81lQEz.s:1030   .text.app_adv_mgr_evt_hdlr:0000000000000020 .L0 
C:\Users\stapi\AppData\Local\Temp\cc81lQEz.s:1034   .text.app_adv_mgr_evt_hdlr:0000000000000026 .L0 
C:\Users\stapi\AppData\Local\Temp\cc81lQEz.s:1035   .text.app_adv_mgr_evt_hdlr:0000000000000026 .L0 
C:\Users\stapi\AppData\Local\Temp\cc81lQEz.s:1036   .text.app_adv_mgr_evt_hdlr:0000000000000026 .L0 
C:\Users\stapi\AppData\Local\Temp\cc81lQEz.s:1037   .text.app_adv_mgr_evt_hdlr:0000000000000026 .L0 
C:\Users\stapi\AppData\Local\Temp\cc81lQEz.s:1040   .text.app_adv_mgr_evt_hdlr:000000000000002c .L0 
C:\Users\stapi\AppData\Local\Temp\cc81lQEz.s:1052   .text.app_adv_mgr_evt_hdlr:0000000000000044 .L0 
C:\Users\stapi\AppData\Local\Temp\cc81lQEz.s:1053   .text.app_adv_mgr_evt_hdlr:0000000000000044 .L0 
C:\Users\stapi\AppData\Local\Temp\cc81lQEz.s:1054   .text.app_adv_mgr_evt_hdlr:0000000000000044 .L0 
C:\Users\stapi\AppData\Local\Temp\cc81lQEz.s:1056   .text.app_adv_mgr_evt_hdlr:0000000000000046 .L0 
C:\Users\stapi\AppData\Local\Temp\cc81lQEz.s:1058   .text.app_adv_mgr_evt_hdlr:0000000000000048 .L0 
C:\Users\stapi\AppData\Local\Temp\cc81lQEz.s:1060   .text.app_adv_mgr_evt_hdlr:000000000000004a .L0 
C:\Users\stapi\AppData\Local\Temp\cc81lQEz.s:1061   .text.app_adv_mgr_evt_hdlr:000000000000004a .L0 
C:\Users\stapi\AppData\Local\Temp\cc81lQEz.s:1063   .text.app_adv_mgr_evt_hdlr:000000000000004e .L0 
C:\Users\stapi\AppData\Local\Temp\cc81lQEz.s:1066   .text.app_adv_mgr_evt_hdlr:0000000000000054 .L0 
C:\Users\stapi\AppData\Local\Temp\cc81lQEz.s:1067   .text.app_adv_mgr_evt_hdlr:0000000000000054 .L0 
C:\Users\stapi\AppData\Local\Temp\cc81lQEz.s:1069   .text.app_adv_mgr_evt_hdlr:0000000000000058 .L0 
C:\Users\stapi\AppData\Local\Temp\cc81lQEz.s:1072   .text.app_adv_mgr_evt_hdlr:0000000000000060 .L0 
C:\Users\stapi\AppData\Local\Temp\cc81lQEz.s:1074   .text.app_adv_mgr_evt_hdlr:0000000000000064 .L0 
C:\Users\stapi\AppData\Local\Temp\cc81lQEz.s:1077   .text.app_adv_mgr_evt_hdlr:000000000000006c .L0 
C:\Users\stapi\AppData\Local\Temp\cc81lQEz.s:1083   .text.app_adv_mgr_evt_hdlr:0000000000000076 .L0 
C:\Users\stapi\AppData\Local\Temp\cc81lQEz.s:1084   .text.app_adv_mgr_evt_hdlr:000000000000007e .L0 
C:\Users\stapi\AppData\Local\Temp\cc81lQEz.s:1085   .text.app_adv_mgr_evt_hdlr:000000000000007e .L0 
C:\Users\stapi\AppData\Local\Temp\cc81lQEz.s:1086   .text.app_adv_mgr_evt_hdlr:000000000000007e .L0 
C:\Users\stapi\AppData\Local\Temp\cc81lQEz.s:1087   .text.app_adv_mgr_evt_hdlr:000000000000007e .L0 
C:\Users\stapi\AppData\Local\Temp\cc81lQEz.s:1088   .text.app_adv_mgr_evt_hdlr:000000000000007e .L0 
C:\Users\stapi\AppData\Local\Temp\cc81lQEz.s:1089   .text.app_adv_mgr_evt_hdlr:000000000000007e .L0 
C:\Users\stapi\AppData\Local\Temp\cc81lQEz.s:1090   .text.app_adv_mgr_evt_hdlr:000000000000007e .L0 
C:\Users\stapi\AppData\Local\Temp\cc81lQEz.s:1093   .text.app_adv_mgr_evt_hdlr:000000000000007e .L0 
C:\Users\stapi\AppData\Local\Temp\cc81lQEz.s:1096   .text.app_adv_mgr_evt_hdlr:000000000000007e .L0 
C:\Users\stapi\AppData\Local\Temp\cc81lQEz.s:1097   .text.app_adv_mgr_evt_hdlr:000000000000007e .L0 
C:\Users\stapi\AppData\Local\Temp\cc81lQEz.s:1100   .text.app_adv_mgr_evt_hdlr:0000000000000084 .L0 
C:\Users\stapi\AppData\Local\Temp\cc81lQEz.s:1101   .text.app_adv_mgr_evt_hdlr:0000000000000084 .L0 
C:\Users\stapi\AppData\Local\Temp\cc81lQEz.s:1104   .text.app_adv_mgr_evt_hdlr:000000000000008c .L0 
C:\Users\stapi\AppData\Local\Temp\cc81lQEz.s:1111   .text.app_adv_mgr_evt_hdlr:00000000000000a0 .L0 
C:\Users\stapi\AppData\Local\Temp\cc81lQEz.s:1112   .text.app_adv_mgr_evt_hdlr:00000000000000a0 .L0 
C:\Users\stapi\AppData\Local\Temp\cc81lQEz.s:1113   .text.app_adv_mgr_evt_hdlr:00000000000000a0 .L0 
C:\Users\stapi\AppData\Local\Temp\cc81lQEz.s:1116   .text.app_adv_mgr_evt_hdlr:00000000000000a6 .L0 
C:\Users\stapi\AppData\Local\Temp\cc81lQEz.s:1120   .text.app_adv_mgr_evt_hdlr:00000000000000b2 .L0 
C:\Users\stapi\AppData\Local\Temp\cc81lQEz.s:1121   .text.app_adv_mgr_evt_hdlr:00000000000000b2 .L0 
C:\Users\stapi\AppData\Local\Temp\cc81lQEz.s:1125   .text.app_adv_mgr_evt_hdlr:00000000000000b8 .L0 
C:\Users\stapi\AppData\Local\Temp\cc81lQEz.s:1126   .text.app_adv_mgr_evt_hdlr:00000000000000b8 .L0 
C:\Users\stapi\AppData\Local\Temp\cc81lQEz.s:1127   .text.app_adv_mgr_evt_hdlr:00000000000000b8 .L0 
C:\Users\stapi\AppData\Local\Temp\cc81lQEz.s:1132   .text.app_adv_mgr_evt_hdlr:00000000000000ba .L0 
C:\Users\stapi\AppData\Local\Temp\cc81lQEz.s:1133   .text.app_adv_mgr_evt_hdlr:00000000000000ba .L0 
C:\Users\stapi\AppData\Local\Temp\cc81lQEz.s:1134   .text.app_adv_mgr_evt_hdlr:00000000000000ba .L0 
C:\Users\stapi\AppData\Local\Temp\cc81lQEz.s:1137   .text.app_adv_mgr_evt_hdlr:00000000000000c0 .L0 
C:\Users\stapi\AppData\Local\Temp\cc81lQEz.s:1138   .text.app_adv_mgr_evt_hdlr:00000000000000c0 .L0 
C:\Users\stapi\AppData\Local\Temp\cc81lQEz.s:1146   .text.app_adv_mgr_evt_hdlr:00000000000000c2 .L0 
C:\Users\stapi\AppData\Local\Temp\cc81lQEz.s:1147   .text.app_adv_mgr_evt_hdlr:00000000000000c2 .L0 
C:\Users\stapi\AppData\Local\Temp\cc81lQEz.s:1148   .text.app_adv_mgr_evt_hdlr:00000000000000c2 .L0 
C:\Users\stapi\AppData\Local\Temp\cc81lQEz.s:1153   .text.app_adv_mgr_evt_hdlr:00000000000000d0 .L0 
C:\Users\stapi\AppData\Local\Temp\cc81lQEz.s:1167   .text.app_adv_mgr_evt_hdlr:00000000000000e8 .L0 
C:\Users\stapi\AppData\Local\Temp\cc81lQEz.s:1168   .text.app_adv_mgr_evt_hdlr:00000000000000e8 .L0 
C:\Users\stapi\AppData\Local\Temp\cc81lQEz.s:1169   .text.app_adv_mgr_evt_hdlr:00000000000000e8 .L0 
C:\Users\stapi\AppData\Local\Temp\cc81lQEz.s:1173   .text.app_adv_mgr_evt_hdlr:00000000000000f4 .L0 
C:\Users\stapi\AppData\Local\Temp\cc81lQEz.s:1187   .text.app_adv_mgr_evt_hdlr:000000000000011c .L0 
C:\Users\stapi\AppData\Local\Temp\cc81lQEz.s:1188   .text.app_adv_mgr_evt_hdlr:000000000000011e .L0 
C:\Users\stapi\AppData\Local\Temp\cc81lQEz.s:1195   .text.app_adv_create:0000000000000000 app_adv_create
C:\Users\stapi\AppData\Local\Temp\cc81lQEz.s:1198   .text.app_adv_create:0000000000000000 .L0 
C:\Users\stapi\AppData\Local\Temp\cc81lQEz.s:1200   .text.app_adv_create:0000000000000000 .L0 
C:\Users\stapi\AppData\Local\Temp\cc81lQEz.s:1201   .text.app_adv_create:0000000000000008 .L0 
C:\Users\stapi\AppData\Local\Temp\cc81lQEz.s:1202   .text.app_adv_create:0000000000000008 .L0 
C:\Users\stapi\AppData\Local\Temp\cc81lQEz.s:1203   .text.app_adv_create:0000000000000008 .L0 
C:\Users\stapi\AppData\Local\Temp\cc81lQEz.s:1204   .text.app_adv_create:0000000000000008 .L0 
C:\Users\stapi\AppData\Local\Temp\cc81lQEz.s:1205   .text.app_adv_create:0000000000000008 .L0 
C:\Users\stapi\AppData\Local\Temp\cc81lQEz.s:1206   .text.app_adv_create:0000000000000008 .L0 
C:\Users\stapi\AppData\Local\Temp\cc81lQEz.s:1207   .text.app_adv_create:0000000000000008 .L0 
C:\Users\stapi\AppData\Local\Temp\cc81lQEz.s:1208   .text.app_adv_create:0000000000000008 .L0 
C:\Users\stapi\AppData\Local\Temp\cc81lQEz.s:1210   .text.app_adv_create:0000000000000008 .L0 
C:\Users\stapi\AppData\Local\Temp\cc81lQEz.s:1211   .text.app_adv_create:0000000000000008 .L0 
C:\Users\stapi\AppData\Local\Temp\cc81lQEz.s:1212   .text.app_adv_create:0000000000000008 .L0 
C:\Users\stapi\AppData\Local\Temp\cc81lQEz.s:1213   .text.app_adv_create:000000000000000a .L0 
C:\Users\stapi\AppData\Local\Temp\cc81lQEz.s:1215   .text.app_adv_create:000000000000000a .L0 
C:\Users\stapi\AppData\Local\Temp\cc81lQEz.s:1217   .text.app_adv_create:000000000000000c .L0 
C:\Users\stapi\AppData\Local\Temp\cc81lQEz.s:1226   .text.app_adv_create:000000000000001c .L0 
C:\Users\stapi\AppData\Local\Temp\cc81lQEz.s:1227   .text.app_adv_create:000000000000001c .L0 
C:\Users\stapi\AppData\Local\Temp\cc81lQEz.s:1228   .text.app_adv_create:000000000000001c .L0 
C:\Users\stapi\AppData\Local\Temp\cc81lQEz.s:1229   .text.app_adv_create:000000000000001c .L0 
C:\Users\stapi\AppData\Local\Temp\cc81lQEz.s:1230   .text.app_adv_create:000000000000001c .L0 
C:\Users\stapi\AppData\Local\Temp\cc81lQEz.s:1231   .text.app_adv_create:000000000000001c .L0 
C:\Users\stapi\AppData\Local\Temp\cc81lQEz.s:1234   .text.app_adv_create:0000000000000024 .L0 
C:\Users\stapi\AppData\Local\Temp\cc81lQEz.s:1240   .text.app_adv_create:0000000000000034 .L0 
C:\Users\stapi\AppData\Local\Temp\cc81lQEz.s:1241   .text.app_adv_create:0000000000000034 .L0 
C:\Users\stapi\AppData\Local\Temp\cc81lQEz.s:1242   .text.app_adv_create:0000000000000034 .L0 
C:\Users\stapi\AppData\Local\Temp\cc81lQEz.s:1243   .text.app_adv_create:0000000000000034 .L0 
C:\Users\stapi\AppData\Local\Temp\cc81lQEz.s:1247   .text.app_adv_create:0000000000000038 .L0 
C:\Users\stapi\AppData\Local\Temp\cc81lQEz.s:1251   .text.app_adv_create:000000000000003c .L0 
C:\Users\stapi\AppData\Local\Temp\cc81lQEz.s:1253   .text.app_adv_create:0000000000000040 .L0 
C:\Users\stapi\AppData\Local\Temp\cc81lQEz.s:1257   .text.app_adv_create:0000000000000042 .L0 
C:\Users\stapi\AppData\Local\Temp\cc81lQEz.s:1258   .text.app_adv_create:0000000000000042 .L0 
C:\Users\stapi\AppData\Local\Temp\cc81lQEz.s:1263   .text.app_adv_create:0000000000000048 .L0 
C:\Users\stapi\AppData\Local\Temp\cc81lQEz.s:1267   .text.app_adv_create:000000000000004c .L0 
C:\Users\stapi\AppData\Local\Temp\cc81lQEz.s:1271   .text.app_adv_create:0000000000000050 .L0 
C:\Users\stapi\AppData\Local\Temp\cc81lQEz.s:1274   .text.app_adv_create:0000000000000056 .L0 
C:\Users\stapi\AppData\Local\Temp\cc81lQEz.s:1276   .text.app_adv_create:000000000000005a .L0 
C:\Users\stapi\AppData\Local\Temp\cc81lQEz.s:1280   .text.app_adv_create:000000000000005e .L0 
C:\Users\stapi\AppData\Local\Temp\cc81lQEz.s:1285   .text.app_adv_create:0000000000000060 .L0 
C:\Users\stapi\AppData\Local\Temp\cc81lQEz.s:1286   .text.app_adv_create:0000000000000060 .L0 
C:\Users\stapi\AppData\Local\Temp\cc81lQEz.s:1287   .text.app_adv_create:0000000000000060 .L0 
C:\Users\stapi\AppData\Local\Temp\cc81lQEz.s:1288   .text.app_adv_create:0000000000000060 .L0 
C:\Users\stapi\AppData\Local\Temp\cc81lQEz.s:1290   .text.app_adv_create:0000000000000064 .L0 
C:\Users\stapi\AppData\Local\Temp\cc81lQEz.s:1291   .text.app_adv_create:0000000000000064 .L0 
C:\Users\stapi\AppData\Local\Temp\cc81lQEz.s:1293   .text.app_adv_create:0000000000000068 .L0 
C:\Users\stapi\AppData\Local\Temp\cc81lQEz.s:1294   .text.app_adv_create:0000000000000068 .L0 
C:\Users\stapi\AppData\Local\Temp\cc81lQEz.s:1295   .text.app_adv_create:0000000000000068 .L0 
C:\Users\stapi\AppData\Local\Temp\cc81lQEz.s:1298   .text.app_adv_create:0000000000000070 .L0 
C:\Users\stapi\AppData\Local\Temp\cc81lQEz.s:1299   .text.app_adv_create:0000000000000070 .L0 
C:\Users\stapi\AppData\Local\Temp\cc81lQEz.s:1302   .text.app_adv_create:0000000000000076 .L0 
C:\Users\stapi\AppData\Local\Temp\cc81lQEz.s:1303   .text.app_adv_create:0000000000000076 .L0 
C:\Users\stapi\AppData\Local\Temp\cc81lQEz.s:1307   .text.app_adv_create:000000000000007c .L0 
C:\Users\stapi\AppData\Local\Temp\cc81lQEz.s:1308   .text.app_adv_create:000000000000007c .L0 
C:\Users\stapi\AppData\Local\Temp\cc81lQEz.s:1309   .text.app_adv_create:000000000000007c .L0 
C:\Users\stapi\AppData\Local\Temp\cc81lQEz.s:1312   .text.app_adv_create:0000000000000082 .L0 
C:\Users\stapi\AppData\Local\Temp\cc81lQEz.s:1313   .text.app_adv_create:0000000000000082 .L0 
C:\Users\stapi\AppData\Local\Temp\cc81lQEz.s:1317   .text.app_adv_create:000000000000008a .L0 
C:\Users\stapi\AppData\Local\Temp\cc81lQEz.s:1318   .text.app_adv_create:000000000000008a .L0 
C:\Users\stapi\AppData\Local\Temp\cc81lQEz.s:1320   .text.app_adv_create:000000000000008e .L0 
C:\Users\stapi\AppData\Local\Temp\cc81lQEz.s:1323   .text.app_adv_create:0000000000000094 .L0 
C:\Users\stapi\AppData\Local\Temp\cc81lQEz.s:1324   .text.app_adv_create:0000000000000094 .L0 
C:\Users\stapi\AppData\Local\Temp\cc81lQEz.s:1331   .text.app_adv_create:00000000000000a8 .L0 
C:\Users\stapi\AppData\Local\Temp\cc81lQEz.s:1332   .text.app_adv_create:00000000000000a8 .L0 
C:\Users\stapi\AppData\Local\Temp\cc81lQEz.s:1339   .text.app_adv_create:00000000000000b6 .L0 
C:\Users\stapi\AppData\Local\Temp\cc81lQEz.s:1341   .text.app_adv_create:00000000000000ba .L0 
C:\Users\stapi\AppData\Local\Temp\cc81lQEz.s:1342   .text.app_adv_create:00000000000000ba .L0 
C:\Users\stapi\AppData\Local\Temp\cc81lQEz.s:1346   .text.app_adv_create:00000000000000c2 .L0 
C:\Users\stapi\AppData\Local\Temp\cc81lQEz.s:1347   .text.app_adv_create:00000000000000c2 .L0 
C:\Users\stapi\AppData\Local\Temp\cc81lQEz.s:1350   .text.app_adv_create:00000000000000ca .L0 
C:\Users\stapi\AppData\Local\Temp\cc81lQEz.s:1351   .text.app_adv_create:00000000000000ca .L0 
C:\Users\stapi\AppData\Local\Temp\cc81lQEz.s:1354   .text.app_adv_create:00000000000000ce .L0 
C:\Users\stapi\AppData\Local\Temp\cc81lQEz.s:1355   .text.app_adv_create:00000000000000ce .L0 
C:\Users\stapi\AppData\Local\Temp\cc81lQEz.s:1357   .text.app_adv_create:00000000000000d2 .L0 
C:\Users\stapi\AppData\Local\Temp\cc81lQEz.s:1360   .text.app_adv_create:00000000000000d8 .L0 
C:\Users\stapi\AppData\Local\Temp\cc81lQEz.s:1363   .text.app_adv_create:00000000000000de .L0 
C:\Users\stapi\AppData\Local\Temp\cc81lQEz.s:1365   .text.app_adv_create:00000000000000e0 .L0 
C:\Users\stapi\AppData\Local\Temp\cc81lQEz.s:1367   .text.app_adv_create:00000000000000e4 .L0 
C:\Users\stapi\AppData\Local\Temp\cc81lQEz.s:1368   .text.app_adv_create:00000000000000e4 .L0 
C:\Users\stapi\AppData\Local\Temp\cc81lQEz.s:1369   .text.app_adv_create:00000000000000e4 .L0 
C:\Users\stapi\AppData\Local\Temp\cc81lQEz.s:1370   .text.app_adv_create:00000000000000e4 .L0 
C:\Users\stapi\AppData\Local\Temp\cc81lQEz.s:1373   .text.app_adv_create:00000000000000ea .L0 
C:\Users\stapi\AppData\Local\Temp\cc81lQEz.s:1374   .text.app_adv_create:00000000000000ea .L0 
C:\Users\stapi\AppData\Local\Temp\cc81lQEz.s:1378   .text.app_adv_create:00000000000000f2 .L0 
C:\Users\stapi\AppData\Local\Temp\cc81lQEz.s:1379   .text.app_adv_create:00000000000000f2 .L0 
C:\Users\stapi\AppData\Local\Temp\cc81lQEz.s:1381   .text.app_adv_create:00000000000000f6 .L0 
C:\Users\stapi\AppData\Local\Temp\cc81lQEz.s:1382   .text.app_adv_create:00000000000000f6 .L0 
C:\Users\stapi\AppData\Local\Temp\cc81lQEz.s:1383   .text.app_adv_create:00000000000000f6 .L0 
C:\Users\stapi\AppData\Local\Temp\cc81lQEz.s:1387   .text.app_adv_create:00000000000000fe .L0 
C:\Users\stapi\AppData\Local\Temp\cc81lQEz.s:1388   .text.app_adv_create:00000000000000fe .L0 
C:\Users\stapi\AppData\Local\Temp\cc81lQEz.s:1396   .text.app_adv_create:0000000000000112 .L0 
C:\Users\stapi\AppData\Local\Temp\cc81lQEz.s:1397   .text.app_adv_create:0000000000000114 .L0 
C:\Users\stapi\AppData\Local\Temp\cc81lQEz.s:1398   .text.app_adv_create:0000000000000114 .L0 
C:\Users\stapi\AppData\Local\Temp\cc81lQEz.s:1400   .text.app_adv_create:000000000000011c .L0 
C:\Users\stapi\AppData\Local\Temp\cc81lQEz.s:1401   .text.app_adv_create:000000000000011c .L0 
C:\Users\stapi\AppData\Local\Temp\cc81lQEz.s:1402   .text.app_adv_create:000000000000011c .L0 
C:\Users\stapi\AppData\Local\Temp\cc81lQEz.s:1403   .text.app_adv_create:000000000000011c .L0 
C:\Users\stapi\AppData\Local\Temp\cc81lQEz.s:1404   .text.app_adv_create:000000000000011c .L0 
C:\Users\stapi\AppData\Local\Temp\cc81lQEz.s:1405   .text.app_adv_create:000000000000011c .L0 
C:\Users\stapi\AppData\Local\Temp\cc81lQEz.s:1406   .text.app_adv_create:000000000000011c .L0 
C:\Users\stapi\AppData\Local\Temp\cc81lQEz.s:1407   .text.app_adv_create:000000000000011c .L0 
C:\Users\stapi\AppData\Local\Temp\cc81lQEz.s:1410   .text.app_adv_create:000000000000011c .L0 
C:\Users\stapi\AppData\Local\Temp\cc81lQEz.s:1414   .text.app_adv_create:000000000000011c .L0 
C:\Users\stapi\AppData\Local\Temp\cc81lQEz.s:1421   .text.app_adv_create:0000000000000120 .L0 
C:\Users\stapi\AppData\Local\Temp\cc81lQEz.s:1422   .text.app_adv_create:0000000000000120 .L0 
C:\Users\stapi\AppData\Local\Temp\cc81lQEz.s:1423   .text.app_adv_create:0000000000000120 .L0 
C:\Users\stapi\AppData\Local\Temp\cc81lQEz.s:1428   .text.app_adv_create:000000000000012a .L0 
C:\Users\stapi\AppData\Local\Temp\cc81lQEz.s:1429   .text.app_adv_create:000000000000012a .L0 
C:\Users\stapi\AppData\Local\Temp\cc81lQEz.s:1432   .text.app_adv_create:0000000000000130 .L0 
C:\Users\stapi\AppData\Local\Temp\cc81lQEz.s:1433   .text.app_adv_create:0000000000000130 .L0 
C:\Users\stapi\AppData\Local\Temp\cc81lQEz.s:1435   .text.app_adv_create:0000000000000134 .L0 
C:\Users\stapi\AppData\Local\Temp\cc81lQEz.s:1437   .text.app_adv_create:0000000000000138 .L0 
C:\Users\stapi\AppData\Local\Temp\cc81lQEz.s:1438   .text.app_adv_create:0000000000000138 .L0 
C:\Users\stapi\AppData\Local\Temp\cc81lQEz.s:1440   .text.app_adv_create:000000000000013c .L0 
C:\Users\stapi\AppData\Local\Temp\cc81lQEz.s:1441   .text.app_adv_create:000000000000013c .L0 
C:\Users\stapi\AppData\Local\Temp\cc81lQEz.s:1444   .text.app_adv_create:0000000000000142 .L0 
C:\Users\stapi\AppData\Local\Temp\cc81lQEz.s:1445   .text.app_adv_create:0000000000000142 .L0 
C:\Users\stapi\AppData\Local\Temp\cc81lQEz.s:1449   .text.app_adv_create:0000000000000148 .L0 
C:\Users\stapi\AppData\Local\Temp\cc81lQEz.s:1450   .text.app_adv_create:0000000000000148 .L0 
C:\Users\stapi\AppData\Local\Temp\cc81lQEz.s:1451   .text.app_adv_create:0000000000000148 .L0 
C:\Users\stapi\AppData\Local\Temp\cc81lQEz.s:1454   .text.app_adv_create:000000000000014e .L0 
C:\Users\stapi\AppData\Local\Temp\cc81lQEz.s:1455   .text.app_adv_create:000000000000014e .L0 
C:\Users\stapi\AppData\Local\Temp\cc81lQEz.s:1459   .text.app_adv_create:0000000000000152 .L0 
C:\Users\stapi\AppData\Local\Temp\cc81lQEz.s:1463   .text.app_adv_create:0000000000000154 .L0 
C:\Users\stapi\AppData\Local\Temp\cc81lQEz.s:1467   .text.app_adv_create:0000000000000158 .L0 
C:\Users\stapi\AppData\Local\Temp\cc81lQEz.s:1468   .text.app_adv_create:0000000000000158 .L0 
C:\Users\stapi\AppData\Local\Temp\cc81lQEz.s:1469   .text.app_adv_create:0000000000000158 .L0 
C:\Users\stapi\AppData\Local\Temp\cc81lQEz.s:1473   .text.app_adv_create:0000000000000162 .L0 
C:\Users\stapi\AppData\Local\Temp\cc81lQEz.s:1474   .text.app_adv_create:0000000000000162 .L0 
C:\Users\stapi\AppData\Local\Temp\cc81lQEz.s:1476   .text.app_adv_create:0000000000000166 .L0 
C:\Users\stapi\AppData\Local\Temp\cc81lQEz.s:1481   .text.app_adv_create:000000000000016a .L0 
C:\Users\stapi\AppData\Local\Temp\cc81lQEz.s:1482   .text.app_adv_create:000000000000016a .L0 
C:\Users\stapi\AppData\Local\Temp\cc81lQEz.s:1485   .text.app_adv_create:0000000000000172 .L0 
C:\Users\stapi\AppData\Local\Temp\cc81lQEz.s:1486   .text.app_adv_create:0000000000000172 .L0 
C:\Users\stapi\AppData\Local\Temp\cc81lQEz.s:1487   .text.app_adv_create:0000000000000172 .L0 
C:\Users\stapi\AppData\Local\Temp\cc81lQEz.s:1492   .text.app_adv_create:000000000000017c .L0 
C:\Users\stapi\AppData\Local\Temp\cc81lQEz.s:1493   .text.app_adv_create:000000000000017c .L0 
C:\Users\stapi\AppData\Local\Temp\cc81lQEz.s:1494   .text.app_adv_create:000000000000017c .L0 
C:\Users\stapi\AppData\Local\Temp\cc81lQEz.s:1501   .text.app_adv_create:0000000000000186 .L0 
C:\Users\stapi\AppData\Local\Temp\cc81lQEz.s:1502   .text.app_adv_create:0000000000000186 .L0 
C:\Users\stapi\AppData\Local\Temp\cc81lQEz.s:1508   .text.app_adv_create:000000000000018c .L0 
C:\Users\stapi\AppData\Local\Temp\cc81lQEz.s:1509   .text.app_adv_create:000000000000018c .L0 
C:\Users\stapi\AppData\Local\Temp\cc81lQEz.s:1511   .text.app_adv_create:000000000000018e .L0 
C:\Users\stapi\AppData\Local\Temp\cc81lQEz.s:1513   .text.app_adv_create:0000000000000192 .L0 
C:\Users\stapi\AppData\Local\Temp\cc81lQEz.s:1515   .text.app_adv_create:0000000000000196 .L0 
C:\Users\stapi\AppData\Local\Temp\cc81lQEz.s:1516   .text.app_adv_create:0000000000000196 .L0 
C:\Users\stapi\AppData\Local\Temp\cc81lQEz.s:1518   .text.app_adv_create:000000000000019a .L0 
C:\Users\stapi\AppData\Local\Temp\cc81lQEz.s:1521   .text.app_adv_create:00000000000001a0 .L0 
C:\Users\stapi\AppData\Local\Temp\cc81lQEz.s:1523   .text.app_adv_create:00000000000001a4 .L0 
C:\Users\stapi\AppData\Local\Temp\cc81lQEz.s:1525   .text.app_adv_create:00000000000001a8 .L0 
C:\Users\stapi\AppData\Local\Temp\cc81lQEz.s:1527   .text.app_adv_create:00000000000001ac .L0 
C:\Users\stapi\AppData\Local\Temp\cc81lQEz.s:1528   .text.app_adv_create:00000000000001ac .L0 
C:\Users\stapi\AppData\Local\Temp\cc81lQEz.s:1532   .text.app_adv_create:00000000000001b0 .L0 
C:\Users\stapi\AppData\Local\Temp\cc81lQEz.s:1536   .text.app_adv_create:00000000000001b4 .L0 
C:\Users\stapi\AppData\Local\Temp\cc81lQEz.s:1538   .text.app_adv_create:00000000000001b8 .L0 
C:\Users\stapi\AppData\Local\Temp\cc81lQEz.s:1539   .text.app_adv_create:00000000000001b8 .L0 
C:\Users\stapi\AppData\Local\Temp\cc81lQEz.s:1540   .text.app_adv_create:00000000000001b8 .L0 
C:\Users\stapi\AppData\Local\Temp\cc81lQEz.s:1541   .text.app_adv_create:00000000000001b8 .L0 
C:\Users\stapi\AppData\Local\Temp\cc81lQEz.s:1544   .text.app_adv_create:00000000000001b8 .L0 
C:\Users\stapi\AppData\Local\Temp\cc81lQEz.s:1545   .text.app_adv_create:00000000000001b8 .L0 
C:\Users\stapi\AppData\Local\Temp\cc81lQEz.s:1546   .text.app_adv_create:00000000000001b8 .L0 
C:\Users\stapi\AppData\Local\Temp\cc81lQEz.s:1548   .text.app_adv_create:00000000000001ba .L0 
C:\Users\stapi\AppData\Local\Temp\cc81lQEz.s:1551   .text.app_adv_create:00000000000001c0 .L0 
C:\Users\stapi\AppData\Local\Temp\cc81lQEz.s:1552   .text.app_adv_create:00000000000001c0 .L0 
C:\Users\stapi\AppData\Local\Temp\cc81lQEz.s:1554   .text.app_adv_create:00000000000001c4 .L0 
C:\Users\stapi\AppData\Local\Temp\cc81lQEz.s:1559   .text.app_adv_create:00000000000001c8 .L0 
C:\Users\stapi\AppData\Local\Temp\cc81lQEz.s:1560   .text.app_adv_create:00000000000001c8 .L0 
C:\Users\stapi\AppData\Local\Temp\cc81lQEz.s:1563   .text.app_adv_create:00000000000001d0 .L0 
C:\Users\stapi\AppData\Local\Temp\cc81lQEz.s:1564   .text.app_adv_create:00000000000001d0 .L0 
C:\Users\stapi\AppData\Local\Temp\cc81lQEz.s:1565   .text.app_adv_create:00000000000001d0 .L0 
C:\Users\stapi\AppData\Local\Temp\cc81lQEz.s:1568   .text.app_adv_create:00000000000001d8 .L0 
C:\Users\stapi\AppData\Local\Temp\cc81lQEz.s:1569   .text.app_adv_create:00000000000001d8 .L0 
C:\Users\stapi\AppData\Local\Temp\cc81lQEz.s:1572   .text.app_adv_create:00000000000001e0 .L0 
C:\Users\stapi\AppData\Local\Temp\cc81lQEz.s:1573   .text.app_adv_create:00000000000001e0 .L0 
C:\Users\stapi\AppData\Local\Temp\cc81lQEz.s:1579   .text.app_adv_create:00000000000001e6 .L0 
C:\Users\stapi\AppData\Local\Temp\cc81lQEz.s:1580   .text.app_adv_create:00000000000001e6 .L0 
C:\Users\stapi\AppData\Local\Temp\cc81lQEz.s:1584   .text.app_adv_create:00000000000001ec .L0 
C:\Users\stapi\AppData\Local\Temp\cc81lQEz.s:1591   .text.app_adv_stop:0000000000000000 app_adv_stop
C:\Users\stapi\AppData\Local\Temp\cc81lQEz.s:1594   .text.app_adv_stop:0000000000000000 .L0 
C:\Users\stapi\AppData\Local\Temp\cc81lQEz.s:1596   .text.app_adv_stop:0000000000000000 .L0 
C:\Users\stapi\AppData\Local\Temp\cc81lQEz.s:1597   .text.app_adv_stop:0000000000000008 .L0 
C:\Users\stapi\AppData\Local\Temp\cc81lQEz.s:1598   .text.app_adv_stop:0000000000000008 .L0 
C:\Users\stapi\AppData\Local\Temp\cc81lQEz.s:1599   .text.app_adv_stop:0000000000000008 .L0 
C:\Users\stapi\AppData\Local\Temp\cc81lQEz.s:1600   .text.app_adv_stop:0000000000000008 .L0 
C:\Users\stapi\AppData\Local\Temp\cc81lQEz.s:1602   .text.app_adv_stop:0000000000000008 .L0 
C:\Users\stapi\AppData\Local\Temp\cc81lQEz.s:1604   .text.app_adv_stop:0000000000000008 .L0 
C:\Users\stapi\AppData\Local\Temp\cc81lQEz.s:1605   .text.app_adv_stop:0000000000000008 .L0 
C:\Users\stapi\AppData\Local\Temp\cc81lQEz.s:1606   .text.app_adv_stop:0000000000000008 .L0 
C:\Users\stapi\AppData\Local\Temp\cc81lQEz.s:1607   .text.app_adv_stop:0000000000000008 .L0 
C:\Users\stapi\AppData\Local\Temp\cc81lQEz.s:1608   .text.app_adv_stop:0000000000000008 .L0 
C:\Users\stapi\AppData\Local\Temp\cc81lQEz.s:1609   .text.app_adv_stop:0000000000000008 .L0 
C:\Users\stapi\AppData\Local\Temp\cc81lQEz.s:1612   .text.app_adv_stop:0000000000000010 .L0 
C:\Users\stapi\AppData\Local\Temp\cc81lQEz.s:1614   .text.app_adv_stop:0000000000000014 .L0 
C:\Users\stapi\AppData\Local\Temp\cc81lQEz.s:1617   .text.app_adv_stop:000000000000001a .L0 
C:\Users\stapi\AppData\Local\Temp\cc81lQEz.s:1622   .text.app_adv_stop:0000000000000024 .L0 
C:\Users\stapi\AppData\Local\Temp\cc81lQEz.s:1623   .text.app_adv_stop:0000000000000024 .L0 
C:\Users\stapi\AppData\Local\Temp\cc81lQEz.s:1624   .text.app_adv_stop:0000000000000024 .L0 
C:\Users\stapi\AppData\Local\Temp\cc81lQEz.s:1625   .text.app_adv_stop:0000000000000024 .L0 
C:\Users\stapi\AppData\Local\Temp\cc81lQEz.s:1628   .text.app_adv_stop:0000000000000028 .L0 
C:\Users\stapi\AppData\Local\Temp\cc81lQEz.s:1630   .text.app_adv_stop:000000000000002c .L0 
C:\Users\stapi\AppData\Local\Temp\cc81lQEz.s:1634   .text.app_adv_stop:000000000000002e .L0 
C:\Users\stapi\AppData\Local\Temp\cc81lQEz.s:1635   .text.app_adv_stop:000000000000002e .L0 
C:\Users\stapi\AppData\Local\Temp\cc81lQEz.s:1636   .text.app_adv_stop:000000000000002e .L0 
C:\Users\stapi\AppData\Local\Temp\cc81lQEz.s:1637   .text.app_adv_stop:000000000000002e .L0 
C:\Users\stapi\AppData\Local\Temp\cc81lQEz.s:1638   .text.app_adv_stop:000000000000002e .L0 
C:\Users\stapi\AppData\Local\Temp\cc81lQEz.s:1641   .text.app_adv_stop:0000000000000034 .L0 
C:\Users\stapi\AppData\Local\Temp\cc81lQEz.s:1646   .text.app_adv_stop:000000000000003c .L0 
C:\Users\stapi\AppData\Local\Temp\cc81lQEz.s:1647   .text.app_adv_stop:000000000000003c .L0 
C:\Users\stapi\AppData\Local\Temp\cc81lQEz.s:1651   .text.app_adv_stop:0000000000000048 .L0 
C:\Users\stapi\AppData\Local\Temp\cc81lQEz.s:1652   .text.app_adv_stop:0000000000000048 .L0 
C:\Users\stapi\AppData\Local\Temp\cc81lQEz.s:1654   .text.app_adv_stop:000000000000004a .L0 
C:\Users\stapi\AppData\Local\Temp\cc81lQEz.s:1655   .text.app_adv_stop:000000000000004a .L0 
C:\Users\stapi\AppData\Local\Temp\cc81lQEz.s:1659   .text.app_adv_stop:000000000000004e .L0 
C:\Users\stapi\AppData\Local\Temp\cc81lQEz.s:1660   .text.app_adv_stop:0000000000000056 .L0 
C:\Users\stapi\AppData\Local\Temp\cc81lQEz.s:1661   .text.app_adv_stop:0000000000000056 .L0 
C:\Users\stapi\AppData\Local\Temp\cc81lQEz.s:1662   .text.app_adv_stop:0000000000000056 .L0 
C:\Users\stapi\AppData\Local\Temp\cc81lQEz.s:1663   .text.app_adv_stop:0000000000000056 .L0 
C:\Users\stapi\AppData\Local\Temp\cc81lQEz.s:1664   .text.app_adv_stop:0000000000000056 .L0 
C:\Users\stapi\AppData\Local\Temp\cc81lQEz.s:1667   .text.app_adv_stop:0000000000000056 .L0 
C:\Users\stapi\AppData\Local\Temp\cc81lQEz.s:1669   .text.app_adv_stop:0000000000000056 .L0 
C:\Users\stapi\AppData\Local\Temp\cc81lQEz.s:1674   .text.app_adv_stop:000000000000005a .L0 
C:\Users\stapi\AppData\Local\Temp\cc81lQEz.s:1675   .text.app_adv_stop:000000000000005a .L0 
C:\Users\stapi\AppData\Local\Temp\cc81lQEz.s:1677   .text.app_adv_stop:000000000000005c .L0 
C:\Users\stapi\AppData\Local\Temp\cc81lQEz.s:1679   .text.app_adv_stop:000000000000005e .L0 
C:\Users\stapi\AppData\Local\Temp\cc81lQEz.s:1680   .text.app_adv_stop:000000000000005e .L0 
C:\Users\stapi\AppData\Local\Temp\cc81lQEz.s:1684   .text.app_adv_stop:000000000000006c .L0 
C:\Users\stapi\AppData\Local\Temp\cc81lQEz.s:1691   .text.app_adv_restart:0000000000000000 app_adv_restart
C:\Users\stapi\AppData\Local\Temp\cc81lQEz.s:1694   .text.app_adv_restart:0000000000000000 .L0 
C:\Users\stapi\AppData\Local\Temp\cc81lQEz.s:1696   .text.app_adv_restart:0000000000000000 .L0 
C:\Users\stapi\AppData\Local\Temp\cc81lQEz.s:1697   .text.app_adv_restart:0000000000000000 .L0 
C:\Users\stapi\AppData\Local\Temp\cc81lQEz.s:1698   .text.app_adv_restart:0000000000000000 .L0 
C:\Users\stapi\AppData\Local\Temp\cc81lQEz.s:1699   .text.app_adv_restart:0000000000000000 .L0 
C:\Users\stapi\AppData\Local\Temp\cc81lQEz.s:1700   .text.app_adv_restart:0000000000000000 .L0 
C:\Users\stapi\AppData\Local\Temp\cc81lQEz.s:1701   .text.app_adv_restart:0000000000000000 .L0 
C:\Users\stapi\AppData\Local\Temp\cc81lQEz.s:1702   .text.app_adv_restart:0000000000000000 .L0 
C:\Users\stapi\AppData\Local\Temp\cc81lQEz.s:1705   .text.app_adv_restart:0000000000000008 .L0 
C:\Users\stapi\AppData\Local\Temp\cc81lQEz.s:1712   .text.app_adv_restart:000000000000001a .L0 
C:\Users\stapi\AppData\Local\Temp\cc81lQEz.s:1713   .text.app_adv_restart:000000000000001a .L0 
C:\Users\stapi\AppData\Local\Temp\cc81lQEz.s:1714   .text.app_adv_restart:000000000000001a .L0 
C:\Users\stapi\AppData\Local\Temp\cc81lQEz.s:1715   .text.app_adv_restart:000000000000001a .L0 
C:\Users\stapi\AppData\Local\Temp\cc81lQEz.s:1718   .text.app_adv_restart:000000000000001e .L0 
C:\Users\stapi\AppData\Local\Temp\cc81lQEz.s:1720   .text.app_adv_restart:0000000000000022 .L0 
C:\Users\stapi\AppData\Local\Temp\cc81lQEz.s:1724   .text.app_adv_restart:0000000000000024 .L0 
C:\Users\stapi\AppData\Local\Temp\cc81lQEz.s:1725   .text.app_adv_restart:0000000000000024 .L0 
C:\Users\stapi\AppData\Local\Temp\cc81lQEz.s:1726   .text.app_adv_restart:0000000000000024 .L0 
C:\Users\stapi\AppData\Local\Temp\cc81lQEz.s:1727   .text.app_adv_restart:0000000000000024 .L0 
C:\Users\stapi\AppData\Local\Temp\cc81lQEz.s:1728   .text.app_adv_restart:0000000000000024 .L0 
C:\Users\stapi\AppData\Local\Temp\cc81lQEz.s:1735   .text.app_adv_restart:0000000000000036 .L0 
C:\Users\stapi\AppData\Local\Temp\cc81lQEz.s:1740   .text.app_adv_restart:000000000000003a .L0 
C:\Users\stapi\AppData\Local\Temp\cc81lQEz.s:1741   .text.app_adv_restart:000000000000003c .L0 
C:\Users\stapi\AppData\Local\Temp\cc81lQEz.s:1748   .text.app_adv_data_update:0000000000000000 app_adv_data_update
C:\Users\stapi\AppData\Local\Temp\cc81lQEz.s:1751   .text.app_adv_data_update:0000000000000000 .L0 
C:\Users\stapi\AppData\Local\Temp\cc81lQEz.s:1753   .text.app_adv_data_update:0000000000000000 .L0 
C:\Users\stapi\AppData\Local\Temp\cc81lQEz.s:1754   .text.app_adv_data_update:0000000000000008 .L0 
C:\Users\stapi\AppData\Local\Temp\cc81lQEz.s:1755   .text.app_adv_data_update:0000000000000008 .L0 
C:\Users\stapi\AppData\Local\Temp\cc81lQEz.s:1756   .text.app_adv_data_update:0000000000000008 .L0 
C:\Users\stapi\AppData\Local\Temp\cc81lQEz.s:1757   .text.app_adv_data_update:0000000000000008 .L0 
C:\Users\stapi\AppData\Local\Temp\cc81lQEz.s:1758   .text.app_adv_data_update:0000000000000008 .L0 
C:\Users\stapi\AppData\Local\Temp\cc81lQEz.s:1759   .text.app_adv_data_update:0000000000000008 .L0 
C:\Users\stapi\AppData\Local\Temp\cc81lQEz.s:1761   .text.app_adv_data_update:0000000000000008 .L0 
C:\Users\stapi\AppData\Local\Temp\cc81lQEz.s:1763   .text.app_adv_data_update:0000000000000008 .L0 
C:\Users\stapi\AppData\Local\Temp\cc81lQEz.s:1764   .text.app_adv_data_update:0000000000000008 .L0 
C:\Users\stapi\AppData\Local\Temp\cc81lQEz.s:1765   .text.app_adv_data_update:0000000000000008 .L0 
C:\Users\stapi\AppData\Local\Temp\cc81lQEz.s:1766   .text.app_adv_data_update:0000000000000008 .L0 
C:\Users\stapi\AppData\Local\Temp\cc81lQEz.s:1767   .text.app_adv_data_update:0000000000000008 .L0 
C:\Users\stapi\AppData\Local\Temp\cc81lQEz.s:1768   .text.app_adv_data_update:0000000000000008 .L0 
C:\Users\stapi\AppData\Local\Temp\cc81lQEz.s:1769   .text.app_adv_data_update:0000000000000008 .L0 
C:\Users\stapi\AppData\Local\Temp\cc81lQEz.s:1770   .text.app_adv_data_update:0000000000000008 .L0 
C:\Users\stapi\AppData\Local\Temp\cc81lQEz.s:1771   .text.app_adv_data_update:0000000000000008 .L0 
C:\Users\stapi\AppData\Local\Temp\cc81lQEz.s:1772   .text.app_adv_data_update:0000000000000008 .L0 
C:\Users\stapi\AppData\Local\Temp\cc81lQEz.s:1773   .text.app_adv_data_update:0000000000000008 .L0 
C:\Users\stapi\AppData\Local\Temp\cc81lQEz.s:1774   .text.app_adv_data_update:0000000000000008 .L0 
C:\Users\stapi\AppData\Local\Temp\cc81lQEz.s:1775   .text.app_adv_data_update:0000000000000008 .L0 
C:\Users\stapi\AppData\Local\Temp\cc81lQEz.s:1778   .text.app_adv_data_update:0000000000000010 .L0 
C:\Users\stapi\AppData\Local\Temp\cc81lQEz.s:1780   .text.app_adv_data_update:0000000000000014 .L0 
C:\Users\stapi\AppData\Local\Temp\cc81lQEz.s:1781   .text.app_adv_data_update:0000000000000016 .L0 
C:\Users\stapi\AppData\Local\Temp\cc81lQEz.s:1784   .text.app_adv_data_update:000000000000001a .L0 
C:\Users\stapi\AppData\Local\Temp\cc81lQEz.s:1787   .text.app_adv_data_update:000000000000001e .L0 
C:\Users\stapi\AppData\Local\Temp\cc81lQEz.s:1788   .text.app_adv_data_update:000000000000001e .L0 
C:\Users\stapi\AppData\Local\Temp\cc81lQEz.s:1789   .text.app_adv_data_update:000000000000001e .L0 
C:\Users\stapi\AppData\Local\Temp\cc81lQEz.s:1790   .text.app_adv_data_update:000000000000001e .L0 
C:\Users\stapi\AppData\Local\Temp\cc81lQEz.s:1792   .text.app_adv_data_update:0000000000000022 .L0 
C:\Users\stapi\AppData\Local\Temp\cc81lQEz.s:1794   .text.app_adv_data_update:0000000000000026 .L0 
C:\Users\stapi\AppData\Local\Temp\cc81lQEz.s:1796   .text.app_adv_data_update:000000000000002a .L0 
C:\Users\stapi\AppData\Local\Temp\cc81lQEz.s:1800   .text.app_adv_data_update:000000000000002c .L0 
C:\Users\stapi\AppData\Local\Temp\cc81lQEz.s:1801   .text.app_adv_data_update:000000000000002c .L0 
C:\Users\stapi\AppData\Local\Temp\cc81lQEz.s:1802   .text.app_adv_data_update:000000000000002c .L0 
C:\Users\stapi\AppData\Local\Temp\cc81lQEz.s:1803   .text.app_adv_data_update:000000000000002c .L0 
C:\Users\stapi\AppData\Local\Temp\cc81lQEz.s:1804   .text.app_adv_data_update:000000000000002c .L0 
C:\Users\stapi\AppData\Local\Temp\cc81lQEz.s:1808   .text.app_adv_data_update:0000000000000034 .L0 
C:\Users\stapi\AppData\Local\Temp\cc81lQEz.s:1810   .text.app_adv_data_update:0000000000000036 .L0 
C:\Users\stapi\AppData\Local\Temp\cc81lQEz.s:1812   .text.app_adv_data_update:000000000000003a .L0 
C:\Users\stapi\AppData\Local\Temp\cc81lQEz.s:1815   .text.app_adv_data_update:0000000000000040 .L0 
C:\Users\stapi\AppData\Local\Temp\cc81lQEz.s:1816   .text.app_adv_data_update:0000000000000040 .L0 
C:\Users\stapi\AppData\Local\Temp\cc81lQEz.s:1821   .text.app_adv_data_update:0000000000000048 .L0 
C:\Users\stapi\AppData\Local\Temp\cc81lQEz.s:1822   .text.app_adv_data_update:0000000000000048 .L0 
C:\Users\stapi\AppData\Local\Temp\cc81lQEz.s:1830   .text.app_adv_data_update:0000000000000056 .L0 
C:\Users\stapi\AppData\Local\Temp\cc81lQEz.s:1831   .text.app_adv_data_update:0000000000000056 .L0 
C:\Users\stapi\AppData\Local\Temp\cc81lQEz.s:1833   .text.app_adv_data_update:000000000000005a .L0 
C:\Users\stapi\AppData\Local\Temp\cc81lQEz.s:1835   .text.app_adv_data_update:000000000000005c .L0 
C:\Users\stapi\AppData\Local\Temp\cc81lQEz.s:1836   .text.app_adv_data_update:000000000000005c .L0 
C:\Users\stapi\AppData\Local\Temp\cc81lQEz.s:1838   .text.app_adv_data_update:000000000000005e .L0 
C:\Users\stapi\AppData\Local\Temp\cc81lQEz.s:1843   .text.app_adv_data_update:0000000000000066 .L0 
C:\Users\stapi\AppData\Local\Temp\cc81lQEz.s:1849   .text.app_adv_data_update:0000000000000074 .L0 
C:\Users\stapi\AppData\Local\Temp\cc81lQEz.s:1850   .text.app_adv_data_update:0000000000000074 .L0 
C:\Users\stapi\AppData\Local\Temp\cc81lQEz.s:1852   .text.app_adv_data_update:0000000000000076 .L0 
C:\Users\stapi\AppData\Local\Temp\cc81lQEz.s:1854   .text.app_adv_data_update:0000000000000078 .L0 
C:\Users\stapi\AppData\Local\Temp\cc81lQEz.s:1856   .text.app_adv_data_update:000000000000007c .L0 
C:\Users\stapi\AppData\Local\Temp\cc81lQEz.s:1858   .text.app_adv_data_update:0000000000000080 .L0 
C:\Users\stapi\AppData\Local\Temp\cc81lQEz.s:1860   .text.app_adv_data_update:0000000000000084 .L0 
C:\Users\stapi\AppData\Local\Temp\cc81lQEz.s:1861   .text.app_adv_data_update:0000000000000084 .L0 
C:\Users\stapi\AppData\Local\Temp\cc81lQEz.s:1863   .text.app_adv_data_update:0000000000000086 .L0 
C:\Users\stapi\AppData\Local\Temp\cc81lQEz.s:1864   .text.app_adv_data_update:0000000000000086 .L0 
C:\Users\stapi\AppData\Local\Temp\cc81lQEz.s:1865   .text.app_adv_data_update:0000000000000086 .L0 
C:\Users\stapi\AppData\Local\Temp\cc81lQEz.s:1867   .text.app_adv_data_update:0000000000000088 .L0 
C:\Users\stapi\AppData\Local\Temp\cc81lQEz.s:1868   .text.app_adv_data_update:0000000000000088 .L0 
C:\Users\stapi\AppData\Local\Temp\cc81lQEz.s:1869   .text.app_adv_data_update:0000000000000088 .L0 
C:\Users\stapi\AppData\Local\Temp\cc81lQEz.s:1871   .text.app_adv_data_update:000000000000008a .L0 
C:\Users\stapi\AppData\Local\Temp\cc81lQEz.s:1872   .text.app_adv_data_update:000000000000008a .L0 
C:\Users\stapi\AppData\Local\Temp\cc81lQEz.s:1875   .text.app_adv_data_update:0000000000000090 .L0 
C:\Users\stapi\AppData\Local\Temp\cc81lQEz.s:1876   .text.app_adv_data_update:0000000000000090 .L0 
C:\Users\stapi\AppData\Local\Temp\cc81lQEz.s:1878   .text.app_adv_data_update:0000000000000094 .L0 
C:\Users\stapi\AppData\Local\Temp\cc81lQEz.s:1881   .text.app_adv_data_update:0000000000000096 .L0 
C:\Users\stapi\AppData\Local\Temp\cc81lQEz.s:1883   .text.app_adv_data_update:0000000000000098 .L0 
C:\Users\stapi\AppData\Local\Temp\cc81lQEz.s:1884   .text.app_adv_data_update:0000000000000098 .L0 
C:\Users\stapi\AppData\Local\Temp\cc81lQEz.s:1887   .text.app_adv_data_update:000000000000009c .L0 
C:\Users\stapi\AppData\Local\Temp\cc81lQEz.s:1888   .text.app_adv_data_update:000000000000009c .L0 
C:\Users\stapi\AppData\Local\Temp\cc81lQEz.s:1891   .text.app_adv_data_update:00000000000000a2 .L0 
C:\Users\stapi\AppData\Local\Temp\cc81lQEz.s:1892   .text.app_adv_data_update:00000000000000a2 .L0 
C:\Users\stapi\AppData\Local\Temp\cc81lQEz.s:1895   .text.app_adv_data_update:00000000000000a6 .L0 
C:\Users\stapi\AppData\Local\Temp\cc81lQEz.s:1896   .text.app_adv_data_update:00000000000000a6 .L0 
C:\Users\stapi\AppData\Local\Temp\cc81lQEz.s:1900   .text.app_adv_data_update:00000000000000ae .L0 
C:\Users\stapi\AppData\Local\Temp\cc81lQEz.s:1903   .text.app_adv_data_update:00000000000000b4 .L0 
C:\Users\stapi\AppData\Local\Temp\cc81lQEz.s:1904   .text.app_adv_data_update:00000000000000b4 .L0 
C:\Users\stapi\AppData\Local\Temp\cc81lQEz.s:1912   .text.app_adv_data_update:00000000000000c6 .L0 
C:\Users\stapi\AppData\Local\Temp\cc81lQEz.s:1916   .text.app_adv_data_update:00000000000000c8 .L0 
C:\Users\stapi\AppData\Local\Temp\cc81lQEz.s:1921   .text.app_adv_data_update:00000000000000d2 .L0 
C:\Users\stapi\AppData\Local\Temp\cc81lQEz.s:1923   .text.app_adv_data_update:00000000000000d6 .L0 
C:\Users\stapi\AppData\Local\Temp\cc81lQEz.s:1924   .text.app_adv_data_update:00000000000000d6 .L0 
C:\Users\stapi\AppData\Local\Temp\cc81lQEz.s:1926   .text.app_adv_data_update:00000000000000de .L0 
C:\Users\stapi\AppData\Local\Temp\cc81lQEz.s:1927   .text.app_adv_data_update:00000000000000de .L0 
C:\Users\stapi\AppData\Local\Temp\cc81lQEz.s:1928   .text.app_adv_data_update:00000000000000de .L0 
C:\Users\stapi\AppData\Local\Temp\cc81lQEz.s:1929   .text.app_adv_data_update:00000000000000de .L0 
C:\Users\stapi\AppData\Local\Temp\cc81lQEz.s:1930   .text.app_adv_data_update:00000000000000de .L0 
C:\Users\stapi\AppData\Local\Temp\cc81lQEz.s:1931   .text.app_adv_data_update:00000000000000de .L0 
C:\Users\stapi\AppData\Local\Temp\cc81lQEz.s:1934   .text.app_adv_data_update:00000000000000de .L0 
C:\Users\stapi\AppData\Local\Temp\cc81lQEz.s:1936   .text.app_adv_data_update:00000000000000de .L0 
C:\Users\stapi\AppData\Local\Temp\cc81lQEz.s:1941   .text.app_adv_data_update:00000000000000e2 .L0 
C:\Users\stapi\AppData\Local\Temp\cc81lQEz.s:1942   .text.app_adv_data_update:00000000000000e2 .L0 
C:\Users\stapi\AppData\Local\Temp\cc81lQEz.s:1944   .text.app_adv_data_update:00000000000000e4 .L0 
C:\Users\stapi\AppData\Local\Temp\cc81lQEz.s:1945   .text.app_adv_data_update:00000000000000e4 .L0 
C:\Users\stapi\AppData\Local\Temp\cc81lQEz.s:1950   .text.app_adv_data_update:00000000000000ea .L0 
C:\Users\stapi\AppData\Local\Temp\cc81lQEz.s:1951   .text.app_adv_data_update:00000000000000ea .L0 
C:\Users\stapi\AppData\Local\Temp\cc81lQEz.s:1953   .text.app_adv_data_update:00000000000000ec .L0 
C:\Users\stapi\AppData\Local\Temp\cc81lQEz.s:1955   .text.app_adv_data_update:00000000000000f0 .L0 
C:\Users\stapi\AppData\Local\Temp\cc81lQEz.s:1957   .text.app_adv_data_update:00000000000000f4 .L0 
C:\Users\stapi\AppData\Local\Temp\cc81lQEz.s:1958   .text.app_adv_data_update:00000000000000f4 .L0 
C:\Users\stapi\AppData\Local\Temp\cc81lQEz.s:1965   .text.app_adv_data_update:0000000000000108 .L0 
C:\Users\stapi\AppData\Local\Temp\cc81lQEz.s:1972   .text.app_adv_data_update_all:0000000000000000 app_adv_data_update_all
C:\Users\stapi\AppData\Local\Temp\cc81lQEz.s:1975   .text.app_adv_data_update_all:0000000000000000 .L0 
C:\Users\stapi\AppData\Local\Temp\cc81lQEz.s:1976   .text.app_adv_data_update_all:0000000000000000 .L0 
C:\Users\stapi\AppData\Local\Temp\cc81lQEz.s:1977   .text.app_adv_data_update_all:0000000000000008 .L0 
C:\Users\stapi\AppData\Local\Temp\cc81lQEz.s:1978   .text.app_adv_data_update_all:0000000000000008 .L0 
C:\Users\stapi\AppData\Local\Temp\cc81lQEz.s:1981   .text.app_adv_data_update_all:0000000000000008 .L0 
C:\Users\stapi\AppData\Local\Temp\cc81lQEz.s:1982   .text.app_adv_data_update_all:0000000000000008 .L0 
C:\Users\stapi\AppData\Local\Temp\cc81lQEz.s:1983   .text.app_adv_data_update_all:0000000000000008 .L0 
C:\Users\stapi\AppData\Local\Temp\cc81lQEz.s:1984   .text.app_adv_data_update_all:0000000000000008 .L0 
C:\Users\stapi\AppData\Local\Temp\cc81lQEz.s:1988   .text.app_adv_data_update_all:0000000000000012 .L0 
C:\Users\stapi\AppData\Local\Temp\cc81lQEz.s:1989   .text.app_adv_data_update_all:0000000000000012 .L0 
C:\Users\stapi\AppData\Local\Temp\cc81lQEz.s:1990   .text.app_adv_data_update_all:0000000000000012 .L0 
C:\Users\stapi\AppData\Local\Temp\cc81lQEz.s:1994   .text.app_adv_data_update_all:000000000000001c .L0 
C:\Users\stapi\AppData\Local\Temp\cc81lQEz.s:1995   .text.app_adv_data_update_all:000000000000001c .L0 
C:\Users\stapi\AppData\Local\Temp\cc81lQEz.s:1996   .text.app_adv_data_update_all:000000000000001c .L0 
C:\Users\stapi\AppData\Local\Temp\cc81lQEz.s:1997   .text.app_adv_data_update_all:0000000000000024 .L0 
C:\Users\stapi\AppData\Local\Temp\cc81lQEz.s:1998   .text.app_adv_data_update_all:0000000000000024 .L0 
C:\Users\stapi\AppData\Local\Temp\cc81lQEz.s:1999   .text.app_adv_data_update_all:0000000000000024 .L0 
C:\Users\stapi\AppData\Local\Temp\cc81lQEz.s:2006   .text.app_set_adv_data_type:0000000000000000 app_set_adv_data_type
C:\Users\stapi\AppData\Local\Temp\cc81lQEz.s:2009   .text.app_set_adv_data_type:0000000000000000 .L0 
C:\Users\stapi\AppData\Local\Temp\cc81lQEz.s:2011   .text.app_set_adv_data_type:0000000000000000 .L0 
C:\Users\stapi\AppData\Local\Temp\cc81lQEz.s:2012   .text.app_set_adv_data_type:0000000000000000 .L0 
C:\Users\stapi\AppData\Local\Temp\cc81lQEz.s:2013   .text.app_set_adv_data_type:0000000000000000 .L0 
C:\Users\stapi\AppData\Local\Temp\cc81lQEz.s:2016   .text.app_set_adv_data_type:0000000000000008 .L0 
C:\Users\stapi\AppData\Local\Temp\cc81lQEz.s:2017   .text.app_set_adv_data_type:000000000000000a .L0 
C:\Users\stapi\AppData\Local\Temp\cc81lQEz.s:2024   .text.app_adv_mgr_reset:0000000000000000 app_adv_mgr_reset
C:\Users\stapi\AppData\Local\Temp\cc81lQEz.s:2027   .text.app_adv_mgr_reset:0000000000000000 .L0 
C:\Users\stapi\AppData\Local\Temp\cc81lQEz.s:2028   .text.app_adv_mgr_reset:0000000000000000 .L0 
C:\Users\stapi\AppData\Local\Temp\cc81lQEz.s:2029   .text.app_adv_mgr_reset:0000000000000008 .L0 
C:\Users\stapi\AppData\Local\Temp\cc81lQEz.s:2030   .text.app_adv_mgr_reset:0000000000000008 .L0 
C:\Users\stapi\AppData\Local\Temp\cc81lQEz.s:2031   .text.app_adv_mgr_reset:0000000000000008 .L0 
C:\Users\stapi\AppData\Local\Temp\cc81lQEz.s:2033   .text.app_adv_mgr_reset:0000000000000008 .L0 
C:\Users\stapi\AppData\Local\Temp\cc81lQEz.s:2034   .text.app_adv_mgr_reset:0000000000000008 .L0 
C:\Users\stapi\AppData\Local\Temp\cc81lQEz.s:2042   .text.app_adv_mgr_reset:0000000000000022 .L0 
C:\Users\stapi\AppData\Local\Temp\cc81lQEz.s:2043   .text.app_adv_mgr_reset:0000000000000022 .L0 
C:\Users\stapi\AppData\Local\Temp\cc81lQEz.s:2044   .text.app_adv_mgr_reset:0000000000000022 .L0 
C:\Users\stapi\AppData\Local\Temp\cc81lQEz.s:2045   .text.app_adv_mgr_reset:0000000000000022 .L0 
C:\Users\stapi\AppData\Local\Temp\cc81lQEz.s:2047   .text.app_adv_mgr_reset:0000000000000024 .L0 
C:\Users\stapi\AppData\Local\Temp\cc81lQEz.s:2049   .text.app_adv_mgr_reset:0000000000000028 .L0 
C:\Users\stapi\AppData\Local\Temp\cc81lQEz.s:2051   .text.app_adv_mgr_reset:000000000000002c .L0 
C:\Users\stapi\AppData\Local\Temp\cc81lQEz.s:2052   .text.app_adv_mgr_reset:000000000000002c .L0 
C:\Users\stapi\AppData\Local\Temp\cc81lQEz.s:2053   .text.app_adv_mgr_reset:000000000000002c .L0 
C:\Users\stapi\AppData\Local\Temp\cc81lQEz.s:2054   .text.app_adv_mgr_reset:000000000000002c .L0 
C:\Users\stapi\AppData\Local\Temp\cc81lQEz.s:2055   .text.app_adv_mgr_reset:000000000000002c .L0 
C:\Users\stapi\AppData\Local\Temp\cc81lQEz.s:2057   .text.app_adv_mgr_reset:0000000000000030 .L0 
C:\Users\stapi\AppData\Local\Temp\cc81lQEz.s:2058   .text.app_adv_mgr_reset:0000000000000030 .L0 
C:\Users\stapi\AppData\Local\Temp\cc81lQEz.s:2059   .text.app_adv_mgr_reset:0000000000000030 .L0 
C:\Users\stapi\AppData\Local\Temp\cc81lQEz.s:2061   .text.app_adv_mgr_reset:0000000000000030 .L0 
C:\Users\stapi\AppData\Local\Temp\cc81lQEz.s:2062   .text.app_adv_mgr_reset:0000000000000030 .L0 
C:\Users\stapi\AppData\Local\Temp\cc81lQEz.s:2063   .text.app_adv_mgr_reset:0000000000000030 .L0 
C:\Users\stapi\AppData\Local\Temp\cc81lQEz.s:2064   .text.app_adv_mgr_reset:0000000000000030 .L0 
C:\Users\stapi\AppData\Local\Temp\cc81lQEz.s:2066   .text.app_adv_mgr_reset:0000000000000034 .L0 
C:\Users\stapi\AppData\Local\Temp\cc81lQEz.s:2067   .text.app_adv_mgr_reset:0000000000000034 .L0 
C:\Users\stapi\AppData\Local\Temp\cc81lQEz.s:2068   .text.app_adv_mgr_reset:0000000000000034 .L0 
C:\Users\stapi\AppData\Local\Temp\cc81lQEz.s:2069   .text.app_adv_mgr_reset:0000000000000034 .L0 
C:\Users\stapi\AppData\Local\Temp\cc81lQEz.s:2070   .text.app_adv_mgr_reset:0000000000000034 .L0 
C:\Users\stapi\AppData\Local\Temp\cc81lQEz.s:2072   .text.app_adv_mgr_reset:0000000000000038 .L0 
C:\Users\stapi\AppData\Local\Temp\cc81lQEz.s:2073   .text.app_adv_mgr_reset:0000000000000038 .L0 
C:\Users\stapi\AppData\Local\Temp\cc81lQEz.s:2074   .text.app_adv_mgr_reset:0000000000000038 .L0 
C:\Users\stapi\AppData\Local\Temp\cc81lQEz.s:2076   .text.app_adv_mgr_reset:0000000000000038 .L0 
C:\Users\stapi\AppData\Local\Temp\cc81lQEz.s:2077   .text.app_adv_mgr_reset:0000000000000038 .L0 
C:\Users\stapi\AppData\Local\Temp\cc81lQEz.s:2078   .text.app_adv_mgr_reset:0000000000000038 .L0 
C:\Users\stapi\AppData\Local\Temp\cc81lQEz.s:2079   .text.app_adv_mgr_reset:0000000000000040 .L0 
C:\Users\stapi\AppData\Local\Temp\cc81lQEz.s:2080   .text.app_adv_mgr_reset:0000000000000040 .L0 
C:\Users\stapi\AppData\Local\Temp\cc81lQEz.s:2081   .text.app_adv_mgr_reset:0000000000000040 .L0 
C:\Users\stapi\AppData\Local\Temp\cc81lQEz.s:2082   .text.app_adv_mgr_reset:0000000000000040 .L0 
C:\Users\stapi\AppData\Local\Temp\cc81lQEz.s:2089   .text.app_adv_mgr_init:0000000000000000 app_adv_mgr_init
C:\Users\stapi\AppData\Local\Temp\cc81lQEz.s:2092   .text.app_adv_mgr_init:0000000000000000 .L0 
C:\Users\stapi\AppData\Local\Temp\cc81lQEz.s:2093   .text.app_adv_mgr_init:0000000000000000 .L0 
C:\Users\stapi\AppData\Local\Temp\cc81lQEz.s:2094   .text.app_adv_mgr_init:0000000000000000 .L0 
C:\Users\stapi\AppData\Local\Temp\cc81lQEz.s:2096   .text.app_adv_mgr_init:0000000000000008 .L0 
C:\Users\stapi\AppData\Local\Temp\cc81lQEz.s:2103   .text.app_adv_mgr_deinit:0000000000000000 app_adv_mgr_deinit
C:\Users\stapi\AppData\Local\Temp\cc81lQEz.s:2105   .text.app_adv_mgr_deinit:0000000000000000 .L0 
C:\Users\stapi\AppData\Local\Temp\cc81lQEz.s:2107   .text.app_adv_mgr_deinit:0000000000000008 .L0 
C:\Users\stapi\AppData\Local\Temp\cc81lQEz.s:2112   .bss.app_adv_env:0000000000000000 .LANCHOR0
C:\Users\stapi\AppData\Local\Temp\cc81lQEz.s:2115   .bss.app_adv_env:0000000000000000 app_adv_env
C:\Users\stapi\AppData\Local\Temp\cc81lQEz.s:2119   .data.bqb_adv_data_1:0000000000000000 .LANCHOR3
C:\Users\stapi\AppData\Local\Temp\cc81lQEz.s:2122   .data.bqb_adv_data_1:0000000000000000 bqb_adv_data_1
C:\Users\stapi\AppData\Local\Temp\cc81lQEz.s:2129   .data.bqb_adv_data_2:0000000000000000 .LANCHOR4
C:\Users\stapi\AppData\Local\Temp\cc81lQEz.s:2132   .data.bqb_adv_data_2:0000000000000000 bqb_adv_data_2
C:\Users\stapi\AppData\Local\Temp\cc81lQEz.s:2138   .data.bqb_adv_data_3:0000000000000000 .LANCHOR7
C:\Users\stapi\AppData\Local\Temp\cc81lQEz.s:2141   .data.bqb_adv_data_3:0000000000000000 bqb_adv_data_3
C:\Users\stapi\AppData\Local\Temp\cc81lQEz.s:2147   .data.bqb_adv_data_4:0000000000000000 .LANCHOR8
C:\Users\stapi\AppData\Local\Temp\cc81lQEz.s:2150   .data.bqb_adv_data_4:0000000000000000 bqb_adv_data_4
C:\Users\stapi\AppData\Local\Temp\cc81lQEz.s:2155   .data.bqb_per_adv_data_2:0000000000000000 .LANCHOR6
C:\Users\stapi\AppData\Local\Temp\cc81lQEz.s:2158   .data.bqb_per_adv_data_2:0000000000000000 bqb_per_adv_data_2
C:\Users\stapi\AppData\Local\Temp\cc81lQEz.s:2164   .data.bqb_scan_rsp_data_2:0000000000000000 .LANCHOR5
C:\Users\stapi\AppData\Local\Temp\cc81lQEz.s:2167   .data.bqb_scan_rsp_data_2:0000000000000000 bqb_scan_rsp_data_2
C:\Users\stapi\AppData\Local\Temp\cc81lQEz.s:2173   .data.per_data_1:0000000000000000 .LANCHOR2
C:\Users\stapi\AppData\Local\Temp\cc81lQEz.s:2176   .data.per_data_1:0000000000000000 per_data_1
C:\Users\stapi\AppData\Local\Temp\cc81lQEz.s:2192   .data.url:0000000000000000 .LANCHOR11
C:\Users\stapi\AppData\Local\Temp\cc81lQEz.s:2195   .data.url:0000000000000000 url
C:\Users\stapi\AppData\Local\Temp\cc81lQEz.s:2199   .sdata.adv_data_1:0000000000000000 .LANCHOR1
C:\Users\stapi\AppData\Local\Temp\cc81lQEz.s:2202   .sdata.adv_data_1:0000000000000000 adv_data_1
C:\Users\stapi\AppData\Local\Temp\cc81lQEz.s:2206   .sdata.adv_data_hogp:0000000000000000 .LANCHOR9
C:\Users\stapi\AppData\Local\Temp\cc81lQEz.s:2209   .sdata.adv_data_hogp:0000000000000000 adv_data_hogp
C:\Users\stapi\AppData\Local\Temp\cc81lQEz.s:2213   .sdata.service_data:0000000000000000 .LANCHOR10
C:\Users\stapi\AppData\Local\Temp\cc81lQEz.s:2216   .sdata.service_data:0000000000000000 service_data
C:\Users\stapi\AppData\Local\Temp\cc81lQEz.s:284    .text.app_build_adv_data:0000000000000118 .L0 
C:\Users\stapi\AppData\Local\Temp\cc81lQEz.s:983    .text.app_adv_start:000000000000036c .L0 
C:\Users\stapi\AppData\Local\Temp\cc81lQEz.s:1191   .text.app_adv_mgr_evt_hdlr:000000000000011e .L0 
C:\Users\stapi\AppData\Local\Temp\cc81lQEz.s:1587   .text.app_adv_create:00000000000001ec .L0 
C:\Users\stapi\AppData\Local\Temp\cc81lQEz.s:1687   .text.app_adv_stop:000000000000006c .L0 
C:\Users\stapi\AppData\Local\Temp\cc81lQEz.s:1744   .text.app_adv_restart:000000000000003c .L0 
C:\Users\stapi\AppData\Local\Temp\cc81lQEz.s:1968   .text.app_adv_data_update:0000000000000108 .L0 
C:\Users\stapi\AppData\Local\Temp\cc81lQEz.s:2002   .text.app_adv_data_update_all:0000000000000024 .L0 
C:\Users\stapi\AppData\Local\Temp\cc81lQEz.s:2020   .text.app_set_adv_data_type:000000000000000a .L0 
C:\Users\stapi\AppData\Local\Temp\cc81lQEz.s:2085   .text.app_adv_mgr_reset:0000000000000040 .L0 
C:\Users\stapi\AppData\Local\Temp\cc81lQEz.s:2099   .text.app_adv_mgr_init:0000000000000008 .L0 
                     .debug_frame:0000000000000000 .L0 
C:\Users\stapi\AppData\Local\Temp\cc81lQEz.s:145    .text.app_build_adv_data:000000000000006e .L15
C:\Users\stapi\AppData\Local\Temp\cc81lQEz.s:115    .text.app_build_adv_data:000000000000005c .L3
C:\Users\stapi\AppData\Local\Temp\cc81lQEz.s:135    .text.app_build_adv_data:0000000000000066 .L4
C:\Users\stapi\AppData\Local\Temp\cc81lQEz.s:149    .text.app_build_adv_data:0000000000000072 .L6
C:\Users\stapi\AppData\Local\Temp\cc81lQEz.s:93     .text.app_build_adv_data:0000000000000044 .L5
C:\Users\stapi\AppData\Local\Temp\cc81lQEz.s:89     .text.app_build_adv_data:0000000000000040 .L21
C:\Users\stapi\AppData\Local\Temp\cc81lQEz.s:104    .text.app_build_adv_data:000000000000004e .L2
C:\Users\stapi\AppData\Local\Temp\cc81lQEz.s:165    .text.app_build_adv_data:000000000000008c .L7
C:\Users\stapi\AppData\Local\Temp\cc81lQEz.s:178    .text.app_build_adv_data:000000000000009c .L8
C:\Users\stapi\AppData\Local\Temp\cc81lQEz.s:109    .text.app_build_adv_data:0000000000000054 .L22
C:\Users\stapi\AppData\Local\Temp\cc81lQEz.s:222    .text.app_build_adv_data:00000000000000d8 .L10
C:\Users\stapi\AppData\Local\Temp\cc81lQEz.s:263    .text.app_build_adv_data:0000000000000102 .L12
C:\Users\stapi\AppData\Local\Temp\cc81lQEz.s:214    .text.app_build_adv_data:00000000000000ca .L9
C:\Users\stapi\AppData\Local\Temp\cc81lQEz.s:251    .text.app_build_adv_data:00000000000000f4 .L11
C:\Users\stapi\AppData\Local\Temp\cc81lQEz.s:343    .rodata.app_adv_start:0000000000000000 .L26
C:\Users\stapi\AppData\Local\Temp\cc81lQEz.s:910    .text.app_adv_start:0000000000000318 .L24
C:\Users\stapi\AppData\Local\Temp\cc81lQEz.s:490    .text.app_adv_start:00000000000000fa .L50
C:\Users\stapi\AppData\Local\Temp\cc81lQEz.s:497    .text.app_adv_start:0000000000000108 .L23
C:\Users\stapi\AppData\Local\Temp\cc81lQEz.s:380    .text.app_adv_start:0000000000000072 .L54
C:\Users\stapi\AppData\Local\Temp\cc81lQEz.s:479    .text.app_adv_start:00000000000000ee .L52
C:\Users\stapi\AppData\Local\Temp\cc81lQEz.s:645    .text.app_adv_start:00000000000001be .L36
C:\Users\stapi\AppData\Local\Temp\cc81lQEz.s:736    .text.app_adv_start:0000000000000232 .L37
C:\Users\stapi\AppData\Local\Temp\cc81lQEz.s:485    .text.app_adv_start:00000000000000f4 .L51
C:\Users\stapi\AppData\Local\Temp\cc81lQEz.s:971    .text.app_adv_start:0000000000000362 .L39
C:\Users\stapi\AppData\Local\Temp\cc81lQEz.s:449    .text.app_adv_start:00000000000000c2 .L53
C:\Users\stapi\AppData\Local\Temp\cc81lQEz.s:964    .text.app_adv_start:000000000000035c .L40
C:\Users\stapi\AppData\Local\Temp\cc81lQEz.s:353    .text.app_adv_start:000000000000004a .L33
C:\Users\stapi\AppData\Local\Temp\cc81lQEz.s:393    .text.app_adv_start:000000000000007e .L32
C:\Users\stapi\AppData\Local\Temp\cc81lQEz.s:468    .text.app_adv_start:00000000000000e0 .L31
C:\Users\stapi\AppData\Local\Temp\cc81lQEz.s:508    .text.app_adv_start:0000000000000112 .L30
C:\Users\stapi\AppData\Local\Temp\cc81lQEz.s:550    .text.app_adv_start:000000000000014a .L29
C:\Users\stapi\AppData\Local\Temp\cc81lQEz.s:563    .text.app_adv_start:000000000000015a .L28
C:\Users\stapi\AppData\Local\Temp\cc81lQEz.s:576    .text.app_adv_start:000000000000016a .L27
C:\Users\stapi\AppData\Local\Temp\cc81lQEz.s:589    .text.app_adv_start:000000000000017a .L25
C:\Users\stapi\AppData\Local\Temp\cc81lQEz.s:985    .rodata.app_adv_mgr_evt_hdlr.str1.4:0000000000000000 .LC0
C:\Users\stapi\AppData\Local\Temp\cc81lQEz.s:988    .rodata.app_adv_mgr_evt_hdlr.str1.4:0000000000000030 .LC1
C:\Users\stapi\AppData\Local\Temp\cc81lQEz.s:991    .rodata.app_adv_mgr_evt_hdlr.str1.4:0000000000000040 .LC2
C:\Users\stapi\AppData\Local\Temp\cc81lQEz.s:994    .rodata.app_adv_mgr_evt_hdlr.str1.4:000000000000005c .LC3
C:\Users\stapi\AppData\Local\Temp\cc81lQEz.s:997    .rodata.app_adv_mgr_evt_hdlr.str1.4:0000000000000088 .LC4
C:\Users\stapi\AppData\Local\Temp\cc81lQEz.s:1140   .text.app_adv_mgr_evt_hdlr:00000000000000c2 .L56
C:\Users\stapi\AppData\Local\Temp\cc81lQEz.s:1163   .text.app_adv_mgr_evt_hdlr:00000000000000e8 .L57
C:\Users\stapi\AppData\Local\Temp\cc81lQEz.s:1080   .text.app_adv_mgr_evt_hdlr:0000000000000076 .L55
C:\Users\stapi\AppData\Local\Temp\cc81lQEz.s:1050   .text.app_adv_mgr_evt_hdlr:0000000000000044 .L59
C:\Users\stapi\AppData\Local\Temp\cc81lQEz.s:1123   .text.app_adv_mgr_evt_hdlr:00000000000000b8 .L60
C:\Users\stapi\AppData\Local\Temp\cc81lQEz.s:1092   .text.app_adv_mgr_evt_hdlr:000000000000007e .L61
C:\Users\stapi\AppData\Local\Temp\cc81lQEz.s:1109   .text.app_adv_mgr_evt_hdlr:00000000000000a0 .L63
C:\Users\stapi\AppData\Local\Temp\cc81lQEz.s:1409   .text.app_adv_create:000000000000011c .L87
C:\Users\stapi\AppData\Local\Temp\cc81lQEz.s:1394   .text.app_adv_create:0000000000000112 .L69
C:\Users\stapi\AppData\Local\Temp\cc81lQEz.s:1426   .text.app_adv_create:000000000000012a .L72
C:\Users\stapi\AppData\Local\Temp\cc81lQEz.s:1417   .text.app_adv_create:0000000000000120 .L73
C:\Users\stapi\AppData\Local\Temp\cc81lQEz.s:1344   .text.app_adv_create:00000000000000c2 .L83
C:\Users\stapi\AppData\Local\Temp\cc81lQEz.s:1352   .text.app_adv_create:00000000000000ce .L84
C:\Users\stapi\AppData\Local\Temp\cc81lQEz.s:1376   .text.app_adv_create:00000000000000f2 .L85
C:\Users\stapi\AppData\Local\Temp\cc81lQEz.s:1385   .text.app_adv_create:00000000000000fe .L86
C:\Users\stapi\AppData\Local\Temp\cc81lQEz.s:1255   .text.app_adv_create:0000000000000042 .L70
C:\Users\stapi\AppData\Local\Temp\cc81lQEz.s:1306   .text.app_adv_create:000000000000007c .L74
C:\Users\stapi\AppData\Local\Temp\cc81lQEz.s:1504   .text.app_adv_create:000000000000018c .L76
C:\Users\stapi\AppData\Local\Temp\cc81lQEz.s:1490   .text.app_adv_create:000000000000017c .L77
C:\Users\stapi\AppData\Local\Temp\cc81lQEz.s:1497   .text.app_adv_create:0000000000000186 .L79
C:\Users\stapi\AppData\Local\Temp\cc81lQEz.s:1315   .text.app_adv_create:000000000000008a .L75
C:\Users\stapi\AppData\Local\Temp\cc81lQEz.s:1448   .text.app_adv_create:0000000000000148 .L78
C:\Users\stapi\AppData\Local\Temp\cc81lQEz.s:1477   .text.app_adv_create:000000000000016a .L80
C:\Users\stapi\AppData\Local\Temp\cc81lQEz.s:1575   .text.app_adv_create:00000000000001e6 .L81
C:\Users\stapi\AppData\Local\Temp\cc81lQEz.s:1555   .text.app_adv_create:00000000000001c8 .L82
C:\Users\stapi\AppData\Local\Temp\cc81lQEz.s:1666   .text.app_adv_stop:0000000000000056 .L104
C:\Users\stapi\AppData\Local\Temp\cc81lQEz.s:1657   .text.app_adv_stop:000000000000004e .L100
C:\Users\stapi\AppData\Local\Temp\cc81lQEz.s:1672   .text.app_adv_stop:000000000000005a .L103
C:\Users\stapi\AppData\Local\Temp\cc81lQEz.s:1632   .text.app_adv_stop:000000000000002e .L101
C:\Users\stapi\AppData\Local\Temp\cc81lQEz.s:1733   .text.app_adv_restart:0000000000000036 .L112
C:\Users\stapi\AppData\Local\Temp\cc81lQEz.s:1738   .text.app_adv_restart:000000000000003a .L115
C:\Users\stapi\AppData\Local\Temp\cc81lQEz.s:1722   .text.app_adv_restart:0000000000000024 .L110
C:\Users\stapi\AppData\Local\Temp\cc81lQEz.s:1933   .text.app_adv_data_update:00000000000000de .L125
C:\Users\stapi\AppData\Local\Temp\cc81lQEz.s:1919   .text.app_adv_data_update:00000000000000d2 .L117
C:\Users\stapi\AppData\Local\Temp\cc81lQEz.s:1819   .text.app_adv_data_update:0000000000000048 .L120
C:\Users\stapi\AppData\Local\Temp\cc81lQEz.s:1939   .text.app_adv_data_update:00000000000000e2 .L121
C:\Users\stapi\AppData\Local\Temp\cc81lQEz.s:1948   .text.app_adv_data_update:00000000000000ea .L123
C:\Users\stapi\AppData\Local\Temp\cc81lQEz.s:1798   .text.app_adv_data_update:000000000000002c .L118
C:\Users\stapi\AppData\Local\Temp\cc81lQEz.s:1885   .text.app_adv_data_update:000000000000009c .L122
C:\Users\stapi\AppData\Local\Temp\cc81lQEz.s:1914   .text.app_adv_data_update:00000000000000c8 .L124
C:\Users\stapi\AppData\Local\Temp\cc81lQEz.s:1910   .text.app_adv_data_update:00000000000000c6 .L130
C:\Users\stapi\AppData\Local\Temp\cc81lQEz.s:5894   .debug_abbrev:0000000000000000 .Ldebug_abbrev0
C:\Users\stapi\AppData\Local\Temp\cc81lQEz.s:8142   .debug_str:0000000000001016 .LASF430
C:\Users\stapi\AppData\Local\Temp\cc81lQEz.s:8574   .debug_str:000000000000232e .LASF431
C:\Users\stapi\AppData\Local\Temp\cc81lQEz.s:7940   .debug_str:00000000000006ce .LASF432
C:\Users\stapi\AppData\Local\Temp\cc81lQEz.s:7694   .debug_ranges:0000000000000000 .Ldebug_ranges0
C:\Users\stapi\AppData\Local\Temp\cc81lQEz.s:7766   .debug_line:0000000000000000 .Ldebug_line0
C:\Users\stapi\AppData\Local\Temp\cc81lQEz.s:8246   .debug_str:000000000000154c .LASF0
C:\Users\stapi\AppData\Local\Temp\cc81lQEz.s:8336   .debug_str:0000000000001911 .LASF2
C:\Users\stapi\AppData\Local\Temp\cc81lQEz.s:7924   .debug_str:000000000000063f .LASF1
C:\Users\stapi\AppData\Local\Temp\cc81lQEz.s:7862   .debug_str:00000000000003a3 .LASF3
C:\Users\stapi\AppData\Local\Temp\cc81lQEz.s:7962   .debug_str:0000000000000828 .LASF4
C:\Users\stapi\AppData\Local\Temp\cc81lQEz.s:8480   .debug_str:0000000000001f35 .LASF5
C:\Users\stapi\AppData\Local\Temp\cc81lQEz.s:8014   .debug_str:0000000000000a71 .LASF6
C:\Users\stapi\AppData\Local\Temp\cc81lQEz.s:8586   .debug_str:000000000000243f .LASF7
C:\Users\stapi\AppData\Local\Temp\cc81lQEz.s:7880   .debug_str:0000000000000452 .LASF8
C:\Users\stapi\AppData\Local\Temp\cc81lQEz.s:8192   .debug_str:0000000000001319 .LASF9
C:\Users\stapi\AppData\Local\Temp\cc81lQEz.s:8122   .debug_str:0000000000000f62 .LASF10
C:\Users\stapi\AppData\Local\Temp\cc81lQEz.s:8202   .debug_str:0000000000001379 .LASF11
C:\Users\stapi\AppData\Local\Temp\cc81lQEz.s:8344   .debug_str:000000000000195c .LASF12
C:\Users\stapi\AppData\Local\Temp\cc81lQEz.s:8000   .debug_str:00000000000009ed .LASF13
C:\Users\stapi\AppData\Local\Temp\cc81lQEz.s:7774   .debug_str:0000000000000031 .LASF14
C:\Users\stapi\AppData\Local\Temp\cc81lQEz.s:7926   .debug_str:000000000000064b .LASF15
C:\Users\stapi\AppData\Local\Temp\cc81lQEz.s:8358   .debug_str:0000000000001a05 .LASF16
C:\Users\stapi\AppData\Local\Temp\cc81lQEz.s:8566   .debug_str:00000000000022cf .LASF17
C:\Users\stapi\AppData\Local\Temp\cc81lQEz.s:8636   .debug_str:0000000000002678 .LASF18
C:\Users\stapi\AppData\Local\Temp\cc81lQEz.s:7804   .debug_str:0000000000000168 .LASF19
C:\Users\stapi\AppData\Local\Temp\cc81lQEz.s:7876   .debug_str:0000000000000422 .LASF20
C:\Users\stapi\AppData\Local\Temp\cc81lQEz.s:8268   .debug_str:0000000000001629 .LASF21
C:\Users\stapi\AppData\Local\Temp\cc81lQEz.s:8560   .debug_str:000000000000229b .LASF22
C:\Users\stapi\AppData\Local\Temp\cc81lQEz.s:8608   .debug_str:000000000000255e .LASF23
C:\Users\stapi\AppData\Local\Temp\cc81lQEz.s:7836   .debug_str:00000000000002ab .LASF24
C:\Users\stapi\AppData\Local\Temp\cc81lQEz.s:7830   .debug_str:0000000000000298 .LASF25
C:\Users\stapi\AppData\Local\Temp\cc81lQEz.s:8626   .debug_str:0000000000002614 .LASF26
C:\Users\stapi\AppData\Local\Temp\cc81lQEz.s:8312   .debug_str:0000000000001811 .LASF27
C:\Users\stapi\AppData\Local\Temp\cc81lQEz.s:7882   .debug_str:000000000000045b .LASF28
C:\Users\stapi\AppData\Local\Temp\cc81lQEz.s:8030   .debug_str:0000000000000b3a .LASF29
C:\Users\stapi\AppData\Local\Temp\cc81lQEz.s:7826   .debug_str:000000000000026e .LASF30
C:\Users\stapi\AppData\Local\Temp\cc81lQEz.s:8596   .debug_str:00000000000024b3 .LASF31
C:\Users\stapi\AppData\Local\Temp\cc81lQEz.s:7888   .debug_str:000000000000048e .LASF32
C:\Users\stapi\AppData\Local\Temp\cc81lQEz.s:8098   .debug_str:0000000000000e31 .LASF33
C:\Users\stapi\AppData\Local\Temp\cc81lQEz.s:8330   .debug_str:00000000000018ba .LASF34
C:\Users\stapi\AppData\Local\Temp\cc81lQEz.s:8394   .debug_str:0000000000001b6f .LASF35
C:\Users\stapi\AppData\Local\Temp\cc81lQEz.s:8536   .debug_str:0000000000002178 .LASF36
C:\Users\stapi\AppData\Local\Temp\cc81lQEz.s:7934   .debug_str:0000000000000689 .LASF37
C:\Users\stapi\AppData\Local\Temp\cc81lQEz.s:7820   .debug_str:0000000000000233 .LASF38
C:\Users\stapi\AppData\Local\Temp\cc81lQEz.s:7976   .debug_str:00000000000008c4 .LASF39
C:\Users\stapi\AppData\Local\Temp\cc81lQEz.s:7808   .debug_str:0000000000000192 .LASF40
C:\Users\stapi\AppData\Local\Temp\cc81lQEz.s:8102   .debug_str:0000000000000e5f .LASF41
C:\Users\stapi\AppData\Local\Temp\cc81lQEz.s:8298   .debug_str:000000000000178b .LASF42
C:\Users\stapi\AppData\Local\Temp\cc81lQEz.s:8534   .debug_str:0000000000002152 .LASF43
C:\Users\stapi\AppData\Local\Temp\cc81lQEz.s:7802   .debug_str:000000000000014f .LASF44
C:\Users\stapi\AppData\Local\Temp\cc81lQEz.s:7932   .debug_str:0000000000000672 .LASF45
C:\Users\stapi\AppData\Local\Temp\cc81lQEz.s:8424   .debug_str:0000000000001cd2 .LASF46
C:\Users\stapi\AppData\Local\Temp\cc81lQEz.s:8568   .debug_str:00000000000022d8 .LASF47
C:\Users\stapi\AppData\Local\Temp\cc81lQEz.s:7870   .debug_str:00000000000003e6 .LASF48
C:\Users\stapi\AppData\Local\Temp\cc81lQEz.s:7878   .debug_str:0000000000000434 .LASF49
C:\Users\stapi\AppData\Local\Temp\cc81lQEz.s:8334   .debug_str:00000000000018f3 .LASF50
C:\Users\stapi\AppData\Local\Temp\cc81lQEz.s:8206   .debug_str:0000000000001394 .LASF51
C:\Users\stapi\AppData\Local\Temp\cc81lQEz.s:8110   .debug_str:0000000000000ec0 .LASF52
C:\Users\stapi\AppData\Local\Temp\cc81lQEz.s:8070   .debug_str:0000000000000d01 .LASF53
C:\Users\stapi\AppData\Local\Temp\cc81lQEz.s:8588   .debug_str:0000000000002452 .LASF54
C:\Users\stapi\AppData\Local\Temp\cc81lQEz.s:8324   .debug_str:0000000000001876 .LASF55
C:\Users\stapi\AppData\Local\Temp\cc81lQEz.s:8228   .debug_str:000000000000148c .LASF56
C:\Users\stapi\AppData\Local\Temp\cc81lQEz.s:8010   .debug_str:0000000000000a4d .LASF57
C:\Users\stapi\AppData\Local\Temp\cc81lQEz.s:8410   .debug_str:0000000000001c25 .LASF58
C:\Users\stapi\AppData\Local\Temp\cc81lQEz.s:8570   .debug_str:00000000000022f4 .LASF59
C:\Users\stapi\AppData\Local\Temp\cc81lQEz.s:8182   .debug_str:0000000000001290 .LASF60
C:\Users\stapi\AppData\Local\Temp\cc81lQEz.s:8460   .debug_str:0000000000001e76 .LASF61
C:\Users\stapi\AppData\Local\Temp\cc81lQEz.s:8362   .debug_str:0000000000001a38 .LASF62
C:\Users\stapi\AppData\Local\Temp\cc81lQEz.s:8540   .debug_str:00000000000021bf .LASF63
C:\Users\stapi\AppData\Local\Temp\cc81lQEz.s:7818   .debug_str:0000000000000213 .LASF64
C:\Users\stapi\AppData\Local\Temp\cc81lQEz.s:7968   .debug_str:0000000000000851 .LASF65
C:\Users\stapi\AppData\Local\Temp\cc81lQEz.s:8118   .debug_str:0000000000000f3e .LASF66
C:\Users\stapi\AppData\Local\Temp\cc81lQEz.s:8286   .debug_str:0000000000001708 .LASF67
C:\Users\stapi\AppData\Local\Temp\cc81lQEz.s:7986   .debug_str:0000000000000934 .LASF68
C:\Users\stapi\AppData\Local\Temp\cc81lQEz.s:8606   .debug_str:0000000000002544 .LASF69
C:\Users\stapi\AppData\Local\Temp\cc81lQEz.s:8414   .debug_str:0000000000001c5a .LASF70
C:\Users\stapi\AppData\Local\Temp\cc81lQEz.s:8156   .debug_str:0000000000001160 .LASF71
C:\Users\stapi\AppData\Local\Temp\cc81lQEz.s:8146   .debug_str:000000000000111e .LASF72
C:\Users\stapi\AppData\Local\Temp\cc81lQEz.s:7810   .debug_str:00000000000001b2 .LASF73
C:\Users\stapi\AppData\Local\Temp\cc81lQEz.s:7944   .debug_str:0000000000000776 .LASF74
C:\Users\stapi\AppData\Local\Temp\cc81lQEz.s:7868   .debug_str:00000000000003d2 .LASF75
C:\Users\stapi\AppData\Local\Temp\cc81lQEz.s:8572   .debug_str:0000000000002315 .LASF76
C:\Users\stapi\AppData\Local\Temp\cc81lQEz.s:8114   .debug_str:0000000000000f05 .LASF77
C:\Users\stapi\AppData\Local\Temp\cc81lQEz.s:7858   .debug_str:0000000000000373 .LASF78
C:\Users\stapi\AppData\Local\Temp\cc81lQEz.s:7860   .debug_str:0000000000000388 .LASF79
C:\Users\stapi\AppData\Local\Temp\cc81lQEz.s:8262   .debug_str:00000000000015c9 .LASF80
C:\Users\stapi\AppData\Local\Temp\cc81lQEz.s:7970   .debug_str:000000000000086d .LASF81
C:\Users\stapi\AppData\Local\Temp\cc81lQEz.s:8630   .debug_str:0000000000002639 .LASF82
C:\Users\stapi\AppData\Local\Temp\cc81lQEz.s:8038   .debug_str:0000000000000b89 .LASF83
C:\Users\stapi\AppData\Local\Temp\cc81lQEz.s:7792   .debug_str:00000000000000e1 .LASF84
C:\Users\stapi\AppData\Local\Temp\cc81lQEz.s:8172   .debug_str:0000000000001236 .LASF85
C:\Users\stapi\AppData\Local\Temp\cc81lQEz.s:8584   .debug_str:0000000000002420 .LASF86
C:\Users\stapi\AppData\Local\Temp\cc81lQEz.s:8028   .debug_str:0000000000000b1d .LASF87
C:\Users\stapi\AppData\Local\Temp\cc81lQEz.s:8176   .debug_str:0000000000001255 .LASF88
C:\Users\stapi\AppData\Local\Temp\cc81lQEz.s:8338   .debug_str:000000000000191a .LASF89
C:\Users\stapi\AppData\Local\Temp\cc81lQEz.s:8356   .debug_str:00000000000019eb .LASF90
C:\Users\stapi\AppData\Local\Temp\cc81lQEz.s:8428   .debug_str:0000000000001d02 .LASF91
C:\Users\stapi\AppData\Local\Temp\cc81lQEz.s:8264   .debug_str:00000000000015e6 .LASF92
C:\Users\stapi\AppData\Local\Temp\cc81lQEz.s:8082   .debug_str:0000000000000d7a .LASF93
C:\Users\stapi\AppData\Local\Temp\cc81lQEz.s:8084   .debug_str:0000000000000d94 .LASF94
C:\Users\stapi\AppData\Local\Temp\cc81lQEz.s:8088   .debug_str:0000000000000dba .LASF95
C:\Users\stapi\AppData\Local\Temp\cc81lQEz.s:8518   .debug_str:0000000000002086 .LASF96
C:\Users\stapi\AppData\Local\Temp\cc81lQEz.s:8272   .debug_str:000000000000164e .LASF97
C:\Users\stapi\AppData\Local\Temp\cc81lQEz.s:7840   .debug_str:00000000000002cd .LASF98
C:\Users\stapi\AppData\Local\Temp\cc81lQEz.s:8280   .debug_str:00000000000016c9 .LASF99
C:\Users\stapi\AppData\Local\Temp\cc81lQEz.s:8276   .debug_str:0000000000001692 .LASF100
C:\Users\stapi\AppData\Local\Temp\cc81lQEz.s:8266   .debug_str:000000000000160c .LASF101
C:\Users\stapi\AppData\Local\Temp\cc81lQEz.s:8576   .debug_str:00000000000023ae .LASF102
C:\Users\stapi\AppData\Local\Temp\cc81lQEz.s:8140   .debug_str:0000000000000ff3 .LASF103
C:\Users\stapi\AppData\Local\Temp\cc81lQEz.s:8290   .debug_str:0000000000001737 .LASF104
C:\Users\stapi\AppData\Local\Temp\cc81lQEz.s:8404   .debug_str:0000000000001bda .LASF105
C:\Users\stapi\AppData\Local\Temp\cc81lQEz.s:8196   .debug_str:0000000000001331 .LASF106
C:\Users\stapi\AppData\Local\Temp\cc81lQEz.s:8346   .debug_str:0000000000001973 .LASF107
C:\Users\stapi\AppData\Local\Temp\cc81lQEz.s:8604   .debug_str:000000000000251a .LASF108
C:\Users\stapi\AppData\Local\Temp\cc81lQEz.s:8558   .debug_str:0000000000002267 .LASF109
C:\Users\stapi\AppData\Local\Temp\cc81lQEz.s:7784   .debug_str:000000000000007f .LASF110
C:\Users\stapi\AppData\Local\Temp\cc81lQEz.s:8112   .debug_str:0000000000000ee3 .LASF111
C:\Users\stapi\AppData\Local\Temp\cc81lQEz.s:8186   .debug_str:00000000000012cf .LASF112
C:\Users\stapi\AppData\Local\Temp\cc81lQEz.s:8080   .debug_str:0000000000000d5a .LASF113
C:\Users\stapi\AppData\Local\Temp\cc81lQEz.s:8332   .debug_str:00000000000018d2 .LASF114
C:\Users\stapi\AppData\Local\Temp\cc81lQEz.s:8598   .debug_str:00000000000024ce .LASF115
C:\Users\stapi\AppData\Local\Temp\cc81lQEz.s:8372   .debug_str:0000000000001abc .LASF116
C:\Users\stapi\AppData\Local\Temp\cc81lQEz.s:8184   .debug_str:00000000000012ac .LASF117
C:\Users\stapi\AppData\Local\Temp\cc81lQEz.s:8210   .debug_str:00000000000013c8 .LASF118
C:\Users\stapi\AppData\Local\Temp\cc81lQEz.s:7996   .debug_str:00000000000009b3 .LASF119
C:\Users\stapi\AppData\Local\Temp\cc81lQEz.s:8230   .debug_str:00000000000014a6 .LASF120
C:\Users\stapi\AppData\Local\Temp\cc81lQEz.s:8360   .debug_str:0000000000001a0e .LASF121
C:\Users\stapi\AppData\Local\Temp\cc81lQEz.s:8612   .debug_str:000000000000257f .LASF122
C:\Users\stapi\AppData\Local\Temp\cc81lQEz.s:8020   .debug_str:0000000000000ab3 .LASF123
C:\Users\stapi\AppData\Local\Temp\cc81lQEz.s:8216   .debug_str:0000000000001417 .LASF124
C:\Users\stapi\AppData\Local\Temp\cc81lQEz.s:8402   .debug_str:0000000000001bbe .LASF125
C:\Users\stapi\AppData\Local\Temp\cc81lQEz.s:8488   .debug_str:0000000000001f82 .LASF126
C:\Users\stapi\AppData\Local\Temp\cc81lQEz.s:8318   .debug_str:0000000000001847 .LASF127
C:\Users\stapi\AppData\Local\Temp\cc81lQEz.s:7906   .debug_str:000000000000054c .LASF128
C:\Users\stapi\AppData\Local\Temp\cc81lQEz.s:7920   .debug_str:0000000000000618 .LASF129
C:\Users\stapi\AppData\Local\Temp\cc81lQEz.s:8004   .debug_str:0000000000000a06 .LASF130
C:\Users\stapi\AppData\Local\Temp\cc81lQEz.s:8198   .debug_str:0000000000001354 .LASF131
C:\Users\stapi\AppData\Local\Temp\cc81lQEz.s:8470   .debug_str:0000000000001ee6 .LASF132
C:\Users\stapi\AppData\Local\Temp\cc81lQEz.s:8390   .debug_str:0000000000001b3f .LASF133
C:\Users\stapi\AppData\Local\Temp\cc81lQEz.s:8294   .debug_str:0000000000001764 .LASF134
C:\Users\stapi\AppData\Local\Temp\cc81lQEz.s:8416   .debug_str:0000000000001c74 .LASF135
C:\Users\stapi\AppData\Local\Temp\cc81lQEz.s:7988   .debug_str:0000000000000954 .LASF136
C:\Users\stapi\AppData\Local\Temp\cc81lQEz.s:8214   .debug_str:0000000000001402 .LASF137
C:\Users\stapi\AppData\Local\Temp\cc81lQEz.s:8580   .debug_str:00000000000023eb .LASF138
C:\Users\stapi\AppData\Local\Temp\cc81lQEz.s:8364   .debug_str:0000000000001a5a .LASF139
C:\Users\stapi\AppData\Local\Temp\cc81lQEz.s:7786   .debug_str:00000000000000a4 .LASF140
C:\Users\stapi\AppData\Local\Temp\cc81lQEz.s:8274   .debug_str:0000000000001670 .LASF141
C:\Users\stapi\AppData\Local\Temp\cc81lQEz.s:7886   .debug_str:0000000000000473 .LASF142
C:\Users\stapi\AppData\Local\Temp\cc81lQEz.s:7828   .debug_str:000000000000027f .LASF143
C:\Users\stapi\AppData\Local\Temp\cc81lQEz.s:7890   .debug_str:00000000000004ad .LASF144
C:\Users\stapi\AppData\Local\Temp\cc81lQEz.s:8486   .debug_str:0000000000001f63 .LASF145
C:\Users\stapi\AppData\Local\Temp\cc81lQEz.s:7994   .debug_str:0000000000000996 .LASF146
C:\Users\stapi\AppData\Local\Temp\cc81lQEz.s:8370   .debug_str:0000000000001aa3 .LASF147
C:\Users\stapi\AppData\Local\Temp\cc81lQEz.s:7796   .debug_str:000000000000010c .LASF148
C:\Users\stapi\AppData\Local\Temp\cc81lQEz.s:8002   .debug_str:00000000000009f2 .LASF149
C:\Users\stapi\AppData\Local\Temp\cc81lQEz.s:7798   .debug_str:0000000000000121 .LASF150
C:\Users\stapi\AppData\Local\Temp\cc81lQEz.s:7914   .debug_str:00000000000005ca .LASF151
C:\Users\stapi\AppData\Local\Temp\cc81lQEz.s:8646   .debug_str:00000000000026ce .LASF152
C:\Users\stapi\AppData\Local\Temp\cc81lQEz.s:8602   .debug_str:0000000000002502 .LASF153
C:\Users\stapi\AppData\Local\Temp\cc81lQEz.s:8046   .debug_str:0000000000000be3 .LASF154
C:\Users\stapi\AppData\Local\Temp\cc81lQEz.s:8316   .debug_str:0000000000001830 .LASF155
C:\Users\stapi\AppData\Local\Temp\cc81lQEz.s:8542   .debug_str:00000000000021d8 .LASF156
C:\Users\stapi\AppData\Local\Temp\cc81lQEz.s:7788   .debug_str:00000000000000bd .LASF157
C:\Users\stapi\AppData\Local\Temp\cc81lQEz.s:7998   .debug_str:00000000000009d1 .LASF158
C:\Users\stapi\AppData\Local\Temp\cc81lQEz.s:8538   .debug_str:000000000000219a .LASF159
C:\Users\stapi\AppData\Local\Temp\cc81lQEz.s:8510   .debug_str:0000000000002032 .LASF160
C:\Users\stapi\AppData\Local\Temp\cc81lQEz.s:8640   .debug_str:000000000000269b .LASF161
C:\Users\stapi\AppData\Local\Temp\cc81lQEz.s:8528   .debug_str:0000000000002106 .LASF162
C:\Users\stapi\AppData\Local\Temp\cc81lQEz.s:7974   .debug_str:000000000000089f .LASF163
C:\Users\stapi\AppData\Local\Temp\cc81lQEz.s:8408   .debug_str:0000000000001bfd .LASF164
C:\Users\stapi\AppData\Local\Temp\cc81lQEz.s:8158   .debug_str:000000000000117d .LASF165
C:\Users\stapi\AppData\Local\Temp\cc81lQEz.s:8340   .debug_str:000000000000192d .LASF166
C:\Users\stapi\AppData\Local\Temp\cc81lQEz.s:8632   .debug_str:0000000000002650 .LASF167
C:\Users\stapi\AppData\Local\Temp\cc81lQEz.s:8104   .debug_str:0000000000000e7e .LASF168
C:\Users\stapi\AppData\Local\Temp\cc81lQEz.s:8066   .debug_str:0000000000000cbb .LASF169
C:\Users\stapi\AppData\Local\Temp\cc81lQEz.s:8044   .debug_str:0000000000000bc3 .LASF170
C:\Users\stapi\AppData\Local\Temp\cc81lQEz.s:8594   .debug_str:0000000000002491 .LASF171
C:\Users\stapi\AppData\Local\Temp\cc81lQEz.s:8440   .debug_str:0000000000001d7c .LASF172
C:\Users\stapi\AppData\Local\Temp\cc81lQEz.s:8016   .debug_str:0000000000000a7c .LASF173
C:\Users\stapi\AppData\Local\Temp\cc81lQEz.s:8396   .debug_str:0000000000001b89 .LASF174
C:\Users\stapi\AppData\Local\Temp\cc81lQEz.s:8310   .debug_str:00000000000017eb .LASF175
C:\Users\stapi\AppData\Local\Temp\cc81lQEz.s:8454   .debug_str:0000000000001e2a .LASF176
C:\Users\stapi\AppData\Local\Temp\cc81lQEz.s:8616   .debug_str:00000000000025bc .LASF177
C:\Users\stapi\AppData\Local\Temp\cc81lQEz.s:8036   .debug_str:0000000000000b68 .LASF178
C:\Users\stapi\AppData\Local\Temp\cc81lQEz.s:7954   .debug_str:00000000000007d7 .LASF179
C:\Users\stapi\AppData\Local\Temp\cc81lQEz.s:8068   .debug_str:0000000000000ce4 .LASF180
C:\Users\stapi\AppData\Local\Temp\cc81lQEz.s:8006   .debug_str:0000000000000a18 .LASF181
C:\Users\stapi\AppData\Local\Temp\cc81lQEz.s:8116   .debug_str:0000000000000f1b .LASF182
C:\Users\stapi\AppData\Local\Temp\cc81lQEz.s:7864   .debug_str:00000000000003ad .LASF183
C:\Users\stapi\AppData\Local\Temp\cc81lQEz.s:8282   .debug_str:00000000000016e9 .LASF184
C:\Users\stapi\AppData\Local\Temp\cc81lQEz.s:7978   .debug_str:00000000000008e3 .LASF185
C:\Users\stapi\AppData\Local\Temp\cc81lQEz.s:8548   .debug_str:0000000000002210 .LASF186
C:\Users\stapi\AppData\Local\Temp\cc81lQEz.s:7894   .debug_str:00000000000004d7 .LASF187
C:\Users\stapi\AppData\Local\Temp\cc81lQEz.s:8092   .debug_str:0000000000000dfc .LASF188
C:\Users\stapi\AppData\Local\Temp\cc81lQEz.s:7812   .debug_str:00000000000001d1 .LASF189
C:\Users\stapi\AppData\Local\Temp\cc81lQEz.s:8354   .debug_str:00000000000019c2 .LASF190
C:\Users\stapi\AppData\Local\Temp\cc81lQEz.s:7912   .debug_str:00000000000005a4 .LASF191
C:\Users\stapi\AppData\Local\Temp\cc81lQEz.s:8466   .debug_str:0000000000001eb6 .LASF192
C:\Users\stapi\AppData\Local\Temp\cc81lQEz.s:8042   .debug_str:0000000000000bab .LASF193
C:\Users\stapi\AppData\Local\Temp\cc81lQEz.s:8238   .debug_str:00000000000014f7 .LASF194
C:\Users\stapi\AppData\Local\Temp\cc81lQEz.s:7908   .debug_str:0000000000000564 .LASF195
C:\Users\stapi\AppData\Local\Temp\cc81lQEz.s:8054   .debug_str:0000000000000c39 .LASF196
C:\Users\stapi\AppData\Local\Temp\cc81lQEz.s:8048   .debug_str:0000000000000bfb .LASF197
C:\Users\stapi\AppData\Local\Temp\cc81lQEz.s:8160   .debug_str:00000000000011a3 .LASF198
C:\Users\stapi\AppData\Local\Temp\cc81lQEz.s:8026   .debug_str:0000000000000b01 .LASF199
C:\Users\stapi\AppData\Local\Temp\cc81lQEz.s:8168   .debug_str:0000000000001207 .LASF200
C:\Users\stapi\AppData\Local\Temp\cc81lQEz.s:8520   .debug_str:00000000000020ab .LASF201
C:\Users\stapi\AppData\Local\Temp\cc81lQEz.s:8034   .debug_str:0000000000000b4b .LASF202
C:\Users\stapi\AppData\Local\Temp\cc81lQEz.s:8444   .debug_str:0000000000001dba .LASF203
C:\Users\stapi\AppData\Local\Temp\cc81lQEz.s:7782   .debug_str:000000000000005c .LASF204
C:\Users\stapi\AppData\Local\Temp\cc81lQEz.s:7838   .debug_str:00000000000002b4 .LASF205
C:\Users\stapi\AppData\Local\Temp\cc81lQEz.s:8328   .debug_str:0000000000001898 .LASF206
C:\Users\stapi\AppData\Local\Temp\cc81lQEz.s:8442   .debug_str:0000000000001d99 .LASF207
C:\Users\stapi\AppData\Local\Temp\cc81lQEz.s:8578   .debug_str:00000000000023d0 .LASF208
C:\Users\stapi\AppData\Local\Temp\cc81lQEz.s:7952   .debug_str:00000000000007b5 .LASF209
C:\Users\stapi\AppData\Local\Temp\cc81lQEz.s:8064   .debug_str:0000000000000c97 .LASF210
C:\Users\stapi\AppData\Local\Temp\cc81lQEz.s:7918   .debug_str:00000000000005f6 .LASF211
C:\Users\stapi\AppData\Local\Temp\cc81lQEz.s:7856   .debug_str:000000000000035a .LASF212
C:\Users\stapi\AppData\Local\Temp\cc81lQEz.s:8090   .debug_str:0000000000000dd6 .LASF213
C:\Users\stapi\AppData\Local\Temp\cc81lQEz.s:8418   .debug_str:0000000000001c9a .LASF214
C:\Users\stapi\AppData\Local\Temp\cc81lQEz.s:8306   .debug_str:00000000000017cd .LASF215
C:\Users\stapi\AppData\Local\Temp\cc81lQEz.s:8208   .debug_str:00000000000013b3 .LASF216
C:\Users\stapi\AppData\Local\Temp\cc81lQEz.s:8270   .debug_str:0000000000001639 .LASF217
C:\Users\stapi\AppData\Local\Temp\cc81lQEz.s:8582   .debug_str:0000000000002406 .LASF218
C:\Users\stapi\AppData\Local\Temp\cc81lQEz.s:8278   .debug_str:00000000000016b3 .LASF219
C:\Users\stapi\AppData\Local\Temp\cc81lQEz.s:8074   .debug_str:0000000000000d29 .LASF220
C:\Users\stapi\AppData\Local\Temp\cc81lQEz.s:7972   .debug_str:000000000000088a .LASF221
C:\Users\stapi\AppData\Local\Temp\cc81lQEz.s:7930   .debug_str:0000000000000668 .LASF222
C:\Users\stapi\AppData\Local\Temp\cc81lQEz.s:8438   .debug_str:0000000000001d6f .LASF223
C:\Users\stapi\AppData\Local\Temp\cc81lQEz.s:8526   .debug_str:00000000000020ee .LASF227
C:\Users\stapi\AppData\Local\Temp\cc81lQEz.s:8106   .debug_str:0000000000000e9e .LASF224
C:\Users\stapi\AppData\Local\Temp\cc81lQEz.s:7842   .debug_str:00000000000002e6 .LASF225
C:\Users\stapi\AppData\Local\Temp\cc81lQEz.s:8242   .debug_str:0000000000001524 .LASF226
C:\Users\stapi\AppData\Local\Temp\cc81lQEz.s:8434   .debug_str:0000000000001d4f .LASF228
C:\Users\stapi\AppData\Local\Temp\cc81lQEz.s:8342   .debug_str:0000000000001944 .LASF229
C:\Users\stapi\AppData\Local\Temp\cc81lQEz.s:8128   .debug_str:0000000000000f93 .LASF230
C:\Users\stapi\AppData\Local\Temp\cc81lQEz.s:7982   .debug_str:0000000000000908 .LASF231
C:\Users\stapi\AppData\Local\Temp\cc81lQEz.s:8500   .debug_str:0000000000001fe7 .LASF232
C:\Users\stapi\AppData\Local\Temp\cc81lQEz.s:8446   .debug_str:0000000000001dd5 .LASF233
C:\Users\stapi\AppData\Local\Temp\cc81lQEz.s:7910   .debug_str:0000000000000585 .LASF234
C:\Users\stapi\AppData\Local\Temp\cc81lQEz.s:7850   .debug_str:0000000000000327 .LASF235
C:\Users\stapi\AppData\Local\Temp\cc81lQEz.s:8564   .debug_str:00000000000022b0 .LASF236
C:\Users\stapi\AppData\Local\Temp\cc81lQEz.s:7938   .debug_str:00000000000006af .LASF237
C:\Users\stapi\AppData\Local\Temp\cc81lQEz.s:7824   .debug_str:0000000000000253 .LASF238
C:\Users\stapi\AppData\Local\Temp\cc81lQEz.s:8462   .debug_str:0000000000001e92 .LASF239
C:\Users\stapi\AppData\Local\Temp\cc81lQEz.s:7900   .debug_str:000000000000051f .LASF240
C:\Users\stapi\AppData\Local\Temp\cc81lQEz.s:7814   .debug_str:00000000000001eb .LASF241
C:\Users\stapi\AppData\Local\Temp\cc81lQEz.s:8018   .debug_str:0000000000000a9b .LASF242
C:\Users\stapi\AppData\Local\Temp\cc81lQEz.s:8190   .debug_str:00000000000012ff .LASF243
C:\Users\stapi\AppData\Local\Temp\cc81lQEz.s:8458   .debug_str:0000000000001e53 .LASF244
C:\Users\stapi\AppData\Local\Temp\cc81lQEz.s:8220   .debug_str:0000000000001445 .LASF245
C:\Users\stapi\AppData\Local\Temp\cc81lQEz.s:8232   .debug_str:00000000000014c9 .LASF246
C:\Users\stapi\AppData\Local\Temp\cc81lQEz.s:8366   .debug_str:0000000000001a73 .LASF247
C:\Users\stapi\AppData\Local\Temp\cc81lQEz.s:7852   .debug_str:0000000000000345 .LASF248
C:\Users\stapi\AppData\Local\Temp\cc81lQEz.s:7770   .debug_str:0000000000000008 .LASF249
C:\Users\stapi\AppData\Local\Temp\cc81lQEz.s:8504   .debug_str:000000000000200a .LASF250
C:\Users\stapi\AppData\Local\Temp\cc81lQEz.s:7984   .debug_str:0000000000000922 .LASF251
C:\Users\stapi\AppData\Local\Temp\cc81lQEz.s:8478   .debug_str:0000000000001f23 .LASF252
C:\Users\stapi\AppData\Local\Temp\cc81lQEz.s:8188   .debug_str:00000000000012e8 .LASF253
C:\Users\stapi\AppData\Local\Temp\cc81lQEz.s:8130   .debug_str:0000000000000fad .LASF254
C:\Users\stapi\AppData\Local\Temp\cc81lQEz.s:8618   .debug_str:00000000000025dd .LASF255
C:\Users\stapi\AppData\Local\Temp\cc81lQEz.s:8532   .debug_str:0000000000002138 .LASF256
C:\Users\stapi\AppData\Local\Temp\cc81lQEz.s:8484   .debug_str:0000000000001f47 .LASF257
C:\Users\stapi\AppData\Local\Temp\cc81lQEz.s:8512   .debug_str:000000000000204c .LASF258
C:\Users\stapi\AppData\Local\Temp\cc81lQEz.s:8304   .debug_str:00000000000017c3 .LASF259
C:\Users\stapi\AppData\Local\Temp\cc81lQEz.s:8236   .debug_str:00000000000014f2 .LASF260
C:\Users\stapi\AppData\Local\Temp\cc81lQEz.s:8522   .debug_str:00000000000020cc .LASF261
C:\Users\stapi\AppData\Local\Temp\cc81lQEz.s:8468   .debug_str:0000000000001ed8 .LASF262
C:\Users\stapi\AppData\Local\Temp\cc81lQEz.s:8040   .debug_str:0000000000000ba6 .LASF263
C:\Users\stapi\AppData\Local\Temp\cc81lQEz.s:8322   .debug_str:000000000000186c .LASF264
C:\Users\stapi\AppData\Local\Temp\cc81lQEz.s:8380   .debug_str:0000000000001b05 .LASF265
C:\Users\stapi\AppData\Local\Temp\cc81lQEz.s:8634   .debug_str:000000000000266d .LASF266
C:\Users\stapi\AppData\Local\Temp\cc81lQEz.s:7902   .debug_str:0000000000000539 .LASF267
C:\Users\stapi\AppData\Local\Temp\cc81lQEz.s:8194   .debug_str:0000000000001324 .LASF268
C:\Users\stapi\AppData\Local\Temp\cc81lQEz.s:7964   .debug_str:0000000000000836 .LASF269
C:\Users\stapi\AppData\Local\Temp\cc81lQEz.s:8384   .debug_str:0000000000001b17 .LASF270
C:\Users\stapi\AppData\Local\Temp\cc81lQEz.s:8530   .debug_str:000000000000212c .LASF271
C:\Users\stapi\AppData\Local\Temp\cc81lQEz.s:8022   .debug_str:0000000000000ae7 .LASF272
C:\Users\stapi\AppData\Local\Temp\cc81lQEz.s:7816   .debug_str:0000000000000205 .LASF273
C:\Users\stapi\AppData\Local\Temp\cc81lQEz.s:8222   .debug_str:0000000000001468 .LASF274
C:\Users\stapi\AppData\Local\Temp\cc81lQEz.s:7790   .debug_str:00000000000000d4 .LASF275
C:\Users\stapi\AppData\Local\Temp\cc81lQEz.s:8256   .debug_str:00000000000015b1 .LASF276
C:\Users\stapi\AppData\Local\Temp\cc81lQEz.s:8550   .debug_str:000000000000222f .LASF277
C:\Users\stapi\AppData\Local\Temp\cc81lQEz.s:8240   .debug_str:0000000000001518 .LASF278
C:\Users\stapi\AppData\Local\Temp\cc81lQEz.s:8164   .debug_str:00000000000011e3 .LASF279
C:\Users\stapi\AppData\Local\Temp\cc81lQEz.s:7980   .debug_str:0000000000000902 .LASF280
C:\Users\stapi\AppData\Local\Temp\cc81lQEz.s:7946   .debug_str:000000000000078b .LASF281
C:\Users\stapi\AppData\Local\Temp\cc81lQEz.s:7768   .debug_str:0000000000000000 .LASF282
C:\Users\stapi\AppData\Local\Temp\cc81lQEz.s:7848   .debug_str:000000000000031d .LASF283
C:\Users\stapi\AppData\Local\Temp\cc81lQEz.s:8508   .debug_str:0000000000002025 .LASF284
C:\Users\stapi\AppData\Local\Temp\cc81lQEz.s:8590   .debug_str:0000000000002470 .LASF285
C:\Users\stapi\AppData\Local\Temp\cc81lQEz.s:7898   .debug_str:000000000000050a .LASF286
C:\Users\stapi\AppData\Local\Temp\cc81lQEz.s:7780   .debug_str:0000000000000044 .LASF287
C:\Users\stapi\AppData\Local\Temp\cc81lQEz.s:7772   .debug_str:000000000000001a .LASF288
C:\Users\stapi\AppData\Local\Temp\cc81lQEz.s:8610   .debug_str:0000000000002566 .LASF289
C:\Users\stapi\AppData\Local\Temp\cc81lQEz.s:7950   .debug_str:00000000000007ac .LASF290
C:\Users\stapi\AppData\Local\Temp\cc81lQEz.s:8622   .debug_str:00000000000025f9 .LASF291
C:\Users\stapi\AppData\Local\Temp\cc81lQEz.s:8314   .debug_str:000000000000181c .LASF292
C:\Users\stapi\AppData\Local\Temp\cc81lQEz.s:7904   .debug_str:0000000000000543 .LASF293
C:\Users\stapi\AppData\Local\Temp\cc81lQEz.s:8120   .debug_str:0000000000000f5b .LASF294
C:\Users\stapi\AppData\Local\Temp\cc81lQEz.s:7874   .debug_str:0000000000000409 .LASF295
C:\Users\stapi\AppData\Local\Temp\cc81lQEz.s:8386   .debug_str:0000000000001b1e .LASF296
C:\Users\stapi\AppData\Local\Temp\cc81lQEz.s:8348   .debug_str:000000000000199d .LASF297
C:\Users\stapi\AppData\Local\Temp\cc81lQEz.s:7948   .debug_str:0000000000000793 .LASF298
C:\Users\stapi\AppData\Local\Temp\cc81lQEz.s:8292   .debug_str:0000000000001759 .LASF299
C:\Users\stapi\AppData\Local\Temp\cc81lQEz.s:7854   .debug_str:0000000000000351 .LASF300
C:\Users\stapi\AppData\Local\Temp\cc81lQEz.s:7992   .debug_str:000000000000097c .LASF301
C:\Users\stapi\AppData\Local\Temp\cc81lQEz.s:8244   .debug_str:0000000000001547 .LASF302
C:\Users\stapi\AppData\Local\Temp\cc81lQEz.s:8430   .debug_str:0000000000001d28 .LASF303
C:\Users\stapi\AppData\Local\Temp\cc81lQEz.s:8162   .debug_str:00000000000011c6 .LASF304
C:\Users\stapi\AppData\Local\Temp\cc81lQEz.s:8258   .debug_str:00000000000015be .LASF305
C:\Users\stapi\AppData\Local\Temp\cc81lQEz.s:7834   .debug_str:00000000000002a3 .LASF306
C:\Users\stapi\AppData\Local\Temp\cc81lQEz.s:8524   .debug_str:00000000000020db .LASF307
C:\Users\stapi\AppData\Local\Temp\cc81lQEz.s:8302   .debug_str:00000000000017b8 .LASF308
C:\Users\stapi\AppData\Local\Temp\cc81lQEz.s:8032   .debug_str:0000000000000b45 .LASF309
C:\Users\stapi\AppData\Local\Temp\cc81lQEz.s:8308   .debug_str:00000000000017e0 .LASF310
C:\Users\stapi\AppData\Local\Temp\cc81lQEz.s:8472   .debug_str:0000000000001f01 .LASF311
C:\Users\stapi\AppData\Local\Temp\cc81lQEz.s:8624   .debug_str:0000000000002600 .LASF312
C:\Users\stapi\AppData\Local\Temp\cc81lQEz.s:8174   .debug_str:0000000000001247 .LASF313
C:\Users\stapi\AppData\Local\Temp\cc81lQEz.s:8502   .debug_str:0000000000001ffb .LASF314
C:\Users\stapi\AppData\Local\Temp\cc81lQEz.s:8638   .debug_str:0000000000002689 .LASF315
C:\Users\stapi\AppData\Local\Temp\cc81lQEz.s:8552   .debug_str:0000000000002238 .LASF316
C:\Users\stapi\AppData\Local\Temp\cc81lQEz.s:8476   .debug_str:0000000000001f1a .LASF317
C:\Users\stapi\AppData\Local\Temp\cc81lQEz.s:8506   .debug_str:000000000000201c .LASF318
C:\Users\stapi\AppData\Local\Temp\cc81lQEz.s:8516   .debug_str:0000000000002077 .LASF319
C:\Users\stapi\AppData\Local\Temp\cc81lQEz.s:7794   .debug_str:00000000000000fc .LASF320
C:\Users\stapi\AppData\Local\Temp\cc81lQEz.s:7800   .debug_str:0000000000000140 .LASF321
C:\Users\stapi\AppData\Local\Temp\cc81lQEz.s:8076   .debug_str:0000000000000d3f .LASF322
C:\Users\stapi\AppData\Local\Temp\cc81lQEz.s:8254   .debug_str:000000000000159a .LASF323
C:\Users\stapi\AppData\Local\Temp\cc81lQEz.s:8514   .debug_str:0000000000002062 .LASF324
C:\Users\stapi\AppData\Local\Temp\cc81lQEz.s:8412   .debug_str:0000000000001c3f .LASF325
C:\Users\stapi\AppData\Local\Temp\cc81lQEz.s:8628   .debug_str:0000000000002619 .LASF326
C:\Users\stapi\AppData\Local\Temp\cc81lQEz.s:7942   .debug_str:0000000000000757 .LASF327
C:\Users\stapi\AppData\Local\Temp\cc81lQEz.s:8224   .debug_str:0000000000001470 .LASF328
C:\Users\stapi\AppData\Local\Temp\cc81lQEz.s:7922   .debug_str:000000000000062f .LASF329
C:\Users\stapi\AppData\Local\Temp\cc81lQEz.s:8124   .debug_str:0000000000000f74 .LASF330
C:\Users\stapi\AppData\Local\Temp\cc81lQEz.s:8248   .debug_str:0000000000001559 .LASF331
C:\Users\stapi\AppData\Local\Temp\cc81lQEz.s:7806   .debug_str:0000000000000179 .LASF332
C:\Users\stapi\AppData\Local\Temp\cc81lQEz.s:8008   .debug_str:0000000000000a3f .LASF333
C:\Users\stapi\AppData\Local\Temp\cc81lQEz.s:8170   .debug_str:0000000000001220 .LASF334
C:\Users\stapi\AppData\Local\Temp\cc81lQEz.s:8050   .debug_str:0000000000000c17 .LASF335
C:\Users\stapi\AppData\Local\Temp\cc81lQEz.s:7960   .debug_str:000000000000080e .LASF336
C:\Users\stapi\AppData\Local\Temp\cc81lQEz.s:8452   .debug_str:0000000000001e16 .LASF337
C:\Users\stapi\AppData\Local\Temp\cc81lQEz.s:8078   .debug_str:0000000000000d52 .LASF338
C:\Users\stapi\AppData\Local\Temp\cc81lQEz.s:7822   .debug_str:000000000000024d .LASF339
C:\Users\stapi\AppData\Local\Temp\cc81lQEz.s:8382   .debug_str:0000000000001b10 .LASF340
C:\Users\stapi\AppData\Local\Temp\cc81lQEz.s:8426   .debug_str:0000000000001cee .LASF341
C:\Users\stapi\AppData\Local\Temp\cc81lQEz.s:8132   .debug_str:0000000000000fc4 .LASF342
C:\Users\stapi\AppData\Local\Temp\cc81lQEz.s:8134   .debug_str:0000000000000fcb .LASF343
C:\Users\stapi\AppData\Local\Temp\cc81lQEz.s:8600   .debug_str:00000000000024eb .LASF344
C:\Users\stapi\AppData\Local\Temp\cc81lQEz.s:8138   .debug_str:0000000000000fed .LASF345
C:\Users\stapi\AppData\Local\Temp\cc81lQEz.s:8490   .debug_str:0000000000001f9e .LASF346
C:\Users\stapi\AppData\Local\Temp\cc81lQEz.s:8392   .debug_str:0000000000001b62 .LASF347
C:\Users\stapi\AppData\Local\Temp\cc81lQEz.s:8496   .debug_str:0000000000001fc3 .LASF348
C:\Users\stapi\AppData\Local\Temp\cc81lQEz.s:8448   .debug_str:0000000000001df6 .LASF349
C:\Users\stapi\AppData\Local\Temp\cc81lQEz.s:7916   .debug_str:00000000000005eb .LASF350
C:\Users\stapi\AppData\Local\Temp\cc81lQEz.s:8300   .debug_str:00000000000017ab .LASF351
C:\Users\stapi\AppData\Local\Temp\cc81lQEz.s:8056   .debug_str:0000000000000c5c .LASF352
C:\Users\stapi\AppData\Local\Temp\cc81lQEz.s:8544   .debug_str:00000000000021f6 .LASF353
C:\Users\stapi\AppData\Local\Temp\cc81lQEz.s:8620   .debug_str:00000000000025f4 .LASF354
C:\Users\stapi\AppData\Local\Temp\cc81lQEz.s:8226   .debug_str:0000000000001484 .LASF355
C:\Users\stapi\AppData\Local\Temp\cc81lQEz.s:8152   .debug_str:000000000000114f .LASF356
C:\Users\stapi\AppData\Local\Temp\cc81lQEz.s:8642   .debug_str:00000000000026b9 .LASF357
C:\Users\stapi\AppData\Local\Temp\cc81lQEz.s:7778   .debug_str:000000000000003e .LASF358
C:\Users\stapi\AppData\Local\Temp\cc81lQEz.s:7844   .debug_str:0000000000000304 .LASF359
C:\Users\stapi\AppData\Local\Temp\cc81lQEz.s:7896   .debug_str:00000000000004f7 .LASF433
C:\Users\stapi\AppData\Local\Temp\cc81lQEz.s:7936   .debug_str:00000000000006a4 .LASF360
C:\Users\stapi\AppData\Local\Temp\cc81lQEz.s:8178   .debug_str:000000000000127d .LASF361
C:\Users\stapi\AppData\Local\Temp\cc81lQEz.s:8060   .debug_str:0000000000000c79 .LASF362
C:\Users\stapi\AppData\Local\Temp\cc81lQEz.s:8376   .debug_str:0000000000001ae7 .LASF363
C:\Users\stapi\AppData\Local\Temp\cc81lQEz.s:8432   .debug_str:0000000000001d40 .LASF364
C:\Users\stapi\AppData\Local\Temp\cc81lQEz.s:8378   .debug_str:0000000000001af6 .LASF365
C:\Users\stapi\AppData\Local\Temp\cc81lQEz.s:8436   .debug_str:0000000000001d60 .LASF366
C:\Users\stapi\AppData\Local\Temp\cc81lQEz.s:7846   .debug_str:0000000000000309 .LASF367
C:\Users\stapi\AppData\Local\Temp\cc81lQEz.s:8614   .debug_str:00000000000025a9 .LASF368
C:\Users\stapi\AppData\Local\Temp\cc81lQEz.s:8094   .debug_str:0000000000000e19 .LASF369
C:\Users\stapi\AppData\Local\Temp\cc81lQEz.s:8058   .debug_str:0000000000000c67 .LASF370
C:\Users\stapi\AppData\Local\Temp\cc81lQEz.s:7990   .debug_str:000000000000096e .LASF371
C:\Users\stapi\AppData\Local\Temp\cc81lQEz.s:8352   .debug_str:00000000000019b4 .LASF372
C:\Users\stapi\AppData\Local\Temp\cc81lQEz.s:8108   .debug_str:0000000000000eb8 .LASF373
C:\Users\stapi\AppData\Local\Temp\cc81lQEz.s:8100   .debug_str:0000000000000e51 .LASF374
C:\Users\stapi\AppData\Local\Temp\cc81lQEz.s:8150   .debug_str:0000000000001143 .LASF375
C:\Users\stapi\AppData\Local\Temp\cc81lQEz.s:8388   .debug_str:0000000000001b2c .LASF434
C:\Users\stapi\AppData\Local\Temp\cc81lQEz.s:8218   .debug_str:0000000000001434 .LASF435
C:\Users\stapi\AppData\Local\Temp\cc81lQEz.s:8072   .debug_str:0000000000000d17 .LASF376
C:\Users\stapi\AppData\Local\Temp\cc81lQEz.s:2025   .text.app_adv_mgr_reset:0000000000000000 .LFB13
C:\Users\stapi\AppData\Local\Temp\cc81lQEz.s:2083   .text.app_adv_mgr_reset:0000000000000040 .LFE13
C:\Users\stapi\AppData\Local\Temp\cc81lQEz.s:6809   .debug_loc:0000000000000000 .LLST40
C:\Users\stapi\AppData\Local\Temp\cc81lQEz.s:2040   .text.app_adv_mgr_reset:0000000000000022 .LVL135
C:\Users\stapi\AppData\Local\Temp\cc81lQEz.s:8422   .debug_str:0000000000001cbc .LASF377
C:\Users\stapi\AppData\Local\Temp\cc81lQEz.s:2007   .text.app_set_adv_data_type:0000000000000000 .LFB12
C:\Users\stapi\AppData\Local\Temp\cc81lQEz.s:2018   .text.app_set_adv_data_type:000000000000000a .LFE12
C:\Users\stapi\AppData\Local\Temp\cc81lQEz.s:8212   .debug_str:00000000000013ea .LASF378
C:\Users\stapi\AppData\Local\Temp\cc81lQEz.s:1973   .text.app_adv_data_update_all:0000000000000000 .LFB11
C:\Users\stapi\AppData\Local\Temp\cc81lQEz.s:2000   .text.app_adv_data_update_all:0000000000000024 .LFE11
C:\Users\stapi\AppData\Local\Temp\cc81lQEz.s:6827   .debug_loc:000000000000002c .LLST39
C:\Users\stapi\AppData\Local\Temp\cc81lQEz.s:1986   .text.app_adv_data_update_all:0000000000000012 .LVL132
C:\Users\stapi\AppData\Local\Temp\cc81lQEz.s:1992   .text.app_adv_data_update_all:000000000000001c .LVL133
C:\Users\stapi\AppData\Local\Temp\cc81lQEz.s:8250   .debug_str:0000000000001575 .LASF385
C:\Users\stapi\AppData\Local\Temp\cc81lQEz.s:1749   .text.app_adv_data_update:0000000000000000 .LFB10
C:\Users\stapi\AppData\Local\Temp\cc81lQEz.s:1966   .text.app_adv_data_update:0000000000000108 .LFE10
C:\Users\stapi\AppData\Local\Temp\cc81lQEz.s:6845   .debug_loc:0000000000000058 .LLST33
C:\Users\stapi\AppData\Local\Temp\cc81lQEz.s:6870   .debug_loc:0000000000000092 .LLST34
C:\Users\stapi\AppData\Local\Temp\cc81lQEz.s:7832   .debug_str:000000000000029d .LASF379
C:\Users\stapi\AppData\Local\Temp\cc81lQEz.s:6888   .debug_loc:00000000000000be .LLST35
C:\Users\stapi\AppData\Local\Temp\cc81lQEz.s:8126   .debug_str:0000000000000f8a .LASF380
C:\Users\stapi\AppData\Local\Temp\cc81lQEz.s:8086   .debug_str:0000000000000db2 .LASF381
C:\Users\stapi\AppData\Local\Temp\cc81lQEz.s:8350   .debug_str:00000000000019ab .LASF382
C:\Users\stapi\AppData\Local\Temp\cc81lQEz.s:8180   .debug_str:0000000000001288 .LASF383
C:\Users\stapi\AppData\Local\Temp\cc81lQEz.s:8494   .debug_str:0000000000001fbd .LASF384
C:\Users\stapi\AppData\Local\Temp\cc81lQEz.s:6923   .debug_loc:0000000000000108 .LLST36
C:\Users\stapi\AppData\Local\Temp\cc81lQEz.s:6938   .debug_loc:0000000000000131 .LLST37
C:\Users\stapi\AppData\Local\Temp\cc81lQEz.s:6963   .debug_loc:0000000000000172 .LLST38
C:\Users\stapi\AppData\Local\Temp\cc81lQEz.s:1826   .text.app_adv_data_update:0000000000000054 .LVL119
C:\Users\stapi\AppData\Local\Temp\cc81lQEz.s:1847   .text.app_adv_data_update:0000000000000074 .LVL122
C:\Users\stapi\AppData\Local\Temp\cc81lQEz.s:1909   .text.app_adv_data_update:00000000000000c6 .LVL124
C:\Users\stapi\AppData\Local\Temp\cc81lQEz.s:1918   .text.app_adv_data_update:00000000000000d2 .LVL126
C:\Users\stapi\AppData\Local\Temp\cc81lQEz.s:1963   .text.app_adv_data_update:0000000000000106 .LVL130
C:\Users\stapi\AppData\Local\Temp\cc81lQEz.s:8450   .debug_str:0000000000001e06 .LASF386
C:\Users\stapi\AppData\Local\Temp\cc81lQEz.s:1692   .text.app_adv_restart:0000000000000000 .LFB9
C:\Users\stapi\AppData\Local\Temp\cc81lQEz.s:1742   .text.app_adv_restart:000000000000003c .LFE9
C:\Users\stapi\AppData\Local\Temp\cc81lQEz.s:6970   .debug_loc:0000000000000185 .LLST30
C:\Users\stapi\AppData\Local\Temp\cc81lQEz.s:6995   .debug_loc:00000000000001bf .LLST31
C:\Users\stapi\AppData\Local\Temp\cc81lQEz.s:7018   .debug_loc:00000000000001f7 .LLST32
C:\Users\stapi\AppData\Local\Temp\cc81lQEz.s:1732   .text.app_adv_restart:0000000000000036 .LVL111
C:\Users\stapi\AppData\Local\Temp\cc81lQEz.s:8562   .debug_str:00000000000022a3 .LASF387
C:\Users\stapi\AppData\Local\Temp\cc81lQEz.s:1592   .text.app_adv_stop:0000000000000000 .LFB8
C:\Users\stapi\AppData\Local\Temp\cc81lQEz.s:1685   .text.app_adv_stop:000000000000006c .LFE8
C:\Users\stapi\AppData\Local\Temp\cc81lQEz.s:7042   .debug_loc:000000000000022c .LLST25
C:\Users\stapi\AppData\Local\Temp\cc81lQEz.s:8136   .debug_str:0000000000000fe5 .LASF388
C:\Users\stapi\AppData\Local\Temp\cc81lQEz.s:7067   .debug_loc:0000000000000266 .LLST26
C:\Users\stapi\AppData\Local\Temp\cc81lQEz.s:7092   .debug_loc:00000000000002a0 .LLST27
C:\Users\stapi\AppData\Local\Temp\cc81lQEz.s:7110   .debug_loc:00000000000002cc .LLST28
C:\Users\stapi\AppData\Local\Temp\cc81lQEz.s:7134   .debug_loc:0000000000000301 .LLST29
C:\Users\stapi\AppData\Local\Temp\cc81lQEz.s:1649   .text.app_adv_stop:0000000000000048 .LVL102
C:\Users\stapi\AppData\Local\Temp\cc81lQEz.s:1682   .text.app_adv_stop:000000000000006a .LVL106
C:\Users\stapi\AppData\Local\Temp\cc81lQEz.s:7958   .debug_str:00000000000007ff .LASF389
C:\Users\stapi\AppData\Local\Temp\cc81lQEz.s:1196   .text.app_adv_create:0000000000000000 .LFB7
C:\Users\stapi\AppData\Local\Temp\cc81lQEz.s:1585   .text.app_adv_create:00000000000001ec .LFE7
C:\Users\stapi\AppData\Local\Temp\cc81lQEz.s:8326   .debug_str:0000000000001890 .LASF390
C:\Users\stapi\AppData\Local\Temp\cc81lQEz.s:7155   .debug_loc:0000000000000337 .LLST22
C:\Users\stapi\AppData\Local\Temp\cc81lQEz.s:7166   .debug_loc:0000000000000355 .LLST23
C:\Users\stapi\AppData\Local\Temp\cc81lQEz.s:8154   .debug_str:0000000000001156 .LASF391
C:\Users\stapi\AppData\Local\Temp\cc81lQEz.s:1224   .text.app_adv_create:000000000000001c .LBB30
C:\Users\stapi\AppData\Local\Temp\cc81lQEz.s:7177   .debug_loc:0000000000000373 .LLST24
C:\Users\stapi\AppData\Local\Temp\cc81lQEz.s:1456   .text.app_adv_create:0000000000000152 .LBB40
C:\Users\stapi\AppData\Local\Temp\cc81lQEz.s:1529   .text.app_adv_create:00000000000001b0 .LBB46
C:\Users\stapi\AppData\Local\Temp\cc81lQEz.s:1222   .text.app_adv_create:000000000000001c .LVL87
C:\Users\stapi\AppData\Local\Temp\cc81lQEz.s:1329   .text.app_adv_create:00000000000000a8 .LVL91
C:\Users\stapi\AppData\Local\Temp\cc81lQEz.s:1343   .text.app_adv_create:00000000000000c2 .LVL92
C:\Users\stapi\AppData\Local\Temp\cc81lQEz.s:1393   .text.app_adv_create:0000000000000112 .LVL93
C:\Users\stapi\AppData\Local\Temp\cc81lQEz.s:7928   .debug_str:0000000000000653 .LASF398
C:\Users\stapi\AppData\Local\Temp\cc81lQEz.s:1003   .text.app_adv_mgr_evt_hdlr:0000000000000000 .LFB6
C:\Users\stapi\AppData\Local\Temp\cc81lQEz.s:1189   .text.app_adv_mgr_evt_hdlr:000000000000011e .LFE6
C:\Users\stapi\AppData\Local\Temp\cc81lQEz.s:7872   .debug_str:0000000000000401 .LASF392
C:\Users\stapi\AppData\Local\Temp\cc81lQEz.s:7195   .debug_loc:000000000000039f .LLST14
C:\Users\stapi\AppData\Local\Temp\cc81lQEz.s:7231   .debug_loc:00000000000003f2 .LLST15
C:\Users\stapi\AppData\Local\Temp\cc81lQEz.s:8554   .debug_str:000000000000224e .LASF393
C:\Users\stapi\AppData\Local\Temp\cc81lQEz.s:7242   .debug_loc:0000000000000410 .LLST16
C:\Users\stapi\AppData\Local\Temp\cc81lQEz.s:7286   .debug_loc:0000000000000479 .LLST17
C:\Users\stapi\AppData\Local\Temp\cc81lQEz.s:8284   .debug_str:0000000000001702 .LASF394
C:\Users\stapi\AppData\Local\Temp\cc81lQEz.s:7330   .debug_loc:00000000000004e2 .LLST18
C:\Users\stapi\AppData\Local\Temp\cc81lQEz.s:7866   .debug_str:00000000000003c8 .LASF395
C:\Users\stapi\AppData\Local\Temp\cc81lQEz.s:7345   .debug_loc:000000000000050b .LLST19
C:\Users\stapi\AppData\Local\Temp\cc81lQEz.s:1130   .text.app_adv_mgr_evt_hdlr:00000000000000ba .LBB19
C:\Users\stapi\AppData\Local\Temp\cc81lQEz.s:1142   .text.app_adv_mgr_evt_hdlr:00000000000000c2 .LBE19
C:\Users\stapi\AppData\Local\Temp\cc81lQEz.s:7356   .debug_loc:0000000000000529 .LLST20
C:\Users\stapi\AppData\Local\Temp\cc81lQEz.s:1049   .text.app_adv_mgr_evt_hdlr:0000000000000044 .LVL70
C:\Users\stapi\AppData\Local\Temp\cc81lQEz.s:1075   .text.app_adv_mgr_evt_hdlr:000000000000006c .LVL71
C:\Users\stapi\AppData\Local\Temp\cc81lQEz.s:1079   .text.app_adv_mgr_evt_hdlr:0000000000000076 .LVL72
C:\Users\stapi\AppData\Local\Temp\cc81lQEz.s:1108   .text.app_adv_mgr_evt_hdlr:00000000000000a0 .LVL74
C:\Users\stapi\AppData\Local\Temp\cc81lQEz.s:1118   .text.app_adv_mgr_evt_hdlr:00000000000000b2 .LVL75
C:\Users\stapi\AppData\Local\Temp\cc81lQEz.s:1144   .text.app_adv_mgr_evt_hdlr:00000000000000c2 .LBB22
C:\Users\stapi\AppData\Local\Temp\cc81lQEz.s:1164   .text.app_adv_mgr_evt_hdlr:00000000000000e8 .LBE22
C:\Users\stapi\AppData\Local\Temp\cc81lQEz.s:7776   .debug_str:0000000000000038 .LASF396
C:\Users\stapi\AppData\Local\Temp\cc81lQEz.s:7363   .debug_loc:000000000000053c .LLST21
C:\Users\stapi\AppData\Local\Temp\cc81lQEz.s:1160   .text.app_adv_mgr_evt_hdlr:00000000000000e6 .LVL80
C:\Users\stapi\AppData\Local\Temp\cc81lQEz.s:1165   .text.app_adv_mgr_evt_hdlr:00000000000000e8 .LBB23
C:\Users\stapi\AppData\Local\Temp\cc81lQEz.s:1185   .text.app_adv_mgr_evt_hdlr:000000000000011c .LBE23
C:\Users\stapi\AppData\Local\Temp\cc81lQEz.s:8234   .debug_str:00000000000014ec .LASF397
C:\Users\stapi\AppData\Local\Temp\cc81lQEz.s:1184   .text.app_adv_mgr_evt_hdlr:000000000000011c .LVL84
C:\Users\stapi\AppData\Local\Temp\cc81lQEz.s:8296   .debug_str:000000000000177d .LASF399
C:\Users\stapi\AppData\Local\Temp\cc81lQEz.s:288    .text.app_adv_start:0000000000000000 .LFB5
C:\Users\stapi\AppData\Local\Temp\cc81lQEz.s:981    .text.app_adv_start:000000000000036c .LFE5
C:\Users\stapi\AppData\Local\Temp\cc81lQEz.s:7370   .debug_loc:000000000000054f .LLST8
C:\Users\stapi\AppData\Local\Temp\cc81lQEz.s:8096   .debug_str:0000000000000e26 .LASF400
C:\Users\stapi\AppData\Local\Temp\cc81lQEz.s:8644   .debug_str:00000000000026be .LASF401
C:\Users\stapi\AppData\Local\Temp\cc81lQEz.s:7381   .debug_loc:000000000000056d .LLST9
C:\Users\stapi\AppData\Local\Temp\cc81lQEz.s:354    .text.app_adv_start:000000000000004a .LBB7
C:\Users\stapi\AppData\Local\Temp\cc81lQEz.s:381    .text.app_adv_start:0000000000000072 .LBE7
C:\Users\stapi\AppData\Local\Temp\cc81lQEz.s:8204   .debug_str:0000000000001387 .LASF402
C:\Users\stapi\AppData\Local\Temp\cc81lQEz.s:395    .text.app_adv_start:000000000000007e .LBB9
C:\Users\stapi\AppData\Local\Temp\cc81lQEz.s:450    .text.app_adv_start:00000000000000c2 .LBE9
C:\Users\stapi\AppData\Local\Temp\cc81lQEz.s:7400   .debug_loc:00000000000005a1 .LLST10
C:\Users\stapi\AppData\Local\Temp\cc81lQEz.s:7407   .debug_loc:00000000000005b4 .LLST11
C:\Users\stapi\AppData\Local\Temp\cc81lQEz.s:419    .text.app_adv_start:000000000000009e .LVL40
C:\Users\stapi\AppData\Local\Temp\cc81lQEz.s:432    .text.app_adv_start:00000000000000b4 .LVL42
C:\Users\stapi\AppData\Local\Temp\cc81lQEz.s:469    .text.app_adv_start:00000000000000e0 .LBB11
C:\Users\stapi\AppData\Local\Temp\cc81lQEz.s:495    .text.app_adv_start:0000000000000108 .LBE11
C:\Users\stapi\AppData\Local\Temp\cc81lQEz.s:494    .text.app_adv_start:0000000000000108 .LVL48
C:\Users\stapi\AppData\Local\Temp\cc81lQEz.s:7966   .debug_str:0000000000000843 .LASF403
C:\Users\stapi\AppData\Local\Temp\cc81lQEz.s:552    .text.app_adv_start:000000000000014a .LBB13
C:\Users\stapi\AppData\Local\Temp\cc81lQEz.s:564    .text.app_adv_start:000000000000015a .LBE13
C:\Users\stapi\AppData\Local\Temp\cc81lQEz.s:565    .text.app_adv_start:000000000000015a .LBB14
C:\Users\stapi\AppData\Local\Temp\cc81lQEz.s:577    .text.app_adv_start:000000000000016a .LBE14
C:\Users\stapi\AppData\Local\Temp\cc81lQEz.s:578    .text.app_adv_start:000000000000016a .LBB15
C:\Users\stapi\AppData\Local\Temp\cc81lQEz.s:590    .text.app_adv_start:000000000000017a .LBE15
C:\Users\stapi\AppData\Local\Temp\cc81lQEz.s:591    .text.app_adv_start:000000000000017a .LBB16
C:\Users\stapi\AppData\Local\Temp\cc81lQEz.s:911    .text.app_adv_start:0000000000000318 .LBE16
C:\Users\stapi\AppData\Local\Temp\cc81lQEz.s:7414   .debug_loc:00000000000005c7 .LLST13
C:\Users\stapi\AppData\Local\Temp\cc81lQEz.s:8052   .debug_str:0000000000000c32 .LASF404
C:\Users\stapi\AppData\Local\Temp\cc81lQEz.s:8320   .debug_str:0000000000001865 .LASF405
C:\Users\stapi\AppData\Local\Temp\cc81lQEz.s:8166   .debug_str:00000000000011f7 .LASF406
C:\Users\stapi\AppData\Local\Temp\cc81lQEz.s:8200   .debug_str:000000000000136e .LASF407
C:\Users\stapi\AppData\Local\Temp\cc81lQEz.s:8464   .debug_str:0000000000001eac .LASF408
C:\Users\stapi\AppData\Local\Temp\cc81lQEz.s:8012   .debug_str:0000000000000a67 .LASF409
C:\Users\stapi\AppData\Local\Temp\cc81lQEz.s:622    .text.app_adv_start:00000000000001a6 .LVL51
C:\Users\stapi\AppData\Local\Temp\cc81lQEz.s:7435   .debug_loc:00000000000005fd .LLST12
C:\Users\stapi\AppData\Local\Temp\cc81lQEz.s:458    .text.app_adv_start:00000000000000d4 .LVL44
C:\Users\stapi\AppData\Local\Temp\cc81lQEz.s:462    .text.app_adv_start:00000000000000de .LVL45
C:\Users\stapi\AppData\Local\Temp\cc81lQEz.s:922    .text.app_adv_start:0000000000000324 .LVL59
C:\Users\stapi\AppData\Local\Temp\cc81lQEz.s:935    .text.app_adv_start:000000000000033c .LVL61
C:\Users\stapi\AppData\Local\Temp\cc81lQEz.s:326    .text.app_adv_start:0000000000000026 .LVL38
C:\Users\stapi\AppData\Local\Temp\cc81lQEz.s:8398   .debug_str:0000000000001ba4 .LASF436
C:\Users\stapi\AppData\Local\Temp\cc81lQEz.s:13     .text.app_build_adv_data:0000000000000000 .LFB4
C:\Users\stapi\AppData\Local\Temp\cc81lQEz.s:282    .text.app_build_adv_data:0000000000000118 .LFE4
C:\Users\stapi\AppData\Local\Temp\cc81lQEz.s:7451   .debug_loc:0000000000000628 .LLST0
C:\Users\stapi\AppData\Local\Temp\cc81lQEz.s:7480   .debug_loc:000000000000066d .LLST1
C:\Users\stapi\AppData\Local\Temp\cc81lQEz.s:8148   .debug_str:0000000000001138 .LASF410
C:\Users\stapi\AppData\Local\Temp\cc81lQEz.s:7551   .debug_loc:0000000000000714 .LLST2
C:\Users\stapi\AppData\Local\Temp\cc81lQEz.s:8260   .debug_str:00000000000015c4 .LASF411
C:\Users\stapi\AppData\Local\Temp\cc81lQEz.s:7576   .debug_loc:000000000000074e .LLST3
C:\Users\stapi\AppData\Local\Temp\cc81lQEz.s:8482   .debug_str:0000000000001f3f .LASF412
C:\Users\stapi\AppData\Local\Temp\cc81lQEz.s:7590   .debug_loc:000000000000076f .LLST4
C:\Users\stapi\AppData\Local\Temp\cc81lQEz.s:8474   .debug_str:0000000000001f0a .LASF413
C:\Users\stapi\AppData\Local\Temp\cc81lQEz.s:7631   .debug_loc:00000000000007d5 .LLST5
C:\Users\stapi\AppData\Local\Temp\cc81lQEz.s:8374   .debug_str:0000000000001ade .LASF414
C:\Users\stapi\AppData\Local\Temp\cc81lQEz.s:7638   .debug_loc:00000000000007e8 .LLST6
C:\Users\stapi\AppData\Local\Temp\cc81lQEz.s:7654   .debug_loc:0000000000000812 .LLST7
C:\Users\stapi\AppData\Local\Temp\cc81lQEz.s:154    .text.app_build_adv_data:000000000000007c .LVL15
C:\Users\stapi\AppData\Local\Temp\cc81lQEz.s:194    .text.app_build_adv_data:00000000000000b6 .LVL20
C:\Users\stapi\AppData\Local\Temp\cc81lQEz.s:267    .text.app_build_adv_data:000000000000010a .LVL32
C:\Users\stapi\AppData\Local\Temp\cc81lQEz.s:8492   .debug_str:0000000000001fad .LASF437
C:\Users\stapi\AppData\Local\Temp\cc81lQEz.s:8252   .debug_str:0000000000001589 .LASF438
C:\Users\stapi\AppData\Local\Temp\cc81lQEz.s:7884   .debug_str:0000000000000462 .LASF439
C:\Users\stapi\AppData\Local\Temp\cc81lQEz.s:2090   .text.app_adv_mgr_init:0000000000000000 .LFB14
C:\Users\stapi\AppData\Local\Temp\cc81lQEz.s:2097   .text.app_adv_mgr_init:0000000000000008 .LFE14
C:\Users\stapi\AppData\Local\Temp\cc81lQEz.s:2095   .text.app_adv_mgr_init:0000000000000008 .LVL138
C:\Users\stapi\AppData\Local\Temp\cc81lQEz.s:8400   .debug_str:0000000000001bb7 .LASF422
C:\Users\stapi\AppData\Local\Temp\cc81lQEz.s:7892   .debug_str:00000000000004c6 .LASF424
C:\Users\stapi\AppData\Local\Temp\cc81lQEz.s:7956   .debug_str:00000000000007f4 .LASF415
C:\Users\stapi\AppData\Local\Temp\cc81lQEz.s:8498   .debug_str:0000000000001fd9 .LASF416
C:\Users\stapi\AppData\Local\Temp\cc81lQEz.s:8456   .debug_str:0000000000001e49 .LASF417
C:\Users\stapi\AppData\Local\Temp\cc81lQEz.s:8288   .debug_str:0000000000001723 .LASF418
C:\Users\stapi\AppData\Local\Temp\cc81lQEz.s:8062   .debug_str:0000000000000c87 .LASF419
C:\Users\stapi\AppData\Local\Temp\cc81lQEz.s:8368   .debug_str:0000000000001a96 .LASF420
C:\Users\stapi\AppData\Local\Temp\cc81lQEz.s:8144   .debug_str:000000000000110f .LASF421
C:\Users\stapi\AppData\Local\Temp\cc81lQEz.s:8546   .debug_str:0000000000002209 .LASF423
C:\Users\stapi\AppData\Local\Temp\cc81lQEz.s:8024   .debug_str:0000000000000af0 .LASF425
C:\Users\stapi\AppData\Local\Temp\cc81lQEz.s:8556   .debug_str:0000000000002258 .LASF426
C:\Users\stapi\AppData\Local\Temp\cc81lQEz.s:8420   .debug_str:0000000000001cb2 .LASF427
C:\Users\stapi\AppData\Local\Temp\cc81lQEz.s:8592   .debug_str:0000000000002480 .LASF428
C:\Users\stapi\AppData\Local\Temp\cc81lQEz.s:8406   .debug_str:0000000000001bf8 .LASF429
C:\Users\stapi\AppData\Local\Temp\cc81lQEz.s:2060   .text.app_adv_mgr_reset:0000000000000030 .LVL136
C:\Users\stapi\AppData\Local\Temp\cc81lQEz.s:2075   .text.app_adv_mgr_reset:0000000000000038 .LVL137
C:\Users\stapi\AppData\Local\Temp\cc81lQEz.s:1980   .text.app_adv_data_update_all:0000000000000008 .LVL131
C:\Users\stapi\AppData\Local\Temp\cc81lQEz.s:1752   .text.app_adv_data_update:0000000000000000 .LVL113
C:\Users\stapi\AppData\Local\Temp\cc81lQEz.s:1823   .text.app_adv_data_update:000000000000004a .LVL118
C:\Users\stapi\AppData\Local\Temp\cc81lQEz.s:1932   .text.app_adv_data_update:00000000000000de .LVL127
C:\Users\stapi\AppData\Local\Temp\cc81lQEz.s:1938   .text.app_adv_data_update:00000000000000e2 .LVL128
C:\Users\stapi\AppData\Local\Temp\cc81lQEz.s:1762   .text.app_adv_data_update:0000000000000008 .LVL114
C:\Users\stapi\AppData\Local\Temp\cc81lQEz.s:1786   .text.app_adv_data_update:000000000000001e .LVL115
C:\Users\stapi\AppData\Local\Temp\cc81lQEz.s:1797   .text.app_adv_data_update:000000000000002c .LVL116
C:\Users\stapi\AppData\Local\Temp\cc81lQEz.s:1828   .text.app_adv_data_update:0000000000000056 .LVL120
C:\Users\stapi\AppData\Local\Temp\cc81lQEz.s:1840   .text.app_adv_data_update:0000000000000062 .LVL121
C:\Users\stapi\AppData\Local\Temp\cc81lQEz.s:1818   .text.app_adv_data_update:0000000000000048 .LVL117
C:\Users\stapi\AppData\Local\Temp\cc81lQEz.s:1879   .text.app_adv_data_update:0000000000000096 .LVL123
C:\Users\stapi\AppData\Local\Temp\cc81lQEz.s:1947   .text.app_adv_data_update:00000000000000ea .LVL129
C:\Users\stapi\AppData\Local\Temp\cc81lQEz.s:1913   .text.app_adv_data_update:00000000000000c8 .LVL125
C:\Users\stapi\AppData\Local\Temp\cc81lQEz.s:1695   .text.app_adv_restart:0000000000000000 .LVL107
C:\Users\stapi\AppData\Local\Temp\cc81lQEz.s:1716   .text.app_adv_restart:000000000000001e .LVL109
C:\Users\stapi\AppData\Local\Temp\cc81lQEz.s:1737   .text.app_adv_restart:000000000000003a .LVL112
C:\Users\stapi\AppData\Local\Temp\cc81lQEz.s:1711   .text.app_adv_restart:000000000000001a .LVL108
C:\Users\stapi\AppData\Local\Temp\cc81lQEz.s:1721   .text.app_adv_restart:0000000000000024 .LVL110
C:\Users\stapi\AppData\Local\Temp\cc81lQEz.s:1595   .text.app_adv_stop:0000000000000000 .LVL96
C:\Users\stapi\AppData\Local\Temp\cc81lQEz.s:1626   .text.app_adv_stop:0000000000000028 .LVL99
C:\Users\stapi\AppData\Local\Temp\cc81lQEz.s:1665   .text.app_adv_stop:0000000000000056 .LVL104
C:\Users\stapi\AppData\Local\Temp\cc81lQEz.s:1671   .text.app_adv_stop:000000000000005a .LVL105
C:\Users\stapi\AppData\Local\Temp\cc81lQEz.s:1603   .text.app_adv_stop:0000000000000008 .LVL97
C:\Users\stapi\AppData\Local\Temp\cc81lQEz.s:1621   .text.app_adv_stop:0000000000000024 .LVL98
C:\Users\stapi\AppData\Local\Temp\cc81lQEz.s:1631   .text.app_adv_stop:000000000000002e .LVL100
C:\Users\stapi\AppData\Local\Temp\cc81lQEz.s:1643   .text.app_adv_stop:0000000000000038 .LVL101
C:\Users\stapi\AppData\Local\Temp\cc81lQEz.s:1656   .text.app_adv_stop:000000000000004e .LVL103
C:\Users\stapi\AppData\Local\Temp\cc81lQEz.s:1199   .text.app_adv_create:0000000000000000 .LVL85
C:\Users\stapi\AppData\Local\Temp\cc81lQEz.s:1220   .text.app_adv_create:0000000000000014 .LVL86
C:\Users\stapi\AppData\Local\Temp\cc81lQEz.s:1281   .text.app_adv_create:0000000000000060 .LVL90
C:\Users\stapi\AppData\Local\Temp\cc81lQEz.s:1416   .text.app_adv_create:0000000000000120 .LVL95
C:\Users\stapi\AppData\Local\Temp\cc81lQEz.s:1239   .text.app_adv_create:0000000000000034 .LVL88
C:\Users\stapi\AppData\Local\Temp\cc81lQEz.s:1254   .text.app_adv_create:0000000000000042 .LVL89
C:\Users\stapi\AppData\Local\Temp\cc81lQEz.s:1408   .text.app_adv_create:000000000000011c .LVL94
C:\Users\stapi\AppData\Local\Temp\cc81lQEz.s:1006   .text.app_adv_mgr_evt_hdlr:0000000000000000 .LVL64
C:\Users\stapi\AppData\Local\Temp\cc81lQEz.s:1044   .text.app_adv_mgr_evt_hdlr:0000000000000036 .LVL68
C:\Users\stapi\AppData\Local\Temp\cc81lQEz.s:1139   .text.app_adv_mgr_evt_hdlr:00000000000000c2 .LVL77
C:\Users\stapi\AppData\Local\Temp\cc81lQEz.s:1157   .text.app_adv_mgr_evt_hdlr:00000000000000da .LVL79
C:\Users\stapi\AppData\Local\Temp\cc81lQEz.s:1162   .text.app_adv_mgr_evt_hdlr:00000000000000e8 .LVL81
C:\Users\stapi\AppData\Local\Temp\cc81lQEz.s:1181   .text.app_adv_mgr_evt_hdlr:0000000000000110 .LVL83
C:\Users\stapi\AppData\Local\Temp\cc81lQEz.s:1046   .text.app_adv_mgr_evt_hdlr:0000000000000038 .LVL69
C:\Users\stapi\AppData\Local\Temp\cc81lQEz.s:1042   .text.app_adv_mgr_evt_hdlr:0000000000000032 .LVL67
C:\Users\stapi\AppData\Local\Temp\cc81lQEz.s:1091   .text.app_adv_mgr_evt_hdlr:000000000000007e .LVL73
C:\Users\stapi\AppData\Local\Temp\cc81lQEz.s:1154   .text.app_adv_mgr_evt_hdlr:00000000000000d4 .LVL78
C:\Users\stapi\AppData\Local\Temp\cc81lQEz.s:1178   .text.app_adv_mgr_evt_hdlr:0000000000000108 .LVL82
C:\Users\stapi\AppData\Local\Temp\cc81lQEz.s:1019   .text.app_adv_mgr_evt_hdlr:000000000000000c .LVL65
C:\Users\stapi\AppData\Local\Temp\cc81lQEz.s:1033   .text.app_adv_mgr_evt_hdlr:0000000000000026 .LVL66
C:\Users\stapi\AppData\Local\Temp\cc81lQEz.s:1129   .text.app_adv_mgr_evt_hdlr:00000000000000ba .LVL76
C:\Users\stapi\AppData\Local\Temp\cc81lQEz.s:291    .text.app_adv_start:0000000000000000 .LVL36
C:\Users\stapi\AppData\Local\Temp\cc81lQEz.s:310    .text.app_adv_start:0000000000000010 .LVL37
C:\Users\stapi\AppData\Local\Temp\cc81lQEz.s:407    .text.app_adv_start:0000000000000088 .LVL39
C:\Users\stapi\AppData\Local\Temp\cc81lQEz.s:467    .text.app_adv_start:00000000000000e0 .LVL46
C:\Users\stapi\AppData\Local\Temp\cc81lQEz.s:484    .text.app_adv_start:00000000000000f4 .LVL47
C:\Users\stapi\AppData\Local\Temp\cc81lQEz.s:507    .text.app_adv_start:0000000000000112 .LVL49
C:\Users\stapi\AppData\Local\Temp\cc81lQEz.s:610    .text.app_adv_start:000000000000019a .LVL50
C:\Users\stapi\AppData\Local\Temp\cc81lQEz.s:909    .text.app_adv_start:0000000000000318 .LVL57
C:\Users\stapi\AppData\Local\Temp\cc81lQEz.s:920    .text.app_adv_start:000000000000031c .LVL58
C:\Users\stapi\AppData\Local\Temp\cc81lQEz.s:421    .text.app_adv_start:00000000000000a0 .LVL41
C:\Users\stapi\AppData\Local\Temp\cc81lQEz.s:448    .text.app_adv_start:00000000000000c2 .LVL43
C:\Users\stapi\AppData\Local\Temp\cc81lQEz.s:728    .text.app_adv_start:000000000000022c .LVL52
C:\Users\stapi\AppData\Local\Temp\cc81lQEz.s:735    .text.app_adv_start:0000000000000232 .LVL53
C:\Users\stapi\AppData\Local\Temp\cc81lQEz.s:743    .text.app_adv_start:0000000000000238 .LVL54
C:\Users\stapi\AppData\Local\Temp\cc81lQEz.s:745    .text.app_adv_start:000000000000023c .LVL55
C:\Users\stapi\AppData\Local\Temp\cc81lQEz.s:759    .text.app_adv_start:000000000000024e .LVL56
C:\Users\stapi\AppData\Local\Temp\cc81lQEz.s:958    .text.app_adv_start:0000000000000354 .LVL62
C:\Users\stapi\AppData\Local\Temp\cc81lQEz.s:970    .text.app_adv_start:0000000000000362 .LVL63
C:\Users\stapi\AppData\Local\Temp\cc81lQEz.s:17     .text.app_build_adv_data:0000000000000000 .LVL0
C:\Users\stapi\AppData\Local\Temp\cc81lQEz.s:61     .text.app_build_adv_data:0000000000000022 .LVL3
C:\Users\stapi\AppData\Local\Temp\cc81lQEz.s:83     .text.app_build_adv_data:000000000000003a .LVL7
C:\Users\stapi\AppData\Local\Temp\cc81lQEz.s:144    .text.app_build_adv_data:000000000000006e .LVL13
C:\Users\stapi\AppData\Local\Temp\cc81lQEz.s:148    .text.app_build_adv_data:0000000000000072 .LVL14
C:\Users\stapi\AppData\Local\Temp\cc81lQEz.s:65     .text.app_build_adv_data:0000000000000026 .LVL4
C:\Users\stapi\AppData\Local\Temp\cc81lQEz.s:74     .text.app_build_adv_data:000000000000002e .LVL6
C:\Users\stapi\AppData\Local\Temp\cc81lQEz.s:92     .text.app_build_adv_data:0000000000000044 .LVL8
C:\Users\stapi\AppData\Local\Temp\cc81lQEz.s:99     .text.app_build_adv_data:000000000000004a .LVL9
C:\Users\stapi\AppData\Local\Temp\cc81lQEz.s:134    .text.app_build_adv_data:0000000000000066 .LVL12
C:\Users\stapi\AppData\Local\Temp\cc81lQEz.s:198    .text.app_build_adv_data:00000000000000b8 .LVL21
C:\Users\stapi\AppData\Local\Temp\cc81lQEz.s:211    .text.app_build_adv_data:00000000000000ca .LVL22
C:\Users\stapi\AppData\Local\Temp\cc81lQEz.s:223    .text.app_build_adv_data:00000000000000d8 .LVL23
C:\Users\stapi\AppData\Local\Temp\cc81lQEz.s:230    .text.app_build_adv_data:00000000000000e0 .LVL24
C:\Users\stapi\AppData\Local\Temp\cc81lQEz.s:234    .text.app_build_adv_data:00000000000000e4 .LVL25
C:\Users\stapi\AppData\Local\Temp\cc81lQEz.s:238    .text.app_build_adv_data:00000000000000e8 .LVL26
C:\Users\stapi\AppData\Local\Temp\cc81lQEz.s:247    .text.app_build_adv_data:00000000000000f0 .LVL28
C:\Users\stapi\AppData\Local\Temp\cc81lQEz.s:70     .text.app_build_adv_data:000000000000002a .LVL5
C:\Users\stapi\AppData\Local\Temp\cc81lQEz.s:52     .text.app_build_adv_data:0000000000000016 .LVL2
C:\Users\stapi\AppData\Local\Temp\cc81lQEz.s:33     .text.app_build_adv_data:0000000000000008 .LVL1
C:\Users\stapi\AppData\Local\Temp\cc81lQEz.s:103    .text.app_build_adv_data:000000000000004e .LVL10
C:\Users\stapi\AppData\Local\Temp\cc81lQEz.s:113    .text.app_build_adv_data:0000000000000058 .LVL11
C:\Users\stapi\AppData\Local\Temp\cc81lQEz.s:161    .text.app_build_adv_data:0000000000000084 .LVL16
C:\Users\stapi\AppData\Local\Temp\cc81lQEz.s:259    .text.app_build_adv_data:00000000000000fc .LVL30
C:\Users\stapi\AppData\Local\Temp\cc81lQEz.s:261    .text.app_build_adv_data:0000000000000100 .LVL31
C:\Users\stapi\AppData\Local\Temp\cc81lQEz.s:166    .text.app_build_adv_data:000000000000008c .LVL17
C:\Users\stapi\AppData\Local\Temp\cc81lQEz.s:179    .text.app_build_adv_data:000000000000009c .LVL18
C:\Users\stapi\AppData\Local\Temp\cc81lQEz.s:242    .text.app_build_adv_data:00000000000000ec .LVL27
C:\Users\stapi\AppData\Local\Temp\cc81lQEz.s:250    .text.app_build_adv_data:00000000000000f4 .LVL29
C:\Users\stapi\AppData\Local\Temp\cc81lQEz.s:270    .text.app_build_adv_data:000000000000010c .LVL33
C:\Users\stapi\AppData\Local\Temp\cc81lQEz.s:279    .text.app_build_adv_data:0000000000000116 .LVL35
C:\Users\stapi\AppData\Local\Temp\cc81lQEz.s:187    .text.app_build_adv_data:00000000000000a8 .LVL19
C:\Users\stapi\AppData\Local\Temp\cc81lQEz.s:2236   .debug_info:0000000000000000 .Ldebug_info0
C:\Users\stapi\AppData\Local\Temp\cc81lQEz.s:382    .text.app_adv_start:0000000000000072 .LBB8
C:\Users\stapi\AppData\Local\Temp\cc81lQEz.s:394    .text.app_adv_start:000000000000007e .LBE8
C:\Users\stapi\AppData\Local\Temp\cc81lQEz.s:510    .text.app_adv_start:0000000000000112 .LBB12
C:\Users\stapi\AppData\Local\Temp\cc81lQEz.s:551    .text.app_adv_start:000000000000014a .LBE12
C:\Users\stapi\AppData\Local\Temp\cc81lQEz.s:451    .text.app_adv_start:00000000000000c2 .LBB10
C:\Users\stapi\AppData\Local\Temp\cc81lQEz.s:463    .text.app_adv_start:00000000000000de .LBE10
C:\Users\stapi\AppData\Local\Temp\cc81lQEz.s:912    .text.app_adv_start:0000000000000318 .LBB17
C:\Users\stapi\AppData\Local\Temp\cc81lQEz.s:979    .text.app_adv_start:000000000000036c .LBE17
C:\Users\stapi\AppData\Local\Temp\cc81lQEz.s:1025   .text.app_adv_mgr_evt_hdlr:0000000000000018 .LBB18
C:\Users\stapi\AppData\Local\Temp\cc81lQEz.s:1081   .text.app_adv_mgr_evt_hdlr:0000000000000076 .LBE18
C:\Users\stapi\AppData\Local\Temp\cc81lQEz.s:1094   .text.app_adv_mgr_evt_hdlr:000000000000007e .LBB21
C:\Users\stapi\AppData\Local\Temp\cc81lQEz.s:1143   .text.app_adv_mgr_evt_hdlr:00000000000000c2 .LBE21
C:\Users\stapi\AppData\Local\Temp\cc81lQEz.s:1245   .text.app_adv_create:0000000000000038 .LBE30
C:\Users\stapi\AppData\Local\Temp\cc81lQEz.s:1248   .text.app_adv_create:000000000000003c .LBB36
C:\Users\stapi\AppData\Local\Temp\cc81lQEz.s:1261   .text.app_adv_create:0000000000000048 .LBE36
C:\Users\stapi\AppData\Local\Temp\cc81lQEz.s:1264   .text.app_adv_create:000000000000004c .LBB37
C:\Users\stapi\AppData\Local\Temp\cc81lQEz.s:1269   .text.app_adv_create:0000000000000050 .LBE37
C:\Users\stapi\AppData\Local\Temp\cc81lQEz.s:1277   .text.app_adv_create:000000000000005e .LBB38
C:\Users\stapi\AppData\Local\Temp\cc81lQEz.s:1283   .text.app_adv_create:0000000000000060 .LBE38
C:\Users\stapi\AppData\Local\Temp\cc81lQEz.s:1411   .text.app_adv_create:000000000000011c .LBB39
C:\Users\stapi\AppData\Local\Temp\cc81lQEz.s:1419   .text.app_adv_create:0000000000000120 .LBE39
C:\Users\stapi\AppData\Local\Temp\cc81lQEz.s:1461   .text.app_adv_create:0000000000000154 .LBE40
C:\Users\stapi\AppData\Local\Temp\cc81lQEz.s:1465   .text.app_adv_create:0000000000000158 .LBB44
C:\Users\stapi\AppData\Local\Temp\cc81lQEz.s:1480   .text.app_adv_create:000000000000016a .LBE44
C:\Users\stapi\AppData\Local\Temp\cc81lQEz.s:1498   .text.app_adv_create:0000000000000186 .LBB45
C:\Users\stapi\AppData\Local\Temp\cc81lQEz.s:1506   .text.app_adv_create:000000000000018c .LBE45
C:\Users\stapi\AppData\Local\Temp\cc81lQEz.s:1534   .text.app_adv_create:00000000000001b4 .LBE46
C:\Users\stapi\AppData\Local\Temp\cc81lQEz.s:1542   .text.app_adv_create:00000000000001b8 .LBB50
C:\Users\stapi\AppData\Local\Temp\cc81lQEz.s:1558   .text.app_adv_create:00000000000001c8 .LBE50
C:\Users\stapi\AppData\Local\Temp\cc81lQEz.s:1576   .text.app_adv_create:00000000000001e6 .LBB51
C:\Users\stapi\AppData\Local\Temp\cc81lQEz.s:1583   .text.app_adv_create:00000000000001ec .LBE51

UNDEFINED SYMBOLS
__riscv_save_11
__riscv_restore_11
app_adp_get_name
memcpy
rand
__riscv_save_2
sys_malloc
ble_adv_start
sys_mfree
__riscv_restore_2
memset
__riscv_save_4
global_debug_level
co_printf
__riscv_restore_4
ble_adv_remove
__riscv_save_6
ble_adv_create
__riscv_restore_6
ble_adv_stop
ble_adv_restart
ble_adv_data_update
__riscv_save_0
__riscv_restore_0
__riscv_save_1
__riscv_restore_1
