   1              		.file	"app_datatrans_srv.c"
   2              		.option nopic
   3              		.attribute arch, "rv32i2p0_m2p0_a2p0_f2p0_c2p0_b_p0p94"
   4              		.attribute unaligned_access, 0
   5              		.attribute stack_align, 16
   6              		.text
   7              	.Ltext0:
   8              		.cfi_sections	.debug_frame
   9              		.section	.rodata.app_datatrans_srv_rx_callback.str1.4,"aMS",@progbits,1
  10              		.align	2
  11              	.LC0:
  12 0000 64617461 		.string	"datatrans srv receive data: \r\n"
  12      7472616E 
  12      73207372 
  12      76207265 
  12      63656976 
  13 001f 00       		.align	2
  14              	.LC1:
  15 0020 25730D0A 		.string	"%s\r\n"
  15      00
  16              		.section	.text.app_datatrans_srv_rx_callback,"ax",@progbits
  17              		.align	1
  19              	app_datatrans_srv_rx_callback:
  20              	.LFB15:
  21              		.file 1 "C:/Users/stapi/OneDrive/Desktop/GD32VW553/GD32VW55X_Wifi_BLE_SDK/GD32VW55x_RELEASE_V1.0.2
   1:C:/Users/stapi/OneDrive/Desktop/GD32VW553/GD32VW55X_Wifi_BLE_SDK/GD32VW55x_RELEASE_V1.0.2/MSDK/ble/app\app_datatrans_srv.c **** /*!
   2:C:/Users/stapi/OneDrive/Desktop/GD32VW553/GD32VW55X_Wifi_BLE_SDK/GD32VW55x_RELEASE_V1.0.2/MSDK/ble/app\app_datatrans_srv.c ****     \file    app_datatrans_srv.c
   3:C:/Users/stapi/OneDrive/Desktop/GD32VW553/GD32VW55X_Wifi_BLE_SDK/GD32VW55x_RELEASE_V1.0.2/MSDK/ble/app\app_datatrans_srv.c ****     \brief   Datatrans Service Server Application Module entry point.
   4:C:/Users/stapi/OneDrive/Desktop/GD32VW553/GD32VW55X_Wifi_BLE_SDK/GD32VW55x_RELEASE_V1.0.2/MSDK/ble/app\app_datatrans_srv.c **** 
   5:C:/Users/stapi/OneDrive/Desktop/GD32VW553/GD32VW55X_Wifi_BLE_SDK/GD32VW55x_RELEASE_V1.0.2/MSDK/ble/app\app_datatrans_srv.c ****     \version 2024-07-2, V1.0.0, firmware for GD32VW55x
   6:C:/Users/stapi/OneDrive/Desktop/GD32VW553/GD32VW55X_Wifi_BLE_SDK/GD32VW55x_RELEASE_V1.0.2/MSDK/ble/app\app_datatrans_srv.c **** */
   7:C:/Users/stapi/OneDrive/Desktop/GD32VW553/GD32VW55X_Wifi_BLE_SDK/GD32VW55x_RELEASE_V1.0.2/MSDK/ble/app\app_datatrans_srv.c **** 
   8:C:/Users/stapi/OneDrive/Desktop/GD32VW553/GD32VW55X_Wifi_BLE_SDK/GD32VW55x_RELEASE_V1.0.2/MSDK/ble/app\app_datatrans_srv.c **** /*
   9:C:/Users/stapi/OneDrive/Desktop/GD32VW553/GD32VW55X_Wifi_BLE_SDK/GD32VW55x_RELEASE_V1.0.2/MSDK/ble/app\app_datatrans_srv.c ****     Copyright (c) 2023, GigaDevice Semiconductor Inc.
  10:C:/Users/stapi/OneDrive/Desktop/GD32VW553/GD32VW55X_Wifi_BLE_SDK/GD32VW55x_RELEASE_V1.0.2/MSDK/ble/app\app_datatrans_srv.c **** 
  11:C:/Users/stapi/OneDrive/Desktop/GD32VW553/GD32VW55X_Wifi_BLE_SDK/GD32VW55x_RELEASE_V1.0.2/MSDK/ble/app\app_datatrans_srv.c ****     Redistribution and use in source and binary forms, with or without modification,
  12:C:/Users/stapi/OneDrive/Desktop/GD32VW553/GD32VW55X_Wifi_BLE_SDK/GD32VW55x_RELEASE_V1.0.2/MSDK/ble/app\app_datatrans_srv.c **** are permitted provided that the following conditions are met:
  13:C:/Users/stapi/OneDrive/Desktop/GD32VW553/GD32VW55X_Wifi_BLE_SDK/GD32VW55x_RELEASE_V1.0.2/MSDK/ble/app\app_datatrans_srv.c **** 
  14:C:/Users/stapi/OneDrive/Desktop/GD32VW553/GD32VW55X_Wifi_BLE_SDK/GD32VW55x_RELEASE_V1.0.2/MSDK/ble/app\app_datatrans_srv.c ****     1. Redistributions of source code must retain the above copyright notice, this
  15:C:/Users/stapi/OneDrive/Desktop/GD32VW553/GD32VW55X_Wifi_BLE_SDK/GD32VW55x_RELEASE_V1.0.2/MSDK/ble/app\app_datatrans_srv.c ****        list of conditions and the following disclaimer.
  16:C:/Users/stapi/OneDrive/Desktop/GD32VW553/GD32VW55X_Wifi_BLE_SDK/GD32VW55x_RELEASE_V1.0.2/MSDK/ble/app\app_datatrans_srv.c ****     2. Redistributions in binary form must reproduce the above copyright notice,
  17:C:/Users/stapi/OneDrive/Desktop/GD32VW553/GD32VW55X_Wifi_BLE_SDK/GD32VW55x_RELEASE_V1.0.2/MSDK/ble/app\app_datatrans_srv.c ****        this list of conditions and the following disclaimer in the documentation
  18:C:/Users/stapi/OneDrive/Desktop/GD32VW553/GD32VW55X_Wifi_BLE_SDK/GD32VW55x_RELEASE_V1.0.2/MSDK/ble/app\app_datatrans_srv.c ****        and/or other materials provided with the distribution.
  19:C:/Users/stapi/OneDrive/Desktop/GD32VW553/GD32VW55X_Wifi_BLE_SDK/GD32VW55x_RELEASE_V1.0.2/MSDK/ble/app\app_datatrans_srv.c ****     3. Neither the name of the copyright holder nor the names of its contributors
  20:C:/Users/stapi/OneDrive/Desktop/GD32VW553/GD32VW55X_Wifi_BLE_SDK/GD32VW55x_RELEASE_V1.0.2/MSDK/ble/app\app_datatrans_srv.c ****        may be used to endorse or promote products derived from this software without
  21:C:/Users/stapi/OneDrive/Desktop/GD32VW553/GD32VW55X_Wifi_BLE_SDK/GD32VW55x_RELEASE_V1.0.2/MSDK/ble/app\app_datatrans_srv.c ****        specific prior written permission.
  22:C:/Users/stapi/OneDrive/Desktop/GD32VW553/GD32VW55X_Wifi_BLE_SDK/GD32VW55x_RELEASE_V1.0.2/MSDK/ble/app\app_datatrans_srv.c **** 
  23:C:/Users/stapi/OneDrive/Desktop/GD32VW553/GD32VW55X_Wifi_BLE_SDK/GD32VW55x_RELEASE_V1.0.2/MSDK/ble/app\app_datatrans_srv.c ****     THIS SOFTWARE IS PROVIDED BY THE COPYRIGHT HOLDERS AND CONTRIBUTORS "AS IS"
  24:C:/Users/stapi/OneDrive/Desktop/GD32VW553/GD32VW55X_Wifi_BLE_SDK/GD32VW55x_RELEASE_V1.0.2/MSDK/ble/app\app_datatrans_srv.c **** AND ANY EXPRESS OR IMPLIED WARRANTIES, INCLUDING, BUT NOT LIMITED TO, THE IMPLIED
  25:C:/Users/stapi/OneDrive/Desktop/GD32VW553/GD32VW55X_Wifi_BLE_SDK/GD32VW55x_RELEASE_V1.0.2/MSDK/ble/app\app_datatrans_srv.c **** WARRANTIES OF MERCHANTABILITY AND FITNESS FOR A PARTICULAR PURPOSE ARE DISCLAIMED.
  26:C:/Users/stapi/OneDrive/Desktop/GD32VW553/GD32VW55X_Wifi_BLE_SDK/GD32VW55x_RELEASE_V1.0.2/MSDK/ble/app\app_datatrans_srv.c **** IN NO EVENT SHALL THE COPYRIGHT HOLDER OR CONTRIBUTORS BE LIABLE FOR ANY DIRECT,
  27:C:/Users/stapi/OneDrive/Desktop/GD32VW553/GD32VW55X_Wifi_BLE_SDK/GD32VW55x_RELEASE_V1.0.2/MSDK/ble/app\app_datatrans_srv.c **** INDIRECT, INCIDENTAL, SPECIAL, EXEMPLARY, OR CONSEQUENTIAL DAMAGES (INCLUDING, BUT
  28:C:/Users/stapi/OneDrive/Desktop/GD32VW553/GD32VW55X_Wifi_BLE_SDK/GD32VW55x_RELEASE_V1.0.2/MSDK/ble/app\app_datatrans_srv.c **** NOT LIMITED TO, PROCUREMENT OF SUBSTITUTE GOODS OR SERVICES; LOSS OF USE, DATA, OR
  29:C:/Users/stapi/OneDrive/Desktop/GD32VW553/GD32VW55X_Wifi_BLE_SDK/GD32VW55x_RELEASE_V1.0.2/MSDK/ble/app\app_datatrans_srv.c **** PROFITS; OR BUSINESS INTERRUPTION) HOWEVER CAUSED AND ON ANY THEORY OF LIABILITY,
  30:C:/Users/stapi/OneDrive/Desktop/GD32VW553/GD32VW55X_Wifi_BLE_SDK/GD32VW55x_RELEASE_V1.0.2/MSDK/ble/app\app_datatrans_srv.c **** WHETHER IN CONTRACT, STRICT LIABILITY, OR TORT (INCLUDING NEGLIGENCE OR OTHERWISE)
  31:C:/Users/stapi/OneDrive/Desktop/GD32VW553/GD32VW55X_Wifi_BLE_SDK/GD32VW55x_RELEASE_V1.0.2/MSDK/ble/app\app_datatrans_srv.c **** ARISING IN ANY WAY OUT OF THE USE OF THIS SOFTWARE, EVEN IF ADVISED OF THE POSSIBILITY
  32:C:/Users/stapi/OneDrive/Desktop/GD32VW553/GD32VW55X_Wifi_BLE_SDK/GD32VW55x_RELEASE_V1.0.2/MSDK/ble/app\app_datatrans_srv.c **** OF SUCH DAMAGE.
  33:C:/Users/stapi/OneDrive/Desktop/GD32VW553/GD32VW55X_Wifi_BLE_SDK/GD32VW55x_RELEASE_V1.0.2/MSDK/ble/app\app_datatrans_srv.c **** */
  34:C:/Users/stapi/OneDrive/Desktop/GD32VW553/GD32VW55X_Wifi_BLE_SDK/GD32VW55x_RELEASE_V1.0.2/MSDK/ble/app\app_datatrans_srv.c **** 
  35:C:/Users/stapi/OneDrive/Desktop/GD32VW553/GD32VW55X_Wifi_BLE_SDK/GD32VW55x_RELEASE_V1.0.2/MSDK/ble/app\app_datatrans_srv.c **** #include <string.h>
  36:C:/Users/stapi/OneDrive/Desktop/GD32VW553/GD32VW55X_Wifi_BLE_SDK/GD32VW55x_RELEASE_V1.0.2/MSDK/ble/app\app_datatrans_srv.c **** #include "app_datatrans_srv.h"
  37:C:/Users/stapi/OneDrive/Desktop/GD32VW553/GD32VW55X_Wifi_BLE_SDK/GD32VW55x_RELEASE_V1.0.2/MSDK/ble/app\app_datatrans_srv.c **** #include "ble_datatrans_srv.h"
  38:C:/Users/stapi/OneDrive/Desktop/GD32VW553/GD32VW55X_Wifi_BLE_SDK/GD32VW55x_RELEASE_V1.0.2/MSDK/ble/app\app_datatrans_srv.c **** #include "wrapper_os.h"
  39:C:/Users/stapi/OneDrive/Desktop/GD32VW553/GD32VW55X_Wifi_BLE_SDK/GD32VW55x_RELEASE_V1.0.2/MSDK/ble/app\app_datatrans_srv.c **** #include "dbg_print.h"
  40:C:/Users/stapi/OneDrive/Desktop/GD32VW553/GD32VW55X_Wifi_BLE_SDK/GD32VW55x_RELEASE_V1.0.2/MSDK/ble/app\app_datatrans_srv.c **** #include "app_dev_mgr.h"
  41:C:/Users/stapi/OneDrive/Desktop/GD32VW553/GD32VW55X_Wifi_BLE_SDK/GD32VW55x_RELEASE_V1.0.2/MSDK/ble/app\app_datatrans_srv.c **** #include "cmd_shell.h"
  42:C:/Users/stapi/OneDrive/Desktop/GD32VW553/GD32VW55X_Wifi_BLE_SDK/GD32VW55x_RELEASE_V1.0.2/MSDK/ble/app\app_datatrans_srv.c **** 
  43:C:/Users/stapi/OneDrive/Desktop/GD32VW553/GD32VW55X_Wifi_BLE_SDK/GD32VW55x_RELEASE_V1.0.2/MSDK/ble/app\app_datatrans_srv.c **** /*!
  44:C:/Users/stapi/OneDrive/Desktop/GD32VW553/GD32VW55X_Wifi_BLE_SDK/GD32VW55x_RELEASE_V1.0.2/MSDK/ble/app\app_datatrans_srv.c ****     \brief      APP datatrans service server tx callback
  45:C:/Users/stapi/OneDrive/Desktop/GD32VW553/GD32VW55X_Wifi_BLE_SDK/GD32VW55x_RELEASE_V1.0.2/MSDK/ble/app\app_datatrans_srv.c ****     \param[in]  data_len: data_length
  46:C:/Users/stapi/OneDrive/Desktop/GD32VW553/GD32VW55X_Wifi_BLE_SDK/GD32VW55x_RELEASE_V1.0.2/MSDK/ble/app\app_datatrans_srv.c ****     \param[in]  p_data: pointer to data to handle
  47:C:/Users/stapi/OneDrive/Desktop/GD32VW553/GD32VW55X_Wifi_BLE_SDK/GD32VW55x_RELEASE_V1.0.2/MSDK/ble/app\app_datatrans_srv.c ****     \param[out] none
  48:C:/Users/stapi/OneDrive/Desktop/GD32VW553/GD32VW55X_Wifi_BLE_SDK/GD32VW55x_RELEASE_V1.0.2/MSDK/ble/app\app_datatrans_srv.c ****     \retval     none
  49:C:/Users/stapi/OneDrive/Desktop/GD32VW553/GD32VW55X_Wifi_BLE_SDK/GD32VW55x_RELEASE_V1.0.2/MSDK/ble/app\app_datatrans_srv.c **** */
  50:C:/Users/stapi/OneDrive/Desktop/GD32VW553/GD32VW55X_Wifi_BLE_SDK/GD32VW55x_RELEASE_V1.0.2/MSDK/ble/app\app_datatrans_srv.c **** static void app_datatrans_srv_tx_callback(uint16_t data_len, uint8_t *p_data)
  51:C:/Users/stapi/OneDrive/Desktop/GD32VW553/GD32VW55X_Wifi_BLE_SDK/GD32VW55x_RELEASE_V1.0.2/MSDK/ble/app\app_datatrans_srv.c **** {
  52:C:/Users/stapi/OneDrive/Desktop/GD32VW553/GD32VW55X_Wifi_BLE_SDK/GD32VW55x_RELEASE_V1.0.2/MSDK/ble/app\app_datatrans_srv.c ****     uint32_t conidx_bf = dm_get_conidx_bf();
  53:C:/Users/stapi/OneDrive/Desktop/GD32VW553/GD32VW55X_Wifi_BLE_SDK/GD32VW55x_RELEASE_V1.0.2/MSDK/ble/app\app_datatrans_srv.c **** 
  54:C:/Users/stapi/OneDrive/Desktop/GD32VW553/GD32VW55X_Wifi_BLE_SDK/GD32VW55x_RELEASE_V1.0.2/MSDK/ble/app\app_datatrans_srv.c ****     if (conidx_bf && (ble_datatrans_srv_tx_mtp(conidx_bf, p_data, data_len) == BLE_ERR_NO_ERROR)) {
  55:C:/Users/stapi/OneDrive/Desktop/GD32VW553/GD32VW55X_Wifi_BLE_SDK/GD32VW55x_RELEASE_V1.0.2/MSDK/ble/app\app_datatrans_srv.c ****         app_print("datatrans srv send data: \r\n");
  56:C:/Users/stapi/OneDrive/Desktop/GD32VW553/GD32VW55X_Wifi_BLE_SDK/GD32VW55x_RELEASE_V1.0.2/MSDK/ble/app\app_datatrans_srv.c ****         app_print("%s\r\n", p_data);
  57:C:/Users/stapi/OneDrive/Desktop/GD32VW553/GD32VW55X_Wifi_BLE_SDK/GD32VW55x_RELEASE_V1.0.2/MSDK/ble/app\app_datatrans_srv.c ****     }
  58:C:/Users/stapi/OneDrive/Desktop/GD32VW553/GD32VW55X_Wifi_BLE_SDK/GD32VW55x_RELEASE_V1.0.2/MSDK/ble/app\app_datatrans_srv.c **** }
  59:C:/Users/stapi/OneDrive/Desktop/GD32VW553/GD32VW55X_Wifi_BLE_SDK/GD32VW55x_RELEASE_V1.0.2/MSDK/ble/app\app_datatrans_srv.c **** 
  60:C:/Users/stapi/OneDrive/Desktop/GD32VW553/GD32VW55X_Wifi_BLE_SDK/GD32VW55x_RELEASE_V1.0.2/MSDK/ble/app\app_datatrans_srv.c **** /*!
  61:C:/Users/stapi/OneDrive/Desktop/GD32VW553/GD32VW55X_Wifi_BLE_SDK/GD32VW55x_RELEASE_V1.0.2/MSDK/ble/app\app_datatrans_srv.c ****     \brief      APP datatrans service server rx callback
  62:C:/Users/stapi/OneDrive/Desktop/GD32VW553/GD32VW55X_Wifi_BLE_SDK/GD32VW55x_RELEASE_V1.0.2/MSDK/ble/app\app_datatrans_srv.c ****     \param[in]  data_len: data_length
  63:C:/Users/stapi/OneDrive/Desktop/GD32VW553/GD32VW55X_Wifi_BLE_SDK/GD32VW55x_RELEASE_V1.0.2/MSDK/ble/app\app_datatrans_srv.c ****     \param[in]  p_data: pointer to data to handle
  64:C:/Users/stapi/OneDrive/Desktop/GD32VW553/GD32VW55X_Wifi_BLE_SDK/GD32VW55x_RELEASE_V1.0.2/MSDK/ble/app\app_datatrans_srv.c ****     \param[out] none
  65:C:/Users/stapi/OneDrive/Desktop/GD32VW553/GD32VW55X_Wifi_BLE_SDK/GD32VW55x_RELEASE_V1.0.2/MSDK/ble/app\app_datatrans_srv.c ****     \retval     none
  66:C:/Users/stapi/OneDrive/Desktop/GD32VW553/GD32VW55X_Wifi_BLE_SDK/GD32VW55x_RELEASE_V1.0.2/MSDK/ble/app\app_datatrans_srv.c **** */
  67:C:/Users/stapi/OneDrive/Desktop/GD32VW553/GD32VW55X_Wifi_BLE_SDK/GD32VW55x_RELEASE_V1.0.2/MSDK/ble/app\app_datatrans_srv.c **** static void app_datatrans_srv_rx_callback(uint16_t data_len, uint8_t *p_data)
  68:C:/Users/stapi/OneDrive/Desktop/GD32VW553/GD32VW55X_Wifi_BLE_SDK/GD32VW55x_RELEASE_V1.0.2/MSDK/ble/app\app_datatrans_srv.c **** {
  22              		.loc 1 68 1
  23              		.cfi_startproc
  24              	.LVL0:
  25 0000 17030000 		call	t0,__riscv_save_4
  25      E7020300 
  26              		.cfi_offset 19, -20
  27              		.cfi_offset 18, -16
  28              		.cfi_offset 9, -12
  29              		.cfi_offset 8, -8
  30              		.cfi_offset 1, -4
  31              		.cfi_def_cfa_offset 32
  69:C:/Users/stapi/OneDrive/Desktop/GD32VW553/GD32VW55X_Wifi_BLE_SDK/GD32VW55x_RELEASE_V1.0.2/MSDK/ble/app\app_datatrans_srv.c ****     uint8_t *p_str = sys_malloc(data_len + 1);
  32              		.loc 1 69 5
  33              		.loc 1 69 42 is_stmt 0
  34 0008 93091500 		addi	s3,a0,1
  68:C:/Users/stapi/OneDrive/Desktop/GD32VW553/GD32VW55X_Wifi_BLE_SDK/GD32VW55x_RELEASE_V1.0.2/MSDK/ble/app\app_datatrans_srv.c ****     uint8_t *p_str = sys_malloc(data_len + 1);
  35              		.loc 1 68 1
  36 000c AA84     		mv	s1,a0
  37              		.loc 1 69 22
  38 000e 4E85     		mv	a0,s3
  39              	.LVL1:
  68:C:/Users/stapi/OneDrive/Desktop/GD32VW553/GD32VW55X_Wifi_BLE_SDK/GD32VW55x_RELEASE_V1.0.2/MSDK/ble/app\app_datatrans_srv.c ****     uint8_t *p_str = sys_malloc(data_len + 1);
  40              		.loc 1 68 1
  41 0010 2E89     		mv	s2,a1
  42              		.loc 1 69 22
  43 0012 97000000 		call	sys_malloc
  43      E7800000 
  44              	.LVL2:
  70:C:/Users/stapi/OneDrive/Desktop/GD32VW553/GD32VW55X_Wifi_BLE_SDK/GD32VW55x_RELEASE_V1.0.2/MSDK/ble/app\app_datatrans_srv.c **** 
  71:C:/Users/stapi/OneDrive/Desktop/GD32VW553/GD32VW55X_Wifi_BLE_SDK/GD32VW55x_RELEASE_V1.0.2/MSDK/ble/app\app_datatrans_srv.c ****     if (p_str) {
  45              		.loc 1 71 5 is_stmt 1
  46              		.loc 1 71 8 is_stmt 0
  47 001a 31C5     		beq	a0,zero,.L1
  48 001c 2A84     		mv	s0,a0
  72:C:/Users/stapi/OneDrive/Desktop/GD32VW553/GD32VW55X_Wifi_BLE_SDK/GD32VW55x_RELEASE_V1.0.2/MSDK/ble/app\app_datatrans_srv.c ****         app_print("datatrans srv receive data: \r\n");
  49              		.loc 1 72 9 is_stmt 1
  50 001e 37050000 		lui	a0,%hi(.LC0)
  51              	.LVL3:
  52 0022 13050500 		addi	a0,a0,%lo(.LC0)
  53 0026 97000000 		call	co_printf
  53      E7800000 
  54              	.LVL4:
  73:C:/Users/stapi/OneDrive/Desktop/GD32VW553/GD32VW55X_Wifi_BLE_SDK/GD32VW55x_RELEASE_V1.0.2/MSDK/ble/app\app_datatrans_srv.c ****         memset(p_str, 0, data_len + 1);
  55              		.loc 1 73 9
  56 002e 4E86     		mv	a2,s3
  57 0030 8145     		li	a1,0
  58 0032 2285     		mv	a0,s0
  59 0034 97000000 		call	memset
  59      E7800000 
  60              	.LVL5:
  74:C:/Users/stapi/OneDrive/Desktop/GD32VW553/GD32VW55X_Wifi_BLE_SDK/GD32VW55x_RELEASE_V1.0.2/MSDK/ble/app\app_datatrans_srv.c ****         memcpy(p_str, p_data, data_len);
  61              		.loc 1 74 9
  62 003c 2686     		mv	a2,s1
  63 003e CA85     		mv	a1,s2
  64 0040 2285     		mv	a0,s0
  65 0042 97000000 		call	memcpy
  65      E7800000 
  66              	.LVL6:
  75:C:/Users/stapi/OneDrive/Desktop/GD32VW553/GD32VW55X_Wifi_BLE_SDK/GD32VW55x_RELEASE_V1.0.2/MSDK/ble/app\app_datatrans_srv.c ****         app_print("%s\r\n", p_str);
  67              		.loc 1 75 9
  68 004a 37050000 		lui	a0,%hi(.LC1)
  69 004e A285     		mv	a1,s0
  70 0050 13050500 		addi	a0,a0,%lo(.LC1)
  71 0054 97000000 		call	co_printf
  71      E7800000 
  72              	.LVL7:
  76:C:/Users/stapi/OneDrive/Desktop/GD32VW553/GD32VW55X_Wifi_BLE_SDK/GD32VW55x_RELEASE_V1.0.2/MSDK/ble/app\app_datatrans_srv.c ****         sys_mfree(p_str);
  73              		.loc 1 76 9
  74 005c 2285     		mv	a0,s0
  75 005e 97000000 		call	sys_mfree
  75      E7800000 
  76              	.LVL8:
  77              	.L1:
  77:C:/Users/stapi/OneDrive/Desktop/GD32VW553/GD32VW55X_Wifi_BLE_SDK/GD32VW55x_RELEASE_V1.0.2/MSDK/ble/app\app_datatrans_srv.c ****     }
  78:C:/Users/stapi/OneDrive/Desktop/GD32VW553/GD32VW55X_Wifi_BLE_SDK/GD32VW55x_RELEASE_V1.0.2/MSDK/ble/app\app_datatrans_srv.c **** }
  78              		.loc 1 78 1 is_stmt 0
  79 0066 17030000 		tail	__riscv_restore_4
  79      67000300 
  80              		.cfi_restore 19
  81              		.cfi_restore 18
  82              		.cfi_restore 9
  83              		.cfi_restore 8
  84              		.cfi_restore 1
  85              		.cfi_def_cfa_offset 0
  86              		.cfi_endproc
  87              	.LFE15:
  89              		.section	.rodata.app_datatrans_srv_tx_callback.str1.4,"aMS",@progbits,1
  90              		.align	2
  91              	.LC2:
  92 0000 64617461 		.string	"datatrans srv send data: \r\n"
  92      7472616E 
  92      73207372 
  92      76207365 
  92      6E642064 
  93              		.section	.text.app_datatrans_srv_tx_callback,"ax",@progbits
  94              		.align	1
  96              	app_datatrans_srv_tx_callback:
  97              	.LFB14:
  51:C:/Users/stapi/OneDrive/Desktop/GD32VW553/GD32VW55X_Wifi_BLE_SDK/GD32VW55x_RELEASE_V1.0.2/MSDK/ble/app\app_datatrans_srv.c ****     uint32_t conidx_bf = dm_get_conidx_bf();
  98              		.loc 1 51 1 is_stmt 1
  99              		.cfi_startproc
 100              	.LVL9:
 101 0000 17030000 		call	t0,__riscv_save_1
 101      E7020300 
 102              		.cfi_offset 8, -8
 103              		.cfi_offset 1, -4
 104              		.cfi_def_cfa_offset 16
  52:C:/Users/stapi/OneDrive/Desktop/GD32VW553/GD32VW55X_Wifi_BLE_SDK/GD32VW55x_RELEASE_V1.0.2/MSDK/ble/app\app_datatrans_srv.c **** 
 105              		.loc 1 52 5
  51:C:/Users/stapi/OneDrive/Desktop/GD32VW553/GD32VW55X_Wifi_BLE_SDK/GD32VW55x_RELEASE_V1.0.2/MSDK/ble/app\app_datatrans_srv.c ****     uint32_t conidx_bf = dm_get_conidx_bf();
 106              		.loc 1 51 1 is_stmt 0
 107 0008 4111     		addi	sp,sp,-16
 108              		.cfi_def_cfa_offset 32
  51:C:/Users/stapi/OneDrive/Desktop/GD32VW553/GD32VW55X_Wifi_BLE_SDK/GD32VW55x_RELEASE_V1.0.2/MSDK/ble/app\app_datatrans_srv.c ****     uint32_t conidx_bf = dm_get_conidx_bf();
 109              		.loc 1 51 1
 110 000a 2AC6     		sw	a0,12(sp)
 111 000c 2E84     		mv	s0,a1
  52:C:/Users/stapi/OneDrive/Desktop/GD32VW553/GD32VW55X_Wifi_BLE_SDK/GD32VW55x_RELEASE_V1.0.2/MSDK/ble/app\app_datatrans_srv.c **** 
 112              		.loc 1 52 26
 113 000e 97000000 		call	dm_get_conidx_bf
 113      E7800000 
 114              	.LVL10:
  54:C:/Users/stapi/OneDrive/Desktop/GD32VW553/GD32VW55X_Wifi_BLE_SDK/GD32VW55x_RELEASE_V1.0.2/MSDK/ble/app\app_datatrans_srv.c ****         app_print("datatrans srv send data: \r\n");
 115              		.loc 1 54 5 is_stmt 1
  54:C:/Users/stapi/OneDrive/Desktop/GD32VW553/GD32VW55X_Wifi_BLE_SDK/GD32VW55x_RELEASE_V1.0.2/MSDK/ble/app\app_datatrans_srv.c ****         app_print("datatrans srv send data: \r\n");
 116              		.loc 1 54 8 is_stmt 0
 117 0016 3246     		lw	a2,12(sp)
 118 0018 05C9     		beq	a0,zero,.L7
  54:C:/Users/stapi/OneDrive/Desktop/GD32VW553/GD32VW55X_Wifi_BLE_SDK/GD32VW55x_RELEASE_V1.0.2/MSDK/ble/app\app_datatrans_srv.c ****         app_print("datatrans srv send data: \r\n");
 119              		.loc 1 54 23 discriminator 1
 120 001a A285     		mv	a1,s0
 121 001c 97000000 		call	ble_datatrans_srv_tx_mtp
 121      E7800000 
 122              	.LVL11:
  54:C:/Users/stapi/OneDrive/Desktop/GD32VW553/GD32VW55X_Wifi_BLE_SDK/GD32VW55x_RELEASE_V1.0.2/MSDK/ble/app\app_datatrans_srv.c ****         app_print("datatrans srv send data: \r\n");
 123              		.loc 1 54 19 discriminator 1
 124 0024 15E1     		bne	a0,zero,.L7
 125              	.LVL12:
 126              	.LBB4:
 127              	.LBB5:
  55:C:/Users/stapi/OneDrive/Desktop/GD32VW553/GD32VW55X_Wifi_BLE_SDK/GD32VW55x_RELEASE_V1.0.2/MSDK/ble/app\app_datatrans_srv.c ****         app_print("%s\r\n", p_data);
 128              		.loc 1 55 9 is_stmt 1
 129 0026 37050000 		lui	a0,%hi(.LC2)
 130 002a 13050500 		addi	a0,a0,%lo(.LC2)
 131 002e 97000000 		call	co_printf
 131      E7800000 
 132              	.LVL13:
  56:C:/Users/stapi/OneDrive/Desktop/GD32VW553/GD32VW55X_Wifi_BLE_SDK/GD32VW55x_RELEASE_V1.0.2/MSDK/ble/app\app_datatrans_srv.c ****     }
 133              		.loc 1 56 9
 134 0036 37050000 		lui	a0,%hi(.LC1)
 135 003a A285     		mv	a1,s0
 136 003c 13050500 		addi	a0,a0,%lo(.LC1)
 137 0040 97000000 		call	co_printf
 137      E7800000 
 138              	.LVL14:
 139              	.L7:
 140              	.LBE5:
 141              	.LBE4:
  58:C:/Users/stapi/OneDrive/Desktop/GD32VW553/GD32VW55X_Wifi_BLE_SDK/GD32VW55x_RELEASE_V1.0.2/MSDK/ble/app\app_datatrans_srv.c **** 
 142              		.loc 1 58 1 is_stmt 0
 143 0048 4101     		addi	sp,sp,16
 144              		.cfi_def_cfa_offset 0
 145 004a 17030000 		tail	__riscv_restore_1
 145      67000300 
 146              		.cfi_restore 8
 147              		.cfi_restore 1
 148              		.cfi_def_cfa_offset -16
 149              		.cfi_endproc
 150              	.LFE14:
 152              		.section	.text.app_datatrans_srv_init,"ax",@progbits
 153              		.align	1
 154              		.globl	app_datatrans_srv_init
 156              	app_datatrans_srv_init:
 157              	.LFB16:
  79:C:/Users/stapi/OneDrive/Desktop/GD32VW553/GD32VW55X_Wifi_BLE_SDK/GD32VW55x_RELEASE_V1.0.2/MSDK/ble/app\app_datatrans_srv.c **** 
  80:C:/Users/stapi/OneDrive/Desktop/GD32VW553/GD32VW55X_Wifi_BLE_SDK/GD32VW55x_RELEASE_V1.0.2/MSDK/ble/app\app_datatrans_srv.c **** /*!
  81:C:/Users/stapi/OneDrive/Desktop/GD32VW553/GD32VW55X_Wifi_BLE_SDK/GD32VW55x_RELEASE_V1.0.2/MSDK/ble/app\app_datatrans_srv.c ****     \brief      Init APP datatrans service server module
  82:C:/Users/stapi/OneDrive/Desktop/GD32VW553/GD32VW55X_Wifi_BLE_SDK/GD32VW55x_RELEASE_V1.0.2/MSDK/ble/app\app_datatrans_srv.c ****     \param[in]  none
  83:C:/Users/stapi/OneDrive/Desktop/GD32VW553/GD32VW55X_Wifi_BLE_SDK/GD32VW55x_RELEASE_V1.0.2/MSDK/ble/app\app_datatrans_srv.c ****     \param[out] none
  84:C:/Users/stapi/OneDrive/Desktop/GD32VW553/GD32VW55X_Wifi_BLE_SDK/GD32VW55x_RELEASE_V1.0.2/MSDK/ble/app\app_datatrans_srv.c ****     \retval     none
  85:C:/Users/stapi/OneDrive/Desktop/GD32VW553/GD32VW55X_Wifi_BLE_SDK/GD32VW55x_RELEASE_V1.0.2/MSDK/ble/app\app_datatrans_srv.c **** */
  86:C:/Users/stapi/OneDrive/Desktop/GD32VW553/GD32VW55X_Wifi_BLE_SDK/GD32VW55x_RELEASE_V1.0.2/MSDK/ble/app\app_datatrans_srv.c **** void app_datatrans_srv_init(void)
  87:C:/Users/stapi/OneDrive/Desktop/GD32VW553/GD32VW55X_Wifi_BLE_SDK/GD32VW55x_RELEASE_V1.0.2/MSDK/ble/app\app_datatrans_srv.c **** {
 158              		.loc 1 87 1 is_stmt 1
 159              		.cfi_startproc
 160 0000 17030000 		call	t0,__riscv_save_0
 160      E7020300 
 161              		.cfi_offset 1, -4
 162              		.cfi_def_cfa_offset 16
  88:C:/Users/stapi/OneDrive/Desktop/GD32VW553/GD32VW55X_Wifi_BLE_SDK/GD32VW55x_RELEASE_V1.0.2/MSDK/ble/app\app_datatrans_srv.c ****     cmd_unkwn_cmd_handler_reg(app_datatrans_srv_tx_callback);
 163              		.loc 1 88 5
 164 0008 37050000 		lui	a0,%hi(app_datatrans_srv_tx_callback)
 165 000c 13050500 		addi	a0,a0,%lo(app_datatrans_srv_tx_callback)
 166 0010 97000000 		call	cmd_unkwn_cmd_handler_reg
 166      E7800000 
 167              	.LVL15:
  89:C:/Users/stapi/OneDrive/Desktop/GD32VW553/GD32VW55X_Wifi_BLE_SDK/GD32VW55x_RELEASE_V1.0.2/MSDK/ble/app\app_datatrans_srv.c ****     ble_datatrans_srv_init(app_datatrans_srv_rx_callback);
 168              		.loc 1 89 5
 169 0018 37050000 		lui	a0,%hi(app_datatrans_srv_rx_callback)
 170 001c 13050500 		addi	a0,a0,%lo(app_datatrans_srv_rx_callback)
 171 0020 97000000 		call	ble_datatrans_srv_init
 171      E7800000 
 172              	.LVL16:
  90:C:/Users/stapi/OneDrive/Desktop/GD32VW553/GD32VW55X_Wifi_BLE_SDK/GD32VW55x_RELEASE_V1.0.2/MSDK/ble/app\app_datatrans_srv.c **** }
 173              		.loc 1 90 1 is_stmt 0
 174 0028 17030000 		tail	__riscv_restore_0
 174      67000300 
 175              		.cfi_restore 1
 176              		.cfi_def_cfa_offset 0
 177              		.cfi_endproc
 178              	.LFE16:
 180              		.section	.text.app_datatrans_srv_deinit,"ax",@progbits
 181              		.align	1
 182              		.globl	app_datatrans_srv_deinit
 184              	app_datatrans_srv_deinit:
 185              	.LFB17:
  91:C:/Users/stapi/OneDrive/Desktop/GD32VW553/GD32VW55X_Wifi_BLE_SDK/GD32VW55x_RELEASE_V1.0.2/MSDK/ble/app\app_datatrans_srv.c **** 
  92:C:/Users/stapi/OneDrive/Desktop/GD32VW553/GD32VW55X_Wifi_BLE_SDK/GD32VW55x_RELEASE_V1.0.2/MSDK/ble/app\app_datatrans_srv.c **** /*!
  93:C:/Users/stapi/OneDrive/Desktop/GD32VW553/GD32VW55X_Wifi_BLE_SDK/GD32VW55x_RELEASE_V1.0.2/MSDK/ble/app\app_datatrans_srv.c ****     \brief      Deinit APP datatrans service server module
  94:C:/Users/stapi/OneDrive/Desktop/GD32VW553/GD32VW55X_Wifi_BLE_SDK/GD32VW55x_RELEASE_V1.0.2/MSDK/ble/app\app_datatrans_srv.c ****     \param[in]  none
  95:C:/Users/stapi/OneDrive/Desktop/GD32VW553/GD32VW55X_Wifi_BLE_SDK/GD32VW55x_RELEASE_V1.0.2/MSDK/ble/app\app_datatrans_srv.c ****     \param[out] none
  96:C:/Users/stapi/OneDrive/Desktop/GD32VW553/GD32VW55X_Wifi_BLE_SDK/GD32VW55x_RELEASE_V1.0.2/MSDK/ble/app\app_datatrans_srv.c ****     \retval     none
  97:C:/Users/stapi/OneDrive/Desktop/GD32VW553/GD32VW55X_Wifi_BLE_SDK/GD32VW55x_RELEASE_V1.0.2/MSDK/ble/app\app_datatrans_srv.c **** */
  98:C:/Users/stapi/OneDrive/Desktop/GD32VW553/GD32VW55X_Wifi_BLE_SDK/GD32VW55x_RELEASE_V1.0.2/MSDK/ble/app\app_datatrans_srv.c **** void app_datatrans_srv_deinit(void)
  99:C:/Users/stapi/OneDrive/Desktop/GD32VW553/GD32VW55X_Wifi_BLE_SDK/GD32VW55x_RELEASE_V1.0.2/MSDK/ble/app\app_datatrans_srv.c **** {
 186              		.loc 1 99 1 is_stmt 1
 187              		.cfi_startproc
 188 0000 17030000 		call	t0,__riscv_save_0
 188      E7020300 
 189              		.cfi_offset 1, -4
 190              		.cfi_def_cfa_offset 16
 100:C:/Users/stapi/OneDrive/Desktop/GD32VW553/GD32VW55X_Wifi_BLE_SDK/GD32VW55x_RELEASE_V1.0.2/MSDK/ble/app\app_datatrans_srv.c ****     cmd_unkwn_cmd_handler_unreg();
 191              		.loc 1 100 5
 192 0008 97000000 		call	cmd_unkwn_cmd_handler_unreg
 192      E7800000 
 193              	.LVL17:
 101:C:/Users/stapi/OneDrive/Desktop/GD32VW553/GD32VW55X_Wifi_BLE_SDK/GD32VW55x_RELEASE_V1.0.2/MSDK/ble/app\app_datatrans_srv.c ****     ble_datatrans_srv_deinit();
 194              		.loc 1 101 5
 195 0010 97000000 		call	ble_datatrans_srv_deinit
 195      E7800000 
 196              	.LVL18:
 102:C:/Users/stapi/OneDrive/Desktop/GD32VW553/GD32VW55X_Wifi_BLE_SDK/GD32VW55x_RELEASE_V1.0.2/MSDK/ble/app\app_datatrans_srv.c **** }
 197              		.loc 1 102 1 is_stmt 0
 198 0018 17030000 		tail	__riscv_restore_0
 198      67000300 
 199              		.cfi_restore 1
 200              		.cfi_def_cfa_offset 0
 201              		.cfi_endproc
 202              	.LFE17:
 204              		.text
 205              	.Letext0:
 206              		.file 2 "c:\\users\\stapi\\onedrive\\desktop\\gd32vw553\\embeddedbuilder_v1.4.7.26843\\tools\\nucl
 207              		.file 3 "c:\\users\\stapi\\onedrive\\desktop\\gd32vw553\\embeddedbuilder_v1.4.7.26843\\tools\\nucl
 208              		.file 4 "..\\..\\..\\..\\app/cmd_shell.h"
 209              		.file 5 "..\\..\\..\\..\\ble\\profile\\datatrans/ble_datatrans_srv.h"
 210              		.file 6 "..\\..\\..\\..\\rtos\\rtos_wrapper/wrapper_os.h"
 211              		.file 7 "..\\..\\..\\..\\util\\include/debug_print.h"
 212              		.file 8 "<built-in>"
 213              		.file 9 "C:/Users/stapi/OneDrive/Desktop/GD32VW553/GD32VW55X_Wifi_BLE_SDK/GD32VW55x_RELEASE_V1.0.2
 214              		.file 10 "..\\..\\..\\..\\blesw\\src\\export/ble_error.h"
DEFINED SYMBOLS
                            *ABS*:0000000000000000 app_datatrans_srv.c
C:\Users\stapi\AppData\Local\Temp\ccXRxXiB.s:19     .text.app_datatrans_srv_rx_callback:0000000000000000 app_datatrans_srv_rx_callback
C:\Users\stapi\AppData\Local\Temp\ccXRxXiB.s:23     .text.app_datatrans_srv_rx_callback:0000000000000000 .L0 
C:\Users\stapi\AppData\Local\Temp\ccXRxXiB.s:25     .text.app_datatrans_srv_rx_callback:0000000000000000 .L0 
C:\Users\stapi\AppData\Local\Temp\ccXRxXiB.s:26     .text.app_datatrans_srv_rx_callback:0000000000000008 .L0 
C:\Users\stapi\AppData\Local\Temp\ccXRxXiB.s:27     .text.app_datatrans_srv_rx_callback:0000000000000008 .L0 
C:\Users\stapi\AppData\Local\Temp\ccXRxXiB.s:28     .text.app_datatrans_srv_rx_callback:0000000000000008 .L0 
C:\Users\stapi\AppData\Local\Temp\ccXRxXiB.s:29     .text.app_datatrans_srv_rx_callback:0000000000000008 .L0 
C:\Users\stapi\AppData\Local\Temp\ccXRxXiB.s:30     .text.app_datatrans_srv_rx_callback:0000000000000008 .L0 
C:\Users\stapi\AppData\Local\Temp\ccXRxXiB.s:31     .text.app_datatrans_srv_rx_callback:0000000000000008 .L0 
C:\Users\stapi\AppData\Local\Temp\ccXRxXiB.s:33     .text.app_datatrans_srv_rx_callback:0000000000000008 .L0 
C:\Users\stapi\AppData\Local\Temp\ccXRxXiB.s:34     .text.app_datatrans_srv_rx_callback:0000000000000008 .L0 
C:\Users\stapi\AppData\Local\Temp\ccXRxXiB.s:36     .text.app_datatrans_srv_rx_callback:000000000000000c .L0 
C:\Users\stapi\AppData\Local\Temp\ccXRxXiB.s:38     .text.app_datatrans_srv_rx_callback:000000000000000e .L0 
C:\Users\stapi\AppData\Local\Temp\ccXRxXiB.s:41     .text.app_datatrans_srv_rx_callback:0000000000000010 .L0 
C:\Users\stapi\AppData\Local\Temp\ccXRxXiB.s:43     .text.app_datatrans_srv_rx_callback:0000000000000012 .L0 
C:\Users\stapi\AppData\Local\Temp\ccXRxXiB.s:46     .text.app_datatrans_srv_rx_callback:000000000000001a .L0 
C:\Users\stapi\AppData\Local\Temp\ccXRxXiB.s:47     .text.app_datatrans_srv_rx_callback:000000000000001a .L0 
C:\Users\stapi\AppData\Local\Temp\ccXRxXiB.s:50     .text.app_datatrans_srv_rx_callback:000000000000001e .L0 
C:\Users\stapi\AppData\Local\Temp\ccXRxXiB.s:56     .text.app_datatrans_srv_rx_callback:000000000000002e .L0 
C:\Users\stapi\AppData\Local\Temp\ccXRxXiB.s:62     .text.app_datatrans_srv_rx_callback:000000000000003c .L0 
C:\Users\stapi\AppData\Local\Temp\ccXRxXiB.s:68     .text.app_datatrans_srv_rx_callback:000000000000004a .L0 
C:\Users\stapi\AppData\Local\Temp\ccXRxXiB.s:74     .text.app_datatrans_srv_rx_callback:000000000000005c .L0 
C:\Users\stapi\AppData\Local\Temp\ccXRxXiB.s:79     .text.app_datatrans_srv_rx_callback:0000000000000066 .L0 
C:\Users\stapi\AppData\Local\Temp\ccXRxXiB.s:80     .text.app_datatrans_srv_rx_callback:000000000000006e .L0 
C:\Users\stapi\AppData\Local\Temp\ccXRxXiB.s:81     .text.app_datatrans_srv_rx_callback:000000000000006e .L0 
C:\Users\stapi\AppData\Local\Temp\ccXRxXiB.s:82     .text.app_datatrans_srv_rx_callback:000000000000006e .L0 
C:\Users\stapi\AppData\Local\Temp\ccXRxXiB.s:83     .text.app_datatrans_srv_rx_callback:000000000000006e .L0 
C:\Users\stapi\AppData\Local\Temp\ccXRxXiB.s:84     .text.app_datatrans_srv_rx_callback:000000000000006e .L0 
C:\Users\stapi\AppData\Local\Temp\ccXRxXiB.s:85     .text.app_datatrans_srv_rx_callback:000000000000006e .L0 
C:\Users\stapi\AppData\Local\Temp\ccXRxXiB.s:86     .text.app_datatrans_srv_rx_callback:000000000000006e .L0 
C:\Users\stapi\AppData\Local\Temp\ccXRxXiB.s:96     .text.app_datatrans_srv_tx_callback:0000000000000000 app_datatrans_srv_tx_callback
C:\Users\stapi\AppData\Local\Temp\ccXRxXiB.s:99     .text.app_datatrans_srv_tx_callback:0000000000000000 .L0 
C:\Users\stapi\AppData\Local\Temp\ccXRxXiB.s:101    .text.app_datatrans_srv_tx_callback:0000000000000000 .L0 
C:\Users\stapi\AppData\Local\Temp\ccXRxXiB.s:102    .text.app_datatrans_srv_tx_callback:0000000000000008 .L0 
C:\Users\stapi\AppData\Local\Temp\ccXRxXiB.s:103    .text.app_datatrans_srv_tx_callback:0000000000000008 .L0 
C:\Users\stapi\AppData\Local\Temp\ccXRxXiB.s:104    .text.app_datatrans_srv_tx_callback:0000000000000008 .L0 
C:\Users\stapi\AppData\Local\Temp\ccXRxXiB.s:106    .text.app_datatrans_srv_tx_callback:0000000000000008 .L0 
C:\Users\stapi\AppData\Local\Temp\ccXRxXiB.s:107    .text.app_datatrans_srv_tx_callback:0000000000000008 .L0 
C:\Users\stapi\AppData\Local\Temp\ccXRxXiB.s:108    .text.app_datatrans_srv_tx_callback:000000000000000a .L0 
C:\Users\stapi\AppData\Local\Temp\ccXRxXiB.s:110    .text.app_datatrans_srv_tx_callback:000000000000000a .L0 
C:\Users\stapi\AppData\Local\Temp\ccXRxXiB.s:113    .text.app_datatrans_srv_tx_callback:000000000000000e .L0 
C:\Users\stapi\AppData\Local\Temp\ccXRxXiB.s:116    .text.app_datatrans_srv_tx_callback:0000000000000016 .L0 
C:\Users\stapi\AppData\Local\Temp\ccXRxXiB.s:117    .text.app_datatrans_srv_tx_callback:0000000000000016 .L0 
C:\Users\stapi\AppData\Local\Temp\ccXRxXiB.s:120    .text.app_datatrans_srv_tx_callback:000000000000001a .L0 
C:\Users\stapi\AppData\Local\Temp\ccXRxXiB.s:124    .text.app_datatrans_srv_tx_callback:0000000000000024 .L0 
C:\Users\stapi\AppData\Local\Temp\ccXRxXiB.s:129    .text.app_datatrans_srv_tx_callback:0000000000000026 .L0 
C:\Users\stapi\AppData\Local\Temp\ccXRxXiB.s:134    .text.app_datatrans_srv_tx_callback:0000000000000036 .L0 
C:\Users\stapi\AppData\Local\Temp\ccXRxXiB.s:143    .text.app_datatrans_srv_tx_callback:0000000000000048 .L0 
C:\Users\stapi\AppData\Local\Temp\ccXRxXiB.s:144    .text.app_datatrans_srv_tx_callback:000000000000004a .L0 
C:\Users\stapi\AppData\Local\Temp\ccXRxXiB.s:146    .text.app_datatrans_srv_tx_callback:0000000000000052 .L0 
C:\Users\stapi\AppData\Local\Temp\ccXRxXiB.s:147    .text.app_datatrans_srv_tx_callback:0000000000000052 .L0 
C:\Users\stapi\AppData\Local\Temp\ccXRxXiB.s:148    .text.app_datatrans_srv_tx_callback:0000000000000052 .L0 
C:\Users\stapi\AppData\Local\Temp\ccXRxXiB.s:149    .text.app_datatrans_srv_tx_callback:0000000000000052 .L0 
C:\Users\stapi\AppData\Local\Temp\ccXRxXiB.s:156    .text.app_datatrans_srv_init:0000000000000000 app_datatrans_srv_init
C:\Users\stapi\AppData\Local\Temp\ccXRxXiB.s:159    .text.app_datatrans_srv_init:0000000000000000 .L0 
C:\Users\stapi\AppData\Local\Temp\ccXRxXiB.s:160    .text.app_datatrans_srv_init:0000000000000000 .L0 
C:\Users\stapi\AppData\Local\Temp\ccXRxXiB.s:161    .text.app_datatrans_srv_init:0000000000000008 .L0 
C:\Users\stapi\AppData\Local\Temp\ccXRxXiB.s:162    .text.app_datatrans_srv_init:0000000000000008 .L0 
C:\Users\stapi\AppData\Local\Temp\ccXRxXiB.s:164    .text.app_datatrans_srv_init:0000000000000008 .L0 
C:\Users\stapi\AppData\Local\Temp\ccXRxXiB.s:169    .text.app_datatrans_srv_init:0000000000000018 .L0 
C:\Users\stapi\AppData\Local\Temp\ccXRxXiB.s:174    .text.app_datatrans_srv_init:0000000000000028 .L0 
C:\Users\stapi\AppData\Local\Temp\ccXRxXiB.s:175    .text.app_datatrans_srv_init:0000000000000030 .L0 
C:\Users\stapi\AppData\Local\Temp\ccXRxXiB.s:176    .text.app_datatrans_srv_init:0000000000000030 .L0 
C:\Users\stapi\AppData\Local\Temp\ccXRxXiB.s:177    .text.app_datatrans_srv_init:0000000000000030 .L0 
C:\Users\stapi\AppData\Local\Temp\ccXRxXiB.s:184    .text.app_datatrans_srv_deinit:0000000000000000 app_datatrans_srv_deinit
C:\Users\stapi\AppData\Local\Temp\ccXRxXiB.s:187    .text.app_datatrans_srv_deinit:0000000000000000 .L0 
C:\Users\stapi\AppData\Local\Temp\ccXRxXiB.s:188    .text.app_datatrans_srv_deinit:0000000000000000 .L0 
C:\Users\stapi\AppData\Local\Temp\ccXRxXiB.s:189    .text.app_datatrans_srv_deinit:0000000000000008 .L0 
C:\Users\stapi\AppData\Local\Temp\ccXRxXiB.s:190    .text.app_datatrans_srv_deinit:0000000000000008 .L0 
C:\Users\stapi\AppData\Local\Temp\ccXRxXiB.s:192    .text.app_datatrans_srv_deinit:0000000000000008 .L0 
C:\Users\stapi\AppData\Local\Temp\ccXRxXiB.s:195    .text.app_datatrans_srv_deinit:0000000000000010 .L0 
C:\Users\stapi\AppData\Local\Temp\ccXRxXiB.s:198    .text.app_datatrans_srv_deinit:0000000000000018 .L0 
C:\Users\stapi\AppData\Local\Temp\ccXRxXiB.s:199    .text.app_datatrans_srv_deinit:0000000000000020 .L0 
C:\Users\stapi\AppData\Local\Temp\ccXRxXiB.s:200    .text.app_datatrans_srv_deinit:0000000000000020 .L0 
C:\Users\stapi\AppData\Local\Temp\ccXRxXiB.s:201    .text.app_datatrans_srv_deinit:0000000000000020 .L0 
C:\Users\stapi\AppData\Local\Temp\ccXRxXiB.s:89     .text.app_datatrans_srv_rx_callback:000000000000006e .L0 
C:\Users\stapi\AppData\Local\Temp\ccXRxXiB.s:152    .text.app_datatrans_srv_tx_callback:0000000000000052 .L0 
C:\Users\stapi\AppData\Local\Temp\ccXRxXiB.s:180    .text.app_datatrans_srv_init:0000000000000030 .L0 
C:\Users\stapi\AppData\Local\Temp\ccXRxXiB.s:204    .text.app_datatrans_srv_deinit:0000000000000020 .L0 
                     .debug_frame:0000000000000000 .L0 
C:\Users\stapi\AppData\Local\Temp\ccXRxXiB.s:11     .rodata.app_datatrans_srv_rx_callback.str1.4:0000000000000000 .LC0
C:\Users\stapi\AppData\Local\Temp\ccXRxXiB.s:14     .rodata.app_datatrans_srv_rx_callback.str1.4:0000000000000020 .LC1
C:\Users\stapi\AppData\Local\Temp\ccXRxXiB.s:77     .text.app_datatrans_srv_rx_callback:0000000000000066 .L1
C:\Users\stapi\AppData\Local\Temp\ccXRxXiB.s:91     .rodata.app_datatrans_srv_tx_callback.str1.4:0000000000000000 .LC2
C:\Users\stapi\AppData\Local\Temp\ccXRxXiB.s:139    .text.app_datatrans_srv_tx_callback:0000000000000048 .L7
C:\Users\stapi\AppData\Local\Temp\ccXRxXiB.s:1250   .debug_abbrev:0000000000000000 .Ldebug_abbrev0
C:\Users\stapi\AppData\Local\Temp\ccXRxXiB.s:1905   .debug_str:000000000000098c .LASF226
C:\Users\stapi\AppData\Local\Temp\ccXRxXiB.s:1763   .debug_str:00000000000001cc .LASF227
C:\Users\stapi\AppData\Local\Temp\ccXRxXiB.s:2153   .debug_str:00000000000017a4 .LASF228
C:\Users\stapi\AppData\Local\Temp\ccXRxXiB.s:1719   .debug_ranges:0000000000000000 .Ldebug_ranges0
C:\Users\stapi\AppData\Local\Temp\ccXRxXiB.s:1731   .debug_line:0000000000000000 .Ldebug_line0
C:\Users\stapi\AppData\Local\Temp\ccXRxXiB.s:1899   .debug_str:0000000000000949 .LASF0
C:\Users\stapi\AppData\Local\Temp\ccXRxXiB.s:1811   .debug_str:000000000000047e .LASF1
C:\Users\stapi\AppData\Local\Temp\ccXRxXiB.s:1759   .debug_str:00000000000001b1 .LASF4
C:\Users\stapi\AppData\Local\Temp\ccXRxXiB.s:2035   .debug_str:0000000000001150 .LASF2
C:\Users\stapi\AppData\Local\Temp\ccXRxXiB.s:1949   .debug_str:0000000000000c98 .LASF3
C:\Users\stapi\AppData\Local\Temp\ccXRxXiB.s:2091   .debug_str:0000000000001444 .LASF5
C:\Users\stapi\AppData\Local\Temp\ccXRxXiB.s:1929   .debug_str:0000000000000bb6 .LASF6
C:\Users\stapi\AppData\Local\Temp\ccXRxXiB.s:1775   .debug_str:00000000000002d9 .LASF7
C:\Users\stapi\AppData\Local\Temp\ccXRxXiB.s:1881   .debug_str:000000000000085d .LASF8
C:\Users\stapi\AppData\Local\Temp\ccXRxXiB.s:1907   .debug_str:0000000000000a85 .LASF9
C:\Users\stapi\AppData\Local\Temp\ccXRxXiB.s:1809   .debug_str:0000000000000470 .LASF10
C:\Users\stapi\AppData\Local\Temp\ccXRxXiB.s:1781   .debug_str:00000000000002f9 .LASF11
C:\Users\stapi\AppData\Local\Temp\ccXRxXiB.s:2079   .debug_str:00000000000013ac .LASF12
C:\Users\stapi\AppData\Local\Temp\ccXRxXiB.s:2145   .debug_str:0000000000001749 .LASF13
C:\Users\stapi\AppData\Local\Temp\ccXRxXiB.s:1857   .debug_str:0000000000000718 .LASF14
C:\Users\stapi\AppData\Local\Temp\ccXRxXiB.s:2073   .debug_str:0000000000001369 .LASF15
C:\Users\stapi\AppData\Local\Temp\ccXRxXiB.s:1761   .debug_str:00000000000001bb .LASF16
C:\Users\stapi\AppData\Local\Temp\ccXRxXiB.s:1903   .debug_str:0000000000000971 .LASF17
C:\Users\stapi\AppData\Local\Temp\ccXRxXiB.s:1799   .debug_str:00000000000003e1 .LASF18
C:\Users\stapi\AppData\Local\Temp\ccXRxXiB.s:1743   .debug_str:00000000000000a7 .LASF19
C:\Users\stapi\AppData\Local\Temp\ccXRxXiB.s:1889   .debug_str:00000000000008b1 .LASF20
C:\Users\stapi\AppData\Local\Temp\ccXRxXiB.s:2071   .debug_str:000000000000134f .LASF21
C:\Users\stapi\AppData\Local\Temp\ccXRxXiB.s:1791   .debug_str:000000000000037b .LASF22
C:\Users\stapi\AppData\Local\Temp\ccXRxXiB.s:1739   .debug_str:0000000000000078 .LASF23
C:\Users\stapi\AppData\Local\Temp\ccXRxXiB.s:1871   .debug_str:00000000000007c5 .LASF24
C:\Users\stapi\AppData\Local\Temp\ccXRxXiB.s:1815   .debug_str:00000000000004ad .LASF25
C:\Users\stapi\AppData\Local\Temp\ccXRxXiB.s:1891   .debug_str:00000000000008c9 .LASF26
C:\Users\stapi\AppData\Local\Temp\ccXRxXiB.s:1855   .debug_str:00000000000006f9 .LASF27
C:\Users\stapi\AppData\Local\Temp\ccXRxXiB.s:1863   .debug_str:0000000000000757 .LASF28
C:\Users\stapi\AppData\Local\Temp\ccXRxXiB.s:2003   .debug_str:0000000000000f71 .LASF29
C:\Users\stapi\AppData\Local\Temp\ccXRxXiB.s:1831   .debug_str:00000000000005a6 .LASF30
C:\Users\stapi\AppData\Local\Temp\ccXRxXiB.s:2099   .debug_str:00000000000014a0 .LASF31
C:\Users\stapi\AppData\Local\Temp\ccXRxXiB.s:1981   .debug_str:0000000000000e27 .LASF32
C:\Users\stapi\AppData\Local\Temp\ccXRxXiB.s:2013   .debug_str:0000000000001009 .LASF33
C:\Users\stapi\AppData\Local\Temp\ccXRxXiB.s:2097   .debug_str:0000000000001485 .LASF34
C:\Users\stapi\AppData\Local\Temp\ccXRxXiB.s:1801   .debug_str:0000000000000400 .LASF35
C:\Users\stapi\AppData\Local\Temp\ccXRxXiB.s:1827   .debug_str:000000000000056f .LASF36
C:\Users\stapi\AppData\Local\Temp\ccXRxXiB.s:1919   .debug_str:0000000000000b23 .LASF37
C:\Users\stapi\AppData\Local\Temp\ccXRxXiB.s:1813   .debug_str:000000000000048a .LASF38
C:\Users\stapi\AppData\Local\Temp\ccXRxXiB.s:1807   .debug_str:000000000000045a .LASF39
C:\Users\stapi\AppData\Local\Temp\ccXRxXiB.s:2159   .debug_str:0000000000001850 .LASF40
C:\Users\stapi\AppData\Local\Temp\ccXRxXiB.s:1753   .debug_str:0000000000000162 .LASF41
C:\Users\stapi\AppData\Local\Temp\ccXRxXiB.s:1975   .debug_str:0000000000000ddd .LASF42
C:\Users\stapi\AppData\Local\Temp\ccXRxXiB.s:1917   .debug_str:0000000000000b09 .LASF43
C:\Users\stapi\AppData\Local\Temp\ccXRxXiB.s:1931   .debug_str:0000000000000bc9 .LASF44
C:\Users\stapi\AppData\Local\Temp\ccXRxXiB.s:1999   .debug_str:0000000000000f38 .LASF45
C:\Users\stapi\AppData\Local\Temp\ccXRxXiB.s:2029   .debug_str:0000000000001118 .LASF46
C:\Users\stapi\AppData\Local\Temp\ccXRxXiB.s:2177   .debug_str:0000000000001944 .LASF47
C:\Users\stapi\AppData\Local\Temp\ccXRxXiB.s:2037   .debug_str:000000000000115e .LASF48
C:\Users\stapi\AppData\Local\Temp\ccXRxXiB.s:2135   .debug_str:00000000000016aa .LASF49
C:\Users\stapi\AppData\Local\Temp\ccXRxXiB.s:1995   .debug_str:0000000000000efd .LASF50
C:\Users\stapi\AppData\Local\Temp\ccXRxXiB.s:1755   .debug_str:000000000000017c .LASF51
C:\Users\stapi\AppData\Local\Temp\ccXRxXiB.s:1873   .debug_str:00000000000007df .LASF52
C:\Users\stapi\AppData\Local\Temp\ccXRxXiB.s:1997   .debug_str:0000000000000f1d .LASF53
C:\Users\stapi\AppData\Local\Temp\ccXRxXiB.s:2167   .debug_str:000000000000189e .LASF54
C:\Users\stapi\AppData\Local\Temp\ccXRxXiB.s:1789   .debug_str:0000000000000361 .LASF55
C:\Users\stapi\AppData\Local\Temp\ccXRxXiB.s:1861   .debug_str:000000000000073d .LASF56
C:\Users\stapi\AppData\Local\Temp\ccXRxXiB.s:1887   .debug_str:0000000000000894 .LASF57
C:\Users\stapi\AppData\Local\Temp\ccXRxXiB.s:1847   .debug_str:00000000000006a1 .LASF58
C:\Users\stapi\AppData\Local\Temp\ccXRxXiB.s:2053   .debug_str:000000000000124f .LASF59
C:\Users\stapi\AppData\Local\Temp\ccXRxXiB.s:1965   .debug_str:0000000000000d55 .LASF60
C:\Users\stapi\AppData\Local\Temp\ccXRxXiB.s:1959   .debug_str:0000000000000d0e .LASF61
C:\Users\stapi\AppData\Local\Temp\ccXRxXiB.s:2095   .debug_str:000000000000146c .LASF62
C:\Users\stapi\AppData\Local\Temp\ccXRxXiB.s:2033   .debug_str:000000000000113a .LASF63
C:\Users\stapi\AppData\Local\Temp\ccXRxXiB.s:2123   .debug_str:000000000000161a .LASF64
C:\Users\stapi\AppData\Local\Temp\ccXRxXiB.s:1901   .debug_str:0000000000000956 .LASF65
C:\Users\stapi\AppData\Local\Temp\ccXRxXiB.s:2181   .debug_str:0000000000001977 .LASF66
C:\Users\stapi\AppData\Local\Temp\ccXRxXiB.s:2151   .debug_str:0000000000001787 .LASF67
C:\Users\stapi\AppData\Local\Temp\ccXRxXiB.s:1769   .debug_str:0000000000000287 .LASF68
C:\Users\stapi\AppData\Local\Temp\ccXRxXiB.s:1977   .debug_str:0000000000000df7 .LASF69
C:\Users\stapi\AppData\Local\Temp\ccXRxXiB.s:2027   .debug_str:00000000000010fd .LASF70
C:\Users\stapi\AppData\Local\Temp\ccXRxXiB.s:2155   .debug_str:0000000000001822 .LASF71
C:\Users\stapi\AppData\Local\Temp\ccXRxXiB.s:1941   .debug_str:0000000000000c38 .LASF72
C:\Users\stapi\AppData\Local\Temp\ccXRxXiB.s:2121   .debug_str:00000000000015fd .LASF73
C:\Users\stapi\AppData\Local\Temp\ccXRxXiB.s:2019   .debug_str:0000000000001072 .LASF74
C:\Users\stapi\AppData\Local\Temp\ccXRxXiB.s:2059   .debug_str:00000000000012ad .LASF75
C:\Users\stapi\AppData\Local\Temp\ccXRxXiB.s:2063   .debug_str:00000000000012e2 .LASF76
C:\Users\stapi\AppData\Local\Temp\ccXRxXiB.s:2039   .debug_str:0000000000001180 .LASF77
C:\Users\stapi\AppData\Local\Temp\ccXRxXiB.s:1737   .debug_str:0000000000000052 .LASF78
C:\Users\stapi\AppData\Local\Temp\ccXRxXiB.s:1787   .debug_str:0000000000000347 .LASF79
C:\Users\stapi\AppData\Local\Temp\ccXRxXiB.s:2117   .debug_str:00000000000015bd .LASF80
C:\Users\stapi\AppData\Local\Temp\ccXRxXiB.s:1821   .debug_str:0000000000000507 .LASF81
C:\Users\stapi\AppData\Local\Temp\ccXRxXiB.s:1879   .debug_str:0000000000000838 .LASF82
C:\Users\stapi\AppData\Local\Temp\ccXRxXiB.s:1805   .debug_str:0000000000000438 .LASF83
C:\Users\stapi\AppData\Local\Temp\ccXRxXiB.s:2055   .debug_str:000000000000126e .LASF84
C:\Users\stapi\AppData\Local\Temp\ccXRxXiB.s:2109   .debug_str:0000000000001528 .LASF85
C:\Users\stapi\AppData\Local\Temp\ccXRxXiB.s:2173   .debug_str:0000000000001906 .LASF86
C:\Users\stapi\AppData\Local\Temp\ccXRxXiB.s:1845   .debug_str:0000000000000684 .LASF87
C:\Users\stapi\AppData\Local\Temp\ccXRxXiB.s:1767   .debug_str:0000000000000265 .LASF88
C:\Users\stapi\AppData\Local\Temp\ccXRxXiB.s:2017   .debug_str:000000000000104f .LASF89
C:\Users\stapi\AppData\Local\Temp\ccXRxXiB.s:1987   .debug_str:0000000000000e78 .LASF90
C:\Users\stapi\AppData\Local\Temp\ccXRxXiB.s:1867   .debug_str:0000000000000792 .LASF91
C:\Users\stapi\AppData\Local\Temp\ccXRxXiB.s:1749   .debug_str:0000000000000119 .LASF92
C:\Users\stapi\AppData\Local\Temp\ccXRxXiB.s:1733   .debug_str:0000000000000000 .LASF93
C:\Users\stapi\AppData\Local\Temp\ccXRxXiB.s:2127   .debug_str:000000000000164b .LASF94
C:\Users\stapi\AppData\Local\Temp\ccXRxXiB.s:1745   .debug_str:00000000000000c7 .LASF95
C:\Users\stapi\AppData\Local\Temp\ccXRxXiB.s:1835   .debug_str:00000000000005e1 .LASF96
C:\Users\stapi\AppData\Local\Temp\ccXRxXiB.s:1833   .debug_str:00000000000005bf .LASF97
C:\Users\stapi\AppData\Local\Temp\ccXRxXiB.s:1933   .debug_str:0000000000000be3 .LASF98
C:\Users\stapi\AppData\Local\Temp\ccXRxXiB.s:2067   .debug_str:0000000000001318 .LASF99
C:\Users\stapi\AppData\Local\Temp\ccXRxXiB.s:1953   .debug_str:0000000000000cb9 .LASF100
C:\Users\stapi\AppData\Local\Temp\ccXRxXiB.s:2175   .debug_str:0000000000001927 .LASF101
C:\Users\stapi\AppData\Local\Temp\ccXRxXiB.s:1793   .debug_str:000000000000039d .LASF102
C:\Users\stapi\AppData\Local\Temp\ccXRxXiB.s:1843   .debug_str:0000000000000661 .LASF103
C:\Users\stapi\AppData\Local\Temp\ccXRxXiB.s:2119   .debug_str:00000000000015db .LASF104
C:\Users\stapi\AppData\Local\Temp\ccXRxXiB.s:1943   .debug_str:0000000000000c57 .LASF105
C:\Users\stapi\AppData\Local\Temp\ccXRxXiB.s:2023   .debug_str:00000000000010b8 .LASF106
C:\Users\stapi\AppData\Local\Temp\ccXRxXiB.s:2015   .debug_str:0000000000001025 .LASF107
C:\Users\stapi\AppData\Local\Temp\ccXRxXiB.s:2197   .debug_str:0000000000001a46 .LASF108
C:\Users\stapi\AppData\Local\Temp\ccXRxXiB.s:2115   .debug_str:0000000000001589 .LASF109
C:\Users\stapi\AppData\Local\Temp\ccXRxXiB.s:2093   .debug_str:000000000000144f .LASF110
C:\Users\stapi\AppData\Local\Temp\ccXRxXiB.s:1915   .debug_str:0000000000000aed .LASF111
C:\Users\stapi\AppData\Local\Temp\ccXRxXiB.s:2011   .debug_str:0000000000000fed .LASF112
C:\Users\stapi\AppData\Local\Temp\ccXRxXiB.s:2021   .debug_str:000000000000109a .LASF113
C:\Users\stapi\AppData\Local\Temp\ccXRxXiB.s:2131   .debug_str:000000000000167c .LASF114
C:\Users\stapi\AppData\Local\Temp\ccXRxXiB.s:1773   .debug_str:00000000000002c2 .LASF115
C:\Users\stapi\AppData\Local\Temp\ccXRxXiB.s:1947   .debug_str:0000000000000c86 .LASF116
C:\Users\stapi\AppData\Local\Temp\ccXRxXiB.s:1803   .debug_str:000000000000041e .LASF117
C:\Users\stapi\AppData\Local\Temp\ccXRxXiB.s:1865   .debug_str:0000000000000777 .LASF118
C:\Users\stapi\AppData\Local\Temp\ccXRxXiB.s:1989   .debug_str:0000000000000e9a .LASF119
C:\Users\stapi\AppData\Local\Temp\ccXRxXiB.s:1785   .debug_str:000000000000032e .LASF120
C:\Users\stapi\AppData\Local\Temp\ccXRxXiB.s:1751   .debug_str:000000000000013c .LASF121
C:\Users\stapi\AppData\Local\Temp\ccXRxXiB.s:1913   .debug_str:0000000000000ad3 .LASF122
C:\Users\stapi\AppData\Local\Temp\ccXRxXiB.s:1885   .debug_str:000000000000087f .LASF123
C:\Users\stapi\AppData\Local\Temp\ccXRxXiB.s:2185   .debug_str:00000000000019b4 .LASF124
C:\Users\stapi\AppData\Local\Temp\ccXRxXiB.s:2089   .debug_str:000000000000142b .LASF125
C:\Users\stapi\AppData\Local\Temp\ccXRxXiB.s:1875   .debug_str:00000000000007fc .LASF126
C:\Users\stapi\AppData\Local\Temp\ccXRxXiB.s:2025   .debug_str:00000000000010db .LASF127
C:\Users\stapi\AppData\Local\Temp\ccXRxXiB.s:1911   .debug_str:0000000000000ab8 .LASF128
C:\Users\stapi\AppData\Local\Temp\ccXRxXiB.s:2047   .debug_str:000000000000120c .LASF129
C:\Users\stapi\AppData\Local\Temp\ccXRxXiB.s:1829   .debug_str:000000000000058d .LASF130
C:\Users\stapi\AppData\Local\Temp\ccXRxXiB.s:1957   .debug_str:0000000000000cef .LASF131
C:\Users\stapi\AppData\Local\Temp\ccXRxXiB.s:2157   .debug_str:0000000000001833 .LASF132
C:\Users\stapi\AppData\Local\Temp\ccXRxXiB.s:2087   .debug_str:0000000000001412 .LASF133
C:\Users\stapi\AppData\Local\Temp\ccXRxXiB.s:1869   .debug_str:00000000000007b0 .LASF134
C:\Users\stapi\AppData\Local\Temp\ccXRxXiB.s:1741   .debug_str:0000000000000093 .LASF135
C:\Users\stapi\AppData\Local\Temp\ccXRxXiB.s:2077   .debug_str:000000000000138d .LASF136
C:\Users\stapi\AppData\Local\Temp\ccXRxXiB.s:1971   .debug_str:0000000000000da0 .LASF137
C:\Users\stapi\AppData\Local\Temp\ccXRxXiB.s:2125   .debug_str:000000000000162f .LASF138
C:\Users\stapi\AppData\Local\Temp\ccXRxXiB.s:1939   .debug_str:0000000000000c20 .LASF139
C:\Users\stapi\AppData\Local\Temp\ccXRxXiB.s:1797   .debug_str:00000000000003c9 .LASF140
C:\Users\stapi\AppData\Local\Temp\ccXRxXiB.s:2179   .debug_str:0000000000001960 .LASF141
C:\Users\stapi\AppData\Local\Temp\ccXRxXiB.s:1765   .debug_str:0000000000000247 .LASF142
C:\Users\stapi\AppData\Local\Temp\ccXRxXiB.s:1839   .debug_str:0000000000000621 .LASF143
C:\Users\stapi\AppData\Local\Temp\ccXRxXiB.s:1859   .debug_str:0000000000000721 .LASF144
C:\Users\stapi\AppData\Local\Temp\ccXRxXiB.s:2045   .debug_str:00000000000011e7 .LASF145
C:\Users\stapi\AppData\Local\Temp\ccXRxXiB.s:1893   .debug_str:00000000000008e9 .LASF146
C:\Users\stapi\AppData\Local\Temp\ccXRxXiB.s:1783   .debug_str:0000000000000310 .LASF147
C:\Users\stapi\AppData\Local\Temp\ccXRxXiB.s:2169   .debug_str:00000000000018be .LASF148
C:\Users\stapi\AppData\Local\Temp\ccXRxXiB.s:1895   .debug_str:0000000000000903 .LASF149
C:\Users\stapi\AppData\Local\Temp\ccXRxXiB.s:1735   .debug_str:000000000000002a .LASF150
C:\Users\stapi\AppData\Local\Temp\ccXRxXiB.s:1993   .debug_str:0000000000000ed7 .LASF151
C:\Users\stapi\AppData\Local\Temp\ccXRxXiB.s:2069   .debug_str:0000000000001338 .LASF152
C:\Users\stapi\AppData\Local\Temp\ccXRxXiB.s:2191   .debug_str:00000000000019ff .LASF153
C:\Users\stapi\AppData\Local\Temp\ccXRxXiB.s:2101   .debug_str:00000000000014b7 .LASF154
C:\Users\stapi\AppData\Local\Temp\ccXRxXiB.s:2085   .debug_str:00000000000013e9 .LASF155
C:\Users\stapi\AppData\Local\Temp\ccXRxXiB.s:2183   .debug_str:0000000000001994 .LASF156
C:\Users\stapi\AppData\Local\Temp\ccXRxXiB.s:2107   .debug_str:0000000000001506 .LASF157
C:\Users\stapi\AppData\Local\Temp\ccXRxXiB.s:1925   .debug_str:0000000000000b7c .LASF158
C:\Users\stapi\AppData\Local\Temp\ccXRxXiB.s:2007   .debug_str:0000000000000fb1 .LASF159
C:\Users\stapi\AppData\Local\Temp\ccXRxXiB.s:1837   .debug_str:0000000000000606 .LASF160
C:\Users\stapi\AppData\Local\Temp\ccXRxXiB.s:1825   .debug_str:0000000000000549 .LASF161
C:\Users\stapi\AppData\Local\Temp\ccXRxXiB.s:2113   .debug_str:000000000000156a .LASF162
C:\Users\stapi\AppData\Local\Temp\ccXRxXiB.s:2049   .debug_str:0000000000001225 .LASF163
C:\Users\stapi\AppData\Local\Temp\ccXRxXiB.s:2041   .debug_str:00000000000011a6 .LASF164
C:\Users\stapi\AppData\Local\Temp\ccXRxXiB.s:2083   .debug_str:00000000000013cc .LASF165
C:\Users\stapi\AppData\Local\Temp\ccXRxXiB.s:2009   .debug_str:0000000000000fd0 .LASF166
C:\Users\stapi\AppData\Local\Temp\ccXRxXiB.s:2137   .debug_str:00000000000016c3 .LASF167
C:\Users\stapi\AppData\Local\Temp\ccXRxXiB.s:1817   .debug_str:00000000000004cc .LASF168
C:\Users\stapi\AppData\Local\Temp\ccXRxXiB.s:2081   .debug_str:00000000000013b1 .LASF169
C:\Users\stapi\AppData\Local\Temp\ccXRxXiB.s:1983   .debug_str:0000000000000e43 .LASF170
C:\Users\stapi\AppData\Local\Temp\ccXRxXiB.s:2161   .debug_str:000000000000186e .LASF171
C:\Users\stapi\AppData\Local\Temp\ccXRxXiB.s:2195   .debug_str:0000000000001a27 .LASF172
C:\Users\stapi\AppData\Local\Temp\ccXRxXiB.s:2043   .debug_str:00000000000011c7 .LASF173
C:\Users\stapi\AppData\Local\Temp\ccXRxXiB.s:1967   .debug_str:0000000000000d6a .LASF174
C:\Users\stapi\AppData\Local\Temp\ccXRxXiB.s:1991   .debug_str:0000000000000ebd .LASF175
C:\Users\stapi\AppData\Local\Temp\ccXRxXiB.s:1841   .debug_str:0000000000000638 .LASF176
C:\Users\stapi\AppData\Local\Temp\ccXRxXiB.s:2057   .debug_str:0000000000001287 .LASF177
C:\Users\stapi\AppData\Local\Temp\ccXRxXiB.s:2171   .debug_str:00000000000018e4 .LASF178
C:\Users\stapi\AppData\Local\Temp\ccXRxXiB.s:1819   .debug_str:00000000000004ef .LASF179
C:\Users\stapi\AppData\Local\Temp\ccXRxXiB.s:2149   .debug_str:0000000000001766 .LASF180
C:\Users\stapi\AppData\Local\Temp\ccXRxXiB.s:1923   .debug_str:0000000000000b5b .LASF181
C:\Users\stapi\AppData\Local\Temp\ccXRxXiB.s:2143   .debug_str:0000000000001726 .LASF182
C:\Users\stapi\AppData\Local\Temp\ccXRxXiB.s:1985   .debug_str:0000000000000e5c .LASF183
C:\Users\stapi\AppData\Local\Temp\ccXRxXiB.s:1877   .debug_str:0000000000000815 .LASF184
C:\Users\stapi\AppData\Local\Temp\ccXRxXiB.s:2065   .debug_str:00000000000012fc .LASF185
C:\Users\stapi\AppData\Local\Temp\ccXRxXiB.s:2103   .debug_str:00000000000014d7 .LASF186
C:\Users\stapi\AppData\Local\Temp\ccXRxXiB.s:1897   .debug_str:0000000000000928 .LASF187
C:\Users\stapi\AppData\Local\Temp\ccXRxXiB.s:1927   .debug_str:0000000000000b99 .LASF188
C:\Users\stapi\AppData\Local\Temp\ccXRxXiB.s:2075   .debug_str:0000000000001372 .LASF189
C:\Users\stapi\AppData\Local\Temp\ccXRxXiB.s:2139   .debug_str:00000000000016ea .LASF190
C:\Users\stapi\AppData\Local\Temp\ccXRxXiB.s:1851   .debug_str:00000000000006c2 .LASF191
C:\Users\stapi\AppData\Local\Temp\ccXRxXiB.s:2111   .debug_str:0000000000001548 .LASF192
C:\Users\stapi\AppData\Local\Temp\ccXRxXiB.s:1909   .debug_str:0000000000000a97 .LASF193
C:\Users\stapi\AppData\Local\Temp\ccXRxXiB.s:2189   .debug_str:00000000000019e4 .LASF194
C:\Users\stapi\AppData\Local\Temp\ccXRxXiB.s:1963   .debug_str:0000000000000d33 .LASF195
C:\Users\stapi\AppData\Local\Temp\ccXRxXiB.s:1771   .debug_str:000000000000029e .LASF196
C:\Users\stapi\AppData\Local\Temp\ccXRxXiB.s:2061   .debug_str:00000000000012c0 .LASF197
C:\Users\stapi\AppData\Local\Temp\ccXRxXiB.s:1921   .debug_str:0000000000000b42 .LASF198
C:\Users\stapi\AppData\Local\Temp\ccXRxXiB.s:1823   .debug_str:0000000000000523 .LASF199
C:\Users\stapi\AppData\Local\Temp\ccXRxXiB.s:2001   .debug_str:0000000000000f59 .LASF200
C:\Users\stapi\AppData\Local\Temp\ccXRxXiB.s:1979   .debug_str:0000000000000e14 .LASF201
C:\Users\stapi\AppData\Local\Temp\ccXRxXiB.s:1955   .debug_str:0000000000000cda .LASF202
C:\Users\stapi\AppData\Local\Temp\ccXRxXiB.s:2187   .debug_str:00000000000019cf .LASF203
C:\Users\stapi\AppData\Local\Temp\ccXRxXiB.s:2005   .debug_str:0000000000000f97 .LASF204
C:\Users\stapi\AppData\Local\Temp\ccXRxXiB.s:2105   .debug_str:00000000000014f0 .LASF205
C:\Users\stapi\AppData\Local\Temp\ccXRxXiB.s:2133   .debug_str:0000000000001694 .LASF206
C:\Users\stapi\AppData\Local\Temp\ccXRxXiB.s:2147   .debug_str:0000000000001751 .LASF207
C:\Users\stapi\AppData\Local\Temp\ccXRxXiB.s:2031   .debug_str:0000000000001134 .LASF208
C:\Users\stapi\AppData\Local\Temp\ccXRxXiB.s:2141   .debug_str:000000000000170d .LASF209
C:\Users\stapi\AppData\Local\Temp\ccXRxXiB.s:185    .text.app_datatrans_srv_deinit:0000000000000000 .LFB17
C:\Users\stapi\AppData\Local\Temp\ccXRxXiB.s:202    .text.app_datatrans_srv_deinit:0000000000000020 .LFE17
C:\Users\stapi\AppData\Local\Temp\ccXRxXiB.s:193    .text.app_datatrans_srv_deinit:0000000000000010 .LVL17
C:\Users\stapi\AppData\Local\Temp\ccXRxXiB.s:196    .text.app_datatrans_srv_deinit:0000000000000018 .LVL18
C:\Users\stapi\AppData\Local\Temp\ccXRxXiB.s:1951   .debug_str:0000000000000ca2 .LASF210
C:\Users\stapi\AppData\Local\Temp\ccXRxXiB.s:157    .text.app_datatrans_srv_init:0000000000000000 .LFB16
C:\Users\stapi\AppData\Local\Temp\ccXRxXiB.s:178    .text.app_datatrans_srv_init:0000000000000030 .LFE16
C:\Users\stapi\AppData\Local\Temp\ccXRxXiB.s:167    .text.app_datatrans_srv_init:0000000000000018 .LVL15
C:\Users\stapi\AppData\Local\Temp\ccXRxXiB.s:172    .text.app_datatrans_srv_init:0000000000000028 .LVL16
C:\Users\stapi\AppData\Local\Temp\ccXRxXiB.s:1747   .debug_str:00000000000000fb .LASF229
C:\Users\stapi\AppData\Local\Temp\ccXRxXiB.s:20     .text.app_datatrans_srv_rx_callback:0000000000000000 .LFB15
C:\Users\stapi\AppData\Local\Temp\ccXRxXiB.s:87     .text.app_datatrans_srv_rx_callback:000000000000006e .LFE15
C:\Users\stapi\AppData\Local\Temp\ccXRxXiB.s:2051   .debug_str:0000000000001246 .LASF211
C:\Users\stapi\AppData\Local\Temp\ccXRxXiB.s:1617   .debug_loc:0000000000000000 .LLST0
C:\Users\stapi\AppData\Local\Temp\ccXRxXiB.s:2163   .debug_str:000000000000188d .LASF212
C:\Users\stapi\AppData\Local\Temp\ccXRxXiB.s:1631   .debug_loc:0000000000000021 .LLST1
C:\Users\stapi\AppData\Local\Temp\ccXRxXiB.s:1777   .debug_str:00000000000002e2 .LASF230
C:\Users\stapi\AppData\Local\Temp\ccXRxXiB.s:1642   .debug_loc:000000000000003f .LLST2
C:\Users\stapi\AppData\Local\Temp\ccXRxXiB.s:44     .text.app_datatrans_srv_rx_callback:000000000000001a .LVL2
C:\Users\stapi\AppData\Local\Temp\ccXRxXiB.s:54     .text.app_datatrans_srv_rx_callback:000000000000002e .LVL4
C:\Users\stapi\AppData\Local\Temp\ccXRxXiB.s:60     .text.app_datatrans_srv_rx_callback:000000000000003c .LVL5
C:\Users\stapi\AppData\Local\Temp\ccXRxXiB.s:66     .text.app_datatrans_srv_rx_callback:000000000000004a .LVL6
C:\Users\stapi\AppData\Local\Temp\ccXRxXiB.s:72     .text.app_datatrans_srv_rx_callback:000000000000005c .LVL7
C:\Users\stapi\AppData\Local\Temp\ccXRxXiB.s:76     .text.app_datatrans_srv_rx_callback:0000000000000066 .LVL8
C:\Users\stapi\AppData\Local\Temp\ccXRxXiB.s:1853   .debug_str:00000000000006db .LASF231
C:\Users\stapi\AppData\Local\Temp\ccXRxXiB.s:1935   .debug_str:0000000000000bfc .LASF232
C:\Users\stapi\AppData\Local\Temp\ccXRxXiB.s:97     .text.app_datatrans_srv_tx_callback:0000000000000000 .LFB14
C:\Users\stapi\AppData\Local\Temp\ccXRxXiB.s:150    .text.app_datatrans_srv_tx_callback:0000000000000052 .LFE14
C:\Users\stapi\AppData\Local\Temp\ccXRxXiB.s:1653   .debug_loc:000000000000005d .LLST3
C:\Users\stapi\AppData\Local\Temp\ccXRxXiB.s:1667   .debug_loc:000000000000007e .LLST4
C:\Users\stapi\AppData\Local\Temp\ccXRxXiB.s:1678   .debug_loc:000000000000009c .LLST5
C:\Users\stapi\AppData\Local\Temp\ccXRxXiB.s:126    .text.app_datatrans_srv_tx_callback:0000000000000026 .LBB4
C:\Users\stapi\AppData\Local\Temp\ccXRxXiB.s:141    .text.app_datatrans_srv_tx_callback:0000000000000048 .LBE4
C:\Users\stapi\AppData\Local\Temp\ccXRxXiB.s:1685   .debug_loc:00000000000000af .LLST6
C:\Users\stapi\AppData\Local\Temp\ccXRxXiB.s:1693   .debug_loc:00000000000000c3 .LLST7
C:\Users\stapi\AppData\Local\Temp\ccXRxXiB.s:132    .text.app_datatrans_srv_tx_callback:0000000000000036 .LVL13
C:\Users\stapi\AppData\Local\Temp\ccXRxXiB.s:138    .text.app_datatrans_srv_tx_callback:0000000000000048 .LVL14
C:\Users\stapi\AppData\Local\Temp\ccXRxXiB.s:114    .text.app_datatrans_srv_tx_callback:0000000000000016 .LVL10
C:\Users\stapi\AppData\Local\Temp\ccXRxXiB.s:122    .text.app_datatrans_srv_tx_callback:0000000000000024 .LVL11
C:\Users\stapi\AppData\Local\Temp\ccXRxXiB.s:1973   .debug_str:0000000000000dc1 .LASF213
C:\Users\stapi\AppData\Local\Temp\ccXRxXiB.s:1969   .debug_str:0000000000000d87 .LASF214
C:\Users\stapi\AppData\Local\Temp\ccXRxXiB.s:1937   .debug_str:0000000000000c06 .LASF215
C:\Users\stapi\AppData\Local\Temp\ccXRxXiB.s:1883   .debug_str:0000000000000868 .LASF216
C:\Users\stapi\AppData\Local\Temp\ccXRxXiB.s:2193   .debug_str:0000000000001a1c .LASF217
C:\Users\stapi\AppData\Local\Temp\ccXRxXiB.s:2165   .debug_str:0000000000001894 .LASF218
C:\Users\stapi\AppData\Local\Temp\ccXRxXiB.s:2129   .debug_str:0000000000001675 .LASF219
C:\Users\stapi\AppData\Local\Temp\ccXRxXiB.s:1779   .debug_str:00000000000002e8 .LASF221
C:\Users\stapi\AppData\Local\Temp\ccXRxXiB.s:1849   .debug_str:00000000000006bb .LASF220
C:\Users\stapi\AppData\Local\Temp\ccXRxXiB.s:1945   .debug_str:0000000000000c75 .LASF222
C:\Users\stapi\AppData\Local\Temp\ccXRxXiB.s:1795   .debug_str:00000000000003bf .LASF223
C:\Users\stapi\AppData\Local\Temp\ccXRxXiB.s:1961   .debug_str:0000000000000d22 .LASF224
C:\Users\stapi\AppData\Local\Temp\ccXRxXiB.s:1757   .debug_str:0000000000000198 .LASF225
C:\Users\stapi\AppData\Local\Temp\ccXRxXiB.s:24     .text.app_datatrans_srv_rx_callback:0000000000000000 .LVL0
C:\Users\stapi\AppData\Local\Temp\ccXRxXiB.s:39     .text.app_datatrans_srv_rx_callback:0000000000000010 .LVL1
C:\Users\stapi\AppData\Local\Temp\ccXRxXiB.s:51     .text.app_datatrans_srv_rx_callback:0000000000000022 .LVL3
C:\Users\stapi\AppData\Local\Temp\ccXRxXiB.s:100    .text.app_datatrans_srv_tx_callback:0000000000000000 .LVL9
C:\Users\stapi\AppData\Local\Temp\ccXRxXiB.s:125    .text.app_datatrans_srv_tx_callback:0000000000000026 .LVL12
C:\Users\stapi\AppData\Local\Temp\ccXRxXiB.s:216    .debug_info:0000000000000000 .Ldebug_info0

UNDEFINED SYMBOLS
__riscv_save_4
sys_malloc
co_printf
memset
memcpy
sys_mfree
__riscv_restore_4
__riscv_save_1
dm_get_conidx_bf
ble_datatrans_srv_tx_mtp
__riscv_restore_1
__riscv_save_0
cmd_unkwn_cmd_handler_reg
ble_datatrans_srv_init
__riscv_restore_0
cmd_unkwn_cmd_handler_unreg
ble_datatrans_srv_deinit
