   1              		.file	"app_iso_mgr.c"
   2              		.option nopic
   3              		.attribute arch, "rv32i2p0_m2p0_a2p0_f2p0_c2p0_b_p0p94"
   4              		.attribute unaligned_access, 0
   5              		.attribute stack_align, 16
   6              		.text
   7              	.Ltext0:
   8              		.cfi_sections	.debug_frame
   9              		.section	.rodata.app_big_sync_info_hdlr.str1.4,"aMS",@progbits,1
  10              		.align	2
  11              	.LC0:
  12 0000 62696720 		.string	"big sync added, big handle 0x%x, group lid 0x%x, steam num %d"
  12      73796E63 
  12      20616464 
  12      65642C20 
  12      62696720 
  13 003e 0000     		.align	2
  14              	.LC1:
  15 0040 2C207374 		.string	", stream lid[%d] 0x%x"
  15      7265616D 
  15      206C6964 
  15      5B25645D 
  15      20307825 
  16 0056 0000     		.align	2
  17              	.LC2:
  18 0058 0D0A00   		.string	"\r\n"
  19              		.section	.text.app_big_sync_info_hdlr,"ax",@progbits
  20              		.align	1
  21              		.globl	app_big_sync_info_hdlr
  23              	app_big_sync_info_hdlr:
  24              	.LFB8:
  25              		.file 1 "C:/Users/stapi/OneDrive/Desktop/GD32VW553/GD32VW55X_Wifi_BLE_SDK/GD32VW55x_RELEASE_V1.0.2
   1:C:/Users/stapi/OneDrive/Desktop/GD32VW553/GD32VW55X_Wifi_BLE_SDK/GD32VW55x_RELEASE_V1.0.2/MSDK/ble/app\app_iso_mgr.c **** /*!
   2:C:/Users/stapi/OneDrive/Desktop/GD32VW553/GD32VW55X_Wifi_BLE_SDK/GD32VW55x_RELEASE_V1.0.2/MSDK/ble/app\app_iso_mgr.c ****     \file    app_iso_mgr.c
   3:C:/Users/stapi/OneDrive/Desktop/GD32VW553/GD32VW55X_Wifi_BLE_SDK/GD32VW55x_RELEASE_V1.0.2/MSDK/ble/app\app_iso_mgr.c ****     \brief   Implementation of BLE application iso manager.
   4:C:/Users/stapi/OneDrive/Desktop/GD32VW553/GD32VW55X_Wifi_BLE_SDK/GD32VW55x_RELEASE_V1.0.2/MSDK/ble/app\app_iso_mgr.c **** 
   5:C:/Users/stapi/OneDrive/Desktop/GD32VW553/GD32VW55X_Wifi_BLE_SDK/GD32VW55x_RELEASE_V1.0.2/MSDK/ble/app\app_iso_mgr.c ****     \version 2023-07-20, V1.0.0, firmware for GD32VW55x
   6:C:/Users/stapi/OneDrive/Desktop/GD32VW553/GD32VW55X_Wifi_BLE_SDK/GD32VW55x_RELEASE_V1.0.2/MSDK/ble/app\app_iso_mgr.c **** */
   7:C:/Users/stapi/OneDrive/Desktop/GD32VW553/GD32VW55X_Wifi_BLE_SDK/GD32VW55x_RELEASE_V1.0.2/MSDK/ble/app\app_iso_mgr.c **** 
   8:C:/Users/stapi/OneDrive/Desktop/GD32VW553/GD32VW55X_Wifi_BLE_SDK/GD32VW55x_RELEASE_V1.0.2/MSDK/ble/app\app_iso_mgr.c **** /*
   9:C:/Users/stapi/OneDrive/Desktop/GD32VW553/GD32VW55X_Wifi_BLE_SDK/GD32VW55x_RELEASE_V1.0.2/MSDK/ble/app\app_iso_mgr.c ****     Copyright (c) 2023, GigaDevice Semiconductor Inc.
  10:C:/Users/stapi/OneDrive/Desktop/GD32VW553/GD32VW55X_Wifi_BLE_SDK/GD32VW55x_RELEASE_V1.0.2/MSDK/ble/app\app_iso_mgr.c **** 
  11:C:/Users/stapi/OneDrive/Desktop/GD32VW553/GD32VW55X_Wifi_BLE_SDK/GD32VW55x_RELEASE_V1.0.2/MSDK/ble/app\app_iso_mgr.c ****     Redistribution and use in source and binary forms, with or without modification,
  12:C:/Users/stapi/OneDrive/Desktop/GD32VW553/GD32VW55X_Wifi_BLE_SDK/GD32VW55x_RELEASE_V1.0.2/MSDK/ble/app\app_iso_mgr.c **** are permitted provided that the following conditions are met:
  13:C:/Users/stapi/OneDrive/Desktop/GD32VW553/GD32VW55X_Wifi_BLE_SDK/GD32VW55x_RELEASE_V1.0.2/MSDK/ble/app\app_iso_mgr.c **** 
  14:C:/Users/stapi/OneDrive/Desktop/GD32VW553/GD32VW55X_Wifi_BLE_SDK/GD32VW55x_RELEASE_V1.0.2/MSDK/ble/app\app_iso_mgr.c ****     1. Redistributions of source code must retain the above copyright notice, this
  15:C:/Users/stapi/OneDrive/Desktop/GD32VW553/GD32VW55X_Wifi_BLE_SDK/GD32VW55x_RELEASE_V1.0.2/MSDK/ble/app\app_iso_mgr.c ****        list of conditions and the following disclaimer.
  16:C:/Users/stapi/OneDrive/Desktop/GD32VW553/GD32VW55X_Wifi_BLE_SDK/GD32VW55x_RELEASE_V1.0.2/MSDK/ble/app\app_iso_mgr.c ****     2. Redistributions in binary form must reproduce the above copyright notice,
  17:C:/Users/stapi/OneDrive/Desktop/GD32VW553/GD32VW55X_Wifi_BLE_SDK/GD32VW55x_RELEASE_V1.0.2/MSDK/ble/app\app_iso_mgr.c ****        this list of conditions and the following disclaimer in the documentation
  18:C:/Users/stapi/OneDrive/Desktop/GD32VW553/GD32VW55X_Wifi_BLE_SDK/GD32VW55x_RELEASE_V1.0.2/MSDK/ble/app\app_iso_mgr.c ****        and/or other materials provided with the distribution.
  19:C:/Users/stapi/OneDrive/Desktop/GD32VW553/GD32VW55X_Wifi_BLE_SDK/GD32VW55x_RELEASE_V1.0.2/MSDK/ble/app\app_iso_mgr.c ****     3. Neither the name of the copyright holder nor the names of its contributors
  20:C:/Users/stapi/OneDrive/Desktop/GD32VW553/GD32VW55X_Wifi_BLE_SDK/GD32VW55x_RELEASE_V1.0.2/MSDK/ble/app\app_iso_mgr.c ****        may be used to endorse or promote products derived from this software without
  21:C:/Users/stapi/OneDrive/Desktop/GD32VW553/GD32VW55X_Wifi_BLE_SDK/GD32VW55x_RELEASE_V1.0.2/MSDK/ble/app\app_iso_mgr.c ****        specific prior written permission.
  22:C:/Users/stapi/OneDrive/Desktop/GD32VW553/GD32VW55X_Wifi_BLE_SDK/GD32VW55x_RELEASE_V1.0.2/MSDK/ble/app\app_iso_mgr.c **** 
  23:C:/Users/stapi/OneDrive/Desktop/GD32VW553/GD32VW55X_Wifi_BLE_SDK/GD32VW55x_RELEASE_V1.0.2/MSDK/ble/app\app_iso_mgr.c ****     THIS SOFTWARE IS PROVIDED BY THE COPYRIGHT HOLDERS AND CONTRIBUTORS "AS IS"
  24:C:/Users/stapi/OneDrive/Desktop/GD32VW553/GD32VW55X_Wifi_BLE_SDK/GD32VW55x_RELEASE_V1.0.2/MSDK/ble/app\app_iso_mgr.c **** AND ANY EXPRESS OR IMPLIED WARRANTIES, INCLUDING, BUT NOT LIMITED TO, THE IMPLIED
  25:C:/Users/stapi/OneDrive/Desktop/GD32VW553/GD32VW55X_Wifi_BLE_SDK/GD32VW55x_RELEASE_V1.0.2/MSDK/ble/app\app_iso_mgr.c **** WARRANTIES OF MERCHANTABILITY AND FITNESS FOR A PARTICULAR PURPOSE ARE DISCLAIMED.
  26:C:/Users/stapi/OneDrive/Desktop/GD32VW553/GD32VW55X_Wifi_BLE_SDK/GD32VW55x_RELEASE_V1.0.2/MSDK/ble/app\app_iso_mgr.c **** IN NO EVENT SHALL THE COPYRIGHT HOLDER OR CONTRIBUTORS BE LIABLE FOR ANY DIRECT,
  27:C:/Users/stapi/OneDrive/Desktop/GD32VW553/GD32VW55X_Wifi_BLE_SDK/GD32VW55x_RELEASE_V1.0.2/MSDK/ble/app\app_iso_mgr.c **** INDIRECT, INCIDENTAL, SPECIAL, EXEMPLARY, OR CONSEQUENTIAL DAMAGES (INCLUDING, BUT
  28:C:/Users/stapi/OneDrive/Desktop/GD32VW553/GD32VW55X_Wifi_BLE_SDK/GD32VW55x_RELEASE_V1.0.2/MSDK/ble/app\app_iso_mgr.c **** NOT LIMITED TO, PROCUREMENT OF SUBSTITUTE GOODS OR SERVICES; LOSS OF USE, DATA, OR
  29:C:/Users/stapi/OneDrive/Desktop/GD32VW553/GD32VW55X_Wifi_BLE_SDK/GD32VW55x_RELEASE_V1.0.2/MSDK/ble/app\app_iso_mgr.c **** PROFITS; OR BUSINESS INTERRUPTION) HOWEVER CAUSED AND ON ANY THEORY OF LIABILITY,
  30:C:/Users/stapi/OneDrive/Desktop/GD32VW553/GD32VW55X_Wifi_BLE_SDK/GD32VW55x_RELEASE_V1.0.2/MSDK/ble/app\app_iso_mgr.c **** WHETHER IN CONTRACT, STRICT LIABILITY, OR TORT (INCLUDING NEGLIGENCE OR OTHERWISE)
  31:C:/Users/stapi/OneDrive/Desktop/GD32VW553/GD32VW55X_Wifi_BLE_SDK/GD32VW55x_RELEASE_V1.0.2/MSDK/ble/app\app_iso_mgr.c **** ARISING IN ANY WAY OUT OF THE USE OF THIS SOFTWARE, EVEN IF ADVISED OF THE POSSIBILITY
  32:C:/Users/stapi/OneDrive/Desktop/GD32VW553/GD32VW55X_Wifi_BLE_SDK/GD32VW55x_RELEASE_V1.0.2/MSDK/ble/app\app_iso_mgr.c **** OF SUCH DAMAGE.
  33:C:/Users/stapi/OneDrive/Desktop/GD32VW553/GD32VW55X_Wifi_BLE_SDK/GD32VW55x_RELEASE_V1.0.2/MSDK/ble/app\app_iso_mgr.c **** */
  34:C:/Users/stapi/OneDrive/Desktop/GD32VW553/GD32VW55X_Wifi_BLE_SDK/GD32VW55x_RELEASE_V1.0.2/MSDK/ble/app\app_iso_mgr.c **** 
  35:C:/Users/stapi/OneDrive/Desktop/GD32VW553/GD32VW55X_Wifi_BLE_SDK/GD32VW55x_RELEASE_V1.0.2/MSDK/ble/app\app_iso_mgr.c **** #include "ble_app_config.h"
  36:C:/Users/stapi/OneDrive/Desktop/GD32VW553/GD32VW55X_Wifi_BLE_SDK/GD32VW55x_RELEASE_V1.0.2/MSDK/ble/app\app_iso_mgr.c **** 
  37:C:/Users/stapi/OneDrive/Desktop/GD32VW553/GD32VW55X_Wifi_BLE_SDK/GD32VW55x_RELEASE_V1.0.2/MSDK/ble/app\app_iso_mgr.c **** #if (BLE_APP_SUPPORT && (BLE_APP_BIS_SUPPORT || BLE_APP_CIS_SUPPORT))
  38:C:/Users/stapi/OneDrive/Desktop/GD32VW553/GD32VW55X_Wifi_BLE_SDK/GD32VW55x_RELEASE_V1.0.2/MSDK/ble/app\app_iso_mgr.c **** #include <string.h>
  39:C:/Users/stapi/OneDrive/Desktop/GD32VW553/GD32VW55X_Wifi_BLE_SDK/GD32VW55x_RELEASE_V1.0.2/MSDK/ble/app\app_iso_mgr.c **** #include <stdio.h>
  40:C:/Users/stapi/OneDrive/Desktop/GD32VW553/GD32VW55X_Wifi_BLE_SDK/GD32VW55x_RELEASE_V1.0.2/MSDK/ble/app\app_iso_mgr.c **** 
  41:C:/Users/stapi/OneDrive/Desktop/GD32VW553/GD32VW55X_Wifi_BLE_SDK/GD32VW55x_RELEASE_V1.0.2/MSDK/ble/app\app_iso_mgr.c **** #include "ble_iso.h"
  42:C:/Users/stapi/OneDrive/Desktop/GD32VW553/GD32VW55X_Wifi_BLE_SDK/GD32VW55x_RELEASE_V1.0.2/MSDK/ble/app\app_iso_mgr.c **** #include "app_iso_mgr.h"
  43:C:/Users/stapi/OneDrive/Desktop/GD32VW553/GD32VW55X_Wifi_BLE_SDK/GD32VW55x_RELEASE_V1.0.2/MSDK/ble/app\app_iso_mgr.c **** #include "dbg_print.h"
  44:C:/Users/stapi/OneDrive/Desktop/GD32VW553/GD32VW55X_Wifi_BLE_SDK/GD32VW55x_RELEASE_V1.0.2/MSDK/ble/app\app_iso_mgr.c **** 
  45:C:/Users/stapi/OneDrive/Desktop/GD32VW553/GD32VW55X_Wifi_BLE_SDK/GD32VW55x_RELEASE_V1.0.2/MSDK/ble/app\app_iso_mgr.c **** /* BIG handle value */
  46:C:/Users/stapi/OneDrive/Desktop/GD32VW553/GD32VW55X_Wifi_BLE_SDK/GD32VW55x_RELEASE_V1.0.2/MSDK/ble/app\app_iso_mgr.c **** #define APP_BIG_HDL             0x10
  47:C:/Users/stapi/OneDrive/Desktop/GD32VW553/GD32VW55X_Wifi_BLE_SDK/GD32VW55x_RELEASE_V1.0.2/MSDK/ble/app\app_iso_mgr.c **** 
  48:C:/Users/stapi/OneDrive/Desktop/GD32VW553/GD32VW55X_Wifi_BLE_SDK/GD32VW55x_RELEASE_V1.0.2/MSDK/ble/app\app_iso_mgr.c **** /* Invalid BIG index value */
  49:C:/Users/stapi/OneDrive/Desktop/GD32VW553/GD32VW55X_Wifi_BLE_SDK/GD32VW55x_RELEASE_V1.0.2/MSDK/ble/app\app_iso_mgr.c **** #define BIG_INVALID_IDX         (0xFF)
  50:C:/Users/stapi/OneDrive/Desktop/GD32VW553/GD32VW55X_Wifi_BLE_SDK/GD32VW55x_RELEASE_V1.0.2/MSDK/ble/app\app_iso_mgr.c **** 
  51:C:/Users/stapi/OneDrive/Desktop/GD32VW553/GD32VW55X_Wifi_BLE_SDK/GD32VW55x_RELEASE_V1.0.2/MSDK/ble/app\app_iso_mgr.c **** /* CIG ID */
  52:C:/Users/stapi/OneDrive/Desktop/GD32VW553/GD32VW55X_Wifi_BLE_SDK/GD32VW55x_RELEASE_V1.0.2/MSDK/ble/app\app_iso_mgr.c **** #define APP_CIG_ID              0x20
  53:C:/Users/stapi/OneDrive/Desktop/GD32VW553/GD32VW55X_Wifi_BLE_SDK/GD32VW55x_RELEASE_V1.0.2/MSDK/ble/app\app_iso_mgr.c **** 
  54:C:/Users/stapi/OneDrive/Desktop/GD32VW553/GD32VW55X_Wifi_BLE_SDK/GD32VW55x_RELEASE_V1.0.2/MSDK/ble/app\app_iso_mgr.c **** /* BIG broadcast code value */
  55:C:/Users/stapi/OneDrive/Desktop/GD32VW553/GD32VW55X_Wifi_BLE_SDK/GD32VW55x_RELEASE_V1.0.2/MSDK/ble/app\app_iso_mgr.c **** static uint8_t big_bc[16] = {0x00, 0x11, 0x22, 0x33, 0x44, 0x55, 0x66, 0x77, 0x88, 0x99, 0xAA, 0xBB
  56:C:/Users/stapi/OneDrive/Desktop/GD32VW553/GD32VW55X_Wifi_BLE_SDK/GD32VW55x_RELEASE_V1.0.2/MSDK/ble/app\app_iso_mgr.c **** 
  57:C:/Users/stapi/OneDrive/Desktop/GD32VW553/GD32VW55X_Wifi_BLE_SDK/GD32VW55x_RELEASE_V1.0.2/MSDK/ble/app\app_iso_mgr.c **** #if (BLE_APP_BIS_SUPPORT)
  58:C:/Users/stapi/OneDrive/Desktop/GD32VW553/GD32VW55X_Wifi_BLE_SDK/GD32VW55x_RELEASE_V1.0.2/MSDK/ble/app\app_iso_mgr.c **** /*!
  59:C:/Users/stapi/OneDrive/Desktop/GD32VW553/GD32VW55X_Wifi_BLE_SDK/GD32VW55x_RELEASE_V1.0.2/MSDK/ble/app\app_iso_mgr.c ****     \brief      Callback function to handle @ref BLE_ISO_EVT_BIG_INFO_RX event
  60:C:/Users/stapi/OneDrive/Desktop/GD32VW553/GD32VW55X_Wifi_BLE_SDK/GD32VW55x_RELEASE_V1.0.2/MSDK/ble/app\app_iso_mgr.c ****     \param[in]  p_info: pointer to received BIG information
  61:C:/Users/stapi/OneDrive/Desktop/GD32VW553/GD32VW55X_Wifi_BLE_SDK/GD32VW55x_RELEASE_V1.0.2/MSDK/ble/app\app_iso_mgr.c ****     \param[out] none
  62:C:/Users/stapi/OneDrive/Desktop/GD32VW553/GD32VW55X_Wifi_BLE_SDK/GD32VW55x_RELEASE_V1.0.2/MSDK/ble/app\app_iso_mgr.c ****     \retval     none
  63:C:/Users/stapi/OneDrive/Desktop/GD32VW553/GD32VW55X_Wifi_BLE_SDK/GD32VW55x_RELEASE_V1.0.2/MSDK/ble/app\app_iso_mgr.c **** */
  64:C:/Users/stapi/OneDrive/Desktop/GD32VW553/GD32VW55X_Wifi_BLE_SDK/GD32VW55x_RELEASE_V1.0.2/MSDK/ble/app\app_iso_mgr.c **** static void app_big_info_rx_hdlr(ble_gap_big_info_t *p_info)
  65:C:/Users/stapi/OneDrive/Desktop/GD32VW553/GD32VW55X_Wifi_BLE_SDK/GD32VW55x_RELEASE_V1.0.2/MSDK/ble/app\app_iso_mgr.c **** {
  66:C:/Users/stapi/OneDrive/Desktop/GD32VW553/GD32VW55X_Wifi_BLE_SDK/GD32VW55x_RELEASE_V1.0.2/MSDK/ble/app\app_iso_mgr.c ****     dbg_print(NOTICE, "big info rcvd, sdu int:%d, iso int %d, pdu %d, sdu %d, bis num %d, se num %d
  67:C:/Users/stapi/OneDrive/Desktop/GD32VW553/GD32VW55X_Wifi_BLE_SDK/GD32VW55x_RELEASE_V1.0.2/MSDK/ble/app\app_iso_mgr.c ****            p_info->sdu_interval, p_info->iso_interval, p_info->max_pdu,
  68:C:/Users/stapi/OneDrive/Desktop/GD32VW553/GD32VW55X_Wifi_BLE_SDK/GD32VW55x_RELEASE_V1.0.2/MSDK/ble/app\app_iso_mgr.c ****            p_info->max_sdu, p_info->num_bis, p_info->nse, p_info->bn,
  69:C:/Users/stapi/OneDrive/Desktop/GD32VW553/GD32VW55X_Wifi_BLE_SDK/GD32VW55x_RELEASE_V1.0.2/MSDK/ble/app\app_iso_mgr.c ****            p_info->pto, p_info->irc, p_info->phy, p_info->framing,
  70:C:/Users/stapi/OneDrive/Desktop/GD32VW553/GD32VW55X_Wifi_BLE_SDK/GD32VW55x_RELEASE_V1.0.2/MSDK/ble/app\app_iso_mgr.c ****            p_info->encrypted);
  71:C:/Users/stapi/OneDrive/Desktop/GD32VW553/GD32VW55X_Wifi_BLE_SDK/GD32VW55x_RELEASE_V1.0.2/MSDK/ble/app\app_iso_mgr.c **** }
  72:C:/Users/stapi/OneDrive/Desktop/GD32VW553/GD32VW55X_Wifi_BLE_SDK/GD32VW55x_RELEASE_V1.0.2/MSDK/ble/app\app_iso_mgr.c **** 
  73:C:/Users/stapi/OneDrive/Desktop/GD32VW553/GD32VW55X_Wifi_BLE_SDK/GD32VW55x_RELEASE_V1.0.2/MSDK/ble/app\app_iso_mgr.c **** /*!
  74:C:/Users/stapi/OneDrive/Desktop/GD32VW553/GD32VW55X_Wifi_BLE_SDK/GD32VW55x_RELEASE_V1.0.2/MSDK/ble/app\app_iso_mgr.c ****     \brief      Callback function to handle @ref BLE_ISO_EVT_BIG_CREATE_FAIL event
  75:C:/Users/stapi/OneDrive/Desktop/GD32VW553/GD32VW55X_Wifi_BLE_SDK/GD32VW55x_RELEASE_V1.0.2/MSDK/ble/app\app_iso_mgr.c ****     \param[in]  p_info: pointer to BIG create fail information
  76:C:/Users/stapi/OneDrive/Desktop/GD32VW553/GD32VW55X_Wifi_BLE_SDK/GD32VW55x_RELEASE_V1.0.2/MSDK/ble/app\app_iso_mgr.c ****     \param[out] none
  77:C:/Users/stapi/OneDrive/Desktop/GD32VW553/GD32VW55X_Wifi_BLE_SDK/GD32VW55x_RELEASE_V1.0.2/MSDK/ble/app\app_iso_mgr.c ****     \retval     none
  78:C:/Users/stapi/OneDrive/Desktop/GD32VW553/GD32VW55X_Wifi_BLE_SDK/GD32VW55x_RELEASE_V1.0.2/MSDK/ble/app\app_iso_mgr.c **** */
  79:C:/Users/stapi/OneDrive/Desktop/GD32VW553/GD32VW55X_Wifi_BLE_SDK/GD32VW55x_RELEASE_V1.0.2/MSDK/ble/app\app_iso_mgr.c **** static void app_big_create_fail_hdlr(ble_iso_create_fail_info_t *p_info)
  80:C:/Users/stapi/OneDrive/Desktop/GD32VW553/GD32VW55X_Wifi_BLE_SDK/GD32VW55x_RELEASE_V1.0.2/MSDK/ble/app\app_iso_mgr.c **** {
  81:C:/Users/stapi/OneDrive/Desktop/GD32VW553/GD32VW55X_Wifi_BLE_SDK/GD32VW55x_RELEASE_V1.0.2/MSDK/ble/app\app_iso_mgr.c ****     dbg_print(NOTICE, "big create fail, status 0x%x\r\n", p_info->status);
  82:C:/Users/stapi/OneDrive/Desktop/GD32VW553/GD32VW55X_Wifi_BLE_SDK/GD32VW55x_RELEASE_V1.0.2/MSDK/ble/app\app_iso_mgr.c **** }
  83:C:/Users/stapi/OneDrive/Desktop/GD32VW553/GD32VW55X_Wifi_BLE_SDK/GD32VW55x_RELEASE_V1.0.2/MSDK/ble/app\app_iso_mgr.c **** 
  84:C:/Users/stapi/OneDrive/Desktop/GD32VW553/GD32VW55X_Wifi_BLE_SDK/GD32VW55x_RELEASE_V1.0.2/MSDK/ble/app\app_iso_mgr.c **** /*!
  85:C:/Users/stapi/OneDrive/Desktop/GD32VW553/GD32VW55X_Wifi_BLE_SDK/GD32VW55x_RELEASE_V1.0.2/MSDK/ble/app\app_iso_mgr.c ****     \brief      Callback function to handle @ref BLE_ISO_EVT_BIG_CREATE_INFO event
  86:C:/Users/stapi/OneDrive/Desktop/GD32VW553/GD32VW55X_Wifi_BLE_SDK/GD32VW55x_RELEASE_V1.0.2/MSDK/ble/app\app_iso_mgr.c ****     \param[in]  p_info: pointer to BIG created information
  87:C:/Users/stapi/OneDrive/Desktop/GD32VW553/GD32VW55X_Wifi_BLE_SDK/GD32VW55x_RELEASE_V1.0.2/MSDK/ble/app\app_iso_mgr.c ****     \param[out] none
  88:C:/Users/stapi/OneDrive/Desktop/GD32VW553/GD32VW55X_Wifi_BLE_SDK/GD32VW55x_RELEASE_V1.0.2/MSDK/ble/app\app_iso_mgr.c ****     \retval     none
  89:C:/Users/stapi/OneDrive/Desktop/GD32VW553/GD32VW55X_Wifi_BLE_SDK/GD32VW55x_RELEASE_V1.0.2/MSDK/ble/app\app_iso_mgr.c **** */
  90:C:/Users/stapi/OneDrive/Desktop/GD32VW553/GD32VW55X_Wifi_BLE_SDK/GD32VW55x_RELEASE_V1.0.2/MSDK/ble/app\app_iso_mgr.c **** static void  app_big_create_info_hdlr(ble_gap_big_create_info_t *p_info)
  91:C:/Users/stapi/OneDrive/Desktop/GD32VW553/GD32VW55X_Wifi_BLE_SDK/GD32VW55x_RELEASE_V1.0.2/MSDK/ble/app\app_iso_mgr.c **** {
  92:C:/Users/stapi/OneDrive/Desktop/GD32VW553/GD32VW55X_Wifi_BLE_SDK/GD32VW55x_RELEASE_V1.0.2/MSDK/ble/app\app_iso_mgr.c ****     uint8_t i = 0;
  93:C:/Users/stapi/OneDrive/Desktop/GD32VW553/GD32VW55X_Wifi_BLE_SDK/GD32VW55x_RELEASE_V1.0.2/MSDK/ble/app\app_iso_mgr.c **** 
  94:C:/Users/stapi/OneDrive/Desktop/GD32VW553/GD32VW55X_Wifi_BLE_SDK/GD32VW55x_RELEASE_V1.0.2/MSDK/ble/app\app_iso_mgr.c ****     dbg_print(NOTICE, "big create success, group lid 0x%x, sync delay %d, latency %d, phy %d, nse %
  95:C:/Users/stapi/OneDrive/Desktop/GD32VW553/GD32VW55X_Wifi_BLE_SDK/GD32VW55x_RELEASE_V1.0.2/MSDK/ble/app\app_iso_mgr.c ****             p_info->group_lid, p_info->sync_delay_us, p_info->tlatency_us, p_info->phy, p_info->nse
  96:C:/Users/stapi/OneDrive/Desktop/GD32VW553/GD32VW55X_Wifi_BLE_SDK/GD32VW55x_RELEASE_V1.0.2/MSDK/ble/app\app_iso_mgr.c ****             p_info->bn, p_info->pto, p_info->irc, p_info->max_pdu, p_info->iso_intv, p_info->bis_nu
  97:C:/Users/stapi/OneDrive/Desktop/GD32VW553/GD32VW55X_Wifi_BLE_SDK/GD32VW55x_RELEASE_V1.0.2/MSDK/ble/app\app_iso_mgr.c **** 
  98:C:/Users/stapi/OneDrive/Desktop/GD32VW553/GD32VW55X_Wifi_BLE_SDK/GD32VW55x_RELEASE_V1.0.2/MSDK/ble/app\app_iso_mgr.c ****     for (i = 0; i < p_info->bis_num; i++)
  99:C:/Users/stapi/OneDrive/Desktop/GD32VW553/GD32VW55X_Wifi_BLE_SDK/GD32VW55x_RELEASE_V1.0.2/MSDK/ble/app\app_iso_mgr.c ****         dbg_print(NOTICE, ", hdl[%d] 0x%x", i, p_info->p_conn_hdl[i]);
 100:C:/Users/stapi/OneDrive/Desktop/GD32VW553/GD32VW55X_Wifi_BLE_SDK/GD32VW55x_RELEASE_V1.0.2/MSDK/ble/app\app_iso_mgr.c **** 
 101:C:/Users/stapi/OneDrive/Desktop/GD32VW553/GD32VW55X_Wifi_BLE_SDK/GD32VW55x_RELEASE_V1.0.2/MSDK/ble/app\app_iso_mgr.c ****     dbg_print(NOTICE, "\r\n");
 102:C:/Users/stapi/OneDrive/Desktop/GD32VW553/GD32VW55X_Wifi_BLE_SDK/GD32VW55x_RELEASE_V1.0.2/MSDK/ble/app\app_iso_mgr.c **** }
 103:C:/Users/stapi/OneDrive/Desktop/GD32VW553/GD32VW55X_Wifi_BLE_SDK/GD32VW55x_RELEASE_V1.0.2/MSDK/ble/app\app_iso_mgr.c **** 
 104:C:/Users/stapi/OneDrive/Desktop/GD32VW553/GD32VW55X_Wifi_BLE_SDK/GD32VW55x_RELEASE_V1.0.2/MSDK/ble/app\app_iso_mgr.c **** /*!
 105:C:/Users/stapi/OneDrive/Desktop/GD32VW553/GD32VW55X_Wifi_BLE_SDK/GD32VW55x_RELEASE_V1.0.2/MSDK/ble/app\app_iso_mgr.c ****     \brief      Callback function to handle @ref BLE_ISO_EVT_BIG_SYNC_STATUS event
 106:C:/Users/stapi/OneDrive/Desktop/GD32VW553/GD32VW55X_Wifi_BLE_SDK/GD32VW55x_RELEASE_V1.0.2/MSDK/ble/app\app_iso_mgr.c ****     \param[in]  p_info: pointer to BIG sync status information
 107:C:/Users/stapi/OneDrive/Desktop/GD32VW553/GD32VW55X_Wifi_BLE_SDK/GD32VW55x_RELEASE_V1.0.2/MSDK/ble/app\app_iso_mgr.c ****     \param[out] none
 108:C:/Users/stapi/OneDrive/Desktop/GD32VW553/GD32VW55X_Wifi_BLE_SDK/GD32VW55x_RELEASE_V1.0.2/MSDK/ble/app\app_iso_mgr.c ****     \retval     none
 109:C:/Users/stapi/OneDrive/Desktop/GD32VW553/GD32VW55X_Wifi_BLE_SDK/GD32VW55x_RELEASE_V1.0.2/MSDK/ble/app\app_iso_mgr.c **** */
 110:C:/Users/stapi/OneDrive/Desktop/GD32VW553/GD32VW55X_Wifi_BLE_SDK/GD32VW55x_RELEASE_V1.0.2/MSDK/ble/app\app_iso_mgr.c **** static void app_big_sync_status_hdlr(ble_gap_big_sync_status_info_t *p_info)
 111:C:/Users/stapi/OneDrive/Desktop/GD32VW553/GD32VW55X_Wifi_BLE_SDK/GD32VW55x_RELEASE_V1.0.2/MSDK/ble/app\app_iso_mgr.c **** {
 112:C:/Users/stapi/OneDrive/Desktop/GD32VW553/GD32VW55X_Wifi_BLE_SDK/GD32VW55x_RELEASE_V1.0.2/MSDK/ble/app\app_iso_mgr.c ****     switch (p_info->status) {
 113:C:/Users/stapi/OneDrive/Desktop/GD32VW553/GD32VW55X_Wifi_BLE_SDK/GD32VW55x_RELEASE_V1.0.2/MSDK/ble/app\app_iso_mgr.c ****     case BLE_GAP_BIG_SYNC_STATUS_ESTABLISHED: {
 114:C:/Users/stapi/OneDrive/Desktop/GD32VW553/GD32VW55X_Wifi_BLE_SDK/GD32VW55x_RELEASE_V1.0.2/MSDK/ble/app\app_iso_mgr.c ****         uint8_t i = 0;
 115:C:/Users/stapi/OneDrive/Desktop/GD32VW553/GD32VW55X_Wifi_BLE_SDK/GD32VW55x_RELEASE_V1.0.2/MSDK/ble/app\app_iso_mgr.c ****         dbg_print(NOTICE, "big sync established, group lid 0x%x, latency %d, nse %d, bn %d, pto %d,
 116:C:/Users/stapi/OneDrive/Desktop/GD32VW553/GD32VW55X_Wifi_BLE_SDK/GD32VW55x_RELEASE_V1.0.2/MSDK/ble/app\app_iso_mgr.c ****                p_info->group_lid, p_info->tlatency_us, p_info->nse, p_info->bn, p_info->pto,
 117:C:/Users/stapi/OneDrive/Desktop/GD32VW553/GD32VW55X_Wifi_BLE_SDK/GD32VW55x_RELEASE_V1.0.2/MSDK/ble/app\app_iso_mgr.c ****                p_info->irc, p_info->max_pdu, p_info->iso_intv, p_info->bis_num);
 118:C:/Users/stapi/OneDrive/Desktop/GD32VW553/GD32VW55X_Wifi_BLE_SDK/GD32VW55x_RELEASE_V1.0.2/MSDK/ble/app\app_iso_mgr.c **** 
 119:C:/Users/stapi/OneDrive/Desktop/GD32VW553/GD32VW55X_Wifi_BLE_SDK/GD32VW55x_RELEASE_V1.0.2/MSDK/ble/app\app_iso_mgr.c ****         for (i = 0; i < p_info->bis_num; i++)
 120:C:/Users/stapi/OneDrive/Desktop/GD32VW553/GD32VW55X_Wifi_BLE_SDK/GD32VW55x_RELEASE_V1.0.2/MSDK/ble/app\app_iso_mgr.c ****             dbg_print(NOTICE, ", hdl[%d] 0x%x", i, p_info->p_conn_hdl[i]);
 121:C:/Users/stapi/OneDrive/Desktop/GD32VW553/GD32VW55X_Wifi_BLE_SDK/GD32VW55x_RELEASE_V1.0.2/MSDK/ble/app\app_iso_mgr.c **** 
 122:C:/Users/stapi/OneDrive/Desktop/GD32VW553/GD32VW55X_Wifi_BLE_SDK/GD32VW55x_RELEASE_V1.0.2/MSDK/ble/app\app_iso_mgr.c ****         dbg_print(NOTICE, "\r\n");
 123:C:/Users/stapi/OneDrive/Desktop/GD32VW553/GD32VW55X_Wifi_BLE_SDK/GD32VW55x_RELEASE_V1.0.2/MSDK/ble/app\app_iso_mgr.c ****     } break;
 124:C:/Users/stapi/OneDrive/Desktop/GD32VW553/GD32VW55X_Wifi_BLE_SDK/GD32VW55x_RELEASE_V1.0.2/MSDK/ble/app\app_iso_mgr.c **** 
 125:C:/Users/stapi/OneDrive/Desktop/GD32VW553/GD32VW55X_Wifi_BLE_SDK/GD32VW55x_RELEASE_V1.0.2/MSDK/ble/app\app_iso_mgr.c ****     case BLE_GAP_BIG_SYNC_STATUS_LOST:
 126:C:/Users/stapi/OneDrive/Desktop/GD32VW553/GD32VW55X_Wifi_BLE_SDK/GD32VW55x_RELEASE_V1.0.2/MSDK/ble/app\app_iso_mgr.c ****         dbg_print(NOTICE, "big sync lost, group lid 0x%x\r\n", p_info->group_lid);
 127:C:/Users/stapi/OneDrive/Desktop/GD32VW553/GD32VW55X_Wifi_BLE_SDK/GD32VW55x_RELEASE_V1.0.2/MSDK/ble/app\app_iso_mgr.c ****         break;
 128:C:/Users/stapi/OneDrive/Desktop/GD32VW553/GD32VW55X_Wifi_BLE_SDK/GD32VW55x_RELEASE_V1.0.2/MSDK/ble/app\app_iso_mgr.c **** 
 129:C:/Users/stapi/OneDrive/Desktop/GD32VW553/GD32VW55X_Wifi_BLE_SDK/GD32VW55x_RELEASE_V1.0.2/MSDK/ble/app\app_iso_mgr.c ****     case BLE_GAP_BIG_SYNC_STATUS_MIC_FAILURE:
 130:C:/Users/stapi/OneDrive/Desktop/GD32VW553/GD32VW55X_Wifi_BLE_SDK/GD32VW55x_RELEASE_V1.0.2/MSDK/ble/app\app_iso_mgr.c ****         dbg_print(NOTICE, "big sync mic failure, group lid 0x%x\r\n", p_info->group_lid);
 131:C:/Users/stapi/OneDrive/Desktop/GD32VW553/GD32VW55X_Wifi_BLE_SDK/GD32VW55x_RELEASE_V1.0.2/MSDK/ble/app\app_iso_mgr.c ****         break;
 132:C:/Users/stapi/OneDrive/Desktop/GD32VW553/GD32VW55X_Wifi_BLE_SDK/GD32VW55x_RELEASE_V1.0.2/MSDK/ble/app\app_iso_mgr.c **** 
 133:C:/Users/stapi/OneDrive/Desktop/GD32VW553/GD32VW55X_Wifi_BLE_SDK/GD32VW55x_RELEASE_V1.0.2/MSDK/ble/app\app_iso_mgr.c ****     case BLE_GAP_BIG_SYNC_STATUS_UPPER_TERMINATE:
 134:C:/Users/stapi/OneDrive/Desktop/GD32VW553/GD32VW55X_Wifi_BLE_SDK/GD32VW55x_RELEASE_V1.0.2/MSDK/ble/app\app_iso_mgr.c ****         dbg_print(NOTICE, "big sync local terminate, group lid 0x%x\r\n", p_info->group_lid);
 135:C:/Users/stapi/OneDrive/Desktop/GD32VW553/GD32VW55X_Wifi_BLE_SDK/GD32VW55x_RELEASE_V1.0.2/MSDK/ble/app\app_iso_mgr.c ****         break;
 136:C:/Users/stapi/OneDrive/Desktop/GD32VW553/GD32VW55X_Wifi_BLE_SDK/GD32VW55x_RELEASE_V1.0.2/MSDK/ble/app\app_iso_mgr.c **** 
 137:C:/Users/stapi/OneDrive/Desktop/GD32VW553/GD32VW55X_Wifi_BLE_SDK/GD32VW55x_RELEASE_V1.0.2/MSDK/ble/app\app_iso_mgr.c ****     case BLE_GAP_BIG_SYNC_STATUS_PEER_TERMINATE:
 138:C:/Users/stapi/OneDrive/Desktop/GD32VW553/GD32VW55X_Wifi_BLE_SDK/GD32VW55x_RELEASE_V1.0.2/MSDK/ble/app\app_iso_mgr.c ****         dbg_print(NOTICE, "big sync peer terminate, group lid 0x%x\r\n", p_info->group_lid);
 139:C:/Users/stapi/OneDrive/Desktop/GD32VW553/GD32VW55X_Wifi_BLE_SDK/GD32VW55x_RELEASE_V1.0.2/MSDK/ble/app\app_iso_mgr.c ****         break;
 140:C:/Users/stapi/OneDrive/Desktop/GD32VW553/GD32VW55X_Wifi_BLE_SDK/GD32VW55x_RELEASE_V1.0.2/MSDK/ble/app\app_iso_mgr.c **** 
 141:C:/Users/stapi/OneDrive/Desktop/GD32VW553/GD32VW55X_Wifi_BLE_SDK/GD32VW55x_RELEASE_V1.0.2/MSDK/ble/app\app_iso_mgr.c ****     default:
 142:C:/Users/stapi/OneDrive/Desktop/GD32VW553/GD32VW55X_Wifi_BLE_SDK/GD32VW55x_RELEASE_V1.0.2/MSDK/ble/app\app_iso_mgr.c ****         break;
 143:C:/Users/stapi/OneDrive/Desktop/GD32VW553/GD32VW55X_Wifi_BLE_SDK/GD32VW55x_RELEASE_V1.0.2/MSDK/ble/app\app_iso_mgr.c ****     }
 144:C:/Users/stapi/OneDrive/Desktop/GD32VW553/GD32VW55X_Wifi_BLE_SDK/GD32VW55x_RELEASE_V1.0.2/MSDK/ble/app\app_iso_mgr.c **** }
 145:C:/Users/stapi/OneDrive/Desktop/GD32VW553/GD32VW55X_Wifi_BLE_SDK/GD32VW55x_RELEASE_V1.0.2/MSDK/ble/app\app_iso_mgr.c **** 
 146:C:/Users/stapi/OneDrive/Desktop/GD32VW553/GD32VW55X_Wifi_BLE_SDK/GD32VW55x_RELEASE_V1.0.2/MSDK/ble/app\app_iso_mgr.c **** /*!
 147:C:/Users/stapi/OneDrive/Desktop/GD32VW553/GD32VW55X_Wifi_BLE_SDK/GD32VW55x_RELEASE_V1.0.2/MSDK/ble/app\app_iso_mgr.c ****     \brief      Callback function to handle @ref BLE_ISO_EVT_BIG_SYNC_INFO event
 148:C:/Users/stapi/OneDrive/Desktop/GD32VW553/GD32VW55X_Wifi_BLE_SDK/GD32VW55x_RELEASE_V1.0.2/MSDK/ble/app\app_iso_mgr.c ****     \param[in]  p_info: pointer to BIG sync added information
 149:C:/Users/stapi/OneDrive/Desktop/GD32VW553/GD32VW55X_Wifi_BLE_SDK/GD32VW55x_RELEASE_V1.0.2/MSDK/ble/app\app_iso_mgr.c ****     \param[out] none
 150:C:/Users/stapi/OneDrive/Desktop/GD32VW553/GD32VW55X_Wifi_BLE_SDK/GD32VW55x_RELEASE_V1.0.2/MSDK/ble/app\app_iso_mgr.c ****     \retval     none
 151:C:/Users/stapi/OneDrive/Desktop/GD32VW553/GD32VW55X_Wifi_BLE_SDK/GD32VW55x_RELEASE_V1.0.2/MSDK/ble/app\app_iso_mgr.c **** */
 152:C:/Users/stapi/OneDrive/Desktop/GD32VW553/GD32VW55X_Wifi_BLE_SDK/GD32VW55x_RELEASE_V1.0.2/MSDK/ble/app\app_iso_mgr.c **** void app_big_sync_info_hdlr(ble_gap_big_sync_added_info_t *p_info)
 153:C:/Users/stapi/OneDrive/Desktop/GD32VW553/GD32VW55X_Wifi_BLE_SDK/GD32VW55x_RELEASE_V1.0.2/MSDK/ble/app\app_iso_mgr.c **** {
  26              		.loc 1 153 1
  27              		.cfi_startproc
  28              	.LVL0:
  29 0000 17030000 		call	t0,__riscv_save_5
  29      E7020300 
  30              		.cfi_offset 20, -24
  31              		.cfi_offset 19, -20
  32              		.cfi_offset 18, -16
  33              		.cfi_offset 9, -12
  34              		.cfi_offset 8, -8
  35              		.cfi_offset 1, -4
  36              		.cfi_def_cfa_offset 32
 154:C:/Users/stapi/OneDrive/Desktop/GD32VW553/GD32VW55X_Wifi_BLE_SDK/GD32VW55x_RELEASE_V1.0.2/MSDK/ble/app\app_iso_mgr.c ****     uint8_t i = 0;
  37              		.loc 1 154 5
  38              	.LVL1:
 155:C:/Users/stapi/OneDrive/Desktop/GD32VW553/GD32VW55X_Wifi_BLE_SDK/GD32VW55x_RELEASE_V1.0.2/MSDK/ble/app\app_iso_mgr.c **** 
 156:C:/Users/stapi/OneDrive/Desktop/GD32VW553/GD32VW55X_Wifi_BLE_SDK/GD32VW55x_RELEASE_V1.0.2/MSDK/ble/app\app_iso_mgr.c ****     dbg_print(NOTICE, "big sync added, big handle 0x%x, group lid 0x%x, steam num %d",
  39              		.loc 1 156 5
  40              		.loc 1 156 5
  41 0008 B7070000 		lui	a5,%hi(global_debug_level)
  42 000c 83C60700 		lbu	a3,%lo(global_debug_level)(a5)
  43 0010 0947     		li	a4,2
 153:C:/Users/stapi/OneDrive/Desktop/GD32VW553/GD32VW55X_Wifi_BLE_SDK/GD32VW55x_RELEASE_V1.0.2/MSDK/ble/app\app_iso_mgr.c ****     uint8_t i = 0;
  44              		.loc 1 153 1 is_stmt 0
  45 0012 AA84     		mv	s1,a0
  46 0014 3E89     		mv	s2,a5
  47              		.loc 1 156 5
  48 0016 6370D702 		bleu	a3,a4,.L2
  49              		.loc 1 156 5 is_stmt 1 discriminator 1
  50 001a 83461500 		lbu	a3,1(a0)
  51 001e 03462500 		lbu	a2,2(a0)
  52 0022 83450500 		lbu	a1,0(a0)
  53 0026 37050000 		lui	a0,%hi(.LC0)
  54              	.LVL2:
  55 002a 13050500 		addi	a0,a0,%lo(.LC0)
  56 002e 97000000 		call	co_printf
  56      E7800000 
  57              	.LVL3:
  58              	.L2:
 153:C:/Users/stapi/OneDrive/Desktop/GD32VW553/GD32VW55X_Wifi_BLE_SDK/GD32VW55x_RELEASE_V1.0.2/MSDK/ble/app\app_iso_mgr.c ****     uint8_t i = 0;
  59              		.loc 1 153 1 is_stmt 0 discriminator 2
  60 0036 0144     		li	s0,0
 157:C:/Users/stapi/OneDrive/Desktop/GD32VW553/GD32VW55X_Wifi_BLE_SDK/GD32VW55x_RELEASE_V1.0.2/MSDK/ble/app\app_iso_mgr.c ****            p_info->big_handle, p_info->group_lid, p_info->stream_num);
 158:C:/Users/stapi/OneDrive/Desktop/GD32VW553/GD32VW55X_Wifi_BLE_SDK/GD32VW55x_RELEASE_V1.0.2/MSDK/ble/app\app_iso_mgr.c **** 
 159:C:/Users/stapi/OneDrive/Desktop/GD32VW553/GD32VW55X_Wifi_BLE_SDK/GD32VW55x_RELEASE_V1.0.2/MSDK/ble/app\app_iso_mgr.c ****     for (i = 0; i < p_info->stream_num; i++)
 160:C:/Users/stapi/OneDrive/Desktop/GD32VW553/GD32VW55X_Wifi_BLE_SDK/GD32VW55x_RELEASE_V1.0.2/MSDK/ble/app\app_iso_mgr.c ****         dbg_print(NOTICE, ", stream lid[%d] 0x%x", i, p_info->p_stream_lid[i]);
  61              		.loc 1 160 9 discriminator 2
  62 0038 8949     		li	s3,2
  63 003a 370A0000 		lui	s4,%hi(.LC1)
  64              	.LVL4:
  65              	.L3:
 159:C:/Users/stapi/OneDrive/Desktop/GD32VW553/GD32VW55X_Wifi_BLE_SDK/GD32VW55x_RELEASE_V1.0.2/MSDK/ble/app\app_iso_mgr.c ****         dbg_print(NOTICE, ", stream lid[%d] 0x%x", i, p_info->p_stream_lid[i]);
  66              		.loc 1 159 17 is_stmt 1 discriminator 2
 159:C:/Users/stapi/OneDrive/Desktop/GD32VW553/GD32VW55X_Wifi_BLE_SDK/GD32VW55x_RELEASE_V1.0.2/MSDK/ble/app\app_iso_mgr.c ****         dbg_print(NOTICE, ", stream lid[%d] 0x%x", i, p_info->p_stream_lid[i]);
  67              		.loc 1 159 5 is_stmt 0 discriminator 2
  68 003e 03C71400 		lbu	a4,1(s1)
  69              		.loc 1 160 9 discriminator 2
  70 0042 83470900 		lbu	a5,%lo(global_debug_level)(s2)
 159:C:/Users/stapi/OneDrive/Desktop/GD32VW553/GD32VW55X_Wifi_BLE_SDK/GD32VW55x_RELEASE_V1.0.2/MSDK/ble/app\app_iso_mgr.c ****         dbg_print(NOTICE, ", stream lid[%d] 0x%x", i, p_info->p_stream_lid[i]);
  71              		.loc 1 159 5 discriminator 2
  72 0046 6361E402 		bgtu	a4,s0,.L5
 161:C:/Users/stapi/OneDrive/Desktop/GD32VW553/GD32VW55X_Wifi_BLE_SDK/GD32VW55x_RELEASE_V1.0.2/MSDK/ble/app\app_iso_mgr.c **** 
 162:C:/Users/stapi/OneDrive/Desktop/GD32VW553/GD32VW55X_Wifi_BLE_SDK/GD32VW55x_RELEASE_V1.0.2/MSDK/ble/app\app_iso_mgr.c ****     dbg_print(NOTICE, "\r\n");
  73              		.loc 1 162 5 is_stmt 1
  74              		.loc 1 162 5
  75 004a 0947     		li	a4,2
  76 004c 637AF700 		bleu	a5,a4,.L1
  77              		.loc 1 162 5 discriminator 1
  78 0050 37050000 		lui	a0,%hi(.LC2)
  79 0054 13050500 		addi	a0,a0,%lo(.LC2)
  80 0058 97000000 		call	co_printf
  80      E7800000 
  81              	.LVL5:
  82              		.loc 1 162 5 discriminator 1
  83              	.L1:
 163:C:/Users/stapi/OneDrive/Desktop/GD32VW553/GD32VW55X_Wifi_BLE_SDK/GD32VW55x_RELEASE_V1.0.2/MSDK/ble/app\app_iso_mgr.c **** }
  84              		.loc 1 163 1 is_stmt 0
  85 0060 17030000 		tail	__riscv_restore_5
  85      67000300 
  86              		.cfi_remember_state
  87              		.cfi_restore 20
  88              		.cfi_restore 19
  89              		.cfi_restore 18
  90              		.cfi_restore 9
  91              		.cfi_restore 8
  92              		.cfi_restore 1
  93              		.cfi_def_cfa_offset 0
  94              	.L5:
  95              		.cfi_restore_state
 160:C:/Users/stapi/OneDrive/Desktop/GD32VW553/GD32VW55X_Wifi_BLE_SDK/GD32VW55x_RELEASE_V1.0.2/MSDK/ble/app\app_iso_mgr.c **** 
  96              		.loc 1 160 9 is_stmt 1
 160:C:/Users/stapi/OneDrive/Desktop/GD32VW553/GD32VW55X_Wifi_BLE_SDK/GD32VW55x_RELEASE_V1.0.2/MSDK/ble/app\app_iso_mgr.c **** 
  97              		.loc 1 160 9
  98 0068 63FDF900 		bleu	a5,s3,.L4
 160:C:/Users/stapi/OneDrive/Desktop/GD32VW553/GD32VW55X_Wifi_BLE_SDK/GD32VW55x_RELEASE_V1.0.2/MSDK/ble/app\app_iso_mgr.c **** 
  99              		.loc 1 160 9 discriminator 1
 100 006c DC40     		lw	a5,4(s1)
 101 006e A285     		mv	a1,s0
 102 0070 13050A00 		addi	a0,s4,%lo(.LC1)
 103 0074 A297     		add	a5,a5,s0
 104 0076 03C60700 		lbu	a2,0(a5)
 105 007a 97000000 		call	co_printf
 105      E7800000 
 106              	.LVL6:
 107              	.L4:
 160:C:/Users/stapi/OneDrive/Desktop/GD32VW553/GD32VW55X_Wifi_BLE_SDK/GD32VW55x_RELEASE_V1.0.2/MSDK/ble/app\app_iso_mgr.c **** 
 108              		.loc 1 160 9 discriminator 3
 159:C:/Users/stapi/OneDrive/Desktop/GD32VW553/GD32VW55X_Wifi_BLE_SDK/GD32VW55x_RELEASE_V1.0.2/MSDK/ble/app\app_iso_mgr.c ****         dbg_print(NOTICE, ", stream lid[%d] 0x%x", i, p_info->p_stream_lid[i]);
 109              		.loc 1 159 41 discriminator 3
 159:C:/Users/stapi/OneDrive/Desktop/GD32VW553/GD32VW55X_Wifi_BLE_SDK/GD32VW55x_RELEASE_V1.0.2/MSDK/ble/app\app_iso_mgr.c ****         dbg_print(NOTICE, ", stream lid[%d] 0x%x", i, p_info->p_stream_lid[i]);
 110              		.loc 1 159 42 is_stmt 0 discriminator 3
 111 0082 0504     		addi	s0,s0,1
 112              	.LVL7:
 113 0084 1374F40F 		andi	s0,s0,0xff
 114              	.LVL8:
 115 0088 5DBF     		j	.L3
 116              		.cfi_endproc
 117              	.LFE8:
 119              		.section	.rodata.app_cis_conn_info_hdlr.str1.4,"aMS",@progbits,1
 120              		.align	2
 121              	.LC3:
 122 0000 63697320 		.string	"cis conn est, group lid 0x%x, stream lid 0x%x, sync delay(cig %d, cis %d), latency(m2s %d
 122      636F6E6E 
 122      20657374 
 122      2C206772 
 122      6F757020 
 123              		.section	.text.app_cis_conn_info_hdlr,"ax",@progbits
 124              		.align	1
 125              		.globl	app_cis_conn_info_hdlr
 127              	app_cis_conn_info_hdlr:
 128              	.LFB10:
 164:C:/Users/stapi/OneDrive/Desktop/GD32VW553/GD32VW55X_Wifi_BLE_SDK/GD32VW55x_RELEASE_V1.0.2/MSDK/ble/app\app_iso_mgr.c **** #endif // (BLE_APP_BIS_SUPPORT)
 165:C:/Users/stapi/OneDrive/Desktop/GD32VW553/GD32VW55X_Wifi_BLE_SDK/GD32VW55x_RELEASE_V1.0.2/MSDK/ble/app\app_iso_mgr.c **** 
 166:C:/Users/stapi/OneDrive/Desktop/GD32VW553/GD32VW55X_Wifi_BLE_SDK/GD32VW55x_RELEASE_V1.0.2/MSDK/ble/app\app_iso_mgr.c **** #if (BLE_APP_CIS_SUPPORT)
 167:C:/Users/stapi/OneDrive/Desktop/GD32VW553/GD32VW55X_Wifi_BLE_SDK/GD32VW55x_RELEASE_V1.0.2/MSDK/ble/app\app_iso_mgr.c **** /*!
 168:C:/Users/stapi/OneDrive/Desktop/GD32VW553/GD32VW55X_Wifi_BLE_SDK/GD32VW55x_RELEASE_V1.0.2/MSDK/ble/app\app_iso_mgr.c ****     \brief      Callback function to handle @ref BLE_ISO_EVT_CIG_CREATE_FAIL event
 169:C:/Users/stapi/OneDrive/Desktop/GD32VW553/GD32VW55X_Wifi_BLE_SDK/GD32VW55x_RELEASE_V1.0.2/MSDK/ble/app\app_iso_mgr.c ****     \param[in]  p_info: pointer to CIS create fail information
 170:C:/Users/stapi/OneDrive/Desktop/GD32VW553/GD32VW55X_Wifi_BLE_SDK/GD32VW55x_RELEASE_V1.0.2/MSDK/ble/app\app_iso_mgr.c ****     \param[out] none
 171:C:/Users/stapi/OneDrive/Desktop/GD32VW553/GD32VW55X_Wifi_BLE_SDK/GD32VW55x_RELEASE_V1.0.2/MSDK/ble/app\app_iso_mgr.c ****     \retval     none
 172:C:/Users/stapi/OneDrive/Desktop/GD32VW553/GD32VW55X_Wifi_BLE_SDK/GD32VW55x_RELEASE_V1.0.2/MSDK/ble/app\app_iso_mgr.c **** */
 173:C:/Users/stapi/OneDrive/Desktop/GD32VW553/GD32VW55X_Wifi_BLE_SDK/GD32VW55x_RELEASE_V1.0.2/MSDK/ble/app\app_iso_mgr.c **** static void app_cig_create_fail_hdlr(ble_iso_create_fail_info_t *p_info)
 174:C:/Users/stapi/OneDrive/Desktop/GD32VW553/GD32VW55X_Wifi_BLE_SDK/GD32VW55x_RELEASE_V1.0.2/MSDK/ble/app\app_iso_mgr.c **** {
 175:C:/Users/stapi/OneDrive/Desktop/GD32VW553/GD32VW55X_Wifi_BLE_SDK/GD32VW55x_RELEASE_V1.0.2/MSDK/ble/app\app_iso_mgr.c ****     dbg_print(NOTICE, "cig create fail, status 0x%x\r\n", p_info->status);
 176:C:/Users/stapi/OneDrive/Desktop/GD32VW553/GD32VW55X_Wifi_BLE_SDK/GD32VW55x_RELEASE_V1.0.2/MSDK/ble/app\app_iso_mgr.c **** }
 177:C:/Users/stapi/OneDrive/Desktop/GD32VW553/GD32VW55X_Wifi_BLE_SDK/GD32VW55x_RELEASE_V1.0.2/MSDK/ble/app\app_iso_mgr.c **** 
 178:C:/Users/stapi/OneDrive/Desktop/GD32VW553/GD32VW55X_Wifi_BLE_SDK/GD32VW55x_RELEASE_V1.0.2/MSDK/ble/app\app_iso_mgr.c **** /*!
 179:C:/Users/stapi/OneDrive/Desktop/GD32VW553/GD32VW55X_Wifi_BLE_SDK/GD32VW55x_RELEASE_V1.0.2/MSDK/ble/app\app_iso_mgr.c ****     \brief      Callback function to handle @ref BLE_ISO_EVT_CIS_CONN_INFO event
 180:C:/Users/stapi/OneDrive/Desktop/GD32VW553/GD32VW55X_Wifi_BLE_SDK/GD32VW55x_RELEASE_V1.0.2/MSDK/ble/app\app_iso_mgr.c ****     \param[in]  p_info: pointer to CIS connection information
 181:C:/Users/stapi/OneDrive/Desktop/GD32VW553/GD32VW55X_Wifi_BLE_SDK/GD32VW55x_RELEASE_V1.0.2/MSDK/ble/app\app_iso_mgr.c ****     \param[out] none
 182:C:/Users/stapi/OneDrive/Desktop/GD32VW553/GD32VW55X_Wifi_BLE_SDK/GD32VW55x_RELEASE_V1.0.2/MSDK/ble/app\app_iso_mgr.c ****     \retval     none
 183:C:/Users/stapi/OneDrive/Desktop/GD32VW553/GD32VW55X_Wifi_BLE_SDK/GD32VW55x_RELEASE_V1.0.2/MSDK/ble/app\app_iso_mgr.c **** */
 184:C:/Users/stapi/OneDrive/Desktop/GD32VW553/GD32VW55X_Wifi_BLE_SDK/GD32VW55x_RELEASE_V1.0.2/MSDK/ble/app\app_iso_mgr.c **** void app_cis_conn_info_hdlr(ble_gap_cis_conn_info_t *p_info)
 185:C:/Users/stapi/OneDrive/Desktop/GD32VW553/GD32VW55X_Wifi_BLE_SDK/GD32VW55x_RELEASE_V1.0.2/MSDK/ble/app\app_iso_mgr.c **** {
 129              		.loc 1 185 1 is_stmt 1
 130              		.cfi_startproc
 131              	.LVL9:
 186:C:/Users/stapi/OneDrive/Desktop/GD32VW553/GD32VW55X_Wifi_BLE_SDK/GD32VW55x_RELEASE_V1.0.2/MSDK/ble/app\app_iso_mgr.c ****     dbg_print(NOTICE, "cis conn est, group lid 0x%x, stream lid 0x%x, sync delay(cig %d, cis %d), l
 132              		.loc 1 186 5
 133              		.loc 1 186 5
 134 0000 B7070000 		lui	a5,%hi(global_debug_level)
 135 0004 03C70700 		lbu	a4,%lo(global_debug_level)(a5)
 136 0008 8947     		li	a5,2
 137 000a 63FAE706 		bleu	a4,a5,.L11
 185:C:/Users/stapi/OneDrive/Desktop/GD32VW553/GD32VW55X_Wifi_BLE_SDK/GD32VW55x_RELEASE_V1.0.2/MSDK/ble/app\app_iso_mgr.c ****     dbg_print(NOTICE, "cis conn est, group lid 0x%x, stream lid 0x%x, sync delay(cig %d, cis %d), l
 138              		.loc 1 185 1 is_stmt 0
 139 000e 17030000 		call	t0,__riscv_save_0
 139      E7020300 
 140              		.cfi_offset 1, -4
 141              		.cfi_def_cfa_offset 16
 142              	.LVL10:
 143              	.LBB4:
 144              	.LBB5:
 145              		.loc 1 186 5 is_stmt 1
 146 0016 83570501 		lhu	a5,16(a0)
 147              	.LBE5:
 148              	.LBE4:
 185:C:/Users/stapi/OneDrive/Desktop/GD32VW553/GD32VW55X_Wifi_BLE_SDK/GD32VW55x_RELEASE_V1.0.2/MSDK/ble/app\app_iso_mgr.c ****     dbg_print(NOTICE, "cis conn est, group lid 0x%x, stream lid 0x%x, sync delay(cig %d, cis %d), l
 149              		.loc 1 185 1 is_stmt 0
 150 001a 7971     		addi	sp,sp,-48
 151              		.cfi_def_cfa_offset 64
 152              	.LBB7:
 153              	.LBB6:
 154              		.loc 1 186 5
 155 001c 3ED0     		sw	a5,32(sp)
 156 001e 83574501 		lhu	a5,20(a0)
 157 0022 3ECE     		sw	a5,28(sp)
 158 0024 83572501 		lhu	a5,18(a0)
 159 0028 3ECC     		sw	a5,24(sp)
 160 002a 8347B501 		lbu	a5,27(a0)
 161 002e 3ECA     		sw	a5,20(sp)
 162 0030 8347A501 		lbu	a5,26(a0)
 163 0034 3EC8     		sw	a5,16(sp)
 164 0036 83479501 		lbu	a5,25(a0)
 165 003a 3EC6     		sw	a5,12(sp)
 166 003c 83478501 		lbu	a5,24(a0)
 167 0040 3EC4     		sw	a5,8(sp)
 168 0042 8347C501 		lbu	a5,28(a0)
 169 0046 3EC2     		sw	a5,4(sp)
 170 0048 83477501 		lbu	a5,23(a0)
 171 004c 3EC0     		sw	a5,0(sp)
 172 004e 5841     		lw	a4,4(a0)
 173 0050 83486501 		lbu	a7,22(a0)
 174 0054 0328C500 		lw	a6,12(a0)
 175 0058 1C45     		lw	a5,8(a0)
 176 005a 03461500 		lbu	a2,1(a0)
 177 005e 83450500 		lbu	a1,0(a0)
 178 0062 37050000 		lui	a0,%hi(.LC3)
 179              	.LVL11:
 180 0066 BA86     		mv	a3,a4
 181 0068 13050500 		addi	a0,a0,%lo(.LC3)
 182 006c 97000000 		call	co_printf
 182      E7800000 
 183              	.LVL12:
 184              		.loc 1 186 5 is_stmt 1
 185              	.LBE6:
 186              	.LBE7:
 187              		.loc 1 186 5
 187:C:/Users/stapi/OneDrive/Desktop/GD32VW553/GD32VW55X_Wifi_BLE_SDK/GD32VW55x_RELEASE_V1.0.2/MSDK/ble/app\app_iso_mgr.c ****            p_info->group_lid, p_info->stream_lid, p_info->sync_delay_us, p_info->sync_delay_us,
 188:C:/Users/stapi/OneDrive/Desktop/GD32VW553/GD32VW55X_Wifi_BLE_SDK/GD32VW55x_RELEASE_V1.0.2/MSDK/ble/app\app_iso_mgr.c ****            p_info->tlatency_m2s_us, p_info->tlatency_s2m_us, p_info->phy_m2s, p_info->phy_s2m, p_in
 189:C:/Users/stapi/OneDrive/Desktop/GD32VW553/GD32VW55X_Wifi_BLE_SDK/GD32VW55x_RELEASE_V1.0.2/MSDK/ble/app\app_iso_mgr.c ****            p_info->bn_m2s, p_info->bn_s2m, p_info->ft_m2s, p_info->ft_s2m,
 190:C:/Users/stapi/OneDrive/Desktop/GD32VW553/GD32VW55X_Wifi_BLE_SDK/GD32VW55x_RELEASE_V1.0.2/MSDK/ble/app\app_iso_mgr.c ****            p_info->max_pdu_m2s, p_info->max_pdu_s2m, p_info->iso_intv_frames);
 191:C:/Users/stapi/OneDrive/Desktop/GD32VW553/GD32VW55X_Wifi_BLE_SDK/GD32VW55x_RELEASE_V1.0.2/MSDK/ble/app\app_iso_mgr.c **** }
 188              		.loc 1 191 1 is_stmt 0
 189 0074 4561     		addi	sp,sp,48
 190              		.cfi_def_cfa_offset 0
 191 0076 17030000 		tail	__riscv_restore_0
 191      67000300 
 192              		.cfi_restore 1
 193              		.cfi_def_cfa_offset -16
 194              	.LVL13:
 195              	.L11:
 196              		.cfi_def_cfa_offset 0
 197 007e 8280     		ret
 198              		.cfi_endproc
 199              	.LFE10:
 201              		.section	.rodata.app_cis_disconn_info_hdlr.str1.4,"aMS",@progbits,1
 202              		.align	2
 203              	.LC4:
 204 0000 63697320 		.string	"cis disconnected, stream lid 0x%x, reason 0x%x \r\n"
 204      64697363 
 204      6F6E6E65 
 204      63746564 
 204      2C207374 
 205              		.section	.text.app_cis_disconn_info_hdlr,"ax",@progbits
 206              		.align	1
 207              		.globl	app_cis_disconn_info_hdlr
 209              	app_cis_disconn_info_hdlr:
 210              	.LFB11:
 192:C:/Users/stapi/OneDrive/Desktop/GD32VW553/GD32VW55X_Wifi_BLE_SDK/GD32VW55x_RELEASE_V1.0.2/MSDK/ble/app\app_iso_mgr.c **** 
 193:C:/Users/stapi/OneDrive/Desktop/GD32VW553/GD32VW55X_Wifi_BLE_SDK/GD32VW55x_RELEASE_V1.0.2/MSDK/ble/app\app_iso_mgr.c **** /*!
 194:C:/Users/stapi/OneDrive/Desktop/GD32VW553/GD32VW55X_Wifi_BLE_SDK/GD32VW55x_RELEASE_V1.0.2/MSDK/ble/app\app_iso_mgr.c ****     \brief      Callback function to handle @ref BLE_ISO_EVT_CIS_DISCONN_INFO event
 195:C:/Users/stapi/OneDrive/Desktop/GD32VW553/GD32VW55X_Wifi_BLE_SDK/GD32VW55x_RELEASE_V1.0.2/MSDK/ble/app\app_iso_mgr.c ****     \param[in]  p_info: pointer to CIS disconnect information
 196:C:/Users/stapi/OneDrive/Desktop/GD32VW553/GD32VW55X_Wifi_BLE_SDK/GD32VW55x_RELEASE_V1.0.2/MSDK/ble/app\app_iso_mgr.c ****     \param[out] none
 197:C:/Users/stapi/OneDrive/Desktop/GD32VW553/GD32VW55X_Wifi_BLE_SDK/GD32VW55x_RELEASE_V1.0.2/MSDK/ble/app\app_iso_mgr.c ****     \retval     none
 198:C:/Users/stapi/OneDrive/Desktop/GD32VW553/GD32VW55X_Wifi_BLE_SDK/GD32VW55x_RELEASE_V1.0.2/MSDK/ble/app\app_iso_mgr.c **** */
 199:C:/Users/stapi/OneDrive/Desktop/GD32VW553/GD32VW55X_Wifi_BLE_SDK/GD32VW55x_RELEASE_V1.0.2/MSDK/ble/app\app_iso_mgr.c **** void app_cis_disconn_info_hdlr(ble_gap_cis_disconn_info_t *p_info)
 200:C:/Users/stapi/OneDrive/Desktop/GD32VW553/GD32VW55X_Wifi_BLE_SDK/GD32VW55x_RELEASE_V1.0.2/MSDK/ble/app\app_iso_mgr.c **** {
 211              		.loc 1 200 1 is_stmt 1
 212              		.cfi_startproc
 213              	.LVL14:
 201:C:/Users/stapi/OneDrive/Desktop/GD32VW553/GD32VW55X_Wifi_BLE_SDK/GD32VW55x_RELEASE_V1.0.2/MSDK/ble/app\app_iso_mgr.c ****     dbg_print(NOTICE, "cis disconnected, stream lid 0x%x, reason 0x%x \r\n", p_info->stream_lid, p_
 214              		.loc 1 201 5
 215              		.loc 1 201 5
 216 0000 B7070000 		lui	a5,%hi(global_debug_level)
 217 0004 03C70700 		lbu	a4,%lo(global_debug_level)(a5)
 218 0008 8947     		li	a5,2
 219 000a 63FEE700 		bleu	a4,a5,.L17
 220              	.LVL15:
 221              	.LBB10:
 222              	.LBB11:
 223              		.loc 1 201 5 discriminator 1
 224 000e 03461500 		lbu	a2,1(a0)
 225 0012 83450500 		lbu	a1,0(a0)
 226 0016 37050000 		lui	a0,%hi(.LC4)
 227              	.LVL16:
 228 001a 13050500 		addi	a0,a0,%lo(.LC4)
 229 001e 17030000 		tail	co_printf
 229      67000300 
 230              	.LVL17:
 231              	.LBE11:
 232              	.LBE10:
 233              		.loc 1 201 5 discriminator 1
 234              	.L17:
 235 0026 8280     		ret
 236              		.cfi_endproc
 237              	.LFE11:
 239              		.section	.rodata.app_iso_test_cnt_hdlr.str1.4,"aMS",@progbits,1
 240              		.align	2
 241              	.LC5:
 242 0000 69736F20 		.string	"iso test cnt, stream lid 0x%x, rcvd cnt %d, missed cnt %d, failed cnt %d\r\n"
 242      74657374 
 242      20636E74 
 242      2C207374 
 242      7265616D 
 243              		.section	.text.app_iso_test_cnt_hdlr,"ax",@progbits
 244              		.align	1
 245              		.globl	app_iso_test_cnt_hdlr
 247              	app_iso_test_cnt_hdlr:
 248              	.LFB12:
 202:C:/Users/stapi/OneDrive/Desktop/GD32VW553/GD32VW55X_Wifi_BLE_SDK/GD32VW55x_RELEASE_V1.0.2/MSDK/ble/app\app_iso_mgr.c **** }
 203:C:/Users/stapi/OneDrive/Desktop/GD32VW553/GD32VW55X_Wifi_BLE_SDK/GD32VW55x_RELEASE_V1.0.2/MSDK/ble/app\app_iso_mgr.c **** 
 204:C:/Users/stapi/OneDrive/Desktop/GD32VW553/GD32VW55X_Wifi_BLE_SDK/GD32VW55x_RELEASE_V1.0.2/MSDK/ble/app\app_iso_mgr.c **** /*!
 205:C:/Users/stapi/OneDrive/Desktop/GD32VW553/GD32VW55X_Wifi_BLE_SDK/GD32VW55x_RELEASE_V1.0.2/MSDK/ble/app\app_iso_mgr.c ****     \brief      Callback function to handle @ref BLE_ISO_EVT_ISO_TEST_CNT event
 206:C:/Users/stapi/OneDrive/Desktop/GD32VW553/GD32VW55X_Wifi_BLE_SDK/GD32VW55x_RELEASE_V1.0.2/MSDK/ble/app\app_iso_mgr.c ****     \param[in]  p_info: pointer to ISO test count information
 207:C:/Users/stapi/OneDrive/Desktop/GD32VW553/GD32VW55X_Wifi_BLE_SDK/GD32VW55x_RELEASE_V1.0.2/MSDK/ble/app\app_iso_mgr.c ****     \param[out] none
 208:C:/Users/stapi/OneDrive/Desktop/GD32VW553/GD32VW55X_Wifi_BLE_SDK/GD32VW55x_RELEASE_V1.0.2/MSDK/ble/app\app_iso_mgr.c ****     \retval     none
 209:C:/Users/stapi/OneDrive/Desktop/GD32VW553/GD32VW55X_Wifi_BLE_SDK/GD32VW55x_RELEASE_V1.0.2/MSDK/ble/app\app_iso_mgr.c **** */
 210:C:/Users/stapi/OneDrive/Desktop/GD32VW553/GD32VW55X_Wifi_BLE_SDK/GD32VW55x_RELEASE_V1.0.2/MSDK/ble/app\app_iso_mgr.c **** void app_iso_test_cnt_hdlr(ble_gap_iso_test_cnt_info_t *p_info)
 211:C:/Users/stapi/OneDrive/Desktop/GD32VW553/GD32VW55X_Wifi_BLE_SDK/GD32VW55x_RELEASE_V1.0.2/MSDK/ble/app\app_iso_mgr.c **** {
 249              		.loc 1 211 1
 250              		.cfi_startproc
 251              	.LVL18:
 212:C:/Users/stapi/OneDrive/Desktop/GD32VW553/GD32VW55X_Wifi_BLE_SDK/GD32VW55x_RELEASE_V1.0.2/MSDK/ble/app\app_iso_mgr.c ****     dbg_print(NOTICE, "iso test cnt, stream lid 0x%x, rcvd cnt %d, missed cnt %d, failed cnt %d\r\n
 252              		.loc 1 212 5
 253              		.loc 1 212 5
 254 0000 B7070000 		lui	a5,%hi(global_debug_level)
 255 0004 03C70700 		lbu	a4,%lo(global_debug_level)(a5)
 256 0008 8947     		li	a5,2
 257 000a 63FFE700 		bleu	a4,a5,.L23
 258              	.LVL19:
 259              	.LBB14:
 260              	.LBB15:
 261              		.loc 1 212 5
 262 000e 5845     		lw	a4,12(a0)
 263 0010 1445     		lw	a3,8(a0)
 264 0012 5041     		lw	a2,4(a0)
 265 0014 83450500 		lbu	a1,0(a0)
 266 0018 37050000 		lui	a0,%hi(.LC5)
 267              	.LVL20:
 268 001c 13050500 		addi	a0,a0,%lo(.LC5)
 269 0020 17030000 		tail	co_printf
 269      67000300 
 270              	.LVL21:
 271              		.loc 1 212 5
 272              	.LBE15:
 273              	.LBE14:
 274              		.loc 1 212 5
 275              	.L23:
 276 0028 8280     		ret
 277              		.cfi_endproc
 278              	.LFE12:
 280              		.section	.rodata.app_iso_callback.str1.4,"aMS",@progbits,1
 281              		.align	2
 282              	.LC6:
 283 0000 62696720 		.string	"big info rcvd, sdu int:%d, iso int %d, pdu %d, sdu %d, bis num %d, se num %d, bn %d, pto 
 283      696E666F 
 283      20726376 
 283      642C2073 
 283      64752069 
 284 0086 0000     		.align	2
 285              	.LC7:
 286 0088 62696720 		.string	"big create fail, status 0x%x\r\n"
 286      63726561 
 286      74652066 
 286      61696C2C 
 286      20737461 
 287 00a7 00       		.align	2
 288              	.LC8:
 289 00a8 62696720 		.string	"big create success, group lid 0x%x, sync delay %d, latency %d, phy %d, nse %d, bn %d, pto
 289      63726561 
 289      74652073 
 289      75636365 
 289      73732C20 
 290 012e 0000     		.align	2
 291              	.LC9:
 292 0130 2C206864 		.string	", hdl[%d] 0x%x"
 292      6C5B2564 
 292      5D203078 
 292      257800
 293 013f 00       		.align	2
 294              	.LC10:
 295 0140 62696720 		.string	"big sync established, group lid 0x%x, latency %d, nse %d, bn %d, pto %d, irc %d, max pdu 
 295      73796E63 
 295      20657374 
 295      61626C69 
 295      73686564 
 296 01b1 000000   		.align	2
 297              	.LC11:
 298 01b4 62696720 		.string	"big sync lost, group lid 0x%x\r\n"
 298      73796E63 
 298      206C6F73 
 298      742C2067 
 298      726F7570 
 299              		.align	2
 300              	.LC12:
 301 01d4 62696720 		.string	"big sync mic failure, group lid 0x%x\r\n"
 301      73796E63 
 301      206D6963 
 301      20666169 
 301      6C757265 
 302 01fb 00       		.align	2
 303              	.LC13:
 304 01fc 62696720 		.string	"big sync local terminate, group lid 0x%x\r\n"
 304      73796E63 
 304      206C6F63 
 304      616C2074 
 304      65726D69 
 305 0227 00       		.align	2
 306              	.LC14:
 307 0228 62696720 		.string	"big sync peer terminate, group lid 0x%x\r\n"
 307      73796E63 
 307      20706565 
 307      72207465 
 307      726D696E 
 308 0252 0000     		.align	2
 309              	.LC15:
 310 0254 63696720 		.string	"cig create fail, status 0x%x\r\n"
 310      63726561 
 310      74652066 
 310      61696C2C 
 310      20737461 
 311              		.section	.text.app_iso_callback,"ax",@progbits
 312              		.align	1
 313              		.globl	app_iso_callback
 315              	app_iso_callback:
 316              	.LFB13:
 213:C:/Users/stapi/OneDrive/Desktop/GD32VW553/GD32VW55X_Wifi_BLE_SDK/GD32VW55x_RELEASE_V1.0.2/MSDK/ble/app\app_iso_mgr.c ****            p_info->stream_lid, p_info->rx_pkt_num, p_info->miss_pkt_num, p_info->fail_pkt_num);
 214:C:/Users/stapi/OneDrive/Desktop/GD32VW553/GD32VW55X_Wifi_BLE_SDK/GD32VW55x_RELEASE_V1.0.2/MSDK/ble/app\app_iso_mgr.c **** }
 215:C:/Users/stapi/OneDrive/Desktop/GD32VW553/GD32VW55X_Wifi_BLE_SDK/GD32VW55x_RELEASE_V1.0.2/MSDK/ble/app\app_iso_mgr.c **** #endif // (BLE_APP_CIS_SUPPORT)
 216:C:/Users/stapi/OneDrive/Desktop/GD32VW553/GD32VW55X_Wifi_BLE_SDK/GD32VW55x_RELEASE_V1.0.2/MSDK/ble/app\app_iso_mgr.c **** 
 217:C:/Users/stapi/OneDrive/Desktop/GD32VW553/GD32VW55X_Wifi_BLE_SDK/GD32VW55x_RELEASE_V1.0.2/MSDK/ble/app\app_iso_mgr.c **** /*!
 218:C:/Users/stapi/OneDrive/Desktop/GD32VW553/GD32VW55X_Wifi_BLE_SDK/GD32VW55x_RELEASE_V1.0.2/MSDK/ble/app\app_iso_mgr.c ****     \brief      Callback function to handle ISO events
 219:C:/Users/stapi/OneDrive/Desktop/GD32VW553/GD32VW55X_Wifi_BLE_SDK/GD32VW55x_RELEASE_V1.0.2/MSDK/ble/app\app_iso_mgr.c ****     \param[in]  event: ISO event type
 220:C:/Users/stapi/OneDrive/Desktop/GD32VW553/GD32VW55X_Wifi_BLE_SDK/GD32VW55x_RELEASE_V1.0.2/MSDK/ble/app\app_iso_mgr.c ****     \param[in]  p_data: pointer to ISO event data
 221:C:/Users/stapi/OneDrive/Desktop/GD32VW553/GD32VW55X_Wifi_BLE_SDK/GD32VW55x_RELEASE_V1.0.2/MSDK/ble/app\app_iso_mgr.c ****     \param[out] none
 222:C:/Users/stapi/OneDrive/Desktop/GD32VW553/GD32VW55X_Wifi_BLE_SDK/GD32VW55x_RELEASE_V1.0.2/MSDK/ble/app\app_iso_mgr.c ****     \retval     none
 223:C:/Users/stapi/OneDrive/Desktop/GD32VW553/GD32VW55X_Wifi_BLE_SDK/GD32VW55x_RELEASE_V1.0.2/MSDK/ble/app\app_iso_mgr.c **** */
 224:C:/Users/stapi/OneDrive/Desktop/GD32VW553/GD32VW55X_Wifi_BLE_SDK/GD32VW55x_RELEASE_V1.0.2/MSDK/ble/app\app_iso_mgr.c **** void app_iso_callback(ble_iso_evt_t event, void *p_data)
 225:C:/Users/stapi/OneDrive/Desktop/GD32VW553/GD32VW55X_Wifi_BLE_SDK/GD32VW55x_RELEASE_V1.0.2/MSDK/ble/app\app_iso_mgr.c **** {
 317              		.loc 1 225 1
 318              		.cfi_startproc
 319              	.LVL22:
 226:C:/Users/stapi/OneDrive/Desktop/GD32VW553/GD32VW55X_Wifi_BLE_SDK/GD32VW55x_RELEASE_V1.0.2/MSDK/ble/app\app_iso_mgr.c ****     switch (event) {
 320              		.loc 1 226 5
 321 0000 A947     		li	a5,10
 322 0002 63EBA728 		bgtu	a0,a5,.L56
 225:C:/Users/stapi/OneDrive/Desktop/GD32VW553/GD32VW55X_Wifi_BLE_SDK/GD32VW55x_RELEASE_V1.0.2/MSDK/ble/app\app_iso_mgr.c ****     switch (event) {
 323              		.loc 1 225 1 is_stmt 0
 324 0006 17030000 		call	t0,__riscv_save_5
 324      E7020300 
 325              		.cfi_offset 20, -24
 326              		.cfi_offset 19, -20
 327              		.cfi_offset 18, -16
 328              		.cfi_offset 9, -12
 329              		.cfi_offset 8, -8
 330              		.cfi_offset 1, -4
 331              		.cfi_def_cfa_offset 32
 332 000e B7070000 		lui	a5,%hi(.L29)
 333 0012 93870700 		addi	a5,a5,%lo(.L29)
 334 0016 3345F520 		sh2add	a0,a0,a5
 335              	.LVL23:
 336 001a 1C41     		lw	a5,0(a0)
 337 001c 0111     		addi	sp,sp,-32
 338              		.cfi_def_cfa_offset 64
 339 001e 2E84     		mv	s0,a1
 340 0020 8287     		jr	a5
 341              		.section	.rodata.app_iso_callback,"a",@progbits
 342              		.align	2
 343              		.align	2
 344              	.L29:
 345 0000 00000000 		.word	.L37
 346 0004 00000000 		.word	.L36
 347 0008 00000000 		.word	.L26
 348 000c 00000000 		.word	.L35
 349 0010 00000000 		.word	.L34
 350 0014 00000000 		.word	.L33
 351 0018 00000000 		.word	.L32
 352 001c 00000000 		.word	.L26
 353 0020 00000000 		.word	.L31
 354 0024 00000000 		.word	.L30
 355 0028 00000000 		.word	.L28
 356              		.section	.text.app_iso_callback
 357              	.L37:
 227:C:/Users/stapi/OneDrive/Desktop/GD32VW553/GD32VW55X_Wifi_BLE_SDK/GD32VW55x_RELEASE_V1.0.2/MSDK/ble/app\app_iso_mgr.c ****     #if (BLE_APP_BIS_SUPPORT)
 228:C:/Users/stapi/OneDrive/Desktop/GD32VW553/GD32VW55X_Wifi_BLE_SDK/GD32VW55x_RELEASE_V1.0.2/MSDK/ble/app\app_iso_mgr.c ****     case BLE_ISO_EVT_BIG_INFO_RX:
 229:C:/Users/stapi/OneDrive/Desktop/GD32VW553/GD32VW55X_Wifi_BLE_SDK/GD32VW55x_RELEASE_V1.0.2/MSDK/ble/app\app_iso_mgr.c ****         app_big_info_rx_hdlr((ble_gap_big_info_t *)p_data);
 358              		.loc 1 229 9 is_stmt 1
 359              	.LVL24:
 360              	.LBB27:
 361              	.LBB28:
  66:C:/Users/stapi/OneDrive/Desktop/GD32VW553/GD32VW55X_Wifi_BLE_SDK/GD32VW55x_RELEASE_V1.0.2/MSDK/ble/app\app_iso_mgr.c ****            p_info->sdu_interval, p_info->iso_interval, p_info->max_pdu,
 362              		.loc 1 66 5
  66:C:/Users/stapi/OneDrive/Desktop/GD32VW553/GD32VW55X_Wifi_BLE_SDK/GD32VW55x_RELEASE_V1.0.2/MSDK/ble/app\app_iso_mgr.c ****            p_info->sdu_interval, p_info->iso_interval, p_info->max_pdu,
 363              		.loc 1 66 5
 364 0022 B7070000 		lui	a5,%hi(global_debug_level)
 365 0026 03C70700 		lbu	a4,%lo(global_debug_level)(a5)
 366 002a 8947     		li	a5,2
 367 002c 63F6E704 		bleu	a4,a5,.L26
  66:C:/Users/stapi/OneDrive/Desktop/GD32VW553/GD32VW55X_Wifi_BLE_SDK/GD32VW55x_RELEASE_V1.0.2/MSDK/ble/app\app_iso_mgr.c ****            p_info->sdu_interval, p_info->iso_interval, p_info->max_pdu,
 368              		.loc 1 66 5
 369 0030 83C71501 		lbu	a5,17(a1)
 370 0034 37050000 		lui	a0,%hi(.LC6)
 371 0038 13050500 		addi	a0,a0,%lo(.LC6)
 372 003c 3EC8     		sw	a5,16(sp)
 373 003e 83C70501 		lbu	a5,16(a1)
 374 0042 3EC6     		sw	a5,12(sp)
 375 0044 83C7F500 		lbu	a5,15(a1)
 376 0048 3EC4     		sw	a5,8(sp)
 377 004a 83C7E500 		lbu	a5,14(a1)
 378 004e 3EC2     		sw	a5,4(sp)
 379 0050 83C7D500 		lbu	a5,13(a1)
 380 0054 3EC0     		sw	a5,0(sp)
 381 0056 83C8C500 		lbu	a7,12(a1)
 382 005a 03C8B500 		lbu	a6,11(a1)
 383 005e 83C7A500 		lbu	a5,10(a1)
 384 0062 03D78500 		lhu	a4,8(a1)
 385 0066 83D66500 		lhu	a3,6(a1)
 386 006a 03D64500 		lhu	a2,4(a1)
 387 006e 8C41     		lw	a1,0(a1)
 388              	.LVL25:
 389 0070 97000000 		call	co_printf
 389      E7800000 
 390              	.LVL26:
 391              	.L26:
 392              	.LBE28:
 393              	.LBE27:
 230:C:/Users/stapi/OneDrive/Desktop/GD32VW553/GD32VW55X_Wifi_BLE_SDK/GD32VW55x_RELEASE_V1.0.2/MSDK/ble/app\app_iso_mgr.c ****         break;
 231:C:/Users/stapi/OneDrive/Desktop/GD32VW553/GD32VW55X_Wifi_BLE_SDK/GD32VW55x_RELEASE_V1.0.2/MSDK/ble/app\app_iso_mgr.c **** 
 232:C:/Users/stapi/OneDrive/Desktop/GD32VW553/GD32VW55X_Wifi_BLE_SDK/GD32VW55x_RELEASE_V1.0.2/MSDK/ble/app\app_iso_mgr.c ****     case BLE_ISO_EVT_BIG_CREATE_FAIL:
 233:C:/Users/stapi/OneDrive/Desktop/GD32VW553/GD32VW55X_Wifi_BLE_SDK/GD32VW55x_RELEASE_V1.0.2/MSDK/ble/app\app_iso_mgr.c ****         app_big_create_fail_hdlr((ble_iso_create_fail_info_t *)p_data);
 234:C:/Users/stapi/OneDrive/Desktop/GD32VW553/GD32VW55X_Wifi_BLE_SDK/GD32VW55x_RELEASE_V1.0.2/MSDK/ble/app\app_iso_mgr.c ****         break;
 235:C:/Users/stapi/OneDrive/Desktop/GD32VW553/GD32VW55X_Wifi_BLE_SDK/GD32VW55x_RELEASE_V1.0.2/MSDK/ble/app\app_iso_mgr.c **** 
 236:C:/Users/stapi/OneDrive/Desktop/GD32VW553/GD32VW55X_Wifi_BLE_SDK/GD32VW55x_RELEASE_V1.0.2/MSDK/ble/app\app_iso_mgr.c ****     case BLE_ISO_EVT_BIG_CREATE_INFO:
 237:C:/Users/stapi/OneDrive/Desktop/GD32VW553/GD32VW55X_Wifi_BLE_SDK/GD32VW55x_RELEASE_V1.0.2/MSDK/ble/app\app_iso_mgr.c ****         app_big_create_info_hdlr((ble_gap_big_create_info_t *)p_data);
 238:C:/Users/stapi/OneDrive/Desktop/GD32VW553/GD32VW55X_Wifi_BLE_SDK/GD32VW55x_RELEASE_V1.0.2/MSDK/ble/app\app_iso_mgr.c ****         break;
 239:C:/Users/stapi/OneDrive/Desktop/GD32VW553/GD32VW55X_Wifi_BLE_SDK/GD32VW55x_RELEASE_V1.0.2/MSDK/ble/app\app_iso_mgr.c **** 
 240:C:/Users/stapi/OneDrive/Desktop/GD32VW553/GD32VW55X_Wifi_BLE_SDK/GD32VW55x_RELEASE_V1.0.2/MSDK/ble/app\app_iso_mgr.c ****     case BLE_ISO_EVT_BIG_SYNC_STATUS:
 241:C:/Users/stapi/OneDrive/Desktop/GD32VW553/GD32VW55X_Wifi_BLE_SDK/GD32VW55x_RELEASE_V1.0.2/MSDK/ble/app\app_iso_mgr.c ****         app_big_sync_status_hdlr((ble_gap_big_sync_status_info_t *)p_data);
 242:C:/Users/stapi/OneDrive/Desktop/GD32VW553/GD32VW55X_Wifi_BLE_SDK/GD32VW55x_RELEASE_V1.0.2/MSDK/ble/app\app_iso_mgr.c ****         break;
 243:C:/Users/stapi/OneDrive/Desktop/GD32VW553/GD32VW55X_Wifi_BLE_SDK/GD32VW55x_RELEASE_V1.0.2/MSDK/ble/app\app_iso_mgr.c **** 
 244:C:/Users/stapi/OneDrive/Desktop/GD32VW553/GD32VW55X_Wifi_BLE_SDK/GD32VW55x_RELEASE_V1.0.2/MSDK/ble/app\app_iso_mgr.c ****     case BLE_ISO_EVT_BIG_SYNC_INFO:
 245:C:/Users/stapi/OneDrive/Desktop/GD32VW553/GD32VW55X_Wifi_BLE_SDK/GD32VW55x_RELEASE_V1.0.2/MSDK/ble/app\app_iso_mgr.c ****         app_big_sync_info_hdlr((ble_gap_big_sync_added_info_t *)p_data);
 246:C:/Users/stapi/OneDrive/Desktop/GD32VW553/GD32VW55X_Wifi_BLE_SDK/GD32VW55x_RELEASE_V1.0.2/MSDK/ble/app\app_iso_mgr.c ****         break;
 247:C:/Users/stapi/OneDrive/Desktop/GD32VW553/GD32VW55X_Wifi_BLE_SDK/GD32VW55x_RELEASE_V1.0.2/MSDK/ble/app\app_iso_mgr.c ****     #endif  // (BLE_APP_BIS_SUPPORT)
 248:C:/Users/stapi/OneDrive/Desktop/GD32VW553/GD32VW55X_Wifi_BLE_SDK/GD32VW55x_RELEASE_V1.0.2/MSDK/ble/app\app_iso_mgr.c **** 
 249:C:/Users/stapi/OneDrive/Desktop/GD32VW553/GD32VW55X_Wifi_BLE_SDK/GD32VW55x_RELEASE_V1.0.2/MSDK/ble/app\app_iso_mgr.c ****     #if (BLE_APP_CIS_SUPPORT)
 250:C:/Users/stapi/OneDrive/Desktop/GD32VW553/GD32VW55X_Wifi_BLE_SDK/GD32VW55x_RELEASE_V1.0.2/MSDK/ble/app\app_iso_mgr.c ****     case BLE_ISO_EVT_CIG_CREATE_FAIL:
 251:C:/Users/stapi/OneDrive/Desktop/GD32VW553/GD32VW55X_Wifi_BLE_SDK/GD32VW55x_RELEASE_V1.0.2/MSDK/ble/app\app_iso_mgr.c ****         app_cig_create_fail_hdlr((ble_iso_create_fail_info_t *)p_data);
 252:C:/Users/stapi/OneDrive/Desktop/GD32VW553/GD32VW55X_Wifi_BLE_SDK/GD32VW55x_RELEASE_V1.0.2/MSDK/ble/app\app_iso_mgr.c ****         break;
 253:C:/Users/stapi/OneDrive/Desktop/GD32VW553/GD32VW55X_Wifi_BLE_SDK/GD32VW55x_RELEASE_V1.0.2/MSDK/ble/app\app_iso_mgr.c **** 
 254:C:/Users/stapi/OneDrive/Desktop/GD32VW553/GD32VW55X_Wifi_BLE_SDK/GD32VW55x_RELEASE_V1.0.2/MSDK/ble/app\app_iso_mgr.c ****     case BLE_ISO_EVT_CIS_CONN_INFO:
 255:C:/Users/stapi/OneDrive/Desktop/GD32VW553/GD32VW55X_Wifi_BLE_SDK/GD32VW55x_RELEASE_V1.0.2/MSDK/ble/app\app_iso_mgr.c ****         app_cis_conn_info_hdlr((ble_gap_cis_conn_info_t *)p_data);
 256:C:/Users/stapi/OneDrive/Desktop/GD32VW553/GD32VW55X_Wifi_BLE_SDK/GD32VW55x_RELEASE_V1.0.2/MSDK/ble/app\app_iso_mgr.c ****         break;
 257:C:/Users/stapi/OneDrive/Desktop/GD32VW553/GD32VW55X_Wifi_BLE_SDK/GD32VW55x_RELEASE_V1.0.2/MSDK/ble/app\app_iso_mgr.c **** 
 258:C:/Users/stapi/OneDrive/Desktop/GD32VW553/GD32VW55X_Wifi_BLE_SDK/GD32VW55x_RELEASE_V1.0.2/MSDK/ble/app\app_iso_mgr.c ****     case BLE_ISO_EVT_CIS_DISCONN_INFO:
 259:C:/Users/stapi/OneDrive/Desktop/GD32VW553/GD32VW55X_Wifi_BLE_SDK/GD32VW55x_RELEASE_V1.0.2/MSDK/ble/app\app_iso_mgr.c ****         app_cis_disconn_info_hdlr((ble_gap_cis_disconn_info_t *)p_data);
 260:C:/Users/stapi/OneDrive/Desktop/GD32VW553/GD32VW55X_Wifi_BLE_SDK/GD32VW55x_RELEASE_V1.0.2/MSDK/ble/app\app_iso_mgr.c ****         break;
 261:C:/Users/stapi/OneDrive/Desktop/GD32VW553/GD32VW55X_Wifi_BLE_SDK/GD32VW55x_RELEASE_V1.0.2/MSDK/ble/app\app_iso_mgr.c ****     #endif  // (BLE_APP_CIS_SUPPORT)
 262:C:/Users/stapi/OneDrive/Desktop/GD32VW553/GD32VW55X_Wifi_BLE_SDK/GD32VW55x_RELEASE_V1.0.2/MSDK/ble/app\app_iso_mgr.c **** 
 263:C:/Users/stapi/OneDrive/Desktop/GD32VW553/GD32VW55X_Wifi_BLE_SDK/GD32VW55x_RELEASE_V1.0.2/MSDK/ble/app\app_iso_mgr.c ****     case BLE_ISO_EVT_ISO_TEST_CNT:
 264:C:/Users/stapi/OneDrive/Desktop/GD32VW553/GD32VW55X_Wifi_BLE_SDK/GD32VW55x_RELEASE_V1.0.2/MSDK/ble/app\app_iso_mgr.c ****         app_iso_test_cnt_hdlr((ble_gap_iso_test_cnt_info_t *)p_data);
 265:C:/Users/stapi/OneDrive/Desktop/GD32VW553/GD32VW55X_Wifi_BLE_SDK/GD32VW55x_RELEASE_V1.0.2/MSDK/ble/app\app_iso_mgr.c ****         break;
 266:C:/Users/stapi/OneDrive/Desktop/GD32VW553/GD32VW55X_Wifi_BLE_SDK/GD32VW55x_RELEASE_V1.0.2/MSDK/ble/app\app_iso_mgr.c **** 
 267:C:/Users/stapi/OneDrive/Desktop/GD32VW553/GD32VW55X_Wifi_BLE_SDK/GD32VW55x_RELEASE_V1.0.2/MSDK/ble/app\app_iso_mgr.c ****     default:
 268:C:/Users/stapi/OneDrive/Desktop/GD32VW553/GD32VW55X_Wifi_BLE_SDK/GD32VW55x_RELEASE_V1.0.2/MSDK/ble/app\app_iso_mgr.c ****         break;
 269:C:/Users/stapi/OneDrive/Desktop/GD32VW553/GD32VW55X_Wifi_BLE_SDK/GD32VW55x_RELEASE_V1.0.2/MSDK/ble/app\app_iso_mgr.c ****     }
 270:C:/Users/stapi/OneDrive/Desktop/GD32VW553/GD32VW55X_Wifi_BLE_SDK/GD32VW55x_RELEASE_V1.0.2/MSDK/ble/app\app_iso_mgr.c **** }
 394              		.loc 1 270 1 is_stmt 0
 395 0078 0561     		addi	sp,sp,32
 396              		.cfi_remember_state
 397              		.cfi_def_cfa_offset 0
 398 007a 17030000 		tail	__riscv_restore_5
 398      67000300 
 399              		.cfi_restore 20
 400              		.cfi_restore 19
 401              		.cfi_restore 18
 402              		.cfi_restore 9
 403              		.cfi_restore 8
 404              		.cfi_restore 1
 405              		.cfi_def_cfa_offset -32
 406              	.L36:
 407              		.cfi_restore_state
 233:C:/Users/stapi/OneDrive/Desktop/GD32VW553/GD32VW55X_Wifi_BLE_SDK/GD32VW55x_RELEASE_V1.0.2/MSDK/ble/app\app_iso_mgr.c ****         break;
 408              		.loc 1 233 9 is_stmt 1
 409              	.LVL27:
 410              	.LBB29:
 411              	.LBB30:
  81:C:/Users/stapi/OneDrive/Desktop/GD32VW553/GD32VW55X_Wifi_BLE_SDK/GD32VW55x_RELEASE_V1.0.2/MSDK/ble/app\app_iso_mgr.c **** }
 412              		.loc 1 81 5
  81:C:/Users/stapi/OneDrive/Desktop/GD32VW553/GD32VW55X_Wifi_BLE_SDK/GD32VW55x_RELEASE_V1.0.2/MSDK/ble/app\app_iso_mgr.c **** }
 413              		.loc 1 81 5
 414 0082 B7070000 		lui	a5,%hi(global_debug_level)
 415 0086 03C70700 		lbu	a4,%lo(global_debug_level)(a5)
 416 008a 8947     		li	a5,2
 417 008c E3F6E7FE 		bleu	a4,a5,.L26
  81:C:/Users/stapi/OneDrive/Desktop/GD32VW553/GD32VW55X_Wifi_BLE_SDK/GD32VW55x_RELEASE_V1.0.2/MSDK/ble/app\app_iso_mgr.c **** }
 418              		.loc 1 81 5
 419 0090 83D50500 		lhu	a1,0(a1)
 420 0094 37050000 		lui	a0,%hi(.LC7)
 421 0098 13050500 		addi	a0,a0,%lo(.LC7)
 422              	.LVL28:
 423              	.L61:
 424              	.LBE30:
 425              	.LBE29:
 426              	.LBB31:
 427              	.LBB32:
 175:C:/Users/stapi/OneDrive/Desktop/GD32VW553/GD32VW55X_Wifi_BLE_SDK/GD32VW55x_RELEASE_V1.0.2/MSDK/ble/app\app_iso_mgr.c **** }
 428              		.loc 1 175 5 is_stmt 0
 429 009c 97000000 		call	co_printf
 429      E7800000 
 430              	.LVL29:
 431 00a4 D1BF     		j	.L26
 432              	.L35:
 433              	.LBE32:
 434              	.LBE31:
 237:C:/Users/stapi/OneDrive/Desktop/GD32VW553/GD32VW55X_Wifi_BLE_SDK/GD32VW55x_RELEASE_V1.0.2/MSDK/ble/app\app_iso_mgr.c ****         break;
 435              		.loc 1 237 9 is_stmt 1
 436              	.LVL30:
 437              	.LBB34:
 438              	.LBB35:
  92:C:/Users/stapi/OneDrive/Desktop/GD32VW553/GD32VW55X_Wifi_BLE_SDK/GD32VW55x_RELEASE_V1.0.2/MSDK/ble/app\app_iso_mgr.c **** 
 439              		.loc 1 92 5
  94:C:/Users/stapi/OneDrive/Desktop/GD32VW553/GD32VW55X_Wifi_BLE_SDK/GD32VW55x_RELEASE_V1.0.2/MSDK/ble/app\app_iso_mgr.c ****             p_info->group_lid, p_info->sync_delay_us, p_info->tlatency_us, p_info->phy, p_info->nse
 440              		.loc 1 94 5
  94:C:/Users/stapi/OneDrive/Desktop/GD32VW553/GD32VW55X_Wifi_BLE_SDK/GD32VW55x_RELEASE_V1.0.2/MSDK/ble/app\app_iso_mgr.c ****             p_info->group_lid, p_info->sync_delay_us, p_info->tlatency_us, p_info->phy, p_info->nse
 441              		.loc 1 94 5
 442 00a6 B7070000 		lui	a5,%hi(global_debug_level)
 443 00aa 83C60700 		lbu	a3,%lo(global_debug_level)(a5)
 444 00ae 0947     		li	a4,2
 445 00b0 3E89     		mv	s2,a5
 446 00b2 6372D704 		bleu	a3,a4,.L40
  94:C:/Users/stapi/OneDrive/Desktop/GD32VW553/GD32VW55X_Wifi_BLE_SDK/GD32VW55x_RELEASE_V1.0.2/MSDK/ble/app\app_iso_mgr.c ****             p_info->group_lid, p_info->sync_delay_us, p_info->tlatency_us, p_info->phy, p_info->nse
 447              		.loc 1 94 5
 448 00b6 83C74501 		lbu	a5,20(a1)
 449 00ba 37050000 		lui	a0,%hi(.LC8)
 450 00be 13050500 		addi	a0,a0,%lo(.LC8)
 451 00c2 3EC6     		sw	a5,12(sp)
 452 00c4 83D7C500 		lhu	a5,12(a1)
 453 00c8 3EC4     		sw	a5,8(sp)
 454 00ca 83C72501 		lbu	a5,18(a1)
 455 00ce 3EC2     		sw	a5,4(sp)
 456 00d0 83C71501 		lbu	a5,17(a1)
 457 00d4 3EC0     		sw	a5,0(sp)
 458 00d6 83C80501 		lbu	a7,16(a1)
 459 00da 03C8F500 		lbu	a6,15(a1)
 460 00de 83C7E500 		lbu	a5,14(a1)
 461 00e2 03C73501 		lbu	a4,19(a1)
 462 00e6 9445     		lw	a3,8(a1)
 463 00e8 D041     		lw	a2,4(a1)
 464 00ea 83C50500 		lbu	a1,0(a1)
 465 00ee 97000000 		call	co_printf
 465      E7800000 
 466              	.LVL31:
 467              	.L40:
 468              	.LBE35:
 469              	.LBE34:
 225:C:/Users/stapi/OneDrive/Desktop/GD32VW553/GD32VW55X_Wifi_BLE_SDK/GD32VW55x_RELEASE_V1.0.2/MSDK/ble/app\app_iso_mgr.c ****     switch (event) {
 470              		.loc 1 225 1 is_stmt 0
 471 00f6 8144     		li	s1,0
 472              	.LBB37:
 473              	.LBB36:
  99:C:/Users/stapi/OneDrive/Desktop/GD32VW553/GD32VW55X_Wifi_BLE_SDK/GD32VW55x_RELEASE_V1.0.2/MSDK/ble/app\app_iso_mgr.c **** 
 474              		.loc 1 99 9
 475 00f8 8949     		li	s3,2
 476 00fa 370A0000 		lui	s4,%hi(.LC9)
 477              	.LVL32:
 478              	.L41:
  98:C:/Users/stapi/OneDrive/Desktop/GD32VW553/GD32VW55X_Wifi_BLE_SDK/GD32VW55x_RELEASE_V1.0.2/MSDK/ble/app\app_iso_mgr.c ****         dbg_print(NOTICE, ", hdl[%d] 0x%x", i, p_info->p_conn_hdl[i]);
 479              		.loc 1 98 17 is_stmt 1
  98:C:/Users/stapi/OneDrive/Desktop/GD32VW553/GD32VW55X_Wifi_BLE_SDK/GD32VW55x_RELEASE_V1.0.2/MSDK/ble/app\app_iso_mgr.c ****         dbg_print(NOTICE, ", hdl[%d] 0x%x", i, p_info->p_conn_hdl[i]);
 480              		.loc 1 98 5 is_stmt 0
 481 00fe 03474401 		lbu	a4,20(s0)
  99:C:/Users/stapi/OneDrive/Desktop/GD32VW553/GD32VW55X_Wifi_BLE_SDK/GD32VW55x_RELEASE_V1.0.2/MSDK/ble/app\app_iso_mgr.c **** 
 482              		.loc 1 99 9
 483 0102 83470900 		lbu	a5,%lo(global_debug_level)(s2)
  98:C:/Users/stapi/OneDrive/Desktop/GD32VW553/GD32VW55X_Wifi_BLE_SDK/GD32VW55x_RELEASE_V1.0.2/MSDK/ble/app\app_iso_mgr.c ****         dbg_print(NOTICE, ", hdl[%d] 0x%x", i, p_info->p_conn_hdl[i]);
 484              		.loc 1 98 5
 485 0106 63EEE400 		bgtu	a4,s1,.L43
 486              	.LVL33:
 487              	.L60:
 101:C:/Users/stapi/OneDrive/Desktop/GD32VW553/GD32VW55X_Wifi_BLE_SDK/GD32VW55x_RELEASE_V1.0.2/MSDK/ble/app\app_iso_mgr.c **** }
 488              		.loc 1 101 5 is_stmt 1
 101:C:/Users/stapi/OneDrive/Desktop/GD32VW553/GD32VW55X_Wifi_BLE_SDK/GD32VW55x_RELEASE_V1.0.2/MSDK/ble/app\app_iso_mgr.c **** }
 489              		.loc 1 101 5
 490 010a 0947     		li	a4,2
 491 010c E376F7F6 		bleu	a5,a4,.L26
 101:C:/Users/stapi/OneDrive/Desktop/GD32VW553/GD32VW55X_Wifi_BLE_SDK/GD32VW55x_RELEASE_V1.0.2/MSDK/ble/app\app_iso_mgr.c **** }
 492              		.loc 1 101 5
 493 0110 37050000 		lui	a0,%hi(.LC2)
 494 0114 13050500 		addi	a0,a0,%lo(.LC2)
 495 0118 97000000 		call	co_printf
 495      E7800000 
 496              	.LVL34:
 497 0120 A1BF     		j	.L26
 498              	.LVL35:
 499              	.L43:
  99:C:/Users/stapi/OneDrive/Desktop/GD32VW553/GD32VW55X_Wifi_BLE_SDK/GD32VW55x_RELEASE_V1.0.2/MSDK/ble/app\app_iso_mgr.c **** 
 500              		.loc 1 99 9
  99:C:/Users/stapi/OneDrive/Desktop/GD32VW553/GD32VW55X_Wifi_BLE_SDK/GD32VW55x_RELEASE_V1.0.2/MSDK/ble/app\app_iso_mgr.c **** 
 501              		.loc 1 99 9
 502 0122 63FEF900 		bleu	a5,s3,.L42
  99:C:/Users/stapi/OneDrive/Desktop/GD32VW553/GD32VW55X_Wifi_BLE_SDK/GD32VW55x_RELEASE_V1.0.2/MSDK/ble/app\app_iso_mgr.c **** 
 503              		.loc 1 99 9
 504 0126 1C4C     		lw	a5,24(s0)
 505 0128 A685     		mv	a1,s1
 506 012a 13050A00 		addi	a0,s4,%lo(.LC9)
 507 012e B3A7F420 		sh1add	a5,s1,a5
 508 0132 03D60700 		lhu	a2,0(a5)
 509 0136 97000000 		call	co_printf
 509      E7800000 
 510              	.LVL36:
 511              	.L42:
  99:C:/Users/stapi/OneDrive/Desktop/GD32VW553/GD32VW55X_Wifi_BLE_SDK/GD32VW55x_RELEASE_V1.0.2/MSDK/ble/app\app_iso_mgr.c **** 
 512              		.loc 1 99 9
  98:C:/Users/stapi/OneDrive/Desktop/GD32VW553/GD32VW55X_Wifi_BLE_SDK/GD32VW55x_RELEASE_V1.0.2/MSDK/ble/app\app_iso_mgr.c ****         dbg_print(NOTICE, ", hdl[%d] 0x%x", i, p_info->p_conn_hdl[i]);
 513              		.loc 1 98 38
  98:C:/Users/stapi/OneDrive/Desktop/GD32VW553/GD32VW55X_Wifi_BLE_SDK/GD32VW55x_RELEASE_V1.0.2/MSDK/ble/app\app_iso_mgr.c ****         dbg_print(NOTICE, ", hdl[%d] 0x%x", i, p_info->p_conn_hdl[i]);
 514              		.loc 1 98 39 is_stmt 0
 515 013e 8504     		addi	s1,s1,1
 516              	.LVL37:
 517 0140 93F4F40F 		andi	s1,s1,0xff
 518              	.LVL38:
 519 0144 6DBF     		j	.L41
 520              	.LVL39:
 521              	.L34:
 522              	.LBE36:
 523              	.LBE37:
 241:C:/Users/stapi/OneDrive/Desktop/GD32VW553/GD32VW55X_Wifi_BLE_SDK/GD32VW55x_RELEASE_V1.0.2/MSDK/ble/app\app_iso_mgr.c ****         break;
 524              		.loc 1 241 9 is_stmt 1
 525              	.LBB38:
 526              	.LBB39:
 112:C:/Users/stapi/OneDrive/Desktop/GD32VW553/GD32VW55X_Wifi_BLE_SDK/GD32VW55x_RELEASE_V1.0.2/MSDK/ble/app\app_iso_mgr.c ****     case BLE_GAP_BIG_SYNC_STATUS_ESTABLISHED: {
 527              		.loc 1 112 5
 112:C:/Users/stapi/OneDrive/Desktop/GD32VW553/GD32VW55X_Wifi_BLE_SDK/GD32VW55x_RELEASE_V1.0.2/MSDK/ble/app\app_iso_mgr.c ****     case BLE_GAP_BIG_SYNC_STATUS_ESTABLISHED: {
 528              		.loc 1 112 19 is_stmt 0
 529 0146 83C41500 		lbu	s1,1(a1)
 530 014a 9947     		li	a5,6
 531 014c E3E697F2 		bgtu	s1,a5,.L26
 532 0150 B7070000 		lui	a5,%hi(.L45)
 533 0154 93870700 		addi	a5,a5,%lo(.L45)
 534 0158 B3C7F420 		sh2add	a5,s1,a5
 535 015c 9C43     		lw	a5,0(a5)
 536 015e 8287     		jr	a5
 537              		.section	.rodata.app_iso_callback
 538              		.align	2
 539              		.align	2
 540              	.L45:
 541 002c 00000000 		.word	.L49
 542 0030 00000000 		.word	.L26
 543 0034 00000000 		.word	.L26
 544 0038 00000000 		.word	.L48
 545 003c 00000000 		.word	.L47
 546 0040 00000000 		.word	.L46
 547 0044 00000000 		.word	.L44
 548              		.section	.text.app_iso_callback
 549              	.L49:
 550              	.LBB40:
 114:C:/Users/stapi/OneDrive/Desktop/GD32VW553/GD32VW55X_Wifi_BLE_SDK/GD32VW55x_RELEASE_V1.0.2/MSDK/ble/app\app_iso_mgr.c ****         dbg_print(NOTICE, "big sync established, group lid 0x%x, latency %d, nse %d, bn %d, pto %d,
 551              		.loc 1 114 9 is_stmt 1
 552              	.LVL40:
 115:C:/Users/stapi/OneDrive/Desktop/GD32VW553/GD32VW55X_Wifi_BLE_SDK/GD32VW55x_RELEASE_V1.0.2/MSDK/ble/app\app_iso_mgr.c ****                p_info->group_lid, p_info->tlatency_us, p_info->nse, p_info->bn, p_info->pto,
 553              		.loc 1 115 9
 115:C:/Users/stapi/OneDrive/Desktop/GD32VW553/GD32VW55X_Wifi_BLE_SDK/GD32VW55x_RELEASE_V1.0.2/MSDK/ble/app\app_iso_mgr.c ****                p_info->group_lid, p_info->tlatency_us, p_info->nse, p_info->bn, p_info->pto,
 554              		.loc 1 115 9
 555 0160 B7070000 		lui	a5,%hi(global_debug_level)
 556 0164 83C60700 		lbu	a3,%lo(global_debug_level)(a5)
 557 0168 0947     		li	a4,2
 558 016a 3E8A     		mv	s4,a5
 559 016c 637DD702 		bleu	a3,a4,.L50
 115:C:/Users/stapi/OneDrive/Desktop/GD32VW553/GD32VW55X_Wifi_BLE_SDK/GD32VW55x_RELEASE_V1.0.2/MSDK/ble/app\app_iso_mgr.c ****                p_info->group_lid, p_info->tlatency_us, p_info->nse, p_info->bn, p_info->pto,
 560              		.loc 1 115 9
 561 0170 83C7F500 		lbu	a5,15(a1)
 562 0174 37050000 		lui	a0,%hi(.LC10)
 563 0178 13050500 		addi	a0,a0,%lo(.LC10)
 564 017c 3EC2     		sw	a5,4(sp)
 565 017e 83D78500 		lhu	a5,8(a1)
 566 0182 3EC0     		sw	a5,0(sp)
 567 0184 83C8E500 		lbu	a7,14(a1)
 568 0188 03C8D500 		lbu	a6,13(a1)
 569 018c 83C7C500 		lbu	a5,12(a1)
 570 0190 03C7B500 		lbu	a4,11(a1)
 571 0194 83C6A500 		lbu	a3,10(a1)
 572 0198 D041     		lw	a2,4(a1)
 573 019a 83C50500 		lbu	a1,0(a1)
 574 019e 97000000 		call	co_printf
 574      E7800000 
 575              	.LVL41:
 576              	.L50:
 120:C:/Users/stapi/OneDrive/Desktop/GD32VW553/GD32VW55X_Wifi_BLE_SDK/GD32VW55x_RELEASE_V1.0.2/MSDK/ble/app\app_iso_mgr.c **** 
 577              		.loc 1 120 13 is_stmt 0
 578 01a6 0949     		li	s2,2
 579 01a8 B7090000 		lui	s3,%hi(.LC9)
 580              	.LVL42:
 581              	.L51:
 119:C:/Users/stapi/OneDrive/Desktop/GD32VW553/GD32VW55X_Wifi_BLE_SDK/GD32VW55x_RELEASE_V1.0.2/MSDK/ble/app\app_iso_mgr.c ****             dbg_print(NOTICE, ", hdl[%d] 0x%x", i, p_info->p_conn_hdl[i]);
 582              		.loc 1 119 21 is_stmt 1
 119:C:/Users/stapi/OneDrive/Desktop/GD32VW553/GD32VW55X_Wifi_BLE_SDK/GD32VW55x_RELEASE_V1.0.2/MSDK/ble/app\app_iso_mgr.c ****             dbg_print(NOTICE, ", hdl[%d] 0x%x", i, p_info->p_conn_hdl[i]);
 583              		.loc 1 119 9 is_stmt 0
 584 01ac 0347F400 		lbu	a4,15(s0)
 120:C:/Users/stapi/OneDrive/Desktop/GD32VW553/GD32VW55X_Wifi_BLE_SDK/GD32VW55x_RELEASE_V1.0.2/MSDK/ble/app\app_iso_mgr.c **** 
 585              		.loc 1 120 13
 586 01b0 83470A00 		lbu	a5,%lo(global_debug_level)(s4)
 119:C:/Users/stapi/OneDrive/Desktop/GD32VW553/GD32VW55X_Wifi_BLE_SDK/GD32VW55x_RELEASE_V1.0.2/MSDK/ble/app\app_iso_mgr.c ****             dbg_print(NOTICE, ", hdl[%d] 0x%x", i, p_info->p_conn_hdl[i]);
 587              		.loc 1 119 9
 588 01b4 E3FBE4F4 		bleu	a4,s1,.L60
 120:C:/Users/stapi/OneDrive/Desktop/GD32VW553/GD32VW55X_Wifi_BLE_SDK/GD32VW55x_RELEASE_V1.0.2/MSDK/ble/app\app_iso_mgr.c **** 
 589              		.loc 1 120 13 is_stmt 1
 120:C:/Users/stapi/OneDrive/Desktop/GD32VW553/GD32VW55X_Wifi_BLE_SDK/GD32VW55x_RELEASE_V1.0.2/MSDK/ble/app\app_iso_mgr.c **** 
 590              		.loc 1 120 13
 591 01b8 637EF900 		bleu	a5,s2,.L52
 120:C:/Users/stapi/OneDrive/Desktop/GD32VW553/GD32VW55X_Wifi_BLE_SDK/GD32VW55x_RELEASE_V1.0.2/MSDK/ble/app\app_iso_mgr.c **** 
 592              		.loc 1 120 13
 593 01bc 1C48     		lw	a5,16(s0)
 594 01be A685     		mv	a1,s1
 595 01c0 13850900 		addi	a0,s3,%lo(.LC9)
 596 01c4 B3A7F420 		sh1add	a5,s1,a5
 597 01c8 03D60700 		lhu	a2,0(a5)
 598 01cc 97000000 		call	co_printf
 598      E7800000 
 599              	.LVL43:
 600              	.L52:
 120:C:/Users/stapi/OneDrive/Desktop/GD32VW553/GD32VW55X_Wifi_BLE_SDK/GD32VW55x_RELEASE_V1.0.2/MSDK/ble/app\app_iso_mgr.c **** 
 601              		.loc 1 120 13
 119:C:/Users/stapi/OneDrive/Desktop/GD32VW553/GD32VW55X_Wifi_BLE_SDK/GD32VW55x_RELEASE_V1.0.2/MSDK/ble/app\app_iso_mgr.c ****             dbg_print(NOTICE, ", hdl[%d] 0x%x", i, p_info->p_conn_hdl[i]);
 602              		.loc 1 119 42
 119:C:/Users/stapi/OneDrive/Desktop/GD32VW553/GD32VW55X_Wifi_BLE_SDK/GD32VW55x_RELEASE_V1.0.2/MSDK/ble/app\app_iso_mgr.c ****             dbg_print(NOTICE, ", hdl[%d] 0x%x", i, p_info->p_conn_hdl[i]);
 603              		.loc 1 119 43 is_stmt 0
 604 01d4 8504     		addi	s1,s1,1
 605              	.LVL44:
 606 01d6 93F4F40F 		andi	s1,s1,0xff
 607              	.LVL45:
 608 01da C9BF     		j	.L51
 609              	.LVL46:
 610              	.L48:
 611              	.LBE40:
 126:C:/Users/stapi/OneDrive/Desktop/GD32VW553/GD32VW55X_Wifi_BLE_SDK/GD32VW55x_RELEASE_V1.0.2/MSDK/ble/app\app_iso_mgr.c ****         break;
 612              		.loc 1 126 9 is_stmt 1
 126:C:/Users/stapi/OneDrive/Desktop/GD32VW553/GD32VW55X_Wifi_BLE_SDK/GD32VW55x_RELEASE_V1.0.2/MSDK/ble/app\app_iso_mgr.c ****         break;
 613              		.loc 1 126 9
 614 01dc B7070000 		lui	a5,%hi(global_debug_level)
 615 01e0 03C70700 		lbu	a4,%lo(global_debug_level)(a5)
 616 01e4 8947     		li	a5,2
 617 01e6 E3F9E7E8 		bleu	a4,a5,.L26
 126:C:/Users/stapi/OneDrive/Desktop/GD32VW553/GD32VW55X_Wifi_BLE_SDK/GD32VW55x_RELEASE_V1.0.2/MSDK/ble/app\app_iso_mgr.c ****         break;
 618              		.loc 1 126 9
 619 01ea 37050000 		lui	a0,%hi(.LC11)
 620 01ee 83C50500 		lbu	a1,0(a1)
 621 01f2 13050500 		addi	a0,a0,%lo(.LC11)
 622 01f6 5DB5     		j	.L61
 623              	.L44:
 130:C:/Users/stapi/OneDrive/Desktop/GD32VW553/GD32VW55X_Wifi_BLE_SDK/GD32VW55x_RELEASE_V1.0.2/MSDK/ble/app\app_iso_mgr.c ****         break;
 624              		.loc 1 130 9
 130:C:/Users/stapi/OneDrive/Desktop/GD32VW553/GD32VW55X_Wifi_BLE_SDK/GD32VW55x_RELEASE_V1.0.2/MSDK/ble/app\app_iso_mgr.c ****         break;
 625              		.loc 1 130 9
 626 01f8 B7070000 		lui	a5,%hi(global_debug_level)
 627 01fc 03C70700 		lbu	a4,%lo(global_debug_level)(a5)
 628 0200 8947     		li	a5,2
 629 0202 E3FBE7E6 		bleu	a4,a5,.L26
 130:C:/Users/stapi/OneDrive/Desktop/GD32VW553/GD32VW55X_Wifi_BLE_SDK/GD32VW55x_RELEASE_V1.0.2/MSDK/ble/app\app_iso_mgr.c ****         break;
 630              		.loc 1 130 9
 631 0206 37050000 		lui	a0,%hi(.LC12)
 632 020a 83C50500 		lbu	a1,0(a1)
 633 020e 13050500 		addi	a0,a0,%lo(.LC12)
 634 0212 69B5     		j	.L61
 635              	.L46:
 134:C:/Users/stapi/OneDrive/Desktop/GD32VW553/GD32VW55X_Wifi_BLE_SDK/GD32VW55x_RELEASE_V1.0.2/MSDK/ble/app\app_iso_mgr.c ****         break;
 636              		.loc 1 134 9
 134:C:/Users/stapi/OneDrive/Desktop/GD32VW553/GD32VW55X_Wifi_BLE_SDK/GD32VW55x_RELEASE_V1.0.2/MSDK/ble/app\app_iso_mgr.c ****         break;
 637              		.loc 1 134 9
 638 0214 B7070000 		lui	a5,%hi(global_debug_level)
 639 0218 03C70700 		lbu	a4,%lo(global_debug_level)(a5)
 640 021c 8947     		li	a5,2
 641 021e E3FDE7E4 		bleu	a4,a5,.L26
 134:C:/Users/stapi/OneDrive/Desktop/GD32VW553/GD32VW55X_Wifi_BLE_SDK/GD32VW55x_RELEASE_V1.0.2/MSDK/ble/app\app_iso_mgr.c ****         break;
 642              		.loc 1 134 9
 643 0222 37050000 		lui	a0,%hi(.LC13)
 644 0226 83C50500 		lbu	a1,0(a1)
 645 022a 13050500 		addi	a0,a0,%lo(.LC13)
 646 022e BDB5     		j	.L61
 647              	.L47:
 138:C:/Users/stapi/OneDrive/Desktop/GD32VW553/GD32VW55X_Wifi_BLE_SDK/GD32VW55x_RELEASE_V1.0.2/MSDK/ble/app\app_iso_mgr.c ****         break;
 648              		.loc 1 138 9
 138:C:/Users/stapi/OneDrive/Desktop/GD32VW553/GD32VW55X_Wifi_BLE_SDK/GD32VW55x_RELEASE_V1.0.2/MSDK/ble/app\app_iso_mgr.c ****         break;
 649              		.loc 1 138 9
 650 0230 B7070000 		lui	a5,%hi(global_debug_level)
 651 0234 03C70700 		lbu	a4,%lo(global_debug_level)(a5)
 652 0238 8947     		li	a5,2
 653 023a E3FFE7E2 		bleu	a4,a5,.L26
 138:C:/Users/stapi/OneDrive/Desktop/GD32VW553/GD32VW55X_Wifi_BLE_SDK/GD32VW55x_RELEASE_V1.0.2/MSDK/ble/app\app_iso_mgr.c ****         break;
 654              		.loc 1 138 9
 655 023e 37050000 		lui	a0,%hi(.LC14)
 656 0242 83C50500 		lbu	a1,0(a1)
 657 0246 13050500 		addi	a0,a0,%lo(.LC14)
 658 024a 89BD     		j	.L61
 659              	.LVL47:
 660              	.L33:
 661              	.LBE39:
 662              	.LBE38:
 245:C:/Users/stapi/OneDrive/Desktop/GD32VW553/GD32VW55X_Wifi_BLE_SDK/GD32VW55x_RELEASE_V1.0.2/MSDK/ble/app\app_iso_mgr.c ****         break;
 663              		.loc 1 245 9
 664 024c 2E85     		mv	a0,a1
 665 024e 97000000 		call	app_big_sync_info_hdlr
 665      E7800000 
 666              	.LVL48:
 246:C:/Users/stapi/OneDrive/Desktop/GD32VW553/GD32VW55X_Wifi_BLE_SDK/GD32VW55x_RELEASE_V1.0.2/MSDK/ble/app\app_iso_mgr.c ****     #endif  // (BLE_APP_BIS_SUPPORT)
 667              		.loc 1 246 9
 668 0256 0DB5     		j	.L26
 669              	.L32:
 251:C:/Users/stapi/OneDrive/Desktop/GD32VW553/GD32VW55X_Wifi_BLE_SDK/GD32VW55x_RELEASE_V1.0.2/MSDK/ble/app\app_iso_mgr.c ****         break;
 670              		.loc 1 251 9
 671              	.LVL49:
 672              	.LBB41:
 673              	.LBB33:
 175:C:/Users/stapi/OneDrive/Desktop/GD32VW553/GD32VW55X_Wifi_BLE_SDK/GD32VW55x_RELEASE_V1.0.2/MSDK/ble/app\app_iso_mgr.c **** }
 674              		.loc 1 175 5
 175:C:/Users/stapi/OneDrive/Desktop/GD32VW553/GD32VW55X_Wifi_BLE_SDK/GD32VW55x_RELEASE_V1.0.2/MSDK/ble/app\app_iso_mgr.c **** }
 675              		.loc 1 175 5
 676 0258 B7070000 		lui	a5,%hi(global_debug_level)
 677 025c 03C70700 		lbu	a4,%lo(global_debug_level)(a5)
 678 0260 8947     		li	a5,2
 679 0262 E3FBE7E0 		bleu	a4,a5,.L26
 175:C:/Users/stapi/OneDrive/Desktop/GD32VW553/GD32VW55X_Wifi_BLE_SDK/GD32VW55x_RELEASE_V1.0.2/MSDK/ble/app\app_iso_mgr.c **** }
 680              		.loc 1 175 5
 681 0266 37050000 		lui	a0,%hi(.LC15)
 682 026a 83D50500 		lhu	a1,0(a1)
 683 026e 13050500 		addi	a0,a0,%lo(.LC15)
 684 0272 2DB5     		j	.L61
 685              	.LVL50:
 686              	.L31:
 687              	.LBE33:
 688              	.LBE41:
 255:C:/Users/stapi/OneDrive/Desktop/GD32VW553/GD32VW55X_Wifi_BLE_SDK/GD32VW55x_RELEASE_V1.0.2/MSDK/ble/app\app_iso_mgr.c ****         break;
 689              		.loc 1 255 9
 690 0274 2E85     		mv	a0,a1
 691 0276 97000000 		call	app_cis_conn_info_hdlr
 691      E7800000 
 692              	.LVL51:
 256:C:/Users/stapi/OneDrive/Desktop/GD32VW553/GD32VW55X_Wifi_BLE_SDK/GD32VW55x_RELEASE_V1.0.2/MSDK/ble/app\app_iso_mgr.c **** 
 693              		.loc 1 256 9
 694 027e EDBB     		j	.L26
 695              	.L30:
 259:C:/Users/stapi/OneDrive/Desktop/GD32VW553/GD32VW55X_Wifi_BLE_SDK/GD32VW55x_RELEASE_V1.0.2/MSDK/ble/app\app_iso_mgr.c ****         break;
 696              		.loc 1 259 9
 697 0280 2E85     		mv	a0,a1
 698 0282 97000000 		call	app_cis_disconn_info_hdlr
 698      E7800000 
 699              	.LVL52:
 260:C:/Users/stapi/OneDrive/Desktop/GD32VW553/GD32VW55X_Wifi_BLE_SDK/GD32VW55x_RELEASE_V1.0.2/MSDK/ble/app\app_iso_mgr.c ****     #endif  // (BLE_APP_CIS_SUPPORT)
 700              		.loc 1 260 9
 701 028a FDB3     		j	.L26
 702              	.L28:
 264:C:/Users/stapi/OneDrive/Desktop/GD32VW553/GD32VW55X_Wifi_BLE_SDK/GD32VW55x_RELEASE_V1.0.2/MSDK/ble/app\app_iso_mgr.c ****         break;
 703              		.loc 1 264 9
 704 028c 2E85     		mv	a0,a1
 705 028e 97000000 		call	app_iso_test_cnt_hdlr
 705      E7800000 
 706              	.LVL53:
 265:C:/Users/stapi/OneDrive/Desktop/GD32VW553/GD32VW55X_Wifi_BLE_SDK/GD32VW55x_RELEASE_V1.0.2/MSDK/ble/app\app_iso_mgr.c **** 
 707              		.loc 1 265 9
 708              		.loc 1 270 1 is_stmt 0
 709 0296 CDB3     		j	.L26
 710              	.LVL54:
 711              	.L56:
 712              		.cfi_def_cfa_offset 0
 713              		.cfi_restore 1
 714              		.cfi_restore 8
 715              		.cfi_restore 9
 716              		.cfi_restore 18
 717              		.cfi_restore 19
 718              		.cfi_restore 20
 719 0298 8280     		ret
 720              		.cfi_endproc
 721              	.LFE13:
 723              		.section	.rodata.app_big_create.str1.4,"aMS",@progbits,1
 724              		.align	2
 725              	.LC16:
 726 0000 62726F61 		.string	"broadcase code: 0x"
 726      64636173 
 726      6520636F 
 726      64653A20 
 726      307800
 727 0013 00       		.align	2
 728              	.LC17:
 729 0014 25303278 		.string	"%02x"
 729      00
 730              		.section	.text.app_big_create,"ax",@progbits
 731              		.align	1
 732              		.globl	app_big_create
 734              	app_big_create:
 735              	.LFB14:
 271:C:/Users/stapi/OneDrive/Desktop/GD32VW553/GD32VW55X_Wifi_BLE_SDK/GD32VW55x_RELEASE_V1.0.2/MSDK/ble/app\app_iso_mgr.c **** 
 272:C:/Users/stapi/OneDrive/Desktop/GD32VW553/GD32VW55X_Wifi_BLE_SDK/GD32VW55x_RELEASE_V1.0.2/MSDK/ble/app\app_iso_mgr.c **** #if (BLE_APP_BIS_SUPPORT)
 273:C:/Users/stapi/OneDrive/Desktop/GD32VW553/GD32VW55X_Wifi_BLE_SDK/GD32VW55x_RELEASE_V1.0.2/MSDK/ble/app\app_iso_mgr.c **** /*!
 274:C:/Users/stapi/OneDrive/Desktop/GD32VW553/GD32VW55X_Wifi_BLE_SDK/GD32VW55x_RELEASE_V1.0.2/MSDK/ble/app\app_iso_mgr.c ****     \brief      Create a BIG
 275:C:/Users/stapi/OneDrive/Desktop/GD32VW553/GD32VW55X_Wifi_BLE_SDK/GD32VW55x_RELEASE_V1.0.2/MSDK/ble/app\app_iso_mgr.c ****     \param[in]  adv_idx: associated periodic advertising index
 276:C:/Users/stapi/OneDrive/Desktop/GD32VW553/GD32VW55X_Wifi_BLE_SDK/GD32VW55x_RELEASE_V1.0.2/MSDK/ble/app\app_iso_mgr.c ****     \param[in]  p_param: pointer to BIG parameter
 277:C:/Users/stapi/OneDrive/Desktop/GD32VW553/GD32VW55X_Wifi_BLE_SDK/GD32VW55x_RELEASE_V1.0.2/MSDK/ble/app\app_iso_mgr.c ****     \param[out] none
 278:C:/Users/stapi/OneDrive/Desktop/GD32VW553/GD32VW55X_Wifi_BLE_SDK/GD32VW55x_RELEASE_V1.0.2/MSDK/ble/app\app_iso_mgr.c ****     \retval     none
 279:C:/Users/stapi/OneDrive/Desktop/GD32VW553/GD32VW55X_Wifi_BLE_SDK/GD32VW55x_RELEASE_V1.0.2/MSDK/ble/app\app_iso_mgr.c **** */
 280:C:/Users/stapi/OneDrive/Desktop/GD32VW553/GD32VW55X_Wifi_BLE_SDK/GD32VW55x_RELEASE_V1.0.2/MSDK/ble/app\app_iso_mgr.c **** void app_big_create(uint8_t adv_idx, app_big_param_t *p_param)
 281:C:/Users/stapi/OneDrive/Desktop/GD32VW553/GD32VW55X_Wifi_BLE_SDK/GD32VW55x_RELEASE_V1.0.2/MSDK/ble/app\app_iso_mgr.c **** {
 736              		.loc 1 281 1 is_stmt 1
 737              		.cfi_startproc
 738              	.LVL55:
 739 0000 17030000 		call	t0,__riscv_save_8
 739      E7020300 
 740              		.cfi_offset 23, -36
 741              		.cfi_offset 22, -32
 742              		.cfi_offset 21, -28
 743              		.cfi_offset 20, -24
 744              		.cfi_offset 19, -20
 745              		.cfi_offset 18, -16
 746              		.cfi_offset 9, -12
 747              		.cfi_offset 8, -8
 748              		.cfi_offset 1, -4
 749              		.cfi_def_cfa_offset 48
 282:C:/Users/stapi/OneDrive/Desktop/GD32VW553/GD32VW55X_Wifi_BLE_SDK/GD32VW55x_RELEASE_V1.0.2/MSDK/ble/app\app_iso_mgr.c ****     ble_iso_big_param_t big_param;
 750              		.loc 1 282 5
 283:C:/Users/stapi/OneDrive/Desktop/GD32VW553/GD32VW55X_Wifi_BLE_SDK/GD32VW55x_RELEASE_V1.0.2/MSDK/ble/app\app_iso_mgr.c **** 
 284:C:/Users/stapi/OneDrive/Desktop/GD32VW553/GD32VW55X_Wifi_BLE_SDK/GD32VW55x_RELEASE_V1.0.2/MSDK/ble/app\app_iso_mgr.c ****     big_param.test_param.sdu_intv_us = p_param->interval * 1000;
 751              		.loc 1 284 5
 752              		.loc 1 284 47 is_stmt 0
 753 0008 83D7C500 		lhu	a5,12(a1)
 754              		.loc 1 284 58
 755 000c 1307803E 		li	a4,1000
 281:C:/Users/stapi/OneDrive/Desktop/GD32VW553/GD32VW55X_Wifi_BLE_SDK/GD32VW55x_RELEASE_V1.0.2/MSDK/ble/app\app_iso_mgr.c ****     ble_iso_big_param_t big_param;
 756              		.loc 1 281 1
 757 0010 0111     		addi	sp,sp,-32
 758              		.cfi_def_cfa_offset 80
 759              		.loc 1 284 58
 760 0012 3387E702 		mul	a4,a5,a4
 285:C:/Users/stapi/OneDrive/Desktop/GD32VW553/GD32VW55X_Wifi_BLE_SDK/GD32VW55x_RELEASE_V1.0.2/MSDK/ble/app\app_iso_mgr.c ****     big_param.test_param.max_sdu = p_param->max_sdu;
 286:C:/Users/stapi/OneDrive/Desktop/GD32VW553/GD32VW55X_Wifi_BLE_SDK/GD32VW55x_RELEASE_V1.0.2/MSDK/ble/app\app_iso_mgr.c ****     big_param.test_param.packing = p_param->packing;
 287:C:/Users/stapi/OneDrive/Desktop/GD32VW553/GD32VW55X_Wifi_BLE_SDK/GD32VW55x_RELEASE_V1.0.2/MSDK/ble/app\app_iso_mgr.c ****     big_param.test_param.framing = p_param->framing;
 288:C:/Users/stapi/OneDrive/Desktop/GD32VW553/GD32VW55X_Wifi_BLE_SDK/GD32VW55x_RELEASE_V1.0.2/MSDK/ble/app\app_iso_mgr.c ****     big_param.test_param.phy_bf = p_param->phy;
 289:C:/Users/stapi/OneDrive/Desktop/GD32VW553/GD32VW55X_Wifi_BLE_SDK/GD32VW55x_RELEASE_V1.0.2/MSDK/ble/app\app_iso_mgr.c ****     big_param.test_param.iso_intv = (p_param->interval * 4) / 5;
 761              		.loc 1 289 56
 762 0016 8A07     		slli	a5,a5,2
 281:C:/Users/stapi/OneDrive/Desktop/GD32VW553/GD32VW55X_Wifi_BLE_SDK/GD32VW55x_RELEASE_V1.0.2/MSDK/ble/app\app_iso_mgr.c ****     ble_iso_big_param_t big_param;
 763              		.loc 1 281 1
 764 0018 2A8A     		mv	s4,a0
 765 001a 2E84     		mv	s0,a1
 284:C:/Users/stapi/OneDrive/Desktop/GD32VW553/GD32VW55X_Wifi_BLE_SDK/GD32VW55x_RELEASE_V1.0.2/MSDK/ble/app\app_iso_mgr.c ****     big_param.test_param.max_sdu = p_param->max_sdu;
 766              		.loc 1 284 38
 767 001c 3AC6     		sw	a4,12(sp)
 285:C:/Users/stapi/OneDrive/Desktop/GD32VW553/GD32VW55X_Wifi_BLE_SDK/GD32VW55x_RELEASE_V1.0.2/MSDK/ble/app\app_iso_mgr.c ****     big_param.test_param.max_sdu = p_param->max_sdu;
 768              		.loc 1 285 5 is_stmt 1
 285:C:/Users/stapi/OneDrive/Desktop/GD32VW553/GD32VW55X_Wifi_BLE_SDK/GD32VW55x_RELEASE_V1.0.2/MSDK/ble/app\app_iso_mgr.c ****     big_param.test_param.max_sdu = p_param->max_sdu;
 769              		.loc 1 285 34 is_stmt 0
 770 001e 03D7A500 		lhu	a4,10(a1)
 771 0022 2318E100 		sh	a4,16(sp)
 286:C:/Users/stapi/OneDrive/Desktop/GD32VW553/GD32VW55X_Wifi_BLE_SDK/GD32VW55x_RELEASE_V1.0.2/MSDK/ble/app\app_iso_mgr.c ****     big_param.test_param.framing = p_param->framing;
 772              		.loc 1 286 5 is_stmt 1
 287:C:/Users/stapi/OneDrive/Desktop/GD32VW553/GD32VW55X_Wifi_BLE_SDK/GD32VW55x_RELEASE_V1.0.2/MSDK/ble/app\app_iso_mgr.c ****     big_param.test_param.phy_bf = p_param->phy;
 773              		.loc 1 287 5
 286:C:/Users/stapi/OneDrive/Desktop/GD32VW553/GD32VW55X_Wifi_BLE_SDK/GD32VW55x_RELEASE_V1.0.2/MSDK/ble/app\app_iso_mgr.c ****     big_param.test_param.framing = p_param->framing;
 774              		.loc 1 286 34 is_stmt 0
 775 0026 03D76500 		lhu	a4,6(a1)
 776 002a 2319E100 		sh	a4,18(sp)
 288:C:/Users/stapi/OneDrive/Desktop/GD32VW553/GD32VW55X_Wifi_BLE_SDK/GD32VW55x_RELEASE_V1.0.2/MSDK/ble/app\app_iso_mgr.c ****     big_param.test_param.iso_intv = (p_param->interval * 4) / 5;
 777              		.loc 1 288 5 is_stmt 1
 288:C:/Users/stapi/OneDrive/Desktop/GD32VW553/GD32VW55X_Wifi_BLE_SDK/GD32VW55x_RELEASE_V1.0.2/MSDK/ble/app\app_iso_mgr.c ****     big_param.test_param.iso_intv = (p_param->interval * 4) / 5;
 778              		.loc 1 288 33 is_stmt 0
 779 002e 03C75500 		lbu	a4,5(a1)
 780 0032 230AE100 		sb	a4,20(sp)
 781              		.loc 1 289 5 is_stmt 1
 782              		.loc 1 289 61 is_stmt 0
 783 0036 1547     		li	a4,5
 784 0038 B3C7E702 		div	a5,a5,a4
 290:C:/Users/stapi/OneDrive/Desktop/GD32VW553/GD32VW55X_Wifi_BLE_SDK/GD32VW55x_RELEASE_V1.0.2/MSDK/ble/app\app_iso_mgr.c ****     big_param.test_param.nse = p_param->nse;
 291:C:/Users/stapi/OneDrive/Desktop/GD32VW553/GD32VW55X_Wifi_BLE_SDK/GD32VW55x_RELEASE_V1.0.2/MSDK/ble/app\app_iso_mgr.c ****     big_param.test_param.max_pdu = 0xFB;
 292:C:/Users/stapi/OneDrive/Desktop/GD32VW553/GD32VW55X_Wifi_BLE_SDK/GD32VW55x_RELEASE_V1.0.2/MSDK/ble/app\app_iso_mgr.c ****     big_param.test_param.bn = p_param->bn;
 785              		.loc 1 292 29
 786 003c 03D72500 		lhu	a4,2(a1)
 787 0040 231DE100 		sh	a4,26(sp)
 289:C:/Users/stapi/OneDrive/Desktop/GD32VW553/GD32VW55X_Wifi_BLE_SDK/GD32VW55x_RELEASE_V1.0.2/MSDK/ble/app\app_iso_mgr.c ****     big_param.test_param.nse = p_param->nse;
 788              		.loc 1 289 35
 789 0044 231BF100 		sh	a5,22(sp)
 290:C:/Users/stapi/OneDrive/Desktop/GD32VW553/GD32VW55X_Wifi_BLE_SDK/GD32VW55x_RELEASE_V1.0.2/MSDK/ble/app\app_iso_mgr.c ****     big_param.test_param.nse = p_param->nse;
 790              		.loc 1 290 5 is_stmt 1
 290:C:/Users/stapi/OneDrive/Desktop/GD32VW553/GD32VW55X_Wifi_BLE_SDK/GD32VW55x_RELEASE_V1.0.2/MSDK/ble/app\app_iso_mgr.c ****     big_param.test_param.nse = p_param->nse;
 791              		.loc 1 290 30 is_stmt 0
 792 0048 83C71500 		lbu	a5,1(a1)
 793 004c 230CF100 		sb	a5,24(sp)
 291:C:/Users/stapi/OneDrive/Desktop/GD32VW553/GD32VW55X_Wifi_BLE_SDK/GD32VW55x_RELEASE_V1.0.2/MSDK/ble/app\app_iso_mgr.c ****     big_param.test_param.bn = p_param->bn;
 794              		.loc 1 291 5 is_stmt 1
 291:C:/Users/stapi/OneDrive/Desktop/GD32VW553/GD32VW55X_Wifi_BLE_SDK/GD32VW55x_RELEASE_V1.0.2/MSDK/ble/app\app_iso_mgr.c ****     big_param.test_param.bn = p_param->bn;
 795              		.loc 1 291 34 is_stmt 0
 796 0050 ED57     		li	a5,-5
 797 0052 A30CF100 		sb	a5,25(sp)
 798              		.loc 1 292 5 is_stmt 1
 293:C:/Users/stapi/OneDrive/Desktop/GD32VW553/GD32VW55X_Wifi_BLE_SDK/GD32VW55x_RELEASE_V1.0.2/MSDK/ble/app\app_iso_mgr.c ****     big_param.test_param.irc = p_param->irc;
 799              		.loc 1 293 5
 294:C:/Users/stapi/OneDrive/Desktop/GD32VW553/GD32VW55X_Wifi_BLE_SDK/GD32VW55x_RELEASE_V1.0.2/MSDK/ble/app\app_iso_mgr.c ****     big_param.test_param.pto = p_param->pto;
 800              		.loc 1 294 5
 801              		.loc 1 294 39 is_stmt 0
 802 0056 83C74500 		lbu	a5,4(a1)
 803              		.loc 1 294 30
 804 005a 230EF100 		sb	a5,28(sp)
 295:C:/Users/stapi/OneDrive/Desktop/GD32VW553/GD32VW55X_Wifi_BLE_SDK/GD32VW55x_RELEASE_V1.0.2/MSDK/ble/app\app_iso_mgr.c **** 
 296:C:/Users/stapi/OneDrive/Desktop/GD32VW553/GD32VW55X_Wifi_BLE_SDK/GD32VW55x_RELEASE_V1.0.2/MSDK/ble/app\app_iso_mgr.c ****     if (p_param->encryption) {
 805              		.loc 1 296 5 is_stmt 1
 806              		.loc 1 296 8 is_stmt 0
 807 005e 83C78500 		lbu	a5,8(a1)
 808 0062 BDC7     		beq	a5,zero,.L64
 809              	.LBB42:
 297:C:/Users/stapi/OneDrive/Desktop/GD32VW553/GD32VW55X_Wifi_BLE_SDK/GD32VW55x_RELEASE_V1.0.2/MSDK/ble/app\app_iso_mgr.c ****         uint8_t i = 0;
 810              		.loc 1 297 9 is_stmt 1
 811              	.LVL56:
 298:C:/Users/stapi/OneDrive/Desktop/GD32VW553/GD32VW55X_Wifi_BLE_SDK/GD32VW55x_RELEASE_V1.0.2/MSDK/ble/app\app_iso_mgr.c **** 
 299:C:/Users/stapi/OneDrive/Desktop/GD32VW553/GD32VW55X_Wifi_BLE_SDK/GD32VW55x_RELEASE_V1.0.2/MSDK/ble/app\app_iso_mgr.c ****         dbg_print(NOTICE, "broadcase code: 0x");
 812              		.loc 1 299 9
 813              		.loc 1 299 9
 814 0064 B7040000 		lui	s1,%hi(global_debug_level)
 815 0068 03C70400 		lbu	a4,%lo(global_debug_level)(s1)
 816 006c 8947     		li	a5,2
 817 006e 63FAE700 		bleu	a4,a5,.L65
 818              		.loc 1 299 9 discriminator 1
 819 0072 37050000 		lui	a0,%hi(.LC16)
 820              	.LVL57:
 821 0076 13050500 		addi	a0,a0,%lo(.LC16)
 822 007a 97000000 		call	co_printf
 822      E7800000 
 823              	.LVL58:
 824              	.L65:
 300:C:/Users/stapi/OneDrive/Desktop/GD32VW553/GD32VW55X_Wifi_BLE_SDK/GD32VW55x_RELEASE_V1.0.2/MSDK/ble/app\app_iso_mgr.c ****         for (i = 0; i < BLE_GAP_KEY_LEN; i++) {
 301:C:/Users/stapi/OneDrive/Desktop/GD32VW553/GD32VW55X_Wifi_BLE_SDK/GD32VW55x_RELEASE_V1.0.2/MSDK/ble/app\app_iso_mgr.c ****             dbg_print(NOTICE, "%02x", big_bc[i]);
 825              		.loc 1 301 13 is_stmt 0
 826 0082 B7090000 		lui	s3,%hi(.LANCHOR0)
 827              	.LBE42:
 281:C:/Users/stapi/OneDrive/Desktop/GD32VW553/GD32VW55X_Wifi_BLE_SDK/GD32VW55x_RELEASE_V1.0.2/MSDK/ble/app\app_iso_mgr.c ****     ble_iso_big_param_t big_param;
 828              		.loc 1 281 1
 829 0086 0149     		li	s2,0
 830              	.LBB43:
 831              		.loc 1 301 13
 832 0088 094B     		li	s6,2
 833 008a 93890900 		addi	s3,s3,%lo(.LANCHOR0)
 834 008e B70B0000 		lui	s7,%hi(.LC17)
 300:C:/Users/stapi/OneDrive/Desktop/GD32VW553/GD32VW55X_Wifi_BLE_SDK/GD32VW55x_RELEASE_V1.0.2/MSDK/ble/app\app_iso_mgr.c ****         for (i = 0; i < BLE_GAP_KEY_LEN; i++) {
 835              		.loc 1 300 9
 836 0092 C14A     		li	s5,16
 837              	.LVL59:
 838              	.L67:
 839              		.loc 1 301 13 is_stmt 1
 840              		.loc 1 301 13
 841 0094 83C70400 		lbu	a5,%lo(global_debug_level)(s1)
 842 0098 637CFB00 		bleu	a5,s6,.L66
 843              		.loc 1 301 13 discriminator 1
 844 009c B3872901 		add	a5,s3,s2
 845 00a0 83C50700 		lbu	a1,0(a5)
 846 00a4 13850B00 		addi	a0,s7,%lo(.LC17)
 847 00a8 97000000 		call	co_printf
 847      E7800000 
 848              	.LVL60:
 849              	.L66:
 850              		.loc 1 301 13 discriminator 3
 300:C:/Users/stapi/OneDrive/Desktop/GD32VW553/GD32VW55X_Wifi_BLE_SDK/GD32VW55x_RELEASE_V1.0.2/MSDK/ble/app\app_iso_mgr.c ****         for (i = 0; i < BLE_GAP_KEY_LEN; i++) {
 851              		.loc 1 300 42 discriminator 3
 300:C:/Users/stapi/OneDrive/Desktop/GD32VW553/GD32VW55X_Wifi_BLE_SDK/GD32VW55x_RELEASE_V1.0.2/MSDK/ble/app\app_iso_mgr.c ****         for (i = 0; i < BLE_GAP_KEY_LEN; i++) {
 852              		.loc 1 300 21 discriminator 3
 300:C:/Users/stapi/OneDrive/Desktop/GD32VW553/GD32VW55X_Wifi_BLE_SDK/GD32VW55x_RELEASE_V1.0.2/MSDK/ble/app\app_iso_mgr.c ****         for (i = 0; i < BLE_GAP_KEY_LEN; i++) {
 853              		.loc 1 300 9 is_stmt 0 discriminator 3
 854 00b0 0509     		addi	s2,s2,1
 855              	.LVL61:
 856 00b2 E31159FF 		bne	s2,s5,.L67
 302:C:/Users/stapi/OneDrive/Desktop/GD32VW553/GD32VW55X_Wifi_BLE_SDK/GD32VW55x_RELEASE_V1.0.2/MSDK/ble/app\app_iso_mgr.c ****         }
 303:C:/Users/stapi/OneDrive/Desktop/GD32VW553/GD32VW55X_Wifi_BLE_SDK/GD32VW55x_RELEASE_V1.0.2/MSDK/ble/app\app_iso_mgr.c **** 
 304:C:/Users/stapi/OneDrive/Desktop/GD32VW553/GD32VW55X_Wifi_BLE_SDK/GD32VW55x_RELEASE_V1.0.2/MSDK/ble/app\app_iso_mgr.c ****         dbg_print(NOTICE, "\r\n");
 857              		.loc 1 304 9 is_stmt 1
 858              		.loc 1 304 9
 859 00b6 03C70400 		lbu	a4,%lo(global_debug_level)(s1)
 860 00ba 8947     		li	a5,2
 861 00bc 63FAE700 		bleu	a4,a5,.L64
 862              		.loc 1 304 9 discriminator 1
 863 00c0 37050000 		lui	a0,%hi(.LC2)
 864 00c4 13050500 		addi	a0,a0,%lo(.LC2)
 865 00c8 97000000 		call	co_printf
 865      E7800000 
 866              	.LVL62:
 867              	.L64:
 868              		.loc 1 304 9 discriminator 3
 869              	.LBE43:
 305:C:/Users/stapi/OneDrive/Desktop/GD32VW553/GD32VW55X_Wifi_BLE_SDK/GD32VW55x_RELEASE_V1.0.2/MSDK/ble/app\app_iso_mgr.c ****     }
 306:C:/Users/stapi/OneDrive/Desktop/GD32VW553/GD32VW55X_Wifi_BLE_SDK/GD32VW55x_RELEASE_V1.0.2/MSDK/ble/app\app_iso_mgr.c **** 
 307:C:/Users/stapi/OneDrive/Desktop/GD32VW553/GD32VW55X_Wifi_BLE_SDK/GD32VW55x_RELEASE_V1.0.2/MSDK/ble/app\app_iso_mgr.c ****     ble_iso_big_create(adv_idx, true, APP_BIG_HDL, p_param->num_bis, &big_param, p_param->encryptio
 870              		.loc 1 307 5 discriminator 3
 871 00d0 83478400 		lbu	a5,8(s0)
 872 00d4 83460400 		lbu	a3,0(s0)
 873 00d8 37080000 		lui	a6,%hi(.LANCHOR0)
 874 00dc 7800     		addi	a4,sp,12
 875 00de 13080800 		addi	a6,a6,%lo(.LANCHOR0)
 876 00e2 B337F000 		snez	a5,a5
 877 00e6 4146     		li	a2,16
 878 00e8 8545     		li	a1,1
 879 00ea 5285     		mv	a0,s4
 880 00ec 97000000 		call	ble_iso_big_create
 880      E7800000 
 881              	.LVL63:
 308:C:/Users/stapi/OneDrive/Desktop/GD32VW553/GD32VW55X_Wifi_BLE_SDK/GD32VW55x_RELEASE_V1.0.2/MSDK/ble/app\app_iso_mgr.c **** }
 882              		.loc 1 308 1 is_stmt 0 discriminator 3
 883 00f4 0561     		addi	sp,sp,32
 884              		.cfi_def_cfa_offset 0
 885 00f6 17030000 		tail	__riscv_restore_8
 885      67000300 
 886              		.cfi_restore 23
 887              		.cfi_restore 22
 888              		.cfi_restore 21
 889              		.cfi_restore 20
 890              		.cfi_restore 19
 891              		.cfi_restore 18
 892              		.cfi_restore 9
 893              		.cfi_restore 8
 894              		.cfi_restore 1
 895              		.cfi_def_cfa_offset -48
 896              		.cfi_endproc
 897              	.LFE14:
 899              		.section	.text.app_big_stop,"ax",@progbits
 900              		.align	1
 901              		.globl	app_big_stop
 903              	app_big_stop:
 904              	.LFB15:
 309:C:/Users/stapi/OneDrive/Desktop/GD32VW553/GD32VW55X_Wifi_BLE_SDK/GD32VW55x_RELEASE_V1.0.2/MSDK/ble/app\app_iso_mgr.c **** 
 310:C:/Users/stapi/OneDrive/Desktop/GD32VW553/GD32VW55X_Wifi_BLE_SDK/GD32VW55x_RELEASE_V1.0.2/MSDK/ble/app\app_iso_mgr.c **** /*!
 311:C:/Users/stapi/OneDrive/Desktop/GD32VW553/GD32VW55X_Wifi_BLE_SDK/GD32VW55x_RELEASE_V1.0.2/MSDK/ble/app\app_iso_mgr.c ****     \brief      Stop a BIG
 312:C:/Users/stapi/OneDrive/Desktop/GD32VW553/GD32VW55X_Wifi_BLE_SDK/GD32VW55x_RELEASE_V1.0.2/MSDK/ble/app\app_iso_mgr.c ****     \param[in]  group_lid: group local index
 313:C:/Users/stapi/OneDrive/Desktop/GD32VW553/GD32VW55X_Wifi_BLE_SDK/GD32VW55x_RELEASE_V1.0.2/MSDK/ble/app\app_iso_mgr.c ****     \param[out] none
 314:C:/Users/stapi/OneDrive/Desktop/GD32VW553/GD32VW55X_Wifi_BLE_SDK/GD32VW55x_RELEASE_V1.0.2/MSDK/ble/app\app_iso_mgr.c ****     \retval     none
 315:C:/Users/stapi/OneDrive/Desktop/GD32VW553/GD32VW55X_Wifi_BLE_SDK/GD32VW55x_RELEASE_V1.0.2/MSDK/ble/app\app_iso_mgr.c **** */
 316:C:/Users/stapi/OneDrive/Desktop/GD32VW553/GD32VW55X_Wifi_BLE_SDK/GD32VW55x_RELEASE_V1.0.2/MSDK/ble/app\app_iso_mgr.c **** void app_big_stop(uint8_t group_lid)
 317:C:/Users/stapi/OneDrive/Desktop/GD32VW553/GD32VW55X_Wifi_BLE_SDK/GD32VW55x_RELEASE_V1.0.2/MSDK/ble/app\app_iso_mgr.c **** {
 905              		.loc 1 317 1 is_stmt 1
 906              		.cfi_startproc
 907              	.LVL64:
 318:C:/Users/stapi/OneDrive/Desktop/GD32VW553/GD32VW55X_Wifi_BLE_SDK/GD32VW55x_RELEASE_V1.0.2/MSDK/ble/app\app_iso_mgr.c ****     ble_iso_big_terminate(group_lid);
 908              		.loc 1 318 5
 909 0000 17030000 		tail	ble_iso_big_terminate
 909      67000300 
 910              	.LVL65:
 911              		.cfi_endproc
 912              	.LFE15:
 914              		.section	.text.app_big_sync_create,"ax",@progbits
 915              		.align	1
 916              		.globl	app_big_sync_create
 918              	app_big_sync_create:
 919              	.LFB16:
 319:C:/Users/stapi/OneDrive/Desktop/GD32VW553/GD32VW55X_Wifi_BLE_SDK/GD32VW55x_RELEASE_V1.0.2/MSDK/ble/app\app_iso_mgr.c **** }
 320:C:/Users/stapi/OneDrive/Desktop/GD32VW553/GD32VW55X_Wifi_BLE_SDK/GD32VW55x_RELEASE_V1.0.2/MSDK/ble/app\app_iso_mgr.c **** 
 321:C:/Users/stapi/OneDrive/Desktop/GD32VW553/GD32VW55X_Wifi_BLE_SDK/GD32VW55x_RELEASE_V1.0.2/MSDK/ble/app\app_iso_mgr.c **** /*!
 322:C:/Users/stapi/OneDrive/Desktop/GD32VW553/GD32VW55X_Wifi_BLE_SDK/GD32VW55x_RELEASE_V1.0.2/MSDK/ble/app\app_iso_mgr.c ****     \brief      Create a BIG sync
 323:C:/Users/stapi/OneDrive/Desktop/GD32VW553/GD32VW55X_Wifi_BLE_SDK/GD32VW55x_RELEASE_V1.0.2/MSDK/ble/app\app_iso_mgr.c ****     \param[in]  sync_idx: periodic sync index
 324:C:/Users/stapi/OneDrive/Desktop/GD32VW553/GD32VW55X_Wifi_BLE_SDK/GD32VW55x_RELEASE_V1.0.2/MSDK/ble/app\app_iso_mgr.c ****     \param[in]  num_bis: BIS number to sync
 325:C:/Users/stapi/OneDrive/Desktop/GD32VW553/GD32VW55X_Wifi_BLE_SDK/GD32VW55x_RELEASE_V1.0.2/MSDK/ble/app\app_iso_mgr.c ****     \param[in]  encyption: true to sync encrypted BIS, otherwise false
 326:C:/Users/stapi/OneDrive/Desktop/GD32VW553/GD32VW55X_Wifi_BLE_SDK/GD32VW55x_RELEASE_V1.0.2/MSDK/ble/app\app_iso_mgr.c ****     \param[out] none
 327:C:/Users/stapi/OneDrive/Desktop/GD32VW553/GD32VW55X_Wifi_BLE_SDK/GD32VW55x_RELEASE_V1.0.2/MSDK/ble/app\app_iso_mgr.c ****     \retval     none
 328:C:/Users/stapi/OneDrive/Desktop/GD32VW553/GD32VW55X_Wifi_BLE_SDK/GD32VW55x_RELEASE_V1.0.2/MSDK/ble/app\app_iso_mgr.c **** */
 329:C:/Users/stapi/OneDrive/Desktop/GD32VW553/GD32VW55X_Wifi_BLE_SDK/GD32VW55x_RELEASE_V1.0.2/MSDK/ble/app\app_iso_mgr.c **** void app_big_sync_create(uint8_t sync_idx, uint8_t num_bis, bool encyption)
 330:C:/Users/stapi/OneDrive/Desktop/GD32VW553/GD32VW55X_Wifi_BLE_SDK/GD32VW55x_RELEASE_V1.0.2/MSDK/ble/app\app_iso_mgr.c **** {
 920              		.loc 1 330 1
 921              		.cfi_startproc
 922              	.LVL66:
 331:C:/Users/stapi/OneDrive/Desktop/GD32VW553/GD32VW55X_Wifi_BLE_SDK/GD32VW55x_RELEASE_V1.0.2/MSDK/ble/app\app_iso_mgr.c ****     ble_iso_big_sync_create(sync_idx, APP_BIG_HDL, num_bis, 0x100, 0, encyption, big_bc);
 923              		.loc 1 331 5
 924 0000 37080000 		lui	a6,%hi(.LANCHOR0)
 330:C:/Users/stapi/OneDrive/Desktop/GD32VW553/GD32VW55X_Wifi_BLE_SDK/GD32VW55x_RELEASE_V1.0.2/MSDK/ble/app\app_iso_mgr.c ****     ble_iso_big_sync_create(sync_idx, APP_BIG_HDL, num_bis, 0x100, 0, encyption, big_bc);
 925              		.loc 1 330 1 is_stmt 0
 926 0004 B287     		mv	a5,a2
 927              		.loc 1 331 5
 928 0006 13080800 		addi	a6,a6,%lo(.LANCHOR0)
 929 000a 2E86     		mv	a2,a1
 930              	.LVL67:
 931 000c 0147     		li	a4,0
 932 000e 93060010 		li	a3,256
 933 0012 C145     		li	a1,16
 934              	.LVL68:
 935 0014 17030000 		tail	ble_iso_big_sync_create
 935      67000300 
 936              	.LVL69:
 937              		.cfi_endproc
 938              	.LFE16:
 940              		.section	.text.app_big_sync_stop,"ax",@progbits
 941              		.align	1
 942              		.globl	app_big_sync_stop
 944              	app_big_sync_stop:
 945              	.LFB17:
 332:C:/Users/stapi/OneDrive/Desktop/GD32VW553/GD32VW55X_Wifi_BLE_SDK/GD32VW55x_RELEASE_V1.0.2/MSDK/ble/app\app_iso_mgr.c **** }
 333:C:/Users/stapi/OneDrive/Desktop/GD32VW553/GD32VW55X_Wifi_BLE_SDK/GD32VW55x_RELEASE_V1.0.2/MSDK/ble/app\app_iso_mgr.c **** 
 334:C:/Users/stapi/OneDrive/Desktop/GD32VW553/GD32VW55X_Wifi_BLE_SDK/GD32VW55x_RELEASE_V1.0.2/MSDK/ble/app\app_iso_mgr.c **** /*!
 335:C:/Users/stapi/OneDrive/Desktop/GD32VW553/GD32VW55X_Wifi_BLE_SDK/GD32VW55x_RELEASE_V1.0.2/MSDK/ble/app\app_iso_mgr.c ****     \brief      Stop a BIG sync
 336:C:/Users/stapi/OneDrive/Desktop/GD32VW553/GD32VW55X_Wifi_BLE_SDK/GD32VW55x_RELEASE_V1.0.2/MSDK/ble/app\app_iso_mgr.c ****     \param[in]  group_lid: group local index
 337:C:/Users/stapi/OneDrive/Desktop/GD32VW553/GD32VW55X_Wifi_BLE_SDK/GD32VW55x_RELEASE_V1.0.2/MSDK/ble/app\app_iso_mgr.c ****     \param[out] none
 338:C:/Users/stapi/OneDrive/Desktop/GD32VW553/GD32VW55X_Wifi_BLE_SDK/GD32VW55x_RELEASE_V1.0.2/MSDK/ble/app\app_iso_mgr.c ****     \retval     none
 339:C:/Users/stapi/OneDrive/Desktop/GD32VW553/GD32VW55X_Wifi_BLE_SDK/GD32VW55x_RELEASE_V1.0.2/MSDK/ble/app\app_iso_mgr.c **** */
 340:C:/Users/stapi/OneDrive/Desktop/GD32VW553/GD32VW55X_Wifi_BLE_SDK/GD32VW55x_RELEASE_V1.0.2/MSDK/ble/app\app_iso_mgr.c **** void app_big_sync_stop(uint8_t group_lid)
 341:C:/Users/stapi/OneDrive/Desktop/GD32VW553/GD32VW55X_Wifi_BLE_SDK/GD32VW55x_RELEASE_V1.0.2/MSDK/ble/app\app_iso_mgr.c **** {
 946              		.loc 1 341 1 is_stmt 1
 947              		.cfi_startproc
 948              	.LVL70:
 342:C:/Users/stapi/OneDrive/Desktop/GD32VW553/GD32VW55X_Wifi_BLE_SDK/GD32VW55x_RELEASE_V1.0.2/MSDK/ble/app\app_iso_mgr.c ****     ble_iso_big_sync_terminate(group_lid);
 949              		.loc 1 342 5
 950 0000 17030000 		tail	ble_iso_big_sync_terminate
 950      67000300 
 951              	.LVL71:
 952              		.cfi_endproc
 953              	.LFE17:
 955              		.section	.text.app_cig_create,"ax",@progbits
 956              		.align	1
 957              		.globl	app_cig_create
 959              	app_cig_create:
 960              	.LFB18:
 343:C:/Users/stapi/OneDrive/Desktop/GD32VW553/GD32VW55X_Wifi_BLE_SDK/GD32VW55x_RELEASE_V1.0.2/MSDK/ble/app\app_iso_mgr.c **** }
 344:C:/Users/stapi/OneDrive/Desktop/GD32VW553/GD32VW55X_Wifi_BLE_SDK/GD32VW55x_RELEASE_V1.0.2/MSDK/ble/app\app_iso_mgr.c **** #endif // (BLE_APP_BIS_SUPPORT)
 345:C:/Users/stapi/OneDrive/Desktop/GD32VW553/GD32VW55X_Wifi_BLE_SDK/GD32VW55x_RELEASE_V1.0.2/MSDK/ble/app\app_iso_mgr.c **** 
 346:C:/Users/stapi/OneDrive/Desktop/GD32VW553/GD32VW55X_Wifi_BLE_SDK/GD32VW55x_RELEASE_V1.0.2/MSDK/ble/app\app_iso_mgr.c **** #if (BLE_APP_CIS_SUPPORT)
 347:C:/Users/stapi/OneDrive/Desktop/GD32VW553/GD32VW55X_Wifi_BLE_SDK/GD32VW55x_RELEASE_V1.0.2/MSDK/ble/app\app_iso_mgr.c **** /*!
 348:C:/Users/stapi/OneDrive/Desktop/GD32VW553/GD32VW55X_Wifi_BLE_SDK/GD32VW55x_RELEASE_V1.0.2/MSDK/ble/app\app_iso_mgr.c ****     \brief      Create a CIG
 349:C:/Users/stapi/OneDrive/Desktop/GD32VW553/GD32VW55X_Wifi_BLE_SDK/GD32VW55x_RELEASE_V1.0.2/MSDK/ble/app\app_iso_mgr.c ****     \param[in]  conn_idx: associated BLE connection index
 350:C:/Users/stapi/OneDrive/Desktop/GD32VW553/GD32VW55X_Wifi_BLE_SDK/GD32VW55x_RELEASE_V1.0.2/MSDK/ble/app\app_iso_mgr.c ****     \param[in]  p_param: pointer to CIG parameter
 351:C:/Users/stapi/OneDrive/Desktop/GD32VW553/GD32VW55X_Wifi_BLE_SDK/GD32VW55x_RELEASE_V1.0.2/MSDK/ble/app\app_iso_mgr.c ****     \param[out] none
 352:C:/Users/stapi/OneDrive/Desktop/GD32VW553/GD32VW55X_Wifi_BLE_SDK/GD32VW55x_RELEASE_V1.0.2/MSDK/ble/app\app_iso_mgr.c ****     \retval     none
 353:C:/Users/stapi/OneDrive/Desktop/GD32VW553/GD32VW55X_Wifi_BLE_SDK/GD32VW55x_RELEASE_V1.0.2/MSDK/ble/app\app_iso_mgr.c **** */
 354:C:/Users/stapi/OneDrive/Desktop/GD32VW553/GD32VW55X_Wifi_BLE_SDK/GD32VW55x_RELEASE_V1.0.2/MSDK/ble/app\app_iso_mgr.c **** void app_cig_create(uint8_t conn_idx, app_cig_param_t *p_param)
 355:C:/Users/stapi/OneDrive/Desktop/GD32VW553/GD32VW55X_Wifi_BLE_SDK/GD32VW55x_RELEASE_V1.0.2/MSDK/ble/app\app_iso_mgr.c **** {
 961              		.loc 1 355 1
 962              		.cfi_startproc
 963              	.LVL72:
 964 0000 17030000 		call	t0,__riscv_save_0
 964      E7020300 
 965              		.cfi_offset 1, -4
 966              		.cfi_def_cfa_offset 16
 356:C:/Users/stapi/OneDrive/Desktop/GD32VW553/GD32VW55X_Wifi_BLE_SDK/GD32VW55x_RELEASE_V1.0.2/MSDK/ble/app\app_iso_mgr.c ****     ble_iso_cig_param_t cig_param;
 967              		.loc 1 356 5
 357:C:/Users/stapi/OneDrive/Desktop/GD32VW553/GD32VW55X_Wifi_BLE_SDK/GD32VW55x_RELEASE_V1.0.2/MSDK/ble/app\app_iso_mgr.c ****     ble_iso_cis_param_t cis_param;
 968              		.loc 1 357 5
 358:C:/Users/stapi/OneDrive/Desktop/GD32VW553/GD32VW55X_Wifi_BLE_SDK/GD32VW55x_RELEASE_V1.0.2/MSDK/ble/app\app_iso_mgr.c **** 
 359:C:/Users/stapi/OneDrive/Desktop/GD32VW553/GD32VW55X_Wifi_BLE_SDK/GD32VW55x_RELEASE_V1.0.2/MSDK/ble/app\app_iso_mgr.c ****     cig_param.test_param.sdu_intv_m2s_us = 100000;     // 100ms
 969              		.loc 1 359 5
 970              		.loc 1 359 42 is_stmt 0
 971 0008 E167     		li	a5,98304
 355:C:/Users/stapi/OneDrive/Desktop/GD32VW553/GD32VW55X_Wifi_BLE_SDK/GD32VW55x_RELEASE_V1.0.2/MSDK/ble/app\app_iso_mgr.c ****     ble_iso_cig_param_t cig_param;
 972              		.loc 1 355 1
 973 000a 0111     		addi	sp,sp,-32
 974              		.cfi_def_cfa_offset 48
 975              		.loc 1 359 42
 976 000c 9387076A 		addi	a5,a5,1696
 977 0010 3EC6     		sw	a5,12(sp)
 360:C:/Users/stapi/OneDrive/Desktop/GD32VW553/GD32VW55X_Wifi_BLE_SDK/GD32VW55x_RELEASE_V1.0.2/MSDK/ble/app\app_iso_mgr.c ****     cig_param.test_param.sdu_intv_s2m_us = 100000;     // 100ms
 978              		.loc 1 360 5 is_stmt 1
 979              		.loc 1 360 42 is_stmt 0
 980 0012 3EC8     		sw	a5,16(sp)
 361:C:/Users/stapi/OneDrive/Desktop/GD32VW553/GD32VW55X_Wifi_BLE_SDK/GD32VW55x_RELEASE_V1.0.2/MSDK/ble/app\app_iso_mgr.c ****     cig_param.test_param.packing = p_param->packing;
 981              		.loc 1 361 5 is_stmt 1
 982              		.loc 1 361 34 is_stmt 0
 983 0014 83C75500 		lbu	a5,5(a1)
 362:C:/Users/stapi/OneDrive/Desktop/GD32VW553/GD32VW55X_Wifi_BLE_SDK/GD32VW55x_RELEASE_V1.0.2/MSDK/ble/app\app_iso_mgr.c ****     cig_param.test_param.framing = p_param->framing;
 363:C:/Users/stapi/OneDrive/Desktop/GD32VW553/GD32VW55X_Wifi_BLE_SDK/GD32VW55x_RELEASE_V1.0.2/MSDK/ble/app\app_iso_mgr.c ****     cig_param.test_param.sca = 0;
 364:C:/Users/stapi/OneDrive/Desktop/GD32VW553/GD32VW55X_Wifi_BLE_SDK/GD32VW55x_RELEASE_V1.0.2/MSDK/ble/app\app_iso_mgr.c ****     cig_param.test_param.ft_m2s_ms = p_param->ft;
 365:C:/Users/stapi/OneDrive/Desktop/GD32VW553/GD32VW55X_Wifi_BLE_SDK/GD32VW55x_RELEASE_V1.0.2/MSDK/ble/app\app_iso_mgr.c ****     cig_param.test_param.ft_s2m_ms = p_param->ft;
 366:C:/Users/stapi/OneDrive/Desktop/GD32VW553/GD32VW55X_Wifi_BLE_SDK/GD32VW55x_RELEASE_V1.0.2/MSDK/ble/app\app_iso_mgr.c ****     cig_param.test_param.iso_intv = 80;         // 100ms
 367:C:/Users/stapi/OneDrive/Desktop/GD32VW553/GD32VW55X_Wifi_BLE_SDK/GD32VW55x_RELEASE_V1.0.2/MSDK/ble/app\app_iso_mgr.c **** 
 368:C:/Users/stapi/OneDrive/Desktop/GD32VW553/GD32VW55X_Wifi_BLE_SDK/GD32VW55x_RELEASE_V1.0.2/MSDK/ble/app\app_iso_mgr.c ****     cis_param.test_param.max_sdu_m2s = p_param->max_sdu;
 369:C:/Users/stapi/OneDrive/Desktop/GD32VW553/GD32VW55X_Wifi_BLE_SDK/GD32VW55x_RELEASE_V1.0.2/MSDK/ble/app\app_iso_mgr.c ****     cis_param.test_param.max_sdu_s2m = p_param->max_sdu;
 370:C:/Users/stapi/OneDrive/Desktop/GD32VW553/GD32VW55X_Wifi_BLE_SDK/GD32VW55x_RELEASE_V1.0.2/MSDK/ble/app\app_iso_mgr.c ****     cis_param.test_param.phy_m2s = p_param->phy;
 371:C:/Users/stapi/OneDrive/Desktop/GD32VW553/GD32VW55X_Wifi_BLE_SDK/GD32VW55x_RELEASE_V1.0.2/MSDK/ble/app\app_iso_mgr.c ****     cis_param.test_param.phy_s2m = p_param->phy;
 372:C:/Users/stapi/OneDrive/Desktop/GD32VW553/GD32VW55X_Wifi_BLE_SDK/GD32VW55x_RELEASE_V1.0.2/MSDK/ble/app\app_iso_mgr.c ****     cis_param.test_param.max_pdu_m2s = 0xFB;
 373:C:/Users/stapi/OneDrive/Desktop/GD32VW553/GD32VW55X_Wifi_BLE_SDK/GD32VW55x_RELEASE_V1.0.2/MSDK/ble/app\app_iso_mgr.c ****     cis_param.test_param.max_pdu_s2m = 0xFB;
 374:C:/Users/stapi/OneDrive/Desktop/GD32VW553/GD32VW55X_Wifi_BLE_SDK/GD32VW55x_RELEASE_V1.0.2/MSDK/ble/app\app_iso_mgr.c ****     cis_param.test_param.bn_m2s = p_param->bn;
 375:C:/Users/stapi/OneDrive/Desktop/GD32VW553/GD32VW55X_Wifi_BLE_SDK/GD32VW55x_RELEASE_V1.0.2/MSDK/ble/app\app_iso_mgr.c ****     cis_param.test_param.bn_s2m = p_param->bn;
 376:C:/Users/stapi/OneDrive/Desktop/GD32VW553/GD32VW55X_Wifi_BLE_SDK/GD32VW55x_RELEASE_V1.0.2/MSDK/ble/app\app_iso_mgr.c ****     cis_param.test_param.nse = p_param->nse;
 377:C:/Users/stapi/OneDrive/Desktop/GD32VW553/GD32VW55X_Wifi_BLE_SDK/GD32VW55x_RELEASE_V1.0.2/MSDK/ble/app\app_iso_mgr.c **** 
 378:C:/Users/stapi/OneDrive/Desktop/GD32VW553/GD32VW55X_Wifi_BLE_SDK/GD32VW55x_RELEASE_V1.0.2/MSDK/ble/app\app_iso_mgr.c ****     ble_iso_cig_create(conn_idx, APP_CIG_ID, p_param->num_cis, true, &cig_param, &cis_param);
 984              		.loc 1 378 5
 985 0018 03C60500 		lbu	a2,0(a1)
 986 001c 7800     		addi	a4,sp,12
 361:C:/Users/stapi/OneDrive/Desktop/GD32VW553/GD32VW55X_Wifi_BLE_SDK/GD32VW55x_RELEASE_V1.0.2/MSDK/ble/app\app_iso_mgr.c ****     cig_param.test_param.packing = p_param->packing;
 987              		.loc 1 361 34
 988 001e 230AF100 		sb	a5,20(sp)
 362:C:/Users/stapi/OneDrive/Desktop/GD32VW553/GD32VW55X_Wifi_BLE_SDK/GD32VW55x_RELEASE_V1.0.2/MSDK/ble/app\app_iso_mgr.c ****     cig_param.test_param.framing = p_param->framing;
 989              		.loc 1 362 5 is_stmt 1
 362:C:/Users/stapi/OneDrive/Desktop/GD32VW553/GD32VW55X_Wifi_BLE_SDK/GD32VW55x_RELEASE_V1.0.2/MSDK/ble/app\app_iso_mgr.c ****     cig_param.test_param.framing = p_param->framing;
 990              		.loc 1 362 34 is_stmt 0
 991 0022 83C76500 		lbu	a5,6(a1)
 992              		.loc 1 378 5
 993 0026 8546     		li	a3,1
 363:C:/Users/stapi/OneDrive/Desktop/GD32VW553/GD32VW55X_Wifi_BLE_SDK/GD32VW55x_RELEASE_V1.0.2/MSDK/ble/app\app_iso_mgr.c ****     cig_param.test_param.ft_m2s_ms = p_param->ft;
 994              		.loc 1 363 30
 995 0028 230B0100 		sb	zero,22(sp)
 362:C:/Users/stapi/OneDrive/Desktop/GD32VW553/GD32VW55X_Wifi_BLE_SDK/GD32VW55x_RELEASE_V1.0.2/MSDK/ble/app\app_iso_mgr.c ****     cig_param.test_param.framing = p_param->framing;
 996              		.loc 1 362 34
 997 002c A30AF100 		sb	a5,21(sp)
 363:C:/Users/stapi/OneDrive/Desktop/GD32VW553/GD32VW55X_Wifi_BLE_SDK/GD32VW55x_RELEASE_V1.0.2/MSDK/ble/app\app_iso_mgr.c ****     cig_param.test_param.ft_m2s_ms = p_param->ft;
 998              		.loc 1 363 5 is_stmt 1
 364:C:/Users/stapi/OneDrive/Desktop/GD32VW553/GD32VW55X_Wifi_BLE_SDK/GD32VW55x_RELEASE_V1.0.2/MSDK/ble/app\app_iso_mgr.c ****     cig_param.test_param.ft_s2m_ms = p_param->ft;
 999              		.loc 1 364 5
 364:C:/Users/stapi/OneDrive/Desktop/GD32VW553/GD32VW55X_Wifi_BLE_SDK/GD32VW55x_RELEASE_V1.0.2/MSDK/ble/app\app_iso_mgr.c ****     cig_param.test_param.ft_s2m_ms = p_param->ft;
 1000              		.loc 1 364 45 is_stmt 0
 1001 0030 83C72500 		lbu	a5,2(a1)
 364:C:/Users/stapi/OneDrive/Desktop/GD32VW553/GD32VW55X_Wifi_BLE_SDK/GD32VW55x_RELEASE_V1.0.2/MSDK/ble/app\app_iso_mgr.c ****     cig_param.test_param.ft_s2m_ms = p_param->ft;
 1002              		.loc 1 364 36
 1003 0034 231CF100 		sh	a5,24(sp)
 365:C:/Users/stapi/OneDrive/Desktop/GD32VW553/GD32VW55X_Wifi_BLE_SDK/GD32VW55x_RELEASE_V1.0.2/MSDK/ble/app\app_iso_mgr.c ****     cig_param.test_param.iso_intv = 80;         // 100ms
 1004              		.loc 1 365 5 is_stmt 1
 365:C:/Users/stapi/OneDrive/Desktop/GD32VW553/GD32VW55X_Wifi_BLE_SDK/GD32VW55x_RELEASE_V1.0.2/MSDK/ble/app\app_iso_mgr.c ****     cig_param.test_param.iso_intv = 80;         // 100ms
 1005              		.loc 1 365 36 is_stmt 0
 1006 0038 231DF100 		sh	a5,26(sp)
 366:C:/Users/stapi/OneDrive/Desktop/GD32VW553/GD32VW55X_Wifi_BLE_SDK/GD32VW55x_RELEASE_V1.0.2/MSDK/ble/app\app_iso_mgr.c **** 
 1007              		.loc 1 366 5 is_stmt 1
 366:C:/Users/stapi/OneDrive/Desktop/GD32VW553/GD32VW55X_Wifi_BLE_SDK/GD32VW55x_RELEASE_V1.0.2/MSDK/ble/app\app_iso_mgr.c **** 
 1008              		.loc 1 366 35 is_stmt 0
 1009 003c 93070005 		li	a5,80
 1010 0040 231EF100 		sh	a5,28(sp)
 368:C:/Users/stapi/OneDrive/Desktop/GD32VW553/GD32VW55X_Wifi_BLE_SDK/GD32VW55x_RELEASE_V1.0.2/MSDK/ble/app\app_iso_mgr.c ****     cis_param.test_param.max_sdu_s2m = p_param->max_sdu;
 1011              		.loc 1 368 5 is_stmt 1
 368:C:/Users/stapi/OneDrive/Desktop/GD32VW553/GD32VW55X_Wifi_BLE_SDK/GD32VW55x_RELEASE_V1.0.2/MSDK/ble/app\app_iso_mgr.c ****     cis_param.test_param.max_sdu_s2m = p_param->max_sdu;
 1012              		.loc 1 368 47 is_stmt 0
 1013 0044 83D78500 		lhu	a5,8(a1)
 368:C:/Users/stapi/OneDrive/Desktop/GD32VW553/GD32VW55X_Wifi_BLE_SDK/GD32VW55x_RELEASE_V1.0.2/MSDK/ble/app\app_iso_mgr.c ****     cis_param.test_param.max_sdu_s2m = p_param->max_sdu;
 1014              		.loc 1 368 38
 1015 0048 2310F100 		sh	a5,0(sp)
 369:C:/Users/stapi/OneDrive/Desktop/GD32VW553/GD32VW55X_Wifi_BLE_SDK/GD32VW55x_RELEASE_V1.0.2/MSDK/ble/app\app_iso_mgr.c ****     cis_param.test_param.phy_m2s = p_param->phy;
 1016              		.loc 1 369 5 is_stmt 1
 369:C:/Users/stapi/OneDrive/Desktop/GD32VW553/GD32VW55X_Wifi_BLE_SDK/GD32VW55x_RELEASE_V1.0.2/MSDK/ble/app\app_iso_mgr.c ****     cis_param.test_param.phy_m2s = p_param->phy;
 1017              		.loc 1 369 38 is_stmt 0
 1018 004c 2311F100 		sh	a5,2(sp)
 370:C:/Users/stapi/OneDrive/Desktop/GD32VW553/GD32VW55X_Wifi_BLE_SDK/GD32VW55x_RELEASE_V1.0.2/MSDK/ble/app\app_iso_mgr.c ****     cis_param.test_param.phy_s2m = p_param->phy;
 1019              		.loc 1 370 5 is_stmt 1
 370:C:/Users/stapi/OneDrive/Desktop/GD32VW553/GD32VW55X_Wifi_BLE_SDK/GD32VW55x_RELEASE_V1.0.2/MSDK/ble/app\app_iso_mgr.c ****     cis_param.test_param.phy_s2m = p_param->phy;
 1020              		.loc 1 370 43 is_stmt 0
 1021 0050 83C74500 		lbu	a5,4(a1)
 370:C:/Users/stapi/OneDrive/Desktop/GD32VW553/GD32VW55X_Wifi_BLE_SDK/GD32VW55x_RELEASE_V1.0.2/MSDK/ble/app\app_iso_mgr.c ****     cis_param.test_param.phy_s2m = p_param->phy;
 1022              		.loc 1 370 34
 1023 0054 2302F100 		sb	a5,4(sp)
 371:C:/Users/stapi/OneDrive/Desktop/GD32VW553/GD32VW55X_Wifi_BLE_SDK/GD32VW55x_RELEASE_V1.0.2/MSDK/ble/app\app_iso_mgr.c ****     cis_param.test_param.max_pdu_m2s = 0xFB;
 1024              		.loc 1 371 5 is_stmt 1
 371:C:/Users/stapi/OneDrive/Desktop/GD32VW553/GD32VW55X_Wifi_BLE_SDK/GD32VW55x_RELEASE_V1.0.2/MSDK/ble/app\app_iso_mgr.c ****     cis_param.test_param.max_pdu_m2s = 0xFB;
 1025              		.loc 1 371 34 is_stmt 0
 1026 0058 A302F100 		sb	a5,5(sp)
 372:C:/Users/stapi/OneDrive/Desktop/GD32VW553/GD32VW55X_Wifi_BLE_SDK/GD32VW55x_RELEASE_V1.0.2/MSDK/ble/app\app_iso_mgr.c ****     cis_param.test_param.max_pdu_s2m = 0xFB;
 1027              		.loc 1 372 5 is_stmt 1
 373:C:/Users/stapi/OneDrive/Desktop/GD32VW553/GD32VW55X_Wifi_BLE_SDK/GD32VW55x_RELEASE_V1.0.2/MSDK/ble/app\app_iso_mgr.c ****     cis_param.test_param.bn_m2s = p_param->bn;
 1028              		.loc 1 373 5
 372:C:/Users/stapi/OneDrive/Desktop/GD32VW553/GD32VW55X_Wifi_BLE_SDK/GD32VW55x_RELEASE_V1.0.2/MSDK/ble/app\app_iso_mgr.c ****     cis_param.test_param.max_pdu_s2m = 0xFB;
 1029              		.loc 1 372 38 is_stmt 0
 1030 005c 9307B0BF 		li	a5,-1029
 1031 0060 2313F100 		sh	a5,6(sp)
 374:C:/Users/stapi/OneDrive/Desktop/GD32VW553/GD32VW55X_Wifi_BLE_SDK/GD32VW55x_RELEASE_V1.0.2/MSDK/ble/app\app_iso_mgr.c ****     cis_param.test_param.bn_s2m = p_param->bn;
 1032              		.loc 1 374 5 is_stmt 1
 374:C:/Users/stapi/OneDrive/Desktop/GD32VW553/GD32VW55X_Wifi_BLE_SDK/GD32VW55x_RELEASE_V1.0.2/MSDK/ble/app\app_iso_mgr.c ****     cis_param.test_param.bn_s2m = p_param->bn;
 1033              		.loc 1 374 42 is_stmt 0
 1034 0064 83C73500 		lbu	a5,3(a1)
 374:C:/Users/stapi/OneDrive/Desktop/GD32VW553/GD32VW55X_Wifi_BLE_SDK/GD32VW55x_RELEASE_V1.0.2/MSDK/ble/app\app_iso_mgr.c ****     cis_param.test_param.bn_s2m = p_param->bn;
 1035              		.loc 1 374 33
 1036 0068 2304F100 		sb	a5,8(sp)
 375:C:/Users/stapi/OneDrive/Desktop/GD32VW553/GD32VW55X_Wifi_BLE_SDK/GD32VW55x_RELEASE_V1.0.2/MSDK/ble/app\app_iso_mgr.c ****     cis_param.test_param.nse = p_param->nse;
 1037              		.loc 1 375 5 is_stmt 1
 375:C:/Users/stapi/OneDrive/Desktop/GD32VW553/GD32VW55X_Wifi_BLE_SDK/GD32VW55x_RELEASE_V1.0.2/MSDK/ble/app\app_iso_mgr.c ****     cis_param.test_param.nse = p_param->nse;
 1038              		.loc 1 375 33 is_stmt 0
 1039 006c A304F100 		sb	a5,9(sp)
 376:C:/Users/stapi/OneDrive/Desktop/GD32VW553/GD32VW55X_Wifi_BLE_SDK/GD32VW55x_RELEASE_V1.0.2/MSDK/ble/app\app_iso_mgr.c **** 
 1040              		.loc 1 376 5 is_stmt 1
 376:C:/Users/stapi/OneDrive/Desktop/GD32VW553/GD32VW55X_Wifi_BLE_SDK/GD32VW55x_RELEASE_V1.0.2/MSDK/ble/app\app_iso_mgr.c **** 
 1041              		.loc 1 376 30 is_stmt 0
 1042 0070 83C71500 		lbu	a5,1(a1)
 1043              		.loc 1 378 5
 1044 0074 93050002 		li	a1,32
 1045              	.LVL73:
 376:C:/Users/stapi/OneDrive/Desktop/GD32VW553/GD32VW55X_Wifi_BLE_SDK/GD32VW55x_RELEASE_V1.0.2/MSDK/ble/app\app_iso_mgr.c **** 
 1046              		.loc 1 376 30
 1047 0078 2305F100 		sb	a5,10(sp)
 1048              		.loc 1 378 5 is_stmt 1
 1049 007c 8A87     		mv	a5,sp
 1050 007e 97000000 		call	ble_iso_cig_create
 1050      E7800000 
 1051              	.LVL74:
 379:C:/Users/stapi/OneDrive/Desktop/GD32VW553/GD32VW55X_Wifi_BLE_SDK/GD32VW55x_RELEASE_V1.0.2/MSDK/ble/app\app_iso_mgr.c **** }
 1052              		.loc 1 379 1 is_stmt 0
 1053 0086 0561     		addi	sp,sp,32
 1054              		.cfi_def_cfa_offset 0
 1055 0088 17030000 		tail	__riscv_restore_0
 1055      67000300 
 1056              		.cfi_restore 1
 1057              		.cfi_def_cfa_offset -16
 1058              		.cfi_endproc
 1059              	.LFE18:
 1061              		.section	.text.app_cis_prepare,"ax",@progbits
 1062              		.align	1
 1063              		.globl	app_cis_prepare
 1065              	app_cis_prepare:
 1066              	.LFB19:
 380:C:/Users/stapi/OneDrive/Desktop/GD32VW553/GD32VW55X_Wifi_BLE_SDK/GD32VW55x_RELEASE_V1.0.2/MSDK/ble/app\app_iso_mgr.c **** 
 381:C:/Users/stapi/OneDrive/Desktop/GD32VW553/GD32VW55X_Wifi_BLE_SDK/GD32VW55x_RELEASE_V1.0.2/MSDK/ble/app\app_iso_mgr.c **** /*!
 382:C:/Users/stapi/OneDrive/Desktop/GD32VW553/GD32VW55X_Wifi_BLE_SDK/GD32VW55x_RELEASE_V1.0.2/MSDK/ble/app\app_iso_mgr.c ****     \brief      Prepare a CIS to be connect
 383:C:/Users/stapi/OneDrive/Desktop/GD32VW553/GD32VW55X_Wifi_BLE_SDK/GD32VW55x_RELEASE_V1.0.2/MSDK/ble/app\app_iso_mgr.c ****     \param[in]  conn_idx: associated BLE connection index
 384:C:/Users/stapi/OneDrive/Desktop/GD32VW553/GD32VW55X_Wifi_BLE_SDK/GD32VW55x_RELEASE_V1.0.2/MSDK/ble/app\app_iso_mgr.c ****     \param[in]  cis_id: CIS ID
 385:C:/Users/stapi/OneDrive/Desktop/GD32VW553/GD32VW55X_Wifi_BLE_SDK/GD32VW55x_RELEASE_V1.0.2/MSDK/ble/app\app_iso_mgr.c ****     \param[out] none
 386:C:/Users/stapi/OneDrive/Desktop/GD32VW553/GD32VW55X_Wifi_BLE_SDK/GD32VW55x_RELEASE_V1.0.2/MSDK/ble/app\app_iso_mgr.c ****     \retval     none
 387:C:/Users/stapi/OneDrive/Desktop/GD32VW553/GD32VW55X_Wifi_BLE_SDK/GD32VW55x_RELEASE_V1.0.2/MSDK/ble/app\app_iso_mgr.c **** */
 388:C:/Users/stapi/OneDrive/Desktop/GD32VW553/GD32VW55X_Wifi_BLE_SDK/GD32VW55x_RELEASE_V1.0.2/MSDK/ble/app\app_iso_mgr.c **** void app_cis_prepare(uint8_t conidx, uint8_t cis_id)
 389:C:/Users/stapi/OneDrive/Desktop/GD32VW553/GD32VW55X_Wifi_BLE_SDK/GD32VW55x_RELEASE_V1.0.2/MSDK/ble/app\app_iso_mgr.c **** {
 1067              		.loc 1 389 1 is_stmt 1
 1068              		.cfi_startproc
 1069              	.LVL75:
 390:C:/Users/stapi/OneDrive/Desktop/GD32VW553/GD32VW55X_Wifi_BLE_SDK/GD32VW55x_RELEASE_V1.0.2/MSDK/ble/app\app_iso_mgr.c ****     ble_iso_cis_prepare(conidx, APP_CIG_ID, cis_id);
 1070              		.loc 1 390 5
 389:C:/Users/stapi/OneDrive/Desktop/GD32VW553/GD32VW55X_Wifi_BLE_SDK/GD32VW55x_RELEASE_V1.0.2/MSDK/ble/app\app_iso_mgr.c ****     ble_iso_cis_prepare(conidx, APP_CIG_ID, cis_id);
 1071              		.loc 1 389 1 is_stmt 0
 1072 0000 2E86     		mv	a2,a1
 1073              		.loc 1 390 5
 1074 0002 93050002 		li	a1,32
 1075              	.LVL76:
 1076 0006 17030000 		tail	ble_iso_cis_prepare
 1076      67000300 
 1077              	.LVL77:
 1078              		.cfi_endproc
 1079              	.LFE19:
 1081              		.section	.text.app_cis_disconn,"ax",@progbits
 1082              		.align	1
 1083              		.globl	app_cis_disconn
 1085              	app_cis_disconn:
 1086              	.LFB20:
 391:C:/Users/stapi/OneDrive/Desktop/GD32VW553/GD32VW55X_Wifi_BLE_SDK/GD32VW55x_RELEASE_V1.0.2/MSDK/ble/app\app_iso_mgr.c **** }
 392:C:/Users/stapi/OneDrive/Desktop/GD32VW553/GD32VW55X_Wifi_BLE_SDK/GD32VW55x_RELEASE_V1.0.2/MSDK/ble/app\app_iso_mgr.c **** 
 393:C:/Users/stapi/OneDrive/Desktop/GD32VW553/GD32VW55X_Wifi_BLE_SDK/GD32VW55x_RELEASE_V1.0.2/MSDK/ble/app\app_iso_mgr.c **** /*!
 394:C:/Users/stapi/OneDrive/Desktop/GD32VW553/GD32VW55X_Wifi_BLE_SDK/GD32VW55x_RELEASE_V1.0.2/MSDK/ble/app\app_iso_mgr.c ****     \brief      Disconnect a CIS
 395:C:/Users/stapi/OneDrive/Desktop/GD32VW553/GD32VW55X_Wifi_BLE_SDK/GD32VW55x_RELEASE_V1.0.2/MSDK/ble/app\app_iso_mgr.c ****     \param[in]  stream_lid: stream local index
 396:C:/Users/stapi/OneDrive/Desktop/GD32VW553/GD32VW55X_Wifi_BLE_SDK/GD32VW55x_RELEASE_V1.0.2/MSDK/ble/app\app_iso_mgr.c ****     \param[out] none
 397:C:/Users/stapi/OneDrive/Desktop/GD32VW553/GD32VW55X_Wifi_BLE_SDK/GD32VW55x_RELEASE_V1.0.2/MSDK/ble/app\app_iso_mgr.c ****     \retval     none
 398:C:/Users/stapi/OneDrive/Desktop/GD32VW553/GD32VW55X_Wifi_BLE_SDK/GD32VW55x_RELEASE_V1.0.2/MSDK/ble/app\app_iso_mgr.c **** */
 399:C:/Users/stapi/OneDrive/Desktop/GD32VW553/GD32VW55X_Wifi_BLE_SDK/GD32VW55x_RELEASE_V1.0.2/MSDK/ble/app\app_iso_mgr.c **** void app_cis_disconn(uint8_t stream_lid)
 400:C:/Users/stapi/OneDrive/Desktop/GD32VW553/GD32VW55X_Wifi_BLE_SDK/GD32VW55x_RELEASE_V1.0.2/MSDK/ble/app\app_iso_mgr.c **** {
 1087              		.loc 1 400 1 is_stmt 1
 1088              		.cfi_startproc
 1089              	.LVL78:
 401:C:/Users/stapi/OneDrive/Desktop/GD32VW553/GD32VW55X_Wifi_BLE_SDK/GD32VW55x_RELEASE_V1.0.2/MSDK/ble/app\app_iso_mgr.c ****     ble_iso_cis_disconn(stream_lid);
 1090              		.loc 1 401 5
 1091 0000 17030000 		tail	ble_iso_cis_disconn
 1091      67000300 
 1092              	.LVL79:
 1093              		.cfi_endproc
 1094              	.LFE20:
 1096              		.section	.text.app_cig_stop,"ax",@progbits
 1097              		.align	1
 1098              		.globl	app_cig_stop
 1100              	app_cig_stop:
 1101              	.LFB21:
 402:C:/Users/stapi/OneDrive/Desktop/GD32VW553/GD32VW55X_Wifi_BLE_SDK/GD32VW55x_RELEASE_V1.0.2/MSDK/ble/app\app_iso_mgr.c **** }
 403:C:/Users/stapi/OneDrive/Desktop/GD32VW553/GD32VW55X_Wifi_BLE_SDK/GD32VW55x_RELEASE_V1.0.2/MSDK/ble/app\app_iso_mgr.c **** 
 404:C:/Users/stapi/OneDrive/Desktop/GD32VW553/GD32VW55X_Wifi_BLE_SDK/GD32VW55x_RELEASE_V1.0.2/MSDK/ble/app\app_iso_mgr.c **** /*!
 405:C:/Users/stapi/OneDrive/Desktop/GD32VW553/GD32VW55X_Wifi_BLE_SDK/GD32VW55x_RELEASE_V1.0.2/MSDK/ble/app\app_iso_mgr.c ****     \brief      Stop a CIG
 406:C:/Users/stapi/OneDrive/Desktop/GD32VW553/GD32VW55X_Wifi_BLE_SDK/GD32VW55x_RELEASE_V1.0.2/MSDK/ble/app\app_iso_mgr.c ****     \param[in]  group_lid: group local index
 407:C:/Users/stapi/OneDrive/Desktop/GD32VW553/GD32VW55X_Wifi_BLE_SDK/GD32VW55x_RELEASE_V1.0.2/MSDK/ble/app\app_iso_mgr.c ****     \param[out] none
 408:C:/Users/stapi/OneDrive/Desktop/GD32VW553/GD32VW55X_Wifi_BLE_SDK/GD32VW55x_RELEASE_V1.0.2/MSDK/ble/app\app_iso_mgr.c ****     \retval     none
 409:C:/Users/stapi/OneDrive/Desktop/GD32VW553/GD32VW55X_Wifi_BLE_SDK/GD32VW55x_RELEASE_V1.0.2/MSDK/ble/app\app_iso_mgr.c **** */
 410:C:/Users/stapi/OneDrive/Desktop/GD32VW553/GD32VW55X_Wifi_BLE_SDK/GD32VW55x_RELEASE_V1.0.2/MSDK/ble/app\app_iso_mgr.c **** void app_cig_stop(uint8_t group_lid)
 411:C:/Users/stapi/OneDrive/Desktop/GD32VW553/GD32VW55X_Wifi_BLE_SDK/GD32VW55x_RELEASE_V1.0.2/MSDK/ble/app\app_iso_mgr.c **** {
 1102              		.loc 1 411 1
 1103              		.cfi_startproc
 1104              	.LVL80:
 412:C:/Users/stapi/OneDrive/Desktop/GD32VW553/GD32VW55X_Wifi_BLE_SDK/GD32VW55x_RELEASE_V1.0.2/MSDK/ble/app\app_iso_mgr.c ****     ble_iso_cig_terminate(group_lid);
 1105              		.loc 1 412 5
 1106 0000 17030000 		tail	ble_iso_cig_terminate
 1106      67000300 
 1107              	.LVL81:
 1108              		.cfi_endproc
 1109              	.LFE21:
 1111              		.section	.text.app_iso_tx_test,"ax",@progbits
 1112              		.align	1
 1113              		.globl	app_iso_tx_test
 1115              	app_iso_tx_test:
 1116              	.LFB22:
 413:C:/Users/stapi/OneDrive/Desktop/GD32VW553/GD32VW55X_Wifi_BLE_SDK/GD32VW55x_RELEASE_V1.0.2/MSDK/ble/app\app_iso_mgr.c **** }
 414:C:/Users/stapi/OneDrive/Desktop/GD32VW553/GD32VW55X_Wifi_BLE_SDK/GD32VW55x_RELEASE_V1.0.2/MSDK/ble/app\app_iso_mgr.c **** #endif // (BLE_APP_CIS_SUPPORT)
 415:C:/Users/stapi/OneDrive/Desktop/GD32VW553/GD32VW55X_Wifi_BLE_SDK/GD32VW55x_RELEASE_V1.0.2/MSDK/ble/app\app_iso_mgr.c **** 
 416:C:/Users/stapi/OneDrive/Desktop/GD32VW553/GD32VW55X_Wifi_BLE_SDK/GD32VW55x_RELEASE_V1.0.2/MSDK/ble/app\app_iso_mgr.c **** #if (BLE_APP_BIS_SUPPORT || BLE_APP_CIS_SUPPORT)
 417:C:/Users/stapi/OneDrive/Desktop/GD32VW553/GD32VW55X_Wifi_BLE_SDK/GD32VW55x_RELEASE_V1.0.2/MSDK/ble/app\app_iso_mgr.c **** /*!
 418:C:/Users/stapi/OneDrive/Desktop/GD32VW553/GD32VW55X_Wifi_BLE_SDK/GD32VW55x_RELEASE_V1.0.2/MSDK/ble/app\app_iso_mgr.c ****     \brief      Start ISO tx test
 419:C:/Users/stapi/OneDrive/Desktop/GD32VW553/GD32VW55X_Wifi_BLE_SDK/GD32VW55x_RELEASE_V1.0.2/MSDK/ble/app\app_iso_mgr.c ****     \param[in]  stream_lid: stream local index
 420:C:/Users/stapi/OneDrive/Desktop/GD32VW553/GD32VW55X_Wifi_BLE_SDK/GD32VW55x_RELEASE_V1.0.2/MSDK/ble/app\app_iso_mgr.c ****     \param[in]  type: ISO tx payload type
 421:C:/Users/stapi/OneDrive/Desktop/GD32VW553/GD32VW55X_Wifi_BLE_SDK/GD32VW55x_RELEASE_V1.0.2/MSDK/ble/app\app_iso_mgr.c ****       \arg        0x00: zero length payload
 422:C:/Users/stapi/OneDrive/Desktop/GD32VW553/GD32VW55X_Wifi_BLE_SDK/GD32VW55x_RELEASE_V1.0.2/MSDK/ble/app\app_iso_mgr.c ****       \arg        0x01: variable length payload
 423:C:/Users/stapi/OneDrive/Desktop/GD32VW553/GD32VW55X_Wifi_BLE_SDK/GD32VW55x_RELEASE_V1.0.2/MSDK/ble/app\app_iso_mgr.c ****       \arg        0x02: maximum length payload
 424:C:/Users/stapi/OneDrive/Desktop/GD32VW553/GD32VW55X_Wifi_BLE_SDK/GD32VW55x_RELEASE_V1.0.2/MSDK/ble/app\app_iso_mgr.c ****     \param[out] none
 425:C:/Users/stapi/OneDrive/Desktop/GD32VW553/GD32VW55X_Wifi_BLE_SDK/GD32VW55x_RELEASE_V1.0.2/MSDK/ble/app\app_iso_mgr.c ****     \retval     none
 426:C:/Users/stapi/OneDrive/Desktop/GD32VW553/GD32VW55X_Wifi_BLE_SDK/GD32VW55x_RELEASE_V1.0.2/MSDK/ble/app\app_iso_mgr.c **** */
 427:C:/Users/stapi/OneDrive/Desktop/GD32VW553/GD32VW55X_Wifi_BLE_SDK/GD32VW55x_RELEASE_V1.0.2/MSDK/ble/app\app_iso_mgr.c **** void app_iso_tx_test(uint8_t stream_lid, uint8_t type)
 428:C:/Users/stapi/OneDrive/Desktop/GD32VW553/GD32VW55X_Wifi_BLE_SDK/GD32VW55x_RELEASE_V1.0.2/MSDK/ble/app\app_iso_mgr.c **** {
 1117              		.loc 1 428 1
 1118              		.cfi_startproc
 1119              	.LVL82:
 429:C:/Users/stapi/OneDrive/Desktop/GD32VW553/GD32VW55X_Wifi_BLE_SDK/GD32VW55x_RELEASE_V1.0.2/MSDK/ble/app\app_iso_mgr.c ****     ble_iso_test_tx(stream_lid, type);
 1120              		.loc 1 429 5
 1121 0000 17030000 		tail	ble_iso_test_tx
 1121      67000300 
 1122              	.LVL83:
 1123              		.cfi_endproc
 1124              	.LFE22:
 1126              		.section	.text.app_iso_rx_test,"ax",@progbits
 1127              		.align	1
 1128              		.globl	app_iso_rx_test
 1130              	app_iso_rx_test:
 1131              	.LFB23:
 430:C:/Users/stapi/OneDrive/Desktop/GD32VW553/GD32VW55X_Wifi_BLE_SDK/GD32VW55x_RELEASE_V1.0.2/MSDK/ble/app\app_iso_mgr.c **** }
 431:C:/Users/stapi/OneDrive/Desktop/GD32VW553/GD32VW55X_Wifi_BLE_SDK/GD32VW55x_RELEASE_V1.0.2/MSDK/ble/app\app_iso_mgr.c **** 
 432:C:/Users/stapi/OneDrive/Desktop/GD32VW553/GD32VW55X_Wifi_BLE_SDK/GD32VW55x_RELEASE_V1.0.2/MSDK/ble/app\app_iso_mgr.c **** /*!
 433:C:/Users/stapi/OneDrive/Desktop/GD32VW553/GD32VW55X_Wifi_BLE_SDK/GD32VW55x_RELEASE_V1.0.2/MSDK/ble/app\app_iso_mgr.c ****     \brief      Start ISO rx test
 434:C:/Users/stapi/OneDrive/Desktop/GD32VW553/GD32VW55X_Wifi_BLE_SDK/GD32VW55x_RELEASE_V1.0.2/MSDK/ble/app\app_iso_mgr.c ****     \param[in]  stream_lid: stream local index
 435:C:/Users/stapi/OneDrive/Desktop/GD32VW553/GD32VW55X_Wifi_BLE_SDK/GD32VW55x_RELEASE_V1.0.2/MSDK/ble/app\app_iso_mgr.c ****     \param[in]  type: ISO rx payload type
 436:C:/Users/stapi/OneDrive/Desktop/GD32VW553/GD32VW55X_Wifi_BLE_SDK/GD32VW55x_RELEASE_V1.0.2/MSDK/ble/app\app_iso_mgr.c ****       \arg        0x00: zero length payload
 437:C:/Users/stapi/OneDrive/Desktop/GD32VW553/GD32VW55X_Wifi_BLE_SDK/GD32VW55x_RELEASE_V1.0.2/MSDK/ble/app\app_iso_mgr.c ****       \arg        0x01: variable length payload
 438:C:/Users/stapi/OneDrive/Desktop/GD32VW553/GD32VW55X_Wifi_BLE_SDK/GD32VW55x_RELEASE_V1.0.2/MSDK/ble/app\app_iso_mgr.c ****       \arg        0x02: maximum length payload
 439:C:/Users/stapi/OneDrive/Desktop/GD32VW553/GD32VW55X_Wifi_BLE_SDK/GD32VW55x_RELEASE_V1.0.2/MSDK/ble/app\app_iso_mgr.c ****     \param[out] none
 440:C:/Users/stapi/OneDrive/Desktop/GD32VW553/GD32VW55X_Wifi_BLE_SDK/GD32VW55x_RELEASE_V1.0.2/MSDK/ble/app\app_iso_mgr.c ****     \retval     none
 441:C:/Users/stapi/OneDrive/Desktop/GD32VW553/GD32VW55X_Wifi_BLE_SDK/GD32VW55x_RELEASE_V1.0.2/MSDK/ble/app\app_iso_mgr.c **** */
 442:C:/Users/stapi/OneDrive/Desktop/GD32VW553/GD32VW55X_Wifi_BLE_SDK/GD32VW55x_RELEASE_V1.0.2/MSDK/ble/app\app_iso_mgr.c **** void app_iso_rx_test(uint8_t stream_lid, uint8_t type)
 443:C:/Users/stapi/OneDrive/Desktop/GD32VW553/GD32VW55X_Wifi_BLE_SDK/GD32VW55x_RELEASE_V1.0.2/MSDK/ble/app\app_iso_mgr.c **** {
 1132              		.loc 1 443 1
 1133              		.cfi_startproc
 1134              	.LVL84:
 444:C:/Users/stapi/OneDrive/Desktop/GD32VW553/GD32VW55X_Wifi_BLE_SDK/GD32VW55x_RELEASE_V1.0.2/MSDK/ble/app\app_iso_mgr.c ****     ble_iso_test_rx(stream_lid, type);
 1135              		.loc 1 444 5
 1136 0000 17030000 		tail	ble_iso_test_rx
 1136      67000300 
 1137              	.LVL85:
 1138              		.cfi_endproc
 1139              	.LFE23:
 1141              		.section	.text.app_iso_test_end,"ax",@progbits
 1142              		.align	1
 1143              		.globl	app_iso_test_end
 1145              	app_iso_test_end:
 1146              	.LFB24:
 445:C:/Users/stapi/OneDrive/Desktop/GD32VW553/GD32VW55X_Wifi_BLE_SDK/GD32VW55x_RELEASE_V1.0.2/MSDK/ble/app\app_iso_mgr.c **** }
 446:C:/Users/stapi/OneDrive/Desktop/GD32VW553/GD32VW55X_Wifi_BLE_SDK/GD32VW55x_RELEASE_V1.0.2/MSDK/ble/app\app_iso_mgr.c **** 
 447:C:/Users/stapi/OneDrive/Desktop/GD32VW553/GD32VW55X_Wifi_BLE_SDK/GD32VW55x_RELEASE_V1.0.2/MSDK/ble/app\app_iso_mgr.c **** /*!
 448:C:/Users/stapi/OneDrive/Desktop/GD32VW553/GD32VW55X_Wifi_BLE_SDK/GD32VW55x_RELEASE_V1.0.2/MSDK/ble/app\app_iso_mgr.c ****     \brief      Stop ISO test
 449:C:/Users/stapi/OneDrive/Desktop/GD32VW553/GD32VW55X_Wifi_BLE_SDK/GD32VW55x_RELEASE_V1.0.2/MSDK/ble/app\app_iso_mgr.c ****     \param[in]  stream_lid: stream local index
 450:C:/Users/stapi/OneDrive/Desktop/GD32VW553/GD32VW55X_Wifi_BLE_SDK/GD32VW55x_RELEASE_V1.0.2/MSDK/ble/app\app_iso_mgr.c ****     \param[out] none
 451:C:/Users/stapi/OneDrive/Desktop/GD32VW553/GD32VW55X_Wifi_BLE_SDK/GD32VW55x_RELEASE_V1.0.2/MSDK/ble/app\app_iso_mgr.c ****     \retval     none
 452:C:/Users/stapi/OneDrive/Desktop/GD32VW553/GD32VW55X_Wifi_BLE_SDK/GD32VW55x_RELEASE_V1.0.2/MSDK/ble/app\app_iso_mgr.c **** */
 453:C:/Users/stapi/OneDrive/Desktop/GD32VW553/GD32VW55X_Wifi_BLE_SDK/GD32VW55x_RELEASE_V1.0.2/MSDK/ble/app\app_iso_mgr.c **** void app_iso_test_end(uint8_t stream_lid)
 454:C:/Users/stapi/OneDrive/Desktop/GD32VW553/GD32VW55X_Wifi_BLE_SDK/GD32VW55x_RELEASE_V1.0.2/MSDK/ble/app\app_iso_mgr.c **** {
 1147              		.loc 1 454 1
 1148              		.cfi_startproc
 1149              	.LVL86:
 455:C:/Users/stapi/OneDrive/Desktop/GD32VW553/GD32VW55X_Wifi_BLE_SDK/GD32VW55x_RELEASE_V1.0.2/MSDK/ble/app\app_iso_mgr.c ****     ble_iso_test_end(stream_lid);
 1150              		.loc 1 455 5
 1151 0000 17030000 		tail	ble_iso_test_end
 1151      67000300 
 1152              	.LVL87:
 1153              		.cfi_endproc
 1154              	.LFE24:
 1156              		.section	.text.app_iso_read_test_cnt,"ax",@progbits
 1157              		.align	1
 1158              		.globl	app_iso_read_test_cnt
 1160              	app_iso_read_test_cnt:
 1161              	.LFB25:
 456:C:/Users/stapi/OneDrive/Desktop/GD32VW553/GD32VW55X_Wifi_BLE_SDK/GD32VW55x_RELEASE_V1.0.2/MSDK/ble/app\app_iso_mgr.c **** }
 457:C:/Users/stapi/OneDrive/Desktop/GD32VW553/GD32VW55X_Wifi_BLE_SDK/GD32VW55x_RELEASE_V1.0.2/MSDK/ble/app\app_iso_mgr.c **** 
 458:C:/Users/stapi/OneDrive/Desktop/GD32VW553/GD32VW55X_Wifi_BLE_SDK/GD32VW55x_RELEASE_V1.0.2/MSDK/ble/app\app_iso_mgr.c **** /*!
 459:C:/Users/stapi/OneDrive/Desktop/GD32VW553/GD32VW55X_Wifi_BLE_SDK/GD32VW55x_RELEASE_V1.0.2/MSDK/ble/app\app_iso_mgr.c ****     \brief      Read ISO test count
 460:C:/Users/stapi/OneDrive/Desktop/GD32VW553/GD32VW55X_Wifi_BLE_SDK/GD32VW55x_RELEASE_V1.0.2/MSDK/ble/app\app_iso_mgr.c ****     \param[in]  stream_lid: stream local index
 461:C:/Users/stapi/OneDrive/Desktop/GD32VW553/GD32VW55X_Wifi_BLE_SDK/GD32VW55x_RELEASE_V1.0.2/MSDK/ble/app\app_iso_mgr.c ****     \param[out] none
 462:C:/Users/stapi/OneDrive/Desktop/GD32VW553/GD32VW55X_Wifi_BLE_SDK/GD32VW55x_RELEASE_V1.0.2/MSDK/ble/app\app_iso_mgr.c ****     \retval     none
 463:C:/Users/stapi/OneDrive/Desktop/GD32VW553/GD32VW55X_Wifi_BLE_SDK/GD32VW55x_RELEASE_V1.0.2/MSDK/ble/app\app_iso_mgr.c **** */
 464:C:/Users/stapi/OneDrive/Desktop/GD32VW553/GD32VW55X_Wifi_BLE_SDK/GD32VW55x_RELEASE_V1.0.2/MSDK/ble/app\app_iso_mgr.c **** void app_iso_read_test_cnt(uint8_t stream_lid)
 465:C:/Users/stapi/OneDrive/Desktop/GD32VW553/GD32VW55X_Wifi_BLE_SDK/GD32VW55x_RELEASE_V1.0.2/MSDK/ble/app\app_iso_mgr.c **** {
 1162              		.loc 1 465 1
 1163              		.cfi_startproc
 1164              	.LVL88:
 466:C:/Users/stapi/OneDrive/Desktop/GD32VW553/GD32VW55X_Wifi_BLE_SDK/GD32VW55x_RELEASE_V1.0.2/MSDK/ble/app\app_iso_mgr.c ****     ble_iso_test_cnt_read(stream_lid);
 1165              		.loc 1 466 5
 1166 0000 17030000 		tail	ble_iso_test_cnt_read
 1166      67000300 
 1167              	.LVL89:
 1168              		.cfi_endproc
 1169              	.LFE25:
 1171              		.section	.text.app_iso_mgr_init,"ax",@progbits
 1172              		.align	1
 1173              		.globl	app_iso_mgr_init
 1175              	app_iso_mgr_init:
 1176              	.LFB26:
 467:C:/Users/stapi/OneDrive/Desktop/GD32VW553/GD32VW55X_Wifi_BLE_SDK/GD32VW55x_RELEASE_V1.0.2/MSDK/ble/app\app_iso_mgr.c **** }
 468:C:/Users/stapi/OneDrive/Desktop/GD32VW553/GD32VW55X_Wifi_BLE_SDK/GD32VW55x_RELEASE_V1.0.2/MSDK/ble/app\app_iso_mgr.c **** 
 469:C:/Users/stapi/OneDrive/Desktop/GD32VW553/GD32VW55X_Wifi_BLE_SDK/GD32VW55x_RELEASE_V1.0.2/MSDK/ble/app\app_iso_mgr.c **** /*!
 470:C:/Users/stapi/OneDrive/Desktop/GD32VW553/GD32VW55X_Wifi_BLE_SDK/GD32VW55x_RELEASE_V1.0.2/MSDK/ble/app\app_iso_mgr.c ****     \brief      Init APP ISO manager module
 471:C:/Users/stapi/OneDrive/Desktop/GD32VW553/GD32VW55X_Wifi_BLE_SDK/GD32VW55x_RELEASE_V1.0.2/MSDK/ble/app\app_iso_mgr.c ****     \param[in]  none
 472:C:/Users/stapi/OneDrive/Desktop/GD32VW553/GD32VW55X_Wifi_BLE_SDK/GD32VW55x_RELEASE_V1.0.2/MSDK/ble/app\app_iso_mgr.c ****     \param[out] none
 473:C:/Users/stapi/OneDrive/Desktop/GD32VW553/GD32VW55X_Wifi_BLE_SDK/GD32VW55x_RELEASE_V1.0.2/MSDK/ble/app\app_iso_mgr.c ****     \retval     none
 474:C:/Users/stapi/OneDrive/Desktop/GD32VW553/GD32VW55X_Wifi_BLE_SDK/GD32VW55x_RELEASE_V1.0.2/MSDK/ble/app\app_iso_mgr.c **** */
 475:C:/Users/stapi/OneDrive/Desktop/GD32VW553/GD32VW55X_Wifi_BLE_SDK/GD32VW55x_RELEASE_V1.0.2/MSDK/ble/app\app_iso_mgr.c **** void app_iso_mgr_init(void)
 476:C:/Users/stapi/OneDrive/Desktop/GD32VW553/GD32VW55X_Wifi_BLE_SDK/GD32VW55x_RELEASE_V1.0.2/MSDK/ble/app\app_iso_mgr.c **** {
 1177              		.loc 1 476 1
 1178              		.cfi_startproc
 1179 0000 17030000 		call	t0,__riscv_save_0
 1179      E7020300 
 1180              		.cfi_offset 1, -4
 1181              		.cfi_def_cfa_offset 16
 477:C:/Users/stapi/OneDrive/Desktop/GD32VW553/GD32VW55X_Wifi_BLE_SDK/GD32VW55x_RELEASE_V1.0.2/MSDK/ble/app\app_iso_mgr.c ****     ble_iso_init();
 1182              		.loc 1 477 5
 1183 0008 97000000 		call	ble_iso_init
 1183      E7800000 
 1184              	.LVL90:
 478:C:/Users/stapi/OneDrive/Desktop/GD32VW553/GD32VW55X_Wifi_BLE_SDK/GD32VW55x_RELEASE_V1.0.2/MSDK/ble/app\app_iso_mgr.c ****     ble_iso_callback_register(app_iso_callback);
 1185              		.loc 1 478 5
 1186 0010 37050000 		lui	a0,%hi(app_iso_callback)
 1187 0014 13050500 		addi	a0,a0,%lo(app_iso_callback)
 1188 0018 97000000 		call	ble_iso_callback_register
 1188      E7800000 
 1189              	.LVL91:
 479:C:/Users/stapi/OneDrive/Desktop/GD32VW553/GD32VW55X_Wifi_BLE_SDK/GD32VW55x_RELEASE_V1.0.2/MSDK/ble/app\app_iso_mgr.c **** }
 1190              		.loc 1 479 1 is_stmt 0
 1191 0020 17030000 		tail	__riscv_restore_0
 1191      67000300 
 1192              		.cfi_restore 1
 1193              		.cfi_def_cfa_offset 0
 1194              		.cfi_endproc
 1195              	.LFE26:
 1197              		.section	.text.app_iso_mgr_deinit,"ax",@progbits
 1198              		.align	1
 1199              		.globl	app_iso_mgr_deinit
 1201              	app_iso_mgr_deinit:
 1202              	.LFB27:
 480:C:/Users/stapi/OneDrive/Desktop/GD32VW553/GD32VW55X_Wifi_BLE_SDK/GD32VW55x_RELEASE_V1.0.2/MSDK/ble/app\app_iso_mgr.c **** 
 481:C:/Users/stapi/OneDrive/Desktop/GD32VW553/GD32VW55X_Wifi_BLE_SDK/GD32VW55x_RELEASE_V1.0.2/MSDK/ble/app\app_iso_mgr.c **** /*!
 482:C:/Users/stapi/OneDrive/Desktop/GD32VW553/GD32VW55X_Wifi_BLE_SDK/GD32VW55x_RELEASE_V1.0.2/MSDK/ble/app\app_iso_mgr.c ****     \brief      Deinit APP ISO manager module
 483:C:/Users/stapi/OneDrive/Desktop/GD32VW553/GD32VW55X_Wifi_BLE_SDK/GD32VW55x_RELEASE_V1.0.2/MSDK/ble/app\app_iso_mgr.c ****     \param[in]  none
 484:C:/Users/stapi/OneDrive/Desktop/GD32VW553/GD32VW55X_Wifi_BLE_SDK/GD32VW55x_RELEASE_V1.0.2/MSDK/ble/app\app_iso_mgr.c ****     \param[out] none
 485:C:/Users/stapi/OneDrive/Desktop/GD32VW553/GD32VW55X_Wifi_BLE_SDK/GD32VW55x_RELEASE_V1.0.2/MSDK/ble/app\app_iso_mgr.c ****     \retval     none
 486:C:/Users/stapi/OneDrive/Desktop/GD32VW553/GD32VW55X_Wifi_BLE_SDK/GD32VW55x_RELEASE_V1.0.2/MSDK/ble/app\app_iso_mgr.c **** */
 487:C:/Users/stapi/OneDrive/Desktop/GD32VW553/GD32VW55X_Wifi_BLE_SDK/GD32VW55x_RELEASE_V1.0.2/MSDK/ble/app\app_iso_mgr.c **** void app_iso_mgr_deinit(void)
 488:C:/Users/stapi/OneDrive/Desktop/GD32VW553/GD32VW55X_Wifi_BLE_SDK/GD32VW55x_RELEASE_V1.0.2/MSDK/ble/app\app_iso_mgr.c **** {
 1203              		.loc 1 488 1 is_stmt 1
 1204              		.cfi_startproc
 489:C:/Users/stapi/OneDrive/Desktop/GD32VW553/GD32VW55X_Wifi_BLE_SDK/GD32VW55x_RELEASE_V1.0.2/MSDK/ble/app\app_iso_mgr.c ****     ble_iso_callback_unregister(app_iso_callback);
 1205              		.loc 1 489 5
 1206 0000 37050000 		lui	a0,%hi(app_iso_callback)
 1207 0004 13050500 		addi	a0,a0,%lo(app_iso_callback)
 1208 0008 17030000 		tail	ble_iso_callback_unregister
 1208      67000300 
 1209              	.LVL92:
 1210              		.cfi_endproc
 1211              	.LFE27:
 1213              		.section	.data.big_bc,"aw"
 1214              		.align	2
 1215              		.set	.LANCHOR0,. + 0
 1218              	big_bc:
 1219 0000 00       		.string	""
 1220 0001 11223344 		.ascii	"\021\"3DUfw\210\231\252\273\314\335\356\377"
 1220      55667788 
 1220      99AABBCC 
 1220      DDEEFF
 1221              		.text
 1222              	.Letext0:
 1223              		.file 2 "c:\\users\\stapi\\onedrive\\desktop\\gd32vw553\\embeddedbuilder_v1.4.7.26843\\tools\\nucl
 1224              		.file 3 "c:\\users\\stapi\\onedrive\\desktop\\gd32vw553\\embeddedbuilder_v1.4.7.26843\\tools\\nucl
 1225              		.file 4 "..\\..\\..\\..\\blesw\\src\\export/ble_gap.h"
 1226              		.file 5 "..\\..\\..\\..\\blesw\\src\\export/ble_iso.h"
 1227              		.file 6 "C:/Users/stapi/OneDrive/Desktop/GD32VW553/GD32VW55X_Wifi_BLE_SDK/GD32VW55x_RELEASE_V1.0.2
 1228              		.file 7 "..\\..\\..\\..\\util\\include/dbg_print.h"
 1229              		.file 8 "..\\..\\..\\..\\util\\include/debug_print.h"
DEFINED SYMBOLS
                            *ABS*:0000000000000000 app_iso_mgr.c
C:\Users\stapi\AppData\Local\Temp\ccAP0xnd.s:23     .text.app_big_sync_info_hdlr:0000000000000000 app_big_sync_info_hdlr
C:\Users\stapi\AppData\Local\Temp\ccAP0xnd.s:27     .text.app_big_sync_info_hdlr:0000000000000000 .L0 
C:\Users\stapi\AppData\Local\Temp\ccAP0xnd.s:29     .text.app_big_sync_info_hdlr:0000000000000000 .L0 
C:\Users\stapi\AppData\Local\Temp\ccAP0xnd.s:30     .text.app_big_sync_info_hdlr:0000000000000008 .L0 
C:\Users\stapi\AppData\Local\Temp\ccAP0xnd.s:31     .text.app_big_sync_info_hdlr:0000000000000008 .L0 
C:\Users\stapi\AppData\Local\Temp\ccAP0xnd.s:32     .text.app_big_sync_info_hdlr:0000000000000008 .L0 
C:\Users\stapi\AppData\Local\Temp\ccAP0xnd.s:33     .text.app_big_sync_info_hdlr:0000000000000008 .L0 
C:\Users\stapi\AppData\Local\Temp\ccAP0xnd.s:34     .text.app_big_sync_info_hdlr:0000000000000008 .L0 
C:\Users\stapi\AppData\Local\Temp\ccAP0xnd.s:35     .text.app_big_sync_info_hdlr:0000000000000008 .L0 
C:\Users\stapi\AppData\Local\Temp\ccAP0xnd.s:36     .text.app_big_sync_info_hdlr:0000000000000008 .L0 
C:\Users\stapi\AppData\Local\Temp\ccAP0xnd.s:39     .text.app_big_sync_info_hdlr:0000000000000008 .L0 
C:\Users\stapi\AppData\Local\Temp\ccAP0xnd.s:40     .text.app_big_sync_info_hdlr:0000000000000008 .L0 
C:\Users\stapi\AppData\Local\Temp\ccAP0xnd.s:41     .text.app_big_sync_info_hdlr:0000000000000008 .L0 
C:\Users\stapi\AppData\Local\Temp\ccAP0xnd.s:45     .text.app_big_sync_info_hdlr:0000000000000012 .L0 
C:\Users\stapi\AppData\Local\Temp\ccAP0xnd.s:48     .text.app_big_sync_info_hdlr:0000000000000016 .L0 
C:\Users\stapi\AppData\Local\Temp\ccAP0xnd.s:50     .text.app_big_sync_info_hdlr:000000000000001a .L0 
C:\Users\stapi\AppData\Local\Temp\ccAP0xnd.s:60     .text.app_big_sync_info_hdlr:0000000000000036 .L0 
C:\Users\stapi\AppData\Local\Temp\ccAP0xnd.s:62     .text.app_big_sync_info_hdlr:0000000000000038 .L0 
C:\Users\stapi\AppData\Local\Temp\ccAP0xnd.s:67     .text.app_big_sync_info_hdlr:000000000000003e .L0 
C:\Users\stapi\AppData\Local\Temp\ccAP0xnd.s:68     .text.app_big_sync_info_hdlr:000000000000003e .L0 
C:\Users\stapi\AppData\Local\Temp\ccAP0xnd.s:70     .text.app_big_sync_info_hdlr:0000000000000042 .L0 
C:\Users\stapi\AppData\Local\Temp\ccAP0xnd.s:72     .text.app_big_sync_info_hdlr:0000000000000046 .L0 
C:\Users\stapi\AppData\Local\Temp\ccAP0xnd.s:74     .text.app_big_sync_info_hdlr:000000000000004a .L0 
C:\Users\stapi\AppData\Local\Temp\ccAP0xnd.s:75     .text.app_big_sync_info_hdlr:000000000000004a .L0 
C:\Users\stapi\AppData\Local\Temp\ccAP0xnd.s:78     .text.app_big_sync_info_hdlr:0000000000000050 .L0 
C:\Users\stapi\AppData\Local\Temp\ccAP0xnd.s:84     .text.app_big_sync_info_hdlr:0000000000000060 .L0 
C:\Users\stapi\AppData\Local\Temp\ccAP0xnd.s:85     .text.app_big_sync_info_hdlr:0000000000000060 .L0 
C:\Users\stapi\AppData\Local\Temp\ccAP0xnd.s:86     .text.app_big_sync_info_hdlr:0000000000000068 .L0 
C:\Users\stapi\AppData\Local\Temp\ccAP0xnd.s:87     .text.app_big_sync_info_hdlr:0000000000000068 .L0 
C:\Users\stapi\AppData\Local\Temp\ccAP0xnd.s:88     .text.app_big_sync_info_hdlr:0000000000000068 .L0 
C:\Users\stapi\AppData\Local\Temp\ccAP0xnd.s:89     .text.app_big_sync_info_hdlr:0000000000000068 .L0 
C:\Users\stapi\AppData\Local\Temp\ccAP0xnd.s:90     .text.app_big_sync_info_hdlr:0000000000000068 .L0 
C:\Users\stapi\AppData\Local\Temp\ccAP0xnd.s:91     .text.app_big_sync_info_hdlr:0000000000000068 .L0 
C:\Users\stapi\AppData\Local\Temp\ccAP0xnd.s:92     .text.app_big_sync_info_hdlr:0000000000000068 .L0 
C:\Users\stapi\AppData\Local\Temp\ccAP0xnd.s:93     .text.app_big_sync_info_hdlr:0000000000000068 .L0 
C:\Users\stapi\AppData\Local\Temp\ccAP0xnd.s:95     .text.app_big_sync_info_hdlr:0000000000000068 .L0 
C:\Users\stapi\AppData\Local\Temp\ccAP0xnd.s:97     .text.app_big_sync_info_hdlr:0000000000000068 .L0 
C:\Users\stapi\AppData\Local\Temp\ccAP0xnd.s:98     .text.app_big_sync_info_hdlr:0000000000000068 .L0 
C:\Users\stapi\AppData\Local\Temp\ccAP0xnd.s:100    .text.app_big_sync_info_hdlr:000000000000006c .L0 
C:\Users\stapi\AppData\Local\Temp\ccAP0xnd.s:109    .text.app_big_sync_info_hdlr:0000000000000082 .L0 
C:\Users\stapi\AppData\Local\Temp\ccAP0xnd.s:110    .text.app_big_sync_info_hdlr:0000000000000082 .L0 
C:\Users\stapi\AppData\Local\Temp\ccAP0xnd.s:111    .text.app_big_sync_info_hdlr:0000000000000082 .L0 
C:\Users\stapi\AppData\Local\Temp\ccAP0xnd.s:116    .text.app_big_sync_info_hdlr:000000000000008a .L0 
C:\Users\stapi\AppData\Local\Temp\ccAP0xnd.s:127    .text.app_cis_conn_info_hdlr:0000000000000000 app_cis_conn_info_hdlr
C:\Users\stapi\AppData\Local\Temp\ccAP0xnd.s:130    .text.app_cis_conn_info_hdlr:0000000000000000 .L0 
C:\Users\stapi\AppData\Local\Temp\ccAP0xnd.s:132    .text.app_cis_conn_info_hdlr:0000000000000000 .L0 
C:\Users\stapi\AppData\Local\Temp\ccAP0xnd.s:133    .text.app_cis_conn_info_hdlr:0000000000000000 .L0 
C:\Users\stapi\AppData\Local\Temp\ccAP0xnd.s:134    .text.app_cis_conn_info_hdlr:0000000000000000 .L0 
C:\Users\stapi\AppData\Local\Temp\ccAP0xnd.s:139    .text.app_cis_conn_info_hdlr:000000000000000e .L0 
C:\Users\stapi\AppData\Local\Temp\ccAP0xnd.s:140    .text.app_cis_conn_info_hdlr:0000000000000016 .L0 
C:\Users\stapi\AppData\Local\Temp\ccAP0xnd.s:141    .text.app_cis_conn_info_hdlr:0000000000000016 .L0 
C:\Users\stapi\AppData\Local\Temp\ccAP0xnd.s:146    .text.app_cis_conn_info_hdlr:0000000000000016 .L0 
C:\Users\stapi\AppData\Local\Temp\ccAP0xnd.s:150    .text.app_cis_conn_info_hdlr:000000000000001a .L0 
C:\Users\stapi\AppData\Local\Temp\ccAP0xnd.s:151    .text.app_cis_conn_info_hdlr:000000000000001c .L0 
C:\Users\stapi\AppData\Local\Temp\ccAP0xnd.s:155    .text.app_cis_conn_info_hdlr:000000000000001c .L0 
C:\Users\stapi\AppData\Local\Temp\ccAP0xnd.s:187    .text.app_cis_conn_info_hdlr:0000000000000074 .L0 
C:\Users\stapi\AppData\Local\Temp\ccAP0xnd.s:188    .text.app_cis_conn_info_hdlr:0000000000000074 .L0 
C:\Users\stapi\AppData\Local\Temp\ccAP0xnd.s:189    .text.app_cis_conn_info_hdlr:0000000000000074 .L0 
C:\Users\stapi\AppData\Local\Temp\ccAP0xnd.s:190    .text.app_cis_conn_info_hdlr:0000000000000076 .L0 
C:\Users\stapi\AppData\Local\Temp\ccAP0xnd.s:192    .text.app_cis_conn_info_hdlr:000000000000007e .L0 
C:\Users\stapi\AppData\Local\Temp\ccAP0xnd.s:193    .text.app_cis_conn_info_hdlr:000000000000007e .L0 
C:\Users\stapi\AppData\Local\Temp\ccAP0xnd.s:196    .text.app_cis_conn_info_hdlr:000000000000007e .L0 
C:\Users\stapi\AppData\Local\Temp\ccAP0xnd.s:198    .text.app_cis_conn_info_hdlr:0000000000000080 .L0 
C:\Users\stapi\AppData\Local\Temp\ccAP0xnd.s:209    .text.app_cis_disconn_info_hdlr:0000000000000000 app_cis_disconn_info_hdlr
C:\Users\stapi\AppData\Local\Temp\ccAP0xnd.s:212    .text.app_cis_disconn_info_hdlr:0000000000000000 .L0 
C:\Users\stapi\AppData\Local\Temp\ccAP0xnd.s:214    .text.app_cis_disconn_info_hdlr:0000000000000000 .L0 
C:\Users\stapi\AppData\Local\Temp\ccAP0xnd.s:215    .text.app_cis_disconn_info_hdlr:0000000000000000 .L0 
C:\Users\stapi\AppData\Local\Temp\ccAP0xnd.s:216    .text.app_cis_disconn_info_hdlr:0000000000000000 .L0 
C:\Users\stapi\AppData\Local\Temp\ccAP0xnd.s:224    .text.app_cis_disconn_info_hdlr:000000000000000e .L0 
C:\Users\stapi\AppData\Local\Temp\ccAP0xnd.s:235    .text.app_cis_disconn_info_hdlr:0000000000000026 .L0 
C:\Users\stapi\AppData\Local\Temp\ccAP0xnd.s:236    .text.app_cis_disconn_info_hdlr:0000000000000028 .L0 
C:\Users\stapi\AppData\Local\Temp\ccAP0xnd.s:247    .text.app_iso_test_cnt_hdlr:0000000000000000 app_iso_test_cnt_hdlr
C:\Users\stapi\AppData\Local\Temp\ccAP0xnd.s:250    .text.app_iso_test_cnt_hdlr:0000000000000000 .L0 
C:\Users\stapi\AppData\Local\Temp\ccAP0xnd.s:252    .text.app_iso_test_cnt_hdlr:0000000000000000 .L0 
C:\Users\stapi\AppData\Local\Temp\ccAP0xnd.s:253    .text.app_iso_test_cnt_hdlr:0000000000000000 .L0 
C:\Users\stapi\AppData\Local\Temp\ccAP0xnd.s:254    .text.app_iso_test_cnt_hdlr:0000000000000000 .L0 
C:\Users\stapi\AppData\Local\Temp\ccAP0xnd.s:262    .text.app_iso_test_cnt_hdlr:000000000000000e .L0 
C:\Users\stapi\AppData\Local\Temp\ccAP0xnd.s:274    .text.app_iso_test_cnt_hdlr:0000000000000028 .L0 
C:\Users\stapi\AppData\Local\Temp\ccAP0xnd.s:276    .text.app_iso_test_cnt_hdlr:0000000000000028 .L0 
C:\Users\stapi\AppData\Local\Temp\ccAP0xnd.s:277    .text.app_iso_test_cnt_hdlr:000000000000002a .L0 
C:\Users\stapi\AppData\Local\Temp\ccAP0xnd.s:315    .text.app_iso_callback:0000000000000000 app_iso_callback
C:\Users\stapi\AppData\Local\Temp\ccAP0xnd.s:318    .text.app_iso_callback:0000000000000000 .L0 
C:\Users\stapi\AppData\Local\Temp\ccAP0xnd.s:320    .text.app_iso_callback:0000000000000000 .L0 
C:\Users\stapi\AppData\Local\Temp\ccAP0xnd.s:321    .text.app_iso_callback:0000000000000000 .L0 
C:\Users\stapi\AppData\Local\Temp\ccAP0xnd.s:324    .text.app_iso_callback:0000000000000006 .L0 
C:\Users\stapi\AppData\Local\Temp\ccAP0xnd.s:325    .text.app_iso_callback:000000000000000e .L0 
C:\Users\stapi\AppData\Local\Temp\ccAP0xnd.s:326    .text.app_iso_callback:000000000000000e .L0 
C:\Users\stapi\AppData\Local\Temp\ccAP0xnd.s:327    .text.app_iso_callback:000000000000000e .L0 
C:\Users\stapi\AppData\Local\Temp\ccAP0xnd.s:328    .text.app_iso_callback:000000000000000e .L0 
C:\Users\stapi\AppData\Local\Temp\ccAP0xnd.s:329    .text.app_iso_callback:000000000000000e .L0 
C:\Users\stapi\AppData\Local\Temp\ccAP0xnd.s:330    .text.app_iso_callback:000000000000000e .L0 
C:\Users\stapi\AppData\Local\Temp\ccAP0xnd.s:331    .text.app_iso_callback:000000000000000e .L0 
C:\Users\stapi\AppData\Local\Temp\ccAP0xnd.s:338    .text.app_iso_callback:000000000000001e .L0 
C:\Users\stapi\AppData\Local\Temp\ccAP0xnd.s:362    .text.app_iso_callback:0000000000000022 .L0 
C:\Users\stapi\AppData\Local\Temp\ccAP0xnd.s:363    .text.app_iso_callback:0000000000000022 .L0 
C:\Users\stapi\AppData\Local\Temp\ccAP0xnd.s:364    .text.app_iso_callback:0000000000000022 .L0 
C:\Users\stapi\AppData\Local\Temp\ccAP0xnd.s:369    .text.app_iso_callback:0000000000000030 .L0 
C:\Users\stapi\AppData\Local\Temp\ccAP0xnd.s:395    .text.app_iso_callback:0000000000000078 .L0 
C:\Users\stapi\AppData\Local\Temp\ccAP0xnd.s:396    .text.app_iso_callback:000000000000007a .L0 
C:\Users\stapi\AppData\Local\Temp\ccAP0xnd.s:397    .text.app_iso_callback:000000000000007a .L0 
C:\Users\stapi\AppData\Local\Temp\ccAP0xnd.s:399    .text.app_iso_callback:0000000000000082 .L0 
C:\Users\stapi\AppData\Local\Temp\ccAP0xnd.s:400    .text.app_iso_callback:0000000000000082 .L0 
C:\Users\stapi\AppData\Local\Temp\ccAP0xnd.s:401    .text.app_iso_callback:0000000000000082 .L0 
C:\Users\stapi\AppData\Local\Temp\ccAP0xnd.s:402    .text.app_iso_callback:0000000000000082 .L0 
C:\Users\stapi\AppData\Local\Temp\ccAP0xnd.s:403    .text.app_iso_callback:0000000000000082 .L0 
C:\Users\stapi\AppData\Local\Temp\ccAP0xnd.s:404    .text.app_iso_callback:0000000000000082 .L0 
C:\Users\stapi\AppData\Local\Temp\ccAP0xnd.s:405    .text.app_iso_callback:0000000000000082 .L0 
C:\Users\stapi\AppData\Local\Temp\ccAP0xnd.s:407    .text.app_iso_callback:0000000000000082 .L0 
C:\Users\stapi\AppData\Local\Temp\ccAP0xnd.s:412    .text.app_iso_callback:0000000000000082 .L0 
C:\Users\stapi\AppData\Local\Temp\ccAP0xnd.s:413    .text.app_iso_callback:0000000000000082 .L0 
C:\Users\stapi\AppData\Local\Temp\ccAP0xnd.s:414    .text.app_iso_callback:0000000000000082 .L0 
C:\Users\stapi\AppData\Local\Temp\ccAP0xnd.s:419    .text.app_iso_callback:0000000000000090 .L0 
C:\Users\stapi\AppData\Local\Temp\ccAP0xnd.s:429    .text.app_iso_callback:000000000000009c .L0 
C:\Users\stapi\AppData\Local\Temp\ccAP0xnd.s:439    .text.app_iso_callback:00000000000000a6 .L0 
C:\Users\stapi\AppData\Local\Temp\ccAP0xnd.s:440    .text.app_iso_callback:00000000000000a6 .L0 
C:\Users\stapi\AppData\Local\Temp\ccAP0xnd.s:441    .text.app_iso_callback:00000000000000a6 .L0 
C:\Users\stapi\AppData\Local\Temp\ccAP0xnd.s:442    .text.app_iso_callback:00000000000000a6 .L0 
C:\Users\stapi\AppData\Local\Temp\ccAP0xnd.s:448    .text.app_iso_callback:00000000000000b6 .L0 
C:\Users\stapi\AppData\Local\Temp\ccAP0xnd.s:471    .text.app_iso_callback:00000000000000f6 .L0 
C:\Users\stapi\AppData\Local\Temp\ccAP0xnd.s:475    .text.app_iso_callback:00000000000000f8 .L0 
C:\Users\stapi\AppData\Local\Temp\ccAP0xnd.s:480    .text.app_iso_callback:00000000000000fe .L0 
C:\Users\stapi\AppData\Local\Temp\ccAP0xnd.s:481    .text.app_iso_callback:00000000000000fe .L0 
C:\Users\stapi\AppData\Local\Temp\ccAP0xnd.s:483    .text.app_iso_callback:0000000000000102 .L0 
C:\Users\stapi\AppData\Local\Temp\ccAP0xnd.s:485    .text.app_iso_callback:0000000000000106 .L0 
C:\Users\stapi\AppData\Local\Temp\ccAP0xnd.s:489    .text.app_iso_callback:000000000000010a .L0 
C:\Users\stapi\AppData\Local\Temp\ccAP0xnd.s:490    .text.app_iso_callback:000000000000010a .L0 
C:\Users\stapi\AppData\Local\Temp\ccAP0xnd.s:493    .text.app_iso_callback:0000000000000110 .L0 
C:\Users\stapi\AppData\Local\Temp\ccAP0xnd.s:501    .text.app_iso_callback:0000000000000122 .L0 
C:\Users\stapi\AppData\Local\Temp\ccAP0xnd.s:502    .text.app_iso_callback:0000000000000122 .L0 
C:\Users\stapi\AppData\Local\Temp\ccAP0xnd.s:504    .text.app_iso_callback:0000000000000126 .L0 
C:\Users\stapi\AppData\Local\Temp\ccAP0xnd.s:513    .text.app_iso_callback:000000000000013e .L0 
C:\Users\stapi\AppData\Local\Temp\ccAP0xnd.s:514    .text.app_iso_callback:000000000000013e .L0 
C:\Users\stapi\AppData\Local\Temp\ccAP0xnd.s:515    .text.app_iso_callback:000000000000013e .L0 
C:\Users\stapi\AppData\Local\Temp\ccAP0xnd.s:527    .text.app_iso_callback:0000000000000146 .L0 
C:\Users\stapi\AppData\Local\Temp\ccAP0xnd.s:528    .text.app_iso_callback:0000000000000146 .L0 
C:\Users\stapi\AppData\Local\Temp\ccAP0xnd.s:529    .text.app_iso_callback:0000000000000146 .L0 
C:\Users\stapi\AppData\Local\Temp\ccAP0xnd.s:553    .text.app_iso_callback:0000000000000160 .L0 
C:\Users\stapi\AppData\Local\Temp\ccAP0xnd.s:554    .text.app_iso_callback:0000000000000160 .L0 
C:\Users\stapi\AppData\Local\Temp\ccAP0xnd.s:555    .text.app_iso_callback:0000000000000160 .L0 
C:\Users\stapi\AppData\Local\Temp\ccAP0xnd.s:561    .text.app_iso_callback:0000000000000170 .L0 
C:\Users\stapi\AppData\Local\Temp\ccAP0xnd.s:578    .text.app_iso_callback:00000000000001a6 .L0 
C:\Users\stapi\AppData\Local\Temp\ccAP0xnd.s:583    .text.app_iso_callback:00000000000001ac .L0 
C:\Users\stapi\AppData\Local\Temp\ccAP0xnd.s:584    .text.app_iso_callback:00000000000001ac .L0 
C:\Users\stapi\AppData\Local\Temp\ccAP0xnd.s:586    .text.app_iso_callback:00000000000001b0 .L0 
C:\Users\stapi\AppData\Local\Temp\ccAP0xnd.s:588    .text.app_iso_callback:00000000000001b4 .L0 
C:\Users\stapi\AppData\Local\Temp\ccAP0xnd.s:590    .text.app_iso_callback:00000000000001b8 .L0 
C:\Users\stapi\AppData\Local\Temp\ccAP0xnd.s:591    .text.app_iso_callback:00000000000001b8 .L0 
C:\Users\stapi\AppData\Local\Temp\ccAP0xnd.s:593    .text.app_iso_callback:00000000000001bc .L0 
C:\Users\stapi\AppData\Local\Temp\ccAP0xnd.s:602    .text.app_iso_callback:00000000000001d4 .L0 
C:\Users\stapi\AppData\Local\Temp\ccAP0xnd.s:603    .text.app_iso_callback:00000000000001d4 .L0 
C:\Users\stapi\AppData\Local\Temp\ccAP0xnd.s:604    .text.app_iso_callback:00000000000001d4 .L0 
C:\Users\stapi\AppData\Local\Temp\ccAP0xnd.s:613    .text.app_iso_callback:00000000000001dc .L0 
C:\Users\stapi\AppData\Local\Temp\ccAP0xnd.s:614    .text.app_iso_callback:00000000000001dc .L0 
C:\Users\stapi\AppData\Local\Temp\ccAP0xnd.s:619    .text.app_iso_callback:00000000000001ea .L0 
C:\Users\stapi\AppData\Local\Temp\ccAP0xnd.s:625    .text.app_iso_callback:00000000000001f8 .L0 
C:\Users\stapi\AppData\Local\Temp\ccAP0xnd.s:626    .text.app_iso_callback:00000000000001f8 .L0 
C:\Users\stapi\AppData\Local\Temp\ccAP0xnd.s:631    .text.app_iso_callback:0000000000000206 .L0 
C:\Users\stapi\AppData\Local\Temp\ccAP0xnd.s:637    .text.app_iso_callback:0000000000000214 .L0 
C:\Users\stapi\AppData\Local\Temp\ccAP0xnd.s:638    .text.app_iso_callback:0000000000000214 .L0 
C:\Users\stapi\AppData\Local\Temp\ccAP0xnd.s:643    .text.app_iso_callback:0000000000000222 .L0 
C:\Users\stapi\AppData\Local\Temp\ccAP0xnd.s:649    .text.app_iso_callback:0000000000000230 .L0 
C:\Users\stapi\AppData\Local\Temp\ccAP0xnd.s:650    .text.app_iso_callback:0000000000000230 .L0 
C:\Users\stapi\AppData\Local\Temp\ccAP0xnd.s:655    .text.app_iso_callback:000000000000023e .L0 
C:\Users\stapi\AppData\Local\Temp\ccAP0xnd.s:664    .text.app_iso_callback:000000000000024c .L0 
C:\Users\stapi\AppData\Local\Temp\ccAP0xnd.s:668    .text.app_iso_callback:0000000000000256 .L0 
C:\Users\stapi\AppData\Local\Temp\ccAP0xnd.s:674    .text.app_iso_callback:0000000000000258 .L0 
C:\Users\stapi\AppData\Local\Temp\ccAP0xnd.s:675    .text.app_iso_callback:0000000000000258 .L0 
C:\Users\stapi\AppData\Local\Temp\ccAP0xnd.s:676    .text.app_iso_callback:0000000000000258 .L0 
C:\Users\stapi\AppData\Local\Temp\ccAP0xnd.s:681    .text.app_iso_callback:0000000000000266 .L0 
C:\Users\stapi\AppData\Local\Temp\ccAP0xnd.s:690    .text.app_iso_callback:0000000000000274 .L0 
C:\Users\stapi\AppData\Local\Temp\ccAP0xnd.s:694    .text.app_iso_callback:000000000000027e .L0 
C:\Users\stapi\AppData\Local\Temp\ccAP0xnd.s:697    .text.app_iso_callback:0000000000000280 .L0 
C:\Users\stapi\AppData\Local\Temp\ccAP0xnd.s:701    .text.app_iso_callback:000000000000028a .L0 
C:\Users\stapi\AppData\Local\Temp\ccAP0xnd.s:704    .text.app_iso_callback:000000000000028c .L0 
C:\Users\stapi\AppData\Local\Temp\ccAP0xnd.s:708    .text.app_iso_callback:0000000000000296 .L0 
C:\Users\stapi\AppData\Local\Temp\ccAP0xnd.s:709    .text.app_iso_callback:0000000000000296 .L0 
C:\Users\stapi\AppData\Local\Temp\ccAP0xnd.s:712    .text.app_iso_callback:0000000000000298 .L0 
C:\Users\stapi\AppData\Local\Temp\ccAP0xnd.s:713    .text.app_iso_callback:0000000000000298 .L0 
C:\Users\stapi\AppData\Local\Temp\ccAP0xnd.s:714    .text.app_iso_callback:0000000000000298 .L0 
C:\Users\stapi\AppData\Local\Temp\ccAP0xnd.s:715    .text.app_iso_callback:0000000000000298 .L0 
C:\Users\stapi\AppData\Local\Temp\ccAP0xnd.s:716    .text.app_iso_callback:0000000000000298 .L0 
C:\Users\stapi\AppData\Local\Temp\ccAP0xnd.s:717    .text.app_iso_callback:0000000000000298 .L0 
C:\Users\stapi\AppData\Local\Temp\ccAP0xnd.s:718    .text.app_iso_callback:0000000000000298 .L0 
C:\Users\stapi\AppData\Local\Temp\ccAP0xnd.s:720    .text.app_iso_callback:000000000000029a .L0 
C:\Users\stapi\AppData\Local\Temp\ccAP0xnd.s:734    .text.app_big_create:0000000000000000 app_big_create
C:\Users\stapi\AppData\Local\Temp\ccAP0xnd.s:737    .text.app_big_create:0000000000000000 .L0 
C:\Users\stapi\AppData\Local\Temp\ccAP0xnd.s:739    .text.app_big_create:0000000000000000 .L0 
C:\Users\stapi\AppData\Local\Temp\ccAP0xnd.s:740    .text.app_big_create:0000000000000008 .L0 
C:\Users\stapi\AppData\Local\Temp\ccAP0xnd.s:741    .text.app_big_create:0000000000000008 .L0 
C:\Users\stapi\AppData\Local\Temp\ccAP0xnd.s:742    .text.app_big_create:0000000000000008 .L0 
C:\Users\stapi\AppData\Local\Temp\ccAP0xnd.s:743    .text.app_big_create:0000000000000008 .L0 
C:\Users\stapi\AppData\Local\Temp\ccAP0xnd.s:744    .text.app_big_create:0000000000000008 .L0 
C:\Users\stapi\AppData\Local\Temp\ccAP0xnd.s:745    .text.app_big_create:0000000000000008 .L0 
C:\Users\stapi\AppData\Local\Temp\ccAP0xnd.s:746    .text.app_big_create:0000000000000008 .L0 
C:\Users\stapi\AppData\Local\Temp\ccAP0xnd.s:747    .text.app_big_create:0000000000000008 .L0 
C:\Users\stapi\AppData\Local\Temp\ccAP0xnd.s:748    .text.app_big_create:0000000000000008 .L0 
C:\Users\stapi\AppData\Local\Temp\ccAP0xnd.s:749    .text.app_big_create:0000000000000008 .L0 
C:\Users\stapi\AppData\Local\Temp\ccAP0xnd.s:751    .text.app_big_create:0000000000000008 .L0 
C:\Users\stapi\AppData\Local\Temp\ccAP0xnd.s:752    .text.app_big_create:0000000000000008 .L0 
C:\Users\stapi\AppData\Local\Temp\ccAP0xnd.s:753    .text.app_big_create:0000000000000008 .L0 
C:\Users\stapi\AppData\Local\Temp\ccAP0xnd.s:755    .text.app_big_create:000000000000000c .L0 
C:\Users\stapi\AppData\Local\Temp\ccAP0xnd.s:757    .text.app_big_create:0000000000000010 .L0 
C:\Users\stapi\AppData\Local\Temp\ccAP0xnd.s:758    .text.app_big_create:0000000000000012 .L0 
C:\Users\stapi\AppData\Local\Temp\ccAP0xnd.s:760    .text.app_big_create:0000000000000012 .L0 
C:\Users\stapi\AppData\Local\Temp\ccAP0xnd.s:762    .text.app_big_create:0000000000000016 .L0 
C:\Users\stapi\AppData\Local\Temp\ccAP0xnd.s:764    .text.app_big_create:0000000000000018 .L0 
C:\Users\stapi\AppData\Local\Temp\ccAP0xnd.s:767    .text.app_big_create:000000000000001c .L0 
C:\Users\stapi\AppData\Local\Temp\ccAP0xnd.s:769    .text.app_big_create:000000000000001e .L0 
C:\Users\stapi\AppData\Local\Temp\ccAP0xnd.s:770    .text.app_big_create:000000000000001e .L0 
C:\Users\stapi\AppData\Local\Temp\ccAP0xnd.s:773    .text.app_big_create:0000000000000026 .L0 
C:\Users\stapi\AppData\Local\Temp\ccAP0xnd.s:774    .text.app_big_create:0000000000000026 .L0 
C:\Users\stapi\AppData\Local\Temp\ccAP0xnd.s:775    .text.app_big_create:0000000000000026 .L0 
C:\Users\stapi\AppData\Local\Temp\ccAP0xnd.s:778    .text.app_big_create:000000000000002e .L0 
C:\Users\stapi\AppData\Local\Temp\ccAP0xnd.s:779    .text.app_big_create:000000000000002e .L0 
C:\Users\stapi\AppData\Local\Temp\ccAP0xnd.s:782    .text.app_big_create:0000000000000036 .L0 
C:\Users\stapi\AppData\Local\Temp\ccAP0xnd.s:783    .text.app_big_create:0000000000000036 .L0 
C:\Users\stapi\AppData\Local\Temp\ccAP0xnd.s:786    .text.app_big_create:000000000000003c .L0 
C:\Users\stapi\AppData\Local\Temp\ccAP0xnd.s:789    .text.app_big_create:0000000000000044 .L0 
C:\Users\stapi\AppData\Local\Temp\ccAP0xnd.s:791    .text.app_big_create:0000000000000048 .L0 
C:\Users\stapi\AppData\Local\Temp\ccAP0xnd.s:792    .text.app_big_create:0000000000000048 .L0 
C:\Users\stapi\AppData\Local\Temp\ccAP0xnd.s:795    .text.app_big_create:0000000000000050 .L0 
C:\Users\stapi\AppData\Local\Temp\ccAP0xnd.s:796    .text.app_big_create:0000000000000050 .L0 
C:\Users\stapi\AppData\Local\Temp\ccAP0xnd.s:799    .text.app_big_create:0000000000000056 .L0 
C:\Users\stapi\AppData\Local\Temp\ccAP0xnd.s:800    .text.app_big_create:0000000000000056 .L0 
C:\Users\stapi\AppData\Local\Temp\ccAP0xnd.s:801    .text.app_big_create:0000000000000056 .L0 
C:\Users\stapi\AppData\Local\Temp\ccAP0xnd.s:802    .text.app_big_create:0000000000000056 .L0 
C:\Users\stapi\AppData\Local\Temp\ccAP0xnd.s:804    .text.app_big_create:000000000000005a .L0 
C:\Users\stapi\AppData\Local\Temp\ccAP0xnd.s:806    .text.app_big_create:000000000000005e .L0 
C:\Users\stapi\AppData\Local\Temp\ccAP0xnd.s:807    .text.app_big_create:000000000000005e .L0 
C:\Users\stapi\AppData\Local\Temp\ccAP0xnd.s:812    .text.app_big_create:0000000000000064 .L0 
C:\Users\stapi\AppData\Local\Temp\ccAP0xnd.s:813    .text.app_big_create:0000000000000064 .L0 
C:\Users\stapi\AppData\Local\Temp\ccAP0xnd.s:814    .text.app_big_create:0000000000000064 .L0 
C:\Users\stapi\AppData\Local\Temp\ccAP0xnd.s:819    .text.app_big_create:0000000000000072 .L0 
C:\Users\stapi\AppData\Local\Temp\ccAP0xnd.s:826    .text.app_big_create:0000000000000082 .L0 
C:\Users\stapi\AppData\Local\Temp\ccAP0xnd.s:829    .text.app_big_create:0000000000000086 .L0 
C:\Users\stapi\AppData\Local\Temp\ccAP0xnd.s:832    .text.app_big_create:0000000000000088 .L0 
C:\Users\stapi\AppData\Local\Temp\ccAP0xnd.s:836    .text.app_big_create:0000000000000092 .L0 
C:\Users\stapi\AppData\Local\Temp\ccAP0xnd.s:840    .text.app_big_create:0000000000000094 .L0 
C:\Users\stapi\AppData\Local\Temp\ccAP0xnd.s:841    .text.app_big_create:0000000000000094 .L0 
C:\Users\stapi\AppData\Local\Temp\ccAP0xnd.s:844    .text.app_big_create:000000000000009c .L0 
C:\Users\stapi\AppData\Local\Temp\ccAP0xnd.s:851    .text.app_big_create:00000000000000b0 .L0 
C:\Users\stapi\AppData\Local\Temp\ccAP0xnd.s:852    .text.app_big_create:00000000000000b0 .L0 
C:\Users\stapi\AppData\Local\Temp\ccAP0xnd.s:853    .text.app_big_create:00000000000000b0 .L0 
C:\Users\stapi\AppData\Local\Temp\ccAP0xnd.s:854    .text.app_big_create:00000000000000b0 .L0 
C:\Users\stapi\AppData\Local\Temp\ccAP0xnd.s:858    .text.app_big_create:00000000000000b6 .L0 
C:\Users\stapi\AppData\Local\Temp\ccAP0xnd.s:859    .text.app_big_create:00000000000000b6 .L0 
C:\Users\stapi\AppData\Local\Temp\ccAP0xnd.s:863    .text.app_big_create:00000000000000c0 .L0 
C:\Users\stapi\AppData\Local\Temp\ccAP0xnd.s:870    .text.app_big_create:00000000000000d0 .L0 
C:\Users\stapi\AppData\Local\Temp\ccAP0xnd.s:871    .text.app_big_create:00000000000000d0 .L0 
C:\Users\stapi\AppData\Local\Temp\ccAP0xnd.s:883    .text.app_big_create:00000000000000f4 .L0 
C:\Users\stapi\AppData\Local\Temp\ccAP0xnd.s:884    .text.app_big_create:00000000000000f6 .L0 
C:\Users\stapi\AppData\Local\Temp\ccAP0xnd.s:886    .text.app_big_create:00000000000000fe .L0 
C:\Users\stapi\AppData\Local\Temp\ccAP0xnd.s:887    .text.app_big_create:00000000000000fe .L0 
C:\Users\stapi\AppData\Local\Temp\ccAP0xnd.s:888    .text.app_big_create:00000000000000fe .L0 
C:\Users\stapi\AppData\Local\Temp\ccAP0xnd.s:889    .text.app_big_create:00000000000000fe .L0 
C:\Users\stapi\AppData\Local\Temp\ccAP0xnd.s:890    .text.app_big_create:00000000000000fe .L0 
C:\Users\stapi\AppData\Local\Temp\ccAP0xnd.s:891    .text.app_big_create:00000000000000fe .L0 
C:\Users\stapi\AppData\Local\Temp\ccAP0xnd.s:892    .text.app_big_create:00000000000000fe .L0 
C:\Users\stapi\AppData\Local\Temp\ccAP0xnd.s:893    .text.app_big_create:00000000000000fe .L0 
C:\Users\stapi\AppData\Local\Temp\ccAP0xnd.s:894    .text.app_big_create:00000000000000fe .L0 
C:\Users\stapi\AppData\Local\Temp\ccAP0xnd.s:895    .text.app_big_create:00000000000000fe .L0 
C:\Users\stapi\AppData\Local\Temp\ccAP0xnd.s:896    .text.app_big_create:00000000000000fe .L0 
C:\Users\stapi\AppData\Local\Temp\ccAP0xnd.s:903    .text.app_big_stop:0000000000000000 app_big_stop
C:\Users\stapi\AppData\Local\Temp\ccAP0xnd.s:906    .text.app_big_stop:0000000000000000 .L0 
C:\Users\stapi\AppData\Local\Temp\ccAP0xnd.s:908    .text.app_big_stop:0000000000000000 .L0 
C:\Users\stapi\AppData\Local\Temp\ccAP0xnd.s:909    .text.app_big_stop:0000000000000000 .L0 
C:\Users\stapi\AppData\Local\Temp\ccAP0xnd.s:911    .text.app_big_stop:0000000000000008 .L0 
C:\Users\stapi\AppData\Local\Temp\ccAP0xnd.s:918    .text.app_big_sync_create:0000000000000000 app_big_sync_create
C:\Users\stapi\AppData\Local\Temp\ccAP0xnd.s:921    .text.app_big_sync_create:0000000000000000 .L0 
C:\Users\stapi\AppData\Local\Temp\ccAP0xnd.s:923    .text.app_big_sync_create:0000000000000000 .L0 
C:\Users\stapi\AppData\Local\Temp\ccAP0xnd.s:924    .text.app_big_sync_create:0000000000000000 .L0 
C:\Users\stapi\AppData\Local\Temp\ccAP0xnd.s:926    .text.app_big_sync_create:0000000000000004 .L0 
C:\Users\stapi\AppData\Local\Temp\ccAP0xnd.s:928    .text.app_big_sync_create:0000000000000006 .L0 
C:\Users\stapi\AppData\Local\Temp\ccAP0xnd.s:937    .text.app_big_sync_create:000000000000001c .L0 
C:\Users\stapi\AppData\Local\Temp\ccAP0xnd.s:944    .text.app_big_sync_stop:0000000000000000 app_big_sync_stop
C:\Users\stapi\AppData\Local\Temp\ccAP0xnd.s:947    .text.app_big_sync_stop:0000000000000000 .L0 
C:\Users\stapi\AppData\Local\Temp\ccAP0xnd.s:949    .text.app_big_sync_stop:0000000000000000 .L0 
C:\Users\stapi\AppData\Local\Temp\ccAP0xnd.s:950    .text.app_big_sync_stop:0000000000000000 .L0 
C:\Users\stapi\AppData\Local\Temp\ccAP0xnd.s:952    .text.app_big_sync_stop:0000000000000008 .L0 
C:\Users\stapi\AppData\Local\Temp\ccAP0xnd.s:959    .text.app_cig_create:0000000000000000 app_cig_create
C:\Users\stapi\AppData\Local\Temp\ccAP0xnd.s:962    .text.app_cig_create:0000000000000000 .L0 
C:\Users\stapi\AppData\Local\Temp\ccAP0xnd.s:964    .text.app_cig_create:0000000000000000 .L0 
C:\Users\stapi\AppData\Local\Temp\ccAP0xnd.s:965    .text.app_cig_create:0000000000000008 .L0 
C:\Users\stapi\AppData\Local\Temp\ccAP0xnd.s:966    .text.app_cig_create:0000000000000008 .L0 
C:\Users\stapi\AppData\Local\Temp\ccAP0xnd.s:968    .text.app_cig_create:0000000000000008 .L0 
C:\Users\stapi\AppData\Local\Temp\ccAP0xnd.s:969    .text.app_cig_create:0000000000000008 .L0 
C:\Users\stapi\AppData\Local\Temp\ccAP0xnd.s:970    .text.app_cig_create:0000000000000008 .L0 
C:\Users\stapi\AppData\Local\Temp\ccAP0xnd.s:971    .text.app_cig_create:0000000000000008 .L0 
C:\Users\stapi\AppData\Local\Temp\ccAP0xnd.s:973    .text.app_cig_create:000000000000000a .L0 
C:\Users\stapi\AppData\Local\Temp\ccAP0xnd.s:974    .text.app_cig_create:000000000000000c .L0 
C:\Users\stapi\AppData\Local\Temp\ccAP0xnd.s:976    .text.app_cig_create:000000000000000c .L0 
C:\Users\stapi\AppData\Local\Temp\ccAP0xnd.s:979    .text.app_cig_create:0000000000000012 .L0 
C:\Users\stapi\AppData\Local\Temp\ccAP0xnd.s:980    .text.app_cig_create:0000000000000012 .L0 
C:\Users\stapi\AppData\Local\Temp\ccAP0xnd.s:982    .text.app_cig_create:0000000000000014 .L0 
C:\Users\stapi\AppData\Local\Temp\ccAP0xnd.s:983    .text.app_cig_create:0000000000000014 .L0 
C:\Users\stapi\AppData\Local\Temp\ccAP0xnd.s:985    .text.app_cig_create:0000000000000018 .L0 
C:\Users\stapi\AppData\Local\Temp\ccAP0xnd.s:988    .text.app_cig_create:000000000000001e .L0 
C:\Users\stapi\AppData\Local\Temp\ccAP0xnd.s:990    .text.app_cig_create:0000000000000022 .L0 
C:\Users\stapi\AppData\Local\Temp\ccAP0xnd.s:991    .text.app_cig_create:0000000000000022 .L0 
C:\Users\stapi\AppData\Local\Temp\ccAP0xnd.s:993    .text.app_cig_create:0000000000000026 .L0 
C:\Users\stapi\AppData\Local\Temp\ccAP0xnd.s:995    .text.app_cig_create:0000000000000028 .L0 
C:\Users\stapi\AppData\Local\Temp\ccAP0xnd.s:997    .text.app_cig_create:000000000000002c .L0 
C:\Users\stapi\AppData\Local\Temp\ccAP0xnd.s:999    .text.app_cig_create:0000000000000030 .L0 
C:\Users\stapi\AppData\Local\Temp\ccAP0xnd.s:1000   .text.app_cig_create:0000000000000030 .L0 
C:\Users\stapi\AppData\Local\Temp\ccAP0xnd.s:1001   .text.app_cig_create:0000000000000030 .L0 
C:\Users\stapi\AppData\Local\Temp\ccAP0xnd.s:1003   .text.app_cig_create:0000000000000034 .L0 
C:\Users\stapi\AppData\Local\Temp\ccAP0xnd.s:1005   .text.app_cig_create:0000000000000038 .L0 
C:\Users\stapi\AppData\Local\Temp\ccAP0xnd.s:1006   .text.app_cig_create:0000000000000038 .L0 
C:\Users\stapi\AppData\Local\Temp\ccAP0xnd.s:1008   .text.app_cig_create:000000000000003c .L0 
C:\Users\stapi\AppData\Local\Temp\ccAP0xnd.s:1009   .text.app_cig_create:000000000000003c .L0 
C:\Users\stapi\AppData\Local\Temp\ccAP0xnd.s:1012   .text.app_cig_create:0000000000000044 .L0 
C:\Users\stapi\AppData\Local\Temp\ccAP0xnd.s:1013   .text.app_cig_create:0000000000000044 .L0 
C:\Users\stapi\AppData\Local\Temp\ccAP0xnd.s:1015   .text.app_cig_create:0000000000000048 .L0 
C:\Users\stapi\AppData\Local\Temp\ccAP0xnd.s:1017   .text.app_cig_create:000000000000004c .L0 
C:\Users\stapi\AppData\Local\Temp\ccAP0xnd.s:1018   .text.app_cig_create:000000000000004c .L0 
C:\Users\stapi\AppData\Local\Temp\ccAP0xnd.s:1020   .text.app_cig_create:0000000000000050 .L0 
C:\Users\stapi\AppData\Local\Temp\ccAP0xnd.s:1021   .text.app_cig_create:0000000000000050 .L0 
C:\Users\stapi\AppData\Local\Temp\ccAP0xnd.s:1023   .text.app_cig_create:0000000000000054 .L0 
C:\Users\stapi\AppData\Local\Temp\ccAP0xnd.s:1025   .text.app_cig_create:0000000000000058 .L0 
C:\Users\stapi\AppData\Local\Temp\ccAP0xnd.s:1026   .text.app_cig_create:0000000000000058 .L0 
C:\Users\stapi\AppData\Local\Temp\ccAP0xnd.s:1028   .text.app_cig_create:000000000000005c .L0 
C:\Users\stapi\AppData\Local\Temp\ccAP0xnd.s:1029   .text.app_cig_create:000000000000005c .L0 
C:\Users\stapi\AppData\Local\Temp\ccAP0xnd.s:1030   .text.app_cig_create:000000000000005c .L0 
C:\Users\stapi\AppData\Local\Temp\ccAP0xnd.s:1033   .text.app_cig_create:0000000000000064 .L0 
C:\Users\stapi\AppData\Local\Temp\ccAP0xnd.s:1034   .text.app_cig_create:0000000000000064 .L0 
C:\Users\stapi\AppData\Local\Temp\ccAP0xnd.s:1036   .text.app_cig_create:0000000000000068 .L0 
C:\Users\stapi\AppData\Local\Temp\ccAP0xnd.s:1038   .text.app_cig_create:000000000000006c .L0 
C:\Users\stapi\AppData\Local\Temp\ccAP0xnd.s:1039   .text.app_cig_create:000000000000006c .L0 
C:\Users\stapi\AppData\Local\Temp\ccAP0xnd.s:1041   .text.app_cig_create:0000000000000070 .L0 
C:\Users\stapi\AppData\Local\Temp\ccAP0xnd.s:1042   .text.app_cig_create:0000000000000070 .L0 
C:\Users\stapi\AppData\Local\Temp\ccAP0xnd.s:1044   .text.app_cig_create:0000000000000074 .L0 
C:\Users\stapi\AppData\Local\Temp\ccAP0xnd.s:1047   .text.app_cig_create:0000000000000078 .L0 
C:\Users\stapi\AppData\Local\Temp\ccAP0xnd.s:1049   .text.app_cig_create:000000000000007c .L0 
C:\Users\stapi\AppData\Local\Temp\ccAP0xnd.s:1053   .text.app_cig_create:0000000000000086 .L0 
C:\Users\stapi\AppData\Local\Temp\ccAP0xnd.s:1054   .text.app_cig_create:0000000000000088 .L0 
C:\Users\stapi\AppData\Local\Temp\ccAP0xnd.s:1056   .text.app_cig_create:0000000000000090 .L0 
C:\Users\stapi\AppData\Local\Temp\ccAP0xnd.s:1057   .text.app_cig_create:0000000000000090 .L0 
C:\Users\stapi\AppData\Local\Temp\ccAP0xnd.s:1058   .text.app_cig_create:0000000000000090 .L0 
C:\Users\stapi\AppData\Local\Temp\ccAP0xnd.s:1065   .text.app_cis_prepare:0000000000000000 app_cis_prepare
C:\Users\stapi\AppData\Local\Temp\ccAP0xnd.s:1068   .text.app_cis_prepare:0000000000000000 .L0 
C:\Users\stapi\AppData\Local\Temp\ccAP0xnd.s:1070   .text.app_cis_prepare:0000000000000000 .L0 
C:\Users\stapi\AppData\Local\Temp\ccAP0xnd.s:1071   .text.app_cis_prepare:0000000000000000 .L0 
C:\Users\stapi\AppData\Local\Temp\ccAP0xnd.s:1072   .text.app_cis_prepare:0000000000000000 .L0 
C:\Users\stapi\AppData\Local\Temp\ccAP0xnd.s:1074   .text.app_cis_prepare:0000000000000002 .L0 
C:\Users\stapi\AppData\Local\Temp\ccAP0xnd.s:1078   .text.app_cis_prepare:000000000000000e .L0 
C:\Users\stapi\AppData\Local\Temp\ccAP0xnd.s:1085   .text.app_cis_disconn:0000000000000000 app_cis_disconn
C:\Users\stapi\AppData\Local\Temp\ccAP0xnd.s:1088   .text.app_cis_disconn:0000000000000000 .L0 
C:\Users\stapi\AppData\Local\Temp\ccAP0xnd.s:1090   .text.app_cis_disconn:0000000000000000 .L0 
C:\Users\stapi\AppData\Local\Temp\ccAP0xnd.s:1091   .text.app_cis_disconn:0000000000000000 .L0 
C:\Users\stapi\AppData\Local\Temp\ccAP0xnd.s:1093   .text.app_cis_disconn:0000000000000008 .L0 
C:\Users\stapi\AppData\Local\Temp\ccAP0xnd.s:1100   .text.app_cig_stop:0000000000000000 app_cig_stop
C:\Users\stapi\AppData\Local\Temp\ccAP0xnd.s:1103   .text.app_cig_stop:0000000000000000 .L0 
C:\Users\stapi\AppData\Local\Temp\ccAP0xnd.s:1105   .text.app_cig_stop:0000000000000000 .L0 
C:\Users\stapi\AppData\Local\Temp\ccAP0xnd.s:1106   .text.app_cig_stop:0000000000000000 .L0 
C:\Users\stapi\AppData\Local\Temp\ccAP0xnd.s:1108   .text.app_cig_stop:0000000000000008 .L0 
C:\Users\stapi\AppData\Local\Temp\ccAP0xnd.s:1115   .text.app_iso_tx_test:0000000000000000 app_iso_tx_test
C:\Users\stapi\AppData\Local\Temp\ccAP0xnd.s:1118   .text.app_iso_tx_test:0000000000000000 .L0 
C:\Users\stapi\AppData\Local\Temp\ccAP0xnd.s:1120   .text.app_iso_tx_test:0000000000000000 .L0 
C:\Users\stapi\AppData\Local\Temp\ccAP0xnd.s:1121   .text.app_iso_tx_test:0000000000000000 .L0 
C:\Users\stapi\AppData\Local\Temp\ccAP0xnd.s:1123   .text.app_iso_tx_test:0000000000000008 .L0 
C:\Users\stapi\AppData\Local\Temp\ccAP0xnd.s:1130   .text.app_iso_rx_test:0000000000000000 app_iso_rx_test
C:\Users\stapi\AppData\Local\Temp\ccAP0xnd.s:1133   .text.app_iso_rx_test:0000000000000000 .L0 
C:\Users\stapi\AppData\Local\Temp\ccAP0xnd.s:1135   .text.app_iso_rx_test:0000000000000000 .L0 
C:\Users\stapi\AppData\Local\Temp\ccAP0xnd.s:1136   .text.app_iso_rx_test:0000000000000000 .L0 
C:\Users\stapi\AppData\Local\Temp\ccAP0xnd.s:1138   .text.app_iso_rx_test:0000000000000008 .L0 
C:\Users\stapi\AppData\Local\Temp\ccAP0xnd.s:1145   .text.app_iso_test_end:0000000000000000 app_iso_test_end
C:\Users\stapi\AppData\Local\Temp\ccAP0xnd.s:1148   .text.app_iso_test_end:0000000000000000 .L0 
C:\Users\stapi\AppData\Local\Temp\ccAP0xnd.s:1150   .text.app_iso_test_end:0000000000000000 .L0 
C:\Users\stapi\AppData\Local\Temp\ccAP0xnd.s:1151   .text.app_iso_test_end:0000000000000000 .L0 
C:\Users\stapi\AppData\Local\Temp\ccAP0xnd.s:1153   .text.app_iso_test_end:0000000000000008 .L0 
C:\Users\stapi\AppData\Local\Temp\ccAP0xnd.s:1160   .text.app_iso_read_test_cnt:0000000000000000 app_iso_read_test_cnt
C:\Users\stapi\AppData\Local\Temp\ccAP0xnd.s:1163   .text.app_iso_read_test_cnt:0000000000000000 .L0 
C:\Users\stapi\AppData\Local\Temp\ccAP0xnd.s:1165   .text.app_iso_read_test_cnt:0000000000000000 .L0 
C:\Users\stapi\AppData\Local\Temp\ccAP0xnd.s:1166   .text.app_iso_read_test_cnt:0000000000000000 .L0 
C:\Users\stapi\AppData\Local\Temp\ccAP0xnd.s:1168   .text.app_iso_read_test_cnt:0000000000000008 .L0 
C:\Users\stapi\AppData\Local\Temp\ccAP0xnd.s:1175   .text.app_iso_mgr_init:0000000000000000 app_iso_mgr_init
C:\Users\stapi\AppData\Local\Temp\ccAP0xnd.s:1178   .text.app_iso_mgr_init:0000000000000000 .L0 
C:\Users\stapi\AppData\Local\Temp\ccAP0xnd.s:1179   .text.app_iso_mgr_init:0000000000000000 .L0 
C:\Users\stapi\AppData\Local\Temp\ccAP0xnd.s:1180   .text.app_iso_mgr_init:0000000000000008 .L0 
C:\Users\stapi\AppData\Local\Temp\ccAP0xnd.s:1181   .text.app_iso_mgr_init:0000000000000008 .L0 
C:\Users\stapi\AppData\Local\Temp\ccAP0xnd.s:1183   .text.app_iso_mgr_init:0000000000000008 .L0 
C:\Users\stapi\AppData\Local\Temp\ccAP0xnd.s:1186   .text.app_iso_mgr_init:0000000000000010 .L0 
C:\Users\stapi\AppData\Local\Temp\ccAP0xnd.s:1191   .text.app_iso_mgr_init:0000000000000020 .L0 
C:\Users\stapi\AppData\Local\Temp\ccAP0xnd.s:1192   .text.app_iso_mgr_init:0000000000000028 .L0 
C:\Users\stapi\AppData\Local\Temp\ccAP0xnd.s:1193   .text.app_iso_mgr_init:0000000000000028 .L0 
C:\Users\stapi\AppData\Local\Temp\ccAP0xnd.s:1194   .text.app_iso_mgr_init:0000000000000028 .L0 
C:\Users\stapi\AppData\Local\Temp\ccAP0xnd.s:1201   .text.app_iso_mgr_deinit:0000000000000000 app_iso_mgr_deinit
C:\Users\stapi\AppData\Local\Temp\ccAP0xnd.s:1204   .text.app_iso_mgr_deinit:0000000000000000 .L0 
C:\Users\stapi\AppData\Local\Temp\ccAP0xnd.s:1205   .text.app_iso_mgr_deinit:0000000000000000 .L0 
C:\Users\stapi\AppData\Local\Temp\ccAP0xnd.s:1206   .text.app_iso_mgr_deinit:0000000000000000 .L0 
C:\Users\stapi\AppData\Local\Temp\ccAP0xnd.s:1210   .text.app_iso_mgr_deinit:0000000000000010 .L0 
C:\Users\stapi\AppData\Local\Temp\ccAP0xnd.s:1215   .data.big_bc:0000000000000000 .LANCHOR0
C:\Users\stapi\AppData\Local\Temp\ccAP0xnd.s:1218   .data.big_bc:0000000000000000 big_bc
C:\Users\stapi\AppData\Local\Temp\ccAP0xnd.s:119    .text.app_big_sync_info_hdlr:000000000000008a .L0 
C:\Users\stapi\AppData\Local\Temp\ccAP0xnd.s:201    .text.app_cis_conn_info_hdlr:0000000000000080 .L0 
C:\Users\stapi\AppData\Local\Temp\ccAP0xnd.s:239    .text.app_cis_disconn_info_hdlr:0000000000000028 .L0 
C:\Users\stapi\AppData\Local\Temp\ccAP0xnd.s:280    .text.app_iso_test_cnt_hdlr:000000000000002a .L0 
C:\Users\stapi\AppData\Local\Temp\ccAP0xnd.s:723    .text.app_iso_callback:000000000000029a .L0 
C:\Users\stapi\AppData\Local\Temp\ccAP0xnd.s:899    .text.app_big_create:00000000000000fe .L0 
C:\Users\stapi\AppData\Local\Temp\ccAP0xnd.s:914    .text.app_big_stop:0000000000000008 .L0 
C:\Users\stapi\AppData\Local\Temp\ccAP0xnd.s:940    .text.app_big_sync_create:000000000000001c .L0 
C:\Users\stapi\AppData\Local\Temp\ccAP0xnd.s:955    .text.app_big_sync_stop:0000000000000008 .L0 
C:\Users\stapi\AppData\Local\Temp\ccAP0xnd.s:1061   .text.app_cig_create:0000000000000090 .L0 
C:\Users\stapi\AppData\Local\Temp\ccAP0xnd.s:1081   .text.app_cis_prepare:000000000000000e .L0 
C:\Users\stapi\AppData\Local\Temp\ccAP0xnd.s:1096   .text.app_cis_disconn:0000000000000008 .L0 
C:\Users\stapi\AppData\Local\Temp\ccAP0xnd.s:1111   .text.app_cig_stop:0000000000000008 .L0 
C:\Users\stapi\AppData\Local\Temp\ccAP0xnd.s:1126   .text.app_iso_tx_test:0000000000000008 .L0 
C:\Users\stapi\AppData\Local\Temp\ccAP0xnd.s:1141   .text.app_iso_rx_test:0000000000000008 .L0 
C:\Users\stapi\AppData\Local\Temp\ccAP0xnd.s:1156   .text.app_iso_test_end:0000000000000008 .L0 
C:\Users\stapi\AppData\Local\Temp\ccAP0xnd.s:1171   .text.app_iso_read_test_cnt:0000000000000008 .L0 
C:\Users\stapi\AppData\Local\Temp\ccAP0xnd.s:1197   .text.app_iso_mgr_init:0000000000000028 .L0 
C:\Users\stapi\AppData\Local\Temp\ccAP0xnd.s:1213   .text.app_iso_mgr_deinit:0000000000000010 .L0 
                     .debug_frame:0000000000000000 .L0 
C:\Users\stapi\AppData\Local\Temp\ccAP0xnd.s:11     .rodata.app_big_sync_info_hdlr.str1.4:0000000000000000 .LC0
C:\Users\stapi\AppData\Local\Temp\ccAP0xnd.s:14     .rodata.app_big_sync_info_hdlr.str1.4:0000000000000040 .LC1
C:\Users\stapi\AppData\Local\Temp\ccAP0xnd.s:17     .rodata.app_big_sync_info_hdlr.str1.4:0000000000000058 .LC2
C:\Users\stapi\AppData\Local\Temp\ccAP0xnd.s:58     .text.app_big_sync_info_hdlr:0000000000000036 .L2
C:\Users\stapi\AppData\Local\Temp\ccAP0xnd.s:94     .text.app_big_sync_info_hdlr:0000000000000068 .L5
C:\Users\stapi\AppData\Local\Temp\ccAP0xnd.s:83     .text.app_big_sync_info_hdlr:0000000000000060 .L1
C:\Users\stapi\AppData\Local\Temp\ccAP0xnd.s:107    .text.app_big_sync_info_hdlr:0000000000000082 .L4
C:\Users\stapi\AppData\Local\Temp\ccAP0xnd.s:65     .text.app_big_sync_info_hdlr:000000000000003e .L3
C:\Users\stapi\AppData\Local\Temp\ccAP0xnd.s:121    .rodata.app_cis_conn_info_hdlr.str1.4:0000000000000000 .LC3
C:\Users\stapi\AppData\Local\Temp\ccAP0xnd.s:195    .text.app_cis_conn_info_hdlr:000000000000007e .L11
C:\Users\stapi\AppData\Local\Temp\ccAP0xnd.s:203    .rodata.app_cis_disconn_info_hdlr.str1.4:0000000000000000 .LC4
C:\Users\stapi\AppData\Local\Temp\ccAP0xnd.s:234    .text.app_cis_disconn_info_hdlr:0000000000000026 .L17
C:\Users\stapi\AppData\Local\Temp\ccAP0xnd.s:241    .rodata.app_iso_test_cnt_hdlr.str1.4:0000000000000000 .LC5
C:\Users\stapi\AppData\Local\Temp\ccAP0xnd.s:275    .text.app_iso_test_cnt_hdlr:0000000000000028 .L23
C:\Users\stapi\AppData\Local\Temp\ccAP0xnd.s:344    .rodata.app_iso_callback:0000000000000000 .L29
C:\Users\stapi\AppData\Local\Temp\ccAP0xnd.s:282    .rodata.app_iso_callback.str1.4:0000000000000000 .LC6
C:\Users\stapi\AppData\Local\Temp\ccAP0xnd.s:285    .rodata.app_iso_callback.str1.4:0000000000000088 .LC7
C:\Users\stapi\AppData\Local\Temp\ccAP0xnd.s:288    .rodata.app_iso_callback.str1.4:00000000000000a8 .LC8
C:\Users\stapi\AppData\Local\Temp\ccAP0xnd.s:291    .rodata.app_iso_callback.str1.4:0000000000000130 .LC9
C:\Users\stapi\AppData\Local\Temp\ccAP0xnd.s:540    .rodata.app_iso_callback:000000000000002c .L45
C:\Users\stapi\AppData\Local\Temp\ccAP0xnd.s:294    .rodata.app_iso_callback.str1.4:0000000000000140 .LC10
C:\Users\stapi\AppData\Local\Temp\ccAP0xnd.s:297    .rodata.app_iso_callback.str1.4:00000000000001b4 .LC11
C:\Users\stapi\AppData\Local\Temp\ccAP0xnd.s:300    .rodata.app_iso_callback.str1.4:00000000000001d4 .LC12
C:\Users\stapi\AppData\Local\Temp\ccAP0xnd.s:303    .rodata.app_iso_callback.str1.4:00000000000001fc .LC13
C:\Users\stapi\AppData\Local\Temp\ccAP0xnd.s:306    .rodata.app_iso_callback.str1.4:0000000000000228 .LC14
C:\Users\stapi\AppData\Local\Temp\ccAP0xnd.s:309    .rodata.app_iso_callback.str1.4:0000000000000254 .LC15
C:\Users\stapi\AppData\Local\Temp\ccAP0xnd.s:711    .text.app_iso_callback:0000000000000298 .L56
C:\Users\stapi\AppData\Local\Temp\ccAP0xnd.s:391    .text.app_iso_callback:0000000000000078 .L26
C:\Users\stapi\AppData\Local\Temp\ccAP0xnd.s:467    .text.app_iso_callback:00000000000000f6 .L40
C:\Users\stapi\AppData\Local\Temp\ccAP0xnd.s:499    .text.app_iso_callback:0000000000000122 .L43
C:\Users\stapi\AppData\Local\Temp\ccAP0xnd.s:511    .text.app_iso_callback:000000000000013e .L42
C:\Users\stapi\AppData\Local\Temp\ccAP0xnd.s:478    .text.app_iso_callback:00000000000000fe .L41
C:\Users\stapi\AppData\Local\Temp\ccAP0xnd.s:576    .text.app_iso_callback:00000000000001a6 .L50
C:\Users\stapi\AppData\Local\Temp\ccAP0xnd.s:487    .text.app_iso_callback:000000000000010a .L60
C:\Users\stapi\AppData\Local\Temp\ccAP0xnd.s:600    .text.app_iso_callback:00000000000001d4 .L52
C:\Users\stapi\AppData\Local\Temp\ccAP0xnd.s:581    .text.app_iso_callback:00000000000001ac .L51
C:\Users\stapi\AppData\Local\Temp\ccAP0xnd.s:423    .text.app_iso_callback:000000000000009c .L61
C:\Users\stapi\AppData\Local\Temp\ccAP0xnd.s:357    .text.app_iso_callback:0000000000000022 .L37
C:\Users\stapi\AppData\Local\Temp\ccAP0xnd.s:406    .text.app_iso_callback:0000000000000082 .L36
C:\Users\stapi\AppData\Local\Temp\ccAP0xnd.s:432    .text.app_iso_callback:00000000000000a6 .L35
C:\Users\stapi\AppData\Local\Temp\ccAP0xnd.s:521    .text.app_iso_callback:0000000000000146 .L34
C:\Users\stapi\AppData\Local\Temp\ccAP0xnd.s:660    .text.app_iso_callback:000000000000024c .L33
C:\Users\stapi\AppData\Local\Temp\ccAP0xnd.s:669    .text.app_iso_callback:0000000000000258 .L32
C:\Users\stapi\AppData\Local\Temp\ccAP0xnd.s:686    .text.app_iso_callback:0000000000000274 .L31
C:\Users\stapi\AppData\Local\Temp\ccAP0xnd.s:695    .text.app_iso_callback:0000000000000280 .L30
C:\Users\stapi\AppData\Local\Temp\ccAP0xnd.s:702    .text.app_iso_callback:000000000000028c .L28
C:\Users\stapi\AppData\Local\Temp\ccAP0xnd.s:549    .text.app_iso_callback:0000000000000160 .L49
C:\Users\stapi\AppData\Local\Temp\ccAP0xnd.s:610    .text.app_iso_callback:00000000000001dc .L48
C:\Users\stapi\AppData\Local\Temp\ccAP0xnd.s:647    .text.app_iso_callback:0000000000000230 .L47
C:\Users\stapi\AppData\Local\Temp\ccAP0xnd.s:635    .text.app_iso_callback:0000000000000214 .L46
C:\Users\stapi\AppData\Local\Temp\ccAP0xnd.s:623    .text.app_iso_callback:00000000000001f8 .L44
C:\Users\stapi\AppData\Local\Temp\ccAP0xnd.s:725    .rodata.app_big_create.str1.4:0000000000000000 .LC16
C:\Users\stapi\AppData\Local\Temp\ccAP0xnd.s:728    .rodata.app_big_create.str1.4:0000000000000014 .LC17
C:\Users\stapi\AppData\Local\Temp\ccAP0xnd.s:867    .text.app_big_create:00000000000000d0 .L64
C:\Users\stapi\AppData\Local\Temp\ccAP0xnd.s:824    .text.app_big_create:0000000000000082 .L65
C:\Users\stapi\AppData\Local\Temp\ccAP0xnd.s:849    .text.app_big_create:00000000000000b0 .L66
C:\Users\stapi\AppData\Local\Temp\ccAP0xnd.s:838    .text.app_big_create:0000000000000094 .L67
C:\Users\stapi\AppData\Local\Temp\ccAP0xnd.s:3834   .debug_abbrev:0000000000000000 .Ldebug_abbrev0
C:\Users\stapi\AppData\Local\Temp\ccAP0xnd.s:5421   .debug_str:0000000000000541 .LASF184
C:\Users\stapi\AppData\Local\Temp\ccAP0xnd.s:5327   .debug_str:00000000000001e5 .LASF185
C:\Users\stapi\AppData\Local\Temp\ccAP0xnd.s:5549   .debug_str:0000000000000aa4 .LASF186
C:\Users\stapi\AppData\Local\Temp\ccAP0xnd.s:5207   .debug_ranges:0000000000000000 .Ldebug_ranges0
C:\Users\stapi\AppData\Local\Temp\ccAP0xnd.s:5273   .debug_line:0000000000000000 .Ldebug_line0
C:\Users\stapi\AppData\Local\Temp\ccAP0xnd.s:5567   .debug_str:0000000000000b89 .LASF0
C:\Users\stapi\AppData\Local\Temp\ccAP0xnd.s:5339   .debug_str:00000000000002b3 .LASF1
C:\Users\stapi\AppData\Local\Temp\ccAP0xnd.s:5293   .debug_str:00000000000000a4 .LASF4
C:\Users\stapi\AppData\Local\Temp\ccAP0xnd.s:5523   .debug_str:00000000000009c2 .LASF2
C:\Users\stapi\AppData\Local\Temp\ccAP0xnd.s:5533   .debug_str:0000000000000a26 .LASF3
C:\Users\stapi\AppData\Local\Temp\ccAP0xnd.s:5573   .debug_str:0000000000000baa .LASF5
C:\Users\stapi\AppData\Local\Temp\ccAP0xnd.s:5587   .debug_str:0000000000000c2a .LASF6
C:\Users\stapi\AppData\Local\Temp\ccAP0xnd.s:5349   .debug_str:00000000000002ee .LASF7
C:\Users\stapi\AppData\Local\Temp\ccAP0xnd.s:5413   .debug_str:0000000000000501 .LASF8
C:\Users\stapi\AppData\Local\Temp\ccAP0xnd.s:5563   .debug_str:0000000000000b72 .LASF9
C:\Users\stapi\AppData\Local\Temp\ccAP0xnd.s:5337   .debug_str:00000000000002a5 .LASF10
C:\Users\stapi\AppData\Local\Temp\ccAP0xnd.s:5313   .debug_str:0000000000000157 .LASF11
C:\Users\stapi\AppData\Local\Temp\ccAP0xnd.s:5565   .debug_str:0000000000000b84 .LASF12
C:\Users\stapi\AppData\Local\Temp\ccAP0xnd.s:5609   .debug_str:0000000000000ccd .LASF13
C:\Users\stapi\AppData\Local\Temp\ccAP0xnd.s:5365   .debug_str:0000000000000361 .LASF14
C:\Users\stapi\AppData\Local\Temp\ccAP0xnd.s:5599   .debug_str:0000000000000c92 .LASF15
C:\Users\stapi\AppData\Local\Temp\ccAP0xnd.s:5511   .debug_str:0000000000000952 .LASF21
C:\Users\stapi\AppData\Local\Temp\ccAP0xnd.s:5577   .debug_str:0000000000000bcf .LASF16
C:\Users\stapi\AppData\Local\Temp\ccAP0xnd.s:5597   .debug_str:0000000000000c73 .LASF17
C:\Users\stapi\AppData\Local\Temp\ccAP0xnd.s:5375   .debug_str:00000000000003b5 .LASF18
C:\Users\stapi\AppData\Local\Temp\ccAP0xnd.s:5377   .debug_str:00000000000003d3 .LASF19
C:\Users\stapi\AppData\Local\Temp\ccAP0xnd.s:5401   .debug_str:000000000000049a .LASF20
C:\Users\stapi\AppData\Local\Temp\ccAP0xnd.s:5439   .debug_str:00000000000006bf .LASF22
C:\Users\stapi\AppData\Local\Temp\ccAP0xnd.s:5389   .debug_str:000000000000042e .LASF23
C:\Users\stapi\AppData\Local\Temp\ccAP0xnd.s:5499   .debug_str:00000000000008ee .LASF24
C:\Users\stapi\AppData\Local\Temp\ccAP0xnd.s:5325   .debug_str:00000000000001ce .LASF25
C:\Users\stapi\AppData\Local\Temp\ccAP0xnd.s:5281   .debug_str:0000000000000026 .LASF26
C:\Users\stapi\AppData\Local\Temp\ccAP0xnd.s:5311   .debug_str:000000000000013b .LASF27
C:\Users\stapi\AppData\Local\Temp\ccAP0xnd.s:5525   .debug_str:00000000000009d0 .LASF28
C:\Users\stapi\AppData\Local\Temp\ccAP0xnd.s:5429   .debug_str:000000000000066a .LASF29
C:\Users\stapi\AppData\Local\Temp\ccAP0xnd.s:5459   .debug_str:0000000000000778 .LASF30
C:\Users\stapi\AppData\Local\Temp\ccAP0xnd.s:5531   .debug_str:0000000000000a07 .LASF31
C:\Users\stapi\AppData\Local\Temp\ccAP0xnd.s:5291   .debug_str:0000000000000082 .LASF32
C:\Users\stapi\AppData\Local\Temp\ccAP0xnd.s:5539   .debug_str:0000000000000a50 .LASF33
C:\Users\stapi\AppData\Local\Temp\ccAP0xnd.s:5369   .debug_str:0000000000000372 .LASF34
C:\Users\stapi\AppData\Local\Temp\ccAP0xnd.s:5321   .debug_str:000000000000019d .LASF35
C:\Users\stapi\AppData\Local\Temp\ccAP0xnd.s:5453   .debug_str:0000000000000725 .LASF36
C:\Users\stapi\AppData\Local\Temp\ccAP0xnd.s:5649   .debug_str:0000000000000dff .LASF37
C:\Users\stapi\AppData\Local\Temp\ccAP0xnd.s:5465   .debug_str:00000000000007c6 .LASF38
C:\Users\stapi\AppData\Local\Temp\ccAP0xnd.s:5287   .debug_str:000000000000006d .LASF39
C:\Users\stapi\AppData\Local\Temp\ccAP0xnd.s:5475   .debug_str:000000000000082a .LASF40
C:\Users\stapi\AppData\Local\Temp\ccAP0xnd.s:5601   .debug_str:0000000000000c9b .LASF41
C:\Users\stapi\AppData\Local\Temp\ccAP0xnd.s:5495   .debug_str:00000000000008d9 .LASF42
C:\Users\stapi\AppData\Local\Temp\ccAP0xnd.s:5553   .debug_str:0000000000000b29 .LASF43
C:\Users\stapi\AppData\Local\Temp\ccAP0xnd.s:5521   .debug_str:00000000000009bc .LASF44
C:\Users\stapi\AppData\Local\Temp\ccAP0xnd.s:5469   .debug_str:00000000000007e3 .LASF45
C:\Users\stapi\AppData\Local\Temp\ccAP0xnd.s:5479   .debug_str:000000000000084c .LASF46
C:\Users\stapi\AppData\Local\Temp\ccAP0xnd.s:5615   .debug_str:0000000000000ced .LASF47
C:\Users\stapi\AppData\Local\Temp\ccAP0xnd.s:5497   .debug_str:00000000000008e1 .LASF48
C:\Users\stapi\AppData\Local\Temp\ccAP0xnd.s:5289   .debug_str:0000000000000075 .LASF49
C:\Users\stapi\AppData\Local\Temp\ccAP0xnd.s:5545   .debug_str:0000000000000a81 .LASF50
C:\Users\stapi\AppData\Local\Temp\ccAP0xnd.s:5335   .debug_str:000000000000029b .LASF51
C:\Users\stapi\AppData\Local\Temp\ccAP0xnd.s:5583   .debug_str:0000000000000c0d .LASF52
C:\Users\stapi\AppData\Local\Temp\ccAP0xnd.s:5537   .debug_str:0000000000000a40 .LASF53
C:\Users\stapi\AppData\Local\Temp\ccAP0xnd.s:5535   .debug_str:0000000000000a30 .LASF54
C:\Users\stapi\AppData\Local\Temp\ccAP0xnd.s:5579   .debug_str:0000000000000bf0 .LASF55
C:\Users\stapi\AppData\Local\Temp\ccAP0xnd.s:5425   .debug_str:0000000000000650 .LASF56
C:\Users\stapi\AppData\Local\Temp\ccAP0xnd.s:5379   .debug_str:00000000000003f2 .LASF57
C:\Users\stapi\AppData\Local\Temp\ccAP0xnd.s:5623   .debug_str:0000000000000d26 .LASF58
C:\Users\stapi\AppData\Local\Temp\ccAP0xnd.s:5591   .debug_str:0000000000000c4c .LASF59
C:\Users\stapi\AppData\Local\Temp\ccAP0xnd.s:5345   .debug_str:00000000000002df .LASF60
C:\Users\stapi\AppData\Local\Temp\ccAP0xnd.s:5315   .debug_str:000000000000016e .LASF61
C:\Users\stapi\AppData\Local\Temp\ccAP0xnd.s:5561   .debug_str:0000000000000b6b .LASF62
C:\Users\stapi\AppData\Local\Temp\ccAP0xnd.s:5593   .debug_str:0000000000000c54 .LASF63
C:\Users\stapi\AppData\Local\Temp\ccAP0xnd.s:5305   .debug_str:0000000000000102 .LASF64
C:\Users\stapi\AppData\Local\Temp\ccAP0xnd.s:5547   .debug_str:0000000000000a9d .LASF65
C:\Users\stapi\AppData\Local\Temp\ccAP0xnd.s:5329   .debug_str:000000000000025a .LASF66
C:\Users\stapi\AppData\Local\Temp\ccAP0xnd.s:5603   .debug_str:0000000000000ca3 .LASF67
C:\Users\stapi\AppData\Local\Temp\ccAP0xnd.s:5395   .debug_str:0000000000000468 .LASF68
C:\Users\stapi\AppData\Local\Temp\ccAP0xnd.s:5323   .debug_str:00000000000001c5 .LASF69
C:\Users\stapi\AppData\Local\Temp\ccAP0xnd.s:5441   .debug_str:00000000000006d1 .LASF70
C:\Users\stapi\AppData\Local\Temp\ccAP0xnd.s:5371   .debug_str:0000000000000399 .LASF71
C:\Users\stapi\AppData\Local\Temp\ccAP0xnd.s:5647   .debug_str:0000000000000de0 .LASF72
C:\Users\stapi\AppData\Local\Temp\ccAP0xnd.s:5333   .debug_str:0000000000000290 .LASF73
C:\Users\stapi\AppData\Local\Temp\ccAP0xnd.s:5559   .debug_str:0000000000000b60 .LASF74
C:\Users\stapi\AppData\Local\Temp\ccAP0xnd.s:5383   .debug_str:0000000000000408 .LASF75
C:\Users\stapi\AppData\Local\Temp\ccAP0xnd.s:5493   .debug_str:00000000000008bb .LASF76
C:\Users\stapi\AppData\Local\Temp\ccAP0xnd.s:5361   .debug_str:0000000000000340 .LASF77
C:\Users\stapi\AppData\Local\Temp\ccAP0xnd.s:5619   .debug_str:0000000000000d01 .LASF78
C:\Users\stapi\AppData\Local\Temp\ccAP0xnd.s:5507   .debug_str:000000000000092f .LASF79
C:\Users\stapi\AppData\Local\Temp\ccAP0xnd.s:5551   .debug_str:0000000000000b22 .LASF80
C:\Users\stapi\AppData\Local\Temp\ccAP0xnd.s:5391   .debug_str:0000000000000445 .LASF81
C:\Users\stapi\AppData\Local\Temp\ccAP0xnd.s:5359   .debug_str:000000000000032c .LASF82
C:\Users\stapi\AppData\Local\Temp\ccAP0xnd.s:5607   .debug_str:0000000000000cb4 .LASF83
C:\Users\stapi\AppData\Local\Temp\ccAP0xnd.s:5343   .debug_str:00000000000002cf .LASF84
C:\Users\stapi\AppData\Local\Temp\ccAP0xnd.s:5341   .debug_str:00000000000002bf .LASF85
C:\Users\stapi\AppData\Local\Temp\ccAP0xnd.s:5589   .debug_str:0000000000000c3d .LASF86
C:\Users\stapi\AppData\Local\Temp\ccAP0xnd.s:5585   .debug_str:0000000000000c1b .LASF87
C:\Users\stapi\AppData\Local\Temp\ccAP0xnd.s:5527   .debug_str:00000000000009e6 .LASF88
C:\Users\stapi\AppData\Local\Temp\ccAP0xnd.s:5543   .debug_str:0000000000000a77 .LASF89
C:\Users\stapi\AppData\Local\Temp\ccAP0xnd.s:5541   .debug_str:0000000000000a6d .LASF90
C:\Users\stapi\AppData\Local\Temp\ccAP0xnd.s:5431   .debug_str:0000000000000682 .LASF91
C:\Users\stapi\AppData\Local\Temp\ccAP0xnd.s:5351   .debug_str:00000000000002f7 .LASF92
C:\Users\stapi\AppData\Local\Temp\ccAP0xnd.s:5319   .debug_str:0000000000000191 .LASF93
C:\Users\stapi\AppData\Local\Temp\ccAP0xnd.s:5449   .debug_str:0000000000000701 .LASF94
C:\Users\stapi\AppData\Local\Temp\ccAP0xnd.s:5409   .debug_str:00000000000004f1 .LASF95
C:\Users\stapi\AppData\Local\Temp\ccAP0xnd.s:5463   .debug_str:00000000000007b2 .LASF96
C:\Users\stapi\AppData\Local\Temp\ccAP0xnd.s:5621   .debug_str:0000000000000d0d .LASF97
C:\Users\stapi\AppData\Local\Temp\ccAP0xnd.s:5595   .debug_str:0000000000000c5b .LASF98
C:\Users\stapi\AppData\Local\Temp\ccAP0xnd.s:5503   .debug_str:000000000000090c .LASF99
C:\Users\stapi\AppData\Local\Temp\ccAP0xnd.s:5513   .debug_str:0000000000000966 .LASF100
C:\Users\stapi\AppData\Local\Temp\ccAP0xnd.s:5487   .debug_str:0000000000000888 .LASF101
C:\Users\stapi\AppData\Local\Temp\ccAP0xnd.s:5451   .debug_str:0000000000000709 .LASF102
C:\Users\stapi\AppData\Local\Temp\ccAP0xnd.s:5575   .debug_str:0000000000000bb5 .LASF103
C:\Users\stapi\AppData\Local\Temp\ccAP0xnd.s:5317   .debug_str:0000000000000175 .LASF104
C:\Users\stapi\AppData\Local\Temp\ccAP0xnd.s:5283   .debug_str:0000000000000040 .LASF105
C:\Users\stapi\AppData\Local\Temp\ccAP0xnd.s:5477   .debug_str:0000000000000832 .LASF106
C:\Users\stapi\AppData\Local\Temp\ccAP0xnd.s:5473   .debug_str:000000000000080d .LASF107
C:\Users\stapi\AppData\Local\Temp\ccAP0xnd.s:5403   .debug_str:00000000000004b9 .LASF108
C:\Users\stapi\AppData\Local\Temp\ccAP0xnd.s:5297   .debug_str:00000000000000c0 .LASF109
C:\Users\stapi\AppData\Local\Temp\ccAP0xnd.s:5489   .debug_str:00000000000008a4 .LASF110
C:\Users\stapi\AppData\Local\Temp\ccAP0xnd.s:5571   .debug_str:0000000000000b9f .LASF111
C:\Users\stapi\AppData\Local\Temp\ccAP0xnd.s:5645   .debug_str:0000000000000dcc .LASF112
C:\Users\stapi\AppData\Local\Temp\ccAP0xnd.s:5557   .debug_str:0000000000000b4c .LASF113
C:\Users\stapi\AppData\Local\Temp\ccAP0xnd.s:5485   .debug_str:0000000000000874 .LASF114
C:\Users\stapi\AppData\Local\Temp\ccAP0xnd.s:5509   .debug_str:0000000000000937 .LASF115
C:\Users\stapi\AppData\Local\Temp\ccAP0xnd.s:5355   .debug_str:000000000000030e .LASF119
C:\Users\stapi\AppData\Local\Temp\ccAP0xnd.s:5353   .debug_str:0000000000000303 .LASF116
C:\Users\stapi\AppData\Local\Temp\ccAP0xnd.s:5385   .debug_str:0000000000000415 .LASF117
C:\Users\stapi\AppData\Local\Temp\ccAP0xnd.s:5417   .debug_str:000000000000051c .LASF118
C:\Users\stapi\AppData\Local\Temp\ccAP0xnd.s:5427   .debug_str:000000000000065c .LASF120
C:\Users\stapi\AppData\Local\Temp\ccAP0xnd.s:5347   .debug_str:00000000000002e6 .LASF121
C:\Users\stapi\AppData\Local\Temp\ccAP0xnd.s:5307   .debug_str:000000000000011a .LASF122
C:\Users\stapi\AppData\Local\Temp\ccAP0xnd.s:5275   .debug_str:0000000000000000 .LASF123
C:\Users\stapi\AppData\Local\Temp\ccAP0xnd.s:5405   .debug_str:00000000000004d2 .LASF124
C:\Users\stapi\AppData\Local\Temp\ccAP0xnd.s:5279   .debug_str:000000000000001f .LASF125
C:\Users\stapi\AppData\Local\Temp\ccAP0xnd.s:5483   .debug_str:000000000000086f .LASF126
C:\Users\stapi\AppData\Local\Temp\ccAP0xnd.s:5639   .debug_str:0000000000000daf .LASF127
C:\Users\stapi\AppData\Local\Temp\ccAP0xnd.s:5613   .debug_str:0000000000000ce8 .LASF128
C:\Users\stapi\AppData\Local\Temp\ccAP0xnd.s:5393   .debug_str:0000000000000455 .LASF187
C:\Users\stapi\AppData\Local\Temp\ccAP0xnd.s:5643   .debug_str:0000000000000dc5 .LASF144
C:\Users\stapi\AppData\Local\Temp\ccAP0xnd.s:5611   .debug_str:0000000000000cd5 .LASF129
C:\Users\stapi\AppData\Local\Temp\ccAP0xnd.s:1202   .text.app_iso_mgr_deinit:0000000000000000 .LFB27
C:\Users\stapi\AppData\Local\Temp\ccAP0xnd.s:1211   .text.app_iso_mgr_deinit:0000000000000010 .LFE27
C:\Users\stapi\AppData\Local\Temp\ccAP0xnd.s:1209   .text.app_iso_mgr_deinit:0000000000000010 .LVL92
C:\Users\stapi\AppData\Local\Temp\ccAP0xnd.s:5373   .debug_str:00000000000003a4 .LASF130
C:\Users\stapi\AppData\Local\Temp\ccAP0xnd.s:1176   .text.app_iso_mgr_init:0000000000000000 .LFB26
C:\Users\stapi\AppData\Local\Temp\ccAP0xnd.s:1195   .text.app_iso_mgr_init:0000000000000028 .LFE26
C:\Users\stapi\AppData\Local\Temp\ccAP0xnd.s:1184   .text.app_iso_mgr_init:0000000000000010 .LVL90
C:\Users\stapi\AppData\Local\Temp\ccAP0xnd.s:1189   .text.app_iso_mgr_init:0000000000000020 .LVL91
C:\Users\stapi\AppData\Local\Temp\ccAP0xnd.s:5423   .debug_str:000000000000063a .LASF131
C:\Users\stapi\AppData\Local\Temp\ccAP0xnd.s:1161   .text.app_iso_read_test_cnt:0000000000000000 .LFB25
C:\Users\stapi\AppData\Local\Temp\ccAP0xnd.s:1169   .text.app_iso_read_test_cnt:0000000000000008 .LFE25
C:\Users\stapi\AppData\Local\Temp\ccAP0xnd.s:4656   .debug_loc:0000000000000000 .LLST35
C:\Users\stapi\AppData\Local\Temp\ccAP0xnd.s:1167   .text.app_iso_read_test_cnt:0000000000000008 .LVL89
C:\Users\stapi\AppData\Local\Temp\ccAP0xnd.s:5309   .debug_str:000000000000012a .LASF132
C:\Users\stapi\AppData\Local\Temp\ccAP0xnd.s:1146   .text.app_iso_test_end:0000000000000000 .LFB24
C:\Users\stapi\AppData\Local\Temp\ccAP0xnd.s:1154   .text.app_iso_test_end:0000000000000008 .LFE24
C:\Users\stapi\AppData\Local\Temp\ccAP0xnd.s:4670   .debug_loc:0000000000000021 .LLST34
C:\Users\stapi\AppData\Local\Temp\ccAP0xnd.s:1152   .text.app_iso_test_end:0000000000000008 .LVL87
C:\Users\stapi\AppData\Local\Temp\ccAP0xnd.s:5399   .debug_str:000000000000048a .LASF133
C:\Users\stapi\AppData\Local\Temp\ccAP0xnd.s:1131   .text.app_iso_rx_test:0000000000000000 .LFB23
C:\Users\stapi\AppData\Local\Temp\ccAP0xnd.s:1139   .text.app_iso_rx_test:0000000000000008 .LFE23
C:\Users\stapi\AppData\Local\Temp\ccAP0xnd.s:4684   .debug_loc:0000000000000042 .LLST32
C:\Users\stapi\AppData\Local\Temp\ccAP0xnd.s:5303   .debug_str:00000000000000fd .LASF134
C:\Users\stapi\AppData\Local\Temp\ccAP0xnd.s:4698   .debug_loc:0000000000000063 .LLST33
C:\Users\stapi\AppData\Local\Temp\ccAP0xnd.s:1137   .text.app_iso_rx_test:0000000000000008 .LVL85
C:\Users\stapi\AppData\Local\Temp\ccAP0xnd.s:5415   .debug_str:000000000000050c .LASF135
C:\Users\stapi\AppData\Local\Temp\ccAP0xnd.s:1116   .text.app_iso_tx_test:0000000000000000 .LFB22
C:\Users\stapi\AppData\Local\Temp\ccAP0xnd.s:1124   .text.app_iso_tx_test:0000000000000008 .LFE22
C:\Users\stapi\AppData\Local\Temp\ccAP0xnd.s:4712   .debug_loc:0000000000000084 .LLST30
C:\Users\stapi\AppData\Local\Temp\ccAP0xnd.s:4726   .debug_loc:00000000000000a5 .LLST31
C:\Users\stapi\AppData\Local\Temp\ccAP0xnd.s:1122   .text.app_iso_tx_test:0000000000000008 .LVL83
C:\Users\stapi\AppData\Local\Temp\ccAP0xnd.s:5529   .debug_str:00000000000009fa .LASF136
C:\Users\stapi\AppData\Local\Temp\ccAP0xnd.s:1101   .text.app_cig_stop:0000000000000000 .LFB21
C:\Users\stapi\AppData\Local\Temp\ccAP0xnd.s:1109   .text.app_cig_stop:0000000000000008 .LFE21
C:\Users\stapi\AppData\Local\Temp\ccAP0xnd.s:4740   .debug_loc:00000000000000c6 .LLST29
C:\Users\stapi\AppData\Local\Temp\ccAP0xnd.s:1107   .text.app_cig_stop:0000000000000008 .LVL81
C:\Users\stapi\AppData\Local\Temp\ccAP0xnd.s:5641   .debug_str:0000000000000db5 .LASF137
C:\Users\stapi\AppData\Local\Temp\ccAP0xnd.s:1086   .text.app_cis_disconn:0000000000000000 .LFB20
C:\Users\stapi\AppData\Local\Temp\ccAP0xnd.s:1094   .text.app_cis_disconn:0000000000000008 .LFE20
C:\Users\stapi\AppData\Local\Temp\ccAP0xnd.s:4754   .debug_loc:00000000000000e7 .LLST28
C:\Users\stapi\AppData\Local\Temp\ccAP0xnd.s:1092   .text.app_cis_disconn:0000000000000008 .LVL79
C:\Users\stapi\AppData\Local\Temp\ccAP0xnd.s:5387   .debug_str:000000000000041e .LASF138
C:\Users\stapi\AppData\Local\Temp\ccAP0xnd.s:1066   .text.app_cis_prepare:0000000000000000 .LFB19
C:\Users\stapi\AppData\Local\Temp\ccAP0xnd.s:1079   .text.app_cis_prepare:000000000000000e .LFE19
C:\Users\stapi\AppData\Local\Temp\ccAP0xnd.s:5505   .debug_str:0000000000000928 .LASF139
C:\Users\stapi\AppData\Local\Temp\ccAP0xnd.s:4768   .debug_loc:0000000000000108 .LLST26
C:\Users\stapi\AppData\Local\Temp\ccAP0xnd.s:5501   .debug_str:0000000000000905 .LASF140
C:\Users\stapi\AppData\Local\Temp\ccAP0xnd.s:4782   .debug_loc:0000000000000129 .LLST27
C:\Users\stapi\AppData\Local\Temp\ccAP0xnd.s:1077   .text.app_cis_prepare:000000000000000e .LVL77
C:\Users\stapi\AppData\Local\Temp\ccAP0xnd.s:5435   .debug_str:00000000000006aa .LASF141
C:\Users\stapi\AppData\Local\Temp\ccAP0xnd.s:960    .text.app_cig_create:0000000000000000 .LFB18
C:\Users\stapi\AppData\Local\Temp\ccAP0xnd.s:1059   .text.app_cig_create:0000000000000090 .LFE18
C:\Users\stapi\AppData\Local\Temp\ccAP0xnd.s:5617   .debug_str:0000000000000cf8 .LASF142
C:\Users\stapi\AppData\Local\Temp\ccAP0xnd.s:4796   .debug_loc:000000000000014a .LLST24
C:\Users\stapi\AppData\Local\Temp\ccAP0xnd.s:5411   .debug_str:00000000000004f9 .LASF143
C:\Users\stapi\AppData\Local\Temp\ccAP0xnd.s:4810   .debug_loc:000000000000016b .LLST25
C:\Users\stapi\AppData\Local\Temp\ccAP0xnd.s:5447   .debug_str:00000000000006f7 .LASF145
C:\Users\stapi\AppData\Local\Temp\ccAP0xnd.s:5605   .debug_str:0000000000000caa .LASF146
C:\Users\stapi\AppData\Local\Temp\ccAP0xnd.s:1051   .text.app_cig_create:0000000000000086 .LVL74
C:\Users\stapi\AppData\Local\Temp\ccAP0xnd.s:5295   .debug_str:00000000000000ae .LASF147
C:\Users\stapi\AppData\Local\Temp\ccAP0xnd.s:945    .text.app_big_sync_stop:0000000000000000 .LFB17
C:\Users\stapi\AppData\Local\Temp\ccAP0xnd.s:953    .text.app_big_sync_stop:0000000000000008 .LFE17
C:\Users\stapi\AppData\Local\Temp\ccAP0xnd.s:4824   .debug_loc:000000000000018c .LLST23
C:\Users\stapi\AppData\Local\Temp\ccAP0xnd.s:951    .text.app_big_sync_stop:0000000000000008 .LVL71
C:\Users\stapi\AppData\Local\Temp\ccAP0xnd.s:5443   .debug_str:00000000000006d9 .LASF148
C:\Users\stapi\AppData\Local\Temp\ccAP0xnd.s:919    .text.app_big_sync_create:0000000000000000 .LFB16
C:\Users\stapi\AppData\Local\Temp\ccAP0xnd.s:938    .text.app_big_sync_create:000000000000001c .LFE16
C:\Users\stapi\AppData\Local\Temp\ccAP0xnd.s:5569   .debug_str:0000000000000b96 .LASF149
C:\Users\stapi\AppData\Local\Temp\ccAP0xnd.s:4838   .debug_loc:00000000000001ad .LLST20
C:\Users\stapi\AppData\Local\Temp\ccAP0xnd.s:4852   .debug_loc:00000000000001ce .LLST21
C:\Users\stapi\AppData\Local\Temp\ccAP0xnd.s:5445   .debug_str:00000000000006ed .LASF150
C:\Users\stapi\AppData\Local\Temp\ccAP0xnd.s:4866   .debug_loc:00000000000001ef .LLST22
C:\Users\stapi\AppData\Local\Temp\ccAP0xnd.s:936    .text.app_big_sync_create:000000000000001c .LVL69
C:\Users\stapi\AppData\Local\Temp\ccAP0xnd.s:5635   .debug_str:0000000000000d89 .LASF151
C:\Users\stapi\AppData\Local\Temp\ccAP0xnd.s:904    .text.app_big_stop:0000000000000000 .LFB15
C:\Users\stapi\AppData\Local\Temp\ccAP0xnd.s:912    .text.app_big_stop:0000000000000008 .LFE15
C:\Users\stapi\AppData\Local\Temp\ccAP0xnd.s:4880   .debug_loc:0000000000000210 .LLST19
C:\Users\stapi\AppData\Local\Temp\ccAP0xnd.s:910    .text.app_big_stop:0000000000000008 .LVL65
C:\Users\stapi\AppData\Local\Temp\ccAP0xnd.s:5433   .debug_str:000000000000069b .LASF152
C:\Users\stapi\AppData\Local\Temp\ccAP0xnd.s:735    .text.app_big_create:0000000000000000 .LFB14
C:\Users\stapi\AppData\Local\Temp\ccAP0xnd.s:897    .text.app_big_create:00000000000000fe .LFE14
C:\Users\stapi\AppData\Local\Temp\ccAP0xnd.s:5367   .debug_str:000000000000036a .LASF153
C:\Users\stapi\AppData\Local\Temp\ccAP0xnd.s:4894   .debug_loc:0000000000000231 .LLST16
C:\Users\stapi\AppData\Local\Temp\ccAP0xnd.s:4908   .debug_loc:0000000000000252 .LLST17
C:\Users\stapi\AppData\Local\Temp\ccAP0xnd.s:5381   .debug_str:00000000000003fe .LASF154
C:\Users\stapi\AppData\Local\Temp\ccAP0xnd.s:4919   .debug_loc:0000000000000270 .LLST18
C:\Users\stapi\AppData\Local\Temp\ccAP0xnd.s:823    .text.app_big_create:0000000000000082 .LVL58
C:\Users\stapi\AppData\Local\Temp\ccAP0xnd.s:848    .text.app_big_create:00000000000000b0 .LVL60
C:\Users\stapi\AppData\Local\Temp\ccAP0xnd.s:866    .text.app_big_create:00000000000000d0 .LVL62
C:\Users\stapi\AppData\Local\Temp\ccAP0xnd.s:881    .text.app_big_create:00000000000000f4 .LVL63
C:\Users\stapi\AppData\Local\Temp\ccAP0xnd.s:5285   .debug_str:000000000000005c .LASF155
C:\Users\stapi\AppData\Local\Temp\ccAP0xnd.s:316    .text.app_iso_callback:0000000000000000 .LFB13
C:\Users\stapi\AppData\Local\Temp\ccAP0xnd.s:721    .text.app_iso_callback:000000000000029a .LFE13
C:\Users\stapi\AppData\Local\Temp\ccAP0xnd.s:5437   .debug_str:00000000000006b9 .LASF156
C:\Users\stapi\AppData\Local\Temp\ccAP0xnd.s:4937   .debug_loc:000000000000029c .LLST7
C:\Users\stapi\AppData\Local\Temp\ccAP0xnd.s:5627   .debug_str:0000000000000d42 .LASF157
C:\Users\stapi\AppData\Local\Temp\ccAP0xnd.s:4955   .debug_loc:00000000000002c8 .LLST8
C:\Users\stapi\AppData\Local\Temp\ccAP0xnd.s:360    .text.app_iso_callback:0000000000000022 .LBB27
C:\Users\stapi\AppData\Local\Temp\ccAP0xnd.s:393    .text.app_iso_callback:0000000000000078 .LBE27
C:\Users\stapi\AppData\Local\Temp\ccAP0xnd.s:4970   .debug_loc:00000000000002f1 .LLST9
C:\Users\stapi\AppData\Local\Temp\ccAP0xnd.s:390    .text.app_iso_callback:0000000000000078 .LVL26
C:\Users\stapi\AppData\Local\Temp\ccAP0xnd.s:410    .text.app_iso_callback:0000000000000082 .LBB29
C:\Users\stapi\AppData\Local\Temp\ccAP0xnd.s:425    .text.app_iso_callback:000000000000009c .LBE29
C:\Users\stapi\AppData\Local\Temp\ccAP0xnd.s:4981   .debug_loc:000000000000030f .LLST10
C:\Users\stapi\AppData\Local\Temp\ccAP0xnd.s:426    .text.app_iso_callback:000000000000009c .LBB31
C:\Users\stapi\AppData\Local\Temp\ccAP0xnd.s:4988   .debug_loc:0000000000000322 .LLST11
C:\Users\stapi\AppData\Local\Temp\ccAP0xnd.s:430    .text.app_iso_callback:00000000000000a4 .LVL29
C:\Users\stapi\AppData\Local\Temp\ccAP0xnd.s:437    .text.app_iso_callback:00000000000000a6 .LBB34
C:\Users\stapi\AppData\Local\Temp\ccAP0xnd.s:4995   .debug_loc:0000000000000335 .LLST12
C:\Users\stapi\AppData\Local\Temp\ccAP0xnd.s:5006   .debug_loc:0000000000000353 .LLST13
C:\Users\stapi\AppData\Local\Temp\ccAP0xnd.s:466    .text.app_iso_callback:00000000000000f6 .LVL31
C:\Users\stapi\AppData\Local\Temp\ccAP0xnd.s:496    .text.app_iso_callback:0000000000000120 .LVL34
C:\Users\stapi\AppData\Local\Temp\ccAP0xnd.s:510    .text.app_iso_callback:000000000000013e .LVL36
C:\Users\stapi\AppData\Local\Temp\ccAP0xnd.s:525    .text.app_iso_callback:0000000000000146 .LBB38
C:\Users\stapi\AppData\Local\Temp\ccAP0xnd.s:662    .text.app_iso_callback:000000000000024c .LBE38
C:\Users\stapi\AppData\Local\Temp\ccAP0xnd.s:5026   .debug_loc:0000000000000388 .LLST14
C:\Users\stapi\AppData\Local\Temp\ccAP0xnd.s:550    .text.app_iso_callback:0000000000000160 .LBB40
C:\Users\stapi\AppData\Local\Temp\ccAP0xnd.s:611    .text.app_iso_callback:00000000000001dc .LBE40
C:\Users\stapi\AppData\Local\Temp\ccAP0xnd.s:5033   .debug_loc:000000000000039b .LLST15
C:\Users\stapi\AppData\Local\Temp\ccAP0xnd.s:575    .text.app_iso_callback:00000000000001a6 .LVL41
C:\Users\stapi\AppData\Local\Temp\ccAP0xnd.s:599    .text.app_iso_callback:00000000000001d4 .LVL43
C:\Users\stapi\AppData\Local\Temp\ccAP0xnd.s:666    .text.app_iso_callback:0000000000000256 .LVL48
C:\Users\stapi\AppData\Local\Temp\ccAP0xnd.s:692    .text.app_iso_callback:000000000000027e .LVL51
C:\Users\stapi\AppData\Local\Temp\ccAP0xnd.s:699    .text.app_iso_callback:000000000000028a .LVL52
C:\Users\stapi\AppData\Local\Temp\ccAP0xnd.s:706    .text.app_iso_callback:0000000000000296 .LVL53
C:\Users\stapi\AppData\Local\Temp\ccAP0xnd.s:5455   .debug_str:0000000000000749 .LASF158
C:\Users\stapi\AppData\Local\Temp\ccAP0xnd.s:5363   .debug_str:000000000000035a .LASF160
C:\Users\stapi\AppData\Local\Temp\ccAP0xnd.s:5631   .debug_str:0000000000000d53 .LASF159
C:\Users\stapi\AppData\Local\Temp\ccAP0xnd.s:5407   .debug_str:00000000000004da .LASF161
C:\Users\stapi\AppData\Local\Temp\ccAP0xnd.s:5299   .debug_str:00000000000000ce .LASF163
C:\Users\stapi\AppData\Local\Temp\ccAP0xnd.s:5471   .debug_str:00000000000007f6 .LASF162
C:\Users\stapi\AppData\Local\Temp\ccAP0xnd.s:24     .text.app_big_sync_info_hdlr:0000000000000000 .LFB8
C:\Users\stapi\AppData\Local\Temp\ccAP0xnd.s:117    .text.app_big_sync_info_hdlr:000000000000008a .LFE8
C:\Users\stapi\AppData\Local\Temp\ccAP0xnd.s:5049   .debug_loc:00000000000003c5 .LLST0
C:\Users\stapi\AppData\Local\Temp\ccAP0xnd.s:5060   .debug_loc:00000000000003e3 .LLST1
C:\Users\stapi\AppData\Local\Temp\ccAP0xnd.s:57     .text.app_big_sync_info_hdlr:0000000000000036 .LVL3
C:\Users\stapi\AppData\Local\Temp\ccAP0xnd.s:81     .text.app_big_sync_info_hdlr:0000000000000060 .LVL5
C:\Users\stapi\AppData\Local\Temp\ccAP0xnd.s:106    .text.app_big_sync_info_hdlr:0000000000000082 .LVL6
C:\Users\stapi\AppData\Local\Temp\ccAP0xnd.s:5457   .debug_str:000000000000075f .LASF164
C:\Users\stapi\AppData\Local\Temp\ccAP0xnd.s:5637   .debug_str:0000000000000d96 .LASF165
C:\Users\stapi\AppData\Local\Temp\ccAP0xnd.s:5555   .debug_str:0000000000000b33 .LASF166
C:\Users\stapi\AppData\Local\Temp\ccAP0xnd.s:5419   .debug_str:000000000000052c .LASF167
C:\Users\stapi\AppData\Local\Temp\ccAP0xnd.s:128    .text.app_cis_conn_info_hdlr:0000000000000000 .LFB10
C:\Users\stapi\AppData\Local\Temp\ccAP0xnd.s:199    .text.app_cis_conn_info_hdlr:0000000000000080 .LFE10
C:\Users\stapi\AppData\Local\Temp\ccAP0xnd.s:5076   .debug_loc:000000000000040d .LLST2
C:\Users\stapi\AppData\Local\Temp\ccAP0xnd.s:143    .text.app_cis_conn_info_hdlr:0000000000000016 .LBB4
C:\Users\stapi\AppData\Local\Temp\ccAP0xnd.s:5094   .debug_loc:0000000000000439 .LLST3
C:\Users\stapi\AppData\Local\Temp\ccAP0xnd.s:183    .text.app_cis_conn_info_hdlr:0000000000000074 .LVL12
C:\Users\stapi\AppData\Local\Temp\ccAP0xnd.s:210    .text.app_cis_disconn_info_hdlr:0000000000000000 .LFB11
C:\Users\stapi\AppData\Local\Temp\ccAP0xnd.s:237    .text.app_cis_disconn_info_hdlr:0000000000000028 .LFE11
C:\Users\stapi\AppData\Local\Temp\ccAP0xnd.s:5108   .debug_loc:000000000000045a .LLST4
C:\Users\stapi\AppData\Local\Temp\ccAP0xnd.s:221    .text.app_cis_disconn_info_hdlr:000000000000000e .LBB10
C:\Users\stapi\AppData\Local\Temp\ccAP0xnd.s:232    .text.app_cis_disconn_info_hdlr:0000000000000026 .LBE10
C:\Users\stapi\AppData\Local\Temp\ccAP0xnd.s:230    .text.app_cis_disconn_info_hdlr:0000000000000026 .LVL17
C:\Users\stapi\AppData\Local\Temp\ccAP0xnd.s:248    .text.app_iso_test_cnt_hdlr:0000000000000000 .LFB12
C:\Users\stapi\AppData\Local\Temp\ccAP0xnd.s:278    .text.app_iso_test_cnt_hdlr:000000000000002a .LFE12
C:\Users\stapi\AppData\Local\Temp\ccAP0xnd.s:5126   .debug_loc:0000000000000486 .LLST5
C:\Users\stapi\AppData\Local\Temp\ccAP0xnd.s:259    .text.app_iso_test_cnt_hdlr:000000000000000e .LBB14
C:\Users\stapi\AppData\Local\Temp\ccAP0xnd.s:273    .text.app_iso_test_cnt_hdlr:0000000000000028 .LBE14
C:\Users\stapi\AppData\Local\Temp\ccAP0xnd.s:5144   .debug_loc:00000000000004b2 .LLST6
C:\Users\stapi\AppData\Local\Temp\ccAP0xnd.s:270    .text.app_iso_test_cnt_hdlr:0000000000000028 .LVL21
C:\Users\stapi\AppData\Local\Temp\ccAP0xnd.s:5633   .debug_str:0000000000000d6d .LASF168
C:\Users\stapi\AppData\Local\Temp\ccAP0xnd.s:5581   .debug_str:0000000000000c00 .LASF169
C:\Users\stapi\AppData\Local\Temp\ccAP0xnd.s:5277   .debug_str:0000000000000005 .LASF170
C:\Users\stapi\AppData\Local\Temp\ccAP0xnd.s:5397   .debug_str:0000000000000474 .LASF171
C:\Users\stapi\AppData\Local\Temp\ccAP0xnd.s:5491   .debug_str:00000000000008aa .LASF172
C:\Users\stapi\AppData\Local\Temp\ccAP0xnd.s:5357   .debug_str:000000000000031c .LASF173
C:\Users\stapi\AppData\Local\Temp\ccAP0xnd.s:5467   .debug_str:00000000000007d3 .LASF174
C:\Users\stapi\AppData\Local\Temp\ccAP0xnd.s:5461   .debug_str:000000000000079c .LASF175
C:\Users\stapi\AppData\Local\Temp\ccAP0xnd.s:5519   .debug_str:00000000000009a8 .LASF176
C:\Users\stapi\AppData\Local\Temp\ccAP0xnd.s:5625   .debug_str:0000000000000d2e .LASF177
C:\Users\stapi\AppData\Local\Temp\ccAP0xnd.s:5517   .debug_str:0000000000000995 .LASF178
C:\Users\stapi\AppData\Local\Temp\ccAP0xnd.s:5331   .debug_str:0000000000000275 .LASF179
C:\Users\stapi\AppData\Local\Temp\ccAP0xnd.s:5481   .debug_str:0000000000000857 .LASF180
C:\Users\stapi\AppData\Local\Temp\ccAP0xnd.s:5301   .debug_str:00000000000000e7 .LASF181
C:\Users\stapi\AppData\Local\Temp\ccAP0xnd.s:5629   .debug_str:0000000000000d49 .LASF182
C:\Users\stapi\AppData\Local\Temp\ccAP0xnd.s:5515   .debug_str:0000000000000982 .LASF183
C:\Users\stapi\AppData\Local\Temp\ccAP0xnd.s:1164   .text.app_iso_read_test_cnt:0000000000000000 .LVL88
C:\Users\stapi\AppData\Local\Temp\ccAP0xnd.s:1149   .text.app_iso_test_end:0000000000000000 .LVL86
C:\Users\stapi\AppData\Local\Temp\ccAP0xnd.s:1134   .text.app_iso_rx_test:0000000000000000 .LVL84
C:\Users\stapi\AppData\Local\Temp\ccAP0xnd.s:1119   .text.app_iso_tx_test:0000000000000000 .LVL82
C:\Users\stapi\AppData\Local\Temp\ccAP0xnd.s:1104   .text.app_cig_stop:0000000000000000 .LVL80
C:\Users\stapi\AppData\Local\Temp\ccAP0xnd.s:1089   .text.app_cis_disconn:0000000000000000 .LVL78
C:\Users\stapi\AppData\Local\Temp\ccAP0xnd.s:1069   .text.app_cis_prepare:0000000000000000 .LVL75
C:\Users\stapi\AppData\Local\Temp\ccAP0xnd.s:1075   .text.app_cis_prepare:0000000000000006 .LVL76
C:\Users\stapi\AppData\Local\Temp\ccAP0xnd.s:963    .text.app_cig_create:0000000000000000 .LVL72
C:\Users\stapi\AppData\Local\Temp\ccAP0xnd.s:1045   .text.app_cig_create:0000000000000078 .LVL73
C:\Users\stapi\AppData\Local\Temp\ccAP0xnd.s:948    .text.app_big_sync_stop:0000000000000000 .LVL70
C:\Users\stapi\AppData\Local\Temp\ccAP0xnd.s:922    .text.app_big_sync_create:0000000000000000 .LVL66
C:\Users\stapi\AppData\Local\Temp\ccAP0xnd.s:934    .text.app_big_sync_create:0000000000000014 .LVL68
C:\Users\stapi\AppData\Local\Temp\ccAP0xnd.s:930    .text.app_big_sync_create:000000000000000c .LVL67
C:\Users\stapi\AppData\Local\Temp\ccAP0xnd.s:907    .text.app_big_stop:0000000000000000 .LVL64
C:\Users\stapi\AppData\Local\Temp\ccAP0xnd.s:738    .text.app_big_create:0000000000000000 .LVL55
C:\Users\stapi\AppData\Local\Temp\ccAP0xnd.s:820    .text.app_big_create:0000000000000076 .LVL57
C:\Users\stapi\AppData\Local\Temp\ccAP0xnd.s:811    .text.app_big_create:0000000000000064 .LVL56
C:\Users\stapi\AppData\Local\Temp\ccAP0xnd.s:837    .text.app_big_create:0000000000000094 .LVL59
C:\Users\stapi\AppData\Local\Temp\ccAP0xnd.s:855    .text.app_big_create:00000000000000b2 .LVL61
C:\Users\stapi\AppData\Local\Temp\ccAP0xnd.s:319    .text.app_iso_callback:0000000000000000 .LVL22
C:\Users\stapi\AppData\Local\Temp\ccAP0xnd.s:335    .text.app_iso_callback:000000000000001a .LVL23
C:\Users\stapi\AppData\Local\Temp\ccAP0xnd.s:710    .text.app_iso_callback:0000000000000298 .LVL54
C:\Users\stapi\AppData\Local\Temp\ccAP0xnd.s:388    .text.app_iso_callback:0000000000000070 .LVL25
C:\Users\stapi\AppData\Local\Temp\ccAP0xnd.s:359    .text.app_iso_callback:0000000000000022 .LVL24
C:\Users\stapi\AppData\Local\Temp\ccAP0xnd.s:409    .text.app_iso_callback:0000000000000082 .LVL27
C:\Users\stapi\AppData\Local\Temp\ccAP0xnd.s:422    .text.app_iso_callback:000000000000009c .LVL28
C:\Users\stapi\AppData\Local\Temp\ccAP0xnd.s:671    .text.app_iso_callback:0000000000000258 .LVL49
C:\Users\stapi\AppData\Local\Temp\ccAP0xnd.s:685    .text.app_iso_callback:0000000000000274 .LVL50
C:\Users\stapi\AppData\Local\Temp\ccAP0xnd.s:436    .text.app_iso_callback:00000000000000a6 .LVL30
C:\Users\stapi\AppData\Local\Temp\ccAP0xnd.s:486    .text.app_iso_callback:000000000000010a .LVL33
C:\Users\stapi\AppData\Local\Temp\ccAP0xnd.s:498    .text.app_iso_callback:0000000000000122 .LVL35
C:\Users\stapi\AppData\Local\Temp\ccAP0xnd.s:520    .text.app_iso_callback:0000000000000146 .LVL39
C:\Users\stapi\AppData\Local\Temp\ccAP0xnd.s:477    .text.app_iso_callback:00000000000000fe .LVL32
C:\Users\stapi\AppData\Local\Temp\ccAP0xnd.s:516    .text.app_iso_callback:0000000000000140 .LVL37
C:\Users\stapi\AppData\Local\Temp\ccAP0xnd.s:518    .text.app_iso_callback:0000000000000144 .LVL38
C:\Users\stapi\AppData\Local\Temp\ccAP0xnd.s:659    .text.app_iso_callback:000000000000024c .LVL47
C:\Users\stapi\AppData\Local\Temp\ccAP0xnd.s:552    .text.app_iso_callback:0000000000000160 .LVL40
C:\Users\stapi\AppData\Local\Temp\ccAP0xnd.s:580    .text.app_iso_callback:00000000000001ac .LVL42
C:\Users\stapi\AppData\Local\Temp\ccAP0xnd.s:605    .text.app_iso_callback:00000000000001d6 .LVL44
C:\Users\stapi\AppData\Local\Temp\ccAP0xnd.s:607    .text.app_iso_callback:00000000000001da .LVL45
C:\Users\stapi\AppData\Local\Temp\ccAP0xnd.s:609    .text.app_iso_callback:00000000000001dc .LVL46
C:\Users\stapi\AppData\Local\Temp\ccAP0xnd.s:28     .text.app_big_sync_info_hdlr:0000000000000000 .LVL0
C:\Users\stapi\AppData\Local\Temp\ccAP0xnd.s:54     .text.app_big_sync_info_hdlr:000000000000002a .LVL2
C:\Users\stapi\AppData\Local\Temp\ccAP0xnd.s:38     .text.app_big_sync_info_hdlr:0000000000000008 .LVL1
C:\Users\stapi\AppData\Local\Temp\ccAP0xnd.s:64     .text.app_big_sync_info_hdlr:000000000000003e .LVL4
C:\Users\stapi\AppData\Local\Temp\ccAP0xnd.s:112    .text.app_big_sync_info_hdlr:0000000000000084 .LVL7
C:\Users\stapi\AppData\Local\Temp\ccAP0xnd.s:114    .text.app_big_sync_info_hdlr:0000000000000088 .LVL8
C:\Users\stapi\AppData\Local\Temp\ccAP0xnd.s:131    .text.app_cis_conn_info_hdlr:0000000000000000 .LVL9
C:\Users\stapi\AppData\Local\Temp\ccAP0xnd.s:179    .text.app_cis_conn_info_hdlr:0000000000000066 .LVL11
C:\Users\stapi\AppData\Local\Temp\ccAP0xnd.s:194    .text.app_cis_conn_info_hdlr:000000000000007e .LVL13
C:\Users\stapi\AppData\Local\Temp\ccAP0xnd.s:142    .text.app_cis_conn_info_hdlr:0000000000000016 .LVL10
C:\Users\stapi\AppData\Local\Temp\ccAP0xnd.s:213    .text.app_cis_disconn_info_hdlr:0000000000000000 .LVL14
C:\Users\stapi\AppData\Local\Temp\ccAP0xnd.s:227    .text.app_cis_disconn_info_hdlr:000000000000001a .LVL16
C:\Users\stapi\AppData\Local\Temp\ccAP0xnd.s:251    .text.app_iso_test_cnt_hdlr:0000000000000000 .LVL18
C:\Users\stapi\AppData\Local\Temp\ccAP0xnd.s:267    .text.app_iso_test_cnt_hdlr:000000000000001c .LVL20
C:\Users\stapi\AppData\Local\Temp\ccAP0xnd.s:258    .text.app_iso_test_cnt_hdlr:000000000000000e .LVL19
C:\Users\stapi\AppData\Local\Temp\ccAP0xnd.s:1231   .debug_info:0000000000000000 .Ldebug_info0
C:\Users\stapi\AppData\Local\Temp\ccAP0xnd.s:148    .text.app_cis_conn_info_hdlr:000000000000001a .LBE4
C:\Users\stapi\AppData\Local\Temp\ccAP0xnd.s:152    .text.app_cis_conn_info_hdlr:000000000000001c .LBB7
C:\Users\stapi\AppData\Local\Temp\ccAP0xnd.s:186    .text.app_cis_conn_info_hdlr:0000000000000074 .LBE7
C:\Users\stapi\AppData\Local\Temp\ccAP0xnd.s:434    .text.app_iso_callback:00000000000000a6 .LBE31
C:\Users\stapi\AppData\Local\Temp\ccAP0xnd.s:672    .text.app_iso_callback:0000000000000258 .LBB41
C:\Users\stapi\AppData\Local\Temp\ccAP0xnd.s:688    .text.app_iso_callback:0000000000000274 .LBE41
C:\Users\stapi\AppData\Local\Temp\ccAP0xnd.s:469    .text.app_iso_callback:00000000000000f6 .LBE34
C:\Users\stapi\AppData\Local\Temp\ccAP0xnd.s:472    .text.app_iso_callback:00000000000000f8 .LBB37
C:\Users\stapi\AppData\Local\Temp\ccAP0xnd.s:523    .text.app_iso_callback:0000000000000146 .LBE37
C:\Users\stapi\AppData\Local\Temp\ccAP0xnd.s:809    .text.app_big_create:0000000000000064 .LBB42
C:\Users\stapi\AppData\Local\Temp\ccAP0xnd.s:827    .text.app_big_create:0000000000000086 .LBE42
C:\Users\stapi\AppData\Local\Temp\ccAP0xnd.s:830    .text.app_big_create:0000000000000088 .LBB43
C:\Users\stapi\AppData\Local\Temp\ccAP0xnd.s:869    .text.app_big_create:00000000000000d0 .LBE43

UNDEFINED SYMBOLS
__riscv_save_5
global_debug_level
co_printf
__riscv_restore_5
__riscv_save_0
__riscv_restore_0
__riscv_save_8
ble_iso_big_create
__riscv_restore_8
ble_iso_big_terminate
ble_iso_big_sync_create
ble_iso_big_sync_terminate
ble_iso_cig_create
ble_iso_cis_prepare
ble_iso_cis_disconn
ble_iso_cig_terminate
ble_iso_test_tx
ble_iso_test_rx
ble_iso_test_end
ble_iso_test_cnt_read
ble_iso_init
ble_iso_callback_register
ble_iso_callback_unregister
