   1              		.file	"app_blue_courier_link.c"
   2              		.option nopic
   3              		.attribute arch, "rv32i2p0_m2p0_a2p0_f2p0_c2p0_b_p0p94"
   4              		.attribute unaligned_access, 0
   5              		.attribute stack_align, 16
   6              		.text
   7              	.Ltext0:
   8              		.cfi_sections	.debug_frame
   9              		.section	.text.bcwl_conn_evt_handler,"ax",@progbits
  10              		.align	1
  11              		.globl	bcwl_conn_evt_handler
  13              	bcwl_conn_evt_handler:
  14              	.LFB22:
  15              		.file 1 "C:/Users/stapi/OneDrive/Desktop/GD32VW553/GD32VW55X_Wifi_BLE_SDK/GD32VW55x_RELEASE_V1.0.2
   1:C:/Users/stapi/OneDrive/Desktop/GD32VW553/GD32VW55X_Wifi_BLE_SDK/GD32VW55x_RELEASE_V1.0.2/MSDK/ble/app\app_blue_courier_link.c **** /*!
   2:C:/Users/stapi/OneDrive/Desktop/GD32VW553/GD32VW55X_Wifi_BLE_SDK/GD32VW55x_RELEASE_V1.0.2/MSDK/ble/app\app_blue_courier_link.c ****     \file    app_blue_courier_link.c
   3:C:/Users/stapi/OneDrive/Desktop/GD32VW553/GD32VW55X_Wifi_BLE_SDK/GD32VW55x_RELEASE_V1.0.2/MSDK/ble/app\app_blue_courier_link.c ****     \brief   Implemetions of blue courier link
   4:C:/Users/stapi/OneDrive/Desktop/GD32VW553/GD32VW55X_Wifi_BLE_SDK/GD32VW55x_RELEASE_V1.0.2/MSDK/ble/app\app_blue_courier_link.c **** 
   5:C:/Users/stapi/OneDrive/Desktop/GD32VW553/GD32VW55X_Wifi_BLE_SDK/GD32VW55x_RELEASE_V1.0.2/MSDK/ble/app\app_blue_courier_link.c ****     \version 2023-07-20, V1.0.0, firmware for GD32VW55x
   6:C:/Users/stapi/OneDrive/Desktop/GD32VW553/GD32VW55X_Wifi_BLE_SDK/GD32VW55x_RELEASE_V1.0.2/MSDK/ble/app\app_blue_courier_link.c **** */
   7:C:/Users/stapi/OneDrive/Desktop/GD32VW553/GD32VW55X_Wifi_BLE_SDK/GD32VW55x_RELEASE_V1.0.2/MSDK/ble/app\app_blue_courier_link.c **** 
   8:C:/Users/stapi/OneDrive/Desktop/GD32VW553/GD32VW55X_Wifi_BLE_SDK/GD32VW55x_RELEASE_V1.0.2/MSDK/ble/app\app_blue_courier_link.c **** /*
   9:C:/Users/stapi/OneDrive/Desktop/GD32VW553/GD32VW55X_Wifi_BLE_SDK/GD32VW55x_RELEASE_V1.0.2/MSDK/ble/app\app_blue_courier_link.c ****     Copyright (c) 2023, GigaDevice Semiconductor Inc.
  10:C:/Users/stapi/OneDrive/Desktop/GD32VW553/GD32VW55X_Wifi_BLE_SDK/GD32VW55x_RELEASE_V1.0.2/MSDK/ble/app\app_blue_courier_link.c **** 
  11:C:/Users/stapi/OneDrive/Desktop/GD32VW553/GD32VW55X_Wifi_BLE_SDK/GD32VW55x_RELEASE_V1.0.2/MSDK/ble/app\app_blue_courier_link.c ****     Redistribution and use in source and binary forms, with or without modification,
  12:C:/Users/stapi/OneDrive/Desktop/GD32VW553/GD32VW55X_Wifi_BLE_SDK/GD32VW55x_RELEASE_V1.0.2/MSDK/ble/app\app_blue_courier_link.c **** are permitted provided that the following conditions are met:
  13:C:/Users/stapi/OneDrive/Desktop/GD32VW553/GD32VW55X_Wifi_BLE_SDK/GD32VW55x_RELEASE_V1.0.2/MSDK/ble/app\app_blue_courier_link.c **** 
  14:C:/Users/stapi/OneDrive/Desktop/GD32VW553/GD32VW55X_Wifi_BLE_SDK/GD32VW55x_RELEASE_V1.0.2/MSDK/ble/app\app_blue_courier_link.c ****     1. Redistributions of source code must retain the above copyright notice, this
  15:C:/Users/stapi/OneDrive/Desktop/GD32VW553/GD32VW55X_Wifi_BLE_SDK/GD32VW55x_RELEASE_V1.0.2/MSDK/ble/app\app_blue_courier_link.c ****        list of conditions and the following disclaimer.
  16:C:/Users/stapi/OneDrive/Desktop/GD32VW553/GD32VW55X_Wifi_BLE_SDK/GD32VW55x_RELEASE_V1.0.2/MSDK/ble/app\app_blue_courier_link.c ****     2. Redistributions in binary form must reproduce the above copyright notice,
  17:C:/Users/stapi/OneDrive/Desktop/GD32VW553/GD32VW55X_Wifi_BLE_SDK/GD32VW55x_RELEASE_V1.0.2/MSDK/ble/app\app_blue_courier_link.c ****        this list of conditions and the following disclaimer in the documentation
  18:C:/Users/stapi/OneDrive/Desktop/GD32VW553/GD32VW55X_Wifi_BLE_SDK/GD32VW55x_RELEASE_V1.0.2/MSDK/ble/app\app_blue_courier_link.c ****        and/or other materials provided with the distribution.
  19:C:/Users/stapi/OneDrive/Desktop/GD32VW553/GD32VW55X_Wifi_BLE_SDK/GD32VW55x_RELEASE_V1.0.2/MSDK/ble/app\app_blue_courier_link.c ****     3. Neither the name of the copyright holder nor the names of its contributors
  20:C:/Users/stapi/OneDrive/Desktop/GD32VW553/GD32VW55X_Wifi_BLE_SDK/GD32VW55x_RELEASE_V1.0.2/MSDK/ble/app\app_blue_courier_link.c ****        may be used to endorse or promote products derived from this software without
  21:C:/Users/stapi/OneDrive/Desktop/GD32VW553/GD32VW55X_Wifi_BLE_SDK/GD32VW55x_RELEASE_V1.0.2/MSDK/ble/app\app_blue_courier_link.c ****        specific prior written permission.
  22:C:/Users/stapi/OneDrive/Desktop/GD32VW553/GD32VW55X_Wifi_BLE_SDK/GD32VW55x_RELEASE_V1.0.2/MSDK/ble/app\app_blue_courier_link.c **** 
  23:C:/Users/stapi/OneDrive/Desktop/GD32VW553/GD32VW55X_Wifi_BLE_SDK/GD32VW55x_RELEASE_V1.0.2/MSDK/ble/app\app_blue_courier_link.c ****     THIS SOFTWARE IS PROVIDED BY THE COPYRIGHT HOLDERS AND CONTRIBUTORS "AS IS"
  24:C:/Users/stapi/OneDrive/Desktop/GD32VW553/GD32VW55X_Wifi_BLE_SDK/GD32VW55x_RELEASE_V1.0.2/MSDK/ble/app\app_blue_courier_link.c **** AND ANY EXPRESS OR IMPLIED WARRANTIES, INCLUDING, BUT NOT LIMITED TO, THE IMPLIED
  25:C:/Users/stapi/OneDrive/Desktop/GD32VW553/GD32VW55X_Wifi_BLE_SDK/GD32VW55x_RELEASE_V1.0.2/MSDK/ble/app\app_blue_courier_link.c **** WARRANTIES OF MERCHANTABILITY AND FITNESS FOR A PARTICULAR PURPOSE ARE DISCLAIMED.
  26:C:/Users/stapi/OneDrive/Desktop/GD32VW553/GD32VW55X_Wifi_BLE_SDK/GD32VW55x_RELEASE_V1.0.2/MSDK/ble/app\app_blue_courier_link.c **** IN NO EVENT SHALL THE COPYRIGHT HOLDER OR CONTRIBUTORS BE LIABLE FOR ANY DIRECT,
  27:C:/Users/stapi/OneDrive/Desktop/GD32VW553/GD32VW55X_Wifi_BLE_SDK/GD32VW55x_RELEASE_V1.0.2/MSDK/ble/app\app_blue_courier_link.c **** INDIRECT, INCIDENTAL, SPECIAL, EXEMPLARY, OR CONSEQUENTIAL DAMAGES (INCLUDING, BUT
  28:C:/Users/stapi/OneDrive/Desktop/GD32VW553/GD32VW55X_Wifi_BLE_SDK/GD32VW55x_RELEASE_V1.0.2/MSDK/ble/app\app_blue_courier_link.c **** NOT LIMITED TO, PROCUREMENT OF SUBSTITUTE GOODS OR SERVICES; LOSS OF USE, DATA, OR
  29:C:/Users/stapi/OneDrive/Desktop/GD32VW553/GD32VW55X_Wifi_BLE_SDK/GD32VW55x_RELEASE_V1.0.2/MSDK/ble/app\app_blue_courier_link.c **** PROFITS; OR BUSINESS INTERRUPTION) HOWEVER CAUSED AND ON ANY THEORY OF LIABILITY,
  30:C:/Users/stapi/OneDrive/Desktop/GD32VW553/GD32VW55X_Wifi_BLE_SDK/GD32VW55x_RELEASE_V1.0.2/MSDK/ble/app\app_blue_courier_link.c **** WHETHER IN CONTRACT, STRICT LIABILITY, OR TORT (INCLUDING NEGLIGENCE OR OTHERWISE)
  31:C:/Users/stapi/OneDrive/Desktop/GD32VW553/GD32VW55X_Wifi_BLE_SDK/GD32VW55x_RELEASE_V1.0.2/MSDK/ble/app\app_blue_courier_link.c **** ARISING IN ANY WAY OUT OF THE USE OF THIS SOFTWARE, EVEN IF ADVISED OF THE POSSIBILITY
  32:C:/Users/stapi/OneDrive/Desktop/GD32VW553/GD32VW55X_Wifi_BLE_SDK/GD32VW55x_RELEASE_V1.0.2/MSDK/ble/app\app_blue_courier_link.c **** OF SUCH DAMAGE.
  33:C:/Users/stapi/OneDrive/Desktop/GD32VW553/GD32VW55X_Wifi_BLE_SDK/GD32VW55x_RELEASE_V1.0.2/MSDK/ble/app\app_blue_courier_link.c **** */
  34:C:/Users/stapi/OneDrive/Desktop/GD32VW553/GD32VW55X_Wifi_BLE_SDK/GD32VW55x_RELEASE_V1.0.2/MSDK/ble/app\app_blue_courier_link.c **** 
  35:C:/Users/stapi/OneDrive/Desktop/GD32VW553/GD32VW55X_Wifi_BLE_SDK/GD32VW55x_RELEASE_V1.0.2/MSDK/ble/app\app_blue_courier_link.c **** #include "ble_app_config.h"
  36:C:/Users/stapi/OneDrive/Desktop/GD32VW553/GD32VW55X_Wifi_BLE_SDK/GD32VW55x_RELEASE_V1.0.2/MSDK/ble/app\app_blue_courier_link.c **** #include "ble_profile_config.h"
  37:C:/Users/stapi/OneDrive/Desktop/GD32VW553/GD32VW55X_Wifi_BLE_SDK/GD32VW55x_RELEASE_V1.0.2/MSDK/ble/app\app_blue_courier_link.c **** #include "app_blue_courier_link.h"
  38:C:/Users/stapi/OneDrive/Desktop/GD32VW553/GD32VW55X_Wifi_BLE_SDK/GD32VW55x_RELEASE_V1.0.2/MSDK/ble/app\app_blue_courier_link.c **** 
  39:C:/Users/stapi/OneDrive/Desktop/GD32VW553/GD32VW55X_Wifi_BLE_SDK/GD32VW55x_RELEASE_V1.0.2/MSDK/ble/app\app_blue_courier_link.c **** #if (BLE_PROFILE_BLUE_COURIER_SERVER)
  40:C:/Users/stapi/OneDrive/Desktop/GD32VW553/GD32VW55X_Wifi_BLE_SDK/GD32VW55x_RELEASE_V1.0.2/MSDK/ble/app\app_blue_courier_link.c **** #include "app_blue_courier.h"
  41:C:/Users/stapi/OneDrive/Desktop/GD32VW553/GD32VW55X_Wifi_BLE_SDK/GD32VW55x_RELEASE_V1.0.2/MSDK/ble/app\app_blue_courier_link.c **** #include "ble_gatts.h"
  42:C:/Users/stapi/OneDrive/Desktop/GD32VW553/GD32VW55X_Wifi_BLE_SDK/GD32VW55x_RELEASE_V1.0.2/MSDK/ble/app\app_blue_courier_link.c **** #include "ble_adapter.h"
  43:C:/Users/stapi/OneDrive/Desktop/GD32VW553/GD32VW55X_Wifi_BLE_SDK/GD32VW55x_RELEASE_V1.0.2/MSDK/ble/app\app_blue_courier_link.c **** #include "ble_adv.h"
  44:C:/Users/stapi/OneDrive/Desktop/GD32VW553/GD32VW55X_Wifi_BLE_SDK/GD32VW55x_RELEASE_V1.0.2/MSDK/ble/app\app_blue_courier_link.c **** #include "ble_conn.h"
  45:C:/Users/stapi/OneDrive/Desktop/GD32VW553/GD32VW55X_Wifi_BLE_SDK/GD32VW55x_RELEASE_V1.0.2/MSDK/ble/app\app_blue_courier_link.c **** #include "wrapper_os.h"
  46:C:/Users/stapi/OneDrive/Desktop/GD32VW553/GD32VW55X_Wifi_BLE_SDK/GD32VW55x_RELEASE_V1.0.2/MSDK/ble/app\app_blue_courier_link.c **** #include "dbg_print.h"
  47:C:/Users/stapi/OneDrive/Desktop/GD32VW553/GD32VW55X_Wifi_BLE_SDK/GD32VW55x_RELEASE_V1.0.2/MSDK/ble/app\app_blue_courier_link.c **** #include "co_math.h"
  48:C:/Users/stapi/OneDrive/Desktop/GD32VW553/GD32VW55X_Wifi_BLE_SDK/GD32VW55x_RELEASE_V1.0.2/MSDK/ble/app\app_blue_courier_link.c **** 
  49:C:/Users/stapi/OneDrive/Desktop/GD32VW553/GD32VW55X_Wifi_BLE_SDK/GD32VW55x_RELEASE_V1.0.2/MSDK/ble/app\app_blue_courier_link.c **** bcwl_env_t bcwl_env = {0};
  50:C:/Users/stapi/OneDrive/Desktop/GD32VW553/GD32VW55X_Wifi_BLE_SDK/GD32VW55x_RELEASE_V1.0.2/MSDK/ble/app\app_blue_courier_link.c **** /* Profile id. blue courier wifi profile identity */
  51:C:/Users/stapi/OneDrive/Desktop/GD32VW553/GD32VW55X_Wifi_BLE_SDK/GD32VW55x_RELEASE_V1.0.2/MSDK/ble/app\app_blue_courier_link.c **** uint8_t    prf_id;
  52:C:/Users/stapi/OneDrive/Desktop/GD32VW553/GD32VW55X_Wifi_BLE_SDK/GD32VW55x_RELEASE_V1.0.2/MSDK/ble/app\app_blue_courier_link.c **** 
  53:C:/Users/stapi/OneDrive/Desktop/GD32VW553/GD32VW55X_Wifi_BLE_SDK/GD32VW55x_RELEASE_V1.0.2/MSDK/ble/app\app_blue_courier_link.c **** static bool ble_enabled = false;
  54:C:/Users/stapi/OneDrive/Desktop/GD32VW553/GD32VW55X_Wifi_BLE_SDK/GD32VW55x_RELEASE_V1.0.2/MSDK/ble/app\app_blue_courier_link.c **** static bool bcwl_enable_pending = false;
  55:C:/Users/stapi/OneDrive/Desktop/GD32VW553/GD32VW55X_Wifi_BLE_SDK/GD32VW55x_RELEASE_V1.0.2/MSDK/ble/app\app_blue_courier_link.c **** 
  56:C:/Users/stapi/OneDrive/Desktop/GD32VW553/GD32VW55X_Wifi_BLE_SDK/GD32VW55x_RELEASE_V1.0.2/MSDK/ble/app\app_blue_courier_link.c **** /* Blue courier wifi profile attribute database */
  57:C:/Users/stapi/OneDrive/Desktop/GD32VW553/GD32VW55X_Wifi_BLE_SDK/GD32VW55x_RELEASE_V1.0.2/MSDK/ble/app\app_blue_courier_link.c **** const ble_gatt_attr_desc_t bcw_att_db[BCW_IDX_NUMBER] = {
  58:C:/Users/stapi/OneDrive/Desktop/GD32VW553/GD32VW55X_Wifi_BLE_SDK/GD32VW55x_RELEASE_V1.0.2/MSDK/ble/app\app_blue_courier_link.c ****     [BCW_IDX_PRIM_SVC]   = { UUID_16BIT_TO_ARRAY(BLE_GATT_DECL_PRIMARY_SERVICE), PROP(RD),         
  59:C:/Users/stapi/OneDrive/Desktop/GD32VW553/GD32VW55X_Wifi_BLE_SDK/GD32VW55x_RELEASE_V1.0.2/MSDK/ble/app\app_blue_courier_link.c ****     [BCW_IDX_CHAR_WRITE] = { UUID_16BIT_TO_ARRAY(BLE_GATT_DECL_CHARACTERISTIC),  PROP(RD),         
  60:C:/Users/stapi/OneDrive/Desktop/GD32VW553/GD32VW55X_Wifi_BLE_SDK/GD32VW55x_RELEASE_V1.0.2/MSDK/ble/app\app_blue_courier_link.c ****     [BCW_IDX_WRITE]      = { UUID_16BIT_TO_ARRAY(BCW_GATT_WRITE_UUID),           PROP(WR) | SEC_LVL
  61:C:/Users/stapi/OneDrive/Desktop/GD32VW553/GD32VW55X_Wifi_BLE_SDK/GD32VW55x_RELEASE_V1.0.2/MSDK/ble/app\app_blue_courier_link.c ****     [BCW_IDX_CHAR_NTF]   = { UUID_16BIT_TO_ARRAY(BLE_GATT_DECL_CHARACTERISTIC),  PROP(RD),         
  62:C:/Users/stapi/OneDrive/Desktop/GD32VW553/GD32VW55X_Wifi_BLE_SDK/GD32VW55x_RELEASE_V1.0.2/MSDK/ble/app\app_blue_courier_link.c ****     [BCW_IDX_NTF]        = { UUID_16BIT_TO_ARRAY(BCW_GATT_NTF_UUID),             PROP(NTF),        
  63:C:/Users/stapi/OneDrive/Desktop/GD32VW553/GD32VW55X_Wifi_BLE_SDK/GD32VW55x_RELEASE_V1.0.2/MSDK/ble/app\app_blue_courier_link.c ****     [BCW_IDX_NTF_CFG]    = { UUID_16BIT_TO_ARRAY(BLE_GATT_DESC_CLIENT_CHAR_CFG), PROP(RD) | PROP(WR
  64:C:/Users/stapi/OneDrive/Desktop/GD32VW553/GD32VW55X_Wifi_BLE_SDK/GD32VW55x_RELEASE_V1.0.2/MSDK/ble/app\app_blue_courier_link.c **** };
  65:C:/Users/stapi/OneDrive/Desktop/GD32VW553/GD32VW55X_Wifi_BLE_SDK/GD32VW55x_RELEASE_V1.0.2/MSDK/ble/app\app_blue_courier_link.c **** 
  66:C:/Users/stapi/OneDrive/Desktop/GD32VW553/GD32VW55X_Wifi_BLE_SDK/GD32VW55x_RELEASE_V1.0.2/MSDK/ble/app\app_blue_courier_link.c **** /*!
  67:C:/Users/stapi/OneDrive/Desktop/GD32VW553/GD32VW55X_Wifi_BLE_SDK/GD32VW55x_RELEASE_V1.0.2/MSDK/ble/app\app_blue_courier_link.c ****     \brief      Blue courier wifi link report error message to peer device
  68:C:/Users/stapi/OneDrive/Desktop/GD32VW553/GD32VW55X_Wifi_BLE_SDK/GD32VW55x_RELEASE_V1.0.2/MSDK/ble/app\app_blue_courier_link.c ****     \param[in]  reason: error code
  69:C:/Users/stapi/OneDrive/Desktop/GD32VW553/GD32VW55X_Wifi_BLE_SDK/GD32VW55x_RELEASE_V1.0.2/MSDK/ble/app\app_blue_courier_link.c ****     \param[out] none
  70:C:/Users/stapi/OneDrive/Desktop/GD32VW553/GD32VW55X_Wifi_BLE_SDK/GD32VW55x_RELEASE_V1.0.2/MSDK/ble/app\app_blue_courier_link.c ****     \retval     none
  71:C:/Users/stapi/OneDrive/Desktop/GD32VW553/GD32VW55X_Wifi_BLE_SDK/GD32VW55x_RELEASE_V1.0.2/MSDK/ble/app\app_blue_courier_link.c **** */
  72:C:/Users/stapi/OneDrive/Desktop/GD32VW553/GD32VW55X_Wifi_BLE_SDK/GD32VW55x_RELEASE_V1.0.2/MSDK/ble/app\app_blue_courier_link.c **** void bcwl_error_report(uint8_t reason)
  73:C:/Users/stapi/OneDrive/Desktop/GD32VW553/GD32VW55X_Wifi_BLE_SDK/GD32VW55x_RELEASE_V1.0.2/MSDK/ble/app\app_blue_courier_link.c **** {
  74:C:/Users/stapi/OneDrive/Desktop/GD32VW553/GD32VW55X_Wifi_BLE_SDK/GD32VW55x_RELEASE_V1.0.2/MSDK/ble/app\app_blue_courier_link.c ****     bcwl_send(BCWL_OPCODE_BUILD(BCWL_OPCODE_TYPE_MGMT, BCWL_OPCODE_MGMT_SUBTYPE_ERROR_REPORT), &rea
  75:C:/Users/stapi/OneDrive/Desktop/GD32VW553/GD32VW55X_Wifi_BLE_SDK/GD32VW55x_RELEASE_V1.0.2/MSDK/ble/app\app_blue_courier_link.c **** }
  76:C:/Users/stapi/OneDrive/Desktop/GD32VW553/GD32VW55X_Wifi_BLE_SDK/GD32VW55x_RELEASE_V1.0.2/MSDK/ble/app\app_blue_courier_link.c **** 
  77:C:/Users/stapi/OneDrive/Desktop/GD32VW553/GD32VW55X_Wifi_BLE_SDK/GD32VW55x_RELEASE_V1.0.2/MSDK/ble/app\app_blue_courier_link.c **** /*!
  78:C:/Users/stapi/OneDrive/Desktop/GD32VW553/GD32VW55X_Wifi_BLE_SDK/GD32VW55x_RELEASE_V1.0.2/MSDK/ble/app\app_blue_courier_link.c ****     \brief      Blue courier wifi link send ack message to peer device
  79:C:/Users/stapi/OneDrive/Desktop/GD32VW553/GD32VW55X_Wifi_BLE_SDK/GD32VW55x_RELEASE_V1.0.2/MSDK/ble/app\app_blue_courier_link.c ****     \param[in]  seq: sequence number
  80:C:/Users/stapi/OneDrive/Desktop/GD32VW553/GD32VW55X_Wifi_BLE_SDK/GD32VW55x_RELEASE_V1.0.2/MSDK/ble/app\app_blue_courier_link.c ****     \param[out] none
  81:C:/Users/stapi/OneDrive/Desktop/GD32VW553/GD32VW55X_Wifi_BLE_SDK/GD32VW55x_RELEASE_V1.0.2/MSDK/ble/app\app_blue_courier_link.c ****     \retval     none
  82:C:/Users/stapi/OneDrive/Desktop/GD32VW553/GD32VW55X_Wifi_BLE_SDK/GD32VW55x_RELEASE_V1.0.2/MSDK/ble/app\app_blue_courier_link.c **** */
  83:C:/Users/stapi/OneDrive/Desktop/GD32VW553/GD32VW55X_Wifi_BLE_SDK/GD32VW55x_RELEASE_V1.0.2/MSDK/ble/app\app_blue_courier_link.c **** void bcwl_send_ack(uint8_t seq)
  84:C:/Users/stapi/OneDrive/Desktop/GD32VW553/GD32VW55X_Wifi_BLE_SDK/GD32VW55x_RELEASE_V1.0.2/MSDK/ble/app\app_blue_courier_link.c **** {
  85:C:/Users/stapi/OneDrive/Desktop/GD32VW553/GD32VW55X_Wifi_BLE_SDK/GD32VW55x_RELEASE_V1.0.2/MSDK/ble/app\app_blue_courier_link.c ****     bcwl_send(BCWL_OPCODE_BUILD(BCWL_OPCODE_TYPE_MGMT, BCWL_OPCODE_MGMT_SUBTYPE_ACK), &seq, sizeof(
  86:C:/Users/stapi/OneDrive/Desktop/GD32VW553/GD32VW55X_Wifi_BLE_SDK/GD32VW55x_RELEASE_V1.0.2/MSDK/ble/app\app_blue_courier_link.c **** }
  87:C:/Users/stapi/OneDrive/Desktop/GD32VW553/GD32VW55X_Wifi_BLE_SDK/GD32VW55x_RELEASE_V1.0.2/MSDK/ble/app\app_blue_courier_link.c **** 
  88:C:/Users/stapi/OneDrive/Desktop/GD32VW553/GD32VW55X_Wifi_BLE_SDK/GD32VW55x_RELEASE_V1.0.2/MSDK/ble/app\app_blue_courier_link.c **** /*!
  89:C:/Users/stapi/OneDrive/Desktop/GD32VW553/GD32VW55X_Wifi_BLE_SDK/GD32VW55x_RELEASE_V1.0.2/MSDK/ble/app\app_blue_courier_link.c ****     \brief      Handle handshake message and send response message
  90:C:/Users/stapi/OneDrive/Desktop/GD32VW553/GD32VW55X_Wifi_BLE_SDK/GD32VW55x_RELEASE_V1.0.2/MSDK/ble/app\app_blue_courier_link.c ****     \param[in]  data: pointer to handshake information, @ref bcwl_mgmt_handshake_t
  91:C:/Users/stapi/OneDrive/Desktop/GD32VW553/GD32VW55X_Wifi_BLE_SDK/GD32VW55x_RELEASE_V1.0.2/MSDK/ble/app\app_blue_courier_link.c ****     \param[in]  len: data length
  92:C:/Users/stapi/OneDrive/Desktop/GD32VW553/GD32VW55X_Wifi_BLE_SDK/GD32VW55x_RELEASE_V1.0.2/MSDK/ble/app\app_blue_courier_link.c ****     \param[out] none
  93:C:/Users/stapi/OneDrive/Desktop/GD32VW553/GD32VW55X_Wifi_BLE_SDK/GD32VW55x_RELEASE_V1.0.2/MSDK/ble/app\app_blue_courier_link.c ****     \retval     none
  94:C:/Users/stapi/OneDrive/Desktop/GD32VW553/GD32VW55X_Wifi_BLE_SDK/GD32VW55x_RELEASE_V1.0.2/MSDK/ble/app\app_blue_courier_link.c **** */
  95:C:/Users/stapi/OneDrive/Desktop/GD32VW553/GD32VW55X_Wifi_BLE_SDK/GD32VW55x_RELEASE_V1.0.2/MSDK/ble/app\app_blue_courier_link.c **** void bcwl_handle_mgmt_handshake(uint8_t *data, uint16_t len)
  96:C:/Users/stapi/OneDrive/Desktop/GD32VW553/GD32VW55X_Wifi_BLE_SDK/GD32VW55x_RELEASE_V1.0.2/MSDK/ble/app\app_blue_courier_link.c **** {
  97:C:/Users/stapi/OneDrive/Desktop/GD32VW553/GD32VW55X_Wifi_BLE_SDK/GD32VW55x_RELEASE_V1.0.2/MSDK/ble/app\app_blue_courier_link.c ****     uint16_t mtu;
  98:C:/Users/stapi/OneDrive/Desktop/GD32VW553/GD32VW55X_Wifi_BLE_SDK/GD32VW55x_RELEASE_V1.0.2/MSDK/ble/app\app_blue_courier_link.c ****     bcwl_mgmt_handshake_t handshake_rsp;
  99:C:/Users/stapi/OneDrive/Desktop/GD32VW553/GD32VW55X_Wifi_BLE_SDK/GD32VW55x_RELEASE_V1.0.2/MSDK/ble/app\app_blue_courier_link.c ****     bcwl_mgmt_handshake_t *handshake = (bcwl_mgmt_handshake_t *)data;
 100:C:/Users/stapi/OneDrive/Desktop/GD32VW553/GD32VW55X_Wifi_BLE_SDK/GD32VW55x_RELEASE_V1.0.2/MSDK/ble/app\app_blue_courier_link.c **** 
 101:C:/Users/stapi/OneDrive/Desktop/GD32VW553/GD32VW55X_Wifi_BLE_SDK/GD32VW55x_RELEASE_V1.0.2/MSDK/ble/app\app_blue_courier_link.c ****     if (len != sizeof(bcwl_mgmt_handshake_t)) {
 102:C:/Users/stapi/OneDrive/Desktop/GD32VW553/GD32VW55X_Wifi_BLE_SDK/GD32VW55x_RELEASE_V1.0.2/MSDK/ble/app\app_blue_courier_link.c ****         dbg_print(ERR, "%s len err %d\n", __func__, len);
 103:C:/Users/stapi/OneDrive/Desktop/GD32VW553/GD32VW55X_Wifi_BLE_SDK/GD32VW55x_RELEASE_V1.0.2/MSDK/ble/app\app_blue_courier_link.c ****         bcwl_error_report(BCWL_ERR_PACKET_LEN_ERROR);
 104:C:/Users/stapi/OneDrive/Desktop/GD32VW553/GD32VW55X_Wifi_BLE_SDK/GD32VW55x_RELEASE_V1.0.2/MSDK/ble/app\app_blue_courier_link.c ****         return;
 105:C:/Users/stapi/OneDrive/Desktop/GD32VW553/GD32VW55X_Wifi_BLE_SDK/GD32VW55x_RELEASE_V1.0.2/MSDK/ble/app\app_blue_courier_link.c ****     }
 106:C:/Users/stapi/OneDrive/Desktop/GD32VW553/GD32VW55X_Wifi_BLE_SDK/GD32VW55x_RELEASE_V1.0.2/MSDK/ble/app\app_blue_courier_link.c **** 
 107:C:/Users/stapi/OneDrive/Desktop/GD32VW553/GD32VW55X_Wifi_BLE_SDK/GD32VW55x_RELEASE_V1.0.2/MSDK/ble/app\app_blue_courier_link.c ****     ble_gatts_mtu_get(bcwl_env.conn_id, &mtu);
 108:C:/Users/stapi/OneDrive/Desktop/GD32VW553/GD32VW55X_Wifi_BLE_SDK/GD32VW55x_RELEASE_V1.0.2/MSDK/ble/app\app_blue_courier_link.c ****     handshake_rsp.mtu = co_min(co_min(handshake->mtu, mtu), BCW_FRAG_MAX_LEN);
 109:C:/Users/stapi/OneDrive/Desktop/GD32VW553/GD32VW55X_Wifi_BLE_SDK/GD32VW55x_RELEASE_V1.0.2/MSDK/ble/app\app_blue_courier_link.c ****     handshake_rsp.recv_size = BCW_VALUE_LEN;
 110:C:/Users/stapi/OneDrive/Desktop/GD32VW553/GD32VW55X_Wifi_BLE_SDK/GD32VW55x_RELEASE_V1.0.2/MSDK/ble/app\app_blue_courier_link.c ****     bcwl_env.peer_recv_size = co_min(handshake->recv_size, BCW_VALUE_LEN);
 111:C:/Users/stapi/OneDrive/Desktop/GD32VW553/GD32VW55X_Wifi_BLE_SDK/GD32VW55x_RELEASE_V1.0.2/MSDK/ble/app\app_blue_courier_link.c ****     bcwl_env.frag_size = handshake_rsp.mtu - sizeof(bcwl_header_t) - BLE_GATT_HEADER_LEN - 2/*crc *
 112:C:/Users/stapi/OneDrive/Desktop/GD32VW553/GD32VW55X_Wifi_BLE_SDK/GD32VW55x_RELEASE_V1.0.2/MSDK/ble/app\app_blue_courier_link.c ****     bcwl_env.handshake_success = true;
 113:C:/Users/stapi/OneDrive/Desktop/GD32VW553/GD32VW55X_Wifi_BLE_SDK/GD32VW55x_RELEASE_V1.0.2/MSDK/ble/app\app_blue_courier_link.c **** 
 114:C:/Users/stapi/OneDrive/Desktop/GD32VW553/GD32VW55X_Wifi_BLE_SDK/GD32VW55x_RELEASE_V1.0.2/MSDK/ble/app\app_blue_courier_link.c ****     dbg_print(NOTICE, "%s handshake success\n", __func__);
 115:C:/Users/stapi/OneDrive/Desktop/GD32VW553/GD32VW55X_Wifi_BLE_SDK/GD32VW55x_RELEASE_V1.0.2/MSDK/ble/app\app_blue_courier_link.c **** 
 116:C:/Users/stapi/OneDrive/Desktop/GD32VW553/GD32VW55X_Wifi_BLE_SDK/GD32VW55x_RELEASE_V1.0.2/MSDK/ble/app\app_blue_courier_link.c ****     bcwl_send(BCWL_OPCODE_BUILD(BCWL_OPCODE_TYPE_MGMT, BCWL_OPCODE_MGMT_SUBTYPE_HANDSHAKE),
 117:C:/Users/stapi/OneDrive/Desktop/GD32VW553/GD32VW55X_Wifi_BLE_SDK/GD32VW55x_RELEASE_V1.0.2/MSDK/ble/app\app_blue_courier_link.c ****         (uint8_t *)&handshake_rsp, sizeof(bcwl_mgmt_handshake_t));
 118:C:/Users/stapi/OneDrive/Desktop/GD32VW553/GD32VW55X_Wifi_BLE_SDK/GD32VW55x_RELEASE_V1.0.2/MSDK/ble/app\app_blue_courier_link.c **** }
 119:C:/Users/stapi/OneDrive/Desktop/GD32VW553/GD32VW55X_Wifi_BLE_SDK/GD32VW55x_RELEASE_V1.0.2/MSDK/ble/app\app_blue_courier_link.c **** 
 120:C:/Users/stapi/OneDrive/Desktop/GD32VW553/GD32VW55X_Wifi_BLE_SDK/GD32VW55x_RELEASE_V1.0.2/MSDK/ble/app\app_blue_courier_link.c **** /*!
 121:C:/Users/stapi/OneDrive/Desktop/GD32VW553/GD32VW55X_Wifi_BLE_SDK/GD32VW55x_RELEASE_V1.0.2/MSDK/ble/app\app_blue_courier_link.c ****     \brief      Blue courier wifi link message handler
 122:C:/Users/stapi/OneDrive/Desktop/GD32VW553/GD32VW55X_Wifi_BLE_SDK/GD32VW55x_RELEASE_V1.0.2/MSDK/ble/app\app_blue_courier_link.c ****     \param[in]  opcode: opcode of type and subtype
 123:C:/Users/stapi/OneDrive/Desktop/GD32VW553/GD32VW55X_Wifi_BLE_SDK/GD32VW55x_RELEASE_V1.0.2/MSDK/ble/app\app_blue_courier_link.c ****     \param[in]  data: pointer to received data
 124:C:/Users/stapi/OneDrive/Desktop/GD32VW553/GD32VW55X_Wifi_BLE_SDK/GD32VW55x_RELEASE_V1.0.2/MSDK/ble/app\app_blue_courier_link.c ****     \param[in]  len: received data length
 125:C:/Users/stapi/OneDrive/Desktop/GD32VW553/GD32VW55X_Wifi_BLE_SDK/GD32VW55x_RELEASE_V1.0.2/MSDK/ble/app\app_blue_courier_link.c ****     \param[out] none
 126:C:/Users/stapi/OneDrive/Desktop/GD32VW553/GD32VW55X_Wifi_BLE_SDK/GD32VW55x_RELEASE_V1.0.2/MSDK/ble/app\app_blue_courier_link.c ****     \retval     none
 127:C:/Users/stapi/OneDrive/Desktop/GD32VW553/GD32VW55X_Wifi_BLE_SDK/GD32VW55x_RELEASE_V1.0.2/MSDK/ble/app\app_blue_courier_link.c **** */
 128:C:/Users/stapi/OneDrive/Desktop/GD32VW553/GD32VW55X_Wifi_BLE_SDK/GD32VW55x_RELEASE_V1.0.2/MSDK/ble/app\app_blue_courier_link.c **** void bcwl_msg_handler(uint8_t opcode, uint8_t *data, uint16_t len)
 129:C:/Users/stapi/OneDrive/Desktop/GD32VW553/GD32VW55X_Wifi_BLE_SDK/GD32VW55x_RELEASE_V1.0.2/MSDK/ble/app\app_blue_courier_link.c **** {
 130:C:/Users/stapi/OneDrive/Desktop/GD32VW553/GD32VW55X_Wifi_BLE_SDK/GD32VW55x_RELEASE_V1.0.2/MSDK/ble/app\app_blue_courier_link.c ****     switch (BCWL_OPCODE_GET_TYPE(opcode)) {
 131:C:/Users/stapi/OneDrive/Desktop/GD32VW553/GD32VW55X_Wifi_BLE_SDK/GD32VW55x_RELEASE_V1.0.2/MSDK/ble/app\app_blue_courier_link.c ****     case BCWL_OPCODE_TYPE_MGMT:
 132:C:/Users/stapi/OneDrive/Desktop/GD32VW553/GD32VW55X_Wifi_BLE_SDK/GD32VW55x_RELEASE_V1.0.2/MSDK/ble/app\app_blue_courier_link.c ****         switch (BCWL_OPCODE_GET_SUBTYPE(opcode)) {
 133:C:/Users/stapi/OneDrive/Desktop/GD32VW553/GD32VW55X_Wifi_BLE_SDK/GD32VW55x_RELEASE_V1.0.2/MSDK/ble/app\app_blue_courier_link.c ****         case BCWL_OPCODE_MGMT_SUBTYPE_HANDSHAKE:
 134:C:/Users/stapi/OneDrive/Desktop/GD32VW553/GD32VW55X_Wifi_BLE_SDK/GD32VW55x_RELEASE_V1.0.2/MSDK/ble/app\app_blue_courier_link.c ****             bcwl_handle_mgmt_handshake(data, len);
 135:C:/Users/stapi/OneDrive/Desktop/GD32VW553/GD32VW55X_Wifi_BLE_SDK/GD32VW55x_RELEASE_V1.0.2/MSDK/ble/app\app_blue_courier_link.c ****             break;
 136:C:/Users/stapi/OneDrive/Desktop/GD32VW553/GD32VW55X_Wifi_BLE_SDK/GD32VW55x_RELEASE_V1.0.2/MSDK/ble/app\app_blue_courier_link.c ****         case BCWL_OPCODE_MGMT_SUBTYPE_ACK:
 137:C:/Users/stapi/OneDrive/Desktop/GD32VW553/GD32VW55X_Wifi_BLE_SDK/GD32VW55x_RELEASE_V1.0.2/MSDK/ble/app\app_blue_courier_link.c ****         case BCWL_OPCODE_MGMT_SUBTYPE_ERROR_REPORT:
 138:C:/Users/stapi/OneDrive/Desktop/GD32VW553/GD32VW55X_Wifi_BLE_SDK/GD32VW55x_RELEASE_V1.0.2/MSDK/ble/app\app_blue_courier_link.c ****             /* TODO */
 139:C:/Users/stapi/OneDrive/Desktop/GD32VW553/GD32VW55X_Wifi_BLE_SDK/GD32VW55x_RELEASE_V1.0.2/MSDK/ble/app\app_blue_courier_link.c ****             break;
 140:C:/Users/stapi/OneDrive/Desktop/GD32VW553/GD32VW55X_Wifi_BLE_SDK/GD32VW55x_RELEASE_V1.0.2/MSDK/ble/app\app_blue_courier_link.c ****         default:
 141:C:/Users/stapi/OneDrive/Desktop/GD32VW553/GD32VW55X_Wifi_BLE_SDK/GD32VW55x_RELEASE_V1.0.2/MSDK/ble/app\app_blue_courier_link.c ****             dbg_print(ERR, "%s unknown opcode %x\n", __func__, opcode);
 142:C:/Users/stapi/OneDrive/Desktop/GD32VW553/GD32VW55X_Wifi_BLE_SDK/GD32VW55x_RELEASE_V1.0.2/MSDK/ble/app\app_blue_courier_link.c ****             bcwl_error_report(BCWL_ERR_UNKNOWN_OPCODE);
 143:C:/Users/stapi/OneDrive/Desktop/GD32VW553/GD32VW55X_Wifi_BLE_SDK/GD32VW55x_RELEASE_V1.0.2/MSDK/ble/app\app_blue_courier_link.c ****             break;
 144:C:/Users/stapi/OneDrive/Desktop/GD32VW553/GD32VW55X_Wifi_BLE_SDK/GD32VW55x_RELEASE_V1.0.2/MSDK/ble/app\app_blue_courier_link.c ****         }
 145:C:/Users/stapi/OneDrive/Desktop/GD32VW553/GD32VW55X_Wifi_BLE_SDK/GD32VW55x_RELEASE_V1.0.2/MSDK/ble/app\app_blue_courier_link.c ****         break;
 146:C:/Users/stapi/OneDrive/Desktop/GD32VW553/GD32VW55X_Wifi_BLE_SDK/GD32VW55x_RELEASE_V1.0.2/MSDK/ble/app\app_blue_courier_link.c ****     case BCWL_OPCODE_TYPE_DATA:
 147:C:/Users/stapi/OneDrive/Desktop/GD32VW553/GD32VW55X_Wifi_BLE_SDK/GD32VW55x_RELEASE_V1.0.2/MSDK/ble/app\app_blue_courier_link.c ****         bcwp_msg_handler(BCWL_OPCODE_GET_SUBTYPE(opcode), data, len);
 148:C:/Users/stapi/OneDrive/Desktop/GD32VW553/GD32VW55X_Wifi_BLE_SDK/GD32VW55x_RELEASE_V1.0.2/MSDK/ble/app\app_blue_courier_link.c ****         break;
 149:C:/Users/stapi/OneDrive/Desktop/GD32VW553/GD32VW55X_Wifi_BLE_SDK/GD32VW55x_RELEASE_V1.0.2/MSDK/ble/app\app_blue_courier_link.c ****     default:
 150:C:/Users/stapi/OneDrive/Desktop/GD32VW553/GD32VW55X_Wifi_BLE_SDK/GD32VW55x_RELEASE_V1.0.2/MSDK/ble/app\app_blue_courier_link.c ****         dbg_print(ERR, "%s unknown opcode %x\n", __func__, opcode);
 151:C:/Users/stapi/OneDrive/Desktop/GD32VW553/GD32VW55X_Wifi_BLE_SDK/GD32VW55x_RELEASE_V1.0.2/MSDK/ble/app\app_blue_courier_link.c ****         bcwl_error_report(BCWL_ERR_UNKNOWN_OPCODE);
 152:C:/Users/stapi/OneDrive/Desktop/GD32VW553/GD32VW55X_Wifi_BLE_SDK/GD32VW55x_RELEASE_V1.0.2/MSDK/ble/app\app_blue_courier_link.c ****     }
 153:C:/Users/stapi/OneDrive/Desktop/GD32VW553/GD32VW55X_Wifi_BLE_SDK/GD32VW55x_RELEASE_V1.0.2/MSDK/ble/app\app_blue_courier_link.c **** }
 154:C:/Users/stapi/OneDrive/Desktop/GD32VW553/GD32VW55X_Wifi_BLE_SDK/GD32VW55x_RELEASE_V1.0.2/MSDK/ble/app\app_blue_courier_link.c **** 
 155:C:/Users/stapi/OneDrive/Desktop/GD32VW553/GD32VW55X_Wifi_BLE_SDK/GD32VW55x_RELEASE_V1.0.2/MSDK/ble/app\app_blue_courier_link.c **** /*!
 156:C:/Users/stapi/OneDrive/Desktop/GD32VW553/GD32VW55X_Wifi_BLE_SDK/GD32VW55x_RELEASE_V1.0.2/MSDK/ble/app\app_blue_courier_link.c ****     \brief      Blue courier wifi link send notify through GATT
 157:C:/Users/stapi/OneDrive/Desktop/GD32VW553/GD32VW55X_Wifi_BLE_SDK/GD32VW55x_RELEASE_V1.0.2/MSDK/ble/app\app_blue_courier_link.c ****     \param[in]  p_val: pointer to notification value to send
 158:C:/Users/stapi/OneDrive/Desktop/GD32VW553/GD32VW55X_Wifi_BLE_SDK/GD32VW55x_RELEASE_V1.0.2/MSDK/ble/app\app_blue_courier_link.c ****     \param[in]  len: notification value length
 159:C:/Users/stapi/OneDrive/Desktop/GD32VW553/GD32VW55X_Wifi_BLE_SDK/GD32VW55x_RELEASE_V1.0.2/MSDK/ble/app\app_blue_courier_link.c ****     \param[out] none
 160:C:/Users/stapi/OneDrive/Desktop/GD32VW553/GD32VW55X_Wifi_BLE_SDK/GD32VW55x_RELEASE_V1.0.2/MSDK/ble/app\app_blue_courier_link.c ****     \retval     none
 161:C:/Users/stapi/OneDrive/Desktop/GD32VW553/GD32VW55X_Wifi_BLE_SDK/GD32VW55x_RELEASE_V1.0.2/MSDK/ble/app\app_blue_courier_link.c **** */
 162:C:/Users/stapi/OneDrive/Desktop/GD32VW553/GD32VW55X_Wifi_BLE_SDK/GD32VW55x_RELEASE_V1.0.2/MSDK/ble/app\app_blue_courier_link.c **** static void bcwl_ntf_event_send(uint8_t *p_val, uint16_t len)
 163:C:/Users/stapi/OneDrive/Desktop/GD32VW553/GD32VW55X_Wifi_BLE_SDK/GD32VW55x_RELEASE_V1.0.2/MSDK/ble/app\app_blue_courier_link.c **** {
 164:C:/Users/stapi/OneDrive/Desktop/GD32VW553/GD32VW55X_Wifi_BLE_SDK/GD32VW55x_RELEASE_V1.0.2/MSDK/ble/app\app_blue_courier_link.c ****     if (bcwl_env.ntf_cfg == 0) {
 165:C:/Users/stapi/OneDrive/Desktop/GD32VW553/GD32VW55X_Wifi_BLE_SDK/GD32VW55x_RELEASE_V1.0.2/MSDK/ble/app\app_blue_courier_link.c ****         dbg_print(ERR, "%s fail\r\n", __func__);
 166:C:/Users/stapi/OneDrive/Desktop/GD32VW553/GD32VW55X_Wifi_BLE_SDK/GD32VW55x_RELEASE_V1.0.2/MSDK/ble/app\app_blue_courier_link.c ****         return;
 167:C:/Users/stapi/OneDrive/Desktop/GD32VW553/GD32VW55X_Wifi_BLE_SDK/GD32VW55x_RELEASE_V1.0.2/MSDK/ble/app\app_blue_courier_link.c ****     }
 168:C:/Users/stapi/OneDrive/Desktop/GD32VW553/GD32VW55X_Wifi_BLE_SDK/GD32VW55x_RELEASE_V1.0.2/MSDK/ble/app\app_blue_courier_link.c **** 
 169:C:/Users/stapi/OneDrive/Desktop/GD32VW553/GD32VW55X_Wifi_BLE_SDK/GD32VW55x_RELEASE_V1.0.2/MSDK/ble/app\app_blue_courier_link.c ****     ble_gatts_ntf_ind_send(bcwl_env.conn_id, prf_id, BCW_IDX_NTF, p_val, len, BLE_GATT_NOTIFY);
 170:C:/Users/stapi/OneDrive/Desktop/GD32VW553/GD32VW55X_Wifi_BLE_SDK/GD32VW55x_RELEASE_V1.0.2/MSDK/ble/app\app_blue_courier_link.c **** }
 171:C:/Users/stapi/OneDrive/Desktop/GD32VW553/GD32VW55X_Wifi_BLE_SDK/GD32VW55x_RELEASE_V1.0.2/MSDK/ble/app\app_blue_courier_link.c **** 
 172:C:/Users/stapi/OneDrive/Desktop/GD32VW553/GD32VW55X_Wifi_BLE_SDK/GD32VW55x_RELEASE_V1.0.2/MSDK/ble/app\app_blue_courier_link.c **** /*!
 173:C:/Users/stapi/OneDrive/Desktop/GD32VW553/GD32VW55X_Wifi_BLE_SDK/GD32VW55x_RELEASE_V1.0.2/MSDK/ble/app\app_blue_courier_link.c ****     \brief      Blue courier wifi link send message to peer device
 174:C:/Users/stapi/OneDrive/Desktop/GD32VW553/GD32VW55X_Wifi_BLE_SDK/GD32VW55x_RELEASE_V1.0.2/MSDK/ble/app\app_blue_courier_link.c ****     \param[in]  opcode: opcode
 175:C:/Users/stapi/OneDrive/Desktop/GD32VW553/GD32VW55X_Wifi_BLE_SDK/GD32VW55x_RELEASE_V1.0.2/MSDK/ble/app\app_blue_courier_link.c ****     \param[in]  data: pointer to message data
 176:C:/Users/stapi/OneDrive/Desktop/GD32VW553/GD32VW55X_Wifi_BLE_SDK/GD32VW55x_RELEASE_V1.0.2/MSDK/ble/app\app_blue_courier_link.c ****     \param[in]  len: message length
 177:C:/Users/stapi/OneDrive/Desktop/GD32VW553/GD32VW55X_Wifi_BLE_SDK/GD32VW55x_RELEASE_V1.0.2/MSDK/ble/app\app_blue_courier_link.c ****     \param[out] none
 178:C:/Users/stapi/OneDrive/Desktop/GD32VW553/GD32VW55X_Wifi_BLE_SDK/GD32VW55x_RELEASE_V1.0.2/MSDK/ble/app\app_blue_courier_link.c ****     \retval     none
 179:C:/Users/stapi/OneDrive/Desktop/GD32VW553/GD32VW55X_Wifi_BLE_SDK/GD32VW55x_RELEASE_V1.0.2/MSDK/ble/app\app_blue_courier_link.c **** */
 180:C:/Users/stapi/OneDrive/Desktop/GD32VW553/GD32VW55X_Wifi_BLE_SDK/GD32VW55x_RELEASE_V1.0.2/MSDK/ble/app\app_blue_courier_link.c **** void bcwl_send(uint8_t opcode, uint8_t *data, uint16_t len)
 181:C:/Users/stapi/OneDrive/Desktop/GD32VW553/GD32VW55X_Wifi_BLE_SDK/GD32VW55x_RELEASE_V1.0.2/MSDK/ble/app\app_blue_courier_link.c **** {
 182:C:/Users/stapi/OneDrive/Desktop/GD32VW553/GD32VW55X_Wifi_BLE_SDK/GD32VW55x_RELEASE_V1.0.2/MSDK/ble/app\app_blue_courier_link.c ****     uint16_t crc;
 183:C:/Users/stapi/OneDrive/Desktop/GD32VW553/GD32VW55X_Wifi_BLE_SDK/GD32VW55x_RELEASE_V1.0.2/MSDK/ble/app\app_blue_courier_link.c ****     bcwl_header_t *hdr = NULL;
 184:C:/Users/stapi/OneDrive/Desktop/GD32VW553/GD32VW55X_Wifi_BLE_SDK/GD32VW55x_RELEASE_V1.0.2/MSDK/ble/app\app_blue_courier_link.c ****     uint16_t remain_len = len;
 185:C:/Users/stapi/OneDrive/Desktop/GD32VW553/GD32VW55X_Wifi_BLE_SDK/GD32VW55x_RELEASE_V1.0.2/MSDK/ble/app\app_blue_courier_link.c **** 
 186:C:/Users/stapi/OneDrive/Desktop/GD32VW553/GD32VW55X_Wifi_BLE_SDK/GD32VW55x_RELEASE_V1.0.2/MSDK/ble/app\app_blue_courier_link.c ****     if (len > bcwl_env.peer_recv_size) {
 187:C:/Users/stapi/OneDrive/Desktop/GD32VW553/GD32VW55X_Wifi_BLE_SDK/GD32VW55x_RELEASE_V1.0.2/MSDK/ble/app\app_blue_courier_link.c ****         dbg_print(ERR, "%s send len exceed the maximum, %d\n", __func__, len);
 188:C:/Users/stapi/OneDrive/Desktop/GD32VW553/GD32VW55X_Wifi_BLE_SDK/GD32VW55x_RELEASE_V1.0.2/MSDK/ble/app\app_blue_courier_link.c ****         return;
 189:C:/Users/stapi/OneDrive/Desktop/GD32VW553/GD32VW55X_Wifi_BLE_SDK/GD32VW55x_RELEASE_V1.0.2/MSDK/ble/app\app_blue_courier_link.c ****     }
 190:C:/Users/stapi/OneDrive/Desktop/GD32VW553/GD32VW55X_Wifi_BLE_SDK/GD32VW55x_RELEASE_V1.0.2/MSDK/ble/app\app_blue_courier_link.c **** 
 191:C:/Users/stapi/OneDrive/Desktop/GD32VW553/GD32VW55X_Wifi_BLE_SDK/GD32VW55x_RELEASE_V1.0.2/MSDK/ble/app\app_blue_courier_link.c ****     while (remain_len > 0) {
 192:C:/Users/stapi/OneDrive/Desktop/GD32VW553/GD32VW55X_Wifi_BLE_SDK/GD32VW55x_RELEASE_V1.0.2/MSDK/ble/app\app_blue_courier_link.c ****         if (remain_len > bcwl_env.frag_size) {
 193:C:/Users/stapi/OneDrive/Desktop/GD32VW553/GD32VW55X_Wifi_BLE_SDK/GD32VW55x_RELEASE_V1.0.2/MSDK/ble/app\app_blue_courier_link.c ****             hdr = sys_malloc(sizeof(bcwl_header_t) + bcwl_env.frag_size + 2);
 194:C:/Users/stapi/OneDrive/Desktop/GD32VW553/GD32VW55X_Wifi_BLE_SDK/GD32VW55x_RELEASE_V1.0.2/MSDK/ble/app\app_blue_courier_link.c ****             if (hdr == NULL) {
 195:C:/Users/stapi/OneDrive/Desktop/GD32VW553/GD32VW55X_Wifi_BLE_SDK/GD32VW55x_RELEASE_V1.0.2/MSDK/ble/app\app_blue_courier_link.c ****                 dbg_print(ERR, "%s no mem\n", __func__);
 196:C:/Users/stapi/OneDrive/Desktop/GD32VW553/GD32VW55X_Wifi_BLE_SDK/GD32VW55x_RELEASE_V1.0.2/MSDK/ble/app\app_blue_courier_link.c ****                 bcwl_error_report(BCWL_ERR_SEND_NO_MEM);
 197:C:/Users/stapi/OneDrive/Desktop/GD32VW553/GD32VW55X_Wifi_BLE_SDK/GD32VW55x_RELEASE_V1.0.2/MSDK/ble/app\app_blue_courier_link.c ****                 return;
 198:C:/Users/stapi/OneDrive/Desktop/GD32VW553/GD32VW55X_Wifi_BLE_SDK/GD32VW55x_RELEASE_V1.0.2/MSDK/ble/app\app_blue_courier_link.c ****             }
 199:C:/Users/stapi/OneDrive/Desktop/GD32VW553/GD32VW55X_Wifi_BLE_SDK/GD32VW55x_RELEASE_V1.0.2/MSDK/ble/app\app_blue_courier_link.c **** 
 200:C:/Users/stapi/OneDrive/Desktop/GD32VW553/GD32VW55X_Wifi_BLE_SDK/GD32VW55x_RELEASE_V1.0.2/MSDK/ble/app\app_blue_courier_link.c ****             hdr->flag = 0;
 201:C:/Users/stapi/OneDrive/Desktop/GD32VW553/GD32VW55X_Wifi_BLE_SDK/GD32VW55x_RELEASE_V1.0.2/MSDK/ble/app\app_blue_courier_link.c ****             hdr->data_len = bcwl_env.frag_size;
 202:C:/Users/stapi/OneDrive/Desktop/GD32VW553/GD32VW55X_Wifi_BLE_SDK/GD32VW55x_RELEASE_V1.0.2/MSDK/ble/app\app_blue_courier_link.c ****             if (remain_len == len) {
 203:C:/Users/stapi/OneDrive/Desktop/GD32VW553/GD32VW55X_Wifi_BLE_SDK/GD32VW55x_RELEASE_V1.0.2/MSDK/ble/app\app_blue_courier_link.c ****                 /* start segment */
 204:C:/Users/stapi/OneDrive/Desktop/GD32VW553/GD32VW55X_Wifi_BLE_SDK/GD32VW55x_RELEASE_V1.0.2/MSDK/ble/app\app_blue_courier_link.c ****                 hdr->flag |= BCWL_FLAG_BEGIN_MASK;
 205:C:/Users/stapi/OneDrive/Desktop/GD32VW553/GD32VW55X_Wifi_BLE_SDK/GD32VW55x_RELEASE_V1.0.2/MSDK/ble/app\app_blue_courier_link.c ****                 hdr->data[0] = remain_len & 0xff;
 206:C:/Users/stapi/OneDrive/Desktop/GD32VW553/GD32VW55X_Wifi_BLE_SDK/GD32VW55x_RELEASE_V1.0.2/MSDK/ble/app\app_blue_courier_link.c ****                 hdr->data[1] = (remain_len >> 8) & 0xff;
 207:C:/Users/stapi/OneDrive/Desktop/GD32VW553/GD32VW55X_Wifi_BLE_SDK/GD32VW55x_RELEASE_V1.0.2/MSDK/ble/app\app_blue_courier_link.c ****                 sys_memcpy(hdr->data + 2, &data[len - remain_len], hdr->data_len - 2); //copy first
 208:C:/Users/stapi/OneDrive/Desktop/GD32VW553/GD32VW55X_Wifi_BLE_SDK/GD32VW55x_RELEASE_V1.0.2/MSDK/ble/app\app_blue_courier_link.c ****                 remain_len -= (hdr->data_len - 2);
 209:C:/Users/stapi/OneDrive/Desktop/GD32VW553/GD32VW55X_Wifi_BLE_SDK/GD32VW55x_RELEASE_V1.0.2/MSDK/ble/app\app_blue_courier_link.c ****             } else {
 210:C:/Users/stapi/OneDrive/Desktop/GD32VW553/GD32VW55X_Wifi_BLE_SDK/GD32VW55x_RELEASE_V1.0.2/MSDK/ble/app\app_blue_courier_link.c ****                 /* continue segment */
 211:C:/Users/stapi/OneDrive/Desktop/GD32VW553/GD32VW55X_Wifi_BLE_SDK/GD32VW55x_RELEASE_V1.0.2/MSDK/ble/app\app_blue_courier_link.c ****                 sys_memcpy(hdr->data, &data[len - remain_len], hdr->data_len); //copy continue
 212:C:/Users/stapi/OneDrive/Desktop/GD32VW553/GD32VW55X_Wifi_BLE_SDK/GD32VW55x_RELEASE_V1.0.2/MSDK/ble/app\app_blue_courier_link.c ****                 remain_len -= hdr->data_len;
 213:C:/Users/stapi/OneDrive/Desktop/GD32VW553/GD32VW55X_Wifi_BLE_SDK/GD32VW55x_RELEASE_V1.0.2/MSDK/ble/app\app_blue_courier_link.c ****             }
 214:C:/Users/stapi/OneDrive/Desktop/GD32VW553/GD32VW55X_Wifi_BLE_SDK/GD32VW55x_RELEASE_V1.0.2/MSDK/ble/app\app_blue_courier_link.c ****         } else {
 215:C:/Users/stapi/OneDrive/Desktop/GD32VW553/GD32VW55X_Wifi_BLE_SDK/GD32VW55x_RELEASE_V1.0.2/MSDK/ble/app\app_blue_courier_link.c ****             /* end or complete segment */
 216:C:/Users/stapi/OneDrive/Desktop/GD32VW553/GD32VW55X_Wifi_BLE_SDK/GD32VW55x_RELEASE_V1.0.2/MSDK/ble/app\app_blue_courier_link.c ****             hdr = sys_malloc(sizeof(bcwl_header_t) + remain_len + 2);
 217:C:/Users/stapi/OneDrive/Desktop/GD32VW553/GD32VW55X_Wifi_BLE_SDK/GD32VW55x_RELEASE_V1.0.2/MSDK/ble/app\app_blue_courier_link.c ****             if (hdr == NULL) {
 218:C:/Users/stapi/OneDrive/Desktop/GD32VW553/GD32VW55X_Wifi_BLE_SDK/GD32VW55x_RELEASE_V1.0.2/MSDK/ble/app\app_blue_courier_link.c ****                 dbg_print(ERR, "%s no mem\n", __func__);
 219:C:/Users/stapi/OneDrive/Desktop/GD32VW553/GD32VW55X_Wifi_BLE_SDK/GD32VW55x_RELEASE_V1.0.2/MSDK/ble/app\app_blue_courier_link.c ****                 bcwl_error_report(BCWL_ERR_SEND_NO_MEM);
 220:C:/Users/stapi/OneDrive/Desktop/GD32VW553/GD32VW55X_Wifi_BLE_SDK/GD32VW55x_RELEASE_V1.0.2/MSDK/ble/app\app_blue_courier_link.c ****                 return;
 221:C:/Users/stapi/OneDrive/Desktop/GD32VW553/GD32VW55X_Wifi_BLE_SDK/GD32VW55x_RELEASE_V1.0.2/MSDK/ble/app\app_blue_courier_link.c ****             }
 222:C:/Users/stapi/OneDrive/Desktop/GD32VW553/GD32VW55X_Wifi_BLE_SDK/GD32VW55x_RELEASE_V1.0.2/MSDK/ble/app\app_blue_courier_link.c **** 
 223:C:/Users/stapi/OneDrive/Desktop/GD32VW553/GD32VW55X_Wifi_BLE_SDK/GD32VW55x_RELEASE_V1.0.2/MSDK/ble/app\app_blue_courier_link.c ****             hdr->flag = (len <= bcwl_env.frag_size ? BCWL_FLAG_BEGIN_MASK : 0) | BCWL_FLAG_END_MASK
 224:C:/Users/stapi/OneDrive/Desktop/GD32VW553/GD32VW55X_Wifi_BLE_SDK/GD32VW55x_RELEASE_V1.0.2/MSDK/ble/app\app_blue_courier_link.c ****             hdr->data_len = remain_len;
 225:C:/Users/stapi/OneDrive/Desktop/GD32VW553/GD32VW55X_Wifi_BLE_SDK/GD32VW55x_RELEASE_V1.0.2/MSDK/ble/app\app_blue_courier_link.c ****             sys_memcpy(hdr->data, &data[len - remain_len], hdr->data_len); //copy end
 226:C:/Users/stapi/OneDrive/Desktop/GD32VW553/GD32VW55X_Wifi_BLE_SDK/GD32VW55x_RELEASE_V1.0.2/MSDK/ble/app\app_blue_courier_link.c ****             remain_len -= hdr->data_len;
 227:C:/Users/stapi/OneDrive/Desktop/GD32VW553/GD32VW55X_Wifi_BLE_SDK/GD32VW55x_RELEASE_V1.0.2/MSDK/ble/app\app_blue_courier_link.c ****         }
 228:C:/Users/stapi/OneDrive/Desktop/GD32VW553/GD32VW55X_Wifi_BLE_SDK/GD32VW55x_RELEASE_V1.0.2/MSDK/ble/app\app_blue_courier_link.c **** 
 229:C:/Users/stapi/OneDrive/Desktop/GD32VW553/GD32VW55X_Wifi_BLE_SDK/GD32VW55x_RELEASE_V1.0.2/MSDK/ble/app\app_blue_courier_link.c ****         hdr->opcode = opcode;
 230:C:/Users/stapi/OneDrive/Desktop/GD32VW553/GD32VW55X_Wifi_BLE_SDK/GD32VW55x_RELEASE_V1.0.2/MSDK/ble/app\app_blue_courier_link.c ****         hdr->seq = bcwl_env.send_seq++;
 231:C:/Users/stapi/OneDrive/Desktop/GD32VW553/GD32VW55X_Wifi_BLE_SDK/GD32VW55x_RELEASE_V1.0.2/MSDK/ble/app\app_blue_courier_link.c **** 
 232:C:/Users/stapi/OneDrive/Desktop/GD32VW553/GD32VW55X_Wifi_BLE_SDK/GD32VW55x_RELEASE_V1.0.2/MSDK/ble/app\app_blue_courier_link.c ****         crc = co_crc16(&hdr->seq, hdr->data_len + sizeof(bcwl_header_t) - 1, 0);
 233:C:/Users/stapi/OneDrive/Desktop/GD32VW553/GD32VW55X_Wifi_BLE_SDK/GD32VW55x_RELEASE_V1.0.2/MSDK/ble/app\app_blue_courier_link.c ****         hdr->data[hdr->data_len] = crc & 0xff;
 234:C:/Users/stapi/OneDrive/Desktop/GD32VW553/GD32VW55X_Wifi_BLE_SDK/GD32VW55x_RELEASE_V1.0.2/MSDK/ble/app\app_blue_courier_link.c ****         hdr->data[hdr->data_len + 1] = (crc >> 8) & 0xff;
 235:C:/Users/stapi/OneDrive/Desktop/GD32VW553/GD32VW55X_Wifi_BLE_SDK/GD32VW55x_RELEASE_V1.0.2/MSDK/ble/app\app_blue_courier_link.c **** 
 236:C:/Users/stapi/OneDrive/Desktop/GD32VW553/GD32VW55X_Wifi_BLE_SDK/GD32VW55x_RELEASE_V1.0.2/MSDK/ble/app\app_blue_courier_link.c ****         bcwl_ntf_event_send((uint8_t *)hdr, hdr->data_len + sizeof(bcwl_header_t) + 2);
 237:C:/Users/stapi/OneDrive/Desktop/GD32VW553/GD32VW55X_Wifi_BLE_SDK/GD32VW55x_RELEASE_V1.0.2/MSDK/ble/app\app_blue_courier_link.c **** 
 238:C:/Users/stapi/OneDrive/Desktop/GD32VW553/GD32VW55X_Wifi_BLE_SDK/GD32VW55x_RELEASE_V1.0.2/MSDK/ble/app\app_blue_courier_link.c ****         sys_mfree(hdr);
 239:C:/Users/stapi/OneDrive/Desktop/GD32VW553/GD32VW55X_Wifi_BLE_SDK/GD32VW55x_RELEASE_V1.0.2/MSDK/ble/app\app_blue_courier_link.c ****         hdr =  NULL;
 240:C:/Users/stapi/OneDrive/Desktop/GD32VW553/GD32VW55X_Wifi_BLE_SDK/GD32VW55x_RELEASE_V1.0.2/MSDK/ble/app\app_blue_courier_link.c ****     }
 241:C:/Users/stapi/OneDrive/Desktop/GD32VW553/GD32VW55X_Wifi_BLE_SDK/GD32VW55x_RELEASE_V1.0.2/MSDK/ble/app\app_blue_courier_link.c **** 
 242:C:/Users/stapi/OneDrive/Desktop/GD32VW553/GD32VW55X_Wifi_BLE_SDK/GD32VW55x_RELEASE_V1.0.2/MSDK/ble/app\app_blue_courier_link.c **** }
 243:C:/Users/stapi/OneDrive/Desktop/GD32VW553/GD32VW55X_Wifi_BLE_SDK/GD32VW55x_RELEASE_V1.0.2/MSDK/ble/app\app_blue_courier_link.c **** 
 244:C:/Users/stapi/OneDrive/Desktop/GD32VW553/GD32VW55X_Wifi_BLE_SDK/GD32VW55x_RELEASE_V1.0.2/MSDK/ble/app\app_blue_courier_link.c **** /*!
 245:C:/Users/stapi/OneDrive/Desktop/GD32VW553/GD32VW55X_Wifi_BLE_SDK/GD32VW55x_RELEASE_V1.0.2/MSDK/ble/app\app_blue_courier_link.c ****     \brief      Blue courier wifi link receive message from peer device
 246:C:/Users/stapi/OneDrive/Desktop/GD32VW553/GD32VW55X_Wifi_BLE_SDK/GD32VW55x_RELEASE_V1.0.2/MSDK/ble/app\app_blue_courier_link.c ****     \param[in]  data: pointer to message data
 247:C:/Users/stapi/OneDrive/Desktop/GD32VW553/GD32VW55X_Wifi_BLE_SDK/GD32VW55x_RELEASE_V1.0.2/MSDK/ble/app\app_blue_courier_link.c ****     \param[in]  len: message length
 248:C:/Users/stapi/OneDrive/Desktop/GD32VW553/GD32VW55X_Wifi_BLE_SDK/GD32VW55x_RELEASE_V1.0.2/MSDK/ble/app\app_blue_courier_link.c ****     \param[out] none
 249:C:/Users/stapi/OneDrive/Desktop/GD32VW553/GD32VW55X_Wifi_BLE_SDK/GD32VW55x_RELEASE_V1.0.2/MSDK/ble/app\app_blue_courier_link.c ****     \retval     none
 250:C:/Users/stapi/OneDrive/Desktop/GD32VW553/GD32VW55X_Wifi_BLE_SDK/GD32VW55x_RELEASE_V1.0.2/MSDK/ble/app\app_blue_courier_link.c **** */
 251:C:/Users/stapi/OneDrive/Desktop/GD32VW553/GD32VW55X_Wifi_BLE_SDK/GD32VW55x_RELEASE_V1.0.2/MSDK/ble/app\app_blue_courier_link.c **** void bcwl_receive(uint8_t *data, uint16_t len)
 252:C:/Users/stapi/OneDrive/Desktop/GD32VW553/GD32VW55X_Wifi_BLE_SDK/GD32VW55x_RELEASE_V1.0.2/MSDK/ble/app\app_blue_courier_link.c **** {
 253:C:/Users/stapi/OneDrive/Desktop/GD32VW553/GD32VW55X_Wifi_BLE_SDK/GD32VW55x_RELEASE_V1.0.2/MSDK/ble/app\app_blue_courier_link.c ****     uint8_t status = BCWL_ERR_RECV_ERROR;
 254:C:/Users/stapi/OneDrive/Desktop/GD32VW553/GD32VW55X_Wifi_BLE_SDK/GD32VW55x_RELEASE_V1.0.2/MSDK/ble/app\app_blue_courier_link.c ****     uint16_t crc, crc_pkt;
 255:C:/Users/stapi/OneDrive/Desktop/GD32VW553/GD32VW55X_Wifi_BLE_SDK/GD32VW55x_RELEASE_V1.0.2/MSDK/ble/app\app_blue_courier_link.c ****     bcwl_header_t *hdr = (bcwl_header_t *)data;
 256:C:/Users/stapi/OneDrive/Desktop/GD32VW553/GD32VW55X_Wifi_BLE_SDK/GD32VW55x_RELEASE_V1.0.2/MSDK/ble/app\app_blue_courier_link.c **** 
 257:C:/Users/stapi/OneDrive/Desktop/GD32VW553/GD32VW55X_Wifi_BLE_SDK/GD32VW55x_RELEASE_V1.0.2/MSDK/ble/app\app_blue_courier_link.c ****     if (len < sizeof(bcwl_header_t)) {
 258:C:/Users/stapi/OneDrive/Desktop/GD32VW553/GD32VW55X_Wifi_BLE_SDK/GD32VW55x_RELEASE_V1.0.2/MSDK/ble/app\app_blue_courier_link.c ****         dbg_print(ERR, "%s size error %d\n", __func__, len);
 259:C:/Users/stapi/OneDrive/Desktop/GD32VW553/GD32VW55X_Wifi_BLE_SDK/GD32VW55x_RELEASE_V1.0.2/MSDK/ble/app\app_blue_courier_link.c ****         bcwl_error_report(BCWL_ERR_PACKET_LEN_ERROR);
 260:C:/Users/stapi/OneDrive/Desktop/GD32VW553/GD32VW55X_Wifi_BLE_SDK/GD32VW55x_RELEASE_V1.0.2/MSDK/ble/app\app_blue_courier_link.c ****         return;
 261:C:/Users/stapi/OneDrive/Desktop/GD32VW553/GD32VW55X_Wifi_BLE_SDK/GD32VW55x_RELEASE_V1.0.2/MSDK/ble/app\app_blue_courier_link.c ****     }
 262:C:/Users/stapi/OneDrive/Desktop/GD32VW553/GD32VW55X_Wifi_BLE_SDK/GD32VW55x_RELEASE_V1.0.2/MSDK/ble/app\app_blue_courier_link.c **** 
 263:C:/Users/stapi/OneDrive/Desktop/GD32VW553/GD32VW55X_Wifi_BLE_SDK/GD32VW55x_RELEASE_V1.0.2/MSDK/ble/app\app_blue_courier_link.c ****     if (!bcwl_env.handshake_success &&
 264:C:/Users/stapi/OneDrive/Desktop/GD32VW553/GD32VW55X_Wifi_BLE_SDK/GD32VW55x_RELEASE_V1.0.2/MSDK/ble/app\app_blue_courier_link.c ****         hdr->opcode != BCWL_OPCODE_BUILD(BCWL_OPCODE_TYPE_MGMT, BCWL_OPCODE_MGMT_SUBTYPE_HANDSHAKE)
 265:C:/Users/stapi/OneDrive/Desktop/GD32VW553/GD32VW55X_Wifi_BLE_SDK/GD32VW55x_RELEASE_V1.0.2/MSDK/ble/app\app_blue_courier_link.c ****         dbg_print(ERR, "%s not handshake %d\n", __func__, hdr->opcode);
 266:C:/Users/stapi/OneDrive/Desktop/GD32VW553/GD32VW55X_Wifi_BLE_SDK/GD32VW55x_RELEASE_V1.0.2/MSDK/ble/app\app_blue_courier_link.c ****         bcwl_error_report(BCWL_ERR_NO_HANDSHAKE);
 267:C:/Users/stapi/OneDrive/Desktop/GD32VW553/GD32VW55X_Wifi_BLE_SDK/GD32VW55x_RELEASE_V1.0.2/MSDK/ble/app\app_blue_courier_link.c ****         return;
 268:C:/Users/stapi/OneDrive/Desktop/GD32VW553/GD32VW55X_Wifi_BLE_SDK/GD32VW55x_RELEASE_V1.0.2/MSDK/ble/app\app_blue_courier_link.c ****     }
 269:C:/Users/stapi/OneDrive/Desktop/GD32VW553/GD32VW55X_Wifi_BLE_SDK/GD32VW55x_RELEASE_V1.0.2/MSDK/ble/app\app_blue_courier_link.c **** 
 270:C:/Users/stapi/OneDrive/Desktop/GD32VW553/GD32VW55X_Wifi_BLE_SDK/GD32VW55x_RELEASE_V1.0.2/MSDK/ble/app\app_blue_courier_link.c ****     if (BCWL_FLAG_IS_REQ_ACK(hdr->flag))
 271:C:/Users/stapi/OneDrive/Desktop/GD32VW553/GD32VW55X_Wifi_BLE_SDK/GD32VW55x_RELEASE_V1.0.2/MSDK/ble/app\app_blue_courier_link.c ****         bcwl_send_ack(hdr->seq);
 272:C:/Users/stapi/OneDrive/Desktop/GD32VW553/GD32VW55X_Wifi_BLE_SDK/GD32VW55x_RELEASE_V1.0.2/MSDK/ble/app\app_blue_courier_link.c **** 
 273:C:/Users/stapi/OneDrive/Desktop/GD32VW553/GD32VW55X_Wifi_BLE_SDK/GD32VW55x_RELEASE_V1.0.2/MSDK/ble/app\app_blue_courier_link.c ****     if (hdr->seq != bcwl_env.recv_seq) {
 274:C:/Users/stapi/OneDrive/Desktop/GD32VW553/GD32VW55X_Wifi_BLE_SDK/GD32VW55x_RELEASE_V1.0.2/MSDK/ble/app\app_blue_courier_link.c ****         dbg_print(ERR, "%s seq %d is not expect %d\n", __func__, hdr->seq, bcwl_env.recv_seq);
 275:C:/Users/stapi/OneDrive/Desktop/GD32VW553/GD32VW55X_Wifi_BLE_SDK/GD32VW55x_RELEASE_V1.0.2/MSDK/ble/app\app_blue_courier_link.c ****         bcwl_error_report(BCWL_ERR_SEQUENCE_ERROR);
 276:C:/Users/stapi/OneDrive/Desktop/GD32VW553/GD32VW55X_Wifi_BLE_SDK/GD32VW55x_RELEASE_V1.0.2/MSDK/ble/app\app_blue_courier_link.c ****         return;
 277:C:/Users/stapi/OneDrive/Desktop/GD32VW553/GD32VW55X_Wifi_BLE_SDK/GD32VW55x_RELEASE_V1.0.2/MSDK/ble/app\app_blue_courier_link.c ****     }
 278:C:/Users/stapi/OneDrive/Desktop/GD32VW553/GD32VW55X_Wifi_BLE_SDK/GD32VW55x_RELEASE_V1.0.2/MSDK/ble/app\app_blue_courier_link.c **** 
 279:C:/Users/stapi/OneDrive/Desktop/GD32VW553/GD32VW55X_Wifi_BLE_SDK/GD32VW55x_RELEASE_V1.0.2/MSDK/ble/app\app_blue_courier_link.c ****     bcwl_env.recv_seq++;
 280:C:/Users/stapi/OneDrive/Desktop/GD32VW553/GD32VW55X_Wifi_BLE_SDK/GD32VW55x_RELEASE_V1.0.2/MSDK/ble/app\app_blue_courier_link.c **** 
 281:C:/Users/stapi/OneDrive/Desktop/GD32VW553/GD32VW55X_Wifi_BLE_SDK/GD32VW55x_RELEASE_V1.0.2/MSDK/ble/app\app_blue_courier_link.c ****     crc = co_crc16(&hdr->seq, hdr->data_len + sizeof(bcwl_header_t) - 1, 0);
 282:C:/Users/stapi/OneDrive/Desktop/GD32VW553/GD32VW55X_Wifi_BLE_SDK/GD32VW55x_RELEASE_V1.0.2/MSDK/ble/app\app_blue_courier_link.c ****     crc_pkt = hdr->data[hdr->data_len] | (((uint16_t) hdr->data[hdr->data_len + 1]) << 8);
 283:C:/Users/stapi/OneDrive/Desktop/GD32VW553/GD32VW55X_Wifi_BLE_SDK/GD32VW55x_RELEASE_V1.0.2/MSDK/ble/app\app_blue_courier_link.c ****     if (crc != crc_pkt) {
 284:C:/Users/stapi/OneDrive/Desktop/GD32VW553/GD32VW55X_Wifi_BLE_SDK/GD32VW55x_RELEASE_V1.0.2/MSDK/ble/app\app_blue_courier_link.c ****         status = BCWL_ERR_CRC_CHECK;
 285:C:/Users/stapi/OneDrive/Desktop/GD32VW553/GD32VW55X_Wifi_BLE_SDK/GD32VW55x_RELEASE_V1.0.2/MSDK/ble/app\app_blue_courier_link.c ****         goto err_recv;
 286:C:/Users/stapi/OneDrive/Desktop/GD32VW553/GD32VW55X_Wifi_BLE_SDK/GD32VW55x_RELEASE_V1.0.2/MSDK/ble/app\app_blue_courier_link.c ****     }
 287:C:/Users/stapi/OneDrive/Desktop/GD32VW553/GD32VW55X_Wifi_BLE_SDK/GD32VW55x_RELEASE_V1.0.2/MSDK/ble/app\app_blue_courier_link.c **** 
 288:C:/Users/stapi/OneDrive/Desktop/GD32VW553/GD32VW55X_Wifi_BLE_SDK/GD32VW55x_RELEASE_V1.0.2/MSDK/ble/app\app_blue_courier_link.c ****     if (BCWL_FLAG_IS_BEGIN(hdr->flag)) {
 289:C:/Users/stapi/OneDrive/Desktop/GD32VW553/GD32VW55X_Wifi_BLE_SDK/GD32VW55x_RELEASE_V1.0.2/MSDK/ble/app\app_blue_courier_link.c ****         if (BCWL_FLAG_IS_END(hdr->flag)) {
 290:C:/Users/stapi/OneDrive/Desktop/GD32VW553/GD32VW55X_Wifi_BLE_SDK/GD32VW55x_RELEASE_V1.0.2/MSDK/ble/app\app_blue_courier_link.c ****             /* receive complete segment */
 291:C:/Users/stapi/OneDrive/Desktop/GD32VW553/GD32VW55X_Wifi_BLE_SDK/GD32VW55x_RELEASE_V1.0.2/MSDK/ble/app\app_blue_courier_link.c ****             bcwl_msg_handler(hdr->opcode, hdr->data, hdr->data_len);
 292:C:/Users/stapi/OneDrive/Desktop/GD32VW553/GD32VW55X_Wifi_BLE_SDK/GD32VW55x_RELEASE_V1.0.2/MSDK/ble/app\app_blue_courier_link.c ****         } else {
 293:C:/Users/stapi/OneDrive/Desktop/GD32VW553/GD32VW55X_Wifi_BLE_SDK/GD32VW55x_RELEASE_V1.0.2/MSDK/ble/app\app_blue_courier_link.c ****             /* receive start segment */
 294:C:/Users/stapi/OneDrive/Desktop/GD32VW553/GD32VW55X_Wifi_BLE_SDK/GD32VW55x_RELEASE_V1.0.2/MSDK/ble/app\app_blue_courier_link.c ****             if (bcwl_env.offset != 0)
 295:C:/Users/stapi/OneDrive/Desktop/GD32VW553/GD32VW55X_Wifi_BLE_SDK/GD32VW55x_RELEASE_V1.0.2/MSDK/ble/app\app_blue_courier_link.c ****                 goto err_recv;
 296:C:/Users/stapi/OneDrive/Desktop/GD32VW553/GD32VW55X_Wifi_BLE_SDK/GD32VW55x_RELEASE_V1.0.2/MSDK/ble/app\app_blue_courier_link.c **** 
 297:C:/Users/stapi/OneDrive/Desktop/GD32VW553/GD32VW55X_Wifi_BLE_SDK/GD32VW55x_RELEASE_V1.0.2/MSDK/ble/app\app_blue_courier_link.c ****             bcwl_env.total_len = hdr->data[0] | (((uint16_t) hdr->data[1]) << 8);
 298:C:/Users/stapi/OneDrive/Desktop/GD32VW553/GD32VW55X_Wifi_BLE_SDK/GD32VW55x_RELEASE_V1.0.2/MSDK/ble/app\app_blue_courier_link.c ****             if (bcwl_env.total_len > BCW_VALUE_LEN)
 299:C:/Users/stapi/OneDrive/Desktop/GD32VW553/GD32VW55X_Wifi_BLE_SDK/GD32VW55x_RELEASE_V1.0.2/MSDK/ble/app\app_blue_courier_link.c ****                 goto err_recv;
 300:C:/Users/stapi/OneDrive/Desktop/GD32VW553/GD32VW55X_Wifi_BLE_SDK/GD32VW55x_RELEASE_V1.0.2/MSDK/ble/app\app_blue_courier_link.c **** 
 301:C:/Users/stapi/OneDrive/Desktop/GD32VW553/GD32VW55X_Wifi_BLE_SDK/GD32VW55x_RELEASE_V1.0.2/MSDK/ble/app\app_blue_courier_link.c ****             bcwl_env.recv_buf = sys_malloc(bcwl_env.total_len);
 302:C:/Users/stapi/OneDrive/Desktop/GD32VW553/GD32VW55X_Wifi_BLE_SDK/GD32VW55x_RELEASE_V1.0.2/MSDK/ble/app\app_blue_courier_link.c ****             if (bcwl_env.recv_buf == NULL) {
 303:C:/Users/stapi/OneDrive/Desktop/GD32VW553/GD32VW55X_Wifi_BLE_SDK/GD32VW55x_RELEASE_V1.0.2/MSDK/ble/app\app_blue_courier_link.c ****                 status = BCWL_ERR_RECV_NO_MEM;
 304:C:/Users/stapi/OneDrive/Desktop/GD32VW553/GD32VW55X_Wifi_BLE_SDK/GD32VW55x_RELEASE_V1.0.2/MSDK/ble/app\app_blue_courier_link.c ****                 goto err_recv;
 305:C:/Users/stapi/OneDrive/Desktop/GD32VW553/GD32VW55X_Wifi_BLE_SDK/GD32VW55x_RELEASE_V1.0.2/MSDK/ble/app\app_blue_courier_link.c ****             }
 306:C:/Users/stapi/OneDrive/Desktop/GD32VW553/GD32VW55X_Wifi_BLE_SDK/GD32VW55x_RELEASE_V1.0.2/MSDK/ble/app\app_blue_courier_link.c **** 
 307:C:/Users/stapi/OneDrive/Desktop/GD32VW553/GD32VW55X_Wifi_BLE_SDK/GD32VW55x_RELEASE_V1.0.2/MSDK/ble/app\app_blue_courier_link.c ****             sys_memcpy(bcwl_env.recv_buf + bcwl_env.offset, hdr->data + 2, hdr->data_len - 2);
 308:C:/Users/stapi/OneDrive/Desktop/GD32VW553/GD32VW55X_Wifi_BLE_SDK/GD32VW55x_RELEASE_V1.0.2/MSDK/ble/app\app_blue_courier_link.c ****             bcwl_env.offset = hdr->data_len - 2;
 309:C:/Users/stapi/OneDrive/Desktop/GD32VW553/GD32VW55X_Wifi_BLE_SDK/GD32VW55x_RELEASE_V1.0.2/MSDK/ble/app\app_blue_courier_link.c ****         }
 310:C:/Users/stapi/OneDrive/Desktop/GD32VW553/GD32VW55X_Wifi_BLE_SDK/GD32VW55x_RELEASE_V1.0.2/MSDK/ble/app\app_blue_courier_link.c ****     } else if (BCWL_FLAG_IS_END(hdr->flag)) {
 311:C:/Users/stapi/OneDrive/Desktop/GD32VW553/GD32VW55X_Wifi_BLE_SDK/GD32VW55x_RELEASE_V1.0.2/MSDK/ble/app\app_blue_courier_link.c ****         /* receive end segment */
 312:C:/Users/stapi/OneDrive/Desktop/GD32VW553/GD32VW55X_Wifi_BLE_SDK/GD32VW55x_RELEASE_V1.0.2/MSDK/ble/app\app_blue_courier_link.c ****         if (bcwl_env.offset == 0 || bcwl_env.offset + hdr->data_len != bcwl_env.total_len)
 313:C:/Users/stapi/OneDrive/Desktop/GD32VW553/GD32VW55X_Wifi_BLE_SDK/GD32VW55x_RELEASE_V1.0.2/MSDK/ble/app\app_blue_courier_link.c ****             goto err_recv;
 314:C:/Users/stapi/OneDrive/Desktop/GD32VW553/GD32VW55X_Wifi_BLE_SDK/GD32VW55x_RELEASE_V1.0.2/MSDK/ble/app\app_blue_courier_link.c **** 
 315:C:/Users/stapi/OneDrive/Desktop/GD32VW553/GD32VW55X_Wifi_BLE_SDK/GD32VW55x_RELEASE_V1.0.2/MSDK/ble/app\app_blue_courier_link.c ****         sys_memcpy(bcwl_env.recv_buf + bcwl_env.offset, hdr->data, hdr->data_len);
 316:C:/Users/stapi/OneDrive/Desktop/GD32VW553/GD32VW55X_Wifi_BLE_SDK/GD32VW55x_RELEASE_V1.0.2/MSDK/ble/app\app_blue_courier_link.c **** 
 317:C:/Users/stapi/OneDrive/Desktop/GD32VW553/GD32VW55X_Wifi_BLE_SDK/GD32VW55x_RELEASE_V1.0.2/MSDK/ble/app\app_blue_courier_link.c ****         bcwl_msg_handler(hdr->opcode, bcwl_env.recv_buf, bcwl_env.total_len);
 318:C:/Users/stapi/OneDrive/Desktop/GD32VW553/GD32VW55X_Wifi_BLE_SDK/GD32VW55x_RELEASE_V1.0.2/MSDK/ble/app\app_blue_courier_link.c **** 
 319:C:/Users/stapi/OneDrive/Desktop/GD32VW553/GD32VW55X_Wifi_BLE_SDK/GD32VW55x_RELEASE_V1.0.2/MSDK/ble/app\app_blue_courier_link.c ****         bcwl_env.offset = 0;
 320:C:/Users/stapi/OneDrive/Desktop/GD32VW553/GD32VW55X_Wifi_BLE_SDK/GD32VW55x_RELEASE_V1.0.2/MSDK/ble/app\app_blue_courier_link.c ****         if (bcwl_env.recv_buf != NULL) {
 321:C:/Users/stapi/OneDrive/Desktop/GD32VW553/GD32VW55X_Wifi_BLE_SDK/GD32VW55x_RELEASE_V1.0.2/MSDK/ble/app\app_blue_courier_link.c ****             sys_mfree(bcwl_env.recv_buf);
 322:C:/Users/stapi/OneDrive/Desktop/GD32VW553/GD32VW55X_Wifi_BLE_SDK/GD32VW55x_RELEASE_V1.0.2/MSDK/ble/app\app_blue_courier_link.c ****             bcwl_env.recv_buf = NULL;
 323:C:/Users/stapi/OneDrive/Desktop/GD32VW553/GD32VW55X_Wifi_BLE_SDK/GD32VW55x_RELEASE_V1.0.2/MSDK/ble/app\app_blue_courier_link.c ****         }
 324:C:/Users/stapi/OneDrive/Desktop/GD32VW553/GD32VW55X_Wifi_BLE_SDK/GD32VW55x_RELEASE_V1.0.2/MSDK/ble/app\app_blue_courier_link.c ****     } else {
 325:C:/Users/stapi/OneDrive/Desktop/GD32VW553/GD32VW55X_Wifi_BLE_SDK/GD32VW55x_RELEASE_V1.0.2/MSDK/ble/app\app_blue_courier_link.c ****         /* receive continue segment */
 326:C:/Users/stapi/OneDrive/Desktop/GD32VW553/GD32VW55X_Wifi_BLE_SDK/GD32VW55x_RELEASE_V1.0.2/MSDK/ble/app\app_blue_courier_link.c ****         if (bcwl_env.offset == 0 || bcwl_env.offset + hdr->data_len >= bcwl_env.total_len)
 327:C:/Users/stapi/OneDrive/Desktop/GD32VW553/GD32VW55X_Wifi_BLE_SDK/GD32VW55x_RELEASE_V1.0.2/MSDK/ble/app\app_blue_courier_link.c ****             goto err_recv;
 328:C:/Users/stapi/OneDrive/Desktop/GD32VW553/GD32VW55X_Wifi_BLE_SDK/GD32VW55x_RELEASE_V1.0.2/MSDK/ble/app\app_blue_courier_link.c **** 
 329:C:/Users/stapi/OneDrive/Desktop/GD32VW553/GD32VW55X_Wifi_BLE_SDK/GD32VW55x_RELEASE_V1.0.2/MSDK/ble/app\app_blue_courier_link.c ****         sys_memcpy(bcwl_env.recv_buf + bcwl_env.offset, hdr->data, hdr->data_len);
 330:C:/Users/stapi/OneDrive/Desktop/GD32VW553/GD32VW55X_Wifi_BLE_SDK/GD32VW55x_RELEASE_V1.0.2/MSDK/ble/app\app_blue_courier_link.c ****         bcwl_env.offset += hdr->data_len;
 331:C:/Users/stapi/OneDrive/Desktop/GD32VW553/GD32VW55X_Wifi_BLE_SDK/GD32VW55x_RELEASE_V1.0.2/MSDK/ble/app\app_blue_courier_link.c ****     }
 332:C:/Users/stapi/OneDrive/Desktop/GD32VW553/GD32VW55X_Wifi_BLE_SDK/GD32VW55x_RELEASE_V1.0.2/MSDK/ble/app\app_blue_courier_link.c **** 
 333:C:/Users/stapi/OneDrive/Desktop/GD32VW553/GD32VW55X_Wifi_BLE_SDK/GD32VW55x_RELEASE_V1.0.2/MSDK/ble/app\app_blue_courier_link.c ****     return;
 334:C:/Users/stapi/OneDrive/Desktop/GD32VW553/GD32VW55X_Wifi_BLE_SDK/GD32VW55x_RELEASE_V1.0.2/MSDK/ble/app\app_blue_courier_link.c **** 
 335:C:/Users/stapi/OneDrive/Desktop/GD32VW553/GD32VW55X_Wifi_BLE_SDK/GD32VW55x_RELEASE_V1.0.2/MSDK/ble/app\app_blue_courier_link.c **** err_recv:
 336:C:/Users/stapi/OneDrive/Desktop/GD32VW553/GD32VW55X_Wifi_BLE_SDK/GD32VW55x_RELEASE_V1.0.2/MSDK/ble/app\app_blue_courier_link.c ****     bcwl_env.offset = 0;
 337:C:/Users/stapi/OneDrive/Desktop/GD32VW553/GD32VW55X_Wifi_BLE_SDK/GD32VW55x_RELEASE_V1.0.2/MSDK/ble/app\app_blue_courier_link.c ****     if (bcwl_env.recv_buf != NULL) {
 338:C:/Users/stapi/OneDrive/Desktop/GD32VW553/GD32VW55X_Wifi_BLE_SDK/GD32VW55x_RELEASE_V1.0.2/MSDK/ble/app\app_blue_courier_link.c ****         sys_mfree(bcwl_env.recv_buf);
 339:C:/Users/stapi/OneDrive/Desktop/GD32VW553/GD32VW55X_Wifi_BLE_SDK/GD32VW55x_RELEASE_V1.0.2/MSDK/ble/app\app_blue_courier_link.c ****         bcwl_env.recv_buf = NULL;
 340:C:/Users/stapi/OneDrive/Desktop/GD32VW553/GD32VW55X_Wifi_BLE_SDK/GD32VW55x_RELEASE_V1.0.2/MSDK/ble/app\app_blue_courier_link.c ****     }
 341:C:/Users/stapi/OneDrive/Desktop/GD32VW553/GD32VW55X_Wifi_BLE_SDK/GD32VW55x_RELEASE_V1.0.2/MSDK/ble/app\app_blue_courier_link.c ****     bcwl_error_report(status);
 342:C:/Users/stapi/OneDrive/Desktop/GD32VW553/GD32VW55X_Wifi_BLE_SDK/GD32VW55x_RELEASE_V1.0.2/MSDK/ble/app\app_blue_courier_link.c ****     dbg_print(ERR, "%s error %u\n", __func__, status);
 343:C:/Users/stapi/OneDrive/Desktop/GD32VW553/GD32VW55X_Wifi_BLE_SDK/GD32VW55x_RELEASE_V1.0.2/MSDK/ble/app\app_blue_courier_link.c **** }
 344:C:/Users/stapi/OneDrive/Desktop/GD32VW553/GD32VW55X_Wifi_BLE_SDK/GD32VW55x_RELEASE_V1.0.2/MSDK/ble/app\app_blue_courier_link.c **** 
 345:C:/Users/stapi/OneDrive/Desktop/GD32VW553/GD32VW55X_Wifi_BLE_SDK/GD32VW55x_RELEASE_V1.0.2/MSDK/ble/app\app_blue_courier_link.c **** /*!
 346:C:/Users/stapi/OneDrive/Desktop/GD32VW553/GD32VW55X_Wifi_BLE_SDK/GD32VW55x_RELEASE_V1.0.2/MSDK/ble/app\app_blue_courier_link.c ****     \brief      Callback function to handle GATT server messages
 347:C:/Users/stapi/OneDrive/Desktop/GD32VW553/GD32VW55X_Wifi_BLE_SDK/GD32VW55x_RELEASE_V1.0.2/MSDK/ble/app\app_blue_courier_link.c ****     \param[in]  p_srv_msg_info: pointer to GATT server message information
 348:C:/Users/stapi/OneDrive/Desktop/GD32VW553/GD32VW55X_Wifi_BLE_SDK/GD32VW55x_RELEASE_V1.0.2/MSDK/ble/app\app_blue_courier_link.c ****     \param[out] none
 349:C:/Users/stapi/OneDrive/Desktop/GD32VW553/GD32VW55X_Wifi_BLE_SDK/GD32VW55x_RELEASE_V1.0.2/MSDK/ble/app\app_blue_courier_link.c ****     \retval     ble_status_t: BLE_ERR_NO_ERROR on success, otherwise an error code
 350:C:/Users/stapi/OneDrive/Desktop/GD32VW553/GD32VW55X_Wifi_BLE_SDK/GD32VW55x_RELEASE_V1.0.2/MSDK/ble/app\app_blue_courier_link.c **** */
 351:C:/Users/stapi/OneDrive/Desktop/GD32VW553/GD32VW55X_Wifi_BLE_SDK/GD32VW55x_RELEASE_V1.0.2/MSDK/ble/app\app_blue_courier_link.c **** static ble_status_t bcwl_gatts_msg_cb(ble_gatts_msg_info_t *p_srv_msg_info)
 352:C:/Users/stapi/OneDrive/Desktop/GD32VW553/GD32VW55X_Wifi_BLE_SDK/GD32VW55x_RELEASE_V1.0.2/MSDK/ble/app\app_blue_courier_link.c **** {
 353:C:/Users/stapi/OneDrive/Desktop/GD32VW553/GD32VW55X_Wifi_BLE_SDK/GD32VW55x_RELEASE_V1.0.2/MSDK/ble/app\app_blue_courier_link.c ****     uint8_t  att_idx;
 354:C:/Users/stapi/OneDrive/Desktop/GD32VW553/GD32VW55X_Wifi_BLE_SDK/GD32VW55x_RELEASE_V1.0.2/MSDK/ble/app\app_blue_courier_link.c ****     uint8_t *data;
 355:C:/Users/stapi/OneDrive/Desktop/GD32VW553/GD32VW55X_Wifi_BLE_SDK/GD32VW55x_RELEASE_V1.0.2/MSDK/ble/app\app_blue_courier_link.c ****     uint16_t data_len, i;
 356:C:/Users/stapi/OneDrive/Desktop/GD32VW553/GD32VW55X_Wifi_BLE_SDK/GD32VW55x_RELEASE_V1.0.2/MSDK/ble/app\app_blue_courier_link.c **** 
 357:C:/Users/stapi/OneDrive/Desktop/GD32VW553/GD32VW55X_Wifi_BLE_SDK/GD32VW55x_RELEASE_V1.0.2/MSDK/ble/app\app_blue_courier_link.c ****     if (p_srv_msg_info->srv_msg_type == BLE_SRV_EVT_GATT_OPERATION) {
 358:C:/Users/stapi/OneDrive/Desktop/GD32VW553/GD32VW55X_Wifi_BLE_SDK/GD32VW55x_RELEASE_V1.0.2/MSDK/ble/app\app_blue_courier_link.c ****         /* Other connection operations are ignored */
 359:C:/Users/stapi/OneDrive/Desktop/GD32VW553/GD32VW55X_Wifi_BLE_SDK/GD32VW55x_RELEASE_V1.0.2/MSDK/ble/app\app_blue_courier_link.c ****         if (p_srv_msg_info->msg_data.gatts_op_info.conn_idx != bcwl_env.conn_id) {
 360:C:/Users/stapi/OneDrive/Desktop/GD32VW553/GD32VW55X_Wifi_BLE_SDK/GD32VW55x_RELEASE_V1.0.2/MSDK/ble/app\app_blue_courier_link.c ****             return BLE_ERR_NO_ERROR;
 361:C:/Users/stapi/OneDrive/Desktop/GD32VW553/GD32VW55X_Wifi_BLE_SDK/GD32VW55x_RELEASE_V1.0.2/MSDK/ble/app\app_blue_courier_link.c ****         }
 362:C:/Users/stapi/OneDrive/Desktop/GD32VW553/GD32VW55X_Wifi_BLE_SDK/GD32VW55x_RELEASE_V1.0.2/MSDK/ble/app\app_blue_courier_link.c **** 
 363:C:/Users/stapi/OneDrive/Desktop/GD32VW553/GD32VW55X_Wifi_BLE_SDK/GD32VW55x_RELEASE_V1.0.2/MSDK/ble/app\app_blue_courier_link.c ****         if (p_srv_msg_info->msg_data.gatts_op_info.gatts_op_sub_evt == BLE_SRV_EVT_WRITE_REQ) {
 364:C:/Users/stapi/OneDrive/Desktop/GD32VW553/GD32VW55X_Wifi_BLE_SDK/GD32VW55x_RELEASE_V1.0.2/MSDK/ble/app\app_blue_courier_link.c ****             att_idx = p_srv_msg_info->msg_data.gatts_op_info.gatts_op_data.write_req.att_idx;
 365:C:/Users/stapi/OneDrive/Desktop/GD32VW553/GD32VW55X_Wifi_BLE_SDK/GD32VW55x_RELEASE_V1.0.2/MSDK/ble/app\app_blue_courier_link.c ****             data = p_srv_msg_info->msg_data.gatts_op_info.gatts_op_data.write_req.p_val;
 366:C:/Users/stapi/OneDrive/Desktop/GD32VW553/GD32VW55X_Wifi_BLE_SDK/GD32VW55x_RELEASE_V1.0.2/MSDK/ble/app\app_blue_courier_link.c ****             data_len = p_srv_msg_info->msg_data.gatts_op_info.gatts_op_data.write_req.val_len;
 367:C:/Users/stapi/OneDrive/Desktop/GD32VW553/GD32VW55X_Wifi_BLE_SDK/GD32VW55x_RELEASE_V1.0.2/MSDK/ble/app\app_blue_courier_link.c **** 
 368:C:/Users/stapi/OneDrive/Desktop/GD32VW553/GD32VW55X_Wifi_BLE_SDK/GD32VW55x_RELEASE_V1.0.2/MSDK/ble/app\app_blue_courier_link.c ****             dbg_print(INFO, "%s att idx %d, value_len %d, value: ", __func__, att_idx, data_len);
 369:C:/Users/stapi/OneDrive/Desktop/GD32VW553/GD32VW55X_Wifi_BLE_SDK/GD32VW55x_RELEASE_V1.0.2/MSDK/ble/app\app_blue_courier_link.c ****             for (i = 0; i < data_len; i++)
 370:C:/Users/stapi/OneDrive/Desktop/GD32VW553/GD32VW55X_Wifi_BLE_SDK/GD32VW55x_RELEASE_V1.0.2/MSDK/ble/app\app_blue_courier_link.c ****                 dbg_print(INFO, "%02x", data[i]);
 371:C:/Users/stapi/OneDrive/Desktop/GD32VW553/GD32VW55X_Wifi_BLE_SDK/GD32VW55x_RELEASE_V1.0.2/MSDK/ble/app\app_blue_courier_link.c ****             dbg_print(INFO, "\r\n");
 372:C:/Users/stapi/OneDrive/Desktop/GD32VW553/GD32VW55X_Wifi_BLE_SDK/GD32VW55x_RELEASE_V1.0.2/MSDK/ble/app\app_blue_courier_link.c **** 
 373:C:/Users/stapi/OneDrive/Desktop/GD32VW553/GD32VW55X_Wifi_BLE_SDK/GD32VW55x_RELEASE_V1.0.2/MSDK/ble/app\app_blue_courier_link.c ****             switch (att_idx) {
 374:C:/Users/stapi/OneDrive/Desktop/GD32VW553/GD32VW55X_Wifi_BLE_SDK/GD32VW55x_RELEASE_V1.0.2/MSDK/ble/app\app_blue_courier_link.c ****             case BCW_IDX_WRITE:
 375:C:/Users/stapi/OneDrive/Desktop/GD32VW553/GD32VW55X_Wifi_BLE_SDK/GD32VW55x_RELEASE_V1.0.2/MSDK/ble/app\app_blue_courier_link.c ****                 bcwl_receive(data, data_len);
 376:C:/Users/stapi/OneDrive/Desktop/GD32VW553/GD32VW55X_Wifi_BLE_SDK/GD32VW55x_RELEASE_V1.0.2/MSDK/ble/app\app_blue_courier_link.c ****                 break;
 377:C:/Users/stapi/OneDrive/Desktop/GD32VW553/GD32VW55X_Wifi_BLE_SDK/GD32VW55x_RELEASE_V1.0.2/MSDK/ble/app\app_blue_courier_link.c ****             case BCW_IDX_NTF_CFG:
 378:C:/Users/stapi/OneDrive/Desktop/GD32VW553/GD32VW55X_Wifi_BLE_SDK/GD32VW55x_RELEASE_V1.0.2/MSDK/ble/app\app_blue_courier_link.c ****                 if (data_len == sizeof(uint16_t))
 379:C:/Users/stapi/OneDrive/Desktop/GD32VW553/GD32VW55X_Wifi_BLE_SDK/GD32VW55x_RELEASE_V1.0.2/MSDK/ble/app\app_blue_courier_link.c ****                     bcwl_env.ntf_cfg = *(uint16_t *)data;
 380:C:/Users/stapi/OneDrive/Desktop/GD32VW553/GD32VW55X_Wifi_BLE_SDK/GD32VW55x_RELEASE_V1.0.2/MSDK/ble/app\app_blue_courier_link.c ****                 else
 381:C:/Users/stapi/OneDrive/Desktop/GD32VW553/GD32VW55X_Wifi_BLE_SDK/GD32VW55x_RELEASE_V1.0.2/MSDK/ble/app\app_blue_courier_link.c ****                     dbg_print(ERR, "%s ntf cfg invalid length\r\n", __func__);
 382:C:/Users/stapi/OneDrive/Desktop/GD32VW553/GD32VW55X_Wifi_BLE_SDK/GD32VW55x_RELEASE_V1.0.2/MSDK/ble/app\app_blue_courier_link.c ****                 break;
 383:C:/Users/stapi/OneDrive/Desktop/GD32VW553/GD32VW55X_Wifi_BLE_SDK/GD32VW55x_RELEASE_V1.0.2/MSDK/ble/app\app_blue_courier_link.c ****             default:
 384:C:/Users/stapi/OneDrive/Desktop/GD32VW553/GD32VW55X_Wifi_BLE_SDK/GD32VW55x_RELEASE_V1.0.2/MSDK/ble/app\app_blue_courier_link.c ****                 break;
 385:C:/Users/stapi/OneDrive/Desktop/GD32VW553/GD32VW55X_Wifi_BLE_SDK/GD32VW55x_RELEASE_V1.0.2/MSDK/ble/app\app_blue_courier_link.c ****             }
 386:C:/Users/stapi/OneDrive/Desktop/GD32VW553/GD32VW55X_Wifi_BLE_SDK/GD32VW55x_RELEASE_V1.0.2/MSDK/ble/app\app_blue_courier_link.c ****         }
 387:C:/Users/stapi/OneDrive/Desktop/GD32VW553/GD32VW55X_Wifi_BLE_SDK/GD32VW55x_RELEASE_V1.0.2/MSDK/ble/app\app_blue_courier_link.c ****     }
 388:C:/Users/stapi/OneDrive/Desktop/GD32VW553/GD32VW55X_Wifi_BLE_SDK/GD32VW55x_RELEASE_V1.0.2/MSDK/ble/app\app_blue_courier_link.c **** 
 389:C:/Users/stapi/OneDrive/Desktop/GD32VW553/GD32VW55X_Wifi_BLE_SDK/GD32VW55x_RELEASE_V1.0.2/MSDK/ble/app\app_blue_courier_link.c ****     return BLE_ERR_NO_ERROR;
 390:C:/Users/stapi/OneDrive/Desktop/GD32VW553/GD32VW55X_Wifi_BLE_SDK/GD32VW55x_RELEASE_V1.0.2/MSDK/ble/app\app_blue_courier_link.c **** }
 391:C:/Users/stapi/OneDrive/Desktop/GD32VW553/GD32VW55X_Wifi_BLE_SDK/GD32VW55x_RELEASE_V1.0.2/MSDK/ble/app\app_blue_courier_link.c **** 
 392:C:/Users/stapi/OneDrive/Desktop/GD32VW553/GD32VW55X_Wifi_BLE_SDK/GD32VW55x_RELEASE_V1.0.2/MSDK/ble/app\app_blue_courier_link.c **** /*!
 393:C:/Users/stapi/OneDrive/Desktop/GD32VW553/GD32VW55X_Wifi_BLE_SDK/GD32VW55x_RELEASE_V1.0.2/MSDK/ble/app\app_blue_courier_link.c ****     \brief      Callback function to handle BLE connection events
 394:C:/Users/stapi/OneDrive/Desktop/GD32VW553/GD32VW55X_Wifi_BLE_SDK/GD32VW55x_RELEASE_V1.0.2/MSDK/ble/app\app_blue_courier_link.c ****     \param[in]  event: BLE connection event type
 395:C:/Users/stapi/OneDrive/Desktop/GD32VW553/GD32VW55X_Wifi_BLE_SDK/GD32VW55x_RELEASE_V1.0.2/MSDK/ble/app\app_blue_courier_link.c ****     \param[in]  p_data: pointer to BLE connection event data
 396:C:/Users/stapi/OneDrive/Desktop/GD32VW553/GD32VW55X_Wifi_BLE_SDK/GD32VW55x_RELEASE_V1.0.2/MSDK/ble/app\app_blue_courier_link.c ****     \param[out] none
 397:C:/Users/stapi/OneDrive/Desktop/GD32VW553/GD32VW55X_Wifi_BLE_SDK/GD32VW55x_RELEASE_V1.0.2/MSDK/ble/app\app_blue_courier_link.c ****     \retval     none
 398:C:/Users/stapi/OneDrive/Desktop/GD32VW553/GD32VW55X_Wifi_BLE_SDK/GD32VW55x_RELEASE_V1.0.2/MSDK/ble/app\app_blue_courier_link.c **** */
 399:C:/Users/stapi/OneDrive/Desktop/GD32VW553/GD32VW55X_Wifi_BLE_SDK/GD32VW55x_RELEASE_V1.0.2/MSDK/ble/app\app_blue_courier_link.c **** void bcwl_conn_evt_handler(ble_conn_evt_t event, ble_conn_data_u *p_data)
 400:C:/Users/stapi/OneDrive/Desktop/GD32VW553/GD32VW55X_Wifi_BLE_SDK/GD32VW55x_RELEASE_V1.0.2/MSDK/ble/app\app_blue_courier_link.c **** {
  16              		.loc 1 400 1
  17              		.cfi_startproc
  18              	.LVL0:
 401:C:/Users/stapi/OneDrive/Desktop/GD32VW553/GD32VW55X_Wifi_BLE_SDK/GD32VW55x_RELEASE_V1.0.2/MSDK/ble/app\app_blue_courier_link.c ****     if (event == BLE_CONN_EVT_STATE_CHG &&
  19              		.loc 1 401 5
  20              		.loc 1 401 8 is_stmt 0
  21 0000 8547     		li	a5,1
  22 0002 6311F506 		bne	a0,a5,.L9
  23              		.loc 1 401 41 discriminator 1
  24 0006 9C41     		lw	a5,0(a1)
  25 0008 639EA704 		bne	a5,a0,.L9
 400:C:/Users/stapi/OneDrive/Desktop/GD32VW553/GD32VW55X_Wifi_BLE_SDK/GD32VW55x_RELEASE_V1.0.2/MSDK/ble/app\app_blue_courier_link.c ****     if (event == BLE_CONN_EVT_STATE_CHG &&
  26              		.loc 1 400 1
  27 000c 17030000 		call	t0,__riscv_save_1
  27      E7020300 
  28              		.cfi_offset 8, -8
  29              		.cfi_offset 1, -4
  30              		.cfi_def_cfa_offset 16
 402:C:/Users/stapi/OneDrive/Desktop/GD32VW553/GD32VW55X_Wifi_BLE_SDK/GD32VW55x_RELEASE_V1.0.2/MSDK/ble/app\app_blue_courier_link.c ****         p_data->conn_state.state == BLE_CONN_STATE_CONNECTED &&
 403:C:/Users/stapi/OneDrive/Desktop/GD32VW553/GD32VW55X_Wifi_BLE_SDK/GD32VW55x_RELEASE_V1.0.2/MSDK/ble/app\app_blue_courier_link.c ****         p_data->conn_state.info.conn_info.actv_idx == bcwl_env.adv_idx) {
  31              		.loc 1 403 63
  32 0014 37040000 		lui	s0,%hi(.LANCHOR0)
  33 0018 13040400 		addi	s0,s0,%lo(.LANCHOR0)
 402:C:/Users/stapi/OneDrive/Desktop/GD32VW553/GD32VW55X_Wifi_BLE_SDK/GD32VW55x_RELEASE_V1.0.2/MSDK/ble/app\app_blue_courier_link.c ****         p_data->conn_state.state == BLE_CONN_STATE_CONNECTED &&
  34              		.loc 1 402 62
  35 001c 03C77501 		lbu	a4,23(a1)
  36 0020 83472400 		lbu	a5,2(s0)
  37 0024 631CF702 		bne	a4,a5,.L1
  38              	.LVL1:
  39              	.LBB17:
  40              	.LBB18:
 404:C:/Users/stapi/OneDrive/Desktop/GD32VW553/GD32VW55X_Wifi_BLE_SDK/GD32VW55x_RELEASE_V1.0.2/MSDK/ble/app\app_blue_courier_link.c ****         bcwl_env.conn_id = p_data->conn_state.info.conn_info.conn_idx;
  41              		.loc 1 404 9 is_stmt 1
  42              		.loc 1 404 26 is_stmt 0
  43 0028 83C74500 		lbu	a5,4(a1)
 405:C:/Users/stapi/OneDrive/Desktop/GD32VW553/GD32VW55X_Wifi_BLE_SDK/GD32VW55x_RELEASE_V1.0.2/MSDK/ble/app\app_blue_courier_link.c ****         /* reinit parameter */
 406:C:/Users/stapi/OneDrive/Desktop/GD32VW553/GD32VW55X_Wifi_BLE_SDK/GD32VW55x_RELEASE_V1.0.2/MSDK/ble/app\app_blue_courier_link.c ****         bcwl_env.ntf_cfg = 0;
 407:C:/Users/stapi/OneDrive/Desktop/GD32VW553/GD32VW55X_Wifi_BLE_SDK/GD32VW55x_RELEASE_V1.0.2/MSDK/ble/app\app_blue_courier_link.c ****         bcwl_env.recv_seq = 0;
 408:C:/Users/stapi/OneDrive/Desktop/GD32VW553/GD32VW55X_Wifi_BLE_SDK/GD32VW55x_RELEASE_V1.0.2/MSDK/ble/app\app_blue_courier_link.c ****         bcwl_env.send_seq = 0;
 409:C:/Users/stapi/OneDrive/Desktop/GD32VW553/GD32VW55X_Wifi_BLE_SDK/GD32VW55x_RELEASE_V1.0.2/MSDK/ble/app\app_blue_courier_link.c ****         bcwl_env.total_len = 0;
 410:C:/Users/stapi/OneDrive/Desktop/GD32VW553/GD32VW55X_Wifi_BLE_SDK/GD32VW55x_RELEASE_V1.0.2/MSDK/ble/app\app_blue_courier_link.c ****         bcwl_env.offset = 0;
 411:C:/Users/stapi/OneDrive/Desktop/GD32VW553/GD32VW55X_Wifi_BLE_SDK/GD32VW55x_RELEASE_V1.0.2/MSDK/ble/app\app_blue_courier_link.c ****         bcwl_env.frag_size = BLE_GATT_MTU_MIN - sizeof(bcwl_header_t) - BLE_GATT_HEADER_LEN - 2/*cr
 412:C:/Users/stapi/OneDrive/Desktop/GD32VW553/GD32VW55X_Wifi_BLE_SDK/GD32VW55x_RELEASE_V1.0.2/MSDK/ble/app\app_blue_courier_link.c ****         bcwl_env.peer_recv_size = BLE_GATT_MTU_MIN;
 413:C:/Users/stapi/OneDrive/Desktop/GD32VW553/GD32VW55X_Wifi_BLE_SDK/GD32VW55x_RELEASE_V1.0.2/MSDK/ble/app\app_blue_courier_link.c ****         bcwl_env.handshake_success = false;
 414:C:/Users/stapi/OneDrive/Desktop/GD32VW553/GD32VW55X_Wifi_BLE_SDK/GD32VW55x_RELEASE_V1.0.2/MSDK/ble/app\app_blue_courier_link.c ****         if (bcwl_env.recv_buf != NULL) {
  44              		.loc 1 414 21
  45 002c 0848     		lw	a0,16(s0)
  46              	.LVL2:
 406:C:/Users/stapi/OneDrive/Desktop/GD32VW553/GD32VW55X_Wifi_BLE_SDK/GD32VW55x_RELEASE_V1.0.2/MSDK/ble/app\app_blue_courier_link.c ****         bcwl_env.recv_seq = 0;
  47              		.loc 1 406 26
  48 002e 23120400 		sh	zero,4(s0)
 404:C:/Users/stapi/OneDrive/Desktop/GD32VW553/GD32VW55X_Wifi_BLE_SDK/GD32VW55x_RELEASE_V1.0.2/MSDK/ble/app\app_blue_courier_link.c ****         bcwl_env.conn_id = p_data->conn_state.info.conn_info.conn_idx;
  49              		.loc 1 404 26
  50 0032 A300F400 		sb	a5,1(s0)
 406:C:/Users/stapi/OneDrive/Desktop/GD32VW553/GD32VW55X_Wifi_BLE_SDK/GD32VW55x_RELEASE_V1.0.2/MSDK/ble/app\app_blue_courier_link.c ****         bcwl_env.recv_seq = 0;
  51              		.loc 1 406 9 is_stmt 1
 407:C:/Users/stapi/OneDrive/Desktop/GD32VW553/GD32VW55X_Wifi_BLE_SDK/GD32VW55x_RELEASE_V1.0.2/MSDK/ble/app\app_blue_courier_link.c ****         bcwl_env.send_seq = 0;
  52              		.loc 1 407 9
 408:C:/Users/stapi/OneDrive/Desktop/GD32VW553/GD32VW55X_Wifi_BLE_SDK/GD32VW55x_RELEASE_V1.0.2/MSDK/ble/app\app_blue_courier_link.c ****         bcwl_env.total_len = 0;
  53              		.loc 1 408 9
 411:C:/Users/stapi/OneDrive/Desktop/GD32VW553/GD32VW55X_Wifi_BLE_SDK/GD32VW55x_RELEASE_V1.0.2/MSDK/ble/app\app_blue_courier_link.c ****         bcwl_env.peer_recv_size = BLE_GATT_MTU_MIN;
  54              		.loc 1 411 28 is_stmt 0
  55 0036 B947     		li	a5,14
  56 0038 230CF400 		sb	a5,24(s0)
 412:C:/Users/stapi/OneDrive/Desktop/GD32VW553/GD32VW55X_Wifi_BLE_SDK/GD32VW55x_RELEASE_V1.0.2/MSDK/ble/app\app_blue_courier_link.c ****         bcwl_env.handshake_success = false;
  57              		.loc 1 412 33
  58 003c DD47     		li	a5,23
 407:C:/Users/stapi/OneDrive/Desktop/GD32VW553/GD32VW55X_Wifi_BLE_SDK/GD32VW55x_RELEASE_V1.0.2/MSDK/ble/app\app_blue_courier_link.c ****         bcwl_env.send_seq = 0;
  59              		.loc 1 407 27
  60 003e 23160400 		sh	zero,12(s0)
 409:C:/Users/stapi/OneDrive/Desktop/GD32VW553/GD32VW55X_Wifi_BLE_SDK/GD32VW55x_RELEASE_V1.0.2/MSDK/ble/app\app_blue_courier_link.c ****         bcwl_env.offset = 0;
  61              		.loc 1 409 9 is_stmt 1
 410:C:/Users/stapi/OneDrive/Desktop/GD32VW553/GD32VW55X_Wifi_BLE_SDK/GD32VW55x_RELEASE_V1.0.2/MSDK/ble/app\app_blue_courier_link.c ****         bcwl_env.frag_size = BLE_GATT_MTU_MIN - sizeof(bcwl_header_t) - BLE_GATT_HEADER_LEN - 2/*cr
  62              		.loc 1 410 9
 411:C:/Users/stapi/OneDrive/Desktop/GD32VW553/GD32VW55X_Wifi_BLE_SDK/GD32VW55x_RELEASE_V1.0.2/MSDK/ble/app\app_blue_courier_link.c ****         bcwl_env.peer_recv_size = BLE_GATT_MTU_MIN;
  63              		.loc 1 411 9
 412:C:/Users/stapi/OneDrive/Desktop/GD32VW553/GD32VW55X_Wifi_BLE_SDK/GD32VW55x_RELEASE_V1.0.2/MSDK/ble/app\app_blue_courier_link.c ****         bcwl_env.handshake_success = false;
  64              		.loc 1 412 9
 409:C:/Users/stapi/OneDrive/Desktop/GD32VW553/GD32VW55X_Wifi_BLE_SDK/GD32VW55x_RELEASE_V1.0.2/MSDK/ble/app\app_blue_courier_link.c ****         bcwl_env.offset = 0;
  65              		.loc 1 409 28 is_stmt 0
  66 0042 232A0400 		sw	zero,20(s0)
 412:C:/Users/stapi/OneDrive/Desktop/GD32VW553/GD32VW55X_Wifi_BLE_SDK/GD32VW55x_RELEASE_V1.0.2/MSDK/ble/app\app_blue_courier_link.c ****         bcwl_env.handshake_success = false;
  67              		.loc 1 412 33
  68 0046 231DF400 		sh	a5,26(s0)
 413:C:/Users/stapi/OneDrive/Desktop/GD32VW553/GD32VW55X_Wifi_BLE_SDK/GD32VW55x_RELEASE_V1.0.2/MSDK/ble/app\app_blue_courier_link.c ****         if (bcwl_env.recv_buf != NULL) {
  69              		.loc 1 413 9 is_stmt 1
 413:C:/Users/stapi/OneDrive/Desktop/GD32VW553/GD32VW55X_Wifi_BLE_SDK/GD32VW55x_RELEASE_V1.0.2/MSDK/ble/app\app_blue_courier_link.c ****         if (bcwl_env.recv_buf != NULL) {
  70              		.loc 1 413 36 is_stmt 0
  71 004a 230E0400 		sb	zero,28(s0)
  72              		.loc 1 414 9 is_stmt 1
  73              		.loc 1 414 12 is_stmt 0
  74 004e 19C5     		beq	a0,zero,.L1
 415:C:/Users/stapi/OneDrive/Desktop/GD32VW553/GD32VW55X_Wifi_BLE_SDK/GD32VW55x_RELEASE_V1.0.2/MSDK/ble/app\app_blue_courier_link.c ****             sys_mfree(bcwl_env.recv_buf);
  75              		.loc 1 415 13 is_stmt 1
  76 0050 97000000 		call	sys_mfree
  76      E7800000 
  77              	.LVL3:
 416:C:/Users/stapi/OneDrive/Desktop/GD32VW553/GD32VW55X_Wifi_BLE_SDK/GD32VW55x_RELEASE_V1.0.2/MSDK/ble/app\app_blue_courier_link.c ****             bcwl_env.recv_buf = NULL;
  78              		.loc 1 416 13
  79              		.loc 1 416 31 is_stmt 0
  80 0058 23280400 		sw	zero,16(s0)
  81              	.LVL4:
  82              	.L1:
  83              	.LBE18:
  84              	.LBE17:
 417:C:/Users/stapi/OneDrive/Desktop/GD32VW553/GD32VW55X_Wifi_BLE_SDK/GD32VW55x_RELEASE_V1.0.2/MSDK/ble/app\app_blue_courier_link.c ****         }
 418:C:/Users/stapi/OneDrive/Desktop/GD32VW553/GD32VW55X_Wifi_BLE_SDK/GD32VW55x_RELEASE_V1.0.2/MSDK/ble/app\app_blue_courier_link.c ****     }
 419:C:/Users/stapi/OneDrive/Desktop/GD32VW553/GD32VW55X_Wifi_BLE_SDK/GD32VW55x_RELEASE_V1.0.2/MSDK/ble/app\app_blue_courier_link.c **** }
  85              		.loc 1 419 1
  86 005c 17030000 		tail	__riscv_restore_1
  86      67000300 
  87              		.cfi_restore 8
  88              		.cfi_restore 1
  89              		.cfi_def_cfa_offset 0
  90              	.LVL5:
  91              	.L9:
  92 0064 8280     		ret
  93              		.cfi_endproc
  94              	.LFE22:
  96              		.section	.rodata.bcwl_adv_mgr_evt_hdlr.str1.4,"aMS",@progbits,1
  97              		.align	2
  98              	.LC0:
  99 0000 25732073 		.string	"%s state change 0x%x ==> 0x%x, reason 0x%x\r\n"
  99      74617465 
  99      20636861 
  99      6E676520 
  99      30782578 
 100              		.section	.text.bcwl_adv_mgr_evt_hdlr,"ax",@progbits
 101              		.align	1
 103              	bcwl_adv_mgr_evt_hdlr:
 104              	.LFB24:
 420:C:/Users/stapi/OneDrive/Desktop/GD32VW553/GD32VW55X_Wifi_BLE_SDK/GD32VW55x_RELEASE_V1.0.2/MSDK/ble/app\app_blue_courier_link.c **** 
 421:C:/Users/stapi/OneDrive/Desktop/GD32VW553/GD32VW55X_Wifi_BLE_SDK/GD32VW55x_RELEASE_V1.0.2/MSDK/ble/app\app_blue_courier_link.c **** /*!
 422:C:/Users/stapi/OneDrive/Desktop/GD32VW553/GD32VW55X_Wifi_BLE_SDK/GD32VW55x_RELEASE_V1.0.2/MSDK/ble/app\app_blue_courier_link.c ****     \brief      Blue courier wifi link start advertising
 423:C:/Users/stapi/OneDrive/Desktop/GD32VW553/GD32VW55X_Wifi_BLE_SDK/GD32VW55x_RELEASE_V1.0.2/MSDK/ble/app\app_blue_courier_link.c ****     \param[in]  none
 424:C:/Users/stapi/OneDrive/Desktop/GD32VW553/GD32VW55X_Wifi_BLE_SDK/GD32VW55x_RELEASE_V1.0.2/MSDK/ble/app\app_blue_courier_link.c ****     \param[out] none
 425:C:/Users/stapi/OneDrive/Desktop/GD32VW553/GD32VW55X_Wifi_BLE_SDK/GD32VW55x_RELEASE_V1.0.2/MSDK/ble/app\app_blue_courier_link.c ****     \retval     ble_status_t: BLE_ERR_NO_ERROR on success, otherwise an error code
 426:C:/Users/stapi/OneDrive/Desktop/GD32VW553/GD32VW55X_Wifi_BLE_SDK/GD32VW55x_RELEASE_V1.0.2/MSDK/ble/app\app_blue_courier_link.c **** */
 427:C:/Users/stapi/OneDrive/Desktop/GD32VW553/GD32VW55X_Wifi_BLE_SDK/GD32VW55x_RELEASE_V1.0.2/MSDK/ble/app\app_blue_courier_link.c **** static ble_status_t bcwl_adv_start(void)
 428:C:/Users/stapi/OneDrive/Desktop/GD32VW553/GD32VW55X_Wifi_BLE_SDK/GD32VW55x_RELEASE_V1.0.2/MSDK/ble/app\app_blue_courier_link.c **** {
 429:C:/Users/stapi/OneDrive/Desktop/GD32VW553/GD32VW55X_Wifi_BLE_SDK/GD32VW55x_RELEASE_V1.0.2/MSDK/ble/app\app_blue_courier_link.c ****     ble_data_t adv_data;
 430:C:/Users/stapi/OneDrive/Desktop/GD32VW553/GD32VW55X_Wifi_BLE_SDK/GD32VW55x_RELEASE_V1.0.2/MSDK/ble/app\app_blue_courier_link.c ****     ble_data_t adv_scanrsp_data;
 431:C:/Users/stapi/OneDrive/Desktop/GD32VW553/GD32VW55X_Wifi_BLE_SDK/GD32VW55x_RELEASE_V1.0.2/MSDK/ble/app\app_blue_courier_link.c ****     ble_adv_data_set_t adv;
 432:C:/Users/stapi/OneDrive/Desktop/GD32VW553/GD32VW55X_Wifi_BLE_SDK/GD32VW55x_RELEASE_V1.0.2/MSDK/ble/app\app_blue_courier_link.c ****     ble_adv_data_set_t scan_rsp;
 433:C:/Users/stapi/OneDrive/Desktop/GD32VW553/GD32VW55X_Wifi_BLE_SDK/GD32VW55x_RELEASE_V1.0.2/MSDK/ble/app\app_blue_courier_link.c ****     uint8_t data[BLE_GAP_LEGACY_ADV_MAX_LEN];
 434:C:/Users/stapi/OneDrive/Desktop/GD32VW553/GD32VW55X_Wifi_BLE_SDK/GD32VW55x_RELEASE_V1.0.2/MSDK/ble/app\app_blue_courier_link.c ****     uint8_t index = 0;
 435:C:/Users/stapi/OneDrive/Desktop/GD32VW553/GD32VW55X_Wifi_BLE_SDK/GD32VW55x_RELEASE_V1.0.2/MSDK/ble/app\app_blue_courier_link.c **** 
 436:C:/Users/stapi/OneDrive/Desktop/GD32VW553/GD32VW55X_Wifi_BLE_SDK/GD32VW55x_RELEASE_V1.0.2/MSDK/ble/app\app_blue_courier_link.c ****     sys_memset(data, 0, BLE_GAP_LEGACY_ADV_MAX_LEN);
 437:C:/Users/stapi/OneDrive/Desktop/GD32VW553/GD32VW55X_Wifi_BLE_SDK/GD32VW55x_RELEASE_V1.0.2/MSDK/ble/app\app_blue_courier_link.c ****     data[index++] = 2;                                       // length
 438:C:/Users/stapi/OneDrive/Desktop/GD32VW553/GD32VW55X_Wifi_BLE_SDK/GD32VW55x_RELEASE_V1.0.2/MSDK/ble/app\app_blue_courier_link.c ****     data[index++] = BLE_AD_TYPE_FLAGS;                       // AD type : flags
 439:C:/Users/stapi/OneDrive/Desktop/GD32VW553/GD32VW55X_Wifi_BLE_SDK/GD32VW55x_RELEASE_V1.0.2/MSDK/ble/app\app_blue_courier_link.c ****     data[index++] = 0x6;                                     // AD value
 440:C:/Users/stapi/OneDrive/Desktop/GD32VW553/GD32VW55X_Wifi_BLE_SDK/GD32VW55x_RELEASE_V1.0.2/MSDK/ble/app\app_blue_courier_link.c ****     data[index++] = 3;                                       // length
 441:C:/Users/stapi/OneDrive/Desktop/GD32VW553/GD32VW55X_Wifi_BLE_SDK/GD32VW55x_RELEASE_V1.0.2/MSDK/ble/app\app_blue_courier_link.c ****     data[index++] = BLE_AD_TYPE_SERVICE_UUID_16_COMPLETE;    // AD type: (Service Data - 16-bit UUI
 442:C:/Users/stapi/OneDrive/Desktop/GD32VW553/GD32VW55X_Wifi_BLE_SDK/GD32VW55x_RELEASE_V1.0.2/MSDK/ble/app\app_blue_courier_link.c ****     data[index++] = (BCW_GATT_SERVICE_UUID & 0xFF);          // AD value
 443:C:/Users/stapi/OneDrive/Desktop/GD32VW553/GD32VW55X_Wifi_BLE_SDK/GD32VW55x_RELEASE_V1.0.2/MSDK/ble/app\app_blue_courier_link.c ****     data[index++] = ((BCW_GATT_SERVICE_UUID >> 8) & 0xFF);   // AD value
 444:C:/Users/stapi/OneDrive/Desktop/GD32VW553/GD32VW55X_Wifi_BLE_SDK/GD32VW55x_RELEASE_V1.0.2/MSDK/ble/app\app_blue_courier_link.c **** 
 445:C:/Users/stapi/OneDrive/Desktop/GD32VW553/GD32VW55X_Wifi_BLE_SDK/GD32VW55x_RELEASE_V1.0.2/MSDK/ble/app\app_blue_courier_link.c ****     adv_data.len = index;
 446:C:/Users/stapi/OneDrive/Desktop/GD32VW553/GD32VW55X_Wifi_BLE_SDK/GD32VW55x_RELEASE_V1.0.2/MSDK/ble/app\app_blue_courier_link.c ****     adv_data.p_data = data;
 447:C:/Users/stapi/OneDrive/Desktop/GD32VW553/GD32VW55X_Wifi_BLE_SDK/GD32VW55x_RELEASE_V1.0.2/MSDK/ble/app\app_blue_courier_link.c ****     adv_scanrsp_data.len = index - 3;
 448:C:/Users/stapi/OneDrive/Desktop/GD32VW553/GD32VW55X_Wifi_BLE_SDK/GD32VW55x_RELEASE_V1.0.2/MSDK/ble/app\app_blue_courier_link.c ****     adv_scanrsp_data.p_data = &data[3]; // not include AD type flags
 449:C:/Users/stapi/OneDrive/Desktop/GD32VW553/GD32VW55X_Wifi_BLE_SDK/GD32VW55x_RELEASE_V1.0.2/MSDK/ble/app\app_blue_courier_link.c ****     adv.data_force = true;
 450:C:/Users/stapi/OneDrive/Desktop/GD32VW553/GD32VW55X_Wifi_BLE_SDK/GD32VW55x_RELEASE_V1.0.2/MSDK/ble/app\app_blue_courier_link.c ****     adv.data.p_data_force = &adv_data;
 451:C:/Users/stapi/OneDrive/Desktop/GD32VW553/GD32VW55X_Wifi_BLE_SDK/GD32VW55x_RELEASE_V1.0.2/MSDK/ble/app\app_blue_courier_link.c ****     scan_rsp.data_force = true;
 452:C:/Users/stapi/OneDrive/Desktop/GD32VW553/GD32VW55X_Wifi_BLE_SDK/GD32VW55x_RELEASE_V1.0.2/MSDK/ble/app\app_blue_courier_link.c ****     scan_rsp.data.p_data_force = &adv_scanrsp_data;
 453:C:/Users/stapi/OneDrive/Desktop/GD32VW553/GD32VW55X_Wifi_BLE_SDK/GD32VW55x_RELEASE_V1.0.2/MSDK/ble/app\app_blue_courier_link.c **** 
 454:C:/Users/stapi/OneDrive/Desktop/GD32VW553/GD32VW55X_Wifi_BLE_SDK/GD32VW55x_RELEASE_V1.0.2/MSDK/ble/app\app_blue_courier_link.c ****     return ble_adv_start(bcwl_env.adv_idx, &adv, &scan_rsp, NULL);
 455:C:/Users/stapi/OneDrive/Desktop/GD32VW553/GD32VW55X_Wifi_BLE_SDK/GD32VW55x_RELEASE_V1.0.2/MSDK/ble/app\app_blue_courier_link.c **** }
 456:C:/Users/stapi/OneDrive/Desktop/GD32VW553/GD32VW55X_Wifi_BLE_SDK/GD32VW55x_RELEASE_V1.0.2/MSDK/ble/app\app_blue_courier_link.c **** 
 457:C:/Users/stapi/OneDrive/Desktop/GD32VW553/GD32VW55X_Wifi_BLE_SDK/GD32VW55x_RELEASE_V1.0.2/MSDK/ble/app\app_blue_courier_link.c **** /*!
 458:C:/Users/stapi/OneDrive/Desktop/GD32VW553/GD32VW55X_Wifi_BLE_SDK/GD32VW55x_RELEASE_V1.0.2/MSDK/ble/app\app_blue_courier_link.c ****     \brief      Callback function to handle BLE advertising events
 459:C:/Users/stapi/OneDrive/Desktop/GD32VW553/GD32VW55X_Wifi_BLE_SDK/GD32VW55x_RELEASE_V1.0.2/MSDK/ble/app\app_blue_courier_link.c ****     \param[in]  adv_evt: BLE advertising event type
 460:C:/Users/stapi/OneDrive/Desktop/GD32VW553/GD32VW55X_Wifi_BLE_SDK/GD32VW55x_RELEASE_V1.0.2/MSDK/ble/app\app_blue_courier_link.c ****     \param[in]  p_data: pointer to BLE advertising event data
 461:C:/Users/stapi/OneDrive/Desktop/GD32VW553/GD32VW55X_Wifi_BLE_SDK/GD32VW55x_RELEASE_V1.0.2/MSDK/ble/app\app_blue_courier_link.c ****     \param[in]  p_context: context used when create advertising
 462:C:/Users/stapi/OneDrive/Desktop/GD32VW553/GD32VW55X_Wifi_BLE_SDK/GD32VW55x_RELEASE_V1.0.2/MSDK/ble/app\app_blue_courier_link.c ****     \param[out] none
 463:C:/Users/stapi/OneDrive/Desktop/GD32VW553/GD32VW55X_Wifi_BLE_SDK/GD32VW55x_RELEASE_V1.0.2/MSDK/ble/app\app_blue_courier_link.c ****     \retval     none
 464:C:/Users/stapi/OneDrive/Desktop/GD32VW553/GD32VW55X_Wifi_BLE_SDK/GD32VW55x_RELEASE_V1.0.2/MSDK/ble/app\app_blue_courier_link.c **** */
 465:C:/Users/stapi/OneDrive/Desktop/GD32VW553/GD32VW55X_Wifi_BLE_SDK/GD32VW55x_RELEASE_V1.0.2/MSDK/ble/app\app_blue_courier_link.c **** static void bcwl_adv_mgr_evt_hdlr(ble_adv_evt_t adv_evt, void *p_data, void *p_context)
 466:C:/Users/stapi/OneDrive/Desktop/GD32VW553/GD32VW55X_Wifi_BLE_SDK/GD32VW55x_RELEASE_V1.0.2/MSDK/ble/app\app_blue_courier_link.c **** {
 105              		.loc 1 466 1 is_stmt 1
 106              		.cfi_startproc
 107              	.LVL6:
 467:C:/Users/stapi/OneDrive/Desktop/GD32VW553/GD32VW55X_Wifi_BLE_SDK/GD32VW55x_RELEASE_V1.0.2/MSDK/ble/app\app_blue_courier_link.c ****     if (adv_evt == BLE_ADV_EVT_STATE_CHG) {
 108              		.loc 1 467 5
 109              		.loc 1 467 8 is_stmt 0
 110 0000 63170510 		bne	a0,zero,.L26
 466:C:/Users/stapi/OneDrive/Desktop/GD32VW553/GD32VW55X_Wifi_BLE_SDK/GD32VW55x_RELEASE_V1.0.2/MSDK/ble/app\app_blue_courier_link.c ****     if (adv_evt == BLE_ADV_EVT_STATE_CHG) {
 111              		.loc 1 466 1
 112 0004 17030000 		call	t0,__riscv_save_3
 112      E7020300 
 113              		.cfi_offset 18, -16
 114              		.cfi_offset 9, -12
 115              		.cfi_offset 8, -8
 116              		.cfi_offset 1, -4
 117              		.cfi_def_cfa_offset 16
 118              	.LBB25:
 119              	.LBB26:
 120              	.LBB27:
 468:C:/Users/stapi/OneDrive/Desktop/GD32VW553/GD32VW55X_Wifi_BLE_SDK/GD32VW55x_RELEASE_V1.0.2/MSDK/ble/app\app_blue_courier_link.c ****         ble_adv_state_chg_t *p_chg = (ble_adv_state_chg_t *)p_data;
 469:C:/Users/stapi/OneDrive/Desktop/GD32VW553/GD32VW55X_Wifi_BLE_SDK/GD32VW55x_RELEASE_V1.0.2/MSDK/ble/app\app_blue_courier_link.c ****         ble_adv_state_t old_state = bcwl_env.adv_state;
 121              		.loc 1 469 25
 122 000c 37040000 		lui	s0,%hi(.LANCHOR0)
 123 0010 93070400 		addi	a5,s0,%lo(.LANCHOR0)
 124 0014 03A98700 		lw	s2,8(a5)
 470:C:/Users/stapi/OneDrive/Desktop/GD32VW553/GD32VW55X_Wifi_BLE_SDK/GD32VW55x_RELEASE_V1.0.2/MSDK/ble/app\app_blue_courier_link.c **** 
 471:C:/Users/stapi/OneDrive/Desktop/GD32VW553/GD32VW55X_Wifi_BLE_SDK/GD32VW55x_RELEASE_V1.0.2/MSDK/ble/app\app_blue_courier_link.c ****         dbg_print(NOTICE, "%s state change 0x%x ==> 0x%x, reason 0x%x\r\n", __func__,
 125              		.loc 1 471 9
 126 0018 B7070000 		lui	a5,%hi(global_debug_level)
 127 001c 03C70700 		lbu	a4,%lo(global_debug_level)(a5)
 128 0020 8947     		li	a5,2
 129              	.LBE27:
 130              	.LBE26:
 131              	.LBE25:
 466:C:/Users/stapi/OneDrive/Desktop/GD32VW553/GD32VW55X_Wifi_BLE_SDK/GD32VW55x_RELEASE_V1.0.2/MSDK/ble/app\app_blue_courier_link.c ****     if (adv_evt == BLE_ADV_EVT_STATE_CHG) {
 132              		.loc 1 466 1
 133 0022 3971     		addi	sp,sp,-64
 134              		.cfi_def_cfa_offset 80
 135 0024 AE84     		mv	s1,a1
 136              	.LVL7:
 137              	.LBB36:
 138              	.LBB34:
 139              	.LBB32:
 468:C:/Users/stapi/OneDrive/Desktop/GD32VW553/GD32VW55X_Wifi_BLE_SDK/GD32VW55x_RELEASE_V1.0.2/MSDK/ble/app\app_blue_courier_link.c ****         ble_adv_state_chg_t *p_chg = (ble_adv_state_chg_t *)p_data;
 140              		.loc 1 468 9 is_stmt 1
 469:C:/Users/stapi/OneDrive/Desktop/GD32VW553/GD32VW55X_Wifi_BLE_SDK/GD32VW55x_RELEASE_V1.0.2/MSDK/ble/app\app_blue_courier_link.c **** 
 141              		.loc 1 469 9
 142              		.loc 1 471 9
 143              		.loc 1 471 9
 144 0026 13040400 		addi	s0,s0,%lo(.LANCHOR0)
 145 002a 63F2E702 		bleu	a4,a5,.L15
 146              		.loc 1 471 9
 147 002e 03D78500 		lhu	a4,8(a1)
 148 0032 D441     		lw	a3,4(a1)
 149 0034 37050000 		lui	a0,%hi(.LC0)
 150              	.LVL8:
 151 0038 B7050000 		lui	a1,%hi(.LANCHOR1)
 152              	.LVL9:
 153 003c 4A86     		mv	a2,s2
 154              	.LVL10:
 155 003e 93850500 		addi	a1,a1,%lo(.LANCHOR1)
 156 0042 13050500 		addi	a0,a0,%lo(.LC0)
 157 0046 97000000 		call	co_printf
 157      E7800000 
 158              	.LVL11:
 159              	.L15:
 160              		.loc 1 471 9
 472:C:/Users/stapi/OneDrive/Desktop/GD32VW553/GD32VW55X_Wifi_BLE_SDK/GD32VW55x_RELEASE_V1.0.2/MSDK/ble/app\app_blue_courier_link.c ****             old_state, p_chg->state, p_chg->reason);
 473:C:/Users/stapi/OneDrive/Desktop/GD32VW553/GD32VW55X_Wifi_BLE_SDK/GD32VW55x_RELEASE_V1.0.2/MSDK/ble/app\app_blue_courier_link.c **** 
 474:C:/Users/stapi/OneDrive/Desktop/GD32VW553/GD32VW55X_Wifi_BLE_SDK/GD32VW55x_RELEASE_V1.0.2/MSDK/ble/app\app_blue_courier_link.c ****         bcwl_env.adv_state = p_chg->state;
 161              		.loc 1 474 9
 162              		.loc 1 474 35 is_stmt 0
 163 004e DC40     		lw	a5,4(s1)
 475:C:/Users/stapi/OneDrive/Desktop/GD32VW553/GD32VW55X_Wifi_BLE_SDK/GD32VW55x_RELEASE_V1.0.2/MSDK/ble/app\app_blue_courier_link.c **** 
 476:C:/Users/stapi/OneDrive/Desktop/GD32VW553/GD32VW55X_Wifi_BLE_SDK/GD32VW55x_RELEASE_V1.0.2/MSDK/ble/app\app_blue_courier_link.c ****         if ((p_chg->state == BLE_ADV_STATE_CREATE) && (old_state == BLE_ADV_STATE_CREATING)) {
 164              		.loc 1 476 12
 165 0050 0947     		li	a4,2
 474:C:/Users/stapi/OneDrive/Desktop/GD32VW553/GD32VW55X_Wifi_BLE_SDK/GD32VW55x_RELEASE_V1.0.2/MSDK/ble/app\app_blue_courier_link.c **** 
 166              		.loc 1 474 28
 167 0052 1CC4     		sw	a5,8(s0)
 168              		.loc 1 476 9 is_stmt 1
 169              		.loc 1 476 12 is_stmt 0
 170 0054 639BE708 		bne	a5,a4,.L16
 171              		.loc 1 476 52
 172 0058 0547     		li	a4,1
 173 005a 6319E906 		bne	s2,a4,.L17
 477:C:/Users/stapi/OneDrive/Desktop/GD32VW553/GD32VW55X_Wifi_BLE_SDK/GD32VW55x_RELEASE_V1.0.2/MSDK/ble/app\app_blue_courier_link.c ****             bcwl_env.adv_idx = p_chg->adv_idx;
 174              		.loc 1 477 13 is_stmt 1
 175              		.loc 1 477 30 is_stmt 0
 176 005e 83C70400 		lbu	a5,0(s1)
 177              	.LBB28:
 178              	.LBB29:
 436:C:/Users/stapi/OneDrive/Desktop/GD32VW553/GD32VW55X_Wifi_BLE_SDK/GD32VW55x_RELEASE_V1.0.2/MSDK/ble/app\app_blue_courier_link.c ****     data[index++] = 2;                                       // length
 179              		.loc 1 436 5
 180 0062 0410     		addi	s1,sp,32
 181              	.LVL12:
 182 0064 7D46     		li	a2,31
 183 0066 8145     		li	a1,0
 184 0068 2685     		mv	a0,s1
 185              	.LBE29:
 186              	.LBE28:
 187              		.loc 1 477 30
 188 006a 2301F400 		sb	a5,2(s0)
 478:C:/Users/stapi/OneDrive/Desktop/GD32VW553/GD32VW55X_Wifi_BLE_SDK/GD32VW55x_RELEASE_V1.0.2/MSDK/ble/app\app_blue_courier_link.c ****             bcwl_adv_start();
 189              		.loc 1 478 13 is_stmt 1
 190              	.LBB31:
 191              	.LBB30:
 429:C:/Users/stapi/OneDrive/Desktop/GD32VW553/GD32VW55X_Wifi_BLE_SDK/GD32VW55x_RELEASE_V1.0.2/MSDK/ble/app\app_blue_courier_link.c ****     ble_data_t adv_scanrsp_data;
 192              		.loc 1 429 5
 430:C:/Users/stapi/OneDrive/Desktop/GD32VW553/GD32VW55X_Wifi_BLE_SDK/GD32VW55x_RELEASE_V1.0.2/MSDK/ble/app\app_blue_courier_link.c ****     ble_adv_data_set_t adv;
 193              		.loc 1 430 5
 431:C:/Users/stapi/OneDrive/Desktop/GD32VW553/GD32VW55X_Wifi_BLE_SDK/GD32VW55x_RELEASE_V1.0.2/MSDK/ble/app\app_blue_courier_link.c ****     ble_adv_data_set_t scan_rsp;
 194              		.loc 1 431 5
 432:C:/Users/stapi/OneDrive/Desktop/GD32VW553/GD32VW55X_Wifi_BLE_SDK/GD32VW55x_RELEASE_V1.0.2/MSDK/ble/app\app_blue_courier_link.c ****     uint8_t data[BLE_GAP_LEGACY_ADV_MAX_LEN];
 195              		.loc 1 432 5
 433:C:/Users/stapi/OneDrive/Desktop/GD32VW553/GD32VW55X_Wifi_BLE_SDK/GD32VW55x_RELEASE_V1.0.2/MSDK/ble/app\app_blue_courier_link.c ****     uint8_t index = 0;
 196              		.loc 1 433 5
 434:C:/Users/stapi/OneDrive/Desktop/GD32VW553/GD32VW55X_Wifi_BLE_SDK/GD32VW55x_RELEASE_V1.0.2/MSDK/ble/app\app_blue_courier_link.c **** 
 197              		.loc 1 434 5
 198              	.LVL13:
 436:C:/Users/stapi/OneDrive/Desktop/GD32VW553/GD32VW55X_Wifi_BLE_SDK/GD32VW55x_RELEASE_V1.0.2/MSDK/ble/app\app_blue_courier_link.c ****     data[index++] = 2;                                       // length
 199              		.loc 1 436 5
 200 006e 97000000 		call	sys_memset
 200      E7800000 
 201              	.LVL14:
 437:C:/Users/stapi/OneDrive/Desktop/GD32VW553/GD32VW55X_Wifi_BLE_SDK/GD32VW55x_RELEASE_V1.0.2/MSDK/ble/app\app_blue_courier_link.c ****     data[index++] = BLE_AD_TYPE_FLAGS;                       // AD type : flags
 202              		.loc 1 437 5
 438:C:/Users/stapi/OneDrive/Desktop/GD32VW553/GD32VW55X_Wifi_BLE_SDK/GD32VW55x_RELEASE_V1.0.2/MSDK/ble/app\app_blue_courier_link.c ****     data[index++] = 0x6;                                     // AD value
 203              		.loc 1 438 5
 439:C:/Users/stapi/OneDrive/Desktop/GD32VW553/GD32VW55X_Wifi_BLE_SDK/GD32VW55x_RELEASE_V1.0.2/MSDK/ble/app\app_blue_courier_link.c ****     data[index++] = 3;                                       // length
 204              		.loc 1 439 5
 440:C:/Users/stapi/OneDrive/Desktop/GD32VW553/GD32VW55X_Wifi_BLE_SDK/GD32VW55x_RELEASE_V1.0.2/MSDK/ble/app\app_blue_courier_link.c ****     data[index++] = BLE_AD_TYPE_SERVICE_UUID_16_COMPLETE;    // AD type: (Service Data - 16-bit UUI
 205              		.loc 1 440 5
 441:C:/Users/stapi/OneDrive/Desktop/GD32VW553/GD32VW55X_Wifi_BLE_SDK/GD32VW55x_RELEASE_V1.0.2/MSDK/ble/app\app_blue_courier_link.c ****     data[index++] = (BCW_GATT_SERVICE_UUID & 0xFF);          // AD value
 206              		.loc 1 441 5
 442:C:/Users/stapi/OneDrive/Desktop/GD32VW553/GD32VW55X_Wifi_BLE_SDK/GD32VW55x_RELEASE_V1.0.2/MSDK/ble/app\app_blue_courier_link.c ****     data[index++] = ((BCW_GATT_SERVICE_UUID >> 8) & 0xFF);   // AD value
 207              		.loc 1 442 5
 443:C:/Users/stapi/OneDrive/Desktop/GD32VW553/GD32VW55X_Wifi_BLE_SDK/GD32VW55x_RELEASE_V1.0.2/MSDK/ble/app\app_blue_courier_link.c **** 
 208              		.loc 1 443 5
 437:C:/Users/stapi/OneDrive/Desktop/GD32VW553/GD32VW55X_Wifi_BLE_SDK/GD32VW55x_RELEASE_V1.0.2/MSDK/ble/app\app_blue_courier_link.c ****     data[index++] = BLE_AD_TYPE_FLAGS;                       // AD type : flags
 209              		.loc 1 437 19 is_stmt 0
 210 0076 B7070603 		li	a5,50724864
 211 007a 93872710 		addi	a5,a5,258
 212 007e 3ED0     		sw	a5,32(sp)
 441:C:/Users/stapi/OneDrive/Desktop/GD32VW553/GD32VW55X_Wifi_BLE_SDK/GD32VW55x_RELEASE_V1.0.2/MSDK/ble/app\app_blue_courier_link.c ****     data[index++] = (BCW_GATT_SERVICE_UUID & 0xFF);          // AD value
 213              		.loc 1 441 19
 214 0080 FD77     		li	a5,-4096
 215 0082 8D07     		addi	a5,a5,3
 216 0084 2312F102 		sh	a5,36(sp)
 443:C:/Users/stapi/OneDrive/Desktop/GD32VW553/GD32VW55X_Wifi_BLE_SDK/GD32VW55x_RELEASE_V1.0.2/MSDK/ble/app\app_blue_courier_link.c **** 
 217              		.loc 1 443 19
 218 0088 FD57     		li	a5,-1
 219 008a 2303F102 		sb	a5,38(sp)
 445:C:/Users/stapi/OneDrive/Desktop/GD32VW553/GD32VW55X_Wifi_BLE_SDK/GD32VW55x_RELEASE_V1.0.2/MSDK/ble/app\app_blue_courier_link.c ****     adv_data.p_data = data;
 220              		.loc 1 445 5 is_stmt 1
 445:C:/Users/stapi/OneDrive/Desktop/GD32VW553/GD32VW55X_Wifi_BLE_SDK/GD32VW55x_RELEASE_V1.0.2/MSDK/ble/app\app_blue_courier_link.c ****     adv_data.p_data = data;
 221              		.loc 1 445 18 is_stmt 0
 222 008e 9D47     		li	a5,7
 223 0090 2312F100 		sh	a5,4(sp)
 446:C:/Users/stapi/OneDrive/Desktop/GD32VW553/GD32VW55X_Wifi_BLE_SDK/GD32VW55x_RELEASE_V1.0.2/MSDK/ble/app\app_blue_courier_link.c ****     adv_scanrsp_data.len = index - 3;
 224              		.loc 1 446 5 is_stmt 1
 454:C:/Users/stapi/OneDrive/Desktop/GD32VW553/GD32VW55X_Wifi_BLE_SDK/GD32VW55x_RELEASE_V1.0.2/MSDK/ble/app\app_blue_courier_link.c **** }
 225              		.loc 1 454 12 is_stmt 0
 226 0094 03452400 		lbu	a0,2(s0)
 447:C:/Users/stapi/OneDrive/Desktop/GD32VW553/GD32VW55X_Wifi_BLE_SDK/GD32VW55x_RELEASE_V1.0.2/MSDK/ble/app\app_blue_courier_link.c ****     adv_scanrsp_data.p_data = &data[3]; // not include AD type flags
 227              		.loc 1 447 26
 228 0098 9147     		li	a5,4
 229 009a 2316F100 		sh	a5,12(sp)
 448:C:/Users/stapi/OneDrive/Desktop/GD32VW553/GD32VW55X_Wifi_BLE_SDK/GD32VW55x_RELEASE_V1.0.2/MSDK/ble/app\app_blue_courier_link.c ****     adv.data_force = true;
 230              		.loc 1 448 29
 231 009e 93073102 		addi	a5,sp,35
 232 00a2 3EC4     		sw	a5,8(sp)
 454:C:/Users/stapi/OneDrive/Desktop/GD32VW553/GD32VW55X_Wifi_BLE_SDK/GD32VW55x_RELEASE_V1.0.2/MSDK/ble/app\app_blue_courier_link.c **** }
 233              		.loc 1 454 12
 234 00a4 8146     		li	a3,0
 452:C:/Users/stapi/OneDrive/Desktop/GD32VW553/GD32VW55X_Wifi_BLE_SDK/GD32VW55x_RELEASE_V1.0.2/MSDK/ble/app\app_blue_courier_link.c **** 
 235              		.loc 1 452 32
 236 00a6 3C00     		addi	a5,sp,8
 454:C:/Users/stapi/OneDrive/Desktop/GD32VW553/GD32VW55X_Wifi_BLE_SDK/GD32VW55x_RELEASE_V1.0.2/MSDK/ble/app\app_blue_courier_link.c **** }
 237              		.loc 1 454 12
 238 00a8 3008     		addi	a2,sp,24
 239 00aa 0C08     		addi	a1,sp,16
 446:C:/Users/stapi/OneDrive/Desktop/GD32VW553/GD32VW55X_Wifi_BLE_SDK/GD32VW55x_RELEASE_V1.0.2/MSDK/ble/app\app_blue_courier_link.c ****     adv_scanrsp_data.len = index - 3;
 240              		.loc 1 446 21
 241 00ac 26C0     		sw	s1,0(sp)
 447:C:/Users/stapi/OneDrive/Desktop/GD32VW553/GD32VW55X_Wifi_BLE_SDK/GD32VW55x_RELEASE_V1.0.2/MSDK/ble/app\app_blue_courier_link.c ****     adv_scanrsp_data.p_data = &data[3]; // not include AD type flags
 242              		.loc 1 447 5 is_stmt 1
 448:C:/Users/stapi/OneDrive/Desktop/GD32VW553/GD32VW55X_Wifi_BLE_SDK/GD32VW55x_RELEASE_V1.0.2/MSDK/ble/app\app_blue_courier_link.c ****     adv.data_force = true;
 243              		.loc 1 448 5
 449:C:/Users/stapi/OneDrive/Desktop/GD32VW553/GD32VW55X_Wifi_BLE_SDK/GD32VW55x_RELEASE_V1.0.2/MSDK/ble/app\app_blue_courier_link.c ****     adv.data.p_data_force = &adv_data;
 244              		.loc 1 449 5
 449:C:/Users/stapi/OneDrive/Desktop/GD32VW553/GD32VW55X_Wifi_BLE_SDK/GD32VW55x_RELEASE_V1.0.2/MSDK/ble/app\app_blue_courier_link.c ****     adv.data.p_data_force = &adv_data;
 245              		.loc 1 449 20 is_stmt 0
 246 00ae 23082101 		sb	s2,16(sp)
 450:C:/Users/stapi/OneDrive/Desktop/GD32VW553/GD32VW55X_Wifi_BLE_SDK/GD32VW55x_RELEASE_V1.0.2/MSDK/ble/app\app_blue_courier_link.c ****     scan_rsp.data_force = true;
 247              		.loc 1 450 5 is_stmt 1
 450:C:/Users/stapi/OneDrive/Desktop/GD32VW553/GD32VW55X_Wifi_BLE_SDK/GD32VW55x_RELEASE_V1.0.2/MSDK/ble/app\app_blue_courier_link.c ****     scan_rsp.data_force = true;
 248              		.loc 1 450 27 is_stmt 0
 249 00b2 0ACA     		sw	sp,20(sp)
 451:C:/Users/stapi/OneDrive/Desktop/GD32VW553/GD32VW55X_Wifi_BLE_SDK/GD32VW55x_RELEASE_V1.0.2/MSDK/ble/app\app_blue_courier_link.c ****     scan_rsp.data.p_data_force = &adv_scanrsp_data;
 250              		.loc 1 451 5 is_stmt 1
 451:C:/Users/stapi/OneDrive/Desktop/GD32VW553/GD32VW55X_Wifi_BLE_SDK/GD32VW55x_RELEASE_V1.0.2/MSDK/ble/app\app_blue_courier_link.c ****     scan_rsp.data.p_data_force = &adv_scanrsp_data;
 251              		.loc 1 451 25 is_stmt 0
 252 00b4 230C2101 		sb	s2,24(sp)
 452:C:/Users/stapi/OneDrive/Desktop/GD32VW553/GD32VW55X_Wifi_BLE_SDK/GD32VW55x_RELEASE_V1.0.2/MSDK/ble/app\app_blue_courier_link.c **** 
 253              		.loc 1 452 5 is_stmt 1
 452:C:/Users/stapi/OneDrive/Desktop/GD32VW553/GD32VW55X_Wifi_BLE_SDK/GD32VW55x_RELEASE_V1.0.2/MSDK/ble/app\app_blue_courier_link.c **** 
 254              		.loc 1 452 32 is_stmt 0
 255 00b8 3ECE     		sw	a5,28(sp)
 454:C:/Users/stapi/OneDrive/Desktop/GD32VW553/GD32VW55X_Wifi_BLE_SDK/GD32VW55x_RELEASE_V1.0.2/MSDK/ble/app\app_blue_courier_link.c **** }
 256              		.loc 1 454 5 is_stmt 1
 454:C:/Users/stapi/OneDrive/Desktop/GD32VW553/GD32VW55X_Wifi_BLE_SDK/GD32VW55x_RELEASE_V1.0.2/MSDK/ble/app\app_blue_courier_link.c **** }
 257              		.loc 1 454 12 is_stmt 0
 258 00ba 97000000 		call	ble_adv_start
 258      E7800000 
 259              	.LVL15:
 260              	.L12:
 261              	.LBE30:
 262              	.LBE31:
 263              	.LBE32:
 264              	.LBE34:
 265              	.LBE36:
 479:C:/Users/stapi/OneDrive/Desktop/GD32VW553/GD32VW55X_Wifi_BLE_SDK/GD32VW55x_RELEASE_V1.0.2/MSDK/ble/app\app_blue_courier_link.c ****         } else if ((p_chg->state == BLE_ADV_STATE_CREATE) && (old_state == BLE_ADV_STATE_START)) {
 480:C:/Users/stapi/OneDrive/Desktop/GD32VW553/GD32VW55X_Wifi_BLE_SDK/GD32VW55x_RELEASE_V1.0.2/MSDK/ble/app\app_blue_courier_link.c ****             if (bcwl_env.remove_after_stop) {
 481:C:/Users/stapi/OneDrive/Desktop/GD32VW553/GD32VW55X_Wifi_BLE_SDK/GD32VW55x_RELEASE_V1.0.2/MSDK/ble/app\app_blue_courier_link.c ****                 ble_adv_remove(bcwl_env.adv_idx);
 482:C:/Users/stapi/OneDrive/Desktop/GD32VW553/GD32VW55X_Wifi_BLE_SDK/GD32VW55x_RELEASE_V1.0.2/MSDK/ble/app\app_blue_courier_link.c ****                 bcwl_env.remove_after_stop = false;
 483:C:/Users/stapi/OneDrive/Desktop/GD32VW553/GD32VW55X_Wifi_BLE_SDK/GD32VW55x_RELEASE_V1.0.2/MSDK/ble/app\app_blue_courier_link.c ****             }
 484:C:/Users/stapi/OneDrive/Desktop/GD32VW553/GD32VW55X_Wifi_BLE_SDK/GD32VW55x_RELEASE_V1.0.2/MSDK/ble/app\app_blue_courier_link.c ****         } else if ((p_chg->reason != BLE_ERR_NO_ERROR) &&  (p_chg->state == BLE_ADV_STATE_IDLE) &&
 485:C:/Users/stapi/OneDrive/Desktop/GD32VW553/GD32VW55X_Wifi_BLE_SDK/GD32VW55x_RELEASE_V1.0.2/MSDK/ble/app\app_blue_courier_link.c ****                    (old_state == BLE_ADV_STATE_CREATING)) {
 486:C:/Users/stapi/OneDrive/Desktop/GD32VW553/GD32VW55X_Wifi_BLE_SDK/GD32VW55x_RELEASE_V1.0.2/MSDK/ble/app\app_blue_courier_link.c ****             ble_conn_callback_unregister(bcwl_conn_evt_handler);
 487:C:/Users/stapi/OneDrive/Desktop/GD32VW553/GD32VW55X_Wifi_BLE_SDK/GD32VW55x_RELEASE_V1.0.2/MSDK/ble/app\app_blue_courier_link.c ****             bcwl_env.mode = 0;
 488:C:/Users/stapi/OneDrive/Desktop/GD32VW553/GD32VW55X_Wifi_BLE_SDK/GD32VW55x_RELEASE_V1.0.2/MSDK/ble/app\app_blue_courier_link.c ****         }
 489:C:/Users/stapi/OneDrive/Desktop/GD32VW553/GD32VW55X_Wifi_BLE_SDK/GD32VW55x_RELEASE_V1.0.2/MSDK/ble/app\app_blue_courier_link.c ****     }
 490:C:/Users/stapi/OneDrive/Desktop/GD32VW553/GD32VW55X_Wifi_BLE_SDK/GD32VW55x_RELEASE_V1.0.2/MSDK/ble/app\app_blue_courier_link.c **** }
 266              		.loc 1 490 1
 267 00c2 2161     		addi	sp,sp,64
 268              		.cfi_remember_state
 269              		.cfi_def_cfa_offset 0
 270 00c4 17030000 		tail	__riscv_restore_3
 270      67000300 
 271              		.cfi_restore 18
 272              		.cfi_restore 9
 273              		.cfi_restore 8
 274              		.cfi_restore 1
 275              		.cfi_def_cfa_offset -16
 276              	.LVL16:
 277              	.L17:
 278              		.cfi_restore_state
 279              	.LBB37:
 280              	.LBB35:
 281              	.LBB33:
 479:C:/Users/stapi/OneDrive/Desktop/GD32VW553/GD32VW55X_Wifi_BLE_SDK/GD32VW55x_RELEASE_V1.0.2/MSDK/ble/app\app_blue_courier_link.c ****         } else if ((p_chg->state == BLE_ADV_STATE_CREATE) && (old_state == BLE_ADV_STATE_START)) {
 282              		.loc 1 479 16 is_stmt 1
 479:C:/Users/stapi/OneDrive/Desktop/GD32VW553/GD32VW55X_Wifi_BLE_SDK/GD32VW55x_RELEASE_V1.0.2/MSDK/ble/app\app_blue_courier_link.c ****         } else if ((p_chg->state == BLE_ADV_STATE_CREATE) && (old_state == BLE_ADV_STATE_START)) {
 283              		.loc 1 479 59 is_stmt 0
 284 00cc 1947     		li	a4,6
 285 00ce 631EE900 		bne	s2,a4,.L16
 480:C:/Users/stapi/OneDrive/Desktop/GD32VW553/GD32VW55X_Wifi_BLE_SDK/GD32VW55x_RELEASE_V1.0.2/MSDK/ble/app\app_blue_courier_link.c ****                 ble_adv_remove(bcwl_env.adv_idx);
 286              		.loc 1 480 13 is_stmt 1
 480:C:/Users/stapi/OneDrive/Desktop/GD32VW553/GD32VW55X_Wifi_BLE_SDK/GD32VW55x_RELEASE_V1.0.2/MSDK/ble/app\app_blue_courier_link.c ****                 ble_adv_remove(bcwl_env.adv_idx);
 287              		.loc 1 480 16 is_stmt 0
 288 00d2 83473400 		lbu	a5,3(s0)
 289 00d6 F5D7     		beq	a5,zero,.L12
 481:C:/Users/stapi/OneDrive/Desktop/GD32VW553/GD32VW55X_Wifi_BLE_SDK/GD32VW55x_RELEASE_V1.0.2/MSDK/ble/app\app_blue_courier_link.c ****                 bcwl_env.remove_after_stop = false;
 290              		.loc 1 481 17 is_stmt 1
 291 00d8 03452400 		lbu	a0,2(s0)
 292 00dc 97000000 		call	ble_adv_remove
 292      E7800000 
 293              	.LVL17:
 482:C:/Users/stapi/OneDrive/Desktop/GD32VW553/GD32VW55X_Wifi_BLE_SDK/GD32VW55x_RELEASE_V1.0.2/MSDK/ble/app\app_blue_courier_link.c ****             }
 294              		.loc 1 482 17
 482:C:/Users/stapi/OneDrive/Desktop/GD32VW553/GD32VW55X_Wifi_BLE_SDK/GD32VW55x_RELEASE_V1.0.2/MSDK/ble/app\app_blue_courier_link.c ****             }
 295              		.loc 1 482 44 is_stmt 0
 296 00e4 A3010400 		sb	zero,3(s0)
 297 00e8 E9BF     		j	.L12
 298              	.L16:
 484:C:/Users/stapi/OneDrive/Desktop/GD32VW553/GD32VW55X_Wifi_BLE_SDK/GD32VW55x_RELEASE_V1.0.2/MSDK/ble/app\app_blue_courier_link.c ****                    (old_state == BLE_ADV_STATE_CREATING)) {
 299              		.loc 1 484 16 is_stmt 1
 484:C:/Users/stapi/OneDrive/Desktop/GD32VW553/GD32VW55X_Wifi_BLE_SDK/GD32VW55x_RELEASE_V1.0.2/MSDK/ble/app\app_blue_courier_link.c ****                    (old_state == BLE_ADV_STATE_CREATING)) {
 300              		.loc 1 484 19 is_stmt 0
 301 00ea 03D78400 		lhu	a4,8(s1)
 302 00ee 71DB     		beq	a4,zero,.L12
 484:C:/Users/stapi/OneDrive/Desktop/GD32VW553/GD32VW55X_Wifi_BLE_SDK/GD32VW55x_RELEASE_V1.0.2/MSDK/ble/app\app_blue_courier_link.c ****                    (old_state == BLE_ADV_STATE_CREATING)) {
 303              		.loc 1 484 56
 304 00f0 E9FB     		bne	a5,zero,.L12
 484:C:/Users/stapi/OneDrive/Desktop/GD32VW553/GD32VW55X_Wifi_BLE_SDK/GD32VW55x_RELEASE_V1.0.2/MSDK/ble/app\app_blue_courier_link.c ****                    (old_state == BLE_ADV_STATE_CREATING)) {
 305              		.loc 1 484 97
 306 00f2 8547     		li	a5,1
 307 00f4 E317F9FC 		bne	s2,a5,.L12
 486:C:/Users/stapi/OneDrive/Desktop/GD32VW553/GD32VW55X_Wifi_BLE_SDK/GD32VW55x_RELEASE_V1.0.2/MSDK/ble/app\app_blue_courier_link.c ****             bcwl_env.mode = 0;
 308              		.loc 1 486 13 is_stmt 1
 309 00f8 37050000 		lui	a0,%hi(bcwl_conn_evt_handler)
 310 00fc 13050500 		addi	a0,a0,%lo(bcwl_conn_evt_handler)
 311 0100 97000000 		call	ble_conn_callback_unregister
 311      E7800000 
 312              	.LVL18:
 487:C:/Users/stapi/OneDrive/Desktop/GD32VW553/GD32VW55X_Wifi_BLE_SDK/GD32VW55x_RELEASE_V1.0.2/MSDK/ble/app\app_blue_courier_link.c ****         }
 313              		.loc 1 487 13
 487:C:/Users/stapi/OneDrive/Desktop/GD32VW553/GD32VW55X_Wifi_BLE_SDK/GD32VW55x_RELEASE_V1.0.2/MSDK/ble/app\app_blue_courier_link.c ****         }
 314              		.loc 1 487 27 is_stmt 0
 315 0108 23000400 		sb	zero,0(s0)
 316              	.LVL19:
 317              	.LBE33:
 318              	.LBE35:
 319              	.LBE37:
 320              		.loc 1 490 1
 321 010c 5DBF     		j	.L12
 322              	.LVL20:
 323              	.L26:
 324              		.cfi_def_cfa_offset 0
 325              		.cfi_restore 1
 326              		.cfi_restore 8
 327              		.cfi_restore 9
 328              		.cfi_restore 18
 329 010e 8280     		ret
 330              		.cfi_endproc
 331              	.LFE24:
 333              		.section	.rodata.bcwl_send.str1.4,"aMS",@progbits,1
 334              		.align	2
 335              	.LC1:
 336 0000 25732073 		.string	"%s send len exceed the maximum, %d\n"
 336      656E6420 
 336      6C656E20 
 336      65786365 
 336      65642074 
 337              		.align	2
 338              	.LC2:
 339 0024 2573206E 		.string	"%s no mem\n"
 339      6F206D65 
 339      6D0A00
 340 002f 00       		.align	2
 341              	.LC3:
 342 0030 25732066 		.string	"%s fail\r\n"
 342      61696C0D 
 342      0A00
 343              		.section	.text.bcwl_send,"ax",@progbits
 344              		.align	1
 345              		.globl	bcwl_send
 347              	bcwl_send:
 348              	.LFB19:
 181:C:/Users/stapi/OneDrive/Desktop/GD32VW553/GD32VW55X_Wifi_BLE_SDK/GD32VW55x_RELEASE_V1.0.2/MSDK/ble/app\app_blue_courier_link.c ****     uint16_t crc;
 349              		.loc 1 181 1 is_stmt 1
 350              		.cfi_startproc
 351              	.LVL21:
 352 0000 17030000 		call	t0,__riscv_save_12
 352      E7020300 
 353              		.cfi_offset 27, -52
 354              		.cfi_offset 26, -48
 355              		.cfi_offset 25, -44
 356              		.cfi_offset 24, -40
 357              		.cfi_offset 23, -36
 358              		.cfi_offset 22, -32
 359              		.cfi_offset 21, -28
 360              		.cfi_offset 20, -24
 361              		.cfi_offset 19, -20
 362              		.cfi_offset 18, -16
 363              		.cfi_offset 9, -12
 364              		.cfi_offset 8, -8
 365              		.cfi_offset 1, -4
 366              		.cfi_def_cfa_offset 64
 182:C:/Users/stapi/OneDrive/Desktop/GD32VW553/GD32VW55X_Wifi_BLE_SDK/GD32VW55x_RELEASE_V1.0.2/MSDK/ble/app\app_blue_courier_link.c ****     bcwl_header_t *hdr = NULL;
 367              		.loc 1 182 5
 183:C:/Users/stapi/OneDrive/Desktop/GD32VW553/GD32VW55X_Wifi_BLE_SDK/GD32VW55x_RELEASE_V1.0.2/MSDK/ble/app\app_blue_courier_link.c ****     uint16_t remain_len = len;
 368              		.loc 1 183 5
 369              	.LVL22:
 184:C:/Users/stapi/OneDrive/Desktop/GD32VW553/GD32VW55X_Wifi_BLE_SDK/GD32VW55x_RELEASE_V1.0.2/MSDK/ble/app\app_blue_courier_link.c **** 
 370              		.loc 1 184 5
 186:C:/Users/stapi/OneDrive/Desktop/GD32VW553/GD32VW55X_Wifi_BLE_SDK/GD32VW55x_RELEASE_V1.0.2/MSDK/ble/app\app_blue_courier_link.c ****         dbg_print(ERR, "%s send len exceed the maximum, %d\n", __func__, len);
 371              		.loc 1 186 5
 186:C:/Users/stapi/OneDrive/Desktop/GD32VW553/GD32VW55X_Wifi_BLE_SDK/GD32VW55x_RELEASE_V1.0.2/MSDK/ble/app\app_blue_courier_link.c ****         dbg_print(ERR, "%s send len exceed the maximum, %d\n", __func__, len);
 372              		.loc 1 186 23 is_stmt 0
 373 0008 B7090000 		lui	s3,%hi(.LANCHOR0)
 374 000c 93870900 		addi	a5,s3,%lo(.LANCHOR0)
 186:C:/Users/stapi/OneDrive/Desktop/GD32VW553/GD32VW55X_Wifi_BLE_SDK/GD32VW55x_RELEASE_V1.0.2/MSDK/ble/app\app_blue_courier_link.c ****         dbg_print(ERR, "%s send len exceed the maximum, %d\n", __func__, len);
 375              		.loc 1 186 8
 376 0010 83D7A701 		lhu	a5,26(a5)
 377 0014 63E9C706 		bltu	a5,a2,.L52
 378 0018 130B2600 		addi	s6,a2,2
 379 001c AA8A     		mv	s5,a0
 380 001e 2E8A     		mv	s4,a1
 381 0020 3289     		mv	s2,a2
 382 0022 93890900 		addi	s3,s3,%lo(.LANCHOR0)
 383 0026 B284     		mv	s1,a2
 384              	.LBB42:
 385              	.LBB43:
 206:C:/Users/stapi/OneDrive/Desktop/GD32VW553/GD32VW55X_Wifi_BLE_SDK/GD32VW55x_RELEASE_V1.0.2/MSDK/ble/app\app_blue_courier_link.c ****                 sys_memcpy(hdr->data + 2, &data[len - remain_len], hdr->data_len - 2); //copy first
 386              		.loc 1 206 30
 387 0028 935B8600 		srli	s7,a2,8
 388              	.LBB44:
 389              	.LBB45:
 169:C:/Users/stapi/OneDrive/Desktop/GD32VW553/GD32VW55X_Wifi_BLE_SDK/GD32VW55x_RELEASE_V1.0.2/MSDK/ble/app\app_blue_courier_link.c **** }
 390              		.loc 1 169 5
 391 002c 370C0000 		lui	s8,%hi(.LANCHOR4)
 165:C:/Users/stapi/OneDrive/Desktop/GD32VW553/GD32VW55X_Wifi_BLE_SDK/GD32VW55x_RELEASE_V1.0.2/MSDK/ble/app\app_blue_courier_link.c ****         return;
 392              		.loc 1 165 9
 393 0030 B70C0000 		lui	s9,%hi(global_debug_level)
 394 0034 370D0000 		lui	s10,%hi(.LANCHOR3)
 395 0038 B70D0000 		lui	s11,%hi(.LC3)
 396 003c 334B0B08 		zext.h	s6,s6
 397              	.LVL23:
 398              	.L30:
 399              	.LBE45:
 400              	.LBE44:
 191:C:/Users/stapi/OneDrive/Desktop/GD32VW553/GD32VW55X_Wifi_BLE_SDK/GD32VW55x_RELEASE_V1.0.2/MSDK/ble/app\app_blue_courier_link.c ****         if (remain_len > bcwl_env.frag_size) {
 401              		.loc 1 191 11 is_stmt 1
 402 0040 A5C4     		beq	s1,zero,.L29
 192:C:/Users/stapi/OneDrive/Desktop/GD32VW553/GD32VW55X_Wifi_BLE_SDK/GD32VW55x_RELEASE_V1.0.2/MSDK/ble/app\app_blue_courier_link.c ****             hdr = sys_malloc(sizeof(bcwl_header_t) + bcwl_env.frag_size + 2);
 403              		.loc 1 192 9
 192:C:/Users/stapi/OneDrive/Desktop/GD32VW553/GD32VW55X_Wifi_BLE_SDK/GD32VW55x_RELEASE_V1.0.2/MSDK/ble/app\app_blue_courier_link.c ****             hdr = sys_malloc(sizeof(bcwl_header_t) + bcwl_env.frag_size + 2);
 404              		.loc 1 192 34 is_stmt 0
 405 0042 03C58901 		lbu	a0,24(s3)
 192:C:/Users/stapi/OneDrive/Desktop/GD32VW553/GD32VW55X_Wifi_BLE_SDK/GD32VW55x_RELEASE_V1.0.2/MSDK/ble/app\app_blue_courier_link.c ****             hdr = sys_malloc(sizeof(bcwl_header_t) + bcwl_env.frag_size + 2);
 406              		.loc 1 192 12
 407 0046 63749510 		bgeu	a0,s1,.L33
 193:C:/Users/stapi/OneDrive/Desktop/GD32VW553/GD32VW55X_Wifi_BLE_SDK/GD32VW55x_RELEASE_V1.0.2/MSDK/ble/app\app_blue_courier_link.c ****             if (hdr == NULL) {
 408              		.loc 1 193 13 is_stmt 1
 193:C:/Users/stapi/OneDrive/Desktop/GD32VW553/GD32VW55X_Wifi_BLE_SDK/GD32VW55x_RELEASE_V1.0.2/MSDK/ble/app\app_blue_courier_link.c ****             if (hdr == NULL) {
 409              		.loc 1 193 19 is_stmt 0
 410 004a 1905     		addi	a0,a0,6
 411 004c 97000000 		call	sys_malloc
 411      E7800000 
 412              	.LVL24:
 413 0054 2A84     		mv	s0,a0
 414              	.LVL25:
 194:C:/Users/stapi/OneDrive/Desktop/GD32VW553/GD32VW55X_Wifi_BLE_SDK/GD32VW55x_RELEASE_V1.0.2/MSDK/ble/app\app_blue_courier_link.c ****                 dbg_print(ERR, "%s no mem\n", __func__);
 415              		.loc 1 194 13 is_stmt 1
 194:C:/Users/stapi/OneDrive/Desktop/GD32VW553/GD32VW55X_Wifi_BLE_SDK/GD32VW55x_RELEASE_V1.0.2/MSDK/ble/app\app_blue_courier_link.c ****                 dbg_print(ERR, "%s no mem\n", __func__);
 416              		.loc 1 194 16 is_stmt 0
 417 0056 29ED     		bne	a0,zero,.L34
 418              	.L55:
 195:C:/Users/stapi/OneDrive/Desktop/GD32VW553/GD32VW55X_Wifi_BLE_SDK/GD32VW55x_RELEASE_V1.0.2/MSDK/ble/app\app_blue_courier_link.c ****                 bcwl_error_report(BCWL_ERR_SEND_NO_MEM);
 419              		.loc 1 195 17 is_stmt 1
 195:C:/Users/stapi/OneDrive/Desktop/GD32VW553/GD32VW55X_Wifi_BLE_SDK/GD32VW55x_RELEASE_V1.0.2/MSDK/ble/app\app_blue_courier_link.c ****                 bcwl_error_report(BCWL_ERR_SEND_NO_MEM);
 420              		.loc 1 195 17
 421 0058 B7070000 		lui	a5,%hi(global_debug_level)
 422 005c 83C70700 		lbu	a5,%lo(global_debug_level)(a5)
 423 0060 89CF     		beq	a5,zero,.L36
 195:C:/Users/stapi/OneDrive/Desktop/GD32VW553/GD32VW55X_Wifi_BLE_SDK/GD32VW55x_RELEASE_V1.0.2/MSDK/ble/app\app_blue_courier_link.c ****                 bcwl_error_report(BCWL_ERR_SEND_NO_MEM);
 424              		.loc 1 195 17
 425 0062 B7050000 		lui	a1,%hi(.LANCHOR2)
 426 0066 37050000 		lui	a0,%hi(.LC2)
 427 006a 93850500 		addi	a1,a1,%lo(.LANCHOR2)
 428 006e 13050500 		addi	a0,a0,%lo(.LC2)
 429 0072 97000000 		call	co_printf
 429      E7800000 
 430              	.LVL26:
 431              	.L36:
 195:C:/Users/stapi/OneDrive/Desktop/GD32VW553/GD32VW55X_Wifi_BLE_SDK/GD32VW55x_RELEASE_V1.0.2/MSDK/ble/app\app_blue_courier_link.c ****                 bcwl_error_report(BCWL_ERR_SEND_NO_MEM);
 432              		.loc 1 195 17
 196:C:/Users/stapi/OneDrive/Desktop/GD32VW553/GD32VW55X_Wifi_BLE_SDK/GD32VW55x_RELEASE_V1.0.2/MSDK/ble/app\app_blue_courier_link.c ****                 return;
 433              		.loc 1 196 17
 434 007a 0D45     		li	a0,3
 435 007c 97000000 		call	bcwl_error_report
 435      E7800000 
 436              	.LVL27:
 197:C:/Users/stapi/OneDrive/Desktop/GD32VW553/GD32VW55X_Wifi_BLE_SDK/GD32VW55x_RELEASE_V1.0.2/MSDK/ble/app\app_blue_courier_link.c ****             }
 437              		.loc 1 197 17
 438 0084 15A0     		j	.L29
 439              	.LVL28:
 440              	.L52:
 441              	.LBE43:
 442              	.LBE42:
 187:C:/Users/stapi/OneDrive/Desktop/GD32VW553/GD32VW55X_Wifi_BLE_SDK/GD32VW55x_RELEASE_V1.0.2/MSDK/ble/app\app_blue_courier_link.c ****         return;
 443              		.loc 1 187 9
 187:C:/Users/stapi/OneDrive/Desktop/GD32VW553/GD32VW55X_Wifi_BLE_SDK/GD32VW55x_RELEASE_V1.0.2/MSDK/ble/app\app_blue_courier_link.c ****         return;
 444              		.loc 1 187 9
 445 0086 B7070000 		lui	a5,%hi(global_debug_level)
 446 008a 83C70700 		lbu	a5,%lo(global_debug_level)(a5)
 447 008e 89CF     		beq	a5,zero,.L29
 187:C:/Users/stapi/OneDrive/Desktop/GD32VW553/GD32VW55X_Wifi_BLE_SDK/GD32VW55x_RELEASE_V1.0.2/MSDK/ble/app\app_blue_courier_link.c ****         return;
 448              		.loc 1 187 9 discriminator 1
 449 0090 B7050000 		lui	a1,%hi(.LANCHOR2)
 450              	.LVL29:
 451 0094 37050000 		lui	a0,%hi(.LC1)
 452              	.LVL30:
 453 0098 93850500 		addi	a1,a1,%lo(.LANCHOR2)
 454 009c 13050500 		addi	a0,a0,%lo(.LC1)
 455 00a0 97000000 		call	co_printf
 455      E7800000 
 456              	.LVL31:
 457              	.L29:
 242:C:/Users/stapi/OneDrive/Desktop/GD32VW553/GD32VW55X_Wifi_BLE_SDK/GD32VW55x_RELEASE_V1.0.2/MSDK/ble/app\app_blue_courier_link.c **** 
 458              		.loc 1 242 1 is_stmt 0
 459 00a8 17030000 		tail	__riscv_restore_12
 459      67000300 
 460              		.cfi_remember_state
 461              		.cfi_restore 27
 462              		.cfi_restore 26
 463              		.cfi_restore 25
 464              		.cfi_restore 24
 465              		.cfi_restore 23
 466              		.cfi_restore 22
 467              		.cfi_restore 21
 468              		.cfi_restore 20
 469              		.cfi_restore 19
 470              		.cfi_restore 18
 471              		.cfi_restore 9
 472              		.cfi_restore 8
 473              		.cfi_restore 1
 474              		.cfi_def_cfa_offset 0
 475              	.LVL32:
 476              	.L34:
 477              		.cfi_restore_state
 478              	.LBB51:
 479              	.LBB50:
 200:C:/Users/stapi/OneDrive/Desktop/GD32VW553/GD32VW55X_Wifi_BLE_SDK/GD32VW55x_RELEASE_V1.0.2/MSDK/ble/app\app_blue_courier_link.c ****             hdr->data_len = bcwl_env.frag_size;
 480              		.loc 1 200 13 is_stmt 1
 200:C:/Users/stapi/OneDrive/Desktop/GD32VW553/GD32VW55X_Wifi_BLE_SDK/GD32VW55x_RELEASE_V1.0.2/MSDK/ble/app\app_blue_courier_link.c ****             hdr->data_len = bcwl_env.frag_size;
 481              		.loc 1 200 23 is_stmt 0
 482 00b0 23000500 		sb	zero,0(a0)
 201:C:/Users/stapi/OneDrive/Desktop/GD32VW553/GD32VW55X_Wifi_BLE_SDK/GD32VW55x_RELEASE_V1.0.2/MSDK/ble/app\app_blue_courier_link.c ****             if (remain_len == len) {
 483              		.loc 1 201 13 is_stmt 1
 201:C:/Users/stapi/OneDrive/Desktop/GD32VW553/GD32VW55X_Wifi_BLE_SDK/GD32VW55x_RELEASE_V1.0.2/MSDK/ble/app\app_blue_courier_link.c ****             if (remain_len == len) {
 484              		.loc 1 201 37 is_stmt 0
 485 00b4 03C68901 		lbu	a2,24(s3)
 207:C:/Users/stapi/OneDrive/Desktop/GD32VW553/GD32VW55X_Wifi_BLE_SDK/GD32VW55x_RELEASE_V1.0.2/MSDK/ble/app\app_blue_courier_link.c ****                 remain_len -= (hdr->data_len - 2);
 486              		.loc 1 207 53
 487 00b8 B3059940 		sub	a1,s2,s1
 207:C:/Users/stapi/OneDrive/Desktop/GD32VW553/GD32VW55X_Wifi_BLE_SDK/GD32VW55x_RELEASE_V1.0.2/MSDK/ble/app\app_blue_courier_link.c ****                 remain_len -= (hdr->data_len - 2);
 488              		.loc 1 207 43
 489 00bc D295     		add	a1,s4,a1
 201:C:/Users/stapi/OneDrive/Desktop/GD32VW553/GD32VW55X_Wifi_BLE_SDK/GD32VW55x_RELEASE_V1.0.2/MSDK/ble/app\app_blue_courier_link.c ****             if (remain_len == len) {
 490              		.loc 1 201 27
 491 00be A301C500 		sb	a2,3(a0)
 202:C:/Users/stapi/OneDrive/Desktop/GD32VW553/GD32VW55X_Wifi_BLE_SDK/GD32VW55x_RELEASE_V1.0.2/MSDK/ble/app\app_blue_courier_link.c ****                 /* start segment */
 492              		.loc 1 202 13 is_stmt 1
 202:C:/Users/stapi/OneDrive/Desktop/GD32VW553/GD32VW55X_Wifi_BLE_SDK/GD32VW55x_RELEASE_V1.0.2/MSDK/ble/app\app_blue_courier_link.c ****                 /* start segment */
 493              		.loc 1 202 16 is_stmt 0
 494 00c2 631F990A 		bne	s2,s1,.L57
 204:C:/Users/stapi/OneDrive/Desktop/GD32VW553/GD32VW55X_Wifi_BLE_SDK/GD32VW55x_RELEASE_V1.0.2/MSDK/ble/app\app_blue_courier_link.c ****                 hdr->data[0] = remain_len & 0xff;
 495              		.loc 1 204 17 is_stmt 1
 204:C:/Users/stapi/OneDrive/Desktop/GD32VW553/GD32VW55X_Wifi_BLE_SDK/GD32VW55x_RELEASE_V1.0.2/MSDK/ble/app\app_blue_courier_link.c ****                 hdr->data[0] = remain_len & 0xff;
 496              		.loc 1 204 27 is_stmt 0
 497 00c6 8547     		li	a5,1
 498 00c8 2300F500 		sb	a5,0(a0)
 205:C:/Users/stapi/OneDrive/Desktop/GD32VW553/GD32VW55X_Wifi_BLE_SDK/GD32VW55x_RELEASE_V1.0.2/MSDK/ble/app\app_blue_courier_link.c ****                 hdr->data[1] = (remain_len >> 8) & 0xff;
 499              		.loc 1 205 17 is_stmt 1
 205:C:/Users/stapi/OneDrive/Desktop/GD32VW553/GD32VW55X_Wifi_BLE_SDK/GD32VW55x_RELEASE_V1.0.2/MSDK/ble/app\app_blue_courier_link.c ****                 hdr->data[1] = (remain_len >> 8) & 0xff;
 500              		.loc 1 205 30 is_stmt 0
 501 00cc 23022501 		sb	s2,4(a0)
 206:C:/Users/stapi/OneDrive/Desktop/GD32VW553/GD32VW55X_Wifi_BLE_SDK/GD32VW55x_RELEASE_V1.0.2/MSDK/ble/app\app_blue_courier_link.c ****                 sys_memcpy(hdr->data + 2, &data[len - remain_len], hdr->data_len - 2); //copy first
 502              		.loc 1 206 17 is_stmt 1
 206:C:/Users/stapi/OneDrive/Desktop/GD32VW553/GD32VW55X_Wifi_BLE_SDK/GD32VW55x_RELEASE_V1.0.2/MSDK/ble/app\app_blue_courier_link.c ****                 sys_memcpy(hdr->data + 2, &data[len - remain_len], hdr->data_len - 2); //copy first
 503              		.loc 1 206 30 is_stmt 0
 504 00d0 A3027501 		sb	s7,5(a0)
 207:C:/Users/stapi/OneDrive/Desktop/GD32VW553/GD32VW55X_Wifi_BLE_SDK/GD32VW55x_RELEASE_V1.0.2/MSDK/ble/app\app_blue_courier_link.c ****                 remain_len -= (hdr->data_len - 2);
 505              		.loc 1 207 17 is_stmt 1
 506 00d4 7916     		addi	a2,a2,-2
 507 00d6 1905     		addi	a0,a0,6
 508 00d8 97000000 		call	sys_memcpy
 508      E7800000 
 509              	.LVL33:
 208:C:/Users/stapi/OneDrive/Desktop/GD32VW553/GD32VW55X_Wifi_BLE_SDK/GD32VW55x_RELEASE_V1.0.2/MSDK/ble/app\app_blue_courier_link.c ****             } else {
 510              		.loc 1 208 17
 208:C:/Users/stapi/OneDrive/Desktop/GD32VW553/GD32VW55X_Wifi_BLE_SDK/GD32VW55x_RELEASE_V1.0.2/MSDK/ble/app\app_blue_courier_link.c ****             } else {
 511              		.loc 1 208 35 is_stmt 0
 512 00e0 83443400 		lbu	s1,3(s0)
 513              	.LVL34:
 208:C:/Users/stapi/OneDrive/Desktop/GD32VW553/GD32VW55X_Wifi_BLE_SDK/GD32VW55x_RELEASE_V1.0.2/MSDK/ble/app\app_blue_courier_link.c ****             } else {
 514              		.loc 1 208 28
 515 00e4 B3049B40 		sub	s1,s6,s1
 516              	.L56:
 229:C:/Users/stapi/OneDrive/Desktop/GD32VW553/GD32VW55X_Wifi_BLE_SDK/GD32VW55x_RELEASE_V1.0.2/MSDK/ble/app\app_blue_courier_link.c ****         hdr->seq = bcwl_env.send_seq++;
 517              		.loc 1 229 21
 518 00e8 23015401 		sb	s5,2(s0)
 230:C:/Users/stapi/OneDrive/Desktop/GD32VW553/GD32VW55X_Wifi_BLE_SDK/GD32VW55x_RELEASE_V1.0.2/MSDK/ble/app\app_blue_courier_link.c **** 
 519              		.loc 1 230 28
 520 00ec 83C7D900 		lbu	a5,13(s3)
 232:C:/Users/stapi/OneDrive/Desktop/GD32VW553/GD32VW55X_Wifi_BLE_SDK/GD32VW55x_RELEASE_V1.0.2/MSDK/ble/app\app_blue_courier_link.c ****         hdr->data[hdr->data_len] = crc & 0xff;
 521              		.loc 1 232 15
 522 00f0 0146     		li	a2,0
 523 00f2 13051400 		addi	a0,s0,1
 230:C:/Users/stapi/OneDrive/Desktop/GD32VW553/GD32VW55X_Wifi_BLE_SDK/GD32VW55x_RELEASE_V1.0.2/MSDK/ble/app\app_blue_courier_link.c **** 
 524              		.loc 1 230 37
 525 00f6 13871700 		addi	a4,a5,1
 526 00fa A386E900 		sb	a4,13(s3)
 232:C:/Users/stapi/OneDrive/Desktop/GD32VW553/GD32VW55X_Wifi_BLE_SDK/GD32VW55x_RELEASE_V1.0.2/MSDK/ble/app\app_blue_courier_link.c ****         hdr->data[hdr->data_len] = crc & 0xff;
 527              		.loc 1 232 38
 528 00fe 83453400 		lbu	a1,3(s0)
 230:C:/Users/stapi/OneDrive/Desktop/GD32VW553/GD32VW55X_Wifi_BLE_SDK/GD32VW55x_RELEASE_V1.0.2/MSDK/ble/app\app_blue_courier_link.c **** 
 529              		.loc 1 230 18
 530 0102 A300F400 		sb	a5,1(s0)
 226:C:/Users/stapi/OneDrive/Desktop/GD32VW553/GD32VW55X_Wifi_BLE_SDK/GD32VW55x_RELEASE_V1.0.2/MSDK/ble/app\app_blue_courier_link.c ****         }
 531              		.loc 1 226 24
 532 0106 B3C40408 		zext.h	s1,s1
 533              	.LVL35:
 229:C:/Users/stapi/OneDrive/Desktop/GD32VW553/GD32VW55X_Wifi_BLE_SDK/GD32VW55x_RELEASE_V1.0.2/MSDK/ble/app\app_blue_courier_link.c ****         hdr->seq = bcwl_env.send_seq++;
 534              		.loc 1 229 9 is_stmt 1
 230:C:/Users/stapi/OneDrive/Desktop/GD32VW553/GD32VW55X_Wifi_BLE_SDK/GD32VW55x_RELEASE_V1.0.2/MSDK/ble/app\app_blue_courier_link.c **** 
 535              		.loc 1 230 9
 232:C:/Users/stapi/OneDrive/Desktop/GD32VW553/GD32VW55X_Wifi_BLE_SDK/GD32VW55x_RELEASE_V1.0.2/MSDK/ble/app\app_blue_courier_link.c ****         hdr->data[hdr->data_len] = crc & 0xff;
 536              		.loc 1 232 9
 232:C:/Users/stapi/OneDrive/Desktop/GD32VW553/GD32VW55X_Wifi_BLE_SDK/GD32VW55x_RELEASE_V1.0.2/MSDK/ble/app\app_blue_courier_link.c ****         hdr->data[hdr->data_len] = crc & 0xff;
 537              		.loc 1 232 15 is_stmt 0
 538 010a 8D05     		addi	a1,a1,3
 539 010c 97000000 		call	co_crc16
 539      E7800000 
 540              	.LVL36:
 233:C:/Users/stapi/OneDrive/Desktop/GD32VW553/GD32VW55X_Wifi_BLE_SDK/GD32VW55x_RELEASE_V1.0.2/MSDK/ble/app\app_blue_courier_link.c ****         hdr->data[hdr->data_len + 1] = (crc >> 8) & 0xff;
 541              		.loc 1 233 9 is_stmt 1
 233:C:/Users/stapi/OneDrive/Desktop/GD32VW553/GD32VW55X_Wifi_BLE_SDK/GD32VW55x_RELEASE_V1.0.2/MSDK/ble/app\app_blue_courier_link.c ****         hdr->data[hdr->data_len + 1] = (crc >> 8) & 0xff;
 542              		.loc 1 233 22 is_stmt 0
 543 0114 03473400 		lbu	a4,3(s0)
 233:C:/Users/stapi/OneDrive/Desktop/GD32VW553/GD32VW55X_Wifi_BLE_SDK/GD32VW55x_RELEASE_V1.0.2/MSDK/ble/app\app_blue_courier_link.c ****         hdr->data[hdr->data_len + 1] = (crc >> 8) & 0xff;
 544              		.loc 1 233 34
 545 0118 B307E400 		add	a5,s0,a4
 546 011c 2382A700 		sb	a0,4(a5)
 234:C:/Users/stapi/OneDrive/Desktop/GD32VW553/GD32VW55X_Wifi_BLE_SDK/GD32VW55x_RELEASE_V1.0.2/MSDK/ble/app\app_blue_courier_link.c **** 
 547              		.loc 1 234 9 is_stmt 1
 234:C:/Users/stapi/OneDrive/Desktop/GD32VW553/GD32VW55X_Wifi_BLE_SDK/GD32VW55x_RELEASE_V1.0.2/MSDK/ble/app\app_blue_courier_link.c **** 
 548              		.loc 1 234 38 is_stmt 0
 549 0120 2181     		srli	a0,a0,8
 550              	.LVL37:
 551 0122 A382A700 		sb	a0,5(a5)
 236:C:/Users/stapi/OneDrive/Desktop/GD32VW553/GD32VW55X_Wifi_BLE_SDK/GD32VW55x_RELEASE_V1.0.2/MSDK/ble/app\app_blue_courier_link.c **** 
 552              		.loc 1 236 9 is_stmt 1
 553              	.LVL38:
 554              	.LBB48:
 555              	.LBB46:
 164:C:/Users/stapi/OneDrive/Desktop/GD32VW553/GD32VW55X_Wifi_BLE_SDK/GD32VW55x_RELEASE_V1.0.2/MSDK/ble/app\app_blue_courier_link.c ****         dbg_print(ERR, "%s fail\r\n", __func__);
 556              		.loc 1 164 5
 164:C:/Users/stapi/OneDrive/Desktop/GD32VW553/GD32VW55X_Wifi_BLE_SDK/GD32VW55x_RELEASE_V1.0.2/MSDK/ble/app\app_blue_courier_link.c ****         dbg_print(ERR, "%s fail\r\n", __func__);
 557              		.loc 1 164 8 is_stmt 0
 558 0126 83D74900 		lhu	a5,4(s3)
 559 012a ADE7     		bne	a5,zero,.L42
 165:C:/Users/stapi/OneDrive/Desktop/GD32VW553/GD32VW55X_Wifi_BLE_SDK/GD32VW55x_RELEASE_V1.0.2/MSDK/ble/app\app_blue_courier_link.c ****         return;
 560              		.loc 1 165 9 is_stmt 1
 165:C:/Users/stapi/OneDrive/Desktop/GD32VW553/GD32VW55X_Wifi_BLE_SDK/GD32VW55x_RELEASE_V1.0.2/MSDK/ble/app\app_blue_courier_link.c ****         return;
 561              		.loc 1 165 9
 562 012c 83C70C00 		lbu	a5,%lo(global_debug_level)(s9)
 563 0130 89CB     		beq	a5,zero,.L43
 165:C:/Users/stapi/OneDrive/Desktop/GD32VW553/GD32VW55X_Wifi_BLE_SDK/GD32VW55x_RELEASE_V1.0.2/MSDK/ble/app\app_blue_courier_link.c ****         return;
 564              		.loc 1 165 9
 565 0132 93050D00 		addi	a1,s10,%lo(.LANCHOR3)
 566 0136 13850D00 		addi	a0,s11,%lo(.LC3)
 567 013a 97000000 		call	co_printf
 567      E7800000 
 568              	.LVL39:
 569              	.L43:
 570              	.LBE46:
 571              	.LBE48:
 238:C:/Users/stapi/OneDrive/Desktop/GD32VW553/GD32VW55X_Wifi_BLE_SDK/GD32VW55x_RELEASE_V1.0.2/MSDK/ble/app\app_blue_courier_link.c ****         hdr =  NULL;
 572              		.loc 1 238 9
 573 0142 2285     		mv	a0,s0
 574 0144 97000000 		call	sys_mfree
 574      E7800000 
 575              	.LVL40:
 239:C:/Users/stapi/OneDrive/Desktop/GD32VW553/GD32VW55X_Wifi_BLE_SDK/GD32VW55x_RELEASE_V1.0.2/MSDK/ble/app\app_blue_courier_link.c ****     }
 576              		.loc 1 239 9
 577 014c D5BD     		j	.L30
 578              	.LVL41:
 579              	.L33:
 216:C:/Users/stapi/OneDrive/Desktop/GD32VW553/GD32VW55X_Wifi_BLE_SDK/GD32VW55x_RELEASE_V1.0.2/MSDK/ble/app\app_blue_courier_link.c ****             if (hdr == NULL) {
 580              		.loc 1 216 13
 216:C:/Users/stapi/OneDrive/Desktop/GD32VW553/GD32VW55X_Wifi_BLE_SDK/GD32VW55x_RELEASE_V1.0.2/MSDK/ble/app\app_blue_courier_link.c ****             if (hdr == NULL) {
 581              		.loc 1 216 19 is_stmt 0
 582 014e 13856400 		addi	a0,s1,6
 583 0152 33450508 		zext.h	a0,a0
 584 0156 97000000 		call	sys_malloc
 584      E7800000 
 585              	.LVL42:
 586 015e 2A84     		mv	s0,a0
 587              	.LVL43:
 217:C:/Users/stapi/OneDrive/Desktop/GD32VW553/GD32VW55X_Wifi_BLE_SDK/GD32VW55x_RELEASE_V1.0.2/MSDK/ble/app\app_blue_courier_link.c ****                 dbg_print(ERR, "%s no mem\n", __func__);
 588              		.loc 1 217 13 is_stmt 1
 217:C:/Users/stapi/OneDrive/Desktop/GD32VW553/GD32VW55X_Wifi_BLE_SDK/GD32VW55x_RELEASE_V1.0.2/MSDK/ble/app\app_blue_courier_link.c ****                 dbg_print(ERR, "%s no mem\n", __func__);
 589              		.loc 1 217 16 is_stmt 0
 590 0160 E30C05EE 		beq	a0,zero,.L55
 223:C:/Users/stapi/OneDrive/Desktop/GD32VW553/GD32VW55X_Wifi_BLE_SDK/GD32VW55x_RELEASE_V1.0.2/MSDK/ble/app\app_blue_courier_link.c ****             hdr->data_len = remain_len;
 591              		.loc 1 223 13 is_stmt 1
 223:C:/Users/stapi/OneDrive/Desktop/GD32VW553/GD32VW55X_Wifi_BLE_SDK/GD32VW55x_RELEASE_V1.0.2/MSDK/ble/app\app_blue_courier_link.c ****             hdr->data_len = remain_len;
 592              		.loc 1 223 23 is_stmt 0
 593 0164 03C78901 		lbu	a4,24(s3)
 594 0168 8D47     		li	a5,3
 595 016a 63732701 		bgeu	a4,s2,.L41
 596 016e 8947     		li	a5,2
 597              	.L41:
 225:C:/Users/stapi/OneDrive/Desktop/GD32VW553/GD32VW55X_Wifi_BLE_SDK/GD32VW55x_RELEASE_V1.0.2/MSDK/ble/app\app_blue_courier_link.c ****             remain_len -= hdr->data_len;
 598              		.loc 1 225 45
 599 0170 B3059940 		sub	a1,s2,s1
 223:C:/Users/stapi/OneDrive/Desktop/GD32VW553/GD32VW55X_Wifi_BLE_SDK/GD32VW55x_RELEASE_V1.0.2/MSDK/ble/app\app_blue_courier_link.c ****             hdr->data_len = remain_len;
 600              		.loc 1 223 23
 601 0174 2300F400 		sb	a5,0(s0)
 224:C:/Users/stapi/OneDrive/Desktop/GD32VW553/GD32VW55X_Wifi_BLE_SDK/GD32VW55x_RELEASE_V1.0.2/MSDK/ble/app\app_blue_courier_link.c ****             sys_memcpy(hdr->data, &data[len - remain_len], hdr->data_len); //copy end
 602              		.loc 1 224 13 is_stmt 1
 224:C:/Users/stapi/OneDrive/Desktop/GD32VW553/GD32VW55X_Wifi_BLE_SDK/GD32VW55x_RELEASE_V1.0.2/MSDK/ble/app\app_blue_courier_link.c ****             sys_memcpy(hdr->data, &data[len - remain_len], hdr->data_len); //copy end
 603              		.loc 1 224 27 is_stmt 0
 604 0178 A3019400 		sb	s1,3(s0)
 225:C:/Users/stapi/OneDrive/Desktop/GD32VW553/GD32VW55X_Wifi_BLE_SDK/GD32VW55x_RELEASE_V1.0.2/MSDK/ble/app\app_blue_courier_link.c ****             remain_len -= hdr->data_len;
 605              		.loc 1 225 13 is_stmt 1
 606 017c 2686     		mv	a2,s1
 607 017e D295     		add	a1,s4,a1
 608              	.L57:
 609 0180 13054400 		addi	a0,s0,4
 610 0184 97000000 		call	sys_memcpy
 610      E7800000 
 611              	.LVL44:
 226:C:/Users/stapi/OneDrive/Desktop/GD32VW553/GD32VW55X_Wifi_BLE_SDK/GD32VW55x_RELEASE_V1.0.2/MSDK/ble/app\app_blue_courier_link.c ****         }
 612              		.loc 1 226 13
 226:C:/Users/stapi/OneDrive/Desktop/GD32VW553/GD32VW55X_Wifi_BLE_SDK/GD32VW55x_RELEASE_V1.0.2/MSDK/ble/app\app_blue_courier_link.c ****         }
 613              		.loc 1 226 30 is_stmt 0
 614 018c 83473400 		lbu	a5,3(s0)
 226:C:/Users/stapi/OneDrive/Desktop/GD32VW553/GD32VW55X_Wifi_BLE_SDK/GD32VW55x_RELEASE_V1.0.2/MSDK/ble/app\app_blue_courier_link.c ****         }
 615              		.loc 1 226 24
 616 0190 9D8C     		sub	s1,s1,a5
 617              	.LVL45:
 618 0192 99BF     		j	.L56
 619              	.LVL46:
 620              	.L42:
 621              	.LBB49:
 622              	.LBB47:
 169:C:/Users/stapi/OneDrive/Desktop/GD32VW553/GD32VW55X_Wifi_BLE_SDK/GD32VW55x_RELEASE_V1.0.2/MSDK/ble/app\app_blue_courier_link.c **** }
 623              		.loc 1 169 5 is_stmt 1
 624 0194 83450C00 		lbu	a1,%lo(.LANCHOR4)(s8)
 625 0198 03C51900 		lbu	a0,1(s3)
 626 019c 8147     		li	a5,0
 627 019e 1907     		addi	a4,a4,6
 628              	.LVL47:
 629 01a0 A286     		mv	a3,s0
 630 01a2 1146     		li	a2,4
 631 01a4 97000000 		call	ble_gatts_ntf_ind_send
 631      E7800000 
 632              	.LVL48:
 633 01ac 59BF     		j	.L43
 634              	.LBE47:
 635              	.LBE49:
 636              	.LBE50:
 637              	.LBE51:
 638              		.cfi_endproc
 639              	.LFE19:
 641              		.section	.text.bcwl_error_report,"ax",@progbits
 642              		.align	1
 643              		.globl	bcwl_error_report
 645              	bcwl_error_report:
 646              	.LFB14:
  73:C:/Users/stapi/OneDrive/Desktop/GD32VW553/GD32VW55X_Wifi_BLE_SDK/GD32VW55x_RELEASE_V1.0.2/MSDK/ble/app\app_blue_courier_link.c ****     bcwl_send(BCWL_OPCODE_BUILD(BCWL_OPCODE_TYPE_MGMT, BCWL_OPCODE_MGMT_SUBTYPE_ERROR_REPORT), &rea
 647              		.loc 1 73 1
 648              		.cfi_startproc
 649              	.LVL49:
 650 0000 17030000 		call	t0,__riscv_save_0
 650      E7020300 
 651              		.cfi_offset 1, -4
 652              		.cfi_def_cfa_offset 16
  74:C:/Users/stapi/OneDrive/Desktop/GD32VW553/GD32VW55X_Wifi_BLE_SDK/GD32VW55x_RELEASE_V1.0.2/MSDK/ble/app\app_blue_courier_link.c **** }
 653              		.loc 1 74 5
  73:C:/Users/stapi/OneDrive/Desktop/GD32VW553/GD32VW55X_Wifi_BLE_SDK/GD32VW55x_RELEASE_V1.0.2/MSDK/ble/app\app_blue_courier_link.c ****     bcwl_send(BCWL_OPCODE_BUILD(BCWL_OPCODE_TYPE_MGMT, BCWL_OPCODE_MGMT_SUBTYPE_ERROR_REPORT), &rea
 654              		.loc 1 73 1 is_stmt 0
 655 0008 4111     		addi	sp,sp,-16
 656              		.cfi_def_cfa_offset 32
  73:C:/Users/stapi/OneDrive/Desktop/GD32VW553/GD32VW55X_Wifi_BLE_SDK/GD32VW55x_RELEASE_V1.0.2/MSDK/ble/app\app_blue_courier_link.c ****     bcwl_send(BCWL_OPCODE_BUILD(BCWL_OPCODE_TYPE_MGMT, BCWL_OPCODE_MGMT_SUBTYPE_ERROR_REPORT), &rea
 657              		.loc 1 73 1
 658 000a A307A100 		sb	a0,15(sp)
  74:C:/Users/stapi/OneDrive/Desktop/GD32VW553/GD32VW55X_Wifi_BLE_SDK/GD32VW55x_RELEASE_V1.0.2/MSDK/ble/app\app_blue_courier_link.c **** }
 659              		.loc 1 74 5
 660 000e 9305F100 		addi	a1,sp,15
 661 0012 0546     		li	a2,1
 662 0014 0945     		li	a0,2
 663              	.LVL50:
 664 0016 97000000 		call	bcwl_send
 664      E7800000 
 665              	.LVL51:
  75:C:/Users/stapi/OneDrive/Desktop/GD32VW553/GD32VW55X_Wifi_BLE_SDK/GD32VW55x_RELEASE_V1.0.2/MSDK/ble/app\app_blue_courier_link.c **** 
 666              		.loc 1 75 1
 667 001e 4101     		addi	sp,sp,16
 668              		.cfi_def_cfa_offset 0
 669 0020 17030000 		tail	__riscv_restore_0
 669      67000300 
 670              		.cfi_restore 1
 671              		.cfi_def_cfa_offset -16
 672              		.cfi_endproc
 673              	.LFE14:
 675              		.section	.text.bcwl_send_ack,"ax",@progbits
 676              		.align	1
 677              		.globl	bcwl_send_ack
 679              	bcwl_send_ack:
 680              	.LFB15:
  84:C:/Users/stapi/OneDrive/Desktop/GD32VW553/GD32VW55X_Wifi_BLE_SDK/GD32VW55x_RELEASE_V1.0.2/MSDK/ble/app\app_blue_courier_link.c ****     bcwl_send(BCWL_OPCODE_BUILD(BCWL_OPCODE_TYPE_MGMT, BCWL_OPCODE_MGMT_SUBTYPE_ACK), &seq, sizeof(
 681              		.loc 1 84 1 is_stmt 1
 682              		.cfi_startproc
 683              	.LVL52:
 684 0000 17030000 		call	t0,__riscv_save_0
 684      E7020300 
 685              		.cfi_offset 1, -4
 686              		.cfi_def_cfa_offset 16
  85:C:/Users/stapi/OneDrive/Desktop/GD32VW553/GD32VW55X_Wifi_BLE_SDK/GD32VW55x_RELEASE_V1.0.2/MSDK/ble/app\app_blue_courier_link.c **** }
 687              		.loc 1 85 5
  84:C:/Users/stapi/OneDrive/Desktop/GD32VW553/GD32VW55X_Wifi_BLE_SDK/GD32VW55x_RELEASE_V1.0.2/MSDK/ble/app\app_blue_courier_link.c ****     bcwl_send(BCWL_OPCODE_BUILD(BCWL_OPCODE_TYPE_MGMT, BCWL_OPCODE_MGMT_SUBTYPE_ACK), &seq, sizeof(
 688              		.loc 1 84 1 is_stmt 0
 689 0008 4111     		addi	sp,sp,-16
 690              		.cfi_def_cfa_offset 32
  84:C:/Users/stapi/OneDrive/Desktop/GD32VW553/GD32VW55X_Wifi_BLE_SDK/GD32VW55x_RELEASE_V1.0.2/MSDK/ble/app\app_blue_courier_link.c ****     bcwl_send(BCWL_OPCODE_BUILD(BCWL_OPCODE_TYPE_MGMT, BCWL_OPCODE_MGMT_SUBTYPE_ACK), &seq, sizeof(
 691              		.loc 1 84 1
 692 000a A307A100 		sb	a0,15(sp)
  85:C:/Users/stapi/OneDrive/Desktop/GD32VW553/GD32VW55X_Wifi_BLE_SDK/GD32VW55x_RELEASE_V1.0.2/MSDK/ble/app\app_blue_courier_link.c **** }
 693              		.loc 1 85 5
 694 000e 9305F100 		addi	a1,sp,15
 695 0012 0546     		li	a2,1
 696 0014 0545     		li	a0,1
 697              	.LVL53:
 698 0016 97000000 		call	bcwl_send
 698      E7800000 
 699              	.LVL54:
  86:C:/Users/stapi/OneDrive/Desktop/GD32VW553/GD32VW55X_Wifi_BLE_SDK/GD32VW55x_RELEASE_V1.0.2/MSDK/ble/app\app_blue_courier_link.c **** 
 700              		.loc 1 86 1
 701 001e 4101     		addi	sp,sp,16
 702              		.cfi_def_cfa_offset 0
 703 0020 17030000 		tail	__riscv_restore_0
 703      67000300 
 704              		.cfi_restore 1
 705              		.cfi_def_cfa_offset -16
 706              		.cfi_endproc
 707              	.LFE15:
 709              		.section	.rodata.bcwl_handle_mgmt_handshake.str1.4,"aMS",@progbits,1
 710              		.align	2
 711              	.LC4:
 712 0000 2573206C 		.string	"%s len err %d\n"
 712      656E2065 
 712      72722025 
 712      640A00
 713 000f 00       		.align	2
 714              	.LC5:
 715 0010 25732068 		.string	"%s handshake success\n"
 715      616E6473 
 715      68616B65 
 715      20737563 
 715      63657373 
 716              		.section	.text.bcwl_handle_mgmt_handshake,"ax",@progbits
 717              		.align	1
 718              		.globl	bcwl_handle_mgmt_handshake
 720              	bcwl_handle_mgmt_handshake:
 721              	.LFB16:
  96:C:/Users/stapi/OneDrive/Desktop/GD32VW553/GD32VW55X_Wifi_BLE_SDK/GD32VW55x_RELEASE_V1.0.2/MSDK/ble/app\app_blue_courier_link.c ****     uint16_t mtu;
 722              		.loc 1 96 1 is_stmt 1
 723              		.cfi_startproc
 724              	.LVL55:
 725 0000 17030000 		call	t0,__riscv_save_3
 725      E7020300 
 726              		.cfi_offset 18, -16
 727              		.cfi_offset 9, -12
 728              		.cfi_offset 8, -8
 729              		.cfi_offset 1, -4
 730              		.cfi_def_cfa_offset 16
  97:C:/Users/stapi/OneDrive/Desktop/GD32VW553/GD32VW55X_Wifi_BLE_SDK/GD32VW55x_RELEASE_V1.0.2/MSDK/ble/app\app_blue_courier_link.c ****     bcwl_mgmt_handshake_t handshake_rsp;
 731              		.loc 1 97 5
  98:C:/Users/stapi/OneDrive/Desktop/GD32VW553/GD32VW55X_Wifi_BLE_SDK/GD32VW55x_RELEASE_V1.0.2/MSDK/ble/app\app_blue_courier_link.c ****     bcwl_mgmt_handshake_t *handshake = (bcwl_mgmt_handshake_t *)data;
 732              		.loc 1 98 5
  99:C:/Users/stapi/OneDrive/Desktop/GD32VW553/GD32VW55X_Wifi_BLE_SDK/GD32VW55x_RELEASE_V1.0.2/MSDK/ble/app\app_blue_courier_link.c **** 
 733              		.loc 1 99 5
 734              	.LVL56:
 101:C:/Users/stapi/OneDrive/Desktop/GD32VW553/GD32VW55X_Wifi_BLE_SDK/GD32VW55x_RELEASE_V1.0.2/MSDK/ble/app\app_blue_courier_link.c ****         dbg_print(ERR, "%s len err %d\n", __func__, len);
 735              		.loc 1 101 5
 101:C:/Users/stapi/OneDrive/Desktop/GD32VW553/GD32VW55X_Wifi_BLE_SDK/GD32VW55x_RELEASE_V1.0.2/MSDK/ble/app\app_blue_courier_link.c ****         dbg_print(ERR, "%s len err %d\n", __func__, len);
 736              		.loc 1 101 8 is_stmt 0
 737 0008 9147     		li	a5,4
  96:C:/Users/stapi/OneDrive/Desktop/GD32VW553/GD32VW55X_Wifi_BLE_SDK/GD32VW55x_RELEASE_V1.0.2/MSDK/ble/app\app_blue_courier_link.c ****     uint16_t mtu;
 738              		.loc 1 96 1
 739 000a 4111     		addi	sp,sp,-16
 740              		.cfi_def_cfa_offset 32
 741 000c 37090000 		lui	s2,%hi(global_debug_level)
 101:C:/Users/stapi/OneDrive/Desktop/GD32VW553/GD32VW55X_Wifi_BLE_SDK/GD32VW55x_RELEASE_V1.0.2/MSDK/ble/app\app_blue_courier_link.c ****         dbg_print(ERR, "%s len err %d\n", __func__, len);
 742              		.loc 1 101 8
 743 0010 638CF502 		beq	a1,a5,.L63
 102:C:/Users/stapi/OneDrive/Desktop/GD32VW553/GD32VW55X_Wifi_BLE_SDK/GD32VW55x_RELEASE_V1.0.2/MSDK/ble/app\app_blue_courier_link.c ****         bcwl_error_report(BCWL_ERR_PACKET_LEN_ERROR);
 744              		.loc 1 102 9 is_stmt 1
 102:C:/Users/stapi/OneDrive/Desktop/GD32VW553/GD32VW55X_Wifi_BLE_SDK/GD32VW55x_RELEASE_V1.0.2/MSDK/ble/app\app_blue_courier_link.c ****         bcwl_error_report(BCWL_ERR_PACKET_LEN_ERROR);
 745              		.loc 1 102 9
 746 0014 83470900 		lbu	a5,%lo(global_debug_level)(s2)
 747 0018 91CF     		beq	a5,zero,.L64
 748 001a 2E86     		mv	a2,a1
 102:C:/Users/stapi/OneDrive/Desktop/GD32VW553/GD32VW55X_Wifi_BLE_SDK/GD32VW55x_RELEASE_V1.0.2/MSDK/ble/app\app_blue_courier_link.c ****         bcwl_error_report(BCWL_ERR_PACKET_LEN_ERROR);
 749              		.loc 1 102 9 discriminator 1
 750 001c 37050000 		lui	a0,%hi(.LC4)
 751              	.LVL57:
 752 0020 B7050000 		lui	a1,%hi(.LANCHOR5)
 753              	.LVL58:
 754 0024 93850500 		addi	a1,a1,%lo(.LANCHOR5)
 755 0028 13050500 		addi	a0,a0,%lo(.LC4)
 756 002c 97000000 		call	co_printf
 756      E7800000 
 757              	.LVL59:
 758              	.L64:
 102:C:/Users/stapi/OneDrive/Desktop/GD32VW553/GD32VW55X_Wifi_BLE_SDK/GD32VW55x_RELEASE_V1.0.2/MSDK/ble/app\app_blue_courier_link.c ****         bcwl_error_report(BCWL_ERR_PACKET_LEN_ERROR);
 759              		.loc 1 102 9 discriminator 3
 103:C:/Users/stapi/OneDrive/Desktop/GD32VW553/GD32VW55X_Wifi_BLE_SDK/GD32VW55x_RELEASE_V1.0.2/MSDK/ble/app\app_blue_courier_link.c ****         return;
 760              		.loc 1 103 9 discriminator 3
 761 0034 0545     		li	a0,1
 762 0036 97000000 		call	bcwl_error_report
 762      E7800000 
 763              	.LVL60:
 104:C:/Users/stapi/OneDrive/Desktop/GD32VW553/GD32VW55X_Wifi_BLE_SDK/GD32VW55x_RELEASE_V1.0.2/MSDK/ble/app\app_blue_courier_link.c ****     }
 764              		.loc 1 104 9 discriminator 3
 765              	.L62:
 118:C:/Users/stapi/OneDrive/Desktop/GD32VW553/GD32VW55X_Wifi_BLE_SDK/GD32VW55x_RELEASE_V1.0.2/MSDK/ble/app\app_blue_courier_link.c **** 
 766              		.loc 1 118 1 is_stmt 0
 767 003e 4101     		addi	sp,sp,16
 768              		.cfi_remember_state
 769              		.cfi_def_cfa_offset 0
 770 0040 17030000 		tail	__riscv_restore_3
 770      67000300 
 771              		.cfi_restore 18
 772              		.cfi_restore 9
 773              		.cfi_restore 8
 774              		.cfi_restore 1
 775              		.cfi_def_cfa_offset -16
 776              	.LVL61:
 777              	.L63:
 778              		.cfi_restore_state
 779              	.LBB60:
 780              	.LBB61:
 107:C:/Users/stapi/OneDrive/Desktop/GD32VW553/GD32VW55X_Wifi_BLE_SDK/GD32VW55x_RELEASE_V1.0.2/MSDK/ble/app\app_blue_courier_link.c ****     handshake_rsp.mtu = co_min(co_min(handshake->mtu, mtu), BCW_FRAG_MAX_LEN);
 781              		.loc 1 107 5
 782 0048 37040000 		lui	s0,%hi(.LANCHOR0)
 783 004c 13040400 		addi	s0,s0,%lo(.LANCHOR0)
 784 0050 AA84     		mv	s1,a0
 785              	.LVL62:
 107:C:/Users/stapi/OneDrive/Desktop/GD32VW553/GD32VW55X_Wifi_BLE_SDK/GD32VW55x_RELEASE_V1.0.2/MSDK/ble/app\app_blue_courier_link.c ****     handshake_rsp.mtu = co_min(co_min(handshake->mtu, mtu), BCW_FRAG_MAX_LEN);
 786              		.loc 1 107 5 is_stmt 1
 787 0052 03451400 		lbu	a0,1(s0)
 788              	.LVL63:
 789 0056 9305A100 		addi	a1,sp,10
 790              	.LVL64:
 791 005a 97000000 		call	ble_gatts_mtu_get
 791      E7800000 
 792              	.LVL65:
 108:C:/Users/stapi/OneDrive/Desktop/GD32VW553/GD32VW55X_Wifi_BLE_SDK/GD32VW55x_RELEASE_V1.0.2/MSDK/ble/app\app_blue_courier_link.c ****     handshake_rsp.recv_size = BCW_VALUE_LEN;
 793              		.loc 1 108 5
 794              	.LBE61:
 795              	.LBE60:
 796              		.file 2 "..\\..\\..\\..\\macsw\\export/co_math.h"
   1:..\..\..\..\macsw\export/co_math.h **** /*!
   2:..\..\..\..\macsw\export/co_math.h ****     \file    co_math.h
   3:..\..\..\..\macsw\export/co_math.h ****     \brief   Common optimized math functions
   4:..\..\..\..\macsw\export/co_math.h **** 
   5:..\..\..\..\macsw\export/co_math.h ****     \version 2023-07-20, V1.0.0, firmware for GD32VW55x
   6:..\..\..\..\macsw\export/co_math.h **** */
   7:..\..\..\..\macsw\export/co_math.h **** 
   8:..\..\..\..\macsw\export/co_math.h **** /*
   9:..\..\..\..\macsw\export/co_math.h ****     Copyright (c) 2023, GigaDevice Semiconductor Inc.
  10:..\..\..\..\macsw\export/co_math.h **** 
  11:..\..\..\..\macsw\export/co_math.h ****     Redistribution and use in source and binary forms, with or without modification,
  12:..\..\..\..\macsw\export/co_math.h **** are permitted provided that the following conditions are met:
  13:..\..\..\..\macsw\export/co_math.h **** 
  14:..\..\..\..\macsw\export/co_math.h ****     1. Redistributions of source code must retain the above copyright notice, this
  15:..\..\..\..\macsw\export/co_math.h ****        list of conditions and the following disclaimer.
  16:..\..\..\..\macsw\export/co_math.h ****     2. Redistributions in binary form must reproduce the above copyright notice,
  17:..\..\..\..\macsw\export/co_math.h ****        this list of conditions and the following disclaimer in the documentation
  18:..\..\..\..\macsw\export/co_math.h ****        and/or other materials provided with the distribution.
  19:..\..\..\..\macsw\export/co_math.h ****     3. Neither the name of the copyright holder nor the names of its contributors
  20:..\..\..\..\macsw\export/co_math.h ****        may be used to endorse or promote products derived from this software without
  21:..\..\..\..\macsw\export/co_math.h ****        specific prior written permission.
  22:..\..\..\..\macsw\export/co_math.h **** 
  23:..\..\..\..\macsw\export/co_math.h ****     THIS SOFTWARE IS PROVIDED BY THE COPYRIGHT HOLDERS AND CONTRIBUTORS "AS IS"
  24:..\..\..\..\macsw\export/co_math.h **** AND ANY EXPRESS OR IMPLIED WARRANTIES, INCLUDING, BUT NOT LIMITED TO, THE IMPLIED
  25:..\..\..\..\macsw\export/co_math.h **** WARRANTIES OF MERCHANTABILITY AND FITNESS FOR A PARTICULAR PURPOSE ARE DISCLAIMED.
  26:..\..\..\..\macsw\export/co_math.h **** IN NO EVENT SHALL THE COPYRIGHT HOLDER OR CONTRIBUTORS BE LIABLE FOR ANY DIRECT,
  27:..\..\..\..\macsw\export/co_math.h **** INDIRECT, INCIDENTAL, SPECIAL, EXEMPLARY, OR CONSEQUENTIAL DAMAGES (INCLUDING, BUT
  28:..\..\..\..\macsw\export/co_math.h **** NOT LIMITED TO, PROCUREMENT OF SUBSTITUTE GOODS OR SERVICES; LOSS OF USE, DATA, OR
  29:..\..\..\..\macsw\export/co_math.h **** PROFITS; OR BUSINESS INTERRUPTION) HOWEVER CAUSED AND ON ANY THEORY OF LIABILITY,
  30:..\..\..\..\macsw\export/co_math.h **** WHETHER IN CONTRACT, STRICT LIABILITY, OR TORT (INCLUDING NEGLIGENCE OR OTHERWISE)
  31:..\..\..\..\macsw\export/co_math.h **** ARISING IN ANY WAY OUT OF THE USE OF THIS SOFTWARE, EVEN IF ADVISED OF THE POSSIBILITY
  32:..\..\..\..\macsw\export/co_math.h **** OF SUCH DAMAGE.
  33:..\..\..\..\macsw\export/co_math.h **** */
  34:..\..\..\..\macsw\export/co_math.h **** 
  35:..\..\..\..\macsw\export/co_math.h **** #ifndef _CO_MATH_H_
  36:..\..\..\..\macsw\export/co_math.h **** #define _CO_MATH_H_
  37:..\..\..\..\macsw\export/co_math.h **** 
  38:..\..\..\..\macsw\export/co_math.h **** /*
  39:..\..\..\..\macsw\export/co_math.h ****  * INCLUDE FILES
  40:..\..\..\..\macsw\export/co_math.h ****  ****************************************************************************************
  41:..\..\..\..\macsw\export/co_math.h ****  */
  42:..\..\..\..\macsw\export/co_math.h **** #include "co_int.h"        // standard integer definitions
  43:..\..\..\..\macsw\export/co_math.h **** #include "co_bool.h"       // boolean definitions
  44:..\..\..\..\macsw\export/co_math.h **** #include "co_bit.h"        // bits definitions
  45:..\..\..\..\macsw\export/co_math.h **** #include <stdlib.h>        // standard library
  46:..\..\..\..\macsw\export/co_math.h **** #include "compiler.h"      // for __INLINE
  47:..\..\..\..\macsw\export/co_math.h **** 
  48:..\..\..\..\macsw\export/co_math.h **** /*
  49:..\..\..\..\macsw\export/co_math.h ****  * MACROS
  50:..\..\..\..\macsw\export/co_math.h ****  ****************************************************************************************
  51:..\..\..\..\macsw\export/co_math.h ****  */
  52:..\..\..\..\macsw\export/co_math.h **** 
  53:..\..\..\..\macsw\export/co_math.h **** /**
  54:..\..\..\..\macsw\export/co_math.h ****  ****************************************************************************************
  55:..\..\..\..\macsw\export/co_math.h ****  * @brief Align val on the multiple of 4 equal or nearest higher.
  56:..\..\..\..\macsw\export/co_math.h ****  * @param[in] val Value to align.
  57:..\..\..\..\macsw\export/co_math.h ****  * @return Value aligned.
  58:..\..\..\..\macsw\export/co_math.h ****  ****************************************************************************************
  59:..\..\..\..\macsw\export/co_math.h ****  */
  60:..\..\..\..\macsw\export/co_math.h **** #define CO_ALIGN4_HI(val) (((val) + 3) & ~3)
  61:..\..\..\..\macsw\export/co_math.h **** 
  62:..\..\..\..\macsw\export/co_math.h **** /**
  63:..\..\..\..\macsw\export/co_math.h ****  ****************************************************************************************
  64:..\..\..\..\macsw\export/co_math.h ****  * @brief Align val on the multiple of a given number equal or nearest higher.
  65:..\..\..\..\macsw\export/co_math.h ****  *
  66:..\..\..\..\macsw\export/co_math.h ****  * x value should be a power of 2.
  67:..\..\..\..\macsw\export/co_math.h ****  *
  68:..\..\..\..\macsw\export/co_math.h ****  * @param[in] val  Value to align.
  69:..\..\..\..\macsw\export/co_math.h ****  * @param[in] x    Multiple value.
  70:..\..\..\..\macsw\export/co_math.h ****  * @return Value   aligned.
  71:..\..\..\..\macsw\export/co_math.h ****  ****************************************************************************************
  72:..\..\..\..\macsw\export/co_math.h ****  */
  73:..\..\..\..\macsw\export/co_math.h **** #define CO_ALIGNx_HI(val, x) (((val) + ((x) - 1)) & ~((x) - 1))
  74:..\..\..\..\macsw\export/co_math.h **** 
  75:..\..\..\..\macsw\export/co_math.h **** /**
  76:..\..\..\..\macsw\export/co_math.h ****  ****************************************************************************************
  77:..\..\..\..\macsw\export/co_math.h ****  * @brief Align val on the multiple of 4 equal or nearest lower.
  78:..\..\..\..\macsw\export/co_math.h ****  * @param[in] val Value to align.
  79:..\..\..\..\macsw\export/co_math.h ****  * @return Value aligned.
  80:..\..\..\..\macsw\export/co_math.h ****  ****************************************************************************************
  81:..\..\..\..\macsw\export/co_math.h ****  */
  82:..\..\..\..\macsw\export/co_math.h **** #define CO_ALIGN4_LO(val) ((val) & ~3)
  83:..\..\..\..\macsw\export/co_math.h **** 
  84:..\..\..\..\macsw\export/co_math.h **** /**
  85:..\..\..\..\macsw\export/co_math.h ****  ****************************************************************************************
  86:..\..\..\..\macsw\export/co_math.h ****  * @brief Align val on the multiple of 2 equal or nearest higher.
  87:..\..\..\..\macsw\export/co_math.h ****  * @param[in] val Value to align.
  88:..\..\..\..\macsw\export/co_math.h ****  * @return Value aligned.
  89:..\..\..\..\macsw\export/co_math.h ****  ****************************************************************************************
  90:..\..\..\..\macsw\export/co_math.h ****  */
  91:..\..\..\..\macsw\export/co_math.h **** #define CO_ALIGN2_HI(val) (((val) + 1) & ~1)
  92:..\..\..\..\macsw\export/co_math.h **** 
  93:..\..\..\..\macsw\export/co_math.h **** /**
  94:..\..\..\..\macsw\export/co_math.h ****  ****************************************************************************************
  95:..\..\..\..\macsw\export/co_math.h ****  * @brief Align val on the multiple of 2 equal or nearest lower.
  96:..\..\..\..\macsw\export/co_math.h ****  * @param[in] val Value to align.
  97:..\..\..\..\macsw\export/co_math.h ****  * @return Value aligned.
  98:..\..\..\..\macsw\export/co_math.h ****  ****************************************************************************************
  99:..\..\..\..\macsw\export/co_math.h ****  */
 100:..\..\..\..\macsw\export/co_math.h **** #define CO_ALIGN2_LO(val) ((val) & ~1)
 101:..\..\..\..\macsw\export/co_math.h **** 
 102:..\..\..\..\macsw\export/co_math.h **** /*
 103:..\..\..\..\macsw\export/co_math.h ****  * FUNCTION DEFINTIONS
 104:..\..\..\..\macsw\export/co_math.h ****  ****************************************************************************************
 105:..\..\..\..\macsw\export/co_math.h ****  */
 106:..\..\..\..\macsw\export/co_math.h **** /**
 107:..\..\..\..\macsw\export/co_math.h ****  ****************************************************************************************
 108:..\..\..\..\macsw\export/co_math.h ****  * @brief Count leading zeros.
 109:..\..\..\..\macsw\export/co_math.h ****  * @param[in] val Value to count the number of leading zeros on.
 110:..\..\..\..\macsw\export/co_math.h ****  * @return Number of leading zeros when value is written as 32 bits.
 111:..\..\..\..\macsw\export/co_math.h ****  ****************************************************************************************
 112:..\..\..\..\macsw\export/co_math.h ****  */
 113:..\..\..\..\macsw\export/co_math.h **** __INLINE uint32_t co_clz(uint32_t val)
 114:..\..\..\..\macsw\export/co_math.h **** {
 115:..\..\..\..\macsw\export/co_math.h **** //    #if defined(__arm__)
 116:..\..\..\..\macsw\export/co_math.h **** //    return __builtin_clz(val);
 117:..\..\..\..\macsw\export/co_math.h **** //    #elif defined(__GNUC__)
 118:..\..\..\..\macsw\export/co_math.h **** //    if (val == 0)
 119:..\..\..\..\macsw\export/co_math.h **** //    {
 120:..\..\..\..\macsw\export/co_math.h **** //        return 32;
 121:..\..\..\..\macsw\export/co_math.h **** //    }
 122:..\..\..\..\macsw\export/co_math.h **** //    return __builtin_clz(val);
 123:..\..\..\..\macsw\export/co_math.h **** //    #else
 124:..\..\..\..\macsw\export/co_math.h ****     uint32_t tmp;
 125:..\..\..\..\macsw\export/co_math.h ****     uint32_t shift = 0;
 126:..\..\..\..\macsw\export/co_math.h **** 
 127:..\..\..\..\macsw\export/co_math.h ****     if (val == 0)
 128:..\..\..\..\macsw\export/co_math.h ****     {
 129:..\..\..\..\macsw\export/co_math.h ****         return 32;
 130:..\..\..\..\macsw\export/co_math.h ****     }
 131:..\..\..\..\macsw\export/co_math.h **** 
 132:..\..\..\..\macsw\export/co_math.h ****     tmp = val >> 16;
 133:..\..\..\..\macsw\export/co_math.h ****     if (tmp)
 134:..\..\..\..\macsw\export/co_math.h ****     {
 135:..\..\..\..\macsw\export/co_math.h ****         shift = 16;
 136:..\..\..\..\macsw\export/co_math.h ****         val = tmp;
 137:..\..\..\..\macsw\export/co_math.h ****     }
 138:..\..\..\..\macsw\export/co_math.h **** 
 139:..\..\..\..\macsw\export/co_math.h ****     tmp = val >> 8;
 140:..\..\..\..\macsw\export/co_math.h ****     if (tmp)
 141:..\..\..\..\macsw\export/co_math.h ****     {
 142:..\..\..\..\macsw\export/co_math.h ****         shift += 8;
 143:..\..\..\..\macsw\export/co_math.h ****         val = tmp;
 144:..\..\..\..\macsw\export/co_math.h ****     }
 145:..\..\..\..\macsw\export/co_math.h **** 
 146:..\..\..\..\macsw\export/co_math.h ****     tmp = val >> 4;
 147:..\..\..\..\macsw\export/co_math.h ****     if (tmp)
 148:..\..\..\..\macsw\export/co_math.h ****     {
 149:..\..\..\..\macsw\export/co_math.h ****         shift += 4;
 150:..\..\..\..\macsw\export/co_math.h ****         val = tmp;
 151:..\..\..\..\macsw\export/co_math.h ****     }
 152:..\..\..\..\macsw\export/co_math.h **** 
 153:..\..\..\..\macsw\export/co_math.h ****     tmp = val >> 2;
 154:..\..\..\..\macsw\export/co_math.h ****     if (tmp)
 155:..\..\..\..\macsw\export/co_math.h ****     {
 156:..\..\..\..\macsw\export/co_math.h ****         shift += 2;
 157:..\..\..\..\macsw\export/co_math.h ****         val = tmp;
 158:..\..\..\..\macsw\export/co_math.h ****     }
 159:..\..\..\..\macsw\export/co_math.h **** 
 160:..\..\..\..\macsw\export/co_math.h ****     tmp = val >> 1;
 161:..\..\..\..\macsw\export/co_math.h ****     if (tmp)
 162:..\..\..\..\macsw\export/co_math.h ****     {
 163:..\..\..\..\macsw\export/co_math.h ****         shift += 1;
 164:..\..\..\..\macsw\export/co_math.h ****     }
 165:..\..\..\..\macsw\export/co_math.h **** 
 166:..\..\..\..\macsw\export/co_math.h ****     return (31 - shift);
 167:..\..\..\..\macsw\export/co_math.h **** //    #endif // defined(__arm__)
 168:..\..\..\..\macsw\export/co_math.h **** }
 169:..\..\..\..\macsw\export/co_math.h **** 
 170:..\..\..\..\macsw\export/co_math.h **** /**
 171:..\..\..\..\macsw\export/co_math.h ****  ****************************************************************************************
 172:..\..\..\..\macsw\export/co_math.h ****  * @brief Find last bit set.
 173:..\..\..\..\macsw\export/co_math.h ****  *
 174:..\..\..\..\macsw\export/co_math.h ****  * @param[in] val Value to count the last bit set.
 175:..\..\..\..\macsw\export/co_math.h ****  *
 176:..\..\..\..\macsw\export/co_math.h ****  * @return The index of the most significant bit set in a 32-bit word, -1 if value is 0
 177:..\..\..\..\macsw\export/co_math.h ****  ****************************************************************************************
 178:..\..\..\..\macsw\export/co_math.h ****  */
 179:..\..\..\..\macsw\export/co_math.h **** __INLINE int co_fls(uint32_t val)
 180:..\..\..\..\macsw\export/co_math.h **** {
 181:..\..\..\..\macsw\export/co_math.h ****     return (31 - co_clz(val));
 182:..\..\..\..\macsw\export/co_math.h **** }
 183:..\..\..\..\macsw\export/co_math.h **** 
 184:..\..\..\..\macsw\export/co_math.h **** /**
 185:..\..\..\..\macsw\export/co_math.h ****  ****************************************************************************************
 186:..\..\..\..\macsw\export/co_math.h ****  * @brief Function to initialize the random seed.
 187:..\..\..\..\macsw\export/co_math.h ****  * @param[in] seed The seed number to use to generate the random sequence.
 188:..\..\..\..\macsw\export/co_math.h ****  ****************************************************************************************
 189:..\..\..\..\macsw\export/co_math.h ****  */
 190:..\..\..\..\macsw\export/co_math.h **** __INLINE void co_random_init(uint32_t seed)
 191:..\..\..\..\macsw\export/co_math.h **** {
 192:..\..\..\..\macsw\export/co_math.h ****     srand(seed);
 193:..\..\..\..\macsw\export/co_math.h **** }
 194:..\..\..\..\macsw\export/co_math.h **** 
 195:..\..\..\..\macsw\export/co_math.h **** /**
 196:..\..\..\..\macsw\export/co_math.h ****  ****************************************************************************************
 197:..\..\..\..\macsw\export/co_math.h ****  * @brief Function to get an 8 bit random number.
 198:..\..\..\..\macsw\export/co_math.h ****  * @return Random byte value.
 199:..\..\..\..\macsw\export/co_math.h ****  ****************************************************************************************
 200:..\..\..\..\macsw\export/co_math.h ****  */
 201:..\..\..\..\macsw\export/co_math.h **** __INLINE uint8_t co_rand_byte(void)
 202:..\..\..\..\macsw\export/co_math.h **** {
 203:..\..\..\..\macsw\export/co_math.h ****     return (uint8_t)(rand() & 0xFF);
 204:..\..\..\..\macsw\export/co_math.h **** }
 205:..\..\..\..\macsw\export/co_math.h **** 
 206:..\..\..\..\macsw\export/co_math.h **** /**
 207:..\..\..\..\macsw\export/co_math.h ****  ****************************************************************************************
 208:..\..\..\..\macsw\export/co_math.h ****  * @brief Function to get an 16 bit random number.
 209:..\..\..\..\macsw\export/co_math.h ****  * @return Random half word value.
 210:..\..\..\..\macsw\export/co_math.h ****  ****************************************************************************************
 211:..\..\..\..\macsw\export/co_math.h ****  */
 212:..\..\..\..\macsw\export/co_math.h **** __INLINE uint16_t co_rand_hword(void)
 213:..\..\..\..\macsw\export/co_math.h **** {
 214:..\..\..\..\macsw\export/co_math.h ****     return (uint16_t)(rand() & 0xFFFF);
 215:..\..\..\..\macsw\export/co_math.h **** }
 216:..\..\..\..\macsw\export/co_math.h **** 
 217:..\..\..\..\macsw\export/co_math.h **** /**
 218:..\..\..\..\macsw\export/co_math.h ****  ****************************************************************************************
 219:..\..\..\..\macsw\export/co_math.h ****  * @brief Function to get an 32 bit random number.
 220:..\..\..\..\macsw\export/co_math.h ****  * @return Random word value.
 221:..\..\..\..\macsw\export/co_math.h ****  ****************************************************************************************
 222:..\..\..\..\macsw\export/co_math.h ****  */
 223:..\..\..\..\macsw\export/co_math.h **** __INLINE uint32_t co_rand_word(void)
 224:..\..\..\..\macsw\export/co_math.h **** {
 225:..\..\..\..\macsw\export/co_math.h ****     return (uint32_t)rand();
 226:..\..\..\..\macsw\export/co_math.h **** }
 227:..\..\..\..\macsw\export/co_math.h **** 
 228:..\..\..\..\macsw\export/co_math.h **** /**
 229:..\..\..\..\macsw\export/co_math.h ****  ****************************************************************************************
 230:..\..\..\..\macsw\export/co_math.h ****  * @brief Function to return the smallest of 2 unsigned 32 bits words.
 231:..\..\..\..\macsw\export/co_math.h ****  * @param[in] a First value
 232:..\..\..\..\macsw\export/co_math.h ****  * @param[in] b Second value
 233:..\..\..\..\macsw\export/co_math.h ****  * @return The smallest value between a and b
 234:..\..\..\..\macsw\export/co_math.h ****  ****************************************************************************************
 235:..\..\..\..\macsw\export/co_math.h ****  */
 236:..\..\..\..\macsw\export/co_math.h **** __INLINE uint32_t co_min(uint32_t a, uint32_t b)
 237:..\..\..\..\macsw\export/co_math.h **** {
 238:..\..\..\..\macsw\export/co_math.h ****     return a < b ? a : b;
 797              		.loc 2 238 5
 798              	.LBB72:
 799              	.LBB70:
 800              	.LBB62:
 801              	.LBB63:
 802              		.loc 2 238 5
 803              	.LBE63:
 804              	.LBE62:
 108:C:/Users/stapi/OneDrive/Desktop/GD32VW553/GD32VW55X_Wifi_BLE_SDK/GD32VW55x_RELEASE_V1.0.2/MSDK/ble/app\app_blue_courier_link.c ****     handshake_rsp.recv_size = BCW_VALUE_LEN;
 805              		.loc 1 108 25 is_stmt 0
 806 0062 8357A100 		lhu	a5,10(sp)
 807              	.LVL66:
 808              	.LBB67:
 809              	.LBB64:
 810              		.loc 2 238 22
 811 0066 13070010 		li	a4,256
 812              	.LBE64:
 813              	.LBE67:
 109:C:/Users/stapi/OneDrive/Desktop/GD32VW553/GD32VW55X_Wifi_BLE_SDK/GD32VW55x_RELEASE_V1.0.2/MSDK/ble/app\app_blue_courier_link.c ****     bcwl_env.peer_recv_size = co_min(handshake->recv_size, BCW_VALUE_LEN);
 814              		.loc 1 109 29
 815 006a 93060020 		li	a3,512
 816              	.LBB68:
 817              	.LBB65:
 818              		.loc 2 238 22
 819 006e B3D7E70A 		minu	a5,a5,a4
 820              	.LVL67:
 821              	.LBE65:
 822              	.LBE68:
 108:C:/Users/stapi/OneDrive/Desktop/GD32VW553/GD32VW55X_Wifi_BLE_SDK/GD32VW55x_RELEASE_V1.0.2/MSDK/ble/app\app_blue_courier_link.c ****     handshake_rsp.recv_size = BCW_VALUE_LEN;
 823              		.loc 1 108 25
 824 0072 03D70400 		lhu	a4,0(s1)
 109:C:/Users/stapi/OneDrive/Desktop/GD32VW553/GD32VW55X_Wifi_BLE_SDK/GD32VW55x_RELEASE_V1.0.2/MSDK/ble/app\app_blue_courier_link.c ****     bcwl_env.peer_recv_size = co_min(handshake->recv_size, BCW_VALUE_LEN);
 825              		.loc 1 109 29
 826 0076 2317D100 		sh	a3,14(sp)
 827              	.LBB69:
 828              	.LBB66:
 829              		.loc 2 238 22
 830 007a B3D7E70A 		minu	a5,a5,a4
 831              	.LVL68:
 832              	.LBE66:
 833              	.LBE69:
 110:C:/Users/stapi/OneDrive/Desktop/GD32VW553/GD32VW55X_Wifi_BLE_SDK/GD32VW55x_RELEASE_V1.0.2/MSDK/ble/app\app_blue_courier_link.c ****     bcwl_env.frag_size = handshake_rsp.mtu - sizeof(bcwl_header_t) - BLE_GATT_HEADER_LEN - 2/*crc *
 834              		.loc 1 110 29
 835 007e 03D72400 		lhu	a4,2(s1)
 108:C:/Users/stapi/OneDrive/Desktop/GD32VW553/GD32VW55X_Wifi_BLE_SDK/GD32VW55x_RELEASE_V1.0.2/MSDK/ble/app\app_blue_courier_link.c ****     handshake_rsp.recv_size = BCW_VALUE_LEN;
 836              		.loc 1 108 23
 837 0082 2316F100 		sh	a5,12(sp)
 109:C:/Users/stapi/OneDrive/Desktop/GD32VW553/GD32VW55X_Wifi_BLE_SDK/GD32VW55x_RELEASE_V1.0.2/MSDK/ble/app\app_blue_courier_link.c ****     bcwl_env.peer_recv_size = co_min(handshake->recv_size, BCW_VALUE_LEN);
 838              		.loc 1 109 5 is_stmt 1
 110:C:/Users/stapi/OneDrive/Desktop/GD32VW553/GD32VW55X_Wifi_BLE_SDK/GD32VW55x_RELEASE_V1.0.2/MSDK/ble/app\app_blue_courier_link.c ****     bcwl_env.frag_size = handshake_rsp.mtu - sizeof(bcwl_header_t) - BLE_GATT_HEADER_LEN - 2/*crc *
 839              		.loc 1 110 5
 840              	.LVL69:
 841              	.LBE70:
 842              	.LBE72:
 843              		.loc 2 238 5
 844              	.LBB73:
 845              	.LBB71:
 111:C:/Users/stapi/OneDrive/Desktop/GD32VW553/GD32VW55X_Wifi_BLE_SDK/GD32VW55x_RELEASE_V1.0.2/MSDK/ble/app\app_blue_courier_link.c ****     bcwl_env.handshake_success = true;
 846              		.loc 1 111 90 is_stmt 0
 847 0086 DD17     		addi	a5,a5,-9
 110:C:/Users/stapi/OneDrive/Desktop/GD32VW553/GD32VW55X_Wifi_BLE_SDK/GD32VW55x_RELEASE_V1.0.2/MSDK/ble/app\app_blue_courier_link.c ****     bcwl_env.frag_size = handshake_rsp.mtu - sizeof(bcwl_header_t) - BLE_GATT_HEADER_LEN - 2/*crc *
 848              		.loc 1 110 29
 849 0088 3357D70A 		minu	a4,a4,a3
 850 008c 231DE400 		sh	a4,26(s0)
 111:C:/Users/stapi/OneDrive/Desktop/GD32VW553/GD32VW55X_Wifi_BLE_SDK/GD32VW55x_RELEASE_V1.0.2/MSDK/ble/app\app_blue_courier_link.c ****     bcwl_env.handshake_success = true;
 851              		.loc 1 111 5 is_stmt 1
 114:C:/Users/stapi/OneDrive/Desktop/GD32VW553/GD32VW55X_Wifi_BLE_SDK/GD32VW55x_RELEASE_V1.0.2/MSDK/ble/app\app_blue_courier_link.c **** 
 852              		.loc 1 114 5 is_stmt 0
 853 0090 03470900 		lbu	a4,%lo(global_debug_level)(s2)
 111:C:/Users/stapi/OneDrive/Desktop/GD32VW553/GD32VW55X_Wifi_BLE_SDK/GD32VW55x_RELEASE_V1.0.2/MSDK/ble/app\app_blue_courier_link.c ****     bcwl_env.handshake_success = true;
 854              		.loc 1 111 24
 855 0094 230CF400 		sb	a5,24(s0)
 112:C:/Users/stapi/OneDrive/Desktop/GD32VW553/GD32VW55X_Wifi_BLE_SDK/GD32VW55x_RELEASE_V1.0.2/MSDK/ble/app\app_blue_courier_link.c **** 
 856              		.loc 1 112 5 is_stmt 1
 112:C:/Users/stapi/OneDrive/Desktop/GD32VW553/GD32VW55X_Wifi_BLE_SDK/GD32VW55x_RELEASE_V1.0.2/MSDK/ble/app\app_blue_courier_link.c **** 
 857              		.loc 1 112 32 is_stmt 0
 858 0098 8547     		li	a5,1
 859 009a 230EF400 		sb	a5,28(s0)
 114:C:/Users/stapi/OneDrive/Desktop/GD32VW553/GD32VW55X_Wifi_BLE_SDK/GD32VW55x_RELEASE_V1.0.2/MSDK/ble/app\app_blue_courier_link.c **** 
 860              		.loc 1 114 5 is_stmt 1
 114:C:/Users/stapi/OneDrive/Desktop/GD32VW553/GD32VW55X_Wifi_BLE_SDK/GD32VW55x_RELEASE_V1.0.2/MSDK/ble/app\app_blue_courier_link.c **** 
 861              		.loc 1 114 5
 862 009e 8947     		li	a5,2
 863 00a0 63FEE700 		bleu	a4,a5,.L66
 114:C:/Users/stapi/OneDrive/Desktop/GD32VW553/GD32VW55X_Wifi_BLE_SDK/GD32VW55x_RELEASE_V1.0.2/MSDK/ble/app\app_blue_courier_link.c **** 
 864              		.loc 1 114 5
 865 00a4 B7050000 		lui	a1,%hi(.LANCHOR5)
 866 00a8 37050000 		lui	a0,%hi(.LC5)
 867 00ac 93850500 		addi	a1,a1,%lo(.LANCHOR5)
 868 00b0 13050500 		addi	a0,a0,%lo(.LC5)
 869 00b4 97000000 		call	co_printf
 869      E7800000 
 870              	.LVL70:
 871              	.L66:
 114:C:/Users/stapi/OneDrive/Desktop/GD32VW553/GD32VW55X_Wifi_BLE_SDK/GD32VW55x_RELEASE_V1.0.2/MSDK/ble/app\app_blue_courier_link.c **** 
 872              		.loc 1 114 5
 116:C:/Users/stapi/OneDrive/Desktop/GD32VW553/GD32VW55X_Wifi_BLE_SDK/GD32VW55x_RELEASE_V1.0.2/MSDK/ble/app\app_blue_courier_link.c ****         (uint8_t *)&handshake_rsp, sizeof(bcwl_mgmt_handshake_t));
 873              		.loc 1 116 5
 874 00bc 1146     		li	a2,4
 875 00be 6C00     		addi	a1,sp,12
 876 00c0 0145     		li	a0,0
 877 00c2 97000000 		call	bcwl_send
 877      E7800000 
 878              	.LVL71:
 879 00ca 95BF     		j	.L62
 880              	.LBE71:
 881              	.LBE73:
 882              		.cfi_endproc
 883              	.LFE16:
 885              		.section	.rodata.bcwl_msg_handler.str1.4,"aMS",@progbits,1
 886              		.align	2
 887              	.LC6:
 888 0000 25732075 		.string	"%s unknown opcode %x\n"
 888      6E6B6E6F 
 888      776E206F 
 888      70636F64 
 888      65202578 
 889              		.section	.text.bcwl_msg_handler,"ax",@progbits
 890              		.align	1
 891              		.globl	bcwl_msg_handler
 893              	bcwl_msg_handler:
 894              	.LFB17:
 129:C:/Users/stapi/OneDrive/Desktop/GD32VW553/GD32VW55X_Wifi_BLE_SDK/GD32VW55x_RELEASE_V1.0.2/MSDK/ble/app\app_blue_courier_link.c ****     switch (BCWL_OPCODE_GET_TYPE(opcode)) {
 895              		.loc 1 129 1
 896              		.cfi_startproc
 897              	.LVL72:
 898 0000 17030000 		call	t0,__riscv_save_0
 898      E7020300 
 899              		.cfi_offset 1, -4
 900              		.cfi_def_cfa_offset 16
 130:C:/Users/stapi/OneDrive/Desktop/GD32VW553/GD32VW55X_Wifi_BLE_SDK/GD32VW55x_RELEASE_V1.0.2/MSDK/ble/app\app_blue_courier_link.c ****     case BCWL_OPCODE_TYPE_MGMT:
 901              		.loc 1 130 5
 130:C:/Users/stapi/OneDrive/Desktop/GD32VW553/GD32VW55X_Wifi_BLE_SDK/GD32VW55x_RELEASE_V1.0.2/MSDK/ble/app\app_blue_courier_link.c ****     case BCWL_OPCODE_TYPE_MGMT:
 902              		.loc 1 130 13 is_stmt 0
 903 0008 93566500 		srli	a3,a0,6
 129:C:/Users/stapi/OneDrive/Desktop/GD32VW553/GD32VW55X_Wifi_BLE_SDK/GD32VW55x_RELEASE_V1.0.2/MSDK/ble/app\app_blue_courier_link.c ****     switch (BCWL_OPCODE_GET_TYPE(opcode)) {
 904              		.loc 1 129 1
 905 000c AA87     		mv	a5,a0
 130:C:/Users/stapi/OneDrive/Desktop/GD32VW553/GD32VW55X_Wifi_BLE_SDK/GD32VW55x_RELEASE_V1.0.2/MSDK/ble/app\app_blue_courier_link.c ****     case BCWL_OPCODE_TYPE_MGMT:
 906              		.loc 1 130 5
 907 000e 85CE     		beq	a3,zero,.L72
 908 0010 0547     		li	a4,1
 909 0012 638DE604 		beq	a3,a4,.L73
 910              	.L76:
 141:C:/Users/stapi/OneDrive/Desktop/GD32VW553/GD32VW55X_Wifi_BLE_SDK/GD32VW55x_RELEASE_V1.0.2/MSDK/ble/app\app_blue_courier_link.c ****             bcwl_error_report(BCWL_ERR_UNKNOWN_OPCODE);
 911              		.loc 1 141 13 is_stmt 1
 141:C:/Users/stapi/OneDrive/Desktop/GD32VW553/GD32VW55X_Wifi_BLE_SDK/GD32VW55x_RELEASE_V1.0.2/MSDK/ble/app\app_blue_courier_link.c ****             bcwl_error_report(BCWL_ERR_UNKNOWN_OPCODE);
 912              		.loc 1 141 13
 913 0016 37070000 		lui	a4,%hi(global_debug_level)
 914 001a 03470700 		lbu	a4,%lo(global_debug_level)(a4)
 915 001e 11CF     		beq	a4,zero,.L78
 141:C:/Users/stapi/OneDrive/Desktop/GD32VW553/GD32VW55X_Wifi_BLE_SDK/GD32VW55x_RELEASE_V1.0.2/MSDK/ble/app\app_blue_courier_link.c ****             bcwl_error_report(BCWL_ERR_UNKNOWN_OPCODE);
 916              		.loc 1 141 13 discriminator 1
 917 0020 B7050000 		lui	a1,%hi(.LANCHOR6)
 918              	.LVL73:
 919 0024 37050000 		lui	a0,%hi(.LC6)
 920              	.LVL74:
 921 0028 3E86     		mv	a2,a5
 922              	.LVL75:
 923 002a 93850500 		addi	a1,a1,%lo(.LANCHOR6)
 924 002e 13050500 		addi	a0,a0,%lo(.LC6)
 925 0032 97000000 		call	co_printf
 925      E7800000 
 926              	.LVL76:
 927              	.L78:
 141:C:/Users/stapi/OneDrive/Desktop/GD32VW553/GD32VW55X_Wifi_BLE_SDK/GD32VW55x_RELEASE_V1.0.2/MSDK/ble/app\app_blue_courier_link.c ****             bcwl_error_report(BCWL_ERR_UNKNOWN_OPCODE);
 928              		.loc 1 141 13 discriminator 3
 142:C:/Users/stapi/OneDrive/Desktop/GD32VW553/GD32VW55X_Wifi_BLE_SDK/GD32VW55x_RELEASE_V1.0.2/MSDK/ble/app\app_blue_courier_link.c ****             break;
 929              		.loc 1 142 13 discriminator 3
 930 003a 0945     		li	a0,2
 931 003c 97000000 		call	bcwl_error_report
 931      E7800000 
 932              	.LVL77:
 143:C:/Users/stapi/OneDrive/Desktop/GD32VW553/GD32VW55X_Wifi_BLE_SDK/GD32VW55x_RELEASE_V1.0.2/MSDK/ble/app\app_blue_courier_link.c ****         }
 933              		.loc 1 143 13 discriminator 3
 934 0044 09A8     		j	.L71
 935              	.LVL78:
 936              	.L72:
 132:C:/Users/stapi/OneDrive/Desktop/GD32VW553/GD32VW55X_Wifi_BLE_SDK/GD32VW55x_RELEASE_V1.0.2/MSDK/ble/app\app_blue_courier_link.c ****         case BCWL_OPCODE_MGMT_SUBTYPE_HANDSHAKE:
 937              		.loc 1 132 9
 938 0046 01CD     		beq	a0,zero,.L75
 939 0048 1307F5FF 		addi	a4,a0,-1
 940 004c 1377F70F 		andi	a4,a4,0xff
 941 0050 8546     		li	a3,1
 942 0052 E3E2E6FC 		bgtu	a4,a3,.L76
 943              	.LVL79:
 944              	.L71:
 153:C:/Users/stapi/OneDrive/Desktop/GD32VW553/GD32VW55X_Wifi_BLE_SDK/GD32VW55x_RELEASE_V1.0.2/MSDK/ble/app\app_blue_courier_link.c **** 
 945              		.loc 1 153 1 is_stmt 0
 946 0056 17030000 		tail	__riscv_restore_0
 946      67000300 
 947              		.cfi_remember_state
 948              		.cfi_restore 1
 949              		.cfi_def_cfa_offset 0
 950              	.LVL80:
 951              	.L75:
 952              		.cfi_restore_state
 953 005e 2E85     		mv	a0,a1
 954              	.LVL81:
 134:C:/Users/stapi/OneDrive/Desktop/GD32VW553/GD32VW55X_Wifi_BLE_SDK/GD32VW55x_RELEASE_V1.0.2/MSDK/ble/app\app_blue_courier_link.c ****             break;
 955              		.loc 1 134 13 is_stmt 1
 956 0060 B285     		mv	a1,a2
 957              	.LVL82:
 958 0062 97000000 		call	bcwl_handle_mgmt_handshake
 958      E7800000 
 959              	.LVL83:
 135:C:/Users/stapi/OneDrive/Desktop/GD32VW553/GD32VW55X_Wifi_BLE_SDK/GD32VW55x_RELEASE_V1.0.2/MSDK/ble/app\app_blue_courier_link.c ****         case BCWL_OPCODE_MGMT_SUBTYPE_ACK:
 960              		.loc 1 135 13
 961 006a F5B7     		j	.L71
 962              	.LVL84:
 963              	.L73:
 147:C:/Users/stapi/OneDrive/Desktop/GD32VW553/GD32VW55X_Wifi_BLE_SDK/GD32VW55x_RELEASE_V1.0.2/MSDK/ble/app\app_blue_courier_link.c ****         break;
 964              		.loc 1 147 9
 965 006c 1375F503 		andi	a0,a0,63
 966              	.LVL85:
 967 0070 97000000 		call	bcwp_msg_handler
 967      E7800000 
 968              	.LVL86:
 148:C:/Users/stapi/OneDrive/Desktop/GD32VW553/GD32VW55X_Wifi_BLE_SDK/GD32VW55x_RELEASE_V1.0.2/MSDK/ble/app\app_blue_courier_link.c ****     default:
 969              		.loc 1 148 9
 970 0078 F9BF     		j	.L71
 971              		.cfi_endproc
 972              	.LFE17:
 974              		.section	.rodata.bcwl_receive.str1.4,"aMS",@progbits,1
 975              		.align	2
 976              	.LC7:
 977 0000 25732073 		.string	"%s size error %d\n"
 977      697A6520 
 977      6572726F 
 977      72202564 
 977      0A00
 978 0012 0000     		.align	2
 979              	.LC8:
 980 0014 2573206E 		.string	"%s not handshake %d\n"
 980      6F742068 
 980      616E6473 
 980      68616B65 
 980      2025640A 
 981 0029 000000   		.align	2
 982              	.LC9:
 983 002c 25732073 		.string	"%s seq %d is not expect %d\n"
 983      65712025 
 983      64206973 
 983      206E6F74 
 983      20657870 
 984              		.align	2
 985              	.LC10:
 986 0048 25732065 		.string	"%s error %u\n"
 986      72726F72 
 986      2025750A 
 986      00
 987              		.section	.text.bcwl_receive,"ax",@progbits
 988              		.align	1
 989              		.globl	bcwl_receive
 991              	bcwl_receive:
 992              	.LFB20:
 252:C:/Users/stapi/OneDrive/Desktop/GD32VW553/GD32VW55X_Wifi_BLE_SDK/GD32VW55x_RELEASE_V1.0.2/MSDK/ble/app\app_blue_courier_link.c ****     uint8_t status = BCWL_ERR_RECV_ERROR;
 993              		.loc 1 252 1
 994              		.cfi_startproc
 995              	.LVL87:
 996 0000 17030000 		call	t0,__riscv_save_2
 996      E7020300 
 997              		.cfi_offset 9, -12
 998              		.cfi_offset 8, -8
 999              		.cfi_offset 1, -4
 1000              		.cfi_def_cfa_offset 16
 253:C:/Users/stapi/OneDrive/Desktop/GD32VW553/GD32VW55X_Wifi_BLE_SDK/GD32VW55x_RELEASE_V1.0.2/MSDK/ble/app\app_blue_courier_link.c ****     uint16_t crc, crc_pkt;
 1001              		.loc 1 253 5
 1002              	.LVL88:
 254:C:/Users/stapi/OneDrive/Desktop/GD32VW553/GD32VW55X_Wifi_BLE_SDK/GD32VW55x_RELEASE_V1.0.2/MSDK/ble/app\app_blue_courier_link.c ****     bcwl_header_t *hdr = (bcwl_header_t *)data;
 1003              		.loc 1 254 5
 255:C:/Users/stapi/OneDrive/Desktop/GD32VW553/GD32VW55X_Wifi_BLE_SDK/GD32VW55x_RELEASE_V1.0.2/MSDK/ble/app\app_blue_courier_link.c **** 
 1004              		.loc 1 255 5
 257:C:/Users/stapi/OneDrive/Desktop/GD32VW553/GD32VW55X_Wifi_BLE_SDK/GD32VW55x_RELEASE_V1.0.2/MSDK/ble/app\app_blue_courier_link.c ****         dbg_print(ERR, "%s size error %d\n", __func__, len);
 1005              		.loc 1 257 5
 257:C:/Users/stapi/OneDrive/Desktop/GD32VW553/GD32VW55X_Wifi_BLE_SDK/GD32VW55x_RELEASE_V1.0.2/MSDK/ble/app\app_blue_courier_link.c ****         dbg_print(ERR, "%s size error %d\n", __func__, len);
 1006              		.loc 1 257 8 is_stmt 0
 1007 0008 8D47     		li	a5,3
 1008 000a 63EDB702 		bgtu	a1,a5,.L90
 258:C:/Users/stapi/OneDrive/Desktop/GD32VW553/GD32VW55X_Wifi_BLE_SDK/GD32VW55x_RELEASE_V1.0.2/MSDK/ble/app\app_blue_courier_link.c ****         bcwl_error_report(BCWL_ERR_PACKET_LEN_ERROR);
 1009              		.loc 1 258 9 is_stmt 1
 258:C:/Users/stapi/OneDrive/Desktop/GD32VW553/GD32VW55X_Wifi_BLE_SDK/GD32VW55x_RELEASE_V1.0.2/MSDK/ble/app\app_blue_courier_link.c ****         bcwl_error_report(BCWL_ERR_PACKET_LEN_ERROR);
 1010              		.loc 1 258 9
 1011 000e B7070000 		lui	a5,%hi(global_debug_level)
 1012 0012 83C70700 		lbu	a5,%lo(global_debug_level)(a5)
 1013 0016 91CF     		beq	a5,zero,.L91
 1014 0018 2E86     		mv	a2,a1
 258:C:/Users/stapi/OneDrive/Desktop/GD32VW553/GD32VW55X_Wifi_BLE_SDK/GD32VW55x_RELEASE_V1.0.2/MSDK/ble/app\app_blue_courier_link.c ****         bcwl_error_report(BCWL_ERR_PACKET_LEN_ERROR);
 1015              		.loc 1 258 9 discriminator 1
 1016 001a 37050000 		lui	a0,%hi(.LC7)
 1017              	.LVL89:
 1018 001e B7050000 		lui	a1,%hi(.LANCHOR7)
 1019              	.LVL90:
 1020 0022 93850500 		addi	a1,a1,%lo(.LANCHOR7)
 1021 0026 13050500 		addi	a0,a0,%lo(.LC7)
 1022 002a 97000000 		call	co_printf
 1022      E7800000 
 1023              	.LVL91:
 1024              	.L91:
 258:C:/Users/stapi/OneDrive/Desktop/GD32VW553/GD32VW55X_Wifi_BLE_SDK/GD32VW55x_RELEASE_V1.0.2/MSDK/ble/app\app_blue_courier_link.c ****         bcwl_error_report(BCWL_ERR_PACKET_LEN_ERROR);
 1025              		.loc 1 258 9 discriminator 3
 259:C:/Users/stapi/OneDrive/Desktop/GD32VW553/GD32VW55X_Wifi_BLE_SDK/GD32VW55x_RELEASE_V1.0.2/MSDK/ble/app\app_blue_courier_link.c ****         return;
 1026              		.loc 1 259 9 discriminator 3
 1027 0032 0545     		li	a0,1
 1028              	.L137:
 1029              	.LBB76:
 1030              	.LBB77:
 266:C:/Users/stapi/OneDrive/Desktop/GD32VW553/GD32VW55X_Wifi_BLE_SDK/GD32VW55x_RELEASE_V1.0.2/MSDK/ble/app\app_blue_courier_link.c ****         return;
 1031              		.loc 1 266 9 is_stmt 0
 1032 0034 97000000 		call	bcwl_error_report
 1032      E7800000 
 1033              	.LVL92:
 267:C:/Users/stapi/OneDrive/Desktop/GD32VW553/GD32VW55X_Wifi_BLE_SDK/GD32VW55x_RELEASE_V1.0.2/MSDK/ble/app\app_blue_courier_link.c ****     }
 1034              		.loc 1 267 9 is_stmt 1
 1035              	.L89:
 1036              	.LBE77:
 1037              	.LBE76:
 343:C:/Users/stapi/OneDrive/Desktop/GD32VW553/GD32VW55X_Wifi_BLE_SDK/GD32VW55x_RELEASE_V1.0.2/MSDK/ble/app\app_blue_courier_link.c **** 
 1038              		.loc 1 343 1 is_stmt 0
 1039 003c 17030000 		tail	__riscv_restore_2
 1039      67000300 
 1040              		.cfi_remember_state
 1041              		.cfi_restore 9
 1042              		.cfi_restore 8
 1043              		.cfi_restore 1
 1044              		.cfi_def_cfa_offset 0
 1045              	.LVL93:
 1046              	.L90:
 1047              		.cfi_restore_state
 1048              	.LBB80:
 1049              	.LBB78:
 263:C:/Users/stapi/OneDrive/Desktop/GD32VW553/GD32VW55X_Wifi_BLE_SDK/GD32VW55x_RELEASE_V1.0.2/MSDK/ble/app\app_blue_courier_link.c ****         hdr->opcode != BCWL_OPCODE_BUILD(BCWL_OPCODE_TYPE_MGMT, BCWL_OPCODE_MGMT_SUBTYPE_HANDSHAKE)
 1050              		.loc 1 263 18
 1051 0044 37040000 		lui	s0,%hi(.LANCHOR0)
 1052 0048 93070400 		addi	a5,s0,%lo(.LANCHOR0)
 263:C:/Users/stapi/OneDrive/Desktop/GD32VW553/GD32VW55X_Wifi_BLE_SDK/GD32VW55x_RELEASE_V1.0.2/MSDK/ble/app\app_blue_courier_link.c ****         hdr->opcode != BCWL_OPCODE_BUILD(BCWL_OPCODE_TYPE_MGMT, BCWL_OPCODE_MGMT_SUBTYPE_HANDSHAKE)
 1053              		.loc 1 263 8
 1054 004c 83C7C701 		lbu	a5,28(a5)
 1055 0050 AA84     		mv	s1,a0
 1056              	.LVL94:
 263:C:/Users/stapi/OneDrive/Desktop/GD32VW553/GD32VW55X_Wifi_BLE_SDK/GD32VW55x_RELEASE_V1.0.2/MSDK/ble/app\app_blue_courier_link.c ****         hdr->opcode != BCWL_OPCODE_BUILD(BCWL_OPCODE_TYPE_MGMT, BCWL_OPCODE_MGMT_SUBTYPE_HANDSHAKE)
 1057              		.loc 1 263 5 is_stmt 1
 1058 0052 13040400 		addi	s0,s0,%lo(.LANCHOR0)
 263:C:/Users/stapi/OneDrive/Desktop/GD32VW553/GD32VW55X_Wifi_BLE_SDK/GD32VW55x_RELEASE_V1.0.2/MSDK/ble/app\app_blue_courier_link.c ****         hdr->opcode != BCWL_OPCODE_BUILD(BCWL_OPCODE_TYPE_MGMT, BCWL_OPCODE_MGMT_SUBTYPE_HANDSHAKE)
 1059              		.loc 1 263 8 is_stmt 0
 1060 0056 9DE7     		bne	a5,zero,.L93
 1061              	.LVL95:
 264:C:/Users/stapi/OneDrive/Desktop/GD32VW553/GD32VW55X_Wifi_BLE_SDK/GD32VW55x_RELEASE_V1.0.2/MSDK/ble/app\app_blue_courier_link.c ****         dbg_print(ERR, "%s not handshake %d\n", __func__, hdr->opcode);
 1062              		.loc 1 264 12
 1063 0058 03462500 		lbu	a2,2(a0)
 263:C:/Users/stapi/OneDrive/Desktop/GD32VW553/GD32VW55X_Wifi_BLE_SDK/GD32VW55x_RELEASE_V1.0.2/MSDK/ble/app\app_blue_courier_link.c ****         hdr->opcode != BCWL_OPCODE_BUILD(BCWL_OPCODE_TYPE_MGMT, BCWL_OPCODE_MGMT_SUBTYPE_HANDSHAKE)
 1064              		.loc 1 263 37
 1065 005c 05C6     		beq	a2,zero,.L93
 265:C:/Users/stapi/OneDrive/Desktop/GD32VW553/GD32VW55X_Wifi_BLE_SDK/GD32VW55x_RELEASE_V1.0.2/MSDK/ble/app\app_blue_courier_link.c ****         bcwl_error_report(BCWL_ERR_NO_HANDSHAKE);
 1066              		.loc 1 265 9 is_stmt 1
 265:C:/Users/stapi/OneDrive/Desktop/GD32VW553/GD32VW55X_Wifi_BLE_SDK/GD32VW55x_RELEASE_V1.0.2/MSDK/ble/app\app_blue_courier_link.c ****         bcwl_error_report(BCWL_ERR_NO_HANDSHAKE);
 1067              		.loc 1 265 9
 1068 005e B7070000 		lui	a5,%hi(global_debug_level)
 1069 0062 83C70700 		lbu	a5,%lo(global_debug_level)(a5)
 1070 0066 89CF     		beq	a5,zero,.L94
 265:C:/Users/stapi/OneDrive/Desktop/GD32VW553/GD32VW55X_Wifi_BLE_SDK/GD32VW55x_RELEASE_V1.0.2/MSDK/ble/app\app_blue_courier_link.c ****         bcwl_error_report(BCWL_ERR_NO_HANDSHAKE);
 1071              		.loc 1 265 9
 1072 0068 B7050000 		lui	a1,%hi(.LANCHOR7)
 1073              	.LVL96:
 1074 006c 37050000 		lui	a0,%hi(.LC8)
 1075 0070 93850500 		addi	a1,a1,%lo(.LANCHOR7)
 1076 0074 13050500 		addi	a0,a0,%lo(.LC8)
 1077 0078 97000000 		call	co_printf
 1077      E7800000 
 1078              	.LVL97:
 1079              	.L94:
 265:C:/Users/stapi/OneDrive/Desktop/GD32VW553/GD32VW55X_Wifi_BLE_SDK/GD32VW55x_RELEASE_V1.0.2/MSDK/ble/app\app_blue_courier_link.c ****         bcwl_error_report(BCWL_ERR_NO_HANDSHAKE);
 1080              		.loc 1 265 9
 266:C:/Users/stapi/OneDrive/Desktop/GD32VW553/GD32VW55X_Wifi_BLE_SDK/GD32VW55x_RELEASE_V1.0.2/MSDK/ble/app\app_blue_courier_link.c ****         return;
 1081              		.loc 1 266 9
 1082 0080 1D45     		li	a0,7
 1083 0082 4DBF     		j	.L137
 1084              	.LVL98:
 1085              	.L93:
 270:C:/Users/stapi/OneDrive/Desktop/GD32VW553/GD32VW55X_Wifi_BLE_SDK/GD32VW55x_RELEASE_V1.0.2/MSDK/ble/app\app_blue_courier_link.c ****         bcwl_send_ack(hdr->seq);
 1086              		.loc 1 270 5
 270:C:/Users/stapi/OneDrive/Desktop/GD32VW553/GD32VW55X_Wifi_BLE_SDK/GD32VW55x_RELEASE_V1.0.2/MSDK/ble/app\app_blue_courier_link.c ****         bcwl_send_ack(hdr->seq);
 1087              		.loc 1 270 8 is_stmt 0
 1088 0084 83C70400 		lbu	a5,0(s1)
 1089 0088 918B     		andi	a5,a5,4
 1090 008a 99C7     		beq	a5,zero,.L95
 271:C:/Users/stapi/OneDrive/Desktop/GD32VW553/GD32VW55X_Wifi_BLE_SDK/GD32VW55x_RELEASE_V1.0.2/MSDK/ble/app\app_blue_courier_link.c **** 
 1091              		.loc 1 271 9 is_stmt 1
 1092 008c 03C51400 		lbu	a0,1(s1)
 1093 0090 97000000 		call	bcwl_send_ack
 1093      E7800000 
 1094              	.LVL99:
 1095              	.L95:
 273:C:/Users/stapi/OneDrive/Desktop/GD32VW553/GD32VW55X_Wifi_BLE_SDK/GD32VW55x_RELEASE_V1.0.2/MSDK/ble/app\app_blue_courier_link.c ****         dbg_print(ERR, "%s seq %d is not expect %d\n", __func__, hdr->seq, bcwl_env.recv_seq);
 1096              		.loc 1 273 5
 273:C:/Users/stapi/OneDrive/Desktop/GD32VW553/GD32VW55X_Wifi_BLE_SDK/GD32VW55x_RELEASE_V1.0.2/MSDK/ble/app\app_blue_courier_link.c ****         dbg_print(ERR, "%s seq %d is not expect %d\n", __func__, hdr->seq, bcwl_env.recv_seq);
 1097              		.loc 1 273 12 is_stmt 0
 1098 0098 03C61400 		lbu	a2,1(s1)
 273:C:/Users/stapi/OneDrive/Desktop/GD32VW553/GD32VW55X_Wifi_BLE_SDK/GD32VW55x_RELEASE_V1.0.2/MSDK/ble/app\app_blue_courier_link.c ****         dbg_print(ERR, "%s seq %d is not expect %d\n", __func__, hdr->seq, bcwl_env.recv_seq);
 1099              		.loc 1 273 29
 1100 009c 8346C400 		lbu	a3,12(s0)
 273:C:/Users/stapi/OneDrive/Desktop/GD32VW553/GD32VW55X_Wifi_BLE_SDK/GD32VW55x_RELEASE_V1.0.2/MSDK/ble/app\app_blue_courier_link.c ****         dbg_print(ERR, "%s seq %d is not expect %d\n", __func__, hdr->seq, bcwl_env.recv_seq);
 1101              		.loc 1 273 8
 1102 00a0 6305D602 		beq	a2,a3,.L96
 274:C:/Users/stapi/OneDrive/Desktop/GD32VW553/GD32VW55X_Wifi_BLE_SDK/GD32VW55x_RELEASE_V1.0.2/MSDK/ble/app\app_blue_courier_link.c ****         bcwl_error_report(BCWL_ERR_SEQUENCE_ERROR);
 1103              		.loc 1 274 9 is_stmt 1
 274:C:/Users/stapi/OneDrive/Desktop/GD32VW553/GD32VW55X_Wifi_BLE_SDK/GD32VW55x_RELEASE_V1.0.2/MSDK/ble/app\app_blue_courier_link.c ****         bcwl_error_report(BCWL_ERR_SEQUENCE_ERROR);
 1104              		.loc 1 274 9
 1105 00a4 B7070000 		lui	a5,%hi(global_debug_level)
 1106 00a8 83C70700 		lbu	a5,%lo(global_debug_level)(a5)
 1107 00ac 89CF     		beq	a5,zero,.L97
 274:C:/Users/stapi/OneDrive/Desktop/GD32VW553/GD32VW55X_Wifi_BLE_SDK/GD32VW55x_RELEASE_V1.0.2/MSDK/ble/app\app_blue_courier_link.c ****         bcwl_error_report(BCWL_ERR_SEQUENCE_ERROR);
 1108              		.loc 1 274 9
 1109 00ae B7050000 		lui	a1,%hi(.LANCHOR7)
 1110 00b2 37050000 		lui	a0,%hi(.LC9)
 1111 00b6 93850500 		addi	a1,a1,%lo(.LANCHOR7)
 1112 00ba 13050500 		addi	a0,a0,%lo(.LC9)
 1113 00be 97000000 		call	co_printf
 1113      E7800000 
 1114              	.LVL100:
 1115              	.L97:
 274:C:/Users/stapi/OneDrive/Desktop/GD32VW553/GD32VW55X_Wifi_BLE_SDK/GD32VW55x_RELEASE_V1.0.2/MSDK/ble/app\app_blue_courier_link.c ****         bcwl_error_report(BCWL_ERR_SEQUENCE_ERROR);
 1116              		.loc 1 274 9
 275:C:/Users/stapi/OneDrive/Desktop/GD32VW553/GD32VW55X_Wifi_BLE_SDK/GD32VW55x_RELEASE_V1.0.2/MSDK/ble/app\app_blue_courier_link.c ****         return;
 1117              		.loc 1 275 9
 1118 00c6 2145     		li	a0,8
 1119 00c8 B5B7     		j	.L137
 1120              	.L96:
 279:C:/Users/stapi/OneDrive/Desktop/GD32VW553/GD32VW55X_Wifi_BLE_SDK/GD32VW55x_RELEASE_V1.0.2/MSDK/ble/app\app_blue_courier_link.c **** 
 1121              		.loc 1 279 5
 279:C:/Users/stapi/OneDrive/Desktop/GD32VW553/GD32VW55X_Wifi_BLE_SDK/GD32VW55x_RELEASE_V1.0.2/MSDK/ble/app\app_blue_courier_link.c **** 
 1122              		.loc 1 279 22 is_stmt 0
 1123 00ca 0506     		addi	a2,a2,1
 1124 00cc 2306C400 		sb	a2,12(s0)
 281:C:/Users/stapi/OneDrive/Desktop/GD32VW553/GD32VW55X_Wifi_BLE_SDK/GD32VW55x_RELEASE_V1.0.2/MSDK/ble/app\app_blue_courier_link.c ****     crc_pkt = hdr->data[hdr->data_len] | (((uint16_t) hdr->data[hdr->data_len + 1]) << 8);
 1125              		.loc 1 281 5 is_stmt 1
 281:C:/Users/stapi/OneDrive/Desktop/GD32VW553/GD32VW55X_Wifi_BLE_SDK/GD32VW55x_RELEASE_V1.0.2/MSDK/ble/app\app_blue_courier_link.c ****     crc_pkt = hdr->data[hdr->data_len] | (((uint16_t) hdr->data[hdr->data_len + 1]) << 8);
 1126              		.loc 1 281 34 is_stmt 0
 1127 00d0 83C53400 		lbu	a1,3(s1)
 281:C:/Users/stapi/OneDrive/Desktop/GD32VW553/GD32VW55X_Wifi_BLE_SDK/GD32VW55x_RELEASE_V1.0.2/MSDK/ble/app\app_blue_courier_link.c ****     crc_pkt = hdr->data[hdr->data_len] | (((uint16_t) hdr->data[hdr->data_len + 1]) << 8);
 1128              		.loc 1 281 11
 1129 00d4 0146     		li	a2,0
 1130 00d6 13851400 		addi	a0,s1,1
 1131 00da 8D05     		addi	a1,a1,3
 1132 00dc 97000000 		call	co_crc16
 1132      E7800000 
 1133              	.LVL101:
 282:C:/Users/stapi/OneDrive/Desktop/GD32VW553/GD32VW55X_Wifi_BLE_SDK/GD32VW55x_RELEASE_V1.0.2/MSDK/ble/app\app_blue_courier_link.c ****     if (crc != crc_pkt) {
 1134              		.loc 1 282 5 is_stmt 1
 282:C:/Users/stapi/OneDrive/Desktop/GD32VW553/GD32VW55X_Wifi_BLE_SDK/GD32VW55x_RELEASE_V1.0.2/MSDK/ble/app\app_blue_courier_link.c ****     if (crc != crc_pkt) {
 1135              		.loc 1 282 28 is_stmt 0
 1136 00e4 03C63400 		lbu	a2,3(s1)
 1137              	.LVL102:
 283:C:/Users/stapi/OneDrive/Desktop/GD32VW553/GD32VW55X_Wifi_BLE_SDK/GD32VW55x_RELEASE_V1.0.2/MSDK/ble/app\app_blue_courier_link.c ****         status = BCWL_ERR_CRC_CHECK;
 1138              		.loc 1 283 5 is_stmt 1
 282:C:/Users/stapi/OneDrive/Desktop/GD32VW553/GD32VW55X_Wifi_BLE_SDK/GD32VW55x_RELEASE_V1.0.2/MSDK/ble/app\app_blue_courier_link.c ****     if (crc != crc_pkt) {
 1139              		.loc 1 282 64 is_stmt 0
 1140 00e8 3387C400 		add	a4,s1,a2
 1141              	.LVL103:
 282:C:/Users/stapi/OneDrive/Desktop/GD32VW553/GD32VW55X_Wifi_BLE_SDK/GD32VW55x_RELEASE_V1.0.2/MSDK/ble/app\app_blue_courier_link.c ****     if (crc != crc_pkt) {
 1142              		.loc 1 282 44
 1143 00ec 83475700 		lbu	a5,5(a4)
 282:C:/Users/stapi/OneDrive/Desktop/GD32VW553/GD32VW55X_Wifi_BLE_SDK/GD32VW55x_RELEASE_V1.0.2/MSDK/ble/app\app_blue_courier_link.c ****     if (crc != crc_pkt) {
 1144              		.loc 1 282 40
 1145 00f0 03474700 		lbu	a4,4(a4)
 1146              	.LVL104:
 282:C:/Users/stapi/OneDrive/Desktop/GD32VW553/GD32VW55X_Wifi_BLE_SDK/GD32VW55x_RELEASE_V1.0.2/MSDK/ble/app\app_blue_courier_link.c ****     if (crc != crc_pkt) {
 1147              		.loc 1 282 85
 1148 00f4 A207     		slli	a5,a5,8
 283:C:/Users/stapi/OneDrive/Desktop/GD32VW553/GD32VW55X_Wifi_BLE_SDK/GD32VW55x_RELEASE_V1.0.2/MSDK/ble/app\app_blue_courier_link.c ****         status = BCWL_ERR_CRC_CHECK;
 1149              		.loc 1 283 8
 1150 00f6 D98F     		or	a5,a5,a4
 1151 00f8 6318F512 		bne	a0,a5,.L107
 288:C:/Users/stapi/OneDrive/Desktop/GD32VW553/GD32VW55X_Wifi_BLE_SDK/GD32VW55x_RELEASE_V1.0.2/MSDK/ble/app\app_blue_courier_link.c ****         if (BCWL_FLAG_IS_END(hdr->flag)) {
 1152              		.loc 1 288 5 is_stmt 1
 288:C:/Users/stapi/OneDrive/Desktop/GD32VW553/GD32VW55X_Wifi_BLE_SDK/GD32VW55x_RELEASE_V1.0.2/MSDK/ble/app\app_blue_courier_link.c ****         if (BCWL_FLAG_IS_END(hdr->flag)) {
 1153              		.loc 1 288 9 is_stmt 0
 1154 00fc 83C70400 		lbu	a5,0(s1)
 1155 0100 13F72700 		andi	a4,a5,2
 288:C:/Users/stapi/OneDrive/Desktop/GD32VW553/GD32VW55X_Wifi_BLE_SDK/GD32VW55x_RELEASE_V1.0.2/MSDK/ble/app\app_blue_courier_link.c ****         if (BCWL_FLAG_IS_END(hdr->flag)) {
 1156              		.loc 1 288 8
 1157 0104 858B     		andi	a5,a5,1
 1158 0106 D5C7     		beq	a5,zero,.L99
 289:C:/Users/stapi/OneDrive/Desktop/GD32VW553/GD32VW55X_Wifi_BLE_SDK/GD32VW55x_RELEASE_V1.0.2/MSDK/ble/app\app_blue_courier_link.c ****             /* receive complete segment */
 1159              		.loc 1 289 9 is_stmt 1
 289:C:/Users/stapi/OneDrive/Desktop/GD32VW553/GD32VW55X_Wifi_BLE_SDK/GD32VW55x_RELEASE_V1.0.2/MSDK/ble/app\app_blue_courier_link.c ****             /* receive complete segment */
 1160              		.loc 1 289 12 is_stmt 0
 1161 0108 11CB     		beq	a4,zero,.L100
 291:C:/Users/stapi/OneDrive/Desktop/GD32VW553/GD32VW55X_Wifi_BLE_SDK/GD32VW55x_RELEASE_V1.0.2/MSDK/ble/app\app_blue_courier_link.c ****         } else {
 1162              		.loc 1 291 13 is_stmt 1
 1163 010a 03C52400 		lbu	a0,2(s1)
 1164              	.LVL105:
 1165 010e 93854400 		addi	a1,s1,4
 1166 0112 97000000 		call	bcwl_msg_handler
 1166      E7800000 
 1167              	.LVL106:
 1168 011a 0DB7     		j	.L89
 1169              	.LVL107:
 1170              	.L100:
 294:C:/Users/stapi/OneDrive/Desktop/GD32VW553/GD32VW55X_Wifi_BLE_SDK/GD32VW55x_RELEASE_V1.0.2/MSDK/ble/app\app_blue_courier_link.c ****                 goto err_recv;
 1171              		.loc 1 294 13
 294:C:/Users/stapi/OneDrive/Desktop/GD32VW553/GD32VW55X_Wifi_BLE_SDK/GD32VW55x_RELEASE_V1.0.2/MSDK/ble/app\app_blue_courier_link.c ****                 goto err_recv;
 1172              		.loc 1 294 16 is_stmt 0
 1173 011c 83576401 		lhu	a5,22(s0)
 1174 0120 A9C7     		beq	a5,zero,.L101
 1175              	.LVL108:
 1176              	.L102:
 253:C:/Users/stapi/OneDrive/Desktop/GD32VW553/GD32VW55X_Wifi_BLE_SDK/GD32VW55x_RELEASE_V1.0.2/MSDK/ble/app\app_blue_courier_link.c ****     uint16_t crc, crc_pkt;
 1177              		.loc 1 253 13
 1178 0122 AD44     		li	s1,11
 1179              	.LVL109:
 1180              	.L98:
 336:C:/Users/stapi/OneDrive/Desktop/GD32VW553/GD32VW55X_Wifi_BLE_SDK/GD32VW55x_RELEASE_V1.0.2/MSDK/ble/app\app_blue_courier_link.c ****     if (bcwl_env.recv_buf != NULL) {
 1181              		.loc 1 336 5 is_stmt 1
 337:C:/Users/stapi/OneDrive/Desktop/GD32VW553/GD32VW55X_Wifi_BLE_SDK/GD32VW55x_RELEASE_V1.0.2/MSDK/ble/app\app_blue_courier_link.c ****         sys_mfree(bcwl_env.recv_buf);
 1182              		.loc 1 337 17 is_stmt 0
 1183 0124 0848     		lw	a0,16(s0)
 336:C:/Users/stapi/OneDrive/Desktop/GD32VW553/GD32VW55X_Wifi_BLE_SDK/GD32VW55x_RELEASE_V1.0.2/MSDK/ble/app\app_blue_courier_link.c ****     if (bcwl_env.recv_buf != NULL) {
 1184              		.loc 1 336 21
 1185 0126 231B0400 		sh	zero,22(s0)
 337:C:/Users/stapi/OneDrive/Desktop/GD32VW553/GD32VW55X_Wifi_BLE_SDK/GD32VW55x_RELEASE_V1.0.2/MSDK/ble/app\app_blue_courier_link.c ****         sys_mfree(bcwl_env.recv_buf);
 1186              		.loc 1 337 5 is_stmt 1
 337:C:/Users/stapi/OneDrive/Desktop/GD32VW553/GD32VW55X_Wifi_BLE_SDK/GD32VW55x_RELEASE_V1.0.2/MSDK/ble/app\app_blue_courier_link.c ****         sys_mfree(bcwl_env.recv_buf);
 1187              		.loc 1 337 8 is_stmt 0
 1188 012a 19C5     		beq	a0,zero,.L105
 338:C:/Users/stapi/OneDrive/Desktop/GD32VW553/GD32VW55X_Wifi_BLE_SDK/GD32VW55x_RELEASE_V1.0.2/MSDK/ble/app\app_blue_courier_link.c ****         bcwl_env.recv_buf = NULL;
 1189              		.loc 1 338 9 is_stmt 1
 1190 012c 97000000 		call	sys_mfree
 1190      E7800000 
 1191              	.LVL110:
 339:C:/Users/stapi/OneDrive/Desktop/GD32VW553/GD32VW55X_Wifi_BLE_SDK/GD32VW55x_RELEASE_V1.0.2/MSDK/ble/app\app_blue_courier_link.c ****     }
 1192              		.loc 1 339 9
 339:C:/Users/stapi/OneDrive/Desktop/GD32VW553/GD32VW55X_Wifi_BLE_SDK/GD32VW55x_RELEASE_V1.0.2/MSDK/ble/app\app_blue_courier_link.c ****     }
 1193              		.loc 1 339 27 is_stmt 0
 1194 0134 23280400 		sw	zero,16(s0)
 1195              	.L105:
 341:C:/Users/stapi/OneDrive/Desktop/GD32VW553/GD32VW55X_Wifi_BLE_SDK/GD32VW55x_RELEASE_V1.0.2/MSDK/ble/app\app_blue_courier_link.c ****     dbg_print(ERR, "%s error %u\n", __func__, status);
 1196              		.loc 1 341 5 is_stmt 1
 1197 0138 2685     		mv	a0,s1
 1198 013a 97000000 		call	bcwl_error_report
 1198      E7800000 
 1199              	.LVL111:
 342:C:/Users/stapi/OneDrive/Desktop/GD32VW553/GD32VW55X_Wifi_BLE_SDK/GD32VW55x_RELEASE_V1.0.2/MSDK/ble/app\app_blue_courier_link.c **** }
 1200              		.loc 1 342 5
 342:C:/Users/stapi/OneDrive/Desktop/GD32VW553/GD32VW55X_Wifi_BLE_SDK/GD32VW55x_RELEASE_V1.0.2/MSDK/ble/app\app_blue_courier_link.c **** }
 1201              		.loc 1 342 5
 1202 0142 B7070000 		lui	a5,%hi(global_debug_level)
 1203 0146 83C70700 		lbu	a5,%lo(global_debug_level)(a5)
 1204 014a E38907EE 		beq	a5,zero,.L89
 342:C:/Users/stapi/OneDrive/Desktop/GD32VW553/GD32VW55X_Wifi_BLE_SDK/GD32VW55x_RELEASE_V1.0.2/MSDK/ble/app\app_blue_courier_link.c **** }
 1205              		.loc 1 342 5
 1206 014e B7050000 		lui	a1,%hi(.LANCHOR7)
 1207 0152 37050000 		lui	a0,%hi(.LC10)
 1208 0156 2686     		mv	a2,s1
 1209 0158 93850500 		addi	a1,a1,%lo(.LANCHOR7)
 1210 015c 13050500 		addi	a0,a0,%lo(.LC10)
 1211 0160 97000000 		call	co_printf
 1211      E7800000 
 1212              	.LVL112:
 1213              	.LBE78:
 1214              	.LBE80:
 342:C:/Users/stapi/OneDrive/Desktop/GD32VW553/GD32VW55X_Wifi_BLE_SDK/GD32VW55x_RELEASE_V1.0.2/MSDK/ble/app\app_blue_courier_link.c **** }
 1215              		.loc 1 342 5
 1216 0168 D1BD     		j	.L89
 1217              	.LVL113:
 1218              	.L101:
 1219              	.LBB81:
 1220              	.LBB79:
 297:C:/Users/stapi/OneDrive/Desktop/GD32VW553/GD32VW55X_Wifi_BLE_SDK/GD32VW55x_RELEASE_V1.0.2/MSDK/ble/app\app_blue_courier_link.c ****             if (bcwl_env.total_len > BCW_VALUE_LEN)
 1221              		.loc 1 297 13
 1222 016a 03C55400 		lbu	a0,5(s1)
 1223              	.LVL114:
 1224 016e 83C74400 		lbu	a5,4(s1)
 1225 0172 2205     		slli	a0,a0,8
 1226 0174 5D8D     		or	a0,a0,a5
 297:C:/Users/stapi/OneDrive/Desktop/GD32VW553/GD32VW55X_Wifi_BLE_SDK/GD32VW55x_RELEASE_V1.0.2/MSDK/ble/app\app_blue_courier_link.c ****             if (bcwl_env.total_len > BCW_VALUE_LEN)
 1227              		.loc 1 297 32 is_stmt 0
 1228 0176 231AA400 		sh	a0,20(s0)
 1229              	.LVL115:
 298:C:/Users/stapi/OneDrive/Desktop/GD32VW553/GD32VW55X_Wifi_BLE_SDK/GD32VW55x_RELEASE_V1.0.2/MSDK/ble/app\app_blue_courier_link.c ****                 goto err_recv;
 1230              		.loc 1 298 13 is_stmt 1
 298:C:/Users/stapi/OneDrive/Desktop/GD32VW553/GD32VW55X_Wifi_BLE_SDK/GD32VW55x_RELEASE_V1.0.2/MSDK/ble/app\app_blue_courier_link.c ****                 goto err_recv;
 1231              		.loc 1 298 16 is_stmt 0
 1232 017a 93070020 		li	a5,512
 1233 017e E3E2A7FA 		bgtu	a0,a5,.L102
 301:C:/Users/stapi/OneDrive/Desktop/GD32VW553/GD32VW55X_Wifi_BLE_SDK/GD32VW55x_RELEASE_V1.0.2/MSDK/ble/app\app_blue_courier_link.c ****             if (bcwl_env.recv_buf == NULL) {
 1234              		.loc 1 301 13 is_stmt 1
 301:C:/Users/stapi/OneDrive/Desktop/GD32VW553/GD32VW55X_Wifi_BLE_SDK/GD32VW55x_RELEASE_V1.0.2/MSDK/ble/app\app_blue_courier_link.c ****             if (bcwl_env.recv_buf == NULL) {
 1235              		.loc 1 301 33 is_stmt 0
 1236 0182 97000000 		call	sys_malloc
 1236      E7800000 
 1237              	.LVL116:
 301:C:/Users/stapi/OneDrive/Desktop/GD32VW553/GD32VW55X_Wifi_BLE_SDK/GD32VW55x_RELEASE_V1.0.2/MSDK/ble/app\app_blue_courier_link.c ****             if (bcwl_env.recv_buf == NULL) {
 1238              		.loc 1 301 31
 1239 018a 08C8     		sw	a0,16(s0)
 302:C:/Users/stapi/OneDrive/Desktop/GD32VW553/GD32VW55X_Wifi_BLE_SDK/GD32VW55x_RELEASE_V1.0.2/MSDK/ble/app\app_blue_courier_link.c ****                 status = BCWL_ERR_RECV_NO_MEM;
 1240              		.loc 1 302 13 is_stmt 1
 302:C:/Users/stapi/OneDrive/Desktop/GD32VW553/GD32VW55X_Wifi_BLE_SDK/GD32VW55x_RELEASE_V1.0.2/MSDK/ble/app\app_blue_courier_link.c ****                 status = BCWL_ERR_RECV_NO_MEM;
 1241              		.loc 1 302 16 is_stmt 0
 1242 018c 45C1     		beq	a0,zero,.L108
 307:C:/Users/stapi/OneDrive/Desktop/GD32VW553/GD32VW55X_Wifi_BLE_SDK/GD32VW55x_RELEASE_V1.0.2/MSDK/ble/app\app_blue_courier_link.c ****             bcwl_env.offset = hdr->data_len - 2;
 1243              		.loc 1 307 13 is_stmt 1
 307:C:/Users/stapi/OneDrive/Desktop/GD32VW553/GD32VW55X_Wifi_BLE_SDK/GD32VW55x_RELEASE_V1.0.2/MSDK/ble/app\app_blue_courier_link.c ****             bcwl_env.offset = hdr->data_len - 2;
 1244              		.loc 1 307 52 is_stmt 0
 1245 018e 83576401 		lhu	a5,22(s0)
 307:C:/Users/stapi/OneDrive/Desktop/GD32VW553/GD32VW55X_Wifi_BLE_SDK/GD32VW55x_RELEASE_V1.0.2/MSDK/ble/app\app_blue_courier_link.c ****             bcwl_env.offset = hdr->data_len - 2;
 1246              		.loc 1 307 79
 1247 0192 03C63400 		lbu	a2,3(s1)
 307:C:/Users/stapi/OneDrive/Desktop/GD32VW553/GD32VW55X_Wifi_BLE_SDK/GD32VW55x_RELEASE_V1.0.2/MSDK/ble/app\app_blue_courier_link.c ****             bcwl_env.offset = hdr->data_len - 2;
 1248              		.loc 1 307 13
 1249 0196 93856400 		addi	a1,s1,6
 1250 019a 3E95     		add	a0,a0,a5
 1251 019c 7916     		addi	a2,a2,-2
 1252 019e 97000000 		call	sys_memcpy
 1252      E7800000 
 1253              	.LVL117:
 308:C:/Users/stapi/OneDrive/Desktop/GD32VW553/GD32VW55X_Wifi_BLE_SDK/GD32VW55x_RELEASE_V1.0.2/MSDK/ble/app\app_blue_courier_link.c ****         }
 1254              		.loc 1 308 13 is_stmt 1
 308:C:/Users/stapi/OneDrive/Desktop/GD32VW553/GD32VW55X_Wifi_BLE_SDK/GD32VW55x_RELEASE_V1.0.2/MSDK/ble/app\app_blue_courier_link.c ****         }
 1255              		.loc 1 308 34 is_stmt 0
 1256 01a6 83C73400 		lbu	a5,3(s1)
 308:C:/Users/stapi/OneDrive/Desktop/GD32VW553/GD32VW55X_Wifi_BLE_SDK/GD32VW55x_RELEASE_V1.0.2/MSDK/ble/app\app_blue_courier_link.c ****         }
 1257              		.loc 1 308 45
 1258 01aa F917     		addi	a5,a5,-2
 1259              	.L138:
 330:C:/Users/stapi/OneDrive/Desktop/GD32VW553/GD32VW55X_Wifi_BLE_SDK/GD32VW55x_RELEASE_V1.0.2/MSDK/ble/app\app_blue_courier_link.c ****     }
 1260              		.loc 1 330 25
 1261 01ac 231BF400 		sh	a5,22(s0)
 1262 01b0 71B5     		j	.L89
 1263              	.LVL118:
 1264              	.L99:
 310:C:/Users/stapi/OneDrive/Desktop/GD32VW553/GD32VW55X_Wifi_BLE_SDK/GD32VW55x_RELEASE_V1.0.2/MSDK/ble/app\app_blue_courier_link.c ****         /* receive end segment */
 1265              		.loc 1 310 12 is_stmt 1
 294:C:/Users/stapi/OneDrive/Desktop/GD32VW553/GD32VW55X_Wifi_BLE_SDK/GD32VW55x_RELEASE_V1.0.2/MSDK/ble/app\app_blue_courier_link.c ****                 goto err_recv;
 1266              		.loc 1 294 25 is_stmt 0
 1267 01b2 83576401 		lhu	a5,22(s0)
 315:C:/Users/stapi/OneDrive/Desktop/GD32VW553/GD32VW55X_Wifi_BLE_SDK/GD32VW55x_RELEASE_V1.0.2/MSDK/ble/app\app_blue_courier_link.c **** 
 1268              		.loc 1 315 28
 1269 01b6 0848     		lw	a0,16(s0)
 1270              	.LVL119:
 310:C:/Users/stapi/OneDrive/Desktop/GD32VW553/GD32VW55X_Wifi_BLE_SDK/GD32VW55x_RELEASE_V1.0.2/MSDK/ble/app\app_blue_courier_link.c ****         /* receive end segment */
 1271              		.loc 1 310 15
 1272 01b8 21C7     		beq	a4,zero,.L103
 312:C:/Users/stapi/OneDrive/Desktop/GD32VW553/GD32VW55X_Wifi_BLE_SDK/GD32VW55x_RELEASE_V1.0.2/MSDK/ble/app\app_blue_courier_link.c ****             goto err_recv;
 1273              		.loc 1 312 9 is_stmt 1
 312:C:/Users/stapi/OneDrive/Desktop/GD32VW553/GD32VW55X_Wifi_BLE_SDK/GD32VW55x_RELEASE_V1.0.2/MSDK/ble/app\app_blue_courier_link.c ****             goto err_recv;
 1274              		.loc 1 312 12 is_stmt 0
 1275 01ba A5D7     		beq	a5,zero,.L102
 312:C:/Users/stapi/OneDrive/Desktop/GD32VW553/GD32VW55X_Wifi_BLE_SDK/GD32VW55x_RELEASE_V1.0.2/MSDK/ble/app\app_blue_courier_link.c ****             goto err_recv;
 1276              		.loc 1 312 80
 1277 01bc 83564401 		lhu	a3,20(s0)
 312:C:/Users/stapi/OneDrive/Desktop/GD32VW553/GD32VW55X_Wifi_BLE_SDK/GD32VW55x_RELEASE_V1.0.2/MSDK/ble/app\app_blue_courier_link.c ****             goto err_recv;
 1278              		.loc 1 312 53
 1279 01c0 3387C700 		add	a4,a5,a2
 312:C:/Users/stapi/OneDrive/Desktop/GD32VW553/GD32VW55X_Wifi_BLE_SDK/GD32VW55x_RELEASE_V1.0.2/MSDK/ble/app\app_blue_courier_link.c ****             goto err_recv;
 1280              		.loc 1 312 34
 1281 01c4 E31FD7F4 		bne	a4,a3,.L102
 315:C:/Users/stapi/OneDrive/Desktop/GD32VW553/GD32VW55X_Wifi_BLE_SDK/GD32VW55x_RELEASE_V1.0.2/MSDK/ble/app\app_blue_courier_link.c **** 
 1282              		.loc 1 315 9 is_stmt 1
 1283 01c8 3E95     		add	a0,a0,a5
 1284 01ca 93854400 		addi	a1,s1,4
 1285 01ce 97000000 		call	sys_memcpy
 1285      E7800000 
 1286              	.LVL120:
 317:C:/Users/stapi/OneDrive/Desktop/GD32VW553/GD32VW55X_Wifi_BLE_SDK/GD32VW55x_RELEASE_V1.0.2/MSDK/ble/app\app_blue_courier_link.c **** 
 1287              		.loc 1 317 9
 1288 01d6 03C52400 		lbu	a0,2(s1)
 1289 01da 03564401 		lhu	a2,20(s0)
 1290 01de 0C48     		lw	a1,16(s0)
 1291 01e0 97000000 		call	bcwl_msg_handler
 1291      E7800000 
 1292              	.LVL121:
 319:C:/Users/stapi/OneDrive/Desktop/GD32VW553/GD32VW55X_Wifi_BLE_SDK/GD32VW55x_RELEASE_V1.0.2/MSDK/ble/app\app_blue_courier_link.c ****         if (bcwl_env.recv_buf != NULL) {
 1293              		.loc 1 319 9
 320:C:/Users/stapi/OneDrive/Desktop/GD32VW553/GD32VW55X_Wifi_BLE_SDK/GD32VW55x_RELEASE_V1.0.2/MSDK/ble/app\app_blue_courier_link.c ****             sys_mfree(bcwl_env.recv_buf);
 1294              		.loc 1 320 21 is_stmt 0
 1295 01e8 0848     		lw	a0,16(s0)
 319:C:/Users/stapi/OneDrive/Desktop/GD32VW553/GD32VW55X_Wifi_BLE_SDK/GD32VW55x_RELEASE_V1.0.2/MSDK/ble/app\app_blue_courier_link.c ****         if (bcwl_env.recv_buf != NULL) {
 1296              		.loc 1 319 25
 1297 01ea 231B0400 		sh	zero,22(s0)
 320:C:/Users/stapi/OneDrive/Desktop/GD32VW553/GD32VW55X_Wifi_BLE_SDK/GD32VW55x_RELEASE_V1.0.2/MSDK/ble/app\app_blue_courier_link.c ****             sys_mfree(bcwl_env.recv_buf);
 1298              		.loc 1 320 9 is_stmt 1
 320:C:/Users/stapi/OneDrive/Desktop/GD32VW553/GD32VW55X_Wifi_BLE_SDK/GD32VW55x_RELEASE_V1.0.2/MSDK/ble/app\app_blue_courier_link.c ****             sys_mfree(bcwl_env.recv_buf);
 1299              		.loc 1 320 12 is_stmt 0
 1300 01ee E30705E4 		beq	a0,zero,.L89
 321:C:/Users/stapi/OneDrive/Desktop/GD32VW553/GD32VW55X_Wifi_BLE_SDK/GD32VW55x_RELEASE_V1.0.2/MSDK/ble/app\app_blue_courier_link.c ****             bcwl_env.recv_buf = NULL;
 1301              		.loc 1 321 13 is_stmt 1
 1302 01f2 97000000 		call	sys_mfree
 1302      E7800000 
 1303              	.LVL122:
 322:C:/Users/stapi/OneDrive/Desktop/GD32VW553/GD32VW55X_Wifi_BLE_SDK/GD32VW55x_RELEASE_V1.0.2/MSDK/ble/app\app_blue_courier_link.c ****         }
 1304              		.loc 1 322 13
 322:C:/Users/stapi/OneDrive/Desktop/GD32VW553/GD32VW55X_Wifi_BLE_SDK/GD32VW55x_RELEASE_V1.0.2/MSDK/ble/app\app_blue_courier_link.c ****         }
 1305              		.loc 1 322 31 is_stmt 0
 1306 01fa 23280400 		sw	zero,16(s0)
 1307 01fe 3DBD     		j	.L89
 1308              	.LVL123:
 1309              	.L103:
 326:C:/Users/stapi/OneDrive/Desktop/GD32VW553/GD32VW55X_Wifi_BLE_SDK/GD32VW55x_RELEASE_V1.0.2/MSDK/ble/app\app_blue_courier_link.c ****             goto err_recv;
 1310              		.loc 1 326 9 is_stmt 1
 326:C:/Users/stapi/OneDrive/Desktop/GD32VW553/GD32VW55X_Wifi_BLE_SDK/GD32VW55x_RELEASE_V1.0.2/MSDK/ble/app\app_blue_courier_link.c ****             goto err_recv;
 1311              		.loc 1 326 12 is_stmt 0
 1312 0200 8DD3     		beq	a5,zero,.L102
 326:C:/Users/stapi/OneDrive/Desktop/GD32VW553/GD32VW55X_Wifi_BLE_SDK/GD32VW55x_RELEASE_V1.0.2/MSDK/ble/app\app_blue_courier_link.c ****             goto err_recv;
 1313              		.loc 1 326 80
 1314 0202 83564401 		lhu	a3,20(s0)
 326:C:/Users/stapi/OneDrive/Desktop/GD32VW553/GD32VW55X_Wifi_BLE_SDK/GD32VW55x_RELEASE_V1.0.2/MSDK/ble/app\app_blue_courier_link.c ****             goto err_recv;
 1315              		.loc 1 326 53
 1316 0206 3387C700 		add	a4,a5,a2
 326:C:/Users/stapi/OneDrive/Desktop/GD32VW553/GD32VW55X_Wifi_BLE_SDK/GD32VW55x_RELEASE_V1.0.2/MSDK/ble/app\app_blue_courier_link.c ****             goto err_recv;
 1317              		.loc 1 326 34
 1318 020a E35CD7F0 		bge	a4,a3,.L102
 329:C:/Users/stapi/OneDrive/Desktop/GD32VW553/GD32VW55X_Wifi_BLE_SDK/GD32VW55x_RELEASE_V1.0.2/MSDK/ble/app\app_blue_courier_link.c ****         bcwl_env.offset += hdr->data_len;
 1319              		.loc 1 329 9 is_stmt 1
 1320 020e 3E95     		add	a0,a0,a5
 1321 0210 93854400 		addi	a1,s1,4
 1322 0214 97000000 		call	sys_memcpy
 1322      E7800000 
 1323              	.LVL124:
 330:C:/Users/stapi/OneDrive/Desktop/GD32VW553/GD32VW55X_Wifi_BLE_SDK/GD32VW55x_RELEASE_V1.0.2/MSDK/ble/app\app_blue_courier_link.c ****     }
 1324              		.loc 1 330 9
 330:C:/Users/stapi/OneDrive/Desktop/GD32VW553/GD32VW55X_Wifi_BLE_SDK/GD32VW55x_RELEASE_V1.0.2/MSDK/ble/app\app_blue_courier_link.c ****     }
 1325              		.loc 1 330 31 is_stmt 0
 1326 021c 03C73400 		lbu	a4,3(s1)
 330:C:/Users/stapi/OneDrive/Desktop/GD32VW553/GD32VW55X_Wifi_BLE_SDK/GD32VW55x_RELEASE_V1.0.2/MSDK/ble/app\app_blue_courier_link.c ****     }
 1327              		.loc 1 330 25
 1328 0220 83576401 		lhu	a5,22(s0)
 1329 0224 BA97     		add	a5,a5,a4
 1330 0226 59B7     		j	.L138
 1331              	.LVL125:
 1332              	.L107:
 284:C:/Users/stapi/OneDrive/Desktop/GD32VW553/GD32VW55X_Wifi_BLE_SDK/GD32VW55x_RELEASE_V1.0.2/MSDK/ble/app\app_blue_courier_link.c ****         goto err_recv;
 1333              		.loc 1 284 16
 1334 0228 A544     		li	s1,9
 1335              	.LVL126:
 1336 022a EDBD     		j	.L98
 1337              	.LVL127:
 1338              	.L108:
 303:C:/Users/stapi/OneDrive/Desktop/GD32VW553/GD32VW55X_Wifi_BLE_SDK/GD32VW55x_RELEASE_V1.0.2/MSDK/ble/app\app_blue_courier_link.c ****                 goto err_recv;
 1339              		.loc 1 303 24
 1340 022c 9144     		li	s1,4
 1341              	.LVL128:
 1342 022e DDBD     		j	.L98
 1343              	.LBE79:
 1344              	.LBE81:
 1345              		.cfi_endproc
 1346              	.LFE20:
 1348              		.section	.rodata.bcwl_gatts_msg_cb.str1.4,"aMS",@progbits,1
 1349              		.align	2
 1350              	.LC11:
 1351 0000 25732061 		.string	"%s att idx %d, value_len %d, value: "
 1351      74742069 
 1351      64782025 
 1351      642C2076 
 1351      616C7565 
 1352 0025 000000   		.align	2
 1353              	.LC12:
 1354 0028 25303278 		.string	"%02x"
 1354      00
 1355 002d 000000   		.align	2
 1356              	.LC13:
 1357 0030 0D0A00   		.string	"\r\n"
 1358 0033 00       		.align	2
 1359              	.LC14:
 1360 0034 2573206E 		.string	"%s ntf cfg invalid length\r\n"
 1360      74662063 
 1360      66672069 
 1360      6E76616C 
 1360      6964206C 
 1361              		.section	.text.bcwl_gatts_msg_cb,"ax",@progbits
 1362              		.align	1
 1364              	bcwl_gatts_msg_cb:
 1365              	.LFB21:
 352:C:/Users/stapi/OneDrive/Desktop/GD32VW553/GD32VW55X_Wifi_BLE_SDK/GD32VW55x_RELEASE_V1.0.2/MSDK/ble/app\app_blue_courier_link.c ****     uint8_t  att_idx;
 1366              		.loc 1 352 1 is_stmt 1
 1367              		.cfi_startproc
 1368              	.LVL129:
 353:C:/Users/stapi/OneDrive/Desktop/GD32VW553/GD32VW55X_Wifi_BLE_SDK/GD32VW55x_RELEASE_V1.0.2/MSDK/ble/app\app_blue_courier_link.c ****     uint8_t *data;
 1369              		.loc 1 353 5
 354:C:/Users/stapi/OneDrive/Desktop/GD32VW553/GD32VW55X_Wifi_BLE_SDK/GD32VW55x_RELEASE_V1.0.2/MSDK/ble/app\app_blue_courier_link.c ****     uint16_t data_len, i;
 1370              		.loc 1 354 5
 355:C:/Users/stapi/OneDrive/Desktop/GD32VW553/GD32VW55X_Wifi_BLE_SDK/GD32VW55x_RELEASE_V1.0.2/MSDK/ble/app\app_blue_courier_link.c **** 
 1371              		.loc 1 355 5
 357:C:/Users/stapi/OneDrive/Desktop/GD32VW553/GD32VW55X_Wifi_BLE_SDK/GD32VW55x_RELEASE_V1.0.2/MSDK/ble/app\app_blue_courier_link.c ****         /* Other connection operations are ignored */
 1372              		.loc 1 357 5
 357:C:/Users/stapi/OneDrive/Desktop/GD32VW553/GD32VW55X_Wifi_BLE_SDK/GD32VW55x_RELEASE_V1.0.2/MSDK/ble/app\app_blue_courier_link.c ****         /* Other connection operations are ignored */
 1373              		.loc 1 357 8 is_stmt 0
 1374 0000 1C41     		lw	a5,0(a0)
 1375 0002 0D47     		li	a4,3
 1376 0004 639CE70E 		bne	a5,a4,.L155
 352:C:/Users/stapi/OneDrive/Desktop/GD32VW553/GD32VW55X_Wifi_BLE_SDK/GD32VW55x_RELEASE_V1.0.2/MSDK/ble/app\app_blue_courier_link.c ****     uint8_t  att_idx;
 1377              		.loc 1 352 1
 1378 0008 17030000 		call	t0,__riscv_save_8
 1378      E7020300 
 1379              		.cfi_offset 23, -36
 1380              		.cfi_offset 22, -32
 1381              		.cfi_offset 21, -28
 1382              		.cfi_offset 20, -24
 1383              		.cfi_offset 19, -20
 1384              		.cfi_offset 18, -16
 1385              		.cfi_offset 9, -12
 1386              		.cfi_offset 8, -8
 1387              		.cfi_offset 1, -4
 1388              		.cfi_def_cfa_offset 48
 359:C:/Users/stapi/OneDrive/Desktop/GD32VW553/GD32VW55X_Wifi_BLE_SDK/GD32VW55x_RELEASE_V1.0.2/MSDK/ble/app\app_blue_courier_link.c ****             return BLE_ERR_NO_ERROR;
 1389              		.loc 1 359 9 is_stmt 1
 359:C:/Users/stapi/OneDrive/Desktop/GD32VW553/GD32VW55X_Wifi_BLE_SDK/GD32VW55x_RELEASE_V1.0.2/MSDK/ble/app\app_blue_courier_link.c ****             return BLE_ERR_NO_ERROR;
 1390              		.loc 1 359 72 is_stmt 0
 1391 0010 37070000 		lui	a4,%hi(.LANCHOR0)
 1392 0014 93060700 		addi	a3,a4,%lo(.LANCHOR0)
 359:C:/Users/stapi/OneDrive/Desktop/GD32VW553/GD32VW55X_Wifi_BLE_SDK/GD32VW55x_RELEASE_V1.0.2/MSDK/ble/app\app_blue_courier_link.c ****             return BLE_ERR_NO_ERROR;
 1393              		.loc 1 359 12
 1394 0018 03468500 		lbu	a2,8(a0)
 1395 001c 83C61600 		lbu	a3,1(a3)
 1396 0020 930A0700 		addi	s5,a4,%lo(.LANCHOR0)
 1397 0024 631BD606 		bne	a2,a3,.L141
 363:C:/Users/stapi/OneDrive/Desktop/GD32VW553/GD32VW55X_Wifi_BLE_SDK/GD32VW55x_RELEASE_V1.0.2/MSDK/ble/app\app_blue_courier_link.c ****             att_idx = p_srv_msg_info->msg_data.gatts_op_info.gatts_op_data.write_req.att_idx;
 1398              		.loc 1 363 9 is_stmt 1
 363:C:/Users/stapi/OneDrive/Desktop/GD32VW553/GD32VW55X_Wifi_BLE_SDK/GD32VW55x_RELEASE_V1.0.2/MSDK/ble/app\app_blue_courier_link.c ****             att_idx = p_srv_msg_info->msg_data.gatts_op_info.gatts_op_data.write_req.att_idx;
 1399              		.loc 1 363 12 is_stmt 0
 1400 0028 5441     		lw	a3,4(a0)
 1401 002a 0547     		li	a4,1
 1402 002c 6397E606 		bne	a3,a4,.L141
 1403              	.LVL130:
 1404              	.LBB84:
 1405              	.LBB85:
 364:C:/Users/stapi/OneDrive/Desktop/GD32VW553/GD32VW55X_Wifi_BLE_SDK/GD32VW55x_RELEASE_V1.0.2/MSDK/ble/app\app_blue_courier_link.c ****             data = p_srv_msg_info->msg_data.gatts_op_info.gatts_op_data.write_req.p_val;
 1406              		.loc 1 364 13 is_stmt 1
 368:C:/Users/stapi/OneDrive/Desktop/GD32VW553/GD32VW55X_Wifi_BLE_SDK/GD32VW55x_RELEASE_V1.0.2/MSDK/ble/app\app_blue_courier_link.c ****             for (i = 0; i < data_len; i++)
 1407              		.loc 1 368 13 is_stmt 0
 1408 0030 37040000 		lui	s0,%hi(global_debug_level)
 1409 0034 03470400 		lbu	a4,%lo(global_debug_level)(s0)
 364:C:/Users/stapi/OneDrive/Desktop/GD32VW553/GD32VW55X_Wifi_BLE_SDK/GD32VW55x_RELEASE_V1.0.2/MSDK/ble/app\app_blue_courier_link.c ****             data = p_srv_msg_info->msg_data.gatts_op_info.gatts_op_data.write_req.p_val;
 1410              		.loc 1 364 21
 1411 0038 034A0501 		lbu	s4,16(a0)
 1412              	.LVL131:
 365:C:/Users/stapi/OneDrive/Desktop/GD32VW553/GD32VW55X_Wifi_BLE_SDK/GD32VW55x_RELEASE_V1.0.2/MSDK/ble/app\app_blue_courier_link.c ****             data_len = p_srv_msg_info->msg_data.gatts_op_info.gatts_op_data.write_req.val_len;
 1413              		.loc 1 365 13 is_stmt 1
 365:C:/Users/stapi/OneDrive/Desktop/GD32VW553/GD32VW55X_Wifi_BLE_SDK/GD32VW55x_RELEASE_V1.0.2/MSDK/ble/app\app_blue_courier_link.c ****             data_len = p_srv_msg_info->msg_data.gatts_op_info.gatts_op_data.write_req.val_len;
 1414              		.loc 1 365 18 is_stmt 0
 1415 003c 83298501 		lw	s3,24(a0)
 1416              	.LVL132:
 366:C:/Users/stapi/OneDrive/Desktop/GD32VW553/GD32VW55X_Wifi_BLE_SDK/GD32VW55x_RELEASE_V1.0.2/MSDK/ble/app\app_blue_courier_link.c **** 
 1417              		.loc 1 366 13 is_stmt 1
 366:C:/Users/stapi/OneDrive/Desktop/GD32VW553/GD32VW55X_Wifi_BLE_SDK/GD32VW55x_RELEASE_V1.0.2/MSDK/ble/app\app_blue_courier_link.c **** 
 1418              		.loc 1 366 22 is_stmt 0
 1419 0040 03596501 		lhu	s2,22(a0)
 1420              	.LVL133:
 368:C:/Users/stapi/OneDrive/Desktop/GD32VW553/GD32VW55X_Wifi_BLE_SDK/GD32VW55x_RELEASE_V1.0.2/MSDK/ble/app\app_blue_courier_link.c ****             for (i = 0; i < data_len; i++)
 1421              		.loc 1 368 13 is_stmt 1
 368:C:/Users/stapi/OneDrive/Desktop/GD32VW553/GD32VW55X_Wifi_BLE_SDK/GD32VW55x_RELEASE_V1.0.2/MSDK/ble/app\app_blue_courier_link.c ****             for (i = 0; i < data_len; i++)
 1422              		.loc 1 368 13
 1423 0044 63F0E702 		bleu	a4,a5,.L143
 368:C:/Users/stapi/OneDrive/Desktop/GD32VW553/GD32VW55X_Wifi_BLE_SDK/GD32VW55x_RELEASE_V1.0.2/MSDK/ble/app\app_blue_courier_link.c ****             for (i = 0; i < data_len; i++)
 1424              		.loc 1 368 13
 1425 0048 B7050000 		lui	a1,%hi(.LANCHOR8)
 1426 004c 37050000 		lui	a0,%hi(.LC11)
 1427              	.LVL134:
 1428 0050 CA86     		mv	a3,s2
 1429 0052 5286     		mv	a2,s4
 1430 0054 93850500 		addi	a1,a1,%lo(.LANCHOR8)
 1431 0058 13050500 		addi	a0,a0,%lo(.LC11)
 1432 005c 97000000 		call	co_printf
 1432      E7800000 
 1433              	.LVL135:
 1434              	.L143:
 1435              	.LBE85:
 1436              	.LBE84:
 352:C:/Users/stapi/OneDrive/Desktop/GD32VW553/GD32VW55X_Wifi_BLE_SDK/GD32VW55x_RELEASE_V1.0.2/MSDK/ble/app\app_blue_courier_link.c ****     uint8_t  att_idx;
 1437              		.loc 1 352 1 is_stmt 0
 1438 0064 8144     		li	s1,0
 1439              	.LBB88:
 1440              	.LBB86:
 370:C:/Users/stapi/OneDrive/Desktop/GD32VW553/GD32VW55X_Wifi_BLE_SDK/GD32VW55x_RELEASE_V1.0.2/MSDK/ble/app\app_blue_courier_link.c ****             dbg_print(INFO, "\r\n");
 1441              		.loc 1 370 17
 1442 0066 0D4B     		li	s6,3
 1443 0068 B70B0000 		lui	s7,%hi(.LC12)
 1444              	.L144:
 1445              	.LVL136:
 369:C:/Users/stapi/OneDrive/Desktop/GD32VW553/GD32VW55X_Wifi_BLE_SDK/GD32VW55x_RELEASE_V1.0.2/MSDK/ble/app\app_blue_courier_link.c ****                 dbg_print(INFO, "%02x", data[i]);
 1446              		.loc 1 369 25 is_stmt 1
 370:C:/Users/stapi/OneDrive/Desktop/GD32VW553/GD32VW55X_Wifi_BLE_SDK/GD32VW55x_RELEASE_V1.0.2/MSDK/ble/app\app_blue_courier_link.c ****             dbg_print(INFO, "\r\n");
 1447              		.loc 1 370 17 is_stmt 0
 1448 006c 83470400 		lbu	a5,%lo(global_debug_level)(s0)
 369:C:/Users/stapi/OneDrive/Desktop/GD32VW553/GD32VW55X_Wifi_BLE_SDK/GD32VW55x_RELEASE_V1.0.2/MSDK/ble/app\app_blue_courier_link.c ****                 dbg_print(INFO, "%02x", data[i]);
 1449              		.loc 1 369 13
 1450 0070 33C70408 		zext.h	a4,s1
 1451 0074 63682703 		bgtu	s2,a4,.L146
 371:C:/Users/stapi/OneDrive/Desktop/GD32VW553/GD32VW55X_Wifi_BLE_SDK/GD32VW55x_RELEASE_V1.0.2/MSDK/ble/app\app_blue_courier_link.c **** 
 1452              		.loc 1 371 13 is_stmt 1
 371:C:/Users/stapi/OneDrive/Desktop/GD32VW553/GD32VW55X_Wifi_BLE_SDK/GD32VW55x_RELEASE_V1.0.2/MSDK/ble/app\app_blue_courier_link.c **** 
 1453              		.loc 1 371 13
 1454 0078 0D47     		li	a4,3
 1455 007a 637AF700 		bleu	a5,a4,.L147
 371:C:/Users/stapi/OneDrive/Desktop/GD32VW553/GD32VW55X_Wifi_BLE_SDK/GD32VW55x_RELEASE_V1.0.2/MSDK/ble/app\app_blue_courier_link.c **** 
 1456              		.loc 1 371 13
 1457 007e 37050000 		lui	a0,%hi(.LC13)
 1458 0082 13050500 		addi	a0,a0,%lo(.LC13)
 1459 0086 97000000 		call	co_printf
 1459      E7800000 
 1460              	.LVL137:
 1461              	.L147:
 371:C:/Users/stapi/OneDrive/Desktop/GD32VW553/GD32VW55X_Wifi_BLE_SDK/GD32VW55x_RELEASE_V1.0.2/MSDK/ble/app\app_blue_courier_link.c **** 
 1462              		.loc 1 371 13
 373:C:/Users/stapi/OneDrive/Desktop/GD32VW553/GD32VW55X_Wifi_BLE_SDK/GD32VW55x_RELEASE_V1.0.2/MSDK/ble/app\app_blue_courier_link.c ****             case BCW_IDX_WRITE:
 1463              		.loc 1 373 13
 1464 008e 8947     		li	a5,2
 1465 0090 6308FA02 		beq	s4,a5,.L148
 1466 0094 1547     		li	a4,5
 1467 0096 630CEA02 		beq	s4,a4,.L149
 1468              	.LVL138:
 1469              	.L141:
 1470              	.LBE86:
 1471              	.LBE88:
 390:C:/Users/stapi/OneDrive/Desktop/GD32VW553/GD32VW55X_Wifi_BLE_SDK/GD32VW55x_RELEASE_V1.0.2/MSDK/ble/app\app_blue_courier_link.c **** 
 1472              		.loc 1 390 1 is_stmt 0
 1473 009a 0145     		li	a0,0
 1474 009c 17030000 		tail	__riscv_restore_8
 1474      67000300 
 1475              		.cfi_remember_state
 1476              		.cfi_restore 23
 1477              		.cfi_restore 22
 1478              		.cfi_restore 21
 1479              		.cfi_restore 20
 1480              		.cfi_restore 19
 1481              		.cfi_restore 18
 1482              		.cfi_restore 9
 1483              		.cfi_restore 8
 1484              		.cfi_restore 1
 1485              		.cfi_def_cfa_offset 0
 1486              	.LVL139:
 1487              	.L146:
 1488              		.cfi_restore_state
 1489              	.LBB89:
 1490              	.LBB87:
 370:C:/Users/stapi/OneDrive/Desktop/GD32VW553/GD32VW55X_Wifi_BLE_SDK/GD32VW55x_RELEASE_V1.0.2/MSDK/ble/app\app_blue_courier_link.c ****             dbg_print(INFO, "\r\n");
 1491              		.loc 1 370 17 is_stmt 1
 370:C:/Users/stapi/OneDrive/Desktop/GD32VW553/GD32VW55X_Wifi_BLE_SDK/GD32VW55x_RELEASE_V1.0.2/MSDK/ble/app\app_blue_courier_link.c ****             dbg_print(INFO, "\r\n");
 1492              		.loc 1 370 17
 1493 00a4 637CFB00 		bleu	a5,s6,.L145
 370:C:/Users/stapi/OneDrive/Desktop/GD32VW553/GD32VW55X_Wifi_BLE_SDK/GD32VW55x_RELEASE_V1.0.2/MSDK/ble/app\app_blue_courier_link.c ****             dbg_print(INFO, "\r\n");
 1494              		.loc 1 370 17
 1495 00a8 B3879900 		add	a5,s3,s1
 1496 00ac 83C50700 		lbu	a1,0(a5)
 1497 00b0 13850B00 		addi	a0,s7,%lo(.LC12)
 1498 00b4 97000000 		call	co_printf
 1498      E7800000 
 1499              	.LVL140:
 1500              	.L145:
 370:C:/Users/stapi/OneDrive/Desktop/GD32VW553/GD32VW55X_Wifi_BLE_SDK/GD32VW55x_RELEASE_V1.0.2/MSDK/ble/app\app_blue_courier_link.c ****             dbg_print(INFO, "\r\n");
 1501              		.loc 1 370 17
 369:C:/Users/stapi/OneDrive/Desktop/GD32VW553/GD32VW55X_Wifi_BLE_SDK/GD32VW55x_RELEASE_V1.0.2/MSDK/ble/app\app_blue_courier_link.c ****                 dbg_print(INFO, "%02x", data[i]);
 1502              		.loc 1 369 39
 1503 00bc 8504     		addi	s1,s1,1
 1504              	.LVL141:
 1505 00be 7DB7     		j	.L144
 1506              	.LVL142:
 1507              	.L148:
 375:C:/Users/stapi/OneDrive/Desktop/GD32VW553/GD32VW55X_Wifi_BLE_SDK/GD32VW55x_RELEASE_V1.0.2/MSDK/ble/app\app_blue_courier_link.c ****                 break;
 1508              		.loc 1 375 17
 1509 00c0 CA85     		mv	a1,s2
 1510 00c2 4E85     		mv	a0,s3
 1511 00c4 97000000 		call	bcwl_receive
 1511      E7800000 
 1512              	.LVL143:
 376:C:/Users/stapi/OneDrive/Desktop/GD32VW553/GD32VW55X_Wifi_BLE_SDK/GD32VW55x_RELEASE_V1.0.2/MSDK/ble/app\app_blue_courier_link.c ****             case BCW_IDX_NTF_CFG:
 1513              		.loc 1 376 17
 1514 00cc F9B7     		j	.L141
 1515              	.L149:
 378:C:/Users/stapi/OneDrive/Desktop/GD32VW553/GD32VW55X_Wifi_BLE_SDK/GD32VW55x_RELEASE_V1.0.2/MSDK/ble/app\app_blue_courier_link.c ****                     bcwl_env.ntf_cfg = *(uint16_t *)data;
 1516              		.loc 1 378 17
 378:C:/Users/stapi/OneDrive/Desktop/GD32VW553/GD32VW55X_Wifi_BLE_SDK/GD32VW55x_RELEASE_V1.0.2/MSDK/ble/app\app_blue_courier_link.c ****                     bcwl_env.ntf_cfg = *(uint16_t *)data;
 1517              		.loc 1 378 20 is_stmt 0
 1518 00ce 6317F900 		bne	s2,a5,.L150
 379:C:/Users/stapi/OneDrive/Desktop/GD32VW553/GD32VW55X_Wifi_BLE_SDK/GD32VW55x_RELEASE_V1.0.2/MSDK/ble/app\app_blue_courier_link.c ****                 else
 1519              		.loc 1 379 21 is_stmt 1
 379:C:/Users/stapi/OneDrive/Desktop/GD32VW553/GD32VW55X_Wifi_BLE_SDK/GD32VW55x_RELEASE_V1.0.2/MSDK/ble/app\app_blue_courier_link.c ****                 else
 1520              		.loc 1 379 40 is_stmt 0
 1521 00d2 83D70900 		lhu	a5,0(s3)
 379:C:/Users/stapi/OneDrive/Desktop/GD32VW553/GD32VW55X_Wifi_BLE_SDK/GD32VW55x_RELEASE_V1.0.2/MSDK/ble/app\app_blue_courier_link.c ****                 else
 1522              		.loc 1 379 38
 1523 00d6 2392FA00 		sh	a5,4(s5)
 1524 00da C1B7     		j	.L141
 1525              	.L150:
 381:C:/Users/stapi/OneDrive/Desktop/GD32VW553/GD32VW55X_Wifi_BLE_SDK/GD32VW55x_RELEASE_V1.0.2/MSDK/ble/app\app_blue_courier_link.c ****                 break;
 1526              		.loc 1 381 21 is_stmt 1
 381:C:/Users/stapi/OneDrive/Desktop/GD32VW553/GD32VW55X_Wifi_BLE_SDK/GD32VW55x_RELEASE_V1.0.2/MSDK/ble/app\app_blue_courier_link.c ****                 break;
 1527              		.loc 1 381 21
 1528 00dc 83470400 		lbu	a5,%lo(global_debug_level)(s0)
 1529 00e0 CDDF     		beq	a5,zero,.L141
 381:C:/Users/stapi/OneDrive/Desktop/GD32VW553/GD32VW55X_Wifi_BLE_SDK/GD32VW55x_RELEASE_V1.0.2/MSDK/ble/app\app_blue_courier_link.c ****                 break;
 1530              		.loc 1 381 21
 1531 00e2 B7050000 		lui	a1,%hi(.LANCHOR8)
 1532 00e6 37050000 		lui	a0,%hi(.LC14)
 1533 00ea 93850500 		addi	a1,a1,%lo(.LANCHOR8)
 1534 00ee 13050500 		addi	a0,a0,%lo(.LC14)
 1535 00f2 97000000 		call	co_printf
 1535      E7800000 
 1536              	.LVL144:
 1537 00fa 45B7     		j	.L141
 1538              	.LVL145:
 1539              	.L155:
 1540              		.cfi_def_cfa_offset 0
 1541              		.cfi_restore 1
 1542              		.cfi_restore 8
 1543              		.cfi_restore 9
 1544              		.cfi_restore 18
 1545              		.cfi_restore 19
 1546              		.cfi_restore 20
 1547              		.cfi_restore 21
 1548              		.cfi_restore 22
 1549              		.cfi_restore 23
 1550              	.LBE87:
 1551              	.LBE89:
 390:C:/Users/stapi/OneDrive/Desktop/GD32VW553/GD32VW55X_Wifi_BLE_SDK/GD32VW55x_RELEASE_V1.0.2/MSDK/ble/app\app_blue_courier_link.c **** 
 1552              		.loc 1 390 1 is_stmt 0
 1553 00fc 0145     		li	a0,0
 1554              	.LVL146:
 1555 00fe 8280     		ret
 1556              		.cfi_endproc
 1557              	.LFE21:
 1559              		.section	.text.bcw_prf_enable,"ax",@progbits
 1560              		.align	1
 1561              		.globl	bcw_prf_enable
 1563              	bcw_prf_enable:
 1564              	.LFB28:
 491:C:/Users/stapi/OneDrive/Desktop/GD32VW553/GD32VW55X_Wifi_BLE_SDK/GD32VW55x_RELEASE_V1.0.2/MSDK/ble/app\app_blue_courier_link.c **** 
 492:C:/Users/stapi/OneDrive/Desktop/GD32VW553/GD32VW55X_Wifi_BLE_SDK/GD32VW55x_RELEASE_V1.0.2/MSDK/ble/app\app_blue_courier_link.c **** /*!
 493:C:/Users/stapi/OneDrive/Desktop/GD32VW553/GD32VW55X_Wifi_BLE_SDK/GD32VW55x_RELEASE_V1.0.2/MSDK/ble/app\app_blue_courier_link.c ****     \brief      Callback function to handle BLE adapter events
 494:C:/Users/stapi/OneDrive/Desktop/GD32VW553/GD32VW55X_Wifi_BLE_SDK/GD32VW55x_RELEASE_V1.0.2/MSDK/ble/app\app_blue_courier_link.c ****     \param[in]  event: BLE adapter event type
 495:C:/Users/stapi/OneDrive/Desktop/GD32VW553/GD32VW55X_Wifi_BLE_SDK/GD32VW55x_RELEASE_V1.0.2/MSDK/ble/app\app_blue_courier_link.c ****     \param[in]  p_data: pointer to BLE adapter event data
 496:C:/Users/stapi/OneDrive/Desktop/GD32VW553/GD32VW55X_Wifi_BLE_SDK/GD32VW55x_RELEASE_V1.0.2/MSDK/ble/app\app_blue_courier_link.c ****     \param[out] none
 497:C:/Users/stapi/OneDrive/Desktop/GD32VW553/GD32VW55X_Wifi_BLE_SDK/GD32VW55x_RELEASE_V1.0.2/MSDK/ble/app\app_blue_courier_link.c ****     \retval     none
 498:C:/Users/stapi/OneDrive/Desktop/GD32VW553/GD32VW55X_Wifi_BLE_SDK/GD32VW55x_RELEASE_V1.0.2/MSDK/ble/app\app_blue_courier_link.c **** */
 499:C:/Users/stapi/OneDrive/Desktop/GD32VW553/GD32VW55X_Wifi_BLE_SDK/GD32VW55x_RELEASE_V1.0.2/MSDK/ble/app\app_blue_courier_link.c **** static void bcwl_adp_evt_handler(ble_adp_evt_t event, ble_adp_data_u *p_data)
 500:C:/Users/stapi/OneDrive/Desktop/GD32VW553/GD32VW55X_Wifi_BLE_SDK/GD32VW55x_RELEASE_V1.0.2/MSDK/ble/app\app_blue_courier_link.c **** {
 501:C:/Users/stapi/OneDrive/Desktop/GD32VW553/GD32VW55X_Wifi_BLE_SDK/GD32VW55x_RELEASE_V1.0.2/MSDK/ble/app\app_blue_courier_link.c ****     switch (event) {
 502:C:/Users/stapi/OneDrive/Desktop/GD32VW553/GD32VW55X_Wifi_BLE_SDK/GD32VW55x_RELEASE_V1.0.2/MSDK/ble/app\app_blue_courier_link.c **** 
 503:C:/Users/stapi/OneDrive/Desktop/GD32VW553/GD32VW55X_Wifi_BLE_SDK/GD32VW55x_RELEASE_V1.0.2/MSDK/ble/app\app_blue_courier_link.c ****     case BLE_ADP_EVT_ENABLE_CMPL_INFO:
 504:C:/Users/stapi/OneDrive/Desktop/GD32VW553/GD32VW55X_Wifi_BLE_SDK/GD32VW55x_RELEASE_V1.0.2/MSDK/ble/app\app_blue_courier_link.c ****         if (p_data->adapter_info.status == BLE_ERR_NO_ERROR) {
 505:C:/Users/stapi/OneDrive/Desktop/GD32VW553/GD32VW55X_Wifi_BLE_SDK/GD32VW55x_RELEASE_V1.0.2/MSDK/ble/app\app_blue_courier_link.c ****             ble_enabled = true;
 506:C:/Users/stapi/OneDrive/Desktop/GD32VW553/GD32VW55X_Wifi_BLE_SDK/GD32VW55x_RELEASE_V1.0.2/MSDK/ble/app\app_blue_courier_link.c ****             if (bcwl_enable_pending) {
 507:C:/Users/stapi/OneDrive/Desktop/GD32VW553/GD32VW55X_Wifi_BLE_SDK/GD32VW55x_RELEASE_V1.0.2/MSDK/ble/app\app_blue_courier_link.c ****                 bcwl_enable_pending = false;
 508:C:/Users/stapi/OneDrive/Desktop/GD32VW553/GD32VW55X_Wifi_BLE_SDK/GD32VW55x_RELEASE_V1.0.2/MSDK/ble/app\app_blue_courier_link.c ****                 bcw_prf_enable(true);
 509:C:/Users/stapi/OneDrive/Desktop/GD32VW553/GD32VW55X_Wifi_BLE_SDK/GD32VW55x_RELEASE_V1.0.2/MSDK/ble/app\app_blue_courier_link.c ****             }
 510:C:/Users/stapi/OneDrive/Desktop/GD32VW553/GD32VW55X_Wifi_BLE_SDK/GD32VW55x_RELEASE_V1.0.2/MSDK/ble/app\app_blue_courier_link.c ****         }
 511:C:/Users/stapi/OneDrive/Desktop/GD32VW553/GD32VW55X_Wifi_BLE_SDK/GD32VW55x_RELEASE_V1.0.2/MSDK/ble/app\app_blue_courier_link.c ****         break;
 512:C:/Users/stapi/OneDrive/Desktop/GD32VW553/GD32VW55X_Wifi_BLE_SDK/GD32VW55x_RELEASE_V1.0.2/MSDK/ble/app\app_blue_courier_link.c **** 
 513:C:/Users/stapi/OneDrive/Desktop/GD32VW553/GD32VW55X_Wifi_BLE_SDK/GD32VW55x_RELEASE_V1.0.2/MSDK/ble/app\app_blue_courier_link.c ****     case BLE_ADP_EVT_DISABLE_CMPL_INFO:
 514:C:/Users/stapi/OneDrive/Desktop/GD32VW553/GD32VW55X_Wifi_BLE_SDK/GD32VW55x_RELEASE_V1.0.2/MSDK/ble/app\app_blue_courier_link.c ****         if (!p_data->status) {
 515:C:/Users/stapi/OneDrive/Desktop/GD32VW553/GD32VW55X_Wifi_BLE_SDK/GD32VW55x_RELEASE_V1.0.2/MSDK/ble/app\app_blue_courier_link.c ****             ble_enabled = false;
 516:C:/Users/stapi/OneDrive/Desktop/GD32VW553/GD32VW55X_Wifi_BLE_SDK/GD32VW55x_RELEASE_V1.0.2/MSDK/ble/app\app_blue_courier_link.c ****         }
 517:C:/Users/stapi/OneDrive/Desktop/GD32VW553/GD32VW55X_Wifi_BLE_SDK/GD32VW55x_RELEASE_V1.0.2/MSDK/ble/app\app_blue_courier_link.c ****         break;
 518:C:/Users/stapi/OneDrive/Desktop/GD32VW553/GD32VW55X_Wifi_BLE_SDK/GD32VW55x_RELEASE_V1.0.2/MSDK/ble/app\app_blue_courier_link.c **** 
 519:C:/Users/stapi/OneDrive/Desktop/GD32VW553/GD32VW55X_Wifi_BLE_SDK/GD32VW55x_RELEASE_V1.0.2/MSDK/ble/app\app_blue_courier_link.c ****     default:
 520:C:/Users/stapi/OneDrive/Desktop/GD32VW553/GD32VW55X_Wifi_BLE_SDK/GD32VW55x_RELEASE_V1.0.2/MSDK/ble/app\app_blue_courier_link.c ****         break;
 521:C:/Users/stapi/OneDrive/Desktop/GD32VW553/GD32VW55X_Wifi_BLE_SDK/GD32VW55x_RELEASE_V1.0.2/MSDK/ble/app\app_blue_courier_link.c ****     }
 522:C:/Users/stapi/OneDrive/Desktop/GD32VW553/GD32VW55X_Wifi_BLE_SDK/GD32VW55x_RELEASE_V1.0.2/MSDK/ble/app\app_blue_courier_link.c **** }
 523:C:/Users/stapi/OneDrive/Desktop/GD32VW553/GD32VW55X_Wifi_BLE_SDK/GD32VW55x_RELEASE_V1.0.2/MSDK/ble/app\app_blue_courier_link.c **** 
 524:C:/Users/stapi/OneDrive/Desktop/GD32VW553/GD32VW55X_Wifi_BLE_SDK/GD32VW55x_RELEASE_V1.0.2/MSDK/ble/app\app_blue_courier_link.c **** /*!
 525:C:/Users/stapi/OneDrive/Desktop/GD32VW553/GD32VW55X_Wifi_BLE_SDK/GD32VW55x_RELEASE_V1.0.2/MSDK/ble/app\app_blue_courier_link.c ****     \brief      Blue courier wifi link create advertising
 526:C:/Users/stapi/OneDrive/Desktop/GD32VW553/GD32VW55X_Wifi_BLE_SDK/GD32VW55x_RELEASE_V1.0.2/MSDK/ble/app\app_blue_courier_link.c ****     \param[in]  none
 527:C:/Users/stapi/OneDrive/Desktop/GD32VW553/GD32VW55X_Wifi_BLE_SDK/GD32VW55x_RELEASE_V1.0.2/MSDK/ble/app\app_blue_courier_link.c ****     \param[out] none
 528:C:/Users/stapi/OneDrive/Desktop/GD32VW553/GD32VW55X_Wifi_BLE_SDK/GD32VW55x_RELEASE_V1.0.2/MSDK/ble/app\app_blue_courier_link.c ****     \retval     ble_status_t: BLE_ERR_NO_ERROR on success, otherwise an error code
 529:C:/Users/stapi/OneDrive/Desktop/GD32VW553/GD32VW55X_Wifi_BLE_SDK/GD32VW55x_RELEASE_V1.0.2/MSDK/ble/app\app_blue_courier_link.c **** */
 530:C:/Users/stapi/OneDrive/Desktop/GD32VW553/GD32VW55X_Wifi_BLE_SDK/GD32VW55x_RELEASE_V1.0.2/MSDK/ble/app\app_blue_courier_link.c **** static ble_status_t bcwl_adv_create(void)
 531:C:/Users/stapi/OneDrive/Desktop/GD32VW553/GD32VW55X_Wifi_BLE_SDK/GD32VW55x_RELEASE_V1.0.2/MSDK/ble/app\app_blue_courier_link.c **** {
 532:C:/Users/stapi/OneDrive/Desktop/GD32VW553/GD32VW55X_Wifi_BLE_SDK/GD32VW55x_RELEASE_V1.0.2/MSDK/ble/app\app_blue_courier_link.c ****     ble_adv_param_t adv_param = {0};
 533:C:/Users/stapi/OneDrive/Desktop/GD32VW553/GD32VW55X_Wifi_BLE_SDK/GD32VW55x_RELEASE_V1.0.2/MSDK/ble/app\app_blue_courier_link.c **** 
 534:C:/Users/stapi/OneDrive/Desktop/GD32VW553/GD32VW55X_Wifi_BLE_SDK/GD32VW55x_RELEASE_V1.0.2/MSDK/ble/app\app_blue_courier_link.c ****     adv_param.param.own_addr_type = BLE_GAP_LOCAL_ADDR_STATIC;
 535:C:/Users/stapi/OneDrive/Desktop/GD32VW553/GD32VW55X_Wifi_BLE_SDK/GD32VW55x_RELEASE_V1.0.2/MSDK/ble/app\app_blue_courier_link.c ****     adv_param.param.type = BLE_GAP_ADV_TYPE_LEGACY;
 536:C:/Users/stapi/OneDrive/Desktop/GD32VW553/GD32VW55X_Wifi_BLE_SDK/GD32VW55x_RELEASE_V1.0.2/MSDK/ble/app\app_blue_courier_link.c ****     adv_param.param.prop = BLE_GAP_ADV_PROP_UNDIR_CONN;
 537:C:/Users/stapi/OneDrive/Desktop/GD32VW553/GD32VW55X_Wifi_BLE_SDK/GD32VW55x_RELEASE_V1.0.2/MSDK/ble/app\app_blue_courier_link.c ****     adv_param.param.filter_pol = BLE_GAP_ADV_ALLOW_SCAN_ANY_CON_ANY;
 538:C:/Users/stapi/OneDrive/Desktop/GD32VW553/GD32VW55X_Wifi_BLE_SDK/GD32VW55x_RELEASE_V1.0.2/MSDK/ble/app\app_blue_courier_link.c ****     adv_param.param.disc_mode = BLE_GAP_ADV_MODE_GEN_DISC;
 539:C:/Users/stapi/OneDrive/Desktop/GD32VW553/GD32VW55X_Wifi_BLE_SDK/GD32VW55x_RELEASE_V1.0.2/MSDK/ble/app\app_blue_courier_link.c ****     adv_param.param.ch_map = 0x07; // Advertising channel map - 37, 38, 39
 540:C:/Users/stapi/OneDrive/Desktop/GD32VW553/GD32VW55X_Wifi_BLE_SDK/GD32VW55x_RELEASE_V1.0.2/MSDK/ble/app\app_blue_courier_link.c ****     adv_param.param.primary_phy = BLE_GAP_PHY_1MBPS;
 541:C:/Users/stapi/OneDrive/Desktop/GD32VW553/GD32VW55X_Wifi_BLE_SDK/GD32VW55x_RELEASE_V1.0.2/MSDK/ble/app\app_blue_courier_link.c ****     adv_param.param.adv_intv_min = 160; // Advertising minimum interval - 100ms (160*0.625ms)
 542:C:/Users/stapi/OneDrive/Desktop/GD32VW553/GD32VW55X_Wifi_BLE_SDK/GD32VW55x_RELEASE_V1.0.2/MSDK/ble/app\app_blue_courier_link.c ****     adv_param.param.adv_intv_max = 160; // Advertising maximum interval - 100ms (160*0.625ms)
 543:C:/Users/stapi/OneDrive/Desktop/GD32VW553/GD32VW55X_Wifi_BLE_SDK/GD32VW55x_RELEASE_V1.0.2/MSDK/ble/app\app_blue_courier_link.c ****     adv_param.restart_after_disconn = true;
 544:C:/Users/stapi/OneDrive/Desktop/GD32VW553/GD32VW55X_Wifi_BLE_SDK/GD32VW55x_RELEASE_V1.0.2/MSDK/ble/app\app_blue_courier_link.c **** 
 545:C:/Users/stapi/OneDrive/Desktop/GD32VW553/GD32VW55X_Wifi_BLE_SDK/GD32VW55x_RELEASE_V1.0.2/MSDK/ble/app\app_blue_courier_link.c ****     return ble_adv_create(&adv_param, bcwl_adv_mgr_evt_hdlr, NULL);
 546:C:/Users/stapi/OneDrive/Desktop/GD32VW553/GD32VW55X_Wifi_BLE_SDK/GD32VW55x_RELEASE_V1.0.2/MSDK/ble/app\app_blue_courier_link.c **** }
 547:C:/Users/stapi/OneDrive/Desktop/GD32VW553/GD32VW55X_Wifi_BLE_SDK/GD32VW55x_RELEASE_V1.0.2/MSDK/ble/app\app_blue_courier_link.c **** 
 548:C:/Users/stapi/OneDrive/Desktop/GD32VW553/GD32VW55X_Wifi_BLE_SDK/GD32VW55x_RELEASE_V1.0.2/MSDK/ble/app\app_blue_courier_link.c **** /*!
 549:C:/Users/stapi/OneDrive/Desktop/GD32VW553/GD32VW55X_Wifi_BLE_SDK/GD32VW55x_RELEASE_V1.0.2/MSDK/ble/app\app_blue_courier_link.c ****     \brief      Blue courier wifi link stop advertising
 550:C:/Users/stapi/OneDrive/Desktop/GD32VW553/GD32VW55X_Wifi_BLE_SDK/GD32VW55x_RELEASE_V1.0.2/MSDK/ble/app\app_blue_courier_link.c ****     \param[in]  none
 551:C:/Users/stapi/OneDrive/Desktop/GD32VW553/GD32VW55X_Wifi_BLE_SDK/GD32VW55x_RELEASE_V1.0.2/MSDK/ble/app\app_blue_courier_link.c ****     \param[out] none
 552:C:/Users/stapi/OneDrive/Desktop/GD32VW553/GD32VW55X_Wifi_BLE_SDK/GD32VW55x_RELEASE_V1.0.2/MSDK/ble/app\app_blue_courier_link.c ****     \retval     ble_status_t: BLE_ERR_NO_ERROR on success, otherwise an error code
 553:C:/Users/stapi/OneDrive/Desktop/GD32VW553/GD32VW55X_Wifi_BLE_SDK/GD32VW55x_RELEASE_V1.0.2/MSDK/ble/app\app_blue_courier_link.c **** */
 554:C:/Users/stapi/OneDrive/Desktop/GD32VW553/GD32VW55X_Wifi_BLE_SDK/GD32VW55x_RELEASE_V1.0.2/MSDK/ble/app\app_blue_courier_link.c **** static ble_status_t bcwl_adv_stop(void)
 555:C:/Users/stapi/OneDrive/Desktop/GD32VW553/GD32VW55X_Wifi_BLE_SDK/GD32VW55x_RELEASE_V1.0.2/MSDK/ble/app\app_blue_courier_link.c **** {
 556:C:/Users/stapi/OneDrive/Desktop/GD32VW553/GD32VW55X_Wifi_BLE_SDK/GD32VW55x_RELEASE_V1.0.2/MSDK/ble/app\app_blue_courier_link.c ****     if (bcwl_env.adv_state == BLE_ADV_STATE_START) {
 557:C:/Users/stapi/OneDrive/Desktop/GD32VW553/GD32VW55X_Wifi_BLE_SDK/GD32VW55x_RELEASE_V1.0.2/MSDK/ble/app\app_blue_courier_link.c ****         bcwl_env.remove_after_stop = true;
 558:C:/Users/stapi/OneDrive/Desktop/GD32VW553/GD32VW55X_Wifi_BLE_SDK/GD32VW55x_RELEASE_V1.0.2/MSDK/ble/app\app_blue_courier_link.c ****         return ble_adv_stop(bcwl_env.adv_idx);
 559:C:/Users/stapi/OneDrive/Desktop/GD32VW553/GD32VW55X_Wifi_BLE_SDK/GD32VW55x_RELEASE_V1.0.2/MSDK/ble/app\app_blue_courier_link.c ****     } else if (bcwl_env.adv_state != BLE_ADV_STATE_IDLE) {
 560:C:/Users/stapi/OneDrive/Desktop/GD32VW553/GD32VW55X_Wifi_BLE_SDK/GD32VW55x_RELEASE_V1.0.2/MSDK/ble/app\app_blue_courier_link.c ****         return ble_adv_remove(bcwl_env.adv_idx);
 561:C:/Users/stapi/OneDrive/Desktop/GD32VW553/GD32VW55X_Wifi_BLE_SDK/GD32VW55x_RELEASE_V1.0.2/MSDK/ble/app\app_blue_courier_link.c ****     }
 562:C:/Users/stapi/OneDrive/Desktop/GD32VW553/GD32VW55X_Wifi_BLE_SDK/GD32VW55x_RELEASE_V1.0.2/MSDK/ble/app\app_blue_courier_link.c **** 
 563:C:/Users/stapi/OneDrive/Desktop/GD32VW553/GD32VW55X_Wifi_BLE_SDK/GD32VW55x_RELEASE_V1.0.2/MSDK/ble/app\app_blue_courier_link.c ****     return BLE_ERR_NO_ERROR;
 564:C:/Users/stapi/OneDrive/Desktop/GD32VW553/GD32VW55X_Wifi_BLE_SDK/GD32VW55x_RELEASE_V1.0.2/MSDK/ble/app\app_blue_courier_link.c **** }
 565:C:/Users/stapi/OneDrive/Desktop/GD32VW553/GD32VW55X_Wifi_BLE_SDK/GD32VW55x_RELEASE_V1.0.2/MSDK/ble/app\app_blue_courier_link.c **** 
 566:C:/Users/stapi/OneDrive/Desktop/GD32VW553/GD32VW55X_Wifi_BLE_SDK/GD32VW55x_RELEASE_V1.0.2/MSDK/ble/app\app_blue_courier_link.c **** /*!
 567:C:/Users/stapi/OneDrive/Desktop/GD32VW553/GD32VW55X_Wifi_BLE_SDK/GD32VW55x_RELEASE_V1.0.2/MSDK/ble/app\app_blue_courier_link.c ****     \brief      Enable/disable blue courier wifi service
 568:C:/Users/stapi/OneDrive/Desktop/GD32VW553/GD32VW55X_Wifi_BLE_SDK/GD32VW55x_RELEASE_V1.0.2/MSDK/ble/app\app_blue_courier_link.c ****     \param[in]  enable: 1 to enable and 0 to disable
 569:C:/Users/stapi/OneDrive/Desktop/GD32VW553/GD32VW55X_Wifi_BLE_SDK/GD32VW55x_RELEASE_V1.0.2/MSDK/ble/app\app_blue_courier_link.c ****     \param[out] none
 570:C:/Users/stapi/OneDrive/Desktop/GD32VW553/GD32VW55X_Wifi_BLE_SDK/GD32VW55x_RELEASE_V1.0.2/MSDK/ble/app\app_blue_courier_link.c ****     \retval     ble_status_t: BLE_ERR_NO_ERROR on success, otherwise an error code
 571:C:/Users/stapi/OneDrive/Desktop/GD32VW553/GD32VW55X_Wifi_BLE_SDK/GD32VW55x_RELEASE_V1.0.2/MSDK/ble/app\app_blue_courier_link.c **** */
 572:C:/Users/stapi/OneDrive/Desktop/GD32VW553/GD32VW55X_Wifi_BLE_SDK/GD32VW55x_RELEASE_V1.0.2/MSDK/ble/app\app_blue_courier_link.c **** ble_status_t bcw_prf_enable(uint8_t enable)
 573:C:/Users/stapi/OneDrive/Desktop/GD32VW553/GD32VW55X_Wifi_BLE_SDK/GD32VW55x_RELEASE_V1.0.2/MSDK/ble/app\app_blue_courier_link.c **** {
 1565              		.loc 1 573 1 is_stmt 1
 1566              		.cfi_startproc
 1567              	.LVL147:
 1568 0000 17030000 		call	t0,__riscv_save_4
 1568      E7020300 
 1569              		.cfi_offset 19, -20
 1570              		.cfi_offset 18, -16
 1571              		.cfi_offset 9, -12
 1572              		.cfi_offset 8, -8
 1573              		.cfi_offset 1, -4
 1574              		.cfi_def_cfa_offset 32
 574:C:/Users/stapi/OneDrive/Desktop/GD32VW553/GD32VW55X_Wifi_BLE_SDK/GD32VW55x_RELEASE_V1.0.2/MSDK/ble/app\app_blue_courier_link.c ****     ble_status_t ret = BLE_ERR_NO_ERROR;
 1575              		.loc 1 574 5
 1576              	.LVL148:
 575:C:/Users/stapi/OneDrive/Desktop/GD32VW553/GD32VW55X_Wifi_BLE_SDK/GD32VW55x_RELEASE_V1.0.2/MSDK/ble/app\app_blue_courier_link.c **** 
 576:C:/Users/stapi/OneDrive/Desktop/GD32VW553/GD32VW55X_Wifi_BLE_SDK/GD32VW55x_RELEASE_V1.0.2/MSDK/ble/app\app_blue_courier_link.c ****     if (bcwl_env.mode == enable)
 1577              		.loc 1 576 5
 573:C:/Users/stapi/OneDrive/Desktop/GD32VW553/GD32VW55X_Wifi_BLE_SDK/GD32VW55x_RELEASE_V1.0.2/MSDK/ble/app\app_blue_courier_link.c ****     ble_status_t ret = BLE_ERR_NO_ERROR;
 1578              		.loc 1 573 1 is_stmt 0
 1579 0008 2A89     		mv	s2,a0
 1580              		.loc 1 576 17
 1581 000a 37050000 		lui	a0,%hi(.LANCHOR0)
 1582              	.LVL149:
 1583              		.loc 1 576 8
 1584 000e 83470500 		lbu	a5,%lo(.LANCHOR0)(a0)
 573:C:/Users/stapi/OneDrive/Desktop/GD32VW553/GD32VW55X_Wifi_BLE_SDK/GD32VW55x_RELEASE_V1.0.2/MSDK/ble/app\app_blue_courier_link.c ****     ble_status_t ret = BLE_ERR_NO_ERROR;
 1585              		.loc 1 573 1
 1586 0012 7971     		addi	sp,sp,-48
 1587              		.cfi_def_cfa_offset 80
 1588              		.loc 1 576 8
 1589 0014 63802703 		beq	a5,s2,.L167
 1590 0018 93040500 		addi	s1,a0,%lo(.LANCHOR0)
 577:C:/Users/stapi/OneDrive/Desktop/GD32VW553/GD32VW55X_Wifi_BLE_SDK/GD32VW55x_RELEASE_V1.0.2/MSDK/ble/app\app_blue_courier_link.c ****         return BLE_ERR_NO_ERROR;
 578:C:/Users/stapi/OneDrive/Desktop/GD32VW553/GD32VW55X_Wifi_BLE_SDK/GD32VW55x_RELEASE_V1.0.2/MSDK/ble/app\app_blue_courier_link.c **** 
 579:C:/Users/stapi/OneDrive/Desktop/GD32VW553/GD32VW55X_Wifi_BLE_SDK/GD32VW55x_RELEASE_V1.0.2/MSDK/ble/app\app_blue_courier_link.c ****     if (enable) {
 1591              		.loc 1 579 5 is_stmt 1
 1592              		.loc 1 579 8 is_stmt 0
 1593 001c 630F0908 		beq	s2,zero,.L160
 580:C:/Users/stapi/OneDrive/Desktop/GD32VW553/GD32VW55X_Wifi_BLE_SDK/GD32VW55x_RELEASE_V1.0.2/MSDK/ble/app\app_blue_courier_link.c ****         if (ble_enabled == false) {
 1594              		.loc 1 580 9 is_stmt 1
 1595              		.loc 1 580 12 is_stmt 0
 1596 0020 B7070000 		lui	a5,%hi(.LANCHOR9)
 1597 0024 83C70700 		lbu	a5,%lo(.LANCHOR9)(a5)
 1598 0028 81EB     		bne	a5,zero,.L161
 581:C:/Users/stapi/OneDrive/Desktop/GD32VW553/GD32VW55X_Wifi_BLE_SDK/GD32VW55x_RELEASE_V1.0.2/MSDK/ble/app\app_blue_courier_link.c ****             bcwl_enable_pending = true;
 1599              		.loc 1 581 13 is_stmt 1
 1600              		.loc 1 581 33 is_stmt 0
 1601 002a B7070000 		lui	a5,%hi(.LANCHOR10)
 1602 002e 0547     		li	a4,1
 1603 0030 2380E700 		sb	a4,%lo(.LANCHOR10)(a5)
 582:C:/Users/stapi/OneDrive/Desktop/GD32VW553/GD32VW55X_Wifi_BLE_SDK/GD32VW55x_RELEASE_V1.0.2/MSDK/ble/app\app_blue_courier_link.c ****             return BLE_ERR_NO_ERROR;
 1604              		.loc 1 582 13 is_stmt 1
 1605              	.L167:
 577:C:/Users/stapi/OneDrive/Desktop/GD32VW553/GD32VW55X_Wifi_BLE_SDK/GD32VW55x_RELEASE_V1.0.2/MSDK/ble/app\app_blue_courier_link.c **** 
 1606              		.loc 1 577 16 is_stmt 0
 1607 0034 0144     		li	s0,0
 1608 0036 A5A8     		j	.L158
 1609              	.L161:
 583:C:/Users/stapi/OneDrive/Desktop/GD32VW553/GD32VW55X_Wifi_BLE_SDK/GD32VW55x_RELEASE_V1.0.2/MSDK/ble/app\app_blue_courier_link.c ****         }
 584:C:/Users/stapi/OneDrive/Desktop/GD32VW553/GD32VW55X_Wifi_BLE_SDK/GD32VW55x_RELEASE_V1.0.2/MSDK/ble/app\app_blue_courier_link.c **** 
 585:C:/Users/stapi/OneDrive/Desktop/GD32VW553/GD32VW55X_Wifi_BLE_SDK/GD32VW55x_RELEASE_V1.0.2/MSDK/ble/app\app_blue_courier_link.c ****         sys_memset(&bcwl_env, 0, sizeof(bcwl_env));
 1610              		.loc 1 585 9 is_stmt 1
 1611 0038 13060002 		li	a2,32
 1612 003c 8145     		li	a1,0
 1613 003e 13050500 		addi	a0,a0,%lo(.LANCHOR0)
 1614 0042 97000000 		call	sys_memset
 1614      E7800000 
 1615              	.LVL150:
 586:C:/Users/stapi/OneDrive/Desktop/GD32VW553/GD32VW55X_Wifi_BLE_SDK/GD32VW55x_RELEASE_V1.0.2/MSDK/ble/app\app_blue_courier_link.c **** 
