   1              		.file	"app_scan_mgr.c"
   2              		.option nopic
   3              		.attribute arch, "rv32i2p0_m2p0_a2p0_f2p0_c2p0_b_p0p94"
   4              		.attribute unaligned_access, 0
   5              		.attribute stack_align, 16
   6              		.text
   7              	.Ltext0:
   8              		.cfi_sections	.debug_frame
   9              		.section	.rodata.scan_mgr_list_scanned_devices.str1.4,"aMS",@progbits,1
  10              		.align	2
  11              	.LC0:
  12 0000 3D3D3D3D 		.string	"======= scan list empty =========\r\n"
  12      3D3D3D20 
  12      7363616E 
  12      206C6973 
  12      7420656D 
  13              		.align	2
  14              	.LC1:
  15 0024 64657620 		.string	"dev idx: %u, device addr: %02X:%02X:%02X:%02X:%02X:%02X\r\n"
  15      6964783A 
  15      2025752C 
  15      20646576 
  15      69636520 
  16              		.section	.text.scan_mgr_list_scanned_devices,"ax",@progbits
  17              		.align	1
  18              		.globl	scan_mgr_list_scanned_devices
  20              	scan_mgr_list_scanned_devices:
  21              	.LFB6:
  22              		.file 1 "C:/Users/stapi/OneDrive/Desktop/GD32VW553/GD32VW55X_Wifi_BLE_SDK/GD32VW55x_RELEASE_V1.0.2
   1:C:/Users/stapi/OneDrive/Desktop/GD32VW553/GD32VW55X_Wifi_BLE_SDK/GD32VW55x_RELEASE_V1.0.2/MSDK/ble/app\app_scan_mgr.c **** /*!
   2:C:/Users/stapi/OneDrive/Desktop/GD32VW553/GD32VW55X_Wifi_BLE_SDK/GD32VW55x_RELEASE_V1.0.2/MSDK/ble/app\app_scan_mgr.c ****     \file    app_scan_mgr.c
   3:C:/Users/stapi/OneDrive/Desktop/GD32VW553/GD32VW55X_Wifi_BLE_SDK/GD32VW55x_RELEASE_V1.0.2/MSDK/ble/app\app_scan_mgr.c ****     \brief   Implementation of BLE application scan manager to record devices.
   4:C:/Users/stapi/OneDrive/Desktop/GD32VW553/GD32VW55X_Wifi_BLE_SDK/GD32VW55x_RELEASE_V1.0.2/MSDK/ble/app\app_scan_mgr.c **** 
   5:C:/Users/stapi/OneDrive/Desktop/GD32VW553/GD32VW55X_Wifi_BLE_SDK/GD32VW55x_RELEASE_V1.0.2/MSDK/ble/app\app_scan_mgr.c ****     \version 2023-07-20, V1.0.0, firmware for GD32VW55x
   6:C:/Users/stapi/OneDrive/Desktop/GD32VW553/GD32VW55X_Wifi_BLE_SDK/GD32VW55x_RELEASE_V1.0.2/MSDK/ble/app\app_scan_mgr.c **** */
   7:C:/Users/stapi/OneDrive/Desktop/GD32VW553/GD32VW55X_Wifi_BLE_SDK/GD32VW55x_RELEASE_V1.0.2/MSDK/ble/app\app_scan_mgr.c **** 
   8:C:/Users/stapi/OneDrive/Desktop/GD32VW553/GD32VW55X_Wifi_BLE_SDK/GD32VW55x_RELEASE_V1.0.2/MSDK/ble/app\app_scan_mgr.c **** /*
   9:C:/Users/stapi/OneDrive/Desktop/GD32VW553/GD32VW55X_Wifi_BLE_SDK/GD32VW55x_RELEASE_V1.0.2/MSDK/ble/app\app_scan_mgr.c ****     Copyright (c) 2023, GigaDevice Semiconductor Inc.
  10:C:/Users/stapi/OneDrive/Desktop/GD32VW553/GD32VW55X_Wifi_BLE_SDK/GD32VW55x_RELEASE_V1.0.2/MSDK/ble/app\app_scan_mgr.c **** 
  11:C:/Users/stapi/OneDrive/Desktop/GD32VW553/GD32VW55X_Wifi_BLE_SDK/GD32VW55x_RELEASE_V1.0.2/MSDK/ble/app\app_scan_mgr.c ****     Redistribution and use in source and binary forms, with or without modification,
  12:C:/Users/stapi/OneDrive/Desktop/GD32VW553/GD32VW55X_Wifi_BLE_SDK/GD32VW55x_RELEASE_V1.0.2/MSDK/ble/app\app_scan_mgr.c **** are permitted provided that the following conditions are met:
  13:C:/Users/stapi/OneDrive/Desktop/GD32VW553/GD32VW55X_Wifi_BLE_SDK/GD32VW55x_RELEASE_V1.0.2/MSDK/ble/app\app_scan_mgr.c **** 
  14:C:/Users/stapi/OneDrive/Desktop/GD32VW553/GD32VW55X_Wifi_BLE_SDK/GD32VW55x_RELEASE_V1.0.2/MSDK/ble/app\app_scan_mgr.c ****     1. Redistributions of source code must retain the above copyright notice, this
  15:C:/Users/stapi/OneDrive/Desktop/GD32VW553/GD32VW55X_Wifi_BLE_SDK/GD32VW55x_RELEASE_V1.0.2/MSDK/ble/app\app_scan_mgr.c ****        list of conditions and the following disclaimer.
  16:C:/Users/stapi/OneDrive/Desktop/GD32VW553/GD32VW55X_Wifi_BLE_SDK/GD32VW55x_RELEASE_V1.0.2/MSDK/ble/app\app_scan_mgr.c ****     2. Redistributions in binary form must reproduce the above copyright notice,
  17:C:/Users/stapi/OneDrive/Desktop/GD32VW553/GD32VW55X_Wifi_BLE_SDK/GD32VW55x_RELEASE_V1.0.2/MSDK/ble/app\app_scan_mgr.c ****        this list of conditions and the following disclaimer in the documentation
  18:C:/Users/stapi/OneDrive/Desktop/GD32VW553/GD32VW55X_Wifi_BLE_SDK/GD32VW55x_RELEASE_V1.0.2/MSDK/ble/app\app_scan_mgr.c ****        and/or other materials provided with the distribution.
  19:C:/Users/stapi/OneDrive/Desktop/GD32VW553/GD32VW55X_Wifi_BLE_SDK/GD32VW55x_RELEASE_V1.0.2/MSDK/ble/app\app_scan_mgr.c ****     3. Neither the name of the copyright holder nor the names of its contributors
  20:C:/Users/stapi/OneDrive/Desktop/GD32VW553/GD32VW55X_Wifi_BLE_SDK/GD32VW55x_RELEASE_V1.0.2/MSDK/ble/app\app_scan_mgr.c ****        may be used to endorse or promote products derived from this software without
  21:C:/Users/stapi/OneDrive/Desktop/GD32VW553/GD32VW55X_Wifi_BLE_SDK/GD32VW55x_RELEASE_V1.0.2/MSDK/ble/app\app_scan_mgr.c ****        specific prior written permission.
  22:C:/Users/stapi/OneDrive/Desktop/GD32VW553/GD32VW55X_Wifi_BLE_SDK/GD32VW55x_RELEASE_V1.0.2/MSDK/ble/app\app_scan_mgr.c **** 
  23:C:/Users/stapi/OneDrive/Desktop/GD32VW553/GD32VW55X_Wifi_BLE_SDK/GD32VW55x_RELEASE_V1.0.2/MSDK/ble/app\app_scan_mgr.c ****     THIS SOFTWARE IS PROVIDED BY THE COPYRIGHT HOLDERS AND CONTRIBUTORS "AS IS"
  24:C:/Users/stapi/OneDrive/Desktop/GD32VW553/GD32VW55X_Wifi_BLE_SDK/GD32VW55x_RELEASE_V1.0.2/MSDK/ble/app\app_scan_mgr.c **** AND ANY EXPRESS OR IMPLIED WARRANTIES, INCLUDING, BUT NOT LIMITED TO, THE IMPLIED
  25:C:/Users/stapi/OneDrive/Desktop/GD32VW553/GD32VW55X_Wifi_BLE_SDK/GD32VW55x_RELEASE_V1.0.2/MSDK/ble/app\app_scan_mgr.c **** WARRANTIES OF MERCHANTABILITY AND FITNESS FOR A PARTICULAR PURPOSE ARE DISCLAIMED.
  26:C:/Users/stapi/OneDrive/Desktop/GD32VW553/GD32VW55X_Wifi_BLE_SDK/GD32VW55x_RELEASE_V1.0.2/MSDK/ble/app\app_scan_mgr.c **** IN NO EVENT SHALL THE COPYRIGHT HOLDER OR CONTRIBUTORS BE LIABLE FOR ANY DIRECT,
  27:C:/Users/stapi/OneDrive/Desktop/GD32VW553/GD32VW55X_Wifi_BLE_SDK/GD32VW55x_RELEASE_V1.0.2/MSDK/ble/app\app_scan_mgr.c **** INDIRECT, INCIDENTAL, SPECIAL, EXEMPLARY, OR CONSEQUENTIAL DAMAGES (INCLUDING, BUT
  28:C:/Users/stapi/OneDrive/Desktop/GD32VW553/GD32VW55X_Wifi_BLE_SDK/GD32VW55x_RELEASE_V1.0.2/MSDK/ble/app\app_scan_mgr.c **** NOT LIMITED TO, PROCUREMENT OF SUBSTITUTE GOODS OR SERVICES; LOSS OF USE, DATA, OR
  29:C:/Users/stapi/OneDrive/Desktop/GD32VW553/GD32VW55X_Wifi_BLE_SDK/GD32VW55x_RELEASE_V1.0.2/MSDK/ble/app\app_scan_mgr.c **** PROFITS; OR BUSINESS INTERRUPTION) HOWEVER CAUSED AND ON ANY THEORY OF LIABILITY,
  30:C:/Users/stapi/OneDrive/Desktop/GD32VW553/GD32VW55X_Wifi_BLE_SDK/GD32VW55x_RELEASE_V1.0.2/MSDK/ble/app\app_scan_mgr.c **** WHETHER IN CONTRACT, STRICT LIABILITY, OR TORT (INCLUDING NEGLIGENCE OR OTHERWISE)
  31:C:/Users/stapi/OneDrive/Desktop/GD32VW553/GD32VW55X_Wifi_BLE_SDK/GD32VW55x_RELEASE_V1.0.2/MSDK/ble/app\app_scan_mgr.c **** ARISING IN ANY WAY OUT OF THE USE OF THIS SOFTWARE, EVEN IF ADVISED OF THE POSSIBILITY
  32:C:/Users/stapi/OneDrive/Desktop/GD32VW553/GD32VW55X_Wifi_BLE_SDK/GD32VW55x_RELEASE_V1.0.2/MSDK/ble/app\app_scan_mgr.c **** OF SUCH DAMAGE.
  33:C:/Users/stapi/OneDrive/Desktop/GD32VW553/GD32VW55X_Wifi_BLE_SDK/GD32VW55x_RELEASE_V1.0.2/MSDK/ble/app\app_scan_mgr.c **** */
  34:C:/Users/stapi/OneDrive/Desktop/GD32VW553/GD32VW55X_Wifi_BLE_SDK/GD32VW55x_RELEASE_V1.0.2/MSDK/ble/app\app_scan_mgr.c **** 
  35:C:/Users/stapi/OneDrive/Desktop/GD32VW553/GD32VW55X_Wifi_BLE_SDK/GD32VW55x_RELEASE_V1.0.2/MSDK/ble/app\app_scan_mgr.c **** #include "ble_app_config.h"
  36:C:/Users/stapi/OneDrive/Desktop/GD32VW553/GD32VW55X_Wifi_BLE_SDK/GD32VW55x_RELEASE_V1.0.2/MSDK/ble/app\app_scan_mgr.c **** 
  37:C:/Users/stapi/OneDrive/Desktop/GD32VW553/GD32VW55X_Wifi_BLE_SDK/GD32VW55x_RELEASE_V1.0.2/MSDK/ble/app\app_scan_mgr.c **** #if (BLE_APP_SUPPORT && (BLE_CFG_ROLE & (BLE_CFG_ROLE_OBSERVER | BLE_CFG_ROLE_CENTRAL)))
  38:C:/Users/stapi/OneDrive/Desktop/GD32VW553/GD32VW55X_Wifi_BLE_SDK/GD32VW55x_RELEASE_V1.0.2/MSDK/ble/app\app_scan_mgr.c **** #include <string.h>
  39:C:/Users/stapi/OneDrive/Desktop/GD32VW553/GD32VW55X_Wifi_BLE_SDK/GD32VW55x_RELEASE_V1.0.2/MSDK/ble/app\app_scan_mgr.c **** #include "app_scan_mgr.h"
  40:C:/Users/stapi/OneDrive/Desktop/GD32VW553/GD32VW55X_Wifi_BLE_SDK/GD32VW55x_RELEASE_V1.0.2/MSDK/ble/app\app_scan_mgr.c **** #include "app_per_sync_mgr.h"
  41:C:/Users/stapi/OneDrive/Desktop/GD32VW553/GD32VW55X_Wifi_BLE_SDK/GD32VW55x_RELEASE_V1.0.2/MSDK/ble/app\app_scan_mgr.c **** 
  42:C:/Users/stapi/OneDrive/Desktop/GD32VW553/GD32VW55X_Wifi_BLE_SDK/GD32VW55x_RELEASE_V1.0.2/MSDK/ble/app\app_scan_mgr.c **** #include "ble_adv_data.h"
  43:C:/Users/stapi/OneDrive/Desktop/GD32VW553/GD32VW55X_Wifi_BLE_SDK/GD32VW55x_RELEASE_V1.0.2/MSDK/ble/app\app_scan_mgr.c **** #include "ble_scan.h"
  44:C:/Users/stapi/OneDrive/Desktop/GD32VW553/GD32VW55X_Wifi_BLE_SDK/GD32VW55x_RELEASE_V1.0.2/MSDK/ble/app\app_scan_mgr.c **** 
  45:C:/Users/stapi/OneDrive/Desktop/GD32VW553/GD32VW55X_Wifi_BLE_SDK/GD32VW55x_RELEASE_V1.0.2/MSDK/ble/app\app_scan_mgr.c **** #include "wrapper_os.h"
  46:C:/Users/stapi/OneDrive/Desktop/GD32VW553/GD32VW55X_Wifi_BLE_SDK/GD32VW55x_RELEASE_V1.0.2/MSDK/ble/app\app_scan_mgr.c **** #include "dbg_print.h"
  47:C:/Users/stapi/OneDrive/Desktop/GD32VW553/GD32VW55X_Wifi_BLE_SDK/GD32VW55x_RELEASE_V1.0.2/MSDK/ble/app\app_scan_mgr.c **** 
  48:C:/Users/stapi/OneDrive/Desktop/GD32VW553/GD32VW55X_Wifi_BLE_SDK/GD32VW55x_RELEASE_V1.0.2/MSDK/ble/app\app_scan_mgr.c **** /* Application scan manager module structure */
  49:C:/Users/stapi/OneDrive/Desktop/GD32VW553/GD32VW55X_Wifi_BLE_SDK/GD32VW55x_RELEASE_V1.0.2/MSDK/ble/app\app_scan_mgr.c **** typedef struct scan_mgr_cb
  50:C:/Users/stapi/OneDrive/Desktop/GD32VW553/GD32VW55X_Wifi_BLE_SDK/GD32VW55x_RELEASE_V1.0.2/MSDK/ble/app\app_scan_mgr.c **** {
  51:C:/Users/stapi/OneDrive/Desktop/GD32VW553/GD32VW55X_Wifi_BLE_SDK/GD32VW55x_RELEASE_V1.0.2/MSDK/ble/app\app_scan_mgr.c ****     bool    update_with_rssi;       /*!< Updata scanned device list if RSSI changed */
  52:C:/Users/stapi/OneDrive/Desktop/GD32VW553/GD32VW55X_Wifi_BLE_SDK/GD32VW55x_RELEASE_V1.0.2/MSDK/ble/app\app_scan_mgr.c ****     dlist_t devs_list;              /*!< Scanned device list */
  53:C:/Users/stapi/OneDrive/Desktop/GD32VW553/GD32VW55X_Wifi_BLE_SDK/GD32VW55x_RELEASE_V1.0.2/MSDK/ble/app\app_scan_mgr.c **** } scan_mgr_cb_t;
  54:C:/Users/stapi/OneDrive/Desktop/GD32VW553/GD32VW55X_Wifi_BLE_SDK/GD32VW55x_RELEASE_V1.0.2/MSDK/ble/app\app_scan_mgr.c **** 
  55:C:/Users/stapi/OneDrive/Desktop/GD32VW553/GD32VW55X_Wifi_BLE_SDK/GD32VW55x_RELEASE_V1.0.2/MSDK/ble/app\app_scan_mgr.c **** /* Application scan manager module data */
  56:C:/Users/stapi/OneDrive/Desktop/GD32VW553/GD32VW55X_Wifi_BLE_SDK/GD32VW55x_RELEASE_V1.0.2/MSDK/ble/app\app_scan_mgr.c **** static scan_mgr_cb_t ble_scan_mgr_cb;
  57:C:/Users/stapi/OneDrive/Desktop/GD32VW553/GD32VW55X_Wifi_BLE_SDK/GD32VW55x_RELEASE_V1.0.2/MSDK/ble/app\app_scan_mgr.c **** 
  58:C:/Users/stapi/OneDrive/Desktop/GD32VW553/GD32VW55X_Wifi_BLE_SDK/GD32VW55x_RELEASE_V1.0.2/MSDK/ble/app\app_scan_mgr.c **** /*!
  59:C:/Users/stapi/OneDrive/Desktop/GD32VW553/GD32VW55X_Wifi_BLE_SDK/GD32VW55x_RELEASE_V1.0.2/MSDK/ble/app\app_scan_mgr.c ****     \brief      Find device information by address in the scanned device list
  60:C:/Users/stapi/OneDrive/Desktop/GD32VW553/GD32VW55X_Wifi_BLE_SDK/GD32VW55x_RELEASE_V1.0.2/MSDK/ble/app\app_scan_mgr.c ****     \param[in]  p_peer_addr: pointer to peer device address
  61:C:/Users/stapi/OneDrive/Desktop/GD32VW553/GD32VW55X_Wifi_BLE_SDK/GD32VW55x_RELEASE_V1.0.2/MSDK/ble/app\app_scan_mgr.c ****     \param[out] none
  62:C:/Users/stapi/OneDrive/Desktop/GD32VW553/GD32VW55X_Wifi_BLE_SDK/GD32VW55x_RELEASE_V1.0.2/MSDK/ble/app\app_scan_mgr.c ****     \retval     dev_info_t *: pointer to the device information found
  63:C:/Users/stapi/OneDrive/Desktop/GD32VW553/GD32VW55X_Wifi_BLE_SDK/GD32VW55x_RELEASE_V1.0.2/MSDK/ble/app\app_scan_mgr.c **** */
  64:C:/Users/stapi/OneDrive/Desktop/GD32VW553/GD32VW55X_Wifi_BLE_SDK/GD32VW55x_RELEASE_V1.0.2/MSDK/ble/app\app_scan_mgr.c **** static dev_info_t *scan_mgr_find_device(ble_gap_addr_t *p_peer_addr)
  65:C:/Users/stapi/OneDrive/Desktop/GD32VW553/GD32VW55X_Wifi_BLE_SDK/GD32VW55x_RELEASE_V1.0.2/MSDK/ble/app\app_scan_mgr.c **** {
  66:C:/Users/stapi/OneDrive/Desktop/GD32VW553/GD32VW55X_Wifi_BLE_SDK/GD32VW55x_RELEASE_V1.0.2/MSDK/ble/app\app_scan_mgr.c ****     dlist_t *pos, *n;
  67:C:/Users/stapi/OneDrive/Desktop/GD32VW553/GD32VW55X_Wifi_BLE_SDK/GD32VW55x_RELEASE_V1.0.2/MSDK/ble/app\app_scan_mgr.c ****     dev_info_t *p_dev_info = NULL;
  68:C:/Users/stapi/OneDrive/Desktop/GD32VW553/GD32VW55X_Wifi_BLE_SDK/GD32VW55x_RELEASE_V1.0.2/MSDK/ble/app\app_scan_mgr.c **** 
  69:C:/Users/stapi/OneDrive/Desktop/GD32VW553/GD32VW55X_Wifi_BLE_SDK/GD32VW55x_RELEASE_V1.0.2/MSDK/ble/app\app_scan_mgr.c ****     if (list_empty(&ble_scan_mgr_cb.devs_list)) {
  70:C:/Users/stapi/OneDrive/Desktop/GD32VW553/GD32VW55X_Wifi_BLE_SDK/GD32VW55x_RELEASE_V1.0.2/MSDK/ble/app\app_scan_mgr.c ****         return NULL;
  71:C:/Users/stapi/OneDrive/Desktop/GD32VW553/GD32VW55X_Wifi_BLE_SDK/GD32VW55x_RELEASE_V1.0.2/MSDK/ble/app\app_scan_mgr.c ****     }
  72:C:/Users/stapi/OneDrive/Desktop/GD32VW553/GD32VW55X_Wifi_BLE_SDK/GD32VW55x_RELEASE_V1.0.2/MSDK/ble/app\app_scan_mgr.c **** 
  73:C:/Users/stapi/OneDrive/Desktop/GD32VW553/GD32VW55X_Wifi_BLE_SDK/GD32VW55x_RELEASE_V1.0.2/MSDK/ble/app\app_scan_mgr.c ****     list_for_each_safe(pos, n, &ble_scan_mgr_cb.devs_list) {
  74:C:/Users/stapi/OneDrive/Desktop/GD32VW553/GD32VW55X_Wifi_BLE_SDK/GD32VW55x_RELEASE_V1.0.2/MSDK/ble/app\app_scan_mgr.c ****         p_dev_info = list_entry(pos, dev_info_t, list);
  75:C:/Users/stapi/OneDrive/Desktop/GD32VW553/GD32VW55X_Wifi_BLE_SDK/GD32VW55x_RELEASE_V1.0.2/MSDK/ble/app\app_scan_mgr.c ****         if (p_peer_addr->addr_type == p_dev_info->peer_addr.addr_type &&
  76:C:/Users/stapi/OneDrive/Desktop/GD32VW553/GD32VW55X_Wifi_BLE_SDK/GD32VW55x_RELEASE_V1.0.2/MSDK/ble/app\app_scan_mgr.c ****             !memcmp(p_peer_addr->addr, p_dev_info->peer_addr.addr, BLE_GAP_ADDR_LEN)) {
  77:C:/Users/stapi/OneDrive/Desktop/GD32VW553/GD32VW55X_Wifi_BLE_SDK/GD32VW55x_RELEASE_V1.0.2/MSDK/ble/app\app_scan_mgr.c ****             return p_dev_info;
  78:C:/Users/stapi/OneDrive/Desktop/GD32VW553/GD32VW55X_Wifi_BLE_SDK/GD32VW55x_RELEASE_V1.0.2/MSDK/ble/app\app_scan_mgr.c ****         }
  79:C:/Users/stapi/OneDrive/Desktop/GD32VW553/GD32VW55X_Wifi_BLE_SDK/GD32VW55x_RELEASE_V1.0.2/MSDK/ble/app\app_scan_mgr.c ****     }
  80:C:/Users/stapi/OneDrive/Desktop/GD32VW553/GD32VW55X_Wifi_BLE_SDK/GD32VW55x_RELEASE_V1.0.2/MSDK/ble/app\app_scan_mgr.c **** 
  81:C:/Users/stapi/OneDrive/Desktop/GD32VW553/GD32VW55X_Wifi_BLE_SDK/GD32VW55x_RELEASE_V1.0.2/MSDK/ble/app\app_scan_mgr.c ****     return NULL;
  82:C:/Users/stapi/OneDrive/Desktop/GD32VW553/GD32VW55X_Wifi_BLE_SDK/GD32VW55x_RELEASE_V1.0.2/MSDK/ble/app\app_scan_mgr.c **** }
  83:C:/Users/stapi/OneDrive/Desktop/GD32VW553/GD32VW55X_Wifi_BLE_SDK/GD32VW55x_RELEASE_V1.0.2/MSDK/ble/app\app_scan_mgr.c **** 
  84:C:/Users/stapi/OneDrive/Desktop/GD32VW553/GD32VW55X_Wifi_BLE_SDK/GD32VW55x_RELEASE_V1.0.2/MSDK/ble/app\app_scan_mgr.c **** /*!
  85:C:/Users/stapi/OneDrive/Desktop/GD32VW553/GD32VW55X_Wifi_BLE_SDK/GD32VW55x_RELEASE_V1.0.2/MSDK/ble/app\app_scan_mgr.c ****     \brief      Get scanned device list size
  86:C:/Users/stapi/OneDrive/Desktop/GD32VW553/GD32VW55X_Wifi_BLE_SDK/GD32VW55x_RELEASE_V1.0.2/MSDK/ble/app\app_scan_mgr.c ****     \param[in]  none
  87:C:/Users/stapi/OneDrive/Desktop/GD32VW553/GD32VW55X_Wifi_BLE_SDK/GD32VW55x_RELEASE_V1.0.2/MSDK/ble/app\app_scan_mgr.c ****     \param[out] none
  88:C:/Users/stapi/OneDrive/Desktop/GD32VW553/GD32VW55X_Wifi_BLE_SDK/GD32VW55x_RELEASE_V1.0.2/MSDK/ble/app\app_scan_mgr.c ****     \retval     uint8_t: scanned device list size
  89:C:/Users/stapi/OneDrive/Desktop/GD32VW553/GD32VW55X_Wifi_BLE_SDK/GD32VW55x_RELEASE_V1.0.2/MSDK/ble/app\app_scan_mgr.c **** */
  90:C:/Users/stapi/OneDrive/Desktop/GD32VW553/GD32VW55X_Wifi_BLE_SDK/GD32VW55x_RELEASE_V1.0.2/MSDK/ble/app\app_scan_mgr.c **** static uint8_t scan_mgr_list_size(void)
  91:C:/Users/stapi/OneDrive/Desktop/GD32VW553/GD32VW55X_Wifi_BLE_SDK/GD32VW55x_RELEASE_V1.0.2/MSDK/ble/app\app_scan_mgr.c **** {
  92:C:/Users/stapi/OneDrive/Desktop/GD32VW553/GD32VW55X_Wifi_BLE_SDK/GD32VW55x_RELEASE_V1.0.2/MSDK/ble/app\app_scan_mgr.c ****     uint8_t num = 0;
  93:C:/Users/stapi/OneDrive/Desktop/GD32VW553/GD32VW55X_Wifi_BLE_SDK/GD32VW55x_RELEASE_V1.0.2/MSDK/ble/app\app_scan_mgr.c ****     dlist_t *pos, *n;
  94:C:/Users/stapi/OneDrive/Desktop/GD32VW553/GD32VW55X_Wifi_BLE_SDK/GD32VW55x_RELEASE_V1.0.2/MSDK/ble/app\app_scan_mgr.c **** 
  95:C:/Users/stapi/OneDrive/Desktop/GD32VW553/GD32VW55X_Wifi_BLE_SDK/GD32VW55x_RELEASE_V1.0.2/MSDK/ble/app\app_scan_mgr.c ****     if (list_empty(&ble_scan_mgr_cb.devs_list)) {
  96:C:/Users/stapi/OneDrive/Desktop/GD32VW553/GD32VW55X_Wifi_BLE_SDK/GD32VW55x_RELEASE_V1.0.2/MSDK/ble/app\app_scan_mgr.c ****         return 0;
  97:C:/Users/stapi/OneDrive/Desktop/GD32VW553/GD32VW55X_Wifi_BLE_SDK/GD32VW55x_RELEASE_V1.0.2/MSDK/ble/app\app_scan_mgr.c ****     }
  98:C:/Users/stapi/OneDrive/Desktop/GD32VW553/GD32VW55X_Wifi_BLE_SDK/GD32VW55x_RELEASE_V1.0.2/MSDK/ble/app\app_scan_mgr.c **** 
  99:C:/Users/stapi/OneDrive/Desktop/GD32VW553/GD32VW55X_Wifi_BLE_SDK/GD32VW55x_RELEASE_V1.0.2/MSDK/ble/app\app_scan_mgr.c ****     list_for_each_safe(pos, n, &ble_scan_mgr_cb.devs_list) {
 100:C:/Users/stapi/OneDrive/Desktop/GD32VW553/GD32VW55X_Wifi_BLE_SDK/GD32VW55x_RELEASE_V1.0.2/MSDK/ble/app\app_scan_mgr.c ****         num++;
 101:C:/Users/stapi/OneDrive/Desktop/GD32VW553/GD32VW55X_Wifi_BLE_SDK/GD32VW55x_RELEASE_V1.0.2/MSDK/ble/app\app_scan_mgr.c ****     }
 102:C:/Users/stapi/OneDrive/Desktop/GD32VW553/GD32VW55X_Wifi_BLE_SDK/GD32VW55x_RELEASE_V1.0.2/MSDK/ble/app\app_scan_mgr.c **** 
 103:C:/Users/stapi/OneDrive/Desktop/GD32VW553/GD32VW55X_Wifi_BLE_SDK/GD32VW55x_RELEASE_V1.0.2/MSDK/ble/app\app_scan_mgr.c ****     return num;
 104:C:/Users/stapi/OneDrive/Desktop/GD32VW553/GD32VW55X_Wifi_BLE_SDK/GD32VW55x_RELEASE_V1.0.2/MSDK/ble/app\app_scan_mgr.c **** }
 105:C:/Users/stapi/OneDrive/Desktop/GD32VW553/GD32VW55X_Wifi_BLE_SDK/GD32VW55x_RELEASE_V1.0.2/MSDK/ble/app\app_scan_mgr.c **** 
 106:C:/Users/stapi/OneDrive/Desktop/GD32VW553/GD32VW55X_Wifi_BLE_SDK/GD32VW55x_RELEASE_V1.0.2/MSDK/ble/app\app_scan_mgr.c **** /*!
 107:C:/Users/stapi/OneDrive/Desktop/GD32VW553/GD32VW55X_Wifi_BLE_SDK/GD32VW55x_RELEASE_V1.0.2/MSDK/ble/app\app_scan_mgr.c ****     \brief      Add device into scanned device list
 108:C:/Users/stapi/OneDrive/Desktop/GD32VW553/GD32VW55X_Wifi_BLE_SDK/GD32VW55x_RELEASE_V1.0.2/MSDK/ble/app\app_scan_mgr.c ****     \param[in]  p_peer_addr: pointer to peer device address
 109:C:/Users/stapi/OneDrive/Desktop/GD32VW553/GD32VW55X_Wifi_BLE_SDK/GD32VW55x_RELEASE_V1.0.2/MSDK/ble/app\app_scan_mgr.c ****     \param[out] none
 110:C:/Users/stapi/OneDrive/Desktop/GD32VW553/GD32VW55X_Wifi_BLE_SDK/GD32VW55x_RELEASE_V1.0.2/MSDK/ble/app\app_scan_mgr.c ****     \retval     uint8_t: 0xFF if add device fail, otherwise index in the list
 111:C:/Users/stapi/OneDrive/Desktop/GD32VW553/GD32VW55X_Wifi_BLE_SDK/GD32VW55x_RELEASE_V1.0.2/MSDK/ble/app\app_scan_mgr.c **** */
 112:C:/Users/stapi/OneDrive/Desktop/GD32VW553/GD32VW55X_Wifi_BLE_SDK/GD32VW55x_RELEASE_V1.0.2/MSDK/ble/app\app_scan_mgr.c **** static uint8_t scan_mgr_add_device(ble_gap_addr_t *p_peer_addr)
 113:C:/Users/stapi/OneDrive/Desktop/GD32VW553/GD32VW55X_Wifi_BLE_SDK/GD32VW55x_RELEASE_V1.0.2/MSDK/ble/app\app_scan_mgr.c **** {
 114:C:/Users/stapi/OneDrive/Desktop/GD32VW553/GD32VW55X_Wifi_BLE_SDK/GD32VW55x_RELEASE_V1.0.2/MSDK/ble/app\app_scan_mgr.c ****     dev_info_t *p_dev_info = NULL;
 115:C:/Users/stapi/OneDrive/Desktop/GD32VW553/GD32VW55X_Wifi_BLE_SDK/GD32VW55x_RELEASE_V1.0.2/MSDK/ble/app\app_scan_mgr.c **** 
 116:C:/Users/stapi/OneDrive/Desktop/GD32VW553/GD32VW55X_Wifi_BLE_SDK/GD32VW55x_RELEASE_V1.0.2/MSDK/ble/app\app_scan_mgr.c ****     p_dev_info = (dev_info_t *)sys_malloc(sizeof(dev_info_t));
 117:C:/Users/stapi/OneDrive/Desktop/GD32VW553/GD32VW55X_Wifi_BLE_SDK/GD32VW55x_RELEASE_V1.0.2/MSDK/ble/app\app_scan_mgr.c ****     if (p_dev_info) {
 118:C:/Users/stapi/OneDrive/Desktop/GD32VW553/GD32VW55X_Wifi_BLE_SDK/GD32VW55x_RELEASE_V1.0.2/MSDK/ble/app\app_scan_mgr.c ****         memset(p_dev_info, 0, sizeof(dev_info_t));
 119:C:/Users/stapi/OneDrive/Desktop/GD32VW553/GD32VW55X_Wifi_BLE_SDK/GD32VW55x_RELEASE_V1.0.2/MSDK/ble/app\app_scan_mgr.c **** 
 120:C:/Users/stapi/OneDrive/Desktop/GD32VW553/GD32VW55X_Wifi_BLE_SDK/GD32VW55x_RELEASE_V1.0.2/MSDK/ble/app\app_scan_mgr.c ****         INIT_DLIST_HEAD(&p_dev_info->list);
 121:C:/Users/stapi/OneDrive/Desktop/GD32VW553/GD32VW55X_Wifi_BLE_SDK/GD32VW55x_RELEASE_V1.0.2/MSDK/ble/app\app_scan_mgr.c ****         p_dev_info->peer_addr = *p_peer_addr;
 122:C:/Users/stapi/OneDrive/Desktop/GD32VW553/GD32VW55X_Wifi_BLE_SDK/GD32VW55x_RELEASE_V1.0.2/MSDK/ble/app\app_scan_mgr.c **** 
 123:C:/Users/stapi/OneDrive/Desktop/GD32VW553/GD32VW55X_Wifi_BLE_SDK/GD32VW55x_RELEASE_V1.0.2/MSDK/ble/app\app_scan_mgr.c ****         list_add_tail(&p_dev_info->list, &ble_scan_mgr_cb.devs_list);
 124:C:/Users/stapi/OneDrive/Desktop/GD32VW553/GD32VW55X_Wifi_BLE_SDK/GD32VW55x_RELEASE_V1.0.2/MSDK/ble/app\app_scan_mgr.c ****         return scan_mgr_list_size() - 1;
 125:C:/Users/stapi/OneDrive/Desktop/GD32VW553/GD32VW55X_Wifi_BLE_SDK/GD32VW55x_RELEASE_V1.0.2/MSDK/ble/app\app_scan_mgr.c ****     }
 126:C:/Users/stapi/OneDrive/Desktop/GD32VW553/GD32VW55X_Wifi_BLE_SDK/GD32VW55x_RELEASE_V1.0.2/MSDK/ble/app\app_scan_mgr.c ****     return 0xFF;
 127:C:/Users/stapi/OneDrive/Desktop/GD32VW553/GD32VW55X_Wifi_BLE_SDK/GD32VW55x_RELEASE_V1.0.2/MSDK/ble/app\app_scan_mgr.c **** }
 128:C:/Users/stapi/OneDrive/Desktop/GD32VW553/GD32VW55X_Wifi_BLE_SDK/GD32VW55x_RELEASE_V1.0.2/MSDK/ble/app\app_scan_mgr.c **** 
 129:C:/Users/stapi/OneDrive/Desktop/GD32VW553/GD32VW55X_Wifi_BLE_SDK/GD32VW55x_RELEASE_V1.0.2/MSDK/ble/app\app_scan_mgr.c **** /*!
 130:C:/Users/stapi/OneDrive/Desktop/GD32VW553/GD32VW55X_Wifi_BLE_SDK/GD32VW55x_RELEASE_V1.0.2/MSDK/ble/app\app_scan_mgr.c ****     \brief      Function to handle @ref BLE_SCAN_EVT_ADV_RPT event
 131:C:/Users/stapi/OneDrive/Desktop/GD32VW553/GD32VW55X_Wifi_BLE_SDK/GD32VW55x_RELEASE_V1.0.2/MSDK/ble/app\app_scan_mgr.c ****     \param[in]  p_info: pointer to advertising report information
 132:C:/Users/stapi/OneDrive/Desktop/GD32VW553/GD32VW55X_Wifi_BLE_SDK/GD32VW55x_RELEASE_V1.0.2/MSDK/ble/app\app_scan_mgr.c ****     \param[out] none
 133:C:/Users/stapi/OneDrive/Desktop/GD32VW553/GD32VW55X_Wifi_BLE_SDK/GD32VW55x_RELEASE_V1.0.2/MSDK/ble/app\app_scan_mgr.c ****     \retval     none
 134:C:/Users/stapi/OneDrive/Desktop/GD32VW553/GD32VW55X_Wifi_BLE_SDK/GD32VW55x_RELEASE_V1.0.2/MSDK/ble/app\app_scan_mgr.c **** */
 135:C:/Users/stapi/OneDrive/Desktop/GD32VW553/GD32VW55X_Wifi_BLE_SDK/GD32VW55x_RELEASE_V1.0.2/MSDK/ble/app\app_scan_mgr.c **** static void scan_mgr_report_hdlr(ble_gap_adv_report_info_t *p_info)
 136:C:/Users/stapi/OneDrive/Desktop/GD32VW553/GD32VW55X_Wifi_BLE_SDK/GD32VW55x_RELEASE_V1.0.2/MSDK/ble/app\app_scan_mgr.c **** {
 137:C:/Users/stapi/OneDrive/Desktop/GD32VW553/GD32VW55X_Wifi_BLE_SDK/GD32VW55x_RELEASE_V1.0.2/MSDK/ble/app\app_scan_mgr.c ****     uint8_t *p_name = NULL;
 138:C:/Users/stapi/OneDrive/Desktop/GD32VW553/GD32VW55X_Wifi_BLE_SDK/GD32VW55x_RELEASE_V1.0.2/MSDK/ble/app\app_scan_mgr.c ****     uint8_t name_len;
 139:C:/Users/stapi/OneDrive/Desktop/GD32VW553/GD32VW55X_Wifi_BLE_SDK/GD32VW55x_RELEASE_V1.0.2/MSDK/ble/app\app_scan_mgr.c ****     uint8_t name[31] = {'\0'};
 140:C:/Users/stapi/OneDrive/Desktop/GD32VW553/GD32VW55X_Wifi_BLE_SDK/GD32VW55x_RELEASE_V1.0.2/MSDK/ble/app\app_scan_mgr.c ****     dev_info_t *p_dev_info = scan_mgr_find_device(&p_info->peer_addr);
 141:C:/Users/stapi/OneDrive/Desktop/GD32VW553/GD32VW55X_Wifi_BLE_SDK/GD32VW55x_RELEASE_V1.0.2/MSDK/ble/app\app_scan_mgr.c **** 
 142:C:/Users/stapi/OneDrive/Desktop/GD32VW553/GD32VW55X_Wifi_BLE_SDK/GD32VW55x_RELEASE_V1.0.2/MSDK/ble/app\app_scan_mgr.c ****     if (p_info->period_adv_intv) {
 143:C:/Users/stapi/OneDrive/Desktop/GD32VW553/GD32VW55X_Wifi_BLE_SDK/GD32VW55x_RELEASE_V1.0.2/MSDK/ble/app\app_scan_mgr.c ****         #if BLE_APP_PER_ADV_SUPPORT
 144:C:/Users/stapi/OneDrive/Desktop/GD32VW553/GD32VW55X_Wifi_BLE_SDK/GD32VW55x_RELEASE_V1.0.2/MSDK/ble/app\app_scan_mgr.c ****         ble_per_sync_mgr_find_alloc_device(&p_info->peer_addr, p_info->adv_sid, p_info->period_adv_
 145:C:/Users/stapi/OneDrive/Desktop/GD32VW553/GD32VW55X_Wifi_BLE_SDK/GD32VW55x_RELEASE_V1.0.2/MSDK/ble/app\app_scan_mgr.c ****         #endif
 146:C:/Users/stapi/OneDrive/Desktop/GD32VW553/GD32VW55X_Wifi_BLE_SDK/GD32VW55x_RELEASE_V1.0.2/MSDK/ble/app\app_scan_mgr.c ****     }
 147:C:/Users/stapi/OneDrive/Desktop/GD32VW553/GD32VW55X_Wifi_BLE_SDK/GD32VW55x_RELEASE_V1.0.2/MSDK/ble/app\app_scan_mgr.c **** 
 148:C:/Users/stapi/OneDrive/Desktop/GD32VW553/GD32VW55X_Wifi_BLE_SDK/GD32VW55x_RELEASE_V1.0.2/MSDK/ble/app\app_scan_mgr.c ****     if (p_dev_info == NULL || ble_scan_mgr_cb.update_with_rssi || p_dev_info->recv_name_flag == 0) 
 149:C:/Users/stapi/OneDrive/Desktop/GD32VW553/GD32VW55X_Wifi_BLE_SDK/GD32VW55x_RELEASE_V1.0.2/MSDK/ble/app\app_scan_mgr.c ****         p_name = ble_adv_find(p_info->data.p_data, p_info->data.len, BLE_AD_TYPE_COMPLETE_LOCAL_NAM
 150:C:/Users/stapi/OneDrive/Desktop/GD32VW553/GD32VW55X_Wifi_BLE_SDK/GD32VW55x_RELEASE_V1.0.2/MSDK/ble/app\app_scan_mgr.c ****                               &name_len);
 151:C:/Users/stapi/OneDrive/Desktop/GD32VW553/GD32VW55X_Wifi_BLE_SDK/GD32VW55x_RELEASE_V1.0.2/MSDK/ble/app\app_scan_mgr.c ****         if (p_name == NULL) {
 152:C:/Users/stapi/OneDrive/Desktop/GD32VW553/GD32VW55X_Wifi_BLE_SDK/GD32VW55x_RELEASE_V1.0.2/MSDK/ble/app\app_scan_mgr.c ****             p_name = ble_adv_find(p_info->data.p_data, p_info->data.len, BLE_AD_TYPE_SHORT_LOCAL_NA
 153:C:/Users/stapi/OneDrive/Desktop/GD32VW553/GD32VW55X_Wifi_BLE_SDK/GD32VW55x_RELEASE_V1.0.2/MSDK/ble/app\app_scan_mgr.c ****                                   &name_len);
 154:C:/Users/stapi/OneDrive/Desktop/GD32VW553/GD32VW55X_Wifi_BLE_SDK/GD32VW55x_RELEASE_V1.0.2/MSDK/ble/app\app_scan_mgr.c ****         }
 155:C:/Users/stapi/OneDrive/Desktop/GD32VW553/GD32VW55X_Wifi_BLE_SDK/GD32VW55x_RELEASE_V1.0.2/MSDK/ble/app\app_scan_mgr.c **** 
 156:C:/Users/stapi/OneDrive/Desktop/GD32VW553/GD32VW55X_Wifi_BLE_SDK/GD32VW55x_RELEASE_V1.0.2/MSDK/ble/app\app_scan_mgr.c ****         if (p_name) {
 157:C:/Users/stapi/OneDrive/Desktop/GD32VW553/GD32VW55X_Wifi_BLE_SDK/GD32VW55x_RELEASE_V1.0.2/MSDK/ble/app\app_scan_mgr.c ****             memcpy(name, p_name, name_len > 30 ? 30 : name_len);
 158:C:/Users/stapi/OneDrive/Desktop/GD32VW553/GD32VW55X_Wifi_BLE_SDK/GD32VW55x_RELEASE_V1.0.2/MSDK/ble/app\app_scan_mgr.c ****         }
 159:C:/Users/stapi/OneDrive/Desktop/GD32VW553/GD32VW55X_Wifi_BLE_SDK/GD32VW55x_RELEASE_V1.0.2/MSDK/ble/app\app_scan_mgr.c **** 
 160:C:/Users/stapi/OneDrive/Desktop/GD32VW553/GD32VW55X_Wifi_BLE_SDK/GD32VW55x_RELEASE_V1.0.2/MSDK/ble/app\app_scan_mgr.c ****         if (p_dev_info == NULL) {
 161:C:/Users/stapi/OneDrive/Desktop/GD32VW553/GD32VW55X_Wifi_BLE_SDK/GD32VW55x_RELEASE_V1.0.2/MSDK/ble/app\app_scan_mgr.c ****             uint8_t idx = scan_mgr_add_device(&p_info->peer_addr);
 162:C:/Users/stapi/OneDrive/Desktop/GD32VW553/GD32VW55X_Wifi_BLE_SDK/GD32VW55x_RELEASE_V1.0.2/MSDK/ble/app\app_scan_mgr.c ****             p_dev_info = scan_mgr_find_dev_by_idx(idx);
 163:C:/Users/stapi/OneDrive/Desktop/GD32VW553/GD32VW55X_Wifi_BLE_SDK/GD32VW55x_RELEASE_V1.0.2/MSDK/ble/app\app_scan_mgr.c ****             p_dev_info->adv_sid = p_info->adv_sid;
 164:C:/Users/stapi/OneDrive/Desktop/GD32VW553/GD32VW55X_Wifi_BLE_SDK/GD32VW55x_RELEASE_V1.0.2/MSDK/ble/app\app_scan_mgr.c ****             p_dev_info->idx = idx;
 165:C:/Users/stapi/OneDrive/Desktop/GD32VW553/GD32VW55X_Wifi_BLE_SDK/GD32VW55x_RELEASE_V1.0.2/MSDK/ble/app\app_scan_mgr.c ****             dbg_print(NOTICE, "new device addr %02X:%02X:%02X:%02X:%02X:%02X, addr type 0x%x, rssi 
 166:C:/Users/stapi/OneDrive/Desktop/GD32VW553/GD32VW55X_Wifi_BLE_SDK/GD32VW55x_RELEASE_V1.0.2/MSDK/ble/app\app_scan_mgr.c ****                    p_info->peer_addr.addr[5], p_info->peer_addr.addr[4], p_info->peer_addr.addr[3],
 167:C:/Users/stapi/OneDrive/Desktop/GD32VW553/GD32VW55X_Wifi_BLE_SDK/GD32VW55x_RELEASE_V1.0.2/MSDK/ble/app\app_scan_mgr.c ****                    p_info->peer_addr.addr[2], p_info->peer_addr.addr[1], p_info->peer_addr.addr[0],
 168:C:/Users/stapi/OneDrive/Desktop/GD32VW553/GD32VW55X_Wifi_BLE_SDK/GD32VW55x_RELEASE_V1.0.2/MSDK/ble/app\app_scan_mgr.c ****                    p_info->peer_addr.addr_type, p_info->rssi, p_info->adv_sid, idx, p_info->period_
 169:C:/Users/stapi/OneDrive/Desktop/GD32VW553/GD32VW55X_Wifi_BLE_SDK/GD32VW55x_RELEASE_V1.0.2/MSDK/ble/app\app_scan_mgr.c ****         } else if ((p_dev_info->recv_name_flag == 0 && p_name != NULL) || ble_scan_mgr_cb.update_wi
 170:C:/Users/stapi/OneDrive/Desktop/GD32VW553/GD32VW55X_Wifi_BLE_SDK/GD32VW55x_RELEASE_V1.0.2/MSDK/ble/app\app_scan_mgr.c ****             dbg_print(NOTICE, "update device addr %02X:%02X:%02X:%02X:%02X:%02X, addr type 0x%x, rs
 171:C:/Users/stapi/OneDrive/Desktop/GD32VW553/GD32VW55X_Wifi_BLE_SDK/GD32VW55x_RELEASE_V1.0.2/MSDK/ble/app\app_scan_mgr.c ****                    p_info->peer_addr.addr[5], p_info->peer_addr.addr[4], p_info->peer_addr.addr[3],
 172:C:/Users/stapi/OneDrive/Desktop/GD32VW553/GD32VW55X_Wifi_BLE_SDK/GD32VW55x_RELEASE_V1.0.2/MSDK/ble/app\app_scan_mgr.c ****                    p_info->peer_addr.addr[2], p_info->peer_addr.addr[1], p_info->peer_addr.addr[0],
 173:C:/Users/stapi/OneDrive/Desktop/GD32VW553/GD32VW55X_Wifi_BLE_SDK/GD32VW55x_RELEASE_V1.0.2/MSDK/ble/app\app_scan_mgr.c ****                    p_info->peer_addr.addr_type, p_info->rssi, p_info->adv_sid, p_dev_info->idx, nam
 174:C:/Users/stapi/OneDrive/Desktop/GD32VW553/GD32VW55X_Wifi_BLE_SDK/GD32VW55x_RELEASE_V1.0.2/MSDK/ble/app\app_scan_mgr.c ****         }
 175:C:/Users/stapi/OneDrive/Desktop/GD32VW553/GD32VW55X_Wifi_BLE_SDK/GD32VW55x_RELEASE_V1.0.2/MSDK/ble/app\app_scan_mgr.c **** 
 176:C:/Users/stapi/OneDrive/Desktop/GD32VW553/GD32VW55X_Wifi_BLE_SDK/GD32VW55x_RELEASE_V1.0.2/MSDK/ble/app\app_scan_mgr.c ****         p_dev_info->recv_name_flag = (p_name == NULL ? 0 : 1);
 177:C:/Users/stapi/OneDrive/Desktop/GD32VW553/GD32VW55X_Wifi_BLE_SDK/GD32VW55x_RELEASE_V1.0.2/MSDK/ble/app\app_scan_mgr.c ****     }
 178:C:/Users/stapi/OneDrive/Desktop/GD32VW553/GD32VW55X_Wifi_BLE_SDK/GD32VW55x_RELEASE_V1.0.2/MSDK/ble/app\app_scan_mgr.c **** }
 179:C:/Users/stapi/OneDrive/Desktop/GD32VW553/GD32VW55X_Wifi_BLE_SDK/GD32VW55x_RELEASE_V1.0.2/MSDK/ble/app\app_scan_mgr.c **** 
 180:C:/Users/stapi/OneDrive/Desktop/GD32VW553/GD32VW55X_Wifi_BLE_SDK/GD32VW55x_RELEASE_V1.0.2/MSDK/ble/app\app_scan_mgr.c **** /*!
 181:C:/Users/stapi/OneDrive/Desktop/GD32VW553/GD32VW55X_Wifi_BLE_SDK/GD32VW55x_RELEASE_V1.0.2/MSDK/ble/app\app_scan_mgr.c ****     \brief      Callback function to handle BLE scan events
 182:C:/Users/stapi/OneDrive/Desktop/GD32VW553/GD32VW55X_Wifi_BLE_SDK/GD32VW55x_RELEASE_V1.0.2/MSDK/ble/app\app_scan_mgr.c ****     \param[in]  event: BLE scan event type
 183:C:/Users/stapi/OneDrive/Desktop/GD32VW553/GD32VW55X_Wifi_BLE_SDK/GD32VW55x_RELEASE_V1.0.2/MSDK/ble/app\app_scan_mgr.c ****     \param[in]  p_data: pointer to the BLE scan event data
 184:C:/Users/stapi/OneDrive/Desktop/GD32VW553/GD32VW55X_Wifi_BLE_SDK/GD32VW55x_RELEASE_V1.0.2/MSDK/ble/app\app_scan_mgr.c ****     \param[out] none
 185:C:/Users/stapi/OneDrive/Desktop/GD32VW553/GD32VW55X_Wifi_BLE_SDK/GD32VW55x_RELEASE_V1.0.2/MSDK/ble/app\app_scan_mgr.c ****     \retval     none
 186:C:/Users/stapi/OneDrive/Desktop/GD32VW553/GD32VW55X_Wifi_BLE_SDK/GD32VW55x_RELEASE_V1.0.2/MSDK/ble/app\app_scan_mgr.c **** */
 187:C:/Users/stapi/OneDrive/Desktop/GD32VW553/GD32VW55X_Wifi_BLE_SDK/GD32VW55x_RELEASE_V1.0.2/MSDK/ble/app\app_scan_mgr.c **** static void ble_app_scan_mgr_evt_handler(ble_scan_evt_t event, ble_scan_data_u *p_data)
 188:C:/Users/stapi/OneDrive/Desktop/GD32VW553/GD32VW55X_Wifi_BLE_SDK/GD32VW55x_RELEASE_V1.0.2/MSDK/ble/app\app_scan_mgr.c **** {
 189:C:/Users/stapi/OneDrive/Desktop/GD32VW553/GD32VW55X_Wifi_BLE_SDK/GD32VW55x_RELEASE_V1.0.2/MSDK/ble/app\app_scan_mgr.c ****     switch (event) {
 190:C:/Users/stapi/OneDrive/Desktop/GD32VW553/GD32VW55X_Wifi_BLE_SDK/GD32VW55x_RELEASE_V1.0.2/MSDK/ble/app\app_scan_mgr.c ****     case BLE_SCAN_EVT_STATE_CHG:
 191:C:/Users/stapi/OneDrive/Desktop/GD32VW553/GD32VW55X_Wifi_BLE_SDK/GD32VW55x_RELEASE_V1.0.2/MSDK/ble/app\app_scan_mgr.c ****         if (p_data->scan_state.scan_state == BLE_SCAN_STATE_ENABLED) {
 192:C:/Users/stapi/OneDrive/Desktop/GD32VW553/GD32VW55X_Wifi_BLE_SDK/GD32VW55x_RELEASE_V1.0.2/MSDK/ble/app\app_scan_mgr.c ****             dbg_print(NOTICE, "Ble Scan enabled status 0x%x\r\n", p_data->scan_state.reason);
 193:C:/Users/stapi/OneDrive/Desktop/GD32VW553/GD32VW55X_Wifi_BLE_SDK/GD32VW55x_RELEASE_V1.0.2/MSDK/ble/app\app_scan_mgr.c ****         }
 194:C:/Users/stapi/OneDrive/Desktop/GD32VW553/GD32VW55X_Wifi_BLE_SDK/GD32VW55x_RELEASE_V1.0.2/MSDK/ble/app\app_scan_mgr.c **** 
 195:C:/Users/stapi/OneDrive/Desktop/GD32VW553/GD32VW55X_Wifi_BLE_SDK/GD32VW55x_RELEASE_V1.0.2/MSDK/ble/app\app_scan_mgr.c ****         else if (p_data->scan_state.scan_state == BLE_SCAN_STATE_ENABLING) {
 196:C:/Users/stapi/OneDrive/Desktop/GD32VW553/GD32VW55X_Wifi_BLE_SDK/GD32VW55x_RELEASE_V1.0.2/MSDK/ble/app\app_scan_mgr.c ****             scan_mgr_clear_dev_list();
 197:C:/Users/stapi/OneDrive/Desktop/GD32VW553/GD32VW55X_Wifi_BLE_SDK/GD32VW55x_RELEASE_V1.0.2/MSDK/ble/app\app_scan_mgr.c ****         }
 198:C:/Users/stapi/OneDrive/Desktop/GD32VW553/GD32VW55X_Wifi_BLE_SDK/GD32VW55x_RELEASE_V1.0.2/MSDK/ble/app\app_scan_mgr.c **** 
 199:C:/Users/stapi/OneDrive/Desktop/GD32VW553/GD32VW55X_Wifi_BLE_SDK/GD32VW55x_RELEASE_V1.0.2/MSDK/ble/app\app_scan_mgr.c ****         else if (p_data->scan_state.scan_state == BLE_SCAN_STATE_DISABLED) {
 200:C:/Users/stapi/OneDrive/Desktop/GD32VW553/GD32VW55X_Wifi_BLE_SDK/GD32VW55x_RELEASE_V1.0.2/MSDK/ble/app\app_scan_mgr.c ****             dbg_print(NOTICE, "Ble Scan disabled  status 0x%x\r\n", p_data->scan_state.reason);
 201:C:/Users/stapi/OneDrive/Desktop/GD32VW553/GD32VW55X_Wifi_BLE_SDK/GD32VW55x_RELEASE_V1.0.2/MSDK/ble/app\app_scan_mgr.c ****         }
 202:C:/Users/stapi/OneDrive/Desktop/GD32VW553/GD32VW55X_Wifi_BLE_SDK/GD32VW55x_RELEASE_V1.0.2/MSDK/ble/app\app_scan_mgr.c ****         break;
 203:C:/Users/stapi/OneDrive/Desktop/GD32VW553/GD32VW55X_Wifi_BLE_SDK/GD32VW55x_RELEASE_V1.0.2/MSDK/ble/app\app_scan_mgr.c **** 
 204:C:/Users/stapi/OneDrive/Desktop/GD32VW553/GD32VW55X_Wifi_BLE_SDK/GD32VW55x_RELEASE_V1.0.2/MSDK/ble/app\app_scan_mgr.c ****     case BLE_SCAN_EVT_ADV_RPT:
 205:C:/Users/stapi/OneDrive/Desktop/GD32VW553/GD32VW55X_Wifi_BLE_SDK/GD32VW55x_RELEASE_V1.0.2/MSDK/ble/app\app_scan_mgr.c ****         scan_mgr_report_hdlr(p_data->p_adv_rpt);
 206:C:/Users/stapi/OneDrive/Desktop/GD32VW553/GD32VW55X_Wifi_BLE_SDK/GD32VW55x_RELEASE_V1.0.2/MSDK/ble/app\app_scan_mgr.c ****         break;
 207:C:/Users/stapi/OneDrive/Desktop/GD32VW553/GD32VW55X_Wifi_BLE_SDK/GD32VW55x_RELEASE_V1.0.2/MSDK/ble/app\app_scan_mgr.c ****     }
 208:C:/Users/stapi/OneDrive/Desktop/GD32VW553/GD32VW55X_Wifi_BLE_SDK/GD32VW55x_RELEASE_V1.0.2/MSDK/ble/app\app_scan_mgr.c **** }
 209:C:/Users/stapi/OneDrive/Desktop/GD32VW553/GD32VW55X_Wifi_BLE_SDK/GD32VW55x_RELEASE_V1.0.2/MSDK/ble/app\app_scan_mgr.c **** 
 210:C:/Users/stapi/OneDrive/Desktop/GD32VW553/GD32VW55X_Wifi_BLE_SDK/GD32VW55x_RELEASE_V1.0.2/MSDK/ble/app\app_scan_mgr.c **** /*!
 211:C:/Users/stapi/OneDrive/Desktop/GD32VW553/GD32VW55X_Wifi_BLE_SDK/GD32VW55x_RELEASE_V1.0.2/MSDK/ble/app\app_scan_mgr.c ****     \brief      List all the scanned devices
 212:C:/Users/stapi/OneDrive/Desktop/GD32VW553/GD32VW55X_Wifi_BLE_SDK/GD32VW55x_RELEASE_V1.0.2/MSDK/ble/app\app_scan_mgr.c ****     \param[in]  none
 213:C:/Users/stapi/OneDrive/Desktop/GD32VW553/GD32VW55X_Wifi_BLE_SDK/GD32VW55x_RELEASE_V1.0.2/MSDK/ble/app\app_scan_mgr.c ****     \param[out] none
 214:C:/Users/stapi/OneDrive/Desktop/GD32VW553/GD32VW55X_Wifi_BLE_SDK/GD32VW55x_RELEASE_V1.0.2/MSDK/ble/app\app_scan_mgr.c ****     \retval     none
 215:C:/Users/stapi/OneDrive/Desktop/GD32VW553/GD32VW55X_Wifi_BLE_SDK/GD32VW55x_RELEASE_V1.0.2/MSDK/ble/app\app_scan_mgr.c **** */
 216:C:/Users/stapi/OneDrive/Desktop/GD32VW553/GD32VW55X_Wifi_BLE_SDK/GD32VW55x_RELEASE_V1.0.2/MSDK/ble/app\app_scan_mgr.c **** void scan_mgr_list_scanned_devices(void)
 217:C:/Users/stapi/OneDrive/Desktop/GD32VW553/GD32VW55X_Wifi_BLE_SDK/GD32VW55x_RELEASE_V1.0.2/MSDK/ble/app\app_scan_mgr.c **** {
  23              		.loc 1 217 1
  24              		.cfi_startproc
  25 0000 17030000 		call	t0,__riscv_save_6
  25      E7020300 
  26              		.cfi_offset 21, -28
  27              		.cfi_offset 20, -24
  28              		.cfi_offset 19, -20
  29              		.cfi_offset 18, -16
  30              		.cfi_offset 9, -12
  31              		.cfi_offset 8, -8
  32              		.cfi_offset 1, -4
  33              		.cfi_def_cfa_offset 32
 218:C:/Users/stapi/OneDrive/Desktop/GD32VW553/GD32VW55X_Wifi_BLE_SDK/GD32VW55x_RELEASE_V1.0.2/MSDK/ble/app\app_scan_mgr.c ****     dev_info_t *p_dev_info = NULL;
  34              		.loc 1 218 5
  35              	.LVL0:
 219:C:/Users/stapi/OneDrive/Desktop/GD32VW553/GD32VW55X_Wifi_BLE_SDK/GD32VW55x_RELEASE_V1.0.2/MSDK/ble/app\app_scan_mgr.c ****     dlist_t *pos, *n;
  36              		.loc 1 219 5
 220:C:/Users/stapi/OneDrive/Desktop/GD32VW553/GD32VW55X_Wifi_BLE_SDK/GD32VW55x_RELEASE_V1.0.2/MSDK/ble/app\app_scan_mgr.c ****     uint8_t elt_idx = 0;
  37              		.loc 1 220 5
 221:C:/Users/stapi/OneDrive/Desktop/GD32VW553/GD32VW55X_Wifi_BLE_SDK/GD32VW55x_RELEASE_V1.0.2/MSDK/ble/app\app_scan_mgr.c **** 
 222:C:/Users/stapi/OneDrive/Desktop/GD32VW553/GD32VW55X_Wifi_BLE_SDK/GD32VW55x_RELEASE_V1.0.2/MSDK/ble/app\app_scan_mgr.c ****     if (list_empty(&ble_scan_mgr_cb.devs_list)) {
  38              		.loc 1 222 5
  39              		.loc 1 222 9 is_stmt 0
  40 0008 37040000 		lui	s0,%hi(.LANCHOR0)
  41 000c 13040400 		addi	s0,s0,%lo(.LANCHOR0)
  42 0010 13054400 		addi	a0,s0,4
  43 0014 97000000 		call	list_empty
  43      E7800000 
  44              	.LVL1:
  45              		.loc 1 222 8
  46 001c 05C5     		beq	a0,zero,.L2
 223:C:/Users/stapi/OneDrive/Desktop/GD32VW553/GD32VW55X_Wifi_BLE_SDK/GD32VW55x_RELEASE_V1.0.2/MSDK/ble/app\app_scan_mgr.c ****         dbg_print(NOTICE, "======= scan list empty =========\r\n");
  47              		.loc 1 223 9 is_stmt 1
  48              		.loc 1 223 9
  49 001e B7070000 		lui	a5,%hi(global_debug_level)
  50 0022 03C70700 		lbu	a4,%lo(global_debug_level)(a5)
  51 0026 8947     		li	a5,2
  52 0028 63FAE700 		bleu	a4,a5,.L1
  53              		.loc 1 223 9 discriminator 1
  54 002c 37050000 		lui	a0,%hi(.LC0)
  55 0030 13050500 		addi	a0,a0,%lo(.LC0)
  56 0034 97000000 		call	co_printf
  56      E7800000 
  57              	.LVL2:
  58              	.L1:
 224:C:/Users/stapi/OneDrive/Desktop/GD32VW553/GD32VW55X_Wifi_BLE_SDK/GD32VW55x_RELEASE_V1.0.2/MSDK/ble/app\app_scan_mgr.c ****         return;
 225:C:/Users/stapi/OneDrive/Desktop/GD32VW553/GD32VW55X_Wifi_BLE_SDK/GD32VW55x_RELEASE_V1.0.2/MSDK/ble/app\app_scan_mgr.c ****     }
 226:C:/Users/stapi/OneDrive/Desktop/GD32VW553/GD32VW55X_Wifi_BLE_SDK/GD32VW55x_RELEASE_V1.0.2/MSDK/ble/app\app_scan_mgr.c **** 
 227:C:/Users/stapi/OneDrive/Desktop/GD32VW553/GD32VW55X_Wifi_BLE_SDK/GD32VW55x_RELEASE_V1.0.2/MSDK/ble/app\app_scan_mgr.c ****     list_for_each_safe(pos, n, &ble_scan_mgr_cb.devs_list) {
 228:C:/Users/stapi/OneDrive/Desktop/GD32VW553/GD32VW55X_Wifi_BLE_SDK/GD32VW55x_RELEASE_V1.0.2/MSDK/ble/app\app_scan_mgr.c ****         p_dev_info = list_entry(pos, dev_info_t, list);
 229:C:/Users/stapi/OneDrive/Desktop/GD32VW553/GD32VW55X_Wifi_BLE_SDK/GD32VW55x_RELEASE_V1.0.2/MSDK/ble/app\app_scan_mgr.c ****         dbg_print(NOTICE, "dev idx: %u, device addr: %02X:%02X:%02X:%02X:%02X:%02X\r\n", elt_idx,
 230:C:/Users/stapi/OneDrive/Desktop/GD32VW553/GD32VW55X_Wifi_BLE_SDK/GD32VW55x_RELEASE_V1.0.2/MSDK/ble/app\app_scan_mgr.c ****                p_dev_info->peer_addr.addr[5], p_dev_info->peer_addr.addr[4], p_dev_info->peer_addr.
 231:C:/Users/stapi/OneDrive/Desktop/GD32VW553/GD32VW55X_Wifi_BLE_SDK/GD32VW55x_RELEASE_V1.0.2/MSDK/ble/app\app_scan_mgr.c ****                p_dev_info->peer_addr.addr[2], p_dev_info->peer_addr.addr[1], p_dev_info->peer_addr.
 232:C:/Users/stapi/OneDrive/Desktop/GD32VW553/GD32VW55X_Wifi_BLE_SDK/GD32VW55x_RELEASE_V1.0.2/MSDK/ble/app\app_scan_mgr.c ****         elt_idx++;
 233:C:/Users/stapi/OneDrive/Desktop/GD32VW553/GD32VW55X_Wifi_BLE_SDK/GD32VW55x_RELEASE_V1.0.2/MSDK/ble/app\app_scan_mgr.c ****     }
 234:C:/Users/stapi/OneDrive/Desktop/GD32VW553/GD32VW55X_Wifi_BLE_SDK/GD32VW55x_RELEASE_V1.0.2/MSDK/ble/app\app_scan_mgr.c **** }
  59              		.loc 1 234 1 is_stmt 0
  60 003c 17030000 		tail	__riscv_restore_6
  60      67000300 
  61              		.cfi_remember_state
  62              		.cfi_restore 21
  63              		.cfi_restore 20
  64              		.cfi_restore 19
  65              		.cfi_restore 18
  66              		.cfi_restore 9
  67              		.cfi_restore 8
  68              		.cfi_restore 1
  69              		.cfi_def_cfa_offset 0
  70              	.LVL3:
  71              	.L2:
  72              		.cfi_restore_state
 227:C:/Users/stapi/OneDrive/Desktop/GD32VW553/GD32VW55X_Wifi_BLE_SDK/GD32VW55x_RELEASE_V1.0.2/MSDK/ble/app\app_scan_mgr.c ****         p_dev_info = list_entry(pos, dev_info_t, list);
  73              		.loc 1 227 5
  74 0044 5040     		lw	a2,4(s0)
  75 0046 B7040000 		lui	s1,%hi(.LANCHOR0+4)
  76 004a 93844400 		addi	s1,s1,%lo(.LANCHOR0+4)
 227:C:/Users/stapi/OneDrive/Desktop/GD32VW553/GD32VW55X_Wifi_BLE_SDK/GD32VW55x_RELEASE_V1.0.2/MSDK/ble/app\app_scan_mgr.c ****         p_dev_info = list_entry(pos, dev_info_t, list);
  77              		.loc 1 227 5 is_stmt 1
  78              	.LVL4:
  79 004e 03290600 		lw	s2,0(a2)
  80              	.LVL5:
 220:C:/Users/stapi/OneDrive/Desktop/GD32VW553/GD32VW55X_Wifi_BLE_SDK/GD32VW55x_RELEASE_V1.0.2/MSDK/ble/app\app_scan_mgr.c **** 
  81              		.loc 1 220 13 is_stmt 0
  82 0052 0144     		li	s0,0
 229:C:/Users/stapi/OneDrive/Desktop/GD32VW553/GD32VW55X_Wifi_BLE_SDK/GD32VW55x_RELEASE_V1.0.2/MSDK/ble/app\app_scan_mgr.c ****                p_dev_info->peer_addr.addr[5], p_dev_info->peer_addr.addr[4], p_dev_info->peer_addr.
  83              		.loc 1 229 9
  84 0054 B7090000 		lui	s3,%hi(global_debug_level)
  85 0058 094A     		li	s4,2
  86 005a B70A0000 		lui	s5,%hi(.LC1)
  87              	.LVL6:
  88              	.L5:
 227:C:/Users/stapi/OneDrive/Desktop/GD32VW553/GD32VW55X_Wifi_BLE_SDK/GD32VW55x_RELEASE_V1.0.2/MSDK/ble/app\app_scan_mgr.c ****         p_dev_info = list_entry(pos, dev_info_t, list);
  89              		.loc 1 227 5 is_stmt 1 discriminator 2
  90 005e E30F96FC 		beq	a2,s1,.L1
 228:C:/Users/stapi/OneDrive/Desktop/GD32VW553/GD32VW55X_Wifi_BLE_SDK/GD32VW55x_RELEASE_V1.0.2/MSDK/ble/app\app_scan_mgr.c ****         dbg_print(NOTICE, "dev idx: %u, device addr: %02X:%02X:%02X:%02X:%02X:%02X\r\n", elt_idx,
  91              		.loc 1 228 9
  92              	.LVL7:
 229:C:/Users/stapi/OneDrive/Desktop/GD32VW553/GD32VW55X_Wifi_BLE_SDK/GD32VW55x_RELEASE_V1.0.2/MSDK/ble/app\app_scan_mgr.c ****                p_dev_info->peer_addr.addr[5], p_dev_info->peer_addr.addr[4], p_dev_info->peer_addr.
  93              		.loc 1 229 9
 229:C:/Users/stapi/OneDrive/Desktop/GD32VW553/GD32VW55X_Wifi_BLE_SDK/GD32VW55x_RELEASE_V1.0.2/MSDK/ble/app\app_scan_mgr.c ****                p_dev_info->peer_addr.addr[5], p_dev_info->peer_addr.addr[4], p_dev_info->peer_addr.
  94              		.loc 1 229 9
  95 0062 83C70900 		lbu	a5,%lo(global_debug_level)(s3)
  96 0066 6375FA02 		bleu	a5,s4,.L6
 229:C:/Users/stapi/OneDrive/Desktop/GD32VW553/GD32VW55X_Wifi_BLE_SDK/GD32VW55x_RELEASE_V1.0.2/MSDK/ble/app\app_scan_mgr.c ****                p_dev_info->peer_addr.addr[5], p_dev_info->peer_addr.addr[4], p_dev_info->peer_addr.
  97              		.loc 1 229 9 discriminator 1
  98 006a 83489600 		lbu	a7,9(a2)
  99 006e 0348A600 		lbu	a6,10(a2)
 100 0072 8347B600 		lbu	a5,11(a2)
 101 0076 0347C600 		lbu	a4,12(a2)
 102 007a 8346D600 		lbu	a3,13(a2)
 103 007e 0346E600 		lbu	a2,14(a2)
 104              	.LVL8:
 105 0082 A285     		mv	a1,s0
 106 0084 13850A00 		addi	a0,s5,%lo(.LC1)
 107 0088 97000000 		call	co_printf
 107      E7800000 
 108              	.LVL9:
 109              	.L6:
 229:C:/Users/stapi/OneDrive/Desktop/GD32VW553/GD32VW55X_Wifi_BLE_SDK/GD32VW55x_RELEASE_V1.0.2/MSDK/ble/app\app_scan_mgr.c ****                p_dev_info->peer_addr.addr[5], p_dev_info->peer_addr.addr[4], p_dev_info->peer_addr.
 110              		.loc 1 229 9 discriminator 3
 232:C:/Users/stapi/OneDrive/Desktop/GD32VW553/GD32VW55X_Wifi_BLE_SDK/GD32VW55x_RELEASE_V1.0.2/MSDK/ble/app\app_scan_mgr.c ****     }
 111              		.loc 1 232 9 discriminator 3
 232:C:/Users/stapi/OneDrive/Desktop/GD32VW553/GD32VW55X_Wifi_BLE_SDK/GD32VW55x_RELEASE_V1.0.2/MSDK/ble/app\app_scan_mgr.c ****     }
 112              		.loc 1 232 16 is_stmt 0 discriminator 3
 113 0090 0504     		addi	s0,s0,1
 114              	.LVL10:
 227:C:/Users/stapi/OneDrive/Desktop/GD32VW553/GD32VW55X_Wifi_BLE_SDK/GD32VW55x_RELEASE_V1.0.2/MSDK/ble/app\app_scan_mgr.c ****         p_dev_info = list_entry(pos, dev_info_t, list);
 115              		.loc 1 227 5 discriminator 3
 116 0092 4A86     		mv	a2,s2
 232:C:/Users/stapi/OneDrive/Desktop/GD32VW553/GD32VW55X_Wifi_BLE_SDK/GD32VW55x_RELEASE_V1.0.2/MSDK/ble/app\app_scan_mgr.c ****     }
 117              		.loc 1 232 16 discriminator 3
 118 0094 1374F40F 		andi	s0,s0,0xff
 119              	.LVL11:
 227:C:/Users/stapi/OneDrive/Desktop/GD32VW553/GD32VW55X_Wifi_BLE_SDK/GD32VW55x_RELEASE_V1.0.2/MSDK/ble/app\app_scan_mgr.c ****         p_dev_info = list_entry(pos, dev_info_t, list);
 120              		.loc 1 227 5 is_stmt 1 discriminator 3
 121 0098 03290900 		lw	s2,0(s2)
 122 009c C9B7     		j	.L5
 123              		.cfi_endproc
 124              	.LFE6:
 126              		.section	.text.scan_mgr_find_dev_by_idx,"ax",@progbits
 127              		.align	1
 128              		.globl	scan_mgr_find_dev_by_idx
 130              	scan_mgr_find_dev_by_idx:
 131              	.LFB7:
 235:C:/Users/stapi/OneDrive/Desktop/GD32VW553/GD32VW55X_Wifi_BLE_SDK/GD32VW55x_RELEASE_V1.0.2/MSDK/ble/app\app_scan_mgr.c **** 
 236:C:/Users/stapi/OneDrive/Desktop/GD32VW553/GD32VW55X_Wifi_BLE_SDK/GD32VW55x_RELEASE_V1.0.2/MSDK/ble/app\app_scan_mgr.c **** /*!
 237:C:/Users/stapi/OneDrive/Desktop/GD32VW553/GD32VW55X_Wifi_BLE_SDK/GD32VW55x_RELEASE_V1.0.2/MSDK/ble/app\app_scan_mgr.c ****     \brief      Find scanned device information by index in scanned device list
 238:C:/Users/stapi/OneDrive/Desktop/GD32VW553/GD32VW55X_Wifi_BLE_SDK/GD32VW55x_RELEASE_V1.0.2/MSDK/ble/app\app_scan_mgr.c ****     \param[in]  idx: scanned device index
 239:C:/Users/stapi/OneDrive/Desktop/GD32VW553/GD32VW55X_Wifi_BLE_SDK/GD32VW55x_RELEASE_V1.0.2/MSDK/ble/app\app_scan_mgr.c ****     \param[out] none
 240:C:/Users/stapi/OneDrive/Desktop/GD32VW553/GD32VW55X_Wifi_BLE_SDK/GD32VW55x_RELEASE_V1.0.2/MSDK/ble/app\app_scan_mgr.c ****     \retval     dev_info_t *: pointer to the scanned device information found
 241:C:/Users/stapi/OneDrive/Desktop/GD32VW553/GD32VW55X_Wifi_BLE_SDK/GD32VW55x_RELEASE_V1.0.2/MSDK/ble/app\app_scan_mgr.c **** */
 242:C:/Users/stapi/OneDrive/Desktop/GD32VW553/GD32VW55X_Wifi_BLE_SDK/GD32VW55x_RELEASE_V1.0.2/MSDK/ble/app\app_scan_mgr.c **** dev_info_t *scan_mgr_find_dev_by_idx(uint8_t idx)
 243:C:/Users/stapi/OneDrive/Desktop/GD32VW553/GD32VW55X_Wifi_BLE_SDK/GD32VW55x_RELEASE_V1.0.2/MSDK/ble/app\app_scan_mgr.c **** {
 132              		.loc 1 243 1
 133              		.cfi_startproc
 134              	.LVL12:
 135 0000 17030000 		call	t0,__riscv_save_2
 135      E7020300 
 136              		.cfi_offset 9, -12
 137              		.cfi_offset 8, -8
 138              		.cfi_offset 1, -4
 139              		.cfi_def_cfa_offset 16
 244:C:/Users/stapi/OneDrive/Desktop/GD32VW553/GD32VW55X_Wifi_BLE_SDK/GD32VW55x_RELEASE_V1.0.2/MSDK/ble/app\app_scan_mgr.c ****     dev_info_t *p_dev_info = NULL;
 140              		.loc 1 244 5
 141              	.LVL13:
 245:C:/Users/stapi/OneDrive/Desktop/GD32VW553/GD32VW55X_Wifi_BLE_SDK/GD32VW55x_RELEASE_V1.0.2/MSDK/ble/app\app_scan_mgr.c ****     dlist_t *pos, *n;
 142              		.loc 1 245 5
 246:C:/Users/stapi/OneDrive/Desktop/GD32VW553/GD32VW55X_Wifi_BLE_SDK/GD32VW55x_RELEASE_V1.0.2/MSDK/ble/app\app_scan_mgr.c ****     uint8_t elt_idx = 0;
 143              		.loc 1 246 5
 247:C:/Users/stapi/OneDrive/Desktop/GD32VW553/GD32VW55X_Wifi_BLE_SDK/GD32VW55x_RELEASE_V1.0.2/MSDK/ble/app\app_scan_mgr.c **** 
 248:C:/Users/stapi/OneDrive/Desktop/GD32VW553/GD32VW55X_Wifi_BLE_SDK/GD32VW55x_RELEASE_V1.0.2/MSDK/ble/app\app_scan_mgr.c ****     if (list_empty(&ble_scan_mgr_cb.devs_list)) {
 144              		.loc 1 248 5
 145              		.loc 1 248 9 is_stmt 0
 146 0008 37040000 		lui	s0,%hi(.LANCHOR0)
 147 000c 13040400 		addi	s0,s0,%lo(.LANCHOR0)
 243:C:/Users/stapi/OneDrive/Desktop/GD32VW553/GD32VW55X_Wifi_BLE_SDK/GD32VW55x_RELEASE_V1.0.2/MSDK/ble/app\app_scan_mgr.c ****     dev_info_t *p_dev_info = NULL;
 148              		.loc 1 243 1
 149 0010 AA84     		mv	s1,a0
 150              		.loc 1 248 9
 151 0012 13054400 		addi	a0,s0,4
 152              	.LVL14:
 153 0016 97000000 		call	list_empty
 153      E7800000 
 154              	.LVL15:
 155              		.loc 1 248 8
 156 001e 11E9     		bne	a0,zero,.L14
 249:C:/Users/stapi/OneDrive/Desktop/GD32VW553/GD32VW55X_Wifi_BLE_SDK/GD32VW55x_RELEASE_V1.0.2/MSDK/ble/app\app_scan_mgr.c ****         return NULL;
 250:C:/Users/stapi/OneDrive/Desktop/GD32VW553/GD32VW55X_Wifi_BLE_SDK/GD32VW55x_RELEASE_V1.0.2/MSDK/ble/app\app_scan_mgr.c ****     }
 251:C:/Users/stapi/OneDrive/Desktop/GD32VW553/GD32VW55X_Wifi_BLE_SDK/GD32VW55x_RELEASE_V1.0.2/MSDK/ble/app\app_scan_mgr.c **** 
 252:C:/Users/stapi/OneDrive/Desktop/GD32VW553/GD32VW55X_Wifi_BLE_SDK/GD32VW55x_RELEASE_V1.0.2/MSDK/ble/app\app_scan_mgr.c ****     list_for_each_safe(pos, n, &ble_scan_mgr_cb.devs_list) {
 157              		.loc 1 252 5
 158 0020 4840     		lw	a0,4(s0)
 159 0022 37070000 		lui	a4,%hi(.LANCHOR0+4)
 160 0026 13074700 		addi	a4,a4,%lo(.LANCHOR0+4)
 161              		.loc 1 252 5 is_stmt 1
 162              	.LVL16:
 163 002a 1441     		lw	a3,0(a0)
 164              	.LVL17:
 246:C:/Users/stapi/OneDrive/Desktop/GD32VW553/GD32VW55X_Wifi_BLE_SDK/GD32VW55x_RELEASE_V1.0.2/MSDK/ble/app\app_scan_mgr.c **** 
 165              		.loc 1 246 13 is_stmt 0
 166 002c 8147     		li	a5,0
 167              	.LVL18:
 168              	.L12:
 169              		.loc 1 252 5 is_stmt 1 discriminator 1
 170 002e 6317E500 		bne	a0,a4,.L13
 171              	.LVL19:
 172              	.L14:
 249:C:/Users/stapi/OneDrive/Desktop/GD32VW553/GD32VW55X_Wifi_BLE_SDK/GD32VW55x_RELEASE_V1.0.2/MSDK/ble/app\app_scan_mgr.c ****         return NULL;
 173              		.loc 1 249 16 is_stmt 0
 174 0032 0145     		li	a0,0
 175              	.L10:
 253:C:/Users/stapi/OneDrive/Desktop/GD32VW553/GD32VW55X_Wifi_BLE_SDK/GD32VW55x_RELEASE_V1.0.2/MSDK/ble/app\app_scan_mgr.c ****         p_dev_info = list_entry(pos, dev_info_t, list);
 254:C:/Users/stapi/OneDrive/Desktop/GD32VW553/GD32VW55X_Wifi_BLE_SDK/GD32VW55x_RELEASE_V1.0.2/MSDK/ble/app\app_scan_mgr.c ****         if (elt_idx == idx) {
 255:C:/Users/stapi/OneDrive/Desktop/GD32VW553/GD32VW55X_Wifi_BLE_SDK/GD32VW55x_RELEASE_V1.0.2/MSDK/ble/app\app_scan_mgr.c ****             return p_dev_info;
 256:C:/Users/stapi/OneDrive/Desktop/GD32VW553/GD32VW55X_Wifi_BLE_SDK/GD32VW55x_RELEASE_V1.0.2/MSDK/ble/app\app_scan_mgr.c ****         }
 257:C:/Users/stapi/OneDrive/Desktop/GD32VW553/GD32VW55X_Wifi_BLE_SDK/GD32VW55x_RELEASE_V1.0.2/MSDK/ble/app\app_scan_mgr.c **** 
 258:C:/Users/stapi/OneDrive/Desktop/GD32VW553/GD32VW55X_Wifi_BLE_SDK/GD32VW55x_RELEASE_V1.0.2/MSDK/ble/app\app_scan_mgr.c ****         elt_idx++;
 259:C:/Users/stapi/OneDrive/Desktop/GD32VW553/GD32VW55X_Wifi_BLE_SDK/GD32VW55x_RELEASE_V1.0.2/MSDK/ble/app\app_scan_mgr.c ****     }
 260:C:/Users/stapi/OneDrive/Desktop/GD32VW553/GD32VW55X_Wifi_BLE_SDK/GD32VW55x_RELEASE_V1.0.2/MSDK/ble/app\app_scan_mgr.c ****     return NULL;
 261:C:/Users/stapi/OneDrive/Desktop/GD32VW553/GD32VW55X_Wifi_BLE_SDK/GD32VW55x_RELEASE_V1.0.2/MSDK/ble/app\app_scan_mgr.c **** }
 176              		.loc 1 261 1
 177 0034 17030000 		tail	__riscv_restore_2
 177      67000300 
 178              		.cfi_remember_state
 179              		.cfi_restore 9
 180              		.cfi_restore 8
 181              		.cfi_restore 1
 182              		.cfi_def_cfa_offset 0
 183              	.LVL20:
 184              	.L13:
 185              		.cfi_restore_state
 253:C:/Users/stapi/OneDrive/Desktop/GD32VW553/GD32VW55X_Wifi_BLE_SDK/GD32VW55x_RELEASE_V1.0.2/MSDK/ble/app\app_scan_mgr.c ****         p_dev_info = list_entry(pos, dev_info_t, list);
 186              		.loc 1 253 9 is_stmt 1
 254:C:/Users/stapi/OneDrive/Desktop/GD32VW553/GD32VW55X_Wifi_BLE_SDK/GD32VW55x_RELEASE_V1.0.2/MSDK/ble/app\app_scan_mgr.c ****             return p_dev_info;
 187              		.loc 1 254 9
 254:C:/Users/stapi/OneDrive/Desktop/GD32VW553/GD32VW55X_Wifi_BLE_SDK/GD32VW55x_RELEASE_V1.0.2/MSDK/ble/app\app_scan_mgr.c ****             return p_dev_info;
 188              		.loc 1 254 12 is_stmt 0
 189 003c E38C97FE 		beq	a5,s1,.L10
 258:C:/Users/stapi/OneDrive/Desktop/GD32VW553/GD32VW55X_Wifi_BLE_SDK/GD32VW55x_RELEASE_V1.0.2/MSDK/ble/app\app_scan_mgr.c ****     }
 190              		.loc 1 258 9 is_stmt 1 discriminator 2
 258:C:/Users/stapi/OneDrive/Desktop/GD32VW553/GD32VW55X_Wifi_BLE_SDK/GD32VW55x_RELEASE_V1.0.2/MSDK/ble/app\app_scan_mgr.c ****     }
 191              		.loc 1 258 16 is_stmt 0 discriminator 2
 192 0040 8507     		addi	a5,a5,1
 193              	.LVL21:
 252:C:/Users/stapi/OneDrive/Desktop/GD32VW553/GD32VW55X_Wifi_BLE_SDK/GD32VW55x_RELEASE_V1.0.2/MSDK/ble/app\app_scan_mgr.c ****         p_dev_info = list_entry(pos, dev_info_t, list);
 194              		.loc 1 252 5 discriminator 2
 195 0042 3685     		mv	a0,a3
 196              	.LVL22:
 258:C:/Users/stapi/OneDrive/Desktop/GD32VW553/GD32VW55X_Wifi_BLE_SDK/GD32VW55x_RELEASE_V1.0.2/MSDK/ble/app\app_scan_mgr.c ****     }
 197              		.loc 1 258 16 discriminator 2
 198 0044 93F7F70F 		andi	a5,a5,0xff
 199              	.LVL23:
 252:C:/Users/stapi/OneDrive/Desktop/GD32VW553/GD32VW55X_Wifi_BLE_SDK/GD32VW55x_RELEASE_V1.0.2/MSDK/ble/app\app_scan_mgr.c ****         p_dev_info = list_entry(pos, dev_info_t, list);
 200              		.loc 1 252 5 is_stmt 1 discriminator 2
 201 0048 9442     		lw	a3,0(a3)
 202 004a D5B7     		j	.L12
 203              		.cfi_endproc
 204              	.LFE7:
 206              		.section	.text.scan_mgr_clear_dev_list,"ax",@progbits
 207              		.align	1
 208              		.globl	scan_mgr_clear_dev_list
 210              	scan_mgr_clear_dev_list:
 211              	.LFB8:
 262:C:/Users/stapi/OneDrive/Desktop/GD32VW553/GD32VW55X_Wifi_BLE_SDK/GD32VW55x_RELEASE_V1.0.2/MSDK/ble/app\app_scan_mgr.c **** 
 263:C:/Users/stapi/OneDrive/Desktop/GD32VW553/GD32VW55X_Wifi_BLE_SDK/GD32VW55x_RELEASE_V1.0.2/MSDK/ble/app\app_scan_mgr.c **** /*!
 264:C:/Users/stapi/OneDrive/Desktop/GD32VW553/GD32VW55X_Wifi_BLE_SDK/GD32VW55x_RELEASE_V1.0.2/MSDK/ble/app\app_scan_mgr.c ****     \brief      Clear scanned device list
 265:C:/Users/stapi/OneDrive/Desktop/GD32VW553/GD32VW55X_Wifi_BLE_SDK/GD32VW55x_RELEASE_V1.0.2/MSDK/ble/app\app_scan_mgr.c ****     \param[in]  none
 266:C:/Users/stapi/OneDrive/Desktop/GD32VW553/GD32VW55X_Wifi_BLE_SDK/GD32VW55x_RELEASE_V1.0.2/MSDK/ble/app\app_scan_mgr.c ****     \param[out] none
 267:C:/Users/stapi/OneDrive/Desktop/GD32VW553/GD32VW55X_Wifi_BLE_SDK/GD32VW55x_RELEASE_V1.0.2/MSDK/ble/app\app_scan_mgr.c ****     \retval     none
 268:C:/Users/stapi/OneDrive/Desktop/GD32VW553/GD32VW55X_Wifi_BLE_SDK/GD32VW55x_RELEASE_V1.0.2/MSDK/ble/app\app_scan_mgr.c **** */
 269:C:/Users/stapi/OneDrive/Desktop/GD32VW553/GD32VW55X_Wifi_BLE_SDK/GD32VW55x_RELEASE_V1.0.2/MSDK/ble/app\app_scan_mgr.c **** void scan_mgr_clear_dev_list(void)
 270:C:/Users/stapi/OneDrive/Desktop/GD32VW553/GD32VW55X_Wifi_BLE_SDK/GD32VW55x_RELEASE_V1.0.2/MSDK/ble/app\app_scan_mgr.c **** {
 212              		.loc 1 270 1
 213              		.cfi_startproc
 214 0000 17030000 		call	t0,__riscv_save_2
 214      E7020300 
 215              		.cfi_offset 9, -12
 216              		.cfi_offset 8, -8
 217              		.cfi_offset 1, -4
 218              		.cfi_def_cfa_offset 16
 271:C:/Users/stapi/OneDrive/Desktop/GD32VW553/GD32VW55X_Wifi_BLE_SDK/GD32VW55x_RELEASE_V1.0.2/MSDK/ble/app\app_scan_mgr.c ****     dev_info_t *p_dev_info = NULL;
 219              		.loc 1 271 5
 220              	.LVL24:
 272:C:/Users/stapi/OneDrive/Desktop/GD32VW553/GD32VW55X_Wifi_BLE_SDK/GD32VW55x_RELEASE_V1.0.2/MSDK/ble/app\app_scan_mgr.c ****     dlist_t *pos, *n;
 221              		.loc 1 272 5
 273:C:/Users/stapi/OneDrive/Desktop/GD32VW553/GD32VW55X_Wifi_BLE_SDK/GD32VW55x_RELEASE_V1.0.2/MSDK/ble/app\app_scan_mgr.c **** 
 274:C:/Users/stapi/OneDrive/Desktop/GD32VW553/GD32VW55X_Wifi_BLE_SDK/GD32VW55x_RELEASE_V1.0.2/MSDK/ble/app\app_scan_mgr.c ****     if (list_empty(&ble_scan_mgr_cb.devs_list)) {
 222              		.loc 1 274 5
 223              		.loc 1 274 9 is_stmt 0
 224 0008 37040000 		lui	s0,%hi(.LANCHOR0)
 225 000c 13040400 		addi	s0,s0,%lo(.LANCHOR0)
 270:C:/Users/stapi/OneDrive/Desktop/GD32VW553/GD32VW55X_Wifi_BLE_SDK/GD32VW55x_RELEASE_V1.0.2/MSDK/ble/app\app_scan_mgr.c ****     dev_info_t *p_dev_info = NULL;
 226              		.loc 1 270 1
 227 0010 4111     		addi	sp,sp,-16
 228              		.cfi_def_cfa_offset 32
 229              		.loc 1 274 9
 230 0012 13054400 		addi	a0,s0,4
 231 0016 97000000 		call	list_empty
 231      E7800000 
 232              	.LVL25:
 233              		.loc 1 274 8
 234 001e 09E9     		bne	a0,zero,.L16
 235              	.LBB4:
 236              	.LBB5:
 275:C:/Users/stapi/OneDrive/Desktop/GD32VW553/GD32VW55X_Wifi_BLE_SDK/GD32VW55x_RELEASE_V1.0.2/MSDK/ble/app\app_scan_mgr.c ****         return;
 276:C:/Users/stapi/OneDrive/Desktop/GD32VW553/GD32VW55X_Wifi_BLE_SDK/GD32VW55x_RELEASE_V1.0.2/MSDK/ble/app\app_scan_mgr.c ****     }
 277:C:/Users/stapi/OneDrive/Desktop/GD32VW553/GD32VW55X_Wifi_BLE_SDK/GD32VW55x_RELEASE_V1.0.2/MSDK/ble/app\app_scan_mgr.c **** 
 278:C:/Users/stapi/OneDrive/Desktop/GD32VW553/GD32VW55X_Wifi_BLE_SDK/GD32VW55x_RELEASE_V1.0.2/MSDK/ble/app\app_scan_mgr.c ****     list_for_each_safe(pos, n, &ble_scan_mgr_cb.devs_list) {
 237              		.loc 1 278 5
 238 0020 4840     		lw	a0,4(s0)
 239 0022 B7040000 		lui	s1,%hi(.LANCHOR0+4)
 240 0026 93844400 		addi	s1,s1,%lo(.LANCHOR0+4)
 241              		.loc 1 278 5 is_stmt 1
 242              	.LVL26:
 243 002a 0041     		lw	s0,0(a0)
 244              	.LVL27:
 245              	.L18:
 246              		.loc 1 278 5
 247 002c 63179500 		bne	a0,s1,.L19
 248              	.LVL28:
 249              	.L16:
 250              	.LBE5:
 251              	.LBE4:
 279:C:/Users/stapi/OneDrive/Desktop/GD32VW553/GD32VW55X_Wifi_BLE_SDK/GD32VW55x_RELEASE_V1.0.2/MSDK/ble/app\app_scan_mgr.c ****         p_dev_info = list_entry(pos, dev_info_t, list);
 280:C:/Users/stapi/OneDrive/Desktop/GD32VW553/GD32VW55X_Wifi_BLE_SDK/GD32VW55x_RELEASE_V1.0.2/MSDK/ble/app\app_scan_mgr.c ****         list_del(&p_dev_info->list);
 281:C:/Users/stapi/OneDrive/Desktop/GD32VW553/GD32VW55X_Wifi_BLE_SDK/GD32VW55x_RELEASE_V1.0.2/MSDK/ble/app\app_scan_mgr.c ****         sys_mfree((void *)p_dev_info);
 282:C:/Users/stapi/OneDrive/Desktop/GD32VW553/GD32VW55X_Wifi_BLE_SDK/GD32VW55x_RELEASE_V1.0.2/MSDK/ble/app\app_scan_mgr.c ****     }
 283:C:/Users/stapi/OneDrive/Desktop/GD32VW553/GD32VW55X_Wifi_BLE_SDK/GD32VW55x_RELEASE_V1.0.2/MSDK/ble/app\app_scan_mgr.c **** }
 252              		.loc 1 283 1 is_stmt 0
 253 0030 4101     		addi	sp,sp,16
 254              		.cfi_remember_state
 255              		.cfi_def_cfa_offset 0
 256 0032 17030000 		tail	__riscv_restore_2
 256      67000300 
 257              		.cfi_restore 9
 258              		.cfi_restore 8
 259              		.cfi_restore 1
 260              		.cfi_def_cfa_offset -16
 261              	.LVL29:
 262              	.L19:
 263              		.cfi_restore_state
 264              	.LBB7:
 265              	.LBB6:
 279:C:/Users/stapi/OneDrive/Desktop/GD32VW553/GD32VW55X_Wifi_BLE_SDK/GD32VW55x_RELEASE_V1.0.2/MSDK/ble/app\app_scan_mgr.c ****         p_dev_info = list_entry(pos, dev_info_t, list);
 266              		.loc 1 279 9 is_stmt 1
 280:C:/Users/stapi/OneDrive/Desktop/GD32VW553/GD32VW55X_Wifi_BLE_SDK/GD32VW55x_RELEASE_V1.0.2/MSDK/ble/app\app_scan_mgr.c ****         sys_mfree((void *)p_dev_info);
 267              		.loc 1 280 9
 268 003a 2AC6     		sw	a0,12(sp)
 269 003c 97000000 		call	list_del
 269      E7800000 
 270              	.LVL30:
 281:C:/Users/stapi/OneDrive/Desktop/GD32VW553/GD32VW55X_Wifi_BLE_SDK/GD32VW55x_RELEASE_V1.0.2/MSDK/ble/app\app_scan_mgr.c ****     }
 271              		.loc 1 281 9
 272 0044 3245     		lw	a0,12(sp)
 273 0046 97000000 		call	sys_mfree
 273      E7800000 
 274              	.LVL31:
 278:C:/Users/stapi/OneDrive/Desktop/GD32VW553/GD32VW55X_Wifi_BLE_SDK/GD32VW55x_RELEASE_V1.0.2/MSDK/ble/app\app_scan_mgr.c ****         p_dev_info = list_entry(pos, dev_info_t, list);
 275              		.loc 1 278 5
 276 004e 2285     		mv	a0,s0
 277 0050 0040     		lw	s0,0(s0)
 278              	.LVL32:
 279 0052 E9BF     		j	.L18
 280              	.LBE6:
 281              	.LBE7:
 282              		.cfi_endproc
 283              	.LFE8:
 285              		.section	.rodata.ble_app_scan_mgr_evt_handler.str1.4,"aMS",@progbits,1
 286              		.align	2
 287              	.LC2:
 288 0000 426C6520 		.string	"Ble Scan enabled status 0x%x\r\n"
 288      5363616E 
 288      20656E61 
 288      626C6564 
 288      20737461 
 289 001f 00       		.align	2
 290              	.LC3:
 291 0020 426C6520 		.string	"Ble Scan disabled  status 0x%x\r\n"
 291      5363616E 
 291      20646973 
 291      61626C65 
 291      64202073 
 292 0041 000000   		.align	2
 293              	.LC4:
 294 0044 6E657720 		.string	"new device addr %02X:%02X:%02X:%02X:%02X:%02X, addr type 0x%x, rssi %d, sid 0x%x, dev idx
 294      64657669 
 294      63652061 
 294      64647220 
 294      25303258 
 295 00bd 000000   		.align	2
 296              	.LC5:
 297 00c0 75706461 		.string	"update device addr %02X:%02X:%02X:%02X:%02X:%02X, addr type 0x%x, rssi %d, sid 0x%x, dev 
 297      74652064 
 297      65766963 
 297      65206164 
 297      64722025 
 298              		.section	.text.ble_app_scan_mgr_evt_handler,"ax",@progbits
 299              		.align	1
 301              	ble_app_scan_mgr_evt_handler:
 302              	.LFB5:
 188:C:/Users/stapi/OneDrive/Desktop/GD32VW553/GD32VW55X_Wifi_BLE_SDK/GD32VW55x_RELEASE_V1.0.2/MSDK/ble/app\app_scan_mgr.c ****     switch (event) {
 303              		.loc 1 188 1
 304              		.cfi_startproc
 305              	.LVL33:
 306 0000 17030000 		call	t0,__riscv_save_6
 306      E7020300 
 307              		.cfi_offset 21, -28
 308              		.cfi_offset 20, -24
 309              		.cfi_offset 19, -20
 310              		.cfi_offset 18, -16
 311              		.cfi_offset 9, -12
 312              		.cfi_offset 8, -8
 313              		.cfi_offset 1, -4
 314              		.cfi_def_cfa_offset 32
 189:C:/Users/stapi/OneDrive/Desktop/GD32VW553/GD32VW55X_Wifi_BLE_SDK/GD32VW55x_RELEASE_V1.0.2/MSDK/ble/app\app_scan_mgr.c ****     case BLE_SCAN_EVT_STATE_CHG:
 315              		.loc 1 189 5
 188:C:/Users/stapi/OneDrive/Desktop/GD32VW553/GD32VW55X_Wifi_BLE_SDK/GD32VW55x_RELEASE_V1.0.2/MSDK/ble/app\app_scan_mgr.c ****     switch (event) {
 316              		.loc 1 188 1 is_stmt 0
 317 0008 5D71     		addi	sp,sp,-80
 318              		.cfi_def_cfa_offset 112
 189:C:/Users/stapi/OneDrive/Desktop/GD32VW553/GD32VW55X_Wifi_BLE_SDK/GD32VW55x_RELEASE_V1.0.2/MSDK/ble/app\app_scan_mgr.c ****     case BLE_SCAN_EVT_STATE_CHG:
 319              		.loc 1 189 5
 320 000a 09C9     		beq	a0,zero,.L23
 321 000c 8547     		li	a5,1
 322 000e 6302F506 		beq	a0,a5,.L24
 323              	.LVL34:
 324              	.L22:
 208:C:/Users/stapi/OneDrive/Desktop/GD32VW553/GD32VW55X_Wifi_BLE_SDK/GD32VW55x_RELEASE_V1.0.2/MSDK/ble/app\app_scan_mgr.c **** 
 325              		.loc 1 208 1
 326 0012 6161     		addi	sp,sp,80
 327              		.cfi_remember_state
 328              		.cfi_def_cfa_offset 0
 329 0014 17030000 		tail	__riscv_restore_6
 329      67000300 
 330              		.cfi_restore 21
 331              		.cfi_restore 20
 332              		.cfi_restore 19
 333              		.cfi_restore 18
 334              		.cfi_restore 9
 335              		.cfi_restore 8
 336              		.cfi_restore 1
 337              		.cfi_def_cfa_offset -32
 338              	.LVL35:
 339              	.L23:
 340              		.cfi_restore_state
 341              	.LBB19:
 342              	.LBB20:
 191:C:/Users/stapi/OneDrive/Desktop/GD32VW553/GD32VW55X_Wifi_BLE_SDK/GD32VW55x_RELEASE_V1.0.2/MSDK/ble/app\app_scan_mgr.c ****             dbg_print(NOTICE, "Ble Scan enabled status 0x%x\r\n", p_data->scan_state.reason);
 343              		.loc 1 191 9 is_stmt 1
 191:C:/Users/stapi/OneDrive/Desktop/GD32VW553/GD32VW55X_Wifi_BLE_SDK/GD32VW55x_RELEASE_V1.0.2/MSDK/ble/app\app_scan_mgr.c ****             dbg_print(NOTICE, "Ble Scan enabled status 0x%x\r\n", p_data->scan_state.reason);
 344              		.loc 1 191 31 is_stmt 0
 345 001c 9C41     		lw	a5,0(a1)
 191:C:/Users/stapi/OneDrive/Desktop/GD32VW553/GD32VW55X_Wifi_BLE_SDK/GD32VW55x_RELEASE_V1.0.2/MSDK/ble/app\app_scan_mgr.c ****             dbg_print(NOTICE, "Ble Scan enabled status 0x%x\r\n", p_data->scan_state.reason);
 346              		.loc 1 191 12
 347 001e 0947     		li	a4,2
 348 0020 6393E702 		bne	a5,a4,.L26
 192:C:/Users/stapi/OneDrive/Desktop/GD32VW553/GD32VW55X_Wifi_BLE_SDK/GD32VW55x_RELEASE_V1.0.2/MSDK/ble/app\app_scan_mgr.c ****         }
 349              		.loc 1 192 13 is_stmt 1
 192:C:/Users/stapi/OneDrive/Desktop/GD32VW553/GD32VW55X_Wifi_BLE_SDK/GD32VW55x_RELEASE_V1.0.2/MSDK/ble/app\app_scan_mgr.c ****         }
 350              		.loc 1 192 13
 351 0024 37070000 		lui	a4,%hi(global_debug_level)
 352 0028 03470700 		lbu	a4,%lo(global_debug_level)(a4)
 353 002c E3F3E7FE 		bleu	a4,a5,.L22
 192:C:/Users/stapi/OneDrive/Desktop/GD32VW553/GD32VW55X_Wifi_BLE_SDK/GD32VW55x_RELEASE_V1.0.2/MSDK/ble/app\app_scan_mgr.c ****         }
 354              		.loc 1 192 13
 355 0030 83D54500 		lhu	a1,4(a1)
 356              	.LVL36:
 357 0034 37050000 		lui	a0,%hi(.LC2)
 358              	.LVL37:
 359 0038 13050500 		addi	a0,a0,%lo(.LC2)
 360              	.L65:
 200:C:/Users/stapi/OneDrive/Desktop/GD32VW553/GD32VW55X_Wifi_BLE_SDK/GD32VW55x_RELEASE_V1.0.2/MSDK/ble/app\app_scan_mgr.c ****         }
 361              		.loc 1 200 13 is_stmt 0
 362 003c 97000000 		call	co_printf
 362      E7800000 
 363              	.LVL38:
 364 0044 F9B7     		j	.L22
 365              	.LVL39:
 366              	.L26:
 195:C:/Users/stapi/OneDrive/Desktop/GD32VW553/GD32VW55X_Wifi_BLE_SDK/GD32VW55x_RELEASE_V1.0.2/MSDK/ble/app\app_scan_mgr.c ****             scan_mgr_clear_dev_list();
 367              		.loc 1 195 14 is_stmt 1
 195:C:/Users/stapi/OneDrive/Desktop/GD32VW553/GD32VW55X_Wifi_BLE_SDK/GD32VW55x_RELEASE_V1.0.2/MSDK/ble/app\app_scan_mgr.c ****             scan_mgr_clear_dev_list();
 368              		.loc 1 195 17 is_stmt 0
 369 0046 8546     		li	a3,1
 370 0048 6397D700 		bne	a5,a3,.L27
 196:C:/Users/stapi/OneDrive/Desktop/GD32VW553/GD32VW55X_Wifi_BLE_SDK/GD32VW55x_RELEASE_V1.0.2/MSDK/ble/app\app_scan_mgr.c ****         }
 371              		.loc 1 196 13 is_stmt 1
 372 004c 97000000 		call	scan_mgr_clear_dev_list
 372      E7800000 
 373              	.LVL40:
 374 0054 7DBF     		j	.L22
 375              	.LVL41:
 376              	.L27:
 199:C:/Users/stapi/OneDrive/Desktop/GD32VW553/GD32VW55X_Wifi_BLE_SDK/GD32VW55x_RELEASE_V1.0.2/MSDK/ble/app\app_scan_mgr.c ****             dbg_print(NOTICE, "Ble Scan disabled  status 0x%x\r\n", p_data->scan_state.reason);
 377              		.loc 1 199 14
 199:C:/Users/stapi/OneDrive/Desktop/GD32VW553/GD32VW55X_Wifi_BLE_SDK/GD32VW55x_RELEASE_V1.0.2/MSDK/ble/app\app_scan_mgr.c ****             dbg_print(NOTICE, "Ble Scan disabled  status 0x%x\r\n", p_data->scan_state.reason);
 378              		.loc 1 199 17 is_stmt 0
 379 0056 D5FF     		bne	a5,zero,.L22
 200:C:/Users/stapi/OneDrive/Desktop/GD32VW553/GD32VW55X_Wifi_BLE_SDK/GD32VW55x_RELEASE_V1.0.2/MSDK/ble/app\app_scan_mgr.c ****         }
 380              		.loc 1 200 13 is_stmt 1
 200:C:/Users/stapi/OneDrive/Desktop/GD32VW553/GD32VW55X_Wifi_BLE_SDK/GD32VW55x_RELEASE_V1.0.2/MSDK/ble/app\app_scan_mgr.c ****         }
 381              		.loc 1 200 13
 382 0058 B7070000 		lui	a5,%hi(global_debug_level)
 383 005c 83C70700 		lbu	a5,%lo(global_debug_level)(a5)
 384 0060 E379F7FA 		bleu	a5,a4,.L22
 200:C:/Users/stapi/OneDrive/Desktop/GD32VW553/GD32VW55X_Wifi_BLE_SDK/GD32VW55x_RELEASE_V1.0.2/MSDK/ble/app\app_scan_mgr.c ****         }
 385              		.loc 1 200 13
 386 0064 37050000 		lui	a0,%hi(.LC3)
 387              	.LVL42:
 388 0068 83D54500 		lhu	a1,4(a1)
 389              	.LVL43:
 390 006c 13050500 		addi	a0,a0,%lo(.LC3)
 391 0070 F1B7     		j	.L65
 392              	.LVL44:
 393              	.L24:
 394              	.LBE20:
 395              	.LBE19:
 205:C:/Users/stapi/OneDrive/Desktop/GD32VW553/GD32VW55X_Wifi_BLE_SDK/GD32VW55x_RELEASE_V1.0.2/MSDK/ble/app\app_scan_mgr.c ****         break;
 396              		.loc 1 205 9
 397 0072 8041     		lw	s0,0(a1)
 398              	.LVL45:
 399              	.LBB21:
 400              	.LBB22:
 137:C:/Users/stapi/OneDrive/Desktop/GD32VW553/GD32VW55X_Wifi_BLE_SDK/GD32VW55x_RELEASE_V1.0.2/MSDK/ble/app\app_scan_mgr.c ****     uint8_t name_len;
 401              		.loc 1 137 5
 138:C:/Users/stapi/OneDrive/Desktop/GD32VW553/GD32VW55X_Wifi_BLE_SDK/GD32VW55x_RELEASE_V1.0.2/MSDK/ble/app\app_scan_mgr.c ****     uint8_t name[31] = {'\0'};
 402              		.loc 1 138 5
 139:C:/Users/stapi/OneDrive/Desktop/GD32VW553/GD32VW55X_Wifi_BLE_SDK/GD32VW55x_RELEASE_V1.0.2/MSDK/ble/app\app_scan_mgr.c ****     dev_info_t *p_dev_info = scan_mgr_find_device(&p_info->peer_addr);
 403              		.loc 1 139 5
 139:C:/Users/stapi/OneDrive/Desktop/GD32VW553/GD32VW55X_Wifi_BLE_SDK/GD32VW55x_RELEASE_V1.0.2/MSDK/ble/app\app_scan_mgr.c ****     dev_info_t *p_dev_info = scan_mgr_find_device(&p_info->peer_addr);
 404              		.loc 1 139 13 is_stmt 0
 405 0074 6D46     		li	a2,27
 406 0076 8145     		li	a1,0
 407              	.LVL46:
 408 0078 4818     		addi	a0,sp,52
 409              	.LVL47:
 410              	.LBB23:
 411              	.LBB24:
  69:C:/Users/stapi/OneDrive/Desktop/GD32VW553/GD32VW55X_Wifi_BLE_SDK/GD32VW55x_RELEASE_V1.0.2/MSDK/ble/app\app_scan_mgr.c ****         return NULL;
 412              		.loc 1 69 9
 413 007a 370A0000 		lui	s4,%hi(.LANCHOR0)
 414              	.LBE24:
 415              	.LBE23:
 139:C:/Users/stapi/OneDrive/Desktop/GD32VW553/GD32VW55X_Wifi_BLE_SDK/GD32VW55x_RELEASE_V1.0.2/MSDK/ble/app\app_scan_mgr.c ****     dev_info_t *p_dev_info = scan_mgr_find_device(&p_info->peer_addr);
 416              		.loc 1 139 13
 417 007e 02D8     		sw	zero,48(sp)
 418 0080 97000000 		call	memset
 418      E7800000 
 419              	.LVL48:
 140:C:/Users/stapi/OneDrive/Desktop/GD32VW553/GD32VW55X_Wifi_BLE_SDK/GD32VW55x_RELEASE_V1.0.2/MSDK/ble/app\app_scan_mgr.c **** 
 420              		.loc 1 140 5 is_stmt 1
 421              	.LBB27:
 422              	.LBB25:
  66:C:/Users/stapi/OneDrive/Desktop/GD32VW553/GD32VW55X_Wifi_BLE_SDK/GD32VW55x_RELEASE_V1.0.2/MSDK/ble/app\app_scan_mgr.c ****     dev_info_t *p_dev_info = NULL;
 423              		.loc 1 66 5
  67:C:/Users/stapi/OneDrive/Desktop/GD32VW553/GD32VW55X_Wifi_BLE_SDK/GD32VW55x_RELEASE_V1.0.2/MSDK/ble/app\app_scan_mgr.c **** 
 424              		.loc 1 67 5
  69:C:/Users/stapi/OneDrive/Desktop/GD32VW553/GD32VW55X_Wifi_BLE_SDK/GD32VW55x_RELEASE_V1.0.2/MSDK/ble/app\app_scan_mgr.c ****         return NULL;
 425              		.loc 1 69 5
  69:C:/Users/stapi/OneDrive/Desktop/GD32VW553/GD32VW55X_Wifi_BLE_SDK/GD32VW55x_RELEASE_V1.0.2/MSDK/ble/app\app_scan_mgr.c ****         return NULL;
 426              		.loc 1 69 9 is_stmt 0
 427 0088 13050A00 		addi	a0,s4,%lo(.LANCHOR0)
 428 008c 1105     		addi	a0,a0,4
 429 008e B70A0000 		lui	s5,%hi(.LANCHOR0+4)
 430 0092 97000000 		call	list_empty
 430      E7800000 
 431              	.LVL49:
 432 009a 130A0A00 		addi	s4,s4,%lo(.LANCHOR0)
 433 009e 938A4A00 		addi	s5,s5,%lo(.LANCHOR0+4)
  70:C:/Users/stapi/OneDrive/Desktop/GD32VW553/GD32VW55X_Wifi_BLE_SDK/GD32VW55x_RELEASE_V1.0.2/MSDK/ble/app\app_scan_mgr.c ****     }
 434              		.loc 1 70 16
 435 00a2 8144     		li	s1,0
  69:C:/Users/stapi/OneDrive/Desktop/GD32VW553/GD32VW55X_Wifi_BLE_SDK/GD32VW55x_RELEASE_V1.0.2/MSDK/ble/app\app_scan_mgr.c ****         return NULL;
 436              		.loc 1 69 8
 437 00a4 11E9     		bne	a0,zero,.L28
  73:C:/Users/stapi/OneDrive/Desktop/GD32VW553/GD32VW55X_Wifi_BLE_SDK/GD32VW55x_RELEASE_V1.0.2/MSDK/ble/app\app_scan_mgr.c ****         p_dev_info = list_entry(pos, dev_info_t, list);
 438              		.loc 1 73 5 is_stmt 1
 439 00a6 83244A00 		lw	s1,4(s4)
 440              	.LVL50:
  76:C:/Users/stapi/OneDrive/Desktop/GD32VW553/GD32VW55X_Wifi_BLE_SDK/GD32VW55x_RELEASE_V1.0.2/MSDK/ble/app\app_scan_mgr.c ****             return p_dev_info;
 441              		.loc 1 76 14 is_stmt 0
 442 00aa 93093400 		addi	s3,s0,3
  73:C:/Users/stapi/OneDrive/Desktop/GD32VW553/GD32VW55X_Wifi_BLE_SDK/GD32VW55x_RELEASE_V1.0.2/MSDK/ble/app\app_scan_mgr.c ****         p_dev_info = list_entry(pos, dev_info_t, list);
 443              		.loc 1 73 5
 444 00ae 03A90400 		lw	s2,0(s1)
 445              	.LVL51:
 446              	.L29:
  73:C:/Users/stapi/OneDrive/Desktop/GD32VW553/GD32VW55X_Wifi_BLE_SDK/GD32VW55x_RELEASE_V1.0.2/MSDK/ble/app\app_scan_mgr.c ****         p_dev_info = list_entry(pos, dev_info_t, list);
 447              		.loc 1 73 5 is_stmt 1
 448 00b2 63935415 		bne	s1,s5,.L31
  70:C:/Users/stapi/OneDrive/Desktop/GD32VW553/GD32VW55X_Wifi_BLE_SDK/GD32VW55x_RELEASE_V1.0.2/MSDK/ble/app\app_scan_mgr.c ****     }
 449              		.loc 1 70 16 is_stmt 0
 450 00b6 8144     		li	s1,0
 451              	.LVL52:
 452              	.L28:
 453              	.LBE25:
 454              	.LBE27:
 142:C:/Users/stapi/OneDrive/Desktop/GD32VW553/GD32VW55X_Wifi_BLE_SDK/GD32VW55x_RELEASE_V1.0.2/MSDK/ble/app\app_scan_mgr.c ****         #if BLE_APP_PER_ADV_SUPPORT
 455              		.loc 1 142 5 is_stmt 1
 142:C:/Users/stapi/OneDrive/Desktop/GD32VW553/GD32VW55X_Wifi_BLE_SDK/GD32VW55x_RELEASE_V1.0.2/MSDK/ble/app\app_scan_mgr.c ****         #if BLE_APP_PER_ADV_SUPPORT
 456              		.loc 1 142 15 is_stmt 0
 457 00b8 03560402 		lhu	a2,32(s0)
 142:C:/Users/stapi/OneDrive/Desktop/GD32VW553/GD32VW55X_Wifi_BLE_SDK/GD32VW55x_RELEASE_V1.0.2/MSDK/ble/app\app_scan_mgr.c ****         #if BLE_APP_PER_ADV_SUPPORT
 458              		.loc 1 142 8
 459 00bc 09CA     		beq	a2,zero,.L32
 144:C:/Users/stapi/OneDrive/Desktop/GD32VW553/GD32VW55X_Wifi_BLE_SDK/GD32VW55x_RELEASE_V1.0.2/MSDK/ble/app\app_scan_mgr.c ****         #endif
 460              		.loc 1 144 9 is_stmt 1
 461 00be 83454401 		lbu	a1,20(s0)
 462 00c2 13052400 		addi	a0,s0,2
 463 00c6 97000000 		call	ble_per_sync_mgr_find_alloc_device
 463      E7800000 
 464              	.LVL53:
 465              	.L32:
 148:C:/Users/stapi/OneDrive/Desktop/GD32VW553/GD32VW55X_Wifi_BLE_SDK/GD32VW55x_RELEASE_V1.0.2/MSDK/ble/app\app_scan_mgr.c ****         p_name = ble_adv_find(p_info->data.p_data, p_info->data.len, BLE_AD_TYPE_COMPLETE_LOCAL_NAM
 466              		.loc 1 148 5
 148:C:/Users/stapi/OneDrive/Desktop/GD32VW553/GD32VW55X_Wifi_BLE_SDK/GD32VW55x_RELEASE_V1.0.2/MSDK/ble/app\app_scan_mgr.c ****         p_name = ble_adv_find(p_info->data.p_data, p_info->data.len, BLE_AD_TYPE_COMPLETE_LOCAL_NAM
 467              		.loc 1 148 8 is_stmt 0
 468 00ce 99C4     		beq	s1,zero,.L33
 148:C:/Users/stapi/OneDrive/Desktop/GD32VW553/GD32VW55X_Wifi_BLE_SDK/GD32VW55x_RELEASE_V1.0.2/MSDK/ble/app\app_scan_mgr.c ****         p_name = ble_adv_find(p_info->data.p_data, p_info->data.len, BLE_AD_TYPE_COMPLETE_LOCAL_NAM
 469              		.loc 1 148 28
 470 00d0 83470A00 		lbu	a5,0(s4)
 471 00d4 81E7     		bne	a5,zero,.L33
 148:C:/Users/stapi/OneDrive/Desktop/GD32VW553/GD32VW55X_Wifi_BLE_SDK/GD32VW55x_RELEASE_V1.0.2/MSDK/ble/app\app_scan_mgr.c ****         p_name = ble_adv_find(p_info->data.p_data, p_info->data.len, BLE_AD_TYPE_COMPLETE_LOCAL_NAM
 472              		.loc 1 148 64
 473 00d6 83C71401 		lbu	a5,17(s1)
 474 00da 85FF     		bne	a5,zero,.L22
 475              	.L33:
 149:C:/Users/stapi/OneDrive/Desktop/GD32VW553/GD32VW55X_Wifi_BLE_SDK/GD32VW55x_RELEASE_V1.0.2/MSDK/ble/app\app_scan_mgr.c ****                               &name_len);
 476              		.loc 1 149 9 is_stmt 1
 149:C:/Users/stapi/OneDrive/Desktop/GD32VW553/GD32VW55X_Wifi_BLE_SDK/GD32VW55x_RELEASE_V1.0.2/MSDK/ble/app\app_scan_mgr.c ****                               &name_len);
 477              		.loc 1 149 18 is_stmt 0
 478 00dc 8355C401 		lhu	a1,28(s0)
 479 00e0 084C     		lw	a0,24(s0)
 480 00e2 9306F102 		addi	a3,sp,47
 481 00e6 2546     		li	a2,9
 482 00e8 97000000 		call	ble_adv_find
 482      E7800000 
 483              	.LVL54:
 484 00f0 AA89     		mv	s3,a0
 485              	.LVL55:
 151:C:/Users/stapi/OneDrive/Desktop/GD32VW553/GD32VW55X_Wifi_BLE_SDK/GD32VW55x_RELEASE_V1.0.2/MSDK/ble/app\app_scan_mgr.c ****             p_name = ble_adv_find(p_info->data.p_data, p_info->data.len, BLE_AD_TYPE_SHORT_LOCAL_NA
 486              		.loc 1 151 9 is_stmt 1
 151:C:/Users/stapi/OneDrive/Desktop/GD32VW553/GD32VW55X_Wifi_BLE_SDK/GD32VW55x_RELEASE_V1.0.2/MSDK/ble/app\app_scan_mgr.c ****             p_name = ble_adv_find(p_info->data.p_data, p_info->data.len, BLE_AD_TYPE_SHORT_LOCAL_NA
 487              		.loc 1 151 12 is_stmt 0
 488 00f2 09ED     		bne	a0,zero,.L35
 152:C:/Users/stapi/OneDrive/Desktop/GD32VW553/GD32VW55X_Wifi_BLE_SDK/GD32VW55x_RELEASE_V1.0.2/MSDK/ble/app\app_scan_mgr.c ****                                   &name_len);
 489              		.loc 1 152 13 is_stmt 1
 152:C:/Users/stapi/OneDrive/Desktop/GD32VW553/GD32VW55X_Wifi_BLE_SDK/GD32VW55x_RELEASE_V1.0.2/MSDK/ble/app\app_scan_mgr.c ****                                   &name_len);
 490              		.loc 1 152 22 is_stmt 0
 491 00f4 8355C401 		lhu	a1,28(s0)
 492 00f8 084C     		lw	a0,24(s0)
 493              	.LVL56:
 494 00fa 9306F102 		addi	a3,sp,47
 495 00fe 2146     		li	a2,8
 496 0100 97000000 		call	ble_adv_find
 496      E7800000 
 497              	.LVL57:
 498 0108 AA89     		mv	s3,a0
 499              	.LVL58:
 156:C:/Users/stapi/OneDrive/Desktop/GD32VW553/GD32VW55X_Wifi_BLE_SDK/GD32VW55x_RELEASE_V1.0.2/MSDK/ble/app\app_scan_mgr.c ****             memcpy(name, p_name, name_len > 30 ? 30 : name_len);
 500              		.loc 1 156 9 is_stmt 1
 156:C:/Users/stapi/OneDrive/Desktop/GD32VW553/GD32VW55X_Wifi_BLE_SDK/GD32VW55x_RELEASE_V1.0.2/MSDK/ble/app\app_scan_mgr.c ****             memcpy(name, p_name, name_len > 30 ? 30 : name_len);
 501              		.loc 1 156 12 is_stmt 0
 502 010a 01CD     		beq	a0,zero,.L36
 503              	.L35:
 157:C:/Users/stapi/OneDrive/Desktop/GD32VW553/GD32VW55X_Wifi_BLE_SDK/GD32VW55x_RELEASE_V1.0.2/MSDK/ble/app\app_scan_mgr.c ****         }
 504              		.loc 1 157 13 is_stmt 1
 157:C:/Users/stapi/OneDrive/Desktop/GD32VW553/GD32VW55X_Wifi_BLE_SDK/GD32VW55x_RELEASE_V1.0.2/MSDK/ble/app\app_scan_mgr.c ****         }
 505              		.loc 1 157 53 is_stmt 0
 506 010c 0346F102 		lbu	a2,47(sp)
 157:C:/Users/stapi/OneDrive/Desktop/GD32VW553/GD32VW55X_Wifi_BLE_SDK/GD32VW55x_RELEASE_V1.0.2/MSDK/ble/app\app_scan_mgr.c ****         }
 507              		.loc 1 157 13
 508 0110 F947     		li	a5,30
 509 0112 CE85     		mv	a1,s3
 510 0114 0818     		addi	a0,sp,48
 511              	.LVL59:
 512 0116 3356F60A 		minu	a2,a2,a5
 513 011a 97000000 		call	memcpy
 513      E7800000 
 514              	.LVL60:
 515              	.L36:
 160:C:/Users/stapi/OneDrive/Desktop/GD32VW553/GD32VW55X_Wifi_BLE_SDK/GD32VW55x_RELEASE_V1.0.2/MSDK/ble/app\app_scan_mgr.c ****             uint8_t idx = scan_mgr_add_device(&p_info->peer_addr);
 516              		.loc 1 160 9 is_stmt 1
 160:C:/Users/stapi/OneDrive/Desktop/GD32VW553/GD32VW55X_Wifi_BLE_SDK/GD32VW55x_RELEASE_V1.0.2/MSDK/ble/app\app_scan_mgr.c ****             uint8_t idx = scan_mgr_add_device(&p_info->peer_addr);
 517              		.loc 1 160 12 is_stmt 0
 518 0122 63950410 		bne	s1,zero,.L37
 519              	.LBB28:
 161:C:/Users/stapi/OneDrive/Desktop/GD32VW553/GD32VW55X_Wifi_BLE_SDK/GD32VW55x_RELEASE_V1.0.2/MSDK/ble/app\app_scan_mgr.c ****             p_dev_info = scan_mgr_find_dev_by_idx(idx);
 520              		.loc 1 161 13 is_stmt 1
 521              	.LVL61:
 522              	.LBB29:
 523              	.LBB30:
 114:C:/Users/stapi/OneDrive/Desktop/GD32VW553/GD32VW55X_Wifi_BLE_SDK/GD32VW55x_RELEASE_V1.0.2/MSDK/ble/app\app_scan_mgr.c **** 
 524              		.loc 1 114 5
 116:C:/Users/stapi/OneDrive/Desktop/GD32VW553/GD32VW55X_Wifi_BLE_SDK/GD32VW55x_RELEASE_V1.0.2/MSDK/ble/app\app_scan_mgr.c ****     if (p_dev_info) {
 525              		.loc 1 116 5
 116:C:/Users/stapi/OneDrive/Desktop/GD32VW553/GD32VW55X_Wifi_BLE_SDK/GD32VW55x_RELEASE_V1.0.2/MSDK/ble/app\app_scan_mgr.c ****     if (p_dev_info) {
 526              		.loc 1 116 32 is_stmt 0
 527 0126 5145     		li	a0,20
 528 0128 97000000 		call	sys_malloc
 528      E7800000 
 529              	.LVL62:
 530 0130 AA84     		mv	s1,a0
 531              	.LVL63:
 117:C:/Users/stapi/OneDrive/Desktop/GD32VW553/GD32VW55X_Wifi_BLE_SDK/GD32VW55x_RELEASE_V1.0.2/MSDK/ble/app\app_scan_mgr.c ****         memset(p_dev_info, 0, sizeof(dev_info_t));
 532              		.loc 1 117 5 is_stmt 1
 126:C:/Users/stapi/OneDrive/Desktop/GD32VW553/GD32VW55X_Wifi_BLE_SDK/GD32VW55x_RELEASE_V1.0.2/MSDK/ble/app\app_scan_mgr.c **** }
 533              		.loc 1 126 12 is_stmt 0
 534 0132 1309F00F 		li	s2,255
 117:C:/Users/stapi/OneDrive/Desktop/GD32VW553/GD32VW55X_Wifi_BLE_SDK/GD32VW55x_RELEASE_V1.0.2/MSDK/ble/app\app_scan_mgr.c ****         memset(p_dev_info, 0, sizeof(dev_info_t));
 535              		.loc 1 117 8
 536 0136 21C9     		beq	a0,zero,.L38
 118:C:/Users/stapi/OneDrive/Desktop/GD32VW553/GD32VW55X_Wifi_BLE_SDK/GD32VW55x_RELEASE_V1.0.2/MSDK/ble/app\app_scan_mgr.c **** 
 537              		.loc 1 118 9 is_stmt 1
 538 0138 93078500 		addi	a5,a0,8
 539 013c 3E85     		mv	a0,a5
 540 013e 3146     		li	a2,12
 541 0140 8145     		li	a1,0
 542 0142 97000000 		call	memset
 542      E7800000 
 543              	.LVL64:
 120:C:/Users/stapi/OneDrive/Desktop/GD32VW553/GD32VW55X_Wifi_BLE_SDK/GD32VW55x_RELEASE_V1.0.2/MSDK/ble/app\app_scan_mgr.c ****         p_dev_info->peer_addr = *p_peer_addr;
 544              		.loc 1 120 9
 120:C:/Users/stapi/OneDrive/Desktop/GD32VW553/GD32VW55X_Wifi_BLE_SDK/GD32VW55x_RELEASE_V1.0.2/MSDK/ble/app\app_scan_mgr.c ****         p_dev_info->peer_addr = *p_peer_addr;
 545              		.loc 1 120 9
 121:C:/Users/stapi/OneDrive/Desktop/GD32VW553/GD32VW55X_Wifi_BLE_SDK/GD32VW55x_RELEASE_V1.0.2/MSDK/ble/app\app_scan_mgr.c **** 
 546              		.loc 1 121 31 is_stmt 0
 547 014a 1D46     		li	a2,7
 548 014c 93052400 		addi	a1,s0,2
 120:C:/Users/stapi/OneDrive/Desktop/GD32VW553/GD32VW55X_Wifi_BLE_SDK/GD32VW55x_RELEASE_V1.0.2/MSDK/ble/app\app_scan_mgr.c ****         p_dev_info->peer_addr = *p_peer_addr;
 549              		.loc 1 120 9
 550 0150 84C0     		sw	s1,0(s1)
 120:C:/Users/stapi/OneDrive/Desktop/GD32VW553/GD32VW55X_Wifi_BLE_SDK/GD32VW55x_RELEASE_V1.0.2/MSDK/ble/app\app_scan_mgr.c ****         p_dev_info->peer_addr = *p_peer_addr;
 551              		.loc 1 120 9 is_stmt 1
 552 0152 C4C0     		sw	s1,4(s1)
 120:C:/Users/stapi/OneDrive/Desktop/GD32VW553/GD32VW55X_Wifi_BLE_SDK/GD32VW55x_RELEASE_V1.0.2/MSDK/ble/app\app_scan_mgr.c ****         p_dev_info->peer_addr = *p_peer_addr;
 553              		.loc 1 120 9
 121:C:/Users/stapi/OneDrive/Desktop/GD32VW553/GD32VW55X_Wifi_BLE_SDK/GD32VW55x_RELEASE_V1.0.2/MSDK/ble/app\app_scan_mgr.c **** 
 554              		.loc 1 121 9
 121:C:/Users/stapi/OneDrive/Desktop/GD32VW553/GD32VW55X_Wifi_BLE_SDK/GD32VW55x_RELEASE_V1.0.2/MSDK/ble/app\app_scan_mgr.c **** 
 555              		.loc 1 121 31 is_stmt 0
 556 0154 97000000 		call	memcpy
 556      E7800000 
 557              	.LVL65:
 123:C:/Users/stapi/OneDrive/Desktop/GD32VW553/GD32VW55X_Wifi_BLE_SDK/GD32VW55x_RELEASE_V1.0.2/MSDK/ble/app\app_scan_mgr.c ****         return scan_mgr_list_size() - 1;
 558              		.loc 1 123 9 is_stmt 1
 559 015c D685     		mv	a1,s5
 560 015e 2685     		mv	a0,s1
 561 0160 97000000 		call	list_add_tail
 561      E7800000 
 562              	.LVL66:
 124:C:/Users/stapi/OneDrive/Desktop/GD32VW553/GD32VW55X_Wifi_BLE_SDK/GD32VW55x_RELEASE_V1.0.2/MSDK/ble/app\app_scan_mgr.c ****     }
 563              		.loc 1 124 9
 564              	.LBB31:
 565              	.LBB32:
  92:C:/Users/stapi/OneDrive/Desktop/GD32VW553/GD32VW55X_Wifi_BLE_SDK/GD32VW55x_RELEASE_V1.0.2/MSDK/ble/app\app_scan_mgr.c ****     dlist_t *pos, *n;
 566              		.loc 1 92 5
  93:C:/Users/stapi/OneDrive/Desktop/GD32VW553/GD32VW55X_Wifi_BLE_SDK/GD32VW55x_RELEASE_V1.0.2/MSDK/ble/app\app_scan_mgr.c **** 
 567              		.loc 1 93 5
  95:C:/Users/stapi/OneDrive/Desktop/GD32VW553/GD32VW55X_Wifi_BLE_SDK/GD32VW55x_RELEASE_V1.0.2/MSDK/ble/app\app_scan_mgr.c ****         return 0;
 568              		.loc 1 95 5
  95:C:/Users/stapi/OneDrive/Desktop/GD32VW553/GD32VW55X_Wifi_BLE_SDK/GD32VW55x_RELEASE_V1.0.2/MSDK/ble/app\app_scan_mgr.c ****         return 0;
 569              		.loc 1 95 9 is_stmt 0
 570 0168 5685     		mv	a0,s5
 571 016a 97000000 		call	list_empty
 571      E7800000 
 572              	.LVL67:
  96:C:/Users/stapi/OneDrive/Desktop/GD32VW553/GD32VW55X_Wifi_BLE_SDK/GD32VW55x_RELEASE_V1.0.2/MSDK/ble/app\app_scan_mgr.c ****     }
 573              		.loc 1 96 16
 574 0172 0149     		li	s2,0
  95:C:/Users/stapi/OneDrive/Desktop/GD32VW553/GD32VW55X_Wifi_BLE_SDK/GD32VW55x_RELEASE_V1.0.2/MSDK/ble/app\app_scan_mgr.c ****         return 0;
 575              		.loc 1 95 8
 576 0174 11E5     		bne	a0,zero,.L39
  99:C:/Users/stapi/OneDrive/Desktop/GD32VW553/GD32VW55X_Wifi_BLE_SDK/GD32VW55x_RELEASE_V1.0.2/MSDK/ble/app\app_scan_mgr.c ****         num++;
 577              		.loc 1 99 5 is_stmt 1
 578 0176 83274A00 		lw	a5,4(s4)
 579              	.LVL68:
 580 017a 9843     		lw	a4,0(a5)
 581              	.LVL69:
 582              	.L40:
  99:C:/Users/stapi/OneDrive/Desktop/GD32VW553/GD32VW55X_Wifi_BLE_SDK/GD32VW55x_RELEASE_V1.0.2/MSDK/ble/app\app_scan_mgr.c ****         num++;
 583              		.loc 1 99 5
 584 017c 6392570B 		bne	a5,s5,.L41
 585              	.LVL70:
 586              	.L39:
 587              	.LBE32:
 588              	.LBE31:
 124:C:/Users/stapi/OneDrive/Desktop/GD32VW553/GD32VW55X_Wifi_BLE_SDK/GD32VW55x_RELEASE_V1.0.2/MSDK/ble/app\app_scan_mgr.c ****     }
 589              		.loc 1 124 37 is_stmt 0
 590 0180 7D19     		addi	s2,s2,-1
 591 0182 1379F90F 		andi	s2,s2,0xff
 592              	.L38:
 593              	.LVL71:
 594              	.LBE30:
 595              	.LBE29:
 162:C:/Users/stapi/OneDrive/Desktop/GD32VW553/GD32VW55X_Wifi_BLE_SDK/GD32VW55x_RELEASE_V1.0.2/MSDK/ble/app\app_scan_mgr.c ****             p_dev_info->adv_sid = p_info->adv_sid;
 596              		.loc 1 162 13 is_stmt 1
 162:C:/Users/stapi/OneDrive/Desktop/GD32VW553/GD32VW55X_Wifi_BLE_SDK/GD32VW55x_RELEASE_V1.0.2/MSDK/ble/app\app_scan_mgr.c ****             p_dev_info->adv_sid = p_info->adv_sid;
 597              		.loc 1 162 26 is_stmt 0
 598 0186 4A85     		mv	a0,s2
 599 0188 97000000 		call	scan_mgr_find_dev_by_idx
 599      E7800000 
 600              	.LVL72:
 601 0190 AA84     		mv	s1,a0
 602              	.LVL73:
 163:C:/Users/stapi/OneDrive/Desktop/GD32VW553/GD32VW55X_Wifi_BLE_SDK/GD32VW55x_RELEASE_V1.0.2/MSDK/ble/app\app_scan_mgr.c ****             p_dev_info->idx = idx;
 603              		.loc 1 163 13 is_stmt 1
 165:C:/Users/stapi/OneDrive/Desktop/GD32VW553/GD32VW55X_Wifi_BLE_SDK/GD32VW55x_RELEASE_V1.0.2/MSDK/ble/app\app_scan_mgr.c ****                    p_info->peer_addr.addr[5], p_info->peer_addr.addr[4], p_info->peer_addr.addr[3],
 604              		.loc 1 165 13 is_stmt 0
 605 0192 B7070000 		lui	a5,%hi(global_debug_level)
 163:C:/Users/stapi/OneDrive/Desktop/GD32VW553/GD32VW55X_Wifi_BLE_SDK/GD32VW55x_RELEASE_V1.0.2/MSDK/ble/app\app_scan_mgr.c ****             p_dev_info->idx = idx;
 606              		.loc 1 163 41
 607 0196 03454401 		lbu	a0,20(s0)
 165:C:/Users/stapi/OneDrive/Desktop/GD32VW553/GD32VW55X_Wifi_BLE_SDK/GD32VW55x_RELEASE_V1.0.2/MSDK/ble/app\app_scan_mgr.c ****                    p_info->peer_addr.addr[5], p_info->peer_addr.addr[4], p_info->peer_addr.addr[3],
 608              		.loc 1 165 13
 609 019a 03C70700 		lbu	a4,%lo(global_debug_level)(a5)
 164:C:/Users/stapi/OneDrive/Desktop/GD32VW553/GD32VW55X_Wifi_BLE_SDK/GD32VW55x_RELEASE_V1.0.2/MSDK/ble/app\app_scan_mgr.c ****             dbg_print(NOTICE, "new device addr %02X:%02X:%02X:%02X:%02X:%02X, addr type 0x%x, rssi 
 610              		.loc 1 164 29
 611 019e 23882401 		sb	s2,16(s1)
 163:C:/Users/stapi/OneDrive/Desktop/GD32VW553/GD32VW55X_Wifi_BLE_SDK/GD32VW55x_RELEASE_V1.0.2/MSDK/ble/app\app_scan_mgr.c ****             p_dev_info->idx = idx;
 612              		.loc 1 163 33
 613 01a2 A387A400 		sb	a0,15(s1)
 164:C:/Users/stapi/OneDrive/Desktop/GD32VW553/GD32VW55X_Wifi_BLE_SDK/GD32VW55x_RELEASE_V1.0.2/MSDK/ble/app\app_scan_mgr.c ****             dbg_print(NOTICE, "new device addr %02X:%02X:%02X:%02X:%02X:%02X, addr type 0x%x, rssi 
 614              		.loc 1 164 13 is_stmt 1
 165:C:/Users/stapi/OneDrive/Desktop/GD32VW553/GD32VW55X_Wifi_BLE_SDK/GD32VW55x_RELEASE_V1.0.2/MSDK/ble/app\app_scan_mgr.c ****                    p_info->peer_addr.addr[5], p_info->peer_addr.addr[4], p_info->peer_addr.addr[3],
 615              		.loc 1 165 13
 165:C:/Users/stapi/OneDrive/Desktop/GD32VW553/GD32VW55X_Wifi_BLE_SDK/GD32VW55x_RELEASE_V1.0.2/MSDK/ble/app\app_scan_mgr.c ****                    p_info->peer_addr.addr[5], p_info->peer_addr.addr[4], p_info->peer_addr.addr[3],
 616              		.loc 1 165 13
 617 01a6 8947     		li	a5,2
 618 01a8 63F3E704 		bleu	a4,a5,.L42
 165:C:/Users/stapi/OneDrive/Desktop/GD32VW553/GD32VW55X_Wifi_BLE_SDK/GD32VW55x_RELEASE_V1.0.2/MSDK/ble/app\app_scan_mgr.c ****                    p_info->peer_addr.addr[5], p_info->peer_addr.addr[4], p_info->peer_addr.addr[3],
 619              		.loc 1 165 13
 620 01ac 13030103 		addi	t1,sp,48
 621 01b0 83482400 		lbu	a7,2(s0)
 622 01b4 03483400 		lbu	a6,3(s0)
 623 01b8 83474400 		lbu	a5,4(s0)
 624 01bc 03475400 		lbu	a4,5(s0)
 625 01c0 83466400 		lbu	a3,6(s0)
 626 01c4 03467400 		lbu	a2,7(s0)
 627 01c8 83458400 		lbu	a1,8(s0)
 628 01cc 1AC8     		sw	t1,16(sp)
 629 01ce 03530402 		lhu	t1,32(s0)
 630 01d2 4AC4     		sw	s2,8(sp)
 631 01d4 2AC2     		sw	a0,4(sp)
 632 01d6 1AC6     		sw	t1,12(sp)
 633 01d8 03053401 		lb	a0,19(s0)
 634 01dc 2AC0     		sw	a0,0(sp)
 635 01de 37050000 		lui	a0,%hi(.LC4)
 636 01e2 13050500 		addi	a0,a0,%lo(.LC4)
 637 01e6 97000000 		call	co_printf
 637      E7800000 
 638              	.LVL74:
 639              	.L42:
 640              	.LBE28:
 170:C:/Users/stapi/OneDrive/Desktop/GD32VW553/GD32VW55X_Wifi_BLE_SDK/GD32VW55x_RELEASE_V1.0.2/MSDK/ble/app\app_scan_mgr.c ****                    p_info->peer_addr.addr[5], p_info->peer_addr.addr[4], p_info->peer_addr.addr[3],
 641              		.loc 1 170 13
 176:C:/Users/stapi/OneDrive/Desktop/GD32VW553/GD32VW55X_Wifi_BLE_SDK/GD32VW55x_RELEASE_V1.0.2/MSDK/ble/app\app_scan_mgr.c ****     }
 642              		.loc 1 176 9
 176:C:/Users/stapi/OneDrive/Desktop/GD32VW553/GD32VW55X_Wifi_BLE_SDK/GD32VW55x_RELEASE_V1.0.2/MSDK/ble/app\app_scan_mgr.c ****     }
 643              		.loc 1 176 58 is_stmt 0
 644 01ee B3393001 		snez	s3,s3
 645              	.LVL75:
 646 01f2 A3883401 		sb	s3,17(s1)
 647              	.LVL76:
 648              	.LBE22:
 649              	.LBE21:
 208:C:/Users/stapi/OneDrive/Desktop/GD32VW553/GD32VW55X_Wifi_BLE_SDK/GD32VW55x_RELEASE_V1.0.2/MSDK/ble/app\app_scan_mgr.c **** 
 650              		.loc 1 208 1
 651 01f6 31BD     		j	.L22
 652              	.LVL77:
 653              	.L31:
 654              	.LBB40:
 655              	.LBB39:
 656              	.LBB37:
 657              	.LBB26:
  74:C:/Users/stapi/OneDrive/Desktop/GD32VW553/GD32VW55X_Wifi_BLE_SDK/GD32VW55x_RELEASE_V1.0.2/MSDK/ble/app\app_scan_mgr.c ****         if (p_peer_addr->addr_type == p_dev_info->peer_addr.addr_type &&
 658              		.loc 1 74 9 is_stmt 1
  75:C:/Users/stapi/OneDrive/Desktop/GD32VW553/GD32VW55X_Wifi_BLE_SDK/GD32VW55x_RELEASE_V1.0.2/MSDK/ble/app\app_scan_mgr.c ****             !memcmp(p_peer_addr->addr, p_dev_info->peer_addr.addr, BLE_GAP_ADDR_LEN)) {
 659              		.loc 1 75 9
  75:C:/Users/stapi/OneDrive/Desktop/GD32VW553/GD32VW55X_Wifi_BLE_SDK/GD32VW55x_RELEASE_V1.0.2/MSDK/ble/app\app_scan_mgr.c ****             !memcmp(p_peer_addr->addr, p_dev_info->peer_addr.addr, BLE_GAP_ADDR_LEN)) {
 660              		.loc 1 75 12 is_stmt 0
 661 01f8 03472400 		lbu	a4,2(s0)
 662 01fc 83C78400 		lbu	a5,8(s1)
 663 0200 631CF700 		bne	a4,a5,.L30
  76:C:/Users/stapi/OneDrive/Desktop/GD32VW553/GD32VW55X_Wifi_BLE_SDK/GD32VW55x_RELEASE_V1.0.2/MSDK/ble/app\app_scan_mgr.c ****             return p_dev_info;
 664              		.loc 1 76 14
 665 0204 1946     		li	a2,6
 666 0206 93859400 		addi	a1,s1,9
 667 020a 4E85     		mv	a0,s3
 668 020c 97000000 		call	memcmp
 668      E7800000 
 669              	.LVL78:
  75:C:/Users/stapi/OneDrive/Desktop/GD32VW553/GD32VW55X_Wifi_BLE_SDK/GD32VW55x_RELEASE_V1.0.2/MSDK/ble/app\app_scan_mgr.c ****             !memcmp(p_peer_addr->addr, p_dev_info->peer_addr.addr, BLE_GAP_ADDR_LEN)) {
 670              		.loc 1 75 71
 671 0214 E30205EA 		beq	a0,zero,.L28
 672              	.L30:
  73:C:/Users/stapi/OneDrive/Desktop/GD32VW553/GD32VW55X_Wifi_BLE_SDK/GD32VW55x_RELEASE_V1.0.2/MSDK/ble/app\app_scan_mgr.c ****         p_dev_info = list_entry(pos, dev_info_t, list);
 673              		.loc 1 73 5 is_stmt 1
 674              	.LVL79:
 675 0218 CA84     		mv	s1,s2
 676              	.LVL80:
 677 021a 03290900 		lw	s2,0(s2)
 678              	.LVL81:
 679 021e 51BD     		j	.L29
 680              	.LVL82:
 681              	.L41:
 682              	.LBE26:
 683              	.LBE37:
 684              	.LBB38:
 685              	.LBB36:
 686              	.LBB35:
 687              	.LBB34:
 688              	.LBB33:
 100:C:/Users/stapi/OneDrive/Desktop/GD32VW553/GD32VW55X_Wifi_BLE_SDK/GD32VW55x_RELEASE_V1.0.2/MSDK/ble/app\app_scan_mgr.c ****     }
 689              		.loc 1 100 9
 100:C:/Users/stapi/OneDrive/Desktop/GD32VW553/GD32VW55X_Wifi_BLE_SDK/GD32VW55x_RELEASE_V1.0.2/MSDK/ble/app\app_scan_mgr.c ****     }
 690              		.loc 1 100 12 is_stmt 0
 691 0220 0509     		addi	s2,s2,1
 692              	.LVL83:
  99:C:/Users/stapi/OneDrive/Desktop/GD32VW553/GD32VW55X_Wifi_BLE_SDK/GD32VW55x_RELEASE_V1.0.2/MSDK/ble/app\app_scan_mgr.c ****         num++;
 693              		.loc 1 99 5
 694 0222 BA87     		mv	a5,a4
 695              	.LVL84:
 100:C:/Users/stapi/OneDrive/Desktop/GD32VW553/GD32VW55X_Wifi_BLE_SDK/GD32VW55x_RELEASE_V1.0.2/MSDK/ble/app\app_scan_mgr.c ****     }
 696              		.loc 1 100 12
 697 0224 1379F90F 		andi	s2,s2,0xff
 698              	.LVL85:
  99:C:/Users/stapi/OneDrive/Desktop/GD32VW553/GD32VW55X_Wifi_BLE_SDK/GD32VW55x_RELEASE_V1.0.2/MSDK/ble/app\app_scan_mgr.c ****         num++;
 699              		.loc 1 99 5 is_stmt 1
 700 0228 1843     		lw	a4,0(a4)
 701 022a 89BF     		j	.L40
 702              	.LVL86:
 703              	.L37:
 704              	.LBE33:
 705              	.LBE34:
 706              	.LBE35:
 707              	.LBE36:
 708              	.LBE38:
 169:C:/Users/stapi/OneDrive/Desktop/GD32VW553/GD32VW55X_Wifi_BLE_SDK/GD32VW55x_RELEASE_V1.0.2/MSDK/ble/app\app_scan_mgr.c ****             dbg_print(NOTICE, "update device addr %02X:%02X:%02X:%02X:%02X:%02X, addr type 0x%x, rs
 709              		.loc 1 169 16
 169:C:/Users/stapi/OneDrive/Desktop/GD32VW553/GD32VW55X_Wifi_BLE_SDK/GD32VW55x_RELEASE_V1.0.2/MSDK/ble/app\app_scan_mgr.c ****             dbg_print(NOTICE, "update device addr %02X:%02X:%02X:%02X:%02X:%02X, addr type 0x%x, rs
 710              		.loc 1 169 19 is_stmt 0
 711 022c 83C71401 		lbu	a5,17(s1)
 712 0230 99E3     		bne	a5,zero,.L43
 169:C:/Users/stapi/OneDrive/Desktop/GD32VW553/GD32VW55X_Wifi_BLE_SDK/GD32VW55x_RELEASE_V1.0.2/MSDK/ble/app\app_scan_mgr.c ****             dbg_print(NOTICE, "update device addr %02X:%02X:%02X:%02X:%02X:%02X, addr type 0x%x, rs
 713              		.loc 1 169 53
 714 0232 63950900 		bne	s3,zero,.L44
 715              	.L43:
 169:C:/Users/stapi/OneDrive/Desktop/GD32VW553/GD32VW55X_Wifi_BLE_SDK/GD32VW55x_RELEASE_V1.0.2/MSDK/ble/app\app_scan_mgr.c ****             dbg_print(NOTICE, "update device addr %02X:%02X:%02X:%02X:%02X:%02X, addr type 0x%x, rs
 716              		.loc 1 169 72
 717 0236 83470A00 		lbu	a5,0(s4)
 718 023a D5DB     		beq	a5,zero,.L42
 719              	.L44:
 170:C:/Users/stapi/OneDrive/Desktop/GD32VW553/GD32VW55X_Wifi_BLE_SDK/GD32VW55x_RELEASE_V1.0.2/MSDK/ble/app\app_scan_mgr.c ****                    p_info->peer_addr.addr[5], p_info->peer_addr.addr[4], p_info->peer_addr.addr[3],
 720              		.loc 1 170 13 is_stmt 1
 170:C:/Users/stapi/OneDrive/Desktop/GD32VW553/GD32VW55X_Wifi_BLE_SDK/GD32VW55x_RELEASE_V1.0.2/MSDK/ble/app\app_scan_mgr.c ****                    p_info->peer_addr.addr[5], p_info->peer_addr.addr[4], p_info->peer_addr.addr[3],
 721              		.loc 1 170 13
 722 023c B7070000 		lui	a5,%hi(global_debug_level)
 723 0240 03C70700 		lbu	a4,%lo(global_debug_level)(a5)
 724 0244 8947     		li	a5,2
 725 0246 E3F4E7FA 		bleu	a4,a5,.L42
 170:C:/Users/stapi/OneDrive/Desktop/GD32VW553/GD32VW55X_Wifi_BLE_SDK/GD32VW55x_RELEASE_V1.0.2/MSDK/ble/app\app_scan_mgr.c ****                    p_info->peer_addr.addr[5], p_info->peer_addr.addr[4], p_info->peer_addr.addr[3],
 726              		.loc 1 170 13
 727 024a 0818     		addi	a0,sp,48
 728 024c 83482400 		lbu	a7,2(s0)
 729 0250 03483400 		lbu	a6,3(s0)
 730 0254 83474400 		lbu	a5,4(s0)
 731 0258 03475400 		lbu	a4,5(s0)
 732 025c 83466400 		lbu	a3,6(s0)
 733 0260 03467400 		lbu	a2,7(s0)
 734 0264 83458400 		lbu	a1,8(s0)
 735 0268 2AC6     		sw	a0,12(sp)
 736 026a 03C50401 		lbu	a0,16(s1)
 737 026e 2AC4     		sw	a0,8(sp)
 738 0270 03454401 		lbu	a0,20(s0)
 739 0274 2AC2     		sw	a0,4(sp)
 740 0276 03053401 		lb	a0,19(s0)
 741 027a 2AC0     		sw	a0,0(sp)
 742 027c 37050000 		lui	a0,%hi(.LC5)
 743 0280 13050500 		addi	a0,a0,%lo(.LC5)
 744 0284 97000000 		call	co_printf
 744      E7800000 
 745              	.LVL87:
 746 028c 8DB7     		j	.L42
 747              	.LBE39:
 748              	.LBE40:
 749              		.cfi_endproc
 750              	.LFE5:
 752              		.section	.rodata.app_scan_enable.str1.4,"aMS",@progbits,1
 753              		.align	2
 754              	.LC6:
 755 0000 6170705F 		.string	"app_scan_enable fail!\r\n"
 755      7363616E 
 755      5F656E61 
 755      626C6520 
 755      6661696C 
 756              		.section	.text.app_scan_enable,"ax",@progbits
 757              		.align	1
 758              		.globl	app_scan_enable
 760              	app_scan_enable:
 761              	.LFB9:
 284:C:/Users/stapi/OneDrive/Desktop/GD32VW553/GD32VW55X_Wifi_BLE_SDK/GD32VW55x_RELEASE_V1.0.2/MSDK/ble/app\app_scan_mgr.c **** 
 285:C:/Users/stapi/OneDrive/Desktop/GD32VW553/GD32VW55X_Wifi_BLE_SDK/GD32VW55x_RELEASE_V1.0.2/MSDK/ble/app\app_scan_mgr.c **** /*!
 286:C:/Users/stapi/OneDrive/Desktop/GD32VW553/GD32VW55X_Wifi_BLE_SDK/GD32VW55x_RELEASE_V1.0.2/MSDK/ble/app\app_scan_mgr.c ****     \brief      Enable scan
 287:C:/Users/stapi/OneDrive/Desktop/GD32VW553/GD32VW55X_Wifi_BLE_SDK/GD32VW55x_RELEASE_V1.0.2/MSDK/ble/app\app_scan_mgr.c ****     \param[in]  update_rssi: true to update scanned device list when RSSI changes
 288:C:/Users/stapi/OneDrive/Desktop/GD32VW553/GD32VW55X_Wifi_BLE_SDK/GD32VW55x_RELEASE_V1.0.2/MSDK/ble/app\app_scan_mgr.c ****     \param[out] none
 289:C:/Users/stapi/OneDrive/Desktop/GD32VW553/GD32VW55X_Wifi_BLE_SDK/GD32VW55x_RELEASE_V1.0.2/MSDK/ble/app\app_scan_mgr.c ****     \retval     none
 290:C:/Users/stapi/OneDrive/Desktop/GD32VW553/GD32VW55X_Wifi_BLE_SDK/GD32VW55x_RELEASE_V1.0.2/MSDK/ble/app\app_scan_mgr.c **** */
 291:C:/Users/stapi/OneDrive/Desktop/GD32VW553/GD32VW55X_Wifi_BLE_SDK/GD32VW55x_RELEASE_V1.0.2/MSDK/ble/app\app_scan_mgr.c **** void app_scan_enable(bool update_rssi)
 292:C:/Users/stapi/OneDrive/Desktop/GD32VW553/GD32VW55X_Wifi_BLE_SDK/GD32VW55x_RELEASE_V1.0.2/MSDK/ble/app\app_scan_mgr.c **** {
 762              		.loc 1 292 1
 763              		.cfi_startproc
 764              	.LVL88:
 765 0000 17030000 		call	t0,__riscv_save_1
 765      E7020300 
 766              		.cfi_offset 8, -8
 767              		.cfi_offset 1, -4
 768              		.cfi_def_cfa_offset 16
 293:C:/Users/stapi/OneDrive/Desktop/GD32VW553/GD32VW55X_Wifi_BLE_SDK/GD32VW55x_RELEASE_V1.0.2/MSDK/ble/app\app_scan_mgr.c ****     if (ble_scan_enable() != BLE_ERR_NO_ERROR) {
 769              		.loc 1 293 5
 292:C:/Users/stapi/OneDrive/Desktop/GD32VW553/GD32VW55X_Wifi_BLE_SDK/GD32VW55x_RELEASE_V1.0.2/MSDK/ble/app\app_scan_mgr.c ****     if (ble_scan_enable() != BLE_ERR_NO_ERROR) {
 770              		.loc 1 292 1 is_stmt 0
 771 0008 2A84     		mv	s0,a0
 772              		.loc 1 293 9
 773 000a 97000000 		call	ble_scan_enable
 773      E7800000 
 774              	.LVL89:
 775              		.loc 1 293 8
 776 0012 05C5     		beq	a0,zero,.L67
 294:C:/Users/stapi/OneDrive/Desktop/GD32VW553/GD32VW55X_Wifi_BLE_SDK/GD32VW55x_RELEASE_V1.0.2/MSDK/ble/app\app_scan_mgr.c ****         dbg_print(NOTICE, "app_scan_enable fail!\r\n");
 777              		.loc 1 294 9 is_stmt 1
 778              		.loc 1 294 9
 779 0014 B7070000 		lui	a5,%hi(global_debug_level)
 780 0018 03C70700 		lbu	a4,%lo(global_debug_level)(a5)
 781 001c 8947     		li	a5,2
 782 001e 63FAE700 		bleu	a4,a5,.L66
 783              		.loc 1 294 9 discriminator 1
 784 0022 37050000 		lui	a0,%hi(.LC6)
 785 0026 13050500 		addi	a0,a0,%lo(.LC6)
 786 002a 97000000 		call	co_printf
 786      E7800000 
 787              	.LVL90:
 788              	.L66:
 295:C:/Users/stapi/OneDrive/Desktop/GD32VW553/GD32VW55X_Wifi_BLE_SDK/GD32VW55x_RELEASE_V1.0.2/MSDK/ble/app\app_scan_mgr.c ****         return;
 296:C:/Users/stapi/OneDrive/Desktop/GD32VW553/GD32VW55X_Wifi_BLE_SDK/GD32VW55x_RELEASE_V1.0.2/MSDK/ble/app\app_scan_mgr.c ****     }
 297:C:/Users/stapi/OneDrive/Desktop/GD32VW553/GD32VW55X_Wifi_BLE_SDK/GD32VW55x_RELEASE_V1.0.2/MSDK/ble/app\app_scan_mgr.c **** 
 298:C:/Users/stapi/OneDrive/Desktop/GD32VW553/GD32VW55X_Wifi_BLE_SDK/GD32VW55x_RELEASE_V1.0.2/MSDK/ble/app\app_scan_mgr.c ****     ble_scan_mgr_cb.update_with_rssi = update_rssi;
 299:C:/Users/stapi/OneDrive/Desktop/GD32VW553/GD32VW55X_Wifi_BLE_SDK/GD32VW55x_RELEASE_V1.0.2/MSDK/ble/app\app_scan_mgr.c **** }
 789              		.loc 1 299 1 is_stmt 0
 790 0032 17030000 		tail	__riscv_restore_1
 790      67000300 
 791              		.cfi_remember_state
 792              		.cfi_restore 8
 793              		.cfi_restore 1
 794              		.cfi_def_cfa_offset 0
 795              	.L67:
 796              		.cfi_restore_state
 298:C:/Users/stapi/OneDrive/Desktop/GD32VW553/GD32VW55X_Wifi_BLE_SDK/GD32VW55x_RELEASE_V1.0.2/MSDK/ble/app\app_scan_mgr.c **** }
 797              		.loc 1 298 5 is_stmt 1
 298:C:/Users/stapi/OneDrive/Desktop/GD32VW553/GD32VW55X_Wifi_BLE_SDK/GD32VW55x_RELEASE_V1.0.2/MSDK/ble/app\app_scan_mgr.c **** }
 798              		.loc 1 298 38 is_stmt 0
 799 003a B7070000 		lui	a5,%hi(.LANCHOR0)
 800 003e 23808700 		sb	s0,%lo(.LANCHOR0)(a5)
 801 0042 C5BF     		j	.L66
 802              		.cfi_endproc
 803              	.LFE9:
 805              		.section	.rodata.app_scan_disable.str1.4,"aMS",@progbits,1
 806              		.align	2
 807              	.LC7:
 808 0000 6170705F 		.string	"app_scan_disable fail!\r\n"
 808      7363616E 
 808      5F646973 
 808      61626C65 
 808      20666169 
 809              		.section	.text.app_scan_disable,"ax",@progbits
 810              		.align	1
 811              		.globl	app_scan_disable
 813              	app_scan_disable:
 814              	.LFB10:
 300:C:/Users/stapi/OneDrive/Desktop/GD32VW553/GD32VW55X_Wifi_BLE_SDK/GD32VW55x_RELEASE_V1.0.2/MSDK/ble/app\app_scan_mgr.c **** 
 301:C:/Users/stapi/OneDrive/Desktop/GD32VW553/GD32VW55X_Wifi_BLE_SDK/GD32VW55x_RELEASE_V1.0.2/MSDK/ble/app\app_scan_mgr.c **** /*!
 302:C:/Users/stapi/OneDrive/Desktop/GD32VW553/GD32VW55X_Wifi_BLE_SDK/GD32VW55x_RELEASE_V1.0.2/MSDK/ble/app\app_scan_mgr.c ****     \brief      Disable scan
 303:C:/Users/stapi/OneDrive/Desktop/GD32VW553/GD32VW55X_Wifi_BLE_SDK/GD32VW55x_RELEASE_V1.0.2/MSDK/ble/app\app_scan_mgr.c ****     \param[in]  none
 304:C:/Users/stapi/OneDrive/Desktop/GD32VW553/GD32VW55X_Wifi_BLE_SDK/GD32VW55x_RELEASE_V1.0.2/MSDK/ble/app\app_scan_mgr.c ****     \param[out] none
 305:C:/Users/stapi/OneDrive/Desktop/GD32VW553/GD32VW55X_Wifi_BLE_SDK/GD32VW55x_RELEASE_V1.0.2/MSDK/ble/app\app_scan_mgr.c ****     \retval     none
 306:C:/Users/stapi/OneDrive/Desktop/GD32VW553/GD32VW55X_Wifi_BLE_SDK/GD32VW55x_RELEASE_V1.0.2/MSDK/ble/app\app_scan_mgr.c **** */
 307:C:/Users/stapi/OneDrive/Desktop/GD32VW553/GD32VW55X_Wifi_BLE_SDK/GD32VW55x_RELEASE_V1.0.2/MSDK/ble/app\app_scan_mgr.c **** void app_scan_disable(void)
 308:C:/Users/stapi/OneDrive/Desktop/GD32VW553/GD32VW55X_Wifi_BLE_SDK/GD32VW55x_RELEASE_V1.0.2/MSDK/ble/app\app_scan_mgr.c **** {
 815              		.loc 1 308 1 is_stmt 1
 816              		.cfi_startproc
 817 0000 17030000 		call	t0,__riscv_save_0
 817      E7020300 
 818              		.cfi_offset 1, -4
 819              		.cfi_def_cfa_offset 16
 309:C:/Users/stapi/OneDrive/Desktop/GD32VW553/GD32VW55X_Wifi_BLE_SDK/GD32VW55x_RELEASE_V1.0.2/MSDK/ble/app\app_scan_mgr.c ****     if (ble_scan_disable() != BLE_ERR_NO_ERROR) {
 820              		.loc 1 309 5
 821              		.loc 1 309 9 is_stmt 0
 822 0008 97000000 		call	ble_scan_disable
 822      E7800000 
 823              	.LVL91:
 824              		.loc 1 309 8
 825 0010 05C5     		beq	a0,zero,.L71
 310:C:/Users/stapi/OneDrive/Desktop/GD32VW553/GD32VW55X_Wifi_BLE_SDK/GD32VW55x_RELEASE_V1.0.2/MSDK/ble/app\app_scan_mgr.c ****         dbg_print(NOTICE, "app_scan_disable fail!\r\n");
 826              		.loc 1 310 9 is_stmt 1
 827              		.loc 1 310 9
 828 0012 B7070000 		lui	a5,%hi(global_debug_level)
 829 0016 03C70700 		lbu	a4,%lo(global_debug_level)(a5)
 830 001a 8947     		li	a5,2
 831 001c 63FAE700 		bleu	a4,a5,.L70
 832              		.loc 1 310 9 discriminator 1
 833 0020 37050000 		lui	a0,%hi(.LC7)
 834 0024 13050500 		addi	a0,a0,%lo(.LC7)
 835 0028 97000000 		call	co_printf
 835      E7800000 
 836              	.LVL92:
 837              	.L70:
 311:C:/Users/stapi/OneDrive/Desktop/GD32VW553/GD32VW55X_Wifi_BLE_SDK/GD32VW55x_RELEASE_V1.0.2/MSDK/ble/app\app_scan_mgr.c ****         return;
 312:C:/Users/stapi/OneDrive/Desktop/GD32VW553/GD32VW55X_Wifi_BLE_SDK/GD32VW55x_RELEASE_V1.0.2/MSDK/ble/app\app_scan_mgr.c ****     }
 313:C:/Users/stapi/OneDrive/Desktop/GD32VW553/GD32VW55X_Wifi_BLE_SDK/GD32VW55x_RELEASE_V1.0.2/MSDK/ble/app\app_scan_mgr.c **** 
 314:C:/Users/stapi/OneDrive/Desktop/GD32VW553/GD32VW55X_Wifi_BLE_SDK/GD32VW55x_RELEASE_V1.0.2/MSDK/ble/app\app_scan_mgr.c ****     ble_scan_mgr_cb.update_with_rssi = false;
 315:C:/Users/stapi/OneDrive/Desktop/GD32VW553/GD32VW55X_Wifi_BLE_SDK/GD32VW55x_RELEASE_V1.0.2/MSDK/ble/app\app_scan_mgr.c **** }
 838              		.loc 1 315 1 is_stmt 0
 839 0030 17030000 		tail	__riscv_restore_0
 839      67000300 
 840              		.cfi_remember_state
 841              		.cfi_restore 1
 842              		.cfi_def_cfa_offset 0
 843              	.L71:
 844              		.cfi_restore_state
 314:C:/Users/stapi/OneDrive/Desktop/GD32VW553/GD32VW55X_Wifi_BLE_SDK/GD32VW55x_RELEASE_V1.0.2/MSDK/ble/app\app_scan_mgr.c **** }
 845              		.loc 1 314 5 is_stmt 1
 314:C:/Users/stapi/OneDrive/Desktop/GD32VW553/GD32VW55X_Wifi_BLE_SDK/GD32VW55x_RELEASE_V1.0.2/MSDK/ble/app\app_scan_mgr.c **** }
 846              		.loc 1 314 38 is_stmt 0
 847 0038 B7070000 		lui	a5,%hi(.LANCHOR0)
 848 003c 23800700 		sb	zero,%lo(.LANCHOR0)(a5)
 849 0040 C5BF     		j	.L70
 850              		.cfi_endproc
 851              	.LFE10:
 853              		.section	.rodata.app_scan_mgr_reset.str1.4,"aMS",@progbits,1
 854              		.align	2
 855              	.LC8:
 856 0000 6170705F 		.string	"app_scan_mgr_reset deinit scan module fail\r\n"
 856      7363616E 
 856      5F6D6772 
 856      5F726573 
 856      65742064 
 857              		.section	.text.app_scan_mgr_reset,"ax",@progbits
 858              		.align	1
 859              		.globl	app_scan_mgr_reset
 861              	app_scan_mgr_reset:
 862              	.LFB11:
 316:C:/Users/stapi/OneDrive/Desktop/GD32VW553/GD32VW55X_Wifi_BLE_SDK/GD32VW55x_RELEASE_V1.0.2/MSDK/ble/app\app_scan_mgr.c **** 
 317:C:/Users/stapi/OneDrive/Desktop/GD32VW553/GD32VW55X_Wifi_BLE_SDK/GD32VW55x_RELEASE_V1.0.2/MSDK/ble/app\app_scan_mgr.c **** /*!
 318:C:/Users/stapi/OneDrive/Desktop/GD32VW553/GD32VW55X_Wifi_BLE_SDK/GD32VW55x_RELEASE_V1.0.2/MSDK/ble/app\app_scan_mgr.c ****     \brief      Reset application scan manager module
 319:C:/Users/stapi/OneDrive/Desktop/GD32VW553/GD32VW55X_Wifi_BLE_SDK/GD32VW55x_RELEASE_V1.0.2/MSDK/ble/app\app_scan_mgr.c ****     \param[in]  none
 320:C:/Users/stapi/OneDrive/Desktop/GD32VW553/GD32VW55X_Wifi_BLE_SDK/GD32VW55x_RELEASE_V1.0.2/MSDK/ble/app\app_scan_mgr.c ****     \param[out] none
 321:C:/Users/stapi/OneDrive/Desktop/GD32VW553/GD32VW55X_Wifi_BLE_SDK/GD32VW55x_RELEASE_V1.0.2/MSDK/ble/app\app_scan_mgr.c ****     \retval     none
 322:C:/Users/stapi/OneDrive/Desktop/GD32VW553/GD32VW55X_Wifi_BLE_SDK/GD32VW55x_RELEASE_V1.0.2/MSDK/ble/app\app_scan_mgr.c **** */
 323:C:/Users/stapi/OneDrive/Desktop/GD32VW553/GD32VW55X_Wifi_BLE_SDK/GD32VW55x_RELEASE_V1.0.2/MSDK/ble/app\app_scan_mgr.c **** void app_scan_mgr_reset(void)
 324:C:/Users/stapi/OneDrive/Desktop/GD32VW553/GD32VW55X_Wifi_BLE_SDK/GD32VW55x_RELEASE_V1.0.2/MSDK/ble/app\app_scan_mgr.c **** {
 863              		.loc 1 324 1 is_stmt 1
 864              		.cfi_startproc
 865 0000 17030000 		call	t0,__riscv_save_0
 865      E7020300 
 866              		.cfi_offset 1, -4
 867              		.cfi_def_cfa_offset 16
 325:C:/Users/stapi/OneDrive/Desktop/GD32VW553/GD32VW55X_Wifi_BLE_SDK/GD32VW55x_RELEASE_V1.0.2/MSDK/ble/app\app_scan_mgr.c ****     scan_mgr_clear_dev_list();
 868              		.loc 1 325 5
 869 0008 97000000 		call	scan_mgr_clear_dev_list
 869      E7800000 
 870              	.LVL93:
 326:C:/Users/stapi/OneDrive/Desktop/GD32VW553/GD32VW55X_Wifi_BLE_SDK/GD32VW55x_RELEASE_V1.0.2/MSDK/ble/app\app_scan_mgr.c ****     ble_scan_mgr_cb.update_with_rssi = false;
 871              		.loc 1 326 5
 872              		.loc 1 326 38 is_stmt 0
 873 0010 B7070000 		lui	a5,%hi(.LANCHOR0)
 327:C:/Users/stapi/OneDrive/Desktop/GD32VW553/GD32VW55X_Wifi_BLE_SDK/GD32VW55x_RELEASE_V1.0.2/MSDK/ble/app\app_scan_mgr.c ****     if (ble_scan_reinit(BLE_GAP_LOCAL_ADDR_STATIC) != BLE_ERR_NO_ERROR) {
 874              		.loc 1 327 9
 875 0014 0145     		li	a0,0
 326:C:/Users/stapi/OneDrive/Desktop/GD32VW553/GD32VW55X_Wifi_BLE_SDK/GD32VW55x_RELEASE_V1.0.2/MSDK/ble/app\app_scan_mgr.c ****     ble_scan_mgr_cb.update_with_rssi = false;
 876              		.loc 1 326 38
 877 0016 23800700 		sb	zero,%lo(.LANCHOR0)(a5)
 878              		.loc 1 327 5 is_stmt 1
 879              		.loc 1 327 9 is_stmt 0
 880 001a 97000000 		call	ble_scan_reinit
 880      E7800000 
 881              	.LVL94:
 882              		.loc 1 327 8
 883 0022 05C1     		beq	a0,zero,.L74
 328:C:/Users/stapi/OneDrive/Desktop/GD32VW553/GD32VW55X_Wifi_BLE_SDK/GD32VW55x_RELEASE_V1.0.2/MSDK/ble/app\app_scan_mgr.c ****         dbg_print(NOTICE, "app_scan_mgr_reset deinit scan module fail\r\n");
 884              		.loc 1 328 9 is_stmt 1
 885              		.loc 1 328 9
 886 0024 B7070000 		lui	a5,%hi(global_debug_level)
 887 0028 03C70700 		lbu	a4,%lo(global_debug_level)(a5)
 888 002c 8947     		li	a5,2
 889 002e 63FAE700 		bleu	a4,a5,.L74
 890              		.loc 1 328 9 discriminator 1
 891 0032 37050000 		lui	a0,%hi(.LC8)
 892 0036 13050500 		addi	a0,a0,%lo(.LC8)
 893 003a 97000000 		call	co_printf
 893      E7800000 
 894              	.LVL95:
 895              		.loc 1 328 9 discriminator 1
 896              	.L74:
 329:C:/Users/stapi/OneDrive/Desktop/GD32VW553/GD32VW55X_Wifi_BLE_SDK/GD32VW55x_RELEASE_V1.0.2/MSDK/ble/app\app_scan_mgr.c ****     }
 330:C:/Users/stapi/OneDrive/Desktop/GD32VW553/GD32VW55X_Wifi_BLE_SDK/GD32VW55x_RELEASE_V1.0.2/MSDK/ble/app\app_scan_mgr.c **** }
 897              		.loc 1 330 1 is_stmt 0
 898 0042 17030000 		tail	__riscv_restore_0
 898      67000300 
 899              		.cfi_restore 1
 900              		.cfi_def_cfa_offset 0
 901              		.cfi_endproc
 902              	.LFE11:
 904              		.section	.text.app_scan_mgr_init,"ax",@progbits
 905              		.align	1
 906              		.globl	app_scan_mgr_init
 908              	app_scan_mgr_init:
 909              	.LFB12:
 331:C:/Users/stapi/OneDrive/Desktop/GD32VW553/GD32VW55X_Wifi_BLE_SDK/GD32VW55x_RELEASE_V1.0.2/MSDK/ble/app\app_scan_mgr.c **** 
 332:C:/Users/stapi/OneDrive/Desktop/GD32VW553/GD32VW55X_Wifi_BLE_SDK/GD32VW55x_RELEASE_V1.0.2/MSDK/ble/app\app_scan_mgr.c **** /*!
 333:C:/Users/stapi/OneDrive/Desktop/GD32VW553/GD32VW55X_Wifi_BLE_SDK/GD32VW55x_RELEASE_V1.0.2/MSDK/ble/app\app_scan_mgr.c ****     \brief      Init application scan manager module
 334:C:/Users/stapi/OneDrive/Desktop/GD32VW553/GD32VW55X_Wifi_BLE_SDK/GD32VW55x_RELEASE_V1.0.2/MSDK/ble/app\app_scan_mgr.c ****     \param[in]  none
 335:C:/Users/stapi/OneDrive/Desktop/GD32VW553/GD32VW55X_Wifi_BLE_SDK/GD32VW55x_RELEASE_V1.0.2/MSDK/ble/app\app_scan_mgr.c ****     \param[out] none
 336:C:/Users/stapi/OneDrive/Desktop/GD32VW553/GD32VW55X_Wifi_BLE_SDK/GD32VW55x_RELEASE_V1.0.2/MSDK/ble/app\app_scan_mgr.c ****     \retval     none
 337:C:/Users/stapi/OneDrive/Desktop/GD32VW553/GD32VW55X_Wifi_BLE_SDK/GD32VW55x_RELEASE_V1.0.2/MSDK/ble/app\app_scan_mgr.c **** */
 338:C:/Users/stapi/OneDrive/Desktop/GD32VW553/GD32VW55X_Wifi_BLE_SDK/GD32VW55x_RELEASE_V1.0.2/MSDK/ble/app\app_scan_mgr.c **** void app_scan_mgr_init(void)
 339:C:/Users/stapi/OneDrive/Desktop/GD32VW553/GD32VW55X_Wifi_BLE_SDK/GD32VW55x_RELEASE_V1.0.2/MSDK/ble/app\app_scan_mgr.c **** {
 910              		.loc 1 339 1 is_stmt 1
 911              		.cfi_startproc
 340:C:/Users/stapi/OneDrive/Desktop/GD32VW553/GD32VW55X_Wifi_BLE_SDK/GD32VW55x_RELEASE_V1.0.2/MSDK/ble/app\app_scan_mgr.c ****     memset(&ble_scan_mgr_cb, 0, sizeof(ble_scan_mgr_cb));
 912              		.loc 1 340 5
 913 0000 B7070000 		lui	a5,%hi(.LANCHOR0)
 914 0004 93870700 		addi	a5,a5,%lo(.LANCHOR0)
 341:C:/Users/stapi/OneDrive/Desktop/GD32VW553/GD32VW55X_Wifi_BLE_SDK/GD32VW55x_RELEASE_V1.0.2/MSDK/ble/app\app_scan_mgr.c ****     INIT_DLIST_HEAD(&ble_scan_mgr_cb.devs_list);
 342:C:/Users/stapi/OneDrive/Desktop/GD32VW553/GD32VW55X_Wifi_BLE_SDK/GD32VW55x_RELEASE_V1.0.2/MSDK/ble/app\app_scan_mgr.c ****     ble_scan_callback_register(ble_app_scan_mgr_evt_handler);
 915              		.loc 1 342 5 is_stmt 0
 916 0008 37050000 		lui	a0,%hi(ble_app_scan_mgr_evt_handler)
 341:C:/Users/stapi/OneDrive/Desktop/GD32VW553/GD32VW55X_Wifi_BLE_SDK/GD32VW55x_RELEASE_V1.0.2/MSDK/ble/app\app_scan_mgr.c ****     INIT_DLIST_HEAD(&ble_scan_mgr_cb.devs_list);
 917              		.loc 1 341 5
 918 000c 13874700 		addi	a4,a5,4
 340:C:/Users/stapi/OneDrive/Desktop/GD32VW553/GD32VW55X_Wifi_BLE_SDK/GD32VW55x_RELEASE_V1.0.2/MSDK/ble/app\app_scan_mgr.c ****     memset(&ble_scan_mgr_cb, 0, sizeof(ble_scan_mgr_cb));
 919              		.loc 1 340 5
 920 0010 23A00700 		sw	zero,0(a5)
 341:C:/Users/stapi/OneDrive/Desktop/GD32VW553/GD32VW55X_Wifi_BLE_SDK/GD32VW55x_RELEASE_V1.0.2/MSDK/ble/app\app_scan_mgr.c ****     INIT_DLIST_HEAD(&ble_scan_mgr_cb.devs_list);
 921              		.loc 1 341 5 is_stmt 1
 341:C:/Users/stapi/OneDrive/Desktop/GD32VW553/GD32VW55X_Wifi_BLE_SDK/GD32VW55x_RELEASE_V1.0.2/MSDK/ble/app\app_scan_mgr.c ****     INIT_DLIST_HEAD(&ble_scan_mgr_cb.devs_list);
 922              		.loc 1 341 5
 923              		.loc 1 342 5 is_stmt 0
 924 0014 13050500 		addi	a0,a0,%lo(ble_app_scan_mgr_evt_handler)
 341:C:/Users/stapi/OneDrive/Desktop/GD32VW553/GD32VW55X_Wifi_BLE_SDK/GD32VW55x_RELEASE_V1.0.2/MSDK/ble/app\app_scan_mgr.c ****     INIT_DLIST_HEAD(&ble_scan_mgr_cb.devs_list);
 925              		.loc 1 341 5
 926 0018 D8C3     		sw	a4,4(a5)
 341:C:/Users/stapi/OneDrive/Desktop/GD32VW553/GD32VW55X_Wifi_BLE_SDK/GD32VW55x_RELEASE_V1.0.2/MSDK/ble/app\app_scan_mgr.c ****     INIT_DLIST_HEAD(&ble_scan_mgr_cb.devs_list);
 927              		.loc 1 341 5 is_stmt 1
 928 001a 98C7     		sw	a4,8(a5)
 341:C:/Users/stapi/OneDrive/Desktop/GD32VW553/GD32VW55X_Wifi_BLE_SDK/GD32VW55x_RELEASE_V1.0.2/MSDK/ble/app\app_scan_mgr.c ****     INIT_DLIST_HEAD(&ble_scan_mgr_cb.devs_list);
 929              		.loc 1 341 5
 930              		.loc 1 342 5
 931 001c 17030000 		tail	ble_scan_callback_register
 931      67000300 
 932              	.LVL96:
 933              		.cfi_endproc
 934              	.LFE12:
 936              		.section	.text.app_scan_mgr_deinit,"ax",@progbits
 937              		.align	1
 938              		.globl	app_scan_mgr_deinit
 940              	app_scan_mgr_deinit:
 941              	.LFB13:
 343:C:/Users/stapi/OneDrive/Desktop/GD32VW553/GD32VW55X_Wifi_BLE_SDK/GD32VW55x_RELEASE_V1.0.2/MSDK/ble/app\app_scan_mgr.c **** }
 344:C:/Users/stapi/OneDrive/Desktop/GD32VW553/GD32VW55X_Wifi_BLE_SDK/GD32VW55x_RELEASE_V1.0.2/MSDK/ble/app\app_scan_mgr.c **** 
 345:C:/Users/stapi/OneDrive/Desktop/GD32VW553/GD32VW55X_Wifi_BLE_SDK/GD32VW55x_RELEASE_V1.0.2/MSDK/ble/app\app_scan_mgr.c **** /*!
 346:C:/Users/stapi/OneDrive/Desktop/GD32VW553/GD32VW55X_Wifi_BLE_SDK/GD32VW55x_RELEASE_V1.0.2/MSDK/ble/app\app_scan_mgr.c ****     \brief      Deinit application scan manager module
 347:C:/Users/stapi/OneDrive/Desktop/GD32VW553/GD32VW55X_Wifi_BLE_SDK/GD32VW55x_RELEASE_V1.0.2/MSDK/ble/app\app_scan_mgr.c ****     \param[in]  none
 348:C:/Users/stapi/OneDrive/Desktop/GD32VW553/GD32VW55X_Wifi_BLE_SDK/GD32VW55x_RELEASE_V1.0.2/MSDK/ble/app\app_scan_mgr.c ****     \param[out] none
 349:C:/Users/stapi/OneDrive/Desktop/GD32VW553/GD32VW55X_Wifi_BLE_SDK/GD32VW55x_RELEASE_V1.0.2/MSDK/ble/app\app_scan_mgr.c ****     \retval     none
 350:C:/Users/stapi/OneDrive/Desktop/GD32VW553/GD32VW55X_Wifi_BLE_SDK/GD32VW55x_RELEASE_V1.0.2/MSDK/ble/app\app_scan_mgr.c **** */
 351:C:/Users/stapi/OneDrive/Desktop/GD32VW553/GD32VW55X_Wifi_BLE_SDK/GD32VW55x_RELEASE_V1.0.2/MSDK/ble/app\app_scan_mgr.c **** void app_scan_mgr_deinit(void)
 352:C:/Users/stapi/OneDrive/Desktop/GD32VW553/GD32VW55X_Wifi_BLE_SDK/GD32VW55x_RELEASE_V1.0.2/MSDK/ble/app\app_scan_mgr.c **** {
 942              		.loc 1 352 1
 943              		.cfi_startproc
 944 0000 17030000 		call	t0,__riscv_save_0
 944      E7020300 
 945              		.cfi_offset 1, -4
 946              		.cfi_def_cfa_offset 16
 353:C:/Users/stapi/OneDrive/Desktop/GD32VW553/GD32VW55X_Wifi_BLE_SDK/GD32VW55x_RELEASE_V1.0.2/MSDK/ble/app\app_scan_mgr.c ****     scan_mgr_clear_dev_list();
 947              		.loc 1 353 5
 948 0008 97000000 		call	scan_mgr_clear_dev_list
 948      E7800000 
 949              	.LVL97:
 354:C:/Users/stapi/OneDrive/Desktop/GD32VW553/GD32VW55X_Wifi_BLE_SDK/GD32VW55x_RELEASE_V1.0.2/MSDK/ble/app\app_scan_mgr.c ****     memset(&ble_scan_mgr_cb, 0, sizeof(ble_scan_mgr_cb));
 950              		.loc 1 354 5
 951 0010 B7070000 		lui	a5,%hi(.LANCHOR0)
 952 0014 93870700 		addi	a5,a5,%lo(.LANCHOR0)
 355:C:/Users/stapi/OneDrive/Desktop/GD32VW553/GD32VW55X_Wifi_BLE_SDK/GD32VW55x_RELEASE_V1.0.2/MSDK/ble/app\app_scan_mgr.c ****     ble_scan_callback_unregister(ble_app_scan_mgr_evt_handler);
 953              		.loc 1 355 5 is_stmt 0
 954 0018 37050000 		lui	a0,%hi(ble_app_scan_mgr_evt_handler)
 354:C:/Users/stapi/OneDrive/Desktop/GD32VW553/GD32VW55X_Wifi_BLE_SDK/GD32VW55x_RELEASE_V1.0.2/MSDK/ble/app\app_scan_mgr.c ****     memset(&ble_scan_mgr_cb, 0, sizeof(ble_scan_mgr_cb));
 955              		.loc 1 354 5
 956 001c 23A00700 		sw	zero,0(a5)
 957 0020 23A20700 		sw	zero,4(a5)
 958 0024 23A40700 		sw	zero,8(a5)
 959              		.loc 1 355 5 is_stmt 1
 960 0028 13050500 		addi	a0,a0,%lo(ble_app_scan_mgr_evt_handler)
 961 002c 97000000 		call	ble_scan_callback_unregister
 961      E7800000 
 962              	.LVL98:
 356:C:/Users/stapi/OneDrive/Desktop/GD32VW553/GD32VW55X_Wifi_BLE_SDK/GD32VW55x_RELEASE_V1.0.2/MSDK/ble/app\app_scan_mgr.c **** }
 963              		.loc 1 356 1 is_stmt 0
 964 0034 17030000 		tail	__riscv_restore_0
 964      67000300 
 965              		.cfi_restore 1
 966              		.cfi_def_cfa_offset 0
 967              		.cfi_endproc
 968              	.LFE13:
 970              		.section	.bss.ble_scan_mgr_cb,"aw",@nobits
 971              		.align	2
 972              		.set	.LANCHOR0,. + 0
 975              	ble_scan_mgr_cb:
 976 0000 00000000 		.zero	12
 976      00000000 
 976      00000000 
 977              		.text
 978              	.Letext0:
 979              		.file 2 "c:\\users\\stapi\\onedrive\\desktop\\gd32vw553\\embeddedbuilder_v1.4.7.26843\\tools\\nucl
 980              		.file 3 "..\\..\\..\\..\\util\\include/dlist.h"
 981              		.file 4 "c:\\users\\stapi\\onedrive\\desktop\\gd32vw553\\embeddedbuilder_v1.4.7.26843\\tools\\nucl
 982              		.file 5 "..\\..\\..\\..\\blesw\\src\\export/ble_types.h"
 983              		.file 6 "..\\..\\..\\..\\blesw\\src\\export/ble_gap.h"
 984              		.file 7 "C:/Users/stapi/OneDrive/Desktop/GD32VW553/GD32VW55X_Wifi_BLE_SDK/GD32VW55x_RELEASE_V1.0.2
 985              		.file 8 "..\\..\\..\\..\\blesw\\src\\export/ble_error.h"
 986              		.file 9 "..\\..\\..\\..\\blesw\\src\\export/ble_scan.h"
 987              		.file 10 "..\\..\\..\\..\\util\\include/dbg_print.h"
 988              		.file 11 "..\\..\\..\\..\\util\\include/debug_print.h"
 989              		.file 12 "..\\..\\..\\..\\rtos\\rtos_wrapper/wrapper_os.h"
 990              		.file 13 "c:\\users\\stapi\\onedrive\\desktop\\gd32vw553\\embeddedbuilder_v1.4.7.26843\\tools\\nuc
 991              		.file 14 "<built-in>"
 992              		.file 15 "C:/Users/stapi/OneDrive/Desktop/GD32VW553/GD32VW55X_Wifi_BLE_SDK/GD32VW55x_RELEASE_V1.0.
 993              		.file 16 "..\\..\\..\\..\\blesw\\src\\export/ble_adv_data.h"
DEFINED SYMBOLS
                            *ABS*:0000000000000000 app_scan_mgr.c
C:\Users\stapi\AppData\Local\Temp\ccq6iSNI.s:20     .text.scan_mgr_list_scanned_devices:0000000000000000 scan_mgr_list_scanned_devices
C:\Users\stapi\AppData\Local\Temp\ccq6iSNI.s:24     .text.scan_mgr_list_scanned_devices:0000000000000000 .L0 
C:\Users\stapi\AppData\Local\Temp\ccq6iSNI.s:25     .text.scan_mgr_list_scanned_devices:0000000000000000 .L0 
C:\Users\stapi\AppData\Local\Temp\ccq6iSNI.s:26     .text.scan_mgr_list_scanned_devices:0000000000000008 .L0 
C:\Users\stapi\AppData\Local\Temp\ccq6iSNI.s:27     .text.scan_mgr_list_scanned_devices:0000000000000008 .L0 
C:\Users\stapi\AppData\Local\Temp\ccq6iSNI.s:28     .text.scan_mgr_list_scanned_devices:0000000000000008 .L0 
C:\Users\stapi\AppData\Local\Temp\ccq6iSNI.s:29     .text.scan_mgr_list_scanned_devices:0000000000000008 .L0 
C:\Users\stapi\AppData\Local\Temp\ccq6iSNI.s:30     .text.scan_mgr_list_scanned_devices:0000000000000008 .L0 
C:\Users\stapi\AppData\Local\Temp\ccq6iSNI.s:31     .text.scan_mgr_list_scanned_devices:0000000000000008 .L0 
C:\Users\stapi\AppData\Local\Temp\ccq6iSNI.s:32     .text.scan_mgr_list_scanned_devices:0000000000000008 .L0 
C:\Users\stapi\AppData\Local\Temp\ccq6iSNI.s:33     .text.scan_mgr_list_scanned_devices:0000000000000008 .L0 
C:\Users\stapi\AppData\Local\Temp\ccq6iSNI.s:36     .text.scan_mgr_list_scanned_devices:0000000000000008 .L0 
C:\Users\stapi\AppData\Local\Temp\ccq6iSNI.s:37     .text.scan_mgr_list_scanned_devices:0000000000000008 .L0 
C:\Users\stapi\AppData\Local\Temp\ccq6iSNI.s:38     .text.scan_mgr_list_scanned_devices:0000000000000008 .L0 
C:\Users\stapi\AppData\Local\Temp\ccq6iSNI.s:39     .text.scan_mgr_list_scanned_devices:0000000000000008 .L0 
C:\Users\stapi\AppData\Local\Temp\ccq6iSNI.s:40     .text.scan_mgr_list_scanned_devices:0000000000000008 .L0 
C:\Users\stapi\AppData\Local\Temp\ccq6iSNI.s:46     .text.scan_mgr_list_scanned_devices:000000000000001c .L0 
C:\Users\stapi\AppData\Local\Temp\ccq6iSNI.s:48     .text.scan_mgr_list_scanned_devices:000000000000001e .L0 
C:\Users\stapi\AppData\Local\Temp\ccq6iSNI.s:49     .text.scan_mgr_list_scanned_devices:000000000000001e .L0 
C:\Users\stapi\AppData\Local\Temp\ccq6iSNI.s:54     .text.scan_mgr_list_scanned_devices:000000000000002c .L0 
C:\Users\stapi\AppData\Local\Temp\ccq6iSNI.s:60     .text.scan_mgr_list_scanned_devices:000000000000003c .L0 
C:\Users\stapi\AppData\Local\Temp\ccq6iSNI.s:61     .text.scan_mgr_list_scanned_devices:0000000000000044 .L0 
C:\Users\stapi\AppData\Local\Temp\ccq6iSNI.s:62     .text.scan_mgr_list_scanned_devices:0000000000000044 .L0 
C:\Users\stapi\AppData\Local\Temp\ccq6iSNI.s:63     .text.scan_mgr_list_scanned_devices:0000000000000044 .L0 
C:\Users\stapi\AppData\Local\Temp\ccq6iSNI.s:64     .text.scan_mgr_list_scanned_devices:0000000000000044 .L0 
C:\Users\stapi\AppData\Local\Temp\ccq6iSNI.s:65     .text.scan_mgr_list_scanned_devices:0000000000000044 .L0 
C:\Users\stapi\AppData\Local\Temp\ccq6iSNI.s:66     .text.scan_mgr_list_scanned_devices:0000000000000044 .L0 
C:\Users\stapi\AppData\Local\Temp\ccq6iSNI.s:67     .text.scan_mgr_list_scanned_devices:0000000000000044 .L0 
C:\Users\stapi\AppData\Local\Temp\ccq6iSNI.s:68     .text.scan_mgr_list_scanned_devices:0000000000000044 .L0 
C:\Users\stapi\AppData\Local\Temp\ccq6iSNI.s:69     .text.scan_mgr_list_scanned_devices:0000000000000044 .L0 
C:\Users\stapi\AppData\Local\Temp\ccq6iSNI.s:72     .text.scan_mgr_list_scanned_devices:0000000000000044 .L0 
C:\Users\stapi\AppData\Local\Temp\ccq6iSNI.s:74     .text.scan_mgr_list_scanned_devices:0000000000000044 .L0 
C:\Users\stapi\AppData\Local\Temp\ccq6iSNI.s:79     .text.scan_mgr_list_scanned_devices:000000000000004e .L0 
C:\Users\stapi\AppData\Local\Temp\ccq6iSNI.s:82     .text.scan_mgr_list_scanned_devices:0000000000000052 .L0 
C:\Users\stapi\AppData\Local\Temp\ccq6iSNI.s:84     .text.scan_mgr_list_scanned_devices:0000000000000054 .L0 
C:\Users\stapi\AppData\Local\Temp\ccq6iSNI.s:90     .text.scan_mgr_list_scanned_devices:000000000000005e .L0 
C:\Users\stapi\AppData\Local\Temp\ccq6iSNI.s:93     .text.scan_mgr_list_scanned_devices:0000000000000062 .L0 
C:\Users\stapi\AppData\Local\Temp\ccq6iSNI.s:94     .text.scan_mgr_list_scanned_devices:0000000000000062 .L0 
C:\Users\stapi\AppData\Local\Temp\ccq6iSNI.s:95     .text.scan_mgr_list_scanned_devices:0000000000000062 .L0 
C:\Users\stapi\AppData\Local\Temp\ccq6iSNI.s:98     .text.scan_mgr_list_scanned_devices:000000000000006a .L0 
C:\Users\stapi\AppData\Local\Temp\ccq6iSNI.s:111    .text.scan_mgr_list_scanned_devices:0000000000000090 .L0 
C:\Users\stapi\AppData\Local\Temp\ccq6iSNI.s:112    .text.scan_mgr_list_scanned_devices:0000000000000090 .L0 
C:\Users\stapi\AppData\Local\Temp\ccq6iSNI.s:113    .text.scan_mgr_list_scanned_devices:0000000000000090 .L0 
C:\Users\stapi\AppData\Local\Temp\ccq6iSNI.s:116    .text.scan_mgr_list_scanned_devices:0000000000000092 .L0 
C:\Users\stapi\AppData\Local\Temp\ccq6iSNI.s:118    .text.scan_mgr_list_scanned_devices:0000000000000094 .L0 
C:\Users\stapi\AppData\Local\Temp\ccq6iSNI.s:121    .text.scan_mgr_list_scanned_devices:0000000000000098 .L0 
C:\Users\stapi\AppData\Local\Temp\ccq6iSNI.s:123    .text.scan_mgr_list_scanned_devices:000000000000009e .L0 
C:\Users\stapi\AppData\Local\Temp\ccq6iSNI.s:130    .text.scan_mgr_find_dev_by_idx:0000000000000000 scan_mgr_find_dev_by_idx
C:\Users\stapi\AppData\Local\Temp\ccq6iSNI.s:133    .text.scan_mgr_find_dev_by_idx:0000000000000000 .L0 
C:\Users\stapi\AppData\Local\Temp\ccq6iSNI.s:135    .text.scan_mgr_find_dev_by_idx:0000000000000000 .L0 
C:\Users\stapi\AppData\Local\Temp\ccq6iSNI.s:136    .text.scan_mgr_find_dev_by_idx:0000000000000008 .L0 
C:\Users\stapi\AppData\Local\Temp\ccq6iSNI.s:137    .text.scan_mgr_find_dev_by_idx:0000000000000008 .L0 
C:\Users\stapi\AppData\Local\Temp\ccq6iSNI.s:138    .text.scan_mgr_find_dev_by_idx:0000000000000008 .L0 
C:\Users\stapi\AppData\Local\Temp\ccq6iSNI.s:139    .text.scan_mgr_find_dev_by_idx:0000000000000008 .L0 
C:\Users\stapi\AppData\Local\Temp\ccq6iSNI.s:142    .text.scan_mgr_find_dev_by_idx:0000000000000008 .L0 
C:\Users\stapi\AppData\Local\Temp\ccq6iSNI.s:143    .text.scan_mgr_find_dev_by_idx:0000000000000008 .L0 
C:\Users\stapi\AppData\Local\Temp\ccq6iSNI.s:144    .text.scan_mgr_find_dev_by_idx:0000000000000008 .L0 
C:\Users\stapi\AppData\Local\Temp\ccq6iSNI.s:145    .text.scan_mgr_find_dev_by_idx:0000000000000008 .L0 
C:\Users\stapi\AppData\Local\Temp\ccq6iSNI.s:146    .text.scan_mgr_find_dev_by_idx:0000000000000008 .L0 
C:\Users\stapi\AppData\Local\Temp\ccq6iSNI.s:149    .text.scan_mgr_find_dev_by_idx:0000000000000010 .L0 
C:\Users\stapi\AppData\Local\Temp\ccq6iSNI.s:151    .text.scan_mgr_find_dev_by_idx:0000000000000012 .L0 
C:\Users\stapi\AppData\Local\Temp\ccq6iSNI.s:156    .text.scan_mgr_find_dev_by_idx:000000000000001e .L0 
C:\Users\stapi\AppData\Local\Temp\ccq6iSNI.s:158    .text.scan_mgr_find_dev_by_idx:0000000000000020 .L0 
C:\Users\stapi\AppData\Local\Temp\ccq6iSNI.s:163    .text.scan_mgr_find_dev_by_idx:000000000000002a .L0 
C:\Users\stapi\AppData\Local\Temp\ccq6iSNI.s:166    .text.scan_mgr_find_dev_by_idx:000000000000002c .L0 
C:\Users\stapi\AppData\Local\Temp\ccq6iSNI.s:170    .text.scan_mgr_find_dev_by_idx:000000000000002e .L0 
C:\Users\stapi\AppData\Local\Temp\ccq6iSNI.s:174    .text.scan_mgr_find_dev_by_idx:0000000000000032 .L0 
C:\Users\stapi\AppData\Local\Temp\ccq6iSNI.s:177    .text.scan_mgr_find_dev_by_idx:0000000000000034 .L0 
C:\Users\stapi\AppData\Local\Temp\ccq6iSNI.s:178    .text.scan_mgr_find_dev_by_idx:000000000000003c .L0 
C:\Users\stapi\AppData\Local\Temp\ccq6iSNI.s:179    .text.scan_mgr_find_dev_by_idx:000000000000003c .L0 
C:\Users\stapi\AppData\Local\Temp\ccq6iSNI.s:180    .text.scan_mgr_find_dev_by_idx:000000000000003c .L0 
C:\Users\stapi\AppData\Local\Temp\ccq6iSNI.s:181    .text.scan_mgr_find_dev_by_idx:000000000000003c .L0 
C:\Users\stapi\AppData\Local\Temp\ccq6iSNI.s:182    .text.scan_mgr_find_dev_by_idx:000000000000003c .L0 
C:\Users\stapi\AppData\Local\Temp\ccq6iSNI.s:185    .text.scan_mgr_find_dev_by_idx:000000000000003c .L0 
C:\Users\stapi\AppData\Local\Temp\ccq6iSNI.s:187    .text.scan_mgr_find_dev_by_idx:000000000000003c .L0 
C:\Users\stapi\AppData\Local\Temp\ccq6iSNI.s:188    .text.scan_mgr_find_dev_by_idx:000000000000003c .L0 
C:\Users\stapi\AppData\Local\Temp\ccq6iSNI.s:189    .text.scan_mgr_find_dev_by_idx:000000000000003c .L0 
C:\Users\stapi\AppData\Local\Temp\ccq6iSNI.s:191    .text.scan_mgr_find_dev_by_idx:0000000000000040 .L0 
C:\Users\stapi\AppData\Local\Temp\ccq6iSNI.s:192    .text.scan_mgr_find_dev_by_idx:0000000000000040 .L0 
C:\Users\stapi\AppData\Local\Temp\ccq6iSNI.s:195    .text.scan_mgr_find_dev_by_idx:0000000000000042 .L0 
C:\Users\stapi\AppData\Local\Temp\ccq6iSNI.s:198    .text.scan_mgr_find_dev_by_idx:0000000000000044 .L0 
C:\Users\stapi\AppData\Local\Temp\ccq6iSNI.s:201    .text.scan_mgr_find_dev_by_idx:0000000000000048 .L0 
C:\Users\stapi\AppData\Local\Temp\ccq6iSNI.s:203    .text.scan_mgr_find_dev_by_idx:000000000000004c .L0 
C:\Users\stapi\AppData\Local\Temp\ccq6iSNI.s:210    .text.scan_mgr_clear_dev_list:0000000000000000 scan_mgr_clear_dev_list
C:\Users\stapi\AppData\Local\Temp\ccq6iSNI.s:213    .text.scan_mgr_clear_dev_list:0000000000000000 .L0 
C:\Users\stapi\AppData\Local\Temp\ccq6iSNI.s:214    .text.scan_mgr_clear_dev_list:0000000000000000 .L0 
C:\Users\stapi\AppData\Local\Temp\ccq6iSNI.s:215    .text.scan_mgr_clear_dev_list:0000000000000008 .L0 
C:\Users\stapi\AppData\Local\Temp\ccq6iSNI.s:216    .text.scan_mgr_clear_dev_list:0000000000000008 .L0 
C:\Users\stapi\AppData\Local\Temp\ccq6iSNI.s:217    .text.scan_mgr_clear_dev_list:0000000000000008 .L0 
C:\Users\stapi\AppData\Local\Temp\ccq6iSNI.s:218    .text.scan_mgr_clear_dev_list:0000000000000008 .L0 
C:\Users\stapi\AppData\Local\Temp\ccq6iSNI.s:221    .text.scan_mgr_clear_dev_list:0000000000000008 .L0 
C:\Users\stapi\AppData\Local\Temp\ccq6iSNI.s:222    .text.scan_mgr_clear_dev_list:0000000000000008 .L0 
C:\Users\stapi\AppData\Local\Temp\ccq6iSNI.s:223    .text.scan_mgr_clear_dev_list:0000000000000008 .L0 
C:\Users\stapi\AppData\Local\Temp\ccq6iSNI.s:224    .text.scan_mgr_clear_dev_list:0000000000000008 .L0 
C:\Users\stapi\AppData\Local\Temp\ccq6iSNI.s:227    .text.scan_mgr_clear_dev_list:0000000000000010 .L0 
C:\Users\stapi\AppData\Local\Temp\ccq6iSNI.s:228    .text.scan_mgr_clear_dev_list:0000000000000012 .L0 
C:\Users\stapi\AppData\Local\Temp\ccq6iSNI.s:230    .text.scan_mgr_clear_dev_list:0000000000000012 .L0 
C:\Users\stapi\AppData\Local\Temp\ccq6iSNI.s:234    .text.scan_mgr_clear_dev_list:000000000000001e .L0 
C:\Users\stapi\AppData\Local\Temp\ccq6iSNI.s:238    .text.scan_mgr_clear_dev_list:0000000000000020 .L0 
C:\Users\stapi\AppData\Local\Temp\ccq6iSNI.s:243    .text.scan_mgr_clear_dev_list:000000000000002a .L0 
C:\Users\stapi\AppData\Local\Temp\ccq6iSNI.s:247    .text.scan_mgr_clear_dev_list:000000000000002c .L0 
C:\Users\stapi\AppData\Local\Temp\ccq6iSNI.s:253    .text.scan_mgr_clear_dev_list:0000000000000030 .L0 
C:\Users\stapi\AppData\Local\Temp\ccq6iSNI.s:254    .text.scan_mgr_clear_dev_list:0000000000000032 .L0 
C:\Users\stapi\AppData\Local\Temp\ccq6iSNI.s:255    .text.scan_mgr_clear_dev_list:0000000000000032 .L0 
C:\Users\stapi\AppData\Local\Temp\ccq6iSNI.s:257    .text.scan_mgr_clear_dev_list:000000000000003a .L0 
C:\Users\stapi\AppData\Local\Temp\ccq6iSNI.s:258    .text.scan_mgr_clear_dev_list:000000000000003a .L0 
C:\Users\stapi\AppData\Local\Temp\ccq6iSNI.s:259    .text.scan_mgr_clear_dev_list:000000000000003a .L0 
C:\Users\stapi\AppData\Local\Temp\ccq6iSNI.s:260    .text.scan_mgr_clear_dev_list:000000000000003a .L0 
C:\Users\stapi\AppData\Local\Temp\ccq6iSNI.s:263    .text.scan_mgr_clear_dev_list:000000000000003a .L0 
C:\Users\stapi\AppData\Local\Temp\ccq6iSNI.s:267    .text.scan_mgr_clear_dev_list:000000000000003a .L0 
C:\Users\stapi\AppData\Local\Temp\ccq6iSNI.s:268    .text.scan_mgr_clear_dev_list:000000000000003a .L0 
C:\Users\stapi\AppData\Local\Temp\ccq6iSNI.s:272    .text.scan_mgr_clear_dev_list:0000000000000044 .L0 
C:\Users\stapi\AppData\Local\Temp\ccq6iSNI.s:276    .text.scan_mgr_clear_dev_list:000000000000004e .L0 
C:\Users\stapi\AppData\Local\Temp\ccq6iSNI.s:282    .text.scan_mgr_clear_dev_list:0000000000000054 .L0 
C:\Users\stapi\AppData\Local\Temp\ccq6iSNI.s:301    .text.ble_app_scan_mgr_evt_handler:0000000000000000 ble_app_scan_mgr_evt_handler
C:\Users\stapi\AppData\Local\Temp\ccq6iSNI.s:304    .text.ble_app_scan_mgr_evt_handler:0000000000000000 .L0 
C:\Users\stapi\AppData\Local\Temp\ccq6iSNI.s:306    .text.ble_app_scan_mgr_evt_handler:0000000000000000 .L0 
C:\Users\stapi\AppData\Local\Temp\ccq6iSNI.s:307    .text.ble_app_scan_mgr_evt_handler:0000000000000008 .L0 
C:\Users\stapi\AppData\Local\Temp\ccq6iSNI.s:308    .text.ble_app_scan_mgr_evt_handler:0000000000000008 .L0 
C:\Users\stapi\AppData\Local\Temp\ccq6iSNI.s:309    .text.ble_app_scan_mgr_evt_handler:0000000000000008 .L0 
C:\Users\stapi\AppData\Local\Temp\ccq6iSNI.s:310    .text.ble_app_scan_mgr_evt_handler:0000000000000008 .L0 
C:\Users\stapi\AppData\Local\Temp\ccq6iSNI.s:311    .text.ble_app_scan_mgr_evt_handler:0000000000000008 .L0 
C:\Users\stapi\AppData\Local\Temp\ccq6iSNI.s:312    .text.ble_app_scan_mgr_evt_handler:0000000000000008 .L0 
C:\Users\stapi\AppData\Local\Temp\ccq6iSNI.s:313    .text.ble_app_scan_mgr_evt_handler:0000000000000008 .L0 
C:\Users\stapi\AppData\Local\Temp\ccq6iSNI.s:314    .text.ble_app_scan_mgr_evt_handler:0000000000000008 .L0 
C:\Users\stapi\AppData\Local\Temp\ccq6iSNI.s:316    .text.ble_app_scan_mgr_evt_handler:0000000000000008 .L0 
C:\Users\stapi\AppData\Local\Temp\ccq6iSNI.s:317    .text.ble_app_scan_mgr_evt_handler:0000000000000008 .L0 
C:\Users\stapi\AppData\Local\Temp\ccq6iSNI.s:318    .text.ble_app_scan_mgr_evt_handler:000000000000000a .L0 
C:\Users\stapi\AppData\Local\Temp\ccq6iSNI.s:320    .text.ble_app_scan_mgr_evt_handler:000000000000000a .L0 
C:\Users\stapi\AppData\Local\Temp\ccq6iSNI.s:326    .text.ble_app_scan_mgr_evt_handler:0000000000000012 .L0 
C:\Users\stapi\AppData\Local\Temp\ccq6iSNI.s:327    .text.ble_app_scan_mgr_evt_handler:0000000000000014 .L0 
C:\Users\stapi\AppData\Local\Temp\ccq6iSNI.s:328    .text.ble_app_scan_mgr_evt_handler:0000000000000014 .L0 
C:\Users\stapi\AppData\Local\Temp\ccq6iSNI.s:330    .text.ble_app_scan_mgr_evt_handler:000000000000001c .L0 
C:\Users\stapi\AppData\Local\Temp\ccq6iSNI.s:331    .text.ble_app_scan_mgr_evt_handler:000000000000001c .L0 
C:\Users\stapi\AppData\Local\Temp\ccq6iSNI.s:332    .text.ble_app_scan_mgr_evt_handler:000000000000001c .L0 
C:\Users\stapi\AppData\Local\Temp\ccq6iSNI.s:333    .text.ble_app_scan_mgr_evt_handler:000000000000001c .L0 
C:\Users\stapi\AppData\Local\Temp\ccq6iSNI.s:334    .text.ble_app_scan_mgr_evt_handler:000000000000001c .L0 
C:\Users\stapi\AppData\Local\Temp\ccq6iSNI.s:335    .text.ble_app_scan_mgr_evt_handler:000000000000001c .L0 
C:\Users\stapi\AppData\Local\Temp\ccq6iSNI.s:336    .text.ble_app_scan_mgr_evt_handler:000000000000001c .L0 
C:\Users\stapi\AppData\Local\Temp\ccq6iSNI.s:337    .text.ble_app_scan_mgr_evt_handler:000000000000001c .L0 
C:\Users\stapi\AppData\Local\Temp\ccq6iSNI.s:340    .text.ble_app_scan_mgr_evt_handler:000000000000001c .L0 
C:\Users\stapi\AppData\Local\Temp\ccq6iSNI.s:344    .text.ble_app_scan_mgr_evt_handler:000000000000001c .L0 
C:\Users\stapi\AppData\Local\Temp\ccq6iSNI.s:345    .text.ble_app_scan_mgr_evt_handler:000000000000001c .L0 
C:\Users\stapi\AppData\Local\Temp\ccq6iSNI.s:347    .text.ble_app_scan_mgr_evt_handler:000000000000001e .L0 
C:\Users\stapi\AppData\Local\Temp\ccq6iSNI.s:350    .text.ble_app_scan_mgr_evt_handler:0000000000000024 .L0 
C:\Users\stapi\AppData\Local\Temp\ccq6iSNI.s:351    .text.ble_app_scan_mgr_evt_handler:0000000000000024 .L0 
C:\Users\stapi\AppData\Local\Temp\ccq6iSNI.s:355    .text.ble_app_scan_mgr_evt_handler:0000000000000030 .L0 
C:\Users\stapi\AppData\Local\Temp\ccq6iSNI.s:362    .text.ble_app_scan_mgr_evt_handler:000000000000003c .L0 
C:\Users\stapi\AppData\Local\Temp\ccq6iSNI.s:368    .text.ble_app_scan_mgr_evt_handler:0000000000000046 .L0 
C:\Users\stapi\AppData\Local\Temp\ccq6iSNI.s:369    .text.ble_app_scan_mgr_evt_handler:0000000000000046 .L0 
C:\Users\stapi\AppData\Local\Temp\ccq6iSNI.s:372    .text.ble_app_scan_mgr_evt_handler:000000000000004c .L0 
C:\Users\stapi\AppData\Local\Temp\ccq6iSNI.s:378    .text.ble_app_scan_mgr_evt_handler:0000000000000056 .L0 
C:\Users\stapi\AppData\Local\Temp\ccq6iSNI.s:379    .text.ble_app_scan_mgr_evt_handler:0000000000000056 .L0 
C:\Users\stapi\AppData\Local\Temp\ccq6iSNI.s:381    .text.ble_app_scan_mgr_evt_handler:0000000000000058 .L0 
C:\Users\stapi\AppData\Local\Temp\ccq6iSNI.s:382    .text.ble_app_scan_mgr_evt_handler:0000000000000058 .L0 
C:\Users\stapi\AppData\Local\Temp\ccq6iSNI.s:386    .text.ble_app_scan_mgr_evt_handler:0000000000000064 .L0 
C:\Users\stapi\AppData\Local\Temp\ccq6iSNI.s:397    .text.ble_app_scan_mgr_evt_handler:0000000000000072 .L0 
C:\Users\stapi\AppData\Local\Temp\ccq6iSNI.s:402    .text.ble_app_scan_mgr_evt_handler:0000000000000074 .L0 
C:\Users\stapi\AppData\Local\Temp\ccq6iSNI.s:403    .text.ble_app_scan_mgr_evt_handler:0000000000000074 .L0 
C:\Users\stapi\AppData\Local\Temp\ccq6iSNI.s:404    .text.ble_app_scan_mgr_evt_handler:0000000000000074 .L0 
C:\Users\stapi\AppData\Local\Temp\ccq6iSNI.s:405    .text.ble_app_scan_mgr_evt_handler:0000000000000074 .L0 
C:\Users\stapi\AppData\Local\Temp\ccq6iSNI.s:413    .text.ble_app_scan_mgr_evt_handler:000000000000007a .L0 
C:\Users\stapi\AppData\Local\Temp\ccq6iSNI.s:417    .text.ble_app_scan_mgr_evt_handler:000000000000007e .L0 
C:\Users\stapi\AppData\Local\Temp\ccq6iSNI.s:423    .text.ble_app_scan_mgr_evt_handler:0000000000000088 .L0 
C:\Users\stapi\AppData\Local\Temp\ccq6iSNI.s:424    .text.ble_app_scan_mgr_evt_handler:0000000000000088 .L0 
C:\Users\stapi\AppData\Local\Temp\ccq6iSNI.s:425    .text.ble_app_scan_mgr_evt_handler:0000000000000088 .L0 
C:\Users\stapi\AppData\Local\Temp\ccq6iSNI.s:426    .text.ble_app_scan_mgr_evt_handler:0000000000000088 .L0 
C:\Users\stapi\AppData\Local\Temp\ccq6iSNI.s:427    .text.ble_app_scan_mgr_evt_handler:0000000000000088 .L0 
C:\Users\stapi\AppData\Local\Temp\ccq6iSNI.s:435    .text.ble_app_scan_mgr_evt_handler:00000000000000a2 .L0 
C:\Users\stapi\AppData\Local\Temp\ccq6iSNI.s:437    .text.ble_app_scan_mgr_evt_handler:00000000000000a4 .L0 
C:\Users\stapi\AppData\Local\Temp\ccq6iSNI.s:439    .text.ble_app_scan_mgr_evt_handler:00000000000000a6 .L0 
C:\Users\stapi\AppData\Local\Temp\ccq6iSNI.s:442    .text.ble_app_scan_mgr_evt_handler:00000000000000aa .L0 
C:\Users\stapi\AppData\Local\Temp\ccq6iSNI.s:444    .text.ble_app_scan_mgr_evt_handler:00000000000000ae .L0 
C:\Users\stapi\AppData\Local\Temp\ccq6iSNI.s:448    .text.ble_app_scan_mgr_evt_handler:00000000000000b2 .L0 
C:\Users\stapi\AppData\Local\Temp\ccq6iSNI.s:450    .text.ble_app_scan_mgr_evt_handler:00000000000000b6 .L0 
C:\Users\stapi\AppData\Local\Temp\ccq6iSNI.s:456    .text.ble_app_scan_mgr_evt_handler:00000000000000b8 .L0 
C:\Users\stapi\AppData\Local\Temp\ccq6iSNI.s:457    .text.ble_app_scan_mgr_evt_handler:00000000000000b8 .L0 
C:\Users\stapi\AppData\Local\Temp\ccq6iSNI.s:459    .text.ble_app_scan_mgr_evt_handler:00000000000000bc .L0 
C:\Users\stapi\AppData\Local\Temp\ccq6iSNI.s:461    .text.ble_app_scan_mgr_evt_handler:00000000000000be .L0 
C:\Users\stapi\AppData\Local\Temp\ccq6iSNI.s:467    .text.ble_app_scan_mgr_evt_handler:00000000000000ce .L0 
C:\Users\stapi\AppData\Local\Temp\ccq6iSNI.s:468    .text.ble_app_scan_mgr_evt_handler:00000000000000ce .L0 
C:\Users\stapi\AppData\Local\Temp\ccq6iSNI.s:470    .text.ble_app_scan_mgr_evt_handler:00000000000000d0 .L0 
C:\Users\stapi\AppData\Local\Temp\ccq6iSNI.s:473    .text.ble_app_scan_mgr_evt_handler:00000000000000d6 .L0 
C:\Users\stapi\AppData\Local\Temp\ccq6iSNI.s:477    .text.ble_app_scan_mgr_evt_handler:00000000000000dc .L0 
C:\Users\stapi\AppData\Local\Temp\ccq6iSNI.s:478    .text.ble_app_scan_mgr_evt_handler:00000000000000dc .L0 
C:\Users\stapi\AppData\Local\Temp\ccq6iSNI.s:487    .text.ble_app_scan_mgr_evt_handler:00000000000000f2 .L0 
C:\Users\stapi\AppData\Local\Temp\ccq6iSNI.s:488    .text.ble_app_scan_mgr_evt_handler:00000000000000f2 .L0 
C:\Users\stapi\AppData\Local\Temp\ccq6iSNI.s:490    .text.ble_app_scan_mgr_evt_handler:00000000000000f4 .L0 
C:\Users\stapi\AppData\Local\Temp\ccq6iSNI.s:491    .text.ble_app_scan_mgr_evt_handler:00000000000000f4 .L0 
C:\Users\stapi\AppData\Local\Temp\ccq6iSNI.s:501    .text.ble_app_scan_mgr_evt_handler:000000000000010a .L0 
C:\Users\stapi\AppData\Local\Temp\ccq6iSNI.s:502    .text.ble_app_scan_mgr_evt_handler:000000000000010a .L0 
C:\Users\stapi\AppData\Local\Temp\ccq6iSNI.s:505    .text.ble_app_scan_mgr_evt_handler:000000000000010c .L0 
C:\Users\stapi\AppData\Local\Temp\ccq6iSNI.s:506    .text.ble_app_scan_mgr_evt_handler:000000000000010c .L0 
C:\Users\stapi\AppData\Local\Temp\ccq6iSNI.s:508    .text.ble_app_scan_mgr_evt_handler:0000000000000110 .L0 
C:\Users\stapi\AppData\Local\Temp\ccq6iSNI.s:517    .text.ble_app_scan_mgr_evt_handler:0000000000000122 .L0 
C:\Users\stapi\AppData\Local\Temp\ccq6iSNI.s:518    .text.ble_app_scan_mgr_evt_handler:0000000000000122 .L0 
C:\Users\stapi\AppData\Local\Temp\ccq6iSNI.s:524    .text.ble_app_scan_mgr_evt_handler:0000000000000126 .L0 
C:\Users\stapi\AppData\Local\Temp\ccq6iSNI.s:525    .text.ble_app_scan_mgr_evt_handler:0000000000000126 .L0 
C:\Users\stapi\AppData\Local\Temp\ccq6iSNI.s:526    .text.ble_app_scan_mgr_evt_handler:0000000000000126 .L0 
C:\Users\stapi\AppData\Local\Temp\ccq6iSNI.s:527    .text.ble_app_scan_mgr_evt_handler:0000000000000126 .L0 
C:\Users\stapi\AppData\Local\Temp\ccq6iSNI.s:533    .text.ble_app_scan_mgr_evt_handler:0000000000000132 .L0 
C:\Users\stapi\AppData\Local\Temp\ccq6iSNI.s:534    .text.ble_app_scan_mgr_evt_handler:0000000000000132 .L0 
C:\Users\stapi\AppData\Local\Temp\ccq6iSNI.s:536    .text.ble_app_scan_mgr_evt_handler:0000000000000136 .L0 
C:\Users\stapi\AppData\Local\Temp\ccq6iSNI.s:538    .text.ble_app_scan_mgr_evt_handler:0000000000000138 .L0 
C:\Users\stapi\AppData\Local\Temp\ccq6iSNI.s:545    .text.ble_app_scan_mgr_evt_handler:000000000000014a .L0 
C:\Users\stapi\AppData\Local\Temp\ccq6iSNI.s:546    .text.ble_app_scan_mgr_evt_handler:000000000000014a .L0 
C:\Users\stapi\AppData\Local\Temp\ccq6iSNI.s:547    .text.ble_app_scan_mgr_evt_handler:000000000000014a .L0 
C:\Users\stapi\AppData\Local\Temp\ccq6iSNI.s:550    .text.ble_app_scan_mgr_evt_handler:0000000000000150 .L0 
C:\Users\stapi\AppData\Local\Temp\ccq6iSNI.s:552    .text.ble_app_scan_mgr_evt_handler:0000000000000152 .L0 
C:\Users\stapi\AppData\Local\Temp\ccq6iSNI.s:554    .text.ble_app_scan_mgr_evt_handler:0000000000000154 .L0 
C:\Users\stapi\AppData\Local\Temp\ccq6iSNI.s:555    .text.ble_app_scan_mgr_evt_handler:0000000000000154 .L0 
C:\Users\stapi\AppData\Local\Temp\ccq6iSNI.s:556    .text.ble_app_scan_mgr_evt_handler:0000000000000154 .L0 
C:\Users\stapi\AppData\Local\Temp\ccq6iSNI.s:559    .text.ble_app_scan_mgr_evt_handler:000000000000015c .L0 
C:\Users\stapi\AppData\Local\Temp\ccq6iSNI.s:566    .text.ble_app_scan_mgr_evt_handler:0000000000000168 .L0 
C:\Users\stapi\AppData\Local\Temp\ccq6iSNI.s:567    .text.ble_app_scan_mgr_evt_handler:0000000000000168 .L0 
C:\Users\stapi\AppData\Local\Temp\ccq6iSNI.s:568    .text.ble_app_scan_mgr_evt_handler:0000000000000168 .L0 
C:\Users\stapi\AppData\Local\Temp\ccq6iSNI.s:569    .text.ble_app_scan_mgr_evt_handler:0000000000000168 .L0 
C:\Users\stapi\AppData\Local\Temp\ccq6iSNI.s:570    .text.ble_app_scan_mgr_evt_handler:0000000000000168 .L0 
C:\Users\stapi\AppData\Local\Temp\ccq6iSNI.s:574    .text.ble_app_scan_mgr_evt_handler:0000000000000172 .L0 
C:\Users\stapi\AppData\Local\Temp\ccq6iSNI.s:576    .text.ble_app_scan_mgr_evt_handler:0000000000000174 .L0 
C:\Users\stapi\AppData\Local\Temp\ccq6iSNI.s:578    .text.ble_app_scan_mgr_evt_handler:0000000000000176 .L0 
C:\Users\stapi\AppData\Local\Temp\ccq6iSNI.s:584    .text.ble_app_scan_mgr_evt_handler:000000000000017c .L0 
C:\Users\stapi\AppData\Local\Temp\ccq6iSNI.s:590    .text.ble_app_scan_mgr_evt_handler:0000000000000180 .L0 
C:\Users\stapi\AppData\Local\Temp\ccq6iSNI.s:597    .text.ble_app_scan_mgr_evt_handler:0000000000000186 .L0 
C:\Users\stapi\AppData\Local\Temp\ccq6iSNI.s:598    .text.ble_app_scan_mgr_evt_handler:0000000000000186 .L0 
C:\Users\stapi\AppData\Local\Temp\ccq6iSNI.s:604    .text.ble_app_scan_mgr_evt_handler:0000000000000192 .L0 
C:\Users\stapi\AppData\Local\Temp\ccq6iSNI.s:605    .text.ble_app_scan_mgr_evt_handler:0000000000000192 .L0 
C:\Users\stapi\AppData\Local\Temp\ccq6iSNI.s:607    .text.ble_app_scan_mgr_evt_handler:0000000000000196 .L0 
C:\Users\stapi\AppData\Local\Temp\ccq6iSNI.s:609    .text.ble_app_scan_mgr_evt_handler:000000000000019a .L0 
C:\Users\stapi\AppData\Local\Temp\ccq6iSNI.s:611    .text.ble_app_scan_mgr_evt_handler:000000000000019e .L0 
C:\Users\stapi\AppData\Local\Temp\ccq6iSNI.s:613    .text.ble_app_scan_mgr_evt_handler:00000000000001a2 .L0 
C:\Users\stapi\AppData\Local\Temp\ccq6iSNI.s:615    .text.ble_app_scan_mgr_evt_handler:00000000000001a6 .L0 
C:\Users\stapi\AppData\Local\Temp\ccq6iSNI.s:616    .text.ble_app_scan_mgr_evt_handler:00000000000001a6 .L0 
C:\Users\stapi\AppData\Local\Temp\ccq6iSNI.s:617    .text.ble_app_scan_mgr_evt_handler:00000000000001a6 .L0 
C:\Users\stapi\AppData\Local\Temp\ccq6iSNI.s:620    .text.ble_app_scan_mgr_evt_handler:00000000000001ac .L0 
C:\Users\stapi\AppData\Local\Temp\ccq6iSNI.s:642    .text.ble_app_scan_mgr_evt_handler:00000000000001ee .L0 
C:\Users\stapi\AppData\Local\Temp\ccq6iSNI.s:643    .text.ble_app_scan_mgr_evt_handler:00000000000001ee .L0 
C:\Users\stapi\AppData\Local\Temp\ccq6iSNI.s:644    .text.ble_app_scan_mgr_evt_handler:00000000000001ee .L0 
C:\Users\stapi\AppData\Local\Temp\ccq6iSNI.s:651    .text.ble_app_scan_mgr_evt_handler:00000000000001f6 .L0 
C:\Users\stapi\AppData\Local\Temp\ccq6iSNI.s:659    .text.ble_app_scan_mgr_evt_handler:00000000000001f8 .L0 
C:\Users\stapi\AppData\Local\Temp\ccq6iSNI.s:660    .text.ble_app_scan_mgr_evt_handler:00000000000001f8 .L0 
C:\Users\stapi\AppData\Local\Temp\ccq6iSNI.s:661    .text.ble_app_scan_mgr_evt_handler:00000000000001f8 .L0 
C:\Users\stapi\AppData\Local\Temp\ccq6iSNI.s:665    .text.ble_app_scan_mgr_evt_handler:0000000000000204 .L0 
C:\Users\stapi\AppData\Local\Temp\ccq6iSNI.s:671    .text.ble_app_scan_mgr_evt_handler:0000000000000214 .L0 
C:\Users\stapi\AppData\Local\Temp\ccq6iSNI.s:675    .text.ble_app_scan_mgr_evt_handler:0000000000000218 .L0 
C:\Users\stapi\AppData\Local\Temp\ccq6iSNI.s:690    .text.ble_app_scan_mgr_evt_handler:0000000000000220 .L0 
C:\Users\stapi\AppData\Local\Temp\ccq6iSNI.s:691    .text.ble_app_scan_mgr_evt_handler:0000000000000220 .L0 
C:\Users\stapi\AppData\Local\Temp\ccq6iSNI.s:694    .text.ble_app_scan_mgr_evt_handler:0000000000000222 .L0 
C:\Users\stapi\AppData\Local\Temp\ccq6iSNI.s:697    .text.ble_app_scan_mgr_evt_handler:0000000000000224 .L0 
C:\Users\stapi\AppData\Local\Temp\ccq6iSNI.s:700    .text.ble_app_scan_mgr_evt_handler:0000000000000228 .L0 
C:\Users\stapi\AppData\Local\Temp\ccq6iSNI.s:710    .text.ble_app_scan_mgr_evt_handler:000000000000022c .L0 
C:\Users\stapi\AppData\Local\Temp\ccq6iSNI.s:711    .text.ble_app_scan_mgr_evt_handler:000000000000022c .L0 
C:\Users\stapi\AppData\Local\Temp\ccq6iSNI.s:714    .text.ble_app_scan_mgr_evt_handler:0000000000000232 .L0 
C:\Users\stapi\AppData\Local\Temp\ccq6iSNI.s:717    .text.ble_app_scan_mgr_evt_handler:0000000000000236 .L0 
C:\Users\stapi\AppData\Local\Temp\ccq6iSNI.s:721    .text.ble_app_scan_mgr_evt_handler:000000000000023c .L0 
C:\Users\stapi\AppData\Local\Temp\ccq6iSNI.s:722    .text.ble_app_scan_mgr_evt_handler:000000000000023c .L0 
C:\Users\stapi\AppData\Local\Temp\ccq6iSNI.s:727    .text.ble_app_scan_mgr_evt_handler:000000000000024a .L0 
C:\Users\stapi\AppData\Local\Temp\ccq6iSNI.s:749    .text.ble_app_scan_mgr_evt_handler:000000000000028e .L0 
C:\Users\stapi\AppData\Local\Temp\ccq6iSNI.s:760    .text.app_scan_enable:0000000000000000 app_scan_enable
C:\Users\stapi\AppData\Local\Temp\ccq6iSNI.s:763    .text.app_scan_enable:0000000000000000 .L0 
C:\Users\stapi\AppData\Local\Temp\ccq6iSNI.s:765    .text.app_scan_enable:0000000000000000 .L0 
C:\Users\stapi\AppData\Local\Temp\ccq6iSNI.s:766    .text.app_scan_enable:0000000000000008 .L0 
C:\Users\stapi\AppData\Local\Temp\ccq6iSNI.s:767    .text.app_scan_enable:0000000000000008 .L0 
C:\Users\stapi\AppData\Local\Temp\ccq6iSNI.s:768    .text.app_scan_enable:0000000000000008 .L0 
C:\Users\stapi\AppData\Local\Temp\ccq6iSNI.s:770    .text.app_scan_enable:0000000000000008 .L0 
C:\Users\stapi\AppData\Local\Temp\ccq6iSNI.s:771    .text.app_scan_enable:0000000000000008 .L0 
C:\Users\stapi\AppData\Local\Temp\ccq6iSNI.s:773    .text.app_scan_enable:000000000000000a .L0 
C:\Users\stapi\AppData\Local\Temp\ccq6iSNI.s:776    .text.app_scan_enable:0000000000000012 .L0 
C:\Users\stapi\AppData\Local\Temp\ccq6iSNI.s:778    .text.app_scan_enable:0000000000000014 .L0 
C:\Users\stapi\AppData\Local\Temp\ccq6iSNI.s:779    .text.app_scan_enable:0000000000000014 .L0 
C:\Users\stapi\AppData\Local\Temp\ccq6iSNI.s:784    .text.app_scan_enable:0000000000000022 .L0 
C:\Users\stapi\AppData\Local\Temp\ccq6iSNI.s:790    .text.app_scan_enable:0000000000000032 .L0 
C:\Users\stapi\AppData\Local\Temp\ccq6iSNI.s:791    .text.app_scan_enable:000000000000003a .L0 
C:\Users\stapi\AppData\Local\Temp\ccq6iSNI.s:792    .text.app_scan_enable:000000000000003a .L0 
C:\Users\stapi\AppData\Local\Temp\ccq6iSNI.s:793    .text.app_scan_enable:000000000000003a .L0 
C:\Users\stapi\AppData\Local\Temp\ccq6iSNI.s:794    .text.app_scan_enable:000000000000003a .L0 
C:\Users\stapi\AppData\Local\Temp\ccq6iSNI.s:796    .text.app_scan_enable:000000000000003a .L0 
C:\Users\stapi\AppData\Local\Temp\ccq6iSNI.s:798    .text.app_scan_enable:000000000000003a .L0 
C:\Users\stapi\AppData\Local\Temp\ccq6iSNI.s:799    .text.app_scan_enable:000000000000003a .L0 
C:\Users\stapi\AppData\Local\Temp\ccq6iSNI.s:802    .text.app_scan_enable:0000000000000044 .L0 
C:\Users\stapi\AppData\Local\Temp\ccq6iSNI.s:813    .text.app_scan_disable:0000000000000000 app_scan_disable
C:\Users\stapi\AppData\Local\Temp\ccq6iSNI.s:816    .text.app_scan_disable:0000000000000000 .L0 
C:\Users\stapi\AppData\Local\Temp\ccq6iSNI.s:817    .text.app_scan_disable:0000000000000000 .L0 
C:\Users\stapi\AppData\Local\Temp\ccq6iSNI.s:818    .text.app_scan_disable:0000000000000008 .L0 
C:\Users\stapi\AppData\Local\Temp\ccq6iSNI.s:819    .text.app_scan_disable:0000000000000008 .L0 
C:\Users\stapi\AppData\Local\Temp\ccq6iSNI.s:821    .text.app_scan_disable:0000000000000008 .L0 
C:\Users\stapi\AppData\Local\Temp\ccq6iSNI.s:822    .text.app_scan_disable:0000000000000008 .L0 
C:\Users\stapi\AppData\Local\Temp\ccq6iSNI.s:825    .text.app_scan_disable:0000000000000010 .L0 
C:\Users\stapi\AppData\Local\Temp\ccq6iSNI.s:827    .text.app_scan_disable:0000000000000012 .L0 
C:\Users\stapi\AppData\Local\Temp\ccq6iSNI.s:828    .text.app_scan_disable:0000000000000012 .L0 
C:\Users\stapi\AppData\Local\Temp\ccq6iSNI.s:833    .text.app_scan_disable:0000000000000020 .L0 
C:\Users\stapi\AppData\Local\Temp\ccq6iSNI.s:839    .text.app_scan_disable:0000000000000030 .L0 
C:\Users\stapi\AppData\Local\Temp\ccq6iSNI.s:840    .text.app_scan_disable:0000000000000038 .L0 
C:\Users\stapi\AppData\Local\Temp\ccq6iSNI.s:841    .text.app_scan_disable:0000000000000038 .L0 
C:\Users\stapi\AppData\Local\Temp\ccq6iSNI.s:842    .text.app_scan_disable:0000000000000038 .L0 
C:\Users\stapi\AppData\Local\Temp\ccq6iSNI.s:844    .text.app_scan_disable:0000000000000038 .L0 
C:\Users\stapi\AppData\Local\Temp\ccq6iSNI.s:846    .text.app_scan_disable:0000000000000038 .L0 
C:\Users\stapi\AppData\Local\Temp\ccq6iSNI.s:847    .text.app_scan_disable:0000000000000038 .L0 
C:\Users\stapi\AppData\Local\Temp\ccq6iSNI.s:850    .text.app_scan_disable:0000000000000042 .L0 
C:\Users\stapi\AppData\Local\Temp\ccq6iSNI.s:861    .text.app_scan_mgr_reset:0000000000000000 app_scan_mgr_reset
C:\Users\stapi\AppData\Local\Temp\ccq6iSNI.s:864    .text.app_scan_mgr_reset:0000000000000000 .L0 
C:\Users\stapi\AppData\Local\Temp\ccq6iSNI.s:865    .text.app_scan_mgr_reset:0000000000000000 .L0 
C:\Users\stapi\AppData\Local\Temp\ccq6iSNI.s:866    .text.app_scan_mgr_reset:0000000000000008 .L0 
C:\Users\stapi\AppData\Local\Temp\ccq6iSNI.s:867    .text.app_scan_mgr_reset:0000000000000008 .L0 
C:\Users\stapi\AppData\Local\Temp\ccq6iSNI.s:869    .text.app_scan_mgr_reset:0000000000000008 .L0 
C:\Users\stapi\AppData\Local\Temp\ccq6iSNI.s:872    .text.app_scan_mgr_reset:0000000000000010 .L0 
C:\Users\stapi\AppData\Local\Temp\ccq6iSNI.s:873    .text.app_scan_mgr_reset:0000000000000010 .L0 
C:\Users\stapi\AppData\Local\Temp\ccq6iSNI.s:875    .text.app_scan_mgr_reset:0000000000000014 .L0 
C:\Users\stapi\AppData\Local\Temp\ccq6iSNI.s:877    .text.app_scan_mgr_reset:0000000000000016 .L0 
C:\Users\stapi\AppData\Local\Temp\ccq6iSNI.s:879    .text.app_scan_mgr_reset:000000000000001a .L0 
C:\Users\stapi\AppData\Local\Temp\ccq6iSNI.s:880    .text.app_scan_mgr_reset:000000000000001a .L0 
C:\Users\stapi\AppData\Local\Temp\ccq6iSNI.s:883    .text.app_scan_mgr_reset:0000000000000022 .L0 
C:\Users\stapi\AppData\Local\Temp\ccq6iSNI.s:885    .text.app_scan_mgr_reset:0000000000000024 .L0 
C:\Users\stapi\AppData\Local\Temp\ccq6iSNI.s:886    .text.app_scan_mgr_reset:0000000000000024 .L0 
C:\Users\stapi\AppData\Local\Temp\ccq6iSNI.s:891    .text.app_scan_mgr_reset:0000000000000032 .L0 
C:\Users\stapi\AppData\Local\Temp\ccq6iSNI.s:897    .text.app_scan_mgr_reset:0000000000000042 .L0 
C:\Users\stapi\AppData\Local\Temp\ccq6iSNI.s:898    .text.app_scan_mgr_reset:0000000000000042 .L0 
C:\Users\stapi\AppData\Local\Temp\ccq6iSNI.s:899    .text.app_scan_mgr_reset:000000000000004a .L0 
C:\Users\stapi\AppData\Local\Temp\ccq6iSNI.s:900    .text.app_scan_mgr_reset:000000000000004a .L0 
C:\Users\stapi\AppData\Local\Temp\ccq6iSNI.s:901    .text.app_scan_mgr_reset:000000000000004a .L0 
C:\Users\stapi\AppData\Local\Temp\ccq6iSNI.s:908    .text.app_scan_mgr_init:0000000000000000 app_scan_mgr_init
C:\Users\stapi\AppData\Local\Temp\ccq6iSNI.s:911    .text.app_scan_mgr_init:0000000000000000 .L0 
C:\Users\stapi\AppData\Local\Temp\ccq6iSNI.s:912    .text.app_scan_mgr_init:0000000000000000 .L0 
C:\Users\stapi\AppData\Local\Temp\ccq6iSNI.s:913    .text.app_scan_mgr_init:0000000000000000 .L0 
C:\Users\stapi\AppData\Local\Temp\ccq6iSNI.s:916    .text.app_scan_mgr_init:0000000000000008 .L0 
C:\Users\stapi\AppData\Local\Temp\ccq6iSNI.s:918    .text.app_scan_mgr_init:000000000000000c .L0 
C:\Users\stapi\AppData\Local\Temp\ccq6iSNI.s:920    .text.app_scan_mgr_init:0000000000000010 .L0 
C:\Users\stapi\AppData\Local\Temp\ccq6iSNI.s:922    .text.app_scan_mgr_init:0000000000000014 .L0 
C:\Users\stapi\AppData\Local\Temp\ccq6iSNI.s:923    .text.app_scan_mgr_init:0000000000000014 .L0 
C:\Users\stapi\AppData\Local\Temp\ccq6iSNI.s:924    .text.app_scan_mgr_init:0000000000000014 .L0 
C:\Users\stapi\AppData\Local\Temp\ccq6iSNI.s:926    .text.app_scan_mgr_init:0000000000000018 .L0 
C:\Users\stapi\AppData\Local\Temp\ccq6iSNI.s:928    .text.app_scan_mgr_init:000000000000001a .L0 
C:\Users\stapi\AppData\Local\Temp\ccq6iSNI.s:930    .text.app_scan_mgr_init:000000000000001c .L0 
C:\Users\stapi\AppData\Local\Temp\ccq6iSNI.s:931    .text.app_scan_mgr_init:000000000000001c .L0 
C:\Users\stapi\AppData\Local\Temp\ccq6iSNI.s:933    .text.app_scan_mgr_init:0000000000000024 .L0 
C:\Users\stapi\AppData\Local\Temp\ccq6iSNI.s:940    .text.app_scan_mgr_deinit:0000000000000000 app_scan_mgr_deinit
C:\Users\stapi\AppData\Local\Temp\ccq6iSNI.s:943    .text.app_scan_mgr_deinit:0000000000000000 .L0 
C:\Users\stapi\AppData\Local\Temp\ccq6iSNI.s:944    .text.app_scan_mgr_deinit:0000000000000000 .L0 
C:\Users\stapi\AppData\Local\Temp\ccq6iSNI.s:945    .text.app_scan_mgr_deinit:0000000000000008 .L0 
C:\Users\stapi\AppData\Local\Temp\ccq6iSNI.s:946    .text.app_scan_mgr_deinit:0000000000000008 .L0 
C:\Users\stapi\AppData\Local\Temp\ccq6iSNI.s:948    .text.app_scan_mgr_deinit:0000000000000008 .L0 
C:\Users\stapi\AppData\Local\Temp\ccq6iSNI.s:951    .text.app_scan_mgr_deinit:0000000000000010 .L0 
C:\Users\stapi\AppData\Local\Temp\ccq6iSNI.s:954    .text.app_scan_mgr_deinit:0000000000000018 .L0 
C:\Users\stapi\AppData\Local\Temp\ccq6iSNI.s:956    .text.app_scan_mgr_deinit:000000000000001c .L0 
C:\Users\stapi\AppData\Local\Temp\ccq6iSNI.s:960    .text.app_scan_mgr_deinit:0000000000000028 .L0 
C:\Users\stapi\AppData\Local\Temp\ccq6iSNI.s:964    .text.app_scan_mgr_deinit:0000000000000034 .L0 
C:\Users\stapi\AppData\Local\Temp\ccq6iSNI.s:965    .text.app_scan_mgr_deinit:000000000000003c .L0 
C:\Users\stapi\AppData\Local\Temp\ccq6iSNI.s:966    .text.app_scan_mgr_deinit:000000000000003c .L0 
C:\Users\stapi\AppData\Local\Temp\ccq6iSNI.s:967    .text.app_scan_mgr_deinit:000000000000003c .L0 
C:\Users\stapi\AppData\Local\Temp\ccq6iSNI.s:972    .bss.ble_scan_mgr_cb:0000000000000000 .LANCHOR0
C:\Users\stapi\AppData\Local\Temp\ccq6iSNI.s:975    .bss.ble_scan_mgr_cb:0000000000000000 ble_scan_mgr_cb
C:\Users\stapi\AppData\Local\Temp\ccq6iSNI.s:126    .text.scan_mgr_list_scanned_devices:000000000000009e .L0 
C:\Users\stapi\AppData\Local\Temp\ccq6iSNI.s:206    .text.scan_mgr_find_dev_by_idx:000000000000004c .L0 
C:\Users\stapi\AppData\Local\Temp\ccq6iSNI.s:285    .text.scan_mgr_clear_dev_list:0000000000000054 .L0 
C:\Users\stapi\AppData\Local\Temp\ccq6iSNI.s:752    .text.ble_app_scan_mgr_evt_handler:000000000000028e .L0 
C:\Users\stapi\AppData\Local\Temp\ccq6iSNI.s:805    .text.app_scan_enable:0000000000000044 .L0 
C:\Users\stapi\AppData\Local\Temp\ccq6iSNI.s:853    .text.app_scan_disable:0000000000000042 .L0 
C:\Users\stapi\AppData\Local\Temp\ccq6iSNI.s:904    .text.app_scan_mgr_reset:000000000000004a .L0 
C:\Users\stapi\AppData\Local\Temp\ccq6iSNI.s:936    .text.app_scan_mgr_init:0000000000000024 .L0 
C:\Users\stapi\AppData\Local\Temp\ccq6iSNI.s:970    .text.app_scan_mgr_deinit:000000000000003c .L0 
                     .debug_frame:0000000000000000 .L0 
C:\Users\stapi\AppData\Local\Temp\ccq6iSNI.s:11     .rodata.scan_mgr_list_scanned_devices.str1.4:0000000000000000 .LC0
C:\Users\stapi\AppData\Local\Temp\ccq6iSNI.s:14     .rodata.scan_mgr_list_scanned_devices.str1.4:0000000000000024 .LC1
C:\Users\stapi\AppData\Local\Temp\ccq6iSNI.s:71     .text.scan_mgr_list_scanned_devices:0000000000000044 .L2
C:\Users\stapi\AppData\Local\Temp\ccq6iSNI.s:58     .text.scan_mgr_list_scanned_devices:000000000000003c .L1
C:\Users\stapi\AppData\Local\Temp\ccq6iSNI.s:109    .text.scan_mgr_list_scanned_devices:0000000000000090 .L6
C:\Users\stapi\AppData\Local\Temp\ccq6iSNI.s:88     .text.scan_mgr_list_scanned_devices:000000000000005e .L5
C:\Users\stapi\AppData\Local\Temp\ccq6iSNI.s:172    .text.scan_mgr_find_dev_by_idx:0000000000000032 .L14
C:\Users\stapi\AppData\Local\Temp\ccq6iSNI.s:184    .text.scan_mgr_find_dev_by_idx:000000000000003c .L13
C:\Users\stapi\AppData\Local\Temp\ccq6iSNI.s:175    .text.scan_mgr_find_dev_by_idx:0000000000000034 .L10
C:\Users\stapi\AppData\Local\Temp\ccq6iSNI.s:168    .text.scan_mgr_find_dev_by_idx:000000000000002e .L12
C:\Users\stapi\AppData\Local\Temp\ccq6iSNI.s:249    .text.scan_mgr_clear_dev_list:0000000000000030 .L16
C:\Users\stapi\AppData\Local\Temp\ccq6iSNI.s:262    .text.scan_mgr_clear_dev_list:000000000000003a .L19
C:\Users\stapi\AppData\Local\Temp\ccq6iSNI.s:245    .text.scan_mgr_clear_dev_list:000000000000002c .L18
C:\Users\stapi\AppData\Local\Temp\ccq6iSNI.s:287    .rodata.ble_app_scan_mgr_evt_handler.str1.4:0000000000000000 .LC2
C:\Users\stapi\AppData\Local\Temp\ccq6iSNI.s:290    .rodata.ble_app_scan_mgr_evt_handler.str1.4:0000000000000020 .LC3
C:\Users\stapi\AppData\Local\Temp\ccq6iSNI.s:293    .rodata.ble_app_scan_mgr_evt_handler.str1.4:0000000000000044 .LC4
C:\Users\stapi\AppData\Local\Temp\ccq6iSNI.s:296    .rodata.ble_app_scan_mgr_evt_handler.str1.4:00000000000000c0 .LC5
C:\Users\stapi\AppData\Local\Temp\ccq6iSNI.s:339    .text.ble_app_scan_mgr_evt_handler:000000000000001c .L23
C:\Users\stapi\AppData\Local\Temp\ccq6iSNI.s:393    .text.ble_app_scan_mgr_evt_handler:0000000000000072 .L24
C:\Users\stapi\AppData\Local\Temp\ccq6iSNI.s:366    .text.ble_app_scan_mgr_evt_handler:0000000000000046 .L26
C:\Users\stapi\AppData\Local\Temp\ccq6iSNI.s:324    .text.ble_app_scan_mgr_evt_handler:0000000000000012 .L22
C:\Users\stapi\AppData\Local\Temp\ccq6iSNI.s:376    .text.ble_app_scan_mgr_evt_handler:0000000000000056 .L27
C:\Users\stapi\AppData\Local\Temp\ccq6iSNI.s:360    .text.ble_app_scan_mgr_evt_handler:000000000000003c .L65
C:\Users\stapi\AppData\Local\Temp\ccq6iSNI.s:452    .text.ble_app_scan_mgr_evt_handler:00000000000000b8 .L28
C:\Users\stapi\AppData\Local\Temp\ccq6iSNI.s:653    .text.ble_app_scan_mgr_evt_handler:00000000000001f8 .L31
C:\Users\stapi\AppData\Local\Temp\ccq6iSNI.s:465    .text.ble_app_scan_mgr_evt_handler:00000000000000ce .L32
C:\Users\stapi\AppData\Local\Temp\ccq6iSNI.s:475    .text.ble_app_scan_mgr_evt_handler:00000000000000dc .L33
C:\Users\stapi\AppData\Local\Temp\ccq6iSNI.s:503    .text.ble_app_scan_mgr_evt_handler:000000000000010c .L35
C:\Users\stapi\AppData\Local\Temp\ccq6iSNI.s:515    .text.ble_app_scan_mgr_evt_handler:0000000000000122 .L36
C:\Users\stapi\AppData\Local\Temp\ccq6iSNI.s:703    .text.ble_app_scan_mgr_evt_handler:000000000000022c .L37
C:\Users\stapi\AppData\Local\Temp\ccq6iSNI.s:592    .text.ble_app_scan_mgr_evt_handler:0000000000000186 .L38
C:\Users\stapi\AppData\Local\Temp\ccq6iSNI.s:586    .text.ble_app_scan_mgr_evt_handler:0000000000000180 .L39
C:\Users\stapi\AppData\Local\Temp\ccq6iSNI.s:681    .text.ble_app_scan_mgr_evt_handler:0000000000000220 .L41
C:\Users\stapi\AppData\Local\Temp\ccq6iSNI.s:639    .text.ble_app_scan_mgr_evt_handler:00000000000001ee .L42
C:\Users\stapi\AppData\Local\Temp\ccq6iSNI.s:672    .text.ble_app_scan_mgr_evt_handler:0000000000000218 .L30
C:\Users\stapi\AppData\Local\Temp\ccq6iSNI.s:446    .text.ble_app_scan_mgr_evt_handler:00000000000000b2 .L29
C:\Users\stapi\AppData\Local\Temp\ccq6iSNI.s:582    .text.ble_app_scan_mgr_evt_handler:000000000000017c .L40
C:\Users\stapi\AppData\Local\Temp\ccq6iSNI.s:715    .text.ble_app_scan_mgr_evt_handler:0000000000000236 .L43
C:\Users\stapi\AppData\Local\Temp\ccq6iSNI.s:719    .text.ble_app_scan_mgr_evt_handler:000000000000023c .L44
C:\Users\stapi\AppData\Local\Temp\ccq6iSNI.s:754    .rodata.app_scan_enable.str1.4:0000000000000000 .LC6
C:\Users\stapi\AppData\Local\Temp\ccq6iSNI.s:795    .text.app_scan_enable:000000000000003a .L67
C:\Users\stapi\AppData\Local\Temp\ccq6iSNI.s:788    .text.app_scan_enable:0000000000000032 .L66
C:\Users\stapi\AppData\Local\Temp\ccq6iSNI.s:807    .rodata.app_scan_disable.str1.4:0000000000000000 .LC7
C:\Users\stapi\AppData\Local\Temp\ccq6iSNI.s:843    .text.app_scan_disable:0000000000000038 .L71
C:\Users\stapi\AppData\Local\Temp\ccq6iSNI.s:837    .text.app_scan_disable:0000000000000030 .L70
C:\Users\stapi\AppData\Local\Temp\ccq6iSNI.s:855    .rodata.app_scan_mgr_reset.str1.4:0000000000000000 .LC8
C:\Users\stapi\AppData\Local\Temp\ccq6iSNI.s:896    .text.app_scan_mgr_reset:0000000000000042 .L74
C:\Users\stapi\AppData\Local\Temp\ccq6iSNI.s:3256   .debug_abbrev:0000000000000000 .Ldebug_abbrev0
C:\Users\stapi\AppData\Local\Temp\ccq6iSNI.s:5116   .debug_str:0000000000000d8b .LASF323
C:\Users\stapi\AppData\Local\Temp\ccq6iSNI.s:4918   .debug_str:00000000000003bb .LASF324
C:\Users\stapi\AppData\Local\Temp\ccq6iSNI.s:5192   .debug_str:00000000000011bd .LASF325
C:\Users\stapi\AppData\Local\Temp\ccq6iSNI.s:4770   .debug_ranges:0000000000000000 .Ldebug_ranges0
C:\Users\stapi\AppData\Local\Temp\ccq6iSNI.s:4830   .debug_line:0000000000000000 .Ldebug_line0
C:\Users\stapi\AppData\Local\Temp\ccq6iSNI.s:5190   .debug_str:00000000000011b0 .LASF0
C:\Users\stapi\AppData\Local\Temp\ccq6iSNI.s:5266   .debug_str:00000000000015a8 .LASF2
C:\Users\stapi\AppData\Local\Temp\ccq6iSNI.s:4948   .debug_str:0000000000000593 .LASF1
C:\Users\stapi\AppData\Local\Temp\ccq6iSNI.s:4896   .debug_str:00000000000002de .LASF3
C:\Users\stapi\AppData\Local\Temp\ccq6iSNI.s:4972   .debug_str:0000000000000684 .LASF4
C:\Users\stapi\AppData\Local\Temp\ccq6iSNI.s:5364   .debug_str:0000000000001a51 .LASF5
C:\Users\stapi\AppData\Local\Temp\ccq6iSNI.s:5018   .debug_str:0000000000000898 .LASF6
C:\Users\stapi\AppData\Local\Temp\ccq6iSNI.s:5444   .debug_str:0000000000001e3b .LASF7
C:\Users\stapi\AppData\Local\Temp\ccq6iSNI.s:4908   .debug_str:0000000000000358 .LASF8
C:\Users\stapi\AppData\Local\Temp\ccq6iSNI.s:5150   .debug_str:0000000000001011 .LASF9
C:\Users\stapi\AppData\Local\Temp\ccq6iSNI.s:5108   .debug_str:0000000000000d36 .LASF10
C:\Users\stapi\AppData\Local\Temp\ccq6iSNI.s:5158   .debug_str:0000000000001068 .LASF11
C:\Users\stapi\AppData\Local\Temp\ccq6iSNI.s:5272   .debug_str:00000000000015db .LASF12
C:\Users\stapi\AppData\Local\Temp\ccq6iSNI.s:5006   .debug_str:000000000000082b .LASF13
C:\Users\stapi\AppData\Local\Temp\ccq6iSNI.s:4854   .debug_str:0000000000000101 .LASF256
C:\Users\stapi\AppData\Local\Temp\ccq6iSNI.s:5476   .debug_str:0000000000001f9e .LASF14
C:\Users\stapi\AppData\Local\Temp\ccq6iSNI.s:5484   .debug_str:0000000000001fdc .LASF15
C:\Users\stapi\AppData\Local\Temp\ccq6iSNI.s:5194   .debug_str:000000000000123b .LASF16
C:\Users\stapi\AppData\Local\Temp\ccq6iSNI.s:4832   .debug_str:0000000000000000 .LASF17
C:\Users\stapi\AppData\Local\Temp\ccq6iSNI.s:4950   .debug_str:000000000000059f .LASF18
C:\Users\stapi\AppData\Local\Temp\ccq6iSNI.s:5286   .debug_str:000000000000169e .LASF19
C:\Users\stapi\AppData\Local\Temp\ccq6iSNI.s:5424   .debug_str:0000000000001d36 .LASF20
C:\Users\stapi\AppData\Local\Temp\ccq6iSNI.s:4910   .debug_str:0000000000000361 .LASF21
C:\Users\stapi\AppData\Local\Temp\ccq6iSNI.s:5032   .debug_str:0000000000000949 .LASF22
C:\Users\stapi\AppData\Local\Temp\ccq6iSNI.s:4872   .debug_str:00000000000001d6 .LASF23
C:\Users\stapi\AppData\Local\Temp\ccq6iSNI.s:5452   .debug_str:0000000000001e9a .LASF24
C:\Users\stapi\AppData\Local\Temp\ccq6iSNI.s:4914   .debug_str:0000000000000383 .LASF25
C:\Users\stapi\AppData\Local\Temp\ccq6iSNI.s:5082   .debug_str:0000000000000be4 .LASF26
C:\Users\stapi\AppData\Local\Temp\ccq6iSNI.s:5258   .debug_str:0000000000001534 .LASF27
C:\Users\stapi\AppData\Local\Temp\ccq6iSNI.s:5308   .debug_str:00000000000017a7 .LASF28
C:\Users\stapi\AppData\Local\Temp\ccq6iSNI.s:5402   .debug_str:0000000000001c01 .LASF29
C:\Users\stapi\AppData\Local\Temp\ccq6iSNI.s:4956   .debug_str:00000000000005ce .LASF30
C:\Users\stapi\AppData\Local\Temp\ccq6iSNI.s:4868   .debug_str:00000000000001ab .LASF31
C:\Users\stapi\AppData\Local\Temp\ccq6iSNI.s:4988   .debug_str:000000000000073d .LASF32
C:\Users\stapi\AppData\Local\Temp\ccq6iSNI.s:4858   .debug_str:0000000000000124 .LASF33
C:\Users\stapi\AppData\Local\Temp\ccq6iSNI.s:5086   .debug_str:0000000000000c14 .LASF34
C:\Users\stapi\AppData\Local\Temp\ccq6iSNI.s:5238   .debug_str:000000000000143a .LASF35
C:\Users\stapi\AppData\Local\Temp\ccq6iSNI.s:5400   .debug_str:0000000000001bdb .LASF36
C:\Users\stapi\AppData\Local\Temp\ccq6iSNI.s:4856   .debug_str:000000000000010b .LASF37
C:\Users\stapi\AppData\Local\Temp\ccq6iSNI.s:4954   .debug_str:00000000000005b7 .LASF38
C:\Users\stapi\AppData\Local\Temp\ccq6iSNI.s:5332   .debug_str:00000000000018cc .LASF39
C:\Users\stapi\AppData\Local\Temp\ccq6iSNI.s:5426   .debug_str:0000000000001d3f .LASF40
C:\Users\stapi\AppData\Local\Temp\ccq6iSNI.s:4902   .debug_str:0000000000000317 .LASF41
C:\Users\stapi\AppData\Local\Temp\ccq6iSNI.s:4906   .debug_str:000000000000033a .LASF42
C:\Users\stapi\AppData\Local\Temp\ccq6iSNI.s:5264   .debug_str:000000000000158a .LASF43
C:\Users\stapi\AppData\Local\Temp\ccq6iSNI.s:5160   .debug_str:0000000000001076 .LASF44
C:\Users\stapi\AppData\Local\Temp\ccq6iSNI.s:5094   .debug_str:0000000000000c85 .LASF45
C:\Users\stapi\AppData\Local\Temp\ccq6iSNI.s:5064   .debug_str:0000000000000af7 .LASF46
C:\Users\stapi\AppData\Local\Temp\ccq6iSNI.s:5446   .debug_str:0000000000001e4e .LASF47
C:\Users\stapi\AppData\Local\Temp\ccq6iSNI.s:5254   .debug_str:00000000000014f8 .LASF48
C:\Users\stapi\AppData\Local\Temp\ccq6iSNI.s:5178   .debug_str:0000000000001124 .LASF49
C:\Users\stapi\AppData\Local\Temp\ccq6iSNI.s:5016   .debug_str:000000000000087e .LASF50
C:\Users\stapi\AppData\Local\Temp\ccq6iSNI.s:5320   .debug_str:0000000000001845 .LASF51
C:\Users\stapi\AppData\Local\Temp\ccq6iSNI.s:5428   .debug_str:0000000000001d5b .LASF52
C:\Users\stapi\AppData\Local\Temp\ccq6iSNI.s:5138   .debug_str:0000000000000f88 .LASF53
C:\Users\stapi\AppData\Local\Temp\ccq6iSNI.s:5352   .debug_str:00000000000019c2 .LASF54
C:\Users\stapi\AppData\Local\Temp\ccq6iSNI.s:5290   .debug_str:00000000000016d1 .LASF55
C:\Users\stapi\AppData\Local\Temp\ccq6iSNI.s:5406   .debug_str:0000000000001c48 .LASF56
C:\Users\stapi\AppData\Local\Temp\ccq6iSNI.s:4866   .debug_str:000000000000018b .LASF57
C:\Users\stapi\AppData\Local\Temp\ccq6iSNI.s:4978   .debug_str:00000000000006b0 .LASF58
C:\Users\stapi\AppData\Local\Temp\ccq6iSNI.s:5102   .debug_str:0000000000000d03 .LASF59
C:\Users\stapi\AppData\Local\Temp\ccq6iSNI.s:5230   .debug_str:00000000000013cb .LASF60
C:\Users\stapi\AppData\Local\Temp\ccq6iSNI.s:4994   .debug_str:0000000000000781 .LASF61
C:\Users\stapi\AppData\Local\Temp\ccq6iSNI.s:5458   .debug_str:0000000000001ef7 .LASF62
C:\Users\stapi\AppData\Local\Temp\ccq6iSNI.s:5324   .debug_str:0000000000001868 .LASF63
C:\Users\stapi\AppData\Local\Temp\ccq6iSNI.s:5122   .debug_str:0000000000000ea5 .LASF64
C:\Users\stapi\AppData\Local\Temp\ccq6iSNI.s:5118   .debug_str:0000000000000e84 .LASF65
C:\Users\stapi\AppData\Local\Temp\ccq6iSNI.s:4860   .debug_str:0000000000000144 .LASF66
C:\Users\stapi\AppData\Local\Temp\ccq6iSNI.s:4962   .debug_str:000000000000061c .LASF67
C:\Users\stapi\AppData\Local\Temp\ccq6iSNI.s:4900   .debug_str:0000000000000303 .LASF68
C:\Users\stapi\AppData\Local\Temp\ccq6iSNI.s:5430   .debug_str:0000000000001d7c .LASF69
C:\Users\stapi\AppData\Local\Temp\ccq6iSNI.s:5098   .debug_str:0000000000000cca .LASF70
C:\Users\stapi\AppData\Local\Temp\ccq6iSNI.s:4892   .debug_str:00000000000002ae .LASF71
C:\Users\stapi\AppData\Local\Temp\ccq6iSNI.s:4894   .debug_str:00000000000002c3 .LASF72
C:\Users\stapi\AppData\Local\Temp\ccq6iSNI.s:5200   .debug_str:0000000000001264 .LASF73
C:\Users\stapi\AppData\Local\Temp\ccq6iSNI.s:4980   .debug_str:00000000000006cc .LASF74
C:\Users\stapi\AppData\Local\Temp\ccq6iSNI.s:5480   .debug_str:0000000000001fa8 .LASF75
C:\Users\stapi\AppData\Local\Temp\ccq6iSNI.s:5038   .debug_str:0000000000000992 .LASF76
C:\Users\stapi\AppData\Local\Temp\ccq6iSNI.s:4846   .debug_str:0000000000000097 .LASF77
C:\Users\stapi\AppData\Local\Temp\ccq6iSNI.s:5134   .debug_str:0000000000000f4f .LASF78
C:\Users\stapi\AppData\Local\Temp\ccq6iSNI.s:5442   .debug_str:0000000000001e1c .LASF79
C:\Users\stapi\AppData\Local\Temp\ccq6iSNI.s:5030   .debug_str:000000000000092c .LASF80
C:\Users\stapi\AppData\Local\Temp\ccq6iSNI.s:5136   .debug_str:0000000000000f60 .LASF81
C:\Users\stapi\AppData\Local\Temp\ccq6iSNI.s:5268   .debug_str:00000000000015b1 .LASF82
C:\Users\stapi\AppData\Local\Temp\ccq6iSNI.s:5280   .debug_str:0000000000001658 .LASF83
C:\Users\stapi\AppData\Local\Temp\ccq6iSNI.s:5334   .debug_str:00000000000018e8 .LASF84
C:\Users\stapi\AppData\Local\Temp\ccq6iSNI.s:5202   .debug_str:0000000000001281 .LASF85
C:\Users\stapi\AppData\Local\Temp\ccq6iSNI.s:5070   .debug_str:0000000000000b43 .LASF86
C:\Users\stapi\AppData\Local\Temp\ccq6iSNI.s:5072   .debug_str:0000000000000b5d .LASF87
C:\Users\stapi\AppData\Local\Temp\ccq6iSNI.s:5076   .debug_str:0000000000000b85 .LASF88
C:\Users\stapi\AppData\Local\Temp\ccq6iSNI.s:5382   .debug_str:0000000000001b07 .LASF89
C:\Users\stapi\AppData\Local\Temp\ccq6iSNI.s:5210   .debug_str:00000000000012e4 .LASF90
C:\Users\stapi\AppData\Local\Temp\ccq6iSNI.s:4880   .debug_str:000000000000021e .LASF91
C:\Users\stapi\AppData\Local\Temp\ccq6iSNI.s:5226   .debug_str:0000000000001392 .LASF92
C:\Users\stapi\AppData\Local\Temp\ccq6iSNI.s:5220   .debug_str:0000000000001350 .LASF93
C:\Users\stapi\AppData\Local\Temp\ccq6iSNI.s:5204   .debug_str:00000000000012a7 .LASF94
C:\Users\stapi\AppData\Local\Temp\ccq6iSNI.s:5432   .debug_str:0000000000001d95 .LASF95
C:\Users\stapi\AppData\Local\Temp\ccq6iSNI.s:5114   .debug_str:0000000000000d68 .LASF96
C:\Users\stapi\AppData\Local\Temp\ccq6iSNI.s:5232   .debug_str:00000000000013e6 .LASF97
C:\Users\stapi\AppData\Local\Temp\ccq6iSNI.s:5316   .debug_str:00000000000017ff .LASF98
C:\Users\stapi\AppData\Local\Temp\ccq6iSNI.s:5152   .debug_str:000000000000101c .LASF99
C:\Users\stapi\AppData\Local\Temp\ccq6iSNI.s:5274   .debug_str:00000000000015f2 .LASF100
C:\Users\stapi\AppData\Local\Temp\ccq6iSNI.s:5456   .debug_str:0000000000001ecd .LASF101
C:\Users\stapi\AppData\Local\Temp\ccq6iSNI.s:5420   .debug_str:0000000000001ce3 .LASF102
C:\Users\stapi\AppData\Local\Temp\ccq6iSNI.s:4838   .debug_str:0000000000000030 .LASF103
C:\Users\stapi\AppData\Local\Temp\ccq6iSNI.s:5096   .debug_str:0000000000000ca8 .LASF104
C:\Users\stapi\AppData\Local\Temp\ccq6iSNI.s:5142   .debug_str:0000000000000fc7 .LASF105
C:\Users\stapi\AppData\Local\Temp\ccq6iSNI.s:5068   .debug_str:0000000000000b23 .LASF106
C:\Users\stapi\AppData\Local\Temp\ccq6iSNI.s:5260   .debug_str:000000000000154c .LASF107
C:\Users\stapi\AppData\Local\Temp\ccq6iSNI.s:5246   .debug_str:000000000000149d .LASF108
C:\Users\stapi\AppData\Local\Temp\ccq6iSNI.s:5300   .debug_str:0000000000001744 .LASF109
C:\Users\stapi\AppData\Local\Temp\ccq6iSNI.s:5140   .debug_str:0000000000000fa4 .LASF110
C:\Users\stapi\AppData\Local\Temp\ccq6iSNI.s:5166   .debug_str:00000000000010b7 .LASF111
C:\Users\stapi\AppData\Local\Temp\ccq6iSNI.s:5002   .debug_str:00000000000007f1 .LASF112
C:\Users\stapi\AppData\Local\Temp\ccq6iSNI.s:5180   .debug_str:000000000000113e .LASF113
C:\Users\stapi\AppData\Local\Temp\ccq6iSNI.s:5288   .debug_str:00000000000016a7 .LASF114
C:\Users\stapi\AppData\Local\Temp\ccq6iSNI.s:5462   .debug_str:0000000000001f22 .LASF115
C:\Users\stapi\AppData\Local\Temp\ccq6iSNI.s:5024   .debug_str:00000000000008cb .LASF116
C:\Users\stapi\AppData\Local\Temp\ccq6iSNI.s:5170   .debug_str:00000000000010ee .LASF117
C:\Users\stapi\AppData\Local\Temp\ccq6iSNI.s:5314   .debug_str:00000000000017e3 .LASF118
C:\Users\stapi\AppData\Local\Temp\ccq6iSNI.s:5370   .debug_str:0000000000001a96 .LASF119
C:\Users\stapi\AppData\Local\Temp\ccq6iSNI.s:5250   .debug_str:00000000000014d1 .LASF120
C:\Users\stapi\AppData\Local\Temp\ccq6iSNI.s:4932   .debug_str:00000000000004a4 .LASF121
C:\Users\stapi\AppData\Local\Temp\ccq6iSNI.s:4946   .debug_str:000000000000057c .LASF122
C:\Users\stapi\AppData\Local\Temp\ccq6iSNI.s:5012   .debug_str:0000000000000845 .LASF123
C:\Users\stapi\AppData\Local\Temp\ccq6iSNI.s:5154   .debug_str:000000000000103f .LASF124
C:\Users\stapi\AppData\Local\Temp\ccq6iSNI.s:5358   .debug_str:0000000000001a15 .LASF125
C:\Users\stapi\AppData\Local\Temp\ccq6iSNI.s:5306   .debug_str:0000000000001784 .LASF126
C:\Users\stapi\AppData\Local\Temp\ccq6iSNI.s:5234   .debug_str:0000000000001408 .LASF127
C:\Users\stapi\AppData\Local\Temp\ccq6iSNI.s:5326   .debug_str:0000000000001882 .LASF128
C:\Users\stapi\AppData\Local\Temp\ccq6iSNI.s:4998   .debug_str:00000000000007ba .LASF129
C:\Users\stapi\AppData\Local\Temp\ccq6iSNI.s:5168   .debug_str:00000000000010d9 .LASF130
C:\Users\stapi\AppData\Local\Temp\ccq6iSNI.s:5436   .debug_str:0000000000001dd2 .LASF131
C:\Users\stapi\AppData\Local\Temp\ccq6iSNI.s:5294   .debug_str:0000000000001701 .LASF132
C:\Users\stapi\AppData\Local\Temp\ccq6iSNI.s:4842   .debug_str:0000000000000067 .LASF133
C:\Users\stapi\AppData\Local\Temp\ccq6iSNI.s:5218   .debug_str:000000000000132e .LASF134
C:\Users\stapi\AppData\Local\Temp\ccq6iSNI.s:4912   .debug_str:0000000000000368 .LASF135
C:\Users\stapi\AppData\Local\Temp\ccq6iSNI.s:4874   .debug_str:00000000000001e7 .LASF136
C:\Users\stapi\AppData\Local\Temp\ccq6iSNI.s:4916   .debug_str:00000000000003a2 .LASF137
C:\Users\stapi\AppData\Local\Temp\ccq6iSNI.s:5368   .debug_str:0000000000001a77 .LASF138
C:\Users\stapi\AppData\Local\Temp\ccq6iSNI.s:5000   .debug_str:00000000000007d4 .LASF139
C:\Users\stapi\AppData\Local\Temp\ccq6iSNI.s:5298   .debug_str:000000000000172b .LASF140
C:\Users\stapi\AppData\Local\Temp\ccq6iSNI.s:4850   .debug_str:00000000000000cd .LASF141
C:\Users\stapi\AppData\Local\Temp\ccq6iSNI.s:4960   .debug_str:0000000000000608 .LASF142
C:\Users\stapi\AppData\Local\Temp\ccq6iSNI.s:4852   .debug_str:00000000000000e2 .LASF143
C:\Users\stapi\AppData\Local\Temp\ccq6iSNI.s:4942   .debug_str:0000000000000539 .LASF144
C:\Users\stapi\AppData\Local\Temp\ccq6iSNI.s:5490   .debug_str:0000000000002004 .LASF145
C:\Users\stapi\AppData\Local\Temp\ccq6iSNI.s:5454   .debug_str:0000000000001eb5 .LASF146
C:\Users\stapi\AppData\Local\Temp\ccq6iSNI.s:5048   .debug_str:00000000000009fe .LASF147
C:\Users\stapi\AppData\Local\Temp\ccq6iSNI.s:5248   .debug_str:00000000000014ba .LASF148
C:\Users\stapi\AppData\Local\Temp\ccq6iSNI.s:5408   .debug_str:0000000000001c61 .LASF149
C:\Users\stapi\AppData\Local\Temp\ccq6iSNI.s:4844   .debug_str:0000000000000080 .LASF150
C:\Users\stapi\AppData\Local\Temp\ccq6iSNI.s:5004   .debug_str:000000000000080f .LASF151
C:\Users\stapi\AppData\Local\Temp\ccq6iSNI.s:5404   .debug_str:0000000000001c23 .LASF152
C:\Users\stapi\AppData\Local\Temp\ccq6iSNI.s:5378   .debug_str:0000000000001ad7 .LASF153
C:\Users\stapi\AppData\Local\Temp\ccq6iSNI.s:5486   .debug_str:0000000000001fe1 .LASF154
C:\Users\stapi\AppData\Local\Temp\ccq6iSNI.s:5394   .debug_str:0000000000001b8f .LASF155
C:\Users\stapi\AppData\Local\Temp\ccq6iSNI.s:4986   .debug_str:0000000000000718 .LASF156
C:\Users\stapi\AppData\Local\Temp\ccq6iSNI.s:5318   .debug_str:000000000000181d .LASF157
C:\Users\stapi\AppData\Local\Temp\ccq6iSNI.s:5124   .debug_str:0000000000000ec2 .LASF158
C:\Users\stapi\AppData\Local\Temp\ccq6iSNI.s:5270   .debug_str:00000000000015c4 .LASF159
C:\Users\stapi\AppData\Local\Temp\ccq6iSNI.s:5482   .debug_str:0000000000001fbf .LASF160
C:\Users\stapi\AppData\Local\Temp\ccq6iSNI.s:5088   .debug_str:0000000000000c33 .LASF161
C:\Users\stapi\AppData\Local\Temp\ccq6iSNI.s:5060   .debug_str:0000000000000ab1 .LASF162
C:\Users\stapi\AppData\Local\Temp\ccq6iSNI.s:5044   .debug_str:00000000000009d3 .LASF163
C:\Users\stapi\AppData\Local\Temp\ccq6iSNI.s:5448   .debug_str:0000000000001e6c .LASF164
C:\Users\stapi\AppData\Local\Temp\ccq6iSNI.s:5336   .debug_str:000000000000190e .LASF165
C:\Users\stapi\AppData\Local\Temp\ccq6iSNI.s:5020   .debug_str:00000000000008a3 .LASF166
C:\Users\stapi\AppData\Local\Temp\ccq6iSNI.s:5310   .debug_str:00000000000017c1 .LASF167
C:\Users\stapi\AppData\Local\Temp\ccq6iSNI.s:5244   .debug_str:0000000000001477 .LASF168
C:\Users\stapi\AppData\Local\Temp\ccq6iSNI.s:5348   .debug_str:0000000000001999 .LASF169
C:\Users\stapi\AppData\Local\Temp\ccq6iSNI.s:5466   .debug_str:0000000000001f51 .LASF170
C:\Users\stapi\AppData\Local\Temp\ccq6iSNI.s:5036   .debug_str:0000000000000971 .LASF171
C:\Users\stapi\AppData\Local\Temp\ccq6iSNI.s:4968   .debug_str:000000000000065c .LASF172
C:\Users\stapi\AppData\Local\Temp\ccq6iSNI.s:5062   .debug_str:0000000000000ada .LASF173
C:\Users\stapi\AppData\Local\Temp\ccq6iSNI.s:5014   .debug_str:0000000000000857 .LASF174
C:\Users\stapi\AppData\Local\Temp\ccq6iSNI.s:5100   .debug_str:0000000000000ce0 .LASF175
C:\Users\stapi\AppData\Local\Temp\ccq6iSNI.s:4898   .debug_str:00000000000002e8 .LASF176
C:\Users\stapi\AppData\Local\Temp\ccq6iSNI.s:5228   .debug_str:00000000000013b2 .LASF177
C:\Users\stapi\AppData\Local\Temp\ccq6iSNI.s:4990   .debug_str:000000000000075c .LASF178
C:\Users\stapi\AppData\Local\Temp\ccq6iSNI.s:5412   .debug_str:0000000000001c86 .LASF179
C:\Users\stapi\AppData\Local\Temp\ccq6iSNI.s:4924   .debug_str:0000000000000452 .LASF180
C:\Users\stapi\AppData\Local\Temp\ccq6iSNI.s:5080   .debug_str:0000000000000bc7 .LASF181
C:\Users\stapi\AppData\Local\Temp\ccq6iSNI.s:4862   .debug_str:0000000000000163 .LASF182
C:\Users\stapi\AppData\Local\Temp\ccq6iSNI.s:5278   .debug_str:000000000000162f .LASF183
C:\Users\stapi\AppData\Local\Temp\ccq6iSNI.s:4940   .debug_str:0000000000000513 .LASF184
C:\Users\stapi\AppData\Local\Temp\ccq6iSNI.s:5356   .debug_str:00000000000019f3 .LASF185
C:\Users\stapi\AppData\Local\Temp\ccq6iSNI.s:5040   .debug_str:00000000000009af .LASF186
C:\Users\stapi\AppData\Local\Temp\ccq6iSNI.s:5186   .debug_str:000000000000116c .LASF187
C:\Users\stapi\AppData\Local\Temp\ccq6iSNI.s:4934   .debug_str:00000000000004bc .LASF188
C:\Users\stapi\AppData\Local\Temp\ccq6iSNI.s:5054   .debug_str:0000000000000a50 .LASF189
C:\Users\stapi\AppData\Local\Temp\ccq6iSNI.s:5050   .debug_str:0000000000000a16 .LASF190
C:\Users\stapi\AppData\Local\Temp\ccq6iSNI.s:5126   .debug_str:0000000000000ee8 .LASF191
C:\Users\stapi\AppData\Local\Temp\ccq6iSNI.s:5028   .debug_str:0000000000000910 .LASF192
C:\Users\stapi\AppData\Local\Temp\ccq6iSNI.s:5130   .debug_str:0000000000000f23 .LASF193
C:\Users\stapi\AppData\Local\Temp\ccq6iSNI.s:5384   .debug_str:0000000000001b2c .LASF194
C:\Users\stapi\AppData\Local\Temp\ccq6iSNI.s:5034   .debug_str:0000000000000954 .LASF195
C:\Users\stapi\AppData\Local\Temp\ccq6iSNI.s:5344   .debug_str:000000000000195d .LASF196
C:\Users\stapi\AppData\Local\Temp\ccq6iSNI.s:4836   .debug_str:000000000000000d .LASF197
C:\Users\stapi\AppData\Local\Temp\ccq6iSNI.s:4878   .debug_str:0000000000000205 .LASF198
C:\Users\stapi\AppData\Local\Temp\ccq6iSNI.s:5256   .debug_str:0000000000001512 .LASF199
C:\Users\stapi\AppData\Local\Temp\ccq6iSNI.s:5342   .debug_str:000000000000193c .LASF200
C:\Users\stapi\AppData\Local\Temp\ccq6iSNI.s:5434   .debug_str:0000000000001db7 .LASF201
C:\Users\stapi\AppData\Local\Temp\ccq6iSNI.s:4966   .debug_str:000000000000063a .LASF202
C:\Users\stapi\AppData\Local\Temp\ccq6iSNI.s:5058   .debug_str:0000000000000a8d .LASF203
C:\Users\stapi\AppData\Local\Temp\ccq6iSNI.s:4944   .debug_str:000000000000055a .LASF204
C:\Users\stapi\AppData\Local\Temp\ccq6iSNI.s:4890   .debug_str:0000000000000295 .LASF205
C:\Users\stapi\AppData\Local\Temp\ccq6iSNI.s:5078   .debug_str:0000000000000ba1 .LASF206
C:\Users\stapi\AppData\Local\Temp\ccq6iSNI.s:5328   .debug_str:00000000000018a8 .LASF207
C:\Users\stapi\AppData\Local\Temp\ccq6iSNI.s:5242   .debug_str:0000000000001464 .LASF208
C:\Users\stapi\AppData\Local\Temp\ccq6iSNI.s:5164   .debug_str:00000000000010a2 .LASF209
C:\Users\stapi\AppData\Local\Temp\ccq6iSNI.s:5208   .debug_str:00000000000012cf .LASF210
C:\Users\stapi\AppData\Local\Temp\ccq6iSNI.s:5440   .debug_str:0000000000001e02 .LASF211
C:\Users\stapi\AppData\Local\Temp\ccq6iSNI.s:5224   .debug_str:000000000000137c .LASF212
C:\Users\stapi\AppData\Local\Temp\ccq6iSNI.s:5066   .debug_str:0000000000000b0d .LASF213
C:\Users\stapi\AppData\Local\Temp\ccq6iSNI.s:4982   .debug_str:00000000000006e9 .LASF214
C:\Users\stapi\AppData\Local\Temp\ccq6iSNI.s:5392   .debug_str:0000000000001b77 .LASF218
C:\Users\stapi\AppData\Local\Temp\ccq6iSNI.s:5092   .debug_str:0000000000000c6b .LASF215
C:\Users\stapi\AppData\Local\Temp\ccq6iSNI.s:4884   .debug_str:0000000000000254 .LASF216
C:\Users\stapi\AppData\Local\Temp\ccq6iSNI.s:5188   .debug_str:000000000000118d .LASF217
C:\Users\stapi\AppData\Local\Temp\ccq6iSNI.s:5374   .debug_str:0000000000001ab9 .LASF219
C:\Users\stapi\AppData\Local\Temp\ccq6iSNI.s:5346   .debug_str:0000000000001978 .LASF220
C:\Users\stapi\AppData\Local\Temp\ccq6iSNI.s:4936   .debug_str:00000000000004dd .LASF221
C:\Users\stapi\AppData\Local\Temp\ccq6iSNI.s:4888   .debug_str:0000000000000277 .LASF222
C:\Users\stapi\AppData\Local\Temp\ccq6iSNI.s:5422   .debug_str:0000000000001d17 .LASF223
C:\Users\stapi\AppData\Local\Temp\ccq6iSNI.s:4958   .debug_str:00000000000005e9 .LASF224
C:\Users\stapi\AppData\Local\Temp\ccq6iSNI.s:5362   .debug_str:0000000000001a3f .LASF225
C:\Users\stapi\AppData\Local\Temp\ccq6iSNI.s:5148   .debug_str:0000000000000ffa .LASF226
C:\Users\stapi\AppData\Local\Temp\ccq6iSNI.s:5112   .debug_str:0000000000000d51 .LASF227
C:\Users\stapi\AppData\Local\Temp\ccq6iSNI.s:5468   .debug_str:0000000000001f72 .LASF228
C:\Users\stapi\AppData\Local\Temp\ccq6iSNI.s:5398   .debug_str:0000000000001bc1 .LASF229
C:\Users\stapi\AppData\Local\Temp\ccq6iSNI.s:5366   .debug_str:0000000000001a5b .LASF230
C:\Users\stapi\AppData\Local\Temp\ccq6iSNI.s:5380   .debug_str:0000000000001af1 .LASF231
C:\Users\stapi\AppData\Local\Temp\ccq6iSNI.s:5240   .debug_str:000000000000145a .LASF232
C:\Users\stapi\AppData\Local\Temp\ccq6iSNI.s:5184   .debug_str:0000000000001167 .LASF233
C:\Users\stapi\AppData\Local\Temp\ccq6iSNI.s:5386   .debug_str:0000000000001b4d .LASF234
C:\Users\stapi\AppData\Local\Temp\ccq6iSNI.s:5106   .debug_str:0000000000000d2a .LASF235
C:\Users\stapi\AppData\Local\Temp\ccq6iSNI.s:5340   .debug_str:0000000000001932 .LASF236
C:\Users\stapi\AppData\Local\Temp\ccq6iSNI.s:5022   .debug_str:00000000000008c2 .LASF237
C:\Users\stapi\AppData\Local\Temp\ccq6iSNI.s:5418   .debug_str:0000000000001cd5 .LASF238
C:\Users\stapi\AppData\Local\Temp\ccq6iSNI.s:5162   .debug_str:0000000000001095 .LASF239
C:\Users\stapi\AppData\Local\Temp\ccq6iSNI.s:5104   .debug_str:0000000000000d20 .LASF240
C:\Users\stapi\AppData\Local\Temp\ccq6iSNI.s:5474   .debug_str:0000000000001f95 .LASF241
C:\Users\stapi\AppData\Local\Temp\ccq6iSNI.s:5056   .debug_str:0000000000000a73 .LASF242
C:\Users\stapi\AppData\Local\Temp\ccq6iSNI.s:5110   .debug_str:0000000000000d48 .LASF243
C:\Users\stapi\AppData\Local\Temp\ccq6iSNI.s:4876   .debug_str:0000000000000200 .LASF244
C:\Users\stapi\AppData\Local\Temp\ccq6iSNI.s:4930   .debug_str:000000000000049a .LASF245
C:\Users\stapi\AppData\Local\Temp\ccq6iSNI.s:5146   .debug_str:0000000000000fee .LASF246
C:\Users\stapi\AppData\Local\Temp\ccq6iSNI.s:5396   .debug_str:0000000000001bb5 .LASF247
C:\Users\stapi\AppData\Local\Temp\ccq6iSNI.s:4864   .debug_str:000000000000017d .LASF248
C:\Users\stapi\AppData\Local\Temp\ccq6iSNI.s:5172   .debug_str:000000000000110b .LASF249
C:\Users\stapi\AppData\Local\Temp\ccq6iSNI.s:5464   .debug_str:0000000000001f4c .LASF250
C:\Users\stapi\AppData\Local\Temp\ccq6iSNI.s:5174   .debug_str:0000000000001114 .LASF251
C:\Users\stapi\AppData\Local\Temp\ccq6iSNI.s:5478   .debug_str:0000000000001fa3 .LASF252
C:\Users\stapi\AppData\Local\Temp\ccq6iSNI.s:5084   .debug_str:0000000000000c04 .LASF253
C:\Users\stapi\AppData\Local\Temp\ccq6iSNI.s:4984   .debug_str:00000000000006fe .LASF254
C:\Users\stapi\AppData\Local\Temp\ccq6iSNI.s:4992   .debug_str:000000000000077b .LASF255
C:\Users\stapi\AppData\Local\Temp\ccq6iSNI.s:5252   .debug_str:00000000000014ef .LASF257
C:\Users\stapi\AppData\Local\Temp\ccq6iSNI.s:5216   .debug_str:0000000000001329 .LASF258
C:\Users\stapi\AppData\Local\Temp\ccq6iSNI.s:5156   .debug_str:0000000000001059 .LASF259
C:\Users\stapi\AppData\Local\Temp\ccq6iSNI.s:5046   .debug_str:00000000000009f3 .LASF260
C:\Users\stapi\AppData\Local\Temp\ccq6iSNI.s:5304   .debug_str:000000000000176d .LASF261
C:\Users\stapi\AppData\Local\Temp\ccq6iSNI.s:5354   .debug_str:00000000000019de .LASF262
C:\Users\stapi\AppData\Local\Temp\ccq6iSNI.s:5360   .debug_str:0000000000001a30 .LASF263
C:\Users\stapi\AppData\Local\Temp\ccq6iSNI.s:5128   .debug_str:0000000000000f0b .LASF264
C:\Users\stapi\AppData\Local\Temp\ccq6iSNI.s:5282   .debug_str:0000000000001672 .LASF265
C:\Users\stapi\AppData\Local\Temp\ccq6iSNI.s:4938   .debug_str:00000000000004fc .LASF266
C:\Users\stapi\AppData\Local\Temp\ccq6iSNI.s:5236   .debug_str:0000000000001421 .LASF267
C:\Users\stapi\AppData\Local\Temp\ccq6iSNI.s:5460   .debug_str:0000000000001f11 .LASF268
C:\Users\stapi\AppData\Local\Temp\ccq6iSNI.s:5222   .debug_str:0000000000001371 .LASF269
C:\Users\stapi\AppData\Local\Temp\ccq6iSNI.s:5302   .debug_str:0000000000001766 .LASF270
C:\Users\stapi\AppData\Local\Temp\ccq6iSNI.s:5212   .debug_str:0000000000001306 .LASF271
C:\Users\stapi\AppData\Local\Temp\ccq6iSNI.s:5144   .debug_str:0000000000000fe0 .LASF326
C:\Users\stapi\AppData\Local\Temp\ccq6iSNI.s:4976   .debug_str:00000000000006a6 .LASF272
C:\Users\stapi\AppData\Local\Temp\ccq6iSNI.s:5198   .debug_str:0000000000001254 .LASF273
C:\Users\stapi\AppData\Local\Temp\ccq6iSNI.s:5470   .debug_str:0000000000001f89 .LASF274
C:\Users\stapi\AppData\Local\Temp\ccq6iSNI.s:5176   .debug_str:000000000000111c .LASF275
C:\Users\stapi\AppData\Local\Temp\ccq6iSNI.s:5120   .debug_str:0000000000000e9e .LASF276
C:\Users\stapi\AppData\Local\Temp\ccq6iSNI.s:5488   .debug_str:0000000000001fff .LASF277
C:\Users\stapi\AppData\Local\Temp\ccq6iSNI.s:4834   .debug_str:0000000000000007 .LASF278
C:\Users\stapi\AppData\Local\Temp\ccq6iSNI.s:4886   .debug_str:0000000000000272 .LASF279
C:\Users\stapi\AppData\Local\Temp\ccq6iSNI.s:4926   .debug_str:0000000000000472 .LASF327
C:\Users\stapi\AppData\Local\Temp\ccq6iSNI.s:5042   .debug_str:00000000000009c7 .LASF280
C:\Users\stapi\AppData\Local\Temp\ccq6iSNI.s:5296   .debug_str:000000000000171a .LASF281
C:\Users\stapi\AppData\Local\Temp\ccq6iSNI.s:5074   .debug_str:0000000000000b7b .LASF282
C:\Users\stapi\AppData\Local\Temp\ccq6iSNI.s:5292   .debug_str:00000000000016f3 .LASF283
C:\Users\stapi\AppData\Local\Temp\ccq6iSNI.s:5390   .debug_str:0000000000001b67 .LASF291
C:\Users\stapi\AppData\Local\Temp\ccq6iSNI.s:4974   .debug_str:0000000000000692 .LASF284
C:\Users\stapi\AppData\Local\Temp\ccq6iSNI.s:941    .text.app_scan_mgr_deinit:0000000000000000 .LFB13
C:\Users\stapi\AppData\Local\Temp\ccq6iSNI.s:968    .text.app_scan_mgr_deinit:000000000000003c .LFE13
C:\Users\stapi\AppData\Local\Temp\ccq6iSNI.s:949    .text.app_scan_mgr_deinit:0000000000000010 .LVL97
C:\Users\stapi\AppData\Local\Temp\ccq6iSNI.s:962    .text.app_scan_mgr_deinit:0000000000000034 .LVL98
C:\Users\stapi\AppData\Local\Temp\ccq6iSNI.s:4840   .debug_str:0000000000000055 .LASF285
C:\Users\stapi\AppData\Local\Temp\ccq6iSNI.s:909    .text.app_scan_mgr_init:0000000000000000 .LFB12
C:\Users\stapi\AppData\Local\Temp\ccq6iSNI.s:934    .text.app_scan_mgr_init:0000000000000024 .LFE12
C:\Users\stapi\AppData\Local\Temp\ccq6iSNI.s:932    .text.app_scan_mgr_init:0000000000000024 .LVL96
C:\Users\stapi\AppData\Local\Temp\ccq6iSNI.s:5276   .debug_str:000000000000161c .LASF286
C:\Users\stapi\AppData\Local\Temp\ccq6iSNI.s:862    .text.app_scan_mgr_reset:0000000000000000 .LFB11
C:\Users\stapi\AppData\Local\Temp\ccq6iSNI.s:902    .text.app_scan_mgr_reset:000000000000004a .LFE11
C:\Users\stapi\AppData\Local\Temp\ccq6iSNI.s:870    .text.app_scan_mgr_reset:0000000000000010 .LVL93
C:\Users\stapi\AppData\Local\Temp\ccq6iSNI.s:881    .text.app_scan_mgr_reset:0000000000000022 .LVL94
C:\Users\stapi\AppData\Local\Temp\ccq6iSNI.s:894    .text.app_scan_mgr_reset:0000000000000042 .LVL95
C:\Users\stapi\AppData\Local\Temp\ccq6iSNI.s:4870   .debug_str:00000000000001c5 .LASF287
C:\Users\stapi\AppData\Local\Temp\ccq6iSNI.s:814    .text.app_scan_disable:0000000000000000 .LFB10
C:\Users\stapi\AppData\Local\Temp\ccq6iSNI.s:851    .text.app_scan_disable:0000000000000042 .LFE10
C:\Users\stapi\AppData\Local\Temp\ccq6iSNI.s:823    .text.app_scan_disable:0000000000000010 .LVL91
C:\Users\stapi\AppData\Local\Temp\ccq6iSNI.s:836    .text.app_scan_disable:0000000000000030 .LVL92
C:\Users\stapi\AppData\Local\Temp\ccq6iSNI.s:4922   .debug_str:0000000000000442 .LASF288
C:\Users\stapi\AppData\Local\Temp\ccq6iSNI.s:761    .text.app_scan_enable:0000000000000000 .LFB9
C:\Users\stapi\AppData\Local\Temp\ccq6iSNI.s:803    .text.app_scan_enable:0000000000000044 .LFE9
C:\Users\stapi\AppData\Local\Temp\ccq6iSNI.s:5450   .debug_str:0000000000001e8e .LASF290
C:\Users\stapi\AppData\Local\Temp\ccq6iSNI.s:4155   .debug_loc:0000000000000000 .LLST29
C:\Users\stapi\AppData\Local\Temp\ccq6iSNI.s:774    .text.app_scan_enable:0000000000000012 .LVL89
C:\Users\stapi\AppData\Local\Temp\ccq6iSNI.s:787    .text.app_scan_enable:0000000000000032 .LVL90
C:\Users\stapi\AppData\Local\Temp\ccq6iSNI.s:5090   .debug_str:0000000000000c53 .LASF328
C:\Users\stapi\AppData\Local\Temp\ccq6iSNI.s:5388   .debug_str:0000000000001b5c .LASF289
C:\Users\stapi\AppData\Local\Temp\ccq6iSNI.s:4996   .debug_str:00000000000007a1 .LASF329
C:\Users\stapi\AppData\Local\Temp\ccq6iSNI.s:131    .text.scan_mgr_find_dev_by_idx:0000000000000000 .LFB7
C:\Users\stapi\AppData\Local\Temp\ccq6iSNI.s:204    .text.scan_mgr_find_dev_by_idx:000000000000004c .LFE7
C:\Users\stapi\AppData\Local\Temp\ccq6iSNI.s:4169   .debug_loc:0000000000000021 .LLST4
C:\Users\stapi\AppData\Local\Temp\ccq6iSNI.s:4183   .debug_loc:0000000000000042 .LLST5
C:\Users\stapi\AppData\Local\Temp\ccq6iSNI.s:4195   .debug_loc:0000000000000061 .LLST6
C:\Users\stapi\AppData\Local\Temp\ccq6iSNI.s:4210   .debug_loc:000000000000008a .LLST7
C:\Users\stapi\AppData\Local\Temp\ccq6iSNI.s:4904   .debug_str:0000000000000332 .LASF292
C:\Users\stapi\AppData\Local\Temp\ccq6iSNI.s:4226   .debug_loc:00000000000000b4 .LLST8
C:\Users\stapi\AppData\Local\Temp\ccq6iSNI.s:154    .text.scan_mgr_find_dev_by_idx:000000000000001e .LVL15
C:\Users\stapi\AppData\Local\Temp\ccq6iSNI.s:5052   .debug_str:0000000000000a32 .LASF293
C:\Users\stapi\AppData\Local\Temp\ccq6iSNI.s:21     .text.scan_mgr_list_scanned_devices:0000000000000000 .LFB6
C:\Users\stapi\AppData\Local\Temp\ccq6iSNI.s:124    .text.scan_mgr_list_scanned_devices:000000000000009e .LFE6
C:\Users\stapi\AppData\Local\Temp\ccq6iSNI.s:4246   .debug_loc:00000000000000e9 .LLST0
C:\Users\stapi\AppData\Local\Temp\ccq6iSNI.s:4263   .debug_loc:0000000000000114 .LLST1
C:\Users\stapi\AppData\Local\Temp\ccq6iSNI.s:4274   .debug_loc:0000000000000132 .LLST2
C:\Users\stapi\AppData\Local\Temp\ccq6iSNI.s:4286   .debug_loc:0000000000000151 .LLST3
C:\Users\stapi\AppData\Local\Temp\ccq6iSNI.s:44     .text.scan_mgr_list_scanned_devices:000000000000001c .LVL1
C:\Users\stapi\AppData\Local\Temp\ccq6iSNI.s:57     .text.scan_mgr_list_scanned_devices:000000000000003c .LVL2
C:\Users\stapi\AppData\Local\Temp\ccq6iSNI.s:108    .text.scan_mgr_list_scanned_devices:0000000000000090 .LVL9
C:\Users\stapi\AppData\Local\Temp\ccq6iSNI.s:5262   .debug_str:000000000000156d .LASF295
C:\Users\stapi\AppData\Local\Temp\ccq6iSNI.s:5182   .debug_str:0000000000001161 .LASF294
C:\Users\stapi\AppData\Local\Temp\ccq6iSNI.s:5438   .debug_str:0000000000001ded .LASF296
C:\Users\stapi\AppData\Local\Temp\ccq6iSNI.s:5372   .debug_str:0000000000001ab2 .LASF297
C:\Users\stapi\AppData\Local\Temp\ccq6iSNI.s:5472   .debug_str:0000000000001f8e .LASF298
C:\Users\stapi\AppData\Local\Temp\ccq6iSNI.s:4964   .debug_str:0000000000000631 .LASF299
C:\Users\stapi\AppData\Local\Temp\ccq6iSNI.s:5010   .debug_str:0000000000000840 .LASF300
C:\Users\stapi\AppData\Local\Temp\ccq6iSNI.s:5284   .debug_str:000000000000168a .LASF302
C:\Users\stapi\AppData\Local\Temp\ccq6iSNI.s:5330   .debug_str:00000000000018c0 .LASF301
C:\Users\stapi\AppData\Local\Temp\ccq6iSNI.s:5132   .debug_str:0000000000000f3c .LASF303
C:\Users\stapi\AppData\Local\Temp\ccq6iSNI.s:4928   .debug_str:0000000000000485 .LASF304
C:\Users\stapi\AppData\Local\Temp\ccq6iSNI.s:211    .text.scan_mgr_clear_dev_list:0000000000000000 .LFB8
C:\Users\stapi\AppData\Local\Temp\ccq6iSNI.s:283    .text.scan_mgr_clear_dev_list:0000000000000054 .LFE8
C:\Users\stapi\AppData\Local\Temp\ccq6iSNI.s:235    .text.scan_mgr_clear_dev_list:0000000000000020 .LBB4
C:\Users\stapi\AppData\Local\Temp\ccq6iSNI.s:4307   .debug_loc:0000000000000187 .LLST9
C:\Users\stapi\AppData\Local\Temp\ccq6iSNI.s:4319   .debug_loc:00000000000001a6 .LLST10
C:\Users\stapi\AppData\Local\Temp\ccq6iSNI.s:4343   .debug_loc:00000000000001e6 .LLST11
C:\Users\stapi\AppData\Local\Temp\ccq6iSNI.s:270    .text.scan_mgr_clear_dev_list:0000000000000044 .LVL30
C:\Users\stapi\AppData\Local\Temp\ccq6iSNI.s:274    .text.scan_mgr_clear_dev_list:000000000000004e .LVL31
C:\Users\stapi\AppData\Local\Temp\ccq6iSNI.s:232    .text.scan_mgr_clear_dev_list:000000000000001e .LVL25
C:\Users\stapi\AppData\Local\Temp\ccq6iSNI.s:302    .text.ble_app_scan_mgr_evt_handler:0000000000000000 .LFB5
C:\Users\stapi\AppData\Local\Temp\ccq6iSNI.s:750    .text.ble_app_scan_mgr_evt_handler:000000000000028e .LFE5
C:\Users\stapi\AppData\Local\Temp\ccq6iSNI.s:4363   .debug_loc:000000000000021b .LLST12
C:\Users\stapi\AppData\Local\Temp\ccq6iSNI.s:4421   .debug_loc:00000000000002a0 .LLST13
C:\Users\stapi\AppData\Local\Temp\ccq6iSNI.s:341    .text.ble_app_scan_mgr_evt_handler:000000000000001c .LBB19
C:\Users\stapi\AppData\Local\Temp\ccq6iSNI.s:395    .text.ble_app_scan_mgr_evt_handler:0000000000000072 .LBE19
C:\Users\stapi\AppData\Local\Temp\ccq6iSNI.s:4479   .debug_loc:0000000000000325 .LLST14
C:\Users\stapi\AppData\Local\Temp\ccq6iSNI.s:4487   .debug_loc:0000000000000339 .LLST15
C:\Users\stapi\AppData\Local\Temp\ccq6iSNI.s:363    .text.ble_app_scan_mgr_evt_handler:0000000000000044 .LVL38
C:\Users\stapi\AppData\Local\Temp\ccq6iSNI.s:373    .text.ble_app_scan_mgr_evt_handler:0000000000000054 .LVL40
C:\Users\stapi\AppData\Local\Temp\ccq6iSNI.s:399    .text.ble_app_scan_mgr_evt_handler:0000000000000074 .LBB21
C:\Users\stapi\AppData\Local\Temp\ccq6iSNI.s:4523   .debug_loc:000000000000038c .LLST16
C:\Users\stapi\AppData\Local\Temp\ccq6iSNI.s:4534   .debug_loc:00000000000003aa .LLST17
C:\Users\stapi\AppData\Local\Temp\ccq6iSNI.s:4571   .debug_loc:000000000000040c .LLST18
C:\Users\stapi\AppData\Local\Temp\ccq6iSNI.s:410    .text.ble_app_scan_mgr_evt_handler:000000000000007a .LBB23
C:\Users\stapi\AppData\Local\Temp\ccq6iSNI.s:4586   .debug_loc:0000000000000435 .LLST19
C:\Users\stapi\AppData\Local\Temp\ccq6iSNI.s:4601   .debug_loc:0000000000000457 .LLST20
C:\Users\stapi\AppData\Local\Temp\ccq6iSNI.s:4620   .debug_loc:000000000000048b .LLST21
C:\Users\stapi\AppData\Local\Temp\ccq6iSNI.s:4640   .debug_loc:00000000000004c0 .LLST22
C:\Users\stapi\AppData\Local\Temp\ccq6iSNI.s:431    .text.ble_app_scan_mgr_evt_handler:000000000000009a .LVL49
C:\Users\stapi\AppData\Local\Temp\ccq6iSNI.s:669    .text.ble_app_scan_mgr_evt_handler:0000000000000214 .LVL78
C:\Users\stapi\AppData\Local\Temp\ccq6iSNI.s:4652   .debug_loc:00000000000004df .LLST23
C:\Users\stapi\AppData\Local\Temp\ccq6iSNI.s:522    .text.ble_app_scan_mgr_evt_handler:0000000000000126 .LBB29
C:\Users\stapi\AppData\Local\Temp\ccq6iSNI.s:4659   .debug_loc:00000000000004f2 .LLST24
C:\Users\stapi\AppData\Local\Temp\ccq6iSNI.s:4674   .debug_loc:0000000000000514 .LLST25
C:\Users\stapi\AppData\Local\Temp\ccq6iSNI.s:564    .text.ble_app_scan_mgr_evt_handler:0000000000000168 .LBB31
C:\Users\stapi\AppData\Local\Temp\ccq6iSNI.s:4690   .debug_loc:000000000000053e .LLST26
C:\Users\stapi\AppData\Local\Temp\ccq6iSNI.s:4710   .debug_loc:0000000000000573 .LLST27
C:\Users\stapi\AppData\Local\Temp\ccq6iSNI.s:4725   .debug_loc:000000000000059c .LLST28
C:\Users\stapi\AppData\Local\Temp\ccq6iSNI.s:572    .text.ble_app_scan_mgr_evt_handler:0000000000000172 .LVL67
C:\Users\stapi\AppData\Local\Temp\ccq6iSNI.s:529    .text.ble_app_scan_mgr_evt_handler:0000000000000130 .LVL62
C:\Users\stapi\AppData\Local\Temp\ccq6iSNI.s:543    .text.ble_app_scan_mgr_evt_handler:000000000000014a .LVL64
C:\Users\stapi\AppData\Local\Temp\ccq6iSNI.s:557    .text.ble_app_scan_mgr_evt_handler:000000000000015c .LVL65
C:\Users\stapi\AppData\Local\Temp\ccq6iSNI.s:562    .text.ble_app_scan_mgr_evt_handler:0000000000000168 .LVL66
C:\Users\stapi\AppData\Local\Temp\ccq6iSNI.s:600    .text.ble_app_scan_mgr_evt_handler:0000000000000190 .LVL72
C:\Users\stapi\AppData\Local\Temp\ccq6iSNI.s:638    .text.ble_app_scan_mgr_evt_handler:00000000000001ee .LVL74
C:\Users\stapi\AppData\Local\Temp\ccq6iSNI.s:419    .text.ble_app_scan_mgr_evt_handler:0000000000000088 .LVL48
C:\Users\stapi\AppData\Local\Temp\ccq6iSNI.s:464    .text.ble_app_scan_mgr_evt_handler:00000000000000ce .LVL53
C:\Users\stapi\AppData\Local\Temp\ccq6iSNI.s:483    .text.ble_app_scan_mgr_evt_handler:00000000000000f0 .LVL54
C:\Users\stapi\AppData\Local\Temp\ccq6iSNI.s:497    .text.ble_app_scan_mgr_evt_handler:0000000000000108 .LVL57
C:\Users\stapi\AppData\Local\Temp\ccq6iSNI.s:514    .text.ble_app_scan_mgr_evt_handler:0000000000000122 .LVL60
C:\Users\stapi\AppData\Local\Temp\ccq6iSNI.s:745    .text.ble_app_scan_mgr_evt_handler:000000000000028c .LVL87
C:\Users\stapi\AppData\Local\Temp\ccq6iSNI.s:4882   .debug_str:0000000000000237 .LASF305
C:\Users\stapi\AppData\Local\Temp\ccq6iSNI.s:4848   .debug_str:00000000000000b2 .LASF306
C:\Users\stapi\AppData\Local\Temp\ccq6iSNI.s:5008   .debug_str:0000000000000830 .LASF307
C:\Users\stapi\AppData\Local\Temp\ccq6iSNI.s:5376   .debug_str:0000000000001acd .LASF308
C:\Users\stapi\AppData\Local\Temp\ccq6iSNI.s:5196   .debug_str:0000000000001243 .LASF309
C:\Users\stapi\AppData\Local\Temp\ccq6iSNI.s:4952   .debug_str:00000000000005a7 .LASF310
C:\Users\stapi\AppData\Local\Temp\ccq6iSNI.s:5206   .debug_str:00000000000012c4 .LASF311
C:\Users\stapi\AppData\Local\Temp\ccq6iSNI.s:5322   .debug_str:000000000000185f .LASF312
C:\Users\stapi\AppData\Local\Temp\ccq6iSNI.s:5350   .debug_str:00000000000019b8 .LASF313
C:\Users\stapi\AppData\Local\Temp\ccq6iSNI.s:5338   .debug_str:000000000000192b .LASF314
C:\Users\stapi\AppData\Local\Temp\ccq6iSNI.s:4970   .debug_str:0000000000000679 .LASF315
C:\Users\stapi\AppData\Local\Temp\ccq6iSNI.s:5312   .debug_str:00000000000017dc .LASF316
C:\Users\stapi\AppData\Local\Temp\ccq6iSNI.s:4920   .debug_str:0000000000000431 .LASF318
C:\Users\stapi\AppData\Local\Temp\ccq6iSNI.s:5410   .debug_str:0000000000001c7f .LASF317
C:\Users\stapi\AppData\Local\Temp\ccq6iSNI.s:5026   .debug_str:00000000000008ff .LASF319
C:\Users\stapi\AppData\Local\Temp\ccq6iSNI.s:5214   .debug_str:000000000000131b .LASF320
C:\Users\stapi\AppData\Local\Temp\ccq6iSNI.s:5414   .debug_str:0000000000001ca5 .LASF321
C:\Users\stapi\AppData\Local\Temp\ccq6iSNI.s:5416   .debug_str:0000000000001cc8 .LASF322
C:\Users\stapi\AppData\Local\Temp\ccq6iSNI.s:764    .text.app_scan_enable:0000000000000000 .LVL88
C:\Users\stapi\AppData\Local\Temp\ccq6iSNI.s:134    .text.scan_mgr_find_dev_by_idx:0000000000000000 .LVL12
C:\Users\stapi\AppData\Local\Temp\ccq6iSNI.s:152    .text.scan_mgr_find_dev_by_idx:0000000000000016 .LVL14
C:\Users\stapi\AppData\Local\Temp\ccq6iSNI.s:141    .text.scan_mgr_find_dev_by_idx:0000000000000008 .LVL13
C:\Users\stapi\AppData\Local\Temp\ccq6iSNI.s:167    .text.scan_mgr_find_dev_by_idx:000000000000002e .LVL18
C:\Users\stapi\AppData\Local\Temp\ccq6iSNI.s:183    .text.scan_mgr_find_dev_by_idx:000000000000003c .LVL20
C:\Users\stapi\AppData\Local\Temp\ccq6iSNI.s:196    .text.scan_mgr_find_dev_by_idx:0000000000000044 .LVL22
C:\Users\stapi\AppData\Local\Temp\ccq6iSNI.s:162    .text.scan_mgr_find_dev_by_idx:000000000000002a .LVL16
C:\Users\stapi\AppData\Local\Temp\ccq6iSNI.s:171    .text.scan_mgr_find_dev_by_idx:0000000000000032 .LVL19
C:\Users\stapi\AppData\Local\Temp\ccq6iSNI.s:199    .text.scan_mgr_find_dev_by_idx:0000000000000048 .LVL23
C:\Users\stapi\AppData\Local\Temp\ccq6iSNI.s:164    .text.scan_mgr_find_dev_by_idx:000000000000002c .LVL17
C:\Users\stapi\AppData\Local\Temp\ccq6iSNI.s:193    .text.scan_mgr_find_dev_by_idx:0000000000000042 .LVL21
C:\Users\stapi\AppData\Local\Temp\ccq6iSNI.s:35     .text.scan_mgr_list_scanned_devices:0000000000000008 .LVL0
C:\Users\stapi\AppData\Local\Temp\ccq6iSNI.s:70     .text.scan_mgr_list_scanned_devices:0000000000000044 .LVL3
C:\Users\stapi\AppData\Local\Temp\ccq6iSNI.s:87     .text.scan_mgr_list_scanned_devices:000000000000005e .LVL6
C:\Users\stapi\AppData\Local\Temp\ccq6iSNI.s:92     .text.scan_mgr_list_scanned_devices:0000000000000062 .LVL7
C:\Users\stapi\AppData\Local\Temp\ccq6iSNI.s:104    .text.scan_mgr_list_scanned_devices:0000000000000082 .LVL8
C:\Users\stapi\AppData\Local\Temp\ccq6iSNI.s:78     .text.scan_mgr_list_scanned_devices:000000000000004e .LVL4
C:\Users\stapi\AppData\Local\Temp\ccq6iSNI.s:119    .text.scan_mgr_list_scanned_devices:0000000000000098 .LVL11
C:\Users\stapi\AppData\Local\Temp\ccq6iSNI.s:80     .text.scan_mgr_list_scanned_devices:0000000000000052 .LVL5
C:\Users\stapi\AppData\Local\Temp\ccq6iSNI.s:114    .text.scan_mgr_list_scanned_devices:0000000000000092 .LVL10
C:\Users\stapi\AppData\Local\Temp\ccq6iSNI.s:261    .text.scan_mgr_clear_dev_list:000000000000003a .LVL29
C:\Users\stapi\AppData\Local\Temp\ccq6iSNI.s:242    .text.scan_mgr_clear_dev_list:000000000000002a .LVL26
C:\Users\stapi\AppData\Local\Temp\ccq6iSNI.s:248    .text.scan_mgr_clear_dev_list:0000000000000030 .LVL28
C:\Users\stapi\AppData\Local\Temp\ccq6iSNI.s:278    .text.scan_mgr_clear_dev_list:0000000000000052 .LVL32
C:\Users\stapi\AppData\Local\Temp\ccq6iSNI.s:244    .text.scan_mgr_clear_dev_list:000000000000002c .LVL27
C:\Users\stapi\AppData\Local\Temp\ccq6iSNI.s:305    .text.ble_app_scan_mgr_evt_handler:0000000000000000 .LVL33
C:\Users\stapi\AppData\Local\Temp\ccq6iSNI.s:323    .text.ble_app_scan_mgr_evt_handler:0000000000000012 .LVL34
C:\Users\stapi\AppData\Local\Temp\ccq6iSNI.s:338    .text.ble_app_scan_mgr_evt_handler:000000000000001c .LVL35
C:\Users\stapi\AppData\Local\Temp\ccq6iSNI.s:358    .text.ble_app_scan_mgr_evt_handler:0000000000000038 .LVL37
C:\Users\stapi\AppData\Local\Temp\ccq6iSNI.s:365    .text.ble_app_scan_mgr_evt_handler:0000000000000046 .LVL39
C:\Users\stapi\AppData\Local\Temp\ccq6iSNI.s:375    .text.ble_app_scan_mgr_evt_handler:0000000000000056 .LVL41
C:\Users\stapi\AppData\Local\Temp\ccq6iSNI.s:387    .text.ble_app_scan_mgr_evt_handler:0000000000000068 .LVL42
C:\Users\stapi\AppData\Local\Temp\ccq6iSNI.s:392    .text.ble_app_scan_mgr_evt_handler:0000000000000072 .LVL44
C:\Users\stapi\AppData\Local\Temp\ccq6iSNI.s:409    .text.ble_app_scan_mgr_evt_handler:000000000000007a .LVL47
C:\Users\stapi\AppData\Local\Temp\ccq6iSNI.s:356    .text.ble_app_scan_mgr_evt_handler:0000000000000034 .LVL36
C:\Users\stapi\AppData\Local\Temp\ccq6iSNI.s:389    .text.ble_app_scan_mgr_evt_handler:000000000000006c .LVL43
C:\Users\stapi\AppData\Local\Temp\ccq6iSNI.s:407    .text.ble_app_scan_mgr_evt_handler:0000000000000078 .LVL46
C:\Users\stapi\AppData\Local\Temp\ccq6iSNI.s:398    .text.ble_app_scan_mgr_evt_handler:0000000000000074 .LVL45
C:\Users\stapi\AppData\Local\Temp\ccq6iSNI.s:647    .text.ble_app_scan_mgr_evt_handler:00000000000001f6 .LVL76
C:\Users\stapi\AppData\Local\Temp\ccq6iSNI.s:652    .text.ble_app_scan_mgr_evt_handler:00000000000001f8 .LVL77
C:\Users\stapi\AppData\Local\Temp\ccq6iSNI.s:485    .text.ble_app_scan_mgr_evt_handler:00000000000000f2 .LVL55
C:\Users\stapi\AppData\Local\Temp\ccq6iSNI.s:493    .text.ble_app_scan_mgr_evt_handler:00000000000000fa .LVL56
C:\Users\stapi\AppData\Local\Temp\ccq6iSNI.s:499    .text.ble_app_scan_mgr_evt_handler:000000000000010a .LVL58
C:\Users\stapi\AppData\Local\Temp\ccq6iSNI.s:511    .text.ble_app_scan_mgr_evt_handler:0000000000000116 .LVL59
C:\Users\stapi\AppData\Local\Temp\ccq6iSNI.s:645    .text.ble_app_scan_mgr_evt_handler:00000000000001f2 .LVL75
C:\Users\stapi\AppData\Local\Temp\ccq6iSNI.s:680    .text.ble_app_scan_mgr_evt_handler:0000000000000220 .LVL82
C:\Users\stapi\AppData\Local\Temp\ccq6iSNI.s:451    .text.ble_app_scan_mgr_evt_handler:00000000000000b8 .LVL52
C:\Users\stapi\AppData\Local\Temp\ccq6iSNI.s:531    .text.ble_app_scan_mgr_evt_handler:0000000000000132 .LVL63
C:\Users\stapi\AppData\Local\Temp\ccq6iSNI.s:602    .text.ble_app_scan_mgr_evt_handler:0000000000000192 .LVL73
C:\Users\stapi\AppData\Local\Temp\ccq6iSNI.s:702    .text.ble_app_scan_mgr_evt_handler:000000000000022c .LVL86
C:\Users\stapi\AppData\Local\Temp\ccq6iSNI.s:440    .text.ble_app_scan_mgr_evt_handler:00000000000000aa .LVL50
C:\Users\stapi\AppData\Local\Temp\ccq6iSNI.s:674    .text.ble_app_scan_mgr_evt_handler:0000000000000218 .LVL79
C:\Users\stapi\AppData\Local\Temp\ccq6iSNI.s:678    .text.ble_app_scan_mgr_evt_handler:000000000000021e .LVL81
C:\Users\stapi\AppData\Local\Temp\ccq6iSNI.s:445    .text.ble_app_scan_mgr_evt_handler:00000000000000b2 .LVL51
C:\Users\stapi\AppData\Local\Temp\ccq6iSNI.s:676    .text.ble_app_scan_mgr_evt_handler:000000000000021a .LVL80
C:\Users\stapi\AppData\Local\Temp\ccq6iSNI.s:593    .text.ble_app_scan_mgr_evt_handler:0000000000000186 .LVL71
C:\Users\stapi\AppData\Local\Temp\ccq6iSNI.s:521    .text.ble_app_scan_mgr_evt_handler:0000000000000126 .LVL61
C:\Users\stapi\AppData\Local\Temp\ccq6iSNI.s:581    .text.ble_app_scan_mgr_evt_handler:000000000000017c .LVL69
C:\Users\stapi\AppData\Local\Temp\ccq6iSNI.s:585    .text.ble_app_scan_mgr_evt_handler:0000000000000180 .LVL70
C:\Users\stapi\AppData\Local\Temp\ccq6iSNI.s:692    .text.ble_app_scan_mgr_evt_handler:0000000000000222 .LVL83
C:\Users\stapi\AppData\Local\Temp\ccq6iSNI.s:698    .text.ble_app_scan_mgr_evt_handler:0000000000000228 .LVL85
C:\Users\stapi\AppData\Local\Temp\ccq6iSNI.s:579    .text.ble_app_scan_mgr_evt_handler:000000000000017a .LVL68
C:\Users\stapi\AppData\Local\Temp\ccq6iSNI.s:695    .text.ble_app_scan_mgr_evt_handler:0000000000000224 .LVL84
C:\Users\stapi\AppData\Local\Temp\ccq6iSNI.s:995    .debug_info:0000000000000000 .Ldebug_info0
C:\Users\stapi\AppData\Local\Temp\ccq6iSNI.s:251    .text.scan_mgr_clear_dev_list:0000000000000030 .LBE4
C:\Users\stapi\AppData\Local\Temp\ccq6iSNI.s:264    .text.scan_mgr_clear_dev_list:000000000000003a .LBB7
C:\Users\stapi\AppData\Local\Temp\ccq6iSNI.s:281    .text.scan_mgr_clear_dev_list:0000000000000054 .LBE7
C:\Users\stapi\AppData\Local\Temp\ccq6iSNI.s:649    .text.ble_app_scan_mgr_evt_handler:00000000000001f6 .LBE21
C:\Users\stapi\AppData\Local\Temp\ccq6iSNI.s:654    .text.ble_app_scan_mgr_evt_handler:00000000000001f8 .LBB40
C:\Users\stapi\AppData\Local\Temp\ccq6iSNI.s:748    .text.ble_app_scan_mgr_evt_handler:000000000000028e .LBE40
C:\Users\stapi\AppData\Local\Temp\ccq6iSNI.s:415    .text.ble_app_scan_mgr_evt_handler:000000000000007e .LBE23
C:\Users\stapi\AppData\Local\Temp\ccq6iSNI.s:421    .text.ble_app_scan_mgr_evt_handler:0000000000000088 .LBB27
C:\Users\stapi\AppData\Local\Temp\ccq6iSNI.s:454    .text.ble_app_scan_mgr_evt_handler:00000000000000b8 .LBE27
C:\Users\stapi\AppData\Local\Temp\ccq6iSNI.s:656    .text.ble_app_scan_mgr_evt_handler:00000000000001f8 .LBB37
C:\Users\stapi\AppData\Local\Temp\ccq6iSNI.s:683    .text.ble_app_scan_mgr_evt_handler:0000000000000220 .LBE37
C:\Users\stapi\AppData\Local\Temp\ccq6iSNI.s:519    .text.ble_app_scan_mgr_evt_handler:0000000000000126 .LBB28
C:\Users\stapi\AppData\Local\Temp\ccq6iSNI.s:640    .text.ble_app_scan_mgr_evt_handler:00000000000001ee .LBE28
C:\Users\stapi\AppData\Local\Temp\ccq6iSNI.s:684    .text.ble_app_scan_mgr_evt_handler:0000000000000220 .LBB38
C:\Users\stapi\AppData\Local\Temp\ccq6iSNI.s:708    .text.ble_app_scan_mgr_evt_handler:000000000000022c .LBE38
C:\Users\stapi\AppData\Local\Temp\ccq6iSNI.s:595    .text.ble_app_scan_mgr_evt_handler:0000000000000186 .LBE29
C:\Users\stapi\AppData\Local\Temp\ccq6iSNI.s:685    .text.ble_app_scan_mgr_evt_handler:0000000000000220 .LBB36
C:\Users\stapi\AppData\Local\Temp\ccq6iSNI.s:707    .text.ble_app_scan_mgr_evt_handler:000000000000022c .LBE36
C:\Users\stapi\AppData\Local\Temp\ccq6iSNI.s:588    .text.ble_app_scan_mgr_evt_handler:0000000000000180 .LBE31
C:\Users\stapi\AppData\Local\Temp\ccq6iSNI.s:687    .text.ble_app_scan_mgr_evt_handler:0000000000000220 .LBB34
C:\Users\stapi\AppData\Local\Temp\ccq6iSNI.s:705    .text.ble_app_scan_mgr_evt_handler:000000000000022c .LBE34

UNDEFINED SYMBOLS
__riscv_save_6
list_empty
global_debug_level
co_printf
__riscv_restore_6
__riscv_save_2
__riscv_restore_2
list_del
sys_mfree
memset
ble_per_sync_mgr_find_alloc_device
ble_adv_find
memcpy
sys_malloc
list_add_tail
memcmp
__riscv_save_1
ble_scan_enable
__riscv_restore_1
__riscv_save_0
ble_scan_disable
__riscv_restore_0
ble_scan_reinit
ble_scan_callback_register
ble_scan_callback_unregister
