   1              		.file	"app_adv_mgr.c"
   2              		.option nopic
   3              		.attribute arch, "rv32i2p0_m2p0_a2p0_f2p0_c2p0_b_p0p94"
   4              		.attribute unaligned_access, 0
   5              		.attribute stack_align, 16
   6              		.text
   7              	.Ltext0:
   8              		.cfi_sections	.debug_frame
   9              		.section	.text.app_build_adv_data,"ax",@progbits
  10              		.align	1
  12              	app_build_adv_data:
  13              	.LFB4:
  14              		.file 1 "C:/Users/stapi/OneDrive/Desktop/GD32VW553/V1_MQTT_OK/GD32VW55X_Wifi_BLE_SDK/GD32VW55x_REL
   1:C:/Users/stapi/OneDrive/Desktop/GD32VW553/V1_MQTT_OK/GD32VW55X_Wifi_BLE_SDK/GD32VW55x_RELEASE_V1.0.2/MSDK/ble/app\app_adv_mgr.c **** /*!
   2:C:/Users/stapi/OneDrive/Desktop/GD32VW553/V1_MQTT_OK/GD32VW55X_Wifi_BLE_SDK/GD32VW55x_RELEASE_V1.0.2/MSDK/ble/app\app_adv_mgr.c ****     \file    app_adv_mgr.c
   3:C:/Users/stapi/OneDrive/Desktop/GD32VW553/V1_MQTT_OK/GD32VW55X_Wifi_BLE_SDK/GD32VW55x_RELEASE_V1.0.2/MSDK/ble/app\app_adv_mgr.c ****     \brief   Implementation of BLE application advertising manager to advertise.
   4:C:/Users/stapi/OneDrive/Desktop/GD32VW553/V1_MQTT_OK/GD32VW55X_Wifi_BLE_SDK/GD32VW55x_RELEASE_V1.0.2/MSDK/ble/app\app_adv_mgr.c **** 
   5:C:/Users/stapi/OneDrive/Desktop/GD32VW553/V1_MQTT_OK/GD32VW55X_Wifi_BLE_SDK/GD32VW55x_RELEASE_V1.0.2/MSDK/ble/app\app_adv_mgr.c ****     \version 2023-07-20, V1.0.0, firmware for GD32VW55x
   6:C:/Users/stapi/OneDrive/Desktop/GD32VW553/V1_MQTT_OK/GD32VW55X_Wifi_BLE_SDK/GD32VW55x_RELEASE_V1.0.2/MSDK/ble/app\app_adv_mgr.c **** */
   7:C:/Users/stapi/OneDrive/Desktop/GD32VW553/V1_MQTT_OK/GD32VW55X_Wifi_BLE_SDK/GD32VW55x_RELEASE_V1.0.2/MSDK/ble/app\app_adv_mgr.c **** 
   8:C:/Users/stapi/OneDrive/Desktop/GD32VW553/V1_MQTT_OK/GD32VW55X_Wifi_BLE_SDK/GD32VW55x_RELEASE_V1.0.2/MSDK/ble/app\app_adv_mgr.c **** /*
   9:C:/Users/stapi/OneDrive/Desktop/GD32VW553/V1_MQTT_OK/GD32VW55X_Wifi_BLE_SDK/GD32VW55x_RELEASE_V1.0.2/MSDK/ble/app\app_adv_mgr.c ****     Copyright (c) 2023, GigaDevice Semiconductor Inc.
  10:C:/Users/stapi/OneDrive/Desktop/GD32VW553/V1_MQTT_OK/GD32VW55X_Wifi_BLE_SDK/GD32VW55x_RELEASE_V1.0.2/MSDK/ble/app\app_adv_mgr.c **** 
  11:C:/Users/stapi/OneDrive/Desktop/GD32VW553/V1_MQTT_OK/GD32VW55X_Wifi_BLE_SDK/GD32VW55x_RELEASE_V1.0.2/MSDK/ble/app\app_adv_mgr.c ****     Redistribution and use in source and binary forms, with or without modification,
  12:C:/Users/stapi/OneDrive/Desktop/GD32VW553/V1_MQTT_OK/GD32VW55X_Wifi_BLE_SDK/GD32VW55x_RELEASE_V1.0.2/MSDK/ble/app\app_adv_mgr.c **** are permitted provided that the following conditions are met:
  13:C:/Users/stapi/OneDrive/Desktop/GD32VW553/V1_MQTT_OK/GD32VW55X_Wifi_BLE_SDK/GD32VW55x_RELEASE_V1.0.2/MSDK/ble/app\app_adv_mgr.c **** 
  14:C:/Users/stapi/OneDrive/Desktop/GD32VW553/V1_MQTT_OK/GD32VW55X_Wifi_BLE_SDK/GD32VW55x_RELEASE_V1.0.2/MSDK/ble/app\app_adv_mgr.c ****     1. Redistributions of source code must retain the above copyright notice, this
  15:C:/Users/stapi/OneDrive/Desktop/GD32VW553/V1_MQTT_OK/GD32VW55X_Wifi_BLE_SDK/GD32VW55x_RELEASE_V1.0.2/MSDK/ble/app\app_adv_mgr.c ****        list of conditions and the following disclaimer.
  16:C:/Users/stapi/OneDrive/Desktop/GD32VW553/V1_MQTT_OK/GD32VW55X_Wifi_BLE_SDK/GD32VW55x_RELEASE_V1.0.2/MSDK/ble/app\app_adv_mgr.c ****     2. Redistributions in binary form must reproduce the above copyright notice,
  17:C:/Users/stapi/OneDrive/Desktop/GD32VW553/V1_MQTT_OK/GD32VW55X_Wifi_BLE_SDK/GD32VW55x_RELEASE_V1.0.2/MSDK/ble/app\app_adv_mgr.c ****        this list of conditions and the following disclaimer in the documentation
  18:C:/Users/stapi/OneDrive/Desktop/GD32VW553/V1_MQTT_OK/GD32VW55X_Wifi_BLE_SDK/GD32VW55x_RELEASE_V1.0.2/MSDK/ble/app\app_adv_mgr.c ****        and/or other materials provided with the distribution.
  19:C:/Users/stapi/OneDrive/Desktop/GD32VW553/V1_MQTT_OK/GD32VW55X_Wifi_BLE_SDK/GD32VW55x_RELEASE_V1.0.2/MSDK/ble/app\app_adv_mgr.c ****     3. Neither the name of the copyright holder nor the names of its contributors
  20:C:/Users/stapi/OneDrive/Desktop/GD32VW553/V1_MQTT_OK/GD32VW55X_Wifi_BLE_SDK/GD32VW55x_RELEASE_V1.0.2/MSDK/ble/app\app_adv_mgr.c ****        may be used to endorse or promote products derived from this software without
  21:C:/Users/stapi/OneDrive/Desktop/GD32VW553/V1_MQTT_OK/GD32VW55X_Wifi_BLE_SDK/GD32VW55x_RELEASE_V1.0.2/MSDK/ble/app\app_adv_mgr.c ****        specific prior written permission.
  22:C:/Users/stapi/OneDrive/Desktop/GD32VW553/V1_MQTT_OK/GD32VW55X_Wifi_BLE_SDK/GD32VW55x_RELEASE_V1.0.2/MSDK/ble/app\app_adv_mgr.c **** 
  23:C:/Users/stapi/OneDrive/Desktop/GD32VW553/V1_MQTT_OK/GD32VW55X_Wifi_BLE_SDK/GD32VW55x_RELEASE_V1.0.2/MSDK/ble/app\app_adv_mgr.c ****     THIS SOFTWARE IS PROVIDED BY THE COPYRIGHT HOLDERS AND CONTRIBUTORS "AS IS"
  24:C:/Users/stapi/OneDrive/Desktop/GD32VW553/V1_MQTT_OK/GD32VW55X_Wifi_BLE_SDK/GD32VW55x_RELEASE_V1.0.2/MSDK/ble/app\app_adv_mgr.c **** AND ANY EXPRESS OR IMPLIED WARRANTIES, INCLUDING, BUT NOT LIMITED TO, THE IMPLIED
  25:C:/Users/stapi/OneDrive/Desktop/GD32VW553/V1_MQTT_OK/GD32VW55X_Wifi_BLE_SDK/GD32VW55x_RELEASE_V1.0.2/MSDK/ble/app\app_adv_mgr.c **** WARRANTIES OF MERCHANTABILITY AND FITNESS FOR A PARTICULAR PURPOSE ARE DISCLAIMED.
  26:C:/Users/stapi/OneDrive/Desktop/GD32VW553/V1_MQTT_OK/GD32VW55X_Wifi_BLE_SDK/GD32VW55x_RELEASE_V1.0.2/MSDK/ble/app\app_adv_mgr.c **** IN NO EVENT SHALL THE COPYRIGHT HOLDER OR CONTRIBUTORS BE LIABLE FOR ANY DIRECT,
  27:C:/Users/stapi/OneDrive/Desktop/GD32VW553/V1_MQTT_OK/GD32VW55X_Wifi_BLE_SDK/GD32VW55x_RELEASE_V1.0.2/MSDK/ble/app\app_adv_mgr.c **** INDIRECT, INCIDENTAL, SPECIAL, EXEMPLARY, OR CONSEQUENTIAL DAMAGES (INCLUDING, BUT
  28:C:/Users/stapi/OneDrive/Desktop/GD32VW553/V1_MQTT_OK/GD32VW55X_Wifi_BLE_SDK/GD32VW55x_RELEASE_V1.0.2/MSDK/ble/app\app_adv_mgr.c **** NOT LIMITED TO, PROCUREMENT OF SUBSTITUTE GOODS OR SERVICES; LOSS OF USE, DATA, OR
  29:C:/Users/stapi/OneDrive/Desktop/GD32VW553/V1_MQTT_OK/GD32VW55X_Wifi_BLE_SDK/GD32VW55x_RELEASE_V1.0.2/MSDK/ble/app\app_adv_mgr.c **** PROFITS; OR BUSINESS INTERRUPTION) HOWEVER CAUSED AND ON ANY THEORY OF LIABILITY,
  30:C:/Users/stapi/OneDrive/Desktop/GD32VW553/V1_MQTT_OK/GD32VW55X_Wifi_BLE_SDK/GD32VW55x_RELEASE_V1.0.2/MSDK/ble/app\app_adv_mgr.c **** WHETHER IN CONTRACT, STRICT LIABILITY, OR TORT (INCLUDING NEGLIGENCE OR OTHERWISE)
  31:C:/Users/stapi/OneDrive/Desktop/GD32VW553/V1_MQTT_OK/GD32VW55X_Wifi_BLE_SDK/GD32VW55x_RELEASE_V1.0.2/MSDK/ble/app\app_adv_mgr.c **** ARISING IN ANY WAY OUT OF THE USE OF THIS SOFTWARE, EVEN IF ADVISED OF THE POSSIBILITY
  32:C:/Users/stapi/OneDrive/Desktop/GD32VW553/V1_MQTT_OK/GD32VW55X_Wifi_BLE_SDK/GD32VW55x_RELEASE_V1.0.2/MSDK/ble/app\app_adv_mgr.c **** OF SUCH DAMAGE.
  33:C:/Users/stapi/OneDrive/Desktop/GD32VW553/V1_MQTT_OK/GD32VW55X_Wifi_BLE_SDK/GD32VW55x_RELEASE_V1.0.2/MSDK/ble/app\app_adv_mgr.c **** */
  34:C:/Users/stapi/OneDrive/Desktop/GD32VW553/V1_MQTT_OK/GD32VW55X_Wifi_BLE_SDK/GD32VW55x_RELEASE_V1.0.2/MSDK/ble/app\app_adv_mgr.c **** 
  35:C:/Users/stapi/OneDrive/Desktop/GD32VW553/V1_MQTT_OK/GD32VW55X_Wifi_BLE_SDK/GD32VW55x_RELEASE_V1.0.2/MSDK/ble/app\app_adv_mgr.c **** #include "ble_app_config.h"
  36:C:/Users/stapi/OneDrive/Desktop/GD32VW553/V1_MQTT_OK/GD32VW55X_Wifi_BLE_SDK/GD32VW55x_RELEASE_V1.0.2/MSDK/ble/app\app_adv_mgr.c **** 
  37:C:/Users/stapi/OneDrive/Desktop/GD32VW553/V1_MQTT_OK/GD32VW55X_Wifi_BLE_SDK/GD32VW55x_RELEASE_V1.0.2/MSDK/ble/app\app_adv_mgr.c **** #if (BLE_APP_SUPPORT && (BLE_CFG_ROLE & (BLE_CFG_ROLE_BROADCASTER | BLE_CFG_ROLE_PERIPHERAL)))
  38:C:/Users/stapi/OneDrive/Desktop/GD32VW553/V1_MQTT_OK/GD32VW55X_Wifi_BLE_SDK/GD32VW55x_RELEASE_V1.0.2/MSDK/ble/app\app_adv_mgr.c **** #include <string.h>
  39:C:/Users/stapi/OneDrive/Desktop/GD32VW553/V1_MQTT_OK/GD32VW55X_Wifi_BLE_SDK/GD32VW55x_RELEASE_V1.0.2/MSDK/ble/app\app_adv_mgr.c **** #include <stdlib.h>
  40:C:/Users/stapi/OneDrive/Desktop/GD32VW553/V1_MQTT_OK/GD32VW55X_Wifi_BLE_SDK/GD32VW55x_RELEASE_V1.0.2/MSDK/ble/app\app_adv_mgr.c **** #include "app_adv_mgr.h"
  41:C:/Users/stapi/OneDrive/Desktop/GD32VW553/V1_MQTT_OK/GD32VW55X_Wifi_BLE_SDK/GD32VW55x_RELEASE_V1.0.2/MSDK/ble/app\app_adv_mgr.c **** #include "app_adapter_mgr.h"
  42:C:/Users/stapi/OneDrive/Desktop/GD32VW553/V1_MQTT_OK/GD32VW55X_Wifi_BLE_SDK/GD32VW55x_RELEASE_V1.0.2/MSDK/ble/app\app_adv_mgr.c **** 
  43:C:/Users/stapi/OneDrive/Desktop/GD32VW553/V1_MQTT_OK/GD32VW55X_Wifi_BLE_SDK/GD32VW55x_RELEASE_V1.0.2/MSDK/ble/app\app_adv_mgr.c **** #include "ble_adv_data.h"
  44:C:/Users/stapi/OneDrive/Desktop/GD32VW553/V1_MQTT_OK/GD32VW55X_Wifi_BLE_SDK/GD32VW55x_RELEASE_V1.0.2/MSDK/ble/app\app_adv_mgr.c **** #include "ble_adv.h"
  45:C:/Users/stapi/OneDrive/Desktop/GD32VW553/V1_MQTT_OK/GD32VW55X_Wifi_BLE_SDK/GD32VW55x_RELEASE_V1.0.2/MSDK/ble/app\app_adv_mgr.c **** 
  46:C:/Users/stapi/OneDrive/Desktop/GD32VW553/V1_MQTT_OK/GD32VW55X_Wifi_BLE_SDK/GD32VW55x_RELEASE_V1.0.2/MSDK/ble/app\app_adv_mgr.c **** #include "wrapper_os.h"
  47:C:/Users/stapi/OneDrive/Desktop/GD32VW553/V1_MQTT_OK/GD32VW55X_Wifi_BLE_SDK/GD32VW55x_RELEASE_V1.0.2/MSDK/ble/app\app_adv_mgr.c **** #include "dbg_print.h"
  48:C:/Users/stapi/OneDrive/Desktop/GD32VW553/V1_MQTT_OK/GD32VW55X_Wifi_BLE_SDK/GD32VW55x_RELEASE_V1.0.2/MSDK/ble/app\app_adv_mgr.c **** 
  49:C:/Users/stapi/OneDrive/Desktop/GD32VW553/V1_MQTT_OK/GD32VW55X_Wifi_BLE_SDK/GD32VW55x_RELEASE_V1.0.2/MSDK/ble/app\app_adv_mgr.c **** /* Max advertising set number */
  50:C:/Users/stapi/OneDrive/Desktop/GD32VW553/V1_MQTT_OK/GD32VW55X_Wifi_BLE_SDK/GD32VW55x_RELEASE_V1.0.2/MSDK/ble/app\app_adv_mgr.c **** #define APP_ADV_SET_NUM         2
  51:C:/Users/stapi/OneDrive/Desktop/GD32VW553/V1_MQTT_OK/GD32VW55X_Wifi_BLE_SDK/GD32VW55x_RELEASE_V1.0.2/MSDK/ble/app\app_adv_mgr.c **** 
  52:C:/Users/stapi/OneDrive/Desktop/GD32VW553/V1_MQTT_OK/GD32VW55X_Wifi_BLE_SDK/GD32VW55x_RELEASE_V1.0.2/MSDK/ble/app\app_adv_mgr.c **** /* Invalid advertising index */
  53:C:/Users/stapi/OneDrive/Desktop/GD32VW553/V1_MQTT_OK/GD32VW55X_Wifi_BLE_SDK/GD32VW55x_RELEASE_V1.0.2/MSDK/ble/app\app_adv_mgr.c **** #define ADV_INVALID_IDX         (0xFF)
  54:C:/Users/stapi/OneDrive/Desktop/GD32VW553/V1_MQTT_OK/GD32VW55X_Wifi_BLE_SDK/GD32VW55x_RELEASE_V1.0.2/MSDK/ble/app\app_adv_mgr.c **** 
  55:C:/Users/stapi/OneDrive/Desktop/GD32VW553/V1_MQTT_OK/GD32VW55X_Wifi_BLE_SDK/GD32VW55x_RELEASE_V1.0.2/MSDK/ble/app\app_adv_mgr.c **** /* Advertising channel map */
  56:C:/Users/stapi/OneDrive/Desktop/GD32VW553/V1_MQTT_OK/GD32VW55X_Wifi_BLE_SDK/GD32VW55x_RELEASE_V1.0.2/MSDK/ble/app\app_adv_mgr.c **** #define APP_ADV_CHMAP           (0x07)
  57:C:/Users/stapi/OneDrive/Desktop/GD32VW553/V1_MQTT_OK/GD32VW55X_Wifi_BLE_SDK/GD32VW55x_RELEASE_V1.0.2/MSDK/ble/app\app_adv_mgr.c **** 
  58:C:/Users/stapi/OneDrive/Desktop/GD32VW553/V1_MQTT_OK/GD32VW55X_Wifi_BLE_SDK/GD32VW55x_RELEASE_V1.0.2/MSDK/ble/app\app_adv_mgr.c **** /* Minimum advertising interval - 100ms */
  59:C:/Users/stapi/OneDrive/Desktop/GD32VW553/V1_MQTT_OK/GD32VW55X_Wifi_BLE_SDK/GD32VW55x_RELEASE_V1.0.2/MSDK/ble/app\app_adv_mgr.c **** #define APP_ADV_INT_MIN         (160)
  60:C:/Users/stapi/OneDrive/Desktop/GD32VW553/V1_MQTT_OK/GD32VW55X_Wifi_BLE_SDK/GD32VW55x_RELEASE_V1.0.2/MSDK/ble/app\app_adv_mgr.c **** /* Maximum advertising interval - 100ms */
  61:C:/Users/stapi/OneDrive/Desktop/GD32VW553/V1_MQTT_OK/GD32VW55X_Wifi_BLE_SDK/GD32VW55x_RELEASE_V1.0.2/MSDK/ble/app\app_adv_mgr.c **** #define APP_ADV_INT_MAX         (160)
  62:C:/Users/stapi/OneDrive/Desktop/GD32VW553/V1_MQTT_OK/GD32VW55X_Wifi_BLE_SDK/GD32VW55x_RELEASE_V1.0.2/MSDK/ble/app\app_adv_mgr.c **** 
  63:C:/Users/stapi/OneDrive/Desktop/GD32VW553/V1_MQTT_OK/GD32VW55X_Wifi_BLE_SDK/GD32VW55x_RELEASE_V1.0.2/MSDK/ble/app\app_adv_mgr.c **** /* Advertising data used for test */
  64:C:/Users/stapi/OneDrive/Desktop/GD32VW553/V1_MQTT_OK/GD32VW55X_Wifi_BLE_SDK/GD32VW55x_RELEASE_V1.0.2/MSDK/ble/app\app_adv_mgr.c **** static uint8_t adv_data_1[7] = {0x06, 0x16, 0x52, 0x18, 0x18, 0x36, 0x9A};
  65:C:/Users/stapi/OneDrive/Desktop/GD32VW553/V1_MQTT_OK/GD32VW55X_Wifi_BLE_SDK/GD32VW55x_RELEASE_V1.0.2/MSDK/ble/app\app_adv_mgr.c **** 
  66:C:/Users/stapi/OneDrive/Desktop/GD32VW553/V1_MQTT_OK/GD32VW55X_Wifi_BLE_SDK/GD32VW55x_RELEASE_V1.0.2/MSDK/ble/app\app_adv_mgr.c **** /* Periodic advertising data used for test */
  67:C:/Users/stapi/OneDrive/Desktop/GD32VW553/V1_MQTT_OK/GD32VW55X_Wifi_BLE_SDK/GD32VW55x_RELEASE_V1.0.2/MSDK/ble/app\app_adv_mgr.c **** static uint8_t per_data_1[52] = {0x33, 0x16, 0x51, 0x18, 0x40, 0x9c, 0x00, 0x01, 0x02, 0x06,
  68:C:/Users/stapi/OneDrive/Desktop/GD32VW553/V1_MQTT_OK/GD32VW55X_Wifi_BLE_SDK/GD32VW55x_RELEASE_V1.0.2/MSDK/ble/app\app_adv_mgr.c ****                                  0x00, 0x00, 0x00, 0x00, 0x0d, 0x02, 0x01, 0x08, 0x02, 0x02,
  69:C:/Users/stapi/OneDrive/Desktop/GD32VW553/V1_MQTT_OK/GD32VW55X_Wifi_BLE_SDK/GD32VW55x_RELEASE_V1.0.2/MSDK/ble/app\app_adv_mgr.c ****                                  0x01, 0x03, 0x04, 0x78, 0x00, 0x02, 0x05, 0x01, 0x07, 0x03,
  70:C:/Users/stapi/OneDrive/Desktop/GD32VW553/V1_MQTT_OK/GD32VW55X_Wifi_BLE_SDK/GD32VW55x_RELEASE_V1.0.2/MSDK/ble/app\app_adv_mgr.c ****                                  0x02, 0x04, 0x00, 0x02, 0x04, 0x80, 0x01, 0x06, 0x05, 0x03,
  71:C:/Users/stapi/OneDrive/Desktop/GD32VW553/V1_MQTT_OK/GD32VW55X_Wifi_BLE_SDK/GD32VW55x_RELEASE_V1.0.2/MSDK/ble/app\app_adv_mgr.c ****                                  0x00, 0x04, 0x00, 0x00, 0x02, 0x06, 0x05, 0x03, 0x00, 0x08,
  72:C:/Users/stapi/OneDrive/Desktop/GD32VW553/V1_MQTT_OK/GD32VW55X_Wifi_BLE_SDK/GD32VW55x_RELEASE_V1.0.2/MSDK/ble/app\app_adv_mgr.c ****                                  0x00, 0x00
  73:C:/Users/stapi/OneDrive/Desktop/GD32VW553/V1_MQTT_OK/GD32VW55X_Wifi_BLE_SDK/GD32VW55x_RELEASE_V1.0.2/MSDK/ble/app\app_adv_mgr.c ****                                 };
  74:C:/Users/stapi/OneDrive/Desktop/GD32VW553/V1_MQTT_OK/GD32VW55X_Wifi_BLE_SDK/GD32VW55x_RELEASE_V1.0.2/MSDK/ble/app\app_adv_mgr.c **** 
  75:C:/Users/stapi/OneDrive/Desktop/GD32VW553/V1_MQTT_OK/GD32VW55X_Wifi_BLE_SDK/GD32VW55x_RELEASE_V1.0.2/MSDK/ble/app\app_adv_mgr.c **** /* Advertising data used for HOGP test */
  76:C:/Users/stapi/OneDrive/Desktop/GD32VW553/V1_MQTT_OK/GD32VW55X_Wifi_BLE_SDK/GD32VW55x_RELEASE_V1.0.2/MSDK/ble/app\app_adv_mgr.c **** static uint8_t adv_data_hogp[] = {0x03, 0x19, 0x80, 0x01, 0x03, 0x02, 0x12, 0x18};
  77:C:/Users/stapi/OneDrive/Desktop/GD32VW553/V1_MQTT_OK/GD32VW55X_Wifi_BLE_SDK/GD32VW55x_RELEASE_V1.0.2/MSDK/ble/app\app_adv_mgr.c **** 
  78:C:/Users/stapi/OneDrive/Desktop/GD32VW553/V1_MQTT_OK/GD32VW55X_Wifi_BLE_SDK/GD32VW55x_RELEASE_V1.0.2/MSDK/ble/app\app_adv_mgr.c **** /* Advertising data used for BQB test */
  79:C:/Users/stapi/OneDrive/Desktop/GD32VW553/V1_MQTT_OK/GD32VW55X_Wifi_BLE_SDK/GD32VW55x_RELEASE_V1.0.2/MSDK/ble/app\app_adv_mgr.c **** static uint8_t bqb_adv_data_1[25] = {
  80:C:/Users/stapi/OneDrive/Desktop/GD32VW553/V1_MQTT_OK/GD32VW55X_Wifi_BLE_SDK/GD32VW55x_RELEASE_V1.0.2/MSDK/ble/app\app_adv_mgr.c ****     0x03,
  81:C:/Users/stapi/OneDrive/Desktop/GD32VW553/V1_MQTT_OK/GD32VW55X_Wifi_BLE_SDK/GD32VW55x_RELEASE_V1.0.2/MSDK/ble/app\app_adv_mgr.c ****     BLE_AD_TYPE_SERVICE_UUID_16_COMPLETE,
  82:C:/Users/stapi/OneDrive/Desktop/GD32VW553/V1_MQTT_OK/GD32VW55X_Wifi_BLE_SDK/GD32VW55x_RELEASE_V1.0.2/MSDK/ble/app\app_adv_mgr.c ****     0x0A,
  83:C:/Users/stapi/OneDrive/Desktop/GD32VW553/V1_MQTT_OK/GD32VW55X_Wifi_BLE_SDK/GD32VW55x_RELEASE_V1.0.2/MSDK/ble/app\app_adv_mgr.c ****     0x18,
  84:C:/Users/stapi/OneDrive/Desktop/GD32VW553/V1_MQTT_OK/GD32VW55X_Wifi_BLE_SDK/GD32VW55x_RELEASE_V1.0.2/MSDK/ble/app\app_adv_mgr.c **** 
  85:C:/Users/stapi/OneDrive/Desktop/GD32VW553/V1_MQTT_OK/GD32VW55X_Wifi_BLE_SDK/GD32VW55x_RELEASE_V1.0.2/MSDK/ble/app\app_adv_mgr.c ****     0x02,
  86:C:/Users/stapi/OneDrive/Desktop/GD32VW553/V1_MQTT_OK/GD32VW55X_Wifi_BLE_SDK/GD32VW55x_RELEASE_V1.0.2/MSDK/ble/app\app_adv_mgr.c ****     BLE_AD_TYPE_TX_POWER_LEVEL,
  87:C:/Users/stapi/OneDrive/Desktop/GD32VW553/V1_MQTT_OK/GD32VW55X_Wifi_BLE_SDK/GD32VW55x_RELEASE_V1.0.2/MSDK/ble/app\app_adv_mgr.c ****     -60,
  88:C:/Users/stapi/OneDrive/Desktop/GD32VW553/V1_MQTT_OK/GD32VW55X_Wifi_BLE_SDK/GD32VW55x_RELEASE_V1.0.2/MSDK/ble/app\app_adv_mgr.c **** 
  89:C:/Users/stapi/OneDrive/Desktop/GD32VW553/V1_MQTT_OK/GD32VW55X_Wifi_BLE_SDK/GD32VW55x_RELEASE_V1.0.2/MSDK/ble/app\app_adv_mgr.c ****     0x03,
  90:C:/Users/stapi/OneDrive/Desktop/GD32VW553/V1_MQTT_OK/GD32VW55X_Wifi_BLE_SDK/GD32VW55x_RELEASE_V1.0.2/MSDK/ble/app\app_adv_mgr.c ****     BLE_AD_TYPE_ADVERTISING_INTERVAL,
  91:C:/Users/stapi/OneDrive/Desktop/GD32VW553/V1_MQTT_OK/GD32VW55X_Wifi_BLE_SDK/GD32VW55x_RELEASE_V1.0.2/MSDK/ble/app\app_adv_mgr.c ****     0xA0,
  92:C:/Users/stapi/OneDrive/Desktop/GD32VW553/V1_MQTT_OK/GD32VW55X_Wifi_BLE_SDK/GD32VW55x_RELEASE_V1.0.2/MSDK/ble/app\app_adv_mgr.c ****     0x00,
  93:C:/Users/stapi/OneDrive/Desktop/GD32VW553/V1_MQTT_OK/GD32VW55X_Wifi_BLE_SDK/GD32VW55x_RELEASE_V1.0.2/MSDK/ble/app\app_adv_mgr.c **** 
  94:C:/Users/stapi/OneDrive/Desktop/GD32VW553/V1_MQTT_OK/GD32VW55X_Wifi_BLE_SDK/GD32VW55x_RELEASE_V1.0.2/MSDK/ble/app\app_adv_mgr.c ****     0x03,
  95:C:/Users/stapi/OneDrive/Desktop/GD32VW553/V1_MQTT_OK/GD32VW55X_Wifi_BLE_SDK/GD32VW55x_RELEASE_V1.0.2/MSDK/ble/app\app_adv_mgr.c ****     BLE_AD_TYPE_SERVICE_DATA_UUID_16,
  96:C:/Users/stapi/OneDrive/Desktop/GD32VW553/V1_MQTT_OK/GD32VW55X_Wifi_BLE_SDK/GD32VW55x_RELEASE_V1.0.2/MSDK/ble/app\app_adv_mgr.c ****     0x01,
  97:C:/Users/stapi/OneDrive/Desktop/GD32VW553/V1_MQTT_OK/GD32VW55X_Wifi_BLE_SDK/GD32VW55x_RELEASE_V1.0.2/MSDK/ble/app\app_adv_mgr.c ****     0x02,
  98:C:/Users/stapi/OneDrive/Desktop/GD32VW553/V1_MQTT_OK/GD32VW55X_Wifi_BLE_SDK/GD32VW55x_RELEASE_V1.0.2/MSDK/ble/app\app_adv_mgr.c **** 
  99:C:/Users/stapi/OneDrive/Desktop/GD32VW553/V1_MQTT_OK/GD32VW55X_Wifi_BLE_SDK/GD32VW55x_RELEASE_V1.0.2/MSDK/ble/app\app_adv_mgr.c ****     0x05,
 100:C:/Users/stapi/OneDrive/Desktop/GD32VW553/V1_MQTT_OK/GD32VW55X_Wifi_BLE_SDK/GD32VW55x_RELEASE_V1.0.2/MSDK/ble/app\app_adv_mgr.c ****     BLE_AD_TYPE_SLAVE_CONNECTION_INTERVAL_RANGE,
 101:C:/Users/stapi/OneDrive/Desktop/GD32VW553/V1_MQTT_OK/GD32VW55X_Wifi_BLE_SDK/GD32VW55x_RELEASE_V1.0.2/MSDK/ble/app\app_adv_mgr.c ****     0x10,
 102:C:/Users/stapi/OneDrive/Desktop/GD32VW553/V1_MQTT_OK/GD32VW55X_Wifi_BLE_SDK/GD32VW55x_RELEASE_V1.0.2/MSDK/ble/app\app_adv_mgr.c ****     0x00,
 103:C:/Users/stapi/OneDrive/Desktop/GD32VW553/V1_MQTT_OK/GD32VW55X_Wifi_BLE_SDK/GD32VW55x_RELEASE_V1.0.2/MSDK/ble/app\app_adv_mgr.c ****     0x00,
 104:C:/Users/stapi/OneDrive/Desktop/GD32VW553/V1_MQTT_OK/GD32VW55X_Wifi_BLE_SDK/GD32VW55x_RELEASE_V1.0.2/MSDK/ble/app\app_adv_mgr.c ****     0x01,
 105:C:/Users/stapi/OneDrive/Desktop/GD32VW553/V1_MQTT_OK/GD32VW55X_Wifi_BLE_SDK/GD32VW55x_RELEASE_V1.0.2/MSDK/ble/app\app_adv_mgr.c **** 
 106:C:/Users/stapi/OneDrive/Desktop/GD32VW553/V1_MQTT_OK/GD32VW55X_Wifi_BLE_SDK/GD32VW55x_RELEASE_V1.0.2/MSDK/ble/app\app_adv_mgr.c ****     0x03,
 107:C:/Users/stapi/OneDrive/Desktop/GD32VW553/V1_MQTT_OK/GD32VW55X_Wifi_BLE_SDK/GD32VW55x_RELEASE_V1.0.2/MSDK/ble/app\app_adv_mgr.c ****     BLE_AD_TYPE_SOLICITED_SERVICE_UUID_16,
 108:C:/Users/stapi/OneDrive/Desktop/GD32VW553/V1_MQTT_OK/GD32VW55X_Wifi_BLE_SDK/GD32VW55x_RELEASE_V1.0.2/MSDK/ble/app\app_adv_mgr.c ****     0x0A,
 109:C:/Users/stapi/OneDrive/Desktop/GD32VW553/V1_MQTT_OK/GD32VW55X_Wifi_BLE_SDK/GD32VW55x_RELEASE_V1.0.2/MSDK/ble/app\app_adv_mgr.c ****     0x18,
 110:C:/Users/stapi/OneDrive/Desktop/GD32VW553/V1_MQTT_OK/GD32VW55X_Wifi_BLE_SDK/GD32VW55x_RELEASE_V1.0.2/MSDK/ble/app\app_adv_mgr.c **** };
 111:C:/Users/stapi/OneDrive/Desktop/GD32VW553/V1_MQTT_OK/GD32VW55X_Wifi_BLE_SDK/GD32VW55x_RELEASE_V1.0.2/MSDK/ble/app\app_adv_mgr.c **** 
 112:C:/Users/stapi/OneDrive/Desktop/GD32VW553/V1_MQTT_OK/GD32VW55X_Wifi_BLE_SDK/GD32VW55x_RELEASE_V1.0.2/MSDK/ble/app\app_adv_mgr.c **** /* Advertising data used for BQB test */
 113:C:/Users/stapi/OneDrive/Desktop/GD32VW553/V1_MQTT_OK/GD32VW55X_Wifi_BLE_SDK/GD32VW55x_RELEASE_V1.0.2/MSDK/ble/app\app_adv_mgr.c **** static uint8_t bqb_adv_data_2[24] = {
 114:C:/Users/stapi/OneDrive/Desktop/GD32VW553/V1_MQTT_OK/GD32VW55X_Wifi_BLE_SDK/GD32VW55x_RELEASE_V1.0.2/MSDK/ble/app\app_adv_mgr.c ****     0x05, 0x03, 0x00, 0x18, 0x01, 0x18,
 115:C:/Users/stapi/OneDrive/Desktop/GD32VW553/V1_MQTT_OK/GD32VW55X_Wifi_BLE_SDK/GD32VW55x_RELEASE_V1.0.2/MSDK/ble/app\app_adv_mgr.c ****     0x0D, 0x09, 0x50, 0x54, 0x53, 0x2D, 0x47, 0x41, 0x50, 0x2D, 0x30, 0x36, 0x42, 0x38,
 116:C:/Users/stapi/OneDrive/Desktop/GD32VW553/V1_MQTT_OK/GD32VW55X_Wifi_BLE_SDK/GD32VW55x_RELEASE_V1.0.2/MSDK/ble/app\app_adv_mgr.c ****     0x03, 0x19, 0x00, 0x00
 117:C:/Users/stapi/OneDrive/Desktop/GD32VW553/V1_MQTT_OK/GD32VW55X_Wifi_BLE_SDK/GD32VW55x_RELEASE_V1.0.2/MSDK/ble/app\app_adv_mgr.c **** };
 118:C:/Users/stapi/OneDrive/Desktop/GD32VW553/V1_MQTT_OK/GD32VW55X_Wifi_BLE_SDK/GD32VW55x_RELEASE_V1.0.2/MSDK/ble/app\app_adv_mgr.c **** 
 119:C:/Users/stapi/OneDrive/Desktop/GD32VW553/V1_MQTT_OK/GD32VW55X_Wifi_BLE_SDK/GD32VW55x_RELEASE_V1.0.2/MSDK/ble/app\app_adv_mgr.c **** /* Advertising data used for BQB test */
 120:C:/Users/stapi/OneDrive/Desktop/GD32VW553/V1_MQTT_OK/GD32VW55X_Wifi_BLE_SDK/GD32VW55x_RELEASE_V1.0.2/MSDK/ble/app\app_adv_mgr.c **** static uint8_t bqb_adv_data_3[22] = {
 121:C:/Users/stapi/OneDrive/Desktop/GD32VW553/V1_MQTT_OK/GD32VW55X_Wifi_BLE_SDK/GD32VW55x_RELEASE_V1.0.2/MSDK/ble/app\app_adv_mgr.c ****     0x07,
 122:C:/Users/stapi/OneDrive/Desktop/GD32VW553/V1_MQTT_OK/GD32VW55X_Wifi_BLE_SDK/GD32VW55x_RELEASE_V1.0.2/MSDK/ble/app\app_adv_mgr.c ****     BLE_AD_TYPE_PUBLIC_TARGET_ADDRESS,
 123:C:/Users/stapi/OneDrive/Desktop/GD32VW553/V1_MQTT_OK/GD32VW55X_Wifi_BLE_SDK/GD32VW55x_RELEASE_V1.0.2/MSDK/ble/app\app_adv_mgr.c ****     0x11,
 124:C:/Users/stapi/OneDrive/Desktop/GD32VW553/V1_MQTT_OK/GD32VW55X_Wifi_BLE_SDK/GD32VW55x_RELEASE_V1.0.2/MSDK/ble/app\app_adv_mgr.c ****     0x22,
 125:C:/Users/stapi/OneDrive/Desktop/GD32VW553/V1_MQTT_OK/GD32VW55X_Wifi_BLE_SDK/GD32VW55x_RELEASE_V1.0.2/MSDK/ble/app\app_adv_mgr.c ****     0x33,
 126:C:/Users/stapi/OneDrive/Desktop/GD32VW553/V1_MQTT_OK/GD32VW55X_Wifi_BLE_SDK/GD32VW55x_RELEASE_V1.0.2/MSDK/ble/app\app_adv_mgr.c ****     0x44,
 127:C:/Users/stapi/OneDrive/Desktop/GD32VW553/V1_MQTT_OK/GD32VW55X_Wifi_BLE_SDK/GD32VW55x_RELEASE_V1.0.2/MSDK/ble/app\app_adv_mgr.c ****     0x55,
 128:C:/Users/stapi/OneDrive/Desktop/GD32VW553/V1_MQTT_OK/GD32VW55X_Wifi_BLE_SDK/GD32VW55x_RELEASE_V1.0.2/MSDK/ble/app\app_adv_mgr.c ****     0x66,
 129:C:/Users/stapi/OneDrive/Desktop/GD32VW553/V1_MQTT_OK/GD32VW55X_Wifi_BLE_SDK/GD32VW55x_RELEASE_V1.0.2/MSDK/ble/app\app_adv_mgr.c **** 
 130:C:/Users/stapi/OneDrive/Desktop/GD32VW553/V1_MQTT_OK/GD32VW55X_Wifi_BLE_SDK/GD32VW55x_RELEASE_V1.0.2/MSDK/ble/app\app_adv_mgr.c ****     0x07,
 131:C:/Users/stapi/OneDrive/Desktop/GD32VW553/V1_MQTT_OK/GD32VW55X_Wifi_BLE_SDK/GD32VW55x_RELEASE_V1.0.2/MSDK/ble/app\app_adv_mgr.c ****     BLE_AD_TYPE_RANDOM_TARGET_ADDRESS,
 132:C:/Users/stapi/OneDrive/Desktop/GD32VW553/V1_MQTT_OK/GD32VW55X_Wifi_BLE_SDK/GD32VW55x_RELEASE_V1.0.2/MSDK/ble/app\app_adv_mgr.c ****     0x11,
 133:C:/Users/stapi/OneDrive/Desktop/GD32VW553/V1_MQTT_OK/GD32VW55X_Wifi_BLE_SDK/GD32VW55x_RELEASE_V1.0.2/MSDK/ble/app\app_adv_mgr.c ****     0x22,
 134:C:/Users/stapi/OneDrive/Desktop/GD32VW553/V1_MQTT_OK/GD32VW55X_Wifi_BLE_SDK/GD32VW55x_RELEASE_V1.0.2/MSDK/ble/app\app_adv_mgr.c ****     0x33,
 135:C:/Users/stapi/OneDrive/Desktop/GD32VW553/V1_MQTT_OK/GD32VW55X_Wifi_BLE_SDK/GD32VW55x_RELEASE_V1.0.2/MSDK/ble/app\app_adv_mgr.c ****     0x44,
 136:C:/Users/stapi/OneDrive/Desktop/GD32VW553/V1_MQTT_OK/GD32VW55X_Wifi_BLE_SDK/GD32VW55x_RELEASE_V1.0.2/MSDK/ble/app\app_adv_mgr.c ****     0x55,
 137:C:/Users/stapi/OneDrive/Desktop/GD32VW553/V1_MQTT_OK/GD32VW55X_Wifi_BLE_SDK/GD32VW55x_RELEASE_V1.0.2/MSDK/ble/app\app_adv_mgr.c ****     0x66,
 138:C:/Users/stapi/OneDrive/Desktop/GD32VW553/V1_MQTT_OK/GD32VW55X_Wifi_BLE_SDK/GD32VW55x_RELEASE_V1.0.2/MSDK/ble/app\app_adv_mgr.c **** 
 139:C:/Users/stapi/OneDrive/Desktop/GD32VW553/V1_MQTT_OK/GD32VW55X_Wifi_BLE_SDK/GD32VW55x_RELEASE_V1.0.2/MSDK/ble/app\app_adv_mgr.c ****     0x05,
 140:C:/Users/stapi/OneDrive/Desktop/GD32VW553/V1_MQTT_OK/GD32VW55X_Wifi_BLE_SDK/GD32VW55x_RELEASE_V1.0.2/MSDK/ble/app\app_adv_mgr.c ****     BLE_AD_TYPE_ADVERTISING_INTERVAL_LONG,
 141:C:/Users/stapi/OneDrive/Desktop/GD32VW553/V1_MQTT_OK/GD32VW55X_Wifi_BLE_SDK/GD32VW55x_RELEASE_V1.0.2/MSDK/ble/app\app_adv_mgr.c ****     0x00,
 142:C:/Users/stapi/OneDrive/Desktop/GD32VW553/V1_MQTT_OK/GD32VW55X_Wifi_BLE_SDK/GD32VW55x_RELEASE_V1.0.2/MSDK/ble/app\app_adv_mgr.c ****     0x00,
 143:C:/Users/stapi/OneDrive/Desktop/GD32VW553/V1_MQTT_OK/GD32VW55X_Wifi_BLE_SDK/GD32VW55x_RELEASE_V1.0.2/MSDK/ble/app\app_adv_mgr.c ****     0x11,
 144:C:/Users/stapi/OneDrive/Desktop/GD32VW553/V1_MQTT_OK/GD32VW55X_Wifi_BLE_SDK/GD32VW55x_RELEASE_V1.0.2/MSDK/ble/app\app_adv_mgr.c ****     0x00,
 145:C:/Users/stapi/OneDrive/Desktop/GD32VW553/V1_MQTT_OK/GD32VW55X_Wifi_BLE_SDK/GD32VW55x_RELEASE_V1.0.2/MSDK/ble/app\app_adv_mgr.c **** };
 146:C:/Users/stapi/OneDrive/Desktop/GD32VW553/V1_MQTT_OK/GD32VW55X_Wifi_BLE_SDK/GD32VW55x_RELEASE_V1.0.2/MSDK/ble/app\app_adv_mgr.c **** 
 147:C:/Users/stapi/OneDrive/Desktop/GD32VW553/V1_MQTT_OK/GD32VW55X_Wifi_BLE_SDK/GD32VW55x_RELEASE_V1.0.2/MSDK/ble/app\app_adv_mgr.c **** /* Advertising data used for BQB test */
 148:C:/Users/stapi/OneDrive/Desktop/GD32VW553/V1_MQTT_OK/GD32VW55X_Wifi_BLE_SDK/GD32VW55x_RELEASE_V1.0.2/MSDK/ble/app\app_adv_mgr.c **** static uint8_t bqb_adv_data_4[28] = {
 149:C:/Users/stapi/OneDrive/Desktop/GD32VW553/V1_MQTT_OK/GD32VW55X_Wifi_BLE_SDK/GD32VW55x_RELEASE_V1.0.2/MSDK/ble/app\app_adv_mgr.c ****     0x1B,
 150:C:/Users/stapi/OneDrive/Desktop/GD32VW553/V1_MQTT_OK/GD32VW55X_Wifi_BLE_SDK/GD32VW55x_RELEASE_V1.0.2/MSDK/ble/app\app_adv_mgr.c ****     BLE_AD_TYPE_URI,
 151:C:/Users/stapi/OneDrive/Desktop/GD32VW553/V1_MQTT_OK/GD32VW55X_Wifi_BLE_SDK/GD32VW55x_RELEASE_V1.0.2/MSDK/ble/app\app_adv_mgr.c ****     0x00,
 152:C:/Users/stapi/OneDrive/Desktop/GD32VW553/V1_MQTT_OK/GD32VW55X_Wifi_BLE_SDK/GD32VW55x_RELEASE_V1.0.2/MSDK/ble/app\app_adv_mgr.c ****     0x01,
 153:C:/Users/stapi/OneDrive/Desktop/GD32VW553/V1_MQTT_OK/GD32VW55X_Wifi_BLE_SDK/GD32VW55x_RELEASE_V1.0.2/MSDK/ble/app\app_adv_mgr.c ****     0x68,
 154:C:/Users/stapi/OneDrive/Desktop/GD32VW553/V1_MQTT_OK/GD32VW55X_Wifi_BLE_SDK/GD32VW55x_RELEASE_V1.0.2/MSDK/ble/app\app_adv_mgr.c ****     0x74,
 155:C:/Users/stapi/OneDrive/Desktop/GD32VW553/V1_MQTT_OK/GD32VW55X_Wifi_BLE_SDK/GD32VW55x_RELEASE_V1.0.2/MSDK/ble/app\app_adv_mgr.c ****     0x74,
 156:C:/Users/stapi/OneDrive/Desktop/GD32VW553/V1_MQTT_OK/GD32VW55X_Wifi_BLE_SDK/GD32VW55x_RELEASE_V1.0.2/MSDK/ble/app\app_adv_mgr.c ****     0x70,
 157:C:/Users/stapi/OneDrive/Desktop/GD32VW553/V1_MQTT_OK/GD32VW55X_Wifi_BLE_SDK/GD32VW55x_RELEASE_V1.0.2/MSDK/ble/app\app_adv_mgr.c ****     0x73,
 158:C:/Users/stapi/OneDrive/Desktop/GD32VW553/V1_MQTT_OK/GD32VW55X_Wifi_BLE_SDK/GD32VW55x_RELEASE_V1.0.2/MSDK/ble/app\app_adv_mgr.c ****     0x3A,
 159:C:/Users/stapi/OneDrive/Desktop/GD32VW553/V1_MQTT_OK/GD32VW55X_Wifi_BLE_SDK/GD32VW55x_RELEASE_V1.0.2/MSDK/ble/app\app_adv_mgr.c ****     0x2F,
 160:C:/Users/stapi/OneDrive/Desktop/GD32VW553/V1_MQTT_OK/GD32VW55X_Wifi_BLE_SDK/GD32VW55x_RELEASE_V1.0.2/MSDK/ble/app\app_adv_mgr.c ****     0x2F,
 161:C:/Users/stapi/OneDrive/Desktop/GD32VW553/V1_MQTT_OK/GD32VW55X_Wifi_BLE_SDK/GD32VW55x_RELEASE_V1.0.2/MSDK/ble/app\app_adv_mgr.c ****     0x77,
 162:C:/Users/stapi/OneDrive/Desktop/GD32VW553/V1_MQTT_OK/GD32VW55X_Wifi_BLE_SDK/GD32VW55x_RELEASE_V1.0.2/MSDK/ble/app\app_adv_mgr.c ****     0x77,
 163:C:/Users/stapi/OneDrive/Desktop/GD32VW553/V1_MQTT_OK/GD32VW55X_Wifi_BLE_SDK/GD32VW55x_RELEASE_V1.0.2/MSDK/ble/app\app_adv_mgr.c ****     0x77,
 164:C:/Users/stapi/OneDrive/Desktop/GD32VW553/V1_MQTT_OK/GD32VW55X_Wifi_BLE_SDK/GD32VW55x_RELEASE_V1.0.2/MSDK/ble/app\app_adv_mgr.c ****     0x2E,
 165:C:/Users/stapi/OneDrive/Desktop/GD32VW553/V1_MQTT_OK/GD32VW55X_Wifi_BLE_SDK/GD32VW55x_RELEASE_V1.0.2/MSDK/ble/app\app_adv_mgr.c ****     0x62,
 166:C:/Users/stapi/OneDrive/Desktop/GD32VW553/V1_MQTT_OK/GD32VW55X_Wifi_BLE_SDK/GD32VW55x_RELEASE_V1.0.2/MSDK/ble/app\app_adv_mgr.c ****     0x6C,
 167:C:/Users/stapi/OneDrive/Desktop/GD32VW553/V1_MQTT_OK/GD32VW55X_Wifi_BLE_SDK/GD32VW55x_RELEASE_V1.0.2/MSDK/ble/app\app_adv_mgr.c ****     0x75,
 168:C:/Users/stapi/OneDrive/Desktop/GD32VW553/V1_MQTT_OK/GD32VW55X_Wifi_BLE_SDK/GD32VW55x_RELEASE_V1.0.2/MSDK/ble/app\app_adv_mgr.c ****     0x65,
 169:C:/Users/stapi/OneDrive/Desktop/GD32VW553/V1_MQTT_OK/GD32VW55X_Wifi_BLE_SDK/GD32VW55x_RELEASE_V1.0.2/MSDK/ble/app\app_adv_mgr.c ****     0x74,
 170:C:/Users/stapi/OneDrive/Desktop/GD32VW553/V1_MQTT_OK/GD32VW55X_Wifi_BLE_SDK/GD32VW55x_RELEASE_V1.0.2/MSDK/ble/app\app_adv_mgr.c ****     0x6F,
 171:C:/Users/stapi/OneDrive/Desktop/GD32VW553/V1_MQTT_OK/GD32VW55X_Wifi_BLE_SDK/GD32VW55x_RELEASE_V1.0.2/MSDK/ble/app\app_adv_mgr.c ****     0x6F,
 172:C:/Users/stapi/OneDrive/Desktop/GD32VW553/V1_MQTT_OK/GD32VW55X_Wifi_BLE_SDK/GD32VW55x_RELEASE_V1.0.2/MSDK/ble/app\app_adv_mgr.c ****     0x74,
 173:C:/Users/stapi/OneDrive/Desktop/GD32VW553/V1_MQTT_OK/GD32VW55X_Wifi_BLE_SDK/GD32VW55x_RELEASE_V1.0.2/MSDK/ble/app\app_adv_mgr.c ****     0x2E,
 174:C:/Users/stapi/OneDrive/Desktop/GD32VW553/V1_MQTT_OK/GD32VW55X_Wifi_BLE_SDK/GD32VW55x_RELEASE_V1.0.2/MSDK/ble/app\app_adv_mgr.c ****     0x63,
 175:C:/Users/stapi/OneDrive/Desktop/GD32VW553/V1_MQTT_OK/GD32VW55X_Wifi_BLE_SDK/GD32VW55x_RELEASE_V1.0.2/MSDK/ble/app\app_adv_mgr.c ****     0x6F,
 176:C:/Users/stapi/OneDrive/Desktop/GD32VW553/V1_MQTT_OK/GD32VW55X_Wifi_BLE_SDK/GD32VW55x_RELEASE_V1.0.2/MSDK/ble/app\app_adv_mgr.c ****     0x6D
 177:C:/Users/stapi/OneDrive/Desktop/GD32VW553/V1_MQTT_OK/GD32VW55X_Wifi_BLE_SDK/GD32VW55x_RELEASE_V1.0.2/MSDK/ble/app\app_adv_mgr.c **** };
 178:C:/Users/stapi/OneDrive/Desktop/GD32VW553/V1_MQTT_OK/GD32VW55X_Wifi_BLE_SDK/GD32VW55x_RELEASE_V1.0.2/MSDK/ble/app\app_adv_mgr.c **** 
 179:C:/Users/stapi/OneDrive/Desktop/GD32VW553/V1_MQTT_OK/GD32VW55X_Wifi_BLE_SDK/GD32VW55x_RELEASE_V1.0.2/MSDK/ble/app\app_adv_mgr.c **** /* Scan response data used for BQB test */
 180:C:/Users/stapi/OneDrive/Desktop/GD32VW553/V1_MQTT_OK/GD32VW55X_Wifi_BLE_SDK/GD32VW55x_RELEASE_V1.0.2/MSDK/ble/app\app_adv_mgr.c **** static uint8_t bqb_scan_rsp_data_2[27] = {
 181:C:/Users/stapi/OneDrive/Desktop/GD32VW553/V1_MQTT_OK/GD32VW55X_Wifi_BLE_SDK/GD32VW55x_RELEASE_V1.0.2/MSDK/ble/app\app_adv_mgr.c ****     0x02, 0x01, 0x04,
 182:C:/Users/stapi/OneDrive/Desktop/GD32VW553/V1_MQTT_OK/GD32VW55X_Wifi_BLE_SDK/GD32VW55x_RELEASE_V1.0.2/MSDK/ble/app\app_adv_mgr.c ****     0x05, 0x03, 0x00, 0x18, 0x01, 0x18,
 183:C:/Users/stapi/OneDrive/Desktop/GD32VW553/V1_MQTT_OK/GD32VW55X_Wifi_BLE_SDK/GD32VW55x_RELEASE_V1.0.2/MSDK/ble/app\app_adv_mgr.c ****     0x0D, 0x09, 0x50, 0x54, 0x53, 0x2D, 0x47, 0x41, 0x50, 0x2D, 0x30, 0x36, 0x42, 0x38,
 184:C:/Users/stapi/OneDrive/Desktop/GD32VW553/V1_MQTT_OK/GD32VW55X_Wifi_BLE_SDK/GD32VW55x_RELEASE_V1.0.2/MSDK/ble/app\app_adv_mgr.c ****     0x03, 0x19, 0x00, 0x00
 185:C:/Users/stapi/OneDrive/Desktop/GD32VW553/V1_MQTT_OK/GD32VW55X_Wifi_BLE_SDK/GD32VW55x_RELEASE_V1.0.2/MSDK/ble/app\app_adv_mgr.c **** };
 186:C:/Users/stapi/OneDrive/Desktop/GD32VW553/V1_MQTT_OK/GD32VW55X_Wifi_BLE_SDK/GD32VW55x_RELEASE_V1.0.2/MSDK/ble/app\app_adv_mgr.c **** 
 187:C:/Users/stapi/OneDrive/Desktop/GD32VW553/V1_MQTT_OK/GD32VW55X_Wifi_BLE_SDK/GD32VW55x_RELEASE_V1.0.2/MSDK/ble/app\app_adv_mgr.c **** /* Periodic advertising data used for BQB test */
 188:C:/Users/stapi/OneDrive/Desktop/GD32VW553/V1_MQTT_OK/GD32VW55X_Wifi_BLE_SDK/GD32VW55x_RELEASE_V1.0.2/MSDK/ble/app\app_adv_mgr.c **** static uint8_t bqb_per_adv_data_2[27] = {
 189:C:/Users/stapi/OneDrive/Desktop/GD32VW553/V1_MQTT_OK/GD32VW55X_Wifi_BLE_SDK/GD32VW55x_RELEASE_V1.0.2/MSDK/ble/app\app_adv_mgr.c ****     0x02, 0x01, 0x04,
 190:C:/Users/stapi/OneDrive/Desktop/GD32VW553/V1_MQTT_OK/GD32VW55X_Wifi_BLE_SDK/GD32VW55x_RELEASE_V1.0.2/MSDK/ble/app\app_adv_mgr.c ****     0x05, 0x03, 0x00, 0x18, 0x01, 0x18,
 191:C:/Users/stapi/OneDrive/Desktop/GD32VW553/V1_MQTT_OK/GD32VW55X_Wifi_BLE_SDK/GD32VW55x_RELEASE_V1.0.2/MSDK/ble/app\app_adv_mgr.c ****     0x0D, 0x09, 0x50, 0x54, 0x53, 0x2D, 0x47, 0x41, 0x50, 0x2D, 0x30, 0x36, 0x42, 0x38,
 192:C:/Users/stapi/OneDrive/Desktop/GD32VW553/V1_MQTT_OK/GD32VW55X_Wifi_BLE_SDK/GD32VW55x_RELEASE_V1.0.2/MSDK/ble/app\app_adv_mgr.c ****     0x03, 0x19, 0x00, 0x00
 193:C:/Users/stapi/OneDrive/Desktop/GD32VW553/V1_MQTT_OK/GD32VW55X_Wifi_BLE_SDK/GD32VW55x_RELEASE_V1.0.2/MSDK/ble/app\app_adv_mgr.c **** };
 194:C:/Users/stapi/OneDrive/Desktop/GD32VW553/V1_MQTT_OK/GD32VW55X_Wifi_BLE_SDK/GD32VW55x_RELEASE_V1.0.2/MSDK/ble/app\app_adv_mgr.c **** 
 195:C:/Users/stapi/OneDrive/Desktop/GD32VW553/V1_MQTT_OK/GD32VW55X_Wifi_BLE_SDK/GD32VW55x_RELEASE_V1.0.2/MSDK/ble/app\app_adv_mgr.c **** /* Service data used to put into advertising data */
 196:C:/Users/stapi/OneDrive/Desktop/GD32VW553/V1_MQTT_OK/GD32VW55X_Wifi_BLE_SDK/GD32VW55x_RELEASE_V1.0.2/MSDK/ble/app\app_adv_mgr.c **** static uint8_t service_data[8] = {0x00, 0x11, 0x22, 0x33, 0x44, 0x55, 0x66, 0x77};
 197:C:/Users/stapi/OneDrive/Desktop/GD32VW553/V1_MQTT_OK/GD32VW55X_Wifi_BLE_SDK/GD32VW55x_RELEASE_V1.0.2/MSDK/ble/app\app_adv_mgr.c **** 
 198:C:/Users/stapi/OneDrive/Desktop/GD32VW553/V1_MQTT_OK/GD32VW55X_Wifi_BLE_SDK/GD32VW55x_RELEASE_V1.0.2/MSDK/ble/app\app_adv_mgr.c **** /* URL data used to put into advertising data */
 199:C:/Users/stapi/OneDrive/Desktop/GD32VW553/V1_MQTT_OK/GD32VW55X_Wifi_BLE_SDK/GD32VW55x_RELEASE_V1.0.2/MSDK/ble/app\app_adv_mgr.c **** static uint8_t url[25] = {
 200:C:/Users/stapi/OneDrive/Desktop/GD32VW553/V1_MQTT_OK/GD32VW55X_Wifi_BLE_SDK/GD32VW55x_RELEASE_V1.0.2/MSDK/ble/app\app_adv_mgr.c ****     0x68,
 201:C:/Users/stapi/OneDrive/Desktop/GD32VW553/V1_MQTT_OK/GD32VW55X_Wifi_BLE_SDK/GD32VW55x_RELEASE_V1.0.2/MSDK/ble/app\app_adv_mgr.c ****     0x74,
 202:C:/Users/stapi/OneDrive/Desktop/GD32VW553/V1_MQTT_OK/GD32VW55X_Wifi_BLE_SDK/GD32VW55x_RELEASE_V1.0.2/MSDK/ble/app\app_adv_mgr.c ****     0x74,
 203:C:/Users/stapi/OneDrive/Desktop/GD32VW553/V1_MQTT_OK/GD32VW55X_Wifi_BLE_SDK/GD32VW55x_RELEASE_V1.0.2/MSDK/ble/app\app_adv_mgr.c ****     0x70,
 204:C:/Users/stapi/OneDrive/Desktop/GD32VW553/V1_MQTT_OK/GD32VW55X_Wifi_BLE_SDK/GD32VW55x_RELEASE_V1.0.2/MSDK/ble/app\app_adv_mgr.c ****     0x73,
 205:C:/Users/stapi/OneDrive/Desktop/GD32VW553/V1_MQTT_OK/GD32VW55X_Wifi_BLE_SDK/GD32VW55x_RELEASE_V1.0.2/MSDK/ble/app\app_adv_mgr.c ****     0x3A,
 206:C:/Users/stapi/OneDrive/Desktop/GD32VW553/V1_MQTT_OK/GD32VW55X_Wifi_BLE_SDK/GD32VW55x_RELEASE_V1.0.2/MSDK/ble/app\app_adv_mgr.c ****     0x2F,
 207:C:/Users/stapi/OneDrive/Desktop/GD32VW553/V1_MQTT_OK/GD32VW55X_Wifi_BLE_SDK/GD32VW55x_RELEASE_V1.0.2/MSDK/ble/app\app_adv_mgr.c ****     0x2F,
 208:C:/Users/stapi/OneDrive/Desktop/GD32VW553/V1_MQTT_OK/GD32VW55X_Wifi_BLE_SDK/GD32VW55x_RELEASE_V1.0.2/MSDK/ble/app\app_adv_mgr.c ****     0x77,
 209:C:/Users/stapi/OneDrive/Desktop/GD32VW553/V1_MQTT_OK/GD32VW55X_Wifi_BLE_SDK/GD32VW55x_RELEASE_V1.0.2/MSDK/ble/app\app_adv_mgr.c ****     0x77,
 210:C:/Users/stapi/OneDrive/Desktop/GD32VW553/V1_MQTT_OK/GD32VW55X_Wifi_BLE_SDK/GD32VW55x_RELEASE_V1.0.2/MSDK/ble/app\app_adv_mgr.c ****     0x77,
 211:C:/Users/stapi/OneDrive/Desktop/GD32VW553/V1_MQTT_OK/GD32VW55X_Wifi_BLE_SDK/GD32VW55x_RELEASE_V1.0.2/MSDK/ble/app\app_adv_mgr.c ****     0x2E,
 212:C:/Users/stapi/OneDrive/Desktop/GD32VW553/V1_MQTT_OK/GD32VW55X_Wifi_BLE_SDK/GD32VW55x_RELEASE_V1.0.2/MSDK/ble/app\app_adv_mgr.c ****     0x62,
 213:C:/Users/stapi/OneDrive/Desktop/GD32VW553/V1_MQTT_OK/GD32VW55X_Wifi_BLE_SDK/GD32VW55x_RELEASE_V1.0.2/MSDK/ble/app\app_adv_mgr.c ****     0x6C,
 214:C:/Users/stapi/OneDrive/Desktop/GD32VW553/V1_MQTT_OK/GD32VW55X_Wifi_BLE_SDK/GD32VW55x_RELEASE_V1.0.2/MSDK/ble/app\app_adv_mgr.c ****     0x75,
 215:C:/Users/stapi/OneDrive/Desktop/GD32VW553/V1_MQTT_OK/GD32VW55X_Wifi_BLE_SDK/GD32VW55x_RELEASE_V1.0.2/MSDK/ble/app\app_adv_mgr.c ****     0x65,
 216:C:/Users/stapi/OneDrive/Desktop/GD32VW553/V1_MQTT_OK/GD32VW55X_Wifi_BLE_SDK/GD32VW55x_RELEASE_V1.0.2/MSDK/ble/app\app_adv_mgr.c ****     0x74,
 217:C:/Users/stapi/OneDrive/Desktop/GD32VW553/V1_MQTT_OK/GD32VW55X_Wifi_BLE_SDK/GD32VW55x_RELEASE_V1.0.2/MSDK/ble/app\app_adv_mgr.c ****     0x6F,
 218:C:/Users/stapi/OneDrive/Desktop/GD32VW553/V1_MQTT_OK/GD32VW55X_Wifi_BLE_SDK/GD32VW55x_RELEASE_V1.0.2/MSDK/ble/app\app_adv_mgr.c ****     0x6F,
 219:C:/Users/stapi/OneDrive/Desktop/GD32VW553/V1_MQTT_OK/GD32VW55X_Wifi_BLE_SDK/GD32VW55x_RELEASE_V1.0.2/MSDK/ble/app\app_adv_mgr.c ****     0x74,
 220:C:/Users/stapi/OneDrive/Desktop/GD32VW553/V1_MQTT_OK/GD32VW55X_Wifi_BLE_SDK/GD32VW55x_RELEASE_V1.0.2/MSDK/ble/app\app_adv_mgr.c ****     0x68,
 221:C:/Users/stapi/OneDrive/Desktop/GD32VW553/V1_MQTT_OK/GD32VW55X_Wifi_BLE_SDK/GD32VW55x_RELEASE_V1.0.2/MSDK/ble/app\app_adv_mgr.c ****     0x2E,
 222:C:/Users/stapi/OneDrive/Desktop/GD32VW553/V1_MQTT_OK/GD32VW55X_Wifi_BLE_SDK/GD32VW55x_RELEASE_V1.0.2/MSDK/ble/app\app_adv_mgr.c ****     0x63,
 223:C:/Users/stapi/OneDrive/Desktop/GD32VW553/V1_MQTT_OK/GD32VW55X_Wifi_BLE_SDK/GD32VW55x_RELEASE_V1.0.2/MSDK/ble/app\app_adv_mgr.c ****     0x6F,
 224:C:/Users/stapi/OneDrive/Desktop/GD32VW553/V1_MQTT_OK/GD32VW55X_Wifi_BLE_SDK/GD32VW55x_RELEASE_V1.0.2/MSDK/ble/app\app_adv_mgr.c ****     0x6D
 225:C:/Users/stapi/OneDrive/Desktop/GD32VW553/V1_MQTT_OK/GD32VW55X_Wifi_BLE_SDK/GD32VW55x_RELEASE_V1.0.2/MSDK/ble/app\app_adv_mgr.c **** };
 226:C:/Users/stapi/OneDrive/Desktop/GD32VW553/V1_MQTT_OK/GD32VW55X_Wifi_BLE_SDK/GD32VW55x_RELEASE_V1.0.2/MSDK/ble/app\app_adv_mgr.c **** 
 227:C:/Users/stapi/OneDrive/Desktop/GD32VW553/V1_MQTT_OK/GD32VW55X_Wifi_BLE_SDK/GD32VW55x_RELEASE_V1.0.2/MSDK/ble/app\app_adv_mgr.c **** /* APP advertising set information structure */
 228:C:/Users/stapi/OneDrive/Desktop/GD32VW553/V1_MQTT_OK/GD32VW55X_Wifi_BLE_SDK/GD32VW55x_RELEASE_V1.0.2/MSDK/ble/app\app_adv_mgr.c **** typedef struct
 229:C:/Users/stapi/OneDrive/Desktop/GD32VW553/V1_MQTT_OK/GD32VW55X_Wifi_BLE_SDK/GD32VW55x_RELEASE_V1.0.2/MSDK/ble/app\app_adv_mgr.c **** {
 230:C:/Users/stapi/OneDrive/Desktop/GD32VW553/V1_MQTT_OK/GD32VW55X_Wifi_BLE_SDK/GD32VW55x_RELEASE_V1.0.2/MSDK/ble/app\app_adv_mgr.c ****     uint8_t idx                 /*!< Advertising set index */;
 231:C:/Users/stapi/OneDrive/Desktop/GD32VW553/V1_MQTT_OK/GD32VW55X_Wifi_BLE_SDK/GD32VW55x_RELEASE_V1.0.2/MSDK/ble/app\app_adv_mgr.c ****     uint8_t type;               /*!< advertising type, @ref ble_gap_adv_type_t */
 232:C:/Users/stapi/OneDrive/Desktop/GD32VW553/V1_MQTT_OK/GD32VW55X_Wifi_BLE_SDK/GD32VW55x_RELEASE_V1.0.2/MSDK/ble/app\app_adv_mgr.c ****     uint16_t prop;              /*!< Advertising properties.
 233:C:/Users/stapi/OneDrive/Desktop/GD32VW553/V1_MQTT_OK/GD32VW55X_Wifi_BLE_SDK/GD32VW55x_RELEASE_V1.0.2/MSDK/ble/app\app_adv_mgr.c ****                                     @ref ble_gap_legacy_adv_prop_t for legacy advertising,
 234:C:/Users/stapi/OneDrive/Desktop/GD32VW553/V1_MQTT_OK/GD32VW55X_Wifi_BLE_SDK/GD32VW55x_RELEASE_V1.0.2/MSDK/ble/app\app_adv_mgr.c ****                                     @ref ble_gap_extended_adv_prop_t for extended advertising,
 235:C:/Users/stapi/OneDrive/Desktop/GD32VW553/V1_MQTT_OK/GD32VW55X_Wifi_BLE_SDK/GD32VW55x_RELEASE_V1.0.2/MSDK/ble/app\app_adv_mgr.c ****                                     @ref ble_gap_periodic_adv_prop_t for periodic advertising */
 236:C:/Users/stapi/OneDrive/Desktop/GD32VW553/V1_MQTT_OK/GD32VW55X_Wifi_BLE_SDK/GD32VW55x_RELEASE_V1.0.2/MSDK/ble/app\app_adv_mgr.c ****     uint8_t pri_phy;            /*!< Indicate on which PHY primary advertising has to be performed,
 237:C:/Users/stapi/OneDrive/Desktop/GD32VW553/V1_MQTT_OK/GD32VW55X_Wifi_BLE_SDK/GD32VW55x_RELEASE_V1.0.2/MSDK/ble/app\app_adv_mgr.c ****     uint8_t sec_phy;            /*!< Indicate on which PHY secondary advertising has to be performe
 238:C:/Users/stapi/OneDrive/Desktop/GD32VW553/V1_MQTT_OK/GD32VW55X_Wifi_BLE_SDK/GD32VW55x_RELEASE_V1.0.2/MSDK/ble/app\app_adv_mgr.c ****     bool wl_enable;             /*!< True to use whitelist, otherwise do not use */
 239:C:/Users/stapi/OneDrive/Desktop/GD32VW553/V1_MQTT_OK/GD32VW55X_Wifi_BLE_SDK/GD32VW55x_RELEASE_V1.0.2/MSDK/ble/app\app_adv_mgr.c ****     uint8_t own_addr_type;      /*!< Own address type used in advertising, @ref ble_gap_local_addr_
 240:C:/Users/stapi/OneDrive/Desktop/GD32VW553/V1_MQTT_OK/GD32VW55X_Wifi_BLE_SDK/GD32VW55x_RELEASE_V1.0.2/MSDK/ble/app\app_adv_mgr.c ****     uint8_t disc_mode;          /*!< Discovery mode, @ref ble_gap_adv_discovery_mode_t */
 241:C:/Users/stapi/OneDrive/Desktop/GD32VW553/V1_MQTT_OK/GD32VW55X_Wifi_BLE_SDK/GD32VW55x_RELEASE_V1.0.2/MSDK/ble/app\app_adv_mgr.c ****     uint16_t max_data_len;      /*!< Max advertising data length */
 242:C:/Users/stapi/OneDrive/Desktop/GD32VW553/V1_MQTT_OK/GD32VW55X_Wifi_BLE_SDK/GD32VW55x_RELEASE_V1.0.2/MSDK/ble/app\app_adv_mgr.c ****     bool remove_after_stop;     /*!< True to remove advertising set after stopped */
 243:C:/Users/stapi/OneDrive/Desktop/GD32VW553/V1_MQTT_OK/GD32VW55X_Wifi_BLE_SDK/GD32VW55x_RELEASE_V1.0.2/MSDK/ble/app\app_adv_mgr.c ****     ble_gap_addr_t peer_addr;   /*!< Peer address, used for directed advertising */
 244:C:/Users/stapi/OneDrive/Desktop/GD32VW553/V1_MQTT_OK/GD32VW55X_Wifi_BLE_SDK/GD32VW55x_RELEASE_V1.0.2/MSDK/ble/app\app_adv_mgr.c ****     ble_adv_state_t state;      /*!< Advertising state */
 245:C:/Users/stapi/OneDrive/Desktop/GD32VW553/V1_MQTT_OK/GD32VW55X_Wifi_BLE_SDK/GD32VW55x_RELEASE_V1.0.2/MSDK/ble/app\app_adv_mgr.c **** } app_adv_set_t;
 246:C:/Users/stapi/OneDrive/Desktop/GD32VW553/V1_MQTT_OK/GD32VW55X_Wifi_BLE_SDK/GD32VW55x_RELEASE_V1.0.2/MSDK/ble/app\app_adv_mgr.c **** 
 247:C:/Users/stapi/OneDrive/Desktop/GD32VW553/V1_MQTT_OK/GD32VW55X_Wifi_BLE_SDK/GD32VW55x_RELEASE_V1.0.2/MSDK/ble/app\app_adv_mgr.c **** /* APP advertising environment structure */
 248:C:/Users/stapi/OneDrive/Desktop/GD32VW553/V1_MQTT_OK/GD32VW55X_Wifi_BLE_SDK/GD32VW55x_RELEASE_V1.0.2/MSDK/ble/app\app_adv_mgr.c **** typedef struct
 249:C:/Users/stapi/OneDrive/Desktop/GD32VW553/V1_MQTT_OK/GD32VW55X_Wifi_BLE_SDK/GD32VW55x_RELEASE_V1.0.2/MSDK/ble/app\app_adv_mgr.c **** {
 250:C:/Users/stapi/OneDrive/Desktop/GD32VW553/V1_MQTT_OK/GD32VW55X_Wifi_BLE_SDK/GD32VW55x_RELEASE_V1.0.2/MSDK/ble/app\app_adv_mgr.c ****     uint8_t adv_sid;                            /*!< Advertising SID */
 251:C:/Users/stapi/OneDrive/Desktop/GD32VW553/V1_MQTT_OK/GD32VW55X_Wifi_BLE_SDK/GD32VW55x_RELEASE_V1.0.2/MSDK/ble/app\app_adv_mgr.c ****     uint8_t adv_data_type;                      /* advertising data type. 0: app generate, 1: fix d
 252:C:/Users/stapi/OneDrive/Desktop/GD32VW553/V1_MQTT_OK/GD32VW55X_Wifi_BLE_SDK/GD32VW55x_RELEASE_V1.0.2/MSDK/ble/app\app_adv_mgr.c ****                                                    3,4,5,6: fix adv data for GAP bqb test, others: 
 253:C:/Users/stapi/OneDrive/Desktop/GD32VW553/V1_MQTT_OK/GD32VW55X_Wifi_BLE_SDK/GD32VW55x_RELEASE_V1.0.2/MSDK/ble/app\app_adv_mgr.c ****     app_adv_set_t adv_set[APP_ADV_SET_NUM];     /*!< Advertising set information */
 254:C:/Users/stapi/OneDrive/Desktop/GD32VW553/V1_MQTT_OK/GD32VW55X_Wifi_BLE_SDK/GD32VW55x_RELEASE_V1.0.2/MSDK/ble/app\app_adv_mgr.c **** } app_adv_env_t;
 255:C:/Users/stapi/OneDrive/Desktop/GD32VW553/V1_MQTT_OK/GD32VW55X_Wifi_BLE_SDK/GD32VW55x_RELEASE_V1.0.2/MSDK/ble/app\app_adv_mgr.c **** 
 256:C:/Users/stapi/OneDrive/Desktop/GD32VW553/V1_MQTT_OK/GD32VW55X_Wifi_BLE_SDK/GD32VW55x_RELEASE_V1.0.2/MSDK/ble/app\app_adv_mgr.c **** /* APP advertising environment data */
 257:C:/Users/stapi/OneDrive/Desktop/GD32VW553/V1_MQTT_OK/GD32VW55X_Wifi_BLE_SDK/GD32VW55x_RELEASE_V1.0.2/MSDK/ble/app\app_adv_mgr.c **** static app_adv_env_t app_adv_env;
 258:C:/Users/stapi/OneDrive/Desktop/GD32VW553/V1_MQTT_OK/GD32VW55X_Wifi_BLE_SDK/GD32VW55x_RELEASE_V1.0.2/MSDK/ble/app\app_adv_mgr.c **** 
 259:C:/Users/stapi/OneDrive/Desktop/GD32VW553/V1_MQTT_OK/GD32VW55X_Wifi_BLE_SDK/GD32VW55x_RELEASE_V1.0.2/MSDK/ble/app\app_adv_mgr.c **** /*!
 260:C:/Users/stapi/OneDrive/Desktop/GD32VW553/V1_MQTT_OK/GD32VW55X_Wifi_BLE_SDK/GD32VW55x_RELEASE_V1.0.2/MSDK/ble/app\app_adv_mgr.c ****     \brief      Get free advertising set
 261:C:/Users/stapi/OneDrive/Desktop/GD32VW553/V1_MQTT_OK/GD32VW55X_Wifi_BLE_SDK/GD32VW55x_RELEASE_V1.0.2/MSDK/ble/app\app_adv_mgr.c ****     \param[in]  none
 262:C:/Users/stapi/OneDrive/Desktop/GD32VW553/V1_MQTT_OK/GD32VW55X_Wifi_BLE_SDK/GD32VW55x_RELEASE_V1.0.2/MSDK/ble/app\app_adv_mgr.c ****     \param[out] none
 263:C:/Users/stapi/OneDrive/Desktop/GD32VW553/V1_MQTT_OK/GD32VW55X_Wifi_BLE_SDK/GD32VW55x_RELEASE_V1.0.2/MSDK/ble/app\app_adv_mgr.c ****     \retval     app_adv_set_t *: pointer to available BLE advertising set
 264:C:/Users/stapi/OneDrive/Desktop/GD32VW553/V1_MQTT_OK/GD32VW55X_Wifi_BLE_SDK/GD32VW55x_RELEASE_V1.0.2/MSDK/ble/app\app_adv_mgr.c **** */
 265:C:/Users/stapi/OneDrive/Desktop/GD32VW553/V1_MQTT_OK/GD32VW55X_Wifi_BLE_SDK/GD32VW55x_RELEASE_V1.0.2/MSDK/ble/app\app_adv_mgr.c **** static app_adv_set_t *app_get_free_adv(void)
 266:C:/Users/stapi/OneDrive/Desktop/GD32VW553/V1_MQTT_OK/GD32VW55X_Wifi_BLE_SDK/GD32VW55x_RELEASE_V1.0.2/MSDK/ble/app\app_adv_mgr.c **** {
 267:C:/Users/stapi/OneDrive/Desktop/GD32VW553/V1_MQTT_OK/GD32VW55X_Wifi_BLE_SDK/GD32VW55x_RELEASE_V1.0.2/MSDK/ble/app\app_adv_mgr.c ****     uint8_t i;
 268:C:/Users/stapi/OneDrive/Desktop/GD32VW553/V1_MQTT_OK/GD32VW55X_Wifi_BLE_SDK/GD32VW55x_RELEASE_V1.0.2/MSDK/ble/app\app_adv_mgr.c **** 
 269:C:/Users/stapi/OneDrive/Desktop/GD32VW553/V1_MQTT_OK/GD32VW55X_Wifi_BLE_SDK/GD32VW55x_RELEASE_V1.0.2/MSDK/ble/app\app_adv_mgr.c ****     for (i = 0; i < APP_ADV_SET_NUM; i++) {
 270:C:/Users/stapi/OneDrive/Desktop/GD32VW553/V1_MQTT_OK/GD32VW55X_Wifi_BLE_SDK/GD32VW55x_RELEASE_V1.0.2/MSDK/ble/app\app_adv_mgr.c ****         if (app_adv_env.adv_set[i].idx == ADV_INVALID_IDX) {
 271:C:/Users/stapi/OneDrive/Desktop/GD32VW553/V1_MQTT_OK/GD32VW55X_Wifi_BLE_SDK/GD32VW55x_RELEASE_V1.0.2/MSDK/ble/app\app_adv_mgr.c ****             return &app_adv_env.adv_set[i];
 272:C:/Users/stapi/OneDrive/Desktop/GD32VW553/V1_MQTT_OK/GD32VW55X_Wifi_BLE_SDK/GD32VW55x_RELEASE_V1.0.2/MSDK/ble/app\app_adv_mgr.c ****         }
 273:C:/Users/stapi/OneDrive/Desktop/GD32VW553/V1_MQTT_OK/GD32VW55X_Wifi_BLE_SDK/GD32VW55x_RELEASE_V1.0.2/MSDK/ble/app\app_adv_mgr.c ****     }
 274:C:/Users/stapi/OneDrive/Desktop/GD32VW553/V1_MQTT_OK/GD32VW55X_Wifi_BLE_SDK/GD32VW55x_RELEASE_V1.0.2/MSDK/ble/app\app_adv_mgr.c **** 
 275:C:/Users/stapi/OneDrive/Desktop/GD32VW553/V1_MQTT_OK/GD32VW55X_Wifi_BLE_SDK/GD32VW55x_RELEASE_V1.0.2/MSDK/ble/app\app_adv_mgr.c ****     return NULL;
 276:C:/Users/stapi/OneDrive/Desktop/GD32VW553/V1_MQTT_OK/GD32VW55X_Wifi_BLE_SDK/GD32VW55x_RELEASE_V1.0.2/MSDK/ble/app\app_adv_mgr.c **** }
 277:C:/Users/stapi/OneDrive/Desktop/GD32VW553/V1_MQTT_OK/GD32VW55X_Wifi_BLE_SDK/GD32VW55x_RELEASE_V1.0.2/MSDK/ble/app\app_adv_mgr.c **** 
 278:C:/Users/stapi/OneDrive/Desktop/GD32VW553/V1_MQTT_OK/GD32VW55X_Wifi_BLE_SDK/GD32VW55x_RELEASE_V1.0.2/MSDK/ble/app\app_adv_mgr.c **** /*!
 279:C:/Users/stapi/OneDrive/Desktop/GD32VW553/V1_MQTT_OK/GD32VW55X_Wifi_BLE_SDK/GD32VW55x_RELEASE_V1.0.2/MSDK/ble/app\app_adv_mgr.c ****     \brief      Free advertising set
 280:C:/Users/stapi/OneDrive/Desktop/GD32VW553/V1_MQTT_OK/GD32VW55X_Wifi_BLE_SDK/GD32VW55x_RELEASE_V1.0.2/MSDK/ble/app\app_adv_mgr.c ****     \param[in]  p_adv: pointer to BLE advertising set
 281:C:/Users/stapi/OneDrive/Desktop/GD32VW553/V1_MQTT_OK/GD32VW55X_Wifi_BLE_SDK/GD32VW55x_RELEASE_V1.0.2/MSDK/ble/app\app_adv_mgr.c ****     \param[out] none
 282:C:/Users/stapi/OneDrive/Desktop/GD32VW553/V1_MQTT_OK/GD32VW55X_Wifi_BLE_SDK/GD32VW55x_RELEASE_V1.0.2/MSDK/ble/app\app_adv_mgr.c ****     \retval     none
 283:C:/Users/stapi/OneDrive/Desktop/GD32VW553/V1_MQTT_OK/GD32VW55X_Wifi_BLE_SDK/GD32VW55x_RELEASE_V1.0.2/MSDK/ble/app\app_adv_mgr.c **** */
 284:C:/Users/stapi/OneDrive/Desktop/GD32VW553/V1_MQTT_OK/GD32VW55X_Wifi_BLE_SDK/GD32VW55x_RELEASE_V1.0.2/MSDK/ble/app\app_adv_mgr.c **** static void app_free_adv_set(app_adv_set_t *p_adv)
 285:C:/Users/stapi/OneDrive/Desktop/GD32VW553/V1_MQTT_OK/GD32VW55X_Wifi_BLE_SDK/GD32VW55x_RELEASE_V1.0.2/MSDK/ble/app\app_adv_mgr.c **** {
 286:C:/Users/stapi/OneDrive/Desktop/GD32VW553/V1_MQTT_OK/GD32VW55X_Wifi_BLE_SDK/GD32VW55x_RELEASE_V1.0.2/MSDK/ble/app\app_adv_mgr.c ****     p_adv->idx = ADV_INVALID_IDX;
 287:C:/Users/stapi/OneDrive/Desktop/GD32VW553/V1_MQTT_OK/GD32VW55X_Wifi_BLE_SDK/GD32VW55x_RELEASE_V1.0.2/MSDK/ble/app\app_adv_mgr.c ****     p_adv->state = BLE_ADV_STATE_IDLE;
 288:C:/Users/stapi/OneDrive/Desktop/GD32VW553/V1_MQTT_OK/GD32VW55X_Wifi_BLE_SDK/GD32VW55x_RELEASE_V1.0.2/MSDK/ble/app\app_adv_mgr.c **** }
 289:C:/Users/stapi/OneDrive/Desktop/GD32VW553/V1_MQTT_OK/GD32VW55X_Wifi_BLE_SDK/GD32VW55x_RELEASE_V1.0.2/MSDK/ble/app\app_adv_mgr.c **** 
 290:C:/Users/stapi/OneDrive/Desktop/GD32VW553/V1_MQTT_OK/GD32VW55X_Wifi_BLE_SDK/GD32VW55x_RELEASE_V1.0.2/MSDK/ble/app\app_adv_mgr.c **** /*!
 291:C:/Users/stapi/OneDrive/Desktop/GD32VW553/V1_MQTT_OK/GD32VW55X_Wifi_BLE_SDK/GD32VW55x_RELEASE_V1.0.2/MSDK/ble/app\app_adv_mgr.c ****     \brief      Get available advertising set ID to be used
 292:C:/Users/stapi/OneDrive/Desktop/GD32VW553/V1_MQTT_OK/GD32VW55X_Wifi_BLE_SDK/GD32VW55x_RELEASE_V1.0.2/MSDK/ble/app\app_adv_mgr.c ****     \param[in]  none
 293:C:/Users/stapi/OneDrive/Desktop/GD32VW553/V1_MQTT_OK/GD32VW55X_Wifi_BLE_SDK/GD32VW55x_RELEASE_V1.0.2/MSDK/ble/app\app_adv_mgr.c ****     \param[out] none
 294:C:/Users/stapi/OneDrive/Desktop/GD32VW553/V1_MQTT_OK/GD32VW55X_Wifi_BLE_SDK/GD32VW55x_RELEASE_V1.0.2/MSDK/ble/app\app_adv_mgr.c ****     \retval     uint8_t: advertising set ID value
 295:C:/Users/stapi/OneDrive/Desktop/GD32VW553/V1_MQTT_OK/GD32VW55X_Wifi_BLE_SDK/GD32VW55x_RELEASE_V1.0.2/MSDK/ble/app\app_adv_mgr.c **** */
 296:C:/Users/stapi/OneDrive/Desktop/GD32VW553/V1_MQTT_OK/GD32VW55X_Wifi_BLE_SDK/GD32VW55x_RELEASE_V1.0.2/MSDK/ble/app\app_adv_mgr.c **** static uint8_t app_get_adv_sid(void)
 297:C:/Users/stapi/OneDrive/Desktop/GD32VW553/V1_MQTT_OK/GD32VW55X_Wifi_BLE_SDK/GD32VW55x_RELEASE_V1.0.2/MSDK/ble/app\app_adv_mgr.c **** {
 298:C:/Users/stapi/OneDrive/Desktop/GD32VW553/V1_MQTT_OK/GD32VW55X_Wifi_BLE_SDK/GD32VW55x_RELEASE_V1.0.2/MSDK/ble/app\app_adv_mgr.c ****     app_adv_env.adv_sid++;
 299:C:/Users/stapi/OneDrive/Desktop/GD32VW553/V1_MQTT_OK/GD32VW55X_Wifi_BLE_SDK/GD32VW55x_RELEASE_V1.0.2/MSDK/ble/app\app_adv_mgr.c **** 
 300:C:/Users/stapi/OneDrive/Desktop/GD32VW553/V1_MQTT_OK/GD32VW55X_Wifi_BLE_SDK/GD32VW55x_RELEASE_V1.0.2/MSDK/ble/app\app_adv_mgr.c ****     if (app_adv_env.adv_sid > 0x0F) {
 301:C:/Users/stapi/OneDrive/Desktop/GD32VW553/V1_MQTT_OK/GD32VW55X_Wifi_BLE_SDK/GD32VW55x_RELEASE_V1.0.2/MSDK/ble/app\app_adv_mgr.c ****         app_adv_env.adv_sid = 0x00;
 302:C:/Users/stapi/OneDrive/Desktop/GD32VW553/V1_MQTT_OK/GD32VW55X_Wifi_BLE_SDK/GD32VW55x_RELEASE_V1.0.2/MSDK/ble/app\app_adv_mgr.c ****     }
 303:C:/Users/stapi/OneDrive/Desktop/GD32VW553/V1_MQTT_OK/GD32VW55X_Wifi_BLE_SDK/GD32VW55x_RELEASE_V1.0.2/MSDK/ble/app\app_adv_mgr.c **** 
 304:C:/Users/stapi/OneDrive/Desktop/GD32VW553/V1_MQTT_OK/GD32VW55X_Wifi_BLE_SDK/GD32VW55x_RELEASE_V1.0.2/MSDK/ble/app\app_adv_mgr.c ****     return app_adv_env.adv_sid;
 305:C:/Users/stapi/OneDrive/Desktop/GD32VW553/V1_MQTT_OK/GD32VW55X_Wifi_BLE_SDK/GD32VW55x_RELEASE_V1.0.2/MSDK/ble/app\app_adv_mgr.c **** }
 306:C:/Users/stapi/OneDrive/Desktop/GD32VW553/V1_MQTT_OK/GD32VW55X_Wifi_BLE_SDK/GD32VW55x_RELEASE_V1.0.2/MSDK/ble/app\app_adv_mgr.c **** 
 307:C:/Users/stapi/OneDrive/Desktop/GD32VW553/V1_MQTT_OK/GD32VW55X_Wifi_BLE_SDK/GD32VW55x_RELEASE_V1.0.2/MSDK/ble/app\app_adv_mgr.c **** /*!
 308:C:/Users/stapi/OneDrive/Desktop/GD32VW553/V1_MQTT_OK/GD32VW55X_Wifi_BLE_SDK/GD32VW55x_RELEASE_V1.0.2/MSDK/ble/app\app_adv_mgr.c ****     \brief      Build advertising data
 309:C:/Users/stapi/OneDrive/Desktop/GD32VW553/V1_MQTT_OK/GD32VW55X_Wifi_BLE_SDK/GD32VW55x_RELEASE_V1.0.2/MSDK/ble/app\app_adv_mgr.c ****     \details    Use name + multi manufacturer data to fill different length advertising data
 310:C:/Users/stapi/OneDrive/Desktop/GD32VW553/V1_MQTT_OK/GD32VW55X_Wifi_BLE_SDK/GD32VW55x_RELEASE_V1.0.2/MSDK/ble/app\app_adv_mgr.c ****     \param[in]  p_adv: pointer to BLE advertising set
 311:C:/Users/stapi/OneDrive/Desktop/GD32VW553/V1_MQTT_OK/GD32VW55X_Wifi_BLE_SDK/GD32VW55x_RELEASE_V1.0.2/MSDK/ble/app\app_adv_mgr.c ****     \param[in]  p_buf: buffer address to fill advertising data
 312:C:/Users/stapi/OneDrive/Desktop/GD32VW553/V1_MQTT_OK/GD32VW55X_Wifi_BLE_SDK/GD32VW55x_RELEASE_V1.0.2/MSDK/ble/app\app_adv_mgr.c ****     \param[in]  max_length: max length of advertising data
 313:C:/Users/stapi/OneDrive/Desktop/GD32VW553/V1_MQTT_OK/GD32VW55X_Wifi_BLE_SDK/GD32VW55x_RELEASE_V1.0.2/MSDK/ble/app\app_adv_mgr.c ****     \param[in]  flag: true if flag is needed in advertising data, otherwise false
 314:C:/Users/stapi/OneDrive/Desktop/GD32VW553/V1_MQTT_OK/GD32VW55X_Wifi_BLE_SDK/GD32VW55x_RELEASE_V1.0.2/MSDK/ble/app\app_adv_mgr.c ****     \param[out] none
 315:C:/Users/stapi/OneDrive/Desktop/GD32VW553/V1_MQTT_OK/GD32VW55X_Wifi_BLE_SDK/GD32VW55x_RELEASE_V1.0.2/MSDK/ble/app\app_adv_mgr.c ****     \retval     uint16_t: total length of the result advertising data
 316:C:/Users/stapi/OneDrive/Desktop/GD32VW553/V1_MQTT_OK/GD32VW55X_Wifi_BLE_SDK/GD32VW55x_RELEASE_V1.0.2/MSDK/ble/app\app_adv_mgr.c **** */
 317:C:/Users/stapi/OneDrive/Desktop/GD32VW553/V1_MQTT_OK/GD32VW55X_Wifi_BLE_SDK/GD32VW55x_RELEASE_V1.0.2/MSDK/ble/app\app_adv_mgr.c **** static uint16_t app_build_adv_data(app_adv_set_t *p_adv, uint8_t *p_buf, uint16_t max_length, bool 
 318:C:/Users/stapi/OneDrive/Desktop/GD32VW553/V1_MQTT_OK/GD32VW55X_Wifi_BLE_SDK/GD32VW55x_RELEASE_V1.0.2/MSDK/ble/app\app_adv_mgr.c **** {
  15              		.loc 1 318 1
  16              		.cfi_startproc
  17              	.LVL0:
  18 0000 17030000 		call	t0,__riscv_save_11
  18      E7020300 
  19              		.cfi_offset 26, -48
  20              		.cfi_offset 25, -44
  21              		.cfi_offset 24, -40
  22              		.cfi_offset 23, -36
  23              		.cfi_offset 22, -32
  24              		.cfi_offset 21, -28
  25              		.cfi_offset 20, -24
  26              		.cfi_offset 19, -20
  27              		.cfi_offset 18, -16
  28              		.cfi_offset 9, -12
  29              		.cfi_offset 8, -8
  30              		.cfi_offset 1, -4
  31              		.cfi_def_cfa_offset 48
 319:C:/Users/stapi/OneDrive/Desktop/GD32VW553/V1_MQTT_OK/GD32VW55X_Wifi_BLE_SDK/GD32VW55x_RELEASE_V1.0.2/MSDK/ble/app\app_adv_mgr.c ****     uint16_t rem_len = max_length;
  32              		.loc 1 319 5
  33              	.LVL1:
 320:C:/Users/stapi/OneDrive/Desktop/GD32VW553/V1_MQTT_OK/GD32VW55X_Wifi_BLE_SDK/GD32VW55x_RELEASE_V1.0.2/MSDK/ble/app\app_adv_mgr.c ****     uint8_t dev_name_length;
  34              		.loc 1 320 5
 321:C:/Users/stapi/OneDrive/Desktop/GD32VW553/V1_MQTT_OK/GD32VW55X_Wifi_BLE_SDK/GD32VW55x_RELEASE_V1.0.2/MSDK/ble/app\app_adv_mgr.c ****     uint8_t manu_len;
  35              		.loc 1 321 5
 322:C:/Users/stapi/OneDrive/Desktop/GD32VW553/V1_MQTT_OK/GD32VW55X_Wifi_BLE_SDK/GD32VW55x_RELEASE_V1.0.2/MSDK/ble/app\app_adv_mgr.c ****     uint8_t i;
  36              		.loc 1 322 5
 323:C:/Users/stapi/OneDrive/Desktop/GD32VW553/V1_MQTT_OK/GD32VW55X_Wifi_BLE_SDK/GD32VW55x_RELEASE_V1.0.2/MSDK/ble/app\app_adv_mgr.c ****     uint8_t *p_adp_name = NULL;
  37              		.loc 1 323 5
 318:C:/Users/stapi/OneDrive/Desktop/GD32VW553/V1_MQTT_OK/GD32VW55X_Wifi_BLE_SDK/GD32VW55x_RELEASE_V1.0.2/MSDK/ble/app\app_adv_mgr.c ****     uint16_t rem_len = max_length;
  38              		.loc 1 318 1 is_stmt 0
  39 0008 4111     		addi	sp,sp,-16
  40              		.cfi_def_cfa_offset 64
  41              		.loc 1 323 14
  42 000a 02C6     		sw	zero,12(sp)
 324:C:/Users/stapi/OneDrive/Desktop/GD32VW553/V1_MQTT_OK/GD32VW55X_Wifi_BLE_SDK/GD32VW55x_RELEASE_V1.0.2/MSDK/ble/app\app_adv_mgr.c ****     uint8_t adp_name_length;
  43              		.loc 1 324 5 is_stmt 1
 325:C:/Users/stapi/OneDrive/Desktop/GD32VW553/V1_MQTT_OK/GD32VW55X_Wifi_BLE_SDK/GD32VW55x_RELEASE_V1.0.2/MSDK/ble/app\app_adv_mgr.c **** 
 326:C:/Users/stapi/OneDrive/Desktop/GD32VW553/V1_MQTT_OK/GD32VW55X_Wifi_BLE_SDK/GD32VW55x_RELEASE_V1.0.2/MSDK/ble/app\app_adv_mgr.c ****     if (flag && (p_adv->disc_mode != BLE_GAP_ADV_MODE_BEACON)) {
  44              		.loc 1 326 5
 318:C:/Users/stapi/OneDrive/Desktop/GD32VW553/V1_MQTT_OK/GD32VW55X_Wifi_BLE_SDK/GD32VW55x_RELEASE_V1.0.2/MSDK/ble/app\app_adv_mgr.c ****     uint16_t rem_len = max_length;
  45              		.loc 1 318 1 is_stmt 0
  46 000c AE84     		mv	s1,a1
  47 000e 3289     		mv	s2,a2
  48              		.loc 1 326 8
  49 0010 B9CE     		beq	a3,zero,.L15
  50              		.loc 1 326 14 discriminator 1
  51 0012 83468500 		lbu	a3,8(a0)
  52              	.LVL2:
  53 0016 0D47     		li	a4,3
  54 0018 AA87     		mv	a5,a0
  55 001a 638AE604 		beq	a3,a4,.L15
 327:C:/Users/stapi/OneDrive/Desktop/GD32VW553/V1_MQTT_OK/GD32VW55X_Wifi_BLE_SDK/GD32VW55x_RELEASE_V1.0.2/MSDK/ble/app\app_adv_mgr.c ****         // Check if additional data can be added to the Advertising data - 2 bytes needed for type 
 328:C:/Users/stapi/OneDrive/Desktop/GD32VW553/V1_MQTT_OK/GD32VW55X_Wifi_BLE_SDK/GD32VW55x_RELEASE_V1.0.2/MSDK/ble/app\app_adv_mgr.c ****         if (rem_len < 3) {
  56              		.loc 1 328 9 is_stmt 1
  57              		.loc 1 328 12 is_stmt 0
  58 001e 0947     		li	a4,2
 329:C:/Users/stapi/OneDrive/Desktop/GD32VW553/V1_MQTT_OK/GD32VW55X_Wifi_BLE_SDK/GD32VW55x_RELEASE_V1.0.2/MSDK/ble/app\app_adv_mgr.c ****             return 0;
  59              		.loc 1 329 20
  60 0020 0145     		li	a0,0
  61              	.LVL3:
 328:C:/Users/stapi/OneDrive/Desktop/GD32VW553/V1_MQTT_OK/GD32VW55X_Wifi_BLE_SDK/GD32VW55x_RELEASE_V1.0.2/MSDK/ble/app\app_adv_mgr.c ****             return 0;
  62              		.loc 1 328 12
  63 0022 637DC702 		bleu	a2,a4,.L3
 330:C:/Users/stapi/OneDrive/Desktop/GD32VW553/V1_MQTT_OK/GD32VW55X_Wifi_BLE_SDK/GD32VW55x_RELEASE_V1.0.2/MSDK/ble/app\app_adv_mgr.c ****         }
 331:C:/Users/stapi/OneDrive/Desktop/GD32VW553/V1_MQTT_OK/GD32VW55X_Wifi_BLE_SDK/GD32VW55x_RELEASE_V1.0.2/MSDK/ble/app\app_adv_mgr.c **** 
 332:C:/Users/stapi/OneDrive/Desktop/GD32VW553/V1_MQTT_OK/GD32VW55X_Wifi_BLE_SDK/GD32VW55x_RELEASE_V1.0.2/MSDK/ble/app\app_adv_mgr.c ****         *p_buf++ = 0x02;
  64              		.loc 1 332 9 is_stmt 1
  65              	.LVL4:
 333:C:/Users/stapi/OneDrive/Desktop/GD32VW553/V1_MQTT_OK/GD32VW55X_Wifi_BLE_SDK/GD32VW55x_RELEASE_V1.0.2/MSDK/ble/app\app_adv_mgr.c ****         *p_buf++ = BLE_AD_TYPE_FLAGS;
  66              		.loc 1 333 18 is_stmt 0
  67 0026 8546     		li	a3,1
 334:C:/Users/stapi/OneDrive/Desktop/GD32VW553/V1_MQTT_OK/GD32VW55X_Wifi_BLE_SDK/GD32VW55x_RELEASE_V1.0.2/MSDK/ble/app\app_adv_mgr.c **** 
 335:C:/Users/stapi/OneDrive/Desktop/GD32VW553/V1_MQTT_OK/GD32VW55X_Wifi_BLE_SDK/GD32VW55x_RELEASE_V1.0.2/MSDK/ble/app\app_adv_mgr.c ****         *p_buf = BLE_GAP_ADV_FLAG_BR_EDR_NOT_SUPPORTED;
  68              		.loc 1 335 16
  69 0028 1146     		li	a2,4
  70              	.LVL5:
 332:C:/Users/stapi/OneDrive/Desktop/GD32VW553/V1_MQTT_OK/GD32VW55X_Wifi_BLE_SDK/GD32VW55x_RELEASE_V1.0.2/MSDK/ble/app\app_adv_mgr.c ****         *p_buf++ = BLE_AD_TYPE_FLAGS;
  71              		.loc 1 332 18
  72 002a 2380E500 		sb	a4,0(a1)
 333:C:/Users/stapi/OneDrive/Desktop/GD32VW553/V1_MQTT_OK/GD32VW55X_Wifi_BLE_SDK/GD32VW55x_RELEASE_V1.0.2/MSDK/ble/app\app_adv_mgr.c ****         *p_buf++ = BLE_AD_TYPE_FLAGS;
  73              		.loc 1 333 9 is_stmt 1
  74              	.LVL6:
 333:C:/Users/stapi/OneDrive/Desktop/GD32VW553/V1_MQTT_OK/GD32VW55X_Wifi_BLE_SDK/GD32VW55x_RELEASE_V1.0.2/MSDK/ble/app\app_adv_mgr.c ****         *p_buf++ = BLE_AD_TYPE_FLAGS;
  75              		.loc 1 333 18 is_stmt 0
  76 002e A380D500 		sb	a3,1(a1)
  77              		.loc 1 335 9 is_stmt 1
  78              		.loc 1 335 16 is_stmt 0
  79 0032 2381C500 		sb	a2,2(a1)
 336:C:/Users/stapi/OneDrive/Desktop/GD32VW553/V1_MQTT_OK/GD32VW55X_Wifi_BLE_SDK/GD32VW55x_RELEASE_V1.0.2/MSDK/ble/app\app_adv_mgr.c ****         if (p_adv->disc_mode == BLE_GAP_ADV_MODE_GEN_DISC) {
  80              		.loc 1 336 9 is_stmt 1
  81              		.loc 1 336 18 is_stmt 0
  82 0036 83C78700 		lbu	a5,8(a5)
  83              	.LVL7:
  84              		.loc 1 336 12
  85 003a 6396D702 		bne	a5,a3,.L4
 337:C:/Users/stapi/OneDrive/Desktop/GD32VW553/V1_MQTT_OK/GD32VW55X_Wifi_BLE_SDK/GD32VW55x_RELEASE_V1.0.2/MSDK/ble/app\app_adv_mgr.c ****             *p_buf |= BLE_GAP_ADV_FLAG_LE_GENERAL_DISC_MODE;
  86              		.loc 1 337 13 is_stmt 1
  87              		.loc 1 337 20 is_stmt 0
  88 003e 9947     		li	a5,6
  89              	.L21:
 338:C:/Users/stapi/OneDrive/Desktop/GD32VW553/V1_MQTT_OK/GD32VW55X_Wifi_BLE_SDK/GD32VW55x_RELEASE_V1.0.2/MSDK/ble/app\app_adv_mgr.c ****         } else if (p_adv->disc_mode == BLE_GAP_ADV_MODE_LIM_DISC) {
 339:C:/Users/stapi/OneDrive/Desktop/GD32VW553/V1_MQTT_OK/GD32VW55X_Wifi_BLE_SDK/GD32VW55x_RELEASE_V1.0.2/MSDK/ble/app\app_adv_mgr.c ****             *p_buf |= BLE_GAP_ADV_FLAG_LE_LIMITED_DISC_MODE;
  90              		.loc 1 339 20
  91 0040 2381F400 		sb	a5,2(s1)
  92              	.LVL8:
  93              	.L5:
 340:C:/Users/stapi/OneDrive/Desktop/GD32VW553/V1_MQTT_OK/GD32VW55X_Wifi_BLE_SDK/GD32VW55x_RELEASE_V1.0.2/MSDK/ble/app\app_adv_mgr.c ****         }
 341:C:/Users/stapi/OneDrive/Desktop/GD32VW553/V1_MQTT_OK/GD32VW55X_Wifi_BLE_SDK/GD32VW55x_RELEASE_V1.0.2/MSDK/ble/app\app_adv_mgr.c ****         p_buf++;
  94              		.loc 1 341 9 is_stmt 1
 342:C:/Users/stapi/OneDrive/Desktop/GD32VW553/V1_MQTT_OK/GD32VW55X_Wifi_BLE_SDK/GD32VW55x_RELEASE_V1.0.2/MSDK/ble/app\app_adv_mgr.c **** 
 343:C:/Users/stapi/OneDrive/Desktop/GD32VW553/V1_MQTT_OK/GD32VW55X_Wifi_BLE_SDK/GD32VW55x_RELEASE_V1.0.2/MSDK/ble/app\app_adv_mgr.c ****         rem_len -= 3;
  95              		.loc 1 343 17 is_stmt 0
  96 0044 1304D9FF 		addi	s0,s2,-3
 341:C:/Users/stapi/OneDrive/Desktop/GD32VW553/V1_MQTT_OK/GD32VW55X_Wifi_BLE_SDK/GD32VW55x_RELEASE_V1.0.2/MSDK/ble/app\app_adv_mgr.c **** 
  97              		.loc 1 341 14
  98 0048 8D04     		addi	s1,s1,3
  99              	.LVL9:
 100              		.loc 1 343 9 is_stmt 1
 101              		.loc 1 343 17 is_stmt 0
 102 004a 33440408 		zext.h	s0,s0
 103              	.LVL10:
 104              	.L2:
 344:C:/Users/stapi/OneDrive/Desktop/GD32VW553/V1_MQTT_OK/GD32VW55X_Wifi_BLE_SDK/GD32VW55x_RELEASE_V1.0.2/MSDK/ble/app\app_adv_mgr.c ****     }
 345:C:/Users/stapi/OneDrive/Desktop/GD32VW553/V1_MQTT_OK/GD32VW55X_Wifi_BLE_SDK/GD32VW55x_RELEASE_V1.0.2/MSDK/ble/app\app_adv_mgr.c **** 
 346:C:/Users/stapi/OneDrive/Desktop/GD32VW553/V1_MQTT_OK/GD32VW55X_Wifi_BLE_SDK/GD32VW55x_RELEASE_V1.0.2/MSDK/ble/app\app_adv_mgr.c ****     if (rem_len <= 2) {
 105              		.loc 1 346 5 is_stmt 1
 106              		.loc 1 346 8 is_stmt 0
 107 004e 8947     		li	a5,2
 108 0050 63E18702 		bgtu	s0,a5,.L6
 109              	.L22:
 347:C:/Users/stapi/OneDrive/Desktop/GD32VW553/V1_MQTT_OK/GD32VW55X_Wifi_BLE_SDK/GD32VW55x_RELEASE_V1.0.2/MSDK/ble/app\app_adv_mgr.c ****         return (max_length - rem_len);
 348:C:/Users/stapi/OneDrive/Desktop/GD32VW553/V1_MQTT_OK/GD32VW55X_Wifi_BLE_SDK/GD32VW55x_RELEASE_V1.0.2/MSDK/ble/app\app_adv_mgr.c ****     }
 349:C:/Users/stapi/OneDrive/Desktop/GD32VW553/V1_MQTT_OK/GD32VW55X_Wifi_BLE_SDK/GD32VW55x_RELEASE_V1.0.2/MSDK/ble/app\app_adv_mgr.c **** 
 350:C:/Users/stapi/OneDrive/Desktop/GD32VW553/V1_MQTT_OK/GD32VW55X_Wifi_BLE_SDK/GD32VW55x_RELEASE_V1.0.2/MSDK/ble/app\app_adv_mgr.c ****     adp_name_length = app_adp_get_name(&p_adp_name);
 351:C:/Users/stapi/OneDrive/Desktop/GD32VW553/V1_MQTT_OK/GD32VW55X_Wifi_BLE_SDK/GD32VW55x_RELEASE_V1.0.2/MSDK/ble/app\app_adv_mgr.c **** 
 352:C:/Users/stapi/OneDrive/Desktop/GD32VW553/V1_MQTT_OK/GD32VW55X_Wifi_BLE_SDK/GD32VW55x_RELEASE_V1.0.2/MSDK/ble/app\app_adv_mgr.c ****     dev_name_length = adp_name_length > (rem_len - 2) ? (rem_len - 2) :
 353:C:/Users/stapi/OneDrive/Desktop/GD32VW553/V1_MQTT_OK/GD32VW55X_Wifi_BLE_SDK/GD32VW55x_RELEASE_V1.0.2/MSDK/ble/app\app_adv_mgr.c ****                       adp_name_length;
 354:C:/Users/stapi/OneDrive/Desktop/GD32VW553/V1_MQTT_OK/GD32VW55X_Wifi_BLE_SDK/GD32VW55x_RELEASE_V1.0.2/MSDK/ble/app\app_adv_mgr.c **** 
 355:C:/Users/stapi/OneDrive/Desktop/GD32VW553/V1_MQTT_OK/GD32VW55X_Wifi_BLE_SDK/GD32VW55x_RELEASE_V1.0.2/MSDK/ble/app\app_adv_mgr.c ****     // Device name length
 356:C:/Users/stapi/OneDrive/Desktop/GD32VW553/V1_MQTT_OK/GD32VW55X_Wifi_BLE_SDK/GD32VW55x_RELEASE_V1.0.2/MSDK/ble/app\app_adv_mgr.c ****     *p_buf = dev_name_length + 1;
 357:C:/Users/stapi/OneDrive/Desktop/GD32VW553/V1_MQTT_OK/GD32VW55X_Wifi_BLE_SDK/GD32VW55x_RELEASE_V1.0.2/MSDK/ble/app\app_adv_mgr.c ****     // Device name flag (check if device name is complete or not)
 358:C:/Users/stapi/OneDrive/Desktop/GD32VW553/V1_MQTT_OK/GD32VW55X_Wifi_BLE_SDK/GD32VW55x_RELEASE_V1.0.2/MSDK/ble/app\app_adv_mgr.c ****     *(p_buf + 1) = (dev_name_length == adp_name_length) ? '\x09' : '\x08';
 359:C:/Users/stapi/OneDrive/Desktop/GD32VW553/V1_MQTT_OK/GD32VW55X_Wifi_BLE_SDK/GD32VW55x_RELEASE_V1.0.2/MSDK/ble/app\app_adv_mgr.c ****     // Copy device name
 360:C:/Users/stapi/OneDrive/Desktop/GD32VW553/V1_MQTT_OK/GD32VW55X_Wifi_BLE_SDK/GD32VW55x_RELEASE_V1.0.2/MSDK/ble/app\app_adv_mgr.c ****     memcpy(p_buf + 2, p_adp_name, dev_name_length);
 361:C:/Users/stapi/OneDrive/Desktop/GD32VW553/V1_MQTT_OK/GD32VW55X_Wifi_BLE_SDK/GD32VW55x_RELEASE_V1.0.2/MSDK/ble/app\app_adv_mgr.c **** 
 362:C:/Users/stapi/OneDrive/Desktop/GD32VW553/V1_MQTT_OK/GD32VW55X_Wifi_BLE_SDK/GD32VW55x_RELEASE_V1.0.2/MSDK/ble/app\app_adv_mgr.c ****     // Update advertising data length
 363:C:/Users/stapi/OneDrive/Desktop/GD32VW553/V1_MQTT_OK/GD32VW55X_Wifi_BLE_SDK/GD32VW55x_RELEASE_V1.0.2/MSDK/ble/app\app_adv_mgr.c ****     rem_len -= (dev_name_length + 2);
 364:C:/Users/stapi/OneDrive/Desktop/GD32VW553/V1_MQTT_OK/GD32VW55X_Wifi_BLE_SDK/GD32VW55x_RELEASE_V1.0.2/MSDK/ble/app\app_adv_mgr.c ****     p_buf += (dev_name_length + 2);
 365:C:/Users/stapi/OneDrive/Desktop/GD32VW553/V1_MQTT_OK/GD32VW55X_Wifi_BLE_SDK/GD32VW55x_RELEASE_V1.0.2/MSDK/ble/app\app_adv_mgr.c **** 
 366:C:/Users/stapi/OneDrive/Desktop/GD32VW553/V1_MQTT_OK/GD32VW55X_Wifi_BLE_SDK/GD32VW55x_RELEASE_V1.0.2/MSDK/ble/app\app_adv_mgr.c ****     while (rem_len >= 4) {
 367:C:/Users/stapi/OneDrive/Desktop/GD32VW553/V1_MQTT_OK/GD32VW55X_Wifi_BLE_SDK/GD32VW55x_RELEASE_V1.0.2/MSDK/ble/app\app_adv_mgr.c ****         // add manufacturer data
 368:C:/Users/stapi/OneDrive/Desktop/GD32VW553/V1_MQTT_OK/GD32VW55X_Wifi_BLE_SDK/GD32VW55x_RELEASE_V1.0.2/MSDK/ble/app\app_adv_mgr.c ****         // length, type(0xFF), 2 bytes company id
 369:C:/Users/stapi/OneDrive/Desktop/GD32VW553/V1_MQTT_OK/GD32VW55X_Wifi_BLE_SDK/GD32VW55x_RELEASE_V1.0.2/MSDK/ble/app\app_adv_mgr.c ****         manu_len = rem_len < 0xFF ? (uint8_t)rem_len : 0xFF;
 370:C:/Users/stapi/OneDrive/Desktop/GD32VW553/V1_MQTT_OK/GD32VW55X_Wifi_BLE_SDK/GD32VW55x_RELEASE_V1.0.2/MSDK/ble/app\app_adv_mgr.c ****         *p_buf++ = manu_len - 1;    // length
 371:C:/Users/stapi/OneDrive/Desktop/GD32VW553/V1_MQTT_OK/GD32VW55X_Wifi_BLE_SDK/GD32VW55x_RELEASE_V1.0.2/MSDK/ble/app\app_adv_mgr.c ****         *p_buf++ = 0xFF;            // type
 372:C:/Users/stapi/OneDrive/Desktop/GD32VW553/V1_MQTT_OK/GD32VW55X_Wifi_BLE_SDK/GD32VW55x_RELEASE_V1.0.2/MSDK/ble/app\app_adv_mgr.c ****         *p_buf++ = 0x2B;            // company id
 373:C:/Users/stapi/OneDrive/Desktop/GD32VW553/V1_MQTT_OK/GD32VW55X_Wifi_BLE_SDK/GD32VW55x_RELEASE_V1.0.2/MSDK/ble/app\app_adv_mgr.c ****         *p_buf++ = 0x0C;            // company id
 374:C:/Users/stapi/OneDrive/Desktop/GD32VW553/V1_MQTT_OK/GD32VW55X_Wifi_BLE_SDK/GD32VW55x_RELEASE_V1.0.2/MSDK/ble/app\app_adv_mgr.c ****         for (i = 0; i < (manu_len - 4); i++) {
 375:C:/Users/stapi/OneDrive/Desktop/GD32VW553/V1_MQTT_OK/GD32VW55X_Wifi_BLE_SDK/GD32VW55x_RELEASE_V1.0.2/MSDK/ble/app\app_adv_mgr.c ****             *p_buf++ = (uint8_t)(rand() & 0xFF);
 376:C:/Users/stapi/OneDrive/Desktop/GD32VW553/V1_MQTT_OK/GD32VW55X_Wifi_BLE_SDK/GD32VW55x_RELEASE_V1.0.2/MSDK/ble/app\app_adv_mgr.c ****         };
 377:C:/Users/stapi/OneDrive/Desktop/GD32VW553/V1_MQTT_OK/GD32VW55X_Wifi_BLE_SDK/GD32VW55x_RELEASE_V1.0.2/MSDK/ble/app\app_adv_mgr.c **** 
 378:C:/Users/stapi/OneDrive/Desktop/GD32VW553/V1_MQTT_OK/GD32VW55X_Wifi_BLE_SDK/GD32VW55x_RELEASE_V1.0.2/MSDK/ble/app\app_adv_mgr.c ****         rem_len -= manu_len;
 379:C:/Users/stapi/OneDrive/Desktop/GD32VW553/V1_MQTT_OK/GD32VW55X_Wifi_BLE_SDK/GD32VW55x_RELEASE_V1.0.2/MSDK/ble/app\app_adv_mgr.c ****     }
 380:C:/Users/stapi/OneDrive/Desktop/GD32VW553/V1_MQTT_OK/GD32VW55X_Wifi_BLE_SDK/GD32VW55x_RELEASE_V1.0.2/MSDK/ble/app\app_adv_mgr.c **** 
 381:C:/Users/stapi/OneDrive/Desktop/GD32VW553/V1_MQTT_OK/GD32VW55X_Wifi_BLE_SDK/GD32VW55x_RELEASE_V1.0.2/MSDK/ble/app\app_adv_mgr.c ****     return (max_length - rem_len);
 110              		.loc 1 381 5 is_stmt 1
 111              		.loc 1 381 24 is_stmt 0
 112 0054 33048940 		sub	s0,s2,s0
 113              	.LVL11:
 114 0058 33450408 		zext.h	a0,s0
 115              	.L3:
 382:C:/Users/stapi/OneDrive/Desktop/GD32VW553/V1_MQTT_OK/GD32VW55X_Wifi_BLE_SDK/GD32VW55x_RELEASE_V1.0.2/MSDK/ble/app\app_adv_mgr.c **** }
 116              		.loc 1 382 1
 117 005c 4101     		addi	sp,sp,16
 118              		.cfi_remember_state
 119              		.cfi_def_cfa_offset 0
 120 005e 17030000 		tail	__riscv_restore_11
 120      67000300 
 121              		.cfi_restore 26
 122              		.cfi_restore 25
 123              		.cfi_restore 24
 124              		.cfi_restore 23
 125              		.cfi_restore 22
 126              		.cfi_restore 21
 127              		.cfi_restore 20
 128              		.cfi_restore 19
 129              		.cfi_restore 18
 130              		.cfi_restore 9
 131              		.cfi_restore 8
 132              		.cfi_restore 1
 133              		.cfi_def_cfa_offset -48
 134              	.LVL12:
 135              	.L4:
 136              		.cfi_restore_state
 338:C:/Users/stapi/OneDrive/Desktop/GD32VW553/V1_MQTT_OK/GD32VW55X_Wifi_BLE_SDK/GD32VW55x_RELEASE_V1.0.2/MSDK/ble/app\app_adv_mgr.c ****             *p_buf |= BLE_GAP_ADV_FLAG_LE_LIMITED_DISC_MODE;
 137              		.loc 1 338 16 is_stmt 1
 338:C:/Users/stapi/OneDrive/Desktop/GD32VW553/V1_MQTT_OK/GD32VW55X_Wifi_BLE_SDK/GD32VW55x_RELEASE_V1.0.2/MSDK/ble/app\app_adv_mgr.c ****             *p_buf |= BLE_GAP_ADV_FLAG_LE_LIMITED_DISC_MODE;
 138              		.loc 1 338 19 is_stmt 0
 139 0066 E39FE7FC 		bne	a5,a4,.L5
 339:C:/Users/stapi/OneDrive/Desktop/GD32VW553/V1_MQTT_OK/GD32VW55X_Wifi_BLE_SDK/GD32VW55x_RELEASE_V1.0.2/MSDK/ble/app\app_adv_mgr.c ****         }
 140              		.loc 1 339 13 is_stmt 1
 339:C:/Users/stapi/OneDrive/Desktop/GD32VW553/V1_MQTT_OK/GD32VW55X_Wifi_BLE_SDK/GD32VW55x_RELEASE_V1.0.2/MSDK/ble/app\app_adv_mgr.c ****         }
 141              		.loc 1 339 20 is_stmt 0
 142 006a 9547     		li	a5,5
 143 006c D1BF     		j	.L21
 144              	.LVL13:
 145              	.L15:
 146 006e 4A84     		mv	s0,s2
 147 0070 F9BF     		j	.L2
 148              	.LVL14:
 149              	.L6:
 350:C:/Users/stapi/OneDrive/Desktop/GD32VW553/V1_MQTT_OK/GD32VW55X_Wifi_BLE_SDK/GD32VW55x_RELEASE_V1.0.2/MSDK/ble/app\app_adv_mgr.c **** 
 150              		.loc 1 350 5 is_stmt 1
 350:C:/Users/stapi/OneDrive/Desktop/GD32VW553/V1_MQTT_OK/GD32VW55X_Wifi_BLE_SDK/GD32VW55x_RELEASE_V1.0.2/MSDK/ble/app\app_adv_mgr.c **** 
 151              		.loc 1 350 23 is_stmt 0
 152 0072 6800     		addi	a0,sp,12
 153 0074 97000000 		call	app_adp_get_name
 153      E7800000 
 154              	.LVL15:
 352:C:/Users/stapi/OneDrive/Desktop/GD32VW553/V1_MQTT_OK/GD32VW55X_Wifi_BLE_SDK/GD32VW55x_RELEASE_V1.0.2/MSDK/ble/app\app_adv_mgr.c ****                       adp_name_length;
 155              		.loc 1 352 5 is_stmt 1
 352:C:/Users/stapi/OneDrive/Desktop/GD32VW553/V1_MQTT_OK/GD32VW55X_Wifi_BLE_SDK/GD32VW55x_RELEASE_V1.0.2/MSDK/ble/app\app_adv_mgr.c ****                       adp_name_length;
 156              		.loc 1 352 39 is_stmt 0
 157 007c 9307F4FF 		addi	a5,s0,-1
 352:C:/Users/stapi/OneDrive/Desktop/GD32VW553/V1_MQTT_OK/GD32VW55X_Wifi_BLE_SDK/GD32VW55x_RELEASE_V1.0.2/MSDK/ble/app\app_adv_mgr.c ****                       adp_name_length;
 158              		.loc 1 352 21
 159 0080 AA89     		mv	s3,a0
 160 0082 7914     		addi	s0,s0,-2
 161              	.LVL16:
 162 0084 6344F500 		bgt	a5,a0,.L7
 352:C:/Users/stapi/OneDrive/Desktop/GD32VW553/V1_MQTT_OK/GD32VW55X_Wifi_BLE_SDK/GD32VW55x_RELEASE_V1.0.2/MSDK/ble/app\app_adv_mgr.c ****                       adp_name_length;
 163              		.loc 1 352 21 discriminator 1
 164 0088 9379F40F 		andi	s3,s0,0xff
 165              	.L7:
 166              	.LVL17:
 356:C:/Users/stapi/OneDrive/Desktop/GD32VW553/V1_MQTT_OK/GD32VW55X_Wifi_BLE_SDK/GD32VW55x_RELEASE_V1.0.2/MSDK/ble/app\app_adv_mgr.c ****     // Device name flag (check if device name is complete or not)
 167              		.loc 1 356 5 is_stmt 1 discriminator 4
 356:C:/Users/stapi/OneDrive/Desktop/GD32VW553/V1_MQTT_OK/GD32VW55X_Wifi_BLE_SDK/GD32VW55x_RELEASE_V1.0.2/MSDK/ble/app\app_adv_mgr.c ****     // Device name flag (check if device name is complete or not)
 168              		.loc 1 356 30 is_stmt 0 discriminator 4
 169 008c 93871900 		addi	a5,s3,1
 356:C:/Users/stapi/OneDrive/Desktop/GD32VW553/V1_MQTT_OK/GD32VW55X_Wifi_BLE_SDK/GD32VW55x_RELEASE_V1.0.2/MSDK/ble/app\app_adv_mgr.c ****     // Device name flag (check if device name is complete or not)
 170              		.loc 1 356 12 discriminator 4
 171 0090 2380F400 		sb	a5,0(s1)
 358:C:/Users/stapi/OneDrive/Desktop/GD32VW553/V1_MQTT_OK/GD32VW55X_Wifi_BLE_SDK/GD32VW55x_RELEASE_V1.0.2/MSDK/ble/app\app_adv_mgr.c ****     // Copy device name
 172              		.loc 1 358 5 is_stmt 1 discriminator 4
 358:C:/Users/stapi/OneDrive/Desktop/GD32VW553/V1_MQTT_OK/GD32VW55X_Wifi_BLE_SDK/GD32VW55x_RELEASE_V1.0.2/MSDK/ble/app\app_adv_mgr.c ****     // Copy device name
 173              		.loc 1 358 18 is_stmt 0 discriminator 4
 174 0094 A547     		li	a5,9
 175 0096 6383A900 		beq	s3,a0,.L8
 358:C:/Users/stapi/OneDrive/Desktop/GD32VW553/V1_MQTT_OK/GD32VW55X_Wifi_BLE_SDK/GD32VW55x_RELEASE_V1.0.2/MSDK/ble/app\app_adv_mgr.c ****     // Copy device name
 176              		.loc 1 358 18
 177 009a A147     		li	a5,8
 178              	.L8:
 179              	.LVL18:
 360:C:/Users/stapi/OneDrive/Desktop/GD32VW553/V1_MQTT_OK/GD32VW55X_Wifi_BLE_SDK/GD32VW55x_RELEASE_V1.0.2/MSDK/ble/app\app_adv_mgr.c **** 
 180              		.loc 1 360 5 discriminator 4
 181 009c B245     		lw	a1,12(sp)
 358:C:/Users/stapi/OneDrive/Desktop/GD32VW553/V1_MQTT_OK/GD32VW55X_Wifi_BLE_SDK/GD32VW55x_RELEASE_V1.0.2/MSDK/ble/app\app_adv_mgr.c ****     // Copy device name
 182              		.loc 1 358 18 discriminator 4
 183 009e A380F400 		sb	a5,1(s1)
 360:C:/Users/stapi/OneDrive/Desktop/GD32VW553/V1_MQTT_OK/GD32VW55X_Wifi_BLE_SDK/GD32VW55x_RELEASE_V1.0.2/MSDK/ble/app\app_adv_mgr.c **** 
 184              		.loc 1 360 5 is_stmt 1 discriminator 4
 185 00a2 4E86     		mv	a2,s3
 186 00a4 13852400 		addi	a0,s1,2
 187              	.LVL19:
 363:C:/Users/stapi/OneDrive/Desktop/GD32VW553/V1_MQTT_OK/GD32VW55X_Wifi_BLE_SDK/GD32VW55x_RELEASE_V1.0.2/MSDK/ble/app\app_adv_mgr.c ****     p_buf += (dev_name_length + 2);
 188              		.loc 1 363 13 is_stmt 0 discriminator 4
 189 00a8 33043441 		sub	s0,s0,s3
 364:C:/Users/stapi/OneDrive/Desktop/GD32VW553/V1_MQTT_OK/GD32VW55X_Wifi_BLE_SDK/GD32VW55x_RELEASE_V1.0.2/MSDK/ble/app\app_adv_mgr.c **** 
 190              		.loc 1 364 11 discriminator 4
 191 00ac 8909     		addi	s3,s3,2
 360:C:/Users/stapi/OneDrive/Desktop/GD32VW553/V1_MQTT_OK/GD32VW55X_Wifi_BLE_SDK/GD32VW55x_RELEASE_V1.0.2/MSDK/ble/app\app_adv_mgr.c **** 
 192              		.loc 1 360 5 discriminator 4
 193 00ae 97000000 		call	memcpy
 193      E7800000 
 194              	.LVL20:
 363:C:/Users/stapi/OneDrive/Desktop/GD32VW553/V1_MQTT_OK/GD32VW55X_Wifi_BLE_SDK/GD32VW55x_RELEASE_V1.0.2/MSDK/ble/app\app_adv_mgr.c ****     p_buf += (dev_name_length + 2);
 195              		.loc 1 363 5 is_stmt 1 discriminator 4
 364:C:/Users/stapi/OneDrive/Desktop/GD32VW553/V1_MQTT_OK/GD32VW55X_Wifi_BLE_SDK/GD32VW55x_RELEASE_V1.0.2/MSDK/ble/app\app_adv_mgr.c **** 
 196              		.loc 1 364 11 is_stmt 0 discriminator 4
 197 00b6 CE94     		add	s1,s1,s3
 198              	.LVL21:
 366:C:/Users/stapi/OneDrive/Desktop/GD32VW553/V1_MQTT_OK/GD32VW55X_Wifi_BLE_SDK/GD32VW55x_RELEASE_V1.0.2/MSDK/ble/app\app_adv_mgr.c ****         // add manufacturer data
 199              		.loc 1 366 11 discriminator 4
 200 00b8 8D4A     		li	s5,3
 369:C:/Users/stapi/OneDrive/Desktop/GD32VW553/V1_MQTT_OK/GD32VW55X_Wifi_BLE_SDK/GD32VW55x_RELEASE_V1.0.2/MSDK/ble/app\app_adv_mgr.c ****         *p_buf++ = manu_len - 1;    // length
 201              		.loc 1 369 18 discriminator 4
 202 00ba 130BE00F 		li	s6,254
 371:C:/Users/stapi/OneDrive/Desktop/GD32VW553/V1_MQTT_OK/GD32VW55X_Wifi_BLE_SDK/GD32VW55x_RELEASE_V1.0.2/MSDK/ble/app\app_adv_mgr.c ****         *p_buf++ = 0x2B;            // company id
 203              		.loc 1 371 18 discriminator 4
 204 00be FD5B     		li	s7,-1
 372:C:/Users/stapi/OneDrive/Desktop/GD32VW553/V1_MQTT_OK/GD32VW55X_Wifi_BLE_SDK/GD32VW55x_RELEASE_V1.0.2/MSDK/ble/app\app_adv_mgr.c ****         *p_buf++ = 0x0C;            // company id
 205              		.loc 1 372 18 discriminator 4
 206 00c0 130CB002 		li	s8,43
 373:C:/Users/stapi/OneDrive/Desktop/GD32VW553/V1_MQTT_OK/GD32VW55X_Wifi_BLE_SDK/GD32VW55x_RELEASE_V1.0.2/MSDK/ble/app\app_adv_mgr.c ****         for (i = 0; i < (manu_len - 4); i++) {
 207              		.loc 1 373 18 discriminator 4
 208 00c4 B14C     		li	s9,12
 363:C:/Users/stapi/OneDrive/Desktop/GD32VW553/V1_MQTT_OK/GD32VW55X_Wifi_BLE_SDK/GD32VW55x_RELEASE_V1.0.2/MSDK/ble/app\app_adv_mgr.c ****     p_buf += (dev_name_length + 2);
 209              		.loc 1 363 13 discriminator 4
 210 00c6 33440408 		zext.h	s0,s0
 211              	.LVL22:
 364:C:/Users/stapi/OneDrive/Desktop/GD32VW553/V1_MQTT_OK/GD32VW55X_Wifi_BLE_SDK/GD32VW55x_RELEASE_V1.0.2/MSDK/ble/app\app_adv_mgr.c **** 
 212              		.loc 1 364 5 is_stmt 1 discriminator 4
 366:C:/Users/stapi/OneDrive/Desktop/GD32VW553/V1_MQTT_OK/GD32VW55X_Wifi_BLE_SDK/GD32VW55x_RELEASE_V1.0.2/MSDK/ble/app\app_adv_mgr.c ****         // add manufacturer data
 213              		.loc 1 366 5 discriminator 4
 214              	.L9:
 366:C:/Users/stapi/OneDrive/Desktop/GD32VW553/V1_MQTT_OK/GD32VW55X_Wifi_BLE_SDK/GD32VW55x_RELEASE_V1.0.2/MSDK/ble/app\app_adv_mgr.c ****         // add manufacturer data
 215              		.loc 1 366 11
 216 00ca E3F58AF8 		bleu	s0,s5,.L22
 369:C:/Users/stapi/OneDrive/Desktop/GD32VW553/V1_MQTT_OK/GD32VW55X_Wifi_BLE_SDK/GD32VW55x_RELEASE_V1.0.2/MSDK/ble/app\app_adv_mgr.c ****         *p_buf++ = manu_len - 1;    // length
 217              		.loc 1 369 9
 218 00ce 130AF00F 		li	s4,255
 369:C:/Users/stapi/OneDrive/Desktop/GD32VW553/V1_MQTT_OK/GD32VW55X_Wifi_BLE_SDK/GD32VW55x_RELEASE_V1.0.2/MSDK/ble/app\app_adv_mgr.c ****         *p_buf++ = manu_len - 1;    // length
 219              		.loc 1 369 18 is_stmt 0
 220 00d2 63638B00 		bgtu	s0,s6,.L10
 221 00d6 228A     		mv	s4,s0
 222              	.L10:
 223              	.LVL23:
 370:C:/Users/stapi/OneDrive/Desktop/GD32VW553/V1_MQTT_OK/GD32VW55X_Wifi_BLE_SDK/GD32VW55x_RELEASE_V1.0.2/MSDK/ble/app\app_adv_mgr.c ****         *p_buf++ = 0xFF;            // type
 224              		.loc 1 370 9 is_stmt 1 discriminator 4
 370:C:/Users/stapi/OneDrive/Desktop/GD32VW553/V1_MQTT_OK/GD32VW55X_Wifi_BLE_SDK/GD32VW55x_RELEASE_V1.0.2/MSDK/ble/app\app_adv_mgr.c ****         *p_buf++ = 0xFF;            // type
 225              		.loc 1 370 29 is_stmt 0 discriminator 4
 226 00d8 9307FAFF 		addi	a5,s4,-1
 370:C:/Users/stapi/OneDrive/Desktop/GD32VW553/V1_MQTT_OK/GD32VW55X_Wifi_BLE_SDK/GD32VW55x_RELEASE_V1.0.2/MSDK/ble/app\app_adv_mgr.c ****         *p_buf++ = 0xFF;            // type
 227              		.loc 1 370 18 discriminator 4
 228 00dc 2380F400 		sb	a5,0(s1)
 371:C:/Users/stapi/OneDrive/Desktop/GD32VW553/V1_MQTT_OK/GD32VW55X_Wifi_BLE_SDK/GD32VW55x_RELEASE_V1.0.2/MSDK/ble/app\app_adv_mgr.c ****         *p_buf++ = 0x2B;            // company id
 229              		.loc 1 371 9 is_stmt 1 discriminator 4
 230              	.LVL24:
 371:C:/Users/stapi/OneDrive/Desktop/GD32VW553/V1_MQTT_OK/GD32VW55X_Wifi_BLE_SDK/GD32VW55x_RELEASE_V1.0.2/MSDK/ble/app\app_adv_mgr.c ****         *p_buf++ = 0x2B;            // company id
 231              		.loc 1 371 18 is_stmt 0 discriminator 4
 232 00e0 A3807401 		sb	s7,1(s1)
 372:C:/Users/stapi/OneDrive/Desktop/GD32VW553/V1_MQTT_OK/GD32VW55X_Wifi_BLE_SDK/GD32VW55x_RELEASE_V1.0.2/MSDK/ble/app\app_adv_mgr.c ****         *p_buf++ = 0x0C;            // company id
 233              		.loc 1 372 9 is_stmt 1 discriminator 4
 234              	.LVL25:
 372:C:/Users/stapi/OneDrive/Desktop/GD32VW553/V1_MQTT_OK/GD32VW55X_Wifi_BLE_SDK/GD32VW55x_RELEASE_V1.0.2/MSDK/ble/app\app_adv_mgr.c ****         *p_buf++ = 0x0C;            // company id
 235              		.loc 1 372 18 is_stmt 0 discriminator 4
 236 00e4 23818401 		sb	s8,2(s1)
 373:C:/Users/stapi/OneDrive/Desktop/GD32VW553/V1_MQTT_OK/GD32VW55X_Wifi_BLE_SDK/GD32VW55x_RELEASE_V1.0.2/MSDK/ble/app\app_adv_mgr.c ****         for (i = 0; i < (manu_len - 4); i++) {
 237              		.loc 1 373 9 is_stmt 1 discriminator 4
 238              	.LVL26:
 373:C:/Users/stapi/OneDrive/Desktop/GD32VW553/V1_MQTT_OK/GD32VW55X_Wifi_BLE_SDK/GD32VW55x_RELEASE_V1.0.2/MSDK/ble/app\app_adv_mgr.c ****         for (i = 0; i < (manu_len - 4); i++) {
 239              		.loc 1 373 18 is_stmt 0 discriminator 4
 240 00e8 A3819401 		sb	s9,3(s1)
 374:C:/Users/stapi/OneDrive/Desktop/GD32VW553/V1_MQTT_OK/GD32VW55X_Wifi_BLE_SDK/GD32VW55x_RELEASE_V1.0.2/MSDK/ble/app\app_adv_mgr.c ****             *p_buf++ = (uint8_t)(rand() & 0xFF);
 241              		.loc 1 374 9 is_stmt 1 discriminator 4
 242              	.LVL27:
 374:C:/Users/stapi/OneDrive/Desktop/GD32VW553/V1_MQTT_OK/GD32VW55X_Wifi_BLE_SDK/GD32VW55x_RELEASE_V1.0.2/MSDK/ble/app\app_adv_mgr.c ****             *p_buf++ = (uint8_t)(rand() & 0xFF);
 243              		.loc 1 374 16 is_stmt 0 discriminator 4
 244 00ec 8149     		li	s3,0
 373:C:/Users/stapi/OneDrive/Desktop/GD32VW553/V1_MQTT_OK/GD32VW55X_Wifi_BLE_SDK/GD32VW55x_RELEASE_V1.0.2/MSDK/ble/app\app_adv_mgr.c ****         for (i = 0; i < (manu_len - 4); i++) {
 245              		.loc 1 373 15 discriminator 4
 246 00ee 9104     		addi	s1,s1,4
 247              	.LVL28:
 374:C:/Users/stapi/OneDrive/Desktop/GD32VW553/V1_MQTT_OK/GD32VW55X_Wifi_BLE_SDK/GD32VW55x_RELEASE_V1.0.2/MSDK/ble/app\app_adv_mgr.c ****             *p_buf++ = (uint8_t)(rand() & 0xFF);
 248              		.loc 1 374 35 discriminator 4
 249 00f0 130DCAFF 		addi	s10,s4,-4
 250              	.LVL29:
 251              	.L11:
 374:C:/Users/stapi/OneDrive/Desktop/GD32VW553/V1_MQTT_OK/GD32VW55X_Wifi_BLE_SDK/GD32VW55x_RELEASE_V1.0.2/MSDK/ble/app\app_adv_mgr.c ****             *p_buf++ = (uint8_t)(rand() & 0xFF);
 252              		.loc 1 374 21 is_stmt 1 discriminator 1
 374:C:/Users/stapi/OneDrive/Desktop/GD32VW553/V1_MQTT_OK/GD32VW55X_Wifi_BLE_SDK/GD32VW55x_RELEASE_V1.0.2/MSDK/ble/app\app_adv_mgr.c ****             *p_buf++ = (uint8_t)(rand() & 0xFF);
 253              		.loc 1 374 9 is_stmt 0 discriminator 1
 254 00f4 63C7A901 		blt	s3,s10,.L12
 376:C:/Users/stapi/OneDrive/Desktop/GD32VW553/V1_MQTT_OK/GD32VW55X_Wifi_BLE_SDK/GD32VW55x_RELEASE_V1.0.2/MSDK/ble/app\app_adv_mgr.c **** 
 255              		.loc 1 376 10 is_stmt 1
 378:C:/Users/stapi/OneDrive/Desktop/GD32VW553/V1_MQTT_OK/GD32VW55X_Wifi_BLE_SDK/GD32VW55x_RELEASE_V1.0.2/MSDK/ble/app\app_adv_mgr.c ****     }
 256              		.loc 1 378 9
 378:C:/Users/stapi/OneDrive/Desktop/GD32VW553/V1_MQTT_OK/GD32VW55X_Wifi_BLE_SDK/GD32VW55x_RELEASE_V1.0.2/MSDK/ble/app\app_adv_mgr.c ****     }
 257              		.loc 1 378 17 is_stmt 0
 258 00f8 33044441 		sub	s0,s0,s4
 259              	.LVL30:
 260 00fc 33440408 		zext.h	s0,s0
 261              	.LVL31:
 262 0100 E9B7     		j	.L9
 263              	.L12:
 375:C:/Users/stapi/OneDrive/Desktop/GD32VW553/V1_MQTT_OK/GD32VW55X_Wifi_BLE_SDK/GD32VW55x_RELEASE_V1.0.2/MSDK/ble/app\app_adv_mgr.c ****         };
 264              		.loc 1 375 13 is_stmt 1 discriminator 3
 375:C:/Users/stapi/OneDrive/Desktop/GD32VW553/V1_MQTT_OK/GD32VW55X_Wifi_BLE_SDK/GD32VW55x_RELEASE_V1.0.2/MSDK/ble/app\app_adv_mgr.c ****         };
 265              		.loc 1 375 34 is_stmt 0 discriminator 3
 266 0102 97000000 		call	rand
 266      E7800000 
 267              	.LVL32:
 374:C:/Users/stapi/OneDrive/Desktop/GD32VW553/V1_MQTT_OK/GD32VW55X_Wifi_BLE_SDK/GD32VW55x_RELEASE_V1.0.2/MSDK/ble/app\app_adv_mgr.c ****             *p_buf++ = (uint8_t)(rand() & 0xFF);
 268              		.loc 1 374 42 discriminator 3
 269 010a 8509     		addi	s3,s3,1
 270              	.LVL33:
 375:C:/Users/stapi/OneDrive/Desktop/GD32VW553/V1_MQTT_OK/GD32VW55X_Wifi_BLE_SDK/GD32VW55x_RELEASE_V1.0.2/MSDK/ble/app\app_adv_mgr.c ****         };
 271              		.loc 1 375 19 discriminator 3
 272 010c 8504     		addi	s1,s1,1
 273              	.LVL34:
 374:C:/Users/stapi/OneDrive/Desktop/GD32VW553/V1_MQTT_OK/GD32VW55X_Wifi_BLE_SDK/GD32VW55x_RELEASE_V1.0.2/MSDK/ble/app\app_adv_mgr.c ****             *p_buf++ = (uint8_t)(rand() & 0xFF);
 274              		.loc 1 374 42 discriminator 3
 275 010e 93F9F90F 		andi	s3,s3,0xff
 375:C:/Users/stapi/OneDrive/Desktop/GD32VW553/V1_MQTT_OK/GD32VW55X_Wifi_BLE_SDK/GD32VW55x_RELEASE_V1.0.2/MSDK/ble/app\app_adv_mgr.c ****         };
 276              		.loc 1 375 24 discriminator 3
 277 0112 A38FA4FE 		sb	a0,-1(s1)
 374:C:/Users/stapi/OneDrive/Desktop/GD32VW553/V1_MQTT_OK/GD32VW55X_Wifi_BLE_SDK/GD32VW55x_RELEASE_V1.0.2/MSDK/ble/app\app_adv_mgr.c ****             *p_buf++ = (uint8_t)(rand() & 0xFF);
 278              		.loc 1 374 41 is_stmt 1 discriminator 3
 279              	.LVL35:
 280 0116 F9BF     		j	.L11
 281              		.cfi_endproc
 282              	.LFE4:
 284              		.section	.text.app_adv_start,"ax",@progbits
 285              		.align	1
 287              	app_adv_start:
 288              	.LFB5:
 383:C:/Users/stapi/OneDrive/Desktop/GD32VW553/V1_MQTT_OK/GD32VW55X_Wifi_BLE_SDK/GD32VW55x_RELEASE_V1.0.2/MSDK/ble/app\app_adv_mgr.c **** 
 384:C:/Users/stapi/OneDrive/Desktop/GD32VW553/V1_MQTT_OK/GD32VW55X_Wifi_BLE_SDK/GD32VW55x_RELEASE_V1.0.2/MSDK/ble/app\app_adv_mgr.c **** /*!
 385:C:/Users/stapi/OneDrive/Desktop/GD32VW553/V1_MQTT_OK/GD32VW55X_Wifi_BLE_SDK/GD32VW55x_RELEASE_V1.0.2/MSDK/ble/app\app_adv_mgr.c ****     \brief      Start advertising
 386:C:/Users/stapi/OneDrive/Desktop/GD32VW553/V1_MQTT_OK/GD32VW55X_Wifi_BLE_SDK/GD32VW55x_RELEASE_V1.0.2/MSDK/ble/app\app_adv_mgr.c ****     \param[in]  p_adv: pointer to BLE advertising set
 387:C:/Users/stapi/OneDrive/Desktop/GD32VW553/V1_MQTT_OK/GD32VW55X_Wifi_BLE_SDK/GD32VW55x_RELEASE_V1.0.2/MSDK/ble/app\app_adv_mgr.c ****     \param[out] none
 388:C:/Users/stapi/OneDrive/Desktop/GD32VW553/V1_MQTT_OK/GD32VW55X_Wifi_BLE_SDK/GD32VW55x_RELEASE_V1.0.2/MSDK/ble/app\app_adv_mgr.c ****     \retval     none
 389:C:/Users/stapi/OneDrive/Desktop/GD32VW553/V1_MQTT_OK/GD32VW55X_Wifi_BLE_SDK/GD32VW55x_RELEASE_V1.0.2/MSDK/ble/app\app_adv_mgr.c **** */
 390:C:/Users/stapi/OneDrive/Desktop/GD32VW553/V1_MQTT_OK/GD32VW55X_Wifi_BLE_SDK/GD32VW55x_RELEASE_V1.0.2/MSDK/ble/app\app_adv_mgr.c **** static void app_adv_start(app_adv_set_t *p_adv)
 391:C:/Users/stapi/OneDrive/Desktop/GD32VW553/V1_MQTT_OK/GD32VW55X_Wifi_BLE_SDK/GD32VW55x_RELEASE_V1.0.2/MSDK/ble/app\app_adv_mgr.c **** {
 289              		.loc 1 391 1
 290              		.cfi_startproc
 291              	.LVL36:
 292 0000 17030000 		call	t0,__riscv_save_2
 292      E7020300 
 293              		.cfi_offset 9, -12
 294              		.cfi_offset 8, -8
 295              		.cfi_offset 1, -4
 296              		.cfi_def_cfa_offset 16
 392:C:/Users/stapi/OneDrive/Desktop/GD32VW553/V1_MQTT_OK/GD32VW55X_Wifi_BLE_SDK/GD32VW55x_RELEASE_V1.0.2/MSDK/ble/app\app_adv_mgr.c ****     ble_adv_data_set_t adv;
 297              		.loc 1 392 5
 393:C:/Users/stapi/OneDrive/Desktop/GD32VW553/V1_MQTT_OK/GD32VW55X_Wifi_BLE_SDK/GD32VW55x_RELEASE_V1.0.2/MSDK/ble/app\app_adv_mgr.c ****     ble_adv_data_set_t scan_rsp;
 298              		.loc 1 393 5
 394:C:/Users/stapi/OneDrive/Desktop/GD32VW553/V1_MQTT_OK/GD32VW55X_Wifi_BLE_SDK/GD32VW55x_RELEASE_V1.0.2/MSDK/ble/app\app_adv_mgr.c ****     ble_adv_data_set_t per_adv;
 299              		.loc 1 394 5
 395:C:/Users/stapi/OneDrive/Desktop/GD32VW553/V1_MQTT_OK/GD32VW55X_Wifi_BLE_SDK/GD32VW55x_RELEASE_V1.0.2/MSDK/ble/app\app_adv_mgr.c ****     uint8_t *p_adp_name = NULL;
 300              		.loc 1 395 5
 391:C:/Users/stapi/OneDrive/Desktop/GD32VW553/V1_MQTT_OK/GD32VW55X_Wifi_BLE_SDK/GD32VW55x_RELEASE_V1.0.2/MSDK/ble/app\app_adv_mgr.c ****     ble_adv_data_set_t adv;
 301              		.loc 1 391 1 is_stmt 0
 302 0008 2571     		addi	sp,sp,-416
 303              		.cfi_def_cfa_offset 432
 396:C:/Users/stapi/OneDrive/Desktop/GD32VW553/V1_MQTT_OK/GD32VW55X_Wifi_BLE_SDK/GD32VW55x_RELEASE_V1.0.2/MSDK/ble/app\app_adv_mgr.c ****     uint8_t adp_name_length;
 397:C:/Users/stapi/OneDrive/Desktop/GD32VW553/V1_MQTT_OK/GD32VW55X_Wifi_BLE_SDK/GD32VW55x_RELEASE_V1.0.2/MSDK/ble/app\app_adv_mgr.c **** 
 398:C:/Users/stapi/OneDrive/Desktop/GD32VW553/V1_MQTT_OK/GD32VW55X_Wifi_BLE_SDK/GD32VW55x_RELEASE_V1.0.2/MSDK/ble/app\app_adv_mgr.c ****     adv.data_force = true;
 304              		.loc 1 398 20
 305 000a 8547     		li	a5,1
 391:C:/Users/stapi/OneDrive/Desktop/GD32VW553/V1_MQTT_OK/GD32VW55X_Wifi_BLE_SDK/GD32VW55x_RELEASE_V1.0.2/MSDK/ble/app\app_adv_mgr.c ****     ble_adv_data_set_t adv;
 306              		.loc 1 391 1
 307 000c 2A84     		mv	s0,a0
 399:C:/Users/stapi/OneDrive/Desktop/GD32VW553/V1_MQTT_OK/GD32VW55X_Wifi_BLE_SDK/GD32VW55x_RELEASE_V1.0.2/MSDK/ble/app\app_adv_mgr.c ****     scan_rsp.data_force = true;
 400:C:/Users/stapi/OneDrive/Desktop/GD32VW553/V1_MQTT_OK/GD32VW55X_Wifi_BLE_SDK/GD32VW55x_RELEASE_V1.0.2/MSDK/ble/app\app_adv_mgr.c ****     per_adv.data_force = true;
 401:C:/Users/stapi/OneDrive/Desktop/GD32VW553/V1_MQTT_OK/GD32VW55X_Wifi_BLE_SDK/GD32VW55x_RELEASE_V1.0.2/MSDK/ble/app\app_adv_mgr.c ****     adp_name_length = app_adp_get_name(&p_adp_name);
 308              		.loc 1 401 23
 309 000e 4808     		addi	a0,sp,20
 310              	.LVL37:
 398:C:/Users/stapi/OneDrive/Desktop/GD32VW553/V1_MQTT_OK/GD32VW55X_Wifi_BLE_SDK/GD32VW55x_RELEASE_V1.0.2/MSDK/ble/app\app_adv_mgr.c ****     scan_rsp.data_force = true;
 311              		.loc 1 398 20
 312 0010 230EF100 		sb	a5,28(sp)
 399:C:/Users/stapi/OneDrive/Desktop/GD32VW553/V1_MQTT_OK/GD32VW55X_Wifi_BLE_SDK/GD32VW55x_RELEASE_V1.0.2/MSDK/ble/app\app_adv_mgr.c ****     scan_rsp.data_force = true;
 313              		.loc 1 399 25
 314 0014 2302F102 		sb	a5,36(sp)
 400:C:/Users/stapi/OneDrive/Desktop/GD32VW553/V1_MQTT_OK/GD32VW55X_Wifi_BLE_SDK/GD32VW55x_RELEASE_V1.0.2/MSDK/ble/app\app_adv_mgr.c ****     adp_name_length = app_adp_get_name(&p_adp_name);
 315              		.loc 1 400 24
 316 0018 2306F102 		sb	a5,44(sp)
 395:C:/Users/stapi/OneDrive/Desktop/GD32VW553/V1_MQTT_OK/GD32VW55X_Wifi_BLE_SDK/GD32VW55x_RELEASE_V1.0.2/MSDK/ble/app\app_adv_mgr.c ****     uint8_t adp_name_length;
 317              		.loc 1 395 14
 318 001c 02CA     		sw	zero,20(sp)
 396:C:/Users/stapi/OneDrive/Desktop/GD32VW553/V1_MQTT_OK/GD32VW55X_Wifi_BLE_SDK/GD32VW55x_RELEASE_V1.0.2/MSDK/ble/app\app_adv_mgr.c **** 
 319              		.loc 1 396 5 is_stmt 1
 398:C:/Users/stapi/OneDrive/Desktop/GD32VW553/V1_MQTT_OK/GD32VW55X_Wifi_BLE_SDK/GD32VW55x_RELEASE_V1.0.2/MSDK/ble/app\app_adv_mgr.c ****     scan_rsp.data_force = true;
 320              		.loc 1 398 5
 399:C:/Users/stapi/OneDrive/Desktop/GD32VW553/V1_MQTT_OK/GD32VW55X_Wifi_BLE_SDK/GD32VW55x_RELEASE_V1.0.2/MSDK/ble/app\app_adv_mgr.c ****     per_adv.data_force = true;
 321              		.loc 1 399 5
 400:C:/Users/stapi/OneDrive/Desktop/GD32VW553/V1_MQTT_OK/GD32VW55X_Wifi_BLE_SDK/GD32VW55x_RELEASE_V1.0.2/MSDK/ble/app\app_adv_mgr.c ****     adp_name_length = app_adp_get_name(&p_adp_name);
 322              		.loc 1 400 5
 323              		.loc 1 401 5
 324              		.loc 1 401 23 is_stmt 0
 325 001e 97000000 		call	app_adp_get_name
 325      E7800000 
 326              	.LVL38:
 402:C:/Users/stapi/OneDrive/Desktop/GD32VW553/V1_MQTT_OK/GD32VW55X_Wifi_BLE_SDK/GD32VW55x_RELEASE_V1.0.2/MSDK/ble/app\app_adv_mgr.c **** 
 403:C:/Users/stapi/OneDrive/Desktop/GD32VW553/V1_MQTT_OK/GD32VW55X_Wifi_BLE_SDK/GD32VW55x_RELEASE_V1.0.2/MSDK/ble/app\app_adv_mgr.c **** 
 404:C:/Users/stapi/OneDrive/Desktop/GD32VW553/V1_MQTT_OK/GD32VW55X_Wifi_BLE_SDK/GD32VW55x_RELEASE_V1.0.2/MSDK/ble/app\app_adv_mgr.c ****     switch (app_adv_env.adv_data_type) {
 327              		.loc 1 404 5 is_stmt 1
 328              		.loc 1 404 24 is_stmt 0
 329 0026 B7070000 		lui	a5,%hi(.LANCHOR0+1)
 330 002a 83C71700 		lbu	a5,%lo(.LANCHOR0+1)(a5)
 331 002e 1D47     		li	a4,7
 332 0030 FD17     		addi	a5,a5,-1
 333 0032 93F7F70F 		andi	a5,a5,0xff
 334 0036 6361F72E 		bgtu	a5,a4,.L24
 335 003a 37070000 		lui	a4,%hi(.L26)
 336 003e 13070700 		addi	a4,a4,%lo(.L26)
 337 0042 B3C7E720 		sh2add	a5,a5,a4
 338 0046 9C43     		lw	a5,0(a5)
 339 0048 8287     		jr	a5
 340              		.section	.rodata.app_adv_start,"a",@progbits
 341              		.align	2
 342              		.align	2
 343              	.L26:
 344 0000 00000000 		.word	.L33
 345 0004 00000000 		.word	.L32
 346 0008 00000000 		.word	.L31
 347 000c 00000000 		.word	.L30
 348 0010 00000000 		.word	.L29
 349 0014 00000000 		.word	.L28
 350 0018 00000000 		.word	.L27
 351 001c 00000000 		.word	.L25
 352              		.section	.text.app_adv_start
 353              	.L33:
 354              	.LBB7:
 405:C:/Users/stapi/OneDrive/Desktop/GD32VW553/V1_MQTT_OK/GD32VW55X_Wifi_BLE_SDK/GD32VW55x_RELEASE_V1.0.2/MSDK/ble/app\app_adv_mgr.c ****     case 1: {
 406:C:/Users/stapi/OneDrive/Desktop/GD32VW553/V1_MQTT_OK/GD32VW55X_Wifi_BLE_SDK/GD32VW55x_RELEASE_V1.0.2/MSDK/ble/app\app_adv_mgr.c ****         ble_data_t adv_data;
 355              		.loc 1 406 9 is_stmt 1
 407:C:/Users/stapi/OneDrive/Desktop/GD32VW553/V1_MQTT_OK/GD32VW55X_Wifi_BLE_SDK/GD32VW55x_RELEASE_V1.0.2/MSDK/ble/app\app_adv_mgr.c ****         ble_data_t per_adv_data;
 356              		.loc 1 407 9
 408:C:/Users/stapi/OneDrive/Desktop/GD32VW553/V1_MQTT_OK/GD32VW55X_Wifi_BLE_SDK/GD32VW55x_RELEASE_V1.0.2/MSDK/ble/app\app_adv_mgr.c **** 
 409:C:/Users/stapi/OneDrive/Desktop/GD32VW553/V1_MQTT_OK/GD32VW55X_Wifi_BLE_SDK/GD32VW55x_RELEASE_V1.0.2/MSDK/ble/app\app_adv_mgr.c ****         adv_data.len = 7;
 357              		.loc 1 409 9
 358              		.loc 1 409 22 is_stmt 0
 359 004a 9D47     		li	a5,7
 360 004c 231EF10C 		sh	a5,220(sp)
 410:C:/Users/stapi/OneDrive/Desktop/GD32VW553/V1_MQTT_OK/GD32VW55X_Wifi_BLE_SDK/GD32VW55x_RELEASE_V1.0.2/MSDK/ble/app\app_adv_mgr.c ****         adv_data.p_data = adv_data_1;
 361              		.loc 1 410 9 is_stmt 1
 362              		.loc 1 410 25 is_stmt 0
 363 0050 B7070000 		lui	a5,%hi(.LANCHOR1)
 364 0054 93870700 		addi	a5,a5,%lo(.LANCHOR1)
 365 0058 BECD     		sw	a5,216(sp)
 411:C:/Users/stapi/OneDrive/Desktop/GD32VW553/V1_MQTT_OK/GD32VW55X_Wifi_BLE_SDK/GD32VW55x_RELEASE_V1.0.2/MSDK/ble/app\app_adv_mgr.c **** 
 412:C:/Users/stapi/OneDrive/Desktop/GD32VW553/V1_MQTT_OK/GD32VW55X_Wifi_BLE_SDK/GD32VW55x_RELEASE_V1.0.2/MSDK/ble/app\app_adv_mgr.c ****         per_adv_data.len = 52;
 366              		.loc 1 412 9 is_stmt 1
 367              		.loc 1 412 26 is_stmt 0
 368 005a 93074003 		li	a5,52
 369 005e 2316F112 		sh	a5,300(sp)
 413:C:/Users/stapi/OneDrive/Desktop/GD32VW553/V1_MQTT_OK/GD32VW55X_Wifi_BLE_SDK/GD32VW55x_RELEASE_V1.0.2/MSDK/ble/app\app_adv_mgr.c ****         per_adv_data.p_data = per_data_1;
 370              		.loc 1 413 9 is_stmt 1
 371              		.loc 1 413 29 is_stmt 0
 372 0062 B7070000 		lui	a5,%hi(.LANCHOR2)
 373 0066 93870700 		addi	a5,a5,%lo(.LANCHOR2)
 374 006a 2324F112 		sw	a5,296(sp)
 414:C:/Users/stapi/OneDrive/Desktop/GD32VW553/V1_MQTT_OK/GD32VW55X_Wifi_BLE_SDK/GD32VW55x_RELEASE_V1.0.2/MSDK/ble/app\app_adv_mgr.c **** 
 415:C:/Users/stapi/OneDrive/Desktop/GD32VW553/V1_MQTT_OK/GD32VW55X_Wifi_BLE_SDK/GD32VW55x_RELEASE_V1.0.2/MSDK/ble/app\app_adv_mgr.c ****         adv.data.p_data_force = &adv_data;
 375              		.loc 1 415 9 is_stmt 1
 376              		.loc 1 415 31 is_stmt 0
 377 006e BC09     		addi	a5,sp,216
 378 0070 3ED0     		sw	a5,32(sp)
 416:C:/Users/stapi/OneDrive/Desktop/GD32VW553/V1_MQTT_OK/GD32VW55X_Wifi_BLE_SDK/GD32VW55x_RELEASE_V1.0.2/MSDK/ble/app\app_adv_mgr.c ****         scan_rsp.data.p_data_force = &adv_data;
 379              		.loc 1 416 9 is_stmt 1
 380              	.L54:
 381              	.LBE7:
 382              	.LBB8:
 417:C:/Users/stapi/OneDrive/Desktop/GD32VW553/V1_MQTT_OK/GD32VW55X_Wifi_BLE_SDK/GD32VW55x_RELEASE_V1.0.2/MSDK/ble/app\app_adv_mgr.c ****         per_adv.data.p_data_force = &per_adv_data;
 418:C:/Users/stapi/OneDrive/Desktop/GD32VW553/V1_MQTT_OK/GD32VW55X_Wifi_BLE_SDK/GD32VW55x_RELEASE_V1.0.2/MSDK/ble/app\app_adv_mgr.c **** 
 419:C:/Users/stapi/OneDrive/Desktop/GD32VW553/V1_MQTT_OK/GD32VW55X_Wifi_BLE_SDK/GD32VW55x_RELEASE_V1.0.2/MSDK/ble/app\app_adv_mgr.c ****         ble_adv_start(p_adv->idx, &adv, &scan_rsp, &per_adv);
 420:C:/Users/stapi/OneDrive/Desktop/GD32VW553/V1_MQTT_OK/GD32VW55X_Wifi_BLE_SDK/GD32VW55x_RELEASE_V1.0.2/MSDK/ble/app\app_adv_mgr.c ****     }
 421:C:/Users/stapi/OneDrive/Desktop/GD32VW553/V1_MQTT_OK/GD32VW55X_Wifi_BLE_SDK/GD32VW55x_RELEASE_V1.0.2/MSDK/ble/app\app_adv_mgr.c ****     break;
 422:C:/Users/stapi/OneDrive/Desktop/GD32VW553/V1_MQTT_OK/GD32VW55X_Wifi_BLE_SDK/GD32VW55x_RELEASE_V1.0.2/MSDK/ble/app\app_adv_mgr.c **** 
 423:C:/Users/stapi/OneDrive/Desktop/GD32VW553/V1_MQTT_OK/GD32VW55X_Wifi_BLE_SDK/GD32VW55x_RELEASE_V1.0.2/MSDK/ble/app\app_adv_mgr.c ****     case 2: {
 424:C:/Users/stapi/OneDrive/Desktop/GD32VW553/V1_MQTT_OK/GD32VW55X_Wifi_BLE_SDK/GD32VW55x_RELEASE_V1.0.2/MSDK/ble/app\app_adv_mgr.c ****         ble_data_t adv_data;
 425:C:/Users/stapi/OneDrive/Desktop/GD32VW553/V1_MQTT_OK/GD32VW55X_Wifi_BLE_SDK/GD32VW55x_RELEASE_V1.0.2/MSDK/ble/app\app_adv_mgr.c ****         ble_data_t sr_data;
 426:C:/Users/stapi/OneDrive/Desktop/GD32VW553/V1_MQTT_OK/GD32VW55X_Wifi_BLE_SDK/GD32VW55x_RELEASE_V1.0.2/MSDK/ble/app\app_adv_mgr.c ****         uint8_t *p_buf;
 427:C:/Users/stapi/OneDrive/Desktop/GD32VW553/V1_MQTT_OK/GD32VW55X_Wifi_BLE_SDK/GD32VW55x_RELEASE_V1.0.2/MSDK/ble/app\app_adv_mgr.c ****         uint16_t len;
 428:C:/Users/stapi/OneDrive/Desktop/GD32VW553/V1_MQTT_OK/GD32VW55X_Wifi_BLE_SDK/GD32VW55x_RELEASE_V1.0.2/MSDK/ble/app\app_adv_mgr.c **** 
 429:C:/Users/stapi/OneDrive/Desktop/GD32VW553/V1_MQTT_OK/GD32VW55X_Wifi_BLE_SDK/GD32VW55x_RELEASE_V1.0.2/MSDK/ble/app\app_adv_mgr.c ****         adv_data.len = 7;
 430:C:/Users/stapi/OneDrive/Desktop/GD32VW553/V1_MQTT_OK/GD32VW55X_Wifi_BLE_SDK/GD32VW55x_RELEASE_V1.0.2/MSDK/ble/app\app_adv_mgr.c ****         adv_data.p_data = adv_data_1;
 431:C:/Users/stapi/OneDrive/Desktop/GD32VW553/V1_MQTT_OK/GD32VW55X_Wifi_BLE_SDK/GD32VW55x_RELEASE_V1.0.2/MSDK/ble/app\app_adv_mgr.c ****         adv.data.p_data_force = &adv_data;
 432:C:/Users/stapi/OneDrive/Desktop/GD32VW553/V1_MQTT_OK/GD32VW55X_Wifi_BLE_SDK/GD32VW55x_RELEASE_V1.0.2/MSDK/ble/app\app_adv_mgr.c **** 
 433:C:/Users/stapi/OneDrive/Desktop/GD32VW553/V1_MQTT_OK/GD32VW55X_Wifi_BLE_SDK/GD32VW55x_RELEASE_V1.0.2/MSDK/ble/app\app_adv_mgr.c ****         p_buf = sys_malloc(p_adv->max_data_len);
 434:C:/Users/stapi/OneDrive/Desktop/GD32VW553/V1_MQTT_OK/GD32VW55X_Wifi_BLE_SDK/GD32VW55x_RELEASE_V1.0.2/MSDK/ble/app\app_adv_mgr.c ****         if (p_buf) {
 435:C:/Users/stapi/OneDrive/Desktop/GD32VW553/V1_MQTT_OK/GD32VW55X_Wifi_BLE_SDK/GD32VW55x_RELEASE_V1.0.2/MSDK/ble/app\app_adv_mgr.c ****             len = app_build_adv_data(p_adv, p_buf, p_adv->max_data_len, false);
 436:C:/Users/stapi/OneDrive/Desktop/GD32VW553/V1_MQTT_OK/GD32VW55X_Wifi_BLE_SDK/GD32VW55x_RELEASE_V1.0.2/MSDK/ble/app\app_adv_mgr.c **** 
 437:C:/Users/stapi/OneDrive/Desktop/GD32VW553/V1_MQTT_OK/GD32VW55X_Wifi_BLE_SDK/GD32VW55x_RELEASE_V1.0.2/MSDK/ble/app\app_adv_mgr.c ****             sr_data.p_data = p_buf;
 438:C:/Users/stapi/OneDrive/Desktop/GD32VW553/V1_MQTT_OK/GD32VW55X_Wifi_BLE_SDK/GD32VW55x_RELEASE_V1.0.2/MSDK/ble/app\app_adv_mgr.c ****             sr_data.len = len;
 439:C:/Users/stapi/OneDrive/Desktop/GD32VW553/V1_MQTT_OK/GD32VW55X_Wifi_BLE_SDK/GD32VW55x_RELEASE_V1.0.2/MSDK/ble/app\app_adv_mgr.c **** 
 440:C:/Users/stapi/OneDrive/Desktop/GD32VW553/V1_MQTT_OK/GD32VW55X_Wifi_BLE_SDK/GD32VW55x_RELEASE_V1.0.2/MSDK/ble/app\app_adv_mgr.c ****             scan_rsp.data.p_data_force = &sr_data;
 441:C:/Users/stapi/OneDrive/Desktop/GD32VW553/V1_MQTT_OK/GD32VW55X_Wifi_BLE_SDK/GD32VW55x_RELEASE_V1.0.2/MSDK/ble/app\app_adv_mgr.c ****             per_adv.data.p_data_force = &sr_data;
 442:C:/Users/stapi/OneDrive/Desktop/GD32VW553/V1_MQTT_OK/GD32VW55X_Wifi_BLE_SDK/GD32VW55x_RELEASE_V1.0.2/MSDK/ble/app\app_adv_mgr.c **** 
 443:C:/Users/stapi/OneDrive/Desktop/GD32VW553/V1_MQTT_OK/GD32VW55X_Wifi_BLE_SDK/GD32VW55x_RELEASE_V1.0.2/MSDK/ble/app\app_adv_mgr.c ****             ble_adv_start(p_adv->idx, &adv, &scan_rsp, &per_adv);
 444:C:/Users/stapi/OneDrive/Desktop/GD32VW553/V1_MQTT_OK/GD32VW55X_Wifi_BLE_SDK/GD32VW55x_RELEASE_V1.0.2/MSDK/ble/app\app_adv_mgr.c **** 
 445:C:/Users/stapi/OneDrive/Desktop/GD32VW553/V1_MQTT_OK/GD32VW55X_Wifi_BLE_SDK/GD32VW55x_RELEASE_V1.0.2/MSDK/ble/app\app_adv_mgr.c ****             sys_mfree(p_buf);
 446:C:/Users/stapi/OneDrive/Desktop/GD32VW553/V1_MQTT_OK/GD32VW55X_Wifi_BLE_SDK/GD32VW55x_RELEASE_V1.0.2/MSDK/ble/app\app_adv_mgr.c ****         }
 447:C:/Users/stapi/OneDrive/Desktop/GD32VW553/V1_MQTT_OK/GD32VW55X_Wifi_BLE_SDK/GD32VW55x_RELEASE_V1.0.2/MSDK/ble/app\app_adv_mgr.c ****     }
 448:C:/Users/stapi/OneDrive/Desktop/GD32VW553/V1_MQTT_OK/GD32VW55X_Wifi_BLE_SDK/GD32VW55x_RELEASE_V1.0.2/MSDK/ble/app\app_adv_mgr.c ****     break;
 449:C:/Users/stapi/OneDrive/Desktop/GD32VW553/V1_MQTT_OK/GD32VW55X_Wifi_BLE_SDK/GD32VW55x_RELEASE_V1.0.2/MSDK/ble/app\app_adv_mgr.c **** 
 450:C:/Users/stapi/OneDrive/Desktop/GD32VW553/V1_MQTT_OK/GD32VW55X_Wifi_BLE_SDK/GD32VW55x_RELEASE_V1.0.2/MSDK/ble/app\app_adv_mgr.c ****     case 3: {
 451:C:/Users/stapi/OneDrive/Desktop/GD32VW553/V1_MQTT_OK/GD32VW55X_Wifi_BLE_SDK/GD32VW55x_RELEASE_V1.0.2/MSDK/ble/app\app_adv_mgr.c ****         ble_data_t adv_data;
 452:C:/Users/stapi/OneDrive/Desktop/GD32VW553/V1_MQTT_OK/GD32VW55X_Wifi_BLE_SDK/GD32VW55x_RELEASE_V1.0.2/MSDK/ble/app\app_adv_mgr.c **** 
 453:C:/Users/stapi/OneDrive/Desktop/GD32VW553/V1_MQTT_OK/GD32VW55X_Wifi_BLE_SDK/GD32VW55x_RELEASE_V1.0.2/MSDK/ble/app\app_adv_mgr.c ****         adv_data.len = 25;
 454:C:/Users/stapi/OneDrive/Desktop/GD32VW553/V1_MQTT_OK/GD32VW55X_Wifi_BLE_SDK/GD32VW55x_RELEASE_V1.0.2/MSDK/ble/app\app_adv_mgr.c ****         adv_data.p_data = bqb_adv_data_1;
 455:C:/Users/stapi/OneDrive/Desktop/GD32VW553/V1_MQTT_OK/GD32VW55X_Wifi_BLE_SDK/GD32VW55x_RELEASE_V1.0.2/MSDK/ble/app\app_adv_mgr.c **** 
 456:C:/Users/stapi/OneDrive/Desktop/GD32VW553/V1_MQTT_OK/GD32VW55X_Wifi_BLE_SDK/GD32VW55x_RELEASE_V1.0.2/MSDK/ble/app\app_adv_mgr.c ****         adv.data.p_data_force = &adv_data;
 457:C:/Users/stapi/OneDrive/Desktop/GD32VW553/V1_MQTT_OK/GD32VW55X_Wifi_BLE_SDK/GD32VW55x_RELEASE_V1.0.2/MSDK/ble/app\app_adv_mgr.c **** 
 458:C:/Users/stapi/OneDrive/Desktop/GD32VW553/V1_MQTT_OK/GD32VW55X_Wifi_BLE_SDK/GD32VW55x_RELEASE_V1.0.2/MSDK/ble/app\app_adv_mgr.c ****         ble_adv_start(p_adv->idx, &adv, NULL, NULL);
 459:C:/Users/stapi/OneDrive/Desktop/GD32VW553/V1_MQTT_OK/GD32VW55X_Wifi_BLE_SDK/GD32VW55x_RELEASE_V1.0.2/MSDK/ble/app\app_adv_mgr.c ****     }
 460:C:/Users/stapi/OneDrive/Desktop/GD32VW553/V1_MQTT_OK/GD32VW55X_Wifi_BLE_SDK/GD32VW55x_RELEASE_V1.0.2/MSDK/ble/app\app_adv_mgr.c ****     break;
 461:C:/Users/stapi/OneDrive/Desktop/GD32VW553/V1_MQTT_OK/GD32VW55X_Wifi_BLE_SDK/GD32VW55x_RELEASE_V1.0.2/MSDK/ble/app\app_adv_mgr.c **** 
 462:C:/Users/stapi/OneDrive/Desktop/GD32VW553/V1_MQTT_OK/GD32VW55X_Wifi_BLE_SDK/GD32VW55x_RELEASE_V1.0.2/MSDK/ble/app\app_adv_mgr.c ****     case 4: {
 463:C:/Users/stapi/OneDrive/Desktop/GD32VW553/V1_MQTT_OK/GD32VW55X_Wifi_BLE_SDK/GD32VW55x_RELEASE_V1.0.2/MSDK/ble/app\app_adv_mgr.c ****         ble_data_t adv_data;
 464:C:/Users/stapi/OneDrive/Desktop/GD32VW553/V1_MQTT_OK/GD32VW55X_Wifi_BLE_SDK/GD32VW55x_RELEASE_V1.0.2/MSDK/ble/app\app_adv_mgr.c ****         ble_data_t scan_rsp_data;
 465:C:/Users/stapi/OneDrive/Desktop/GD32VW553/V1_MQTT_OK/GD32VW55X_Wifi_BLE_SDK/GD32VW55x_RELEASE_V1.0.2/MSDK/ble/app\app_adv_mgr.c ****         ble_data_t per_adv_data;
 466:C:/Users/stapi/OneDrive/Desktop/GD32VW553/V1_MQTT_OK/GD32VW55X_Wifi_BLE_SDK/GD32VW55x_RELEASE_V1.0.2/MSDK/ble/app\app_adv_mgr.c **** 
 467:C:/Users/stapi/OneDrive/Desktop/GD32VW553/V1_MQTT_OK/GD32VW55X_Wifi_BLE_SDK/GD32VW55x_RELEASE_V1.0.2/MSDK/ble/app\app_adv_mgr.c ****         adv_data.len = 24;
 468:C:/Users/stapi/OneDrive/Desktop/GD32VW553/V1_MQTT_OK/GD32VW55X_Wifi_BLE_SDK/GD32VW55x_RELEASE_V1.0.2/MSDK/ble/app\app_adv_mgr.c ****         adv_data.p_data = bqb_adv_data_2;
 469:C:/Users/stapi/OneDrive/Desktop/GD32VW553/V1_MQTT_OK/GD32VW55X_Wifi_BLE_SDK/GD32VW55x_RELEASE_V1.0.2/MSDK/ble/app\app_adv_mgr.c **** 
 470:C:/Users/stapi/OneDrive/Desktop/GD32VW553/V1_MQTT_OK/GD32VW55X_Wifi_BLE_SDK/GD32VW55x_RELEASE_V1.0.2/MSDK/ble/app\app_adv_mgr.c ****         scan_rsp_data.len = 27;
 471:C:/Users/stapi/OneDrive/Desktop/GD32VW553/V1_MQTT_OK/GD32VW55X_Wifi_BLE_SDK/GD32VW55x_RELEASE_V1.0.2/MSDK/ble/app\app_adv_mgr.c ****         scan_rsp_data.p_data = bqb_scan_rsp_data_2;
 472:C:/Users/stapi/OneDrive/Desktop/GD32VW553/V1_MQTT_OK/GD32VW55X_Wifi_BLE_SDK/GD32VW55x_RELEASE_V1.0.2/MSDK/ble/app\app_adv_mgr.c **** 
 473:C:/Users/stapi/OneDrive/Desktop/GD32VW553/V1_MQTT_OK/GD32VW55X_Wifi_BLE_SDK/GD32VW55x_RELEASE_V1.0.2/MSDK/ble/app\app_adv_mgr.c ****         per_adv_data.len = 27;
 474:C:/Users/stapi/OneDrive/Desktop/GD32VW553/V1_MQTT_OK/GD32VW55X_Wifi_BLE_SDK/GD32VW55x_RELEASE_V1.0.2/MSDK/ble/app\app_adv_mgr.c ****         per_adv_data.p_data = bqb_per_adv_data_2;
 475:C:/Users/stapi/OneDrive/Desktop/GD32VW553/V1_MQTT_OK/GD32VW55X_Wifi_BLE_SDK/GD32VW55x_RELEASE_V1.0.2/MSDK/ble/app\app_adv_mgr.c **** 
 476:C:/Users/stapi/OneDrive/Desktop/GD32VW553/V1_MQTT_OK/GD32VW55X_Wifi_BLE_SDK/GD32VW55x_RELEASE_V1.0.2/MSDK/ble/app\app_adv_mgr.c ****         adv.data.p_data_force = &adv_data;
 477:C:/Users/stapi/OneDrive/Desktop/GD32VW553/V1_MQTT_OK/GD32VW55X_Wifi_BLE_SDK/GD32VW55x_RELEASE_V1.0.2/MSDK/ble/app\app_adv_mgr.c ****         scan_rsp.data.p_data_force = &scan_rsp_data;
 383              		.loc 1 477 36 is_stmt 0 discriminator 4
 384 0072 3ED4     		sw	a5,40(sp)
 478:C:/Users/stapi/OneDrive/Desktop/GD32VW553/V1_MQTT_OK/GD32VW55X_Wifi_BLE_SDK/GD32VW55x_RELEASE_V1.0.2/MSDK/ble/app\app_adv_mgr.c ****         per_adv.data.p_data_force = &per_adv_data;
 385              		.loc 1 478 9 is_stmt 1 discriminator 4
 386              		.loc 1 478 35 is_stmt 0 discriminator 4
 387 0074 3C12     		addi	a5,sp,296
 388 0076 3ED8     		sw	a5,48(sp)
 479:C:/Users/stapi/OneDrive/Desktop/GD32VW553/V1_MQTT_OK/GD32VW55X_Wifi_BLE_SDK/GD32VW55x_RELEASE_V1.0.2/MSDK/ble/app\app_adv_mgr.c **** 
 480:C:/Users/stapi/OneDrive/Desktop/GD32VW553/V1_MQTT_OK/GD32VW55X_Wifi_BLE_SDK/GD32VW55x_RELEASE_V1.0.2/MSDK/ble/app\app_adv_mgr.c ****         ble_adv_start(p_adv->idx, &adv, &scan_rsp, &per_adv);
 389              		.loc 1 480 9 is_stmt 1 discriminator 4
 390 0078 7410     		addi	a3,sp,44
 391 007a 5010     		addi	a2,sp,36
 392 007c BDA8     		j	.L50
 393              	.L32:
 394              	.LBE8:
 395              	.LBB9:
 424:C:/Users/stapi/OneDrive/Desktop/GD32VW553/V1_MQTT_OK/GD32VW55X_Wifi_BLE_SDK/GD32VW55x_RELEASE_V1.0.2/MSDK/ble/app\app_adv_mgr.c ****         ble_data_t sr_data;
 396              		.loc 1 424 9
 425:C:/Users/stapi/OneDrive/Desktop/GD32VW553/V1_MQTT_OK/GD32VW55X_Wifi_BLE_SDK/GD32VW55x_RELEASE_V1.0.2/MSDK/ble/app\app_adv_mgr.c ****         uint8_t *p_buf;
 397              		.loc 1 425 9
 426:C:/Users/stapi/OneDrive/Desktop/GD32VW553/V1_MQTT_OK/GD32VW55X_Wifi_BLE_SDK/GD32VW55x_RELEASE_V1.0.2/MSDK/ble/app\app_adv_mgr.c ****         uint16_t len;
 398              		.loc 1 426 9
 427:C:/Users/stapi/OneDrive/Desktop/GD32VW553/V1_MQTT_OK/GD32VW55X_Wifi_BLE_SDK/GD32VW55x_RELEASE_V1.0.2/MSDK/ble/app\app_adv_mgr.c **** 
 399              		.loc 1 427 9
 429:C:/Users/stapi/OneDrive/Desktop/GD32VW553/V1_MQTT_OK/GD32VW55X_Wifi_BLE_SDK/GD32VW55x_RELEASE_V1.0.2/MSDK/ble/app\app_adv_mgr.c ****         adv_data.p_data = adv_data_1;
 400              		.loc 1 429 9
 429:C:/Users/stapi/OneDrive/Desktop/GD32VW553/V1_MQTT_OK/GD32VW55X_Wifi_BLE_SDK/GD32VW55x_RELEASE_V1.0.2/MSDK/ble/app\app_adv_mgr.c ****         adv_data.p_data = adv_data_1;
 401              		.loc 1 429 22 is_stmt 0
 402 007e 9D47     		li	a5,7
 403 0080 231EF10C 		sh	a5,220(sp)
 430:C:/Users/stapi/OneDrive/Desktop/GD32VW553/V1_MQTT_OK/GD32VW55X_Wifi_BLE_SDK/GD32VW55x_RELEASE_V1.0.2/MSDK/ble/app\app_adv_mgr.c ****         adv.data.p_data_force = &adv_data;
 404              		.loc 1 430 9 is_stmt 1
 433:C:/Users/stapi/OneDrive/Desktop/GD32VW553/V1_MQTT_OK/GD32VW55X_Wifi_BLE_SDK/GD32VW55x_RELEASE_V1.0.2/MSDK/ble/app\app_adv_mgr.c ****         if (p_buf) {
 405              		.loc 1 433 17 is_stmt 0
 406 0084 0355A400 		lhu	a0,10(s0)
 407              	.LVL39:
 430:C:/Users/stapi/OneDrive/Desktop/GD32VW553/V1_MQTT_OK/GD32VW55X_Wifi_BLE_SDK/GD32VW55x_RELEASE_V1.0.2/MSDK/ble/app\app_adv_mgr.c ****         adv.data.p_data_force = &adv_data;
 408              		.loc 1 430 25
 409 0088 B7070000 		lui	a5,%hi(.LANCHOR1)
 410 008c 93870700 		addi	a5,a5,%lo(.LANCHOR1)
 411 0090 BECD     		sw	a5,216(sp)
 431:C:/Users/stapi/OneDrive/Desktop/GD32VW553/V1_MQTT_OK/GD32VW55X_Wifi_BLE_SDK/GD32VW55x_RELEASE_V1.0.2/MSDK/ble/app\app_adv_mgr.c **** 
 412              		.loc 1 431 9 is_stmt 1
 431:C:/Users/stapi/OneDrive/Desktop/GD32VW553/V1_MQTT_OK/GD32VW55X_Wifi_BLE_SDK/GD32VW55x_RELEASE_V1.0.2/MSDK/ble/app\app_adv_mgr.c **** 
 413              		.loc 1 431 31 is_stmt 0
 414 0092 BC09     		addi	a5,sp,216
 415 0094 3ED0     		sw	a5,32(sp)
 433:C:/Users/stapi/OneDrive/Desktop/GD32VW553/V1_MQTT_OK/GD32VW55X_Wifi_BLE_SDK/GD32VW55x_RELEASE_V1.0.2/MSDK/ble/app\app_adv_mgr.c ****         if (p_buf) {
 416              		.loc 1 433 9 is_stmt 1
 433:C:/Users/stapi/OneDrive/Desktop/GD32VW553/V1_MQTT_OK/GD32VW55X_Wifi_BLE_SDK/GD32VW55x_RELEASE_V1.0.2/MSDK/ble/app\app_adv_mgr.c ****         if (p_buf) {
 417              		.loc 1 433 17 is_stmt 0
 418 0096 97000000 		call	sys_malloc
 418      E7800000 
 419              	.LVL40:
 420 009e AA84     		mv	s1,a0
 421              	.LVL41:
 434:C:/Users/stapi/OneDrive/Desktop/GD32VW553/V1_MQTT_OK/GD32VW55X_Wifi_BLE_SDK/GD32VW55x_RELEASE_V1.0.2/MSDK/ble/app\app_adv_mgr.c ****             len = app_build_adv_data(p_adv, p_buf, p_adv->max_data_len, false);
 422              		.loc 1 434 9 is_stmt 1
 434:C:/Users/stapi/OneDrive/Desktop/GD32VW553/V1_MQTT_OK/GD32VW55X_Wifi_BLE_SDK/GD32VW55x_RELEASE_V1.0.2/MSDK/ble/app\app_adv_mgr.c ****             len = app_build_adv_data(p_adv, p_buf, p_adv->max_data_len, false);
 423              		.loc 1 434 12 is_stmt 0
 424 00a0 25C5     		beq	a0,zero,.L23
 435:C:/Users/stapi/OneDrive/Desktop/GD32VW553/V1_MQTT_OK/GD32VW55X_Wifi_BLE_SDK/GD32VW55x_RELEASE_V1.0.2/MSDK/ble/app\app_adv_mgr.c **** 
 425              		.loc 1 435 13 is_stmt 1
 435:C:/Users/stapi/OneDrive/Desktop/GD32VW553/V1_MQTT_OK/GD32VW55X_Wifi_BLE_SDK/GD32VW55x_RELEASE_V1.0.2/MSDK/ble/app\app_adv_mgr.c **** 
 426              		.loc 1 435 19 is_stmt 0
 427 00a2 0356A400 		lhu	a2,10(s0)
 428 00a6 AA85     		mv	a1,a0
 429 00a8 8146     		li	a3,0
 430 00aa 2285     		mv	a0,s0
 431 00ac 97000000 		call	app_build_adv_data
 431      E7800000 
 432              	.LVL42:
 437:C:/Users/stapi/OneDrive/Desktop/GD32VW553/V1_MQTT_OK/GD32VW55X_Wifi_BLE_SDK/GD32VW55x_RELEASE_V1.0.2/MSDK/ble/app\app_adv_mgr.c ****             sr_data.len = len;
 433              		.loc 1 437 13 is_stmt 1
 440:C:/Users/stapi/OneDrive/Desktop/GD32VW553/V1_MQTT_OK/GD32VW55X_Wifi_BLE_SDK/GD32VW55x_RELEASE_V1.0.2/MSDK/ble/app\app_adv_mgr.c ****             per_adv.data.p_data_force = &sr_data;
 434              		.loc 1 440 40 is_stmt 0
 435 00b4 3C12     		addi	a5,sp,296
 437:C:/Users/stapi/OneDrive/Desktop/GD32VW553/V1_MQTT_OK/GD32VW55X_Wifi_BLE_SDK/GD32VW55x_RELEASE_V1.0.2/MSDK/ble/app\app_adv_mgr.c ****             sr_data.len = len;
 436              		.loc 1 437 28
 437 00b6 23249112 		sw	s1,296(sp)
 438:C:/Users/stapi/OneDrive/Desktop/GD32VW553/V1_MQTT_OK/GD32VW55X_Wifi_BLE_SDK/GD32VW55x_RELEASE_V1.0.2/MSDK/ble/app\app_adv_mgr.c **** 
 438              		.loc 1 438 13 is_stmt 1
 438:C:/Users/stapi/OneDrive/Desktop/GD32VW553/V1_MQTT_OK/GD32VW55X_Wifi_BLE_SDK/GD32VW55x_RELEASE_V1.0.2/MSDK/ble/app\app_adv_mgr.c **** 
 439              		.loc 1 438 25 is_stmt 0
 440 00ba 2316A112 		sh	a0,300(sp)
 440:C:/Users/stapi/OneDrive/Desktop/GD32VW553/V1_MQTT_OK/GD32VW55X_Wifi_BLE_SDK/GD32VW55x_RELEASE_V1.0.2/MSDK/ble/app\app_adv_mgr.c ****             per_adv.data.p_data_force = &sr_data;
 441              		.loc 1 440 13 is_stmt 1
 440:C:/Users/stapi/OneDrive/Desktop/GD32VW553/V1_MQTT_OK/GD32VW55X_Wifi_BLE_SDK/GD32VW55x_RELEASE_V1.0.2/MSDK/ble/app\app_adv_mgr.c ****             per_adv.data.p_data_force = &sr_data;
 442              		.loc 1 440 40 is_stmt 0
 443 00be 3ED4     		sw	a5,40(sp)
 441:C:/Users/stapi/OneDrive/Desktop/GD32VW553/V1_MQTT_OK/GD32VW55X_Wifi_BLE_SDK/GD32VW55x_RELEASE_V1.0.2/MSDK/ble/app\app_adv_mgr.c **** 
 444              		.loc 1 441 13 is_stmt 1
 441:C:/Users/stapi/OneDrive/Desktop/GD32VW553/V1_MQTT_OK/GD32VW55X_Wifi_BLE_SDK/GD32VW55x_RELEASE_V1.0.2/MSDK/ble/app\app_adv_mgr.c **** 
 445              		.loc 1 441 39 is_stmt 0
 446 00c0 3ED8     		sw	a5,48(sp)
 443:C:/Users/stapi/OneDrive/Desktop/GD32VW553/V1_MQTT_OK/GD32VW55X_Wifi_BLE_SDK/GD32VW55x_RELEASE_V1.0.2/MSDK/ble/app\app_adv_mgr.c **** 
 447              		.loc 1 443 13 is_stmt 1
 448              	.LVL43:
 449              	.L53:
 450              	.LBE9:
 451              	.LBB10:
 481:C:/Users/stapi/OneDrive/Desktop/GD32VW553/V1_MQTT_OK/GD32VW55X_Wifi_BLE_SDK/GD32VW55x_RELEASE_V1.0.2/MSDK/ble/app\app_adv_mgr.c ****     }
 482:C:/Users/stapi/OneDrive/Desktop/GD32VW553/V1_MQTT_OK/GD32VW55X_Wifi_BLE_SDK/GD32VW55x_RELEASE_V1.0.2/MSDK/ble/app\app_adv_mgr.c ****     break;
 483:C:/Users/stapi/OneDrive/Desktop/GD32VW553/V1_MQTT_OK/GD32VW55X_Wifi_BLE_SDK/GD32VW55x_RELEASE_V1.0.2/MSDK/ble/app\app_adv_mgr.c **** 
 484:C:/Users/stapi/OneDrive/Desktop/GD32VW553/V1_MQTT_OK/GD32VW55X_Wifi_BLE_SDK/GD32VW55x_RELEASE_V1.0.2/MSDK/ble/app\app_adv_mgr.c ****     case 5: {
 485:C:/Users/stapi/OneDrive/Desktop/GD32VW553/V1_MQTT_OK/GD32VW55X_Wifi_BLE_SDK/GD32VW55x_RELEASE_V1.0.2/MSDK/ble/app\app_adv_mgr.c ****         ble_data_t adv_data;
 486:C:/Users/stapi/OneDrive/Desktop/GD32VW553/V1_MQTT_OK/GD32VW55X_Wifi_BLE_SDK/GD32VW55x_RELEASE_V1.0.2/MSDK/ble/app\app_adv_mgr.c **** 
 487:C:/Users/stapi/OneDrive/Desktop/GD32VW553/V1_MQTT_OK/GD32VW55X_Wifi_BLE_SDK/GD32VW55x_RELEASE_V1.0.2/MSDK/ble/app\app_adv_mgr.c ****         adv_data.len = 22;
 488:C:/Users/stapi/OneDrive/Desktop/GD32VW553/V1_MQTT_OK/GD32VW55X_Wifi_BLE_SDK/GD32VW55x_RELEASE_V1.0.2/MSDK/ble/app\app_adv_mgr.c ****         adv_data.p_data = bqb_adv_data_3;
 489:C:/Users/stapi/OneDrive/Desktop/GD32VW553/V1_MQTT_OK/GD32VW55X_Wifi_BLE_SDK/GD32VW55x_RELEASE_V1.0.2/MSDK/ble/app\app_adv_mgr.c **** 
 490:C:/Users/stapi/OneDrive/Desktop/GD32VW553/V1_MQTT_OK/GD32VW55X_Wifi_BLE_SDK/GD32VW55x_RELEASE_V1.0.2/MSDK/ble/app\app_adv_mgr.c ****         adv.data.p_data_force = &adv_data;
 491:C:/Users/stapi/OneDrive/Desktop/GD32VW553/V1_MQTT_OK/GD32VW55X_Wifi_BLE_SDK/GD32VW55x_RELEASE_V1.0.2/MSDK/ble/app\app_adv_mgr.c **** 
 492:C:/Users/stapi/OneDrive/Desktop/GD32VW553/V1_MQTT_OK/GD32VW55X_Wifi_BLE_SDK/GD32VW55x_RELEASE_V1.0.2/MSDK/ble/app\app_adv_mgr.c ****         ble_adv_start(p_adv->idx, &adv, NULL, NULL);
 493:C:/Users/stapi/OneDrive/Desktop/GD32VW553/V1_MQTT_OK/GD32VW55X_Wifi_BLE_SDK/GD32VW55x_RELEASE_V1.0.2/MSDK/ble/app\app_adv_mgr.c ****     }
 494:C:/Users/stapi/OneDrive/Desktop/GD32VW553/V1_MQTT_OK/GD32VW55X_Wifi_BLE_SDK/GD32VW55x_RELEASE_V1.0.2/MSDK/ble/app\app_adv_mgr.c ****     break;
 495:C:/Users/stapi/OneDrive/Desktop/GD32VW553/V1_MQTT_OK/GD32VW55X_Wifi_BLE_SDK/GD32VW55x_RELEASE_V1.0.2/MSDK/ble/app\app_adv_mgr.c **** 
 496:C:/Users/stapi/OneDrive/Desktop/GD32VW553/V1_MQTT_OK/GD32VW55X_Wifi_BLE_SDK/GD32VW55x_RELEASE_V1.0.2/MSDK/ble/app\app_adv_mgr.c ****     case 6: {
 497:C:/Users/stapi/OneDrive/Desktop/GD32VW553/V1_MQTT_OK/GD32VW55X_Wifi_BLE_SDK/GD32VW55x_RELEASE_V1.0.2/MSDK/ble/app\app_adv_mgr.c ****         ble_data_t adv_data;
 498:C:/Users/stapi/OneDrive/Desktop/GD32VW553/V1_MQTT_OK/GD32VW55X_Wifi_BLE_SDK/GD32VW55x_RELEASE_V1.0.2/MSDK/ble/app\app_adv_mgr.c **** 
 499:C:/Users/stapi/OneDrive/Desktop/GD32VW553/V1_MQTT_OK/GD32VW55X_Wifi_BLE_SDK/GD32VW55x_RELEASE_V1.0.2/MSDK/ble/app\app_adv_mgr.c ****         adv_data.len = 28;
 500:C:/Users/stapi/OneDrive/Desktop/GD32VW553/V1_MQTT_OK/GD32VW55X_Wifi_BLE_SDK/GD32VW55x_RELEASE_V1.0.2/MSDK/ble/app\app_adv_mgr.c ****         adv_data.p_data = bqb_adv_data_4;
 501:C:/Users/stapi/OneDrive/Desktop/GD32VW553/V1_MQTT_OK/GD32VW55X_Wifi_BLE_SDK/GD32VW55x_RELEASE_V1.0.2/MSDK/ble/app\app_adv_mgr.c **** 
 502:C:/Users/stapi/OneDrive/Desktop/GD32VW553/V1_MQTT_OK/GD32VW55X_Wifi_BLE_SDK/GD32VW55x_RELEASE_V1.0.2/MSDK/ble/app\app_adv_mgr.c ****         adv.data.p_data_force = &adv_data;
 503:C:/Users/stapi/OneDrive/Desktop/GD32VW553/V1_MQTT_OK/GD32VW55X_Wifi_BLE_SDK/GD32VW55x_RELEASE_V1.0.2/MSDK/ble/app\app_adv_mgr.c **** 
 504:C:/Users/stapi/OneDrive/Desktop/GD32VW553/V1_MQTT_OK/GD32VW55X_Wifi_BLE_SDK/GD32VW55x_RELEASE_V1.0.2/MSDK/ble/app\app_adv_mgr.c ****         ble_adv_start(p_adv->idx, &adv, NULL, NULL);
 505:C:/Users/stapi/OneDrive/Desktop/GD32VW553/V1_MQTT_OK/GD32VW55X_Wifi_BLE_SDK/GD32VW55x_RELEASE_V1.0.2/MSDK/ble/app\app_adv_mgr.c ****     }
 506:C:/Users/stapi/OneDrive/Desktop/GD32VW553/V1_MQTT_OK/GD32VW55X_Wifi_BLE_SDK/GD32VW55x_RELEASE_V1.0.2/MSDK/ble/app\app_adv_mgr.c ****     break;
 507:C:/Users/stapi/OneDrive/Desktop/GD32VW553/V1_MQTT_OK/GD32VW55X_Wifi_BLE_SDK/GD32VW55x_RELEASE_V1.0.2/MSDK/ble/app\app_adv_mgr.c **** 
 508:C:/Users/stapi/OneDrive/Desktop/GD32VW553/V1_MQTT_OK/GD32VW55X_Wifi_BLE_SDK/GD32VW55x_RELEASE_V1.0.2/MSDK/ble/app\app_adv_mgr.c ****     case 7: {
 509:C:/Users/stapi/OneDrive/Desktop/GD32VW553/V1_MQTT_OK/GD32VW55X_Wifi_BLE_SDK/GD32VW55x_RELEASE_V1.0.2/MSDK/ble/app\app_adv_mgr.c ****         ble_data_t adv_data;
 510:C:/Users/stapi/OneDrive/Desktop/GD32VW553/V1_MQTT_OK/GD32VW55X_Wifi_BLE_SDK/GD32VW55x_RELEASE_V1.0.2/MSDK/ble/app\app_adv_mgr.c **** 
 511:C:/Users/stapi/OneDrive/Desktop/GD32VW553/V1_MQTT_OK/GD32VW55X_Wifi_BLE_SDK/GD32VW55x_RELEASE_V1.0.2/MSDK/ble/app\app_adv_mgr.c ****         adv_data.len = sizeof(adv_data_hogp);
 512:C:/Users/stapi/OneDrive/Desktop/GD32VW553/V1_MQTT_OK/GD32VW55X_Wifi_BLE_SDK/GD32VW55x_RELEASE_V1.0.2/MSDK/ble/app\app_adv_mgr.c ****         adv_data.p_data = adv_data_hogp;
 513:C:/Users/stapi/OneDrive/Desktop/GD32VW553/V1_MQTT_OK/GD32VW55X_Wifi_BLE_SDK/GD32VW55x_RELEASE_V1.0.2/MSDK/ble/app\app_adv_mgr.c **** 
 514:C:/Users/stapi/OneDrive/Desktop/GD32VW553/V1_MQTT_OK/GD32VW55X_Wifi_BLE_SDK/GD32VW55x_RELEASE_V1.0.2/MSDK/ble/app\app_adv_mgr.c ****         adv.data.p_data_force = &adv_data;
 515:C:/Users/stapi/OneDrive/Desktop/GD32VW553/V1_MQTT_OK/GD32VW55X_Wifi_BLE_SDK/GD32VW55x_RELEASE_V1.0.2/MSDK/ble/app\app_adv_mgr.c **** 
 516:C:/Users/stapi/OneDrive/Desktop/GD32VW553/V1_MQTT_OK/GD32VW55X_Wifi_BLE_SDK/GD32VW55x_RELEASE_V1.0.2/MSDK/ble/app\app_adv_mgr.c ****         ble_adv_start(p_adv->idx, &adv, NULL, NULL);
 517:C:/Users/stapi/OneDrive/Desktop/GD32VW553/V1_MQTT_OK/GD32VW55X_Wifi_BLE_SDK/GD32VW55x_RELEASE_V1.0.2/MSDK/ble/app\app_adv_mgr.c ****     }
 518:C:/Users/stapi/OneDrive/Desktop/GD32VW553/V1_MQTT_OK/GD32VW55X_Wifi_BLE_SDK/GD32VW55x_RELEASE_V1.0.2/MSDK/ble/app\app_adv_mgr.c ****     break;
 519:C:/Users/stapi/OneDrive/Desktop/GD32VW553/V1_MQTT_OK/GD32VW55X_Wifi_BLE_SDK/GD32VW55x_RELEASE_V1.0.2/MSDK/ble/app\app_adv_mgr.c **** 
 520:C:/Users/stapi/OneDrive/Desktop/GD32VW553/V1_MQTT_OK/GD32VW55X_Wifi_BLE_SDK/GD32VW55x_RELEASE_V1.0.2/MSDK/ble/app\app_adv_mgr.c ****     case 8: {
 521:C:/Users/stapi/OneDrive/Desktop/GD32VW553/V1_MQTT_OK/GD32VW55X_Wifi_BLE_SDK/GD32VW55x_RELEASE_V1.0.2/MSDK/ble/app\app_adv_mgr.c ****         uint8_t i;
 522:C:/Users/stapi/OneDrive/Desktop/GD32VW553/V1_MQTT_OK/GD32VW55X_Wifi_BLE_SDK/GD32VW55x_RELEASE_V1.0.2/MSDK/ble/app\app_adv_mgr.c ****         uint8_t s_data[3] = {0x00, 0x11, 0x22};
 523:C:/Users/stapi/OneDrive/Desktop/GD32VW553/V1_MQTT_OK/GD32VW55X_Wifi_BLE_SDK/GD32VW55x_RELEASE_V1.0.2/MSDK/ble/app\app_adv_mgr.c ****         int8_t tx_pwr = -80;
 524:C:/Users/stapi/OneDrive/Desktop/GD32VW553/V1_MQTT_OK/GD32VW55X_Wifi_BLE_SDK/GD32VW55x_RELEASE_V1.0.2/MSDK/ble/app\app_adv_mgr.c ****         ble_adv_data_conn_intv_t slave_conn_intv;
 525:C:/Users/stapi/OneDrive/Desktop/GD32VW553/V1_MQTT_OK/GD32VW55X_Wifi_BLE_SDK/GD32VW55x_RELEASE_V1.0.2/MSDK/ble/app\app_adv_mgr.c ****         ble_adv_data_srv_data_t srv_data[2];
 526:C:/Users/stapi/OneDrive/Desktop/GD32VW553/V1_MQTT_OK/GD32VW55X_Wifi_BLE_SDK/GD32VW55x_RELEASE_V1.0.2/MSDK/ble/app\app_adv_mgr.c ****         ble_adv_data_manuf_data_t manuf_data;
 527:C:/Users/stapi/OneDrive/Desktop/GD32VW553/V1_MQTT_OK/GD32VW55X_Wifi_BLE_SDK/GD32VW55x_RELEASE_V1.0.2/MSDK/ble/app\app_adv_mgr.c ****         ble_uuid_t uuid_more[2];
 528:C:/Users/stapi/OneDrive/Desktop/GD32VW553/V1_MQTT_OK/GD32VW55X_Wifi_BLE_SDK/GD32VW55x_RELEASE_V1.0.2/MSDK/ble/app\app_adv_mgr.c ****         ble_uuid_t uuid_cmpl[3];
 529:C:/Users/stapi/OneDrive/Desktop/GD32VW553/V1_MQTT_OK/GD32VW55X_Wifi_BLE_SDK/GD32VW55x_RELEASE_V1.0.2/MSDK/ble/app\app_adv_mgr.c ****         ble_uuid_t uuid_solicited[6];
 530:C:/Users/stapi/OneDrive/Desktop/GD32VW553/V1_MQTT_OK/GD32VW55X_Wifi_BLE_SDK/GD32VW55x_RELEASE_V1.0.2/MSDK/ble/app\app_adv_mgr.c ****         ble_adv_data_t adv_data;
 531:C:/Users/stapi/OneDrive/Desktop/GD32VW553/V1_MQTT_OK/GD32VW55X_Wifi_BLE_SDK/GD32VW55x_RELEASE_V1.0.2/MSDK/ble/app\app_adv_mgr.c **** 
 532:C:/Users/stapi/OneDrive/Desktop/GD32VW553/V1_MQTT_OK/GD32VW55X_Wifi_BLE_SDK/GD32VW55x_RELEASE_V1.0.2/MSDK/ble/app\app_adv_mgr.c ****         memset(&adv_data, 0, sizeof(ble_adv_data_t));
 533:C:/Users/stapi/OneDrive/Desktop/GD32VW553/V1_MQTT_OK/GD32VW55X_Wifi_BLE_SDK/GD32VW55x_RELEASE_V1.0.2/MSDK/ble/app\app_adv_mgr.c **** 
 534:C:/Users/stapi/OneDrive/Desktop/GD32VW553/V1_MQTT_OK/GD32VW55X_Wifi_BLE_SDK/GD32VW55x_RELEASE_V1.0.2/MSDK/ble/app\app_adv_mgr.c ****         adv_data.local_name.type = BLE_ADV_DATA_FULL_NAME;
 535:C:/Users/stapi/OneDrive/Desktop/GD32VW553/V1_MQTT_OK/GD32VW55X_Wifi_BLE_SDK/GD32VW55x_RELEASE_V1.0.2/MSDK/ble/app\app_adv_mgr.c ****         adv_data.local_name.name_len = adp_name_length;
 536:C:/Users/stapi/OneDrive/Desktop/GD32VW553/V1_MQTT_OK/GD32VW55X_Wifi_BLE_SDK/GD32VW55x_RELEASE_V1.0.2/MSDK/ble/app\app_adv_mgr.c ****         adv_data.local_name.p_name = (uint8_t *)p_adp_name;
 537:C:/Users/stapi/OneDrive/Desktop/GD32VW553/V1_MQTT_OK/GD32VW55X_Wifi_BLE_SDK/GD32VW55x_RELEASE_V1.0.2/MSDK/ble/app\app_adv_mgr.c **** 
 538:C:/Users/stapi/OneDrive/Desktop/GD32VW553/V1_MQTT_OK/GD32VW55X_Wifi_BLE_SDK/GD32VW55x_RELEASE_V1.0.2/MSDK/ble/app\app_adv_mgr.c ****         if (p_adv->disc_mode == BLE_GAP_ADV_MODE_LIM_DISC) {
 539:C:/Users/stapi/OneDrive/Desktop/GD32VW553/V1_MQTT_OK/GD32VW55X_Wifi_BLE_SDK/GD32VW55x_RELEASE_V1.0.2/MSDK/ble/app\app_adv_mgr.c ****             adv_data.flags = BLE_GAP_ADV_FLAG_LE_ONLY_LIMITED_DISC_MODE;
 540:C:/Users/stapi/OneDrive/Desktop/GD32VW553/V1_MQTT_OK/GD32VW55X_Wifi_BLE_SDK/GD32VW55x_RELEASE_V1.0.2/MSDK/ble/app\app_adv_mgr.c ****         }
 541:C:/Users/stapi/OneDrive/Desktop/GD32VW553/V1_MQTT_OK/GD32VW55X_Wifi_BLE_SDK/GD32VW55x_RELEASE_V1.0.2/MSDK/ble/app\app_adv_mgr.c **** 
 542:C:/Users/stapi/OneDrive/Desktop/GD32VW553/V1_MQTT_OK/GD32VW55X_Wifi_BLE_SDK/GD32VW55x_RELEASE_V1.0.2/MSDK/ble/app\app_adv_mgr.c ****         else {
 543:C:/Users/stapi/OneDrive/Desktop/GD32VW553/V1_MQTT_OK/GD32VW55X_Wifi_BLE_SDK/GD32VW55x_RELEASE_V1.0.2/MSDK/ble/app\app_adv_mgr.c ****             adv_data.flags = BLE_GAP_ADV_FLAG_LE_ONLY_GENERAL_DISC_MODE;
 544:C:/Users/stapi/OneDrive/Desktop/GD32VW553/V1_MQTT_OK/GD32VW55X_Wifi_BLE_SDK/GD32VW55x_RELEASE_V1.0.2/MSDK/ble/app\app_adv_mgr.c ****         }
 545:C:/Users/stapi/OneDrive/Desktop/GD32VW553/V1_MQTT_OK/GD32VW55X_Wifi_BLE_SDK/GD32VW55x_RELEASE_V1.0.2/MSDK/ble/app\app_adv_mgr.c **** 
 546:C:/Users/stapi/OneDrive/Desktop/GD32VW553/V1_MQTT_OK/GD32VW55X_Wifi_BLE_SDK/GD32VW55x_RELEASE_V1.0.2/MSDK/ble/app\app_adv_mgr.c ****         adv_data.appearance = BLE_APPEARANCE_GENERIC_REMOTE_CONTROL;
 547:C:/Users/stapi/OneDrive/Desktop/GD32VW553/V1_MQTT_OK/GD32VW55X_Wifi_BLE_SDK/GD32VW55x_RELEASE_V1.0.2/MSDK/ble/app\app_adv_mgr.c ****         adv_data.p_tx_pwr = &tx_pwr;
 548:C:/Users/stapi/OneDrive/Desktop/GD32VW553/V1_MQTT_OK/GD32VW55X_Wifi_BLE_SDK/GD32VW55x_RELEASE_V1.0.2/MSDK/ble/app\app_adv_mgr.c **** 
 549:C:/Users/stapi/OneDrive/Desktop/GD32VW553/V1_MQTT_OK/GD32VW55X_Wifi_BLE_SDK/GD32VW55x_RELEASE_V1.0.2/MSDK/ble/app\app_adv_mgr.c ****         adv_data.p_pub_tgt_addr = p_adv->peer_addr.addr;
 550:C:/Users/stapi/OneDrive/Desktop/GD32VW553/V1_MQTT_OK/GD32VW55X_Wifi_BLE_SDK/GD32VW55x_RELEASE_V1.0.2/MSDK/ble/app\app_adv_mgr.c ****         adv_data.p_rand_tgt_addr = p_adv->peer_addr.addr;
 551:C:/Users/stapi/OneDrive/Desktop/GD32VW553/V1_MQTT_OK/GD32VW55X_Wifi_BLE_SDK/GD32VW55x_RELEASE_V1.0.2/MSDK/ble/app\app_adv_mgr.c **** 
 552:C:/Users/stapi/OneDrive/Desktop/GD32VW553/V1_MQTT_OK/GD32VW55X_Wifi_BLE_SDK/GD32VW55x_RELEASE_V1.0.2/MSDK/ble/app\app_adv_mgr.c ****         adv_data.adv_intv = 0x00A0;
 553:C:/Users/stapi/OneDrive/Desktop/GD32VW553/V1_MQTT_OK/GD32VW55X_Wifi_BLE_SDK/GD32VW55x_RELEASE_V1.0.2/MSDK/ble/app\app_adv_mgr.c **** 
 554:C:/Users/stapi/OneDrive/Desktop/GD32VW553/V1_MQTT_OK/GD32VW55X_Wifi_BLE_SDK/GD32VW55x_RELEASE_V1.0.2/MSDK/ble/app\app_adv_mgr.c ****         slave_conn_intv.min_conn_intv = 0x0010;
 555:C:/Users/stapi/OneDrive/Desktop/GD32VW553/V1_MQTT_OK/GD32VW55X_Wifi_BLE_SDK/GD32VW55x_RELEASE_V1.0.2/MSDK/ble/app\app_adv_mgr.c ****         slave_conn_intv.max_conn_intv = 0x0100;
 556:C:/Users/stapi/OneDrive/Desktop/GD32VW553/V1_MQTT_OK/GD32VW55X_Wifi_BLE_SDK/GD32VW55x_RELEASE_V1.0.2/MSDK/ble/app\app_adv_mgr.c ****         adv_data.p_slave_conn_intv = &slave_conn_intv;
 557:C:/Users/stapi/OneDrive/Desktop/GD32VW553/V1_MQTT_OK/GD32VW55X_Wifi_BLE_SDK/GD32VW55x_RELEASE_V1.0.2/MSDK/ble/app\app_adv_mgr.c **** 
 558:C:/Users/stapi/OneDrive/Desktop/GD32VW553/V1_MQTT_OK/GD32VW55X_Wifi_BLE_SDK/GD32VW55x_RELEASE_V1.0.2/MSDK/ble/app\app_adv_mgr.c ****         uuid_more[0].type = BLE_UUID_TYPE_16;
 559:C:/Users/stapi/OneDrive/Desktop/GD32VW553/V1_MQTT_OK/GD32VW55X_Wifi_BLE_SDK/GD32VW55x_RELEASE_V1.0.2/MSDK/ble/app\app_adv_mgr.c ****         uuid_more[0].data.uuid_16 = 0x1234;
 560:C:/Users/stapi/OneDrive/Desktop/GD32VW553/V1_MQTT_OK/GD32VW55X_Wifi_BLE_SDK/GD32VW55x_RELEASE_V1.0.2/MSDK/ble/app\app_adv_mgr.c ****         uuid_more[1].type = BLE_UUID_TYPE_16;
 561:C:/Users/stapi/OneDrive/Desktop/GD32VW553/V1_MQTT_OK/GD32VW55X_Wifi_BLE_SDK/GD32VW55x_RELEASE_V1.0.2/MSDK/ble/app\app_adv_mgr.c ****         uuid_more[1].data.uuid_16 = 0x5678;
 562:C:/Users/stapi/OneDrive/Desktop/GD32VW553/V1_MQTT_OK/GD32VW55X_Wifi_BLE_SDK/GD32VW55x_RELEASE_V1.0.2/MSDK/ble/app\app_adv_mgr.c ****         adv_data.uuid_more_available.uuid_cnt = 2;
 563:C:/Users/stapi/OneDrive/Desktop/GD32VW553/V1_MQTT_OK/GD32VW55X_Wifi_BLE_SDK/GD32VW55x_RELEASE_V1.0.2/MSDK/ble/app\app_adv_mgr.c ****         adv_data.uuid_more_available.p_uuid = uuid_more;
 564:C:/Users/stapi/OneDrive/Desktop/GD32VW553/V1_MQTT_OK/GD32VW55X_Wifi_BLE_SDK/GD32VW55x_RELEASE_V1.0.2/MSDK/ble/app\app_adv_mgr.c **** 
 565:C:/Users/stapi/OneDrive/Desktop/GD32VW553/V1_MQTT_OK/GD32VW55X_Wifi_BLE_SDK/GD32VW55x_RELEASE_V1.0.2/MSDK/ble/app\app_adv_mgr.c ****         uuid_cmpl[0].type = BLE_UUID_TYPE_16;
 566:C:/Users/stapi/OneDrive/Desktop/GD32VW553/V1_MQTT_OK/GD32VW55X_Wifi_BLE_SDK/GD32VW55x_RELEASE_V1.0.2/MSDK/ble/app\app_adv_mgr.c ****         uuid_cmpl[0].data.uuid_16 = 0x1234;
 567:C:/Users/stapi/OneDrive/Desktop/GD32VW553/V1_MQTT_OK/GD32VW55X_Wifi_BLE_SDK/GD32VW55x_RELEASE_V1.0.2/MSDK/ble/app\app_adv_mgr.c ****         uuid_cmpl[1].type = BLE_UUID_TYPE_32;
 568:C:/Users/stapi/OneDrive/Desktop/GD32VW553/V1_MQTT_OK/GD32VW55X_Wifi_BLE_SDK/GD32VW55x_RELEASE_V1.0.2/MSDK/ble/app\app_adv_mgr.c ****         uuid_cmpl[1].data.uuid_32 = 0x56789ABC;
 569:C:/Users/stapi/OneDrive/Desktop/GD32VW553/V1_MQTT_OK/GD32VW55X_Wifi_BLE_SDK/GD32VW55x_RELEASE_V1.0.2/MSDK/ble/app\app_adv_mgr.c ****         uuid_cmpl[2].type = BLE_UUID_TYPE_128;
 570:C:/Users/stapi/OneDrive/Desktop/GD32VW553/V1_MQTT_OK/GD32VW55X_Wifi_BLE_SDK/GD32VW55x_RELEASE_V1.0.2/MSDK/ble/app\app_adv_mgr.c ****         for (i = 0; i < 16; i++) {
 571:C:/Users/stapi/OneDrive/Desktop/GD32VW553/V1_MQTT_OK/GD32VW55X_Wifi_BLE_SDK/GD32VW55x_RELEASE_V1.0.2/MSDK/ble/app\app_adv_mgr.c ****             uuid_cmpl[2].data.uuid_128[i] = i;
 572:C:/Users/stapi/OneDrive/Desktop/GD32VW553/V1_MQTT_OK/GD32VW55X_Wifi_BLE_SDK/GD32VW55x_RELEASE_V1.0.2/MSDK/ble/app\app_adv_mgr.c ****         }
 573:C:/Users/stapi/OneDrive/Desktop/GD32VW553/V1_MQTT_OK/GD32VW55X_Wifi_BLE_SDK/GD32VW55x_RELEASE_V1.0.2/MSDK/ble/app\app_adv_mgr.c ****         adv_data.uuid_complete.uuid_cnt = 3;
 574:C:/Users/stapi/OneDrive/Desktop/GD32VW553/V1_MQTT_OK/GD32VW55X_Wifi_BLE_SDK/GD32VW55x_RELEASE_V1.0.2/MSDK/ble/app\app_adv_mgr.c ****         adv_data.uuid_complete.p_uuid = uuid_cmpl;
 575:C:/Users/stapi/OneDrive/Desktop/GD32VW553/V1_MQTT_OK/GD32VW55X_Wifi_BLE_SDK/GD32VW55x_RELEASE_V1.0.2/MSDK/ble/app\app_adv_mgr.c **** 
 576:C:/Users/stapi/OneDrive/Desktop/GD32VW553/V1_MQTT_OK/GD32VW55X_Wifi_BLE_SDK/GD32VW55x_RELEASE_V1.0.2/MSDK/ble/app\app_adv_mgr.c ****         uuid_solicited[0].type = BLE_UUID_TYPE_16;
 577:C:/Users/stapi/OneDrive/Desktop/GD32VW553/V1_MQTT_OK/GD32VW55X_Wifi_BLE_SDK/GD32VW55x_RELEASE_V1.0.2/MSDK/ble/app\app_adv_mgr.c ****         uuid_solicited[0].data.uuid_16 = 0x1234;
 578:C:/Users/stapi/OneDrive/Desktop/GD32VW553/V1_MQTT_OK/GD32VW55X_Wifi_BLE_SDK/GD32VW55x_RELEASE_V1.0.2/MSDK/ble/app\app_adv_mgr.c ****         uuid_solicited[1].type = BLE_UUID_TYPE_32;
 579:C:/Users/stapi/OneDrive/Desktop/GD32VW553/V1_MQTT_OK/GD32VW55X_Wifi_BLE_SDK/GD32VW55x_RELEASE_V1.0.2/MSDK/ble/app\app_adv_mgr.c ****         uuid_solicited[1].data.uuid_32 = 0x11223344;
 580:C:/Users/stapi/OneDrive/Desktop/GD32VW553/V1_MQTT_OK/GD32VW55X_Wifi_BLE_SDK/GD32VW55x_RELEASE_V1.0.2/MSDK/ble/app\app_adv_mgr.c ****         uuid_solicited[2].type = BLE_UUID_TYPE_16;
 581:C:/Users/stapi/OneDrive/Desktop/GD32VW553/V1_MQTT_OK/GD32VW55X_Wifi_BLE_SDK/GD32VW55x_RELEASE_V1.0.2/MSDK/ble/app\app_adv_mgr.c ****         uuid_solicited[2].data.uuid_16 = 0x5678;
 582:C:/Users/stapi/OneDrive/Desktop/GD32VW553/V1_MQTT_OK/GD32VW55X_Wifi_BLE_SDK/GD32VW55x_RELEASE_V1.0.2/MSDK/ble/app\app_adv_mgr.c ****         uuid_solicited[3].type = BLE_UUID_TYPE_32;
 583:C:/Users/stapi/OneDrive/Desktop/GD32VW553/V1_MQTT_OK/GD32VW55X_Wifi_BLE_SDK/GD32VW55x_RELEASE_V1.0.2/MSDK/ble/app\app_adv_mgr.c ****         uuid_solicited[3].data.uuid_32 = 0x55667788;
 584:C:/Users/stapi/OneDrive/Desktop/GD32VW553/V1_MQTT_OK/GD32VW55X_Wifi_BLE_SDK/GD32VW55x_RELEASE_V1.0.2/MSDK/ble/app\app_adv_mgr.c ****         uuid_solicited[4].type = BLE_UUID_TYPE_16;
 585:C:/Users/stapi/OneDrive/Desktop/GD32VW553/V1_MQTT_OK/GD32VW55X_Wifi_BLE_SDK/GD32VW55x_RELEASE_V1.0.2/MSDK/ble/app\app_adv_mgr.c ****         uuid_solicited[4].data.uuid_16 = 0xABCD;
 586:C:/Users/stapi/OneDrive/Desktop/GD32VW553/V1_MQTT_OK/GD32VW55X_Wifi_BLE_SDK/GD32VW55x_RELEASE_V1.0.2/MSDK/ble/app\app_adv_mgr.c ****         uuid_solicited[5].type = BLE_UUID_TYPE_32;
 587:C:/Users/stapi/OneDrive/Desktop/GD32VW553/V1_MQTT_OK/GD32VW55X_Wifi_BLE_SDK/GD32VW55x_RELEASE_V1.0.2/MSDK/ble/app\app_adv_mgr.c ****         uuid_solicited[5].data.uuid_32 = 0xAABBCCDD;
 588:C:/Users/stapi/OneDrive/Desktop/GD32VW553/V1_MQTT_OK/GD32VW55X_Wifi_BLE_SDK/GD32VW55x_RELEASE_V1.0.2/MSDK/ble/app\app_adv_mgr.c ****         adv_data.uuid_solicited.uuid_cnt = 6;
 589:C:/Users/stapi/OneDrive/Desktop/GD32VW553/V1_MQTT_OK/GD32VW55X_Wifi_BLE_SDK/GD32VW55x_RELEASE_V1.0.2/MSDK/ble/app\app_adv_mgr.c ****         adv_data.uuid_solicited.p_uuid = uuid_solicited;
 590:C:/Users/stapi/OneDrive/Desktop/GD32VW553/V1_MQTT_OK/GD32VW55X_Wifi_BLE_SDK/GD32VW55x_RELEASE_V1.0.2/MSDK/ble/app\app_adv_mgr.c **** 
 591:C:/Users/stapi/OneDrive/Desktop/GD32VW553/V1_MQTT_OK/GD32VW55X_Wifi_BLE_SDK/GD32VW55x_RELEASE_V1.0.2/MSDK/ble/app\app_adv_mgr.c ****         srv_data[0].uuid.type = BLE_UUID_TYPE_16;
 592:C:/Users/stapi/OneDrive/Desktop/GD32VW553/V1_MQTT_OK/GD32VW55X_Wifi_BLE_SDK/GD32VW55x_RELEASE_V1.0.2/MSDK/ble/app\app_adv_mgr.c ****         srv_data[0].uuid.data.uuid_16 = 0x1199;
 593:C:/Users/stapi/OneDrive/Desktop/GD32VW553/V1_MQTT_OK/GD32VW55X_Wifi_BLE_SDK/GD32VW55x_RELEASE_V1.0.2/MSDK/ble/app\app_adv_mgr.c ****         srv_data[0].data_len = 8;
 594:C:/Users/stapi/OneDrive/Desktop/GD32VW553/V1_MQTT_OK/GD32VW55X_Wifi_BLE_SDK/GD32VW55x_RELEASE_V1.0.2/MSDK/ble/app\app_adv_mgr.c ****         srv_data[0].p_data = service_data;
 595:C:/Users/stapi/OneDrive/Desktop/GD32VW553/V1_MQTT_OK/GD32VW55X_Wifi_BLE_SDK/GD32VW55x_RELEASE_V1.0.2/MSDK/ble/app\app_adv_mgr.c ****         srv_data[1].uuid.type = BLE_UUID_TYPE_32;
 596:C:/Users/stapi/OneDrive/Desktop/GD32VW553/V1_MQTT_OK/GD32VW55X_Wifi_BLE_SDK/GD32VW55x_RELEASE_V1.0.2/MSDK/ble/app\app_adv_mgr.c ****         srv_data[1].uuid.data.uuid_32 = 0x12345678;
 597:C:/Users/stapi/OneDrive/Desktop/GD32VW553/V1_MQTT_OK/GD32VW55X_Wifi_BLE_SDK/GD32VW55x_RELEASE_V1.0.2/MSDK/ble/app\app_adv_mgr.c ****         srv_data[1].data_len = 3;
 598:C:/Users/stapi/OneDrive/Desktop/GD32VW553/V1_MQTT_OK/GD32VW55X_Wifi_BLE_SDK/GD32VW55x_RELEASE_V1.0.2/MSDK/ble/app\app_adv_mgr.c ****         srv_data[1].p_data = s_data;
 599:C:/Users/stapi/OneDrive/Desktop/GD32VW553/V1_MQTT_OK/GD32VW55X_Wifi_BLE_SDK/GD32VW55x_RELEASE_V1.0.2/MSDK/ble/app\app_adv_mgr.c ****         adv_data.srv_data.cnt = 2;
 600:C:/Users/stapi/OneDrive/Desktop/GD32VW553/V1_MQTT_OK/GD32VW55X_Wifi_BLE_SDK/GD32VW55x_RELEASE_V1.0.2/MSDK/ble/app\app_adv_mgr.c ****         adv_data.srv_data.p_data = srv_data;
 601:C:/Users/stapi/OneDrive/Desktop/GD32VW553/V1_MQTT_OK/GD32VW55X_Wifi_BLE_SDK/GD32VW55x_RELEASE_V1.0.2/MSDK/ble/app\app_adv_mgr.c **** 
 602:C:/Users/stapi/OneDrive/Desktop/GD32VW553/V1_MQTT_OK/GD32VW55X_Wifi_BLE_SDK/GD32VW55x_RELEASE_V1.0.2/MSDK/ble/app\app_adv_mgr.c ****         adv_data.url.url_len = 25;
 603:C:/Users/stapi/OneDrive/Desktop/GD32VW553/V1_MQTT_OK/GD32VW55X_Wifi_BLE_SDK/GD32VW55x_RELEASE_V1.0.2/MSDK/ble/app\app_adv_mgr.c ****         adv_data.url.p_url = url;
 604:C:/Users/stapi/OneDrive/Desktop/GD32VW553/V1_MQTT_OK/GD32VW55X_Wifi_BLE_SDK/GD32VW55x_RELEASE_V1.0.2/MSDK/ble/app\app_adv_mgr.c **** 
 605:C:/Users/stapi/OneDrive/Desktop/GD32VW553/V1_MQTT_OK/GD32VW55X_Wifi_BLE_SDK/GD32VW55x_RELEASE_V1.0.2/MSDK/ble/app\app_adv_mgr.c ****         manuf_data.company_id = 0x0C2B;
 606:C:/Users/stapi/OneDrive/Desktop/GD32VW553/V1_MQTT_OK/GD32VW55X_Wifi_BLE_SDK/GD32VW55x_RELEASE_V1.0.2/MSDK/ble/app\app_adv_mgr.c ****         manuf_data.data_len = 25;
 607:C:/Users/stapi/OneDrive/Desktop/GD32VW553/V1_MQTT_OK/GD32VW55X_Wifi_BLE_SDK/GD32VW55x_RELEASE_V1.0.2/MSDK/ble/app\app_adv_mgr.c ****         manuf_data.p_data = url;
 608:C:/Users/stapi/OneDrive/Desktop/GD32VW553/V1_MQTT_OK/GD32VW55X_Wifi_BLE_SDK/GD32VW55x_RELEASE_V1.0.2/MSDK/ble/app\app_adv_mgr.c ****         adv_data.p_manuf_specific_data = &manuf_data;
 609:C:/Users/stapi/OneDrive/Desktop/GD32VW553/V1_MQTT_OK/GD32VW55X_Wifi_BLE_SDK/GD32VW55x_RELEASE_V1.0.2/MSDK/ble/app\app_adv_mgr.c **** 
 610:C:/Users/stapi/OneDrive/Desktop/GD32VW553/V1_MQTT_OK/GD32VW55X_Wifi_BLE_SDK/GD32VW55x_RELEASE_V1.0.2/MSDK/ble/app\app_adv_mgr.c ****         adv.data_force = false;
 611:C:/Users/stapi/OneDrive/Desktop/GD32VW553/V1_MQTT_OK/GD32VW55X_Wifi_BLE_SDK/GD32VW55x_RELEASE_V1.0.2/MSDK/ble/app\app_adv_mgr.c ****         adv.data.p_data_enc = &adv_data;
 612:C:/Users/stapi/OneDrive/Desktop/GD32VW553/V1_MQTT_OK/GD32VW55X_Wifi_BLE_SDK/GD32VW55x_RELEASE_V1.0.2/MSDK/ble/app\app_adv_mgr.c **** 
 613:C:/Users/stapi/OneDrive/Desktop/GD32VW553/V1_MQTT_OK/GD32VW55X_Wifi_BLE_SDK/GD32VW55x_RELEASE_V1.0.2/MSDK/ble/app\app_adv_mgr.c ****         ble_adv_start(p_adv->idx, &adv, NULL, NULL);
 614:C:/Users/stapi/OneDrive/Desktop/GD32VW553/V1_MQTT_OK/GD32VW55X_Wifi_BLE_SDK/GD32VW55x_RELEASE_V1.0.2/MSDK/ble/app\app_adv_mgr.c ****     }
 615:C:/Users/stapi/OneDrive/Desktop/GD32VW553/V1_MQTT_OK/GD32VW55X_Wifi_BLE_SDK/GD32VW55x_RELEASE_V1.0.2/MSDK/ble/app\app_adv_mgr.c ****     break;
 616:C:/Users/stapi/OneDrive/Desktop/GD32VW553/V1_MQTT_OK/GD32VW55X_Wifi_BLE_SDK/GD32VW55x_RELEASE_V1.0.2/MSDK/ble/app\app_adv_mgr.c **** 
 617:C:/Users/stapi/OneDrive/Desktop/GD32VW553/V1_MQTT_OK/GD32VW55X_Wifi_BLE_SDK/GD32VW55x_RELEASE_V1.0.2/MSDK/ble/app\app_adv_mgr.c ****     default: {
 618:C:/Users/stapi/OneDrive/Desktop/GD32VW553/V1_MQTT_OK/GD32VW55X_Wifi_BLE_SDK/GD32VW55x_RELEASE_V1.0.2/MSDK/ble/app\app_adv_mgr.c ****         ble_data_t adv_data;
 619:C:/Users/stapi/OneDrive/Desktop/GD32VW553/V1_MQTT_OK/GD32VW55X_Wifi_BLE_SDK/GD32VW55x_RELEASE_V1.0.2/MSDK/ble/app\app_adv_mgr.c ****         ble_data_t sr_data;
 620:C:/Users/stapi/OneDrive/Desktop/GD32VW553/V1_MQTT_OK/GD32VW55X_Wifi_BLE_SDK/GD32VW55x_RELEASE_V1.0.2/MSDK/ble/app\app_adv_mgr.c ****         uint8_t *p_buf;
 621:C:/Users/stapi/OneDrive/Desktop/GD32VW553/V1_MQTT_OK/GD32VW55X_Wifi_BLE_SDK/GD32VW55x_RELEASE_V1.0.2/MSDK/ble/app\app_adv_mgr.c ****         uint16_t len;
 622:C:/Users/stapi/OneDrive/Desktop/GD32VW553/V1_MQTT_OK/GD32VW55X_Wifi_BLE_SDK/GD32VW55x_RELEASE_V1.0.2/MSDK/ble/app\app_adv_mgr.c **** 
 623:C:/Users/stapi/OneDrive/Desktop/GD32VW553/V1_MQTT_OK/GD32VW55X_Wifi_BLE_SDK/GD32VW55x_RELEASE_V1.0.2/MSDK/ble/app\app_adv_mgr.c ****         p_buf = sys_malloc(p_adv->max_data_len);
 624:C:/Users/stapi/OneDrive/Desktop/GD32VW553/V1_MQTT_OK/GD32VW55X_Wifi_BLE_SDK/GD32VW55x_RELEASE_V1.0.2/MSDK/ble/app\app_adv_mgr.c ****         if (p_buf) {
 625:C:/Users/stapi/OneDrive/Desktop/GD32VW553/V1_MQTT_OK/GD32VW55X_Wifi_BLE_SDK/GD32VW55x_RELEASE_V1.0.2/MSDK/ble/app\app_adv_mgr.c ****             len = app_build_adv_data(p_adv, p_buf, p_adv->max_data_len, true);
 626:C:/Users/stapi/OneDrive/Desktop/GD32VW553/V1_MQTT_OK/GD32VW55X_Wifi_BLE_SDK/GD32VW55x_RELEASE_V1.0.2/MSDK/ble/app\app_adv_mgr.c ****             adv_data.len = len;
 627:C:/Users/stapi/OneDrive/Desktop/GD32VW553/V1_MQTT_OK/GD32VW55X_Wifi_BLE_SDK/GD32VW55x_RELEASE_V1.0.2/MSDK/ble/app\app_adv_mgr.c ****             adv_data.p_data = p_buf;
 628:C:/Users/stapi/OneDrive/Desktop/GD32VW553/V1_MQTT_OK/GD32VW55X_Wifi_BLE_SDK/GD32VW55x_RELEASE_V1.0.2/MSDK/ble/app\app_adv_mgr.c **** 
 629:C:/Users/stapi/OneDrive/Desktop/GD32VW553/V1_MQTT_OK/GD32VW55X_Wifi_BLE_SDK/GD32VW55x_RELEASE_V1.0.2/MSDK/ble/app\app_adv_mgr.c ****             adv.data.p_data_force = &adv_data;
 630:C:/Users/stapi/OneDrive/Desktop/GD32VW553/V1_MQTT_OK/GD32VW55X_Wifi_BLE_SDK/GD32VW55x_RELEASE_V1.0.2/MSDK/ble/app\app_adv_mgr.c ****             per_adv.data.p_data_force = &adv_data;
 631:C:/Users/stapi/OneDrive/Desktop/GD32VW553/V1_MQTT_OK/GD32VW55X_Wifi_BLE_SDK/GD32VW55x_RELEASE_V1.0.2/MSDK/ble/app\app_adv_mgr.c **** 
 632:C:/Users/stapi/OneDrive/Desktop/GD32VW553/V1_MQTT_OK/GD32VW55X_Wifi_BLE_SDK/GD32VW55x_RELEASE_V1.0.2/MSDK/ble/app\app_adv_mgr.c ****             if (len > 3) {
 633:C:/Users/stapi/OneDrive/Desktop/GD32VW553/V1_MQTT_OK/GD32VW55X_Wifi_BLE_SDK/GD32VW55x_RELEASE_V1.0.2/MSDK/ble/app\app_adv_mgr.c ****                 sr_data.p_data = p_buf + 3;
 634:C:/Users/stapi/OneDrive/Desktop/GD32VW553/V1_MQTT_OK/GD32VW55X_Wifi_BLE_SDK/GD32VW55x_RELEASE_V1.0.2/MSDK/ble/app\app_adv_mgr.c ****                 sr_data.len = len - 3;
 635:C:/Users/stapi/OneDrive/Desktop/GD32VW553/V1_MQTT_OK/GD32VW55X_Wifi_BLE_SDK/GD32VW55x_RELEASE_V1.0.2/MSDK/ble/app\app_adv_mgr.c ****             } else {
 636:C:/Users/stapi/OneDrive/Desktop/GD32VW553/V1_MQTT_OK/GD32VW55X_Wifi_BLE_SDK/GD32VW55x_RELEASE_V1.0.2/MSDK/ble/app\app_adv_mgr.c ****                 sr_data.p_data = NULL;
 637:C:/Users/stapi/OneDrive/Desktop/GD32VW553/V1_MQTT_OK/GD32VW55X_Wifi_BLE_SDK/GD32VW55x_RELEASE_V1.0.2/MSDK/ble/app\app_adv_mgr.c ****                 sr_data.len = 0;
 638:C:/Users/stapi/OneDrive/Desktop/GD32VW553/V1_MQTT_OK/GD32VW55X_Wifi_BLE_SDK/GD32VW55x_RELEASE_V1.0.2/MSDK/ble/app\app_adv_mgr.c ****             }
 639:C:/Users/stapi/OneDrive/Desktop/GD32VW553/V1_MQTT_OK/GD32VW55X_Wifi_BLE_SDK/GD32VW55x_RELEASE_V1.0.2/MSDK/ble/app\app_adv_mgr.c ****             scan_rsp.data.p_data_force = &sr_data;
 640:C:/Users/stapi/OneDrive/Desktop/GD32VW553/V1_MQTT_OK/GD32VW55X_Wifi_BLE_SDK/GD32VW55x_RELEASE_V1.0.2/MSDK/ble/app\app_adv_mgr.c **** 
 641:C:/Users/stapi/OneDrive/Desktop/GD32VW553/V1_MQTT_OK/GD32VW55X_Wifi_BLE_SDK/GD32VW55x_RELEASE_V1.0.2/MSDK/ble/app\app_adv_mgr.c ****             ble_adv_start(p_adv->idx, &adv, &scan_rsp, &per_adv);
 452              		.loc 1 641 13
 453 00c2 03450400 		lbu	a0,0(s0)
 454 00c6 7410     		addi	a3,sp,44
 455 00c8 5010     		addi	a2,sp,36
 456 00ca 6C08     		addi	a1,sp,28
 457 00cc 97000000 		call	ble_adv_start
 457      E7800000 
 458              	.LVL44:
 642:C:/Users/stapi/OneDrive/Desktop/GD32VW553/V1_MQTT_OK/GD32VW55X_Wifi_BLE_SDK/GD32VW55x_RELEASE_V1.0.2/MSDK/ble/app\app_adv_mgr.c **** 
 643:C:/Users/stapi/OneDrive/Desktop/GD32VW553/V1_MQTT_OK/GD32VW55X_Wifi_BLE_SDK/GD32VW55x_RELEASE_V1.0.2/MSDK/ble/app\app_adv_mgr.c ****             sys_mfree(p_buf);
 459              		.loc 1 643 13
 460 00d4 2685     		mv	a0,s1
 461 00d6 97000000 		call	sys_mfree
 461      E7800000 
 462              	.LVL45:
 463              	.LBE10:
 644:C:/Users/stapi/OneDrive/Desktop/GD32VW553/V1_MQTT_OK/GD32VW55X_Wifi_BLE_SDK/GD32VW55x_RELEASE_V1.0.2/MSDK/ble/app\app_adv_mgr.c ****         }
 645:C:/Users/stapi/OneDrive/Desktop/GD32VW553/V1_MQTT_OK/GD32VW55X_Wifi_BLE_SDK/GD32VW55x_RELEASE_V1.0.2/MSDK/ble/app\app_adv_mgr.c ****     }
 646:C:/Users/stapi/OneDrive/Desktop/GD32VW553/V1_MQTT_OK/GD32VW55X_Wifi_BLE_SDK/GD32VW55x_RELEASE_V1.0.2/MSDK/ble/app\app_adv_mgr.c ****     break;
 464              		.loc 1 646 5
 647:C:/Users/stapi/OneDrive/Desktop/GD32VW553/V1_MQTT_OK/GD32VW55X_Wifi_BLE_SDK/GD32VW55x_RELEASE_V1.0.2/MSDK/ble/app\app_adv_mgr.c ****     }
 648:C:/Users/stapi/OneDrive/Desktop/GD32VW553/V1_MQTT_OK/GD32VW55X_Wifi_BLE_SDK/GD32VW55x_RELEASE_V1.0.2/MSDK/ble/app\app_adv_mgr.c **** }
 465              		.loc 1 648 1 is_stmt 0
 466 00de 2DA0     		j	.L23
 467              	.LVL46:
 468              	.L31:
 469              	.LBB11:
 451:C:/Users/stapi/OneDrive/Desktop/GD32VW553/V1_MQTT_OK/GD32VW55X_Wifi_BLE_SDK/GD32VW55x_RELEASE_V1.0.2/MSDK/ble/app\app_adv_mgr.c **** 
 470              		.loc 1 451 9 is_stmt 1 discriminator 3
 453:C:/Users/stapi/OneDrive/Desktop/GD32VW553/V1_MQTT_OK/GD32VW55X_Wifi_BLE_SDK/GD32VW55x_RELEASE_V1.0.2/MSDK/ble/app\app_adv_mgr.c ****         adv_data.p_data = bqb_adv_data_1;
 471              		.loc 1 453 9 discriminator 3
 453:C:/Users/stapi/OneDrive/Desktop/GD32VW553/V1_MQTT_OK/GD32VW55X_Wifi_BLE_SDK/GD32VW55x_RELEASE_V1.0.2/MSDK/ble/app\app_adv_mgr.c ****         adv_data.p_data = bqb_adv_data_1;
 472              		.loc 1 453 22 is_stmt 0 discriminator 3
 473 00e0 E547     		li	a5,25
 474 00e2 2316F112 		sh	a5,300(sp)
 454:C:/Users/stapi/OneDrive/Desktop/GD32VW553/V1_MQTT_OK/GD32VW55X_Wifi_BLE_SDK/GD32VW55x_RELEASE_V1.0.2/MSDK/ble/app\app_adv_mgr.c **** 
 475              		.loc 1 454 9 is_stmt 1 discriminator 3
 454:C:/Users/stapi/OneDrive/Desktop/GD32VW553/V1_MQTT_OK/GD32VW55X_Wifi_BLE_SDK/GD32VW55x_RELEASE_V1.0.2/MSDK/ble/app\app_adv_mgr.c **** 
 476              		.loc 1 454 25 is_stmt 0 discriminator 3
 477 00e6 B7070000 		lui	a5,%hi(.LANCHOR3)
 478 00ea 93870700 		addi	a5,a5,%lo(.LANCHOR3)
 479              	.L52:
 480 00ee 2324F112 		sw	a5,296(sp)
 456:C:/Users/stapi/OneDrive/Desktop/GD32VW553/V1_MQTT_OK/GD32VW55X_Wifi_BLE_SDK/GD32VW55x_RELEASE_V1.0.2/MSDK/ble/app\app_adv_mgr.c **** 
 481              		.loc 1 456 9 is_stmt 1 discriminator 3
 456:C:/Users/stapi/OneDrive/Desktop/GD32VW553/V1_MQTT_OK/GD32VW55X_Wifi_BLE_SDK/GD32VW55x_RELEASE_V1.0.2/MSDK/ble/app\app_adv_mgr.c **** 
 482              		.loc 1 456 31 is_stmt 0 discriminator 3
 483 00f2 3C12     		addi	a5,sp,296
 484              	.LVL47:
 485              	.L51:
 486 00f4 3ED0     		sw	a5,32(sp)
 458:C:/Users/stapi/OneDrive/Desktop/GD32VW553/V1_MQTT_OK/GD32VW55X_Wifi_BLE_SDK/GD32VW55x_RELEASE_V1.0.2/MSDK/ble/app\app_adv_mgr.c ****     }
 487              		.loc 1 458 9 is_stmt 1 discriminator 3
 488 00f6 8146     		li	a3,0
 489 00f8 0146     		li	a2,0
 490              	.L50:
 491 00fa 03450400 		lbu	a0,0(s0)
 492 00fe 6C08     		addi	a1,sp,28
 493 0100 97000000 		call	ble_adv_start
 493      E7800000 
 494              	.LVL48:
 495              	.LBE11:
 460:C:/Users/stapi/OneDrive/Desktop/GD32VW553/V1_MQTT_OK/GD32VW55X_Wifi_BLE_SDK/GD32VW55x_RELEASE_V1.0.2/MSDK/ble/app\app_adv_mgr.c **** 
 496              		.loc 1 460 5 discriminator 3
 497              	.L23:
 498              		.loc 1 648 1 is_stmt 0
 499 0108 1D61     		addi	sp,sp,416
 500              		.cfi_remember_state
 501              		.cfi_def_cfa_offset 0
 502 010a 17030000 		tail	__riscv_restore_2
 502      67000300 
 503              		.cfi_restore 9
 504              		.cfi_restore 8
 505              		.cfi_restore 1
 506              		.cfi_def_cfa_offset -16
 507              	.LVL49:
 508              	.L30:
 509              		.cfi_restore_state
 510              	.LBB12:
 463:C:/Users/stapi/OneDrive/Desktop/GD32VW553/V1_MQTT_OK/GD32VW55X_Wifi_BLE_SDK/GD32VW55x_RELEASE_V1.0.2/MSDK/ble/app\app_adv_mgr.c ****         ble_data_t scan_rsp_data;
 511              		.loc 1 463 9 is_stmt 1 discriminator 4
 464:C:/Users/stapi/OneDrive/Desktop/GD32VW553/V1_MQTT_OK/GD32VW55X_Wifi_BLE_SDK/GD32VW55x_RELEASE_V1.0.2/MSDK/ble/app\app_adv_mgr.c ****         ble_data_t per_adv_data;
 512              		.loc 1 464 9 discriminator 4
 465:C:/Users/stapi/OneDrive/Desktop/GD32VW553/V1_MQTT_OK/GD32VW55X_Wifi_BLE_SDK/GD32VW55x_RELEASE_V1.0.2/MSDK/ble/app\app_adv_mgr.c **** 
 513              		.loc 1 465 9 discriminator 4
 467:C:/Users/stapi/OneDrive/Desktop/GD32VW553/V1_MQTT_OK/GD32VW55X_Wifi_BLE_SDK/GD32VW55x_RELEASE_V1.0.2/MSDK/ble/app\app_adv_mgr.c ****         adv_data.p_data = bqb_adv_data_2;
 514              		.loc 1 467 9 discriminator 4
 467:C:/Users/stapi/OneDrive/Desktop/GD32VW553/V1_MQTT_OK/GD32VW55X_Wifi_BLE_SDK/GD32VW55x_RELEASE_V1.0.2/MSDK/ble/app\app_adv_mgr.c ****         adv_data.p_data = bqb_adv_data_2;
 515              		.loc 1 467 22 is_stmt 0 discriminator 4
 516 0112 E147     		li	a5,24
 517 0114 2310F10A 		sh	a5,160(sp)
 468:C:/Users/stapi/OneDrive/Desktop/GD32VW553/V1_MQTT_OK/GD32VW55X_Wifi_BLE_SDK/GD32VW55x_RELEASE_V1.0.2/MSDK/ble/app\app_adv_mgr.c **** 
 518              		.loc 1 468 9 is_stmt 1 discriminator 4
 468:C:/Users/stapi/OneDrive/Desktop/GD32VW553/V1_MQTT_OK/GD32VW55X_Wifi_BLE_SDK/GD32VW55x_RELEASE_V1.0.2/MSDK/ble/app\app_adv_mgr.c **** 
 519              		.loc 1 468 25 is_stmt 0 discriminator 4
 520 0118 B7070000 		lui	a5,%hi(.LANCHOR4)
 521 011c 93870700 		addi	a5,a5,%lo(.LANCHOR4)
 522 0120 3ECF     		sw	a5,156(sp)
 470:C:/Users/stapi/OneDrive/Desktop/GD32VW553/V1_MQTT_OK/GD32VW55X_Wifi_BLE_SDK/GD32VW55x_RELEASE_V1.0.2/MSDK/ble/app\app_adv_mgr.c ****         scan_rsp_data.p_data = bqb_scan_rsp_data_2;
 523              		.loc 1 470 9 is_stmt 1 discriminator 4
 471:C:/Users/stapi/OneDrive/Desktop/GD32VW553/V1_MQTT_OK/GD32VW55X_Wifi_BLE_SDK/GD32VW55x_RELEASE_V1.0.2/MSDK/ble/app\app_adv_mgr.c **** 
 524              		.loc 1 471 30 is_stmt 0 discriminator 4
 525 0122 B7070000 		lui	a5,%hi(.LANCHOR5)
 526 0126 93870700 		addi	a5,a5,%lo(.LANCHOR5)
 527 012a BECD     		sw	a5,216(sp)
 474:C:/Users/stapi/OneDrive/Desktop/GD32VW553/V1_MQTT_OK/GD32VW55X_Wifi_BLE_SDK/GD32VW55x_RELEASE_V1.0.2/MSDK/ble/app\app_adv_mgr.c **** 
 528              		.loc 1 474 29 discriminator 4
 529 012c B7070000 		lui	a5,%hi(.LANCHOR6)
 530 0130 93870700 		addi	a5,a5,%lo(.LANCHOR6)
 470:C:/Users/stapi/OneDrive/Desktop/GD32VW553/V1_MQTT_OK/GD32VW55X_Wifi_BLE_SDK/GD32VW55x_RELEASE_V1.0.2/MSDK/ble/app\app_adv_mgr.c ****         scan_rsp_data.p_data = bqb_scan_rsp_data_2;
 531              		.loc 1 470 27 discriminator 4
 532 0134 6D47     		li	a4,27
 474:C:/Users/stapi/OneDrive/Desktop/GD32VW553/V1_MQTT_OK/GD32VW55X_Wifi_BLE_SDK/GD32VW55x_RELEASE_V1.0.2/MSDK/ble/app\app_adv_mgr.c **** 
 533              		.loc 1 474 29 discriminator 4
 534 0136 2324F112 		sw	a5,296(sp)
 476:C:/Users/stapi/OneDrive/Desktop/GD32VW553/V1_MQTT_OK/GD32VW55X_Wifi_BLE_SDK/GD32VW55x_RELEASE_V1.0.2/MSDK/ble/app\app_adv_mgr.c ****         scan_rsp.data.p_data_force = &scan_rsp_data;
 535              		.loc 1 476 31 discriminator 4
 536 013a 7C09     		addi	a5,sp,156
 537 013c 3ED0     		sw	a5,32(sp)
 470:C:/Users/stapi/OneDrive/Desktop/GD32VW553/V1_MQTT_OK/GD32VW55X_Wifi_BLE_SDK/GD32VW55x_RELEASE_V1.0.2/MSDK/ble/app\app_adv_mgr.c ****         scan_rsp_data.p_data = bqb_scan_rsp_data_2;
 538              		.loc 1 470 27 discriminator 4
 539 013e 231EE10C 		sh	a4,220(sp)
 471:C:/Users/stapi/OneDrive/Desktop/GD32VW553/V1_MQTT_OK/GD32VW55X_Wifi_BLE_SDK/GD32VW55x_RELEASE_V1.0.2/MSDK/ble/app\app_adv_mgr.c **** 
 540              		.loc 1 471 9 is_stmt 1 discriminator 4
 473:C:/Users/stapi/OneDrive/Desktop/GD32VW553/V1_MQTT_OK/GD32VW55X_Wifi_BLE_SDK/GD32VW55x_RELEASE_V1.0.2/MSDK/ble/app\app_adv_mgr.c ****         per_adv_data.p_data = bqb_per_adv_data_2;
 541              		.loc 1 473 9 discriminator 4
 473:C:/Users/stapi/OneDrive/Desktop/GD32VW553/V1_MQTT_OK/GD32VW55X_Wifi_BLE_SDK/GD32VW55x_RELEASE_V1.0.2/MSDK/ble/app\app_adv_mgr.c ****         per_adv_data.p_data = bqb_per_adv_data_2;
 542              		.loc 1 473 26 is_stmt 0 discriminator 4
 543 0142 2316E112 		sh	a4,300(sp)
 474:C:/Users/stapi/OneDrive/Desktop/GD32VW553/V1_MQTT_OK/GD32VW55X_Wifi_BLE_SDK/GD32VW55x_RELEASE_V1.0.2/MSDK/ble/app\app_adv_mgr.c **** 
 544              		.loc 1 474 9 is_stmt 1 discriminator 4
 476:C:/Users/stapi/OneDrive/Desktop/GD32VW553/V1_MQTT_OK/GD32VW55X_Wifi_BLE_SDK/GD32VW55x_RELEASE_V1.0.2/MSDK/ble/app\app_adv_mgr.c ****         scan_rsp.data.p_data_force = &scan_rsp_data;
 545              		.loc 1 476 9 discriminator 4
 477:C:/Users/stapi/OneDrive/Desktop/GD32VW553/V1_MQTT_OK/GD32VW55X_Wifi_BLE_SDK/GD32VW55x_RELEASE_V1.0.2/MSDK/ble/app\app_adv_mgr.c ****         per_adv.data.p_data_force = &per_adv_data;
 546              		.loc 1 477 9 discriminator 4
 477:C:/Users/stapi/OneDrive/Desktop/GD32VW553/V1_MQTT_OK/GD32VW55X_Wifi_BLE_SDK/GD32VW55x_RELEASE_V1.0.2/MSDK/ble/app\app_adv_mgr.c ****         per_adv.data.p_data_force = &per_adv_data;
 547              		.loc 1 477 36 is_stmt 0 discriminator 4
 548 0146 BC09     		addi	a5,sp,216
 549 0148 2DB7     		j	.L54
 550              	.L29:
 551              	.LBE12:
 552              	.LBB13:
 485:C:/Users/stapi/OneDrive/Desktop/GD32VW553/V1_MQTT_OK/GD32VW55X_Wifi_BLE_SDK/GD32VW55x_RELEASE_V1.0.2/MSDK/ble/app\app_adv_mgr.c **** 
 553              		.loc 1 485 9 is_stmt 1 discriminator 5
 487:C:/Users/stapi/OneDrive/Desktop/GD32VW553/V1_MQTT_OK/GD32VW55X_Wifi_BLE_SDK/GD32VW55x_RELEASE_V1.0.2/MSDK/ble/app\app_adv_mgr.c ****         adv_data.p_data = bqb_adv_data_3;
 554              		.loc 1 487 9 discriminator 5
 487:C:/Users/stapi/OneDrive/Desktop/GD32VW553/V1_MQTT_OK/GD32VW55X_Wifi_BLE_SDK/GD32VW55x_RELEASE_V1.0.2/MSDK/ble/app\app_adv_mgr.c ****         adv_data.p_data = bqb_adv_data_3;
 555              		.loc 1 487 22 is_stmt 0 discriminator 5
 556 014a D947     		li	a5,22
 557 014c 2316F112 		sh	a5,300(sp)
 488:C:/Users/stapi/OneDrive/Desktop/GD32VW553/V1_MQTT_OK/GD32VW55X_Wifi_BLE_SDK/GD32VW55x_RELEASE_V1.0.2/MSDK/ble/app\app_adv_mgr.c **** 
 558              		.loc 1 488 9 is_stmt 1 discriminator 5
 488:C:/Users/stapi/OneDrive/Desktop/GD32VW553/V1_MQTT_OK/GD32VW55X_Wifi_BLE_SDK/GD32VW55x_RELEASE_V1.0.2/MSDK/ble/app\app_adv_mgr.c **** 
 559              		.loc 1 488 25 is_stmt 0 discriminator 5
 560 0150 B7070000 		lui	a5,%hi(.LANCHOR7)
 561 0154 93870700 		addi	a5,a5,%lo(.LANCHOR7)
 562 0158 59BF     		j	.L52
 563              	.L28:
 564              	.LBE13:
 565              	.LBB14:
 497:C:/Users/stapi/OneDrive/Desktop/GD32VW553/V1_MQTT_OK/GD32VW55X_Wifi_BLE_SDK/GD32VW55x_RELEASE_V1.0.2/MSDK/ble/app\app_adv_mgr.c **** 
 566              		.loc 1 497 9 is_stmt 1 discriminator 6
 499:C:/Users/stapi/OneDrive/Desktop/GD32VW553/V1_MQTT_OK/GD32VW55X_Wifi_BLE_SDK/GD32VW55x_RELEASE_V1.0.2/MSDK/ble/app\app_adv_mgr.c ****         adv_data.p_data = bqb_adv_data_4;
 567              		.loc 1 499 9 discriminator 6
 499:C:/Users/stapi/OneDrive/Desktop/GD32VW553/V1_MQTT_OK/GD32VW55X_Wifi_BLE_SDK/GD32VW55x_RELEASE_V1.0.2/MSDK/ble/app\app_adv_mgr.c ****         adv_data.p_data = bqb_adv_data_4;
 568              		.loc 1 499 22 is_stmt 0 discriminator 6
 569 015a F147     		li	a5,28
 570 015c 2316F112 		sh	a5,300(sp)
 500:C:/Users/stapi/OneDrive/Desktop/GD32VW553/V1_MQTT_OK/GD32VW55X_Wifi_BLE_SDK/GD32VW55x_RELEASE_V1.0.2/MSDK/ble/app\app_adv_mgr.c **** 
 571              		.loc 1 500 9 is_stmt 1 discriminator 6
 500:C:/Users/stapi/OneDrive/Desktop/GD32VW553/V1_MQTT_OK/GD32VW55X_Wifi_BLE_SDK/GD32VW55x_RELEASE_V1.0.2/MSDK/ble/app\app_adv_mgr.c **** 
 572              		.loc 1 500 25 is_stmt 0 discriminator 6
 573 0160 B7070000 		lui	a5,%hi(.LANCHOR8)
 574 0164 93870700 		addi	a5,a5,%lo(.LANCHOR8)
 575 0168 59B7     		j	.L52
 576              	.L27:
 577              	.LBE14:
 578              	.LBB15:
 509:C:/Users/stapi/OneDrive/Desktop/GD32VW553/V1_MQTT_OK/GD32VW55X_Wifi_BLE_SDK/GD32VW55x_RELEASE_V1.0.2/MSDK/ble/app\app_adv_mgr.c **** 
 579              		.loc 1 509 9 is_stmt 1 discriminator 7
 511:C:/Users/stapi/OneDrive/Desktop/GD32VW553/V1_MQTT_OK/GD32VW55X_Wifi_BLE_SDK/GD32VW55x_RELEASE_V1.0.2/MSDK/ble/app\app_adv_mgr.c ****         adv_data.p_data = adv_data_hogp;
 580              		.loc 1 511 9 discriminator 7
 511:C:/Users/stapi/OneDrive/Desktop/GD32VW553/V1_MQTT_OK/GD32VW55X_Wifi_BLE_SDK/GD32VW55x_RELEASE_V1.0.2/MSDK/ble/app\app_adv_mgr.c ****         adv_data.p_data = adv_data_hogp;
 581              		.loc 1 511 22 is_stmt 0 discriminator 7
 582 016a A147     		li	a5,8
 583 016c 2316F112 		sh	a5,300(sp)
 512:C:/Users/stapi/OneDrive/Desktop/GD32VW553/V1_MQTT_OK/GD32VW55X_Wifi_BLE_SDK/GD32VW55x_RELEASE_V1.0.2/MSDK/ble/app\app_adv_mgr.c **** 
 584              		.loc 1 512 9 is_stmt 1 discriminator 7
 512:C:/Users/stapi/OneDrive/Desktop/GD32VW553/V1_MQTT_OK/GD32VW55X_Wifi_BLE_SDK/GD32VW55x_RELEASE_V1.0.2/MSDK/ble/app\app_adv_mgr.c **** 
 585              		.loc 1 512 25 is_stmt 0 discriminator 7
 586 0170 B7070000 		lui	a5,%hi(.LANCHOR9)
 587 0174 93870700 		addi	a5,a5,%lo(.LANCHOR9)
 588 0178 9DBF     		j	.L52
 589              	.L25:
 590              	.LBE15:
 591              	.LBB16:
 522:C:/Users/stapi/OneDrive/Desktop/GD32VW553/V1_MQTT_OK/GD32VW55X_Wifi_BLE_SDK/GD32VW55x_RELEASE_V1.0.2/MSDK/ble/app\app_adv_mgr.c ****         int8_t tx_pwr = -80;
 592              		.loc 1 522 17
 593 017a 8567     		li	a5,4096
 594 017c 93870710 		addi	a5,a5,256
 595 0180 2318F100 		sh	a5,16(sp)
 596 0184 93072002 		li	a5,34
 597 0188 AA84     		mv	s1,a0
 521:C:/Users/stapi/OneDrive/Desktop/GD32VW553/V1_MQTT_OK/GD32VW55X_Wifi_BLE_SDK/GD32VW55x_RELEASE_V1.0.2/MSDK/ble/app\app_adv_mgr.c ****         uint8_t s_data[3] = {0x00, 0x11, 0x22};
 598              		.loc 1 521 9 is_stmt 1
 522:C:/Users/stapi/OneDrive/Desktop/GD32VW553/V1_MQTT_OK/GD32VW55X_Wifi_BLE_SDK/GD32VW55x_RELEASE_V1.0.2/MSDK/ble/app\app_adv_mgr.c ****         int8_t tx_pwr = -80;
 599              		.loc 1 522 9
 522:C:/Users/stapi/OneDrive/Desktop/GD32VW553/V1_MQTT_OK/GD32VW55X_Wifi_BLE_SDK/GD32VW55x_RELEASE_V1.0.2/MSDK/ble/app\app_adv_mgr.c ****         int8_t tx_pwr = -80;
 600              		.loc 1 522 17 is_stmt 0
 601 018a 2309F100 		sb	a5,18(sp)
 523:C:/Users/stapi/OneDrive/Desktop/GD32VW553/V1_MQTT_OK/GD32VW55X_Wifi_BLE_SDK/GD32VW55x_RELEASE_V1.0.2/MSDK/ble/app\app_adv_mgr.c ****         ble_adv_data_conn_intv_t slave_conn_intv;
 602              		.loc 1 523 9 is_stmt 1
 532:C:/Users/stapi/OneDrive/Desktop/GD32VW553/V1_MQTT_OK/GD32VW55X_Wifi_BLE_SDK/GD32VW55x_RELEASE_V1.0.2/MSDK/ble/app\app_adv_mgr.c **** 
 603              		.loc 1 532 9 is_stmt 0
 604 018e 13064004 		li	a2,68
 523:C:/Users/stapi/OneDrive/Desktop/GD32VW553/V1_MQTT_OK/GD32VW55X_Wifi_BLE_SDK/GD32VW55x_RELEASE_V1.0.2/MSDK/ble/app\app_adv_mgr.c ****         ble_adv_data_conn_intv_t slave_conn_intv;
 605              		.loc 1 523 16
 606 0192 930700FB 		li	a5,-80
 532:C:/Users/stapi/OneDrive/Desktop/GD32VW553/V1_MQTT_OK/GD32VW55X_Wifi_BLE_SDK/GD32VW55x_RELEASE_V1.0.2/MSDK/ble/app\app_adv_mgr.c **** 
 607              		.loc 1 532 9
 608 0196 8145     		li	a1,0
 609 0198 E809     		addi	a0,sp,220
 610              	.LVL50:
 523:C:/Users/stapi/OneDrive/Desktop/GD32VW553/V1_MQTT_OK/GD32VW55X_Wifi_BLE_SDK/GD32VW55x_RELEASE_V1.0.2/MSDK/ble/app\app_adv_mgr.c ****         ble_adv_data_conn_intv_t slave_conn_intv;
 611              		.loc 1 523 16
 612 019a A307F100 		sb	a5,15(sp)
 524:C:/Users/stapi/OneDrive/Desktop/GD32VW553/V1_MQTT_OK/GD32VW55X_Wifi_BLE_SDK/GD32VW55x_RELEASE_V1.0.2/MSDK/ble/app\app_adv_mgr.c ****         ble_adv_data_srv_data_t srv_data[2];
 613              		.loc 1 524 9 is_stmt 1
 525:C:/Users/stapi/OneDrive/Desktop/GD32VW553/V1_MQTT_OK/GD32VW55X_Wifi_BLE_SDK/GD32VW55x_RELEASE_V1.0.2/MSDK/ble/app\app_adv_mgr.c ****         ble_adv_data_manuf_data_t manuf_data;
 614              		.loc 1 525 9
 526:C:/Users/stapi/OneDrive/Desktop/GD32VW553/V1_MQTT_OK/GD32VW55X_Wifi_BLE_SDK/GD32VW55x_RELEASE_V1.0.2/MSDK/ble/app\app_adv_mgr.c ****         ble_uuid_t uuid_more[2];
 615              		.loc 1 526 9
 527:C:/Users/stapi/OneDrive/Desktop/GD32VW553/V1_MQTT_OK/GD32VW55X_Wifi_BLE_SDK/GD32VW55x_RELEASE_V1.0.2/MSDK/ble/app\app_adv_mgr.c ****         ble_uuid_t uuid_cmpl[3];
 616              		.loc 1 527 9
 528:C:/Users/stapi/OneDrive/Desktop/GD32VW553/V1_MQTT_OK/GD32VW55X_Wifi_BLE_SDK/GD32VW55x_RELEASE_V1.0.2/MSDK/ble/app\app_adv_mgr.c ****         ble_uuid_t uuid_solicited[6];
 617              		.loc 1 528 9
 529:C:/Users/stapi/OneDrive/Desktop/GD32VW553/V1_MQTT_OK/GD32VW55X_Wifi_BLE_SDK/GD32VW55x_RELEASE_V1.0.2/MSDK/ble/app\app_adv_mgr.c ****         ble_adv_data_t adv_data;
 618              		.loc 1 529 9
 530:C:/Users/stapi/OneDrive/Desktop/GD32VW553/V1_MQTT_OK/GD32VW55X_Wifi_BLE_SDK/GD32VW55x_RELEASE_V1.0.2/MSDK/ble/app\app_adv_mgr.c **** 
 619              		.loc 1 530 9
 532:C:/Users/stapi/OneDrive/Desktop/GD32VW553/V1_MQTT_OK/GD32VW55X_Wifi_BLE_SDK/GD32VW55x_RELEASE_V1.0.2/MSDK/ble/app\app_adv_mgr.c **** 
 620              		.loc 1 532 9
 621 019e 97000000 		call	memset
 621      E7800000 
 622              	.LVL51:
 534:C:/Users/stapi/OneDrive/Desktop/GD32VW553/V1_MQTT_OK/GD32VW55X_Wifi_BLE_SDK/GD32VW55x_RELEASE_V1.0.2/MSDK/ble/app\app_adv_mgr.c ****         adv_data.local_name.name_len = adp_name_length;
 623              		.loc 1 534 9
 536:C:/Users/stapi/OneDrive/Desktop/GD32VW553/V1_MQTT_OK/GD32VW55X_Wifi_BLE_SDK/GD32VW55x_RELEASE_V1.0.2/MSDK/ble/app\app_adv_mgr.c **** 
 624              		.loc 1 536 36 is_stmt 0
 625 01a6 D247     		lw	a5,20(sp)
 538:C:/Users/stapi/OneDrive/Desktop/GD32VW553/V1_MQTT_OK/GD32VW55X_Wifi_BLE_SDK/GD32VW55x_RELEASE_V1.0.2/MSDK/ble/app\app_adv_mgr.c ****             adv_data.flags = BLE_GAP_ADV_FLAG_LE_ONLY_LIMITED_DISC_MODE;
 626              		.loc 1 538 12
 627 01a8 83468400 		lbu	a3,8(s0)
 534:C:/Users/stapi/OneDrive/Desktop/GD32VW553/V1_MQTT_OK/GD32VW55X_Wifi_BLE_SDK/GD32VW55x_RELEASE_V1.0.2/MSDK/ble/app\app_adv_mgr.c ****         adv_data.local_name.name_len = adp_name_length;
 628              		.loc 1 534 34
 629 01ac 0947     		li	a4,2
 536:C:/Users/stapi/OneDrive/Desktop/GD32VW553/V1_MQTT_OK/GD32VW55X_Wifi_BLE_SDK/GD32VW55x_RELEASE_V1.0.2/MSDK/ble/app\app_adv_mgr.c **** 
 630              		.loc 1 536 36
 631 01ae BED1     		sw	a5,224(sp)
 534:C:/Users/stapi/OneDrive/Desktop/GD32VW553/V1_MQTT_OK/GD32VW55X_Wifi_BLE_SDK/GD32VW55x_RELEASE_V1.0.2/MSDK/ble/app\app_adv_mgr.c ****         adv_data.local_name.name_len = adp_name_length;
 632              		.loc 1 534 34
 633 01b0 BACD     		sw	a4,216(sp)
 535:C:/Users/stapi/OneDrive/Desktop/GD32VW553/V1_MQTT_OK/GD32VW55X_Wifi_BLE_SDK/GD32VW55x_RELEASE_V1.0.2/MSDK/ble/app\app_adv_mgr.c ****         adv_data.local_name.p_name = (uint8_t *)p_adp_name;
 634              		.loc 1 535 9 is_stmt 1
 535:C:/Users/stapi/OneDrive/Desktop/GD32VW553/V1_MQTT_OK/GD32VW55X_Wifi_BLE_SDK/GD32VW55x_RELEASE_V1.0.2/MSDK/ble/app\app_adv_mgr.c ****         adv_data.local_name.p_name = (uint8_t *)p_adp_name;
 635              		.loc 1 535 38 is_stmt 0
 636 01b2 230E910C 		sb	s1,220(sp)
 536:C:/Users/stapi/OneDrive/Desktop/GD32VW553/V1_MQTT_OK/GD32VW55X_Wifi_BLE_SDK/GD32VW55x_RELEASE_V1.0.2/MSDK/ble/app\app_adv_mgr.c **** 
 637              		.loc 1 536 9 is_stmt 1
 538:C:/Users/stapi/OneDrive/Desktop/GD32VW553/V1_MQTT_OK/GD32VW55X_Wifi_BLE_SDK/GD32VW55x_RELEASE_V1.0.2/MSDK/ble/app\app_adv_mgr.c ****             adv_data.flags = BLE_GAP_ADV_FLAG_LE_ONLY_LIMITED_DISC_MODE;
 638              		.loc 1 538 9
 539:C:/Users/stapi/OneDrive/Desktop/GD32VW553/V1_MQTT_OK/GD32VW55X_Wifi_BLE_SDK/GD32VW55x_RELEASE_V1.0.2/MSDK/ble/app\app_adv_mgr.c ****         }
 639              		.loc 1 539 28 is_stmt 0
 640 01b6 9547     		li	a5,5
 538:C:/Users/stapi/OneDrive/Desktop/GD32VW553/V1_MQTT_OK/GD32VW55X_Wifi_BLE_SDK/GD32VW55x_RELEASE_V1.0.2/MSDK/ble/app\app_adv_mgr.c ****             adv_data.flags = BLE_GAP_ADV_FLAG_LE_ONLY_LIMITED_DISC_MODE;
 641              		.loc 1 538 12
 642 01b8 6383E600 		beq	a3,a4,.L36
 543:C:/Users/stapi/OneDrive/Desktop/GD32VW553/V1_MQTT_OK/GD32VW55X_Wifi_BLE_SDK/GD32VW55x_RELEASE_V1.0.2/MSDK/ble/app\app_adv_mgr.c ****         }
 643              		.loc 1 543 28
 644 01bc 9947     		li	a5,6
 645              	.L36:
 646 01be 2302F10E 		sb	a5,228(sp)
 546:C:/Users/stapi/OneDrive/Desktop/GD32VW553/V1_MQTT_OK/GD32VW55X_Wifi_BLE_SDK/GD32VW55x_RELEASE_V1.0.2/MSDK/ble/app\app_adv_mgr.c ****         adv_data.p_tx_pwr = &tx_pwr;
 647              		.loc 1 546 9 is_stmt 1
 546:C:/Users/stapi/OneDrive/Desktop/GD32VW553/V1_MQTT_OK/GD32VW55X_Wifi_BLE_SDK/GD32VW55x_RELEASE_V1.0.2/MSDK/ble/app\app_adv_mgr.c ****         adv_data.p_tx_pwr = &tx_pwr;
 648              		.loc 1 546 29 is_stmt 0
 649 01c2 93070018 		li	a5,384
 650 01c6 2313F10E 		sh	a5,230(sp)
 547:C:/Users/stapi/OneDrive/Desktop/GD32VW553/V1_MQTT_OK/GD32VW55X_Wifi_BLE_SDK/GD32VW55x_RELEASE_V1.0.2/MSDK/ble/app\app_adv_mgr.c **** 
 651              		.loc 1 547 9 is_stmt 1
 547:C:/Users/stapi/OneDrive/Desktop/GD32VW553/V1_MQTT_OK/GD32VW55X_Wifi_BLE_SDK/GD32VW55x_RELEASE_V1.0.2/MSDK/ble/app\app_adv_mgr.c **** 
 652              		.loc 1 547 27 is_stmt 0
 653 01ca 9307F100 		addi	a5,sp,15
 654 01ce BED5     		sw	a5,232(sp)
 549:C:/Users/stapi/OneDrive/Desktop/GD32VW553/V1_MQTT_OK/GD32VW55X_Wifi_BLE_SDK/GD32VW55x_RELEASE_V1.0.2/MSDK/ble/app\app_adv_mgr.c ****         adv_data.p_rand_tgt_addr = p_adv->peer_addr.addr;
 655              		.loc 1 549 9 is_stmt 1
 549:C:/Users/stapi/OneDrive/Desktop/GD32VW553/V1_MQTT_OK/GD32VW55X_Wifi_BLE_SDK/GD32VW55x_RELEASE_V1.0.2/MSDK/ble/app\app_adv_mgr.c ****         adv_data.p_rand_tgt_addr = p_adv->peer_addr.addr;
 656              		.loc 1 549 35 is_stmt 0
 657 01d0 9307E400 		addi	a5,s0,14
 549:C:/Users/stapi/OneDrive/Desktop/GD32VW553/V1_MQTT_OK/GD32VW55X_Wifi_BLE_SDK/GD32VW55x_RELEASE_V1.0.2/MSDK/ble/app\app_adv_mgr.c ****         adv_data.p_rand_tgt_addr = p_adv->peer_addr.addr;
 658              		.loc 1 549 33
 659 01d4 2320F112 		sw	a5,288(sp)
 550:C:/Users/stapi/OneDrive/Desktop/GD32VW553/V1_MQTT_OK/GD32VW55X_Wifi_BLE_SDK/GD32VW55x_RELEASE_V1.0.2/MSDK/ble/app\app_adv_mgr.c **** 
 660              		.loc 1 550 9 is_stmt 1
 550:C:/Users/stapi/OneDrive/Desktop/GD32VW553/V1_MQTT_OK/GD32VW55X_Wifi_BLE_SDK/GD32VW55x_RELEASE_V1.0.2/MSDK/ble/app\app_adv_mgr.c **** 
 661              		.loc 1 550 34 is_stmt 0
 662 01d8 2322F112 		sw	a5,292(sp)
 552:C:/Users/stapi/OneDrive/Desktop/GD32VW553/V1_MQTT_OK/GD32VW55X_Wifi_BLE_SDK/GD32VW55x_RELEASE_V1.0.2/MSDK/ble/app\app_adv_mgr.c **** 
 663              		.loc 1 552 9 is_stmt 1
 552:C:/Users/stapi/OneDrive/Desktop/GD32VW553/V1_MQTT_OK/GD32VW55X_Wifi_BLE_SDK/GD32VW55x_RELEASE_V1.0.2/MSDK/ble/app\app_adv_mgr.c **** 
 664              		.loc 1 552 27 is_stmt 0
 665 01dc 9307000A 		li	a5,160
 666 01e0 231AF110 		sh	a5,276(sp)
 554:C:/Users/stapi/OneDrive/Desktop/GD32VW553/V1_MQTT_OK/GD32VW55X_Wifi_BLE_SDK/GD32VW55x_RELEASE_V1.0.2/MSDK/ble/app\app_adv_mgr.c ****         slave_conn_intv.max_conn_intv = 0x0100;
 667              		.loc 1 554 9 is_stmt 1
 555:C:/Users/stapi/OneDrive/Desktop/GD32VW553/V1_MQTT_OK/GD32VW55X_Wifi_BLE_SDK/GD32VW55x_RELEASE_V1.0.2/MSDK/ble/app\app_adv_mgr.c ****         adv_data.p_slave_conn_intv = &slave_conn_intv;
 668              		.loc 1 555 9
 554:C:/Users/stapi/OneDrive/Desktop/GD32VW553/V1_MQTT_OK/GD32VW55X_Wifi_BLE_SDK/GD32VW55x_RELEASE_V1.0.2/MSDK/ble/app\app_adv_mgr.c ****         slave_conn_intv.max_conn_intv = 0x0100;
 669              		.loc 1 554 39 is_stmt 0
 670 01e4 B7070001 		li	a5,16777216
 671 01e8 C107     		addi	a5,a5,16
 672 01ea 3ECC     		sw	a5,24(sp)
 556:C:/Users/stapi/OneDrive/Desktop/GD32VW553/V1_MQTT_OK/GD32VW55X_Wifi_BLE_SDK/GD32VW55x_RELEASE_V1.0.2/MSDK/ble/app\app_adv_mgr.c **** 
 673              		.loc 1 556 9 is_stmt 1
 556:C:/Users/stapi/OneDrive/Desktop/GD32VW553/V1_MQTT_OK/GD32VW55X_Wifi_BLE_SDK/GD32VW55x_RELEASE_V1.0.2/MSDK/ble/app\app_adv_mgr.c **** 
 674              		.loc 1 556 36 is_stmt 0
 675 01ec 3C08     		addi	a5,sp,24
 676 01ee 2322F110 		sw	a5,260(sp)
 558:C:/Users/stapi/OneDrive/Desktop/GD32VW553/V1_MQTT_OK/GD32VW55X_Wifi_BLE_SDK/GD32VW55x_RELEASE_V1.0.2/MSDK/ble/app\app_adv_mgr.c ****         uuid_more[0].data.uuid_16 = 0x1234;
 677              		.loc 1 558 9 is_stmt 1
 559:C:/Users/stapi/OneDrive/Desktop/GD32VW553/V1_MQTT_OK/GD32VW55X_Wifi_BLE_SDK/GD32VW55x_RELEASE_V1.0.2/MSDK/ble/app\app_adv_mgr.c ****         uuid_more[1].type = BLE_UUID_TYPE_16;
 678              		.loc 1 559 35 is_stmt 0
 679 01f2 8567     		li	a5,4096
 680 01f4 93874723 		addi	a5,a5,564
 561:C:/Users/stapi/OneDrive/Desktop/GD32VW553/V1_MQTT_OK/GD32VW55X_Wifi_BLE_SDK/GD32VW55x_RELEASE_V1.0.2/MSDK/ble/app\app_adv_mgr.c ****         adv_data.uuid_more_available.uuid_cnt = 2;
 681              		.loc 1 561 35
 682 01f8 1567     		li	a4,20480
 683 01fa 13078767 		addi	a4,a4,1656
 559:C:/Users/stapi/OneDrive/Desktop/GD32VW553/V1_MQTT_OK/GD32VW55X_Wifi_BLE_SDK/GD32VW55x_RELEASE_V1.0.2/MSDK/ble/app\app_adv_mgr.c ****         uuid_more[1].type = BLE_UUID_TYPE_16;
 684              		.loc 1 559 35
 685 01fe 2310F104 		sh	a5,64(sp)
 566:C:/Users/stapi/OneDrive/Desktop/GD32VW553/V1_MQTT_OK/GD32VW55X_Wifi_BLE_SDK/GD32VW55x_RELEASE_V1.0.2/MSDK/ble/app\app_adv_mgr.c ****         uuid_cmpl[1].type = BLE_UUID_TYPE_32;
 686              		.loc 1 566 35
 687 0202 2310F10A 		sh	a5,160(sp)
 567:C:/Users/stapi/OneDrive/Desktop/GD32VW553/V1_MQTT_OK/GD32VW55X_Wifi_BLE_SDK/GD32VW55x_RELEASE_V1.0.2/MSDK/ble/app\app_adv_mgr.c ****         uuid_cmpl[1].data.uuid_32 = 0x56789ABC;
 688              		.loc 1 567 27
 689 0206 8547     		li	a5,1
 561:C:/Users/stapi/OneDrive/Desktop/GD32VW553/V1_MQTT_OK/GD32VW55X_Wifi_BLE_SDK/GD32VW55x_RELEASE_V1.0.2/MSDK/ble/app\app_adv_mgr.c ****         adv_data.uuid_more_available.uuid_cnt = 2;
 690              		.loc 1 561 35
 691 0208 231AE104 		sh	a4,84(sp)
 567:C:/Users/stapi/OneDrive/Desktop/GD32VW553/V1_MQTT_OK/GD32VW55X_Wifi_BLE_SDK/GD32VW55x_RELEASE_V1.0.2/MSDK/ble/app\app_adv_mgr.c ****         uuid_cmpl[1].data.uuid_32 = 0x56789ABC;
 692              		.loc 1 567 27
 693 020c 3ED9     		sw	a5,176(sp)
 562:C:/Users/stapi/OneDrive/Desktop/GD32VW553/V1_MQTT_OK/GD32VW55X_Wifi_BLE_SDK/GD32VW55x_RELEASE_V1.0.2/MSDK/ble/app\app_adv_mgr.c ****         adv_data.uuid_more_available.p_uuid = uuid_more;
 694              		.loc 1 562 47
 695 020e 0947     		li	a4,2
 568:C:/Users/stapi/OneDrive/Desktop/GD32VW553/V1_MQTT_OK/GD32VW55X_Wifi_BLE_SDK/GD32VW55x_RELEASE_V1.0.2/MSDK/ble/app\app_adv_mgr.c ****         uuid_cmpl[2].type = BLE_UUID_TYPE_128;
 696              		.loc 1 568 35
 697 0210 B7A77856 		li	a5,1450745856
 563:C:/Users/stapi/OneDrive/Desktop/GD32VW553/V1_MQTT_OK/GD32VW55X_Wifi_BLE_SDK/GD32VW55x_RELEASE_V1.0.2/MSDK/ble/app\app_adv_mgr.c **** 
 698              		.loc 1 563 45
 699 0214 7418     		addi	a3,sp,60
 568:C:/Users/stapi/OneDrive/Desktop/GD32VW553/V1_MQTT_OK/GD32VW55X_Wifi_BLE_SDK/GD32VW55x_RELEASE_V1.0.2/MSDK/ble/app\app_adv_mgr.c ****         uuid_cmpl[2].type = BLE_UUID_TYPE_128;
 700              		.loc 1 568 35
 701 0216 9387C7AB 		addi	a5,a5,-1348
 562:C:/Users/stapi/OneDrive/Desktop/GD32VW553/V1_MQTT_OK/GD32VW55X_Wifi_BLE_SDK/GD32VW55x_RELEASE_V1.0.2/MSDK/ble/app\app_adv_mgr.c ****         adv_data.uuid_more_available.p_uuid = uuid_more;
 702              		.loc 1 562 47
 703 021a 2316E10E 		sh	a4,236(sp)
 569:C:/Users/stapi/OneDrive/Desktop/GD32VW553/V1_MQTT_OK/GD32VW55X_Wifi_BLE_SDK/GD32VW55x_RELEASE_V1.0.2/MSDK/ble/app\app_adv_mgr.c ****         for (i = 0; i < 16; i++) {
 704              		.loc 1 569 27
 705 021e BAC3     		sw	a4,196(sp)
 706 0220 7809     		addi	a4,sp,156
 563:C:/Users/stapi/OneDrive/Desktop/GD32VW553/V1_MQTT_OK/GD32VW55X_Wifi_BLE_SDK/GD32VW55x_RELEASE_V1.0.2/MSDK/ble/app\app_adv_mgr.c **** 
 707              		.loc 1 563 45
 708 0222 B6D9     		sw	a3,240(sp)
 568:C:/Users/stapi/OneDrive/Desktop/GD32VW553/V1_MQTT_OK/GD32VW55X_Wifi_BLE_SDK/GD32VW55x_RELEASE_V1.0.2/MSDK/ble/app\app_adv_mgr.c ****         uuid_cmpl[2].type = BLE_UUID_TYPE_128;
 709              		.loc 1 568 35
 710 0224 3EDB     		sw	a5,180(sp)
 558:C:/Users/stapi/OneDrive/Desktop/GD32VW553/V1_MQTT_OK/GD32VW55X_Wifi_BLE_SDK/GD32VW55x_RELEASE_V1.0.2/MSDK/ble/app\app_adv_mgr.c ****         uuid_more[0].data.uuid_16 = 0x1234;
 711              		.loc 1 558 27
 712 0226 02DE     		sw	zero,60(sp)
 559:C:/Users/stapi/OneDrive/Desktop/GD32VW553/V1_MQTT_OK/GD32VW55X_Wifi_BLE_SDK/GD32VW55x_RELEASE_V1.0.2/MSDK/ble/app\app_adv_mgr.c ****         uuid_more[1].type = BLE_UUID_TYPE_16;
 713              		.loc 1 559 9 is_stmt 1
 560:C:/Users/stapi/OneDrive/Desktop/GD32VW553/V1_MQTT_OK/GD32VW55X_Wifi_BLE_SDK/GD32VW55x_RELEASE_V1.0.2/MSDK/ble/app\app_adv_mgr.c ****         uuid_more[1].data.uuid_16 = 0x5678;
 714              		.loc 1 560 9
 560:C:/Users/stapi/OneDrive/Desktop/GD32VW553/V1_MQTT_OK/GD32VW55X_Wifi_BLE_SDK/GD32VW55x_RELEASE_V1.0.2/MSDK/ble/app\app_adv_mgr.c ****         uuid_more[1].data.uuid_16 = 0x5678;
 715              		.loc 1 560 27 is_stmt 0
 716 0228 82C8     		sw	zero,80(sp)
 561:C:/Users/stapi/OneDrive/Desktop/GD32VW553/V1_MQTT_OK/GD32VW55X_Wifi_BLE_SDK/GD32VW55x_RELEASE_V1.0.2/MSDK/ble/app\app_adv_mgr.c ****         adv_data.uuid_more_available.uuid_cnt = 2;
 717              		.loc 1 561 9 is_stmt 1
 562:C:/Users/stapi/OneDrive/Desktop/GD32VW553/V1_MQTT_OK/GD32VW55X_Wifi_BLE_SDK/GD32VW55x_RELEASE_V1.0.2/MSDK/ble/app\app_adv_mgr.c ****         adv_data.uuid_more_available.p_uuid = uuid_more;
 718              		.loc 1 562 9
 563:C:/Users/stapi/OneDrive/Desktop/GD32VW553/V1_MQTT_OK/GD32VW55X_Wifi_BLE_SDK/GD32VW55x_RELEASE_V1.0.2/MSDK/ble/app\app_adv_mgr.c **** 
 719              		.loc 1 563 9
 565:C:/Users/stapi/OneDrive/Desktop/GD32VW553/V1_MQTT_OK/GD32VW55X_Wifi_BLE_SDK/GD32VW55x_RELEASE_V1.0.2/MSDK/ble/app\app_adv_mgr.c ****         uuid_cmpl[0].data.uuid_16 = 0x1234;
 720              		.loc 1 565 9
 565:C:/Users/stapi/OneDrive/Desktop/GD32VW553/V1_MQTT_OK/GD32VW55X_Wifi_BLE_SDK/GD32VW55x_RELEASE_V1.0.2/MSDK/ble/app\app_adv_mgr.c ****         uuid_cmpl[0].data.uuid_16 = 0x1234;
 721              		.loc 1 565 27 is_stmt 0
 722 022a 02CF     		sw	zero,156(sp)
 566:C:/Users/stapi/OneDrive/Desktop/GD32VW553/V1_MQTT_OK/GD32VW55X_Wifi_BLE_SDK/GD32VW55x_RELEASE_V1.0.2/MSDK/ble/app\app_adv_mgr.c ****         uuid_cmpl[1].type = BLE_UUID_TYPE_32;
 723              		.loc 1 566 9 is_stmt 1
 567:C:/Users/stapi/OneDrive/Desktop/GD32VW553/V1_MQTT_OK/GD32VW55X_Wifi_BLE_SDK/GD32VW55x_RELEASE_V1.0.2/MSDK/ble/app\app_adv_mgr.c ****         uuid_cmpl[1].data.uuid_32 = 0x56789ABC;
 724              		.loc 1 567 9
 568:C:/Users/stapi/OneDrive/Desktop/GD32VW553/V1_MQTT_OK/GD32VW55X_Wifi_BLE_SDK/GD32VW55x_RELEASE_V1.0.2/MSDK/ble/app\app_adv_mgr.c ****         uuid_cmpl[2].type = BLE_UUID_TYPE_128;
 725              		.loc 1 568 9
 569:C:/Users/stapi/OneDrive/Desktop/GD32VW553/V1_MQTT_OK/GD32VW55X_Wifi_BLE_SDK/GD32VW55x_RELEASE_V1.0.2/MSDK/ble/app\app_adv_mgr.c ****         for (i = 0; i < 16; i++) {
 726              		.loc 1 569 9
 570:C:/Users/stapi/OneDrive/Desktop/GD32VW553/V1_MQTT_OK/GD32VW55X_Wifi_BLE_SDK/GD32VW55x_RELEASE_V1.0.2/MSDK/ble/app\app_adv_mgr.c ****             uuid_cmpl[2].data.uuid_128[i] = i;
 727              		.loc 1 570 9
 728              	.LVL52:
 570:C:/Users/stapi/OneDrive/Desktop/GD32VW553/V1_MQTT_OK/GD32VW55X_Wifi_BLE_SDK/GD32VW55x_RELEASE_V1.0.2/MSDK/ble/app\app_adv_mgr.c ****             uuid_cmpl[2].data.uuid_128[i] = i;
 729              		.loc 1 570 21
 570:C:/Users/stapi/OneDrive/Desktop/GD32VW553/V1_MQTT_OK/GD32VW55X_Wifi_BLE_SDK/GD32VW55x_RELEASE_V1.0.2/MSDK/ble/app\app_adv_mgr.c ****             uuid_cmpl[2].data.uuid_128[i] = i;
 730              		.loc 1 570 16 is_stmt 0
 731 022c 8147     		li	a5,0
 732 022e BA86     		mv	a3,a4
 570:C:/Users/stapi/OneDrive/Desktop/GD32VW553/V1_MQTT_OK/GD32VW55X_Wifi_BLE_SDK/GD32VW55x_RELEASE_V1.0.2/MSDK/ble/app\app_adv_mgr.c ****             uuid_cmpl[2].data.uuid_128[i] = i;
 733              		.loc 1 570 9
 734 0230 4146     		li	a2,16
 735              	.LVL53:
 736              	.L37:
 571:C:/Users/stapi/OneDrive/Desktop/GD32VW553/V1_MQTT_OK/GD32VW55X_Wifi_BLE_SDK/GD32VW55x_RELEASE_V1.0.2/MSDK/ble/app\app_adv_mgr.c ****         }
 737              		.loc 1 571 13 is_stmt 1 discriminator 3
 571:C:/Users/stapi/OneDrive/Desktop/GD32VW553/V1_MQTT_OK/GD32VW55X_Wifi_BLE_SDK/GD32VW55x_RELEASE_V1.0.2/MSDK/ble/app\app_adv_mgr.c ****         }
 738              		.loc 1 571 43 is_stmt 0 discriminator 3
 739 0232 2306F702 		sb	a5,44(a4)
 570:C:/Users/stapi/OneDrive/Desktop/GD32VW553/V1_MQTT_OK/GD32VW55X_Wifi_BLE_SDK/GD32VW55x_RELEASE_V1.0.2/MSDK/ble/app\app_adv_mgr.c ****             uuid_cmpl[2].data.uuid_128[i] = i;
 740              		.loc 1 570 29 is_stmt 1 discriminator 3
 570:C:/Users/stapi/OneDrive/Desktop/GD32VW553/V1_MQTT_OK/GD32VW55X_Wifi_BLE_SDK/GD32VW55x_RELEASE_V1.0.2/MSDK/ble/app\app_adv_mgr.c ****             uuid_cmpl[2].data.uuid_128[i] = i;
 741              		.loc 1 570 30 is_stmt 0 discriminator 3
 742 0236 8507     		addi	a5,a5,1
 743              	.LVL54:
 744 0238 93F7F70F 		andi	a5,a5,0xff
 745              	.LVL55:
 570:C:/Users/stapi/OneDrive/Desktop/GD32VW553/V1_MQTT_OK/GD32VW55X_Wifi_BLE_SDK/GD32VW55x_RELEASE_V1.0.2/MSDK/ble/app\app_adv_mgr.c ****             uuid_cmpl[2].data.uuid_128[i] = i;
 746              		.loc 1 570 21 is_stmt 1 discriminator 3
 570:C:/Users/stapi/OneDrive/Desktop/GD32VW553/V1_MQTT_OK/GD32VW55X_Wifi_BLE_SDK/GD32VW55x_RELEASE_V1.0.2/MSDK/ble/app\app_adv_mgr.c ****             uuid_cmpl[2].data.uuid_128[i] = i;
 747              		.loc 1 570 9 is_stmt 0 discriminator 3
 748 023c 0507     		addi	a4,a4,1
 749 023e E39AC7FE 		bne	a5,a2,.L37
 573:C:/Users/stapi/OneDrive/Desktop/GD32VW553/V1_MQTT_OK/GD32VW55X_Wifi_BLE_SDK/GD32VW55x_RELEASE_V1.0.2/MSDK/ble/app\app_adv_mgr.c ****         adv_data.uuid_complete.p_uuid = uuid_cmpl;
 750              		.loc 1 573 9 is_stmt 1 discriminator 8
 577:C:/Users/stapi/OneDrive/Desktop/GD32VW553/V1_MQTT_OK/GD32VW55X_Wifi_BLE_SDK/GD32VW55x_RELEASE_V1.0.2/MSDK/ble/app\app_adv_mgr.c ****         uuid_solicited[1].type = BLE_UUID_TYPE_32;
 751              		.loc 1 577 40 is_stmt 0 discriminator 8
 752 0242 0567     		li	a4,4096
 574:C:/Users/stapi/OneDrive/Desktop/GD32VW553/V1_MQTT_OK/GD32VW55X_Wifi_BLE_SDK/GD32VW55x_RELEASE_V1.0.2/MSDK/ble/app\app_adv_mgr.c **** 
 753              		.loc 1 574 39 discriminator 8
 754 0244 B6DD     		sw	a3,248(sp)
 579:C:/Users/stapi/OneDrive/Desktop/GD32VW553/V1_MQTT_OK/GD32VW55X_Wifi_BLE_SDK/GD32VW55x_RELEASE_V1.0.2/MSDK/ble/app\app_adv_mgr.c ****         uuid_solicited[2].type = BLE_UUID_TYPE_16;
 755              		.loc 1 579 40 discriminator 8
 756 0246 B7362211 		li	a3,287453184
 577:C:/Users/stapi/OneDrive/Desktop/GD32VW553/V1_MQTT_OK/GD32VW55X_Wifi_BLE_SDK/GD32VW55x_RELEASE_V1.0.2/MSDK/ble/app\app_adv_mgr.c ****         uuid_solicited[1].type = BLE_UUID_TYPE_32;
 757              		.loc 1 577 40 discriminator 8
 758 024a 93074723 		addi	a5,a4,564
 759              	.LVL56:
 579:C:/Users/stapi/OneDrive/Desktop/GD32VW553/V1_MQTT_OK/GD32VW55X_Wifi_BLE_SDK/GD32VW55x_RELEASE_V1.0.2/MSDK/ble/app\app_adv_mgr.c ****         uuid_solicited[2].type = BLE_UUID_TYPE_16;
 760              		.loc 1 579 40 discriminator 8
 761 024e 93864634 		addi	a3,a3,836
 577:C:/Users/stapi/OneDrive/Desktop/GD32VW553/V1_MQTT_OK/GD32VW55X_Wifi_BLE_SDK/GD32VW55x_RELEASE_V1.0.2/MSDK/ble/app\app_adv_mgr.c ****         uuid_solicited[1].type = BLE_UUID_TYPE_32;
 762              		.loc 1 577 40 discriminator 8
 763 0252 2316F112 		sh	a5,300(sp)
 579:C:/Users/stapi/OneDrive/Desktop/GD32VW553/V1_MQTT_OK/GD32VW55X_Wifi_BLE_SDK/GD32VW55x_RELEASE_V1.0.2/MSDK/ble/app\app_adv_mgr.c ****         uuid_solicited[2].type = BLE_UUID_TYPE_16;
 764              		.loc 1 579 40 discriminator 8
 765 0256 2320D114 		sw	a3,320(sp)
 578:C:/Users/stapi/OneDrive/Desktop/GD32VW553/V1_MQTT_OK/GD32VW55X_Wifi_BLE_SDK/GD32VW55x_RELEASE_V1.0.2/MSDK/ble/app\app_adv_mgr.c ****         uuid_solicited[1].data.uuid_32 = 0x11223344;
 766              		.loc 1 578 32 discriminator 8
 767 025a 8547     		li	a5,1
 581:C:/Users/stapi/OneDrive/Desktop/GD32VW553/V1_MQTT_OK/GD32VW55X_Wifi_BLE_SDK/GD32VW55x_RELEASE_V1.0.2/MSDK/ble/app\app_adv_mgr.c ****         uuid_solicited[3].type = BLE_UUID_TYPE_32;
 768              		.loc 1 581 40 discriminator 8
 769 025c 9566     		li	a3,20480
 770 025e 93868667 		addi	a3,a3,1656
 578:C:/Users/stapi/OneDrive/Desktop/GD32VW553/V1_MQTT_OK/GD32VW55X_Wifi_BLE_SDK/GD32VW55x_RELEASE_V1.0.2/MSDK/ble/app\app_adv_mgr.c ****         uuid_solicited[1].data.uuid_32 = 0x11223344;
 771              		.loc 1 578 32 discriminator 8
 772 0262 232EF112 		sw	a5,316(sp)
 582:C:/Users/stapi/OneDrive/Desktop/GD32VW553/V1_MQTT_OK/GD32VW55X_Wifi_BLE_SDK/GD32VW55x_RELEASE_V1.0.2/MSDK/ble/app\app_adv_mgr.c ****         uuid_solicited[3].data.uuid_32 = 0x55667788;
 773              		.loc 1 582 32 discriminator 8
 774 0266 2322F116 		sw	a5,356(sp)
 586:C:/Users/stapi/OneDrive/Desktop/GD32VW553/V1_MQTT_OK/GD32VW55X_Wifi_BLE_SDK/GD32VW55x_RELEASE_V1.0.2/MSDK/ble/app\app_adv_mgr.c ****         uuid_solicited[5].data.uuid_32 = 0xAABBCCDD;
 775              		.loc 1 586 32 discriminator 8
 776 026a 2326F118 		sw	a5,396(sp)
 595:C:/Users/stapi/OneDrive/Desktop/GD32VW553/V1_MQTT_OK/GD32VW55X_Wifi_BLE_SDK/GD32VW55x_RELEASE_V1.0.2/MSDK/ble/app\app_adv_mgr.c ****         srv_data[1].uuid.data.uuid_32 = 0x12345678;
 777              		.loc 1 595 31 discriminator 8
 778 026e 3EC1     		sw	a5,128(sp)
 596:C:/Users/stapi/OneDrive/Desktop/GD32VW553/V1_MQTT_OK/GD32VW55X_Wifi_BLE_SDK/GD32VW55x_RELEASE_V1.0.2/MSDK/ble/app\app_adv_mgr.c ****         srv_data[1].data_len = 3;
 779              		.loc 1 596 39 discriminator 8
 780 0270 B7573412 		li	a5,305418240
 781 0274 93878767 		addi	a5,a5,1656
 581:C:/Users/stapi/OneDrive/Desktop/GD32VW553/V1_MQTT_OK/GD32VW55X_Wifi_BLE_SDK/GD32VW55x_RELEASE_V1.0.2/MSDK/ble/app\app_adv_mgr.c ****         uuid_solicited[3].type = BLE_UUID_TYPE_32;
 782              		.loc 1 581 40 discriminator 8
 783 0278 231AD114 		sh	a3,340(sp)
 583:C:/Users/stapi/OneDrive/Desktop/GD32VW553/V1_MQTT_OK/GD32VW55X_Wifi_BLE_SDK/GD32VW55x_RELEASE_V1.0.2/MSDK/ble/app\app_adv_mgr.c ****         uuid_solicited[4].type = BLE_UUID_TYPE_16;
 784              		.loc 1 583 40 discriminator 8
 785 027c B7766655 		li	a3,1432776704
 786 0280 93868678 		addi	a3,a3,1928
 596:C:/Users/stapi/OneDrive/Desktop/GD32VW553/V1_MQTT_OK/GD32VW55X_Wifi_BLE_SDK/GD32VW55x_RELEASE_V1.0.2/MSDK/ble/app\app_adv_mgr.c ****         srv_data[1].data_len = 3;
 787              		.loc 1 596 39 discriminator 8
 788 0284 3EC3     		sw	a5,132(sp)
 598:C:/Users/stapi/OneDrive/Desktop/GD32VW553/V1_MQTT_OK/GD32VW55X_Wifi_BLE_SDK/GD32VW55x_RELEASE_V1.0.2/MSDK/ble/app\app_adv_mgr.c ****         adv_data.srv_data.cnt = 2;
 789              		.loc 1 598 28 discriminator 8
 790 0286 1C08     		addi	a5,sp,16
 592:C:/Users/stapi/OneDrive/Desktop/GD32VW553/V1_MQTT_OK/GD32VW55X_Wifi_BLE_SDK/GD32VW55x_RELEASE_V1.0.2/MSDK/ble/app\app_adv_mgr.c ****         srv_data[0].data_len = 8;
 791              		.loc 1 592 39 discriminator 8
 792 0288 13079719 		addi	a4,a4,409
 583:C:/Users/stapi/OneDrive/Desktop/GD32VW553/V1_MQTT_OK/GD32VW55X_Wifi_BLE_SDK/GD32VW55x_RELEASE_V1.0.2/MSDK/ble/app\app_adv_mgr.c ****         uuid_solicited[4].type = BLE_UUID_TYPE_16;
 793              		.loc 1 583 40 discriminator 8
 794 028c 2324D116 		sw	a3,360(sp)
 598:C:/Users/stapi/OneDrive/Desktop/GD32VW553/V1_MQTT_OK/GD32VW55X_Wifi_BLE_SDK/GD32VW55x_RELEASE_V1.0.2/MSDK/ble/app\app_adv_mgr.c ****         adv_data.srv_data.cnt = 2;
 795              		.loc 1 598 28 discriminator 8
 796 0290 3ECD     		sw	a5,152(sp)
 585:C:/Users/stapi/OneDrive/Desktop/GD32VW553/V1_MQTT_OK/GD32VW55X_Wifi_BLE_SDK/GD32VW55x_RELEASE_V1.0.2/MSDK/ble/app\app_adv_mgr.c ****         uuid_solicited[5].type = BLE_UUID_TYPE_32;
 797              		.loc 1 585 40 discriminator 8
 798 0292 ED76     		li	a3,-20480
 599:C:/Users/stapi/OneDrive/Desktop/GD32VW553/V1_MQTT_OK/GD32VW55X_Wifi_BLE_SDK/GD32VW55x_RELEASE_V1.0.2/MSDK/ble/app\app_adv_mgr.c ****         adv_data.srv_data.p_data = srv_data;
 799              		.loc 1 599 31 discriminator 8
 800 0294 8947     		li	a5,2
 585:C:/Users/stapi/OneDrive/Desktop/GD32VW553/V1_MQTT_OK/GD32VW55X_Wifi_BLE_SDK/GD32VW55x_RELEASE_V1.0.2/MSDK/ble/app\app_adv_mgr.c ****         uuid_solicited[5].type = BLE_UUID_TYPE_32;
 801              		.loc 1 585 40 discriminator 8
 802 0296 9386D6BC 		addi	a3,a3,-1075
 592:C:/Users/stapi/OneDrive/Desktop/GD32VW553/V1_MQTT_OK/GD32VW55X_Wifi_BLE_SDK/GD32VW55x_RELEASE_V1.0.2/MSDK/ble/app\app_adv_mgr.c ****         srv_data[0].data_len = 8;
 803              		.loc 1 592 39 discriminator 8
 804 029a 2314E106 		sh	a4,104(sp)
 599:C:/Users/stapi/OneDrive/Desktop/GD32VW553/V1_MQTT_OK/GD32VW55X_Wifi_BLE_SDK/GD32VW55x_RELEASE_V1.0.2/MSDK/ble/app\app_adv_mgr.c ****         adv_data.srv_data.p_data = srv_data;
 805              		.loc 1 599 31 discriminator 8
 806 029e 2306F110 		sb	a5,268(sp)
 593:C:/Users/stapi/OneDrive/Desktop/GD32VW553/V1_MQTT_OK/GD32VW55X_Wifi_BLE_SDK/GD32VW55x_RELEASE_V1.0.2/MSDK/ble/app\app_adv_mgr.c ****         srv_data[0].p_data = service_data;
 807              		.loc 1 593 30 discriminator 8
 808 02a2 2147     		li	a4,8
 600:C:/Users/stapi/OneDrive/Desktop/GD32VW553/V1_MQTT_OK/GD32VW55X_Wifi_BLE_SDK/GD32VW55x_RELEASE_V1.0.2/MSDK/ble/app\app_adv_mgr.c **** 
 809              		.loc 1 600 34 discriminator 8
 810 02a4 DC10     		addi	a5,sp,100
 585:C:/Users/stapi/OneDrive/Desktop/GD32VW553/V1_MQTT_OK/GD32VW55X_Wifi_BLE_SDK/GD32VW55x_RELEASE_V1.0.2/MSDK/ble/app\app_adv_mgr.c ****         uuid_solicited[5].type = BLE_UUID_TYPE_32;
 811              		.loc 1 585 40 discriminator 8
 812 02a6 231ED116 		sh	a3,380(sp)
 593:C:/Users/stapi/OneDrive/Desktop/GD32VW553/V1_MQTT_OK/GD32VW55X_Wifi_BLE_SDK/GD32VW55x_RELEASE_V1.0.2/MSDK/ble/app\app_adv_mgr.c ****         srv_data[0].p_data = service_data;
 813              		.loc 1 593 30 discriminator 8
 814 02aa 231CE106 		sh	a4,120(sp)
 587:C:/Users/stapi/OneDrive/Desktop/GD32VW553/V1_MQTT_OK/GD32VW55X_Wifi_BLE_SDK/GD32VW55x_RELEASE_V1.0.2/MSDK/ble/app\app_adv_mgr.c ****         adv_data.uuid_solicited.uuid_cnt = 6;
 815              		.loc 1 587 40 discriminator 8
 816 02ae B7D6BBAA 		li	a3,-1430532096
 594:C:/Users/stapi/OneDrive/Desktop/GD32VW553/V1_MQTT_OK/GD32VW55X_Wifi_BLE_SDK/GD32VW55x_RELEASE_V1.0.2/MSDK/ble/app\app_adv_mgr.c ****         srv_data[1].uuid.type = BLE_UUID_TYPE_32;
 817              		.loc 1 594 28 discriminator 8
 818 02b2 37070000 		lui	a4,%hi(.LANCHOR10)
 600:C:/Users/stapi/OneDrive/Desktop/GD32VW553/V1_MQTT_OK/GD32VW55X_Wifi_BLE_SDK/GD32VW55x_RELEASE_V1.0.2/MSDK/ble/app\app_adv_mgr.c **** 
 819              		.loc 1 600 34 discriminator 8
 820 02b6 2328F110 		sw	a5,272(sp)
 602:C:/Users/stapi/OneDrive/Desktop/GD32VW553/V1_MQTT_OK/GD32VW55X_Wifi_BLE_SDK/GD32VW55x_RELEASE_V1.0.2/MSDK/ble/app\app_adv_mgr.c ****         adv_data.url.p_url = url;
 821              		.loc 1 602 30 discriminator 8
 822 02ba E547     		li	a5,25
 587:C:/Users/stapi/OneDrive/Desktop/GD32VW553/V1_MQTT_OK/GD32VW55X_Wifi_BLE_SDK/GD32VW55x_RELEASE_V1.0.2/MSDK/ble/app\app_adv_mgr.c ****         adv_data.uuid_solicited.uuid_cnt = 6;
 823              		.loc 1 587 40 discriminator 8
 824 02bc 9386D6CD 		addi	a3,a3,-803
 594:C:/Users/stapi/OneDrive/Desktop/GD32VW553/V1_MQTT_OK/GD32VW55X_Wifi_BLE_SDK/GD32VW55x_RELEASE_V1.0.2/MSDK/ble/app\app_adv_mgr.c ****         srv_data[1].uuid.type = BLE_UUID_TYPE_32;
 825              		.loc 1 594 28 discriminator 8
 826 02c0 13070700 		addi	a4,a4,%lo(.LANCHOR10)
 602:C:/Users/stapi/OneDrive/Desktop/GD32VW553/V1_MQTT_OK/GD32VW55X_Wifi_BLE_SDK/GD32VW55x_RELEASE_V1.0.2/MSDK/ble/app\app_adv_mgr.c ****         adv_data.url.p_url = url;
 827              		.loc 1 602 30 discriminator 8
 828 02c4 231EF110 		sh	a5,284(sp)
 603:C:/Users/stapi/OneDrive/Desktop/GD32VW553/V1_MQTT_OK/GD32VW55X_Wifi_BLE_SDK/GD32VW55x_RELEASE_V1.0.2/MSDK/ble/app\app_adv_mgr.c **** 
 829              		.loc 1 603 28 discriminator 8
 830 02c8 B7070000 		lui	a5,%hi(.LANCHOR11)
 831 02cc 93870700 		addi	a5,a5,%lo(.LANCHOR11)
 587:C:/Users/stapi/OneDrive/Desktop/GD32VW553/V1_MQTT_OK/GD32VW55X_Wifi_BLE_SDK/GD32VW55x_RELEASE_V1.0.2/MSDK/ble/app\app_adv_mgr.c ****         adv_data.uuid_solicited.uuid_cnt = 6;
 832              		.loc 1 587 40 discriminator 8
 833 02d0 2328D118 		sw	a3,400(sp)
 594:C:/Users/stapi/OneDrive/Desktop/GD32VW553/V1_MQTT_OK/GD32VW55X_Wifi_BLE_SDK/GD32VW55x_RELEASE_V1.0.2/MSDK/ble/app\app_adv_mgr.c ****         srv_data[1].uuid.type = BLE_UUID_TYPE_32;
 834              		.loc 1 594 28 discriminator 8
 835 02d4 BADE     		sw	a4,124(sp)
 588:C:/Users/stapi/OneDrive/Desktop/GD32VW553/V1_MQTT_OK/GD32VW55X_Wifi_BLE_SDK/GD32VW55x_RELEASE_V1.0.2/MSDK/ble/app\app_adv_mgr.c ****         adv_data.uuid_solicited.p_uuid = uuid_solicited;
 836              		.loc 1 588 42 discriminator 8
 837 02d6 9946     		li	a3,6
 605:C:/Users/stapi/OneDrive/Desktop/GD32VW553/V1_MQTT_OK/GD32VW55X_Wifi_BLE_SDK/GD32VW55x_RELEASE_V1.0.2/MSDK/ble/app\app_adv_mgr.c ****         manuf_data.data_len = 25;
 838              		.loc 1 605 31 discriminator 8
 839 02d8 37171900 		li	a4,1642496
 573:C:/Users/stapi/OneDrive/Desktop/GD32VW553/V1_MQTT_OK/GD32VW55X_Wifi_BLE_SDK/GD32VW55x_RELEASE_V1.0.2/MSDK/ble/app\app_adv_mgr.c ****         adv_data.uuid_complete.p_uuid = uuid_cmpl;
 840              		.loc 1 573 41 discriminator 8
 841 02dc 0D46     		li	a2,3
 588:C:/Users/stapi/OneDrive/Desktop/GD32VW553/V1_MQTT_OK/GD32VW55X_Wifi_BLE_SDK/GD32VW55x_RELEASE_V1.0.2/MSDK/ble/app\app_adv_mgr.c ****         adv_data.uuid_solicited.p_uuid = uuid_solicited;
 842              		.loc 1 588 42 discriminator 8
 843 02de 231ED10E 		sh	a3,252(sp)
 603:C:/Users/stapi/OneDrive/Desktop/GD32VW553/V1_MQTT_OK/GD32VW55X_Wifi_BLE_SDK/GD32VW55x_RELEASE_V1.0.2/MSDK/ble/app\app_adv_mgr.c **** 
 844              		.loc 1 603 28 discriminator 8
 845 02e2 232CF110 		sw	a5,280(sp)
 589:C:/Users/stapi/OneDrive/Desktop/GD32VW553/V1_MQTT_OK/GD32VW55X_Wifi_BLE_SDK/GD32VW55x_RELEASE_V1.0.2/MSDK/ble/app\app_adv_mgr.c **** 
 846              		.loc 1 589 40 discriminator 8
 847 02e6 3412     		addi	a3,sp,296
 605:C:/Users/stapi/OneDrive/Desktop/GD32VW553/V1_MQTT_OK/GD32VW55X_Wifi_BLE_SDK/GD32VW55x_RELEASE_V1.0.2/MSDK/ble/app\app_adv_mgr.c ****         manuf_data.data_len = 25;
 848              		.loc 1 605 31 discriminator 8
 849 02e8 1307B7C2 		addi	a4,a4,-981
 607:C:/Users/stapi/OneDrive/Desktop/GD32VW553/V1_MQTT_OK/GD32VW55X_Wifi_BLE_SDK/GD32VW55x_RELEASE_V1.0.2/MSDK/ble/app\app_adv_mgr.c ****         adv_data.p_manuf_specific_data = &manuf_data;
 850              		.loc 1 607 27 discriminator 8
 851 02ec 3EDC     		sw	a5,56(sp)
 608:C:/Users/stapi/OneDrive/Desktop/GD32VW553/V1_MQTT_OK/GD32VW55X_Wifi_BLE_SDK/GD32VW55x_RELEASE_V1.0.2/MSDK/ble/app\app_adv_mgr.c **** 
 852              		.loc 1 608 40 discriminator 8
 853 02ee 5C18     		addi	a5,sp,52
 854 02f0 2324F110 		sw	a5,264(sp)
 573:C:/Users/stapi/OneDrive/Desktop/GD32VW553/V1_MQTT_OK/GD32VW55X_Wifi_BLE_SDK/GD32VW55x_RELEASE_V1.0.2/MSDK/ble/app\app_adv_mgr.c ****         adv_data.uuid_complete.p_uuid = uuid_cmpl;
 855              		.loc 1 573 41 discriminator 8
 856 02f4 231AC10E 		sh	a2,244(sp)
 574:C:/Users/stapi/OneDrive/Desktop/GD32VW553/V1_MQTT_OK/GD32VW55X_Wifi_BLE_SDK/GD32VW55x_RELEASE_V1.0.2/MSDK/ble/app\app_adv_mgr.c **** 
 857              		.loc 1 574 9 is_stmt 1 discriminator 8
 576:C:/Users/stapi/OneDrive/Desktop/GD32VW553/V1_MQTT_OK/GD32VW55X_Wifi_BLE_SDK/GD32VW55x_RELEASE_V1.0.2/MSDK/ble/app\app_adv_mgr.c ****         uuid_solicited[0].data.uuid_16 = 0x1234;
 858              		.loc 1 576 9 discriminator 8
 576:C:/Users/stapi/OneDrive/Desktop/GD32VW553/V1_MQTT_OK/GD32VW55X_Wifi_BLE_SDK/GD32VW55x_RELEASE_V1.0.2/MSDK/ble/app\app_adv_mgr.c ****         uuid_solicited[0].data.uuid_16 = 0x1234;
 859              		.loc 1 576 32 is_stmt 0 discriminator 8
 860 02f8 23240112 		sw	zero,296(sp)
 577:C:/Users/stapi/OneDrive/Desktop/GD32VW553/V1_MQTT_OK/GD32VW55X_Wifi_BLE_SDK/GD32VW55x_RELEASE_V1.0.2/MSDK/ble/app\app_adv_mgr.c ****         uuid_solicited[1].type = BLE_UUID_TYPE_32;
 861              		.loc 1 577 9 is_stmt 1 discriminator 8
 578:C:/Users/stapi/OneDrive/Desktop/GD32VW553/V1_MQTT_OK/GD32VW55X_Wifi_BLE_SDK/GD32VW55x_RELEASE_V1.0.2/MSDK/ble/app\app_adv_mgr.c ****         uuid_solicited[1].data.uuid_32 = 0x11223344;
 862              		.loc 1 578 9 discriminator 8
 579:C:/Users/stapi/OneDrive/Desktop/GD32VW553/V1_MQTT_OK/GD32VW55X_Wifi_BLE_SDK/GD32VW55x_RELEASE_V1.0.2/MSDK/ble/app\app_adv_mgr.c ****         uuid_solicited[2].type = BLE_UUID_TYPE_16;
 863              		.loc 1 579 9 discriminator 8
 580:C:/Users/stapi/OneDrive/Desktop/GD32VW553/V1_MQTT_OK/GD32VW55X_Wifi_BLE_SDK/GD32VW55x_RELEASE_V1.0.2/MSDK/ble/app\app_adv_mgr.c ****         uuid_solicited[2].data.uuid_16 = 0x5678;
 864              		.loc 1 580 9 discriminator 8
 580:C:/Users/stapi/OneDrive/Desktop/GD32VW553/V1_MQTT_OK/GD32VW55X_Wifi_BLE_SDK/GD32VW55x_RELEASE_V1.0.2/MSDK/ble/app\app_adv_mgr.c ****         uuid_solicited[2].data.uuid_16 = 0x5678;
 865              		.loc 1 580 32 is_stmt 0 discriminator 8
 866 02fc 23280114 		sw	zero,336(sp)
 581:C:/Users/stapi/OneDrive/Desktop/GD32VW553/V1_MQTT_OK/GD32VW55X_Wifi_BLE_SDK/GD32VW55x_RELEASE_V1.0.2/MSDK/ble/app\app_adv_mgr.c ****         uuid_solicited[3].type = BLE_UUID_TYPE_32;
 867              		.loc 1 581 9 is_stmt 1 discriminator 8
 582:C:/Users/stapi/OneDrive/Desktop/GD32VW553/V1_MQTT_OK/GD32VW55X_Wifi_BLE_SDK/GD32VW55x_RELEASE_V1.0.2/MSDK/ble/app\app_adv_mgr.c ****         uuid_solicited[3].data.uuid_32 = 0x55667788;
 868              		.loc 1 582 9 discriminator 8
 583:C:/Users/stapi/OneDrive/Desktop/GD32VW553/V1_MQTT_OK/GD32VW55X_Wifi_BLE_SDK/GD32VW55x_RELEASE_V1.0.2/MSDK/ble/app\app_adv_mgr.c ****         uuid_solicited[4].type = BLE_UUID_TYPE_16;
 869              		.loc 1 583 9 discriminator 8
 584:C:/Users/stapi/OneDrive/Desktop/GD32VW553/V1_MQTT_OK/GD32VW55X_Wifi_BLE_SDK/GD32VW55x_RELEASE_V1.0.2/MSDK/ble/app\app_adv_mgr.c ****         uuid_solicited[4].data.uuid_16 = 0xABCD;
 870              		.loc 1 584 9 discriminator 8
 584:C:/Users/stapi/OneDrive/Desktop/GD32VW553/V1_MQTT_OK/GD32VW55X_Wifi_BLE_SDK/GD32VW55x_RELEASE_V1.0.2/MSDK/ble/app\app_adv_mgr.c ****         uuid_solicited[4].data.uuid_16 = 0xABCD;
 871              		.loc 1 584 32 is_stmt 0 discriminator 8
 872 0300 232C0116 		sw	zero,376(sp)
 585:C:/Users/stapi/OneDrive/Desktop/GD32VW553/V1_MQTT_OK/GD32VW55X_Wifi_BLE_SDK/GD32VW55x_RELEASE_V1.0.2/MSDK/ble/app\app_adv_mgr.c ****         uuid_solicited[5].type = BLE_UUID_TYPE_32;
 873              		.loc 1 585 9 is_stmt 1 discriminator 8
 586:C:/Users/stapi/OneDrive/Desktop/GD32VW553/V1_MQTT_OK/GD32VW55X_Wifi_BLE_SDK/GD32VW55x_RELEASE_V1.0.2/MSDK/ble/app\app_adv_mgr.c ****         uuid_solicited[5].data.uuid_32 = 0xAABBCCDD;
 874              		.loc 1 586 9 discriminator 8
 587:C:/Users/stapi/OneDrive/Desktop/GD32VW553/V1_MQTT_OK/GD32VW55X_Wifi_BLE_SDK/GD32VW55x_RELEASE_V1.0.2/MSDK/ble/app\app_adv_mgr.c ****         adv_data.uuid_solicited.uuid_cnt = 6;
 875              		.loc 1 587 9 discriminator 8
 588:C:/Users/stapi/OneDrive/Desktop/GD32VW553/V1_MQTT_OK/GD32VW55X_Wifi_BLE_SDK/GD32VW55x_RELEASE_V1.0.2/MSDK/ble/app\app_adv_mgr.c ****         adv_data.uuid_solicited.p_uuid = uuid_solicited;
 876              		.loc 1 588 9 discriminator 8
 589:C:/Users/stapi/OneDrive/Desktop/GD32VW553/V1_MQTT_OK/GD32VW55X_Wifi_BLE_SDK/GD32VW55x_RELEASE_V1.0.2/MSDK/ble/app\app_adv_mgr.c **** 
 877              		.loc 1 589 9 discriminator 8
 589:C:/Users/stapi/OneDrive/Desktop/GD32VW553/V1_MQTT_OK/GD32VW55X_Wifi_BLE_SDK/GD32VW55x_RELEASE_V1.0.2/MSDK/ble/app\app_adv_mgr.c **** 
 878              		.loc 1 589 40 is_stmt 0 discriminator 8
 879 0304 2320D110 		sw	a3,256(sp)
 591:C:/Users/stapi/OneDrive/Desktop/GD32VW553/V1_MQTT_OK/GD32VW55X_Wifi_BLE_SDK/GD32VW55x_RELEASE_V1.0.2/MSDK/ble/app\app_adv_mgr.c ****         srv_data[0].uuid.data.uuid_16 = 0x1199;
 880              		.loc 1 591 9 is_stmt 1 discriminator 8
 591:C:/Users/stapi/OneDrive/Desktop/GD32VW553/V1_MQTT_OK/GD32VW55X_Wifi_BLE_SDK/GD32VW55x_RELEASE_V1.0.2/MSDK/ble/app\app_adv_mgr.c ****         srv_data[0].uuid.data.uuid_16 = 0x1199;
 881              		.loc 1 591 31 is_stmt 0 discriminator 8
 882 0308 82D2     		sw	zero,100(sp)
 592:C:/Users/stapi/OneDrive/Desktop/GD32VW553/V1_MQTT_OK/GD32VW55X_Wifi_BLE_SDK/GD32VW55x_RELEASE_V1.0.2/MSDK/ble/app\app_adv_mgr.c ****         srv_data[0].data_len = 8;
 883              		.loc 1 592 9 is_stmt 1 discriminator 8
 593:C:/Users/stapi/OneDrive/Desktop/GD32VW553/V1_MQTT_OK/GD32VW55X_Wifi_BLE_SDK/GD32VW55x_RELEASE_V1.0.2/MSDK/ble/app\app_adv_mgr.c ****         srv_data[0].p_data = service_data;
 884              		.loc 1 593 9 discriminator 8
 594:C:/Users/stapi/OneDrive/Desktop/GD32VW553/V1_MQTT_OK/GD32VW55X_Wifi_BLE_SDK/GD32VW55x_RELEASE_V1.0.2/MSDK/ble/app\app_adv_mgr.c ****         srv_data[1].uuid.type = BLE_UUID_TYPE_32;
 885              		.loc 1 594 9 discriminator 8
 595:C:/Users/stapi/OneDrive/Desktop/GD32VW553/V1_MQTT_OK/GD32VW55X_Wifi_BLE_SDK/GD32VW55x_RELEASE_V1.0.2/MSDK/ble/app\app_adv_mgr.c ****         srv_data[1].uuid.data.uuid_32 = 0x12345678;
 886              		.loc 1 595 9 discriminator 8
 596:C:/Users/stapi/OneDrive/Desktop/GD32VW553/V1_MQTT_OK/GD32VW55X_Wifi_BLE_SDK/GD32VW55x_RELEASE_V1.0.2/MSDK/ble/app\app_adv_mgr.c ****         srv_data[1].data_len = 3;
 887              		.loc 1 596 9 discriminator 8
 597:C:/Users/stapi/OneDrive/Desktop/GD32VW553/V1_MQTT_OK/GD32VW55X_Wifi_BLE_SDK/GD32VW55x_RELEASE_V1.0.2/MSDK/ble/app\app_adv_mgr.c ****         srv_data[1].p_data = s_data;
 888              		.loc 1 597 9 discriminator 8
 597:C:/Users/stapi/OneDrive/Desktop/GD32VW553/V1_MQTT_OK/GD32VW55X_Wifi_BLE_SDK/GD32VW55x_RELEASE_V1.0.2/MSDK/ble/app\app_adv_mgr.c ****         srv_data[1].p_data = s_data;
 889              		.loc 1 597 30 is_stmt 0 discriminator 8
 890 030a 231AC108 		sh	a2,148(sp)
 598:C:/Users/stapi/OneDrive/Desktop/GD32VW553/V1_MQTT_OK/GD32VW55X_Wifi_BLE_SDK/GD32VW55x_RELEASE_V1.0.2/MSDK/ble/app\app_adv_mgr.c ****         adv_data.srv_data.cnt = 2;
 891              		.loc 1 598 9 is_stmt 1 discriminator 8
 599:C:/Users/stapi/OneDrive/Desktop/GD32VW553/V1_MQTT_OK/GD32VW55X_Wifi_BLE_SDK/GD32VW55x_RELEASE_V1.0.2/MSDK/ble/app\app_adv_mgr.c ****         adv_data.srv_data.p_data = srv_data;
 892              		.loc 1 599 9 discriminator 8
 600:C:/Users/stapi/OneDrive/Desktop/GD32VW553/V1_MQTT_OK/GD32VW55X_Wifi_BLE_SDK/GD32VW55x_RELEASE_V1.0.2/MSDK/ble/app\app_adv_mgr.c **** 
 893              		.loc 1 600 9 discriminator 8
 602:C:/Users/stapi/OneDrive/Desktop/GD32VW553/V1_MQTT_OK/GD32VW55X_Wifi_BLE_SDK/GD32VW55x_RELEASE_V1.0.2/MSDK/ble/app\app_adv_mgr.c ****         adv_data.url.p_url = url;
 894              		.loc 1 602 9 discriminator 8
 603:C:/Users/stapi/OneDrive/Desktop/GD32VW553/V1_MQTT_OK/GD32VW55X_Wifi_BLE_SDK/GD32VW55x_RELEASE_V1.0.2/MSDK/ble/app\app_adv_mgr.c **** 
 895              		.loc 1 603 9 discriminator 8
 605:C:/Users/stapi/OneDrive/Desktop/GD32VW553/V1_MQTT_OK/GD32VW55X_Wifi_BLE_SDK/GD32VW55x_RELEASE_V1.0.2/MSDK/ble/app\app_adv_mgr.c ****         manuf_data.data_len = 25;
 896              		.loc 1 605 9 discriminator 8
 606:C:/Users/stapi/OneDrive/Desktop/GD32VW553/V1_MQTT_OK/GD32VW55X_Wifi_BLE_SDK/GD32VW55x_RELEASE_V1.0.2/MSDK/ble/app\app_adv_mgr.c ****         manuf_data.p_data = url;
 897              		.loc 1 606 9 discriminator 8
 605:C:/Users/stapi/OneDrive/Desktop/GD32VW553/V1_MQTT_OK/GD32VW55X_Wifi_BLE_SDK/GD32VW55x_RELEASE_V1.0.2/MSDK/ble/app\app_adv_mgr.c ****         manuf_data.data_len = 25;
 898              		.loc 1 605 31 is_stmt 0 discriminator 8
 899 030e 3ADA     		sw	a4,52(sp)
 607:C:/Users/stapi/OneDrive/Desktop/GD32VW553/V1_MQTT_OK/GD32VW55X_Wifi_BLE_SDK/GD32VW55x_RELEASE_V1.0.2/MSDK/ble/app\app_adv_mgr.c ****         adv_data.p_manuf_specific_data = &manuf_data;
 900              		.loc 1 607 9 is_stmt 1 discriminator 8
 608:C:/Users/stapi/OneDrive/Desktop/GD32VW553/V1_MQTT_OK/GD32VW55X_Wifi_BLE_SDK/GD32VW55x_RELEASE_V1.0.2/MSDK/ble/app\app_adv_mgr.c **** 
 901              		.loc 1 608 9 discriminator 8
 610:C:/Users/stapi/OneDrive/Desktop/GD32VW553/V1_MQTT_OK/GD32VW55X_Wifi_BLE_SDK/GD32VW55x_RELEASE_V1.0.2/MSDK/ble/app\app_adv_mgr.c ****         adv.data.p_data_enc = &adv_data;
 902              		.loc 1 610 9 discriminator 8
 610:C:/Users/stapi/OneDrive/Desktop/GD32VW553/V1_MQTT_OK/GD32VW55X_Wifi_BLE_SDK/GD32VW55x_RELEASE_V1.0.2/MSDK/ble/app\app_adv_mgr.c ****         adv.data.p_data_enc = &adv_data;
 903              		.loc 1 610 24 is_stmt 0 discriminator 8
 904 0310 230E0100 		sb	zero,28(sp)
 611:C:/Users/stapi/OneDrive/Desktop/GD32VW553/V1_MQTT_OK/GD32VW55X_Wifi_BLE_SDK/GD32VW55x_RELEASE_V1.0.2/MSDK/ble/app\app_adv_mgr.c **** 
 905              		.loc 1 611 9 is_stmt 1 discriminator 8
 611:C:/Users/stapi/OneDrive/Desktop/GD32VW553/V1_MQTT_OK/GD32VW55X_Wifi_BLE_SDK/GD32VW55x_RELEASE_V1.0.2/MSDK/ble/app\app_adv_mgr.c **** 
 906              		.loc 1 611 29 is_stmt 0 discriminator 8
 907 0314 BC09     		addi	a5,sp,216
 908 0316 F9BB     		j	.L51
 909              	.LVL57:
 910              	.L24:
 911              	.LBE16:
 912              	.LBB17:
 618:C:/Users/stapi/OneDrive/Desktop/GD32VW553/V1_MQTT_OK/GD32VW55X_Wifi_BLE_SDK/GD32VW55x_RELEASE_V1.0.2/MSDK/ble/app\app_adv_mgr.c ****         ble_data_t sr_data;
 913              		.loc 1 618 9 is_stmt 1
 619:C:/Users/stapi/OneDrive/Desktop/GD32VW553/V1_MQTT_OK/GD32VW55X_Wifi_BLE_SDK/GD32VW55x_RELEASE_V1.0.2/MSDK/ble/app\app_adv_mgr.c ****         uint8_t *p_buf;
 914              		.loc 1 619 9
 620:C:/Users/stapi/OneDrive/Desktop/GD32VW553/V1_MQTT_OK/GD32VW55X_Wifi_BLE_SDK/GD32VW55x_RELEASE_V1.0.2/MSDK/ble/app\app_adv_mgr.c ****         uint16_t len;
 915              		.loc 1 620 9
 621:C:/Users/stapi/OneDrive/Desktop/GD32VW553/V1_MQTT_OK/GD32VW55X_Wifi_BLE_SDK/GD32VW55x_RELEASE_V1.0.2/MSDK/ble/app\app_adv_mgr.c **** 
 916              		.loc 1 621 9
 623:C:/Users/stapi/OneDrive/Desktop/GD32VW553/V1_MQTT_OK/GD32VW55X_Wifi_BLE_SDK/GD32VW55x_RELEASE_V1.0.2/MSDK/ble/app\app_adv_mgr.c ****         if (p_buf) {
 917              		.loc 1 623 9
 623:C:/Users/stapi/OneDrive/Desktop/GD32VW553/V1_MQTT_OK/GD32VW55X_Wifi_BLE_SDK/GD32VW55x_RELEASE_V1.0.2/MSDK/ble/app\app_adv_mgr.c ****         if (p_buf) {
 918              		.loc 1 623 17 is_stmt 0
 919 0318 0355A400 		lhu	a0,10(s0)
 920              	.LVL58:
 921 031c 97000000 		call	sys_malloc
 921      E7800000 
 922              	.LVL59:
 923 0324 AA84     		mv	s1,a0
 924              	.LVL60:
 624:C:/Users/stapi/OneDrive/Desktop/GD32VW553/V1_MQTT_OK/GD32VW55X_Wifi_BLE_SDK/GD32VW55x_RELEASE_V1.0.2/MSDK/ble/app\app_adv_mgr.c ****             len = app_build_adv_data(p_adv, p_buf, p_adv->max_data_len, true);
 925              		.loc 1 624 9 is_stmt 1
 624:C:/Users/stapi/OneDrive/Desktop/GD32VW553/V1_MQTT_OK/GD32VW55X_Wifi_BLE_SDK/GD32VW55x_RELEASE_V1.0.2/MSDK/ble/app\app_adv_mgr.c ****             len = app_build_adv_data(p_adv, p_buf, p_adv->max_data_len, true);
 926              		.loc 1 624 12 is_stmt 0
 927 0326 E30105DE 		beq	a0,zero,.L23
 625:C:/Users/stapi/OneDrive/Desktop/GD32VW553/V1_MQTT_OK/GD32VW55X_Wifi_BLE_SDK/GD32VW55x_RELEASE_V1.0.2/MSDK/ble/app\app_adv_mgr.c ****             adv_data.len = len;
 928              		.loc 1 625 13 is_stmt 1
 625:C:/Users/stapi/OneDrive/Desktop/GD32VW553/V1_MQTT_OK/GD32VW55X_Wifi_BLE_SDK/GD32VW55x_RELEASE_V1.0.2/MSDK/ble/app\app_adv_mgr.c ****             adv_data.len = len;
 929              		.loc 1 625 19 is_stmt 0
 930 032a 0356A400 		lhu	a2,10(s0)
 931 032e AA85     		mv	a1,a0
 932 0330 8546     		li	a3,1
 933 0332 2285     		mv	a0,s0
 934 0334 97000000 		call	app_build_adv_data
 934      E7800000 
 935              	.LVL61:
 626:C:/Users/stapi/OneDrive/Desktop/GD32VW553/V1_MQTT_OK/GD32VW55X_Wifi_BLE_SDK/GD32VW55x_RELEASE_V1.0.2/MSDK/ble/app\app_adv_mgr.c ****             adv_data.p_data = p_buf;
 936              		.loc 1 626 13 is_stmt 1
 629:C:/Users/stapi/OneDrive/Desktop/GD32VW553/V1_MQTT_OK/GD32VW55X_Wifi_BLE_SDK/GD32VW55x_RELEASE_V1.0.2/MSDK/ble/app\app_adv_mgr.c ****             per_adv.data.p_data_force = &adv_data;
 937              		.loc 1 629 35 is_stmt 0
 938 033c BC09     		addi	a5,sp,216
 939 033e 3ED0     		sw	a5,32(sp)
 630:C:/Users/stapi/OneDrive/Desktop/GD32VW553/V1_MQTT_OK/GD32VW55X_Wifi_BLE_SDK/GD32VW55x_RELEASE_V1.0.2/MSDK/ble/app\app_adv_mgr.c **** 
 940              		.loc 1 630 39
 941 0340 3ED8     		sw	a5,48(sp)
 626:C:/Users/stapi/OneDrive/Desktop/GD32VW553/V1_MQTT_OK/GD32VW55X_Wifi_BLE_SDK/GD32VW55x_RELEASE_V1.0.2/MSDK/ble/app\app_adv_mgr.c ****             adv_data.p_data = p_buf;
 942              		.loc 1 626 26
 943 0342 231EA10C 		sh	a0,220(sp)
 627:C:/Users/stapi/OneDrive/Desktop/GD32VW553/V1_MQTT_OK/GD32VW55X_Wifi_BLE_SDK/GD32VW55x_RELEASE_V1.0.2/MSDK/ble/app\app_adv_mgr.c **** 
 944              		.loc 1 627 13 is_stmt 1
 627:C:/Users/stapi/OneDrive/Desktop/GD32VW553/V1_MQTT_OK/GD32VW55X_Wifi_BLE_SDK/GD32VW55x_RELEASE_V1.0.2/MSDK/ble/app\app_adv_mgr.c **** 
 945              		.loc 1 627 29 is_stmt 0
 946 0346 A6CD     		sw	s1,216(sp)
 629:C:/Users/stapi/OneDrive/Desktop/GD32VW553/V1_MQTT_OK/GD32VW55X_Wifi_BLE_SDK/GD32VW55x_RELEASE_V1.0.2/MSDK/ble/app\app_adv_mgr.c ****             per_adv.data.p_data_force = &adv_data;
 947              		.loc 1 629 13 is_stmt 1
 630:C:/Users/stapi/OneDrive/Desktop/GD32VW553/V1_MQTT_OK/GD32VW55X_Wifi_BLE_SDK/GD32VW55x_RELEASE_V1.0.2/MSDK/ble/app\app_adv_mgr.c **** 
 948              		.loc 1 630 13
 632:C:/Users/stapi/OneDrive/Desktop/GD32VW553/V1_MQTT_OK/GD32VW55X_Wifi_BLE_SDK/GD32VW55x_RELEASE_V1.0.2/MSDK/ble/app\app_adv_mgr.c ****                 sr_data.p_data = p_buf + 3;
 949              		.loc 1 632 13
 632:C:/Users/stapi/OneDrive/Desktop/GD32VW553/V1_MQTT_OK/GD32VW55X_Wifi_BLE_SDK/GD32VW55x_RELEASE_V1.0.2/MSDK/ble/app\app_adv_mgr.c ****                 sr_data.p_data = p_buf + 3;
 950              		.loc 1 632 16 is_stmt 0
 951 0348 8D47     		li	a5,3
 952 034a 63FCA700 		bleu	a0,a5,.L39
 633:C:/Users/stapi/OneDrive/Desktop/GD32VW553/V1_MQTT_OK/GD32VW55X_Wifi_BLE_SDK/GD32VW55x_RELEASE_V1.0.2/MSDK/ble/app\app_adv_mgr.c ****                 sr_data.len = len - 3;
 953              		.loc 1 633 17 is_stmt 1
 633:C:/Users/stapi/OneDrive/Desktop/GD32VW553/V1_MQTT_OK/GD32VW55X_Wifi_BLE_SDK/GD32VW55x_RELEASE_V1.0.2/MSDK/ble/app\app_adv_mgr.c ****                 sr_data.len = len - 3;
 954              		.loc 1 633 40 is_stmt 0
 955 034e 93873400 		addi	a5,s1,3
 634:C:/Users/stapi/OneDrive/Desktop/GD32VW553/V1_MQTT_OK/GD32VW55X_Wifi_BLE_SDK/GD32VW55x_RELEASE_V1.0.2/MSDK/ble/app\app_adv_mgr.c ****             } else {
 956              		.loc 1 634 35
 957 0352 7515     		addi	a0,a0,-3
 958              	.LVL62:
 633:C:/Users/stapi/OneDrive/Desktop/GD32VW553/V1_MQTT_OK/GD32VW55X_Wifi_BLE_SDK/GD32VW55x_RELEASE_V1.0.2/MSDK/ble/app\app_adv_mgr.c ****                 sr_data.len = len - 3;
 959              		.loc 1 633 32
 960 0354 2324F112 		sw	a5,296(sp)
 634:C:/Users/stapi/OneDrive/Desktop/GD32VW553/V1_MQTT_OK/GD32VW55X_Wifi_BLE_SDK/GD32VW55x_RELEASE_V1.0.2/MSDK/ble/app\app_adv_mgr.c ****             } else {
 961              		.loc 1 634 17 is_stmt 1
 634:C:/Users/stapi/OneDrive/Desktop/GD32VW553/V1_MQTT_OK/GD32VW55X_Wifi_BLE_SDK/GD32VW55x_RELEASE_V1.0.2/MSDK/ble/app\app_adv_mgr.c ****             } else {
 962              		.loc 1 634 29 is_stmt 0
 963 0358 2316A112 		sh	a0,300(sp)
 964              	.L40:
 639:C:/Users/stapi/OneDrive/Desktop/GD32VW553/V1_MQTT_OK/GD32VW55X_Wifi_BLE_SDK/GD32VW55x_RELEASE_V1.0.2/MSDK/ble/app\app_adv_mgr.c **** 
 965              		.loc 1 639 13 is_stmt 1
 639:C:/Users/stapi/OneDrive/Desktop/GD32VW553/V1_MQTT_OK/GD32VW55X_Wifi_BLE_SDK/GD32VW55x_RELEASE_V1.0.2/MSDK/ble/app\app_adv_mgr.c **** 
 966              		.loc 1 639 40 is_stmt 0
 967 035c 3C12     		addi	a5,sp,296
 968 035e 3ED4     		sw	a5,40(sp)
 969 0360 8DB3     		j	.L53
 970              	.LVL63:
 971              	.L39:
 636:C:/Users/stapi/OneDrive/Desktop/GD32VW553/V1_MQTT_OK/GD32VW55X_Wifi_BLE_SDK/GD32VW55x_RELEASE_V1.0.2/MSDK/ble/app\app_adv_mgr.c ****                 sr_data.len = 0;
 972              		.loc 1 636 17 is_stmt 1
 636:C:/Users/stapi/OneDrive/Desktop/GD32VW553/V1_MQTT_OK/GD32VW55X_Wifi_BLE_SDK/GD32VW55x_RELEASE_V1.0.2/MSDK/ble/app\app_adv_mgr.c ****                 sr_data.len = 0;
 973              		.loc 1 636 32 is_stmt 0
 974 0362 23240112 		sw	zero,296(sp)
 637:C:/Users/stapi/OneDrive/Desktop/GD32VW553/V1_MQTT_OK/GD32VW55X_Wifi_BLE_SDK/GD32VW55x_RELEASE_V1.0.2/MSDK/ble/app\app_adv_mgr.c ****             }
 975              		.loc 1 637 17 is_stmt 1
 637:C:/Users/stapi/OneDrive/Desktop/GD32VW553/V1_MQTT_OK/GD32VW55X_Wifi_BLE_SDK/GD32VW55x_RELEASE_V1.0.2/MSDK/ble/app\app_adv_mgr.c ****             }
 976              		.loc 1 637 29 is_stmt 0
 977 0366 23160112 		sh	zero,300(sp)
 978 036a CDBF     		j	.L40
 979              	.LBE17:
 980              		.cfi_endproc
 981              	.LFE5:
 983              		.section	.rodata.app_adv_mgr_evt_hdlr.str1.4,"aMS",@progbits,1
 984              		.align	2
 985              	.LC0:
 986 0000 61647620 		.string	"adv state change 0x%x ==> 0x%x, reason 0x%x\r\n"
 986      73746174 
 986      65206368 
 986      616E6765 
 986      20307825 
 987 002e 0000     		.align	2
 988              	.LC1:
 989 0030 61647620 		.string	"adv index %d\r\n"
 989      696E6465 
 989      78202564 
 989      0D0A00
 990 003f 00       		.align	2
 991              	.LC2:
 992 0040 61647620 		.string	"adv stopped, remove %d\r\n"
 992      73746F70 
 992      7065642C 
 992      2072656D 
 992      6F766520 
 993 0059 000000   		.align	2
 994              	.LC3:
 995 005c 61647620 		.string	"adv data update rsp, type %d, status 0x%x\r\n"
 995      64617461 
 995      20757064 
 995      61746520 
 995      7273702C 
 996              		.align	2
 997              	.LC4:
 998 0088 7363616E 		.string	"scan req rcv, device addr %02X:%02X:%02X:%02X:%02X:%02X\r\n"
 998      20726571 
 998      20726376 
 998      2C206465 
 998      76696365 
 999              		.section	.text.app_adv_mgr_evt_hdlr,"ax",@progbits
 1000              		.align	1
 1002              	app_adv_mgr_evt_hdlr:
 1003              	.LFB6:
 649:C:/Users/stapi/OneDrive/Desktop/GD32VW553/V1_MQTT_OK/GD32VW55X_Wifi_BLE_SDK/GD32VW55x_RELEASE_V1.0.2/MSDK/ble/app\app_adv_mgr.c **** 
 650:C:/Users/stapi/OneDrive/Desktop/GD32VW553/V1_MQTT_OK/GD32VW55X_Wifi_BLE_SDK/GD32VW55x_RELEASE_V1.0.2/MSDK/ble/app\app_adv_mgr.c **** /*!
 651:C:/Users/stapi/OneDrive/Desktop/GD32VW553/V1_MQTT_OK/GD32VW55X_Wifi_BLE_SDK/GD32VW55x_RELEASE_V1.0.2/MSDK/ble/app\app_adv_mgr.c ****     \brief      Callback function to handle BLE advertising events
 652:C:/Users/stapi/OneDrive/Desktop/GD32VW553/V1_MQTT_OK/GD32VW55X_Wifi_BLE_SDK/GD32VW55x_RELEASE_V1.0.2/MSDK/ble/app\app_adv_mgr.c ****     \param[in]  adv_evt: BLE advertising event type
 653:C:/Users/stapi/OneDrive/Desktop/GD32VW553/V1_MQTT_OK/GD32VW55X_Wifi_BLE_SDK/GD32VW55x_RELEASE_V1.0.2/MSDK/ble/app\app_adv_mgr.c ****     \param[in]  p_data: pointer to BLE advertising event data
 654:C:/Users/stapi/OneDrive/Desktop/GD32VW553/V1_MQTT_OK/GD32VW55X_Wifi_BLE_SDK/GD32VW55x_RELEASE_V1.0.2/MSDK/ble/app\app_adv_mgr.c ****     \param[in]  p_context: context data used when create advertising
 655:C:/Users/stapi/OneDrive/Desktop/GD32VW553/V1_MQTT_OK/GD32VW55X_Wifi_BLE_SDK/GD32VW55x_RELEASE_V1.0.2/MSDK/ble/app\app_adv_mgr.c ****     \param[out] none
 656:C:/Users/stapi/OneDrive/Desktop/GD32VW553/V1_MQTT_OK/GD32VW55X_Wifi_BLE_SDK/GD32VW55x_RELEASE_V1.0.2/MSDK/ble/app\app_adv_mgr.c ****     \retval     none
 657:C:/Users/stapi/OneDrive/Desktop/GD32VW553/V1_MQTT_OK/GD32VW55X_Wifi_BLE_SDK/GD32VW55x_RELEASE_V1.0.2/MSDK/ble/app\app_adv_mgr.c **** */
 658:C:/Users/stapi/OneDrive/Desktop/GD32VW553/V1_MQTT_OK/GD32VW55X_Wifi_BLE_SDK/GD32VW55x_RELEASE_V1.0.2/MSDK/ble/app\app_adv_mgr.c **** static void app_adv_mgr_evt_hdlr(ble_adv_evt_t adv_evt, void *p_data, void *p_context)
 659:C:/Users/stapi/OneDrive/Desktop/GD32VW553/V1_MQTT_OK/GD32VW55X_Wifi_BLE_SDK/GD32VW55x_RELEASE_V1.0.2/MSDK/ble/app\app_adv_mgr.c **** {
 1004              		.loc 1 659 1 is_stmt 1
 1005              		.cfi_startproc
 1006              	.LVL64:
 1007 0000 17030000 		call	t0,__riscv_save_4
 1007      E7020300 
 1008              		.cfi_offset 19, -20
 1009              		.cfi_offset 18, -16
 1010              		.cfi_offset 9, -12
 1011              		.cfi_offset 8, -8
 1012              		.cfi_offset 1, -4
 1013              		.cfi_def_cfa_offset 32
 660:C:/Users/stapi/OneDrive/Desktop/GD32VW553/V1_MQTT_OK/GD32VW55X_Wifi_BLE_SDK/GD32VW55x_RELEASE_V1.0.2/MSDK/ble/app\app_adv_mgr.c ****     app_adv_set_t *p_adv = (app_adv_set_t *)p_context;
 661:C:/Users/stapi/OneDrive/Desktop/GD32VW553/V1_MQTT_OK/GD32VW55X_Wifi_BLE_SDK/GD32VW55x_RELEASE_V1.0.2/MSDK/ble/app\app_adv_mgr.c **** 
 662:C:/Users/stapi/OneDrive/Desktop/GD32VW553/V1_MQTT_OK/GD32VW55X_Wifi_BLE_SDK/GD32VW55x_RELEASE_V1.0.2/MSDK/ble/app\app_adv_mgr.c ****     switch (adv_evt) {
 1014              		.loc 1 662 5 is_stmt 0
 1015 0008 8547     		li	a5,1
 659:C:/Users/stapi/OneDrive/Desktop/GD32VW553/V1_MQTT_OK/GD32VW55X_Wifi_BLE_SDK/GD32VW55x_RELEASE_V1.0.2/MSDK/ble/app\app_adv_mgr.c ****     app_adv_set_t *p_adv = (app_adv_set_t *)p_context;
 1016              		.loc 1 659 1
 1017 000a 2E84     		mv	s0,a1
 660:C:/Users/stapi/OneDrive/Desktop/GD32VW553/V1_MQTT_OK/GD32VW55X_Wifi_BLE_SDK/GD32VW55x_RELEASE_V1.0.2/MSDK/ble/app\app_adv_mgr.c ****     app_adv_set_t *p_adv = (app_adv_set_t *)p_context;
 1018              		.loc 1 660 5 is_stmt 1
 1019              	.LVL65:
 1020              		.loc 1 662 5
 1021 000c 630BF50A 		beq	a0,a5,.L56
 1022 0010 0947     		li	a4,2
 1023 0012 630BE50C 		beq	a0,a4,.L57
 1024 0016 25E1     		bne	a0,zero,.L55
 1025              	.LBB18:
 663:C:/Users/stapi/OneDrive/Desktop/GD32VW553/V1_MQTT_OK/GD32VW55X_Wifi_BLE_SDK/GD32VW55x_RELEASE_V1.0.2/MSDK/ble/app\app_adv_mgr.c ****     case BLE_ADV_EVT_STATE_CHG: {
 664:C:/Users/stapi/OneDrive/Desktop/GD32VW553/V1_MQTT_OK/GD32VW55X_Wifi_BLE_SDK/GD32VW55x_RELEASE_V1.0.2/MSDK/ble/app\app_adv_mgr.c ****         ble_adv_state_chg_t *p_chg = (ble_adv_state_chg_t *)p_data;
 665:C:/Users/stapi/OneDrive/Desktop/GD32VW553/V1_MQTT_OK/GD32VW55X_Wifi_BLE_SDK/GD32VW55x_RELEASE_V1.0.2/MSDK/ble/app\app_adv_mgr.c ****         ble_adv_state_t old_state = p_adv->state;
 666:C:/Users/stapi/OneDrive/Desktop/GD32VW553/V1_MQTT_OK/GD32VW55X_Wifi_BLE_SDK/GD32VW55x_RELEASE_V1.0.2/MSDK/ble/app\app_adv_mgr.c **** 
 667:C:/Users/stapi/OneDrive/Desktop/GD32VW553/V1_MQTT_OK/GD32VW55X_Wifi_BLE_SDK/GD32VW55x_RELEASE_V1.0.2/MSDK/ble/app\app_adv_mgr.c ****         dbg_print(NOTICE, "adv state change 0x%x ==> 0x%x, reason 0x%x\r\n", old_state, p_chg->stat
 1026              		.loc 1 667 9 is_stmt 0
 1027 0018 B7070000 		lui	a5,%hi(global_debug_level)
 1028 001c 83C60700 		lbu	a3,%lo(global_debug_level)(a5)
 665:C:/Users/stapi/OneDrive/Desktop/GD32VW553/V1_MQTT_OK/GD32VW55X_Wifi_BLE_SDK/GD32VW55x_RELEASE_V1.0.2/MSDK/ble/app\app_adv_mgr.c **** 
 1029              		.loc 1 665 25
 1030 0020 83294601 		lw	s3,20(a2)
 1031 0024 B284     		mv	s1,a2
 664:C:/Users/stapi/OneDrive/Desktop/GD32VW553/V1_MQTT_OK/GD32VW55X_Wifi_BLE_SDK/GD32VW55x_RELEASE_V1.0.2/MSDK/ble/app\app_adv_mgr.c ****         ble_adv_state_t old_state = p_adv->state;
 1032              		.loc 1 664 9 is_stmt 1
 1033              	.LVL66:
 665:C:/Users/stapi/OneDrive/Desktop/GD32VW553/V1_MQTT_OK/GD32VW55X_Wifi_BLE_SDK/GD32VW55x_RELEASE_V1.0.2/MSDK/ble/app\app_adv_mgr.c **** 
 1034              		.loc 1 665 9
 1035              		.loc 1 667 9
 1036              		.loc 1 667 9
 1037 0026 3E89     		mv	s2,a5
 1038 0028 637ED700 		bleu	a3,a4,.L59
 1039              		.loc 1 667 9 discriminator 1
 1040 002c 83D68500 		lhu	a3,8(a1)
 1041 0030 D041     		lw	a2,4(a1)
 1042              	.LVL67:
 1043 0032 37050000 		lui	a0,%hi(.LC0)
 1044              	.LVL68:
 1045 0036 CE85     		mv	a1,s3
 1046              	.LVL69:
 1047 0038 13050500 		addi	a0,a0,%lo(.LC0)
 1048 003c 97000000 		call	co_printf
 1048      E7800000 
 1049              	.LVL70:
 1050              	.L59:
 1051              		.loc 1 667 9 discriminator 3
 668:C:/Users/stapi/OneDrive/Desktop/GD32VW553/V1_MQTT_OK/GD32VW55X_Wifi_BLE_SDK/GD32VW55x_RELEASE_V1.0.2/MSDK/ble/app\app_adv_mgr.c **** 
 669:C:/Users/stapi/OneDrive/Desktop/GD32VW553/V1_MQTT_OK/GD32VW55X_Wifi_BLE_SDK/GD32VW55x_RELEASE_V1.0.2/MSDK/ble/app\app_adv_mgr.c ****         p_adv->state = p_chg->state;
 1052              		.loc 1 669 9 discriminator 3
 1053              		.loc 1 669 29 is_stmt 0 discriminator 3
 1054 0044 5C40     		lw	a5,4(s0)
 670:C:/Users/stapi/OneDrive/Desktop/GD32VW553/V1_MQTT_OK/GD32VW55X_Wifi_BLE_SDK/GD32VW55x_RELEASE_V1.0.2/MSDK/ble/app\app_adv_mgr.c **** 
 671:C:/Users/stapi/OneDrive/Desktop/GD32VW553/V1_MQTT_OK/GD32VW55X_Wifi_BLE_SDK/GD32VW55x_RELEASE_V1.0.2/MSDK/ble/app\app_adv_mgr.c ****         if ((p_chg->state == BLE_ADV_STATE_CREATE) && (old_state == BLE_ADV_STATE_CREATING)) {
 1055              		.loc 1 671 12 discriminator 3
 1056 0046 0947     		li	a4,2
 669:C:/Users/stapi/OneDrive/Desktop/GD32VW553/V1_MQTT_OK/GD32VW55X_Wifi_BLE_SDK/GD32VW55x_RELEASE_V1.0.2/MSDK/ble/app\app_adv_mgr.c **** 
 1057              		.loc 1 669 22 discriminator 3
 1058 0048 DCC8     		sw	a5,20(s1)
 1059              		.loc 1 671 9 is_stmt 1 discriminator 3
 1060              		.loc 1 671 12 is_stmt 0 discriminator 3
 1061 004a 6397E706 		bne	a5,a4,.L60
 1062              		.loc 1 671 52 discriminator 1
 1063 004e 0547     		li	a4,1
 1064 0050 6397E902 		bne	s3,a4,.L61
 672:C:/Users/stapi/OneDrive/Desktop/GD32VW553/V1_MQTT_OK/GD32VW55X_Wifi_BLE_SDK/GD32VW55x_RELEASE_V1.0.2/MSDK/ble/app\app_adv_mgr.c ****             p_adv->idx = p_chg->adv_idx;
 1065              		.loc 1 672 13 is_stmt 1
 1066              		.loc 1 672 31 is_stmt 0
 1067 0054 83450400 		lbu	a1,0(s0)
 673:C:/Users/stapi/OneDrive/Desktop/GD32VW553/V1_MQTT_OK/GD32VW55X_Wifi_BLE_SDK/GD32VW55x_RELEASE_V1.0.2/MSDK/ble/app\app_adv_mgr.c ****             app_print("adv index %d\r\n", p_adv->idx);
 1068              		.loc 1 673 13
 1069 0058 37050000 		lui	a0,%hi(.LC1)
 1070 005c 13050500 		addi	a0,a0,%lo(.LC1)
 672:C:/Users/stapi/OneDrive/Desktop/GD32VW553/V1_MQTT_OK/GD32VW55X_Wifi_BLE_SDK/GD32VW55x_RELEASE_V1.0.2/MSDK/ble/app\app_adv_mgr.c ****             p_adv->idx = p_chg->adv_idx;
 1071              		.loc 1 672 24
 1072 0060 2380B400 		sb	a1,0(s1)
 1073              		.loc 1 673 13 is_stmt 1
 1074 0064 97000000 		call	co_printf
 1074      E7800000 
 1075              	.LVL71:
 674:C:/Users/stapi/OneDrive/Desktop/GD32VW553/V1_MQTT_OK/GD32VW55X_Wifi_BLE_SDK/GD32VW55x_RELEASE_V1.0.2/MSDK/ble/app\app_adv_mgr.c **** 
 675:C:/Users/stapi/OneDrive/Desktop/GD32VW553/V1_MQTT_OK/GD32VW55X_Wifi_BLE_SDK/GD32VW55x_RELEASE_V1.0.2/MSDK/ble/app\app_adv_mgr.c ****             app_adv_start(p_adv);
 1076              		.loc 1 675 13
 1077 006c 2685     		mv	a0,s1
 1078 006e 97000000 		call	app_adv_start
 1078      E7800000 
 1079              	.LVL72:
 1080              	.L55:
 1081              	.LBE18:
 676:C:/Users/stapi/OneDrive/Desktop/GD32VW553/V1_MQTT_OK/GD32VW55X_Wifi_BLE_SDK/GD32VW55x_RELEASE_V1.0.2/MSDK/ble/app\app_adv_mgr.c ****         } else if ((p_chg->state == BLE_ADV_STATE_CREATE) && (old_state == BLE_ADV_STATE_START)) {
 677:C:/Users/stapi/OneDrive/Desktop/GD32VW553/V1_MQTT_OK/GD32VW55X_Wifi_BLE_SDK/GD32VW55x_RELEASE_V1.0.2/MSDK/ble/app\app_adv_mgr.c ****             dbg_print(NOTICE, "adv stopped, remove %d\r\n", p_adv->remove_after_stop);
 678:C:/Users/stapi/OneDrive/Desktop/GD32VW553/V1_MQTT_OK/GD32VW55X_Wifi_BLE_SDK/GD32VW55x_RELEASE_V1.0.2/MSDK/ble/app\app_adv_mgr.c **** 
 679:C:/Users/stapi/OneDrive/Desktop/GD32VW553/V1_MQTT_OK/GD32VW55X_Wifi_BLE_SDK/GD32VW55x_RELEASE_V1.0.2/MSDK/ble/app\app_adv_mgr.c ****             if (p_adv->remove_after_stop) {
 680:C:/Users/stapi/OneDrive/Desktop/GD32VW553/V1_MQTT_OK/GD32VW55X_Wifi_BLE_SDK/GD32VW55x_RELEASE_V1.0.2/MSDK/ble/app\app_adv_mgr.c ****                 ble_adv_remove(p_adv->idx);
 681:C:/Users/stapi/OneDrive/Desktop/GD32VW553/V1_MQTT_OK/GD32VW55X_Wifi_BLE_SDK/GD32VW55x_RELEASE_V1.0.2/MSDK/ble/app\app_adv_mgr.c ****                 p_adv->remove_after_stop = false;
 682:C:/Users/stapi/OneDrive/Desktop/GD32VW553/V1_MQTT_OK/GD32VW55X_Wifi_BLE_SDK/GD32VW55x_RELEASE_V1.0.2/MSDK/ble/app\app_adv_mgr.c ****             }
 683:C:/Users/stapi/OneDrive/Desktop/GD32VW553/V1_MQTT_OK/GD32VW55X_Wifi_BLE_SDK/GD32VW55x_RELEASE_V1.0.2/MSDK/ble/app\app_adv_mgr.c ****         } else if (p_chg->state == BLE_ADV_STATE_IDLE) {
 684:C:/Users/stapi/OneDrive/Desktop/GD32VW553/V1_MQTT_OK/GD32VW55X_Wifi_BLE_SDK/GD32VW55x_RELEASE_V1.0.2/MSDK/ble/app\app_adv_mgr.c ****             app_free_adv_set(p_adv);
 685:C:/Users/stapi/OneDrive/Desktop/GD32VW553/V1_MQTT_OK/GD32VW55X_Wifi_BLE_SDK/GD32VW55x_RELEASE_V1.0.2/MSDK/ble/app\app_adv_mgr.c ****         }
 686:C:/Users/stapi/OneDrive/Desktop/GD32VW553/V1_MQTT_OK/GD32VW55X_Wifi_BLE_SDK/GD32VW55x_RELEASE_V1.0.2/MSDK/ble/app\app_adv_mgr.c ****     } break;
 687:C:/Users/stapi/OneDrive/Desktop/GD32VW553/V1_MQTT_OK/GD32VW55X_Wifi_BLE_SDK/GD32VW55x_RELEASE_V1.0.2/MSDK/ble/app\app_adv_mgr.c **** 
 688:C:/Users/stapi/OneDrive/Desktop/GD32VW553/V1_MQTT_OK/GD32VW55X_Wifi_BLE_SDK/GD32VW55x_RELEASE_V1.0.2/MSDK/ble/app\app_adv_mgr.c ****     case BLE_ADV_EVT_DATA_UPDATE_RSP: {
 689:C:/Users/stapi/OneDrive/Desktop/GD32VW553/V1_MQTT_OK/GD32VW55X_Wifi_BLE_SDK/GD32VW55x_RELEASE_V1.0.2/MSDK/ble/app\app_adv_mgr.c ****         ble_adv_data_update_rsp_t *p_rsp = (ble_adv_data_update_rsp_t *)p_data;
 690:C:/Users/stapi/OneDrive/Desktop/GD32VW553/V1_MQTT_OK/GD32VW55X_Wifi_BLE_SDK/GD32VW55x_RELEASE_V1.0.2/MSDK/ble/app\app_adv_mgr.c **** 
 691:C:/Users/stapi/OneDrive/Desktop/GD32VW553/V1_MQTT_OK/GD32VW55X_Wifi_BLE_SDK/GD32VW55x_RELEASE_V1.0.2/MSDK/ble/app\app_adv_mgr.c ****         dbg_print(NOTICE, "adv data update rsp, type %d, status 0x%x\r\n", p_rsp->type, p_rsp->stat
 692:C:/Users/stapi/OneDrive/Desktop/GD32VW553/V1_MQTT_OK/GD32VW55X_Wifi_BLE_SDK/GD32VW55x_RELEASE_V1.0.2/MSDK/ble/app\app_adv_mgr.c ****     } break;
 693:C:/Users/stapi/OneDrive/Desktop/GD32VW553/V1_MQTT_OK/GD32VW55X_Wifi_BLE_SDK/GD32VW55x_RELEASE_V1.0.2/MSDK/ble/app\app_adv_mgr.c **** 
 694:C:/Users/stapi/OneDrive/Desktop/GD32VW553/V1_MQTT_OK/GD32VW55X_Wifi_BLE_SDK/GD32VW55x_RELEASE_V1.0.2/MSDK/ble/app\app_adv_mgr.c ****     case BLE_ADV_EVT_SCAN_REQ_RCV: {
 695:C:/Users/stapi/OneDrive/Desktop/GD32VW553/V1_MQTT_OK/GD32VW55X_Wifi_BLE_SDK/GD32VW55x_RELEASE_V1.0.2/MSDK/ble/app\app_adv_mgr.c ****         ble_adv_scan_req_rcv_t *p_req = (ble_adv_scan_req_rcv_t *)p_data;
 696:C:/Users/stapi/OneDrive/Desktop/GD32VW553/V1_MQTT_OK/GD32VW55X_Wifi_BLE_SDK/GD32VW55x_RELEASE_V1.0.2/MSDK/ble/app\app_adv_mgr.c **** 
 697:C:/Users/stapi/OneDrive/Desktop/GD32VW553/V1_MQTT_OK/GD32VW55X_Wifi_BLE_SDK/GD32VW55x_RELEASE_V1.0.2/MSDK/ble/app\app_adv_mgr.c ****         dbg_print(NOTICE, "scan req rcv, device addr %02X:%02X:%02X:%02X:%02X:%02X\r\n",
 698:C:/Users/stapi/OneDrive/Desktop/GD32VW553/V1_MQTT_OK/GD32VW55X_Wifi_BLE_SDK/GD32VW55x_RELEASE_V1.0.2/MSDK/ble/app\app_adv_mgr.c ****                p_req->peer_addr.addr[5], p_req->peer_addr.addr[4], p_req->peer_addr.addr[3],
 699:C:/Users/stapi/OneDrive/Desktop/GD32VW553/V1_MQTT_OK/GD32VW55X_Wifi_BLE_SDK/GD32VW55x_RELEASE_V1.0.2/MSDK/ble/app\app_adv_mgr.c ****                p_req->peer_addr.addr[2], p_req->peer_addr.addr[1], p_req->peer_addr.addr[0]);
 700:C:/Users/stapi/OneDrive/Desktop/GD32VW553/V1_MQTT_OK/GD32VW55X_Wifi_BLE_SDK/GD32VW55x_RELEASE_V1.0.2/MSDK/ble/app\app_adv_mgr.c ****     } break;
 701:C:/Users/stapi/OneDrive/Desktop/GD32VW553/V1_MQTT_OK/GD32VW55X_Wifi_BLE_SDK/GD32VW55x_RELEASE_V1.0.2/MSDK/ble/app\app_adv_mgr.c **** 
 702:C:/Users/stapi/OneDrive/Desktop/GD32VW553/V1_MQTT_OK/GD32VW55X_Wifi_BLE_SDK/GD32VW55x_RELEASE_V1.0.2/MSDK/ble/app\app_adv_mgr.c ****     default:
 703:C:/Users/stapi/OneDrive/Desktop/GD32VW553/V1_MQTT_OK/GD32VW55X_Wifi_BLE_SDK/GD32VW55x_RELEASE_V1.0.2/MSDK/ble/app\app_adv_mgr.c ****         break;
 704:C:/Users/stapi/OneDrive/Desktop/GD32VW553/V1_MQTT_OK/GD32VW55X_Wifi_BLE_SDK/GD32VW55x_RELEASE_V1.0.2/MSDK/ble/app\app_adv_mgr.c ****     }
 705:C:/Users/stapi/OneDrive/Desktop/GD32VW553/V1_MQTT_OK/GD32VW55X_Wifi_BLE_SDK/GD32VW55x_RELEASE_V1.0.2/MSDK/ble/app\app_adv_mgr.c **** }
 1082              		.loc 1 705 1 is_stmt 0
 1083 0076 17030000 		tail	__riscv_restore_4
 1083      67000300 
 1084              		.cfi_remember_state
 1085              		.cfi_restore 19
 1086              		.cfi_restore 18
 1087              		.cfi_restore 9
 1088              		.cfi_restore 8
 1089              		.cfi_restore 1
 1090              		.cfi_def_cfa_offset 0
 1091              	.LVL73:
 1092              	.L61:
 1093              		.cfi_restore_state
 1094              	.LBB21:
 676:C:/Users/stapi/OneDrive/Desktop/GD32VW553/V1_MQTT_OK/GD32VW55X_Wifi_BLE_SDK/GD32VW55x_RELEASE_V1.0.2/MSDK/ble/app\app_adv_mgr.c ****         } else if ((p_chg->state == BLE_ADV_STATE_CREATE) && (old_state == BLE_ADV_STATE_START)) {
 1095              		.loc 1 676 16 is_stmt 1 discriminator 1
 676:C:/Users/stapi/OneDrive/Desktop/GD32VW553/V1_MQTT_OK/GD32VW55X_Wifi_BLE_SDK/GD32VW55x_RELEASE_V1.0.2/MSDK/ble/app\app_adv_mgr.c ****         } else if ((p_chg->state == BLE_ADV_STATE_CREATE) && (old_state == BLE_ADV_STATE_START)) {
 1096              		.loc 1 676 59 is_stmt 0 discriminator 1
 1097 007e 1947     		li	a4,6
 1098 0080 E39BE9FE 		bne	s3,a4,.L55
 677:C:/Users/stapi/OneDrive/Desktop/GD32VW553/V1_MQTT_OK/GD32VW55X_Wifi_BLE_SDK/GD32VW55x_RELEASE_V1.0.2/MSDK/ble/app\app_adv_mgr.c **** 
 1099              		.loc 1 677 13 is_stmt 1
 677:C:/Users/stapi/OneDrive/Desktop/GD32VW553/V1_MQTT_OK/GD32VW55X_Wifi_BLE_SDK/GD32VW55x_RELEASE_V1.0.2/MSDK/ble/app\app_adv_mgr.c **** 
 1100              		.loc 1 677 13
 1101 0084 03470900 		lbu	a4,%lo(global_debug_level)(s2)
 1102 0088 63FCE700 		bleu	a4,a5,.L63
 677:C:/Users/stapi/OneDrive/Desktop/GD32VW553/V1_MQTT_OK/GD32VW55X_Wifi_BLE_SDK/GD32VW55x_RELEASE_V1.0.2/MSDK/ble/app\app_adv_mgr.c **** 
 1103              		.loc 1 677 13 discriminator 1
 1104 008c 83C5C400 		lbu	a1,12(s1)
 1105 0090 37050000 		lui	a0,%hi(.LC2)
 1106 0094 13050500 		addi	a0,a0,%lo(.LC2)
 1107 0098 97000000 		call	co_printf
 1107      E7800000 
 1108              	.LVL74:
 1109              	.L63:
 677:C:/Users/stapi/OneDrive/Desktop/GD32VW553/V1_MQTT_OK/GD32VW55X_Wifi_BLE_SDK/GD32VW55x_RELEASE_V1.0.2/MSDK/ble/app\app_adv_mgr.c **** 
 1110              		.loc 1 677 13 discriminator 3
 679:C:/Users/stapi/OneDrive/Desktop/GD32VW553/V1_MQTT_OK/GD32VW55X_Wifi_BLE_SDK/GD32VW55x_RELEASE_V1.0.2/MSDK/ble/app\app_adv_mgr.c ****                 ble_adv_remove(p_adv->idx);
 1111              		.loc 1 679 13 discriminator 3
 679:C:/Users/stapi/OneDrive/Desktop/GD32VW553/V1_MQTT_OK/GD32VW55X_Wifi_BLE_SDK/GD32VW55x_RELEASE_V1.0.2/MSDK/ble/app\app_adv_mgr.c ****                 ble_adv_remove(p_adv->idx);
 1112              		.loc 1 679 16 is_stmt 0 discriminator 3
 1113 00a0 83C7C400 		lbu	a5,12(s1)
 1114 00a4 E9DB     		beq	a5,zero,.L55
 680:C:/Users/stapi/OneDrive/Desktop/GD32VW553/V1_MQTT_OK/GD32VW55X_Wifi_BLE_SDK/GD32VW55x_RELEASE_V1.0.2/MSDK/ble/app\app_adv_mgr.c ****                 p_adv->remove_after_stop = false;
 1115              		.loc 1 680 17 is_stmt 1
 1116 00a6 03C50400 		lbu	a0,0(s1)
 1117 00aa 97000000 		call	ble_adv_remove
 1117      E7800000 
 1118              	.LVL75:
 681:C:/Users/stapi/OneDrive/Desktop/GD32VW553/V1_MQTT_OK/GD32VW55X_Wifi_BLE_SDK/GD32VW55x_RELEASE_V1.0.2/MSDK/ble/app\app_adv_mgr.c ****             }
 1119              		.loc 1 681 17
 681:C:/Users/stapi/OneDrive/Desktop/GD32VW553/V1_MQTT_OK/GD32VW55X_Wifi_BLE_SDK/GD32VW55x_RELEASE_V1.0.2/MSDK/ble/app\app_adv_mgr.c ****             }
 1120              		.loc 1 681 42 is_stmt 0
 1121 00b2 23860400 		sb	zero,12(s1)
 1122 00b6 C1B7     		j	.L55
 1123              	.L60:
 676:C:/Users/stapi/OneDrive/Desktop/GD32VW553/V1_MQTT_OK/GD32VW55X_Wifi_BLE_SDK/GD32VW55x_RELEASE_V1.0.2/MSDK/ble/app\app_adv_mgr.c ****             dbg_print(NOTICE, "adv stopped, remove %d\r\n", p_adv->remove_after_stop);
 1124              		.loc 1 676 16 is_stmt 1
 683:C:/Users/stapi/OneDrive/Desktop/GD32VW553/V1_MQTT_OK/GD32VW55X_Wifi_BLE_SDK/GD32VW55x_RELEASE_V1.0.2/MSDK/ble/app\app_adv_mgr.c ****             app_free_adv_set(p_adv);
 1125              		.loc 1 683 16
 683:C:/Users/stapi/OneDrive/Desktop/GD32VW553/V1_MQTT_OK/GD32VW55X_Wifi_BLE_SDK/GD32VW55x_RELEASE_V1.0.2/MSDK/ble/app\app_adv_mgr.c ****             app_free_adv_set(p_adv);
 1126              		.loc 1 683 19 is_stmt 0
 1127 00b8 DDFF     		bne	a5,zero,.L55
 684:C:/Users/stapi/OneDrive/Desktop/GD32VW553/V1_MQTT_OK/GD32VW55X_Wifi_BLE_SDK/GD32VW55x_RELEASE_V1.0.2/MSDK/ble/app\app_adv_mgr.c ****         }
 1128              		.loc 1 684 13 is_stmt 1
 1129              	.LVL76:
 1130              	.LBB19:
 1131              	.LBB20:
 286:C:/Users/stapi/OneDrive/Desktop/GD32VW553/V1_MQTT_OK/GD32VW55X_Wifi_BLE_SDK/GD32VW55x_RELEASE_V1.0.2/MSDK/ble/app\app_adv_mgr.c ****     p_adv->state = BLE_ADV_STATE_IDLE;
 1132              		.loc 1 286 5
 286:C:/Users/stapi/OneDrive/Desktop/GD32VW553/V1_MQTT_OK/GD32VW55X_Wifi_BLE_SDK/GD32VW55x_RELEASE_V1.0.2/MSDK/ble/app\app_adv_mgr.c ****     p_adv->state = BLE_ADV_STATE_IDLE;
 1133              		.loc 1 286 16 is_stmt 0
 1134 00ba FD57     		li	a5,-1
 1135 00bc 2380F400 		sb	a5,0(s1)
 287:C:/Users/stapi/OneDrive/Desktop/GD32VW553/V1_MQTT_OK/GD32VW55X_Wifi_BLE_SDK/GD32VW55x_RELEASE_V1.0.2/MSDK/ble/app\app_adv_mgr.c **** }
 1136              		.loc 1 287 5 is_stmt 1
 288:C:/Users/stapi/OneDrive/Desktop/GD32VW553/V1_MQTT_OK/GD32VW55X_Wifi_BLE_SDK/GD32VW55x_RELEASE_V1.0.2/MSDK/ble/app\app_adv_mgr.c **** 
 1137              		.loc 1 288 1 is_stmt 0
 1138 00c0 5DBF     		j	.L55
 1139              	.LVL77:
 1140              	.L56:
 1141              	.LBE20:
 1142              	.LBE19:
 1143              	.LBE21:
 1144              	.LBB22:
 689:C:/Users/stapi/OneDrive/Desktop/GD32VW553/V1_MQTT_OK/GD32VW55X_Wifi_BLE_SDK/GD32VW55x_RELEASE_V1.0.2/MSDK/ble/app\app_adv_mgr.c **** 
 1145              		.loc 1 689 9 is_stmt 1
 691:C:/Users/stapi/OneDrive/Desktop/GD32VW553/V1_MQTT_OK/GD32VW55X_Wifi_BLE_SDK/GD32VW55x_RELEASE_V1.0.2/MSDK/ble/app\app_adv_mgr.c ****     } break;
 1146              		.loc 1 691 9
 691:C:/Users/stapi/OneDrive/Desktop/GD32VW553/V1_MQTT_OK/GD32VW55X_Wifi_BLE_SDK/GD32VW55x_RELEASE_V1.0.2/MSDK/ble/app\app_adv_mgr.c ****     } break;
 1147              		.loc 1 691 9
 1148 00c2 B7070000 		lui	a5,%hi(global_debug_level)
 1149 00c6 03C70700 		lbu	a4,%lo(global_debug_level)(a5)
 1150 00ca 8947     		li	a5,2
 1151 00cc E3F5E7FA 		bleu	a4,a5,.L55
 691:C:/Users/stapi/OneDrive/Desktop/GD32VW553/V1_MQTT_OK/GD32VW55X_Wifi_BLE_SDK/GD32VW55x_RELEASE_V1.0.2/MSDK/ble/app\app_adv_mgr.c ****     } break;
 1152              		.loc 1 691 9 discriminator 1
 1153 00d0 03D64500 		lhu	a2,4(a1)
 1154              	.LVL78:
 1155 00d4 8C41     		lw	a1,0(a1)
 1156 00d6 37050000 		lui	a0,%hi(.LC3)
 1157              	.LVL79:
 1158 00da 13050500 		addi	a0,a0,%lo(.LC3)
 1159 00de 97000000 		call	co_printf
 1159      E7800000 
 1160              	.LVL80:
 1161 00e6 41BF     		j	.L55
 1162              	.LVL81:
 1163              	.L57:
 1164              	.LBE22:
 1165              	.LBB23:
 695:C:/Users/stapi/OneDrive/Desktop/GD32VW553/V1_MQTT_OK/GD32VW55X_Wifi_BLE_SDK/GD32VW55x_RELEASE_V1.0.2/MSDK/ble/app\app_adv_mgr.c **** 
 1166              		.loc 1 695 9
 697:C:/Users/stapi/OneDrive/Desktop/GD32VW553/V1_MQTT_OK/GD32VW55X_Wifi_BLE_SDK/GD32VW55x_RELEASE_V1.0.2/MSDK/ble/app\app_adv_mgr.c ****                p_req->peer_addr.addr[5], p_req->peer_addr.addr[4], p_req->peer_addr.addr[3],
 1167              		.loc 1 697 9
 697:C:/Users/stapi/OneDrive/Desktop/GD32VW553/V1_MQTT_OK/GD32VW55X_Wifi_BLE_SDK/GD32VW55x_RELEASE_V1.0.2/MSDK/ble/app\app_adv_mgr.c ****                p_req->peer_addr.addr[5], p_req->peer_addr.addr[4], p_req->peer_addr.addr[3],
 1168              		.loc 1 697 9
 1169 00e8 B7070000 		lui	a5,%hi(global_debug_level)
 1170 00ec 83C70700 		lbu	a5,%lo(global_debug_level)(a5)
 1171 00f0 E373F5F8 		bleu	a5,a0,.L55
 697:C:/Users/stapi/OneDrive/Desktop/GD32VW553/V1_MQTT_OK/GD32VW55X_Wifi_BLE_SDK/GD32VW55x_RELEASE_V1.0.2/MSDK/ble/app\app_adv_mgr.c ****                p_req->peer_addr.addr[5], p_req->peer_addr.addr[4], p_req->peer_addr.addr[3],
 1172              		.loc 1 697 9 discriminator 1
 1173 00f4 03C81500 		lbu	a6,1(a1)
 1174 00f8 83C72500 		lbu	a5,2(a1)
 1175 00fc 03C73500 		lbu	a4,3(a1)
 1176 0100 83C64500 		lbu	a3,4(a1)
 1177 0104 03C65500 		lbu	a2,5(a1)
 1178              	.LVL82:
 1179 0108 83C56500 		lbu	a1,6(a1)
 1180 010c 37050000 		lui	a0,%hi(.LC4)
 1181              	.LVL83:
 1182 0110 13050500 		addi	a0,a0,%lo(.LC4)
 1183 0114 97000000 		call	co_printf
 1183      E7800000 
 1184              	.LVL84:
 1185              	.LBE23:
 1186              		.loc 1 705 1 is_stmt 0 discriminator 1
 1187 011c A9BF     		j	.L55
 1188              		.cfi_endproc
 1189              	.LFE6:
 1191              		.section	.text.app_adv_create,"ax",@progbits
 1192              		.align	1
 1193              		.globl	app_adv_create
 1195              	app_adv_create:
 1196              	.LFB7:
 706:C:/Users/stapi/OneDrive/Desktop/GD32VW553/V1_MQTT_OK/GD32VW55X_Wifi_BLE_SDK/GD32VW55x_RELEASE_V1.0.2/MSDK/ble/app\app_adv_mgr.c **** 
 707:C:/Users/stapi/OneDrive/Desktop/GD32VW553/V1_MQTT_OK/GD32VW55X_Wifi_BLE_SDK/GD32VW55x_RELEASE_V1.0.2/MSDK/ble/app\app_adv_mgr.c **** /*!
 708:C:/Users/stapi/OneDrive/Desktop/GD32VW553/V1_MQTT_OK/GD32VW55X_Wifi_BLE_SDK/GD32VW55x_RELEASE_V1.0.2/MSDK/ble/app\app_adv_mgr.c ****     \brief      Create an advertising
 709:C:/Users/stapi/OneDrive/Desktop/GD32VW553/V1_MQTT_OK/GD32VW55X_Wifi_BLE_SDK/GD32VW55x_RELEASE_V1.0.2/MSDK/ble/app\app_adv_mgr.c ****     \param[in]  p_param: pointer to advertising parameters
 710:C:/Users/stapi/OneDrive/Desktop/GD32VW553/V1_MQTT_OK/GD32VW55X_Wifi_BLE_SDK/GD32VW55x_RELEASE_V1.0.2/MSDK/ble/app\app_adv_mgr.c ****     \param[out] none
 711:C:/Users/stapi/OneDrive/Desktop/GD32VW553/V1_MQTT_OK/GD32VW55X_Wifi_BLE_SDK/GD32VW55x_RELEASE_V1.0.2/MSDK/ble/app\app_adv_mgr.c ****     \retval     ble_status_t: BLE_ERR_NO_ERROR on success, otherwise an error code
 712:C:/Users/stapi/OneDrive/Desktop/GD32VW553/V1_MQTT_OK/GD32VW55X_Wifi_BLE_SDK/GD32VW55x_RELEASE_V1.0.2/MSDK/ble/app\app_adv_mgr.c **** */
 713:C:/Users/stapi/OneDrive/Desktop/GD32VW553/V1_MQTT_OK/GD32VW55X_Wifi_BLE_SDK/GD32VW55x_RELEASE_V1.0.2/MSDK/ble/app\app_adv_mgr.c **** ble_status_t app_adv_create(app_adv_param_t *p_param)
 714:C:/Users/stapi/OneDrive/Desktop/GD32VW553/V1_MQTT_OK/GD32VW55X_Wifi_BLE_SDK/GD32VW55x_RELEASE_V1.0.2/MSDK/ble/app\app_adv_mgr.c **** {
 1197              		.loc 1 714 1 is_stmt 1
 1198              		.cfi_startproc
 1199              	.LVL85:
 1200 0000 17030000 		call	t0,__riscv_save_6
 1200      E7020300 
 1201              		.cfi_offset 21, -28
 1202              		.cfi_offset 20, -24
 1203              		.cfi_offset 19, -20
 1204              		.cfi_offset 18, -16
 1205              		.cfi_offset 9, -12
 1206              		.cfi_offset 8, -8
 1207              		.cfi_offset 1, -4
 1208              		.cfi_def_cfa_offset 32
 715:C:/Users/stapi/OneDrive/Desktop/GD32VW553/V1_MQTT_OK/GD32VW55X_Wifi_BLE_SDK/GD32VW55x_RELEASE_V1.0.2/MSDK/ble/app\app_adv_mgr.c ****     app_adv_set_t *p_adv;
 1209              		.loc 1 715 5
 716:C:/Users/stapi/OneDrive/Desktop/GD32VW553/V1_MQTT_OK/GD32VW55X_Wifi_BLE_SDK/GD32VW55x_RELEASE_V1.0.2/MSDK/ble/app\app_adv_mgr.c ****     ble_adv_param_t adv_param = {0};
 1210              		.loc 1 716 5
 714:C:/Users/stapi/OneDrive/Desktop/GD32VW553/V1_MQTT_OK/GD32VW55X_Wifi_BLE_SDK/GD32VW55x_RELEASE_V1.0.2/MSDK/ble/app\app_adv_mgr.c ****     app_adv_set_t *p_adv;
 1211              		.loc 1 714 1 is_stmt 0
 1212 0008 3971     		addi	sp,sp,-64
 1213              		.cfi_def_cfa_offset 96
 714:C:/Users/stapi/OneDrive/Desktop/GD32VW553/V1_MQTT_OK/GD32VW55X_Wifi_BLE_SDK/GD32VW55x_RELEASE_V1.0.2/MSDK/ble/app\app_adv_mgr.c ****     app_adv_set_t *p_adv;
 1214              		.loc 1 714 1
 1215 000a 2A84     		mv	s0,a0
 1216              		.loc 1 716 21
 1217 000c 1306C002 		li	a2,44
 1218 0010 8145     		li	a1,0
 1219 0012 4808     		addi	a0,sp,20
 1220              	.LVL86:
 1221 0014 97000000 		call	memset
 1221      E7800000 
 1222              	.LVL87:
 717:C:/Users/stapi/OneDrive/Desktop/GD32VW553/V1_MQTT_OK/GD32VW55X_Wifi_BLE_SDK/GD32VW55x_RELEASE_V1.0.2/MSDK/ble/app\app_adv_mgr.c **** 
 718:C:/Users/stapi/OneDrive/Desktop/GD32VW553/V1_MQTT_OK/GD32VW55X_Wifi_BLE_SDK/GD32VW55x_RELEASE_V1.0.2/MSDK/ble/app\app_adv_mgr.c ****     p_adv = app_get_free_adv();
 1223              		.loc 1 718 5 is_stmt 1
 1224              	.LBB30:
 1225              	.LBB31:
 267:C:/Users/stapi/OneDrive/Desktop/GD32VW553/V1_MQTT_OK/GD32VW55X_Wifi_BLE_SDK/GD32VW55x_RELEASE_V1.0.2/MSDK/ble/app\app_adv_mgr.c **** 
 1226              		.loc 1 267 5
 269:C:/Users/stapi/OneDrive/Desktop/GD32VW553/V1_MQTT_OK/GD32VW55X_Wifi_BLE_SDK/GD32VW55x_RELEASE_V1.0.2/MSDK/ble/app\app_adv_mgr.c ****         if (app_adv_env.adv_set[i].idx == ADV_INVALID_IDX) {
 1227              		.loc 1 269 5
 269:C:/Users/stapi/OneDrive/Desktop/GD32VW553/V1_MQTT_OK/GD32VW55X_Wifi_BLE_SDK/GD32VW55x_RELEASE_V1.0.2/MSDK/ble/app\app_adv_mgr.c ****         if (app_adv_env.adv_set[i].idx == ADV_INVALID_IDX) {
 1228              		.loc 1 269 17
 270:C:/Users/stapi/OneDrive/Desktop/GD32VW553/V1_MQTT_OK/GD32VW55X_Wifi_BLE_SDK/GD32VW55x_RELEASE_V1.0.2/MSDK/ble/app\app_adv_mgr.c ****             return &app_adv_env.adv_set[i];
 1229              		.loc 1 270 9
 270:C:/Users/stapi/OneDrive/Desktop/GD32VW553/V1_MQTT_OK/GD32VW55X_Wifi_BLE_SDK/GD32VW55x_RELEASE_V1.0.2/MSDK/ble/app\app_adv_mgr.c ****             return &app_adv_env.adv_set[i];
 1230              		.loc 1 270 35 is_stmt 0
 1231 001c B7040000 		lui	s1,%hi(.LANCHOR0)
 1232 0020 93870400 		addi	a5,s1,%lo(.LANCHOR0)
 270:C:/Users/stapi/OneDrive/Desktop/GD32VW553/V1_MQTT_OK/GD32VW55X_Wifi_BLE_SDK/GD32VW55x_RELEASE_V1.0.2/MSDK/ble/app\app_adv_mgr.c ****             return &app_adv_env.adv_set[i];
 1233              		.loc 1 270 12
 1234 0024 03C74700 		lbu	a4,4(a5)
 1235 0028 9307F00F 		li	a5,255
 1236 002c 93840400 		addi	s1,s1,%lo(.LANCHOR0)
 1237 0030 6306F70E 		beq	a4,a5,.L87
 269:C:/Users/stapi/OneDrive/Desktop/GD32VW553/V1_MQTT_OK/GD32VW55X_Wifi_BLE_SDK/GD32VW55x_RELEASE_V1.0.2/MSDK/ble/app\app_adv_mgr.c ****         if (app_adv_env.adv_set[i].idx == ADV_INVALID_IDX) {
 1238              		.loc 1 269 38 is_stmt 1
 1239              	.LVL88:
 269:C:/Users/stapi/OneDrive/Desktop/GD32VW553/V1_MQTT_OK/GD32VW55X_Wifi_BLE_SDK/GD32VW55x_RELEASE_V1.0.2/MSDK/ble/app\app_adv_mgr.c ****         if (app_adv_env.adv_set[i].idx == ADV_INVALID_IDX) {
 1240              		.loc 1 269 17
 270:C:/Users/stapi/OneDrive/Desktop/GD32VW553/V1_MQTT_OK/GD32VW55X_Wifi_BLE_SDK/GD32VW55x_RELEASE_V1.0.2/MSDK/ble/app\app_adv_mgr.c ****             return &app_adv_env.adv_set[i];
 1241              		.loc 1 270 9
 270:C:/Users/stapi/OneDrive/Desktop/GD32VW553/V1_MQTT_OK/GD32VW55X_Wifi_BLE_SDK/GD32VW55x_RELEASE_V1.0.2/MSDK/ble/app\app_adv_mgr.c ****             return &app_adv_env.adv_set[i];
 1242              		.loc 1 270 12 is_stmt 0
 1243 0034 03C7C401 		lbu	a4,28(s1)
 1244              	.LBE31:
 1245              	.LBE30:
 719:C:/Users/stapi/OneDrive/Desktop/GD32VW553/V1_MQTT_OK/GD32VW55X_Wifi_BLE_SDK/GD32VW55x_RELEASE_V1.0.2/MSDK/ble/app\app_adv_mgr.c ****     if (p_adv == NULL) {
 720:C:/Users/stapi/OneDrive/Desktop/GD32VW553/V1_MQTT_OK/GD32VW55X_Wifi_BLE_SDK/GD32VW55x_RELEASE_V1.0.2/MSDK/ble/app\app_adv_mgr.c ****         return BLE_ERR_NO_RESOURCES;
 1246              		.loc 1 720 16
 1247 0038 1305200E 		li	a0,226
 1248              	.LBB36:
 1249              	.LBB32:
 270:C:/Users/stapi/OneDrive/Desktop/GD32VW553/V1_MQTT_OK/GD32VW55X_Wifi_BLE_SDK/GD32VW55x_RELEASE_V1.0.2/MSDK/ble/app\app_adv_mgr.c ****             return &app_adv_env.adv_set[i];
 1250              		.loc 1 270 12
 1251 003c 631BF70C 		bne	a4,a5,.L69
 270:C:/Users/stapi/OneDrive/Desktop/GD32VW553/V1_MQTT_OK/GD32VW55X_Wifi_BLE_SDK/GD32VW55x_RELEASE_V1.0.2/MSDK/ble/app\app_adv_mgr.c ****             return &app_adv_env.adv_set[i];
 1252              		.loc 1 270 35
 1253 0040 8549     		li	s3,1
 1254              	.LVL89:
 1255              	.L70:
 271:C:/Users/stapi/OneDrive/Desktop/GD32VW553/V1_MQTT_OK/GD32VW55X_Wifi_BLE_SDK/GD32VW55x_RELEASE_V1.0.2/MSDK/ble/app\app_adv_mgr.c ****         }
 1256              		.loc 1 271 13 is_stmt 1
 271:C:/Users/stapi/OneDrive/Desktop/GD32VW553/V1_MQTT_OK/GD32VW55X_Wifi_BLE_SDK/GD32VW55x_RELEASE_V1.0.2/MSDK/ble/app\app_adv_mgr.c ****         }
 1257              		.loc 1 271 20 is_stmt 0
 1258 0042 E147     		li	a5,24
 1259 0044 B387F902 		mul	a5,s3,a5
 1260              	.LBE32:
 1261              	.LBE36:
 721:C:/Users/stapi/OneDrive/Desktop/GD32VW553/V1_MQTT_OK/GD32VW55X_Wifi_BLE_SDK/GD32VW55x_RELEASE_V1.0.2/MSDK/ble/app\app_adv_mgr.c ****     }
 722:C:/Users/stapi/OneDrive/Desktop/GD32VW553/V1_MQTT_OK/GD32VW55X_Wifi_BLE_SDK/GD32VW55x_RELEASE_V1.0.2/MSDK/ble/app\app_adv_mgr.c **** 
 723:C:/Users/stapi/OneDrive/Desktop/GD32VW553/V1_MQTT_OK/GD32VW55X_Wifi_BLE_SDK/GD32VW55x_RELEASE_V1.0.2/MSDK/ble/app\app_adv_mgr.c ****     p_adv->max_data_len = p_param->max_data_len;
 1262              		.loc 1 723 25
 1263 0048 0357A400 		lhu	a4,10(s0)
 1264              	.LBB37:
 1265              	.LBB33:
 271:C:/Users/stapi/OneDrive/Desktop/GD32VW553/V1_MQTT_OK/GD32VW55X_Wifi_BLE_SDK/GD32VW55x_RELEASE_V1.0.2/MSDK/ble/app\app_adv_mgr.c ****         }
 1266              		.loc 1 271 20
 1267 004c 938A4700 		addi	s5,a5,4
 1268              	.LBE33:
 1269              	.LBE37:
 1270              		.loc 1 723 25
 1271 0050 A697     		add	a5,s1,a5
 1272 0052 2397E700 		sh	a4,14(a5)
 724:C:/Users/stapi/OneDrive/Desktop/GD32VW553/V1_MQTT_OK/GD32VW55X_Wifi_BLE_SDK/GD32VW55x_RELEASE_V1.0.2/MSDK/ble/app\app_adv_mgr.c **** 
 725:C:/Users/stapi/OneDrive/Desktop/GD32VW553/V1_MQTT_OK/GD32VW55X_Wifi_BLE_SDK/GD32VW55x_RELEASE_V1.0.2/MSDK/ble/app\app_adv_mgr.c ****     adv_param.param.own_addr_type = p_param->own_addr_type;
 1273              		.loc 1 725 35
 1274 0056 83477400 		lbu	a5,7(s0)
 726:C:/Users/stapi/OneDrive/Desktop/GD32VW553/V1_MQTT_OK/GD32VW55X_Wifi_BLE_SDK/GD32VW55x_RELEASE_V1.0.2/MSDK/ble/app\app_adv_mgr.c **** 
 727:C:/Users/stapi/OneDrive/Desktop/GD32VW553/V1_MQTT_OK/GD32VW55X_Wifi_BLE_SDK/GD32VW55x_RELEASE_V1.0.2/MSDK/ble/app\app_adv_mgr.c ****     if (p_param->type == BLE_ADV_TYPE_LEGACY) {
 1275              		.loc 1 727 16
 1276 005a 03490400 		lbu	s2,0(s0)
 1277              	.LBB38:
 1278              	.LBB34:
 271:C:/Users/stapi/OneDrive/Desktop/GD32VW553/V1_MQTT_OK/GD32VW55X_Wifi_BLE_SDK/GD32VW55x_RELEASE_V1.0.2/MSDK/ble/app\app_adv_mgr.c ****         }
 1279              		.loc 1 271 20
 1280 005e A69A     		add	s5,s1,s5
 1281              	.LVL90:
 1282              	.LBE34:
 1283              	.LBE38:
 719:C:/Users/stapi/OneDrive/Desktop/GD32VW553/V1_MQTT_OK/GD32VW55X_Wifi_BLE_SDK/GD32VW55x_RELEASE_V1.0.2/MSDK/ble/app\app_adv_mgr.c ****         return BLE_ERR_NO_RESOURCES;
 1284              		.loc 1 719 5 is_stmt 1
 723:C:/Users/stapi/OneDrive/Desktop/GD32VW553/V1_MQTT_OK/GD32VW55X_Wifi_BLE_SDK/GD32VW55x_RELEASE_V1.0.2/MSDK/ble/app\app_adv_mgr.c **** 
 1285              		.loc 1 723 5
 725:C:/Users/stapi/OneDrive/Desktop/GD32VW553/V1_MQTT_OK/GD32VW55X_Wifi_BLE_SDK/GD32VW55x_RELEASE_V1.0.2/MSDK/ble/app\app_adv_mgr.c **** 
 1286              		.loc 1 725 5
 725:C:/Users/stapi/OneDrive/Desktop/GD32VW553/V1_MQTT_OK/GD32VW55X_Wifi_BLE_SDK/GD32VW55x_RELEASE_V1.0.2/MSDK/ble/app\app_adv_mgr.c **** 
 1287              		.loc 1 725 35 is_stmt 0
 1288 0060 230AF100 		sb	a5,20(sp)
 1289              		.loc 1 727 5 is_stmt 1
 1290              		.loc 1 727 8 is_stmt 0
 1291 0064 6313090C 		bne	s2,zero,.L72
 728:C:/Users/stapi/OneDrive/Desktop/GD32VW553/V1_MQTT_OK/GD32VW55X_Wifi_BLE_SDK/GD32VW55x_RELEASE_V1.0.2/MSDK/ble/app\app_adv_mgr.c ****         adv_param.param.type = BLE_GAP_ADV_TYPE_LEGACY;
 1292              		.loc 1 728 9 is_stmt 1
 729:C:/Users/stapi/OneDrive/Desktop/GD32VW553/V1_MQTT_OK/GD32VW55X_Wifi_BLE_SDK/GD32VW55x_RELEASE_V1.0.2/MSDK/ble/app\app_adv_mgr.c ****         adv_param.param.prop = p_param->prop;
 1293              		.loc 1 729 9
 1294              		.loc 1 729 30 is_stmt 0
 1295 0068 83572400 		lhu	a5,2(s0)
 1296 006c 231BF100 		sh	a5,22(sp)
 730:C:/Users/stapi/OneDrive/Desktop/GD32VW553/V1_MQTT_OK/GD32VW55X_Wifi_BLE_SDK/GD32VW55x_RELEASE_V1.0.2/MSDK/ble/app\app_adv_mgr.c **** 
 731:C:/Users/stapi/OneDrive/Desktop/GD32VW553/V1_MQTT_OK/GD32VW55X_Wifi_BLE_SDK/GD32VW55x_RELEASE_V1.0.2/MSDK/ble/app\app_adv_mgr.c ****         if (p_param->wl_enable) {
 1297              		.loc 1 731 9 is_stmt 1
 1298              		.loc 1 731 12 is_stmt 0
 1299 0070 83476400 		lbu	a5,6(s0)
 1300 0074 D5C7     		beq	a5,zero,.L73
 732:C:/Users/stapi/OneDrive/Desktop/GD32VW553/V1_MQTT_OK/GD32VW55X_Wifi_BLE_SDK/GD32VW55x_RELEASE_V1.0.2/MSDK/ble/app\app_adv_mgr.c ****             adv_param.param.filter_pol = BLE_GAP_ADV_ALLOW_SCAN_FAL_CON_FAL;
 1301              		.loc 1 732 13 is_stmt 1
 1302              		.loc 1 732 40 is_stmt 0
 1303 0076 8D47     		li	a5,3
 1304 0078 230DF100 		sb	a5,26(sp)
 733:C:/Users/stapi/OneDrive/Desktop/GD32VW553/V1_MQTT_OK/GD32VW55X_Wifi_BLE_SDK/GD32VW55x_RELEASE_V1.0.2/MSDK/ble/app\app_adv_mgr.c ****             adv_param.param.disc_mode = BLE_GAP_ADV_MODE_NON_DISC;
 1305              		.loc 1 733 13 is_stmt 1
 1306              	.L74:
 734:C:/Users/stapi/OneDrive/Desktop/GD32VW553/V1_MQTT_OK/GD32VW55X_Wifi_BLE_SDK/GD32VW55x_RELEASE_V1.0.2/MSDK/ble/app\app_adv_mgr.c ****         } else {
 735:C:/Users/stapi/OneDrive/Desktop/GD32VW553/V1_MQTT_OK/GD32VW55X_Wifi_BLE_SDK/GD32VW55x_RELEASE_V1.0.2/MSDK/ble/app\app_adv_mgr.c ****             adv_param.param.filter_pol = BLE_GAP_ADV_ALLOW_SCAN_ANY_CON_ANY;
 736:C:/Users/stapi/OneDrive/Desktop/GD32VW553/V1_MQTT_OK/GD32VW55X_Wifi_BLE_SDK/GD32VW55x_RELEASE_V1.0.2/MSDK/ble/app\app_adv_mgr.c ****             adv_param.param.disc_mode = p_param->disc_mode;
 737:C:/Users/stapi/OneDrive/Desktop/GD32VW553/V1_MQTT_OK/GD32VW55X_Wifi_BLE_SDK/GD32VW55x_RELEASE_V1.0.2/MSDK/ble/app\app_adv_mgr.c ****         }
 738:C:/Users/stapi/OneDrive/Desktop/GD32VW553/V1_MQTT_OK/GD32VW55X_Wifi_BLE_SDK/GD32VW55x_RELEASE_V1.0.2/MSDK/ble/app\app_adv_mgr.c **** 
 739:C:/Users/stapi/OneDrive/Desktop/GD32VW553/V1_MQTT_OK/GD32VW55X_Wifi_BLE_SDK/GD32VW55x_RELEASE_V1.0.2/MSDK/ble/app\app_adv_mgr.c ****         adv_param.param.ch_map = APP_ADV_CHMAP;
 1307              		.loc 1 739 9
 1308              		.loc 1 739 32 is_stmt 0
 1309 007c 9D47     		li	a5,7
 1310 007e 2306F102 		sb	a5,44(sp)
 740:C:/Users/stapi/OneDrive/Desktop/GD32VW553/V1_MQTT_OK/GD32VW55X_Wifi_BLE_SDK/GD32VW55x_RELEASE_V1.0.2/MSDK/ble/app\app_adv_mgr.c ****         adv_param.param.primary_phy = p_param->pri_phy;
 1311              		.loc 1 740 9 is_stmt 1
 1312              		.loc 1 740 37 is_stmt 0
 1313 0082 83474400 		lbu	a5,4(s0)
 1314 0086 A306F102 		sb	a5,45(sp)
 1315              	.L75:
 741:C:/Users/stapi/OneDrive/Desktop/GD32VW553/V1_MQTT_OK/GD32VW55X_Wifi_BLE_SDK/GD32VW55x_RELEASE_V1.0.2/MSDK/ble/app\app_adv_mgr.c ****     } else if (p_param->type == BLE_ADV_TYPE_EXTENDED) {
 742:C:/Users/stapi/OneDrive/Desktop/GD32VW553/V1_MQTT_OK/GD32VW55X_Wifi_BLE_SDK/GD32VW55x_RELEASE_V1.0.2/MSDK/ble/app\app_adv_mgr.c ****         adv_param.param.type = BLE_GAP_ADV_TYPE_EXTENDED;
 743:C:/Users/stapi/OneDrive/Desktop/GD32VW553/V1_MQTT_OK/GD32VW55X_Wifi_BLE_SDK/GD32VW55x_RELEASE_V1.0.2/MSDK/ble/app\app_adv_mgr.c ****         adv_param.param.prop = p_param->prop;
 744:C:/Users/stapi/OneDrive/Desktop/GD32VW553/V1_MQTT_OK/GD32VW55X_Wifi_BLE_SDK/GD32VW55x_RELEASE_V1.0.2/MSDK/ble/app\app_adv_mgr.c **** 
 745:C:/Users/stapi/OneDrive/Desktop/GD32VW553/V1_MQTT_OK/GD32VW55X_Wifi_BLE_SDK/GD32VW55x_RELEASE_V1.0.2/MSDK/ble/app\app_adv_mgr.c ****         if (p_param->wl_enable) {
 746:C:/Users/stapi/OneDrive/Desktop/GD32VW553/V1_MQTT_OK/GD32VW55X_Wifi_BLE_SDK/GD32VW55x_RELEASE_V1.0.2/MSDK/ble/app\app_adv_mgr.c ****             adv_param.param.filter_pol = BLE_GAP_ADV_ALLOW_SCAN_FAL_CON_FAL;
 747:C:/Users/stapi/OneDrive/Desktop/GD32VW553/V1_MQTT_OK/GD32VW55X_Wifi_BLE_SDK/GD32VW55x_RELEASE_V1.0.2/MSDK/ble/app\app_adv_mgr.c ****             adv_param.param.disc_mode = BLE_GAP_ADV_MODE_NON_DISC;
 748:C:/Users/stapi/OneDrive/Desktop/GD32VW553/V1_MQTT_OK/GD32VW55X_Wifi_BLE_SDK/GD32VW55x_RELEASE_V1.0.2/MSDK/ble/app\app_adv_mgr.c ****         } else {
 749:C:/Users/stapi/OneDrive/Desktop/GD32VW553/V1_MQTT_OK/GD32VW55X_Wifi_BLE_SDK/GD32VW55x_RELEASE_V1.0.2/MSDK/ble/app\app_adv_mgr.c ****             adv_param.param.filter_pol = BLE_GAP_ADV_ALLOW_SCAN_ANY_CON_ANY;
 750:C:/Users/stapi/OneDrive/Desktop/GD32VW553/V1_MQTT_OK/GD32VW55X_Wifi_BLE_SDK/GD32VW55x_RELEASE_V1.0.2/MSDK/ble/app\app_adv_mgr.c ****             adv_param.param.disc_mode = p_param->disc_mode;
 751:C:/Users/stapi/OneDrive/Desktop/GD32VW553/V1_MQTT_OK/GD32VW55X_Wifi_BLE_SDK/GD32VW55x_RELEASE_V1.0.2/MSDK/ble/app\app_adv_mgr.c ****         }
 752:C:/Users/stapi/OneDrive/Desktop/GD32VW553/V1_MQTT_OK/GD32VW55X_Wifi_BLE_SDK/GD32VW55x_RELEASE_V1.0.2/MSDK/ble/app\app_adv_mgr.c **** 
 753:C:/Users/stapi/OneDrive/Desktop/GD32VW553/V1_MQTT_OK/GD32VW55X_Wifi_BLE_SDK/GD32VW55x_RELEASE_V1.0.2/MSDK/ble/app\app_adv_mgr.c ****         adv_param.param.ch_map = APP_ADV_CHMAP;
 754:C:/Users/stapi/OneDrive/Desktop/GD32VW553/V1_MQTT_OK/GD32VW55X_Wifi_BLE_SDK/GD32VW55x_RELEASE_V1.0.2/MSDK/ble/app\app_adv_mgr.c ****         adv_param.param.primary_phy = p_param->pri_phy;
 755:C:/Users/stapi/OneDrive/Desktop/GD32VW553/V1_MQTT_OK/GD32VW55X_Wifi_BLE_SDK/GD32VW55x_RELEASE_V1.0.2/MSDK/ble/app\app_adv_mgr.c ****         adv_param.param.adv_sid = app_get_adv_sid();
 756:C:/Users/stapi/OneDrive/Desktop/GD32VW553/V1_MQTT_OK/GD32VW55X_Wifi_BLE_SDK/GD32VW55x_RELEASE_V1.0.2/MSDK/ble/app\app_adv_mgr.c ****         adv_param.param.max_skip = 0x00;
 757:C:/Users/stapi/OneDrive/Desktop/GD32VW553/V1_MQTT_OK/GD32VW55X_Wifi_BLE_SDK/GD32VW55x_RELEASE_V1.0.2/MSDK/ble/app\app_adv_mgr.c ****         adv_param.param.secondary_phy = p_param->sec_phy;
 758:C:/Users/stapi/OneDrive/Desktop/GD32VW553/V1_MQTT_OK/GD32VW55X_Wifi_BLE_SDK/GD32VW55x_RELEASE_V1.0.2/MSDK/ble/app\app_adv_mgr.c ****     }
 759:C:/Users/stapi/OneDrive/Desktop/GD32VW553/V1_MQTT_OK/GD32VW55X_Wifi_BLE_SDK/GD32VW55x_RELEASE_V1.0.2/MSDK/ble/app\app_adv_mgr.c **** #if (BLE_APP_PER_ADV_SUPPORT)
 760:C:/Users/stapi/OneDrive/Desktop/GD32VW553/V1_MQTT_OK/GD32VW55X_Wifi_BLE_SDK/GD32VW55x_RELEASE_V1.0.2/MSDK/ble/app\app_adv_mgr.c ****     else if (p_param->type == BLE_ADV_TYPE_PERIODIC) {
