   1              		.file	"app_sec_mgr.c"
   2              		.option nopic
   3              		.attribute arch, "rv32i2p0_m2p0_a2p0_f2p0_c2p0_b_p0p94"
   4              		.attribute unaligned_access, 0
   5              		.attribute stack_align, 16
   6              		.text
   7              	.Ltext0:
   8              		.cfi_sections	.debug_frame
   9              		.section	.text.app_sec_mgr_reset,"ax",@progbits
  10              		.align	1
  11              		.globl	app_sec_mgr_reset
  13              	app_sec_mgr_reset:
  14              	.LFB18:
  15              		.file 1 "C:/Users/stapi/OneDrive/Desktop/GD32VW553/GD32VW55X_Wifi_BLE_SDK/GD32VW55x_RELEASE_V1.0.2
   1:C:/Users/stapi/OneDrive/Desktop/GD32VW553/GD32VW55X_Wifi_BLE_SDK/GD32VW55x_RELEASE_V1.0.2/MSDK/ble/app\app_sec_mgr.c **** /*!
   2:C:/Users/stapi/OneDrive/Desktop/GD32VW553/GD32VW55X_Wifi_BLE_SDK/GD32VW55x_RELEASE_V1.0.2/MSDK/ble/app\app_sec_mgr.c ****     \file    app_sec_mgr.c
   3:C:/Users/stapi/OneDrive/Desktop/GD32VW553/GD32VW55X_Wifi_BLE_SDK/GD32VW55x_RELEASE_V1.0.2/MSDK/ble/app\app_sec_mgr.c ****     \brief   Implementation of BLE application security manager.
   4:C:/Users/stapi/OneDrive/Desktop/GD32VW553/GD32VW55X_Wifi_BLE_SDK/GD32VW55x_RELEASE_V1.0.2/MSDK/ble/app\app_sec_mgr.c **** 
   5:C:/Users/stapi/OneDrive/Desktop/GD32VW553/GD32VW55X_Wifi_BLE_SDK/GD32VW55x_RELEASE_V1.0.2/MSDK/ble/app\app_sec_mgr.c ****     \version 2023-07-20, V1.0.0, firmware for GD32VW55x
   6:C:/Users/stapi/OneDrive/Desktop/GD32VW553/GD32VW55X_Wifi_BLE_SDK/GD32VW55x_RELEASE_V1.0.2/MSDK/ble/app\app_sec_mgr.c **** */
   7:C:/Users/stapi/OneDrive/Desktop/GD32VW553/GD32VW55X_Wifi_BLE_SDK/GD32VW55x_RELEASE_V1.0.2/MSDK/ble/app\app_sec_mgr.c **** 
   8:C:/Users/stapi/OneDrive/Desktop/GD32VW553/GD32VW55X_Wifi_BLE_SDK/GD32VW55x_RELEASE_V1.0.2/MSDK/ble/app\app_sec_mgr.c **** /*
   9:C:/Users/stapi/OneDrive/Desktop/GD32VW553/GD32VW55X_Wifi_BLE_SDK/GD32VW55x_RELEASE_V1.0.2/MSDK/ble/app\app_sec_mgr.c ****     Copyright (c) 2023, GigaDevice Semiconductor Inc.
  10:C:/Users/stapi/OneDrive/Desktop/GD32VW553/GD32VW55X_Wifi_BLE_SDK/GD32VW55x_RELEASE_V1.0.2/MSDK/ble/app\app_sec_mgr.c **** 
  11:C:/Users/stapi/OneDrive/Desktop/GD32VW553/GD32VW55X_Wifi_BLE_SDK/GD32VW55x_RELEASE_V1.0.2/MSDK/ble/app\app_sec_mgr.c ****     Redistribution and use in source and binary forms, with or without modification,
  12:C:/Users/stapi/OneDrive/Desktop/GD32VW553/GD32VW55X_Wifi_BLE_SDK/GD32VW55x_RELEASE_V1.0.2/MSDK/ble/app\app_sec_mgr.c **** are permitted provided that the following conditions are met:
  13:C:/Users/stapi/OneDrive/Desktop/GD32VW553/GD32VW55X_Wifi_BLE_SDK/GD32VW55x_RELEASE_V1.0.2/MSDK/ble/app\app_sec_mgr.c **** 
  14:C:/Users/stapi/OneDrive/Desktop/GD32VW553/GD32VW55X_Wifi_BLE_SDK/GD32VW55x_RELEASE_V1.0.2/MSDK/ble/app\app_sec_mgr.c ****     1. Redistributions of source code must retain the above copyright notice, this
  15:C:/Users/stapi/OneDrive/Desktop/GD32VW553/GD32VW55X_Wifi_BLE_SDK/GD32VW55x_RELEASE_V1.0.2/MSDK/ble/app\app_sec_mgr.c ****        list of conditions and the following disclaimer.
  16:C:/Users/stapi/OneDrive/Desktop/GD32VW553/GD32VW55X_Wifi_BLE_SDK/GD32VW55x_RELEASE_V1.0.2/MSDK/ble/app\app_sec_mgr.c ****     2. Redistributions in binary form must reproduce the above copyright notice,
  17:C:/Users/stapi/OneDrive/Desktop/GD32VW553/GD32VW55X_Wifi_BLE_SDK/GD32VW55x_RELEASE_V1.0.2/MSDK/ble/app\app_sec_mgr.c ****        this list of conditions and the following disclaimer in the documentation
  18:C:/Users/stapi/OneDrive/Desktop/GD32VW553/GD32VW55X_Wifi_BLE_SDK/GD32VW55x_RELEASE_V1.0.2/MSDK/ble/app\app_sec_mgr.c ****        and/or other materials provided with the distribution.
  19:C:/Users/stapi/OneDrive/Desktop/GD32VW553/GD32VW55X_Wifi_BLE_SDK/GD32VW55x_RELEASE_V1.0.2/MSDK/ble/app\app_sec_mgr.c ****     3. Neither the name of the copyright holder nor the names of its contributors
  20:C:/Users/stapi/OneDrive/Desktop/GD32VW553/GD32VW55X_Wifi_BLE_SDK/GD32VW55x_RELEASE_V1.0.2/MSDK/ble/app\app_sec_mgr.c ****        may be used to endorse or promote products derived from this software without
  21:C:/Users/stapi/OneDrive/Desktop/GD32VW553/GD32VW55X_Wifi_BLE_SDK/GD32VW55x_RELEASE_V1.0.2/MSDK/ble/app\app_sec_mgr.c ****        specific prior written permission.
  22:C:/Users/stapi/OneDrive/Desktop/GD32VW553/GD32VW55X_Wifi_BLE_SDK/GD32VW55x_RELEASE_V1.0.2/MSDK/ble/app\app_sec_mgr.c **** 
  23:C:/Users/stapi/OneDrive/Desktop/GD32VW553/GD32VW55X_Wifi_BLE_SDK/GD32VW55x_RELEASE_V1.0.2/MSDK/ble/app\app_sec_mgr.c ****     THIS SOFTWARE IS PROVIDED BY THE COPYRIGHT HOLDERS AND CONTRIBUTORS "AS IS"
  24:C:/Users/stapi/OneDrive/Desktop/GD32VW553/GD32VW55X_Wifi_BLE_SDK/GD32VW55x_RELEASE_V1.0.2/MSDK/ble/app\app_sec_mgr.c **** AND ANY EXPRESS OR IMPLIED WARRANTIES, INCLUDING, BUT NOT LIMITED TO, THE IMPLIED
  25:C:/Users/stapi/OneDrive/Desktop/GD32VW553/GD32VW55X_Wifi_BLE_SDK/GD32VW55x_RELEASE_V1.0.2/MSDK/ble/app\app_sec_mgr.c **** WARRANTIES OF MERCHANTABILITY AND FITNESS FOR A PARTICULAR PURPOSE ARE DISCLAIMED.
  26:C:/Users/stapi/OneDrive/Desktop/GD32VW553/GD32VW55X_Wifi_BLE_SDK/GD32VW55x_RELEASE_V1.0.2/MSDK/ble/app\app_sec_mgr.c **** IN NO EVENT SHALL THE COPYRIGHT HOLDER OR CONTRIBUTORS BE LIABLE FOR ANY DIRECT,
  27:C:/Users/stapi/OneDrive/Desktop/GD32VW553/GD32VW55X_Wifi_BLE_SDK/GD32VW55x_RELEASE_V1.0.2/MSDK/ble/app\app_sec_mgr.c **** INDIRECT, INCIDENTAL, SPECIAL, EXEMPLARY, OR CONSEQUENTIAL DAMAGES (INCLUDING, BUT
  28:C:/Users/stapi/OneDrive/Desktop/GD32VW553/GD32VW55X_Wifi_BLE_SDK/GD32VW55x_RELEASE_V1.0.2/MSDK/ble/app\app_sec_mgr.c **** NOT LIMITED TO, PROCUREMENT OF SUBSTITUTE GOODS OR SERVICES; LOSS OF USE, DATA, OR
  29:C:/Users/stapi/OneDrive/Desktop/GD32VW553/GD32VW55X_Wifi_BLE_SDK/GD32VW55x_RELEASE_V1.0.2/MSDK/ble/app\app_sec_mgr.c **** PROFITS; OR BUSINESS INTERRUPTION) HOWEVER CAUSED AND ON ANY THEORY OF LIABILITY,
  30:C:/Users/stapi/OneDrive/Desktop/GD32VW553/GD32VW55X_Wifi_BLE_SDK/GD32VW55x_RELEASE_V1.0.2/MSDK/ble/app\app_sec_mgr.c **** WHETHER IN CONTRACT, STRICT LIABILITY, OR TORT (INCLUDING NEGLIGENCE OR OTHERWISE)
  31:C:/Users/stapi/OneDrive/Desktop/GD32VW553/GD32VW55X_Wifi_BLE_SDK/GD32VW55x_RELEASE_V1.0.2/MSDK/ble/app\app_sec_mgr.c **** ARISING IN ANY WAY OUT OF THE USE OF THIS SOFTWARE, EVEN IF ADVISED OF THE POSSIBILITY
  32:C:/Users/stapi/OneDrive/Desktop/GD32VW553/GD32VW55X_Wifi_BLE_SDK/GD32VW55x_RELEASE_V1.0.2/MSDK/ble/app\app_sec_mgr.c **** OF SUCH DAMAGE.
  33:C:/Users/stapi/OneDrive/Desktop/GD32VW553/GD32VW55X_Wifi_BLE_SDK/GD32VW55x_RELEASE_V1.0.2/MSDK/ble/app\app_sec_mgr.c **** */
  34:C:/Users/stapi/OneDrive/Desktop/GD32VW553/GD32VW55X_Wifi_BLE_SDK/GD32VW55x_RELEASE_V1.0.2/MSDK/ble/app\app_sec_mgr.c **** 
  35:C:/Users/stapi/OneDrive/Desktop/GD32VW553/GD32VW55X_Wifi_BLE_SDK/GD32VW55x_RELEASE_V1.0.2/MSDK/ble/app\app_sec_mgr.c **** #include "ble_app_config.h"
  36:C:/Users/stapi/OneDrive/Desktop/GD32VW553/GD32VW55X_Wifi_BLE_SDK/GD32VW55x_RELEASE_V1.0.2/MSDK/ble/app\app_sec_mgr.c **** 
  37:C:/Users/stapi/OneDrive/Desktop/GD32VW553/GD32VW55X_Wifi_BLE_SDK/GD32VW55x_RELEASE_V1.0.2/MSDK/ble/app\app_sec_mgr.c **** #if (BLE_APP_SUPPORT && (BLE_CFG_ROLE & (BLE_CFG_ROLE_PERIPHERAL | BLE_CFG_ROLE_CENTRAL)))
  38:C:/Users/stapi/OneDrive/Desktop/GD32VW553/GD32VW55X_Wifi_BLE_SDK/GD32VW55x_RELEASE_V1.0.2/MSDK/ble/app\app_sec_mgr.c **** #include <string.h>
  39:C:/Users/stapi/OneDrive/Desktop/GD32VW553/GD32VW55X_Wifi_BLE_SDK/GD32VW55x_RELEASE_V1.0.2/MSDK/ble/app\app_sec_mgr.c **** #include <stdlib.h>
  40:C:/Users/stapi/OneDrive/Desktop/GD32VW553/GD32VW55X_Wifi_BLE_SDK/GD32VW55x_RELEASE_V1.0.2/MSDK/ble/app\app_sec_mgr.c **** 
  41:C:/Users/stapi/OneDrive/Desktop/GD32VW553/GD32VW55X_Wifi_BLE_SDK/GD32VW55x_RELEASE_V1.0.2/MSDK/ble/app\app_sec_mgr.c **** #include "app_sec_mgr.h"
  42:C:/Users/stapi/OneDrive/Desktop/GD32VW553/GD32VW55X_Wifi_BLE_SDK/GD32VW55x_RELEASE_V1.0.2/MSDK/ble/app\app_sec_mgr.c **** #include "ble_sec.h"
  43:C:/Users/stapi/OneDrive/Desktop/GD32VW553/GD32VW55X_Wifi_BLE_SDK/GD32VW55x_RELEASE_V1.0.2/MSDK/ble/app\app_sec_mgr.c **** #include "app_dev_mgr.h"
  44:C:/Users/stapi/OneDrive/Desktop/GD32VW553/GD32VW55X_Wifi_BLE_SDK/GD32VW55x_RELEASE_V1.0.2/MSDK/ble/app\app_sec_mgr.c **** #include "ble_storage.h"
  45:C:/Users/stapi/OneDrive/Desktop/GD32VW553/GD32VW55X_Wifi_BLE_SDK/GD32VW55x_RELEASE_V1.0.2/MSDK/ble/app\app_sec_mgr.c **** #include "ble_adapter.h"
  46:C:/Users/stapi/OneDrive/Desktop/GD32VW553/GD32VW55X_Wifi_BLE_SDK/GD32VW55x_RELEASE_V1.0.2/MSDK/ble/app\app_sec_mgr.c **** #include "dbg_print.h"
  47:C:/Users/stapi/OneDrive/Desktop/GD32VW553/GD32VW55X_Wifi_BLE_SDK/GD32VW55x_RELEASE_V1.0.2/MSDK/ble/app\app_sec_mgr.c **** #include "wrapper_os.h"
  48:C:/Users/stapi/OneDrive/Desktop/GD32VW553/GD32VW55X_Wifi_BLE_SDK/GD32VW55x_RELEASE_V1.0.2/MSDK/ble/app\app_sec_mgr.c **** 
  49:C:/Users/stapi/OneDrive/Desktop/GD32VW553/GD32VW55X_Wifi_BLE_SDK/GD32VW55x_RELEASE_V1.0.2/MSDK/ble/app\app_sec_mgr.c **** /* BLE bond state */
  50:C:/Users/stapi/OneDrive/Desktop/GD32VW553/GD32VW55X_Wifi_BLE_SDK/GD32VW55x_RELEASE_V1.0.2/MSDK/ble/app\app_sec_mgr.c **** typedef enum
  51:C:/Users/stapi/OneDrive/Desktop/GD32VW553/GD32VW55X_Wifi_BLE_SDK/GD32VW55x_RELEASE_V1.0.2/MSDK/ble/app\app_sec_mgr.c **** {
  52:C:/Users/stapi/OneDrive/Desktop/GD32VW553/GD32VW55X_Wifi_BLE_SDK/GD32VW55x_RELEASE_V1.0.2/MSDK/ble/app\app_sec_mgr.c ****     BLE_BOND_STATE_NONE,                /*!< The device bond state none */
  53:C:/Users/stapi/OneDrive/Desktop/GD32VW553/GD32VW55X_Wifi_BLE_SDK/GD32VW55x_RELEASE_V1.0.2/MSDK/ble/app\app_sec_mgr.c ****     BLE_BOND_STATE_BONDING,             /*!< The device is initiating connection and pairing */
  54:C:/Users/stapi/OneDrive/Desktop/GD32VW553/GD32VW55X_Wifi_BLE_SDK/GD32VW55x_RELEASE_V1.0.2/MSDK/ble/app\app_sec_mgr.c ****     BLE_BOND_STATE_BONDED,              /*!< The device pairing success */
  55:C:/Users/stapi/OneDrive/Desktop/GD32VW553/GD32VW55X_Wifi_BLE_SDK/GD32VW55x_RELEASE_V1.0.2/MSDK/ble/app\app_sec_mgr.c **** } ble_bond_state_t;
  56:C:/Users/stapi/OneDrive/Desktop/GD32VW553/GD32VW55X_Wifi_BLE_SDK/GD32VW55x_RELEASE_V1.0.2/MSDK/ble/app\app_sec_mgr.c **** 
  57:C:/Users/stapi/OneDrive/Desktop/GD32VW553/GD32VW55X_Wifi_BLE_SDK/GD32VW55x_RELEASE_V1.0.2/MSDK/ble/app\app_sec_mgr.c **** /* Structure of pairing procedure callback */
  58:C:/Users/stapi/OneDrive/Desktop/GD32VW553/GD32VW55X_Wifi_BLE_SDK/GD32VW55x_RELEASE_V1.0.2/MSDK/ble/app\app_sec_mgr.c **** typedef struct
  59:C:/Users/stapi/OneDrive/Desktop/GD32VW553/GD32VW55X_Wifi_BLE_SDK/GD32VW55x_RELEASE_V1.0.2/MSDK/ble/app\app_sec_mgr.c **** {
  60:C:/Users/stapi/OneDrive/Desktop/GD32VW553/GD32VW55X_Wifi_BLE_SDK/GD32VW55x_RELEASE_V1.0.2/MSDK/ble/app\app_sec_mgr.c ****     ble_bond_state_t  state;                /*!< Bond state */
  61:C:/Users/stapi/OneDrive/Desktop/GD32VW553/GD32VW55X_Wifi_BLE_SDK/GD32VW55x_RELEASE_V1.0.2/MSDK/ble/app\app_sec_mgr.c ****     ble_gap_addr_t    addr;                 /*!< Address of pairing device */
  62:C:/Users/stapi/OneDrive/Desktop/GD32VW553/GD32VW55X_Wifi_BLE_SDK/GD32VW55x_RELEASE_V1.0.2/MSDK/ble/app\app_sec_mgr.c ****     bool              is_local_initiated;   /*!< If pairing is initiated by local device */
  63:C:/Users/stapi/OneDrive/Desktop/GD32VW553/GD32VW55X_Wifi_BLE_SDK/GD32VW55x_RELEASE_V1.0.2/MSDK/ble/app\app_sec_mgr.c **** } pairing_cb_t;
  64:C:/Users/stapi/OneDrive/Desktop/GD32VW553/GD32VW55X_Wifi_BLE_SDK/GD32VW55x_RELEASE_V1.0.2/MSDK/ble/app\app_sec_mgr.c **** 
  65:C:/Users/stapi/OneDrive/Desktop/GD32VW553/GD32VW55X_Wifi_BLE_SDK/GD32VW55x_RELEASE_V1.0.2/MSDK/ble/app\app_sec_mgr.c **** /* Application security manager module structure */
  66:C:/Users/stapi/OneDrive/Desktop/GD32VW553/GD32VW55X_Wifi_BLE_SDK/GD32VW55x_RELEASE_V1.0.2/MSDK/ble/app\app_sec_mgr.c **** typedef struct
  67:C:/Users/stapi/OneDrive/Desktop/GD32VW553/GD32VW55X_Wifi_BLE_SDK/GD32VW55x_RELEASE_V1.0.2/MSDK/ble/app\app_sec_mgr.c **** {
  68:C:/Users/stapi/OneDrive/Desktop/GD32VW553/GD32VW55X_Wifi_BLE_SDK/GD32VW55x_RELEASE_V1.0.2/MSDK/ble/app\app_sec_mgr.c ****     bool authen_bond;                   /*!< Is support bond authentication */
  69:C:/Users/stapi/OneDrive/Desktop/GD32VW553/GD32VW55X_Wifi_BLE_SDK/GD32VW55x_RELEASE_V1.0.2/MSDK/ble/app\app_sec_mgr.c ****     bool authen_mitm;                   /*!< Is support man in the middle protection */
  70:C:/Users/stapi/OneDrive/Desktop/GD32VW553/GD32VW55X_Wifi_BLE_SDK/GD32VW55x_RELEASE_V1.0.2/MSDK/ble/app\app_sec_mgr.c ****     bool authen_sc;                     /*!< Is support secure connection */
  71:C:/Users/stapi/OneDrive/Desktop/GD32VW553/GD32VW55X_Wifi_BLE_SDK/GD32VW55x_RELEASE_V1.0.2/MSDK/ble/app\app_sec_mgr.c ****     bool sc_only;                       /*!< Is secure connection pairing with encryption */
  72:C:/Users/stapi/OneDrive/Desktop/GD32VW553/GD32VW55X_Wifi_BLE_SDK/GD32VW55x_RELEASE_V1.0.2/MSDK/ble/app\app_sec_mgr.c ****     uint8_t io_capability;              /*!< IO capabilities. @def ble_gap_io_cap_t */
  73:C:/Users/stapi/OneDrive/Desktop/GD32VW553/GD32VW55X_Wifi_BLE_SDK/GD32VW55x_RELEASE_V1.0.2/MSDK/ble/app\app_sec_mgr.c ****     uint8_t key_size;                   /*!< LTK Key Size */
  74:C:/Users/stapi/OneDrive/Desktop/GD32VW553/GD32VW55X_Wifi_BLE_SDK/GD32VW55x_RELEASE_V1.0.2/MSDK/ble/app\app_sec_mgr.c ****     bool                oob;            /*!< Is support OOB information */
  75:C:/Users/stapi/OneDrive/Desktop/GD32VW553/GD32VW55X_Wifi_BLE_SDK/GD32VW55x_RELEASE_V1.0.2/MSDK/ble/app\app_sec_mgr.c ****     ble_gap_oob_data_t  oob_data;       /*!< OOB information */
  76:C:/Users/stapi/OneDrive/Desktop/GD32VW553/GD32VW55X_Wifi_BLE_SDK/GD32VW55x_RELEASE_V1.0.2/MSDK/ble/app\app_sec_mgr.c **** } app_sec_env_t;
  77:C:/Users/stapi/OneDrive/Desktop/GD32VW553/GD32VW55X_Wifi_BLE_SDK/GD32VW55x_RELEASE_V1.0.2/MSDK/ble/app\app_sec_mgr.c **** 
  78:C:/Users/stapi/OneDrive/Desktop/GD32VW553/GD32VW55X_Wifi_BLE_SDK/GD32VW55x_RELEASE_V1.0.2/MSDK/ble/app\app_sec_mgr.c **** /* Application security manager module data */
  79:C:/Users/stapi/OneDrive/Desktop/GD32VW553/GD32VW55X_Wifi_BLE_SDK/GD32VW55x_RELEASE_V1.0.2/MSDK/ble/app\app_sec_mgr.c **** static app_sec_env_t app_sec_env;
  80:C:/Users/stapi/OneDrive/Desktop/GD32VW553/GD32VW55X_Wifi_BLE_SDK/GD32VW55x_RELEASE_V1.0.2/MSDK/ble/app\app_sec_mgr.c **** 
  81:C:/Users/stapi/OneDrive/Desktop/GD32VW553/GD32VW55X_Wifi_BLE_SDK/GD32VW55x_RELEASE_V1.0.2/MSDK/ble/app\app_sec_mgr.c **** /* Pairing procedure callback data */
  82:C:/Users/stapi/OneDrive/Desktop/GD32VW553/GD32VW55X_Wifi_BLE_SDK/GD32VW55x_RELEASE_V1.0.2/MSDK/ble/app\app_sec_mgr.c **** static pairing_cb_t pairing_cb;
  83:C:/Users/stapi/OneDrive/Desktop/GD32VW553/GD32VW55X_Wifi_BLE_SDK/GD32VW55x_RELEASE_V1.0.2/MSDK/ble/app\app_sec_mgr.c **** 
  84:C:/Users/stapi/OneDrive/Desktop/GD32VW553/GD32VW55X_Wifi_BLE_SDK/GD32VW55x_RELEASE_V1.0.2/MSDK/ble/app\app_sec_mgr.c **** /* Security key managered by APP */
  85:C:/Users/stapi/OneDrive/Desktop/GD32VW553/GD32VW55X_Wifi_BLE_SDK/GD32VW55x_RELEASE_V1.0.2/MSDK/ble/app\app_sec_mgr.c **** static bool app_sec_mgr_key = false;
  86:C:/Users/stapi/OneDrive/Desktop/GD32VW553/GD32VW55X_Wifi_BLE_SDK/GD32VW55x_RELEASE_V1.0.2/MSDK/ble/app\app_sec_mgr.c **** 
  87:C:/Users/stapi/OneDrive/Desktop/GD32VW553/GD32VW55X_Wifi_BLE_SDK/GD32VW55x_RELEASE_V1.0.2/MSDK/ble/app\app_sec_mgr.c **** /*!
  88:C:/Users/stapi/OneDrive/Desktop/GD32VW553/GD32VW55X_Wifi_BLE_SDK/GD32VW55x_RELEASE_V1.0.2/MSDK/ble/app\app_sec_mgr.c ****     \brief      Callback function to handle @ref BLE_SEC_EVT_PAIRING_REQ_IND event
  89:C:/Users/stapi/OneDrive/Desktop/GD32VW553/GD32VW55X_Wifi_BLE_SDK/GD32VW55x_RELEASE_V1.0.2/MSDK/ble/app\app_sec_mgr.c ****     \param[in]  p_ind: pointer to the pairing request indication data
  90:C:/Users/stapi/OneDrive/Desktop/GD32VW553/GD32VW55X_Wifi_BLE_SDK/GD32VW55x_RELEASE_V1.0.2/MSDK/ble/app\app_sec_mgr.c ****     \param[out] none
  91:C:/Users/stapi/OneDrive/Desktop/GD32VW553/GD32VW55X_Wifi_BLE_SDK/GD32VW55x_RELEASE_V1.0.2/MSDK/ble/app\app_sec_mgr.c ****     \retval     none
  92:C:/Users/stapi/OneDrive/Desktop/GD32VW553/GD32VW55X_Wifi_BLE_SDK/GD32VW55x_RELEASE_V1.0.2/MSDK/ble/app\app_sec_mgr.c **** */
  93:C:/Users/stapi/OneDrive/Desktop/GD32VW553/GD32VW55X_Wifi_BLE_SDK/GD32VW55x_RELEASE_V1.0.2/MSDK/ble/app\app_sec_mgr.c **** static void app_pairing_req_hdlr(ble_gap_pairing_req_ind_t *p_ind)
  94:C:/Users/stapi/OneDrive/Desktop/GD32VW553/GD32VW55X_Wifi_BLE_SDK/GD32VW55x_RELEASE_V1.0.2/MSDK/ble/app\app_sec_mgr.c **** {
  95:C:/Users/stapi/OneDrive/Desktop/GD32VW553/GD32VW55X_Wifi_BLE_SDK/GD32VW55x_RELEASE_V1.0.2/MSDK/ble/app\app_sec_mgr.c ****     ble_device_t *p_device = dm_find_dev_by_conidx(p_ind->conn_idx);
  96:C:/Users/stapi/OneDrive/Desktop/GD32VW553/GD32VW55X_Wifi_BLE_SDK/GD32VW55x_RELEASE_V1.0.2/MSDK/ble/app\app_sec_mgr.c ****     ble_gap_pairing_param_t param;
  97:C:/Users/stapi/OneDrive/Desktop/GD32VW553/GD32VW55X_Wifi_BLE_SDK/GD32VW55x_RELEASE_V1.0.2/MSDK/ble/app\app_sec_mgr.c ****     uint8_t sec_req_lvl;
  98:C:/Users/stapi/OneDrive/Desktop/GD32VW553/GD32VW55X_Wifi_BLE_SDK/GD32VW55x_RELEASE_V1.0.2/MSDK/ble/app\app_sec_mgr.c **** 
  99:C:/Users/stapi/OneDrive/Desktop/GD32VW553/GD32VW55X_Wifi_BLE_SDK/GD32VW55x_RELEASE_V1.0.2/MSDK/ble/app\app_sec_mgr.c ****     dbg_print(NOTICE, "app receivce pairing request conidx %u \r\n", p_ind->conn_idx);
 100:C:/Users/stapi/OneDrive/Desktop/GD32VW553/GD32VW55X_Wifi_BLE_SDK/GD32VW55x_RELEASE_V1.0.2/MSDK/ble/app\app_sec_mgr.c **** 
 101:C:/Users/stapi/OneDrive/Desktop/GD32VW553/GD32VW55X_Wifi_BLE_SDK/GD32VW55x_RELEASE_V1.0.2/MSDK/ble/app\app_sec_mgr.c ****     if (p_device == NULL) {
 102:C:/Users/stapi/OneDrive/Desktop/GD32VW553/GD32VW55X_Wifi_BLE_SDK/GD32VW55x_RELEASE_V1.0.2/MSDK/ble/app\app_sec_mgr.c ****         dbg_print(NOTICE, "app_pairing_req_hdlr can't find device !\r\n");
 103:C:/Users/stapi/OneDrive/Desktop/GD32VW553/GD32VW55X_Wifi_BLE_SDK/GD32VW55x_RELEASE_V1.0.2/MSDK/ble/app\app_sec_mgr.c ****         ble_sec_pairing_req_cfm(p_ind->conn_idx, false, NULL, 0);
 104:C:/Users/stapi/OneDrive/Desktop/GD32VW553/GD32VW55X_Wifi_BLE_SDK/GD32VW55x_RELEASE_V1.0.2/MSDK/ble/app\app_sec_mgr.c ****         return;
 105:C:/Users/stapi/OneDrive/Desktop/GD32VW553/GD32VW55X_Wifi_BLE_SDK/GD32VW55x_RELEASE_V1.0.2/MSDK/ble/app\app_sec_mgr.c ****     }
 106:C:/Users/stapi/OneDrive/Desktop/GD32VW553/GD32VW55X_Wifi_BLE_SDK/GD32VW55x_RELEASE_V1.0.2/MSDK/ble/app\app_sec_mgr.c **** 
 107:C:/Users/stapi/OneDrive/Desktop/GD32VW553/GD32VW55X_Wifi_BLE_SDK/GD32VW55x_RELEASE_V1.0.2/MSDK/ble/app\app_sec_mgr.c ****     if (p_device->bonded) {
 108:C:/Users/stapi/OneDrive/Desktop/GD32VW553/GD32VW55X_Wifi_BLE_SDK/GD32VW55x_RELEASE_V1.0.2/MSDK/ble/app\app_sec_mgr.c ****         dbg_print(NOTICE, "remote master key missing, reject pairing request !\r\n");
 109:C:/Users/stapi/OneDrive/Desktop/GD32VW553/GD32VW55X_Wifi_BLE_SDK/GD32VW55x_RELEASE_V1.0.2/MSDK/ble/app\app_sec_mgr.c **** 
 110:C:/Users/stapi/OneDrive/Desktop/GD32VW553/GD32VW55X_Wifi_BLE_SDK/GD32VW55x_RELEASE_V1.0.2/MSDK/ble/app\app_sec_mgr.c ****         if (!app_sec_remove_bond(p_device->cur_addr)) {
 111:C:/Users/stapi/OneDrive/Desktop/GD32VW553/GD32VW55X_Wifi_BLE_SDK/GD32VW55x_RELEASE_V1.0.2/MSDK/ble/app\app_sec_mgr.c ****             dbg_print(NOTICE,"app_pairing_req_hdlr remove bond fail\r\n");
 112:C:/Users/stapi/OneDrive/Desktop/GD32VW553/GD32VW55X_Wifi_BLE_SDK/GD32VW55x_RELEASE_V1.0.2/MSDK/ble/app\app_sec_mgr.c ****         }
 113:C:/Users/stapi/OneDrive/Desktop/GD32VW553/GD32VW55X_Wifi_BLE_SDK/GD32VW55x_RELEASE_V1.0.2/MSDK/ble/app\app_sec_mgr.c **** 
 114:C:/Users/stapi/OneDrive/Desktop/GD32VW553/GD32VW55X_Wifi_BLE_SDK/GD32VW55x_RELEASE_V1.0.2/MSDK/ble/app\app_sec_mgr.c ****         ble_sec_pairing_req_cfm(p_ind->conn_idx, false, NULL, 0);
 115:C:/Users/stapi/OneDrive/Desktop/GD32VW553/GD32VW55X_Wifi_BLE_SDK/GD32VW55x_RELEASE_V1.0.2/MSDK/ble/app\app_sec_mgr.c ****         return;
 116:C:/Users/stapi/OneDrive/Desktop/GD32VW553/GD32VW55X_Wifi_BLE_SDK/GD32VW55x_RELEASE_V1.0.2/MSDK/ble/app\app_sec_mgr.c ****     }
 117:C:/Users/stapi/OneDrive/Desktop/GD32VW553/GD32VW55X_Wifi_BLE_SDK/GD32VW55x_RELEASE_V1.0.2/MSDK/ble/app\app_sec_mgr.c **** 
 118:C:/Users/stapi/OneDrive/Desktop/GD32VW553/GD32VW55X_Wifi_BLE_SDK/GD32VW55x_RELEASE_V1.0.2/MSDK/ble/app\app_sec_mgr.c ****     sec_req_lvl = BLE_GAP_NO_SEC;
 119:C:/Users/stapi/OneDrive/Desktop/GD32VW553/GD32VW55X_Wifi_BLE_SDK/GD32VW55x_RELEASE_V1.0.2/MSDK/ble/app\app_sec_mgr.c ****     param.auth = BLE_GAP_AUTH_MASK_NONE;
 120:C:/Users/stapi/OneDrive/Desktop/GD32VW553/GD32VW55X_Wifi_BLE_SDK/GD32VW55x_RELEASE_V1.0.2/MSDK/ble/app\app_sec_mgr.c **** 
 121:C:/Users/stapi/OneDrive/Desktop/GD32VW553/GD32VW55X_Wifi_BLE_SDK/GD32VW55x_RELEASE_V1.0.2/MSDK/ble/app\app_sec_mgr.c ****     if (app_sec_env.authen_bond) {
 122:C:/Users/stapi/OneDrive/Desktop/GD32VW553/GD32VW55X_Wifi_BLE_SDK/GD32VW55x_RELEASE_V1.0.2/MSDK/ble/app\app_sec_mgr.c ****         param.auth |= BLE_GAP_AUTH_MASK_BOND;
 123:C:/Users/stapi/OneDrive/Desktop/GD32VW553/GD32VW55X_Wifi_BLE_SDK/GD32VW55x_RELEASE_V1.0.2/MSDK/ble/app\app_sec_mgr.c ****     }
 124:C:/Users/stapi/OneDrive/Desktop/GD32VW553/GD32VW55X_Wifi_BLE_SDK/GD32VW55x_RELEASE_V1.0.2/MSDK/ble/app\app_sec_mgr.c **** 
 125:C:/Users/stapi/OneDrive/Desktop/GD32VW553/GD32VW55X_Wifi_BLE_SDK/GD32VW55x_RELEASE_V1.0.2/MSDK/ble/app\app_sec_mgr.c ****     if (app_sec_env.authen_mitm) {
 126:C:/Users/stapi/OneDrive/Desktop/GD32VW553/GD32VW55X_Wifi_BLE_SDK/GD32VW55x_RELEASE_V1.0.2/MSDK/ble/app\app_sec_mgr.c ****         param.auth |= BLE_GAP_AUTH_MASK_MITM;
 127:C:/Users/stapi/OneDrive/Desktop/GD32VW553/GD32VW55X_Wifi_BLE_SDK/GD32VW55x_RELEASE_V1.0.2/MSDK/ble/app\app_sec_mgr.c ****     }
 128:C:/Users/stapi/OneDrive/Desktop/GD32VW553/GD32VW55X_Wifi_BLE_SDK/GD32VW55x_RELEASE_V1.0.2/MSDK/ble/app\app_sec_mgr.c **** 
 129:C:/Users/stapi/OneDrive/Desktop/GD32VW553/GD32VW55X_Wifi_BLE_SDK/GD32VW55x_RELEASE_V1.0.2/MSDK/ble/app\app_sec_mgr.c ****     if (app_sec_env.authen_sc) {
 130:C:/Users/stapi/OneDrive/Desktop/GD32VW553/GD32VW55X_Wifi_BLE_SDK/GD32VW55x_RELEASE_V1.0.2/MSDK/ble/app\app_sec_mgr.c ****         param.auth |= BLE_GAP_AUTH_MASK_SEC_CON;
 131:C:/Users/stapi/OneDrive/Desktop/GD32VW553/GD32VW55X_Wifi_BLE_SDK/GD32VW55x_RELEASE_V1.0.2/MSDK/ble/app\app_sec_mgr.c ****     }
 132:C:/Users/stapi/OneDrive/Desktop/GD32VW553/GD32VW55X_Wifi_BLE_SDK/GD32VW55x_RELEASE_V1.0.2/MSDK/ble/app\app_sec_mgr.c **** 
 133:C:/Users/stapi/OneDrive/Desktop/GD32VW553/GD32VW55X_Wifi_BLE_SDK/GD32VW55x_RELEASE_V1.0.2/MSDK/ble/app\app_sec_mgr.c ****     param.iocap = app_sec_env.io_capability;
 134:C:/Users/stapi/OneDrive/Desktop/GD32VW553/GD32VW55X_Wifi_BLE_SDK/GD32VW55x_RELEASE_V1.0.2/MSDK/ble/app\app_sec_mgr.c ****     param.key_size = app_sec_env.key_size;
 135:C:/Users/stapi/OneDrive/Desktop/GD32VW553/GD32VW55X_Wifi_BLE_SDK/GD32VW55x_RELEASE_V1.0.2/MSDK/ble/app\app_sec_mgr.c ****     param.oob = app_sec_env.oob;
 136:C:/Users/stapi/OneDrive/Desktop/GD32VW553/GD32VW55X_Wifi_BLE_SDK/GD32VW55x_RELEASE_V1.0.2/MSDK/ble/app\app_sec_mgr.c **** 
 137:C:/Users/stapi/OneDrive/Desktop/GD32VW553/GD32VW55X_Wifi_BLE_SDK/GD32VW55x_RELEASE_V1.0.2/MSDK/ble/app\app_sec_mgr.c ****     if (app_sec_env.sc_only) {
 138:C:/Users/stapi/OneDrive/Desktop/GD32VW553/GD32VW55X_Wifi_BLE_SDK/GD32VW55x_RELEASE_V1.0.2/MSDK/ble/app\app_sec_mgr.c ****         sec_req_lvl = BLE_GAP_SEC1_SEC_CON_PAIR_ENC;
 139:C:/Users/stapi/OneDrive/Desktop/GD32VW553/GD32VW55X_Wifi_BLE_SDK/GD32VW55x_RELEASE_V1.0.2/MSDK/ble/app\app_sec_mgr.c ****     }
 140:C:/Users/stapi/OneDrive/Desktop/GD32VW553/GD32VW55X_Wifi_BLE_SDK/GD32VW55x_RELEASE_V1.0.2/MSDK/ble/app\app_sec_mgr.c **** 
 141:C:/Users/stapi/OneDrive/Desktop/GD32VW553/GD32VW55X_Wifi_BLE_SDK/GD32VW55x_RELEASE_V1.0.2/MSDK/ble/app\app_sec_mgr.c ****     if (app_sec_env.authen_sc) {
 142:C:/Users/stapi/OneDrive/Desktop/GD32VW553/GD32VW55X_Wifi_BLE_SDK/GD32VW55x_RELEASE_V1.0.2/MSDK/ble/app\app_sec_mgr.c ****         param.ikey_dist = BLE_GAP_KDIST_IDKEY | BLE_GAP_KDIST_SIGNKEY;
 143:C:/Users/stapi/OneDrive/Desktop/GD32VW553/GD32VW55X_Wifi_BLE_SDK/GD32VW55x_RELEASE_V1.0.2/MSDK/ble/app\app_sec_mgr.c ****         param.rkey_dist = BLE_GAP_KDIST_IDKEY | BLE_GAP_KDIST_SIGNKEY;
 144:C:/Users/stapi/OneDrive/Desktop/GD32VW553/GD32VW55X_Wifi_BLE_SDK/GD32VW55x_RELEASE_V1.0.2/MSDK/ble/app\app_sec_mgr.c ****     } else {
 145:C:/Users/stapi/OneDrive/Desktop/GD32VW553/GD32VW55X_Wifi_BLE_SDK/GD32VW55x_RELEASE_V1.0.2/MSDK/ble/app\app_sec_mgr.c ****         param.ikey_dist = BLE_GAP_KDIST_IDKEY | BLE_GAP_KDIST_SIGNKEY | BLE_GAP_KDIST_ENCKEY;
 146:C:/Users/stapi/OneDrive/Desktop/GD32VW553/GD32VW55X_Wifi_BLE_SDK/GD32VW55x_RELEASE_V1.0.2/MSDK/ble/app\app_sec_mgr.c ****         param.rkey_dist = BLE_GAP_KDIST_IDKEY | BLE_GAP_KDIST_SIGNKEY | BLE_GAP_KDIST_ENCKEY;
 147:C:/Users/stapi/OneDrive/Desktop/GD32VW553/GD32VW55X_Wifi_BLE_SDK/GD32VW55x_RELEASE_V1.0.2/MSDK/ble/app\app_sec_mgr.c ****     }
 148:C:/Users/stapi/OneDrive/Desktop/GD32VW553/GD32VW55X_Wifi_BLE_SDK/GD32VW55x_RELEASE_V1.0.2/MSDK/ble/app\app_sec_mgr.c **** 
 149:C:/Users/stapi/OneDrive/Desktop/GD32VW553/GD32VW55X_Wifi_BLE_SDK/GD32VW55x_RELEASE_V1.0.2/MSDK/ble/app\app_sec_mgr.c ****     ble_sec_pairing_req_cfm(p_ind->conn_idx, true, &param, sec_req_lvl);
 150:C:/Users/stapi/OneDrive/Desktop/GD32VW553/GD32VW55X_Wifi_BLE_SDK/GD32VW55x_RELEASE_V1.0.2/MSDK/ble/app\app_sec_mgr.c **** }
 151:C:/Users/stapi/OneDrive/Desktop/GD32VW553/GD32VW55X_Wifi_BLE_SDK/GD32VW55x_RELEASE_V1.0.2/MSDK/ble/app\app_sec_mgr.c **** 
 152:C:/Users/stapi/OneDrive/Desktop/GD32VW553/GD32VW55X_Wifi_BLE_SDK/GD32VW55x_RELEASE_V1.0.2/MSDK/ble/app\app_sec_mgr.c **** /*!
 153:C:/Users/stapi/OneDrive/Desktop/GD32VW553/GD32VW55X_Wifi_BLE_SDK/GD32VW55x_RELEASE_V1.0.2/MSDK/ble/app\app_sec_mgr.c ****     \brief      Callback function to handle @ref BLE_SEC_EVT_LTK_REQ_IND event
 154:C:/Users/stapi/OneDrive/Desktop/GD32VW553/GD32VW55X_Wifi_BLE_SDK/GD32VW55x_RELEASE_V1.0.2/MSDK/ble/app\app_sec_mgr.c ****     \param[in]  p_ind: pointer to the LTK request indication data
 155:C:/Users/stapi/OneDrive/Desktop/GD32VW553/GD32VW55X_Wifi_BLE_SDK/GD32VW55x_RELEASE_V1.0.2/MSDK/ble/app\app_sec_mgr.c ****     \param[out] none
 156:C:/Users/stapi/OneDrive/Desktop/GD32VW553/GD32VW55X_Wifi_BLE_SDK/GD32VW55x_RELEASE_V1.0.2/MSDK/ble/app\app_sec_mgr.c ****     \retval     none
 157:C:/Users/stapi/OneDrive/Desktop/GD32VW553/GD32VW55X_Wifi_BLE_SDK/GD32VW55x_RELEASE_V1.0.2/MSDK/ble/app\app_sec_mgr.c **** */
 158:C:/Users/stapi/OneDrive/Desktop/GD32VW553/GD32VW55X_Wifi_BLE_SDK/GD32VW55x_RELEASE_V1.0.2/MSDK/ble/app\app_sec_mgr.c **** static void app_ltk_req_hdlr(ble_gap_ltk_req_ind_t *p_ind)
 159:C:/Users/stapi/OneDrive/Desktop/GD32VW553/GD32VW55X_Wifi_BLE_SDK/GD32VW55x_RELEASE_V1.0.2/MSDK/ble/app\app_sec_mgr.c **** {
 160:C:/Users/stapi/OneDrive/Desktop/GD32VW553/GD32VW55X_Wifi_BLE_SDK/GD32VW55x_RELEASE_V1.0.2/MSDK/ble/app\app_sec_mgr.c ****     uint8_t i;
 161:C:/Users/stapi/OneDrive/Desktop/GD32VW553/GD32VW55X_Wifi_BLE_SDK/GD32VW55x_RELEASE_V1.0.2/MSDK/ble/app\app_sec_mgr.c ****     ble_gap_ltk_t ltk;
 162:C:/Users/stapi/OneDrive/Desktop/GD32VW553/GD32VW55X_Wifi_BLE_SDK/GD32VW55x_RELEASE_V1.0.2/MSDK/ble/app\app_sec_mgr.c ****     ble_device_t *p_device = dm_find_dev_by_conidx(p_ind->conn_idx);
 163:C:/Users/stapi/OneDrive/Desktop/GD32VW553/GD32VW55X_Wifi_BLE_SDK/GD32VW55x_RELEASE_V1.0.2/MSDK/ble/app\app_sec_mgr.c **** 
 164:C:/Users/stapi/OneDrive/Desktop/GD32VW553/GD32VW55X_Wifi_BLE_SDK/GD32VW55x_RELEASE_V1.0.2/MSDK/ble/app\app_sec_mgr.c ****     if (p_device == NULL) {
 165:C:/Users/stapi/OneDrive/Desktop/GD32VW553/GD32VW55X_Wifi_BLE_SDK/GD32VW55x_RELEASE_V1.0.2/MSDK/ble/app\app_sec_mgr.c ****         dbg_print(NOTICE, "app_ltk_req_hdlr can't find device !\r\n");
 166:C:/Users/stapi/OneDrive/Desktop/GD32VW553/GD32VW55X_Wifi_BLE_SDK/GD32VW55x_RELEASE_V1.0.2/MSDK/ble/app\app_sec_mgr.c ****         ble_sec_ltk_req_cfm(p_ind->conn_idx, false, NULL);
 167:C:/Users/stapi/OneDrive/Desktop/GD32VW553/GD32VW55X_Wifi_BLE_SDK/GD32VW55x_RELEASE_V1.0.2/MSDK/ble/app\app_sec_mgr.c ****         return;
 168:C:/Users/stapi/OneDrive/Desktop/GD32VW553/GD32VW55X_Wifi_BLE_SDK/GD32VW55x_RELEASE_V1.0.2/MSDK/ble/app\app_sec_mgr.c ****     }
 169:C:/Users/stapi/OneDrive/Desktop/GD32VW553/GD32VW55X_Wifi_BLE_SDK/GD32VW55x_RELEASE_V1.0.2/MSDK/ble/app\app_sec_mgr.c **** 
 170:C:/Users/stapi/OneDrive/Desktop/GD32VW553/GD32VW55X_Wifi_BLE_SDK/GD32VW55x_RELEASE_V1.0.2/MSDK/ble/app\app_sec_mgr.c ****     ltk.key_size = p_ind->key_size;
 171:C:/Users/stapi/OneDrive/Desktop/GD32VW553/GD32VW55X_Wifi_BLE_SDK/GD32VW55x_RELEASE_V1.0.2/MSDK/ble/app\app_sec_mgr.c ****     // Generate all the values
 172:C:/Users/stapi/OneDrive/Desktop/GD32VW553/GD32VW55X_Wifi_BLE_SDK/GD32VW55x_RELEASE_V1.0.2/MSDK/ble/app\app_sec_mgr.c ****     sys_random_bytes_get((void *)&ltk.ediv, 2);
 173:C:/Users/stapi/OneDrive/Desktop/GD32VW553/GD32VW55X_Wifi_BLE_SDK/GD32VW55x_RELEASE_V1.0.2/MSDK/ble/app\app_sec_mgr.c ****     sys_random_bytes_get(ltk.rnd_num, BLE_GAP_RANDOM_NUMBER_LEN);
 174:C:/Users/stapi/OneDrive/Desktop/GD32VW553/GD32VW55X_Wifi_BLE_SDK/GD32VW55x_RELEASE_V1.0.2/MSDK/ble/app\app_sec_mgr.c ****     sys_random_bytes_get(ltk.ltk, BLE_GAP_KEY_LEN);
 175:C:/Users/stapi/OneDrive/Desktop/GD32VW553/GD32VW55X_Wifi_BLE_SDK/GD32VW55x_RELEASE_V1.0.2/MSDK/ble/app\app_sec_mgr.c **** 
 176:C:/Users/stapi/OneDrive/Desktop/GD32VW553/GD32VW55X_Wifi_BLE_SDK/GD32VW55x_RELEASE_V1.0.2/MSDK/ble/app\app_sec_mgr.c ****     if (app_sec_env.authen_bond) {
 177:C:/Users/stapi/OneDrive/Desktop/GD32VW553/GD32VW55X_Wifi_BLE_SDK/GD32VW55x_RELEASE_V1.0.2/MSDK/ble/app\app_sec_mgr.c ****         p_device->bond_info.local_ltk.key_size = p_ind->key_size;
 178:C:/Users/stapi/OneDrive/Desktop/GD32VW553/GD32VW55X_Wifi_BLE_SDK/GD32VW55x_RELEASE_V1.0.2/MSDK/ble/app\app_sec_mgr.c ****         p_device->bond_info.local_ltk.ediv = ltk.ediv;
 179:C:/Users/stapi/OneDrive/Desktop/GD32VW553/GD32VW55X_Wifi_BLE_SDK/GD32VW55x_RELEASE_V1.0.2/MSDK/ble/app\app_sec_mgr.c ****         memcpy(p_device->bond_info.local_ltk.ltk, ltk.ltk, BLE_GAP_KEY_LEN);
 180:C:/Users/stapi/OneDrive/Desktop/GD32VW553/GD32VW55X_Wifi_BLE_SDK/GD32VW55x_RELEASE_V1.0.2/MSDK/ble/app\app_sec_mgr.c ****         memcpy(p_device->bond_info.local_ltk.rnd_num, ltk.rnd_num, BLE_GAP_RANDOM_NUMBER_LEN);
 181:C:/Users/stapi/OneDrive/Desktop/GD32VW553/GD32VW55X_Wifi_BLE_SDK/GD32VW55x_RELEASE_V1.0.2/MSDK/ble/app\app_sec_mgr.c ****     }
 182:C:/Users/stapi/OneDrive/Desktop/GD32VW553/GD32VW55X_Wifi_BLE_SDK/GD32VW55x_RELEASE_V1.0.2/MSDK/ble/app\app_sec_mgr.c **** 
 183:C:/Users/stapi/OneDrive/Desktop/GD32VW553/GD32VW55X_Wifi_BLE_SDK/GD32VW55x_RELEASE_V1.0.2/MSDK/ble/app\app_sec_mgr.c ****     p_device->bond_info.key_msk |= BLE_LOC_LTK_ENCKEY;
 184:C:/Users/stapi/OneDrive/Desktop/GD32VW553/GD32VW55X_Wifi_BLE_SDK/GD32VW55x_RELEASE_V1.0.2/MSDK/ble/app\app_sec_mgr.c **** 
 185:C:/Users/stapi/OneDrive/Desktop/GD32VW553/GD32VW55X_Wifi_BLE_SDK/GD32VW55x_RELEASE_V1.0.2/MSDK/ble/app\app_sec_mgr.c ****     dbg_print(NOTICE, "conn_idx %u bond ltk req, key size %d, ltk: 0x", p_ind->conn_idx, p_ind->key
 186:C:/Users/stapi/OneDrive/Desktop/GD32VW553/GD32VW55X_Wifi_BLE_SDK/GD32VW55x_RELEASE_V1.0.2/MSDK/ble/app\app_sec_mgr.c ****     for (i = 0; i < BLE_GAP_KEY_LEN; i++) {
 187:C:/Users/stapi/OneDrive/Desktop/GD32VW553/GD32VW55X_Wifi_BLE_SDK/GD32VW55x_RELEASE_V1.0.2/MSDK/ble/app\app_sec_mgr.c ****         dbg_print(NOTICE, "%x", ltk.ltk[i]);
 188:C:/Users/stapi/OneDrive/Desktop/GD32VW553/GD32VW55X_Wifi_BLE_SDK/GD32VW55x_RELEASE_V1.0.2/MSDK/ble/app\app_sec_mgr.c ****     }
 189:C:/Users/stapi/OneDrive/Desktop/GD32VW553/GD32VW55X_Wifi_BLE_SDK/GD32VW55x_RELEASE_V1.0.2/MSDK/ble/app\app_sec_mgr.c **** 
 190:C:/Users/stapi/OneDrive/Desktop/GD32VW553/GD32VW55X_Wifi_BLE_SDK/GD32VW55x_RELEASE_V1.0.2/MSDK/ble/app\app_sec_mgr.c ****     dbg_print(NOTICE, "\r\n");
 191:C:/Users/stapi/OneDrive/Desktop/GD32VW553/GD32VW55X_Wifi_BLE_SDK/GD32VW55x_RELEASE_V1.0.2/MSDK/ble/app\app_sec_mgr.c **** 
 192:C:/Users/stapi/OneDrive/Desktop/GD32VW553/GD32VW55X_Wifi_BLE_SDK/GD32VW55x_RELEASE_V1.0.2/MSDK/ble/app\app_sec_mgr.c ****     ble_sec_ltk_req_cfm(p_ind->conn_idx, true, &ltk);
 193:C:/Users/stapi/OneDrive/Desktop/GD32VW553/GD32VW55X_Wifi_BLE_SDK/GD32VW55x_RELEASE_V1.0.2/MSDK/ble/app\app_sec_mgr.c **** }
 194:C:/Users/stapi/OneDrive/Desktop/GD32VW553/GD32VW55X_Wifi_BLE_SDK/GD32VW55x_RELEASE_V1.0.2/MSDK/ble/app\app_sec_mgr.c **** 
 195:C:/Users/stapi/OneDrive/Desktop/GD32VW553/GD32VW55X_Wifi_BLE_SDK/GD32VW55x_RELEASE_V1.0.2/MSDK/ble/app\app_sec_mgr.c **** /*!
 196:C:/Users/stapi/OneDrive/Desktop/GD32VW553/GD32VW55X_Wifi_BLE_SDK/GD32VW55x_RELEASE_V1.0.2/MSDK/ble/app\app_sec_mgr.c ****     \brief      Callback function to handle @ref BLE_SEC_EVT_KEY_DISPLAY_REQ_IND event
 197:C:/Users/stapi/OneDrive/Desktop/GD32VW553/GD32VW55X_Wifi_BLE_SDK/GD32VW55x_RELEASE_V1.0.2/MSDK/ble/app\app_sec_mgr.c ****     \param[in]  p_ind: pointer to the passkey display TK request indication data
 198:C:/Users/stapi/OneDrive/Desktop/GD32VW553/GD32VW55X_Wifi_BLE_SDK/GD32VW55x_RELEASE_V1.0.2/MSDK/ble/app\app_sec_mgr.c ****     \param[out] none
 199:C:/Users/stapi/OneDrive/Desktop/GD32VW553/GD32VW55X_Wifi_BLE_SDK/GD32VW55x_RELEASE_V1.0.2/MSDK/ble/app\app_sec_mgr.c ****     \retval     none
 200:C:/Users/stapi/OneDrive/Desktop/GD32VW553/GD32VW55X_Wifi_BLE_SDK/GD32VW55x_RELEASE_V1.0.2/MSDK/ble/app\app_sec_mgr.c **** */
 201:C:/Users/stapi/OneDrive/Desktop/GD32VW553/GD32VW55X_Wifi_BLE_SDK/GD32VW55x_RELEASE_V1.0.2/MSDK/ble/app\app_sec_mgr.c **** static void app_key_display_req_hdlr(ble_gap_tk_req_ind_t *p_ind)
 202:C:/Users/stapi/OneDrive/Desktop/GD32VW553/GD32VW55X_Wifi_BLE_SDK/GD32VW55x_RELEASE_V1.0.2/MSDK/ble/app\app_sec_mgr.c **** {
 203:C:/Users/stapi/OneDrive/Desktop/GD32VW553/GD32VW55X_Wifi_BLE_SDK/GD32VW55x_RELEASE_V1.0.2/MSDK/ble/app\app_sec_mgr.c ****     // Generate a PIN Code- (Between 100000 and 999999)
 204:C:/Users/stapi/OneDrive/Desktop/GD32VW553/GD32VW55X_Wifi_BLE_SDK/GD32VW55x_RELEASE_V1.0.2/MSDK/ble/app\app_sec_mgr.c ****     uint32_t pin_code = (100000 + (((uint32_t)rand()) % 900000));
 205:C:/Users/stapi/OneDrive/Desktop/GD32VW553/GD32VW55X_Wifi_BLE_SDK/GD32VW55x_RELEASE_V1.0.2/MSDK/ble/app\app_sec_mgr.c ****     ble_device_t *p_device = dm_find_dev_by_conidx(p_ind->conn_idx);
 206:C:/Users/stapi/OneDrive/Desktop/GD32VW553/GD32VW55X_Wifi_BLE_SDK/GD32VW55x_RELEASE_V1.0.2/MSDK/ble/app\app_sec_mgr.c **** 
 207:C:/Users/stapi/OneDrive/Desktop/GD32VW553/GD32VW55X_Wifi_BLE_SDK/GD32VW55x_RELEASE_V1.0.2/MSDK/ble/app\app_sec_mgr.c ****     if (p_device == NULL) {
 208:C:/Users/stapi/OneDrive/Desktop/GD32VW553/GD32VW55X_Wifi_BLE_SDK/GD32VW55x_RELEASE_V1.0.2/MSDK/ble/app\app_sec_mgr.c ****         dbg_print(NOTICE, "app_key_display_req_hdlr can't find device !\r\n");
 209:C:/Users/stapi/OneDrive/Desktop/GD32VW553/GD32VW55X_Wifi_BLE_SDK/GD32VW55x_RELEASE_V1.0.2/MSDK/ble/app\app_sec_mgr.c ****         ble_sec_key_display_enter_cfm(p_ind->conn_idx, false, pin_code);
 210:C:/Users/stapi/OneDrive/Desktop/GD32VW553/GD32VW55X_Wifi_BLE_SDK/GD32VW55x_RELEASE_V1.0.2/MSDK/ble/app\app_sec_mgr.c ****         return;
 211:C:/Users/stapi/OneDrive/Desktop/GD32VW553/GD32VW55X_Wifi_BLE_SDK/GD32VW55x_RELEASE_V1.0.2/MSDK/ble/app\app_sec_mgr.c ****     }
 212:C:/Users/stapi/OneDrive/Desktop/GD32VW553/GD32VW55X_Wifi_BLE_SDK/GD32VW55x_RELEASE_V1.0.2/MSDK/ble/app\app_sec_mgr.c **** 
 213:C:/Users/stapi/OneDrive/Desktop/GD32VW553/GD32VW55X_Wifi_BLE_SDK/GD32VW55x_RELEASE_V1.0.2/MSDK/ble/app\app_sec_mgr.c ****     dbg_print(NOTICE, "pin code %d\r\n", pin_code);
 214:C:/Users/stapi/OneDrive/Desktop/GD32VW553/GD32VW55X_Wifi_BLE_SDK/GD32VW55x_RELEASE_V1.0.2/MSDK/ble/app\app_sec_mgr.c **** 
 215:C:/Users/stapi/OneDrive/Desktop/GD32VW553/GD32VW55X_Wifi_BLE_SDK/GD32VW55x_RELEASE_V1.0.2/MSDK/ble/app\app_sec_mgr.c ****     ble_sec_key_display_enter_cfm(p_ind->conn_idx, true, pin_code);
 216:C:/Users/stapi/OneDrive/Desktop/GD32VW553/GD32VW55X_Wifi_BLE_SDK/GD32VW55x_RELEASE_V1.0.2/MSDK/ble/app\app_sec_mgr.c **** }
 217:C:/Users/stapi/OneDrive/Desktop/GD32VW553/GD32VW55X_Wifi_BLE_SDK/GD32VW55x_RELEASE_V1.0.2/MSDK/ble/app\app_sec_mgr.c **** 
 218:C:/Users/stapi/OneDrive/Desktop/GD32VW553/GD32VW55X_Wifi_BLE_SDK/GD32VW55x_RELEASE_V1.0.2/MSDK/ble/app\app_sec_mgr.c **** /*!
 219:C:/Users/stapi/OneDrive/Desktop/GD32VW553/GD32VW55X_Wifi_BLE_SDK/GD32VW55x_RELEASE_V1.0.2/MSDK/ble/app\app_sec_mgr.c ****     \brief      Callback function to handle @ref BLE_SEC_EVT_KEY_ENTER_REQ_IND event
 220:C:/Users/stapi/OneDrive/Desktop/GD32VW553/GD32VW55X_Wifi_BLE_SDK/GD32VW55x_RELEASE_V1.0.2/MSDK/ble/app\app_sec_mgr.c ****     \param[in]  p_ind: pointer to the input passkey TK request indication data
 221:C:/Users/stapi/OneDrive/Desktop/GD32VW553/GD32VW55X_Wifi_BLE_SDK/GD32VW55x_RELEASE_V1.0.2/MSDK/ble/app\app_sec_mgr.c ****     \param[out] none
 222:C:/Users/stapi/OneDrive/Desktop/GD32VW553/GD32VW55X_Wifi_BLE_SDK/GD32VW55x_RELEASE_V1.0.2/MSDK/ble/app\app_sec_mgr.c ****     \retval     none
 223:C:/Users/stapi/OneDrive/Desktop/GD32VW553/GD32VW55X_Wifi_BLE_SDK/GD32VW55x_RELEASE_V1.0.2/MSDK/ble/app\app_sec_mgr.c **** */
 224:C:/Users/stapi/OneDrive/Desktop/GD32VW553/GD32VW55X_Wifi_BLE_SDK/GD32VW55x_RELEASE_V1.0.2/MSDK/ble/app\app_sec_mgr.c **** static void app_key_enter_req_hdlr(ble_gap_tk_req_ind_t *p_ind)
 225:C:/Users/stapi/OneDrive/Desktop/GD32VW553/GD32VW55X_Wifi_BLE_SDK/GD32VW55x_RELEASE_V1.0.2/MSDK/ble/app\app_sec_mgr.c **** {
 226:C:/Users/stapi/OneDrive/Desktop/GD32VW553/GD32VW55X_Wifi_BLE_SDK/GD32VW55x_RELEASE_V1.0.2/MSDK/ble/app\app_sec_mgr.c ****     uint32_t pin_code = 0;
 227:C:/Users/stapi/OneDrive/Desktop/GD32VW553/GD32VW55X_Wifi_BLE_SDK/GD32VW55x_RELEASE_V1.0.2/MSDK/ble/app\app_sec_mgr.c ****     ble_device_t *p_device = dm_find_dev_by_conidx(p_ind->conn_idx);
 228:C:/Users/stapi/OneDrive/Desktop/GD32VW553/GD32VW55X_Wifi_BLE_SDK/GD32VW55x_RELEASE_V1.0.2/MSDK/ble/app\app_sec_mgr.c **** 
 229:C:/Users/stapi/OneDrive/Desktop/GD32VW553/GD32VW55X_Wifi_BLE_SDK/GD32VW55x_RELEASE_V1.0.2/MSDK/ble/app\app_sec_mgr.c ****     if (p_device == NULL) {
 230:C:/Users/stapi/OneDrive/Desktop/GD32VW553/GD32VW55X_Wifi_BLE_SDK/GD32VW55x_RELEASE_V1.0.2/MSDK/ble/app\app_sec_mgr.c ****         dbg_print(NOTICE, "app_key_enter_req_hdlr can't find device !\r\n");
 231:C:/Users/stapi/OneDrive/Desktop/GD32VW553/GD32VW55X_Wifi_BLE_SDK/GD32VW55x_RELEASE_V1.0.2/MSDK/ble/app\app_sec_mgr.c ****         ble_sec_key_display_enter_cfm(p_ind->conn_idx, false, pin_code);
 232:C:/Users/stapi/OneDrive/Desktop/GD32VW553/GD32VW55X_Wifi_BLE_SDK/GD32VW55x_RELEASE_V1.0.2/MSDK/ble/app\app_sec_mgr.c ****         return;
 233:C:/Users/stapi/OneDrive/Desktop/GD32VW553/GD32VW55X_Wifi_BLE_SDK/GD32VW55x_RELEASE_V1.0.2/MSDK/ble/app\app_sec_mgr.c ****     }
 234:C:/Users/stapi/OneDrive/Desktop/GD32VW553/GD32VW55X_Wifi_BLE_SDK/GD32VW55x_RELEASE_V1.0.2/MSDK/ble/app\app_sec_mgr.c **** 
 235:C:/Users/stapi/OneDrive/Desktop/GD32VW553/GD32VW55X_Wifi_BLE_SDK/GD32VW55x_RELEASE_V1.0.2/MSDK/ble/app\app_sec_mgr.c ****     dbg_print(NOTICE, "conn_idx %u waiting for user to input key ......\r\n", p_ind->conn_idx);
 236:C:/Users/stapi/OneDrive/Desktop/GD32VW553/GD32VW55X_Wifi_BLE_SDK/GD32VW55x_RELEASE_V1.0.2/MSDK/ble/app\app_sec_mgr.c **** }
 237:C:/Users/stapi/OneDrive/Desktop/GD32VW553/GD32VW55X_Wifi_BLE_SDK/GD32VW55x_RELEASE_V1.0.2/MSDK/ble/app\app_sec_mgr.c **** 
 238:C:/Users/stapi/OneDrive/Desktop/GD32VW553/GD32VW55X_Wifi_BLE_SDK/GD32VW55x_RELEASE_V1.0.2/MSDK/ble/app\app_sec_mgr.c **** /*!
 239:C:/Users/stapi/OneDrive/Desktop/GD32VW553/GD32VW55X_Wifi_BLE_SDK/GD32VW55x_RELEASE_V1.0.2/MSDK/ble/app\app_sec_mgr.c ****     \brief      Callback function to handle @ref BLE_SEC_EVT_KEY_OOB_REQ_IND event
 240:C:/Users/stapi/OneDrive/Desktop/GD32VW553/GD32VW55X_Wifi_BLE_SDK/GD32VW55x_RELEASE_V1.0.2/MSDK/ble/app\app_sec_mgr.c ****     \param[in]  p_ind: pointer to the OOB TK request indication data
 241:C:/Users/stapi/OneDrive/Desktop/GD32VW553/GD32VW55X_Wifi_BLE_SDK/GD32VW55x_RELEASE_V1.0.2/MSDK/ble/app\app_sec_mgr.c ****     \param[out] none
 242:C:/Users/stapi/OneDrive/Desktop/GD32VW553/GD32VW55X_Wifi_BLE_SDK/GD32VW55x_RELEASE_V1.0.2/MSDK/ble/app\app_sec_mgr.c ****     \retval     none
 243:C:/Users/stapi/OneDrive/Desktop/GD32VW553/GD32VW55X_Wifi_BLE_SDK/GD32VW55x_RELEASE_V1.0.2/MSDK/ble/app\app_sec_mgr.c **** */
 244:C:/Users/stapi/OneDrive/Desktop/GD32VW553/GD32VW55X_Wifi_BLE_SDK/GD32VW55x_RELEASE_V1.0.2/MSDK/ble/app\app_sec_mgr.c **** static void app_key_oob_req_hdlr(ble_gap_tk_req_ind_t *p_ind)
 245:C:/Users/stapi/OneDrive/Desktop/GD32VW553/GD32VW55X_Wifi_BLE_SDK/GD32VW55x_RELEASE_V1.0.2/MSDK/ble/app\app_sec_mgr.c **** {
 246:C:/Users/stapi/OneDrive/Desktop/GD32VW553/GD32VW55X_Wifi_BLE_SDK/GD32VW55x_RELEASE_V1.0.2/MSDK/ble/app\app_sec_mgr.c ****     ble_device_t *p_device = dm_find_dev_by_conidx(p_ind->conn_idx);
 247:C:/Users/stapi/OneDrive/Desktop/GD32VW553/GD32VW55X_Wifi_BLE_SDK/GD32VW55x_RELEASE_V1.0.2/MSDK/ble/app\app_sec_mgr.c **** 
 248:C:/Users/stapi/OneDrive/Desktop/GD32VW553/GD32VW55X_Wifi_BLE_SDK/GD32VW55x_RELEASE_V1.0.2/MSDK/ble/app\app_sec_mgr.c ****     if (p_device == NULL) {
 249:C:/Users/stapi/OneDrive/Desktop/GD32VW553/GD32VW55X_Wifi_BLE_SDK/GD32VW55x_RELEASE_V1.0.2/MSDK/ble/app\app_sec_mgr.c ****         dbg_print(NOTICE, "app_key_oob_req_hdlr can't find device !\r\n");
 250:C:/Users/stapi/OneDrive/Desktop/GD32VW553/GD32VW55X_Wifi_BLE_SDK/GD32VW55x_RELEASE_V1.0.2/MSDK/ble/app\app_sec_mgr.c ****         ble_sec_oob_req_cfm(p_ind->conn_idx, false, NULL);
 251:C:/Users/stapi/OneDrive/Desktop/GD32VW553/GD32VW55X_Wifi_BLE_SDK/GD32VW55x_RELEASE_V1.0.2/MSDK/ble/app\app_sec_mgr.c ****         return;
 252:C:/Users/stapi/OneDrive/Desktop/GD32VW553/GD32VW55X_Wifi_BLE_SDK/GD32VW55x_RELEASE_V1.0.2/MSDK/ble/app\app_sec_mgr.c ****     }
 253:C:/Users/stapi/OneDrive/Desktop/GD32VW553/GD32VW55X_Wifi_BLE_SDK/GD32VW55x_RELEASE_V1.0.2/MSDK/ble/app\app_sec_mgr.c **** 
 254:C:/Users/stapi/OneDrive/Desktop/GD32VW553/GD32VW55X_Wifi_BLE_SDK/GD32VW55x_RELEASE_V1.0.2/MSDK/ble/app\app_sec_mgr.c ****     dbg_print(NOTICE, "conn_idx %u waiting for user to input oob ......\r\n", p_ind->conn_idx);
 255:C:/Users/stapi/OneDrive/Desktop/GD32VW553/GD32VW55X_Wifi_BLE_SDK/GD32VW55x_RELEASE_V1.0.2/MSDK/ble/app\app_sec_mgr.c **** }
 256:C:/Users/stapi/OneDrive/Desktop/GD32VW553/GD32VW55X_Wifi_BLE_SDK/GD32VW55x_RELEASE_V1.0.2/MSDK/ble/app\app_sec_mgr.c **** 
 257:C:/Users/stapi/OneDrive/Desktop/GD32VW553/GD32VW55X_Wifi_BLE_SDK/GD32VW55x_RELEASE_V1.0.2/MSDK/ble/app\app_sec_mgr.c **** /*!
 258:C:/Users/stapi/OneDrive/Desktop/GD32VW553/GD32VW55X_Wifi_BLE_SDK/GD32VW55x_RELEASE_V1.0.2/MSDK/ble/app\app_sec_mgr.c ****     \brief      Callback function to handle @ref BLE_SEC_EVT_NUMERIC_COMPARISON_IND event
 259:C:/Users/stapi/OneDrive/Desktop/GD32VW553/GD32VW55X_Wifi_BLE_SDK/GD32VW55x_RELEASE_V1.0.2/MSDK/ble/app\app_sec_mgr.c ****     \param[in]  p_ind: pointer to the numeric comparison indication data
 260:C:/Users/stapi/OneDrive/Desktop/GD32VW553/GD32VW55X_Wifi_BLE_SDK/GD32VW55x_RELEASE_V1.0.2/MSDK/ble/app\app_sec_mgr.c ****     \param[out] none
 261:C:/Users/stapi/OneDrive/Desktop/GD32VW553/GD32VW55X_Wifi_BLE_SDK/GD32VW55x_RELEASE_V1.0.2/MSDK/ble/app\app_sec_mgr.c ****     \retval     none
 262:C:/Users/stapi/OneDrive/Desktop/GD32VW553/GD32VW55X_Wifi_BLE_SDK/GD32VW55x_RELEASE_V1.0.2/MSDK/ble/app\app_sec_mgr.c **** */
 263:C:/Users/stapi/OneDrive/Desktop/GD32VW553/GD32VW55X_Wifi_BLE_SDK/GD32VW55x_RELEASE_V1.0.2/MSDK/ble/app\app_sec_mgr.c **** static void app_nc_hdlr(ble_gap_nc_ind_t *p_ind)
 264:C:/Users/stapi/OneDrive/Desktop/GD32VW553/GD32VW55X_Wifi_BLE_SDK/GD32VW55x_RELEASE_V1.0.2/MSDK/ble/app\app_sec_mgr.c **** {
 265:C:/Users/stapi/OneDrive/Desktop/GD32VW553/GD32VW55X_Wifi_BLE_SDK/GD32VW55x_RELEASE_V1.0.2/MSDK/ble/app\app_sec_mgr.c ****     ble_device_t *p_device = dm_find_dev_by_conidx(p_ind->conn_idx);
 266:C:/Users/stapi/OneDrive/Desktop/GD32VW553/GD32VW55X_Wifi_BLE_SDK/GD32VW55x_RELEASE_V1.0.2/MSDK/ble/app\app_sec_mgr.c **** 
 267:C:/Users/stapi/OneDrive/Desktop/GD32VW553/GD32VW55X_Wifi_BLE_SDK/GD32VW55x_RELEASE_V1.0.2/MSDK/ble/app\app_sec_mgr.c ****     if (p_device == NULL) {
 268:C:/Users/stapi/OneDrive/Desktop/GD32VW553/GD32VW55X_Wifi_BLE_SDK/GD32VW55x_RELEASE_V1.0.2/MSDK/ble/app\app_sec_mgr.c ****         dbg_print(NOTICE, "app_nc_hdlr can't find device !\r\n");
 269:C:/Users/stapi/OneDrive/Desktop/GD32VW553/GD32VW55X_Wifi_BLE_SDK/GD32VW55x_RELEASE_V1.0.2/MSDK/ble/app\app_sec_mgr.c ****         ble_sec_nc_cfm(p_ind->conn_idx, false);
 270:C:/Users/stapi/OneDrive/Desktop/GD32VW553/GD32VW55X_Wifi_BLE_SDK/GD32VW55x_RELEASE_V1.0.2/MSDK/ble/app\app_sec_mgr.c ****         return;
 271:C:/Users/stapi/OneDrive/Desktop/GD32VW553/GD32VW55X_Wifi_BLE_SDK/GD32VW55x_RELEASE_V1.0.2/MSDK/ble/app\app_sec_mgr.c ****     }
 272:C:/Users/stapi/OneDrive/Desktop/GD32VW553/GD32VW55X_Wifi_BLE_SDK/GD32VW55x_RELEASE_V1.0.2/MSDK/ble/app\app_sec_mgr.c **** 
 273:C:/Users/stapi/OneDrive/Desktop/GD32VW553/GD32VW55X_Wifi_BLE_SDK/GD32VW55x_RELEASE_V1.0.2/MSDK/ble/app\app_sec_mgr.c ****     dbg_print(NOTICE, "conn_idx %u num val: %d\r\n", p_ind->conn_idx, p_ind->numeric_value);
 274:C:/Users/stapi/OneDrive/Desktop/GD32VW553/GD32VW55X_Wifi_BLE_SDK/GD32VW55x_RELEASE_V1.0.2/MSDK/ble/app\app_sec_mgr.c ****     dbg_print(NOTICE, "waiting for user to compare......\r\n");
 275:C:/Users/stapi/OneDrive/Desktop/GD32VW553/GD32VW55X_Wifi_BLE_SDK/GD32VW55x_RELEASE_V1.0.2/MSDK/ble/app\app_sec_mgr.c **** }
 276:C:/Users/stapi/OneDrive/Desktop/GD32VW553/GD32VW55X_Wifi_BLE_SDK/GD32VW55x_RELEASE_V1.0.2/MSDK/ble/app\app_sec_mgr.c **** 
 277:C:/Users/stapi/OneDrive/Desktop/GD32VW553/GD32VW55X_Wifi_BLE_SDK/GD32VW55x_RELEASE_V1.0.2/MSDK/ble/app\app_sec_mgr.c **** /*!
 278:C:/Users/stapi/OneDrive/Desktop/GD32VW553/GD32VW55X_Wifi_BLE_SDK/GD32VW55x_RELEASE_V1.0.2/MSDK/ble/app\app_sec_mgr.c ****     \brief      Callback function to handle @ref BLE_SEC_EVT_IRK_REQ_IND event
 279:C:/Users/stapi/OneDrive/Desktop/GD32VW553/GD32VW55X_Wifi_BLE_SDK/GD32VW55x_RELEASE_V1.0.2/MSDK/ble/app\app_sec_mgr.c ****     \param[in]  p_ind: pointer to the IRK request indication data
 280:C:/Users/stapi/OneDrive/Desktop/GD32VW553/GD32VW55X_Wifi_BLE_SDK/GD32VW55x_RELEASE_V1.0.2/MSDK/ble/app\app_sec_mgr.c ****     \param[out] none
 281:C:/Users/stapi/OneDrive/Desktop/GD32VW553/GD32VW55X_Wifi_BLE_SDK/GD32VW55x_RELEASE_V1.0.2/MSDK/ble/app\app_sec_mgr.c ****     \retval     none
 282:C:/Users/stapi/OneDrive/Desktop/GD32VW553/GD32VW55X_Wifi_BLE_SDK/GD32VW55x_RELEASE_V1.0.2/MSDK/ble/app\app_sec_mgr.c **** */
 283:C:/Users/stapi/OneDrive/Desktop/GD32VW553/GD32VW55X_Wifi_BLE_SDK/GD32VW55x_RELEASE_V1.0.2/MSDK/ble/app\app_sec_mgr.c **** static void app_irk_req_hdlr(ble_gap_irk_req_ind_t *p_ind)
 284:C:/Users/stapi/OneDrive/Desktop/GD32VW553/GD32VW55X_Wifi_BLE_SDK/GD32VW55x_RELEASE_V1.0.2/MSDK/ble/app\app_sec_mgr.c **** {
 285:C:/Users/stapi/OneDrive/Desktop/GD32VW553/GD32VW55X_Wifi_BLE_SDK/GD32VW55x_RELEASE_V1.0.2/MSDK/ble/app\app_sec_mgr.c ****     uint8_t i;
 286:C:/Users/stapi/OneDrive/Desktop/GD32VW553/GD32VW55X_Wifi_BLE_SDK/GD32VW55x_RELEASE_V1.0.2/MSDK/ble/app\app_sec_mgr.c ****     ble_gap_irk_t irk;
 287:C:/Users/stapi/OneDrive/Desktop/GD32VW553/GD32VW55X_Wifi_BLE_SDK/GD32VW55x_RELEASE_V1.0.2/MSDK/ble/app\app_sec_mgr.c ****     ble_device_t *p_device = dm_find_dev_by_conidx(p_ind->conn_idx);
 288:C:/Users/stapi/OneDrive/Desktop/GD32VW553/GD32VW55X_Wifi_BLE_SDK/GD32VW55x_RELEASE_V1.0.2/MSDK/ble/app\app_sec_mgr.c **** 
 289:C:/Users/stapi/OneDrive/Desktop/GD32VW553/GD32VW55X_Wifi_BLE_SDK/GD32VW55x_RELEASE_V1.0.2/MSDK/ble/app\app_sec_mgr.c ****     if (p_device == NULL) {
 290:C:/Users/stapi/OneDrive/Desktop/GD32VW553/GD32VW55X_Wifi_BLE_SDK/GD32VW55x_RELEASE_V1.0.2/MSDK/ble/app\app_sec_mgr.c ****         dbg_print(NOTICE, "app_irk_req_hdlr can't find device !\r\n");
 291:C:/Users/stapi/OneDrive/Desktop/GD32VW553/GD32VW55X_Wifi_BLE_SDK/GD32VW55x_RELEASE_V1.0.2/MSDK/ble/app\app_sec_mgr.c ****         ble_sec_irk_req_cfm(p_ind->conn_idx, false, NULL);
 292:C:/Users/stapi/OneDrive/Desktop/GD32VW553/GD32VW55X_Wifi_BLE_SDK/GD32VW55x_RELEASE_V1.0.2/MSDK/ble/app\app_sec_mgr.c ****         return;
 293:C:/Users/stapi/OneDrive/Desktop/GD32VW553/GD32VW55X_Wifi_BLE_SDK/GD32VW55x_RELEASE_V1.0.2/MSDK/ble/app\app_sec_mgr.c ****     }
 294:C:/Users/stapi/OneDrive/Desktop/GD32VW553/GD32VW55X_Wifi_BLE_SDK/GD32VW55x_RELEASE_V1.0.2/MSDK/ble/app\app_sec_mgr.c **** 
 295:C:/Users/stapi/OneDrive/Desktop/GD32VW553/GD32VW55X_Wifi_BLE_SDK/GD32VW55x_RELEASE_V1.0.2/MSDK/ble/app\app_sec_mgr.c ****     ble_adp_loc_irk_get(irk.irk);
 296:C:/Users/stapi/OneDrive/Desktop/GD32VW553/GD32VW55X_Wifi_BLE_SDK/GD32VW55x_RELEASE_V1.0.2/MSDK/ble/app\app_sec_mgr.c ****     ble_adp_identity_addr_get(&irk.identity);
 297:C:/Users/stapi/OneDrive/Desktop/GD32VW553/GD32VW55X_Wifi_BLE_SDK/GD32VW55x_RELEASE_V1.0.2/MSDK/ble/app\app_sec_mgr.c **** 
 298:C:/Users/stapi/OneDrive/Desktop/GD32VW553/GD32VW55X_Wifi_BLE_SDK/GD32VW55x_RELEASE_V1.0.2/MSDK/ble/app\app_sec_mgr.c ****     dbg_print(NOTICE, "conn_idx %u bond irk request:", p_ind->conn_idx);
 299:C:/Users/stapi/OneDrive/Desktop/GD32VW553/GD32VW55X_Wifi_BLE_SDK/GD32VW55x_RELEASE_V1.0.2/MSDK/ble/app\app_sec_mgr.c **** 
 300:C:/Users/stapi/OneDrive/Desktop/GD32VW553/GD32VW55X_Wifi_BLE_SDK/GD32VW55x_RELEASE_V1.0.2/MSDK/ble/app\app_sec_mgr.c ****     for (i = 0; i < BLE_GAP_KEY_LEN; i++) {
 301:C:/Users/stapi/OneDrive/Desktop/GD32VW553/GD32VW55X_Wifi_BLE_SDK/GD32VW55x_RELEASE_V1.0.2/MSDK/ble/app\app_sec_mgr.c ****         dbg_print(NOTICE, " %02x", irk.irk[i]);
 302:C:/Users/stapi/OneDrive/Desktop/GD32VW553/GD32VW55X_Wifi_BLE_SDK/GD32VW55x_RELEASE_V1.0.2/MSDK/ble/app\app_sec_mgr.c ****     }
 303:C:/Users/stapi/OneDrive/Desktop/GD32VW553/GD32VW55X_Wifi_BLE_SDK/GD32VW55x_RELEASE_V1.0.2/MSDK/ble/app\app_sec_mgr.c **** 
 304:C:/Users/stapi/OneDrive/Desktop/GD32VW553/GD32VW55X_Wifi_BLE_SDK/GD32VW55x_RELEASE_V1.0.2/MSDK/ble/app\app_sec_mgr.c ****     dbg_print(NOTICE, "\r\n");
 305:C:/Users/stapi/OneDrive/Desktop/GD32VW553/GD32VW55X_Wifi_BLE_SDK/GD32VW55x_RELEASE_V1.0.2/MSDK/ble/app\app_sec_mgr.c **** 
 306:C:/Users/stapi/OneDrive/Desktop/GD32VW553/GD32VW55X_Wifi_BLE_SDK/GD32VW55x_RELEASE_V1.0.2/MSDK/ble/app\app_sec_mgr.c ****     dbg_print(NOTICE, "identity addr %02X:%02X:%02X:%02X:%02X:%02X \r\n",
 307:C:/Users/stapi/OneDrive/Desktop/GD32VW553/GD32VW55X_Wifi_BLE_SDK/GD32VW55x_RELEASE_V1.0.2/MSDK/ble/app\app_sec_mgr.c ****            irk.identity.addr[5], irk.identity.addr[4], irk.identity.addr[3],
 308:C:/Users/stapi/OneDrive/Desktop/GD32VW553/GD32VW55X_Wifi_BLE_SDK/GD32VW55x_RELEASE_V1.0.2/MSDK/ble/app\app_sec_mgr.c ****            irk.identity.addr[2], irk.identity.addr[1], irk.identity.addr[0]);
 309:C:/Users/stapi/OneDrive/Desktop/GD32VW553/GD32VW55X_Wifi_BLE_SDK/GD32VW55x_RELEASE_V1.0.2/MSDK/ble/app\app_sec_mgr.c **** 
 310:C:/Users/stapi/OneDrive/Desktop/GD32VW553/GD32VW55X_Wifi_BLE_SDK/GD32VW55x_RELEASE_V1.0.2/MSDK/ble/app\app_sec_mgr.c ****     ble_sec_irk_req_cfm(p_ind->conn_idx, true, &irk);
 311:C:/Users/stapi/OneDrive/Desktop/GD32VW553/GD32VW55X_Wifi_BLE_SDK/GD32VW55x_RELEASE_V1.0.2/MSDK/ble/app\app_sec_mgr.c **** }
 312:C:/Users/stapi/OneDrive/Desktop/GD32VW553/GD32VW55X_Wifi_BLE_SDK/GD32VW55x_RELEASE_V1.0.2/MSDK/ble/app\app_sec_mgr.c **** 
 313:C:/Users/stapi/OneDrive/Desktop/GD32VW553/GD32VW55X_Wifi_BLE_SDK/GD32VW55x_RELEASE_V1.0.2/MSDK/ble/app\app_sec_mgr.c **** /*!
 314:C:/Users/stapi/OneDrive/Desktop/GD32VW553/GD32VW55X_Wifi_BLE_SDK/GD32VW55x_RELEASE_V1.0.2/MSDK/ble/app\app_sec_mgr.c ****     \brief      Callback function to handle @ref BLE_SEC_EVT_CSRK_REQ_IND event
 315:C:/Users/stapi/OneDrive/Desktop/GD32VW553/GD32VW55X_Wifi_BLE_SDK/GD32VW55x_RELEASE_V1.0.2/MSDK/ble/app\app_sec_mgr.c ****     \param[in]  p_ind: pointer to the CSRK request indication data
 316:C:/Users/stapi/OneDrive/Desktop/GD32VW553/GD32VW55X_Wifi_BLE_SDK/GD32VW55x_RELEASE_V1.0.2/MSDK/ble/app\app_sec_mgr.c ****     \param[out] none
 317:C:/Users/stapi/OneDrive/Desktop/GD32VW553/GD32VW55X_Wifi_BLE_SDK/GD32VW55x_RELEASE_V1.0.2/MSDK/ble/app\app_sec_mgr.c ****     \retval     none
 318:C:/Users/stapi/OneDrive/Desktop/GD32VW553/GD32VW55X_Wifi_BLE_SDK/GD32VW55x_RELEASE_V1.0.2/MSDK/ble/app\app_sec_mgr.c **** */
 319:C:/Users/stapi/OneDrive/Desktop/GD32VW553/GD32VW55X_Wifi_BLE_SDK/GD32VW55x_RELEASE_V1.0.2/MSDK/ble/app\app_sec_mgr.c **** static void app_csrk_req_hdlr(ble_gap_csrk_req_ind_t *p_ind)
 320:C:/Users/stapi/OneDrive/Desktop/GD32VW553/GD32VW55X_Wifi_BLE_SDK/GD32VW55x_RELEASE_V1.0.2/MSDK/ble/app\app_sec_mgr.c **** {
 321:C:/Users/stapi/OneDrive/Desktop/GD32VW553/GD32VW55X_Wifi_BLE_SDK/GD32VW55x_RELEASE_V1.0.2/MSDK/ble/app\app_sec_mgr.c ****     uint8_t i;
 322:C:/Users/stapi/OneDrive/Desktop/GD32VW553/GD32VW55X_Wifi_BLE_SDK/GD32VW55x_RELEASE_V1.0.2/MSDK/ble/app\app_sec_mgr.c ****     ble_gap_csrk_t csrk;
 323:C:/Users/stapi/OneDrive/Desktop/GD32VW553/GD32VW55X_Wifi_BLE_SDK/GD32VW55x_RELEASE_V1.0.2/MSDK/ble/app\app_sec_mgr.c ****     ble_device_t *p_device = dm_find_dev_by_conidx(p_ind->conn_idx);
 324:C:/Users/stapi/OneDrive/Desktop/GD32VW553/GD32VW55X_Wifi_BLE_SDK/GD32VW55x_RELEASE_V1.0.2/MSDK/ble/app\app_sec_mgr.c **** 
 325:C:/Users/stapi/OneDrive/Desktop/GD32VW553/GD32VW55X_Wifi_BLE_SDK/GD32VW55x_RELEASE_V1.0.2/MSDK/ble/app\app_sec_mgr.c ****     sys_random_bytes_get(csrk.csrk, BLE_GAP_KEY_LEN);
 326:C:/Users/stapi/OneDrive/Desktop/GD32VW553/GD32VW55X_Wifi_BLE_SDK/GD32VW55x_RELEASE_V1.0.2/MSDK/ble/app\app_sec_mgr.c **** 
 327:C:/Users/stapi/OneDrive/Desktop/GD32VW553/GD32VW55X_Wifi_BLE_SDK/GD32VW55x_RELEASE_V1.0.2/MSDK/ble/app\app_sec_mgr.c ****     if (p_device == NULL) {
 328:C:/Users/stapi/OneDrive/Desktop/GD32VW553/GD32VW55X_Wifi_BLE_SDK/GD32VW55x_RELEASE_V1.0.2/MSDK/ble/app\app_sec_mgr.c ****         dbg_print(NOTICE, "app_csrk_req_hdlr can't find device !\r\n");
 329:C:/Users/stapi/OneDrive/Desktop/GD32VW553/GD32VW55X_Wifi_BLE_SDK/GD32VW55x_RELEASE_V1.0.2/MSDK/ble/app\app_sec_mgr.c ****         ble_sec_csrk_req_cfm(p_ind->conn_idx, false, NULL);
 330:C:/Users/stapi/OneDrive/Desktop/GD32VW553/GD32VW55X_Wifi_BLE_SDK/GD32VW55x_RELEASE_V1.0.2/MSDK/ble/app\app_sec_mgr.c ****         return;
 331:C:/Users/stapi/OneDrive/Desktop/GD32VW553/GD32VW55X_Wifi_BLE_SDK/GD32VW55x_RELEASE_V1.0.2/MSDK/ble/app\app_sec_mgr.c ****     }
 332:C:/Users/stapi/OneDrive/Desktop/GD32VW553/GD32VW55X_Wifi_BLE_SDK/GD32VW55x_RELEASE_V1.0.2/MSDK/ble/app\app_sec_mgr.c **** 
 333:C:/Users/stapi/OneDrive/Desktop/GD32VW553/GD32VW55X_Wifi_BLE_SDK/GD32VW55x_RELEASE_V1.0.2/MSDK/ble/app\app_sec_mgr.c ****     p_device->bond_info.key_msk |= BLE_LOC_CSRK;
 334:C:/Users/stapi/OneDrive/Desktop/GD32VW553/GD32VW55X_Wifi_BLE_SDK/GD32VW55x_RELEASE_V1.0.2/MSDK/ble/app\app_sec_mgr.c ****     memcpy(p_device->bond_info.local_csrk.csrk, csrk.csrk, BLE_GAP_KEY_LEN);
 335:C:/Users/stapi/OneDrive/Desktop/GD32VW553/GD32VW55X_Wifi_BLE_SDK/GD32VW55x_RELEASE_V1.0.2/MSDK/ble/app\app_sec_mgr.c **** 
 336:C:/Users/stapi/OneDrive/Desktop/GD32VW553/GD32VW55X_Wifi_BLE_SDK/GD32VW55x_RELEASE_V1.0.2/MSDK/ble/app\app_sec_mgr.c ****     dbg_print(NOTICE, "conn_idx %u bond csrk request:", p_ind->conn_idx);
 337:C:/Users/stapi/OneDrive/Desktop/GD32VW553/GD32VW55X_Wifi_BLE_SDK/GD32VW55x_RELEASE_V1.0.2/MSDK/ble/app\app_sec_mgr.c **** 
 338:C:/Users/stapi/OneDrive/Desktop/GD32VW553/GD32VW55X_Wifi_BLE_SDK/GD32VW55x_RELEASE_V1.0.2/MSDK/ble/app\app_sec_mgr.c ****     for (i = 0; i < BLE_GAP_KEY_LEN; i++) {
 339:C:/Users/stapi/OneDrive/Desktop/GD32VW553/GD32VW55X_Wifi_BLE_SDK/GD32VW55x_RELEASE_V1.0.2/MSDK/ble/app\app_sec_mgr.c ****         dbg_print(NOTICE, " %02x", csrk.csrk[i]);
 340:C:/Users/stapi/OneDrive/Desktop/GD32VW553/GD32VW55X_Wifi_BLE_SDK/GD32VW55x_RELEASE_V1.0.2/MSDK/ble/app\app_sec_mgr.c ****     }
 341:C:/Users/stapi/OneDrive/Desktop/GD32VW553/GD32VW55X_Wifi_BLE_SDK/GD32VW55x_RELEASE_V1.0.2/MSDK/ble/app\app_sec_mgr.c **** 
 342:C:/Users/stapi/OneDrive/Desktop/GD32VW553/GD32VW55X_Wifi_BLE_SDK/GD32VW55x_RELEASE_V1.0.2/MSDK/ble/app\app_sec_mgr.c ****     dbg_print(NOTICE, "\r\n");
 343:C:/Users/stapi/OneDrive/Desktop/GD32VW553/GD32VW55X_Wifi_BLE_SDK/GD32VW55x_RELEASE_V1.0.2/MSDK/ble/app\app_sec_mgr.c **** 
 344:C:/Users/stapi/OneDrive/Desktop/GD32VW553/GD32VW55X_Wifi_BLE_SDK/GD32VW55x_RELEASE_V1.0.2/MSDK/ble/app\app_sec_mgr.c ****     ble_sec_csrk_req_cfm(p_ind->conn_idx, true, &csrk);
 345:C:/Users/stapi/OneDrive/Desktop/GD32VW553/GD32VW55X_Wifi_BLE_SDK/GD32VW55x_RELEASE_V1.0.2/MSDK/ble/app\app_sec_mgr.c **** }
 346:C:/Users/stapi/OneDrive/Desktop/GD32VW553/GD32VW55X_Wifi_BLE_SDK/GD32VW55x_RELEASE_V1.0.2/MSDK/ble/app\app_sec_mgr.c **** 
 347:C:/Users/stapi/OneDrive/Desktop/GD32VW553/GD32VW55X_Wifi_BLE_SDK/GD32VW55x_RELEASE_V1.0.2/MSDK/ble/app\app_sec_mgr.c **** /*!
 348:C:/Users/stapi/OneDrive/Desktop/GD32VW553/GD32VW55X_Wifi_BLE_SDK/GD32VW55x_RELEASE_V1.0.2/MSDK/ble/app\app_sec_mgr.c ****     \brief      Callback function to handle @ref BLE_SEC_EVT_OOB_DATA_REQ_IND event
 349:C:/Users/stapi/OneDrive/Desktop/GD32VW553/GD32VW55X_Wifi_BLE_SDK/GD32VW55x_RELEASE_V1.0.2/MSDK/ble/app\app_sec_mgr.c ****     \param[in]  p_ind: pointer to the OOB data request indication data
 350:C:/Users/stapi/OneDrive/Desktop/GD32VW553/GD32VW55X_Wifi_BLE_SDK/GD32VW55x_RELEASE_V1.0.2/MSDK/ble/app\app_sec_mgr.c ****     \param[out] none
 351:C:/Users/stapi/OneDrive/Desktop/GD32VW553/GD32VW55X_Wifi_BLE_SDK/GD32VW55x_RELEASE_V1.0.2/MSDK/ble/app\app_sec_mgr.c ****     \retval     none
 352:C:/Users/stapi/OneDrive/Desktop/GD32VW553/GD32VW55X_Wifi_BLE_SDK/GD32VW55x_RELEASE_V1.0.2/MSDK/ble/app\app_sec_mgr.c **** */
 353:C:/Users/stapi/OneDrive/Desktop/GD32VW553/GD32VW55X_Wifi_BLE_SDK/GD32VW55x_RELEASE_V1.0.2/MSDK/ble/app\app_sec_mgr.c **** static void app_oob_data_req_hdlr(ble_gap_oob_data_req_ind_t *p_ind)
 354:C:/Users/stapi/OneDrive/Desktop/GD32VW553/GD32VW55X_Wifi_BLE_SDK/GD32VW55x_RELEASE_V1.0.2/MSDK/ble/app\app_sec_mgr.c **** {
 355:C:/Users/stapi/OneDrive/Desktop/GD32VW553/GD32VW55X_Wifi_BLE_SDK/GD32VW55x_RELEASE_V1.0.2/MSDK/ble/app\app_sec_mgr.c ****     ble_device_t *p_device = dm_find_dev_by_conidx(p_ind->conn_idx);
 356:C:/Users/stapi/OneDrive/Desktop/GD32VW553/GD32VW55X_Wifi_BLE_SDK/GD32VW55x_RELEASE_V1.0.2/MSDK/ble/app\app_sec_mgr.c **** 
 357:C:/Users/stapi/OneDrive/Desktop/GD32VW553/GD32VW55X_Wifi_BLE_SDK/GD32VW55x_RELEASE_V1.0.2/MSDK/ble/app\app_sec_mgr.c ****     if (p_device == NULL) {
 358:C:/Users/stapi/OneDrive/Desktop/GD32VW553/GD32VW55X_Wifi_BLE_SDK/GD32VW55x_RELEASE_V1.0.2/MSDK/ble/app\app_sec_mgr.c ****         dbg_print(NOTICE, "app_oob_data_req_hdlr can't find device !\r\n");
 359:C:/Users/stapi/OneDrive/Desktop/GD32VW553/GD32VW55X_Wifi_BLE_SDK/GD32VW55x_RELEASE_V1.0.2/MSDK/ble/app\app_sec_mgr.c ****         ble_sec_oob_data_req_cfm(p_ind->conn_idx, false, NULL, NULL);
 360:C:/Users/stapi/OneDrive/Desktop/GD32VW553/GD32VW55X_Wifi_BLE_SDK/GD32VW55x_RELEASE_V1.0.2/MSDK/ble/app\app_sec_mgr.c ****         return;
 361:C:/Users/stapi/OneDrive/Desktop/GD32VW553/GD32VW55X_Wifi_BLE_SDK/GD32VW55x_RELEASE_V1.0.2/MSDK/ble/app\app_sec_mgr.c ****     }
 362:C:/Users/stapi/OneDrive/Desktop/GD32VW553/GD32VW55X_Wifi_BLE_SDK/GD32VW55x_RELEASE_V1.0.2/MSDK/ble/app\app_sec_mgr.c **** 
 363:C:/Users/stapi/OneDrive/Desktop/GD32VW553/GD32VW55X_Wifi_BLE_SDK/GD32VW55x_RELEASE_V1.0.2/MSDK/ble/app\app_sec_mgr.c ****     ble_sec_oob_data_req_cfm(p_ind->conn_idx, true, app_sec_env.oob_data.conf, app_sec_env.oob_data
 364:C:/Users/stapi/OneDrive/Desktop/GD32VW553/GD32VW55X_Wifi_BLE_SDK/GD32VW55x_RELEASE_V1.0.2/MSDK/ble/app\app_sec_mgr.c **** }
 365:C:/Users/stapi/OneDrive/Desktop/GD32VW553/GD32VW55X_Wifi_BLE_SDK/GD32VW55x_RELEASE_V1.0.2/MSDK/ble/app\app_sec_mgr.c **** 
 366:C:/Users/stapi/OneDrive/Desktop/GD32VW553/GD32VW55X_Wifi_BLE_SDK/GD32VW55x_RELEASE_V1.0.2/MSDK/ble/app\app_sec_mgr.c **** /*!
 367:C:/Users/stapi/OneDrive/Desktop/GD32VW553/GD32VW55X_Wifi_BLE_SDK/GD32VW55x_RELEASE_V1.0.2/MSDK/ble/app\app_sec_mgr.c ****     \brief      Callback function to handle @ref BLE_SEC_EVT_PAIRING_SUCCESS_INFO event
 368:C:/Users/stapi/OneDrive/Desktop/GD32VW553/GD32VW55X_Wifi_BLE_SDK/GD32VW55x_RELEASE_V1.0.2/MSDK/ble/app\app_sec_mgr.c ****     \param[in]  p_info: pointer to the pairing success information data
 369:C:/Users/stapi/OneDrive/Desktop/GD32VW553/GD32VW55X_Wifi_BLE_SDK/GD32VW55x_RELEASE_V1.0.2/MSDK/ble/app\app_sec_mgr.c ****     \param[out] none
 370:C:/Users/stapi/OneDrive/Desktop/GD32VW553/GD32VW55X_Wifi_BLE_SDK/GD32VW55x_RELEASE_V1.0.2/MSDK/ble/app\app_sec_mgr.c ****     \retval     none
 371:C:/Users/stapi/OneDrive/Desktop/GD32VW553/GD32VW55X_Wifi_BLE_SDK/GD32VW55x_RELEASE_V1.0.2/MSDK/ble/app\app_sec_mgr.c **** */
 372:C:/Users/stapi/OneDrive/Desktop/GD32VW553/GD32VW55X_Wifi_BLE_SDK/GD32VW55x_RELEASE_V1.0.2/MSDK/ble/app\app_sec_mgr.c **** static void app_pairing_success_hdlr(ble_sec_pairing_success_t *p_info)
 373:C:/Users/stapi/OneDrive/Desktop/GD32VW553/GD32VW55X_Wifi_BLE_SDK/GD32VW55x_RELEASE_V1.0.2/MSDK/ble/app\app_sec_mgr.c **** {
 374:C:/Users/stapi/OneDrive/Desktop/GD32VW553/GD32VW55X_Wifi_BLE_SDK/GD32VW55x_RELEASE_V1.0.2/MSDK/ble/app\app_sec_mgr.c ****     uint8_t i;
 375:C:/Users/stapi/OneDrive/Desktop/GD32VW553/GD32VW55X_Wifi_BLE_SDK/GD32VW55x_RELEASE_V1.0.2/MSDK/ble/app\app_sec_mgr.c ****     ble_device_t *p_device = dm_find_dev_by_conidx(p_info->conidx);
 376:C:/Users/stapi/OneDrive/Desktop/GD32VW553/GD32VW55X_Wifi_BLE_SDK/GD32VW55x_RELEASE_V1.0.2/MSDK/ble/app\app_sec_mgr.c **** 
 377:C:/Users/stapi/OneDrive/Desktop/GD32VW553/GD32VW55X_Wifi_BLE_SDK/GD32VW55x_RELEASE_V1.0.2/MSDK/ble/app\app_sec_mgr.c ****     if (p_device == NULL) {
 378:C:/Users/stapi/OneDrive/Desktop/GD32VW553/GD32VW55X_Wifi_BLE_SDK/GD32VW55x_RELEASE_V1.0.2/MSDK/ble/app\app_sec_mgr.c ****         dbg_print(NOTICE, "app_pairing_success_hdlr can't find device !\r\n");
 379:C:/Users/stapi/OneDrive/Desktop/GD32VW553/GD32VW55X_Wifi_BLE_SDK/GD32VW55x_RELEASE_V1.0.2/MSDK/ble/app\app_sec_mgr.c ****         return;
 380:C:/Users/stapi/OneDrive/Desktop/GD32VW553/GD32VW55X_Wifi_BLE_SDK/GD32VW55x_RELEASE_V1.0.2/MSDK/ble/app\app_sec_mgr.c ****     }
 381:C:/Users/stapi/OneDrive/Desktop/GD32VW553/GD32VW55X_Wifi_BLE_SDK/GD32VW55x_RELEASE_V1.0.2/MSDK/ble/app\app_sec_mgr.c **** 
 382:C:/Users/stapi/OneDrive/Desktop/GD32VW553/GD32VW55X_Wifi_BLE_SDK/GD32VW55x_RELEASE_V1.0.2/MSDK/ble/app\app_sec_mgr.c ****     dbg_print(NOTICE, "conn_idx %u pairing success, level 0x%x ltk_present %d sc %d\r\n", p_info->c
 383:C:/Users/stapi/OneDrive/Desktop/GD32VW553/GD32VW55X_Wifi_BLE_SDK/GD32VW55x_RELEASE_V1.0.2/MSDK/ble/app\app_sec_mgr.c ****            p_info->bond_info.pairing_lvl, p_info->bond_info.enc_key_present, p_info->sc);
 384:C:/Users/stapi/OneDrive/Desktop/GD32VW553/GD32VW55X_Wifi_BLE_SDK/GD32VW55x_RELEASE_V1.0.2/MSDK/ble/app\app_sec_mgr.c **** 
 385:C:/Users/stapi/OneDrive/Desktop/GD32VW553/GD32VW55X_Wifi_BLE_SDK/GD32VW55x_RELEASE_V1.0.2/MSDK/ble/app\app_sec_mgr.c ****     p_device->bonded = (p_info->bond_info.pairing_lvl & BLE_GAP_PAIRING_BOND_PRESENT_BIT) != 0 ? tr
 386:C:/Users/stapi/OneDrive/Desktop/GD32VW553/GD32VW55X_Wifi_BLE_SDK/GD32VW55x_RELEASE_V1.0.2/MSDK/ble/app\app_sec_mgr.c ****     p_device->bond_info = p_info->bond_info;
 387:C:/Users/stapi/OneDrive/Desktop/GD32VW553/GD32VW55X_Wifi_BLE_SDK/GD32VW55x_RELEASE_V1.0.2/MSDK/ble/app\app_sec_mgr.c **** 
 388:C:/Users/stapi/OneDrive/Desktop/GD32VW553/GD32VW55X_Wifi_BLE_SDK/GD32VW55x_RELEASE_V1.0.2/MSDK/ble/app\app_sec_mgr.c ****     if (p_device->bond_info.key_msk & BLE_LOC_LTK_ENCKEY) {
 389:C:/Users/stapi/OneDrive/Desktop/GD32VW553/GD32VW55X_Wifi_BLE_SDK/GD32VW55x_RELEASE_V1.0.2/MSDK/ble/app\app_sec_mgr.c ****         dbg_print(NOTICE, "local key size %d, ltk(hex): ", p_device->bond_info.local_ltk.key_size);
 390:C:/Users/stapi/OneDrive/Desktop/GD32VW553/GD32VW55X_Wifi_BLE_SDK/GD32VW55x_RELEASE_V1.0.2/MSDK/ble/app\app_sec_mgr.c **** 
 391:C:/Users/stapi/OneDrive/Desktop/GD32VW553/GD32VW55X_Wifi_BLE_SDK/GD32VW55x_RELEASE_V1.0.2/MSDK/ble/app\app_sec_mgr.c ****         for (i = 0; i < BLE_GAP_KEY_LEN; i++) {
 392:C:/Users/stapi/OneDrive/Desktop/GD32VW553/GD32VW55X_Wifi_BLE_SDK/GD32VW55x_RELEASE_V1.0.2/MSDK/ble/app\app_sec_mgr.c ****             dbg_print(NOTICE, "%02x", p_device->bond_info.local_ltk.ltk[i]);
 393:C:/Users/stapi/OneDrive/Desktop/GD32VW553/GD32VW55X_Wifi_BLE_SDK/GD32VW55x_RELEASE_V1.0.2/MSDK/ble/app\app_sec_mgr.c ****         }
 394:C:/Users/stapi/OneDrive/Desktop/GD32VW553/GD32VW55X_Wifi_BLE_SDK/GD32VW55x_RELEASE_V1.0.2/MSDK/ble/app\app_sec_mgr.c ****         dbg_print(NOTICE, "\r\n");
 395:C:/Users/stapi/OneDrive/Desktop/GD32VW553/GD32VW55X_Wifi_BLE_SDK/GD32VW55x_RELEASE_V1.0.2/MSDK/ble/app\app_sec_mgr.c ****     }
 396:C:/Users/stapi/OneDrive/Desktop/GD32VW553/GD32VW55X_Wifi_BLE_SDK/GD32VW55x_RELEASE_V1.0.2/MSDK/ble/app\app_sec_mgr.c **** 
 397:C:/Users/stapi/OneDrive/Desktop/GD32VW553/GD32VW55X_Wifi_BLE_SDK/GD32VW55x_RELEASE_V1.0.2/MSDK/ble/app\app_sec_mgr.c ****     if (p_device->bond_info.key_msk & BLE_PEER_LTK_ENCKEY) {
 398:C:/Users/stapi/OneDrive/Desktop/GD32VW553/GD32VW55X_Wifi_BLE_SDK/GD32VW55x_RELEASE_V1.0.2/MSDK/ble/app\app_sec_mgr.c ****         dbg_print(NOTICE, "peer key size %d, ltk(hex): ", p_device->bond_info.peer_ltk.key_size);
 399:C:/Users/stapi/OneDrive/Desktop/GD32VW553/GD32VW55X_Wifi_BLE_SDK/GD32VW55x_RELEASE_V1.0.2/MSDK/ble/app\app_sec_mgr.c **** 
 400:C:/Users/stapi/OneDrive/Desktop/GD32VW553/GD32VW55X_Wifi_BLE_SDK/GD32VW55x_RELEASE_V1.0.2/MSDK/ble/app\app_sec_mgr.c ****         for (i = 0; i < BLE_GAP_KEY_LEN; i++) {
 401:C:/Users/stapi/OneDrive/Desktop/GD32VW553/GD32VW55X_Wifi_BLE_SDK/GD32VW55x_RELEASE_V1.0.2/MSDK/ble/app\app_sec_mgr.c ****             dbg_print(NOTICE, "%02x", p_device->bond_info.peer_ltk.ltk[i]);
 402:C:/Users/stapi/OneDrive/Desktop/GD32VW553/GD32VW55X_Wifi_BLE_SDK/GD32VW55x_RELEASE_V1.0.2/MSDK/ble/app\app_sec_mgr.c ****         }
 403:C:/Users/stapi/OneDrive/Desktop/GD32VW553/GD32VW55X_Wifi_BLE_SDK/GD32VW55x_RELEASE_V1.0.2/MSDK/ble/app\app_sec_mgr.c ****         dbg_print(NOTICE, "\r\n");
 404:C:/Users/stapi/OneDrive/Desktop/GD32VW553/GD32VW55X_Wifi_BLE_SDK/GD32VW55x_RELEASE_V1.0.2/MSDK/ble/app\app_sec_mgr.c ****     }
 405:C:/Users/stapi/OneDrive/Desktop/GD32VW553/GD32VW55X_Wifi_BLE_SDK/GD32VW55x_RELEASE_V1.0.2/MSDK/ble/app\app_sec_mgr.c **** 
 406:C:/Users/stapi/OneDrive/Desktop/GD32VW553/GD32VW55X_Wifi_BLE_SDK/GD32VW55x_RELEASE_V1.0.2/MSDK/ble/app\app_sec_mgr.c ****     if (p_device->bond_info.key_msk & BLE_PEER_IDKEY) {
 407:C:/Users/stapi/OneDrive/Desktop/GD32VW553/GD32VW55X_Wifi_BLE_SDK/GD32VW55x_RELEASE_V1.0.2/MSDK/ble/app\app_sec_mgr.c ****         dbg_print(NOTICE, "peer irk(hex): ");
 408:C:/Users/stapi/OneDrive/Desktop/GD32VW553/GD32VW55X_Wifi_BLE_SDK/GD32VW55x_RELEASE_V1.0.2/MSDK/ble/app\app_sec_mgr.c **** 
 409:C:/Users/stapi/OneDrive/Desktop/GD32VW553/GD32VW55X_Wifi_BLE_SDK/GD32VW55x_RELEASE_V1.0.2/MSDK/ble/app\app_sec_mgr.c ****         for (i = 0; i < BLE_GAP_KEY_LEN; i++) {
 410:C:/Users/stapi/OneDrive/Desktop/GD32VW553/GD32VW55X_Wifi_BLE_SDK/GD32VW55x_RELEASE_V1.0.2/MSDK/ble/app\app_sec_mgr.c ****             dbg_print(NOTICE, "%02x", p_device->bond_info.peer_irk.irk[i]);
 411:C:/Users/stapi/OneDrive/Desktop/GD32VW553/GD32VW55X_Wifi_BLE_SDK/GD32VW55x_RELEASE_V1.0.2/MSDK/ble/app\app_sec_mgr.c ****         }
 412:C:/Users/stapi/OneDrive/Desktop/GD32VW553/GD32VW55X_Wifi_BLE_SDK/GD32VW55x_RELEASE_V1.0.2/MSDK/ble/app\app_sec_mgr.c ****         dbg_print(NOTICE, "\r\n");
 413:C:/Users/stapi/OneDrive/Desktop/GD32VW553/GD32VW55X_Wifi_BLE_SDK/GD32VW55x_RELEASE_V1.0.2/MSDK/ble/app\app_sec_mgr.c ****     }
 414:C:/Users/stapi/OneDrive/Desktop/GD32VW553/GD32VW55X_Wifi_BLE_SDK/GD32VW55x_RELEASE_V1.0.2/MSDK/ble/app\app_sec_mgr.c **** 
 415:C:/Users/stapi/OneDrive/Desktop/GD32VW553/GD32VW55X_Wifi_BLE_SDK/GD32VW55x_RELEASE_V1.0.2/MSDK/ble/app\app_sec_mgr.c ****     if (p_device->bond_info.key_msk & BLE_LOC_CSRK) {
 416:C:/Users/stapi/OneDrive/Desktop/GD32VW553/GD32VW55X_Wifi_BLE_SDK/GD32VW55x_RELEASE_V1.0.2/MSDK/ble/app\app_sec_mgr.c ****         dbg_print(NOTICE, "local csrk(hex): ");
 417:C:/Users/stapi/OneDrive/Desktop/GD32VW553/GD32VW55X_Wifi_BLE_SDK/GD32VW55x_RELEASE_V1.0.2/MSDK/ble/app\app_sec_mgr.c **** 
 418:C:/Users/stapi/OneDrive/Desktop/GD32VW553/GD32VW55X_Wifi_BLE_SDK/GD32VW55x_RELEASE_V1.0.2/MSDK/ble/app\app_sec_mgr.c ****         for (i = 0; i < BLE_GAP_KEY_LEN; i++) {
 419:C:/Users/stapi/OneDrive/Desktop/GD32VW553/GD32VW55X_Wifi_BLE_SDK/GD32VW55x_RELEASE_V1.0.2/MSDK/ble/app\app_sec_mgr.c ****             dbg_print(NOTICE, "%02x", p_device->bond_info.local_csrk.csrk[i]);
 420:C:/Users/stapi/OneDrive/Desktop/GD32VW553/GD32VW55X_Wifi_BLE_SDK/GD32VW55x_RELEASE_V1.0.2/MSDK/ble/app\app_sec_mgr.c ****         }
 421:C:/Users/stapi/OneDrive/Desktop/GD32VW553/GD32VW55X_Wifi_BLE_SDK/GD32VW55x_RELEASE_V1.0.2/MSDK/ble/app\app_sec_mgr.c ****         dbg_print(NOTICE, "\r\n");
 422:C:/Users/stapi/OneDrive/Desktop/GD32VW553/GD32VW55X_Wifi_BLE_SDK/GD32VW55x_RELEASE_V1.0.2/MSDK/ble/app\app_sec_mgr.c ****     }
 423:C:/Users/stapi/OneDrive/Desktop/GD32VW553/GD32VW55X_Wifi_BLE_SDK/GD32VW55x_RELEASE_V1.0.2/MSDK/ble/app\app_sec_mgr.c **** 
 424:C:/Users/stapi/OneDrive/Desktop/GD32VW553/GD32VW55X_Wifi_BLE_SDK/GD32VW55x_RELEASE_V1.0.2/MSDK/ble/app\app_sec_mgr.c ****     if (p_device->bond_info.key_msk & BLE_PEER_CSRK) {
 425:C:/Users/stapi/OneDrive/Desktop/GD32VW553/GD32VW55X_Wifi_BLE_SDK/GD32VW55x_RELEASE_V1.0.2/MSDK/ble/app\app_sec_mgr.c ****         dbg_print(NOTICE, "peer csrk(hex): ");
 426:C:/Users/stapi/OneDrive/Desktop/GD32VW553/GD32VW55X_Wifi_BLE_SDK/GD32VW55x_RELEASE_V1.0.2/MSDK/ble/app\app_sec_mgr.c **** 
 427:C:/Users/stapi/OneDrive/Desktop/GD32VW553/GD32VW55X_Wifi_BLE_SDK/GD32VW55x_RELEASE_V1.0.2/MSDK/ble/app\app_sec_mgr.c ****         for (i = 0; i < BLE_GAP_KEY_LEN; i++) {
 428:C:/Users/stapi/OneDrive/Desktop/GD32VW553/GD32VW55X_Wifi_BLE_SDK/GD32VW55x_RELEASE_V1.0.2/MSDK/ble/app\app_sec_mgr.c ****             dbg_print(NOTICE, "%02x", p_device->bond_info.peer_csrk.csrk[i]);
 429:C:/Users/stapi/OneDrive/Desktop/GD32VW553/GD32VW55X_Wifi_BLE_SDK/GD32VW55x_RELEASE_V1.0.2/MSDK/ble/app\app_sec_mgr.c ****         }
 430:C:/Users/stapi/OneDrive/Desktop/GD32VW553/GD32VW55X_Wifi_BLE_SDK/GD32VW55x_RELEASE_V1.0.2/MSDK/ble/app\app_sec_mgr.c ****         dbg_print(NOTICE, "\r\n");
 431:C:/Users/stapi/OneDrive/Desktop/GD32VW553/GD32VW55X_Wifi_BLE_SDK/GD32VW55x_RELEASE_V1.0.2/MSDK/ble/app\app_sec_mgr.c ****     }
 432:C:/Users/stapi/OneDrive/Desktop/GD32VW553/GD32VW55X_Wifi_BLE_SDK/GD32VW55x_RELEASE_V1.0.2/MSDK/ble/app\app_sec_mgr.c **** 
 433:C:/Users/stapi/OneDrive/Desktop/GD32VW553/GD32VW55X_Wifi_BLE_SDK/GD32VW55x_RELEASE_V1.0.2/MSDK/ble/app\app_sec_mgr.c ****     // If application manager keys, need to store bond data.
 434:C:/Users/stapi/OneDrive/Desktop/GD32VW553/GD32VW55X_Wifi_BLE_SDK/GD32VW55x_RELEASE_V1.0.2/MSDK/ble/app\app_sec_mgr.c ****     if (app_sec_mgr_key && (p_device->bond_info.pairing_lvl & BLE_GAP_PAIRING_BOND_PRESENT_BIT)) {
 435:C:/Users/stapi/OneDrive/Desktop/GD32VW553/GD32VW55X_Wifi_BLE_SDK/GD32VW55x_RELEASE_V1.0.2/MSDK/ble/app\app_sec_mgr.c ****         // If has identity address use identity address as store key
 436:C:/Users/stapi/OneDrive/Desktop/GD32VW553/GD32VW55X_Wifi_BLE_SDK/GD32VW55x_RELEASE_V1.0.2/MSDK/ble/app\app_sec_mgr.c ****         if (p_device->bond_info.key_msk & BLE_PEER_IDKEY) {
 437:C:/Users/stapi/OneDrive/Desktop/GD32VW553/GD32VW55X_Wifi_BLE_SDK/GD32VW55x_RELEASE_V1.0.2/MSDK/ble/app\app_sec_mgr.c ****             ble_peer_data_bond_store(&p_device->bond_info.peer_irk.identity, &p_device->bond_info);
 438:C:/Users/stapi/OneDrive/Desktop/GD32VW553/GD32VW55X_Wifi_BLE_SDK/GD32VW55x_RELEASE_V1.0.2/MSDK/ble/app\app_sec_mgr.c ****         } else {
 439:C:/Users/stapi/OneDrive/Desktop/GD32VW553/GD32VW55X_Wifi_BLE_SDK/GD32VW55x_RELEASE_V1.0.2/MSDK/ble/app\app_sec_mgr.c ****             ble_peer_data_bond_store(&p_device->cur_addr, &p_device->bond_info);
 440:C:/Users/stapi/OneDrive/Desktop/GD32VW553/GD32VW55X_Wifi_BLE_SDK/GD32VW55x_RELEASE_V1.0.2/MSDK/ble/app\app_sec_mgr.c ****         }
 441:C:/Users/stapi/OneDrive/Desktop/GD32VW553/GD32VW55X_Wifi_BLE_SDK/GD32VW55x_RELEASE_V1.0.2/MSDK/ble/app\app_sec_mgr.c ****     }
 442:C:/Users/stapi/OneDrive/Desktop/GD32VW553/GD32VW55X_Wifi_BLE_SDK/GD32VW55x_RELEASE_V1.0.2/MSDK/ble/app\app_sec_mgr.c **** 
 443:C:/Users/stapi/OneDrive/Desktop/GD32VW553/GD32VW55X_Wifi_BLE_SDK/GD32VW55x_RELEASE_V1.0.2/MSDK/ble/app\app_sec_mgr.c ****     if (pairing_cb.state == BLE_BOND_STATE_BONDING &&
 444:C:/Users/stapi/OneDrive/Desktop/GD32VW553/GD32VW55X_Wifi_BLE_SDK/GD32VW55x_RELEASE_V1.0.2/MSDK/ble/app\app_sec_mgr.c ****         memcmp(&pairing_cb.addr, &p_device->cur_addr, sizeof(ble_gap_addr_t)) == 0) {
 445:C:/Users/stapi/OneDrive/Desktop/GD32VW553/GD32VW55X_Wifi_BLE_SDK/GD32VW55x_RELEASE_V1.0.2/MSDK/ble/app\app_sec_mgr.c ****         memset(&pairing_cb.addr, 0, sizeof(ble_gap_addr_t));
 446:C:/Users/stapi/OneDrive/Desktop/GD32VW553/GD32VW55X_Wifi_BLE_SDK/GD32VW55x_RELEASE_V1.0.2/MSDK/ble/app\app_sec_mgr.c ****         pairing_cb.state = BLE_BOND_STATE_NONE;
 447:C:/Users/stapi/OneDrive/Desktop/GD32VW553/GD32VW55X_Wifi_BLE_SDK/GD32VW55x_RELEASE_V1.0.2/MSDK/ble/app\app_sec_mgr.c ****     }
 448:C:/Users/stapi/OneDrive/Desktop/GD32VW553/GD32VW55X_Wifi_BLE_SDK/GD32VW55x_RELEASE_V1.0.2/MSDK/ble/app\app_sec_mgr.c **** }
 449:C:/Users/stapi/OneDrive/Desktop/GD32VW553/GD32VW55X_Wifi_BLE_SDK/GD32VW55x_RELEASE_V1.0.2/MSDK/ble/app\app_sec_mgr.c **** 
 450:C:/Users/stapi/OneDrive/Desktop/GD32VW553/GD32VW55X_Wifi_BLE_SDK/GD32VW55x_RELEASE_V1.0.2/MSDK/ble/app\app_sec_mgr.c **** /*!
 451:C:/Users/stapi/OneDrive/Desktop/GD32VW553/GD32VW55X_Wifi_BLE_SDK/GD32VW55x_RELEASE_V1.0.2/MSDK/ble/app\app_sec_mgr.c ****     \brief      Callback function to handle @ref BLE_SEC_EVT_PAIRING_FAIL_INFO event
 452:C:/Users/stapi/OneDrive/Desktop/GD32VW553/GD32VW55X_Wifi_BLE_SDK/GD32VW55x_RELEASE_V1.0.2/MSDK/ble/app\app_sec_mgr.c ****     \param[in]  p_info: pointer to the pairing fail information data
 453:C:/Users/stapi/OneDrive/Desktop/GD32VW553/GD32VW55X_Wifi_BLE_SDK/GD32VW55x_RELEASE_V1.0.2/MSDK/ble/app\app_sec_mgr.c ****     \param[out] none
 454:C:/Users/stapi/OneDrive/Desktop/GD32VW553/GD32VW55X_Wifi_BLE_SDK/GD32VW55x_RELEASE_V1.0.2/MSDK/ble/app\app_sec_mgr.c ****     \retval     none
 455:C:/Users/stapi/OneDrive/Desktop/GD32VW553/GD32VW55X_Wifi_BLE_SDK/GD32VW55x_RELEASE_V1.0.2/MSDK/ble/app\app_sec_mgr.c **** */
 456:C:/Users/stapi/OneDrive/Desktop/GD32VW553/GD32VW55X_Wifi_BLE_SDK/GD32VW55x_RELEASE_V1.0.2/MSDK/ble/app\app_sec_mgr.c **** static void app_pairing_fail_hdlr(ble_sec_pairing_fail_t *p_info)
 457:C:/Users/stapi/OneDrive/Desktop/GD32VW553/GD32VW55X_Wifi_BLE_SDK/GD32VW55x_RELEASE_V1.0.2/MSDK/ble/app\app_sec_mgr.c **** {
 458:C:/Users/stapi/OneDrive/Desktop/GD32VW553/GD32VW55X_Wifi_BLE_SDK/GD32VW55x_RELEASE_V1.0.2/MSDK/ble/app\app_sec_mgr.c ****     ble_device_t *p_device = dm_find_dev_by_conidx(p_info->param.conn_idx);
 459:C:/Users/stapi/OneDrive/Desktop/GD32VW553/GD32VW55X_Wifi_BLE_SDK/GD32VW55x_RELEASE_V1.0.2/MSDK/ble/app\app_sec_mgr.c **** 
 460:C:/Users/stapi/OneDrive/Desktop/GD32VW553/GD32VW55X_Wifi_BLE_SDK/GD32VW55x_RELEASE_V1.0.2/MSDK/ble/app\app_sec_mgr.c ****     if (p_device == NULL) {
 461:C:/Users/stapi/OneDrive/Desktop/GD32VW553/GD32VW55X_Wifi_BLE_SDK/GD32VW55x_RELEASE_V1.0.2/MSDK/ble/app\app_sec_mgr.c ****         dbg_print(NOTICE, "app_pairing_fail_hdlr can't find device !\r\n");
 462:C:/Users/stapi/OneDrive/Desktop/GD32VW553/GD32VW55X_Wifi_BLE_SDK/GD32VW55x_RELEASE_V1.0.2/MSDK/ble/app\app_sec_mgr.c ****         return;
 463:C:/Users/stapi/OneDrive/Desktop/GD32VW553/GD32VW55X_Wifi_BLE_SDK/GD32VW55x_RELEASE_V1.0.2/MSDK/ble/app\app_sec_mgr.c ****     }
 464:C:/Users/stapi/OneDrive/Desktop/GD32VW553/GD32VW55X_Wifi_BLE_SDK/GD32VW55x_RELEASE_V1.0.2/MSDK/ble/app\app_sec_mgr.c **** 
 465:C:/Users/stapi/OneDrive/Desktop/GD32VW553/GD32VW55X_Wifi_BLE_SDK/GD32VW55x_RELEASE_V1.0.2/MSDK/ble/app\app_sec_mgr.c ****     if (pairing_cb.state == BLE_BOND_STATE_BONDING &&
 466:C:/Users/stapi/OneDrive/Desktop/GD32VW553/GD32VW55X_Wifi_BLE_SDK/GD32VW55x_RELEASE_V1.0.2/MSDK/ble/app\app_sec_mgr.c ****         memcmp(&pairing_cb.addr, &p_device->cur_addr, sizeof(ble_gap_addr_t)) == 0) {
 467:C:/Users/stapi/OneDrive/Desktop/GD32VW553/GD32VW55X_Wifi_BLE_SDK/GD32VW55x_RELEASE_V1.0.2/MSDK/ble/app\app_sec_mgr.c ****         memset(&pairing_cb, 0, sizeof(pairing_cb));
 468:C:/Users/stapi/OneDrive/Desktop/GD32VW553/GD32VW55X_Wifi_BLE_SDK/GD32VW55x_RELEASE_V1.0.2/MSDK/ble/app\app_sec_mgr.c ****     }
 469:C:/Users/stapi/OneDrive/Desktop/GD32VW553/GD32VW55X_Wifi_BLE_SDK/GD32VW55x_RELEASE_V1.0.2/MSDK/ble/app\app_sec_mgr.c **** 
 470:C:/Users/stapi/OneDrive/Desktop/GD32VW553/GD32VW55X_Wifi_BLE_SDK/GD32VW55x_RELEASE_V1.0.2/MSDK/ble/app\app_sec_mgr.c ****     dbg_print(NOTICE, "pairing fail reason 0x%x\r\n", p_info->param.reason);
 471:C:/Users/stapi/OneDrive/Desktop/GD32VW553/GD32VW55X_Wifi_BLE_SDK/GD32VW55x_RELEASE_V1.0.2/MSDK/ble/app\app_sec_mgr.c **** }
 472:C:/Users/stapi/OneDrive/Desktop/GD32VW553/GD32VW55X_Wifi_BLE_SDK/GD32VW55x_RELEASE_V1.0.2/MSDK/ble/app\app_sec_mgr.c **** 
 473:C:/Users/stapi/OneDrive/Desktop/GD32VW553/GD32VW55X_Wifi_BLE_SDK/GD32VW55x_RELEASE_V1.0.2/MSDK/ble/app\app_sec_mgr.c **** /*!
 474:C:/Users/stapi/OneDrive/Desktop/GD32VW553/GD32VW55X_Wifi_BLE_SDK/GD32VW55x_RELEASE_V1.0.2/MSDK/ble/app\app_sec_mgr.c ****     \brief      Callback function to handle @ref BLE_SEC_EVT_SECURITY_REQ_INFO event
 475:C:/Users/stapi/OneDrive/Desktop/GD32VW553/GD32VW55X_Wifi_BLE_SDK/GD32VW55x_RELEASE_V1.0.2/MSDK/ble/app\app_sec_mgr.c ****     \param[in]  p_info: pointer to the security request information data
 476:C:/Users/stapi/OneDrive/Desktop/GD32VW553/GD32VW55X_Wifi_BLE_SDK/GD32VW55x_RELEASE_V1.0.2/MSDK/ble/app\app_sec_mgr.c ****     \param[out] none
 477:C:/Users/stapi/OneDrive/Desktop/GD32VW553/GD32VW55X_Wifi_BLE_SDK/GD32VW55x_RELEASE_V1.0.2/MSDK/ble/app\app_sec_mgr.c ****     \retval     none
 478:C:/Users/stapi/OneDrive/Desktop/GD32VW553/GD32VW55X_Wifi_BLE_SDK/GD32VW55x_RELEASE_V1.0.2/MSDK/ble/app\app_sec_mgr.c **** */
 479:C:/Users/stapi/OneDrive/Desktop/GD32VW553/GD32VW55X_Wifi_BLE_SDK/GD32VW55x_RELEASE_V1.0.2/MSDK/ble/app\app_sec_mgr.c **** void app_security_req_info_hdlr(ble_sec_security_req_info_t *p_info)
 480:C:/Users/stapi/OneDrive/Desktop/GD32VW553/GD32VW55X_Wifi_BLE_SDK/GD32VW55x_RELEASE_V1.0.2/MSDK/ble/app\app_sec_mgr.c **** {
 481:C:/Users/stapi/OneDrive/Desktop/GD32VW553/GD32VW55X_Wifi_BLE_SDK/GD32VW55x_RELEASE_V1.0.2/MSDK/ble/app\app_sec_mgr.c ****     ble_device_t *p_device = dm_find_dev_by_conidx(p_info->param.conn_idx);
 482:C:/Users/stapi/OneDrive/Desktop/GD32VW553/GD32VW55X_Wifi_BLE_SDK/GD32VW55x_RELEASE_V1.0.2/MSDK/ble/app\app_sec_mgr.c **** 
 483:C:/Users/stapi/OneDrive/Desktop/GD32VW553/GD32VW55X_Wifi_BLE_SDK/GD32VW55x_RELEASE_V1.0.2/MSDK/ble/app\app_sec_mgr.c ****     if (p_device == NULL) {
 484:C:/Users/stapi/OneDrive/Desktop/GD32VW553/GD32VW55X_Wifi_BLE_SDK/GD32VW55x_RELEASE_V1.0.2/MSDK/ble/app\app_sec_mgr.c ****         dbg_print(NOTICE, "app_security_req_info_hdlr can't find device !\r\n");
 485:C:/Users/stapi/OneDrive/Desktop/GD32VW553/GD32VW55X_Wifi_BLE_SDK/GD32VW55x_RELEASE_V1.0.2/MSDK/ble/app\app_sec_mgr.c ****         return;
 486:C:/Users/stapi/OneDrive/Desktop/GD32VW553/GD32VW55X_Wifi_BLE_SDK/GD32VW55x_RELEASE_V1.0.2/MSDK/ble/app\app_sec_mgr.c ****     }
 487:C:/Users/stapi/OneDrive/Desktop/GD32VW553/GD32VW55X_Wifi_BLE_SDK/GD32VW55x_RELEASE_V1.0.2/MSDK/ble/app\app_sec_mgr.c **** 
 488:C:/Users/stapi/OneDrive/Desktop/GD32VW553/GD32VW55X_Wifi_BLE_SDK/GD32VW55x_RELEASE_V1.0.2/MSDK/ble/app\app_sec_mgr.c ****     if (p_device->bonded) {
 489:C:/Users/stapi/OneDrive/Desktop/GD32VW553/GD32VW55X_Wifi_BLE_SDK/GD32VW55x_RELEASE_V1.0.2/MSDK/ble/app\app_sec_mgr.c ****         ble_sec_encrypt_req(p_info->param.conn_idx, &p_device->bond_info.peer_ltk);
 490:C:/Users/stapi/OneDrive/Desktop/GD32VW553/GD32VW55X_Wifi_BLE_SDK/GD32VW55x_RELEASE_V1.0.2/MSDK/ble/app\app_sec_mgr.c ****     } else {
 491:C:/Users/stapi/OneDrive/Desktop/GD32VW553/GD32VW55X_Wifi_BLE_SDK/GD32VW55x_RELEASE_V1.0.2/MSDK/ble/app\app_sec_mgr.c ****         app_sec_send_bond_req(p_info->param.conn_idx);
 492:C:/Users/stapi/OneDrive/Desktop/GD32VW553/GD32VW55X_Wifi_BLE_SDK/GD32VW55x_RELEASE_V1.0.2/MSDK/ble/app\app_sec_mgr.c ****     }
 493:C:/Users/stapi/OneDrive/Desktop/GD32VW553/GD32VW55X_Wifi_BLE_SDK/GD32VW55x_RELEASE_V1.0.2/MSDK/ble/app\app_sec_mgr.c **** }
 494:C:/Users/stapi/OneDrive/Desktop/GD32VW553/GD32VW55X_Wifi_BLE_SDK/GD32VW55x_RELEASE_V1.0.2/MSDK/ble/app\app_sec_mgr.c **** 
 495:C:/Users/stapi/OneDrive/Desktop/GD32VW553/GD32VW55X_Wifi_BLE_SDK/GD32VW55x_RELEASE_V1.0.2/MSDK/ble/app\app_sec_mgr.c **** /*!
 496:C:/Users/stapi/OneDrive/Desktop/GD32VW553/GD32VW55X_Wifi_BLE_SDK/GD32VW55x_RELEASE_V1.0.2/MSDK/ble/app\app_sec_mgr.c ****     \brief      Callback function to handle @ref BLE_SEC_EVT_ENCRYPT_REQ_IND event
 497:C:/Users/stapi/OneDrive/Desktop/GD32VW553/GD32VW55X_Wifi_BLE_SDK/GD32VW55x_RELEASE_V1.0.2/MSDK/ble/app\app_sec_mgr.c ****     \param[in]  p_ind: pointer to the encryption request indication data
 498:C:/Users/stapi/OneDrive/Desktop/GD32VW553/GD32VW55X_Wifi_BLE_SDK/GD32VW55x_RELEASE_V1.0.2/MSDK/ble/app\app_sec_mgr.c ****     \param[out] none
 499:C:/Users/stapi/OneDrive/Desktop/GD32VW553/GD32VW55X_Wifi_BLE_SDK/GD32VW55x_RELEASE_V1.0.2/MSDK/ble/app\app_sec_mgr.c ****     \retval     none
 500:C:/Users/stapi/OneDrive/Desktop/GD32VW553/GD32VW55X_Wifi_BLE_SDK/GD32VW55x_RELEASE_V1.0.2/MSDK/ble/app\app_sec_mgr.c **** */
 501:C:/Users/stapi/OneDrive/Desktop/GD32VW553/GD32VW55X_Wifi_BLE_SDK/GD32VW55x_RELEASE_V1.0.2/MSDK/ble/app\app_sec_mgr.c **** static void app_encrypt_req_hdlr(ble_gap_encrypt_req_ind_t *p_ind)
 502:C:/Users/stapi/OneDrive/Desktop/GD32VW553/GD32VW55X_Wifi_BLE_SDK/GD32VW55x_RELEASE_V1.0.2/MSDK/ble/app\app_sec_mgr.c **** {
 503:C:/Users/stapi/OneDrive/Desktop/GD32VW553/GD32VW55X_Wifi_BLE_SDK/GD32VW55x_RELEASE_V1.0.2/MSDK/ble/app\app_sec_mgr.c ****     ble_device_t *p_device = dm_find_dev_by_conidx(p_ind->conn_idx);
 504:C:/Users/stapi/OneDrive/Desktop/GD32VW553/GD32VW55X_Wifi_BLE_SDK/GD32VW55x_RELEASE_V1.0.2/MSDK/ble/app\app_sec_mgr.c **** 
 505:C:/Users/stapi/OneDrive/Desktop/GD32VW553/GD32VW55X_Wifi_BLE_SDK/GD32VW55x_RELEASE_V1.0.2/MSDK/ble/app\app_sec_mgr.c ****     if (p_device == NULL) {
 506:C:/Users/stapi/OneDrive/Desktop/GD32VW553/GD32VW55X_Wifi_BLE_SDK/GD32VW55x_RELEASE_V1.0.2/MSDK/ble/app\app_sec_mgr.c ****         dbg_print(NOTICE, "app_encrypt_req_hdlr can't find device !\r\n");
 507:C:/Users/stapi/OneDrive/Desktop/GD32VW553/GD32VW55X_Wifi_BLE_SDK/GD32VW55x_RELEASE_V1.0.2/MSDK/ble/app\app_sec_mgr.c ****         ble_sec_encrypt_req_cfm(p_ind->conn_idx, false, NULL, 0);
 508:C:/Users/stapi/OneDrive/Desktop/GD32VW553/GD32VW55X_Wifi_BLE_SDK/GD32VW55x_RELEASE_V1.0.2/MSDK/ble/app\app_sec_mgr.c ****         return;
 509:C:/Users/stapi/OneDrive/Desktop/GD32VW553/GD32VW55X_Wifi_BLE_SDK/GD32VW55x_RELEASE_V1.0.2/MSDK/ble/app\app_sec_mgr.c ****     }
 510:C:/Users/stapi/OneDrive/Desktop/GD32VW553/GD32VW55X_Wifi_BLE_SDK/GD32VW55x_RELEASE_V1.0.2/MSDK/ble/app\app_sec_mgr.c **** 
 511:C:/Users/stapi/OneDrive/Desktop/GD32VW553/GD32VW55X_Wifi_BLE_SDK/GD32VW55x_RELEASE_V1.0.2/MSDK/ble/app\app_sec_mgr.c ****     if (p_device->bonded) {
 512:C:/Users/stapi/OneDrive/Desktop/GD32VW553/GD32VW55X_Wifi_BLE_SDK/GD32VW55x_RELEASE_V1.0.2/MSDK/ble/app\app_sec_mgr.c ****         if ((p_ind->ediv == p_device->bond_info.local_ltk.ediv) &&
 513:C:/Users/stapi/OneDrive/Desktop/GD32VW553/GD32VW55X_Wifi_BLE_SDK/GD32VW55x_RELEASE_V1.0.2/MSDK/ble/app\app_sec_mgr.c ****             !memcmp(p_ind->rnd_num, p_device->bond_info.local_ltk.rnd_num, BLE_GAP_RANDOM_NUMBER_LE
 514:C:/Users/stapi/OneDrive/Desktop/GD32VW553/GD32VW55X_Wifi_BLE_SDK/GD32VW55x_RELEASE_V1.0.2/MSDK/ble/app\app_sec_mgr.c ****             ble_sec_encrypt_req_cfm(p_ind->conn_idx, true, p_device->bond_info.local_ltk.ltk,
 515:C:/Users/stapi/OneDrive/Desktop/GD32VW553/GD32VW55X_Wifi_BLE_SDK/GD32VW55x_RELEASE_V1.0.2/MSDK/ble/app\app_sec_mgr.c ****                                     p_device->bond_info.local_ltk.key_size);
 516:C:/Users/stapi/OneDrive/Desktop/GD32VW553/GD32VW55X_Wifi_BLE_SDK/GD32VW55x_RELEASE_V1.0.2/MSDK/ble/app\app_sec_mgr.c ****             return;
 517:C:/Users/stapi/OneDrive/Desktop/GD32VW553/GD32VW55X_Wifi_BLE_SDK/GD32VW55x_RELEASE_V1.0.2/MSDK/ble/app\app_sec_mgr.c ****         }
 518:C:/Users/stapi/OneDrive/Desktop/GD32VW553/GD32VW55X_Wifi_BLE_SDK/GD32VW55x_RELEASE_V1.0.2/MSDK/ble/app\app_sec_mgr.c ****     }
 519:C:/Users/stapi/OneDrive/Desktop/GD32VW553/GD32VW55X_Wifi_BLE_SDK/GD32VW55x_RELEASE_V1.0.2/MSDK/ble/app\app_sec_mgr.c **** 
 520:C:/Users/stapi/OneDrive/Desktop/GD32VW553/GD32VW55X_Wifi_BLE_SDK/GD32VW55x_RELEASE_V1.0.2/MSDK/ble/app\app_sec_mgr.c ****     ble_sec_encrypt_req_cfm(p_ind->conn_idx, false, NULL, 0);
 521:C:/Users/stapi/OneDrive/Desktop/GD32VW553/GD32VW55X_Wifi_BLE_SDK/GD32VW55x_RELEASE_V1.0.2/MSDK/ble/app\app_sec_mgr.c **** }
 522:C:/Users/stapi/OneDrive/Desktop/GD32VW553/GD32VW55X_Wifi_BLE_SDK/GD32VW55x_RELEASE_V1.0.2/MSDK/ble/app\app_sec_mgr.c **** 
 523:C:/Users/stapi/OneDrive/Desktop/GD32VW553/GD32VW55X_Wifi_BLE_SDK/GD32VW55x_RELEASE_V1.0.2/MSDK/ble/app\app_sec_mgr.c **** /*!
 524:C:/Users/stapi/OneDrive/Desktop/GD32VW553/GD32VW55X_Wifi_BLE_SDK/GD32VW55x_RELEASE_V1.0.2/MSDK/ble/app\app_sec_mgr.c ****     \brief      Callback function to handle @ref BLE_SEC_EVT_ENCRYPT_INFO event
 525:C:/Users/stapi/OneDrive/Desktop/GD32VW553/GD32VW55X_Wifi_BLE_SDK/GD32VW55x_RELEASE_V1.0.2/MSDK/ble/app\app_sec_mgr.c ****     \param[in]  p_info: pointer to the encryption result information data
 526:C:/Users/stapi/OneDrive/Desktop/GD32VW553/GD32VW55X_Wifi_BLE_SDK/GD32VW55x_RELEASE_V1.0.2/MSDK/ble/app\app_sec_mgr.c ****     \param[out] none
 527:C:/Users/stapi/OneDrive/Desktop/GD32VW553/GD32VW55X_Wifi_BLE_SDK/GD32VW55x_RELEASE_V1.0.2/MSDK/ble/app\app_sec_mgr.c ****     \retval     none
 528:C:/Users/stapi/OneDrive/Desktop/GD32VW553/GD32VW55X_Wifi_BLE_SDK/GD32VW55x_RELEASE_V1.0.2/MSDK/ble/app\app_sec_mgr.c **** */
 529:C:/Users/stapi/OneDrive/Desktop/GD32VW553/GD32VW55X_Wifi_BLE_SDK/GD32VW55x_RELEASE_V1.0.2/MSDK/ble/app\app_sec_mgr.c **** static void app_encrypted_hdlr(ble_sec_encrypt_info_t *p_info)
 530:C:/Users/stapi/OneDrive/Desktop/GD32VW553/GD32VW55X_Wifi_BLE_SDK/GD32VW55x_RELEASE_V1.0.2/MSDK/ble/app\app_sec_mgr.c **** {
 531:C:/Users/stapi/OneDrive/Desktop/GD32VW553/GD32VW55X_Wifi_BLE_SDK/GD32VW55x_RELEASE_V1.0.2/MSDK/ble/app\app_sec_mgr.c ****     ble_device_t *p_device = dm_find_dev_by_conidx(p_info->param.conn_idx);
 532:C:/Users/stapi/OneDrive/Desktop/GD32VW553/GD32VW55X_Wifi_BLE_SDK/GD32VW55x_RELEASE_V1.0.2/MSDK/ble/app\app_sec_mgr.c **** 
 533:C:/Users/stapi/OneDrive/Desktop/GD32VW553/GD32VW55X_Wifi_BLE_SDK/GD32VW55x_RELEASE_V1.0.2/MSDK/ble/app\app_sec_mgr.c ****     if (p_device == NULL) {
 534:C:/Users/stapi/OneDrive/Desktop/GD32VW553/GD32VW55X_Wifi_BLE_SDK/GD32VW55x_RELEASE_V1.0.2/MSDK/ble/app\app_sec_mgr.c ****         dbg_print(NOTICE, "app_encrypted_hdlr can't find device !\r\n");
 535:C:/Users/stapi/OneDrive/Desktop/GD32VW553/GD32VW55X_Wifi_BLE_SDK/GD32VW55x_RELEASE_V1.0.2/MSDK/ble/app\app_sec_mgr.c ****         return;
 536:C:/Users/stapi/OneDrive/Desktop/GD32VW553/GD32VW55X_Wifi_BLE_SDK/GD32VW55x_RELEASE_V1.0.2/MSDK/ble/app\app_sec_mgr.c ****     }
 537:C:/Users/stapi/OneDrive/Desktop/GD32VW553/GD32VW55X_Wifi_BLE_SDK/GD32VW55x_RELEASE_V1.0.2/MSDK/ble/app\app_sec_mgr.c **** 
 538:C:/Users/stapi/OneDrive/Desktop/GD32VW553/GD32VW55X_Wifi_BLE_SDK/GD32VW55x_RELEASE_V1.0.2/MSDK/ble/app\app_sec_mgr.c ****     if (p_info->status != BLE_ERR_NO_ERROR) {
 539:C:/Users/stapi/OneDrive/Desktop/GD32VW553/GD32VW55X_Wifi_BLE_SDK/GD32VW55x_RELEASE_V1.0.2/MSDK/ble/app\app_sec_mgr.c ****         dbg_print(NOTICE, "conn_idx %u encrypt fail, status 0x%x\r\n", p_device->conn_idx, p_info->
 540:C:/Users/stapi/OneDrive/Desktop/GD32VW553/GD32VW55X_Wifi_BLE_SDK/GD32VW55x_RELEASE_V1.0.2/MSDK/ble/app\app_sec_mgr.c ****         p_device->encry_cmplt = false;
 541:C:/Users/stapi/OneDrive/Desktop/GD32VW553/GD32VW55X_Wifi_BLE_SDK/GD32VW55x_RELEASE_V1.0.2/MSDK/ble/app\app_sec_mgr.c **** 
 542:C:/Users/stapi/OneDrive/Desktop/GD32VW553/GD32VW55X_Wifi_BLE_SDK/GD32VW55x_RELEASE_V1.0.2/MSDK/ble/app\app_sec_mgr.c ****         // Key missing just remove keys
 543:C:/Users/stapi/OneDrive/Desktop/GD32VW553/GD32VW55X_Wifi_BLE_SDK/GD32VW55x_RELEASE_V1.0.2/MSDK/ble/app\app_sec_mgr.c ****         if (p_info->status == BLE_SMP_ERR_ENC_KEY_MISSING) {
 544:C:/Users/stapi/OneDrive/Desktop/GD32VW553/GD32VW55X_Wifi_BLE_SDK/GD32VW55x_RELEASE_V1.0.2/MSDK/ble/app\app_sec_mgr.c ****             memset(&p_device->bond_info, 0, sizeof(ble_gap_sec_bond_data_t));
 545:C:/Users/stapi/OneDrive/Desktop/GD32VW553/GD32VW55X_Wifi_BLE_SDK/GD32VW55x_RELEASE_V1.0.2/MSDK/ble/app\app_sec_mgr.c ****             p_device->bonded = false;
 546:C:/Users/stapi/OneDrive/Desktop/GD32VW553/GD32VW55X_Wifi_BLE_SDK/GD32VW55x_RELEASE_V1.0.2/MSDK/ble/app\app_sec_mgr.c **** 
 547:C:/Users/stapi/OneDrive/Desktop/GD32VW553/GD32VW55X_Wifi_BLE_SDK/GD32VW55x_RELEASE_V1.0.2/MSDK/ble/app\app_sec_mgr.c ****             if (app_sec_mgr_key) {
 548:C:/Users/stapi/OneDrive/Desktop/GD32VW553/GD32VW55X_Wifi_BLE_SDK/GD32VW55x_RELEASE_V1.0.2/MSDK/ble/app\app_sec_mgr.c ****                 ble_peer_data_delete(&p_device->cur_addr);
 549:C:/Users/stapi/OneDrive/Desktop/GD32VW553/GD32VW55X_Wifi_BLE_SDK/GD32VW55x_RELEASE_V1.0.2/MSDK/ble/app\app_sec_mgr.c ****             }
 550:C:/Users/stapi/OneDrive/Desktop/GD32VW553/GD32VW55X_Wifi_BLE_SDK/GD32VW55x_RELEASE_V1.0.2/MSDK/ble/app\app_sec_mgr.c ****         }
 551:C:/Users/stapi/OneDrive/Desktop/GD32VW553/GD32VW55X_Wifi_BLE_SDK/GD32VW55x_RELEASE_V1.0.2/MSDK/ble/app\app_sec_mgr.c ****     } else {
 552:C:/Users/stapi/OneDrive/Desktop/GD32VW553/GD32VW55X_Wifi_BLE_SDK/GD32VW55x_RELEASE_V1.0.2/MSDK/ble/app\app_sec_mgr.c ****         dbg_print(NOTICE, "conn_idx %u encrypt success, pairing_lvl 0x%x\r\n", p_device->conn_idx, 
 553:C:/Users/stapi/OneDrive/Desktop/GD32VW553/GD32VW55X_Wifi_BLE_SDK/GD32VW55x_RELEASE_V1.0.2/MSDK/ble/app\app_sec_mgr.c ****         p_device->encry_cmplt = true;
 554:C:/Users/stapi/OneDrive/Desktop/GD32VW553/GD32VW55X_Wifi_BLE_SDK/GD32VW55x_RELEASE_V1.0.2/MSDK/ble/app\app_sec_mgr.c ****         p_device->bond_info.pairing_lvl = p_info->param.pairing_lvl;
 555:C:/Users/stapi/OneDrive/Desktop/GD32VW553/GD32VW55X_Wifi_BLE_SDK/GD32VW55x_RELEASE_V1.0.2/MSDK/ble/app\app_sec_mgr.c **** 
 556:C:/Users/stapi/OneDrive/Desktop/GD32VW553/GD32VW55X_Wifi_BLE_SDK/GD32VW55x_RELEASE_V1.0.2/MSDK/ble/app\app_sec_mgr.c ****         #if (BLE_APP_PING_SUPPORT)
 557:C:/Users/stapi/OneDrive/Desktop/GD32VW553/GD32VW55X_Wifi_BLE_SDK/GD32VW55x_RELEASE_V1.0.2/MSDK/ble/app\app_sec_mgr.c ****         ble_conn_ping_to_set(p_info->param.conn_idx, 1000); // 10 Sec
 558:C:/Users/stapi/OneDrive/Desktop/GD32VW553/GD32VW55X_Wifi_BLE_SDK/GD32VW55x_RELEASE_V1.0.2/MSDK/ble/app\app_sec_mgr.c ****         #endif // (BLE_APP_PING_SUPPORT)
 559:C:/Users/stapi/OneDrive/Desktop/GD32VW553/GD32VW55X_Wifi_BLE_SDK/GD32VW55x_RELEASE_V1.0.2/MSDK/ble/app\app_sec_mgr.c **** 
 560:C:/Users/stapi/OneDrive/Desktop/GD32VW553/GD32VW55X_Wifi_BLE_SDK/GD32VW55x_RELEASE_V1.0.2/MSDK/ble/app\app_sec_mgr.c ****         if (p_device->role == BLE_SLAVE) {
 561:C:/Users/stapi/OneDrive/Desktop/GD32VW553/GD32VW55X_Wifi_BLE_SDK/GD32VW55x_RELEASE_V1.0.2/MSDK/ble/app\app_sec_mgr.c ****             ble_conn_peer_version_get(p_device->conn_idx);
 562:C:/Users/stapi/OneDrive/Desktop/GD32VW553/GD32VW55X_Wifi_BLE_SDK/GD32VW55x_RELEASE_V1.0.2/MSDK/ble/app\app_sec_mgr.c ****             ble_conn_peer_feats_get(p_device->conn_idx);
 563:C:/Users/stapi/OneDrive/Desktop/GD32VW553/GD32VW55X_Wifi_BLE_SDK/GD32VW55x_RELEASE_V1.0.2/MSDK/ble/app\app_sec_mgr.c ****         }
 564:C:/Users/stapi/OneDrive/Desktop/GD32VW553/GD32VW55X_Wifi_BLE_SDK/GD32VW55x_RELEASE_V1.0.2/MSDK/ble/app\app_sec_mgr.c ****     }
 565:C:/Users/stapi/OneDrive/Desktop/GD32VW553/GD32VW55X_Wifi_BLE_SDK/GD32VW55x_RELEASE_V1.0.2/MSDK/ble/app\app_sec_mgr.c **** }
 566:C:/Users/stapi/OneDrive/Desktop/GD32VW553/GD32VW55X_Wifi_BLE_SDK/GD32VW55x_RELEASE_V1.0.2/MSDK/ble/app\app_sec_mgr.c **** 
 567:C:/Users/stapi/OneDrive/Desktop/GD32VW553/GD32VW55X_Wifi_BLE_SDK/GD32VW55x_RELEASE_V1.0.2/MSDK/ble/app\app_sec_mgr.c **** /*!
 568:C:/Users/stapi/OneDrive/Desktop/GD32VW553/GD32VW55X_Wifi_BLE_SDK/GD32VW55x_RELEASE_V1.0.2/MSDK/ble/app\app_sec_mgr.c ****     \brief      Callback function to handle @ref BLE_SEC_EVT_OOB_DATA_GEN_INFO event
 569:C:/Users/stapi/OneDrive/Desktop/GD32VW553/GD32VW55X_Wifi_BLE_SDK/GD32VW55x_RELEASE_V1.0.2/MSDK/ble/app\app_sec_mgr.c ****     \param[in]  p_info: pointer to the generated OOB data information data
 570:C:/Users/stapi/OneDrive/Desktop/GD32VW553/GD32VW55X_Wifi_BLE_SDK/GD32VW55x_RELEASE_V1.0.2/MSDK/ble/app\app_sec_mgr.c ****     \param[out] none
 571:C:/Users/stapi/OneDrive/Desktop/GD32VW553/GD32VW55X_Wifi_BLE_SDK/GD32VW55x_RELEASE_V1.0.2/MSDK/ble/app\app_sec_mgr.c ****     \retval     none
 572:C:/Users/stapi/OneDrive/Desktop/GD32VW553/GD32VW55X_Wifi_BLE_SDK/GD32VW55x_RELEASE_V1.0.2/MSDK/ble/app\app_sec_mgr.c **** */
 573:C:/Users/stapi/OneDrive/Desktop/GD32VW553/GD32VW55X_Wifi_BLE_SDK/GD32VW55x_RELEASE_V1.0.2/MSDK/ble/app\app_sec_mgr.c **** static void app_oob_data_hdlr(ble_sec_oob_data_info_t *p_info)
 574:C:/Users/stapi/OneDrive/Desktop/GD32VW553/GD32VW55X_Wifi_BLE_SDK/GD32VW55x_RELEASE_V1.0.2/MSDK/ble/app\app_sec_mgr.c **** {
 575:C:/Users/stapi/OneDrive/Desktop/GD32VW553/GD32VW55X_Wifi_BLE_SDK/GD32VW55x_RELEASE_V1.0.2/MSDK/ble/app\app_sec_mgr.c ****     int i;
 576:C:/Users/stapi/OneDrive/Desktop/GD32VW553/GD32VW55X_Wifi_BLE_SDK/GD32VW55x_RELEASE_V1.0.2/MSDK/ble/app\app_sec_mgr.c **** 
 577:C:/Users/stapi/OneDrive/Desktop/GD32VW553/GD32VW55X_Wifi_BLE_SDK/GD32VW55x_RELEASE_V1.0.2/MSDK/ble/app\app_sec_mgr.c ****     dbg_print(NOTICE, "le oob data ind, conf:");
 578:C:/Users/stapi/OneDrive/Desktop/GD32VW553/GD32VW55X_Wifi_BLE_SDK/GD32VW55x_RELEASE_V1.0.2/MSDK/ble/app\app_sec_mgr.c ****     for (i = BLE_GAP_KEY_LEN - 1; i >= 0; i--) {
 579:C:/Users/stapi/OneDrive/Desktop/GD32VW553/GD32VW55X_Wifi_BLE_SDK/GD32VW55x_RELEASE_V1.0.2/MSDK/ble/app\app_sec_mgr.c ****         dbg_print(NOTICE, "%02x", p_info->param.conf[i]);
 580:C:/Users/stapi/OneDrive/Desktop/GD32VW553/GD32VW55X_Wifi_BLE_SDK/GD32VW55x_RELEASE_V1.0.2/MSDK/ble/app\app_sec_mgr.c ****     }
 581:C:/Users/stapi/OneDrive/Desktop/GD32VW553/GD32VW55X_Wifi_BLE_SDK/GD32VW55x_RELEASE_V1.0.2/MSDK/ble/app\app_sec_mgr.c **** 
 582:C:/Users/stapi/OneDrive/Desktop/GD32VW553/GD32VW55X_Wifi_BLE_SDK/GD32VW55x_RELEASE_V1.0.2/MSDK/ble/app\app_sec_mgr.c ****     dbg_print(NOTICE, ", random:");
 583:C:/Users/stapi/OneDrive/Desktop/GD32VW553/GD32VW55X_Wifi_BLE_SDK/GD32VW55x_RELEASE_V1.0.2/MSDK/ble/app\app_sec_mgr.c ****     for (i = BLE_GAP_KEY_LEN - 1; i >= 0; i--) {
 584:C:/Users/stapi/OneDrive/Desktop/GD32VW553/GD32VW55X_Wifi_BLE_SDK/GD32VW55x_RELEASE_V1.0.2/MSDK/ble/app\app_sec_mgr.c ****         dbg_print(NOTICE, "%02x", p_info->param.rand[i]);
 585:C:/Users/stapi/OneDrive/Desktop/GD32VW553/GD32VW55X_Wifi_BLE_SDK/GD32VW55x_RELEASE_V1.0.2/MSDK/ble/app\app_sec_mgr.c ****     }
 586:C:/Users/stapi/OneDrive/Desktop/GD32VW553/GD32VW55X_Wifi_BLE_SDK/GD32VW55x_RELEASE_V1.0.2/MSDK/ble/app\app_sec_mgr.c **** 
 587:C:/Users/stapi/OneDrive/Desktop/GD32VW553/GD32VW55X_Wifi_BLE_SDK/GD32VW55x_RELEASE_V1.0.2/MSDK/ble/app\app_sec_mgr.c ****     dbg_print(NOTICE, "\r\n");
 588:C:/Users/stapi/OneDrive/Desktop/GD32VW553/GD32VW55X_Wifi_BLE_SDK/GD32VW55x_RELEASE_V1.0.2/MSDK/ble/app\app_sec_mgr.c **** }
 589:C:/Users/stapi/OneDrive/Desktop/GD32VW553/GD32VW55X_Wifi_BLE_SDK/GD32VW55x_RELEASE_V1.0.2/MSDK/ble/app\app_sec_mgr.c **** 
 590:C:/Users/stapi/OneDrive/Desktop/GD32VW553/GD32VW55X_Wifi_BLE_SDK/GD32VW55x_RELEASE_V1.0.2/MSDK/ble/app\app_sec_mgr.c **** /*!
 591:C:/Users/stapi/OneDrive/Desktop/GD32VW553/GD32VW55X_Wifi_BLE_SDK/GD32VW55x_RELEASE_V1.0.2/MSDK/ble/app\app_sec_mgr.c ****     \brief      Callback function to handle BLE security events
 592:C:/Users/stapi/OneDrive/Desktop/GD32VW553/GD32VW55X_Wifi_BLE_SDK/GD32VW55x_RELEASE_V1.0.2/MSDK/ble/app\app_sec_mgr.c ****     \param[in]  event: BLE security event type
 593:C:/Users/stapi/OneDrive/Desktop/GD32VW553/GD32VW55X_Wifi_BLE_SDK/GD32VW55x_RELEASE_V1.0.2/MSDK/ble/app\app_sec_mgr.c ****     \param[in]  p_data: pointer to the BLE security event data
 594:C:/Users/stapi/OneDrive/Desktop/GD32VW553/GD32VW55X_Wifi_BLE_SDK/GD32VW55x_RELEASE_V1.0.2/MSDK/ble/app\app_sec_mgr.c ****     \param[out] none
 595:C:/Users/stapi/OneDrive/Desktop/GD32VW553/GD32VW55X_Wifi_BLE_SDK/GD32VW55x_RELEASE_V1.0.2/MSDK/ble/app\app_sec_mgr.c ****     \retval     none
 596:C:/Users/stapi/OneDrive/Desktop/GD32VW553/GD32VW55X_Wifi_BLE_SDK/GD32VW55x_RELEASE_V1.0.2/MSDK/ble/app\app_sec_mgr.c **** */
 597:C:/Users/stapi/OneDrive/Desktop/GD32VW553/GD32VW55X_Wifi_BLE_SDK/GD32VW55x_RELEASE_V1.0.2/MSDK/ble/app\app_sec_mgr.c **** static void app_sec_evt_handler(ble_sec_evt_t event, ble_sec_data_u *p_data)
 598:C:/Users/stapi/OneDrive/Desktop/GD32VW553/GD32VW55X_Wifi_BLE_SDK/GD32VW55x_RELEASE_V1.0.2/MSDK/ble/app\app_sec_mgr.c **** {
 599:C:/Users/stapi/OneDrive/Desktop/GD32VW553/GD32VW55X_Wifi_BLE_SDK/GD32VW55x_RELEASE_V1.0.2/MSDK/ble/app\app_sec_mgr.c **** 
 600:C:/Users/stapi/OneDrive/Desktop/GD32VW553/GD32VW55X_Wifi_BLE_SDK/GD32VW55x_RELEASE_V1.0.2/MSDK/ble/app\app_sec_mgr.c ****     switch (event) {
 601:C:/Users/stapi/OneDrive/Desktop/GD32VW553/GD32VW55X_Wifi_BLE_SDK/GD32VW55x_RELEASE_V1.0.2/MSDK/ble/app\app_sec_mgr.c ****     case BLE_SEC_EVT_PAIRING_REQ_IND:
 602:C:/Users/stapi/OneDrive/Desktop/GD32VW553/GD32VW55X_Wifi_BLE_SDK/GD32VW55x_RELEASE_V1.0.2/MSDK/ble/app\app_sec_mgr.c ****         app_pairing_req_hdlr((ble_gap_pairing_req_ind_t *)p_data);
 603:C:/Users/stapi/OneDrive/Desktop/GD32VW553/GD32VW55X_Wifi_BLE_SDK/GD32VW55x_RELEASE_V1.0.2/MSDK/ble/app\app_sec_mgr.c ****         break;
 604:C:/Users/stapi/OneDrive/Desktop/GD32VW553/GD32VW55X_Wifi_BLE_SDK/GD32VW55x_RELEASE_V1.0.2/MSDK/ble/app\app_sec_mgr.c **** 
 605:C:/Users/stapi/OneDrive/Desktop/GD32VW553/GD32VW55X_Wifi_BLE_SDK/GD32VW55x_RELEASE_V1.0.2/MSDK/ble/app\app_sec_mgr.c ****     case BLE_SEC_EVT_LTK_REQ_IND:
 606:C:/Users/stapi/OneDrive/Desktop/GD32VW553/GD32VW55X_Wifi_BLE_SDK/GD32VW55x_RELEASE_V1.0.2/MSDK/ble/app\app_sec_mgr.c ****         app_ltk_req_hdlr((ble_gap_ltk_req_ind_t *)p_data);
 607:C:/Users/stapi/OneDrive/Desktop/GD32VW553/GD32VW55X_Wifi_BLE_SDK/GD32VW55x_RELEASE_V1.0.2/MSDK/ble/app\app_sec_mgr.c ****         break;
 608:C:/Users/stapi/OneDrive/Desktop/GD32VW553/GD32VW55X_Wifi_BLE_SDK/GD32VW55x_RELEASE_V1.0.2/MSDK/ble/app\app_sec_mgr.c **** 
 609:C:/Users/stapi/OneDrive/Desktop/GD32VW553/GD32VW55X_Wifi_BLE_SDK/GD32VW55x_RELEASE_V1.0.2/MSDK/ble/app\app_sec_mgr.c ****     case BLE_SEC_EVT_KEY_DISPLAY_REQ_IND:
 610:C:/Users/stapi/OneDrive/Desktop/GD32VW553/GD32VW55X_Wifi_BLE_SDK/GD32VW55x_RELEASE_V1.0.2/MSDK/ble/app\app_sec_mgr.c ****         app_key_display_req_hdlr((ble_gap_tk_req_ind_t *)p_data);
 611:C:/Users/stapi/OneDrive/Desktop/GD32VW553/GD32VW55X_Wifi_BLE_SDK/GD32VW55x_RELEASE_V1.0.2/MSDK/ble/app\app_sec_mgr.c ****         break;
 612:C:/Users/stapi/OneDrive/Desktop/GD32VW553/GD32VW55X_Wifi_BLE_SDK/GD32VW55x_RELEASE_V1.0.2/MSDK/ble/app\app_sec_mgr.c **** 
 613:C:/Users/stapi/OneDrive/Desktop/GD32VW553/GD32VW55X_Wifi_BLE_SDK/GD32VW55x_RELEASE_V1.0.2/MSDK/ble/app\app_sec_mgr.c ****     case BLE_SEC_EVT_KEY_ENTER_REQ_IND:
 614:C:/Users/stapi/OneDrive/Desktop/GD32VW553/GD32VW55X_Wifi_BLE_SDK/GD32VW55x_RELEASE_V1.0.2/MSDK/ble/app\app_sec_mgr.c ****         app_key_enter_req_hdlr((ble_gap_tk_req_ind_t *)p_data);
 615:C:/Users/stapi/OneDrive/Desktop/GD32VW553/GD32VW55X_Wifi_BLE_SDK/GD32VW55x_RELEASE_V1.0.2/MSDK/ble/app\app_sec_mgr.c ****         break;
 616:C:/Users/stapi/OneDrive/Desktop/GD32VW553/GD32VW55X_Wifi_BLE_SDK/GD32VW55x_RELEASE_V1.0.2/MSDK/ble/app\app_sec_mgr.c **** 
 617:C:/Users/stapi/OneDrive/Desktop/GD32VW553/GD32VW55X_Wifi_BLE_SDK/GD32VW55x_RELEASE_V1.0.2/MSDK/ble/app\app_sec_mgr.c ****     case BLE_SEC_EVT_KEY_OOB_REQ_IND:
 618:C:/Users/stapi/OneDrive/Desktop/GD32VW553/GD32VW55X_Wifi_BLE_SDK/GD32VW55x_RELEASE_V1.0.2/MSDK/ble/app\app_sec_mgr.c ****         app_key_oob_req_hdlr((ble_gap_tk_req_ind_t *)p_data);
 619:C:/Users/stapi/OneDrive/Desktop/GD32VW553/GD32VW55X_Wifi_BLE_SDK/GD32VW55x_RELEASE_V1.0.2/MSDK/ble/app\app_sec_mgr.c ****         break;
 620:C:/Users/stapi/OneDrive/Desktop/GD32VW553/GD32VW55X_Wifi_BLE_SDK/GD32VW55x_RELEASE_V1.0.2/MSDK/ble/app\app_sec_mgr.c **** 
 621:C:/Users/stapi/OneDrive/Desktop/GD32VW553/GD32VW55X_Wifi_BLE_SDK/GD32VW55x_RELEASE_V1.0.2/MSDK/ble/app\app_sec_mgr.c ****     case BLE_SEC_EVT_NUMERIC_COMPARISON_IND:
 622:C:/Users/stapi/OneDrive/Desktop/GD32VW553/GD32VW55X_Wifi_BLE_SDK/GD32VW55x_RELEASE_V1.0.2/MSDK/ble/app\app_sec_mgr.c ****         app_nc_hdlr((ble_gap_nc_ind_t *)p_data);
 623:C:/Users/stapi/OneDrive/Desktop/GD32VW553/GD32VW55X_Wifi_BLE_SDK/GD32VW55x_RELEASE_V1.0.2/MSDK/ble/app\app_sec_mgr.c ****         break;
 624:C:/Users/stapi/OneDrive/Desktop/GD32VW553/GD32VW55X_Wifi_BLE_SDK/GD32VW55x_RELEASE_V1.0.2/MSDK/ble/app\app_sec_mgr.c **** 
 625:C:/Users/stapi/OneDrive/Desktop/GD32VW553/GD32VW55X_Wifi_BLE_SDK/GD32VW55x_RELEASE_V1.0.2/MSDK/ble/app\app_sec_mgr.c ****     case BLE_SEC_EVT_IRK_REQ_IND:
 626:C:/Users/stapi/OneDrive/Desktop/GD32VW553/GD32VW55X_Wifi_BLE_SDK/GD32VW55x_RELEASE_V1.0.2/MSDK/ble/app\app_sec_mgr.c ****         app_irk_req_hdlr((ble_gap_irk_req_ind_t *)p_data);
 627:C:/Users/stapi/OneDrive/Desktop/GD32VW553/GD32VW55X_Wifi_BLE_SDK/GD32VW55x_RELEASE_V1.0.2/MSDK/ble/app\app_sec_mgr.c ****         break;
 628:C:/Users/stapi/OneDrive/Desktop/GD32VW553/GD32VW55X_Wifi_BLE_SDK/GD32VW55x_RELEASE_V1.0.2/MSDK/ble/app\app_sec_mgr.c **** 
 629:C:/Users/stapi/OneDrive/Desktop/GD32VW553/GD32VW55X_Wifi_BLE_SDK/GD32VW55x_RELEASE_V1.0.2/MSDK/ble/app\app_sec_mgr.c ****     case BLE_SEC_EVT_CSRK_REQ_IND:
 630:C:/Users/stapi/OneDrive/Desktop/GD32VW553/GD32VW55X_Wifi_BLE_SDK/GD32VW55x_RELEASE_V1.0.2/MSDK/ble/app\app_sec_mgr.c ****         app_csrk_req_hdlr((ble_gap_csrk_req_ind_t *)p_data);
 631:C:/Users/stapi/OneDrive/Desktop/GD32VW553/GD32VW55X_Wifi_BLE_SDK/GD32VW55x_RELEASE_V1.0.2/MSDK/ble/app\app_sec_mgr.c ****         break;
 632:C:/Users/stapi/OneDrive/Desktop/GD32VW553/GD32VW55X_Wifi_BLE_SDK/GD32VW55x_RELEASE_V1.0.2/MSDK/ble/app\app_sec_mgr.c **** 
 633:C:/Users/stapi/OneDrive/Desktop/GD32VW553/GD32VW55X_Wifi_BLE_SDK/GD32VW55x_RELEASE_V1.0.2/MSDK/ble/app\app_sec_mgr.c ****     case BLE_SEC_EVT_OOB_DATA_REQ_IND:
 634:C:/Users/stapi/OneDrive/Desktop/GD32VW553/GD32VW55X_Wifi_BLE_SDK/GD32VW55x_RELEASE_V1.0.2/MSDK/ble/app\app_sec_mgr.c ****         app_oob_data_req_hdlr((ble_gap_oob_data_req_ind_t *)p_data);
 635:C:/Users/stapi/OneDrive/Desktop/GD32VW553/GD32VW55X_Wifi_BLE_SDK/GD32VW55x_RELEASE_V1.0.2/MSDK/ble/app\app_sec_mgr.c ****         break;
 636:C:/Users/stapi/OneDrive/Desktop/GD32VW553/GD32VW55X_Wifi_BLE_SDK/GD32VW55x_RELEASE_V1.0.2/MSDK/ble/app\app_sec_mgr.c **** 
 637:C:/Users/stapi/OneDrive/Desktop/GD32VW553/GD32VW55X_Wifi_BLE_SDK/GD32VW55x_RELEASE_V1.0.2/MSDK/ble/app\app_sec_mgr.c ****     case BLE_SEC_EVT_PAIRING_SUCCESS_INFO:
 638:C:/Users/stapi/OneDrive/Desktop/GD32VW553/GD32VW55X_Wifi_BLE_SDK/GD32VW55x_RELEASE_V1.0.2/MSDK/ble/app\app_sec_mgr.c ****         app_pairing_success_hdlr((ble_sec_pairing_success_t *)p_data);
 639:C:/Users/stapi/OneDrive/Desktop/GD32VW553/GD32VW55X_Wifi_BLE_SDK/GD32VW55x_RELEASE_V1.0.2/MSDK/ble/app\app_sec_mgr.c ****         break;
 640:C:/Users/stapi/OneDrive/Desktop/GD32VW553/GD32VW55X_Wifi_BLE_SDK/GD32VW55x_RELEASE_V1.0.2/MSDK/ble/app\app_sec_mgr.c **** 
 641:C:/Users/stapi/OneDrive/Desktop/GD32VW553/GD32VW55X_Wifi_BLE_SDK/GD32VW55x_RELEASE_V1.0.2/MSDK/ble/app\app_sec_mgr.c ****     case BLE_SEC_EVT_PAIRING_FAIL_INFO:
 642:C:/Users/stapi/OneDrive/Desktop/GD32VW553/GD32VW55X_Wifi_BLE_SDK/GD32VW55x_RELEASE_V1.0.2/MSDK/ble/app\app_sec_mgr.c ****         app_pairing_fail_hdlr((ble_sec_pairing_fail_t *)p_data);
 643:C:/Users/stapi/OneDrive/Desktop/GD32VW553/GD32VW55X_Wifi_BLE_SDK/GD32VW55x_RELEASE_V1.0.2/MSDK/ble/app\app_sec_mgr.c ****         break;
 644:C:/Users/stapi/OneDrive/Desktop/GD32VW553/GD32VW55X_Wifi_BLE_SDK/GD32VW55x_RELEASE_V1.0.2/MSDK/ble/app\app_sec_mgr.c **** 
 645:C:/Users/stapi/OneDrive/Desktop/GD32VW553/GD32VW55X_Wifi_BLE_SDK/GD32VW55x_RELEASE_V1.0.2/MSDK/ble/app\app_sec_mgr.c ****     case BLE_SEC_EVT_SECURITY_REQ_INFO:
 646:C:/Users/stapi/OneDrive/Desktop/GD32VW553/GD32VW55X_Wifi_BLE_SDK/GD32VW55x_RELEASE_V1.0.2/MSDK/ble/app\app_sec_mgr.c ****         app_security_req_info_hdlr((ble_sec_security_req_info_t *)p_data);
 647:C:/Users/stapi/OneDrive/Desktop/GD32VW553/GD32VW55X_Wifi_BLE_SDK/GD32VW55x_RELEASE_V1.0.2/MSDK/ble/app\app_sec_mgr.c ****         break;
 648:C:/Users/stapi/OneDrive/Desktop/GD32VW553/GD32VW55X_Wifi_BLE_SDK/GD32VW55x_RELEASE_V1.0.2/MSDK/ble/app\app_sec_mgr.c **** 
 649:C:/Users/stapi/OneDrive/Desktop/GD32VW553/GD32VW55X_Wifi_BLE_SDK/GD32VW55x_RELEASE_V1.0.2/MSDK/ble/app\app_sec_mgr.c ****     case BLE_SEC_EVT_ENCRYPT_REQ_IND:
 650:C:/Users/stapi/OneDrive/Desktop/GD32VW553/GD32VW55X_Wifi_BLE_SDK/GD32VW55x_RELEASE_V1.0.2/MSDK/ble/app\app_sec_mgr.c ****         app_encrypt_req_hdlr((ble_gap_encrypt_req_ind_t *)p_data);
 651:C:/Users/stapi/OneDrive/Desktop/GD32VW553/GD32VW55X_Wifi_BLE_SDK/GD32VW55x_RELEASE_V1.0.2/MSDK/ble/app\app_sec_mgr.c ****         break;
 652:C:/Users/stapi/OneDrive/Desktop/GD32VW553/GD32VW55X_Wifi_BLE_SDK/GD32VW55x_RELEASE_V1.0.2/MSDK/ble/app\app_sec_mgr.c **** 
 653:C:/Users/stapi/OneDrive/Desktop/GD32VW553/GD32VW55X_Wifi_BLE_SDK/GD32VW55x_RELEASE_V1.0.2/MSDK/ble/app\app_sec_mgr.c ****     case BLE_SEC_EVT_ENCRYPT_INFO:
 654:C:/Users/stapi/OneDrive/Desktop/GD32VW553/GD32VW55X_Wifi_BLE_SDK/GD32VW55x_RELEASE_V1.0.2/MSDK/ble/app\app_sec_mgr.c ****         app_encrypted_hdlr((ble_sec_encrypt_info_t *)p_data);
 655:C:/Users/stapi/OneDrive/Desktop/GD32VW553/GD32VW55X_Wifi_BLE_SDK/GD32VW55x_RELEASE_V1.0.2/MSDK/ble/app\app_sec_mgr.c ****         break;
 656:C:/Users/stapi/OneDrive/Desktop/GD32VW553/GD32VW55X_Wifi_BLE_SDK/GD32VW55x_RELEASE_V1.0.2/MSDK/ble/app\app_sec_mgr.c **** 
 657:C:/Users/stapi/OneDrive/Desktop/GD32VW553/GD32VW55X_Wifi_BLE_SDK/GD32VW55x_RELEASE_V1.0.2/MSDK/ble/app\app_sec_mgr.c ****     case BLE_SEC_EVT_OOB_DATA_GEN_INFO:
 658:C:/Users/stapi/OneDrive/Desktop/GD32VW553/GD32VW55X_Wifi_BLE_SDK/GD32VW55x_RELEASE_V1.0.2/MSDK/ble/app\app_sec_mgr.c ****         app_oob_data_hdlr((ble_sec_oob_data_info_t *)p_data);
 659:C:/Users/stapi/OneDrive/Desktop/GD32VW553/GD32VW55X_Wifi_BLE_SDK/GD32VW55x_RELEASE_V1.0.2/MSDK/ble/app\app_sec_mgr.c ****         break;
 660:C:/Users/stapi/OneDrive/Desktop/GD32VW553/GD32VW55X_Wifi_BLE_SDK/GD32VW55x_RELEASE_V1.0.2/MSDK/ble/app\app_sec_mgr.c **** 
 661:C:/Users/stapi/OneDrive/Desktop/GD32VW553/GD32VW55X_Wifi_BLE_SDK/GD32VW55x_RELEASE_V1.0.2/MSDK/ble/app\app_sec_mgr.c ****     case BLE_SEC_EVT_KEY_PRESS_INFO:
 662:C:/Users/stapi/OneDrive/Desktop/GD32VW553/GD32VW55X_Wifi_BLE_SDK/GD32VW55x_RELEASE_V1.0.2/MSDK/ble/app\app_sec_mgr.c ****         dbg_print(NOTICE, "conidx %u key press info type %d\r\n", p_data->key_press_info.conn_idx,
 663:C:/Users/stapi/OneDrive/Desktop/GD32VW553/GD32VW55X_Wifi_BLE_SDK/GD32VW55x_RELEASE_V1.0.2/MSDK/ble/app\app_sec_mgr.c ****                p_data->key_press_info.type);
 664:C:/Users/stapi/OneDrive/Desktop/GD32VW553/GD32VW55X_Wifi_BLE_SDK/GD32VW55x_RELEASE_V1.0.2/MSDK/ble/app\app_sec_mgr.c ****         break;
 665:C:/Users/stapi/OneDrive/Desktop/GD32VW553/GD32VW55X_Wifi_BLE_SDK/GD32VW55x_RELEASE_V1.0.2/MSDK/ble/app\app_sec_mgr.c ****     default:
 666:C:/Users/stapi/OneDrive/Desktop/GD32VW553/GD32VW55X_Wifi_BLE_SDK/GD32VW55x_RELEASE_V1.0.2/MSDK/ble/app\app_sec_mgr.c ****         break;
 667:C:/Users/stapi/OneDrive/Desktop/GD32VW553/GD32VW55X_Wifi_BLE_SDK/GD32VW55x_RELEASE_V1.0.2/MSDK/ble/app\app_sec_mgr.c ****     }
 668:C:/Users/stapi/OneDrive/Desktop/GD32VW553/GD32VW55X_Wifi_BLE_SDK/GD32VW55x_RELEASE_V1.0.2/MSDK/ble/app\app_sec_mgr.c **** }
 669:C:/Users/stapi/OneDrive/Desktop/GD32VW553/GD32VW55X_Wifi_BLE_SDK/GD32VW55x_RELEASE_V1.0.2/MSDK/ble/app\app_sec_mgr.c **** 
 670:C:/Users/stapi/OneDrive/Desktop/GD32VW553/GD32VW55X_Wifi_BLE_SDK/GD32VW55x_RELEASE_V1.0.2/MSDK/ble/app\app_sec_mgr.c **** /*!
 671:C:/Users/stapi/OneDrive/Desktop/GD32VW553/GD32VW55X_Wifi_BLE_SDK/GD32VW55x_RELEASE_V1.0.2/MSDK/ble/app\app_sec_mgr.c ****     \brief      Reset application security module
 672:C:/Users/stapi/OneDrive/Desktop/GD32VW553/GD32VW55X_Wifi_BLE_SDK/GD32VW55x_RELEASE_V1.0.2/MSDK/ble/app\app_sec_mgr.c ****     \param[in]  none
 673:C:/Users/stapi/OneDrive/Desktop/GD32VW553/GD32VW55X_Wifi_BLE_SDK/GD32VW55x_RELEASE_V1.0.2/MSDK/ble/app\app_sec_mgr.c ****     \param[out] none
 674:C:/Users/stapi/OneDrive/Desktop/GD32VW553/GD32VW55X_Wifi_BLE_SDK/GD32VW55x_RELEASE_V1.0.2/MSDK/ble/app\app_sec_mgr.c ****     \retval     none
 675:C:/Users/stapi/OneDrive/Desktop/GD32VW553/GD32VW55X_Wifi_BLE_SDK/GD32VW55x_RELEASE_V1.0.2/MSDK/ble/app\app_sec_mgr.c **** */
 676:C:/Users/stapi/OneDrive/Desktop/GD32VW553/GD32VW55X_Wifi_BLE_SDK/GD32VW55x_RELEASE_V1.0.2/MSDK/ble/app\app_sec_mgr.c **** void app_sec_mgr_reset(void)
 677:C:/Users/stapi/OneDrive/Desktop/GD32VW553/GD32VW55X_Wifi_BLE_SDK/GD32VW55x_RELEASE_V1.0.2/MSDK/ble/app\app_sec_mgr.c **** {
  16              		.loc 1 677 1
  17              		.cfi_startproc
  18 0000 17030000 		call	t0,__riscv_save_1
  18      E7020300 
  19              		.cfi_offset 8, -8
  20              		.cfi_offset 1, -4
  21              		.cfi_def_cfa_offset 16
 678:C:/Users/stapi/OneDrive/Desktop/GD32VW553/GD32VW55X_Wifi_BLE_SDK/GD32VW55x_RELEASE_V1.0.2/MSDK/ble/app\app_sec_mgr.c ****     memset(&app_sec_env, 0, sizeof(app_sec_env_t));
  22              		.loc 1 678 5
  23 0008 37050000 		lui	a0,%hi(.LANCHOR0)
  24 000c 13040500 		addi	s0,a0,%lo(.LANCHOR0)
  25 0010 13067002 		li	a2,39
  26 0014 8145     		li	a1,0
  27 0016 13050500 		addi	a0,a0,%lo(.LANCHOR0)
  28 001a 97000000 		call	memset
  28      E7800000 
  29              	.LVL0:
 679:C:/Users/stapi/OneDrive/Desktop/GD32VW553/GD32VW55X_Wifi_BLE_SDK/GD32VW55x_RELEASE_V1.0.2/MSDK/ble/app\app_sec_mgr.c ****     app_sec_env.authen_bond = true;
  30              		.loc 1 679 5
  31              		.loc 1 679 29 is_stmt 0
  32 0022 8547     		li	a5,1
  33 0024 2300F400 		sb	a5,0(s0)
 680:C:/Users/stapi/OneDrive/Desktop/GD32VW553/GD32VW55X_Wifi_BLE_SDK/GD32VW55x_RELEASE_V1.0.2/MSDK/ble/app\app_sec_mgr.c ****     app_sec_env.key_size = 16;
  34              		.loc 1 680 5 is_stmt 1
 681:C:/Users/stapi/OneDrive/Desktop/GD32VW553/GD32VW55X_Wifi_BLE_SDK/GD32VW55x_RELEASE_V1.0.2/MSDK/ble/app\app_sec_mgr.c ****     app_sec_env.io_capability = BLE_GAP_IO_CAP_NO_IO;
  35              		.loc 1 681 5
  36              		.loc 1 681 31 is_stmt 0
  37 0028 8567     		li	a5,4096
  38 002a 8D07     		addi	a5,a5,3
  39 002c 2312F400 		sh	a5,4(s0)
 682:C:/Users/stapi/OneDrive/Desktop/GD32VW553/GD32VW55X_Wifi_BLE_SDK/GD32VW55x_RELEASE_V1.0.2/MSDK/ble/app\app_sec_mgr.c ****     memset(&pairing_cb, 0, sizeof(pairing_cb));
  40              		.loc 1 682 5 is_stmt 1
  41 0030 B7070000 		lui	a5,%hi(.LANCHOR1)
  42 0034 93870700 		addi	a5,a5,%lo(.LANCHOR1)
 683:C:/Users/stapi/OneDrive/Desktop/GD32VW553/GD32VW55X_Wifi_BLE_SDK/GD32VW55x_RELEASE_V1.0.2/MSDK/ble/app\app_sec_mgr.c **** 
 684:C:/Users/stapi/OneDrive/Desktop/GD32VW553/GD32VW55X_Wifi_BLE_SDK/GD32VW55x_RELEASE_V1.0.2/MSDK/ble/app\app_sec_mgr.c ****     ble_sec_callback_register(app_sec_evt_handler);
  43              		.loc 1 684 5 is_stmt 0
  44 0038 37050000 		lui	a0,%hi(app_sec_evt_handler)
 682:C:/Users/stapi/OneDrive/Desktop/GD32VW553/GD32VW55X_Wifi_BLE_SDK/GD32VW55x_RELEASE_V1.0.2/MSDK/ble/app\app_sec_mgr.c ****     memset(&pairing_cb, 0, sizeof(pairing_cb));
  45              		.loc 1 682 5
  46 003c 23A00700 		sw	zero,0(a5)
  47 0040 23A20700 		sw	zero,4(a5)
  48 0044 23A40700 		sw	zero,8(a5)
  49              		.loc 1 684 5 is_stmt 1
  50 0048 13050500 		addi	a0,a0,%lo(app_sec_evt_handler)
  51 004c 97000000 		call	ble_sec_callback_register
  51      E7800000 
  52              	.LVL1:
 685:C:/Users/stapi/OneDrive/Desktop/GD32VW553/GD32VW55X_Wifi_BLE_SDK/GD32VW55x_RELEASE_V1.0.2/MSDK/ble/app\app_sec_mgr.c **** }
  53              		.loc 1 685 1 is_stmt 0
  54 0054 17030000 		tail	__riscv_restore_1
  54      67000300 
  55              		.cfi_restore 8
  56              		.cfi_restore 1
  57              		.cfi_def_cfa_offset 0
  58              		.cfi_endproc
  59              	.LFE18:
  61              		.section	.text.app_sec_mgr_init,"ax",@progbits
  62              		.align	1
  63              		.globl	app_sec_mgr_init
  65              	app_sec_mgr_init:
  66              	.LFB19:
 686:C:/Users/stapi/OneDrive/Desktop/GD32VW553/GD32VW55X_Wifi_BLE_SDK/GD32VW55x_RELEASE_V1.0.2/MSDK/ble/app\app_sec_mgr.c **** 
 687:C:/Users/stapi/OneDrive/Desktop/GD32VW553/GD32VW55X_Wifi_BLE_SDK/GD32VW55x_RELEASE_V1.0.2/MSDK/ble/app\app_sec_mgr.c **** /*!
 688:C:/Users/stapi/OneDrive/Desktop/GD32VW553/GD32VW55X_Wifi_BLE_SDK/GD32VW55x_RELEASE_V1.0.2/MSDK/ble/app\app_sec_mgr.c ****     \brief      Init application security module
 689:C:/Users/stapi/OneDrive/Desktop/GD32VW553/GD32VW55X_Wifi_BLE_SDK/GD32VW55x_RELEASE_V1.0.2/MSDK/ble/app\app_sec_mgr.c ****     \param[in]  none
 690:C:/Users/stapi/OneDrive/Desktop/GD32VW553/GD32VW55X_Wifi_BLE_SDK/GD32VW55x_RELEASE_V1.0.2/MSDK/ble/app\app_sec_mgr.c ****     \param[out] none
 691:C:/Users/stapi/OneDrive/Desktop/GD32VW553/GD32VW55X_Wifi_BLE_SDK/GD32VW55x_RELEASE_V1.0.2/MSDK/ble/app\app_sec_mgr.c ****     \retval     none
 692:C:/Users/stapi/OneDrive/Desktop/GD32VW553/GD32VW55X_Wifi_BLE_SDK/GD32VW55x_RELEASE_V1.0.2/MSDK/ble/app\app_sec_mgr.c **** */
 693:C:/Users/stapi/OneDrive/Desktop/GD32VW553/GD32VW55X_Wifi_BLE_SDK/GD32VW55x_RELEASE_V1.0.2/MSDK/ble/app\app_sec_mgr.c **** void app_sec_mgr_init(void)
 694:C:/Users/stapi/OneDrive/Desktop/GD32VW553/GD32VW55X_Wifi_BLE_SDK/GD32VW55x_RELEASE_V1.0.2/MSDK/ble/app\app_sec_mgr.c **** {
  67              		.loc 1 694 1 is_stmt 1
  68              		.cfi_startproc
 695:C:/Users/stapi/OneDrive/Desktop/GD32VW553/GD32VW55X_Wifi_BLE_SDK/GD32VW55x_RELEASE_V1.0.2/MSDK/ble/app\app_sec_mgr.c ****     app_sec_mgr_reset();
  69              		.loc 1 695 5
  70 0000 17030000 		tail	app_sec_mgr_reset
  70      67000300 
  71              	.LVL2:
  72              		.cfi_endproc
  73              	.LFE19:
  75              		.section	.text.app_sec_mgr_deinit,"ax",@progbits
  76              		.align	1
  77              		.globl	app_sec_mgr_deinit
  79              	app_sec_mgr_deinit:
  80              	.LFB20:
 696:C:/Users/stapi/OneDrive/Desktop/GD32VW553/GD32VW55X_Wifi_BLE_SDK/GD32VW55x_RELEASE_V1.0.2/MSDK/ble/app\app_sec_mgr.c **** }
 697:C:/Users/stapi/OneDrive/Desktop/GD32VW553/GD32VW55X_Wifi_BLE_SDK/GD32VW55x_RELEASE_V1.0.2/MSDK/ble/app\app_sec_mgr.c **** 
 698:C:/Users/stapi/OneDrive/Desktop/GD32VW553/GD32VW55X_Wifi_BLE_SDK/GD32VW55x_RELEASE_V1.0.2/MSDK/ble/app\app_sec_mgr.c **** /*!
 699:C:/Users/stapi/OneDrive/Desktop/GD32VW553/GD32VW55X_Wifi_BLE_SDK/GD32VW55x_RELEASE_V1.0.2/MSDK/ble/app\app_sec_mgr.c ****     \brief      Deinit application security module
 700:C:/Users/stapi/OneDrive/Desktop/GD32VW553/GD32VW55X_Wifi_BLE_SDK/GD32VW55x_RELEASE_V1.0.2/MSDK/ble/app\app_sec_mgr.c ****     \param[in]  none
 701:C:/Users/stapi/OneDrive/Desktop/GD32VW553/GD32VW55X_Wifi_BLE_SDK/GD32VW55x_RELEASE_V1.0.2/MSDK/ble/app\app_sec_mgr.c ****     \param[out] none
 702:C:/Users/stapi/OneDrive/Desktop/GD32VW553/GD32VW55X_Wifi_BLE_SDK/GD32VW55x_RELEASE_V1.0.2/MSDK/ble/app\app_sec_mgr.c ****     \retval     none
 703:C:/Users/stapi/OneDrive/Desktop/GD32VW553/GD32VW55X_Wifi_BLE_SDK/GD32VW55x_RELEASE_V1.0.2/MSDK/ble/app\app_sec_mgr.c **** */
 704:C:/Users/stapi/OneDrive/Desktop/GD32VW553/GD32VW55X_Wifi_BLE_SDK/GD32VW55x_RELEASE_V1.0.2/MSDK/ble/app\app_sec_mgr.c **** void app_sec_mgr_deinit(void)
 705:C:/Users/stapi/OneDrive/Desktop/GD32VW553/GD32VW55X_Wifi_BLE_SDK/GD32VW55x_RELEASE_V1.0.2/MSDK/ble/app\app_sec_mgr.c **** {
  81              		.loc 1 705 1
  82              		.cfi_startproc
 706:C:/Users/stapi/OneDrive/Desktop/GD32VW553/GD32VW55X_Wifi_BLE_SDK/GD32VW55x_RELEASE_V1.0.2/MSDK/ble/app\app_sec_mgr.c ****     ble_sec_callback_unregister(app_sec_evt_handler);
  83              		.loc 1 706 5
  84 0000 37050000 		lui	a0,%hi(app_sec_evt_handler)
  85 0004 13050500 		addi	a0,a0,%lo(app_sec_evt_handler)
  86 0008 17030000 		tail	ble_sec_callback_unregister
  86      67000300 
  87              	.LVL3:
  88              		.cfi_endproc
  89              	.LFE20:
  91              		.section	.text.app_sec_set_authen,"ax",@progbits
  92              		.align	1
  93              		.globl	app_sec_set_authen
  95              	app_sec_set_authen:
  96              	.LFB21:
 707:C:/Users/stapi/OneDrive/Desktop/GD32VW553/GD32VW55X_Wifi_BLE_SDK/GD32VW55x_RELEASE_V1.0.2/MSDK/ble/app\app_sec_mgr.c **** }
 708:C:/Users/stapi/OneDrive/Desktop/GD32VW553/GD32VW55X_Wifi_BLE_SDK/GD32VW55x_RELEASE_V1.0.2/MSDK/ble/app\app_sec_mgr.c **** 
 709:C:/Users/stapi/OneDrive/Desktop/GD32VW553/GD32VW55X_Wifi_BLE_SDK/GD32VW55x_RELEASE_V1.0.2/MSDK/ble/app\app_sec_mgr.c **** /*!
 710:C:/Users/stapi/OneDrive/Desktop/GD32VW553/GD32VW55X_Wifi_BLE_SDK/GD32VW55x_RELEASE_V1.0.2/MSDK/ble/app\app_sec_mgr.c ****     \brief      Set authentication parameters
 711:C:/Users/stapi/OneDrive/Desktop/GD32VW553/GD32VW55X_Wifi_BLE_SDK/GD32VW55x_RELEASE_V1.0.2/MSDK/ble/app\app_sec_mgr.c ****     \param[in]  bond: true to support bond authentication, otherwise false
 712:C:/Users/stapi/OneDrive/Desktop/GD32VW553/GD32VW55X_Wifi_BLE_SDK/GD32VW55x_RELEASE_V1.0.2/MSDK/ble/app\app_sec_mgr.c ****     \param[in]  mitm: true to support man-in-the-middle protection, otherwise false
 713:C:/Users/stapi/OneDrive/Desktop/GD32VW553/GD32VW55X_Wifi_BLE_SDK/GD32VW55x_RELEASE_V1.0.2/MSDK/ble/app\app_sec_mgr.c ****     \param[in]  sc: true to support secure connection, otherwise false
 714:C:/Users/stapi/OneDrive/Desktop/GD32VW553/GD32VW55X_Wifi_BLE_SDK/GD32VW55x_RELEASE_V1.0.2/MSDK/ble/app\app_sec_mgr.c ****     \param[in]  iocap: IO capabilities. @ref ble_gap_io_cap_t
 715:C:/Users/stapi/OneDrive/Desktop/GD32VW553/GD32VW55X_Wifi_BLE_SDK/GD32VW55x_RELEASE_V1.0.2/MSDK/ble/app\app_sec_mgr.c ****     \param[in]  oob: true to support OOB, otherwise false
 716:C:/Users/stapi/OneDrive/Desktop/GD32VW553/GD32VW55X_Wifi_BLE_SDK/GD32VW55x_RELEASE_V1.0.2/MSDK/ble/app\app_sec_mgr.c ****     \param[in]  sc_only: true to support secure connection only, otherwise false
 717:C:/Users/stapi/OneDrive/Desktop/GD32VW553/GD32VW55X_Wifi_BLE_SDK/GD32VW55x_RELEASE_V1.0.2/MSDK/ble/app\app_sec_mgr.c ****     \param[in]  key_size: encrytion key size
 718:C:/Users/stapi/OneDrive/Desktop/GD32VW553/GD32VW55X_Wifi_BLE_SDK/GD32VW55x_RELEASE_V1.0.2/MSDK/ble/app\app_sec_mgr.c ****     \param[out] none
 719:C:/Users/stapi/OneDrive/Desktop/GD32VW553/GD32VW55X_Wifi_BLE_SDK/GD32VW55x_RELEASE_V1.0.2/MSDK/ble/app\app_sec_mgr.c ****     \retval     none
 720:C:/Users/stapi/OneDrive/Desktop/GD32VW553/GD32VW55X_Wifi_BLE_SDK/GD32VW55x_RELEASE_V1.0.2/MSDK/ble/app\app_sec_mgr.c **** */
 721:C:/Users/stapi/OneDrive/Desktop/GD32VW553/GD32VW55X_Wifi_BLE_SDK/GD32VW55x_RELEASE_V1.0.2/MSDK/ble/app\app_sec_mgr.c **** void app_sec_set_authen(bool bond, bool mitm, bool sc, uint8_t iocap, bool oob, bool sc_only, uint8
 722:C:/Users/stapi/OneDrive/Desktop/GD32VW553/GD32VW55X_Wifi_BLE_SDK/GD32VW55x_RELEASE_V1.0.2/MSDK/ble/app\app_sec_mgr.c **** {
  97              		.loc 1 722 1
  98              		.cfi_startproc
  99              	.LVL4:
 723:C:/Users/stapi/OneDrive/Desktop/GD32VW553/GD32VW55X_Wifi_BLE_SDK/GD32VW55x_RELEASE_V1.0.2/MSDK/ble/app\app_sec_mgr.c ****     app_sec_env.authen_bond = bond;
 100              		.loc 1 723 5
 101              		.loc 1 723 29 is_stmt 0
 102 0000 B7080000 		lui	a7,%hi(.LANCHOR0)
 103 0004 93880800 		addi	a7,a7,%lo(.LANCHOR0)
 104 0008 2380A800 		sb	a0,0(a7)
 724:C:/Users/stapi/OneDrive/Desktop/GD32VW553/GD32VW55X_Wifi_BLE_SDK/GD32VW55x_RELEASE_V1.0.2/MSDK/ble/app\app_sec_mgr.c ****     app_sec_env.authen_mitm = mitm;
 105              		.loc 1 724 5 is_stmt 1
 106              		.loc 1 724 29 is_stmt 0
 107 000c A380B800 		sb	a1,1(a7)
 725:C:/Users/stapi/OneDrive/Desktop/GD32VW553/GD32VW55X_Wifi_BLE_SDK/GD32VW55x_RELEASE_V1.0.2/MSDK/ble/app\app_sec_mgr.c ****     app_sec_env.authen_sc = sc;
 108              		.loc 1 725 5 is_stmt 1
 109              		.loc 1 725 27 is_stmt 0
 110 0010 2381C800 		sb	a2,2(a7)
 726:C:/Users/stapi/OneDrive/Desktop/GD32VW553/GD32VW55X_Wifi_BLE_SDK/GD32VW55x_RELEASE_V1.0.2/MSDK/ble/app\app_sec_mgr.c ****     app_sec_env.sc_only = sc_only;
 111              		.loc 1 726 5 is_stmt 1
 112              		.loc 1 726 25 is_stmt 0
 113 0014 A381F800 		sb	a5,3(a7)
 727:C:/Users/stapi/OneDrive/Desktop/GD32VW553/GD32VW55X_Wifi_BLE_SDK/GD32VW55x_RELEASE_V1.0.2/MSDK/ble/app\app_sec_mgr.c ****     app_sec_env.io_capability = iocap;
 114              		.loc 1 727 5 is_stmt 1
 115              		.loc 1 727 31 is_stmt 0
 116 0018 2382D800 		sb	a3,4(a7)
 728:C:/Users/stapi/OneDrive/Desktop/GD32VW553/GD32VW55X_Wifi_BLE_SDK/GD32VW55x_RELEASE_V1.0.2/MSDK/ble/app\app_sec_mgr.c ****     app_sec_env.oob = oob;
 117              		.loc 1 728 5 is_stmt 1
 118              		.loc 1 728 21 is_stmt 0
 119 001c 2383E800 		sb	a4,6(a7)
 729:C:/Users/stapi/OneDrive/Desktop/GD32VW553/GD32VW55X_Wifi_BLE_SDK/GD32VW55x_RELEASE_V1.0.2/MSDK/ble/app\app_sec_mgr.c ****     app_sec_env.key_size = key_size;
 120              		.loc 1 729 5 is_stmt 1
 121              		.loc 1 729 26 is_stmt 0
 122 0020 A3820801 		sb	a6,5(a7)
 730:C:/Users/stapi/OneDrive/Desktop/GD32VW553/GD32VW55X_Wifi_BLE_SDK/GD32VW55x_RELEASE_V1.0.2/MSDK/ble/app\app_sec_mgr.c **** }
 123              		.loc 1 730 1
 124 0024 8280     		ret
 125              		.cfi_endproc
 126              	.LFE21:
 128              		.section	.text.app_sec_need_authen_bond,"ax",@progbits
 129              		.align	1
 130              		.globl	app_sec_need_authen_bond
 132              	app_sec_need_authen_bond:
 133              	.LFB22:
 731:C:/Users/stapi/OneDrive/Desktop/GD32VW553/GD32VW55X_Wifi_BLE_SDK/GD32VW55x_RELEASE_V1.0.2/MSDK/ble/app\app_sec_mgr.c **** 
 732:C:/Users/stapi/OneDrive/Desktop/GD32VW553/GD32VW55X_Wifi_BLE_SDK/GD32VW55x_RELEASE_V1.0.2/MSDK/ble/app\app_sec_mgr.c **** /*!
 733:C:/Users/stapi/OneDrive/Desktop/GD32VW553/GD32VW55X_Wifi_BLE_SDK/GD32VW55x_RELEASE_V1.0.2/MSDK/ble/app\app_sec_mgr.c ****     \brief      Check if bond is needed
 734:C:/Users/stapi/OneDrive/Desktop/GD32VW553/GD32VW55X_Wifi_BLE_SDK/GD32VW55x_RELEASE_V1.0.2/MSDK/ble/app\app_sec_mgr.c ****     \param[in]  none
 735:C:/Users/stapi/OneDrive/Desktop/GD32VW553/GD32VW55X_Wifi_BLE_SDK/GD32VW55x_RELEASE_V1.0.2/MSDK/ble/app\app_sec_mgr.c ****     \param[out] none
 736:C:/Users/stapi/OneDrive/Desktop/GD32VW553/GD32VW55X_Wifi_BLE_SDK/GD32VW55x_RELEASE_V1.0.2/MSDK/ble/app\app_sec_mgr.c ****     \retval     bool: true if bond is needed, otherwise false
 737:C:/Users/stapi/OneDrive/Desktop/GD32VW553/GD32VW55X_Wifi_BLE_SDK/GD32VW55x_RELEASE_V1.0.2/MSDK/ble/app\app_sec_mgr.c **** */
 738:C:/Users/stapi/OneDrive/Desktop/GD32VW553/GD32VW55X_Wifi_BLE_SDK/GD32VW55x_RELEASE_V1.0.2/MSDK/ble/app\app_sec_mgr.c **** bool app_sec_need_authen_bond(void)
 739:C:/Users/stapi/OneDrive/Desktop/GD32VW553/GD32VW55X_Wifi_BLE_SDK/GD32VW55x_RELEASE_V1.0.2/MSDK/ble/app\app_sec_mgr.c **** {
 134              		.loc 1 739 1 is_stmt 1
 135              		.cfi_startproc
 740:C:/Users/stapi/OneDrive/Desktop/GD32VW553/GD32VW55X_Wifi_BLE_SDK/GD32VW55x_RELEASE_V1.0.2/MSDK/ble/app\app_sec_mgr.c ****     return app_sec_env.authen_bond;
 136              		.loc 1 740 5
 741:C:/Users/stapi/OneDrive/Desktop/GD32VW553/GD32VW55X_Wifi_BLE_SDK/GD32VW55x_RELEASE_V1.0.2/MSDK/ble/app\app_sec_mgr.c **** }
 137              		.loc 1 741 1 is_stmt 0
 138 0000 B7070000 		lui	a5,%hi(.LANCHOR0)
 139 0004 03C50700 		lbu	a0,%lo(.LANCHOR0)(a5)
 140 0008 8280     		ret
 141              		.cfi_endproc
 142              	.LFE22:
 144              		.section	.text.app_sec_is_pairing_device,"ax",@progbits
 145              		.align	1
 146              		.globl	app_sec_is_pairing_device
 148              	app_sec_is_pairing_device:
 149              	.LFB23:
 742:C:/Users/stapi/OneDrive/Desktop/GD32VW553/GD32VW55X_Wifi_BLE_SDK/GD32VW55x_RELEASE_V1.0.2/MSDK/ble/app\app_sec_mgr.c **** 
 743:C:/Users/stapi/OneDrive/Desktop/GD32VW553/GD32VW55X_Wifi_BLE_SDK/GD32VW55x_RELEASE_V1.0.2/MSDK/ble/app\app_sec_mgr.c **** /*!
 744:C:/Users/stapi/OneDrive/Desktop/GD32VW553/GD32VW55X_Wifi_BLE_SDK/GD32VW55x_RELEASE_V1.0.2/MSDK/ble/app\app_sec_mgr.c ****     \brief      Check if a device is the one under pairing
 745:C:/Users/stapi/OneDrive/Desktop/GD32VW553/GD32VW55X_Wifi_BLE_SDK/GD32VW55x_RELEASE_V1.0.2/MSDK/ble/app\app_sec_mgr.c ****     \param[in]  address: peer device address
 746:C:/Users/stapi/OneDrive/Desktop/GD32VW553/GD32VW55X_Wifi_BLE_SDK/GD32VW55x_RELEASE_V1.0.2/MSDK/ble/app\app_sec_mgr.c ****     \param[out] none
 747:C:/Users/stapi/OneDrive/Desktop/GD32VW553/GD32VW55X_Wifi_BLE_SDK/GD32VW55x_RELEASE_V1.0.2/MSDK/ble/app\app_sec_mgr.c ****     \retval     bool: true if the device is the pairing one, otherwise false
 748:C:/Users/stapi/OneDrive/Desktop/GD32VW553/GD32VW55X_Wifi_BLE_SDK/GD32VW55x_RELEASE_V1.0.2/MSDK/ble/app\app_sec_mgr.c **** */
 749:C:/Users/stapi/OneDrive/Desktop/GD32VW553/GD32VW55X_Wifi_BLE_SDK/GD32VW55x_RELEASE_V1.0.2/MSDK/ble/app\app_sec_mgr.c **** bool app_sec_is_pairing_device(ble_gap_addr_t address)
 750:C:/Users/stapi/OneDrive/Desktop/GD32VW553/GD32VW55X_Wifi_BLE_SDK/GD32VW55x_RELEASE_V1.0.2/MSDK/ble/app\app_sec_mgr.c **** {
 150              		.loc 1 750 1 is_stmt 1
 151              		.cfi_startproc
 152 0000 17030000 		call	t0,__riscv_save_0
 152      E7020300 
 153              		.cfi_offset 1, -4
 154              		.cfi_def_cfa_offset 16
 751:C:/Users/stapi/OneDrive/Desktop/GD32VW553/GD32VW55X_Wifi_BLE_SDK/GD32VW55x_RELEASE_V1.0.2/MSDK/ble/app\app_sec_mgr.c ****     return (pairing_cb.state == BLE_BOND_STATE_BONDING &&
 155              		.loc 1 751 5
 750:C:/Users/stapi/OneDrive/Desktop/GD32VW553/GD32VW55X_Wifi_BLE_SDK/GD32VW55x_RELEASE_V1.0.2/MSDK/ble/app\app_sec_mgr.c ****     return (pairing_cb.state == BLE_BOND_STATE_BONDING &&
 156              		.loc 1 750 1 is_stmt 0
 157 0008 4111     		addi	sp,sp,-16
 158              		.cfi_def_cfa_offset 32
 750:C:/Users/stapi/OneDrive/Desktop/GD32VW553/GD32VW55X_Wifi_BLE_SDK/GD32VW55x_RELEASE_V1.0.2/MSDK/ble/app\app_sec_mgr.c ****     return (pairing_cb.state == BLE_BOND_STATE_BONDING &&
 159              		.loc 1 750 1
 160 000a 2AC4     		sw	a0,8(sp)
 161              		.loc 1 751 23
 162 000c 37050000 		lui	a0,%hi(.LANCHOR1)
 163 0010 13050500 		addi	a0,a0,%lo(.LANCHOR1)
 164              		.loc 1 751 56
 165 0014 1841     		lw	a4,0(a0)
 750:C:/Users/stapi/OneDrive/Desktop/GD32VW553/GD32VW55X_Wifi_BLE_SDK/GD32VW55x_RELEASE_V1.0.2/MSDK/ble/app\app_sec_mgr.c ****     return (pairing_cb.state == BLE_BOND_STATE_BONDING &&
 166              		.loc 1 750 1
 167 0016 2EC6     		sw	a1,12(sp)
 168              		.loc 1 751 56
 169 0018 8547     		li	a5,1
 170 001a 6310F702 		bne	a4,a5,.L11
 752:C:/Users/stapi/OneDrive/Desktop/GD32VW553/GD32VW55X_Wifi_BLE_SDK/GD32VW55x_RELEASE_V1.0.2/MSDK/ble/app\app_sec_mgr.c ****             memcmp(&pairing_cb.addr, &address, sizeof(ble_gap_addr_t)) == 0);
 171              		.loc 1 752 13 discriminator 1
 172 001e 1D46     		li	a2,7
 173 0020 2C00     		addi	a1,sp,8
 174 0022 1105     		addi	a0,a0,4
 175 0024 97000000 		call	memcmp
 175      E7800000 
 176              	.LVL5:
 751:C:/Users/stapi/OneDrive/Desktop/GD32VW553/GD32VW55X_Wifi_BLE_SDK/GD32VW55x_RELEASE_V1.0.2/MSDK/ble/app\app_sec_mgr.c ****     return (pairing_cb.state == BLE_BOND_STATE_BONDING &&
 177              		.loc 1 751 56 discriminator 1
 178 002c 13351500 		seqz	a0,a0
 179              	.L10:
 753:C:/Users/stapi/OneDrive/Desktop/GD32VW553/GD32VW55X_Wifi_BLE_SDK/GD32VW55x_RELEASE_V1.0.2/MSDK/ble/app\app_sec_mgr.c **** }
 180              		.loc 1 753 1 discriminator 6
 181 0030 4101     		addi	sp,sp,16
 182              		.cfi_remember_state
 183              		.cfi_def_cfa_offset 0
 184 0032 17030000 		tail	__riscv_restore_0
 184      67000300 
 185              		.cfi_restore 1
 186              		.cfi_def_cfa_offset -16
 187              	.L11:
 188              		.cfi_restore_state
 751:C:/Users/stapi/OneDrive/Desktop/GD32VW553/GD32VW55X_Wifi_BLE_SDK/GD32VW55x_RELEASE_V1.0.2/MSDK/ble/app\app_sec_mgr.c ****             memcmp(&pairing_cb.addr, &address, sizeof(ble_gap_addr_t)) == 0);
 189              		.loc 1 751 56
 190 003a 0145     		li	a0,0
 191 003c D5BF     		j	.L10
 192              		.cfi_endproc
 193              	.LFE23:
 195              		.section	.text.app_sec_cancel_bonding,"ax",@progbits
 196              		.align	1
 197              		.globl	app_sec_cancel_bonding
 199              	app_sec_cancel_bonding:
 200              	.LFB24:
 754:C:/Users/stapi/OneDrive/Desktop/GD32VW553/GD32VW55X_Wifi_BLE_SDK/GD32VW55x_RELEASE_V1.0.2/MSDK/ble/app\app_sec_mgr.c **** 
 755:C:/Users/stapi/OneDrive/Desktop/GD32VW553/GD32VW55X_Wifi_BLE_SDK/GD32VW55x_RELEASE_V1.0.2/MSDK/ble/app\app_sec_mgr.c **** /*!
 756:C:/Users/stapi/OneDrive/Desktop/GD32VW553/GD32VW55X_Wifi_BLE_SDK/GD32VW55x_RELEASE_V1.0.2/MSDK/ble/app\app_sec_mgr.c ****     \brief      Cancel the ongoing pairing procedure
 757:C:/Users/stapi/OneDrive/Desktop/GD32VW553/GD32VW55X_Wifi_BLE_SDK/GD32VW55x_RELEASE_V1.0.2/MSDK/ble/app\app_sec_mgr.c ****     \param[in]  none
 758:C:/Users/stapi/OneDrive/Desktop/GD32VW553/GD32VW55X_Wifi_BLE_SDK/GD32VW55x_RELEASE_V1.0.2/MSDK/ble/app\app_sec_mgr.c ****     \param[out] none
 759:C:/Users/stapi/OneDrive/Desktop/GD32VW553/GD32VW55X_Wifi_BLE_SDK/GD32VW55x_RELEASE_V1.0.2/MSDK/ble/app\app_sec_mgr.c ****     \retval     bool: true if pairing can be cancelled, otherwise false
 760:C:/Users/stapi/OneDrive/Desktop/GD32VW553/GD32VW55X_Wifi_BLE_SDK/GD32VW55x_RELEASE_V1.0.2/MSDK/ble/app\app_sec_mgr.c **** */
 761:C:/Users/stapi/OneDrive/Desktop/GD32VW553/GD32VW55X_Wifi_BLE_SDK/GD32VW55x_RELEASE_V1.0.2/MSDK/ble/app\app_sec_mgr.c **** bool app_sec_cancel_bonding(void)
 762:C:/Users/stapi/OneDrive/Desktop/GD32VW553/GD32VW55X_Wifi_BLE_SDK/GD32VW55x_RELEASE_V1.0.2/MSDK/ble/app\app_sec_mgr.c **** {
 201              		.loc 1 762 1 is_stmt 1
 202              		.cfi_startproc
 203 0000 17030000 		call	t0,__riscv_save_2
 203      E7020300 
 204              		.cfi_offset 9, -12
 205              		.cfi_offset 8, -8
 206              		.cfi_offset 1, -4
 207              		.cfi_def_cfa_offset 16
 763:C:/Users/stapi/OneDrive/Desktop/GD32VW553/GD32VW55X_Wifi_BLE_SDK/GD32VW55x_RELEASE_V1.0.2/MSDK/ble/app\app_sec_mgr.c ****     ble_device_t *p_dev;
 208              		.loc 1 763 5
 764:C:/Users/stapi/OneDrive/Desktop/GD32VW553/GD32VW55X_Wifi_BLE_SDK/GD32VW55x_RELEASE_V1.0.2/MSDK/ble/app\app_sec_mgr.c ****     if (pairing_cb.state != BLE_BOND_STATE_BONDING) {
 209              		.loc 1 764 5
 210              		.loc 1 764 19 is_stmt 0
 211 0008 37040000 		lui	s0,%hi(.LANCHOR1)
 212              		.loc 1 764 8
 213 000c 83240400 		lw	s1,%lo(.LANCHOR1)(s0)
 214 0010 8547     		li	a5,1
 215 0012 0145     		li	a0,0
 216 0014 6399F402 		bne	s1,a5,.L14
 217 0018 13040400 		addi	s0,s0,%lo(.LANCHOR1)
 765:C:/Users/stapi/OneDrive/Desktop/GD32VW553/GD32VW55X_Wifi_BLE_SDK/GD32VW55x_RELEASE_V1.0.2/MSDK/ble/app\app_sec_mgr.c ****         return false;
 766:C:/Users/stapi/OneDrive/Desktop/GD32VW553/GD32VW55X_Wifi_BLE_SDK/GD32VW55x_RELEASE_V1.0.2/MSDK/ble/app\app_sec_mgr.c ****     }
 767:C:/Users/stapi/OneDrive/Desktop/GD32VW553/GD32VW55X_Wifi_BLE_SDK/GD32VW55x_RELEASE_V1.0.2/MSDK/ble/app\app_sec_mgr.c **** 
 768:C:/Users/stapi/OneDrive/Desktop/GD32VW553/GD32VW55X_Wifi_BLE_SDK/GD32VW55x_RELEASE_V1.0.2/MSDK/ble/app\app_sec_mgr.c ****     p_dev = dm_find_dev_by_addr(pairing_cb.addr);
 218              		.loc 1 768 5 is_stmt 1
 219              		.loc 1 768 13 is_stmt 0
 220 001c 4840     		lw	a0,4(s0)
 221 001e 0C44     		lw	a1,8(s0)
 222 0020 97000000 		call	dm_find_dev_by_addr
 222      E7800000 
 223              	.LVL6:
 769:C:/Users/stapi/OneDrive/Desktop/GD32VW553/GD32VW55X_Wifi_BLE_SDK/GD32VW55x_RELEASE_V1.0.2/MSDK/ble/app\app_sec_mgr.c ****     if (p_dev == NULL || p_dev->state != BLE_CONN_STATE_CONNECTED) {
 224              		.loc 1 769 5 is_stmt 1
 225              		.loc 1 769 8 is_stmt 0
 226 0028 01C5     		beq	a0,zero,.L15
 227              		.loc 1 769 23 discriminator 1
 228 002a 1C4D     		lw	a5,24(a0)
 229 002c 63869700 		beq	a5,s1,.L16
 230              	.L15:
 770:C:/Users/stapi/OneDrive/Desktop/GD32VW553/GD32VW55X_Wifi_BLE_SDK/GD32VW55x_RELEASE_V1.0.2/MSDK/ble/app\app_sec_mgr.c ****         ble_conn_connect_cancel();
 231              		.loc 1 770 9 is_stmt 1
 232 0030 97000000 		call	ble_conn_connect_cancel
 232      E7800000 
 233              	.LVL7:
 234              	.L16:
 771:C:/Users/stapi/OneDrive/Desktop/GD32VW553/GD32VW55X_Wifi_BLE_SDK/GD32VW55x_RELEASE_V1.0.2/MSDK/ble/app\app_sec_mgr.c ****     }
 772:C:/Users/stapi/OneDrive/Desktop/GD32VW553/GD32VW55X_Wifi_BLE_SDK/GD32VW55x_RELEASE_V1.0.2/MSDK/ble/app\app_sec_mgr.c **** 
 773:C:/Users/stapi/OneDrive/Desktop/GD32VW553/GD32VW55X_Wifi_BLE_SDK/GD32VW55x_RELEASE_V1.0.2/MSDK/ble/app\app_sec_mgr.c ****     memset(&pairing_cb, 0, sizeof(pairing_cb));
 235              		.loc 1 773 5
 236 0038 23200400 		sw	zero,0(s0)
 237 003c 23220400 		sw	zero,4(s0)
 238 0040 23240400 		sw	zero,8(s0)
 774:C:/Users/stapi/OneDrive/Desktop/GD32VW553/GD32VW55X_Wifi_BLE_SDK/GD32VW55x_RELEASE_V1.0.2/MSDK/ble/app\app_sec_mgr.c ****     return true;
 239              		.loc 1 774 5
 240              		.loc 1 774 12 is_stmt 0
 241 0044 0545     		li	a0,1
 242              	.L14:
 775:C:/Users/stapi/OneDrive/Desktop/GD32VW553/GD32VW55X_Wifi_BLE_SDK/GD32VW55x_RELEASE_V1.0.2/MSDK/ble/app\app_sec_mgr.c **** }
 243              		.loc 1 775 1
 244 0046 17030000 		tail	__riscv_restore_2
 244      67000300 
 245              		.cfi_restore 9
 246              		.cfi_restore 8
 247              		.cfi_restore 1
 248              		.cfi_def_cfa_offset 0
 249              		.cfi_endproc
 250              	.LFE24:
 252              		.section	.text.app_sec_create_bond,"ax",@progbits
 253              		.align	1
 254              		.globl	app_sec_create_bond
 256              	app_sec_create_bond:
 257              	.LFB25:
 776:C:/Users/stapi/OneDrive/Desktop/GD32VW553/GD32VW55X_Wifi_BLE_SDK/GD32VW55x_RELEASE_V1.0.2/MSDK/ble/app\app_sec_mgr.c **** 
 777:C:/Users/stapi/OneDrive/Desktop/GD32VW553/GD32VW55X_Wifi_BLE_SDK/GD32VW55x_RELEASE_V1.0.2/MSDK/ble/app\app_sec_mgr.c **** /*!
 778:C:/Users/stapi/OneDrive/Desktop/GD32VW553/GD32VW55X_Wifi_BLE_SDK/GD32VW55x_RELEASE_V1.0.2/MSDK/ble/app\app_sec_mgr.c ****     \brief      Initiate pairing procedure
 779:C:/Users/stapi/OneDrive/Desktop/GD32VW553/GD32VW55X_Wifi_BLE_SDK/GD32VW55x_RELEASE_V1.0.2/MSDK/ble/app\app_sec_mgr.c ****     \param[in]  address: peer device address
 780:C:/Users/stapi/OneDrive/Desktop/GD32VW553/GD32VW55X_Wifi_BLE_SDK/GD32VW55x_RELEASE_V1.0.2/MSDK/ble/app\app_sec_mgr.c ****     \param[out] none
 781:C:/Users/stapi/OneDrive/Desktop/GD32VW553/GD32VW55X_Wifi_BLE_SDK/GD32VW55x_RELEASE_V1.0.2/MSDK/ble/app\app_sec_mgr.c ****     \retval     bool: true if pairing is initiated successfully, otherwise false
 782:C:/Users/stapi/OneDrive/Desktop/GD32VW553/GD32VW55X_Wifi_BLE_SDK/GD32VW55x_RELEASE_V1.0.2/MSDK/ble/app\app_sec_mgr.c **** */
 783:C:/Users/stapi/OneDrive/Desktop/GD32VW553/GD32VW55X_Wifi_BLE_SDK/GD32VW55x_RELEASE_V1.0.2/MSDK/ble/app\app_sec_mgr.c **** bool app_sec_create_bond(ble_gap_addr_t address)
 784:C:/Users/stapi/OneDrive/Desktop/GD32VW553/GD32VW55X_Wifi_BLE_SDK/GD32VW55x_RELEASE_V1.0.2/MSDK/ble/app\app_sec_mgr.c **** {
 258              		.loc 1 784 1 is_stmt 1
 259              		.cfi_startproc
 260 0000 17030000 		call	t0,__riscv_save_1
 260      E7020300 
 261              		.cfi_offset 8, -8
 262              		.cfi_offset 1, -4
 263              		.cfi_def_cfa_offset 16
 785:C:/Users/stapi/OneDrive/Desktop/GD32VW553/GD32VW55X_Wifi_BLE_SDK/GD32VW55x_RELEASE_V1.0.2/MSDK/ble/app\app_sec_mgr.c ****     ble_device_t *p_dev = dm_find_alloc_dev_by_addr(address);
 264              		.loc 1 785 5
 784:C:/Users/stapi/OneDrive/Desktop/GD32VW553/GD32VW55X_Wifi_BLE_SDK/GD32VW55x_RELEASE_V1.0.2/MSDK/ble/app\app_sec_mgr.c ****     ble_device_t *p_dev = dm_find_alloc_dev_by_addr(address);
 265              		.loc 1 784 1 is_stmt 0
 266 0008 4111     		addi	sp,sp,-16
 267              		.cfi_def_cfa_offset 32
 784:C:/Users/stapi/OneDrive/Desktop/GD32VW553/GD32VW55X_Wifi_BLE_SDK/GD32VW55x_RELEASE_V1.0.2/MSDK/ble/app\app_sec_mgr.c ****     ble_device_t *p_dev = dm_find_alloc_dev_by_addr(address);
 268              		.loc 1 784 1
 269 000a 2AC4     		sw	a0,8(sp)
 270 000c 2EC6     		sw	a1,12(sp)
 271              		.loc 1 785 27
 272 000e 97000000 		call	dm_find_alloc_dev_by_addr
 272      E7800000 
 273              	.LVL8:
 786:C:/Users/stapi/OneDrive/Desktop/GD32VW553/GD32VW55X_Wifi_BLE_SDK/GD32VW55x_RELEASE_V1.0.2/MSDK/ble/app\app_sec_mgr.c **** 
 787:C:/Users/stapi/OneDrive/Desktop/GD32VW553/GD32VW55X_Wifi_BLE_SDK/GD32VW55x_RELEASE_V1.0.2/MSDK/ble/app\app_sec_mgr.c ****     if (p_dev == NULL) {
 274              		.loc 1 787 5 is_stmt 1
 275              		.loc 1 787 8 is_stmt 0
 276 0016 19E5     		bne	a0,zero,.L24
 277              	.LVL9:
 278              	.L26:
 788:C:/Users/stapi/OneDrive/Desktop/GD32VW553/GD32VW55X_Wifi_BLE_SDK/GD32VW55x_RELEASE_V1.0.2/MSDK/ble/app\app_sec_mgr.c ****         return false;
 279              		.loc 1 788 16
 280 0018 0145     		li	a0,0
 281              	.L25:
 789:C:/Users/stapi/OneDrive/Desktop/GD32VW553/GD32VW55X_Wifi_BLE_SDK/GD32VW55x_RELEASE_V1.0.2/MSDK/ble/app\app_sec_mgr.c ****     }
 790:C:/Users/stapi/OneDrive/Desktop/GD32VW553/GD32VW55X_Wifi_BLE_SDK/GD32VW55x_RELEASE_V1.0.2/MSDK/ble/app\app_sec_mgr.c **** 
 791:C:/Users/stapi/OneDrive/Desktop/GD32VW553/GD32VW55X_Wifi_BLE_SDK/GD32VW55x_RELEASE_V1.0.2/MSDK/ble/app\app_sec_mgr.c ****     if (pairing_cb.state != BLE_BOND_STATE_NONE || p_dev->bonded) {
 792:C:/Users/stapi/OneDrive/Desktop/GD32VW553/GD32VW55X_Wifi_BLE_SDK/GD32VW55x_RELEASE_V1.0.2/MSDK/ble/app\app_sec_mgr.c ****         return false;
 793:C:/Users/stapi/OneDrive/Desktop/GD32VW553/GD32VW55X_Wifi_BLE_SDK/GD32VW55x_RELEASE_V1.0.2/MSDK/ble/app\app_sec_mgr.c ****     }
 794:C:/Users/stapi/OneDrive/Desktop/GD32VW553/GD32VW55X_Wifi_BLE_SDK/GD32VW55x_RELEASE_V1.0.2/MSDK/ble/app\app_sec_mgr.c **** 
 795:C:/Users/stapi/OneDrive/Desktop/GD32VW553/GD32VW55X_Wifi_BLE_SDK/GD32VW55x_RELEASE_V1.0.2/MSDK/ble/app\app_sec_mgr.c ****     if (ble_conn_connect(NULL, BLE_GAP_LOCAL_ADDR_STATIC, &address, false) != BLE_ERR_NO_ERROR) {
 796:C:/Users/stapi/OneDrive/Desktop/GD32VW553/GD32VW55X_Wifi_BLE_SDK/GD32VW55x_RELEASE_V1.0.2/MSDK/ble/app\app_sec_mgr.c ****         return false;
 797:C:/Users/stapi/OneDrive/Desktop/GD32VW553/GD32VW55X_Wifi_BLE_SDK/GD32VW55x_RELEASE_V1.0.2/MSDK/ble/app\app_sec_mgr.c ****     }
 798:C:/Users/stapi/OneDrive/Desktop/GD32VW553/GD32VW55X_Wifi_BLE_SDK/GD32VW55x_RELEASE_V1.0.2/MSDK/ble/app\app_sec_mgr.c **** 
 799:C:/Users/stapi/OneDrive/Desktop/GD32VW553/GD32VW55X_Wifi_BLE_SDK/GD32VW55x_RELEASE_V1.0.2/MSDK/ble/app\app_sec_mgr.c ****     pairing_cb.addr = address;
 800:C:/Users/stapi/OneDrive/Desktop/GD32VW553/GD32VW55X_Wifi_BLE_SDK/GD32VW55x_RELEASE_V1.0.2/MSDK/ble/app\app_sec_mgr.c ****     pairing_cb.is_local_initiated = true;
 801:C:/Users/stapi/OneDrive/Desktop/GD32VW553/GD32VW55X_Wifi_BLE_SDK/GD32VW55x_RELEASE_V1.0.2/MSDK/ble/app\app_sec_mgr.c ****     pairing_cb.state = BLE_BOND_STATE_BONDING;
 802:C:/Users/stapi/OneDrive/Desktop/GD32VW553/GD32VW55X_Wifi_BLE_SDK/GD32VW55x_RELEASE_V1.0.2/MSDK/ble/app\app_sec_mgr.c **** 
 803:C:/Users/stapi/OneDrive/Desktop/GD32VW553/GD32VW55X_Wifi_BLE_SDK/GD32VW55x_RELEASE_V1.0.2/MSDK/ble/app\app_sec_mgr.c ****     return true;
 804:C:/Users/stapi/OneDrive/Desktop/GD32VW553/GD32VW55X_Wifi_BLE_SDK/GD32VW55x_RELEASE_V1.0.2/MSDK/ble/app\app_sec_mgr.c **** }
 282              		.loc 1 804 1
 283 001a 4101     		addi	sp,sp,16
 284              		.cfi_remember_state
 285              		.cfi_def_cfa_offset 0
 286 001c 17030000 		tail	__riscv_restore_1
 286      67000300 
 287              		.cfi_restore 8
 288              		.cfi_restore 1
 289              		.cfi_def_cfa_offset -16
 290              	.LVL10:
 291              	.L24:
 292              		.cfi_restore_state
 791:C:/Users/stapi/OneDrive/Desktop/GD32VW553/GD32VW55X_Wifi_BLE_SDK/GD32VW55x_RELEASE_V1.0.2/MSDK/ble/app\app_sec_mgr.c ****         return false;
 293              		.loc 1 791 5 is_stmt 1
 791:C:/Users/stapi/OneDrive/Desktop/GD32VW553/GD32VW55X_Wifi_BLE_SDK/GD32VW55x_RELEASE_V1.0.2/MSDK/ble/app\app_sec_mgr.c ****         return false;
 294              		.loc 1 791 19 is_stmt 0
 295 0024 37040000 		lui	s0,%hi(.LANCHOR1)
 296 0028 13040400 		addi	s0,s0,%lo(.LANCHOR1)
 791:C:/Users/stapi/OneDrive/Desktop/GD32VW553/GD32VW55X_Wifi_BLE_SDK/GD32VW55x_RELEASE_V1.0.2/MSDK/ble/app\app_sec_mgr.c ****         return false;
 297              		.loc 1 791 8
 298 002c 1C40     		lw	a5,0(s0)
 299 002e EDF7     		bne	a5,zero,.L26
 791:C:/Users/stapi/OneDrive/Desktop/GD32VW553/GD32VW55X_Wifi_BLE_SDK/GD32VW55x_RELEASE_V1.0.2/MSDK/ble/app\app_sec_mgr.c ****         return false;
 300              		.loc 1 791 49 discriminator 1
 301 0030 83472501 		lbu	a5,18(a0)
 302 0034 F5F3     		bne	a5,zero,.L26
 795:C:/Users/stapi/OneDrive/Desktop/GD32VW553/GD32VW55X_Wifi_BLE_SDK/GD32VW55x_RELEASE_V1.0.2/MSDK/ble/app\app_sec_mgr.c ****         return false;
 303              		.loc 1 795 5 is_stmt 1
 795:C:/Users/stapi/OneDrive/Desktop/GD32VW553/GD32VW55X_Wifi_BLE_SDK/GD32VW55x_RELEASE_V1.0.2/MSDK/ble/app\app_sec_mgr.c ****         return false;
 304              		.loc 1 795 9 is_stmt 0
 305 0036 8146     		li	a3,0
 306 0038 3000     		addi	a2,sp,8
 307 003a 8145     		li	a1,0
 308 003c 0145     		li	a0,0
 309              	.LVL11:
 310 003e 97000000 		call	ble_conn_connect
 310      E7800000 
 311              	.LVL12:
 795:C:/Users/stapi/OneDrive/Desktop/GD32VW553/GD32VW55X_Wifi_BLE_SDK/GD32VW55x_RELEASE_V1.0.2/MSDK/ble/app\app_sec_mgr.c ****         return false;
 312              		.loc 1 795 8
 313 0046 69F9     		bne	a0,zero,.L26
 799:C:/Users/stapi/OneDrive/Desktop/GD32VW553/GD32VW55X_Wifi_BLE_SDK/GD32VW55x_RELEASE_V1.0.2/MSDK/ble/app\app_sec_mgr.c ****     pairing_cb.is_local_initiated = true;
 314              		.loc 1 799 5 is_stmt 1
 799:C:/Users/stapi/OneDrive/Desktop/GD32VW553/GD32VW55X_Wifi_BLE_SDK/GD32VW55x_RELEASE_V1.0.2/MSDK/ble/app\app_sec_mgr.c ****     pairing_cb.is_local_initiated = true;
 315              		.loc 1 799 21 is_stmt 0
 316 0048 1D46     		li	a2,7
 317 004a 2C00     		addi	a1,sp,8
 318 004c 13054400 		addi	a0,s0,4
 319 0050 97000000 		call	memcpy
 319      E7800000 
 320              	.LVL13:
 800:C:/Users/stapi/OneDrive/Desktop/GD32VW553/GD32VW55X_Wifi_BLE_SDK/GD32VW55x_RELEASE_V1.0.2/MSDK/ble/app\app_sec_mgr.c ****     pairing_cb.state = BLE_BOND_STATE_BONDING;
 321              		.loc 1 800 5 is_stmt 1
 800:C:/Users/stapi/OneDrive/Desktop/GD32VW553/GD32VW55X_Wifi_BLE_SDK/GD32VW55x_RELEASE_V1.0.2/MSDK/ble/app\app_sec_mgr.c ****     pairing_cb.state = BLE_BOND_STATE_BONDING;
 322              		.loc 1 800 35 is_stmt 0
 323 0058 8547     		li	a5,1
 324 005a A305F400 		sb	a5,11(s0)
 801:C:/Users/stapi/OneDrive/Desktop/GD32VW553/GD32VW55X_Wifi_BLE_SDK/GD32VW55x_RELEASE_V1.0.2/MSDK/ble/app\app_sec_mgr.c **** 
 325              		.loc 1 801 5 is_stmt 1
 801:C:/Users/stapi/OneDrive/Desktop/GD32VW553/GD32VW55X_Wifi_BLE_SDK/GD32VW55x_RELEASE_V1.0.2/MSDK/ble/app\app_sec_mgr.c **** 
 326              		.loc 1 801 22 is_stmt 0
 327 005e 1CC0     		sw	a5,0(s0)
 803:C:/Users/stapi/OneDrive/Desktop/GD32VW553/GD32VW55X_Wifi_BLE_SDK/GD32VW55x_RELEASE_V1.0.2/MSDK/ble/app\app_sec_mgr.c **** }
 328              		.loc 1 803 5 is_stmt 1
 803:C:/Users/stapi/OneDrive/Desktop/GD32VW553/GD32VW55X_Wifi_BLE_SDK/GD32VW55x_RELEASE_V1.0.2/MSDK/ble/app\app_sec_mgr.c **** }
 329              		.loc 1 803 12 is_stmt 0
 330 0060 0545     		li	a0,1
 331 0062 65BF     		j	.L25
 332              		.cfi_endproc
 333              	.LFE25:
 335              		.section	.rodata.app_sec_remove_bond.str1.4,"aMS",@progbits,1
 336              		.align	2
 337              	.LC0:
 338 0000 64657669 		.string	"device connect but no bond!\r\n"
 338      63652063 
 338      6F6E6E65 
 338      63742062 
 338      7574206E 
 339              		.section	.text.app_sec_remove_bond,"ax",@progbits
 340              		.align	1
 341              		.globl	app_sec_remove_bond
 343              	app_sec_remove_bond:
 344              	.LFB26:
 805:C:/Users/stapi/OneDrive/Desktop/GD32VW553/GD32VW55X_Wifi_BLE_SDK/GD32VW55x_RELEASE_V1.0.2/MSDK/ble/app\app_sec_mgr.c **** 
 806:C:/Users/stapi/OneDrive/Desktop/GD32VW553/GD32VW55X_Wifi_BLE_SDK/GD32VW55x_RELEASE_V1.0.2/MSDK/ble/app\app_sec_mgr.c **** /*!
 807:C:/Users/stapi/OneDrive/Desktop/GD32VW553/GD32VW55X_Wifi_BLE_SDK/GD32VW55x_RELEASE_V1.0.2/MSDK/ble/app\app_sec_mgr.c ****     \brief      Remove bond information
 808:C:/Users/stapi/OneDrive/Desktop/GD32VW553/GD32VW55X_Wifi_BLE_SDK/GD32VW55x_RELEASE_V1.0.2/MSDK/ble/app\app_sec_mgr.c ****     \param[in]  address: peer device address
 809:C:/Users/stapi/OneDrive/Desktop/GD32VW553/GD32VW55X_Wifi_BLE_SDK/GD32VW55x_RELEASE_V1.0.2/MSDK/ble/app\app_sec_mgr.c ****     \param[out] none
 810:C:/Users/stapi/OneDrive/Desktop/GD32VW553/GD32VW55X_Wifi_BLE_SDK/GD32VW55x_RELEASE_V1.0.2/MSDK/ble/app\app_sec_mgr.c ****     \retval     bool: true if bond information can be removed, otherwise false
 811:C:/Users/stapi/OneDrive/Desktop/GD32VW553/GD32VW55X_Wifi_BLE_SDK/GD32VW55x_RELEASE_V1.0.2/MSDK/ble/app\app_sec_mgr.c **** */
 812:C:/Users/stapi/OneDrive/Desktop/GD32VW553/GD32VW55X_Wifi_BLE_SDK/GD32VW55x_RELEASE_V1.0.2/MSDK/ble/app\app_sec_mgr.c **** bool app_sec_remove_bond(ble_gap_addr_t address)
 813:C:/Users/stapi/OneDrive/Desktop/GD32VW553/GD32VW55X_Wifi_BLE_SDK/GD32VW55x_RELEASE_V1.0.2/MSDK/ble/app\app_sec_mgr.c **** {
 345              		.loc 1 813 1 is_stmt 1
 346              		.cfi_startproc
 347 0000 17030000 		call	t0,__riscv_save_2
 347      E7020300 
 348              		.cfi_offset 9, -12
 349              		.cfi_offset 8, -8
 350              		.cfi_offset 1, -4
 351              		.cfi_def_cfa_offset 16
 814:C:/Users/stapi/OneDrive/Desktop/GD32VW553/GD32VW55X_Wifi_BLE_SDK/GD32VW55x_RELEASE_V1.0.2/MSDK/ble/app\app_sec_mgr.c ****     ble_device_t *p_dev = dm_find_alloc_dev_by_addr(address);
 352              		.loc 1 814 5
 813:C:/Users/stapi/OneDrive/Desktop/GD32VW553/GD32VW55X_Wifi_BLE_SDK/GD32VW55x_RELEASE_V1.0.2/MSDK/ble/app\app_sec_mgr.c ****     ble_device_t *p_dev = dm_find_alloc_dev_by_addr(address);
 353              		.loc 1 813 1 is_stmt 0
 354 0008 4111     		addi	sp,sp,-16
 355              		.cfi_def_cfa_offset 32
 813:C:/Users/stapi/OneDrive/Desktop/GD32VW553/GD32VW55X_Wifi_BLE_SDK/GD32VW55x_RELEASE_V1.0.2/MSDK/ble/app\app_sec_mgr.c ****     ble_device_t *p_dev = dm_find_alloc_dev_by_addr(address);
 356              		.loc 1 813 1
 357 000a 2AC4     		sw	a0,8(sp)
 358 000c 2EC6     		sw	a1,12(sp)
 359              		.loc 1 814 27
 360 000e 97000000 		call	dm_find_alloc_dev_by_addr
 360      E7800000 
 361              	.LVL14:
 815:C:/Users/stapi/OneDrive/Desktop/GD32VW553/GD32VW55X_Wifi_BLE_SDK/GD32VW55x_RELEASE_V1.0.2/MSDK/ble/app\app_sec_mgr.c **** 
 816:C:/Users/stapi/OneDrive/Desktop/GD32VW553/GD32VW55X_Wifi_BLE_SDK/GD32VW55x_RELEASE_V1.0.2/MSDK/ble/app\app_sec_mgr.c ****     if (p_dev == NULL) {
 362              		.loc 1 816 5 is_stmt 1
 817:C:/Users/stapi/OneDrive/Desktop/GD32VW553/GD32VW55X_Wifi_BLE_SDK/GD32VW55x_RELEASE_V1.0.2/MSDK/ble/app\app_sec_mgr.c ****         return false;
 363              		.loc 1 817 16 is_stmt 0
 364 0016 8144     		li	s1,0
 816:C:/Users/stapi/OneDrive/Desktop/GD32VW553/GD32VW55X_Wifi_BLE_SDK/GD32VW55x_RELEASE_V1.0.2/MSDK/ble/app\app_sec_mgr.c ****         return false;
 365              		.loc 1 816 8
 366 0018 15C1     		beq	a0,zero,.L29
 818:C:/Users/stapi/OneDrive/Desktop/GD32VW553/GD32VW55X_Wifi_BLE_SDK/GD32VW55x_RELEASE_V1.0.2/MSDK/ble/app\app_sec_mgr.c ****     }
 819:C:/Users/stapi/OneDrive/Desktop/GD32VW553/GD32VW55X_Wifi_BLE_SDK/GD32VW55x_RELEASE_V1.0.2/MSDK/ble/app\app_sec_mgr.c **** 
 820:C:/Users/stapi/OneDrive/Desktop/GD32VW553/GD32VW55X_Wifi_BLE_SDK/GD32VW55x_RELEASE_V1.0.2/MSDK/ble/app\app_sec_mgr.c ****     if (p_dev->bonded) {
 367              		.loc 1 820 14
 368 001a 83442501 		lbu	s1,18(a0)
 369 001e 2A84     		mv	s0,a0
 370              		.loc 1 820 5 is_stmt 1
 371              		.loc 1 820 8 is_stmt 0
 372 0020 A9C0     		beq	s1,zero,.L30
 821:C:/Users/stapi/OneDrive/Desktop/GD32VW553/GD32VW55X_Wifi_BLE_SDK/GD32VW55x_RELEASE_V1.0.2/MSDK/ble/app\app_sec_mgr.c ****         if (p_dev->state == BLE_CONN_STATE_CONNECTED) {
 373              		.loc 1 821 9 is_stmt 1
 374              		.loc 1 821 12 is_stmt 0
 375 0022 1C4D     		lw	a5,24(a0)
 376 0024 0547     		li	a4,1
 377 0026 6391E702 		bne	a5,a4,.L31
 822:C:/Users/stapi/OneDrive/Desktop/GD32VW553/GD32VW55X_Wifi_BLE_SDK/GD32VW55x_RELEASE_V1.0.2/MSDK/ble/app\app_sec_mgr.c ****             p_dev->pending_remove = true;
 378              		.loc 1 822 13 is_stmt 1
 379              		.loc 1 822 35 is_stmt 0
 380 002a 230AF500 		sb	a5,20(a0)
 823:C:/Users/stapi/OneDrive/Desktop/GD32VW553/GD32VW55X_Wifi_BLE_SDK/GD32VW55x_RELEASE_V1.0.2/MSDK/ble/app\app_sec_mgr.c ****             ble_conn_disconnect(p_dev->conn_idx, BLE_ERROR_HL_TO_HCI(BLE_LL_ERR_REMOTE_USER_TERM_CO
 381              		.loc 1 823 13 is_stmt 1
 382 002e 0345F500 		lbu	a0,15(a0)
 383              	.LVL15:
 384 0032 CD45     		li	a1,19
 385 0034 97000000 		call	ble_conn_disconnect
 385      E7800000 
 386              	.LVL16:
 387              	.L29:
 824:C:/Users/stapi/OneDrive/Desktop/GD32VW553/GD32VW55X_Wifi_BLE_SDK/GD32VW55x_RELEASE_V1.0.2/MSDK/ble/app\app_sec_mgr.c ****         } else {
 825:C:/Users/stapi/OneDrive/Desktop/GD32VW553/GD32VW55X_Wifi_BLE_SDK/GD32VW55x_RELEASE_V1.0.2/MSDK/ble/app\app_sec_mgr.c ****             dm_remove_dev_by_addr(p_dev->cur_addr);
 826:C:/Users/stapi/OneDrive/Desktop/GD32VW553/GD32VW55X_Wifi_BLE_SDK/GD32VW55x_RELEASE_V1.0.2/MSDK/ble/app\app_sec_mgr.c ****             ble_peer_data_delete(&p_dev->cur_addr);
 827:C:/Users/stapi/OneDrive/Desktop/GD32VW553/GD32VW55X_Wifi_BLE_SDK/GD32VW55x_RELEASE_V1.0.2/MSDK/ble/app\app_sec_mgr.c ****         }
 828:C:/Users/stapi/OneDrive/Desktop/GD32VW553/GD32VW55X_Wifi_BLE_SDK/GD32VW55x_RELEASE_V1.0.2/MSDK/ble/app\app_sec_mgr.c ****     } else {
 829:C:/Users/stapi/OneDrive/Desktop/GD32VW553/GD32VW55X_Wifi_BLE_SDK/GD32VW55x_RELEASE_V1.0.2/MSDK/ble/app\app_sec_mgr.c ****         dbg_print(NOTICE, "device connect but no bond!\r\n");
 830:C:/Users/stapi/OneDrive/Desktop/GD32VW553/GD32VW55X_Wifi_BLE_SDK/GD32VW55x_RELEASE_V1.0.2/MSDK/ble/app\app_sec_mgr.c ****         return false;
 831:C:/Users/stapi/OneDrive/Desktop/GD32VW553/GD32VW55X_Wifi_BLE_SDK/GD32VW55x_RELEASE_V1.0.2/MSDK/ble/app\app_sec_mgr.c ****     }
 832:C:/Users/stapi/OneDrive/Desktop/GD32VW553/GD32VW55X_Wifi_BLE_SDK/GD32VW55x_RELEASE_V1.0.2/MSDK/ble/app\app_sec_mgr.c **** 
 833:C:/Users/stapi/OneDrive/Desktop/GD32VW553/GD32VW55X_Wifi_BLE_SDK/GD32VW55x_RELEASE_V1.0.2/MSDK/ble/app\app_sec_mgr.c ****     return true;
 834:C:/Users/stapi/OneDrive/Desktop/GD32VW553/GD32VW55X_Wifi_BLE_SDK/GD32VW55x_RELEASE_V1.0.2/MSDK/ble/app\app_sec_mgr.c **** }
 388              		.loc 1 834 1 is_stmt 0
 389 003c 2685     		mv	a0,s1
 390 003e 4101     		addi	sp,sp,16
 391              		.cfi_remember_state
 392              		.cfi_def_cfa_offset 0
 393 0040 17030000 		tail	__riscv_restore_2
 393      67000300 
 394              		.cfi_restore 9
 395              		.cfi_restore 8
 396              		.cfi_restore 1
 397              		.cfi_def_cfa_offset -16
 398              	.LVL17:
 399              	.L31:
 400              		.cfi_restore_state
 825:C:/Users/stapi/OneDrive/Desktop/GD32VW553/GD32VW55X_Wifi_BLE_SDK/GD32VW55x_RELEASE_V1.0.2/MSDK/ble/app\app_sec_mgr.c ****             ble_peer_data_delete(&p_dev->cur_addr);
 401              		.loc 1 825 13 is_stmt 1
 402 0048 0845     		lw	a0,8(a0)
 403 004a 4C44     		lw	a1,12(s0)
 404 004c 97000000 		call	dm_remove_dev_by_addr
 404      E7800000 
 405              	.LVL18:
 826:C:/Users/stapi/OneDrive/Desktop/GD32VW553/GD32VW55X_Wifi_BLE_SDK/GD32VW55x_RELEASE_V1.0.2/MSDK/ble/app\app_sec_mgr.c ****         }
 406              		.loc 1 826 13
 407 0054 13058400 		addi	a0,s0,8
 408 0058 97000000 		call	ble_peer_data_delete
 408      E7800000 
 409              	.LVL19:
 410 0060 F1BF     		j	.L29
 411              	.L30:
 829:C:/Users/stapi/OneDrive/Desktop/GD32VW553/GD32VW55X_Wifi_BLE_SDK/GD32VW55x_RELEASE_V1.0.2/MSDK/ble/app\app_sec_mgr.c ****         return false;
 412              		.loc 1 829 9
 829:C:/Users/stapi/OneDrive/Desktop/GD32VW553/GD32VW55X_Wifi_BLE_SDK/GD32VW55x_RELEASE_V1.0.2/MSDK/ble/app\app_sec_mgr.c ****         return false;
 413              		.loc 1 829 9
 414 0062 B7070000 		lui	a5,%hi(global_debug_level)
 415 0066 03C70700 		lbu	a4,%lo(global_debug_level)(a5)
 416 006a 8947     		li	a5,2
 417 006c E3F8E7FC 		bleu	a4,a5,.L29
 829:C:/Users/stapi/OneDrive/Desktop/GD32VW553/GD32VW55X_Wifi_BLE_SDK/GD32VW55x_RELEASE_V1.0.2/MSDK/ble/app\app_sec_mgr.c ****         return false;
 418              		.loc 1 829 9 discriminator 1
 419 0070 37050000 		lui	a0,%hi(.LC0)
 420 0074 13050500 		addi	a0,a0,%lo(.LC0)
 421 0078 97000000 		call	co_printf
 421      E7800000 
 422              	.LVL20:
 423 0080 75BF     		j	.L29
 424              		.cfi_endproc
 425              	.LFE26:
 427              		.section	.rodata.app_sec_send_security_req.str1.4,"aMS",@progbits,1
 428              		.align	2
 429              	.LC1:
 430 0000 6170705F 		.string	"app_sec_send_security_req fail! \r\n"
 430      7365635F 
 430      73656E64 
 430      5F736563 
 430      75726974 
 431              		.section	.text.app_sec_send_security_req,"ax",@progbits
 432              		.align	1
 433              		.globl	app_sec_send_security_req
 435              	app_sec_send_security_req:
 436              	.LFB27:
 835:C:/Users/stapi/OneDrive/Desktop/GD32VW553/GD32VW55X_Wifi_BLE_SDK/GD32VW55x_RELEASE_V1.0.2/MSDK/ble/app\app_sec_mgr.c **** 
 836:C:/Users/stapi/OneDrive/Desktop/GD32VW553/GD32VW55X_Wifi_BLE_SDK/GD32VW55x_RELEASE_V1.0.2/MSDK/ble/app\app_sec_mgr.c **** /*!
 837:C:/Users/stapi/OneDrive/Desktop/GD32VW553/GD32VW55X_Wifi_BLE_SDK/GD32VW55x_RELEASE_V1.0.2/MSDK/ble/app\app_sec_mgr.c ****     \brief      Send security request
 838:C:/Users/stapi/OneDrive/Desktop/GD32VW553/GD32VW55X_Wifi_BLE_SDK/GD32VW55x_RELEASE_V1.0.2/MSDK/ble/app\app_sec_mgr.c ****     \param[in]  conidx: connection index
 839:C:/Users/stapi/OneDrive/Desktop/GD32VW553/GD32VW55X_Wifi_BLE_SDK/GD32VW55x_RELEASE_V1.0.2/MSDK/ble/app\app_sec_mgr.c ****     \param[out] none
 840:C:/Users/stapi/OneDrive/Desktop/GD32VW553/GD32VW55X_Wifi_BLE_SDK/GD32VW55x_RELEASE_V1.0.2/MSDK/ble/app\app_sec_mgr.c ****     \retval     none
 841:C:/Users/stapi/OneDrive/Desktop/GD32VW553/GD32VW55X_Wifi_BLE_SDK/GD32VW55x_RELEASE_V1.0.2/MSDK/ble/app\app_sec_mgr.c **** */
 842:C:/Users/stapi/OneDrive/Desktop/GD32VW553/GD32VW55X_Wifi_BLE_SDK/GD32VW55x_RELEASE_V1.0.2/MSDK/ble/app\app_sec_mgr.c **** void app_sec_send_security_req(uint8_t conidx)
 843:C:/Users/stapi/OneDrive/Desktop/GD32VW553/GD32VW55X_Wifi_BLE_SDK/GD32VW55x_RELEASE_V1.0.2/MSDK/ble/app\app_sec_mgr.c **** {
 437              		.loc 1 843 1
 438              		.cfi_startproc
 439              	.LVL21:
 440 0000 17030000 		call	t0,__riscv_save_0
 440      E7020300 
 441              		.cfi_offset 1, -4
 442              		.cfi_def_cfa_offset 16
 844:C:/Users/stapi/OneDrive/Desktop/GD32VW553/GD32VW55X_Wifi_BLE_SDK/GD32VW55x_RELEASE_V1.0.2/MSDK/ble/app\app_sec_mgr.c ****     uint8_t auth = BLE_GAP_AUTH_REQ_NO_MITM_NO_BOND;
 443              		.loc 1 844 5
 444              	.LVL22:
 845:C:/Users/stapi/OneDrive/Desktop/GD32VW553/GD32VW55X_Wifi_BLE_SDK/GD32VW55x_RELEASE_V1.0.2/MSDK/ble/app\app_sec_mgr.c **** 
 846:C:/Users/stapi/OneDrive/Desktop/GD32VW553/GD32VW55X_Wifi_BLE_SDK/GD32VW55x_RELEASE_V1.0.2/MSDK/ble/app\app_sec_mgr.c ****     if (app_sec_env.authen_bond) {
 445              		.loc 1 846 5
 446              		.loc 1 846 20 is_stmt 0
 447 0008 B7070000 		lui	a5,%hi(.LANCHOR0)
 448 000c 13870700 		addi	a4,a5,%lo(.LANCHOR0)
 844:C:/Users/stapi/OneDrive/Desktop/GD32VW553/GD32VW55X_Wifi_BLE_SDK/GD32VW55x_RELEASE_V1.0.2/MSDK/ble/app\app_sec_mgr.c ****     uint8_t auth = BLE_GAP_AUTH_REQ_NO_MITM_NO_BOND;
 449              		.loc 1 844 13
 450 0010 83450700 		lbu	a1,0(a4)
 451              	.LVL23:
 847:C:/Users/stapi/OneDrive/Desktop/GD32VW553/GD32VW55X_Wifi_BLE_SDK/GD32VW55x_RELEASE_V1.0.2/MSDK/ble/app\app_sec_mgr.c ****         auth |= BLE_GAP_AUTH_MASK_BOND;
 848:C:/Users/stapi/OneDrive/Desktop/GD32VW553/GD32VW55X_Wifi_BLE_SDK/GD32VW55x_RELEASE_V1.0.2/MSDK/ble/app\app_sec_mgr.c ****     }
 849:C:/Users/stapi/OneDrive/Desktop/GD32VW553/GD32VW55X_Wifi_BLE_SDK/GD32VW55x_RELEASE_V1.0.2/MSDK/ble/app\app_sec_mgr.c **** 
 850:C:/Users/stapi/OneDrive/Desktop/GD32VW553/GD32VW55X_Wifi_BLE_SDK/GD32VW55x_RELEASE_V1.0.2/MSDK/ble/app\app_sec_mgr.c ****     if (app_sec_env.authen_mitm) {
 452              		.loc 1 850 5 is_stmt 1
 453              		.loc 1 850 8 is_stmt 0
 454 0014 03471700 		lbu	a4,1(a4)
 455 0018 93870700 		addi	a5,a5,%lo(.LANCHOR0)
 456 001c 19C3     		beq	a4,zero,.L35
 851:C:/Users/stapi/OneDrive/Desktop/GD32VW553/GD32VW55X_Wifi_BLE_SDK/GD32VW55x_RELEASE_V1.0.2/MSDK/ble/app\app_sec_mgr.c ****         auth |= BLE_GAP_AUTH_MASK_MITM;
 457              		.loc 1 851 9 is_stmt 1
 458              		.loc 1 851 14 is_stmt 0
 459 001e 93E54500 		ori	a1,a1,4
 460              	.LVL24:
 461              	.L35:
 852:C:/Users/stapi/OneDrive/Desktop/GD32VW553/GD32VW55X_Wifi_BLE_SDK/GD32VW55x_RELEASE_V1.0.2/MSDK/ble/app\app_sec_mgr.c ****     }
 853:C:/Users/stapi/OneDrive/Desktop/GD32VW553/GD32VW55X_Wifi_BLE_SDK/GD32VW55x_RELEASE_V1.0.2/MSDK/ble/app\app_sec_mgr.c **** 
 854:C:/Users/stapi/OneDrive/Desktop/GD32VW553/GD32VW55X_Wifi_BLE_SDK/GD32VW55x_RELEASE_V1.0.2/MSDK/ble/app\app_sec_mgr.c ****     if (app_sec_env.authen_sc) {
 462              		.loc 1 854 5 is_stmt 1
 463              		.loc 1 854 8 is_stmt 0
 464 0022 83C72700 		lbu	a5,2(a5)
 465 0026 99C3     		beq	a5,zero,.L36
 855:C:/Users/stapi/OneDrive/Desktop/GD32VW553/GD32VW55X_Wifi_BLE_SDK/GD32VW55x_RELEASE_V1.0.2/MSDK/ble/app\app_sec_mgr.c ****         auth |= BLE_GAP_AUTH_MASK_SEC_CON;
 466              		.loc 1 855 9 is_stmt 1
 467              		.loc 1 855 14 is_stmt 0
 468 0028 93E58500 		ori	a1,a1,8
 469              	.LVL25:
 470              	.L36:
 856:C:/Users/stapi/OneDrive/Desktop/GD32VW553/GD32VW55X_Wifi_BLE_SDK/GD32VW55x_RELEASE_V1.0.2/MSDK/ble/app\app_sec_mgr.c ****     }
 857:C:/Users/stapi/OneDrive/Desktop/GD32VW553/GD32VW55X_Wifi_BLE_SDK/GD32VW55x_RELEASE_V1.0.2/MSDK/ble/app\app_sec_mgr.c **** 
 858:C:/Users/stapi/OneDrive/Desktop/GD32VW553/GD32VW55X_Wifi_BLE_SDK/GD32VW55x_RELEASE_V1.0.2/MSDK/ble/app\app_sec_mgr.c ****     if (ble_sec_security_req(conidx, auth) != BLE_ERR_NO_ERROR) {
 471              		.loc 1 858 5 is_stmt 1
 472              		.loc 1 858 9 is_stmt 0
 473 002c 97000000 		call	ble_sec_security_req
 473      E7800000 
 474              	.LVL26:
 475              		.loc 1 858 8
 476 0034 05C1     		beq	a0,zero,.L34
 859:C:/Users/stapi/OneDrive/Desktop/GD32VW553/GD32VW55X_Wifi_BLE_SDK/GD32VW55x_RELEASE_V1.0.2/MSDK/ble/app\app_sec_mgr.c ****         dbg_print(NOTICE, "app_sec_send_security_req fail! \r\n");
 477              		.loc 1 859 9 is_stmt 1
 478              		.loc 1 859 9
 479 0036 B7070000 		lui	a5,%hi(global_debug_level)
 480 003a 03C70700 		lbu	a4,%lo(global_debug_level)(a5)
 481 003e 8947     		li	a5,2
 482 0040 63FAE700 		bleu	a4,a5,.L34
 483              		.loc 1 859 9 discriminator 1
 484 0044 37050000 		lui	a0,%hi(.LC1)
 485 0048 13050500 		addi	a0,a0,%lo(.LC1)
 486 004c 97000000 		call	co_printf
 486      E7800000 
 487              	.LVL27:
 488              		.loc 1 859 9 discriminator 1
 489              	.L34:
 860:C:/Users/stapi/OneDrive/Desktop/GD32VW553/GD32VW55X_Wifi_BLE_SDK/GD32VW55x_RELEASE_V1.0.2/MSDK/ble/app\app_sec_mgr.c ****     }
 861:C:/Users/stapi/OneDrive/Desktop/GD32VW553/GD32VW55X_Wifi_BLE_SDK/GD32VW55x_RELEASE_V1.0.2/MSDK/ble/app\app_sec_mgr.c **** }
 490              		.loc 1 861 1 is_stmt 0
 491 0054 17030000 		tail	__riscv_restore_0
 491      67000300 
 492              		.cfi_restore 1
 493              		.cfi_def_cfa_offset 0
 494              		.cfi_endproc
 495              	.LFE27:
 497              		.section	.rodata.app_sec_send_bond_req.str1.4,"aMS",@progbits,1
 498              		.align	2
 499              	.LC2:
 500 0000 6170705F 		.string	"app_sec_send_bond_req fail! \r\n"
 500      7365635F 
 500      73656E64 
 500      5F626F6E 
 500      645F7265 
 501              		.section	.text.app_sec_send_bond_req,"ax",@progbits
 502              		.align	1
 503              		.globl	app_sec_send_bond_req
 505              	app_sec_send_bond_req:
 506              	.LFB28:
 862:C:/Users/stapi/OneDrive/Desktop/GD32VW553/GD32VW55X_Wifi_BLE_SDK/GD32VW55x_RELEASE_V1.0.2/MSDK/ble/app\app_sec_mgr.c **** 
 863:C:/Users/stapi/OneDrive/Desktop/GD32VW553/GD32VW55X_Wifi_BLE_SDK/GD32VW55x_RELEASE_V1.0.2/MSDK/ble/app\app_sec_mgr.c **** /*!
 864:C:/Users/stapi/OneDrive/Desktop/GD32VW553/GD32VW55X_Wifi_BLE_SDK/GD32VW55x_RELEASE_V1.0.2/MSDK/ble/app\app_sec_mgr.c ****     \brief      Send pairing request
 865:C:/Users/stapi/OneDrive/Desktop/GD32VW553/GD32VW55X_Wifi_BLE_SDK/GD32VW55x_RELEASE_V1.0.2/MSDK/ble/app\app_sec_mgr.c ****     \param[in]  conidx: connection index
 866:C:/Users/stapi/OneDrive/Desktop/GD32VW553/GD32VW55X_Wifi_BLE_SDK/GD32VW55x_RELEASE_V1.0.2/MSDK/ble/app\app_sec_mgr.c ****     \param[out] none
 867:C:/Users/stapi/OneDrive/Desktop/GD32VW553/GD32VW55X_Wifi_BLE_SDK/GD32VW55x_RELEASE_V1.0.2/MSDK/ble/app\app_sec_mgr.c ****     \retval     none
 868:C:/Users/stapi/OneDrive/Desktop/GD32VW553/GD32VW55X_Wifi_BLE_SDK/GD32VW55x_RELEASE_V1.0.2/MSDK/ble/app\app_sec_mgr.c **** */
 869:C:/Users/stapi/OneDrive/Desktop/GD32VW553/GD32VW55X_Wifi_BLE_SDK/GD32VW55x_RELEASE_V1.0.2/MSDK/ble/app\app_sec_mgr.c **** void app_sec_send_bond_req(uint8_t conidx)
 870:C:/Users/stapi/OneDrive/Desktop/GD32VW553/GD32VW55X_Wifi_BLE_SDK/GD32VW55x_RELEASE_V1.0.2/MSDK/ble/app\app_sec_mgr.c **** {
 507              		.loc 1 870 1 is_stmt 1
 508              		.cfi_startproc
 509              	.LVL28:
 510 0000 17030000 		call	t0,__riscv_save_0
 510      E7020300 
 511              		.cfi_offset 1, -4
 512              		.cfi_def_cfa_offset 16
 871:C:/Users/stapi/OneDrive/Desktop/GD32VW553/GD32VW55X_Wifi_BLE_SDK/GD32VW55x_RELEASE_V1.0.2/MSDK/ble/app\app_sec_mgr.c ****     ble_gap_pairing_param_t param;
 513              		.loc 1 871 5
 872:C:/Users/stapi/OneDrive/Desktop/GD32VW553/GD32VW55X_Wifi_BLE_SDK/GD32VW55x_RELEASE_V1.0.2/MSDK/ble/app\app_sec_mgr.c ****     uint8_t sec_req_level = BLE_GAP_NO_SEC;
 514              		.loc 1 872 5
 515              	.LVL29:
 873:C:/Users/stapi/OneDrive/Desktop/GD32VW553/GD32VW55X_Wifi_BLE_SDK/GD32VW55x_RELEASE_V1.0.2/MSDK/ble/app\app_sec_mgr.c **** 
 874:C:/Users/stapi/OneDrive/Desktop/GD32VW553/GD32VW55X_Wifi_BLE_SDK/GD32VW55x_RELEASE_V1.0.2/MSDK/ble/app\app_sec_mgr.c ****     param.auth = BLE_GAP_AUTH_REQ_NO_MITM_NO_BOND;
 516              		.loc 1 874 5
 875:C:/Users/stapi/OneDrive/Desktop/GD32VW553/GD32VW55X_Wifi_BLE_SDK/GD32VW55x_RELEASE_V1.0.2/MSDK/ble/app\app_sec_mgr.c **** 
 876:C:/Users/stapi/OneDrive/Desktop/GD32VW553/GD32VW55X_Wifi_BLE_SDK/GD32VW55x_RELEASE_V1.0.2/MSDK/ble/app\app_sec_mgr.c ****     if (app_sec_env.authen_bond) {
 517              		.loc 1 876 20 is_stmt 0
 518 0008 B7070000 		lui	a5,%hi(.LANCHOR0)
 519              		.loc 1 876 8
 520 000c 03C70700 		lbu	a4,%lo(.LANCHOR0)(a5)
 870:C:/Users/stapi/OneDrive/Desktop/GD32VW553/GD32VW55X_Wifi_BLE_SDK/GD32VW55x_RELEASE_V1.0.2/MSDK/ble/app\app_sec_mgr.c ****     ble_gap_pairing_param_t param;
 521              		.loc 1 870 1
 522 0010 4111     		addi	sp,sp,-16
 523              		.cfi_def_cfa_offset 32
 874:C:/Users/stapi/OneDrive/Desktop/GD32VW553/GD32VW55X_Wifi_BLE_SDK/GD32VW55x_RELEASE_V1.0.2/MSDK/ble/app\app_sec_mgr.c **** 
 524              		.loc 1 874 16
 525 0012 23050100 		sb	zero,10(sp)
 526              		.loc 1 876 5 is_stmt 1
 527 0016 93870700 		addi	a5,a5,%lo(.LANCHOR0)
 528              		.loc 1 876 8 is_stmt 0
 529 001a 01C7     		beq	a4,zero,.L49
 877:C:/Users/stapi/OneDrive/Desktop/GD32VW553/GD32VW55X_Wifi_BLE_SDK/GD32VW55x_RELEASE_V1.0.2/MSDK/ble/app\app_sec_mgr.c ****         param.auth |= BLE_GAP_AUTH_MASK_BOND;
 530              		.loc 1 877 9 is_stmt 1
 531              		.loc 1 877 20 is_stmt 0
 532 001c 0547     		li	a4,1
 533 001e 2305E100 		sb	a4,10(sp)
 534              	.L49:
 878:C:/Users/stapi/OneDrive/Desktop/GD32VW553/GD32VW55X_Wifi_BLE_SDK/GD32VW55x_RELEASE_V1.0.2/MSDK/ble/app\app_sec_mgr.c ****     }
 879:C:/Users/stapi/OneDrive/Desktop/GD32VW553/GD32VW55X_Wifi_BLE_SDK/GD32VW55x_RELEASE_V1.0.2/MSDK/ble/app\app_sec_mgr.c **** 
 880:C:/Users/stapi/OneDrive/Desktop/GD32VW553/GD32VW55X_Wifi_BLE_SDK/GD32VW55x_RELEASE_V1.0.2/MSDK/ble/app\app_sec_mgr.c ****     if (app_sec_env.authen_mitm) {
 535              		.loc 1 880 5 is_stmt 1
 536              		.loc 1 880 8 is_stmt 0
 537 0022 03C71700 		lbu	a4,1(a5)
 538 0026 19C7     		beq	a4,zero,.L50
 881:C:/Users/stapi/OneDrive/Desktop/GD32VW553/GD32VW55X_Wifi_BLE_SDK/GD32VW55x_RELEASE_V1.0.2/MSDK/ble/app\app_sec_mgr.c ****         param.auth |= BLE_GAP_AUTH_MASK_MITM;
 539              		.loc 1 881 9 is_stmt 1
 540              		.loc 1 881 20 is_stmt 0
 541 0028 0347A100 		lbu	a4,10(sp)
 542 002c 13674700 		ori	a4,a4,4
 543 0030 2305E100 		sb	a4,10(sp)
 544              	.L50:
 882:C:/Users/stapi/OneDrive/Desktop/GD32VW553/GD32VW55X_Wifi_BLE_SDK/GD32VW55x_RELEASE_V1.0.2/MSDK/ble/app\app_sec_mgr.c ****     }
 883:C:/Users/stapi/OneDrive/Desktop/GD32VW553/GD32VW55X_Wifi_BLE_SDK/GD32VW55x_RELEASE_V1.0.2/MSDK/ble/app\app_sec_mgr.c **** 
 884:C:/Users/stapi/OneDrive/Desktop/GD32VW553/GD32VW55X_Wifi_BLE_SDK/GD32VW55x_RELEASE_V1.0.2/MSDK/ble/app\app_sec_mgr.c ****     if (app_sec_env.authen_sc) {
 545              		.loc 1 884 5 is_stmt 1
 546              		.loc 1 884 20 is_stmt 0
 547 0034 83C62700 		lbu	a3,2(a5)
 548              		.loc 1 884 8
 549 0038 99C6     		beq	a3,zero,.L51
 885:C:/Users/stapi/OneDrive/Desktop/GD32VW553/GD32VW55X_Wifi_BLE_SDK/GD32VW55x_RELEASE_V1.0.2/MSDK/ble/app\app_sec_mgr.c ****         param.auth |= BLE_GAP_AUTH_MASK_SEC_CON;
 550              		.loc 1 885 9 is_stmt 1
 551              		.loc 1 885 20 is_stmt 0
 552 003a 0347A100 		lbu	a4,10(sp)
 553 003e 13678700 		ori	a4,a4,8
 554 0042 2305E100 		sb	a4,10(sp)
 555              	.L51:
 886:C:/Users/stapi/OneDrive/Desktop/GD32VW553/GD32VW55X_Wifi_BLE_SDK/GD32VW55x_RELEASE_V1.0.2/MSDK/ble/app\app_sec_mgr.c ****     }
 887:C:/Users/stapi/OneDrive/Desktop/GD32VW553/GD32VW55X_Wifi_BLE_SDK/GD32VW55x_RELEASE_V1.0.2/MSDK/ble/app\app_sec_mgr.c **** 
 888:C:/Users/stapi/OneDrive/Desktop/GD32VW553/GD32VW55X_Wifi_BLE_SDK/GD32VW55x_RELEASE_V1.0.2/MSDK/ble/app\app_sec_mgr.c ****     param.iocap     = app_sec_env.io_capability;
 556              		.loc 1 888 5 is_stmt 1
 557              		.loc 1 888 21 is_stmt 0
 558 0046 03C74700 		lbu	a4,4(a5)
 559 004a 2304E100 		sb	a4,8(sp)
 889:C:/Users/stapi/OneDrive/Desktop/GD32VW553/GD32VW55X_Wifi_BLE_SDK/GD32VW55x_RELEASE_V1.0.2/MSDK/ble/app\app_sec_mgr.c ****     param.key_size  = app_sec_env.key_size;
 560              		.loc 1 889 5 is_stmt 1
 561              		.loc 1 889 21 is_stmt 0
 562 004e 03C75700 		lbu	a4,5(a5)
 563 0052 A305E100 		sb	a4,11(sp)
 890:C:/Users/stapi/OneDrive/Desktop/GD32VW553/GD32VW55X_Wifi_BLE_SDK/GD32VW55x_RELEASE_V1.0.2/MSDK/ble/app\app_sec_mgr.c ****     param.oob       = app_sec_env.oob;
 564              		.loc 1 890 5 is_stmt 1
 565              		.loc 1 890 21 is_stmt 0
 566 0056 03C76700 		lbu	a4,6(a5)
 567 005a A304E100 		sb	a4,9(sp)
 891:C:/Users/stapi/OneDrive/Desktop/GD32VW553/GD32VW55X_Wifi_BLE_SDK/GD32VW55x_RELEASE_V1.0.2/MSDK/ble/app\app_sec_mgr.c **** 
 892:C:/Users/stapi/OneDrive/Desktop/GD32VW553/GD32VW55X_Wifi_BLE_SDK/GD32VW55x_RELEASE_V1.0.2/MSDK/ble/app\app_sec_mgr.c ****     if (app_sec_env.authen_sc) {
 568              		.loc 1 892 5 is_stmt 1
 893:C:/Users/stapi/OneDrive/Desktop/GD32VW553/GD32VW55X_Wifi_BLE_SDK/GD32VW55x_RELEASE_V1.0.2/MSDK/ble/app\app_sec_mgr.c ****         param.ikey_dist = BLE_GAP_KDIST_IDKEY | BLE_GAP_KDIST_SIGNKEY;
 569              		.loc 1 893 25 is_stmt 0
 570 005e 13076060 		li	a4,1542
 892:C:/Users/stapi/OneDrive/Desktop/GD32VW553/GD32VW55X_Wifi_BLE_SDK/GD32VW55x_RELEASE_V1.0.2/MSDK/ble/app\app_sec_mgr.c ****         param.ikey_dist = BLE_GAP_KDIST_IDKEY | BLE_GAP_KDIST_SIGNKEY;
 571              		.loc 1 892 8
 572 0062 99E2     		bne	a3,zero,.L71
 894:C:/Users/stapi/OneDrive/Desktop/GD32VW553/GD32VW55X_Wifi_BLE_SDK/GD32VW55x_RELEASE_V1.0.2/MSDK/ble/app\app_sec_mgr.c ****         param.rkey_dist = BLE_GAP_KDIST_IDKEY | BLE_GAP_KDIST_SIGNKEY;
 895:C:/Users/stapi/OneDrive/Desktop/GD32VW553/GD32VW55X_Wifi_BLE_SDK/GD32VW55x_RELEASE_V1.0.2/MSDK/ble/app\app_sec_mgr.c ****     } else {
 896:C:/Users/stapi/OneDrive/Desktop/GD32VW553/GD32VW55X_Wifi_BLE_SDK/GD32VW55x_RELEASE_V1.0.2/MSDK/ble/app\app_sec_mgr.c ****         param.ikey_dist = BLE_GAP_KDIST_IDKEY | BLE_GAP_KDIST_SIGNKEY | BLE_GAP_KDIST_ENCKEY;
 573              		.loc 1 896 9 is_stmt 1
 897:C:/Users/stapi/OneDrive/Desktop/GD32VW553/GD32VW55X_Wifi_BLE_SDK/GD32VW55x_RELEASE_V1.0.2/MSDK/ble/app\app_sec_mgr.c ****         param.rkey_dist = BLE_GAP_KDIST_IDKEY | BLE_GAP_KDIST_SIGNKEY | BLE_GAP_KDIST_ENCKEY;
 574              		.loc 1 897 9
 896:C:/Users/stapi/OneDrive/Desktop/GD32VW553/GD32VW55X_Wifi_BLE_SDK/GD32VW55x_RELEASE_V1.0.2/MSDK/ble/app\app_sec_mgr.c ****         param.rkey_dist = BLE_GAP_KDIST_IDKEY | BLE_GAP_KDIST_SIGNKEY | BLE_GAP_KDIST_ENCKEY;
 575              		.loc 1 896 25 is_stmt 0
 576 0064 13077070 		li	a4,1799
 577              	.L71:
 898:C:/Users/stapi/OneDrive/Desktop/GD32VW553/GD32VW55X_Wifi_BLE_SDK/GD32VW55x_RELEASE_V1.0.2/MSDK/ble/app\app_sec_mgr.c ****     }
 899:C:/Users/stapi/OneDrive/Desktop/GD32VW553/GD32VW55X_Wifi_BLE_SDK/GD32VW55x_RELEASE_V1.0.2/MSDK/ble/app\app_sec_mgr.c **** 
 900:C:/Users/stapi/OneDrive/Desktop/GD32VW553/GD32VW55X_Wifi_BLE_SDK/GD32VW55x_RELEASE_V1.0.2/MSDK/ble/app\app_sec_mgr.c ****     if (app_sec_env.sc_only) {
 578              		.loc 1 900 8
 579 0068 83C73700 		lbu	a5,3(a5)
 896:C:/Users/stapi/OneDrive/Desktop/GD32VW553/GD32VW55X_Wifi_BLE_SDK/GD32VW55x_RELEASE_V1.0.2/MSDK/ble/app\app_sec_mgr.c ****         param.rkey_dist = BLE_GAP_KDIST_IDKEY | BLE_GAP_KDIST_SIGNKEY | BLE_GAP_KDIST_ENCKEY;
 580              		.loc 1 896 25
 581 006c 2316E100 		sh	a4,12(sp)
 582              		.loc 1 900 5 is_stmt 1
 872:C:/Users/stapi/OneDrive/Desktop/GD32VW553/GD32VW55X_Wifi_BLE_SDK/GD32VW55x_RELEASE_V1.0.2/MSDK/ble/app\app_sec_mgr.c **** 
 583              		.loc 1 872 13 is_stmt 0
 584 0070 0146     		li	a2,0
 585              		.loc 1 900 8
 586 0072 91C3     		beq	a5,zero,.L54
 901:C:/Users/stapi/OneDrive/Desktop/GD32VW553/GD32VW55X_Wifi_BLE_SDK/GD32VW55x_RELEASE_V1.0.2/MSDK/ble/app\app_sec_mgr.c ****         sec_req_level = BLE_GAP_SEC1_SEC_CON_PAIR_ENC;
 587              		.loc 1 901 23
 588 0074 1546     		li	a2,5
 589              	.L54:
 590              	.LVL30:
 902:C:/Users/stapi/OneDrive/Desktop/GD32VW553/GD32VW55X_Wifi_BLE_SDK/GD32VW55x_RELEASE_V1.0.2/MSDK/ble/app\app_sec_mgr.c ****     }
 903:C:/Users/stapi/OneDrive/Desktop/GD32VW553/GD32VW55X_Wifi_BLE_SDK/GD32VW55x_RELEASE_V1.0.2/MSDK/ble/app\app_sec_mgr.c **** 
 904:C:/Users/stapi/OneDrive/Desktop/GD32VW553/GD32VW55X_Wifi_BLE_SDK/GD32VW55x_RELEASE_V1.0.2/MSDK/ble/app\app_sec_mgr.c ****     if (ble_sec_bond_req(conidx, &param, sec_req_level) != BLE_ERR_NO_ERROR) {
 591              		.loc 1 904 5 is_stmt 1
 592              		.loc 1 904 9 is_stmt 0
 593 0076 2C00     		addi	a1,sp,8
 594 0078 97000000 		call	ble_sec_bond_req
 594      E7800000 
 595              	.LVL31:
 596              		.loc 1 904 8
 597 0080 05C1     		beq	a0,zero,.L48
 905:C:/Users/stapi/OneDrive/Desktop/GD32VW553/GD32VW55X_Wifi_BLE_SDK/GD32VW55x_RELEASE_V1.0.2/MSDK/ble/app\app_sec_mgr.c ****         dbg_print(NOTICE, "app_sec_send_bond_req fail! \r\n");
 598              		.loc 1 905 9 is_stmt 1
 599              		.loc 1 905 9
 600 0082 B7070000 		lui	a5,%hi(global_debug_level)
 601 0086 03C70700 		lbu	a4,%lo(global_debug_level)(a5)
 602 008a 8947     		li	a5,2
 603 008c 63FAE700 		bleu	a4,a5,.L48
 604              		.loc 1 905 9 discriminator 1
 605 0090 37050000 		lui	a0,%hi(.LC2)
 606 0094 13050500 		addi	a0,a0,%lo(.LC2)
 607 0098 97000000 		call	co_printf
 607      E7800000 
 608              	.LVL32:
 609              		.loc 1 905 9 discriminator 1
 610              	.L48:
 906:C:/Users/stapi/OneDrive/Desktop/GD32VW553/GD32VW55X_Wifi_BLE_SDK/GD32VW55x_RELEASE_V1.0.2/MSDK/ble/app\app_sec_mgr.c ****     }
 907:C:/Users/stapi/OneDrive/Desktop/GD32VW553/GD32VW55X_Wifi_BLE_SDK/GD32VW55x_RELEASE_V1.0.2/MSDK/ble/app\app_sec_mgr.c **** }
 611              		.loc 1 907 1 is_stmt 0
 612 00a0 4101     		addi	sp,sp,16
 613              		.cfi_def_cfa_offset 0
 614 00a2 17030000 		tail	__riscv_restore_0
 614      67000300 
 615              		.cfi_restore 1
 616              		.cfi_def_cfa_offset -16
 617              		.cfi_endproc
 618              	.LFE28:
 620              		.section	.rodata.app_security_req_info_hdlr.str1.4,"aMS",@progbits,1
 621              		.align	2
 622              	.LC3:
 623 0000 6170705F 		.string	"app_security_req_info_hdlr can't find device !\r\n"
 623      73656375 
 623      72697479 
 623      5F726571 
 623      5F696E66 
 624              		.section	.text.app_security_req_info_hdlr,"ax",@progbits
 625              		.align	1
 626              		.globl	app_security_req_info_hdlr
 628              	app_security_req_info_hdlr:
 629              	.LFB13:
 480:C:/Users/stapi/OneDrive/Desktop/GD32VW553/GD32VW55X_Wifi_BLE_SDK/GD32VW55x_RELEASE_V1.0.2/MSDK/ble/app\app_sec_mgr.c ****     ble_device_t *p_device = dm_find_dev_by_conidx(p_info->param.conn_idx);
 630              		.loc 1 480 1 is_stmt 1
 631              		.cfi_startproc
 632              	.LVL33:
 633 0000 17030000 		call	t0,__riscv_save_1
 633      E7020300 
 634              		.cfi_offset 8, -8
 635              		.cfi_offset 1, -4
 636              		.cfi_def_cfa_offset 16
 481:C:/Users/stapi/OneDrive/Desktop/GD32VW553/GD32VW55X_Wifi_BLE_SDK/GD32VW55x_RELEASE_V1.0.2/MSDK/ble/app\app_sec_mgr.c **** 
 637              		.loc 1 481 5
 480:C:/Users/stapi/OneDrive/Desktop/GD32VW553/GD32VW55X_Wifi_BLE_SDK/GD32VW55x_RELEASE_V1.0.2/MSDK/ble/app\app_sec_mgr.c ****     ble_device_t *p_device = dm_find_dev_by_conidx(p_info->param.conn_idx);
 638              		.loc 1 480 1 is_stmt 0
 639 0008 2A84     		mv	s0,a0
 481:C:/Users/stapi/OneDrive/Desktop/GD32VW553/GD32VW55X_Wifi_BLE_SDK/GD32VW55x_RELEASE_V1.0.2/MSDK/ble/app\app_sec_mgr.c **** 
 640              		.loc 1 481 30
 641 000a 03450500 		lbu	a0,0(a0)
 642              	.LVL34:
 643 000e 97000000 		call	dm_find_dev_by_conidx
 643      E7800000 
 644              	.LVL35:
 483:C:/Users/stapi/OneDrive/Desktop/GD32VW553/GD32VW55X_Wifi_BLE_SDK/GD32VW55x_RELEASE_V1.0.2/MSDK/ble/app\app_sec_mgr.c ****         dbg_print(NOTICE, "app_security_req_info_hdlr can't find device !\r\n");
 645              		.loc 1 483 5 is_stmt 1
 483:C:/Users/stapi/OneDrive/Desktop/GD32VW553/GD32VW55X_Wifi_BLE_SDK/GD32VW55x_RELEASE_V1.0.2/MSDK/ble/app\app_sec_mgr.c ****         dbg_print(NOTICE, "app_security_req_info_hdlr can't find device !\r\n");
 646              		.loc 1 483 8 is_stmt 0
 647 0016 05E5     		bne	a0,zero,.L73
 648              	.LVL36:
 649              	.LBB4:
 650              	.LBB5:
 484:C:/Users/stapi/OneDrive/Desktop/GD32VW553/GD32VW55X_Wifi_BLE_SDK/GD32VW55x_RELEASE_V1.0.2/MSDK/ble/app\app_sec_mgr.c ****         return;
 651              		.loc 1 484 9 is_stmt 1
 484:C:/Users/stapi/OneDrive/Desktop/GD32VW553/GD32VW55X_Wifi_BLE_SDK/GD32VW55x_RELEASE_V1.0.2/MSDK/ble/app\app_sec_mgr.c ****         return;
 652              		.loc 1 484 9
 653 0018 B7070000 		lui	a5,%hi(global_debug_level)
 654 001c 03C70700 		lbu	a4,%lo(global_debug_level)(a5)
 655 0020 8947     		li	a5,2
 656 0022 63FAE700 		bleu	a4,a5,.L72
 484:C:/Users/stapi/OneDrive/Desktop/GD32VW553/GD32VW55X_Wifi_BLE_SDK/GD32VW55x_RELEASE_V1.0.2/MSDK/ble/app\app_sec_mgr.c ****         return;
 657              		.loc 1 484 9
 658 0026 37050000 		lui	a0,%hi(.LC3)
 659              	.LVL37:
 660 002a 13050500 		addi	a0,a0,%lo(.LC3)
 661 002e 97000000 		call	co_printf
 661      E7800000 
 662              	.LVL38:
 663              	.L72:
 664              	.LBE5:
 665              	.LBE4:
 493:C:/Users/stapi/OneDrive/Desktop/GD32VW553/GD32VW55X_Wifi_BLE_SDK/GD32VW55x_RELEASE_V1.0.2/MSDK/ble/app\app_sec_mgr.c **** 
 666              		.loc 1 493 1 is_stmt 0
 667 0036 17030000 		tail	__riscv_restore_1
 667      67000300 
 668              		.cfi_remember_state
 669              		.cfi_restore 8
 670              		.cfi_restore 1
 671              		.cfi_def_cfa_offset 0
 672              	.LVL39:
 673              	.L73:
 674              		.cfi_restore_state
 675 003e AA85     		mv	a1,a0
 488:C:/Users/stapi/OneDrive/Desktop/GD32VW553/GD32VW55X_Wifi_BLE_SDK/GD32VW55x_RELEASE_V1.0.2/MSDK/ble/app\app_sec_mgr.c ****         ble_sec_encrypt_req(p_info->param.conn_idx, &p_device->bond_info.peer_ltk);
 676              		.loc 1 488 5 is_stmt 1
 488:C:/Users/stapi/OneDrive/Desktop/GD32VW553/GD32VW55X_Wifi_BLE_SDK/GD32VW55x_RELEASE_V1.0.2/MSDK/ble/app\app_sec_mgr.c ****         ble_sec_encrypt_req(p_info->param.conn_idx, &p_device->bond_info.peer_ltk);
 677              		.loc 1 488 8 is_stmt 0
 678 0040 83C72501 		lbu	a5,18(a1)
 489:C:/Users/stapi/OneDrive/Desktop/GD32VW553/GD32VW55X_Wifi_BLE_SDK/GD32VW55x_RELEASE_V1.0.2/MSDK/ble/app\app_sec_mgr.c ****     } else {
 679              		.loc 1 489 9
 680 0044 03450400 		lbu	a0,0(s0)
 681              	.LVL40:
 488:C:/Users/stapi/OneDrive/Desktop/GD32VW553/GD32VW55X_Wifi_BLE_SDK/GD32VW55x_RELEASE_V1.0.2/MSDK/ble/app\app_sec_mgr.c ****         ble_sec_encrypt_req(p_info->param.conn_idx, &p_device->bond_info.peer_ltk);
 682              		.loc 1 488 8
 683 0048 81CB     		beq	a5,zero,.L75
 489:C:/Users/stapi/OneDrive/Desktop/GD32VW553/GD32VW55X_Wifi_BLE_SDK/GD32VW55x_RELEASE_V1.0.2/MSDK/ble/app\app_sec_mgr.c ****     } else {
 684              		.loc 1 489 9 is_stmt 1
 685 004a 9385C505 		addi	a1,a1,92
 686              	.LVL41:
 687 004e 97000000 		call	ble_sec_encrypt_req
 687      E7800000 
 688              	.LVL42:
 689 0056 C5B7     		j	.L72
 690              	.LVL43:
 691              	.L75:
 491:C:/Users/stapi/OneDrive/Desktop/GD32VW553/GD32VW55X_Wifi_BLE_SDK/GD32VW55x_RELEASE_V1.0.2/MSDK/ble/app\app_sec_mgr.c ****     }
 692              		.loc 1 491 9
 693 0058 97000000 		call	app_sec_send_bond_req
 693      E7800000 
 694              	.LVL44:
 695 0060 D9BF     		j	.L72
 696              		.cfi_endproc
 697              	.LFE13:
 699              		.section	.rodata.app_sec_evt_handler.str1.4,"aMS",@progbits,1
 700              		.align	2
 701              	.LC4:
 702 0000 61707020 		.string	"app receivce pairing request conidx %u \r\n"
 702      72656365 
 702      69766365 
 702      20706169 
 702      72696E67 
 703 002a 0000     		.align	2
 704              	.LC5:
 705 002c 6170705F 		.string	"app_pairing_req_hdlr can't find device !\r\n"
 705      70616972 
 705      696E675F 
 705      7265715F 
 705      68646C72 
 706 0057 00       		.align	2
 707              	.LC6:
 708 0058 72656D6F 		.string	"remote master key missing, reject pairing request !\r\n"
 708      7465206D 
 708      61737465 
 708      72206B65 
 708      79206D69 
 709 008e 0000     		.align	2
 710              	.LC7:
 711 0090 6170705F 		.string	"app_pairing_req_hdlr remove bond fail\r\n"
 711      70616972 
 711      696E675F 
 711      7265715F 
 711      68646C72 
 712              		.align	2
 713              	.LC8:
 714 00b8 6170705F 		.string	"app_ltk_req_hdlr can't find device !\r\n"
 714      6C746B5F 
 714      7265715F 
 714      68646C72 
 714      2063616E 
 715 00df 00       		.align	2
 716              	.LC9:
 717 00e0 636F6E6E 		.string	"conn_idx %u bond ltk req, key size %d, ltk: 0x"
 717      5F696478 
 717      20257520 
 717      626F6E64 
 717      206C746B 
 718 010f 00       		.align	2
 719              	.LC10:
 720 0110 257800   		.string	"%x"
 721 0113 00       		.align	2
 722              	.LC11:
 723 0114 0D0A00   		.string	"\r\n"
 724 0117 00       		.align	2
 725              	.LC12:
 726 0118 6170705F 		.string	"app_key_display_req_hdlr can't find device !\r\n"
 726      6B65795F 
 726      64697370 
 726      6C61795F 
 726      7265715F 
 727 0147 00       		.align	2
 728              	.LC13:
 729 0148 70696E20 		.string	"pin code %d\r\n"
 729      636F6465 
 729      2025640D 
 729      0A00
 730 0156 0000     		.align	2
 731              	.LC14:
 732 0158 6170705F 		.string	"app_key_enter_req_hdlr can't find device !\r\n"
 732      6B65795F 
 732      656E7465 
 732      725F7265 
 732      715F6864 
 733 0185 000000   		.align	2
 734              	.LC15:
 735 0188 636F6E6E 		.string	"conn_idx %u waiting for user to input key ......\r\n"
 735      5F696478 
 735      20257520 
 735      77616974 
 735      696E6720 
 736 01bb 00       		.align	2
 737              	.LC16:
 738 01bc 6170705F 		.string	"app_key_oob_req_hdlr can't find device !\r\n"
 738      6B65795F 
 738      6F6F625F 
 738      7265715F 
 738      68646C72 
 739 01e7 00       		.align	2
 740              	.LC17:
 741 01e8 636F6E6E 		.string	"conn_idx %u waiting for user to input oob ......\r\n"
 741      5F696478 
 741      20257520 
 741      77616974 
 741      696E6720 
 742 021b 00       		.align	2
 743              	.LC18:
 744 021c 6170705F 		.string	"app_nc_hdlr can't find device !\r\n"
 744      6E635F68 
 744      646C7220 
 744      63616E27 
 744      74206669 
 745 023e 0000     		.align	2
 746              	.LC19:
 747 0240 636F6E6E 		.string	"conn_idx %u num val: %d\r\n"
 747      5F696478 
 747      20257520 
 747      6E756D20 
 747      76616C3A 
 748 025a 0000     		.align	2
 749              	.LC20:
 750 025c 77616974 		.string	"waiting for user to compare......\r\n"
 750      696E6720 
 750      666F7220 
 750      75736572 
 750      20746F20 
 751              		.align	2
 752              	.LC21:
 753 0280 6170705F 		.string	"app_irk_req_hdlr can't find device !\r\n"
 753      69726B5F 
 753      7265715F 
 753      68646C72 
 753      2063616E 
 754 02a7 00       		.align	2
 755              	.LC22:
 756 02a8 636F6E6E 		.string	"conn_idx %u bond irk request:"
 756      5F696478 
 756      20257520 
 756      626F6E64 
 756      2069726B 
 757 02c6 0000     		.align	2
 758              	.LC23:
 759 02c8 20253032 		.string	" %02x"
 759      7800
 760 02ce 0000     		.align	2
 761              	.LC24:
 762 02d0 6964656E 		.string	"identity addr %02X:%02X:%02X:%02X:%02X:%02X \r\n"
 762      74697479 
 762      20616464 
 762      72202530 
 762      32583A25 
 763 02ff 00       		.align	2
 764              	.LC25:
 765 0300 6170705F 		.string	"app_csrk_req_hdlr can't find device !\r\n"
 765      6373726B 
 765      5F726571 
 765      5F68646C 
 765      72206361 
 766              		.align	2
 767              	.LC26:
 768 0328 636F6E6E 		.string	"conn_idx %u bond csrk request:"
 768      5F696478 
 768      20257520 
 768      626F6E64 
 768      20637372 
 769 0347 00       		.align	2
 770              	.LC27:
 771 0348 6170705F 		.string	"app_oob_data_req_hdlr can't find device !\r\n"
 771      6F6F625F 
 771      64617461 
 771      5F726571 
 771      5F68646C 
 772              		.align	2
 773              	.LC28:
 774 0374 6170705F 		.string	"app_pairing_success_hdlr can't find device !\r\n"
 774      70616972 
 774      696E675F 
 774      73756363 
 774      6573735F 
 775 03a3 00       		.align	2
 776              	.LC29:
 777 03a4 636F6E6E 		.string	"conn_idx %u pairing success, level 0x%x ltk_present %d sc %d\r\n"
 777      5F696478 
 777      20257520 
 777      70616972 
 777      696E6720 
 778 03e3 00       		.align	2
 779              	.LC30:
 780 03e4 6C6F6361 		.string	"local key size %d, ltk(hex): "
 780      6C206B65 
 780      79207369 
 780      7A652025 
 780      642C206C 
 781 0402 0000     		.align	2
 782              	.LC31:
 783 0404 25303278 		.string	"%02x"
 783      00
 784 0409 000000   		.align	2
 785              	.LC32:
 786 040c 70656572 		.string	"peer key size %d, ltk(hex): "
 786      206B6579 
 786      2073697A 
 786      65202564 
 786      2C206C74 
 787 0429 000000   		.align	2
 788              	.LC33:
 789 042c 70656572 		.string	"peer irk(hex): "
 789      2069726B 
 789      28686578 
 789      293A2000 
 790              		.align	2
 791              	.LC34:
 792 043c 6C6F6361 		.string	"local csrk(hex): "
 792      6C206373 
 792      726B2868 
 792      6578293A 
 792      2000
 793 044e 0000     		.align	2
 794              	.LC35:
 795 0450 70656572 		.string	"peer csrk(hex): "
 795      20637372 
 795      6B286865 
 795      78293A20 
 795      00
 796 0461 000000   		.align	2
 797              	.LC36:
 798 0464 6170705F 		.string	"app_pairing_fail_hdlr can't find device !\r\n"
 798      70616972 
 798      696E675F 
 798      6661696C 
 798      5F68646C 
 799              		.align	2
 800              	.LC37:
 801 0490 70616972 		.string	"pairing fail reason 0x%x\r\n"
 801      696E6720 
 801      6661696C 
 801      20726561 
 801      736F6E20 
 802 04ab 00       		.align	2
 803              	.LC38:
 804 04ac 6170705F 		.string	"app_encrypt_req_hdlr can't find device !\r\n"
 804      656E6372 
 804      7970745F 
 804      7265715F 
 804      68646C72 
 805 04d7 00       		.align	2
 806              	.LC39:
 807 04d8 6170705F 		.string	"app_encrypted_hdlr can't find device !\r\n"
 807      656E6372 
 807      79707465 
 807      645F6864 
 807      6C722063 
 808 0501 000000   		.align	2
 809              	.LC40:
 810 0504 636F6E6E 		.string	"conn_idx %u encrypt fail, status 0x%x\r\n"
 810      5F696478 
 810      20257520 
 810      656E6372 
 810      79707420 
 811              		.align	2
 812              	.LC41:
 813 052c 636F6E6E 		.string	"conn_idx %u encrypt success, pairing_lvl 0x%x\r\n"
 813      5F696478 
 813      20257520 
 813      656E6372 
 813      79707420 
 814              		.align	2
 815              	.LC42:
 816 055c 6C65206F 		.string	"le oob data ind, conf:"
 816      6F622064 
 816      61746120 
 816      696E642C 
 816      20636F6E 
 817 0573 00       		.align	2
 818              	.LC43:
 819 0574 2C207261 		.string	", random:"
 819      6E646F6D 
 819      3A00
 820 057e 0000     		.align	2
 821              	.LC44:
 822 0580 636F6E69 		.string	"conidx %u key press info type %d\r\n"
 822      64782025 
 822      75206B65 
 822      79207072 
 822      65737320 
 823              		.section	.text.app_sec_evt_handler,"ax",@progbits
 824              		.align	1
 826              	app_sec_evt_handler:
 827              	.LFB17:
 598:C:/Users/stapi/OneDrive/Desktop/GD32VW553/GD32VW55X_Wifi_BLE_SDK/GD32VW55x_RELEASE_V1.0.2/MSDK/ble/app\app_sec_mgr.c **** 
 828              		.loc 1 598 1
 829              		.cfi_startproc
 830              	.LVL45:
 600:C:/Users/stapi/OneDrive/Desktop/GD32VW553/GD32VW55X_Wifi_BLE_SDK/GD32VW55x_RELEASE_V1.0.2/MSDK/ble/app\app_sec_mgr.c ****     case BLE_SEC_EVT_PAIRING_REQ_IND:
 831              		.loc 1 600 5
 832 0000 C147     		li	a5,16
 833 0002 E3E1A734 		bgtu	a0,a5,.L223
 598:C:/Users/stapi/OneDrive/Desktop/GD32VW553/GD32VW55X_Wifi_BLE_SDK/GD32VW55x_RELEASE_V1.0.2/MSDK/ble/app\app_sec_mgr.c **** 
 834              		.loc 1 598 1 is_stmt 0
 835 0006 17030000 		call	t0,__riscv_save_6
 835      E7020300 
 836              		.cfi_offset 21, -28
 837              		.cfi_offset 20, -24
 838              		.cfi_offset 19, -20
 839              		.cfi_offset 18, -16
 840              		.cfi_offset 9, -12
 841              		.cfi_offset 8, -8
 842              		.cfi_offset 1, -4
 843              		.cfi_def_cfa_offset 32
 844 000e B7070000 		lui	a5,%hi(.L80)
 845 0012 93870700 		addi	a5,a5,%lo(.L80)
 846 0016 3345F520 		sh2add	a0,a0,a5
 847              	.LVL46:
 848 001a 1C41     		lw	a5,0(a0)
 849 001c 0111     		addi	sp,sp,-32
 850              		.cfi_def_cfa_offset 64
 851 001e 2E84     		mv	s0,a1
 852 0020 8287     		jr	a5
 853              		.section	.rodata.app_sec_evt_handler,"a",@progbits
 854              		.align	2
 855              		.align	2
 856              	.L80:
 857 0000 00000000 		.word	.L95
 858 0004 00000000 		.word	.L94
 859 0008 00000000 		.word	.L93
 860 000c 00000000 		.word	.L92
 861 0010 00000000 		.word	.L91
 862 0014 00000000 		.word	.L90
 863 0018 00000000 		.word	.L89
 864 001c 00000000 		.word	.L88
 865 0020 00000000 		.word	.L87
 866 0024 00000000 		.word	.L86
 867 0028 00000000 		.word	.L85
 868 002c 00000000 		.word	.L84
 869 0030 00000000 		.word	.L83
 870 0034 00000000 		.word	.L82
 871 0038 00000000 		.word	.L81
 872 003c 00000000 		.word	.L77
 873 0040 00000000 		.word	.L79
 874              		.section	.text.app_sec_evt_handler
 875              	.L95:
 602:C:/Users/stapi/OneDrive/Desktop/GD32VW553/GD32VW55X_Wifi_BLE_SDK/GD32VW55x_RELEASE_V1.0.2/MSDK/ble/app\app_sec_mgr.c ****         break;
 876              		.loc 1 602 9 is_stmt 1
 877              	.LVL47:
 878              	.LBB34:
 879              	.LBB35:
  95:C:/Users/stapi/OneDrive/Desktop/GD32VW553/GD32VW55X_Wifi_BLE_SDK/GD32VW55x_RELEASE_V1.0.2/MSDK/ble/app\app_sec_mgr.c ****     ble_gap_pairing_param_t param;
 880              		.loc 1 95 5
  95:C:/Users/stapi/OneDrive/Desktop/GD32VW553/GD32VW55X_Wifi_BLE_SDK/GD32VW55x_RELEASE_V1.0.2/MSDK/ble/app\app_sec_mgr.c ****     ble_gap_pairing_param_t param;
 881              		.loc 1 95 30 is_stmt 0
 882 0022 03C50500 		lbu	a0,0(a1)
  99:C:/Users/stapi/OneDrive/Desktop/GD32VW553/GD32VW55X_Wifi_BLE_SDK/GD32VW55x_RELEASE_V1.0.2/MSDK/ble/app\app_sec_mgr.c **** 
 883              		.loc 1 99 5
 884 0026 37090000 		lui	s2,%hi(global_debug_level)
 885 002a 094A     		li	s4,2
  95:C:/Users/stapi/OneDrive/Desktop/GD32VW553/GD32VW55X_Wifi_BLE_SDK/GD32VW55x_RELEASE_V1.0.2/MSDK/ble/app\app_sec_mgr.c ****     ble_gap_pairing_param_t param;
 886              		.loc 1 95 30
 887 002c 97000000 		call	dm_find_dev_by_conidx
 887      E7800000 
 888              	.LVL48:
  99:C:/Users/stapi/OneDrive/Desktop/GD32VW553/GD32VW55X_Wifi_BLE_SDK/GD32VW55x_RELEASE_V1.0.2/MSDK/ble/app\app_sec_mgr.c **** 
 889              		.loc 1 99 5
 890 0034 83470900 		lbu	a5,%lo(global_debug_level)(s2)
  95:C:/Users/stapi/OneDrive/Desktop/GD32VW553/GD32VW55X_Wifi_BLE_SDK/GD32VW55x_RELEASE_V1.0.2/MSDK/ble/app\app_sec_mgr.c ****     ble_gap_pairing_param_t param;
 891              		.loc 1 95 30
 892 0038 AA84     		mv	s1,a0
 893              	.LVL49:
  96:C:/Users/stapi/OneDrive/Desktop/GD32VW553/GD32VW55X_Wifi_BLE_SDK/GD32VW55x_RELEASE_V1.0.2/MSDK/ble/app\app_sec_mgr.c ****     uint8_t sec_req_lvl;
 894              		.loc 1 96 5 is_stmt 1
  97:C:/Users/stapi/OneDrive/Desktop/GD32VW553/GD32VW55X_Wifi_BLE_SDK/GD32VW55x_RELEASE_V1.0.2/MSDK/ble/app\app_sec_mgr.c **** 
 895              		.loc 1 97 5
  99:C:/Users/stapi/OneDrive/Desktop/GD32VW553/GD32VW55X_Wifi_BLE_SDK/GD32VW55x_RELEASE_V1.0.2/MSDK/ble/app\app_sec_mgr.c **** 
 896              		.loc 1 99 5
  99:C:/Users/stapi/OneDrive/Desktop/GD32VW553/GD32VW55X_Wifi_BLE_SDK/GD32VW55x_RELEASE_V1.0.2/MSDK/ble/app\app_sec_mgr.c **** 
 897              		.loc 1 99 5
 898 003a CA89     		mv	s3,s2
 899 003c E37EFA2A 		bleu	a5,s4,.L96
  99:C:/Users/stapi/OneDrive/Desktop/GD32VW553/GD32VW55X_Wifi_BLE_SDK/GD32VW55x_RELEASE_V1.0.2/MSDK/ble/app\app_sec_mgr.c **** 
 900              		.loc 1 99 5
 901 0040 83450400 		lbu	a1,0(s0)
 902 0044 37050000 		lui	a0,%hi(.LC4)
 903 0048 13050500 		addi	a0,a0,%lo(.LC4)
 904 004c 97000000 		call	co_printf
 904      E7800000 
 905              	.LVL50:
  99:C:/Users/stapi/OneDrive/Desktop/GD32VW553/GD32VW55X_Wifi_BLE_SDK/GD32VW55x_RELEASE_V1.0.2/MSDK/ble/app\app_sec_mgr.c **** 
 906              		.loc 1 99 5
 101:C:/Users/stapi/OneDrive/Desktop/GD32VW553/GD32VW55X_Wifi_BLE_SDK/GD32VW55x_RELEASE_V1.0.2/MSDK/ble/app\app_sec_mgr.c ****         dbg_print(NOTICE, "app_pairing_req_hdlr can't find device !\r\n");
 907              		.loc 1 101 5
 101:C:/Users/stapi/OneDrive/Desktop/GD32VW553/GD32VW55X_Wifi_BLE_SDK/GD32VW55x_RELEASE_V1.0.2/MSDK/ble/app\app_sec_mgr.c ****         dbg_print(NOTICE, "app_pairing_req_hdlr can't find device !\r\n");
 908              		.loc 1 101 8 is_stmt 0
 909 0054 E394042A 		bne	s1,zero,.L97
 102:C:/Users/stapi/OneDrive/Desktop/GD32VW553/GD32VW55X_Wifi_BLE_SDK/GD32VW55x_RELEASE_V1.0.2/MSDK/ble/app\app_sec_mgr.c ****         ble_sec_pairing_req_cfm(p_ind->conn_idx, false, NULL, 0);
 910              		.loc 1 102 9 is_stmt 1
 102:C:/Users/stapi/OneDrive/Desktop/GD32VW553/GD32VW55X_Wifi_BLE_SDK/GD32VW55x_RELEASE_V1.0.2/MSDK/ble/app\app_sec_mgr.c ****         ble_sec_pairing_req_cfm(p_ind->conn_idx, false, NULL, 0);
 911              		.loc 1 102 9
 912 0058 83470900 		lbu	a5,%lo(global_debug_level)(s2)
 913 005c 637AFA00 		bleu	a5,s4,.L103
 102:C:/Users/stapi/OneDrive/Desktop/GD32VW553/GD32VW55X_Wifi_BLE_SDK/GD32VW55x_RELEASE_V1.0.2/MSDK/ble/app\app_sec_mgr.c ****         ble_sec_pairing_req_cfm(p_ind->conn_idx, false, NULL, 0);
 914              		.loc 1 102 9
 915 0060 37050000 		lui	a0,%hi(.LC5)
 916 0064 13050500 		addi	a0,a0,%lo(.LC5)
 917              	.L238:
 111:C:/Users/stapi/OneDrive/Desktop/GD32VW553/GD32VW55X_Wifi_BLE_SDK/GD32VW55x_RELEASE_V1.0.2/MSDK/ble/app\app_sec_mgr.c ****         }
 918              		.loc 1 111 13 is_stmt 0
 919 0068 97000000 		call	co_printf
 919      E7800000 
 920              	.LVL51:
 921              	.L103:
 111:C:/Users/stapi/OneDrive/Desktop/GD32VW553/GD32VW55X_Wifi_BLE_SDK/GD32VW55x_RELEASE_V1.0.2/MSDK/ble/app\app_sec_mgr.c ****         }
 922              		.loc 1 111 13 is_stmt 1
 114:C:/Users/stapi/OneDrive/Desktop/GD32VW553/GD32VW55X_Wifi_BLE_SDK/GD32VW55x_RELEASE_V1.0.2/MSDK/ble/app\app_sec_mgr.c ****         return;
 923              		.loc 1 114 9
 924 0070 8146     		li	a3,0
 925 0072 0146     		li	a2,0
 926 0074 8145     		li	a1,0
 927              	.L227:
 149:C:/Users/stapi/OneDrive/Desktop/GD32VW553/GD32VW55X_Wifi_BLE_SDK/GD32VW55x_RELEASE_V1.0.2/MSDK/ble/app\app_sec_mgr.c **** }
 928              		.loc 1 149 5 is_stmt 0
 929 0076 03450400 		lbu	a0,0(s0)
 930 007a 97000000 		call	ble_sec_pairing_req_cfm
 930      E7800000 
 931              	.LVL52:
 932              	.L77:
 933              	.LBE35:
 934              	.LBE34:
 668:C:/Users/stapi/OneDrive/Desktop/GD32VW553/GD32VW55X_Wifi_BLE_SDK/GD32VW55x_RELEASE_V1.0.2/MSDK/ble/app\app_sec_mgr.c **** 
 935              		.loc 1 668 1
 936 0082 0561     		addi	sp,sp,32
 937              		.cfi_remember_state
 938              		.cfi_def_cfa_offset 0
 939 0084 17030000 		tail	__riscv_restore_6
 939      67000300 
 940              		.cfi_restore 21
 941              		.cfi_restore 20
 942              		.cfi_restore 19
 943              		.cfi_restore 18
 944              		.cfi_restore 9
 945              		.cfi_restore 8
 946              		.cfi_restore 1
 947              		.cfi_def_cfa_offset -32
 948              	.LVL53:
 949              	.L101:
 950              		.cfi_restore_state
 951              	.LBB43:
 952              	.LBB36:
 118:C:/Users/stapi/OneDrive/Desktop/GD32VW553/GD32VW55X_Wifi_BLE_SDK/GD32VW55x_RELEASE_V1.0.2/MSDK/ble/app\app_sec_mgr.c ****     param.auth = BLE_GAP_AUTH_MASK_NONE;
 953              		.loc 1 118 5 is_stmt 1
 119:C:/Users/stapi/OneDrive/Desktop/GD32VW553/GD32VW55X_Wifi_BLE_SDK/GD32VW55x_RELEASE_V1.0.2/MSDK/ble/app\app_sec_mgr.c **** 
 954              		.loc 1 119 5
 121:C:/Users/stapi/OneDrive/Desktop/GD32VW553/GD32VW55X_Wifi_BLE_SDK/GD32VW55x_RELEASE_V1.0.2/MSDK/ble/app\app_sec_mgr.c ****         param.auth |= BLE_GAP_AUTH_MASK_BOND;
 955              		.loc 1 121 20 is_stmt 0
 956 008c B7070000 		lui	a5,%hi(.LANCHOR0)
 121:C:/Users/stapi/OneDrive/Desktop/GD32VW553/GD32VW55X_Wifi_BLE_SDK/GD32VW55x_RELEASE_V1.0.2/MSDK/ble/app\app_sec_mgr.c ****         param.auth |= BLE_GAP_AUTH_MASK_BOND;
 957              		.loc 1 121 8
 958 0090 03C70700 		lbu	a4,%lo(.LANCHOR0)(a5)
 119:C:/Users/stapi/OneDrive/Desktop/GD32VW553/GD32VW55X_Wifi_BLE_SDK/GD32VW55x_RELEASE_V1.0.2/MSDK/ble/app\app_sec_mgr.c **** 
 959              		.loc 1 119 16
 960 0094 23030100 		sb	zero,6(sp)
 121:C:/Users/stapi/OneDrive/Desktop/GD32VW553/GD32VW55X_Wifi_BLE_SDK/GD32VW55x_RELEASE_V1.0.2/MSDK/ble/app\app_sec_mgr.c ****         param.auth |= BLE_GAP_AUTH_MASK_BOND;
 961              		.loc 1 121 5 is_stmt 1
 962 0098 93870700 		addi	a5,a5,%lo(.LANCHOR0)
 121:C:/Users/stapi/OneDrive/Desktop/GD32VW553/GD32VW55X_Wifi_BLE_SDK/GD32VW55x_RELEASE_V1.0.2/MSDK/ble/app\app_sec_mgr.c ****         param.auth |= BLE_GAP_AUTH_MASK_BOND;
 963              		.loc 1 121 8 is_stmt 0
 964 009c 01C7     		beq	a4,zero,.L104
 122:C:/Users/stapi/OneDrive/Desktop/GD32VW553/GD32VW55X_Wifi_BLE_SDK/GD32VW55x_RELEASE_V1.0.2/MSDK/ble/app\app_sec_mgr.c ****     }
 965              		.loc 1 122 9 is_stmt 1
 122:C:/Users/stapi/OneDrive/Desktop/GD32VW553/GD32VW55X_Wifi_BLE_SDK/GD32VW55x_RELEASE_V1.0.2/MSDK/ble/app\app_sec_mgr.c ****     }
 966              		.loc 1 122 20 is_stmt 0
 967 009e 0547     		li	a4,1
 968 00a0 2303E100 		sb	a4,6(sp)
 969              	.L104:
 125:C:/Users/stapi/OneDrive/Desktop/GD32VW553/GD32VW55X_Wifi_BLE_SDK/GD32VW55x_RELEASE_V1.0.2/MSDK/ble/app\app_sec_mgr.c ****         param.auth |= BLE_GAP_AUTH_MASK_MITM;
 970              		.loc 1 125 5 is_stmt 1
 125:C:/Users/stapi/OneDrive/Desktop/GD32VW553/GD32VW55X_Wifi_BLE_SDK/GD32VW55x_RELEASE_V1.0.2/MSDK/ble/app\app_sec_mgr.c ****         param.auth |= BLE_GAP_AUTH_MASK_MITM;
 971              		.loc 1 125 8 is_stmt 0
 972 00a4 03C71700 		lbu	a4,1(a5)
 973 00a8 19C7     		beq	a4,zero,.L105
 126:C:/Users/stapi/OneDrive/Desktop/GD32VW553/GD32VW55X_Wifi_BLE_SDK/GD32VW55x_RELEASE_V1.0.2/MSDK/ble/app\app_sec_mgr.c ****     }
 974              		.loc 1 126 9 is_stmt 1
 126:C:/Users/stapi/OneDrive/Desktop/GD32VW553/GD32VW55X_Wifi_BLE_SDK/GD32VW55x_RELEASE_V1.0.2/MSDK/ble/app\app_sec_mgr.c ****     }
 975              		.loc 1 126 20 is_stmt 0
 976 00aa 03476100 		lbu	a4,6(sp)
 977 00ae 13674700 		ori	a4,a4,4
 978 00b2 2303E100 		sb	a4,6(sp)
 979              	.L105:
 129:C:/Users/stapi/OneDrive/Desktop/GD32VW553/GD32VW55X_Wifi_BLE_SDK/GD32VW55x_RELEASE_V1.0.2/MSDK/ble/app\app_sec_mgr.c ****         param.auth |= BLE_GAP_AUTH_MASK_SEC_CON;
 980              		.loc 1 129 5 is_stmt 1
 129:C:/Users/stapi/OneDrive/Desktop/GD32VW553/GD32VW55X_Wifi_BLE_SDK/GD32VW55x_RELEASE_V1.0.2/MSDK/ble/app\app_sec_mgr.c ****         param.auth |= BLE_GAP_AUTH_MASK_SEC_CON;
 981              		.loc 1 129 20 is_stmt 0
 982 00b6 03C62700 		lbu	a2,2(a5)
 129:C:/Users/stapi/OneDrive/Desktop/GD32VW553/GD32VW55X_Wifi_BLE_SDK/GD32VW55x_RELEASE_V1.0.2/MSDK/ble/app\app_sec_mgr.c ****         param.auth |= BLE_GAP_AUTH_MASK_SEC_CON;
 983              		.loc 1 129 8
 984 00ba 19C6     		beq	a2,zero,.L106
 130:C:/Users/stapi/OneDrive/Desktop/GD32VW553/GD32VW55X_Wifi_BLE_SDK/GD32VW55x_RELEASE_V1.0.2/MSDK/ble/app\app_sec_mgr.c ****     }
 985              		.loc 1 130 9 is_stmt 1
 130:C:/Users/stapi/OneDrive/Desktop/GD32VW553/GD32VW55X_Wifi_BLE_SDK/GD32VW55x_RELEASE_V1.0.2/MSDK/ble/app\app_sec_mgr.c ****     }
 986              		.loc 1 130 20 is_stmt 0
 987 00bc 03476100 		lbu	a4,6(sp)
 988 00c0 13678700 		ori	a4,a4,8
 989 00c4 2303E100 		sb	a4,6(sp)
 990              	.L106:
 133:C:/Users/stapi/OneDrive/Desktop/GD32VW553/GD32VW55X_Wifi_BLE_SDK/GD32VW55x_RELEASE_V1.0.2/MSDK/ble/app\app_sec_mgr.c ****     param.key_size = app_sec_env.key_size;
 991              		.loc 1 133 5 is_stmt 1
 133:C:/Users/stapi/OneDrive/Desktop/GD32VW553/GD32VW55X_Wifi_BLE_SDK/GD32VW55x_RELEASE_V1.0.2/MSDK/ble/app\app_sec_mgr.c ****     param.key_size = app_sec_env.key_size;
 992              		.loc 1 133 17 is_stmt 0
 993 00c8 03C74700 		lbu	a4,4(a5)
 118:C:/Users/stapi/OneDrive/Desktop/GD32VW553/GD32VW55X_Wifi_BLE_SDK/GD32VW55x_RELEASE_V1.0.2/MSDK/ble/app\app_sec_mgr.c ****     param.auth = BLE_GAP_AUTH_MASK_NONE;
 994              		.loc 1 118 17
 995 00cc 8146     		li	a3,0
 133:C:/Users/stapi/OneDrive/Desktop/GD32VW553/GD32VW55X_Wifi_BLE_SDK/GD32VW55x_RELEASE_V1.0.2/MSDK/ble/app\app_sec_mgr.c ****     param.key_size = app_sec_env.key_size;
 996              		.loc 1 133 17
 997 00ce 2302E100 		sb	a4,4(sp)
 134:C:/Users/stapi/OneDrive/Desktop/GD32VW553/GD32VW55X_Wifi_BLE_SDK/GD32VW55x_RELEASE_V1.0.2/MSDK/ble/app\app_sec_mgr.c ****     param.oob = app_sec_env.oob;
 998              		.loc 1 134 5 is_stmt 1
 134:C:/Users/stapi/OneDrive/Desktop/GD32VW553/GD32VW55X_Wifi_BLE_SDK/GD32VW55x_RELEASE_V1.0.2/MSDK/ble/app\app_sec_mgr.c ****     param.oob = app_sec_env.oob;
 999              		.loc 1 134 20 is_stmt 0
 1000 00d2 03C75700 		lbu	a4,5(a5)
 1001 00d6 A303E100 		sb	a4,7(sp)
 135:C:/Users/stapi/OneDrive/Desktop/GD32VW553/GD32VW55X_Wifi_BLE_SDK/GD32VW55x_RELEASE_V1.0.2/MSDK/ble/app\app_sec_mgr.c **** 
 1002              		.loc 1 135 5 is_stmt 1
 135:C:/Users/stapi/OneDrive/Desktop/GD32VW553/GD32VW55X_Wifi_BLE_SDK/GD32VW55x_RELEASE_V1.0.2/MSDK/ble/app\app_sec_mgr.c **** 
 1003              		.loc 1 135 15 is_stmt 0
 1004 00da 03C76700 		lbu	a4,6(a5)
 137:C:/Users/stapi/OneDrive/Desktop/GD32VW553/GD32VW55X_Wifi_BLE_SDK/GD32VW55x_RELEASE_V1.0.2/MSDK/ble/app\app_sec_mgr.c ****         sec_req_lvl = BLE_GAP_SEC1_SEC_CON_PAIR_ENC;
 1005              		.loc 1 137 8
 1006 00de 83C73700 		lbu	a5,3(a5)
 135:C:/Users/stapi/OneDrive/Desktop/GD32VW553/GD32VW55X_Wifi_BLE_SDK/GD32VW55x_RELEASE_V1.0.2/MSDK/ble/app\app_sec_mgr.c **** 
 1007              		.loc 1 135 15
 1008 00e2 A302E100 		sb	a4,5(sp)
 137:C:/Users/stapi/OneDrive/Desktop/GD32VW553/GD32VW55X_Wifi_BLE_SDK/GD32VW55x_RELEASE_V1.0.2/MSDK/ble/app\app_sec_mgr.c ****         sec_req_lvl = BLE_GAP_SEC1_SEC_CON_PAIR_ENC;
 1009              		.loc 1 137 5 is_stmt 1
 137:C:/Users/stapi/OneDrive/Desktop/GD32VW553/GD32VW55X_Wifi_BLE_SDK/GD32VW55x_RELEASE_V1.0.2/MSDK/ble/app\app_sec_mgr.c ****         sec_req_lvl = BLE_GAP_SEC1_SEC_CON_PAIR_ENC;
 1010              		.loc 1 137 8 is_stmt 0
 1011 00e6 91C3     		beq	a5,zero,.L107
 138:C:/Users/stapi/OneDrive/Desktop/GD32VW553/GD32VW55X_Wifi_BLE_SDK/GD32VW55x_RELEASE_V1.0.2/MSDK/ble/app\app_sec_mgr.c ****     }
 1012              		.loc 1 138 21
 1013 00e8 9546     		li	a3,5
 1014              	.L107:
 1015              	.LVL54:
 141:C:/Users/stapi/OneDrive/Desktop/GD32VW553/GD32VW55X_Wifi_BLE_SDK/GD32VW55x_RELEASE_V1.0.2/MSDK/ble/app\app_sec_mgr.c ****         param.ikey_dist = BLE_GAP_KDIST_IDKEY | BLE_GAP_KDIST_SIGNKEY;
 1016              		.loc 1 141 5 is_stmt 1
 142:C:/Users/stapi/OneDrive/Desktop/GD32VW553/GD32VW55X_Wifi_BLE_SDK/GD32VW55x_RELEASE_V1.0.2/MSDK/ble/app\app_sec_mgr.c ****         param.rkey_dist = BLE_GAP_KDIST_IDKEY | BLE_GAP_KDIST_SIGNKEY;
 1017              		.loc 1 142 25 is_stmt 0
 1018 00ea 93076060 		li	a5,1542
 141:C:/Users/stapi/OneDrive/Desktop/GD32VW553/GD32VW55X_Wifi_BLE_SDK/GD32VW55x_RELEASE_V1.0.2/MSDK/ble/app\app_sec_mgr.c ****         param.ikey_dist = BLE_GAP_KDIST_IDKEY | BLE_GAP_KDIST_SIGNKEY;
 1019              		.loc 1 141 8
 1020 00ee 19E2     		bne	a2,zero,.L226
 145:C:/Users/stapi/OneDrive/Desktop/GD32VW553/GD32VW55X_Wifi_BLE_SDK/GD32VW55x_RELEASE_V1.0.2/MSDK/ble/app\app_sec_mgr.c ****         param.rkey_dist = BLE_GAP_KDIST_IDKEY | BLE_GAP_KDIST_SIGNKEY | BLE_GAP_KDIST_ENCKEY;
 1021              		.loc 1 145 9 is_stmt 1
 146:C:/Users/stapi/OneDrive/Desktop/GD32VW553/GD32VW55X_Wifi_BLE_SDK/GD32VW55x_RELEASE_V1.0.2/MSDK/ble/app\app_sec_mgr.c ****     }
 1022              		.loc 1 146 9
 145:C:/Users/stapi/OneDrive/Desktop/GD32VW553/GD32VW55X_Wifi_BLE_SDK/GD32VW55x_RELEASE_V1.0.2/MSDK/ble/app\app_sec_mgr.c ****         param.rkey_dist = BLE_GAP_KDIST_IDKEY | BLE_GAP_KDIST_SIGNKEY | BLE_GAP_KDIST_ENCKEY;
 1023              		.loc 1 145 25 is_stmt 0
 1024 00f0 93077070 		li	a5,1799
 1025              	.L226:
 1026 00f4 2314F100 		sh	a5,8(sp)
 149:C:/Users/stapi/OneDrive/Desktop/GD32VW553/GD32VW55X_Wifi_BLE_SDK/GD32VW55x_RELEASE_V1.0.2/MSDK/ble/app\app_sec_mgr.c **** }
 1027              		.loc 1 149 5 is_stmt 1
 1028 00f8 5000     		addi	a2,sp,4
 1029 00fa 8545     		li	a1,1
 1030 00fc ADBF     		j	.L227
 1031              	.LVL55:
 1032              	.L94:
 1033              	.LBE36:
 1034              	.LBE43:
 606:C:/Users/stapi/OneDrive/Desktop/GD32VW553/GD32VW55X_Wifi_BLE_SDK/GD32VW55x_RELEASE_V1.0.2/MSDK/ble/app\app_sec_mgr.c ****         break;
 1035              		.loc 1 606 9
 1036              	.LBB44:
 1037              	.LBB45:
 160:C:/Users/stapi/OneDrive/Desktop/GD32VW553/GD32VW55X_Wifi_BLE_SDK/GD32VW55x_RELEASE_V1.0.2/MSDK/ble/app\app_sec_mgr.c ****     ble_gap_ltk_t ltk;
 1038              		.loc 1 160 5
 161:C:/Users/stapi/OneDrive/Desktop/GD32VW553/GD32VW55X_Wifi_BLE_SDK/GD32VW55x_RELEASE_V1.0.2/MSDK/ble/app\app_sec_mgr.c ****     ble_device_t *p_device = dm_find_dev_by_conidx(p_ind->conn_idx);
 1039              		.loc 1 161 5
 162:C:/Users/stapi/OneDrive/Desktop/GD32VW553/GD32VW55X_Wifi_BLE_SDK/GD32VW55x_RELEASE_V1.0.2/MSDK/ble/app\app_sec_mgr.c **** 
 1040              		.loc 1 162 5
 162:C:/Users/stapi/OneDrive/Desktop/GD32VW553/GD32VW55X_Wifi_BLE_SDK/GD32VW55x_RELEASE_V1.0.2/MSDK/ble/app\app_sec_mgr.c **** 
 1041              		.loc 1 162 30 is_stmt 0
 1042 00fe 03C50500 		lbu	a0,0(a1)
 1043 0102 37090000 		lui	s2,%hi(global_debug_level)
 1044 0106 97000000 		call	dm_find_dev_by_conidx
 1044      E7800000 
 1045              	.LVL56:
 1046 010e AA84     		mv	s1,a0
 1047              	.LVL57:
 164:C:/Users/stapi/OneDrive/Desktop/GD32VW553/GD32VW55X_Wifi_BLE_SDK/GD32VW55x_RELEASE_V1.0.2/MSDK/ble/app\app_sec_mgr.c ****         dbg_print(NOTICE, "app_ltk_req_hdlr can't find device !\r\n");
 1048              		.loc 1 164 5 is_stmt 1
 164:C:/Users/stapi/OneDrive/Desktop/GD32VW553/GD32VW55X_Wifi_BLE_SDK/GD32VW55x_RELEASE_V1.0.2/MSDK/ble/app\app_sec_mgr.c ****         dbg_print(NOTICE, "app_ltk_req_hdlr can't find device !\r\n");
 1049              		.loc 1 164 8 is_stmt 0
 1050 0110 1DE5     		bne	a0,zero,.L110
 165:C:/Users/stapi/OneDrive/Desktop/GD32VW553/GD32VW55X_Wifi_BLE_SDK/GD32VW55x_RELEASE_V1.0.2/MSDK/ble/app\app_sec_mgr.c ****         ble_sec_ltk_req_cfm(p_ind->conn_idx, false, NULL);
 1051              		.loc 1 165 9 is_stmt 1
 165:C:/Users/stapi/OneDrive/Desktop/GD32VW553/GD32VW55X_Wifi_BLE_SDK/GD32VW55x_RELEASE_V1.0.2/MSDK/ble/app\app_sec_mgr.c ****         ble_sec_ltk_req_cfm(p_ind->conn_idx, false, NULL);
 1052              		.loc 1 165 9
 1053 0112 03470900 		lbu	a4,%lo(global_debug_level)(s2)
 1054 0116 8947     		li	a5,2
 1055 0118 63FAE700 		bleu	a4,a5,.L111
 165:C:/Users/stapi/OneDrive/Desktop/GD32VW553/GD32VW55X_Wifi_BLE_SDK/GD32VW55x_RELEASE_V1.0.2/MSDK/ble/app\app_sec_mgr.c ****         ble_sec_ltk_req_cfm(p_ind->conn_idx, false, NULL);
 1056              		.loc 1 165 9
 1057 011c 37050000 		lui	a0,%hi(.LC8)
 1058 0120 13050500 		addi	a0,a0,%lo(.LC8)
 1059 0124 97000000 		call	co_printf
 1059      E7800000 
 1060              	.LVL58:
 1061              	.L111:
 165:C:/Users/stapi/OneDrive/Desktop/GD32VW553/GD32VW55X_Wifi_BLE_SDK/GD32VW55x_RELEASE_V1.0.2/MSDK/ble/app\app_sec_mgr.c ****         ble_sec_ltk_req_cfm(p_ind->conn_idx, false, NULL);
 1062              		.loc 1 165 9
 166:C:/Users/stapi/OneDrive/Desktop/GD32VW553/GD32VW55X_Wifi_BLE_SDK/GD32VW55x_RELEASE_V1.0.2/MSDK/ble/app\app_sec_mgr.c ****         return;
 1063              		.loc 1 166 9
 1064 012c 0146     		li	a2,0
 1065 012e 8145     		li	a1,0
 1066              	.LVL59:
 1067              	.L228:
 192:C:/Users/stapi/OneDrive/Desktop/GD32VW553/GD32VW55X_Wifi_BLE_SDK/GD32VW55x_RELEASE_V1.0.2/MSDK/ble/app\app_sec_mgr.c **** }
 1068              		.loc 1 192 5 is_stmt 0
 1069 0130 03450400 		lbu	a0,0(s0)
 1070 0134 97000000 		call	ble_sec_ltk_req_cfm
 1070      E7800000 
 1071              	.LVL60:
 1072 013c 99B7     		j	.L77
 1073              	.LVL61:
 1074              	.L110:
 170:C:/Users/stapi/OneDrive/Desktop/GD32VW553/GD32VW55X_Wifi_BLE_SDK/GD32VW55x_RELEASE_V1.0.2/MSDK/ble/app\app_sec_mgr.c ****     // Generate all the values
 1075              		.loc 1 170 5 is_stmt 1
 170:C:/Users/stapi/OneDrive/Desktop/GD32VW553/GD32VW55X_Wifi_BLE_SDK/GD32VW55x_RELEASE_V1.0.2/MSDK/ble/app\app_sec_mgr.c ****     // Generate all the values
 1076              		.loc 1 170 18 is_stmt 0
 1077 013e 83471400 		lbu	a5,1(s0)
 172:C:/Users/stapi/OneDrive/Desktop/GD32VW553/GD32VW55X_Wifi_BLE_SDK/GD32VW55x_RELEASE_V1.0.2/MSDK/ble/app\app_sec_mgr.c ****     sys_random_bytes_get(ltk.rnd_num, BLE_GAP_RANDOM_NUMBER_LEN);
 1078              		.loc 1 172 5
 1079 0142 8945     		li	a1,2
 1080 0144 4808     		addi	a0,sp,20
 170:C:/Users/stapi/OneDrive/Desktop/GD32VW553/GD32VW55X_Wifi_BLE_SDK/GD32VW55x_RELEASE_V1.0.2/MSDK/ble/app\app_sec_mgr.c ****     // Generate all the values
 1081              		.loc 1 170 18
 1082 0146 230FF100 		sb	a5,30(sp)
 172:C:/Users/stapi/OneDrive/Desktop/GD32VW553/GD32VW55X_Wifi_BLE_SDK/GD32VW55x_RELEASE_V1.0.2/MSDK/ble/app\app_sec_mgr.c ****     sys_random_bytes_get(ltk.rnd_num, BLE_GAP_RANDOM_NUMBER_LEN);
 1083              		.loc 1 172 5 is_stmt 1
 1084 014a 97000000 		call	sys_random_bytes_get
 1084      E7800000 
 1085              	.LVL62:
 173:C:/Users/stapi/OneDrive/Desktop/GD32VW553/GD32VW55X_Wifi_BLE_SDK/GD32VW55x_RELEASE_V1.0.2/MSDK/ble/app\app_sec_mgr.c ****     sys_random_bytes_get(ltk.ltk, BLE_GAP_KEY_LEN);
 1086              		.loc 1 173 5
 1087 0152 A145     		li	a1,8
 1088 0154 13056101 		addi	a0,sp,22
 1089 0158 97000000 		call	sys_random_bytes_get
 1089      E7800000 
 1090              	.LVL63:
 174:C:/Users/stapi/OneDrive/Desktop/GD32VW553/GD32VW55X_Wifi_BLE_SDK/GD32VW55x_RELEASE_V1.0.2/MSDK/ble/app\app_sec_mgr.c **** 
 1091              		.loc 1 174 5
 1092 0160 C145     		li	a1,16
 1093 0162 4800     		addi	a0,sp,4
 1094 0164 97000000 		call	sys_random_bytes_get
 1094      E7800000 
 1095              	.LVL64:
 176:C:/Users/stapi/OneDrive/Desktop/GD32VW553/GD32VW55X_Wifi_BLE_SDK/GD32VW55x_RELEASE_V1.0.2/MSDK/ble/app\app_sec_mgr.c ****         p_device->bond_info.local_ltk.key_size = p_ind->key_size;
 1096              		.loc 1 176 5
 176:C:/Users/stapi/OneDrive/Desktop/GD32VW553/GD32VW55X_Wifi_BLE_SDK/GD32VW55x_RELEASE_V1.0.2/MSDK/ble/app\app_sec_mgr.c ****         p_device->bond_info.local_ltk.key_size = p_ind->key_size;
 1097              		.loc 1 176 8 is_stmt 0
 1098 016c B7070000 		lui	a5,%hi(.LANCHOR0)
 1099 0170 83C70700 		lbu	a5,%lo(.LANCHOR0)(a5)
 1100 0174 95CB     		beq	a5,zero,.L112
 177:C:/Users/stapi/OneDrive/Desktop/GD32VW553/GD32VW55X_Wifi_BLE_SDK/GD32VW55x_RELEASE_V1.0.2/MSDK/ble/app\app_sec_mgr.c ****         p_device->bond_info.local_ltk.ediv = ltk.ediv;
 1101              		.loc 1 177 9 is_stmt 1
 177:C:/Users/stapi/OneDrive/Desktop/GD32VW553/GD32VW55X_Wifi_BLE_SDK/GD32VW55x_RELEASE_V1.0.2/MSDK/ble/app\app_sec_mgr.c ****         p_device->bond_info.local_ltk.ediv = ltk.ediv;
 1102              		.loc 1 177 48 is_stmt 0
 1103 0176 83471400 		lbu	a5,1(s0)
 179:C:/Users/stapi/OneDrive/Desktop/GD32VW553/GD32VW55X_Wifi_BLE_SDK/GD32VW55x_RELEASE_V1.0.2/MSDK/ble/app\app_sec_mgr.c ****         memcpy(p_device->bond_info.local_ltk.rnd_num, ltk.rnd_num, BLE_GAP_RANDOM_NUMBER_LEN);
 1104              		.loc 1 179 9
 1105 017a 4146     		li	a2,16
 1106 017c 4C00     		addi	a1,sp,4
 177:C:/Users/stapi/OneDrive/Desktop/GD32VW553/GD32VW55X_Wifi_BLE_SDK/GD32VW55x_RELEASE_V1.0.2/MSDK/ble/app\app_sec_mgr.c ****         p_device->bond_info.local_ltk.ediv = ltk.ediv;
 1107              		.loc 1 177 48
 1108 017e 2389F408 		sb	a5,146(s1)
 178:C:/Users/stapi/OneDrive/Desktop/GD32VW553/GD32VW55X_Wifi_BLE_SDK/GD32VW55x_RELEASE_V1.0.2/MSDK/ble/app\app_sec_mgr.c ****         memcpy(p_device->bond_info.local_ltk.ltk, ltk.ltk, BLE_GAP_KEY_LEN);
 1109              		.loc 1 178 9 is_stmt 1
 178:C:/Users/stapi/OneDrive/Desktop/GD32VW553/GD32VW55X_Wifi_BLE_SDK/GD32VW55x_RELEASE_V1.0.2/MSDK/ble/app\app_sec_mgr.c ****         memcpy(p_device->bond_info.local_ltk.ltk, ltk.ltk, BLE_GAP_KEY_LEN);
 1110              		.loc 1 178 44 is_stmt 0
 1111 0182 83574101 		lhu	a5,20(sp)
 179:C:/Users/stapi/OneDrive/Desktop/GD32VW553/GD32VW55X_Wifi_BLE_SDK/GD32VW55x_RELEASE_V1.0.2/MSDK/ble/app\app_sec_mgr.c ****         memcpy(p_device->bond_info.local_ltk.rnd_num, ltk.rnd_num, BLE_GAP_RANDOM_NUMBER_LEN);
 1112              		.loc 1 179 9
 1113 0186 13858407 		addi	a0,s1,120
 178:C:/Users/stapi/OneDrive/Desktop/GD32VW553/GD32VW55X_Wifi_BLE_SDK/GD32VW55x_RELEASE_V1.0.2/MSDK/ble/app\app_sec_mgr.c ****         memcpy(p_device->bond_info.local_ltk.ltk, ltk.ltk, BLE_GAP_KEY_LEN);
 1114              		.loc 1 178 44
 1115 018a 2394F408 		sh	a5,136(s1)
 179:C:/Users/stapi/OneDrive/Desktop/GD32VW553/GD32VW55X_Wifi_BLE_SDK/GD32VW55x_RELEASE_V1.0.2/MSDK/ble/app\app_sec_mgr.c ****         memcpy(p_device->bond_info.local_ltk.rnd_num, ltk.rnd_num, BLE_GAP_RANDOM_NUMBER_LEN);
 1116              		.loc 1 179 9 is_stmt 1
 1117 018e 97000000 		call	memcpy
 1117      E7800000 
 1118              	.LVL65:
 180:C:/Users/stapi/OneDrive/Desktop/GD32VW553/GD32VW55X_Wifi_BLE_SDK/GD32VW55x_RELEASE_V1.0.2/MSDK/ble/app\app_sec_mgr.c ****     }
 1119              		.loc 1 180 9
 1120 0196 2146     		li	a2,8
 1121 0198 93056101 		addi	a1,sp,22
 1122 019c 1385A408 		addi	a0,s1,138
 1123 01a0 97000000 		call	memcpy
 1123      E7800000 
 1124              	.LVL66:
 1125              	.L112:
 183:C:/Users/stapi/OneDrive/Desktop/GD32VW553/GD32VW55X_Wifi_BLE_SDK/GD32VW55x_RELEASE_V1.0.2/MSDK/ble/app\app_sec_mgr.c **** 
 1126              		.loc 1 183 5
 183:C:/Users/stapi/OneDrive/Desktop/GD32VW553/GD32VW55X_Wifi_BLE_SDK/GD32VW55x_RELEASE_V1.0.2/MSDK/ble/app\app_sec_mgr.c **** 
 1127              		.loc 1 183 33 is_stmt 0
 1128 01a8 BC40     		lw	a5,64(s1)
 185:C:/Users/stapi/OneDrive/Desktop/GD32VW553/GD32VW55X_Wifi_BLE_SDK/GD32VW55x_RELEASE_V1.0.2/MSDK/ble/app\app_sec_mgr.c ****     for (i = 0; i < BLE_GAP_KEY_LEN; i++) {
 1129              		.loc 1 185 5
 1130 01aa 03470900 		lbu	a4,%lo(global_debug_level)(s2)
 183:C:/Users/stapi/OneDrive/Desktop/GD32VW553/GD32VW55X_Wifi_BLE_SDK/GD32VW55x_RELEASE_V1.0.2/MSDK/ble/app\app_sec_mgr.c **** 
 1131              		.loc 1 183 33
 1132 01ae 93E71700 		ori	a5,a5,1
 1133 01b2 BCC0     		sw	a5,64(s1)
 185:C:/Users/stapi/OneDrive/Desktop/GD32VW553/GD32VW55X_Wifi_BLE_SDK/GD32VW55x_RELEASE_V1.0.2/MSDK/ble/app\app_sec_mgr.c ****     for (i = 0; i < BLE_GAP_KEY_LEN; i++) {
 1134              		.loc 1 185 5 is_stmt 1
 185:C:/Users/stapi/OneDrive/Desktop/GD32VW553/GD32VW55X_Wifi_BLE_SDK/GD32VW55x_RELEASE_V1.0.2/MSDK/ble/app\app_sec_mgr.c ****     for (i = 0; i < BLE_GAP_KEY_LEN; i++) {
 1135              		.loc 1 185 5
 1136 01b4 8947     		li	a5,2
 1137 01b6 63FEE700 		bleu	a4,a5,.L113
 185:C:/Users/stapi/OneDrive/Desktop/GD32VW553/GD32VW55X_Wifi_BLE_SDK/GD32VW55x_RELEASE_V1.0.2/MSDK/ble/app\app_sec_mgr.c ****     for (i = 0; i < BLE_GAP_KEY_LEN; i++) {
 1138              		.loc 1 185 5
 1139 01ba 03461400 		lbu	a2,1(s0)
 1140 01be 83450400 		lbu	a1,0(s0)
 1141 01c2 37050000 		lui	a0,%hi(.LC9)
 1142 01c6 13050500 		addi	a0,a0,%lo(.LC9)
 1143 01ca 97000000 		call	co_printf
 1143      E7800000 
 1144              	.LVL67:
 1145              	.L113:
 1146              	.LBE45:
 1147              	.LBE44:
 1148              	.LBB47:
 1149              	.LBB37:
 138:C:/Users/stapi/OneDrive/Desktop/GD32VW553/GD32VW55X_Wifi_BLE_SDK/GD32VW55x_RELEASE_V1.0.2/MSDK/ble/app\app_sec_mgr.c ****     }
 1150              		.loc 1 138 21 is_stmt 0
 1151 01d2 8144     		li	s1,0
 1152              	.LVL68:
 1153              	.LBE37:
 1154              	.LBE47:
 1155              	.LBB48:
 1156              	.LBB46:
 187:C:/Users/stapi/OneDrive/Desktop/GD32VW553/GD32VW55X_Wifi_BLE_SDK/GD32VW55x_RELEASE_V1.0.2/MSDK/ble/app\app_sec_mgr.c ****     }
 1157              		.loc 1 187 9
 1158 01d4 094A     		li	s4,2
 1159 01d6 B70A0000 		lui	s5,%hi(.LC10)
 186:C:/Users/stapi/OneDrive/Desktop/GD32VW553/GD32VW55X_Wifi_BLE_SDK/GD32VW55x_RELEASE_V1.0.2/MSDK/ble/app\app_sec_mgr.c ****         dbg_print(NOTICE, "%x", ltk.ltk[i]);
 1160              		.loc 1 186 5
 1161 01da C149     		li	s3,16
 1162              	.L115:
 1163              	.LVL69:
 187:C:/Users/stapi/OneDrive/Desktop/GD32VW553/GD32VW55X_Wifi_BLE_SDK/GD32VW55x_RELEASE_V1.0.2/MSDK/ble/app\app_sec_mgr.c ****     }
 1164              		.loc 1 187 9 is_stmt 1
 187:C:/Users/stapi/OneDrive/Desktop/GD32VW553/GD32VW55X_Wifi_BLE_SDK/GD32VW55x_RELEASE_V1.0.2/MSDK/ble/app\app_sec_mgr.c ****     }
 1165              		.loc 1 187 9
 1166 01dc 83470900 		lbu	a5,%lo(global_debug_level)(s2)
 1167 01e0 637CFA00 		bleu	a5,s4,.L114
 187:C:/Users/stapi/OneDrive/Desktop/GD32VW553/GD32VW55X_Wifi_BLE_SDK/GD32VW55x_RELEASE_V1.0.2/MSDK/ble/app\app_sec_mgr.c ****     }
 1168              		.loc 1 187 9
 1169 01e4 5C00     		addi	a5,sp,4
 1170 01e6 A697     		add	a5,a5,s1
 1171 01e8 83C50700 		lbu	a1,0(a5)
 1172 01ec 13850A00 		addi	a0,s5,%lo(.LC10)
 1173 01f0 97000000 		call	co_printf
 1173      E7800000 
 1174              	.LVL70:
 1175              	.L114:
 187:C:/Users/stapi/OneDrive/Desktop/GD32VW553/GD32VW55X_Wifi_BLE_SDK/GD32VW55x_RELEASE_V1.0.2/MSDK/ble/app\app_sec_mgr.c ****     }
 1176              		.loc 1 187 9
 186:C:/Users/stapi/OneDrive/Desktop/GD32VW553/GD32VW55X_Wifi_BLE_SDK/GD32VW55x_RELEASE_V1.0.2/MSDK/ble/app\app_sec_mgr.c ****         dbg_print(NOTICE, "%x", ltk.ltk[i]);
 1177              		.loc 1 186 38
 186:C:/Users/stapi/OneDrive/Desktop/GD32VW553/GD32VW55X_Wifi_BLE_SDK/GD32VW55x_RELEASE_V1.0.2/MSDK/ble/app\app_sec_mgr.c ****         dbg_print(NOTICE, "%x", ltk.ltk[i]);
 1178              		.loc 1 186 17
 186:C:/Users/stapi/OneDrive/Desktop/GD32VW553/GD32VW55X_Wifi_BLE_SDK/GD32VW55x_RELEASE_V1.0.2/MSDK/ble/app\app_sec_mgr.c ****         dbg_print(NOTICE, "%x", ltk.ltk[i]);
 1179              		.loc 1 186 5 is_stmt 0
 1180 01f8 8504     		addi	s1,s1,1
 1181              	.LVL71:
 1182 01fa E39134FF 		bne	s1,s3,.L115
 190:C:/Users/stapi/OneDrive/Desktop/GD32VW553/GD32VW55X_Wifi_BLE_SDK/GD32VW55x_RELEASE_V1.0.2/MSDK/ble/app\app_sec_mgr.c **** 
 1183              		.loc 1 190 5 is_stmt 1
 190:C:/Users/stapi/OneDrive/Desktop/GD32VW553/GD32VW55X_Wifi_BLE_SDK/GD32VW55x_RELEASE_V1.0.2/MSDK/ble/app\app_sec_mgr.c **** 
 1184              		.loc 1 190 5
 1185 01fe 03470900 		lbu	a4,%lo(global_debug_level)(s2)
 1186 0202 8947     		li	a5,2
 1187 0204 63FAE700 		bleu	a4,a5,.L116
 190:C:/Users/stapi/OneDrive/Desktop/GD32VW553/GD32VW55X_Wifi_BLE_SDK/GD32VW55x_RELEASE_V1.0.2/MSDK/ble/app\app_sec_mgr.c **** 
 1188              		.loc 1 190 5
 1189 0208 37050000 		lui	a0,%hi(.LC11)
 1190 020c 13050500 		addi	a0,a0,%lo(.LC11)
 1191 0210 97000000 		call	co_printf
 1191      E7800000 
 1192              	.LVL72:
 1193              	.L116:
 190:C:/Users/stapi/OneDrive/Desktop/GD32VW553/GD32VW55X_Wifi_BLE_SDK/GD32VW55x_RELEASE_V1.0.2/MSDK/ble/app\app_sec_mgr.c **** 
 1194              		.loc 1 190 5
 192:C:/Users/stapi/OneDrive/Desktop/GD32VW553/GD32VW55X_Wifi_BLE_SDK/GD32VW55x_RELEASE_V1.0.2/MSDK/ble/app\app_sec_mgr.c **** }
 1195              		.loc 1 192 5
 1196 0218 5000     		addi	a2,sp,4
 1197 021a 8545     		li	a1,1
 1198 021c 11BF     		j	.L228
 1199              	.LVL73:
 1200              	.L93:
 1201              	.LBE46:
 1202              	.LBE48:
 610:C:/Users/stapi/OneDrive/Desktop/GD32VW553/GD32VW55X_Wifi_BLE_SDK/GD32VW55x_RELEASE_V1.0.2/MSDK/ble/app\app_sec_mgr.c ****         break;
 1203              		.loc 1 610 9
 1204              	.LBB49:
 1205              	.LBB50:
 204:C:/Users/stapi/OneDrive/Desktop/GD32VW553/GD32VW55X_Wifi_BLE_SDK/GD32VW55x_RELEASE_V1.0.2/MSDK/ble/app\app_sec_mgr.c ****     ble_device_t *p_device = dm_find_dev_by_conidx(p_ind->conn_idx);
 1206              		.loc 1 204 5
 204:C:/Users/stapi/OneDrive/Desktop/GD32VW553/GD32VW55X_Wifi_BLE_SDK/GD32VW55x_RELEASE_V1.0.2/MSDK/ble/app\app_sec_mgr.c ****     ble_device_t *p_device = dm_find_dev_by_conidx(p_ind->conn_idx);
 1207              		.loc 1 204 55 is_stmt 0
 1208 021e B7C40D00 		li	s1,901120
 204:C:/Users/stapi/OneDrive/Desktop/GD32VW553/GD32VW55X_Wifi_BLE_SDK/GD32VW55x_RELEASE_V1.0.2/MSDK/ble/app\app_sec_mgr.c ****     ble_device_t *p_device = dm_find_dev_by_conidx(p_ind->conn_idx);
 1209              		.loc 1 204 47
 1210 0222 97000000 		call	rand
 1210      E7800000 
 1211              	.LVL74:
 204:C:/Users/stapi/OneDrive/Desktop/GD32VW553/GD32VW55X_Wifi_BLE_SDK/GD32VW55x_RELEASE_V1.0.2/MSDK/ble/app\app_sec_mgr.c ****     ble_device_t *p_device = dm_find_dev_by_conidx(p_ind->conn_idx);
 1212              		.loc 1 204 55
 1213 022a 938404BA 		addi	s1,s1,-1120
 1214 022e 33759502 		remu	a0,a0,s1
 204:C:/Users/stapi/OneDrive/Desktop/GD32VW553/GD32VW55X_Wifi_BLE_SDK/GD32VW55x_RELEASE_V1.0.2/MSDK/ble/app\app_sec_mgr.c ****     ble_device_t *p_device = dm_find_dev_by_conidx(p_ind->conn_idx);
 1215              		.loc 1 204 14
 1216 0232 E164     		li	s1,98304
 1217 0234 9384046A 		addi	s1,s1,1696
 1218 0238 AA94     		add	s1,a0,s1
 1219              	.LVL75:
 205:C:/Users/stapi/OneDrive/Desktop/GD32VW553/GD32VW55X_Wifi_BLE_SDK/GD32VW55x_RELEASE_V1.0.2/MSDK/ble/app\app_sec_mgr.c **** 
 1220              		.loc 1 205 5 is_stmt 1
 205:C:/Users/stapi/OneDrive/Desktop/GD32VW553/GD32VW55X_Wifi_BLE_SDK/GD32VW55x_RELEASE_V1.0.2/MSDK/ble/app\app_sec_mgr.c **** 
 1221              		.loc 1 205 30 is_stmt 0
 1222 023a 03450400 		lbu	a0,0(s0)
 1223 023e 97000000 		call	dm_find_dev_by_conidx
 1223      E7800000 
 1224              	.LVL76:
 207:C:/Users/stapi/OneDrive/Desktop/GD32VW553/GD32VW55X_Wifi_BLE_SDK/GD32VW55x_RELEASE_V1.0.2/MSDK/ble/app\app_sec_mgr.c ****         dbg_print(NOTICE, "app_key_display_req_hdlr can't find device !\r\n");
 1225              		.loc 1 207 5 is_stmt 1
 1226 0246 B7070000 		lui	a5,%hi(global_debug_level)
 208:C:/Users/stapi/OneDrive/Desktop/GD32VW553/GD32VW55X_Wifi_BLE_SDK/GD32VW55x_RELEASE_V1.0.2/MSDK/ble/app\app_sec_mgr.c ****         ble_sec_key_display_enter_cfm(p_ind->conn_idx, false, pin_code);
 1227              		.loc 1 208 9 is_stmt 0
 1228 024a 03C70700 		lbu	a4,%lo(global_debug_level)(a5)
 1229 024e 8947     		li	a5,2
 207:C:/Users/stapi/OneDrive/Desktop/GD32VW553/GD32VW55X_Wifi_BLE_SDK/GD32VW55x_RELEASE_V1.0.2/MSDK/ble/app\app_sec_mgr.c ****         dbg_print(NOTICE, "app_key_display_req_hdlr can't find device !\r\n");
 1230              		.loc 1 207 8
 1231 0250 11ED     		bne	a0,zero,.L117
 208:C:/Users/stapi/OneDrive/Desktop/GD32VW553/GD32VW55X_Wifi_BLE_SDK/GD32VW55x_RELEASE_V1.0.2/MSDK/ble/app\app_sec_mgr.c ****         ble_sec_key_display_enter_cfm(p_ind->conn_idx, false, pin_code);
 1232              		.loc 1 208 9 is_stmt 1
 208:C:/Users/stapi/OneDrive/Desktop/GD32VW553/GD32VW55X_Wifi_BLE_SDK/GD32VW55x_RELEASE_V1.0.2/MSDK/ble/app\app_sec_mgr.c ****         ble_sec_key_display_enter_cfm(p_ind->conn_idx, false, pin_code);
 1233              		.loc 1 208 9
 1234 0252 63FAE700 		bleu	a4,a5,.L118
 208:C:/Users/stapi/OneDrive/Desktop/GD32VW553/GD32VW55X_Wifi_BLE_SDK/GD32VW55x_RELEASE_V1.0.2/MSDK/ble/app\app_sec_mgr.c ****         ble_sec_key_display_enter_cfm(p_ind->conn_idx, false, pin_code);
 1235              		.loc 1 208 9
 1236 0256 37050000 		lui	a0,%hi(.LC12)
 1237              	.LVL77:
 1238 025a 13050500 		addi	a0,a0,%lo(.LC12)
 1239 025e 97000000 		call	co_printf
 1239      E7800000 
 1240              	.LVL78:
 1241              	.L118:
 208:C:/Users/stapi/OneDrive/Desktop/GD32VW553/GD32VW55X_Wifi_BLE_SDK/GD32VW55x_RELEASE_V1.0.2/MSDK/ble/app\app_sec_mgr.c ****         ble_sec_key_display_enter_cfm(p_ind->conn_idx, false, pin_code);
 1242              		.loc 1 208 9
 209:C:/Users/stapi/OneDrive/Desktop/GD32VW553/GD32VW55X_Wifi_BLE_SDK/GD32VW55x_RELEASE_V1.0.2/MSDK/ble/app\app_sec_mgr.c ****         return;
 1243              		.loc 1 209 9
 1244 0266 2686     		mv	a2,s1
 1245              	.LVL79:
 1246              	.L237:
 1247              	.LBE50:
 1248              	.LBE49:
 1249              	.LBB52:
 1250              	.LBB53:
 231:C:/Users/stapi/OneDrive/Desktop/GD32VW553/GD32VW55X_Wifi_BLE_SDK/GD32VW55x_RELEASE_V1.0.2/MSDK/ble/app\app_sec_mgr.c ****         return;
 1251              		.loc 1 231 9 is_stmt 0
 1252 0268 8145     		li	a1,0
 1253 026a 31A8     		j	.L229
 1254              	.LVL80:
 1255              	.L117:
 1256              	.LBE53:
 1257              	.LBE52:
 1258              	.LBB55:
 1259              	.LBB51:
 213:C:/Users/stapi/OneDrive/Desktop/GD32VW553/GD32VW55X_Wifi_BLE_SDK/GD32VW55x_RELEASE_V1.0.2/MSDK/ble/app\app_sec_mgr.c **** 
 1260              		.loc 1 213 5 is_stmt 1
 213:C:/Users/stapi/OneDrive/Desktop/GD32VW553/GD32VW55X_Wifi_BLE_SDK/GD32VW55x_RELEASE_V1.0.2/MSDK/ble/app\app_sec_mgr.c **** 
 1261              		.loc 1 213 5
 1262 026c 63FBE700 		bleu	a4,a5,.L119
 213:C:/Users/stapi/OneDrive/Desktop/GD32VW553/GD32VW55X_Wifi_BLE_SDK/GD32VW55x_RELEASE_V1.0.2/MSDK/ble/app\app_sec_mgr.c **** 
 1263              		.loc 1 213 5
 1264 0270 37050000 		lui	a0,%hi(.LC13)
 1265              	.LVL81:
 1266 0274 A685     		mv	a1,s1
 1267 0276 13050500 		addi	a0,a0,%lo(.LC13)
 1268 027a 97000000 		call	co_printf
 1268      E7800000 
 1269              	.LVL82:
 1270              	.L119:
 213:C:/Users/stapi/OneDrive/Desktop/GD32VW553/GD32VW55X_Wifi_BLE_SDK/GD32VW55x_RELEASE_V1.0.2/MSDK/ble/app\app_sec_mgr.c **** 
 1271              		.loc 1 213 5
 215:C:/Users/stapi/OneDrive/Desktop/GD32VW553/GD32VW55X_Wifi_BLE_SDK/GD32VW55x_RELEASE_V1.0.2/MSDK/ble/app\app_sec_mgr.c **** }
 1272              		.loc 1 215 5
 1273 0282 2686     		mv	a2,s1
 1274 0284 8545     		li	a1,1
 1275              	.LVL83:
 1276              	.L229:
 1277 0286 03450400 		lbu	a0,0(s0)
 1278 028a 97000000 		call	ble_sec_key_display_enter_cfm
 1278      E7800000 
 1279              	.LVL84:
 1280 0292 C5BB     		j	.L77
 1281              	.L92:
 1282              	.LBE51:
 1283              	.LBE55:
 614:C:/Users/stapi/OneDrive/Desktop/GD32VW553/GD32VW55X_Wifi_BLE_SDK/GD32VW55x_RELEASE_V1.0.2/MSDK/ble/app\app_sec_mgr.c ****         break;
 1284              		.loc 1 614 9
 1285              	.LVL85:
 1286              	.LBB56:
 1287              	.LBB54:
 226:C:/Users/stapi/OneDrive/Desktop/GD32VW553/GD32VW55X_Wifi_BLE_SDK/GD32VW55x_RELEASE_V1.0.2/MSDK/ble/app\app_sec_mgr.c ****     ble_device_t *p_device = dm_find_dev_by_conidx(p_ind->conn_idx);
 1288              		.loc 1 226 5
 227:C:/Users/stapi/OneDrive/Desktop/GD32VW553/GD32VW55X_Wifi_BLE_SDK/GD32VW55x_RELEASE_V1.0.2/MSDK/ble/app\app_sec_mgr.c **** 
 1289              		.loc 1 227 5
 227:C:/Users/stapi/OneDrive/Desktop/GD32VW553/GD32VW55X_Wifi_BLE_SDK/GD32VW55x_RELEASE_V1.0.2/MSDK/ble/app\app_sec_mgr.c **** 
 1290              		.loc 1 227 30 is_stmt 0
 1291 0294 03C50500 		lbu	a0,0(a1)
 1292 0298 97000000 		call	dm_find_dev_by_conidx
 1292      E7800000 
 1293              	.LVL86:
 229:C:/Users/stapi/OneDrive/Desktop/GD32VW553/GD32VW55X_Wifi_BLE_SDK/GD32VW55x_RELEASE_V1.0.2/MSDK/ble/app\app_sec_mgr.c ****         dbg_print(NOTICE, "app_key_enter_req_hdlr can't find device !\r\n");
 1294              		.loc 1 229 5 is_stmt 1
 1295 02a0 B7070000 		lui	a5,%hi(global_debug_level)
 230:C:/Users/stapi/OneDrive/Desktop/GD32VW553/GD32VW55X_Wifi_BLE_SDK/GD32VW55x_RELEASE_V1.0.2/MSDK/ble/app\app_sec_mgr.c ****         ble_sec_key_display_enter_cfm(p_ind->conn_idx, false, pin_code);
 1296              		.loc 1 230 9 is_stmt 0
 1297 02a4 03C70700 		lbu	a4,%lo(global_debug_level)(a5)
 1298 02a8 8947     		li	a5,2
 229:C:/Users/stapi/OneDrive/Desktop/GD32VW553/GD32VW55X_Wifi_BLE_SDK/GD32VW55x_RELEASE_V1.0.2/MSDK/ble/app\app_sec_mgr.c ****         dbg_print(NOTICE, "app_key_enter_req_hdlr can't find device !\r\n");
 1299              		.loc 1 229 8
 1300 02aa 09ED     		bne	a0,zero,.L120
 230:C:/Users/stapi/OneDrive/Desktop/GD32VW553/GD32VW55X_Wifi_BLE_SDK/GD32VW55x_RELEASE_V1.0.2/MSDK/ble/app\app_sec_mgr.c ****         ble_sec_key_display_enter_cfm(p_ind->conn_idx, false, pin_code);
 1301              		.loc 1 230 9 is_stmt 1
 230:C:/Users/stapi/OneDrive/Desktop/GD32VW553/GD32VW55X_Wifi_BLE_SDK/GD32VW55x_RELEASE_V1.0.2/MSDK/ble/app\app_sec_mgr.c ****         ble_sec_key_display_enter_cfm(p_ind->conn_idx, false, pin_code);
 1302              		.loc 1 230 9
 1303 02ac 63FAE700 		bleu	a4,a5,.L121
 230:C:/Users/stapi/OneDrive/Desktop/GD32VW553/GD32VW55X_Wifi_BLE_SDK/GD32VW55x_RELEASE_V1.0.2/MSDK/ble/app\app_sec_mgr.c ****         ble_sec_key_display_enter_cfm(p_ind->conn_idx, false, pin_code);
 1304              		.loc 1 230 9
 1305 02b0 37050000 		lui	a0,%hi(.LC14)
 1306              	.LVL87:
 1307 02b4 13050500 		addi	a0,a0,%lo(.LC14)
 1308 02b8 97000000 		call	co_printf
 1308      E7800000 
 1309              	.LVL88:
 1310              	.L121:
 230:C:/Users/stapi/OneDrive/Desktop/GD32VW553/GD32VW55X_Wifi_BLE_SDK/GD32VW55x_RELEASE_V1.0.2/MSDK/ble/app\app_sec_mgr.c ****         ble_sec_key_display_enter_cfm(p_ind->conn_idx, false, pin_code);
 1311              		.loc 1 230 9
 231:C:/Users/stapi/OneDrive/Desktop/GD32VW553/GD32VW55X_Wifi_BLE_SDK/GD32VW55x_RELEASE_V1.0.2/MSDK/ble/app\app_sec_mgr.c ****         return;
 1312              		.loc 1 231 9
 1313 02c0 0146     		li	a2,0
 1314 02c2 5DB7     		j	.L237
 1315              	.LVL89:
 1316              	.L120:
 235:C:/Users/stapi/OneDrive/Desktop/GD32VW553/GD32VW55X_Wifi_BLE_SDK/GD32VW55x_RELEASE_V1.0.2/MSDK/ble/app\app_sec_mgr.c **** }
 1317              		.loc 1 235 5
 235:C:/Users/stapi/OneDrive/Desktop/GD32VW553/GD32VW55X_Wifi_BLE_SDK/GD32VW55x_RELEASE_V1.0.2/MSDK/ble/app\app_sec_mgr.c **** }
 1318              		.loc 1 235 5
 1319 02c4 E3FFE7DA 		bleu	a4,a5,.L77
 235:C:/Users/stapi/OneDrive/Desktop/GD32VW553/GD32VW55X_Wifi_BLE_SDK/GD32VW55x_RELEASE_V1.0.2/MSDK/ble/app\app_sec_mgr.c **** }
 1320              		.loc 1 235 5
 1321 02c8 83450400 		lbu	a1,0(s0)
 1322 02cc 37050000 		lui	a0,%hi(.LC15)
 1323              	.LVL90:
 1324 02d0 13050500 		addi	a0,a0,%lo(.LC15)
 1325              	.LVL91:
 1326              	.L231:
 1327              	.LBE54:
 1328              	.LBE56:
 1329              	.LBB57:
 1330              	.LBB58:
 254:C:/Users/stapi/OneDrive/Desktop/GD32VW553/GD32VW55X_Wifi_BLE_SDK/GD32VW55x_RELEASE_V1.0.2/MSDK/ble/app\app_sec_mgr.c **** }
 1331              		.loc 1 254 5 is_stmt 0
 1332 02d4 97000000 		call	co_printf
 1332      E7800000 
 1333              	.LVL92:
 1334 02dc 5DB3     		j	.L77
 1335              	.L91:
 1336              	.LBE58:
 1337              	.LBE57:
 618:C:/Users/stapi/OneDrive/Desktop/GD32VW553/GD32VW55X_Wifi_BLE_SDK/GD32VW55x_RELEASE_V1.0.2/MSDK/ble/app\app_sec_mgr.c ****         break;
 1338              		.loc 1 618 9 is_stmt 1
 1339              	.LVL93:
 1340              	.LBB60:
 1341              	.LBB59:
 246:C:/Users/stapi/OneDrive/Desktop/GD32VW553/GD32VW55X_Wifi_BLE_SDK/GD32VW55x_RELEASE_V1.0.2/MSDK/ble/app\app_sec_mgr.c **** 
 1342              		.loc 1 246 5
 246:C:/Users/stapi/OneDrive/Desktop/GD32VW553/GD32VW55X_Wifi_BLE_SDK/GD32VW55x_RELEASE_V1.0.2/MSDK/ble/app\app_sec_mgr.c **** 
 1343              		.loc 1 246 30 is_stmt 0
 1344 02de 03C50500 		lbu	a0,0(a1)
 1345 02e2 97000000 		call	dm_find_dev_by_conidx
 1345      E7800000 
 1346              	.LVL94:
 248:C:/Users/stapi/OneDrive/Desktop/GD32VW553/GD32VW55X_Wifi_BLE_SDK/GD32VW55x_RELEASE_V1.0.2/MSDK/ble/app\app_sec_mgr.c ****         dbg_print(NOTICE, "app_key_oob_req_hdlr can't find device !\r\n");
 1347              		.loc 1 248 5 is_stmt 1
 1348 02ea B7070000 		lui	a5,%hi(global_debug_level)
 249:C:/Users/stapi/OneDrive/Desktop/GD32VW553/GD32VW55X_Wifi_BLE_SDK/GD32VW55x_RELEASE_V1.0.2/MSDK/ble/app\app_sec_mgr.c ****         ble_sec_oob_req_cfm(p_ind->conn_idx, false, NULL);
 1349              		.loc 1 249 9 is_stmt 0
 1350 02ee 03C70700 		lbu	a4,%lo(global_debug_level)(a5)
 1351 02f2 8947     		li	a5,2
 248:C:/Users/stapi/OneDrive/Desktop/GD32VW553/GD32VW55X_Wifi_BLE_SDK/GD32VW55x_RELEASE_V1.0.2/MSDK/ble/app\app_sec_mgr.c ****         dbg_print(NOTICE, "app_key_oob_req_hdlr can't find device !\r\n");
 1352              		.loc 1 248 8
 1353 02f4 05E5     		bne	a0,zero,.L123
 249:C:/Users/stapi/OneDrive/Desktop/GD32VW553/GD32VW55X_Wifi_BLE_SDK/GD32VW55x_RELEASE_V1.0.2/MSDK/ble/app\app_sec_mgr.c ****         ble_sec_oob_req_cfm(p_ind->conn_idx, false, NULL);
 1354              		.loc 1 249 9 is_stmt 1
 249:C:/Users/stapi/OneDrive/Desktop/GD32VW553/GD32VW55X_Wifi_BLE_SDK/GD32VW55x_RELEASE_V1.0.2/MSDK/ble/app\app_sec_mgr.c ****         ble_sec_oob_req_cfm(p_ind->conn_idx, false, NULL);
 1355              		.loc 1 249 9
 1356 02f6 63FAE700 		bleu	a4,a5,.L124
 249:C:/Users/stapi/OneDrive/Desktop/GD32VW553/GD32VW55X_Wifi_BLE_SDK/GD32VW55x_RELEASE_V1.0.2/MSDK/ble/app\app_sec_mgr.c ****         ble_sec_oob_req_cfm(p_ind->conn_idx, false, NULL);
 1357              		.loc 1 249 9
 1358 02fa 37050000 		lui	a0,%hi(.LC16)
 1359              	.LVL95:
 1360 02fe 13050500 		addi	a0,a0,%lo(.LC16)
 1361 0302 97000000 		call	co_printf
 1361      E7800000 
 1362              	.LVL96:
 1363              	.L124:
 249:C:/Users/stapi/OneDrive/Desktop/GD32VW553/GD32VW55X_Wifi_BLE_SDK/GD32VW55x_RELEASE_V1.0.2/MSDK/ble/app\app_sec_mgr.c ****         ble_sec_oob_req_cfm(p_ind->conn_idx, false, NULL);
 1364              		.loc 1 249 9
 250:C:/Users/stapi/OneDrive/Desktop/GD32VW553/GD32VW55X_Wifi_BLE_SDK/GD32VW55x_RELEASE_V1.0.2/MSDK/ble/app\app_sec_mgr.c ****         return;
 1365              		.loc 1 250 9
 1366 030a 03450400 		lbu	a0,0(s0)
 1367 030e 0146     		li	a2,0
 1368 0310 8145     		li	a1,0
 1369 0312 97000000 		call	ble_sec_oob_req_cfm
 1369      E7800000 
 1370              	.LVL97:
 251:C:/Users/stapi/OneDrive/Desktop/GD32VW553/GD32VW55X_Wifi_BLE_SDK/GD32VW55x_RELEASE_V1.0.2/MSDK/ble/app\app_sec_mgr.c ****     }
 1371              		.loc 1 251 9
 1372 031a A5B3     		j	.L77
 1373              	.LVL98:
 1374              	.L123:
 254:C:/Users/stapi/OneDrive/Desktop/GD32VW553/GD32VW55X_Wifi_BLE_SDK/GD32VW55x_RELEASE_V1.0.2/MSDK/ble/app\app_sec_mgr.c **** }
 1375              		.loc 1 254 5
 254:C:/Users/stapi/OneDrive/Desktop/GD32VW553/GD32VW55X_Wifi_BLE_SDK/GD32VW55x_RELEASE_V1.0.2/MSDK/ble/app\app_sec_mgr.c **** }
 1376              		.loc 1 254 5
 1377 031c E3F3E7D6 		bleu	a4,a5,.L77
 254:C:/Users/stapi/OneDrive/Desktop/GD32VW553/GD32VW55X_Wifi_BLE_SDK/GD32VW55x_RELEASE_V1.0.2/MSDK/ble/app\app_sec_mgr.c **** }
 1378              		.loc 1 254 5
 1379 0320 37050000 		lui	a0,%hi(.LC17)
 1380              	.LVL99:
 1381 0324 83450400 		lbu	a1,0(s0)
 1382 0328 13050500 		addi	a0,a0,%lo(.LC17)
 1383 032c 65B7     		j	.L231
 1384              	.LVL100:
 1385              	.L90:
 1386              	.LBE59:
 1387              	.LBE60:
 622:C:/Users/stapi/OneDrive/Desktop/GD32VW553/GD32VW55X_Wifi_BLE_SDK/GD32VW55x_RELEASE_V1.0.2/MSDK/ble/app\app_sec_mgr.c ****         break;
 1388              		.loc 1 622 9
 1389              	.LBB61:
 1390              	.LBB62:
 265:C:/Users/stapi/OneDrive/Desktop/GD32VW553/GD32VW55X_Wifi_BLE_SDK/GD32VW55x_RELEASE_V1.0.2/MSDK/ble/app\app_sec_mgr.c **** 
 1391              		.loc 1 265 5
 265:C:/Users/stapi/OneDrive/Desktop/GD32VW553/GD32VW55X_Wifi_BLE_SDK/GD32VW55x_RELEASE_V1.0.2/MSDK/ble/app\app_sec_mgr.c **** 
 1392              		.loc 1 265 30 is_stmt 0
 1393 032e 03C50500 		lbu	a0,0(a1)
 1394 0332 B7040000 		lui	s1,%hi(global_debug_level)
 1395 0336 97000000 		call	dm_find_dev_by_conidx
 1395      E7800000 
 1396              	.LVL101:
 267:C:/Users/stapi/OneDrive/Desktop/GD32VW553/GD32VW55X_Wifi_BLE_SDK/GD32VW55x_RELEASE_V1.0.2/MSDK/ble/app\app_sec_mgr.c ****         dbg_print(NOTICE, "app_nc_hdlr can't find device !\r\n");
 1397              		.loc 1 267 5 is_stmt 1
 267:C:/Users/stapi/OneDrive/Desktop/GD32VW553/GD32VW55X_Wifi_BLE_SDK/GD32VW55x_RELEASE_V1.0.2/MSDK/ble/app\app_sec_mgr.c ****         dbg_print(NOTICE, "app_nc_hdlr can't find device !\r\n");
 1398              		.loc 1 267 8 is_stmt 0
 1399 033e 15E5     		bne	a0,zero,.L126
 268:C:/Users/stapi/OneDrive/Desktop/GD32VW553/GD32VW55X_Wifi_BLE_SDK/GD32VW55x_RELEASE_V1.0.2/MSDK/ble/app\app_sec_mgr.c ****         ble_sec_nc_cfm(p_ind->conn_idx, false);
 1400              		.loc 1 268 9 is_stmt 1
 268:C:/Users/stapi/OneDrive/Desktop/GD32VW553/GD32VW55X_Wifi_BLE_SDK/GD32VW55x_RELEASE_V1.0.2/MSDK/ble/app\app_sec_mgr.c ****         ble_sec_nc_cfm(p_ind->conn_idx, false);
 1401              		.loc 1 268 9
 1402 0340 03C70400 		lbu	a4,%lo(global_debug_level)(s1)
 1403 0344 8947     		li	a5,2
 1404 0346 63FAE700 		bleu	a4,a5,.L127
 268:C:/Users/stapi/OneDrive/Desktop/GD32VW553/GD32VW55X_Wifi_BLE_SDK/GD32VW55x_RELEASE_V1.0.2/MSDK/ble/app\app_sec_mgr.c ****         ble_sec_nc_cfm(p_ind->conn_idx, false);
 1405              		.loc 1 268 9
 1406 034a 37050000 		lui	a0,%hi(.LC18)
 1407              	.LVL102:
 1408 034e 13050500 		addi	a0,a0,%lo(.LC18)
 1409 0352 97000000 		call	co_printf
 1409      E7800000 
 1410              	.LVL103:
 1411              	.L127:
 268:C:/Users/stapi/OneDrive/Desktop/GD32VW553/GD32VW55X_Wifi_BLE_SDK/GD32VW55x_RELEASE_V1.0.2/MSDK/ble/app\app_sec_mgr.c ****         ble_sec_nc_cfm(p_ind->conn_idx, false);
 1412              		.loc 1 268 9
 269:C:/Users/stapi/OneDrive/Desktop/GD32VW553/GD32VW55X_Wifi_BLE_SDK/GD32VW55x_RELEASE_V1.0.2/MSDK/ble/app\app_sec_mgr.c ****         return;
 1413              		.loc 1 269 9
 1414 035a 03450400 		lbu	a0,0(s0)
 1415 035e 8145     		li	a1,0
 1416 0360 97000000 		call	ble_sec_nc_cfm
 1416      E7800000 
 1417              	.LVL104:
 270:C:/Users/stapi/OneDrive/Desktop/GD32VW553/GD32VW55X_Wifi_BLE_SDK/GD32VW55x_RELEASE_V1.0.2/MSDK/ble/app\app_sec_mgr.c ****     }
 1418              		.loc 1 270 9
 1419 0368 29BB     		j	.L77
 1420              	.LVL105:
 1421              	.L126:
 273:C:/Users/stapi/OneDrive/Desktop/GD32VW553/GD32VW55X_Wifi_BLE_SDK/GD32VW55x_RELEASE_V1.0.2/MSDK/ble/app\app_sec_mgr.c ****     dbg_print(NOTICE, "waiting for user to compare......\r\n");
 1422              		.loc 1 273 5
 273:C:/Users/stapi/OneDrive/Desktop/GD32VW553/GD32VW55X_Wifi_BLE_SDK/GD32VW55x_RELEASE_V1.0.2/MSDK/ble/app\app_sec_mgr.c ****     dbg_print(NOTICE, "waiting for user to compare......\r\n");
 1423              		.loc 1 273 5
 1424 036a 83C70400 		lbu	a5,%lo(global_debug_level)(s1)
 1425 036e 0949     		li	s2,2
 1426 0370 E379F9D0 		bleu	a5,s2,.L77
 273:C:/Users/stapi/OneDrive/Desktop/GD32VW553/GD32VW55X_Wifi_BLE_SDK/GD32VW55x_RELEASE_V1.0.2/MSDK/ble/app\app_sec_mgr.c ****     dbg_print(NOTICE, "waiting for user to compare......\r\n");
 1427              		.loc 1 273 5
 1428 0374 5040     		lw	a2,4(s0)
 1429 0376 83450400 		lbu	a1,0(s0)
 1430 037a 37050000 		lui	a0,%hi(.LC19)
 1431              	.LVL106:
 1432 037e 13050500 		addi	a0,a0,%lo(.LC19)
 1433 0382 97000000 		call	co_printf
 1433      E7800000 
 1434              	.LVL107:
 273:C:/Users/stapi/OneDrive/Desktop/GD32VW553/GD32VW55X_Wifi_BLE_SDK/GD32VW55x_RELEASE_V1.0.2/MSDK/ble/app\app_sec_mgr.c ****     dbg_print(NOTICE, "waiting for user to compare......\r\n");
 1435              		.loc 1 273 5
 274:C:/Users/stapi/OneDrive/Desktop/GD32VW553/GD32VW55X_Wifi_BLE_SDK/GD32VW55x_RELEASE_V1.0.2/MSDK/ble/app\app_sec_mgr.c **** }
 1436              		.loc 1 274 5
 274:C:/Users/stapi/OneDrive/Desktop/GD32VW553/GD32VW55X_Wifi_BLE_SDK/GD32VW55x_RELEASE_V1.0.2/MSDK/ble/app\app_sec_mgr.c **** }
 1437              		.loc 1 274 5
 1438 038a 83C70400 		lbu	a5,%lo(global_debug_level)(s1)
 1439 038e E37AF9CE 		bleu	a5,s2,.L77
 274:C:/Users/stapi/OneDrive/Desktop/GD32VW553/GD32VW55X_Wifi_BLE_SDK/GD32VW55x_RELEASE_V1.0.2/MSDK/ble/app\app_sec_mgr.c **** }
 1440              		.loc 1 274 5
 1441 0392 37050000 		lui	a0,%hi(.LC20)
 1442 0396 13050500 		addi	a0,a0,%lo(.LC20)
 1443              	.LVL108:
 1444              	.L230:
 1445              	.LBE62:
 1446              	.LBE61:
 1447              	.LBB63:
 1448              	.LBB64:
 587:C:/Users/stapi/OneDrive/Desktop/GD32VW553/GD32VW55X_Wifi_BLE_SDK/GD32VW55x_RELEASE_V1.0.2/MSDK/ble/app\app_sec_mgr.c **** }
 1449              		.loc 1 587 5 is_stmt 0
 1450 039a 97000000 		call	co_printf
 1450      E7800000 
 1451              	.LVL109:
 1452 03a2 C5B1     		j	.L77
 1453              	.LVL110:
 1454              	.L89:
 1455              	.LBE64:
 1456              	.LBE63:
 626:C:/Users/stapi/OneDrive/Desktop/GD32VW553/GD32VW55X_Wifi_BLE_SDK/GD32VW55x_RELEASE_V1.0.2/MSDK/ble/app\app_sec_mgr.c ****         break;
 1457              		.loc 1 626 9 is_stmt 1
 1458              	.LBB67:
 1459              	.LBB68:
 285:C:/Users/stapi/OneDrive/Desktop/GD32VW553/GD32VW55X_Wifi_BLE_SDK/GD32VW55x_RELEASE_V1.0.2/MSDK/ble/app\app_sec_mgr.c ****     ble_gap_irk_t irk;
 1460              		.loc 1 285 5
 286:C:/Users/stapi/OneDrive/Desktop/GD32VW553/GD32VW55X_Wifi_BLE_SDK/GD32VW55x_RELEASE_V1.0.2/MSDK/ble/app\app_sec_mgr.c ****     ble_device_t *p_device = dm_find_dev_by_conidx(p_ind->conn_idx);
 1461              		.loc 1 286 5
 287:C:/Users/stapi/OneDrive/Desktop/GD32VW553/GD32VW55X_Wifi_BLE_SDK/GD32VW55x_RELEASE_V1.0.2/MSDK/ble/app\app_sec_mgr.c **** 
 1462              		.loc 1 287 5
 287:C:/Users/stapi/OneDrive/Desktop/GD32VW553/GD32VW55X_Wifi_BLE_SDK/GD32VW55x_RELEASE_V1.0.2/MSDK/ble/app\app_sec_mgr.c **** 
 1463              		.loc 1 287 30 is_stmt 0
 1464 03a4 03C50500 		lbu	a0,0(a1)
 1465 03a8 B7040000 		lui	s1,%hi(global_debug_level)
 1466 03ac 97000000 		call	dm_find_dev_by_conidx
 1466      E7800000 
 1467              	.LVL111:
 289:C:/Users/stapi/OneDrive/Desktop/GD32VW553/GD32VW55X_Wifi_BLE_SDK/GD32VW55x_RELEASE_V1.0.2/MSDK/ble/app\app_sec_mgr.c ****         dbg_print(NOTICE, "app_irk_req_hdlr can't find device !\r\n");
 1468              		.loc 1 289 5 is_stmt 1
 289:C:/Users/stapi/OneDrive/Desktop/GD32VW553/GD32VW55X_Wifi_BLE_SDK/GD32VW55x_RELEASE_V1.0.2/MSDK/ble/app\app_sec_mgr.c ****         dbg_print(NOTICE, "app_irk_req_hdlr can't find device !\r\n");
 1469              		.loc 1 289 8 is_stmt 0
 1470 03b4 1DE5     		bne	a0,zero,.L128
 290:C:/Users/stapi/OneDrive/Desktop/GD32VW553/GD32VW55X_Wifi_BLE_SDK/GD32VW55x_RELEASE_V1.0.2/MSDK/ble/app\app_sec_mgr.c ****         ble_sec_irk_req_cfm(p_ind->conn_idx, false, NULL);
 1471              		.loc 1 290 9 is_stmt 1
 290:C:/Users/stapi/OneDrive/Desktop/GD32VW553/GD32VW55X_Wifi_BLE_SDK/GD32VW55x_RELEASE_V1.0.2/MSDK/ble/app\app_sec_mgr.c ****         ble_sec_irk_req_cfm(p_ind->conn_idx, false, NULL);
 1472              		.loc 1 290 9
 1473 03b6 03C70400 		lbu	a4,%lo(global_debug_level)(s1)
 1474 03ba 8947     		li	a5,2
 1475 03bc 63FAE700 		bleu	a4,a5,.L129
 290:C:/Users/stapi/OneDrive/Desktop/GD32VW553/GD32VW55X_Wifi_BLE_SDK/GD32VW55x_RELEASE_V1.0.2/MSDK/ble/app\app_sec_mgr.c ****         ble_sec_irk_req_cfm(p_ind->conn_idx, false, NULL);
 1476              		.loc 1 290 9
 1477 03c0 37050000 		lui	a0,%hi(.LC21)
 1478              	.LVL112:
 1479 03c4 13050500 		addi	a0,a0,%lo(.LC21)
 1480 03c8 97000000 		call	co_printf
 1480      E7800000 
 1481              	.LVL113:
 1482              	.L129:
 290:C:/Users/stapi/OneDrive/Desktop/GD32VW553/GD32VW55X_Wifi_BLE_SDK/GD32VW55x_RELEASE_V1.0.2/MSDK/ble/app\app_sec_mgr.c ****         ble_sec_irk_req_cfm(p_ind->conn_idx, false, NULL);
 1483              		.loc 1 290 9
 291:C:/Users/stapi/OneDrive/Desktop/GD32VW553/GD32VW55X_Wifi_BLE_SDK/GD32VW55x_RELEASE_V1.0.2/MSDK/ble/app\app_sec_mgr.c ****         return;
 1484              		.loc 1 291 9
 1485 03d0 0146     		li	a2,0
 1486 03d2 8145     		li	a1,0
 1487              	.L232:
 310:C:/Users/stapi/OneDrive/Desktop/GD32VW553/GD32VW55X_Wifi_BLE_SDK/GD32VW55x_RELEASE_V1.0.2/MSDK/ble/app\app_sec_mgr.c **** }
 1488              		.loc 1 310 5 is_stmt 0
 1489 03d4 03450400 		lbu	a0,0(s0)
 1490 03d8 97000000 		call	ble_sec_irk_req_cfm
 1490      E7800000 
 1491              	.LVL114:
 1492 03e0 4DB1     		j	.L77
 1493              	.LVL115:
 1494              	.L128:
 295:C:/Users/stapi/OneDrive/Desktop/GD32VW553/GD32VW55X_Wifi_BLE_SDK/GD32VW55x_RELEASE_V1.0.2/MSDK/ble/app\app_sec_mgr.c ****     ble_adp_identity_addr_get(&irk.identity);
 1495              		.loc 1 295 5 is_stmt 1
 1496 03e2 4800     		addi	a0,sp,4
 1497              	.LVL116:
 1498 03e4 97000000 		call	ble_adp_loc_irk_get
 1498      E7800000 
 1499              	.LVL117:
 296:C:/Users/stapi/OneDrive/Desktop/GD32VW553/GD32VW55X_Wifi_BLE_SDK/GD32VW55x_RELEASE_V1.0.2/MSDK/ble/app\app_sec_mgr.c **** 
 1500              		.loc 1 296 5
 1501 03ec 4808     		addi	a0,sp,20
 1502 03ee 97000000 		call	ble_adp_identity_addr_get
 1502      E7800000 
 1503              	.LVL118:
 298:C:/Users/stapi/OneDrive/Desktop/GD32VW553/GD32VW55X_Wifi_BLE_SDK/GD32VW55x_RELEASE_V1.0.2/MSDK/ble/app\app_sec_mgr.c **** 
 1504              		.loc 1 298 5
 298:C:/Users/stapi/OneDrive/Desktop/GD32VW553/GD32VW55X_Wifi_BLE_SDK/GD32VW55x_RELEASE_V1.0.2/MSDK/ble/app\app_sec_mgr.c **** 
 1505              		.loc 1 298 5
 1506 03f6 03C70400 		lbu	a4,%lo(global_debug_level)(s1)
 1507 03fa 8947     		li	a5,2
 1508 03fc 63FCE700 		bleu	a4,a5,.L130
 298:C:/Users/stapi/OneDrive/Desktop/GD32VW553/GD32VW55X_Wifi_BLE_SDK/GD32VW55x_RELEASE_V1.0.2/MSDK/ble/app\app_sec_mgr.c **** 
 1509              		.loc 1 298 5
 1510 0400 83450400 		lbu	a1,0(s0)
 1511 0404 37050000 		lui	a0,%hi(.LC22)
 1512 0408 13050500 		addi	a0,a0,%lo(.LC22)
 1513 040c 97000000 		call	co_printf
 1513      E7800000 
 1514              	.LVL119:
 1515              	.L130:
 1516              	.LBE68:
 1517              	.LBE67:
 1518              	.LBB70:
 1519              	.LBB38:
 138:C:/Users/stapi/OneDrive/Desktop/GD32VW553/GD32VW55X_Wifi_BLE_SDK/GD32VW55x_RELEASE_V1.0.2/MSDK/ble/app\app_sec_mgr.c ****     }
 1520              		.loc 1 138 21 is_stmt 0
 1521 0414 0149     		li	s2,0
 1522              	.LBE38:
 1523              	.LBE70:
 1524              	.LBB71:
 1525              	.LBB69:
 301:C:/Users/stapi/OneDrive/Desktop/GD32VW553/GD32VW55X_Wifi_BLE_SDK/GD32VW55x_RELEASE_V1.0.2/MSDK/ble/app\app_sec_mgr.c ****     }
 1526              		.loc 1 301 9
 1527 0416 094A     		li	s4,2
 1528 0418 B70A0000 		lui	s5,%hi(.LC23)
 300:C:/Users/stapi/OneDrive/Desktop/GD32VW553/GD32VW55X_Wifi_BLE_SDK/GD32VW55x_RELEASE_V1.0.2/MSDK/ble/app\app_sec_mgr.c ****         dbg_print(NOTICE, " %02x", irk.irk[i]);
 1529              		.loc 1 300 5
 1530 041c C149     		li	s3,16
 1531              	.L132:
 1532              	.LVL120:
 301:C:/Users/stapi/OneDrive/Desktop/GD32VW553/GD32VW55X_Wifi_BLE_SDK/GD32VW55x_RELEASE_V1.0.2/MSDK/ble/app\app_sec_mgr.c ****     }
 1533              		.loc 1 301 9 is_stmt 1
 301:C:/Users/stapi/OneDrive/Desktop/GD32VW553/GD32VW55X_Wifi_BLE_SDK/GD32VW55x_RELEASE_V1.0.2/MSDK/ble/app\app_sec_mgr.c ****     }
 1534              		.loc 1 301 9
 1535 041e 83C70400 		lbu	a5,%lo(global_debug_level)(s1)
 1536 0422 637CFA00 		bleu	a5,s4,.L131
 301:C:/Users/stapi/OneDrive/Desktop/GD32VW553/GD32VW55X_Wifi_BLE_SDK/GD32VW55x_RELEASE_V1.0.2/MSDK/ble/app\app_sec_mgr.c ****     }
 1537              		.loc 1 301 9
 1538 0426 5C00     		addi	a5,sp,4
 1539 0428 CA97     		add	a5,a5,s2
 1540 042a 83C50700 		lbu	a1,0(a5)
 1541 042e 13850A00 		addi	a0,s5,%lo(.LC23)
 1542 0432 97000000 		call	co_printf
 1542      E7800000 
 1543              	.LVL121:
 1544              	.L131:
 301:C:/Users/stapi/OneDrive/Desktop/GD32VW553/GD32VW55X_Wifi_BLE_SDK/GD32VW55x_RELEASE_V1.0.2/MSDK/ble/app\app_sec_mgr.c ****     }
 1545              		.loc 1 301 9
 300:C:/Users/stapi/OneDrive/Desktop/GD32VW553/GD32VW55X_Wifi_BLE_SDK/GD32VW55x_RELEASE_V1.0.2/MSDK/ble/app\app_sec_mgr.c ****         dbg_print(NOTICE, " %02x", irk.irk[i]);
 1546              		.loc 1 300 38
 300:C:/Users/stapi/OneDrive/Desktop/GD32VW553/GD32VW55X_Wifi_BLE_SDK/GD32VW55x_RELEASE_V1.0.2/MSDK/ble/app\app_sec_mgr.c ****         dbg_print(NOTICE, " %02x", irk.irk[i]);
 1547              		.loc 1 300 17
 300:C:/Users/stapi/OneDrive/Desktop/GD32VW553/GD32VW55X_Wifi_BLE_SDK/GD32VW55x_RELEASE_V1.0.2/MSDK/ble/app\app_sec_mgr.c ****         dbg_print(NOTICE, " %02x", irk.irk[i]);
 1548              		.loc 1 300 5 is_stmt 0
 1549 043a 0509     		addi	s2,s2,1
 1550              	.LVL122:
 1551 043c E31139FF 		bne	s2,s3,.L132
 304:C:/Users/stapi/OneDrive/Desktop/GD32VW553/GD32VW55X_Wifi_BLE_SDK/GD32VW55x_RELEASE_V1.0.2/MSDK/ble/app\app_sec_mgr.c **** 
 1552              		.loc 1 304 5 is_stmt 1
 304:C:/Users/stapi/OneDrive/Desktop/GD32VW553/GD32VW55X_Wifi_BLE_SDK/GD32VW55x_RELEASE_V1.0.2/MSDK/ble/app\app_sec_mgr.c **** 
 1553              		.loc 1 304 5
 1554 0440 83C70400 		lbu	a5,%lo(global_debug_level)(s1)
 1555 0444 0949     		li	s2,2
 1556 0446 6372F904 		bleu	a5,s2,.L134
 304:C:/Users/stapi/OneDrive/Desktop/GD32VW553/GD32VW55X_Wifi_BLE_SDK/GD32VW55x_RELEASE_V1.0.2/MSDK/ble/app\app_sec_mgr.c **** 
 1557              		.loc 1 304 5
 1558 044a 37050000 		lui	a0,%hi(.LC11)
 1559 044e 13050500 		addi	a0,a0,%lo(.LC11)
 1560 0452 97000000 		call	co_printf
 1560      E7800000 
 1561              	.LVL123:
 304:C:/Users/stapi/OneDrive/Desktop/GD32VW553/GD32VW55X_Wifi_BLE_SDK/GD32VW55x_RELEASE_V1.0.2/MSDK/ble/app\app_sec_mgr.c **** 
 1562              		.loc 1 304 5
 306:C:/Users/stapi/OneDrive/Desktop/GD32VW553/GD32VW55X_Wifi_BLE_SDK/GD32VW55x_RELEASE_V1.0.2/MSDK/ble/app\app_sec_mgr.c ****            irk.identity.addr[5], irk.identity.addr[4], irk.identity.addr[3],
 1563              		.loc 1 306 5
 306:C:/Users/stapi/OneDrive/Desktop/GD32VW553/GD32VW55X_Wifi_BLE_SDK/GD32VW55x_RELEASE_V1.0.2/MSDK/ble/app\app_sec_mgr.c ****            irk.identity.addr[5], irk.identity.addr[4], irk.identity.addr[3],
 1564              		.loc 1 306 5
 1565 045a 83C70400 		lbu	a5,%lo(global_debug_level)(s1)
 1566 045e 6376F902 		bleu	a5,s2,.L134
 306:C:/Users/stapi/OneDrive/Desktop/GD32VW553/GD32VW55X_Wifi_BLE_SDK/GD32VW55x_RELEASE_V1.0.2/MSDK/ble/app\app_sec_mgr.c ****            irk.identity.addr[5], irk.identity.addr[4], irk.identity.addr[3],
 1567              		.loc 1 306 5
 1568 0462 03485101 		lbu	a6,21(sp)
 1569 0466 83476101 		lbu	a5,22(sp)
 1570 046a 03477101 		lbu	a4,23(sp)
 1571 046e 83468101 		lbu	a3,24(sp)
 1572 0472 03469101 		lbu	a2,25(sp)
 1573 0476 8345A101 		lbu	a1,26(sp)
 1574 047a 37050000 		lui	a0,%hi(.LC24)
 1575 047e 13050500 		addi	a0,a0,%lo(.LC24)
 1576 0482 97000000 		call	co_printf
 1576      E7800000 
 1577              	.LVL124:
 1578              	.L134:
 306:C:/Users/stapi/OneDrive/Desktop/GD32VW553/GD32VW55X_Wifi_BLE_SDK/GD32VW55x_RELEASE_V1.0.2/MSDK/ble/app\app_sec_mgr.c ****            irk.identity.addr[5], irk.identity.addr[4], irk.identity.addr[3],
 1579              		.loc 1 306 5
 310:C:/Users/stapi/OneDrive/Desktop/GD32VW553/GD32VW55X_Wifi_BLE_SDK/GD32VW55x_RELEASE_V1.0.2/MSDK/ble/app\app_sec_mgr.c **** }
 1580              		.loc 1 310 5
 1581 048a 5000     		addi	a2,sp,4
 1582 048c 8545     		li	a1,1
 1583 048e 99B7     		j	.L232
 1584              	.LVL125:
 1585              	.L88:
 1586              	.LBE69:
 1587              	.LBE71:
 630:C:/Users/stapi/OneDrive/Desktop/GD32VW553/GD32VW55X_Wifi_BLE_SDK/GD32VW55x_RELEASE_V1.0.2/MSDK/ble/app\app_sec_mgr.c ****         break;
 1588              		.loc 1 630 9
 1589              	.LBB72:
 1590              	.LBB73:
 321:C:/Users/stapi/OneDrive/Desktop/GD32VW553/GD32VW55X_Wifi_BLE_SDK/GD32VW55x_RELEASE_V1.0.2/MSDK/ble/app\app_sec_mgr.c ****     ble_gap_csrk_t csrk;
 1591              		.loc 1 321 5
 322:C:/Users/stapi/OneDrive/Desktop/GD32VW553/GD32VW55X_Wifi_BLE_SDK/GD32VW55x_RELEASE_V1.0.2/MSDK/ble/app\app_sec_mgr.c ****     ble_device_t *p_device = dm_find_dev_by_conidx(p_ind->conn_idx);
 1592              		.loc 1 322 5
 323:C:/Users/stapi/OneDrive/Desktop/GD32VW553/GD32VW55X_Wifi_BLE_SDK/GD32VW55x_RELEASE_V1.0.2/MSDK/ble/app\app_sec_mgr.c **** 
 1593              		.loc 1 323 5
 323:C:/Users/stapi/OneDrive/Desktop/GD32VW553/GD32VW55X_Wifi_BLE_SDK/GD32VW55x_RELEASE_V1.0.2/MSDK/ble/app\app_sec_mgr.c **** 
 1594              		.loc 1 323 30 is_stmt 0
 1595 0490 03C50500 		lbu	a0,0(a1)
 1596 0494 37090000 		lui	s2,%hi(global_debug_level)
 1597 0498 97000000 		call	dm_find_dev_by_conidx
 1597      E7800000 
 1598              	.LVL126:
 1599 04a0 AA84     		mv	s1,a0
 1600              	.LVL127:
 325:C:/Users/stapi/OneDrive/Desktop/GD32VW553/GD32VW55X_Wifi_BLE_SDK/GD32VW55x_RELEASE_V1.0.2/MSDK/ble/app\app_sec_mgr.c **** 
 1601              		.loc 1 325 5 is_stmt 1
 1602 04a2 C145     		li	a1,16
 1603 04a4 4800     		addi	a0,sp,4
 1604 04a6 97000000 		call	sys_random_bytes_get
 1604      E7800000 
 1605              	.LVL128:
 327:C:/Users/stapi/OneDrive/Desktop/GD32VW553/GD32VW55X_Wifi_BLE_SDK/GD32VW55x_RELEASE_V1.0.2/MSDK/ble/app\app_sec_mgr.c ****         dbg_print(NOTICE, "app_csrk_req_hdlr can't find device !\r\n");
 1606              		.loc 1 327 5
 327:C:/Users/stapi/OneDrive/Desktop/GD32VW553/GD32VW55X_Wifi_BLE_SDK/GD32VW55x_RELEASE_V1.0.2/MSDK/ble/app\app_sec_mgr.c ****         dbg_print(NOTICE, "app_csrk_req_hdlr can't find device !\r\n");
 1607              		.loc 1 327 8 is_stmt 0
 1608 04ae 9DE4     		bne	s1,zero,.L136
 328:C:/Users/stapi/OneDrive/Desktop/GD32VW553/GD32VW55X_Wifi_BLE_SDK/GD32VW55x_RELEASE_V1.0.2/MSDK/ble/app\app_sec_mgr.c ****         ble_sec_csrk_req_cfm(p_ind->conn_idx, false, NULL);
 1609              		.loc 1 328 9 is_stmt 1
 328:C:/Users/stapi/OneDrive/Desktop/GD32VW553/GD32VW55X_Wifi_BLE_SDK/GD32VW55x_RELEASE_V1.0.2/MSDK/ble/app\app_sec_mgr.c ****         ble_sec_csrk_req_cfm(p_ind->conn_idx, false, NULL);
 1610              		.loc 1 328 9
 1611 04b0 03470900 		lbu	a4,%lo(global_debug_level)(s2)
 1612 04b4 8947     		li	a5,2
 1613 04b6 63FAE700 		bleu	a4,a5,.L137
 328:C:/Users/stapi/OneDrive/Desktop/GD32VW553/GD32VW55X_Wifi_BLE_SDK/GD32VW55x_RELEASE_V1.0.2/MSDK/ble/app\app_sec_mgr.c ****         ble_sec_csrk_req_cfm(p_ind->conn_idx, false, NULL);
 1614              		.loc 1 328 9
 1615 04ba 37050000 		lui	a0,%hi(.LC25)
 1616 04be 13050500 		addi	a0,a0,%lo(.LC25)
 1617 04c2 97000000 		call	co_printf
 1617      E7800000 
 1618              	.LVL129:
 1619              	.L137:
 328:C:/Users/stapi/OneDrive/Desktop/GD32VW553/GD32VW55X_Wifi_BLE_SDK/GD32VW55x_RELEASE_V1.0.2/MSDK/ble/app\app_sec_mgr.c ****         ble_sec_csrk_req_cfm(p_ind->conn_idx, false, NULL);
 1620              		.loc 1 328 9
 329:C:/Users/stapi/OneDrive/Desktop/GD32VW553/GD32VW55X_Wifi_BLE_SDK/GD32VW55x_RELEASE_V1.0.2/MSDK/ble/app\app_sec_mgr.c ****         return;
 1621              		.loc 1 329 9
 1622 04ca 0146     		li	a2,0
 1623 04cc 8145     		li	a1,0
 1624              	.LVL130:
 1625              	.L235:
 344:C:/Users/stapi/OneDrive/Desktop/GD32VW553/GD32VW55X_Wifi_BLE_SDK/GD32VW55x_RELEASE_V1.0.2/MSDK/ble/app\app_sec_mgr.c **** }
 1626              		.loc 1 344 5 is_stmt 0
 1627 04ce 03450400 		lbu	a0,0(s0)
 1628 04d2 97000000 		call	ble_sec_csrk_req_cfm
 1628      E7800000 
 1629              	.LVL131:
 1630 04da 65B6     		j	.L77
 1631              	.LVL132:
 1632              	.L136:
 333:C:/Users/stapi/OneDrive/Desktop/GD32VW553/GD32VW55X_Wifi_BLE_SDK/GD32VW55x_RELEASE_V1.0.2/MSDK/ble/app\app_sec_mgr.c ****     memcpy(p_device->bond_info.local_csrk.csrk, csrk.csrk, BLE_GAP_KEY_LEN);
 1633              		.loc 1 333 5 is_stmt 1
 333:C:/Users/stapi/OneDrive/Desktop/GD32VW553/GD32VW55X_Wifi_BLE_SDK/GD32VW55x_RELEASE_V1.0.2/MSDK/ble/app\app_sec_mgr.c ****     memcpy(p_device->bond_info.local_csrk.csrk, csrk.csrk, BLE_GAP_KEY_LEN);
 1634              		.loc 1 333 33 is_stmt 0
 1635 04dc BC40     		lw	a5,64(s1)
 334:C:/Users/stapi/OneDrive/Desktop/GD32VW553/GD32VW55X_Wifi_BLE_SDK/GD32VW55x_RELEASE_V1.0.2/MSDK/ble/app\app_sec_mgr.c **** 
 1636              		.loc 1 334 5
 1637 04de 4146     		li	a2,16
 1638 04e0 4C00     		addi	a1,sp,4
 333:C:/Users/stapi/OneDrive/Desktop/GD32VW553/GD32VW55X_Wifi_BLE_SDK/GD32VW55x_RELEASE_V1.0.2/MSDK/ble/app\app_sec_mgr.c ****     memcpy(p_device->bond_info.local_csrk.csrk, csrk.csrk, BLE_GAP_KEY_LEN);
 1639              		.loc 1 333 33
 1640 04e2 93E78700 		ori	a5,a5,8
 1641 04e6 BCC0     		sw	a5,64(s1)
 334:C:/Users/stapi/OneDrive/Desktop/GD32VW553/GD32VW55X_Wifi_BLE_SDK/GD32VW55x_RELEASE_V1.0.2/MSDK/ble/app\app_sec_mgr.c **** 
 1642              		.loc 1 334 5 is_stmt 1
 1643 04e8 1385440A 		addi	a0,s1,164
 1644 04ec 97000000 		call	memcpy
 1644      E7800000 
 1645              	.LVL133:
 336:C:/Users/stapi/OneDrive/Desktop/GD32VW553/GD32VW55X_Wifi_BLE_SDK/GD32VW55x_RELEASE_V1.0.2/MSDK/ble/app\app_sec_mgr.c **** 
 1646              		.loc 1 336 5
 336:C:/Users/stapi/OneDrive/Desktop/GD32VW553/GD32VW55X_Wifi_BLE_SDK/GD32VW55x_RELEASE_V1.0.2/MSDK/ble/app\app_sec_mgr.c **** 
 1647              		.loc 1 336 5
 1648 04f4 03470900 		lbu	a4,%lo(global_debug_level)(s2)
 1649 04f8 8947     		li	a5,2
 1650 04fa 63FCE700 		bleu	a4,a5,.L138
 336:C:/Users/stapi/OneDrive/Desktop/GD32VW553/GD32VW55X_Wifi_BLE_SDK/GD32VW55x_RELEASE_V1.0.2/MSDK/ble/app\app_sec_mgr.c **** 
 1651              		.loc 1 336 5
 1652 04fe 83450400 		lbu	a1,0(s0)
 1653 0502 37050000 		lui	a0,%hi(.LC26)
 1654 0506 13050500 		addi	a0,a0,%lo(.LC26)
 1655 050a 97000000 		call	co_printf
 1655      E7800000 
 1656              	.LVL134:
 1657              	.L138:
 1658              	.LBE73:
 1659              	.LBE72:
 1660              	.LBB75:
 1661              	.LBB39:
 138:C:/Users/stapi/OneDrive/Desktop/GD32VW553/GD32VW55X_Wifi_BLE_SDK/GD32VW55x_RELEASE_V1.0.2/MSDK/ble/app\app_sec_mgr.c ****     }
 1662              		.loc 1 138 21 is_stmt 0
 1663 0512 8144     		li	s1,0
 1664              	.LVL135:
 1665              	.LBE39:
 1666              	.LBE75:
 1667              	.LBB76:
 1668              	.LBB74:
 339:C:/Users/stapi/OneDrive/Desktop/GD32VW553/GD32VW55X_Wifi_BLE_SDK/GD32VW55x_RELEASE_V1.0.2/MSDK/ble/app\app_sec_mgr.c ****     }
 1669              		.loc 1 339 9
 1670 0514 094A     		li	s4,2
 1671 0516 B70A0000 		lui	s5,%hi(.LC23)
 338:C:/Users/stapi/OneDrive/Desktop/GD32VW553/GD32VW55X_Wifi_BLE_SDK/GD32VW55x_RELEASE_V1.0.2/MSDK/ble/app\app_sec_mgr.c ****         dbg_print(NOTICE, " %02x", csrk.csrk[i]);
 1672              		.loc 1 338 5
 1673 051a C149     		li	s3,16
 1674              	.L140:
 1675              	.LVL136:
 339:C:/Users/stapi/OneDrive/Desktop/GD32VW553/GD32VW55X_Wifi_BLE_SDK/GD32VW55x_RELEASE_V1.0.2/MSDK/ble/app\app_sec_mgr.c ****     }
 1676              		.loc 1 339 9 is_stmt 1
 339:C:/Users/stapi/OneDrive/Desktop/GD32VW553/GD32VW55X_Wifi_BLE_SDK/GD32VW55x_RELEASE_V1.0.2/MSDK/ble/app\app_sec_mgr.c ****     }
 1677              		.loc 1 339 9
 1678 051c 83470900 		lbu	a5,%lo(global_debug_level)(s2)
 1679 0520 637CFA00 		bleu	a5,s4,.L139
 339:C:/Users/stapi/OneDrive/Desktop/GD32VW553/GD32VW55X_Wifi_BLE_SDK/GD32VW55x_RELEASE_V1.0.2/MSDK/ble/app\app_sec_mgr.c ****     }
 1680              		.loc 1 339 9
 1681 0524 5C00     		addi	a5,sp,4
 1682 0526 A697     		add	a5,a5,s1
 1683 0528 83C50700 		lbu	a1,0(a5)
 1684 052c 13850A00 		addi	a0,s5,%lo(.LC23)
 1685 0530 97000000 		call	co_printf
 1685      E7800000 
 1686              	.LVL137:
 1687              	.L139:
 339:C:/Users/stapi/OneDrive/Desktop/GD32VW553/GD32VW55X_Wifi_BLE_SDK/GD32VW55x_RELEASE_V1.0.2/MSDK/ble/app\app_sec_mgr.c ****     }
 1688              		.loc 1 339 9
 338:C:/Users/stapi/OneDrive/Desktop/GD32VW553/GD32VW55X_Wifi_BLE_SDK/GD32VW55x_RELEASE_V1.0.2/MSDK/ble/app\app_sec_mgr.c ****         dbg_print(NOTICE, " %02x", csrk.csrk[i]);
 1689              		.loc 1 338 38
 338:C:/Users/stapi/OneDrive/Desktop/GD32VW553/GD32VW55X_Wifi_BLE_SDK/GD32VW55x_RELEASE_V1.0.2/MSDK/ble/app\app_sec_mgr.c ****         dbg_print(NOTICE, " %02x", csrk.csrk[i]);
 1690              		.loc 1 338 17
 338:C:/Users/stapi/OneDrive/Desktop/GD32VW553/GD32VW55X_Wifi_BLE_SDK/GD32VW55x_RELEASE_V1.0.2/MSDK/ble/app\app_sec_mgr.c ****         dbg_print(NOTICE, " %02x", csrk.csrk[i]);
 1691              		.loc 1 338 5 is_stmt 0
 1692 0538 8504     		addi	s1,s1,1
 1693              	.LVL138:
 1694 053a E39134FF 		bne	s1,s3,.L140
 342:C:/Users/stapi/OneDrive/Desktop/GD32VW553/GD32VW55X_Wifi_BLE_SDK/GD32VW55x_RELEASE_V1.0.2/MSDK/ble/app\app_sec_mgr.c **** 
 1695              		.loc 1 342 5 is_stmt 1
 342:C:/Users/stapi/OneDrive/Desktop/GD32VW553/GD32VW55X_Wifi_BLE_SDK/GD32VW55x_RELEASE_V1.0.2/MSDK/ble/app\app_sec_mgr.c **** 
 1696              		.loc 1 342 5
 1697 053e 03470900 		lbu	a4,%lo(global_debug_level)(s2)
 1698 0542 8947     		li	a5,2
 1699 0544 63FAE700 		bleu	a4,a5,.L141
 342:C:/Users/stapi/OneDrive/Desktop/GD32VW553/GD32VW55X_Wifi_BLE_SDK/GD32VW55x_RELEASE_V1.0.2/MSDK/ble/app\app_sec_mgr.c **** 
 1700              		.loc 1 342 5
 1701 0548 37050000 		lui	a0,%hi(.LC11)
 1702 054c 13050500 		addi	a0,a0,%lo(.LC11)
 1703 0550 97000000 		call	co_printf
 1703      E7800000 
 1704              	.LVL139:
 1705              	.L141:
 342:C:/Users/stapi/OneDrive/Desktop/GD32VW553/GD32VW55X_Wifi_BLE_SDK/GD32VW55x_RELEASE_V1.0.2/MSDK/ble/app\app_sec_mgr.c **** 
 1706              		.loc 1 342 5
 344:C:/Users/stapi/OneDrive/Desktop/GD32VW553/GD32VW55X_Wifi_BLE_SDK/GD32VW55x_RELEASE_V1.0.2/MSDK/ble/app\app_sec_mgr.c **** }
 1707              		.loc 1 344 5
 1708 0558 5000     		addi	a2,sp,4
 1709 055a 8545     		li	a1,1
 1710 055c 8DBF     		j	.L235
 1711              	.LVL140:
 1712              	.L87:
 1713              	.LBE74:
 1714              	.LBE76:
 634:C:/Users/stapi/OneDrive/Desktop/GD32VW553/GD32VW55X_Wifi_BLE_SDK/GD32VW55x_RELEASE_V1.0.2/MSDK/ble/app\app_sec_mgr.c ****         break;
 1715              		.loc 1 634 9
 1716              	.LBB77:
 1717              	.LBB78:
 355:C:/Users/stapi/OneDrive/Desktop/GD32VW553/GD32VW55X_Wifi_BLE_SDK/GD32VW55x_RELEASE_V1.0.2/MSDK/ble/app\app_sec_mgr.c **** 
 1718              		.loc 1 355 5
 355:C:/Users/stapi/OneDrive/Desktop/GD32VW553/GD32VW55X_Wifi_BLE_SDK/GD32VW55x_RELEASE_V1.0.2/MSDK/ble/app\app_sec_mgr.c **** 
 1719              		.loc 1 355 30 is_stmt 0
 1720 055e 03C50500 		lbu	a0,0(a1)
 1721 0562 97000000 		call	dm_find_dev_by_conidx
 1721      E7800000 
 1722              	.LVL141:
 357:C:/Users/stapi/OneDrive/Desktop/GD32VW553/GD32VW55X_Wifi_BLE_SDK/GD32VW55x_RELEASE_V1.0.2/MSDK/ble/app\app_sec_mgr.c ****         dbg_print(NOTICE, "app_oob_data_req_hdlr can't find device !\r\n");
 1723              		.loc 1 357 5 is_stmt 1
 357:C:/Users/stapi/OneDrive/Desktop/GD32VW553/GD32VW55X_Wifi_BLE_SDK/GD32VW55x_RELEASE_V1.0.2/MSDK/ble/app\app_sec_mgr.c ****         dbg_print(NOTICE, "app_oob_data_req_hdlr can't find device !\r\n");
 1724              		.loc 1 357 8 is_stmt 0
 1725 056a 15E9     		bne	a0,zero,.L142
 358:C:/Users/stapi/OneDrive/Desktop/GD32VW553/GD32VW55X_Wifi_BLE_SDK/GD32VW55x_RELEASE_V1.0.2/MSDK/ble/app\app_sec_mgr.c ****         ble_sec_oob_data_req_cfm(p_ind->conn_idx, false, NULL, NULL);
 1726              		.loc 1 358 9 is_stmt 1
 358:C:/Users/stapi/OneDrive/Desktop/GD32VW553/GD32VW55X_Wifi_BLE_SDK/GD32VW55x_RELEASE_V1.0.2/MSDK/ble/app\app_sec_mgr.c ****         ble_sec_oob_data_req_cfm(p_ind->conn_idx, false, NULL, NULL);
 1727              		.loc 1 358 9
 1728 056c B7070000 		lui	a5,%hi(global_debug_level)
 1729 0570 03C70700 		lbu	a4,%lo(global_debug_level)(a5)
 1730 0574 8947     		li	a5,2
 1731 0576 63FAE700 		bleu	a4,a5,.L143
 358:C:/Users/stapi/OneDrive/Desktop/GD32VW553/GD32VW55X_Wifi_BLE_SDK/GD32VW55x_RELEASE_V1.0.2/MSDK/ble/app\app_sec_mgr.c ****         ble_sec_oob_data_req_cfm(p_ind->conn_idx, false, NULL, NULL);
 1732              		.loc 1 358 9
 1733 057a 37050000 		lui	a0,%hi(.LC27)
 1734              	.LVL142:
 1735 057e 13050500 		addi	a0,a0,%lo(.LC27)
 1736 0582 97000000 		call	co_printf
 1736      E7800000 
 1737              	.LVL143:
 1738              	.L143:
 358:C:/Users/stapi/OneDrive/Desktop/GD32VW553/GD32VW55X_Wifi_BLE_SDK/GD32VW55x_RELEASE_V1.0.2/MSDK/ble/app\app_sec_mgr.c ****         ble_sec_oob_data_req_cfm(p_ind->conn_idx, false, NULL, NULL);
 1739              		.loc 1 358 9
 359:C:/Users/stapi/OneDrive/Desktop/GD32VW553/GD32VW55X_Wifi_BLE_SDK/GD32VW55x_RELEASE_V1.0.2/MSDK/ble/app\app_sec_mgr.c ****         return;
 1740              		.loc 1 359 9
 1741 058a 8146     		li	a3,0
 1742 058c 0146     		li	a2,0
 1743 058e 8145     		li	a1,0
 1744              	.L236:
 363:C:/Users/stapi/OneDrive/Desktop/GD32VW553/GD32VW55X_Wifi_BLE_SDK/GD32VW55x_RELEASE_V1.0.2/MSDK/ble/app\app_sec_mgr.c **** }
 1745              		.loc 1 363 5 is_stmt 0
 1746 0590 03450400 		lbu	a0,0(s0)
 1747 0594 97000000 		call	ble_sec_oob_data_req_cfm
 1747      E7800000 
 1748              	.LVL144:
 1749 059c DDB4     		j	.L77
 1750              	.LVL145:
 1751              	.L142:
 363:C:/Users/stapi/OneDrive/Desktop/GD32VW553/GD32VW55X_Wifi_BLE_SDK/GD32VW55x_RELEASE_V1.0.2/MSDK/ble/app\app_sec_mgr.c **** }
 1752              		.loc 1 363 5 is_stmt 1
 1753 059e 37060000 		lui	a2,%hi(.LANCHOR0)
 1754 05a2 13060600 		addi	a2,a2,%lo(.LANCHOR0)
 1755 05a6 93067601 		addi	a3,a2,23
 1756 05aa 8545     		li	a1,1
 1757 05ac 1D06     		addi	a2,a2,7
 1758 05ae CDB7     		j	.L236
 1759              	.LVL146:
 1760              	.L86:
 1761              	.LBE78:
 1762              	.LBE77:
 638:C:/Users/stapi/OneDrive/Desktop/GD32VW553/GD32VW55X_Wifi_BLE_SDK/GD32VW55x_RELEASE_V1.0.2/MSDK/ble/app\app_sec_mgr.c ****         break;
 1763              		.loc 1 638 9
 1764              	.LBB79:
 1765              	.LBB80:
 374:C:/Users/stapi/OneDrive/Desktop/GD32VW553/GD32VW55X_Wifi_BLE_SDK/GD32VW55x_RELEASE_V1.0.2/MSDK/ble/app\app_sec_mgr.c ****     ble_device_t *p_device = dm_find_dev_by_conidx(p_info->conidx);
 1766              		.loc 1 374 5
 375:C:/Users/stapi/OneDrive/Desktop/GD32VW553/GD32VW55X_Wifi_BLE_SDK/GD32VW55x_RELEASE_V1.0.2/MSDK/ble/app\app_sec_mgr.c **** 
 1767              		.loc 1 375 5
 375:C:/Users/stapi/OneDrive/Desktop/GD32VW553/GD32VW55X_Wifi_BLE_SDK/GD32VW55x_RELEASE_V1.0.2/MSDK/ble/app\app_sec_mgr.c **** 
 1768              		.loc 1 375 30 is_stmt 0
 1769 05b0 03C50500 		lbu	a0,0(a1)
 1770 05b4 37090000 		lui	s2,%hi(global_debug_level)
 1771 05b8 97000000 		call	dm_find_dev_by_conidx
 1771      E7800000 
 1772              	.LVL147:
 378:C:/Users/stapi/OneDrive/Desktop/GD32VW553/GD32VW55X_Wifi_BLE_SDK/GD32VW55x_RELEASE_V1.0.2/MSDK/ble/app\app_sec_mgr.c ****         return;
 1773              		.loc 1 378 9
 1774 05c0 03470900 		lbu	a4,%lo(global_debug_level)(s2)
 375:C:/Users/stapi/OneDrive/Desktop/GD32VW553/GD32VW55X_Wifi_BLE_SDK/GD32VW55x_RELEASE_V1.0.2/MSDK/ble/app\app_sec_mgr.c **** 
 1775              		.loc 1 375 30
 1776 05c4 AA84     		mv	s1,a0
 1777              	.LVL148:
 377:C:/Users/stapi/OneDrive/Desktop/GD32VW553/GD32VW55X_Wifi_BLE_SDK/GD32VW55x_RELEASE_V1.0.2/MSDK/ble/app\app_sec_mgr.c ****         dbg_print(NOTICE, "app_pairing_success_hdlr can't find device !\r\n");
 1778              		.loc 1 377 5 is_stmt 1
 378:C:/Users/stapi/OneDrive/Desktop/GD32VW553/GD32VW55X_Wifi_BLE_SDK/GD32VW55x_RELEASE_V1.0.2/MSDK/ble/app\app_sec_mgr.c ****         return;
 1779              		.loc 1 378 9 is_stmt 0
 1780 05c6 8947     		li	a5,2
 377:C:/Users/stapi/OneDrive/Desktop/GD32VW553/GD32VW55X_Wifi_BLE_SDK/GD32VW55x_RELEASE_V1.0.2/MSDK/ble/app\app_sec_mgr.c ****         dbg_print(NOTICE, "app_pairing_success_hdlr can't find device !\r\n");
 1781              		.loc 1 377 8
 1782 05c8 01E9     		bne	a0,zero,.L144
 378:C:/Users/stapi/OneDrive/Desktop/GD32VW553/GD32VW55X_Wifi_BLE_SDK/GD32VW55x_RELEASE_V1.0.2/MSDK/ble/app\app_sec_mgr.c ****         return;
 1783              		.loc 1 378 9 is_stmt 1
 378:C:/Users/stapi/OneDrive/Desktop/GD32VW553/GD32VW55X_Wifi_BLE_SDK/GD32VW55x_RELEASE_V1.0.2/MSDK/ble/app\app_sec_mgr.c ****         return;
 1784              		.loc 1 378 9
 1785 05ca E3FCE7AA 		bleu	a4,a5,.L77
 378:C:/Users/stapi/OneDrive/Desktop/GD32VW553/GD32VW55X_Wifi_BLE_SDK/GD32VW55x_RELEASE_V1.0.2/MSDK/ble/app\app_sec_mgr.c ****         return;
 1786              		.loc 1 378 9
 1787 05ce 37050000 		lui	a0,%hi(.LC28)
 1788 05d2 13050500 		addi	a0,a0,%lo(.LC28)
 1789 05d6 D1B3     		j	.L230
 1790              	.L144:
 382:C:/Users/stapi/OneDrive/Desktop/GD32VW553/GD32VW55X_Wifi_BLE_SDK/GD32VW55x_RELEASE_V1.0.2/MSDK/ble/app\app_sec_mgr.c ****            p_info->bond_info.pairing_lvl, p_info->bond_info.enc_key_present, p_info->sc);
 1791              		.loc 1 382 5
 382:C:/Users/stapi/OneDrive/Desktop/GD32VW553/GD32VW55X_Wifi_BLE_SDK/GD32VW55x_RELEASE_V1.0.2/MSDK/ble/app\app_sec_mgr.c ****            p_info->bond_info.pairing_lvl, p_info->bond_info.enc_key_present, p_info->sc);
 1792              		.loc 1 382 5
 1793 05d8 63F2E702 		bleu	a4,a5,.L145
 382:C:/Users/stapi/OneDrive/Desktop/GD32VW553/GD32VW55X_Wifi_BLE_SDK/GD32VW55x_RELEASE_V1.0.2/MSDK/ble/app\app_sec_mgr.c ****            p_info->bond_info.pairing_lvl, p_info->bond_info.enc_key_present, p_info->sc);
 1794              		.loc 1 382 5
 1795 05dc 03471400 		lbu	a4,1(s0)
 1796 05e0 83465400 		lbu	a3,5(s0)
 1797 05e4 03464400 		lbu	a2,4(s0)
 1798 05e8 83450400 		lbu	a1,0(s0)
 1799 05ec 37050000 		lui	a0,%hi(.LC29)
 1800 05f0 13050500 		addi	a0,a0,%lo(.LC29)
 1801 05f4 97000000 		call	co_printf
 1801      E7800000 
 1802              	.LVL149:
 1803              	.L145:
 382:C:/Users/stapi/OneDrive/Desktop/GD32VW553/GD32VW55X_Wifi_BLE_SDK/GD32VW55x_RELEASE_V1.0.2/MSDK/ble/app\app_sec_mgr.c ****            p_info->bond_info.pairing_lvl, p_info->bond_info.enc_key_present, p_info->sc);
 1804              		.loc 1 382 5
 385:C:/Users/stapi/OneDrive/Desktop/GD32VW553/GD32VW55X_Wifi_BLE_SDK/GD32VW55x_RELEASE_V1.0.2/MSDK/ble/app\app_sec_mgr.c ****     p_device->bond_info = p_info->bond_info;
 1805              		.loc 1 385 5
 385:C:/Users/stapi/OneDrive/Desktop/GD32VW553/GD32VW55X_Wifi_BLE_SDK/GD32VW55x_RELEASE_V1.0.2/MSDK/ble/app\app_sec_mgr.c ****     p_device->bond_info = p_info->bond_info;
 1806              		.loc 1 385 103 is_stmt 0
 1807 05fc 83474400 		lbu	a5,4(s0)
 386:C:/Users/stapi/OneDrive/Desktop/GD32VW553/GD32VW55X_Wifi_BLE_SDK/GD32VW55x_RELEASE_V1.0.2/MSDK/ble/app\app_sec_mgr.c **** 
 1808              		.loc 1 386 25
 1809 0600 13068007 		li	a2,120
 1810 0604 93054400 		addi	a1,s0,4
 385:C:/Users/stapi/OneDrive/Desktop/GD32VW553/GD32VW55X_Wifi_BLE_SDK/GD32VW55x_RELEASE_V1.0.2/MSDK/ble/app\app_sec_mgr.c ****     p_device->bond_info = p_info->bond_info;
 1811              		.loc 1 385 103
 1812 0608 858B     		andi	a5,a5,1
 1813 060a 2389F400 		sb	a5,18(s1)
 386:C:/Users/stapi/OneDrive/Desktop/GD32VW553/GD32VW55X_Wifi_BLE_SDK/GD32VW55x_RELEASE_V1.0.2/MSDK/ble/app\app_sec_mgr.c **** 
 1814              		.loc 1 386 5 is_stmt 1
 386:C:/Users/stapi/OneDrive/Desktop/GD32VW553/GD32VW55X_Wifi_BLE_SDK/GD32VW55x_RELEASE_V1.0.2/MSDK/ble/app\app_sec_mgr.c **** 
 1815              		.loc 1 386 25 is_stmt 0
 1816 060e 1385C403 		addi	a0,s1,60
 1817 0612 97000000 		call	memcpy
 1817      E7800000 
 1818              	.LVL150:
 388:C:/Users/stapi/OneDrive/Desktop/GD32VW553/GD32VW55X_Wifi_BLE_SDK/GD32VW55x_RELEASE_V1.0.2/MSDK/ble/app\app_sec_mgr.c ****         dbg_print(NOTICE, "local key size %d, ltk(hex): ", p_device->bond_info.local_ltk.key_size);
 1819              		.loc 1 388 5 is_stmt 1
 388:C:/Users/stapi/OneDrive/Desktop/GD32VW553/GD32VW55X_Wifi_BLE_SDK/GD32VW55x_RELEASE_V1.0.2/MSDK/ble/app\app_sec_mgr.c ****         dbg_print(NOTICE, "local key size %d, ltk(hex): ", p_device->bond_info.local_ltk.key_size);
 1820              		.loc 1 388 37 is_stmt 0
 1821 061a BC40     		lw	a5,64(s1)
 1822 061c 858B     		andi	a5,a5,1
 388:C:/Users/stapi/OneDrive/Desktop/GD32VW553/GD32VW55X_Wifi_BLE_SDK/GD32VW55x_RELEASE_V1.0.2/MSDK/ble/app\app_sec_mgr.c ****         dbg_print(NOTICE, "local key size %d, ltk(hex): ", p_device->bond_info.local_ltk.key_size);
 1823              		.loc 1 388 8
 1824 061e BDC3     		beq	a5,zero,.L147
 389:C:/Users/stapi/OneDrive/Desktop/GD32VW553/GD32VW55X_Wifi_BLE_SDK/GD32VW55x_RELEASE_V1.0.2/MSDK/ble/app\app_sec_mgr.c **** 
 1825              		.loc 1 389 9 is_stmt 1
 389:C:/Users/stapi/OneDrive/Desktop/GD32VW553/GD32VW55X_Wifi_BLE_SDK/GD32VW55x_RELEASE_V1.0.2/MSDK/ble/app\app_sec_mgr.c **** 
 1826              		.loc 1 389 9
 1827 0620 03470900 		lbu	a4,%lo(global_debug_level)(s2)
 1828 0624 8947     		li	a5,2
 1829 0626 63FCE700 		bleu	a4,a5,.L148
 389:C:/Users/stapi/OneDrive/Desktop/GD32VW553/GD32VW55X_Wifi_BLE_SDK/GD32VW55x_RELEASE_V1.0.2/MSDK/ble/app\app_sec_mgr.c **** 
 1830              		.loc 1 389 9
 1831 062a 83C52409 		lbu	a1,146(s1)
 1832 062e 37050000 		lui	a0,%hi(.LC30)
 1833 0632 13050500 		addi	a0,a0,%lo(.LC30)
 1834 0636 97000000 		call	co_printf
 1834      E7800000 
 1835              	.LVL151:
 1836              	.L148:
 1837 063e 13848407 		addi	s0,s1,120
 1838              	.LVL152:
 1839 0642 93898408 		addi	s3,s1,136
 392:C:/Users/stapi/OneDrive/Desktop/GD32VW553/GD32VW55X_Wifi_BLE_SDK/GD32VW55x_RELEASE_V1.0.2/MSDK/ble/app\app_sec_mgr.c ****         }
 1840              		.loc 1 392 13 is_stmt 0
 1841 0646 094A     		li	s4,2
 1842 0648 B70A0000 		lui	s5,%hi(.LC31)
 1843              	.L150:
 1844              	.LVL153:
 392:C:/Users/stapi/OneDrive/Desktop/GD32VW553/GD32VW55X_Wifi_BLE_SDK/GD32VW55x_RELEASE_V1.0.2/MSDK/ble/app\app_sec_mgr.c ****         }
 1845              		.loc 1 392 13 is_stmt 1
 392:C:/Users/stapi/OneDrive/Desktop/GD32VW553/GD32VW55X_Wifi_BLE_SDK/GD32VW55x_RELEASE_V1.0.2/MSDK/ble/app\app_sec_mgr.c ****         }
 1846              		.loc 1 392 13
 1847 064c 83470900 		lbu	a5,%lo(global_debug_level)(s2)
 1848 0650 637AFA00 		bleu	a5,s4,.L149
 392:C:/Users/stapi/OneDrive/Desktop/GD32VW553/GD32VW55X_Wifi_BLE_SDK/GD32VW55x_RELEASE_V1.0.2/MSDK/ble/app\app_sec_mgr.c ****         }
 1849              		.loc 1 392 13
 1850 0654 83450400 		lbu	a1,0(s0)
 1851 0658 13850A00 		addi	a0,s5,%lo(.LC31)
 1852 065c 97000000 		call	co_printf
 1852      E7800000 
 1853              	.LVL154:
 1854              	.L149:
 392:C:/Users/stapi/OneDrive/Desktop/GD32VW553/GD32VW55X_Wifi_BLE_SDK/GD32VW55x_RELEASE_V1.0.2/MSDK/ble/app\app_sec_mgr.c ****         }
 1855              		.loc 1 392 13
 391:C:/Users/stapi/OneDrive/Desktop/GD32VW553/GD32VW55X_Wifi_BLE_SDK/GD32VW55x_RELEASE_V1.0.2/MSDK/ble/app\app_sec_mgr.c ****             dbg_print(NOTICE, "%02x", p_device->bond_info.local_ltk.ltk[i]);
 1856              		.loc 1 391 42
 391:C:/Users/stapi/OneDrive/Desktop/GD32VW553/GD32VW55X_Wifi_BLE_SDK/GD32VW55x_RELEASE_V1.0.2/MSDK/ble/app\app_sec_mgr.c ****             dbg_print(NOTICE, "%02x", p_device->bond_info.local_ltk.ltk[i]);
 1857              		.loc 1 391 21
 391:C:/Users/stapi/OneDrive/Desktop/GD32VW553/GD32VW55X_Wifi_BLE_SDK/GD32VW55x_RELEASE_V1.0.2/MSDK/ble/app\app_sec_mgr.c ****             dbg_print(NOTICE, "%02x", p_device->bond_info.local_ltk.ltk[i]);
 1858              		.loc 1 391 9 is_stmt 0
 1859 0664 0504     		addi	s0,s0,1
 1860              	.LVL155:
 1861 0666 E31334FF 		bne	s0,s3,.L150
 394:C:/Users/stapi/OneDrive/Desktop/GD32VW553/GD32VW55X_Wifi_BLE_SDK/GD32VW55x_RELEASE_V1.0.2/MSDK/ble/app\app_sec_mgr.c ****     }
 1862              		.loc 1 394 9 is_stmt 1
 394:C:/Users/stapi/OneDrive/Desktop/GD32VW553/GD32VW55X_Wifi_BLE_SDK/GD32VW55x_RELEASE_V1.0.2/MSDK/ble/app\app_sec_mgr.c ****     }
 1863              		.loc 1 394 9
 1864 066a 03470900 		lbu	a4,%lo(global_debug_level)(s2)
 1865 066e 8947     		li	a5,2
 1866 0670 63FAE700 		bleu	a4,a5,.L147
 394:C:/Users/stapi/OneDrive/Desktop/GD32VW553/GD32VW55X_Wifi_BLE_SDK/GD32VW55x_RELEASE_V1.0.2/MSDK/ble/app\app_sec_mgr.c ****     }
 1867              		.loc 1 394 9
 1868 0674 37050000 		lui	a0,%hi(.LC11)
 1869 0678 13050500 		addi	a0,a0,%lo(.LC11)
 1870 067c 97000000 		call	co_printf
 1870      E7800000 
 1871              	.LVL156:
 1872              	.L147:
 394:C:/Users/stapi/OneDrive/Desktop/GD32VW553/GD32VW55X_Wifi_BLE_SDK/GD32VW55x_RELEASE_V1.0.2/MSDK/ble/app\app_sec_mgr.c ****     }
 1873              		.loc 1 394 9
 397:C:/Users/stapi/OneDrive/Desktop/GD32VW553/GD32VW55X_Wifi_BLE_SDK/GD32VW55x_RELEASE_V1.0.2/MSDK/ble/app\app_sec_mgr.c ****         dbg_print(NOTICE, "peer key size %d, ltk(hex): ", p_device->bond_info.peer_ltk.key_size);
 1874              		.loc 1 397 5
 397:C:/Users/stapi/OneDrive/Desktop/GD32VW553/GD32VW55X_Wifi_BLE_SDK/GD32VW55x_RELEASE_V1.0.2/MSDK/ble/app\app_sec_mgr.c ****         dbg_print(NOTICE, "peer key size %d, ltk(hex): ", p_device->bond_info.peer_ltk.key_size);
 1875              		.loc 1 397 37 is_stmt 0
 1876 0684 BC40     		lw	a5,64(s1)
 1877 0686 898B     		andi	a5,a5,2
 397:C:/Users/stapi/OneDrive/Desktop/GD32VW553/GD32VW55X_Wifi_BLE_SDK/GD32VW55x_RELEASE_V1.0.2/MSDK/ble/app\app_sec_mgr.c ****         dbg_print(NOTICE, "peer key size %d, ltk(hex): ", p_device->bond_info.peer_ltk.key_size);
 1878              		.loc 1 397 8
 1879 0688 BDC3     		beq	a5,zero,.L153
 398:C:/Users/stapi/OneDrive/Desktop/GD32VW553/GD32VW55X_Wifi_BLE_SDK/GD32VW55x_RELEASE_V1.0.2/MSDK/ble/app\app_sec_mgr.c **** 
 1880              		.loc 1 398 9 is_stmt 1
 398:C:/Users/stapi/OneDrive/Desktop/GD32VW553/GD32VW55X_Wifi_BLE_SDK/GD32VW55x_RELEASE_V1.0.2/MSDK/ble/app\app_sec_mgr.c **** 
 1881              		.loc 1 398 9
 1882 068a 03470900 		lbu	a4,%lo(global_debug_level)(s2)
 1883 068e 8947     		li	a5,2
 1884 0690 63FCE700 		bleu	a4,a5,.L154
 398:C:/Users/stapi/OneDrive/Desktop/GD32VW553/GD32VW55X_Wifi_BLE_SDK/GD32VW55x_RELEASE_V1.0.2/MSDK/ble/app\app_sec_mgr.c **** 
 1885              		.loc 1 398 9
 1886 0694 83C56407 		lbu	a1,118(s1)
 1887 0698 37050000 		lui	a0,%hi(.LC32)
 1888 069c 13050500 		addi	a0,a0,%lo(.LC32)
 1889 06a0 97000000 		call	co_printf
 1889      E7800000 
 1890              	.LVL157:
 1891              	.L154:
 1892 06a8 1384C405 		addi	s0,s1,92
 1893 06ac 9389C406 		addi	s3,s1,108
 401:C:/Users/stapi/OneDrive/Desktop/GD32VW553/GD32VW55X_Wifi_BLE_SDK/GD32VW55x_RELEASE_V1.0.2/MSDK/ble/app\app_sec_mgr.c ****         }
 1894              		.loc 1 401 13 is_stmt 0
 1895 06b0 094A     		li	s4,2
 1896 06b2 B70A0000 		lui	s5,%hi(.LC31)
 1897              	.L156:
 1898              	.LVL158:
 401:C:/Users/stapi/OneDrive/Desktop/GD32VW553/GD32VW55X_Wifi_BLE_SDK/GD32VW55x_RELEASE_V1.0.2/MSDK/ble/app\app_sec_mgr.c ****         }
 1899              		.loc 1 401 13 is_stmt 1
 401:C:/Users/stapi/OneDrive/Desktop/GD32VW553/GD32VW55X_Wifi_BLE_SDK/GD32VW55x_RELEASE_V1.0.2/MSDK/ble/app\app_sec_mgr.c ****         }
 1900              		.loc 1 401 13
 1901 06b6 83470900 		lbu	a5,%lo(global_debug_level)(s2)
 1902 06ba 637AFA00 		bleu	a5,s4,.L155
 401:C:/Users/stapi/OneDrive/Desktop/GD32VW553/GD32VW55X_Wifi_BLE_SDK/GD32VW55x_RELEASE_V1.0.2/MSDK/ble/app\app_sec_mgr.c ****         }
 1903              		.loc 1 401 13
 1904 06be 83450400 		lbu	a1,0(s0)
 1905 06c2 13850A00 		addi	a0,s5,%lo(.LC31)
 1906 06c6 97000000 		call	co_printf
 1906      E7800000 
 1907              	.LVL159:
 1908              	.L155:
 401:C:/Users/stapi/OneDrive/Desktop/GD32VW553/GD32VW55X_Wifi_BLE_SDK/GD32VW55x_RELEASE_V1.0.2/MSDK/ble/app\app_sec_mgr.c ****         }
 1909              		.loc 1 401 13
 400:C:/Users/stapi/OneDrive/Desktop/GD32VW553/GD32VW55X_Wifi_BLE_SDK/GD32VW55x_RELEASE_V1.0.2/MSDK/ble/app\app_sec_mgr.c ****             dbg_print(NOTICE, "%02x", p_device->bond_info.peer_ltk.ltk[i]);
 1910              		.loc 1 400 42
 400:C:/Users/stapi/OneDrive/Desktop/GD32VW553/GD32VW55X_Wifi_BLE_SDK/GD32VW55x_RELEASE_V1.0.2/MSDK/ble/app\app_sec_mgr.c ****             dbg_print(NOTICE, "%02x", p_device->bond_info.peer_ltk.ltk[i]);
 1911              		.loc 1 400 21
 400:C:/Users/stapi/OneDrive/Desktop/GD32VW553/GD32VW55X_Wifi_BLE_SDK/GD32VW55x_RELEASE_V1.0.2/MSDK/ble/app\app_sec_mgr.c ****             dbg_print(NOTICE, "%02x", p_device->bond_info.peer_ltk.ltk[i]);
 1912              		.loc 1 400 9 is_stmt 0
 1913 06ce 0504     		addi	s0,s0,1
 1914              	.LVL160:
 1915 06d0 E31334FF 		bne	s0,s3,.L156
 403:C:/Users/stapi/OneDrive/Desktop/GD32VW553/GD32VW55X_Wifi_BLE_SDK/GD32VW55x_RELEASE_V1.0.2/MSDK/ble/app\app_sec_mgr.c ****     }
 1916              		.loc 1 403 9 is_stmt 1
 403:C:/Users/stapi/OneDrive/Desktop/GD32VW553/GD32VW55X_Wifi_BLE_SDK/GD32VW55x_RELEASE_V1.0.2/MSDK/ble/app\app_sec_mgr.c ****     }
 1917              		.loc 1 403 9
 1918 06d4 03470900 		lbu	a4,%lo(global_debug_level)(s2)
 1919 06d8 8947     		li	a5,2
 1920 06da 63FAE700 		bleu	a4,a5,.L153
 403:C:/Users/stapi/OneDrive/Desktop/GD32VW553/GD32VW55X_Wifi_BLE_SDK/GD32VW55x_RELEASE_V1.0.2/MSDK/ble/app\app_sec_mgr.c ****     }
 1921              		.loc 1 403 9
 1922 06de 37050000 		lui	a0,%hi(.LC11)
 1923 06e2 13050500 		addi	a0,a0,%lo(.LC11)
 1924 06e6 97000000 		call	co_printf
 1924      E7800000 
 1925              	.LVL161:
 1926              	.L153:
 403:C:/Users/stapi/OneDrive/Desktop/GD32VW553/GD32VW55X_Wifi_BLE_SDK/GD32VW55x_RELEASE_V1.0.2/MSDK/ble/app\app_sec_mgr.c ****     }
 1927              		.loc 1 403 9
 406:C:/Users/stapi/OneDrive/Desktop/GD32VW553/GD32VW55X_Wifi_BLE_SDK/GD32VW55x_RELEASE_V1.0.2/MSDK/ble/app\app_sec_mgr.c ****         dbg_print(NOTICE, "peer irk(hex): ");
 1928              		.loc 1 406 5
 406:C:/Users/stapi/OneDrive/Desktop/GD32VW553/GD32VW55X_Wifi_BLE_SDK/GD32VW55x_RELEASE_V1.0.2/MSDK/ble/app\app_sec_mgr.c ****         dbg_print(NOTICE, "peer irk(hex): ");
 1929              		.loc 1 406 37 is_stmt 0
 1930 06ee BC40     		lw	a5,64(s1)
 1931 06f0 918B     		andi	a5,a5,4
 406:C:/Users/stapi/OneDrive/Desktop/GD32VW553/GD32VW55X_Wifi_BLE_SDK/GD32VW55x_RELEASE_V1.0.2/MSDK/ble/app\app_sec_mgr.c ****         dbg_print(NOTICE, "peer irk(hex): ");
 1932              		.loc 1 406 8
 1933 06f2 ADC3     		beq	a5,zero,.L159
 407:C:/Users/stapi/OneDrive/Desktop/GD32VW553/GD32VW55X_Wifi_BLE_SDK/GD32VW55x_RELEASE_V1.0.2/MSDK/ble/app\app_sec_mgr.c **** 
 1934              		.loc 1 407 9 is_stmt 1
 407:C:/Users/stapi/OneDrive/Desktop/GD32VW553/GD32VW55X_Wifi_BLE_SDK/GD32VW55x_RELEASE_V1.0.2/MSDK/ble/app\app_sec_mgr.c **** 
 1935              		.loc 1 407 9
 1936 06f4 03470900 		lbu	a4,%lo(global_debug_level)(s2)
 1937 06f8 8947     		li	a5,2
 1938 06fa 63FAE700 		bleu	a4,a5,.L160
 407:C:/Users/stapi/OneDrive/Desktop/GD32VW553/GD32VW55X_Wifi_BLE_SDK/GD32VW55x_RELEASE_V1.0.2/MSDK/ble/app\app_sec_mgr.c **** 
 1939              		.loc 1 407 9
 1940 06fe 37050000 		lui	a0,%hi(.LC33)
 1941 0702 13050500 		addi	a0,a0,%lo(.LC33)
 1942 0706 97000000 		call	co_printf
 1942      E7800000 
 1943              	.LVL162:
 1944              	.L160:
 1945 070e 13844404 		addi	s0,s1,68
 1946 0712 93894405 		addi	s3,s1,84
 410:C:/Users/stapi/OneDrive/Desktop/GD32VW553/GD32VW55X_Wifi_BLE_SDK/GD32VW55x_RELEASE_V1.0.2/MSDK/ble/app\app_sec_mgr.c ****         }
 1947              		.loc 1 410 13 is_stmt 0
 1948 0716 094A     		li	s4,2
 1949 0718 B70A0000 		lui	s5,%hi(.LC31)
 1950              	.L162:
 1951              	.LVL163:
 410:C:/Users/stapi/OneDrive/Desktop/GD32VW553/GD32VW55X_Wifi_BLE_SDK/GD32VW55x_RELEASE_V1.0.2/MSDK/ble/app\app_sec_mgr.c ****         }
 1952              		.loc 1 410 13 is_stmt 1
 410:C:/Users/stapi/OneDrive/Desktop/GD32VW553/GD32VW55X_Wifi_BLE_SDK/GD32VW55x_RELEASE_V1.0.2/MSDK/ble/app\app_sec_mgr.c ****         }
 1953              		.loc 1 410 13
 1954 071c 83470900 		lbu	a5,%lo(global_debug_level)(s2)
 1955 0720 637AFA00 		bleu	a5,s4,.L161
 410:C:/Users/stapi/OneDrive/Desktop/GD32VW553/GD32VW55X_Wifi_BLE_SDK/GD32VW55x_RELEASE_V1.0.2/MSDK/ble/app\app_sec_mgr.c ****         }
 1956              		.loc 1 410 13
 1957 0724 83450400 		lbu	a1,0(s0)
 1958 0728 13850A00 		addi	a0,s5,%lo(.LC31)
 1959 072c 97000000 		call	co_printf
 1959      E7800000 
 1960              	.LVL164:
 1961              	.L161:
 410:C:/Users/stapi/OneDrive/Desktop/GD32VW553/GD32VW55X_Wifi_BLE_SDK/GD32VW55x_RELEASE_V1.0.2/MSDK/ble/app\app_sec_mgr.c ****         }
 1962              		.loc 1 410 13
 409:C:/Users/stapi/OneDrive/Desktop/GD32VW553/GD32VW55X_Wifi_BLE_SDK/GD32VW55x_RELEASE_V1.0.2/MSDK/ble/app\app_sec_mgr.c ****             dbg_print(NOTICE, "%02x", p_device->bond_info.peer_irk.irk[i]);
 1963              		.loc 1 409 42
 409:C:/Users/stapi/OneDrive/Desktop/GD32VW553/GD32VW55X_Wifi_BLE_SDK/GD32VW55x_RELEASE_V1.0.2/MSDK/ble/app\app_sec_mgr.c ****             dbg_print(NOTICE, "%02x", p_device->bond_info.peer_irk.irk[i]);
 1964              		.loc 1 409 21
 409:C:/Users/stapi/OneDrive/Desktop/GD32VW553/GD32VW55X_Wifi_BLE_SDK/GD32VW55x_RELEASE_V1.0.2/MSDK/ble/app\app_sec_mgr.c ****             dbg_print(NOTICE, "%02x", p_device->bond_info.peer_irk.irk[i]);
 1965              		.loc 1 409 9 is_stmt 0
 1966 0734 0504     		addi	s0,s0,1
 1967              	.LVL165:
 1968 0736 E31334FF 		bne	s0,s3,.L162
 412:C:/Users/stapi/OneDrive/Desktop/GD32VW553/GD32VW55X_Wifi_BLE_SDK/GD32VW55x_RELEASE_V1.0.2/MSDK/ble/app\app_sec_mgr.c ****     }
 1969              		.loc 1 412 9 is_stmt 1
 412:C:/Users/stapi/OneDrive/Desktop/GD32VW553/GD32VW55X_Wifi_BLE_SDK/GD32VW55x_RELEASE_V1.0.2/MSDK/ble/app\app_sec_mgr.c ****     }
 1970              		.loc 1 412 9
 1971 073a 03470900 		lbu	a4,%lo(global_debug_level)(s2)
 1972 073e 8947     		li	a5,2
 1973 0740 63FAE700 		bleu	a4,a5,.L159
 412:C:/Users/stapi/OneDrive/Desktop/GD32VW553/GD32VW55X_Wifi_BLE_SDK/GD32VW55x_RELEASE_V1.0.2/MSDK/ble/app\app_sec_mgr.c ****     }
 1974              		.loc 1 412 9
 1975 0744 37050000 		lui	a0,%hi(.LC11)
 1976 0748 13050500 		addi	a0,a0,%lo(.LC11)
 1977 074c 97000000 		call	co_printf
 1977      E7800000 
 1978              	.LVL166:
 1979              	.L159:
 412:C:/Users/stapi/OneDrive/Desktop/GD32VW553/GD32VW55X_Wifi_BLE_SDK/GD32VW55x_RELEASE_V1.0.2/MSDK/ble/app\app_sec_mgr.c ****     }
 1980              		.loc 1 412 9
 415:C:/Users/stapi/OneDrive/Desktop/GD32VW553/GD32VW55X_Wifi_BLE_SDK/GD32VW55x_RELEASE_V1.0.2/MSDK/ble/app\app_sec_mgr.c ****         dbg_print(NOTICE, "local csrk(hex): ");
 1981              		.loc 1 415 5
 415:C:/Users/stapi/OneDrive/Desktop/GD32VW553/GD32VW55X_Wifi_BLE_SDK/GD32VW55x_RELEASE_V1.0.2/MSDK/ble/app\app_sec_mgr.c ****         dbg_print(NOTICE, "local csrk(hex): ");
 1982              		.loc 1 415 37 is_stmt 0
 1983 0754 BC40     		lw	a5,64(s1)
 1984 0756 A18B     		andi	a5,a5,8
 415:C:/Users/stapi/OneDrive/Desktop/GD32VW553/GD32VW55X_Wifi_BLE_SDK/GD32VW55x_RELEASE_V1.0.2/MSDK/ble/app\app_sec_mgr.c ****         dbg_print(NOTICE, "local csrk(hex): ");
 1985              		.loc 1 415 8
 1986 0758 ADC3     		beq	a5,zero,.L165
 416:C:/Users/stapi/OneDrive/Desktop/GD32VW553/GD32VW55X_Wifi_BLE_SDK/GD32VW55x_RELEASE_V1.0.2/MSDK/ble/app\app_sec_mgr.c **** 
 1987              		.loc 1 416 9 is_stmt 1
 416:C:/Users/stapi/OneDrive/Desktop/GD32VW553/GD32VW55X_Wifi_BLE_SDK/GD32VW55x_RELEASE_V1.0.2/MSDK/ble/app\app_sec_mgr.c **** 
 1988              		.loc 1 416 9
 1989 075a 03470900 		lbu	a4,%lo(global_debug_level)(s2)
 1990 075e 8947     		li	a5,2
 1991 0760 63FAE700 		bleu	a4,a5,.L166
 416:C:/Users/stapi/OneDrive/Desktop/GD32VW553/GD32VW55X_Wifi_BLE_SDK/GD32VW55x_RELEASE_V1.0.2/MSDK/ble/app\app_sec_mgr.c **** 
 1992              		.loc 1 416 9
 1993 0764 37050000 		lui	a0,%hi(.LC34)
 1994 0768 13050500 		addi	a0,a0,%lo(.LC34)
 1995 076c 97000000 		call	co_printf
 1995      E7800000 
 1996              	.LVL167:
 1997              	.L166:
 1998 0774 1384440A 		addi	s0,s1,164
 1999 0778 9389440B 		addi	s3,s1,180
 419:C:/Users/stapi/OneDrive/Desktop/GD32VW553/GD32VW55X_Wifi_BLE_SDK/GD32VW55x_RELEASE_V1.0.2/MSDK/ble/app\app_sec_mgr.c ****         }
 2000              		.loc 1 419 13 is_stmt 0
 2001 077c 094A     		li	s4,2
 2002 077e B70A0000 		lui	s5,%hi(.LC31)
 2003              	.L168:
 2004              	.LVL168:
 419:C:/Users/stapi/OneDrive/Desktop/GD32VW553/GD32VW55X_Wifi_BLE_SDK/GD32VW55x_RELEASE_V1.0.2/MSDK/ble/app\app_sec_mgr.c ****         }
 2005              		.loc 1 419 13 is_stmt 1
 419:C:/Users/stapi/OneDrive/Desktop/GD32VW553/GD32VW55X_Wifi_BLE_SDK/GD32VW55x_RELEASE_V1.0.2/MSDK/ble/app\app_sec_mgr.c ****         }
 2006              		.loc 1 419 13
 2007 0782 83470900 		lbu	a5,%lo(global_debug_level)(s2)
 2008 0786 637AFA00 		bleu	a5,s4,.L167
 419:C:/Users/stapi/OneDrive/Desktop/GD32VW553/GD32VW55X_Wifi_BLE_SDK/GD32VW55x_RELEASE_V1.0.2/MSDK/ble/app\app_sec_mgr.c ****         }
 2009              		.loc 1 419 13
 2010 078a 83450400 		lbu	a1,0(s0)
 2011 078e 13850A00 		addi	a0,s5,%lo(.LC31)
 2012 0792 97000000 		call	co_printf
 2012      E7800000 
 2013              	.LVL169:
 2014              	.L167:
 419:C:/Users/stapi/OneDrive/Desktop/GD32VW553/GD32VW55X_Wifi_BLE_SDK/GD32VW55x_RELEASE_V1.0.2/MSDK/ble/app\app_sec_mgr.c ****         }
 2015              		.loc 1 419 13
 418:C:/Users/stapi/OneDrive/Desktop/GD32VW553/GD32VW55X_Wifi_BLE_SDK/GD32VW55x_RELEASE_V1.0.2/MSDK/ble/app\app_sec_mgr.c ****             dbg_print(NOTICE, "%02x", p_device->bond_info.local_csrk.csrk[i]);
 2016              		.loc 1 418 42
 418:C:/Users/stapi/OneDrive/Desktop/GD32VW553/GD32VW55X_Wifi_BLE_SDK/GD32VW55x_RELEASE_V1.0.2/MSDK/ble/app\app_sec_mgr.c ****             dbg_print(NOTICE, "%02x", p_device->bond_info.local_csrk.csrk[i]);
 2017              		.loc 1 418 21
 418:C:/Users/stapi/OneDrive/Desktop/GD32VW553/GD32VW55X_Wifi_BLE_SDK/GD32VW55x_RELEASE_V1.0.2/MSDK/ble/app\app_sec_mgr.c ****             dbg_print(NOTICE, "%02x", p_device->bond_info.local_csrk.csrk[i]);
 2018              		.loc 1 418 9 is_stmt 0
 2019 079a 0504     		addi	s0,s0,1
 2020              	.LVL170:
 2021 079c E31334FF 		bne	s0,s3,.L168
 421:C:/Users/stapi/OneDrive/Desktop/GD32VW553/GD32VW55X_Wifi_BLE_SDK/GD32VW55x_RELEASE_V1.0.2/MSDK/ble/app\app_sec_mgr.c ****     }
 2022              		.loc 1 421 9 is_stmt 1
 421:C:/Users/stapi/OneDrive/Desktop/GD32VW553/GD32VW55X_Wifi_BLE_SDK/GD32VW55x_RELEASE_V1.0.2/MSDK/ble/app\app_sec_mgr.c ****     }
 2023              		.loc 1 421 9
 2024 07a0 03470900 		lbu	a4,%lo(global_debug_level)(s2)
 2025 07a4 8947     		li	a5,2
 2026 07a6 63FAE700 		bleu	a4,a5,.L165
 421:C:/Users/stapi/OneDrive/Desktop/GD32VW553/GD32VW55X_Wifi_BLE_SDK/GD32VW55x_RELEASE_V1.0.2/MSDK/ble/app\app_sec_mgr.c ****     }
 2027              		.loc 1 421 9
 2028 07aa 37050000 		lui	a0,%hi(.LC11)
 2029 07ae 13050500 		addi	a0,a0,%lo(.LC11)
 2030 07b2 97000000 		call	co_printf
 2030      E7800000 
 2031              	.LVL171:
 2032              	.L165:
 421:C:/Users/stapi/OneDrive/Desktop/GD32VW553/GD32VW55X_Wifi_BLE_SDK/GD32VW55x_RELEASE_V1.0.2/MSDK/ble/app\app_sec_mgr.c ****     }
 2033              		.loc 1 421 9
 424:C:/Users/stapi/OneDrive/Desktop/GD32VW553/GD32VW55X_Wifi_BLE_SDK/GD32VW55x_RELEASE_V1.0.2/MSDK/ble/app\app_sec_mgr.c ****         dbg_print(NOTICE, "peer csrk(hex): ");
 2034              		.loc 1 424 5
 424:C:/Users/stapi/OneDrive/Desktop/GD32VW553/GD32VW55X_Wifi_BLE_SDK/GD32VW55x_RELEASE_V1.0.2/MSDK/ble/app\app_sec_mgr.c ****         dbg_print(NOTICE, "peer csrk(hex): ");
 2035              		.loc 1 424 37 is_stmt 0
 2036 07ba BC40     		lw	a5,64(s1)
 2037 07bc C18B     		andi	a5,a5,16
 424:C:/Users/stapi/OneDrive/Desktop/GD32VW553/GD32VW55X_Wifi_BLE_SDK/GD32VW55x_RELEASE_V1.0.2/MSDK/ble/app\app_sec_mgr.c ****         dbg_print(NOTICE, "peer csrk(hex): ");
 2038              		.loc 1 424 8
 2039 07be ADC3     		beq	a5,zero,.L171
 425:C:/Users/stapi/OneDrive/Desktop/GD32VW553/GD32VW55X_Wifi_BLE_SDK/GD32VW55x_RELEASE_V1.0.2/MSDK/ble/app\app_sec_mgr.c **** 
 2040              		.loc 1 425 9 is_stmt 1
 425:C:/Users/stapi/OneDrive/Desktop/GD32VW553/GD32VW55X_Wifi_BLE_SDK/GD32VW55x_RELEASE_V1.0.2/MSDK/ble/app\app_sec_mgr.c **** 
 2041              		.loc 1 425 9
 2042 07c0 03470900 		lbu	a4,%lo(global_debug_level)(s2)
 2043 07c4 8947     		li	a5,2
 2044 07c6 63FAE700 		bleu	a4,a5,.L172
 425:C:/Users/stapi/OneDrive/Desktop/GD32VW553/GD32VW55X_Wifi_BLE_SDK/GD32VW55x_RELEASE_V1.0.2/MSDK/ble/app\app_sec_mgr.c **** 
 2045              		.loc 1 425 9
 2046 07ca 37050000 		lui	a0,%hi(.LC35)
 2047 07ce 13050500 		addi	a0,a0,%lo(.LC35)
 2048 07d2 97000000 		call	co_printf
 2048      E7800000 
 2049              	.LVL172:
 2050              	.L172:
 2051 07da 13844409 		addi	s0,s1,148
 2052 07de 9389440A 		addi	s3,s1,164
 428:C:/Users/stapi/OneDrive/Desktop/GD32VW553/GD32VW55X_Wifi_BLE_SDK/GD32VW55x_RELEASE_V1.0.2/MSDK/ble/app\app_sec_mgr.c ****         }
 2053              		.loc 1 428 13 is_stmt 0
 2054 07e2 094A     		li	s4,2
 2055 07e4 B70A0000 		lui	s5,%hi(.LC31)
 2056              	.L174:
 2057              	.LVL173:
 428:C:/Users/stapi/OneDrive/Desktop/GD32VW553/GD32VW55X_Wifi_BLE_SDK/GD32VW55x_RELEASE_V1.0.2/MSDK/ble/app\app_sec_mgr.c ****         }
 2058              		.loc 1 428 13 is_stmt 1
 428:C:/Users/stapi/OneDrive/Desktop/GD32VW553/GD32VW55X_Wifi_BLE_SDK/GD32VW55x_RELEASE_V1.0.2/MSDK/ble/app\app_sec_mgr.c ****         }
 2059              		.loc 1 428 13
 2060 07e8 83470900 		lbu	a5,%lo(global_debug_level)(s2)
 2061 07ec 637AFA00 		bleu	a5,s4,.L173
 428:C:/Users/stapi/OneDrive/Desktop/GD32VW553/GD32VW55X_Wifi_BLE_SDK/GD32VW55x_RELEASE_V1.0.2/MSDK/ble/app\app_sec_mgr.c ****         }
 2062              		.loc 1 428 13
 2063 07f0 83450400 		lbu	a1,0(s0)
 2064 07f4 13850A00 		addi	a0,s5,%lo(.LC31)
 2065 07f8 97000000 		call	co_printf
 2065      E7800000 
 2066              	.LVL174:
 2067              	.L173:
 428:C:/Users/stapi/OneDrive/Desktop/GD32VW553/GD32VW55X_Wifi_BLE_SDK/GD32VW55x_RELEASE_V1.0.2/MSDK/ble/app\app_sec_mgr.c ****         }
 2068              		.loc 1 428 13
 427:C:/Users/stapi/OneDrive/Desktop/GD32VW553/GD32VW55X_Wifi_BLE_SDK/GD32VW55x_RELEASE_V1.0.2/MSDK/ble/app\app_sec_mgr.c ****             dbg_print(NOTICE, "%02x", p_device->bond_info.peer_csrk.csrk[i]);
 2069              		.loc 1 427 42
 427:C:/Users/stapi/OneDrive/Desktop/GD32VW553/GD32VW55X_Wifi_BLE_SDK/GD32VW55x_RELEASE_V1.0.2/MSDK/ble/app\app_sec_mgr.c ****             dbg_print(NOTICE, "%02x", p_device->bond_info.peer_csrk.csrk[i]);
 2070              		.loc 1 427 21
 427:C:/Users/stapi/OneDrive/Desktop/GD32VW553/GD32VW55X_Wifi_BLE_SDK/GD32VW55x_RELEASE_V1.0.2/MSDK/ble/app\app_sec_mgr.c ****             dbg_print(NOTICE, "%02x", p_device->bond_info.peer_csrk.csrk[i]);
 2071              		.loc 1 427 9 is_stmt 0
 2072 0800 0504     		addi	s0,s0,1
 2073              	.LVL175:
 2074 0802 E39389FE 		bne	s3,s0,.L174
 430:C:/Users/stapi/OneDrive/Desktop/GD32VW553/GD32VW55X_Wifi_BLE_SDK/GD32VW55x_RELEASE_V1.0.2/MSDK/ble/app\app_sec_mgr.c ****     }
 2075              		.loc 1 430 9 is_stmt 1
 430:C:/Users/stapi/OneDrive/Desktop/GD32VW553/GD32VW55X_Wifi_BLE_SDK/GD32VW55x_RELEASE_V1.0.2/MSDK/ble/app\app_sec_mgr.c ****     }
 2076              		.loc 1 430 9
 2077 0806 03470900 		lbu	a4,%lo(global_debug_level)(s2)
 2078 080a 8947     		li	a5,2
 2079 080c 63FAE700 		bleu	a4,a5,.L171
 430:C:/Users/stapi/OneDrive/Desktop/GD32VW553/GD32VW55X_Wifi_BLE_SDK/GD32VW55x_RELEASE_V1.0.2/MSDK/ble/app\app_sec_mgr.c ****     }
 2080              		.loc 1 430 9
 2081 0810 37050000 		lui	a0,%hi(.LC11)
 2082 0814 13050500 		addi	a0,a0,%lo(.LC11)
 2083 0818 97000000 		call	co_printf
 2083      E7800000 
 2084              	.LVL176:
 2085              	.L171:
 430:C:/Users/stapi/OneDrive/Desktop/GD32VW553/GD32VW55X_Wifi_BLE_SDK/GD32VW55x_RELEASE_V1.0.2/MSDK/ble/app\app_sec_mgr.c ****     }
 2086              		.loc 1 430 9
 434:C:/Users/stapi/OneDrive/Desktop/GD32VW553/GD32VW55X_Wifi_BLE_SDK/GD32VW55x_RELEASE_V1.0.2/MSDK/ble/app\app_sec_mgr.c ****         // If has identity address use identity address as store key
 2087              		.loc 1 434 5
 443:C:/Users/stapi/OneDrive/Desktop/GD32VW553/GD32VW55X_Wifi_BLE_SDK/GD32VW55x_RELEASE_V1.0.2/MSDK/ble/app\app_sec_mgr.c ****         memcmp(&pairing_cb.addr, &p_device->cur_addr, sizeof(ble_gap_addr_t)) == 0) {
 2088              		.loc 1 443 5
 443:C:/Users/stapi/OneDrive/Desktop/GD32VW553/GD32VW55X_Wifi_BLE_SDK/GD32VW55x_RELEASE_V1.0.2/MSDK/ble/app\app_sec_mgr.c ****         memcmp(&pairing_cb.addr, &p_device->cur_addr, sizeof(ble_gap_addr_t)) == 0) {
 2089              		.loc 1 443 19 is_stmt 0
 2090 0820 37040000 		lui	s0,%hi(.LANCHOR1)
 2091 0824 13040400 		addi	s0,s0,%lo(.LANCHOR1)
 443:C:/Users/stapi/OneDrive/Desktop/GD32VW553/GD32VW55X_Wifi_BLE_SDK/GD32VW55x_RELEASE_V1.0.2/MSDK/ble/app\app_sec_mgr.c ****         memcmp(&pairing_cb.addr, &p_device->cur_addr, sizeof(ble_gap_addr_t)) == 0) {
 2092              		.loc 1 443 8
 2093 0828 1840     		lw	a4,0(s0)
 2094 082a 8547     		li	a5,1
 2095 082c E31BF784 		bne	a4,a5,.L77
 444:C:/Users/stapi/OneDrive/Desktop/GD32VW553/GD32VW55X_Wifi_BLE_SDK/GD32VW55x_RELEASE_V1.0.2/MSDK/ble/app\app_sec_mgr.c ****         memset(&pairing_cb.addr, 0, sizeof(ble_gap_addr_t));
 2096              		.loc 1 444 9
 2097 0830 13094400 		addi	s2,s0,4
 2098 0834 1D46     		li	a2,7
 2099 0836 93858400 		addi	a1,s1,8
 2100 083a 4A85     		mv	a0,s2
 2101 083c 97000000 		call	memcmp
 2101      E7800000 
 2102              	.LVL177:
 443:C:/Users/stapi/OneDrive/Desktop/GD32VW553/GD32VW55X_Wifi_BLE_SDK/GD32VW55x_RELEASE_V1.0.2/MSDK/ble/app\app_sec_mgr.c ****         memcmp(&pairing_cb.addr, &p_device->cur_addr, sizeof(ble_gap_addr_t)) == 0) {
 2103              		.loc 1 443 52
 2104 0844 E31F0582 		bne	a0,zero,.L77
 445:C:/Users/stapi/OneDrive/Desktop/GD32VW553/GD32VW55X_Wifi_BLE_SDK/GD32VW55x_RELEASE_V1.0.2/MSDK/ble/app\app_sec_mgr.c ****         pairing_cb.state = BLE_BOND_STATE_NONE;
 2105              		.loc 1 445 9 is_stmt 1
 2106 0848 23220400 		sw	zero,4(s0)
 2107 084c 23140400 		sh	zero,8(s0)
 2108 0850 23050400 		sb	zero,10(s0)
 446:C:/Users/stapi/OneDrive/Desktop/GD32VW553/GD32VW55X_Wifi_BLE_SDK/GD32VW55x_RELEASE_V1.0.2/MSDK/ble/app\app_sec_mgr.c ****     }
 2109              		.loc 1 446 9
 446:C:/Users/stapi/OneDrive/Desktop/GD32VW553/GD32VW55X_Wifi_BLE_SDK/GD32VW55x_RELEASE_V1.0.2/MSDK/ble/app\app_sec_mgr.c ****     }
 2110              		.loc 1 446 26 is_stmt 0
 2111 0854 23200400 		sw	zero,0(s0)
 2112 0858 2DB0     		j	.L77
 2113              	.LVL178:
 2114              	.L85:
 2115              	.LBE80:
 2116              	.LBE79:
 642:C:/Users/stapi/OneDrive/Desktop/GD32VW553/GD32VW55X_Wifi_BLE_SDK/GD32VW55x_RELEASE_V1.0.2/MSDK/ble/app\app_sec_mgr.c ****         break;
 2117              		.loc 1 642 9 is_stmt 1
 2118              	.LBB81:
 2119              	.LBB82:
 458:C:/Users/stapi/OneDrive/Desktop/GD32VW553/GD32VW55X_Wifi_BLE_SDK/GD32VW55x_RELEASE_V1.0.2/MSDK/ble/app\app_sec_mgr.c **** 
 2120              		.loc 1 458 5
 458:C:/Users/stapi/OneDrive/Desktop/GD32VW553/GD32VW55X_Wifi_BLE_SDK/GD32VW55x_RELEASE_V1.0.2/MSDK/ble/app\app_sec_mgr.c **** 
 2121              		.loc 1 458 30 is_stmt 0
 2122 085a 03C50500 		lbu	a0,0(a1)
 2123 085e 37090000 		lui	s2,%hi(global_debug_level)
 2124 0862 97000000 		call	dm_find_dev_by_conidx
 2124      E7800000 
 2125              	.LVL179:
 460:C:/Users/stapi/OneDrive/Desktop/GD32VW553/GD32VW55X_Wifi_BLE_SDK/GD32VW55x_RELEASE_V1.0.2/MSDK/ble/app\app_sec_mgr.c ****         dbg_print(NOTICE, "app_pairing_fail_hdlr can't find device !\r\n");
 2126              		.loc 1 460 5 is_stmt 1
 460:C:/Users/stapi/OneDrive/Desktop/GD32VW553/GD32VW55X_Wifi_BLE_SDK/GD32VW55x_RELEASE_V1.0.2/MSDK/ble/app\app_sec_mgr.c ****         dbg_print(NOTICE, "app_pairing_fail_hdlr can't find device !\r\n");
 2127              		.loc 1 460 8 is_stmt 0
 2128 086a 19E9     		bne	a0,zero,.L176
 461:C:/Users/stapi/OneDrive/Desktop/GD32VW553/GD32VW55X_Wifi_BLE_SDK/GD32VW55x_RELEASE_V1.0.2/MSDK/ble/app\app_sec_mgr.c ****         return;
 2129              		.loc 1 461 9 is_stmt 1
 461:C:/Users/stapi/OneDrive/Desktop/GD32VW553/GD32VW55X_Wifi_BLE_SDK/GD32VW55x_RELEASE_V1.0.2/MSDK/ble/app\app_sec_mgr.c ****         return;
 2130              		.loc 1 461 9
 2131 086c 03470900 		lbu	a4,%lo(global_debug_level)(s2)
 2132 0870 8947     		li	a5,2
 2133 0872 E3F8E780 		bleu	a4,a5,.L77
 461:C:/Users/stapi/OneDrive/Desktop/GD32VW553/GD32VW55X_Wifi_BLE_SDK/GD32VW55x_RELEASE_V1.0.2/MSDK/ble/app\app_sec_mgr.c ****         return;
 2134              		.loc 1 461 9
 2135 0876 37050000 		lui	a0,%hi(.LC36)
 2136              	.LVL180:
 2137 087a 13050500 		addi	a0,a0,%lo(.LC36)
 2138 087e 31BE     		j	.L230
 2139              	.LVL181:
 2140              	.L176:
 465:C:/Users/stapi/OneDrive/Desktop/GD32VW553/GD32VW55X_Wifi_BLE_SDK/GD32VW55x_RELEASE_V1.0.2/MSDK/ble/app\app_sec_mgr.c ****         memcmp(&pairing_cb.addr, &p_device->cur_addr, sizeof(ble_gap_addr_t)) == 0) {
 2141              		.loc 1 465 5
 465:C:/Users/stapi/OneDrive/Desktop/GD32VW553/GD32VW55X_Wifi_BLE_SDK/GD32VW55x_RELEASE_V1.0.2/MSDK/ble/app\app_sec_mgr.c ****         memcmp(&pairing_cb.addr, &p_device->cur_addr, sizeof(ble_gap_addr_t)) == 0) {
 2142              		.loc 1 465 19 is_stmt 0
 2143 0880 B7040000 		lui	s1,%hi(.LANCHOR1)
 2144 0884 93840400 		addi	s1,s1,%lo(.LANCHOR1)
 465:C:/Users/stapi/OneDrive/Desktop/GD32VW553/GD32VW55X_Wifi_BLE_SDK/GD32VW55x_RELEASE_V1.0.2/MSDK/ble/app\app_sec_mgr.c ****         memcmp(&pairing_cb.addr, &p_device->cur_addr, sizeof(ble_gap_addr_t)) == 0) {
 2145              		.loc 1 465 8
 2146 0888 9840     		lw	a4,0(s1)
 2147 088a 8547     		li	a5,1
 2148 088c 6312F702 		bne	a4,a5,.L177
 466:C:/Users/stapi/OneDrive/Desktop/GD32VW553/GD32VW55X_Wifi_BLE_SDK/GD32VW55x_RELEASE_V1.0.2/MSDK/ble/app\app_sec_mgr.c ****         memset(&pairing_cb, 0, sizeof(pairing_cb));
 2149              		.loc 1 466 9
 2150 0890 93058500 		addi	a1,a0,8
 2151 0894 1D46     		li	a2,7
 2152 0896 13854400 		addi	a0,s1,4
 2153              	.LVL182:
 2154 089a 97000000 		call	memcmp
 2154      E7800000 
 2155              	.LVL183:
 465:C:/Users/stapi/OneDrive/Desktop/GD32VW553/GD32VW55X_Wifi_BLE_SDK/GD32VW55x_RELEASE_V1.0.2/MSDK/ble/app\app_sec_mgr.c ****         memcmp(&pairing_cb.addr, &p_device->cur_addr, sizeof(ble_gap_addr_t)) == 0) {
 2156              		.loc 1 465 52
 2157 08a2 19E5     		bne	a0,zero,.L177
 467:C:/Users/stapi/OneDrive/Desktop/GD32VW553/GD32VW55X_Wifi_BLE_SDK/GD32VW55x_RELEASE_V1.0.2/MSDK/ble/app\app_sec_mgr.c ****     }
 2158              		.loc 1 467 9 is_stmt 1
 2159 08a4 23A00400 		sw	zero,0(s1)
 2160 08a8 23A20400 		sw	zero,4(s1)
 2161 08ac 23A40400 		sw	zero,8(s1)
 2162              	.L177:
 470:C:/Users/stapi/OneDrive/Desktop/GD32VW553/GD32VW55X_Wifi_BLE_SDK/GD32VW55x_RELEASE_V1.0.2/MSDK/ble/app\app_sec_mgr.c **** }
 2163              		.loc 1 470 5
 470:C:/Users/stapi/OneDrive/Desktop/GD32VW553/GD32VW55X_Wifi_BLE_SDK/GD32VW55x_RELEASE_V1.0.2/MSDK/ble/app\app_sec_mgr.c **** }
 2164              		.loc 1 470 5
 2165 08b0 03470900 		lbu	a4,%lo(global_debug_level)(s2)
 2166 08b4 8947     		li	a5,2
 2167 08b6 63F6E7FC 		bleu	a4,a5,.L77
 470:C:/Users/stapi/OneDrive/Desktop/GD32VW553/GD32VW55X_Wifi_BLE_SDK/GD32VW55x_RELEASE_V1.0.2/MSDK/ble/app\app_sec_mgr.c **** }
 2168              		.loc 1 470 5
 2169 08ba 37050000 		lui	a0,%hi(.LC37)
 2170 08be 83552400 		lhu	a1,2(s0)
 2171 08c2 13050500 		addi	a0,a0,%lo(.LC37)
 2172 08c6 39B4     		j	.L231
 2173              	.LVL184:
 2174              	.L84:
 2175              	.LBE82:
 2176              	.LBE81:
 646:C:/Users/stapi/OneDrive/Desktop/GD32VW553/GD32VW55X_Wifi_BLE_SDK/GD32VW55x_RELEASE_V1.0.2/MSDK/ble/app\app_sec_mgr.c ****         break;
 2177              		.loc 1 646 9
 2178 08c8 2E85     		mv	a0,a1
 2179 08ca 97000000 		call	app_security_req_info_hdlr
 2179      E7800000 
 2180              	.LVL185:
 647:C:/Users/stapi/OneDrive/Desktop/GD32VW553/GD32VW55X_Wifi_BLE_SDK/GD32VW55x_RELEASE_V1.0.2/MSDK/ble/app\app_sec_mgr.c **** 
 2181              		.loc 1 647 9
 2182 08d2 6FF00FFB 		j	.L77
 2183              	.L83:
 650:C:/Users/stapi/OneDrive/Desktop/GD32VW553/GD32VW55X_Wifi_BLE_SDK/GD32VW55x_RELEASE_V1.0.2/MSDK/ble/app\app_sec_mgr.c ****         break;
 2184              		.loc 1 650 9
 2185              	.LVL186:
 2186              	.LBB83:
 2187              	.LBB84:
 503:C:/Users/stapi/OneDrive/Desktop/GD32VW553/GD32VW55X_Wifi_BLE_SDK/GD32VW55x_RELEASE_V1.0.2/MSDK/ble/app\app_sec_mgr.c **** 
 2188              		.loc 1 503 5
 503:C:/Users/stapi/OneDrive/Desktop/GD32VW553/GD32VW55X_Wifi_BLE_SDK/GD32VW55x_RELEASE_V1.0.2/MSDK/ble/app\app_sec_mgr.c **** 
 2189              		.loc 1 503 30 is_stmt 0
 2190 08d6 03C50500 		lbu	a0,0(a1)
 2191 08da 97000000 		call	dm_find_dev_by_conidx
 2191      E7800000 
 2192              	.LVL187:
 2193 08e2 AA84     		mv	s1,a0
 2194              	.LVL188:
 505:C:/Users/stapi/OneDrive/Desktop/GD32VW553/GD32VW55X_Wifi_BLE_SDK/GD32VW55x_RELEASE_V1.0.2/MSDK/ble/app\app_sec_mgr.c ****         dbg_print(NOTICE, "app_encrypt_req_hdlr can't find device !\r\n");
 2195              		.loc 1 505 5 is_stmt 1
 505:C:/Users/stapi/OneDrive/Desktop/GD32VW553/GD32VW55X_Wifi_BLE_SDK/GD32VW55x_RELEASE_V1.0.2/MSDK/ble/app\app_sec_mgr.c ****         dbg_print(NOTICE, "app_encrypt_req_hdlr can't find device !\r\n");
 2196              		.loc 1 505 8 is_stmt 0
 2197 08e4 1DE9     		bne	a0,zero,.L178
 506:C:/Users/stapi/OneDrive/Desktop/GD32VW553/GD32VW55X_Wifi_BLE_SDK/GD32VW55x_RELEASE_V1.0.2/MSDK/ble/app\app_sec_mgr.c ****         ble_sec_encrypt_req_cfm(p_ind->conn_idx, false, NULL, 0);
 2198              		.loc 1 506 9 is_stmt 1
 506:C:/Users/stapi/OneDrive/Desktop/GD32VW553/GD32VW55X_Wifi_BLE_SDK/GD32VW55x_RELEASE_V1.0.2/MSDK/ble/app\app_sec_mgr.c ****         ble_sec_encrypt_req_cfm(p_ind->conn_idx, false, NULL, 0);
 2199              		.loc 1 506 9
 2200 08e6 B7070000 		lui	a5,%hi(global_debug_level)
 2201 08ea 03C70700 		lbu	a4,%lo(global_debug_level)(a5)
 2202 08ee 8947     		li	a5,2
 2203 08f0 63FAE700 		bleu	a4,a5,.L179
 506:C:/Users/stapi/OneDrive/Desktop/GD32VW553/GD32VW55X_Wifi_BLE_SDK/GD32VW55x_RELEASE_V1.0.2/MSDK/ble/app\app_sec_mgr.c ****         ble_sec_encrypt_req_cfm(p_ind->conn_idx, false, NULL, 0);
 2204              		.loc 1 506 9
 2205 08f4 37050000 		lui	a0,%hi(.LC38)
 2206 08f8 13050500 		addi	a0,a0,%lo(.LC38)
 2207 08fc 97000000 		call	co_printf
 2207      E7800000 
 2208              	.LVL189:
 2209              	.L179:
 506:C:/Users/stapi/OneDrive/Desktop/GD32VW553/GD32VW55X_Wifi_BLE_SDK/GD32VW55x_RELEASE_V1.0.2/MSDK/ble/app\app_sec_mgr.c ****         ble_sec_encrypt_req_cfm(p_ind->conn_idx, false, NULL, 0);
 2210              		.loc 1 506 9
 507:C:/Users/stapi/OneDrive/Desktop/GD32VW553/GD32VW55X_Wifi_BLE_SDK/GD32VW55x_RELEASE_V1.0.2/MSDK/ble/app\app_sec_mgr.c ****         return;
 2211              		.loc 1 507 9
 2212 0904 03450400 		lbu	a0,0(s0)
 2213 0908 8146     		li	a3,0
 2214 090a 0146     		li	a2,0
 2215 090c 8145     		li	a1,0
 2216              	.L234:
 520:C:/Users/stapi/OneDrive/Desktop/GD32VW553/GD32VW55X_Wifi_BLE_SDK/GD32VW55x_RELEASE_V1.0.2/MSDK/ble/app\app_sec_mgr.c **** }
 2217              		.loc 1 520 5 is_stmt 0
 2218 090e 97000000 		call	ble_sec_encrypt_req_cfm
 2218      E7800000 
 2219              	.LVL190:
 2220 0916 6FF0CFF6 		j	.L77
 2221              	.L178:
 511:C:/Users/stapi/OneDrive/Desktop/GD32VW553/GD32VW55X_Wifi_BLE_SDK/GD32VW55x_RELEASE_V1.0.2/MSDK/ble/app\app_sec_mgr.c ****         if ((p_ind->ediv == p_device->bond_info.local_ltk.ediv) &&
 2222              		.loc 1 511 5 is_stmt 1
 511:C:/Users/stapi/OneDrive/Desktop/GD32VW553/GD32VW55X_Wifi_BLE_SDK/GD32VW55x_RELEASE_V1.0.2/MSDK/ble/app\app_sec_mgr.c ****         if ((p_ind->ediv == p_device->bond_info.local_ltk.ediv) &&
 2223              		.loc 1 511 8 is_stmt 0
 2224 091a 83472501 		lbu	a5,18(a0)
 2225              	.LBE84:
 2226              	.LBE83:
 2227              	.LBB86:
 2228              	.LBB40:
  99:C:/Users/stapi/OneDrive/Desktop/GD32VW553/GD32VW55X_Wifi_BLE_SDK/GD32VW55x_RELEASE_V1.0.2/MSDK/ble/app\app_sec_mgr.c **** 
 2229              		.loc 1 99 5
 2230 091e 03490400 		lbu	s2,0(s0)
 2231              	.LBE40:
 2232              	.LBE86:
 2233              	.LBB87:
 2234              	.LBB85:
 511:C:/Users/stapi/OneDrive/Desktop/GD32VW553/GD32VW55X_Wifi_BLE_SDK/GD32VW55x_RELEASE_V1.0.2/MSDK/ble/app\app_sec_mgr.c ****         if ((p_ind->ediv == p_device->bond_info.local_ltk.ediv) &&
 2235              		.loc 1 511 8
 2236 0922 85CB     		beq	a5,zero,.L180
 512:C:/Users/stapi/OneDrive/Desktop/GD32VW553/GD32VW55X_Wifi_BLE_SDK/GD32VW55x_RELEASE_V1.0.2/MSDK/ble/app\app_sec_mgr.c ****             !memcmp(p_ind->rnd_num, p_device->bond_info.local_ltk.rnd_num, BLE_GAP_RANDOM_NUMBER_LE
 2237              		.loc 1 512 9 is_stmt 1
 512:C:/Users/stapi/OneDrive/Desktop/GD32VW553/GD32VW55X_Wifi_BLE_SDK/GD32VW55x_RELEASE_V1.0.2/MSDK/ble/app\app_sec_mgr.c ****             !memcmp(p_ind->rnd_num, p_device->bond_info.local_ltk.rnd_num, BLE_GAP_RANDOM_NUMBER_LE
 2238              		.loc 1 512 12 is_stmt 0
 2239 0924 03572400 		lhu	a4,2(s0)
 2240 0928 83578508 		lhu	a5,136(a0)
 2241 092c 6313F702 		bne	a4,a5,.L180
 513:C:/Users/stapi/OneDrive/Desktop/GD32VW553/GD32VW55X_Wifi_BLE_SDK/GD32VW55x_RELEASE_V1.0.2/MSDK/ble/app\app_sec_mgr.c ****             ble_sec_encrypt_req_cfm(p_ind->conn_idx, true, p_device->bond_info.local_ltk.ltk,
 2242              		.loc 1 513 14
 2243 0930 9305A508 		addi	a1,a0,138
 2244 0934 2146     		li	a2,8
 2245 0936 13054400 		addi	a0,s0,4
 2246 093a 97000000 		call	memcmp
 2246      E7800000 
 2247              	.LVL191:
 512:C:/Users/stapi/OneDrive/Desktop/GD32VW553/GD32VW55X_Wifi_BLE_SDK/GD32VW55x_RELEASE_V1.0.2/MSDK/ble/app\app_sec_mgr.c ****             !memcmp(p_ind->rnd_num, p_device->bond_info.local_ltk.rnd_num, BLE_GAP_RANDOM_NUMBER_LE
 2248              		.loc 1 512 65
 2249 0942 01E9     		bne	a0,zero,.L180
 514:C:/Users/stapi/OneDrive/Desktop/GD32VW553/GD32VW55X_Wifi_BLE_SDK/GD32VW55x_RELEASE_V1.0.2/MSDK/ble/app\app_sec_mgr.c ****                                     p_device->bond_info.local_ltk.key_size);
 2250              		.loc 1 514 13 is_stmt 1
 2251 0944 83C62409 		lbu	a3,146(s1)
 2252 0948 13868407 		addi	a2,s1,120
 2253 094c 8545     		li	a1,1
 2254              	.L233:
 520:C:/Users/stapi/OneDrive/Desktop/GD32VW553/GD32VW55X_Wifi_BLE_SDK/GD32VW55x_RELEASE_V1.0.2/MSDK/ble/app\app_sec_mgr.c **** }
 2255              		.loc 1 520 5 is_stmt 0
 2256 094e 4A85     		mv	a0,s2
 2257 0950 7DBF     		j	.L234
 2258              	.L180:
 520:C:/Users/stapi/OneDrive/Desktop/GD32VW553/GD32VW55X_Wifi_BLE_SDK/GD32VW55x_RELEASE_V1.0.2/MSDK/ble/app\app_sec_mgr.c **** }
 2259              		.loc 1 520 5 is_stmt 1
 2260 0952 8146     		li	a3,0
 2261 0954 0146     		li	a2,0
 2262 0956 8145     		li	a1,0
 2263 0958 DDBF     		j	.L233
 2264              	.LVL192:
 2265              	.L82:
 2266              	.LBE85:
 2267              	.LBE87:
 654:C:/Users/stapi/OneDrive/Desktop/GD32VW553/GD32VW55X_Wifi_BLE_SDK/GD32VW55x_RELEASE_V1.0.2/MSDK/ble/app\app_sec_mgr.c ****         break;
 2268              		.loc 1 654 9
 2269              	.LBB88:
 2270              	.LBB89:
 531:C:/Users/stapi/OneDrive/Desktop/GD32VW553/GD32VW55X_Wifi_BLE_SDK/GD32VW55x_RELEASE_V1.0.2/MSDK/ble/app\app_sec_mgr.c **** 
 2271              		.loc 1 531 5
 531:C:/Users/stapi/OneDrive/Desktop/GD32VW553/GD32VW55X_Wifi_BLE_SDK/GD32VW55x_RELEASE_V1.0.2/MSDK/ble/app\app_sec_mgr.c **** 
 2272              		.loc 1 531 30 is_stmt 0
 2273 095a 03C52500 		lbu	a0,2(a1)
 2274 095e 97000000 		call	dm_find_dev_by_conidx
 2274      E7800000 
 2275              	.LVL193:
 2276 0966 AA84     		mv	s1,a0
 2277              	.LVL194:
 533:C:/Users/stapi/OneDrive/Desktop/GD32VW553/GD32VW55X_Wifi_BLE_SDK/GD32VW55x_RELEASE_V1.0.2/MSDK/ble/app\app_sec_mgr.c ****         dbg_print(NOTICE, "app_encrypted_hdlr can't find device !\r\n");
 2278              		.loc 1 533 5 is_stmt 1
 2279 0968 B7070000 		lui	a5,%hi(global_debug_level)
 533:C:/Users/stapi/OneDrive/Desktop/GD32VW553/GD32VW55X_Wifi_BLE_SDK/GD32VW55x_RELEASE_V1.0.2/MSDK/ble/app\app_sec_mgr.c ****         dbg_print(NOTICE, "app_encrypted_hdlr can't find device !\r\n");
 2280              		.loc 1 533 8 is_stmt 0
 2281 096c 19E9     		bne	a0,zero,.L181
 534:C:/Users/stapi/OneDrive/Desktop/GD32VW553/GD32VW55X_Wifi_BLE_SDK/GD32VW55x_RELEASE_V1.0.2/MSDK/ble/app\app_sec_mgr.c ****         return;
 2282              		.loc 1 534 9 is_stmt 1
 534:C:/Users/stapi/OneDrive/Desktop/GD32VW553/GD32VW55X_Wifi_BLE_SDK/GD32VW55x_RELEASE_V1.0.2/MSDK/ble/app\app_sec_mgr.c ****         return;
 2283              		.loc 1 534 9
 2284 096e 03C70700 		lbu	a4,%lo(global_debug_level)(a5)
 2285 0972 8947     		li	a5,2
 2286 0974 63F7E7F0 		bleu	a4,a5,.L77
 534:C:/Users/stapi/OneDrive/Desktop/GD32VW553/GD32VW55X_Wifi_BLE_SDK/GD32VW55x_RELEASE_V1.0.2/MSDK/ble/app\app_sec_mgr.c ****         return;
 2287              		.loc 1 534 9
 2288 0978 37050000 		lui	a0,%hi(.LC39)
 2289 097c 13050500 		addi	a0,a0,%lo(.LC39)
 2290 0980 29BC     		j	.L230
 2291              	.L181:
 538:C:/Users/stapi/OneDrive/Desktop/GD32VW553/GD32VW55X_Wifi_BLE_SDK/GD32VW55x_RELEASE_V1.0.2/MSDK/ble/app\app_sec_mgr.c ****         dbg_print(NOTICE, "conn_idx %u encrypt fail, status 0x%x\r\n", p_device->conn_idx, p_info->
 2292              		.loc 1 538 5
 538:C:/Users/stapi/OneDrive/Desktop/GD32VW553/GD32VW55X_Wifi_BLE_SDK/GD32VW55x_RELEASE_V1.0.2/MSDK/ble/app\app_sec_mgr.c ****         dbg_print(NOTICE, "conn_idx %u encrypt fail, status 0x%x\r\n", p_device->conn_idx, p_info->
 2293              		.loc 1 538 15 is_stmt 0
 2294 0982 03560400 		lhu	a2,0(s0)
 534:C:/Users/stapi/OneDrive/Desktop/GD32VW553/GD32VW55X_Wifi_BLE_SDK/GD32VW55x_RELEASE_V1.0.2/MSDK/ble/app\app_sec_mgr.c ****         return;
 2295              		.loc 1 534 9
 2296 0986 83C70700 		lbu	a5,%lo(global_debug_level)(a5)
 539:C:/Users/stapi/OneDrive/Desktop/GD32VW553/GD32VW55X_Wifi_BLE_SDK/GD32VW55x_RELEASE_V1.0.2/MSDK/ble/app\app_sec_mgr.c ****         p_device->encry_cmplt = false;
 2297              		.loc 1 539 9
 2298 098a 0947     		li	a4,2
 538:C:/Users/stapi/OneDrive/Desktop/GD32VW553/GD32VW55X_Wifi_BLE_SDK/GD32VW55x_RELEASE_V1.0.2/MSDK/ble/app\app_sec_mgr.c ****         dbg_print(NOTICE, "conn_idx %u encrypt fail, status 0x%x\r\n", p_device->conn_idx, p_info->
 2299              		.loc 1 538 8
 2300 098c 31C2     		beq	a2,zero,.L182
 539:C:/Users/stapi/OneDrive/Desktop/GD32VW553/GD32VW55X_Wifi_BLE_SDK/GD32VW55x_RELEASE_V1.0.2/MSDK/ble/app\app_sec_mgr.c ****         p_device->encry_cmplt = false;
 2301              		.loc 1 539 9 is_stmt 1
 539:C:/Users/stapi/OneDrive/Desktop/GD32VW553/GD32VW55X_Wifi_BLE_SDK/GD32VW55x_RELEASE_V1.0.2/MSDK/ble/app\app_sec_mgr.c ****         p_device->encry_cmplt = false;
 2302              		.loc 1 539 9
 2303 098e 637CF700 		bleu	a5,a4,.L183
 539:C:/Users/stapi/OneDrive/Desktop/GD32VW553/GD32VW55X_Wifi_BLE_SDK/GD32VW55x_RELEASE_V1.0.2/MSDK/ble/app\app_sec_mgr.c ****         p_device->encry_cmplt = false;
 2304              		.loc 1 539 9
 2305 0992 8345F500 		lbu	a1,15(a0)
 2306 0996 37050000 		lui	a0,%hi(.LC40)
 2307 099a 13050500 		addi	a0,a0,%lo(.LC40)
 2308 099e 97000000 		call	co_printf
 2308      E7800000 
 2309              	.LVL195:
 2310              	.L183:
 539:C:/Users/stapi/OneDrive/Desktop/GD32VW553/GD32VW55X_Wifi_BLE_SDK/GD32VW55x_RELEASE_V1.0.2/MSDK/ble/app\app_sec_mgr.c ****         p_device->encry_cmplt = false;
 2311              		.loc 1 539 9
 540:C:/Users/stapi/OneDrive/Desktop/GD32VW553/GD32VW55X_Wifi_BLE_SDK/GD32VW55x_RELEASE_V1.0.2/MSDK/ble/app\app_sec_mgr.c **** 
 2312              		.loc 1 540 9
 543:C:/Users/stapi/OneDrive/Desktop/GD32VW553/GD32VW55X_Wifi_BLE_SDK/GD32VW55x_RELEASE_V1.0.2/MSDK/ble/app\app_sec_mgr.c ****             memset(&p_device->bond_info, 0, sizeof(ble_gap_sec_bond_data_t));
 2313              		.loc 1 543 12 is_stmt 0
 2314 09a6 03570400 		lhu	a4,0(s0)
 540:C:/Users/stapi/OneDrive/Desktop/GD32VW553/GD32VW55X_Wifi_BLE_SDK/GD32VW55x_RELEASE_V1.0.2/MSDK/ble/app\app_sec_mgr.c **** 
 2315              		.loc 1 540 31
 2316 09aa A3890400 		sb	zero,19(s1)
 543:C:/Users/stapi/OneDrive/Desktop/GD32VW553/GD32VW55X_Wifi_BLE_SDK/GD32VW55x_RELEASE_V1.0.2/MSDK/ble/app\app_sec_mgr.c ****             memset(&p_device->bond_info, 0, sizeof(ble_gap_sec_bond_data_t));
 2317              		.loc 1 543 9 is_stmt 1
 543:C:/Users/stapi/OneDrive/Desktop/GD32VW553/GD32VW55X_Wifi_BLE_SDK/GD32VW55x_RELEASE_V1.0.2/MSDK/ble/app\app_sec_mgr.c ****             memset(&p_device->bond_info, 0, sizeof(ble_gap_sec_bond_data_t));
 2318              		.loc 1 543 12 is_stmt 0
 2319 09ae 93072002 		li	a5,34
 2320 09b2 6318F7EC 		bne	a4,a5,.L77
 544:C:/Users/stapi/OneDrive/Desktop/GD32VW553/GD32VW55X_Wifi_BLE_SDK/GD32VW55x_RELEASE_V1.0.2/MSDK/ble/app\app_sec_mgr.c ****             p_device->bonded = false;
 2321              		.loc 1 544 13 is_stmt 1
 2322 09b6 13068007 		li	a2,120
 2323 09ba 8145     		li	a1,0
 2324 09bc 1385C403 		addi	a0,s1,60
 2325 09c0 97000000 		call	memset
 2325      E7800000 
 2326              	.LVL196:
 545:C:/Users/stapi/OneDrive/Desktop/GD32VW553/GD32VW55X_Wifi_BLE_SDK/GD32VW55x_RELEASE_V1.0.2/MSDK/ble/app\app_sec_mgr.c **** 
 2327              		.loc 1 545 13
 545:C:/Users/stapi/OneDrive/Desktop/GD32VW553/GD32VW55X_Wifi_BLE_SDK/GD32VW55x_RELEASE_V1.0.2/MSDK/ble/app\app_sec_mgr.c **** 
 2328              		.loc 1 545 30 is_stmt 0
 2329 09c8 23890400 		sb	zero,18(s1)
 547:C:/Users/stapi/OneDrive/Desktop/GD32VW553/GD32VW55X_Wifi_BLE_SDK/GD32VW55x_RELEASE_V1.0.2/MSDK/ble/app\app_sec_mgr.c ****                 ble_peer_data_delete(&p_device->cur_addr);
 2330              		.loc 1 547 13 is_stmt 1
 2331 09cc 6FF06FEB 		j	.L77
 2332              	.L182:
 552:C:/Users/stapi/OneDrive/Desktop/GD32VW553/GD32VW55X_Wifi_BLE_SDK/GD32VW55x_RELEASE_V1.0.2/MSDK/ble/app\app_sec_mgr.c ****         p_device->encry_cmplt = true;
 2333              		.loc 1 552 9
 552:C:/Users/stapi/OneDrive/Desktop/GD32VW553/GD32VW55X_Wifi_BLE_SDK/GD32VW55x_RELEASE_V1.0.2/MSDK/ble/app\app_sec_mgr.c ****         p_device->encry_cmplt = true;
 2334              		.loc 1 552 9
 2335 09d0 637EF700 		bleu	a5,a4,.L184
 552:C:/Users/stapi/OneDrive/Desktop/GD32VW553/GD32VW55X_Wifi_BLE_SDK/GD32VW55x_RELEASE_V1.0.2/MSDK/ble/app\app_sec_mgr.c ****         p_device->encry_cmplt = true;
 2336              		.loc 1 552 9
 2337 09d4 8345F500 		lbu	a1,15(a0)
 2338 09d8 03463400 		lbu	a2,3(s0)
 2339 09dc 37050000 		lui	a0,%hi(.LC41)
 2340 09e0 13050500 		addi	a0,a0,%lo(.LC41)
 2341 09e4 97000000 		call	co_printf
 2341      E7800000 
 2342              	.LVL197:
 2343              	.L184:
 552:C:/Users/stapi/OneDrive/Desktop/GD32VW553/GD32VW55X_Wifi_BLE_SDK/GD32VW55x_RELEASE_V1.0.2/MSDK/ble/app\app_sec_mgr.c ****         p_device->encry_cmplt = true;
 2344              		.loc 1 552 9
 553:C:/Users/stapi/OneDrive/Desktop/GD32VW553/GD32VW55X_Wifi_BLE_SDK/GD32VW55x_RELEASE_V1.0.2/MSDK/ble/app\app_sec_mgr.c ****         p_device->bond_info.pairing_lvl = p_info->param.pairing_lvl;
 2345              		.loc 1 553 9
 553:C:/Users/stapi/OneDrive/Desktop/GD32VW553/GD32VW55X_Wifi_BLE_SDK/GD32VW55x_RELEASE_V1.0.2/MSDK/ble/app\app_sec_mgr.c ****         p_device->bond_info.pairing_lvl = p_info->param.pairing_lvl;
 2346              		.loc 1 553 31 is_stmt 0
 2347 09ec 0549     		li	s2,1
 2348 09ee A3892401 		sb	s2,19(s1)
 554:C:/Users/stapi/OneDrive/Desktop/GD32VW553/GD32VW55X_Wifi_BLE_SDK/GD32VW55x_RELEASE_V1.0.2/MSDK/ble/app\app_sec_mgr.c **** 
 2349              		.loc 1 554 9 is_stmt 1
 554:C:/Users/stapi/OneDrive/Desktop/GD32VW553/GD32VW55X_Wifi_BLE_SDK/GD32VW55x_RELEASE_V1.0.2/MSDK/ble/app\app_sec_mgr.c **** 
 2350              		.loc 1 554 41 is_stmt 0
 2351 09f2 83473400 		lbu	a5,3(s0)
 557:C:/Users/stapi/OneDrive/Desktop/GD32VW553/GD32VW55X_Wifi_BLE_SDK/GD32VW55x_RELEASE_V1.0.2/MSDK/ble/app\app_sec_mgr.c ****         #endif // (BLE_APP_PING_SUPPORT)
 2352              		.loc 1 557 9
 2353 09f6 9305803E 		li	a1,1000
 554:C:/Users/stapi/OneDrive/Desktop/GD32VW553/GD32VW55X_Wifi_BLE_SDK/GD32VW55x_RELEASE_V1.0.2/MSDK/ble/app\app_sec_mgr.c **** 
 2354              		.loc 1 554 41
 2355 09fa 238EF402 		sb	a5,60(s1)
 557:C:/Users/stapi/OneDrive/Desktop/GD32VW553/GD32VW55X_Wifi_BLE_SDK/GD32VW55x_RELEASE_V1.0.2/MSDK/ble/app\app_sec_mgr.c ****         #endif // (BLE_APP_PING_SUPPORT)
 2356              		.loc 1 557 9 is_stmt 1
 2357 09fe 03452400 		lbu	a0,2(s0)
 2358 0a02 97000000 		call	ble_conn_ping_to_set
 2358      E7800000 
 2359              	.LVL198:
 560:C:/Users/stapi/OneDrive/Desktop/GD32VW553/GD32VW55X_Wifi_BLE_SDK/GD32VW55x_RELEASE_V1.0.2/MSDK/ble/app\app_sec_mgr.c ****             ble_conn_peer_version_get(p_device->conn_idx);
 2360              		.loc 1 560 9
 560:C:/Users/stapi/OneDrive/Desktop/GD32VW553/GD32VW55X_Wifi_BLE_SDK/GD32VW55x_RELEASE_V1.0.2/MSDK/ble/app\app_sec_mgr.c ****             ble_conn_peer_version_get(p_device->conn_idx);
 2361              		.loc 1 560 12 is_stmt 0
 2362 0a0a DC4C     		lw	a5,28(s1)
 2363 0a0c 639B27E7 		bne	a5,s2,.L77
 561:C:/Users/stapi/OneDrive/Desktop/GD32VW553/GD32VW55X_Wifi_BLE_SDK/GD32VW55x_RELEASE_V1.0.2/MSDK/ble/app\app_sec_mgr.c ****             ble_conn_peer_feats_get(p_device->conn_idx);
 2364              		.loc 1 561 13 is_stmt 1
 2365 0a10 03C5F400 		lbu	a0,15(s1)
 2366 0a14 97000000 		call	ble_conn_peer_version_get
 2366      E7800000 
 2367              	.LVL199:
 562:C:/Users/stapi/OneDrive/Desktop/GD32VW553/GD32VW55X_Wifi_BLE_SDK/GD32VW55x_RELEASE_V1.0.2/MSDK/ble/app\app_sec_mgr.c ****         }
 2368              		.loc 1 562 13
 2369 0a1c 03C5F400 		lbu	a0,15(s1)
 2370 0a20 97000000 		call	ble_conn_peer_feats_get
 2370      E7800000 
 2371              	.LVL200:
 2372 0a28 6FF0AFE5 		j	.L77
 2373              	.LVL201:
 2374              	.L81:
 2375              	.LBE89:
 2376              	.LBE88:
 658:C:/Users/stapi/OneDrive/Desktop/GD32VW553/GD32VW55X_Wifi_BLE_SDK/GD32VW55x_RELEASE_V1.0.2/MSDK/ble/app\app_sec_mgr.c ****         break;
 2377              		.loc 1 658 9
 2378              	.LBB90:
 2379              	.LBB65:
 575:C:/Users/stapi/OneDrive/Desktop/GD32VW553/GD32VW55X_Wifi_BLE_SDK/GD32VW55x_RELEASE_V1.0.2/MSDK/ble/app\app_sec_mgr.c **** 
 2380              		.loc 1 575 5
 577:C:/Users/stapi/OneDrive/Desktop/GD32VW553/GD32VW55X_Wifi_BLE_SDK/GD32VW55x_RELEASE_V1.0.2/MSDK/ble/app\app_sec_mgr.c ****     for (i = BLE_GAP_KEY_LEN - 1; i >= 0; i--) {
 2381              		.loc 1 577 5
 577:C:/Users/stapi/OneDrive/Desktop/GD32VW553/GD32VW55X_Wifi_BLE_SDK/GD32VW55x_RELEASE_V1.0.2/MSDK/ble/app\app_sec_mgr.c ****     for (i = BLE_GAP_KEY_LEN - 1; i >= 0; i--) {
 2382              		.loc 1 577 5
 2383 0a2c B7040000 		lui	s1,%hi(global_debug_level)
 2384 0a30 03C70400 		lbu	a4,%lo(global_debug_level)(s1)
 2385 0a34 8947     		li	a5,2
 2386 0a36 63FAE700 		bleu	a4,a5,.L185
 577:C:/Users/stapi/OneDrive/Desktop/GD32VW553/GD32VW55X_Wifi_BLE_SDK/GD32VW55x_RELEASE_V1.0.2/MSDK/ble/app\app_sec_mgr.c ****     for (i = BLE_GAP_KEY_LEN - 1; i >= 0; i--) {
 2387              		.loc 1 577 5
 2388 0a3a 37050000 		lui	a0,%hi(.LC42)
 2389 0a3e 13050500 		addi	a0,a0,%lo(.LC42)
 2390 0a42 97000000 		call	co_printf
 2390      E7800000 
 2391              	.LVL202:
 2392              	.L185:
 2393              	.LBE65:
 2394              	.LBE90:
 2395              	.LBB91:
 2396              	.LBB41:
 138:C:/Users/stapi/OneDrive/Desktop/GD32VW553/GD32VW55X_Wifi_BLE_SDK/GD32VW55x_RELEASE_V1.0.2/MSDK/ble/app\app_sec_mgr.c ****     }
 2397              		.loc 1 138 21 is_stmt 0
 2398 0a4a 3D49     		li	s2,15
 2399              	.LBE41:
 2400              	.LBE91:
 2401              	.LBB92:
 2402              	.LBB66:
 579:C:/Users/stapi/OneDrive/Desktop/GD32VW553/GD32VW55X_Wifi_BLE_SDK/GD32VW55x_RELEASE_V1.0.2/MSDK/ble/app\app_sec_mgr.c ****     }
 2403              		.loc 1 579 9
 2404 0a4c 094A     		li	s4,2
 2405 0a4e B70A0000 		lui	s5,%hi(.LC31)
 578:C:/Users/stapi/OneDrive/Desktop/GD32VW553/GD32VW55X_Wifi_BLE_SDK/GD32VW55x_RELEASE_V1.0.2/MSDK/ble/app\app_sec_mgr.c ****         dbg_print(NOTICE, "%02x", p_info->param.conf[i]);
 2406              		.loc 1 578 5
 2407 0a52 FD59     		li	s3,-1
 2408              	.L187:
 2409              	.LVL203:
 579:C:/Users/stapi/OneDrive/Desktop/GD32VW553/GD32VW55X_Wifi_BLE_SDK/GD32VW55x_RELEASE_V1.0.2/MSDK/ble/app\app_sec_mgr.c ****     }
 2410              		.loc 1 579 9 is_stmt 1
 579:C:/Users/stapi/OneDrive/Desktop/GD32VW553/GD32VW55X_Wifi_BLE_SDK/GD32VW55x_RELEASE_V1.0.2/MSDK/ble/app\app_sec_mgr.c ****     }
 2411              		.loc 1 579 9
 2412 0a54 83C70400 		lbu	a5,%lo(global_debug_level)(s1)
 2413 0a58 637CFA00 		bleu	a5,s4,.L186
 579:C:/Users/stapi/OneDrive/Desktop/GD32VW553/GD32VW55X_Wifi_BLE_SDK/GD32VW55x_RELEASE_V1.0.2/MSDK/ble/app\app_sec_mgr.c ****     }
 2414              		.loc 1 579 9
 2415 0a5c B3072401 		add	a5,s0,s2
 2416 0a60 83C50700 		lbu	a1,0(a5)
 2417 0a64 13850A00 		addi	a0,s5,%lo(.LC31)
 2418 0a68 97000000 		call	co_printf
 2418      E7800000 
 2419              	.LVL204:
 2420              	.L186:
 579:C:/Users/stapi/OneDrive/Desktop/GD32VW553/GD32VW55X_Wifi_BLE_SDK/GD32VW55x_RELEASE_V1.0.2/MSDK/ble/app\app_sec_mgr.c ****     }
 2421              		.loc 1 579 9
 578:C:/Users/stapi/OneDrive/Desktop/GD32VW553/GD32VW55X_Wifi_BLE_SDK/GD32VW55x_RELEASE_V1.0.2/MSDK/ble/app\app_sec_mgr.c ****         dbg_print(NOTICE, "%02x", p_info->param.conf[i]);
 2422              		.loc 1 578 43
 578:C:/Users/stapi/OneDrive/Desktop/GD32VW553/GD32VW55X_Wifi_BLE_SDK/GD32VW55x_RELEASE_V1.0.2/MSDK/ble/app\app_sec_mgr.c ****         dbg_print(NOTICE, "%02x", p_info->param.conf[i]);
 2423              		.loc 1 578 44 is_stmt 0
 2424 0a70 7D19     		addi	s2,s2,-1
 2425              	.LVL205:
 578:C:/Users/stapi/OneDrive/Desktop/GD32VW553/GD32VW55X_Wifi_BLE_SDK/GD32VW55x_RELEASE_V1.0.2/MSDK/ble/app\app_sec_mgr.c ****         dbg_print(NOTICE, "%02x", p_info->param.conf[i]);
 2426              		.loc 1 578 35 is_stmt 1
 578:C:/Users/stapi/OneDrive/Desktop/GD32VW553/GD32VW55X_Wifi_BLE_SDK/GD32VW55x_RELEASE_V1.0.2/MSDK/ble/app\app_sec_mgr.c ****         dbg_print(NOTICE, "%02x", p_info->param.conf[i]);
 2427              		.loc 1 578 5 is_stmt 0
 2428 0a72 E31139FF 		bne	s2,s3,.L187
 582:C:/Users/stapi/OneDrive/Desktop/GD32VW553/GD32VW55X_Wifi_BLE_SDK/GD32VW55x_RELEASE_V1.0.2/MSDK/ble/app\app_sec_mgr.c ****     for (i = BLE_GAP_KEY_LEN - 1; i >= 0; i--) {
 2429              		.loc 1 582 5 is_stmt 1
 582:C:/Users/stapi/OneDrive/Desktop/GD32VW553/GD32VW55X_Wifi_BLE_SDK/GD32VW55x_RELEASE_V1.0.2/MSDK/ble/app\app_sec_mgr.c ****     for (i = BLE_GAP_KEY_LEN - 1; i >= 0; i--) {
 2430              		.loc 1 582 5
 2431 0a76 03C70400 		lbu	a4,%lo(global_debug_level)(s1)
 2432 0a7a 8947     		li	a5,2
 2433 0a7c 63FAE700 		bleu	a4,a5,.L188
 582:C:/Users/stapi/OneDrive/Desktop/GD32VW553/GD32VW55X_Wifi_BLE_SDK/GD32VW55x_RELEASE_V1.0.2/MSDK/ble/app\app_sec_mgr.c ****     for (i = BLE_GAP_KEY_LEN - 1; i >= 0; i--) {
 2434              		.loc 1 582 5
 2435 0a80 37050000 		lui	a0,%hi(.LC43)
 2436 0a84 13050500 		addi	a0,a0,%lo(.LC43)
 2437 0a88 97000000 		call	co_printf
 2437      E7800000 
 2438              	.LVL206:
 2439              	.L188:
 2440 0a90 1309F401 		addi	s2,s0,31
 2441              	.LVL207:
 584:C:/Users/stapi/OneDrive/Desktop/GD32VW553/GD32VW55X_Wifi_BLE_SDK/GD32VW55x_RELEASE_V1.0.2/MSDK/ble/app\app_sec_mgr.c ****     }
 2442              		.loc 1 584 9 is_stmt 0
 2443 0a94 8949     		li	s3,2
 2444 0a96 3D04     		addi	s0,s0,15
 2445              	.LVL208:
 2446 0a98 370A0000 		lui	s4,%hi(.LC31)
 2447              	.L190:
 2448              	.LVL209:
 584:C:/Users/stapi/OneDrive/Desktop/GD32VW553/GD32VW55X_Wifi_BLE_SDK/GD32VW55x_RELEASE_V1.0.2/MSDK/ble/app\app_sec_mgr.c ****     }
 2449              		.loc 1 584 9 is_stmt 1
 584:C:/Users/stapi/OneDrive/Desktop/GD32VW553/GD32VW55X_Wifi_BLE_SDK/GD32VW55x_RELEASE_V1.0.2/MSDK/ble/app\app_sec_mgr.c ****     }
 2450              		.loc 1 584 9
 2451 0a9c 83C70400 		lbu	a5,%lo(global_debug_level)(s1)
 2452 0aa0 63FAF900 		bleu	a5,s3,.L189
 584:C:/Users/stapi/OneDrive/Desktop/GD32VW553/GD32VW55X_Wifi_BLE_SDK/GD32VW55x_RELEASE_V1.0.2/MSDK/ble/app\app_sec_mgr.c ****     }
 2453              		.loc 1 584 9
 2454 0aa4 83450900 		lbu	a1,0(s2)
 2455 0aa8 13050A00 		addi	a0,s4,%lo(.LC31)
 2456 0aac 97000000 		call	co_printf
 2456      E7800000 
 2457              	.LVL210:
 2458              	.L189:
 584:C:/Users/stapi/OneDrive/Desktop/GD32VW553/GD32VW55X_Wifi_BLE_SDK/GD32VW55x_RELEASE_V1.0.2/MSDK/ble/app\app_sec_mgr.c ****     }
 2459              		.loc 1 584 9
 583:C:/Users/stapi/OneDrive/Desktop/GD32VW553/GD32VW55X_Wifi_BLE_SDK/GD32VW55x_RELEASE_V1.0.2/MSDK/ble/app\app_sec_mgr.c ****         dbg_print(NOTICE, "%02x", p_info->param.rand[i]);
 2460              		.loc 1 583 43
 583:C:/Users/stapi/OneDrive/Desktop/GD32VW553/GD32VW55X_Wifi_BLE_SDK/GD32VW55x_RELEASE_V1.0.2/MSDK/ble/app\app_sec_mgr.c ****         dbg_print(NOTICE, "%02x", p_info->param.rand[i]);
 2461              		.loc 1 583 35
 583:C:/Users/stapi/OneDrive/Desktop/GD32VW553/GD32VW55X_Wifi_BLE_SDK/GD32VW55x_RELEASE_V1.0.2/MSDK/ble/app\app_sec_mgr.c ****         dbg_print(NOTICE, "%02x", p_info->param.rand[i]);
 2462              		.loc 1 583 5 is_stmt 0
 2463 0ab4 7D19     		addi	s2,s2,-1
 2464              	.LVL211:
 2465 0ab6 E31389FE 		bne	s2,s0,.L190
 587:C:/Users/stapi/OneDrive/Desktop/GD32VW553/GD32VW55X_Wifi_BLE_SDK/GD32VW55x_RELEASE_V1.0.2/MSDK/ble/app\app_sec_mgr.c **** }
 2466              		.loc 1 587 5 is_stmt 1
 587:C:/Users/stapi/OneDrive/Desktop/GD32VW553/GD32VW55X_Wifi_BLE_SDK/GD32VW55x_RELEASE_V1.0.2/MSDK/ble/app\app_sec_mgr.c **** }
 2467              		.loc 1 587 5
 2468 0aba 03C70400 		lbu	a4,%lo(global_debug_level)(s1)
 2469 0abe 8947     		li	a5,2
 2470 0ac0 63F1E7DC 		bleu	a4,a5,.L77
 587:C:/Users/stapi/OneDrive/Desktop/GD32VW553/GD32VW55X_Wifi_BLE_SDK/GD32VW55x_RELEASE_V1.0.2/MSDK/ble/app\app_sec_mgr.c **** }
 2471              		.loc 1 587 5
 2472 0ac4 37050000 		lui	a0,%hi(.LC11)
 2473 0ac8 13050500 		addi	a0,a0,%lo(.LC11)
 2474 0acc F9B0     		j	.L230
 2475              	.LVL212:
 2476              	.L79:
 2477              	.LBE66:
 2478              	.LBE92:
 662:C:/Users/stapi/OneDrive/Desktop/GD32VW553/GD32VW55X_Wifi_BLE_SDK/GD32VW55x_RELEASE_V1.0.2/MSDK/ble/app\app_sec_mgr.c ****                p_data->key_press_info.type);
 2479              		.loc 1 662 9
 662:C:/Users/stapi/OneDrive/Desktop/GD32VW553/GD32VW55X_Wifi_BLE_SDK/GD32VW55x_RELEASE_V1.0.2/MSDK/ble/app\app_sec_mgr.c ****                p_data->key_press_info.type);
 2480              		.loc 1 662 9
 2481 0ace B7070000 		lui	a5,%hi(global_debug_level)
 2482 0ad2 03C70700 		lbu	a4,%lo(global_debug_level)(a5)
 2483 0ad6 8947     		li	a5,2
 2484 0ad8 63F5E7DA 		bleu	a4,a5,.L77
 662:C:/Users/stapi/OneDrive/Desktop/GD32VW553/GD32VW55X_Wifi_BLE_SDK/GD32VW55x_RELEASE_V1.0.2/MSDK/ble/app\app_sec_mgr.c ****                p_data->key_press_info.type);
 2485              		.loc 1 662 9 discriminator 1
 2486 0adc 03C61500 		lbu	a2,1(a1)
 2487 0ae0 83C50500 		lbu	a1,0(a1)
 2488 0ae4 37050000 		lui	a0,%hi(.LC44)
 2489 0ae8 13050500 		addi	a0,a0,%lo(.LC44)
 2490 0aec 97000000 		call	co_printf
 2490      E7800000 
 2491              	.LVL213:
 668:C:/Users/stapi/OneDrive/Desktop/GD32VW553/GD32VW55X_Wifi_BLE_SDK/GD32VW55x_RELEASE_V1.0.2/MSDK/ble/app\app_sec_mgr.c **** 
 2492              		.loc 1 668 1 is_stmt 0 discriminator 1
 2493 0af4 6FF0EFD8 		j	.L77
 2494              	.LVL214:
 2495              	.L96:
 2496              	.LBB93:
 2497              	.LBB42:
  99:C:/Users/stapi/OneDrive/Desktop/GD32VW553/GD32VW55X_Wifi_BLE_SDK/GD32VW55x_RELEASE_V1.0.2/MSDK/ble/app\app_sec_mgr.c **** 
 2498              		.loc 1 99 5 is_stmt 1
 101:C:/Users/stapi/OneDrive/Desktop/GD32VW553/GD32VW55X_Wifi_BLE_SDK/GD32VW55x_RELEASE_V1.0.2/MSDK/ble/app\app_sec_mgr.c ****         dbg_print(NOTICE, "app_pairing_req_hdlr can't find device !\r\n");
 2499              		.loc 1 101 5
 101:C:/Users/stapi/OneDrive/Desktop/GD32VW553/GD32VW55X_Wifi_BLE_SDK/GD32VW55x_RELEASE_V1.0.2/MSDK/ble/app\app_sec_mgr.c ****         dbg_print(NOTICE, "app_pairing_req_hdlr can't find device !\r\n");
 2500              		.loc 1 101 8 is_stmt 0
 2501 0af8 630C05D6 		beq	a0,zero,.L103
 2502              	.L97:
 107:C:/Users/stapi/OneDrive/Desktop/GD32VW553/GD32VW55X_Wifi_BLE_SDK/GD32VW55x_RELEASE_V1.0.2/MSDK/ble/app\app_sec_mgr.c ****         dbg_print(NOTICE, "remote master key missing, reject pairing request !\r\n");
 2503              		.loc 1 107 5 is_stmt 1
 107:C:/Users/stapi/OneDrive/Desktop/GD32VW553/GD32VW55X_Wifi_BLE_SDK/GD32VW55x_RELEASE_V1.0.2/MSDK/ble/app\app_sec_mgr.c ****         dbg_print(NOTICE, "remote master key missing, reject pairing request !\r\n");
 2504              		.loc 1 107 8 is_stmt 0
 2505 0afc 83C72401 		lbu	a5,18(s1)
 2506 0b00 638607D8 		beq	a5,zero,.L101
 108:C:/Users/stapi/OneDrive/Desktop/GD32VW553/GD32VW55X_Wifi_BLE_SDK/GD32VW55x_RELEASE_V1.0.2/MSDK/ble/app\app_sec_mgr.c **** 
 2507              		.loc 1 108 9 is_stmt 1
 108:C:/Users/stapi/OneDrive/Desktop/GD32VW553/GD32VW55X_Wifi_BLE_SDK/GD32VW55x_RELEASE_V1.0.2/MSDK/ble/app\app_sec_mgr.c **** 
 2508              		.loc 1 108 9
 2509 0b04 03C70900 		lbu	a4,%lo(global_debug_level)(s3)
 2510 0b08 8947     		li	a5,2
 2511 0b0a 63FAE700 		bleu	a4,a5,.L102
 108:C:/Users/stapi/OneDrive/Desktop/GD32VW553/GD32VW55X_Wifi_BLE_SDK/GD32VW55x_RELEASE_V1.0.2/MSDK/ble/app\app_sec_mgr.c **** 
 2512              		.loc 1 108 9
 2513 0b0e 37050000 		lui	a0,%hi(.LC6)
 2514 0b12 13050500 		addi	a0,a0,%lo(.LC6)
 2515 0b16 97000000 		call	co_printf
 2515      E7800000 
 2516              	.LVL215:
 2517              	.L102:
 108:C:/Users/stapi/OneDrive/Desktop/GD32VW553/GD32VW55X_Wifi_BLE_SDK/GD32VW55x_RELEASE_V1.0.2/MSDK/ble/app\app_sec_mgr.c **** 
 2518              		.loc 1 108 9
 110:C:/Users/stapi/OneDrive/Desktop/GD32VW553/GD32VW55X_Wifi_BLE_SDK/GD32VW55x_RELEASE_V1.0.2/MSDK/ble/app\app_sec_mgr.c ****             dbg_print(NOTICE,"app_pairing_req_hdlr remove bond fail\r\n");
 2519              		.loc 1 110 9
 110:C:/Users/stapi/OneDrive/Desktop/GD32VW553/GD32VW55X_Wifi_BLE_SDK/GD32VW55x_RELEASE_V1.0.2/MSDK/ble/app\app_sec_mgr.c ****             dbg_print(NOTICE,"app_pairing_req_hdlr remove bond fail\r\n");
 2520              		.loc 1 110 14 is_stmt 0
 2521 0b1e 8844     		lw	a0,8(s1)
 2522 0b20 CC44     		lw	a1,12(s1)
 2523 0b22 97000000 		call	app_sec_remove_bond
 2523      E7800000 
 2524              	.LVL216:
 110:C:/Users/stapi/OneDrive/Desktop/GD32VW553/GD32VW55X_Wifi_BLE_SDK/GD32VW55x_RELEASE_V1.0.2/MSDK/ble/app\app_sec_mgr.c ****             dbg_print(NOTICE,"app_pairing_req_hdlr remove bond fail\r\n");
 2525              		.loc 1 110 12
 2526 0b2a 631305D4 		bne	a0,zero,.L103
 111:C:/Users/stapi/OneDrive/Desktop/GD32VW553/GD32VW55X_Wifi_BLE_SDK/GD32VW55x_RELEASE_V1.0.2/MSDK/ble/app\app_sec_mgr.c ****         }
 2527              		.loc 1 111 13 is_stmt 1
 111:C:/Users/stapi/OneDrive/Desktop/GD32VW553/GD32VW55X_Wifi_BLE_SDK/GD32VW55x_RELEASE_V1.0.2/MSDK/ble/app\app_sec_mgr.c ****         }
 2528              		.loc 1 111 13
 2529 0b2e 03C70900 		lbu	a4,%lo(global_debug_level)(s3)
 2530 0b32 8947     		li	a5,2
 2531 0b34 63FEE7D2 		bleu	a4,a5,.L103
 111:C:/Users/stapi/OneDrive/Desktop/GD32VW553/GD32VW55X_Wifi_BLE_SDK/GD32VW55x_RELEASE_V1.0.2/MSDK/ble/app\app_sec_mgr.c ****         }
 2532              		.loc 1 111 13
 2533 0b38 37050000 		lui	a0,%hi(.LC7)
 2534 0b3c 13050500 		addi	a0,a0,%lo(.LC7)
 2535 0b40 6FF08FD2 		j	.L238
 2536              	.LVL217:
 2537              	.L223:
 2538              		.cfi_def_cfa_offset 0
 2539              		.cfi_restore 1
 2540              		.cfi_restore 8
 2541              		.cfi_restore 9
 2542              		.cfi_restore 18
 2543              		.cfi_restore 19
 2544              		.cfi_restore 20
 2545              		.cfi_restore 21
 2546 0b44 8280     		ret
 2547              	.LBE42:
 2548              	.LBE93:
 2549              		.cfi_endproc
 2550              	.LFE17:
 2552              		.section	.rodata.app_sec_send_encrypt_req.str1.4,"aMS",@progbits,1
 2553              		.align	2
 2554              	.LC45:
 2555 0000 6170705F 		.string	"app_sec_send_encrypt_req can't find device !\r\n"
 2555      7365635F 
 2555      73656E64 
 2555      5F656E63 
 2555      72797074 
 2556 002f 00       		.align	2
 2557              	.LC46:
 2558 0030 6170705F 		.string	"app_sec_send_encrypt_req no bonded !\r\n"
 2558      7365635F 
 2558      73656E64 
 2558      5F656E63 
 2558      72797074 
 2559 0057 00       		.align	2
 2560              	.LC47:
 2561 0058 6170705F 		.string	"app_sec_send_encrypt_req no ltk !\r\n"
 2561      7365635F 
 2561      73656E64 
 2561      5F656E63 
 2561      72797074 
 2562              		.align	2
 2563              	.LC48:
 2564 007c 6170705F 		.string	"app_sec_send_encrypt_req fail !\r\n"
 2564      7365635F 
 2564      73656E64 
 2564      5F656E63 
 2564      72797074 
 2565              		.section	.text.app_sec_send_encrypt_req,"ax",@progbits
 2566              		.align	1
 2567              		.globl	app_sec_send_encrypt_req
 2569              	app_sec_send_encrypt_req:
 2570              	.LFB29:
 908:C:/Users/stapi/OneDrive/Desktop/GD32VW553/GD32VW55X_Wifi_BLE_SDK/GD32VW55x_RELEASE_V1.0.2/MSDK/ble/app\app_sec_mgr.c **** 
 909:C:/Users/stapi/OneDrive/Desktop/GD32VW553/GD32VW55X_Wifi_BLE_SDK/GD32VW55x_RELEASE_V1.0.2/MSDK/ble/app\app_sec_mgr.c **** /*!
 910:C:/Users/stapi/OneDrive/Desktop/GD32VW553/GD32VW55X_Wifi_BLE_SDK/GD32VW55x_RELEASE_V1.0.2/MSDK/ble/app\app_sec_mgr.c ****     \brief      Send encryption request
 911:C:/Users/stapi/OneDrive/Desktop/GD32VW553/GD32VW55X_Wifi_BLE_SDK/GD32VW55x_RELEASE_V1.0.2/MSDK/ble/app\app_sec_mgr.c ****     \param[in]  conidx: connection index
 912:C:/Users/stapi/OneDrive/Desktop/GD32VW553/GD32VW55X_Wifi_BLE_SDK/GD32VW55x_RELEASE_V1.0.2/MSDK/ble/app\app_sec_mgr.c ****     \param[out] none
 913:C:/Users/stapi/OneDrive/Desktop/GD32VW553/GD32VW55X_Wifi_BLE_SDK/GD32VW55x_RELEASE_V1.0.2/MSDK/ble/app\app_sec_mgr.c ****     \retval     none
 914:C:/Users/stapi/OneDrive/Desktop/GD32VW553/GD32VW55X_Wifi_BLE_SDK/GD32VW55x_RELEASE_V1.0.2/MSDK/ble/app\app_sec_mgr.c **** */
 915:C:/Users/stapi/OneDrive/Desktop/GD32VW553/GD32VW55X_Wifi_BLE_SDK/GD32VW55x_RELEASE_V1.0.2/MSDK/ble/app\app_sec_mgr.c **** void app_sec_send_encrypt_req(uint8_t conidx)
 916:C:/Users/stapi/OneDrive/Desktop/GD32VW553/GD32VW55X_Wifi_BLE_SDK/GD32VW55x_RELEASE_V1.0.2/MSDK/ble/app\app_sec_mgr.c **** {
 2571              		.loc 1 916 1
 2572              		.cfi_startproc
 2573              	.LVL218:
 2574 0000 17030000 		call	t0,__riscv_save_1
 2574      E7020300 
 2575              		.cfi_offset 8, -8
 2576              		.cfi_offset 1, -4
 2577              		.cfi_def_cfa_offset 16
 917:C:/Users/stapi/OneDrive/Desktop/GD32VW553/GD32VW55X_Wifi_BLE_SDK/GD32VW55x_RELEASE_V1.0.2/MSDK/ble/app\app_sec_mgr.c ****     ble_device_t *p_device = dm_find_dev_by_conidx(conidx);
 2578              		.loc 1 917 5
 916:C:/Users/stapi/OneDrive/Desktop/GD32VW553/GD32VW55X_Wifi_BLE_SDK/GD32VW55x_RELEASE_V1.0.2/MSDK/ble/app\app_sec_mgr.c ****     ble_device_t *p_device = dm_find_dev_by_conidx(conidx);
 2579              		.loc 1 916 1 is_stmt 0
 2580 0008 2A84     		mv	s0,a0
 2581              		.loc 1 917 30
 2582 000a 97000000 		call	dm_find_dev_by_conidx
 2582      E7800000 
 2583              	.LVL219:
 918:C:/Users/stapi/OneDrive/Desktop/GD32VW553/GD32VW55X_Wifi_BLE_SDK/GD32VW55x_RELEASE_V1.0.2/MSDK/ble/app\app_sec_mgr.c **** 
 919:C:/Users/stapi/OneDrive/Desktop/GD32VW553/GD32VW55X_Wifi_BLE_SDK/GD32VW55x_RELEASE_V1.0.2/MSDK/ble/app\app_sec_mgr.c ****     if (p_device == NULL) {
 2584              		.loc 1 919 5 is_stmt 1
 2585              		.loc 1 919 8 is_stmt 0
 2586 0012 05E5     		bne	a0,zero,.L240
 920:C:/Users/stapi/OneDrive/Desktop/GD32VW553/GD32VW55X_Wifi_BLE_SDK/GD32VW55x_RELEASE_V1.0.2/MSDK/ble/app\app_sec_mgr.c ****         dbg_print(NOTICE, "app_sec_send_encrypt_req can't find device !\r\n");
 2587              		.loc 1 920 9 is_stmt 1
 2588              		.loc 1 920 9
 2589 0014 B7070000 		lui	a5,%hi(global_debug_level)
 2590 0018 03C70700 		lbu	a4,%lo(global_debug_level)(a5)
 2591 001c 8947     		li	a5,2
 2592 001e 63FAE700 		bleu	a4,a5,.L239
 2593              		.loc 1 920 9 discriminator 1
 2594 0022 37050000 		lui	a0,%hi(.LC45)
 2595              	.LVL220:
 2596 0026 13050500 		addi	a0,a0,%lo(.LC45)
 2597              	.L250:
 921:C:/Users/stapi/OneDrive/Desktop/GD32VW553/GD32VW55X_Wifi_BLE_SDK/GD32VW55x_RELEASE_V1.0.2/MSDK/ble/app\app_sec_mgr.c ****         return;
 922:C:/Users/stapi/OneDrive/Desktop/GD32VW553/GD32VW55X_Wifi_BLE_SDK/GD32VW55x_RELEASE_V1.0.2/MSDK/ble/app\app_sec_mgr.c ****     }
 923:C:/Users/stapi/OneDrive/Desktop/GD32VW553/GD32VW55X_Wifi_BLE_SDK/GD32VW55x_RELEASE_V1.0.2/MSDK/ble/app\app_sec_mgr.c **** 
 924:C:/Users/stapi/OneDrive/Desktop/GD32VW553/GD32VW55X_Wifi_BLE_SDK/GD32VW55x_RELEASE_V1.0.2/MSDK/ble/app\app_sec_mgr.c ****     if (!p_device->bonded) {
 925:C:/Users/stapi/OneDrive/Desktop/GD32VW553/GD32VW55X_Wifi_BLE_SDK/GD32VW55x_RELEASE_V1.0.2/MSDK/ble/app\app_sec_mgr.c ****         dbg_print(NOTICE, "app_sec_send_encrypt_req no bonded !\r\n");
 926:C:/Users/stapi/OneDrive/Desktop/GD32VW553/GD32VW55X_Wifi_BLE_SDK/GD32VW55x_RELEASE_V1.0.2/MSDK/ble/app\app_sec_mgr.c ****         return;
 927:C:/Users/stapi/OneDrive/Desktop/GD32VW553/GD32VW55X_Wifi_BLE_SDK/GD32VW55x_RELEASE_V1.0.2/MSDK/ble/app\app_sec_mgr.c ****     }
 928:C:/Users/stapi/OneDrive/Desktop/GD32VW553/GD32VW55X_Wifi_BLE_SDK/GD32VW55x_RELEASE_V1.0.2/MSDK/ble/app\app_sec_mgr.c **** 
 929:C:/Users/stapi/OneDrive/Desktop/GD32VW553/GD32VW55X_Wifi_BLE_SDK/GD32VW55x_RELEASE_V1.0.2/MSDK/ble/app\app_sec_mgr.c ****     if ((p_device->bond_info.key_msk & BLE_PEER_LTK_ENCKEY) == 0) {
 930:C:/Users/stapi/OneDrive/Desktop/GD32VW553/GD32VW55X_Wifi_BLE_SDK/GD32VW55x_RELEASE_V1.0.2/MSDK/ble/app\app_sec_mgr.c ****         dbg_print(NOTICE, "app_sec_send_encrypt_req no ltk !\r\n");
 931:C:/Users/stapi/OneDrive/Desktop/GD32VW553/GD32VW55X_Wifi_BLE_SDK/GD32VW55x_RELEASE_V1.0.2/MSDK/ble/app\app_sec_mgr.c ****         return;
 932:C:/Users/stapi/OneDrive/Desktop/GD32VW553/GD32VW55X_Wifi_BLE_SDK/GD32VW55x_RELEASE_V1.0.2/MSDK/ble/app\app_sec_mgr.c ****     }
 933:C:/Users/stapi/OneDrive/Desktop/GD32VW553/GD32VW55X_Wifi_BLE_SDK/GD32VW55x_RELEASE_V1.0.2/MSDK/ble/app\app_sec_mgr.c **** 
 934:C:/Users/stapi/OneDrive/Desktop/GD32VW553/GD32VW55X_Wifi_BLE_SDK/GD32VW55x_RELEASE_V1.0.2/MSDK/ble/app\app_sec_mgr.c ****     if (ble_sec_encrypt_req(conidx, &p_device->bond_info.peer_ltk) != BLE_ERR_NO_ERROR) {
 935:C:/Users/stapi/OneDrive/Desktop/GD32VW553/GD32VW55X_Wifi_BLE_SDK/GD32VW55x_RELEASE_V1.0.2/MSDK/ble/app\app_sec_mgr.c ****         dbg_print(NOTICE, "app_sec_send_encrypt_req fail !\r\n");
 2598              		.loc 1 935 9 is_stmt 0 discriminator 1
 2599 002a 97000000 		call	co_printf
 2599      E7800000 
 2600              	.LVL221:
 2601              		.loc 1 935 9 is_stmt 1 discriminator 1
 2602              	.L239:
 936:C:/Users/stapi/OneDrive/Desktop/GD32VW553/GD32VW55X_Wifi_BLE_SDK/GD32VW55x_RELEASE_V1.0.2/MSDK/ble/app\app_sec_mgr.c ****     }
 937:C:/Users/stapi/OneDrive/Desktop/GD32VW553/GD32VW55X_Wifi_BLE_SDK/GD32VW55x_RELEASE_V1.0.2/MSDK/ble/app\app_sec_mgr.c **** }
 2603              		.loc 1 937 1 is_stmt 0
 2604 0032 17030000 		tail	__riscv_restore_1
 2604      67000300 
 2605              		.cfi_remember_state
 2606              		.cfi_restore 8
 2607              		.cfi_restore 1
 2608              		.cfi_def_cfa_offset 0
 2609              	.LVL222:
 2610              	.L240:
 2611              		.cfi_restore_state
 924:C:/Users/stapi/OneDrive/Desktop/GD32VW553/GD32VW55X_Wifi_BLE_SDK/GD32VW55x_RELEASE_V1.0.2/MSDK/ble/app\app_sec_mgr.c ****         dbg_print(NOTICE, "app_sec_send_encrypt_req no bonded !\r\n");
 2612              		.loc 1 924 5 is_stmt 1
 924:C:/Users/stapi/OneDrive/Desktop/GD32VW553/GD32VW55X_Wifi_BLE_SDK/GD32VW55x_RELEASE_V1.0.2/MSDK/ble/app\app_sec_mgr.c ****         dbg_print(NOTICE, "app_sec_send_encrypt_req no bonded !\r\n");
 2613              		.loc 1 924 8 is_stmt 0
 2614 003a 83472501 		lbu	a5,18(a0)
 2615 003e 89EF     		bne	a5,zero,.L243
 925:C:/Users/stapi/OneDrive/Desktop/GD32VW553/GD32VW55X_Wifi_BLE_SDK/GD32VW55x_RELEASE_V1.0.2/MSDK/ble/app\app_sec_mgr.c ****         return;
 2616              		.loc 1 925 9 is_stmt 1
 925:C:/Users/stapi/OneDrive/Desktop/GD32VW553/GD32VW55X_Wifi_BLE_SDK/GD32VW55x_RELEASE_V1.0.2/MSDK/ble/app\app_sec_mgr.c ****         return;
 2617              		.loc 1 925 9
 2618 0040 B7070000 		lui	a5,%hi(global_debug_level)
 2619 0044 03C70700 		lbu	a4,%lo(global_debug_level)(a5)
 2620 0048 8947     		li	a5,2
 2621 004a E3F4E7FE 		bleu	a4,a5,.L239
 925:C:/Users/stapi/OneDrive/Desktop/GD32VW553/GD32VW55X_Wifi_BLE_SDK/GD32VW55x_RELEASE_V1.0.2/MSDK/ble/app\app_sec_mgr.c ****         return;
 2622              		.loc 1 925 9 discriminator 1
 2623 004e 37050000 		lui	a0,%hi(.LC46)
 2624              	.LVL223:
 2625 0052 13050500 		addi	a0,a0,%lo(.LC46)
 2626 0056 D1BF     		j	.L250
 2627              	.LVL224:
 2628              	.L243:
 929:C:/Users/stapi/OneDrive/Desktop/GD32VW553/GD32VW55X_Wifi_BLE_SDK/GD32VW55x_RELEASE_V1.0.2/MSDK/ble/app\app_sec_mgr.c ****         dbg_print(NOTICE, "app_sec_send_encrypt_req no ltk !\r\n");
 2629              		.loc 1 929 5
 929:C:/Users/stapi/OneDrive/Desktop/GD32VW553/GD32VW55X_Wifi_BLE_SDK/GD32VW55x_RELEASE_V1.0.2/MSDK/ble/app\app_sec_mgr.c ****         dbg_print(NOTICE, "app_sec_send_encrypt_req no ltk !\r\n");
 2630              		.loc 1 929 38 is_stmt 0
 2631 0058 3C41     		lw	a5,64(a0)
 2632 005a 898B     		andi	a5,a5,2
 929:C:/Users/stapi/OneDrive/Desktop/GD32VW553/GD32VW55X_Wifi_BLE_SDK/GD32VW55x_RELEASE_V1.0.2/MSDK/ble/app\app_sec_mgr.c ****         dbg_print(NOTICE, "app_sec_send_encrypt_req no ltk !\r\n");
 2633              		.loc 1 929 8
 2634 005c 89EF     		bne	a5,zero,.L245
 930:C:/Users/stapi/OneDrive/Desktop/GD32VW553/GD32VW55X_Wifi_BLE_SDK/GD32VW55x_RELEASE_V1.0.2/MSDK/ble/app\app_sec_mgr.c ****         return;
 2635              		.loc 1 930 9 is_stmt 1
 930:C:/Users/stapi/OneDrive/Desktop/GD32VW553/GD32VW55X_Wifi_BLE_SDK/GD32VW55x_RELEASE_V1.0.2/MSDK/ble/app\app_sec_mgr.c ****         return;
 2636              		.loc 1 930 9
 2637 005e B7070000 		lui	a5,%hi(global_debug_level)
 2638 0062 03C70700 		lbu	a4,%lo(global_debug_level)(a5)
 2639 0066 8947     		li	a5,2
 2640 0068 E3F5E7FC 		bleu	a4,a5,.L239
 930:C:/Users/stapi/OneDrive/Desktop/GD32VW553/GD32VW55X_Wifi_BLE_SDK/GD32VW55x_RELEASE_V1.0.2/MSDK/ble/app\app_sec_mgr.c ****         return;
 2641              		.loc 1 930 9 discriminator 1
 2642 006c 37050000 		lui	a0,%hi(.LC47)
 2643              	.LVL225:
 2644 0070 13050500 		addi	a0,a0,%lo(.LC47)
 2645 0074 5DBF     		j	.L250
 2646              	.LVL226:
 2647              	.L245:
 934:C:/Users/stapi/OneDrive/Desktop/GD32VW553/GD32VW55X_Wifi_BLE_SDK/GD32VW55x_RELEASE_V1.0.2/MSDK/ble/app\app_sec_mgr.c ****         dbg_print(NOTICE, "app_sec_send_encrypt_req fail !\r\n");
 2648              		.loc 1 934 5
 934:C:/Users/stapi/OneDrive/Desktop/GD32VW553/GD32VW55X_Wifi_BLE_SDK/GD32VW55x_RELEASE_V1.0.2/MSDK/ble/app\app_sec_mgr.c ****         dbg_print(NOTICE, "app_sec_send_encrypt_req fail !\r\n");
 2649              		.loc 1 934 9 is_stmt 0
 2650 0076 9305C505 		addi	a1,a0,92
 2651 007a 2285     		mv	a0,s0
 2652              	.LVL227:
 2653 007c 97000000 		call	ble_sec_encrypt_req
 2653      E7800000 
 2654              	.LVL228:
 934:C:/Users/stapi/OneDrive/Desktop/GD32VW553/GD32VW55X_Wifi_BLE_SDK/GD32VW55x_RELEASE_V1.0.2/MSDK/ble/app\app_sec_mgr.c ****         dbg_print(NOTICE, "app_sec_send_encrypt_req fail !\r\n");
 2655              		.loc 1 934 8
 2656 0084 5DD5     		beq	a0,zero,.L239
 935:C:/Users/stapi/OneDrive/Desktop/GD32VW553/GD32VW55X_Wifi_BLE_SDK/GD32VW55x_RELEASE_V1.0.2/MSDK/ble/app\app_sec_mgr.c ****     }
 2657              		.loc 1 935 9 is_stmt 1
 935:C:/Users/stapi/OneDrive/Desktop/GD32VW553/GD32VW55X_Wifi_BLE_SDK/GD32VW55x_RELEASE_V1.0.2/MSDK/ble/app\app_sec_mgr.c ****     }
 2658              		.loc 1 935 9
 2659 0086 B7070000 		lui	a5,%hi(global_debug_level)
 2660 008a 03C70700 		lbu	a4,%lo(global_debug_level)(a5)
 2661 008e 8947     		li	a5,2
 2662 0090 E3F1E7FA 		bleu	a4,a5,.L239
 935:C:/Users/stapi/OneDrive/Desktop/GD32VW553/GD32VW55X_Wifi_BLE_SDK/GD32VW55x_RELEASE_V1.0.2/MSDK/ble/app\app_sec_mgr.c ****     }
 2663              		.loc 1 935 9 discriminator 1
 2664 0094 37050000 		lui	a0,%hi(.LC48)
 2665 0098 13050500 		addi	a0,a0,%lo(.LC48)
 2666 009c 79B7     		j	.L250
 2667              		.cfi_endproc
 2668              	.LFE29:
 2670              		.section	.rodata.app_sec_input_passkey.str1.4,"aMS",@progbits,1
 2671              		.align	2
 2672              	.LC49:
 2673 0000 6170705F 		.string	"app_sec_input_passkey can't find device !\r\n"
 2673      7365635F 
 2673      696E7075 
 2673      745F7061 
 2673      73736B65 
 2674              		.align	2
 2675              	.LC50:
 2676 002c 696E7075 		.string	"input passkey: %d\r\n"
 2676      74207061 
 2676      73736B65 
 2676      793A2025 
 2676      640D0A00 
 2677              		.section	.text.app_sec_input_passkey,"ax",@progbits
 2678              		.align	1
 2679              		.globl	app_sec_input_passkey
 2681              	app_sec_input_passkey:
 2682              	.LFB30:
 938:C:/Users/stapi/OneDrive/Desktop/GD32VW553/GD32VW55X_Wifi_BLE_SDK/GD32VW55x_RELEASE_V1.0.2/MSDK/ble/app\app_sec_mgr.c **** 
 939:C:/Users/stapi/OneDrive/Desktop/GD32VW553/GD32VW55X_Wifi_BLE_SDK/GD32VW55x_RELEASE_V1.0.2/MSDK/ble/app\app_sec_mgr.c **** /*!
 940:C:/Users/stapi/OneDrive/Desktop/GD32VW553/GD32VW55X_Wifi_BLE_SDK/GD32VW55x_RELEASE_V1.0.2/MSDK/ble/app\app_sec_mgr.c ****     \brief      Input passkey for pairing
 941:C:/Users/stapi/OneDrive/Desktop/GD32VW553/GD32VW55X_Wifi_BLE_SDK/GD32VW55x_RELEASE_V1.0.2/MSDK/ble/app\app_sec_mgr.c ****     \param[in]  conidx: connection index
 942:C:/Users/stapi/OneDrive/Desktop/GD32VW553/GD32VW55X_Wifi_BLE_SDK/GD32VW55x_RELEASE_V1.0.2/MSDK/ble/app\app_sec_mgr.c ****     \param[in]  passkey: passkey value
 943:C:/Users/stapi/OneDrive/Desktop/GD32VW553/GD32VW55X_Wifi_BLE_SDK/GD32VW55x_RELEASE_V1.0.2/MSDK/ble/app\app_sec_mgr.c ****     \param[out] none
 944:C:/Users/stapi/OneDrive/Desktop/GD32VW553/GD32VW55X_Wifi_BLE_SDK/GD32VW55x_RELEASE_V1.0.2/MSDK/ble/app\app_sec_mgr.c ****     \retval     none
 945:C:/Users/stapi/OneDrive/Desktop/GD32VW553/GD32VW55X_Wifi_BLE_SDK/GD32VW55x_RELEASE_V1.0.2/MSDK/ble/app\app_sec_mgr.c **** */
 946:C:/Users/stapi/OneDrive/Desktop/GD32VW553/GD32VW55X_Wifi_BLE_SDK/GD32VW55x_RELEASE_V1.0.2/MSDK/ble/app\app_sec_mgr.c **** void app_sec_input_passkey(uint8_t conidx, uint32_t passkey)
 947:C:/Users/stapi/OneDrive/Desktop/GD32VW553/GD32VW55X_Wifi_BLE_SDK/GD32VW55x_RELEASE_V1.0.2/MSDK/ble/app\app_sec_mgr.c **** {
 2683              		.loc 1 947 1
 2684              		.cfi_startproc
 2685              	.LVL229:
 2686 0000 17030000 		call	t0,__riscv_save_2
 2686      E7020300 
 2687              		.cfi_offset 9, -12
 2688              		.cfi_offset 8, -8
 2689              		.cfi_offset 1, -4
 2690              		.cfi_def_cfa_offset 16
 948:C:/Users/stapi/OneDrive/Desktop/GD32VW553/GD32VW55X_Wifi_BLE_SDK/GD32VW55x_RELEASE_V1.0.2/MSDK/ble/app\app_sec_mgr.c ****     ble_device_t *p_device = dm_find_dev_by_conidx(conidx);
 2691              		.loc 1 948 5
 947:C:/Users/stapi/OneDrive/Desktop/GD32VW553/GD32VW55X_Wifi_BLE_SDK/GD32VW55x_RELEASE_V1.0.2/MSDK/ble/app\app_sec_mgr.c ****     ble_device_t *p_device = dm_find_dev_by_conidx(conidx);
 2692              		.loc 1 947 1 is_stmt 0
 2693 0008 AA84     		mv	s1,a0
 2694 000a 2E84     		mv	s0,a1
 2695              		.loc 1 948 30
 2696 000c 97000000 		call	dm_find_dev_by_conidx
 2696      E7800000 
 2697              	.LVL230:
 949:C:/Users/stapi/OneDrive/Desktop/GD32VW553/GD32VW55X_Wifi_BLE_SDK/GD32VW55x_RELEASE_V1.0.2/MSDK/ble/app\app_sec_mgr.c **** 
 950:C:/Users/stapi/OneDrive/Desktop/GD32VW553/GD32VW55X_Wifi_BLE_SDK/GD32VW55x_RELEASE_V1.0.2/MSDK/ble/app\app_sec_mgr.c ****     if (p_device == NULL) {
 2698              		.loc 1 950 5 is_stmt 1
 2699 0014 B7070000 		lui	a5,%hi(global_debug_level)
 951:C:/Users/stapi/OneDrive/Desktop/GD32VW553/GD32VW55X_Wifi_BLE_SDK/GD32VW55x_RELEASE_V1.0.2/MSDK/ble/app\app_sec_mgr.c ****         dbg_print(NOTICE, "app_sec_input_passkey can't find device !\r\n");
 2700              		.loc 1 951 9 is_stmt 0
 2701 0018 03C70700 		lbu	a4,%lo(global_debug_level)(a5)
 2702 001c 8947     		li	a5,2
 950:C:/Users/stapi/OneDrive/Desktop/GD32VW553/GD32VW55X_Wifi_BLE_SDK/GD32VW55x_RELEASE_V1.0.2/MSDK/ble/app\app_sec_mgr.c ****         dbg_print(NOTICE, "app_sec_input_passkey can't find device !\r\n");
 2703              		.loc 1 950 8
 2704 001e 15E5     		bne	a0,zero,.L252
 2705              		.loc 1 951 9 is_stmt 1
 2706              		.loc 1 951 9
 2707 0020 63FAE700 		bleu	a4,a5,.L253
 2708              		.loc 1 951 9 discriminator 1
 2709 0024 37050000 		lui	a0,%hi(.LC49)
 2710              	.LVL231:
 2711 0028 13050500 		addi	a0,a0,%lo(.LC49)
 2712 002c 97000000 		call	co_printf
 2712      E7800000 
 2713              	.LVL232:
 2714              	.L253:
 2715              		.loc 1 951 9 discriminator 3
 952:C:/Users/stapi/OneDrive/Desktop/GD32VW553/GD32VW55X_Wifi_BLE_SDK/GD32VW55x_RELEASE_V1.0.2/MSDK/ble/app\app_sec_mgr.c ****         ble_sec_key_display_enter_cfm(conidx, false, passkey);
 2716              		.loc 1 952 9 discriminator 3
 2717 0034 2286     		mv	a2,s0
 2718 0036 8145     		li	a1,0
 2719              	.L257:
 953:C:/Users/stapi/OneDrive/Desktop/GD32VW553/GD32VW55X_Wifi_BLE_SDK/GD32VW55x_RELEASE_V1.0.2/MSDK/ble/app\app_sec_mgr.c ****         return;
 954:C:/Users/stapi/OneDrive/Desktop/GD32VW553/GD32VW55X_Wifi_BLE_SDK/GD32VW55x_RELEASE_V1.0.2/MSDK/ble/app\app_sec_mgr.c ****     }
 955:C:/Users/stapi/OneDrive/Desktop/GD32VW553/GD32VW55X_Wifi_BLE_SDK/GD32VW55x_RELEASE_V1.0.2/MSDK/ble/app\app_sec_mgr.c **** 
 956:C:/Users/stapi/OneDrive/Desktop/GD32VW553/GD32VW55X_Wifi_BLE_SDK/GD32VW55x_RELEASE_V1.0.2/MSDK/ble/app\app_sec_mgr.c ****     dbg_print(NOTICE, "input passkey: %d\r\n", passkey);
 957:C:/Users/stapi/OneDrive/Desktop/GD32VW553/GD32VW55X_Wifi_BLE_SDK/GD32VW55x_RELEASE_V1.0.2/MSDK/ble/app\app_sec_mgr.c **** 
 958:C:/Users/stapi/OneDrive/Desktop/GD32VW553/GD32VW55X_Wifi_BLE_SDK/GD32VW55x_RELEASE_V1.0.2/MSDK/ble/app\app_sec_mgr.c ****     ble_sec_key_display_enter_cfm(conidx, true, passkey);
 2720              		.loc 1 958 5 is_stmt 0 discriminator 3
 2721 0038 2685     		mv	a0,s1
 2722 003a 97000000 		call	ble_sec_key_display_enter_cfm
 2722      E7800000 
 2723              	.LVL233:
 959:C:/Users/stapi/OneDrive/Desktop/GD32VW553/GD32VW55X_Wifi_BLE_SDK/GD32VW55x_RELEASE_V1.0.2/MSDK/ble/app\app_sec_mgr.c **** }
 2724              		.loc 1 959 1 discriminator 3
 2725 0042 17030000 		tail	__riscv_restore_2
 2725      67000300 
 2726              		.cfi_remember_state
 2727              		.cfi_restore 9
 2728              		.cfi_restore 8
 2729              		.cfi_restore 1
 2730              		.cfi_def_cfa_offset 0
 2731              	.LVL234:
 2732              	.L252:
 2733              		.cfi_restore_state
 956:C:/Users/stapi/OneDrive/Desktop/GD32VW553/GD32VW55X_Wifi_BLE_SDK/GD32VW55x_RELEASE_V1.0.2/MSDK/ble/app\app_sec_mgr.c **** 
 2734              		.loc 1 956 5 is_stmt 1
 956:C:/Users/stapi/OneDrive/Desktop/GD32VW553/GD32VW55X_Wifi_BLE_SDK/GD32VW55x_RELEASE_V1.0.2/MSDK/ble/app\app_sec_mgr.c **** 
 2735              		.loc 1 956 5
 2736 004a 63FBE700 		bleu	a4,a5,.L255
 956:C:/Users/stapi/OneDrive/Desktop/GD32VW553/GD32VW55X_Wifi_BLE_SDK/GD32VW55x_RELEASE_V1.0.2/MSDK/ble/app\app_sec_mgr.c **** 
 2737              		.loc 1 956 5 discriminator 1
 2738 004e 37050000 		lui	a0,%hi(.LC50)
 2739              	.LVL235:
 2740 0052 A285     		mv	a1,s0
 2741 0054 13050500 		addi	a0,a0,%lo(.LC50)
 2742 0058 97000000 		call	co_printf
 2742      E7800000 
 2743              	.LVL236:
 2744              	.L255:
 956:C:/Users/stapi/OneDrive/Desktop/GD32VW553/GD32VW55X_Wifi_BLE_SDK/GD32VW55x_RELEASE_V1.0.2/MSDK/ble/app\app_sec_mgr.c **** 
 2745              		.loc 1 956 5 discriminator 3
 958:C:/Users/stapi/OneDrive/Desktop/GD32VW553/GD32VW55X_Wifi_BLE_SDK/GD32VW55x_RELEASE_V1.0.2/MSDK/ble/app\app_sec_mgr.c **** }
 2746              		.loc 1 958 5 discriminator 3
 2747 0060 2286     		mv	a2,s0
 2748 0062 8545     		li	a1,1
 2749 0064 D1BF     		j	.L257
 2750              		.cfi_endproc
 2751              	.LFE30:
 2753              		.section	.rodata.app_sec_input_oob.str1.4,"aMS",@progbits,1
 2754              		.align	2
 2755              	.LC51:
 2756 0000 6170705F 		.string	"app_sec_input_oob can't find device !\r\n"
 2756      7365635F 
 2756      696E7075 
 2756      745F6F6F 
 2756      62206361 
 2757              		.section	.text.app_sec_input_oob,"ax",@progbits
 2758              		.align	1
 2759              		.globl	app_sec_input_oob
 2761              	app_sec_input_oob:
 2762              	.LFB31:
 960:C:/Users/stapi/OneDrive/Desktop/GD32VW553/GD32VW55X_Wifi_BLE_SDK/GD32VW55x_RELEASE_V1.0.2/MSDK/ble/app\app_sec_mgr.c **** 
 961:C:/Users/stapi/OneDrive/Desktop/GD32VW553/GD32VW55X_Wifi_BLE_SDK/GD32VW55x_RELEASE_V1.0.2/MSDK/ble/app\app_sec_mgr.c **** /*!
 962:C:/Users/stapi/OneDrive/Desktop/GD32VW553/GD32VW55X_Wifi_BLE_SDK/GD32VW55x_RELEASE_V1.0.2/MSDK/ble/app\app_sec_mgr.c ****     \brief      Input OOB key for TK
 963:C:/Users/stapi/OneDrive/Desktop/GD32VW553/GD32VW55X_Wifi_BLE_SDK/GD32VW55x_RELEASE_V1.0.2/MSDK/ble/app\app_sec_mgr.c ****     \param[in]  conidx: connection index
 964:C:/Users/stapi/OneDrive/Desktop/GD32VW553/GD32VW55X_Wifi_BLE_SDK/GD32VW55x_RELEASE_V1.0.2/MSDK/ble/app\app_sec_mgr.c ****     \param[in]  p_oob: pointer to the OOB key data
 965:C:/Users/stapi/OneDrive/Desktop/GD32VW553/GD32VW55X_Wifi_BLE_SDK/GD32VW55x_RELEASE_V1.0.2/MSDK/ble/app\app_sec_mgr.c ****     \param[out] none
 966:C:/Users/stapi/OneDrive/Desktop/GD32VW553/GD32VW55X_Wifi_BLE_SDK/GD32VW55x_RELEASE_V1.0.2/MSDK/ble/app\app_sec_mgr.c ****     \retval     none
 967:C:/Users/stapi/OneDrive/Desktop/GD32VW553/GD32VW55X_Wifi_BLE_SDK/GD32VW55x_RELEASE_V1.0.2/MSDK/ble/app\app_sec_mgr.c **** */
 968:C:/Users/stapi/OneDrive/Desktop/GD32VW553/GD32VW55X_Wifi_BLE_SDK/GD32VW55x_RELEASE_V1.0.2/MSDK/ble/app\app_sec_mgr.c **** void app_sec_input_oob(uint8_t conidx, uint8_t *p_oob)
 969:C:/Users/stapi/OneDrive/Desktop/GD32VW553/GD32VW55X_Wifi_BLE_SDK/GD32VW55x_RELEASE_V1.0.2/MSDK/ble/app\app_sec_mgr.c **** {
 2763              		.loc 1 969 1
 2764              		.cfi_startproc
 2765              	.LVL237:
 2766 0000 17030000 		call	t0,__riscv_save_1
 2766      E7020300 
 2767              		.cfi_offset 8, -8
 2768              		.cfi_offset 1, -4
 2769              		.cfi_def_cfa_offset 16
 970:C:/Users/stapi/OneDrive/Desktop/GD32VW553/GD32VW55X_Wifi_BLE_SDK/GD32VW55x_RELEASE_V1.0.2/MSDK/ble/app\app_sec_mgr.c ****     ble_device_t *p_device = dm_find_dev_by_conidx(conidx);
 2770              		.loc 1 970 5
 969:C:/Users/stapi/OneDrive/Desktop/GD32VW553/GD32VW55X_Wifi_BLE_SDK/GD32VW55x_RELEASE_V1.0.2/MSDK/ble/app\app_sec_mgr.c ****     ble_device_t *p_device = dm_find_dev_by_conidx(conidx);
 2771              		.loc 1 969 1 is_stmt 0
 2772 0008 4111     		addi	sp,sp,-16
 2773              		.cfi_def_cfa_offset 32
 969:C:/Users/stapi/OneDrive/Desktop/GD32VW553/GD32VW55X_Wifi_BLE_SDK/GD32VW55x_RELEASE_V1.0.2/MSDK/ble/app\app_sec_mgr.c ****     ble_device_t *p_device = dm_find_dev_by_conidx(conidx);
 2774              		.loc 1 969 1
 2775 000a 2EC6     		sw	a1,12(sp)
 2776 000c 2A84     		mv	s0,a0
 2777              		.loc 1 970 30
 2778 000e 97000000 		call	dm_find_dev_by_conidx
 2778      E7800000 
 2779              	.LVL238:
 971:C:/Users/stapi/OneDrive/Desktop/GD32VW553/GD32VW55X_Wifi_BLE_SDK/GD32VW55x_RELEASE_V1.0.2/MSDK/ble/app\app_sec_mgr.c **** 
 972:C:/Users/stapi/OneDrive/Desktop/GD32VW553/GD32VW55X_Wifi_BLE_SDK/GD32VW55x_RELEASE_V1.0.2/MSDK/ble/app\app_sec_mgr.c ****     if (p_device == NULL) {
 2780              		.loc 1 972 5 is_stmt 1
 2781              		.loc 1 972 8 is_stmt 0
 2782 0016 3246     		lw	a2,12(sp)
 973:C:/Users/stapi/OneDrive/Desktop/GD32VW553/GD32VW55X_Wifi_BLE_SDK/GD32VW55x_RELEASE_V1.0.2/MSDK/ble/app\app_sec_mgr.c ****         dbg_print(NOTICE, "app_sec_input_oob can't find device !\r\n");
 974:C:/Users/stapi/OneDrive/Desktop/GD32VW553/GD32VW55X_Wifi_BLE_SDK/GD32VW55x_RELEASE_V1.0.2/MSDK/ble/app\app_sec_mgr.c ****         ble_sec_oob_req_cfm(conidx, false, p_oob);
 975:C:/Users/stapi/OneDrive/Desktop/GD32VW553/GD32VW55X_Wifi_BLE_SDK/GD32VW55x_RELEASE_V1.0.2/MSDK/ble/app\app_sec_mgr.c ****         return;
 976:C:/Users/stapi/OneDrive/Desktop/GD32VW553/GD32VW55X_Wifi_BLE_SDK/GD32VW55x_RELEASE_V1.0.2/MSDK/ble/app\app_sec_mgr.c ****     }
 977:C:/Users/stapi/OneDrive/Desktop/GD32VW553/GD32VW55X_Wifi_BLE_SDK/GD32VW55x_RELEASE_V1.0.2/MSDK/ble/app\app_sec_mgr.c **** 
 978:C:/Users/stapi/OneDrive/Desktop/GD32VW553/GD32VW55X_Wifi_BLE_SDK/GD32VW55x_RELEASE_V1.0.2/MSDK/ble/app\app_sec_mgr.c ****     ble_sec_oob_req_cfm(conidx, true, p_oob);
 2783              		.loc 1 978 5
 2784 0018 8545     		li	a1,1
 972:C:/Users/stapi/OneDrive/Desktop/GD32VW553/GD32VW55X_Wifi_BLE_SDK/GD32VW55x_RELEASE_V1.0.2/MSDK/ble/app\app_sec_mgr.c ****         dbg_print(NOTICE, "app_sec_input_oob can't find device !\r\n");
 2785              		.loc 1 972 8
 2786 001a 15E1     		bne	a0,zero,.L263
 973:C:/Users/stapi/OneDrive/Desktop/GD32VW553/GD32VW55X_Wifi_BLE_SDK/GD32VW55x_RELEASE_V1.0.2/MSDK/ble/app\app_sec_mgr.c ****         dbg_print(NOTICE, "app_sec_input_oob can't find device !\r\n");
 2787              		.loc 1 973 9 is_stmt 1
 973:C:/Users/stapi/OneDrive/Desktop/GD32VW553/GD32VW55X_Wifi_BLE_SDK/GD32VW55x_RELEASE_V1.0.2/MSDK/ble/app\app_sec_mgr.c ****         dbg_print(NOTICE, "app_sec_input_oob can't find device !\r\n");
 2788              		.loc 1 973 9
 2789 001c B7070000 		lui	a5,%hi(global_debug_level)
 2790 0020 03C70700 		lbu	a4,%lo(global_debug_level)(a5)
 2791 0024 8947     		li	a5,2
 2792 0026 63FBE700 		bleu	a4,a5,.L260
 973:C:/Users/stapi/OneDrive/Desktop/GD32VW553/GD32VW55X_Wifi_BLE_SDK/GD32VW55x_RELEASE_V1.0.2/MSDK/ble/app\app_sec_mgr.c ****         dbg_print(NOTICE, "app_sec_input_oob can't find device !\r\n");
 2793              		.loc 1 973 9 discriminator 1
 2794 002a 37050000 		lui	a0,%hi(.LC51)
 2795              	.LVL239:
 2796 002e 13050500 		addi	a0,a0,%lo(.LC51)
 2797 0032 97000000 		call	co_printf
 2797      E7800000 
 2798              	.LVL240:
 2799 003a 3246     		lw	a2,12(sp)
 2800              	.L260:
 973:C:/Users/stapi/OneDrive/Desktop/GD32VW553/GD32VW55X_Wifi_BLE_SDK/GD32VW55x_RELEASE_V1.0.2/MSDK/ble/app\app_sec_mgr.c ****         dbg_print(NOTICE, "app_sec_input_oob can't find device !\r\n");
 2801              		.loc 1 973 9 discriminator 3
 974:C:/Users/stapi/OneDrive/Desktop/GD32VW553/GD32VW55X_Wifi_BLE_SDK/GD32VW55x_RELEASE_V1.0.2/MSDK/ble/app\app_sec_mgr.c ****         return;
 2802              		.loc 1 974 9 discriminator 3
 2803 003c 8145     		li	a1,0
 2804              	.L263:
 2805              		.loc 1 978 5 is_stmt 0
 2806 003e 2285     		mv	a0,s0
 2807 0040 97000000 		call	ble_sec_oob_req_cfm
 2807      E7800000 
 2808              	.LVL241:
 979:C:/Users/stapi/OneDrive/Desktop/GD32VW553/GD32VW55X_Wifi_BLE_SDK/GD32VW55x_RELEASE_V1.0.2/MSDK/ble/app\app_sec_mgr.c **** }
 2809              		.loc 1 979 1
 2810 0048 4101     		addi	sp,sp,16
 2811              		.cfi_def_cfa_offset 0
 2812              	.LVL242:
 2813 004a 17030000 		tail	__riscv_restore_1
 2813      67000300 
 2814              		.cfi_restore 8
 2815              		.cfi_restore 1
 2816              		.cfi_def_cfa_offset -16
 2817              		.cfi_endproc
 2818              	.LFE31:
 2820              		.section	.rodata.app_sec_num_compare.str1.4,"aMS",@progbits,1
 2821              		.align	2
 2822              	.LC52:
 2823 0000 6170705F 		.string	"app_sec_num_compare can't find device !\r\n"
 2823      7365635F 
 2823      6E756D5F 
 2823      636F6D70 
 2823      61726520 
 2824 002a 0000     		.align	2
 2825              	.LC53:
 2826 002c 636F6D70 		.string	"compare result: %d\r\n"
 2826      61726520 
 2826      72657375 
 2826      6C743A20 
 2826      25640D0A 
 2827              		.section	.text.app_sec_num_compare,"ax",@progbits
 2828              		.align	1
 2829              		.globl	app_sec_num_compare
 2831              	app_sec_num_compare:
 2832              	.LFB32:
 980:C:/Users/stapi/OneDrive/Desktop/GD32VW553/GD32VW55X_Wifi_BLE_SDK/GD32VW55x_RELEASE_V1.0.2/MSDK/ble/app\app_sec_mgr.c **** 
 981:C:/Users/stapi/OneDrive/Desktop/GD32VW553/GD32VW55X_Wifi_BLE_SDK/GD32VW55x_RELEASE_V1.0.2/MSDK/ble/app\app_sec_mgr.c **** /*!
 982:C:/Users/stapi/OneDrive/Desktop/GD32VW553/GD32VW55X_Wifi_BLE_SDK/GD32VW55x_RELEASE_V1.0.2/MSDK/ble/app\app_sec_mgr.c ****     \brief      Set numeric comparison result
 983:C:/Users/stapi/OneDrive/Desktop/GD32VW553/GD32VW55X_Wifi_BLE_SDK/GD32VW55x_RELEASE_V1.0.2/MSDK/ble/app\app_sec_mgr.c ****     \param[in]  conidx: connection index
 984:C:/Users/stapi/OneDrive/Desktop/GD32VW553/GD32VW55X_Wifi_BLE_SDK/GD32VW55x_RELEASE_V1.0.2/MSDK/ble/app\app_sec_mgr.c ****     \param[in]  accept: true to accept the numeric comparison, otherwisw false
 985:C:/Users/stapi/OneDrive/Desktop/GD32VW553/GD32VW55X_Wifi_BLE_SDK/GD32VW55x_RELEASE_V1.0.2/MSDK/ble/app\app_sec_mgr.c ****     \param[out] none
 986:C:/Users/stapi/OneDrive/Desktop/GD32VW553/GD32VW55X_Wifi_BLE_SDK/GD32VW55x_RELEASE_V1.0.2/MSDK/ble/app\app_sec_mgr.c ****     \retval     none
 987:C:/Users/stapi/OneDrive/Desktop/GD32VW553/GD32VW55X_Wifi_BLE_SDK/GD32VW55x_RELEASE_V1.0.2/MSDK/ble/app\app_sec_mgr.c **** */
 988:C:/Users/stapi/OneDrive/Desktop/GD32VW553/GD32VW55X_Wifi_BLE_SDK/GD32VW55x_RELEASE_V1.0.2/MSDK/ble/app\app_sec_mgr.c **** void app_sec_num_compare(uint8_t conidx, bool accept)
 989:C:/Users/stapi/OneDrive/Desktop/GD32VW553/GD32VW55X_Wifi_BLE_SDK/GD32VW55x_RELEASE_V1.0.2/MSDK/ble/app\app_sec_mgr.c **** {
 2833              		.loc 1 989 1 is_stmt 1
 2834              		.cfi_startproc
 2835              	.LVL243:
 2836 0000 17030000 		call	t0,__riscv_save_2
 2836      E7020300 
 2837              		.cfi_offset 9, -12
 2838              		.cfi_offset 8, -8
 2839              		.cfi_offset 1, -4
 2840              		.cfi_def_cfa_offset 16
 990:C:/Users/stapi/OneDrive/Desktop/GD32VW553/GD32VW55X_Wifi_BLE_SDK/GD32VW55x_RELEASE_V1.0.2/MSDK/ble/app\app_sec_mgr.c ****     ble_device_t *p_device = dm_find_dev_by_conidx(conidx);
 2841              		.loc 1 990 5
 989:C:/Users/stapi/OneDrive/Desktop/GD32VW553/GD32VW55X_Wifi_BLE_SDK/GD32VW55x_RELEASE_V1.0.2/MSDK/ble/app\app_sec_mgr.c ****     ble_device_t *p_device = dm_find_dev_by_conidx(conidx);
 2842              		.loc 1 989 1 is_stmt 0
 2843 0008 2A84     		mv	s0,a0
 2844 000a AE84     		mv	s1,a1
 2845              		.loc 1 990 30
 2846 000c 97000000 		call	dm_find_dev_by_conidx
 2846      E7800000 
 2847              	.LVL244:
 991:C:/Users/stapi/OneDrive/Desktop/GD32VW553/GD32VW55X_Wifi_BLE_SDK/GD32VW55x_RELEASE_V1.0.2/MSDK/ble/app\app_sec_mgr.c **** 
 992:C:/Users/stapi/OneDrive/Desktop/GD32VW553/GD32VW55X_Wifi_BLE_SDK/GD32VW55x_RELEASE_V1.0.2/MSDK/ble/app\app_sec_mgr.c ****     if (p_device == NULL) {
 2848              		.loc 1 992 5 is_stmt 1
 2849 0014 B7070000 		lui	a5,%hi(global_debug_level)
 993:C:/Users/stapi/OneDrive/Desktop/GD32VW553/GD32VW55X_Wifi_BLE_SDK/GD32VW55x_RELEASE_V1.0.2/MSDK/ble/app\app_sec_mgr.c ****         dbg_print(NOTICE, "app_sec_num_compare can't find device !\r\n");
 2850              		.loc 1 993 9 is_stmt 0
 2851 0018 03C70700 		lbu	a4,%lo(global_debug_level)(a5)
 2852 001c 8947     		li	a5,2
 992:C:/Users/stapi/OneDrive/Desktop/GD32VW553/GD32VW55X_Wifi_BLE_SDK/GD32VW55x_RELEASE_V1.0.2/MSDK/ble/app\app_sec_mgr.c ****         dbg_print(NOTICE, "app_sec_num_compare can't find device !\r\n");
 2853              		.loc 1 992 8
 2854 001e 0DE5     		bne	a0,zero,.L265
 2855              		.loc 1 993 9 is_stmt 1
 2856              		.loc 1 993 9
 2857 0020 63FAE700 		bleu	a4,a5,.L266
 2858              		.loc 1 993 9 discriminator 1
 2859 0024 37050000 		lui	a0,%hi(.LC52)
 2860              	.LVL245:
 2861 0028 13050500 		addi	a0,a0,%lo(.LC52)
 2862 002c 97000000 		call	co_printf
 2862      E7800000 
 2863              	.LVL246:
 2864              	.L266:
 2865              		.loc 1 993 9 discriminator 3
 994:C:/Users/stapi/OneDrive/Desktop/GD32VW553/GD32VW55X_Wifi_BLE_SDK/GD32VW55x_RELEASE_V1.0.2/MSDK/ble/app\app_sec_mgr.c ****         ble_sec_nc_cfm(conidx, false);
 2866              		.loc 1 994 9 discriminator 3
 2867 0034 8145     		li	a1,0
 2868              	.L270:
 995:C:/Users/stapi/OneDrive/Desktop/GD32VW553/GD32VW55X_Wifi_BLE_SDK/GD32VW55x_RELEASE_V1.0.2/MSDK/ble/app\app_sec_mgr.c ****         return;
 996:C:/Users/stapi/OneDrive/Desktop/GD32VW553/GD32VW55X_Wifi_BLE_SDK/GD32VW55x_RELEASE_V1.0.2/MSDK/ble/app\app_sec_mgr.c ****     }
 997:C:/Users/stapi/OneDrive/Desktop/GD32VW553/GD32VW55X_Wifi_BLE_SDK/GD32VW55x_RELEASE_V1.0.2/MSDK/ble/app\app_sec_mgr.c **** 
 998:C:/Users/stapi/OneDrive/Desktop/GD32VW553/GD32VW55X_Wifi_BLE_SDK/GD32VW55x_RELEASE_V1.0.2/MSDK/ble/app\app_sec_mgr.c ****     dbg_print(NOTICE, "compare result: %d\r\n", accept);
 999:C:/Users/stapi/OneDrive/Desktop/GD32VW553/GD32VW55X_Wifi_BLE_SDK/GD32VW55x_RELEASE_V1.0.2/MSDK/ble/app\app_sec_mgr.c **** 
1000:C:/Users/stapi/OneDrive/Desktop/GD32VW553/GD32VW55X_Wifi_BLE_SDK/GD32VW55x_RELEASE_V1.0.2/MSDK/ble/app\app_sec_mgr.c ****     ble_sec_nc_cfm(conidx, accept);
 2869              		.loc 1 1000 5 is_stmt 0 discriminator 3
 2870 0036 2285     		mv	a0,s0
 2871 0038 97000000 		call	ble_sec_nc_cfm
 2871      E7800000 
 2872              	.LVL247:
1001:C:/Users/stapi/OneDrive/Desktop/GD32VW553/GD32VW55X_Wifi_BLE_SDK/GD32VW55x_RELEASE_V1.0.2/MSDK/ble/app\app_sec_mgr.c **** }
 2873              		.loc 1 1001 1 discriminator 3
 2874 0040 17030000 		tail	__riscv_restore_2
 2874      67000300 
 2875              		.cfi_remember_state
 2876              		.cfi_restore 9
 2877              		.cfi_restore 8
 2878              		.cfi_restore 1
 2879              		.cfi_def_cfa_offset 0
 2880              	.LVL248:
 2881              	.L265:
 2882              		.cfi_restore_state
 998:C:/Users/stapi/OneDrive/Desktop/GD32VW553/GD32VW55X_Wifi_BLE_SDK/GD32VW55x_RELEASE_V1.0.2/MSDK/ble/app\app_sec_mgr.c **** 
 2883              		.loc 1 998 5 is_stmt 1
 998:C:/Users/stapi/OneDrive/Desktop/GD32VW553/GD32VW55X_Wifi_BLE_SDK/GD32VW55x_RELEASE_V1.0.2/MSDK/ble/app\app_sec_mgr.c **** 
 2884              		.loc 1 998 5
 2885 0048 63FBE700 		bleu	a4,a5,.L268
 998:C:/Users/stapi/OneDrive/Desktop/GD32VW553/GD32VW55X_Wifi_BLE_SDK/GD32VW55x_RELEASE_V1.0.2/MSDK/ble/app\app_sec_mgr.c **** 
 2886              		.loc 1 998 5 discriminator 1
 2887 004c 37050000 		lui	a0,%hi(.LC53)
 2888              	.LVL249:
 2889 0050 A685     		mv	a1,s1
 2890 0052 13050500 		addi	a0,a0,%lo(.LC53)
 2891 0056 97000000 		call	co_printf
 2891      E7800000 
 2892              	.LVL250:
 2893              	.L268:
 998:C:/Users/stapi/OneDrive/Desktop/GD32VW553/GD32VW55X_Wifi_BLE_SDK/GD32VW55x_RELEASE_V1.0.2/MSDK/ble/app\app_sec_mgr.c **** 
 2894              		.loc 1 998 5 discriminator 3
1000:C:/Users/stapi/OneDrive/Desktop/GD32VW553/GD32VW55X_Wifi_BLE_SDK/GD32VW55x_RELEASE_V1.0.2/MSDK/ble/app\app_sec_mgr.c **** }
 2895              		.loc 1 1000 5 discriminator 3
 2896 005e A685     		mv	a1,s1
 2897 0060 D9BF     		j	.L270
 2898              		.cfi_endproc
 2899              	.LFE32:
 2901              		.section	.text.app_set_oob_data,"ax",@progbits
 2902              		.align	1
 2903              		.globl	app_set_oob_data
 2905              	app_set_oob_data:
 2906              	.LFB33:
1002:C:/Users/stapi/OneDrive/Desktop/GD32VW553/GD32VW55X_Wifi_BLE_SDK/GD32VW55x_RELEASE_V1.0.2/MSDK/ble/app\app_sec_mgr.c **** 
1003:C:/Users/stapi/OneDrive/Desktop/GD32VW553/GD32VW55X_Wifi_BLE_SDK/GD32VW55x_RELEASE_V1.0.2/MSDK/ble/app\app_sec_mgr.c **** /*!
1004:C:/Users/stapi/OneDrive/Desktop/GD32VW553/GD32VW55X_Wifi_BLE_SDK/GD32VW55x_RELEASE_V1.0.2/MSDK/ble/app\app_sec_mgr.c ****     \brief      Set OOB data
1005:C:/Users/stapi/OneDrive/Desktop/GD32VW553/GD32VW55X_Wifi_BLE_SDK/GD32VW55x_RELEASE_V1.0.2/MSDK/ble/app\app_sec_mgr.c ****     \param[in]  p_conf: pointer to confirm value
1006:C:/Users/stapi/OneDrive/Desktop/GD32VW553/GD32VW55X_Wifi_BLE_SDK/GD32VW55x_RELEASE_V1.0.2/MSDK/ble/app\app_sec_mgr.c ****     \param[in]  p_rand: pointer to random number
1007:C:/Users/stapi/OneDrive/Desktop/GD32VW553/GD32VW55X_Wifi_BLE_SDK/GD32VW55x_RELEASE_V1.0.2/MSDK/ble/app\app_sec_mgr.c ****     \param[out] none
1008:C:/Users/stapi/OneDrive/Desktop/GD32VW553/GD32VW55X_Wifi_BLE_SDK/GD32VW55x_RELEASE_V1.0.2/MSDK/ble/app\app_sec_mgr.c ****     \retval     none
1009:C:/Users/stapi/OneDrive/Desktop/GD32VW553/GD32VW55X_Wifi_BLE_SDK/GD32VW55x_RELEASE_V1.0.2/MSDK/ble/app\app_sec_mgr.c **** */
1010:C:/Users/stapi/OneDrive/Desktop/GD32VW553/GD32VW55X_Wifi_BLE_SDK/GD32VW55x_RELEASE_V1.0.2/MSDK/ble/app\app_sec_mgr.c **** void app_set_oob_data(uint8_t *p_conf, uint8_t *p_rand)
1011:C:/Users/stapi/OneDrive/Desktop/GD32VW553/GD32VW55X_Wifi_BLE_SDK/GD32VW55x_RELEASE_V1.0.2/MSDK/ble/app\app_sec_mgr.c **** {
 2907              		.loc 1 1011 1
 2908              		.cfi_startproc
 2909              	.LVL251:
 2910 0000 17030000 		call	t0,__riscv_save_2
 2910      E7020300 
 2911              		.cfi_offset 9, -12
 2912              		.cfi_offset 8, -8
 2913              		.cfi_offset 1, -4
 2914              		.cfi_def_cfa_offset 16
1012:C:/Users/stapi/OneDrive/Desktop/GD32VW553/GD32VW55X_Wifi_BLE_SDK/GD32VW55x_RELEASE_V1.0.2/MSDK/ble/app\app_sec_mgr.c ****     memcpy(app_sec_env.oob_data.conf, p_conf, BLE_GAP_KEY_LEN);
 2915              		.loc 1 1012 5
 2916 0008 37040000 		lui	s0,%hi(.LANCHOR0)
 2917 000c 13040400 		addi	s0,s0,%lo(.LANCHOR0)
1011:C:/Users/stapi/OneDrive/Desktop/GD32VW553/GD32VW55X_Wifi_BLE_SDK/GD32VW55x_RELEASE_V1.0.2/MSDK/ble/app\app_sec_mgr.c ****     memcpy(app_sec_env.oob_data.conf, p_conf, BLE_GAP_KEY_LEN);
 2918              		.loc 1 1011 1 is_stmt 0
 2919 0010 AE84     		mv	s1,a1
 2920              		.loc 1 1012 5
 2921 0012 4146     		li	a2,16
 2922 0014 AA85     		mv	a1,a0
 2923              	.LVL252:
 2924 0016 13057400 		addi	a0,s0,7
 2925              	.LVL253:
 2926 001a 97000000 		call	memcpy
 2926      E7800000 
 2927              	.LVL254:
1013:C:/Users/stapi/OneDrive/Desktop/GD32VW553/GD32VW55X_Wifi_BLE_SDK/GD32VW55x_RELEASE_V1.0.2/MSDK/ble/app\app_sec_mgr.c ****     memcpy(app_sec_env.oob_data.rand, p_rand, BLE_GAP_KEY_LEN);
 2928              		.loc 1 1013 5 is_stmt 1
 2929 0022 4146     		li	a2,16
 2930 0024 A685     		mv	a1,s1
 2931 0026 13057401 		addi	a0,s0,23
 2932 002a 97000000 		call	memcpy
 2932      E7800000 
 2933              	.LVL255:
1014:C:/Users/stapi/OneDrive/Desktop/GD32VW553/GD32VW55X_Wifi_BLE_SDK/GD32VW55x_RELEASE_V1.0.2/MSDK/ble/app\app_sec_mgr.c **** }
 2934              		.loc 1 1014 1 is_stmt 0
 2935 0032 17030000 		tail	__riscv_restore_2
 2935      67000300 
 2936              		.cfi_restore 9
 2937              		.cfi_restore 8
 2938              		.cfi_restore 1
 2939              		.cfi_def_cfa_offset 0
 2940              		.cfi_endproc
 2941              	.LFE33:
 2943              		.section	.text.app_gen_oob_data,"ax",@progbits
 2944              		.align	1
 2945              		.globl	app_gen_oob_data
 2947              	app_gen_oob_data:
 2948              	.LFB34:
1015:C:/Users/stapi/OneDrive/Desktop/GD32VW553/GD32VW55X_Wifi_BLE_SDK/GD32VW55x_RELEASE_V1.0.2/MSDK/ble/app\app_sec_mgr.c **** 
1016:C:/Users/stapi/OneDrive/Desktop/GD32VW553/GD32VW55X_Wifi_BLE_SDK/GD32VW55x_RELEASE_V1.0.2/MSDK/ble/app\app_sec_mgr.c **** /*!
1017:C:/Users/stapi/OneDrive/Desktop/GD32VW553/GD32VW55X_Wifi_BLE_SDK/GD32VW55x_RELEASE_V1.0.2/MSDK/ble/app\app_sec_mgr.c ****     \brief      Generate OOB data
1018:C:/Users/stapi/OneDrive/Desktop/GD32VW553/GD32VW55X_Wifi_BLE_SDK/GD32VW55x_RELEASE_V1.0.2/MSDK/ble/app\app_sec_mgr.c ****     \param[in]  none
1019:C:/Users/stapi/OneDrive/Desktop/GD32VW553/GD32VW55X_Wifi_BLE_SDK/GD32VW55x_RELEASE_V1.0.2/MSDK/ble/app\app_sec_mgr.c ****     \param[out] none
1020:C:/Users/stapi/OneDrive/Desktop/GD32VW553/GD32VW55X_Wifi_BLE_SDK/GD32VW55x_RELEASE_V1.0.2/MSDK/ble/app\app_sec_mgr.c ****     \retval     none
1021:C:/Users/stapi/OneDrive/Desktop/GD32VW553/GD32VW55X_Wifi_BLE_SDK/GD32VW55x_RELEASE_V1.0.2/MSDK/ble/app\app_sec_mgr.c **** */
1022:C:/Users/stapi/OneDrive/Desktop/GD32VW553/GD32VW55X_Wifi_BLE_SDK/GD32VW55x_RELEASE_V1.0.2/MSDK/ble/app\app_sec_mgr.c **** void app_gen_oob_data(void)
1023:C:/Users/stapi/OneDrive/Desktop/GD32VW553/GD32VW55X_Wifi_BLE_SDK/GD32VW55x_RELEASE_V1.0.2/MSDK/ble/app\app_sec_mgr.c **** {
 2949              		.loc 1 1023 1 is_stmt 1
 2950              		.cfi_startproc
1024:C:/Users/stapi/OneDrive/Desktop/GD32VW553/GD32VW55X_Wifi_BLE_SDK/GD32VW55x_RELEASE_V1.0.2/MSDK/ble/app\app_sec_mgr.c ****     ble_sec_oob_data_gen();
 2951              		.loc 1 1024 5
 2952 0000 17030000 		tail	ble_sec_oob_data_gen
 2952      67000300 
 2953              	.LVL256:
 2954              		.cfi_endproc
 2955              	.LFE34:
 2957              		.section	.text.app_sec_user_key_mgr_get,"ax",@progbits
 2958              		.align	1
 2959              		.globl	app_sec_user_key_mgr_get
 2961              	app_sec_user_key_mgr_get:
 2962              	.LFB35:
1025:C:/Users/stapi/OneDrive/Desktop/GD32VW553/GD32VW55X_Wifi_BLE_SDK/GD32VW55x_RELEASE_V1.0.2/MSDK/ble/app\app_sec_mgr.c **** }
1026:C:/Users/stapi/OneDrive/Desktop/GD32VW553/GD32VW55X_Wifi_BLE_SDK/GD32VW55x_RELEASE_V1.0.2/MSDK/ble/app\app_sec_mgr.c **** 
1027:C:/Users/stapi/OneDrive/Desktop/GD32VW553/GD32VW55X_Wifi_BLE_SDK/GD32VW55x_RELEASE_V1.0.2/MSDK/ble/app\app_sec_mgr.c **** /*!
1028:C:/Users/stapi/OneDrive/Desktop/GD32VW553/GD32VW55X_Wifi_BLE_SDK/GD32VW55x_RELEASE_V1.0.2/MSDK/ble/app\app_sec_mgr.c ****     \brief      Get if security keys are managered by application
1029:C:/Users/stapi/OneDrive/Desktop/GD32VW553/GD32VW55X_Wifi_BLE_SDK/GD32VW55x_RELEASE_V1.0.2/MSDK/ble/app\app_sec_mgr.c ****     \param[in]  none
1030:C:/Users/stapi/OneDrive/Desktop/GD32VW553/GD32VW55X_Wifi_BLE_SDK/GD32VW55x_RELEASE_V1.0.2/MSDK/ble/app\app_sec_mgr.c ****     \param[out] none
1031:C:/Users/stapi/OneDrive/Desktop/GD32VW553/GD32VW55X_Wifi_BLE_SDK/GD32VW55x_RELEASE_V1.0.2/MSDK/ble/app\app_sec_mgr.c ****     \retval     bool: true if security keys are managered by application, otherwise false
1032:C:/Users/stapi/OneDrive/Desktop/GD32VW553/GD32VW55X_Wifi_BLE_SDK/GD32VW55x_RELEASE_V1.0.2/MSDK/ble/app\app_sec_mgr.c **** */
1033:C:/Users/stapi/OneDrive/Desktop/GD32VW553/GD32VW55X_Wifi_BLE_SDK/GD32VW55x_RELEASE_V1.0.2/MSDK/ble/app\app_sec_mgr.c **** bool app_sec_user_key_mgr_get(void)
1034:C:/Users/stapi/OneDrive/Desktop/GD32VW553/GD32VW55X_Wifi_BLE_SDK/GD32VW55x_RELEASE_V1.0.2/MSDK/ble/app\app_sec_mgr.c **** {
 2963              		.loc 1 1034 1
 2964              		.cfi_startproc
1035:C:/Users/stapi/OneDrive/Desktop/GD32VW553/GD32VW55X_Wifi_BLE_SDK/GD32VW55x_RELEASE_V1.0.2/MSDK/ble/app\app_sec_mgr.c ****     return app_sec_mgr_key;
 2965              		.loc 1 1035 5
1036:C:/Users/stapi/OneDrive/Desktop/GD32VW553/GD32VW55X_Wifi_BLE_SDK/GD32VW55x_RELEASE_V1.0.2/MSDK/ble/app\app_sec_mgr.c **** }
 2966              		.loc 1 1036 1 is_stmt 0
 2967 0000 0145     		li	a0,0
 2968 0002 8280     		ret
 2969              		.cfi_endproc
 2970              	.LFE35:
 2972              		.section	.bss.app_sec_env,"aw",@nobits
 2973              		.align	2
 2974              		.set	.LANCHOR0,. + 0
 2977              	app_sec_env:
 2978 0000 00000000 		.zero	39
 2978      00000000 
 2978      00000000 
 2978      00000000 
 2978      00000000 
 2979              		.section	.bss.pairing_cb,"aw",@nobits
 2980              		.align	2
 2981              		.set	.LANCHOR1,. + 0
 2984              	pairing_cb:
 2985 0000 00000000 		.zero	12
 2985      00000000 
 2985      00000000 
 2986              		.text
 2987              	.Letext0:
 2988              		.file 2 "c:\\users\\stapi\\onedrive\\desktop\\gd32vw553\\embeddedbuilder_v1.4.7.26843\\tools\\nucl
 2989              		.file 3 "c:\\users\\stapi\\onedrive\\desktop\\gd32vw553\\embeddedbuilder_v1.4.7.26843\\tools\\nucl
 2990              		.file 4 "..\\..\\..\\..\\blesw\\src\\export/ble_gap.h"
 2991              		.file 5 "..\\..\\..\\..\\blesw\\src\\export/ble_error.h"
 2992              		.file 6 "..\\..\\..\\..\\blesw\\src\\export/ble_sec.h"
 2993              		.file 7 "..\\..\\..\\..\\util\\include/dlist.h"
 2994              		.file 8 "..\\..\\..\\..\\blesw\\src\\export/ble_conn.h"
 2995              		.file 9 "C:/Users/stapi/OneDrive/Desktop/GD32VW553/GD32VW55X_Wifi_BLE_SDK/GD32VW55x_RELEASE_V1.0.2
 2996              		.file 10 "C:/Users/stapi/OneDrive/Desktop/GD32VW553/GD32VW55X_Wifi_BLE_SDK/GD32VW55x_RELEASE_V1.0.
 2997              		.file 11 "..\\..\\..\\..\\util\\include/dbg_print.h"
 2998              		.file 12 "..\\..\\..\\..\\util\\include/debug_print.h"
 2999              		.file 13 "..\\..\\..\\..\\blesw\\src\\export/ble_storage.h"
 3000              		.file 14 "c:\\users\\stapi\\onedrive\\desktop\\gd32vw553\\embeddedbuilder_v1.4.7.26843\\tools\\nuc
 3001              		.file 15 "<built-in>"
 3002              		.file 16 "..\\..\\..\\..\\rtos\\rtos_wrapper/wrapper_os.h"
 3003              		.file 17 "c:\\users\\stapi\\onedrive\\desktop\\gd32vw553\\embeddedbuilder_v1.4.7.26843\\tools\\nuc
 3004              		.file 18 "..\\..\\..\\..\\blesw\\src\\export/ble_adapter.h"
DEFINED SYMBOLS
                            *ABS*:0000000000000000 app_sec_mgr.c
C:\Users\stapi\AppData\Local\Temp\cceaTiQN.s:13     .text.app_sec_mgr_reset:0000000000000000 app_sec_mgr_reset
C:\Users\stapi\AppData\Local\Temp\cceaTiQN.s:17     .text.app_sec_mgr_reset:0000000000000000 .L0 
C:\Users\stapi\AppData\Local\Temp\cceaTiQN.s:18     .text.app_sec_mgr_reset:0000000000000000 .L0 
C:\Users\stapi\AppData\Local\Temp\cceaTiQN.s:19     .text.app_sec_mgr_reset:0000000000000008 .L0 
C:\Users\stapi\AppData\Local\Temp\cceaTiQN.s:20     .text.app_sec_mgr_reset:0000000000000008 .L0 
C:\Users\stapi\AppData\Local\Temp\cceaTiQN.s:21     .text.app_sec_mgr_reset:0000000000000008 .L0 
C:\Users\stapi\AppData\Local\Temp\cceaTiQN.s:23     .text.app_sec_mgr_reset:0000000000000008 .L0 
C:\Users\stapi\AppData\Local\Temp\cceaTiQN.s:31     .text.app_sec_mgr_reset:0000000000000022 .L0 
C:\Users\stapi\AppData\Local\Temp\cceaTiQN.s:32     .text.app_sec_mgr_reset:0000000000000022 .L0 
C:\Users\stapi\AppData\Local\Temp\cceaTiQN.s:35     .text.app_sec_mgr_reset:0000000000000028 .L0 
C:\Users\stapi\AppData\Local\Temp\cceaTiQN.s:36     .text.app_sec_mgr_reset:0000000000000028 .L0 
C:\Users\stapi\AppData\Local\Temp\cceaTiQN.s:37     .text.app_sec_mgr_reset:0000000000000028 .L0 
C:\Users\stapi\AppData\Local\Temp\cceaTiQN.s:41     .text.app_sec_mgr_reset:0000000000000030 .L0 
C:\Users\stapi\AppData\Local\Temp\cceaTiQN.s:826    .text.app_sec_evt_handler:0000000000000000 app_sec_evt_handler
C:\Users\stapi\AppData\Local\Temp\cceaTiQN.s:44     .text.app_sec_mgr_reset:0000000000000038 .L0 
C:\Users\stapi\AppData\Local\Temp\cceaTiQN.s:46     .text.app_sec_mgr_reset:000000000000003c .L0 
C:\Users\stapi\AppData\Local\Temp\cceaTiQN.s:50     .text.app_sec_mgr_reset:0000000000000048 .L0 
C:\Users\stapi\AppData\Local\Temp\cceaTiQN.s:54     .text.app_sec_mgr_reset:0000000000000054 .L0 
C:\Users\stapi\AppData\Local\Temp\cceaTiQN.s:55     .text.app_sec_mgr_reset:000000000000005c .L0 
C:\Users\stapi\AppData\Local\Temp\cceaTiQN.s:56     .text.app_sec_mgr_reset:000000000000005c .L0 
C:\Users\stapi\AppData\Local\Temp\cceaTiQN.s:57     .text.app_sec_mgr_reset:000000000000005c .L0 
C:\Users\stapi\AppData\Local\Temp\cceaTiQN.s:58     .text.app_sec_mgr_reset:000000000000005c .L0 
C:\Users\stapi\AppData\Local\Temp\cceaTiQN.s:65     .text.app_sec_mgr_init:0000000000000000 app_sec_mgr_init
C:\Users\stapi\AppData\Local\Temp\cceaTiQN.s:68     .text.app_sec_mgr_init:0000000000000000 .L0 
C:\Users\stapi\AppData\Local\Temp\cceaTiQN.s:69     .text.app_sec_mgr_init:0000000000000000 .L0 
C:\Users\stapi\AppData\Local\Temp\cceaTiQN.s:70     .text.app_sec_mgr_init:0000000000000000 .L0 
C:\Users\stapi\AppData\Local\Temp\cceaTiQN.s:72     .text.app_sec_mgr_init:0000000000000008 .L0 
C:\Users\stapi\AppData\Local\Temp\cceaTiQN.s:79     .text.app_sec_mgr_deinit:0000000000000000 app_sec_mgr_deinit
C:\Users\stapi\AppData\Local\Temp\cceaTiQN.s:82     .text.app_sec_mgr_deinit:0000000000000000 .L0 
C:\Users\stapi\AppData\Local\Temp\cceaTiQN.s:83     .text.app_sec_mgr_deinit:0000000000000000 .L0 
C:\Users\stapi\AppData\Local\Temp\cceaTiQN.s:84     .text.app_sec_mgr_deinit:0000000000000000 .L0 
C:\Users\stapi\AppData\Local\Temp\cceaTiQN.s:88     .text.app_sec_mgr_deinit:0000000000000010 .L0 
C:\Users\stapi\AppData\Local\Temp\cceaTiQN.s:95     .text.app_sec_set_authen:0000000000000000 app_sec_set_authen
C:\Users\stapi\AppData\Local\Temp\cceaTiQN.s:98     .text.app_sec_set_authen:0000000000000000 .L0 
C:\Users\stapi\AppData\Local\Temp\cceaTiQN.s:100    .text.app_sec_set_authen:0000000000000000 .L0 
C:\Users\stapi\AppData\Local\Temp\cceaTiQN.s:101    .text.app_sec_set_authen:0000000000000000 .L0 
C:\Users\stapi\AppData\Local\Temp\cceaTiQN.s:102    .text.app_sec_set_authen:0000000000000000 .L0 
C:\Users\stapi\AppData\Local\Temp\cceaTiQN.s:106    .text.app_sec_set_authen:000000000000000c .L0 
C:\Users\stapi\AppData\Local\Temp\cceaTiQN.s:107    .text.app_sec_set_authen:000000000000000c .L0 
C:\Users\stapi\AppData\Local\Temp\cceaTiQN.s:109    .text.app_sec_set_authen:0000000000000010 .L0 
C:\Users\stapi\AppData\Local\Temp\cceaTiQN.s:110    .text.app_sec_set_authen:0000000000000010 .L0 
C:\Users\stapi\AppData\Local\Temp\cceaTiQN.s:112    .text.app_sec_set_authen:0000000000000014 .L0 
C:\Users\stapi\AppData\Local\Temp\cceaTiQN.s:113    .text.app_sec_set_authen:0000000000000014 .L0 
C:\Users\stapi\AppData\Local\Temp\cceaTiQN.s:115    .text.app_sec_set_authen:0000000000000018 .L0 
C:\Users\stapi\AppData\Local\Temp\cceaTiQN.s:116    .text.app_sec_set_authen:0000000000000018 .L0 
C:\Users\stapi\AppData\Local\Temp\cceaTiQN.s:118    .text.app_sec_set_authen:000000000000001c .L0 
C:\Users\stapi\AppData\Local\Temp\cceaTiQN.s:119    .text.app_sec_set_authen:000000000000001c .L0 
C:\Users\stapi\AppData\Local\Temp\cceaTiQN.s:121    .text.app_sec_set_authen:0000000000000020 .L0 
C:\Users\stapi\AppData\Local\Temp\cceaTiQN.s:122    .text.app_sec_set_authen:0000000000000020 .L0 
C:\Users\stapi\AppData\Local\Temp\cceaTiQN.s:124    .text.app_sec_set_authen:0000000000000024 .L0 
C:\Users\stapi\AppData\Local\Temp\cceaTiQN.s:125    .text.app_sec_set_authen:0000000000000026 .L0 
C:\Users\stapi\AppData\Local\Temp\cceaTiQN.s:132    .text.app_sec_need_authen_bond:0000000000000000 app_sec_need_authen_bond
C:\Users\stapi\AppData\Local\Temp\cceaTiQN.s:135    .text.app_sec_need_authen_bond:0000000000000000 .L0 
C:\Users\stapi\AppData\Local\Temp\cceaTiQN.s:136    .text.app_sec_need_authen_bond:0000000000000000 .L0 
C:\Users\stapi\AppData\Local\Temp\cceaTiQN.s:137    .text.app_sec_need_authen_bond:0000000000000000 .L0 
C:\Users\stapi\AppData\Local\Temp\cceaTiQN.s:138    .text.app_sec_need_authen_bond:0000000000000000 .L0 
C:\Users\stapi\AppData\Local\Temp\cceaTiQN.s:141    .text.app_sec_need_authen_bond:000000000000000a .L0 
C:\Users\stapi\AppData\Local\Temp\cceaTiQN.s:148    .text.app_sec_is_pairing_device:0000000000000000 app_sec_is_pairing_device
C:\Users\stapi\AppData\Local\Temp\cceaTiQN.s:151    .text.app_sec_is_pairing_device:0000000000000000 .L0 
C:\Users\stapi\AppData\Local\Temp\cceaTiQN.s:152    .text.app_sec_is_pairing_device:0000000000000000 .L0 
C:\Users\stapi\AppData\Local\Temp\cceaTiQN.s:153    .text.app_sec_is_pairing_device:0000000000000008 .L0 
C:\Users\stapi\AppData\Local\Temp\cceaTiQN.s:154    .text.app_sec_is_pairing_device:0000000000000008 .L0 
C:\Users\stapi\AppData\Local\Temp\cceaTiQN.s:156    .text.app_sec_is_pairing_device:0000000000000008 .L0 
C:\Users\stapi\AppData\Local\Temp\cceaTiQN.s:157    .text.app_sec_is_pairing_device:0000000000000008 .L0 
C:\Users\stapi\AppData\Local\Temp\cceaTiQN.s:158    .text.app_sec_is_pairing_device:000000000000000a .L0 
C:\Users\stapi\AppData\Local\Temp\cceaTiQN.s:160    .text.app_sec_is_pairing_device:000000000000000a .L0 
C:\Users\stapi\AppData\Local\Temp\cceaTiQN.s:162    .text.app_sec_is_pairing_device:000000000000000c .L0 
C:\Users\stapi\AppData\Local\Temp\cceaTiQN.s:165    .text.app_sec_is_pairing_device:0000000000000014 .L0 
C:\Users\stapi\AppData\Local\Temp\cceaTiQN.s:167    .text.app_sec_is_pairing_device:0000000000000016 .L0 
C:\Users\stapi\AppData\Local\Temp\cceaTiQN.s:169    .text.app_sec_is_pairing_device:0000000000000018 .L0 
C:\Users\stapi\AppData\Local\Temp\cceaTiQN.s:172    .text.app_sec_is_pairing_device:000000000000001e .L0 
C:\Users\stapi\AppData\Local\Temp\cceaTiQN.s:178    .text.app_sec_is_pairing_device:000000000000002c .L0 
C:\Users\stapi\AppData\Local\Temp\cceaTiQN.s:181    .text.app_sec_is_pairing_device:0000000000000030 .L0 
C:\Users\stapi\AppData\Local\Temp\cceaTiQN.s:182    .text.app_sec_is_pairing_device:0000000000000032 .L0 
C:\Users\stapi\AppData\Local\Temp\cceaTiQN.s:183    .text.app_sec_is_pairing_device:0000000000000032 .L0 
C:\Users\stapi\AppData\Local\Temp\cceaTiQN.s:185    .text.app_sec_is_pairing_device:000000000000003a .L0 
C:\Users\stapi\AppData\Local\Temp\cceaTiQN.s:186    .text.app_sec_is_pairing_device:000000000000003a .L0 
C:\Users\stapi\AppData\Local\Temp\cceaTiQN.s:188    .text.app_sec_is_pairing_device:000000000000003a .L0 
C:\Users\stapi\AppData\Local\Temp\cceaTiQN.s:190    .text.app_sec_is_pairing_device:000000000000003a .L0 
C:\Users\stapi\AppData\Local\Temp\cceaTiQN.s:192    .text.app_sec_is_pairing_device:000000000000003e .L0 
C:\Users\stapi\AppData\Local\Temp\cceaTiQN.s:199    .text.app_sec_cancel_bonding:0000000000000000 app_sec_cancel_bonding
C:\Users\stapi\AppData\Local\Temp\cceaTiQN.s:202    .text.app_sec_cancel_bonding:0000000000000000 .L0 
C:\Users\stapi\AppData\Local\Temp\cceaTiQN.s:203    .text.app_sec_cancel_bonding:0000000000000000 .L0 
C:\Users\stapi\AppData\Local\Temp\cceaTiQN.s:204    .text.app_sec_cancel_bonding:0000000000000008 .L0 
C:\Users\stapi\AppData\Local\Temp\cceaTiQN.s:205    .text.app_sec_cancel_bonding:0000000000000008 .L0 
C:\Users\stapi\AppData\Local\Temp\cceaTiQN.s:206    .text.app_sec_cancel_bonding:0000000000000008 .L0 
C:\Users\stapi\AppData\Local\Temp\cceaTiQN.s:207    .text.app_sec_cancel_bonding:0000000000000008 .L0 
C:\Users\stapi\AppData\Local\Temp\cceaTiQN.s:209    .text.app_sec_cancel_bonding:0000000000000008 .L0 
C:\Users\stapi\AppData\Local\Temp\cceaTiQN.s:210    .text.app_sec_cancel_bonding:0000000000000008 .L0 
C:\Users\stapi\AppData\Local\Temp\cceaTiQN.s:211    .text.app_sec_cancel_bonding:0000000000000008 .L0 
C:\Users\stapi\AppData\Local\Temp\cceaTiQN.s:213    .text.app_sec_cancel_bonding:000000000000000c .L0 
C:\Users\stapi\AppData\Local\Temp\cceaTiQN.s:219    .text.app_sec_cancel_bonding:000000000000001c .L0 
C:\Users\stapi\AppData\Local\Temp\cceaTiQN.s:220    .text.app_sec_cancel_bonding:000000000000001c .L0 
C:\Users\stapi\AppData\Local\Temp\cceaTiQN.s:225    .text.app_sec_cancel_bonding:0000000000000028 .L0 
C:\Users\stapi\AppData\Local\Temp\cceaTiQN.s:226    .text.app_sec_cancel_bonding:0000000000000028 .L0 
C:\Users\stapi\AppData\Local\Temp\cceaTiQN.s:228    .text.app_sec_cancel_bonding:000000000000002a .L0 
C:\Users\stapi\AppData\Local\Temp\cceaTiQN.s:232    .text.app_sec_cancel_bonding:0000000000000030 .L0 
C:\Users\stapi\AppData\Local\Temp\cceaTiQN.s:236    .text.app_sec_cancel_bonding:0000000000000038 .L0 
C:\Users\stapi\AppData\Local\Temp\cceaTiQN.s:240    .text.app_sec_cancel_bonding:0000000000000044 .L0 
C:\Users\stapi\AppData\Local\Temp\cceaTiQN.s:241    .text.app_sec_cancel_bonding:0000000000000044 .L0 
C:\Users\stapi\AppData\Local\Temp\cceaTiQN.s:244    .text.app_sec_cancel_bonding:0000000000000046 .L0 
C:\Users\stapi\AppData\Local\Temp\cceaTiQN.s:245    .text.app_sec_cancel_bonding:000000000000004e .L0 
C:\Users\stapi\AppData\Local\Temp\cceaTiQN.s:246    .text.app_sec_cancel_bonding:000000000000004e .L0 
C:\Users\stapi\AppData\Local\Temp\cceaTiQN.s:247    .text.app_sec_cancel_bonding:000000000000004e .L0 
C:\Users\stapi\AppData\Local\Temp\cceaTiQN.s:248    .text.app_sec_cancel_bonding:000000000000004e .L0 
C:\Users\stapi\AppData\Local\Temp\cceaTiQN.s:249    .text.app_sec_cancel_bonding:000000000000004e .L0 
C:\Users\stapi\AppData\Local\Temp\cceaTiQN.s:256    .text.app_sec_create_bond:0000000000000000 app_sec_create_bond
C:\Users\stapi\AppData\Local\Temp\cceaTiQN.s:259    .text.app_sec_create_bond:0000000000000000 .L0 
C:\Users\stapi\AppData\Local\Temp\cceaTiQN.s:260    .text.app_sec_create_bond:0000000000000000 .L0 
C:\Users\stapi\AppData\Local\Temp\cceaTiQN.s:261    .text.app_sec_create_bond:0000000000000008 .L0 
C:\Users\stapi\AppData\Local\Temp\cceaTiQN.s:262    .text.app_sec_create_bond:0000000000000008 .L0 
C:\Users\stapi\AppData\Local\Temp\cceaTiQN.s:263    .text.app_sec_create_bond:0000000000000008 .L0 
C:\Users\stapi\AppData\Local\Temp\cceaTiQN.s:265    .text.app_sec_create_bond:0000000000000008 .L0 
C:\Users\stapi\AppData\Local\Temp\cceaTiQN.s:266    .text.app_sec_create_bond:0000000000000008 .L0 
C:\Users\stapi\AppData\Local\Temp\cceaTiQN.s:267    .text.app_sec_create_bond:000000000000000a .L0 
C:\Users\stapi\AppData\Local\Temp\cceaTiQN.s:269    .text.app_sec_create_bond:000000000000000a .L0 
C:\Users\stapi\AppData\Local\Temp\cceaTiQN.s:272    .text.app_sec_create_bond:000000000000000e .L0 
C:\Users\stapi\AppData\Local\Temp\cceaTiQN.s:275    .text.app_sec_create_bond:0000000000000016 .L0 
C:\Users\stapi\AppData\Local\Temp\cceaTiQN.s:276    .text.app_sec_create_bond:0000000000000016 .L0 
C:\Users\stapi\AppData\Local\Temp\cceaTiQN.s:280    .text.app_sec_create_bond:0000000000000018 .L0 
C:\Users\stapi\AppData\Local\Temp\cceaTiQN.s:283    .text.app_sec_create_bond:000000000000001a .L0 
C:\Users\stapi\AppData\Local\Temp\cceaTiQN.s:284    .text.app_sec_create_bond:000000000000001c .L0 
C:\Users\stapi\AppData\Local\Temp\cceaTiQN.s:285    .text.app_sec_create_bond:000000000000001c .L0 
C:\Users\stapi\AppData\Local\Temp\cceaTiQN.s:287    .text.app_sec_create_bond:0000000000000024 .L0 
C:\Users\stapi\AppData\Local\Temp\cceaTiQN.s:288    .text.app_sec_create_bond:0000000000000024 .L0 
C:\Users\stapi\AppData\Local\Temp\cceaTiQN.s:289    .text.app_sec_create_bond:0000000000000024 .L0 
C:\Users\stapi\AppData\Local\Temp\cceaTiQN.s:292    .text.app_sec_create_bond:0000000000000024 .L0 
C:\Users\stapi\AppData\Local\Temp\cceaTiQN.s:294    .text.app_sec_create_bond:0000000000000024 .L0 
C:\Users\stapi\AppData\Local\Temp\cceaTiQN.s:295    .text.app_sec_create_bond:0000000000000024 .L0 
C:\Users\stapi\AppData\Local\Temp\cceaTiQN.s:298    .text.app_sec_create_bond:000000000000002c .L0 
C:\Users\stapi\AppData\Local\Temp\cceaTiQN.s:301    .text.app_sec_create_bond:0000000000000030 .L0 
C:\Users\stapi\AppData\Local\Temp\cceaTiQN.s:304    .text.app_sec_create_bond:0000000000000036 .L0 
C:\Users\stapi\AppData\Local\Temp\cceaTiQN.s:305    .text.app_sec_create_bond:0000000000000036 .L0 
C:\Users\stapi\AppData\Local\Temp\cceaTiQN.s:313    .text.app_sec_create_bond:0000000000000046 .L0 
C:\Users\stapi\AppData\Local\Temp\cceaTiQN.s:315    .text.app_sec_create_bond:0000000000000048 .L0 
C:\Users\stapi\AppData\Local\Temp\cceaTiQN.s:316    .text.app_sec_create_bond:0000000000000048 .L0 
C:\Users\stapi\AppData\Local\Temp\cceaTiQN.s:322    .text.app_sec_create_bond:0000000000000058 .L0 
C:\Users\stapi\AppData\Local\Temp\cceaTiQN.s:323    .text.app_sec_create_bond:0000000000000058 .L0 
C:\Users\stapi\AppData\Local\Temp\cceaTiQN.s:326    .text.app_sec_create_bond:000000000000005e .L0 
C:\Users\stapi\AppData\Local\Temp\cceaTiQN.s:327    .text.app_sec_create_bond:000000000000005e .L0 
C:\Users\stapi\AppData\Local\Temp\cceaTiQN.s:329    .text.app_sec_create_bond:0000000000000060 .L0 
C:\Users\stapi\AppData\Local\Temp\cceaTiQN.s:330    .text.app_sec_create_bond:0000000000000060 .L0 
C:\Users\stapi\AppData\Local\Temp\cceaTiQN.s:332    .text.app_sec_create_bond:0000000000000064 .L0 
C:\Users\stapi\AppData\Local\Temp\cceaTiQN.s:343    .text.app_sec_remove_bond:0000000000000000 app_sec_remove_bond
C:\Users\stapi\AppData\Local\Temp\cceaTiQN.s:346    .text.app_sec_remove_bond:0000000000000000 .L0 
C:\Users\stapi\AppData\Local\Temp\cceaTiQN.s:347    .text.app_sec_remove_bond:0000000000000000 .L0 
C:\Users\stapi\AppData\Local\Temp\cceaTiQN.s:348    .text.app_sec_remove_bond:0000000000000008 .L0 
C:\Users\stapi\AppData\Local\Temp\cceaTiQN.s:349    .text.app_sec_remove_bond:0000000000000008 .L0 
C:\Users\stapi\AppData\Local\Temp\cceaTiQN.s:350    .text.app_sec_remove_bond:0000000000000008 .L0 
C:\Users\stapi\AppData\Local\Temp\cceaTiQN.s:351    .text.app_sec_remove_bond:0000000000000008 .L0 
C:\Users\stapi\AppData\Local\Temp\cceaTiQN.s:353    .text.app_sec_remove_bond:0000000000000008 .L0 
C:\Users\stapi\AppData\Local\Temp\cceaTiQN.s:354    .text.app_sec_remove_bond:0000000000000008 .L0 
C:\Users\stapi\AppData\Local\Temp\cceaTiQN.s:355    .text.app_sec_remove_bond:000000000000000a .L0 
C:\Users\stapi\AppData\Local\Temp\cceaTiQN.s:357    .text.app_sec_remove_bond:000000000000000a .L0 
C:\Users\stapi\AppData\Local\Temp\cceaTiQN.s:360    .text.app_sec_remove_bond:000000000000000e .L0 
C:\Users\stapi\AppData\Local\Temp\cceaTiQN.s:363    .text.app_sec_remove_bond:0000000000000016 .L0 
C:\Users\stapi\AppData\Local\Temp\cceaTiQN.s:364    .text.app_sec_remove_bond:0000000000000016 .L0 
C:\Users\stapi\AppData\Local\Temp\cceaTiQN.s:366    .text.app_sec_remove_bond:0000000000000018 .L0 
C:\Users\stapi\AppData\Local\Temp\cceaTiQN.s:368    .text.app_sec_remove_bond:000000000000001a .L0 
C:\Users\stapi\AppData\Local\Temp\cceaTiQN.s:371    .text.app_sec_remove_bond:0000000000000020 .L0 
C:\Users\stapi\AppData\Local\Temp\cceaTiQN.s:372    .text.app_sec_remove_bond:0000000000000020 .L0 
C:\Users\stapi\AppData\Local\Temp\cceaTiQN.s:374    .text.app_sec_remove_bond:0000000000000022 .L0 
C:\Users\stapi\AppData\Local\Temp\cceaTiQN.s:375    .text.app_sec_remove_bond:0000000000000022 .L0 
C:\Users\stapi\AppData\Local\Temp\cceaTiQN.s:379    .text.app_sec_remove_bond:000000000000002a .L0 
C:\Users\stapi\AppData\Local\Temp\cceaTiQN.s:380    .text.app_sec_remove_bond:000000000000002a .L0 
C:\Users\stapi\AppData\Local\Temp\cceaTiQN.s:382    .text.app_sec_remove_bond:000000000000002e .L0 
C:\Users\stapi\AppData\Local\Temp\cceaTiQN.s:389    .text.app_sec_remove_bond:000000000000003c .L0 
C:\Users\stapi\AppData\Local\Temp\cceaTiQN.s:391    .text.app_sec_remove_bond:0000000000000040 .L0 
C:\Users\stapi\AppData\Local\Temp\cceaTiQN.s:392    .text.app_sec_remove_bond:0000000000000040 .L0 
C:\Users\stapi\AppData\Local\Temp\cceaTiQN.s:394    .text.app_sec_remove_bond:0000000000000048 .L0 
C:\Users\stapi\AppData\Local\Temp\cceaTiQN.s:395    .text.app_sec_remove_bond:0000000000000048 .L0 
C:\Users\stapi\AppData\Local\Temp\cceaTiQN.s:396    .text.app_sec_remove_bond:0000000000000048 .L0 
C:\Users\stapi\AppData\Local\Temp\cceaTiQN.s:397    .text.app_sec_remove_bond:0000000000000048 .L0 
C:\Users\stapi\AppData\Local\Temp\cceaTiQN.s:400    .text.app_sec_remove_bond:0000000000000048 .L0 
C:\Users\stapi\AppData\Local\Temp\cceaTiQN.s:402    .text.app_sec_remove_bond:0000000000000048 .L0 
C:\Users\stapi\AppData\Local\Temp\cceaTiQN.s:407    .text.app_sec_remove_bond:0000000000000054 .L0 
C:\Users\stapi\AppData\Local\Temp\cceaTiQN.s:413    .text.app_sec_remove_bond:0000000000000062 .L0 
C:\Users\stapi\AppData\Local\Temp\cceaTiQN.s:414    .text.app_sec_remove_bond:0000000000000062 .L0 
C:\Users\stapi\AppData\Local\Temp\cceaTiQN.s:419    .text.app_sec_remove_bond:0000000000000070 .L0 
C:\Users\stapi\AppData\Local\Temp\cceaTiQN.s:424    .text.app_sec_remove_bond:0000000000000082 .L0 
C:\Users\stapi\AppData\Local\Temp\cceaTiQN.s:435    .text.app_sec_send_security_req:0000000000000000 app_sec_send_security_req
C:\Users\stapi\AppData\Local\Temp\cceaTiQN.s:438    .text.app_sec_send_security_req:0000000000000000 .L0 
C:\Users\stapi\AppData\Local\Temp\cceaTiQN.s:440    .text.app_sec_send_security_req:0000000000000000 .L0 
C:\Users\stapi\AppData\Local\Temp\cceaTiQN.s:441    .text.app_sec_send_security_req:0000000000000008 .L0 
C:\Users\stapi\AppData\Local\Temp\cceaTiQN.s:442    .text.app_sec_send_security_req:0000000000000008 .L0 
C:\Users\stapi\AppData\Local\Temp\cceaTiQN.s:445    .text.app_sec_send_security_req:0000000000000008 .L0 
C:\Users\stapi\AppData\Local\Temp\cceaTiQN.s:446    .text.app_sec_send_security_req:0000000000000008 .L0 
C:\Users\stapi\AppData\Local\Temp\cceaTiQN.s:447    .text.app_sec_send_security_req:0000000000000008 .L0 
C:\Users\stapi\AppData\Local\Temp\cceaTiQN.s:450    .text.app_sec_send_security_req:0000000000000010 .L0 
C:\Users\stapi\AppData\Local\Temp\cceaTiQN.s:453    .text.app_sec_send_security_req:0000000000000014 .L0 
C:\Users\stapi\AppData\Local\Temp\cceaTiQN.s:454    .text.app_sec_send_security_req:0000000000000014 .L0 
C:\Users\stapi\AppData\Local\Temp\cceaTiQN.s:458    .text.app_sec_send_security_req:000000000000001e .L0 
C:\Users\stapi\AppData\Local\Temp\cceaTiQN.s:459    .text.app_sec_send_security_req:000000000000001e .L0 
C:\Users\stapi\AppData\Local\Temp\cceaTiQN.s:463    .text.app_sec_send_security_req:0000000000000022 .L0 
C:\Users\stapi\AppData\Local\Temp\cceaTiQN.s:464    .text.app_sec_send_security_req:0000000000000022 .L0 
C:\Users\stapi\AppData\Local\Temp\cceaTiQN.s:467    .text.app_sec_send_security_req:0000000000000028 .L0 
C:\Users\stapi\AppData\Local\Temp\cceaTiQN.s:468    .text.app_sec_send_security_req:0000000000000028 .L0 
C:\Users\stapi\AppData\Local\Temp\cceaTiQN.s:472    .text.app_sec_send_security_req:000000000000002c .L0 
C:\Users\stapi\AppData\Local\Temp\cceaTiQN.s:473    .text.app_sec_send_security_req:000000000000002c .L0 
C:\Users\stapi\AppData\Local\Temp\cceaTiQN.s:476    .text.app_sec_send_security_req:0000000000000034 .L0 
C:\Users\stapi\AppData\Local\Temp\cceaTiQN.s:478    .text.app_sec_send_security_req:0000000000000036 .L0 
C:\Users\stapi\AppData\Local\Temp\cceaTiQN.s:479    .text.app_sec_send_security_req:0000000000000036 .L0 
C:\Users\stapi\AppData\Local\Temp\cceaTiQN.s:484    .text.app_sec_send_security_req:0000000000000044 .L0 
C:\Users\stapi\AppData\Local\Temp\cceaTiQN.s:490    .text.app_sec_send_security_req:0000000000000054 .L0 
C:\Users\stapi\AppData\Local\Temp\cceaTiQN.s:491    .text.app_sec_send_security_req:0000000000000054 .L0 
C:\Users\stapi\AppData\Local\Temp\cceaTiQN.s:492    .text.app_sec_send_security_req:000000000000005c .L0 
C:\Users\stapi\AppData\Local\Temp\cceaTiQN.s:493    .text.app_sec_send_security_req:000000000000005c .L0 
C:\Users\stapi\AppData\Local\Temp\cceaTiQN.s:494    .text.app_sec_send_security_req:000000000000005c .L0 
C:\Users\stapi\AppData\Local\Temp\cceaTiQN.s:505    .text.app_sec_send_bond_req:0000000000000000 app_sec_send_bond_req
C:\Users\stapi\AppData\Local\Temp\cceaTiQN.s:508    .text.app_sec_send_bond_req:0000000000000000 .L0 
C:\Users\stapi\AppData\Local\Temp\cceaTiQN.s:510    .text.app_sec_send_bond_req:0000000000000000 .L0 
C:\Users\stapi\AppData\Local\Temp\cceaTiQN.s:511    .text.app_sec_send_bond_req:0000000000000008 .L0 
C:\Users\stapi\AppData\Local\Temp\cceaTiQN.s:512    .text.app_sec_send_bond_req:0000000000000008 .L0 
C:\Users\stapi\AppData\Local\Temp\cceaTiQN.s:514    .text.app_sec_send_bond_req:0000000000000008 .L0 
C:\Users\stapi\AppData\Local\Temp\cceaTiQN.s:516    .text.app_sec_send_bond_req:0000000000000008 .L0 
C:\Users\stapi\AppData\Local\Temp\cceaTiQN.s:517    .text.app_sec_send_bond_req:0000000000000008 .L0 
C:\Users\stapi\AppData\Local\Temp\cceaTiQN.s:518    .text.app_sec_send_bond_req:0000000000000008 .L0 
C:\Users\stapi\AppData\Local\Temp\cceaTiQN.s:520    .text.app_sec_send_bond_req:000000000000000c .L0 
C:\Users\stapi\AppData\Local\Temp\cceaTiQN.s:522    .text.app_sec_send_bond_req:0000000000000010 .L0 
C:\Users\stapi\AppData\Local\Temp\cceaTiQN.s:523    .text.app_sec_send_bond_req:0000000000000012 .L0 
C:\Users\stapi\AppData\Local\Temp\cceaTiQN.s:525    .text.app_sec_send_bond_req:0000000000000012 .L0 
C:\Users\stapi\AppData\Local\Temp\cceaTiQN.s:527    .text.app_sec_send_bond_req:0000000000000016 .L0 
C:\Users\stapi\AppData\Local\Temp\cceaTiQN.s:529    .text.app_sec_send_bond_req:000000000000001a .L0 
C:\Users\stapi\AppData\Local\Temp\cceaTiQN.s:531    .text.app_sec_send_bond_req:000000000000001c .L0 
C:\Users\stapi\AppData\Local\Temp\cceaTiQN.s:532    .text.app_sec_send_bond_req:000000000000001c .L0 
C:\Users\stapi\AppData\Local\Temp\cceaTiQN.s:536    .text.app_sec_send_bond_req:0000000000000022 .L0 
C:\Users\stapi\AppData\Local\Temp\cceaTiQN.s:537    .text.app_sec_send_bond_req:0000000000000022 .L0 
C:\Users\stapi\AppData\Local\Temp\cceaTiQN.s:540    .text.app_sec_send_bond_req:0000000000000028 .L0 
C:\Users\stapi\AppData\Local\Temp\cceaTiQN.s:541    .text.app_sec_send_bond_req:0000000000000028 .L0 
C:\Users\stapi\AppData\Local\Temp\cceaTiQN.s:546    .text.app_sec_send_bond_req:0000000000000034 .L0 
C:\Users\stapi\AppData\Local\Temp\cceaTiQN.s:547    .text.app_sec_send_bond_req:0000000000000034 .L0 
C:\Users\stapi\AppData\Local\Temp\cceaTiQN.s:549    .text.app_sec_send_bond_req:0000000000000038 .L0 
C:\Users\stapi\AppData\Local\Temp\cceaTiQN.s:551    .text.app_sec_send_bond_req:000000000000003a .L0 
C:\Users\stapi\AppData\Local\Temp\cceaTiQN.s:552    .text.app_sec_send_bond_req:000000000000003a .L0 
C:\Users\stapi\AppData\Local\Temp\cceaTiQN.s:557    .text.app_sec_send_bond_req:0000000000000046 .L0 
C:\Users\stapi\AppData\Local\Temp\cceaTiQN.s:558    .text.app_sec_send_bond_req:0000000000000046 .L0 
C:\Users\stapi\AppData\Local\Temp\cceaTiQN.s:561    .text.app_sec_send_bond_req:000000000000004e .L0 
C:\Users\stapi\AppData\Local\Temp\cceaTiQN.s:562    .text.app_sec_send_bond_req:000000000000004e .L0 
C:\Users\stapi\AppData\Local\Temp\cceaTiQN.s:565    .text.app_sec_send_bond_req:0000000000000056 .L0 
C:\Users\stapi\AppData\Local\Temp\cceaTiQN.s:566    .text.app_sec_send_bond_req:0000000000000056 .L0 
C:\Users\stapi\AppData\Local\Temp\cceaTiQN.s:569    .text.app_sec_send_bond_req:000000000000005e .L0 
C:\Users\stapi\AppData\Local\Temp\cceaTiQN.s:570    .text.app_sec_send_bond_req:000000000000005e .L0 
C:\Users\stapi\AppData\Local\Temp\cceaTiQN.s:572    .text.app_sec_send_bond_req:0000000000000062 .L0 
C:\Users\stapi\AppData\Local\Temp\cceaTiQN.s:574    .text.app_sec_send_bond_req:0000000000000064 .L0 
C:\Users\stapi\AppData\Local\Temp\cceaTiQN.s:575    .text.app_sec_send_bond_req:0000000000000064 .L0 
C:\Users\stapi\AppData\Local\Temp\cceaTiQN.s:576    .text.app_sec_send_bond_req:0000000000000064 .L0 
C:\Users\stapi\AppData\Local\Temp\cceaTiQN.s:579    .text.app_sec_send_bond_req:0000000000000068 .L0 
C:\Users\stapi\AppData\Local\Temp\cceaTiQN.s:581    .text.app_sec_send_bond_req:000000000000006c .L0 
C:\Users\stapi\AppData\Local\Temp\cceaTiQN.s:583    .text.app_sec_send_bond_req:0000000000000070 .L0 
C:\Users\stapi\AppData\Local\Temp\cceaTiQN.s:584    .text.app_sec_send_bond_req:0000000000000070 .L0 
C:\Users\stapi\AppData\Local\Temp\cceaTiQN.s:586    .text.app_sec_send_bond_req:0000000000000072 .L0 
C:\Users\stapi\AppData\Local\Temp\cceaTiQN.s:588    .text.app_sec_send_bond_req:0000000000000074 .L0 
C:\Users\stapi\AppData\Local\Temp\cceaTiQN.s:592    .text.app_sec_send_bond_req:0000000000000076 .L0 
C:\Users\stapi\AppData\Local\Temp\cceaTiQN.s:593    .text.app_sec_send_bond_req:0000000000000076 .L0 
C:\Users\stapi\AppData\Local\Temp\cceaTiQN.s:597    .text.app_sec_send_bond_req:0000000000000080 .L0 
C:\Users\stapi\AppData\Local\Temp\cceaTiQN.s:599    .text.app_sec_send_bond_req:0000000000000082 .L0 
C:\Users\stapi\AppData\Local\Temp\cceaTiQN.s:600    .text.app_sec_send_bond_req:0000000000000082 .L0 
C:\Users\stapi\AppData\Local\Temp\cceaTiQN.s:605    .text.app_sec_send_bond_req:0000000000000090 .L0 
C:\Users\stapi\AppData\Local\Temp\cceaTiQN.s:611    .text.app_sec_send_bond_req:00000000000000a0 .L0 
C:\Users\stapi\AppData\Local\Temp\cceaTiQN.s:612    .text.app_sec_send_bond_req:00000000000000a0 .L0 
C:\Users\stapi\AppData\Local\Temp\cceaTiQN.s:613    .text.app_sec_send_bond_req:00000000000000a2 .L0 
C:\Users\stapi\AppData\Local\Temp\cceaTiQN.s:615    .text.app_sec_send_bond_req:00000000000000aa .L0 
C:\Users\stapi\AppData\Local\Temp\cceaTiQN.s:616    .text.app_sec_send_bond_req:00000000000000aa .L0 
C:\Users\stapi\AppData\Local\Temp\cceaTiQN.s:617    .text.app_sec_send_bond_req:00000000000000aa .L0 
C:\Users\stapi\AppData\Local\Temp\cceaTiQN.s:628    .text.app_security_req_info_hdlr:0000000000000000 app_security_req_info_hdlr
C:\Users\stapi\AppData\Local\Temp\cceaTiQN.s:631    .text.app_security_req_info_hdlr:0000000000000000 .L0 
C:\Users\stapi\AppData\Local\Temp\cceaTiQN.s:633    .text.app_security_req_info_hdlr:0000000000000000 .L0 
C:\Users\stapi\AppData\Local\Temp\cceaTiQN.s:634    .text.app_security_req_info_hdlr:0000000000000008 .L0 
C:\Users\stapi\AppData\Local\Temp\cceaTiQN.s:635    .text.app_security_req_info_hdlr:0000000000000008 .L0 
C:\Users\stapi\AppData\Local\Temp\cceaTiQN.s:636    .text.app_security_req_info_hdlr:0000000000000008 .L0 
C:\Users\stapi\AppData\Local\Temp\cceaTiQN.s:638    .text.app_security_req_info_hdlr:0000000000000008 .L0 
C:\Users\stapi\AppData\Local\Temp\cceaTiQN.s:639    .text.app_security_req_info_hdlr:0000000000000008 .L0 
C:\Users\stapi\AppData\Local\Temp\cceaTiQN.s:641    .text.app_security_req_info_hdlr:000000000000000a .L0 
C:\Users\stapi\AppData\Local\Temp\cceaTiQN.s:646    .text.app_security_req_info_hdlr:0000000000000016 .L0 
C:\Users\stapi\AppData\Local\Temp\cceaTiQN.s:647    .text.app_security_req_info_hdlr:0000000000000016 .L0 
C:\Users\stapi\AppData\Local\Temp\cceaTiQN.s:652    .text.app_security_req_info_hdlr:0000000000000018 .L0 
C:\Users\stapi\AppData\Local\Temp\cceaTiQN.s:653    .text.app_security_req_info_hdlr:0000000000000018 .L0 
C:\Users\stapi\AppData\Local\Temp\cceaTiQN.s:658    .text.app_security_req_info_hdlr:0000000000000026 .L0 
C:\Users\stapi\AppData\Local\Temp\cceaTiQN.s:667    .text.app_security_req_info_hdlr:0000000000000036 .L0 
C:\Users\stapi\AppData\Local\Temp\cceaTiQN.s:668    .text.app_security_req_info_hdlr:000000000000003e .L0 
C:\Users\stapi\AppData\Local\Temp\cceaTiQN.s:669    .text.app_security_req_info_hdlr:000000000000003e .L0 
C:\Users\stapi\AppData\Local\Temp\cceaTiQN.s:670    .text.app_security_req_info_hdlr:000000000000003e .L0 
C:\Users\stapi\AppData\Local\Temp\cceaTiQN.s:671    .text.app_security_req_info_hdlr:000000000000003e .L0 
C:\Users\stapi\AppData\Local\Temp\cceaTiQN.s:674    .text.app_security_req_info_hdlr:000000000000003e .L0 
C:\Users\stapi\AppData\Local\Temp\cceaTiQN.s:677    .text.app_security_req_info_hdlr:0000000000000040 .L0 
C:\Users\stapi\AppData\Local\Temp\cceaTiQN.s:678    .text.app_security_req_info_hdlr:0000000000000040 .L0 
C:\Users\stapi\AppData\Local\Temp\cceaTiQN.s:680    .text.app_security_req_info_hdlr:0000000000000044 .L0 
C:\Users\stapi\AppData\Local\Temp\cceaTiQN.s:683    .text.app_security_req_info_hdlr:0000000000000048 .L0 
C:\Users\stapi\AppData\Local\Temp\cceaTiQN.s:685    .text.app_security_req_info_hdlr:000000000000004a .L0 
C:\Users\stapi\AppData\Local\Temp\cceaTiQN.s:693    .text.app_security_req_info_hdlr:0000000000000058 .L0 
C:\Users\stapi\AppData\Local\Temp\cceaTiQN.s:696    .text.app_security_req_info_hdlr:0000000000000062 .L0 
C:\Users\stapi\AppData\Local\Temp\cceaTiQN.s:829    .text.app_sec_evt_handler:0000000000000000 .L0 
C:\Users\stapi\AppData\Local\Temp\cceaTiQN.s:831    .text.app_sec_evt_handler:0000000000000000 .L0 
C:\Users\stapi\AppData\Local\Temp\cceaTiQN.s:832    .text.app_sec_evt_handler:0000000000000000 .L0 
C:\Users\stapi\AppData\Local\Temp\cceaTiQN.s:835    .text.app_sec_evt_handler:0000000000000006 .L0 
C:\Users\stapi\AppData\Local\Temp\cceaTiQN.s:836    .text.app_sec_evt_handler:000000000000000e .L0 
C:\Users\stapi\AppData\Local\Temp\cceaTiQN.s:837    .text.app_sec_evt_handler:000000000000000e .L0 
C:\Users\stapi\AppData\Local\Temp\cceaTiQN.s:838    .text.app_sec_evt_handler:000000000000000e .L0 
C:\Users\stapi\AppData\Local\Temp\cceaTiQN.s:839    .text.app_sec_evt_handler:000000000000000e .L0 
C:\Users\stapi\AppData\Local\Temp\cceaTiQN.s:840    .text.app_sec_evt_handler:000000000000000e .L0 
C:\Users\stapi\AppData\Local\Temp\cceaTiQN.s:841    .text.app_sec_evt_handler:000000000000000e .L0 
C:\Users\stapi\AppData\Local\Temp\cceaTiQN.s:842    .text.app_sec_evt_handler:000000000000000e .L0 
C:\Users\stapi\AppData\Local\Temp\cceaTiQN.s:843    .text.app_sec_evt_handler:000000000000000e .L0 
C:\Users\stapi\AppData\Local\Temp\cceaTiQN.s:850    .text.app_sec_evt_handler:000000000000001e .L0 
C:\Users\stapi\AppData\Local\Temp\cceaTiQN.s:880    .text.app_sec_evt_handler:0000000000000022 .L0 
C:\Users\stapi\AppData\Local\Temp\cceaTiQN.s:881    .text.app_sec_evt_handler:0000000000000022 .L0 
C:\Users\stapi\AppData\Local\Temp\cceaTiQN.s:882    .text.app_sec_evt_handler:0000000000000022 .L0 
C:\Users\stapi\AppData\Local\Temp\cceaTiQN.s:884    .text.app_sec_evt_handler:0000000000000026 .L0 
C:\Users\stapi\AppData\Local\Temp\cceaTiQN.s:887    .text.app_sec_evt_handler:000000000000002c .L0 
C:\Users\stapi\AppData\Local\Temp\cceaTiQN.s:890    .text.app_sec_evt_handler:0000000000000034 .L0 
C:\Users\stapi\AppData\Local\Temp\cceaTiQN.s:892    .text.app_sec_evt_handler:0000000000000038 .L0 
C:\Users\stapi\AppData\Local\Temp\cceaTiQN.s:895    .text.app_sec_evt_handler:000000000000003a .L0 
C:\Users\stapi\AppData\Local\Temp\cceaTiQN.s:896    .text.app_sec_evt_handler:000000000000003a .L0 
C:\Users\stapi\AppData\Local\Temp\cceaTiQN.s:897    .text.app_sec_evt_handler:000000000000003a .L0 
C:\Users\stapi\AppData\Local\Temp\cceaTiQN.s:898    .text.app_sec_evt_handler:000000000000003a .L0 
C:\Users\stapi\AppData\Local\Temp\cceaTiQN.s:901    .text.app_sec_evt_handler:0000000000000040 .L0 
C:\Users\stapi\AppData\Local\Temp\cceaTiQN.s:907    .text.app_sec_evt_handler:0000000000000054 .L0 
C:\Users\stapi\AppData\Local\Temp\cceaTiQN.s:908    .text.app_sec_evt_handler:0000000000000054 .L0 
C:\Users\stapi\AppData\Local\Temp\cceaTiQN.s:909    .text.app_sec_evt_handler:0000000000000054 .L0 
C:\Users\stapi\AppData\Local\Temp\cceaTiQN.s:911    .text.app_sec_evt_handler:0000000000000058 .L0 
C:\Users\stapi\AppData\Local\Temp\cceaTiQN.s:912    .text.app_sec_evt_handler:0000000000000058 .L0 
C:\Users\stapi\AppData\Local\Temp\cceaTiQN.s:915    .text.app_sec_evt_handler:0000000000000060 .L0 
C:\Users\stapi\AppData\Local\Temp\cceaTiQN.s:919    .text.app_sec_evt_handler:0000000000000068 .L0 
C:\Users\stapi\AppData\Local\Temp\cceaTiQN.s:923    .text.app_sec_evt_handler:0000000000000070 .L0 
C:\Users\stapi\AppData\Local\Temp\cceaTiQN.s:924    .text.app_sec_evt_handler:0000000000000070 .L0 
C:\Users\stapi\AppData\Local\Temp\cceaTiQN.s:929    .text.app_sec_evt_handler:0000000000000076 .L0 
C:\Users\stapi\AppData\Local\Temp\cceaTiQN.s:936    .text.app_sec_evt_handler:0000000000000082 .L0 
C:\Users\stapi\AppData\Local\Temp\cceaTiQN.s:937    .text.app_sec_evt_handler:0000000000000084 .L0 
C:\Users\stapi\AppData\Local\Temp\cceaTiQN.s:938    .text.app_sec_evt_handler:0000000000000084 .L0 
C:\Users\stapi\AppData\Local\Temp\cceaTiQN.s:940    .text.app_sec_evt_handler:000000000000008c .L0 
C:\Users\stapi\AppData\Local\Temp\cceaTiQN.s:941    .text.app_sec_evt_handler:000000000000008c .L0 
C:\Users\stapi\AppData\Local\Temp\cceaTiQN.s:942    .text.app_sec_evt_handler:000000000000008c .L0 
C:\Users\stapi\AppData\Local\Temp\cceaTiQN.s:943    .text.app_sec_evt_handler:000000000000008c .L0 
C:\Users\stapi\AppData\Local\Temp\cceaTiQN.s:944    .text.app_sec_evt_handler:000000000000008c .L0 
C:\Users\stapi\AppData\Local\Temp\cceaTiQN.s:945    .text.app_sec_evt_handler:000000000000008c .L0 
C:\Users\stapi\AppData\Local\Temp\cceaTiQN.s:946    .text.app_sec_evt_handler:000000000000008c .L0 
C:\Users\stapi\AppData\Local\Temp\cceaTiQN.s:947    .text.app_sec_evt_handler:000000000000008c .L0 
C:\Users\stapi\AppData\Local\Temp\cceaTiQN.s:950    .text.app_sec_evt_handler:000000000000008c .L0 
C:\Users\stapi\AppData\Local\Temp\cceaTiQN.s:954    .text.app_sec_evt_handler:000000000000008c .L0 
C:\Users\stapi\AppData\Local\Temp\cceaTiQN.s:955    .text.app_sec_evt_handler:000000000000008c .L0 
C:\Users\stapi\AppData\Local\Temp\cceaTiQN.s:956    .text.app_sec_evt_handler:000000000000008c .L0 
C:\Users\stapi\AppData\Local\Temp\cceaTiQN.s:958    .text.app_sec_evt_handler:0000000000000090 .L0 
C:\Users\stapi\AppData\Local\Temp\cceaTiQN.s:960    .text.app_sec_evt_handler:0000000000000094 .L0 
C:\Users\stapi\AppData\Local\Temp\cceaTiQN.s:962    .text.app_sec_evt_handler:0000000000000098 .L0 
C:\Users\stapi\AppData\Local\Temp\cceaTiQN.s:964    .text.app_sec_evt_handler:000000000000009c .L0 
C:\Users\stapi\AppData\Local\Temp\cceaTiQN.s:966    .text.app_sec_evt_handler:000000000000009e .L0 
C:\Users\stapi\AppData\Local\Temp\cceaTiQN.s:967    .text.app_sec_evt_handler:000000000000009e .L0 
C:\Users\stapi\AppData\Local\Temp\cceaTiQN.s:971    .text.app_sec_evt_handler:00000000000000a4 .L0 
C:\Users\stapi\AppData\Local\Temp\cceaTiQN.s:972    .text.app_sec_evt_handler:00000000000000a4 .L0 
C:\Users\stapi\AppData\Local\Temp\cceaTiQN.s:975    .text.app_sec_evt_handler:00000000000000aa .L0 
C:\Users\stapi\AppData\Local\Temp\cceaTiQN.s:976    .text.app_sec_evt_handler:00000000000000aa .L0 
C:\Users\stapi\AppData\Local\Temp\cceaTiQN.s:981    .text.app_sec_evt_handler:00000000000000b6 .L0 
C:\Users\stapi\AppData\Local\Temp\cceaTiQN.s:982    .text.app_sec_evt_handler:00000000000000b6 .L0 
C:\Users\stapi\AppData\Local\Temp\cceaTiQN.s:984    .text.app_sec_evt_handler:00000000000000ba .L0 
C:\Users\stapi\AppData\Local\Temp\cceaTiQN.s:986    .text.app_sec_evt_handler:00000000000000bc .L0 
C:\Users\stapi\AppData\Local\Temp\cceaTiQN.s:987    .text.app_sec_evt_handler:00000000000000bc .L0 
C:\Users\stapi\AppData\Local\Temp\cceaTiQN.s:992    .text.app_sec_evt_handler:00000000000000c8 .L0 
C:\Users\stapi\AppData\Local\Temp\cceaTiQN.s:993    .text.app_sec_evt_handler:00000000000000c8 .L0 
C:\Users\stapi\AppData\Local\Temp\cceaTiQN.s:995    .text.app_sec_evt_handler:00000000000000cc .L0 
C:\Users\stapi\AppData\Local\Temp\cceaTiQN.s:997    .text.app_sec_evt_handler:00000000000000ce .L0 
C:\Users\stapi\AppData\Local\Temp\cceaTiQN.s:999    .text.app_sec_evt_handler:00000000000000d2 .L0 
C:\Users\stapi\AppData\Local\Temp\cceaTiQN.s:1000   .text.app_sec_evt_handler:00000000000000d2 .L0 
C:\Users\stapi\AppData\Local\Temp\cceaTiQN.s:1003   .text.app_sec_evt_handler:00000000000000da .L0 
C:\Users\stapi\AppData\Local\Temp\cceaTiQN.s:1004   .text.app_sec_evt_handler:00000000000000da .L0 
C:\Users\stapi\AppData\Local\Temp\cceaTiQN.s:1006   .text.app_sec_evt_handler:00000000000000de .L0 
C:\Users\stapi\AppData\Local\Temp\cceaTiQN.s:1008   .text.app_sec_evt_handler:00000000000000e2 .L0 
C:\Users\stapi\AppData\Local\Temp\cceaTiQN.s:1010   .text.app_sec_evt_handler:00000000000000e6 .L0 
C:\Users\stapi\AppData\Local\Temp\cceaTiQN.s:1011   .text.app_sec_evt_handler:00000000000000e6 .L0 
C:\Users\stapi\AppData\Local\Temp\cceaTiQN.s:1013   .text.app_sec_evt_handler:00000000000000e8 .L0 
C:\Users\stapi\AppData\Local\Temp\cceaTiQN.s:1017   .text.app_sec_evt_handler:00000000000000ea .L0 
C:\Users\stapi\AppData\Local\Temp\cceaTiQN.s:1018   .text.app_sec_evt_handler:00000000000000ea .L0 
C:\Users\stapi\AppData\Local\Temp\cceaTiQN.s:1020   .text.app_sec_evt_handler:00000000000000ee .L0 
C:\Users\stapi\AppData\Local\Temp\cceaTiQN.s:1022   .text.app_sec_evt_handler:00000000000000f0 .L0 
C:\Users\stapi\AppData\Local\Temp\cceaTiQN.s:1023   .text.app_sec_evt_handler:00000000000000f0 .L0 
C:\Users\stapi\AppData\Local\Temp\cceaTiQN.s:1024   .text.app_sec_evt_handler:00000000000000f0 .L0 
C:\Users\stapi\AppData\Local\Temp\cceaTiQN.s:1028   .text.app_sec_evt_handler:00000000000000f8 .L0 
C:\Users\stapi\AppData\Local\Temp\cceaTiQN.s:1038   .text.app_sec_evt_handler:00000000000000fe .L0 
C:\Users\stapi\AppData\Local\Temp\cceaTiQN.s:1039   .text.app_sec_evt_handler:00000000000000fe .L0 
C:\Users\stapi\AppData\Local\Temp\cceaTiQN.s:1040   .text.app_sec_evt_handler:00000000000000fe .L0 
C:\Users\stapi\AppData\Local\Temp\cceaTiQN.s:1041   .text.app_sec_evt_handler:00000000000000fe .L0 
C:\Users\stapi\AppData\Local\Temp\cceaTiQN.s:1042   .text.app_sec_evt_handler:00000000000000fe .L0 
C:\Users\stapi\AppData\Local\Temp\cceaTiQN.s:1049   .text.app_sec_evt_handler:0000000000000110 .L0 
C:\Users\stapi\AppData\Local\Temp\cceaTiQN.s:1050   .text.app_sec_evt_handler:0000000000000110 .L0 
C:\Users\stapi\AppData\Local\Temp\cceaTiQN.s:1052   .text.app_sec_evt_handler:0000000000000112 .L0 
C:\Users\stapi\AppData\Local\Temp\cceaTiQN.s:1053   .text.app_sec_evt_handler:0000000000000112 .L0 
C:\Users\stapi\AppData\Local\Temp\cceaTiQN.s:1057   .text.app_sec_evt_handler:000000000000011c .L0 
C:\Users\stapi\AppData\Local\Temp\cceaTiQN.s:1063   .text.app_sec_evt_handler:000000000000012c .L0 
C:\Users\stapi\AppData\Local\Temp\cceaTiQN.s:1064   .text.app_sec_evt_handler:000000000000012c .L0 
C:\Users\stapi\AppData\Local\Temp\cceaTiQN.s:1069   .text.app_sec_evt_handler:0000000000000130 .L0 
C:\Users\stapi\AppData\Local\Temp\cceaTiQN.s:1076   .text.app_sec_evt_handler:000000000000013e .L0 
C:\Users\stapi\AppData\Local\Temp\cceaTiQN.s:1077   .text.app_sec_evt_handler:000000000000013e .L0 
C:\Users\stapi\AppData\Local\Temp\cceaTiQN.s:1079   .text.app_sec_evt_handler:0000000000000142 .L0 
C:\Users\stapi\AppData\Local\Temp\cceaTiQN.s:1082   .text.app_sec_evt_handler:0000000000000146 .L0 
C:\Users\stapi\AppData\Local\Temp\cceaTiQN.s:1084   .text.app_sec_evt_handler:000000000000014a .L0 
C:\Users\stapi\AppData\Local\Temp\cceaTiQN.s:1087   .text.app_sec_evt_handler:0000000000000152 .L0 
C:\Users\stapi\AppData\Local\Temp\cceaTiQN.s:1092   .text.app_sec_evt_handler:0000000000000160 .L0 
C:\Users\stapi\AppData\Local\Temp\cceaTiQN.s:1097   .text.app_sec_evt_handler:000000000000016c .L0 
C:\Users\stapi\AppData\Local\Temp\cceaTiQN.s:1098   .text.app_sec_evt_handler:000000000000016c .L0 
C:\Users\stapi\AppData\Local\Temp\cceaTiQN.s:1102   .text.app_sec_evt_handler:0000000000000176 .L0 
C:\Users\stapi\AppData\Local\Temp\cceaTiQN.s:1103   .text.app_sec_evt_handler:0000000000000176 .L0 
C:\Users\stapi\AppData\Local\Temp\cceaTiQN.s:1105   .text.app_sec_evt_handler:000000000000017a .L0 
C:\Users\stapi\AppData\Local\Temp\cceaTiQN.s:1108   .text.app_sec_evt_handler:000000000000017e .L0 
C:\Users\stapi\AppData\Local\Temp\cceaTiQN.s:1110   .text.app_sec_evt_handler:0000000000000182 .L0 
C:\Users\stapi\AppData\Local\Temp\cceaTiQN.s:1111   .text.app_sec_evt_handler:0000000000000182 .L0 
C:\Users\stapi\AppData\Local\Temp\cceaTiQN.s:1113   .text.app_sec_evt_handler:0000000000000186 .L0 
C:\Users\stapi\AppData\Local\Temp\cceaTiQN.s:1115   .text.app_sec_evt_handler:000000000000018a .L0 
C:\Users\stapi\AppData\Local\Temp\cceaTiQN.s:1117   .text.app_sec_evt_handler:000000000000018e .L0 
C:\Users\stapi\AppData\Local\Temp\cceaTiQN.s:1120   .text.app_sec_evt_handler:0000000000000196 .L0 
C:\Users\stapi\AppData\Local\Temp\cceaTiQN.s:1127   .text.app_sec_evt_handler:00000000000001a8 .L0 
C:\Users\stapi\AppData\Local\Temp\cceaTiQN.s:1128   .text.app_sec_evt_handler:00000000000001a8 .L0 
C:\Users\stapi\AppData\Local\Temp\cceaTiQN.s:1130   .text.app_sec_evt_handler:00000000000001aa .L0 
C:\Users\stapi\AppData\Local\Temp\cceaTiQN.s:1132   .text.app_sec_evt_handler:00000000000001ae .L0 
C:\Users\stapi\AppData\Local\Temp\cceaTiQN.s:1135   .text.app_sec_evt_handler:00000000000001b4 .L0 
C:\Users\stapi\AppData\Local\Temp\cceaTiQN.s:1136   .text.app_sec_evt_handler:00000000000001b4 .L0 
C:\Users\stapi\AppData\Local\Temp\cceaTiQN.s:1139   .text.app_sec_evt_handler:00000000000001ba .L0 
C:\Users\stapi\AppData\Local\Temp\cceaTiQN.s:1151   .text.app_sec_evt_handler:00000000000001d2 .L0 
C:\Users\stapi\AppData\Local\Temp\cceaTiQN.s:1158   .text.app_sec_evt_handler:00000000000001d4 .L0 
C:\Users\stapi\AppData\Local\Temp\cceaTiQN.s:1161   .text.app_sec_evt_handler:00000000000001da .L0 
C:\Users\stapi\AppData\Local\Temp\cceaTiQN.s:1165   .text.app_sec_evt_handler:00000000000001dc .L0 
C:\Users\stapi\AppData\Local\Temp\cceaTiQN.s:1166   .text.app_sec_evt_handler:00000000000001dc .L0 
C:\Users\stapi\AppData\Local\Temp\cceaTiQN.s:1169   .text.app_sec_evt_handler:00000000000001e4 .L0 
C:\Users\stapi\AppData\Local\Temp\cceaTiQN.s:1177   .text.app_sec_evt_handler:00000000000001f8 .L0 
C:\Users\stapi\AppData\Local\Temp\cceaTiQN.s:1178   .text.app_sec_evt_handler:00000000000001f8 .L0 
C:\Users\stapi\AppData\Local\Temp\cceaTiQN.s:1179   .text.app_sec_evt_handler:00000000000001f8 .L0 
C:\Users\stapi\AppData\Local\Temp\cceaTiQN.s:1180   .text.app_sec_evt_handler:00000000000001f8 .L0 
C:\Users\stapi\AppData\Local\Temp\cceaTiQN.s:1184   .text.app_sec_evt_handler:00000000000001fe .L0 
C:\Users\stapi\AppData\Local\Temp\cceaTiQN.s:1185   .text.app_sec_evt_handler:00000000000001fe .L0 
C:\Users\stapi\AppData\Local\Temp\cceaTiQN.s:1189   .text.app_sec_evt_handler:0000000000000208 .L0 
C:\Users\stapi\AppData\Local\Temp\cceaTiQN.s:1195   .text.app_sec_evt_handler:0000000000000218 .L0 
C:\Users\stapi\AppData\Local\Temp\cceaTiQN.s:1196   .text.app_sec_evt_handler:0000000000000218 .L0 
C:\Users\stapi\AppData\Local\Temp\cceaTiQN.s:1206   .text.app_sec_evt_handler:000000000000021e .L0 
C:\Users\stapi\AppData\Local\Temp\cceaTiQN.s:1207   .text.app_sec_evt_handler:000000000000021e .L0 
C:\Users\stapi\AppData\Local\Temp\cceaTiQN.s:1208   .text.app_sec_evt_handler:000000000000021e .L0 
C:\Users\stapi\AppData\Local\Temp\cceaTiQN.s:1210   .text.app_sec_evt_handler:0000000000000222 .L0 
C:\Users\stapi\AppData\Local\Temp\cceaTiQN.s:1213   .text.app_sec_evt_handler:000000000000022a .L0 
C:\Users\stapi\AppData\Local\Temp\cceaTiQN.s:1216   .text.app_sec_evt_handler:0000000000000232 .L0 
C:\Users\stapi\AppData\Local\Temp\cceaTiQN.s:1221   .text.app_sec_evt_handler:000000000000023a .L0 
C:\Users\stapi\AppData\Local\Temp\cceaTiQN.s:1222   .text.app_sec_evt_handler:000000000000023a .L0 
C:\Users\stapi\AppData\Local\Temp\cceaTiQN.s:1226   .text.app_sec_evt_handler:0000000000000246 .L0 
C:\Users\stapi\AppData\Local\Temp\cceaTiQN.s:1228   .text.app_sec_evt_handler:000000000000024a .L0 
C:\Users\stapi\AppData\Local\Temp\cceaTiQN.s:1231   .text.app_sec_evt_handler:0000000000000250 .L0 
C:\Users\stapi\AppData\Local\Temp\cceaTiQN.s:1233   .text.app_sec_evt_handler:0000000000000252 .L0 
C:\Users\stapi\AppData\Local\Temp\cceaTiQN.s:1234   .text.app_sec_evt_handler:0000000000000252 .L0 
C:\Users\stapi\AppData\Local\Temp\cceaTiQN.s:1236   .text.app_sec_evt_handler:0000000000000256 .L0 
C:\Users\stapi\AppData\Local\Temp\cceaTiQN.s:1243   .text.app_sec_evt_handler:0000000000000266 .L0 
C:\Users\stapi\AppData\Local\Temp\cceaTiQN.s:1244   .text.app_sec_evt_handler:0000000000000266 .L0 
C:\Users\stapi\AppData\Local\Temp\cceaTiQN.s:1252   .text.app_sec_evt_handler:0000000000000268 .L0 
C:\Users\stapi\AppData\Local\Temp\cceaTiQN.s:1261   .text.app_sec_evt_handler:000000000000026c .L0 
C:\Users\stapi\AppData\Local\Temp\cceaTiQN.s:1262   .text.app_sec_evt_handler:000000000000026c .L0 
C:\Users\stapi\AppData\Local\Temp\cceaTiQN.s:1264   .text.app_sec_evt_handler:0000000000000270 .L0 
C:\Users\stapi\AppData\Local\Temp\cceaTiQN.s:1272   .text.app_sec_evt_handler:0000000000000282 .L0 
C:\Users\stapi\AppData\Local\Temp\cceaTiQN.s:1273   .text.app_sec_evt_handler:0000000000000282 .L0 
C:\Users\stapi\AppData\Local\Temp\cceaTiQN.s:1288   .text.app_sec_evt_handler:0000000000000294 .L0 
C:\Users\stapi\AppData\Local\Temp\cceaTiQN.s:1289   .text.app_sec_evt_handler:0000000000000294 .L0 
C:\Users\stapi\AppData\Local\Temp\cceaTiQN.s:1290   .text.app_sec_evt_handler:0000000000000294 .L0 
C:\Users\stapi\AppData\Local\Temp\cceaTiQN.s:1291   .text.app_sec_evt_handler:0000000000000294 .L0 
C:\Users\stapi\AppData\Local\Temp\cceaTiQN.s:1295   .text.app_sec_evt_handler:00000000000002a0 .L0 
C:\Users\stapi\AppData\Local\Temp\cceaTiQN.s:1297   .text.app_sec_evt_handler:00000000000002a4 .L0 
C:\Users\stapi\AppData\Local\Temp\cceaTiQN.s:1300   .text.app_sec_evt_handler:00000000000002aa .L0 
C:\Users\stapi\AppData\Local\Temp\cceaTiQN.s:1302   .text.app_sec_evt_handler:00000000000002ac .L0 
C:\Users\stapi\AppData\Local\Temp\cceaTiQN.s:1303   .text.app_sec_evt_handler:00000000000002ac .L0 
C:\Users\stapi\AppData\Local\Temp\cceaTiQN.s:1305   .text.app_sec_evt_handler:00000000000002b0 .L0 
C:\Users\stapi\AppData\Local\Temp\cceaTiQN.s:1312   .text.app_sec_evt_handler:00000000000002c0 .L0 
C:\Users\stapi\AppData\Local\Temp\cceaTiQN.s:1313   .text.app_sec_evt_handler:00000000000002c0 .L0 
C:\Users\stapi\AppData\Local\Temp\cceaTiQN.s:1318   .text.app_sec_evt_handler:00000000000002c4 .L0 
C:\Users\stapi\AppData\Local\Temp\cceaTiQN.s:1319   .text.app_sec_evt_handler:00000000000002c4 .L0 
C:\Users\stapi\AppData\Local\Temp\cceaTiQN.s:1321   .text.app_sec_evt_handler:00000000000002c8 .L0 
C:\Users\stapi\AppData\Local\Temp\cceaTiQN.s:1332   .text.app_sec_evt_handler:00000000000002d4 .L0 
C:\Users\stapi\AppData\Local\Temp\cceaTiQN.s:1342   .text.app_sec_evt_handler:00000000000002de .L0 
C:\Users\stapi\AppData\Local\Temp\cceaTiQN.s:1343   .text.app_sec_evt_handler:00000000000002de .L0 
C:\Users\stapi\AppData\Local\Temp\cceaTiQN.s:1344   .text.app_sec_evt_handler:00000000000002de .L0 
C:\Users\stapi\AppData\Local\Temp\cceaTiQN.s:1348   .text.app_sec_evt_handler:00000000000002ea .L0 
C:\Users\stapi\AppData\Local\Temp\cceaTiQN.s:1350   .text.app_sec_evt_handler:00000000000002ee .L0 
C:\Users\stapi\AppData\Local\Temp\cceaTiQN.s:1353   .text.app_sec_evt_handler:00000000000002f4 .L0 
C:\Users\stapi\AppData\Local\Temp\cceaTiQN.s:1355   .text.app_sec_evt_handler:00000000000002f6 .L0 
C:\Users\stapi\AppData\Local\Temp\cceaTiQN.s:1356   .text.app_sec_evt_handler:00000000000002f6 .L0 
C:\Users\stapi\AppData\Local\Temp\cceaTiQN.s:1358   .text.app_sec_evt_handler:00000000000002fa .L0 
C:\Users\stapi\AppData\Local\Temp\cceaTiQN.s:1365   .text.app_sec_evt_handler:000000000000030a .L0 
C:\Users\stapi\AppData\Local\Temp\cceaTiQN.s:1366   .text.app_sec_evt_handler:000000000000030a .L0 
C:\Users\stapi\AppData\Local\Temp\cceaTiQN.s:1372   .text.app_sec_evt_handler:000000000000031a .L0 
C:\Users\stapi\AppData\Local\Temp\cceaTiQN.s:1376   .text.app_sec_evt_handler:000000000000031c .L0 
C:\Users\stapi\AppData\Local\Temp\cceaTiQN.s:1377   .text.app_sec_evt_handler:000000000000031c .L0 
C:\Users\stapi\AppData\Local\Temp\cceaTiQN.s:1379   .text.app_sec_evt_handler:0000000000000320 .L0 
C:\Users\stapi\AppData\Local\Temp\cceaTiQN.s:1391   .text.app_sec_evt_handler:000000000000032e .L0 
C:\Users\stapi\AppData\Local\Temp\cceaTiQN.s:1392   .text.app_sec_evt_handler:000000000000032e .L0 
C:\Users\stapi\AppData\Local\Temp\cceaTiQN.s:1393   .text.app_sec_evt_handler:000000000000032e .L0 
C:\Users\stapi\AppData\Local\Temp\cceaTiQN.s:1398   .text.app_sec_evt_handler:000000000000033e .L0 
C:\Users\stapi\AppData\Local\Temp\cceaTiQN.s:1399   .text.app_sec_evt_handler:000000000000033e .L0 
C:\Users\stapi\AppData\Local\Temp\cceaTiQN.s:1401   .text.app_sec_evt_handler:0000000000000340 .L0 
C:\Users\stapi\AppData\Local\Temp\cceaTiQN.s:1402   .text.app_sec_evt_handler:0000000000000340 .L0 
C:\Users\stapi\AppData\Local\Temp\cceaTiQN.s:1406   .text.app_sec_evt_handler:000000000000034a .L0 
C:\Users\stapi\AppData\Local\Temp\cceaTiQN.s:1413   .text.app_sec_evt_handler:000000000000035a .L0 
C:\Users\stapi\AppData\Local\Temp\cceaTiQN.s:1414   .text.app_sec_evt_handler:000000000000035a .L0 
C:\Users\stapi\AppData\Local\Temp\cceaTiQN.s:1419   .text.app_sec_evt_handler:0000000000000368 .L0 
C:\Users\stapi\AppData\Local\Temp\cceaTiQN.s:1423   .text.app_sec_evt_handler:000000000000036a .L0 
C:\Users\stapi\AppData\Local\Temp\cceaTiQN.s:1424   .text.app_sec_evt_handler:000000000000036a .L0 
C:\Users\stapi\AppData\Local\Temp\cceaTiQN.s:1428   .text.app_sec_evt_handler:0000000000000374 .L0 
C:\Users\stapi\AppData\Local\Temp\cceaTiQN.s:1436   .text.app_sec_evt_handler:000000000000038a .L0 
C:\Users\stapi\AppData\Local\Temp\cceaTiQN.s:1437   .text.app_sec_evt_handler:000000000000038a .L0 
C:\Users\stapi\AppData\Local\Temp\cceaTiQN.s:1438   .text.app_sec_evt_handler:000000000000038a .L0 
C:\Users\stapi\AppData\Local\Temp\cceaTiQN.s:1441   .text.app_sec_evt_handler:0000000000000392 .L0 
C:\Users\stapi\AppData\Local\Temp\cceaTiQN.s:1450   .text.app_sec_evt_handler:000000000000039a .L0 
C:\Users\stapi\AppData\Local\Temp\cceaTiQN.s:1460   .text.app_sec_evt_handler:00000000000003a4 .L0 
C:\Users\stapi\AppData\Local\Temp\cceaTiQN.s:1461   .text.app_sec_evt_handler:00000000000003a4 .L0 
C:\Users\stapi\AppData\Local\Temp\cceaTiQN.s:1462   .text.app_sec_evt_handler:00000000000003a4 .L0 
C:\Users\stapi\AppData\Local\Temp\cceaTiQN.s:1463   .text.app_sec_evt_handler:00000000000003a4 .L0 
C:\Users\stapi\AppData\Local\Temp\cceaTiQN.s:1464   .text.app_sec_evt_handler:00000000000003a4 .L0 
C:\Users\stapi\AppData\Local\Temp\cceaTiQN.s:1469   .text.app_sec_evt_handler:00000000000003b4 .L0 
C:\Users\stapi\AppData\Local\Temp\cceaTiQN.s:1470   .text.app_sec_evt_handler:00000000000003b4 .L0 
C:\Users\stapi\AppData\Local\Temp\cceaTiQN.s:1472   .text.app_sec_evt_handler:00000000000003b6 .L0 
C:\Users\stapi\AppData\Local\Temp\cceaTiQN.s:1473   .text.app_sec_evt_handler:00000000000003b6 .L0 
C:\Users\stapi\AppData\Local\Temp\cceaTiQN.s:1477   .text.app_sec_evt_handler:00000000000003c0 .L0 
C:\Users\stapi\AppData\Local\Temp\cceaTiQN.s:1484   .text.app_sec_evt_handler:00000000000003d0 .L0 
C:\Users\stapi\AppData\Local\Temp\cceaTiQN.s:1485   .text.app_sec_evt_handler:00000000000003d0 .L0 
C:\Users\stapi\AppData\Local\Temp\cceaTiQN.s:1489   .text.app_sec_evt_handler:00000000000003d4 .L0 
C:\Users\stapi\AppData\Local\Temp\cceaTiQN.s:1496   .text.app_sec_evt_handler:00000000000003e2 .L0 
C:\Users\stapi\AppData\Local\Temp\cceaTiQN.s:1501   .text.app_sec_evt_handler:00000000000003ec .L0 
C:\Users\stapi\AppData\Local\Temp\cceaTiQN.s:1505   .text.app_sec_evt_handler:00000000000003f6 .L0 
C:\Users\stapi\AppData\Local\Temp\cceaTiQN.s:1506   .text.app_sec_evt_handler:00000000000003f6 .L0 
C:\Users\stapi\AppData\Local\Temp\cceaTiQN.s:1510   .text.app_sec_evt_handler:0000000000000400 .L0 
C:\Users\stapi\AppData\Local\Temp\cceaTiQN.s:1521   .text.app_sec_evt_handler:0000000000000414 .L0 
C:\Users\stapi\AppData\Local\Temp\cceaTiQN.s:1527   .text.app_sec_evt_handler:0000000000000416 .L0 
C:\Users\stapi\AppData\Local\Temp\cceaTiQN.s:1530   .text.app_sec_evt_handler:000000000000041c .L0 
C:\Users\stapi\AppData\Local\Temp\cceaTiQN.s:1534   .text.app_sec_evt_handler:000000000000041e .L0 
C:\Users\stapi\AppData\Local\Temp\cceaTiQN.s:1535   .text.app_sec_evt_handler:000000000000041e .L0 
C:\Users\stapi\AppData\Local\Temp\cceaTiQN.s:1538   .text.app_sec_evt_handler:0000000000000426 .L0 
C:\Users\stapi\AppData\Local\Temp\cceaTiQN.s:1546   .text.app_sec_evt_handler:000000000000043a .L0 
C:\Users\stapi\AppData\Local\Temp\cceaTiQN.s:1547   .text.app_sec_evt_handler:000000000000043a .L0 
C:\Users\stapi\AppData\Local\Temp\cceaTiQN.s:1548   .text.app_sec_evt_handler:000000000000043a .L0 
C:\Users\stapi\AppData\Local\Temp\cceaTiQN.s:1549   .text.app_sec_evt_handler:000000000000043a .L0 
C:\Users\stapi\AppData\Local\Temp\cceaTiQN.s:1553   .text.app_sec_evt_handler:0000000000000440 .L0 
C:\Users\stapi\AppData\Local\Temp\cceaTiQN.s:1554   .text.app_sec_evt_handler:0000000000000440 .L0 
C:\Users\stapi\AppData\Local\Temp\cceaTiQN.s:1558   .text.app_sec_evt_handler:000000000000044a .L0 
C:\Users\stapi\AppData\Local\Temp\cceaTiQN.s:1563   .text.app_sec_evt_handler:000000000000045a .L0 
C:\Users\stapi\AppData\Local\Temp\cceaTiQN.s:1564   .text.app_sec_evt_handler:000000000000045a .L0 
C:\Users\stapi\AppData\Local\Temp\cceaTiQN.s:1565   .text.app_sec_evt_handler:000000000000045a .L0 
C:\Users\stapi\AppData\Local\Temp\cceaTiQN.s:1568   .text.app_sec_evt_handler:0000000000000462 .L0 
C:\Users\stapi\AppData\Local\Temp\cceaTiQN.s:1580   .text.app_sec_evt_handler:000000000000048a .L0 
C:\Users\stapi\AppData\Local\Temp\cceaTiQN.s:1581   .text.app_sec_evt_handler:000000000000048a .L0 
C:\Users\stapi\AppData\Local\Temp\cceaTiQN.s:1591   .text.app_sec_evt_handler:0000000000000490 .L0 
C:\Users\stapi\AppData\Local\Temp\cceaTiQN.s:1592   .text.app_sec_evt_handler:0000000000000490 .L0 
C:\Users\stapi\AppData\Local\Temp\cceaTiQN.s:1593   .text.app_sec_evt_handler:0000000000000490 .L0 
C:\Users\stapi\AppData\Local\Temp\cceaTiQN.s:1594   .text.app_sec_evt_handler:0000000000000490 .L0 
C:\Users\stapi\AppData\Local\Temp\cceaTiQN.s:1595   .text.app_sec_evt_handler:0000000000000490 .L0 
C:\Users\stapi\AppData\Local\Temp\cceaTiQN.s:1602   .text.app_sec_evt_handler:00000000000004a2 .L0 
C:\Users\stapi\AppData\Local\Temp\cceaTiQN.s:1607   .text.app_sec_evt_handler:00000000000004ae .L0 
C:\Users\stapi\AppData\Local\Temp\cceaTiQN.s:1608   .text.app_sec_evt_handler:00000000000004ae .L0 
C:\Users\stapi\AppData\Local\Temp\cceaTiQN.s:1610   .text.app_sec_evt_handler:00000000000004b0 .L0 
C:\Users\stapi\AppData\Local\Temp\cceaTiQN.s:1611   .text.app_sec_evt_handler:00000000000004b0 .L0 
C:\Users\stapi\AppData\Local\Temp\cceaTiQN.s:1615   .text.app_sec_evt_handler:00000000000004ba .L0 
C:\Users\stapi\AppData\Local\Temp\cceaTiQN.s:1621   .text.app_sec_evt_handler:00000000000004ca .L0 
C:\Users\stapi\AppData\Local\Temp\cceaTiQN.s:1622   .text.app_sec_evt_handler:00000000000004ca .L0 
C:\Users\stapi\AppData\Local\Temp\cceaTiQN.s:1627   .text.app_sec_evt_handler:00000000000004ce .L0 
C:\Users\stapi\AppData\Local\Temp\cceaTiQN.s:1634   .text.app_sec_evt_handler:00000000000004dc .L0 
C:\Users\stapi\AppData\Local\Temp\cceaTiQN.s:1635   .text.app_sec_evt_handler:00000000000004dc .L0 
C:\Users\stapi\AppData\Local\Temp\cceaTiQN.s:1637   .text.app_sec_evt_handler:00000000000004de .L0 
C:\Users\stapi\AppData\Local\Temp\cceaTiQN.s:1640   .text.app_sec_evt_handler:00000000000004e2 .L0 
C:\Users\stapi\AppData\Local\Temp\cceaTiQN.s:1643   .text.app_sec_evt_handler:00000000000004e8 .L0 
C:\Users\stapi\AppData\Local\Temp\cceaTiQN.s:1647   .text.app_sec_evt_handler:00000000000004f4 .L0 
C:\Users\stapi\AppData\Local\Temp\cceaTiQN.s:1648   .text.app_sec_evt_handler:00000000000004f4 .L0 
C:\Users\stapi\AppData\Local\Temp\cceaTiQN.s:1652   .text.app_sec_evt_handler:00000000000004fe .L0 
C:\Users\stapi\AppData\Local\Temp\cceaTiQN.s:1663   .text.app_sec_evt_handler:0000000000000512 .L0 
C:\Users\stapi\AppData\Local\Temp\cceaTiQN.s:1670   .text.app_sec_evt_handler:0000000000000514 .L0 
C:\Users\stapi\AppData\Local\Temp\cceaTiQN.s:1673   .text.app_sec_evt_handler:000000000000051a .L0 
C:\Users\stapi\AppData\Local\Temp\cceaTiQN.s:1677   .text.app_sec_evt_handler:000000000000051c .L0 
C:\Users\stapi\AppData\Local\Temp\cceaTiQN.s:1678   .text.app_sec_evt_handler:000000000000051c .L0 
C:\Users\stapi\AppData\Local\Temp\cceaTiQN.s:1681   .text.app_sec_evt_handler:0000000000000524 .L0 
C:\Users\stapi\AppData\Local\Temp\cceaTiQN.s:1689   .text.app_sec_evt_handler:0000000000000538 .L0 
C:\Users\stapi\AppData\Local\Temp\cceaTiQN.s:1690   .text.app_sec_evt_handler:0000000000000538 .L0 
C:\Users\stapi\AppData\Local\Temp\cceaTiQN.s:1691   .text.app_sec_evt_handler:0000000000000538 .L0 
C:\Users\stapi\AppData\Local\Temp\cceaTiQN.s:1692   .text.app_sec_evt_handler:0000000000000538 .L0 
C:\Users\stapi\AppData\Local\Temp\cceaTiQN.s:1696   .text.app_sec_evt_handler:000000000000053e .L0 
C:\Users\stapi\AppData\Local\Temp\cceaTiQN.s:1697   .text.app_sec_evt_handler:000000000000053e .L0 
C:\Users\stapi\AppData\Local\Temp\cceaTiQN.s:1701   .text.app_sec_evt_handler:0000000000000548 .L0 
C:\Users\stapi\AppData\Local\Temp\cceaTiQN.s:1707   .text.app_sec_evt_handler:0000000000000558 .L0 
C:\Users\stapi\AppData\Local\Temp\cceaTiQN.s:1708   .text.app_sec_evt_handler:0000000000000558 .L0 
C:\Users\stapi\AppData\Local\Temp\cceaTiQN.s:1718   .text.app_sec_evt_handler:000000000000055e .L0 
C:\Users\stapi\AppData\Local\Temp\cceaTiQN.s:1719   .text.app_sec_evt_handler:000000000000055e .L0 
C:\Users\stapi\AppData\Local\Temp\cceaTiQN.s:1720   .text.app_sec_evt_handler:000000000000055e .L0 
C:\Users\stapi\AppData\Local\Temp\cceaTiQN.s:1724   .text.app_sec_evt_handler:000000000000056a .L0 
C:\Users\stapi\AppData\Local\Temp\cceaTiQN.s:1725   .text.app_sec_evt_handler:000000000000056a .L0 
C:\Users\stapi\AppData\Local\Temp\cceaTiQN.s:1727   .text.app_sec_evt_handler:000000000000056c .L0 
C:\Users\stapi\AppData\Local\Temp\cceaTiQN.s:1728   .text.app_sec_evt_handler:000000000000056c .L0 
C:\Users\stapi\AppData\Local\Temp\cceaTiQN.s:1733   .text.app_sec_evt_handler:000000000000057a .L0 
C:\Users\stapi\AppData\Local\Temp\cceaTiQN.s:1740   .text.app_sec_evt_handler:000000000000058a .L0 
C:\Users\stapi\AppData\Local\Temp\cceaTiQN.s:1741   .text.app_sec_evt_handler:000000000000058a .L0 
C:\Users\stapi\AppData\Local\Temp\cceaTiQN.s:1746   .text.app_sec_evt_handler:0000000000000590 .L0 
C:\Users\stapi\AppData\Local\Temp\cceaTiQN.s:1753   .text.app_sec_evt_handler:000000000000059e .L0 
C:\Users\stapi\AppData\Local\Temp\cceaTiQN.s:1766   .text.app_sec_evt_handler:00000000000005b0 .L0 
C:\Users\stapi\AppData\Local\Temp\cceaTiQN.s:1767   .text.app_sec_evt_handler:00000000000005b0 .L0 
C:\Users\stapi\AppData\Local\Temp\cceaTiQN.s:1768   .text.app_sec_evt_handler:00000000000005b0 .L0 
C:\Users\stapi\AppData\Local\Temp\cceaTiQN.s:1769   .text.app_sec_evt_handler:00000000000005b0 .L0 
C:\Users\stapi\AppData\Local\Temp\cceaTiQN.s:1774   .text.app_sec_evt_handler:00000000000005c0 .L0 
C:\Users\stapi\AppData\Local\Temp\cceaTiQN.s:1776   .text.app_sec_evt_handler:00000000000005c4 .L0 
C:\Users\stapi\AppData\Local\Temp\cceaTiQN.s:1779   .text.app_sec_evt_handler:00000000000005c6 .L0 
C:\Users\stapi\AppData\Local\Temp\cceaTiQN.s:1780   .text.app_sec_evt_handler:00000000000005c6 .L0 
C:\Users\stapi\AppData\Local\Temp\cceaTiQN.s:1782   .text.app_sec_evt_handler:00000000000005c8 .L0 
C:\Users\stapi\AppData\Local\Temp\cceaTiQN.s:1784   .text.app_sec_evt_handler:00000000000005ca .L0 
C:\Users\stapi\AppData\Local\Temp\cceaTiQN.s:1785   .text.app_sec_evt_handler:00000000000005ca .L0 
C:\Users\stapi\AppData\Local\Temp\cceaTiQN.s:1787   .text.app_sec_evt_handler:00000000000005ce .L0 
C:\Users\stapi\AppData\Local\Temp\cceaTiQN.s:1792   .text.app_sec_evt_handler:00000000000005d8 .L0 
C:\Users\stapi\AppData\Local\Temp\cceaTiQN.s:1793   .text.app_sec_evt_handler:00000000000005d8 .L0 
C:\Users\stapi\AppData\Local\Temp\cceaTiQN.s:1795   .text.app_sec_evt_handler:00000000000005dc .L0 
C:\Users\stapi\AppData\Local\Temp\cceaTiQN.s:1805   .text.app_sec_evt_handler:00000000000005fc .L0 
C:\Users\stapi\AppData\Local\Temp\cceaTiQN.s:1806   .text.app_sec_evt_handler:00000000000005fc .L0 
C:\Users\stapi\AppData\Local\Temp\cceaTiQN.s:1807   .text.app_sec_evt_handler:00000000000005fc .L0 
C:\Users\stapi\AppData\Local\Temp\cceaTiQN.s:1809   .text.app_sec_evt_handler:0000000000000600 .L0 
C:\Users\stapi\AppData\Local\Temp\cceaTiQN.s:1812   .text.app_sec_evt_handler:0000000000000608 .L0 
C:\Users\stapi\AppData\Local\Temp\cceaTiQN.s:1815   .text.app_sec_evt_handler:000000000000060e .L0 
C:\Users\stapi\AppData\Local\Temp\cceaTiQN.s:1816   .text.app_sec_evt_handler:000000000000060e .L0 
C:\Users\stapi\AppData\Local\Temp\cceaTiQN.s:1820   .text.app_sec_evt_handler:000000000000061a .L0 
C:\Users\stapi\AppData\Local\Temp\cceaTiQN.s:1821   .text.app_sec_evt_handler:000000000000061a .L0 
C:\Users\stapi\AppData\Local\Temp\cceaTiQN.s:1824   .text.app_sec_evt_handler:000000000000061e .L0 
C:\Users\stapi\AppData\Local\Temp\cceaTiQN.s:1826   .text.app_sec_evt_handler:0000000000000620 .L0 
C:\Users\stapi\AppData\Local\Temp\cceaTiQN.s:1827   .text.app_sec_evt_handler:0000000000000620 .L0 
C:\Users\stapi\AppData\Local\Temp\cceaTiQN.s:1831   .text.app_sec_evt_handler:000000000000062a .L0 
C:\Users\stapi\AppData\Local\Temp\cceaTiQN.s:1841   .text.app_sec_evt_handler:0000000000000646 .L0 
C:\Users\stapi\AppData\Local\Temp\cceaTiQN.s:1846   .text.app_sec_evt_handler:000000000000064c .L0 
C:\Users\stapi\AppData\Local\Temp\cceaTiQN.s:1847   .text.app_sec_evt_handler:000000000000064c .L0 
C:\Users\stapi\AppData\Local\Temp\cceaTiQN.s:1850   .text.app_sec_evt_handler:0000000000000654 .L0 
C:\Users\stapi\AppData\Local\Temp\cceaTiQN.s:1856   .text.app_sec_evt_handler:0000000000000664 .L0 
C:\Users\stapi\AppData\Local\Temp\cceaTiQN.s:1857   .text.app_sec_evt_handler:0000000000000664 .L0 
C:\Users\stapi\AppData\Local\Temp\cceaTiQN.s:1858   .text.app_sec_evt_handler:0000000000000664 .L0 
C:\Users\stapi\AppData\Local\Temp\cceaTiQN.s:1859   .text.app_sec_evt_handler:0000000000000664 .L0 
C:\Users\stapi\AppData\Local\Temp\cceaTiQN.s:1863   .text.app_sec_evt_handler:000000000000066a .L0 
C:\Users\stapi\AppData\Local\Temp\cceaTiQN.s:1864   .text.app_sec_evt_handler:000000000000066a .L0 
C:\Users\stapi\AppData\Local\Temp\cceaTiQN.s:1868   .text.app_sec_evt_handler:0000000000000674 .L0 
C:\Users\stapi\AppData\Local\Temp\cceaTiQN.s:1874   .text.app_sec_evt_handler:0000000000000684 .L0 
C:\Users\stapi\AppData\Local\Temp\cceaTiQN.s:1875   .text.app_sec_evt_handler:0000000000000684 .L0 
C:\Users\stapi\AppData\Local\Temp\cceaTiQN.s:1876   .text.app_sec_evt_handler:0000000000000684 .L0 
C:\Users\stapi\AppData\Local\Temp\cceaTiQN.s:1879   .text.app_sec_evt_handler:0000000000000688 .L0 
C:\Users\stapi\AppData\Local\Temp\cceaTiQN.s:1881   .text.app_sec_evt_handler:000000000000068a .L0 
C:\Users\stapi\AppData\Local\Temp\cceaTiQN.s:1882   .text.app_sec_evt_handler:000000000000068a .L0 
C:\Users\stapi\AppData\Local\Temp\cceaTiQN.s:1886   .text.app_sec_evt_handler:0000000000000694 .L0 
C:\Users\stapi\AppData\Local\Temp\cceaTiQN.s:1895   .text.app_sec_evt_handler:00000000000006b0 .L0 
C:\Users\stapi\AppData\Local\Temp\cceaTiQN.s:1900   .text.app_sec_evt_handler:00000000000006b6 .L0 
C:\Users\stapi\AppData\Local\Temp\cceaTiQN.s:1901   .text.app_sec_evt_handler:00000000000006b6 .L0 
C:\Users\stapi\AppData\Local\Temp\cceaTiQN.s:1904   .text.app_sec_evt_handler:00000000000006be .L0 
C:\Users\stapi\AppData\Local\Temp\cceaTiQN.s:1910   .text.app_sec_evt_handler:00000000000006ce .L0 
C:\Users\stapi\AppData\Local\Temp\cceaTiQN.s:1911   .text.app_sec_evt_handler:00000000000006ce .L0 
C:\Users\stapi\AppData\Local\Temp\cceaTiQN.s:1912   .text.app_sec_evt_handler:00000000000006ce .L0 
C:\Users\stapi\AppData\Local\Temp\cceaTiQN.s:1913   .text.app_sec_evt_handler:00000000000006ce .L0 
C:\Users\stapi\AppData\Local\Temp\cceaTiQN.s:1917   .text.app_sec_evt_handler:00000000000006d4 .L0 
C:\Users\stapi\AppData\Local\Temp\cceaTiQN.s:1918   .text.app_sec_evt_handler:00000000000006d4 .L0 
C:\Users\stapi\AppData\Local\Temp\cceaTiQN.s:1922   .text.app_sec_evt_handler:00000000000006de .L0 
C:\Users\stapi\AppData\Local\Temp\cceaTiQN.s:1928   .text.app_sec_evt_handler:00000000000006ee .L0 
C:\Users\stapi\AppData\Local\Temp\cceaTiQN.s:1929   .text.app_sec_evt_handler:00000000000006ee .L0 
C:\Users\stapi\AppData\Local\Temp\cceaTiQN.s:1930   .text.app_sec_evt_handler:00000000000006ee .L0 
C:\Users\stapi\AppData\Local\Temp\cceaTiQN.s:1933   .text.app_sec_evt_handler:00000000000006f2 .L0 
C:\Users\stapi\AppData\Local\Temp\cceaTiQN.s:1935   .text.app_sec_evt_handler:00000000000006f4 .L0 
C:\Users\stapi\AppData\Local\Temp\cceaTiQN.s:1936   .text.app_sec_evt_handler:00000000000006f4 .L0 
C:\Users\stapi\AppData\Local\Temp\cceaTiQN.s:1940   .text.app_sec_evt_handler:00000000000006fe .L0 
C:\Users\stapi\AppData\Local\Temp\cceaTiQN.s:1948   .text.app_sec_evt_handler:0000000000000716 .L0 
C:\Users\stapi\AppData\Local\Temp\cceaTiQN.s:1953   .text.app_sec_evt_handler:000000000000071c .L0 
C:\Users\stapi\AppData\Local\Temp\cceaTiQN.s:1954   .text.app_sec_evt_handler:000000000000071c .L0 
C:\Users\stapi\AppData\Local\Temp\cceaTiQN.s:1957   .text.app_sec_evt_handler:0000000000000724 .L0 
C:\Users\stapi\AppData\Local\Temp\cceaTiQN.s:1963   .text.app_sec_evt_handler:0000000000000734 .L0 
C:\Users\stapi\AppData\Local\Temp\cceaTiQN.s:1964   .text.app_sec_evt_handler:0000000000000734 .L0 
C:\Users\stapi\AppData\Local\Temp\cceaTiQN.s:1965   .text.app_sec_evt_handler:0000000000000734 .L0 
C:\Users\stapi\AppData\Local\Temp\cceaTiQN.s:1966   .text.app_sec_evt_handler:0000000000000734 .L0 
C:\Users\stapi\AppData\Local\Temp\cceaTiQN.s:1970   .text.app_sec_evt_handler:000000000000073a .L0 
C:\Users\stapi\AppData\Local\Temp\cceaTiQN.s:1971   .text.app_sec_evt_handler:000000000000073a .L0 
C:\Users\stapi\AppData\Local\Temp\cceaTiQN.s:1975   .text.app_sec_evt_handler:0000000000000744 .L0 
C:\Users\stapi\AppData\Local\Temp\cceaTiQN.s:1981   .text.app_sec_evt_handler:0000000000000754 .L0 
C:\Users\stapi\AppData\Local\Temp\cceaTiQN.s:1982   .text.app_sec_evt_handler:0000000000000754 .L0 
C:\Users\stapi\AppData\Local\Temp\cceaTiQN.s:1983   .text.app_sec_evt_handler:0000000000000754 .L0 
C:\Users\stapi\AppData\Local\Temp\cceaTiQN.s:1986   .text.app_sec_evt_handler:0000000000000758 .L0 
C:\Users\stapi\AppData\Local\Temp\cceaTiQN.s:1988   .text.app_sec_evt_handler:000000000000075a .L0 
C:\Users\stapi\AppData\Local\Temp\cceaTiQN.s:1989   .text.app_sec_evt_handler:000000000000075a .L0 
C:\Users\stapi\AppData\Local\Temp\cceaTiQN.s:1993   .text.app_sec_evt_handler:0000000000000764 .L0 
C:\Users\stapi\AppData\Local\Temp\cceaTiQN.s:2001   .text.app_sec_evt_handler:000000000000077c .L0 
C:\Users\stapi\AppData\Local\Temp\cceaTiQN.s:2006   .text.app_sec_evt_handler:0000000000000782 .L0 
C:\Users\stapi\AppData\Local\Temp\cceaTiQN.s:2007   .text.app_sec_evt_handler:0000000000000782 .L0 
C:\Users\stapi\AppData\Local\Temp\cceaTiQN.s:2010   .text.app_sec_evt_handler:000000000000078a .L0 
C:\Users\stapi\AppData\Local\Temp\cceaTiQN.s:2016   .text.app_sec_evt_handler:000000000000079a .L0 
C:\Users\stapi\AppData\Local\Temp\cceaTiQN.s:2017   .text.app_sec_evt_handler:000000000000079a .L0 
C:\Users\stapi\AppData\Local\Temp\cceaTiQN.s:2018   .text.app_sec_evt_handler:000000000000079a .L0 
C:\Users\stapi\AppData\Local\Temp\cceaTiQN.s:2019   .text.app_sec_evt_handler:000000000000079a .L0 
C:\Users\stapi\AppData\Local\Temp\cceaTiQN.s:2023   .text.app_sec_evt_handler:00000000000007a0 .L0 
C:\Users\stapi\AppData\Local\Temp\cceaTiQN.s:2024   .text.app_sec_evt_handler:00000000000007a0 .L0 
C:\Users\stapi\AppData\Local\Temp\cceaTiQN.s:2028   .text.app_sec_evt_handler:00000000000007aa .L0 
C:\Users\stapi\AppData\Local\Temp\cceaTiQN.s:2034   .text.app_sec_evt_handler:00000000000007ba .L0 
C:\Users\stapi\AppData\Local\Temp\cceaTiQN.s:2035   .text.app_sec_evt_handler:00000000000007ba .L0 
C:\Users\stapi\AppData\Local\Temp\cceaTiQN.s:2036   .text.app_sec_evt_handler:00000000000007ba .L0 
C:\Users\stapi\AppData\Local\Temp\cceaTiQN.s:2039   .text.app_sec_evt_handler:00000000000007be .L0 
C:\Users\stapi\AppData\Local\Temp\cceaTiQN.s:2041   .text.app_sec_evt_handler:00000000000007c0 .L0 
C:\Users\stapi\AppData\Local\Temp\cceaTiQN.s:2042   .text.app_sec_evt_handler:00000000000007c0 .L0 
C:\Users\stapi\AppData\Local\Temp\cceaTiQN.s:2046   .text.app_sec_evt_handler:00000000000007ca .L0 
C:\Users\stapi\AppData\Local\Temp\cceaTiQN.s:2054   .text.app_sec_evt_handler:00000000000007e2 .L0 
C:\Users\stapi\AppData\Local\Temp\cceaTiQN.s:2059   .text.app_sec_evt_handler:00000000000007e8 .L0 
C:\Users\stapi\AppData\Local\Temp\cceaTiQN.s:2060   .text.app_sec_evt_handler:00000000000007e8 .L0 
C:\Users\stapi\AppData\Local\Temp\cceaTiQN.s:2063   .text.app_sec_evt_handler:00000000000007f0 .L0 
C:\Users\stapi\AppData\Local\Temp\cceaTiQN.s:2069   .text.app_sec_evt_handler:0000000000000800 .L0 
C:\Users\stapi\AppData\Local\Temp\cceaTiQN.s:2070   .text.app_sec_evt_handler:0000000000000800 .L0 
C:\Users\stapi\AppData\Local\Temp\cceaTiQN.s:2071   .text.app_sec_evt_handler:0000000000000800 .L0 
C:\Users\stapi\AppData\Local\Temp\cceaTiQN.s:2072   .text.app_sec_evt_handler:0000000000000800 .L0 
C:\Users\stapi\AppData\Local\Temp\cceaTiQN.s:2076   .text.app_sec_evt_handler:0000000000000806 .L0 
C:\Users\stapi\AppData\Local\Temp\cceaTiQN.s:2077   .text.app_sec_evt_handler:0000000000000806 .L0 
C:\Users\stapi\AppData\Local\Temp\cceaTiQN.s:2081   .text.app_sec_evt_handler:0000000000000810 .L0 
C:\Users\stapi\AppData\Local\Temp\cceaTiQN.s:2087   .text.app_sec_evt_handler:0000000000000820 .L0 
C:\Users\stapi\AppData\Local\Temp\cceaTiQN.s:2088   .text.app_sec_evt_handler:0000000000000820 .L0 
C:\Users\stapi\AppData\Local\Temp\cceaTiQN.s:2089   .text.app_sec_evt_handler:0000000000000820 .L0 
C:\Users\stapi\AppData\Local\Temp\cceaTiQN.s:2090   .text.app_sec_evt_handler:0000000000000820 .L0 
C:\Users\stapi\AppData\Local\Temp\cceaTiQN.s:2093   .text.app_sec_evt_handler:0000000000000828 .L0 
C:\Users\stapi\AppData\Local\Temp\cceaTiQN.s:2097   .text.app_sec_evt_handler:0000000000000830 .L0 
C:\Users\stapi\AppData\Local\Temp\cceaTiQN.s:2104   .text.app_sec_evt_handler:0000000000000844 .L0 
C:\Users\stapi\AppData\Local\Temp\cceaTiQN.s:2106   .text.app_sec_evt_handler:0000000000000848 .L0 
C:\Users\stapi\AppData\Local\Temp\cceaTiQN.s:2110   .text.app_sec_evt_handler:0000000000000854 .L0 
C:\Users\stapi\AppData\Local\Temp\cceaTiQN.s:2111   .text.app_sec_evt_handler:0000000000000854 .L0 
C:\Users\stapi\AppData\Local\Temp\cceaTiQN.s:2120   .text.app_sec_evt_handler:000000000000085a .L0 
C:\Users\stapi\AppData\Local\Temp\cceaTiQN.s:2121   .text.app_sec_evt_handler:000000000000085a .L0 
C:\Users\stapi\AppData\Local\Temp\cceaTiQN.s:2122   .text.app_sec_evt_handler:000000000000085a .L0 
C:\Users\stapi\AppData\Local\Temp\cceaTiQN.s:2127   .text.app_sec_evt_handler:000000000000086a .L0 
C:\Users\stapi\AppData\Local\Temp\cceaTiQN.s:2128   .text.app_sec_evt_handler:000000000000086a .L0 
C:\Users\stapi\AppData\Local\Temp\cceaTiQN.s:2130   .text.app_sec_evt_handler:000000000000086c .L0 
C:\Users\stapi\AppData\Local\Temp\cceaTiQN.s:2131   .text.app_sec_evt_handler:000000000000086c .L0 
C:\Users\stapi\AppData\Local\Temp\cceaTiQN.s:2135   .text.app_sec_evt_handler:0000000000000876 .L0 
C:\Users\stapi\AppData\Local\Temp\cceaTiQN.s:2142   .text.app_sec_evt_handler:0000000000000880 .L0 
C:\Users\stapi\AppData\Local\Temp\cceaTiQN.s:2143   .text.app_sec_evt_handler:0000000000000880 .L0 
C:\Users\stapi\AppData\Local\Temp\cceaTiQN.s:2146   .text.app_sec_evt_handler:0000000000000888 .L0 
C:\Users\stapi\AppData\Local\Temp\cceaTiQN.s:2150   .text.app_sec_evt_handler:0000000000000890 .L0 
C:\Users\stapi\AppData\Local\Temp\cceaTiQN.s:2157   .text.app_sec_evt_handler:00000000000008a2 .L0 
C:\Users\stapi\AppData\Local\Temp\cceaTiQN.s:2159   .text.app_sec_evt_handler:00000000000008a4 .L0 
C:\Users\stapi\AppData\Local\Temp\cceaTiQN.s:2164   .text.app_sec_evt_handler:00000000000008b0 .L0 
C:\Users\stapi\AppData\Local\Temp\cceaTiQN.s:2165   .text.app_sec_evt_handler:00000000000008b0 .L0 
C:\Users\stapi\AppData\Local\Temp\cceaTiQN.s:2169   .text.app_sec_evt_handler:00000000000008ba .L0 
C:\Users\stapi\AppData\Local\Temp\cceaTiQN.s:2178   .text.app_sec_evt_handler:00000000000008c8 .L0 
C:\Users\stapi\AppData\Local\Temp\cceaTiQN.s:2182   .text.app_sec_evt_handler:00000000000008d2 .L0 
C:\Users\stapi\AppData\Local\Temp\cceaTiQN.s:2188   .text.app_sec_evt_handler:00000000000008d6 .L0 
C:\Users\stapi\AppData\Local\Temp\cceaTiQN.s:2189   .text.app_sec_evt_handler:00000000000008d6 .L0 
C:\Users\stapi\AppData\Local\Temp\cceaTiQN.s:2190   .text.app_sec_evt_handler:00000000000008d6 .L0 
C:\Users\stapi\AppData\Local\Temp\cceaTiQN.s:2196   .text.app_sec_evt_handler:00000000000008e4 .L0 
C:\Users\stapi\AppData\Local\Temp\cceaTiQN.s:2197   .text.app_sec_evt_handler:00000000000008e4 .L0 
C:\Users\stapi\AppData\Local\Temp\cceaTiQN.s:2199   .text.app_sec_evt_handler:00000000000008e6 .L0 
C:\Users\stapi\AppData\Local\Temp\cceaTiQN.s:2200   .text.app_sec_evt_handler:00000000000008e6 .L0 
C:\Users\stapi\AppData\Local\Temp\cceaTiQN.s:2205   .text.app_sec_evt_handler:00000000000008f4 .L0 
C:\Users\stapi\AppData\Local\Temp\cceaTiQN.s:2211   .text.app_sec_evt_handler:0000000000000904 .L0 
C:\Users\stapi\AppData\Local\Temp\cceaTiQN.s:2212   .text.app_sec_evt_handler:0000000000000904 .L0 
C:\Users\stapi\AppData\Local\Temp\cceaTiQN.s:2218   .text.app_sec_evt_handler:000000000000090e .L0 
C:\Users\stapi\AppData\Local\Temp\cceaTiQN.s:2223   .text.app_sec_evt_handler:000000000000091a .L0 
C:\Users\stapi\AppData\Local\Temp\cceaTiQN.s:2224   .text.app_sec_evt_handler:000000000000091a .L0 
C:\Users\stapi\AppData\Local\Temp\cceaTiQN.s:2230   .text.app_sec_evt_handler:000000000000091e .L0 
C:\Users\stapi\AppData\Local\Temp\cceaTiQN.s:2236   .text.app_sec_evt_handler:0000000000000922 .L0 
C:\Users\stapi\AppData\Local\Temp\cceaTiQN.s:2238   .text.app_sec_evt_handler:0000000000000924 .L0 
C:\Users\stapi\AppData\Local\Temp\cceaTiQN.s:2239   .text.app_sec_evt_handler:0000000000000924 .L0 
C:\Users\stapi\AppData\Local\Temp\cceaTiQN.s:2243   .text.app_sec_evt_handler:0000000000000930 .L0 
C:\Users\stapi\AppData\Local\Temp\cceaTiQN.s:2249   .text.app_sec_evt_handler:0000000000000942 .L0 
C:\Users\stapi\AppData\Local\Temp\cceaTiQN.s:2251   .text.app_sec_evt_handler:0000000000000944 .L0 
C:\Users\stapi\AppData\Local\Temp\cceaTiQN.s:2256   .text.app_sec_evt_handler:000000000000094e .L0 
C:\Users\stapi\AppData\Local\Temp\cceaTiQN.s:2260   .text.app_sec_evt_handler:0000000000000952 .L0 
C:\Users\stapi\AppData\Local\Temp\cceaTiQN.s:2271   .text.app_sec_evt_handler:000000000000095a .L0 
C:\Users\stapi\AppData\Local\Temp\cceaTiQN.s:2272   .text.app_sec_evt_handler:000000000000095a .L0 
C:\Users\stapi\AppData\Local\Temp\cceaTiQN.s:2273   .text.app_sec_evt_handler:000000000000095a .L0 
C:\Users\stapi\AppData\Local\Temp\cceaTiQN.s:2279   .text.app_sec_evt_handler:0000000000000968 .L0 
C:\Users\stapi\AppData\Local\Temp\cceaTiQN.s:2281   .text.app_sec_evt_handler:000000000000096c .L0 
C:\Users\stapi\AppData\Local\Temp\cceaTiQN.s:2283   .text.app_sec_evt_handler:000000000000096e .L0 
C:\Users\stapi\AppData\Local\Temp\cceaTiQN.s:2284   .text.app_sec_evt_handler:000000000000096e .L0 
C:\Users\stapi\AppData\Local\Temp\cceaTiQN.s:2288   .text.app_sec_evt_handler:0000000000000978 .L0 
C:\Users\stapi\AppData\Local\Temp\cceaTiQN.s:2293   .text.app_sec_evt_handler:0000000000000982 .L0 
C:\Users\stapi\AppData\Local\Temp\cceaTiQN.s:2294   .text.app_sec_evt_handler:0000000000000982 .L0 
C:\Users\stapi\AppData\Local\Temp\cceaTiQN.s:2296   .text.app_sec_evt_handler:0000000000000986 .L0 
C:\Users\stapi\AppData\Local\Temp\cceaTiQN.s:2298   .text.app_sec_evt_handler:000000000000098a .L0 
C:\Users\stapi\AppData\Local\Temp\cceaTiQN.s:2300   .text.app_sec_evt_handler:000000000000098c .L0 
C:\Users\stapi\AppData\Local\Temp\cceaTiQN.s:2302   .text.app_sec_evt_handler:000000000000098e .L0 
C:\Users\stapi\AppData\Local\Temp\cceaTiQN.s:2303   .text.app_sec_evt_handler:000000000000098e .L0 
C:\Users\stapi\AppData\Local\Temp\cceaTiQN.s:2305   .text.app_sec_evt_handler:0000000000000992 .L0 
C:\Users\stapi\AppData\Local\Temp\cceaTiQN.s:2312   .text.app_sec_evt_handler:00000000000009a6 .L0 
C:\Users\stapi\AppData\Local\Temp\cceaTiQN.s:2313   .text.app_sec_evt_handler:00000000000009a6 .L0 
C:\Users\stapi\AppData\Local\Temp\cceaTiQN.s:2314   .text.app_sec_evt_handler:00000000000009a6 .L0 
C:\Users\stapi\AppData\Local\Temp\cceaTiQN.s:2316   .text.app_sec_evt_handler:00000000000009aa .L0 
C:\Users\stapi\AppData\Local\Temp\cceaTiQN.s:2318   .text.app_sec_evt_handler:00000000000009ae .L0 
C:\Users\stapi\AppData\Local\Temp\cceaTiQN.s:2319   .text.app_sec_evt_handler:00000000000009ae .L0 
C:\Users\stapi\AppData\Local\Temp\cceaTiQN.s:2322   .text.app_sec_evt_handler:00000000000009b6 .L0 
C:\Users\stapi\AppData\Local\Temp\cceaTiQN.s:2328   .text.app_sec_evt_handler:00000000000009c8 .L0 
C:\Users\stapi\AppData\Local\Temp\cceaTiQN.s:2329   .text.app_sec_evt_handler:00000000000009c8 .L0 
C:\Users\stapi\AppData\Local\Temp\cceaTiQN.s:2331   .text.app_sec_evt_handler:00000000000009cc .L0 
C:\Users\stapi\AppData\Local\Temp\cceaTiQN.s:2334   .text.app_sec_evt_handler:00000000000009d0 .L0 
C:\Users\stapi\AppData\Local\Temp\cceaTiQN.s:2335   .text.app_sec_evt_handler:00000000000009d0 .L0 
C:\Users\stapi\AppData\Local\Temp\cceaTiQN.s:2337   .text.app_sec_evt_handler:00000000000009d4 .L0 
C:\Users\stapi\AppData\Local\Temp\cceaTiQN.s:2345   .text.app_sec_evt_handler:00000000000009ec .L0 
C:\Users\stapi\AppData\Local\Temp\cceaTiQN.s:2346   .text.app_sec_evt_handler:00000000000009ec .L0 
C:\Users\stapi\AppData\Local\Temp\cceaTiQN.s:2347   .text.app_sec_evt_handler:00000000000009ec .L0 
C:\Users\stapi\AppData\Local\Temp\cceaTiQN.s:2350   .text.app_sec_evt_handler:00000000000009f2 .L0 
C:\Users\stapi\AppData\Local\Temp\cceaTiQN.s:2351   .text.app_sec_evt_handler:00000000000009f2 .L0 
C:\Users\stapi\AppData\Local\Temp\cceaTiQN.s:2353   .text.app_sec_evt_handler:00000000000009f6 .L0 
C:\Users\stapi\AppData\Local\Temp\cceaTiQN.s:2355   .text.app_sec_evt_handler:00000000000009fa .L0 
C:\Users\stapi\AppData\Local\Temp\cceaTiQN.s:2357   .text.app_sec_evt_handler:00000000000009fe .L0 
C:\Users\stapi\AppData\Local\Temp\cceaTiQN.s:2361   .text.app_sec_evt_handler:0000000000000a0a .L0 
C:\Users\stapi\AppData\Local\Temp\cceaTiQN.s:2362   .text.app_sec_evt_handler:0000000000000a0a .L0 
C:\Users\stapi\AppData\Local\Temp\cceaTiQN.s:2365   .text.app_sec_evt_handler:0000000000000a10 .L0 
C:\Users\stapi\AppData\Local\Temp\cceaTiQN.s:2369   .text.app_sec_evt_handler:0000000000000a1c .L0 
C:\Users\stapi\AppData\Local\Temp\cceaTiQN.s:2380   .text.app_sec_evt_handler:0000000000000a2c .L0 
C:\Users\stapi\AppData\Local\Temp\cceaTiQN.s:2381   .text.app_sec_evt_handler:0000000000000a2c .L0 
C:\Users\stapi\AppData\Local\Temp\cceaTiQN.s:2382   .text.app_sec_evt_handler:0000000000000a2c .L0 
C:\Users\stapi\AppData\Local\Temp\cceaTiQN.s:2383   .text.app_sec_evt_handler:0000000000000a2c .L0 
C:\Users\stapi\AppData\Local\Temp\cceaTiQN.s:2388   .text.app_sec_evt_handler:0000000000000a3a .L0 
C:\Users\stapi\AppData\Local\Temp\cceaTiQN.s:2398   .text.app_sec_evt_handler:0000000000000a4a .L0 
C:\Users\stapi\AppData\Local\Temp\cceaTiQN.s:2404   .text.app_sec_evt_handler:0000000000000a4c .L0 
C:\Users\stapi\AppData\Local\Temp\cceaTiQN.s:2407   .text.app_sec_evt_handler:0000000000000a52 .L0 
C:\Users\stapi\AppData\Local\Temp\cceaTiQN.s:2411   .text.app_sec_evt_handler:0000000000000a54 .L0 
C:\Users\stapi\AppData\Local\Temp\cceaTiQN.s:2412   .text.app_sec_evt_handler:0000000000000a54 .L0 
C:\Users\stapi\AppData\Local\Temp\cceaTiQN.s:2415   .text.app_sec_evt_handler:0000000000000a5c .L0 
C:\Users\stapi\AppData\Local\Temp\cceaTiQN.s:2422   .text.app_sec_evt_handler:0000000000000a70 .L0 
C:\Users\stapi\AppData\Local\Temp\cceaTiQN.s:2423   .text.app_sec_evt_handler:0000000000000a70 .L0 
C:\Users\stapi\AppData\Local\Temp\cceaTiQN.s:2424   .text.app_sec_evt_handler:0000000000000a70 .L0 
C:\Users\stapi\AppData\Local\Temp\cceaTiQN.s:2427   .text.app_sec_evt_handler:0000000000000a72 .L0 
C:\Users\stapi\AppData\Local\Temp\cceaTiQN.s:2428   .text.app_sec_evt_handler:0000000000000a72 .L0 
C:\Users\stapi\AppData\Local\Temp\cceaTiQN.s:2430   .text.app_sec_evt_handler:0000000000000a76 .L0 
C:\Users\stapi\AppData\Local\Temp\cceaTiQN.s:2431   .text.app_sec_evt_handler:0000000000000a76 .L0 
C:\Users\stapi\AppData\Local\Temp\cceaTiQN.s:2435   .text.app_sec_evt_handler:0000000000000a80 .L0 
C:\Users\stapi\AppData\Local\Temp\cceaTiQN.s:2443   .text.app_sec_evt_handler:0000000000000a94 .L0 
C:\Users\stapi\AppData\Local\Temp\cceaTiQN.s:2450   .text.app_sec_evt_handler:0000000000000a9c .L0 
C:\Users\stapi\AppData\Local\Temp\cceaTiQN.s:2451   .text.app_sec_evt_handler:0000000000000a9c .L0 
C:\Users\stapi\AppData\Local\Temp\cceaTiQN.s:2454   .text.app_sec_evt_handler:0000000000000aa4 .L0 
C:\Users\stapi\AppData\Local\Temp\cceaTiQN.s:2460   .text.app_sec_evt_handler:0000000000000ab4 .L0 
C:\Users\stapi\AppData\Local\Temp\cceaTiQN.s:2461   .text.app_sec_evt_handler:0000000000000ab4 .L0 
C:\Users\stapi\AppData\Local\Temp\cceaTiQN.s:2462   .text.app_sec_evt_handler:0000000000000ab4 .L0 
C:\Users\stapi\AppData\Local\Temp\cceaTiQN.s:2463   .text.app_sec_evt_handler:0000000000000ab4 .L0 
C:\Users\stapi\AppData\Local\Temp\cceaTiQN.s:2467   .text.app_sec_evt_handler:0000000000000aba .L0 
C:\Users\stapi\AppData\Local\Temp\cceaTiQN.s:2468   .text.app_sec_evt_handler:0000000000000aba .L0 
C:\Users\stapi\AppData\Local\Temp\cceaTiQN.s:2472   .text.app_sec_evt_handler:0000000000000ac4 .L0 
C:\Users\stapi\AppData\Local\Temp\cceaTiQN.s:2480   .text.app_sec_evt_handler:0000000000000ace .L0 
C:\Users\stapi\AppData\Local\Temp\cceaTiQN.s:2481   .text.app_sec_evt_handler:0000000000000ace .L0 
C:\Users\stapi\AppData\Local\Temp\cceaTiQN.s:2486   .text.app_sec_evt_handler:0000000000000adc .L0 
C:\Users\stapi\AppData\Local\Temp\cceaTiQN.s:2493   .text.app_sec_evt_handler:0000000000000af4 .L0 
C:\Users\stapi\AppData\Local\Temp\cceaTiQN.s:2499   .text.app_sec_evt_handler:0000000000000af8 .L0 
C:\Users\stapi\AppData\Local\Temp\cceaTiQN.s:2500   .text.app_sec_evt_handler:0000000000000af8 .L0 
C:\Users\stapi\AppData\Local\Temp\cceaTiQN.s:2501   .text.app_sec_evt_handler:0000000000000af8 .L0 
C:\Users\stapi\AppData\Local\Temp\cceaTiQN.s:2504   .text.app_sec_evt_handler:0000000000000afc .L0 
C:\Users\stapi\AppData\Local\Temp\cceaTiQN.s:2505   .text.app_sec_evt_handler:0000000000000afc .L0 
C:\Users\stapi\AppData\Local\Temp\cceaTiQN.s:2508   .text.app_sec_evt_handler:0000000000000b04 .L0 
C:\Users\stapi\AppData\Local\Temp\cceaTiQN.s:2509   .text.app_sec_evt_handler:0000000000000b04 .L0 
C:\Users\stapi\AppData\Local\Temp\cceaTiQN.s:2513   .text.app_sec_evt_handler:0000000000000b0e .L0 
C:\Users\stapi\AppData\Local\Temp\cceaTiQN.s:2519   .text.app_sec_evt_handler:0000000000000b1e .L0 
C:\Users\stapi\AppData\Local\Temp\cceaTiQN.s:2520   .text.app_sec_evt_handler:0000000000000b1e .L0 
C:\Users\stapi\AppData\Local\Temp\cceaTiQN.s:2521   .text.app_sec_evt_handler:0000000000000b1e .L0 
C:\Users\stapi\AppData\Local\Temp\cceaTiQN.s:2526   .text.app_sec_evt_handler:0000000000000b2a .L0 
C:\Users\stapi\AppData\Local\Temp\cceaTiQN.s:2528   .text.app_sec_evt_handler:0000000000000b2e .L0 
C:\Users\stapi\AppData\Local\Temp\cceaTiQN.s:2529   .text.app_sec_evt_handler:0000000000000b2e .L0 
C:\Users\stapi\AppData\Local\Temp\cceaTiQN.s:2533   .text.app_sec_evt_handler:0000000000000b38 .L0 
C:\Users\stapi\AppData\Local\Temp\cceaTiQN.s:2538   .text.app_sec_evt_handler:0000000000000b44 .L0 
C:\Users\stapi\AppData\Local\Temp\cceaTiQN.s:2539   .text.app_sec_evt_handler:0000000000000b44 .L0 
C:\Users\stapi\AppData\Local\Temp\cceaTiQN.s:2540   .text.app_sec_evt_handler:0000000000000b44 .L0 
C:\Users\stapi\AppData\Local\Temp\cceaTiQN.s:2541   .text.app_sec_evt_handler:0000000000000b44 .L0 
C:\Users\stapi\AppData\Local\Temp\cceaTiQN.s:2542   .text.app_sec_evt_handler:0000000000000b44 .L0 
C:\Users\stapi\AppData\Local\Temp\cceaTiQN.s:2543   .text.app_sec_evt_handler:0000000000000b44 .L0 
C:\Users\stapi\AppData\Local\Temp\cceaTiQN.s:2544   .text.app_sec_evt_handler:0000000000000b44 .L0 
C:\Users\stapi\AppData\Local\Temp\cceaTiQN.s:2545   .text.app_sec_evt_handler:0000000000000b44 .L0 
C:\Users\stapi\AppData\Local\Temp\cceaTiQN.s:2549   .text.app_sec_evt_handler:0000000000000b46 .L0 
C:\Users\stapi\AppData\Local\Temp\cceaTiQN.s:2569   .text.app_sec_send_encrypt_req:0000000000000000 app_sec_send_encrypt_req
C:\Users\stapi\AppData\Local\Temp\cceaTiQN.s:2572   .text.app_sec_send_encrypt_req:0000000000000000 .L0 
C:\Users\stapi\AppData\Local\Temp\cceaTiQN.s:2574   .text.app_sec_send_encrypt_req:0000000000000000 .L0 
C:\Users\stapi\AppData\Local\Temp\cceaTiQN.s:2575   .text.app_sec_send_encrypt_req:0000000000000008 .L0 
C:\Users\stapi\AppData\Local\Temp\cceaTiQN.s:2576   .text.app_sec_send_encrypt_req:0000000000000008 .L0 
C:\Users\stapi\AppData\Local\Temp\cceaTiQN.s:2577   .text.app_sec_send_encrypt_req:0000000000000008 .L0 
C:\Users\stapi\AppData\Local\Temp\cceaTiQN.s:2579   .text.app_sec_send_encrypt_req:0000000000000008 .L0 
C:\Users\stapi\AppData\Local\Temp\cceaTiQN.s:2580   .text.app_sec_send_encrypt_req:0000000000000008 .L0 
C:\Users\stapi\AppData\Local\Temp\cceaTiQN.s:2582   .text.app_sec_send_encrypt_req:000000000000000a .L0 
C:\Users\stapi\AppData\Local\Temp\cceaTiQN.s:2585   .text.app_sec_send_encrypt_req:0000000000000012 .L0 
C:\Users\stapi\AppData\Local\Temp\cceaTiQN.s:2586   .text.app_sec_send_encrypt_req:0000000000000012 .L0 
C:\Users\stapi\AppData\Local\Temp\cceaTiQN.s:2588   .text.app_sec_send_encrypt_req:0000000000000014 .L0 
C:\Users\stapi\AppData\Local\Temp\cceaTiQN.s:2589   .text.app_sec_send_encrypt_req:0000000000000014 .L0 
C:\Users\stapi\AppData\Local\Temp\cceaTiQN.s:2594   .text.app_sec_send_encrypt_req:0000000000000022 .L0 
C:\Users\stapi\AppData\Local\Temp\cceaTiQN.s:2599   .text.app_sec_send_encrypt_req:000000000000002a .L0 
C:\Users\stapi\AppData\Local\Temp\cceaTiQN.s:2603   .text.app_sec_send_encrypt_req:0000000000000032 .L0 
C:\Users\stapi\AppData\Local\Temp\cceaTiQN.s:2604   .text.app_sec_send_encrypt_req:0000000000000032 .L0 
C:\Users\stapi\AppData\Local\Temp\cceaTiQN.s:2605   .text.app_sec_send_encrypt_req:000000000000003a .L0 
C:\Users\stapi\AppData\Local\Temp\cceaTiQN.s:2606   .text.app_sec_send_encrypt_req:000000000000003a .L0 
C:\Users\stapi\AppData\Local\Temp\cceaTiQN.s:2607   .text.app_sec_send_encrypt_req:000000000000003a .L0 
C:\Users\stapi\AppData\Local\Temp\cceaTiQN.s:2608   .text.app_sec_send_encrypt_req:000000000000003a .L0 
C:\Users\stapi\AppData\Local\Temp\cceaTiQN.s:2611   .text.app_sec_send_encrypt_req:000000000000003a .L0 
C:\Users\stapi\AppData\Local\Temp\cceaTiQN.s:2613   .text.app_sec_send_encrypt_req:000000000000003a .L0 
C:\Users\stapi\AppData\Local\Temp\cceaTiQN.s:2614   .text.app_sec_send_encrypt_req:000000000000003a .L0 
C:\Users\stapi\AppData\Local\Temp\cceaTiQN.s:2617   .text.app_sec_send_encrypt_req:0000000000000040 .L0 
C:\Users\stapi\AppData\Local\Temp\cceaTiQN.s:2618   .text.app_sec_send_encrypt_req:0000000000000040 .L0 
C:\Users\stapi\AppData\Local\Temp\cceaTiQN.s:2623   .text.app_sec_send_encrypt_req:000000000000004e .L0 
C:\Users\stapi\AppData\Local\Temp\cceaTiQN.s:2630   .text.app_sec_send_encrypt_req:0000000000000058 .L0 
C:\Users\stapi\AppData\Local\Temp\cceaTiQN.s:2631   .text.app_sec_send_encrypt_req:0000000000000058 .L0 
C:\Users\stapi\AppData\Local\Temp\cceaTiQN.s:2634   .text.app_sec_send_encrypt_req:000000000000005c .L0 
C:\Users\stapi\AppData\Local\Temp\cceaTiQN.s:2636   .text.app_sec_send_encrypt_req:000000000000005e .L0 
C:\Users\stapi\AppData\Local\Temp\cceaTiQN.s:2637   .text.app_sec_send_encrypt_req:000000000000005e .L0 
C:\Users\stapi\AppData\Local\Temp\cceaTiQN.s:2642   .text.app_sec_send_encrypt_req:000000000000006c .L0 
C:\Users\stapi\AppData\Local\Temp\cceaTiQN.s:2649   .text.app_sec_send_encrypt_req:0000000000000076 .L0 
C:\Users\stapi\AppData\Local\Temp\cceaTiQN.s:2650   .text.app_sec_send_encrypt_req:0000000000000076 .L0 
C:\Users\stapi\AppData\Local\Temp\cceaTiQN.s:2656   .text.app_sec_send_encrypt_req:0000000000000084 .L0 
C:\Users\stapi\AppData\Local\Temp\cceaTiQN.s:2658   .text.app_sec_send_encrypt_req:0000000000000086 .L0 
C:\Users\stapi\AppData\Local\Temp\cceaTiQN.s:2659   .text.app_sec_send_encrypt_req:0000000000000086 .L0 
C:\Users\stapi\AppData\Local\Temp\cceaTiQN.s:2664   .text.app_sec_send_encrypt_req:0000000000000094 .L0 
C:\Users\stapi\AppData\Local\Temp\cceaTiQN.s:2667   .text.app_sec_send_encrypt_req:000000000000009e .L0 
C:\Users\stapi\AppData\Local\Temp\cceaTiQN.s:2681   .text.app_sec_input_passkey:0000000000000000 app_sec_input_passkey
C:\Users\stapi\AppData\Local\Temp\cceaTiQN.s:2684   .text.app_sec_input_passkey:0000000000000000 .L0 
C:\Users\stapi\AppData\Local\Temp\cceaTiQN.s:2686   .text.app_sec_input_passkey:0000000000000000 .L0 
C:\Users\stapi\AppData\Local\Temp\cceaTiQN.s:2687   .text.app_sec_input_passkey:0000000000000008 .L0 
C:\Users\stapi\AppData\Local\Temp\cceaTiQN.s:2688   .text.app_sec_input_passkey:0000000000000008 .L0 
C:\Users\stapi\AppData\Local\Temp\cceaTiQN.s:2689   .text.app_sec_input_passkey:0000000000000008 .L0 
C:\Users\stapi\AppData\Local\Temp\cceaTiQN.s:2690   .text.app_sec_input_passkey:0000000000000008 .L0 
C:\Users\stapi\AppData\Local\Temp\cceaTiQN.s:2692   .text.app_sec_input_passkey:0000000000000008 .L0 
C:\Users\stapi\AppData\Local\Temp\cceaTiQN.s:2693   .text.app_sec_input_passkey:0000000000000008 .L0 
C:\Users\stapi\AppData\Local\Temp\cceaTiQN.s:2696   .text.app_sec_input_passkey:000000000000000c .L0 
C:\Users\stapi\AppData\Local\Temp\cceaTiQN.s:2699   .text.app_sec_input_passkey:0000000000000014 .L0 
C:\Users\stapi\AppData\Local\Temp\cceaTiQN.s:2701   .text.app_sec_input_passkey:0000000000000018 .L0 
C:\Users\stapi\AppData\Local\Temp\cceaTiQN.s:2704   .text.app_sec_input_passkey:000000000000001e .L0 
C:\Users\stapi\AppData\Local\Temp\cceaTiQN.s:2706   .text.app_sec_input_passkey:0000000000000020 .L0 
C:\Users\stapi\AppData\Local\Temp\cceaTiQN.s:2707   .text.app_sec_input_passkey:0000000000000020 .L0 
C:\Users\stapi\AppData\Local\Temp\cceaTiQN.s:2709   .text.app_sec_input_passkey:0000000000000024 .L0 
C:\Users\stapi\AppData\Local\Temp\cceaTiQN.s:2716   .text.app_sec_input_passkey:0000000000000034 .L0 
C:\Users\stapi\AppData\Local\Temp\cceaTiQN.s:2717   .text.app_sec_input_passkey:0000000000000034 .L0 
C:\Users\stapi\AppData\Local\Temp\cceaTiQN.s:2721   .text.app_sec_input_passkey:0000000000000038 .L0 
C:\Users\stapi\AppData\Local\Temp\cceaTiQN.s:2725   .text.app_sec_input_passkey:0000000000000042 .L0 
C:\Users\stapi\AppData\Local\Temp\cceaTiQN.s:2726   .text.app_sec_input_passkey:000000000000004a .L0 
C:\Users\stapi\AppData\Local\Temp\cceaTiQN.s:2727   .text.app_sec_input_passkey:000000000000004a .L0 
C:\Users\stapi\AppData\Local\Temp\cceaTiQN.s:2728   .text.app_sec_input_passkey:000000000000004a .L0 
C:\Users\stapi\AppData\Local\Temp\cceaTiQN.s:2729   .text.app_sec_input_passkey:000000000000004a .L0 
C:\Users\stapi\AppData\Local\Temp\cceaTiQN.s:2730   .text.app_sec_input_passkey:000000000000004a .L0 
C:\Users\stapi\AppData\Local\Temp\cceaTiQN.s:2733   .text.app_sec_input_passkey:000000000000004a .L0 
C:\Users\stapi\AppData\Local\Temp\cceaTiQN.s:2735   .text.app_sec_input_passkey:000000000000004a .L0 
C:\Users\stapi\AppData\Local\Temp\cceaTiQN.s:2736   .text.app_sec_input_passkey:000000000000004a .L0 
C:\Users\stapi\AppData\Local\Temp\cceaTiQN.s:2738   .text.app_sec_input_passkey:000000000000004e .L0 
C:\Users\stapi\AppData\Local\Temp\cceaTiQN.s:2746   .text.app_sec_input_passkey:0000000000000060 .L0 
C:\Users\stapi\AppData\Local\Temp\cceaTiQN.s:2747   .text.app_sec_input_passkey:0000000000000060 .L0 
C:\Users\stapi\AppData\Local\Temp\cceaTiQN.s:2750   .text.app_sec_input_passkey:0000000000000066 .L0 
C:\Users\stapi\AppData\Local\Temp\cceaTiQN.s:2761   .text.app_sec_input_oob:0000000000000000 app_sec_input_oob
C:\Users\stapi\AppData\Local\Temp\cceaTiQN.s:2764   .text.app_sec_input_oob:0000000000000000 .L0 
C:\Users\stapi\AppData\Local\Temp\cceaTiQN.s:2766   .text.app_sec_input_oob:0000000000000000 .L0 
C:\Users\stapi\AppData\Local\Temp\cceaTiQN.s:2767   .text.app_sec_input_oob:0000000000000008 .L0 
C:\Users\stapi\AppData\Local\Temp\cceaTiQN.s:2768   .text.app_sec_input_oob:0000000000000008 .L0 
C:\Users\stapi\AppData\Local\Temp\cceaTiQN.s:2769   .text.app_sec_input_oob:0000000000000008 .L0 
C:\Users\stapi\AppData\Local\Temp\cceaTiQN.s:2771   .text.app_sec_input_oob:0000000000000008 .L0 
C:\Users\stapi\AppData\Local\Temp\cceaTiQN.s:2772   .text.app_sec_input_oob:0000000000000008 .L0 
C:\Users\stapi\AppData\Local\Temp\cceaTiQN.s:2773   .text.app_sec_input_oob:000000000000000a .L0 
C:\Users\stapi\AppData\Local\Temp\cceaTiQN.s:2775   .text.app_sec_input_oob:000000000000000a .L0 
C:\Users\stapi\AppData\Local\Temp\cceaTiQN.s:2778   .text.app_sec_input_oob:000000000000000e .L0 
C:\Users\stapi\AppData\Local\Temp\cceaTiQN.s:2781   .text.app_sec_input_oob:0000000000000016 .L0 
C:\Users\stapi\AppData\Local\Temp\cceaTiQN.s:2782   .text.app_sec_input_oob:0000000000000016 .L0 
C:\Users\stapi\AppData\Local\Temp\cceaTiQN.s:2784   .text.app_sec_input_oob:0000000000000018 .L0 
C:\Users\stapi\AppData\Local\Temp\cceaTiQN.s:2786   .text.app_sec_input_oob:000000000000001a .L0 
C:\Users\stapi\AppData\Local\Temp\cceaTiQN.s:2788   .text.app_sec_input_oob:000000000000001c .L0 
C:\Users\stapi\AppData\Local\Temp\cceaTiQN.s:2789   .text.app_sec_input_oob:000000000000001c .L0 
C:\Users\stapi\AppData\Local\Temp\cceaTiQN.s:2794   .text.app_sec_input_oob:000000000000002a .L0 
C:\Users\stapi\AppData\Local\Temp\cceaTiQN.s:2802   .text.app_sec_input_oob:000000000000003c .L0 
C:\Users\stapi\AppData\Local\Temp\cceaTiQN.s:2803   .text.app_sec_input_oob:000000000000003c .L0 
C:\Users\stapi\AppData\Local\Temp\cceaTiQN.s:2806   .text.app_sec_input_oob:000000000000003e .L0 
C:\Users\stapi\AppData\Local\Temp\cceaTiQN.s:2810   .text.app_sec_input_oob:0000000000000048 .L0 
C:\Users\stapi\AppData\Local\Temp\cceaTiQN.s:2811   .text.app_sec_input_oob:000000000000004a .L0 
C:\Users\stapi\AppData\Local\Temp\cceaTiQN.s:2814   .text.app_sec_input_oob:0000000000000052 .L0 
C:\Users\stapi\AppData\Local\Temp\cceaTiQN.s:2815   .text.app_sec_input_oob:0000000000000052 .L0 
C:\Users\stapi\AppData\Local\Temp\cceaTiQN.s:2816   .text.app_sec_input_oob:0000000000000052 .L0 
C:\Users\stapi\AppData\Local\Temp\cceaTiQN.s:2817   .text.app_sec_input_oob:0000000000000052 .L0 
C:\Users\stapi\AppData\Local\Temp\cceaTiQN.s:2831   .text.app_sec_num_compare:0000000000000000 app_sec_num_compare
C:\Users\stapi\AppData\Local\Temp\cceaTiQN.s:2834   .text.app_sec_num_compare:0000000000000000 .L0 
C:\Users\stapi\AppData\Local\Temp\cceaTiQN.s:2836   .text.app_sec_num_compare:0000000000000000 .L0 
C:\Users\stapi\AppData\Local\Temp\cceaTiQN.s:2837   .text.app_sec_num_compare:0000000000000008 .L0 
C:\Users\stapi\AppData\Local\Temp\cceaTiQN.s:2838   .text.app_sec_num_compare:0000000000000008 .L0 
C:\Users\stapi\AppData\Local\Temp\cceaTiQN.s:2839   .text.app_sec_num_compare:0000000000000008 .L0 
C:\Users\stapi\AppData\Local\Temp\cceaTiQN.s:2840   .text.app_sec_num_compare:0000000000000008 .L0 
C:\Users\stapi\AppData\Local\Temp\cceaTiQN.s:2842   .text.app_sec_num_compare:0000000000000008 .L0 
C:\Users\stapi\AppData\Local\Temp\cceaTiQN.s:2843   .text.app_sec_num_compare:0000000000000008 .L0 
C:\Users\stapi\AppData\Local\Temp\cceaTiQN.s:2846   .text.app_sec_num_compare:000000000000000c .L0 
C:\Users\stapi\AppData\Local\Temp\cceaTiQN.s:2849   .text.app_sec_num_compare:0000000000000014 .L0 
C:\Users\stapi\AppData\Local\Temp\cceaTiQN.s:2851   .text.app_sec_num_compare:0000000000000018 .L0 
C:\Users\stapi\AppData\Local\Temp\cceaTiQN.s:2854   .text.app_sec_num_compare:000000000000001e .L0 
C:\Users\stapi\AppData\Local\Temp\cceaTiQN.s:2856   .text.app_sec_num_compare:0000000000000020 .L0 
C:\Users\stapi\AppData\Local\Temp\cceaTiQN.s:2857   .text.app_sec_num_compare:0000000000000020 .L0 
C:\Users\stapi\AppData\Local\Temp\cceaTiQN.s:2859   .text.app_sec_num_compare:0000000000000024 .L0 
C:\Users\stapi\AppData\Local\Temp\cceaTiQN.s:2866   .text.app_sec_num_compare:0000000000000034 .L0 
C:\Users\stapi\AppData\Local\Temp\cceaTiQN.s:2867   .text.app_sec_num_compare:0000000000000034 .L0 
C:\Users\stapi\AppData\Local\Temp\cceaTiQN.s:2870   .text.app_sec_num_compare:0000000000000036 .L0 
C:\Users\stapi\AppData\Local\Temp\cceaTiQN.s:2874   .text.app_sec_num_compare:0000000000000040 .L0 
C:\Users\stapi\AppData\Local\Temp\cceaTiQN.s:2875   .text.app_sec_num_compare:0000000000000048 .L0 
C:\Users\stapi\AppData\Local\Temp\cceaTiQN.s:2876   .text.app_sec_num_compare:0000000000000048 .L0 
C:\Users\stapi\AppData\Local\Temp\cceaTiQN.s:2877   .text.app_sec_num_compare:0000000000000048 .L0 
C:\Users\stapi\AppData\Local\Temp\cceaTiQN.s:2878   .text.app_sec_num_compare:0000000000000048 .L0 
C:\Users\stapi\AppData\Local\Temp\cceaTiQN.s:2879   .text.app_sec_num_compare:0000000000000048 .L0 
C:\Users\stapi\AppData\Local\Temp\cceaTiQN.s:2882   .text.app_sec_num_compare:0000000000000048 .L0 
C:\Users\stapi\AppData\Local\Temp\cceaTiQN.s:2884   .text.app_sec_num_compare:0000000000000048 .L0 
C:\Users\stapi\AppData\Local\Temp\cceaTiQN.s:2885   .text.app_sec_num_compare:0000000000000048 .L0 
C:\Users\stapi\AppData\Local\Temp\cceaTiQN.s:2887   .text.app_sec_num_compare:000000000000004c .L0 
C:\Users\stapi\AppData\Local\Temp\cceaTiQN.s:2895   .text.app_sec_num_compare:000000000000005e .L0 
C:\Users\stapi\AppData\Local\Temp\cceaTiQN.s:2896   .text.app_sec_num_compare:000000000000005e .L0 
C:\Users\stapi\AppData\Local\Temp\cceaTiQN.s:2898   .text.app_sec_num_compare:0000000000000062 .L0 
C:\Users\stapi\AppData\Local\Temp\cceaTiQN.s:2905   .text.app_set_oob_data:0000000000000000 app_set_oob_data
C:\Users\stapi\AppData\Local\Temp\cceaTiQN.s:2908   .text.app_set_oob_data:0000000000000000 .L0 
C:\Users\stapi\AppData\Local\Temp\cceaTiQN.s:2910   .text.app_set_oob_data:0000000000000000 .L0 
C:\Users\stapi\AppData\Local\Temp\cceaTiQN.s:2911   .text.app_set_oob_data:0000000000000008 .L0 
C:\Users\stapi\AppData\Local\Temp\cceaTiQN.s:2912   .text.app_set_oob_data:0000000000000008 .L0 
C:\Users\stapi\AppData\Local\Temp\cceaTiQN.s:2913   .text.app_set_oob_data:0000000000000008 .L0 
C:\Users\stapi\AppData\Local\Temp\cceaTiQN.s:2914   .text.app_set_oob_data:0000000000000008 .L0 
C:\Users\stapi\AppData\Local\Temp\cceaTiQN.s:2916   .text.app_set_oob_data:0000000000000008 .L0 
C:\Users\stapi\AppData\Local\Temp\cceaTiQN.s:2919   .text.app_set_oob_data:0000000000000010 .L0 
C:\Users\stapi\AppData\Local\Temp\cceaTiQN.s:2921   .text.app_set_oob_data:0000000000000012 .L0 
C:\Users\stapi\AppData\Local\Temp\cceaTiQN.s:2929   .text.app_set_oob_data:0000000000000022 .L0 
C:\Users\stapi\AppData\Local\Temp\cceaTiQN.s:2935   .text.app_set_oob_data:0000000000000032 .L0 
C:\Users\stapi\AppData\Local\Temp\cceaTiQN.s:2936   .text.app_set_oob_data:000000000000003a .L0 
C:\Users\stapi\AppData\Local\Temp\cceaTiQN.s:2937   .text.app_set_oob_data:000000000000003a .L0 
C:\Users\stapi\AppData\Local\Temp\cceaTiQN.s:2938   .text.app_set_oob_data:000000000000003a .L0 
C:\Users\stapi\AppData\Local\Temp\cceaTiQN.s:2939   .text.app_set_oob_data:000000000000003a .L0 
C:\Users\stapi\AppData\Local\Temp\cceaTiQN.s:2940   .text.app_set_oob_data:000000000000003a .L0 
C:\Users\stapi\AppData\Local\Temp\cceaTiQN.s:2947   .text.app_gen_oob_data:0000000000000000 app_gen_oob_data
C:\Users\stapi\AppData\Local\Temp\cceaTiQN.s:2950   .text.app_gen_oob_data:0000000000000000 .L0 
C:\Users\stapi\AppData\Local\Temp\cceaTiQN.s:2951   .text.app_gen_oob_data:0000000000000000 .L0 
C:\Users\stapi\AppData\Local\Temp\cceaTiQN.s:2952   .text.app_gen_oob_data:0000000000000000 .L0 
C:\Users\stapi\AppData\Local\Temp\cceaTiQN.s:2954   .text.app_gen_oob_data:0000000000000008 .L0 
C:\Users\stapi\AppData\Local\Temp\cceaTiQN.s:2961   .text.app_sec_user_key_mgr_get:0000000000000000 app_sec_user_key_mgr_get
C:\Users\stapi\AppData\Local\Temp\cceaTiQN.s:2964   .text.app_sec_user_key_mgr_get:0000000000000000 .L0 
C:\Users\stapi\AppData\Local\Temp\cceaTiQN.s:2965   .text.app_sec_user_key_mgr_get:0000000000000000 .L0 
C:\Users\stapi\AppData\Local\Temp\cceaTiQN.s:2966   .text.app_sec_user_key_mgr_get:0000000000000000 .L0 
C:\Users\stapi\AppData\Local\Temp\cceaTiQN.s:2967   .text.app_sec_user_key_mgr_get:0000000000000000 .L0 
C:\Users\stapi\AppData\Local\Temp\cceaTiQN.s:2969   .text.app_sec_user_key_mgr_get:0000000000000004 .L0 
C:\Users\stapi\AppData\Local\Temp\cceaTiQN.s:2974   .bss.app_sec_env:0000000000000000 .LANCHOR0
C:\Users\stapi\AppData\Local\Temp\cceaTiQN.s:2977   .bss.app_sec_env:0000000000000000 app_sec_env
C:\Users\stapi\AppData\Local\Temp\cceaTiQN.s:2981   .bss.pairing_cb:0000000000000000 .LANCHOR1
C:\Users\stapi\AppData\Local\Temp\cceaTiQN.s:2984   .bss.pairing_cb:0000000000000000 pairing_cb
C:\Users\stapi\AppData\Local\Temp\cceaTiQN.s:61     .text.app_sec_mgr_reset:000000000000005c .L0 
C:\Users\stapi\AppData\Local\Temp\cceaTiQN.s:75     .text.app_sec_mgr_init:0000000000000008 .L0 
C:\Users\stapi\AppData\Local\Temp\cceaTiQN.s:91     .text.app_sec_mgr_deinit:0000000000000010 .L0 
C:\Users\stapi\AppData\Local\Temp\cceaTiQN.s:128    .text.app_sec_set_authen:0000000000000026 .L0 
C:\Users\stapi\AppData\Local\Temp\cceaTiQN.s:144    .text.app_sec_need_authen_bond:000000000000000a .L0 
C:\Users\stapi\AppData\Local\Temp\cceaTiQN.s:195    .text.app_sec_is_pairing_device:000000000000003e .L0 
C:\Users\stapi\AppData\Local\Temp\cceaTiQN.s:252    .text.app_sec_cancel_bonding:000000000000004e .L0 
C:\Users\stapi\AppData\Local\Temp\cceaTiQN.s:335    .text.app_sec_create_bond:0000000000000064 .L0 
C:\Users\stapi\AppData\Local\Temp\cceaTiQN.s:427    .text.app_sec_remove_bond:0000000000000082 .L0 
C:\Users\stapi\AppData\Local\Temp\cceaTiQN.s:497    .text.app_sec_send_security_req:000000000000005c .L0 
C:\Users\stapi\AppData\Local\Temp\cceaTiQN.s:620    .text.app_sec_send_bond_req:00000000000000aa .L0 
C:\Users\stapi\AppData\Local\Temp\cceaTiQN.s:699    .text.app_security_req_info_hdlr:0000000000000062 .L0 
C:\Users\stapi\AppData\Local\Temp\cceaTiQN.s:2552   .text.app_sec_evt_handler:0000000000000b46 .L0 
C:\Users\stapi\AppData\Local\Temp\cceaTiQN.s:2670   .text.app_sec_send_encrypt_req:000000000000009e .L0 
C:\Users\stapi\AppData\Local\Temp\cceaTiQN.s:2753   .text.app_sec_input_passkey:0000000000000066 .L0 
C:\Users\stapi\AppData\Local\Temp\cceaTiQN.s:2820   .text.app_sec_input_oob:0000000000000052 .L0 
C:\Users\stapi\AppData\Local\Temp\cceaTiQN.s:2901   .text.app_sec_num_compare:0000000000000062 .L0 
C:\Users\stapi\AppData\Local\Temp\cceaTiQN.s:2943   .text.app_set_oob_data:000000000000003a .L0 
C:\Users\stapi\AppData\Local\Temp\cceaTiQN.s:2957   .text.app_gen_oob_data:0000000000000008 .L0 
C:\Users\stapi\AppData\Local\Temp\cceaTiQN.s:2972   .text.app_sec_user_key_mgr_get:0000000000000004 .L0 
                     .debug_frame:0000000000000000 .L0 
C:\Users\stapi\AppData\Local\Temp\cceaTiQN.s:187    .text.app_sec_is_pairing_device:000000000000003a .L11
C:\Users\stapi\AppData\Local\Temp\cceaTiQN.s:179    .text.app_sec_is_pairing_device:0000000000000030 .L10
C:\Users\stapi\AppData\Local\Temp\cceaTiQN.s:242    .text.app_sec_cancel_bonding:0000000000000046 .L14
C:\Users\stapi\AppData\Local\Temp\cceaTiQN.s:230    .text.app_sec_cancel_bonding:0000000000000030 .L15
C:\Users\stapi\AppData\Local\Temp\cceaTiQN.s:234    .text.app_sec_cancel_bonding:0000000000000038 .L16
C:\Users\stapi\AppData\Local\Temp\cceaTiQN.s:291    .text.app_sec_create_bond:0000000000000024 .L24
C:\Users\stapi\AppData\Local\Temp\cceaTiQN.s:278    .text.app_sec_create_bond:0000000000000018 .L26
C:\Users\stapi\AppData\Local\Temp\cceaTiQN.s:281    .text.app_sec_create_bond:000000000000001a .L25
C:\Users\stapi\AppData\Local\Temp\cceaTiQN.s:337    .rodata.app_sec_remove_bond.str1.4:0000000000000000 .LC0
C:\Users\stapi\AppData\Local\Temp\cceaTiQN.s:387    .text.app_sec_remove_bond:000000000000003c .L29
C:\Users\stapi\AppData\Local\Temp\cceaTiQN.s:411    .text.app_sec_remove_bond:0000000000000062 .L30
C:\Users\stapi\AppData\Local\Temp\cceaTiQN.s:399    .text.app_sec_remove_bond:0000000000000048 .L31
C:\Users\stapi\AppData\Local\Temp\cceaTiQN.s:429    .rodata.app_sec_send_security_req.str1.4:0000000000000000 .LC1
C:\Users\stapi\AppData\Local\Temp\cceaTiQN.s:461    .text.app_sec_send_security_req:0000000000000022 .L35
C:\Users\stapi\AppData\Local\Temp\cceaTiQN.s:470    .text.app_sec_send_security_req:000000000000002c .L36
C:\Users\stapi\AppData\Local\Temp\cceaTiQN.s:489    .text.app_sec_send_security_req:0000000000000054 .L34
C:\Users\stapi\AppData\Local\Temp\cceaTiQN.s:499    .rodata.app_sec_send_bond_req.str1.4:0000000000000000 .LC2
C:\Users\stapi\AppData\Local\Temp\cceaTiQN.s:534    .text.app_sec_send_bond_req:0000000000000022 .L49
C:\Users\stapi\AppData\Local\Temp\cceaTiQN.s:544    .text.app_sec_send_bond_req:0000000000000034 .L50
C:\Users\stapi\AppData\Local\Temp\cceaTiQN.s:555    .text.app_sec_send_bond_req:0000000000000046 .L51
C:\Users\stapi\AppData\Local\Temp\cceaTiQN.s:577    .text.app_sec_send_bond_req:0000000000000068 .L71
C:\Users\stapi\AppData\Local\Temp\cceaTiQN.s:589    .text.app_sec_send_bond_req:0000000000000076 .L54
C:\Users\stapi\AppData\Local\Temp\cceaTiQN.s:610    .text.app_sec_send_bond_req:00000000000000a0 .L48
C:\Users\stapi\AppData\Local\Temp\cceaTiQN.s:622    .rodata.app_security_req_info_hdlr.str1.4:0000000000000000 .LC3
C:\Users\stapi\AppData\Local\Temp\cceaTiQN.s:673    .text.app_security_req_info_hdlr:000000000000003e .L73
C:\Users\stapi\AppData\Local\Temp\cceaTiQN.s:663    .text.app_security_req_info_hdlr:0000000000000036 .L72
C:\Users\stapi\AppData\Local\Temp\cceaTiQN.s:691    .text.app_security_req_info_hdlr:0000000000000058 .L75
C:\Users\stapi\AppData\Local\Temp\cceaTiQN.s:856    .rodata.app_sec_evt_handler:0000000000000000 .L80
C:\Users\stapi\AppData\Local\Temp\cceaTiQN.s:701    .rodata.app_sec_evt_handler.str1.4:0000000000000000 .LC4
C:\Users\stapi\AppData\Local\Temp\cceaTiQN.s:704    .rodata.app_sec_evt_handler.str1.4:000000000000002c .LC5
C:\Users\stapi\AppData\Local\Temp\cceaTiQN.s:713    .rodata.app_sec_evt_handler.str1.4:00000000000000b8 .LC8
C:\Users\stapi\AppData\Local\Temp\cceaTiQN.s:716    .rodata.app_sec_evt_handler.str1.4:00000000000000e0 .LC9
C:\Users\stapi\AppData\Local\Temp\cceaTiQN.s:719    .rodata.app_sec_evt_handler.str1.4:0000000000000110 .LC10
C:\Users\stapi\AppData\Local\Temp\cceaTiQN.s:722    .rodata.app_sec_evt_handler.str1.4:0000000000000114 .LC11
C:\Users\stapi\AppData\Local\Temp\cceaTiQN.s:725    .rodata.app_sec_evt_handler.str1.4:0000000000000118 .LC12
C:\Users\stapi\AppData\Local\Temp\cceaTiQN.s:728    .rodata.app_sec_evt_handler.str1.4:0000000000000148 .LC13
C:\Users\stapi\AppData\Local\Temp\cceaTiQN.s:731    .rodata.app_sec_evt_handler.str1.4:0000000000000158 .LC14
C:\Users\stapi\AppData\Local\Temp\cceaTiQN.s:734    .rodata.app_sec_evt_handler.str1.4:0000000000000188 .LC15
C:\Users\stapi\AppData\Local\Temp\cceaTiQN.s:737    .rodata.app_sec_evt_handler.str1.4:00000000000001bc .LC16
C:\Users\stapi\AppData\Local\Temp\cceaTiQN.s:740    .rodata.app_sec_evt_handler.str1.4:00000000000001e8 .LC17
C:\Users\stapi\AppData\Local\Temp\cceaTiQN.s:743    .rodata.app_sec_evt_handler.str1.4:000000000000021c .LC18
C:\Users\stapi\AppData\Local\Temp\cceaTiQN.s:746    .rodata.app_sec_evt_handler.str1.4:0000000000000240 .LC19
C:\Users\stapi\AppData\Local\Temp\cceaTiQN.s:749    .rodata.app_sec_evt_handler.str1.4:000000000000025c .LC20
C:\Users\stapi\AppData\Local\Temp\cceaTiQN.s:752    .rodata.app_sec_evt_handler.str1.4:0000000000000280 .LC21
C:\Users\stapi\AppData\Local\Temp\cceaTiQN.s:755    .rodata.app_sec_evt_handler.str1.4:00000000000002a8 .LC22
C:\Users\stapi\AppData\Local\Temp\cceaTiQN.s:758    .rodata.app_sec_evt_handler.str1.4:00000000000002c8 .LC23
C:\Users\stapi\AppData\Local\Temp\cceaTiQN.s:761    .rodata.app_sec_evt_handler.str1.4:00000000000002d0 .LC24
C:\Users\stapi\AppData\Local\Temp\cceaTiQN.s:764    .rodata.app_sec_evt_handler.str1.4:0000000000000300 .LC25
C:\Users\stapi\AppData\Local\Temp\cceaTiQN.s:767    .rodata.app_sec_evt_handler.str1.4:0000000000000328 .LC26
C:\Users\stapi\AppData\Local\Temp\cceaTiQN.s:770    .rodata.app_sec_evt_handler.str1.4:0000000000000348 .LC27
C:\Users\stapi\AppData\Local\Temp\cceaTiQN.s:773    .rodata.app_sec_evt_handler.str1.4:0000000000000374 .LC28
C:\Users\stapi\AppData\Local\Temp\cceaTiQN.s:776    .rodata.app_sec_evt_handler.str1.4:00000000000003a4 .LC29
C:\Users\stapi\AppData\Local\Temp\cceaTiQN.s:779    .rodata.app_sec_evt_handler.str1.4:00000000000003e4 .LC30
C:\Users\stapi\AppData\Local\Temp\cceaTiQN.s:782    .rodata.app_sec_evt_handler.str1.4:0000000000000404 .LC31
C:\Users\stapi\AppData\Local\Temp\cceaTiQN.s:785    .rodata.app_sec_evt_handler.str1.4:000000000000040c .LC32
C:\Users\stapi\AppData\Local\Temp\cceaTiQN.s:788    .rodata.app_sec_evt_handler.str1.4:000000000000042c .LC33
C:\Users\stapi\AppData\Local\Temp\cceaTiQN.s:791    .rodata.app_sec_evt_handler.str1.4:000000000000043c .LC34
C:\Users\stapi\AppData\Local\Temp\cceaTiQN.s:794    .rodata.app_sec_evt_handler.str1.4:0000000000000450 .LC35
C:\Users\stapi\AppData\Local\Temp\cceaTiQN.s:797    .rodata.app_sec_evt_handler.str1.4:0000000000000464 .LC36
C:\Users\stapi\AppData\Local\Temp\cceaTiQN.s:800    .rodata.app_sec_evt_handler.str1.4:0000000000000490 .LC37
C:\Users\stapi\AppData\Local\Temp\cceaTiQN.s:803    .rodata.app_sec_evt_handler.str1.4:00000000000004ac .LC38
C:\Users\stapi\AppData\Local\Temp\cceaTiQN.s:806    .rodata.app_sec_evt_handler.str1.4:00000000000004d8 .LC39
C:\Users\stapi\AppData\Local\Temp\cceaTiQN.s:809    .rodata.app_sec_evt_handler.str1.4:0000000000000504 .LC40
C:\Users\stapi\AppData\Local\Temp\cceaTiQN.s:812    .rodata.app_sec_evt_handler.str1.4:000000000000052c .LC41
C:\Users\stapi\AppData\Local\Temp\cceaTiQN.s:815    .rodata.app_sec_evt_handler.str1.4:000000000000055c .LC42
C:\Users\stapi\AppData\Local\Temp\cceaTiQN.s:818    .rodata.app_sec_evt_handler.str1.4:0000000000000574 .LC43
C:\Users\stapi\AppData\Local\Temp\cceaTiQN.s:821    .rodata.app_sec_evt_handler.str1.4:0000000000000580 .LC44
C:\Users\stapi\AppData\Local\Temp\cceaTiQN.s:707    .rodata.app_sec_evt_handler.str1.4:0000000000000058 .LC6
C:\Users\stapi\AppData\Local\Temp\cceaTiQN.s:710    .rodata.app_sec_evt_handler.str1.4:0000000000000090 .LC7
C:\Users\stapi\AppData\Local\Temp\cceaTiQN.s:2537   .text.app_sec_evt_handler:0000000000000b44 .L223
C:\Users\stapi\AppData\Local\Temp\cceaTiQN.s:2495   .text.app_sec_evt_handler:0000000000000af8 .L96
C:\Users\stapi\AppData\Local\Temp\cceaTiQN.s:2502   .text.app_sec_evt_handler:0000000000000afc .L97
C:\Users\stapi\AppData\Local\Temp\cceaTiQN.s:921    .text.app_sec_evt_handler:0000000000000070 .L103
C:\Users\stapi\AppData\Local\Temp\cceaTiQN.s:969    .text.app_sec_evt_handler:00000000000000a4 .L104
C:\Users\stapi\AppData\Local\Temp\cceaTiQN.s:979    .text.app_sec_evt_handler:00000000000000b6 .L105
C:\Users\stapi\AppData\Local\Temp\cceaTiQN.s:990    .text.app_sec_evt_handler:00000000000000c8 .L106
C:\Users\stapi\AppData\Local\Temp\cceaTiQN.s:1014   .text.app_sec_evt_handler:00000000000000ea .L107
C:\Users\stapi\AppData\Local\Temp\cceaTiQN.s:1025   .text.app_sec_evt_handler:00000000000000f4 .L226
C:\Users\stapi\AppData\Local\Temp\cceaTiQN.s:927    .text.app_sec_evt_handler:0000000000000076 .L227
C:\Users\stapi\AppData\Local\Temp\cceaTiQN.s:1074   .text.app_sec_evt_handler:000000000000013e .L110
C:\Users\stapi\AppData\Local\Temp\cceaTiQN.s:1061   .text.app_sec_evt_handler:000000000000012c .L111
C:\Users\stapi\AppData\Local\Temp\cceaTiQN.s:932    .text.app_sec_evt_handler:0000000000000082 .L77
C:\Users\stapi\AppData\Local\Temp\cceaTiQN.s:1125   .text.app_sec_evt_handler:00000000000001a8 .L112
C:\Users\stapi\AppData\Local\Temp\cceaTiQN.s:1145   .text.app_sec_evt_handler:00000000000001d2 .L113
C:\Users\stapi\AppData\Local\Temp\cceaTiQN.s:1175   .text.app_sec_evt_handler:00000000000001f8 .L114
C:\Users\stapi\AppData\Local\Temp\cceaTiQN.s:1162   .text.app_sec_evt_handler:00000000000001dc .L115
C:\Users\stapi\AppData\Local\Temp\cceaTiQN.s:1193   .text.app_sec_evt_handler:0000000000000218 .L116
C:\Users\stapi\AppData\Local\Temp\cceaTiQN.s:1067   .text.app_sec_evt_handler:0000000000000130 .L228
C:\Users\stapi\AppData\Local\Temp\cceaTiQN.s:1255   .text.app_sec_evt_handler:000000000000026c .L117
C:\Users\stapi\AppData\Local\Temp\cceaTiQN.s:1241   .text.app_sec_evt_handler:0000000000000266 .L118
C:\Users\stapi\AppData\Local\Temp\cceaTiQN.s:1276   .text.app_sec_evt_handler:0000000000000286 .L229
C:\Users\stapi\AppData\Local\Temp\cceaTiQN.s:1270   .text.app_sec_evt_handler:0000000000000282 .L119
C:\Users\stapi\AppData\Local\Temp\cceaTiQN.s:1316   .text.app_sec_evt_handler:00000000000002c4 .L120
C:\Users\stapi\AppData\Local\Temp\cceaTiQN.s:1310   .text.app_sec_evt_handler:00000000000002c0 .L121
C:\Users\stapi\AppData\Local\Temp\cceaTiQN.s:1246   .text.app_sec_evt_handler:0000000000000268 .L237
C:\Users\stapi\AppData\Local\Temp\cceaTiQN.s:1374   .text.app_sec_evt_handler:000000000000031c .L123
C:\Users\stapi\AppData\Local\Temp\cceaTiQN.s:1363   .text.app_sec_evt_handler:000000000000030a .L124
C:\Users\stapi\AppData\Local\Temp\cceaTiQN.s:1326   .text.app_sec_evt_handler:00000000000002d4 .L231
C:\Users\stapi\AppData\Local\Temp\cceaTiQN.s:1421   .text.app_sec_evt_handler:000000000000036a .L126
C:\Users\stapi\AppData\Local\Temp\cceaTiQN.s:1411   .text.app_sec_evt_handler:000000000000035a .L127
C:\Users\stapi\AppData\Local\Temp\cceaTiQN.s:1494   .text.app_sec_evt_handler:00000000000003e2 .L128
C:\Users\stapi\AppData\Local\Temp\cceaTiQN.s:1482   .text.app_sec_evt_handler:00000000000003d0 .L129
C:\Users\stapi\AppData\Local\Temp\cceaTiQN.s:1515   .text.app_sec_evt_handler:0000000000000414 .L130
C:\Users\stapi\AppData\Local\Temp\cceaTiQN.s:1544   .text.app_sec_evt_handler:000000000000043a .L131
C:\Users\stapi\AppData\Local\Temp\cceaTiQN.s:1531   .text.app_sec_evt_handler:000000000000041e .L132
C:\Users\stapi\AppData\Local\Temp\cceaTiQN.s:1578   .text.app_sec_evt_handler:000000000000048a .L134
C:\Users\stapi\AppData\Local\Temp\cceaTiQN.s:1487   .text.app_sec_evt_handler:00000000000003d4 .L232
C:\Users\stapi\AppData\Local\Temp\cceaTiQN.s:1632   .text.app_sec_evt_handler:00000000000004dc .L136
C:\Users\stapi\AppData\Local\Temp\cceaTiQN.s:1619   .text.app_sec_evt_handler:00000000000004ca .L137
C:\Users\stapi\AppData\Local\Temp\cceaTiQN.s:1657   .text.app_sec_evt_handler:0000000000000512 .L138
C:\Users\stapi\AppData\Local\Temp\cceaTiQN.s:1687   .text.app_sec_evt_handler:0000000000000538 .L139
C:\Users\stapi\AppData\Local\Temp\cceaTiQN.s:1674   .text.app_sec_evt_handler:000000000000051c .L140
C:\Users\stapi\AppData\Local\Temp\cceaTiQN.s:1705   .text.app_sec_evt_handler:0000000000000558 .L141
C:\Users\stapi\AppData\Local\Temp\cceaTiQN.s:1625   .text.app_sec_evt_handler:00000000000004ce .L235
C:\Users\stapi\AppData\Local\Temp\cceaTiQN.s:1751   .text.app_sec_evt_handler:000000000000059e .L142
C:\Users\stapi\AppData\Local\Temp\cceaTiQN.s:1738   .text.app_sec_evt_handler:000000000000058a .L143
C:\Users\stapi\AppData\Local\Temp\cceaTiQN.s:1744   .text.app_sec_evt_handler:0000000000000590 .L236
C:\Users\stapi\AppData\Local\Temp\cceaTiQN.s:1790   .text.app_sec_evt_handler:00000000000005d8 .L144
C:\Users\stapi\AppData\Local\Temp\cceaTiQN.s:1444   .text.app_sec_evt_handler:000000000000039a .L230
C:\Users\stapi\AppData\Local\Temp\cceaTiQN.s:1803   .text.app_sec_evt_handler:00000000000005fc .L145
C:\Users\stapi\AppData\Local\Temp\cceaTiQN.s:1872   .text.app_sec_evt_handler:0000000000000684 .L147
C:\Users\stapi\AppData\Local\Temp\cceaTiQN.s:1836   .text.app_sec_evt_handler:000000000000063e .L148
C:\Users\stapi\AppData\Local\Temp\cceaTiQN.s:1854   .text.app_sec_evt_handler:0000000000000664 .L149
C:\Users\stapi\AppData\Local\Temp\cceaTiQN.s:1843   .text.app_sec_evt_handler:000000000000064c .L150
C:\Users\stapi\AppData\Local\Temp\cceaTiQN.s:1926   .text.app_sec_evt_handler:00000000000006ee .L153
C:\Users\stapi\AppData\Local\Temp\cceaTiQN.s:1891   .text.app_sec_evt_handler:00000000000006a8 .L154
C:\Users\stapi\AppData\Local\Temp\cceaTiQN.s:1908   .text.app_sec_evt_handler:00000000000006ce .L155
C:\Users\stapi\AppData\Local\Temp\cceaTiQN.s:1897   .text.app_sec_evt_handler:00000000000006b6 .L156
C:\Users\stapi\AppData\Local\Temp\cceaTiQN.s:1979   .text.app_sec_evt_handler:0000000000000754 .L159
C:\Users\stapi\AppData\Local\Temp\cceaTiQN.s:1944   .text.app_sec_evt_handler:000000000000070e .L160
C:\Users\stapi\AppData\Local\Temp\cceaTiQN.s:1961   .text.app_sec_evt_handler:0000000000000734 .L161
C:\Users\stapi\AppData\Local\Temp\cceaTiQN.s:1950   .text.app_sec_evt_handler:000000000000071c .L162
C:\Users\stapi\AppData\Local\Temp\cceaTiQN.s:2032   .text.app_sec_evt_handler:00000000000007ba .L165
C:\Users\stapi\AppData\Local\Temp\cceaTiQN.s:1997   .text.app_sec_evt_handler:0000000000000774 .L166
C:\Users\stapi\AppData\Local\Temp\cceaTiQN.s:2014   .text.app_sec_evt_handler:000000000000079a .L167
C:\Users\stapi\AppData\Local\Temp\cceaTiQN.s:2003   .text.app_sec_evt_handler:0000000000000782 .L168
C:\Users\stapi\AppData\Local\Temp\cceaTiQN.s:2085   .text.app_sec_evt_handler:0000000000000820 .L171
C:\Users\stapi\AppData\Local\Temp\cceaTiQN.s:2050   .text.app_sec_evt_handler:00000000000007da .L172
C:\Users\stapi\AppData\Local\Temp\cceaTiQN.s:2067   .text.app_sec_evt_handler:0000000000000800 .L173
C:\Users\stapi\AppData\Local\Temp\cceaTiQN.s:2056   .text.app_sec_evt_handler:00000000000007e8 .L174
C:\Users\stapi\AppData\Local\Temp\cceaTiQN.s:2140   .text.app_sec_evt_handler:0000000000000880 .L176
C:\Users\stapi\AppData\Local\Temp\cceaTiQN.s:2162   .text.app_sec_evt_handler:00000000000008b0 .L177
C:\Users\stapi\AppData\Local\Temp\cceaTiQN.s:2221   .text.app_sec_evt_handler:000000000000091a .L178
C:\Users\stapi\AppData\Local\Temp\cceaTiQN.s:2209   .text.app_sec_evt_handler:0000000000000904 .L179
C:\Users\stapi\AppData\Local\Temp\cceaTiQN.s:2258   .text.app_sec_evt_handler:0000000000000952 .L180
C:\Users\stapi\AppData\Local\Temp\cceaTiQN.s:2216   .text.app_sec_evt_handler:000000000000090e .L234
C:\Users\stapi\AppData\Local\Temp\cceaTiQN.s:2254   .text.app_sec_evt_handler:000000000000094e .L233
C:\Users\stapi\AppData\Local\Temp\cceaTiQN.s:2291   .text.app_sec_evt_handler:0000000000000982 .L181
C:\Users\stapi\AppData\Local\Temp\cceaTiQN.s:2332   .text.app_sec_evt_handler:00000000000009d0 .L182
C:\Users\stapi\AppData\Local\Temp\cceaTiQN.s:2310   .text.app_sec_evt_handler:00000000000009a6 .L183
C:\Users\stapi\AppData\Local\Temp\cceaTiQN.s:2343   .text.app_sec_evt_handler:00000000000009ec .L184
C:\Users\stapi\AppData\Local\Temp\cceaTiQN.s:2392   .text.app_sec_evt_handler:0000000000000a4a .L185
C:\Users\stapi\AppData\Local\Temp\cceaTiQN.s:2420   .text.app_sec_evt_handler:0000000000000a70 .L186
C:\Users\stapi\AppData\Local\Temp\cceaTiQN.s:2408   .text.app_sec_evt_handler:0000000000000a54 .L187
C:\Users\stapi\AppData\Local\Temp\cceaTiQN.s:2439   .text.app_sec_evt_handler:0000000000000a90 .L188
C:\Users\stapi\AppData\Local\Temp\cceaTiQN.s:2458   .text.app_sec_evt_handler:0000000000000ab4 .L189
C:\Users\stapi\AppData\Local\Temp\cceaTiQN.s:2447   .text.app_sec_evt_handler:0000000000000a9c .L190
C:\Users\stapi\AppData\Local\Temp\cceaTiQN.s:949    .text.app_sec_evt_handler:000000000000008c .L101
C:\Users\stapi\AppData\Local\Temp\cceaTiQN.s:2517   .text.app_sec_evt_handler:0000000000000b1e .L102
C:\Users\stapi\AppData\Local\Temp\cceaTiQN.s:917    .text.app_sec_evt_handler:0000000000000068 .L238
C:\Users\stapi\AppData\Local\Temp\cceaTiQN.s:875    .text.app_sec_evt_handler:0000000000000022 .L95
C:\Users\stapi\AppData\Local\Temp\cceaTiQN.s:1032   .text.app_sec_evt_handler:00000000000000fe .L94
C:\Users\stapi\AppData\Local\Temp\cceaTiQN.s:1200   .text.app_sec_evt_handler:000000000000021e .L93
C:\Users\stapi\AppData\Local\Temp\cceaTiQN.s:1281   .text.app_sec_evt_handler:0000000000000294 .L92
C:\Users\stapi\AppData\Local\Temp\cceaTiQN.s:1335   .text.app_sec_evt_handler:00000000000002de .L91
C:\Users\stapi\AppData\Local\Temp\cceaTiQN.s:1385   .text.app_sec_evt_handler:000000000000032e .L90
C:\Users\stapi\AppData\Local\Temp\cceaTiQN.s:1454   .text.app_sec_evt_handler:00000000000003a4 .L89
C:\Users\stapi\AppData\Local\Temp\cceaTiQN.s:1585   .text.app_sec_evt_handler:0000000000000490 .L88
C:\Users\stapi\AppData\Local\Temp\cceaTiQN.s:1712   .text.app_sec_evt_handler:000000000000055e .L87
C:\Users\stapi\AppData\Local\Temp\cceaTiQN.s:1760   .text.app_sec_evt_handler:00000000000005b0 .L86
C:\Users\stapi\AppData\Local\Temp\cceaTiQN.s:2114   .text.app_sec_evt_handler:000000000000085a .L85
C:\Users\stapi\AppData\Local\Temp\cceaTiQN.s:2174   .text.app_sec_evt_handler:00000000000008c8 .L84
C:\Users\stapi\AppData\Local\Temp\cceaTiQN.s:2183   .text.app_sec_evt_handler:00000000000008d6 .L83
C:\Users\stapi\AppData\Local\Temp\cceaTiQN.s:2265   .text.app_sec_evt_handler:000000000000095a .L82
C:\Users\stapi\AppData\Local\Temp\cceaTiQN.s:2374   .text.app_sec_evt_handler:0000000000000a2c .L81
C:\Users\stapi\AppData\Local\Temp\cceaTiQN.s:2476   .text.app_sec_evt_handler:0000000000000ace .L79
C:\Users\stapi\AppData\Local\Temp\cceaTiQN.s:2554   .rodata.app_sec_send_encrypt_req.str1.4:0000000000000000 .LC45
C:\Users\stapi\AppData\Local\Temp\cceaTiQN.s:2557   .rodata.app_sec_send_encrypt_req.str1.4:0000000000000030 .LC46
C:\Users\stapi\AppData\Local\Temp\cceaTiQN.s:2560   .rodata.app_sec_send_encrypt_req.str1.4:0000000000000058 .LC47
C:\Users\stapi\AppData\Local\Temp\cceaTiQN.s:2563   .rodata.app_sec_send_encrypt_req.str1.4:000000000000007c .LC48
C:\Users\stapi\AppData\Local\Temp\cceaTiQN.s:2610   .text.app_sec_send_encrypt_req:000000000000003a .L240
C:\Users\stapi\AppData\Local\Temp\cceaTiQN.s:2602   .text.app_sec_send_encrypt_req:0000000000000032 .L239
C:\Users\stapi\AppData\Local\Temp\cceaTiQN.s:2628   .text.app_sec_send_encrypt_req:0000000000000058 .L243
C:\Users\stapi\AppData\Local\Temp\cceaTiQN.s:2597   .text.app_sec_send_encrypt_req:000000000000002a .L250
C:\Users\stapi\AppData\Local\Temp\cceaTiQN.s:2647   .text.app_sec_send_encrypt_req:0000000000000076 .L245
C:\Users\stapi\AppData\Local\Temp\cceaTiQN.s:2672   .rodata.app_sec_input_passkey.str1.4:0000000000000000 .LC49
C:\Users\stapi\AppData\Local\Temp\cceaTiQN.s:2675   .rodata.app_sec_input_passkey.str1.4:000000000000002c .LC50
C:\Users\stapi\AppData\Local\Temp\cceaTiQN.s:2732   .text.app_sec_input_passkey:000000000000004a .L252
C:\Users\stapi\AppData\Local\Temp\cceaTiQN.s:2714   .text.app_sec_input_passkey:0000000000000034 .L253
C:\Users\stapi\AppData\Local\Temp\cceaTiQN.s:2744   .text.app_sec_input_passkey:0000000000000060 .L255
C:\Users\stapi\AppData\Local\Temp\cceaTiQN.s:2719   .text.app_sec_input_passkey:0000000000000038 .L257
C:\Users\stapi\AppData\Local\Temp\cceaTiQN.s:2755   .rodata.app_sec_input_oob.str1.4:0000000000000000 .LC51
C:\Users\stapi\AppData\Local\Temp\cceaTiQN.s:2804   .text.app_sec_input_oob:000000000000003e .L263
C:\Users\stapi\AppData\Local\Temp\cceaTiQN.s:2800   .text.app_sec_input_oob:000000000000003c .L260
C:\Users\stapi\AppData\Local\Temp\cceaTiQN.s:2822   .rodata.app_sec_num_compare.str1.4:0000000000000000 .LC52
C:\Users\stapi\AppData\Local\Temp\cceaTiQN.s:2825   .rodata.app_sec_num_compare.str1.4:000000000000002c .LC53
C:\Users\stapi\AppData\Local\Temp\cceaTiQN.s:2881   .text.app_sec_num_compare:0000000000000048 .L265
C:\Users\stapi\AppData\Local\Temp\cceaTiQN.s:2864   .text.app_sec_num_compare:0000000000000034 .L266
C:\Users\stapi\AppData\Local\Temp\cceaTiQN.s:2893   .text.app_sec_num_compare:000000000000005e .L268
C:\Users\stapi\AppData\Local\Temp\cceaTiQN.s:2868   .text.app_sec_num_compare:0000000000000036 .L270
C:\Users\stapi\AppData\Local\Temp\cceaTiQN.s:8153   .debug_abbrev:0000000000000000 .Ldebug_abbrev0
C:\Users\stapi\AppData\Local\Temp\cceaTiQN.s:10575  .debug_str:000000000000140d .LASF514
C:\Users\stapi\AppData\Local\Temp\cceaTiQN.s:10183  .debug_str:00000000000002d8 .LASF515
C:\Users\stapi\AppData\Local\Temp\cceaTiQN.s:10703  .debug_str:0000000000001a36 .LASF516
C:\Users\stapi\AppData\Local\Temp\cceaTiQN.s:10001  .debug_ranges:0000000000000000 .Ldebug_ranges0
C:\Users\stapi\AppData\Local\Temp\cceaTiQN.s:10113  .debug_line:0000000000000000 .Ldebug_line0
C:\Users\stapi\AppData\Local\Temp\cceaTiQN.s:10699  .debug_str:0000000000001a23 .LASF0
C:\Users\stapi\AppData\Local\Temp\cceaTiQN.s:10329  .debug_str:00000000000008ff .LASF1
C:\Users\stapi\AppData\Local\Temp\cceaTiQN.s:10237  .debug_str:0000000000000553 .LASF4
C:\Users\stapi\AppData\Local\Temp\cceaTiQN.s:10359  .debug_str:0000000000000a55 .LASF2
C:\Users\stapi\AppData\Local\Temp\cceaTiQN.s:10967  .debug_str:000000000000264d .LASF3
C:\Users\stapi\AppData\Local\Temp\cceaTiQN.s:10425  .debug_str:0000000000000d21 .LASF5
C:\Users\stapi\AppData\Local\Temp\cceaTiQN.s:11083  .debug_str:0000000000002b7c .LASF6
C:\Users\stapi\AppData\Local\Temp\cceaTiQN.s:10269  .debug_str:0000000000000688 .LASF7
C:\Users\stapi\AppData\Local\Temp\cceaTiQN.s:10627  .debug_str:0000000000001760 .LASF8
C:\Users\stapi\AppData\Local\Temp\cceaTiQN.s:10551  .debug_str:0000000000001323 .LASF9
C:\Users\stapi\AppData\Local\Temp\cceaTiQN.s:10635  .debug_str:00000000000017b5 .LASF10
C:\Users\stapi\AppData\Local\Temp\cceaTiQN.s:10833  .debug_str:000000000000201b .LASF11
C:\Users\stapi\AppData\Local\Temp\cceaTiQN.s:10407  .debug_str:0000000000000c85 .LASF12
C:\Users\stapi\AppData\Local\Temp\cceaTiQN.s:10331  .debug_str:000000000000090b .LASF13
C:\Users\stapi\AppData\Local\Temp\cceaTiQN.s:10847  .debug_str:00000000000020e5 .LASF14
C:\Users\stapi\AppData\Local\Temp\cceaTiQN.s:11057  .debug_str:0000000000002a4d .LASF15
C:\Users\stapi\AppData\Local\Temp\cceaTiQN.s:10197  .debug_str:00000000000003d0 .LASF16
C:\Users\stapi\AppData\Local\Temp\cceaTiQN.s:11101  .debug_str:0000000000002c4c .LASF17
C:\Users\stapi\AppData\Local\Temp\cceaTiQN.s:10281  .debug_str:00000000000006e1 .LASF18
C:\Users\stapi\AppData\Local\Temp\cceaTiQN.s:10521  .debug_str:00000000000011a8 .LASF19
C:\Users\stapi\AppData\Local\Temp\cceaTiQN.s:10817  .debug_str:0000000000001f6d .LASF20
C:\Users\stapi\AppData\Local\Temp\cceaTiQN.s:10885  .debug_str:000000000000227c .LASF21
C:\Users\stapi\AppData\Local\Temp\cceaTiQN.s:11027  .debug_str:00000000000028e3 .LASF22
C:\Users\stapi\AppData\Local\Temp\cceaTiQN.s:10339  .debug_str:0000000000000959 .LASF23
C:\Users\stapi\AppData\Local\Temp\cceaTiQN.s:10189  .debug_str:0000000000000378 .LASF24
C:\Users\stapi\AppData\Local\Temp\cceaTiQN.s:10379  .debug_str:0000000000000b38 .LASF25
C:\Users\stapi\AppData\Local\Temp\cceaTiQN.s:10163  .debug_str:00000000000001e5 .LASF26
C:\Users\stapi\AppData\Local\Temp\cceaTiQN.s:10529  .debug_str:00000000000011fb .LASF27
C:\Users\stapi\AppData\Local\Temp\cceaTiQN.s:10771  .debug_str:0000000000001d61 .LASF28
C:\Users\stapi\AppData\Local\Temp\cceaTiQN.s:11025  .debug_str:00000000000028bd .LASF29
C:\Users\stapi\AppData\Local\Temp\cceaTiQN.s:10443  .debug_str:0000000000000df9 .LASF30
C:\Users\stapi\AppData\Local\Temp\cceaTiQN.s:10337  .debug_str:0000000000000942 .LASF31
C:\Users\stapi\AppData\Local\Temp\cceaTiQN.s:10921  .debug_str:0000000000002445 .LASF32
C:\Users\stapi\AppData\Local\Temp\cceaTiQN.s:11061  .debug_str:0000000000002a6b .LASF33
C:\Users\stapi\AppData\Local\Temp\cceaTiQN.s:10255  .debug_str:0000000000000608 .LASF34
C:\Users\stapi\AppData\Local\Temp\cceaTiQN.s:10267  .debug_str:000000000000066a .LASF35
C:\Users\stapi\AppData\Local\Temp\cceaTiQN.s:10823  .debug_str:0000000000001fb1 .LASF36
C:\Users\stapi\AppData\Local\Temp\cceaTiQN.s:10639  .debug_str:00000000000017c8 .LASF37
C:\Users\stapi\AppData\Local\Temp\cceaTiQN.s:10539  .debug_str:000000000000127e .LASF38
C:\Users\stapi\AppData\Local\Temp\cceaTiQN.s:10483  .debug_str:0000000000000fe3 .LASF39
C:\Users\stapi\AppData\Local\Temp\cceaTiQN.s:11091  .debug_str:0000000000002bc7 .LASF40
C:\Users\stapi\AppData\Local\Temp\cceaTiQN.s:10811  .debug_str:0000000000001f1d .LASF41
C:\Users\stapi\AppData\Local\Temp\cceaTiQN.s:10675  .debug_str:0000000000001927 .LASF42
C:\Users\stapi\AppData\Local\Temp\cceaTiQN.s:10423  .debug_str:0000000000000d07 .LASF43
C:\Users\stapi\AppData\Local\Temp\cceaTiQN.s:10903  .debug_str:0000000000002370 .LASF44
C:\Users\stapi\AppData\Local\Temp\cceaTiQN.s:11065  .debug_str:0000000000002a9f .LASF45
C:\Users\stapi\AppData\Local\Temp\cceaTiQN.s:10611  .debug_str:00000000000016a0 .LASF46
C:\Users\stapi\AppData\Local\Temp\cceaTiQN.s:10951  .debug_str:00000000000025a6 .LASF47
C:\Users\stapi\AppData\Local\Temp\cceaTiQN.s:10853  .debug_str:000000000000212d .LASF48
C:\Users\stapi\AppData\Local\Temp\cceaTiQN.s:11031  .debug_str:000000000000292a .LASF49
C:\Users\stapi\AppData\Local\Temp\cceaTiQN.s:10181  .debug_str:00000000000002b8 .LASF50
C:\Users\stapi\AppData\Local\Temp\cceaTiQN.s:10369  .debug_str:0000000000000abc .LASF51
C:\Users\stapi\AppData\Local\Temp\cceaTiQN.s:10547  .debug_str:00000000000012fc .LASF52
C:\Users\stapi\AppData\Local\Temp\cceaTiQN.s:10759  .debug_str:0000000000001cda .LASF53
C:\Users\stapi\AppData\Local\Temp\cceaTiQN.s:10387  .debug_str:0000000000000b98 .LASF54
C:\Users\stapi\AppData\Local\Temp\cceaTiQN.s:11111  .debug_str:0000000000002cc2 .LASF55
C:\Users\stapi\AppData\Local\Temp\cceaTiQN.s:10909  .debug_str:00000000000023b7 .LASF56
C:\Users\stapi\AppData\Local\Temp\cceaTiQN.s:10585  .debug_str:0000000000001545 .LASF57
C:\Users\stapi\AppData\Local\Temp\cceaTiQN.s:10577  .debug_str:0000000000001506 .LASF58
C:\Users\stapi\AppData\Local\Temp\cceaTiQN.s:10165  .debug_str:0000000000000205 .LASF59
C:\Users\stapi\AppData\Local\Temp\cceaTiQN.s:10347  .debug_str:00000000000009be .LASF60
C:\Users\stapi\AppData\Local\Temp\cceaTiQN.s:10253  .debug_str:00000000000005f4 .LASF61
C:\Users\stapi\AppData\Local\Temp\cceaTiQN.s:11067  .debug_str:0000000000002ac0 .LASF62
C:\Users\stapi\AppData\Local\Temp\cceaTiQN.s:10543  .debug_str:00000000000012c3 .LASF63
C:\Users\stapi\AppData\Local\Temp\cceaTiQN.s:10233  .debug_str:0000000000000523 .LASF64
C:\Users\stapi\AppData\Local\Temp\cceaTiQN.s:10235  .debug_str:0000000000000538 .LASF65
C:\Users\stapi\AppData\Local\Temp\cceaTiQN.s:10723  .debug_str:0000000000001b47 .LASF66
C:\Users\stapi\AppData\Local\Temp\cceaTiQN.s:10371  .debug_str:0000000000000ad8 .LASF67
C:\Users\stapi\AppData\Local\Temp\cceaTiQN.s:11135  .debug_str:0000000000002dae .LASF68
C:\Users\stapi\AppData\Local\Temp\cceaTiQN.s:10451  .debug_str:0000000000000e59 .LASF69
C:\Users\stapi\AppData\Local\Temp\cceaTiQN.s:10143  .debug_str:000000000000011f .LASF70
C:\Users\stapi\AppData\Local\Temp\cceaTiQN.s:10607  .debug_str:0000000000001667 .LASF71
C:\Users\stapi\AppData\Local\Temp\cceaTiQN.s:11079  .debug_str:0000000000002b54 .LASF72
C:\Users\stapi\AppData\Local\Temp\cceaTiQN.s:10439  .debug_str:0000000000000dcd .LASF73
C:\Users\stapi\AppData\Local\Temp\cceaTiQN.s:10609  .debug_str:0000000000001678 .LASF74
C:\Users\stapi\AppData\Local\Temp\cceaTiQN.s:10829  .debug_str:0000000000001ff1 .LASF75
C:\Users\stapi\AppData\Local\Temp\cceaTiQN.s:10843  .debug_str:00000000000020aa .LASF76
C:\Users\stapi\AppData\Local\Temp\cceaTiQN.s:10923  .debug_str:0000000000002461 .LASF77
C:\Users\stapi\AppData\Local\Temp\cceaTiQN.s:10729  .debug_str:0000000000001b86 .LASF78
C:\Users\stapi\AppData\Local\Temp\cceaTiQN.s:10503  .debug_str:00000000000010bb .LASF79
C:\Users\stapi\AppData\Local\Temp\cceaTiQN.s:10507  .debug_str:00000000000010ee .LASF80
C:\Users\stapi\AppData\Local\Temp\cceaTiQN.s:10513  .debug_str:0000000000001141 .LASF81
C:\Users\stapi\AppData\Local\Temp\cceaTiQN.s:11011  .debug_str:000000000000280a .LASF82
C:\Users\stapi\AppData\Local\Temp\cceaTiQN.s:10743  .debug_str:0000000000001c11 .LASF83
C:\Users\stapi\AppData\Local\Temp\cceaTiQN.s:10217  .debug_str:000000000000047e .LASF84
C:\Users\stapi\AppData\Local\Temp\cceaTiQN.s:10755  .debug_str:0000000000001ca1 .LASF85
C:\Users\stapi\AppData\Local\Temp\cceaTiQN.s:10751  .debug_str:0000000000001c6a .LASF86
C:\Users\stapi\AppData\Local\Temp\cceaTiQN.s:10731  .debug_str:0000000000001bac .LASF87
C:\Users\stapi\AppData\Local\Temp\cceaTiQN.s:11069  .debug_str:0000000000002ad9 .LASF88
C:\Users\stapi\AppData\Local\Temp\cceaTiQN.s:10573  .debug_str:00000000000013ea .LASF89
C:\Users\stapi\AppData\Local\Temp\cceaTiQN.s:10763  .debug_str:0000000000001d0a .LASF90
C:\Users\stapi\AppData\Local\Temp\cceaTiQN.s:10897  .debug_str:000000000000230c .LASF91
C:\Users\stapi\AppData\Local\Temp\cceaTiQN.s:10629  .debug_str:000000000000176b .LASF92
C:\Users\stapi\AppData\Local\Temp\cceaTiQN.s:10835  .debug_str:0000000000002032 .LASF93
C:\Users\stapi\AppData\Local\Temp\cceaTiQN.s:11109  .debug_str:0000000000002c98 .LASF94
C:\Users\stapi\AppData\Local\Temp\cceaTiQN.s:11051  .debug_str:00000000000029ef .LASF95
C:\Users\stapi\AppData\Local\Temp\cceaTiQN.s:10129  .debug_str:000000000000007f .LASF96
C:\Users\stapi\AppData\Local\Temp\cceaTiQN.s:10541  .debug_str:00000000000012a1 .LASF97
C:\Users\stapi\AppData\Local\Temp\cceaTiQN.s:10617  .debug_str:00000000000016ed .LASF98
C:\Users\stapi\AppData\Local\Temp\cceaTiQN.s:10499  .debug_str:0000000000001086 .LASF99
C:\Users\stapi\AppData\Local\Temp\cceaTiQN.s:10821  .debug_str:0000000000001f90 .LASF100
C:\Users\stapi\AppData\Local\Temp\cceaTiQN.s:10799  .debug_str:0000000000001ea4 .LASF101
C:\Users\stapi\AppData\Local\Temp\cceaTiQN.s:10867  .debug_str:00000000000021cb .LASF102
C:\Users\stapi\AppData\Local\Temp\cceaTiQN.s:10615  .debug_str:00000000000016ca .LASF103
C:\Users\stapi\AppData\Local\Temp\cceaTiQN.s:10649  .debug_str:000000000000184a .LASF104
C:\Users\stapi\AppData\Local\Temp\cceaTiQN.s:10403  .debug_str:0000000000000c4b .LASF105
C:\Users\stapi\AppData\Local\Temp\cceaTiQN.s:10677  .debug_str:0000000000001941 .LASF106
C:\Users\stapi\AppData\Local\Temp\cceaTiQN.s:10849  .debug_str:00000000000020ee .LASF107
C:\Users\stapi\AppData\Local\Temp\cceaTiQN.s:11117  .debug_str:0000000000002d0c .LASF108
C:\Users\stapi\AppData\Local\Temp\cceaTiQN.s:10431  .debug_str:0000000000000d5a .LASF109
C:\Users\stapi\AppData\Local\Temp\cceaTiQN.s:10655  .debug_str:000000000000188a .LASF110
C:\Users\stapi\AppData\Local\Temp\cceaTiQN.s:10891  .debug_str:00000000000022c5 .LASF111
C:\Users\stapi\AppData\Local\Temp\cceaTiQN.s:10983  .debug_str:000000000000270b .LASF112
C:\Users\stapi\AppData\Local\Temp\cceaTiQN.s:10803  .debug_str:0000000000001ed8 .LASF113
C:\Users\stapi\AppData\Local\Temp\cceaTiQN.s:10307  .debug_str:00000000000007fe .LASF114
C:\Users\stapi\AppData\Local\Temp\cceaTiQN.s:10327  .debug_str:00000000000008e8 .LASF115
C:\Users\stapi\AppData\Local\Temp\cceaTiQN.s:10419  .debug_str:0000000000000cce .LASF116
C:\Users\stapi\AppData\Local\Temp\cceaTiQN.s:10631  .debug_str:000000000000178e .LASF117
C:\Users\stapi\AppData\Local\Temp\cceaTiQN.s:10957  .debug_str:00000000000025ea .LASF118
C:\Users\stapi\AppData\Local\Temp\cceaTiQN.s:10881  .debug_str:0000000000002246 .LASF119
C:\Users\stapi\AppData\Local\Temp\cceaTiQN.s:10767  .debug_str:0000000000001d3a .LASF120
C:\Users\stapi\AppData\Local\Temp\cceaTiQN.s:10911  .debug_str:00000000000023d1 .LASF121
C:\Users\stapi\AppData\Local\Temp\cceaTiQN.s:10393  .debug_str:0000000000000bd9 .LASF122
C:\Users\stapi\AppData\Local\Temp\cceaTiQN.s:10653  .debug_str:0000000000001875 .LASF123
C:\Users\stapi\AppData\Local\Temp\cceaTiQN.s:11075  .debug_str:0000000000002b1f .LASF124
C:\Users\stapi\AppData\Local\Temp\cceaTiQN.s:10855  .debug_str:000000000000214f .LASF125
C:\Users\stapi\AppData\Local\Temp\cceaTiQN.s:10133  .debug_str:00000000000000bd .LASF126
C:\Users\stapi\AppData\Local\Temp\cceaTiQN.s:10749  .debug_str:0000000000001c48 .LASF127
C:\Users\stapi\AppData\Local\Temp\cceaTiQN.s:10279  .debug_str:00000000000006c6 .LASF128
C:\Users\stapi\AppData\Local\Temp\cceaTiQN.s:10203  .debug_str:0000000000000403 .LASF129
C:\Users\stapi\AppData\Local\Temp\cceaTiQN.s:10283  .debug_str:0000000000000700 .LASF130
C:\Users\stapi\AppData\Local\Temp\cceaTiQN.s:10981  .debug_str:00000000000026ec .LASF131
C:\Users\stapi\AppData\Local\Temp\cceaTiQN.s:10399  .debug_str:0000000000000c17 .LASF132
C:\Users\stapi\AppData\Local\Temp\cceaTiQN.s:10863  .debug_str:000000000000219e .LASF133
C:\Users\stapi\AppData\Local\Temp\cceaTiQN.s:10149  .debug_str:000000000000016e .LASF134
C:\Users\stapi\AppData\Local\Temp\cceaTiQN.s:10343  .debug_str:0000000000000993 .LASF135
C:\Users\stapi\AppData\Local\Temp\cceaTiQN.s:10151  .debug_str:0000000000000183 .LASF136
C:\Users\stapi\AppData\Local\Temp\cceaTiQN.s:10317  .debug_str:0000000000000889 .LASF137
C:\Users\stapi\AppData\Local\Temp\cceaTiQN.s:11153  .debug_str:0000000000002e54 .LASF138
C:\Users\stapi\AppData\Local\Temp\cceaTiQN.s:11105  .debug_str:0000000000002c71 .LASF139
C:\Users\stapi\AppData\Local\Temp\cceaTiQN.s:10463  .debug_str:0000000000000ee0 .LASF140
C:\Users\stapi\AppData\Local\Temp\cceaTiQN.s:10801  .debug_str:0000000000001ec1 .LASF141
C:\Users\stapi\AppData\Local\Temp\cceaTiQN.s:11035  .debug_str:000000000000294b .LASF142
C:\Users\stapi\AppData\Local\Temp\cceaTiQN.s:10135  .debug_str:00000000000000d6 .LASF143
C:\Users\stapi\AppData\Local\Temp\cceaTiQN.s:10405  .debug_str:0000000000000c69 .LASF144
C:\Users\stapi\AppData\Local\Temp\cceaTiQN.s:11029  .debug_str:0000000000002905 .LASF145
C:\Users\stapi\AppData\Local\Temp\cceaTiQN.s:11003  .debug_str:00000000000027b9 .LASF146
C:\Users\stapi\AppData\Local\Temp\cceaTiQN.s:11143  .debug_str:0000000000002e03 .LASF147
C:\Users\stapi\AppData\Local\Temp\cceaTiQN.s:11021  .debug_str:000000000000287d .LASF148
C:\Users\stapi\AppData\Local\Temp\cceaTiQN.s:10375  .debug_str:0000000000000b0a .LASF149
C:\Users\stapi\AppData\Local\Temp\cceaTiQN.s:10901  .debug_str:0000000000002348 .LASF150
C:\Users\stapi\AppData\Local\Temp\cceaTiQN.s:10587  .debug_str:0000000000001562 .LASF151
C:\Users\stapi\AppData\Local\Temp\cceaTiQN.s:10831  .debug_str:0000000000002004 .LASF152
C:\Users\stapi\AppData\Local\Temp\cceaTiQN.s:11137  .debug_str:0000000000002dc5 .LASF153
C:\Users\stapi\AppData\Local\Temp\cceaTiQN.s:10531  .debug_str:000000000000121a .LASF154
C:\Users\stapi\AppData\Local\Temp\cceaTiQN.s:10479  .debug_str:0000000000000f9d .LASF155
C:\Users\stapi\AppData\Local\Temp\cceaTiQN.s:10457  .debug_str:0000000000000ea5 .LASF156
C:\Users\stapi\AppData\Local\Temp\cceaTiQN.s:11099  .debug_str:0000000000002c2a .LASF157
C:\Users\stapi\AppData\Local\Temp\cceaTiQN.s:10927  .debug_str:00000000000024a1 .LASF158
C:\Users\stapi\AppData\Local\Temp\cceaTiQN.s:10427  .debug_str:0000000000000d2c .LASF159
C:\Users\stapi\AppData\Local\Temp\cceaTiQN.s:10887  .debug_str:0000000000002296 .LASF160
C:\Users\stapi\AppData\Local\Temp\cceaTiQN.s:10793  .debug_str:0000000000001e56 .LASF161
C:\Users\stapi\AppData\Local\Temp\cceaTiQN.s:10947  .debug_str:0000000000002572 .LASF162
C:\Users\stapi\AppData\Local\Temp\cceaTiQN.s:11123  .debug_str:0000000000002d5a .LASF163
C:\Users\stapi\AppData\Local\Temp\cceaTiQN.s:10449  .debug_str:0000000000000e38 .LASF164
C:\Users\stapi\AppData\Local\Temp\cceaTiQN.s:10355  .debug_str:0000000000000a2a .LASF165
C:\Users\stapi\AppData\Local\Temp\cceaTiQN.s:10481  .debug_str:0000000000000fc6 .LASF166
C:\Users\stapi\AppData\Local\Temp\cceaTiQN.s:10421  .debug_str:0000000000000ce0 .LASF167
C:\Users\stapi\AppData\Local\Temp\cceaTiQN.s:10545  .debug_str:00000000000012d9 .LASF168
C:\Users\stapi\AppData\Local\Temp\cceaTiQN.s:10247  .debug_str:00000000000005b6 .LASF169
C:\Users\stapi\AppData\Local\Temp\cceaTiQN.s:10757  .debug_str:0000000000001cc1 .LASF170
C:\Users\stapi\AppData\Local\Temp\cceaTiQN.s:10381  .debug_str:0000000000000b57 .LASF171
C:\Users\stapi\AppData\Local\Temp\cceaTiQN.s:11041  .debug_str:000000000000297b .LASF172
C:\Users\stapi\AppData\Local\Temp\cceaTiQN.s:10289  .debug_str:000000000000074a .LASF173
C:\Users\stapi\AppData\Local\Temp\cceaTiQN.s:10519  .debug_str:000000000000118b .LASF174
C:\Users\stapi\AppData\Local\Temp\cceaTiQN.s:10167  .debug_str:0000000000000224 .LASF175
C:\Users\stapi\AppData\Local\Temp\cceaTiQN.s:10841  .debug_str:0000000000002081 .LASF176
C:\Users\stapi\AppData\Local\Temp\cceaTiQN.s:10315  .debug_str:0000000000000863 .LASF177
C:\Users\stapi\AppData\Local\Temp\cceaTiQN.s:10953  .debug_str:00000000000025c2 .LASF178
C:\Users\stapi\AppData\Local\Temp\cceaTiQN.s:10455  .debug_str:0000000000000e8d .LASF179
C:\Users\stapi\AppData\Local\Temp\cceaTiQN.s:10691  .debug_str:00000000000019b6 .LASF180
C:\Users\stapi\AppData\Local\Temp\cceaTiQN.s:10311  .debug_str:0000000000000823 .LASF181
C:\Users\stapi\AppData\Local\Temp\cceaTiQN.s:10471  .debug_str:0000000000000f3a .LASF182
C:\Users\stapi\AppData\Local\Temp\cceaTiQN.s:10465  .debug_str:0000000000000ef8 .LASF183
C:\Users\stapi\AppData\Local\Temp\cceaTiQN.s:10591  .debug_str:00000000000015a8 .LASF184
C:\Users\stapi\AppData\Local\Temp\cceaTiQN.s:10437  .debug_str:0000000000000db1 .LASF185
C:\Users\stapi\AppData\Local\Temp\cceaTiQN.s:10601  .debug_str:000000000000161a .LASF186
C:\Users\stapi\AppData\Local\Temp\cceaTiQN.s:11013  .debug_str:000000000000282f .LASF187
C:\Users\stapi\AppData\Local\Temp\cceaTiQN.s:10447  .debug_str:0000000000000e1b .LASF188
C:\Users\stapi\AppData\Local\Temp\cceaTiQN.s:10941  .debug_str:0000000000002527 .LASF189
C:\Users\stapi\AppData\Local\Temp\cceaTiQN.s:10125  .debug_str:000000000000004a .LASF190
C:\Users\stapi\AppData\Local\Temp\cceaTiQN.s:10213  .debug_str:0000000000000460 .LASF191
C:\Users\stapi\AppData\Local\Temp\cceaTiQN.s:10815  .debug_str:0000000000001f4b .LASF192
C:\Users\stapi\AppData\Local\Temp\cceaTiQN.s:10935  .debug_str:00000000000024ea .LASF193
C:\Users\stapi\AppData\Local\Temp\cceaTiQN.s:11071  .debug_str:0000000000002afb .LASF194
C:\Users\stapi\AppData\Local\Temp\cceaTiQN.s:10353  .debug_str:0000000000000a08 .LASF195
C:\Users\stapi\AppData\Local\Temp\cceaTiQN.s:10475  .debug_str:0000000000000f65 .LASF196
C:\Users\stapi\AppData\Local\Temp\cceaTiQN.s:10323  .debug_str:00000000000008bb .LASF197
C:\Users\stapi\AppData\Local\Temp\cceaTiQN.s:10231  .debug_str:000000000000050a .LASF198
C:\Users\stapi\AppData\Local\Temp\cceaTiQN.s:10517  .debug_str:0000000000001165 .LASF199
C:\Users\stapi\AppData\Local\Temp\cceaTiQN.s:10913  .debug_str:00000000000023f7 .LASF200
C:\Users\stapi\AppData\Local\Temp\cceaTiQN.s:10789  .debug_str:0000000000001e2e .LASF201
C:\Users\stapi\AppData\Local\Temp\cceaTiQN.s:10647  .debug_str:0000000000001835 .LASF202
C:\Users\stapi\AppData\Local\Temp\cceaTiQN.s:10739  .debug_str:0000000000001bf3 .LASF203
C:\Users\stapi\AppData\Local\Temp\cceaTiQN.s:11077  .debug_str:0000000000002b3a .LASF204
C:\Users\stapi\AppData\Local\Temp\cceaTiQN.s:10753  .debug_str:0000000000001c8b .LASF205
C:\Users\stapi\AppData\Local\Temp\cceaTiQN.s:10487  .debug_str:0000000000001010 .LASF206
C:\Users\stapi\AppData\Local\Temp\cceaTiQN.s:10373  .debug_str:0000000000000af5 .LASF207
C:\Users\stapi\AppData\Local\Temp\cceaTiQN.s:11019  .debug_str:0000000000002865 .LASF211
C:\Users\stapi\AppData\Local\Temp\cceaTiQN.s:10533  .debug_str:000000000000123a .LASF208
C:\Users\stapi\AppData\Local\Temp\cceaTiQN.s:10219  .debug_str:0000000000000497 .LASF209
C:\Users\stapi\AppData\Local\Temp\cceaTiQN.s:10695  .debug_str:00000000000019e2 .LASF210
C:\Users\stapi\AppData\Local\Temp\cceaTiQN.s:10993  .debug_str:0000000000002764 .LASF212
C:\Users\stapi\AppData\Local\Temp\cceaTiQN.s:10943  .debug_str:0000000000002542 .LASF213
C:\Users\stapi\AppData\Local\Temp\cceaTiQN.s:10313  .debug_str:0000000000000844 .LASF214
C:\Users\stapi\AppData\Local\Temp\cceaTiQN.s:10229  .debug_str:00000000000004ec .LASF215
C:\Users\stapi\AppData\Local\Temp\cceaTiQN.s:11055  .debug_str:0000000000002a2e .LASF216
C:\Users\stapi\AppData\Local\Temp\cceaTiQN.s:10341  .debug_str:0000000000000974 .LASF217
C:\Users\stapi\AppData\Local\Temp\cceaTiQN.s:10965  .debug_str:000000000000263b .LASF218
C:\Users\stapi\AppData\Local\Temp\cceaTiQN.s:10625  .debug_str:0000000000001749 .LASF219
C:\Users\stapi\AppData\Local\Temp\cceaTiQN.s:10561  .debug_str:0000000000001385 .LASF220
C:\Users\stapi\AppData\Local\Temp\cceaTiQN.s:11125  .debug_str:0000000000002d7b .LASF221
C:\Users\stapi\AppData\Local\Temp\cceaTiQN.s:11023  .debug_str:00000000000028a3 .LASF222
C:\Users\stapi\AppData\Local\Temp\cceaTiQN.s:10979  .debug_str:00000000000026d0 .LASF223
C:\Users\stapi\AppData\Local\Temp\cceaTiQN.s:11005  .debug_str:00000000000027d3 .LASF224
C:\Users\stapi\AppData\Local\Temp\cceaTiQN.s:10459  .debug_str:0000000000000ec5 .LASF225
C:\Users\stapi\AppData\Local\Temp\cceaTiQN.s:10713  .debug_str:0000000000001ae2 .LASF226
C:\Users\stapi\AppData\Local\Temp\cceaTiQN.s:11121  .debug_str:0000000000002d3c .LASF227
C:\Users\stapi\AppData\Local\Temp\cceaTiQN.s:10351  .debug_str:00000000000009ea .LASF228
C:\Users\stapi\AppData\Local\Temp\cceaTiQN.s:10147  .debug_str:0000000000000153 .LASF229
C:\Users\stapi\AppData\Local\Temp\cceaTiQN.s:10555  .debug_str:0000000000001350 .LASF230
C:\Users\stapi\AppData\Local\Temp\cceaTiQN.s:10395  .debug_str:0000000000000bf3 .LASF231
C:\Users\stapi\AppData\Local\Temp\cceaTiQN.s:10705  .debug_str:0000000000001ab4 .LASF232
C:\Users\stapi\AppData\Local\Temp\cceaTiQN.s:10239  .debug_str:000000000000055d .LASF233
C:\Users\stapi\AppData\Local\Temp\cceaTiQN.s:10895  .debug_str:00000000000022ef .LASF234
C:\Users\stapi\AppData\Local\Temp\cceaTiQN.s:10497  .debug_str:0000000000001069 .LASF235
C:\Users\stapi\AppData\Local\Temp\cceaTiQN.s:10851  .debug_str:0000000000002118 .LASF236
C:\Users\stapi\AppData\Local\Temp\cceaTiQN.s:10511  .debug_str:0000000000001121 .LASF237
C:\Users\stapi\AppData\Local\Temp\cceaTiQN.s:10619  .debug_str:0000000000001706 .LASF238
C:\Users\stapi\AppData\Local\Temp\cceaTiQN.s:10179  .debug_str:00000000000002a5 .LASF239
C:\Users\stapi\AppData\Local\Temp\cceaTiQN.s:10773  .debug_str:0000000000001d81 .LASF240
C:\Users\stapi\AppData\Local\Temp\cceaTiQN.s:10275  .debug_str:000000000000069f .LASF241
C:\Users\stapi\AppData\Local\Temp\cceaTiQN.s:10661  .debug_str:00000000000018c5 .LASF242
C:\Users\stapi\AppData\Local\Temp\cceaTiQN.s:11145  .debug_str:0000000000002e21 .LASF243
C:\Users\stapi\AppData\Local\Temp\cceaTiQN.s:10453  .debug_str:0000000000000e76 .LASF244
C:\Users\stapi\AppData\Local\Temp\cceaTiQN.s:11059  .debug_str:0000000000002a56 .LASF245
C:\Users\stapi\AppData\Local\Temp\cceaTiQN.s:10191  .debug_str:0000000000000392 .LASF246
C:\Users\stapi\AppData\Local\Temp\cceaTiQN.s:10621  .debug_str:0000000000001717 .LASF247
C:\Users\stapi\AppData\Local\Temp\cceaTiQN.s:11141  .debug_str:0000000000002de7 .LASF248
C:\Users\stapi\AppData\Local\Temp\cceaTiQN.s:11115  .debug_str:0000000000002cf2 .LASF249
C:\Users\stapi\AppData\Local\Temp\cceaTiQN.s:10589  .debug_str:0000000000001588 .LASF250
C:\Users\stapi\AppData\Local\Temp\cceaTiQN.s:10169  .debug_str:000000000000023e .LASF251
C:\Users\stapi\AppData\Local\Temp\cceaTiQN.s:10869  .debug_str:00000000000021ed .LASF252
C:\Users\stapi\AppData\Local\Temp\cceaTiQN.s:10711  .debug_str:0000000000001ad3 .LASF253
C:\Users\stapi\AppData\Local\Temp\cceaTiQN.s:10243  .debug_str:000000000000058c .LASF254
C:\Users\stapi\AppData\Local\Temp\cceaTiQN.s:10333  .debug_str:0000000000000913 .LASF255
C:\Users\stapi\AppData\Local\Temp\cceaTiQN.s:10571  .debug_str:00000000000013cd .LASF256
C:\Users\stapi\AppData\Local\Temp\cceaTiQN.s:10553  .debug_str:0000000000001335 .LASF257
C:\Users\stapi\AppData\Local\Temp\cceaTiQN.s:10697  .debug_str:0000000000001a05 .LASF258
C:\Users\stapi\AppData\Local\Temp\cceaTiQN.s:10783  .debug_str:0000000000001df7 .LASF259
C:\Users\stapi\AppData\Local\Temp\cceaTiQN.s:10689  .debug_str:00000000000019b1 .LASF260
C:\Users\stapi\AppData\Local\Temp\cceaTiQN.s:11015  .debug_str:0000000000002850 .LASF261
C:\Users\stapi\AppData\Local\Temp\cceaTiQN.s:10215  .debug_str:0000000000000479 .LASF262
C:\Users\stapi\AppData\Local\Temp\cceaTiQN.s:10303  .debug_str:00000000000007e1 .LASF263
C:\Users\stapi\AppData\Local\Temp\cceaTiQN.s:10177  .debug_str:0000000000000292 .LASF264
C:\Users\stapi\AppData\Local\Temp\cceaTiQN.s:10383  .debug_str:0000000000000b76 .LASF265
C:\Users\stapi\AppData\Local\Temp\cceaTiQN.s:10701  .debug_str:0000000000001a30 .LASF266
C:\Users\stapi\AppData\Local\Temp\cceaTiQN.s:10637  .debug_str:00000000000017c3 .LASF267
C:\Users\stapi\AppData\Local\Temp\cceaTiQN.s:11149  .debug_str:0000000000002e3c .LASF268
C:\Users\stapi\AppData\Local\Temp\cceaTiQN.s:10557  .debug_str:0000000000001371 .LASF269
C:\Users\stapi\AppData\Local\Temp\cceaTiQN.s:10549  .debug_str:0000000000001319 .LASF270
C:\Users\stapi\AppData\Local\Temp\cceaTiQN.s:10305  .debug_str:00000000000007e6 .LASF271
C:\Users\stapi\AppData\Local\Temp\cceaTiQN.s:10563  .debug_str:000000000000139c .LASF272
C:\Users\stapi\AppData\Local\Temp\cceaTiQN.s:10651  .debug_str:000000000000186c .LASF273
C:\Users\stapi\AppData\Local\Temp\cceaTiQN.s:10933  .debug_str:00000000000024ce .LASF274
C:\Users\stapi\AppData\Local\Temp\cceaTiQN.s:10467  .debug_str:0000000000000f14 .LASF275
C:\Users\stapi\AppData\Local\Temp\cceaTiQN.s:11085  .debug_str:0000000000002b8f .LASF276
C:\Users\stapi\AppData\Local\Temp\cceaTiQN.s:10861  .debug_str:0000000000002188 .LASF277
C:\Users\stapi\AppData\Local\Temp\cceaTiQN.s:10123  .debug_str:0000000000000035 .LASF278
C:\Users\stapi\AppData\Local\Temp\cceaTiQN.s:10209  .debug_str:0000000000000434 .LASF279
C:\Users\stapi\AppData\Local\Temp\cceaTiQN.s:10667  .debug_str:00000000000018f2 .LASF280
C:\Users\stapi\AppData\Local\Temp\cceaTiQN.s:10417  .debug_str:0000000000000cb8 .LASF281
C:\Users\stapi\AppData\Local\Temp\cceaTiQN.s:10345  .debug_str:00000000000009a7 .LASF282
C:\Users\stapi\AppData\Local\Temp\cceaTiQN.s:10875  .debug_str:000000000000221f .LASF283
C:\Users\stapi\AppData\Local\Temp\cceaTiQN.s:10877  .debug_str:000000000000223a .LASF284
C:\Users\stapi\AppData\Local\Temp\cceaTiQN.s:10779  .debug_str:0000000000001dc3 .LASF285
C:\Users\stapi\AppData\Local\Temp\cceaTiQN.s:10879  .debug_str:0000000000002241 .LASF286
C:\Users\stapi\AppData\Local\Temp\cceaTiQN.s:10473  .debug_str:0000000000000f5d .LASF287
C:\Users\stapi\AppData\Local\Temp\cceaTiQN.s:10301  .debug_str:00000000000007d3 .LASF288
C:\Users\stapi\AppData\Local\Temp\cceaTiQN.s:11133  .debug_str:0000000000002da9 .LASF289
C:\Users\stapi\AppData\Local\Temp\cceaTiQN.s:10141  .debug_str:000000000000010c .LASF290
C:\Users\stapi\AppData\Local\Temp\cceaTiQN.s:10377  .debug_str:0000000000000b2f .LASF291
C:\Users\stapi\AppData\Local\Temp\cceaTiQN.s:10765  .debug_str:0000000000001d2c .LASF292
C:\Users\stapi\AppData\Local\Temp\cceaTiQN.s:10241  .debug_str:0000000000000579 .LASF293
C:\Users\stapi\AppData\Local\Temp\cceaTiQN.s:10153  .debug_str:00000000000001a2 .LASF294
C:\Users\stapi\AppData\Local\Temp\cceaTiQN.s:10907  .debug_str:00000000000023a8 .LASF295
C:\Users\stapi\AppData\Local\Temp\cceaTiQN.s:10873  .debug_str:000000000000220b .LASF296
C:\Users\stapi\AppData\Local\Temp\cceaTiQN.s:10837  .debug_str:000000000000205c .LASF297
C:\Users\stapi\AppData\Local\Temp\cceaTiQN.s:10357  .debug_str:0000000000000a47 .LASF298
C:\Users\stapi\AppData\Local\Temp\cceaTiQN.s:10937  .debug_str:000000000000250b .LASF299
C:\Users\stapi\AppData\Local\Temp\cceaTiQN.s:10989  .debug_str:0000000000002749 .LASF300
C:\Users\stapi\AppData\Local\Temp\cceaTiQN.s:11151  .debug_str:0000000000002e45 .LASF301
C:\Users\stapi\AppData\Local\Temp\cceaTiQN.s:10985  .debug_str:0000000000002727 .LASF302
C:\Users\stapi\AppData\Local\Temp\cceaTiQN.s:10597  .debug_str:00000000000015f7 .LASF303
C:\Users\stapi\AppData\Local\Temp\cceaTiQN.s:10117  .debug_str:0000000000000005 .LASF304
C:\Users\stapi\AppData\Local\Temp\cceaTiQN.s:10963  .debug_str:000000000000262f .LASF305
C:\Users\stapi\AppData\Local\Temp\cceaTiQN.s:10535  .debug_str:0000000000001254 .LASF306
C:\Users\stapi\AppData\Local\Temp\cceaTiQN.s:10709  .debug_str:0000000000001acb .LASF307
C:\Users\stapi\AppData\Local\Temp\cceaTiQN.s:11081  .debug_str:0000000000002b73 .LASF308
C:\Users\stapi\AppData\Local\Temp\cceaTiQN.s:10741  .debug_str:0000000000001c08 .LASF309
C:\Users\stapi\AppData\Local\Temp\cceaTiQN.s:10715  .debug_str:0000000000001b03 .LASF310
C:\Users\stapi\AppData\Local\Temp\cceaTiQN.s:10805  .debug_str:0000000000001ef6 .LASF311
C:\Users\stapi\AppData\Local\Temp\cceaTiQN.s:10669  .debug_str:0000000000001903 .LASF312
C:\Users\stapi\AppData\Local\Temp\cceaTiQN.s:11095  .debug_str:0000000000002bf6 .LASF313
C:\Users\stapi\AppData\Local\Temp\cceaTiQN.s:10205  .debug_str:000000000000041c .LASF314
C:\Users\stapi\AppData\Local\Temp\cceaTiQN.s:10469  .debug_str:0000000000000f1f .LASF315
C:\Users\stapi\AppData\Local\Temp\cceaTiQN.s:10785  .debug_str:0000000000001e01 .LASF316
C:\Users\stapi\AppData\Local\Temp\cceaTiQN.s:10859  .debug_str:000000000000216e .LASF317
C:\Users\stapi\AppData\Local\Temp\cceaTiQN.s:10363  .debug_str:0000000000000a7b .LASF318
C:\Users\stapi\AppData\Local\Temp\cceaTiQN.s:10385  .debug_str:0000000000000b7c .LASF319
C:\Users\stapi\AppData\Local\Temp\cceaTiQN.s:10249  .debug_str:00000000000005d1 .LASF320
C:\Users\stapi\AppData\Local\Temp\cceaTiQN.s:10285  .debug_str:0000000000000719 .LASF321
C:\Users\stapi\AppData\Local\Temp\cceaTiQN.s:10211  .debug_str:0000000000000442 .LASF322
C:\Users\stapi\AppData\Local\Temp\cceaTiQN.s:11097  .debug_str:0000000000002c0e .LASF323
C:\Users\stapi\AppData\Local\Temp\cceaTiQN.s:10973  .debug_str:0000000000002686 .LASF324
C:\Users\stapi\AppData\Local\Temp\cceaTiQN.s:10361  .debug_str:0000000000000a63 .LASF325
C:\Users\stapi\AppData\Local\Temp\cceaTiQN.s:10391  .debug_str:0000000000000bc0 .LASF326
C:\Users\stapi\AppData\Local\Temp\cceaTiQN.s:11047  .debug_str:00000000000029be .LASF327
C:\Users\stapi\AppData\Local\Temp\cceaTiQN.s:10845  .debug_str:00000000000020c4 .LASF328
C:\Users\stapi\AppData\Local\Temp\cceaTiQN.s:10899  .debug_str:000000000000232a .LASF329
C:\Users\stapi\AppData\Local\Temp\cceaTiQN.s:10975  .debug_str:00000000000026a9 .LASF330
C:\Users\stapi\AppData\Local\Temp\cceaTiQN.s:10735  .debug_str:0000000000001bce .LASF331
C:\Users\stapi\AppData\Local\Temp\cceaTiQN.s:10367  .debug_str:0000000000000aa3 .LASF332
C:\Users\stapi\AppData\Local\Temp\cceaTiQN.s:10797  .debug_str:0000000000001e86 .LASF333
C:\Users\stapi\AppData\Local\Temp\cceaTiQN.s:10777  .debug_str:0000000000001da2 .LASF334
C:\Users\stapi\AppData\Local\Temp\cceaTiQN.s:10999  .debug_str:0000000000002797 .LASF335
C:\Users\stapi\AppData\Local\Temp\cceaTiQN.s:10227  .debug_str:00000000000004dc .LASF336
C:\Users\stapi\AppData\Local\Temp\cceaTiQN.s:10769  .debug_str:0000000000001d53 .LASF337
C:\Users\stapi\AppData\Local\Temp\cceaTiQN.s:10663  .debug_str:00000000000018db .LASF338
C:\Users\stapi\AppData\Local\Temp\cceaTiQN.s:10321  .debug_str:00000000000008b1 .LASF339
C:\Users\stapi\AppData\Local\Temp\cceaTiQN.s:10645  .debug_str:000000000000181b .LASF340
C:\Users\stapi\AppData\Local\Temp\cceaTiQN.s:10567  .debug_str:00000000000013bf .LASF341
C:\Users\stapi\AppData\Local\Temp\cceaTiQN.s:10119  .debug_str:0000000000000018 .LASF342
C:\Users\stapi\AppData\Local\Temp\cceaTiQN.s:10809  .debug_str:0000000000001f0a .LASF343
C:\Users\stapi\AppData\Local\Temp\cceaTiQN.s:10207  .debug_str:0000000000000421 .LASF344
C:\Users\stapi\AppData\Local\Temp\cceaTiQN.s:10477  .debug_str:0000000000000f89 .LASF345
C:\Users\stapi\AppData\Local\Temp\cceaTiQN.s:10683  .debug_str:0000000000001979 .LASF346
C:\Users\stapi\AppData\Local\Temp\cceaTiQN.s:10485  .debug_str:0000000000000ff9 .LASF347
C:\Users\stapi\AppData\Local\Temp\cceaTiQN.s:10137  .debug_str:00000000000000ed .LASF348
C:\Users\stapi\AppData\Local\Temp\cceaTiQN.s:11129  .debug_str:0000000000002d97 .LASF517
C:\Users\stapi\AppData\Local\Temp\cceaTiQN.s:10665  .debug_str:00000000000018e2 .LASF349
C:\Users\stapi\AppData\Local\Temp\cceaTiQN.s:10157  .debug_str:00000000000001bd .LASF350
C:\Users\stapi\AppData\Local\Temp\cceaTiQN.s:10325  .debug_str:00000000000008dd .LASF351
C:\Users\stapi\AppData\Local\Temp\cceaTiQN.s:10319  .debug_str:00000000000008aa .LASF352
C:\Users\stapi\AppData\Local\Temp\cceaTiQN.s:10261  .debug_str:0000000000000640 .LASF353
C:\Users\stapi\AppData\Local\Temp\cceaTiQN.s:10245  .debug_str:00000000000005a9 .LASF354
C:\Users\stapi\AppData\Local\Temp\cceaTiQN.s:10671  .debug_str:000000000000190e .LASF355
C:\Users\stapi\AppData\Local\Temp\cceaTiQN.s:10745  .debug_str:0000000000001c33 .LASF356
C:\Users\stapi\AppData\Local\Temp\cceaTiQN.s:11087  .debug_str:0000000000002ba9 .LASF357
C:\Users\stapi\AppData\Local\Temp\cceaTiQN.s:10199  .debug_str:00000000000003e1 .LASF358
C:\Users\stapi\AppData\Local\Temp\cceaTiQN.s:10193  .debug_str:00000000000003ad .LASF359
C:\Users\stapi\AppData\Local\Temp\cceaTiQN.s:10807  .debug_str:0000000000001f00 .LASF360
C:\Users\stapi\AppData\Local\Temp\cceaTiQN.s:10309  .debug_str:0000000000000816 .LASF361
C:\Users\stapi\AppData\Local\Temp\cceaTiQN.s:10997  .debug_str:000000000000278b .LASF362
C:\Users\stapi\AppData\Local\Temp\cceaTiQN.s:10721  .debug_str:0000000000001b3a .LASF363
C:\Users\stapi\AppData\Local\Temp\cceaTiQN.s:10461  .debug_str:0000000000000ed2 .LASF364
C:\Users\stapi\AppData\Local\Temp\cceaTiQN.s:10489  .debug_str:0000000000001026 .LASF365
C:\Users\stapi\AppData\Local\Temp\cceaTiQN.s:10441  .debug_str:0000000000000dea .LASF366
C:\Users\stapi\AppData\Local\Temp\cceaTiQN.s:11107  .debug_str:0000000000002c89 .LASF367
C:\Users\stapi\AppData\Local\Temp\cceaTiQN.s:10795  .debug_str:0000000000001e7c .LASF390
C:\Users\stapi\AppData\Local\Temp\cceaTiQN.s:11131  .debug_str:0000000000002da4 .LASF368
C:\Users\stapi\AppData\Local\Temp\cceaTiQN.s:11139  .debug_str:0000000000002de2 .LASF369
C:\Users\stapi\AppData\Local\Temp\cceaTiQN.s:10707  .debug_str:0000000000001ac3 .LASF370
C:\Users\stapi\AppData\Local\Temp\cceaTiQN.s:10737  .debug_str:0000000000001bea .LASF371
C:\Users\stapi\AppData\Local\Temp\cceaTiQN.s:10819  .debug_str:0000000000001f85 .LASF372
C:\Users\stapi\AppData\Local\Temp\cceaTiQN.s:11103  .debug_str:0000000000002c67 .LASF373
C:\Users\stapi\AppData\Local\Temp\cceaTiQN.s:10251  .debug_str:00000000000005e9 .LASF374
C:\Users\stapi\AppData\Local\Temp\cceaTiQN.s:10971  .debug_str:000000000000266b .LASF375
C:\Users\stapi\AppData\Local\Temp\cceaTiQN.s:10643  .debug_str:0000000000001802 .LASF376
C:\Users\stapi\AppData\Local\Temp\cceaTiQN.s:10603  .debug_str:0000000000001633 .LASF377
C:\Users\stapi\AppData\Local\Temp\cceaTiQN.s:10365  .debug_str:0000000000000a92 .LASF378
C:\Users\stapi\AppData\Local\Temp\cceaTiQN.s:10693  .debug_str:00000000000019d7 .LASF379
C:\Users\stapi\AppData\Local\Temp\cceaTiQN.s:10429  .debug_str:0000000000000d4b .LASF380
C:\Users\stapi\AppData\Local\Temp\cceaTiQN.s:10495  .debug_str:000000000000104f .LASF381
C:\Users\stapi\AppData\Local\Temp\cceaTiQN.s:10265  .debug_str:0000000000000651 .LASF382
C:\Users\stapi\AppData\Local\Temp\cceaTiQN.s:10641  .debug_str:00000000000017e7 .LASF383
C:\Users\stapi\AppData\Local\Temp\cceaTiQN.s:10939  .debug_str:000000000000251e .LASF384
C:\Users\stapi\AppData\Local\Temp\cceaTiQN.s:10515  .debug_str:000000000000115d .LASF385
C:\Users\stapi\AppData\Local\Temp\cceaTiQN.s:10525  .debug_str:00000000000011dc .LASF386
C:\Users\stapi\AppData\Local\Temp\cceaTiQN.s:10259  .debug_str:0000000000000635 .LASF387
C:\Users\stapi\AppData\Local\Temp\cceaTiQN.s:11039  .debug_str:0000000000002970 .LASF388
C:\Users\stapi\AppData\Local\Temp\cceaTiQN.s:10127  .debug_str:000000000000006d .LASF389
C:\Users\stapi\AppData\Local\Temp\cceaTiQN.s:10159  .debug_str:00000000000001c9 .LASF391
C:\Users\stapi\AppData\Local\Temp\cceaTiQN.s:10747  .debug_str:0000000000001c43 .LASF392
C:\Users\stapi\AppData\Local\Temp\cceaTiQN.s:11073  .debug_str:0000000000002b16 .LASF393
C:\Users\stapi\AppData\Local\Temp\cceaTiQN.s:10445  .debug_str:0000000000000e12 .LASF394
C:\Users\stapi\AppData\Local\Temp\cceaTiQN.s:11009  .debug_str:0000000000002803 .LASF395
C:\Users\stapi\AppData\Local\Temp\cceaTiQN.s:10659  .debug_str:00000000000018b9 .LASF396
C:\Users\stapi\AppData\Local\Temp\cceaTiQN.s:11155  .debug_str:0000000000002e70 .LASF397
C:\Users\stapi\AppData\Local\Temp\cceaTiQN.s:11119  .debug_str:0000000000002d36 .LASF398
C:\Users\stapi\AppData\Local\Temp\cceaTiQN.s:10271  .debug_str:0000000000000691 .LASF399
C:\Users\stapi\AppData\Local\Temp\cceaTiQN.s:10491  .debug_str:0000000000001038 .LASF400
C:\Users\stapi\AppData\Local\Temp\cceaTiQN.s:10857  .debug_str:0000000000002168 .LASF401
C:\Users\stapi\AppData\Local\Temp\cceaTiQN.s:10115  .debug_str:0000000000000000 .LASF402
C:\Users\stapi\AppData\Local\Temp\cceaTiQN.s:10223  .debug_str:00000000000004ba .LASF403
C:\Users\stapi\AppData\Local\Temp\cceaTiQN.s:10725  .debug_str:0000000000001b64 .LASF404
C:\Users\stapi\AppData\Local\Temp\cceaTiQN.s:10173  .debug_str:0000000000000270 .LASF405
C:\Users\stapi\AppData\Local\Temp\cceaTiQN.s:10171  .debug_str:000000000000025f .LASF406
C:\Users\stapi\AppData\Local\Temp\cceaTiQN.s:10633  .debug_str:00000000000017a8 .LASF407
C:\Users\stapi\AppData\Local\Temp\cceaTiQN.s:11127  .debug_str:0000000000002d92 .LASF408
C:\Users\stapi\AppData\Local\Temp\cceaTiQN.s:10673  .debug_str:000000000000191f .LASF409
C:\Users\stapi\AppData\Local\Temp\cceaTiQN.s:10583  .debug_str:000000000000153e .LASF410
C:\Users\stapi\AppData\Local\Temp\cceaTiQN.s:11147  .debug_str:0000000000002e37 .LASF411
C:\Users\stapi\AppData\Local\Temp\cceaTiQN.s:10121  .debug_str:000000000000002f .LASF412
C:\Users\stapi\AppData\Local\Temp\cceaTiQN.s:10221  .debug_str:00000000000004b5 .LASF413
C:\Users\stapi\AppData\Local\Temp\cceaTiQN.s:10291  .debug_str:000000000000076a .LASF518
C:\Users\stapi\AppData\Local\Temp\cceaTiQN.s:10295  .debug_str:0000000000000793 .LASF414
C:\Users\stapi\AppData\Local\Temp\cceaTiQN.s:10605  .debug_str:0000000000001650 .LASF415
C:\Users\stapi\AppData\Local\Temp\cceaTiQN.s:10685  .debug_str:0000000000001995 .LASF416
C:\Users\stapi\AppData\Local\Temp\cceaTiQN.s:10919  .debug_str:0000000000002434 .LASF417
C:\Users\stapi\AppData\Local\Temp\cceaTiQN.s:10995  .debug_str:0000000000002778 .LASF418
C:\Users\stapi\AppData\Local\Temp\cceaTiQN.s:10493  .debug_str:0000000000001042 .LASF419
C:\Users\stapi\AppData\Local\Temp\cceaTiQN.s:11045  .debug_str:00000000000029b2 .LASF420
C:\Users\stapi\AppData\Local\Temp\cceaTiQN.s:10581  .debug_str:0000000000001532 .LASF421
C:\Users\stapi\AppData\Local\Temp\cceaTiQN.s:10559  .debug_str:000000000000137b .LASF422
C:\Users\stapi\AppData\Local\Temp\cceaTiQN.s:11033  .debug_str:0000000000002943 .LASF423
C:\Users\stapi\AppData\Local\Temp\cceaTiQN.s:10613  .debug_str:00000000000016bc .LASF424
C:\Users\stapi\AppData\Local\Temp\cceaTiQN.s:10679  .debug_str:0000000000001964 .LASF425
C:\Users\stapi\AppData\Local\Temp\cceaTiQN.s:10871  .debug_str:00000000000021fd .LASF426
C:\Users\stapi\AppData\Local\Temp\cceaTiQN.s:10681  .debug_str:000000000000196d .LASF427
C:\Users\stapi\AppData\Local\Temp\cceaTiQN.s:11053  .debug_str:0000000000002a23 .LASF428
C:\Users\stapi\AppData\Local\Temp\cceaTiQN.s:10225  .debug_str:00000000000004cc .LASF460
C:\Users\stapi\AppData\Local\Temp\cceaTiQN.s:10299  .debug_str:00000000000007ba .LASF450
C:\Users\stapi\AppData\Local\Temp\cceaTiQN.s:2962   .text.app_sec_user_key_mgr_get:0000000000000000 .LFB35
C:\Users\stapi\AppData\Local\Temp\cceaTiQN.s:2970   .text.app_sec_user_key_mgr_get:0000000000000004 .LFE35
C:\Users\stapi\AppData\Local\Temp\cceaTiQN.s:11089  .debug_str:0000000000002bb6 .LASF429
C:\Users\stapi\AppData\Local\Temp\cceaTiQN.s:2948   .text.app_gen_oob_data:0000000000000000 .LFB34
C:\Users\stapi\AppData\Local\Temp\cceaTiQN.s:2955   .text.app_gen_oob_data:0000000000000008 .LFE34
C:\Users\stapi\AppData\Local\Temp\cceaTiQN.s:2953   .text.app_gen_oob_data:0000000000000008 .LVL256
C:\Users\stapi\AppData\Local\Temp\cceaTiQN.s:10187  .debug_str:0000000000000367 .LASF430
C:\Users\stapi\AppData\Local\Temp\cceaTiQN.s:2906   .text.app_set_oob_data:0000000000000000 .LFB33
C:\Users\stapi\AppData\Local\Temp\cceaTiQN.s:2941   .text.app_set_oob_data:000000000000003a .LFE33
C:\Users\stapi\AppData\Local\Temp\cceaTiQN.s:10415  .debug_str:0000000000000cb1 .LASF431
C:\Users\stapi\AppData\Local\Temp\cceaTiQN.s:9070   .debug_loc:0000000000000000 .LLST58
C:\Users\stapi\AppData\Local\Temp\cceaTiQN.s:10139  .debug_str:0000000000000105 .LASF432
C:\Users\stapi\AppData\Local\Temp\cceaTiQN.s:9088   .debug_loc:000000000000002c .LLST59
C:\Users\stapi\AppData\Local\Temp\cceaTiQN.s:2927   .text.app_set_oob_data:0000000000000022 .LVL254
C:\Users\stapi\AppData\Local\Temp\cceaTiQN.s:2933   .text.app_set_oob_data:0000000000000032 .LVL255
C:\Users\stapi\AppData\Local\Temp\cceaTiQN.s:10717  .debug_str:0000000000001b0d .LASF433
C:\Users\stapi\AppData\Local\Temp\cceaTiQN.s:2832   .text.app_sec_num_compare:0000000000000000 .LFB32
C:\Users\stapi\AppData\Local\Temp\cceaTiQN.s:2899   .text.app_sec_num_compare:0000000000000062 .LFE32
C:\Users\stapi\AppData\Local\Temp\cceaTiQN.s:9099   .debug_loc:000000000000004a .LLST55
C:\Users\stapi\AppData\Local\Temp\cceaTiQN.s:11001  .debug_str:00000000000027b2 .LASF434
C:\Users\stapi\AppData\Local\Temp\cceaTiQN.s:9113   .debug_loc:000000000000006b .LLST56
C:\Users\stapi\AppData\Local\Temp\cceaTiQN.s:10977  .debug_str:00000000000026c7 .LASF435
C:\Users\stapi\AppData\Local\Temp\cceaTiQN.s:9127   .debug_loc:000000000000008c .LLST57
C:\Users\stapi\AppData\Local\Temp\cceaTiQN.s:2847   .text.app_sec_num_compare:0000000000000014 .LVL244
C:\Users\stapi\AppData\Local\Temp\cceaTiQN.s:2863   .text.app_sec_num_compare:0000000000000034 .LVL246
C:\Users\stapi\AppData\Local\Temp\cceaTiQN.s:2872   .text.app_sec_num_compare:0000000000000040 .LVL247
C:\Users\stapi\AppData\Local\Temp\cceaTiQN.s:2892   .text.app_sec_num_compare:000000000000005e .LVL250
C:\Users\stapi\AppData\Local\Temp\cceaTiQN.s:10257  .debug_str:0000000000000623 .LASF436
C:\Users\stapi\AppData\Local\Temp\cceaTiQN.s:2762   .text.app_sec_input_oob:0000000000000000 .LFB31
C:\Users\stapi\AppData\Local\Temp\cceaTiQN.s:2818   .text.app_sec_input_oob:0000000000000052 .LFE31
C:\Users\stapi\AppData\Local\Temp\cceaTiQN.s:9138   .debug_loc:00000000000000aa .LLST52
C:\Users\stapi\AppData\Local\Temp\cceaTiQN.s:10397  .debug_str:0000000000000c11 .LASF437
C:\Users\stapi\AppData\Local\Temp\cceaTiQN.s:9152   .debug_loc:00000000000000cb .LLST53
C:\Users\stapi\AppData\Local\Temp\cceaTiQN.s:9169   .debug_loc:00000000000000f6 .LLST54
C:\Users\stapi\AppData\Local\Temp\cceaTiQN.s:2779   .text.app_sec_input_oob:0000000000000016 .LVL238
C:\Users\stapi\AppData\Local\Temp\cceaTiQN.s:2798   .text.app_sec_input_oob:000000000000003a .LVL240
C:\Users\stapi\AppData\Local\Temp\cceaTiQN.s:2808   .text.app_sec_input_oob:0000000000000048 .LVL241
C:\Users\stapi\AppData\Local\Temp\cceaTiQN.s:10293  .debug_str:000000000000077d .LASF438
C:\Users\stapi\AppData\Local\Temp\cceaTiQN.s:2682   .text.app_sec_input_passkey:0000000000000000 .LFB30
C:\Users\stapi\AppData\Local\Temp\cceaTiQN.s:2751   .text.app_sec_input_passkey:0000000000000066 .LFE30
C:\Users\stapi\AppData\Local\Temp\cceaTiQN.s:9176   .debug_loc:0000000000000109 .LLST49
C:\Users\stapi\AppData\Local\Temp\cceaTiQN.s:10389  .debug_str:0000000000000bb8 .LASF439
C:\Users\stapi\AppData\Local\Temp\cceaTiQN.s:9190   .debug_loc:000000000000012a .LLST50
C:\Users\stapi\AppData\Local\Temp\cceaTiQN.s:9201   .debug_loc:0000000000000148 .LLST51
C:\Users\stapi\AppData\Local\Temp\cceaTiQN.s:2697   .text.app_sec_input_passkey:0000000000000014 .LVL230
C:\Users\stapi\AppData\Local\Temp\cceaTiQN.s:2713   .text.app_sec_input_passkey:0000000000000034 .LVL232
C:\Users\stapi\AppData\Local\Temp\cceaTiQN.s:2723   .text.app_sec_input_passkey:0000000000000042 .LVL233
C:\Users\stapi\AppData\Local\Temp\cceaTiQN.s:2743   .text.app_sec_input_passkey:0000000000000060 .LVL236
C:\Users\stapi\AppData\Local\Temp\cceaTiQN.s:10145  .debug_str:000000000000013a .LASF440
C:\Users\stapi\AppData\Local\Temp\cceaTiQN.s:2570   .text.app_sec_send_encrypt_req:0000000000000000 .LFB29
C:\Users\stapi\AppData\Local\Temp\cceaTiQN.s:2668   .text.app_sec_send_encrypt_req:000000000000009e .LFE29
C:\Users\stapi\AppData\Local\Temp\cceaTiQN.s:9212   .debug_loc:0000000000000166 .LLST47
C:\Users\stapi\AppData\Local\Temp\cceaTiQN.s:9226   .debug_loc:0000000000000187 .LLST48
C:\Users\stapi\AppData\Local\Temp\cceaTiQN.s:2583   .text.app_sec_send_encrypt_req:0000000000000012 .LVL219
C:\Users\stapi\AppData\Local\Temp\cceaTiQN.s:2600   .text.app_sec_send_encrypt_req:0000000000000032 .LVL221
C:\Users\stapi\AppData\Local\Temp\cceaTiQN.s:2654   .text.app_sec_send_encrypt_req:0000000000000084 .LVL228
C:\Users\stapi\AppData\Local\Temp\cceaTiQN.s:10593  .debug_str:00000000000015cb .LASF441
C:\Users\stapi\AppData\Local\Temp\cceaTiQN.s:506    .text.app_sec_send_bond_req:0000000000000000 .LFB28
C:\Users\stapi\AppData\Local\Temp\cceaTiQN.s:618    .text.app_sec_send_bond_req:00000000000000aa .LFE28
C:\Users\stapi\AppData\Local\Temp\cceaTiQN.s:9251   .debug_loc:00000000000001c9 .LLST5
C:\Users\stapi\AppData\Local\Temp\cceaTiQN.s:10893  .debug_str:00000000000022e1 .LASF442
C:\Users\stapi\AppData\Local\Temp\cceaTiQN.s:9265   .debug_loc:00000000000001ea .LLST6
C:\Users\stapi\AppData\Local\Temp\cceaTiQN.s:595    .text.app_sec_send_bond_req:0000000000000080 .LVL31
C:\Users\stapi\AppData\Local\Temp\cceaTiQN.s:608    .text.app_sec_send_bond_req:00000000000000a0 .LVL32
C:\Users\stapi\AppData\Local\Temp\cceaTiQN.s:11007  .debug_str:00000000000027e9 .LASF443
C:\Users\stapi\AppData\Local\Temp\cceaTiQN.s:436    .text.app_sec_send_security_req:0000000000000000 .LFB27
C:\Users\stapi\AppData\Local\Temp\cceaTiQN.s:495    .text.app_sec_send_security_req:000000000000005c .LFE27
C:\Users\stapi\AppData\Local\Temp\cceaTiQN.s:9277   .debug_loc:0000000000000209 .LLST3
C:\Users\stapi\AppData\Local\Temp\cceaTiQN.s:9291   .debug_loc:000000000000022a .LLST4
C:\Users\stapi\AppData\Local\Temp\cceaTiQN.s:474    .text.app_sec_send_security_req:0000000000000034 .LVL26
C:\Users\stapi\AppData\Local\Temp\cceaTiQN.s:487    .text.app_sec_send_security_req:0000000000000054 .LVL27
C:\Users\stapi\AppData\Local\Temp\cceaTiQN.s:10813  .debug_str:0000000000001f37 .LASF446
C:\Users\stapi\AppData\Local\Temp\cceaTiQN.s:344    .text.app_sec_remove_bond:0000000000000000 .LFB26
C:\Users\stapi\AppData\Local\Temp\cceaTiQN.s:425    .text.app_sec_remove_bond:0000000000000082 .LFE26
C:\Users\stapi\AppData\Local\Temp\cceaTiQN.s:10569  .debug_str:00000000000013c5 .LASF444
C:\Users\stapi\AppData\Local\Temp\cceaTiQN.s:10955  .debug_str:00000000000025e4 .LASF445
C:\Users\stapi\AppData\Local\Temp\cceaTiQN.s:9303   .debug_loc:0000000000000249 .LLST2
C:\Users\stapi\AppData\Local\Temp\cceaTiQN.s:361    .text.app_sec_remove_bond:0000000000000016 .LVL14
C:\Users\stapi\AppData\Local\Temp\cceaTiQN.s:386    .text.app_sec_remove_bond:000000000000003c .LVL16
C:\Users\stapi\AppData\Local\Temp\cceaTiQN.s:405    .text.app_sec_remove_bond:0000000000000054 .LVL18
C:\Users\stapi\AppData\Local\Temp\cceaTiQN.s:409    .text.app_sec_remove_bond:0000000000000060 .LVL19
C:\Users\stapi\AppData\Local\Temp\cceaTiQN.s:422    .text.app_sec_remove_bond:0000000000000080 .LVL20
C:\Users\stapi\AppData\Local\Temp\cceaTiQN.s:10409  .debug_str:0000000000000c8a .LASF447
C:\Users\stapi\AppData\Local\Temp\cceaTiQN.s:257    .text.app_sec_create_bond:0000000000000000 .LFB25
C:\Users\stapi\AppData\Local\Temp\cceaTiQN.s:333    .text.app_sec_create_bond:0000000000000064 .LFE25
C:\Users\stapi\AppData\Local\Temp\cceaTiQN.s:9318   .debug_loc:0000000000000272 .LLST1
C:\Users\stapi\AppData\Local\Temp\cceaTiQN.s:273    .text.app_sec_create_bond:0000000000000016 .LVL8
C:\Users\stapi\AppData\Local\Temp\cceaTiQN.s:311    .text.app_sec_create_bond:0000000000000046 .LVL12
C:\Users\stapi\AppData\Local\Temp\cceaTiQN.s:320    .text.app_sec_create_bond:0000000000000058 .LVL13
C:\Users\stapi\AppData\Local\Temp\cceaTiQN.s:10349  .debug_str:00000000000009d3 .LASF448
C:\Users\stapi\AppData\Local\Temp\cceaTiQN.s:200    .text.app_sec_cancel_bonding:0000000000000000 .LFB24
C:\Users\stapi\AppData\Local\Temp\cceaTiQN.s:250    .text.app_sec_cancel_bonding:000000000000004e .LFE24
C:\Users\stapi\AppData\Local\Temp\cceaTiQN.s:9329   .debug_loc:0000000000000290 .LLST0
C:\Users\stapi\AppData\Local\Temp\cceaTiQN.s:223    .text.app_sec_cancel_bonding:0000000000000028 .LVL6
C:\Users\stapi\AppData\Local\Temp\cceaTiQN.s:233    .text.app_sec_cancel_bonding:0000000000000038 .LVL7
C:\Users\stapi\AppData\Local\Temp\cceaTiQN.s:10925  .debug_str:0000000000002487 .LASF449
C:\Users\stapi\AppData\Local\Temp\cceaTiQN.s:149    .text.app_sec_is_pairing_device:0000000000000000 .LFB23
C:\Users\stapi\AppData\Local\Temp\cceaTiQN.s:193    .text.app_sec_is_pairing_device:000000000000003e .LFE23
C:\Users\stapi\AppData\Local\Temp\cceaTiQN.s:176    .text.app_sec_is_pairing_device:000000000000002c .LVL5
C:\Users\stapi\AppData\Local\Temp\cceaTiQN.s:10131  .debug_str:00000000000000a4 .LASF451
C:\Users\stapi\AppData\Local\Temp\cceaTiQN.s:133    .text.app_sec_need_authen_bond:0000000000000000 .LFB22
C:\Users\stapi\AppData\Local\Temp\cceaTiQN.s:142    .text.app_sec_need_authen_bond:000000000000000a .LFE22
C:\Users\stapi\AppData\Local\Temp\cceaTiQN.s:10277  .debug_str:00000000000006b3 .LASF452
C:\Users\stapi\AppData\Local\Temp\cceaTiQN.s:96     .text.app_sec_set_authen:0000000000000000 .LFB21
C:\Users\stapi\AppData\Local\Temp\cceaTiQN.s:126    .text.app_sec_set_authen:0000000000000026 .LFE21
C:\Users\stapi\AppData\Local\Temp\cceaTiQN.s:10733  .debug_str:0000000000001bc9 .LASF453
C:\Users\stapi\AppData\Local\Temp\cceaTiQN.s:10263  .debug_str:000000000000064c .LASF454
C:\Users\stapi\AppData\Local\Temp\cceaTiQN.s:10297  .debug_str:00000000000007a7 .LASF455
C:\Users\stapi\AppData\Local\Temp\cceaTiQN.s:80     .text.app_sec_mgr_deinit:0000000000000000 .LFB20
C:\Users\stapi\AppData\Local\Temp\cceaTiQN.s:89     .text.app_sec_mgr_deinit:0000000000000010 .LFE20
C:\Users\stapi\AppData\Local\Temp\cceaTiQN.s:87     .text.app_sec_mgr_deinit:0000000000000010 .LVL3
C:\Users\stapi\AppData\Local\Temp\cceaTiQN.s:10161  .debug_str:00000000000001d4 .LASF456
C:\Users\stapi\AppData\Local\Temp\cceaTiQN.s:66     .text.app_sec_mgr_init:0000000000000000 .LFB19
C:\Users\stapi\AppData\Local\Temp\cceaTiQN.s:73     .text.app_sec_mgr_init:0000000000000008 .LFE19
C:\Users\stapi\AppData\Local\Temp\cceaTiQN.s:71     .text.app_sec_mgr_init:0000000000000008 .LVL2
C:\Users\stapi\AppData\Local\Temp\cceaTiQN.s:10433  .debug_str:0000000000000d8e .LASF457
C:\Users\stapi\AppData\Local\Temp\cceaTiQN.s:14     .text.app_sec_mgr_reset:0000000000000000 .LFB18
C:\Users\stapi\AppData\Local\Temp\cceaTiQN.s:59     .text.app_sec_mgr_reset:000000000000005c .LFE18
C:\Users\stapi\AppData\Local\Temp\cceaTiQN.s:29     .text.app_sec_mgr_reset:0000000000000022 .LVL0
C:\Users\stapi\AppData\Local\Temp\cceaTiQN.s:52     .text.app_sec_mgr_reset:0000000000000054 .LVL1
C:\Users\stapi\AppData\Local\Temp\cceaTiQN.s:10961  .debug_str:000000000000261b .LASF519
C:\Users\stapi\AppData\Local\Temp\cceaTiQN.s:827    .text.app_sec_evt_handler:0000000000000000 .LFB17
C:\Users\stapi\AppData\Local\Temp\cceaTiQN.s:2550   .text.app_sec_evt_handler:0000000000000b46 .LFE17
C:\Users\stapi\AppData\Local\Temp\cceaTiQN.s:10687  .debug_str:00000000000019ab .LASF458
C:\Users\stapi\AppData\Local\Temp\cceaTiQN.s:9336   .debug_loc:00000000000002a3 .LLST10
C:\Users\stapi\AppData\Local\Temp\cceaTiQN.s:10273  .debug_str:0000000000000698 .LASF459
C:\Users\stapi\AppData\Local\Temp\cceaTiQN.s:9354   .debug_loc:00000000000002cf .LLST11
C:\Users\stapi\AppData\Local\Temp\cceaTiQN.s:878    .text.app_sec_evt_handler:0000000000000022 .LBB34
C:\Users\stapi\AppData\Local\Temp\cceaTiQN.s:9412   .debug_loc:000000000000035b .LLST12
C:\Users\stapi\AppData\Local\Temp\cceaTiQN.s:9431   .debug_loc:000000000000038f .LLST13
C:\Users\stapi\AppData\Local\Temp\cceaTiQN.s:9446   .debug_loc:00000000000003b8 .LLST14
C:\Users\stapi\AppData\Local\Temp\cceaTiQN.s:888    .text.app_sec_evt_handler:0000000000000034 .LVL48
C:\Users\stapi\AppData\Local\Temp\cceaTiQN.s:905    .text.app_sec_evt_handler:0000000000000054 .LVL50
C:\Users\stapi\AppData\Local\Temp\cceaTiQN.s:920    .text.app_sec_evt_handler:0000000000000070 .LVL51
C:\Users\stapi\AppData\Local\Temp\cceaTiQN.s:931    .text.app_sec_evt_handler:0000000000000082 .LVL52
C:\Users\stapi\AppData\Local\Temp\cceaTiQN.s:2516   .text.app_sec_evt_handler:0000000000000b1e .LVL215
C:\Users\stapi\AppData\Local\Temp\cceaTiQN.s:2524   .text.app_sec_evt_handler:0000000000000b2a .LVL216
C:\Users\stapi\AppData\Local\Temp\cceaTiQN.s:1036   .text.app_sec_evt_handler:00000000000000fe .LBB44
C:\Users\stapi\AppData\Local\Temp\cceaTiQN.s:9458   .debug_loc:00000000000003d7 .LLST15
C:\Users\stapi\AppData\Local\Temp\cceaTiQN.s:9465   .debug_loc:00000000000003ea .LLST16
C:\Users\stapi\AppData\Local\Temp\cceaTiQN.s:9478   .debug_loc:000000000000040a .LLST17
C:\Users\stapi\AppData\Local\Temp\cceaTiQN.s:1045   .text.app_sec_evt_handler:000000000000010e .LVL56
C:\Users\stapi\AppData\Local\Temp\cceaTiQN.s:1060   .text.app_sec_evt_handler:000000000000012c .LVL58
C:\Users\stapi\AppData\Local\Temp\cceaTiQN.s:1071   .text.app_sec_evt_handler:000000000000013c .LVL60
C:\Users\stapi\AppData\Local\Temp\cceaTiQN.s:1085   .text.app_sec_evt_handler:0000000000000152 .LVL62
C:\Users\stapi\AppData\Local\Temp\cceaTiQN.s:1090   .text.app_sec_evt_handler:0000000000000160 .LVL63
C:\Users\stapi\AppData\Local\Temp\cceaTiQN.s:1095   .text.app_sec_evt_handler:000000000000016c .LVL64
C:\Users\stapi\AppData\Local\Temp\cceaTiQN.s:1118   .text.app_sec_evt_handler:0000000000000196 .LVL65
C:\Users\stapi\AppData\Local\Temp\cceaTiQN.s:1124   .text.app_sec_evt_handler:00000000000001a8 .LVL66
C:\Users\stapi\AppData\Local\Temp\cceaTiQN.s:1144   .text.app_sec_evt_handler:00000000000001d2 .LVL67
C:\Users\stapi\AppData\Local\Temp\cceaTiQN.s:1174   .text.app_sec_evt_handler:00000000000001f8 .LVL70
C:\Users\stapi\AppData\Local\Temp\cceaTiQN.s:1192   .text.app_sec_evt_handler:0000000000000218 .LVL72
C:\Users\stapi\AppData\Local\Temp\cceaTiQN.s:1204   .text.app_sec_evt_handler:000000000000021e .LBB49
C:\Users\stapi\AppData\Local\Temp\cceaTiQN.s:9489   .debug_loc:0000000000000428 .LLST18
C:\Users\stapi\AppData\Local\Temp\cceaTiQN.s:9500   .debug_loc:0000000000000446 .LLST19
C:\Users\stapi\AppData\Local\Temp\cceaTiQN.s:9511   .debug_loc:0000000000000464 .LLST20
C:\Users\stapi\AppData\Local\Temp\cceaTiQN.s:1211   .text.app_sec_evt_handler:000000000000022a .LVL74
C:\Users\stapi\AppData\Local\Temp\cceaTiQN.s:1224   .text.app_sec_evt_handler:0000000000000246 .LVL76
C:\Users\stapi\AppData\Local\Temp\cceaTiQN.s:1240   .text.app_sec_evt_handler:0000000000000266 .LVL78
C:\Users\stapi\AppData\Local\Temp\cceaTiQN.s:1269   .text.app_sec_evt_handler:0000000000000282 .LVL82
C:\Users\stapi\AppData\Local\Temp\cceaTiQN.s:1279   .text.app_sec_evt_handler:0000000000000292 .LVL84
C:\Users\stapi\AppData\Local\Temp\cceaTiQN.s:1249   .text.app_sec_evt_handler:0000000000000268 .LBB52
C:\Users\stapi\AppData\Local\Temp\cceaTiQN.s:9522   .debug_loc:0000000000000482 .LLST21
C:\Users\stapi\AppData\Local\Temp\cceaTiQN.s:9529   .debug_loc:0000000000000495 .LLST22
C:\Users\stapi\AppData\Local\Temp\cceaTiQN.s:9537   .debug_loc:00000000000004a9 .LLST23
C:\Users\stapi\AppData\Local\Temp\cceaTiQN.s:1293   .text.app_sec_evt_handler:00000000000002a0 .LVL86
C:\Users\stapi\AppData\Local\Temp\cceaTiQN.s:1309   .text.app_sec_evt_handler:00000000000002c0 .LVL88
C:\Users\stapi\AppData\Local\Temp\cceaTiQN.s:1329   .text.app_sec_evt_handler:00000000000002d4 .LBB57
C:\Users\stapi\AppData\Local\Temp\cceaTiQN.s:9548   .debug_loc:00000000000004c7 .LLST24
C:\Users\stapi\AppData\Local\Temp\cceaTiQN.s:9555   .debug_loc:00000000000004da .LLST25
C:\Users\stapi\AppData\Local\Temp\cceaTiQN.s:1333   .text.app_sec_evt_handler:00000000000002dc .LVL92
C:\Users\stapi\AppData\Local\Temp\cceaTiQN.s:1346   .text.app_sec_evt_handler:00000000000002ea .LVL94
C:\Users\stapi\AppData\Local\Temp\cceaTiQN.s:1362   .text.app_sec_evt_handler:000000000000030a .LVL96
C:\Users\stapi\AppData\Local\Temp\cceaTiQN.s:1370   .text.app_sec_evt_handler:000000000000031a .LVL97
C:\Users\stapi\AppData\Local\Temp\cceaTiQN.s:1389   .text.app_sec_evt_handler:000000000000032e .LBB61
C:\Users\stapi\AppData\Local\Temp\cceaTiQN.s:1446   .text.app_sec_evt_handler:000000000000039a .LBE61
C:\Users\stapi\AppData\Local\Temp\cceaTiQN.s:9566   .debug_loc:00000000000004f8 .LLST26
C:\Users\stapi\AppData\Local\Temp\cceaTiQN.s:9573   .debug_loc:000000000000050b .LLST27
C:\Users\stapi\AppData\Local\Temp\cceaTiQN.s:1396   .text.app_sec_evt_handler:000000000000033e .LVL101
C:\Users\stapi\AppData\Local\Temp\cceaTiQN.s:1410   .text.app_sec_evt_handler:000000000000035a .LVL103
C:\Users\stapi\AppData\Local\Temp\cceaTiQN.s:1417   .text.app_sec_evt_handler:0000000000000368 .LVL104
C:\Users\stapi\AppData\Local\Temp\cceaTiQN.s:1434   .text.app_sec_evt_handler:000000000000038a .LVL107
C:\Users\stapi\AppData\Local\Temp\cceaTiQN.s:1447   .text.app_sec_evt_handler:000000000000039a .LBB63
C:\Users\stapi\AppData\Local\Temp\cceaTiQN.s:9584   .debug_loc:0000000000000529 .LLST28
C:\Users\stapi\AppData\Local\Temp\cceaTiQN.s:9597   .debug_loc:0000000000000549 .LLST29
C:\Users\stapi\AppData\Local\Temp\cceaTiQN.s:1451   .text.app_sec_evt_handler:00000000000003a2 .LVL109
C:\Users\stapi\AppData\Local\Temp\cceaTiQN.s:2391   .text.app_sec_evt_handler:0000000000000a4a .LVL202
C:\Users\stapi\AppData\Local\Temp\cceaTiQN.s:2419   .text.app_sec_evt_handler:0000000000000a70 .LVL204
C:\Users\stapi\AppData\Local\Temp\cceaTiQN.s:2438   .text.app_sec_evt_handler:0000000000000a90 .LVL206
C:\Users\stapi\AppData\Local\Temp\cceaTiQN.s:2457   .text.app_sec_evt_handler:0000000000000ab4 .LVL210
C:\Users\stapi\AppData\Local\Temp\cceaTiQN.s:1458   .text.app_sec_evt_handler:00000000000003a4 .LBB67
C:\Users\stapi\AppData\Local\Temp\cceaTiQN.s:9635   .debug_loc:0000000000000590 .LLST30
C:\Users\stapi\AppData\Local\Temp\cceaTiQN.s:9642   .debug_loc:00000000000005a3 .LLST31
C:\Users\stapi\AppData\Local\Temp\cceaTiQN.s:9655   .debug_loc:00000000000005c3 .LLST32
C:\Users\stapi\AppData\Local\Temp\cceaTiQN.s:1467   .text.app_sec_evt_handler:00000000000003b4 .LVL111
C:\Users\stapi\AppData\Local\Temp\cceaTiQN.s:1481   .text.app_sec_evt_handler:00000000000003d0 .LVL113
C:\Users\stapi\AppData\Local\Temp\cceaTiQN.s:1491   .text.app_sec_evt_handler:00000000000003e0 .LVL114
C:\Users\stapi\AppData\Local\Temp\cceaTiQN.s:1499   .text.app_sec_evt_handler:00000000000003ec .LVL117
C:\Users\stapi\AppData\Local\Temp\cceaTiQN.s:1503   .text.app_sec_evt_handler:00000000000003f6 .LVL118
C:\Users\stapi\AppData\Local\Temp\cceaTiQN.s:1514   .text.app_sec_evt_handler:0000000000000414 .LVL119
C:\Users\stapi\AppData\Local\Temp\cceaTiQN.s:1543   .text.app_sec_evt_handler:000000000000043a .LVL121
C:\Users\stapi\AppData\Local\Temp\cceaTiQN.s:1561   .text.app_sec_evt_handler:000000000000045a .LVL123
C:\Users\stapi\AppData\Local\Temp\cceaTiQN.s:1577   .text.app_sec_evt_handler:000000000000048a .LVL124
C:\Users\stapi\AppData\Local\Temp\cceaTiQN.s:1589   .text.app_sec_evt_handler:0000000000000490 .LBB72
C:\Users\stapi\AppData\Local\Temp\cceaTiQN.s:9666   .debug_loc:00000000000005e1 .LLST33
C:\Users\stapi\AppData\Local\Temp\cceaTiQN.s:9673   .debug_loc:00000000000005f4 .LLST34
C:\Users\stapi\AppData\Local\Temp\cceaTiQN.s:9686   .debug_loc:0000000000000614 .LLST35
C:\Users\stapi\AppData\Local\Temp\cceaTiQN.s:1598   .text.app_sec_evt_handler:00000000000004a0 .LVL126
C:\Users\stapi\AppData\Local\Temp\cceaTiQN.s:1605   .text.app_sec_evt_handler:00000000000004ae .LVL128
C:\Users\stapi\AppData\Local\Temp\cceaTiQN.s:1618   .text.app_sec_evt_handler:00000000000004ca .LVL129
C:\Users\stapi\AppData\Local\Temp\cceaTiQN.s:1629   .text.app_sec_evt_handler:00000000000004da .LVL131
C:\Users\stapi\AppData\Local\Temp\cceaTiQN.s:1645   .text.app_sec_evt_handler:00000000000004f4 .LVL133
C:\Users\stapi\AppData\Local\Temp\cceaTiQN.s:1656   .text.app_sec_evt_handler:0000000000000512 .LVL134
C:\Users\stapi\AppData\Local\Temp\cceaTiQN.s:1686   .text.app_sec_evt_handler:0000000000000538 .LVL137
C:\Users\stapi\AppData\Local\Temp\cceaTiQN.s:1704   .text.app_sec_evt_handler:0000000000000558 .LVL139
C:\Users\stapi\AppData\Local\Temp\cceaTiQN.s:1716   .text.app_sec_evt_handler:000000000000055e .LBB77
C:\Users\stapi\AppData\Local\Temp\cceaTiQN.s:1762   .text.app_sec_evt_handler:00000000000005b0 .LBE77
C:\Users\stapi\AppData\Local\Temp\cceaTiQN.s:9697   .debug_loc:0000000000000632 .LLST36
C:\Users\stapi\AppData\Local\Temp\cceaTiQN.s:9704   .debug_loc:0000000000000645 .LLST37
C:\Users\stapi\AppData\Local\Temp\cceaTiQN.s:1722   .text.app_sec_evt_handler:000000000000056a .LVL141
C:\Users\stapi\AppData\Local\Temp\cceaTiQN.s:1737   .text.app_sec_evt_handler:000000000000058a .LVL143
C:\Users\stapi\AppData\Local\Temp\cceaTiQN.s:1748   .text.app_sec_evt_handler:000000000000059c .LVL144
C:\Users\stapi\AppData\Local\Temp\cceaTiQN.s:1764   .text.app_sec_evt_handler:00000000000005b0 .LBB79
C:\Users\stapi\AppData\Local\Temp\cceaTiQN.s:2116   .text.app_sec_evt_handler:000000000000085a .LBE79
C:\Users\stapi\AppData\Local\Temp\cceaTiQN.s:9715   .debug_loc:0000000000000663 .LLST38
C:\Users\stapi\AppData\Local\Temp\cceaTiQN.s:9729   .debug_loc:0000000000000684 .LLST39
C:\Users\stapi\AppData\Local\Temp\cceaTiQN.s:9848   .debug_loc:0000000000000746 .LLST40
C:\Users\stapi\AppData\Local\Temp\cceaTiQN.s:1772   .text.app_sec_evt_handler:00000000000005c0 .LVL147
C:\Users\stapi\AppData\Local\Temp\cceaTiQN.s:1802   .text.app_sec_evt_handler:00000000000005fc .LVL149
C:\Users\stapi\AppData\Local\Temp\cceaTiQN.s:1818   .text.app_sec_evt_handler:000000000000061a .LVL150
C:\Users\stapi\AppData\Local\Temp\cceaTiQN.s:1835   .text.app_sec_evt_handler:000000000000063e .LVL151
C:\Users\stapi\AppData\Local\Temp\cceaTiQN.s:1853   .text.app_sec_evt_handler:0000000000000664 .LVL154
C:\Users\stapi\AppData\Local\Temp\cceaTiQN.s:1871   .text.app_sec_evt_handler:0000000000000684 .LVL156
C:\Users\stapi\AppData\Local\Temp\cceaTiQN.s:1890   .text.app_sec_evt_handler:00000000000006a8 .LVL157
C:\Users\stapi\AppData\Local\Temp\cceaTiQN.s:1907   .text.app_sec_evt_handler:00000000000006ce .LVL159
C:\Users\stapi\AppData\Local\Temp\cceaTiQN.s:1925   .text.app_sec_evt_handler:00000000000006ee .LVL161
C:\Users\stapi\AppData\Local\Temp\cceaTiQN.s:1943   .text.app_sec_evt_handler:000000000000070e .LVL162
C:\Users\stapi\AppData\Local\Temp\cceaTiQN.s:1960   .text.app_sec_evt_handler:0000000000000734 .LVL164
C:\Users\stapi\AppData\Local\Temp\cceaTiQN.s:1978   .text.app_sec_evt_handler:0000000000000754 .LVL166
C:\Users\stapi\AppData\Local\Temp\cceaTiQN.s:1996   .text.app_sec_evt_handler:0000000000000774 .LVL167
C:\Users\stapi\AppData\Local\Temp\cceaTiQN.s:2013   .text.app_sec_evt_handler:000000000000079a .LVL169
C:\Users\stapi\AppData\Local\Temp\cceaTiQN.s:2031   .text.app_sec_evt_handler:00000000000007ba .LVL171
C:\Users\stapi\AppData\Local\Temp\cceaTiQN.s:2049   .text.app_sec_evt_handler:00000000000007da .LVL172
C:\Users\stapi\AppData\Local\Temp\cceaTiQN.s:2066   .text.app_sec_evt_handler:0000000000000800 .LVL174
C:\Users\stapi\AppData\Local\Temp\cceaTiQN.s:2084   .text.app_sec_evt_handler:0000000000000820 .LVL176
C:\Users\stapi\AppData\Local\Temp\cceaTiQN.s:2102   .text.app_sec_evt_handler:0000000000000844 .LVL177
C:\Users\stapi\AppData\Local\Temp\cceaTiQN.s:2118   .text.app_sec_evt_handler:000000000000085a .LBB81
C:\Users\stapi\AppData\Local\Temp\cceaTiQN.s:2176   .text.app_sec_evt_handler:00000000000008c8 .LBE81
C:\Users\stapi\AppData\Local\Temp\cceaTiQN.s:9855   .debug_loc:0000000000000759 .LLST41
C:\Users\stapi\AppData\Local\Temp\cceaTiQN.s:9862   .debug_loc:000000000000076c .LLST42
C:\Users\stapi\AppData\Local\Temp\cceaTiQN.s:2125   .text.app_sec_evt_handler:000000000000086a .LVL179
C:\Users\stapi\AppData\Local\Temp\cceaTiQN.s:2155   .text.app_sec_evt_handler:00000000000008a2 .LVL183
C:\Users\stapi\AppData\Local\Temp\cceaTiQN.s:2186   .text.app_sec_evt_handler:00000000000008d6 .LBB83
C:\Users\stapi\AppData\Local\Temp\cceaTiQN.s:9879   .debug_loc:0000000000000797 .LLST43
C:\Users\stapi\AppData\Local\Temp\cceaTiQN.s:9886   .debug_loc:00000000000007aa .LLST44
C:\Users\stapi\AppData\Local\Temp\cceaTiQN.s:2192   .text.app_sec_evt_handler:00000000000008e2 .LVL187
C:\Users\stapi\AppData\Local\Temp\cceaTiQN.s:2208   .text.app_sec_evt_handler:0000000000000904 .LVL189
C:\Users\stapi\AppData\Local\Temp\cceaTiQN.s:2219   .text.app_sec_evt_handler:0000000000000916 .LVL190
C:\Users\stapi\AppData\Local\Temp\cceaTiQN.s:2247   .text.app_sec_evt_handler:0000000000000942 .LVL191
C:\Users\stapi\AppData\Local\Temp\cceaTiQN.s:2269   .text.app_sec_evt_handler:000000000000095a .LBB88
C:\Users\stapi\AppData\Local\Temp\cceaTiQN.s:2376   .text.app_sec_evt_handler:0000000000000a2c .LBE88
C:\Users\stapi\AppData\Local\Temp\cceaTiQN.s:9893   .debug_loc:00000000000007bd .LLST45
C:\Users\stapi\AppData\Local\Temp\cceaTiQN.s:9900   .debug_loc:00000000000007d0 .LLST46
C:\Users\stapi\AppData\Local\Temp\cceaTiQN.s:2275   .text.app_sec_evt_handler:0000000000000966 .LVL193
C:\Users\stapi\AppData\Local\Temp\cceaTiQN.s:2309   .text.app_sec_evt_handler:00000000000009a6 .LVL195
C:\Users\stapi\AppData\Local\Temp\cceaTiQN.s:2326   .text.app_sec_evt_handler:00000000000009c8 .LVL196
C:\Users\stapi\AppData\Local\Temp\cceaTiQN.s:2342   .text.app_sec_evt_handler:00000000000009ec .LVL197
C:\Users\stapi\AppData\Local\Temp\cceaTiQN.s:2359   .text.app_sec_evt_handler:0000000000000a0a .LVL198
C:\Users\stapi\AppData\Local\Temp\cceaTiQN.s:2367   .text.app_sec_evt_handler:0000000000000a1c .LVL199
C:\Users\stapi\AppData\Local\Temp\cceaTiQN.s:2371   .text.app_sec_evt_handler:0000000000000a28 .LVL200
C:\Users\stapi\AppData\Local\Temp\cceaTiQN.s:2180   .text.app_sec_evt_handler:00000000000008d2 .LVL185
C:\Users\stapi\AppData\Local\Temp\cceaTiQN.s:2491   .text.app_sec_evt_handler:0000000000000af4 .LVL213
C:\Users\stapi\AppData\Local\Temp\cceaTiQN.s:10579  .debug_str:0000000000001520 .LASF461
C:\Users\stapi\AppData\Local\Temp\cceaTiQN.s:10991  .debug_str:000000000000275d .LASF463
C:\Users\stapi\AppData\Local\Temp\cceaTiQN.s:10883  .debug_str:0000000000002269 .LASF462
C:\Users\stapi\AppData\Local\Temp\cceaTiQN.s:10599  .debug_str:0000000000001605 .LASF464
C:\Users\stapi\AppData\Local\Temp\cceaTiQN.s:11017  .debug_str:000000000000285f .LASF465
C:\Users\stapi\AppData\Local\Temp\cceaTiQN.s:10915  .debug_str:000000000000240f .LASF520
C:\Users\stapi\AppData\Local\Temp\cceaTiQN.s:10959  .debug_str:0000000000002605 .LASF466
C:\Users\stapi\AppData\Local\Temp\cceaTiQN.s:10505  .debug_str:00000000000010d5 .LASF467
C:\Users\stapi\AppData\Local\Temp\cceaTiQN.s:11113  .debug_str:0000000000002cdc .LASF468
C:\Users\stapi\AppData\Local\Temp\cceaTiQN.s:10657  .debug_str:00000000000018a7 .LASF469
C:\Users\stapi\AppData\Local\Temp\cceaTiQN.s:10827  .debug_str:0000000000001fe0 .LASF470
C:\Users\stapi\AppData\Local\Temp\cceaTiQN.s:10775  .debug_str:0000000000001d96 .LASF471
C:\Users\stapi\AppData\Local\Temp\cceaTiQN.s:10501  .debug_str:00000000000010a6 .LASF472
C:\Users\stapi\AppData\Local\Temp\cceaTiQN.s:10401  .debug_str:0000000000000c34 .LASF473
C:\Users\stapi\AppData\Local\Temp\cceaTiQN.s:10931  .debug_str:00000000000024c5 .LASF474
C:\Users\stapi\AppData\Local\Temp\cceaTiQN.s:10201  .debug_str:00000000000003ea .LASF475
C:\Users\stapi\AppData\Local\Temp\cceaTiQN.s:11093  .debug_str:0000000000002be5 .LASF476
C:\Users\stapi\AppData\Local\Temp\cceaTiQN.s:10527  .debug_str:00000000000011e6 .LASF477
C:\Users\stapi\AppData\Local\Temp\cceaTiQN.s:10413  .debug_str:0000000000000ca5 .LASF478
C:\Users\stapi\AppData\Local\Temp\cceaTiQN.s:629    .text.app_security_req_info_hdlr:0000000000000000 .LFB13
C:\Users\stapi\AppData\Local\Temp\cceaTiQN.s:697    .text.app_security_req_info_hdlr:0000000000000062 .LFE13
C:\Users\stapi\AppData\Local\Temp\cceaTiQN.s:9907   .debug_loc:00000000000007e3 .LLST7
C:\Users\stapi\AppData\Local\Temp\cceaTiQN.s:9918   .debug_loc:0000000000000801 .LLST8
C:\Users\stapi\AppData\Local\Temp\cceaTiQN.s:649    .text.app_security_req_info_hdlr:0000000000000018 .LBB4
C:\Users\stapi\AppData\Local\Temp\cceaTiQN.s:665    .text.app_security_req_info_hdlr:0000000000000036 .LBE4
C:\Users\stapi\AppData\Local\Temp\cceaTiQN.s:9943   .debug_loc:0000000000000843 .LLST9
C:\Users\stapi\AppData\Local\Temp\cceaTiQN.s:662    .text.app_security_req_info_hdlr:0000000000000036 .LVL38
C:\Users\stapi\AppData\Local\Temp\cceaTiQN.s:644    .text.app_security_req_info_hdlr:0000000000000016 .LVL35
C:\Users\stapi\AppData\Local\Temp\cceaTiQN.s:688    .text.app_security_req_info_hdlr:0000000000000056 .LVL42
C:\Users\stapi\AppData\Local\Temp\cceaTiQN.s:694    .text.app_security_req_info_hdlr:0000000000000060 .LVL44
C:\Users\stapi\AppData\Local\Temp\cceaTiQN.s:10727  .debug_str:0000000000001b71 .LASF479
C:\Users\stapi\AppData\Local\Temp\cceaTiQN.s:11037  .debug_str:0000000000002969 .LASF497
C:\Users\stapi\AppData\Local\Temp\cceaTiQN.s:10435  .debug_str:0000000000000da0 .LASF499
C:\Users\stapi\AppData\Local\Temp\cceaTiQN.s:10155  .debug_str:00000000000001a7 .LASF480
C:\Users\stapi\AppData\Local\Temp\cceaTiQN.s:10917  .debug_str:000000000000242a .LASF481
C:\Users\stapi\AppData\Local\Temp\cceaTiQN.s:10945  .debug_str:0000000000002563 .LASF482
C:\Users\stapi\AppData\Local\Temp\cceaTiQN.s:11049  .debug_str:00000000000029db .LASF483
C:\Users\stapi\AppData\Local\Temp\cceaTiQN.s:10905  .debug_str:000000000000238a .LASF484
C:\Users\stapi\AppData\Local\Temp\cceaTiQN.s:10335  .debug_str:000000000000092e .LASF485
C:\Users\stapi\AppData\Local\Temp\cceaTiQN.s:10825  .debug_str:0000000000001fcf .LASF486
C:\Users\stapi\AppData\Local\Temp\cceaTiQN.s:10509  .debug_str:000000000000110c .LASF487
C:\Users\stapi\AppData\Local\Temp\cceaTiQN.s:10623  .debug_str:000000000000172f .LASF488
C:\Users\stapi\AppData\Local\Temp\cceaTiQN.s:10889  .debug_str:00000000000022b1 .LASF489
C:\Users\stapi\AppData\Local\Temp\cceaTiQN.s:10595  .debug_str:00000000000015e1 .LASF490
C:\Users\stapi\AppData\Local\Temp\cceaTiQN.s:10949  .debug_str:0000000000002591 .LASF491
C:\Users\stapi\AppData\Local\Temp\cceaTiQN.s:10787  .debug_str:0000000000001e1d .LASF492
C:\Users\stapi\AppData\Local\Temp\cceaTiQN.s:10523  .debug_str:00000000000011c8 .LASF493
C:\Users\stapi\AppData\Local\Temp\cceaTiQN.s:10781  .debug_str:0000000000001ddf .LASF494
C:\Users\stapi\AppData\Local\Temp\cceaTiQN.s:10929  .debug_str:00000000000024be .LASF495
C:\Users\stapi\AppData\Local\Temp\cceaTiQN.s:10565  .debug_str:00000000000013a3 .LASF496
C:\Users\stapi\AppData\Local\Temp\cceaTiQN.s:10411  .debug_str:0000000000000c9e .LASF498
C:\Users\stapi\AppData\Local\Temp\cceaTiQN.s:10287  .debug_str:0000000000000739 .LASF500
C:\Users\stapi\AppData\Local\Temp\cceaTiQN.s:10537  .debug_str:0000000000001264 .LASF501
C:\Users\stapi\AppData\Local\Temp\cceaTiQN.s:11043  .debug_str:000000000000299a .LASF502
C:\Users\stapi\AppData\Local\Temp\cceaTiQN.s:10865  .debug_str:00000000000021b7 .LASF503
C:\Users\stapi\AppData\Local\Temp\cceaTiQN.s:10987  .debug_str:0000000000002734 .LASF504
C:\Users\stapi\AppData\Local\Temp\cceaTiQN.s:10969  .debug_str:0000000000002657 .LASF505
C:\Users\stapi\AppData\Local\Temp\cceaTiQN.s:10839  .debug_str:000000000000206d .LASF506
C:\Users\stapi\AppData\Local\Temp\cceaTiQN.s:10185  .debug_str:000000000000034d .LASF507
C:\Users\stapi\AppData\Local\Temp\cceaTiQN.s:10761  .debug_str:0000000000001cf5 .LASF508
C:\Users\stapi\AppData\Local\Temp\cceaTiQN.s:10719  .debug_str:0000000000001b21 .LASF509
C:\Users\stapi\AppData\Local\Temp\cceaTiQN.s:11063  .debug_str:0000000000002a87 .LASF510
C:\Users\stapi\AppData\Local\Temp\cceaTiQN.s:10791  .debug_str:0000000000001e41 .LASF511
C:\Users\stapi\AppData\Local\Temp\cceaTiQN.s:10195  .debug_str:00000000000003b6 .LASF512
C:\Users\stapi\AppData\Local\Temp\cceaTiQN.s:10175  .debug_str:000000000000027a .LASF513
C:\Users\stapi\AppData\Local\Temp\cceaTiQN.s:2909   .text.app_set_oob_data:0000000000000000 .LVL251
C:\Users\stapi\AppData\Local\Temp\cceaTiQN.s:2925   .text.app_set_oob_data:000000000000001a .LVL253
C:\Users\stapi\AppData\Local\Temp\cceaTiQN.s:2923   .text.app_set_oob_data:0000000000000016 .LVL252
C:\Users\stapi\AppData\Local\Temp\cceaTiQN.s:2835   .text.app_sec_num_compare:0000000000000000 .LVL243
C:\Users\stapi\AppData\Local\Temp\cceaTiQN.s:2860   .text.app_sec_num_compare:0000000000000028 .LVL245
C:\Users\stapi\AppData\Local\Temp\cceaTiQN.s:2880   .text.app_sec_num_compare:0000000000000048 .LVL248
C:\Users\stapi\AppData\Local\Temp\cceaTiQN.s:2888   .text.app_sec_num_compare:0000000000000050 .LVL249
C:\Users\stapi\AppData\Local\Temp\cceaTiQN.s:2765   .text.app_sec_input_oob:0000000000000000 .LVL237
C:\Users\stapi\AppData\Local\Temp\cceaTiQN.s:2812   .text.app_sec_input_oob:000000000000004a .LVL242
C:\Users\stapi\AppData\Local\Temp\cceaTiQN.s:2795   .text.app_sec_input_oob:000000000000002e .LVL239
C:\Users\stapi\AppData\Local\Temp\cceaTiQN.s:2685   .text.app_sec_input_passkey:0000000000000000 .LVL229
C:\Users\stapi\AppData\Local\Temp\cceaTiQN.s:2710   .text.app_sec_input_passkey:0000000000000028 .LVL231
C:\Users\stapi\AppData\Local\Temp\cceaTiQN.s:2731   .text.app_sec_input_passkey:000000000000004a .LVL234
C:\Users\stapi\AppData\Local\Temp\cceaTiQN.s:2739   .text.app_sec_input_passkey:0000000000000052 .LVL235
C:\Users\stapi\AppData\Local\Temp\cceaTiQN.s:2573   .text.app_sec_send_encrypt_req:0000000000000000 .LVL218
C:\Users\stapi\AppData\Local\Temp\cceaTiQN.s:2595   .text.app_sec_send_encrypt_req:0000000000000026 .LVL220
C:\Users\stapi\AppData\Local\Temp\cceaTiQN.s:2609   .text.app_sec_send_encrypt_req:000000000000003a .LVL222
C:\Users\stapi\AppData\Local\Temp\cceaTiQN.s:2624   .text.app_sec_send_encrypt_req:0000000000000052 .LVL223
C:\Users\stapi\AppData\Local\Temp\cceaTiQN.s:2627   .text.app_sec_send_encrypt_req:0000000000000058 .LVL224
C:\Users\stapi\AppData\Local\Temp\cceaTiQN.s:2643   .text.app_sec_send_encrypt_req:0000000000000070 .LVL225
C:\Users\stapi\AppData\Local\Temp\cceaTiQN.s:2646   .text.app_sec_send_encrypt_req:0000000000000076 .LVL226
C:\Users\stapi\AppData\Local\Temp\cceaTiQN.s:2652   .text.app_sec_send_encrypt_req:000000000000007c .LVL227
C:\Users\stapi\AppData\Local\Temp\cceaTiQN.s:509    .text.app_sec_send_bond_req:0000000000000000 .LVL28
C:\Users\stapi\AppData\Local\Temp\cceaTiQN.s:515    .text.app_sec_send_bond_req:0000000000000008 .LVL29
C:\Users\stapi\AppData\Local\Temp\cceaTiQN.s:590    .text.app_sec_send_bond_req:0000000000000076 .LVL30
C:\Users\stapi\AppData\Local\Temp\cceaTiQN.s:439    .text.app_sec_send_security_req:0000000000000000 .LVL21
C:\Users\stapi\AppData\Local\Temp\cceaTiQN.s:444    .text.app_sec_send_security_req:0000000000000008 .LVL22
C:\Users\stapi\AppData\Local\Temp\cceaTiQN.s:451    .text.app_sec_send_security_req:0000000000000014 .LVL23
C:\Users\stapi\AppData\Local\Temp\cceaTiQN.s:383    .text.app_sec_remove_bond:0000000000000032 .LVL15
C:\Users\stapi\AppData\Local\Temp\cceaTiQN.s:398    .text.app_sec_remove_bond:0000000000000048 .LVL17
C:\Users\stapi\AppData\Local\Temp\cceaTiQN.s:277    .text.app_sec_create_bond:0000000000000018 .LVL9
C:\Users\stapi\AppData\Local\Temp\cceaTiQN.s:290    .text.app_sec_create_bond:0000000000000024 .LVL10
C:\Users\stapi\AppData\Local\Temp\cceaTiQN.s:309    .text.app_sec_create_bond:000000000000003e .LVL11
C:\Users\stapi\AppData\Local\Temp\cceaTiQN.s:830    .text.app_sec_evt_handler:0000000000000000 .LVL45
C:\Users\stapi\AppData\Local\Temp\cceaTiQN.s:847    .text.app_sec_evt_handler:000000000000001a .LVL46
C:\Users\stapi\AppData\Local\Temp\cceaTiQN.s:2536   .text.app_sec_evt_handler:0000000000000b44 .LVL217
C:\Users\stapi\AppData\Local\Temp\cceaTiQN.s:948    .text.app_sec_evt_handler:000000000000008c .LVL53
C:\Users\stapi\AppData\Local\Temp\cceaTiQN.s:1443   .text.app_sec_evt_handler:000000000000039a .LVL108
C:\Users\stapi\AppData\Local\Temp\cceaTiQN.s:1453   .text.app_sec_evt_handler:00000000000003a4 .LVL110
C:\Users\stapi\AppData\Local\Temp\cceaTiQN.s:1838   .text.app_sec_evt_handler:0000000000000642 .LVL152
C:\Users\stapi\AppData\Local\Temp\cceaTiQN.s:2113   .text.app_sec_evt_handler:000000000000085a .LVL178
C:\Users\stapi\AppData\Local\Temp\cceaTiQN.s:2445   .text.app_sec_evt_handler:0000000000000a98 .LVL208
C:\Users\stapi\AppData\Local\Temp\cceaTiQN.s:2475   .text.app_sec_evt_handler:0000000000000ace .LVL212
C:\Users\stapi\AppData\Local\Temp\cceaTiQN.s:877    .text.app_sec_evt_handler:0000000000000022 .LVL47
C:\Users\stapi\AppData\Local\Temp\cceaTiQN.s:1031   .text.app_sec_evt_handler:00000000000000fe .LVL55
C:\Users\stapi\AppData\Local\Temp\cceaTiQN.s:2494   .text.app_sec_evt_handler:0000000000000af8 .LVL214
C:\Users\stapi\AppData\Local\Temp\cceaTiQN.s:893    .text.app_sec_evt_handler:000000000000003a .LVL49
C:\Users\stapi\AppData\Local\Temp\cceaTiQN.s:1015   .text.app_sec_evt_handler:00000000000000ea .LVL54
C:\Users\stapi\AppData\Local\Temp\cceaTiQN.s:1199   .text.app_sec_evt_handler:000000000000021e .LVL73
C:\Users\stapi\AppData\Local\Temp\cceaTiQN.s:1163   .text.app_sec_evt_handler:00000000000001dc .LVL69
C:\Users\stapi\AppData\Local\Temp\cceaTiQN.s:1181   .text.app_sec_evt_handler:00000000000001fa .LVL71
C:\Users\stapi\AppData\Local\Temp\cceaTiQN.s:1047   .text.app_sec_evt_handler:0000000000000110 .LVL57
C:\Users\stapi\AppData\Local\Temp\cceaTiQN.s:1066   .text.app_sec_evt_handler:0000000000000130 .LVL59
C:\Users\stapi\AppData\Local\Temp\cceaTiQN.s:1073   .text.app_sec_evt_handler:000000000000013e .LVL61
C:\Users\stapi\AppData\Local\Temp\cceaTiQN.s:1152   .text.app_sec_evt_handler:00000000000001d4 .LVL68
C:\Users\stapi\AppData\Local\Temp\cceaTiQN.s:1245   .text.app_sec_evt_handler:0000000000000268 .LVL79
C:\Users\stapi\AppData\Local\Temp\cceaTiQN.s:1254   .text.app_sec_evt_handler:000000000000026c .LVL80
C:\Users\stapi\AppData\Local\Temp\cceaTiQN.s:1275   .text.app_sec_evt_handler:0000000000000286 .LVL83
C:\Users\stapi\AppData\Local\Temp\cceaTiQN.s:1219   .text.app_sec_evt_handler:000000000000023a .LVL75
C:\Users\stapi\AppData\Local\Temp\cceaTiQN.s:1237   .text.app_sec_evt_handler:000000000000025a .LVL77
C:\Users\stapi\AppData\Local\Temp\cceaTiQN.s:1265   .text.app_sec_evt_handler:0000000000000274 .LVL81
C:\Users\stapi\AppData\Local\Temp\cceaTiQN.s:1285   .text.app_sec_evt_handler:0000000000000294 .LVL85
C:\Users\stapi\AppData\Local\Temp\cceaTiQN.s:1325   .text.app_sec_evt_handler:00000000000002d4 .LVL91
C:\Users\stapi\AppData\Local\Temp\cceaTiQN.s:1306   .text.app_sec_evt_handler:00000000000002b4 .LVL87
C:\Users\stapi\AppData\Local\Temp\cceaTiQN.s:1315   .text.app_sec_evt_handler:00000000000002c4 .LVL89
C:\Users\stapi\AppData\Local\Temp\cceaTiQN.s:1323   .text.app_sec_evt_handler:00000000000002d0 .LVL90
C:\Users\stapi\AppData\Local\Temp\cceaTiQN.s:1339   .text.app_sec_evt_handler:00000000000002de .LVL93
C:\Users\stapi\AppData\Local\Temp\cceaTiQN.s:1384   .text.app_sec_evt_handler:000000000000032e .LVL100
C:\Users\stapi\AppData\Local\Temp\cceaTiQN.s:1359   .text.app_sec_evt_handler:00000000000002fe .LVL95
C:\Users\stapi\AppData\Local\Temp\cceaTiQN.s:1373   .text.app_sec_evt_handler:000000000000031c .LVL98
C:\Users\stapi\AppData\Local\Temp\cceaTiQN.s:1380   .text.app_sec_evt_handler:0000000000000324 .LVL99
C:\Users\stapi\AppData\Local\Temp\cceaTiQN.s:1407   .text.app_sec_evt_handler:000000000000034e .LVL102
C:\Users\stapi\AppData\Local\Temp\cceaTiQN.s:1420   .text.app_sec_evt_handler:000000000000036a .LVL105
C:\Users\stapi\AppData\Local\Temp\cceaTiQN.s:1431   .text.app_sec_evt_handler:000000000000037e .LVL106
C:\Users\stapi\AppData\Local\Temp\cceaTiQN.s:2373   .text.app_sec_evt_handler:0000000000000a2c .LVL201
C:\Users\stapi\AppData\Local\Temp\cceaTiQN.s:2409   .text.app_sec_evt_handler:0000000000000a54 .LVL203
C:\Users\stapi\AppData\Local\Temp\cceaTiQN.s:2441   .text.app_sec_evt_handler:0000000000000a94 .LVL207
C:\Users\stapi\AppData\Local\Temp\cceaTiQN.s:2448   .text.app_sec_evt_handler:0000000000000a9c .LVL209
C:\Users\stapi\AppData\Local\Temp\cceaTiQN.s:2464   .text.app_sec_evt_handler:0000000000000ab6 .LVL211
C:\Users\stapi\AppData\Local\Temp\cceaTiQN.s:1584   .text.app_sec_evt_handler:0000000000000490 .LVL125
C:\Users\stapi\AppData\Local\Temp\cceaTiQN.s:1532   .text.app_sec_evt_handler:000000000000041e .LVL120
C:\Users\stapi\AppData\Local\Temp\cceaTiQN.s:1550   .text.app_sec_evt_handler:000000000000043c .LVL122
C:\Users\stapi\AppData\Local\Temp\cceaTiQN.s:1478   .text.app_sec_evt_handler:00000000000003c4 .LVL112
C:\Users\stapi\AppData\Local\Temp\cceaTiQN.s:1493   .text.app_sec_evt_handler:00000000000003e2 .LVL115
C:\Users\stapi\AppData\Local\Temp\cceaTiQN.s:1497   .text.app_sec_evt_handler:00000000000003e4 .LVL116
C:\Users\stapi\AppData\Local\Temp\cceaTiQN.s:1711   .text.app_sec_evt_handler:000000000000055e .LVL140
C:\Users\stapi\AppData\Local\Temp\cceaTiQN.s:1675   .text.app_sec_evt_handler:000000000000051c .LVL136
C:\Users\stapi\AppData\Local\Temp\cceaTiQN.s:1693   .text.app_sec_evt_handler:000000000000053a .LVL138
C:\Users\stapi\AppData\Local\Temp\cceaTiQN.s:1600   .text.app_sec_evt_handler:00000000000004a2 .LVL127
C:\Users\stapi\AppData\Local\Temp\cceaTiQN.s:1624   .text.app_sec_evt_handler:00000000000004ce .LVL130
C:\Users\stapi\AppData\Local\Temp\cceaTiQN.s:1631   .text.app_sec_evt_handler:00000000000004dc .LVL132
C:\Users\stapi\AppData\Local\Temp\cceaTiQN.s:1664   .text.app_sec_evt_handler:0000000000000514 .LVL135
C:\Users\stapi\AppData\Local\Temp\cceaTiQN.s:1759   .text.app_sec_evt_handler:00000000000005b0 .LVL146
C:\Users\stapi\AppData\Local\Temp\cceaTiQN.s:1734   .text.app_sec_evt_handler:000000000000057e .LVL142
C:\Users\stapi\AppData\Local\Temp\cceaTiQN.s:1750   .text.app_sec_evt_handler:000000000000059e .LVL145
C:\Users\stapi\AppData\Local\Temp\cceaTiQN.s:1844   .text.app_sec_evt_handler:000000000000064c .LVL153
C:\Users\stapi\AppData\Local\Temp\cceaTiQN.s:1860   .text.app_sec_evt_handler:0000000000000666 .LVL155
C:\Users\stapi\AppData\Local\Temp\cceaTiQN.s:1898   .text.app_sec_evt_handler:00000000000006b6 .LVL158
C:\Users\stapi\AppData\Local\Temp\cceaTiQN.s:1914   .text.app_sec_evt_handler:00000000000006d0 .LVL160
C:\Users\stapi\AppData\Local\Temp\cceaTiQN.s:1951   .text.app_sec_evt_handler:000000000000071c .LVL163
C:\Users\stapi\AppData\Local\Temp\cceaTiQN.s:1967   .text.app_sec_evt_handler:0000000000000736 .LVL165
C:\Users\stapi\AppData\Local\Temp\cceaTiQN.s:2004   .text.app_sec_evt_handler:0000000000000782 .LVL168
C:\Users\stapi\AppData\Local\Temp\cceaTiQN.s:2020   .text.app_sec_evt_handler:000000000000079c .LVL170
C:\Users\stapi\AppData\Local\Temp\cceaTiQN.s:2057   .text.app_sec_evt_handler:00000000000007e8 .LVL173
C:\Users\stapi\AppData\Local\Temp\cceaTiQN.s:2073   .text.app_sec_evt_handler:0000000000000802 .LVL175
C:\Users\stapi\AppData\Local\Temp\cceaTiQN.s:1777   .text.app_sec_evt_handler:00000000000005c6 .LVL148
C:\Users\stapi\AppData\Local\Temp\cceaTiQN.s:2173   .text.app_sec_evt_handler:00000000000008c8 .LVL184
C:\Users\stapi\AppData\Local\Temp\cceaTiQN.s:2136   .text.app_sec_evt_handler:000000000000087a .LVL180
C:\Users\stapi\AppData\Local\Temp\cceaTiQN.s:2139   .text.app_sec_evt_handler:0000000000000880 .LVL181
C:\Users\stapi\AppData\Local\Temp\cceaTiQN.s:2153   .text.app_sec_evt_handler:000000000000089a .LVL182
C:\Users\stapi\AppData\Local\Temp\cceaTiQN.s:2185   .text.app_sec_evt_handler:00000000000008d6 .LVL186
C:\Users\stapi\AppData\Local\Temp\cceaTiQN.s:2264   .text.app_sec_evt_handler:000000000000095a .LVL192
C:\Users\stapi\AppData\Local\Temp\cceaTiQN.s:2194   .text.app_sec_evt_handler:00000000000008e4 .LVL188
C:\Users\stapi\AppData\Local\Temp\cceaTiQN.s:2277   .text.app_sec_evt_handler:0000000000000968 .LVL194
C:\Users\stapi\AppData\Local\Temp\cceaTiQN.s:632    .text.app_security_req_info_hdlr:0000000000000000 .LVL33
C:\Users\stapi\AppData\Local\Temp\cceaTiQN.s:642    .text.app_security_req_info_hdlr:000000000000000e .LVL34
C:\Users\stapi\AppData\Local\Temp\cceaTiQN.s:659    .text.app_security_req_info_hdlr:000000000000002a .LVL37
C:\Users\stapi\AppData\Local\Temp\cceaTiQN.s:672    .text.app_security_req_info_hdlr:000000000000003e .LVL39
C:\Users\stapi\AppData\Local\Temp\cceaTiQN.s:681    .text.app_security_req_info_hdlr:0000000000000048 .LVL40
C:\Users\stapi\AppData\Local\Temp\cceaTiQN.s:686    .text.app_security_req_info_hdlr:000000000000004e .LVL41
C:\Users\stapi\AppData\Local\Temp\cceaTiQN.s:690    .text.app_security_req_info_hdlr:0000000000000058 .LVL43
C:\Users\stapi\AppData\Local\Temp\cceaTiQN.s:648    .text.app_security_req_info_hdlr:0000000000000018 .LVL36
C:\Users\stapi\AppData\Local\Temp\cceaTiQN.s:3006   .debug_info:0000000000000000 .Ldebug_info0
C:\Users\stapi\AppData\Local\Temp\cceaTiQN.s:934    .text.app_sec_evt_handler:0000000000000082 .LBE34
C:\Users\stapi\AppData\Local\Temp\cceaTiQN.s:951    .text.app_sec_evt_handler:000000000000008c .LBB43
C:\Users\stapi\AppData\Local\Temp\cceaTiQN.s:1034   .text.app_sec_evt_handler:00000000000000fe .LBE43
C:\Users\stapi\AppData\Local\Temp\cceaTiQN.s:1148   .text.app_sec_evt_handler:00000000000001d2 .LBB47
C:\Users\stapi\AppData\Local\Temp\cceaTiQN.s:1154   .text.app_sec_evt_handler:00000000000001d4 .LBE47
C:\Users\stapi\AppData\Local\Temp\cceaTiQN.s:1518   .text.app_sec_evt_handler:0000000000000414 .LBB70
C:\Users\stapi\AppData\Local\Temp\cceaTiQN.s:1523   .text.app_sec_evt_handler:0000000000000416 .LBE70
C:\Users\stapi\AppData\Local\Temp\cceaTiQN.s:1660   .text.app_sec_evt_handler:0000000000000512 .LBB75
C:\Users\stapi\AppData\Local\Temp\cceaTiQN.s:1666   .text.app_sec_evt_handler:0000000000000514 .LBE75
C:\Users\stapi\AppData\Local\Temp\cceaTiQN.s:2227   .text.app_sec_evt_handler:000000000000091e .LBB86
C:\Users\stapi\AppData\Local\Temp\cceaTiQN.s:2232   .text.app_sec_evt_handler:0000000000000922 .LBE86
C:\Users\stapi\AppData\Local\Temp\cceaTiQN.s:2395   .text.app_sec_evt_handler:0000000000000a4a .LBB91
C:\Users\stapi\AppData\Local\Temp\cceaTiQN.s:2400   .text.app_sec_evt_handler:0000000000000a4c .LBE91
C:\Users\stapi\AppData\Local\Temp\cceaTiQN.s:2496   .text.app_sec_evt_handler:0000000000000af8 .LBB93
C:\Users\stapi\AppData\Local\Temp\cceaTiQN.s:2548   .text.app_sec_evt_handler:0000000000000b46 .LBE93
C:\Users\stapi\AppData\Local\Temp\cceaTiQN.s:1147   .text.app_sec_evt_handler:00000000000001d2 .LBE44
C:\Users\stapi\AppData\Local\Temp\cceaTiQN.s:1155   .text.app_sec_evt_handler:00000000000001d4 .LBB48
C:\Users\stapi\AppData\Local\Temp\cceaTiQN.s:1202   .text.app_sec_evt_handler:000000000000021e .LBE48
C:\Users\stapi\AppData\Local\Temp\cceaTiQN.s:1248   .text.app_sec_evt_handler:0000000000000268 .LBE49
C:\Users\stapi\AppData\Local\Temp\cceaTiQN.s:1258   .text.app_sec_evt_handler:000000000000026c .LBB55
C:\Users\stapi\AppData\Local\Temp\cceaTiQN.s:1283   .text.app_sec_evt_handler:0000000000000294 .LBE55
C:\Users\stapi\AppData\Local\Temp\cceaTiQN.s:1257   .text.app_sec_evt_handler:000000000000026c .LBE52
C:\Users\stapi\AppData\Local\Temp\cceaTiQN.s:1286   .text.app_sec_evt_handler:0000000000000294 .LBB56
C:\Users\stapi\AppData\Local\Temp\cceaTiQN.s:1328   .text.app_sec_evt_handler:00000000000002d4 .LBE56
C:\Users\stapi\AppData\Local\Temp\cceaTiQN.s:1337   .text.app_sec_evt_handler:00000000000002de .LBE57
C:\Users\stapi\AppData\Local\Temp\cceaTiQN.s:1340   .text.app_sec_evt_handler:00000000000002de .LBB60
C:\Users\stapi\AppData\Local\Temp\cceaTiQN.s:1387   .text.app_sec_evt_handler:000000000000032e .LBE60
C:\Users\stapi\AppData\Local\Temp\cceaTiQN.s:1456   .text.app_sec_evt_handler:00000000000003a4 .LBE63
C:\Users\stapi\AppData\Local\Temp\cceaTiQN.s:2378   .text.app_sec_evt_handler:0000000000000a2c .LBB90
C:\Users\stapi\AppData\Local\Temp\cceaTiQN.s:2394   .text.app_sec_evt_handler:0000000000000a4a .LBE90
C:\Users\stapi\AppData\Local\Temp\cceaTiQN.s:2401   .text.app_sec_evt_handler:0000000000000a4c .LBB92
C:\Users\stapi\AppData\Local\Temp\cceaTiQN.s:2478   .text.app_sec_evt_handler:0000000000000ace .LBE92
C:\Users\stapi\AppData\Local\Temp\cceaTiQN.s:1517   .text.app_sec_evt_handler:0000000000000414 .LBE67
C:\Users\stapi\AppData\Local\Temp\cceaTiQN.s:1524   .text.app_sec_evt_handler:0000000000000416 .LBB71
C:\Users\stapi\AppData\Local\Temp\cceaTiQN.s:1587   .text.app_sec_evt_handler:0000000000000490 .LBE71
C:\Users\stapi\AppData\Local\Temp\cceaTiQN.s:1659   .text.app_sec_evt_handler:0000000000000512 .LBE72
C:\Users\stapi\AppData\Local\Temp\cceaTiQN.s:1667   .text.app_sec_evt_handler:0000000000000514 .LBB76
C:\Users\stapi\AppData\Local\Temp\cceaTiQN.s:1714   .text.app_sec_evt_handler:000000000000055e .LBE76
C:\Users\stapi\AppData\Local\Temp\cceaTiQN.s:2226   .text.app_sec_evt_handler:000000000000091e .LBE83
C:\Users\stapi\AppData\Local\Temp\cceaTiQN.s:2233   .text.app_sec_evt_handler:0000000000000922 .LBB87
C:\Users\stapi\AppData\Local\Temp\cceaTiQN.s:2267   .text.app_sec_evt_handler:000000000000095a .LBE87

UNDEFINED SYMBOLS
__riscv_save_1
memset
ble_sec_callback_register
__riscv_restore_1
ble_sec_callback_unregister
__riscv_save_0
memcmp
__riscv_restore_0
__riscv_save_2
dm_find_dev_by_addr
ble_conn_connect_cancel
__riscv_restore_2
dm_find_alloc_dev_by_addr
ble_conn_connect
memcpy
ble_conn_disconnect
dm_remove_dev_by_addr
ble_peer_data_delete
global_debug_level
co_printf
ble_sec_security_req
ble_sec_bond_req
dm_find_dev_by_conidx
ble_sec_encrypt_req
__riscv_save_6
ble_sec_pairing_req_cfm
__riscv_restore_6
ble_sec_ltk_req_cfm
sys_random_bytes_get
rand
ble_sec_key_display_enter_cfm
ble_sec_oob_req_cfm
ble_sec_nc_cfm
ble_sec_irk_req_cfm
ble_adp_loc_irk_get
ble_adp_identity_addr_get
ble_sec_csrk_req_cfm
ble_sec_oob_data_req_cfm
ble_sec_encrypt_req_cfm
ble_conn_ping_to_set
ble_conn_peer_version_get
ble_conn_peer_feats_get
ble_sec_oob_data_gen
