   1              		.file	"app_conn_mgr.c"
   2              		.option nopic
   3              		.attribute arch, "rv32i2p0_m2p0_a2p0_f2p0_c2p0_b_p0p94"
   4              		.attribute unaligned_access, 0
   5              		.attribute stack_align, 16
   6              		.text
   7              	.Ltext0:
   8              		.cfi_sections	.debug_frame
   9              		.section	.rodata.check_param_update_op.str1.4,"aMS",@progbits,1
  10              		.align	2
  11              	.LC0:
  12 0000 63686563 		.string	"check_param_update_op conn_id %d update param fail \r\n"
  12      6B5F7061 
  12      72616D5F 
  12      75706461 
  12      74655F6F 
  13              		.section	.text.check_param_update_op,"ax",@progbits
  14              		.align	1
  16              	check_param_update_op:
  17              	.LFB8:
  18              		.file 1 "C:/Users/stapi/OneDrive/Desktop/GD32VW553/GD32VW55X_Wifi_BLE_SDK/GD32VW55x_RELEASE_V1.0.2
   1:C:/Users/stapi/OneDrive/Desktop/GD32VW553/GD32VW55X_Wifi_BLE_SDK/GD32VW55x_RELEASE_V1.0.2/MSDK/ble/app\app_conn_mgr.c **** /*!
   2:C:/Users/stapi/OneDrive/Desktop/GD32VW553/GD32VW55X_Wifi_BLE_SDK/GD32VW55x_RELEASE_V1.0.2/MSDK/ble/app\app_conn_mgr.c ****     \file    app_scan_mgr.c
   3:C:/Users/stapi/OneDrive/Desktop/GD32VW553/GD32VW55X_Wifi_BLE_SDK/GD32VW55x_RELEASE_V1.0.2/MSDK/ble/app\app_conn_mgr.c ****     \brief   Implementation of BLE application scan manager to record devices.
   4:C:/Users/stapi/OneDrive/Desktop/GD32VW553/GD32VW55X_Wifi_BLE_SDK/GD32VW55x_RELEASE_V1.0.2/MSDK/ble/app\app_conn_mgr.c **** 
   5:C:/Users/stapi/OneDrive/Desktop/GD32VW553/GD32VW55X_Wifi_BLE_SDK/GD32VW55x_RELEASE_V1.0.2/MSDK/ble/app\app_conn_mgr.c ****     \version 2023-07-20, V1.0.0, firmware for GD32VW55x
   6:C:/Users/stapi/OneDrive/Desktop/GD32VW553/GD32VW55X_Wifi_BLE_SDK/GD32VW55x_RELEASE_V1.0.2/MSDK/ble/app\app_conn_mgr.c **** */
   7:C:/Users/stapi/OneDrive/Desktop/GD32VW553/GD32VW55X_Wifi_BLE_SDK/GD32VW55x_RELEASE_V1.0.2/MSDK/ble/app\app_conn_mgr.c **** 
   8:C:/Users/stapi/OneDrive/Desktop/GD32VW553/GD32VW55X_Wifi_BLE_SDK/GD32VW55x_RELEASE_V1.0.2/MSDK/ble/app\app_conn_mgr.c **** /*
   9:C:/Users/stapi/OneDrive/Desktop/GD32VW553/GD32VW55X_Wifi_BLE_SDK/GD32VW55x_RELEASE_V1.0.2/MSDK/ble/app\app_conn_mgr.c ****     Copyright (c) 2023, GigaDevice Semiconductor Inc.
  10:C:/Users/stapi/OneDrive/Desktop/GD32VW553/GD32VW55X_Wifi_BLE_SDK/GD32VW55x_RELEASE_V1.0.2/MSDK/ble/app\app_conn_mgr.c **** 
  11:C:/Users/stapi/OneDrive/Desktop/GD32VW553/GD32VW55X_Wifi_BLE_SDK/GD32VW55x_RELEASE_V1.0.2/MSDK/ble/app\app_conn_mgr.c ****     Redistribution and use in source and binary forms, with or without modification,
  12:C:/Users/stapi/OneDrive/Desktop/GD32VW553/GD32VW55X_Wifi_BLE_SDK/GD32VW55x_RELEASE_V1.0.2/MSDK/ble/app\app_conn_mgr.c **** are permitted provided that the following conditions are met:
  13:C:/Users/stapi/OneDrive/Desktop/GD32VW553/GD32VW55X_Wifi_BLE_SDK/GD32VW55x_RELEASE_V1.0.2/MSDK/ble/app\app_conn_mgr.c **** 
  14:C:/Users/stapi/OneDrive/Desktop/GD32VW553/GD32VW55X_Wifi_BLE_SDK/GD32VW55x_RELEASE_V1.0.2/MSDK/ble/app\app_conn_mgr.c ****     1. Redistributions of source code must retain the above copyright notice, this
  15:C:/Users/stapi/OneDrive/Desktop/GD32VW553/GD32VW55X_Wifi_BLE_SDK/GD32VW55x_RELEASE_V1.0.2/MSDK/ble/app\app_conn_mgr.c ****        list of conditions and the following disclaimer.
  16:C:/Users/stapi/OneDrive/Desktop/GD32VW553/GD32VW55X_Wifi_BLE_SDK/GD32VW55x_RELEASE_V1.0.2/MSDK/ble/app\app_conn_mgr.c ****     2. Redistributions in binary form must reproduce the above copyright notice,
  17:C:/Users/stapi/OneDrive/Desktop/GD32VW553/GD32VW55X_Wifi_BLE_SDK/GD32VW55x_RELEASE_V1.0.2/MSDK/ble/app\app_conn_mgr.c ****        this list of conditions and the following disclaimer in the documentation
  18:C:/Users/stapi/OneDrive/Desktop/GD32VW553/GD32VW55X_Wifi_BLE_SDK/GD32VW55x_RELEASE_V1.0.2/MSDK/ble/app\app_conn_mgr.c ****        and/or other materials provided with the distribution.
  19:C:/Users/stapi/OneDrive/Desktop/GD32VW553/GD32VW55X_Wifi_BLE_SDK/GD32VW55x_RELEASE_V1.0.2/MSDK/ble/app\app_conn_mgr.c ****     3. Neither the name of the copyright holder nor the names of its contributors
  20:C:/Users/stapi/OneDrive/Desktop/GD32VW553/GD32VW55X_Wifi_BLE_SDK/GD32VW55x_RELEASE_V1.0.2/MSDK/ble/app\app_conn_mgr.c ****        may be used to endorse or promote products derived from this software without
  21:C:/Users/stapi/OneDrive/Desktop/GD32VW553/GD32VW55X_Wifi_BLE_SDK/GD32VW55x_RELEASE_V1.0.2/MSDK/ble/app\app_conn_mgr.c ****        specific prior written permission.
  22:C:/Users/stapi/OneDrive/Desktop/GD32VW553/GD32VW55X_Wifi_BLE_SDK/GD32VW55x_RELEASE_V1.0.2/MSDK/ble/app\app_conn_mgr.c **** 
  23:C:/Users/stapi/OneDrive/Desktop/GD32VW553/GD32VW55X_Wifi_BLE_SDK/GD32VW55x_RELEASE_V1.0.2/MSDK/ble/app\app_conn_mgr.c ****     THIS SOFTWARE IS PROVIDED BY THE COPYRIGHT HOLDERS AND CONTRIBUTORS "AS IS"
  24:C:/Users/stapi/OneDrive/Desktop/GD32VW553/GD32VW55X_Wifi_BLE_SDK/GD32VW55x_RELEASE_V1.0.2/MSDK/ble/app\app_conn_mgr.c **** AND ANY EXPRESS OR IMPLIED WARRANTIES, INCLUDING, BUT NOT LIMITED TO, THE IMPLIED
  25:C:/Users/stapi/OneDrive/Desktop/GD32VW553/GD32VW55X_Wifi_BLE_SDK/GD32VW55x_RELEASE_V1.0.2/MSDK/ble/app\app_conn_mgr.c **** WARRANTIES OF MERCHANTABILITY AND FITNESS FOR A PARTICULAR PURPOSE ARE DISCLAIMED.
  26:C:/Users/stapi/OneDrive/Desktop/GD32VW553/GD32VW55X_Wifi_BLE_SDK/GD32VW55x_RELEASE_V1.0.2/MSDK/ble/app\app_conn_mgr.c **** IN NO EVENT SHALL THE COPYRIGHT HOLDER OR CONTRIBUTORS BE LIABLE FOR ANY DIRECT,
  27:C:/Users/stapi/OneDrive/Desktop/GD32VW553/GD32VW55X_Wifi_BLE_SDK/GD32VW55x_RELEASE_V1.0.2/MSDK/ble/app\app_conn_mgr.c **** INDIRECT, INCIDENTAL, SPECIAL, EXEMPLARY, OR CONSEQUENTIAL DAMAGES (INCLUDING, BUT
  28:C:/Users/stapi/OneDrive/Desktop/GD32VW553/GD32VW55X_Wifi_BLE_SDK/GD32VW55x_RELEASE_V1.0.2/MSDK/ble/app\app_conn_mgr.c **** NOT LIMITED TO, PROCUREMENT OF SUBSTITUTE GOODS OR SERVICES; LOSS OF USE, DATA, OR
  29:C:/Users/stapi/OneDrive/Desktop/GD32VW553/GD32VW55X_Wifi_BLE_SDK/GD32VW55x_RELEASE_V1.0.2/MSDK/ble/app\app_conn_mgr.c **** PROFITS; OR BUSINESS INTERRUPTION) HOWEVER CAUSED AND ON ANY THEORY OF LIABILITY,
  30:C:/Users/stapi/OneDrive/Desktop/GD32VW553/GD32VW55X_Wifi_BLE_SDK/GD32VW55x_RELEASE_V1.0.2/MSDK/ble/app\app_conn_mgr.c **** WHETHER IN CONTRACT, STRICT LIABILITY, OR TORT (INCLUDING NEGLIGENCE OR OTHERWISE)
  31:C:/Users/stapi/OneDrive/Desktop/GD32VW553/GD32VW55X_Wifi_BLE_SDK/GD32VW55x_RELEASE_V1.0.2/MSDK/ble/app\app_conn_mgr.c **** ARISING IN ANY WAY OUT OF THE USE OF THIS SOFTWARE, EVEN IF ADVISED OF THE POSSIBILITY
  32:C:/Users/stapi/OneDrive/Desktop/GD32VW553/GD32VW55X_Wifi_BLE_SDK/GD32VW55x_RELEASE_V1.0.2/MSDK/ble/app\app_conn_mgr.c **** OF SUCH DAMAGE.
  33:C:/Users/stapi/OneDrive/Desktop/GD32VW553/GD32VW55X_Wifi_BLE_SDK/GD32VW55x_RELEASE_V1.0.2/MSDK/ble/app\app_conn_mgr.c **** */
  34:C:/Users/stapi/OneDrive/Desktop/GD32VW553/GD32VW55X_Wifi_BLE_SDK/GD32VW55x_RELEASE_V1.0.2/MSDK/ble/app\app_conn_mgr.c **** 
  35:C:/Users/stapi/OneDrive/Desktop/GD32VW553/GD32VW55X_Wifi_BLE_SDK/GD32VW55x_RELEASE_V1.0.2/MSDK/ble/app\app_conn_mgr.c **** #include "ble_app_config.h"
  36:C:/Users/stapi/OneDrive/Desktop/GD32VW553/GD32VW55X_Wifi_BLE_SDK/GD32VW55x_RELEASE_V1.0.2/MSDK/ble/app\app_conn_mgr.c **** 
  37:C:/Users/stapi/OneDrive/Desktop/GD32VW553/GD32VW55X_Wifi_BLE_SDK/GD32VW55x_RELEASE_V1.0.2/MSDK/ble/app\app_conn_mgr.c **** #if (BLE_APP_SUPPORT && (BLE_CFG_ROLE & (BLE_CFG_ROLE_PERIPHERAL | BLE_CFG_ROLE_CENTRAL)))
  38:C:/Users/stapi/OneDrive/Desktop/GD32VW553/GD32VW55X_Wifi_BLE_SDK/GD32VW55x_RELEASE_V1.0.2/MSDK/ble/app\app_conn_mgr.c **** #include <string.h>
  39:C:/Users/stapi/OneDrive/Desktop/GD32VW553/GD32VW55X_Wifi_BLE_SDK/GD32VW55x_RELEASE_V1.0.2/MSDK/ble/app\app_conn_mgr.c **** #include "app_conn_mgr.h"
  40:C:/Users/stapi/OneDrive/Desktop/GD32VW553/GD32VW55X_Wifi_BLE_SDK/GD32VW55x_RELEASE_V1.0.2/MSDK/ble/app\app_conn_mgr.c **** #include "app_dev_mgr.h"
  41:C:/Users/stapi/OneDrive/Desktop/GD32VW553/GD32VW55X_Wifi_BLE_SDK/GD32VW55x_RELEASE_V1.0.2/MSDK/ble/app\app_conn_mgr.c **** #include "ble_conn.h"
  42:C:/Users/stapi/OneDrive/Desktop/GD32VW553/GD32VW55X_Wifi_BLE_SDK/GD32VW55x_RELEASE_V1.0.2/MSDK/ble/app\app_conn_mgr.c **** #include "ble_adapter.h"
  43:C:/Users/stapi/OneDrive/Desktop/GD32VW553/GD32VW55X_Wifi_BLE_SDK/GD32VW55x_RELEASE_V1.0.2/MSDK/ble/app\app_conn_mgr.c **** #include "app_adapter_mgr.h"
  44:C:/Users/stapi/OneDrive/Desktop/GD32VW553/GD32VW55X_Wifi_BLE_SDK/GD32VW55x_RELEASE_V1.0.2/MSDK/ble/app\app_conn_mgr.c **** 
  45:C:/Users/stapi/OneDrive/Desktop/GD32VW553/GD32VW55X_Wifi_BLE_SDK/GD32VW55x_RELEASE_V1.0.2/MSDK/ble/app\app_conn_mgr.c **** #include "wrapper_os.h"
  46:C:/Users/stapi/OneDrive/Desktop/GD32VW553/GD32VW55X_Wifi_BLE_SDK/GD32VW55x_RELEASE_V1.0.2/MSDK/ble/app\app_conn_mgr.c **** #include "dlist.h"
  47:C:/Users/stapi/OneDrive/Desktop/GD32VW553/GD32VW55X_Wifi_BLE_SDK/GD32VW55x_RELEASE_V1.0.2/MSDK/ble/app\app_conn_mgr.c **** #include "app_sec_mgr.h"
  48:C:/Users/stapi/OneDrive/Desktop/GD32VW553/GD32VW55X_Wifi_BLE_SDK/GD32VW55x_RELEASE_V1.0.2/MSDK/ble/app\app_conn_mgr.c **** #include "dbg_print.h"
  49:C:/Users/stapi/OneDrive/Desktop/GD32VW553/GD32VW55X_Wifi_BLE_SDK/GD32VW55x_RELEASE_V1.0.2/MSDK/ble/app\app_conn_mgr.c **** #include "ble_storage.h"
  50:C:/Users/stapi/OneDrive/Desktop/GD32VW553/GD32VW55X_Wifi_BLE_SDK/GD32VW55x_RELEASE_V1.0.2/MSDK/ble/app\app_conn_mgr.c **** #include "ble_gattc.h"
  51:C:/Users/stapi/OneDrive/Desktop/GD32VW553/GD32VW55X_Wifi_BLE_SDK/GD32VW55x_RELEASE_V1.0.2/MSDK/ble/app\app_conn_mgr.c **** 
  52:C:/Users/stapi/OneDrive/Desktop/GD32VW553/GD32VW55X_Wifi_BLE_SDK/GD32VW55x_RELEASE_V1.0.2/MSDK/ble/app\app_conn_mgr.c **** /* Connection parameters of fast paramter setting */
  53:C:/Users/stapi/OneDrive/Desktop/GD32VW553/GD32VW55X_Wifi_BLE_SDK/GD32VW55x_RELEASE_V1.0.2/MSDK/ble/app\app_conn_mgr.c **** #define BLE_CONN_FAST_INTV             6               // 7.5ms
  54:C:/Users/stapi/OneDrive/Desktop/GD32VW553/GD32VW55X_Wifi_BLE_SDK/GD32VW55x_RELEASE_V1.0.2/MSDK/ble/app\app_conn_mgr.c **** #define BLE_CONN_FAST_LATENCY          0
  55:C:/Users/stapi/OneDrive/Desktop/GD32VW553/GD32VW55X_Wifi_BLE_SDK/GD32VW55x_RELEASE_V1.0.2/MSDK/ble/app\app_conn_mgr.c **** #define BLE_CONN_FAST_SUPV_TOUT        100             // 1000ms
  56:C:/Users/stapi/OneDrive/Desktop/GD32VW553/GD32VW55X_Wifi_BLE_SDK/GD32VW55x_RELEASE_V1.0.2/MSDK/ble/app\app_conn_mgr.c **** 
  57:C:/Users/stapi/OneDrive/Desktop/GD32VW553/GD32VW55X_Wifi_BLE_SDK/GD32VW55x_RELEASE_V1.0.2/MSDK/ble/app\app_conn_mgr.c **** /* Local appearance */
  58:C:/Users/stapi/OneDrive/Desktop/GD32VW553/GD32VW55X_Wifi_BLE_SDK/GD32VW55x_RELEASE_V1.0.2/MSDK/ble/app\app_conn_mgr.c **** static uint16_t dev_appearance = 0x0000;    // Generic Unknown
  59:C:/Users/stapi/OneDrive/Desktop/GD32VW553/GD32VW55X_Wifi_BLE_SDK/GD32VW55x_RELEASE_V1.0.2/MSDK/ble/app\app_conn_mgr.c **** 
  60:C:/Users/stapi/OneDrive/Desktop/GD32VW553/GD32VW55X_Wifi_BLE_SDK/GD32VW55x_RELEASE_V1.0.2/MSDK/ble/app\app_conn_mgr.c **** /*!
  61:C:/Users/stapi/OneDrive/Desktop/GD32VW553/GD32VW55X_Wifi_BLE_SDK/GD32VW55x_RELEASE_V1.0.2/MSDK/ble/app\app_conn_mgr.c ****     \brief      Enable fast connection parameters
  62:C:/Users/stapi/OneDrive/Desktop/GD32VW553/GD32VW55X_Wifi_BLE_SDK/GD32VW55x_RELEASE_V1.0.2/MSDK/ble/app\app_conn_mgr.c ****     \param[in]  conn_id: connection index
  63:C:/Users/stapi/OneDrive/Desktop/GD32VW553/GD32VW55X_Wifi_BLE_SDK/GD32VW55x_RELEASE_V1.0.2/MSDK/ble/app\app_conn_mgr.c ****     \param[out] none
  64:C:/Users/stapi/OneDrive/Desktop/GD32VW553/GD32VW55X_Wifi_BLE_SDK/GD32VW55x_RELEASE_V1.0.2/MSDK/ble/app\app_conn_mgr.c ****     \retval     bool: true if fast parameter is successfully enabled, otherwise false
  65:C:/Users/stapi/OneDrive/Desktop/GD32VW553/GD32VW55X_Wifi_BLE_SDK/GD32VW55x_RELEASE_V1.0.2/MSDK/ble/app\app_conn_mgr.c **** */
  66:C:/Users/stapi/OneDrive/Desktop/GD32VW553/GD32VW55X_Wifi_BLE_SDK/GD32VW55x_RELEASE_V1.0.2/MSDK/ble/app\app_conn_mgr.c **** bool app_conn_fast_param_enable(uint8_t conn_id)
  67:C:/Users/stapi/OneDrive/Desktop/GD32VW553/GD32VW55X_Wifi_BLE_SDK/GD32VW55x_RELEASE_V1.0.2/MSDK/ble/app\app_conn_mgr.c **** {
  68:C:/Users/stapi/OneDrive/Desktop/GD32VW553/GD32VW55X_Wifi_BLE_SDK/GD32VW55x_RELEASE_V1.0.2/MSDK/ble/app\app_conn_mgr.c ****     ble_device_t *p_device;
  69:C:/Users/stapi/OneDrive/Desktop/GD32VW553/GD32VW55X_Wifi_BLE_SDK/GD32VW55x_RELEASE_V1.0.2/MSDK/ble/app\app_conn_mgr.c ****     ble_status_t status = BLE_ERR_NO_ERROR;
  70:C:/Users/stapi/OneDrive/Desktop/GD32VW553/GD32VW55X_Wifi_BLE_SDK/GD32VW55x_RELEASE_V1.0.2/MSDK/ble/app\app_conn_mgr.c **** 
  71:C:/Users/stapi/OneDrive/Desktop/GD32VW553/GD32VW55X_Wifi_BLE_SDK/GD32VW55x_RELEASE_V1.0.2/MSDK/ble/app\app_conn_mgr.c ****     p_device = dm_find_dev_by_conidx(conn_id);
  72:C:/Users/stapi/OneDrive/Desktop/GD32VW553/GD32VW55X_Wifi_BLE_SDK/GD32VW55x_RELEASE_V1.0.2/MSDK/ble/app\app_conn_mgr.c **** 
  73:C:/Users/stapi/OneDrive/Desktop/GD32VW553/GD32VW55X_Wifi_BLE_SDK/GD32VW55x_RELEASE_V1.0.2/MSDK/ble/app\app_conn_mgr.c ****     // Only central role can enable fast parameters update
  74:C:/Users/stapi/OneDrive/Desktop/GD32VW553/GD32VW55X_Wifi_BLE_SDK/GD32VW55x_RELEASE_V1.0.2/MSDK/ble/app\app_conn_mgr.c ****     if (p_device == NULL || p_device->role != BLE_MASTER) {
  75:C:/Users/stapi/OneDrive/Desktop/GD32VW553/GD32VW55X_Wifi_BLE_SDK/GD32VW55x_RELEASE_V1.0.2/MSDK/ble/app\app_conn_mgr.c ****         return false;
  76:C:/Users/stapi/OneDrive/Desktop/GD32VW553/GD32VW55X_Wifi_BLE_SDK/GD32VW55x_RELEASE_V1.0.2/MSDK/ble/app\app_conn_mgr.c ****     }
  77:C:/Users/stapi/OneDrive/Desktop/GD32VW553/GD32VW55X_Wifi_BLE_SDK/GD32VW55x_RELEASE_V1.0.2/MSDK/ble/app\app_conn_mgr.c **** 
  78:C:/Users/stapi/OneDrive/Desktop/GD32VW553/GD32VW55X_Wifi_BLE_SDK/GD32VW55x_RELEASE_V1.0.2/MSDK/ble/app\app_conn_mgr.c ****     if (p_device->enable_fast_param) {
  79:C:/Users/stapi/OneDrive/Desktop/GD32VW553/GD32VW55X_Wifi_BLE_SDK/GD32VW55x_RELEASE_V1.0.2/MSDK/ble/app\app_conn_mgr.c ****         return true;
  80:C:/Users/stapi/OneDrive/Desktop/GD32VW553/GD32VW55X_Wifi_BLE_SDK/GD32VW55x_RELEASE_V1.0.2/MSDK/ble/app\app_conn_mgr.c ****     }
  81:C:/Users/stapi/OneDrive/Desktop/GD32VW553/GD32VW55X_Wifi_BLE_SDK/GD32VW55x_RELEASE_V1.0.2/MSDK/ble/app\app_conn_mgr.c **** 
  82:C:/Users/stapi/OneDrive/Desktop/GD32VW553/GD32VW55X_Wifi_BLE_SDK/GD32VW55x_RELEASE_V1.0.2/MSDK/ble/app\app_conn_mgr.c ****     if (p_device->update_state == IDLE_STATE) {
  83:C:/Users/stapi/OneDrive/Desktop/GD32VW553/GD32VW55X_Wifi_BLE_SDK/GD32VW55x_RELEASE_V1.0.2/MSDK/ble/app\app_conn_mgr.c ****         status = ble_conn_param_update_req(conn_id, BLE_CONN_FAST_INTV, BLE_CONN_FAST_INTV,
  84:C:/Users/stapi/OneDrive/Desktop/GD32VW553/GD32VW55X_Wifi_BLE_SDK/GD32VW55x_RELEASE_V1.0.2/MSDK/ble/app\app_conn_mgr.c ****                                            BLE_CONN_FAST_LATENCY, BLE_CONN_FAST_SUPV_TOUT, 0, 0);
  85:C:/Users/stapi/OneDrive/Desktop/GD32VW553/GD32VW55X_Wifi_BLE_SDK/GD32VW55x_RELEASE_V1.0.2/MSDK/ble/app\app_conn_mgr.c ****         if (status == BLE_ERR_NO_ERROR) {
  86:C:/Users/stapi/OneDrive/Desktop/GD32VW553/GD32VW55X_Wifi_BLE_SDK/GD32VW55x_RELEASE_V1.0.2/MSDK/ble/app\app_conn_mgr.c ****             p_device->update_state = FAST_PARAM_UPDATING_STATE;
  87:C:/Users/stapi/OneDrive/Desktop/GD32VW553/GD32VW55X_Wifi_BLE_SDK/GD32VW55x_RELEASE_V1.0.2/MSDK/ble/app\app_conn_mgr.c **** 
  88:C:/Users/stapi/OneDrive/Desktop/GD32VW553/GD32VW55X_Wifi_BLE_SDK/GD32VW55x_RELEASE_V1.0.2/MSDK/ble/app\app_conn_mgr.c ****             // No pending parameters
  89:C:/Users/stapi/OneDrive/Desktop/GD32VW553/GD32VW55X_Wifi_BLE_SDK/GD32VW55x_RELEASE_V1.0.2/MSDK/ble/app\app_conn_mgr.c ****             if (p_device->expect_conn_info.interval == 0) {
  90:C:/Users/stapi/OneDrive/Desktop/GD32VW553/GD32VW55X_Wifi_BLE_SDK/GD32VW55x_RELEASE_V1.0.2/MSDK/ble/app\app_conn_mgr.c ****                 p_device->expect_conn_info = p_device->conn_info;
  91:C:/Users/stapi/OneDrive/Desktop/GD32VW553/GD32VW55X_Wifi_BLE_SDK/GD32VW55x_RELEASE_V1.0.2/MSDK/ble/app\app_conn_mgr.c ****             }
  92:C:/Users/stapi/OneDrive/Desktop/GD32VW553/GD32VW55X_Wifi_BLE_SDK/GD32VW55x_RELEASE_V1.0.2/MSDK/ble/app\app_conn_mgr.c ****         }
  93:C:/Users/stapi/OneDrive/Desktop/GD32VW553/GD32VW55X_Wifi_BLE_SDK/GD32VW55x_RELEASE_V1.0.2/MSDK/ble/app\app_conn_mgr.c ****     }
  94:C:/Users/stapi/OneDrive/Desktop/GD32VW553/GD32VW55X_Wifi_BLE_SDK/GD32VW55x_RELEASE_V1.0.2/MSDK/ble/app\app_conn_mgr.c **** 
  95:C:/Users/stapi/OneDrive/Desktop/GD32VW553/GD32VW55X_Wifi_BLE_SDK/GD32VW55x_RELEASE_V1.0.2/MSDK/ble/app\app_conn_mgr.c ****     if (status == BLE_ERR_NO_ERROR) {
  96:C:/Users/stapi/OneDrive/Desktop/GD32VW553/GD32VW55X_Wifi_BLE_SDK/GD32VW55x_RELEASE_V1.0.2/MSDK/ble/app\app_conn_mgr.c ****         p_device->enable_fast_param = true;
  97:C:/Users/stapi/OneDrive/Desktop/GD32VW553/GD32VW55X_Wifi_BLE_SDK/GD32VW55x_RELEASE_V1.0.2/MSDK/ble/app\app_conn_mgr.c ****     }
  98:C:/Users/stapi/OneDrive/Desktop/GD32VW553/GD32VW55X_Wifi_BLE_SDK/GD32VW55x_RELEASE_V1.0.2/MSDK/ble/app\app_conn_mgr.c **** 
  99:C:/Users/stapi/OneDrive/Desktop/GD32VW553/GD32VW55X_Wifi_BLE_SDK/GD32VW55x_RELEASE_V1.0.2/MSDK/ble/app\app_conn_mgr.c ****     return status == BLE_ERR_NO_ERROR;
 100:C:/Users/stapi/OneDrive/Desktop/GD32VW553/GD32VW55X_Wifi_BLE_SDK/GD32VW55x_RELEASE_V1.0.2/MSDK/ble/app\app_conn_mgr.c **** }
 101:C:/Users/stapi/OneDrive/Desktop/GD32VW553/GD32VW55X_Wifi_BLE_SDK/GD32VW55x_RELEASE_V1.0.2/MSDK/ble/app\app_conn_mgr.c **** 
 102:C:/Users/stapi/OneDrive/Desktop/GD32VW553/GD32VW55X_Wifi_BLE_SDK/GD32VW55x_RELEASE_V1.0.2/MSDK/ble/app\app_conn_mgr.c **** /*!
 103:C:/Users/stapi/OneDrive/Desktop/GD32VW553/GD32VW55X_Wifi_BLE_SDK/GD32VW55x_RELEASE_V1.0.2/MSDK/ble/app\app_conn_mgr.c ****     \brief      Disable fast connection parameters
 104:C:/Users/stapi/OneDrive/Desktop/GD32VW553/GD32VW55X_Wifi_BLE_SDK/GD32VW55x_RELEASE_V1.0.2/MSDK/ble/app\app_conn_mgr.c ****     \param[in]  conn_id: connection index
 105:C:/Users/stapi/OneDrive/Desktop/GD32VW553/GD32VW55X_Wifi_BLE_SDK/GD32VW55x_RELEASE_V1.0.2/MSDK/ble/app\app_conn_mgr.c ****     \param[out] none
 106:C:/Users/stapi/OneDrive/Desktop/GD32VW553/GD32VW55X_Wifi_BLE_SDK/GD32VW55x_RELEASE_V1.0.2/MSDK/ble/app\app_conn_mgr.c ****     \retval     bool: true if fast parameter is successfully disabled, otherwise false
 107:C:/Users/stapi/OneDrive/Desktop/GD32VW553/GD32VW55X_Wifi_BLE_SDK/GD32VW55x_RELEASE_V1.0.2/MSDK/ble/app\app_conn_mgr.c **** */
 108:C:/Users/stapi/OneDrive/Desktop/GD32VW553/GD32VW55X_Wifi_BLE_SDK/GD32VW55x_RELEASE_V1.0.2/MSDK/ble/app\app_conn_mgr.c **** bool app_conn_fast_param_disable(uint8_t conn_id)
 109:C:/Users/stapi/OneDrive/Desktop/GD32VW553/GD32VW55X_Wifi_BLE_SDK/GD32VW55x_RELEASE_V1.0.2/MSDK/ble/app\app_conn_mgr.c **** {
 110:C:/Users/stapi/OneDrive/Desktop/GD32VW553/GD32VW55X_Wifi_BLE_SDK/GD32VW55x_RELEASE_V1.0.2/MSDK/ble/app\app_conn_mgr.c ****     ble_device_t *p_device;
 111:C:/Users/stapi/OneDrive/Desktop/GD32VW553/GD32VW55X_Wifi_BLE_SDK/GD32VW55x_RELEASE_V1.0.2/MSDK/ble/app\app_conn_mgr.c ****     ble_status_t status = BLE_ERR_NO_ERROR;
 112:C:/Users/stapi/OneDrive/Desktop/GD32VW553/GD32VW55X_Wifi_BLE_SDK/GD32VW55x_RELEASE_V1.0.2/MSDK/ble/app\app_conn_mgr.c **** 
 113:C:/Users/stapi/OneDrive/Desktop/GD32VW553/GD32VW55X_Wifi_BLE_SDK/GD32VW55x_RELEASE_V1.0.2/MSDK/ble/app\app_conn_mgr.c ****     p_device = dm_find_dev_by_conidx(conn_id);
 114:C:/Users/stapi/OneDrive/Desktop/GD32VW553/GD32VW55X_Wifi_BLE_SDK/GD32VW55x_RELEASE_V1.0.2/MSDK/ble/app\app_conn_mgr.c **** 
 115:C:/Users/stapi/OneDrive/Desktop/GD32VW553/GD32VW55X_Wifi_BLE_SDK/GD32VW55x_RELEASE_V1.0.2/MSDK/ble/app\app_conn_mgr.c ****     if (p_device == NULL) {
 116:C:/Users/stapi/OneDrive/Desktop/GD32VW553/GD32VW55X_Wifi_BLE_SDK/GD32VW55x_RELEASE_V1.0.2/MSDK/ble/app\app_conn_mgr.c ****         return false;
 117:C:/Users/stapi/OneDrive/Desktop/GD32VW553/GD32VW55X_Wifi_BLE_SDK/GD32VW55x_RELEASE_V1.0.2/MSDK/ble/app\app_conn_mgr.c ****     }
 118:C:/Users/stapi/OneDrive/Desktop/GD32VW553/GD32VW55X_Wifi_BLE_SDK/GD32VW55x_RELEASE_V1.0.2/MSDK/ble/app\app_conn_mgr.c **** 
 119:C:/Users/stapi/OneDrive/Desktop/GD32VW553/GD32VW55X_Wifi_BLE_SDK/GD32VW55x_RELEASE_V1.0.2/MSDK/ble/app\app_conn_mgr.c ****     if (!p_device->enable_fast_param) {
 120:C:/Users/stapi/OneDrive/Desktop/GD32VW553/GD32VW55X_Wifi_BLE_SDK/GD32VW55x_RELEASE_V1.0.2/MSDK/ble/app\app_conn_mgr.c ****         return true;
 121:C:/Users/stapi/OneDrive/Desktop/GD32VW553/GD32VW55X_Wifi_BLE_SDK/GD32VW55x_RELEASE_V1.0.2/MSDK/ble/app\app_conn_mgr.c ****     }
 122:C:/Users/stapi/OneDrive/Desktop/GD32VW553/GD32VW55X_Wifi_BLE_SDK/GD32VW55x_RELEASE_V1.0.2/MSDK/ble/app\app_conn_mgr.c **** 
 123:C:/Users/stapi/OneDrive/Desktop/GD32VW553/GD32VW55X_Wifi_BLE_SDK/GD32VW55x_RELEASE_V1.0.2/MSDK/ble/app\app_conn_mgr.c ****     if (p_device->update_state == FAST_PARAM_UPDATED_STATE) {
 124:C:/Users/stapi/OneDrive/Desktop/GD32VW553/GD32VW55X_Wifi_BLE_SDK/GD32VW55x_RELEASE_V1.0.2/MSDK/ble/app\app_conn_mgr.c ****         if (p_device->expect_conn_info.interval != BLE_CONN_FAST_INTV ||
 125:C:/Users/stapi/OneDrive/Desktop/GD32VW553/GD32VW55X_Wifi_BLE_SDK/GD32VW55x_RELEASE_V1.0.2/MSDK/ble/app\app_conn_mgr.c ****             p_device->expect_conn_info.latency != BLE_CONN_FAST_LATENCY ||
 126:C:/Users/stapi/OneDrive/Desktop/GD32VW553/GD32VW55X_Wifi_BLE_SDK/GD32VW55x_RELEASE_V1.0.2/MSDK/ble/app\app_conn_mgr.c ****             p_device->expect_conn_info.supv_tout != BLE_CONN_FAST_SUPV_TOUT) {
 127:C:/Users/stapi/OneDrive/Desktop/GD32VW553/GD32VW55X_Wifi_BLE_SDK/GD32VW55x_RELEASE_V1.0.2/MSDK/ble/app\app_conn_mgr.c ****             status = ble_conn_param_update_req(conn_id, p_device->expect_conn_info.interval, p_devi
 128:C:/Users/stapi/OneDrive/Desktop/GD32VW553/GD32VW55X_Wifi_BLE_SDK/GD32VW55x_RELEASE_V1.0.2/MSDK/ble/app\app_conn_mgr.c ****                                                p_device->expect_conn_info.latency, p_device->expect
 129:C:/Users/stapi/OneDrive/Desktop/GD32VW553/GD32VW55X_Wifi_BLE_SDK/GD32VW55x_RELEASE_V1.0.2/MSDK/ble/app\app_conn_mgr.c **** 
 130:C:/Users/stapi/OneDrive/Desktop/GD32VW553/GD32VW55X_Wifi_BLE_SDK/GD32VW55x_RELEASE_V1.0.2/MSDK/ble/app\app_conn_mgr.c ****             if (status == BLE_ERR_NO_ERROR) {
 131:C:/Users/stapi/OneDrive/Desktop/GD32VW553/GD32VW55X_Wifi_BLE_SDK/GD32VW55x_RELEASE_V1.0.2/MSDK/ble/app\app_conn_mgr.c ****                 p_device->update_state = UPDATING_STATE;
 132:C:/Users/stapi/OneDrive/Desktop/GD32VW553/GD32VW55X_Wifi_BLE_SDK/GD32VW55x_RELEASE_V1.0.2/MSDK/ble/app\app_conn_mgr.c ****             } else {
 133:C:/Users/stapi/OneDrive/Desktop/GD32VW553/GD32VW55X_Wifi_BLE_SDK/GD32VW55x_RELEASE_V1.0.2/MSDK/ble/app\app_conn_mgr.c ****                 p_device->update_state = IDLE_STATE;
 134:C:/Users/stapi/OneDrive/Desktop/GD32VW553/GD32VW55X_Wifi_BLE_SDK/GD32VW55x_RELEASE_V1.0.2/MSDK/ble/app\app_conn_mgr.c ****             }
 135:C:/Users/stapi/OneDrive/Desktop/GD32VW553/GD32VW55X_Wifi_BLE_SDK/GD32VW55x_RELEASE_V1.0.2/MSDK/ble/app\app_conn_mgr.c ****         } else {
 136:C:/Users/stapi/OneDrive/Desktop/GD32VW553/GD32VW55X_Wifi_BLE_SDK/GD32VW55x_RELEASE_V1.0.2/MSDK/ble/app\app_conn_mgr.c ****             p_device->update_state = IDLE_STATE;
 137:C:/Users/stapi/OneDrive/Desktop/GD32VW553/GD32VW55X_Wifi_BLE_SDK/GD32VW55x_RELEASE_V1.0.2/MSDK/ble/app\app_conn_mgr.c ****         }
 138:C:/Users/stapi/OneDrive/Desktop/GD32VW553/GD32VW55X_Wifi_BLE_SDK/GD32VW55x_RELEASE_V1.0.2/MSDK/ble/app\app_conn_mgr.c **** 
 139:C:/Users/stapi/OneDrive/Desktop/GD32VW553/GD32VW55X_Wifi_BLE_SDK/GD32VW55x_RELEASE_V1.0.2/MSDK/ble/app\app_conn_mgr.c ****         memset(&p_device->expect_conn_info, 0, sizeof(ble_conn_params_t));
 140:C:/Users/stapi/OneDrive/Desktop/GD32VW553/GD32VW55X_Wifi_BLE_SDK/GD32VW55x_RELEASE_V1.0.2/MSDK/ble/app\app_conn_mgr.c ****     }
 141:C:/Users/stapi/OneDrive/Desktop/GD32VW553/GD32VW55X_Wifi_BLE_SDK/GD32VW55x_RELEASE_V1.0.2/MSDK/ble/app\app_conn_mgr.c **** 
 142:C:/Users/stapi/OneDrive/Desktop/GD32VW553/GD32VW55X_Wifi_BLE_SDK/GD32VW55x_RELEASE_V1.0.2/MSDK/ble/app\app_conn_mgr.c ****     p_device->enable_fast_param = false;
 143:C:/Users/stapi/OneDrive/Desktop/GD32VW553/GD32VW55X_Wifi_BLE_SDK/GD32VW55x_RELEASE_V1.0.2/MSDK/ble/app\app_conn_mgr.c **** 
 144:C:/Users/stapi/OneDrive/Desktop/GD32VW553/GD32VW55X_Wifi_BLE_SDK/GD32VW55x_RELEASE_V1.0.2/MSDK/ble/app\app_conn_mgr.c ****     return true;
 145:C:/Users/stapi/OneDrive/Desktop/GD32VW553/GD32VW55X_Wifi_BLE_SDK/GD32VW55x_RELEASE_V1.0.2/MSDK/ble/app\app_conn_mgr.c **** }
 146:C:/Users/stapi/OneDrive/Desktop/GD32VW553/GD32VW55X_Wifi_BLE_SDK/GD32VW55x_RELEASE_V1.0.2/MSDK/ble/app\app_conn_mgr.c **** 
 147:C:/Users/stapi/OneDrive/Desktop/GD32VW553/GD32VW55X_Wifi_BLE_SDK/GD32VW55x_RELEASE_V1.0.2/MSDK/ble/app\app_conn_mgr.c **** /*!
 148:C:/Users/stapi/OneDrive/Desktop/GD32VW553/GD32VW55X_Wifi_BLE_SDK/GD32VW55x_RELEASE_V1.0.2/MSDK/ble/app\app_conn_mgr.c ****     \brief      Update connection parameters
 149:C:/Users/stapi/OneDrive/Desktop/GD32VW553/GD32VW55X_Wifi_BLE_SDK/GD32VW55x_RELEASE_V1.0.2/MSDK/ble/app\app_conn_mgr.c ****     \param[in]  conn_id: connection index
 150:C:/Users/stapi/OneDrive/Desktop/GD32VW553/GD32VW55X_Wifi_BLE_SDK/GD32VW55x_RELEASE_V1.0.2/MSDK/ble/app\app_conn_mgr.c ****     \param[in]  interval: connection interval
 151:C:/Users/stapi/OneDrive/Desktop/GD32VW553/GD32VW55X_Wifi_BLE_SDK/GD32VW55x_RELEASE_V1.0.2/MSDK/ble/app\app_conn_mgr.c ****     \param[in]  latency: connection latency
 152:C:/Users/stapi/OneDrive/Desktop/GD32VW553/GD32VW55X_Wifi_BLE_SDK/GD32VW55x_RELEASE_V1.0.2/MSDK/ble/app\app_conn_mgr.c ****     \param[in]  supv_to: supervision timeout
 153:C:/Users/stapi/OneDrive/Desktop/GD32VW553/GD32VW55X_Wifi_BLE_SDK/GD32VW55x_RELEASE_V1.0.2/MSDK/ble/app\app_conn_mgr.c ****     \param[in]  ce_len: connection event length
 154:C:/Users/stapi/OneDrive/Desktop/GD32VW553/GD32VW55X_Wifi_BLE_SDK/GD32VW55x_RELEASE_V1.0.2/MSDK/ble/app\app_conn_mgr.c ****     \param[out] none
 155:C:/Users/stapi/OneDrive/Desktop/GD32VW553/GD32VW55X_Wifi_BLE_SDK/GD32VW55x_RELEASE_V1.0.2/MSDK/ble/app\app_conn_mgr.c ****     \retval     bool: true if parameter update is successfully started, otherwise false
 156:C:/Users/stapi/OneDrive/Desktop/GD32VW553/GD32VW55X_Wifi_BLE_SDK/GD32VW55x_RELEASE_V1.0.2/MSDK/ble/app\app_conn_mgr.c **** */
 157:C:/Users/stapi/OneDrive/Desktop/GD32VW553/GD32VW55X_Wifi_BLE_SDK/GD32VW55x_RELEASE_V1.0.2/MSDK/ble/app\app_conn_mgr.c **** bool app_conn_update_param(uint8_t conn_id, uint16_t interval, uint16_t latency,
 158:C:/Users/stapi/OneDrive/Desktop/GD32VW553/GD32VW55X_Wifi_BLE_SDK/GD32VW55x_RELEASE_V1.0.2/MSDK/ble/app\app_conn_mgr.c ****                            uint16_t supv_to, uint16_t ce_len)
 159:C:/Users/stapi/OneDrive/Desktop/GD32VW553/GD32VW55X_Wifi_BLE_SDK/GD32VW55x_RELEASE_V1.0.2/MSDK/ble/app\app_conn_mgr.c **** {
 160:C:/Users/stapi/OneDrive/Desktop/GD32VW553/GD32VW55X_Wifi_BLE_SDK/GD32VW55x_RELEASE_V1.0.2/MSDK/ble/app\app_conn_mgr.c ****     ble_device_t *p_device;
 161:C:/Users/stapi/OneDrive/Desktop/GD32VW553/GD32VW55X_Wifi_BLE_SDK/GD32VW55x_RELEASE_V1.0.2/MSDK/ble/app\app_conn_mgr.c ****     ble_status_t status = BLE_ERR_NO_ERROR;
 162:C:/Users/stapi/OneDrive/Desktop/GD32VW553/GD32VW55X_Wifi_BLE_SDK/GD32VW55x_RELEASE_V1.0.2/MSDK/ble/app\app_conn_mgr.c **** 
 163:C:/Users/stapi/OneDrive/Desktop/GD32VW553/GD32VW55X_Wifi_BLE_SDK/GD32VW55x_RELEASE_V1.0.2/MSDK/ble/app\app_conn_mgr.c ****     p_device = dm_find_dev_by_conidx(conn_id);
 164:C:/Users/stapi/OneDrive/Desktop/GD32VW553/GD32VW55X_Wifi_BLE_SDK/GD32VW55x_RELEASE_V1.0.2/MSDK/ble/app\app_conn_mgr.c **** 
 165:C:/Users/stapi/OneDrive/Desktop/GD32VW553/GD32VW55X_Wifi_BLE_SDK/GD32VW55x_RELEASE_V1.0.2/MSDK/ble/app\app_conn_mgr.c ****     if (p_device == NULL) {
 166:C:/Users/stapi/OneDrive/Desktop/GD32VW553/GD32VW55X_Wifi_BLE_SDK/GD32VW55x_RELEASE_V1.0.2/MSDK/ble/app\app_conn_mgr.c ****         return false;
 167:C:/Users/stapi/OneDrive/Desktop/GD32VW553/GD32VW55X_Wifi_BLE_SDK/GD32VW55x_RELEASE_V1.0.2/MSDK/ble/app\app_conn_mgr.c ****     }
 168:C:/Users/stapi/OneDrive/Desktop/GD32VW553/GD32VW55X_Wifi_BLE_SDK/GD32VW55x_RELEASE_V1.0.2/MSDK/ble/app\app_conn_mgr.c **** 
 169:C:/Users/stapi/OneDrive/Desktop/GD32VW553/GD32VW55X_Wifi_BLE_SDK/GD32VW55x_RELEASE_V1.0.2/MSDK/ble/app\app_conn_mgr.c ****     if (p_device->update_state != IDLE_STATE) {
 170:C:/Users/stapi/OneDrive/Desktop/GD32VW553/GD32VW55X_Wifi_BLE_SDK/GD32VW55x_RELEASE_V1.0.2/MSDK/ble/app\app_conn_mgr.c ****         p_device->expect_conn_info.interval = interval;
 171:C:/Users/stapi/OneDrive/Desktop/GD32VW553/GD32VW55X_Wifi_BLE_SDK/GD32VW55x_RELEASE_V1.0.2/MSDK/ble/app\app_conn_mgr.c ****         p_device->expect_conn_info.latency = latency;
 172:C:/Users/stapi/OneDrive/Desktop/GD32VW553/GD32VW55X_Wifi_BLE_SDK/GD32VW55x_RELEASE_V1.0.2/MSDK/ble/app\app_conn_mgr.c ****         p_device->expect_conn_info.supv_tout = supv_to;
 173:C:/Users/stapi/OneDrive/Desktop/GD32VW553/GD32VW55X_Wifi_BLE_SDK/GD32VW55x_RELEASE_V1.0.2/MSDK/ble/app\app_conn_mgr.c ****         p_device->expect_conn_info.ce_len_min = p_device->expect_conn_info.ce_len_max = ce_len;
 174:C:/Users/stapi/OneDrive/Desktop/GD32VW553/GD32VW55X_Wifi_BLE_SDK/GD32VW55x_RELEASE_V1.0.2/MSDK/ble/app\app_conn_mgr.c ****     } else {
 175:C:/Users/stapi/OneDrive/Desktop/GD32VW553/GD32VW55X_Wifi_BLE_SDK/GD32VW55x_RELEASE_V1.0.2/MSDK/ble/app\app_conn_mgr.c ****         status = ble_conn_param_update_req(conn_id, interval, interval, latency, supv_to, ce_len, c
 176:C:/Users/stapi/OneDrive/Desktop/GD32VW553/GD32VW55X_Wifi_BLE_SDK/GD32VW55x_RELEASE_V1.0.2/MSDK/ble/app\app_conn_mgr.c **** 
 177:C:/Users/stapi/OneDrive/Desktop/GD32VW553/GD32VW55X_Wifi_BLE_SDK/GD32VW55x_RELEASE_V1.0.2/MSDK/ble/app\app_conn_mgr.c ****         if (status == BLE_ERR_NO_ERROR) {
 178:C:/Users/stapi/OneDrive/Desktop/GD32VW553/GD32VW55X_Wifi_BLE_SDK/GD32VW55x_RELEASE_V1.0.2/MSDK/ble/app\app_conn_mgr.c ****             p_device->update_state = UPDATING_STATE;
 179:C:/Users/stapi/OneDrive/Desktop/GD32VW553/GD32VW55X_Wifi_BLE_SDK/GD32VW55x_RELEASE_V1.0.2/MSDK/ble/app\app_conn_mgr.c ****         }
 180:C:/Users/stapi/OneDrive/Desktop/GD32VW553/GD32VW55X_Wifi_BLE_SDK/GD32VW55x_RELEASE_V1.0.2/MSDK/ble/app\app_conn_mgr.c ****     }
 181:C:/Users/stapi/OneDrive/Desktop/GD32VW553/GD32VW55X_Wifi_BLE_SDK/GD32VW55x_RELEASE_V1.0.2/MSDK/ble/app\app_conn_mgr.c **** 
 182:C:/Users/stapi/OneDrive/Desktop/GD32VW553/GD32VW55X_Wifi_BLE_SDK/GD32VW55x_RELEASE_V1.0.2/MSDK/ble/app\app_conn_mgr.c ****     return status == BLE_ERR_NO_ERROR;
 183:C:/Users/stapi/OneDrive/Desktop/GD32VW553/GD32VW55X_Wifi_BLE_SDK/GD32VW55x_RELEASE_V1.0.2/MSDK/ble/app\app_conn_mgr.c **** }
 184:C:/Users/stapi/OneDrive/Desktop/GD32VW553/GD32VW55X_Wifi_BLE_SDK/GD32VW55x_RELEASE_V1.0.2/MSDK/ble/app\app_conn_mgr.c **** 
 185:C:/Users/stapi/OneDrive/Desktop/GD32VW553/GD32VW55X_Wifi_BLE_SDK/GD32VW55x_RELEASE_V1.0.2/MSDK/ble/app\app_conn_mgr.c **** /*!
 186:C:/Users/stapi/OneDrive/Desktop/GD32VW553/GD32VW55X_Wifi_BLE_SDK/GD32VW55x_RELEASE_V1.0.2/MSDK/ble/app\app_conn_mgr.c ****     \brief      Check connection parameters and update if necessary
 187:C:/Users/stapi/OneDrive/Desktop/GD32VW553/GD32VW55X_Wifi_BLE_SDK/GD32VW55x_RELEASE_V1.0.2/MSDK/ble/app\app_conn_mgr.c ****     \param[in]  conn_id: connection index
 188:C:/Users/stapi/OneDrive/Desktop/GD32VW553/GD32VW55X_Wifi_BLE_SDK/GD32VW55x_RELEASE_V1.0.2/MSDK/ble/app\app_conn_mgr.c ****     \param[out] none
 189:C:/Users/stapi/OneDrive/Desktop/GD32VW553/GD32VW55X_Wifi_BLE_SDK/GD32VW55x_RELEASE_V1.0.2/MSDK/ble/app\app_conn_mgr.c ****     \retval     none
 190:C:/Users/stapi/OneDrive/Desktop/GD32VW553/GD32VW55X_Wifi_BLE_SDK/GD32VW55x_RELEASE_V1.0.2/MSDK/ble/app\app_conn_mgr.c **** */
 191:C:/Users/stapi/OneDrive/Desktop/GD32VW553/GD32VW55X_Wifi_BLE_SDK/GD32VW55x_RELEASE_V1.0.2/MSDK/ble/app\app_conn_mgr.c **** static void check_param_update_op(uint8_t conn_id)
 192:C:/Users/stapi/OneDrive/Desktop/GD32VW553/GD32VW55X_Wifi_BLE_SDK/GD32VW55x_RELEASE_V1.0.2/MSDK/ble/app\app_conn_mgr.c **** {
  19              		.loc 1 192 1
  20              		.cfi_startproc
  21              	.LVL0:
  22 0000 17030000 		call	t0,__riscv_save_2
  22      E7020300 
  23              		.cfi_offset 9, -12
  24              		.cfi_offset 8, -8
  25              		.cfi_offset 1, -4
  26              		.cfi_def_cfa_offset 16
 193:C:/Users/stapi/OneDrive/Desktop/GD32VW553/GD32VW55X_Wifi_BLE_SDK/GD32VW55x_RELEASE_V1.0.2/MSDK/ble/app\app_conn_mgr.c ****     ble_device_t *p_device = dm_find_dev_by_conidx(conn_id);
  27              		.loc 1 193 5
 192:C:/Users/stapi/OneDrive/Desktop/GD32VW553/GD32VW55X_Wifi_BLE_SDK/GD32VW55x_RELEASE_V1.0.2/MSDK/ble/app\app_conn_mgr.c ****     ble_device_t *p_device = dm_find_dev_by_conidx(conn_id);
  28              		.loc 1 192 1 is_stmt 0
  29 0008 AA84     		mv	s1,a0
  30              		.loc 1 193 30
  31 000a 97000000 		call	dm_find_dev_by_conidx
  31      E7800000 
  32              	.LVL1:
 194:C:/Users/stapi/OneDrive/Desktop/GD32VW553/GD32VW55X_Wifi_BLE_SDK/GD32VW55x_RELEASE_V1.0.2/MSDK/ble/app\app_conn_mgr.c **** 
 195:C:/Users/stapi/OneDrive/Desktop/GD32VW553/GD32VW55X_Wifi_BLE_SDK/GD32VW55x_RELEASE_V1.0.2/MSDK/ble/app\app_conn_mgr.c ****     if (p_device != NULL && p_device->expect_conn_info.interval != 0) {
  33              		.loc 1 195 5 is_stmt 1
  34              		.loc 1 195 8 is_stmt 0
  35 0012 21C9     		beq	a0,zero,.L1
  36              		.loc 1 195 55 discriminator 1
  37 0014 03562503 		lhu	a2,50(a0)
  38 0018 2A84     		mv	s0,a0
  39              		.loc 1 195 26 discriminator 1
  40 001a 21C6     		beq	a2,zero,.L1
 196:C:/Users/stapi/OneDrive/Desktop/GD32VW553/GD32VW55X_Wifi_BLE_SDK/GD32VW55x_RELEASE_V1.0.2/MSDK/ble/app\app_conn_mgr.c ****         if (p_device->conn_info.interval != p_device->expect_conn_info.interval ||
  41              		.loc 1 196 9 is_stmt 1
  42              		.loc 1 196 12 is_stmt 0
  43 001c 83578502 		lhu	a5,40(a0)
 197:C:/Users/stapi/OneDrive/Desktop/GD32VW553/GD32VW55X_Wifi_BLE_SDK/GD32VW55x_RELEASE_V1.0.2/MSDK/ble/app\app_conn_mgr.c ****             p_device->conn_info.latency != p_device->expect_conn_info.latency ||
  44              		.loc 1 197 70
  45 0020 83564503 		lhu	a3,52(a0)
 198:C:/Users/stapi/OneDrive/Desktop/GD32VW553/GD32VW55X_Wifi_BLE_SDK/GD32VW55x_RELEASE_V1.0.2/MSDK/ble/app\app_conn_mgr.c ****             p_device->conn_info.supv_tout != p_device->expect_conn_info.supv_tout) {
  46              		.loc 1 198 72
  47 0024 03576503 		lhu	a4,54(a0)
 196:C:/Users/stapi/OneDrive/Desktop/GD32VW553/GD32VW55X_Wifi_BLE_SDK/GD32VW55x_RELEASE_V1.0.2/MSDK/ble/app\app_conn_mgr.c ****         if (p_device->conn_info.interval != p_device->expect_conn_info.interval ||
  48              		.loc 1 196 12
  49 0028 639AC700 		bne	a5,a2,.L3
 196:C:/Users/stapi/OneDrive/Desktop/GD32VW553/GD32VW55X_Wifi_BLE_SDK/GD32VW55x_RELEASE_V1.0.2/MSDK/ble/app\app_conn_mgr.c ****         if (p_device->conn_info.interval != p_device->expect_conn_info.interval ||
  50              		.loc 1 196 81 discriminator 1
  51 002c 8357A502 		lhu	a5,42(a0)
  52 0030 6396D700 		bne	a5,a3,.L3
 197:C:/Users/stapi/OneDrive/Desktop/GD32VW553/GD32VW55X_Wifi_BLE_SDK/GD32VW55x_RELEASE_V1.0.2/MSDK/ble/app\app_conn_mgr.c ****             p_device->conn_info.latency != p_device->expect_conn_info.latency ||
  53              		.loc 1 197 79
  54 0034 8357C502 		lhu	a5,44(a0)
  55 0038 638DE700 		beq	a5,a4,.L4
  56              	.L3:
 199:C:/Users/stapi/OneDrive/Desktop/GD32VW553/GD32VW55X_Wifi_BLE_SDK/GD32VW55x_RELEASE_V1.0.2/MSDK/ble/app\app_conn_mgr.c ****             if (ble_conn_param_update_req(conn_id, p_device->expect_conn_info.interval, p_device->e
  57              		.loc 1 199 13 is_stmt 1
  58              		.loc 1 199 17 is_stmt 0
  59 003c 0148     		li	a6,0
  60 003e 8147     		li	a5,0
  61 0040 B285     		mv	a1,a2
  62 0042 2685     		mv	a0,s1
  63              	.LVL2:
  64 0044 97000000 		call	ble_conn_param_update_req
  64      E7800000 
  65              	.LVL3:
  66              		.loc 1 199 16
  67 004c 19ED     		bne	a0,zero,.L5
 200:C:/Users/stapi/OneDrive/Desktop/GD32VW553/GD32VW55X_Wifi_BLE_SDK/GD32VW55x_RELEASE_V1.0.2/MSDK/ble/app\app_conn_mgr.c ****                                           p_device->expect_conn_info.latency, p_device->expect_conn
 201:C:/Users/stapi/OneDrive/Desktop/GD32VW553/GD32VW55X_Wifi_BLE_SDK/GD32VW55x_RELEASE_V1.0.2/MSDK/ble/app\app_conn_mgr.c ****                 p_device->update_state = UPDATING_STATE;
  68              		.loc 1 201 17 is_stmt 1
  69              		.loc 1 201 40 is_stmt 0
  70 004e 8547     		li	a5,1
  71 0050 5CD0     		sw	a5,36(s0)
  72              	.L4:
 202:C:/Users/stapi/OneDrive/Desktop/GD32VW553/GD32VW55X_Wifi_BLE_SDK/GD32VW55x_RELEASE_V1.0.2/MSDK/ble/app\app_conn_mgr.c ****             } else {
 203:C:/Users/stapi/OneDrive/Desktop/GD32VW553/GD32VW55X_Wifi_BLE_SDK/GD32VW55x_RELEASE_V1.0.2/MSDK/ble/app\app_conn_mgr.c ****                 dbg_print(WARNING, "check_param_update_op conn_id %d update param fail \r\n", conn_
 204:C:/Users/stapi/OneDrive/Desktop/GD32VW553/GD32VW55X_Wifi_BLE_SDK/GD32VW55x_RELEASE_V1.0.2/MSDK/ble/app\app_conn_mgr.c ****                 p_device->update_state = IDLE_STATE;
 205:C:/Users/stapi/OneDrive/Desktop/GD32VW553/GD32VW55X_Wifi_BLE_SDK/GD32VW55x_RELEASE_V1.0.2/MSDK/ble/app\app_conn_mgr.c ****             }
 206:C:/Users/stapi/OneDrive/Desktop/GD32VW553/GD32VW55X_Wifi_BLE_SDK/GD32VW55x_RELEASE_V1.0.2/MSDK/ble/app\app_conn_mgr.c ****         }
 207:C:/Users/stapi/OneDrive/Desktop/GD32VW553/GD32VW55X_Wifi_BLE_SDK/GD32VW55x_RELEASE_V1.0.2/MSDK/ble/app\app_conn_mgr.c **** 
 208:C:/Users/stapi/OneDrive/Desktop/GD32VW553/GD32VW55X_Wifi_BLE_SDK/GD32VW55x_RELEASE_V1.0.2/MSDK/ble/app\app_conn_mgr.c ****         memset(&p_device->expect_conn_info, 0, sizeof(ble_conn_params_t));
  73              		.loc 1 208 9 is_stmt 1
  74 0052 2946     		li	a2,10
  75 0054 8145     		li	a1,0
  76 0056 13052403 		addi	a0,s0,50
  77 005a 97000000 		call	memset
  77      E7800000 
  78              	.LVL4:
  79              	.L1:
 209:C:/Users/stapi/OneDrive/Desktop/GD32VW553/GD32VW55X_Wifi_BLE_SDK/GD32VW55x_RELEASE_V1.0.2/MSDK/ble/app\app_conn_mgr.c ****     }
 210:C:/Users/stapi/OneDrive/Desktop/GD32VW553/GD32VW55X_Wifi_BLE_SDK/GD32VW55x_RELEASE_V1.0.2/MSDK/ble/app\app_conn_mgr.c **** }
  80              		.loc 1 210 1 is_stmt 0
  81 0062 17030000 		tail	__riscv_restore_2
  81      67000300 
  82              		.cfi_remember_state
  83              		.cfi_restore 9
  84              		.cfi_restore 8
  85              		.cfi_restore 1
  86              		.cfi_def_cfa_offset 0
  87              	.LVL5:
  88              	.L5:
  89              		.cfi_restore_state
 203:C:/Users/stapi/OneDrive/Desktop/GD32VW553/GD32VW55X_Wifi_BLE_SDK/GD32VW55x_RELEASE_V1.0.2/MSDK/ble/app\app_conn_mgr.c ****                 p_device->update_state = IDLE_STATE;
  90              		.loc 1 203 17 is_stmt 1
 203:C:/Users/stapi/OneDrive/Desktop/GD32VW553/GD32VW55X_Wifi_BLE_SDK/GD32VW55x_RELEASE_V1.0.2/MSDK/ble/app\app_conn_mgr.c ****                 p_device->update_state = IDLE_STATE;
  91              		.loc 1 203 17
  92 006a B7070000 		lui	a5,%hi(global_debug_level)
  93 006e 03C70700 		lbu	a4,%lo(global_debug_level)(a5)
  94 0072 8547     		li	a5,1
  95 0074 63FBE700 		bleu	a4,a5,.L6
 203:C:/Users/stapi/OneDrive/Desktop/GD32VW553/GD32VW55X_Wifi_BLE_SDK/GD32VW55x_RELEASE_V1.0.2/MSDK/ble/app\app_conn_mgr.c ****                 p_device->update_state = IDLE_STATE;
  96              		.loc 1 203 17 discriminator 1
  97 0078 37050000 		lui	a0,%hi(.LC0)
  98 007c A685     		mv	a1,s1
  99 007e 13050500 		addi	a0,a0,%lo(.LC0)
 100 0082 97000000 		call	co_printf
 100      E7800000 
 101              	.LVL6:
 102              	.L6:
 203:C:/Users/stapi/OneDrive/Desktop/GD32VW553/GD32VW55X_Wifi_BLE_SDK/GD32VW55x_RELEASE_V1.0.2/MSDK/ble/app\app_conn_mgr.c ****                 p_device->update_state = IDLE_STATE;
 103              		.loc 1 203 17 discriminator 3
 204:C:/Users/stapi/OneDrive/Desktop/GD32VW553/GD32VW55X_Wifi_BLE_SDK/GD32VW55x_RELEASE_V1.0.2/MSDK/ble/app\app_conn_mgr.c ****             }
 104              		.loc 1 204 17 discriminator 3
 204:C:/Users/stapi/OneDrive/Desktop/GD32VW553/GD32VW55X_Wifi_BLE_SDK/GD32VW55x_RELEASE_V1.0.2/MSDK/ble/app\app_conn_mgr.c ****             }
 105              		.loc 1 204 40 is_stmt 0 discriminator 3
 106 008a 23220402 		sw	zero,36(s0)
 107 008e D1B7     		j	.L4
 108              		.cfi_endproc
 109              	.LFE8:
 111              		.section	.text.app_conn_fast_param_enable,"ax",@progbits
 112              		.align	1
 113              		.globl	app_conn_fast_param_enable
 115              	app_conn_fast_param_enable:
 116              	.LFB5:
  67:C:/Users/stapi/OneDrive/Desktop/GD32VW553/GD32VW55X_Wifi_BLE_SDK/GD32VW55x_RELEASE_V1.0.2/MSDK/ble/app\app_conn_mgr.c ****     ble_device_t *p_device;
 117              		.loc 1 67 1 is_stmt 1
 118              		.cfi_startproc
 119              	.LVL7:
 120 0000 17030000 		call	t0,__riscv_save_2
 120      E7020300 
 121              		.cfi_offset 9, -12
 122              		.cfi_offset 8, -8
 123              		.cfi_offset 1, -4
 124              		.cfi_def_cfa_offset 16
  68:C:/Users/stapi/OneDrive/Desktop/GD32VW553/GD32VW55X_Wifi_BLE_SDK/GD32VW55x_RELEASE_V1.0.2/MSDK/ble/app\app_conn_mgr.c ****     ble_status_t status = BLE_ERR_NO_ERROR;
 125              		.loc 1 68 5
  69:C:/Users/stapi/OneDrive/Desktop/GD32VW553/GD32VW55X_Wifi_BLE_SDK/GD32VW55x_RELEASE_V1.0.2/MSDK/ble/app\app_conn_mgr.c **** 
 126              		.loc 1 69 5
 127              	.LVL8:
  71:C:/Users/stapi/OneDrive/Desktop/GD32VW553/GD32VW55X_Wifi_BLE_SDK/GD32VW55x_RELEASE_V1.0.2/MSDK/ble/app\app_conn_mgr.c **** 
 128              		.loc 1 71 5
  67:C:/Users/stapi/OneDrive/Desktop/GD32VW553/GD32VW55X_Wifi_BLE_SDK/GD32VW55x_RELEASE_V1.0.2/MSDK/ble/app\app_conn_mgr.c ****     ble_device_t *p_device;
 129              		.loc 1 67 1 is_stmt 0
 130 0008 AA84     		mv	s1,a0
  71:C:/Users/stapi/OneDrive/Desktop/GD32VW553/GD32VW55X_Wifi_BLE_SDK/GD32VW55x_RELEASE_V1.0.2/MSDK/ble/app\app_conn_mgr.c **** 
 131              		.loc 1 71 16
 132 000a 97000000 		call	dm_find_dev_by_conidx
 132      E7800000 
 133              	.LVL9:
  74:C:/Users/stapi/OneDrive/Desktop/GD32VW553/GD32VW55X_Wifi_BLE_SDK/GD32VW55x_RELEASE_V1.0.2/MSDK/ble/app\app_conn_mgr.c ****         return false;
 134              		.loc 1 74 5 is_stmt 1
  74:C:/Users/stapi/OneDrive/Desktop/GD32VW553/GD32VW55X_Wifi_BLE_SDK/GD32VW55x_RELEASE_V1.0.2/MSDK/ble/app\app_conn_mgr.c ****         return false;
 135              		.loc 1 74 8 is_stmt 0
 136 0012 31CD     		beq	a0,zero,.L20
  74:C:/Users/stapi/OneDrive/Desktop/GD32VW553/GD32VW55X_Wifi_BLE_SDK/GD32VW55x_RELEASE_V1.0.2/MSDK/ble/app\app_conn_mgr.c ****         return false;
 137              		.loc 1 74 37 discriminator 1
 138 0014 5C4D     		lw	a5,28(a0)
 139 0016 2A84     		mv	s0,a0
  75:C:/Users/stapi/OneDrive/Desktop/GD32VW553/GD32VW55X_Wifi_BLE_SDK/GD32VW55x_RELEASE_V1.0.2/MSDK/ble/app\app_conn_mgr.c ****     }
 140              		.loc 1 75 16 discriminator 1
 141 0018 0145     		li	a0,0
 142              	.LVL10:
  74:C:/Users/stapi/OneDrive/Desktop/GD32VW553/GD32VW55X_Wifi_BLE_SDK/GD32VW55x_RELEASE_V1.0.2/MSDK/ble/app\app_conn_mgr.c ****         return false;
 143              		.loc 1 74 26 discriminator 1
 144 001a B1E7     		bne	a5,zero,.L15
  78:C:/Users/stapi/OneDrive/Desktop/GD32VW553/GD32VW55X_Wifi_BLE_SDK/GD32VW55x_RELEASE_V1.0.2/MSDK/ble/app\app_conn_mgr.c ****         return true;
 145              		.loc 1 78 5 is_stmt 1
  78:C:/Users/stapi/OneDrive/Desktop/GD32VW553/GD32VW55X_Wifi_BLE_SDK/GD32VW55x_RELEASE_V1.0.2/MSDK/ble/app\app_conn_mgr.c ****         return true;
 146              		.loc 1 78 17 is_stmt 0
 147 001c 03450402 		lbu	a0,32(s0)
  78:C:/Users/stapi/OneDrive/Desktop/GD32VW553/GD32VW55X_Wifi_BLE_SDK/GD32VW55x_RELEASE_V1.0.2/MSDK/ble/app\app_conn_mgr.c ****         return true;
 148              		.loc 1 78 8
 149 0020 39E1     		bne	a0,zero,.L15
  82:C:/Users/stapi/OneDrive/Desktop/GD32VW553/GD32VW55X_Wifi_BLE_SDK/GD32VW55x_RELEASE_V1.0.2/MSDK/ble/app\app_conn_mgr.c ****         status = ble_conn_param_update_req(conn_id, BLE_CONN_FAST_INTV, BLE_CONN_FAST_INTV,
 150              		.loc 1 82 5 is_stmt 1
  82:C:/Users/stapi/OneDrive/Desktop/GD32VW553/GD32VW55X_Wifi_BLE_SDK/GD32VW55x_RELEASE_V1.0.2/MSDK/ble/app\app_conn_mgr.c ****         status = ble_conn_param_update_req(conn_id, BLE_CONN_FAST_INTV, BLE_CONN_FAST_INTV,
 151              		.loc 1 82 8 is_stmt 0
 152 0022 5C50     		lw	a5,36(s0)
 153 0024 9DEB     		bne	a5,zero,.L17
  83:C:/Users/stapi/OneDrive/Desktop/GD32VW553/GD32VW55X_Wifi_BLE_SDK/GD32VW55x_RELEASE_V1.0.2/MSDK/ble/app\app_conn_mgr.c ****                                            BLE_CONN_FAST_LATENCY, BLE_CONN_FAST_SUPV_TOUT, 0, 0);
 154              		.loc 1 83 9 is_stmt 1
  83:C:/Users/stapi/OneDrive/Desktop/GD32VW553/GD32VW55X_Wifi_BLE_SDK/GD32VW55x_RELEASE_V1.0.2/MSDK/ble/app\app_conn_mgr.c ****                                            BLE_CONN_FAST_LATENCY, BLE_CONN_FAST_SUPV_TOUT, 0, 0);
 155              		.loc 1 83 18 is_stmt 0
 156 0026 0148     		li	a6,0
 157 0028 13074006 		li	a4,100
 158 002c 8146     		li	a3,0
 159 002e 1946     		li	a2,6
 160 0030 9945     		li	a1,6
 161 0032 2685     		mv	a0,s1
 162 0034 97000000 		call	ble_conn_param_update_req
 162      E7800000 
 163              	.LVL11:
  85:C:/Users/stapi/OneDrive/Desktop/GD32VW553/GD32VW55X_Wifi_BLE_SDK/GD32VW55x_RELEASE_V1.0.2/MSDK/ble/app\app_conn_mgr.c ****             p_device->update_state = FAST_PARAM_UPDATING_STATE;
 164              		.loc 1 85 9 is_stmt 1
  85:C:/Users/stapi/OneDrive/Desktop/GD32VW553/GD32VW55X_Wifi_BLE_SDK/GD32VW55x_RELEASE_V1.0.2/MSDK/ble/app\app_conn_mgr.c ****             p_device->update_state = FAST_PARAM_UPDATING_STATE;
 165              		.loc 1 85 12 is_stmt 0
 166 003c 1DE1     		bne	a0,zero,.L18
  86:C:/Users/stapi/OneDrive/Desktop/GD32VW553/GD32VW55X_Wifi_BLE_SDK/GD32VW55x_RELEASE_V1.0.2/MSDK/ble/app\app_conn_mgr.c **** 
 167              		.loc 1 86 13 is_stmt 1
  86:C:/Users/stapi/OneDrive/Desktop/GD32VW553/GD32VW55X_Wifi_BLE_SDK/GD32VW55x_RELEASE_V1.0.2/MSDK/ble/app\app_conn_mgr.c **** 
 168              		.loc 1 86 36 is_stmt 0
 169 003e 8947     		li	a5,2
 170 0040 5CD0     		sw	a5,36(s0)
  89:C:/Users/stapi/OneDrive/Desktop/GD32VW553/GD32VW55X_Wifi_BLE_SDK/GD32VW55x_RELEASE_V1.0.2/MSDK/ble/app\app_conn_mgr.c ****                 p_device->expect_conn_info = p_device->conn_info;
 171              		.loc 1 89 13 is_stmt 1
  89:C:/Users/stapi/OneDrive/Desktop/GD32VW553/GD32VW55X_Wifi_BLE_SDK/GD32VW55x_RELEASE_V1.0.2/MSDK/ble/app\app_conn_mgr.c ****                 p_device->expect_conn_info = p_device->conn_info;
 172              		.loc 1 89 16 is_stmt 0
 173 0042 83572403 		lhu	a5,50(s0)
 174 0046 91EB     		bne	a5,zero,.L17
  90:C:/Users/stapi/OneDrive/Desktop/GD32VW553/GD32VW55X_Wifi_BLE_SDK/GD32VW55x_RELEASE_V1.0.2/MSDK/ble/app\app_conn_mgr.c ****             }
 175              		.loc 1 90 17 is_stmt 1
  90:C:/Users/stapi/OneDrive/Desktop/GD32VW553/GD32VW55X_Wifi_BLE_SDK/GD32VW55x_RELEASE_V1.0.2/MSDK/ble/app\app_conn_mgr.c ****             }
 176              		.loc 1 90 44 is_stmt 0
 177 0048 2946     		li	a2,10
 178 004a 93058402 		addi	a1,s0,40
 179 004e 13052403 		addi	a0,s0,50
 180              	.LVL12:
 181 0052 97000000 		call	memcpy
 181      E7800000 
 182              	.LVL13:
 183              	.L17:
  96:C:/Users/stapi/OneDrive/Desktop/GD32VW553/GD32VW55X_Wifi_BLE_SDK/GD32VW55x_RELEASE_V1.0.2/MSDK/ble/app\app_conn_mgr.c ****     }
 184              		.loc 1 96 9 is_stmt 1
  96:C:/Users/stapi/OneDrive/Desktop/GD32VW553/GD32VW55X_Wifi_BLE_SDK/GD32VW55x_RELEASE_V1.0.2/MSDK/ble/app\app_conn_mgr.c ****     }
 185              		.loc 1 96 37 is_stmt 0
 186 005a 8547     		li	a5,1
 187 005c 2300F402 		sb	a5,32(s0)
 188 0060 0145     		li	a0,0
 189              	.L18:
  99:C:/Users/stapi/OneDrive/Desktop/GD32VW553/GD32VW55X_Wifi_BLE_SDK/GD32VW55x_RELEASE_V1.0.2/MSDK/ble/app\app_conn_mgr.c **** }
 190              		.loc 1 99 5 is_stmt 1
  99:C:/Users/stapi/OneDrive/Desktop/GD32VW553/GD32VW55X_Wifi_BLE_SDK/GD32VW55x_RELEASE_V1.0.2/MSDK/ble/app\app_conn_mgr.c **** }
 191              		.loc 1 99 19 is_stmt 0
 192 0062 13351500 		seqz	a0,a0
 193              	.LVL14:
 194              	.L15:
 100:C:/Users/stapi/OneDrive/Desktop/GD32VW553/GD32VW55X_Wifi_BLE_SDK/GD32VW55x_RELEASE_V1.0.2/MSDK/ble/app\app_conn_mgr.c **** 
 195              		.loc 1 100 1
 196 0066 17030000 		tail	__riscv_restore_2
 196      67000300 
 197              		.cfi_remember_state
 198              		.cfi_restore 9
 199              		.cfi_restore 8
 200              		.cfi_restore 1
 201              		.cfi_def_cfa_offset 0
 202              	.LVL15:
 203              	.L20:
 204              		.cfi_restore_state
  75:C:/Users/stapi/OneDrive/Desktop/GD32VW553/GD32VW55X_Wifi_BLE_SDK/GD32VW55x_RELEASE_V1.0.2/MSDK/ble/app\app_conn_mgr.c ****     }
 205              		.loc 1 75 16
 206 006e 0145     		li	a0,0
 207              	.LVL16:
 208 0070 DDBF     		j	.L15
 209              		.cfi_endproc
 210              	.LFE5:
 212              		.section	.rodata.ble_app_conn_evt_handler.str1.4,"aMS",@progbits,1
 213              		.align	2
 214              	.LC1:
 215 0000 3D3D3D3E 		.string	"===> init conn idle idx %u, wl_used %d reason 0x%x\r\n"
 215      20696E69 
 215      7420636F 
 215      6E6E2069 
 215      646C6520 
 216 0035 000000   		.align	2
 217              	.LC2:
 218 0038 3D3D3D3E 		.string	"===> init conn starting idx %u, wl_used %d\r\n"
 218      20696E69 
 218      7420636F 
 218      6E6E2073 
 218      74617274 
 219 0065 000000   		.align	2
 220              	.LC3:
 221 0068 3D3D3D3E 		.string	"===> init conn started idx %u, wl_used %d\r\n"
 221      20696E69 
 221      7420636F 
 221      6E6E2073 
 221      74617274 
 222              		.align	2
 223              	.LC4:
 224 0094 3D3D3D3E 		.string	"===> init conn disabling idx %u, wl_used %d reason 0x%x\r\n"
 224      20696E69 
 224      7420636F 
 224      6E6E2064 
 224      69736162 
 225 00ce 0000     		.align	2
 226              	.LC5:
 227 00d0 3D3D3D3E 		.string	"===> init conn disabling idx %u, cancel connecting fail!\r\n"
 227      20696E69 
 227      7420636F 
 227      6E6E2064 
 227      69736162 
 228 010b 00       		.align	2
 229              	.LC6:
 230 010c 64697363 		.string	"disconnected. conn idx: %u, conn_hdl: 0x%x reason 0x%x\r\n"
 230      6F6E6E65 
 230      63746564 
 230      2E20636F 
 230      6E6E2069 
 231 0145 000000   		.align	2
 232              	.LC7:
 233 0148 636F6E6E 		.string	"connect success. conn idx:%u, conn_hdl:0x%x \r\n"
 233      65637420 
 233      73756363 
 233      6573732E 
 233      20636F6E 
 234 0177 00       		.align	2
 235              	.LC8:
 236 0178 64697363 		.string	"disconnect fail. conn idx %u, reason 0x%x\r\n"
 236      6F6E6E65 
 236      63742066 
 236      61696C2E 
 236      20636F6E 
 237              		.align	2
 238              	.LC9:
 239 01a4 636F6E6E 		.string	"conn idx: %u, peer name: %s\r\n"
 239      20696478 
 239      3A202575 
 239      2C207065 
 239      6572206E 
 240 01c2 0000     		.align	2
 241              	.LC10:
 242 01c4 636F6E6E 		.string	"conn idx: %u, peer version: 0x%x, subversion: 0x%x, comp id 0x%x\r\n"
 242      20696478 
 242      3A202575 
 242      2C207065 
 242      65722076 
 243 0207 00       		.align	2
 244              	.LC11:
 245 0208 636F6E6E 		.string	"conn idx: %u, peer feature: 0x%02x%02x%02x%02x%02x%02x%02x%02x\r\n"
 245      20696478 
 245      3A202575 
 245      2C207065 
 245      65722066 
 246 0249 000000   		.align	2
 247              	.LC12:
 248 024c 636F6E6E 		.string	"conn idx: %u, peer appearance: 0x%x\r\n"
 248      20696478 
 248      3A202575 
 248      2C207065 
 248      65722061 
 249 0272 0000     		.align	2
 250              	.LC13:
 251 0274 636F6E6E 		.string	"conn idx: %u, conn_intv_min: 0x%x, conn_intv_max: 0x%x, latency: %d, timeout: %d\r\n"
 251      20696478 
 251      3A202575 
 251      2C20636F 
 251      6E6E5F69 
 252 02c7 00       		.align	2
 253              	.LC14:
 254 02c8 636F6E6E 		.string	"conn idx: %u, central address resolution support %d\r\n"
 254      20696478 
 254      3A202575 
 254      2C206365 
 254      6E747261 
 255 02fe 0000     		.align	2
 256              	.LC15:
 257 0300 636F6E6E 		.string	"conn idx: %u, central rpa only %d\r\n"
 257      20696478 
 257      3A202575 
 257      2C206365 
 257      6E747261 
 258              		.align	2
 259              	.LC16:
 260 0324 636F6E6E 		.string	"conn idx: %u, db_hash\r\n"
 260      20696478 
 260      3A202575 
 260      2C206462 
 260      5F686173 
 261              		.align	2
 262              	.LC17:
 263 033c 25303278 		.string	"%02x"
 263      00
 264 0341 000000   		.align	2
 265              	.LC18:
 266 0344 0D0A00   		.string	"\r\n"
 267 0347 00       		.align	2
 268              	.LC19:
 269 0348 636F6E6E 		.string	"conn idx %u ping timeout %d\r\n"
 269      20696478 
 269      20257520 
 269      70696E67 
 269      2074696D 
 270 0366 0000     		.align	2
 271              	.LC20:
 272 0368 636F6E6E 		.string	"conn idx %u ping timeout\r\n"
 272      20696478 
 272      20257520 
 272      70696E67 
 272      2074696D 
 273 0383 00       		.align	2
 274              	.LC21:
 275 0384 636F6E6E 		.string	"conn idx %u ping timeout set status 0x%x\r\n"
 275      20696478 
 275      20257520 
 275      70696E67 
 275      2074696D 
 276 03af 00       		.align	2
 277              	.LC22:
 278 03b0 636F6E6E 		.string	"conn idx %u rssi: %d\r\n"
 278      20696478 
 278      20257520 
 278      72737369 
 278      3A202564 
 279 03c7 00       		.align	2
 280              	.LC23:
 281 03c8 6368616E 		.string	"channel map: 0x%02x%02x%02x%02x%02x\r\n"
 281      6E656C20 
 281      6D61703A 
 281      20307825 
 281      30327825 
 282 03ee 0000     		.align	2
 283              	.LC24:
 284 03f0 636F6E6E 		.string	"conn idx %u appearance acquire \r\n"
 284      20696478 
 284      20257520 
 284      61707065 
 284      6172616E 
 285 0412 0000     		.align	2
 286              	.LC25:
 287 0414 636F6E6E 		.string	"conn idx %u slave prefer parameters acquire \r\n"
 287      20696478 
 287      20257520 
 287      736C6176 
 287      65207072 
 288 0443 00       		.align	2
 289              	.LC26:
 290 0444 636F6E6E 		.string	"conn idx %u, name set %s, name len %u \r\n"
 290      20696478 
 290      2025752C 
 290      206E616D 
 290      65207365 
 291 046d 000000   		.align	2
 292              	.LC27:
 293 0470 636F6E6E 		.string	"conn idx %u, appearance set 0x%x\r\n"
 293      20696478 
 293      2025752C 
 293      20617070 
 293      65617261 
 294 0493 00       		.align	2
 295              	.LC28:
 296 0494 636F6E6E 		.string	"conn idx %u, intv_min 0x%x, intv_max 0x%x, latency %u, supv_tout %u\r\n"
 296      20696478 
 296      2025752C 
 296      20696E74 
 296      765F6D69 
 297 04da 0000     		.align	2
 298              	.LC29:
 299 04dc 66617374 		.string	"fast parameters enabled, reject remote param update indication\r\n"
 299      20706172 
 299      616D6574 
 299      65727320 
 299      656E6162 
 300 051d 000000   		.align	2
 301              	.LC30:
 302 0520 636F6E6E 		.string	"conn idx %u, param update result status: 0x%x\r\n"
 302      20696478 
 302      2025752C 
 302      20706172 
 302      616D2075 
 303              		.align	2
 304              	.LC31:
 305 0550 636F6E6E 		.string	"conn idx %u, param update fail update_state: 0x%x\r\n"
 305      20696478 
 305      2025752C 
 305      20706172 
 305      616D2075 
 306              		.align	2
 307              	.LC32:
 308 0584 636F6E6E 		.string	"conn idx %u, param update ind: interval %d, latency %d, sup to %d\r\n"
 308      20696478 
 308      2025752C 
 308      20706172 
 308      616D2075 
 309              		.align	2
 310              	.LC33:
 311 05c8 636F6E6E 		.string	"conn idx %u, packet size set status 0x%x\r\n"
 311      20696478 
 311      2025752C 
 311      20706163 
 311      6B657420 
 312 05f3 00       		.align	2
 313              	.LC34:
 314 05f4 6C652070 		.string	"le pkt size info: conn idx %u, tx oct %d, tx time %d, rx oct %d, rx time %d\r\n"
 314      6B742073 
 314      697A6520 
 314      696E666F 
 314      3A20636F 
 315 0642 0000     		.align	2
 316              	.LC35:
 317 0644 636F6E6E 		.string	"conn idx %u le phy get status 0x%x\r\n"
 317      20696478 
 317      20257520 
 317      6C652070 
 317      68792067 
 318 0669 000000   		.align	2
 319              	.LC36:
 320 066c 636F6E6E 		.string	"conn idx %u le phy set status 0x%x\r\n"
 320      20696478 
 320      20257520 
 320      6C652070 
 320      68792073 
 321 0691 000000   		.align	2
 322              	.LC37:
 323 0694 6C652070 		.string	"le phy ind conn idx %u: tx phy 0x%x, rx phy 0x%x\r\n"
 323      68792069 
 323      6E642063 
 323      6F6E6E20 
 323      69647820 
 324 06c7 00       		.align	2
 325              	.LC38:
 326 06c8 6C6F6361 		.string	"local tx pwr conn idx %u, phy %d, pwr %d, max %d\r\n"
 326      6C207478 
 326      20707772 
 326      20636F6E 
 326      6E206964 
 327 06fb 00       		.align	2
 328              	.LC39:
 329 06fc 70656572 		.string	"peer tx pwr conidx %u, pwr %d, flag 0x%x \r\n"
 329      20747820 
 329      70777220 
 329      636F6E69 
 329      64782025 
 330              		.align	2
 331              	.LC40:
 332 0728 6C6F6361 		.string	"local tx pwr report conn idx %u, phy %d, pwr %d, flag 0x%x, delta %d\r\n"
 332      6C207478 
 332      20707772 
 332      20726570 
 332      6F727420 
 333 076f 00       		.align	2
 334              	.LC41:
 335 0770 70656572 		.string	"peer tx pwr report conn idx %u, phy %d, pwr %d, flag 0x%x, delta %d\r\n"
 335      20747820 
 335      70777220 
 335      7265706F 
 335      72742063 
 336 07b6 0000     		.align	2
 337              	.LC42:
 338 07b8 70617468 		.string	"path loss threshold conn idx %u, curr %d, zone %d\r\n"
 338      206C6F73 
 338      73207468 
 338      72657368 
 338      6F6C6420 
 339              		.align	2
 340              	.LC43:
 341 07ec 70617468 		.string	"path loss ctrl conn idx %u, status 0x%x\r\n"
 341      206C6F73 
 341      73206374 
 341      726C2063 
 341      6F6E6E20 
 342 0816 0000     		.align	2
 343              	.LC44:
 344 0818 70657269 		.string	"periodic sync transfer result conn idx %u, status 0x%x\r\n"
 344      6F646963 
 344      2073796E 
 344      63207472 
 344      616E7366 
 345 0851 000000   		.align	2
 346              	.LC45:
 347 0854 54782070 		.string	"Tx power report contrl result conn idx %u, status 0x%x\r\n"
 347      6F776572 
 347      20726570 
 347      6F727420 
 347      636F6E74 
 348              		.section	.text.ble_app_conn_evt_handler,"ax",@progbits
 349              		.align	1
 351              	ble_app_conn_evt_handler:
 352              	.LFB11:
 211:C:/Users/stapi/OneDrive/Desktop/GD32VW553/GD32VW55X_Wifi_BLE_SDK/GD32VW55x_RELEASE_V1.0.2/MSDK/ble/app\app_conn_mgr.c **** 
 212:C:/Users/stapi/OneDrive/Desktop/GD32VW553/GD32VW55X_Wifi_BLE_SDK/GD32VW55x_RELEASE_V1.0.2/MSDK/ble/app\app_conn_mgr.c **** /*!
 213:C:/Users/stapi/OneDrive/Desktop/GD32VW553/GD32VW55X_Wifi_BLE_SDK/GD32VW55x_RELEASE_V1.0.2/MSDK/ble/app\app_conn_mgr.c ****     \brief      Function to handle connection established event
 214:C:/Users/stapi/OneDrive/Desktop/GD32VW553/GD32VW55X_Wifi_BLE_SDK/GD32VW55x_RELEASE_V1.0.2/MSDK/ble/app\app_conn_mgr.c ****     \param[in]  p_data: pointer to BLE connection event data
 215:C:/Users/stapi/OneDrive/Desktop/GD32VW553/GD32VW55X_Wifi_BLE_SDK/GD32VW55x_RELEASE_V1.0.2/MSDK/ble/app\app_conn_mgr.c ****     \param[out] none
 216:C:/Users/stapi/OneDrive/Desktop/GD32VW553/GD32VW55X_Wifi_BLE_SDK/GD32VW55x_RELEASE_V1.0.2/MSDK/ble/app\app_conn_mgr.c ****     \retval     none
 217:C:/Users/stapi/OneDrive/Desktop/GD32VW553/GD32VW55X_Wifi_BLE_SDK/GD32VW55x_RELEASE_V1.0.2/MSDK/ble/app\app_conn_mgr.c **** */
 218:C:/Users/stapi/OneDrive/Desktop/GD32VW553/GD32VW55X_Wifi_BLE_SDK/GD32VW55x_RELEASE_V1.0.2/MSDK/ble/app\app_conn_mgr.c **** static void app_conn_mgr_handle_connected(ble_conn_data_u *p_data)
 219:C:/Users/stapi/OneDrive/Desktop/GD32VW553/GD32VW55X_Wifi_BLE_SDK/GD32VW55x_RELEASE_V1.0.2/MSDK/ble/app\app_conn_mgr.c **** {
 220:C:/Users/stapi/OneDrive/Desktop/GD32VW553/GD32VW55X_Wifi_BLE_SDK/GD32VW55x_RELEASE_V1.0.2/MSDK/ble/app\app_conn_mgr.c ****     ble_device_t *p_device;
 221:C:/Users/stapi/OneDrive/Desktop/GD32VW553/GD32VW55X_Wifi_BLE_SDK/GD32VW55x_RELEASE_V1.0.2/MSDK/ble/app\app_conn_mgr.c ****     dbg_print(NOTICE, "connect success. conn idx:%u, conn_hdl:0x%x \r\n",
 222:C:/Users/stapi/OneDrive/Desktop/GD32VW553/GD32VW55X_Wifi_BLE_SDK/GD32VW55x_RELEASE_V1.0.2/MSDK/ble/app\app_conn_mgr.c ****               p_data->conn_state.info.conn_info.conn_idx, p_data->conn_state.info.conn_info.conn_hd
 223:C:/Users/stapi/OneDrive/Desktop/GD32VW553/GD32VW55X_Wifi_BLE_SDK/GD32VW55x_RELEASE_V1.0.2/MSDK/ble/app\app_conn_mgr.c **** 
 224:C:/Users/stapi/OneDrive/Desktop/GD32VW553/GD32VW55X_Wifi_BLE_SDK/GD32VW55x_RELEASE_V1.0.2/MSDK/ble/app\app_conn_mgr.c ****     p_device = dm_find_alloc_dev_by_addr(p_data->conn_state.info.conn_info.peer_addr);
 225:C:/Users/stapi/OneDrive/Desktop/GD32VW553/GD32VW55X_Wifi_BLE_SDK/GD32VW55x_RELEASE_V1.0.2/MSDK/ble/app\app_conn_mgr.c ****     if (p_device != NULL) {
 226:C:/Users/stapi/OneDrive/Desktop/GD32VW553/GD32VW55X_Wifi_BLE_SDK/GD32VW55x_RELEASE_V1.0.2/MSDK/ble/app\app_conn_mgr.c ****         p_device->conn_idx = p_data->conn_state.info.conn_info.conn_idx;
 227:C:/Users/stapi/OneDrive/Desktop/GD32VW553/GD32VW55X_Wifi_BLE_SDK/GD32VW55x_RELEASE_V1.0.2/MSDK/ble/app\app_conn_mgr.c ****         p_device->conn_hdl = p_data->conn_state.info.conn_info.conn_hdl;
 228:C:/Users/stapi/OneDrive/Desktop/GD32VW553/GD32VW55X_Wifi_BLE_SDK/GD32VW55x_RELEASE_V1.0.2/MSDK/ble/app\app_conn_mgr.c ****         p_device->state = BLE_CONN_STATE_CONNECTED;
 229:C:/Users/stapi/OneDrive/Desktop/GD32VW553/GD32VW55X_Wifi_BLE_SDK/GD32VW55x_RELEASE_V1.0.2/MSDK/ble/app\app_conn_mgr.c ****         p_device->role = p_data->conn_state.info.conn_info.role;
 230:C:/Users/stapi/OneDrive/Desktop/GD32VW553/GD32VW55X_Wifi_BLE_SDK/GD32VW55x_RELEASE_V1.0.2/MSDK/ble/app\app_conn_mgr.c ****         p_device->conn_info.interval = p_data->conn_state.info.conn_info.con_interval;
 231:C:/Users/stapi/OneDrive/Desktop/GD32VW553/GD32VW55X_Wifi_BLE_SDK/GD32VW55x_RELEASE_V1.0.2/MSDK/ble/app\app_conn_mgr.c ****         p_device->conn_info.latency = p_data->conn_state.info.conn_info.con_latency;
 232:C:/Users/stapi/OneDrive/Desktop/GD32VW553/GD32VW55X_Wifi_BLE_SDK/GD32VW55x_RELEASE_V1.0.2/MSDK/ble/app\app_conn_mgr.c ****         p_device->conn_info.supv_tout = p_data->conn_state.info.conn_info.sup_to;
 233:C:/Users/stapi/OneDrive/Desktop/GD32VW553/GD32VW55X_Wifi_BLE_SDK/GD32VW55x_RELEASE_V1.0.2/MSDK/ble/app\app_conn_mgr.c ****         p_device->conn_info.ce_len_min = p_device->conn_info.ce_len_max = 0;
 234:C:/Users/stapi/OneDrive/Desktop/GD32VW553/GD32VW55X_Wifi_BLE_SDK/GD32VW55x_RELEASE_V1.0.2/MSDK/ble/app\app_conn_mgr.c **** 
 235:C:/Users/stapi/OneDrive/Desktop/GD32VW553/GD32VW55X_Wifi_BLE_SDK/GD32VW55x_RELEASE_V1.0.2/MSDK/ble/app\app_conn_mgr.c ****         // If security keys are managered by APP, need to set sec infor
 236:C:/Users/stapi/OneDrive/Desktop/GD32VW553/GD32VW55X_Wifi_BLE_SDK/GD32VW55x_RELEASE_V1.0.2/MSDK/ble/app\app_conn_mgr.c ****         if (app_sec_user_key_mgr_get()) {
 237:C:/Users/stapi/OneDrive/Desktop/GD32VW553/GD32VW55X_Wifi_BLE_SDK/GD32VW55x_RELEASE_V1.0.2/MSDK/ble/app\app_conn_mgr.c ****             ble_gap_sec_bond_data_t bond_data = {0};
 238:C:/Users/stapi/OneDrive/Desktop/GD32VW553/GD32VW55X_Wifi_BLE_SDK/GD32VW55x_RELEASE_V1.0.2/MSDK/ble/app\app_conn_mgr.c **** 
 239:C:/Users/stapi/OneDrive/Desktop/GD32VW553/GD32VW55X_Wifi_BLE_SDK/GD32VW55x_RELEASE_V1.0.2/MSDK/ble/app\app_conn_mgr.c ****             ble_peer_data_bond_load(&p_data->conn_state.info.conn_info.peer_addr, &bond_data);
 240:C:/Users/stapi/OneDrive/Desktop/GD32VW553/GD32VW55X_Wifi_BLE_SDK/GD32VW55x_RELEASE_V1.0.2/MSDK/ble/app\app_conn_mgr.c ****             ble_conn_sec_info_set(p_device->conn_idx, bond_data.local_csrk.csrk, bond_data.peer_csr
 241:C:/Users/stapi/OneDrive/Desktop/GD32VW553/GD32VW55X_Wifi_BLE_SDK/GD32VW55x_RELEASE_V1.0.2/MSDK/ble/app\app_conn_mgr.c ****                                   bond_data.pairing_lvl, bond_data.enc_key_present);
 242:C:/Users/stapi/OneDrive/Desktop/GD32VW553/GD32VW55X_Wifi_BLE_SDK/GD32VW55x_RELEASE_V1.0.2/MSDK/ble/app\app_conn_mgr.c ****         }
 243:C:/Users/stapi/OneDrive/Desktop/GD32VW553/GD32VW55X_Wifi_BLE_SDK/GD32VW55x_RELEASE_V1.0.2/MSDK/ble/app\app_conn_mgr.c **** 
 244:C:/Users/stapi/OneDrive/Desktop/GD32VW553/GD32VW55X_Wifi_BLE_SDK/GD32VW55x_RELEASE_V1.0.2/MSDK/ble/app\app_conn_mgr.c ****         if (p_device->role == BLE_MASTER) {
 245:C:/Users/stapi/OneDrive/Desktop/GD32VW553/GD32VW55X_Wifi_BLE_SDK/GD32VW55x_RELEASE_V1.0.2/MSDK/ble/app\app_conn_mgr.c ****             ble_conn_peer_version_get(p_data->conn_state.info.conn_info.conn_idx);
 246:C:/Users/stapi/OneDrive/Desktop/GD32VW553/GD32VW55X_Wifi_BLE_SDK/GD32VW55x_RELEASE_V1.0.2/MSDK/ble/app\app_conn_mgr.c ****             ble_conn_peer_feats_get(p_data->conn_state.info.conn_info.conn_idx);
 247:C:/Users/stapi/OneDrive/Desktop/GD32VW553/GD32VW55X_Wifi_BLE_SDK/GD32VW55x_RELEASE_V1.0.2/MSDK/ble/app\app_conn_mgr.c **** 
 248:C:/Users/stapi/OneDrive/Desktop/GD32VW553/GD32VW55X_Wifi_BLE_SDK/GD32VW55x_RELEASE_V1.0.2/MSDK/ble/app\app_conn_mgr.c ****             if (p_device->bonded && (p_device->bond_info.key_msk & BLE_PEER_LTK_ENCKEY)) {
 249:C:/Users/stapi/OneDrive/Desktop/GD32VW553/GD32VW55X_Wifi_BLE_SDK/GD32VW55x_RELEASE_V1.0.2/MSDK/ble/app\app_conn_mgr.c ****                 app_sec_send_encrypt_req(p_device->conn_idx);
 250:C:/Users/stapi/OneDrive/Desktop/GD32VW553/GD32VW55X_Wifi_BLE_SDK/GD32VW55x_RELEASE_V1.0.2/MSDK/ble/app\app_conn_mgr.c ****             } else {
 251:C:/Users/stapi/OneDrive/Desktop/GD32VW553/GD32VW55X_Wifi_BLE_SDK/GD32VW55x_RELEASE_V1.0.2/MSDK/ble/app\app_conn_mgr.c ****                 if (app_sec_is_pairing_device(p_device->cur_addr)) {
 252:C:/Users/stapi/OneDrive/Desktop/GD32VW553/GD32VW55X_Wifi_BLE_SDK/GD32VW55x_RELEASE_V1.0.2/MSDK/ble/app\app_conn_mgr.c ****                     app_sec_send_bond_req(p_device->conn_idx);
 253:C:/Users/stapi/OneDrive/Desktop/GD32VW553/GD32VW55X_Wifi_BLE_SDK/GD32VW55x_RELEASE_V1.0.2/MSDK/ble/app\app_conn_mgr.c ****                 }
 254:C:/Users/stapi/OneDrive/Desktop/GD32VW553/GD32VW55X_Wifi_BLE_SDK/GD32VW55x_RELEASE_V1.0.2/MSDK/ble/app\app_conn_mgr.c ****             }
 255:C:/Users/stapi/OneDrive/Desktop/GD32VW553/GD32VW55X_Wifi_BLE_SDK/GD32VW55x_RELEASE_V1.0.2/MSDK/ble/app\app_conn_mgr.c ****         } else {
 256:C:/Users/stapi/OneDrive/Desktop/GD32VW553/GD32VW55X_Wifi_BLE_SDK/GD32VW55x_RELEASE_V1.0.2/MSDK/ble/app\app_conn_mgr.c ****             // Slave always need encryption or bond
 257:C:/Users/stapi/OneDrive/Desktop/GD32VW553/GD32VW55X_Wifi_BLE_SDK/GD32VW55x_RELEASE_V1.0.2/MSDK/ble/app\app_conn_mgr.c ****             if (app_sec_need_authen_bond()) {
 258:C:/Users/stapi/OneDrive/Desktop/GD32VW553/GD32VW55X_Wifi_BLE_SDK/GD32VW55x_RELEASE_V1.0.2/MSDK/ble/app\app_conn_mgr.c ****                 app_sec_send_security_req(p_device->conn_idx);
 259:C:/Users/stapi/OneDrive/Desktop/GD32VW553/GD32VW55X_Wifi_BLE_SDK/GD32VW55x_RELEASE_V1.0.2/MSDK/ble/app\app_conn_mgr.c ****             }
 260:C:/Users/stapi/OneDrive/Desktop/GD32VW553/GD32VW55X_Wifi_BLE_SDK/GD32VW55x_RELEASE_V1.0.2/MSDK/ble/app\app_conn_mgr.c ****         }
 261:C:/Users/stapi/OneDrive/Desktop/GD32VW553/GD32VW55X_Wifi_BLE_SDK/GD32VW55x_RELEASE_V1.0.2/MSDK/ble/app\app_conn_mgr.c **** 
 262:C:/Users/stapi/OneDrive/Desktop/GD32VW553/GD32VW55X_Wifi_BLE_SDK/GD32VW55x_RELEASE_V1.0.2/MSDK/ble/app\app_conn_mgr.c ****         // FIX TODO enable profiles
 263:C:/Users/stapi/OneDrive/Desktop/GD32VW553/GD32VW55X_Wifi_BLE_SDK/GD32VW55x_RELEASE_V1.0.2/MSDK/ble/app\app_conn_mgr.c ****     }
 264:C:/Users/stapi/OneDrive/Desktop/GD32VW553/GD32VW55X_Wifi_BLE_SDK/GD32VW55x_RELEASE_V1.0.2/MSDK/ble/app\app_conn_mgr.c **** }
 265:C:/Users/stapi/OneDrive/Desktop/GD32VW553/GD32VW55X_Wifi_BLE_SDK/GD32VW55x_RELEASE_V1.0.2/MSDK/ble/app\app_conn_mgr.c **** 
 266:C:/Users/stapi/OneDrive/Desktop/GD32VW553/GD32VW55X_Wifi_BLE_SDK/GD32VW55x_RELEASE_V1.0.2/MSDK/ble/app\app_conn_mgr.c **** /*!
 267:C:/Users/stapi/OneDrive/Desktop/GD32VW553/GD32VW55X_Wifi_BLE_SDK/GD32VW55x_RELEASE_V1.0.2/MSDK/ble/app\app_conn_mgr.c ****     \brief      Callback function to handle when GATT discovery is done
 268:C:/Users/stapi/OneDrive/Desktop/GD32VW553/GD32VW55X_Wifi_BLE_SDK/GD32VW55x_RELEASE_V1.0.2/MSDK/ble/app\app_conn_mgr.c ****     \param[in]  conn_idx: connection index
 269:C:/Users/stapi/OneDrive/Desktop/GD32VW553/GD32VW55X_Wifi_BLE_SDK/GD32VW55x_RELEASE_V1.0.2/MSDK/ble/app\app_conn_mgr.c ****     \param[in]  status: GATT discovery status
 270:C:/Users/stapi/OneDrive/Desktop/GD32VW553/GD32VW55X_Wifi_BLE_SDK/GD32VW55x_RELEASE_V1.0.2/MSDK/ble/app\app_conn_mgr.c ****     \param[out] none
 271:C:/Users/stapi/OneDrive/Desktop/GD32VW553/GD32VW55X_Wifi_BLE_SDK/GD32VW55x_RELEASE_V1.0.2/MSDK/ble/app\app_conn_mgr.c ****     \retval     none
 272:C:/Users/stapi/OneDrive/Desktop/GD32VW553/GD32VW55X_Wifi_BLE_SDK/GD32VW55x_RELEASE_V1.0.2/MSDK/ble/app\app_conn_mgr.c **** */
 273:C:/Users/stapi/OneDrive/Desktop/GD32VW553/GD32VW55X_Wifi_BLE_SDK/GD32VW55x_RELEASE_V1.0.2/MSDK/ble/app\app_conn_mgr.c **** static void ble_app_conn_gatt_discovery_callback(uint8_t conn_idx, uint16_t status)
 274:C:/Users/stapi/OneDrive/Desktop/GD32VW553/GD32VW55X_Wifi_BLE_SDK/GD32VW55x_RELEASE_V1.0.2/MSDK/ble/app\app_conn_mgr.c **** {
 275:C:/Users/stapi/OneDrive/Desktop/GD32VW553/GD32VW55X_Wifi_BLE_SDK/GD32VW55x_RELEASE_V1.0.2/MSDK/ble/app\app_conn_mgr.c ****     ble_conn_enable_central_feat(conn_idx);
 276:C:/Users/stapi/OneDrive/Desktop/GD32VW553/GD32VW55X_Wifi_BLE_SDK/GD32VW55x_RELEASE_V1.0.2/MSDK/ble/app\app_conn_mgr.c ****     app_conn_fast_param_disable(conn_idx);
 277:C:/Users/stapi/OneDrive/Desktop/GD32VW553/GD32VW55X_Wifi_BLE_SDK/GD32VW55x_RELEASE_V1.0.2/MSDK/ble/app\app_conn_mgr.c **** }
 278:C:/Users/stapi/OneDrive/Desktop/GD32VW553/GD32VW55X_Wifi_BLE_SDK/GD32VW55x_RELEASE_V1.0.2/MSDK/ble/app\app_conn_mgr.c **** 
 279:C:/Users/stapi/OneDrive/Desktop/GD32VW553/GD32VW55X_Wifi_BLE_SDK/GD32VW55x_RELEASE_V1.0.2/MSDK/ble/app\app_conn_mgr.c **** /*!
 280:C:/Users/stapi/OneDrive/Desktop/GD32VW553/GD32VW55X_Wifi_BLE_SDK/GD32VW55x_RELEASE_V1.0.2/MSDK/ble/app\app_conn_mgr.c ****     \brief      Callback function to handle BLE connection event
 281:C:/Users/stapi/OneDrive/Desktop/GD32VW553/GD32VW55X_Wifi_BLE_SDK/GD32VW55x_RELEASE_V1.0.2/MSDK/ble/app\app_conn_mgr.c ****     \param[in]  event: BLE connection event type
 282:C:/Users/stapi/OneDrive/Desktop/GD32VW553/GD32VW55X_Wifi_BLE_SDK/GD32VW55x_RELEASE_V1.0.2/MSDK/ble/app\app_conn_mgr.c ****     \param[in]  p_data: pointer to BLE connection event data
 283:C:/Users/stapi/OneDrive/Desktop/GD32VW553/GD32VW55X_Wifi_BLE_SDK/GD32VW55x_RELEASE_V1.0.2/MSDK/ble/app\app_conn_mgr.c ****     \param[out] none
 284:C:/Users/stapi/OneDrive/Desktop/GD32VW553/GD32VW55X_Wifi_BLE_SDK/GD32VW55x_RELEASE_V1.0.2/MSDK/ble/app\app_conn_mgr.c ****     \retval     none
 285:C:/Users/stapi/OneDrive/Desktop/GD32VW553/GD32VW55X_Wifi_BLE_SDK/GD32VW55x_RELEASE_V1.0.2/MSDK/ble/app\app_conn_mgr.c **** */
 286:C:/Users/stapi/OneDrive/Desktop/GD32VW553/GD32VW55X_Wifi_BLE_SDK/GD32VW55x_RELEASE_V1.0.2/MSDK/ble/app\app_conn_mgr.c **** static void ble_app_conn_evt_handler(ble_conn_evt_t event, ble_conn_data_u *p_data)
 287:C:/Users/stapi/OneDrive/Desktop/GD32VW553/GD32VW55X_Wifi_BLE_SDK/GD32VW55x_RELEASE_V1.0.2/MSDK/ble/app\app_conn_mgr.c **** {
 353              		.loc 1 287 1 is_stmt 1
 354              		.cfi_startproc
 355              	.LVL17:
 288:C:/Users/stapi/OneDrive/Desktop/GD32VW553/GD32VW55X_Wifi_BLE_SDK/GD32VW55x_RELEASE_V1.0.2/MSDK/ble/app\app_conn_mgr.c ****     ble_device_t *p_device;
 356              		.loc 1 288 5
 289:C:/Users/stapi/OneDrive/Desktop/GD32VW553/GD32VW55X_Wifi_BLE_SDK/GD32VW55x_RELEASE_V1.0.2/MSDK/ble/app\app_conn_mgr.c **** 
 290:C:/Users/stapi/OneDrive/Desktop/GD32VW553/GD32VW55X_Wifi_BLE_SDK/GD32VW55x_RELEASE_V1.0.2/MSDK/ble/app\app_conn_mgr.c ****     switch (event) {
 357              		.loc 1 290 5
 358 0000 93074002 		li	a5,36
 359 0004 E3EFA726 		bgtu	a0,a5,.L137
 287:C:/Users/stapi/OneDrive/Desktop/GD32VW553/GD32VW55X_Wifi_BLE_SDK/GD32VW55x_RELEASE_V1.0.2/MSDK/ble/app\app_conn_mgr.c ****     ble_device_t *p_device;
 360              		.loc 1 287 1 is_stmt 0
 361 0008 17030000 		call	t0,__riscv_save_5
 361      E7020300 
 362              		.cfi_offset 20, -24
 363              		.cfi_offset 19, -20
 364              		.cfi_offset 18, -16
 365              		.cfi_offset 9, -12
 366              		.cfi_offset 8, -8
 367              		.cfi_offset 1, -4
 368              		.cfi_def_cfa_offset 32
 369 0010 B7070000 		lui	a5,%hi(.L26)
 370 0014 93870700 		addi	a5,a5,%lo(.L26)
 371 0018 3345F520 		sh2add	a0,a0,a5
 372              	.LVL18:
 373 001c 1C41     		lw	a5,0(a0)
 374 001e 7571     		addi	sp,sp,-144
 375              		.cfi_def_cfa_offset 176
 376 0020 2E84     		mv	s0,a1
 377 0022 8287     		jr	a5
 378              		.section	.rodata.ble_app_conn_evt_handler,"a",@progbits
 379              		.align	2
 380              		.align	2
 381              	.L26:
 382 0000 00000000 		.word	.L62
 383 0004 00000000 		.word	.L61
 384 0008 00000000 		.word	.L60
 385 000c 00000000 		.word	.L59
 386 0010 00000000 		.word	.L58
 387 0014 00000000 		.word	.L57
 388 0018 00000000 		.word	.L56
 389 001c 00000000 		.word	.L55
 390 0020 00000000 		.word	.L54
 391 0024 00000000 		.word	.L53
 392 0028 00000000 		.word	.L52
 393 002c 00000000 		.word	.L51
 394 0030 00000000 		.word	.L50
 395 0034 00000000 		.word	.L49
 396 0038 00000000 		.word	.L48
 397 003c 00000000 		.word	.L47
 398 0040 00000000 		.word	.L46
 399 0044 00000000 		.word	.L45
 400 0048 00000000 		.word	.L44
 401 004c 00000000 		.word	.L43
 402 0050 00000000 		.word	.L42
 403 0054 00000000 		.word	.L41
 404 0058 00000000 		.word	.L40
 405 005c 00000000 		.word	.L39
 406 0060 00000000 		.word	.L38
 407 0064 00000000 		.word	.L37
 408 0068 00000000 		.word	.L36
 409 006c 00000000 		.word	.L35
 410 0070 00000000 		.word	.L34
 411 0074 00000000 		.word	.L33
 412 0078 00000000 		.word	.L32
 413 007c 00000000 		.word	.L31
 414 0080 00000000 		.word	.L30
 415 0084 00000000 		.word	.L29
 416 0088 00000000 		.word	.L28
 417 008c 00000000 		.word	.L27
 418 0090 00000000 		.word	.L25
 419              		.section	.text.ble_app_conn_evt_handler
 420              	.L62:
 291:C:/Users/stapi/OneDrive/Desktop/GD32VW553/GD32VW55X_Wifi_BLE_SDK/GD32VW55x_RELEASE_V1.0.2/MSDK/ble/app\app_conn_mgr.c ****     case BLE_CONN_EVT_INIT_STATE_CHG: {
 292:C:/Users/stapi/OneDrive/Desktop/GD32VW553/GD32VW55X_Wifi_BLE_SDK/GD32VW55x_RELEASE_V1.0.2/MSDK/ble/app\app_conn_mgr.c ****         if (p_data->init_state.state == BLE_INIT_STATE_IDLE) {
 421              		.loc 1 292 9 is_stmt 1
 422              		.loc 1 292 31 is_stmt 0
 423 0024 DC41     		lw	a5,4(a1)
 424              		.loc 1 292 12
 425 0026 9DE7     		bne	a5,zero,.L63
 293:C:/Users/stapi/OneDrive/Desktop/GD32VW553/GD32VW55X_Wifi_BLE_SDK/GD32VW55x_RELEASE_V1.0.2/MSDK/ble/app\app_conn_mgr.c ****             dbg_print(NOTICE, "===> init conn idle idx %u, wl_used %d reason 0x%x\r\n",
 426              		.loc 1 293 13 is_stmt 1
 427              		.loc 1 293 13
 428 0028 B7070000 		lui	a5,%hi(global_debug_level)
 429 002c 03C70700 		lbu	a4,%lo(global_debug_level)(a5)
 430 0030 8947     		li	a5,2
 431 0032 63F7E710 		bleu	a4,a5,.L23
 432              		.loc 1 293 13 discriminator 1
 433 0036 83D68500 		lhu	a3,8(a1)
 434 003a 03C61500 		lbu	a2,1(a1)
 435 003e 83C50500 		lbu	a1,0(a1)
 436              	.LVL19:
 437 0042 37050000 		lui	a0,%hi(.LC1)
 438 0046 13050500 		addi	a0,a0,%lo(.LC1)
 439              	.L141:
 294:C:/Users/stapi/OneDrive/Desktop/GD32VW553/GD32VW55X_Wifi_BLE_SDK/GD32VW55x_RELEASE_V1.0.2/MSDK/ble/app\app_conn_mgr.c ****                       p_data->init_state.init_idx, p_data->init_state.wl_used, p_data->init_state.r
 295:C:/Users/stapi/OneDrive/Desktop/GD32VW553/GD32VW55X_Wifi_BLE_SDK/GD32VW55x_RELEASE_V1.0.2/MSDK/ble/app\app_conn_mgr.c ****         } else if (p_data->init_state.state == BLE_INIT_STATE_STARTING) {
 296:C:/Users/stapi/OneDrive/Desktop/GD32VW553/GD32VW55X_Wifi_BLE_SDK/GD32VW55x_RELEASE_V1.0.2/MSDK/ble/app\app_conn_mgr.c ****             dbg_print(NOTICE, "===> init conn starting idx %u, wl_used %d\r\n",
 297:C:/Users/stapi/OneDrive/Desktop/GD32VW553/GD32VW55X_Wifi_BLE_SDK/GD32VW55x_RELEASE_V1.0.2/MSDK/ble/app\app_conn_mgr.c ****                       p_data->init_state.init_idx, p_data->init_state.wl_used);
 298:C:/Users/stapi/OneDrive/Desktop/GD32VW553/GD32VW55X_Wifi_BLE_SDK/GD32VW55x_RELEASE_V1.0.2/MSDK/ble/app\app_conn_mgr.c ****         } else if (p_data->init_state.state == BLE_INIT_STATE_STARTED) {
 299:C:/Users/stapi/OneDrive/Desktop/GD32VW553/GD32VW55X_Wifi_BLE_SDK/GD32VW55x_RELEASE_V1.0.2/MSDK/ble/app\app_conn_mgr.c ****             dbg_print(NOTICE, "===> init conn started idx %u, wl_used %d\r\n",
 300:C:/Users/stapi/OneDrive/Desktop/GD32VW553/GD32VW55X_Wifi_BLE_SDK/GD32VW55x_RELEASE_V1.0.2/MSDK/ble/app\app_conn_mgr.c ****                       p_data->init_state.init_idx, p_data->init_state.wl_used);
 301:C:/Users/stapi/OneDrive/Desktop/GD32VW553/GD32VW55X_Wifi_BLE_SDK/GD32VW55x_RELEASE_V1.0.2/MSDK/ble/app\app_conn_mgr.c ****         } else if (p_data->init_state.state == BLE_INIT_STATE_DISABLING) {
 302:C:/Users/stapi/OneDrive/Desktop/GD32VW553/GD32VW55X_Wifi_BLE_SDK/GD32VW55x_RELEASE_V1.0.2/MSDK/ble/app\app_conn_mgr.c ****             dbg_print(NOTICE, "===> init conn disabling idx %u, wl_used %d reason 0x%x\r\n",
 303:C:/Users/stapi/OneDrive/Desktop/GD32VW553/GD32VW55X_Wifi_BLE_SDK/GD32VW55x_RELEASE_V1.0.2/MSDK/ble/app\app_conn_mgr.c ****                       p_data->init_state.init_idx, p_data->init_state.wl_used, p_data->init_state.r
 304:C:/Users/stapi/OneDrive/Desktop/GD32VW553/GD32VW55X_Wifi_BLE_SDK/GD32VW55x_RELEASE_V1.0.2/MSDK/ble/app\app_conn_mgr.c ****             // Disabling state with reason is not BLE_ERR_NO_ERROR which means init connecting not 
 305:C:/Users/stapi/OneDrive/Desktop/GD32VW553/GD32VW55X_Wifi_BLE_SDK/GD32VW55x_RELEASE_V1.0.2/MSDK/ble/app\app_conn_mgr.c ****             // Needs to call ble_conn_connect_cancel again
 306:C:/Users/stapi/OneDrive/Desktop/GD32VW553/GD32VW55X_Wifi_BLE_SDK/GD32VW55x_RELEASE_V1.0.2/MSDK/ble/app\app_conn_mgr.c ****             if (p_data->init_state.reason != BLE_ERR_NO_ERROR) {
 307:C:/Users/stapi/OneDrive/Desktop/GD32VW553/GD32VW55X_Wifi_BLE_SDK/GD32VW55x_RELEASE_V1.0.2/MSDK/ble/app\app_conn_mgr.c ****                 if (ble_conn_connect_cancel() != BLE_ERR_NO_ERROR) {
 308:C:/Users/stapi/OneDrive/Desktop/GD32VW553/GD32VW55X_Wifi_BLE_SDK/GD32VW55x_RELEASE_V1.0.2/MSDK/ble/app\app_conn_mgr.c ****                     dbg_print(NOTICE, "===> init conn disabling idx %u, cancel connecting fail!\r\n
 309:C:/Users/stapi/OneDrive/Desktop/GD32VW553/GD32VW55X_Wifi_BLE_SDK/GD32VW55x_RELEASE_V1.0.2/MSDK/ble/app\app_conn_mgr.c ****                               p_data->init_state.init_idx);
 310:C:/Users/stapi/OneDrive/Desktop/GD32VW553/GD32VW55X_Wifi_BLE_SDK/GD32VW55x_RELEASE_V1.0.2/MSDK/ble/app\app_conn_mgr.c ****                 }
 311:C:/Users/stapi/OneDrive/Desktop/GD32VW553/GD32VW55X_Wifi_BLE_SDK/GD32VW55x_RELEASE_V1.0.2/MSDK/ble/app\app_conn_mgr.c ****             }
 312:C:/Users/stapi/OneDrive/Desktop/GD32VW553/GD32VW55X_Wifi_BLE_SDK/GD32VW55x_RELEASE_V1.0.2/MSDK/ble/app\app_conn_mgr.c ****         }
 313:C:/Users/stapi/OneDrive/Desktop/GD32VW553/GD32VW55X_Wifi_BLE_SDK/GD32VW55x_RELEASE_V1.0.2/MSDK/ble/app\app_conn_mgr.c ****     }
 314:C:/Users/stapi/OneDrive/Desktop/GD32VW553/GD32VW55X_Wifi_BLE_SDK/GD32VW55x_RELEASE_V1.0.2/MSDK/ble/app\app_conn_mgr.c ****     break;
 315:C:/Users/stapi/OneDrive/Desktop/GD32VW553/GD32VW55X_Wifi_BLE_SDK/GD32VW55x_RELEASE_V1.0.2/MSDK/ble/app\app_conn_mgr.c **** 
 316:C:/Users/stapi/OneDrive/Desktop/GD32VW553/GD32VW55X_Wifi_BLE_SDK/GD32VW55x_RELEASE_V1.0.2/MSDK/ble/app\app_conn_mgr.c ****     case BLE_CONN_EVT_STATE_CHG: {
 317:C:/Users/stapi/OneDrive/Desktop/GD32VW553/GD32VW55X_Wifi_BLE_SDK/GD32VW55x_RELEASE_V1.0.2/MSDK/ble/app\app_conn_mgr.c ****         if (p_data->conn_state.state == BLE_CONN_STATE_DISCONNECTD) {
 318:C:/Users/stapi/OneDrive/Desktop/GD32VW553/GD32VW55X_Wifi_BLE_SDK/GD32VW55x_RELEASE_V1.0.2/MSDK/ble/app\app_conn_mgr.c ****             dbg_print(NOTICE, "disconnected. conn idx: %u, conn_hdl: 0x%x reason 0x%x\r\n",
 319:C:/Users/stapi/OneDrive/Desktop/GD32VW553/GD32VW55X_Wifi_BLE_SDK/GD32VW55x_RELEASE_V1.0.2/MSDK/ble/app\app_conn_mgr.c ****                       p_data->conn_state.info.discon_info.conn_idx, p_data->conn_state.info.discon_
 320:C:/Users/stapi/OneDrive/Desktop/GD32VW553/GD32VW55X_Wifi_BLE_SDK/GD32VW55x_RELEASE_V1.0.2/MSDK/ble/app\app_conn_mgr.c ****                       p_data->conn_state.info.discon_info.reason);
 321:C:/Users/stapi/OneDrive/Desktop/GD32VW553/GD32VW55X_Wifi_BLE_SDK/GD32VW55x_RELEASE_V1.0.2/MSDK/ble/app\app_conn_mgr.c ****             dm_handle_dev_disconnected(p_data->conn_state.info.discon_info.conn_idx);
 322:C:/Users/stapi/OneDrive/Desktop/GD32VW553/GD32VW55X_Wifi_BLE_SDK/GD32VW55x_RELEASE_V1.0.2/MSDK/ble/app\app_conn_mgr.c ****         } else if (p_data->conn_state.state == BLE_CONN_STATE_CONNECTED) {
 323:C:/Users/stapi/OneDrive/Desktop/GD32VW553/GD32VW55X_Wifi_BLE_SDK/GD32VW55x_RELEASE_V1.0.2/MSDK/ble/app\app_conn_mgr.c ****             app_conn_mgr_handle_connected(p_data);
 324:C:/Users/stapi/OneDrive/Desktop/GD32VW553/GD32VW55X_Wifi_BLE_SDK/GD32VW55x_RELEASE_V1.0.2/MSDK/ble/app\app_conn_mgr.c **** 
 325:C:/Users/stapi/OneDrive/Desktop/GD32VW553/GD32VW55X_Wifi_BLE_SDK/GD32VW55x_RELEASE_V1.0.2/MSDK/ble/app\app_conn_mgr.c **** #if (BLE_APP_GATT_CLIENT_SUPPORT)
 326:C:/Users/stapi/OneDrive/Desktop/GD32VW553/GD32VW55X_Wifi_BLE_SDK/GD32VW55x_RELEASE_V1.0.2/MSDK/ble/app\app_conn_mgr.c ****             if (p_data->conn_state.info.conn_info.role == BLE_MASTER) {
 327:C:/Users/stapi/OneDrive/Desktop/GD32VW553/GD32VW55X_Wifi_BLE_SDK/GD32VW55x_RELEASE_V1.0.2/MSDK/ble/app\app_conn_mgr.c ****                 app_conn_fast_param_enable(p_data->conn_state.info.conn_info.conn_idx);
 328:C:/Users/stapi/OneDrive/Desktop/GD32VW553/GD32VW55X_Wifi_BLE_SDK/GD32VW55x_RELEASE_V1.0.2/MSDK/ble/app\app_conn_mgr.c ****                 ble_gattc_start_discovery(p_data->conn_state.info.conn_info.conn_idx,
 329:C:/Users/stapi/OneDrive/Desktop/GD32VW553/GD32VW55X_Wifi_BLE_SDK/GD32VW55x_RELEASE_V1.0.2/MSDK/ble/app\app_conn_mgr.c ****                                           ble_app_conn_gatt_discovery_callback);
 330:C:/Users/stapi/OneDrive/Desktop/GD32VW553/GD32VW55X_Wifi_BLE_SDK/GD32VW55x_RELEASE_V1.0.2/MSDK/ble/app\app_conn_mgr.c ****             }
 331:C:/Users/stapi/OneDrive/Desktop/GD32VW553/GD32VW55X_Wifi_BLE_SDK/GD32VW55x_RELEASE_V1.0.2/MSDK/ble/app\app_conn_mgr.c **** #endif
 332:C:/Users/stapi/OneDrive/Desktop/GD32VW553/GD32VW55X_Wifi_BLE_SDK/GD32VW55x_RELEASE_V1.0.2/MSDK/ble/app\app_conn_mgr.c ****         }
 333:C:/Users/stapi/OneDrive/Desktop/GD32VW553/GD32VW55X_Wifi_BLE_SDK/GD32VW55x_RELEASE_V1.0.2/MSDK/ble/app\app_conn_mgr.c ****     }
 334:C:/Users/stapi/OneDrive/Desktop/GD32VW553/GD32VW55X_Wifi_BLE_SDK/GD32VW55x_RELEASE_V1.0.2/MSDK/ble/app\app_conn_mgr.c ****     break;
 335:C:/Users/stapi/OneDrive/Desktop/GD32VW553/GD32VW55X_Wifi_BLE_SDK/GD32VW55x_RELEASE_V1.0.2/MSDK/ble/app\app_conn_mgr.c **** 
 336:C:/Users/stapi/OneDrive/Desktop/GD32VW553/GD32VW55X_Wifi_BLE_SDK/GD32VW55x_RELEASE_V1.0.2/MSDK/ble/app\app_conn_mgr.c ****     case BLE_CONN_EVT_DISCONN_FAIL: {
 337:C:/Users/stapi/OneDrive/Desktop/GD32VW553/GD32VW55X_Wifi_BLE_SDK/GD32VW55x_RELEASE_V1.0.2/MSDK/ble/app\app_conn_mgr.c ****         ble_device_t *p_device;
 338:C:/Users/stapi/OneDrive/Desktop/GD32VW553/GD32VW55X_Wifi_BLE_SDK/GD32VW55x_RELEASE_V1.0.2/MSDK/ble/app\app_conn_mgr.c ****         dbg_print(NOTICE, "disconnect fail. conn idx %u, reason 0x%x\r\n",
 339:C:/Users/stapi/OneDrive/Desktop/GD32VW553/GD32VW55X_Wifi_BLE_SDK/GD32VW55x_RELEASE_V1.0.2/MSDK/ble/app\app_conn_mgr.c ****                   p_data->disconn_fail.conn_idx, p_data->disconn_fail.reason);
 340:C:/Users/stapi/OneDrive/Desktop/GD32VW553/GD32VW55X_Wifi_BLE_SDK/GD32VW55x_RELEASE_V1.0.2/MSDK/ble/app\app_conn_mgr.c ****         p_device = dm_find_dev_by_conidx(p_data->disconn_fail.conn_idx);
 341:C:/Users/stapi/OneDrive/Desktop/GD32VW553/GD32VW55X_Wifi_BLE_SDK/GD32VW55x_RELEASE_V1.0.2/MSDK/ble/app\app_conn_mgr.c ****         if (p_device != NULL) {
 342:C:/Users/stapi/OneDrive/Desktop/GD32VW553/GD32VW55X_Wifi_BLE_SDK/GD32VW55x_RELEASE_V1.0.2/MSDK/ble/app\app_conn_mgr.c ****             p_device->state = BLE_CONN_STATE_CONNECTED;
 343:C:/Users/stapi/OneDrive/Desktop/GD32VW553/GD32VW55X_Wifi_BLE_SDK/GD32VW55x_RELEASE_V1.0.2/MSDK/ble/app\app_conn_mgr.c ****         }
 344:C:/Users/stapi/OneDrive/Desktop/GD32VW553/GD32VW55X_Wifi_BLE_SDK/GD32VW55x_RELEASE_V1.0.2/MSDK/ble/app\app_conn_mgr.c ****     }
 345:C:/Users/stapi/OneDrive/Desktop/GD32VW553/GD32VW55X_Wifi_BLE_SDK/GD32VW55x_RELEASE_V1.0.2/MSDK/ble/app\app_conn_mgr.c ****     break;
 346:C:/Users/stapi/OneDrive/Desktop/GD32VW553/GD32VW55X_Wifi_BLE_SDK/GD32VW55x_RELEASE_V1.0.2/MSDK/ble/app\app_conn_mgr.c **** 
 347:C:/Users/stapi/OneDrive/Desktop/GD32VW553/GD32VW55X_Wifi_BLE_SDK/GD32VW55x_RELEASE_V1.0.2/MSDK/ble/app\app_conn_mgr.c ****     case BLE_CONN_EVT_PEER_NAME_GET_RSP: {
 348:C:/Users/stapi/OneDrive/Desktop/GD32VW553/GD32VW55X_Wifi_BLE_SDK/GD32VW55x_RELEASE_V1.0.2/MSDK/ble/app\app_conn_mgr.c ****         if (p_data->peer_name.status == BLE_ERR_NO_ERROR) {
 349:C:/Users/stapi/OneDrive/Desktop/GD32VW553/GD32VW55X_Wifi_BLE_SDK/GD32VW55x_RELEASE_V1.0.2/MSDK/ble/app\app_conn_mgr.c ****             dbg_print(NOTICE, "conn idx: %u, peer name: %s\r\n",
 350:C:/Users/stapi/OneDrive/Desktop/GD32VW553/GD32VW55X_Wifi_BLE_SDK/GD32VW55x_RELEASE_V1.0.2/MSDK/ble/app\app_conn_mgr.c ****                       p_data->peer_name.conn_idx, p_data->peer_name.p_name);
 351:C:/Users/stapi/OneDrive/Desktop/GD32VW553/GD32VW55X_Wifi_BLE_SDK/GD32VW55x_RELEASE_V1.0.2/MSDK/ble/app\app_conn_mgr.c ****         }
 352:C:/Users/stapi/OneDrive/Desktop/GD32VW553/GD32VW55X_Wifi_BLE_SDK/GD32VW55x_RELEASE_V1.0.2/MSDK/ble/app\app_conn_mgr.c ****     }
 353:C:/Users/stapi/OneDrive/Desktop/GD32VW553/GD32VW55X_Wifi_BLE_SDK/GD32VW55x_RELEASE_V1.0.2/MSDK/ble/app\app_conn_mgr.c ****     break;
 354:C:/Users/stapi/OneDrive/Desktop/GD32VW553/GD32VW55X_Wifi_BLE_SDK/GD32VW55x_RELEASE_V1.0.2/MSDK/ble/app\app_conn_mgr.c **** 
 355:C:/Users/stapi/OneDrive/Desktop/GD32VW553/GD32VW55X_Wifi_BLE_SDK/GD32VW55x_RELEASE_V1.0.2/MSDK/ble/app\app_conn_mgr.c ****     case BLE_CONN_EVT_PEER_VERSION_GET_RSP: {
 356:C:/Users/stapi/OneDrive/Desktop/GD32VW553/GD32VW55X_Wifi_BLE_SDK/GD32VW55x_RELEASE_V1.0.2/MSDK/ble/app\app_conn_mgr.c ****         if (p_data->peer_version.status == BLE_ERR_NO_ERROR) {
 357:C:/Users/stapi/OneDrive/Desktop/GD32VW553/GD32VW55X_Wifi_BLE_SDK/GD32VW55x_RELEASE_V1.0.2/MSDK/ble/app\app_conn_mgr.c ****             dbg_print(NOTICE, "conn idx: %u, peer version: 0x%x, subversion: 0x%x, comp id 0x%x\r\n
 358:C:/Users/stapi/OneDrive/Desktop/GD32VW553/GD32VW55X_Wifi_BLE_SDK/GD32VW55x_RELEASE_V1.0.2/MSDK/ble/app\app_conn_mgr.c ****                       p_data->peer_version.conn_idx,
 359:C:/Users/stapi/OneDrive/Desktop/GD32VW553/GD32VW55X_Wifi_BLE_SDK/GD32VW55x_RELEASE_V1.0.2/MSDK/ble/app\app_conn_mgr.c ****                       p_data->peer_version.lmp_version, p_data->peer_version.lmp_subversion,
 360:C:/Users/stapi/OneDrive/Desktop/GD32VW553/GD32VW55X_Wifi_BLE_SDK/GD32VW55x_RELEASE_V1.0.2/MSDK/ble/app\app_conn_mgr.c ****                       p_data->peer_version.company_id);
 361:C:/Users/stapi/OneDrive/Desktop/GD32VW553/GD32VW55X_Wifi_BLE_SDK/GD32VW55x_RELEASE_V1.0.2/MSDK/ble/app\app_conn_mgr.c ****         }
 362:C:/Users/stapi/OneDrive/Desktop/GD32VW553/GD32VW55X_Wifi_BLE_SDK/GD32VW55x_RELEASE_V1.0.2/MSDK/ble/app\app_conn_mgr.c ****     }
 363:C:/Users/stapi/OneDrive/Desktop/GD32VW553/GD32VW55X_Wifi_BLE_SDK/GD32VW55x_RELEASE_V1.0.2/MSDK/ble/app\app_conn_mgr.c ****     break;
 364:C:/Users/stapi/OneDrive/Desktop/GD32VW553/GD32VW55X_Wifi_BLE_SDK/GD32VW55x_RELEASE_V1.0.2/MSDK/ble/app\app_conn_mgr.c **** 
 365:C:/Users/stapi/OneDrive/Desktop/GD32VW553/GD32VW55X_Wifi_BLE_SDK/GD32VW55x_RELEASE_V1.0.2/MSDK/ble/app\app_conn_mgr.c ****     case BLE_CONN_EVT_PEER_FEATS_GET_RSP: {
 366:C:/Users/stapi/OneDrive/Desktop/GD32VW553/GD32VW55X_Wifi_BLE_SDK/GD32VW55x_RELEASE_V1.0.2/MSDK/ble/app\app_conn_mgr.c ****         if (p_data->peer_features.status == BLE_ERR_NO_ERROR) {
 367:C:/Users/stapi/OneDrive/Desktop/GD32VW553/GD32VW55X_Wifi_BLE_SDK/GD32VW55x_RELEASE_V1.0.2/MSDK/ble/app\app_conn_mgr.c ****             dbg_print(NOTICE, "conn idx: %u, peer feature: 0x%02x%02x%02x%02x%02x%02x%02x%02x\r\n",
 368:C:/Users/stapi/OneDrive/Desktop/GD32VW553/GD32VW55X_Wifi_BLE_SDK/GD32VW55x_RELEASE_V1.0.2/MSDK/ble/app\app_conn_mgr.c ****                       p_data->peer_features.conn_idx,
 369:C:/Users/stapi/OneDrive/Desktop/GD32VW553/GD32VW55X_Wifi_BLE_SDK/GD32VW55x_RELEASE_V1.0.2/MSDK/ble/app\app_conn_mgr.c ****                       p_data->peer_features.features[7], p_data->peer_features.features[6],
 370:C:/Users/stapi/OneDrive/Desktop/GD32VW553/GD32VW55X_Wifi_BLE_SDK/GD32VW55x_RELEASE_V1.0.2/MSDK/ble/app\app_conn_mgr.c ****                       p_data->peer_features.features[5], p_data->peer_features.features[4],
 371:C:/Users/stapi/OneDrive/Desktop/GD32VW553/GD32VW55X_Wifi_BLE_SDK/GD32VW55x_RELEASE_V1.0.2/MSDK/ble/app\app_conn_mgr.c ****                       p_data->peer_features.features[3], p_data->peer_features.features[2],
 372:C:/Users/stapi/OneDrive/Desktop/GD32VW553/GD32VW55X_Wifi_BLE_SDK/GD32VW55x_RELEASE_V1.0.2/MSDK/ble/app\app_conn_mgr.c ****                       p_data->peer_features.features[1], p_data->peer_features.features[0]);
 373:C:/Users/stapi/OneDrive/Desktop/GD32VW553/GD32VW55X_Wifi_BLE_SDK/GD32VW55x_RELEASE_V1.0.2/MSDK/ble/app\app_conn_mgr.c ****         }
 374:C:/Users/stapi/OneDrive/Desktop/GD32VW553/GD32VW55X_Wifi_BLE_SDK/GD32VW55x_RELEASE_V1.0.2/MSDK/ble/app\app_conn_mgr.c ****     }
 375:C:/Users/stapi/OneDrive/Desktop/GD32VW553/GD32VW55X_Wifi_BLE_SDK/GD32VW55x_RELEASE_V1.0.2/MSDK/ble/app\app_conn_mgr.c ****     break;
 376:C:/Users/stapi/OneDrive/Desktop/GD32VW553/GD32VW55X_Wifi_BLE_SDK/GD32VW55x_RELEASE_V1.0.2/MSDK/ble/app\app_conn_mgr.c **** 
 377:C:/Users/stapi/OneDrive/Desktop/GD32VW553/GD32VW55X_Wifi_BLE_SDK/GD32VW55x_RELEASE_V1.0.2/MSDK/ble/app\app_conn_mgr.c ****     case BLE_CONN_EVT_PEER_APPEARANCE_GET_RSP: {
 378:C:/Users/stapi/OneDrive/Desktop/GD32VW553/GD32VW55X_Wifi_BLE_SDK/GD32VW55x_RELEASE_V1.0.2/MSDK/ble/app\app_conn_mgr.c ****         if (p_data->peer_appearance.status == BLE_ERR_NO_ERROR) {
 379:C:/Users/stapi/OneDrive/Desktop/GD32VW553/GD32VW55X_Wifi_BLE_SDK/GD32VW55x_RELEASE_V1.0.2/MSDK/ble/app\app_conn_mgr.c ****             dbg_print(NOTICE, "conn idx: %u, peer appearance: 0x%x\r\n", p_data->peer_appearance.co
 380:C:/Users/stapi/OneDrive/Desktop/GD32VW553/GD32VW55X_Wifi_BLE_SDK/GD32VW55x_RELEASE_V1.0.2/MSDK/ble/app\app_conn_mgr.c ****                       p_data->peer_appearance.appearance);
 381:C:/Users/stapi/OneDrive/Desktop/GD32VW553/GD32VW55X_Wifi_BLE_SDK/GD32VW55x_RELEASE_V1.0.2/MSDK/ble/app\app_conn_mgr.c ****         }
 382:C:/Users/stapi/OneDrive/Desktop/GD32VW553/GD32VW55X_Wifi_BLE_SDK/GD32VW55x_RELEASE_V1.0.2/MSDK/ble/app\app_conn_mgr.c ****     }
 383:C:/Users/stapi/OneDrive/Desktop/GD32VW553/GD32VW55X_Wifi_BLE_SDK/GD32VW55x_RELEASE_V1.0.2/MSDK/ble/app\app_conn_mgr.c ****     break;
 384:C:/Users/stapi/OneDrive/Desktop/GD32VW553/GD32VW55X_Wifi_BLE_SDK/GD32VW55x_RELEASE_V1.0.2/MSDK/ble/app\app_conn_mgr.c **** 
 385:C:/Users/stapi/OneDrive/Desktop/GD32VW553/GD32VW55X_Wifi_BLE_SDK/GD32VW55x_RELEASE_V1.0.2/MSDK/ble/app\app_conn_mgr.c ****     case BLE_CONN_EVT_PEER_SLV_PRF_PARAM_GET_RSP: {
 386:C:/Users/stapi/OneDrive/Desktop/GD32VW553/GD32VW55X_Wifi_BLE_SDK/GD32VW55x_RELEASE_V1.0.2/MSDK/ble/app\app_conn_mgr.c ****         if (p_data->peer_slv_prf_param.status == BLE_ERR_NO_ERROR) {
 387:C:/Users/stapi/OneDrive/Desktop/GD32VW553/GD32VW55X_Wifi_BLE_SDK/GD32VW55x_RELEASE_V1.0.2/MSDK/ble/app\app_conn_mgr.c ****             dbg_print(NOTICE,
 388:C:/Users/stapi/OneDrive/Desktop/GD32VW553/GD32VW55X_Wifi_BLE_SDK/GD32VW55x_RELEASE_V1.0.2/MSDK/ble/app\app_conn_mgr.c ****                       "conn idx: %u, conn_intv_min: 0x%x, conn_intv_max: 0x%x, latency: %d, timeout
 389:C:/Users/stapi/OneDrive/Desktop/GD32VW553/GD32VW55X_Wifi_BLE_SDK/GD32VW55x_RELEASE_V1.0.2/MSDK/ble/app\app_conn_mgr.c ****                       p_data->peer_slv_prf_param.conn_idx,
 390:C:/Users/stapi/OneDrive/Desktop/GD32VW553/GD32VW55X_Wifi_BLE_SDK/GD32VW55x_RELEASE_V1.0.2/MSDK/ble/app\app_conn_mgr.c ****                       p_data->peer_slv_prf_param.conn_intv_min, p_data->peer_slv_prf_param.conn_int
 391:C:/Users/stapi/OneDrive/Desktop/GD32VW553/GD32VW55X_Wifi_BLE_SDK/GD32VW55x_RELEASE_V1.0.2/MSDK/ble/app\app_conn_mgr.c ****                       p_data->peer_slv_prf_param.latency,
 392:C:/Users/stapi/OneDrive/Desktop/GD32VW553/GD32VW55X_Wifi_BLE_SDK/GD32VW55x_RELEASE_V1.0.2/MSDK/ble/app\app_conn_mgr.c ****                       p_data->peer_slv_prf_param.conn_timeout);
 393:C:/Users/stapi/OneDrive/Desktop/GD32VW553/GD32VW55X_Wifi_BLE_SDK/GD32VW55x_RELEASE_V1.0.2/MSDK/ble/app\app_conn_mgr.c ****         }
 394:C:/Users/stapi/OneDrive/Desktop/GD32VW553/GD32VW55X_Wifi_BLE_SDK/GD32VW55x_RELEASE_V1.0.2/MSDK/ble/app\app_conn_mgr.c ****     }
 395:C:/Users/stapi/OneDrive/Desktop/GD32VW553/GD32VW55X_Wifi_BLE_SDK/GD32VW55x_RELEASE_V1.0.2/MSDK/ble/app\app_conn_mgr.c ****     break;
 396:C:/Users/stapi/OneDrive/Desktop/GD32VW553/GD32VW55X_Wifi_BLE_SDK/GD32VW55x_RELEASE_V1.0.2/MSDK/ble/app\app_conn_mgr.c **** 
 397:C:/Users/stapi/OneDrive/Desktop/GD32VW553/GD32VW55X_Wifi_BLE_SDK/GD32VW55x_RELEASE_V1.0.2/MSDK/ble/app\app_conn_mgr.c ****     case BLE_CONN_EVT_PEER_ADDR_RESLV_GET_RSP: {
 398:C:/Users/stapi/OneDrive/Desktop/GD32VW553/GD32VW55X_Wifi_BLE_SDK/GD32VW55x_RELEASE_V1.0.2/MSDK/ble/app\app_conn_mgr.c ****         if (p_data->peer_addr_reslv_sup.status == BLE_ERR_NO_ERROR) {
 399:C:/Users/stapi/OneDrive/Desktop/GD32VW553/GD32VW55X_Wifi_BLE_SDK/GD32VW55x_RELEASE_V1.0.2/MSDK/ble/app\app_conn_mgr.c ****             dbg_print(NOTICE, "conn idx: %u, central address resolution support %d\r\n",
 400:C:/Users/stapi/OneDrive/Desktop/GD32VW553/GD32VW55X_Wifi_BLE_SDK/GD32VW55x_RELEASE_V1.0.2/MSDK/ble/app\app_conn_mgr.c ****                       p_data->peer_addr_reslv_sup.conn_idx,
 401:C:/Users/stapi/OneDrive/Desktop/GD32VW553/GD32VW55X_Wifi_BLE_SDK/GD32VW55x_RELEASE_V1.0.2/MSDK/ble/app\app_conn_mgr.c ****                       p_data->peer_addr_reslv_sup.ctl_addr_resol);
 402:C:/Users/stapi/OneDrive/Desktop/GD32VW553/GD32VW55X_Wifi_BLE_SDK/GD32VW55x_RELEASE_V1.0.2/MSDK/ble/app\app_conn_mgr.c ****         }
 403:C:/Users/stapi/OneDrive/Desktop/GD32VW553/GD32VW55X_Wifi_BLE_SDK/GD32VW55x_RELEASE_V1.0.2/MSDK/ble/app\app_conn_mgr.c ****     }
 404:C:/Users/stapi/OneDrive/Desktop/GD32VW553/GD32VW55X_Wifi_BLE_SDK/GD32VW55x_RELEASE_V1.0.2/MSDK/ble/app\app_conn_mgr.c ****     break;
 405:C:/Users/stapi/OneDrive/Desktop/GD32VW553/GD32VW55X_Wifi_BLE_SDK/GD32VW55x_RELEASE_V1.0.2/MSDK/ble/app\app_conn_mgr.c **** 
 406:C:/Users/stapi/OneDrive/Desktop/GD32VW553/GD32VW55X_Wifi_BLE_SDK/GD32VW55x_RELEASE_V1.0.2/MSDK/ble/app\app_conn_mgr.c ****     case BLE_CONN_EVT_PEER_RPA_ONLY_GET_RSP: {
 407:C:/Users/stapi/OneDrive/Desktop/GD32VW553/GD32VW55X_Wifi_BLE_SDK/GD32VW55x_RELEASE_V1.0.2/MSDK/ble/app\app_conn_mgr.c ****         if (p_data->rpa_only.status == BLE_ERR_NO_ERROR) {
 408:C:/Users/stapi/OneDrive/Desktop/GD32VW553/GD32VW55X_Wifi_BLE_SDK/GD32VW55x_RELEASE_V1.0.2/MSDK/ble/app\app_conn_mgr.c ****             dbg_print(NOTICE, "conn idx: %u, central rpa only %d\r\n", p_data->rpa_only.conn_idx,
 409:C:/Users/stapi/OneDrive/Desktop/GD32VW553/GD32VW55X_Wifi_BLE_SDK/GD32VW55x_RELEASE_V1.0.2/MSDK/ble/app\app_conn_mgr.c ****                       p_data->rpa_only.rpa_only);
 410:C:/Users/stapi/OneDrive/Desktop/GD32VW553/GD32VW55X_Wifi_BLE_SDK/GD32VW55x_RELEASE_V1.0.2/MSDK/ble/app\app_conn_mgr.c ****         }
 411:C:/Users/stapi/OneDrive/Desktop/GD32VW553/GD32VW55X_Wifi_BLE_SDK/GD32VW55x_RELEASE_V1.0.2/MSDK/ble/app\app_conn_mgr.c ****     }
 412:C:/Users/stapi/OneDrive/Desktop/GD32VW553/GD32VW55X_Wifi_BLE_SDK/GD32VW55x_RELEASE_V1.0.2/MSDK/ble/app\app_conn_mgr.c ****     break;
 413:C:/Users/stapi/OneDrive/Desktop/GD32VW553/GD32VW55X_Wifi_BLE_SDK/GD32VW55x_RELEASE_V1.0.2/MSDK/ble/app\app_conn_mgr.c **** 
 414:C:/Users/stapi/OneDrive/Desktop/GD32VW553/GD32VW55X_Wifi_BLE_SDK/GD32VW55x_RELEASE_V1.0.2/MSDK/ble/app\app_conn_mgr.c ****     case BLE_CONN_EVT_PEER_DB_HASH_GET_RSP: {
 415:C:/Users/stapi/OneDrive/Desktop/GD32VW553/GD32VW55X_Wifi_BLE_SDK/GD32VW55x_RELEASE_V1.0.2/MSDK/ble/app\app_conn_mgr.c ****         if (p_data->db_hash.status == BLE_ERR_NO_ERROR) {
 416:C:/Users/stapi/OneDrive/Desktop/GD32VW553/GD32VW55X_Wifi_BLE_SDK/GD32VW55x_RELEASE_V1.0.2/MSDK/ble/app\app_conn_mgr.c ****             uint8_t i;
 417:C:/Users/stapi/OneDrive/Desktop/GD32VW553/GD32VW55X_Wifi_BLE_SDK/GD32VW55x_RELEASE_V1.0.2/MSDK/ble/app\app_conn_mgr.c ****             dbg_print(NOTICE, "conn idx: %u, db_hash\r\n", p_data->db_hash.conn_idx);
 418:C:/Users/stapi/OneDrive/Desktop/GD32VW553/GD32VW55X_Wifi_BLE_SDK/GD32VW55x_RELEASE_V1.0.2/MSDK/ble/app\app_conn_mgr.c ****             for (i = 0; i < 16; i++) {
 419:C:/Users/stapi/OneDrive/Desktop/GD32VW553/GD32VW55X_Wifi_BLE_SDK/GD32VW55x_RELEASE_V1.0.2/MSDK/ble/app\app_conn_mgr.c ****                 dbg_print(NOTICE, "%02x", p_data->db_hash.hash[i]);
 420:C:/Users/stapi/OneDrive/Desktop/GD32VW553/GD32VW55X_Wifi_BLE_SDK/GD32VW55x_RELEASE_V1.0.2/MSDK/ble/app\app_conn_mgr.c ****             }
 421:C:/Users/stapi/OneDrive/Desktop/GD32VW553/GD32VW55X_Wifi_BLE_SDK/GD32VW55x_RELEASE_V1.0.2/MSDK/ble/app\app_conn_mgr.c **** 
 422:C:/Users/stapi/OneDrive/Desktop/GD32VW553/GD32VW55X_Wifi_BLE_SDK/GD32VW55x_RELEASE_V1.0.2/MSDK/ble/app\app_conn_mgr.c ****             dbg_print(NOTICE, "\r\n");
 423:C:/Users/stapi/OneDrive/Desktop/GD32VW553/GD32VW55X_Wifi_BLE_SDK/GD32VW55x_RELEASE_V1.0.2/MSDK/ble/app\app_conn_mgr.c ****         }
 424:C:/Users/stapi/OneDrive/Desktop/GD32VW553/GD32VW55X_Wifi_BLE_SDK/GD32VW55x_RELEASE_V1.0.2/MSDK/ble/app\app_conn_mgr.c ****     }
 425:C:/Users/stapi/OneDrive/Desktop/GD32VW553/GD32VW55X_Wifi_BLE_SDK/GD32VW55x_RELEASE_V1.0.2/MSDK/ble/app\app_conn_mgr.c ****     break;
 426:C:/Users/stapi/OneDrive/Desktop/GD32VW553/GD32VW55X_Wifi_BLE_SDK/GD32VW55x_RELEASE_V1.0.2/MSDK/ble/app\app_conn_mgr.c **** 
 427:C:/Users/stapi/OneDrive/Desktop/GD32VW553/GD32VW55X_Wifi_BLE_SDK/GD32VW55x_RELEASE_V1.0.2/MSDK/ble/app\app_conn_mgr.c ****     case BLE_CONN_EVT_PING_TO_VAL_GET_RSP: {
 428:C:/Users/stapi/OneDrive/Desktop/GD32VW553/GD32VW55X_Wifi_BLE_SDK/GD32VW55x_RELEASE_V1.0.2/MSDK/ble/app\app_conn_mgr.c ****         if (p_data->ping_to_val.status == BLE_ERR_NO_ERROR) {
 429:C:/Users/stapi/OneDrive/Desktop/GD32VW553/GD32VW55X_Wifi_BLE_SDK/GD32VW55x_RELEASE_V1.0.2/MSDK/ble/app\app_conn_mgr.c ****             dbg_print(NOTICE, "conn idx %u ping timeout %d\r\n", p_data->ping_to_val.conn_idx,
 430:C:/Users/stapi/OneDrive/Desktop/GD32VW553/GD32VW55X_Wifi_BLE_SDK/GD32VW55x_RELEASE_V1.0.2/MSDK/ble/app\app_conn_mgr.c ****                       p_data->ping_to_val.ping_tout);
 431:C:/Users/stapi/OneDrive/Desktop/GD32VW553/GD32VW55X_Wifi_BLE_SDK/GD32VW55x_RELEASE_V1.0.2/MSDK/ble/app\app_conn_mgr.c ****         }
 432:C:/Users/stapi/OneDrive/Desktop/GD32VW553/GD32VW55X_Wifi_BLE_SDK/GD32VW55x_RELEASE_V1.0.2/MSDK/ble/app\app_conn_mgr.c ****     }
 433:C:/Users/stapi/OneDrive/Desktop/GD32VW553/GD32VW55X_Wifi_BLE_SDK/GD32VW55x_RELEASE_V1.0.2/MSDK/ble/app\app_conn_mgr.c ****     break;
 434:C:/Users/stapi/OneDrive/Desktop/GD32VW553/GD32VW55X_Wifi_BLE_SDK/GD32VW55x_RELEASE_V1.0.2/MSDK/ble/app\app_conn_mgr.c **** 
 435:C:/Users/stapi/OneDrive/Desktop/GD32VW553/GD32VW55X_Wifi_BLE_SDK/GD32VW55x_RELEASE_V1.0.2/MSDK/ble/app\app_conn_mgr.c ****     case BLE_CONN_EVT_PING_TO_INFO: {
 436:C:/Users/stapi/OneDrive/Desktop/GD32VW553/GD32VW55X_Wifi_BLE_SDK/GD32VW55x_RELEASE_V1.0.2/MSDK/ble/app\app_conn_mgr.c ****         dbg_print(NOTICE, "conn idx %u ping timeout\r\n", p_data->ping_timeout.conn_idx);
 437:C:/Users/stapi/OneDrive/Desktop/GD32VW553/GD32VW55X_Wifi_BLE_SDK/GD32VW55x_RELEASE_V1.0.2/MSDK/ble/app\app_conn_mgr.c ****     }
 438:C:/Users/stapi/OneDrive/Desktop/GD32VW553/GD32VW55X_Wifi_BLE_SDK/GD32VW55x_RELEASE_V1.0.2/MSDK/ble/app\app_conn_mgr.c ****     break;
 439:C:/Users/stapi/OneDrive/Desktop/GD32VW553/GD32VW55X_Wifi_BLE_SDK/GD32VW55x_RELEASE_V1.0.2/MSDK/ble/app\app_conn_mgr.c **** 
 440:C:/Users/stapi/OneDrive/Desktop/GD32VW553/GD32VW55X_Wifi_BLE_SDK/GD32VW55x_RELEASE_V1.0.2/MSDK/ble/app\app_conn_mgr.c ****     case BLE_CONN_EVT_PING_TO_SET_RSP: {
 441:C:/Users/stapi/OneDrive/Desktop/GD32VW553/GD32VW55X_Wifi_BLE_SDK/GD32VW55x_RELEASE_V1.0.2/MSDK/ble/app\app_conn_mgr.c ****         dbg_print(NOTICE, "conn idx %u ping timeout set status 0x%x\r\n", p_data->ping_to_set.conn_
 442:C:/Users/stapi/OneDrive/Desktop/GD32VW553/GD32VW55X_Wifi_BLE_SDK/GD32VW55x_RELEASE_V1.0.2/MSDK/ble/app\app_conn_mgr.c ****                   p_data->ping_to_set.status);
 443:C:/Users/stapi/OneDrive/Desktop/GD32VW553/GD32VW55X_Wifi_BLE_SDK/GD32VW55x_RELEASE_V1.0.2/MSDK/ble/app\app_conn_mgr.c ****     }
 444:C:/Users/stapi/OneDrive/Desktop/GD32VW553/GD32VW55X_Wifi_BLE_SDK/GD32VW55x_RELEASE_V1.0.2/MSDK/ble/app\app_conn_mgr.c ****     break;
 445:C:/Users/stapi/OneDrive/Desktop/GD32VW553/GD32VW55X_Wifi_BLE_SDK/GD32VW55x_RELEASE_V1.0.2/MSDK/ble/app\app_conn_mgr.c **** 
 446:C:/Users/stapi/OneDrive/Desktop/GD32VW553/GD32VW55X_Wifi_BLE_SDK/GD32VW55x_RELEASE_V1.0.2/MSDK/ble/app\app_conn_mgr.c ****     case BLE_CONN_EVT_RSSI_GET_RSP: {
 447:C:/Users/stapi/OneDrive/Desktop/GD32VW553/GD32VW55X_Wifi_BLE_SDK/GD32VW55x_RELEASE_V1.0.2/MSDK/ble/app\app_conn_mgr.c ****         dbg_print(NOTICE, "conn idx %u rssi: %d\r\n", p_data->rssi_ind.conn_idx, p_data->rssi_ind.r
 448:C:/Users/stapi/OneDrive/Desktop/GD32VW553/GD32VW55X_Wifi_BLE_SDK/GD32VW55x_RELEASE_V1.0.2/MSDK/ble/app\app_conn_mgr.c ****     }
 449:C:/Users/stapi/OneDrive/Desktop/GD32VW553/GD32VW55X_Wifi_BLE_SDK/GD32VW55x_RELEASE_V1.0.2/MSDK/ble/app\app_conn_mgr.c ****     break;
 450:C:/Users/stapi/OneDrive/Desktop/GD32VW553/GD32VW55X_Wifi_BLE_SDK/GD32VW55x_RELEASE_V1.0.2/MSDK/ble/app\app_conn_mgr.c **** 
 451:C:/Users/stapi/OneDrive/Desktop/GD32VW553/GD32VW55X_Wifi_BLE_SDK/GD32VW55x_RELEASE_V1.0.2/MSDK/ble/app\app_conn_mgr.c ****     case BLE_CONN_EVT_CHANN_MAP_GET_RSP: {
 452:C:/Users/stapi/OneDrive/Desktop/GD32VW553/GD32VW55X_Wifi_BLE_SDK/GD32VW55x_RELEASE_V1.0.2/MSDK/ble/app\app_conn_mgr.c ****         dbg_print(NOTICE, "channel map: 0x%02x%02x%02x%02x%02x\r\n", p_data->chnl_map_ind.chann_map
 453:C:/Users/stapi/OneDrive/Desktop/GD32VW553/GD32VW55X_Wifi_BLE_SDK/GD32VW55x_RELEASE_V1.0.2/MSDK/ble/app\app_conn_mgr.c ****                   p_data->chnl_map_ind.chann_map[3], p_data->chnl_map_ind.chann_map[2],
 454:C:/Users/stapi/OneDrive/Desktop/GD32VW553/GD32VW55X_Wifi_BLE_SDK/GD32VW55x_RELEASE_V1.0.2/MSDK/ble/app\app_conn_mgr.c ****                   p_data->chnl_map_ind.chann_map[1], p_data->chnl_map_ind.chann_map[0]);
 455:C:/Users/stapi/OneDrive/Desktop/GD32VW553/GD32VW55X_Wifi_BLE_SDK/GD32VW55x_RELEASE_V1.0.2/MSDK/ble/app\app_conn_mgr.c ****     }
 456:C:/Users/stapi/OneDrive/Desktop/GD32VW553/GD32VW55X_Wifi_BLE_SDK/GD32VW55x_RELEASE_V1.0.2/MSDK/ble/app\app_conn_mgr.c ****     break;
 457:C:/Users/stapi/OneDrive/Desktop/GD32VW553/GD32VW55X_Wifi_BLE_SDK/GD32VW55x_RELEASE_V1.0.2/MSDK/ble/app\app_conn_mgr.c **** 
 458:C:/Users/stapi/OneDrive/Desktop/GD32VW553/GD32VW55X_Wifi_BLE_SDK/GD32VW55x_RELEASE_V1.0.2/MSDK/ble/app\app_conn_mgr.c ****     case BLE_CONN_EVT_NAME_GET_IND: {
 459:C:/Users/stapi/OneDrive/Desktop/GD32VW553/GD32VW55X_Wifi_BLE_SDK/GD32VW55x_RELEASE_V1.0.2/MSDK/ble/app\app_conn_mgr.c ****         uint16_t cmpl_len;
 460:C:/Users/stapi/OneDrive/Desktop/GD32VW553/GD32VW55X_Wifi_BLE_SDK/GD32VW55x_RELEASE_V1.0.2/MSDK/ble/app\app_conn_mgr.c ****         uint8_t *p_name;
 461:C:/Users/stapi/OneDrive/Desktop/GD32VW553/GD32VW55X_Wifi_BLE_SDK/GD32VW55x_RELEASE_V1.0.2/MSDK/ble/app\app_conn_mgr.c ****         uint16_t name_len;
 462:C:/Users/stapi/OneDrive/Desktop/GD32VW553/GD32VW55X_Wifi_BLE_SDK/GD32VW55x_RELEASE_V1.0.2/MSDK/ble/app\app_conn_mgr.c **** 
 463:C:/Users/stapi/OneDrive/Desktop/GD32VW553/GD32VW55X_Wifi_BLE_SDK/GD32VW55x_RELEASE_V1.0.2/MSDK/ble/app\app_conn_mgr.c ****         cmpl_len = app_adp_get_name(&p_name);
 464:C:/Users/stapi/OneDrive/Desktop/GD32VW553/GD32VW55X_Wifi_BLE_SDK/GD32VW55x_RELEASE_V1.0.2/MSDK/ble/app\app_conn_mgr.c ****         p_name += p_data->name_get_ind.name_offset;
 465:C:/Users/stapi/OneDrive/Desktop/GD32VW553/GD32VW55X_Wifi_BLE_SDK/GD32VW55x_RELEASE_V1.0.2/MSDK/ble/app\app_conn_mgr.c ****         name_len = cmpl_len - p_data->name_get_ind.name_offset;
 466:C:/Users/stapi/OneDrive/Desktop/GD32VW553/GD32VW55X_Wifi_BLE_SDK/GD32VW55x_RELEASE_V1.0.2/MSDK/ble/app\app_conn_mgr.c ****         if (name_len > p_data->name_get_ind.max_name_length) {
 467:C:/Users/stapi/OneDrive/Desktop/GD32VW553/GD32VW55X_Wifi_BLE_SDK/GD32VW55x_RELEASE_V1.0.2/MSDK/ble/app\app_conn_mgr.c ****             name_len = p_data->name_get_ind.max_name_length;
 468:C:/Users/stapi/OneDrive/Desktop/GD32VW553/GD32VW55X_Wifi_BLE_SDK/GD32VW55x_RELEASE_V1.0.2/MSDK/ble/app\app_conn_mgr.c ****         }
 469:C:/Users/stapi/OneDrive/Desktop/GD32VW553/GD32VW55X_Wifi_BLE_SDK/GD32VW55x_RELEASE_V1.0.2/MSDK/ble/app\app_conn_mgr.c **** 
 470:C:/Users/stapi/OneDrive/Desktop/GD32VW553/GD32VW55X_Wifi_BLE_SDK/GD32VW55x_RELEASE_V1.0.2/MSDK/ble/app\app_conn_mgr.c ****         ble_conn_name_get_cfm(p_data->name_get_ind.conn_idx, 0, p_data->name_get_ind.token,
 471:C:/Users/stapi/OneDrive/Desktop/GD32VW553/GD32VW55X_Wifi_BLE_SDK/GD32VW55x_RELEASE_V1.0.2/MSDK/ble/app\app_conn_mgr.c ****                               cmpl_len, p_name, name_len);
 472:C:/Users/stapi/OneDrive/Desktop/GD32VW553/GD32VW55X_Wifi_BLE_SDK/GD32VW55x_RELEASE_V1.0.2/MSDK/ble/app\app_conn_mgr.c ****     }
 473:C:/Users/stapi/OneDrive/Desktop/GD32VW553/GD32VW55X_Wifi_BLE_SDK/GD32VW55x_RELEASE_V1.0.2/MSDK/ble/app\app_conn_mgr.c ****     break;
 474:C:/Users/stapi/OneDrive/Desktop/GD32VW553/GD32VW55X_Wifi_BLE_SDK/GD32VW55x_RELEASE_V1.0.2/MSDK/ble/app\app_conn_mgr.c **** 
 475:C:/Users/stapi/OneDrive/Desktop/GD32VW553/GD32VW55X_Wifi_BLE_SDK/GD32VW55x_RELEASE_V1.0.2/MSDK/ble/app\app_conn_mgr.c ****     case BLE_CONN_EVT_APPEARANCE_GET_IND: {
 476:C:/Users/stapi/OneDrive/Desktop/GD32VW553/GD32VW55X_Wifi_BLE_SDK/GD32VW55x_RELEASE_V1.0.2/MSDK/ble/app\app_conn_mgr.c ****         dbg_print(NOTICE, "conn idx %u appearance acquire \r\n", p_data->appearance_get_ind.conn_id
 477:C:/Users/stapi/OneDrive/Desktop/GD32VW553/GD32VW55X_Wifi_BLE_SDK/GD32VW55x_RELEASE_V1.0.2/MSDK/ble/app\app_conn_mgr.c **** 
 478:C:/Users/stapi/OneDrive/Desktop/GD32VW553/GD32VW55X_Wifi_BLE_SDK/GD32VW55x_RELEASE_V1.0.2/MSDK/ble/app\app_conn_mgr.c ****         ble_conn_appearance_get_cfm(p_data->appearance_get_ind.conn_idx, 0,
 479:C:/Users/stapi/OneDrive/Desktop/GD32VW553/GD32VW55X_Wifi_BLE_SDK/GD32VW55x_RELEASE_V1.0.2/MSDK/ble/app\app_conn_mgr.c ****                                     p_data->appearance_get_ind.token, dev_appearance);
 480:C:/Users/stapi/OneDrive/Desktop/GD32VW553/GD32VW55X_Wifi_BLE_SDK/GD32VW55x_RELEASE_V1.0.2/MSDK/ble/app\app_conn_mgr.c ****     }
 481:C:/Users/stapi/OneDrive/Desktop/GD32VW553/GD32VW55X_Wifi_BLE_SDK/GD32VW55x_RELEASE_V1.0.2/MSDK/ble/app\app_conn_mgr.c ****     break;
 482:C:/Users/stapi/OneDrive/Desktop/GD32VW553/GD32VW55X_Wifi_BLE_SDK/GD32VW55x_RELEASE_V1.0.2/MSDK/ble/app\app_conn_mgr.c **** 
 483:C:/Users/stapi/OneDrive/Desktop/GD32VW553/GD32VW55X_Wifi_BLE_SDK/GD32VW55x_RELEASE_V1.0.2/MSDK/ble/app\app_conn_mgr.c ****     case BLE_CONN_EVT_SLAVE_PREFER_PARAM_GET_IND: {
 484:C:/Users/stapi/OneDrive/Desktop/GD32VW553/GD32VW55X_Wifi_BLE_SDK/GD32VW55x_RELEASE_V1.0.2/MSDK/ble/app\app_conn_mgr.c ****         ble_gap_slave_prefer_param_t param;
 485:C:/Users/stapi/OneDrive/Desktop/GD32VW553/GD32VW55X_Wifi_BLE_SDK/GD32VW55x_RELEASE_V1.0.2/MSDK/ble/app\app_conn_mgr.c **** 
 486:C:/Users/stapi/OneDrive/Desktop/GD32VW553/GD32VW55X_Wifi_BLE_SDK/GD32VW55x_RELEASE_V1.0.2/MSDK/ble/app\app_conn_mgr.c ****         dbg_print(NOTICE, "conn idx %u slave prefer parameters acquire \r\n",
 487:C:/Users/stapi/OneDrive/Desktop/GD32VW553/GD32VW55X_Wifi_BLE_SDK/GD32VW55x_RELEASE_V1.0.2/MSDK/ble/app\app_conn_mgr.c ****                   p_data->slave_prefer_param_get_ind.conn_idx);
 488:C:/Users/stapi/OneDrive/Desktop/GD32VW553/GD32VW55X_Wifi_BLE_SDK/GD32VW55x_RELEASE_V1.0.2/MSDK/ble/app\app_conn_mgr.c **** 
 489:C:/Users/stapi/OneDrive/Desktop/GD32VW553/GD32VW55X_Wifi_BLE_SDK/GD32VW55x_RELEASE_V1.0.2/MSDK/ble/app\app_conn_mgr.c ****         param.conn_intv_min = 8;
 490:C:/Users/stapi/OneDrive/Desktop/GD32VW553/GD32VW55X_Wifi_BLE_SDK/GD32VW55x_RELEASE_V1.0.2/MSDK/ble/app\app_conn_mgr.c ****         param.conn_intv_max = 10;
 491:C:/Users/stapi/OneDrive/Desktop/GD32VW553/GD32VW55X_Wifi_BLE_SDK/GD32VW55x_RELEASE_V1.0.2/MSDK/ble/app\app_conn_mgr.c ****         param.latency = 0;
 492:C:/Users/stapi/OneDrive/Desktop/GD32VW553/GD32VW55X_Wifi_BLE_SDK/GD32VW55x_RELEASE_V1.0.2/MSDK/ble/app\app_conn_mgr.c ****         param.conn_tout = 200;  //2s
 493:C:/Users/stapi/OneDrive/Desktop/GD32VW553/GD32VW55X_Wifi_BLE_SDK/GD32VW55x_RELEASE_V1.0.2/MSDK/ble/app\app_conn_mgr.c **** 
 494:C:/Users/stapi/OneDrive/Desktop/GD32VW553/GD32VW55X_Wifi_BLE_SDK/GD32VW55x_RELEASE_V1.0.2/MSDK/ble/app\app_conn_mgr.c ****         ble_conn_slave_prefer_param_get_cfm(p_data->slave_prefer_param_get_ind.conn_idx, 0,
 495:C:/Users/stapi/OneDrive/Desktop/GD32VW553/GD32VW55X_Wifi_BLE_SDK/GD32VW55x_RELEASE_V1.0.2/MSDK/ble/app\app_conn_mgr.c ****                                             p_data->slave_prefer_param_get_ind.token, &param);
 496:C:/Users/stapi/OneDrive/Desktop/GD32VW553/GD32VW55X_Wifi_BLE_SDK/GD32VW55x_RELEASE_V1.0.2/MSDK/ble/app\app_conn_mgr.c ****     }
 497:C:/Users/stapi/OneDrive/Desktop/GD32VW553/GD32VW55X_Wifi_BLE_SDK/GD32VW55x_RELEASE_V1.0.2/MSDK/ble/app\app_conn_mgr.c ****     break;
 498:C:/Users/stapi/OneDrive/Desktop/GD32VW553/GD32VW55X_Wifi_BLE_SDK/GD32VW55x_RELEASE_V1.0.2/MSDK/ble/app\app_conn_mgr.c **** 
 499:C:/Users/stapi/OneDrive/Desktop/GD32VW553/GD32VW55X_Wifi_BLE_SDK/GD32VW55x_RELEASE_V1.0.2/MSDK/ble/app\app_conn_mgr.c ****     case BLE_CONN_EVT_NAME_SET_IND: {
 500:C:/Users/stapi/OneDrive/Desktop/GD32VW553/GD32VW55X_Wifi_BLE_SDK/GD32VW55x_RELEASE_V1.0.2/MSDK/ble/app\app_conn_mgr.c ****         ble_adp_name_set(p_data->name_set_ind.p_name, p_data->name_set_ind.name_len);
 501:C:/Users/stapi/OneDrive/Desktop/GD32VW553/GD32VW55X_Wifi_BLE_SDK/GD32VW55x_RELEASE_V1.0.2/MSDK/ble/app\app_conn_mgr.c **** 
 502:C:/Users/stapi/OneDrive/Desktop/GD32VW553/GD32VW55X_Wifi_BLE_SDK/GD32VW55x_RELEASE_V1.0.2/MSDK/ble/app\app_conn_mgr.c ****         dbg_print(NOTICE, "conn idx %u, name set %s, name len %u \r\n",
 503:C:/Users/stapi/OneDrive/Desktop/GD32VW553/GD32VW55X_Wifi_BLE_SDK/GD32VW55x_RELEASE_V1.0.2/MSDK/ble/app\app_conn_mgr.c ****                   p_data->name_set_ind.conn_idx, p_data->name_set_ind.p_name,
 504:C:/Users/stapi/OneDrive/Desktop/GD32VW553/GD32VW55X_Wifi_BLE_SDK/GD32VW55x_RELEASE_V1.0.2/MSDK/ble/app\app_conn_mgr.c ****                   p_data->name_set_ind.name_len);
 505:C:/Users/stapi/OneDrive/Desktop/GD32VW553/GD32VW55X_Wifi_BLE_SDK/GD32VW55x_RELEASE_V1.0.2/MSDK/ble/app\app_conn_mgr.c **** 
 506:C:/Users/stapi/OneDrive/Desktop/GD32VW553/GD32VW55X_Wifi_BLE_SDK/GD32VW55x_RELEASE_V1.0.2/MSDK/ble/app\app_conn_mgr.c ****         ble_conn_name_set_cfm(p_data->name_set_ind.conn_idx, 0, p_data->name_set_ind.token);
 507:C:/Users/stapi/OneDrive/Desktop/GD32VW553/GD32VW55X_Wifi_BLE_SDK/GD32VW55x_RELEASE_V1.0.2/MSDK/ble/app\app_conn_mgr.c ****     }
 508:C:/Users/stapi/OneDrive/Desktop/GD32VW553/GD32VW55X_Wifi_BLE_SDK/GD32VW55x_RELEASE_V1.0.2/MSDK/ble/app\app_conn_mgr.c ****     break;
 509:C:/Users/stapi/OneDrive/Desktop/GD32VW553/GD32VW55X_Wifi_BLE_SDK/GD32VW55x_RELEASE_V1.0.2/MSDK/ble/app\app_conn_mgr.c **** 
 510:C:/Users/stapi/OneDrive/Desktop/GD32VW553/GD32VW55X_Wifi_BLE_SDK/GD32VW55x_RELEASE_V1.0.2/MSDK/ble/app\app_conn_mgr.c ****     case BLE_CONN_EVT_APPEARANCE_SET_IND: {
 511:C:/Users/stapi/OneDrive/Desktop/GD32VW553/GD32VW55X_Wifi_BLE_SDK/GD32VW55x_RELEASE_V1.0.2/MSDK/ble/app\app_conn_mgr.c ****         dev_appearance = p_data->appearance_set_ind.appearance;
 512:C:/Users/stapi/OneDrive/Desktop/GD32VW553/GD32VW55X_Wifi_BLE_SDK/GD32VW55x_RELEASE_V1.0.2/MSDK/ble/app\app_conn_mgr.c **** 
 513:C:/Users/stapi/OneDrive/Desktop/GD32VW553/GD32VW55X_Wifi_BLE_SDK/GD32VW55x_RELEASE_V1.0.2/MSDK/ble/app\app_conn_mgr.c ****         dbg_print(NOTICE, "conn idx %u, appearance set 0x%x\r\n", p_data->appearance_set_ind.conn_i
 514:C:/Users/stapi/OneDrive/Desktop/GD32VW553/GD32VW55X_Wifi_BLE_SDK/GD32VW55x_RELEASE_V1.0.2/MSDK/ble/app\app_conn_mgr.c ****                   p_data->appearance_set_ind.appearance);
 515:C:/Users/stapi/OneDrive/Desktop/GD32VW553/GD32VW55X_Wifi_BLE_SDK/GD32VW55x_RELEASE_V1.0.2/MSDK/ble/app\app_conn_mgr.c **** 
 516:C:/Users/stapi/OneDrive/Desktop/GD32VW553/GD32VW55X_Wifi_BLE_SDK/GD32VW55x_RELEASE_V1.0.2/MSDK/ble/app\app_conn_mgr.c ****         ble_conn_appearance_set_cfm(p_data->appearance_set_ind.conn_idx, 0,
 517:C:/Users/stapi/OneDrive/Desktop/GD32VW553/GD32VW55X_Wifi_BLE_SDK/GD32VW55x_RELEASE_V1.0.2/MSDK/ble/app\app_conn_mgr.c ****                                     p_data->appearance_set_ind.token);
 518:C:/Users/stapi/OneDrive/Desktop/GD32VW553/GD32VW55X_Wifi_BLE_SDK/GD32VW55x_RELEASE_V1.0.2/MSDK/ble/app\app_conn_mgr.c ****     }
 519:C:/Users/stapi/OneDrive/Desktop/GD32VW553/GD32VW55X_Wifi_BLE_SDK/GD32VW55x_RELEASE_V1.0.2/MSDK/ble/app\app_conn_mgr.c ****     break;
 520:C:/Users/stapi/OneDrive/Desktop/GD32VW553/GD32VW55X_Wifi_BLE_SDK/GD32VW55x_RELEASE_V1.0.2/MSDK/ble/app\app_conn_mgr.c **** 
 521:C:/Users/stapi/OneDrive/Desktop/GD32VW553/GD32VW55X_Wifi_BLE_SDK/GD32VW55x_RELEASE_V1.0.2/MSDK/ble/app\app_conn_mgr.c ****     case BLE_CONN_EVT_PARAM_UPDATE_IND: {
 522:C:/Users/stapi/OneDrive/Desktop/GD32VW553/GD32VW55X_Wifi_BLE_SDK/GD32VW55x_RELEASE_V1.0.2/MSDK/ble/app\app_conn_mgr.c ****         dbg_print(NOTICE, "conn idx %u, intv_min 0x%x, intv_max 0x%x, latency %u, supv_tout %u\r\n"
 523:C:/Users/stapi/OneDrive/Desktop/GD32VW553/GD32VW55X_Wifi_BLE_SDK/GD32VW55x_RELEASE_V1.0.2/MSDK/ble/app\app_conn_mgr.c ****                   p_data->conn_param_req_ind.conn_idx, p_data->conn_param_req_ind.intv_min,
 524:C:/Users/stapi/OneDrive/Desktop/GD32VW553/GD32VW55X_Wifi_BLE_SDK/GD32VW55x_RELEASE_V1.0.2/MSDK/ble/app\app_conn_mgr.c ****                   p_data->conn_param_req_ind.intv_max, p_data->conn_param_req_ind.latency,
 525:C:/Users/stapi/OneDrive/Desktop/GD32VW553/GD32VW55X_Wifi_BLE_SDK/GD32VW55x_RELEASE_V1.0.2/MSDK/ble/app\app_conn_mgr.c ****                   p_data->conn_param_req_ind.supv_tout);
 526:C:/Users/stapi/OneDrive/Desktop/GD32VW553/GD32VW55X_Wifi_BLE_SDK/GD32VW55x_RELEASE_V1.0.2/MSDK/ble/app\app_conn_mgr.c ****         p_device = dm_find_dev_by_conidx(p_data->conn_param_req_ind.conn_idx);
 527:C:/Users/stapi/OneDrive/Desktop/GD32VW553/GD32VW55X_Wifi_BLE_SDK/GD32VW55x_RELEASE_V1.0.2/MSDK/ble/app\app_conn_mgr.c **** 
 528:C:/Users/stapi/OneDrive/Desktop/GD32VW553/GD32VW55X_Wifi_BLE_SDK/GD32VW55x_RELEASE_V1.0.2/MSDK/ble/app\app_conn_mgr.c ****         if (p_device != NULL && p_device->enable_fast_param) {
 529:C:/Users/stapi/OneDrive/Desktop/GD32VW553/GD32VW55X_Wifi_BLE_SDK/GD32VW55x_RELEASE_V1.0.2/MSDK/ble/app\app_conn_mgr.c ****             dbg_print(WARNING, "fast parameters enabled, reject remote param update indication\r\n"
 530:C:/Users/stapi/OneDrive/Desktop/GD32VW553/GD32VW55X_Wifi_BLE_SDK/GD32VW55x_RELEASE_V1.0.2/MSDK/ble/app\app_conn_mgr.c ****             ble_conn_param_update_cfm(p_data->conn_param_req_ind.conn_idx, false, 0, 0);
 531:C:/Users/stapi/OneDrive/Desktop/GD32VW553/GD32VW55X_Wifi_BLE_SDK/GD32VW55x_RELEASE_V1.0.2/MSDK/ble/app\app_conn_mgr.c ****         } else if (p_data->conn_param_req_ind.intv_max < p_data->conn_param_req_ind.intv_min) {
 532:C:/Users/stapi/OneDrive/Desktop/GD32VW553/GD32VW55X_Wifi_BLE_SDK/GD32VW55x_RELEASE_V1.0.2/MSDK/ble/app\app_conn_mgr.c ****             ble_conn_param_update_cfm(p_data->conn_param_req_ind.conn_idx, false, 0, 0);
 533:C:/Users/stapi/OneDrive/Desktop/GD32VW553/GD32VW55X_Wifi_BLE_SDK/GD32VW55x_RELEASE_V1.0.2/MSDK/ble/app\app_conn_mgr.c ****         } else {
 534:C:/Users/stapi/OneDrive/Desktop/GD32VW553/GD32VW55X_Wifi_BLE_SDK/GD32VW55x_RELEASE_V1.0.2/MSDK/ble/app\app_conn_mgr.c ****             ble_conn_param_update_cfm(p_data->conn_param_req_ind.conn_idx, true, 2, 4);
 535:C:/Users/stapi/OneDrive/Desktop/GD32VW553/GD32VW55X_Wifi_BLE_SDK/GD32VW55x_RELEASE_V1.0.2/MSDK/ble/app\app_conn_mgr.c ****         }
 536:C:/Users/stapi/OneDrive/Desktop/GD32VW553/GD32VW55X_Wifi_BLE_SDK/GD32VW55x_RELEASE_V1.0.2/MSDK/ble/app\app_conn_mgr.c ****     }
 537:C:/Users/stapi/OneDrive/Desktop/GD32VW553/GD32VW55X_Wifi_BLE_SDK/GD32VW55x_RELEASE_V1.0.2/MSDK/ble/app\app_conn_mgr.c ****     break;
 538:C:/Users/stapi/OneDrive/Desktop/GD32VW553/GD32VW55X_Wifi_BLE_SDK/GD32VW55x_RELEASE_V1.0.2/MSDK/ble/app\app_conn_mgr.c **** 
 539:C:/Users/stapi/OneDrive/Desktop/GD32VW553/GD32VW55X_Wifi_BLE_SDK/GD32VW55x_RELEASE_V1.0.2/MSDK/ble/app\app_conn_mgr.c ****     case BLE_CONN_EVT_PARAM_UPDATE_RSP: {
 540:C:/Users/stapi/OneDrive/Desktop/GD32VW553/GD32VW55X_Wifi_BLE_SDK/GD32VW55x_RELEASE_V1.0.2/MSDK/ble/app\app_conn_mgr.c ****         dbg_print(NOTICE, "conn idx %u, param update result status: 0x%x\r\n",
 541:C:/Users/stapi/OneDrive/Desktop/GD32VW553/GD32VW55X_Wifi_BLE_SDK/GD32VW55x_RELEASE_V1.0.2/MSDK/ble/app\app_conn_mgr.c ****                   p_data->conn_param_rsp.conn_idx, p_data->conn_param_rsp.status);
 542:C:/Users/stapi/OneDrive/Desktop/GD32VW553/GD32VW55X_Wifi_BLE_SDK/GD32VW55x_RELEASE_V1.0.2/MSDK/ble/app\app_conn_mgr.c **** 
 543:C:/Users/stapi/OneDrive/Desktop/GD32VW553/GD32VW55X_Wifi_BLE_SDK/GD32VW55x_RELEASE_V1.0.2/MSDK/ble/app\app_conn_mgr.c ****         p_device = dm_find_dev_by_conidx(p_data->conn_param_req_ind.conn_idx);
 544:C:/Users/stapi/OneDrive/Desktop/GD32VW553/GD32VW55X_Wifi_BLE_SDK/GD32VW55x_RELEASE_V1.0.2/MSDK/ble/app\app_conn_mgr.c **** 
 545:C:/Users/stapi/OneDrive/Desktop/GD32VW553/GD32VW55X_Wifi_BLE_SDK/GD32VW55x_RELEASE_V1.0.2/MSDK/ble/app\app_conn_mgr.c ****         if (p_device != NULL) {
 546:C:/Users/stapi/OneDrive/Desktop/GD32VW553/GD32VW55X_Wifi_BLE_SDK/GD32VW55x_RELEASE_V1.0.2/MSDK/ble/app\app_conn_mgr.c ****             if (p_data->conn_param_rsp.status != BLE_ERR_NO_ERROR) {
 547:C:/Users/stapi/OneDrive/Desktop/GD32VW553/GD32VW55X_Wifi_BLE_SDK/GD32VW55x_RELEASE_V1.0.2/MSDK/ble/app\app_conn_mgr.c ****                 dbg_print(WARNING, "conn idx %u, param update fail update_state: 0x%x\r\n",
 548:C:/Users/stapi/OneDrive/Desktop/GD32VW553/GD32VW55X_Wifi_BLE_SDK/GD32VW55x_RELEASE_V1.0.2/MSDK/ble/app\app_conn_mgr.c ****                           p_data->conn_param_rsp.conn_idx, p_device->update_state);
 549:C:/Users/stapi/OneDrive/Desktop/GD32VW553/GD32VW55X_Wifi_BLE_SDK/GD32VW55x_RELEASE_V1.0.2/MSDK/ble/app\app_conn_mgr.c ****                 p_device->enable_fast_param = false;
 550:C:/Users/stapi/OneDrive/Desktop/GD32VW553/GD32VW55X_Wifi_BLE_SDK/GD32VW55x_RELEASE_V1.0.2/MSDK/ble/app\app_conn_mgr.c ****                 p_device->update_state = IDLE_STATE;
 551:C:/Users/stapi/OneDrive/Desktop/GD32VW553/GD32VW55X_Wifi_BLE_SDK/GD32VW55x_RELEASE_V1.0.2/MSDK/ble/app\app_conn_mgr.c **** 
 552:C:/Users/stapi/OneDrive/Desktop/GD32VW553/GD32VW55X_Wifi_BLE_SDK/GD32VW55x_RELEASE_V1.0.2/MSDK/ble/app\app_conn_mgr.c ****                 check_param_update_op(p_data->conn_param_rsp.conn_idx);
 553:C:/Users/stapi/OneDrive/Desktop/GD32VW553/GD32VW55X_Wifi_BLE_SDK/GD32VW55x_RELEASE_V1.0.2/MSDK/ble/app\app_conn_mgr.c ****             }
 554:C:/Users/stapi/OneDrive/Desktop/GD32VW553/GD32VW55X_Wifi_BLE_SDK/GD32VW55x_RELEASE_V1.0.2/MSDK/ble/app\app_conn_mgr.c ****         }
 555:C:/Users/stapi/OneDrive/Desktop/GD32VW553/GD32VW55X_Wifi_BLE_SDK/GD32VW55x_RELEASE_V1.0.2/MSDK/ble/app\app_conn_mgr.c ****     }
 556:C:/Users/stapi/OneDrive/Desktop/GD32VW553/GD32VW55X_Wifi_BLE_SDK/GD32VW55x_RELEASE_V1.0.2/MSDK/ble/app\app_conn_mgr.c ****     break;
 557:C:/Users/stapi/OneDrive/Desktop/GD32VW553/GD32VW55X_Wifi_BLE_SDK/GD32VW55x_RELEASE_V1.0.2/MSDK/ble/app\app_conn_mgr.c **** 
 558:C:/Users/stapi/OneDrive/Desktop/GD32VW553/GD32VW55X_Wifi_BLE_SDK/GD32VW55x_RELEASE_V1.0.2/MSDK/ble/app\app_conn_mgr.c ****     case BLE_CONN_EVT_PARAM_UPDATE_INFO: {
 559:C:/Users/stapi/OneDrive/Desktop/GD32VW553/GD32VW55X_Wifi_BLE_SDK/GD32VW55x_RELEASE_V1.0.2/MSDK/ble/app\app_conn_mgr.c ****         dbg_print(NOTICE, "conn idx %u, param update ind: interval %d, latency %d, sup to %d\r\n",
 560:C:/Users/stapi/OneDrive/Desktop/GD32VW553/GD32VW55X_Wifi_BLE_SDK/GD32VW55x_RELEASE_V1.0.2/MSDK/ble/app\app_conn_mgr.c ****                   p_data->conn_params.conn_idx,
 561:C:/Users/stapi/OneDrive/Desktop/GD32VW553/GD32VW55X_Wifi_BLE_SDK/GD32VW55x_RELEASE_V1.0.2/MSDK/ble/app\app_conn_mgr.c ****                   p_data->conn_params.interval, p_data->conn_params.latency, p_data->conn_params.su
 562:C:/Users/stapi/OneDrive/Desktop/GD32VW553/GD32VW55X_Wifi_BLE_SDK/GD32VW55x_RELEASE_V1.0.2/MSDK/ble/app\app_conn_mgr.c **** 
 563:C:/Users/stapi/OneDrive/Desktop/GD32VW553/GD32VW55X_Wifi_BLE_SDK/GD32VW55x_RELEASE_V1.0.2/MSDK/ble/app\app_conn_mgr.c ****         p_device = dm_find_dev_by_conidx(p_data->conn_params.conn_idx);
 564:C:/Users/stapi/OneDrive/Desktop/GD32VW553/GD32VW55X_Wifi_BLE_SDK/GD32VW55x_RELEASE_V1.0.2/MSDK/ble/app\app_conn_mgr.c **** 
 565:C:/Users/stapi/OneDrive/Desktop/GD32VW553/GD32VW55X_Wifi_BLE_SDK/GD32VW55x_RELEASE_V1.0.2/MSDK/ble/app\app_conn_mgr.c ****         if (p_device != NULL) {
 566:C:/Users/stapi/OneDrive/Desktop/GD32VW553/GD32VW55X_Wifi_BLE_SDK/GD32VW55x_RELEASE_V1.0.2/MSDK/ble/app\app_conn_mgr.c ****             p_device->conn_info.interval = p_data->conn_params.interval;
 567:C:/Users/stapi/OneDrive/Desktop/GD32VW553/GD32VW55X_Wifi_BLE_SDK/GD32VW55x_RELEASE_V1.0.2/MSDK/ble/app\app_conn_mgr.c ****             p_device->conn_info.latency = p_data->conn_params.latency;
 568:C:/Users/stapi/OneDrive/Desktop/GD32VW553/GD32VW55X_Wifi_BLE_SDK/GD32VW55x_RELEASE_V1.0.2/MSDK/ble/app\app_conn_mgr.c ****             p_device->conn_info.supv_tout = p_data->conn_params.supv_tout;
 569:C:/Users/stapi/OneDrive/Desktop/GD32VW553/GD32VW55X_Wifi_BLE_SDK/GD32VW55x_RELEASE_V1.0.2/MSDK/ble/app\app_conn_mgr.c **** 
 570:C:/Users/stapi/OneDrive/Desktop/GD32VW553/GD32VW55X_Wifi_BLE_SDK/GD32VW55x_RELEASE_V1.0.2/MSDK/ble/app\app_conn_mgr.c ****             if (p_device->enable_fast_param) {
 571:C:/Users/stapi/OneDrive/Desktop/GD32VW553/GD32VW55X_Wifi_BLE_SDK/GD32VW55x_RELEASE_V1.0.2/MSDK/ble/app\app_conn_mgr.c ****                 if (p_device->update_state == FAST_PARAM_UPDATING_STATE) {
 572:C:/Users/stapi/OneDrive/Desktop/GD32VW553/GD32VW55X_Wifi_BLE_SDK/GD32VW55x_RELEASE_V1.0.2/MSDK/ble/app\app_conn_mgr.c ****                     p_device->update_state = FAST_PARAM_UPDATED_STATE;
 573:C:/Users/stapi/OneDrive/Desktop/GD32VW553/GD32VW55X_Wifi_BLE_SDK/GD32VW55x_RELEASE_V1.0.2/MSDK/ble/app\app_conn_mgr.c ****                 } else if (p_device->update_state == UPDATING_STATE) {
 574:C:/Users/stapi/OneDrive/Desktop/GD32VW553/GD32VW55X_Wifi_BLE_SDK/GD32VW55x_RELEASE_V1.0.2/MSDK/ble/app\app_conn_mgr.c ****                     if (ble_conn_param_update_req(p_data->conn_params.conn_idx, BLE_CONN_FAST_INTV,
 575:C:/Users/stapi/OneDrive/Desktop/GD32VW553/GD32VW55X_Wifi_BLE_SDK/GD32VW55x_RELEASE_V1.0.2/MSDK/ble/app\app_conn_mgr.c ****                                                   BLE_CONN_FAST_LATENCY, BLE_CONN_FAST_SUPV_TOUT, 0
 576:C:/Users/stapi/OneDrive/Desktop/GD32VW553/GD32VW55X_Wifi_BLE_SDK/GD32VW55x_RELEASE_V1.0.2/MSDK/ble/app\app_conn_mgr.c ****                         p_device->update_state = FAST_PARAM_UPDATING_STATE;
 577:C:/Users/stapi/OneDrive/Desktop/GD32VW553/GD32VW55X_Wifi_BLE_SDK/GD32VW55x_RELEASE_V1.0.2/MSDK/ble/app\app_conn_mgr.c **** 
 578:C:/Users/stapi/OneDrive/Desktop/GD32VW553/GD32VW55X_Wifi_BLE_SDK/GD32VW55x_RELEASE_V1.0.2/MSDK/ble/app\app_conn_mgr.c ****                         // No pending parameters
 579:C:/Users/stapi/OneDrive/Desktop/GD32VW553/GD32VW55X_Wifi_BLE_SDK/GD32VW55x_RELEASE_V1.0.2/MSDK/ble/app\app_conn_mgr.c ****                         if (p_device->expect_conn_info.interval == 0) {
 580:C:/Users/stapi/OneDrive/Desktop/GD32VW553/GD32VW55X_Wifi_BLE_SDK/GD32VW55x_RELEASE_V1.0.2/MSDK/ble/app\app_conn_mgr.c ****                             p_device->expect_conn_info = p_device->conn_info;
 581:C:/Users/stapi/OneDrive/Desktop/GD32VW553/GD32VW55X_Wifi_BLE_SDK/GD32VW55x_RELEASE_V1.0.2/MSDK/ble/app\app_conn_mgr.c ****                         }
 582:C:/Users/stapi/OneDrive/Desktop/GD32VW553/GD32VW55X_Wifi_BLE_SDK/GD32VW55x_RELEASE_V1.0.2/MSDK/ble/app\app_conn_mgr.c ****                     } else {
 583:C:/Users/stapi/OneDrive/Desktop/GD32VW553/GD32VW55X_Wifi_BLE_SDK/GD32VW55x_RELEASE_V1.0.2/MSDK/ble/app\app_conn_mgr.c ****                         p_device->update_state = IDLE_STATE;
 584:C:/Users/stapi/OneDrive/Desktop/GD32VW553/GD32VW55X_Wifi_BLE_SDK/GD32VW55x_RELEASE_V1.0.2/MSDK/ble/app\app_conn_mgr.c ****                         p_device->enable_fast_param = false;
 585:C:/Users/stapi/OneDrive/Desktop/GD32VW553/GD32VW55X_Wifi_BLE_SDK/GD32VW55x_RELEASE_V1.0.2/MSDK/ble/app\app_conn_mgr.c ****                         check_param_update_op(p_data->conn_params.conn_idx);
 586:C:/Users/stapi/OneDrive/Desktop/GD32VW553/GD32VW55X_Wifi_BLE_SDK/GD32VW55x_RELEASE_V1.0.2/MSDK/ble/app\app_conn_mgr.c ****                     }
 587:C:/Users/stapi/OneDrive/Desktop/GD32VW553/GD32VW55X_Wifi_BLE_SDK/GD32VW55x_RELEASE_V1.0.2/MSDK/ble/app\app_conn_mgr.c ****                 }
 588:C:/Users/stapi/OneDrive/Desktop/GD32VW553/GD32VW55X_Wifi_BLE_SDK/GD32VW55x_RELEASE_V1.0.2/MSDK/ble/app\app_conn_mgr.c ****             } else {
 589:C:/Users/stapi/OneDrive/Desktop/GD32VW553/GD32VW55X_Wifi_BLE_SDK/GD32VW55x_RELEASE_V1.0.2/MSDK/ble/app\app_conn_mgr.c ****                 p_device->update_state = IDLE_STATE;
 590:C:/Users/stapi/OneDrive/Desktop/GD32VW553/GD32VW55X_Wifi_BLE_SDK/GD32VW55x_RELEASE_V1.0.2/MSDK/ble/app\app_conn_mgr.c ****                 check_param_update_op(p_data->conn_params.conn_idx);
 591:C:/Users/stapi/OneDrive/Desktop/GD32VW553/GD32VW55X_Wifi_BLE_SDK/GD32VW55x_RELEASE_V1.0.2/MSDK/ble/app\app_conn_mgr.c ****             }
 592:C:/Users/stapi/OneDrive/Desktop/GD32VW553/GD32VW55X_Wifi_BLE_SDK/GD32VW55x_RELEASE_V1.0.2/MSDK/ble/app\app_conn_mgr.c ****         }
 593:C:/Users/stapi/OneDrive/Desktop/GD32VW553/GD32VW55X_Wifi_BLE_SDK/GD32VW55x_RELEASE_V1.0.2/MSDK/ble/app\app_conn_mgr.c ****     }
 594:C:/Users/stapi/OneDrive/Desktop/GD32VW553/GD32VW55X_Wifi_BLE_SDK/GD32VW55x_RELEASE_V1.0.2/MSDK/ble/app\app_conn_mgr.c ****     break;
 595:C:/Users/stapi/OneDrive/Desktop/GD32VW553/GD32VW55X_Wifi_BLE_SDK/GD32VW55x_RELEASE_V1.0.2/MSDK/ble/app\app_conn_mgr.c **** 
 596:C:/Users/stapi/OneDrive/Desktop/GD32VW553/GD32VW55X_Wifi_BLE_SDK/GD32VW55x_RELEASE_V1.0.2/MSDK/ble/app\app_conn_mgr.c ****     case BLE_CONN_EVT_PKT_SIZE_SET_RSP: {
 597:C:/Users/stapi/OneDrive/Desktop/GD32VW553/GD32VW55X_Wifi_BLE_SDK/GD32VW55x_RELEASE_V1.0.2/MSDK/ble/app\app_conn_mgr.c ****         dbg_print(NOTICE, "conn idx %u, packet size set status 0x%x\r\n",
 598:C:/Users/stapi/OneDrive/Desktop/GD32VW553/GD32VW55X_Wifi_BLE_SDK/GD32VW55x_RELEASE_V1.0.2/MSDK/ble/app\app_conn_mgr.c ****                   p_data->pkt_size_set_rsp.conn_idx, p_data->pkt_size_set_rsp.status);
 599:C:/Users/stapi/OneDrive/Desktop/GD32VW553/GD32VW55X_Wifi_BLE_SDK/GD32VW55x_RELEASE_V1.0.2/MSDK/ble/app\app_conn_mgr.c ****     }
 600:C:/Users/stapi/OneDrive/Desktop/GD32VW553/GD32VW55X_Wifi_BLE_SDK/GD32VW55x_RELEASE_V1.0.2/MSDK/ble/app\app_conn_mgr.c ****     break;
 601:C:/Users/stapi/OneDrive/Desktop/GD32VW553/GD32VW55X_Wifi_BLE_SDK/GD32VW55x_RELEASE_V1.0.2/MSDK/ble/app\app_conn_mgr.c **** 
 602:C:/Users/stapi/OneDrive/Desktop/GD32VW553/GD32VW55X_Wifi_BLE_SDK/GD32VW55x_RELEASE_V1.0.2/MSDK/ble/app\app_conn_mgr.c ****     case BLE_CONN_EVT_PKT_SIZE_INFO: {
 603:C:/Users/stapi/OneDrive/Desktop/GD32VW553/GD32VW55X_Wifi_BLE_SDK/GD32VW55x_RELEASE_V1.0.2/MSDK/ble/app\app_conn_mgr.c ****         dbg_print(NOTICE, "le pkt size info: conn idx %u, tx oct %d, tx time %d, rx oct %d, rx time
 604:C:/Users/stapi/OneDrive/Desktop/GD32VW553/GD32VW55X_Wifi_BLE_SDK/GD32VW55x_RELEASE_V1.0.2/MSDK/ble/app\app_conn_mgr.c ****                   p_data->pkt_size_info.conn_idx, p_data->pkt_size_info.max_tx_octets,
 605:C:/Users/stapi/OneDrive/Desktop/GD32VW553/GD32VW55X_Wifi_BLE_SDK/GD32VW55x_RELEASE_V1.0.2/MSDK/ble/app\app_conn_mgr.c ****                   p_data->pkt_size_info.max_tx_time,
 606:C:/Users/stapi/OneDrive/Desktop/GD32VW553/GD32VW55X_Wifi_BLE_SDK/GD32VW55x_RELEASE_V1.0.2/MSDK/ble/app\app_conn_mgr.c ****                   p_data->pkt_size_info.max_rx_octets, p_data->pkt_size_info.max_rx_time);
 607:C:/Users/stapi/OneDrive/Desktop/GD32VW553/GD32VW55X_Wifi_BLE_SDK/GD32VW55x_RELEASE_V1.0.2/MSDK/ble/app\app_conn_mgr.c ****     }
 608:C:/Users/stapi/OneDrive/Desktop/GD32VW553/GD32VW55X_Wifi_BLE_SDK/GD32VW55x_RELEASE_V1.0.2/MSDK/ble/app\app_conn_mgr.c ****     break;
 609:C:/Users/stapi/OneDrive/Desktop/GD32VW553/GD32VW55X_Wifi_BLE_SDK/GD32VW55x_RELEASE_V1.0.2/MSDK/ble/app\app_conn_mgr.c **** 
 610:C:/Users/stapi/OneDrive/Desktop/GD32VW553/GD32VW55X_Wifi_BLE_SDK/GD32VW55x_RELEASE_V1.0.2/MSDK/ble/app\app_conn_mgr.c ****     case BLE_CONN_EVT_PHY_GET_RSP: {
 611:C:/Users/stapi/OneDrive/Desktop/GD32VW553/GD32VW55X_Wifi_BLE_SDK/GD32VW55x_RELEASE_V1.0.2/MSDK/ble/app\app_conn_mgr.c ****         dbg_print(NOTICE, "conn idx %u le phy get status 0x%x\r\n", p_data->phy_get.conn_idx,
 612:C:/Users/stapi/OneDrive/Desktop/GD32VW553/GD32VW55X_Wifi_BLE_SDK/GD32VW55x_RELEASE_V1.0.2/MSDK/ble/app\app_conn_mgr.c ****                   p_data->phy_get.status);
 613:C:/Users/stapi/OneDrive/Desktop/GD32VW553/GD32VW55X_Wifi_BLE_SDK/GD32VW55x_RELEASE_V1.0.2/MSDK/ble/app\app_conn_mgr.c ****     }
 614:C:/Users/stapi/OneDrive/Desktop/GD32VW553/GD32VW55X_Wifi_BLE_SDK/GD32VW55x_RELEASE_V1.0.2/MSDK/ble/app\app_conn_mgr.c ****     break;
 615:C:/Users/stapi/OneDrive/Desktop/GD32VW553/GD32VW55X_Wifi_BLE_SDK/GD32VW55x_RELEASE_V1.0.2/MSDK/ble/app\app_conn_mgr.c **** 
 616:C:/Users/stapi/OneDrive/Desktop/GD32VW553/GD32VW55X_Wifi_BLE_SDK/GD32VW55x_RELEASE_V1.0.2/MSDK/ble/app\app_conn_mgr.c ****     case BLE_CONN_EVT_PHY_SET_RSP: {
 617:C:/Users/stapi/OneDrive/Desktop/GD32VW553/GD32VW55X_Wifi_BLE_SDK/GD32VW55x_RELEASE_V1.0.2/MSDK/ble/app\app_conn_mgr.c ****         dbg_print(NOTICE, "conn idx %u le phy set status 0x%x\r\n", p_data->phy_set.conn_idx,
 618:C:/Users/stapi/OneDrive/Desktop/GD32VW553/GD32VW55X_Wifi_BLE_SDK/GD32VW55x_RELEASE_V1.0.2/MSDK/ble/app\app_conn_mgr.c ****                   p_data->phy_set.status);
 619:C:/Users/stapi/OneDrive/Desktop/GD32VW553/GD32VW55X_Wifi_BLE_SDK/GD32VW55x_RELEASE_V1.0.2/MSDK/ble/app\app_conn_mgr.c ****     }
 620:C:/Users/stapi/OneDrive/Desktop/GD32VW553/GD32VW55X_Wifi_BLE_SDK/GD32VW55x_RELEASE_V1.0.2/MSDK/ble/app\app_conn_mgr.c ****     break;
 621:C:/Users/stapi/OneDrive/Desktop/GD32VW553/GD32VW55X_Wifi_BLE_SDK/GD32VW55x_RELEASE_V1.0.2/MSDK/ble/app\app_conn_mgr.c **** 
 622:C:/Users/stapi/OneDrive/Desktop/GD32VW553/GD32VW55X_Wifi_BLE_SDK/GD32VW55x_RELEASE_V1.0.2/MSDK/ble/app\app_conn_mgr.c ****     case BLE_CONN_EVT_PHY_INFO: {
 623:C:/Users/stapi/OneDrive/Desktop/GD32VW553/GD32VW55X_Wifi_BLE_SDK/GD32VW55x_RELEASE_V1.0.2/MSDK/ble/app\app_conn_mgr.c ****         dbg_print(NOTICE, "le phy ind conn idx %u: tx phy 0x%x, rx phy 0x%x\r\n", p_data->phy_val.c
 440              		.loc 1 623 9 is_stmt 0 discriminator 1
 441 004a 97000000 		call	co_printf
 441      E7800000 
 442              	.LVL20:
 443 0052 FDA0     		j	.L23
 444              	.L63:
 295:C:/Users/stapi/OneDrive/Desktop/GD32VW553/GD32VW55X_Wifi_BLE_SDK/GD32VW55x_RELEASE_V1.0.2/MSDK/ble/app\app_conn_mgr.c ****             dbg_print(NOTICE, "===> init conn starting idx %u, wl_used %d\r\n",
 445              		.loc 1 295 16 is_stmt 1
 295:C:/Users/stapi/OneDrive/Desktop/GD32VW553/GD32VW55X_Wifi_BLE_SDK/GD32VW55x_RELEASE_V1.0.2/MSDK/ble/app\app_conn_mgr.c ****             dbg_print(NOTICE, "===> init conn starting idx %u, wl_used %d\r\n",
 446              		.loc 1 295 19 is_stmt 0
 447 0054 0547     		li	a4,1
 448 0056 6396E702 		bne	a5,a4,.L65
 296:C:/Users/stapi/OneDrive/Desktop/GD32VW553/GD32VW55X_Wifi_BLE_SDK/GD32VW55x_RELEASE_V1.0.2/MSDK/ble/app\app_conn_mgr.c ****                       p_data->init_state.init_idx, p_data->init_state.wl_used);
 449              		.loc 1 296 13 is_stmt 1
 296:C:/Users/stapi/OneDrive/Desktop/GD32VW553/GD32VW55X_Wifi_BLE_SDK/GD32VW55x_RELEASE_V1.0.2/MSDK/ble/app\app_conn_mgr.c ****                       p_data->init_state.init_idx, p_data->init_state.wl_used);
 450              		.loc 1 296 13
 451 005a B7070000 		lui	a5,%hi(global_debug_level)
 452 005e 03C70700 		lbu	a4,%lo(global_debug_level)(a5)
 453 0062 8947     		li	a5,2
 454 0064 63FEE70C 		bleu	a4,a5,.L23
 296:C:/Users/stapi/OneDrive/Desktop/GD32VW553/GD32VW55X_Wifi_BLE_SDK/GD32VW55x_RELEASE_V1.0.2/MSDK/ble/app\app_conn_mgr.c ****                       p_data->init_state.init_idx, p_data->init_state.wl_used);
 455              		.loc 1 296 13 discriminator 1
 456 0068 03C61500 		lbu	a2,1(a1)
 457 006c 83C50500 		lbu	a1,0(a1)
 458 0070 37050000 		lui	a0,%hi(.LC2)
 459 0074 13050500 		addi	a0,a0,%lo(.LC2)
 460              	.L140:
 624:C:/Users/stapi/OneDrive/Desktop/GD32VW553/GD32VW55X_Wifi_BLE_SDK/GD32VW55x_RELEASE_V1.0.2/MSDK/ble/app\app_conn_mgr.c ****                   p_data->phy_val.tx_phy, p_data->phy_val.rx_phy);
 625:C:/Users/stapi/OneDrive/Desktop/GD32VW553/GD32VW55X_Wifi_BLE_SDK/GD32VW55x_RELEASE_V1.0.2/MSDK/ble/app\app_conn_mgr.c ****     }
 626:C:/Users/stapi/OneDrive/Desktop/GD32VW553/GD32VW55X_Wifi_BLE_SDK/GD32VW55x_RELEASE_V1.0.2/MSDK/ble/app\app_conn_mgr.c ****     break;
 627:C:/Users/stapi/OneDrive/Desktop/GD32VW553/GD32VW55X_Wifi_BLE_SDK/GD32VW55x_RELEASE_V1.0.2/MSDK/ble/app\app_conn_mgr.c **** 
 628:C:/Users/stapi/OneDrive/Desktop/GD32VW553/GD32VW55X_Wifi_BLE_SDK/GD32VW55x_RELEASE_V1.0.2/MSDK/ble/app\app_conn_mgr.c ****     case BLE_CONN_EVT_LOC_TX_PWR_GET_RSP: {
 629:C:/Users/stapi/OneDrive/Desktop/GD32VW553/GD32VW55X_Wifi_BLE_SDK/GD32VW55x_RELEASE_V1.0.2/MSDK/ble/app\app_conn_mgr.c ****         dbg_print(NOTICE, "local tx pwr conn idx %u, phy %d, pwr %d, max %d\r\n",
 630:C:/Users/stapi/OneDrive/Desktop/GD32VW553/GD32VW55X_Wifi_BLE_SDK/GD32VW55x_RELEASE_V1.0.2/MSDK/ble/app\app_conn_mgr.c ****                   p_data->loc_tx_pwr.conn_idx,
 631:C:/Users/stapi/OneDrive/Desktop/GD32VW553/GD32VW55X_Wifi_BLE_SDK/GD32VW55x_RELEASE_V1.0.2/MSDK/ble/app\app_conn_mgr.c ****                   p_data->loc_tx_pwr.phy, p_data->loc_tx_pwr.tx_pwr, p_data->loc_tx_pwr.max_tx_pwr)
 632:C:/Users/stapi/OneDrive/Desktop/GD32VW553/GD32VW55X_Wifi_BLE_SDK/GD32VW55x_RELEASE_V1.0.2/MSDK/ble/app\app_conn_mgr.c ****     }
 633:C:/Users/stapi/OneDrive/Desktop/GD32VW553/GD32VW55X_Wifi_BLE_SDK/GD32VW55x_RELEASE_V1.0.2/MSDK/ble/app\app_conn_mgr.c ****     break;
 634:C:/Users/stapi/OneDrive/Desktop/GD32VW553/GD32VW55X_Wifi_BLE_SDK/GD32VW55x_RELEASE_V1.0.2/MSDK/ble/app\app_conn_mgr.c **** 
 635:C:/Users/stapi/OneDrive/Desktop/GD32VW553/GD32VW55X_Wifi_BLE_SDK/GD32VW55x_RELEASE_V1.0.2/MSDK/ble/app\app_conn_mgr.c ****     case BLE_CONN_EVT_PEER_TX_PWR_GET_RSP: {
 636:C:/Users/stapi/OneDrive/Desktop/GD32VW553/GD32VW55X_Wifi_BLE_SDK/GD32VW55x_RELEASE_V1.0.2/MSDK/ble/app\app_conn_mgr.c ****         dbg_print(NOTICE, "peer tx pwr conidx %u, pwr %d, flag 0x%x \r\n", p_data->peer_tx_pwr.conn
 637:C:/Users/stapi/OneDrive/Desktop/GD32VW553/GD32VW55X_Wifi_BLE_SDK/GD32VW55x_RELEASE_V1.0.2/MSDK/ble/app\app_conn_mgr.c ****                   p_data->peer_tx_pwr.tx_pwr, p_data->peer_tx_pwr.flags);
 638:C:/Users/stapi/OneDrive/Desktop/GD32VW553/GD32VW55X_Wifi_BLE_SDK/GD32VW55x_RELEASE_V1.0.2/MSDK/ble/app\app_conn_mgr.c ****     }
 639:C:/Users/stapi/OneDrive/Desktop/GD32VW553/GD32VW55X_Wifi_BLE_SDK/GD32VW55x_RELEASE_V1.0.2/MSDK/ble/app\app_conn_mgr.c ****     break;
 640:C:/Users/stapi/OneDrive/Desktop/GD32VW553/GD32VW55X_Wifi_BLE_SDK/GD32VW55x_RELEASE_V1.0.2/MSDK/ble/app\app_conn_mgr.c **** 
 641:C:/Users/stapi/OneDrive/Desktop/GD32VW553/GD32VW55X_Wifi_BLE_SDK/GD32VW55x_RELEASE_V1.0.2/MSDK/ble/app\app_conn_mgr.c ****     case BLE_CONN_EVT_LOC_TX_PWR_RPT_INFO: {
 642:C:/Users/stapi/OneDrive/Desktop/GD32VW553/GD32VW55X_Wifi_BLE_SDK/GD32VW55x_RELEASE_V1.0.2/MSDK/ble/app\app_conn_mgr.c ****         dbg_print(NOTICE, "local tx pwr report conn idx %u, phy %d, pwr %d, flag 0x%x, delta %d\r\n
 643:C:/Users/stapi/OneDrive/Desktop/GD32VW553/GD32VW55X_Wifi_BLE_SDK/GD32VW55x_RELEASE_V1.0.2/MSDK/ble/app\app_conn_mgr.c ****                   p_data->loc_tx_pwr_rpt.conn_idx, p_data->loc_tx_pwr_rpt.phy, p_data->loc_tx_pwr_r
 644:C:/Users/stapi/OneDrive/Desktop/GD32VW553/GD32VW55X_Wifi_BLE_SDK/GD32VW55x_RELEASE_V1.0.2/MSDK/ble/app\app_conn_mgr.c ****                   p_data->loc_tx_pwr_rpt.flags, p_data->loc_tx_pwr_rpt.delta);
 645:C:/Users/stapi/OneDrive/Desktop/GD32VW553/GD32VW55X_Wifi_BLE_SDK/GD32VW55x_RELEASE_V1.0.2/MSDK/ble/app\app_conn_mgr.c ****     }
 646:C:/Users/stapi/OneDrive/Desktop/GD32VW553/GD32VW55X_Wifi_BLE_SDK/GD32VW55x_RELEASE_V1.0.2/MSDK/ble/app\app_conn_mgr.c ****     break;
 647:C:/Users/stapi/OneDrive/Desktop/GD32VW553/GD32VW55X_Wifi_BLE_SDK/GD32VW55x_RELEASE_V1.0.2/MSDK/ble/app\app_conn_mgr.c **** 
 648:C:/Users/stapi/OneDrive/Desktop/GD32VW553/GD32VW55X_Wifi_BLE_SDK/GD32VW55x_RELEASE_V1.0.2/MSDK/ble/app\app_conn_mgr.c ****     case BLE_CONN_EVT_PEER_TX_PWR_RPT_INFO: {
 649:C:/Users/stapi/OneDrive/Desktop/GD32VW553/GD32VW55X_Wifi_BLE_SDK/GD32VW55x_RELEASE_V1.0.2/MSDK/ble/app\app_conn_mgr.c ****         dbg_print(NOTICE, "peer tx pwr report conn idx %u, phy %d, pwr %d, flag 0x%x, delta %d\r\n"
 650:C:/Users/stapi/OneDrive/Desktop/GD32VW553/GD32VW55X_Wifi_BLE_SDK/GD32VW55x_RELEASE_V1.0.2/MSDK/ble/app\app_conn_mgr.c ****                   p_data->peer_tx_pwr_rpt.conn_idx, p_data->loc_tx_pwr_rpt.phy, p_data->loc_tx_pwr_
 651:C:/Users/stapi/OneDrive/Desktop/GD32VW553/GD32VW55X_Wifi_BLE_SDK/GD32VW55x_RELEASE_V1.0.2/MSDK/ble/app\app_conn_mgr.c ****                   p_data->loc_tx_pwr_rpt.flags, p_data->loc_tx_pwr_rpt.delta);
 652:C:/Users/stapi/OneDrive/Desktop/GD32VW553/GD32VW55X_Wifi_BLE_SDK/GD32VW55x_RELEASE_V1.0.2/MSDK/ble/app\app_conn_mgr.c ****     }
 653:C:/Users/stapi/OneDrive/Desktop/GD32VW553/GD32VW55X_Wifi_BLE_SDK/GD32VW55x_RELEASE_V1.0.2/MSDK/ble/app\app_conn_mgr.c ****     break;
 654:C:/Users/stapi/OneDrive/Desktop/GD32VW553/GD32VW55X_Wifi_BLE_SDK/GD32VW55x_RELEASE_V1.0.2/MSDK/ble/app\app_conn_mgr.c **** 
 655:C:/Users/stapi/OneDrive/Desktop/GD32VW553/GD32VW55X_Wifi_BLE_SDK/GD32VW55x_RELEASE_V1.0.2/MSDK/ble/app\app_conn_mgr.c ****     case BLE_CONN_EVT_PATH_LOSS_THRESHOLD_INFO: {
 656:C:/Users/stapi/OneDrive/Desktop/GD32VW553/GD32VW55X_Wifi_BLE_SDK/GD32VW55x_RELEASE_V1.0.2/MSDK/ble/app\app_conn_mgr.c ****         dbg_print(NOTICE, "path loss threshold conn idx %u, curr %d, zone %d\r\n",
 657:C:/Users/stapi/OneDrive/Desktop/GD32VW553/GD32VW55X_Wifi_BLE_SDK/GD32VW55x_RELEASE_V1.0.2/MSDK/ble/app\app_conn_mgr.c ****                   p_data->loc_tx_pwr_rpt.conn_idx, p_data->path_loss_thr.curr_path_loss,
 658:C:/Users/stapi/OneDrive/Desktop/GD32VW553/GD32VW55X_Wifi_BLE_SDK/GD32VW55x_RELEASE_V1.0.2/MSDK/ble/app\app_conn_mgr.c ****                   p_data->path_loss_thr.zone_entered);
 659:C:/Users/stapi/OneDrive/Desktop/GD32VW553/GD32VW55X_Wifi_BLE_SDK/GD32VW55x_RELEASE_V1.0.2/MSDK/ble/app\app_conn_mgr.c ****     }
 660:C:/Users/stapi/OneDrive/Desktop/GD32VW553/GD32VW55X_Wifi_BLE_SDK/GD32VW55x_RELEASE_V1.0.2/MSDK/ble/app\app_conn_mgr.c ****     break;
 661:C:/Users/stapi/OneDrive/Desktop/GD32VW553/GD32VW55X_Wifi_BLE_SDK/GD32VW55x_RELEASE_V1.0.2/MSDK/ble/app\app_conn_mgr.c **** 
 662:C:/Users/stapi/OneDrive/Desktop/GD32VW553/GD32VW55X_Wifi_BLE_SDK/GD32VW55x_RELEASE_V1.0.2/MSDK/ble/app\app_conn_mgr.c ****     case BLE_CONN_EVT_PATH_LOSS_CTRL_RSP: {
 663:C:/Users/stapi/OneDrive/Desktop/GD32VW553/GD32VW55X_Wifi_BLE_SDK/GD32VW55x_RELEASE_V1.0.2/MSDK/ble/app\app_conn_mgr.c ****         dbg_print(NOTICE, "path loss ctrl conn idx %u, status 0x%x\r\n",
 664:C:/Users/stapi/OneDrive/Desktop/GD32VW553/GD32VW55X_Wifi_BLE_SDK/GD32VW55x_RELEASE_V1.0.2/MSDK/ble/app\app_conn_mgr.c ****                   p_data->path_ctrl.conn_idx, p_data->path_ctrl.status);
 665:C:/Users/stapi/OneDrive/Desktop/GD32VW553/GD32VW55X_Wifi_BLE_SDK/GD32VW55x_RELEASE_V1.0.2/MSDK/ble/app\app_conn_mgr.c ****     }
 666:C:/Users/stapi/OneDrive/Desktop/GD32VW553/GD32VW55X_Wifi_BLE_SDK/GD32VW55x_RELEASE_V1.0.2/MSDK/ble/app\app_conn_mgr.c ****     break;
 667:C:/Users/stapi/OneDrive/Desktop/GD32VW553/GD32VW55X_Wifi_BLE_SDK/GD32VW55x_RELEASE_V1.0.2/MSDK/ble/app\app_conn_mgr.c **** 
 668:C:/Users/stapi/OneDrive/Desktop/GD32VW553/GD32VW55X_Wifi_BLE_SDK/GD32VW55x_RELEASE_V1.0.2/MSDK/ble/app\app_conn_mgr.c ****     case BLE_CONN_EVT_PER_SYNC_TRANS_RSP: {
 669:C:/Users/stapi/OneDrive/Desktop/GD32VW553/GD32VW55X_Wifi_BLE_SDK/GD32VW55x_RELEASE_V1.0.2/MSDK/ble/app\app_conn_mgr.c ****         dbg_print(NOTICE, "periodic sync transfer result conn idx %u, status 0x%x\r\n",
 670:C:/Users/stapi/OneDrive/Desktop/GD32VW553/GD32VW55X_Wifi_BLE_SDK/GD32VW55x_RELEASE_V1.0.2/MSDK/ble/app\app_conn_mgr.c ****                   p_data->sync_trans_rsp.conn_idx, p_data->sync_trans_rsp.status);
 671:C:/Users/stapi/OneDrive/Desktop/GD32VW553/GD32VW55X_Wifi_BLE_SDK/GD32VW55x_RELEASE_V1.0.2/MSDK/ble/app\app_conn_mgr.c ****     }
 672:C:/Users/stapi/OneDrive/Desktop/GD32VW553/GD32VW55X_Wifi_BLE_SDK/GD32VW55x_RELEASE_V1.0.2/MSDK/ble/app\app_conn_mgr.c ****     break;
 673:C:/Users/stapi/OneDrive/Desktop/GD32VW553/GD32VW55X_Wifi_BLE_SDK/GD32VW55x_RELEASE_V1.0.2/MSDK/ble/app\app_conn_mgr.c **** 
 674:C:/Users/stapi/OneDrive/Desktop/GD32VW553/GD32VW55X_Wifi_BLE_SDK/GD32VW55x_RELEASE_V1.0.2/MSDK/ble/app\app_conn_mgr.c ****     case BLE_CONN_EVT_TX_PWR_RPT_CTRL_RSP: {
 675:C:/Users/stapi/OneDrive/Desktop/GD32VW553/GD32VW55X_Wifi_BLE_SDK/GD32VW55x_RELEASE_V1.0.2/MSDK/ble/app\app_conn_mgr.c ****         dbg_print(NOTICE, "Tx power report contrl result conn idx %u, status 0x%x\r\n",
 461              		.loc 1 675 9 is_stmt 0 discriminator 1
 462 0078 97000000 		call	co_printf
 462      E7800000 
 463              	.LVL21:
 676:C:/Users/stapi/OneDrive/Desktop/GD32VW553/GD32VW55X_Wifi_BLE_SDK/GD32VW55x_RELEASE_V1.0.2/MSDK/ble/app\app_conn_mgr.c ****                   p_data->tx_pwr_rpt_ctrl_rsp.conn_idx, p_data->tx_pwr_rpt_ctrl_rsp.status);
 677:C:/Users/stapi/OneDrive/Desktop/GD32VW553/GD32VW55X_Wifi_BLE_SDK/GD32VW55x_RELEASE_V1.0.2/MSDK/ble/app\app_conn_mgr.c ****     }
 678:C:/Users/stapi/OneDrive/Desktop/GD32VW553/GD32VW55X_Wifi_BLE_SDK/GD32VW55x_RELEASE_V1.0.2/MSDK/ble/app\app_conn_mgr.c ****     break;
 679:C:/Users/stapi/OneDrive/Desktop/GD32VW553/GD32VW55X_Wifi_BLE_SDK/GD32VW55x_RELEASE_V1.0.2/MSDK/ble/app\app_conn_mgr.c **** 
 680:C:/Users/stapi/OneDrive/Desktop/GD32VW553/GD32VW55X_Wifi_BLE_SDK/GD32VW55x_RELEASE_V1.0.2/MSDK/ble/app\app_conn_mgr.c ****     default:
 681:C:/Users/stapi/OneDrive/Desktop/GD32VW553/GD32VW55X_Wifi_BLE_SDK/GD32VW55x_RELEASE_V1.0.2/MSDK/ble/app\app_conn_mgr.c ****         break;
 682:C:/Users/stapi/OneDrive/Desktop/GD32VW553/GD32VW55X_Wifi_BLE_SDK/GD32VW55x_RELEASE_V1.0.2/MSDK/ble/app\app_conn_mgr.c ****     }
 683:C:/Users/stapi/OneDrive/Desktop/GD32VW553/GD32VW55X_Wifi_BLE_SDK/GD32VW55x_RELEASE_V1.0.2/MSDK/ble/app\app_conn_mgr.c **** }
 464              		.loc 1 683 1 discriminator 1
 465 0080 C1A0     		j	.L23
 466              	.L65:
 298:C:/Users/stapi/OneDrive/Desktop/GD32VW553/GD32VW55X_Wifi_BLE_SDK/GD32VW55x_RELEASE_V1.0.2/MSDK/ble/app\app_conn_mgr.c ****             dbg_print(NOTICE, "===> init conn started idx %u, wl_used %d\r\n",
 467              		.loc 1 298 16 is_stmt 1
 298:C:/Users/stapi/OneDrive/Desktop/GD32VW553/GD32VW55X_Wifi_BLE_SDK/GD32VW55x_RELEASE_V1.0.2/MSDK/ble/app\app_conn_mgr.c ****             dbg_print(NOTICE, "===> init conn started idx %u, wl_used %d\r\n",
 468              		.loc 1 298 19 is_stmt 0
 469 0082 0947     		li	a4,2
 470 0084 6391E702 		bne	a5,a4,.L67
 299:C:/Users/stapi/OneDrive/Desktop/GD32VW553/GD32VW55X_Wifi_BLE_SDK/GD32VW55x_RELEASE_V1.0.2/MSDK/ble/app\app_conn_mgr.c ****                       p_data->init_state.init_idx, p_data->init_state.wl_used);
 471              		.loc 1 299 13 is_stmt 1
 299:C:/Users/stapi/OneDrive/Desktop/GD32VW553/GD32VW55X_Wifi_BLE_SDK/GD32VW55x_RELEASE_V1.0.2/MSDK/ble/app\app_conn_mgr.c ****                       p_data->init_state.init_idx, p_data->init_state.wl_used);
 472              		.loc 1 299 13
 473 0088 37070000 		lui	a4,%hi(global_debug_level)
 474 008c 03470700 		lbu	a4,%lo(global_debug_level)(a4)
 475 0090 63F8E70A 		bleu	a4,a5,.L23
 299:C:/Users/stapi/OneDrive/Desktop/GD32VW553/GD32VW55X_Wifi_BLE_SDK/GD32VW55x_RELEASE_V1.0.2/MSDK/ble/app\app_conn_mgr.c ****                       p_data->init_state.init_idx, p_data->init_state.wl_used);
 476              		.loc 1 299 13 discriminator 1
 477 0094 37050000 		lui	a0,%hi(.LC3)
 478 0098 03C61500 		lbu	a2,1(a1)
 479 009c 13050500 		addi	a0,a0,%lo(.LC3)
 480 00a0 83C50500 		lbu	a1,0(a1)
 481 00a4 D1BF     		j	.L140
 482              	.L67:
 301:C:/Users/stapi/OneDrive/Desktop/GD32VW553/GD32VW55X_Wifi_BLE_SDK/GD32VW55x_RELEASE_V1.0.2/MSDK/ble/app\app_conn_mgr.c ****             dbg_print(NOTICE, "===> init conn disabling idx %u, wl_used %d reason 0x%x\r\n",
 483              		.loc 1 301 16
 301:C:/Users/stapi/OneDrive/Desktop/GD32VW553/GD32VW55X_Wifi_BLE_SDK/GD32VW55x_RELEASE_V1.0.2/MSDK/ble/app\app_conn_mgr.c ****             dbg_print(NOTICE, "===> init conn disabling idx %u, wl_used %d reason 0x%x\r\n",
 484              		.loc 1 301 19 is_stmt 0
 485 00a6 8D46     		li	a3,3
 486 00a8 639CD708 		bne	a5,a3,.L23
 302:C:/Users/stapi/OneDrive/Desktop/GD32VW553/GD32VW55X_Wifi_BLE_SDK/GD32VW55x_RELEASE_V1.0.2/MSDK/ble/app\app_conn_mgr.c ****                       p_data->init_state.init_idx, p_data->init_state.wl_used, p_data->init_state.r
 487              		.loc 1 302 13 is_stmt 1
 302:C:/Users/stapi/OneDrive/Desktop/GD32VW553/GD32VW55X_Wifi_BLE_SDK/GD32VW55x_RELEASE_V1.0.2/MSDK/ble/app\app_conn_mgr.c ****                       p_data->init_state.init_idx, p_data->init_state.wl_used, p_data->init_state.r
 488              		.loc 1 302 13
 489 00ac B7070000 		lui	a5,%hi(global_debug_level)
 490 00b0 83C60700 		lbu	a3,%lo(global_debug_level)(a5)
 491 00b4 BE84     		mv	s1,a5
 492 00b6 6370D702 		bleu	a3,a4,.L68
 302:C:/Users/stapi/OneDrive/Desktop/GD32VW553/GD32VW55X_Wifi_BLE_SDK/GD32VW55x_RELEASE_V1.0.2/MSDK/ble/app\app_conn_mgr.c ****                       p_data->init_state.init_idx, p_data->init_state.wl_used, p_data->init_state.r
 493              		.loc 1 302 13 discriminator 1
 494 00ba 83D68500 		lhu	a3,8(a1)
 495 00be 03C61500 		lbu	a2,1(a1)
 496 00c2 83C50500 		lbu	a1,0(a1)
 497 00c6 37050000 		lui	a0,%hi(.LC4)
 498 00ca 13050500 		addi	a0,a0,%lo(.LC4)
 499 00ce 97000000 		call	co_printf
 499      E7800000 
 500              	.LVL22:
 501              	.L68:
 302:C:/Users/stapi/OneDrive/Desktop/GD32VW553/GD32VW55X_Wifi_BLE_SDK/GD32VW55x_RELEASE_V1.0.2/MSDK/ble/app\app_conn_mgr.c ****                       p_data->init_state.init_idx, p_data->init_state.wl_used, p_data->init_state.r
 502              		.loc 1 302 13 discriminator 3
 306:C:/Users/stapi/OneDrive/Desktop/GD32VW553/GD32VW55X_Wifi_BLE_SDK/GD32VW55x_RELEASE_V1.0.2/MSDK/ble/app\app_conn_mgr.c ****                 if (ble_conn_connect_cancel() != BLE_ERR_NO_ERROR) {
 503              		.loc 1 306 13 discriminator 3
 306:C:/Users/stapi/OneDrive/Desktop/GD32VW553/GD32VW55X_Wifi_BLE_SDK/GD32VW55x_RELEASE_V1.0.2/MSDK/ble/app\app_conn_mgr.c ****                 if (ble_conn_connect_cancel() != BLE_ERR_NO_ERROR) {
 504              		.loc 1 306 16 is_stmt 0 discriminator 3
 505 00d6 83578400 		lhu	a5,8(s0)
 506 00da BDC3     		beq	a5,zero,.L23
 307:C:/Users/stapi/OneDrive/Desktop/GD32VW553/GD32VW55X_Wifi_BLE_SDK/GD32VW55x_RELEASE_V1.0.2/MSDK/ble/app\app_conn_mgr.c ****                     dbg_print(NOTICE, "===> init conn disabling idx %u, cancel connecting fail!\r\n
 507              		.loc 1 307 17 is_stmt 1
 307:C:/Users/stapi/OneDrive/Desktop/GD32VW553/GD32VW55X_Wifi_BLE_SDK/GD32VW55x_RELEASE_V1.0.2/MSDK/ble/app\app_conn_mgr.c ****                     dbg_print(NOTICE, "===> init conn disabling idx %u, cancel connecting fail!\r\n
 508              		.loc 1 307 21 is_stmt 0
 509 00dc 97000000 		call	ble_conn_connect_cancel
 509      E7800000 
 510              	.LVL23:
 307:C:/Users/stapi/OneDrive/Desktop/GD32VW553/GD32VW55X_Wifi_BLE_SDK/GD32VW55x_RELEASE_V1.0.2/MSDK/ble/app\app_conn_mgr.c ****                     dbg_print(NOTICE, "===> init conn disabling idx %u, cancel connecting fail!\r\n
 511              		.loc 1 307 20
 512 00e4 31CD     		beq	a0,zero,.L23
 308:C:/Users/stapi/OneDrive/Desktop/GD32VW553/GD32VW55X_Wifi_BLE_SDK/GD32VW55x_RELEASE_V1.0.2/MSDK/ble/app\app_conn_mgr.c ****                               p_data->init_state.init_idx);
 513              		.loc 1 308 21 is_stmt 1 discriminator 2
 308:C:/Users/stapi/OneDrive/Desktop/GD32VW553/GD32VW55X_Wifi_BLE_SDK/GD32VW55x_RELEASE_V1.0.2/MSDK/ble/app\app_conn_mgr.c ****                               p_data->init_state.init_idx);
 514              		.loc 1 308 21 discriminator 2
 515 00e6 03C70400 		lbu	a4,%lo(global_debug_level)(s1)
 516 00ea 8947     		li	a5,2
 517 00ec 63FAE704 		bleu	a4,a5,.L23
 308:C:/Users/stapi/OneDrive/Desktop/GD32VW553/GD32VW55X_Wifi_BLE_SDK/GD32VW55x_RELEASE_V1.0.2/MSDK/ble/app\app_conn_mgr.c ****                               p_data->init_state.init_idx);
 518              		.loc 1 308 21 discriminator 1
 519 00f0 83450400 		lbu	a1,0(s0)
 520 00f4 37050000 		lui	a0,%hi(.LC5)
 521 00f8 13050500 		addi	a0,a0,%lo(.LC5)
 522              	.L142:
 436:C:/Users/stapi/OneDrive/Desktop/GD32VW553/GD32VW55X_Wifi_BLE_SDK/GD32VW55x_RELEASE_V1.0.2/MSDK/ble/app\app_conn_mgr.c ****     }
 523              		.loc 1 436 9 is_stmt 0 discriminator 1
 524 00fc 97000000 		call	co_printf
 524      E7800000 
 525              	.LVL24:
 526 0104 35A8     		j	.L23
 527              	.L61:
 317:C:/Users/stapi/OneDrive/Desktop/GD32VW553/GD32VW55X_Wifi_BLE_SDK/GD32VW55x_RELEASE_V1.0.2/MSDK/ble/app\app_conn_mgr.c ****             dbg_print(NOTICE, "disconnected. conn idx: %u, conn_hdl: 0x%x reason 0x%x\r\n",
 528              		.loc 1 317 9 is_stmt 1
 317:C:/Users/stapi/OneDrive/Desktop/GD32VW553/GD32VW55X_Wifi_BLE_SDK/GD32VW55x_RELEASE_V1.0.2/MSDK/ble/app\app_conn_mgr.c ****             dbg_print(NOTICE, "disconnected. conn idx: %u, conn_hdl: 0x%x reason 0x%x\r\n",
 529              		.loc 1 317 31 is_stmt 0
 530 0106 9C41     		lw	a5,0(a1)
 317:C:/Users/stapi/OneDrive/Desktop/GD32VW553/GD32VW55X_Wifi_BLE_SDK/GD32VW55x_RELEASE_V1.0.2/MSDK/ble/app\app_conn_mgr.c ****             dbg_print(NOTICE, "disconnected. conn idx: %u, conn_hdl: 0x%x reason 0x%x\r\n",
 531              		.loc 1 317 12
 532 0108 A9E3     		bne	a5,zero,.L69
 318:C:/Users/stapi/OneDrive/Desktop/GD32VW553/GD32VW55X_Wifi_BLE_SDK/GD32VW55x_RELEASE_V1.0.2/MSDK/ble/app\app_conn_mgr.c ****                       p_data->conn_state.info.discon_info.conn_idx, p_data->conn_state.info.discon_
 533              		.loc 1 318 13 is_stmt 1
 318:C:/Users/stapi/OneDrive/Desktop/GD32VW553/GD32VW55X_Wifi_BLE_SDK/GD32VW55x_RELEASE_V1.0.2/MSDK/ble/app\app_conn_mgr.c ****                       p_data->conn_state.info.discon_info.conn_idx, p_data->conn_state.info.discon_
 534              		.loc 1 318 13
 535 010a B7070000 		lui	a5,%hi(global_debug_level)
 536 010e 03C70700 		lbu	a4,%lo(global_debug_level)(a5)
 537 0112 8947     		li	a5,2
 538 0114 63F0E702 		bleu	a4,a5,.L70
 318:C:/Users/stapi/OneDrive/Desktop/GD32VW553/GD32VW55X_Wifi_BLE_SDK/GD32VW55x_RELEASE_V1.0.2/MSDK/ble/app\app_conn_mgr.c ****                       p_data->conn_state.info.discon_info.conn_idx, p_data->conn_state.info.discon_
 539              		.loc 1 318 13 discriminator 1
 540 0118 83D68500 		lhu	a3,8(a1)
 541 011c 03D66500 		lhu	a2,6(a1)
 542 0120 83C54500 		lbu	a1,4(a1)
 543 0124 37050000 		lui	a0,%hi(.LC6)
 544 0128 13050500 		addi	a0,a0,%lo(.LC6)
 545 012c 97000000 		call	co_printf
 545      E7800000 
 546              	.LVL25:
 547              	.L70:
 318:C:/Users/stapi/OneDrive/Desktop/GD32VW553/GD32VW55X_Wifi_BLE_SDK/GD32VW55x_RELEASE_V1.0.2/MSDK/ble/app\app_conn_mgr.c ****                       p_data->conn_state.info.discon_info.conn_idx, p_data->conn_state.info.discon_
 548              		.loc 1 318 13 discriminator 3
 321:C:/Users/stapi/OneDrive/Desktop/GD32VW553/GD32VW55X_Wifi_BLE_SDK/GD32VW55x_RELEASE_V1.0.2/MSDK/ble/app\app_conn_mgr.c ****         } else if (p_data->conn_state.state == BLE_CONN_STATE_CONNECTED) {
 549              		.loc 1 321 13 discriminator 3
 550 0134 03454400 		lbu	a0,4(s0)
 551 0138 97000000 		call	dm_handle_dev_disconnected
 551      E7800000 
 552              	.LVL26:
 553              	.L23:
 554              		.loc 1 683 1 is_stmt 0
 555 0140 4961     		addi	sp,sp,144
 556              		.cfi_remember_state
 557              		.cfi_def_cfa_offset 0
 558 0142 17030000 		tail	__riscv_restore_5
 558      67000300 
 559              		.cfi_restore 20
 560              		.cfi_restore 19
 561              		.cfi_restore 18
 562              		.cfi_restore 9
 563              		.cfi_restore 8
 564              		.cfi_restore 1
 565              		.cfi_def_cfa_offset -32
 566              	.LVL27:
 567              	.L69:
 568              		.cfi_restore_state
 322:C:/Users/stapi/OneDrive/Desktop/GD32VW553/GD32VW55X_Wifi_BLE_SDK/GD32VW55x_RELEASE_V1.0.2/MSDK/ble/app\app_conn_mgr.c ****             app_conn_mgr_handle_connected(p_data);
 569              		.loc 1 322 16 is_stmt 1
 322:C:/Users/stapi/OneDrive/Desktop/GD32VW553/GD32VW55X_Wifi_BLE_SDK/GD32VW55x_RELEASE_V1.0.2/MSDK/ble/app\app_conn_mgr.c ****             app_conn_mgr_handle_connected(p_data);
 570              		.loc 1 322 19 is_stmt 0
 571 014a 0547     		li	a4,1
 572 014c E39AE7FE 		bne	a5,a4,.L23
 323:C:/Users/stapi/OneDrive/Desktop/GD32VW553/GD32VW55X_Wifi_BLE_SDK/GD32VW55x_RELEASE_V1.0.2/MSDK/ble/app\app_conn_mgr.c **** 
 573              		.loc 1 323 13 is_stmt 1
 574              	.LVL28:
 575              	.LBB9:
 576              	.LBB10:
 220:C:/Users/stapi/OneDrive/Desktop/GD32VW553/GD32VW55X_Wifi_BLE_SDK/GD32VW55x_RELEASE_V1.0.2/MSDK/ble/app\app_conn_mgr.c ****     dbg_print(NOTICE, "connect success. conn idx:%u, conn_hdl:0x%x \r\n",
 577              		.loc 1 220 5
 221:C:/Users/stapi/OneDrive/Desktop/GD32VW553/GD32VW55X_Wifi_BLE_SDK/GD32VW55x_RELEASE_V1.0.2/MSDK/ble/app\app_conn_mgr.c ****               p_data->conn_state.info.conn_info.conn_idx, p_data->conn_state.info.conn_info.conn_hd
 578              		.loc 1 221 5
 221:C:/Users/stapi/OneDrive/Desktop/GD32VW553/GD32VW55X_Wifi_BLE_SDK/GD32VW55x_RELEASE_V1.0.2/MSDK/ble/app\app_conn_mgr.c ****               p_data->conn_state.info.conn_info.conn_idx, p_data->conn_state.info.conn_info.conn_hd
 579              		.loc 1 221 5
 580 0150 B7070000 		lui	a5,%hi(global_debug_level)
 581 0154 03C70700 		lbu	a4,%lo(global_debug_level)(a5)
 582 0158 8947     		li	a5,2
 583 015a 63FEE700 		bleu	a4,a5,.L71
 221:C:/Users/stapi/OneDrive/Desktop/GD32VW553/GD32VW55X_Wifi_BLE_SDK/GD32VW55x_RELEASE_V1.0.2/MSDK/ble/app\app_conn_mgr.c ****               p_data->conn_state.info.conn_info.conn_idx, p_data->conn_state.info.conn_info.conn_hd
 584              		.loc 1 221 5
 585 015e 03D66500 		lhu	a2,6(a1)
 586 0162 83C54500 		lbu	a1,4(a1)
 587 0166 37050000 		lui	a0,%hi(.LC7)
 588 016a 13050500 		addi	a0,a0,%lo(.LC7)
 589 016e 97000000 		call	co_printf
 589      E7800000 
 590              	.LVL29:
 591              	.L71:
 221:C:/Users/stapi/OneDrive/Desktop/GD32VW553/GD32VW55X_Wifi_BLE_SDK/GD32VW55x_RELEASE_V1.0.2/MSDK/ble/app\app_conn_mgr.c ****               p_data->conn_state.info.conn_info.conn_idx, p_data->conn_state.info.conn_info.conn_hd
 592              		.loc 1 221 5
 224:C:/Users/stapi/OneDrive/Desktop/GD32VW553/GD32VW55X_Wifi_BLE_SDK/GD32VW55x_RELEASE_V1.0.2/MSDK/ble/app\app_conn_mgr.c ****     if (p_device != NULL) {
 593              		.loc 1 224 5
 224:C:/Users/stapi/OneDrive/Desktop/GD32VW553/GD32VW55X_Wifi_BLE_SDK/GD32VW55x_RELEASE_V1.0.2/MSDK/ble/app\app_conn_mgr.c ****     if (p_device != NULL) {
 594              		.loc 1 224 16 is_stmt 0
 595 0176 03450401 		lbu	a0,16(s0)
 596 017a 0347F400 		lbu	a4,15(s0)
 597 017e 83474401 		lbu	a5,20(s0)
 598 0182 2205     		slli	a0,a0,8
 599 0184 598D     		or	a0,a0,a4
 600 0186 03471401 		lbu	a4,17(s0)
 601 018a 83453401 		lbu	a1,19(s0)
 602 018e A207     		slli	a5,a5,8
 603 0190 4207     		slli	a4,a4,16
 604 0192 498F     		or	a4,a4,a0
 605 0194 CD8F     		or	a5,a5,a1
 606 0196 03452401 		lbu	a0,18(s0)
 607 019a 83455401 		lbu	a1,21(s0)
 608 019e 6205     		slli	a0,a0,24
 609 01a0 C205     		slli	a1,a1,16
 610 01a2 598D     		or	a0,a0,a4
 611 01a4 DD8D     		or	a1,a1,a5
 612 01a6 97000000 		call	dm_find_alloc_dev_by_addr
 612      E7800000 
 613              	.LVL30:
 614 01ae AA84     		mv	s1,a0
 615              	.LVL31:
 225:C:/Users/stapi/OneDrive/Desktop/GD32VW553/GD32VW55X_Wifi_BLE_SDK/GD32VW55x_RELEASE_V1.0.2/MSDK/ble/app\app_conn_mgr.c ****         p_device->conn_idx = p_data->conn_state.info.conn_info.conn_idx;
 616              		.loc 1 225 5 is_stmt 1
 225:C:/Users/stapi/OneDrive/Desktop/GD32VW553/GD32VW55X_Wifi_BLE_SDK/GD32VW55x_RELEASE_V1.0.2/MSDK/ble/app\app_conn_mgr.c ****         p_device->conn_idx = p_data->conn_state.info.conn_info.conn_idx;
 617              		.loc 1 225 8 is_stmt 0
 618 01b0 45C9     		beq	a0,zero,.L73
 226:C:/Users/stapi/OneDrive/Desktop/GD32VW553/GD32VW55X_Wifi_BLE_SDK/GD32VW55x_RELEASE_V1.0.2/MSDK/ble/app\app_conn_mgr.c ****         p_device->conn_hdl = p_data->conn_state.info.conn_info.conn_hdl;
 619              		.loc 1 226 9 is_stmt 1
 226:C:/Users/stapi/OneDrive/Desktop/GD32VW553/GD32VW55X_Wifi_BLE_SDK/GD32VW55x_RELEASE_V1.0.2/MSDK/ble/app\app_conn_mgr.c ****         p_device->conn_hdl = p_data->conn_state.info.conn_info.conn_hdl;
 620              		.loc 1 226 28 is_stmt 0
 621 01b2 83474400 		lbu	a5,4(s0)
 622 01b6 A307F500 		sb	a5,15(a0)
 227:C:/Users/stapi/OneDrive/Desktop/GD32VW553/GD32VW55X_Wifi_BLE_SDK/GD32VW55x_RELEASE_V1.0.2/MSDK/ble/app\app_conn_mgr.c ****         p_device->state = BLE_CONN_STATE_CONNECTED;
 623              		.loc 1 227 9 is_stmt 1
 227:C:/Users/stapi/OneDrive/Desktop/GD32VW553/GD32VW55X_Wifi_BLE_SDK/GD32VW55x_RELEASE_V1.0.2/MSDK/ble/app\app_conn_mgr.c ****         p_device->state = BLE_CONN_STATE_CONNECTED;
 624              		.loc 1 227 28 is_stmt 0
 625 01ba 83576400 		lhu	a5,6(s0)
 626 01be 2318F500 		sh	a5,16(a0)
 228:C:/Users/stapi/OneDrive/Desktop/GD32VW553/GD32VW55X_Wifi_BLE_SDK/GD32VW55x_RELEASE_V1.0.2/MSDK/ble/app\app_conn_mgr.c ****         p_device->role = p_data->conn_state.info.conn_info.role;
 627              		.loc 1 228 9 is_stmt 1
 228:C:/Users/stapi/OneDrive/Desktop/GD32VW553/GD32VW55X_Wifi_BLE_SDK/GD32VW55x_RELEASE_V1.0.2/MSDK/ble/app\app_conn_mgr.c ****         p_device->role = p_data->conn_state.info.conn_info.role;
 628              		.loc 1 228 25 is_stmt 0
 629 01c2 8547     		li	a5,1
 630 01c4 1CCD     		sw	a5,24(a0)
 229:C:/Users/stapi/OneDrive/Desktop/GD32VW553/GD32VW55X_Wifi_BLE_SDK/GD32VW55x_RELEASE_V1.0.2/MSDK/ble/app\app_conn_mgr.c ****         p_device->conn_info.interval = p_data->conn_state.info.conn_info.con_interval;
 631              		.loc 1 229 9 is_stmt 1
 229:C:/Users/stapi/OneDrive/Desktop/GD32VW553/GD32VW55X_Wifi_BLE_SDK/GD32VW55x_RELEASE_V1.0.2/MSDK/ble/app\app_conn_mgr.c ****         p_device->conn_info.interval = p_data->conn_state.info.conn_info.con_interval;
 632              		.loc 1 229 59 is_stmt 0
 633 01c6 83476401 		lbu	a5,22(s0)
 634 01ca 5CCD     		sw	a5,28(a0)
 230:C:/Users/stapi/OneDrive/Desktop/GD32VW553/GD32VW55X_Wifi_BLE_SDK/GD32VW55x_RELEASE_V1.0.2/MSDK/ble/app\app_conn_mgr.c ****         p_device->conn_info.latency = p_data->conn_state.info.conn_info.con_latency;
 635              		.loc 1 230 9 is_stmt 1
 230:C:/Users/stapi/OneDrive/Desktop/GD32VW553/GD32VW55X_Wifi_BLE_SDK/GD32VW55x_RELEASE_V1.0.2/MSDK/ble/app\app_conn_mgr.c ****         p_device->conn_info.latency = p_data->conn_state.info.conn_info.con_latency;
 636              		.loc 1 230 38 is_stmt 0
 637 01cc 83578400 		lhu	a5,8(s0)
 638 01d0 2314F502 		sh	a5,40(a0)
 231:C:/Users/stapi/OneDrive/Desktop/GD32VW553/GD32VW55X_Wifi_BLE_SDK/GD32VW55x_RELEASE_V1.0.2/MSDK/ble/app\app_conn_mgr.c ****         p_device->conn_info.supv_tout = p_data->conn_state.info.conn_info.sup_to;
 639              		.loc 1 231 9 is_stmt 1
 231:C:/Users/stapi/OneDrive/Desktop/GD32VW553/GD32VW55X_Wifi_BLE_SDK/GD32VW55x_RELEASE_V1.0.2/MSDK/ble/app\app_conn_mgr.c ****         p_device->conn_info.supv_tout = p_data->conn_state.info.conn_info.sup_to;
 640              		.loc 1 231 37 is_stmt 0
 641 01d4 8357A400 		lhu	a5,10(s0)
 642 01d8 2315F502 		sh	a5,42(a0)
 232:C:/Users/stapi/OneDrive/Desktop/GD32VW553/GD32VW55X_Wifi_BLE_SDK/GD32VW55x_RELEASE_V1.0.2/MSDK/ble/app\app_conn_mgr.c ****         p_device->conn_info.ce_len_min = p_device->conn_info.ce_len_max = 0;
 643              		.loc 1 232 9 is_stmt 1
 232:C:/Users/stapi/OneDrive/Desktop/GD32VW553/GD32VW55X_Wifi_BLE_SDK/GD32VW55x_RELEASE_V1.0.2/MSDK/ble/app\app_conn_mgr.c ****         p_device->conn_info.ce_len_min = p_device->conn_info.ce_len_max = 0;
 644              		.loc 1 232 39 is_stmt 0
 645 01dc 8357C400 		lhu	a5,12(s0)
 233:C:/Users/stapi/OneDrive/Desktop/GD32VW553/GD32VW55X_Wifi_BLE_SDK/GD32VW55x_RELEASE_V1.0.2/MSDK/ble/app\app_conn_mgr.c **** 
 646              		.loc 1 233 73
 647 01e0 23180502 		sh	zero,48(a0)
 233:C:/Users/stapi/OneDrive/Desktop/GD32VW553/GD32VW55X_Wifi_BLE_SDK/GD32VW55x_RELEASE_V1.0.2/MSDK/ble/app\app_conn_mgr.c **** 
 648              		.loc 1 233 40
 649 01e4 23170502 		sh	zero,46(a0)
 232:C:/Users/stapi/OneDrive/Desktop/GD32VW553/GD32VW55X_Wifi_BLE_SDK/GD32VW55x_RELEASE_V1.0.2/MSDK/ble/app\app_conn_mgr.c ****         p_device->conn_info.ce_len_min = p_device->conn_info.ce_len_max = 0;
 650              		.loc 1 232 39
 651 01e8 2316F502 		sh	a5,44(a0)
 233:C:/Users/stapi/OneDrive/Desktop/GD32VW553/GD32VW55X_Wifi_BLE_SDK/GD32VW55x_RELEASE_V1.0.2/MSDK/ble/app\app_conn_mgr.c **** 
 652              		.loc 1 233 9 is_stmt 1
 236:C:/Users/stapi/OneDrive/Desktop/GD32VW553/GD32VW55X_Wifi_BLE_SDK/GD32VW55x_RELEASE_V1.0.2/MSDK/ble/app\app_conn_mgr.c ****             ble_gap_sec_bond_data_t bond_data = {0};
 653              		.loc 1 236 9
 236:C:/Users/stapi/OneDrive/Desktop/GD32VW553/GD32VW55X_Wifi_BLE_SDK/GD32VW55x_RELEASE_V1.0.2/MSDK/ble/app\app_conn_mgr.c ****             ble_gap_sec_bond_data_t bond_data = {0};
 654              		.loc 1 236 13 is_stmt 0
 655 01ec 97000000 		call	app_sec_user_key_mgr_get
 655      E7800000 
 656              	.LVL32:
 236:C:/Users/stapi/OneDrive/Desktop/GD32VW553/GD32VW55X_Wifi_BLE_SDK/GD32VW55x_RELEASE_V1.0.2/MSDK/ble/app\app_conn_mgr.c ****             ble_gap_sec_bond_data_t bond_data = {0};
 657              		.loc 1 236 12
 658 01f4 05CD     		beq	a0,zero,.L74
 659              	.LBB11:
 237:C:/Users/stapi/OneDrive/Desktop/GD32VW553/GD32VW55X_Wifi_BLE_SDK/GD32VW55x_RELEASE_V1.0.2/MSDK/ble/app\app_conn_mgr.c **** 
 660              		.loc 1 237 13 is_stmt 1
 237:C:/Users/stapi/OneDrive/Desktop/GD32VW553/GD32VW55X_Wifi_BLE_SDK/GD32VW55x_RELEASE_V1.0.2/MSDK/ble/app\app_conn_mgr.c **** 
 661              		.loc 1 237 37 is_stmt 0
 662 01f6 13068007 		li	a2,120
 663 01fa 8145     		li	a1,0
 664 01fc 2808     		addi	a0,sp,24
 665 01fe 97000000 		call	memset
 665      E7800000 
 666              	.LVL33:
 239:C:/Users/stapi/OneDrive/Desktop/GD32VW553/GD32VW55X_Wifi_BLE_SDK/GD32VW55x_RELEASE_V1.0.2/MSDK/ble/app\app_conn_mgr.c ****             ble_conn_sec_info_set(p_device->conn_idx, bond_data.local_csrk.csrk, bond_data.peer_csr
 667              		.loc 1 239 13 is_stmt 1
 668 0206 2C08     		addi	a1,sp,24
 669 0208 1305F400 		addi	a0,s0,15
 670 020c 97000000 		call	ble_peer_data_bond_load
 670      E7800000 
 671              	.LVL34:
 240:C:/Users/stapi/OneDrive/Desktop/GD32VW553/GD32VW55X_Wifi_BLE_SDK/GD32VW55x_RELEASE_V1.0.2/MSDK/ble/app\app_conn_mgr.c ****                                   bond_data.pairing_lvl, bond_data.enc_key_present);
 672              		.loc 1 240 13
 673 0214 03479101 		lbu	a4,25(sp)
 674 0218 83468101 		lbu	a3,24(sp)
 675 021c 03C5F400 		lbu	a0,15(s1)
 676 0220 9018     		addi	a2,sp,112
 677 0222 0C01     		addi	a1,sp,128
 678 0224 97000000 		call	ble_conn_sec_info_set
 678      E7800000 
 679              	.LVL35:
 680              	.L74:
 681              	.LBE11:
 244:C:/Users/stapi/OneDrive/Desktop/GD32VW553/GD32VW55X_Wifi_BLE_SDK/GD32VW55x_RELEASE_V1.0.2/MSDK/ble/app\app_conn_mgr.c ****             ble_conn_peer_version_get(p_data->conn_state.info.conn_info.conn_idx);
 682              		.loc 1 244 9
 244:C:/Users/stapi/OneDrive/Desktop/GD32VW553/GD32VW55X_Wifi_BLE_SDK/GD32VW55x_RELEASE_V1.0.2/MSDK/ble/app\app_conn_mgr.c ****             ble_conn_peer_version_get(p_data->conn_state.info.conn_info.conn_idx);
 683              		.loc 1 244 12 is_stmt 0
 684 022c DC4C     		lw	a5,28(s1)
 685 022e A5EF     		bne	a5,zero,.L75
 245:C:/Users/stapi/OneDrive/Desktop/GD32VW553/GD32VW55X_Wifi_BLE_SDK/GD32VW55x_RELEASE_V1.0.2/MSDK/ble/app\app_conn_mgr.c ****             ble_conn_peer_feats_get(p_data->conn_state.info.conn_info.conn_idx);
 686              		.loc 1 245 13 is_stmt 1
 687 0230 03454400 		lbu	a0,4(s0)
 688 0234 97000000 		call	ble_conn_peer_version_get
 688      E7800000 
 689              	.LVL36:
 246:C:/Users/stapi/OneDrive/Desktop/GD32VW553/GD32VW55X_Wifi_BLE_SDK/GD32VW55x_RELEASE_V1.0.2/MSDK/ble/app\app_conn_mgr.c **** 
 690              		.loc 1 246 13
 691 023c 03454400 		lbu	a0,4(s0)
 692 0240 97000000 		call	ble_conn_peer_feats_get
 692      E7800000 
 693              	.LVL37:
 248:C:/Users/stapi/OneDrive/Desktop/GD32VW553/GD32VW55X_Wifi_BLE_SDK/GD32VW55x_RELEASE_V1.0.2/MSDK/ble/app\app_conn_mgr.c ****                 app_sec_send_encrypt_req(p_device->conn_idx);
 694              		.loc 1 248 13
 248:C:/Users/stapi/OneDrive/Desktop/GD32VW553/GD32VW55X_Wifi_BLE_SDK/GD32VW55x_RELEASE_V1.0.2/MSDK/ble/app\app_conn_mgr.c ****                 app_sec_send_encrypt_req(p_device->conn_idx);
 695              		.loc 1 248 16 is_stmt 0
 696 0248 83C72401 		lbu	a5,18(s1)
 697 024c 9DCF     		beq	a5,zero,.L76
 248:C:/Users/stapi/OneDrive/Desktop/GD32VW553/GD32VW55X_Wifi_BLE_SDK/GD32VW55x_RELEASE_V1.0.2/MSDK/ble/app\app_conn_mgr.c ****                 app_sec_send_encrypt_req(p_device->conn_idx);
 698              		.loc 1 248 66
 699 024e BC40     		lw	a5,64(s1)
 700 0250 898B     		andi	a5,a5,2
 248:C:/Users/stapi/OneDrive/Desktop/GD32VW553/GD32VW55X_Wifi_BLE_SDK/GD32VW55x_RELEASE_V1.0.2/MSDK/ble/app\app_conn_mgr.c ****                 app_sec_send_encrypt_req(p_device->conn_idx);
 701              		.loc 1 248 34
 702 0252 85CF     		beq	a5,zero,.L76
 249:C:/Users/stapi/OneDrive/Desktop/GD32VW553/GD32VW55X_Wifi_BLE_SDK/GD32VW55x_RELEASE_V1.0.2/MSDK/ble/app\app_conn_mgr.c ****             } else {
 703              		.loc 1 249 17 is_stmt 1
 704 0254 03C5F400 		lbu	a0,15(s1)
 705 0258 97000000 		call	app_sec_send_encrypt_req
 705      E7800000 
 706              	.LVL38:
 707              	.L73:
 708              	.LBE10:
 709              	.LBE9:
 326:C:/Users/stapi/OneDrive/Desktop/GD32VW553/GD32VW55X_Wifi_BLE_SDK/GD32VW55x_RELEASE_V1.0.2/MSDK/ble/app\app_conn_mgr.c ****                 app_conn_fast_param_enable(p_data->conn_state.info.conn_info.conn_idx);
 710              		.loc 1 326 13
 326:C:/Users/stapi/OneDrive/Desktop/GD32VW553/GD32VW55X_Wifi_BLE_SDK/GD32VW55x_RELEASE_V1.0.2/MSDK/ble/app\app_conn_mgr.c ****                 app_conn_fast_param_enable(p_data->conn_state.info.conn_info.conn_idx);
 711              		.loc 1 326 16 is_stmt 0
 712 0260 83476401 		lbu	a5,22(s0)
 713 0264 E39E07EC 		bne	a5,zero,.L23
 327:C:/Users/stapi/OneDrive/Desktop/GD32VW553/GD32VW55X_Wifi_BLE_SDK/GD32VW55x_RELEASE_V1.0.2/MSDK/ble/app\app_conn_mgr.c ****                 ble_gattc_start_discovery(p_data->conn_state.info.conn_info.conn_idx,
 714              		.loc 1 327 17 is_stmt 1
 715 0268 03454400 		lbu	a0,4(s0)
 716 026c 97000000 		call	app_conn_fast_param_enable
 716      E7800000 
 717              	.LVL39:
 328:C:/Users/stapi/OneDrive/Desktop/GD32VW553/GD32VW55X_Wifi_BLE_SDK/GD32VW55x_RELEASE_V1.0.2/MSDK/ble/app\app_conn_mgr.c ****                                           ble_app_conn_gatt_discovery_callback);
 718              		.loc 1 328 17
 719 0274 03454400 		lbu	a0,4(s0)
 720 0278 B7050000 		lui	a1,%hi(ble_app_conn_gatt_discovery_callback)
 721 027c 93850500 		addi	a1,a1,%lo(ble_app_conn_gatt_discovery_callback)
 722 0280 97000000 		call	ble_gattc_start_discovery
 722      E7800000 
 723              	.LVL40:
 724 0288 65BD     		j	.L23
 725              	.LVL41:
 726              	.L76:
 727              	.LBB13:
 728              	.LBB12:
 251:C:/Users/stapi/OneDrive/Desktop/GD32VW553/GD32VW55X_Wifi_BLE_SDK/GD32VW55x_RELEASE_V1.0.2/MSDK/ble/app\app_conn_mgr.c ****                     app_sec_send_bond_req(p_device->conn_idx);
 729              		.loc 1 251 17
 251:C:/Users/stapi/OneDrive/Desktop/GD32VW553/GD32VW55X_Wifi_BLE_SDK/GD32VW55x_RELEASE_V1.0.2/MSDK/ble/app\app_conn_mgr.c ****                     app_sec_send_bond_req(p_device->conn_idx);
 730              		.loc 1 251 21 is_stmt 0
 731 028a 8844     		lw	a0,8(s1)
 732 028c CC44     		lw	a1,12(s1)
 733 028e 97000000 		call	app_sec_is_pairing_device
 733      E7800000 
 734              	.LVL42:
 251:C:/Users/stapi/OneDrive/Desktop/GD32VW553/GD32VW55X_Wifi_BLE_SDK/GD32VW55x_RELEASE_V1.0.2/MSDK/ble/app\app_conn_mgr.c ****                     app_sec_send_bond_req(p_device->conn_idx);
 735              		.loc 1 251 20
 736 0296 69D5     		beq	a0,zero,.L73
 252:C:/Users/stapi/OneDrive/Desktop/GD32VW553/GD32VW55X_Wifi_BLE_SDK/GD32VW55x_RELEASE_V1.0.2/MSDK/ble/app\app_conn_mgr.c ****                 }
 737              		.loc 1 252 21 is_stmt 1
 738 0298 03C5F400 		lbu	a0,15(s1)
 739 029c 97000000 		call	app_sec_send_bond_req
 739      E7800000 
 740              	.LVL43:
 741 02a4 75BF     		j	.L73
 742              	.L75:
 257:C:/Users/stapi/OneDrive/Desktop/GD32VW553/GD32VW55X_Wifi_BLE_SDK/GD32VW55x_RELEASE_V1.0.2/MSDK/ble/app\app_conn_mgr.c ****                 app_sec_send_security_req(p_device->conn_idx);
 743              		.loc 1 257 13
 257:C:/Users/stapi/OneDrive/Desktop/GD32VW553/GD32VW55X_Wifi_BLE_SDK/GD32VW55x_RELEASE_V1.0.2/MSDK/ble/app\app_conn_mgr.c ****                 app_sec_send_security_req(p_device->conn_idx);
 744              		.loc 1 257 17 is_stmt 0
 745 02a6 97000000 		call	app_sec_need_authen_bond
 745      E7800000 
 746              	.LVL44:
 257:C:/Users/stapi/OneDrive/Desktop/GD32VW553/GD32VW55X_Wifi_BLE_SDK/GD32VW55x_RELEASE_V1.0.2/MSDK/ble/app\app_conn_mgr.c ****                 app_sec_send_security_req(p_device->conn_idx);
 747              		.loc 1 257 16
 748 02ae 4DD9     		beq	a0,zero,.L73
 258:C:/Users/stapi/OneDrive/Desktop/GD32VW553/GD32VW55X_Wifi_BLE_SDK/GD32VW55x_RELEASE_V1.0.2/MSDK/ble/app\app_conn_mgr.c ****             }
 749              		.loc 1 258 17 is_stmt 1
 750 02b0 03C5F400 		lbu	a0,15(s1)
 751 02b4 97000000 		call	app_sec_send_security_req
 751      E7800000 
 752              	.LVL45:
 753 02bc 55B7     		j	.L73
 754              	.LVL46:
 755              	.L60:
 756              	.LBE12:
 757              	.LBE13:
 758              	.LBB14:
 337:C:/Users/stapi/OneDrive/Desktop/GD32VW553/GD32VW55X_Wifi_BLE_SDK/GD32VW55x_RELEASE_V1.0.2/MSDK/ble/app\app_conn_mgr.c ****         dbg_print(NOTICE, "disconnect fail. conn idx %u, reason 0x%x\r\n",
 759              		.loc 1 337 9
 338:C:/Users/stapi/OneDrive/Desktop/GD32VW553/GD32VW55X_Wifi_BLE_SDK/GD32VW55x_RELEASE_V1.0.2/MSDK/ble/app\app_conn_mgr.c ****                   p_data->disconn_fail.conn_idx, p_data->disconn_fail.reason);
 760              		.loc 1 338 9
 338:C:/Users/stapi/OneDrive/Desktop/GD32VW553/GD32VW55X_Wifi_BLE_SDK/GD32VW55x_RELEASE_V1.0.2/MSDK/ble/app\app_conn_mgr.c ****                   p_data->disconn_fail.conn_idx, p_data->disconn_fail.reason);
 761              		.loc 1 338 9
 762 02be B7070000 		lui	a5,%hi(global_debug_level)
 763 02c2 03C70700 		lbu	a4,%lo(global_debug_level)(a5)
 764 02c6 8947     		li	a5,2
 765 02c8 63FEE700 		bleu	a4,a5,.L78
 338:C:/Users/stapi/OneDrive/Desktop/GD32VW553/GD32VW55X_Wifi_BLE_SDK/GD32VW55x_RELEASE_V1.0.2/MSDK/ble/app\app_conn_mgr.c ****                   p_data->disconn_fail.conn_idx, p_data->disconn_fail.reason);
 766              		.loc 1 338 9 discriminator 1
 767 02cc 03D62500 		lhu	a2,2(a1)
 768 02d0 83C50500 		lbu	a1,0(a1)
 769 02d4 37050000 		lui	a0,%hi(.LC8)
 770 02d8 13050500 		addi	a0,a0,%lo(.LC8)
 771 02dc 97000000 		call	co_printf
 771      E7800000 
 772              	.LVL47:
 773              	.L78:
 338:C:/Users/stapi/OneDrive/Desktop/GD32VW553/GD32VW55X_Wifi_BLE_SDK/GD32VW55x_RELEASE_V1.0.2/MSDK/ble/app\app_conn_mgr.c ****                   p_data->disconn_fail.conn_idx, p_data->disconn_fail.reason);
 774              		.loc 1 338 9 discriminator 3
 340:C:/Users/stapi/OneDrive/Desktop/GD32VW553/GD32VW55X_Wifi_BLE_SDK/GD32VW55x_RELEASE_V1.0.2/MSDK/ble/app\app_conn_mgr.c ****         if (p_device != NULL) {
 775              		.loc 1 340 9 discriminator 3
 340:C:/Users/stapi/OneDrive/Desktop/GD32VW553/GD32VW55X_Wifi_BLE_SDK/GD32VW55x_RELEASE_V1.0.2/MSDK/ble/app\app_conn_mgr.c ****         if (p_device != NULL) {
 776              		.loc 1 340 20 is_stmt 0 discriminator 3
 777 02e4 03450400 		lbu	a0,0(s0)
 778 02e8 97000000 		call	dm_find_dev_by_conidx
 778      E7800000 
 779              	.LVL48:
 341:C:/Users/stapi/OneDrive/Desktop/GD32VW553/GD32VW55X_Wifi_BLE_SDK/GD32VW55x_RELEASE_V1.0.2/MSDK/ble/app\app_conn_mgr.c ****             p_device->state = BLE_CONN_STATE_CONNECTED;
 780              		.loc 1 341 9 is_stmt 1 discriminator 3
 341:C:/Users/stapi/OneDrive/Desktop/GD32VW553/GD32VW55X_Wifi_BLE_SDK/GD32VW55x_RELEASE_V1.0.2/MSDK/ble/app\app_conn_mgr.c ****             p_device->state = BLE_CONN_STATE_CONNECTED;
 781              		.loc 1 341 12 is_stmt 0 discriminator 3
 782 02f0 E30805E4 		beq	a0,zero,.L23
 342:C:/Users/stapi/OneDrive/Desktop/GD32VW553/GD32VW55X_Wifi_BLE_SDK/GD32VW55x_RELEASE_V1.0.2/MSDK/ble/app\app_conn_mgr.c ****         }
 783              		.loc 1 342 13 is_stmt 1
 342:C:/Users/stapi/OneDrive/Desktop/GD32VW553/GD32VW55X_Wifi_BLE_SDK/GD32VW55x_RELEASE_V1.0.2/MSDK/ble/app\app_conn_mgr.c ****         }
 784              		.loc 1 342 29 is_stmt 0
 785 02f4 8547     		li	a5,1
 786 02f6 1CCD     		sw	a5,24(a0)
 787 02f8 A1B5     		j	.L23
 788              	.LVL49:
 789              	.L59:
 790              	.LBE14:
 348:C:/Users/stapi/OneDrive/Desktop/GD32VW553/GD32VW55X_Wifi_BLE_SDK/GD32VW55x_RELEASE_V1.0.2/MSDK/ble/app\app_conn_mgr.c ****             dbg_print(NOTICE, "conn idx: %u, peer name: %s\r\n",
 791              		.loc 1 348 9 is_stmt 1
 348:C:/Users/stapi/OneDrive/Desktop/GD32VW553/GD32VW55X_Wifi_BLE_SDK/GD32VW55x_RELEASE_V1.0.2/MSDK/ble/app\app_conn_mgr.c ****             dbg_print(NOTICE, "conn idx: %u, peer name: %s\r\n",
 792              		.loc 1 348 12 is_stmt 0
 793 02fa 83D70500 		lhu	a5,0(a1)
 794 02fe E39107E4 		bne	a5,zero,.L23
 349:C:/Users/stapi/OneDrive/Desktop/GD32VW553/GD32VW55X_Wifi_BLE_SDK/GD32VW55x_RELEASE_V1.0.2/MSDK/ble/app\app_conn_mgr.c ****                       p_data->peer_name.conn_idx, p_data->peer_name.p_name);
 795              		.loc 1 349 13 is_stmt 1
 349:C:/Users/stapi/OneDrive/Desktop/GD32VW553/GD32VW55X_Wifi_BLE_SDK/GD32VW55x_RELEASE_V1.0.2/MSDK/ble/app\app_conn_mgr.c ****                       p_data->peer_name.conn_idx, p_data->peer_name.p_name);
 796              		.loc 1 349 13
 797 0302 B7070000 		lui	a5,%hi(global_debug_level)
 798 0306 03C70700 		lbu	a4,%lo(global_debug_level)(a5)
 799 030a 8947     		li	a5,2
 800 030c E3FAE7E2 		bleu	a4,a5,.L23
 349:C:/Users/stapi/OneDrive/Desktop/GD32VW553/GD32VW55X_Wifi_BLE_SDK/GD32VW55x_RELEASE_V1.0.2/MSDK/ble/app\app_conn_mgr.c ****                       p_data->peer_name.conn_idx, p_data->peer_name.p_name);
 801              		.loc 1 349 13 discriminator 1
 802 0310 37050000 		lui	a0,%hi(.LC9)
 803 0314 9045     		lw	a2,8(a1)
 804 0316 13050500 		addi	a0,a0,%lo(.LC9)
 805 031a 83C52500 		lbu	a1,2(a1)
 806 031e A9BB     		j	.L140
 807              	.L58:
 356:C:/Users/stapi/OneDrive/Desktop/GD32VW553/GD32VW55X_Wifi_BLE_SDK/GD32VW55x_RELEASE_V1.0.2/MSDK/ble/app\app_conn_mgr.c ****             dbg_print(NOTICE, "conn idx: %u, peer version: 0x%x, subversion: 0x%x, comp id 0x%x\r\n
 808              		.loc 1 356 9
 356:C:/Users/stapi/OneDrive/Desktop/GD32VW553/GD32VW55X_Wifi_BLE_SDK/GD32VW55x_RELEASE_V1.0.2/MSDK/ble/app\app_conn_mgr.c ****             dbg_print(NOTICE, "conn idx: %u, peer version: 0x%x, subversion: 0x%x, comp id 0x%x\r\n
 809              		.loc 1 356 12 is_stmt 0
 810 0320 83D70500 		lhu	a5,0(a1)
 811 0324 E39E07E0 		bne	a5,zero,.L23
 357:C:/Users/stapi/OneDrive/Desktop/GD32VW553/GD32VW55X_Wifi_BLE_SDK/GD32VW55x_RELEASE_V1.0.2/MSDK/ble/app\app_conn_mgr.c ****                       p_data->peer_version.conn_idx,
 812              		.loc 1 357 13 is_stmt 1
 357:C:/Users/stapi/OneDrive/Desktop/GD32VW553/GD32VW55X_Wifi_BLE_SDK/GD32VW55x_RELEASE_V1.0.2/MSDK/ble/app\app_conn_mgr.c ****                       p_data->peer_version.conn_idx,
 813              		.loc 1 357 13
 814 0328 B7070000 		lui	a5,%hi(global_debug_level)
 815 032c 03C70700 		lbu	a4,%lo(global_debug_level)(a5)
 816 0330 8947     		li	a5,2
 817 0332 E3F7E7E0 		bleu	a4,a5,.L23
 357:C:/Users/stapi/OneDrive/Desktop/GD32VW553/GD32VW55X_Wifi_BLE_SDK/GD32VW55x_RELEASE_V1.0.2/MSDK/ble/app\app_conn_mgr.c ****                       p_data->peer_version.conn_idx,
 818              		.loc 1 357 13 discriminator 1
 819 0336 03D74500 		lhu	a4,4(a1)
 820 033a 83D68500 		lhu	a3,8(a1)
 821 033e 03C66500 		lbu	a2,6(a1)
 822 0342 83C52500 		lbu	a1,2(a1)
 823 0346 37050000 		lui	a0,%hi(.LC10)
 824 034a 13050500 		addi	a0,a0,%lo(.LC10)
 825              	.L144:
 629:C:/Users/stapi/OneDrive/Desktop/GD32VW553/GD32VW55X_Wifi_BLE_SDK/GD32VW55x_RELEASE_V1.0.2/MSDK/ble/app\app_conn_mgr.c ****                   p_data->loc_tx_pwr.conn_idx,
 826              		.loc 1 629 9 is_stmt 0 discriminator 1
 827 034e 97000000 		call	co_printf
 827      E7800000 
 828              	.LVL50:
 829 0356 EDB3     		j	.L23
 830              	.L57:
 366:C:/Users/stapi/OneDrive/Desktop/GD32VW553/GD32VW55X_Wifi_BLE_SDK/GD32VW55x_RELEASE_V1.0.2/MSDK/ble/app\app_conn_mgr.c ****             dbg_print(NOTICE, "conn idx: %u, peer feature: 0x%02x%02x%02x%02x%02x%02x%02x%02x\r\n",
 831              		.loc 1 366 9 is_stmt 1
 366:C:/Users/stapi/OneDrive/Desktop/GD32VW553/GD32VW55X_Wifi_BLE_SDK/GD32VW55x_RELEASE_V1.0.2/MSDK/ble/app\app_conn_mgr.c ****             dbg_print(NOTICE, "conn idx: %u, peer feature: 0x%02x%02x%02x%02x%02x%02x%02x%02x\r\n",
 832              		.loc 1 366 12 is_stmt 0
 833 0358 83D70500 		lhu	a5,0(a1)
 834 035c E39207DE 		bne	a5,zero,.L23
 367:C:/Users/stapi/OneDrive/Desktop/GD32VW553/GD32VW55X_Wifi_BLE_SDK/GD32VW55x_RELEASE_V1.0.2/MSDK/ble/app\app_conn_mgr.c ****                       p_data->peer_features.conn_idx,
 835              		.loc 1 367 13 is_stmt 1
 367:C:/Users/stapi/OneDrive/Desktop/GD32VW553/GD32VW55X_Wifi_BLE_SDK/GD32VW55x_RELEASE_V1.0.2/MSDK/ble/app\app_conn_mgr.c ****                       p_data->peer_features.conn_idx,
 836              		.loc 1 367 13
 837 0360 B7070000 		lui	a5,%hi(global_debug_level)
 838 0364 03C70700 		lbu	a4,%lo(global_debug_level)(a5)
 839 0368 8947     		li	a5,2
 840 036a E3FBE7DC 		bleu	a4,a5,.L23
 367:C:/Users/stapi/OneDrive/Desktop/GD32VW553/GD32VW55X_Wifi_BLE_SDK/GD32VW55x_RELEASE_V1.0.2/MSDK/ble/app\app_conn_mgr.c ****                       p_data->peer_features.conn_idx,
 841              		.loc 1 367 13 discriminator 1
 842 036e 83C73500 		lbu	a5,3(a1)
 843 0372 37050000 		lui	a0,%hi(.LC11)
 844 0376 13050500 		addi	a0,a0,%lo(.LC11)
 845 037a 3EC2     		sw	a5,4(sp)
 846 037c 83C74500 		lbu	a5,4(a1)
 847 0380 3EC0     		sw	a5,0(sp)
 848 0382 83C85500 		lbu	a7,5(a1)
 849 0386 03C86500 		lbu	a6,6(a1)
 850 038a 83C77500 		lbu	a5,7(a1)
 851 038e 03C78500 		lbu	a4,8(a1)
 852 0392 83C69500 		lbu	a3,9(a1)
 853 0396 03C6A500 		lbu	a2,10(a1)
 854 039a 83C52500 		lbu	a1,2(a1)
 855 039e 97000000 		call	co_printf
 855      E7800000 
 856              	.LVL51:
 857 03a6 69BB     		j	.L23
 858              	.L56:
 378:C:/Users/stapi/OneDrive/Desktop/GD32VW553/GD32VW55X_Wifi_BLE_SDK/GD32VW55x_RELEASE_V1.0.2/MSDK/ble/app\app_conn_mgr.c ****             dbg_print(NOTICE, "conn idx: %u, peer appearance: 0x%x\r\n", p_data->peer_appearance.co
 859              		.loc 1 378 9
 378:C:/Users/stapi/OneDrive/Desktop/GD32VW553/GD32VW55X_Wifi_BLE_SDK/GD32VW55x_RELEASE_V1.0.2/MSDK/ble/app\app_conn_mgr.c ****             dbg_print(NOTICE, "conn idx: %u, peer appearance: 0x%x\r\n", p_data->peer_appearance.co
 860              		.loc 1 378 12 is_stmt 0
 861 03a8 83D70500 		lhu	a5,0(a1)
 862 03ac E39A07D8 		bne	a5,zero,.L23
 379:C:/Users/stapi/OneDrive/Desktop/GD32VW553/GD32VW55X_Wifi_BLE_SDK/GD32VW55x_RELEASE_V1.0.2/MSDK/ble/app\app_conn_mgr.c ****                       p_data->peer_appearance.appearance);
 863              		.loc 1 379 13 is_stmt 1
 379:C:/Users/stapi/OneDrive/Desktop/GD32VW553/GD32VW55X_Wifi_BLE_SDK/GD32VW55x_RELEASE_V1.0.2/MSDK/ble/app\app_conn_mgr.c ****                       p_data->peer_appearance.appearance);
 864              		.loc 1 379 13
 865 03b0 B7070000 		lui	a5,%hi(global_debug_level)
 866 03b4 03C70700 		lbu	a4,%lo(global_debug_level)(a5)
 867 03b8 8947     		li	a5,2
 868 03ba E3F3E7D8 		bleu	a4,a5,.L23
 379:C:/Users/stapi/OneDrive/Desktop/GD32VW553/GD32VW55X_Wifi_BLE_SDK/GD32VW55x_RELEASE_V1.0.2/MSDK/ble/app\app_conn_mgr.c ****                       p_data->peer_appearance.appearance);
 869              		.loc 1 379 13 discriminator 1
 870 03be 37050000 		lui	a0,%hi(.LC12)
 871 03c2 03D66500 		lhu	a2,6(a1)
 872 03c6 13050500 		addi	a0,a0,%lo(.LC12)
 873 03ca 83C52500 		lbu	a1,2(a1)
 874 03ce 6DB1     		j	.L140
 875              	.L55:
 386:C:/Users/stapi/OneDrive/Desktop/GD32VW553/GD32VW55X_Wifi_BLE_SDK/GD32VW55x_RELEASE_V1.0.2/MSDK/ble/app\app_conn_mgr.c ****             dbg_print(NOTICE,
 876              		.loc 1 386 9
 386:C:/Users/stapi/OneDrive/Desktop/GD32VW553/GD32VW55X_Wifi_BLE_SDK/GD32VW55x_RELEASE_V1.0.2/MSDK/ble/app\app_conn_mgr.c ****             dbg_print(NOTICE,
 877              		.loc 1 386 12 is_stmt 0
 878 03d0 83D70500 		lhu	a5,0(a1)
 879 03d4 E39607D6 		bne	a5,zero,.L23
 387:C:/Users/stapi/OneDrive/Desktop/GD32VW553/GD32VW55X_Wifi_BLE_SDK/GD32VW55x_RELEASE_V1.0.2/MSDK/ble/app\app_conn_mgr.c ****                       "conn idx: %u, conn_intv_min: 0x%x, conn_intv_max: 0x%x, latency: %d, timeout
 880              		.loc 1 387 13 is_stmt 1
 387:C:/Users/stapi/OneDrive/Desktop/GD32VW553/GD32VW55X_Wifi_BLE_SDK/GD32VW55x_RELEASE_V1.0.2/MSDK/ble/app\app_conn_mgr.c ****                       "conn idx: %u, conn_intv_min: 0x%x, conn_intv_max: 0x%x, latency: %d, timeout
 881              		.loc 1 387 13
 882 03d8 B7070000 		lui	a5,%hi(global_debug_level)
 883 03dc 03C70700 		lbu	a4,%lo(global_debug_level)(a5)
 884 03e0 8947     		li	a5,2
 885 03e2 E3FFE7D4 		bleu	a4,a5,.L23
 387:C:/Users/stapi/OneDrive/Desktop/GD32VW553/GD32VW55X_Wifi_BLE_SDK/GD32VW55x_RELEASE_V1.0.2/MSDK/ble/app\app_conn_mgr.c ****                       "conn idx: %u, conn_intv_min: 0x%x, conn_intv_max: 0x%x, latency: %d, timeout
 886              		.loc 1 387 13 discriminator 1
 887 03e6 83D7C500 		lhu	a5,12(a1)
 888 03ea 03D7A500 		lhu	a4,10(a1)
 889 03ee 83D68500 		lhu	a3,8(a1)
 890 03f2 03D66500 		lhu	a2,6(a1)
 891 03f6 83C52500 		lbu	a1,2(a1)
 892 03fa 37050000 		lui	a0,%hi(.LC13)
 893 03fe 13050500 		addi	a0,a0,%lo(.LC13)
 894              	.L143:
 649:C:/Users/stapi/OneDrive/Desktop/GD32VW553/GD32VW55X_Wifi_BLE_SDK/GD32VW55x_RELEASE_V1.0.2/MSDK/ble/app\app_conn_mgr.c ****                   p_data->peer_tx_pwr_rpt.conn_idx, p_data->loc_tx_pwr_rpt.phy, p_data->loc_tx_pwr_
 895              		.loc 1 649 9 is_stmt 0 discriminator 1
 896 0402 97000000 		call	co_printf
 896      E7800000 
 897              	.LVL52:
 898 040a 1DBB     		j	.L23
 899              	.L54:
 398:C:/Users/stapi/OneDrive/Desktop/GD32VW553/GD32VW55X_Wifi_BLE_SDK/GD32VW55x_RELEASE_V1.0.2/MSDK/ble/app\app_conn_mgr.c ****             dbg_print(NOTICE, "conn idx: %u, central address resolution support %d\r\n",
 900              		.loc 1 398 9 is_stmt 1
 398:C:/Users/stapi/OneDrive/Desktop/GD32VW553/GD32VW55X_Wifi_BLE_SDK/GD32VW55x_RELEASE_V1.0.2/MSDK/ble/app\app_conn_mgr.c ****             dbg_print(NOTICE, "conn idx: %u, central address resolution support %d\r\n",
 901              		.loc 1 398 12 is_stmt 0
 902 040c 83D70500 		lhu	a5,0(a1)
 903 0410 E39807D2 		bne	a5,zero,.L23
 399:C:/Users/stapi/OneDrive/Desktop/GD32VW553/GD32VW55X_Wifi_BLE_SDK/GD32VW55x_RELEASE_V1.0.2/MSDK/ble/app\app_conn_mgr.c ****                       p_data->peer_addr_reslv_sup.conn_idx,
 904              		.loc 1 399 13 is_stmt 1
 399:C:/Users/stapi/OneDrive/Desktop/GD32VW553/GD32VW55X_Wifi_BLE_SDK/GD32VW55x_RELEASE_V1.0.2/MSDK/ble/app\app_conn_mgr.c ****                       p_data->peer_addr_reslv_sup.conn_idx,
 905              		.loc 1 399 13
 906 0414 B7070000 		lui	a5,%hi(global_debug_level)
 907 0418 03C70700 		lbu	a4,%lo(global_debug_level)(a5)
 908 041c 8947     		li	a5,2
 909 041e E3F1E7D2 		bleu	a4,a5,.L23
 399:C:/Users/stapi/OneDrive/Desktop/GD32VW553/GD32VW55X_Wifi_BLE_SDK/GD32VW55x_RELEASE_V1.0.2/MSDK/ble/app\app_conn_mgr.c ****                       p_data->peer_addr_reslv_sup.conn_idx,
 910              		.loc 1 399 13 discriminator 1
 911 0422 37050000 		lui	a0,%hi(.LC14)
 912 0426 03C66500 		lbu	a2,6(a1)
 913 042a 13050500 		addi	a0,a0,%lo(.LC14)
 914 042e 83C52500 		lbu	a1,2(a1)
 915 0432 99B1     		j	.L140
 916              	.L53:
 407:C:/Users/stapi/OneDrive/Desktop/GD32VW553/GD32VW55X_Wifi_BLE_SDK/GD32VW55x_RELEASE_V1.0.2/MSDK/ble/app\app_conn_mgr.c ****             dbg_print(NOTICE, "conn idx: %u, central rpa only %d\r\n", p_data->rpa_only.conn_idx,
 917              		.loc 1 407 9
 407:C:/Users/stapi/OneDrive/Desktop/GD32VW553/GD32VW55X_Wifi_BLE_SDK/GD32VW55x_RELEASE_V1.0.2/MSDK/ble/app\app_conn_mgr.c ****             dbg_print(NOTICE, "conn idx: %u, central rpa only %d\r\n", p_data->rpa_only.conn_idx,
 918              		.loc 1 407 12 is_stmt 0
 919 0434 83D70500 		lhu	a5,0(a1)
 920 0438 E39407D0 		bne	a5,zero,.L23
 408:C:/Users/stapi/OneDrive/Desktop/GD32VW553/GD32VW55X_Wifi_BLE_SDK/GD32VW55x_RELEASE_V1.0.2/MSDK/ble/app\app_conn_mgr.c ****                       p_data->rpa_only.rpa_only);
 921              		.loc 1 408 13 is_stmt 1
 408:C:/Users/stapi/OneDrive/Desktop/GD32VW553/GD32VW55X_Wifi_BLE_SDK/GD32VW55x_RELEASE_V1.0.2/MSDK/ble/app\app_conn_mgr.c ****                       p_data->rpa_only.rpa_only);
 922              		.loc 1 408 13
 923 043c B7070000 		lui	a5,%hi(global_debug_level)
 924 0440 03C70700 		lbu	a4,%lo(global_debug_level)(a5)
 925 0444 8947     		li	a5,2
 926 0446 E3FDE7CE 		bleu	a4,a5,.L23
 408:C:/Users/stapi/OneDrive/Desktop/GD32VW553/GD32VW55X_Wifi_BLE_SDK/GD32VW55x_RELEASE_V1.0.2/MSDK/ble/app\app_conn_mgr.c ****                       p_data->rpa_only.rpa_only);
 927              		.loc 1 408 13 discriminator 1
 928 044a 37050000 		lui	a0,%hi(.LC15)
 929 044e 03C66500 		lbu	a2,6(a1)
 930 0452 13050500 		addi	a0,a0,%lo(.LC15)
 931 0456 83C52500 		lbu	a1,2(a1)
 932 045a 39B9     		j	.L140
 933              	.L52:
 415:C:/Users/stapi/OneDrive/Desktop/GD32VW553/GD32VW55X_Wifi_BLE_SDK/GD32VW55x_RELEASE_V1.0.2/MSDK/ble/app\app_conn_mgr.c ****             uint8_t i;
 934              		.loc 1 415 9
 415:C:/Users/stapi/OneDrive/Desktop/GD32VW553/GD32VW55X_Wifi_BLE_SDK/GD32VW55x_RELEASE_V1.0.2/MSDK/ble/app\app_conn_mgr.c ****             uint8_t i;
 935              		.loc 1 415 12 is_stmt 0
 936 045c 83D70500 		lhu	a5,0(a1)
 937 0460 E39007CE 		bne	a5,zero,.L23
 938              	.LBB15:
 416:C:/Users/stapi/OneDrive/Desktop/GD32VW553/GD32VW55X_Wifi_BLE_SDK/GD32VW55x_RELEASE_V1.0.2/MSDK/ble/app\app_conn_mgr.c ****             dbg_print(NOTICE, "conn idx: %u, db_hash\r\n", p_data->db_hash.conn_idx);
 939              		.loc 1 416 13 is_stmt 1
 417:C:/Users/stapi/OneDrive/Desktop/GD32VW553/GD32VW55X_Wifi_BLE_SDK/GD32VW55x_RELEASE_V1.0.2/MSDK/ble/app\app_conn_mgr.c ****             for (i = 0; i < 16; i++) {
 940              		.loc 1 417 13
 417:C:/Users/stapi/OneDrive/Desktop/GD32VW553/GD32VW55X_Wifi_BLE_SDK/GD32VW55x_RELEASE_V1.0.2/MSDK/ble/app\app_conn_mgr.c ****             for (i = 0; i < 16; i++) {
 941              		.loc 1 417 13
 942 0464 B7040000 		lui	s1,%hi(global_debug_level)
 943 0468 03C70400 		lbu	a4,%lo(global_debug_level)(s1)
 944 046c 8947     		li	a5,2
 945 046e 63FCE700 		bleu	a4,a5,.L79
 417:C:/Users/stapi/OneDrive/Desktop/GD32VW553/GD32VW55X_Wifi_BLE_SDK/GD32VW55x_RELEASE_V1.0.2/MSDK/ble/app\app_conn_mgr.c ****             for (i = 0; i < 16; i++) {
 946              		.loc 1 417 13 discriminator 1
 947 0472 83C52500 		lbu	a1,2(a1)
 948 0476 37050000 		lui	a0,%hi(.LC16)
 949 047a 13050500 		addi	a0,a0,%lo(.LC16)
 950 047e 97000000 		call	co_printf
 950      E7800000 
 951              	.LVL53:
 952              	.L79:
 953 0486 13096400 		addi	s2,s0,6
 419:C:/Users/stapi/OneDrive/Desktop/GD32VW553/GD32VW55X_Wifi_BLE_SDK/GD32VW55x_RELEASE_V1.0.2/MSDK/ble/app\app_conn_mgr.c ****             }
 954              		.loc 1 419 17 is_stmt 0
 955 048a 8949     		li	s3,2
 956 048c 5904     		addi	s0,s0,22
 957              	.LVL54:
 958 048e 370A0000 		lui	s4,%hi(.LC17)
 959              	.L81:
 960              	.LVL55:
 419:C:/Users/stapi/OneDrive/Desktop/GD32VW553/GD32VW55X_Wifi_BLE_SDK/GD32VW55x_RELEASE_V1.0.2/MSDK/ble/app\app_conn_mgr.c ****             }
 961              		.loc 1 419 17 is_stmt 1
 419:C:/Users/stapi/OneDrive/Desktop/GD32VW553/GD32VW55X_Wifi_BLE_SDK/GD32VW55x_RELEASE_V1.0.2/MSDK/ble/app\app_conn_mgr.c ****             }
 962              		.loc 1 419 17
 963 0492 83C70400 		lbu	a5,%lo(global_debug_level)(s1)
 964 0496 63FAF900 		bleu	a5,s3,.L80
 419:C:/Users/stapi/OneDrive/Desktop/GD32VW553/GD32VW55X_Wifi_BLE_SDK/GD32VW55x_RELEASE_V1.0.2/MSDK/ble/app\app_conn_mgr.c ****             }
 965              		.loc 1 419 17 discriminator 1
 966 049a 83450900 		lbu	a1,0(s2)
 967 049e 13050A00 		addi	a0,s4,%lo(.LC17)
 968 04a2 97000000 		call	co_printf
 968      E7800000 
 969              	.LVL56:
 970              	.L80:
 419:C:/Users/stapi/OneDrive/Desktop/GD32VW553/GD32VW55X_Wifi_BLE_SDK/GD32VW55x_RELEASE_V1.0.2/MSDK/ble/app\app_conn_mgr.c ****             }
 971              		.loc 1 419 17 discriminator 3
 418:C:/Users/stapi/OneDrive/Desktop/GD32VW553/GD32VW55X_Wifi_BLE_SDK/GD32VW55x_RELEASE_V1.0.2/MSDK/ble/app\app_conn_mgr.c ****                 dbg_print(NOTICE, "%02x", p_data->db_hash.hash[i]);
 972              		.loc 1 418 33 discriminator 3
 418:C:/Users/stapi/OneDrive/Desktop/GD32VW553/GD32VW55X_Wifi_BLE_SDK/GD32VW55x_RELEASE_V1.0.2/MSDK/ble/app\app_conn_mgr.c ****                 dbg_print(NOTICE, "%02x", p_data->db_hash.hash[i]);
 973              		.loc 1 418 25 discriminator 3
 418:C:/Users/stapi/OneDrive/Desktop/GD32VW553/GD32VW55X_Wifi_BLE_SDK/GD32VW55x_RELEASE_V1.0.2/MSDK/ble/app\app_conn_mgr.c ****                 dbg_print(NOTICE, "%02x", p_data->db_hash.hash[i]);
 974              		.loc 1 418 13 is_stmt 0 discriminator 3
 975 04aa 0509     		addi	s2,s2,1
 976              	.LVL57:
 977 04ac E31324FF 		bne	s0,s2,.L81
 422:C:/Users/stapi/OneDrive/Desktop/GD32VW553/GD32VW55X_Wifi_BLE_SDK/GD32VW55x_RELEASE_V1.0.2/MSDK/ble/app\app_conn_mgr.c ****         }
 978              		.loc 1 422 13 is_stmt 1
 422:C:/Users/stapi/OneDrive/Desktop/GD32VW553/GD32VW55X_Wifi_BLE_SDK/GD32VW55x_RELEASE_V1.0.2/MSDK/ble/app\app_conn_mgr.c ****         }
 979              		.loc 1 422 13
 980 04b0 03C70400 		lbu	a4,%lo(global_debug_level)(s1)
 981 04b4 8947     		li	a5,2
 982 04b6 E3F5E7C8 		bleu	a4,a5,.L23
 422:C:/Users/stapi/OneDrive/Desktop/GD32VW553/GD32VW55X_Wifi_BLE_SDK/GD32VW55x_RELEASE_V1.0.2/MSDK/ble/app\app_conn_mgr.c ****         }
 983              		.loc 1 422 13 discriminator 1
 984 04ba 37050000 		lui	a0,%hi(.LC18)
 985 04be 13050500 		addi	a0,a0,%lo(.LC18)
 986 04c2 97000000 		call	co_printf
 986      E7800000 
 987              	.LVL58:
 988 04ca 9DB9     		j	.L23
 989              	.LVL59:
 990              	.L51:
 991              	.LBE15:
 428:C:/Users/stapi/OneDrive/Desktop/GD32VW553/GD32VW55X_Wifi_BLE_SDK/GD32VW55x_RELEASE_V1.0.2/MSDK/ble/app\app_conn_mgr.c ****             dbg_print(NOTICE, "conn idx %u ping timeout %d\r\n", p_data->ping_to_val.conn_idx,
 992              		.loc 1 428 9
 428:C:/Users/stapi/OneDrive/Desktop/GD32VW553/GD32VW55X_Wifi_BLE_SDK/GD32VW55x_RELEASE_V1.0.2/MSDK/ble/app\app_conn_mgr.c ****             dbg_print(NOTICE, "conn idx %u ping timeout %d\r\n", p_data->ping_to_val.conn_idx,
 993              		.loc 1 428 12 is_stmt 0
 994 04cc 83D70500 		lhu	a5,0(a1)
 995 04d0 E39807C6 		bne	a5,zero,.L23
 429:C:/Users/stapi/OneDrive/Desktop/GD32VW553/GD32VW55X_Wifi_BLE_SDK/GD32VW55x_RELEASE_V1.0.2/MSDK/ble/app\app_conn_mgr.c ****                       p_data->ping_to_val.ping_tout);
 996              		.loc 1 429 13 is_stmt 1
 429:C:/Users/stapi/OneDrive/Desktop/GD32VW553/GD32VW55X_Wifi_BLE_SDK/GD32VW55x_RELEASE_V1.0.2/MSDK/ble/app\app_conn_mgr.c ****                       p_data->ping_to_val.ping_tout);
 997              		.loc 1 429 13
 998 04d4 B7070000 		lui	a5,%hi(global_debug_level)
 999 04d8 03C70700 		lbu	a4,%lo(global_debug_level)(a5)
 1000 04dc 8947     		li	a5,2
 1001 04de E3F1E7C6 		bleu	a4,a5,.L23
 429:C:/Users/stapi/OneDrive/Desktop/GD32VW553/GD32VW55X_Wifi_BLE_SDK/GD32VW55x_RELEASE_V1.0.2/MSDK/ble/app\app_conn_mgr.c ****                       p_data->ping_to_val.ping_tout);
 1002              		.loc 1 429 13 discriminator 1
 1003 04e2 37050000 		lui	a0,%hi(.LC19)
 1004 04e6 03D64500 		lhu	a2,4(a1)
 1005 04ea 13050500 		addi	a0,a0,%lo(.LC19)
 1006 04ee 83C52500 		lbu	a1,2(a1)
 1007 04f2 59B6     		j	.L140
 1008              	.L50:
 436:C:/Users/stapi/OneDrive/Desktop/GD32VW553/GD32VW55X_Wifi_BLE_SDK/GD32VW55x_RELEASE_V1.0.2/MSDK/ble/app\app_conn_mgr.c ****     }
 1009              		.loc 1 436 9
 436:C:/Users/stapi/OneDrive/Desktop/GD32VW553/GD32VW55X_Wifi_BLE_SDK/GD32VW55x_RELEASE_V1.0.2/MSDK/ble/app\app_conn_mgr.c ****     }
 1010              		.loc 1 436 9
 1011 04f4 B7070000 		lui	a5,%hi(global_debug_level)
 1012 04f8 03C70700 		lbu	a4,%lo(global_debug_level)(a5)
 1013 04fc 8947     		li	a5,2
 1014 04fe E3F1E7C4 		bleu	a4,a5,.L23
 436:C:/Users/stapi/OneDrive/Desktop/GD32VW553/GD32VW55X_Wifi_BLE_SDK/GD32VW55x_RELEASE_V1.0.2/MSDK/ble/app\app_conn_mgr.c ****     }
 1015              		.loc 1 436 9 discriminator 1
 1016 0502 37050000 		lui	a0,%hi(.LC20)
 1017 0506 83C50500 		lbu	a1,0(a1)
 1018 050a 13050500 		addi	a0,a0,%lo(.LC20)
 1019 050e FDB6     		j	.L142
 1020              	.L49:
 441:C:/Users/stapi/OneDrive/Desktop/GD32VW553/GD32VW55X_Wifi_BLE_SDK/GD32VW55x_RELEASE_V1.0.2/MSDK/ble/app\app_conn_mgr.c ****                   p_data->ping_to_set.status);
 1021              		.loc 1 441 9
 441:C:/Users/stapi/OneDrive/Desktop/GD32VW553/GD32VW55X_Wifi_BLE_SDK/GD32VW55x_RELEASE_V1.0.2/MSDK/ble/app\app_conn_mgr.c ****                   p_data->ping_to_set.status);
 1022              		.loc 1 441 9
 1023 0510 B7070000 		lui	a5,%hi(global_debug_level)
 1024 0514 03C70700 		lbu	a4,%lo(global_debug_level)(a5)
 1025 0518 8947     		li	a5,2
 1026 051a E3F3E7C2 		bleu	a4,a5,.L23
 441:C:/Users/stapi/OneDrive/Desktop/GD32VW553/GD32VW55X_Wifi_BLE_SDK/GD32VW55x_RELEASE_V1.0.2/MSDK/ble/app\app_conn_mgr.c ****                   p_data->ping_to_set.status);
 1027              		.loc 1 441 9 discriminator 1
 1028 051e 37050000 		lui	a0,%hi(.LC21)
 1029 0522 03D60500 		lhu	a2,0(a1)
 1030 0526 13050500 		addi	a0,a0,%lo(.LC21)
 1031 052a 83C52500 		lbu	a1,2(a1)
 1032 052e A9B6     		j	.L140
 1033              	.L48:
 447:C:/Users/stapi/OneDrive/Desktop/GD32VW553/GD32VW55X_Wifi_BLE_SDK/GD32VW55x_RELEASE_V1.0.2/MSDK/ble/app\app_conn_mgr.c ****     }
 1034              		.loc 1 447 9
 447:C:/Users/stapi/OneDrive/Desktop/GD32VW553/GD32VW55X_Wifi_BLE_SDK/GD32VW55x_RELEASE_V1.0.2/MSDK/ble/app\app_conn_mgr.c ****     }
 1035              		.loc 1 447 9
 1036 0530 B7070000 		lui	a5,%hi(global_debug_level)
 1037 0534 03C70700 		lbu	a4,%lo(global_debug_level)(a5)
 1038 0538 8947     		li	a5,2
 1039 053a E3F3E7C0 		bleu	a4,a5,.L23
 447:C:/Users/stapi/OneDrive/Desktop/GD32VW553/GD32VW55X_Wifi_BLE_SDK/GD32VW55x_RELEASE_V1.0.2/MSDK/ble/app\app_conn_mgr.c ****     }
 1040              		.loc 1 447 9 discriminator 1
 1041 053e 37050000 		lui	a0,%hi(.LC22)
 1042 0542 03863500 		lb	a2,3(a1)
 1043 0546 13050500 		addi	a0,a0,%lo(.LC22)
 1044 054a 83C52500 		lbu	a1,2(a1)
 1045 054e 2DB6     		j	.L140
 1046              	.L47:
 452:C:/Users/stapi/OneDrive/Desktop/GD32VW553/GD32VW55X_Wifi_BLE_SDK/GD32VW55x_RELEASE_V1.0.2/MSDK/ble/app\app_conn_mgr.c ****                   p_data->chnl_map_ind.chann_map[3], p_data->chnl_map_ind.chann_map[2],
 1047              		.loc 1 452 9
 452:C:/Users/stapi/OneDrive/Desktop/GD32VW553/GD32VW55X_Wifi_BLE_SDK/GD32VW55x_RELEASE_V1.0.2/MSDK/ble/app\app_conn_mgr.c ****                   p_data->chnl_map_ind.chann_map[3], p_data->chnl_map_ind.chann_map[2],
 1048              		.loc 1 452 9
 1049 0550 B7070000 		lui	a5,%hi(global_debug_level)
 1050 0554 03C70700 		lbu	a4,%lo(global_debug_level)(a5)
 1051 0558 8947     		li	a5,2
 1052 055a E3F3E7BE 		bleu	a4,a5,.L23
 452:C:/Users/stapi/OneDrive/Desktop/GD32VW553/GD32VW55X_Wifi_BLE_SDK/GD32VW55x_RELEASE_V1.0.2/MSDK/ble/app\app_conn_mgr.c ****                   p_data->chnl_map_ind.chann_map[3], p_data->chnl_map_ind.chann_map[2],
 1053              		.loc 1 452 9 discriminator 1
 1054 055e 37050000 		lui	a0,%hi(.LC23)
 1055 0562 83C73500 		lbu	a5,3(a1)
 1056 0566 03C74500 		lbu	a4,4(a1)
 1057 056a 83C65500 		lbu	a3,5(a1)
 1058 056e 03C66500 		lbu	a2,6(a1)
 1059 0572 13050500 		addi	a0,a0,%lo(.LC23)
 1060 0576 83C57500 		lbu	a1,7(a1)
 1061 057a 61B5     		j	.L143
 1062              	.L46:
 1063              	.LBB16:
 459:C:/Users/stapi/OneDrive/Desktop/GD32VW553/GD32VW55X_Wifi_BLE_SDK/GD32VW55x_RELEASE_V1.0.2/MSDK/ble/app\app_conn_mgr.c ****         uint8_t *p_name;
 1064              		.loc 1 459 9
 460:C:/Users/stapi/OneDrive/Desktop/GD32VW553/GD32VW55X_Wifi_BLE_SDK/GD32VW55x_RELEASE_V1.0.2/MSDK/ble/app\app_conn_mgr.c ****         uint16_t name_len;
 1065              		.loc 1 460 9
 461:C:/Users/stapi/OneDrive/Desktop/GD32VW553/GD32VW55X_Wifi_BLE_SDK/GD32VW55x_RELEASE_V1.0.2/MSDK/ble/app\app_conn_mgr.c **** 
 1066              		.loc 1 461 9
 463:C:/Users/stapi/OneDrive/Desktop/GD32VW553/GD32VW55X_Wifi_BLE_SDK/GD32VW55x_RELEASE_V1.0.2/MSDK/ble/app\app_conn_mgr.c ****         p_name += p_data->name_get_ind.name_offset;
 1067              		.loc 1 463 9
 463:C:/Users/stapi/OneDrive/Desktop/GD32VW553/GD32VW55X_Wifi_BLE_SDK/GD32VW55x_RELEASE_V1.0.2/MSDK/ble/app\app_conn_mgr.c ****         p_name += p_data->name_get_ind.name_offset;
 1068              		.loc 1 463 20 is_stmt 0
 1069 057c 2808     		addi	a0,sp,24
 1070 057e 97000000 		call	app_adp_get_name
 1070      E7800000 
 1071              	.LVL60:
 464:C:/Users/stapi/OneDrive/Desktop/GD32VW553/GD32VW55X_Wifi_BLE_SDK/GD32VW55x_RELEASE_V1.0.2/MSDK/ble/app\app_conn_mgr.c ****         name_len = cmpl_len - p_data->name_get_ind.name_offset;
 1072              		.loc 1 464 39
 1073 0586 83574400 		lhu	a5,4(s0)
 464:C:/Users/stapi/OneDrive/Desktop/GD32VW553/GD32VW55X_Wifi_BLE_SDK/GD32VW55x_RELEASE_V1.0.2/MSDK/ble/app\app_conn_mgr.c ****         name_len = cmpl_len - p_data->name_get_ind.name_offset;
 1074              		.loc 1 464 16
 1075 058a 6247     		lw	a4,24(sp)
 470:C:/Users/stapi/OneDrive/Desktop/GD32VW553/GD32VW55X_Wifi_BLE_SDK/GD32VW55x_RELEASE_V1.0.2/MSDK/ble/app\app_conn_mgr.c ****                               cmpl_len, p_name, name_len);
 1076              		.loc 1 470 9
 1077 058c 03566400 		lhu	a2,6(s0)
 463:C:/Users/stapi/OneDrive/Desktop/GD32VW553/GD32VW55X_Wifi_BLE_SDK/GD32VW55x_RELEASE_V1.0.2/MSDK/ble/app\app_conn_mgr.c ****         p_name += p_data->name_get_ind.name_offset;
 1078              		.loc 1 463 18
 1079 0590 B3460508 		zext.h	a3,a0
 1080              	.LVL61:
 464:C:/Users/stapi/OneDrive/Desktop/GD32VW553/GD32VW55X_Wifi_BLE_SDK/GD32VW55x_RELEASE_V1.0.2/MSDK/ble/app\app_conn_mgr.c ****         name_len = cmpl_len - p_data->name_get_ind.name_offset;
 1081              		.loc 1 464 9 is_stmt 1
 464:C:/Users/stapi/OneDrive/Desktop/GD32VW553/GD32VW55X_Wifi_BLE_SDK/GD32VW55x_RELEASE_V1.0.2/MSDK/ble/app\app_conn_mgr.c ****         name_len = cmpl_len - p_data->name_get_ind.name_offset;
 1082              		.loc 1 464 16 is_stmt 0
 1083 0594 3E97     		add	a4,a4,a5
 465:C:/Users/stapi/OneDrive/Desktop/GD32VW553/GD32VW55X_Wifi_BLE_SDK/GD32VW55x_RELEASE_V1.0.2/MSDK/ble/app\app_conn_mgr.c ****         if (name_len > p_data->name_get_ind.max_name_length) {
 1084              		.loc 1 465 18
 1085 0596 B387F640 		sub	a5,a3,a5
 470:C:/Users/stapi/OneDrive/Desktop/GD32VW553/GD32VW55X_Wifi_BLE_SDK/GD32VW55x_RELEASE_V1.0.2/MSDK/ble/app\app_conn_mgr.c ****                               cmpl_len, p_name, name_len);
 1086              		.loc 1 470 9
 1087 059a 03450400 		lbu	a0,0(s0)
 465:C:/Users/stapi/OneDrive/Desktop/GD32VW553/GD32VW55X_Wifi_BLE_SDK/GD32VW55x_RELEASE_V1.0.2/MSDK/ble/app\app_conn_mgr.c ****         if (name_len > p_data->name_get_ind.max_name_length) {
 1088              		.loc 1 465 18
 1089 059e B3C70708 		zext.h	a5,a5
 470:C:/Users/stapi/OneDrive/Desktop/GD32VW553/GD32VW55X_Wifi_BLE_SDK/GD32VW55x_RELEASE_V1.0.2/MSDK/ble/app\app_conn_mgr.c ****                               cmpl_len, p_name, name_len);
 1090              		.loc 1 470 9
 1091 05a2 B357F60A 		minu	a5,a2,a5
 1092 05a6 03562400 		lhu	a2,2(s0)
 1093 05aa 8145     		li	a1,0
 464:C:/Users/stapi/OneDrive/Desktop/GD32VW553/GD32VW55X_Wifi_BLE_SDK/GD32VW55x_RELEASE_V1.0.2/MSDK/ble/app\app_conn_mgr.c ****         name_len = cmpl_len - p_data->name_get_ind.name_offset;
 1094              		.loc 1 464 16
 1095 05ac 3ACC     		sw	a4,24(sp)
 465:C:/Users/stapi/OneDrive/Desktop/GD32VW553/GD32VW55X_Wifi_BLE_SDK/GD32VW55x_RELEASE_V1.0.2/MSDK/ble/app\app_conn_mgr.c ****         if (name_len > p_data->name_get_ind.max_name_length) {
 1096              		.loc 1 465 9 is_stmt 1
 466:C:/Users/stapi/OneDrive/Desktop/GD32VW553/GD32VW55X_Wifi_BLE_SDK/GD32VW55x_RELEASE_V1.0.2/MSDK/ble/app\app_conn_mgr.c ****             name_len = p_data->name_get_ind.max_name_length;
 1097              		.loc 1 466 9
 470:C:/Users/stapi/OneDrive/Desktop/GD32VW553/GD32VW55X_Wifi_BLE_SDK/GD32VW55x_RELEASE_V1.0.2/MSDK/ble/app\app_conn_mgr.c ****                               cmpl_len, p_name, name_len);
 1098              		.loc 1 470 9
 1099 05ae 97000000 		call	ble_conn_name_get_cfm
 1099      E7800000 
 1100              	.LVL62:
 1101              	.LBE16:
 473:C:/Users/stapi/OneDrive/Desktop/GD32VW553/GD32VW55X_Wifi_BLE_SDK/GD32VW55x_RELEASE_V1.0.2/MSDK/ble/app\app_conn_mgr.c **** 
 1102              		.loc 1 473 5
 1103 05b6 69B6     		j	.L23
 1104              	.L45:
 476:C:/Users/stapi/OneDrive/Desktop/GD32VW553/GD32VW55X_Wifi_BLE_SDK/GD32VW55x_RELEASE_V1.0.2/MSDK/ble/app\app_conn_mgr.c **** 
 1105              		.loc 1 476 9
 476:C:/Users/stapi/OneDrive/Desktop/GD32VW553/GD32VW55X_Wifi_BLE_SDK/GD32VW55x_RELEASE_V1.0.2/MSDK/ble/app\app_conn_mgr.c **** 
 1106              		.loc 1 476 9
 1107 05b8 B7070000 		lui	a5,%hi(global_debug_level)
 1108 05bc 03C70700 		lbu	a4,%lo(global_debug_level)(a5)
 1109 05c0 8947     		li	a5,2
 1110 05c2 63FCE700 		bleu	a4,a5,.L82
 476:C:/Users/stapi/OneDrive/Desktop/GD32VW553/GD32VW55X_Wifi_BLE_SDK/GD32VW55x_RELEASE_V1.0.2/MSDK/ble/app\app_conn_mgr.c **** 
 1111              		.loc 1 476 9 discriminator 1
 1112 05c6 83C50500 		lbu	a1,0(a1)
 1113 05ca 37050000 		lui	a0,%hi(.LC24)
 1114 05ce 13050500 		addi	a0,a0,%lo(.LC24)
 1115 05d2 97000000 		call	co_printf
 1115      E7800000 
 1116              	.LVL63:
 1117              	.L82:
 476:C:/Users/stapi/OneDrive/Desktop/GD32VW553/GD32VW55X_Wifi_BLE_SDK/GD32VW55x_RELEASE_V1.0.2/MSDK/ble/app\app_conn_mgr.c **** 
 1118              		.loc 1 476 9 discriminator 3
 478:C:/Users/stapi/OneDrive/Desktop/GD32VW553/GD32VW55X_Wifi_BLE_SDK/GD32VW55x_RELEASE_V1.0.2/MSDK/ble/app\app_conn_mgr.c ****                                     p_data->appearance_get_ind.token, dev_appearance);
 1119              		.loc 1 478 9 discriminator 3
 1120 05da B7070000 		lui	a5,%hi(.LANCHOR0)
 1121 05de 83D60700 		lhu	a3,%lo(.LANCHOR0)(a5)
 1122 05e2 03562400 		lhu	a2,2(s0)
 1123 05e6 03450400 		lbu	a0,0(s0)
 1124 05ea 8145     		li	a1,0
 1125 05ec 97000000 		call	ble_conn_appearance_get_cfm
 1125      E7800000 
 1126              	.LVL64:
 481:C:/Users/stapi/OneDrive/Desktop/GD32VW553/GD32VW55X_Wifi_BLE_SDK/GD32VW55x_RELEASE_V1.0.2/MSDK/ble/app\app_conn_mgr.c **** 
 1127              		.loc 1 481 5 discriminator 3
 1128 05f4 B1B6     		j	.L23
 1129              	.L44:
 1130              	.LBB17:
 484:C:/Users/stapi/OneDrive/Desktop/GD32VW553/GD32VW55X_Wifi_BLE_SDK/GD32VW55x_RELEASE_V1.0.2/MSDK/ble/app\app_conn_mgr.c **** 
 1131              		.loc 1 484 9
 486:C:/Users/stapi/OneDrive/Desktop/GD32VW553/GD32VW55X_Wifi_BLE_SDK/GD32VW55x_RELEASE_V1.0.2/MSDK/ble/app\app_conn_mgr.c ****                   p_data->slave_prefer_param_get_ind.conn_idx);
 1132              		.loc 1 486 9
 486:C:/Users/stapi/OneDrive/Desktop/GD32VW553/GD32VW55X_Wifi_BLE_SDK/GD32VW55x_RELEASE_V1.0.2/MSDK/ble/app\app_conn_mgr.c ****                   p_data->slave_prefer_param_get_ind.conn_idx);
 1133              		.loc 1 486 9
 1134 05f6 B7070000 		lui	a5,%hi(global_debug_level)
 1135 05fa 03C70700 		lbu	a4,%lo(global_debug_level)(a5)
 1136 05fe 8947     		li	a5,2
 1137 0600 63FCE700 		bleu	a4,a5,.L83
 486:C:/Users/stapi/OneDrive/Desktop/GD32VW553/GD32VW55X_Wifi_BLE_SDK/GD32VW55x_RELEASE_V1.0.2/MSDK/ble/app\app_conn_mgr.c ****                   p_data->slave_prefer_param_get_ind.conn_idx);
 1138              		.loc 1 486 9 discriminator 1
 1139 0604 83C50500 		lbu	a1,0(a1)
 1140 0608 37050000 		lui	a0,%hi(.LC25)
 1141 060c 13050500 		addi	a0,a0,%lo(.LC25)
 1142 0610 97000000 		call	co_printf
 1142      E7800000 
 1143              	.LVL65:
 1144              	.L83:
 486:C:/Users/stapi/OneDrive/Desktop/GD32VW553/GD32VW55X_Wifi_BLE_SDK/GD32VW55x_RELEASE_V1.0.2/MSDK/ble/app\app_conn_mgr.c ****                   p_data->slave_prefer_param_get_ind.conn_idx);
 1145              		.loc 1 486 9 discriminator 3
 489:C:/Users/stapi/OneDrive/Desktop/GD32VW553/GD32VW55X_Wifi_BLE_SDK/GD32VW55x_RELEASE_V1.0.2/MSDK/ble/app\app_conn_mgr.c ****         param.conn_intv_max = 10;
 1146              		.loc 1 489 9 discriminator 3
 490:C:/Users/stapi/OneDrive/Desktop/GD32VW553/GD32VW55X_Wifi_BLE_SDK/GD32VW55x_RELEASE_V1.0.2/MSDK/ble/app\app_conn_mgr.c ****         param.latency = 0;
 1147              		.loc 1 490 9 discriminator 3
 491:C:/Users/stapi/OneDrive/Desktop/GD32VW553/GD32VW55X_Wifi_BLE_SDK/GD32VW55x_RELEASE_V1.0.2/MSDK/ble/app\app_conn_mgr.c ****         param.conn_tout = 200;  //2s
 1148              		.loc 1 491 9 discriminator 3
 492:C:/Users/stapi/OneDrive/Desktop/GD32VW553/GD32VW55X_Wifi_BLE_SDK/GD32VW55x_RELEASE_V1.0.2/MSDK/ble/app\app_conn_mgr.c **** 
 1149              		.loc 1 492 9 discriminator 3
 494:C:/Users/stapi/OneDrive/Desktop/GD32VW553/GD32VW55X_Wifi_BLE_SDK/GD32VW55x_RELEASE_V1.0.2/MSDK/ble/app\app_conn_mgr.c ****                                             p_data->slave_prefer_param_get_ind.token, &param);
 1150              		.loc 1 494 9 is_stmt 0 discriminator 3
 1151 0618 03562400 		lhu	a2,2(s0)
 1152 061c 03450400 		lbu	a0,0(s0)
 489:C:/Users/stapi/OneDrive/Desktop/GD32VW553/GD32VW55X_Wifi_BLE_SDK/GD32VW55x_RELEASE_V1.0.2/MSDK/ble/app\app_conn_mgr.c ****         param.conn_intv_max = 10;
 1153              		.loc 1 489 29 discriminator 3
 1154 0620 B7070A00 		li	a5,655360
 1155 0624 A107     		addi	a5,a5,8
 1156 0626 3ECC     		sw	a5,24(sp)
 494:C:/Users/stapi/OneDrive/Desktop/GD32VW553/GD32VW55X_Wifi_BLE_SDK/GD32VW55x_RELEASE_V1.0.2/MSDK/ble/app\app_conn_mgr.c ****                                             p_data->slave_prefer_param_get_ind.token, &param);
 1157              		.loc 1 494 9 discriminator 3
 1158 0628 3408     		addi	a3,sp,24
 491:C:/Users/stapi/OneDrive/Desktop/GD32VW553/GD32VW55X_Wifi_BLE_SDK/GD32VW55x_RELEASE_V1.0.2/MSDK/ble/app\app_conn_mgr.c ****         param.conn_tout = 200;  //2s
 1159              		.loc 1 491 23 discriminator 3
 1160 062a B707C800 		li	a5,13107200
 494:C:/Users/stapi/OneDrive/Desktop/GD32VW553/GD32VW55X_Wifi_BLE_SDK/GD32VW55x_RELEASE_V1.0.2/MSDK/ble/app\app_conn_mgr.c ****                                             p_data->slave_prefer_param_get_ind.token, &param);
 1161              		.loc 1 494 9 discriminator 3
 1162 062e 8145     		li	a1,0
 491:C:/Users/stapi/OneDrive/Desktop/GD32VW553/GD32VW55X_Wifi_BLE_SDK/GD32VW55x_RELEASE_V1.0.2/MSDK/ble/app\app_conn_mgr.c ****         param.conn_tout = 200;  //2s
 1163              		.loc 1 491 23 discriminator 3
 1164 0630 3ECE     		sw	a5,28(sp)
 494:C:/Users/stapi/OneDrive/Desktop/GD32VW553/GD32VW55X_Wifi_BLE_SDK/GD32VW55x_RELEASE_V1.0.2/MSDK/ble/app\app_conn_mgr.c ****                                             p_data->slave_prefer_param_get_ind.token, &param);
 1165              		.loc 1 494 9 is_stmt 1 discriminator 3
 1166 0632 97000000 		call	ble_conn_slave_prefer_param_get_cfm
 1166      E7800000 
 1167              	.LVL66:
 1168              	.LBE17:
 497:C:/Users/stapi/OneDrive/Desktop/GD32VW553/GD32VW55X_Wifi_BLE_SDK/GD32VW55x_RELEASE_V1.0.2/MSDK/ble/app\app_conn_mgr.c **** 
 1169              		.loc 1 497 5 discriminator 3
 1170 063a 19B6     		j	.L23
 1171              	.L43:
 500:C:/Users/stapi/OneDrive/Desktop/GD32VW553/GD32VW55X_Wifi_BLE_SDK/GD32VW55x_RELEASE_V1.0.2/MSDK/ble/app\app_conn_mgr.c **** 
 1172              		.loc 1 500 9
 1173 063c 83C54500 		lbu	a1,4(a1)
 1174 0640 0844     		lw	a0,8(s0)
 1175 0642 97000000 		call	ble_adp_name_set
 1175      E7800000 
 1176              	.LVL67:
 502:C:/Users/stapi/OneDrive/Desktop/GD32VW553/GD32VW55X_Wifi_BLE_SDK/GD32VW55x_RELEASE_V1.0.2/MSDK/ble/app\app_conn_mgr.c ****                   p_data->name_set_ind.conn_idx, p_data->name_set_ind.p_name,
 1177              		.loc 1 502 9
 502:C:/Users/stapi/OneDrive/Desktop/GD32VW553/GD32VW55X_Wifi_BLE_SDK/GD32VW55x_RELEASE_V1.0.2/MSDK/ble/app\app_conn_mgr.c ****                   p_data->name_set_ind.conn_idx, p_data->name_set_ind.p_name,
 1178              		.loc 1 502 9
 1179 064a B7070000 		lui	a5,%hi(global_debug_level)
 1180 064e 03C70700 		lbu	a4,%lo(global_debug_level)(a5)
 1181 0652 8947     		li	a5,2
 1182 0654 63FFE700 		bleu	a4,a5,.L84
 502:C:/Users/stapi/OneDrive/Desktop/GD32VW553/GD32VW55X_Wifi_BLE_SDK/GD32VW55x_RELEASE_V1.0.2/MSDK/ble/app\app_conn_mgr.c ****                   p_data->name_set_ind.conn_idx, p_data->name_set_ind.p_name,
 1183              		.loc 1 502 9 discriminator 1
 1184 0658 83464400 		lbu	a3,4(s0)
 1185 065c 1044     		lw	a2,8(s0)
 1186 065e 83450400 		lbu	a1,0(s0)
 1187 0662 37050000 		lui	a0,%hi(.LC26)
 1188 0666 13050500 		addi	a0,a0,%lo(.LC26)
 1189 066a 97000000 		call	co_printf
 1189      E7800000 
 1190              	.LVL68:
 1191              	.L84:
 502:C:/Users/stapi/OneDrive/Desktop/GD32VW553/GD32VW55X_Wifi_BLE_SDK/GD32VW55x_RELEASE_V1.0.2/MSDK/ble/app\app_conn_mgr.c ****                   p_data->name_set_ind.conn_idx, p_data->name_set_ind.p_name,
 1192              		.loc 1 502 9 discriminator 3
 506:C:/Users/stapi/OneDrive/Desktop/GD32VW553/GD32VW55X_Wifi_BLE_SDK/GD32VW55x_RELEASE_V1.0.2/MSDK/ble/app\app_conn_mgr.c ****     }
 1193              		.loc 1 506 9 discriminator 3
 1194 0672 03562400 		lhu	a2,2(s0)
 1195 0676 03450400 		lbu	a0,0(s0)
 1196 067a 8145     		li	a1,0
 1197 067c 97000000 		call	ble_conn_name_set_cfm
 1197      E7800000 
 1198              	.LVL69:
 508:C:/Users/stapi/OneDrive/Desktop/GD32VW553/GD32VW55X_Wifi_BLE_SDK/GD32VW55x_RELEASE_V1.0.2/MSDK/ble/app\app_conn_mgr.c **** 
 1199              		.loc 1 508 5 discriminator 3
 1200 0684 75BC     		j	.L23
 1201              	.L42:
 511:C:/Users/stapi/OneDrive/Desktop/GD32VW553/GD32VW55X_Wifi_BLE_SDK/GD32VW55x_RELEASE_V1.0.2/MSDK/ble/app\app_conn_mgr.c **** 
 1202              		.loc 1 511 9
 511:C:/Users/stapi/OneDrive/Desktop/GD32VW553/GD32VW55X_Wifi_BLE_SDK/GD32VW55x_RELEASE_V1.0.2/MSDK/ble/app\app_conn_mgr.c **** 
 1203              		.loc 1 511 52 is_stmt 0
 1204 0686 03D64500 		lhu	a2,4(a1)
 511:C:/Users/stapi/OneDrive/Desktop/GD32VW553/GD32VW55X_Wifi_BLE_SDK/GD32VW55x_RELEASE_V1.0.2/MSDK/ble/app\app_conn_mgr.c **** 
 1205              		.loc 1 511 24
 1206 068a B7070000 		lui	a5,%hi(.LANCHOR0)
 1207 068e 2390C700 		sh	a2,%lo(.LANCHOR0)(a5)
 513:C:/Users/stapi/OneDrive/Desktop/GD32VW553/GD32VW55X_Wifi_BLE_SDK/GD32VW55x_RELEASE_V1.0.2/MSDK/ble/app\app_conn_mgr.c ****                   p_data->appearance_set_ind.appearance);
 1208              		.loc 1 513 9 is_stmt 1
 513:C:/Users/stapi/OneDrive/Desktop/GD32VW553/GD32VW55X_Wifi_BLE_SDK/GD32VW55x_RELEASE_V1.0.2/MSDK/ble/app\app_conn_mgr.c ****                   p_data->appearance_set_ind.appearance);
 1209              		.loc 1 513 9
 1210 0692 B7070000 		lui	a5,%hi(global_debug_level)
 1211 0696 03C70700 		lbu	a4,%lo(global_debug_level)(a5)
 1212 069a 8947     		li	a5,2
 1213 069c 63FCE700 		bleu	a4,a5,.L85
 513:C:/Users/stapi/OneDrive/Desktop/GD32VW553/GD32VW55X_Wifi_BLE_SDK/GD32VW55x_RELEASE_V1.0.2/MSDK/ble/app\app_conn_mgr.c ****                   p_data->appearance_set_ind.appearance);
 1214              		.loc 1 513 9 discriminator 1
 1215 06a0 83C50500 		lbu	a1,0(a1)
 1216 06a4 37050000 		lui	a0,%hi(.LC27)
 1217 06a8 13050500 		addi	a0,a0,%lo(.LC27)
 1218 06ac 97000000 		call	co_printf
 1218      E7800000 
 1219              	.LVL70:
 1220              	.L85:
 513:C:/Users/stapi/OneDrive/Desktop/GD32VW553/GD32VW55X_Wifi_BLE_SDK/GD32VW55x_RELEASE_V1.0.2/MSDK/ble/app\app_conn_mgr.c ****                   p_data->appearance_set_ind.appearance);
 1221              		.loc 1 513 9 discriminator 3
 516:C:/Users/stapi/OneDrive/Desktop/GD32VW553/GD32VW55X_Wifi_BLE_SDK/GD32VW55x_RELEASE_V1.0.2/MSDK/ble/app\app_conn_mgr.c ****                                     p_data->appearance_set_ind.token);
 1222              		.loc 1 516 9 discriminator 3
 1223 06b4 03562400 		lhu	a2,2(s0)
 1224 06b8 03450400 		lbu	a0,0(s0)
 1225 06bc 8145     		li	a1,0
 1226 06be 97000000 		call	ble_conn_appearance_set_cfm
 1226      E7800000 
 1227              	.LVL71:
 519:C:/Users/stapi/OneDrive/Desktop/GD32VW553/GD32VW55X_Wifi_BLE_SDK/GD32VW55x_RELEASE_V1.0.2/MSDK/ble/app\app_conn_mgr.c **** 
 1228              		.loc 1 519 5 discriminator 3
 1229 06c6 ADBC     		j	.L23
 1230              	.L41:
 522:C:/Users/stapi/OneDrive/Desktop/GD32VW553/GD32VW55X_Wifi_BLE_SDK/GD32VW55x_RELEASE_V1.0.2/MSDK/ble/app\app_conn_mgr.c ****                   p_data->conn_param_req_ind.conn_idx, p_data->conn_param_req_ind.intv_min,
 1231              		.loc 1 522 9
 522:C:/Users/stapi/OneDrive/Desktop/GD32VW553/GD32VW55X_Wifi_BLE_SDK/GD32VW55x_RELEASE_V1.0.2/MSDK/ble/app\app_conn_mgr.c ****                   p_data->conn_param_req_ind.conn_idx, p_data->conn_param_req_ind.intv_min,
 1232              		.loc 1 522 9
 1233 06c8 B7070000 		lui	a5,%hi(global_debug_level)
 1234 06cc 83C60700 		lbu	a3,%lo(global_debug_level)(a5)
 1235 06d0 0947     		li	a4,2
 1236 06d2 BE84     		mv	s1,a5
 1237 06d4 6374D702 		bleu	a3,a4,.L86
 522:C:/Users/stapi/OneDrive/Desktop/GD32VW553/GD32VW55X_Wifi_BLE_SDK/GD32VW55x_RELEASE_V1.0.2/MSDK/ble/app\app_conn_mgr.c ****                   p_data->conn_param_req_ind.conn_idx, p_data->conn_param_req_ind.intv_min,
 1238              		.loc 1 522 9 discriminator 1
 1239 06d8 83D78500 		lhu	a5,8(a1)
 1240 06dc 03D76500 		lhu	a4,6(a1)
 1241 06e0 83D64500 		lhu	a3,4(a1)
 1242 06e4 03D62500 		lhu	a2,2(a1)
 1243 06e8 83C50500 		lbu	a1,0(a1)
 1244 06ec 37050000 		lui	a0,%hi(.LC28)
 1245 06f0 13050500 		addi	a0,a0,%lo(.LC28)
 1246 06f4 97000000 		call	co_printf
 1246      E7800000 
 1247              	.LVL72:
 1248              	.L86:
 522:C:/Users/stapi/OneDrive/Desktop/GD32VW553/GD32VW55X_Wifi_BLE_SDK/GD32VW55x_RELEASE_V1.0.2/MSDK/ble/app\app_conn_mgr.c ****                   p_data->conn_param_req_ind.conn_idx, p_data->conn_param_req_ind.intv_min,
 1249              		.loc 1 522 9 discriminator 3
 526:C:/Users/stapi/OneDrive/Desktop/GD32VW553/GD32VW55X_Wifi_BLE_SDK/GD32VW55x_RELEASE_V1.0.2/MSDK/ble/app\app_conn_mgr.c **** 
 1250              		.loc 1 526 9 discriminator 3
 526:C:/Users/stapi/OneDrive/Desktop/GD32VW553/GD32VW55X_Wifi_BLE_SDK/GD32VW55x_RELEASE_V1.0.2/MSDK/ble/app\app_conn_mgr.c **** 
 1251              		.loc 1 526 20 is_stmt 0 discriminator 3
 1252 06fc 03450400 		lbu	a0,0(s0)
 1253 0700 97000000 		call	dm_find_dev_by_conidx
 1253      E7800000 
 1254              	.LVL73:
 528:C:/Users/stapi/OneDrive/Desktop/GD32VW553/GD32VW55X_Wifi_BLE_SDK/GD32VW55x_RELEASE_V1.0.2/MSDK/ble/app\app_conn_mgr.c ****             dbg_print(WARNING, "fast parameters enabled, reject remote param update indication\r\n"
 1255              		.loc 1 528 9 is_stmt 1 discriminator 3
 528:C:/Users/stapi/OneDrive/Desktop/GD32VW553/GD32VW55X_Wifi_BLE_SDK/GD32VW55x_RELEASE_V1.0.2/MSDK/ble/app\app_conn_mgr.c ****             dbg_print(WARNING, "fast parameters enabled, reject remote param update indication\r\n"
 1256              		.loc 1 528 12 is_stmt 0 discriminator 3
 1257 0708 1DC9     		beq	a0,zero,.L87
 528:C:/Users/stapi/OneDrive/Desktop/GD32VW553/GD32VW55X_Wifi_BLE_SDK/GD32VW55x_RELEASE_V1.0.2/MSDK/ble/app\app_conn_mgr.c ****             dbg_print(WARNING, "fast parameters enabled, reject remote param update indication\r\n"
 1258              		.loc 1 528 30 discriminator 1
 1259 070a 83470502 		lbu	a5,32(a0)
 1260 070e 85CB     		beq	a5,zero,.L87
 529:C:/Users/stapi/OneDrive/Desktop/GD32VW553/GD32VW55X_Wifi_BLE_SDK/GD32VW55x_RELEASE_V1.0.2/MSDK/ble/app\app_conn_mgr.c ****             ble_conn_param_update_cfm(p_data->conn_param_req_ind.conn_idx, false, 0, 0);
 1261              		.loc 1 529 13 is_stmt 1
 529:C:/Users/stapi/OneDrive/Desktop/GD32VW553/GD32VW55X_Wifi_BLE_SDK/GD32VW55x_RELEASE_V1.0.2/MSDK/ble/app\app_conn_mgr.c ****             ble_conn_param_update_cfm(p_data->conn_param_req_ind.conn_idx, false, 0, 0);
 1262              		.loc 1 529 13
 1263 0710 03C70400 		lbu	a4,%lo(global_debug_level)(s1)
 1264 0714 8547     		li	a5,1
 1265 0716 63FAE700 		bleu	a4,a5,.L88
 529:C:/Users/stapi/OneDrive/Desktop/GD32VW553/GD32VW55X_Wifi_BLE_SDK/GD32VW55x_RELEASE_V1.0.2/MSDK/ble/app\app_conn_mgr.c ****             ble_conn_param_update_cfm(p_data->conn_param_req_ind.conn_idx, false, 0, 0);
 1266              		.loc 1 529 13 discriminator 1
 1267 071a 37050000 		lui	a0,%hi(.LC29)
 1268              	.LVL74:
 1269 071e 13050500 		addi	a0,a0,%lo(.LC29)
 1270 0722 97000000 		call	co_printf
 1270      E7800000 
 1271              	.LVL75:
 1272              	.L88:
 529:C:/Users/stapi/OneDrive/Desktop/GD32VW553/GD32VW55X_Wifi_BLE_SDK/GD32VW55x_RELEASE_V1.0.2/MSDK/ble/app\app_conn_mgr.c ****             ble_conn_param_update_cfm(p_data->conn_param_req_ind.conn_idx, false, 0, 0);
 1273              		.loc 1 529 13 discriminator 3
 530:C:/Users/stapi/OneDrive/Desktop/GD32VW553/GD32VW55X_Wifi_BLE_SDK/GD32VW55x_RELEASE_V1.0.2/MSDK/ble/app\app_conn_mgr.c ****         } else if (p_data->conn_param_req_ind.intv_max < p_data->conn_param_req_ind.intv_min) {
 1274              		.loc 1 530 13 discriminator 3
 1275 072a 03450400 		lbu	a0,0(s0)
 1276 072e 8146     		li	a3,0
 1277 0730 0146     		li	a2,0
 1278 0732 8145     		li	a1,0
 1279              	.L145:
 532:C:/Users/stapi/OneDrive/Desktop/GD32VW553/GD32VW55X_Wifi_BLE_SDK/GD32VW55x_RELEASE_V1.0.2/MSDK/ble/app\app_conn_mgr.c ****         } else {
 1280              		.loc 1 532 13 is_stmt 0
 1281 0734 97000000 		call	ble_conn_param_update_cfm
 1281      E7800000 
 1282              	.LVL76:
 1283 073c 11B4     		j	.L23
 1284              	.LVL77:
 1285              	.L87:
 531:C:/Users/stapi/OneDrive/Desktop/GD32VW553/GD32VW55X_Wifi_BLE_SDK/GD32VW55x_RELEASE_V1.0.2/MSDK/ble/app\app_conn_mgr.c ****             ble_conn_param_update_cfm(p_data->conn_param_req_ind.conn_idx, false, 0, 0);
 1286              		.loc 1 531 16 is_stmt 1
 531:C:/Users/stapi/OneDrive/Desktop/GD32VW553/GD32VW55X_Wifi_BLE_SDK/GD32VW55x_RELEASE_V1.0.2/MSDK/ble/app\app_conn_mgr.c ****             ble_conn_param_update_cfm(p_data->conn_param_req_ind.conn_idx, false, 0, 0);
 1287              		.loc 1 531 19 is_stmt 0
 1288 073e 03574400 		lhu	a4,4(s0)
 1289 0742 83572400 		lhu	a5,2(s0)
 532:C:/Users/stapi/OneDrive/Desktop/GD32VW553/GD32VW55X_Wifi_BLE_SDK/GD32VW55x_RELEASE_V1.0.2/MSDK/ble/app\app_conn_mgr.c ****         } else {
 1290              		.loc 1 532 13
 1291 0746 03450400 		lbu	a0,0(s0)
 1292              	.LVL78:
 531:C:/Users/stapi/OneDrive/Desktop/GD32VW553/GD32VW55X_Wifi_BLE_SDK/GD32VW55x_RELEASE_V1.0.2/MSDK/ble/app\app_conn_mgr.c ****             ble_conn_param_update_cfm(p_data->conn_param_req_ind.conn_idx, false, 0, 0);
 1293              		.loc 1 531 19
 1294 074a 6376F700 		bgeu	a4,a5,.L89
 532:C:/Users/stapi/OneDrive/Desktop/GD32VW553/GD32VW55X_Wifi_BLE_SDK/GD32VW55x_RELEASE_V1.0.2/MSDK/ble/app\app_conn_mgr.c ****         } else {
 1295              		.loc 1 532 13 is_stmt 1
 1296 074e 8146     		li	a3,0
 1297 0750 0146     		li	a2,0
 1298 0752 8145     		li	a1,0
 1299 0754 C5B7     		j	.L145
 1300              	.L89:
 534:C:/Users/stapi/OneDrive/Desktop/GD32VW553/GD32VW55X_Wifi_BLE_SDK/GD32VW55x_RELEASE_V1.0.2/MSDK/ble/app\app_conn_mgr.c ****         }
 1301              		.loc 1 534 13
 1302 0756 9146     		li	a3,4
 1303 0758 0946     		li	a2,2
 1304 075a 8545     		li	a1,1
 1305 075c E1BF     		j	.L145
 1306              	.L40:
 540:C:/Users/stapi/OneDrive/Desktop/GD32VW553/GD32VW55X_Wifi_BLE_SDK/GD32VW55x_RELEASE_V1.0.2/MSDK/ble/app\app_conn_mgr.c ****                   p_data->conn_param_rsp.conn_idx, p_data->conn_param_rsp.status);
 1307              		.loc 1 540 9
 540:C:/Users/stapi/OneDrive/Desktop/GD32VW553/GD32VW55X_Wifi_BLE_SDK/GD32VW55x_RELEASE_V1.0.2/MSDK/ble/app\app_conn_mgr.c ****                   p_data->conn_param_rsp.conn_idx, p_data->conn_param_rsp.status);
 1308              		.loc 1 540 9
 1309 075e B7070000 		lui	a5,%hi(global_debug_level)
 1310 0762 83C60700 		lbu	a3,%lo(global_debug_level)(a5)
 1311 0766 0947     		li	a4,2
 1312 0768 3E89     		mv	s2,a5
 1313 076a 637ED700 		bleu	a3,a4,.L90
 540:C:/Users/stapi/OneDrive/Desktop/GD32VW553/GD32VW55X_Wifi_BLE_SDK/GD32VW55x_RELEASE_V1.0.2/MSDK/ble/app\app_conn_mgr.c ****                   p_data->conn_param_rsp.conn_idx, p_data->conn_param_rsp.status);
 1314              		.loc 1 540 9 discriminator 1
 1315 076e 03D60500 		lhu	a2,0(a1)
 1316 0772 83C52500 		lbu	a1,2(a1)
 1317 0776 37050000 		lui	a0,%hi(.LC30)
 1318 077a 13050500 		addi	a0,a0,%lo(.LC30)
 1319 077e 97000000 		call	co_printf
 1319      E7800000 
 1320              	.LVL79:
 1321              	.L90:
 540:C:/Users/stapi/OneDrive/Desktop/GD32VW553/GD32VW55X_Wifi_BLE_SDK/GD32VW55x_RELEASE_V1.0.2/MSDK/ble/app\app_conn_mgr.c ****                   p_data->conn_param_rsp.conn_idx, p_data->conn_param_rsp.status);
 1322              		.loc 1 540 9 discriminator 3
 543:C:/Users/stapi/OneDrive/Desktop/GD32VW553/GD32VW55X_Wifi_BLE_SDK/GD32VW55x_RELEASE_V1.0.2/MSDK/ble/app\app_conn_mgr.c **** 
 1323              		.loc 1 543 9 discriminator 3
 543:C:/Users/stapi/OneDrive/Desktop/GD32VW553/GD32VW55X_Wifi_BLE_SDK/GD32VW55x_RELEASE_V1.0.2/MSDK/ble/app\app_conn_mgr.c **** 
 1324              		.loc 1 543 20 is_stmt 0 discriminator 3
 1325 0786 03450400 		lbu	a0,0(s0)
 1326 078a 97000000 		call	dm_find_dev_by_conidx
 1326      E7800000 
 1327              	.LVL80:
 1328 0792 AA84     		mv	s1,a0
 1329              	.LVL81:
 545:C:/Users/stapi/OneDrive/Desktop/GD32VW553/GD32VW55X_Wifi_BLE_SDK/GD32VW55x_RELEASE_V1.0.2/MSDK/ble/app\app_conn_mgr.c ****             if (p_data->conn_param_rsp.status != BLE_ERR_NO_ERROR) {
 1330              		.loc 1 545 9 is_stmt 1 discriminator 3
 545:C:/Users/stapi/OneDrive/Desktop/GD32VW553/GD32VW55X_Wifi_BLE_SDK/GD32VW55x_RELEASE_V1.0.2/MSDK/ble/app\app_conn_mgr.c ****             if (p_data->conn_param_rsp.status != BLE_ERR_NO_ERROR) {
 1331              		.loc 1 545 12 is_stmt 0 discriminator 3
 1332 0794 E306059A 		beq	a0,zero,.L23
 546:C:/Users/stapi/OneDrive/Desktop/GD32VW553/GD32VW55X_Wifi_BLE_SDK/GD32VW55x_RELEASE_V1.0.2/MSDK/ble/app\app_conn_mgr.c ****                 dbg_print(WARNING, "conn idx %u, param update fail update_state: 0x%x\r\n",
 1333              		.loc 1 546 13 is_stmt 1
 546:C:/Users/stapi/OneDrive/Desktop/GD32VW553/GD32VW55X_Wifi_BLE_SDK/GD32VW55x_RELEASE_V1.0.2/MSDK/ble/app\app_conn_mgr.c ****                 dbg_print(WARNING, "conn idx %u, param update fail update_state: 0x%x\r\n",
 1334              		.loc 1 546 16 is_stmt 0
 1335 0798 83570400 		lhu	a5,0(s0)
 1336 079c E382079A 		beq	a5,zero,.L23
 547:C:/Users/stapi/OneDrive/Desktop/GD32VW553/GD32VW55X_Wifi_BLE_SDK/GD32VW55x_RELEASE_V1.0.2/MSDK/ble/app\app_conn_mgr.c ****                           p_data->conn_param_rsp.conn_idx, p_device->update_state);
 1337              		.loc 1 547 17 is_stmt 1
 547:C:/Users/stapi/OneDrive/Desktop/GD32VW553/GD32VW55X_Wifi_BLE_SDK/GD32VW55x_RELEASE_V1.0.2/MSDK/ble/app\app_conn_mgr.c ****                           p_data->conn_param_rsp.conn_idx, p_device->update_state);
 1338              		.loc 1 547 17
 1339 07a0 03470900 		lbu	a4,%lo(global_debug_level)(s2)
 1340 07a4 8547     		li	a5,1
 1341 07a6 63FDE700 		bleu	a4,a5,.L91
 547:C:/Users/stapi/OneDrive/Desktop/GD32VW553/GD32VW55X_Wifi_BLE_SDK/GD32VW55x_RELEASE_V1.0.2/MSDK/ble/app\app_conn_mgr.c ****                           p_data->conn_param_rsp.conn_idx, p_device->update_state);
 1342              		.loc 1 547 17 discriminator 1
 1343 07aa 5051     		lw	a2,36(a0)
 1344 07ac 83452400 		lbu	a1,2(s0)
 1345 07b0 37050000 		lui	a0,%hi(.LC31)
 1346 07b4 13050500 		addi	a0,a0,%lo(.LC31)
 1347 07b8 97000000 		call	co_printf
 1347      E7800000 
 1348              	.LVL82:
 1349              	.L91:
 547:C:/Users/stapi/OneDrive/Desktop/GD32VW553/GD32VW55X_Wifi_BLE_SDK/GD32VW55x_RELEASE_V1.0.2/MSDK/ble/app\app_conn_mgr.c ****                           p_data->conn_param_rsp.conn_idx, p_device->update_state);
 1350              		.loc 1 547 17 discriminator 3
 549:C:/Users/stapi/OneDrive/Desktop/GD32VW553/GD32VW55X_Wifi_BLE_SDK/GD32VW55x_RELEASE_V1.0.2/MSDK/ble/app\app_conn_mgr.c ****                 p_device->update_state = IDLE_STATE;
 1351              		.loc 1 549 17 discriminator 3
 552:C:/Users/stapi/OneDrive/Desktop/GD32VW553/GD32VW55X_Wifi_BLE_SDK/GD32VW55x_RELEASE_V1.0.2/MSDK/ble/app\app_conn_mgr.c ****             }
 1352              		.loc 1 552 17 is_stmt 0 discriminator 3
 1353 07c0 03452400 		lbu	a0,2(s0)
 549:C:/Users/stapi/OneDrive/Desktop/GD32VW553/GD32VW55X_Wifi_BLE_SDK/GD32VW55x_RELEASE_V1.0.2/MSDK/ble/app\app_conn_mgr.c ****                 p_device->update_state = IDLE_STATE;
 1354              		.loc 1 549 45 discriminator 3
 1355 07c4 23800402 		sb	zero,32(s1)
 550:C:/Users/stapi/OneDrive/Desktop/GD32VW553/GD32VW55X_Wifi_BLE_SDK/GD32VW55x_RELEASE_V1.0.2/MSDK/ble/app\app_conn_mgr.c **** 
 1356              		.loc 1 550 17 is_stmt 1 discriminator 3
 550:C:/Users/stapi/OneDrive/Desktop/GD32VW553/GD32VW55X_Wifi_BLE_SDK/GD32VW55x_RELEASE_V1.0.2/MSDK/ble/app\app_conn_mgr.c **** 
 1357              		.loc 1 550 40 is_stmt 0 discriminator 3
 1358 07c8 23A20402 		sw	zero,36(s1)
 552:C:/Users/stapi/OneDrive/Desktop/GD32VW553/GD32VW55X_Wifi_BLE_SDK/GD32VW55x_RELEASE_V1.0.2/MSDK/ble/app\app_conn_mgr.c ****             }
 1359              		.loc 1 552 17 is_stmt 1 discriminator 3
 1360              	.L147:
 590:C:/Users/stapi/OneDrive/Desktop/GD32VW553/GD32VW55X_Wifi_BLE_SDK/GD32VW55x_RELEASE_V1.0.2/MSDK/ble/app\app_conn_mgr.c ****             }
 1361              		.loc 1 590 17 is_stmt 0
 1362 07cc 97000000 		call	check_param_update_op
 1362      E7800000 
 1363              	.LVL83:
 1364 07d4 B5B2     		j	.L23
 1365              	.LVL84:
 1366              	.L39:
 559:C:/Users/stapi/OneDrive/Desktop/GD32VW553/GD32VW55X_Wifi_BLE_SDK/GD32VW55x_RELEASE_V1.0.2/MSDK/ble/app\app_conn_mgr.c ****                   p_data->conn_params.conn_idx,
 1367              		.loc 1 559 9 is_stmt 1
 559:C:/Users/stapi/OneDrive/Desktop/GD32VW553/GD32VW55X_Wifi_BLE_SDK/GD32VW55x_RELEASE_V1.0.2/MSDK/ble/app\app_conn_mgr.c ****                   p_data->conn_params.conn_idx,
 1368              		.loc 1 559 9
 1369 07d6 B7070000 		lui	a5,%hi(global_debug_level)
 1370 07da 03C70700 		lbu	a4,%lo(global_debug_level)(a5)
 1371 07de 8947     		li	a5,2
 1372 07e0 63F2E702 		bleu	a4,a5,.L92
 559:C:/Users/stapi/OneDrive/Desktop/GD32VW553/GD32VW55X_Wifi_BLE_SDK/GD32VW55x_RELEASE_V1.0.2/MSDK/ble/app\app_conn_mgr.c ****                   p_data->conn_params.conn_idx,
 1373              		.loc 1 559 9 discriminator 1
 1374 07e4 03D76500 		lhu	a4,6(a1)
 1375 07e8 83D64500 		lhu	a3,4(a1)
 1376 07ec 03D62500 		lhu	a2,2(a1)
 1377 07f0 83C50500 		lbu	a1,0(a1)
 1378 07f4 37050000 		lui	a0,%hi(.LC32)
 1379 07f8 13050500 		addi	a0,a0,%lo(.LC32)
 1380 07fc 97000000 		call	co_printf
 1380      E7800000 
 1381              	.LVL85:
 1382              	.L92:
 559:C:/Users/stapi/OneDrive/Desktop/GD32VW553/GD32VW55X_Wifi_BLE_SDK/GD32VW55x_RELEASE_V1.0.2/MSDK/ble/app\app_conn_mgr.c ****                   p_data->conn_params.conn_idx,
 1383              		.loc 1 559 9 discriminator 3
 563:C:/Users/stapi/OneDrive/Desktop/GD32VW553/GD32VW55X_Wifi_BLE_SDK/GD32VW55x_RELEASE_V1.0.2/MSDK/ble/app\app_conn_mgr.c **** 
 1384              		.loc 1 563 9 discriminator 3
 563:C:/Users/stapi/OneDrive/Desktop/GD32VW553/GD32VW55X_Wifi_BLE_SDK/GD32VW55x_RELEASE_V1.0.2/MSDK/ble/app\app_conn_mgr.c **** 
 1385              		.loc 1 563 20 is_stmt 0 discriminator 3
 1386 0804 03450400 		lbu	a0,0(s0)
 1387 0808 97000000 		call	dm_find_dev_by_conidx
 1387      E7800000 
 1388              	.LVL86:
 1389 0810 AA84     		mv	s1,a0
 1390              	.LVL87:
 565:C:/Users/stapi/OneDrive/Desktop/GD32VW553/GD32VW55X_Wifi_BLE_SDK/GD32VW55x_RELEASE_V1.0.2/MSDK/ble/app\app_conn_mgr.c ****             p_device->conn_info.interval = p_data->conn_params.interval;
 1391              		.loc 1 565 9 is_stmt 1 discriminator 3
 565:C:/Users/stapi/OneDrive/Desktop/GD32VW553/GD32VW55X_Wifi_BLE_SDK/GD32VW55x_RELEASE_V1.0.2/MSDK/ble/app\app_conn_mgr.c ****             p_device->conn_info.interval = p_data->conn_params.interval;
 1392              		.loc 1 565 12 is_stmt 0 discriminator 3
 1393 0812 E3070592 		beq	a0,zero,.L23
 566:C:/Users/stapi/OneDrive/Desktop/GD32VW553/GD32VW55X_Wifi_BLE_SDK/GD32VW55x_RELEASE_V1.0.2/MSDK/ble/app\app_conn_mgr.c ****             p_device->conn_info.latency = p_data->conn_params.latency;
 1394              		.loc 1 566 13 is_stmt 1
 566:C:/Users/stapi/OneDrive/Desktop/GD32VW553/GD32VW55X_Wifi_BLE_SDK/GD32VW55x_RELEASE_V1.0.2/MSDK/ble/app\app_conn_mgr.c ****             p_device->conn_info.latency = p_data->conn_params.latency;
 1395              		.loc 1 566 42 is_stmt 0
 1396 0816 83572400 		lhu	a5,2(s0)
 1397 081a 2314F502 		sh	a5,40(a0)
 567:C:/Users/stapi/OneDrive/Desktop/GD32VW553/GD32VW55X_Wifi_BLE_SDK/GD32VW55x_RELEASE_V1.0.2/MSDK/ble/app\app_conn_mgr.c ****             p_device->conn_info.supv_tout = p_data->conn_params.supv_tout;
 1398              		.loc 1 567 13 is_stmt 1
 567:C:/Users/stapi/OneDrive/Desktop/GD32VW553/GD32VW55X_Wifi_BLE_SDK/GD32VW55x_RELEASE_V1.0.2/MSDK/ble/app\app_conn_mgr.c ****             p_device->conn_info.supv_tout = p_data->conn_params.supv_tout;
 1399              		.loc 1 567 41 is_stmt 0
 1400 081e 83574400 		lhu	a5,4(s0)
 1401 0822 2315F502 		sh	a5,42(a0)
 568:C:/Users/stapi/OneDrive/Desktop/GD32VW553/GD32VW55X_Wifi_BLE_SDK/GD32VW55x_RELEASE_V1.0.2/MSDK/ble/app\app_conn_mgr.c **** 
 1402              		.loc 1 568 13 is_stmt 1
 568:C:/Users/stapi/OneDrive/Desktop/GD32VW553/GD32VW55X_Wifi_BLE_SDK/GD32VW55x_RELEASE_V1.0.2/MSDK/ble/app\app_conn_mgr.c **** 
 1403              		.loc 1 568 43 is_stmt 0
 1404 0826 83576400 		lhu	a5,6(s0)
 1405 082a 2316F502 		sh	a5,44(a0)
 570:C:/Users/stapi/OneDrive/Desktop/GD32VW553/GD32VW55X_Wifi_BLE_SDK/GD32VW55x_RELEASE_V1.0.2/MSDK/ble/app\app_conn_mgr.c ****                 if (p_device->update_state == FAST_PARAM_UPDATING_STATE) {
 1406              		.loc 1 570 13 is_stmt 1
 570:C:/Users/stapi/OneDrive/Desktop/GD32VW553/GD32VW55X_Wifi_BLE_SDK/GD32VW55x_RELEASE_V1.0.2/MSDK/ble/app\app_conn_mgr.c ****                 if (p_device->update_state == FAST_PARAM_UPDATING_STATE) {
 1407              		.loc 1 570 16 is_stmt 0
 1408 082e 83470502 		lbu	a5,32(a0)
 1409 0832 A5C3     		beq	a5,zero,.L93
 571:C:/Users/stapi/OneDrive/Desktop/GD32VW553/GD32VW55X_Wifi_BLE_SDK/GD32VW55x_RELEASE_V1.0.2/MSDK/ble/app\app_conn_mgr.c ****                     p_device->update_state = FAST_PARAM_UPDATED_STATE;
 1410              		.loc 1 571 17 is_stmt 1
 571:C:/Users/stapi/OneDrive/Desktop/GD32VW553/GD32VW55X_Wifi_BLE_SDK/GD32VW55x_RELEASE_V1.0.2/MSDK/ble/app\app_conn_mgr.c ****                     p_device->update_state = FAST_PARAM_UPDATED_STATE;
 1411              		.loc 1 571 29 is_stmt 0
 1412 0834 5C51     		lw	a5,36(a0)
 571:C:/Users/stapi/OneDrive/Desktop/GD32VW553/GD32VW55X_Wifi_BLE_SDK/GD32VW55x_RELEASE_V1.0.2/MSDK/ble/app\app_conn_mgr.c ****                     p_device->update_state = FAST_PARAM_UPDATED_STATE;
 1413              		.loc 1 571 20
 1414 0836 0949     		li	s2,2
 1415 0838 63952701 		bne	a5,s2,.L94
 572:C:/Users/stapi/OneDrive/Desktop/GD32VW553/GD32VW55X_Wifi_BLE_SDK/GD32VW55x_RELEASE_V1.0.2/MSDK/ble/app\app_conn_mgr.c ****                 } else if (p_device->update_state == UPDATING_STATE) {
 1416              		.loc 1 572 21 is_stmt 1
 572:C:/Users/stapi/OneDrive/Desktop/GD32VW553/GD32VW55X_Wifi_BLE_SDK/GD32VW55x_RELEASE_V1.0.2/MSDK/ble/app\app_conn_mgr.c ****                 } else if (p_device->update_state == UPDATING_STATE) {
 1417              		.loc 1 572 44 is_stmt 0
 1418 083c 8D47     		li	a5,3
 1419 083e 5CD1     		sw	a5,36(a0)
 1420 0840 01B2     		j	.L23
 1421              	.L94:
 573:C:/Users/stapi/OneDrive/Desktop/GD32VW553/GD32VW55X_Wifi_BLE_SDK/GD32VW55x_RELEASE_V1.0.2/MSDK/ble/app\app_conn_mgr.c ****                     if (ble_conn_param_update_req(p_data->conn_params.conn_idx, BLE_CONN_FAST_INTV,
 1422              		.loc 1 573 24 is_stmt 1
 573:C:/Users/stapi/OneDrive/Desktop/GD32VW553/GD32VW55X_Wifi_BLE_SDK/GD32VW55x_RELEASE_V1.0.2/MSDK/ble/app\app_conn_mgr.c ****                     if (ble_conn_param_update_req(p_data->conn_params.conn_idx, BLE_CONN_FAST_INTV,
 1423              		.loc 1 573 27 is_stmt 0
 1424 0842 0547     		li	a4,1
 1425 0844 E39EE78E 		bne	a5,a4,.L23
 574:C:/Users/stapi/OneDrive/Desktop/GD32VW553/GD32VW55X_Wifi_BLE_SDK/GD32VW55x_RELEASE_V1.0.2/MSDK/ble/app\app_conn_mgr.c ****                                                   BLE_CONN_FAST_LATENCY, BLE_CONN_FAST_SUPV_TOUT, 0
 1426              		.loc 1 574 21 is_stmt 1
 574:C:/Users/stapi/OneDrive/Desktop/GD32VW553/GD32VW55X_Wifi_BLE_SDK/GD32VW55x_RELEASE_V1.0.2/MSDK/ble/app\app_conn_mgr.c ****                                                   BLE_CONN_FAST_LATENCY, BLE_CONN_FAST_SUPV_TOUT, 0
 1427              		.loc 1 574 25 is_stmt 0
 1428 0848 03450400 		lbu	a0,0(s0)
 1429 084c 0148     		li	a6,0
 1430 084e 8147     		li	a5,0
 1431 0850 13074006 		li	a4,100
 1432 0854 8146     		li	a3,0
 1433 0856 1946     		li	a2,6
 1434 0858 9945     		li	a1,6
 1435 085a 97000000 		call	ble_conn_param_update_req
 1435      E7800000 
 1436              	.LVL88:
 574:C:/Users/stapi/OneDrive/Desktop/GD32VW553/GD32VW55X_Wifi_BLE_SDK/GD32VW55x_RELEASE_V1.0.2/MSDK/ble/app\app_conn_mgr.c ****                                                   BLE_CONN_FAST_LATENCY, BLE_CONN_FAST_SUPV_TOUT, 0
 1437              		.loc 1 574 24
 1438 0862 0DE1     		bne	a0,zero,.L95
 576:C:/Users/stapi/OneDrive/Desktop/GD32VW553/GD32VW55X_Wifi_BLE_SDK/GD32VW55x_RELEASE_V1.0.2/MSDK/ble/app\app_conn_mgr.c **** 
 1439              		.loc 1 576 25 is_stmt 1
 579:C:/Users/stapi/OneDrive/Desktop/GD32VW553/GD32VW55X_Wifi_BLE_SDK/GD32VW55x_RELEASE_V1.0.2/MSDK/ble/app\app_conn_mgr.c ****                             p_device->expect_conn_info = p_device->conn_info;
 1440              		.loc 1 579 28 is_stmt 0
 1441 0864 83D72403 		lhu	a5,50(s1)
 576:C:/Users/stapi/OneDrive/Desktop/GD32VW553/GD32VW55X_Wifi_BLE_SDK/GD32VW55x_RELEASE_V1.0.2/MSDK/ble/app\app_conn_mgr.c **** 
 1442              		.loc 1 576 48
 1443 0868 23A22403 		sw	s2,36(s1)
 579:C:/Users/stapi/OneDrive/Desktop/GD32VW553/GD32VW55X_Wifi_BLE_SDK/GD32VW55x_RELEASE_V1.0.2/MSDK/ble/app\app_conn_mgr.c ****                             p_device->expect_conn_info = p_device->conn_info;
 1444              		.loc 1 579 25 is_stmt 1
 579:C:/Users/stapi/OneDrive/Desktop/GD32VW553/GD32VW55X_Wifi_BLE_SDK/GD32VW55x_RELEASE_V1.0.2/MSDK/ble/app\app_conn_mgr.c ****                             p_device->expect_conn_info = p_device->conn_info;
 1445              		.loc 1 579 28 is_stmt 0
 1446 086c E39A078C 		bne	a5,zero,.L23
 580:C:/Users/stapi/OneDrive/Desktop/GD32VW553/GD32VW55X_Wifi_BLE_SDK/GD32VW55x_RELEASE_V1.0.2/MSDK/ble/app\app_conn_mgr.c ****                         }
 1447              		.loc 1 580 29 is_stmt 1
 580:C:/Users/stapi/OneDrive/Desktop/GD32VW553/GD32VW55X_Wifi_BLE_SDK/GD32VW55x_RELEASE_V1.0.2/MSDK/ble/app\app_conn_mgr.c ****                         }
 1448              		.loc 1 580 56 is_stmt 0
 1449 0870 2946     		li	a2,10
 1450 0872 93858402 		addi	a1,s1,40
 1451 0876 13852403 		addi	a0,s1,50
 1452 087a 97000000 		call	memcpy
 1452      E7800000 
 1453              	.LVL89:
 1454 0882 7DB8     		j	.L23
 1455              	.L95:
 583:C:/Users/stapi/OneDrive/Desktop/GD32VW553/GD32VW55X_Wifi_BLE_SDK/GD32VW55x_RELEASE_V1.0.2/MSDK/ble/app\app_conn_mgr.c ****                         p_device->enable_fast_param = false;
 1456              		.loc 1 583 25 is_stmt 1
 583:C:/Users/stapi/OneDrive/Desktop/GD32VW553/GD32VW55X_Wifi_BLE_SDK/GD32VW55x_RELEASE_V1.0.2/MSDK/ble/app\app_conn_mgr.c ****                         p_device->enable_fast_param = false;
 1457              		.loc 1 583 48 is_stmt 0
 1458 0884 23A20402 		sw	zero,36(s1)
 584:C:/Users/stapi/OneDrive/Desktop/GD32VW553/GD32VW55X_Wifi_BLE_SDK/GD32VW55x_RELEASE_V1.0.2/MSDK/ble/app\app_conn_mgr.c ****                         check_param_update_op(p_data->conn_params.conn_idx);
 1459              		.loc 1 584 25 is_stmt 1
 584:C:/Users/stapi/OneDrive/Desktop/GD32VW553/GD32VW55X_Wifi_BLE_SDK/GD32VW55x_RELEASE_V1.0.2/MSDK/ble/app\app_conn_mgr.c ****                         check_param_update_op(p_data->conn_params.conn_idx);
 1460              		.loc 1 584 53 is_stmt 0
 1461 0888 23800402 		sb	zero,32(s1)
 585:C:/Users/stapi/OneDrive/Desktop/GD32VW553/GD32VW55X_Wifi_BLE_SDK/GD32VW55x_RELEASE_V1.0.2/MSDK/ble/app\app_conn_mgr.c ****                     }
 1462              		.loc 1 585 25 is_stmt 1
 1463              	.L146:
 590:C:/Users/stapi/OneDrive/Desktop/GD32VW553/GD32VW55X_Wifi_BLE_SDK/GD32VW55x_RELEASE_V1.0.2/MSDK/ble/app\app_conn_mgr.c ****             }
 1464              		.loc 1 590 17
 1465 088c 03450400 		lbu	a0,0(s0)
 1466 0890 35BF     		j	.L147
 1467              	.L93:
 589:C:/Users/stapi/OneDrive/Desktop/GD32VW553/GD32VW55X_Wifi_BLE_SDK/GD32VW55x_RELEASE_V1.0.2/MSDK/ble/app\app_conn_mgr.c ****                 check_param_update_op(p_data->conn_params.conn_idx);
 1468              		.loc 1 589 17
 589:C:/Users/stapi/OneDrive/Desktop/GD32VW553/GD32VW55X_Wifi_BLE_SDK/GD32VW55x_RELEASE_V1.0.2/MSDK/ble/app\app_conn_mgr.c ****                 check_param_update_op(p_data->conn_params.conn_idx);
 1469              		.loc 1 589 40 is_stmt 0
 1470 0892 23220502 		sw	zero,36(a0)
 1471 0896 DDBF     		j	.L146
 1472              	.LVL90:
 1473              	.L38:
 597:C:/Users/stapi/OneDrive/Desktop/GD32VW553/GD32VW55X_Wifi_BLE_SDK/GD32VW55x_RELEASE_V1.0.2/MSDK/ble/app\app_conn_mgr.c ****                   p_data->pkt_size_set_rsp.conn_idx, p_data->pkt_size_set_rsp.status);
 1474              		.loc 1 597 9 is_stmt 1
 597:C:/Users/stapi/OneDrive/Desktop/GD32VW553/GD32VW55X_Wifi_BLE_SDK/GD32VW55x_RELEASE_V1.0.2/MSDK/ble/app\app_conn_mgr.c ****                   p_data->pkt_size_set_rsp.conn_idx, p_data->pkt_size_set_rsp.status);
 1475              		.loc 1 597 9
 1476 0898 B7070000 		lui	a5,%hi(global_debug_level)
 1477 089c 03C70700 		lbu	a4,%lo(global_debug_level)(a5)
 1478 08a0 8947     		li	a5,2
 1479 08a2 E3FFE788 		bleu	a4,a5,.L23
 597:C:/Users/stapi/OneDrive/Desktop/GD32VW553/GD32VW55X_Wifi_BLE_SDK/GD32VW55x_RELEASE_V1.0.2/MSDK/ble/app\app_conn_mgr.c ****                   p_data->pkt_size_set_rsp.conn_idx, p_data->pkt_size_set_rsp.status);
 1480              		.loc 1 597 9 discriminator 1
 1481 08a6 37050000 		lui	a0,%hi(.LC33)
 1482 08aa 03D60500 		lhu	a2,0(a1)
 1483 08ae 13050500 		addi	a0,a0,%lo(.LC33)
 1484 08b2 83C52500 		lbu	a1,2(a1)
 1485 08b6 6FF02FFC 		j	.L140
 1486              	.L37:
 603:C:/Users/stapi/OneDrive/Desktop/GD32VW553/GD32VW55X_Wifi_BLE_SDK/GD32VW55x_RELEASE_V1.0.2/MSDK/ble/app\app_conn_mgr.c ****                   p_data->pkt_size_info.conn_idx, p_data->pkt_size_info.max_tx_octets,
 1487              		.loc 1 603 9
 603:C:/Users/stapi/OneDrive/Desktop/GD32VW553/GD32VW55X_Wifi_BLE_SDK/GD32VW55x_RELEASE_V1.0.2/MSDK/ble/app\app_conn_mgr.c ****                   p_data->pkt_size_info.conn_idx, p_data->pkt_size_info.max_tx_octets,
 1488              		.loc 1 603 9
 1489 08ba B7070000 		lui	a5,%hi(global_debug_level)
 1490 08be 03C70700 		lbu	a4,%lo(global_debug_level)(a5)
 1491 08c2 8947     		li	a5,2
 1492 08c4 E3FEE786 		bleu	a4,a5,.L23
 603:C:/Users/stapi/OneDrive/Desktop/GD32VW553/GD32VW55X_Wifi_BLE_SDK/GD32VW55x_RELEASE_V1.0.2/MSDK/ble/app\app_conn_mgr.c ****                   p_data->pkt_size_info.conn_idx, p_data->pkt_size_info.max_tx_octets,
 1493              		.loc 1 603 9 discriminator 1
 1494 08c8 37050000 		lui	a0,%hi(.LC34)
 1495 08cc 83D78500 		lhu	a5,8(a1)
 1496 08d0 03D76500 		lhu	a4,6(a1)
 1497 08d4 83D64500 		lhu	a3,4(a1)
 1498 08d8 03D62500 		lhu	a2,2(a1)
 1499 08dc 13050500 		addi	a0,a0,%lo(.LC34)
 1500 08e0 83C50500 		lbu	a1,0(a1)
 1501 08e4 39BE     		j	.L143
 1502              	.L36:
 611:C:/Users/stapi/OneDrive/Desktop/GD32VW553/GD32VW55X_Wifi_BLE_SDK/GD32VW55x_RELEASE_V1.0.2/MSDK/ble/app\app_conn_mgr.c ****                   p_data->phy_get.status);
 1503              		.loc 1 611 9
 611:C:/Users/stapi/OneDrive/Desktop/GD32VW553/GD32VW55X_Wifi_BLE_SDK/GD32VW55x_RELEASE_V1.0.2/MSDK/ble/app\app_conn_mgr.c ****                   p_data->phy_get.status);
 1504              		.loc 1 611 9
 1505 08e6 B7070000 		lui	a5,%hi(global_debug_level)
 1506 08ea 03C70700 		lbu	a4,%lo(global_debug_level)(a5)
 1507 08ee 8947     		li	a5,2
 1508 08f0 E3F8E784 		bleu	a4,a5,.L23
 611:C:/Users/stapi/OneDrive/Desktop/GD32VW553/GD32VW55X_Wifi_BLE_SDK/GD32VW55x_RELEASE_V1.0.2/MSDK/ble/app\app_conn_mgr.c ****                   p_data->phy_get.status);
 1509              		.loc 1 611 9 discriminator 1
 1510 08f4 37050000 		lui	a0,%hi(.LC35)
 1511 08f8 03D60500 		lhu	a2,0(a1)
 1512 08fc 13050500 		addi	a0,a0,%lo(.LC35)
 1513 0900 83C52500 		lbu	a1,2(a1)
 1514 0904 6FF04FF7 		j	.L140
 1515              	.L35:
 617:C:/Users/stapi/OneDrive/Desktop/GD32VW553/GD32VW55X_Wifi_BLE_SDK/GD32VW55x_RELEASE_V1.0.2/MSDK/ble/app\app_conn_mgr.c ****                   p_data->phy_set.status);
 1516              		.loc 1 617 9
 617:C:/Users/stapi/OneDrive/Desktop/GD32VW553/GD32VW55X_Wifi_BLE_SDK/GD32VW55x_RELEASE_V1.0.2/MSDK/ble/app\app_conn_mgr.c ****                   p_data->phy_set.status);
 1517              		.loc 1 617 9
 1518 0908 B7070000 		lui	a5,%hi(global_debug_level)
 1519 090c 03C70700 		lbu	a4,%lo(global_debug_level)(a5)
 1520 0910 8947     		li	a5,2
 1521 0912 E3F7E782 		bleu	a4,a5,.L23
 617:C:/Users/stapi/OneDrive/Desktop/GD32VW553/GD32VW55X_Wifi_BLE_SDK/GD32VW55x_RELEASE_V1.0.2/MSDK/ble/app\app_conn_mgr.c ****                   p_data->phy_set.status);
 1522              		.loc 1 617 9 discriminator 1
 1523 0916 37050000 		lui	a0,%hi(.LC36)
 1524 091a 03D60500 		lhu	a2,0(a1)
 1525 091e 13050500 		addi	a0,a0,%lo(.LC36)
 1526 0922 83C52500 		lbu	a1,2(a1)
 1527 0926 6FF02FF5 		j	.L140
 1528              	.L34:
 623:C:/Users/stapi/OneDrive/Desktop/GD32VW553/GD32VW55X_Wifi_BLE_SDK/GD32VW55x_RELEASE_V1.0.2/MSDK/ble/app\app_conn_mgr.c ****                   p_data->phy_val.tx_phy, p_data->phy_val.rx_phy);
 1529              		.loc 1 623 9
 623:C:/Users/stapi/OneDrive/Desktop/GD32VW553/GD32VW55X_Wifi_BLE_SDK/GD32VW55x_RELEASE_V1.0.2/MSDK/ble/app\app_conn_mgr.c ****                   p_data->phy_val.tx_phy, p_data->phy_val.rx_phy);
 1530              		.loc 1 623 9
 1531 092a B7070000 		lui	a5,%hi(global_debug_level)
 1532 092e 03C70700 		lbu	a4,%lo(global_debug_level)(a5)
 1533 0932 8947     		li	a5,2
 1534 0934 E3F6E780 		bleu	a4,a5,.L23
 623:C:/Users/stapi/OneDrive/Desktop/GD32VW553/GD32VW55X_Wifi_BLE_SDK/GD32VW55x_RELEASE_V1.0.2/MSDK/ble/app\app_conn_mgr.c ****                   p_data->phy_val.tx_phy, p_data->phy_val.rx_phy);
 1535              		.loc 1 623 9 discriminator 1
 1536 0938 37050000 		lui	a0,%hi(.LC37)
 1537 093c 83C62500 		lbu	a3,2(a1)
 1538 0940 03C61500 		lbu	a2,1(a1)
 1539 0944 13050500 		addi	a0,a0,%lo(.LC37)
 1540 0948 83C50500 		lbu	a1,0(a1)
 1541 094c 6FF0EFEF 		j	.L141
 1542              	.L33:
 629:C:/Users/stapi/OneDrive/Desktop/GD32VW553/GD32VW55X_Wifi_BLE_SDK/GD32VW55x_RELEASE_V1.0.2/MSDK/ble/app\app_conn_mgr.c ****                   p_data->loc_tx_pwr.conn_idx,
 1543              		.loc 1 629 9
 629:C:/Users/stapi/OneDrive/Desktop/GD32VW553/GD32VW55X_Wifi_BLE_SDK/GD32VW55x_RELEASE_V1.0.2/MSDK/ble/app\app_conn_mgr.c ****                   p_data->loc_tx_pwr.conn_idx,
 1544              		.loc 1 629 9
 1545 0950 B7070000 		lui	a5,%hi(global_debug_level)
 1546 0954 03C70700 		lbu	a4,%lo(global_debug_level)(a5)
 1547 0958 8947     		li	a5,2
 1548 095a 63F3E7FE 		bleu	a4,a5,.L23
 629:C:/Users/stapi/OneDrive/Desktop/GD32VW553/GD32VW55X_Wifi_BLE_SDK/GD32VW55x_RELEASE_V1.0.2/MSDK/ble/app\app_conn_mgr.c ****                   p_data->loc_tx_pwr.conn_idx,
 1549              		.loc 1 629 9 discriminator 1
 1550 095e 37050000 		lui	a0,%hi(.LC38)
 1551 0962 03C63500 		lbu	a2,3(a1)
 1552 0966 03875500 		lb	a4,5(a1)
 1553 096a 83864500 		lb	a3,4(a1)
 1554 096e 13050500 		addi	a0,a0,%lo(.LC38)
 1555 0972 83C52500 		lbu	a1,2(a1)
 1556 0976 E1BA     		j	.L144
 1557              	.L32:
 636:C:/Users/stapi/OneDrive/Desktop/GD32VW553/GD32VW55X_Wifi_BLE_SDK/GD32VW55x_RELEASE_V1.0.2/MSDK/ble/app\app_conn_mgr.c ****                   p_data->peer_tx_pwr.tx_pwr, p_data->peer_tx_pwr.flags);
 1558              		.loc 1 636 9
 636:C:/Users/stapi/OneDrive/Desktop/GD32VW553/GD32VW55X_Wifi_BLE_SDK/GD32VW55x_RELEASE_V1.0.2/MSDK/ble/app\app_conn_mgr.c ****                   p_data->peer_tx_pwr.tx_pwr, p_data->peer_tx_pwr.flags);
 1559              		.loc 1 636 9
 1560 0978 B7070000 		lui	a5,%hi(global_debug_level)
 1561 097c 03C70700 		lbu	a4,%lo(global_debug_level)(a5)
 1562 0980 8947     		li	a5,2
 1563 0982 63FFE7FA 		bleu	a4,a5,.L23
 636:C:/Users/stapi/OneDrive/Desktop/GD32VW553/GD32VW55X_Wifi_BLE_SDK/GD32VW55x_RELEASE_V1.0.2/MSDK/ble/app\app_conn_mgr.c ****                   p_data->peer_tx_pwr.tx_pwr, p_data->peer_tx_pwr.flags);
 1564              		.loc 1 636 9 discriminator 1
 1565 0986 37050000 		lui	a0,%hi(.LC39)
 1566 098a 83C65500 		lbu	a3,5(a1)
 1567 098e 03864500 		lb	a2,4(a1)
 1568 0992 13050500 		addi	a0,a0,%lo(.LC39)
 1569 0996 83C52500 		lbu	a1,2(a1)
 1570 099a 6FF00FEB 		j	.L141
 1571              	.L30:
