   1              		.file	"app_cmd.c"
   2              		.option nopic
   3              		.attribute arch, "rv32i2p0_m2p0_a2p0_f2p0_c2p0_b_p0p94"
   4              		.attribute unaligned_access, 0
   5              		.attribute stack_align, 16
   6              		.text
   7              	.Ltext0:
   8              		.cfi_sections	.debug_frame
   9              		.section	.rodata.cmd_ble_help_cb.str1.4,"aMS",@progbits,1
  10              		.align	2
  11              	.LC0:
  12 0000 09626C65 		.string	"\tble_help\n"
  12      5F68656C 
  12      700A00
  13              		.section	.text.cmd_ble_help_cb,"ax",@progbits
  14              		.align	1
  15              		.globl	cmd_ble_help_cb
  17              	cmd_ble_help_cb:
  18              	.LFB48:
  19              		.file 1 "C:/Users/stapi/OneDrive/Desktop/GD32VW553/GD32VW55X_Wifi_BLE_SDK/GD32VW55x_RELEASE_V1.0.2
   1:C:/Users/stapi/OneDrive/Desktop/GD32VW553/GD32VW55X_Wifi_BLE_SDK/GD32VW55x_RELEASE_V1.0.2/MSDK/ble/app\app_cmd.c **** /*!
   2:C:/Users/stapi/OneDrive/Desktop/GD32VW553/GD32VW55X_Wifi_BLE_SDK/GD32VW55x_RELEASE_V1.0.2/MSDK/ble/app\app_cmd.c ****     \file    app_cmd.c
   3:C:/Users/stapi/OneDrive/Desktop/GD32VW553/GD32VW55X_Wifi_BLE_SDK/GD32VW55x_RELEASE_V1.0.2/MSDK/ble/app\app_cmd.c ****     \brief   Implementation of BLE related CLI commands.
   4:C:/Users/stapi/OneDrive/Desktop/GD32VW553/GD32VW55X_Wifi_BLE_SDK/GD32VW55x_RELEASE_V1.0.2/MSDK/ble/app\app_cmd.c **** 
   5:C:/Users/stapi/OneDrive/Desktop/GD32VW553/GD32VW55X_Wifi_BLE_SDK/GD32VW55x_RELEASE_V1.0.2/MSDK/ble/app\app_cmd.c ****     \version 2023-07-20, V1.0.0, firmware for GD32VW55x
   6:C:/Users/stapi/OneDrive/Desktop/GD32VW553/GD32VW55X_Wifi_BLE_SDK/GD32VW55x_RELEASE_V1.0.2/MSDK/ble/app\app_cmd.c **** */
   7:C:/Users/stapi/OneDrive/Desktop/GD32VW553/GD32VW55X_Wifi_BLE_SDK/GD32VW55x_RELEASE_V1.0.2/MSDK/ble/app\app_cmd.c **** 
   8:C:/Users/stapi/OneDrive/Desktop/GD32VW553/GD32VW55X_Wifi_BLE_SDK/GD32VW55x_RELEASE_V1.0.2/MSDK/ble/app\app_cmd.c **** /*
   9:C:/Users/stapi/OneDrive/Desktop/GD32VW553/GD32VW55X_Wifi_BLE_SDK/GD32VW55x_RELEASE_V1.0.2/MSDK/ble/app\app_cmd.c ****     Copyright (c) 2023, GigaDevice Semiconductor Inc.
  10:C:/Users/stapi/OneDrive/Desktop/GD32VW553/GD32VW55X_Wifi_BLE_SDK/GD32VW55x_RELEASE_V1.0.2/MSDK/ble/app\app_cmd.c **** 
  11:C:/Users/stapi/OneDrive/Desktop/GD32VW553/GD32VW55X_Wifi_BLE_SDK/GD32VW55x_RELEASE_V1.0.2/MSDK/ble/app\app_cmd.c ****     Redistribution and use in source and binary forms, with or without modification,
  12:C:/Users/stapi/OneDrive/Desktop/GD32VW553/GD32VW55X_Wifi_BLE_SDK/GD32VW55x_RELEASE_V1.0.2/MSDK/ble/app\app_cmd.c **** are permitted provided that the following conditions are met:
  13:C:/Users/stapi/OneDrive/Desktop/GD32VW553/GD32VW55X_Wifi_BLE_SDK/GD32VW55x_RELEASE_V1.0.2/MSDK/ble/app\app_cmd.c **** 
  14:C:/Users/stapi/OneDrive/Desktop/GD32VW553/GD32VW55X_Wifi_BLE_SDK/GD32VW55x_RELEASE_V1.0.2/MSDK/ble/app\app_cmd.c ****     1. Redistributions of source code must retain the above copyright notice, this
  15:C:/Users/stapi/OneDrive/Desktop/GD32VW553/GD32VW55X_Wifi_BLE_SDK/GD32VW55x_RELEASE_V1.0.2/MSDK/ble/app\app_cmd.c ****        list of conditions and the following disclaimer.
  16:C:/Users/stapi/OneDrive/Desktop/GD32VW553/GD32VW55X_Wifi_BLE_SDK/GD32VW55x_RELEASE_V1.0.2/MSDK/ble/app\app_cmd.c ****     2. Redistributions in binary form must reproduce the above copyright notice,
  17:C:/Users/stapi/OneDrive/Desktop/GD32VW553/GD32VW55X_Wifi_BLE_SDK/GD32VW55x_RELEASE_V1.0.2/MSDK/ble/app\app_cmd.c ****        this list of conditions and the following disclaimer in the documentation
  18:C:/Users/stapi/OneDrive/Desktop/GD32VW553/GD32VW55X_Wifi_BLE_SDK/GD32VW55x_RELEASE_V1.0.2/MSDK/ble/app\app_cmd.c ****        and/or other materials provided with the distribution.
  19:C:/Users/stapi/OneDrive/Desktop/GD32VW553/GD32VW55X_Wifi_BLE_SDK/GD32VW55x_RELEASE_V1.0.2/MSDK/ble/app\app_cmd.c ****     3. Neither the name of the copyright holder nor the names of its contributors
  20:C:/Users/stapi/OneDrive/Desktop/GD32VW553/GD32VW55X_Wifi_BLE_SDK/GD32VW55x_RELEASE_V1.0.2/MSDK/ble/app\app_cmd.c ****        may be used to endorse or promote products derived from this software without
  21:C:/Users/stapi/OneDrive/Desktop/GD32VW553/GD32VW55X_Wifi_BLE_SDK/GD32VW55x_RELEASE_V1.0.2/MSDK/ble/app\app_cmd.c ****        specific prior written permission.
  22:C:/Users/stapi/OneDrive/Desktop/GD32VW553/GD32VW55X_Wifi_BLE_SDK/GD32VW55x_RELEASE_V1.0.2/MSDK/ble/app\app_cmd.c **** 
  23:C:/Users/stapi/OneDrive/Desktop/GD32VW553/GD32VW55X_Wifi_BLE_SDK/GD32VW55x_RELEASE_V1.0.2/MSDK/ble/app\app_cmd.c ****     THIS SOFTWARE IS PROVIDED BY THE COPYRIGHT HOLDERS AND CONTRIBUTORS "AS IS"
  24:C:/Users/stapi/OneDrive/Desktop/GD32VW553/GD32VW55X_Wifi_BLE_SDK/GD32VW55x_RELEASE_V1.0.2/MSDK/ble/app\app_cmd.c **** AND ANY EXPRESS OR IMPLIED WARRANTIES, INCLUDING, BUT NOT LIMITED TO, THE IMPLIED
  25:C:/Users/stapi/OneDrive/Desktop/GD32VW553/GD32VW55X_Wifi_BLE_SDK/GD32VW55x_RELEASE_V1.0.2/MSDK/ble/app\app_cmd.c **** WARRANTIES OF MERCHANTABILITY AND FITNESS FOR A PARTICULAR PURPOSE ARE DISCLAIMED.
  26:C:/Users/stapi/OneDrive/Desktop/GD32VW553/GD32VW55X_Wifi_BLE_SDK/GD32VW55x_RELEASE_V1.0.2/MSDK/ble/app\app_cmd.c **** IN NO EVENT SHALL THE COPYRIGHT HOLDER OR CONTRIBUTORS BE LIABLE FOR ANY DIRECT,
  27:C:/Users/stapi/OneDrive/Desktop/GD32VW553/GD32VW55X_Wifi_BLE_SDK/GD32VW55x_RELEASE_V1.0.2/MSDK/ble/app\app_cmd.c **** INDIRECT, INCIDENTAL, SPECIAL, EXEMPLARY, OR CONSEQUENTIAL DAMAGES (INCLUDING, BUT
  28:C:/Users/stapi/OneDrive/Desktop/GD32VW553/GD32VW55X_Wifi_BLE_SDK/GD32VW55x_RELEASE_V1.0.2/MSDK/ble/app\app_cmd.c **** NOT LIMITED TO, PROCUREMENT OF SUBSTITUTE GOODS OR SERVICES; LOSS OF USE, DATA, OR
  29:C:/Users/stapi/OneDrive/Desktop/GD32VW553/GD32VW55X_Wifi_BLE_SDK/GD32VW55x_RELEASE_V1.0.2/MSDK/ble/app\app_cmd.c **** PROFITS; OR BUSINESS INTERRUPTION) HOWEVER CAUSED AND ON ANY THEORY OF LIABILITY,
  30:C:/Users/stapi/OneDrive/Desktop/GD32VW553/GD32VW55X_Wifi_BLE_SDK/GD32VW55x_RELEASE_V1.0.2/MSDK/ble/app\app_cmd.c **** WHETHER IN CONTRACT, STRICT LIABILITY, OR TORT (INCLUDING NEGLIGENCE OR OTHERWISE)
  31:C:/Users/stapi/OneDrive/Desktop/GD32VW553/GD32VW55X_Wifi_BLE_SDK/GD32VW55x_RELEASE_V1.0.2/MSDK/ble/app\app_cmd.c **** ARISING IN ANY WAY OUT OF THE USE OF THIS SOFTWARE, EVEN IF ADVISED OF THE POSSIBILITY
  32:C:/Users/stapi/OneDrive/Desktop/GD32VW553/GD32VW55X_Wifi_BLE_SDK/GD32VW55x_RELEASE_V1.0.2/MSDK/ble/app\app_cmd.c **** OF SUCH DAMAGE.
  33:C:/Users/stapi/OneDrive/Desktop/GD32VW553/GD32VW55X_Wifi_BLE_SDK/GD32VW55x_RELEASE_V1.0.2/MSDK/ble/app\app_cmd.c **** */
  34:C:/Users/stapi/OneDrive/Desktop/GD32VW553/GD32VW55X_Wifi_BLE_SDK/GD32VW55x_RELEASE_V1.0.2/MSDK/ble/app\app_cmd.c **** 
  35:C:/Users/stapi/OneDrive/Desktop/GD32VW553/GD32VW55X_Wifi_BLE_SDK/GD32VW55x_RELEASE_V1.0.2/MSDK/ble/app\app_cmd.c **** #include "app_cfg.h"
  36:C:/Users/stapi/OneDrive/Desktop/GD32VW553/GD32VW55X_Wifi_BLE_SDK/GD32VW55x_RELEASE_V1.0.2/MSDK/ble/app\app_cmd.c **** #include "ble_app_config.h"
  37:C:/Users/stapi/OneDrive/Desktop/GD32VW553/GD32VW55X_Wifi_BLE_SDK/GD32VW55x_RELEASE_V1.0.2/MSDK/ble/app\app_cmd.c **** 
  38:C:/Users/stapi/OneDrive/Desktop/GD32VW553/GD32VW55X_Wifi_BLE_SDK/GD32VW55x_RELEASE_V1.0.2/MSDK/ble/app\app_cmd.c **** #if (BLE_APP_SUPPORT && BLE_APP_CMD_SUPPORT)
  39:C:/Users/stapi/OneDrive/Desktop/GD32VW553/GD32VW55X_Wifi_BLE_SDK/GD32VW55x_RELEASE_V1.0.2/MSDK/ble/app\app_cmd.c **** #include <stdint.h>
  40:C:/Users/stapi/OneDrive/Desktop/GD32VW553/GD32VW55X_Wifi_BLE_SDK/GD32VW55x_RELEASE_V1.0.2/MSDK/ble/app\app_cmd.c **** #include <stdio.h>
  41:C:/Users/stapi/OneDrive/Desktop/GD32VW553/GD32VW55X_Wifi_BLE_SDK/GD32VW55x_RELEASE_V1.0.2/MSDK/ble/app\app_cmd.c **** #include <stdlib.h>
  42:C:/Users/stapi/OneDrive/Desktop/GD32VW553/GD32VW55X_Wifi_BLE_SDK/GD32VW55x_RELEASE_V1.0.2/MSDK/ble/app\app_cmd.c **** #include <string.h>
  43:C:/Users/stapi/OneDrive/Desktop/GD32VW553/GD32VW55X_Wifi_BLE_SDK/GD32VW55x_RELEASE_V1.0.2/MSDK/ble/app\app_cmd.c **** 
  44:C:/Users/stapi/OneDrive/Desktop/GD32VW553/GD32VW55X_Wifi_BLE_SDK/GD32VW55x_RELEASE_V1.0.2/MSDK/ble/app\app_cmd.c **** #include "ble_export.h"
  45:C:/Users/stapi/OneDrive/Desktop/GD32VW553/GD32VW55X_Wifi_BLE_SDK/GD32VW55x_RELEASE_V1.0.2/MSDK/ble/app\app_cmd.c **** #include "ble_adapter.h"
  46:C:/Users/stapi/OneDrive/Desktop/GD32VW553/GD32VW55X_Wifi_BLE_SDK/GD32VW55x_RELEASE_V1.0.2/MSDK/ble/app\app_cmd.c **** 
  47:C:/Users/stapi/OneDrive/Desktop/GD32VW553/GD32VW55X_Wifi_BLE_SDK/GD32VW55x_RELEASE_V1.0.2/MSDK/ble/app\app_cmd.c **** #include "app_adapter_mgr.h"
  48:C:/Users/stapi/OneDrive/Desktop/GD32VW553/GD32VW55X_Wifi_BLE_SDK/GD32VW55x_RELEASE_V1.0.2/MSDK/ble/app\app_cmd.c **** #include "app_sec_mgr.h"
  49:C:/Users/stapi/OneDrive/Desktop/GD32VW553/GD32VW55X_Wifi_BLE_SDK/GD32VW55x_RELEASE_V1.0.2/MSDK/ble/app\app_cmd.c **** #include "app_dev_mgr.h"
  50:C:/Users/stapi/OneDrive/Desktop/GD32VW553/GD32VW55X_Wifi_BLE_SDK/GD32VW55x_RELEASE_V1.0.2/MSDK/ble/app\app_cmd.c **** #include "app_scan_mgr.h"
  51:C:/Users/stapi/OneDrive/Desktop/GD32VW553/GD32VW55X_Wifi_BLE_SDK/GD32VW55x_RELEASE_V1.0.2/MSDK/ble/app\app_cmd.c **** #include "app_adv_mgr.h"
  52:C:/Users/stapi/OneDrive/Desktop/GD32VW553/GD32VW55X_Wifi_BLE_SDK/GD32VW55x_RELEASE_V1.0.2/MSDK/ble/app\app_cmd.c **** #include "app_per_sync_mgr.h"
  53:C:/Users/stapi/OneDrive/Desktop/GD32VW553/GD32VW55X_Wifi_BLE_SDK/GD32VW55x_RELEASE_V1.0.2/MSDK/ble/app\app_cmd.c **** #include "app_blue_courier_link.h"
  54:C:/Users/stapi/OneDrive/Desktop/GD32VW553/GD32VW55X_Wifi_BLE_SDK/GD32VW55x_RELEASE_V1.0.2/MSDK/ble/app\app_cmd.c **** 
  55:C:/Users/stapi/OneDrive/Desktop/GD32VW553/GD32VW55X_Wifi_BLE_SDK/GD32VW55x_RELEASE_V1.0.2/MSDK/ble/app\app_cmd.c **** #include "cmd_shell.h"
  56:C:/Users/stapi/OneDrive/Desktop/GD32VW553/GD32VW55X_Wifi_BLE_SDK/GD32VW55x_RELEASE_V1.0.2/MSDK/ble/app\app_cmd.c **** 
  57:C:/Users/stapi/OneDrive/Desktop/GD32VW553/GD32VW55X_Wifi_BLE_SDK/GD32VW55x_RELEASE_V1.0.2/MSDK/ble/app\app_cmd.c **** #ifdef CONFIG_INTERNAL_DEBUG
  58:C:/Users/stapi/OneDrive/Desktop/GD32VW553/GD32VW55X_Wifi_BLE_SDK/GD32VW55x_RELEASE_V1.0.2/MSDK/ble/app\app_cmd.c **** #include "app_cmd_int.c"
  59:C:/Users/stapi/OneDrive/Desktop/GD32VW553/GD32VW55X_Wifi_BLE_SDK/GD32VW55x_RELEASE_V1.0.2/MSDK/ble/app\app_cmd.c **** #endif
  60:C:/Users/stapi/OneDrive/Desktop/GD32VW553/GD32VW55X_Wifi_BLE_SDK/GD32VW55x_RELEASE_V1.0.2/MSDK/ble/app\app_cmd.c **** 
  61:C:/Users/stapi/OneDrive/Desktop/GD32VW553/GD32VW55X_Wifi_BLE_SDK/GD32VW55x_RELEASE_V1.0.2/MSDK/ble/app\app_cmd.c **** #if (defined(CONFIG_INTERNAL_DEBUG) || defined(CONFIG_RF_TEST_SUPPORT) || defined(CONFIG_BLE_DTM_SU
  62:C:/Users/stapi/OneDrive/Desktop/GD32VW553/GD32VW55X_Wifi_BLE_SDK/GD32VW55x_RELEASE_V1.0.2/MSDK/ble/app\app_cmd.c **** #include "app_cmd_rftest.h"
  63:C:/Users/stapi/OneDrive/Desktop/GD32VW553/GD32VW55X_Wifi_BLE_SDK/GD32VW55x_RELEASE_V1.0.2/MSDK/ble/app\app_cmd.c **** #endif
  64:C:/Users/stapi/OneDrive/Desktop/GD32VW553/GD32VW55X_Wifi_BLE_SDK/GD32VW55x_RELEASE_V1.0.2/MSDK/ble/app\app_cmd.c **** 
  65:C:/Users/stapi/OneDrive/Desktop/GD32VW553/GD32VW55X_Wifi_BLE_SDK/GD32VW55x_RELEASE_V1.0.2/MSDK/ble/app\app_cmd.c **** static void cmd_ble_help(int argc, char **argv);
  66:C:/Users/stapi/OneDrive/Desktop/GD32VW553/GD32VW55X_Wifi_BLE_SDK/GD32VW55x_RELEASE_V1.0.2/MSDK/ble/app\app_cmd.c **** 
  67:C:/Users/stapi/OneDrive/Desktop/GD32VW553/GD32VW55X_Wifi_BLE_SDK/GD32VW55x_RELEASE_V1.0.2/MSDK/ble/app\app_cmd.c **** static void cmd_ble_enable(int argc, char **argv)
  68:C:/Users/stapi/OneDrive/Desktop/GD32VW553/GD32VW55X_Wifi_BLE_SDK/GD32VW55x_RELEASE_V1.0.2/MSDK/ble/app\app_cmd.c **** {
  69:C:/Users/stapi/OneDrive/Desktop/GD32VW553/GD32VW55X_Wifi_BLE_SDK/GD32VW55x_RELEASE_V1.0.2/MSDK/ble/app\app_cmd.c ****     app_ble_enable();
  70:C:/Users/stapi/OneDrive/Desktop/GD32VW553/GD32VW55X_Wifi_BLE_SDK/GD32VW55x_RELEASE_V1.0.2/MSDK/ble/app\app_cmd.c **** }
  71:C:/Users/stapi/OneDrive/Desktop/GD32VW553/GD32VW55X_Wifi_BLE_SDK/GD32VW55x_RELEASE_V1.0.2/MSDK/ble/app\app_cmd.c **** 
  72:C:/Users/stapi/OneDrive/Desktop/GD32VW553/GD32VW55X_Wifi_BLE_SDK/GD32VW55x_RELEASE_V1.0.2/MSDK/ble/app\app_cmd.c **** static void cmd_ble_disable(int argc, char **argv)
  73:C:/Users/stapi/OneDrive/Desktop/GD32VW553/GD32VW55X_Wifi_BLE_SDK/GD32VW55x_RELEASE_V1.0.2/MSDK/ble/app\app_cmd.c **** {
  74:C:/Users/stapi/OneDrive/Desktop/GD32VW553/GD32VW55X_Wifi_BLE_SDK/GD32VW55x_RELEASE_V1.0.2/MSDK/ble/app\app_cmd.c ****     app_ble_disable();
  75:C:/Users/stapi/OneDrive/Desktop/GD32VW553/GD32VW55X_Wifi_BLE_SDK/GD32VW55x_RELEASE_V1.0.2/MSDK/ble/app\app_cmd.c **** }
  76:C:/Users/stapi/OneDrive/Desktop/GD32VW553/GD32VW55X_Wifi_BLE_SDK/GD32VW55x_RELEASE_V1.0.2/MSDK/ble/app\app_cmd.c **** 
  77:C:/Users/stapi/OneDrive/Desktop/GD32VW553/GD32VW55X_Wifi_BLE_SDK/GD32VW55x_RELEASE_V1.0.2/MSDK/ble/app\app_cmd.c **** static void cmd_ble_ps(int argc, char **argv)
  78:C:/Users/stapi/OneDrive/Desktop/GD32VW553/GD32VW55X_Wifi_BLE_SDK/GD32VW55x_RELEASE_V1.0.2/MSDK/ble/app\app_cmd.c **** {
  79:C:/Users/stapi/OneDrive/Desktop/GD32VW553/GD32VW55X_Wifi_BLE_SDK/GD32VW55x_RELEASE_V1.0.2/MSDK/ble/app\app_cmd.c ****     char *endptr = NULL;
  80:C:/Users/stapi/OneDrive/Desktop/GD32VW553/GD32VW55X_Wifi_BLE_SDK/GD32VW55x_RELEASE_V1.0.2/MSDK/ble/app\app_cmd.c ****     uint8_t mode;
  81:C:/Users/stapi/OneDrive/Desktop/GD32VW553/GD32VW55X_Wifi_BLE_SDK/GD32VW55x_RELEASE_V1.0.2/MSDK/ble/app\app_cmd.c **** 
  82:C:/Users/stapi/OneDrive/Desktop/GD32VW553/GD32VW55X_Wifi_BLE_SDK/GD32VW55x_RELEASE_V1.0.2/MSDK/ble/app\app_cmd.c ****     if (argc != 2) {
  83:C:/Users/stapi/OneDrive/Desktop/GD32VW553/GD32VW55X_Wifi_BLE_SDK/GD32VW55x_RELEASE_V1.0.2/MSDK/ble/app\app_cmd.c ****         goto usage;
  84:C:/Users/stapi/OneDrive/Desktop/GD32VW553/GD32VW55X_Wifi_BLE_SDK/GD32VW55x_RELEASE_V1.0.2/MSDK/ble/app\app_cmd.c ****     }
  85:C:/Users/stapi/OneDrive/Desktop/GD32VW553/GD32VW55X_Wifi_BLE_SDK/GD32VW55x_RELEASE_V1.0.2/MSDK/ble/app\app_cmd.c **** 
  86:C:/Users/stapi/OneDrive/Desktop/GD32VW553/GD32VW55X_Wifi_BLE_SDK/GD32VW55x_RELEASE_V1.0.2/MSDK/ble/app\app_cmd.c ****     mode = (uint8_t)strtoul((const char *)argv[1], &endptr, 10);
  87:C:/Users/stapi/OneDrive/Desktop/GD32VW553/GD32VW55X_Wifi_BLE_SDK/GD32VW55x_RELEASE_V1.0.2/MSDK/ble/app\app_cmd.c ****     if (mode > 1) {
  88:C:/Users/stapi/OneDrive/Desktop/GD32VW553/GD32VW55X_Wifi_BLE_SDK/GD32VW55x_RELEASE_V1.0.2/MSDK/ble/app\app_cmd.c ****         goto usage;
  89:C:/Users/stapi/OneDrive/Desktop/GD32VW553/GD32VW55X_Wifi_BLE_SDK/GD32VW55x_RELEASE_V1.0.2/MSDK/ble/app\app_cmd.c ****     }
  90:C:/Users/stapi/OneDrive/Desktop/GD32VW553/GD32VW55X_Wifi_BLE_SDK/GD32VW55x_RELEASE_V1.0.2/MSDK/ble/app\app_cmd.c **** 
  91:C:/Users/stapi/OneDrive/Desktop/GD32VW553/GD32VW55X_Wifi_BLE_SDK/GD32VW55x_RELEASE_V1.0.2/MSDK/ble/app\app_cmd.c ****     ble_sleep_mode_set(mode);
  92:C:/Users/stapi/OneDrive/Desktop/GD32VW553/GD32VW55X_Wifi_BLE_SDK/GD32VW55x_RELEASE_V1.0.2/MSDK/ble/app\app_cmd.c ****     app_print("ble_ps config complete. ps mode: %d\r\n", ble_sleep_mode_get());
  93:C:/Users/stapi/OneDrive/Desktop/GD32VW553/GD32VW55X_Wifi_BLE_SDK/GD32VW55x_RELEASE_V1.0.2/MSDK/ble/app\app_cmd.c **** 
  94:C:/Users/stapi/OneDrive/Desktop/GD32VW553/GD32VW55X_Wifi_BLE_SDK/GD32VW55x_RELEASE_V1.0.2/MSDK/ble/app\app_cmd.c ****     return;
  95:C:/Users/stapi/OneDrive/Desktop/GD32VW553/GD32VW55X_Wifi_BLE_SDK/GD32VW55x_RELEASE_V1.0.2/MSDK/ble/app\app_cmd.c **** 
  96:C:/Users/stapi/OneDrive/Desktop/GD32VW553/GD32VW55X_Wifi_BLE_SDK/GD32VW55x_RELEASE_V1.0.2/MSDK/ble/app\app_cmd.c **** usage:
  97:C:/Users/stapi/OneDrive/Desktop/GD32VW553/GD32VW55X_Wifi_BLE_SDK/GD32VW55x_RELEASE_V1.0.2/MSDK/ble/app\app_cmd.c ****     app_print("Current ps mode: %d\r\n", ble_sleep_mode_get());
  98:C:/Users/stapi/OneDrive/Desktop/GD32VW553/GD32VW55X_Wifi_BLE_SDK/GD32VW55x_RELEASE_V1.0.2/MSDK/ble/app\app_cmd.c ****     app_print("Usage: ble_ps <0, 1>\r\n");
  99:C:/Users/stapi/OneDrive/Desktop/GD32VW553/GD32VW55X_Wifi_BLE_SDK/GD32VW55x_RELEASE_V1.0.2/MSDK/ble/app\app_cmd.c ****     app_print("    0: ble not deep sleep\r\n");
 100:C:/Users/stapi/OneDrive/Desktop/GD32VW553/GD32VW55X_Wifi_BLE_SDK/GD32VW55x_RELEASE_V1.0.2/MSDK/ble/app\app_cmd.c ****     app_print("    1: ble deep sleep and support external wake-up\r\n");
 101:C:/Users/stapi/OneDrive/Desktop/GD32VW553/GD32VW55X_Wifi_BLE_SDK/GD32VW55x_RELEASE_V1.0.2/MSDK/ble/app\app_cmd.c **** }
 102:C:/Users/stapi/OneDrive/Desktop/GD32VW553/GD32VW55X_Wifi_BLE_SDK/GD32VW55x_RELEASE_V1.0.2/MSDK/ble/app\app_cmd.c **** 
 103:C:/Users/stapi/OneDrive/Desktop/GD32VW553/GD32VW55X_Wifi_BLE_SDK/GD32VW55x_RELEASE_V1.0.2/MSDK/ble/app\app_cmd.c **** static void cmd_ble_courier_wifi(int argc, char **argv)
 104:C:/Users/stapi/OneDrive/Desktop/GD32VW553/GD32VW55X_Wifi_BLE_SDK/GD32VW55x_RELEASE_V1.0.2/MSDK/ble/app\app_cmd.c **** {
 105:C:/Users/stapi/OneDrive/Desktop/GD32VW553/GD32VW55X_Wifi_BLE_SDK/GD32VW55x_RELEASE_V1.0.2/MSDK/ble/app\app_cmd.c ****     char *endptr = NULL;
 106:C:/Users/stapi/OneDrive/Desktop/GD32VW553/GD32VW55X_Wifi_BLE_SDK/GD32VW55x_RELEASE_V1.0.2/MSDK/ble/app\app_cmd.c ****     uint8_t enable;
 107:C:/Users/stapi/OneDrive/Desktop/GD32VW553/GD32VW55X_Wifi_BLE_SDK/GD32VW55x_RELEASE_V1.0.2/MSDK/ble/app\app_cmd.c ****     ble_status_t ret;
 108:C:/Users/stapi/OneDrive/Desktop/GD32VW553/GD32VW55X_Wifi_BLE_SDK/GD32VW55x_RELEASE_V1.0.2/MSDK/ble/app\app_cmd.c **** 
 109:C:/Users/stapi/OneDrive/Desktop/GD32VW553/GD32VW55X_Wifi_BLE_SDK/GD32VW55x_RELEASE_V1.0.2/MSDK/ble/app\app_cmd.c ****     if (argc != 2) {
 110:C:/Users/stapi/OneDrive/Desktop/GD32VW553/GD32VW55X_Wifi_BLE_SDK/GD32VW55x_RELEASE_V1.0.2/MSDK/ble/app\app_cmd.c ****         app_print("Usage: ble_courier_wifi <0:disable; 1:enable>\r\n");
 111:C:/Users/stapi/OneDrive/Desktop/GD32VW553/GD32VW55X_Wifi_BLE_SDK/GD32VW55x_RELEASE_V1.0.2/MSDK/ble/app\app_cmd.c ****         return;
 112:C:/Users/stapi/OneDrive/Desktop/GD32VW553/GD32VW55X_Wifi_BLE_SDK/GD32VW55x_RELEASE_V1.0.2/MSDK/ble/app\app_cmd.c ****     }
 113:C:/Users/stapi/OneDrive/Desktop/GD32VW553/GD32VW55X_Wifi_BLE_SDK/GD32VW55x_RELEASE_V1.0.2/MSDK/ble/app\app_cmd.c **** 
 114:C:/Users/stapi/OneDrive/Desktop/GD32VW553/GD32VW55X_Wifi_BLE_SDK/GD32VW55x_RELEASE_V1.0.2/MSDK/ble/app\app_cmd.c ****     enable = (uint8_t)strtoul((const char *)argv[1], &endptr, 16);
 115:C:/Users/stapi/OneDrive/Desktop/GD32VW553/GD32VW55X_Wifi_BLE_SDK/GD32VW55x_RELEASE_V1.0.2/MSDK/ble/app\app_cmd.c **** 
 116:C:/Users/stapi/OneDrive/Desktop/GD32VW553/GD32VW55X_Wifi_BLE_SDK/GD32VW55x_RELEASE_V1.0.2/MSDK/ble/app\app_cmd.c ****     if (enable) {
 117:C:/Users/stapi/OneDrive/Desktop/GD32VW553/GD32VW55X_Wifi_BLE_SDK/GD32VW55x_RELEASE_V1.0.2/MSDK/ble/app\app_cmd.c ****         if (ble_work_status_get() != BLE_WORK_STATUS_ENABLE) {
 118:C:/Users/stapi/OneDrive/Desktop/GD32VW553/GD32VW55X_Wifi_BLE_SDK/GD32VW55x_RELEASE_V1.0.2/MSDK/ble/app\app_cmd.c ****             app_ble_enable();
 119:C:/Users/stapi/OneDrive/Desktop/GD32VW553/GD32VW55X_Wifi_BLE_SDK/GD32VW55x_RELEASE_V1.0.2/MSDK/ble/app\app_cmd.c ****         }
 120:C:/Users/stapi/OneDrive/Desktop/GD32VW553/GD32VW55X_Wifi_BLE_SDK/GD32VW55x_RELEASE_V1.0.2/MSDK/ble/app\app_cmd.c ****         ret = bcw_prf_enable(enable);
 121:C:/Users/stapi/OneDrive/Desktop/GD32VW553/GD32VW55X_Wifi_BLE_SDK/GD32VW55x_RELEASE_V1.0.2/MSDK/ble/app\app_cmd.c ****     } else {
 122:C:/Users/stapi/OneDrive/Desktop/GD32VW553/GD32VW55X_Wifi_BLE_SDK/GD32VW55x_RELEASE_V1.0.2/MSDK/ble/app\app_cmd.c ****         ret = bcw_prf_enable(enable);
 123:C:/Users/stapi/OneDrive/Desktop/GD32VW553/GD32VW55X_Wifi_BLE_SDK/GD32VW55x_RELEASE_V1.0.2/MSDK/ble/app\app_cmd.c **** 
 124:C:/Users/stapi/OneDrive/Desktop/GD32VW553/GD32VW55X_Wifi_BLE_SDK/GD32VW55x_RELEASE_V1.0.2/MSDK/ble/app\app_cmd.c ****         #ifndef CONFIG_BLE_ALWAYS_ENABLE
 125:C:/Users/stapi/OneDrive/Desktop/GD32VW553/GD32VW55X_Wifi_BLE_SDK/GD32VW55x_RELEASE_V1.0.2/MSDK/ble/app\app_cmd.c ****         app_ble_disable();
 126:C:/Users/stapi/OneDrive/Desktop/GD32VW553/GD32VW55X_Wifi_BLE_SDK/GD32VW55x_RELEASE_V1.0.2/MSDK/ble/app\app_cmd.c ****         #endif
 127:C:/Users/stapi/OneDrive/Desktop/GD32VW553/GD32VW55X_Wifi_BLE_SDK/GD32VW55x_RELEASE_V1.0.2/MSDK/ble/app\app_cmd.c ****     }
 128:C:/Users/stapi/OneDrive/Desktop/GD32VW553/GD32VW55X_Wifi_BLE_SDK/GD32VW55x_RELEASE_V1.0.2/MSDK/ble/app\app_cmd.c **** 
 129:C:/Users/stapi/OneDrive/Desktop/GD32VW553/GD32VW55X_Wifi_BLE_SDK/GD32VW55x_RELEASE_V1.0.2/MSDK/ble/app\app_cmd.c ****     app_print("ble_courier_wifi ret:%u\r\n", ret);
 130:C:/Users/stapi/OneDrive/Desktop/GD32VW553/GD32VW55X_Wifi_BLE_SDK/GD32VW55x_RELEASE_V1.0.2/MSDK/ble/app\app_cmd.c **** }
 131:C:/Users/stapi/OneDrive/Desktop/GD32VW553/GD32VW55X_Wifi_BLE_SDK/GD32VW55x_RELEASE_V1.0.2/MSDK/ble/app\app_cmd.c **** 
 132:C:/Users/stapi/OneDrive/Desktop/GD32VW553/GD32VW55X_Wifi_BLE_SDK/GD32VW55x_RELEASE_V1.0.2/MSDK/ble/app\app_cmd.c **** #if (BLE_CFG_ROLE & (BLE_CFG_ROLE_BROADCASTER | BLE_CFG_ROLE_PERIPHERAL))
 133:C:/Users/stapi/OneDrive/Desktop/GD32VW553/GD32VW55X_Wifi_BLE_SDK/GD32VW55x_RELEASE_V1.0.2/MSDK/ble/app\app_cmd.c **** #ifndef CONFIG_INTERNAL_DEBUG
 134:C:/Users/stapi/OneDrive/Desktop/GD32VW553/GD32VW55X_Wifi_BLE_SDK/GD32VW55x_RELEASE_V1.0.2/MSDK/ble/app\app_cmd.c **** static void cmd_advertise(int argc, char **argv)
 135:C:/Users/stapi/OneDrive/Desktop/GD32VW553/GD32VW55X_Wifi_BLE_SDK/GD32VW55x_RELEASE_V1.0.2/MSDK/ble/app\app_cmd.c **** {
 136:C:/Users/stapi/OneDrive/Desktop/GD32VW553/GD32VW55X_Wifi_BLE_SDK/GD32VW55x_RELEASE_V1.0.2/MSDK/ble/app\app_cmd.c ****     char *endptr = NULL;
 137:C:/Users/stapi/OneDrive/Desktop/GD32VW553/GD32VW55X_Wifi_BLE_SDK/GD32VW55x_RELEASE_V1.0.2/MSDK/ble/app\app_cmd.c ****     app_adv_param_t adv_param;
 138:C:/Users/stapi/OneDrive/Desktop/GD32VW553/GD32VW55X_Wifi_BLE_SDK/GD32VW55x_RELEASE_V1.0.2/MSDK/ble/app\app_cmd.c ****     ble_status_t ret;
 139:C:/Users/stapi/OneDrive/Desktop/GD32VW553/GD32VW55X_Wifi_BLE_SDK/GD32VW55x_RELEASE_V1.0.2/MSDK/ble/app\app_cmd.c ****     uint8_t set_num = 2;
 140:C:/Users/stapi/OneDrive/Desktop/GD32VW553/GD32VW55X_Wifi_BLE_SDK/GD32VW55x_RELEASE_V1.0.2/MSDK/ble/app\app_cmd.c **** 
 141:C:/Users/stapi/OneDrive/Desktop/GD32VW553/GD32VW55X_Wifi_BLE_SDK/GD32VW55x_RELEASE_V1.0.2/MSDK/ble/app\app_cmd.c ****     ble_adp_adv_sets_num_get(&set_num);
 142:C:/Users/stapi/OneDrive/Desktop/GD32VW553/GD32VW55X_Wifi_BLE_SDK/GD32VW55x_RELEASE_V1.0.2/MSDK/ble/app\app_cmd.c **** 
 143:C:/Users/stapi/OneDrive/Desktop/GD32VW553/GD32VW55X_Wifi_BLE_SDK/GD32VW55x_RELEASE_V1.0.2/MSDK/ble/app\app_cmd.c ****     if (argc != 2) {
 144:C:/Users/stapi/OneDrive/Desktop/GD32VW553/GD32VW55X_Wifi_BLE_SDK/GD32VW55x_RELEASE_V1.0.2/MSDK/ble/app\app_cmd.c ****         goto usage;
 145:C:/Users/stapi/OneDrive/Desktop/GD32VW553/GD32VW55X_Wifi_BLE_SDK/GD32VW55x_RELEASE_V1.0.2/MSDK/ble/app\app_cmd.c ****     }
 146:C:/Users/stapi/OneDrive/Desktop/GD32VW553/GD32VW55X_Wifi_BLE_SDK/GD32VW55x_RELEASE_V1.0.2/MSDK/ble/app\app_cmd.c **** 
 147:C:/Users/stapi/OneDrive/Desktop/GD32VW553/GD32VW55X_Wifi_BLE_SDK/GD32VW55x_RELEASE_V1.0.2/MSDK/ble/app\app_cmd.c ****     adv_param.type = (uint8_t)strtoul((const char *)argv[1], &endptr, 16);
 148:C:/Users/stapi/OneDrive/Desktop/GD32VW553/GD32VW55X_Wifi_BLE_SDK/GD32VW55x_RELEASE_V1.0.2/MSDK/ble/app\app_cmd.c **** 
 149:C:/Users/stapi/OneDrive/Desktop/GD32VW553/GD32VW55X_Wifi_BLE_SDK/GD32VW55x_RELEASE_V1.0.2/MSDK/ble/app\app_cmd.c ****     if (adv_param.type > 2) {
 150:C:/Users/stapi/OneDrive/Desktop/GD32VW553/GD32VW55X_Wifi_BLE_SDK/GD32VW55x_RELEASE_V1.0.2/MSDK/ble/app\app_cmd.c ****         goto usage;
 151:C:/Users/stapi/OneDrive/Desktop/GD32VW553/GD32VW55X_Wifi_BLE_SDK/GD32VW55x_RELEASE_V1.0.2/MSDK/ble/app\app_cmd.c ****     }
 152:C:/Users/stapi/OneDrive/Desktop/GD32VW553/GD32VW55X_Wifi_BLE_SDK/GD32VW55x_RELEASE_V1.0.2/MSDK/ble/app\app_cmd.c **** 
 153:C:/Users/stapi/OneDrive/Desktop/GD32VW553/GD32VW55X_Wifi_BLE_SDK/GD32VW55x_RELEASE_V1.0.2/MSDK/ble/app\app_cmd.c ****     if (adv_param.type == BLE_ADV_TYPE_LEGACY) {
 154:C:/Users/stapi/OneDrive/Desktop/GD32VW553/GD32VW55X_Wifi_BLE_SDK/GD32VW55x_RELEASE_V1.0.2/MSDK/ble/app\app_cmd.c ****         adv_param.prop = 0x0003;    // scannable connectable undirected
 155:C:/Users/stapi/OneDrive/Desktop/GD32VW553/GD32VW55X_Wifi_BLE_SDK/GD32VW55x_RELEASE_V1.0.2/MSDK/ble/app\app_cmd.c ****     } else if (adv_param.type == BLE_ADV_TYPE_EXTENDED) {
 156:C:/Users/stapi/OneDrive/Desktop/GD32VW553/GD32VW55X_Wifi_BLE_SDK/GD32VW55x_RELEASE_V1.0.2/MSDK/ble/app\app_cmd.c ****         adv_param.prop = 0x0001;    // connectable undirected
 157:C:/Users/stapi/OneDrive/Desktop/GD32VW553/GD32VW55X_Wifi_BLE_SDK/GD32VW55x_RELEASE_V1.0.2/MSDK/ble/app\app_cmd.c ****     } else {
 158:C:/Users/stapi/OneDrive/Desktop/GD32VW553/GD32VW55X_Wifi_BLE_SDK/GD32VW55x_RELEASE_V1.0.2/MSDK/ble/app\app_cmd.c ****         adv_param.prop = 0x0000;    // undirected periodic adv
 159:C:/Users/stapi/OneDrive/Desktop/GD32VW553/GD32VW55X_Wifi_BLE_SDK/GD32VW55x_RELEASE_V1.0.2/MSDK/ble/app\app_cmd.c ****     }
 160:C:/Users/stapi/OneDrive/Desktop/GD32VW553/GD32VW55X_Wifi_BLE_SDK/GD32VW55x_RELEASE_V1.0.2/MSDK/ble/app\app_cmd.c **** 
 161:C:/Users/stapi/OneDrive/Desktop/GD32VW553/GD32VW55X_Wifi_BLE_SDK/GD32VW55x_RELEASE_V1.0.2/MSDK/ble/app\app_cmd.c ****     adv_param.pri_phy = BLE_GAP_PHY_1MBPS;
 162:C:/Users/stapi/OneDrive/Desktop/GD32VW553/GD32VW55X_Wifi_BLE_SDK/GD32VW55x_RELEASE_V1.0.2/MSDK/ble/app\app_cmd.c ****     adv_param.sec_phy = BLE_GAP_PHY_1MBPS;
 163:C:/Users/stapi/OneDrive/Desktop/GD32VW553/GD32VW55X_Wifi_BLE_SDK/GD32VW55x_RELEASE_V1.0.2/MSDK/ble/app\app_cmd.c ****     adv_param.wl_enable = false;
 164:C:/Users/stapi/OneDrive/Desktop/GD32VW553/GD32VW55X_Wifi_BLE_SDK/GD32VW55x_RELEASE_V1.0.2/MSDK/ble/app\app_cmd.c ****     adv_param.own_addr_type = BLE_GAP_LOCAL_ADDR_STATIC;
 165:C:/Users/stapi/OneDrive/Desktop/GD32VW553/GD32VW55X_Wifi_BLE_SDK/GD32VW55x_RELEASE_V1.0.2/MSDK/ble/app\app_cmd.c ****     adv_param.disc_mode = BLE_GAP_ADV_MODE_GEN_DISC;
 166:C:/Users/stapi/OneDrive/Desktop/GD32VW553/GD32VW55X_Wifi_BLE_SDK/GD32VW55x_RELEASE_V1.0.2/MSDK/ble/app\app_cmd.c ****     adv_param.max_data_len = 0x1F;
 167:C:/Users/stapi/OneDrive/Desktop/GD32VW553/GD32VW55X_Wifi_BLE_SDK/GD32VW55x_RELEASE_V1.0.2/MSDK/ble/app\app_cmd.c **** 
 168:C:/Users/stapi/OneDrive/Desktop/GD32VW553/GD32VW55X_Wifi_BLE_SDK/GD32VW55x_RELEASE_V1.0.2/MSDK/ble/app\app_cmd.c ****     ret = app_adv_create(&adv_param);
 169:C:/Users/stapi/OneDrive/Desktop/GD32VW553/GD32VW55X_Wifi_BLE_SDK/GD32VW55x_RELEASE_V1.0.2/MSDK/ble/app\app_cmd.c **** 
 170:C:/Users/stapi/OneDrive/Desktop/GD32VW553/GD32VW55X_Wifi_BLE_SDK/GD32VW55x_RELEASE_V1.0.2/MSDK/ble/app\app_cmd.c ****     if (ret != BLE_ERR_NO_ERROR) {
 171:C:/Users/stapi/OneDrive/Desktop/GD32VW553/GD32VW55X_Wifi_BLE_SDK/GD32VW55x_RELEASE_V1.0.2/MSDK/ble/app\app_cmd.c ****         app_print("create adv fail status 0x%x\r\n", ret);
 172:C:/Users/stapi/OneDrive/Desktop/GD32VW553/GD32VW55X_Wifi_BLE_SDK/GD32VW55x_RELEASE_V1.0.2/MSDK/ble/app\app_cmd.c ****     }
 173:C:/Users/stapi/OneDrive/Desktop/GD32VW553/GD32VW55X_Wifi_BLE_SDK/GD32VW55x_RELEASE_V1.0.2/MSDK/ble/app\app_cmd.c **** 
 174:C:/Users/stapi/OneDrive/Desktop/GD32VW553/GD32VW55X_Wifi_BLE_SDK/GD32VW55x_RELEASE_V1.0.2/MSDK/ble/app\app_cmd.c ****     return;
 175:C:/Users/stapi/OneDrive/Desktop/GD32VW553/GD32VW55X_Wifi_BLE_SDK/GD32VW55x_RELEASE_V1.0.2/MSDK/ble/app\app_cmd.c **** 
 176:C:/Users/stapi/OneDrive/Desktop/GD32VW553/GD32VW55X_Wifi_BLE_SDK/GD32VW55x_RELEASE_V1.0.2/MSDK/ble/app\app_cmd.c **** usage:
 177:C:/Users/stapi/OneDrive/Desktop/GD32VW553/GD32VW55X_Wifi_BLE_SDK/GD32VW55x_RELEASE_V1.0.2/MSDK/ble/app\app_cmd.c ****     app_print("Usage: ble_adv <adv type>\r\n");
 178:C:/Users/stapi/OneDrive/Desktop/GD32VW553/GD32VW55X_Wifi_BLE_SDK/GD32VW55x_RELEASE_V1.0.2/MSDK/ble/app\app_cmd.c ****     app_print("<adv type>: advertising type, value 0 ~ 2\r\n");
 179:C:/Users/stapi/OneDrive/Desktop/GD32VW553/GD32VW55X_Wifi_BLE_SDK/GD32VW55x_RELEASE_V1.0.2/MSDK/ble/app\app_cmd.c ****     app_print("\t0: legacy advertising, 1: extended advertising, 2: periodic advertising\r\n");
 180:C:/Users/stapi/OneDrive/Desktop/GD32VW553/GD32VW55X_Wifi_BLE_SDK/GD32VW55x_RELEASE_V1.0.2/MSDK/ble/app\app_cmd.c ****     app_print("\tsupport %u advertising sets at the same time\r\n", set_num);
 181:C:/Users/stapi/OneDrive/Desktop/GD32VW553/GD32VW55X_Wifi_BLE_SDK/GD32VW55x_RELEASE_V1.0.2/MSDK/ble/app\app_cmd.c **** }
 182:C:/Users/stapi/OneDrive/Desktop/GD32VW553/GD32VW55X_Wifi_BLE_SDK/GD32VW55x_RELEASE_V1.0.2/MSDK/ble/app\app_cmd.c **** #endif // #ifndef CONFIG_INTERNAL_DEBUG
 183:C:/Users/stapi/OneDrive/Desktop/GD32VW553/GD32VW55X_Wifi_BLE_SDK/GD32VW55x_RELEASE_V1.0.2/MSDK/ble/app\app_cmd.c **** 
 184:C:/Users/stapi/OneDrive/Desktop/GD32VW553/GD32VW55X_Wifi_BLE_SDK/GD32VW55x_RELEASE_V1.0.2/MSDK/ble/app\app_cmd.c **** static void cmd_advertise_stop(int argc, char **argv)
 185:C:/Users/stapi/OneDrive/Desktop/GD32VW553/GD32VW55X_Wifi_BLE_SDK/GD32VW55x_RELEASE_V1.0.2/MSDK/ble/app\app_cmd.c **** {
 186:C:/Users/stapi/OneDrive/Desktop/GD32VW553/GD32VW55X_Wifi_BLE_SDK/GD32VW55x_RELEASE_V1.0.2/MSDK/ble/app\app_cmd.c ****     char *endptr = NULL;
 187:C:/Users/stapi/OneDrive/Desktop/GD32VW553/GD32VW55X_Wifi_BLE_SDK/GD32VW55x_RELEASE_V1.0.2/MSDK/ble/app\app_cmd.c ****     uint8_t idx = 0;
 188:C:/Users/stapi/OneDrive/Desktop/GD32VW553/GD32VW55X_Wifi_BLE_SDK/GD32VW55x_RELEASE_V1.0.2/MSDK/ble/app\app_cmd.c ****     bool rmv_adv = true;
 189:C:/Users/stapi/OneDrive/Desktop/GD32VW553/GD32VW55X_Wifi_BLE_SDK/GD32VW55x_RELEASE_V1.0.2/MSDK/ble/app\app_cmd.c ****     ble_status_t ret;
 190:C:/Users/stapi/OneDrive/Desktop/GD32VW553/GD32VW55X_Wifi_BLE_SDK/GD32VW55x_RELEASE_V1.0.2/MSDK/ble/app\app_cmd.c **** 
 191:C:/Users/stapi/OneDrive/Desktop/GD32VW553/GD32VW55X_Wifi_BLE_SDK/GD32VW55x_RELEASE_V1.0.2/MSDK/ble/app\app_cmd.c ****     if (argc == 1 || argc > 3) {
 192:C:/Users/stapi/OneDrive/Desktop/GD32VW553/GD32VW55X_Wifi_BLE_SDK/GD32VW55x_RELEASE_V1.0.2/MSDK/ble/app\app_cmd.c ****         goto usage;
 193:C:/Users/stapi/OneDrive/Desktop/GD32VW553/GD32VW55X_Wifi_BLE_SDK/GD32VW55x_RELEASE_V1.0.2/MSDK/ble/app\app_cmd.c ****     }
 194:C:/Users/stapi/OneDrive/Desktop/GD32VW553/GD32VW55X_Wifi_BLE_SDK/GD32VW55x_RELEASE_V1.0.2/MSDK/ble/app\app_cmd.c **** 
 195:C:/Users/stapi/OneDrive/Desktop/GD32VW553/GD32VW55X_Wifi_BLE_SDK/GD32VW55x_RELEASE_V1.0.2/MSDK/ble/app\app_cmd.c ****     idx = (uint8_t)strtoul((const char *)argv[1], &endptr, 16);
 196:C:/Users/stapi/OneDrive/Desktop/GD32VW553/GD32VW55X_Wifi_BLE_SDK/GD32VW55x_RELEASE_V1.0.2/MSDK/ble/app\app_cmd.c **** 
 197:C:/Users/stapi/OneDrive/Desktop/GD32VW553/GD32VW55X_Wifi_BLE_SDK/GD32VW55x_RELEASE_V1.0.2/MSDK/ble/app\app_cmd.c ****     if (argc == 3) {
 198:C:/Users/stapi/OneDrive/Desktop/GD32VW553/GD32VW55X_Wifi_BLE_SDK/GD32VW55x_RELEASE_V1.0.2/MSDK/ble/app\app_cmd.c ****         rmv_adv = (bool)strtoul((const char *)argv[2], &endptr, 16);
 199:C:/Users/stapi/OneDrive/Desktop/GD32VW553/GD32VW55X_Wifi_BLE_SDK/GD32VW55x_RELEASE_V1.0.2/MSDK/ble/app\app_cmd.c ****     }
 200:C:/Users/stapi/OneDrive/Desktop/GD32VW553/GD32VW55X_Wifi_BLE_SDK/GD32VW55x_RELEASE_V1.0.2/MSDK/ble/app\app_cmd.c **** 
 201:C:/Users/stapi/OneDrive/Desktop/GD32VW553/GD32VW55X_Wifi_BLE_SDK/GD32VW55x_RELEASE_V1.0.2/MSDK/ble/app\app_cmd.c ****     ret = app_adv_stop(idx, rmv_adv);
 202:C:/Users/stapi/OneDrive/Desktop/GD32VW553/GD32VW55X_Wifi_BLE_SDK/GD32VW55x_RELEASE_V1.0.2/MSDK/ble/app\app_cmd.c ****     if (ret != BLE_ERR_NO_ERROR) {
 203:C:/Users/stapi/OneDrive/Desktop/GD32VW553/GD32VW55X_Wifi_BLE_SDK/GD32VW55x_RELEASE_V1.0.2/MSDK/ble/app\app_cmd.c ****         app_print("stop adv fail status 0x%x\r\n", ret);
 204:C:/Users/stapi/OneDrive/Desktop/GD32VW553/GD32VW55X_Wifi_BLE_SDK/GD32VW55x_RELEASE_V1.0.2/MSDK/ble/app\app_cmd.c ****     }
 205:C:/Users/stapi/OneDrive/Desktop/GD32VW553/GD32VW55X_Wifi_BLE_SDK/GD32VW55x_RELEASE_V1.0.2/MSDK/ble/app\app_cmd.c **** 
 206:C:/Users/stapi/OneDrive/Desktop/GD32VW553/GD32VW55X_Wifi_BLE_SDK/GD32VW55x_RELEASE_V1.0.2/MSDK/ble/app\app_cmd.c ****     return;
 207:C:/Users/stapi/OneDrive/Desktop/GD32VW553/GD32VW55X_Wifi_BLE_SDK/GD32VW55x_RELEASE_V1.0.2/MSDK/ble/app\app_cmd.c **** 
 208:C:/Users/stapi/OneDrive/Desktop/GD32VW553/GD32VW55X_Wifi_BLE_SDK/GD32VW55x_RELEASE_V1.0.2/MSDK/ble/app\app_cmd.c **** usage:
 209:C:/Users/stapi/OneDrive/Desktop/GD32VW553/GD32VW55X_Wifi_BLE_SDK/GD32VW55x_RELEASE_V1.0.2/MSDK/ble/app\app_cmd.c ****     app_print("Usage: ble_adv_stop <adv idx> [remove]\r\n");
 210:C:/Users/stapi/OneDrive/Desktop/GD32VW553/GD32VW55X_Wifi_BLE_SDK/GD32VW55x_RELEASE_V1.0.2/MSDK/ble/app\app_cmd.c ****     app_print("<adv idx>: advertising index to stop\r\n");
 211:C:/Users/stapi/OneDrive/Desktop/GD32VW553/GD32VW55X_Wifi_BLE_SDK/GD32VW55x_RELEASE_V1.0.2/MSDK/ble/app\app_cmd.c ****     app_print("[remove]: remove advertising set after stopped, default is 1 if not set\r\n");
 212:C:/Users/stapi/OneDrive/Desktop/GD32VW553/GD32VW55X_Wifi_BLE_SDK/GD32VW55x_RELEASE_V1.0.2/MSDK/ble/app\app_cmd.c **** }
 213:C:/Users/stapi/OneDrive/Desktop/GD32VW553/GD32VW55X_Wifi_BLE_SDK/GD32VW55x_RELEASE_V1.0.2/MSDK/ble/app\app_cmd.c **** 
 214:C:/Users/stapi/OneDrive/Desktop/GD32VW553/GD32VW55X_Wifi_BLE_SDK/GD32VW55x_RELEASE_V1.0.2/MSDK/ble/app\app_cmd.c **** static void cmd_advertise_restart(int argc, char **argv)
 215:C:/Users/stapi/OneDrive/Desktop/GD32VW553/GD32VW55X_Wifi_BLE_SDK/GD32VW55x_RELEASE_V1.0.2/MSDK/ble/app\app_cmd.c **** {
 216:C:/Users/stapi/OneDrive/Desktop/GD32VW553/GD32VW55X_Wifi_BLE_SDK/GD32VW55x_RELEASE_V1.0.2/MSDK/ble/app\app_cmd.c ****     char *endptr = NULL;
 217:C:/Users/stapi/OneDrive/Desktop/GD32VW553/GD32VW55X_Wifi_BLE_SDK/GD32VW55x_RELEASE_V1.0.2/MSDK/ble/app\app_cmd.c ****     uint8_t idx = 0;
 218:C:/Users/stapi/OneDrive/Desktop/GD32VW553/GD32VW55X_Wifi_BLE_SDK/GD32VW55x_RELEASE_V1.0.2/MSDK/ble/app\app_cmd.c ****     ble_status_t ret;
 219:C:/Users/stapi/OneDrive/Desktop/GD32VW553/GD32VW55X_Wifi_BLE_SDK/GD32VW55x_RELEASE_V1.0.2/MSDK/ble/app\app_cmd.c **** 
 220:C:/Users/stapi/OneDrive/Desktop/GD32VW553/GD32VW55X_Wifi_BLE_SDK/GD32VW55x_RELEASE_V1.0.2/MSDK/ble/app\app_cmd.c ****     if (argc == 1) {
 221:C:/Users/stapi/OneDrive/Desktop/GD32VW553/GD32VW55X_Wifi_BLE_SDK/GD32VW55x_RELEASE_V1.0.2/MSDK/ble/app\app_cmd.c ****         goto usage;
 222:C:/Users/stapi/OneDrive/Desktop/GD32VW553/GD32VW55X_Wifi_BLE_SDK/GD32VW55x_RELEASE_V1.0.2/MSDK/ble/app\app_cmd.c ****     }
 223:C:/Users/stapi/OneDrive/Desktop/GD32VW553/GD32VW55X_Wifi_BLE_SDK/GD32VW55x_RELEASE_V1.0.2/MSDK/ble/app\app_cmd.c **** 
 224:C:/Users/stapi/OneDrive/Desktop/GD32VW553/GD32VW55X_Wifi_BLE_SDK/GD32VW55x_RELEASE_V1.0.2/MSDK/ble/app\app_cmd.c ****     idx = (uint8_t)strtoul((const char *)argv[1], &endptr, 16);
 225:C:/Users/stapi/OneDrive/Desktop/GD32VW553/GD32VW55X_Wifi_BLE_SDK/GD32VW55x_RELEASE_V1.0.2/MSDK/ble/app\app_cmd.c **** 
 226:C:/Users/stapi/OneDrive/Desktop/GD32VW553/GD32VW55X_Wifi_BLE_SDK/GD32VW55x_RELEASE_V1.0.2/MSDK/ble/app\app_cmd.c ****     ret = app_adv_restart(idx);
 227:C:/Users/stapi/OneDrive/Desktop/GD32VW553/GD32VW55X_Wifi_BLE_SDK/GD32VW55x_RELEASE_V1.0.2/MSDK/ble/app\app_cmd.c ****     if (ret != BLE_ERR_NO_ERROR) {
 228:C:/Users/stapi/OneDrive/Desktop/GD32VW553/GD32VW55X_Wifi_BLE_SDK/GD32VW55x_RELEASE_V1.0.2/MSDK/ble/app\app_cmd.c ****         app_print("restart adv fail 0x%x\r\n", ret);
 229:C:/Users/stapi/OneDrive/Desktop/GD32VW553/GD32VW55X_Wifi_BLE_SDK/GD32VW55x_RELEASE_V1.0.2/MSDK/ble/app\app_cmd.c ****     }
 230:C:/Users/stapi/OneDrive/Desktop/GD32VW553/GD32VW55X_Wifi_BLE_SDK/GD32VW55x_RELEASE_V1.0.2/MSDK/ble/app\app_cmd.c **** 
 231:C:/Users/stapi/OneDrive/Desktop/GD32VW553/GD32VW55X_Wifi_BLE_SDK/GD32VW55x_RELEASE_V1.0.2/MSDK/ble/app\app_cmd.c ****     return;
 232:C:/Users/stapi/OneDrive/Desktop/GD32VW553/GD32VW55X_Wifi_BLE_SDK/GD32VW55x_RELEASE_V1.0.2/MSDK/ble/app\app_cmd.c **** 
 233:C:/Users/stapi/OneDrive/Desktop/GD32VW553/GD32VW55X_Wifi_BLE_SDK/GD32VW55x_RELEASE_V1.0.2/MSDK/ble/app\app_cmd.c **** usage:
 234:C:/Users/stapi/OneDrive/Desktop/GD32VW553/GD32VW55X_Wifi_BLE_SDK/GD32VW55x_RELEASE_V1.0.2/MSDK/ble/app\app_cmd.c ****     app_print("Usage: ble_adv_restart <adv idx>\r\n");
 235:C:/Users/stapi/OneDrive/Desktop/GD32VW553/GD32VW55X_Wifi_BLE_SDK/GD32VW55x_RELEASE_V1.0.2/MSDK/ble/app\app_cmd.c ****     app_print("<adv idx>: advertising index to restart\r\n");
 236:C:/Users/stapi/OneDrive/Desktop/GD32VW553/GD32VW55X_Wifi_BLE_SDK/GD32VW55x_RELEASE_V1.0.2/MSDK/ble/app\app_cmd.c **** }
 237:C:/Users/stapi/OneDrive/Desktop/GD32VW553/GD32VW55X_Wifi_BLE_SDK/GD32VW55x_RELEASE_V1.0.2/MSDK/ble/app\app_cmd.c **** #endif
 238:C:/Users/stapi/OneDrive/Desktop/GD32VW553/GD32VW55X_Wifi_BLE_SDK/GD32VW55x_RELEASE_V1.0.2/MSDK/ble/app\app_cmd.c **** 
 239:C:/Users/stapi/OneDrive/Desktop/GD32VW553/GD32VW55X_Wifi_BLE_SDK/GD32VW55x_RELEASE_V1.0.2/MSDK/ble/app\app_cmd.c **** #if (BLE_CFG_ROLE & (BLE_CFG_ROLE_OBSERVER | BLE_CFG_ROLE_CENTRAL))
 240:C:/Users/stapi/OneDrive/Desktop/GD32VW553/GD32VW55X_Wifi_BLE_SDK/GD32VW55x_RELEASE_V1.0.2/MSDK/ble/app\app_cmd.c **** #ifndef CONFIG_INTERNAL_DEBUG
 241:C:/Users/stapi/OneDrive/Desktop/GD32VW553/GD32VW55X_Wifi_BLE_SDK/GD32VW55x_RELEASE_V1.0.2/MSDK/ble/app\app_cmd.c **** static void cmd_scan(int argc, char **argv)
 242:C:/Users/stapi/OneDrive/Desktop/GD32VW553/GD32VW55X_Wifi_BLE_SDK/GD32VW55x_RELEASE_V1.0.2/MSDK/ble/app\app_cmd.c **** {
 243:C:/Users/stapi/OneDrive/Desktop/GD32VW553/GD32VW55X_Wifi_BLE_SDK/GD32VW55x_RELEASE_V1.0.2/MSDK/ble/app\app_cmd.c ****     app_scan_enable(false);
 244:C:/Users/stapi/OneDrive/Desktop/GD32VW553/GD32VW55X_Wifi_BLE_SDK/GD32VW55x_RELEASE_V1.0.2/MSDK/ble/app\app_cmd.c **** }
 245:C:/Users/stapi/OneDrive/Desktop/GD32VW553/GD32VW55X_Wifi_BLE_SDK/GD32VW55x_RELEASE_V1.0.2/MSDK/ble/app\app_cmd.c **** #endif // #ifndef CONFIG_INTERNAL_DEBUG
 246:C:/Users/stapi/OneDrive/Desktop/GD32VW553/GD32VW55X_Wifi_BLE_SDK/GD32VW55x_RELEASE_V1.0.2/MSDK/ble/app\app_cmd.c **** 
 247:C:/Users/stapi/OneDrive/Desktop/GD32VW553/GD32VW55X_Wifi_BLE_SDK/GD32VW55x_RELEASE_V1.0.2/MSDK/ble/app\app_cmd.c **** static void cmd_scan_stop(int argc, char **argv)
 248:C:/Users/stapi/OneDrive/Desktop/GD32VW553/GD32VW55X_Wifi_BLE_SDK/GD32VW55x_RELEASE_V1.0.2/MSDK/ble/app\app_cmd.c **** {
 249:C:/Users/stapi/OneDrive/Desktop/GD32VW553/GD32VW55X_Wifi_BLE_SDK/GD32VW55x_RELEASE_V1.0.2/MSDK/ble/app\app_cmd.c ****     app_scan_disable();
 250:C:/Users/stapi/OneDrive/Desktop/GD32VW553/GD32VW55X_Wifi_BLE_SDK/GD32VW55x_RELEASE_V1.0.2/MSDK/ble/app\app_cmd.c **** }
 251:C:/Users/stapi/OneDrive/Desktop/GD32VW553/GD32VW55X_Wifi_BLE_SDK/GD32VW55x_RELEASE_V1.0.2/MSDK/ble/app\app_cmd.c **** 
 252:C:/Users/stapi/OneDrive/Desktop/GD32VW553/GD32VW55X_Wifi_BLE_SDK/GD32VW55x_RELEASE_V1.0.2/MSDK/ble/app\app_cmd.c **** static void cmd_list_scan_devs(int argc, char **argv)
 253:C:/Users/stapi/OneDrive/Desktop/GD32VW553/GD32VW55X_Wifi_BLE_SDK/GD32VW55x_RELEASE_V1.0.2/MSDK/ble/app\app_cmd.c **** {
 254:C:/Users/stapi/OneDrive/Desktop/GD32VW553/GD32VW55X_Wifi_BLE_SDK/GD32VW55x_RELEASE_V1.0.2/MSDK/ble/app\app_cmd.c ****     scan_mgr_list_scanned_devices();
 255:C:/Users/stapi/OneDrive/Desktop/GD32VW553/GD32VW55X_Wifi_BLE_SDK/GD32VW55x_RELEASE_V1.0.2/MSDK/ble/app\app_cmd.c **** }
 256:C:/Users/stapi/OneDrive/Desktop/GD32VW553/GD32VW55X_Wifi_BLE_SDK/GD32VW55x_RELEASE_V1.0.2/MSDK/ble/app\app_cmd.c **** 
 257:C:/Users/stapi/OneDrive/Desktop/GD32VW553/GD32VW55X_Wifi_BLE_SDK/GD32VW55x_RELEASE_V1.0.2/MSDK/ble/app\app_cmd.c **** #if (BLE_APP_PER_ADV_SUPPORT)
 258:C:/Users/stapi/OneDrive/Desktop/GD32VW553/GD32VW55X_Wifi_BLE_SDK/GD32VW55x_RELEASE_V1.0.2/MSDK/ble/app\app_cmd.c **** #ifndef CONFIG_INTERNAL_DEBUG
 259:C:/Users/stapi/OneDrive/Desktop/GD32VW553/GD32VW55X_Wifi_BLE_SDK/GD32VW55x_RELEASE_V1.0.2/MSDK/ble/app\app_cmd.c **** static void cmd_sync(int argc, char **argv)
 260:C:/Users/stapi/OneDrive/Desktop/GD32VW553/GD32VW55X_Wifi_BLE_SDK/GD32VW55x_RELEASE_V1.0.2/MSDK/ble/app\app_cmd.c **** {
 261:C:/Users/stapi/OneDrive/Desktop/GD32VW553/GD32VW55X_Wifi_BLE_SDK/GD32VW55x_RELEASE_V1.0.2/MSDK/ble/app\app_cmd.c ****     char *endptr = NULL;
 262:C:/Users/stapi/OneDrive/Desktop/GD32VW553/GD32VW55X_Wifi_BLE_SDK/GD32VW55x_RELEASE_V1.0.2/MSDK/ble/app\app_cmd.c ****     dev_info_t *p_dev_info = NULL;
 263:C:/Users/stapi/OneDrive/Desktop/GD32VW553/GD32VW55X_Wifi_BLE_SDK/GD32VW55x_RELEASE_V1.0.2/MSDK/ble/app\app_cmd.c ****     ble_gap_per_sync_param_t param;
 264:C:/Users/stapi/OneDrive/Desktop/GD32VW553/GD32VW55X_Wifi_BLE_SDK/GD32VW55x_RELEASE_V1.0.2/MSDK/ble/app\app_cmd.c ****     uint8_t idx;
 265:C:/Users/stapi/OneDrive/Desktop/GD32VW553/GD32VW55X_Wifi_BLE_SDK/GD32VW55x_RELEASE_V1.0.2/MSDK/ble/app\app_cmd.c ****     ble_status_t ret;
 266:C:/Users/stapi/OneDrive/Desktop/GD32VW553/GD32VW55X_Wifi_BLE_SDK/GD32VW55x_RELEASE_V1.0.2/MSDK/ble/app\app_cmd.c **** 
 267:C:/Users/stapi/OneDrive/Desktop/GD32VW553/GD32VW55X_Wifi_BLE_SDK/GD32VW55x_RELEASE_V1.0.2/MSDK/ble/app\app_cmd.c ****     param.skip = 0;
 268:C:/Users/stapi/OneDrive/Desktop/GD32VW553/GD32VW55X_Wifi_BLE_SDK/GD32VW55x_RELEASE_V1.0.2/MSDK/ble/app\app_cmd.c ****     param.sync_tout = 1000;     // 10s
 269:C:/Users/stapi/OneDrive/Desktop/GD32VW553/GD32VW55X_Wifi_BLE_SDK/GD32VW55x_RELEASE_V1.0.2/MSDK/ble/app\app_cmd.c ****     param.type = BLE_GAP_PER_SYNC_TYPE_GENERAL;
 270:C:/Users/stapi/OneDrive/Desktop/GD32VW553/GD32VW55X_Wifi_BLE_SDK/GD32VW55x_RELEASE_V1.0.2/MSDK/ble/app\app_cmd.c ****     param.conn_idx = 0;
 271:C:/Users/stapi/OneDrive/Desktop/GD32VW553/GD32VW55X_Wifi_BLE_SDK/GD32VW55x_RELEASE_V1.0.2/MSDK/ble/app\app_cmd.c ****     param.report_en_bf = BLE_GAP_REPORT_ADV_EN_BIT | BLE_GAP_REPORT_DUPLICATE_FILTER_EN_BIT;
 272:C:/Users/stapi/OneDrive/Desktop/GD32VW553/GD32VW55X_Wifi_BLE_SDK/GD32VW55x_RELEASE_V1.0.2/MSDK/ble/app\app_cmd.c ****     param.adv_addr.adv_sid = 0;
 273:C:/Users/stapi/OneDrive/Desktop/GD32VW553/GD32VW55X_Wifi_BLE_SDK/GD32VW55x_RELEASE_V1.0.2/MSDK/ble/app\app_cmd.c **** 
 274:C:/Users/stapi/OneDrive/Desktop/GD32VW553/GD32VW55X_Wifi_BLE_SDK/GD32VW55x_RELEASE_V1.0.2/MSDK/ble/app\app_cmd.c ****     if (argc != 2) {
 275:C:/Users/stapi/OneDrive/Desktop/GD32VW553/GD32VW55X_Wifi_BLE_SDK/GD32VW55x_RELEASE_V1.0.2/MSDK/ble/app\app_cmd.c ****         goto usage;
 276:C:/Users/stapi/OneDrive/Desktop/GD32VW553/GD32VW55X_Wifi_BLE_SDK/GD32VW55x_RELEASE_V1.0.2/MSDK/ble/app\app_cmd.c ****     }
 277:C:/Users/stapi/OneDrive/Desktop/GD32VW553/GD32VW55X_Wifi_BLE_SDK/GD32VW55x_RELEASE_V1.0.2/MSDK/ble/app\app_cmd.c **** 
 278:C:/Users/stapi/OneDrive/Desktop/GD32VW553/GD32VW55X_Wifi_BLE_SDK/GD32VW55x_RELEASE_V1.0.2/MSDK/ble/app\app_cmd.c ****     idx = (uint8_t)strtoul((const char *)argv[1], &endptr, 10);
 279:C:/Users/stapi/OneDrive/Desktop/GD32VW553/GD32VW55X_Wifi_BLE_SDK/GD32VW55x_RELEASE_V1.0.2/MSDK/ble/app\app_cmd.c ****     p_dev_info = scan_mgr_find_dev_by_idx(idx);
 280:C:/Users/stapi/OneDrive/Desktop/GD32VW553/GD32VW55X_Wifi_BLE_SDK/GD32VW55x_RELEASE_V1.0.2/MSDK/ble/app\app_cmd.c ****     if (p_dev_info == NULL) {
 281:C:/Users/stapi/OneDrive/Desktop/GD32VW553/GD32VW55X_Wifi_BLE_SDK/GD32VW55x_RELEASE_V1.0.2/MSDK/ble/app\app_cmd.c ****         app_print("fail to find periodic advertising device\r\n");
 282:C:/Users/stapi/OneDrive/Desktop/GD32VW553/GD32VW55X_Wifi_BLE_SDK/GD32VW55x_RELEASE_V1.0.2/MSDK/ble/app\app_cmd.c ****         return;
 283:C:/Users/stapi/OneDrive/Desktop/GD32VW553/GD32VW55X_Wifi_BLE_SDK/GD32VW55x_RELEASE_V1.0.2/MSDK/ble/app\app_cmd.c ****     }
 284:C:/Users/stapi/OneDrive/Desktop/GD32VW553/GD32VW55X_Wifi_BLE_SDK/GD32VW55x_RELEASE_V1.0.2/MSDK/ble/app\app_cmd.c **** 
 285:C:/Users/stapi/OneDrive/Desktop/GD32VW553/GD32VW55X_Wifi_BLE_SDK/GD32VW55x_RELEASE_V1.0.2/MSDK/ble/app\app_cmd.c ****     param.adv_addr.addr_type = p_dev_info->peer_addr.addr_type;
 286:C:/Users/stapi/OneDrive/Desktop/GD32VW553/GD32VW55X_Wifi_BLE_SDK/GD32VW55x_RELEASE_V1.0.2/MSDK/ble/app\app_cmd.c ****     memcpy(param.adv_addr.addr, p_dev_info->peer_addr.addr, BLE_GAP_ADDR_LEN);
 287:C:/Users/stapi/OneDrive/Desktop/GD32VW553/GD32VW55X_Wifi_BLE_SDK/GD32VW55x_RELEASE_V1.0.2/MSDK/ble/app\app_cmd.c ****     param.adv_addr.adv_sid = p_dev_info->adv_sid;
 288:C:/Users/stapi/OneDrive/Desktop/GD32VW553/GD32VW55X_Wifi_BLE_SDK/GD32VW55x_RELEASE_V1.0.2/MSDK/ble/app\app_cmd.c **** 
 289:C:/Users/stapi/OneDrive/Desktop/GD32VW553/GD32VW55X_Wifi_BLE_SDK/GD32VW55x_RELEASE_V1.0.2/MSDK/ble/app\app_cmd.c ****     ret = ble_per_sync_start(BLE_GAP_LOCAL_ADDR_STATIC, &param);
 290:C:/Users/stapi/OneDrive/Desktop/GD32VW553/GD32VW55X_Wifi_BLE_SDK/GD32VW55x_RELEASE_V1.0.2/MSDK/ble/app\app_cmd.c ****     if (ret != BLE_ERR_NO_ERROR) {
 291:C:/Users/stapi/OneDrive/Desktop/GD32VW553/GD32VW55X_Wifi_BLE_SDK/GD32VW55x_RELEASE_V1.0.2/MSDK/ble/app\app_cmd.c ****         app_print("sync fail status 0x%x\r\n", ret);
 292:C:/Users/stapi/OneDrive/Desktop/GD32VW553/GD32VW55X_Wifi_BLE_SDK/GD32VW55x_RELEASE_V1.0.2/MSDK/ble/app\app_cmd.c ****     }
 293:C:/Users/stapi/OneDrive/Desktop/GD32VW553/GD32VW55X_Wifi_BLE_SDK/GD32VW55x_RELEASE_V1.0.2/MSDK/ble/app\app_cmd.c **** 
 294:C:/Users/stapi/OneDrive/Desktop/GD32VW553/GD32VW55X_Wifi_BLE_SDK/GD32VW55x_RELEASE_V1.0.2/MSDK/ble/app\app_cmd.c ****     return;
 295:C:/Users/stapi/OneDrive/Desktop/GD32VW553/GD32VW55X_Wifi_BLE_SDK/GD32VW55x_RELEASE_V1.0.2/MSDK/ble/app\app_cmd.c **** 
 296:C:/Users/stapi/OneDrive/Desktop/GD32VW553/GD32VW55X_Wifi_BLE_SDK/GD32VW55x_RELEASE_V1.0.2/MSDK/ble/app\app_cmd.c **** usage:
 297:C:/Users/stapi/OneDrive/Desktop/GD32VW553/GD32VW55X_Wifi_BLE_SDK/GD32VW55x_RELEASE_V1.0.2/MSDK/ble/app\app_cmd.c ****     app_print("Usage: ble_sync <dev idx>\r\n");
 298:C:/Users/stapi/OneDrive/Desktop/GD32VW553/GD32VW55X_Wifi_BLE_SDK/GD32VW55x_RELEASE_V1.0.2/MSDK/ble/app\app_cmd.c ****     app_print("<dev idx>: device index in scan list\r\n");
 299:C:/Users/stapi/OneDrive/Desktop/GD32VW553/GD32VW55X_Wifi_BLE_SDK/GD32VW55x_RELEASE_V1.0.2/MSDK/ble/app\app_cmd.c **** }
 300:C:/Users/stapi/OneDrive/Desktop/GD32VW553/GD32VW55X_Wifi_BLE_SDK/GD32VW55x_RELEASE_V1.0.2/MSDK/ble/app\app_cmd.c **** #endif  // #ifndef CONFIG_INTERNAL_DEBUG
 301:C:/Users/stapi/OneDrive/Desktop/GD32VW553/GD32VW55X_Wifi_BLE_SDK/GD32VW55x_RELEASE_V1.0.2/MSDK/ble/app\app_cmd.c **** 
 302:C:/Users/stapi/OneDrive/Desktop/GD32VW553/GD32VW55X_Wifi_BLE_SDK/GD32VW55x_RELEASE_V1.0.2/MSDK/ble/app\app_cmd.c **** static void cmd_sync_cancel(int argc, char **argv)
 303:C:/Users/stapi/OneDrive/Desktop/GD32VW553/GD32VW55X_Wifi_BLE_SDK/GD32VW55x_RELEASE_V1.0.2/MSDK/ble/app\app_cmd.c **** {
 304:C:/Users/stapi/OneDrive/Desktop/GD32VW553/GD32VW55X_Wifi_BLE_SDK/GD32VW55x_RELEASE_V1.0.2/MSDK/ble/app\app_cmd.c ****     app_per_sync_cancel();
 305:C:/Users/stapi/OneDrive/Desktop/GD32VW553/GD32VW55X_Wifi_BLE_SDK/GD32VW55x_RELEASE_V1.0.2/MSDK/ble/app\app_cmd.c **** }
 306:C:/Users/stapi/OneDrive/Desktop/GD32VW553/GD32VW55X_Wifi_BLE_SDK/GD32VW55x_RELEASE_V1.0.2/MSDK/ble/app\app_cmd.c **** 
 307:C:/Users/stapi/OneDrive/Desktop/GD32VW553/GD32VW55X_Wifi_BLE_SDK/GD32VW55x_RELEASE_V1.0.2/MSDK/ble/app\app_cmd.c **** static void cmd_sync_terminate(int argc, char **argv)
 308:C:/Users/stapi/OneDrive/Desktop/GD32VW553/GD32VW55X_Wifi_BLE_SDK/GD32VW55x_RELEASE_V1.0.2/MSDK/ble/app\app_cmd.c **** {
 309:C:/Users/stapi/OneDrive/Desktop/GD32VW553/GD32VW55X_Wifi_BLE_SDK/GD32VW55x_RELEASE_V1.0.2/MSDK/ble/app\app_cmd.c ****     char *endptr = NULL;
 310:C:/Users/stapi/OneDrive/Desktop/GD32VW553/GD32VW55X_Wifi_BLE_SDK/GD32VW55x_RELEASE_V1.0.2/MSDK/ble/app\app_cmd.c ****     uint8_t sync_actv_idx;
 311:C:/Users/stapi/OneDrive/Desktop/GD32VW553/GD32VW55X_Wifi_BLE_SDK/GD32VW55x_RELEASE_V1.0.2/MSDK/ble/app\app_cmd.c **** 
 312:C:/Users/stapi/OneDrive/Desktop/GD32VW553/GD32VW55X_Wifi_BLE_SDK/GD32VW55x_RELEASE_V1.0.2/MSDK/ble/app\app_cmd.c ****     if (argc != 2) {
 313:C:/Users/stapi/OneDrive/Desktop/GD32VW553/GD32VW55X_Wifi_BLE_SDK/GD32VW55x_RELEASE_V1.0.2/MSDK/ble/app\app_cmd.c ****         goto usage;
 314:C:/Users/stapi/OneDrive/Desktop/GD32VW553/GD32VW55X_Wifi_BLE_SDK/GD32VW55x_RELEASE_V1.0.2/MSDK/ble/app\app_cmd.c ****     }
 315:C:/Users/stapi/OneDrive/Desktop/GD32VW553/GD32VW55X_Wifi_BLE_SDK/GD32VW55x_RELEASE_V1.0.2/MSDK/ble/app\app_cmd.c **** 
 316:C:/Users/stapi/OneDrive/Desktop/GD32VW553/GD32VW55X_Wifi_BLE_SDK/GD32VW55x_RELEASE_V1.0.2/MSDK/ble/app\app_cmd.c ****     sync_actv_idx = (uint8_t)strtoul((const char *)argv[1], &endptr, 10);
 317:C:/Users/stapi/OneDrive/Desktop/GD32VW553/GD32VW55X_Wifi_BLE_SDK/GD32VW55x_RELEASE_V1.0.2/MSDK/ble/app\app_cmd.c ****     app_per_sync_terminate(sync_actv_idx);
 318:C:/Users/stapi/OneDrive/Desktop/GD32VW553/GD32VW55X_Wifi_BLE_SDK/GD32VW55x_RELEASE_V1.0.2/MSDK/ble/app\app_cmd.c **** 
 319:C:/Users/stapi/OneDrive/Desktop/GD32VW553/GD32VW55X_Wifi_BLE_SDK/GD32VW55x_RELEASE_V1.0.2/MSDK/ble/app\app_cmd.c ****     return;
 320:C:/Users/stapi/OneDrive/Desktop/GD32VW553/GD32VW55X_Wifi_BLE_SDK/GD32VW55x_RELEASE_V1.0.2/MSDK/ble/app\app_cmd.c **** 
 321:C:/Users/stapi/OneDrive/Desktop/GD32VW553/GD32VW55X_Wifi_BLE_SDK/GD32VW55x_RELEASE_V1.0.2/MSDK/ble/app\app_cmd.c **** usage:
 322:C:/Users/stapi/OneDrive/Desktop/GD32VW553/GD32VW55X_Wifi_BLE_SDK/GD32VW55x_RELEASE_V1.0.2/MSDK/ble/app\app_cmd.c ****     app_print("Usage: ble_sync_terminate <sync idx>\r\n");
 323:C:/Users/stapi/OneDrive/Desktop/GD32VW553/GD32VW55X_Wifi_BLE_SDK/GD32VW55x_RELEASE_V1.0.2/MSDK/ble/app\app_cmd.c ****     app_print("<sync idx>: periodic advertising sync index\r\n");
 324:C:/Users/stapi/OneDrive/Desktop/GD32VW553/GD32VW55X_Wifi_BLE_SDK/GD32VW55x_RELEASE_V1.0.2/MSDK/ble/app\app_cmd.c **** }
 325:C:/Users/stapi/OneDrive/Desktop/GD32VW553/GD32VW55X_Wifi_BLE_SDK/GD32VW55x_RELEASE_V1.0.2/MSDK/ble/app\app_cmd.c **** 
 326:C:/Users/stapi/OneDrive/Desktop/GD32VW553/GD32VW55X_Wifi_BLE_SDK/GD32VW55x_RELEASE_V1.0.2/MSDK/ble/app\app_cmd.c **** static void cmd_sync_ctrl(int argc, char **argv)
 327:C:/Users/stapi/OneDrive/Desktop/GD32VW553/GD32VW55X_Wifi_BLE_SDK/GD32VW55x_RELEASE_V1.0.2/MSDK/ble/app\app_cmd.c **** {
 328:C:/Users/stapi/OneDrive/Desktop/GD32VW553/GD32VW55X_Wifi_BLE_SDK/GD32VW55x_RELEASE_V1.0.2/MSDK/ble/app\app_cmd.c ****     char *endptr = NULL;
 329:C:/Users/stapi/OneDrive/Desktop/GD32VW553/GD32VW55X_Wifi_BLE_SDK/GD32VW55x_RELEASE_V1.0.2/MSDK/ble/app\app_cmd.c ****     uint8_t sync_actv_idx;
 330:C:/Users/stapi/OneDrive/Desktop/GD32VW553/GD32VW55X_Wifi_BLE_SDK/GD32VW55x_RELEASE_V1.0.2/MSDK/ble/app\app_cmd.c ****     uint8_t ctrl;
 331:C:/Users/stapi/OneDrive/Desktop/GD32VW553/GD32VW55X_Wifi_BLE_SDK/GD32VW55x_RELEASE_V1.0.2/MSDK/ble/app\app_cmd.c ****     ble_status_t ret;
 332:C:/Users/stapi/OneDrive/Desktop/GD32VW553/GD32VW55X_Wifi_BLE_SDK/GD32VW55x_RELEASE_V1.0.2/MSDK/ble/app\app_cmd.c **** 
 333:C:/Users/stapi/OneDrive/Desktop/GD32VW553/GD32VW55X_Wifi_BLE_SDK/GD32VW55x_RELEASE_V1.0.2/MSDK/ble/app\app_cmd.c ****     if (argc != 3) {
 334:C:/Users/stapi/OneDrive/Desktop/GD32VW553/GD32VW55X_Wifi_BLE_SDK/GD32VW55x_RELEASE_V1.0.2/MSDK/ble/app\app_cmd.c ****         goto usage;
 335:C:/Users/stapi/OneDrive/Desktop/GD32VW553/GD32VW55X_Wifi_BLE_SDK/GD32VW55x_RELEASE_V1.0.2/MSDK/ble/app\app_cmd.c ****     }
 336:C:/Users/stapi/OneDrive/Desktop/GD32VW553/GD32VW55X_Wifi_BLE_SDK/GD32VW55x_RELEASE_V1.0.2/MSDK/ble/app\app_cmd.c **** 
 337:C:/Users/stapi/OneDrive/Desktop/GD32VW553/GD32VW55X_Wifi_BLE_SDK/GD32VW55x_RELEASE_V1.0.2/MSDK/ble/app\app_cmd.c ****     sync_actv_idx = (uint8_t)strtoul((const char *)argv[1], &endptr, 10);
 338:C:/Users/stapi/OneDrive/Desktop/GD32VW553/GD32VW55X_Wifi_BLE_SDK/GD32VW55x_RELEASE_V1.0.2/MSDK/ble/app\app_cmd.c ****     ctrl = (uint8_t)strtoul((const char *)argv[2], &endptr, 16);
 339:C:/Users/stapi/OneDrive/Desktop/GD32VW553/GD32VW55X_Wifi_BLE_SDK/GD32VW55x_RELEASE_V1.0.2/MSDK/ble/app\app_cmd.c **** 
 340:C:/Users/stapi/OneDrive/Desktop/GD32VW553/GD32VW55X_Wifi_BLE_SDK/GD32VW55x_RELEASE_V1.0.2/MSDK/ble/app\app_cmd.c ****     ret = ble_per_sync_report_ctrl(sync_actv_idx, ctrl);
 341:C:/Users/stapi/OneDrive/Desktop/GD32VW553/GD32VW55X_Wifi_BLE_SDK/GD32VW55x_RELEASE_V1.0.2/MSDK/ble/app\app_cmd.c ****     if (ret != BLE_ERR_NO_ERROR) {
 342:C:/Users/stapi/OneDrive/Desktop/GD32VW553/GD32VW55X_Wifi_BLE_SDK/GD32VW55x_RELEASE_V1.0.2/MSDK/ble/app\app_cmd.c ****         app_print("ble sync ctrl fail status 0x%x \r\n", ret);
 343:C:/Users/stapi/OneDrive/Desktop/GD32VW553/GD32VW55X_Wifi_BLE_SDK/GD32VW55x_RELEASE_V1.0.2/MSDK/ble/app\app_cmd.c ****     }
 344:C:/Users/stapi/OneDrive/Desktop/GD32VW553/GD32VW55X_Wifi_BLE_SDK/GD32VW55x_RELEASE_V1.0.2/MSDK/ble/app\app_cmd.c **** 
 345:C:/Users/stapi/OneDrive/Desktop/GD32VW553/GD32VW55X_Wifi_BLE_SDK/GD32VW55x_RELEASE_V1.0.2/MSDK/ble/app\app_cmd.c ****     return;
 346:C:/Users/stapi/OneDrive/Desktop/GD32VW553/GD32VW55X_Wifi_BLE_SDK/GD32VW55x_RELEASE_V1.0.2/MSDK/ble/app\app_cmd.c **** 
 347:C:/Users/stapi/OneDrive/Desktop/GD32VW553/GD32VW55X_Wifi_BLE_SDK/GD32VW55x_RELEASE_V1.0.2/MSDK/ble/app\app_cmd.c **** usage:
 348:C:/Users/stapi/OneDrive/Desktop/GD32VW553/GD32VW55X_Wifi_BLE_SDK/GD32VW55x_RELEASE_V1.0.2/MSDK/ble/app\app_cmd.c ****     app_print("Usage: ble_sync_ctrl <sync idx> <report>\r\n");
 349:C:/Users/stapi/OneDrive/Desktop/GD32VW553/GD32VW55X_Wifi_BLE_SDK/GD32VW55x_RELEASE_V1.0.2/MSDK/ble/app\app_cmd.c ****     app_print("<sync idx>: periodic advertising sync index\r\n");
 350:C:/Users/stapi/OneDrive/Desktop/GD32VW553/GD32VW55X_Wifi_BLE_SDK/GD32VW55x_RELEASE_V1.0.2/MSDK/ble/app\app_cmd.c ****     app_print("<report>: control bitfield for periodic advertising report\r\n");
 351:C:/Users/stapi/OneDrive/Desktop/GD32VW553/GD32VW55X_Wifi_BLE_SDK/GD32VW55x_RELEASE_V1.0.2/MSDK/ble/app\app_cmd.c ****     app_print("\tbit 0: report periodic advertising event\r\n");
 352:C:/Users/stapi/OneDrive/Desktop/GD32VW553/GD32VW55X_Wifi_BLE_SDK/GD32VW55x_RELEASE_V1.0.2/MSDK/ble/app\app_cmd.c **** }
 353:C:/Users/stapi/OneDrive/Desktop/GD32VW553/GD32VW55X_Wifi_BLE_SDK/GD32VW55x_RELEASE_V1.0.2/MSDK/ble/app\app_cmd.c **** #endif // (BLE_APP_PER_ADV_SUPPORT)
 354:C:/Users/stapi/OneDrive/Desktop/GD32VW553/GD32VW55X_Wifi_BLE_SDK/GD32VW55x_RELEASE_V1.0.2/MSDK/ble/app\app_cmd.c **** #endif // (BLE_CFG_ROLE & (BLE_CFG_ROLE_OBSERVER | BLE_CFG_ROLE_CENTRAL))
 355:C:/Users/stapi/OneDrive/Desktop/GD32VW553/GD32VW55X_Wifi_BLE_SDK/GD32VW55x_RELEASE_V1.0.2/MSDK/ble/app\app_cmd.c **** 
 356:C:/Users/stapi/OneDrive/Desktop/GD32VW553/GD32VW55X_Wifi_BLE_SDK/GD32VW55x_RELEASE_V1.0.2/MSDK/ble/app\app_cmd.c **** #if (BLE_CFG_ROLE & (BLE_CFG_ROLE_PERIPHERAL | BLE_CFG_ROLE_CENTRAL))
 357:C:/Users/stapi/OneDrive/Desktop/GD32VW553/GD32VW55X_Wifi_BLE_SDK/GD32VW55x_RELEASE_V1.0.2/MSDK/ble/app\app_cmd.c **** #if (BLE_CFG_ROLE & BLE_CFG_ROLE_CENTRAL)
 358:C:/Users/stapi/OneDrive/Desktop/GD32VW553/GD32VW55X_Wifi_BLE_SDK/GD32VW55x_RELEASE_V1.0.2/MSDK/ble/app\app_cmd.c **** #ifndef CONFIG_INTERNAL_DEBUG
 359:C:/Users/stapi/OneDrive/Desktop/GD32VW553/GD32VW55X_Wifi_BLE_SDK/GD32VW55x_RELEASE_V1.0.2/MSDK/ble/app\app_cmd.c **** static void cmd_connect(int argc, char **argv)
 360:C:/Users/stapi/OneDrive/Desktop/GD32VW553/GD32VW55X_Wifi_BLE_SDK/GD32VW55x_RELEASE_V1.0.2/MSDK/ble/app\app_cmd.c **** {
 361:C:/Users/stapi/OneDrive/Desktop/GD32VW553/GD32VW55X_Wifi_BLE_SDK/GD32VW55x_RELEASE_V1.0.2/MSDK/ble/app\app_cmd.c ****     char *endptr = NULL;
 362:C:/Users/stapi/OneDrive/Desktop/GD32VW553/GD32VW55X_Wifi_BLE_SDK/GD32VW55x_RELEASE_V1.0.2/MSDK/ble/app\app_cmd.c ****     uint8_t idx = 0xFF;
 363:C:/Users/stapi/OneDrive/Desktop/GD32VW553/GD32VW55X_Wifi_BLE_SDK/GD32VW55x_RELEASE_V1.0.2/MSDK/ble/app\app_cmd.c ****     dev_info_t *p_dev_info = NULL;
 364:C:/Users/stapi/OneDrive/Desktop/GD32VW553/GD32VW55X_Wifi_BLE_SDK/GD32VW55x_RELEASE_V1.0.2/MSDK/ble/app\app_cmd.c ****     ble_status_t ret;
 365:C:/Users/stapi/OneDrive/Desktop/GD32VW553/GD32VW55X_Wifi_BLE_SDK/GD32VW55x_RELEASE_V1.0.2/MSDK/ble/app\app_cmd.c **** 
 366:C:/Users/stapi/OneDrive/Desktop/GD32VW553/GD32VW55X_Wifi_BLE_SDK/GD32VW55x_RELEASE_V1.0.2/MSDK/ble/app\app_cmd.c ****     if (argc != 2) {
 367:C:/Users/stapi/OneDrive/Desktop/GD32VW553/GD32VW55X_Wifi_BLE_SDK/GD32VW55x_RELEASE_V1.0.2/MSDK/ble/app\app_cmd.c ****         goto usage;
 368:C:/Users/stapi/OneDrive/Desktop/GD32VW553/GD32VW55X_Wifi_BLE_SDK/GD32VW55x_RELEASE_V1.0.2/MSDK/ble/app\app_cmd.c ****     }
 369:C:/Users/stapi/OneDrive/Desktop/GD32VW553/GD32VW55X_Wifi_BLE_SDK/GD32VW55x_RELEASE_V1.0.2/MSDK/ble/app\app_cmd.c **** 
 370:C:/Users/stapi/OneDrive/Desktop/GD32VW553/GD32VW55X_Wifi_BLE_SDK/GD32VW55x_RELEASE_V1.0.2/MSDK/ble/app\app_cmd.c ****     idx = (uint8_t)strtoul((const char *)argv[1], &endptr, 10);
 371:C:/Users/stapi/OneDrive/Desktop/GD32VW553/GD32VW55X_Wifi_BLE_SDK/GD32VW55x_RELEASE_V1.0.2/MSDK/ble/app\app_cmd.c ****     p_dev_info = scan_mgr_find_dev_by_idx(idx);
 372:C:/Users/stapi/OneDrive/Desktop/GD32VW553/GD32VW55X_Wifi_BLE_SDK/GD32VW55x_RELEASE_V1.0.2/MSDK/ble/app\app_cmd.c ****     if (p_dev_info == NULL) {
 373:C:/Users/stapi/OneDrive/Desktop/GD32VW553/GD32VW55X_Wifi_BLE_SDK/GD32VW55x_RELEASE_V1.0.2/MSDK/ble/app\app_cmd.c ****         app_print("fail to find device\r\n");
 374:C:/Users/stapi/OneDrive/Desktop/GD32VW553/GD32VW55X_Wifi_BLE_SDK/GD32VW55x_RELEASE_V1.0.2/MSDK/ble/app\app_cmd.c ****         return;
 375:C:/Users/stapi/OneDrive/Desktop/GD32VW553/GD32VW55X_Wifi_BLE_SDK/GD32VW55x_RELEASE_V1.0.2/MSDK/ble/app\app_cmd.c ****     }
 376:C:/Users/stapi/OneDrive/Desktop/GD32VW553/GD32VW55X_Wifi_BLE_SDK/GD32VW55x_RELEASE_V1.0.2/MSDK/ble/app\app_cmd.c **** 
 377:C:/Users/stapi/OneDrive/Desktop/GD32VW553/GD32VW55X_Wifi_BLE_SDK/GD32VW55x_RELEASE_V1.0.2/MSDK/ble/app\app_cmd.c ****     ret = ble_conn_connect(NULL, BLE_GAP_LOCAL_ADDR_STATIC, &p_dev_info->peer_addr, false);
 378:C:/Users/stapi/OneDrive/Desktop/GD32VW553/GD32VW55X_Wifi_BLE_SDK/GD32VW55x_RELEASE_V1.0.2/MSDK/ble/app\app_cmd.c ****     if ( ret != BLE_ERR_NO_ERROR) {
 379:C:/Users/stapi/OneDrive/Desktop/GD32VW553/GD32VW55X_Wifi_BLE_SDK/GD32VW55x_RELEASE_V1.0.2/MSDK/ble/app\app_cmd.c ****         app_print("connect fail status 0x%x\r\n", ret);
 380:C:/Users/stapi/OneDrive/Desktop/GD32VW553/GD32VW55X_Wifi_BLE_SDK/GD32VW55x_RELEASE_V1.0.2/MSDK/ble/app\app_cmd.c ****     }
 381:C:/Users/stapi/OneDrive/Desktop/GD32VW553/GD32VW55X_Wifi_BLE_SDK/GD32VW55x_RELEASE_V1.0.2/MSDK/ble/app\app_cmd.c **** 
 382:C:/Users/stapi/OneDrive/Desktop/GD32VW553/GD32VW55X_Wifi_BLE_SDK/GD32VW55x_RELEASE_V1.0.2/MSDK/ble/app\app_cmd.c ****     return;
 383:C:/Users/stapi/OneDrive/Desktop/GD32VW553/GD32VW55X_Wifi_BLE_SDK/GD32VW55x_RELEASE_V1.0.2/MSDK/ble/app\app_cmd.c **** 
 384:C:/Users/stapi/OneDrive/Desktop/GD32VW553/GD32VW55X_Wifi_BLE_SDK/GD32VW55x_RELEASE_V1.0.2/MSDK/ble/app\app_cmd.c **** usage:
 385:C:/Users/stapi/OneDrive/Desktop/GD32VW553/GD32VW55X_Wifi_BLE_SDK/GD32VW55x_RELEASE_V1.0.2/MSDK/ble/app\app_cmd.c ****     app_print("Usage: ble_conn <dev idx>\r\n");
 386:C:/Users/stapi/OneDrive/Desktop/GD32VW553/GD32VW55X_Wifi_BLE_SDK/GD32VW55x_RELEASE_V1.0.2/MSDK/ble/app\app_cmd.c ****     app_print("<dev idx>: dev index in scan list\r\n");
 387:C:/Users/stapi/OneDrive/Desktop/GD32VW553/GD32VW55X_Wifi_BLE_SDK/GD32VW55x_RELEASE_V1.0.2/MSDK/ble/app\app_cmd.c **** }
 388:C:/Users/stapi/OneDrive/Desktop/GD32VW553/GD32VW55X_Wifi_BLE_SDK/GD32VW55x_RELEASE_V1.0.2/MSDK/ble/app\app_cmd.c **** #endif // #ifndef CONFIG_INTERNAL_DEBUG
 389:C:/Users/stapi/OneDrive/Desktop/GD32VW553/GD32VW55X_Wifi_BLE_SDK/GD32VW55x_RELEASE_V1.0.2/MSDK/ble/app\app_cmd.c **** 
 390:C:/Users/stapi/OneDrive/Desktop/GD32VW553/GD32VW55X_Wifi_BLE_SDK/GD32VW55x_RELEASE_V1.0.2/MSDK/ble/app\app_cmd.c **** static void cmd_cancel_connect(int argc, char **argv)
 391:C:/Users/stapi/OneDrive/Desktop/GD32VW553/GD32VW55X_Wifi_BLE_SDK/GD32VW55x_RELEASE_V1.0.2/MSDK/ble/app\app_cmd.c **** {
 392:C:/Users/stapi/OneDrive/Desktop/GD32VW553/GD32VW55X_Wifi_BLE_SDK/GD32VW55x_RELEASE_V1.0.2/MSDK/ble/app\app_cmd.c ****     ble_status_t ret;
 393:C:/Users/stapi/OneDrive/Desktop/GD32VW553/GD32VW55X_Wifi_BLE_SDK/GD32VW55x_RELEASE_V1.0.2/MSDK/ble/app\app_cmd.c **** 
 394:C:/Users/stapi/OneDrive/Desktop/GD32VW553/GD32VW55X_Wifi_BLE_SDK/GD32VW55x_RELEASE_V1.0.2/MSDK/ble/app\app_cmd.c ****     ret = ble_conn_connect_cancel();
 395:C:/Users/stapi/OneDrive/Desktop/GD32VW553/GD32VW55X_Wifi_BLE_SDK/GD32VW55x_RELEASE_V1.0.2/MSDK/ble/app\app_cmd.c **** 
 396:C:/Users/stapi/OneDrive/Desktop/GD32VW553/GD32VW55X_Wifi_BLE_SDK/GD32VW55x_RELEASE_V1.0.2/MSDK/ble/app\app_cmd.c ****     if (ret != BLE_ERR_NO_ERROR) {
 397:C:/Users/stapi/OneDrive/Desktop/GD32VW553/GD32VW55X_Wifi_BLE_SDK/GD32VW55x_RELEASE_V1.0.2/MSDK/ble/app\app_cmd.c ****         app_print("cancel connect fail status 0x%x\r\n", ret);
 398:C:/Users/stapi/OneDrive/Desktop/GD32VW553/GD32VW55X_Wifi_BLE_SDK/GD32VW55x_RELEASE_V1.0.2/MSDK/ble/app\app_cmd.c ****     }
 399:C:/Users/stapi/OneDrive/Desktop/GD32VW553/GD32VW55X_Wifi_BLE_SDK/GD32VW55x_RELEASE_V1.0.2/MSDK/ble/app\app_cmd.c **** }
 400:C:/Users/stapi/OneDrive/Desktop/GD32VW553/GD32VW55X_Wifi_BLE_SDK/GD32VW55x_RELEASE_V1.0.2/MSDK/ble/app\app_cmd.c **** #endif
 401:C:/Users/stapi/OneDrive/Desktop/GD32VW553/GD32VW55X_Wifi_BLE_SDK/GD32VW55x_RELEASE_V1.0.2/MSDK/ble/app\app_cmd.c **** 
 402:C:/Users/stapi/OneDrive/Desktop/GD32VW553/GD32VW55X_Wifi_BLE_SDK/GD32VW55x_RELEASE_V1.0.2/MSDK/ble/app\app_cmd.c **** static void cmd_disconnect(int argc, char **argv)
 403:C:/Users/stapi/OneDrive/Desktop/GD32VW553/GD32VW55X_Wifi_BLE_SDK/GD32VW55x_RELEASE_V1.0.2/MSDK/ble/app\app_cmd.c **** {
 404:C:/Users/stapi/OneDrive/Desktop/GD32VW553/GD32VW55X_Wifi_BLE_SDK/GD32VW55x_RELEASE_V1.0.2/MSDK/ble/app\app_cmd.c ****     char *endptr = NULL;
 405:C:/Users/stapi/OneDrive/Desktop/GD32VW553/GD32VW55X_Wifi_BLE_SDK/GD32VW55x_RELEASE_V1.0.2/MSDK/ble/app\app_cmd.c ****     uint8_t idx = 0;
 406:C:/Users/stapi/OneDrive/Desktop/GD32VW553/GD32VW55X_Wifi_BLE_SDK/GD32VW55x_RELEASE_V1.0.2/MSDK/ble/app\app_cmd.c ****     ble_status_t ret;
 407:C:/Users/stapi/OneDrive/Desktop/GD32VW553/GD32VW55X_Wifi_BLE_SDK/GD32VW55x_RELEASE_V1.0.2/MSDK/ble/app\app_cmd.c **** 
 408:C:/Users/stapi/OneDrive/Desktop/GD32VW553/GD32VW55X_Wifi_BLE_SDK/GD32VW55x_RELEASE_V1.0.2/MSDK/ble/app\app_cmd.c ****     if (argc != 2) {
 409:C:/Users/stapi/OneDrive/Desktop/GD32VW553/GD32VW55X_Wifi_BLE_SDK/GD32VW55x_RELEASE_V1.0.2/MSDK/ble/app\app_cmd.c ****         goto usage;
 410:C:/Users/stapi/OneDrive/Desktop/GD32VW553/GD32VW55X_Wifi_BLE_SDK/GD32VW55x_RELEASE_V1.0.2/MSDK/ble/app\app_cmd.c ****     }
 411:C:/Users/stapi/OneDrive/Desktop/GD32VW553/GD32VW55X_Wifi_BLE_SDK/GD32VW55x_RELEASE_V1.0.2/MSDK/ble/app\app_cmd.c **** 
 412:C:/Users/stapi/OneDrive/Desktop/GD32VW553/GD32VW55X_Wifi_BLE_SDK/GD32VW55x_RELEASE_V1.0.2/MSDK/ble/app\app_cmd.c ****     idx = (uint8_t)strtoul((const char *)argv[1], &endptr, 10);
 413:C:/Users/stapi/OneDrive/Desktop/GD32VW553/GD32VW55X_Wifi_BLE_SDK/GD32VW55x_RELEASE_V1.0.2/MSDK/ble/app\app_cmd.c **** 
 414:C:/Users/stapi/OneDrive/Desktop/GD32VW553/GD32VW55X_Wifi_BLE_SDK/GD32VW55x_RELEASE_V1.0.2/MSDK/ble/app\app_cmd.c ****     ret = ble_conn_disconnect(idx, BLE_ERROR_HL_TO_HCI(BLE_LL_ERR_REMOTE_USER_TERM_CON));
 415:C:/Users/stapi/OneDrive/Desktop/GD32VW553/GD32VW55X_Wifi_BLE_SDK/GD32VW55x_RELEASE_V1.0.2/MSDK/ble/app\app_cmd.c ****     if (ret != BLE_ERR_NO_ERROR) {
 416:C:/Users/stapi/OneDrive/Desktop/GD32VW553/GD32VW55X_Wifi_BLE_SDK/GD32VW55x_RELEASE_V1.0.2/MSDK/ble/app\app_cmd.c ****         app_print("disconnect connection fail status 0x%x\r\n", ret);
 417:C:/Users/stapi/OneDrive/Desktop/GD32VW553/GD32VW55X_Wifi_BLE_SDK/GD32VW55x_RELEASE_V1.0.2/MSDK/ble/app\app_cmd.c ****     }
 418:C:/Users/stapi/OneDrive/Desktop/GD32VW553/GD32VW55X_Wifi_BLE_SDK/GD32VW55x_RELEASE_V1.0.2/MSDK/ble/app\app_cmd.c **** 
 419:C:/Users/stapi/OneDrive/Desktop/GD32VW553/GD32VW55X_Wifi_BLE_SDK/GD32VW55x_RELEASE_V1.0.2/MSDK/ble/app\app_cmd.c ****     return;
 420:C:/Users/stapi/OneDrive/Desktop/GD32VW553/GD32VW55X_Wifi_BLE_SDK/GD32VW55x_RELEASE_V1.0.2/MSDK/ble/app\app_cmd.c **** 
 421:C:/Users/stapi/OneDrive/Desktop/GD32VW553/GD32VW55X_Wifi_BLE_SDK/GD32VW55x_RELEASE_V1.0.2/MSDK/ble/app\app_cmd.c **** usage:
 422:C:/Users/stapi/OneDrive/Desktop/GD32VW553/GD32VW55X_Wifi_BLE_SDK/GD32VW55x_RELEASE_V1.0.2/MSDK/ble/app\app_cmd.c ****     app_print("Usage: ble_disconn <conn idx>\r\n");
 423:C:/Users/stapi/OneDrive/Desktop/GD32VW553/GD32VW55X_Wifi_BLE_SDK/GD32VW55x_RELEASE_V1.0.2/MSDK/ble/app\app_cmd.c ****     app_print("<conn idx>: index of connection to disconnect\r\n");
 424:C:/Users/stapi/OneDrive/Desktop/GD32VW553/GD32VW55X_Wifi_BLE_SDK/GD32VW55x_RELEASE_V1.0.2/MSDK/ble/app\app_cmd.c **** }
 425:C:/Users/stapi/OneDrive/Desktop/GD32VW553/GD32VW55X_Wifi_BLE_SDK/GD32VW55x_RELEASE_V1.0.2/MSDK/ble/app\app_cmd.c **** 
 426:C:/Users/stapi/OneDrive/Desktop/GD32VW553/GD32VW55X_Wifi_BLE_SDK/GD32VW55x_RELEASE_V1.0.2/MSDK/ble/app\app_cmd.c **** static void cmd_remove_bond(int argc, char **argv)
 427:C:/Users/stapi/OneDrive/Desktop/GD32VW553/GD32VW55X_Wifi_BLE_SDK/GD32VW55x_RELEASE_V1.0.2/MSDK/ble/app\app_cmd.c **** {
 428:C:/Users/stapi/OneDrive/Desktop/GD32VW553/GD32VW55X_Wifi_BLE_SDK/GD32VW55x_RELEASE_V1.0.2/MSDK/ble/app\app_cmd.c ****     char *endptr = NULL;
 429:C:/Users/stapi/OneDrive/Desktop/GD32VW553/GD32VW55X_Wifi_BLE_SDK/GD32VW55x_RELEASE_V1.0.2/MSDK/ble/app\app_cmd.c ****     uint8_t idx = 0xFF;
 430:C:/Users/stapi/OneDrive/Desktop/GD32VW553/GD32VW55X_Wifi_BLE_SDK/GD32VW55x_RELEASE_V1.0.2/MSDK/ble/app\app_cmd.c ****     ble_device_t *p_dev = NULL;
 431:C:/Users/stapi/OneDrive/Desktop/GD32VW553/GD32VW55X_Wifi_BLE_SDK/GD32VW55x_RELEASE_V1.0.2/MSDK/ble/app\app_cmd.c **** 
 432:C:/Users/stapi/OneDrive/Desktop/GD32VW553/GD32VW55X_Wifi_BLE_SDK/GD32VW55x_RELEASE_V1.0.2/MSDK/ble/app\app_cmd.c ****     if (argc != 2) {
 433:C:/Users/stapi/OneDrive/Desktop/GD32VW553/GD32VW55X_Wifi_BLE_SDK/GD32VW55x_RELEASE_V1.0.2/MSDK/ble/app\app_cmd.c ****         goto usage;
 434:C:/Users/stapi/OneDrive/Desktop/GD32VW553/GD32VW55X_Wifi_BLE_SDK/GD32VW55x_RELEASE_V1.0.2/MSDK/ble/app\app_cmd.c ****     }
 435:C:/Users/stapi/OneDrive/Desktop/GD32VW553/GD32VW55X_Wifi_BLE_SDK/GD32VW55x_RELEASE_V1.0.2/MSDK/ble/app\app_cmd.c **** 
 436:C:/Users/stapi/OneDrive/Desktop/GD32VW553/GD32VW55X_Wifi_BLE_SDK/GD32VW55x_RELEASE_V1.0.2/MSDK/ble/app\app_cmd.c ****     idx = (uint8_t)strtoul((const char *)argv[1], &endptr, 10);
 437:C:/Users/stapi/OneDrive/Desktop/GD32VW553/GD32VW55X_Wifi_BLE_SDK/GD32VW55x_RELEASE_V1.0.2/MSDK/ble/app\app_cmd.c ****     p_dev = dm_find_dev_by_idx(idx);
 438:C:/Users/stapi/OneDrive/Desktop/GD32VW553/GD32VW55X_Wifi_BLE_SDK/GD32VW55x_RELEASE_V1.0.2/MSDK/ble/app\app_cmd.c ****     if (p_dev == NULL) {
 439:C:/Users/stapi/OneDrive/Desktop/GD32VW553/GD32VW55X_Wifi_BLE_SDK/GD32VW55x_RELEASE_V1.0.2/MSDK/ble/app\app_cmd.c ****         app_print("fail to find device\r\n");
 440:C:/Users/stapi/OneDrive/Desktop/GD32VW553/GD32VW55X_Wifi_BLE_SDK/GD32VW55x_RELEASE_V1.0.2/MSDK/ble/app\app_cmd.c ****         return;
 441:C:/Users/stapi/OneDrive/Desktop/GD32VW553/GD32VW55X_Wifi_BLE_SDK/GD32VW55x_RELEASE_V1.0.2/MSDK/ble/app\app_cmd.c ****     }
 442:C:/Users/stapi/OneDrive/Desktop/GD32VW553/GD32VW55X_Wifi_BLE_SDK/GD32VW55x_RELEASE_V1.0.2/MSDK/ble/app\app_cmd.c **** 
 443:C:/Users/stapi/OneDrive/Desktop/GD32VW553/GD32VW55X_Wifi_BLE_SDK/GD32VW55x_RELEASE_V1.0.2/MSDK/ble/app\app_cmd.c ****     if (!app_sec_remove_bond(p_dev->cur_addr)) {
 444:C:/Users/stapi/OneDrive/Desktop/GD32VW553/GD32VW55X_Wifi_BLE_SDK/GD32VW55x_RELEASE_V1.0.2/MSDK/ble/app\app_cmd.c ****         app_print("remove bond fail\r\n");
 445:C:/Users/stapi/OneDrive/Desktop/GD32VW553/GD32VW55X_Wifi_BLE_SDK/GD32VW55x_RELEASE_V1.0.2/MSDK/ble/app\app_cmd.c ****         return;
 446:C:/Users/stapi/OneDrive/Desktop/GD32VW553/GD32VW55X_Wifi_BLE_SDK/GD32VW55x_RELEASE_V1.0.2/MSDK/ble/app\app_cmd.c ****     }
 447:C:/Users/stapi/OneDrive/Desktop/GD32VW553/GD32VW55X_Wifi_BLE_SDK/GD32VW55x_RELEASE_V1.0.2/MSDK/ble/app\app_cmd.c **** 
 448:C:/Users/stapi/OneDrive/Desktop/GD32VW553/GD32VW55X_Wifi_BLE_SDK/GD32VW55x_RELEASE_V1.0.2/MSDK/ble/app\app_cmd.c ****     app_print("remove bond success\r\n");
 449:C:/Users/stapi/OneDrive/Desktop/GD32VW553/GD32VW55X_Wifi_BLE_SDK/GD32VW55x_RELEASE_V1.0.2/MSDK/ble/app\app_cmd.c ****     return;
 450:C:/Users/stapi/OneDrive/Desktop/GD32VW553/GD32VW55X_Wifi_BLE_SDK/GD32VW55x_RELEASE_V1.0.2/MSDK/ble/app\app_cmd.c **** 
 451:C:/Users/stapi/OneDrive/Desktop/GD32VW553/GD32VW55X_Wifi_BLE_SDK/GD32VW55x_RELEASE_V1.0.2/MSDK/ble/app\app_cmd.c **** usage:
 452:C:/Users/stapi/OneDrive/Desktop/GD32VW553/GD32VW55X_Wifi_BLE_SDK/GD32VW55x_RELEASE_V1.0.2/MSDK/ble/app\app_cmd.c ****     app_print("Usage: ble_remove_bond <dev idx>\r\n");
 453:C:/Users/stapi/OneDrive/Desktop/GD32VW553/GD32VW55X_Wifi_BLE_SDK/GD32VW55x_RELEASE_V1.0.2/MSDK/ble/app\app_cmd.c ****     app_print("<dev idx>: device index in bond list which can be get by ble_list_sec_devs command\r
 454:C:/Users/stapi/OneDrive/Desktop/GD32VW553/GD32VW55X_Wifi_BLE_SDK/GD32VW55x_RELEASE_V1.0.2/MSDK/ble/app\app_cmd.c **** }
 455:C:/Users/stapi/OneDrive/Desktop/GD32VW553/GD32VW55X_Wifi_BLE_SDK/GD32VW55x_RELEASE_V1.0.2/MSDK/ble/app\app_cmd.c **** 
 456:C:/Users/stapi/OneDrive/Desktop/GD32VW553/GD32VW55X_Wifi_BLE_SDK/GD32VW55x_RELEASE_V1.0.2/MSDK/ble/app\app_cmd.c **** static void cmd_list_sec_devs(int argc, char **argv)
 457:C:/Users/stapi/OneDrive/Desktop/GD32VW553/GD32VW55X_Wifi_BLE_SDK/GD32VW55x_RELEASE_V1.0.2/MSDK/ble/app\app_cmd.c **** {
 458:C:/Users/stapi/OneDrive/Desktop/GD32VW553/GD32VW55X_Wifi_BLE_SDK/GD32VW55x_RELEASE_V1.0.2/MSDK/ble/app\app_cmd.c ****     dm_list_sec_devices();
 459:C:/Users/stapi/OneDrive/Desktop/GD32VW553/GD32VW55X_Wifi_BLE_SDK/GD32VW55x_RELEASE_V1.0.2/MSDK/ble/app\app_cmd.c **** }
 460:C:/Users/stapi/OneDrive/Desktop/GD32VW553/GD32VW55X_Wifi_BLE_SDK/GD32VW55x_RELEASE_V1.0.2/MSDK/ble/app\app_cmd.c **** 
 461:C:/Users/stapi/OneDrive/Desktop/GD32VW553/GD32VW55X_Wifi_BLE_SDK/GD32VW55x_RELEASE_V1.0.2/MSDK/ble/app\app_cmd.c **** #ifndef CONFIG_INTERNAL_DEBUG
 462:C:/Users/stapi/OneDrive/Desktop/GD32VW553/GD32VW55X_Wifi_BLE_SDK/GD32VW55x_RELEASE_V1.0.2/MSDK/ble/app\app_cmd.c **** static void cmd_set_auth(int argc, char **argv)
 463:C:/Users/stapi/OneDrive/Desktop/GD32VW553/GD32VW55X_Wifi_BLE_SDK/GD32VW55x_RELEASE_V1.0.2/MSDK/ble/app\app_cmd.c **** {
 464:C:/Users/stapi/OneDrive/Desktop/GD32VW553/GD32VW55X_Wifi_BLE_SDK/GD32VW55x_RELEASE_V1.0.2/MSDK/ble/app\app_cmd.c ****     char *endptr = NULL;
 465:C:/Users/stapi/OneDrive/Desktop/GD32VW553/GD32VW55X_Wifi_BLE_SDK/GD32VW55x_RELEASE_V1.0.2/MSDK/ble/app\app_cmd.c ****     bool bond;
 466:C:/Users/stapi/OneDrive/Desktop/GD32VW553/GD32VW55X_Wifi_BLE_SDK/GD32VW55x_RELEASE_V1.0.2/MSDK/ble/app\app_cmd.c ****     bool mitm;
 467:C:/Users/stapi/OneDrive/Desktop/GD32VW553/GD32VW55X_Wifi_BLE_SDK/GD32VW55x_RELEASE_V1.0.2/MSDK/ble/app\app_cmd.c ****     bool sc;
 468:C:/Users/stapi/OneDrive/Desktop/GD32VW553/GD32VW55X_Wifi_BLE_SDK/GD32VW55x_RELEASE_V1.0.2/MSDK/ble/app\app_cmd.c ****     uint8_t iocap;
 469:C:/Users/stapi/OneDrive/Desktop/GD32VW553/GD32VW55X_Wifi_BLE_SDK/GD32VW55x_RELEASE_V1.0.2/MSDK/ble/app\app_cmd.c **** 
 470:C:/Users/stapi/OneDrive/Desktop/GD32VW553/GD32VW55X_Wifi_BLE_SDK/GD32VW55x_RELEASE_V1.0.2/MSDK/ble/app\app_cmd.c ****     if (argc != 5) {
 471:C:/Users/stapi/OneDrive/Desktop/GD32VW553/GD32VW55X_Wifi_BLE_SDK/GD32VW55x_RELEASE_V1.0.2/MSDK/ble/app\app_cmd.c ****         goto usage;
 472:C:/Users/stapi/OneDrive/Desktop/GD32VW553/GD32VW55X_Wifi_BLE_SDK/GD32VW55x_RELEASE_V1.0.2/MSDK/ble/app\app_cmd.c ****     }
 473:C:/Users/stapi/OneDrive/Desktop/GD32VW553/GD32VW55X_Wifi_BLE_SDK/GD32VW55x_RELEASE_V1.0.2/MSDK/ble/app\app_cmd.c **** 
 474:C:/Users/stapi/OneDrive/Desktop/GD32VW553/GD32VW55X_Wifi_BLE_SDK/GD32VW55x_RELEASE_V1.0.2/MSDK/ble/app\app_cmd.c ****     bond  = (bool)strtoul((const char *)argv[1], &endptr, 0);
 475:C:/Users/stapi/OneDrive/Desktop/GD32VW553/GD32VW55X_Wifi_BLE_SDK/GD32VW55x_RELEASE_V1.0.2/MSDK/ble/app\app_cmd.c ****     mitm  = (bool)strtoul((const char *)argv[2], &endptr, 0);
 476:C:/Users/stapi/OneDrive/Desktop/GD32VW553/GD32VW55X_Wifi_BLE_SDK/GD32VW55x_RELEASE_V1.0.2/MSDK/ble/app\app_cmd.c ****     sc    = (bool)strtoul((const char *)argv[3], &endptr, 0);
 477:C:/Users/stapi/OneDrive/Desktop/GD32VW553/GD32VW55X_Wifi_BLE_SDK/GD32VW55x_RELEASE_V1.0.2/MSDK/ble/app\app_cmd.c ****     iocap = (uint8_t)strtoul((const char *)argv[4], &endptr, 0);
 478:C:/Users/stapi/OneDrive/Desktop/GD32VW553/GD32VW55X_Wifi_BLE_SDK/GD32VW55x_RELEASE_V1.0.2/MSDK/ble/app\app_cmd.c **** 
 479:C:/Users/stapi/OneDrive/Desktop/GD32VW553/GD32VW55X_Wifi_BLE_SDK/GD32VW55x_RELEASE_V1.0.2/MSDK/ble/app\app_cmd.c ****     if (iocap > 4) {
 480:C:/Users/stapi/OneDrive/Desktop/GD32VW553/GD32VW55X_Wifi_BLE_SDK/GD32VW55x_RELEASE_V1.0.2/MSDK/ble/app\app_cmd.c ****         goto usage;
 481:C:/Users/stapi/OneDrive/Desktop/GD32VW553/GD32VW55X_Wifi_BLE_SDK/GD32VW55x_RELEASE_V1.0.2/MSDK/ble/app\app_cmd.c ****     }
 482:C:/Users/stapi/OneDrive/Desktop/GD32VW553/GD32VW55X_Wifi_BLE_SDK/GD32VW55x_RELEASE_V1.0.2/MSDK/ble/app\app_cmd.c **** 
 483:C:/Users/stapi/OneDrive/Desktop/GD32VW553/GD32VW55X_Wifi_BLE_SDK/GD32VW55x_RELEASE_V1.0.2/MSDK/ble/app\app_cmd.c ****     app_sec_set_authen(bond, mitm, sc, iocap, false, false, 16);
 484:C:/Users/stapi/OneDrive/Desktop/GD32VW553/GD32VW55X_Wifi_BLE_SDK/GD32VW55x_RELEASE_V1.0.2/MSDK/ble/app\app_cmd.c ****     app_print("ble set auth success.\r\n");
 485:C:/Users/stapi/OneDrive/Desktop/GD32VW553/GD32VW55X_Wifi_BLE_SDK/GD32VW55x_RELEASE_V1.0.2/MSDK/ble/app\app_cmd.c ****     return;
 486:C:/Users/stapi/OneDrive/Desktop/GD32VW553/GD32VW55X_Wifi_BLE_SDK/GD32VW55x_RELEASE_V1.0.2/MSDK/ble/app\app_cmd.c **** 
 487:C:/Users/stapi/OneDrive/Desktop/GD32VW553/GD32VW55X_Wifi_BLE_SDK/GD32VW55x_RELEASE_V1.0.2/MSDK/ble/app\app_cmd.c **** usage:
 488:C:/Users/stapi/OneDrive/Desktop/GD32VW553/GD32VW55X_Wifi_BLE_SDK/GD32VW55x_RELEASE_V1.0.2/MSDK/ble/app\app_cmd.c ****     app_print("Usage: ble_set_auth <bond> <mitm> <sc> <iocap>\r\n");
 489:C:/Users/stapi/OneDrive/Desktop/GD32VW553/GD32VW55X_Wifi_BLE_SDK/GD32VW55x_RELEASE_V1.0.2/MSDK/ble/app\app_cmd.c ****     app_print("<bond>: bonding flag for authentication\r\n");
 490:C:/Users/stapi/OneDrive/Desktop/GD32VW553/GD32VW55X_Wifi_BLE_SDK/GD32VW55x_RELEASE_V1.0.2/MSDK/ble/app\app_cmd.c ****     app_print("\t0x00: no bonding\r\n");
 491:C:/Users/stapi/OneDrive/Desktop/GD32VW553/GD32VW55X_Wifi_BLE_SDK/GD32VW55x_RELEASE_V1.0.2/MSDK/ble/app\app_cmd.c ****     app_print("\t0x01: bonding\r\n");
 492:C:/Users/stapi/OneDrive/Desktop/GD32VW553/GD32VW55X_Wifi_BLE_SDK/GD32VW55x_RELEASE_V1.0.2/MSDK/ble/app\app_cmd.c ****     app_print("<mitm>: mitm flag for authentication\r\n");
 493:C:/Users/stapi/OneDrive/Desktop/GD32VW553/GD32VW55X_Wifi_BLE_SDK/GD32VW55x_RELEASE_V1.0.2/MSDK/ble/app\app_cmd.c ****     app_print("\t0x00: mitm protection not required\r\n");
 494:C:/Users/stapi/OneDrive/Desktop/GD32VW553/GD32VW55X_Wifi_BLE_SDK/GD32VW55x_RELEASE_V1.0.2/MSDK/ble/app\app_cmd.c ****     app_print("\t0x01: mitm protection required\r\n");
 495:C:/Users/stapi/OneDrive/Desktop/GD32VW553/GD32VW55X_Wifi_BLE_SDK/GD32VW55x_RELEASE_V1.0.2/MSDK/ble/app\app_cmd.c ****     app_print("<sc>: secure connections flag for authention\r\n");
 496:C:/Users/stapi/OneDrive/Desktop/GD32VW553/GD32VW55X_Wifi_BLE_SDK/GD32VW55x_RELEASE_V1.0.2/MSDK/ble/app\app_cmd.c ****     app_print("\t0x00: secure connections pairing is not supported\r\n");
 497:C:/Users/stapi/OneDrive/Desktop/GD32VW553/GD32VW55X_Wifi_BLE_SDK/GD32VW55x_RELEASE_V1.0.2/MSDK/ble/app\app_cmd.c ****     app_print("\t0x01: secure connections pairing is supported\r\n");
 498:C:/Users/stapi/OneDrive/Desktop/GD32VW553/GD32VW55X_Wifi_BLE_SDK/GD32VW55x_RELEASE_V1.0.2/MSDK/ble/app\app_cmd.c ****     app_print("<iocap>: io capability to set\r\n");
 499:C:/Users/stapi/OneDrive/Desktop/GD32VW553/GD32VW55X_Wifi_BLE_SDK/GD32VW55x_RELEASE_V1.0.2/MSDK/ble/app\app_cmd.c ****     app_print("\t0x00: display only\r\n");
 500:C:/Users/stapi/OneDrive/Desktop/GD32VW553/GD32VW55X_Wifi_BLE_SDK/GD32VW55x_RELEASE_V1.0.2/MSDK/ble/app\app_cmd.c ****     app_print("\t0x01: display yes no\r\n");
 501:C:/Users/stapi/OneDrive/Desktop/GD32VW553/GD32VW55X_Wifi_BLE_SDK/GD32VW55x_RELEASE_V1.0.2/MSDK/ble/app\app_cmd.c ****     app_print("\t0x02: keyboard only\r\n");
 502:C:/Users/stapi/OneDrive/Desktop/GD32VW553/GD32VW55X_Wifi_BLE_SDK/GD32VW55x_RELEASE_V1.0.2/MSDK/ble/app\app_cmd.c ****     app_print("\t0x03: no input no output\r\n");
 503:C:/Users/stapi/OneDrive/Desktop/GD32VW553/GD32VW55X_Wifi_BLE_SDK/GD32VW55x_RELEASE_V1.0.2/MSDK/ble/app\app_cmd.c ****     app_print("\t0x04: keyboard display\r\n");
 504:C:/Users/stapi/OneDrive/Desktop/GD32VW553/GD32VW55X_Wifi_BLE_SDK/GD32VW55x_RELEASE_V1.0.2/MSDK/ble/app\app_cmd.c **** }
 505:C:/Users/stapi/OneDrive/Desktop/GD32VW553/GD32VW55X_Wifi_BLE_SDK/GD32VW55x_RELEASE_V1.0.2/MSDK/ble/app\app_cmd.c **** #endif // #ifndef CONFIG_INTERNAL_DEBUG
 506:C:/Users/stapi/OneDrive/Desktop/GD32VW553/GD32VW55X_Wifi_BLE_SDK/GD32VW55x_RELEASE_V1.0.2/MSDK/ble/app\app_cmd.c **** 
 507:C:/Users/stapi/OneDrive/Desktop/GD32VW553/GD32VW55X_Wifi_BLE_SDK/GD32VW55x_RELEASE_V1.0.2/MSDK/ble/app\app_cmd.c **** static void cmd_pair(int argc, char **argv)
 508:C:/Users/stapi/OneDrive/Desktop/GD32VW553/GD32VW55X_Wifi_BLE_SDK/GD32VW55x_RELEASE_V1.0.2/MSDK/ble/app\app_cmd.c **** {
 509:C:/Users/stapi/OneDrive/Desktop/GD32VW553/GD32VW55X_Wifi_BLE_SDK/GD32VW55x_RELEASE_V1.0.2/MSDK/ble/app\app_cmd.c ****     char *endptr = NULL;
 510:C:/Users/stapi/OneDrive/Desktop/GD32VW553/GD32VW55X_Wifi_BLE_SDK/GD32VW55x_RELEASE_V1.0.2/MSDK/ble/app\app_cmd.c ****     uint8_t conidx = 0;
 511:C:/Users/stapi/OneDrive/Desktop/GD32VW553/GD32VW55X_Wifi_BLE_SDK/GD32VW55x_RELEASE_V1.0.2/MSDK/ble/app\app_cmd.c ****     ble_device_t *p_device;
 512:C:/Users/stapi/OneDrive/Desktop/GD32VW553/GD32VW55X_Wifi_BLE_SDK/GD32VW55x_RELEASE_V1.0.2/MSDK/ble/app\app_cmd.c **** 
 513:C:/Users/stapi/OneDrive/Desktop/GD32VW553/GD32VW55X_Wifi_BLE_SDK/GD32VW55x_RELEASE_V1.0.2/MSDK/ble/app\app_cmd.c ****     if (argc != 2) {
 514:C:/Users/stapi/OneDrive/Desktop/GD32VW553/GD32VW55X_Wifi_BLE_SDK/GD32VW55x_RELEASE_V1.0.2/MSDK/ble/app\app_cmd.c ****         goto usage;
 515:C:/Users/stapi/OneDrive/Desktop/GD32VW553/GD32VW55X_Wifi_BLE_SDK/GD32VW55x_RELEASE_V1.0.2/MSDK/ble/app\app_cmd.c ****     }
 516:C:/Users/stapi/OneDrive/Desktop/GD32VW553/GD32VW55X_Wifi_BLE_SDK/GD32VW55x_RELEASE_V1.0.2/MSDK/ble/app\app_cmd.c **** 
 517:C:/Users/stapi/OneDrive/Desktop/GD32VW553/GD32VW55X_Wifi_BLE_SDK/GD32VW55x_RELEASE_V1.0.2/MSDK/ble/app\app_cmd.c ****     conidx = (uint8_t)strtoul((const char *)argv[1], &endptr, 0);
 518:C:/Users/stapi/OneDrive/Desktop/GD32VW553/GD32VW55X_Wifi_BLE_SDK/GD32VW55x_RELEASE_V1.0.2/MSDK/ble/app\app_cmd.c ****     p_device = dm_find_dev_by_conidx(conidx);
 519:C:/Users/stapi/OneDrive/Desktop/GD32VW553/GD32VW55X_Wifi_BLE_SDK/GD32VW55x_RELEASE_V1.0.2/MSDK/ble/app\app_cmd.c ****     if (p_device == NULL) {
 520:C:/Users/stapi/OneDrive/Desktop/GD32VW553/GD32VW55X_Wifi_BLE_SDK/GD32VW55x_RELEASE_V1.0.2/MSDK/ble/app\app_cmd.c ****         app_print("fail to find device\r\n");
 521:C:/Users/stapi/OneDrive/Desktop/GD32VW553/GD32VW55X_Wifi_BLE_SDK/GD32VW55x_RELEASE_V1.0.2/MSDK/ble/app\app_cmd.c ****         return;
 522:C:/Users/stapi/OneDrive/Desktop/GD32VW553/GD32VW55X_Wifi_BLE_SDK/GD32VW55x_RELEASE_V1.0.2/MSDK/ble/app\app_cmd.c ****     }
 523:C:/Users/stapi/OneDrive/Desktop/GD32VW553/GD32VW55X_Wifi_BLE_SDK/GD32VW55x_RELEASE_V1.0.2/MSDK/ble/app\app_cmd.c **** 
 524:C:/Users/stapi/OneDrive/Desktop/GD32VW553/GD32VW55X_Wifi_BLE_SDK/GD32VW55x_RELEASE_V1.0.2/MSDK/ble/app\app_cmd.c ****     if (p_device->role == BLE_MASTER) {
 525:C:/Users/stapi/OneDrive/Desktop/GD32VW553/GD32VW55X_Wifi_BLE_SDK/GD32VW55x_RELEASE_V1.0.2/MSDK/ble/app\app_cmd.c ****         app_sec_send_bond_req(conidx);
 526:C:/Users/stapi/OneDrive/Desktop/GD32VW553/GD32VW55X_Wifi_BLE_SDK/GD32VW55x_RELEASE_V1.0.2/MSDK/ble/app\app_cmd.c ****     } else {
 527:C:/Users/stapi/OneDrive/Desktop/GD32VW553/GD32VW55X_Wifi_BLE_SDK/GD32VW55x_RELEASE_V1.0.2/MSDK/ble/app\app_cmd.c ****         app_sec_send_security_req(conidx);
 528:C:/Users/stapi/OneDrive/Desktop/GD32VW553/GD32VW55X_Wifi_BLE_SDK/GD32VW55x_RELEASE_V1.0.2/MSDK/ble/app\app_cmd.c ****     }
 529:C:/Users/stapi/OneDrive/Desktop/GD32VW553/GD32VW55X_Wifi_BLE_SDK/GD32VW55x_RELEASE_V1.0.2/MSDK/ble/app\app_cmd.c **** 
 530:C:/Users/stapi/OneDrive/Desktop/GD32VW553/GD32VW55X_Wifi_BLE_SDK/GD32VW55x_RELEASE_V1.0.2/MSDK/ble/app\app_cmd.c ****     return;
 531:C:/Users/stapi/OneDrive/Desktop/GD32VW553/GD32VW55X_Wifi_BLE_SDK/GD32VW55x_RELEASE_V1.0.2/MSDK/ble/app\app_cmd.c **** 
 532:C:/Users/stapi/OneDrive/Desktop/GD32VW553/GD32VW55X_Wifi_BLE_SDK/GD32VW55x_RELEASE_V1.0.2/MSDK/ble/app\app_cmd.c **** usage:
 533:C:/Users/stapi/OneDrive/Desktop/GD32VW553/GD32VW55X_Wifi_BLE_SDK/GD32VW55x_RELEASE_V1.0.2/MSDK/ble/app\app_cmd.c ****     app_print("Usage: ble_pair <conn idx>\r\n");
 534:C:/Users/stapi/OneDrive/Desktop/GD32VW553/GD32VW55X_Wifi_BLE_SDK/GD32VW55x_RELEASE_V1.0.2/MSDK/ble/app\app_cmd.c ****     app_print("<conn idx>: index of the connection to pair\r\n");
 535:C:/Users/stapi/OneDrive/Desktop/GD32VW553/GD32VW55X_Wifi_BLE_SDK/GD32VW55x_RELEASE_V1.0.2/MSDK/ble/app\app_cmd.c **** }
 536:C:/Users/stapi/OneDrive/Desktop/GD32VW553/GD32VW55X_Wifi_BLE_SDK/GD32VW55x_RELEASE_V1.0.2/MSDK/ble/app\app_cmd.c **** 
 537:C:/Users/stapi/OneDrive/Desktop/GD32VW553/GD32VW55X_Wifi_BLE_SDK/GD32VW55x_RELEASE_V1.0.2/MSDK/ble/app\app_cmd.c **** static void cmd_encrypt(int argc, char **argv)
 538:C:/Users/stapi/OneDrive/Desktop/GD32VW553/GD32VW55X_Wifi_BLE_SDK/GD32VW55x_RELEASE_V1.0.2/MSDK/ble/app\app_cmd.c **** {
 539:C:/Users/stapi/OneDrive/Desktop/GD32VW553/GD32VW55X_Wifi_BLE_SDK/GD32VW55x_RELEASE_V1.0.2/MSDK/ble/app\app_cmd.c ****     char *endptr = NULL;
 540:C:/Users/stapi/OneDrive/Desktop/GD32VW553/GD32VW55X_Wifi_BLE_SDK/GD32VW55x_RELEASE_V1.0.2/MSDK/ble/app\app_cmd.c ****     uint8_t conidx = 0;
 541:C:/Users/stapi/OneDrive/Desktop/GD32VW553/GD32VW55X_Wifi_BLE_SDK/GD32VW55x_RELEASE_V1.0.2/MSDK/ble/app\app_cmd.c **** 
 542:C:/Users/stapi/OneDrive/Desktop/GD32VW553/GD32VW55X_Wifi_BLE_SDK/GD32VW55x_RELEASE_V1.0.2/MSDK/ble/app\app_cmd.c ****     if (argc != 2) {
 543:C:/Users/stapi/OneDrive/Desktop/GD32VW553/GD32VW55X_Wifi_BLE_SDK/GD32VW55x_RELEASE_V1.0.2/MSDK/ble/app\app_cmd.c ****         goto usage;
 544:C:/Users/stapi/OneDrive/Desktop/GD32VW553/GD32VW55X_Wifi_BLE_SDK/GD32VW55x_RELEASE_V1.0.2/MSDK/ble/app\app_cmd.c ****     }
 545:C:/Users/stapi/OneDrive/Desktop/GD32VW553/GD32VW55X_Wifi_BLE_SDK/GD32VW55x_RELEASE_V1.0.2/MSDK/ble/app\app_cmd.c **** 
 546:C:/Users/stapi/OneDrive/Desktop/GD32VW553/GD32VW55X_Wifi_BLE_SDK/GD32VW55x_RELEASE_V1.0.2/MSDK/ble/app\app_cmd.c ****     conidx = (uint8_t)strtoul((const char *)argv[1], &endptr, 0);
 547:C:/Users/stapi/OneDrive/Desktop/GD32VW553/GD32VW55X_Wifi_BLE_SDK/GD32VW55x_RELEASE_V1.0.2/MSDK/ble/app\app_cmd.c ****     app_sec_send_encrypt_req(conidx);
 548:C:/Users/stapi/OneDrive/Desktop/GD32VW553/GD32VW55X_Wifi_BLE_SDK/GD32VW55x_RELEASE_V1.0.2/MSDK/ble/app\app_cmd.c **** 
 549:C:/Users/stapi/OneDrive/Desktop/GD32VW553/GD32VW55X_Wifi_BLE_SDK/GD32VW55x_RELEASE_V1.0.2/MSDK/ble/app\app_cmd.c ****     return;
 550:C:/Users/stapi/OneDrive/Desktop/GD32VW553/GD32VW55X_Wifi_BLE_SDK/GD32VW55x_RELEASE_V1.0.2/MSDK/ble/app\app_cmd.c **** 
 551:C:/Users/stapi/OneDrive/Desktop/GD32VW553/GD32VW55X_Wifi_BLE_SDK/GD32VW55x_RELEASE_V1.0.2/MSDK/ble/app\app_cmd.c **** usage:
 552:C:/Users/stapi/OneDrive/Desktop/GD32VW553/GD32VW55X_Wifi_BLE_SDK/GD32VW55x_RELEASE_V1.0.2/MSDK/ble/app\app_cmd.c ****     app_print("Usage: ble_encrypt <conn idx>\r\n");
 553:C:/Users/stapi/OneDrive/Desktop/GD32VW553/GD32VW55X_Wifi_BLE_SDK/GD32VW55x_RELEASE_V1.0.2/MSDK/ble/app\app_cmd.c ****     app_print("<conn idx>: index of the connection to start encryption\r\n");
 554:C:/Users/stapi/OneDrive/Desktop/GD32VW553/GD32VW55X_Wifi_BLE_SDK/GD32VW55x_RELEASE_V1.0.2/MSDK/ble/app\app_cmd.c **** }
 555:C:/Users/stapi/OneDrive/Desktop/GD32VW553/GD32VW55X_Wifi_BLE_SDK/GD32VW55x_RELEASE_V1.0.2/MSDK/ble/app\app_cmd.c **** 
 556:C:/Users/stapi/OneDrive/Desktop/GD32VW553/GD32VW55X_Wifi_BLE_SDK/GD32VW55x_RELEASE_V1.0.2/MSDK/ble/app\app_cmd.c **** static void cmd_passkey(int argc, char **argv)
 557:C:/Users/stapi/OneDrive/Desktop/GD32VW553/GD32VW55X_Wifi_BLE_SDK/GD32VW55x_RELEASE_V1.0.2/MSDK/ble/app\app_cmd.c **** {
 558:C:/Users/stapi/OneDrive/Desktop/GD32VW553/GD32VW55X_Wifi_BLE_SDK/GD32VW55x_RELEASE_V1.0.2/MSDK/ble/app\app_cmd.c ****     char *endptr = NULL;
 559:C:/Users/stapi/OneDrive/Desktop/GD32VW553/GD32VW55X_Wifi_BLE_SDK/GD32VW55x_RELEASE_V1.0.2/MSDK/ble/app\app_cmd.c ****     uint8_t conidx = 0;
 560:C:/Users/stapi/OneDrive/Desktop/GD32VW553/GD32VW55X_Wifi_BLE_SDK/GD32VW55x_RELEASE_V1.0.2/MSDK/ble/app\app_cmd.c ****     uint32_t passkey;
 561:C:/Users/stapi/OneDrive/Desktop/GD32VW553/GD32VW55X_Wifi_BLE_SDK/GD32VW55x_RELEASE_V1.0.2/MSDK/ble/app\app_cmd.c **** 
 562:C:/Users/stapi/OneDrive/Desktop/GD32VW553/GD32VW55X_Wifi_BLE_SDK/GD32VW55x_RELEASE_V1.0.2/MSDK/ble/app\app_cmd.c ****     if (argc != 3) {
 563:C:/Users/stapi/OneDrive/Desktop/GD32VW553/GD32VW55X_Wifi_BLE_SDK/GD32VW55x_RELEASE_V1.0.2/MSDK/ble/app\app_cmd.c ****         goto usage;
 564:C:/Users/stapi/OneDrive/Desktop/GD32VW553/GD32VW55X_Wifi_BLE_SDK/GD32VW55x_RELEASE_V1.0.2/MSDK/ble/app\app_cmd.c ****     }
 565:C:/Users/stapi/OneDrive/Desktop/GD32VW553/GD32VW55X_Wifi_BLE_SDK/GD32VW55x_RELEASE_V1.0.2/MSDK/ble/app\app_cmd.c **** 
 566:C:/Users/stapi/OneDrive/Desktop/GD32VW553/GD32VW55X_Wifi_BLE_SDK/GD32VW55x_RELEASE_V1.0.2/MSDK/ble/app\app_cmd.c ****     conidx = (uint8_t)strtoul((const char *)argv[1], &endptr, 0);
 567:C:/Users/stapi/OneDrive/Desktop/GD32VW553/GD32VW55X_Wifi_BLE_SDK/GD32VW55x_RELEASE_V1.0.2/MSDK/ble/app\app_cmd.c ****     passkey = (uint32_t)strtoul((const char *)argv[2], &endptr, 0);
 568:C:/Users/stapi/OneDrive/Desktop/GD32VW553/GD32VW55X_Wifi_BLE_SDK/GD32VW55x_RELEASE_V1.0.2/MSDK/ble/app\app_cmd.c **** 
 569:C:/Users/stapi/OneDrive/Desktop/GD32VW553/GD32VW55X_Wifi_BLE_SDK/GD32VW55x_RELEASE_V1.0.2/MSDK/ble/app\app_cmd.c ****     if (passkey > 999999) {
 570:C:/Users/stapi/OneDrive/Desktop/GD32VW553/GD32VW55X_Wifi_BLE_SDK/GD32VW55x_RELEASE_V1.0.2/MSDK/ble/app\app_cmd.c ****         goto usage;
 571:C:/Users/stapi/OneDrive/Desktop/GD32VW553/GD32VW55X_Wifi_BLE_SDK/GD32VW55x_RELEASE_V1.0.2/MSDK/ble/app\app_cmd.c ****     }
 572:C:/Users/stapi/OneDrive/Desktop/GD32VW553/GD32VW55X_Wifi_BLE_SDK/GD32VW55x_RELEASE_V1.0.2/MSDK/ble/app\app_cmd.c **** 
 573:C:/Users/stapi/OneDrive/Desktop/GD32VW553/GD32VW55X_Wifi_BLE_SDK/GD32VW55x_RELEASE_V1.0.2/MSDK/ble/app\app_cmd.c ****     app_sec_input_passkey(conidx, passkey);
 574:C:/Users/stapi/OneDrive/Desktop/GD32VW553/GD32VW55X_Wifi_BLE_SDK/GD32VW55x_RELEASE_V1.0.2/MSDK/ble/app\app_cmd.c **** 
 575:C:/Users/stapi/OneDrive/Desktop/GD32VW553/GD32VW55X_Wifi_BLE_SDK/GD32VW55x_RELEASE_V1.0.2/MSDK/ble/app\app_cmd.c ****     return;
 576:C:/Users/stapi/OneDrive/Desktop/GD32VW553/GD32VW55X_Wifi_BLE_SDK/GD32VW55x_RELEASE_V1.0.2/MSDK/ble/app\app_cmd.c **** 
 577:C:/Users/stapi/OneDrive/Desktop/GD32VW553/GD32VW55X_Wifi_BLE_SDK/GD32VW55x_RELEASE_V1.0.2/MSDK/ble/app\app_cmd.c **** usage:
 578:C:/Users/stapi/OneDrive/Desktop/GD32VW553/GD32VW55X_Wifi_BLE_SDK/GD32VW55x_RELEASE_V1.0.2/MSDK/ble/app\app_cmd.c ****     app_print("Usage: ble_passkey <conn idx> <passkey>\r\n");
 579:C:/Users/stapi/OneDrive/Desktop/GD32VW553/GD32VW55X_Wifi_BLE_SDK/GD32VW55x_RELEASE_V1.0.2/MSDK/ble/app\app_cmd.c ****     app_print("<conn idx>: index of connection to input passkey\r\n");
 580:C:/Users/stapi/OneDrive/Desktop/GD32VW553/GD32VW55X_Wifi_BLE_SDK/GD32VW55x_RELEASE_V1.0.2/MSDK/ble/app\app_cmd.c ****     app_print("<passkey>: passkey value to input, should be 6-digit value between 000000 and 999999
 581:C:/Users/stapi/OneDrive/Desktop/GD32VW553/GD32VW55X_Wifi_BLE_SDK/GD32VW55x_RELEASE_V1.0.2/MSDK/ble/app\app_cmd.c **** }
 582:C:/Users/stapi/OneDrive/Desktop/GD32VW553/GD32VW55X_Wifi_BLE_SDK/GD32VW55x_RELEASE_V1.0.2/MSDK/ble/app\app_cmd.c **** 
 583:C:/Users/stapi/OneDrive/Desktop/GD32VW553/GD32VW55X_Wifi_BLE_SDK/GD32VW55x_RELEASE_V1.0.2/MSDK/ble/app\app_cmd.c **** static void cmd_compare(int argc, char **argv)
 584:C:/Users/stapi/OneDrive/Desktop/GD32VW553/GD32VW55X_Wifi_BLE_SDK/GD32VW55x_RELEASE_V1.0.2/MSDK/ble/app\app_cmd.c **** {
 585:C:/Users/stapi/OneDrive/Desktop/GD32VW553/GD32VW55X_Wifi_BLE_SDK/GD32VW55x_RELEASE_V1.0.2/MSDK/ble/app\app_cmd.c ****     char *endptr = NULL;
 586:C:/Users/stapi/OneDrive/Desktop/GD32VW553/GD32VW55X_Wifi_BLE_SDK/GD32VW55x_RELEASE_V1.0.2/MSDK/ble/app\app_cmd.c ****     bool value;
 587:C:/Users/stapi/OneDrive/Desktop/GD32VW553/GD32VW55X_Wifi_BLE_SDK/GD32VW55x_RELEASE_V1.0.2/MSDK/ble/app\app_cmd.c ****     uint8_t conidx = 0;
 588:C:/Users/stapi/OneDrive/Desktop/GD32VW553/GD32VW55X_Wifi_BLE_SDK/GD32VW55x_RELEASE_V1.0.2/MSDK/ble/app\app_cmd.c **** 
 589:C:/Users/stapi/OneDrive/Desktop/GD32VW553/GD32VW55X_Wifi_BLE_SDK/GD32VW55x_RELEASE_V1.0.2/MSDK/ble/app\app_cmd.c ****     if (argc != 3) {
 590:C:/Users/stapi/OneDrive/Desktop/GD32VW553/GD32VW55X_Wifi_BLE_SDK/GD32VW55x_RELEASE_V1.0.2/MSDK/ble/app\app_cmd.c ****         goto usage;
 591:C:/Users/stapi/OneDrive/Desktop/GD32VW553/GD32VW55X_Wifi_BLE_SDK/GD32VW55x_RELEASE_V1.0.2/MSDK/ble/app\app_cmd.c ****     }
 592:C:/Users/stapi/OneDrive/Desktop/GD32VW553/GD32VW55X_Wifi_BLE_SDK/GD32VW55x_RELEASE_V1.0.2/MSDK/ble/app\app_cmd.c **** 
 593:C:/Users/stapi/OneDrive/Desktop/GD32VW553/GD32VW55X_Wifi_BLE_SDK/GD32VW55x_RELEASE_V1.0.2/MSDK/ble/app\app_cmd.c ****     conidx = (uint8_t)strtoul((const char *)argv[1], &endptr, 0);
 594:C:/Users/stapi/OneDrive/Desktop/GD32VW553/GD32VW55X_Wifi_BLE_SDK/GD32VW55x_RELEASE_V1.0.2/MSDK/ble/app\app_cmd.c ****     value = (bool)strtoul((const char *)argv[2], &endptr, 0);
 595:C:/Users/stapi/OneDrive/Desktop/GD32VW553/GD32VW55X_Wifi_BLE_SDK/GD32VW55x_RELEASE_V1.0.2/MSDK/ble/app\app_cmd.c ****     app_sec_num_compare(conidx, value);
 596:C:/Users/stapi/OneDrive/Desktop/GD32VW553/GD32VW55X_Wifi_BLE_SDK/GD32VW55x_RELEASE_V1.0.2/MSDK/ble/app\app_cmd.c **** 
 597:C:/Users/stapi/OneDrive/Desktop/GD32VW553/GD32VW55X_Wifi_BLE_SDK/GD32VW55x_RELEASE_V1.0.2/MSDK/ble/app\app_cmd.c ****     return;
 598:C:/Users/stapi/OneDrive/Desktop/GD32VW553/GD32VW55X_Wifi_BLE_SDK/GD32VW55x_RELEASE_V1.0.2/MSDK/ble/app\app_cmd.c **** 
 599:C:/Users/stapi/OneDrive/Desktop/GD32VW553/GD32VW55X_Wifi_BLE_SDK/GD32VW55x_RELEASE_V1.0.2/MSDK/ble/app\app_cmd.c **** usage:
 600:C:/Users/stapi/OneDrive/Desktop/GD32VW553/GD32VW55X_Wifi_BLE_SDK/GD32VW55x_RELEASE_V1.0.2/MSDK/ble/app\app_cmd.c ****     app_print("Usage: ble_compare <conn idx> <result>\r\n");
 601:C:/Users/stapi/OneDrive/Desktop/GD32VW553/GD32VW55X_Wifi_BLE_SDK/GD32VW55x_RELEASE_V1.0.2/MSDK/ble/app\app_cmd.c ****     app_print("<conn idx> index of connection\r\n");
 602:C:/Users/stapi/OneDrive/Desktop/GD32VW553/GD32VW55X_Wifi_BLE_SDK/GD32VW55x_RELEASE_V1.0.2/MSDK/ble/app\app_cmd.c ****     app_print("<result>: numeric comparison result, 0 for fail and 1 for success\r\n");
 603:C:/Users/stapi/OneDrive/Desktop/GD32VW553/GD32VW55X_Wifi_BLE_SDK/GD32VW55x_RELEASE_V1.0.2/MSDK/ble/app\app_cmd.c **** }
 604:C:/Users/stapi/OneDrive/Desktop/GD32VW553/GD32VW55X_Wifi_BLE_SDK/GD32VW55x_RELEASE_V1.0.2/MSDK/ble/app\app_cmd.c **** 
 605:C:/Users/stapi/OneDrive/Desktop/GD32VW553/GD32VW55X_Wifi_BLE_SDK/GD32VW55x_RELEASE_V1.0.2/MSDK/ble/app\app_cmd.c **** static void cmd_ble_peer_feat(int argc, char **argv)
 606:C:/Users/stapi/OneDrive/Desktop/GD32VW553/GD32VW55X_Wifi_BLE_SDK/GD32VW55x_RELEASE_V1.0.2/MSDK/ble/app\app_cmd.c **** {
 607:C:/Users/stapi/OneDrive/Desktop/GD32VW553/GD32VW55X_Wifi_BLE_SDK/GD32VW55x_RELEASE_V1.0.2/MSDK/ble/app\app_cmd.c ****     uint8_t idx = 0;
 608:C:/Users/stapi/OneDrive/Desktop/GD32VW553/GD32VW55X_Wifi_BLE_SDK/GD32VW55x_RELEASE_V1.0.2/MSDK/ble/app\app_cmd.c ****     char *endptr = NULL;
 609:C:/Users/stapi/OneDrive/Desktop/GD32VW553/GD32VW55X_Wifi_BLE_SDK/GD32VW55x_RELEASE_V1.0.2/MSDK/ble/app\app_cmd.c ****     ble_status_t ret;
 610:C:/Users/stapi/OneDrive/Desktop/GD32VW553/GD32VW55X_Wifi_BLE_SDK/GD32VW55x_RELEASE_V1.0.2/MSDK/ble/app\app_cmd.c **** 
 611:C:/Users/stapi/OneDrive/Desktop/GD32VW553/GD32VW55X_Wifi_BLE_SDK/GD32VW55x_RELEASE_V1.0.2/MSDK/ble/app\app_cmd.c ****     if (argc != 2) {
 612:C:/Users/stapi/OneDrive/Desktop/GD32VW553/GD32VW55X_Wifi_BLE_SDK/GD32VW55x_RELEASE_V1.0.2/MSDK/ble/app\app_cmd.c ****         goto usage;
 613:C:/Users/stapi/OneDrive/Desktop/GD32VW553/GD32VW55X_Wifi_BLE_SDK/GD32VW55x_RELEASE_V1.0.2/MSDK/ble/app\app_cmd.c ****     }
 614:C:/Users/stapi/OneDrive/Desktop/GD32VW553/GD32VW55X_Wifi_BLE_SDK/GD32VW55x_RELEASE_V1.0.2/MSDK/ble/app\app_cmd.c **** 
 615:C:/Users/stapi/OneDrive/Desktop/GD32VW553/GD32VW55X_Wifi_BLE_SDK/GD32VW55x_RELEASE_V1.0.2/MSDK/ble/app\app_cmd.c ****     idx = (uint8_t)strtoul((const char *)argv[1], &endptr, 0);
 616:C:/Users/stapi/OneDrive/Desktop/GD32VW553/GD32VW55X_Wifi_BLE_SDK/GD32VW55x_RELEASE_V1.0.2/MSDK/ble/app\app_cmd.c ****     ret = ble_conn_peer_feats_get(idx);
 617:C:/Users/stapi/OneDrive/Desktop/GD32VW553/GD32VW55X_Wifi_BLE_SDK/GD32VW55x_RELEASE_V1.0.2/MSDK/ble/app\app_cmd.c ****     if (ret != BLE_ERR_NO_ERROR) {
 618:C:/Users/stapi/OneDrive/Desktop/GD32VW553/GD32VW55X_Wifi_BLE_SDK/GD32VW55x_RELEASE_V1.0.2/MSDK/ble/app\app_cmd.c ****         app_print("get peer features fail status 0x%x\r\n", ret);
 619:C:/Users/stapi/OneDrive/Desktop/GD32VW553/GD32VW55X_Wifi_BLE_SDK/GD32VW55x_RELEASE_V1.0.2/MSDK/ble/app\app_cmd.c ****     }
 620:C:/Users/stapi/OneDrive/Desktop/GD32VW553/GD32VW55X_Wifi_BLE_SDK/GD32VW55x_RELEASE_V1.0.2/MSDK/ble/app\app_cmd.c **** 
 621:C:/Users/stapi/OneDrive/Desktop/GD32VW553/GD32VW55X_Wifi_BLE_SDK/GD32VW55x_RELEASE_V1.0.2/MSDK/ble/app\app_cmd.c ****     return;
 622:C:/Users/stapi/OneDrive/Desktop/GD32VW553/GD32VW55X_Wifi_BLE_SDK/GD32VW55x_RELEASE_V1.0.2/MSDK/ble/app\app_cmd.c **** 
 623:C:/Users/stapi/OneDrive/Desktop/GD32VW553/GD32VW55X_Wifi_BLE_SDK/GD32VW55x_RELEASE_V1.0.2/MSDK/ble/app\app_cmd.c **** usage:
 624:C:/Users/stapi/OneDrive/Desktop/GD32VW553/GD32VW55X_Wifi_BLE_SDK/GD32VW55x_RELEASE_V1.0.2/MSDK/ble/app\app_cmd.c ****     app_print("Usage: ble_peer_feat <conn idx>\r\n");
 625:C:/Users/stapi/OneDrive/Desktop/GD32VW553/GD32VW55X_Wifi_BLE_SDK/GD32VW55x_RELEASE_V1.0.2/MSDK/ble/app\app_cmd.c ****     app_print("<conn idx>: index of connection\r\n");
 626:C:/Users/stapi/OneDrive/Desktop/GD32VW553/GD32VW55X_Wifi_BLE_SDK/GD32VW55x_RELEASE_V1.0.2/MSDK/ble/app\app_cmd.c **** }
 627:C:/Users/stapi/OneDrive/Desktop/GD32VW553/GD32VW55X_Wifi_BLE_SDK/GD32VW55x_RELEASE_V1.0.2/MSDK/ble/app\app_cmd.c **** 
 628:C:/Users/stapi/OneDrive/Desktop/GD32VW553/GD32VW55X_Wifi_BLE_SDK/GD32VW55x_RELEASE_V1.0.2/MSDK/ble/app\app_cmd.c **** static void cmd_ble_peer_ver(int argc, char **argv)
 629:C:/Users/stapi/OneDrive/Desktop/GD32VW553/GD32VW55X_Wifi_BLE_SDK/GD32VW55x_RELEASE_V1.0.2/MSDK/ble/app\app_cmd.c **** {
 630:C:/Users/stapi/OneDrive/Desktop/GD32VW553/GD32VW55X_Wifi_BLE_SDK/GD32VW55x_RELEASE_V1.0.2/MSDK/ble/app\app_cmd.c ****     uint8_t idx = 0;
 631:C:/Users/stapi/OneDrive/Desktop/GD32VW553/GD32VW55X_Wifi_BLE_SDK/GD32VW55x_RELEASE_V1.0.2/MSDK/ble/app\app_cmd.c ****     char *endptr = NULL;
 632:C:/Users/stapi/OneDrive/Desktop/GD32VW553/GD32VW55X_Wifi_BLE_SDK/GD32VW55x_RELEASE_V1.0.2/MSDK/ble/app\app_cmd.c ****     ble_status_t ret;
 633:C:/Users/stapi/OneDrive/Desktop/GD32VW553/GD32VW55X_Wifi_BLE_SDK/GD32VW55x_RELEASE_V1.0.2/MSDK/ble/app\app_cmd.c **** 
 634:C:/Users/stapi/OneDrive/Desktop/GD32VW553/GD32VW55X_Wifi_BLE_SDK/GD32VW55x_RELEASE_V1.0.2/MSDK/ble/app\app_cmd.c ****     if (argc != 2) {
 635:C:/Users/stapi/OneDrive/Desktop/GD32VW553/GD32VW55X_Wifi_BLE_SDK/GD32VW55x_RELEASE_V1.0.2/MSDK/ble/app\app_cmd.c ****         goto usage;
 636:C:/Users/stapi/OneDrive/Desktop/GD32VW553/GD32VW55X_Wifi_BLE_SDK/GD32VW55x_RELEASE_V1.0.2/MSDK/ble/app\app_cmd.c ****     }
 637:C:/Users/stapi/OneDrive/Desktop/GD32VW553/GD32VW55X_Wifi_BLE_SDK/GD32VW55x_RELEASE_V1.0.2/MSDK/ble/app\app_cmd.c **** 
 638:C:/Users/stapi/OneDrive/Desktop/GD32VW553/GD32VW55X_Wifi_BLE_SDK/GD32VW55x_RELEASE_V1.0.2/MSDK/ble/app\app_cmd.c ****     idx = (uint8_t)strtoul((const char *)argv[1], &endptr, 0);
 639:C:/Users/stapi/OneDrive/Desktop/GD32VW553/GD32VW55X_Wifi_BLE_SDK/GD32VW55x_RELEASE_V1.0.2/MSDK/ble/app\app_cmd.c ****     ret = ble_conn_peer_version_get(idx);
 640:C:/Users/stapi/OneDrive/Desktop/GD32VW553/GD32VW55X_Wifi_BLE_SDK/GD32VW55x_RELEASE_V1.0.2/MSDK/ble/app\app_cmd.c ****     if (ret != BLE_ERR_NO_ERROR) {
 641:C:/Users/stapi/OneDrive/Desktop/GD32VW553/GD32VW55X_Wifi_BLE_SDK/GD32VW55x_RELEASE_V1.0.2/MSDK/ble/app\app_cmd.c ****         app_print("get peer version fail status 0x%x\r\n", ret);
 642:C:/Users/stapi/OneDrive/Desktop/GD32VW553/GD32VW55X_Wifi_BLE_SDK/GD32VW55x_RELEASE_V1.0.2/MSDK/ble/app\app_cmd.c ****     }
 643:C:/Users/stapi/OneDrive/Desktop/GD32VW553/GD32VW55X_Wifi_BLE_SDK/GD32VW55x_RELEASE_V1.0.2/MSDK/ble/app\app_cmd.c **** 
 644:C:/Users/stapi/OneDrive/Desktop/GD32VW553/GD32VW55X_Wifi_BLE_SDK/GD32VW55x_RELEASE_V1.0.2/MSDK/ble/app\app_cmd.c ****     return;
 645:C:/Users/stapi/OneDrive/Desktop/GD32VW553/GD32VW55X_Wifi_BLE_SDK/GD32VW55x_RELEASE_V1.0.2/MSDK/ble/app\app_cmd.c **** 
 646:C:/Users/stapi/OneDrive/Desktop/GD32VW553/GD32VW55X_Wifi_BLE_SDK/GD32VW55x_RELEASE_V1.0.2/MSDK/ble/app\app_cmd.c **** usage:
 647:C:/Users/stapi/OneDrive/Desktop/GD32VW553/GD32VW55X_Wifi_BLE_SDK/GD32VW55x_RELEASE_V1.0.2/MSDK/ble/app\app_cmd.c ****     app_print("Usage: ble_peer_ver <conn idx>\r\n");
 648:C:/Users/stapi/OneDrive/Desktop/GD32VW553/GD32VW55X_Wifi_BLE_SDK/GD32VW55x_RELEASE_V1.0.2/MSDK/ble/app\app_cmd.c ****     app_print("<conn idx>: index of connection\r\n");
 649:C:/Users/stapi/OneDrive/Desktop/GD32VW553/GD32VW55X_Wifi_BLE_SDK/GD32VW55x_RELEASE_V1.0.2/MSDK/ble/app\app_cmd.c **** }
 650:C:/Users/stapi/OneDrive/Desktop/GD32VW553/GD32VW55X_Wifi_BLE_SDK/GD32VW55x_RELEASE_V1.0.2/MSDK/ble/app\app_cmd.c **** 
 651:C:/Users/stapi/OneDrive/Desktop/GD32VW553/GD32VW55X_Wifi_BLE_SDK/GD32VW55x_RELEASE_V1.0.2/MSDK/ble/app\app_cmd.c **** static void cmd_ble_param_update(int argc, char **argv)
 652:C:/Users/stapi/OneDrive/Desktop/GD32VW553/GD32VW55X_Wifi_BLE_SDK/GD32VW55x_RELEASE_V1.0.2/MSDK/ble/app\app_cmd.c **** {
 653:C:/Users/stapi/OneDrive/Desktop/GD32VW553/GD32VW55X_Wifi_BLE_SDK/GD32VW55x_RELEASE_V1.0.2/MSDK/ble/app\app_cmd.c ****     char *endptr = NULL;
 654:C:/Users/stapi/OneDrive/Desktop/GD32VW553/GD32VW55X_Wifi_BLE_SDK/GD32VW55x_RELEASE_V1.0.2/MSDK/ble/app\app_cmd.c ****     uint16_t interval;
 655:C:/Users/stapi/OneDrive/Desktop/GD32VW553/GD32VW55X_Wifi_BLE_SDK/GD32VW55x_RELEASE_V1.0.2/MSDK/ble/app\app_cmd.c ****     uint16_t latency;
 656:C:/Users/stapi/OneDrive/Desktop/GD32VW553/GD32VW55X_Wifi_BLE_SDK/GD32VW55x_RELEASE_V1.0.2/MSDK/ble/app\app_cmd.c ****     uint16_t supv_to;
 657:C:/Users/stapi/OneDrive/Desktop/GD32VW553/GD32VW55X_Wifi_BLE_SDK/GD32VW55x_RELEASE_V1.0.2/MSDK/ble/app\app_cmd.c ****     uint16_t ce_len;
 658:C:/Users/stapi/OneDrive/Desktop/GD32VW553/GD32VW55X_Wifi_BLE_SDK/GD32VW55x_RELEASE_V1.0.2/MSDK/ble/app\app_cmd.c ****     uint8_t idx;
 659:C:/Users/stapi/OneDrive/Desktop/GD32VW553/GD32VW55X_Wifi_BLE_SDK/GD32VW55x_RELEASE_V1.0.2/MSDK/ble/app\app_cmd.c ****     ble_status_t ret;
 660:C:/Users/stapi/OneDrive/Desktop/GD32VW553/GD32VW55X_Wifi_BLE_SDK/GD32VW55x_RELEASE_V1.0.2/MSDK/ble/app\app_cmd.c **** 
 661:C:/Users/stapi/OneDrive/Desktop/GD32VW553/GD32VW55X_Wifi_BLE_SDK/GD32VW55x_RELEASE_V1.0.2/MSDK/ble/app\app_cmd.c ****     if (argc != 6) {
 662:C:/Users/stapi/OneDrive/Desktop/GD32VW553/GD32VW55X_Wifi_BLE_SDK/GD32VW55x_RELEASE_V1.0.2/MSDK/ble/app\app_cmd.c ****         goto usage;
 663:C:/Users/stapi/OneDrive/Desktop/GD32VW553/GD32VW55X_Wifi_BLE_SDK/GD32VW55x_RELEASE_V1.0.2/MSDK/ble/app\app_cmd.c ****     }
 664:C:/Users/stapi/OneDrive/Desktop/GD32VW553/GD32VW55X_Wifi_BLE_SDK/GD32VW55x_RELEASE_V1.0.2/MSDK/ble/app\app_cmd.c **** 
 665:C:/Users/stapi/OneDrive/Desktop/GD32VW553/GD32VW55X_Wifi_BLE_SDK/GD32VW55x_RELEASE_V1.0.2/MSDK/ble/app\app_cmd.c ****     idx = (uint8_t)strtoul((const char *)argv[1], &endptr, 10);
 666:C:/Users/stapi/OneDrive/Desktop/GD32VW553/GD32VW55X_Wifi_BLE_SDK/GD32VW55x_RELEASE_V1.0.2/MSDK/ble/app\app_cmd.c ****     interval = (uint16_t)strtoul((const char *)argv[2], &endptr, 16);
 667:C:/Users/stapi/OneDrive/Desktop/GD32VW553/GD32VW55X_Wifi_BLE_SDK/GD32VW55x_RELEASE_V1.0.2/MSDK/ble/app\app_cmd.c ****     latency  = (uint16_t)strtoul((const char *)argv[3], &endptr, 16);
 668:C:/Users/stapi/OneDrive/Desktop/GD32VW553/GD32VW55X_Wifi_BLE_SDK/GD32VW55x_RELEASE_V1.0.2/MSDK/ble/app\app_cmd.c ****     supv_to  = (uint16_t)strtoul((const char *)argv[4], &endptr, 16);
 669:C:/Users/stapi/OneDrive/Desktop/GD32VW553/GD32VW55X_Wifi_BLE_SDK/GD32VW55x_RELEASE_V1.0.2/MSDK/ble/app\app_cmd.c ****     ce_len   = (uint16_t)strtoul((const char *)argv[5], &endptr, 16);
 670:C:/Users/stapi/OneDrive/Desktop/GD32VW553/GD32VW55X_Wifi_BLE_SDK/GD32VW55x_RELEASE_V1.0.2/MSDK/ble/app\app_cmd.c **** 
 671:C:/Users/stapi/OneDrive/Desktop/GD32VW553/GD32VW55X_Wifi_BLE_SDK/GD32VW55x_RELEASE_V1.0.2/MSDK/ble/app\app_cmd.c ****     ret = ble_conn_param_update_req(idx, interval, interval, latency, supv_to, ce_len, ce_len);
 672:C:/Users/stapi/OneDrive/Desktop/GD32VW553/GD32VW55X_Wifi_BLE_SDK/GD32VW55x_RELEASE_V1.0.2/MSDK/ble/app\app_cmd.c ****     if (ret != BLE_ERR_NO_ERROR) {
 673:C:/Users/stapi/OneDrive/Desktop/GD32VW553/GD32VW55X_Wifi_BLE_SDK/GD32VW55x_RELEASE_V1.0.2/MSDK/ble/app\app_cmd.c ****         app_print("update param fail status 0x%x\r\n", ret);
 674:C:/Users/stapi/OneDrive/Desktop/GD32VW553/GD32VW55X_Wifi_BLE_SDK/GD32VW55x_RELEASE_V1.0.2/MSDK/ble/app\app_cmd.c ****     }
 675:C:/Users/stapi/OneDrive/Desktop/GD32VW553/GD32VW55X_Wifi_BLE_SDK/GD32VW55x_RELEASE_V1.0.2/MSDK/ble/app\app_cmd.c **** 
 676:C:/Users/stapi/OneDrive/Desktop/GD32VW553/GD32VW55X_Wifi_BLE_SDK/GD32VW55x_RELEASE_V1.0.2/MSDK/ble/app\app_cmd.c ****     return;
 677:C:/Users/stapi/OneDrive/Desktop/GD32VW553/GD32VW55X_Wifi_BLE_SDK/GD32VW55x_RELEASE_V1.0.2/MSDK/ble/app\app_cmd.c **** 
 678:C:/Users/stapi/OneDrive/Desktop/GD32VW553/GD32VW55X_Wifi_BLE_SDK/GD32VW55x_RELEASE_V1.0.2/MSDK/ble/app\app_cmd.c **** usage:
 679:C:/Users/stapi/OneDrive/Desktop/GD32VW553/GD32VW55X_Wifi_BLE_SDK/GD32VW55x_RELEASE_V1.0.2/MSDK/ble/app\app_cmd.c ****     app_print("Usage: ble_param_update <conn idx> <interval> <latency> <supv tout> <ce len>\r\n");
 680:C:/Users/stapi/OneDrive/Desktop/GD32VW553/GD32VW55X_Wifi_BLE_SDK/GD32VW55x_RELEASE_V1.0.2/MSDK/ble/app\app_cmd.c ****     app_print("<conn idx>: index of connection\r\n");
 681:C:/Users/stapi/OneDrive/Desktop/GD32VW553/GD32VW55X_Wifi_BLE_SDK/GD32VW55x_RELEASE_V1.0.2/MSDK/ble/app\app_cmd.c ****     app_print("<interval>: connection interval in unit of 1.25ms, range from 0x0006 to 0x0C80 in he
 682:C:/Users/stapi/OneDrive/Desktop/GD32VW553/GD32VW55X_Wifi_BLE_SDK/GD32VW55x_RELEASE_V1.0.2/MSDK/ble/app\app_cmd.c ****     app_print("<latency>: connection latency to update in hex value\r\n");
 683:C:/Users/stapi/OneDrive/Desktop/GD32VW553/GD32VW55X_Wifi_BLE_SDK/GD32VW55x_RELEASE_V1.0.2/MSDK/ble/app\app_cmd.c ****     app_print("<supv tout>: supervision timeout in unit of 10ms, range from 0x000A to 0x0C80 in hex
 684:C:/Users/stapi/OneDrive/Desktop/GD32VW553/GD32VW55X_Wifi_BLE_SDK/GD32VW55x_RELEASE_V1.0.2/MSDK/ble/app\app_cmd.c ****     app_print("<ce len>: connection event length in unit of 0.625 ms in hex value\r\n");
 685:C:/Users/stapi/OneDrive/Desktop/GD32VW553/GD32VW55X_Wifi_BLE_SDK/GD32VW55x_RELEASE_V1.0.2/MSDK/ble/app\app_cmd.c **** }
 686:C:/Users/stapi/OneDrive/Desktop/GD32VW553/GD32VW55X_Wifi_BLE_SDK/GD32VW55x_RELEASE_V1.0.2/MSDK/ble/app\app_cmd.c **** 
 687:C:/Users/stapi/OneDrive/Desktop/GD32VW553/GD32VW55X_Wifi_BLE_SDK/GD32VW55x_RELEASE_V1.0.2/MSDK/ble/app\app_cmd.c **** static void cmd_get_rssi(int argc, char **argv)
 688:C:/Users/stapi/OneDrive/Desktop/GD32VW553/GD32VW55X_Wifi_BLE_SDK/GD32VW55x_RELEASE_V1.0.2/MSDK/ble/app\app_cmd.c **** {
 689:C:/Users/stapi/OneDrive/Desktop/GD32VW553/GD32VW55X_Wifi_BLE_SDK/GD32VW55x_RELEASE_V1.0.2/MSDK/ble/app\app_cmd.c ****     char *endptr = NULL;
 690:C:/Users/stapi/OneDrive/Desktop/GD32VW553/GD32VW55X_Wifi_BLE_SDK/GD32VW55x_RELEASE_V1.0.2/MSDK/ble/app\app_cmd.c ****     uint8_t conidx;
 691:C:/Users/stapi/OneDrive/Desktop/GD32VW553/GD32VW55X_Wifi_BLE_SDK/GD32VW55x_RELEASE_V1.0.2/MSDK/ble/app\app_cmd.c ****     ble_status_t ret;
 692:C:/Users/stapi/OneDrive/Desktop/GD32VW553/GD32VW55X_Wifi_BLE_SDK/GD32VW55x_RELEASE_V1.0.2/MSDK/ble/app\app_cmd.c **** 
 693:C:/Users/stapi/OneDrive/Desktop/GD32VW553/GD32VW55X_Wifi_BLE_SDK/GD32VW55x_RELEASE_V1.0.2/MSDK/ble/app\app_cmd.c ****     if (argc != 2) {
 694:C:/Users/stapi/OneDrive/Desktop/GD32VW553/GD32VW55X_Wifi_BLE_SDK/GD32VW55x_RELEASE_V1.0.2/MSDK/ble/app\app_cmd.c ****         goto usage;
 695:C:/Users/stapi/OneDrive/Desktop/GD32VW553/GD32VW55X_Wifi_BLE_SDK/GD32VW55x_RELEASE_V1.0.2/MSDK/ble/app\app_cmd.c ****     }
 696:C:/Users/stapi/OneDrive/Desktop/GD32VW553/GD32VW55X_Wifi_BLE_SDK/GD32VW55x_RELEASE_V1.0.2/MSDK/ble/app\app_cmd.c **** 
 697:C:/Users/stapi/OneDrive/Desktop/GD32VW553/GD32VW55X_Wifi_BLE_SDK/GD32VW55x_RELEASE_V1.0.2/MSDK/ble/app\app_cmd.c ****     conidx = (uint8_t)strtoul((const char *)argv[1], &endptr, 0);
 698:C:/Users/stapi/OneDrive/Desktop/GD32VW553/GD32VW55X_Wifi_BLE_SDK/GD32VW55x_RELEASE_V1.0.2/MSDK/ble/app\app_cmd.c ****     ret = ble_conn_rssi_get(conidx);
 699:C:/Users/stapi/OneDrive/Desktop/GD32VW553/GD32VW55X_Wifi_BLE_SDK/GD32VW55x_RELEASE_V1.0.2/MSDK/ble/app\app_cmd.c ****     if (ret != BLE_ERR_NO_ERROR) {
 700:C:/Users/stapi/OneDrive/Desktop/GD32VW553/GD32VW55X_Wifi_BLE_SDK/GD32VW55x_RELEASE_V1.0.2/MSDK/ble/app\app_cmd.c ****         app_print("get rssi fail status 0x%x\r\n", ret);
 701:C:/Users/stapi/OneDrive/Desktop/GD32VW553/GD32VW55X_Wifi_BLE_SDK/GD32VW55x_RELEASE_V1.0.2/MSDK/ble/app\app_cmd.c ****     }
 702:C:/Users/stapi/OneDrive/Desktop/GD32VW553/GD32VW55X_Wifi_BLE_SDK/GD32VW55x_RELEASE_V1.0.2/MSDK/ble/app\app_cmd.c **** 
 703:C:/Users/stapi/OneDrive/Desktop/GD32VW553/GD32VW55X_Wifi_BLE_SDK/GD32VW55x_RELEASE_V1.0.2/MSDK/ble/app\app_cmd.c ****     return;
 704:C:/Users/stapi/OneDrive/Desktop/GD32VW553/GD32VW55X_Wifi_BLE_SDK/GD32VW55x_RELEASE_V1.0.2/MSDK/ble/app\app_cmd.c **** 
 705:C:/Users/stapi/OneDrive/Desktop/GD32VW553/GD32VW55X_Wifi_BLE_SDK/GD32VW55x_RELEASE_V1.0.2/MSDK/ble/app\app_cmd.c **** usage:
 706:C:/Users/stapi/OneDrive/Desktop/GD32VW553/GD32VW55X_Wifi_BLE_SDK/GD32VW55x_RELEASE_V1.0.2/MSDK/ble/app\app_cmd.c ****     app_print("Usage: ble_get_rssi <conn idx>\r\n");
 707:C:/Users/stapi/OneDrive/Desktop/GD32VW553/GD32VW55X_Wifi_BLE_SDK/GD32VW55x_RELEASE_V1.0.2/MSDK/ble/app\app_cmd.c ****     app_print("<conn idx>: index of connection\r\n");
 708:C:/Users/stapi/OneDrive/Desktop/GD32VW553/GD32VW55X_Wifi_BLE_SDK/GD32VW55x_RELEASE_V1.0.2/MSDK/ble/app\app_cmd.c **** 
 709:C:/Users/stapi/OneDrive/Desktop/GD32VW553/GD32VW55X_Wifi_BLE_SDK/GD32VW55x_RELEASE_V1.0.2/MSDK/ble/app\app_cmd.c **** }
 710:C:/Users/stapi/OneDrive/Desktop/GD32VW553/GD32VW55X_Wifi_BLE_SDK/GD32VW55x_RELEASE_V1.0.2/MSDK/ble/app\app_cmd.c **** 
 711:C:/Users/stapi/OneDrive/Desktop/GD32VW553/GD32VW55X_Wifi_BLE_SDK/GD32VW55x_RELEASE_V1.0.2/MSDK/ble/app\app_cmd.c **** static void cmd_set_dev_name(int argc, char **argv)
 712:C:/Users/stapi/OneDrive/Desktop/GD32VW553/GD32VW55X_Wifi_BLE_SDK/GD32VW55x_RELEASE_V1.0.2/MSDK/ble/app\app_cmd.c **** {
 713:C:/Users/stapi/OneDrive/Desktop/GD32VW553/GD32VW55X_Wifi_BLE_SDK/GD32VW55x_RELEASE_V1.0.2/MSDK/ble/app\app_cmd.c ****     //uint8_t i;
 714:C:/Users/stapi/OneDrive/Desktop/GD32VW553/GD32VW55X_Wifi_BLE_SDK/GD32VW55x_RELEASE_V1.0.2/MSDK/ble/app\app_cmd.c ****     if (argc != 2) {
 715:C:/Users/stapi/OneDrive/Desktop/GD32VW553/GD32VW55X_Wifi_BLE_SDK/GD32VW55x_RELEASE_V1.0.2/MSDK/ble/app\app_cmd.c ****         goto usage;
 716:C:/Users/stapi/OneDrive/Desktop/GD32VW553/GD32VW55X_Wifi_BLE_SDK/GD32VW55x_RELEASE_V1.0.2/MSDK/ble/app\app_cmd.c ****     }
 717:C:/Users/stapi/OneDrive/Desktop/GD32VW553/GD32VW55X_Wifi_BLE_SDK/GD32VW55x_RELEASE_V1.0.2/MSDK/ble/app\app_cmd.c **** 
 718:C:/Users/stapi/OneDrive/Desktop/GD32VW553/GD32VW55X_Wifi_BLE_SDK/GD32VW55x_RELEASE_V1.0.2/MSDK/ble/app\app_cmd.c ****     if (!app_adp_set_name(argv[1], strlen(argv[1]))) {
 719:C:/Users/stapi/OneDrive/Desktop/GD32VW553/GD32VW55X_Wifi_BLE_SDK/GD32VW55x_RELEASE_V1.0.2/MSDK/ble/app\app_cmd.c ****         app_print("set device name fail\r\n");
 720:C:/Users/stapi/OneDrive/Desktop/GD32VW553/GD32VW55X_Wifi_BLE_SDK/GD32VW55x_RELEASE_V1.0.2/MSDK/ble/app\app_cmd.c ****         return;
 721:C:/Users/stapi/OneDrive/Desktop/GD32VW553/GD32VW55X_Wifi_BLE_SDK/GD32VW55x_RELEASE_V1.0.2/MSDK/ble/app\app_cmd.c ****     }
 722:C:/Users/stapi/OneDrive/Desktop/GD32VW553/GD32VW55X_Wifi_BLE_SDK/GD32VW55x_RELEASE_V1.0.2/MSDK/ble/app\app_cmd.c **** 
 723:C:/Users/stapi/OneDrive/Desktop/GD32VW553/GD32VW55X_Wifi_BLE_SDK/GD32VW55x_RELEASE_V1.0.2/MSDK/ble/app\app_cmd.c ****     app_adv_data_update_all();
 724:C:/Users/stapi/OneDrive/Desktop/GD32VW553/GD32VW55X_Wifi_BLE_SDK/GD32VW55x_RELEASE_V1.0.2/MSDK/ble/app\app_cmd.c ****     app_print("set device name to %s\r\n", argv[1]);
 725:C:/Users/stapi/OneDrive/Desktop/GD32VW553/GD32VW55X_Wifi_BLE_SDK/GD32VW55x_RELEASE_V1.0.2/MSDK/ble/app\app_cmd.c **** 
 726:C:/Users/stapi/OneDrive/Desktop/GD32VW553/GD32VW55X_Wifi_BLE_SDK/GD32VW55x_RELEASE_V1.0.2/MSDK/ble/app\app_cmd.c ****     return;
 727:C:/Users/stapi/OneDrive/Desktop/GD32VW553/GD32VW55X_Wifi_BLE_SDK/GD32VW55x_RELEASE_V1.0.2/MSDK/ble/app\app_cmd.c **** 
 728:C:/Users/stapi/OneDrive/Desktop/GD32VW553/GD32VW55X_Wifi_BLE_SDK/GD32VW55x_RELEASE_V1.0.2/MSDK/ble/app\app_cmd.c **** usage:
 729:C:/Users/stapi/OneDrive/Desktop/GD32VW553/GD32VW55X_Wifi_BLE_SDK/GD32VW55x_RELEASE_V1.0.2/MSDK/ble/app\app_cmd.c ****     app_print("Usage: ble_set_dev_name <device name>\r\n");
 730:C:/Users/stapi/OneDrive/Desktop/GD32VW553/GD32VW55X_Wifi_BLE_SDK/GD32VW55x_RELEASE_V1.0.2/MSDK/ble/app\app_cmd.c ****     app_print("<device name>: ble device name\r\n");
 731:C:/Users/stapi/OneDrive/Desktop/GD32VW553/GD32VW55X_Wifi_BLE_SDK/GD32VW55x_RELEASE_V1.0.2/MSDK/ble/app\app_cmd.c **** 
 732:C:/Users/stapi/OneDrive/Desktop/GD32VW553/GD32VW55X_Wifi_BLE_SDK/GD32VW55x_RELEASE_V1.0.2/MSDK/ble/app\app_cmd.c **** }
 733:C:/Users/stapi/OneDrive/Desktop/GD32VW553/GD32VW55X_Wifi_BLE_SDK/GD32VW55x_RELEASE_V1.0.2/MSDK/ble/app\app_cmd.c **** 
 734:C:/Users/stapi/OneDrive/Desktop/GD32VW553/GD32VW55X_Wifi_BLE_SDK/GD32VW55x_RELEASE_V1.0.2/MSDK/ble/app\app_cmd.c **** #if (BLE_APP_PHY_UPDATE_SUPPORT)
 735:C:/Users/stapi/OneDrive/Desktop/GD32VW553/GD32VW55X_Wifi_BLE_SDK/GD32VW55x_RELEASE_V1.0.2/MSDK/ble/app\app_cmd.c **** static void cmd_set_phy(int argc, char **argv)
 736:C:/Users/stapi/OneDrive/Desktop/GD32VW553/GD32VW55X_Wifi_BLE_SDK/GD32VW55x_RELEASE_V1.0.2/MSDK/ble/app\app_cmd.c **** {
 737:C:/Users/stapi/OneDrive/Desktop/GD32VW553/GD32VW55X_Wifi_BLE_SDK/GD32VW55x_RELEASE_V1.0.2/MSDK/ble/app\app_cmd.c ****     char *endptr = NULL;
 738:C:/Users/stapi/OneDrive/Desktop/GD32VW553/GD32VW55X_Wifi_BLE_SDK/GD32VW55x_RELEASE_V1.0.2/MSDK/ble/app\app_cmd.c ****     uint8_t tx_phy;
 739:C:/Users/stapi/OneDrive/Desktop/GD32VW553/GD32VW55X_Wifi_BLE_SDK/GD32VW55x_RELEASE_V1.0.2/MSDK/ble/app\app_cmd.c ****     uint8_t rx_phy;
 740:C:/Users/stapi/OneDrive/Desktop/GD32VW553/GD32VW55X_Wifi_BLE_SDK/GD32VW55x_RELEASE_V1.0.2/MSDK/ble/app\app_cmd.c ****     uint8_t phy_opt;
 741:C:/Users/stapi/OneDrive/Desktop/GD32VW553/GD32VW55X_Wifi_BLE_SDK/GD32VW55x_RELEASE_V1.0.2/MSDK/ble/app\app_cmd.c ****     uint8_t conidx;
 742:C:/Users/stapi/OneDrive/Desktop/GD32VW553/GD32VW55X_Wifi_BLE_SDK/GD32VW55x_RELEASE_V1.0.2/MSDK/ble/app\app_cmd.c ****     ble_status_t ret;
 743:C:/Users/stapi/OneDrive/Desktop/GD32VW553/GD32VW55X_Wifi_BLE_SDK/GD32VW55x_RELEASE_V1.0.2/MSDK/ble/app\app_cmd.c **** 
 744:C:/Users/stapi/OneDrive/Desktop/GD32VW553/GD32VW55X_Wifi_BLE_SDK/GD32VW55x_RELEASE_V1.0.2/MSDK/ble/app\app_cmd.c ****     if (argc != 5) {
 745:C:/Users/stapi/OneDrive/Desktop/GD32VW553/GD32VW55X_Wifi_BLE_SDK/GD32VW55x_RELEASE_V1.0.2/MSDK/ble/app\app_cmd.c ****         goto usage;
 746:C:/Users/stapi/OneDrive/Desktop/GD32VW553/GD32VW55X_Wifi_BLE_SDK/GD32VW55x_RELEASE_V1.0.2/MSDK/ble/app\app_cmd.c ****     }
 747:C:/Users/stapi/OneDrive/Desktop/GD32VW553/GD32VW55X_Wifi_BLE_SDK/GD32VW55x_RELEASE_V1.0.2/MSDK/ble/app\app_cmd.c **** 
 748:C:/Users/stapi/OneDrive/Desktop/GD32VW553/GD32VW55X_Wifi_BLE_SDK/GD32VW55x_RELEASE_V1.0.2/MSDK/ble/app\app_cmd.c ****     conidx = (uint8_t)strtoul((const char *)argv[1], &endptr, 0);
 749:C:/Users/stapi/OneDrive/Desktop/GD32VW553/GD32VW55X_Wifi_BLE_SDK/GD32VW55x_RELEASE_V1.0.2/MSDK/ble/app\app_cmd.c ****     tx_phy = (uint8_t)strtoul((const char *)argv[2], &endptr, 0);
 750:C:/Users/stapi/OneDrive/Desktop/GD32VW553/GD32VW55X_Wifi_BLE_SDK/GD32VW55x_RELEASE_V1.0.2/MSDK/ble/app\app_cmd.c ****     rx_phy = (uint8_t)strtoul((const char *)argv[3], &endptr, 0);
 751:C:/Users/stapi/OneDrive/Desktop/GD32VW553/GD32VW55X_Wifi_BLE_SDK/GD32VW55x_RELEASE_V1.0.2/MSDK/ble/app\app_cmd.c ****     phy_opt = (uint8_t)strtoul((const char *)argv[4], &endptr, 0);
 752:C:/Users/stapi/OneDrive/Desktop/GD32VW553/GD32VW55X_Wifi_BLE_SDK/GD32VW55x_RELEASE_V1.0.2/MSDK/ble/app\app_cmd.c **** 
 753:C:/Users/stapi/OneDrive/Desktop/GD32VW553/GD32VW55X_Wifi_BLE_SDK/GD32VW55x_RELEASE_V1.0.2/MSDK/ble/app\app_cmd.c ****     ret = ble_conn_phy_set(conidx, tx_phy, rx_phy, phy_opt);
 754:C:/Users/stapi/OneDrive/Desktop/GD32VW553/GD32VW55X_Wifi_BLE_SDK/GD32VW55x_RELEASE_V1.0.2/MSDK/ble/app\app_cmd.c ****     if (ret != BLE_ERR_NO_ERROR) {
 755:C:/Users/stapi/OneDrive/Desktop/GD32VW553/GD32VW55X_Wifi_BLE_SDK/GD32VW55x_RELEASE_V1.0.2/MSDK/ble/app\app_cmd.c ****         app_print("set phy fail status 0x%x\r\n", ret);
 756:C:/Users/stapi/OneDrive/Desktop/GD32VW553/GD32VW55X_Wifi_BLE_SDK/GD32VW55x_RELEASE_V1.0.2/MSDK/ble/app\app_cmd.c ****     }
 757:C:/Users/stapi/OneDrive/Desktop/GD32VW553/GD32VW55X_Wifi_BLE_SDK/GD32VW55x_RELEASE_V1.0.2/MSDK/ble/app\app_cmd.c **** 
 758:C:/Users/stapi/OneDrive/Desktop/GD32VW553/GD32VW55X_Wifi_BLE_SDK/GD32VW55x_RELEASE_V1.0.2/MSDK/ble/app\app_cmd.c ****     return;
 759:C:/Users/stapi/OneDrive/Desktop/GD32VW553/GD32VW55X_Wifi_BLE_SDK/GD32VW55x_RELEASE_V1.0.2/MSDK/ble/app\app_cmd.c **** 
 760:C:/Users/stapi/OneDrive/Desktop/GD32VW553/GD32VW55X_Wifi_BLE_SDK/GD32VW55x_RELEASE_V1.0.2/MSDK/ble/app\app_cmd.c **** usage:
 761:C:/Users/stapi/OneDrive/Desktop/GD32VW553/GD32VW55X_Wifi_BLE_SDK/GD32VW55x_RELEASE_V1.0.2/MSDK/ble/app\app_cmd.c ****     app_print("Usage: ble_set_phy <conn idx> <tx phy> <rx phy> <phy opt>\r\n");
 762:C:/Users/stapi/OneDrive/Desktop/GD32VW553/GD32VW55X_Wifi_BLE_SDK/GD32VW55x_RELEASE_V1.0.2/MSDK/ble/app\app_cmd.c ****     app_print("<conn idx>: index of connection\r\n");
 763:C:/Users/stapi/OneDrive/Desktop/GD32VW553/GD32VW55X_Wifi_BLE_SDK/GD32VW55x_RELEASE_V1.0.2/MSDK/ble/app\app_cmd.c ****     app_print("<tx phy>: transmit phy to set\r\n");
 764:C:/Users/stapi/OneDrive/Desktop/GD32VW553/GD32VW55X_Wifi_BLE_SDK/GD32VW55x_RELEASE_V1.0.2/MSDK/ble/app\app_cmd.c ****     app_print("\tbit 0: 1M phy, bit 1: 2M phy, bit 2: coded phy\r\n");
 765:C:/Users/stapi/OneDrive/Desktop/GD32VW553/GD32VW55X_Wifi_BLE_SDK/GD32VW55x_RELEASE_V1.0.2/MSDK/ble/app\app_cmd.c ****     app_print("<rx phy>: receive phy to set\r\n");
 766:C:/Users/stapi/OneDrive/Desktop/GD32VW553/GD32VW55X_Wifi_BLE_SDK/GD32VW55x_RELEASE_V1.0.2/MSDK/ble/app\app_cmd.c ****     app_print("\tbit 0: 1M phy, bit 1: 2M phy, bit 2: coded phy\r\n");
 767:C:/Users/stapi/OneDrive/Desktop/GD32VW553/GD32VW55X_Wifi_BLE_SDK/GD32VW55x_RELEASE_V1.0.2/MSDK/ble/app\app_cmd.c ****     app_print("<phy opt>: phy options for coded phy\r\n");
 768:C:/Users/stapi/OneDrive/Desktop/GD32VW553/GD32VW55X_Wifi_BLE_SDK/GD32VW55x_RELEASE_V1.0.2/MSDK/ble/app\app_cmd.c ****     app_print("\t0x00: no prefer coding\r\n");
 769:C:/Users/stapi/OneDrive/Desktop/GD32VW553/GD32VW55X_Wifi_BLE_SDK/GD32VW55x_RELEASE_V1.0.2/MSDK/ble/app\app_cmd.c ****     app_print("\t0x01: prefer S=2 coding be used\r\n");
 770:C:/Users/stapi/OneDrive/Desktop/GD32VW553/GD32VW55X_Wifi_BLE_SDK/GD32VW55x_RELEASE_V1.0.2/MSDK/ble/app\app_cmd.c ****     app_print("\t0x02: prefer S=8 coding be used\r\n");
 771:C:/Users/stapi/OneDrive/Desktop/GD32VW553/GD32VW55X_Wifi_BLE_SDK/GD32VW55x_RELEASE_V1.0.2/MSDK/ble/app\app_cmd.c **** }
 772:C:/Users/stapi/OneDrive/Desktop/GD32VW553/GD32VW55X_Wifi_BLE_SDK/GD32VW55x_RELEASE_V1.0.2/MSDK/ble/app\app_cmd.c **** 
 773:C:/Users/stapi/OneDrive/Desktop/GD32VW553/GD32VW55X_Wifi_BLE_SDK/GD32VW55x_RELEASE_V1.0.2/MSDK/ble/app\app_cmd.c **** static void cmd_get_phy(int argc, char **argv)
 774:C:/Users/stapi/OneDrive/Desktop/GD32VW553/GD32VW55X_Wifi_BLE_SDK/GD32VW55x_RELEASE_V1.0.2/MSDK/ble/app\app_cmd.c **** {
 775:C:/Users/stapi/OneDrive/Desktop/GD32VW553/GD32VW55X_Wifi_BLE_SDK/GD32VW55x_RELEASE_V1.0.2/MSDK/ble/app\app_cmd.c ****     char *endptr = NULL;
 776:C:/Users/stapi/OneDrive/Desktop/GD32VW553/GD32VW55X_Wifi_BLE_SDK/GD32VW55x_RELEASE_V1.0.2/MSDK/ble/app\app_cmd.c ****     uint8_t conidx;
 777:C:/Users/stapi/OneDrive/Desktop/GD32VW553/GD32VW55X_Wifi_BLE_SDK/GD32VW55x_RELEASE_V1.0.2/MSDK/ble/app\app_cmd.c ****     ble_status_t ret;
 778:C:/Users/stapi/OneDrive/Desktop/GD32VW553/GD32VW55X_Wifi_BLE_SDK/GD32VW55x_RELEASE_V1.0.2/MSDK/ble/app\app_cmd.c **** 
 779:C:/Users/stapi/OneDrive/Desktop/GD32VW553/GD32VW55X_Wifi_BLE_SDK/GD32VW55x_RELEASE_V1.0.2/MSDK/ble/app\app_cmd.c ****     if (argc != 2) {
 780:C:/Users/stapi/OneDrive/Desktop/GD32VW553/GD32VW55X_Wifi_BLE_SDK/GD32VW55x_RELEASE_V1.0.2/MSDK/ble/app\app_cmd.c ****         goto usage;
 781:C:/Users/stapi/OneDrive/Desktop/GD32VW553/GD32VW55X_Wifi_BLE_SDK/GD32VW55x_RELEASE_V1.0.2/MSDK/ble/app\app_cmd.c ****     }
 782:C:/Users/stapi/OneDrive/Desktop/GD32VW553/GD32VW55X_Wifi_BLE_SDK/GD32VW55x_RELEASE_V1.0.2/MSDK/ble/app\app_cmd.c **** 
 783:C:/Users/stapi/OneDrive/Desktop/GD32VW553/GD32VW55X_Wifi_BLE_SDK/GD32VW55x_RELEASE_V1.0.2/MSDK/ble/app\app_cmd.c ****     conidx = (uint8_t)strtoul((const char *)argv[1], &endptr, 0);
 784:C:/Users/stapi/OneDrive/Desktop/GD32VW553/GD32VW55X_Wifi_BLE_SDK/GD32VW55x_RELEASE_V1.0.2/MSDK/ble/app\app_cmd.c **** 
 785:C:/Users/stapi/OneDrive/Desktop/GD32VW553/GD32VW55X_Wifi_BLE_SDK/GD32VW55x_RELEASE_V1.0.2/MSDK/ble/app\app_cmd.c ****     ret = ble_conn_phy_get(conidx);
 786:C:/Users/stapi/OneDrive/Desktop/GD32VW553/GD32VW55X_Wifi_BLE_SDK/GD32VW55x_RELEASE_V1.0.2/MSDK/ble/app\app_cmd.c ****     if (ret != BLE_ERR_NO_ERROR) {
 787:C:/Users/stapi/OneDrive/Desktop/GD32VW553/GD32VW55X_Wifi_BLE_SDK/GD32VW55x_RELEASE_V1.0.2/MSDK/ble/app\app_cmd.c ****         app_print("get phy fail status 0x%x\r\n", ret);
 788:C:/Users/stapi/OneDrive/Desktop/GD32VW553/GD32VW55X_Wifi_BLE_SDK/GD32VW55x_RELEASE_V1.0.2/MSDK/ble/app\app_cmd.c ****     }
 789:C:/Users/stapi/OneDrive/Desktop/GD32VW553/GD32VW55X_Wifi_BLE_SDK/GD32VW55x_RELEASE_V1.0.2/MSDK/ble/app\app_cmd.c **** 
 790:C:/Users/stapi/OneDrive/Desktop/GD32VW553/GD32VW55X_Wifi_BLE_SDK/GD32VW55x_RELEASE_V1.0.2/MSDK/ble/app\app_cmd.c ****     return;
 791:C:/Users/stapi/OneDrive/Desktop/GD32VW553/GD32VW55X_Wifi_BLE_SDK/GD32VW55x_RELEASE_V1.0.2/MSDK/ble/app\app_cmd.c **** 
 792:C:/Users/stapi/OneDrive/Desktop/GD32VW553/GD32VW55X_Wifi_BLE_SDK/GD32VW55x_RELEASE_V1.0.2/MSDK/ble/app\app_cmd.c **** usage:
 793:C:/Users/stapi/OneDrive/Desktop/GD32VW553/GD32VW55X_Wifi_BLE_SDK/GD32VW55x_RELEASE_V1.0.2/MSDK/ble/app\app_cmd.c ****     app_print("Usage: ble_get_phy <conn idx>\r\n");
 794:C:/Users/stapi/OneDrive/Desktop/GD32VW553/GD32VW55X_Wifi_BLE_SDK/GD32VW55x_RELEASE_V1.0.2/MSDK/ble/app\app_cmd.c ****     app_print("<conn idx>: index of connection\r\n");
 795:C:/Users/stapi/OneDrive/Desktop/GD32VW553/GD32VW55X_Wifi_BLE_SDK/GD32VW55x_RELEASE_V1.0.2/MSDK/ble/app\app_cmd.c **** }
 796:C:/Users/stapi/OneDrive/Desktop/GD32VW553/GD32VW55X_Wifi_BLE_SDK/GD32VW55x_RELEASE_V1.0.2/MSDK/ble/app\app_cmd.c **** #endif // (BLE_APP_PHY_UPDATE_SUPPORT)
 797:C:/Users/stapi/OneDrive/Desktop/GD32VW553/GD32VW55X_Wifi_BLE_SDK/GD32VW55x_RELEASE_V1.0.2/MSDK/ble/app\app_cmd.c **** 
 798:C:/Users/stapi/OneDrive/Desktop/GD32VW553/GD32VW55X_Wifi_BLE_SDK/GD32VW55x_RELEASE_V1.0.2/MSDK/ble/app\app_cmd.c **** #if (BLE_APP_DATA_LEN_EXTEN_SUPPORT)
 799:C:/Users/stapi/OneDrive/Desktop/GD32VW553/GD32VW55X_Wifi_BLE_SDK/GD32VW55x_RELEASE_V1.0.2/MSDK/ble/app\app_cmd.c **** static void cmd_set_pkt_size(int argc, char **argv)
 800:C:/Users/stapi/OneDrive/Desktop/GD32VW553/GD32VW55X_Wifi_BLE_SDK/GD32VW55x_RELEASE_V1.0.2/MSDK/ble/app\app_cmd.c **** {
 801:C:/Users/stapi/OneDrive/Desktop/GD32VW553/GD32VW55X_Wifi_BLE_SDK/GD32VW55x_RELEASE_V1.0.2/MSDK/ble/app\app_cmd.c ****     char *endptr = NULL;
 802:C:/Users/stapi/OneDrive/Desktop/GD32VW553/GD32VW55X_Wifi_BLE_SDK/GD32VW55x_RELEASE_V1.0.2/MSDK/ble/app\app_cmd.c ****     uint16_t tx_oct;
 803:C:/Users/stapi/OneDrive/Desktop/GD32VW553/GD32VW55X_Wifi_BLE_SDK/GD32VW55x_RELEASE_V1.0.2/MSDK/ble/app\app_cmd.c ****     uint16_t tx_time;
 804:C:/Users/stapi/OneDrive/Desktop/GD32VW553/GD32VW55X_Wifi_BLE_SDK/GD32VW55x_RELEASE_V1.0.2/MSDK/ble/app\app_cmd.c ****     uint8_t conidx;
 805:C:/Users/stapi/OneDrive/Desktop/GD32VW553/GD32VW55X_Wifi_BLE_SDK/GD32VW55x_RELEASE_V1.0.2/MSDK/ble/app\app_cmd.c ****     ble_status_t ret;
 806:C:/Users/stapi/OneDrive/Desktop/GD32VW553/GD32VW55X_Wifi_BLE_SDK/GD32VW55x_RELEASE_V1.0.2/MSDK/ble/app\app_cmd.c **** 
 807:C:/Users/stapi/OneDrive/Desktop/GD32VW553/GD32VW55X_Wifi_BLE_SDK/GD32VW55x_RELEASE_V1.0.2/MSDK/ble/app\app_cmd.c ****     if (argc != 4) {
 808:C:/Users/stapi/OneDrive/Desktop/GD32VW553/GD32VW55X_Wifi_BLE_SDK/GD32VW55x_RELEASE_V1.0.2/MSDK/ble/app\app_cmd.c ****         goto usage;
 809:C:/Users/stapi/OneDrive/Desktop/GD32VW553/GD32VW55X_Wifi_BLE_SDK/GD32VW55x_RELEASE_V1.0.2/MSDK/ble/app\app_cmd.c ****     }
 810:C:/Users/stapi/OneDrive/Desktop/GD32VW553/GD32VW55X_Wifi_BLE_SDK/GD32VW55x_RELEASE_V1.0.2/MSDK/ble/app\app_cmd.c **** 
 811:C:/Users/stapi/OneDrive/Desktop/GD32VW553/GD32VW55X_Wifi_BLE_SDK/GD32VW55x_RELEASE_V1.0.2/MSDK/ble/app\app_cmd.c ****     conidx = (uint8_t)strtoul((const char *)argv[1], &endptr, 0);
 812:C:/Users/stapi/OneDrive/Desktop/GD32VW553/GD32VW55X_Wifi_BLE_SDK/GD32VW55x_RELEASE_V1.0.2/MSDK/ble/app\app_cmd.c ****     tx_oct = (uint16_t)strtoul((const char *)argv[2], &endptr, 10);
 813:C:/Users/stapi/OneDrive/Desktop/GD32VW553/GD32VW55X_Wifi_BLE_SDK/GD32VW55x_RELEASE_V1.0.2/MSDK/ble/app\app_cmd.c ****     tx_time = (uint16_t)strtoul((const char *)argv[3], &endptr, 10);
 814:C:/Users/stapi/OneDrive/Desktop/GD32VW553/GD32VW55X_Wifi_BLE_SDK/GD32VW55x_RELEASE_V1.0.2/MSDK/ble/app\app_cmd.c **** 
 815:C:/Users/stapi/OneDrive/Desktop/GD32VW553/GD32VW55X_Wifi_BLE_SDK/GD32VW55x_RELEASE_V1.0.2/MSDK/ble/app\app_cmd.c ****     ret = ble_conn_pkt_size_set(conidx, tx_oct, tx_time);
 816:C:/Users/stapi/OneDrive/Desktop/GD32VW553/GD32VW55X_Wifi_BLE_SDK/GD32VW55x_RELEASE_V1.0.2/MSDK/ble/app\app_cmd.c ****     if (ret != BLE_ERR_NO_ERROR) {
 817:C:/Users/stapi/OneDrive/Desktop/GD32VW553/GD32VW55X_Wifi_BLE_SDK/GD32VW55x_RELEASE_V1.0.2/MSDK/ble/app\app_cmd.c ****         app_print("set pkt size fail status 0x%x\r\n", ret);
 818:C:/Users/stapi/OneDrive/Desktop/GD32VW553/GD32VW55X_Wifi_BLE_SDK/GD32VW55x_RELEASE_V1.0.2/MSDK/ble/app\app_cmd.c ****     }
 819:C:/Users/stapi/OneDrive/Desktop/GD32VW553/GD32VW55X_Wifi_BLE_SDK/GD32VW55x_RELEASE_V1.0.2/MSDK/ble/app\app_cmd.c **** 
 820:C:/Users/stapi/OneDrive/Desktop/GD32VW553/GD32VW55X_Wifi_BLE_SDK/GD32VW55x_RELEASE_V1.0.2/MSDK/ble/app\app_cmd.c ****     return;
 821:C:/Users/stapi/OneDrive/Desktop/GD32VW553/GD32VW55X_Wifi_BLE_SDK/GD32VW55x_RELEASE_V1.0.2/MSDK/ble/app\app_cmd.c **** 
 822:C:/Users/stapi/OneDrive/Desktop/GD32VW553/GD32VW55X_Wifi_BLE_SDK/GD32VW55x_RELEASE_V1.0.2/MSDK/ble/app\app_cmd.c **** usage:
 823:C:/Users/stapi/OneDrive/Desktop/GD32VW553/GD32VW55X_Wifi_BLE_SDK/GD32VW55x_RELEASE_V1.0.2/MSDK/ble/app\app_cmd.c ****     app_print("Usage: ble_set_pkt_size <conn idx> <tx oct> <tx time>\r\n");
 824:C:/Users/stapi/OneDrive/Desktop/GD32VW553/GD32VW55X_Wifi_BLE_SDK/GD32VW55x_RELEASE_V1.0.2/MSDK/ble/app\app_cmd.c ****     app_print("<conn idx>: index of connection\r\n");
 825:C:/Users/stapi/OneDrive/Desktop/GD32VW553/GD32VW55X_Wifi_BLE_SDK/GD32VW55x_RELEASE_V1.0.2/MSDK/ble/app\app_cmd.c ****     app_print("<tx oct>: preferred maximum number of payload octets in a single data PDU, Range 27 
 826:C:/Users/stapi/OneDrive/Desktop/GD32VW553/GD32VW55X_Wifi_BLE_SDK/GD32VW55x_RELEASE_V1.0.2/MSDK/ble/app\app_cmd.c ****     app_print("<tx time>: preferred maximum number of microseconds used to transmit a single data P
 827:C:/Users/stapi/OneDrive/Desktop/GD32VW553/GD32VW55X_Wifi_BLE_SDK/GD32VW55x_RELEASE_V1.0.2/MSDK/ble/app\app_cmd.c **** }
 828:C:/Users/stapi/OneDrive/Desktop/GD32VW553/GD32VW55X_Wifi_BLE_SDK/GD32VW55x_RELEASE_V1.0.2/MSDK/ble/app\app_cmd.c **** #endif // (BLE_APP_DATA_LEN_EXTEN_SUPPORT)
 829:C:/Users/stapi/OneDrive/Desktop/GD32VW553/GD32VW55X_Wifi_BLE_SDK/GD32VW55x_RELEASE_V1.0.2/MSDK/ble/app\app_cmd.c **** #endif // (BLE_CFG_ROLE & (BLE_CFG_ROLE_PERIPHERAL | BLE_CFG_ROLE_CENTRAL))
 830:C:/Users/stapi/OneDrive/Desktop/GD32VW553/GD32VW55X_Wifi_BLE_SDK/GD32VW55x_RELEASE_V1.0.2/MSDK/ble/app\app_cmd.c **** 
 831:C:/Users/stapi/OneDrive/Desktop/GD32VW553/GD32VW55X_Wifi_BLE_SDK/GD32VW55x_RELEASE_V1.0.2/MSDK/ble/app\app_cmd.c **** #if (BLE_PROFILE_SAMPLE_SERVER)
 832:C:/Users/stapi/OneDrive/Desktop/GD32VW553/GD32VW55X_Wifi_BLE_SDK/GD32VW55x_RELEASE_V1.0.2/MSDK/ble/app\app_cmd.c **** static void cmd_sample_srv_ntf(int argc, char **argv)
 833:C:/Users/stapi/OneDrive/Desktop/GD32VW553/GD32VW55X_Wifi_BLE_SDK/GD32VW55x_RELEASE_V1.0.2/MSDK/ble/app\app_cmd.c **** {
 834:C:/Users/stapi/OneDrive/Desktop/GD32VW553/GD32VW55X_Wifi_BLE_SDK/GD32VW55x_RELEASE_V1.0.2/MSDK/ble/app\app_cmd.c ****     char *endptr = NULL;
 835:C:/Users/stapi/OneDrive/Desktop/GD32VW553/GD32VW55X_Wifi_BLE_SDK/GD32VW55x_RELEASE_V1.0.2/MSDK/ble/app\app_cmd.c ****     uint8_t conn_idx = 0;
 836:C:/Users/stapi/OneDrive/Desktop/GD32VW553/GD32VW55X_Wifi_BLE_SDK/GD32VW55x_RELEASE_V1.0.2/MSDK/ble/app\app_cmd.c ****     uint16_t len = 0;
 837:C:/Users/stapi/OneDrive/Desktop/GD32VW553/GD32VW55X_Wifi_BLE_SDK/GD32VW55x_RELEASE_V1.0.2/MSDK/ble/app\app_cmd.c ****     uint16_t i = 0;
 838:C:/Users/stapi/OneDrive/Desktop/GD32VW553/GD32VW55X_Wifi_BLE_SDK/GD32VW55x_RELEASE_V1.0.2/MSDK/ble/app\app_cmd.c ****     uint8_t *p_data = NULL;
 839:C:/Users/stapi/OneDrive/Desktop/GD32VW553/GD32VW55X_Wifi_BLE_SDK/GD32VW55x_RELEASE_V1.0.2/MSDK/ble/app\app_cmd.c **** 
 840:C:/Users/stapi/OneDrive/Desktop/GD32VW553/GD32VW55X_Wifi_BLE_SDK/GD32VW55x_RELEASE_V1.0.2/MSDK/ble/app\app_cmd.c ****     if (argc != 3) {
 841:C:/Users/stapi/OneDrive/Desktop/GD32VW553/GD32VW55X_Wifi_BLE_SDK/GD32VW55x_RELEASE_V1.0.2/MSDK/ble/app\app_cmd.c ****         goto usage;
 842:C:/Users/stapi/OneDrive/Desktop/GD32VW553/GD32VW55X_Wifi_BLE_SDK/GD32VW55x_RELEASE_V1.0.2/MSDK/ble/app\app_cmd.c ****     }
 843:C:/Users/stapi/OneDrive/Desktop/GD32VW553/GD32VW55X_Wifi_BLE_SDK/GD32VW55x_RELEASE_V1.0.2/MSDK/ble/app\app_cmd.c **** 
 844:C:/Users/stapi/OneDrive/Desktop/GD32VW553/GD32VW55X_Wifi_BLE_SDK/GD32VW55x_RELEASE_V1.0.2/MSDK/ble/app\app_cmd.c ****     conn_idx = (uint8_t)strtoul((const char *)argv[1], &endptr, 10);
 845:C:/Users/stapi/OneDrive/Desktop/GD32VW553/GD32VW55X_Wifi_BLE_SDK/GD32VW55x_RELEASE_V1.0.2/MSDK/ble/app\app_cmd.c ****     len = (uint16_t)strtoul((const char *)argv[2], &endptr, 10);
 846:C:/Users/stapi/OneDrive/Desktop/GD32VW553/GD32VW55X_Wifi_BLE_SDK/GD32VW55x_RELEASE_V1.0.2/MSDK/ble/app\app_cmd.c **** 
 847:C:/Users/stapi/OneDrive/Desktop/GD32VW553/GD32VW55X_Wifi_BLE_SDK/GD32VW55x_RELEASE_V1.0.2/MSDK/ble/app\app_cmd.c ****     p_data = sys_malloc(len);
 848:C:/Users/stapi/OneDrive/Desktop/GD32VW553/GD32VW55X_Wifi_BLE_SDK/GD32VW55x_RELEASE_V1.0.2/MSDK/ble/app\app_cmd.c ****     for (i = 0; i < len; i++) {
 849:C:/Users/stapi/OneDrive/Desktop/GD32VW553/GD32VW55X_Wifi_BLE_SDK/GD32VW55x_RELEASE_V1.0.2/MSDK/ble/app\app_cmd.c ****         *(p_data + i) = i;
 850:C:/Users/stapi/OneDrive/Desktop/GD32VW553/GD32VW55X_Wifi_BLE_SDK/GD32VW55x_RELEASE_V1.0.2/MSDK/ble/app\app_cmd.c ****     }
 851:C:/Users/stapi/OneDrive/Desktop/GD32VW553/GD32VW55X_Wifi_BLE_SDK/GD32VW55x_RELEASE_V1.0.2/MSDK/ble/app\app_cmd.c ****     ble_sample_srv_ntf_send(conn_idx, len, p_data);
 852:C:/Users/stapi/OneDrive/Desktop/GD32VW553/GD32VW55X_Wifi_BLE_SDK/GD32VW55x_RELEASE_V1.0.2/MSDK/ble/app\app_cmd.c ****     sys_mfree(p_data);
 853:C:/Users/stapi/OneDrive/Desktop/GD32VW553/GD32VW55X_Wifi_BLE_SDK/GD32VW55x_RELEASE_V1.0.2/MSDK/ble/app\app_cmd.c **** 
 854:C:/Users/stapi/OneDrive/Desktop/GD32VW553/GD32VW55X_Wifi_BLE_SDK/GD32VW55x_RELEASE_V1.0.2/MSDK/ble/app\app_cmd.c ****     return;
 855:C:/Users/stapi/OneDrive/Desktop/GD32VW553/GD32VW55X_Wifi_BLE_SDK/GD32VW55x_RELEASE_V1.0.2/MSDK/ble/app\app_cmd.c **** 
 856:C:/Users/stapi/OneDrive/Desktop/GD32VW553/GD32VW55X_Wifi_BLE_SDK/GD32VW55x_RELEASE_V1.0.2/MSDK/ble/app\app_cmd.c **** usage:
 857:C:/Users/stapi/OneDrive/Desktop/GD32VW553/GD32VW55X_Wifi_BLE_SDK/GD32VW55x_RELEASE_V1.0.2/MSDK/ble/app\app_cmd.c ****     app_print("Usage: ble_sample_srv_ntf <conn idx> <len> \r\n");
 858:C:/Users/stapi/OneDrive/Desktop/GD32VW553/GD32VW55X_Wifi_BLE_SDK/GD32VW55x_RELEASE_V1.0.2/MSDK/ble/app\app_cmd.c ****     app_print("<conn idx>: index of connection\r\n");
 859:C:/Users/stapi/OneDrive/Desktop/GD32VW553/GD32VW55X_Wifi_BLE_SDK/GD32VW55x_RELEASE_V1.0.2/MSDK/ble/app\app_cmd.c ****     app_print("<len>: data length, Range 1 to mtu size\r\n");
 860:C:/Users/stapi/OneDrive/Desktop/GD32VW553/GD32VW55X_Wifi_BLE_SDK/GD32VW55x_RELEASE_V1.0.2/MSDK/ble/app\app_cmd.c **** }
 861:C:/Users/stapi/OneDrive/Desktop/GD32VW553/GD32VW55X_Wifi_BLE_SDK/GD32VW55x_RELEASE_V1.0.2/MSDK/ble/app\app_cmd.c **** #endif
 862:C:/Users/stapi/OneDrive/Desktop/GD32VW553/GD32VW55X_Wifi_BLE_SDK/GD32VW55x_RELEASE_V1.0.2/MSDK/ble/app\app_cmd.c **** 
 863:C:/Users/stapi/OneDrive/Desktop/GD32VW553/GD32VW55X_Wifi_BLE_SDK/GD32VW55x_RELEASE_V1.0.2/MSDK/ble/app\app_cmd.c **** #if (BLE_PROFILE_SAMPLE_CLIENT)
 864:C:/Users/stapi/OneDrive/Desktop/GD32VW553/GD32VW55X_Wifi_BLE_SDK/GD32VW55x_RELEASE_V1.0.2/MSDK/ble/app\app_cmd.c **** static void cmd_sample_cli_read_char(int argc, char **argv)
 865:C:/Users/stapi/OneDrive/Desktop/GD32VW553/GD32VW55X_Wifi_BLE_SDK/GD32VW55x_RELEASE_V1.0.2/MSDK/ble/app\app_cmd.c **** {
 866:C:/Users/stapi/OneDrive/Desktop/GD32VW553/GD32VW55X_Wifi_BLE_SDK/GD32VW55x_RELEASE_V1.0.2/MSDK/ble/app\app_cmd.c ****     char *endptr = NULL;
 867:C:/Users/stapi/OneDrive/Desktop/GD32VW553/GD32VW55X_Wifi_BLE_SDK/GD32VW55x_RELEASE_V1.0.2/MSDK/ble/app\app_cmd.c ****     uint8_t conidx = 0;
 868:C:/Users/stapi/OneDrive/Desktop/GD32VW553/GD32VW55X_Wifi_BLE_SDK/GD32VW55x_RELEASE_V1.0.2/MSDK/ble/app\app_cmd.c **** 
 869:C:/Users/stapi/OneDrive/Desktop/GD32VW553/GD32VW55X_Wifi_BLE_SDK/GD32VW55x_RELEASE_V1.0.2/MSDK/ble/app\app_cmd.c ****     if (argc != 2) {
 870:C:/Users/stapi/OneDrive/Desktop/GD32VW553/GD32VW55X_Wifi_BLE_SDK/GD32VW55x_RELEASE_V1.0.2/MSDK/ble/app\app_cmd.c ****         goto usage;
 871:C:/Users/stapi/OneDrive/Desktop/GD32VW553/GD32VW55X_Wifi_BLE_SDK/GD32VW55x_RELEASE_V1.0.2/MSDK/ble/app\app_cmd.c ****     }
 872:C:/Users/stapi/OneDrive/Desktop/GD32VW553/GD32VW55X_Wifi_BLE_SDK/GD32VW55x_RELEASE_V1.0.2/MSDK/ble/app\app_cmd.c **** 
 873:C:/Users/stapi/OneDrive/Desktop/GD32VW553/GD32VW55X_Wifi_BLE_SDK/GD32VW55x_RELEASE_V1.0.2/MSDK/ble/app\app_cmd.c ****     conidx = (uint8_t)strtoul((const char *)argv[1], &endptr, 10);
 874:C:/Users/stapi/OneDrive/Desktop/GD32VW553/GD32VW55X_Wifi_BLE_SDK/GD32VW55x_RELEASE_V1.0.2/MSDK/ble/app\app_cmd.c **** 
 875:C:/Users/stapi/OneDrive/Desktop/GD32VW553/GD32VW55X_Wifi_BLE_SDK/GD32VW55x_RELEASE_V1.0.2/MSDK/ble/app\app_cmd.c ****     ble_sample_cli_read_char(conidx);
 876:C:/Users/stapi/OneDrive/Desktop/GD32VW553/GD32VW55X_Wifi_BLE_SDK/GD32VW55x_RELEASE_V1.0.2/MSDK/ble/app\app_cmd.c **** 
 877:C:/Users/stapi/OneDrive/Desktop/GD32VW553/GD32VW55X_Wifi_BLE_SDK/GD32VW55x_RELEASE_V1.0.2/MSDK/ble/app\app_cmd.c ****     return;
 878:C:/Users/stapi/OneDrive/Desktop/GD32VW553/GD32VW55X_Wifi_BLE_SDK/GD32VW55x_RELEASE_V1.0.2/MSDK/ble/app\app_cmd.c **** 
 879:C:/Users/stapi/OneDrive/Desktop/GD32VW553/GD32VW55X_Wifi_BLE_SDK/GD32VW55x_RELEASE_V1.0.2/MSDK/ble/app\app_cmd.c **** usage:
 880:C:/Users/stapi/OneDrive/Desktop/GD32VW553/GD32VW55X_Wifi_BLE_SDK/GD32VW55x_RELEASE_V1.0.2/MSDK/ble/app\app_cmd.c ****     app_print("Usage: ble_sample_cli_read_char <conn idx> \r\n");
 881:C:/Users/stapi/OneDrive/Desktop/GD32VW553/GD32VW55X_Wifi_BLE_SDK/GD32VW55x_RELEASE_V1.0.2/MSDK/ble/app\app_cmd.c ****     app_print("<conn idx>: index of connection\r\n");
 882:C:/Users/stapi/OneDrive/Desktop/GD32VW553/GD32VW55X_Wifi_BLE_SDK/GD32VW55x_RELEASE_V1.0.2/MSDK/ble/app\app_cmd.c **** }
 883:C:/Users/stapi/OneDrive/Desktop/GD32VW553/GD32VW55X_Wifi_BLE_SDK/GD32VW55x_RELEASE_V1.0.2/MSDK/ble/app\app_cmd.c **** 
 884:C:/Users/stapi/OneDrive/Desktop/GD32VW553/GD32VW55X_Wifi_BLE_SDK/GD32VW55x_RELEASE_V1.0.2/MSDK/ble/app\app_cmd.c **** static void cmd_sample_cli_write_char(int argc, char **argv)
 885:C:/Users/stapi/OneDrive/Desktop/GD32VW553/GD32VW55X_Wifi_BLE_SDK/GD32VW55x_RELEASE_V1.0.2/MSDK/ble/app\app_cmd.c **** {
 886:C:/Users/stapi/OneDrive/Desktop/GD32VW553/GD32VW55X_Wifi_BLE_SDK/GD32VW55x_RELEASE_V1.0.2/MSDK/ble/app\app_cmd.c ****     char *endptr = NULL;
 887:C:/Users/stapi/OneDrive/Desktop/GD32VW553/GD32VW55X_Wifi_BLE_SDK/GD32VW55x_RELEASE_V1.0.2/MSDK/ble/app\app_cmd.c ****     uint8_t conidx = 0;
 888:C:/Users/stapi/OneDrive/Desktop/GD32VW553/GD32VW55X_Wifi_BLE_SDK/GD32VW55x_RELEASE_V1.0.2/MSDK/ble/app\app_cmd.c ****     uint16_t len = 0;
 889:C:/Users/stapi/OneDrive/Desktop/GD32VW553/GD32VW55X_Wifi_BLE_SDK/GD32VW55x_RELEASE_V1.0.2/MSDK/ble/app\app_cmd.c ****     uint16_t i = 0;
 890:C:/Users/stapi/OneDrive/Desktop/GD32VW553/GD32VW55X_Wifi_BLE_SDK/GD32VW55x_RELEASE_V1.0.2/MSDK/ble/app\app_cmd.c ****     uint8_t *p_data = NULL;
 891:C:/Users/stapi/OneDrive/Desktop/GD32VW553/GD32VW55X_Wifi_BLE_SDK/GD32VW55x_RELEASE_V1.0.2/MSDK/ble/app\app_cmd.c **** 
 892:C:/Users/stapi/OneDrive/Desktop/GD32VW553/GD32VW55X_Wifi_BLE_SDK/GD32VW55x_RELEASE_V1.0.2/MSDK/ble/app\app_cmd.c ****     if (argc != 3) {
 893:C:/Users/stapi/OneDrive/Desktop/GD32VW553/GD32VW55X_Wifi_BLE_SDK/GD32VW55x_RELEASE_V1.0.2/MSDK/ble/app\app_cmd.c ****         goto usage;
 894:C:/Users/stapi/OneDrive/Desktop/GD32VW553/GD32VW55X_Wifi_BLE_SDK/GD32VW55x_RELEASE_V1.0.2/MSDK/ble/app\app_cmd.c ****     }
 895:C:/Users/stapi/OneDrive/Desktop/GD32VW553/GD32VW55X_Wifi_BLE_SDK/GD32VW55x_RELEASE_V1.0.2/MSDK/ble/app\app_cmd.c **** 
 896:C:/Users/stapi/OneDrive/Desktop/GD32VW553/GD32VW55X_Wifi_BLE_SDK/GD32VW55x_RELEASE_V1.0.2/MSDK/ble/app\app_cmd.c ****     conidx = (uint8_t)strtoul((const char *)argv[1], &endptr, 10);
 897:C:/Users/stapi/OneDrive/Desktop/GD32VW553/GD32VW55X_Wifi_BLE_SDK/GD32VW55x_RELEASE_V1.0.2/MSDK/ble/app\app_cmd.c ****     len = (uint16_t)strtoul((const char *)argv[2], &endptr, 10);
 898:C:/Users/stapi/OneDrive/Desktop/GD32VW553/GD32VW55X_Wifi_BLE_SDK/GD32VW55x_RELEASE_V1.0.2/MSDK/ble/app\app_cmd.c **** 
 899:C:/Users/stapi/OneDrive/Desktop/GD32VW553/GD32VW55X_Wifi_BLE_SDK/GD32VW55x_RELEASE_V1.0.2/MSDK/ble/app\app_cmd.c ****     p_data = sys_malloc(len);
 900:C:/Users/stapi/OneDrive/Desktop/GD32VW553/GD32VW55X_Wifi_BLE_SDK/GD32VW55x_RELEASE_V1.0.2/MSDK/ble/app\app_cmd.c ****     for (i = 0; i < len; i++) {
 901:C:/Users/stapi/OneDrive/Desktop/GD32VW553/GD32VW55X_Wifi_BLE_SDK/GD32VW55x_RELEASE_V1.0.2/MSDK/ble/app\app_cmd.c ****         *(p_data + i) = i;
 902:C:/Users/stapi/OneDrive/Desktop/GD32VW553/GD32VW55X_Wifi_BLE_SDK/GD32VW55x_RELEASE_V1.0.2/MSDK/ble/app\app_cmd.c ****     }
 903:C:/Users/stapi/OneDrive/Desktop/GD32VW553/GD32VW55X_Wifi_BLE_SDK/GD32VW55x_RELEASE_V1.0.2/MSDK/ble/app\app_cmd.c ****     ble_sample_cli_write_char(conidx, len, p_data);
 904:C:/Users/stapi/OneDrive/Desktop/GD32VW553/GD32VW55X_Wifi_BLE_SDK/GD32VW55x_RELEASE_V1.0.2/MSDK/ble/app\app_cmd.c ****     sys_mfree(p_data);
 905:C:/Users/stapi/OneDrive/Desktop/GD32VW553/GD32VW55X_Wifi_BLE_SDK/GD32VW55x_RELEASE_V1.0.2/MSDK/ble/app\app_cmd.c **** 
 906:C:/Users/stapi/OneDrive/Desktop/GD32VW553/GD32VW55X_Wifi_BLE_SDK/GD32VW55x_RELEASE_V1.0.2/MSDK/ble/app\app_cmd.c ****     return;
 907:C:/Users/stapi/OneDrive/Desktop/GD32VW553/GD32VW55X_Wifi_BLE_SDK/GD32VW55x_RELEASE_V1.0.2/MSDK/ble/app\app_cmd.c **** 
 908:C:/Users/stapi/OneDrive/Desktop/GD32VW553/GD32VW55X_Wifi_BLE_SDK/GD32VW55x_RELEASE_V1.0.2/MSDK/ble/app\app_cmd.c **** usage:
 909:C:/Users/stapi/OneDrive/Desktop/GD32VW553/GD32VW55X_Wifi_BLE_SDK/GD32VW55x_RELEASE_V1.0.2/MSDK/ble/app\app_cmd.c ****     app_print("Usage: ble_sample_cli_write_char <conn idx> <len> \r\n");
 910:C:/Users/stapi/OneDrive/Desktop/GD32VW553/GD32VW55X_Wifi_BLE_SDK/GD32VW55x_RELEASE_V1.0.2/MSDK/ble/app\app_cmd.c ****     app_print("<conn idx>: index of connection\r\n");
 911:C:/Users/stapi/OneDrive/Desktop/GD32VW553/GD32VW55X_Wifi_BLE_SDK/GD32VW55x_RELEASE_V1.0.2/MSDK/ble/app\app_cmd.c ****     app_print("<len>: data length, Range 1 to mtu size\r\n");
 912:C:/Users/stapi/OneDrive/Desktop/GD32VW553/GD32VW55X_Wifi_BLE_SDK/GD32VW55x_RELEASE_V1.0.2/MSDK/ble/app\app_cmd.c **** }
 913:C:/Users/stapi/OneDrive/Desktop/GD32VW553/GD32VW55X_Wifi_BLE_SDK/GD32VW55x_RELEASE_V1.0.2/MSDK/ble/app\app_cmd.c **** 
 914:C:/Users/stapi/OneDrive/Desktop/GD32VW553/GD32VW55X_Wifi_BLE_SDK/GD32VW55x_RELEASE_V1.0.2/MSDK/ble/app\app_cmd.c **** static void cmd_sample_cli_write_cccd(int argc, char **argv)
 915:C:/Users/stapi/OneDrive/Desktop/GD32VW553/GD32VW55X_Wifi_BLE_SDK/GD32VW55x_RELEASE_V1.0.2/MSDK/ble/app\app_cmd.c **** {
 916:C:/Users/stapi/OneDrive/Desktop/GD32VW553/GD32VW55X_Wifi_BLE_SDK/GD32VW55x_RELEASE_V1.0.2/MSDK/ble/app\app_cmd.c ****     char *endptr = NULL;
 917:C:/Users/stapi/OneDrive/Desktop/GD32VW553/GD32VW55X_Wifi_BLE_SDK/GD32VW55x_RELEASE_V1.0.2/MSDK/ble/app\app_cmd.c ****     uint8_t conidx = 0;
 918:C:/Users/stapi/OneDrive/Desktop/GD32VW553/GD32VW55X_Wifi_BLE_SDK/GD32VW55x_RELEASE_V1.0.2/MSDK/ble/app\app_cmd.c **** 
 919:C:/Users/stapi/OneDrive/Desktop/GD32VW553/GD32VW55X_Wifi_BLE_SDK/GD32VW55x_RELEASE_V1.0.2/MSDK/ble/app\app_cmd.c ****     if (argc != 2) {
 920:C:/Users/stapi/OneDrive/Desktop/GD32VW553/GD32VW55X_Wifi_BLE_SDK/GD32VW55x_RELEASE_V1.0.2/MSDK/ble/app\app_cmd.c ****         goto usage;
 921:C:/Users/stapi/OneDrive/Desktop/GD32VW553/GD32VW55X_Wifi_BLE_SDK/GD32VW55x_RELEASE_V1.0.2/MSDK/ble/app\app_cmd.c ****     }
 922:C:/Users/stapi/OneDrive/Desktop/GD32VW553/GD32VW55X_Wifi_BLE_SDK/GD32VW55x_RELEASE_V1.0.2/MSDK/ble/app\app_cmd.c **** 
 923:C:/Users/stapi/OneDrive/Desktop/GD32VW553/GD32VW55X_Wifi_BLE_SDK/GD32VW55x_RELEASE_V1.0.2/MSDK/ble/app\app_cmd.c ****     conidx = (uint8_t)strtoul((const char *)argv[1], &endptr, 10);
 924:C:/Users/stapi/OneDrive/Desktop/GD32VW553/GD32VW55X_Wifi_BLE_SDK/GD32VW55x_RELEASE_V1.0.2/MSDK/ble/app\app_cmd.c **** 
 925:C:/Users/stapi/OneDrive/Desktop/GD32VW553/GD32VW55X_Wifi_BLE_SDK/GD32VW55x_RELEASE_V1.0.2/MSDK/ble/app\app_cmd.c ****     ble_sample_cli_write_cccd(conidx);
 926:C:/Users/stapi/OneDrive/Desktop/GD32VW553/GD32VW55X_Wifi_BLE_SDK/GD32VW55x_RELEASE_V1.0.2/MSDK/ble/app\app_cmd.c **** 
 927:C:/Users/stapi/OneDrive/Desktop/GD32VW553/GD32VW55X_Wifi_BLE_SDK/GD32VW55x_RELEASE_V1.0.2/MSDK/ble/app\app_cmd.c ****     return;
 928:C:/Users/stapi/OneDrive/Desktop/GD32VW553/GD32VW55X_Wifi_BLE_SDK/GD32VW55x_RELEASE_V1.0.2/MSDK/ble/app\app_cmd.c **** 
 929:C:/Users/stapi/OneDrive/Desktop/GD32VW553/GD32VW55X_Wifi_BLE_SDK/GD32VW55x_RELEASE_V1.0.2/MSDK/ble/app\app_cmd.c **** usage:
 930:C:/Users/stapi/OneDrive/Desktop/GD32VW553/GD32VW55X_Wifi_BLE_SDK/GD32VW55x_RELEASE_V1.0.2/MSDK/ble/app\app_cmd.c ****     app_print("Usage: ble_sample_cli_write_cccd <conn idx> \r\n");
 931:C:/Users/stapi/OneDrive/Desktop/GD32VW553/GD32VW55X_Wifi_BLE_SDK/GD32VW55x_RELEASE_V1.0.2/MSDK/ble/app\app_cmd.c ****     app_print("<conn idx>: index of connection\r\n");
 932:C:/Users/stapi/OneDrive/Desktop/GD32VW553/GD32VW55X_Wifi_BLE_SDK/GD32VW55x_RELEASE_V1.0.2/MSDK/ble/app\app_cmd.c **** }
 933:C:/Users/stapi/OneDrive/Desktop/GD32VW553/GD32VW55X_Wifi_BLE_SDK/GD32VW55x_RELEASE_V1.0.2/MSDK/ble/app\app_cmd.c **** #endif //BLE_PROFILE_SAMPLE_CLIENT
 934:C:/Users/stapi/OneDrive/Desktop/GD32VW553/GD32VW55X_Wifi_BLE_SDK/GD32VW55x_RELEASE_V1.0.2/MSDK/ble/app\app_cmd.c **** 
 935:C:/Users/stapi/OneDrive/Desktop/GD32VW553/GD32VW55X_Wifi_BLE_SDK/GD32VW55x_RELEASE_V1.0.2/MSDK/ble/app\app_cmd.c **** const struct cmd_entry ble_cmd_table[] = {
 936:C:/Users/stapi/OneDrive/Desktop/GD32VW553/GD32VW55X_Wifi_BLE_SDK/GD32VW55x_RELEASE_V1.0.2/MSDK/ble/app\app_cmd.c ****     {"ble_help", cmd_ble_help},
 937:C:/Users/stapi/OneDrive/Desktop/GD32VW553/GD32VW55X_Wifi_BLE_SDK/GD32VW55x_RELEASE_V1.0.2/MSDK/ble/app\app_cmd.c **** 
 938:C:/Users/stapi/OneDrive/Desktop/GD32VW553/GD32VW55X_Wifi_BLE_SDK/GD32VW55x_RELEASE_V1.0.2/MSDK/ble/app\app_cmd.c **** #ifdef CONFIG_BASECMD
 939:C:/Users/stapi/OneDrive/Desktop/GD32VW553/GD32VW55X_Wifi_BLE_SDK/GD32VW55x_RELEASE_V1.0.2/MSDK/ble/app\app_cmd.c ****     {"ble_enable", cmd_ble_enable},
 940:C:/Users/stapi/OneDrive/Desktop/GD32VW553/GD32VW55X_Wifi_BLE_SDK/GD32VW55x_RELEASE_V1.0.2/MSDK/ble/app\app_cmd.c ****     {"ble_disable", cmd_ble_disable},
 941:C:/Users/stapi/OneDrive/Desktop/GD32VW553/GD32VW55X_Wifi_BLE_SDK/GD32VW55x_RELEASE_V1.0.2/MSDK/ble/app\app_cmd.c ****     {"ble_ps", cmd_ble_ps},
 942:C:/Users/stapi/OneDrive/Desktop/GD32VW553/GD32VW55X_Wifi_BLE_SDK/GD32VW55x_RELEASE_V1.0.2/MSDK/ble/app\app_cmd.c **** #ifdef CFG_WLAN_SUPPORT
 943:C:/Users/stapi/OneDrive/Desktop/GD32VW553/GD32VW55X_Wifi_BLE_SDK/GD32VW55x_RELEASE_V1.0.2/MSDK/ble/app\app_cmd.c ****     {"ble_courier_wifi", cmd_ble_courier_wifi},
 944:C:/Users/stapi/OneDrive/Desktop/GD32VW553/GD32VW55X_Wifi_BLE_SDK/GD32VW55x_RELEASE_V1.0.2/MSDK/ble/app\app_cmd.c **** #endif
 945:C:/Users/stapi/OneDrive/Desktop/GD32VW553/GD32VW55X_Wifi_BLE_SDK/GD32VW55x_RELEASE_V1.0.2/MSDK/ble/app\app_cmd.c **** 
 946:C:/Users/stapi/OneDrive/Desktop/GD32VW553/GD32VW55X_Wifi_BLE_SDK/GD32VW55x_RELEASE_V1.0.2/MSDK/ble/app\app_cmd.c **** #if (BLE_CFG_ROLE & (BLE_CFG_ROLE_BROADCASTER | BLE_CFG_ROLE_PERIPHERAL))
 947:C:/Users/stapi/OneDrive/Desktop/GD32VW553/GD32VW55X_Wifi_BLE_SDK/GD32VW55x_RELEASE_V1.0.2/MSDK/ble/app\app_cmd.c **** #ifndef CONFIG_INTERNAL_DEBUG
 948:C:/Users/stapi/OneDrive/Desktop/GD32VW553/GD32VW55X_Wifi_BLE_SDK/GD32VW55x_RELEASE_V1.0.2/MSDK/ble/app\app_cmd.c ****     {"ble_adv",         cmd_advertise},
 949:C:/Users/stapi/OneDrive/Desktop/GD32VW553/GD32VW55X_Wifi_BLE_SDK/GD32VW55x_RELEASE_V1.0.2/MSDK/ble/app\app_cmd.c **** #endif // #ifndef CONFIG_INTERNAL_DEBUG
 950:C:/Users/stapi/OneDrive/Desktop/GD32VW553/GD32VW55X_Wifi_BLE_SDK/GD32VW55x_RELEASE_V1.0.2/MSDK/ble/app\app_cmd.c ****     {"ble_adv_stop",    cmd_advertise_stop},
 951:C:/Users/stapi/OneDrive/Desktop/GD32VW553/GD32VW55X_Wifi_BLE_SDK/GD32VW55x_RELEASE_V1.0.2/MSDK/ble/app\app_cmd.c ****     {"ble_adv_restart", cmd_advertise_restart},
 952:C:/Users/stapi/OneDrive/Desktop/GD32VW553/GD32VW55X_Wifi_BLE_SDK/GD32VW55x_RELEASE_V1.0.2/MSDK/ble/app\app_cmd.c **** #endif
 953:C:/Users/stapi/OneDrive/Desktop/GD32VW553/GD32VW55X_Wifi_BLE_SDK/GD32VW55x_RELEASE_V1.0.2/MSDK/ble/app\app_cmd.c **** 
 954:C:/Users/stapi/OneDrive/Desktop/GD32VW553/GD32VW55X_Wifi_BLE_SDK/GD32VW55x_RELEASE_V1.0.2/MSDK/ble/app\app_cmd.c **** #if (BLE_CFG_ROLE & (BLE_CFG_ROLE_OBSERVER | BLE_CFG_ROLE_CENTRAL))
 955:C:/Users/stapi/OneDrive/Desktop/GD32VW553/GD32VW55X_Wifi_BLE_SDK/GD32VW55x_RELEASE_V1.0.2/MSDK/ble/app\app_cmd.c **** #ifndef CONFIG_INTERNAL_DEBUG
 956:C:/Users/stapi/OneDrive/Desktop/GD32VW553/GD32VW55X_Wifi_BLE_SDK/GD32VW55x_RELEASE_V1.0.2/MSDK/ble/app\app_cmd.c ****     {"ble_scan", cmd_scan},
 957:C:/Users/stapi/OneDrive/Desktop/GD32VW553/GD32VW55X_Wifi_BLE_SDK/GD32VW55x_RELEASE_V1.0.2/MSDK/ble/app\app_cmd.c **** #endif // #ifndef CONFIG_INTERNAL_DEBUG
 958:C:/Users/stapi/OneDrive/Desktop/GD32VW553/GD32VW55X_Wifi_BLE_SDK/GD32VW55x_RELEASE_V1.0.2/MSDK/ble/app\app_cmd.c ****     {"ble_scan_stop", cmd_scan_stop},
 959:C:/Users/stapi/OneDrive/Desktop/GD32VW553/GD32VW55X_Wifi_BLE_SDK/GD32VW55x_RELEASE_V1.0.2/MSDK/ble/app\app_cmd.c ****     {"ble_list_scan_devs", cmd_list_scan_devs},
 960:C:/Users/stapi/OneDrive/Desktop/GD32VW553/GD32VW55X_Wifi_BLE_SDK/GD32VW55x_RELEASE_V1.0.2/MSDK/ble/app\app_cmd.c **** 
 961:C:/Users/stapi/OneDrive/Desktop/GD32VW553/GD32VW55X_Wifi_BLE_SDK/GD32VW55x_RELEASE_V1.0.2/MSDK/ble/app\app_cmd.c **** #if (BLE_APP_PER_ADV_SUPPORT)
 962:C:/Users/stapi/OneDrive/Desktop/GD32VW553/GD32VW55X_Wifi_BLE_SDK/GD32VW55x_RELEASE_V1.0.2/MSDK/ble/app\app_cmd.c **** #ifndef CONFIG_INTERNAL_DEBUG
 963:C:/Users/stapi/OneDrive/Desktop/GD32VW553/GD32VW55X_Wifi_BLE_SDK/GD32VW55x_RELEASE_V1.0.2/MSDK/ble/app\app_cmd.c ****     {"ble_sync", cmd_sync},
 964:C:/Users/stapi/OneDrive/Desktop/GD32VW553/GD32VW55X_Wifi_BLE_SDK/GD32VW55x_RELEASE_V1.0.2/MSDK/ble/app\app_cmd.c **** #endif // #ifndef CONFIG_INTERNAL_DEBUG
 965:C:/Users/stapi/OneDrive/Desktop/GD32VW553/GD32VW55X_Wifi_BLE_SDK/GD32VW55x_RELEASE_V1.0.2/MSDK/ble/app\app_cmd.c ****     {"ble_sync_cancel", cmd_sync_cancel},
 966:C:/Users/stapi/OneDrive/Desktop/GD32VW553/GD32VW55X_Wifi_BLE_SDK/GD32VW55x_RELEASE_V1.0.2/MSDK/ble/app\app_cmd.c ****     {"ble_sync_terminate", cmd_sync_terminate},
 967:C:/Users/stapi/OneDrive/Desktop/GD32VW553/GD32VW55X_Wifi_BLE_SDK/GD32VW55x_RELEASE_V1.0.2/MSDK/ble/app\app_cmd.c ****     {"ble_sync_ctrl", cmd_sync_ctrl},
 968:C:/Users/stapi/OneDrive/Desktop/GD32VW553/GD32VW55X_Wifi_BLE_SDK/GD32VW55x_RELEASE_V1.0.2/MSDK/ble/app\app_cmd.c **** #endif
 969:C:/Users/stapi/OneDrive/Desktop/GD32VW553/GD32VW55X_Wifi_BLE_SDK/GD32VW55x_RELEASE_V1.0.2/MSDK/ble/app\app_cmd.c **** #endif
 970:C:/Users/stapi/OneDrive/Desktop/GD32VW553/GD32VW55X_Wifi_BLE_SDK/GD32VW55x_RELEASE_V1.0.2/MSDK/ble/app\app_cmd.c **** 
 971:C:/Users/stapi/OneDrive/Desktop/GD32VW553/GD32VW55X_Wifi_BLE_SDK/GD32VW55x_RELEASE_V1.0.2/MSDK/ble/app\app_cmd.c **** #if (BLE_CFG_ROLE & (BLE_CFG_ROLE_PERIPHERAL | BLE_CFG_ROLE_CENTRAL))
 972:C:/Users/stapi/OneDrive/Desktop/GD32VW553/GD32VW55X_Wifi_BLE_SDK/GD32VW55x_RELEASE_V1.0.2/MSDK/ble/app\app_cmd.c **** #if (BLE_CFG_ROLE & BLE_CFG_ROLE_CENTRAL)
 973:C:/Users/stapi/OneDrive/Desktop/GD32VW553/GD32VW55X_Wifi_BLE_SDK/GD32VW55x_RELEASE_V1.0.2/MSDK/ble/app\app_cmd.c **** #ifndef CONFIG_INTERNAL_DEBUG
 974:C:/Users/stapi/OneDrive/Desktop/GD32VW553/GD32VW55X_Wifi_BLE_SDK/GD32VW55x_RELEASE_V1.0.2/MSDK/ble/app\app_cmd.c ****     {"ble_conn", cmd_connect},
 975:C:/Users/stapi/OneDrive/Desktop/GD32VW553/GD32VW55X_Wifi_BLE_SDK/GD32VW55x_RELEASE_V1.0.2/MSDK/ble/app\app_cmd.c **** #endif // #ifndef CONFIG_INTERNAL_DEBUG
 976:C:/Users/stapi/OneDrive/Desktop/GD32VW553/GD32VW55X_Wifi_BLE_SDK/GD32VW55x_RELEASE_V1.0.2/MSDK/ble/app\app_cmd.c ****     {"ble_cancel_conn", cmd_cancel_connect},
 977:C:/Users/stapi/OneDrive/Desktop/GD32VW553/GD32VW55X_Wifi_BLE_SDK/GD32VW55x_RELEASE_V1.0.2/MSDK/ble/app\app_cmd.c **** #endif // (BLE_CFG_ROLE & BLE_CFG_ROLE_CENTRAL)
 978:C:/Users/stapi/OneDrive/Desktop/GD32VW553/GD32VW55X_Wifi_BLE_SDK/GD32VW55x_RELEASE_V1.0.2/MSDK/ble/app\app_cmd.c **** 
 979:C:/Users/stapi/OneDrive/Desktop/GD32VW553/GD32VW55X_Wifi_BLE_SDK/GD32VW55x_RELEASE_V1.0.2/MSDK/ble/app\app_cmd.c ****     {"ble_disconn", cmd_disconnect},
 980:C:/Users/stapi/OneDrive/Desktop/GD32VW553/GD32VW55X_Wifi_BLE_SDK/GD32VW55x_RELEASE_V1.0.2/MSDK/ble/app\app_cmd.c ****     {"ble_remove_bond", cmd_remove_bond},
 981:C:/Users/stapi/OneDrive/Desktop/GD32VW553/GD32VW55X_Wifi_BLE_SDK/GD32VW55x_RELEASE_V1.0.2/MSDK/ble/app\app_cmd.c ****     {"ble_list_sec_devs", cmd_list_sec_devs},
 982:C:/Users/stapi/OneDrive/Desktop/GD32VW553/GD32VW55X_Wifi_BLE_SDK/GD32VW55x_RELEASE_V1.0.2/MSDK/ble/app\app_cmd.c **** 
 983:C:/Users/stapi/OneDrive/Desktop/GD32VW553/GD32VW55X_Wifi_BLE_SDK/GD32VW55x_RELEASE_V1.0.2/MSDK/ble/app\app_cmd.c **** #ifndef CONFIG_INTERNAL_DEBUG
 984:C:/Users/stapi/OneDrive/Desktop/GD32VW553/GD32VW55X_Wifi_BLE_SDK/GD32VW55x_RELEASE_V1.0.2/MSDK/ble/app\app_cmd.c ****     {"ble_set_auth", cmd_set_auth},
 985:C:/Users/stapi/OneDrive/Desktop/GD32VW553/GD32VW55X_Wifi_BLE_SDK/GD32VW55x_RELEASE_V1.0.2/MSDK/ble/app\app_cmd.c **** #endif // #ifndef CONFIG_INTERNAL_DEBUG
 986:C:/Users/stapi/OneDrive/Desktop/GD32VW553/GD32VW55X_Wifi_BLE_SDK/GD32VW55x_RELEASE_V1.0.2/MSDK/ble/app\app_cmd.c **** 
 987:C:/Users/stapi/OneDrive/Desktop/GD32VW553/GD32VW55X_Wifi_BLE_SDK/GD32VW55x_RELEASE_V1.0.2/MSDK/ble/app\app_cmd.c ****     {"ble_pair", cmd_pair},
 988:C:/Users/stapi/OneDrive/Desktop/GD32VW553/GD32VW55X_Wifi_BLE_SDK/GD32VW55x_RELEASE_V1.0.2/MSDK/ble/app\app_cmd.c ****     {"ble_encrypt", cmd_encrypt},
 989:C:/Users/stapi/OneDrive/Desktop/GD32VW553/GD32VW55X_Wifi_BLE_SDK/GD32VW55x_RELEASE_V1.0.2/MSDK/ble/app\app_cmd.c ****     {"ble_passkey", cmd_passkey},
 990:C:/Users/stapi/OneDrive/Desktop/GD32VW553/GD32VW55X_Wifi_BLE_SDK/GD32VW55x_RELEASE_V1.0.2/MSDK/ble/app\app_cmd.c ****     {"ble_compare", cmd_compare},
 991:C:/Users/stapi/OneDrive/Desktop/GD32VW553/GD32VW55X_Wifi_BLE_SDK/GD32VW55x_RELEASE_V1.0.2/MSDK/ble/app\app_cmd.c **** 
 992:C:/Users/stapi/OneDrive/Desktop/GD32VW553/GD32VW55X_Wifi_BLE_SDK/GD32VW55x_RELEASE_V1.0.2/MSDK/ble/app\app_cmd.c ****     {"ble_peer_feat", cmd_ble_peer_feat},
 993:C:/Users/stapi/OneDrive/Desktop/GD32VW553/GD32VW55X_Wifi_BLE_SDK/GD32VW55x_RELEASE_V1.0.2/MSDK/ble/app\app_cmd.c ****     {"ble_peer_ver", cmd_ble_peer_ver},
 994:C:/Users/stapi/OneDrive/Desktop/GD32VW553/GD32VW55X_Wifi_BLE_SDK/GD32VW55x_RELEASE_V1.0.2/MSDK/ble/app\app_cmd.c ****     {"ble_param_update", cmd_ble_param_update},
 995:C:/Users/stapi/OneDrive/Desktop/GD32VW553/GD32VW55X_Wifi_BLE_SDK/GD32VW55x_RELEASE_V1.0.2/MSDK/ble/app\app_cmd.c ****     {"ble_get_rssi", cmd_get_rssi},
 996:C:/Users/stapi/OneDrive/Desktop/GD32VW553/GD32VW55X_Wifi_BLE_SDK/GD32VW55x_RELEASE_V1.0.2/MSDK/ble/app\app_cmd.c ****     {"ble_set_dev_name", cmd_set_dev_name},
 997:C:/Users/stapi/OneDrive/Desktop/GD32VW553/GD32VW55X_Wifi_BLE_SDK/GD32VW55x_RELEASE_V1.0.2/MSDK/ble/app\app_cmd.c **** 
 998:C:/Users/stapi/OneDrive/Desktop/GD32VW553/GD32VW55X_Wifi_BLE_SDK/GD32VW55x_RELEASE_V1.0.2/MSDK/ble/app\app_cmd.c **** #if (BLE_APP_PHY_UPDATE_SUPPORT)
 999:C:/Users/stapi/OneDrive/Desktop/GD32VW553/GD32VW55X_Wifi_BLE_SDK/GD32VW55x_RELEASE_V1.0.2/MSDK/ble/app\app_cmd.c ****     {"ble_set_phy", cmd_set_phy},
1000:C:/Users/stapi/OneDrive/Desktop/GD32VW553/GD32VW55X_Wifi_BLE_SDK/GD32VW55x_RELEASE_V1.0.2/MSDK/ble/app\app_cmd.c ****     {"ble_get_phy", cmd_get_phy},
1001:C:/Users/stapi/OneDrive/Desktop/GD32VW553/GD32VW55X_Wifi_BLE_SDK/GD32VW55x_RELEASE_V1.0.2/MSDK/ble/app\app_cmd.c **** #endif
1002:C:/Users/stapi/OneDrive/Desktop/GD32VW553/GD32VW55X_Wifi_BLE_SDK/GD32VW55x_RELEASE_V1.0.2/MSDK/ble/app\app_cmd.c **** 
1003:C:/Users/stapi/OneDrive/Desktop/GD32VW553/GD32VW55X_Wifi_BLE_SDK/GD32VW55x_RELEASE_V1.0.2/MSDK/ble/app\app_cmd.c **** #if (BLE_APP_DATA_LEN_EXTEN_SUPPORT)
1004:C:/Users/stapi/OneDrive/Desktop/GD32VW553/GD32VW55X_Wifi_BLE_SDK/GD32VW55x_RELEASE_V1.0.2/MSDK/ble/app\app_cmd.c ****     {"ble_set_pkt_size", cmd_set_pkt_size},
1005:C:/Users/stapi/OneDrive/Desktop/GD32VW553/GD32VW55X_Wifi_BLE_SDK/GD32VW55x_RELEASE_V1.0.2/MSDK/ble/app\app_cmd.c **** #endif
1006:C:/Users/stapi/OneDrive/Desktop/GD32VW553/GD32VW55X_Wifi_BLE_SDK/GD32VW55x_RELEASE_V1.0.2/MSDK/ble/app\app_cmd.c **** #endif // (BLE_CFG_ROLE & (BLE_CFG_ROLE_PERIPHERAL | BLE_CFG_ROLE_CENTRAL))
1007:C:/Users/stapi/OneDrive/Desktop/GD32VW553/GD32VW55X_Wifi_BLE_SDK/GD32VW55x_RELEASE_V1.0.2/MSDK/ble/app\app_cmd.c **** 
1008:C:/Users/stapi/OneDrive/Desktop/GD32VW553/GD32VW55X_Wifi_BLE_SDK/GD32VW55x_RELEASE_V1.0.2/MSDK/ble/app\app_cmd.c **** #if (BLE_PROFILE_SAMPLE_SERVER)
1009:C:/Users/stapi/OneDrive/Desktop/GD32VW553/GD32VW55X_Wifi_BLE_SDK/GD32VW55x_RELEASE_V1.0.2/MSDK/ble/app\app_cmd.c ****     {"ble_sample_srv_ntf", cmd_sample_srv_ntf},
1010:C:/Users/stapi/OneDrive/Desktop/GD32VW553/GD32VW55X_Wifi_BLE_SDK/GD32VW55x_RELEASE_V1.0.2/MSDK/ble/app\app_cmd.c **** #endif
1011:C:/Users/stapi/OneDrive/Desktop/GD32VW553/GD32VW55X_Wifi_BLE_SDK/GD32VW55x_RELEASE_V1.0.2/MSDK/ble/app\app_cmd.c **** 
1012:C:/Users/stapi/OneDrive/Desktop/GD32VW553/GD32VW55X_Wifi_BLE_SDK/GD32VW55x_RELEASE_V1.0.2/MSDK/ble/app\app_cmd.c **** #if (BLE_PROFILE_SAMPLE_CLIENT)
1013:C:/Users/stapi/OneDrive/Desktop/GD32VW553/GD32VW55X_Wifi_BLE_SDK/GD32VW55x_RELEASE_V1.0.2/MSDK/ble/app\app_cmd.c ****     {"ble_sample_cli_read_char", cmd_sample_cli_read_char},
1014:C:/Users/stapi/OneDrive/Desktop/GD32VW553/GD32VW55X_Wifi_BLE_SDK/GD32VW55x_RELEASE_V1.0.2/MSDK/ble/app\app_cmd.c ****     {"ble_sample_cli_write_char", cmd_sample_cli_write_char},
1015:C:/Users/stapi/OneDrive/Desktop/GD32VW553/GD32VW55X_Wifi_BLE_SDK/GD32VW55x_RELEASE_V1.0.2/MSDK/ble/app\app_cmd.c ****     {"ble_sample_cli_write_cccd", cmd_sample_cli_write_cccd},
1016:C:/Users/stapi/OneDrive/Desktop/GD32VW553/GD32VW55X_Wifi_BLE_SDK/GD32VW55x_RELEASE_V1.0.2/MSDK/ble/app\app_cmd.c **** #endif
1017:C:/Users/stapi/OneDrive/Desktop/GD32VW553/GD32VW55X_Wifi_BLE_SDK/GD32VW55x_RELEASE_V1.0.2/MSDK/ble/app\app_cmd.c **** 
1018:C:/Users/stapi/OneDrive/Desktop/GD32VW553/GD32VW55X_Wifi_BLE_SDK/GD32VW55x_RELEASE_V1.0.2/MSDK/ble/app\app_cmd.c **** #endif // CONFIG_BASECMD
1019:C:/Users/stapi/OneDrive/Desktop/GD32VW553/GD32VW55X_Wifi_BLE_SDK/GD32VW55x_RELEASE_V1.0.2/MSDK/ble/app\app_cmd.c ****     {"", NULL}
1020:C:/Users/stapi/OneDrive/Desktop/GD32VW553/GD32VW55X_Wifi_BLE_SDK/GD32VW55x_RELEASE_V1.0.2/MSDK/ble/app\app_cmd.c **** };
1021:C:/Users/stapi/OneDrive/Desktop/GD32VW553/GD32VW55X_Wifi_BLE_SDK/GD32VW55x_RELEASE_V1.0.2/MSDK/ble/app\app_cmd.c **** 
1022:C:/Users/stapi/OneDrive/Desktop/GD32VW553/GD32VW55X_Wifi_BLE_SDK/GD32VW55x_RELEASE_V1.0.2/MSDK/ble/app\app_cmd.c **** const uint32_t ble_cmd_table_size = (sizeof(ble_cmd_table) / sizeof(ble_cmd_table[0]));
1023:C:/Users/stapi/OneDrive/Desktop/GD32VW553/GD32VW55X_Wifi_BLE_SDK/GD32VW55x_RELEASE_V1.0.2/MSDK/ble/app\app_cmd.c **** 
1024:C:/Users/stapi/OneDrive/Desktop/GD32VW553/GD32VW55X_Wifi_BLE_SDK/GD32VW55x_RELEASE_V1.0.2/MSDK/ble/app\app_cmd.c **** #if (!defined(CONFIG_RF_TEST_SUPPORT)) && defined(CONFIG_BASECMD)
1025:C:/Users/stapi/OneDrive/Desktop/GD32VW553/GD32VW55X_Wifi_BLE_SDK/GD32VW55x_RELEASE_V1.0.2/MSDK/ble/app\app_cmd.c **** void ble_base_cmd_help(void)
1026:C:/Users/stapi/OneDrive/Desktop/GD32VW553/GD32VW55X_Wifi_BLE_SDK/GD32VW55x_RELEASE_V1.0.2/MSDK/ble/app\app_cmd.c **** {
1027:C:/Users/stapi/OneDrive/Desktop/GD32VW553/GD32VW55X_Wifi_BLE_SDK/GD32VW55x_RELEASE_V1.0.2/MSDK/ble/app\app_cmd.c ****     int i;
1028:C:/Users/stapi/OneDrive/Desktop/GD32VW553/GD32VW55X_Wifi_BLE_SDK/GD32VW55x_RELEASE_V1.0.2/MSDK/ble/app\app_cmd.c **** 
1029:C:/Users/stapi/OneDrive/Desktop/GD32VW553/GD32VW55X_Wifi_BLE_SDK/GD32VW55x_RELEASE_V1.0.2/MSDK/ble/app\app_cmd.c ****     /* i is 1, not print 'ble_help' */
1030:C:/Users/stapi/OneDrive/Desktop/GD32VW553/GD32VW55X_Wifi_BLE_SDK/GD32VW55x_RELEASE_V1.0.2/MSDK/ble/app\app_cmd.c ****     for (i = 1; i < ble_cmd_table_size; i++) {
1031:C:/Users/stapi/OneDrive/Desktop/GD32VW553/GD32VW55X_Wifi_BLE_SDK/GD32VW55x_RELEASE_V1.0.2/MSDK/ble/app\app_cmd.c ****         if (ble_cmd_table[i].function) {
1032:C:/Users/stapi/OneDrive/Desktop/GD32VW553/GD32VW55X_Wifi_BLE_SDK/GD32VW55x_RELEASE_V1.0.2/MSDK/ble/app\app_cmd.c ****             app_print("\n\r    %s", ble_cmd_table[i].command);
1033:C:/Users/stapi/OneDrive/Desktop/GD32VW553/GD32VW55X_Wifi_BLE_SDK/GD32VW55x_RELEASE_V1.0.2/MSDK/ble/app\app_cmd.c ****         }
1034:C:/Users/stapi/OneDrive/Desktop/GD32VW553/GD32VW55X_Wifi_BLE_SDK/GD32VW55x_RELEASE_V1.0.2/MSDK/ble/app\app_cmd.c ****     }
1035:C:/Users/stapi/OneDrive/Desktop/GD32VW553/GD32VW55X_Wifi_BLE_SDK/GD32VW55x_RELEASE_V1.0.2/MSDK/ble/app\app_cmd.c **** }
1036:C:/Users/stapi/OneDrive/Desktop/GD32VW553/GD32VW55X_Wifi_BLE_SDK/GD32VW55x_RELEASE_V1.0.2/MSDK/ble/app\app_cmd.c **** #endif
1037:C:/Users/stapi/OneDrive/Desktop/GD32VW553/GD32VW55X_Wifi_BLE_SDK/GD32VW55x_RELEASE_V1.0.2/MSDK/ble/app\app_cmd.c **** 
1038:C:/Users/stapi/OneDrive/Desktop/GD32VW553/GD32VW55X_Wifi_BLE_SDK/GD32VW55x_RELEASE_V1.0.2/MSDK/ble/app\app_cmd.c **** static void cmd_ble_help(int argc, char **argv)
1039:C:/Users/stapi/OneDrive/Desktop/GD32VW553/GD32VW55X_Wifi_BLE_SDK/GD32VW55x_RELEASE_V1.0.2/MSDK/ble/app\app_cmd.c **** {
1040:C:/Users/stapi/OneDrive/Desktop/GD32VW553/GD32VW55X_Wifi_BLE_SDK/GD32VW55x_RELEASE_V1.0.2/MSDK/ble/app\app_cmd.c ****     app_print("BLE COMMAND LIST:");
1041:C:/Users/stapi/OneDrive/Desktop/GD32VW553/GD32VW55X_Wifi_BLE_SDK/GD32VW55x_RELEASE_V1.0.2/MSDK/ble/app\app_cmd.c ****     app_print("\n\r==============================");
1042:C:/Users/stapi/OneDrive/Desktop/GD32VW553/GD32VW55X_Wifi_BLE_SDK/GD32VW55x_RELEASE_V1.0.2/MSDK/ble/app\app_cmd.c **** 
1043:C:/Users/stapi/OneDrive/Desktop/GD32VW553/GD32VW55X_Wifi_BLE_SDK/GD32VW55x_RELEASE_V1.0.2/MSDK/ble/app\app_cmd.c **** #if (!defined(CONFIG_RF_TEST_SUPPORT)) && defined(CONFIG_BASECMD)
1044:C:/Users/stapi/OneDrive/Desktop/GD32VW553/GD32VW55X_Wifi_BLE_SDK/GD32VW55x_RELEASE_V1.0.2/MSDK/ble/app\app_cmd.c ****     ble_base_cmd_help();
1045:C:/Users/stapi/OneDrive/Desktop/GD32VW553/GD32VW55X_Wifi_BLE_SDK/GD32VW55x_RELEASE_V1.0.2/MSDK/ble/app\app_cmd.c **** #endif
1046:C:/Users/stapi/OneDrive/Desktop/GD32VW553/GD32VW55X_Wifi_BLE_SDK/GD32VW55x_RELEASE_V1.0.2/MSDK/ble/app\app_cmd.c **** 
1047:C:/Users/stapi/OneDrive/Desktop/GD32VW553/GD32VW55X_Wifi_BLE_SDK/GD32VW55x_RELEASE_V1.0.2/MSDK/ble/app\app_cmd.c **** #ifdef CONFIG_INTERNAL_DEBUG
1048:C:/Users/stapi/OneDrive/Desktop/GD32VW553/GD32VW55X_Wifi_BLE_SDK/GD32VW55x_RELEASE_V1.0.2/MSDK/ble/app\app_cmd.c ****     ble_int_cmd_help();
1049:C:/Users/stapi/OneDrive/Desktop/GD32VW553/GD32VW55X_Wifi_BLE_SDK/GD32VW55x_RELEASE_V1.0.2/MSDK/ble/app\app_cmd.c **** #endif
1050:C:/Users/stapi/OneDrive/Desktop/GD32VW553/GD32VW55X_Wifi_BLE_SDK/GD32VW55x_RELEASE_V1.0.2/MSDK/ble/app\app_cmd.c **** 
1051:C:/Users/stapi/OneDrive/Desktop/GD32VW553/GD32VW55X_Wifi_BLE_SDK/GD32VW55x_RELEASE_V1.0.2/MSDK/ble/app\app_cmd.c **** #if (defined(CONFIG_INTERNAL_DEBUG) || defined(CONFIG_RF_TEST_SUPPORT) || defined(CONFIG_BLE_DTM_SU
1052:C:/Users/stapi/OneDrive/Desktop/GD32VW553/GD32VW55X_Wifi_BLE_SDK/GD32VW55x_RELEASE_V1.0.2/MSDK/ble/app\app_cmd.c ****     ble_rftest_cmd_help();
1053:C:/Users/stapi/OneDrive/Desktop/GD32VW553/GD32VW55X_Wifi_BLE_SDK/GD32VW55x_RELEASE_V1.0.2/MSDK/ble/app\app_cmd.c **** #endif
1054:C:/Users/stapi/OneDrive/Desktop/GD32VW553/GD32VW55X_Wifi_BLE_SDK/GD32VW55x_RELEASE_V1.0.2/MSDK/ble/app\app_cmd.c **** 
1055:C:/Users/stapi/OneDrive/Desktop/GD32VW553/GD32VW55X_Wifi_BLE_SDK/GD32VW55x_RELEASE_V1.0.2/MSDK/ble/app\app_cmd.c ****     app_print("\r\n");
1056:C:/Users/stapi/OneDrive/Desktop/GD32VW553/GD32VW55X_Wifi_BLE_SDK/GD32VW55x_RELEASE_V1.0.2/MSDK/ble/app\app_cmd.c **** 
1057:C:/Users/stapi/OneDrive/Desktop/GD32VW553/GD32VW55X_Wifi_BLE_SDK/GD32VW55x_RELEASE_V1.0.2/MSDK/ble/app\app_cmd.c ****     return;
1058:C:/Users/stapi/OneDrive/Desktop/GD32VW553/GD32VW55X_Wifi_BLE_SDK/GD32VW55x_RELEASE_V1.0.2/MSDK/ble/app\app_cmd.c **** }
1059:C:/Users/stapi/OneDrive/Desktop/GD32VW553/GD32VW55X_Wifi_BLE_SDK/GD32VW55x_RELEASE_V1.0.2/MSDK/ble/app\app_cmd.c **** 
1060:C:/Users/stapi/OneDrive/Desktop/GD32VW553/GD32VW55X_Wifi_BLE_SDK/GD32VW55x_RELEASE_V1.0.2/MSDK/ble/app\app_cmd.c **** void cmd_ble_help_cb(void)
1061:C:/Users/stapi/OneDrive/Desktop/GD32VW553/GD32VW55X_Wifi_BLE_SDK/GD32VW55x_RELEASE_V1.0.2/MSDK/ble/app\app_cmd.c **** {
  20              		.loc 1 1061 1
  21              		.cfi_startproc
1062:C:/Users/stapi/OneDrive/Desktop/GD32VW553/GD32VW55X_Wifi_BLE_SDK/GD32VW55x_RELEASE_V1.0.2/MSDK/ble/app\app_cmd.c ****     app_print("\tble_help\n");
  22              		.loc 1 1062 5
  23 0000 37050000 		lui	a0,%hi(.LC0)
  24 0004 13050500 		addi	a0,a0,%lo(.LC0)
  25 0008 17030000 		tail	co_printf
  25      67000300 
  26              	.LVL0:
  27              		.cfi_endproc
  28              	.LFE48:
  30              		.section	.rodata.cmd_set_pkt_size.str1.4,"aMS",@progbits,1
  31              		.align	2
  32              	.LC1:
  33 0000 55736167 		.string	"Usage: ble_set_pkt_size <conn idx> <tx oct> <tx time>\r\n"
  33      653A2062 
  33      6C655F73 
  33      65745F70 
  33      6B745F73 
  34              		.align	2
  35              	.LC2:
  36 0038 3C636F6E 		.string	"<conn idx>: index of connection\r\n"
  36      6E206964 
  36      783E3A20 
  36      696E6465 
  36      78206F66 
  37 005a 0000     		.align	2
  38              	.LC3:
  39 005c 3C747820 		.string	"<tx oct>: preferred maximum number of payload octets in a single data PDU, Range 27 to 25
  39      6F63743E 
  39      3A207072 
  39      65666572 
  39      72656420 
  40 00b9 000000   		.align	2
  41              	.LC4:
  42 00bc 3C747820 		.string	"<tx time>: preferred maximum number of microseconds used to transmit a single data PDU, R
  42      74696D65 
  42      3E3A2070 
  42      72656665 
  42      72726564 
  43 0129 000000   		.align	2
  44              	.LC5:
  45 012c 73657420 		.string	"set pkt size fail status 0x%x\r\n"
  45      706B7420 
  45      73697A65 
  45      20666169 
  45      6C207374 
  46              		.section	.text.cmd_set_pkt_size,"ax",@progbits
  47              		.align	1
  49              	cmd_set_pkt_size:
  50              	.LFB45:
 800:C:/Users/stapi/OneDrive/Desktop/GD32VW553/GD32VW55X_Wifi_BLE_SDK/GD32VW55x_RELEASE_V1.0.2/MSDK/ble/app\app_cmd.c ****     char *endptr = NULL;
  51              		.loc 1 800 1
  52              		.cfi_startproc
  53              	.LVL1:
  54 0000 17030000 		call	t0,__riscv_save_3
  54      E7020300 
  55              		.cfi_offset 18, -16
  56              		.cfi_offset 9, -12
  57              		.cfi_offset 8, -8
  58              		.cfi_offset 1, -4
  59              		.cfi_def_cfa_offset 16
 801:C:/Users/stapi/OneDrive/Desktop/GD32VW553/GD32VW55X_Wifi_BLE_SDK/GD32VW55x_RELEASE_V1.0.2/MSDK/ble/app\app_cmd.c ****     uint16_t tx_oct;
  60              		.loc 1 801 5
 800:C:/Users/stapi/OneDrive/Desktop/GD32VW553/GD32VW55X_Wifi_BLE_SDK/GD32VW55x_RELEASE_V1.0.2/MSDK/ble/app\app_cmd.c ****     char *endptr = NULL;
  61              		.loc 1 800 1 is_stmt 0
  62 0008 4111     		addi	sp,sp,-16
  63              		.cfi_def_cfa_offset 32
 801:C:/Users/stapi/OneDrive/Desktop/GD32VW553/GD32VW55X_Wifi_BLE_SDK/GD32VW55x_RELEASE_V1.0.2/MSDK/ble/app\app_cmd.c ****     uint16_t tx_oct;
  64              		.loc 1 801 11
  65 000a 02C6     		sw	zero,12(sp)
 802:C:/Users/stapi/OneDrive/Desktop/GD32VW553/GD32VW55X_Wifi_BLE_SDK/GD32VW55x_RELEASE_V1.0.2/MSDK/ble/app\app_cmd.c ****     uint16_t tx_time;
  66              		.loc 1 802 5 is_stmt 1
 803:C:/Users/stapi/OneDrive/Desktop/GD32VW553/GD32VW55X_Wifi_BLE_SDK/GD32VW55x_RELEASE_V1.0.2/MSDK/ble/app\app_cmd.c ****     uint8_t conidx;
  67              		.loc 1 803 5
 804:C:/Users/stapi/OneDrive/Desktop/GD32VW553/GD32VW55X_Wifi_BLE_SDK/GD32VW55x_RELEASE_V1.0.2/MSDK/ble/app\app_cmd.c ****     ble_status_t ret;
  68              		.loc 1 804 5
 805:C:/Users/stapi/OneDrive/Desktop/GD32VW553/GD32VW55X_Wifi_BLE_SDK/GD32VW55x_RELEASE_V1.0.2/MSDK/ble/app\app_cmd.c **** 
  69              		.loc 1 805 5
 807:C:/Users/stapi/OneDrive/Desktop/GD32VW553/GD32VW55X_Wifi_BLE_SDK/GD32VW55x_RELEASE_V1.0.2/MSDK/ble/app\app_cmd.c ****         goto usage;
  70              		.loc 1 807 5
 807:C:/Users/stapi/OneDrive/Desktop/GD32VW553/GD32VW55X_Wifi_BLE_SDK/GD32VW55x_RELEASE_V1.0.2/MSDK/ble/app\app_cmd.c ****         goto usage;
  71              		.loc 1 807 8 is_stmt 0
  72 000c 9147     		li	a5,4
  73 000e 6307F504 		beq	a0,a5,.L4
 808:C:/Users/stapi/OneDrive/Desktop/GD32VW553/GD32VW55X_Wifi_BLE_SDK/GD32VW55x_RELEASE_V1.0.2/MSDK/ble/app\app_cmd.c ****     }
  74              		.loc 1 808 9 is_stmt 1
  75              	.LDL1:
 823:C:/Users/stapi/OneDrive/Desktop/GD32VW553/GD32VW55X_Wifi_BLE_SDK/GD32VW55x_RELEASE_V1.0.2/MSDK/ble/app\app_cmd.c ****     app_print("<conn idx>: index of connection\r\n");
  76              		.loc 1 823 5
  77 0012 37050000 		lui	a0,%hi(.LC1)
  78              	.LVL2:
  79 0016 13050500 		addi	a0,a0,%lo(.LC1)
  80 001a 97000000 		call	co_printf
  80      E7800000 
  81              	.LVL3:
 824:C:/Users/stapi/OneDrive/Desktop/GD32VW553/GD32VW55X_Wifi_BLE_SDK/GD32VW55x_RELEASE_V1.0.2/MSDK/ble/app\app_cmd.c ****     app_print("<tx oct>: preferred maximum number of payload octets in a single data PDU, Range 27 
  82              		.loc 1 824 5
  83 0022 37050000 		lui	a0,%hi(.LC2)
  84 0026 13050500 		addi	a0,a0,%lo(.LC2)
  85 002a 97000000 		call	co_printf
  85      E7800000 
  86              	.LVL4:
 825:C:/Users/stapi/OneDrive/Desktop/GD32VW553/GD32VW55X_Wifi_BLE_SDK/GD32VW55x_RELEASE_V1.0.2/MSDK/ble/app\app_cmd.c ****     app_print("<tx time>: preferred maximum number of microseconds used to transmit a single data P
  87              		.loc 1 825 5
  88 0032 37050000 		lui	a0,%hi(.LC3)
  89 0036 13050500 		addi	a0,a0,%lo(.LC3)
  90 003a 97000000 		call	co_printf
  90      E7800000 
  91              	.LVL5:
 826:C:/Users/stapi/OneDrive/Desktop/GD32VW553/GD32VW55X_Wifi_BLE_SDK/GD32VW55x_RELEASE_V1.0.2/MSDK/ble/app\app_cmd.c **** }
  92              		.loc 1 826 5
  93 0042 37050000 		lui	a0,%hi(.LC4)
  94 0046 13050500 		addi	a0,a0,%lo(.LC4)
  95 004a 97000000 		call	co_printf
  95      E7800000 
  96              	.LVL6:
  97              	.L3:
 827:C:/Users/stapi/OneDrive/Desktop/GD32VW553/GD32VW55X_Wifi_BLE_SDK/GD32VW55x_RELEASE_V1.0.2/MSDK/ble/app\app_cmd.c **** #endif // (BLE_APP_DATA_LEN_EXTEN_SUPPORT)
  98              		.loc 1 827 1 is_stmt 0
  99 0052 4101     		addi	sp,sp,16
 100              		.cfi_remember_state
 101              		.cfi_def_cfa_offset 0
 102 0054 17030000 		tail	__riscv_restore_3
 102      67000300 
 103              		.cfi_restore 18
 104              		.cfi_restore 9
 105              		.cfi_restore 8
 106              		.cfi_restore 1
 107              		.cfi_def_cfa_offset -16
 108              	.LVL7:
 109              	.L4:
 110              		.cfi_restore_state
 111 005c 2E84     		mv	s0,a1
 811:C:/Users/stapi/OneDrive/Desktop/GD32VW553/GD32VW55X_Wifi_BLE_SDK/GD32VW55x_RELEASE_V1.0.2/MSDK/ble/app\app_cmd.c ****     tx_oct = (uint16_t)strtoul((const char *)argv[2], &endptr, 10);
 112              		.loc 1 811 5 is_stmt 1
 811:C:/Users/stapi/OneDrive/Desktop/GD32VW553/GD32VW55X_Wifi_BLE_SDK/GD32VW55x_RELEASE_V1.0.2/MSDK/ble/app\app_cmd.c ****     tx_oct = (uint16_t)strtoul((const char *)argv[2], &endptr, 10);
 113              		.loc 1 811 23 is_stmt 0
 114 005e 4840     		lw	a0,4(s0)
 115              	.LVL8:
 116 0060 0146     		li	a2,0
 117 0062 6C00     		addi	a1,sp,12
 118              	.LVL9:
 119 0064 97000000 		call	strtoul
 119      E7800000 
 120              	.LVL10:
 121 006c AA84     		mv	s1,a0
 122              	.LVL11:
 812:C:/Users/stapi/OneDrive/Desktop/GD32VW553/GD32VW55X_Wifi_BLE_SDK/GD32VW55x_RELEASE_V1.0.2/MSDK/ble/app\app_cmd.c ****     tx_time = (uint16_t)strtoul((const char *)argv[3], &endptr, 10);
 123              		.loc 1 812 5 is_stmt 1
 812:C:/Users/stapi/OneDrive/Desktop/GD32VW553/GD32VW55X_Wifi_BLE_SDK/GD32VW55x_RELEASE_V1.0.2/MSDK/ble/app\app_cmd.c ****     tx_time = (uint16_t)strtoul((const char *)argv[3], &endptr, 10);
 124              		.loc 1 812 24 is_stmt 0
 125 006e 0844     		lw	a0,8(s0)
 126 0070 2946     		li	a2,10
 127 0072 6C00     		addi	a1,sp,12
 128 0074 97000000 		call	strtoul
 128      E7800000 
 129              	.LVL12:
 130 007c 2A89     		mv	s2,a0
 131              	.LVL13:
 813:C:/Users/stapi/OneDrive/Desktop/GD32VW553/GD32VW55X_Wifi_BLE_SDK/GD32VW55x_RELEASE_V1.0.2/MSDK/ble/app\app_cmd.c **** 
 132              		.loc 1 813 5 is_stmt 1
 813:C:/Users/stapi/OneDrive/Desktop/GD32VW553/GD32VW55X_Wifi_BLE_SDK/GD32VW55x_RELEASE_V1.0.2/MSDK/ble/app\app_cmd.c **** 
 133              		.loc 1 813 25 is_stmt 0
 134 007e 4844     		lw	a0,12(s0)
 135 0080 2946     		li	a2,10
 136 0082 6C00     		addi	a1,sp,12
 137 0084 97000000 		call	strtoul
 137      E7800000 
 138              	.LVL14:
 815:C:/Users/stapi/OneDrive/Desktop/GD32VW553/GD32VW55X_Wifi_BLE_SDK/GD32VW55x_RELEASE_V1.0.2/MSDK/ble/app\app_cmd.c ****     if (ret != BLE_ERR_NO_ERROR) {
 139              		.loc 1 815 5 is_stmt 1
 815:C:/Users/stapi/OneDrive/Desktop/GD32VW553/GD32VW55X_Wifi_BLE_SDK/GD32VW55x_RELEASE_V1.0.2/MSDK/ble/app\app_cmd.c ****     if (ret != BLE_ERR_NO_ERROR) {
 140              		.loc 1 815 11 is_stmt 0
 141 008c 33460508 		zext.h	a2,a0
 142 0090 13F5F40F 		andi	a0,s1,0xff
 143              	.LVL15:
 144 0094 B3450908 		zext.h	a1,s2
 145 0098 97000000 		call	ble_conn_pkt_size_set
 145      E7800000 
 146              	.LVL16:
 147 00a0 AA85     		mv	a1,a0
 148              	.LVL17:
 816:C:/Users/stapi/OneDrive/Desktop/GD32VW553/GD32VW55X_Wifi_BLE_SDK/GD32VW55x_RELEASE_V1.0.2/MSDK/ble/app\app_cmd.c ****         app_print("set pkt size fail status 0x%x\r\n", ret);
 149              		.loc 1 816 5 is_stmt 1
 816:C:/Users/stapi/OneDrive/Desktop/GD32VW553/GD32VW55X_Wifi_BLE_SDK/GD32VW55x_RELEASE_V1.0.2/MSDK/ble/app\app_cmd.c ****         app_print("set pkt size fail status 0x%x\r\n", ret);
 150              		.loc 1 816 8 is_stmt 0
 151 00a2 45D9     		beq	a0,zero,.L3
 817:C:/Users/stapi/OneDrive/Desktop/GD32VW553/GD32VW55X_Wifi_BLE_SDK/GD32VW55x_RELEASE_V1.0.2/MSDK/ble/app\app_cmd.c ****     }
 152              		.loc 1 817 9 is_stmt 1
 153 00a4 37050000 		lui	a0,%hi(.LC5)
 154              	.LVL18:
 155 00a8 13050500 		addi	a0,a0,%lo(.LC5)
 156 00ac 97000000 		call	co_printf
 156      E7800000 
 157              	.LVL19:
 820:C:/Users/stapi/OneDrive/Desktop/GD32VW553/GD32VW55X_Wifi_BLE_SDK/GD32VW55x_RELEASE_V1.0.2/MSDK/ble/app\app_cmd.c **** 
 158              		.loc 1 820 5
 159 00b4 79BF     		j	.L3
 160              		.cfi_endproc
 161              	.LFE45:
 163              		.section	.rodata.cmd_set_phy.str1.4,"aMS",@progbits,1
 164              		.align	2
 165              	.LC6:
 166 0000 55736167 		.string	"Usage: ble_set_phy <conn idx> <tx phy> <rx phy> <phy opt>\r\n"
 166      653A2062 
 166      6C655F73 
 166      65745F70 
 166      6879203C 
 167              		.align	2
 168              	.LC7:
 169 003c 3C747820 		.string	"<tx phy>: transmit phy to set\r\n"
 169      7068793E 
 169      3A207472 
 169      616E736D 
 169      69742070 
 170              		.align	2
 171              	.LC8:
 172 005c 09626974 		.string	"\tbit 0: 1M phy, bit 1: 2M phy, bit 2: coded phy\r\n"
 172      20303A20 
 172      314D2070 
 172      68792C20 
 172      62697420 
 173 008e 0000     		.align	2
 174              	.LC9:
 175 0090 3C727820 		.string	"<rx phy>: receive phy to set\r\n"
 175      7068793E 
 175      3A207265 
 175      63656976 
 175      65207068 
 176 00af 00       		.align	2
 177              	.LC10:
 178 00b0 3C706879 		.string	"<phy opt>: phy options for coded phy\r\n"
 178      206F7074 
 178      3E3A2070 
 178      6879206F 
 178      7074696F 
 179 00d7 00       		.align	2
 180              	.LC11:
 181 00d8 09307830 		.string	"\t0x00: no prefer coding\r\n"
 181      303A206E 
 181      6F207072 
 181      65666572 
 181      20636F64 
 182 00f2 0000     		.align	2
 183              	.LC12:
 184 00f4 09307830 		.string	"\t0x01: prefer S=2 coding be used\r\n"
 184      313A2070 
 184      72656665 
 184      7220533D 
 184      3220636F 
 185 0117 00       		.align	2
 186              	.LC13:
 187 0118 09307830 		.string	"\t0x02: prefer S=8 coding be used\r\n"
 187      323A2070 
 187      72656665 
 187      7220533D 
 187      3820636F 
 188 013b 00       		.align	2
 189              	.LC14:
 190 013c 73657420 		.string	"set phy fail status 0x%x\r\n"
 190      70687920 
 190      6661696C 
 190      20737461 
 190      74757320 
 191              		.section	.text.cmd_set_phy,"ax",@progbits
 192              		.align	1
 194              	cmd_set_phy:
 195              	.LFB43:
 736:C:/Users/stapi/OneDrive/Desktop/GD32VW553/GD32VW55X_Wifi_BLE_SDK/GD32VW55x_RELEASE_V1.0.2/MSDK/ble/app\app_cmd.c ****     char *endptr = NULL;
 196              		.loc 1 736 1
 197              		.cfi_startproc
 198              	.LVL20:
 199 0000 17030000 		call	t0,__riscv_save_4
 199      E7020300 
 200              		.cfi_offset 19, -20
 201              		.cfi_offset 18, -16
 202              		.cfi_offset 9, -12
 203              		.cfi_offset 8, -8
 204              		.cfi_offset 1, -4
 205              		.cfi_def_cfa_offset 32
 737:C:/Users/stapi/OneDrive/Desktop/GD32VW553/GD32VW55X_Wifi_BLE_SDK/GD32VW55x_RELEASE_V1.0.2/MSDK/ble/app\app_cmd.c ****     uint8_t tx_phy;
 206              		.loc 1 737 5
 736:C:/Users/stapi/OneDrive/Desktop/GD32VW553/GD32VW55X_Wifi_BLE_SDK/GD32VW55x_RELEASE_V1.0.2/MSDK/ble/app\app_cmd.c ****     char *endptr = NULL;
 207              		.loc 1 736 1 is_stmt 0
 208 0008 4111     		addi	sp,sp,-16
 209              		.cfi_def_cfa_offset 48
 737:C:/Users/stapi/OneDrive/Desktop/GD32VW553/GD32VW55X_Wifi_BLE_SDK/GD32VW55x_RELEASE_V1.0.2/MSDK/ble/app\app_cmd.c ****     uint8_t tx_phy;
 210              		.loc 1 737 11
 211 000a 02C6     		sw	zero,12(sp)
 738:C:/Users/stapi/OneDrive/Desktop/GD32VW553/GD32VW55X_Wifi_BLE_SDK/GD32VW55x_RELEASE_V1.0.2/MSDK/ble/app\app_cmd.c ****     uint8_t rx_phy;
 212              		.loc 1 738 5 is_stmt 1
 739:C:/Users/stapi/OneDrive/Desktop/GD32VW553/GD32VW55X_Wifi_BLE_SDK/GD32VW55x_RELEASE_V1.0.2/MSDK/ble/app\app_cmd.c ****     uint8_t phy_opt;
 213              		.loc 1 739 5
 740:C:/Users/stapi/OneDrive/Desktop/GD32VW553/GD32VW55X_Wifi_BLE_SDK/GD32VW55x_RELEASE_V1.0.2/MSDK/ble/app\app_cmd.c ****     uint8_t conidx;
 214              		.loc 1 740 5
 741:C:/Users/stapi/OneDrive/Desktop/GD32VW553/GD32VW55X_Wifi_BLE_SDK/GD32VW55x_RELEASE_V1.0.2/MSDK/ble/app\app_cmd.c ****     ble_status_t ret;
 215              		.loc 1 741 5
 742:C:/Users/stapi/OneDrive/Desktop/GD32VW553/GD32VW55X_Wifi_BLE_SDK/GD32VW55x_RELEASE_V1.0.2/MSDK/ble/app\app_cmd.c **** 
 216              		.loc 1 742 5
 744:C:/Users/stapi/OneDrive/Desktop/GD32VW553/GD32VW55X_Wifi_BLE_SDK/GD32VW55x_RELEASE_V1.0.2/MSDK/ble/app\app_cmd.c ****         goto usage;
 217              		.loc 1 744 5
 744:C:/Users/stapi/OneDrive/Desktop/GD32VW553/GD32VW55X_Wifi_BLE_SDK/GD32VW55x_RELEASE_V1.0.2/MSDK/ble/app\app_cmd.c ****         goto usage;
 218              		.loc 1 744 8 is_stmt 0
 219 000c 9547     		li	a5,5
 220 000e 6305F50A 		beq	a0,a5,.L12
 745:C:/Users/stapi/OneDrive/Desktop/GD32VW553/GD32VW55X_Wifi_BLE_SDK/GD32VW55x_RELEASE_V1.0.2/MSDK/ble/app\app_cmd.c ****     }
 221              		.loc 1 745 9 is_stmt 1
 222              	.LDL2:
 761:C:/Users/stapi/OneDrive/Desktop/GD32VW553/GD32VW55X_Wifi_BLE_SDK/GD32VW55x_RELEASE_V1.0.2/MSDK/ble/app\app_cmd.c ****     app_print("<conn idx>: index of connection\r\n");
 223              		.loc 1 761 5
 224 0012 37050000 		lui	a0,%hi(.LC6)
 225              	.LVL21:
 226 0016 13050500 		addi	a0,a0,%lo(.LC6)
 227 001a 97000000 		call	co_printf
 227      E7800000 
 228              	.LVL22:
 762:C:/Users/stapi/OneDrive/Desktop/GD32VW553/GD32VW55X_Wifi_BLE_SDK/GD32VW55x_RELEASE_V1.0.2/MSDK/ble/app\app_cmd.c ****     app_print("<tx phy>: transmit phy to set\r\n");
 229              		.loc 1 762 5
 230 0022 37050000 		lui	a0,%hi(.LC2)
 231 0026 13050500 		addi	a0,a0,%lo(.LC2)
 232 002a 97000000 		call	co_printf
 232      E7800000 
 233              	.LVL23:
 763:C:/Users/stapi/OneDrive/Desktop/GD32VW553/GD32VW55X_Wifi_BLE_SDK/GD32VW55x_RELEASE_V1.0.2/MSDK/ble/app\app_cmd.c ****     app_print("\tbit 0: 1M phy, bit 1: 2M phy, bit 2: coded phy\r\n");
 234              		.loc 1 763 5
 235 0032 37050000 		lui	a0,%hi(.LC7)
 236 0036 13050500 		addi	a0,a0,%lo(.LC7)
 237 003a 97000000 		call	co_printf
 237      E7800000 
 238              	.LVL24:
 764:C:/Users/stapi/OneDrive/Desktop/GD32VW553/GD32VW55X_Wifi_BLE_SDK/GD32VW55x_RELEASE_V1.0.2/MSDK/ble/app\app_cmd.c ****     app_print("<rx phy>: receive phy to set\r\n");
 239              		.loc 1 764 5
 240 0042 37040000 		lui	s0,%hi(.LC8)
 241 0046 13050400 		addi	a0,s0,%lo(.LC8)
 242 004a 97000000 		call	co_printf
 242      E7800000 
 243              	.LVL25:
 765:C:/Users/stapi/OneDrive/Desktop/GD32VW553/GD32VW55X_Wifi_BLE_SDK/GD32VW55x_RELEASE_V1.0.2/MSDK/ble/app\app_cmd.c ****     app_print("\tbit 0: 1M phy, bit 1: 2M phy, bit 2: coded phy\r\n");
 244              		.loc 1 765 5
 245 0052 37050000 		lui	a0,%hi(.LC9)
 246 0056 13050500 		addi	a0,a0,%lo(.LC9)
 247 005a 97000000 		call	co_printf
 247      E7800000 
 248              	.LVL26:
 766:C:/Users/stapi/OneDrive/Desktop/GD32VW553/GD32VW55X_Wifi_BLE_SDK/GD32VW55x_RELEASE_V1.0.2/MSDK/ble/app\app_cmd.c ****     app_print("<phy opt>: phy options for coded phy\r\n");
 249              		.loc 1 766 5
 250 0062 13050400 		addi	a0,s0,%lo(.LC8)
 251 0066 97000000 		call	co_printf
 251      E7800000 
 252              	.LVL27:
 767:C:/Users/stapi/OneDrive/Desktop/GD32VW553/GD32VW55X_Wifi_BLE_SDK/GD32VW55x_RELEASE_V1.0.2/MSDK/ble/app\app_cmd.c ****     app_print("\t0x00: no prefer coding\r\n");
 253              		.loc 1 767 5
 254 006e 37050000 		lui	a0,%hi(.LC10)
 255 0072 13050500 		addi	a0,a0,%lo(.LC10)
 256 0076 97000000 		call	co_printf
 256      E7800000 
 257              	.LVL28:
 768:C:/Users/stapi/OneDrive/Desktop/GD32VW553/GD32VW55X_Wifi_BLE_SDK/GD32VW55x_RELEASE_V1.0.2/MSDK/ble/app\app_cmd.c ****     app_print("\t0x01: prefer S=2 coding be used\r\n");
 258              		.loc 1 768 5
 259 007e 37050000 		lui	a0,%hi(.LC11)
 260 0082 13050500 		addi	a0,a0,%lo(.LC11)
 261 0086 97000000 		call	co_printf
 261      E7800000 
 262              	.LVL29:
 769:C:/Users/stapi/OneDrive/Desktop/GD32VW553/GD32VW55X_Wifi_BLE_SDK/GD32VW55x_RELEASE_V1.0.2/MSDK/ble/app\app_cmd.c ****     app_print("\t0x02: prefer S=8 coding be used\r\n");
 263              		.loc 1 769 5
 264 008e 37050000 		lui	a0,%hi(.LC12)
 265 0092 13050500 		addi	a0,a0,%lo(.LC12)
 266 0096 97000000 		call	co_printf
 266      E7800000 
 267              	.LVL30:
 770:C:/Users/stapi/OneDrive/Desktop/GD32VW553/GD32VW55X_Wifi_BLE_SDK/GD32VW55x_RELEASE_V1.0.2/MSDK/ble/app\app_cmd.c **** }
 268              		.loc 1 770 5
 269 009e 37050000 		lui	a0,%hi(.LC13)
 270 00a2 13050500 		addi	a0,a0,%lo(.LC13)
 271 00a6 97000000 		call	co_printf
 271      E7800000 
 272              	.LVL31:
 273              	.L11:
 771:C:/Users/stapi/OneDrive/Desktop/GD32VW553/GD32VW55X_Wifi_BLE_SDK/GD32VW55x_RELEASE_V1.0.2/MSDK/ble/app\app_cmd.c **** 
 274              		.loc 1 771 1 is_stmt 0
 275 00ae 4101     		addi	sp,sp,16
 276              		.cfi_remember_state
 277              		.cfi_def_cfa_offset 0
 278 00b0 17030000 		tail	__riscv_restore_4
 278      67000300 
 279              		.cfi_restore 19
 280              		.cfi_restore 18
 281              		.cfi_restore 9
 282              		.cfi_restore 8
 283              		.cfi_restore 1
 284              		.cfi_def_cfa_offset -32
 285              	.LVL32:
 286              	.L12:
 287              		.cfi_restore_state
 288 00b8 2E84     		mv	s0,a1
 748:C:/Users/stapi/OneDrive/Desktop/GD32VW553/GD32VW55X_Wifi_BLE_SDK/GD32VW55x_RELEASE_V1.0.2/MSDK/ble/app\app_cmd.c ****     tx_phy = (uint8_t)strtoul((const char *)argv[2], &endptr, 0);
 289              		.loc 1 748 5 is_stmt 1
 748:C:/Users/stapi/OneDrive/Desktop/GD32VW553/GD32VW55X_Wifi_BLE_SDK/GD32VW55x_RELEASE_V1.0.2/MSDK/ble/app\app_cmd.c ****     tx_phy = (uint8_t)strtoul((const char *)argv[2], &endptr, 0);
 290              		.loc 1 748 23 is_stmt 0
 291 00ba 4840     		lw	a0,4(s0)
 292              	.LVL33:
 293 00bc 0146     		li	a2,0
 294 00be 6C00     		addi	a1,sp,12
 295              	.LVL34:
 296 00c0 97000000 		call	strtoul
 296      E7800000 
 297              	.LVL35:
 298 00c8 AA84     		mv	s1,a0
 299              	.LVL36:
 749:C:/Users/stapi/OneDrive/Desktop/GD32VW553/GD32VW55X_Wifi_BLE_SDK/GD32VW55x_RELEASE_V1.0.2/MSDK/ble/app\app_cmd.c ****     rx_phy = (uint8_t)strtoul((const char *)argv[3], &endptr, 0);
 300              		.loc 1 749 5 is_stmt 1
 749:C:/Users/stapi/OneDrive/Desktop/GD32VW553/GD32VW55X_Wifi_BLE_SDK/GD32VW55x_RELEASE_V1.0.2/MSDK/ble/app\app_cmd.c ****     rx_phy = (uint8_t)strtoul((const char *)argv[3], &endptr, 0);
 301              		.loc 1 749 23 is_stmt 0
 302 00ca 0844     		lw	a0,8(s0)
 303 00cc 0146     		li	a2,0
 304 00ce 6C00     		addi	a1,sp,12
 305 00d0 97000000 		call	strtoul
 305      E7800000 
 306              	.LVL37:
 307 00d8 2A89     		mv	s2,a0
 308              	.LVL38:
 750:C:/Users/stapi/OneDrive/Desktop/GD32VW553/GD32VW55X_Wifi_BLE_SDK/GD32VW55x_RELEASE_V1.0.2/MSDK/ble/app\app_cmd.c ****     phy_opt = (uint8_t)strtoul((const char *)argv[4], &endptr, 0);
 309              		.loc 1 750 5 is_stmt 1
 750:C:/Users/stapi/OneDrive/Desktop/GD32VW553/GD32VW55X_Wifi_BLE_SDK/GD32VW55x_RELEASE_V1.0.2/MSDK/ble/app\app_cmd.c ****     phy_opt = (uint8_t)strtoul((const char *)argv[4], &endptr, 0);
 310              		.loc 1 750 23 is_stmt 0
 311 00da 4844     		lw	a0,12(s0)
 312 00dc 0146     		li	a2,0
 313 00de 6C00     		addi	a1,sp,12
 314 00e0 97000000 		call	strtoul
 314      E7800000 
 315              	.LVL39:
 316 00e8 AA89     		mv	s3,a0
 317              	.LVL40:
 751:C:/Users/stapi/OneDrive/Desktop/GD32VW553/GD32VW55X_Wifi_BLE_SDK/GD32VW55x_RELEASE_V1.0.2/MSDK/ble/app\app_cmd.c **** 
 318              		.loc 1 751 5 is_stmt 1
 751:C:/Users/stapi/OneDrive/Desktop/GD32VW553/GD32VW55X_Wifi_BLE_SDK/GD32VW55x_RELEASE_V1.0.2/MSDK/ble/app\app_cmd.c **** 
 319              		.loc 1 751 24 is_stmt 0
 320 00ea 0848     		lw	a0,16(s0)
 321 00ec 0146     		li	a2,0
 322 00ee 6C00     		addi	a1,sp,12
 323 00f0 97000000 		call	strtoul
 323      E7800000 
 324              	.LVL41:
 753:C:/Users/stapi/OneDrive/Desktop/GD32VW553/GD32VW55X_Wifi_BLE_SDK/GD32VW55x_RELEASE_V1.0.2/MSDK/ble/app\app_cmd.c ****     if (ret != BLE_ERR_NO_ERROR) {
 325              		.loc 1 753 5 is_stmt 1
 753:C:/Users/stapi/OneDrive/Desktop/GD32VW553/GD32VW55X_Wifi_BLE_SDK/GD32VW55x_RELEASE_V1.0.2/MSDK/ble/app\app_cmd.c ****     if (ret != BLE_ERR_NO_ERROR) {
 326              		.loc 1 753 11 is_stmt 0
 327 00f8 9376F50F 		andi	a3,a0,0xff
 328 00fc 9375F90F 		andi	a1,s2,0xff
 329 0100 13F6F90F 		andi	a2,s3,0xff
 330 0104 13F5F40F 		andi	a0,s1,0xff
 331              	.LVL42:
 332 0108 97000000 		call	ble_conn_phy_set
 332      E7800000 
 333              	.LVL43:
 334 0110 AA85     		mv	a1,a0
 335              	.LVL44:
 754:C:/Users/stapi/OneDrive/Desktop/GD32VW553/GD32VW55X_Wifi_BLE_SDK/GD32VW55x_RELEASE_V1.0.2/MSDK/ble/app\app_cmd.c ****         app_print("set phy fail status 0x%x\r\n", ret);
 336              		.loc 1 754 5 is_stmt 1
 754:C:/Users/stapi/OneDrive/Desktop/GD32VW553/GD32VW55X_Wifi_BLE_SDK/GD32VW55x_RELEASE_V1.0.2/MSDK/ble/app\app_cmd.c ****         app_print("set phy fail status 0x%x\r\n", ret);
 337              		.loc 1 754 8 is_stmt 0
 338 0112 51DD     		beq	a0,zero,.L11
 755:C:/Users/stapi/OneDrive/Desktop/GD32VW553/GD32VW55X_Wifi_BLE_SDK/GD32VW55x_RELEASE_V1.0.2/MSDK/ble/app\app_cmd.c ****     }
 339              		.loc 1 755 9 is_stmt 1
 340 0114 37050000 		lui	a0,%hi(.LC14)
 341              	.LVL45:
 342 0118 13050500 		addi	a0,a0,%lo(.LC14)
 343 011c 97000000 		call	co_printf
 343      E7800000 
 344              	.LVL46:
 758:C:/Users/stapi/OneDrive/Desktop/GD32VW553/GD32VW55X_Wifi_BLE_SDK/GD32VW55x_RELEASE_V1.0.2/MSDK/ble/app\app_cmd.c **** 
 345              		.loc 1 758 5
 346 0124 69B7     		j	.L11
 347              		.cfi_endproc
 348              	.LFE43:
 350              		.section	.rodata.cmd_ble_param_update.str1.4,"aMS",@progbits,1
 351              		.align	2
 352              	.LC15:
 353 0000 55736167 		.string	"Usage: ble_param_update <conn idx> <interval> <latency> <supv tout> <ce len>\r\n"
 353      653A2062 
 353      6C655F70 
 353      6172616D 
 353      5F757064 
 354 004f 00       		.align	2
 355              	.LC16:
 356 0050 3C696E74 		.string	"<interval>: connection interval in unit of 1.25ms, range from 0x0006 to 0x0C80 in hex val
 356      65727661 
 356      6C3E3A20 
 356      636F6E6E 
 356      65637469 
 357 00ae 0000     		.align	2
 358              	.LC17:
 359 00b0 3C6C6174 		.string	"<latency>: connection latency to update in hex value\r\n"
 359      656E6379 
 359      3E3A2063 
 359      6F6E6E65 
 359      6374696F 
 360 00e7 00       		.align	2
 361              	.LC18:
 362 00e8 3C737570 		.string	"<supv tout>: supervision timeout in unit of 10ms, range from 0x000A to 0x0C80 in hex valu
 362      7620746F 
 362      75743E3A 
 362      20737570 
 362      65727669 
 363 0145 000000   		.align	2
 364              	.LC19:
 365 0148 3C636520 		.string	"<ce len>: connection event length in unit of 0.625 ms in hex value\r\n"
 365      6C656E3E 
 365      3A20636F 
 365      6E6E6563 
 365      74696F6E 
 366 018d 000000   		.align	2
 367              	.LC20:
 368 0190 75706461 		.string	"update param fail status 0x%x\r\n"
 368      74652070 
 368      6172616D 
 368      20666169 
 368      6C207374 
 369              		.section	.text.cmd_ble_param_update,"ax",@progbits
 370              		.align	1
 372              	cmd_ble_param_update:
 373              	.LFB40:
 652:C:/Users/stapi/OneDrive/Desktop/GD32VW553/GD32VW55X_Wifi_BLE_SDK/GD32VW55x_RELEASE_V1.0.2/MSDK/ble/app\app_cmd.c ****     char *endptr = NULL;
 374              		.loc 1 652 1
 375              		.cfi_startproc
 376              	.LVL47:
 377 0000 17030000 		call	t0,__riscv_save_5
 377      E7020300 
 378              		.cfi_offset 20, -24
 379              		.cfi_offset 19, -20
 380              		.cfi_offset 18, -16
 381              		.cfi_offset 9, -12
 382              		.cfi_offset 8, -8
 383              		.cfi_offset 1, -4
 384              		.cfi_def_cfa_offset 32
 653:C:/Users/stapi/OneDrive/Desktop/GD32VW553/GD32VW55X_Wifi_BLE_SDK/GD32VW55x_RELEASE_V1.0.2/MSDK/ble/app\app_cmd.c ****     uint16_t interval;
 385              		.loc 1 653 5
 652:C:/Users/stapi/OneDrive/Desktop/GD32VW553/GD32VW55X_Wifi_BLE_SDK/GD32VW55x_RELEASE_V1.0.2/MSDK/ble/app\app_cmd.c ****     char *endptr = NULL;
 386              		.loc 1 652 1 is_stmt 0
 387 0008 4111     		addi	sp,sp,-16
 388              		.cfi_def_cfa_offset 48
 653:C:/Users/stapi/OneDrive/Desktop/GD32VW553/GD32VW55X_Wifi_BLE_SDK/GD32VW55x_RELEASE_V1.0.2/MSDK/ble/app\app_cmd.c ****     uint16_t interval;
 389              		.loc 1 653 11
 390 000a 02C6     		sw	zero,12(sp)
 654:C:/Users/stapi/OneDrive/Desktop/GD32VW553/GD32VW55X_Wifi_BLE_SDK/GD32VW55x_RELEASE_V1.0.2/MSDK/ble/app\app_cmd.c ****     uint16_t latency;
 391              		.loc 1 654 5 is_stmt 1
 655:C:/Users/stapi/OneDrive/Desktop/GD32VW553/GD32VW55X_Wifi_BLE_SDK/GD32VW55x_RELEASE_V1.0.2/MSDK/ble/app\app_cmd.c ****     uint16_t supv_to;
 392              		.loc 1 655 5
 656:C:/Users/stapi/OneDrive/Desktop/GD32VW553/GD32VW55X_Wifi_BLE_SDK/GD32VW55x_RELEASE_V1.0.2/MSDK/ble/app\app_cmd.c ****     uint16_t ce_len;
 393              		.loc 1 656 5
 657:C:/Users/stapi/OneDrive/Desktop/GD32VW553/GD32VW55X_Wifi_BLE_SDK/GD32VW55x_RELEASE_V1.0.2/MSDK/ble/app\app_cmd.c ****     uint8_t idx;
 394              		.loc 1 657 5
 658:C:/Users/stapi/OneDrive/Desktop/GD32VW553/GD32VW55X_Wifi_BLE_SDK/GD32VW55x_RELEASE_V1.0.2/MSDK/ble/app\app_cmd.c ****     ble_status_t ret;
 395              		.loc 1 658 5
 659:C:/Users/stapi/OneDrive/Desktop/GD32VW553/GD32VW55X_Wifi_BLE_SDK/GD32VW55x_RELEASE_V1.0.2/MSDK/ble/app\app_cmd.c **** 
 396              		.loc 1 659 5
 661:C:/Users/stapi/OneDrive/Desktop/GD32VW553/GD32VW55X_Wifi_BLE_SDK/GD32VW55x_RELEASE_V1.0.2/MSDK/ble/app\app_cmd.c ****         goto usage;
 397              		.loc 1 661 5
 661:C:/Users/stapi/OneDrive/Desktop/GD32VW553/GD32VW55X_Wifi_BLE_SDK/GD32VW55x_RELEASE_V1.0.2/MSDK/ble/app\app_cmd.c ****         goto usage;
 398              		.loc 1 661 8 is_stmt 0
 399 000c 9947     		li	a5,6
 400 000e 6307F506 		beq	a0,a5,.L20
 662:C:/Users/stapi/OneDrive/Desktop/GD32VW553/GD32VW55X_Wifi_BLE_SDK/GD32VW55x_RELEASE_V1.0.2/MSDK/ble/app\app_cmd.c ****     }
 401              		.loc 1 662 9 is_stmt 1
 402              	.LDL3:
 679:C:/Users/stapi/OneDrive/Desktop/GD32VW553/GD32VW55X_Wifi_BLE_SDK/GD32VW55x_RELEASE_V1.0.2/MSDK/ble/app\app_cmd.c ****     app_print("<conn idx>: index of connection\r\n");
 403              		.loc 1 679 5
 404 0012 37050000 		lui	a0,%hi(.LC15)
 405              	.LVL48:
 406 0016 13050500 		addi	a0,a0,%lo(.LC15)
 407 001a 97000000 		call	co_printf
 407      E7800000 
 408              	.LVL49:
 680:C:/Users/stapi/OneDrive/Desktop/GD32VW553/GD32VW55X_Wifi_BLE_SDK/GD32VW55x_RELEASE_V1.0.2/MSDK/ble/app\app_cmd.c ****     app_print("<interval>: connection interval in unit of 1.25ms, range from 0x0006 to 0x0C80 in he
 409              		.loc 1 680 5
 410 0022 37050000 		lui	a0,%hi(.LC2)
 411 0026 13050500 		addi	a0,a0,%lo(.LC2)
 412 002a 97000000 		call	co_printf
 412      E7800000 
 413              	.LVL50:
 681:C:/Users/stapi/OneDrive/Desktop/GD32VW553/GD32VW55X_Wifi_BLE_SDK/GD32VW55x_RELEASE_V1.0.2/MSDK/ble/app\app_cmd.c ****     app_print("<latency>: connection latency to update in hex value\r\n");
 414              		.loc 1 681 5
 415 0032 37050000 		lui	a0,%hi(.LC16)
 416 0036 13050500 		addi	a0,a0,%lo(.LC16)
 417 003a 97000000 		call	co_printf
 417      E7800000 
 418              	.LVL51:
 682:C:/Users/stapi/OneDrive/Desktop/GD32VW553/GD32VW55X_Wifi_BLE_SDK/GD32VW55x_RELEASE_V1.0.2/MSDK/ble/app\app_cmd.c ****     app_print("<supv tout>: supervision timeout in unit of 10ms, range from 0x000A to 0x0C80 in hex
 419              		.loc 1 682 5
 420 0042 37050000 		lui	a0,%hi(.LC17)
 421 0046 13050500 		addi	a0,a0,%lo(.LC17)
 422 004a 97000000 		call	co_printf
 422      E7800000 
 423              	.LVL52:
 683:C:/Users/stapi/OneDrive/Desktop/GD32VW553/GD32VW55X_Wifi_BLE_SDK/GD32VW55x_RELEASE_V1.0.2/MSDK/ble/app\app_cmd.c ****     app_print("<ce len>: connection event length in unit of 0.625 ms in hex value\r\n");
 424              		.loc 1 683 5
 425 0052 37050000 		lui	a0,%hi(.LC18)
 426 0056 13050500 		addi	a0,a0,%lo(.LC18)
 427 005a 97000000 		call	co_printf
 427      E7800000 
 428              	.LVL53:
 684:C:/Users/stapi/OneDrive/Desktop/GD32VW553/GD32VW55X_Wifi_BLE_SDK/GD32VW55x_RELEASE_V1.0.2/MSDK/ble/app\app_cmd.c **** }
 429              		.loc 1 684 5
 430 0062 37050000 		lui	a0,%hi(.LC19)
 431 0066 13050500 		addi	a0,a0,%lo(.LC19)
 432 006a 97000000 		call	co_printf
 432      E7800000 
 433              	.LVL54:
 434              	.L19:
 685:C:/Users/stapi/OneDrive/Desktop/GD32VW553/GD32VW55X_Wifi_BLE_SDK/GD32VW55x_RELEASE_V1.0.2/MSDK/ble/app\app_cmd.c **** 
 435              		.loc 1 685 1 is_stmt 0
 436 0072 4101     		addi	sp,sp,16
 437              		.cfi_remember_state
 438              		.cfi_def_cfa_offset 0
 439 0074 17030000 		tail	__riscv_restore_5
 439      67000300 
 440              		.cfi_restore 20
 441              		.cfi_restore 19
 442              		.cfi_restore 18
 443              		.cfi_restore 9
 444              		.cfi_restore 8
 445              		.cfi_restore 1
 446              		.cfi_def_cfa_offset -32
 447              	.LVL55:
 448              	.L20:
 449              		.cfi_restore_state
 450 007c 2E84     		mv	s0,a1
 665:C:/Users/stapi/OneDrive/Desktop/GD32VW553/GD32VW55X_Wifi_BLE_SDK/GD32VW55x_RELEASE_V1.0.2/MSDK/ble/app\app_cmd.c ****     interval = (uint16_t)strtoul((const char *)argv[2], &endptr, 16);
 451              		.loc 1 665 5 is_stmt 1
 665:C:/Users/stapi/OneDrive/Desktop/GD32VW553/GD32VW55X_Wifi_BLE_SDK/GD32VW55x_RELEASE_V1.0.2/MSDK/ble/app\app_cmd.c ****     interval = (uint16_t)strtoul((const char *)argv[2], &endptr, 16);
 452              		.loc 1 665 20 is_stmt 0
 453 007e 4840     		lw	a0,4(s0)
 454              	.LVL56:
 455 0080 2946     		li	a2,10
 456 0082 6C00     		addi	a1,sp,12
 457              	.LVL57:
 458 0084 97000000 		call	strtoul
 458      E7800000 
 459              	.LVL58:
 460 008c AA84     		mv	s1,a0
 461              	.LVL59:
 666:C:/Users/stapi/OneDrive/Desktop/GD32VW553/GD32VW55X_Wifi_BLE_SDK/GD32VW55x_RELEASE_V1.0.2/MSDK/ble/app\app_cmd.c ****     latency  = (uint16_t)strtoul((const char *)argv[3], &endptr, 16);
 462              		.loc 1 666 5 is_stmt 1
 666:C:/Users/stapi/OneDrive/Desktop/GD32VW553/GD32VW55X_Wifi_BLE_SDK/GD32VW55x_RELEASE_V1.0.2/MSDK/ble/app\app_cmd.c ****     latency  = (uint16_t)strtoul((const char *)argv[3], &endptr, 16);
 463              		.loc 1 666 26 is_stmt 0
 464 008e 0844     		lw	a0,8(s0)
 465 0090 4146     		li	a2,16
 466 0092 6C00     		addi	a1,sp,12
 467 0094 97000000 		call	strtoul
 467      E7800000 
 468              	.LVL60:
 666:C:/Users/stapi/OneDrive/Desktop/GD32VW553/GD32VW55X_Wifi_BLE_SDK/GD32VW55x_RELEASE_V1.0.2/MSDK/ble/app\app_cmd.c ****     latency  = (uint16_t)strtoul((const char *)argv[3], &endptr, 16);
 469              		.loc 1 666 14
 470 009c 33490508 		zext.h	s2,a0
 471              	.LVL61:
 667:C:/Users/stapi/OneDrive/Desktop/GD32VW553/GD32VW55X_Wifi_BLE_SDK/GD32VW55x_RELEASE_V1.0.2/MSDK/ble/app\app_cmd.c ****     supv_to  = (uint16_t)strtoul((const char *)argv[4], &endptr, 16);
 472              		.loc 1 667 5 is_stmt 1
 667:C:/Users/stapi/OneDrive/Desktop/GD32VW553/GD32VW55X_Wifi_BLE_SDK/GD32VW55x_RELEASE_V1.0.2/MSDK/ble/app\app_cmd.c ****     supv_to  = (uint16_t)strtoul((const char *)argv[4], &endptr, 16);
 473              		.loc 1 667 26 is_stmt 0
 474 00a0 4844     		lw	a0,12(s0)
 475 00a2 4146     		li	a2,16
 476 00a4 6C00     		addi	a1,sp,12
 477 00a6 97000000 		call	strtoul
 477      E7800000 
 478              	.LVL62:
 479 00ae AA89     		mv	s3,a0
 480              	.LVL63:
 668:C:/Users/stapi/OneDrive/Desktop/GD32VW553/GD32VW55X_Wifi_BLE_SDK/GD32VW55x_RELEASE_V1.0.2/MSDK/ble/app\app_cmd.c ****     ce_len   = (uint16_t)strtoul((const char *)argv[5], &endptr, 16);
 481              		.loc 1 668 5 is_stmt 1
 668:C:/Users/stapi/OneDrive/Desktop/GD32VW553/GD32VW55X_Wifi_BLE_SDK/GD32VW55x_RELEASE_V1.0.2/MSDK/ble/app\app_cmd.c ****     ce_len   = (uint16_t)strtoul((const char *)argv[5], &endptr, 16);
 482              		.loc 1 668 26 is_stmt 0
 483 00b0 0848     		lw	a0,16(s0)
 484 00b2 4146     		li	a2,16
 485 00b4 6C00     		addi	a1,sp,12
 486 00b6 97000000 		call	strtoul
 486      E7800000 
 487              	.LVL64:
 488 00be 2A8A     		mv	s4,a0
 489              	.LVL65:
 669:C:/Users/stapi/OneDrive/Desktop/GD32VW553/GD32VW55X_Wifi_BLE_SDK/GD32VW55x_RELEASE_V1.0.2/MSDK/ble/app\app_cmd.c **** 
 490              		.loc 1 669 5 is_stmt 1
 669:C:/Users/stapi/OneDrive/Desktop/GD32VW553/GD32VW55X_Wifi_BLE_SDK/GD32VW55x_RELEASE_V1.0.2/MSDK/ble/app\app_cmd.c **** 
 491              		.loc 1 669 26 is_stmt 0
 492 00c0 4848     		lw	a0,20(s0)
 493 00c2 4146     		li	a2,16
 494 00c4 6C00     		addi	a1,sp,12
 495 00c6 97000000 		call	strtoul
 495      E7800000 
 496              	.LVL66:
 669:C:/Users/stapi/OneDrive/Desktop/GD32VW553/GD32VW55X_Wifi_BLE_SDK/GD32VW55x_RELEASE_V1.0.2/MSDK/ble/app\app_cmd.c **** 
 497              		.loc 1 669 14
 498 00ce 33480508 		zext.h	a6,a0
 499              	.LVL67:
 671:C:/Users/stapi/OneDrive/Desktop/GD32VW553/GD32VW55X_Wifi_BLE_SDK/GD32VW55x_RELEASE_V1.0.2/MSDK/ble/app\app_cmd.c ****     if (ret != BLE_ERR_NO_ERROR) {
 500              		.loc 1 671 5 is_stmt 1
 671:C:/Users/stapi/OneDrive/Desktop/GD32VW553/GD32VW55X_Wifi_BLE_SDK/GD32VW55x_RELEASE_V1.0.2/MSDK/ble/app\app_cmd.c ****     if (ret != BLE_ERR_NO_ERROR) {
 501              		.loc 1 671 11 is_stmt 0
 502 00d2 CA85     		mv	a1,s2
 503 00d4 C287     		mv	a5,a6
 504 00d6 4A86     		mv	a2,s2
 505 00d8 13F5F40F 		andi	a0,s1,0xff
 506 00dc 33470A08 		zext.h	a4,s4
 507 00e0 B3C60908 		zext.h	a3,s3
 508 00e4 97000000 		call	ble_conn_param_update_req
 508      E7800000 
 509              	.LVL68:
 510 00ec AA85     		mv	a1,a0
 511              	.LVL69:
 672:C:/Users/stapi/OneDrive/Desktop/GD32VW553/GD32VW55X_Wifi_BLE_SDK/GD32VW55x_RELEASE_V1.0.2/MSDK/ble/app\app_cmd.c ****         app_print("update param fail status 0x%x\r\n", ret);
 512              		.loc 1 672 5 is_stmt 1
 672:C:/Users/stapi/OneDrive/Desktop/GD32VW553/GD32VW55X_Wifi_BLE_SDK/GD32VW55x_RELEASE_V1.0.2/MSDK/ble/app\app_cmd.c ****         app_print("update param fail status 0x%x\r\n", ret);
 513              		.loc 1 672 8 is_stmt 0
 514 00ee 51D1     		beq	a0,zero,.L19
 673:C:/Users/stapi/OneDrive/Desktop/GD32VW553/GD32VW55X_Wifi_BLE_SDK/GD32VW55x_RELEASE_V1.0.2/MSDK/ble/app\app_cmd.c ****     }
 515              		.loc 1 673 9 is_stmt 1
 516 00f0 37050000 		lui	a0,%hi(.LC20)
 517              	.LVL70:
 518 00f4 13050500 		addi	a0,a0,%lo(.LC20)
 519 00f8 97000000 		call	co_printf
 519      E7800000 
 520              	.LVL71:
 676:C:/Users/stapi/OneDrive/Desktop/GD32VW553/GD32VW55X_Wifi_BLE_SDK/GD32VW55x_RELEASE_V1.0.2/MSDK/ble/app\app_cmd.c **** 
 521              		.loc 1 676 5
 522 0100 8DBF     		j	.L19
 523              		.cfi_endproc
 524              	.LFE40:
 526              		.section	.rodata.cmd_passkey.str1.4,"aMS",@progbits,1
 527              		.align	2
 528              	.LC21:
 529 0000 55736167 		.string	"Usage: ble_passkey <conn idx> <passkey>\r\n"
 529      653A2062 
 529      6C655F70 
 529      6173736B 
 529      6579203C 
 530 002a 0000     		.align	2
 531              	.LC22:
 532 002c 3C636F6E 		.string	"<conn idx>: index of connection to input passkey\r\n"
 532      6E206964 
 532      783E3A20 
 532      696E6465 
 532      78206F66 
 533 005f 00       		.align	2
 534              	.LC23:
 535 0060 3C706173 		.string	"<passkey>: passkey value to input, should be 6-digit value between 000000 and 999999\r\n"
 535      736B6579 
 535      3E3A2070 
 535      6173736B 
 535      65792076 
 536              		.section	.text.cmd_passkey,"ax",@progbits
 537              		.align	1
 539              	cmd_passkey:
 540              	.LFB36:
 557:C:/Users/stapi/OneDrive/Desktop/GD32VW553/GD32VW55X_Wifi_BLE_SDK/GD32VW55x_RELEASE_V1.0.2/MSDK/ble/app\app_cmd.c ****     char *endptr = NULL;
 541              		.loc 1 557 1
 542              		.cfi_startproc
 543              	.LVL72:
 544 0000 17030000 		call	t0,__riscv_save_2
 544      E7020300 
 545              		.cfi_offset 9, -12
 546              		.cfi_offset 8, -8
 547              		.cfi_offset 1, -4
 548              		.cfi_def_cfa_offset 16
 558:C:/Users/stapi/OneDrive/Desktop/GD32VW553/GD32VW55X_Wifi_BLE_SDK/GD32VW55x_RELEASE_V1.0.2/MSDK/ble/app\app_cmd.c ****     uint8_t conidx = 0;
 549              		.loc 1 558 5
 557:C:/Users/stapi/OneDrive/Desktop/GD32VW553/GD32VW55X_Wifi_BLE_SDK/GD32VW55x_RELEASE_V1.0.2/MSDK/ble/app\app_cmd.c ****     char *endptr = NULL;
 550              		.loc 1 557 1 is_stmt 0
 551 0008 4111     		addi	sp,sp,-16
 552              		.cfi_def_cfa_offset 32
 558:C:/Users/stapi/OneDrive/Desktop/GD32VW553/GD32VW55X_Wifi_BLE_SDK/GD32VW55x_RELEASE_V1.0.2/MSDK/ble/app\app_cmd.c ****     uint8_t conidx = 0;
 553              		.loc 1 558 11
 554 000a 02C6     		sw	zero,12(sp)
 559:C:/Users/stapi/OneDrive/Desktop/GD32VW553/GD32VW55X_Wifi_BLE_SDK/GD32VW55x_RELEASE_V1.0.2/MSDK/ble/app\app_cmd.c ****     uint32_t passkey;
 555              		.loc 1 559 5 is_stmt 1
 556              	.LVL73:
 560:C:/Users/stapi/OneDrive/Desktop/GD32VW553/GD32VW55X_Wifi_BLE_SDK/GD32VW55x_RELEASE_V1.0.2/MSDK/ble/app\app_cmd.c **** 
 557              		.loc 1 560 5
 562:C:/Users/stapi/OneDrive/Desktop/GD32VW553/GD32VW55X_Wifi_BLE_SDK/GD32VW55x_RELEASE_V1.0.2/MSDK/ble/app\app_cmd.c ****         goto usage;
 558              		.loc 1 562 5
 562:C:/Users/stapi/OneDrive/Desktop/GD32VW553/GD32VW55X_Wifi_BLE_SDK/GD32VW55x_RELEASE_V1.0.2/MSDK/ble/app\app_cmd.c ****         goto usage;
 559              		.loc 1 562 8 is_stmt 0
 560 000c 8D47     		li	a5,3
 561 000e 6314F504 		bne	a0,a5,.L28
 562 0012 2E84     		mv	s0,a1
 566:C:/Users/stapi/OneDrive/Desktop/GD32VW553/GD32VW55X_Wifi_BLE_SDK/GD32VW55x_RELEASE_V1.0.2/MSDK/ble/app\app_cmd.c ****     passkey = (uint32_t)strtoul((const char *)argv[2], &endptr, 0);
 563              		.loc 1 566 5 is_stmt 1
 566:C:/Users/stapi/OneDrive/Desktop/GD32VW553/GD32VW55X_Wifi_BLE_SDK/GD32VW55x_RELEASE_V1.0.2/MSDK/ble/app\app_cmd.c ****     passkey = (uint32_t)strtoul((const char *)argv[2], &endptr, 0);
 564              		.loc 1 566 23 is_stmt 0
 565 0014 4840     		lw	a0,4(s0)
 566              	.LVL74:
 567 0016 0146     		li	a2,0
 568 0018 6C00     		addi	a1,sp,12
 569              	.LVL75:
 570 001a 97000000 		call	strtoul
 570      E7800000 
 571              	.LVL76:
 572 0022 AA84     		mv	s1,a0
 573              	.LVL77:
 567:C:/Users/stapi/OneDrive/Desktop/GD32VW553/GD32VW55X_Wifi_BLE_SDK/GD32VW55x_RELEASE_V1.0.2/MSDK/ble/app\app_cmd.c **** 
 574              		.loc 1 567 5 is_stmt 1
 567:C:/Users/stapi/OneDrive/Desktop/GD32VW553/GD32VW55X_Wifi_BLE_SDK/GD32VW55x_RELEASE_V1.0.2/MSDK/ble/app\app_cmd.c **** 
 575              		.loc 1 567 15 is_stmt 0
 576 0024 0844     		lw	a0,8(s0)
 577 0026 6C00     		addi	a1,sp,12
 578 0028 0146     		li	a2,0
 579 002a 97000000 		call	strtoul
 579      E7800000 
 580              	.LVL78:
 569:C:/Users/stapi/OneDrive/Desktop/GD32VW553/GD32VW55X_Wifi_BLE_SDK/GD32VW55x_RELEASE_V1.0.2/MSDK/ble/app\app_cmd.c ****         goto usage;
 581              		.loc 1 569 8
 582 0032 B7470F00 		li	a5,999424
 583 0036 9387F723 		addi	a5,a5,575
 567:C:/Users/stapi/OneDrive/Desktop/GD32VW553/GD32VW55X_Wifi_BLE_SDK/GD32VW55x_RELEASE_V1.0.2/MSDK/ble/app\app_cmd.c **** 
 584              		.loc 1 567 15
 585 003a AA85     		mv	a1,a0
 586              	.LVL79:
 569:C:/Users/stapi/OneDrive/Desktop/GD32VW553/GD32VW55X_Wifi_BLE_SDK/GD32VW55x_RELEASE_V1.0.2/MSDK/ble/app\app_cmd.c ****         goto usage;
 587              		.loc 1 569 5 is_stmt 1
 569:C:/Users/stapi/OneDrive/Desktop/GD32VW553/GD32VW55X_Wifi_BLE_SDK/GD32VW55x_RELEASE_V1.0.2/MSDK/ble/app\app_cmd.c ****         goto usage;
 588              		.loc 1 569 8 is_stmt 0
 589 003c 63EDA700 		bgtu	a0,a5,.L28
 573:C:/Users/stapi/OneDrive/Desktop/GD32VW553/GD32VW55X_Wifi_BLE_SDK/GD32VW55x_RELEASE_V1.0.2/MSDK/ble/app\app_cmd.c **** 
 590              		.loc 1 573 5 is_stmt 1
 591 0040 13F5F40F 		andi	a0,s1,0xff
 592              	.LVL80:
 593 0044 97000000 		call	app_sec_input_passkey
 593      E7800000 
 594              	.LVL81:
 575:C:/Users/stapi/OneDrive/Desktop/GD32VW553/GD32VW55X_Wifi_BLE_SDK/GD32VW55x_RELEASE_V1.0.2/MSDK/ble/app\app_cmd.c **** 
 595              		.loc 1 575 5
 596              	.L27:
 581:C:/Users/stapi/OneDrive/Desktop/GD32VW553/GD32VW55X_Wifi_BLE_SDK/GD32VW55x_RELEASE_V1.0.2/MSDK/ble/app\app_cmd.c **** 
 597              		.loc 1 581 1 is_stmt 0
 598 004c 4101     		addi	sp,sp,16
 599              		.cfi_remember_state
 600              		.cfi_def_cfa_offset 0
 601 004e 17030000 		tail	__riscv_restore_2
 601      67000300 
 602              		.cfi_restore 9
 603              		.cfi_restore 8
 604              		.cfi_restore 1
 605              		.cfi_def_cfa_offset -16
 606              	.L28:
 607              		.cfi_restore_state
 608              	.LDL4:
 578:C:/Users/stapi/OneDrive/Desktop/GD32VW553/GD32VW55X_Wifi_BLE_SDK/GD32VW55x_RELEASE_V1.0.2/MSDK/ble/app\app_cmd.c ****     app_print("<conn idx>: index of connection to input passkey\r\n");
 609              		.loc 1 578 5 is_stmt 1
 610 0056 37050000 		lui	a0,%hi(.LC21)
 611 005a 13050500 		addi	a0,a0,%lo(.LC21)
 612 005e 97000000 		call	co_printf
 612      E7800000 
 613              	.LVL82:
 579:C:/Users/stapi/OneDrive/Desktop/GD32VW553/GD32VW55X_Wifi_BLE_SDK/GD32VW55x_RELEASE_V1.0.2/MSDK/ble/app\app_cmd.c ****     app_print("<passkey>: passkey value to input, should be 6-digit value between 000000 and 999999
 614              		.loc 1 579 5
 615 0066 37050000 		lui	a0,%hi(.LC22)
 616 006a 13050500 		addi	a0,a0,%lo(.LC22)
 617 006e 97000000 		call	co_printf
 617      E7800000 
 618              	.LVL83:
 580:C:/Users/stapi/OneDrive/Desktop/GD32VW553/GD32VW55X_Wifi_BLE_SDK/GD32VW55x_RELEASE_V1.0.2/MSDK/ble/app\app_cmd.c **** }
 619              		.loc 1 580 5
 620 0076 37050000 		lui	a0,%hi(.LC23)
 621 007a 13050500 		addi	a0,a0,%lo(.LC23)
 622 007e 97000000 		call	co_printf
 622      E7800000 
 623              	.LVL84:
 624 0086 D9B7     		j	.L27
 625              		.cfi_endproc
 626              	.LFE36:
 628              		.section	.rodata.cmd_pair.str1.4,"aMS",@progbits,1
 629              		.align	2
 630              	.LC24:
 631 0000 55736167 		.string	"Usage: ble_pair <conn idx>\r\n"
 631      653A2062 
 631      6C655F70 
 631      61697220 
 631      3C636F6E 
 632 001d 000000   		.align	2
 633              	.LC25:
 634 0020 3C636F6E 		.string	"<conn idx>: index of the connection to pair\r\n"
 634      6E206964 
 634      783E3A20 
 634      696E6465 
 634      78206F66 
 635 004e 0000     		.align	2
 636              	.LC26:
 637 0050 6661696C 		.string	"fail to find device\r\n"
 637      20746F20 
 637      66696E64 
 637      20646576 
 637      6963650D 
 638              		.section	.text.cmd_pair,"ax",@progbits
 639              		.align	1
 641              	cmd_pair:
 642              	.LFB34:
 508:C:/Users/stapi/OneDrive/Desktop/GD32VW553/GD32VW55X_Wifi_BLE_SDK/GD32VW55x_RELEASE_V1.0.2/MSDK/ble/app\app_cmd.c ****     char *endptr = NULL;
 643              		.loc 1 508 1
 644              		.cfi_startproc
 645              	.LVL85:
 646 0000 17030000 		call	t0,__riscv_save_1
 646      E7020300 
 647              		.cfi_offset 8, -8
 648              		.cfi_offset 1, -4
 649              		.cfi_def_cfa_offset 16
 509:C:/Users/stapi/OneDrive/Desktop/GD32VW553/GD32VW55X_Wifi_BLE_SDK/GD32VW55x_RELEASE_V1.0.2/MSDK/ble/app\app_cmd.c ****     uint8_t conidx = 0;
 650              		.loc 1 509 5
 508:C:/Users/stapi/OneDrive/Desktop/GD32VW553/GD32VW55X_Wifi_BLE_SDK/GD32VW55x_RELEASE_V1.0.2/MSDK/ble/app\app_cmd.c ****     char *endptr = NULL;
 651              		.loc 1 508 1 is_stmt 0
 652 0008 4111     		addi	sp,sp,-16
 653              		.cfi_def_cfa_offset 32
 509:C:/Users/stapi/OneDrive/Desktop/GD32VW553/GD32VW55X_Wifi_BLE_SDK/GD32VW55x_RELEASE_V1.0.2/MSDK/ble/app\app_cmd.c ****     uint8_t conidx = 0;
 654              		.loc 1 509 11
 655 000a 02C6     		sw	zero,12(sp)
 510:C:/Users/stapi/OneDrive/Desktop/GD32VW553/GD32VW55X_Wifi_BLE_SDK/GD32VW55x_RELEASE_V1.0.2/MSDK/ble/app\app_cmd.c ****     ble_device_t *p_device;
 656              		.loc 1 510 5 is_stmt 1
 657              	.LVL86:
 511:C:/Users/stapi/OneDrive/Desktop/GD32VW553/GD32VW55X_Wifi_BLE_SDK/GD32VW55x_RELEASE_V1.0.2/MSDK/ble/app\app_cmd.c **** 
 658              		.loc 1 511 5
 513:C:/Users/stapi/OneDrive/Desktop/GD32VW553/GD32VW55X_Wifi_BLE_SDK/GD32VW55x_RELEASE_V1.0.2/MSDK/ble/app\app_cmd.c ****         goto usage;
 659              		.loc 1 513 5
 513:C:/Users/stapi/OneDrive/Desktop/GD32VW553/GD32VW55X_Wifi_BLE_SDK/GD32VW55x_RELEASE_V1.0.2/MSDK/ble/app\app_cmd.c ****         goto usage;
 660              		.loc 1 513 8 is_stmt 0
 661 000c 0947     		li	a4,2
 662 000e 6307E502 		beq	a0,a4,.L32
 514:C:/Users/stapi/OneDrive/Desktop/GD32VW553/GD32VW55X_Wifi_BLE_SDK/GD32VW55x_RELEASE_V1.0.2/MSDK/ble/app\app_cmd.c ****     }
 663              		.loc 1 514 9 is_stmt 1
 664              	.LDL5:
 533:C:/Users/stapi/OneDrive/Desktop/GD32VW553/GD32VW55X_Wifi_BLE_SDK/GD32VW55x_RELEASE_V1.0.2/MSDK/ble/app\app_cmd.c ****     app_print("<conn idx>: index of the connection to pair\r\n");
 665              		.loc 1 533 5
 666 0012 37050000 		lui	a0,%hi(.LC24)
 667              	.LVL87:
 668 0016 13050500 		addi	a0,a0,%lo(.LC24)
 669 001a 97000000 		call	co_printf
 669      E7800000 
 670              	.LVL88:
 534:C:/Users/stapi/OneDrive/Desktop/GD32VW553/GD32VW55X_Wifi_BLE_SDK/GD32VW55x_RELEASE_V1.0.2/MSDK/ble/app\app_cmd.c **** }
 671              		.loc 1 534 5
 672 0022 37050000 		lui	a0,%hi(.LC25)
 673 0026 13050500 		addi	a0,a0,%lo(.LC25)
 674              	.LVL89:
 675              	.L38:
 520:C:/Users/stapi/OneDrive/Desktop/GD32VW553/GD32VW55X_Wifi_BLE_SDK/GD32VW55x_RELEASE_V1.0.2/MSDK/ble/app\app_cmd.c ****         return;
 676              		.loc 1 520 9 is_stmt 0
 677 002a 97000000 		call	co_printf
 677      E7800000 
 678              	.LVL90:
 521:C:/Users/stapi/OneDrive/Desktop/GD32VW553/GD32VW55X_Wifi_BLE_SDK/GD32VW55x_RELEASE_V1.0.2/MSDK/ble/app\app_cmd.c ****     }
 679              		.loc 1 521 9 is_stmt 1
 680              	.L31:
 535:C:/Users/stapi/OneDrive/Desktop/GD32VW553/GD32VW55X_Wifi_BLE_SDK/GD32VW55x_RELEASE_V1.0.2/MSDK/ble/app\app_cmd.c **** 
 681              		.loc 1 535 1 is_stmt 0
 682 0032 4101     		addi	sp,sp,16
 683              		.cfi_remember_state
 684              		.cfi_def_cfa_offset 0
 685 0034 17030000 		tail	__riscv_restore_1
 685      67000300 
 686              		.cfi_restore 8
 687              		.cfi_restore 1
 688              		.cfi_def_cfa_offset -16
 689              	.LVL91:
 690              	.L32:
 691              		.cfi_restore_state
 692 003c AE87     		mv	a5,a1
 517:C:/Users/stapi/OneDrive/Desktop/GD32VW553/GD32VW55X_Wifi_BLE_SDK/GD32VW55x_RELEASE_V1.0.2/MSDK/ble/app\app_cmd.c ****     p_device = dm_find_dev_by_conidx(conidx);
 693              		.loc 1 517 5 is_stmt 1
 517:C:/Users/stapi/OneDrive/Desktop/GD32VW553/GD32VW55X_Wifi_BLE_SDK/GD32VW55x_RELEASE_V1.0.2/MSDK/ble/app\app_cmd.c ****     p_device = dm_find_dev_by_conidx(conidx);
 694              		.loc 1 517 23 is_stmt 0
 695 003e C843     		lw	a0,4(a5)
 696              	.LVL92:
 697 0040 0146     		li	a2,0
 698 0042 6C00     		addi	a1,sp,12
 699              	.LVL93:
 700 0044 97000000 		call	strtoul
 700      E7800000 
 701              	.LVL94:
 517:C:/Users/stapi/OneDrive/Desktop/GD32VW553/GD32VW55X_Wifi_BLE_SDK/GD32VW55x_RELEASE_V1.0.2/MSDK/ble/app\app_cmd.c ****     p_device = dm_find_dev_by_conidx(conidx);
 702              		.loc 1 517 12
 703 004c 1374F50F 		andi	s0,a0,0xff
 704              	.LVL95:
 518:C:/Users/stapi/OneDrive/Desktop/GD32VW553/GD32VW55X_Wifi_BLE_SDK/GD32VW55x_RELEASE_V1.0.2/MSDK/ble/app\app_cmd.c ****     if (p_device == NULL) {
 705              		.loc 1 518 5 is_stmt 1
 518:C:/Users/stapi/OneDrive/Desktop/GD32VW553/GD32VW55X_Wifi_BLE_SDK/GD32VW55x_RELEASE_V1.0.2/MSDK/ble/app\app_cmd.c ****     if (p_device == NULL) {
 706              		.loc 1 518 16 is_stmt 0
 707 0050 2285     		mv	a0,s0
 708 0052 97000000 		call	dm_find_dev_by_conidx
 708      E7800000 
 709              	.LVL96:
 519:C:/Users/stapi/OneDrive/Desktop/GD32VW553/GD32VW55X_Wifi_BLE_SDK/GD32VW55x_RELEASE_V1.0.2/MSDK/ble/app\app_cmd.c ****         app_print("fail to find device\r\n");
 710              		.loc 1 519 5 is_stmt 1
 519:C:/Users/stapi/OneDrive/Desktop/GD32VW553/GD32VW55X_Wifi_BLE_SDK/GD32VW55x_RELEASE_V1.0.2/MSDK/ble/app\app_cmd.c ****         app_print("fail to find device\r\n");
 711              		.loc 1 519 8 is_stmt 0
 712 005a 11E5     		bne	a0,zero,.L34
 520:C:/Users/stapi/OneDrive/Desktop/GD32VW553/GD32VW55X_Wifi_BLE_SDK/GD32VW55x_RELEASE_V1.0.2/MSDK/ble/app\app_cmd.c ****         return;
 713              		.loc 1 520 9 is_stmt 1
 714 005c 37050000 		lui	a0,%hi(.LC26)
 715              	.LVL97:
 716 0060 13050500 		addi	a0,a0,%lo(.LC26)
 717 0064 D9B7     		j	.L38
 718              	.LVL98:
 719              	.L34:
 524:C:/Users/stapi/OneDrive/Desktop/GD32VW553/GD32VW55X_Wifi_BLE_SDK/GD32VW55x_RELEASE_V1.0.2/MSDK/ble/app\app_cmd.c ****         app_sec_send_bond_req(conidx);
 720              		.loc 1 524 5
 524:C:/Users/stapi/OneDrive/Desktop/GD32VW553/GD32VW55X_Wifi_BLE_SDK/GD32VW55x_RELEASE_V1.0.2/MSDK/ble/app\app_cmd.c ****         app_sec_send_bond_req(conidx);
 721              		.loc 1 524 8 is_stmt 0
 722 0066 5C4D     		lw	a5,28(a0)
 525:C:/Users/stapi/OneDrive/Desktop/GD32VW553/GD32VW55X_Wifi_BLE_SDK/GD32VW55x_RELEASE_V1.0.2/MSDK/ble/app\app_cmd.c ****     } else {
 723              		.loc 1 525 9
 724 0068 2285     		mv	a0,s0
 725              	.LVL99:
 524:C:/Users/stapi/OneDrive/Desktop/GD32VW553/GD32VW55X_Wifi_BLE_SDK/GD32VW55x_RELEASE_V1.0.2/MSDK/ble/app\app_cmd.c ****         app_sec_send_bond_req(conidx);
 726              		.loc 1 524 8
 727 006a 91E7     		bne	a5,zero,.L36
 525:C:/Users/stapi/OneDrive/Desktop/GD32VW553/GD32VW55X_Wifi_BLE_SDK/GD32VW55x_RELEASE_V1.0.2/MSDK/ble/app\app_cmd.c ****     } else {
 728              		.loc 1 525 9 is_stmt 1
 729 006c 97000000 		call	app_sec_send_bond_req
 729      E7800000 
 730              	.LVL100:
 731 0074 7DBF     		j	.L31
 732              	.L36:
 527:C:/Users/stapi/OneDrive/Desktop/GD32VW553/GD32VW55X_Wifi_BLE_SDK/GD32VW55x_RELEASE_V1.0.2/MSDK/ble/app\app_cmd.c ****     }
 733              		.loc 1 527 9
 734 0076 97000000 		call	app_sec_send_security_req
 734      E7800000 
 735              	.LVL101:
 736 007e 55BF     		j	.L31
 737              		.cfi_endproc
 738              	.LFE34:
 740              		.section	.rodata.cmd_set_auth.str1.4,"aMS",@progbits,1
 741              		.align	2
 742              	.LC27:
 743 0000 626C6520 		.string	"ble set auth success.\r\n"
 743      73657420 
 743      61757468 
 743      20737563 
 743      63657373 
 744              		.align	2
 745              	.LC28:
 746 0018 55736167 		.string	"Usage: ble_set_auth <bond> <mitm> <sc> <iocap>\r\n"
 746      653A2062 
 746      6C655F73 
 746      65745F61 
 746      75746820 
 747 0049 000000   		.align	2
 748              	.LC29:
 749 004c 3C626F6E 		.string	"<bond>: bonding flag for authentication\r\n"
 749      643E3A20 
 749      626F6E64 
 749      696E6720 
 749      666C6167 
 750 0076 0000     		.align	2
 751              	.LC30:
 752 0078 09307830 		.string	"\t0x00: no bonding\r\n"
 752      303A206E 
 752      6F20626F 
 752      6E64696E 
 752      670D0A00 
 753              		.align	2
 754              	.LC31:
 755 008c 09307830 		.string	"\t0x01: bonding\r\n"
 755      313A2062 
 755      6F6E6469 
 755      6E670D0A 
 755      00
 756 009d 000000   		.align	2
 757              	.LC32:
 758 00a0 3C6D6974 		.string	"<mitm>: mitm flag for authentication\r\n"
 758      6D3E3A20 
 758      6D69746D 
 758      20666C61 
 758      6720666F 
 759 00c7 00       		.align	2
 760              	.LC33:
 761 00c8 09307830 		.string	"\t0x00: mitm protection not required\r\n"
 761      303A206D 
 761      69746D20 
 761      70726F74 
 761      65637469 
 762 00ee 0000     		.align	2
 763              	.LC34:
 764 00f0 09307830 		.string	"\t0x01: mitm protection required\r\n"
 764      313A206D 
 764      69746D20 
 764      70726F74 
 764      65637469 
 765 0112 0000     		.align	2
 766              	.LC35:
 767 0114 3C73633E 		.string	"<sc>: secure connections flag for authention\r\n"
 767      3A207365 
 767      63757265 
 767      20636F6E 
 767      6E656374 
 768 0143 00       		.align	2
 769              	.LC36:
 770 0144 09307830 		.string	"\t0x00: secure connections pairing is not supported\r\n"
 770      303A2073 
 770      65637572 
 770      6520636F 
 770      6E6E6563 
 771 0179 000000   		.align	2
 772              	.LC37:
 773 017c 09307830 		.string	"\t0x01: secure connections pairing is supported\r\n"
 773      313A2073 
 773      65637572 
 773      6520636F 
 773      6E6E6563 
 774 01ad 000000   		.align	2
 775              	.LC38:
 776 01b0 3C696F63 		.string	"<iocap>: io capability to set\r\n"
 776      61703E3A 
 776      20696F20 
 776      63617061 
 776      62696C69 
 777              		.align	2
 778              	.LC39:
 779 01d0 09307830 		.string	"\t0x00: display only\r\n"
 779      303A2064 
 779      6973706C 
 779      6179206F 
 779      6E6C790D 
 780 01e6 0000     		.align	2
 781              	.LC40:
 782 01e8 09307830 		.string	"\t0x01: display yes no\r\n"
 782      313A2064 
 782      6973706C 
 782      61792079 
 782      6573206E 
 783              		.align	2
 784              	.LC41:
 785 0200 09307830 		.string	"\t0x02: keyboard only\r\n"
 785      323A206B 
 785      6579626F 
 785      61726420 
 785      6F6E6C79 
 786 0217 00       		.align	2
 787              	.LC42:
 788 0218 09307830 		.string	"\t0x03: no input no output\r\n"
 788      333A206E 
 788      6F20696E 
 788      70757420 
 788      6E6F206F 
 789              		.align	2
 790              	.LC43:
 791 0234 09307830 		.string	"\t0x04: keyboard display\r\n"
 791      343A206B 
 791      6579626F 
 791      61726420 
 791      64697370 
 792              		.section	.text.cmd_set_auth,"ax",@progbits
 793              		.align	1
 795              	cmd_set_auth:
 796              	.LFB33:
 463:C:/Users/stapi/OneDrive/Desktop/GD32VW553/GD32VW55X_Wifi_BLE_SDK/GD32VW55x_RELEASE_V1.0.2/MSDK/ble/app\app_cmd.c ****     char *endptr = NULL;
 797              		.loc 1 463 1
 798              		.cfi_startproc
 799              	.LVL102:
 800 0000 17030000 		call	t0,__riscv_save_4
 800      E7020300 
 801              		.cfi_offset 19, -20
 802              		.cfi_offset 18, -16
 803              		.cfi_offset 9, -12
 804              		.cfi_offset 8, -8
 805              		.cfi_offset 1, -4
 806              		.cfi_def_cfa_offset 32
 464:C:/Users/stapi/OneDrive/Desktop/GD32VW553/GD32VW55X_Wifi_BLE_SDK/GD32VW55x_RELEASE_V1.0.2/MSDK/ble/app\app_cmd.c ****     bool bond;
 807              		.loc 1 464 5
 463:C:/Users/stapi/OneDrive/Desktop/GD32VW553/GD32VW55X_Wifi_BLE_SDK/GD32VW55x_RELEASE_V1.0.2/MSDK/ble/app\app_cmd.c ****     char *endptr = NULL;
 808              		.loc 1 463 1 is_stmt 0
 809 0008 4111     		addi	sp,sp,-16
 810              		.cfi_def_cfa_offset 48
 464:C:/Users/stapi/OneDrive/Desktop/GD32VW553/GD32VW55X_Wifi_BLE_SDK/GD32VW55x_RELEASE_V1.0.2/MSDK/ble/app\app_cmd.c ****     bool bond;
 811              		.loc 1 464 11
 812 000a 02C6     		sw	zero,12(sp)
 465:C:/Users/stapi/OneDrive/Desktop/GD32VW553/GD32VW55X_Wifi_BLE_SDK/GD32VW55x_RELEASE_V1.0.2/MSDK/ble/app\app_cmd.c ****     bool mitm;
 813              		.loc 1 465 5 is_stmt 1
 466:C:/Users/stapi/OneDrive/Desktop/GD32VW553/GD32VW55X_Wifi_BLE_SDK/GD32VW55x_RELEASE_V1.0.2/MSDK/ble/app\app_cmd.c ****     bool sc;
 814              		.loc 1 466 5
 467:C:/Users/stapi/OneDrive/Desktop/GD32VW553/GD32VW55X_Wifi_BLE_SDK/GD32VW55x_RELEASE_V1.0.2/MSDK/ble/app\app_cmd.c ****     uint8_t iocap;
 815              		.loc 1 467 5
 468:C:/Users/stapi/OneDrive/Desktop/GD32VW553/GD32VW55X_Wifi_BLE_SDK/GD32VW55x_RELEASE_V1.0.2/MSDK/ble/app\app_cmd.c **** 
 816              		.loc 1 468 5
 470:C:/Users/stapi/OneDrive/Desktop/GD32VW553/GD32VW55X_Wifi_BLE_SDK/GD32VW55x_RELEASE_V1.0.2/MSDK/ble/app\app_cmd.c ****         goto usage;
 817              		.loc 1 470 5
 470:C:/Users/stapi/OneDrive/Desktop/GD32VW553/GD32VW55X_Wifi_BLE_SDK/GD32VW55x_RELEASE_V1.0.2/MSDK/ble/app\app_cmd.c ****         goto usage;
 818              		.loc 1 470 8 is_stmt 0
 819 000c 9547     		li	a5,5
 820 000e 6311F508 		bne	a0,a5,.L40
 821 0012 2E84     		mv	s0,a1
 474:C:/Users/stapi/OneDrive/Desktop/GD32VW553/GD32VW55X_Wifi_BLE_SDK/GD32VW55x_RELEASE_V1.0.2/MSDK/ble/app\app_cmd.c ****     mitm  = (bool)strtoul((const char *)argv[2], &endptr, 0);
 822              		.loc 1 474 5 is_stmt 1
 474:C:/Users/stapi/OneDrive/Desktop/GD32VW553/GD32VW55X_Wifi_BLE_SDK/GD32VW55x_RELEASE_V1.0.2/MSDK/ble/app\app_cmd.c ****     mitm  = (bool)strtoul((const char *)argv[2], &endptr, 0);
 823              		.loc 1 474 19 is_stmt 0
 824 0014 4840     		lw	a0,4(s0)
 825              	.LVL103:
 826 0016 0146     		li	a2,0
 827 0018 6C00     		addi	a1,sp,12
 828              	.LVL104:
 829 001a 97000000 		call	strtoul
 829      E7800000 
 830              	.LVL105:
 831 0022 AA84     		mv	s1,a0
 832              	.LVL106:
 475:C:/Users/stapi/OneDrive/Desktop/GD32VW553/GD32VW55X_Wifi_BLE_SDK/GD32VW55x_RELEASE_V1.0.2/MSDK/ble/app\app_cmd.c ****     sc    = (bool)strtoul((const char *)argv[3], &endptr, 0);
 833              		.loc 1 475 5 is_stmt 1
 475:C:/Users/stapi/OneDrive/Desktop/GD32VW553/GD32VW55X_Wifi_BLE_SDK/GD32VW55x_RELEASE_V1.0.2/MSDK/ble/app\app_cmd.c ****     sc    = (bool)strtoul((const char *)argv[3], &endptr, 0);
 834              		.loc 1 475 19 is_stmt 0
 835 0024 0844     		lw	a0,8(s0)
 836 0026 0146     		li	a2,0
 837 0028 6C00     		addi	a1,sp,12
 838 002a 97000000 		call	strtoul
 838      E7800000 
 839              	.LVL107:
 840 0032 2A89     		mv	s2,a0
 841              	.LVL108:
 476:C:/Users/stapi/OneDrive/Desktop/GD32VW553/GD32VW55X_Wifi_BLE_SDK/GD32VW55x_RELEASE_V1.0.2/MSDK/ble/app\app_cmd.c ****     iocap = (uint8_t)strtoul((const char *)argv[4], &endptr, 0);
 842              		.loc 1 476 5 is_stmt 1
 476:C:/Users/stapi/OneDrive/Desktop/GD32VW553/GD32VW55X_Wifi_BLE_SDK/GD32VW55x_RELEASE_V1.0.2/MSDK/ble/app\app_cmd.c ****     iocap = (uint8_t)strtoul((const char *)argv[4], &endptr, 0);
 843              		.loc 1 476 19 is_stmt 0
 844 0034 4844     		lw	a0,12(s0)
 845              	.LVL109:
 846 0036 0146     		li	a2,0
 847 0038 6C00     		addi	a1,sp,12
 848 003a 97000000 		call	strtoul
 848      E7800000 
 849              	.LVL110:
 850 0042 AA89     		mv	s3,a0
 851              	.LVL111:
 477:C:/Users/stapi/OneDrive/Desktop/GD32VW553/GD32VW55X_Wifi_BLE_SDK/GD32VW55x_RELEASE_V1.0.2/MSDK/ble/app\app_cmd.c **** 
 852              		.loc 1 477 5 is_stmt 1
 477:C:/Users/stapi/OneDrive/Desktop/GD32VW553/GD32VW55X_Wifi_BLE_SDK/GD32VW55x_RELEASE_V1.0.2/MSDK/ble/app\app_cmd.c **** 
 853              		.loc 1 477 22 is_stmt 0
 854 0044 0848     		lw	a0,16(s0)
 855              	.LVL112:
 856 0046 0146     		li	a2,0
 857 0048 6C00     		addi	a1,sp,12
 858 004a 97000000 		call	strtoul
 858      E7800000 
 859              	.LVL113:
 477:C:/Users/stapi/OneDrive/Desktop/GD32VW553/GD32VW55X_Wifi_BLE_SDK/GD32VW55x_RELEASE_V1.0.2/MSDK/ble/app\app_cmd.c **** 
 860              		.loc 1 477 11
 861 0052 9376F50F 		andi	a3,a0,0xff
 862              	.LVL114:
 479:C:/Users/stapi/OneDrive/Desktop/GD32VW553/GD32VW55X_Wifi_BLE_SDK/GD32VW55x_RELEASE_V1.0.2/MSDK/ble/app\app_cmd.c ****         goto usage;
 863              		.loc 1 479 5 is_stmt 1
 479:C:/Users/stapi/OneDrive/Desktop/GD32VW553/GD32VW55X_Wifi_BLE_SDK/GD32VW55x_RELEASE_V1.0.2/MSDK/ble/app\app_cmd.c ****         goto usage;
 864              		.loc 1 479 8 is_stmt 0
 865 0056 9147     		li	a5,4
 866 0058 63ECD702 		bgtu	a3,a5,.L40
 483:C:/Users/stapi/OneDrive/Desktop/GD32VW553/GD32VW55X_Wifi_BLE_SDK/GD32VW55x_RELEASE_V1.0.2/MSDK/ble/app\app_cmd.c ****     app_print("ble set auth success.\r\n");
 867              		.loc 1 483 5 is_stmt 1
 868 005c 33359000 		snez	a0,s1
 869 0060 4148     		li	a6,16
 870 0062 8147     		li	a5,0
 871 0064 0147     		li	a4,0
 872 0066 33363001 		snez	a2,s3
 873 006a B3352001 		snez	a1,s2
 874 006e 97000000 		call	app_sec_set_authen
 874      E7800000 
 875              	.LVL115:
 484:C:/Users/stapi/OneDrive/Desktop/GD32VW553/GD32VW55X_Wifi_BLE_SDK/GD32VW55x_RELEASE_V1.0.2/MSDK/ble/app\app_cmd.c ****     return;
 876              		.loc 1 484 5
 877 0076 37050000 		lui	a0,%hi(.LC27)
 878 007a 13050500 		addi	a0,a0,%lo(.LC27)
 879              	.LVL116:
 880              	.L43:
 503:C:/Users/stapi/OneDrive/Desktop/GD32VW553/GD32VW55X_Wifi_BLE_SDK/GD32VW55x_RELEASE_V1.0.2/MSDK/ble/app\app_cmd.c **** }
 881              		.loc 1 503 5 is_stmt 0
 882 007e 97000000 		call	co_printf
 882      E7800000 
 883              	.LVL117:
 504:C:/Users/stapi/OneDrive/Desktop/GD32VW553/GD32VW55X_Wifi_BLE_SDK/GD32VW55x_RELEASE_V1.0.2/MSDK/ble/app\app_cmd.c **** #endif // #ifndef CONFIG_INTERNAL_DEBUG
 884              		.loc 1 504 1
 885 0086 4101     		addi	sp,sp,16
 886              		.cfi_remember_state
 887              		.cfi_def_cfa_offset 0
 888 0088 17030000 		tail	__riscv_restore_4
 888      67000300 
 889              		.cfi_restore 19
 890              		.cfi_restore 18
 891              		.cfi_restore 9
 892              		.cfi_restore 8
 893              		.cfi_restore 1
 894              		.cfi_def_cfa_offset -32
 895              	.L40:
 896              		.cfi_restore_state
 897              	.LDL6:
 488:C:/Users/stapi/OneDrive/Desktop/GD32VW553/GD32VW55X_Wifi_BLE_SDK/GD32VW55x_RELEASE_V1.0.2/MSDK/ble/app\app_cmd.c ****     app_print("<bond>: bonding flag for authentication\r\n");
 898              		.loc 1 488 5 is_stmt 1
 899 0090 37050000 		lui	a0,%hi(.LC28)
 900 0094 13050500 		addi	a0,a0,%lo(.LC28)
 901 0098 97000000 		call	co_printf
 901      E7800000 
 902              	.LVL118:
 489:C:/Users/stapi/OneDrive/Desktop/GD32VW553/GD32VW55X_Wifi_BLE_SDK/GD32VW55x_RELEASE_V1.0.2/MSDK/ble/app\app_cmd.c ****     app_print("\t0x00: no bonding\r\n");
 903              		.loc 1 489 5
 904 00a0 37050000 		lui	a0,%hi(.LC29)
 905 00a4 13050500 		addi	a0,a0,%lo(.LC29)
 906 00a8 97000000 		call	co_printf
 906      E7800000 
 907              	.LVL119:
 490:C:/Users/stapi/OneDrive/Desktop/GD32VW553/GD32VW55X_Wifi_BLE_SDK/GD32VW55x_RELEASE_V1.0.2/MSDK/ble/app\app_cmd.c ****     app_print("\t0x01: bonding\r\n");
 908              		.loc 1 490 5
 909 00b0 37050000 		lui	a0,%hi(.LC30)
 910 00b4 13050500 		addi	a0,a0,%lo(.LC30)
 911 00b8 97000000 		call	co_printf
 911      E7800000 
 912              	.LVL120:
 491:C:/Users/stapi/OneDrive/Desktop/GD32VW553/GD32VW55X_Wifi_BLE_SDK/GD32VW55x_RELEASE_V1.0.2/MSDK/ble/app\app_cmd.c ****     app_print("<mitm>: mitm flag for authentication\r\n");
 913              		.loc 1 491 5
 914 00c0 37050000 		lui	a0,%hi(.LC31)
 915 00c4 13050500 		addi	a0,a0,%lo(.LC31)
 916 00c8 97000000 		call	co_printf
 916      E7800000 
 917              	.LVL121:
 492:C:/Users/stapi/OneDrive/Desktop/GD32VW553/GD32VW55X_Wifi_BLE_SDK/GD32VW55x_RELEASE_V1.0.2/MSDK/ble/app\app_cmd.c ****     app_print("\t0x00: mitm protection not required\r\n");
 918              		.loc 1 492 5
 919 00d0 37050000 		lui	a0,%hi(.LC32)
 920 00d4 13050500 		addi	a0,a0,%lo(.LC32)
 921 00d8 97000000 		call	co_printf
 921      E7800000 
 922              	.LVL122:
 493:C:/Users/stapi/OneDrive/Desktop/GD32VW553/GD32VW55X_Wifi_BLE_SDK/GD32VW55x_RELEASE_V1.0.2/MSDK/ble/app\app_cmd.c ****     app_print("\t0x01: mitm protection required\r\n");
 923              		.loc 1 493 5
 924 00e0 37050000 		lui	a0,%hi(.LC33)
 925 00e4 13050500 		addi	a0,a0,%lo(.LC33)
 926 00e8 97000000 		call	co_printf
 926      E7800000 
 927              	.LVL123:
 494:C:/Users/stapi/OneDrive/Desktop/GD32VW553/GD32VW55X_Wifi_BLE_SDK/GD32VW55x_RELEASE_V1.0.2/MSDK/ble/app\app_cmd.c ****     app_print("<sc>: secure connections flag for authention\r\n");
 928              		.loc 1 494 5
 929 00f0 37050000 		lui	a0,%hi(.LC34)
 930 00f4 13050500 		addi	a0,a0,%lo(.LC34)
 931 00f8 97000000 		call	co_printf
 931      E7800000 
 932              	.LVL124:
 495:C:/Users/stapi/OneDrive/Desktop/GD32VW553/GD32VW55X_Wifi_BLE_SDK/GD32VW55x_RELEASE_V1.0.2/MSDK/ble/app\app_cmd.c ****     app_print("\t0x00: secure connections pairing is not supported\r\n");
 933              		.loc 1 495 5
 934 0100 37050000 		lui	a0,%hi(.LC35)
 935 0104 13050500 		addi	a0,a0,%lo(.LC35)
 936 0108 97000000 		call	co_printf
 936      E7800000 
 937              	.LVL125:
 496:C:/Users/stapi/OneDrive/Desktop/GD32VW553/GD32VW55X_Wifi_BLE_SDK/GD32VW55x_RELEASE_V1.0.2/MSDK/ble/app\app_cmd.c ****     app_print("\t0x01: secure connections pairing is supported\r\n");
 938              		.loc 1 496 5
 939 0110 37050000 		lui	a0,%hi(.LC36)
 940 0114 13050500 		addi	a0,a0,%lo(.LC36)
 941 0118 97000000 		call	co_printf
 941      E7800000 
 942              	.LVL126:
 497:C:/Users/stapi/OneDrive/Desktop/GD32VW553/GD32VW55X_Wifi_BLE_SDK/GD32VW55x_RELEASE_V1.0.2/MSDK/ble/app\app_cmd.c ****     app_print("<iocap>: io capability to set\r\n");
 943              		.loc 1 497 5
 944 0120 37050000 		lui	a0,%hi(.LC37)
 945 0124 13050500 		addi	a0,a0,%lo(.LC37)
 946 0128 97000000 		call	co_printf
 946      E7800000 
 947              	.LVL127:
 498:C:/Users/stapi/OneDrive/Desktop/GD32VW553/GD32VW55X_Wifi_BLE_SDK/GD32VW55x_RELEASE_V1.0.2/MSDK/ble/app\app_cmd.c ****     app_print("\t0x00: display only\r\n");
 948              		.loc 1 498 5
 949 0130 37050000 		lui	a0,%hi(.LC38)
 950 0134 13050500 		addi	a0,a0,%lo(.LC38)
 951 0138 97000000 		call	co_printf
 951      E7800000 
 952              	.LVL128:
 499:C:/Users/stapi/OneDrive/Desktop/GD32VW553/GD32VW55X_Wifi_BLE_SDK/GD32VW55x_RELEASE_V1.0.2/MSDK/ble/app\app_cmd.c ****     app_print("\t0x01: display yes no\r\n");
 953              		.loc 1 499 5
 954 0140 37050000 		lui	a0,%hi(.LC39)
 955 0144 13050500 		addi	a0,a0,%lo(.LC39)
 956 0148 97000000 		call	co_printf
 956      E7800000 
 957              	.LVL129:
 500:C:/Users/stapi/OneDrive/Desktop/GD32VW553/GD32VW55X_Wifi_BLE_SDK/GD32VW55x_RELEASE_V1.0.2/MSDK/ble/app\app_cmd.c ****     app_print("\t0x02: keyboard only\r\n");
 958              		.loc 1 500 5
 959 0150 37050000 		lui	a0,%hi(.LC40)
 960 0154 13050500 		addi	a0,a0,%lo(.LC40)
 961 0158 97000000 		call	co_printf
 961      E7800000 
 962              	.LVL130:
 501:C:/Users/stapi/OneDrive/Desktop/GD32VW553/GD32VW55X_Wifi_BLE_SDK/GD32VW55x_RELEASE_V1.0.2/MSDK/ble/app\app_cmd.c ****     app_print("\t0x03: no input no output\r\n");
 963              		.loc 1 501 5
 964 0160 37050000 		lui	a0,%hi(.LC41)
 965 0164 13050500 		addi	a0,a0,%lo(.LC41)
 966 0168 97000000 		call	co_printf
 966      E7800000 
 967              	.LVL131:
 502:C:/Users/stapi/OneDrive/Desktop/GD32VW553/GD32VW55X_Wifi_BLE_SDK/GD32VW55x_RELEASE_V1.0.2/MSDK/ble/app\app_cmd.c ****     app_print("\t0x04: keyboard display\r\n");
 968              		.loc 1 502 5
 969 0170 37050000 		lui	a0,%hi(.LC42)
 970 0174 13050500 		addi	a0,a0,%lo(.LC42)
 971 0178 97000000 		call	co_printf
 971      E7800000 
 972              	.LVL132:
 503:C:/Users/stapi/OneDrive/Desktop/GD32VW553/GD32VW55X_Wifi_BLE_SDK/GD32VW55x_RELEASE_V1.0.2/MSDK/ble/app\app_cmd.c **** }
 973              		.loc 1 503 5
 974 0180 37050000 		lui	a0,%hi(.LC43)
 975 0184 13050500 		addi	a0,a0,%lo(.LC43)
 976 0188 DDBD     		j	.L43
 977              		.cfi_endproc
 978              	.LFE33:
 980              		.section	.text.cmd_list_sec_devs,"ax",@progbits
 981              		.align	1
 983              	cmd_list_sec_devs:
 984              	.LFB32:
 457:C:/Users/stapi/OneDrive/Desktop/GD32VW553/GD32VW55X_Wifi_BLE_SDK/GD32VW55x_RELEASE_V1.0.2/MSDK/ble/app\app_cmd.c ****     dm_list_sec_devices();
 985              		.loc 1 457 1
 986              		.cfi_startproc
 987              	.LVL133:
 458:C:/Users/stapi/OneDrive/Desktop/GD32VW553/GD32VW55X_Wifi_BLE_SDK/GD32VW55x_RELEASE_V1.0.2/MSDK/ble/app\app_cmd.c **** }
 988              		.loc 1 458 5
 989 0000 17030000 		tail	dm_list_sec_devices
 989      67000300 
 990              	.LVL134:
 991              		.cfi_endproc
 992              	.LFE32:
 994              		.section	.rodata.cmd_remove_bond.str1.4,"aMS",@progbits,1
 995              		.align	2
 996              	.LC44:
 997 0000 55736167 		.string	"Usage: ble_remove_bond <dev idx>\r\n"
 997      653A2062 
 997      6C655F72 
 997      656D6F76 
 997      655F626F 
 998 0023 00       		.align	2
 999              	.LC45:
 1000 0024 3C646576 		.string	"<dev idx>: device index in bond list which can be get by ble_list_sec_devs command\r\n"
 1000      20696478 
 1000      3E3A2064 
 1000      65766963 
 1000      6520696E 
 1001 0079 000000   		.align	2
 1002              	.LC46:
 1003 007c 72656D6F 		.string	"remove bond fail\r\n"
 1003      76652062 
 1003      6F6E6420 
 1003      6661696C 
 1003      0D0A00
 1004 008f 00       		.align	2
 1005              	.LC47:
 1006 0090 72656D6F 		.string	"remove bond success\r\n"
 1006      76652062 
 1006      6F6E6420 
 1006      73756363 
 1006      6573730D 
 1007              		.section	.text.cmd_remove_bond,"ax",@progbits
 1008              		.align	1
 1010              	cmd_remove_bond:
 1011              	.LFB31:
 427:C:/Users/stapi/OneDrive/Desktop/GD32VW553/GD32VW55X_Wifi_BLE_SDK/GD32VW55x_RELEASE_V1.0.2/MSDK/ble/app\app_cmd.c ****     char *endptr = NULL;
 1012              		.loc 1 427 1
 1013              		.cfi_startproc
 1014              	.LVL135:
 1015 0000 17030000 		call	t0,__riscv_save_0
 1015      E7020300 
 1016              		.cfi_offset 1, -4
 1017              		.cfi_def_cfa_offset 16
 428:C:/Users/stapi/OneDrive/Desktop/GD32VW553/GD32VW55X_Wifi_BLE_SDK/GD32VW55x_RELEASE_V1.0.2/MSDK/ble/app\app_cmd.c ****     uint8_t idx = 0xFF;
 1018              		.loc 1 428 5
 427:C:/Users/stapi/OneDrive/Desktop/GD32VW553/GD32VW55X_Wifi_BLE_SDK/GD32VW55x_RELEASE_V1.0.2/MSDK/ble/app\app_cmd.c ****     char *endptr = NULL;
 1019              		.loc 1 427 1 is_stmt 0
 1020 0008 4111     		addi	sp,sp,-16
 1021              		.cfi_def_cfa_offset 32
 428:C:/Users/stapi/OneDrive/Desktop/GD32VW553/GD32VW55X_Wifi_BLE_SDK/GD32VW55x_RELEASE_V1.0.2/MSDK/ble/app\app_cmd.c ****     uint8_t idx = 0xFF;
 1022              		.loc 1 428 11
 1023 000a 02C6     		sw	zero,12(sp)
 429:C:/Users/stapi/OneDrive/Desktop/GD32VW553/GD32VW55X_Wifi_BLE_SDK/GD32VW55x_RELEASE_V1.0.2/MSDK/ble/app\app_cmd.c ****     ble_device_t *p_dev = NULL;
 1024              		.loc 1 429 5 is_stmt 1
 1025              	.LVL136:
 430:C:/Users/stapi/OneDrive/Desktop/GD32VW553/GD32VW55X_Wifi_BLE_SDK/GD32VW55x_RELEASE_V1.0.2/MSDK/ble/app\app_cmd.c **** 
 1026              		.loc 1 430 5
 432:C:/Users/stapi/OneDrive/Desktop/GD32VW553/GD32VW55X_Wifi_BLE_SDK/GD32VW55x_RELEASE_V1.0.2/MSDK/ble/app\app_cmd.c ****         goto usage;
 1027              		.loc 1 432 5
 432:C:/Users/stapi/OneDrive/Desktop/GD32VW553/GD32VW55X_Wifi_BLE_SDK/GD32VW55x_RELEASE_V1.0.2/MSDK/ble/app\app_cmd.c ****         goto usage;
 1028              		.loc 1 432 8 is_stmt 0
 1029 000c 0947     		li	a4,2
 1030 000e 6307E502 		beq	a0,a4,.L47
 433:C:/Users/stapi/OneDrive/Desktop/GD32VW553/GD32VW55X_Wifi_BLE_SDK/GD32VW55x_RELEASE_V1.0.2/MSDK/ble/app\app_cmd.c ****     }
 1031              		.loc 1 433 9 is_stmt 1
 1032              	.LDL7:
 452:C:/Users/stapi/OneDrive/Desktop/GD32VW553/GD32VW55X_Wifi_BLE_SDK/GD32VW55x_RELEASE_V1.0.2/MSDK/ble/app\app_cmd.c ****     app_print("<dev idx>: device index in bond list which can be get by ble_list_sec_devs command\r
 1033              		.loc 1 452 5
 1034 0012 37050000 		lui	a0,%hi(.LC44)
 1035              	.LVL137:
 1036 0016 13050500 		addi	a0,a0,%lo(.LC44)
 1037 001a 97000000 		call	co_printf
 1037      E7800000 
 1038              	.LVL138:
 453:C:/Users/stapi/OneDrive/Desktop/GD32VW553/GD32VW55X_Wifi_BLE_SDK/GD32VW55x_RELEASE_V1.0.2/MSDK/ble/app\app_cmd.c **** }
 1039              		.loc 1 453 5
 1040 0022 37050000 		lui	a0,%hi(.LC45)
 1041 0026 13050500 		addi	a0,a0,%lo(.LC45)
 1042              	.LVL139:
 1043              	.L53:
 448:C:/Users/stapi/OneDrive/Desktop/GD32VW553/GD32VW55X_Wifi_BLE_SDK/GD32VW55x_RELEASE_V1.0.2/MSDK/ble/app\app_cmd.c ****     return;
 1044              		.loc 1 448 5 is_stmt 0
 1045 002a 97000000 		call	co_printf
 1045      E7800000 
 1046              	.LVL140:
 449:C:/Users/stapi/OneDrive/Desktop/GD32VW553/GD32VW55X_Wifi_BLE_SDK/GD32VW55x_RELEASE_V1.0.2/MSDK/ble/app\app_cmd.c **** 
 1047              		.loc 1 449 5 is_stmt 1
 454:C:/Users/stapi/OneDrive/Desktop/GD32VW553/GD32VW55X_Wifi_BLE_SDK/GD32VW55x_RELEASE_V1.0.2/MSDK/ble/app\app_cmd.c **** 
 1048              		.loc 1 454 1 is_stmt 0
 1049 0032 4101     		addi	sp,sp,16
 1050              		.cfi_remember_state
 1051              		.cfi_def_cfa_offset 0
 1052 0034 17030000 		tail	__riscv_restore_0
 1052      67000300 
 1053              		.cfi_restore 1
 1054              		.cfi_def_cfa_offset -16
 1055              	.LVL141:
 1056              	.L47:
 1057              		.cfi_restore_state
 1058 003c AE87     		mv	a5,a1
 436:C:/Users/stapi/OneDrive/Desktop/GD32VW553/GD32VW55X_Wifi_BLE_SDK/GD32VW55x_RELEASE_V1.0.2/MSDK/ble/app\app_cmd.c ****     p_dev = dm_find_dev_by_idx(idx);
 1059              		.loc 1 436 5 is_stmt 1
 436:C:/Users/stapi/OneDrive/Desktop/GD32VW553/GD32VW55X_Wifi_BLE_SDK/GD32VW55x_RELEASE_V1.0.2/MSDK/ble/app\app_cmd.c ****     p_dev = dm_find_dev_by_idx(idx);
 1060              		.loc 1 436 20 is_stmt 0
 1061 003e C843     		lw	a0,4(a5)
 1062              	.LVL142:
 1063 0040 2946     		li	a2,10
 1064 0042 6C00     		addi	a1,sp,12
 1065              	.LVL143:
 1066 0044 97000000 		call	strtoul
 1066      E7800000 
 1067              	.LVL144:
 437:C:/Users/stapi/OneDrive/Desktop/GD32VW553/GD32VW55X_Wifi_BLE_SDK/GD32VW55x_RELEASE_V1.0.2/MSDK/ble/app\app_cmd.c ****     if (p_dev == NULL) {
 1068              		.loc 1 437 5 is_stmt 1
 437:C:/Users/stapi/OneDrive/Desktop/GD32VW553/GD32VW55X_Wifi_BLE_SDK/GD32VW55x_RELEASE_V1.0.2/MSDK/ble/app\app_cmd.c ****     if (p_dev == NULL) {
 1069              		.loc 1 437 13 is_stmt 0
 1070 004c 1375F50F 		andi	a0,a0,0xff
 1071 0050 97000000 		call	dm_find_dev_by_idx
 1071      E7800000 
 1072              	.LVL145:
 1073 0058 AA87     		mv	a5,a0
 1074              	.LVL146:
 438:C:/Users/stapi/OneDrive/Desktop/GD32VW553/GD32VW55X_Wifi_BLE_SDK/GD32VW55x_RELEASE_V1.0.2/MSDK/ble/app\app_cmd.c ****         app_print("fail to find device\r\n");
 1075              		.loc 1 438 5 is_stmt 1
 438:C:/Users/stapi/OneDrive/Desktop/GD32VW553/GD32VW55X_Wifi_BLE_SDK/GD32VW55x_RELEASE_V1.0.2/MSDK/ble/app\app_cmd.c ****         app_print("fail to find device\r\n");
 1076              		.loc 1 438 8 is_stmt 0
 1077 005a 11E5     		bne	a0,zero,.L49
 439:C:/Users/stapi/OneDrive/Desktop/GD32VW553/GD32VW55X_Wifi_BLE_SDK/GD32VW55x_RELEASE_V1.0.2/MSDK/ble/app\app_cmd.c ****         return;
 1078              		.loc 1 439 9 is_stmt 1
 1079 005c 37050000 		lui	a0,%hi(.LC26)
 1080              	.LVL147:
 1081 0060 13050500 		addi	a0,a0,%lo(.LC26)
 1082 0064 D9B7     		j	.L53
 1083              	.LVL148:
 1084              	.L49:
 443:C:/Users/stapi/OneDrive/Desktop/GD32VW553/GD32VW55X_Wifi_BLE_SDK/GD32VW55x_RELEASE_V1.0.2/MSDK/ble/app\app_cmd.c ****         app_print("remove bond fail\r\n");
 1085              		.loc 1 443 5
 443:C:/Users/stapi/OneDrive/Desktop/GD32VW553/GD32VW55X_Wifi_BLE_SDK/GD32VW55x_RELEASE_V1.0.2/MSDK/ble/app\app_cmd.c ****         app_print("remove bond fail\r\n");
 1086              		.loc 1 443 10 is_stmt 0
 1087 0066 0845     		lw	a0,8(a0)
 1088              	.LVL149:
 1089 0068 CC47     		lw	a1,12(a5)
 1090 006a 97000000 		call	app_sec_remove_bond
 1090      E7800000 
 1091              	.LVL150:
 443:C:/Users/stapi/OneDrive/Desktop/GD32VW553/GD32VW55X_Wifi_BLE_SDK/GD32VW55x_RELEASE_V1.0.2/MSDK/ble/app\app_cmd.c ****         app_print("remove bond fail\r\n");
 1092              		.loc 1 443 8
 1093 0072 11E5     		bne	a0,zero,.L51
 444:C:/Users/stapi/OneDrive/Desktop/GD32VW553/GD32VW55X_Wifi_BLE_SDK/GD32VW55x_RELEASE_V1.0.2/MSDK/ble/app\app_cmd.c ****         return;
 1094              		.loc 1 444 9 is_stmt 1
 1095 0074 37050000 		lui	a0,%hi(.LC46)
 1096 0078 13050500 		addi	a0,a0,%lo(.LC46)
 1097 007c 7DB7     		j	.L53
 1098              	.L51:
 448:C:/Users/stapi/OneDrive/Desktop/GD32VW553/GD32VW55X_Wifi_BLE_SDK/GD32VW55x_RELEASE_V1.0.2/MSDK/ble/app\app_cmd.c ****     return;
 1099              		.loc 1 448 5
 1100 007e 37050000 		lui	a0,%hi(.LC47)
 1101 0082 13050500 		addi	a0,a0,%lo(.LC47)
 1102 0086 55B7     		j	.L53
 1103              		.cfi_endproc
 1104              	.LFE31:
 1106              		.section	.rodata.cmd_cancel_connect.str1.4,"aMS",@progbits,1
 1107              		.align	2
 1108              	.LC48:
 1109 0000 63616E63 		.string	"cancel connect fail status 0x%x\r\n"
 1109      656C2063 
 1109      6F6E6E65 
 1109      63742066 
 1109      61696C20 
 1110              		.section	.text.cmd_cancel_connect,"ax",@progbits
 1111              		.align	1
 1113              	cmd_cancel_connect:
 1114              	.LFB29:
 391:C:/Users/stapi/OneDrive/Desktop/GD32VW553/GD32VW55X_Wifi_BLE_SDK/GD32VW55x_RELEASE_V1.0.2/MSDK/ble/app\app_cmd.c ****     ble_status_t ret;
 1115              		.loc 1 391 1
 1116              		.cfi_startproc
 1117              	.LVL151:
 1118 0000 17030000 		call	t0,__riscv_save_0
 1118      E7020300 
 1119              		.cfi_offset 1, -4
 1120              		.cfi_def_cfa_offset 16
 392:C:/Users/stapi/OneDrive/Desktop/GD32VW553/GD32VW55X_Wifi_BLE_SDK/GD32VW55x_RELEASE_V1.0.2/MSDK/ble/app\app_cmd.c **** 
 1121              		.loc 1 392 5
 394:C:/Users/stapi/OneDrive/Desktop/GD32VW553/GD32VW55X_Wifi_BLE_SDK/GD32VW55x_RELEASE_V1.0.2/MSDK/ble/app\app_cmd.c **** 
 1122              		.loc 1 394 5
 394:C:/Users/stapi/OneDrive/Desktop/GD32VW553/GD32VW55X_Wifi_BLE_SDK/GD32VW55x_RELEASE_V1.0.2/MSDK/ble/app\app_cmd.c **** 
 1123              		.loc 1 394 11 is_stmt 0
 1124 0008 97000000 		call	ble_conn_connect_cancel
 1124      E7800000 
 1125              	.LVL152:
 396:C:/Users/stapi/OneDrive/Desktop/GD32VW553/GD32VW55X_Wifi_BLE_SDK/GD32VW55x_RELEASE_V1.0.2/MSDK/ble/app\app_cmd.c ****         app_print("cancel connect fail status 0x%x\r\n", ret);
 1126              		.loc 1 396 5 is_stmt 1
 396:C:/Users/stapi/OneDrive/Desktop/GD32VW553/GD32VW55X_Wifi_BLE_SDK/GD32VW55x_RELEASE_V1.0.2/MSDK/ble/app\app_cmd.c ****         app_print("cancel connect fail status 0x%x\r\n", ret);
 1127              		.loc 1 396 8 is_stmt 0
 1128 0010 11C9     		beq	a0,zero,.L54
 1129 0012 AA85     		mv	a1,a0
 397:C:/Users/stapi/OneDrive/Desktop/GD32VW553/GD32VW55X_Wifi_BLE_SDK/GD32VW55x_RELEASE_V1.0.2/MSDK/ble/app\app_cmd.c ****     }
 1130              		.loc 1 397 9 is_stmt 1
 1131 0014 37050000 		lui	a0,%hi(.LC48)
 1132              	.LVL153:
 1133 0018 13050500 		addi	a0,a0,%lo(.LC48)
 1134 001c 97000000 		call	co_printf
 1134      E7800000 
 1135              	.LVL154:
 1136              	.L54:
 399:C:/Users/stapi/OneDrive/Desktop/GD32VW553/GD32VW55X_Wifi_BLE_SDK/GD32VW55x_RELEASE_V1.0.2/MSDK/ble/app\app_cmd.c **** #endif
 1137              		.loc 1 399 1 is_stmt 0
 1138 0024 17030000 		tail	__riscv_restore_0
 1138      67000300 
 1139              		.cfi_restore 1
 1140              		.cfi_def_cfa_offset 0
 1141              		.cfi_endproc
 1142              	.LFE29:
 1144              		.section	.rodata.cmd_connect.str1.4,"aMS",@progbits,1
 1145              		.align	2
 1146              	.LC49:
 1147 0000 55736167 		.string	"Usage: ble_conn <dev idx>\r\n"
 1147      653A2062 
 1147      6C655F63 
 1147      6F6E6E20 
 1147      3C646576 
 1148              		.align	2
 1149              	.LC50:
 1150 001c 3C646576 		.string	"<dev idx>: dev index in scan list\r\n"
 1150      20696478 
 1150      3E3A2064 
 1150      65762069 
 1150      6E646578 
 1151              		.align	2
 1152              	.LC51:
 1153 0040 636F6E6E 		.string	"connect fail status 0x%x\r\n"
 1153      65637420 
 1153      6661696C 
 1153      20737461 
 1153      74757320 
 1154              		.section	.text.cmd_connect,"ax",@progbits
 1155              		.align	1
 1157              	cmd_connect:
 1158              	.LFB28:
 360:C:/Users/stapi/OneDrive/Desktop/GD32VW553/GD32VW55X_Wifi_BLE_SDK/GD32VW55x_RELEASE_V1.0.2/MSDK/ble/app\app_cmd.c ****     char *endptr = NULL;
 1159              		.loc 1 360 1 is_stmt 1
 1160              		.cfi_startproc
 1161              	.LVL155:
 1162 0000 17030000 		call	t0,__riscv_save_0
 1162      E7020300 
 1163              		.cfi_offset 1, -4
 1164              		.cfi_def_cfa_offset 16
 361:C:/Users/stapi/OneDrive/Desktop/GD32VW553/GD32VW55X_Wifi_BLE_SDK/GD32VW55x_RELEASE_V1.0.2/MSDK/ble/app\app_cmd.c ****     uint8_t idx = 0xFF;
 1165              		.loc 1 361 5
 360:C:/Users/stapi/OneDrive/Desktop/GD32VW553/GD32VW55X_Wifi_BLE_SDK/GD32VW55x_RELEASE_V1.0.2/MSDK/ble/app\app_cmd.c ****     char *endptr = NULL;
 1166              		.loc 1 360 1 is_stmt 0
 1167 0008 4111     		addi	sp,sp,-16
 1168              		.cfi_def_cfa_offset 32
 361:C:/Users/stapi/OneDrive/Desktop/GD32VW553/GD32VW55X_Wifi_BLE_SDK/GD32VW55x_RELEASE_V1.0.2/MSDK/ble/app\app_cmd.c ****     uint8_t idx = 0xFF;
 1169              		.loc 1 361 11
 1170 000a 02C6     		sw	zero,12(sp)
 362:C:/Users/stapi/OneDrive/Desktop/GD32VW553/GD32VW55X_Wifi_BLE_SDK/GD32VW55x_RELEASE_V1.0.2/MSDK/ble/app\app_cmd.c ****     dev_info_t *p_dev_info = NULL;
 1171              		.loc 1 362 5 is_stmt 1
 1172              	.LVL156:
 363:C:/Users/stapi/OneDrive/Desktop/GD32VW553/GD32VW55X_Wifi_BLE_SDK/GD32VW55x_RELEASE_V1.0.2/MSDK/ble/app\app_cmd.c ****     ble_status_t ret;
 1173              		.loc 1 363 5
 364:C:/Users/stapi/OneDrive/Desktop/GD32VW553/GD32VW55X_Wifi_BLE_SDK/GD32VW55x_RELEASE_V1.0.2/MSDK/ble/app\app_cmd.c **** 
 1174              		.loc 1 364 5
 366:C:/Users/stapi/OneDrive/Desktop/GD32VW553/GD32VW55X_Wifi_BLE_SDK/GD32VW55x_RELEASE_V1.0.2/MSDK/ble/app\app_cmd.c ****         goto usage;
 1175              		.loc 1 366 5
 366:C:/Users/stapi/OneDrive/Desktop/GD32VW553/GD32VW55X_Wifi_BLE_SDK/GD32VW55x_RELEASE_V1.0.2/MSDK/ble/app\app_cmd.c ****         goto usage;
 1176              		.loc 1 366 8 is_stmt 0
 1177 000c 0947     		li	a4,2
 1178 000e 6307E502 		beq	a0,a4,.L61
 367:C:/Users/stapi/OneDrive/Desktop/GD32VW553/GD32VW55X_Wifi_BLE_SDK/GD32VW55x_RELEASE_V1.0.2/MSDK/ble/app\app_cmd.c ****     }
 1179              		.loc 1 367 9 is_stmt 1
 1180              	.LDL8:
 385:C:/Users/stapi/OneDrive/Desktop/GD32VW553/GD32VW55X_Wifi_BLE_SDK/GD32VW55x_RELEASE_V1.0.2/MSDK/ble/app\app_cmd.c ****     app_print("<dev idx>: dev index in scan list\r\n");
 1181              		.loc 1 385 5
 1182 0012 37050000 		lui	a0,%hi(.LC49)
 1183              	.LVL157:
 1184 0016 13050500 		addi	a0,a0,%lo(.LC49)
 1185 001a 97000000 		call	co_printf
 1185      E7800000 
 1186              	.LVL158:
 386:C:/Users/stapi/OneDrive/Desktop/GD32VW553/GD32VW55X_Wifi_BLE_SDK/GD32VW55x_RELEASE_V1.0.2/MSDK/ble/app\app_cmd.c **** }
 1187              		.loc 1 386 5
 1188 0022 37050000 		lui	a0,%hi(.LC50)
 1189 0026 13050500 		addi	a0,a0,%lo(.LC50)
 1190              	.LVL159:
 1191              	.L69:
 373:C:/Users/stapi/OneDrive/Desktop/GD32VW553/GD32VW55X_Wifi_BLE_SDK/GD32VW55x_RELEASE_V1.0.2/MSDK/ble/app\app_cmd.c ****         return;
 1192              		.loc 1 373 9 is_stmt 0
 1193 002a 97000000 		call	co_printf
 1193      E7800000 
 1194              	.LVL160:
 374:C:/Users/stapi/OneDrive/Desktop/GD32VW553/GD32VW55X_Wifi_BLE_SDK/GD32VW55x_RELEASE_V1.0.2/MSDK/ble/app\app_cmd.c ****     }
 1195              		.loc 1 374 9 is_stmt 1
 1196              	.L60:
 387:C:/Users/stapi/OneDrive/Desktop/GD32VW553/GD32VW55X_Wifi_BLE_SDK/GD32VW55x_RELEASE_V1.0.2/MSDK/ble/app\app_cmd.c **** #endif // #ifndef CONFIG_INTERNAL_DEBUG
 1197              		.loc 1 387 1 is_stmt 0
 1198 0032 4101     		addi	sp,sp,16
 1199              		.cfi_remember_state
 1200              		.cfi_def_cfa_offset 0
 1201 0034 17030000 		tail	__riscv_restore_0
 1201      67000300 
 1202              		.cfi_restore 1
 1203              		.cfi_def_cfa_offset -16
 1204              	.LVL161:
 1205              	.L61:
 1206              		.cfi_restore_state
 1207 003c AE87     		mv	a5,a1
 370:C:/Users/stapi/OneDrive/Desktop/GD32VW553/GD32VW55X_Wifi_BLE_SDK/GD32VW55x_RELEASE_V1.0.2/MSDK/ble/app\app_cmd.c ****     p_dev_info = scan_mgr_find_dev_by_idx(idx);
 1208              		.loc 1 370 5 is_stmt 1
 370:C:/Users/stapi/OneDrive/Desktop/GD32VW553/GD32VW55X_Wifi_BLE_SDK/GD32VW55x_RELEASE_V1.0.2/MSDK/ble/app\app_cmd.c ****     p_dev_info = scan_mgr_find_dev_by_idx(idx);
 1209              		.loc 1 370 20 is_stmt 0
 1210 003e C843     		lw	a0,4(a5)
 1211              	.LVL162:
 1212 0040 2946     		li	a2,10
 1213 0042 6C00     		addi	a1,sp,12
 1214              	.LVL163:
 1215 0044 97000000 		call	strtoul
 1215      E7800000 
 1216              	.LVL164:
 371:C:/Users/stapi/OneDrive/Desktop/GD32VW553/GD32VW55X_Wifi_BLE_SDK/GD32VW55x_RELEASE_V1.0.2/MSDK/ble/app\app_cmd.c ****     if (p_dev_info == NULL) {
 1217              		.loc 1 371 5 is_stmt 1
 371:C:/Users/stapi/OneDrive/Desktop/GD32VW553/GD32VW55X_Wifi_BLE_SDK/GD32VW55x_RELEASE_V1.0.2/MSDK/ble/app\app_cmd.c ****     if (p_dev_info == NULL) {
 1218              		.loc 1 371 18 is_stmt 0
 1219 004c 1375F50F 		andi	a0,a0,0xff
 1220 0050 97000000 		call	scan_mgr_find_dev_by_idx
 1220      E7800000 
 1221              	.LVL165:
 372:C:/Users/stapi/OneDrive/Desktop/GD32VW553/GD32VW55X_Wifi_BLE_SDK/GD32VW55x_RELEASE_V1.0.2/MSDK/ble/app\app_cmd.c ****         app_print("fail to find device\r\n");
 1222              		.loc 1 372 5 is_stmt 1
 372:C:/Users/stapi/OneDrive/Desktop/GD32VW553/GD32VW55X_Wifi_BLE_SDK/GD32VW55x_RELEASE_V1.0.2/MSDK/ble/app\app_cmd.c ****         app_print("fail to find device\r\n");
 1223              		.loc 1 372 8 is_stmt 0
 1224 0058 11E5     		bne	a0,zero,.L63
 373:C:/Users/stapi/OneDrive/Desktop/GD32VW553/GD32VW55X_Wifi_BLE_SDK/GD32VW55x_RELEASE_V1.0.2/MSDK/ble/app\app_cmd.c ****         return;
 1225              		.loc 1 373 9 is_stmt 1
 1226 005a 37050000 		lui	a0,%hi(.LC26)
 1227              	.LVL166:
 1228 005e 13050500 		addi	a0,a0,%lo(.LC26)
 1229 0062 E1B7     		j	.L69
 1230              	.LVL167:
 1231              	.L63:
 377:C:/Users/stapi/OneDrive/Desktop/GD32VW553/GD32VW55X_Wifi_BLE_SDK/GD32VW55x_RELEASE_V1.0.2/MSDK/ble/app\app_cmd.c ****     if ( ret != BLE_ERR_NO_ERROR) {
 1232              		.loc 1 377 5
 377:C:/Users/stapi/OneDrive/Desktop/GD32VW553/GD32VW55X_Wifi_BLE_SDK/GD32VW55x_RELEASE_V1.0.2/MSDK/ble/app\app_cmd.c ****     if ( ret != BLE_ERR_NO_ERROR) {
 1233              		.loc 1 377 11 is_stmt 0
 1234 0064 13068500 		addi	a2,a0,8
 1235 0068 8145     		li	a1,0
 1236 006a 8146     		li	a3,0
 1237 006c 0145     		li	a0,0
 1238              	.LVL168:
 1239 006e 97000000 		call	ble_conn_connect
 1239      E7800000 
 1240              	.LVL169:
 1241 0076 AA85     		mv	a1,a0
 1242              	.LVL170:
 378:C:/Users/stapi/OneDrive/Desktop/GD32VW553/GD32VW55X_Wifi_BLE_SDK/GD32VW55x_RELEASE_V1.0.2/MSDK/ble/app\app_cmd.c ****         app_print("connect fail status 0x%x\r\n", ret);
 1243              		.loc 1 378 5 is_stmt 1
 378:C:/Users/stapi/OneDrive/Desktop/GD32VW553/GD32VW55X_Wifi_BLE_SDK/GD32VW55x_RELEASE_V1.0.2/MSDK/ble/app\app_cmd.c ****         app_print("connect fail status 0x%x\r\n", ret);
 1244              		.loc 1 378 8 is_stmt 0
 1245 0078 4DDD     		beq	a0,zero,.L60
 379:C:/Users/stapi/OneDrive/Desktop/GD32VW553/GD32VW55X_Wifi_BLE_SDK/GD32VW55x_RELEASE_V1.0.2/MSDK/ble/app\app_cmd.c ****     }
 1246              		.loc 1 379 9 is_stmt 1
 1247 007a 37050000 		lui	a0,%hi(.LC51)
 1248              	.LVL171:
 1249 007e 13050500 		addi	a0,a0,%lo(.LC51)
 1250 0082 97000000 		call	co_printf
 1250      E7800000 
 1251              	.LVL172:
 1252 008a 65B7     		j	.L60
 1253              		.cfi_endproc
 1254              	.LFE28:
 1256              		.section	.rodata.cmd_sync_ctrl.str1.4,"aMS",@progbits,1
 1257              		.align	2
 1258              	.LC52:
 1259 0000 55736167 		.string	"Usage: ble_sync_ctrl <sync idx> <report>\r\n"
 1259      653A2062 
 1259      6C655F73 
 1259      796E635F 
 1259      6374726C 
 1260 002b 00       		.align	2
 1261              	.LC53:
 1262 002c 3C73796E 		.string	"<sync idx>: periodic advertising sync index\r\n"
 1262      63206964 
 1262      783E3A20 
 1262      70657269 
 1262      6F646963 
 1263 005a 0000     		.align	2
 1264              	.LC54:
 1265 005c 3C726570 		.string	"<report>: control bitfield for periodic advertising report\r\n"
 1265      6F72743E 
 1265      3A20636F 
 1265      6E74726F 
 1265      6C206269 
 1266 0099 000000   		.align	2
 1267              	.LC55:
 1268 009c 09626974 		.string	"\tbit 0: report periodic advertising event\r\n"
 1268      20303A20 
 1268      7265706F 
 1268      72742070 
 1268      6572696F 
 1269              		.align	2
 1270              	.LC56:
 1271 00c8 626C6520 		.string	"ble sync ctrl fail status 0x%x \r\n"
 1271      73796E63 
 1271      20637472 
 1271      6C206661 
 1271      696C2073 
 1272              		.section	.text.cmd_sync_ctrl,"ax",@progbits
 1273              		.align	1
 1275              	cmd_sync_ctrl:
 1276              	.LFB27:
 327:C:/Users/stapi/OneDrive/Desktop/GD32VW553/GD32VW55X_Wifi_BLE_SDK/GD32VW55x_RELEASE_V1.0.2/MSDK/ble/app\app_cmd.c ****     char *endptr = NULL;
 1277              		.loc 1 327 1
 1278              		.cfi_startproc
 1279              	.LVL173:
 1280 0000 17030000 		call	t0,__riscv_save_2
 1280      E7020300 
 1281              		.cfi_offset 9, -12
 1282              		.cfi_offset 8, -8
 1283              		.cfi_offset 1, -4
 1284              		.cfi_def_cfa_offset 16
 328:C:/Users/stapi/OneDrive/Desktop/GD32VW553/GD32VW55X_Wifi_BLE_SDK/GD32VW55x_RELEASE_V1.0.2/MSDK/ble/app\app_cmd.c ****     uint8_t sync_actv_idx;
 1285              		.loc 1 328 5
 327:C:/Users/stapi/OneDrive/Desktop/GD32VW553/GD32VW55X_Wifi_BLE_SDK/GD32VW55x_RELEASE_V1.0.2/MSDK/ble/app\app_cmd.c ****     char *endptr = NULL;
 1286              		.loc 1 327 1 is_stmt 0
 1287 0008 4111     		addi	sp,sp,-16
 1288              		.cfi_def_cfa_offset 32
 328:C:/Users/stapi/OneDrive/Desktop/GD32VW553/GD32VW55X_Wifi_BLE_SDK/GD32VW55x_RELEASE_V1.0.2/MSDK/ble/app\app_cmd.c ****     uint8_t sync_actv_idx;
 1289              		.loc 1 328 11
 1290 000a 02C6     		sw	zero,12(sp)
 329:C:/Users/stapi/OneDrive/Desktop/GD32VW553/GD32VW55X_Wifi_BLE_SDK/GD32VW55x_RELEASE_V1.0.2/MSDK/ble/app\app_cmd.c ****     uint8_t ctrl;
 1291              		.loc 1 329 5 is_stmt 1
 330:C:/Users/stapi/OneDrive/Desktop/GD32VW553/GD32VW55X_Wifi_BLE_SDK/GD32VW55x_RELEASE_V1.0.2/MSDK/ble/app\app_cmd.c ****     ble_status_t ret;
 1292              		.loc 1 330 5
 331:C:/Users/stapi/OneDrive/Desktop/GD32VW553/GD32VW55X_Wifi_BLE_SDK/GD32VW55x_RELEASE_V1.0.2/MSDK/ble/app\app_cmd.c **** 
 1293              		.loc 1 331 5
 333:C:/Users/stapi/OneDrive/Desktop/GD32VW553/GD32VW55X_Wifi_BLE_SDK/GD32VW55x_RELEASE_V1.0.2/MSDK/ble/app\app_cmd.c ****         goto usage;
 1294              		.loc 1 333 5
 333:C:/Users/stapi/OneDrive/Desktop/GD32VW553/GD32VW55X_Wifi_BLE_SDK/GD32VW55x_RELEASE_V1.0.2/MSDK/ble/app\app_cmd.c ****         goto usage;
 1295              		.loc 1 333 8 is_stmt 0
 1296 000c 8D47     		li	a5,3
 1297 000e 6307F504 		beq	a0,a5,.L71
 334:C:/Users/stapi/OneDrive/Desktop/GD32VW553/GD32VW55X_Wifi_BLE_SDK/GD32VW55x_RELEASE_V1.0.2/MSDK/ble/app\app_cmd.c ****     }
 1298              		.loc 1 334 9 is_stmt 1
 1299              	.LDL9:
 348:C:/Users/stapi/OneDrive/Desktop/GD32VW553/GD32VW55X_Wifi_BLE_SDK/GD32VW55x_RELEASE_V1.0.2/MSDK/ble/app\app_cmd.c ****     app_print("<sync idx>: periodic advertising sync index\r\n");
 1300              		.loc 1 348 5
 1301 0012 37050000 		lui	a0,%hi(.LC52)
 1302              	.LVL174:
 1303 0016 13050500 		addi	a0,a0,%lo(.LC52)
 1304 001a 97000000 		call	co_printf
 1304      E7800000 
 1305              	.LVL175:
 349:C:/Users/stapi/OneDrive/Desktop/GD32VW553/GD32VW55X_Wifi_BLE_SDK/GD32VW55x_RELEASE_V1.0.2/MSDK/ble/app\app_cmd.c ****     app_print("<report>: control bitfield for periodic advertising report\r\n");
 1306              		.loc 1 349 5
 1307 0022 37050000 		lui	a0,%hi(.LC53)
 1308 0026 13050500 		addi	a0,a0,%lo(.LC53)
 1309 002a 97000000 		call	co_printf
 1309      E7800000 
 1310              	.LVL176:
 350:C:/Users/stapi/OneDrive/Desktop/GD32VW553/GD32VW55X_Wifi_BLE_SDK/GD32VW55x_RELEASE_V1.0.2/MSDK/ble/app\app_cmd.c ****     app_print("\tbit 0: report periodic advertising event\r\n");
 1311              		.loc 1 350 5
 1312 0032 37050000 		lui	a0,%hi(.LC54)
 1313 0036 13050500 		addi	a0,a0,%lo(.LC54)
 1314 003a 97000000 		call	co_printf
 1314      E7800000 
 1315              	.LVL177:
 351:C:/Users/stapi/OneDrive/Desktop/GD32VW553/GD32VW55X_Wifi_BLE_SDK/GD32VW55x_RELEASE_V1.0.2/MSDK/ble/app\app_cmd.c **** }
 1316              		.loc 1 351 5
 1317 0042 37050000 		lui	a0,%hi(.LC55)
 1318 0046 13050500 		addi	a0,a0,%lo(.LC55)
 1319 004a 97000000 		call	co_printf
 1319      E7800000 
 1320              	.LVL178:
 1321              	.L70:
 352:C:/Users/stapi/OneDrive/Desktop/GD32VW553/GD32VW55X_Wifi_BLE_SDK/GD32VW55x_RELEASE_V1.0.2/MSDK/ble/app\app_cmd.c **** #endif // (BLE_APP_PER_ADV_SUPPORT)
 1322              		.loc 1 352 1 is_stmt 0
 1323 0052 4101     		addi	sp,sp,16
 1324              		.cfi_remember_state
 1325              		.cfi_def_cfa_offset 0
 1326 0054 17030000 		tail	__riscv_restore_2
 1326      67000300 
 1327              		.cfi_restore 9
 1328              		.cfi_restore 8
 1329              		.cfi_restore 1
 1330              		.cfi_def_cfa_offset -16
 1331              	.LVL179:
 1332              	.L71:
 1333              		.cfi_restore_state
 1334 005c 2E84     		mv	s0,a1
 337:C:/Users/stapi/OneDrive/Desktop/GD32VW553/GD32VW55X_Wifi_BLE_SDK/GD32VW55x_RELEASE_V1.0.2/MSDK/ble/app\app_cmd.c ****     ctrl = (uint8_t)strtoul((const char *)argv[2], &endptr, 16);
 1335              		.loc 1 337 5 is_stmt 1
 337:C:/Users/stapi/OneDrive/Desktop/GD32VW553/GD32VW55X_Wifi_BLE_SDK/GD32VW55x_RELEASE_V1.0.2/MSDK/ble/app\app_cmd.c ****     ctrl = (uint8_t)strtoul((const char *)argv[2], &endptr, 16);
 1336              		.loc 1 337 30 is_stmt 0
 1337 005e 4840     		lw	a0,4(s0)
 1338              	.LVL180:
 1339 0060 2946     		li	a2,10
 1340 0062 6C00     		addi	a1,sp,12
 1341              	.LVL181:
 1342 0064 97000000 		call	strtoul
 1342      E7800000 
 1343              	.LVL182:
 1344 006c AA84     		mv	s1,a0
 1345              	.LVL183:
 338:C:/Users/stapi/OneDrive/Desktop/GD32VW553/GD32VW55X_Wifi_BLE_SDK/GD32VW55x_RELEASE_V1.0.2/MSDK/ble/app\app_cmd.c **** 
 1346              		.loc 1 338 5 is_stmt 1
 338:C:/Users/stapi/OneDrive/Desktop/GD32VW553/GD32VW55X_Wifi_BLE_SDK/GD32VW55x_RELEASE_V1.0.2/MSDK/ble/app\app_cmd.c **** 
 1347              		.loc 1 338 21 is_stmt 0
 1348 006e 0844     		lw	a0,8(s0)
 1349 0070 4146     		li	a2,16
 1350 0072 6C00     		addi	a1,sp,12
 1351 0074 97000000 		call	strtoul
 1351      E7800000 
 1352              	.LVL184:
 340:C:/Users/stapi/OneDrive/Desktop/GD32VW553/GD32VW55X_Wifi_BLE_SDK/GD32VW55x_RELEASE_V1.0.2/MSDK/ble/app\app_cmd.c ****     if (ret != BLE_ERR_NO_ERROR) {
 1353              		.loc 1 340 5 is_stmt 1
 340:C:/Users/stapi/OneDrive/Desktop/GD32VW553/GD32VW55X_Wifi_BLE_SDK/GD32VW55x_RELEASE_V1.0.2/MSDK/ble/app\app_cmd.c ****     if (ret != BLE_ERR_NO_ERROR) {
 1354              		.loc 1 340 11 is_stmt 0
 1355 007c 9375F50F 		andi	a1,a0,0xff
 1356 0080 13F5F40F 		andi	a0,s1,0xff
 1357              	.LVL185:
 1358 0084 97000000 		call	ble_per_sync_report_ctrl
 1358      E7800000 
 1359              	.LVL186:
 1360 008c AA85     		mv	a1,a0
 1361              	.LVL187:
 341:C:/Users/stapi/OneDrive/Desktop/GD32VW553/GD32VW55X_Wifi_BLE_SDK/GD32VW55x_RELEASE_V1.0.2/MSDK/ble/app\app_cmd.c ****         app_print("ble sync ctrl fail status 0x%x \r\n", ret);
 1362              		.loc 1 341 5 is_stmt 1
 341:C:/Users/stapi/OneDrive/Desktop/GD32VW553/GD32VW55X_Wifi_BLE_SDK/GD32VW55x_RELEASE_V1.0.2/MSDK/ble/app\app_cmd.c ****         app_print("ble sync ctrl fail status 0x%x \r\n", ret);
 1363              		.loc 1 341 8 is_stmt 0
 1364 008e 71D1     		beq	a0,zero,.L70
 342:C:/Users/stapi/OneDrive/Desktop/GD32VW553/GD32VW55X_Wifi_BLE_SDK/GD32VW55x_RELEASE_V1.0.2/MSDK/ble/app\app_cmd.c ****     }
 1365              		.loc 1 342 9 is_stmt 1
 1366 0090 37050000 		lui	a0,%hi(.LC56)
 1367              	.LVL188:
 1368 0094 13050500 		addi	a0,a0,%lo(.LC56)
 1369 0098 97000000 		call	co_printf
 1369      E7800000 
 1370              	.LVL189:
 345:C:/Users/stapi/OneDrive/Desktop/GD32VW553/GD32VW55X_Wifi_BLE_SDK/GD32VW55x_RELEASE_V1.0.2/MSDK/ble/app\app_cmd.c **** 
 1371              		.loc 1 345 5
 1372 00a0 4DBF     		j	.L70
 1373              		.cfi_endproc
 1374              	.LFE27:
 1376              		.section	.text.cmd_sync_cancel,"ax",@progbits
 1377              		.align	1
 1379              	cmd_sync_cancel:
 1380              	.LFB25:
 303:C:/Users/stapi/OneDrive/Desktop/GD32VW553/GD32VW55X_Wifi_BLE_SDK/GD32VW55x_RELEASE_V1.0.2/MSDK/ble/app\app_cmd.c ****     app_per_sync_cancel();
 1381              		.loc 1 303 1
 1382              		.cfi_startproc
 1383              	.LVL190:
 304:C:/Users/stapi/OneDrive/Desktop/GD32VW553/GD32VW55X_Wifi_BLE_SDK/GD32VW55x_RELEASE_V1.0.2/MSDK/ble/app\app_cmd.c **** }
 1384              		.loc 1 304 5
 1385 0000 17030000 		tail	app_per_sync_cancel
 1385      67000300 
 1386              	.LVL191:
 1387              		.cfi_endproc
 1388              	.LFE25:
 1390              		.section	.rodata.cmd_sync.str1.4,"aMS",@progbits,1
 1391              		.align	2
 1392              	.LC57:
 1393 0000 55736167 		.string	"Usage: ble_sync <dev idx>\r\n"
 1393      653A2062 
 1393      6C655F73 
 1393      796E6320 
 1393      3C646576 
 1394              		.align	2
 1395              	.LC58:
 1396 001c 3C646576 		.string	"<dev idx>: device index in scan list\r\n"
 1396      20696478 
 1396      3E3A2064 
 1396      65766963 
 1396      6520696E 
 1397 0043 00       		.align	2
 1398              	.LC59:
 1399 0044 6661696C 		.string	"fail to find periodic advertising device\r\n"
 1399      20746F20 
 1399      66696E64 
 1399      20706572 
 1399      696F6469 
 1400 006f 00       		.align	2
 1401              	.LC60:
 1402 0070 73796E63 		.string	"sync fail status 0x%x\r\n"
 1402      20666169 
 1402      6C207374 
 1402      61747573 
 1402      20307825 
 1403              		.section	.text.cmd_sync,"ax",@progbits
 1404              		.align	1
 1406              	cmd_sync:
 1407              	.LFB24:
 260:C:/Users/stapi/OneDrive/Desktop/GD32VW553/GD32VW55X_Wifi_BLE_SDK/GD32VW55x_RELEASE_V1.0.2/MSDK/ble/app\app_cmd.c ****     char *endptr = NULL;
 1408              		.loc 1 260 1
 1409              		.cfi_startproc
 1410              	.LVL192:
 1411 0000 17030000 		call	t0,__riscv_save_1
 1411      E7020300 
 1412              		.cfi_offset 8, -8
 1413              		.cfi_offset 1, -4
 1414              		.cfi_def_cfa_offset 16
 261:C:/Users/stapi/OneDrive/Desktop/GD32VW553/GD32VW55X_Wifi_BLE_SDK/GD32VW55x_RELEASE_V1.0.2/MSDK/ble/app\app_cmd.c ****     dev_info_t *p_dev_info = NULL;
 1415              		.loc 1 261 5
 260:C:/Users/stapi/OneDrive/Desktop/GD32VW553/GD32VW55X_Wifi_BLE_SDK/GD32VW55x_RELEASE_V1.0.2/MSDK/ble/app\app_cmd.c ****     char *endptr = NULL;
 1416              		.loc 1 260 1 is_stmt 0
 1417 0008 0111     		addi	sp,sp,-32
 1418              		.cfi_def_cfa_offset 48
 267:C:/Users/stapi/OneDrive/Desktop/GD32VW553/GD32VW55X_Wifi_BLE_SDK/GD32VW55x_RELEASE_V1.0.2/MSDK/ble/app\app_cmd.c ****     param.sync_tout = 1000;     // 10s
 1419              		.loc 1 267 16
 1420 000a 3707E803 		li	a4,65536000
 1421 000e 3AC8     		sw	a4,16(sp)
 271:C:/Users/stapi/OneDrive/Desktop/GD32VW553/GD32VW55X_Wifi_BLE_SDK/GD32VW55x_RELEASE_V1.0.2/MSDK/ble/app\app_cmd.c ****     param.adv_addr.adv_sid = 0;
 1422              		.loc 1 271 24
 1423 0010 1547     		li	a4,5
 1424 0012 230FE100 		sb	a4,30(sp)
 261:C:/Users/stapi/OneDrive/Desktop/GD32VW553/GD32VW55X_Wifi_BLE_SDK/GD32VW55x_RELEASE_V1.0.2/MSDK/ble/app\app_cmd.c ****     dev_info_t *p_dev_info = NULL;
 1425              		.loc 1 261 11
 1426 0016 02C6     		sw	zero,12(sp)
 262:C:/Users/stapi/OneDrive/Desktop/GD32VW553/GD32VW55X_Wifi_BLE_SDK/GD32VW55x_RELEASE_V1.0.2/MSDK/ble/app\app_cmd.c ****     ble_gap_per_sync_param_t param;
 1427              		.loc 1 262 5 is_stmt 1
 1428              	.LVL193:
 263:C:/Users/stapi/OneDrive/Desktop/GD32VW553/GD32VW55X_Wifi_BLE_SDK/GD32VW55x_RELEASE_V1.0.2/MSDK/ble/app\app_cmd.c ****     uint8_t idx;
 1429              		.loc 1 263 5
 264:C:/Users/stapi/OneDrive/Desktop/GD32VW553/GD32VW55X_Wifi_BLE_SDK/GD32VW55x_RELEASE_V1.0.2/MSDK/ble/app\app_cmd.c ****     ble_status_t ret;
 1430              		.loc 1 264 5
 265:C:/Users/stapi/OneDrive/Desktop/GD32VW553/GD32VW55X_Wifi_BLE_SDK/GD32VW55x_RELEASE_V1.0.2/MSDK/ble/app\app_cmd.c **** 
 1431              		.loc 1 265 5
 267:C:/Users/stapi/OneDrive/Desktop/GD32VW553/GD32VW55X_Wifi_BLE_SDK/GD32VW55x_RELEASE_V1.0.2/MSDK/ble/app\app_cmd.c ****     param.sync_tout = 1000;     // 10s
 1432              		.loc 1 267 5
 268:C:/Users/stapi/OneDrive/Desktop/GD32VW553/GD32VW55X_Wifi_BLE_SDK/GD32VW55x_RELEASE_V1.0.2/MSDK/ble/app\app_cmd.c ****     param.type = BLE_GAP_PER_SYNC_TYPE_GENERAL;
 1433              		.loc 1 268 5
 269:C:/Users/stapi/OneDrive/Desktop/GD32VW553/GD32VW55X_Wifi_BLE_SDK/GD32VW55x_RELEASE_V1.0.2/MSDK/ble/app\app_cmd.c ****     param.conn_idx = 0;
 1434              		.loc 1 269 5
 270:C:/Users/stapi/OneDrive/Desktop/GD32VW553/GD32VW55X_Wifi_BLE_SDK/GD32VW55x_RELEASE_V1.0.2/MSDK/ble/app\app_cmd.c ****     param.report_en_bf = BLE_GAP_REPORT_ADV_EN_BIT | BLE_GAP_REPORT_DUPLICATE_FILTER_EN_BIT;
 1435              		.loc 1 270 5
 269:C:/Users/stapi/OneDrive/Desktop/GD32VW553/GD32VW55X_Wifi_BLE_SDK/GD32VW55x_RELEASE_V1.0.2/MSDK/ble/app\app_cmd.c ****     param.conn_idx = 0;
 1436              		.loc 1 269 16 is_stmt 0
 1437 0018 231A0100 		sh	zero,20(sp)
 271:C:/Users/stapi/OneDrive/Desktop/GD32VW553/GD32VW55X_Wifi_BLE_SDK/GD32VW55x_RELEASE_V1.0.2/MSDK/ble/app\app_cmd.c ****     param.adv_addr.adv_sid = 0;
 1438              		.loc 1 271 5 is_stmt 1
 272:C:/Users/stapi/OneDrive/Desktop/GD32VW553/GD32VW55X_Wifi_BLE_SDK/GD32VW55x_RELEASE_V1.0.2/MSDK/ble/app\app_cmd.c **** 
 1439              		.loc 1 272 5
 272:C:/Users/stapi/OneDrive/Desktop/GD32VW553/GD32VW55X_Wifi_BLE_SDK/GD32VW55x_RELEASE_V1.0.2/MSDK/ble/app\app_cmd.c **** 
 1440              		.loc 1 272 28 is_stmt 0
 1441 001c A30E0100 		sb	zero,29(sp)
 274:C:/Users/stapi/OneDrive/Desktop/GD32VW553/GD32VW55X_Wifi_BLE_SDK/GD32VW55x_RELEASE_V1.0.2/MSDK/ble/app\app_cmd.c ****         goto usage;
 1442              		.loc 1 274 5 is_stmt 1
 274:C:/Users/stapi/OneDrive/Desktop/GD32VW553/GD32VW55X_Wifi_BLE_SDK/GD32VW55x_RELEASE_V1.0.2/MSDK/ble/app\app_cmd.c ****         goto usage;
 1443              		.loc 1 274 8 is_stmt 0
 1444 0020 0947     		li	a4,2
 1445 0022 6307E502 		beq	a0,a4,.L81
 275:C:/Users/stapi/OneDrive/Desktop/GD32VW553/GD32VW55X_Wifi_BLE_SDK/GD32VW55x_RELEASE_V1.0.2/MSDK/ble/app\app_cmd.c ****     }
 1446              		.loc 1 275 9 is_stmt 1
 1447              	.LDL10:
 297:C:/Users/stapi/OneDrive/Desktop/GD32VW553/GD32VW55X_Wifi_BLE_SDK/GD32VW55x_RELEASE_V1.0.2/MSDK/ble/app\app_cmd.c ****     app_print("<dev idx>: device index in scan list\r\n");
 1448              		.loc 1 297 5
 1449 0026 37050000 		lui	a0,%hi(.LC57)
 1450              	.LVL194:
 1451 002a 13050500 		addi	a0,a0,%lo(.LC57)
 1452 002e 97000000 		call	co_printf
 1452      E7800000 
 1453              	.LVL195:
 298:C:/Users/stapi/OneDrive/Desktop/GD32VW553/GD32VW55X_Wifi_BLE_SDK/GD32VW55x_RELEASE_V1.0.2/MSDK/ble/app\app_cmd.c **** }
 1454              		.loc 1 298 5
 1455 0036 37050000 		lui	a0,%hi(.LC58)
 1456 003a 13050500 		addi	a0,a0,%lo(.LC58)
 1457              	.LVL196:
 1458              	.L89:
 281:C:/Users/stapi/OneDrive/Desktop/GD32VW553/GD32VW55X_Wifi_BLE_SDK/GD32VW55x_RELEASE_V1.0.2/MSDK/ble/app\app_cmd.c ****         return;
 1459              		.loc 1 281 9 is_stmt 0
 1460 003e 97000000 		call	co_printf
 1460      E7800000 
 1461              	.LVL197:
 282:C:/Users/stapi/OneDrive/Desktop/GD32VW553/GD32VW55X_Wifi_BLE_SDK/GD32VW55x_RELEASE_V1.0.2/MSDK/ble/app\app_cmd.c ****     }
 1462              		.loc 1 282 9 is_stmt 1
 1463              	.L80:
 299:C:/Users/stapi/OneDrive/Desktop/GD32VW553/GD32VW55X_Wifi_BLE_SDK/GD32VW55x_RELEASE_V1.0.2/MSDK/ble/app\app_cmd.c **** #endif  // #ifndef CONFIG_INTERNAL_DEBUG
 1464              		.loc 1 299 1 is_stmt 0
 1465 0046 0561     		addi	sp,sp,32
 1466              		.cfi_remember_state
 1467              		.cfi_def_cfa_offset 0
 1468 0048 17030000 		tail	__riscv_restore_1
 1468      67000300 
 1469              		.cfi_restore 8
 1470              		.cfi_restore 1
 1471              		.cfi_def_cfa_offset -16
 1472              	.LVL198:
 1473              	.L81:
 1474              		.cfi_restore_state
 1475 0050 AE87     		mv	a5,a1
 278:C:/Users/stapi/OneDrive/Desktop/GD32VW553/GD32VW55X_Wifi_BLE_SDK/GD32VW55x_RELEASE_V1.0.2/MSDK/ble/app\app_cmd.c ****     p_dev_info = scan_mgr_find_dev_by_idx(idx);
 1476              		.loc 1 278 5 is_stmt 1
 278:C:/Users/stapi/OneDrive/Desktop/GD32VW553/GD32VW55X_Wifi_BLE_SDK/GD32VW55x_RELEASE_V1.0.2/MSDK/ble/app\app_cmd.c ****     p_dev_info = scan_mgr_find_dev_by_idx(idx);
 1477              		.loc 1 278 20 is_stmt 0
 1478 0052 C843     		lw	a0,4(a5)
 1479              	.LVL199:
 1480 0054 2946     		li	a2,10
 1481 0056 6C00     		addi	a1,sp,12
 1482              	.LVL200:
 1483 0058 97000000 		call	strtoul
 1483      E7800000 
 1484              	.LVL201:
 279:C:/Users/stapi/OneDrive/Desktop/GD32VW553/GD32VW55X_Wifi_BLE_SDK/GD32VW55x_RELEASE_V1.0.2/MSDK/ble/app\app_cmd.c ****     if (p_dev_info == NULL) {
 1485              		.loc 1 279 5 is_stmt 1
 279:C:/Users/stapi/OneDrive/Desktop/GD32VW553/GD32VW55X_Wifi_BLE_SDK/GD32VW55x_RELEASE_V1.0.2/MSDK/ble/app\app_cmd.c ****     if (p_dev_info == NULL) {
 1486              		.loc 1 279 18 is_stmt 0
 1487 0060 1375F50F 		andi	a0,a0,0xff
 1488 0064 97000000 		call	scan_mgr_find_dev_by_idx
 1488      E7800000 
 1489              	.LVL202:
 1490 006c 2A84     		mv	s0,a0
 1491              	.LVL203:
 280:C:/Users/stapi/OneDrive/Desktop/GD32VW553/GD32VW55X_Wifi_BLE_SDK/GD32VW55x_RELEASE_V1.0.2/MSDK/ble/app\app_cmd.c ****         app_print("fail to find periodic advertising device\r\n");
 1492              		.loc 1 280 5 is_stmt 1
 280:C:/Users/stapi/OneDrive/Desktop/GD32VW553/GD32VW55X_Wifi_BLE_SDK/GD32VW55x_RELEASE_V1.0.2/MSDK/ble/app\app_cmd.c ****         app_print("fail to find periodic advertising device\r\n");
 1493              		.loc 1 280 8 is_stmt 0
 1494 006e 11E5     		bne	a0,zero,.L83
 281:C:/Users/stapi/OneDrive/Desktop/GD32VW553/GD32VW55X_Wifi_BLE_SDK/GD32VW55x_RELEASE_V1.0.2/MSDK/ble/app\app_cmd.c ****         return;
 1495              		.loc 1 281 9 is_stmt 1
 1496 0070 37050000 		lui	a0,%hi(.LC59)
 1497 0074 13050500 		addi	a0,a0,%lo(.LC59)
 1498 0078 D9B7     		j	.L89
 1499              	.L83:
 285:C:/Users/stapi/OneDrive/Desktop/GD32VW553/GD32VW55X_Wifi_BLE_SDK/GD32VW55x_RELEASE_V1.0.2/MSDK/ble/app\app_cmd.c ****     memcpy(param.adv_addr.addr, p_dev_info->peer_addr.addr, BLE_GAP_ADDR_LEN);
 1500              		.loc 1 285 5
 285:C:/Users/stapi/OneDrive/Desktop/GD32VW553/GD32VW55X_Wifi_BLE_SDK/GD32VW55x_RELEASE_V1.0.2/MSDK/ble/app\app_cmd.c ****     memcpy(param.adv_addr.addr, p_dev_info->peer_addr.addr, BLE_GAP_ADDR_LEN);
 1501              		.loc 1 285 30 is_stmt 0
 1502 007a 83478500 		lbu	a5,8(a0)
 286:C:/Users/stapi/OneDrive/Desktop/GD32VW553/GD32VW55X_Wifi_BLE_SDK/GD32VW55x_RELEASE_V1.0.2/MSDK/ble/app\app_cmd.c ****     param.adv_addr.adv_sid = p_dev_info->adv_sid;
 1503              		.loc 1 286 5
 1504 007e 93059500 		addi	a1,a0,9
 1505 0082 1946     		li	a2,6
 1506 0084 13056101 		addi	a0,sp,22
 285:C:/Users/stapi/OneDrive/Desktop/GD32VW553/GD32VW55X_Wifi_BLE_SDK/GD32VW55x_RELEASE_V1.0.2/MSDK/ble/app\app_cmd.c ****     memcpy(param.adv_addr.addr, p_dev_info->peer_addr.addr, BLE_GAP_ADDR_LEN);
 1507              		.loc 1 285 30
 1508 0088 230EF100 		sb	a5,28(sp)
 286:C:/Users/stapi/OneDrive/Desktop/GD32VW553/GD32VW55X_Wifi_BLE_SDK/GD32VW55x_RELEASE_V1.0.2/MSDK/ble/app\app_cmd.c ****     param.adv_addr.adv_sid = p_dev_info->adv_sid;
 1509              		.loc 1 286 5 is_stmt 1
 1510 008c 97000000 		call	memcpy
 1510      E7800000 
 1511              	.LVL204:
 287:C:/Users/stapi/OneDrive/Desktop/GD32VW553/GD32VW55X_Wifi_BLE_SDK/GD32VW55x_RELEASE_V1.0.2/MSDK/ble/app\app_cmd.c **** 
 1512              		.loc 1 287 5
 287:C:/Users/stapi/OneDrive/Desktop/GD32VW553/GD32VW55X_Wifi_BLE_SDK/GD32VW55x_RELEASE_V1.0.2/MSDK/ble/app\app_cmd.c **** 
 1513              		.loc 1 287 28 is_stmt 0
 1514 0094 8347F400 		lbu	a5,15(s0)
 289:C:/Users/stapi/OneDrive/Desktop/GD32VW553/GD32VW55X_Wifi_BLE_SDK/GD32VW55x_RELEASE_V1.0.2/MSDK/ble/app\app_cmd.c ****     if (ret != BLE_ERR_NO_ERROR) {
 1515              		.loc 1 289 11
 1516 0098 0C08     		addi	a1,sp,16
 1517 009a 0145     		li	a0,0
 287:C:/Users/stapi/OneDrive/Desktop/GD32VW553/GD32VW55X_Wifi_BLE_SDK/GD32VW55x_RELEASE_V1.0.2/MSDK/ble/app\app_cmd.c **** 
 1518              		.loc 1 287 28
 1519 009c A30EF100 		sb	a5,29(sp)
 289:C:/Users/stapi/OneDrive/Desktop/GD32VW553/GD32VW55X_Wifi_BLE_SDK/GD32VW55x_RELEASE_V1.0.2/MSDK/ble/app\app_cmd.c ****     if (ret != BLE_ERR_NO_ERROR) {
 1520              		.loc 1 289 5 is_stmt 1
 289:C:/Users/stapi/OneDrive/Desktop/GD32VW553/GD32VW55X_Wifi_BLE_SDK/GD32VW55x_RELEASE_V1.0.2/MSDK/ble/app\app_cmd.c ****     if (ret != BLE_ERR_NO_ERROR) {
 1521              		.loc 1 289 11 is_stmt 0
 1522 00a0 97000000 		call	ble_per_sync_start
 1522      E7800000 
 1523              	.LVL205:
 1524 00a8 AA85     		mv	a1,a0
 1525              	.LVL206:
 290:C:/Users/stapi/OneDrive/Desktop/GD32VW553/GD32VW55X_Wifi_BLE_SDK/GD32VW55x_RELEASE_V1.0.2/MSDK/ble/app\app_cmd.c ****         app_print("sync fail status 0x%x\r\n", ret);
 1526              		.loc 1 290 5 is_stmt 1
 290:C:/Users/stapi/OneDrive/Desktop/GD32VW553/GD32VW55X_Wifi_BLE_SDK/GD32VW55x_RELEASE_V1.0.2/MSDK/ble/app\app_cmd.c ****         app_print("sync fail status 0x%x\r\n", ret);
 1527              		.loc 1 290 8 is_stmt 0
 1528 00aa 51DD     		beq	a0,zero,.L80
 291:C:/Users/stapi/OneDrive/Desktop/GD32VW553/GD32VW55X_Wifi_BLE_SDK/GD32VW55x_RELEASE_V1.0.2/MSDK/ble/app\app_cmd.c ****     }
 1529              		.loc 1 291 9 is_stmt 1
 1530 00ac 37050000 		lui	a0,%hi(.LC60)
 1531              	.LVL207:
 1532 00b0 13050500 		addi	a0,a0,%lo(.LC60)
 1533 00b4 97000000 		call	co_printf
 1533      E7800000 
 1534              	.LVL208:
 1535 00bc 69B7     		j	.L80
 1536              		.cfi_endproc
 1537              	.LFE24:
 1539              		.section	.text.cmd_list_scan_devs,"ax",@progbits
 1540              		.align	1
 1542              	cmd_list_scan_devs:
 1543              	.LFB23:
 253:C:/Users/stapi/OneDrive/Desktop/GD32VW553/GD32VW55X_Wifi_BLE_SDK/GD32VW55x_RELEASE_V1.0.2/MSDK/ble/app\app_cmd.c ****     scan_mgr_list_scanned_devices();
 1544              		.loc 1 253 1
 1545              		.cfi_startproc
 1546              	.LVL209:
 254:C:/Users/stapi/OneDrive/Desktop/GD32VW553/GD32VW55X_Wifi_BLE_SDK/GD32VW55x_RELEASE_V1.0.2/MSDK/ble/app\app_cmd.c **** }
 1547              		.loc 1 254 5
 1548 0000 17030000 		tail	scan_mgr_list_scanned_devices
 1548      67000300 
 1549              	.LVL210:
 1550              		.cfi_endproc
 1551              	.LFE23:
 1553              		.section	.text.cmd_scan_stop,"ax",@progbits
 1554              		.align	1
 1556              	cmd_scan_stop:
 1557              	.LFB22:
 248:C:/Users/stapi/OneDrive/Desktop/GD32VW553/GD32VW55X_Wifi_BLE_SDK/GD32VW55x_RELEASE_V1.0.2/MSDK/ble/app\app_cmd.c ****     app_scan_disable();
 1558              		.loc 1 248 1
 1559              		.cfi_startproc
 1560              	.LVL211:
 249:C:/Users/stapi/OneDrive/Desktop/GD32VW553/GD32VW55X_Wifi_BLE_SDK/GD32VW55x_RELEASE_V1.0.2/MSDK/ble/app\app_cmd.c **** }
 1561              		.loc 1 249 5
 1562 0000 17030000 		tail	app_scan_disable
 1562      67000300 
 1563              	.LVL212:
 1564              		.cfi_endproc
 1565              	.LFE22:
 1567              		.section	.text.cmd_scan,"ax",@progbits
 1568              		.align	1
 1570              	cmd_scan:
 1571              	.LFB21:
 242:C:/Users/stapi/OneDrive/Desktop/GD32VW553/GD32VW55X_Wifi_BLE_SDK/GD32VW55x_RELEASE_V1.0.2/MSDK/ble/app\app_cmd.c ****     app_scan_enable(false);
 1572              		.loc 1 242 1
 1573              		.cfi_startproc
 1574              	.LVL213:
 243:C:/Users/stapi/OneDrive/Desktop/GD32VW553/GD32VW55X_Wifi_BLE_SDK/GD32VW55x_RELEASE_V1.0.2/MSDK/ble/app\app_cmd.c **** }
 1575              		.loc 1 243 5
 1576 0000 0145     		li	a0,0
 1577              	.LVL214:
 1578 0002 17030000 		tail	app_scan_enable
 1578      67000300 
 1579              	.LVL215:
 1580              		.cfi_endproc
 1581              	.LFE21:
 1583              		.section	.rodata.cmd_advertise_stop.str1.4,"aMS",@progbits,1
 1584              		.align	2
 1585              	.LC61:
 1586 0000 55736167 		.string	"Usage: ble_adv_stop <adv idx> [remove]\r\n"
 1586      653A2062 
 1586      6C655F61 
 1586      64765F73 
 1586      746F7020 
 1587 0029 000000   		.align	2
 1588              	.LC62:
 1589 002c 3C616476 		.string	"<adv idx>: advertising index to stop\r\n"
 1589      20696478 
 1589      3E3A2061 
 1589      64766572 
 1589      74697369 
 1590 0053 00       		.align	2
 1591              	.LC63:
 1592 0054 5B72656D 		.string	"[remove]: remove advertising set after stopped, default is 1 if not set\r\n"
 1592      6F76655D 
 1592      3A207265 
 1592      6D6F7665 
 1592      20616476 
 1593 009e 0000     		.align	2
 1594              	.LC64:
 1595 00a0 73746F70 		.string	"stop adv fail status 0x%x\r\n"
 1595      20616476 
 1595      20666169 
 1595      6C207374 
 1595      61747573 
 1596              		.section	.text.cmd_advertise_stop,"ax",@progbits
 1597              		.align	1
 1599              	cmd_advertise_stop:
 1600              	.LFB19:
 185:C:/Users/stapi/OneDrive/Desktop/GD32VW553/GD32VW55X_Wifi_BLE_SDK/GD32VW55x_RELEASE_V1.0.2/MSDK/ble/app\app_cmd.c ****     char *endptr = NULL;
 1601              		.loc 1 185 1
 1602              		.cfi_startproc
 1603              	.LVL216:
 1604 0000 17030000 		call	t0,__riscv_save_4
 1604      E7020300 
 1605              		.cfi_offset 19, -20
 1606              		.cfi_offset 18, -16
 1607              		.cfi_offset 9, -12
 1608              		.cfi_offset 8, -8
 1609              		.cfi_offset 1, -4
 1610              		.cfi_def_cfa_offset 32
 186:C:/Users/stapi/OneDrive/Desktop/GD32VW553/GD32VW55X_Wifi_BLE_SDK/GD32VW55x_RELEASE_V1.0.2/MSDK/ble/app\app_cmd.c ****     uint8_t idx = 0;
 1611              		.loc 1 186 5
 185:C:/Users/stapi/OneDrive/Desktop/GD32VW553/GD32VW55X_Wifi_BLE_SDK/GD32VW55x_RELEASE_V1.0.2/MSDK/ble/app\app_cmd.c ****     char *endptr = NULL;
 1612              		.loc 1 185 1 is_stmt 0
 1613 0008 4111     		addi	sp,sp,-16
 1614              		.cfi_def_cfa_offset 48
 186:C:/Users/stapi/OneDrive/Desktop/GD32VW553/GD32VW55X_Wifi_BLE_SDK/GD32VW55x_RELEASE_V1.0.2/MSDK/ble/app\app_cmd.c ****     uint8_t idx = 0;
 1615              		.loc 1 186 11
 1616 000a 02C6     		sw	zero,12(sp)
 187:C:/Users/stapi/OneDrive/Desktop/GD32VW553/GD32VW55X_Wifi_BLE_SDK/GD32VW55x_RELEASE_V1.0.2/MSDK/ble/app\app_cmd.c ****     bool rmv_adv = true;
 1617              		.loc 1 187 5 is_stmt 1
 1618              	.LVL217:
 188:C:/Users/stapi/OneDrive/Desktop/GD32VW553/GD32VW55X_Wifi_BLE_SDK/GD32VW55x_RELEASE_V1.0.2/MSDK/ble/app\app_cmd.c ****     ble_status_t ret;
 1619              		.loc 1 188 5
 189:C:/Users/stapi/OneDrive/Desktop/GD32VW553/GD32VW55X_Wifi_BLE_SDK/GD32VW55x_RELEASE_V1.0.2/MSDK/ble/app\app_cmd.c **** 
 1620              		.loc 1 189 5
 191:C:/Users/stapi/OneDrive/Desktop/GD32VW553/GD32VW55X_Wifi_BLE_SDK/GD32VW55x_RELEASE_V1.0.2/MSDK/ble/app\app_cmd.c ****         goto usage;
 1621              		.loc 1 191 5
 191:C:/Users/stapi/OneDrive/Desktop/GD32VW553/GD32VW55X_Wifi_BLE_SDK/GD32VW55x_RELEASE_V1.0.2/MSDK/ble/app\app_cmd.c ****         goto usage;
 1622              		.loc 1 191 8 is_stmt 0
 1623 000c 8547     		li	a5,1
 1624 000e 6306F500 		beq	a0,a5,.L97
 191:C:/Users/stapi/OneDrive/Desktop/GD32VW553/GD32VW55X_Wifi_BLE_SDK/GD32VW55x_RELEASE_V1.0.2/MSDK/ble/app\app_cmd.c ****         goto usage;
 1625              		.loc 1 191 19 discriminator 1
 1626 0012 8D49     		li	s3,3
 1627 0014 2A84     		mv	s0,a0
 1628 0016 63DFA902 		ble	a0,s3,.L98
 1629              	.L97:
 192:C:/Users/stapi/OneDrive/Desktop/GD32VW553/GD32VW55X_Wifi_BLE_SDK/GD32VW55x_RELEASE_V1.0.2/MSDK/ble/app\app_cmd.c ****     }
 1630              		.loc 1 192 9 is_stmt 1
 1631              	.LDL11:
 209:C:/Users/stapi/OneDrive/Desktop/GD32VW553/GD32VW55X_Wifi_BLE_SDK/GD32VW55x_RELEASE_V1.0.2/MSDK/ble/app\app_cmd.c ****     app_print("<adv idx>: advertising index to stop\r\n");
 1632              		.loc 1 209 5
 1633 001a 37050000 		lui	a0,%hi(.LC61)
 1634              	.LVL218:
 1635 001e 13050500 		addi	a0,a0,%lo(.LC61)
 1636 0022 97000000 		call	co_printf
 1636      E7800000 
 1637              	.LVL219:
 210:C:/Users/stapi/OneDrive/Desktop/GD32VW553/GD32VW55X_Wifi_BLE_SDK/GD32VW55x_RELEASE_V1.0.2/MSDK/ble/app\app_cmd.c ****     app_print("[remove]: remove advertising set after stopped, default is 1 if not set\r\n");
 1638              		.loc 1 210 5
 1639 002a 37050000 		lui	a0,%hi(.LC62)
 1640 002e 13050500 		addi	a0,a0,%lo(.LC62)
 1641 0032 97000000 		call	co_printf
 1641      E7800000 
 1642              	.LVL220:
 211:C:/Users/stapi/OneDrive/Desktop/GD32VW553/GD32VW55X_Wifi_BLE_SDK/GD32VW55x_RELEASE_V1.0.2/MSDK/ble/app\app_cmd.c **** }
 1643              		.loc 1 211 5
 1644 003a 37050000 		lui	a0,%hi(.LC63)
 1645 003e 13050500 		addi	a0,a0,%lo(.LC63)
 1646 0042 97000000 		call	co_printf
 1646      E7800000 
 1647              	.LVL221:
 1648              	.L96:
 212:C:/Users/stapi/OneDrive/Desktop/GD32VW553/GD32VW55X_Wifi_BLE_SDK/GD32VW55x_RELEASE_V1.0.2/MSDK/ble/app\app_cmd.c **** 
 1649              		.loc 1 212 1 is_stmt 0
 1650 004a 4101     		addi	sp,sp,16
 1651              		.cfi_remember_state
 1652              		.cfi_def_cfa_offset 0
 1653 004c 17030000 		tail	__riscv_restore_4
 1653      67000300 
 1654              		.cfi_restore 19
 1655              		.cfi_restore 18
 1656              		.cfi_restore 9
 1657              		.cfi_restore 8
 1658              		.cfi_restore 1
 1659              		.cfi_def_cfa_offset -32
 1660              	.LVL222:
 1661              	.L98:
 1662              		.cfi_restore_state
 1663 0054 AE84     		mv	s1,a1
 195:C:/Users/stapi/OneDrive/Desktop/GD32VW553/GD32VW55X_Wifi_BLE_SDK/GD32VW55x_RELEASE_V1.0.2/MSDK/ble/app\app_cmd.c **** 
 1664              		.loc 1 195 5 is_stmt 1
 195:C:/Users/stapi/OneDrive/Desktop/GD32VW553/GD32VW55X_Wifi_BLE_SDK/GD32VW55x_RELEASE_V1.0.2/MSDK/ble/app\app_cmd.c **** 
 1665              		.loc 1 195 20 is_stmt 0
 1666 0056 C840     		lw	a0,4(s1)
 1667 0058 6C00     		addi	a1,sp,12
 1668              	.LVL223:
 1669 005a 4146     		li	a2,16
 1670 005c 97000000 		call	strtoul
 1670      E7800000 
 1671              	.LVL224:
 195:C:/Users/stapi/OneDrive/Desktop/GD32VW553/GD32VW55X_Wifi_BLE_SDK/GD32VW55x_RELEASE_V1.0.2/MSDK/ble/app\app_cmd.c **** 
 1672              		.loc 1 195 9
 1673 0064 1379F50F 		andi	s2,a0,0xff
 1674              	.LVL225:
 197:C:/Users/stapi/OneDrive/Desktop/GD32VW553/GD32VW55X_Wifi_BLE_SDK/GD32VW55x_RELEASE_V1.0.2/MSDK/ble/app\app_cmd.c ****         rmv_adv = (bool)strtoul((const char *)argv[2], &endptr, 16);
 1675              		.loc 1 197 5 is_stmt 1
 188:C:/Users/stapi/OneDrive/Desktop/GD32VW553/GD32VW55X_Wifi_BLE_SDK/GD32VW55x_RELEASE_V1.0.2/MSDK/ble/app\app_cmd.c ****     ble_status_t ret;
 1676              		.loc 1 188 10 is_stmt 0
 1677 0068 8545     		li	a1,1
 197:C:/Users/stapi/OneDrive/Desktop/GD32VW553/GD32VW55X_Wifi_BLE_SDK/GD32VW55x_RELEASE_V1.0.2/MSDK/ble/app\app_cmd.c ****         rmv_adv = (bool)strtoul((const char *)argv[2], &endptr, 16);
 1678              		.loc 1 197 8
 1679 006a 631B3401 		bne	s0,s3,.L100
 198:C:/Users/stapi/OneDrive/Desktop/GD32VW553/GD32VW55X_Wifi_BLE_SDK/GD32VW55x_RELEASE_V1.0.2/MSDK/ble/app\app_cmd.c ****     }
 1680              		.loc 1 198 9 is_stmt 1
 198:C:/Users/stapi/OneDrive/Desktop/GD32VW553/GD32VW55X_Wifi_BLE_SDK/GD32VW55x_RELEASE_V1.0.2/MSDK/ble/app\app_cmd.c ****     }
 1681              		.loc 1 198 25 is_stmt 0
 1682 006e 8844     		lw	a0,8(s1)
 1683 0070 6C00     		addi	a1,sp,12
 1684 0072 4146     		li	a2,16
 1685 0074 97000000 		call	strtoul
 1685      E7800000 
 1686              	.LVL226:
 198:C:/Users/stapi/OneDrive/Desktop/GD32VW553/GD32VW55X_Wifi_BLE_SDK/GD32VW55x_RELEASE_V1.0.2/MSDK/ble/app\app_cmd.c ****     }
 1687              		.loc 1 198 17
 1688 007c B335A000 		snez	a1,a0
 1689              	.LVL227:
 1690              	.L100:
 201:C:/Users/stapi/OneDrive/Desktop/GD32VW553/GD32VW55X_Wifi_BLE_SDK/GD32VW55x_RELEASE_V1.0.2/MSDK/ble/app\app_cmd.c ****     if (ret != BLE_ERR_NO_ERROR) {
 1691              		.loc 1 201 5 is_stmt 1
 201:C:/Users/stapi/OneDrive/Desktop/GD32VW553/GD32VW55X_Wifi_BLE_SDK/GD32VW55x_RELEASE_V1.0.2/MSDK/ble/app\app_cmd.c ****     if (ret != BLE_ERR_NO_ERROR) {
 1692              		.loc 1 201 11 is_stmt 0
 1693 0080 4A85     		mv	a0,s2
 1694 0082 97000000 		call	app_adv_stop
 1694      E7800000 
 1695              	.LVL228:
 1696 008a AA85     		mv	a1,a0
 1697              	.LVL229:
 202:C:/Users/stapi/OneDrive/Desktop/GD32VW553/GD32VW55X_Wifi_BLE_SDK/GD32VW55x_RELEASE_V1.0.2/MSDK/ble/app\app_cmd.c ****         app_print("stop adv fail status 0x%x\r\n", ret);
 1698              		.loc 1 202 5 is_stmt 1
 202:C:/Users/stapi/OneDrive/Desktop/GD32VW553/GD32VW55X_Wifi_BLE_SDK/GD32VW55x_RELEASE_V1.0.2/MSDK/ble/app\app_cmd.c ****         app_print("stop adv fail status 0x%x\r\n", ret);
 1699              		.loc 1 202 8 is_stmt 0
 1700 008c 5DDD     		beq	a0,zero,.L96
 203:C:/Users/stapi/OneDrive/Desktop/GD32VW553/GD32VW55X_Wifi_BLE_SDK/GD32VW55x_RELEASE_V1.0.2/MSDK/ble/app\app_cmd.c ****     }
 1701              		.loc 1 203 9 is_stmt 1
 1702 008e 37050000 		lui	a0,%hi(.LC64)
 1703              	.LVL230:
 1704 0092 13050500 		addi	a0,a0,%lo(.LC64)
 1705 0096 97000000 		call	co_printf
 1705      E7800000 
 1706              	.LVL231:
 206:C:/Users/stapi/OneDrive/Desktop/GD32VW553/GD32VW55X_Wifi_BLE_SDK/GD32VW55x_RELEASE_V1.0.2/MSDK/ble/app\app_cmd.c **** 
 1707              		.loc 1 206 5
 1708 009e 75B7     		j	.L96
 1709              		.cfi_endproc
 1710              	.LFE19:
 1712              		.section	.rodata.cmd_advertise.str1.4,"aMS",@progbits,1
 1713              		.align	2
 1714              	.LC65:
 1715 0000 63726561 		.string	"create adv fail status 0x%x\r\n"
 1715      74652061 
 1715      64762066 
 1715      61696C20 
 1715      73746174 
 1716 001e 0000     		.align	2
 1717              	.LC66:
 1718 0020 55736167 		.string	"Usage: ble_adv <adv type>\r\n"
 1718      653A2062 
 1718      6C655F61 
 1718      6476203C 
 1718      61647620 
 1719              		.align	2
 1720              	.LC67:
 1721 003c 3C616476 		.string	"<adv type>: advertising type, value 0 ~ 2\r\n"
 1721      20747970 
 1721      653E3A20 
 1721      61647665 
 1721      72746973 
 1722              		.align	2
 1723              	.LC68:
 1724 0068 09303A20 		.string	"\t0: legacy advertising, 1: extended advertising, 2: periodic advertising\r\n"
 1724      6C656761 
 1724      63792061 
 1724      64766572 
 1724      74697369 
 1725 00b3 00       		.align	2
 1726              	.LC69:
 1727 00b4 09737570 		.string	"\tsupport %u advertising sets at the same time\r\n"
 1727      706F7274 
 1727      20257520 
 1727      61647665 
 1727      72746973 
 1728              		.section	.text.cmd_advertise,"ax",@progbits
 1729              		.align	1
 1731              	cmd_advertise:
 1732              	.LFB18:
 135:C:/Users/stapi/OneDrive/Desktop/GD32VW553/GD32VW55X_Wifi_BLE_SDK/GD32VW55x_RELEASE_V1.0.2/MSDK/ble/app\app_cmd.c ****     char *endptr = NULL;
 1733              		.loc 1 135 1
 1734              		.cfi_startproc
 1735              	.LVL232:
 1736 0000 17030000 		call	t0,__riscv_save_3
 1736      E7020300 
 1737              		.cfi_offset 18, -16
 1738              		.cfi_offset 9, -12
 1739              		.cfi_offset 8, -8
 1740              		.cfi_offset 1, -4
 1741              		.cfi_def_cfa_offset 16
 136:C:/Users/stapi/OneDrive/Desktop/GD32VW553/GD32VW55X_Wifi_BLE_SDK/GD32VW55x_RELEASE_V1.0.2/MSDK/ble/app\app_cmd.c ****     app_adv_param_t adv_param;
 1742              		.loc 1 136 5
 135:C:/Users/stapi/OneDrive/Desktop/GD32VW553/GD32VW55X_Wifi_BLE_SDK/GD32VW55x_RELEASE_V1.0.2/MSDK/ble/app\app_cmd.c ****     char *endptr = NULL;
 1743              		.loc 1 135 1 is_stmt 0
 1744 0008 0111     		addi	sp,sp,-32
 1745              		.cfi_def_cfa_offset 48
 135:C:/Users/stapi/OneDrive/Desktop/GD32VW553/GD32VW55X_Wifi_BLE_SDK/GD32VW55x_RELEASE_V1.0.2/MSDK/ble/app\app_cmd.c ****     char *endptr = NULL;
 1746              		.loc 1 135 1
 1747 000a 2A84     		mv	s0,a0
 139:C:/Users/stapi/OneDrive/Desktop/GD32VW553/GD32VW55X_Wifi_BLE_SDK/GD32VW55x_RELEASE_V1.0.2/MSDK/ble/app\app_cmd.c **** 
 1748              		.loc 1 139 13
 1749 000c 0949     		li	s2,2
 141:C:/Users/stapi/OneDrive/Desktop/GD32VW553/GD32VW55X_Wifi_BLE_SDK/GD32VW55x_RELEASE_V1.0.2/MSDK/ble/app\app_cmd.c **** 
 1750              		.loc 1 141 5
 1751 000e 13057100 		addi	a0,sp,7
 1752              	.LVL233:
 135:C:/Users/stapi/OneDrive/Desktop/GD32VW553/GD32VW55X_Wifi_BLE_SDK/GD32VW55x_RELEASE_V1.0.2/MSDK/ble/app\app_cmd.c ****     char *endptr = NULL;
 1753              		.loc 1 135 1
 1754 0012 AE84     		mv	s1,a1
 136:C:/Users/stapi/OneDrive/Desktop/GD32VW553/GD32VW55X_Wifi_BLE_SDK/GD32VW55x_RELEASE_V1.0.2/MSDK/ble/app\app_cmd.c ****     app_adv_param_t adv_param;
 1755              		.loc 1 136 11
 1756 0014 02C4     		sw	zero,8(sp)
 137:C:/Users/stapi/OneDrive/Desktop/GD32VW553/GD32VW55X_Wifi_BLE_SDK/GD32VW55x_RELEASE_V1.0.2/MSDK/ble/app\app_cmd.c ****     ble_status_t ret;
 1757              		.loc 1 137 5 is_stmt 1
 138:C:/Users/stapi/OneDrive/Desktop/GD32VW553/GD32VW55X_Wifi_BLE_SDK/GD32VW55x_RELEASE_V1.0.2/MSDK/ble/app\app_cmd.c ****     uint8_t set_num = 2;
 1758              		.loc 1 138 5
 139:C:/Users/stapi/OneDrive/Desktop/GD32VW553/GD32VW55X_Wifi_BLE_SDK/GD32VW55x_RELEASE_V1.0.2/MSDK/ble/app\app_cmd.c **** 
 1759              		.loc 1 139 5
 139:C:/Users/stapi/OneDrive/Desktop/GD32VW553/GD32VW55X_Wifi_BLE_SDK/GD32VW55x_RELEASE_V1.0.2/MSDK/ble/app\app_cmd.c **** 
 1760              		.loc 1 139 13 is_stmt 0
 1761 0016 A3032101 		sb	s2,7(sp)
 141:C:/Users/stapi/OneDrive/Desktop/GD32VW553/GD32VW55X_Wifi_BLE_SDK/GD32VW55x_RELEASE_V1.0.2/MSDK/ble/app\app_cmd.c **** 
 1762              		.loc 1 141 5 is_stmt 1
 1763 001a 97000000 		call	ble_adp_adv_sets_num_get
 1763      E7800000 
 1764              	.LVL234:
 143:C:/Users/stapi/OneDrive/Desktop/GD32VW553/GD32VW55X_Wifi_BLE_SDK/GD32VW55x_RELEASE_V1.0.2/MSDK/ble/app\app_cmd.c ****         goto usage;
 1765              		.loc 1 143 5
 143:C:/Users/stapi/OneDrive/Desktop/GD32VW553/GD32VW55X_Wifi_BLE_SDK/GD32VW55x_RELEASE_V1.0.2/MSDK/ble/app\app_cmd.c ****         goto usage;
 1766              		.loc 1 143 8 is_stmt 0
 1767 0022 63162407 		bne	s0,s2,.L108
 147:C:/Users/stapi/OneDrive/Desktop/GD32VW553/GD32VW55X_Wifi_BLE_SDK/GD32VW55x_RELEASE_V1.0.2/MSDK/ble/app\app_cmd.c **** 
 1768              		.loc 1 147 5 is_stmt 1
 147:C:/Users/stapi/OneDrive/Desktop/GD32VW553/GD32VW55X_Wifi_BLE_SDK/GD32VW55x_RELEASE_V1.0.2/MSDK/ble/app\app_cmd.c **** 
 1769              		.loc 1 147 31 is_stmt 0
 1770 0026 C840     		lw	a0,4(s1)
 1771 0028 4146     		li	a2,16
 1772 002a 2C00     		addi	a1,sp,8
 1773 002c 97000000 		call	strtoul
 1773      E7800000 
 1774              	.LVL235:
 147:C:/Users/stapi/OneDrive/Desktop/GD32VW553/GD32VW55X_Wifi_BLE_SDK/GD32VW55x_RELEASE_V1.0.2/MSDK/ble/app\app_cmd.c **** 
 1775              		.loc 1 147 22
 1776 0034 9377F50F 		andi	a5,a0,0xff
 147:C:/Users/stapi/OneDrive/Desktop/GD32VW553/GD32VW55X_Wifi_BLE_SDK/GD32VW55x_RELEASE_V1.0.2/MSDK/ble/app\app_cmd.c **** 
 1777              		.loc 1 147 20
 1778 0038 2306F100 		sb	a5,12(sp)
 149:C:/Users/stapi/OneDrive/Desktop/GD32VW553/GD32VW55X_Wifi_BLE_SDK/GD32VW55x_RELEASE_V1.0.2/MSDK/ble/app\app_cmd.c ****         goto usage;
 1779              		.loc 1 149 5 is_stmt 1
 149:C:/Users/stapi/OneDrive/Desktop/GD32VW553/GD32VW55X_Wifi_BLE_SDK/GD32VW55x_RELEASE_V1.0.2/MSDK/ble/app\app_cmd.c ****         goto usage;
 1780              		.loc 1 149 8 is_stmt 0
 1781 003c 6369F404 		bgtu	a5,s0,.L108
 153:C:/Users/stapi/OneDrive/Desktop/GD32VW553/GD32VW55X_Wifi_BLE_SDK/GD32VW55x_RELEASE_V1.0.2/MSDK/ble/app\app_cmd.c ****         adv_param.prop = 0x0003;    // scannable connectable undirected
 1782              		.loc 1 153 5 is_stmt 1
 153:C:/Users/stapi/OneDrive/Desktop/GD32VW553/GD32VW55X_Wifi_BLE_SDK/GD32VW55x_RELEASE_V1.0.2/MSDK/ble/app\app_cmd.c ****         adv_param.prop = 0x0003;    // scannable connectable undirected
 1783              		.loc 1 153 8 is_stmt 0
 1784 0040 A9E3     		bne	a5,zero,.L109
 154:C:/Users/stapi/OneDrive/Desktop/GD32VW553/GD32VW55X_Wifi_BLE_SDK/GD32VW55x_RELEASE_V1.0.2/MSDK/ble/app\app_cmd.c ****     } else if (adv_param.type == BLE_ADV_TYPE_EXTENDED) {
 1785              		.loc 1 154 9 is_stmt 1
 154:C:/Users/stapi/OneDrive/Desktop/GD32VW553/GD32VW55X_Wifi_BLE_SDK/GD32VW55x_RELEASE_V1.0.2/MSDK/ble/app\app_cmd.c ****     } else if (adv_param.type == BLE_ADV_TYPE_EXTENDED) {
 1786              		.loc 1 154 24 is_stmt 0
 1787 0042 8D47     		li	a5,3
 1788              	.L118:
 156:C:/Users/stapi/OneDrive/Desktop/GD32VW553/GD32VW55X_Wifi_BLE_SDK/GD32VW55x_RELEASE_V1.0.2/MSDK/ble/app\app_cmd.c ****     } else {
 1789              		.loc 1 156 9 is_stmt 1
 156:C:/Users/stapi/OneDrive/Desktop/GD32VW553/GD32VW55X_Wifi_BLE_SDK/GD32VW55x_RELEASE_V1.0.2/MSDK/ble/app\app_cmd.c ****     } else {
 1790              		.loc 1 156 24 is_stmt 0
 1791 0044 2317F100 		sh	a5,14(sp)
 1792              	.L110:
 161:C:/Users/stapi/OneDrive/Desktop/GD32VW553/GD32VW55X_Wifi_BLE_SDK/GD32VW55x_RELEASE_V1.0.2/MSDK/ble/app\app_cmd.c ****     adv_param.sec_phy = BLE_GAP_PHY_1MBPS;
 1793              		.loc 1 161 5 is_stmt 1
 162:C:/Users/stapi/OneDrive/Desktop/GD32VW553/GD32VW55X_Wifi_BLE_SDK/GD32VW55x_RELEASE_V1.0.2/MSDK/ble/app\app_cmd.c ****     adv_param.wl_enable = false;
 1794              		.loc 1 162 5
 163:C:/Users/stapi/OneDrive/Desktop/GD32VW553/GD32VW55X_Wifi_BLE_SDK/GD32VW55x_RELEASE_V1.0.2/MSDK/ble/app\app_cmd.c ****     adv_param.own_addr_type = BLE_GAP_LOCAL_ADDR_STATIC;
 1795              		.loc 1 163 5
 164:C:/Users/stapi/OneDrive/Desktop/GD32VW553/GD32VW55X_Wifi_BLE_SDK/GD32VW55x_RELEASE_V1.0.2/MSDK/ble/app\app_cmd.c ****     adv_param.disc_mode = BLE_GAP_ADV_MODE_GEN_DISC;
 1796              		.loc 1 164 5
 165:C:/Users/stapi/OneDrive/Desktop/GD32VW553/GD32VW55X_Wifi_BLE_SDK/GD32VW55x_RELEASE_V1.0.2/MSDK/ble/app\app_cmd.c ****     adv_param.max_data_len = 0x1F;
 1797              		.loc 1 165 5
 161:C:/Users/stapi/OneDrive/Desktop/GD32VW553/GD32VW55X_Wifi_BLE_SDK/GD32VW55x_RELEASE_V1.0.2/MSDK/ble/app\app_cmd.c ****     adv_param.sec_phy = BLE_GAP_PHY_1MBPS;
 1798              		.loc 1 161 23 is_stmt 0
 1799 0048 93071010 		li	a5,257
 1800 004c 3EC8     		sw	a5,16(sp)
 165:C:/Users/stapi/OneDrive/Desktop/GD32VW553/GD32VW55X_Wifi_BLE_SDK/GD32VW55x_RELEASE_V1.0.2/MSDK/ble/app\app_cmd.c ****     adv_param.max_data_len = 0x1F;
 1801              		.loc 1 165 25
 1802 004e 8547     		li	a5,1
 1803 0050 230AF100 		sb	a5,20(sp)
 166:C:/Users/stapi/OneDrive/Desktop/GD32VW553/GD32VW55X_Wifi_BLE_SDK/GD32VW55x_RELEASE_V1.0.2/MSDK/ble/app\app_cmd.c **** 
 1804              		.loc 1 166 5 is_stmt 1
 168:C:/Users/stapi/OneDrive/Desktop/GD32VW553/GD32VW55X_Wifi_BLE_SDK/GD32VW55x_RELEASE_V1.0.2/MSDK/ble/app\app_cmd.c **** 
 1805              		.loc 1 168 11 is_stmt 0
 1806 0054 6800     		addi	a0,sp,12
 166:C:/Users/stapi/OneDrive/Desktop/GD32VW553/GD32VW55X_Wifi_BLE_SDK/GD32VW55x_RELEASE_V1.0.2/MSDK/ble/app\app_cmd.c **** 
 1807              		.loc 1 166 28
 1808 0056 FD47     		li	a5,31
 1809 0058 231BF100 		sh	a5,22(sp)
 168:C:/Users/stapi/OneDrive/Desktop/GD32VW553/GD32VW55X_Wifi_BLE_SDK/GD32VW55x_RELEASE_V1.0.2/MSDK/ble/app\app_cmd.c **** 
 1810              		.loc 1 168 5 is_stmt 1
 168:C:/Users/stapi/OneDrive/Desktop/GD32VW553/GD32VW55X_Wifi_BLE_SDK/GD32VW55x_RELEASE_V1.0.2/MSDK/ble/app\app_cmd.c **** 
 1811              		.loc 1 168 11 is_stmt 0
 1812 005c 97000000 		call	app_adv_create
 1812      E7800000 
 1813              	.LVL236:
 1814 0064 AA85     		mv	a1,a0
 1815              	.LVL237:
 170:C:/Users/stapi/OneDrive/Desktop/GD32VW553/GD32VW55X_Wifi_BLE_SDK/GD32VW55x_RELEASE_V1.0.2/MSDK/ble/app\app_cmd.c ****         app_print("create adv fail status 0x%x\r\n", ret);
 1816              		.loc 1 170 5 is_stmt 1
 170:C:/Users/stapi/OneDrive/Desktop/GD32VW553/GD32VW55X_Wifi_BLE_SDK/GD32VW55x_RELEASE_V1.0.2/MSDK/ble/app\app_cmd.c ****         app_print("create adv fail status 0x%x\r\n", ret);
 1817              		.loc 1 170 8 is_stmt 0
 1818 0066 09C9     		beq	a0,zero,.L107
 171:C:/Users/stapi/OneDrive/Desktop/GD32VW553/GD32VW55X_Wifi_BLE_SDK/GD32VW55x_RELEASE_V1.0.2/MSDK/ble/app\app_cmd.c ****     }
 1819              		.loc 1 171 9 is_stmt 1
 1820 0068 37050000 		lui	a0,%hi(.LC65)
 1821              	.LVL238:
 1822 006c 13050500 		addi	a0,a0,%lo(.LC65)
 1823              	.LVL239:
 1824              	.L119:
 180:C:/Users/stapi/OneDrive/Desktop/GD32VW553/GD32VW55X_Wifi_BLE_SDK/GD32VW55x_RELEASE_V1.0.2/MSDK/ble/app\app_cmd.c **** }
 1825              		.loc 1 180 5 is_stmt 0
 1826 0070 97000000 		call	co_printf
 1826      E7800000 
 1827              	.LVL240:
 1828              	.L107:
 181:C:/Users/stapi/OneDrive/Desktop/GD32VW553/GD32VW55X_Wifi_BLE_SDK/GD32VW55x_RELEASE_V1.0.2/MSDK/ble/app\app_cmd.c **** #endif // #ifndef CONFIG_INTERNAL_DEBUG
 1829              		.loc 1 181 1
 1830 0078 0561     		addi	sp,sp,32
 1831              		.cfi_remember_state
 1832              		.cfi_def_cfa_offset 0
 1833 007a 17030000 		tail	__riscv_restore_3
 1833      67000300 
 1834              		.cfi_restore 18
 1835              		.cfi_restore 9
 1836              		.cfi_restore 8
 1837              		.cfi_restore 1
 1838              		.cfi_def_cfa_offset -16
 1839              	.L109:
 1840              		.cfi_restore_state
 155:C:/Users/stapi/OneDrive/Desktop/GD32VW553/GD32VW55X_Wifi_BLE_SDK/GD32VW55x_RELEASE_V1.0.2/MSDK/ble/app\app_cmd.c ****         adv_param.prop = 0x0001;    // connectable undirected
 1841              		.loc 1 155 12 is_stmt 1
 155:C:/Users/stapi/OneDrive/Desktop/GD32VW553/GD32VW55X_Wifi_BLE_SDK/GD32VW55x_RELEASE_V1.0.2/MSDK/ble/app\app_cmd.c ****         adv_param.prop = 0x0001;    // connectable undirected
 1842              		.loc 1 155 15 is_stmt 0
 1843 0082 0547     		li	a4,1
 1844 0084 E380E7FC 		beq	a5,a4,.L118
 158:C:/Users/stapi/OneDrive/Desktop/GD32VW553/GD32VW55X_Wifi_BLE_SDK/GD32VW55x_RELEASE_V1.0.2/MSDK/ble/app\app_cmd.c ****     }
 1845              		.loc 1 158 9 is_stmt 1
 158:C:/Users/stapi/OneDrive/Desktop/GD32VW553/GD32VW55X_Wifi_BLE_SDK/GD32VW55x_RELEASE_V1.0.2/MSDK/ble/app\app_cmd.c ****     }
 1846              		.loc 1 158 24 is_stmt 0
 1847 0088 23170100 		sh	zero,14(sp)
 1848 008c 75BF     		j	.L110
 1849              	.L108:
 1850              	.LDL12:
 177:C:/Users/stapi/OneDrive/Desktop/GD32VW553/GD32VW55X_Wifi_BLE_SDK/GD32VW55x_RELEASE_V1.0.2/MSDK/ble/app\app_cmd.c ****     app_print("<adv type>: advertising type, value 0 ~ 2\r\n");
 1851              		.loc 1 177 5 is_stmt 1
 1852 008e 37050000 		lui	a0,%hi(.LC66)
 1853 0092 13050500 		addi	a0,a0,%lo(.LC66)
 1854 0096 97000000 		call	co_printf
 1854      E7800000 
 1855              	.LVL241:
 178:C:/Users/stapi/OneDrive/Desktop/GD32VW553/GD32VW55X_Wifi_BLE_SDK/GD32VW55x_RELEASE_V1.0.2/MSDK/ble/app\app_cmd.c ****     app_print("\t0: legacy advertising, 1: extended advertising, 2: periodic advertising\r\n");
 1856              		.loc 1 178 5
 1857 009e 37050000 		lui	a0,%hi(.LC67)
 1858 00a2 13050500 		addi	a0,a0,%lo(.LC67)
 1859 00a6 97000000 		call	co_printf
 1859      E7800000 
 1860              	.LVL242:
 179:C:/Users/stapi/OneDrive/Desktop/GD32VW553/GD32VW55X_Wifi_BLE_SDK/GD32VW55x_RELEASE_V1.0.2/MSDK/ble/app\app_cmd.c ****     app_print("\tsupport %u advertising sets at the same time\r\n", set_num);
 1861              		.loc 1 179 5
 1862 00ae 37050000 		lui	a0,%hi(.LC68)
 1863 00b2 13050500 		addi	a0,a0,%lo(.LC68)
 1864 00b6 97000000 		call	co_printf
 1864      E7800000 
 1865              	.LVL243:
 180:C:/Users/stapi/OneDrive/Desktop/GD32VW553/GD32VW55X_Wifi_BLE_SDK/GD32VW55x_RELEASE_V1.0.2/MSDK/ble/app\app_cmd.c **** }
 1866              		.loc 1 180 5
 1867 00be 37050000 		lui	a0,%hi(.LC69)
 1868 00c2 83457100 		lbu	a1,7(sp)
 1869 00c6 13050500 		addi	a0,a0,%lo(.LC69)
 1870 00ca 5DB7     		j	.L119
 1871              		.cfi_endproc
 1872              	.LFE18:
 1874              		.section	.text.cmd_ble_enable,"ax",@progbits
 1875              		.align	1
 1877              	cmd_ble_enable:
 1878              	.LFB14:
  68:C:/Users/stapi/OneDrive/Desktop/GD32VW553/GD32VW55X_Wifi_BLE_SDK/GD32VW55x_RELEASE_V1.0.2/MSDK/ble/app\app_cmd.c ****     app_ble_enable();
 1879              		.loc 1 68 1
 1880              		.cfi_startproc
 1881              	.LVL244:
  69:C:/Users/stapi/OneDrive/Desktop/GD32VW553/GD32VW55X_Wifi_BLE_SDK/GD32VW55x_RELEASE_V1.0.2/MSDK/ble/app\app_cmd.c **** }
 1882              		.loc 1 69 5
 1883 0000 17030000 		tail	app_ble_enable
 1883      67000300 
 1884              	.LVL245:
 1885              		.cfi_endproc
 1886              	.LFE14:
 1888              		.section	.rodata.cmd_ble_courier_wifi.str1.4,"aMS",@progbits,1
 1889              		.align	2
 1890              	.LC70:
 1891 0000 55736167 		.string	"Usage: ble_courier_wifi <0:disable; 1:enable>\r\n"
 1891      653A2062 
 1891      6C655F63 
 1891      6F757269 
 1891      65725F77 
 1892              		.align	2
 1893              	.LC71:
 1894 0030 626C655F 		.string	"ble_courier_wifi ret:%u\r\n"
 1894      636F7572 
 1894      6965725F 
 1894      77696669 
 1894      20726574 
 1895              		.section	.text.cmd_ble_courier_wifi,"ax",@progbits
 1896              		.align	1
 1898              	cmd_ble_courier_wifi:
 1899              	.LFB17:
 104:C:/Users/stapi/OneDrive/Desktop/GD32VW553/GD32VW55X_Wifi_BLE_SDK/GD32VW55x_RELEASE_V1.0.2/MSDK/ble/app\app_cmd.c ****     char *endptr = NULL;
 1900              		.loc 1 104 1
 1901              		.cfi_startproc
 1902              	.LVL246:
 1903 0000 17030000 		call	t0,__riscv_save_1
 1903      E7020300 
 1904              		.cfi_offset 8, -8
 1905              		.cfi_offset 1, -4
 1906              		.cfi_def_cfa_offset 16
 105:C:/Users/stapi/OneDrive/Desktop/GD32VW553/GD32VW55X_Wifi_BLE_SDK/GD32VW55x_RELEASE_V1.0.2/MSDK/ble/app\app_cmd.c ****     uint8_t enable;
 1907              		.loc 1 105 5
 104:C:/Users/stapi/OneDrive/Desktop/GD32VW553/GD32VW55X_Wifi_BLE_SDK/GD32VW55x_RELEASE_V1.0.2/MSDK/ble/app\app_cmd.c ****     char *endptr = NULL;
 1908              		.loc 1 104 1 is_stmt 0
 1909 0008 4111     		addi	sp,sp,-16
 1910              		.cfi_def_cfa_offset 32
 105:C:/Users/stapi/OneDrive/Desktop/GD32VW553/GD32VW55X_Wifi_BLE_SDK/GD32VW55x_RELEASE_V1.0.2/MSDK/ble/app\app_cmd.c ****     uint8_t enable;
 1911              		.loc 1 105 11
 1912 000a 02C6     		sw	zero,12(sp)
 106:C:/Users/stapi/OneDrive/Desktop/GD32VW553/GD32VW55X_Wifi_BLE_SDK/GD32VW55x_RELEASE_V1.0.2/MSDK/ble/app\app_cmd.c ****     ble_status_t ret;
 1913              		.loc 1 106 5 is_stmt 1
 107:C:/Users/stapi/OneDrive/Desktop/GD32VW553/GD32VW55X_Wifi_BLE_SDK/GD32VW55x_RELEASE_V1.0.2/MSDK/ble/app\app_cmd.c **** 
 1914              		.loc 1 107 5
 109:C:/Users/stapi/OneDrive/Desktop/GD32VW553/GD32VW55X_Wifi_BLE_SDK/GD32VW55x_RELEASE_V1.0.2/MSDK/ble/app\app_cmd.c ****         app_print("Usage: ble_courier_wifi <0:disable; 1:enable>\r\n");
 1915              		.loc 1 109 5
 109:C:/Users/stapi/OneDrive/Desktop/GD32VW553/GD32VW55X_Wifi_BLE_SDK/GD32VW55x_RELEASE_V1.0.2/MSDK/ble/app\app_cmd.c ****         app_print("Usage: ble_courier_wifi <0:disable; 1:enable>\r\n");
 1916              		.loc 1 109 8 is_stmt 0
 1917 000c 0947     		li	a4,2
 1918 000e 630FE500 		beq	a0,a4,.L123
 110:C:/Users/stapi/OneDrive/Desktop/GD32VW553/GD32VW55X_Wifi_BLE_SDK/GD32VW55x_RELEASE_V1.0.2/MSDK/ble/app\app_cmd.c ****         return;
 1919              		.loc 1 110 9 is_stmt 1
 1920 0012 37050000 		lui	a0,%hi(.LC70)
 1921              	.LVL247:
 1922 0016 13050500 		addi	a0,a0,%lo(.LC70)
 1923 001a 97000000 		call	co_printf
 1923      E7800000 
 1924              	.LVL248:
 111:C:/Users/stapi/OneDrive/Desktop/GD32VW553/GD32VW55X_Wifi_BLE_SDK/GD32VW55x_RELEASE_V1.0.2/MSDK/ble/app\app_cmd.c ****     }
 1925              		.loc 1 111 9
 1926              	.L122:
 130:C:/Users/stapi/OneDrive/Desktop/GD32VW553/GD32VW55X_Wifi_BLE_SDK/GD32VW55x_RELEASE_V1.0.2/MSDK/ble/app\app_cmd.c **** 
 1927              		.loc 1 130 1 is_stmt 0
 1928 0022 4101     		addi	sp,sp,16
 1929              		.cfi_remember_state
 1930              		.cfi_def_cfa_offset 0
 1931 0024 17030000 		tail	__riscv_restore_1
 1931      67000300 
 1932              		.cfi_restore 8
 1933              		.cfi_restore 1
 1934              		.cfi_def_cfa_offset -16
 1935              	.LVL249:
 1936              	.L123:
 1937              		.cfi_restore_state
 1938 002c AE87     		mv	a5,a1
 114:C:/Users/stapi/OneDrive/Desktop/GD32VW553/GD32VW55X_Wifi_BLE_SDK/GD32VW55x_RELEASE_V1.0.2/MSDK/ble/app\app_cmd.c **** 
 1939              		.loc 1 114 5 is_stmt 1
 114:C:/Users/stapi/OneDrive/Desktop/GD32VW553/GD32VW55X_Wifi_BLE_SDK/GD32VW55x_RELEASE_V1.0.2/MSDK/ble/app\app_cmd.c **** 
 1940              		.loc 1 114 23 is_stmt 0
 1941 002e C843     		lw	a0,4(a5)
 1942              	.LVL250:
 1943 0030 4146     		li	a2,16
 1944 0032 6C00     		addi	a1,sp,12
 1945              	.LVL251:
 1946 0034 97000000 		call	strtoul
 1946      E7800000 
 1947              	.LVL252:
 114:C:/Users/stapi/OneDrive/Desktop/GD32VW553/GD32VW55X_Wifi_BLE_SDK/GD32VW55x_RELEASE_V1.0.2/MSDK/ble/app\app_cmd.c **** 
 1948              		.loc 1 114 12
 1949 003c 1374F50F 		andi	s0,a0,0xff
 1950              	.LVL253:
 116:C:/Users/stapi/OneDrive/Desktop/GD32VW553/GD32VW55X_Wifi_BLE_SDK/GD32VW55x_RELEASE_V1.0.2/MSDK/ble/app\app_cmd.c ****         if (ble_work_status_get() != BLE_WORK_STATUS_ENABLE) {
 1951              		.loc 1 116 5 is_stmt 1
 122:C:/Users/stapi/OneDrive/Desktop/GD32VW553/GD32VW55X_Wifi_BLE_SDK/GD32VW55x_RELEASE_V1.0.2/MSDK/ble/app\app_cmd.c **** 
 1952              		.loc 1 122 15 is_stmt 0
 1953 0040 0145     		li	a0,0
 116:C:/Users/stapi/OneDrive/Desktop/GD32VW553/GD32VW55X_Wifi_BLE_SDK/GD32VW55x_RELEASE_V1.0.2/MSDK/ble/app\app_cmd.c ****         if (ble_work_status_get() != BLE_WORK_STATUS_ENABLE) {
 1954              		.loc 1 116 8
 1955 0042 19C8     		beq	s0,zero,.L132
 117:C:/Users/stapi/OneDrive/Desktop/GD32VW553/GD32VW55X_Wifi_BLE_SDK/GD32VW55x_RELEASE_V1.0.2/MSDK/ble/app\app_cmd.c ****             app_ble_enable();
 1956              		.loc 1 117 9 is_stmt 1
 117:C:/Users/stapi/OneDrive/Desktop/GD32VW553/GD32VW55X_Wifi_BLE_SDK/GD32VW55x_RELEASE_V1.0.2/MSDK/ble/app\app_cmd.c ****             app_ble_enable();
 1957              		.loc 1 117 13 is_stmt 0
 1958 0044 97000000 		call	ble_work_status_get
 1958      E7800000 
 1959              	.LVL254:
 117:C:/Users/stapi/OneDrive/Desktop/GD32VW553/GD32VW55X_Wifi_BLE_SDK/GD32VW55x_RELEASE_V1.0.2/MSDK/ble/app\app_cmd.c ****             app_ble_enable();
 1960              		.loc 1 117 12
 1961 004c 09C5     		beq	a0,zero,.L126
 118:C:/Users/stapi/OneDrive/Desktop/GD32VW553/GD32VW55X_Wifi_BLE_SDK/GD32VW55x_RELEASE_V1.0.2/MSDK/ble/app\app_cmd.c ****         }
 1962              		.loc 1 118 13 is_stmt 1
 1963 004e 97000000 		call	app_ble_enable
 1963      E7800000 
 1964              	.LVL255:
 1965              	.L126:
 120:C:/Users/stapi/OneDrive/Desktop/GD32VW553/GD32VW55X_Wifi_BLE_SDK/GD32VW55x_RELEASE_V1.0.2/MSDK/ble/app\app_cmd.c ****     } else {
 1966              		.loc 1 120 9
 120:C:/Users/stapi/OneDrive/Desktop/GD32VW553/GD32VW55X_Wifi_BLE_SDK/GD32VW55x_RELEASE_V1.0.2/MSDK/ble/app\app_cmd.c ****     } else {
 1967              		.loc 1 120 15 is_stmt 0
 1968 0056 2285     		mv	a0,s0
 1969              	.L132:
 122:C:/Users/stapi/OneDrive/Desktop/GD32VW553/GD32VW55X_Wifi_BLE_SDK/GD32VW55x_RELEASE_V1.0.2/MSDK/ble/app\app_cmd.c **** 
 1970              		.loc 1 122 15
 1971 0058 97000000 		call	bcw_prf_enable
 1971      E7800000 
 1972              	.LVL256:
 1973 0060 AA85     		mv	a1,a0
 1974              	.LVL257:
 129:C:/Users/stapi/OneDrive/Desktop/GD32VW553/GD32VW55X_Wifi_BLE_SDK/GD32VW55x_RELEASE_V1.0.2/MSDK/ble/app\app_cmd.c **** }
 1975              		.loc 1 129 5 is_stmt 1
 1976 0062 37050000 		lui	a0,%hi(.LC71)
 1977              	.LVL258:
 1978 0066 13050500 		addi	a0,a0,%lo(.LC71)
 1979 006a 97000000 		call	co_printf
 1979      E7800000 
 1980              	.LVL259:
 1981 0072 45BF     		j	.L122
 1982              		.cfi_endproc
 1983              	.LFE17:
 1985              		.section	.rodata.cmd_ble_ps.str1.4,"aMS",@progbits,1
 1986              		.align	2
 1987              	.LC72:
 1988 0000 626C655F 		.string	"ble_ps config complete. ps mode: %d\r\n"
 1988      70732063 
 1988      6F6E6669 
 1988      6720636F 
 1988      6D706C65 
 1989 0026 0000     		.align	2
 1990              	.LC73:
 1991 0028 43757272 		.string	"Current ps mode: %d\r\n"
 1991      656E7420 
 1991      7073206D 
 1991      6F64653A 
 1991      2025640D 
 1992 003e 0000     		.align	2
 1993              	.LC74:
 1994 0040 55736167 		.string	"Usage: ble_ps <0, 1>\r\n"
 1994      653A2062 
 1994      6C655F70 
 1994      73203C30 
 1994      2C20313E 
 1995 0057 00       		.align	2
 1996              	.LC75:
 1997 0058 20202020 		.string	"    0: ble not deep sleep\r\n"
 1997      303A2062 
 1997      6C65206E 
 1997      6F742064 
 1997      65657020 
 1998              		.align	2
 1999              	.LC76:
 2000 0074 20202020 		.string	"    1: ble deep sleep and support external wake-up\r\n"
 2000      313A2062 
 2000      6C652064 
 2000      65657020 
 2000      736C6565 
 2001              		.section	.text.cmd_ble_ps,"ax",@progbits
 2002              		.align	1
 2004              	cmd_ble_ps:
 2005              	.LFB16:
  78:C:/Users/stapi/OneDrive/Desktop/GD32VW553/GD32VW55X_Wifi_BLE_SDK/GD32VW55x_RELEASE_V1.0.2/MSDK/ble/app\app_cmd.c ****     char *endptr = NULL;
 2006              		.loc 1 78 1
 2007              		.cfi_startproc
 2008              	.LVL260:
 2009 0000 17030000 		call	t0,__riscv_save_0
 2009      E7020300 
 2010              		.cfi_offset 1, -4
 2011              		.cfi_def_cfa_offset 16
  79:C:/Users/stapi/OneDrive/Desktop/GD32VW553/GD32VW55X_Wifi_BLE_SDK/GD32VW55x_RELEASE_V1.0.2/MSDK/ble/app\app_cmd.c ****     uint8_t mode;
 2012              		.loc 1 79 5
  78:C:/Users/stapi/OneDrive/Desktop/GD32VW553/GD32VW55X_Wifi_BLE_SDK/GD32VW55x_RELEASE_V1.0.2/MSDK/ble/app\app_cmd.c ****     char *endptr = NULL;
 2013              		.loc 1 78 1 is_stmt 0
 2014 0008 4111     		addi	sp,sp,-16
 2015              		.cfi_def_cfa_offset 32
  79:C:/Users/stapi/OneDrive/Desktop/GD32VW553/GD32VW55X_Wifi_BLE_SDK/GD32VW55x_RELEASE_V1.0.2/MSDK/ble/app\app_cmd.c ****     uint8_t mode;
 2016              		.loc 1 79 11
 2017 000a 02C6     		sw	zero,12(sp)
  80:C:/Users/stapi/OneDrive/Desktop/GD32VW553/GD32VW55X_Wifi_BLE_SDK/GD32VW55x_RELEASE_V1.0.2/MSDK/ble/app\app_cmd.c **** 
 2018              		.loc 1 80 5 is_stmt 1
  82:C:/Users/stapi/OneDrive/Desktop/GD32VW553/GD32VW55X_Wifi_BLE_SDK/GD32VW55x_RELEASE_V1.0.2/MSDK/ble/app\app_cmd.c ****         goto usage;
 2019              		.loc 1 82 5
  82:C:/Users/stapi/OneDrive/Desktop/GD32VW553/GD32VW55X_Wifi_BLE_SDK/GD32VW55x_RELEASE_V1.0.2/MSDK/ble/app\app_cmd.c ****         goto usage;
 2020              		.loc 1 82 8 is_stmt 0
 2021 000c 0947     		li	a4,2
 2022 000e 6315E504 		bne	a0,a4,.L134
 2023 0012 AE87     		mv	a5,a1
  86:C:/Users/stapi/OneDrive/Desktop/GD32VW553/GD32VW55X_Wifi_BLE_SDK/GD32VW55x_RELEASE_V1.0.2/MSDK/ble/app\app_cmd.c ****     if (mode > 1) {
 2024              		.loc 1 86 5 is_stmt 1
  86:C:/Users/stapi/OneDrive/Desktop/GD32VW553/GD32VW55X_Wifi_BLE_SDK/GD32VW55x_RELEASE_V1.0.2/MSDK/ble/app\app_cmd.c ****     if (mode > 1) {
 2025              		.loc 1 86 21 is_stmt 0
 2026 0014 C843     		lw	a0,4(a5)
 2027              	.LVL261:
 2028 0016 2946     		li	a2,10
 2029 0018 6C00     		addi	a1,sp,12
 2030              	.LVL262:
 2031 001a 97000000 		call	strtoul
 2031      E7800000 
 2032              	.LVL263:
  86:C:/Users/stapi/OneDrive/Desktop/GD32VW553/GD32VW55X_Wifi_BLE_SDK/GD32VW55x_RELEASE_V1.0.2/MSDK/ble/app\app_cmd.c ****     if (mode > 1) {
 2033              		.loc 1 86 10
 2034 0022 1375F50F 		andi	a0,a0,0xff
 2035              	.LVL264:
  87:C:/Users/stapi/OneDrive/Desktop/GD32VW553/GD32VW55X_Wifi_BLE_SDK/GD32VW55x_RELEASE_V1.0.2/MSDK/ble/app\app_cmd.c ****         goto usage;
 2036              		.loc 1 87 5 is_stmt 1
  87:C:/Users/stapi/OneDrive/Desktop/GD32VW553/GD32VW55X_Wifi_BLE_SDK/GD32VW55x_RELEASE_V1.0.2/MSDK/ble/app\app_cmd.c ****         goto usage;
 2037              		.loc 1 87 8 is_stmt 0
 2038 0026 8547     		li	a5,1
 2039 0028 63E8A702 		bgtu	a0,a5,.L134
  91:C:/Users/stapi/OneDrive/Desktop/GD32VW553/GD32VW55X_Wifi_BLE_SDK/GD32VW55x_RELEASE_V1.0.2/MSDK/ble/app\app_cmd.c ****     app_print("ble_ps config complete. ps mode: %d\r\n", ble_sleep_mode_get());
 2040              		.loc 1 91 5 is_stmt 1
 2041 002c 97000000 		call	ble_sleep_mode_set
 2041      E7800000 
 2042              	.LVL265:
  92:C:/Users/stapi/OneDrive/Desktop/GD32VW553/GD32VW55X_Wifi_BLE_SDK/GD32VW55x_RELEASE_V1.0.2/MSDK/ble/app\app_cmd.c **** 
 2043              		.loc 1 92 5
 2044 0034 97000000 		call	ble_sleep_mode_get
 2044      E7800000 
 2045              	.LVL266:
 2046 003c AA85     		mv	a1,a0
 2047 003e 37050000 		lui	a0,%hi(.LC72)
 2048 0042 13050500 		addi	a0,a0,%lo(.LC72)
 2049 0046 97000000 		call	co_printf
 2049      E7800000 
 2050              	.LVL267:
  94:C:/Users/stapi/OneDrive/Desktop/GD32VW553/GD32VW55X_Wifi_BLE_SDK/GD32VW55x_RELEASE_V1.0.2/MSDK/ble/app\app_cmd.c **** 
 2051              		.loc 1 94 5
 2052              	.L133:
 101:C:/Users/stapi/OneDrive/Desktop/GD32VW553/GD32VW55X_Wifi_BLE_SDK/GD32VW55x_RELEASE_V1.0.2/MSDK/ble/app\app_cmd.c **** 
 2053              		.loc 1 101 1 is_stmt 0
 2054 004e 4101     		addi	sp,sp,16
 2055              		.cfi_remember_state
 2056              		.cfi_def_cfa_offset 0
 2057 0050 17030000 		tail	__riscv_restore_0
 2057      67000300 
 2058              		.cfi_restore 1
 2059              		.cfi_def_cfa_offset -16
 2060              	.L134:
 2061              		.cfi_restore_state
 2062              	.LDL13:
  97:C:/Users/stapi/OneDrive/Desktop/GD32VW553/GD32VW55X_Wifi_BLE_SDK/GD32VW55x_RELEASE_V1.0.2/MSDK/ble/app\app_cmd.c ****     app_print("Usage: ble_ps <0, 1>\r\n");
 2063              		.loc 1 97 5 is_stmt 1
 2064 0058 97000000 		call	ble_sleep_mode_get
 2064      E7800000 
 2065              	.LVL268:
 2066 0060 AA85     		mv	a1,a0
 2067 0062 37050000 		lui	a0,%hi(.LC73)
 2068 0066 13050500 		addi	a0,a0,%lo(.LC73)
 2069 006a 97000000 		call	co_printf
 2069      E7800000 
 2070              	.LVL269:
  98:C:/Users/stapi/OneDrive/Desktop/GD32VW553/GD32VW55X_Wifi_BLE_SDK/GD32VW55x_RELEASE_V1.0.2/MSDK/ble/app\app_cmd.c ****     app_print("    0: ble not deep sleep\r\n");
 2071              		.loc 1 98 5
 2072 0072 37050000 		lui	a0,%hi(.LC74)
 2073 0076 13050500 		addi	a0,a0,%lo(.LC74)
 2074 007a 97000000 		call	co_printf
 2074      E7800000 
 2075              	.LVL270:
  99:C:/Users/stapi/OneDrive/Desktop/GD32VW553/GD32VW55X_Wifi_BLE_SDK/GD32VW55x_RELEASE_V1.0.2/MSDK/ble/app\app_cmd.c ****     app_print("    1: ble deep sleep and support external wake-up\r\n");
 2076              		.loc 1 99 5
 2077 0082 37050000 		lui	a0,%hi(.LC75)
 2078 0086 13050500 		addi	a0,a0,%lo(.LC75)
 2079 008a 97000000 		call	co_printf
 2079      E7800000 
 2080              	.LVL271:
 100:C:/Users/stapi/OneDrive/Desktop/GD32VW553/GD32VW55X_Wifi_BLE_SDK/GD32VW55x_RELEASE_V1.0.2/MSDK/ble/app\app_cmd.c **** }
 2081              		.loc 1 100 5
 2082 0092 37050000 		lui	a0,%hi(.LC76)
 2083 0096 13050500 		addi	a0,a0,%lo(.LC76)
 2084 009a 97000000 		call	co_printf
 2084      E7800000 
 2085              	.LVL272:
 2086 00a2 75B7     		j	.L133
 2087              		.cfi_endproc
 2088              	.LFE16:
 2090              		.section	.text.cmd_ble_disable,"ax",@progbits
 2091              		.align	1
 2093              	cmd_ble_disable:
 2094              	.LFB15:
  73:C:/Users/stapi/OneDrive/Desktop/GD32VW553/GD32VW55X_Wifi_BLE_SDK/GD32VW55x_RELEASE_V1.0.2/MSDK/ble/app\app_cmd.c ****     app_ble_disable();
 2095              		.loc 1 73 1
 2096              		.cfi_startproc
 2097              	.LVL273:
  74:C:/Users/stapi/OneDrive/Desktop/GD32VW553/GD32VW55X_Wifi_BLE_SDK/GD32VW55x_RELEASE_V1.0.2/MSDK/ble/app\app_cmd.c **** }
 2098              		.loc 1 74 5
 2099 0000 17030000 		tail	app_ble_disable
 2099      67000300 
 2100              	.LVL274:
 2101              		.cfi_endproc
 2102              	.LFE15:
 2104              		.section	.rodata.cmd_ble_get_handle_cb.str1.4,"aMS",@progbits,1
 2105              		.align	2
 2106              	.LC77:
 2107 0000 626C655F 		.string	"ble_enable"
 2107      656E6162 
 2107      6C6500
 2108 000b 00       		.align	2
 2109              	.LC78:
 2110 000c 626C655F 		.string	"ble_courier_wifi"
 2110      636F7572 
 2110      6965725F 
 2110      77696669 
 2110      00
 2111 001d 000000   		.align	2
 2112              	.LC79:
 2113 0020 626C6520 		.string	"ble is disabled, please 'ble_enable' before\r\n"
 2113      69732064 
 2113      69736162 
 2113      6C65642C 
 2113      20706C65 
 2114              		.section	.text.cmd_ble_get_handle_cb,"ax",@progbits
 2115              		.align	1
 2116              		.globl	cmd_ble_get_handle_cb
 2118              	cmd_ble_get_handle_cb:
 2119              	.LFB49:
1063:C:/Users/stapi/OneDrive/Desktop/GD32VW553/GD32VW55X_Wifi_BLE_SDK/GD32VW55x_RELEASE_V1.0.2/MSDK/ble/app\app_cmd.c **** }
1064:C:/Users/stapi/OneDrive/Desktop/GD32VW553/GD32VW55X_Wifi_BLE_SDK/GD32VW55x_RELEASE_V1.0.2/MSDK/ble/app\app_cmd.c **** 
1065:C:/Users/stapi/OneDrive/Desktop/GD32VW553/GD32VW55X_Wifi_BLE_SDK/GD32VW55x_RELEASE_V1.0.2/MSDK/ble/app\app_cmd.c **** uint8_t cmd_ble_get_handle_cb(void *data, void **cmd)
1066:C:/Users/stapi/OneDrive/Desktop/GD32VW553/GD32VW55X_Wifi_BLE_SDK/GD32VW55x_RELEASE_V1.0.2/MSDK/ble/app\app_cmd.c **** {
 2120              		.loc 1 1066 1
 2121              		.cfi_startproc
 2122              	.LVL275:
 2123 0000 17030000 		call	t0,__riscv_save_4
 2123      E7020300 
 2124              		.cfi_offset 19, -20
 2125              		.cfi_offset 18, -16
 2126              		.cfi_offset 9, -12
 2127              		.cfi_offset 8, -8
 2128              		.cfi_offset 1, -4
 2129              		.cfi_def_cfa_offset 32
1067:C:/Users/stapi/OneDrive/Desktop/GD32VW553/GD32VW55X_Wifi_BLE_SDK/GD32VW55x_RELEASE_V1.0.2/MSDK/ble/app\app_cmd.c ****     struct cmd_entry *w_cmd;
 2130              		.loc 1 1067 5
1068:C:/Users/stapi/OneDrive/Desktop/GD32VW553/GD32VW55X_Wifi_BLE_SDK/GD32VW55x_RELEASE_V1.0.2/MSDK/ble/app\app_cmd.c ****     uint8_t ret = CLI_UNKWN_CMD;
 2131              		.loc 1 1068 5
 2132              	.LVL276:
1069:C:/Users/stapi/OneDrive/Desktop/GD32VW553/GD32VW55X_Wifi_BLE_SDK/GD32VW55x_RELEASE_V1.0.2/MSDK/ble/app\app_cmd.c **** 
1070:C:/Users/stapi/OneDrive/Desktop/GD32VW553/GD32VW55X_Wifi_BLE_SDK/GD32VW55x_RELEASE_V1.0.2/MSDK/ble/app\app_cmd.c ****     if (ble_work_status_get() != BLE_WORK_STATUS_ENABLE &&
 2133              		.loc 1 1070 5
1066:C:/Users/stapi/OneDrive/Desktop/GD32VW553/GD32VW55X_Wifi_BLE_SDK/GD32VW55x_RELEASE_V1.0.2/MSDK/ble/app\app_cmd.c ****     struct cmd_entry *w_cmd;
 2134              		.loc 1 1066 1 is_stmt 0
 2135 0008 AA84     		mv	s1,a0
 2136 000a 2E89     		mv	s2,a1
 2137              		.loc 1 1070 9
 2138 000c 97000000 		call	ble_work_status_get
 2138      E7800000 
 2139              	.LVL277:
 2140              		.loc 1 1070 8
 2141 0014 25C9     		beq	a0,zero,.L146
1071:C:/Users/stapi/OneDrive/Desktop/GD32VW553/GD32VW55X_Wifi_BLE_SDK/GD32VW55x_RELEASE_V1.0.2/MSDK/ble/app\app_cmd.c ****         strcmp((char *)data, "ble_enable") && strcmp((char *)data, "ble_courier_wifi")) {
 2142              		.loc 1 1071 9 discriminator 1
 2143 0016 B7050000 		lui	a1,%hi(.LC77)
 2144 001a 93850500 		addi	a1,a1,%lo(.LC77)
 2145 001e 2685     		mv	a0,s1
 2146 0020 97000000 		call	strcmp
 2146      E7800000 
 2147              	.LVL278:
1070:C:/Users/stapi/OneDrive/Desktop/GD32VW553/GD32VW55X_Wifi_BLE_SDK/GD32VW55x_RELEASE_V1.0.2/MSDK/ble/app\app_cmd.c ****         strcmp((char *)data, "ble_enable") && strcmp((char *)data, "ble_courier_wifi")) {
 2148              		.loc 1 1070 57 discriminator 1
 2149 0028 31CD     		beq	a0,zero,.L146
 2150              		.loc 1 1071 47
 2151 002a B7050000 		lui	a1,%hi(.LC78)
 2152 002e 93850500 		addi	a1,a1,%lo(.LC78)
 2153 0032 2685     		mv	a0,s1
 2154 0034 97000000 		call	strcmp
 2154      E7800000 
 2155              	.LVL279:
 2156              		.loc 1 1071 44
 2157 003c 21C5     		beq	a0,zero,.L146
1072:C:/Users/stapi/OneDrive/Desktop/GD32VW553/GD32VW55X_Wifi_BLE_SDK/GD32VW55x_RELEASE_V1.0.2/MSDK/ble/app\app_cmd.c ****         app_print("ble is disabled, please \'ble_enable\' before\r\n");
 2158              		.loc 1 1072 9 is_stmt 1
 2159 003e 37050000 		lui	a0,%hi(.LC79)
 2160 0042 13050500 		addi	a0,a0,%lo(.LC79)
 2161 0046 97000000 		call	co_printf
 2161      E7800000 
 2162              	.LVL280:
1073:C:/Users/stapi/OneDrive/Desktop/GD32VW553/GD32VW55X_Wifi_BLE_SDK/GD32VW55x_RELEASE_V1.0.2/MSDK/ble/app\app_cmd.c ****         return CLI_ERROR;
 2163              		.loc 1 1073 9
 2164              		.loc 1 1073 16 is_stmt 0
 2165 004e 0545     		li	a0,1
 2166              	.LVL281:
 2167              	.L141:
1074:C:/Users/stapi/OneDrive/Desktop/GD32VW553/GD32VW55X_Wifi_BLE_SDK/GD32VW55x_RELEASE_V1.0.2/MSDK/ble/app\app_cmd.c ****     }
1075:C:/Users/stapi/OneDrive/Desktop/GD32VW553/GD32VW55X_Wifi_BLE_SDK/GD32VW55x_RELEASE_V1.0.2/MSDK/ble/app\app_cmd.c **** 
1076:C:/Users/stapi/OneDrive/Desktop/GD32VW553/GD32VW55X_Wifi_BLE_SDK/GD32VW55x_RELEASE_V1.0.2/MSDK/ble/app\app_cmd.c ****     w_cmd = (struct cmd_entry *)&ble_cmd_table[0];
1077:C:/Users/stapi/OneDrive/Desktop/GD32VW553/GD32VW55X_Wifi_BLE_SDK/GD32VW55x_RELEASE_V1.0.2/MSDK/ble/app\app_cmd.c **** 
1078:C:/Users/stapi/OneDrive/Desktop/GD32VW553/GD32VW55X_Wifi_BLE_SDK/GD32VW55x_RELEASE_V1.0.2/MSDK/ble/app\app_cmd.c ****     while (w_cmd->function) {
1079:C:/Users/stapi/OneDrive/Desktop/GD32VW553/GD32VW55X_Wifi_BLE_SDK/GD32VW55x_RELEASE_V1.0.2/MSDK/ble/app\app_cmd.c ****         if (!strcmp((char *)data, w_cmd->command)) {
1080:C:/Users/stapi/OneDrive/Desktop/GD32VW553/GD32VW55X_Wifi_BLE_SDK/GD32VW55x_RELEASE_V1.0.2/MSDK/ble/app\app_cmd.c ****             *cmd = w_cmd->function;
1081:C:/Users/stapi/OneDrive/Desktop/GD32VW553/GD32VW55X_Wifi_BLE_SDK/GD32VW55x_RELEASE_V1.0.2/MSDK/ble/app\app_cmd.c ****             ret = CLI_SUCCESS;
1082:C:/Users/stapi/OneDrive/Desktop/GD32VW553/GD32VW55X_Wifi_BLE_SDK/GD32VW55x_RELEASE_V1.0.2/MSDK/ble/app\app_cmd.c ****             break;
1083:C:/Users/stapi/OneDrive/Desktop/GD32VW553/GD32VW55X_Wifi_BLE_SDK/GD32VW55x_RELEASE_V1.0.2/MSDK/ble/app\app_cmd.c ****         }
1084:C:/Users/stapi/OneDrive/Desktop/GD32VW553/GD32VW55X_Wifi_BLE_SDK/GD32VW55x_RELEASE_V1.0.2/MSDK/ble/app\app_cmd.c **** 
1085:C:/Users/stapi/OneDrive/Desktop/GD32VW553/GD32VW55X_Wifi_BLE_SDK/GD32VW55x_RELEASE_V1.0.2/MSDK/ble/app\app_cmd.c ****         w_cmd++;
1086:C:/Users/stapi/OneDrive/Desktop/GD32VW553/GD32VW55X_Wifi_BLE_SDK/GD32VW55x_RELEASE_V1.0.2/MSDK/ble/app\app_cmd.c ****     }
1087:C:/Users/stapi/OneDrive/Desktop/GD32VW553/GD32VW55X_Wifi_BLE_SDK/GD32VW55x_RELEASE_V1.0.2/MSDK/ble/app\app_cmd.c **** 
1088:C:/Users/stapi/OneDrive/Desktop/GD32VW553/GD32VW55X_Wifi_BLE_SDK/GD32VW55x_RELEASE_V1.0.2/MSDK/ble/app\app_cmd.c **** #ifdef CONFIG_INTERNAL_DEBUG
1089:C:/Users/stapi/OneDrive/Desktop/GD32VW553/GD32VW55X_Wifi_BLE_SDK/GD32VW55x_RELEASE_V1.0.2/MSDK/ble/app\app_cmd.c ****     if (ret != CLI_SUCCESS) {
1090:C:/Users/stapi/OneDrive/Desktop/GD32VW553/GD32VW55X_Wifi_BLE_SDK/GD32VW55x_RELEASE_V1.0.2/MSDK/ble/app\app_cmd.c ****         ret = ble_int_get_handle_cb(data, cmd, &w_cmd);
1091:C:/Users/stapi/OneDrive/Desktop/GD32VW553/GD32VW55X_Wifi_BLE_SDK/GD32VW55x_RELEASE_V1.0.2/MSDK/ble/app\app_cmd.c ****     }
1092:C:/Users/stapi/OneDrive/Desktop/GD32VW553/GD32VW55X_Wifi_BLE_SDK/GD32VW55x_RELEASE_V1.0.2/MSDK/ble/app\app_cmd.c **** #endif
1093:C:/Users/stapi/OneDrive/Desktop/GD32VW553/GD32VW55X_Wifi_BLE_SDK/GD32VW55x_RELEASE_V1.0.2/MSDK/ble/app\app_cmd.c **** 
1094:C:/Users/stapi/OneDrive/Desktop/GD32VW553/GD32VW55X_Wifi_BLE_SDK/GD32VW55x_RELEASE_V1.0.2/MSDK/ble/app\app_cmd.c **** #if (defined(CONFIG_INTERNAL_DEBUG) || defined(CONFIG_RF_TEST_SUPPORT) ||defined(CONFIG_BLE_DTM_SUP
1095:C:/Users/stapi/OneDrive/Desktop/GD32VW553/GD32VW55X_Wifi_BLE_SDK/GD32VW55x_RELEASE_V1.0.2/MSDK/ble/app\app_cmd.c ****     if (ret != CLI_SUCCESS) {
1096:C:/Users/stapi/OneDrive/Desktop/GD32VW553/GD32VW55X_Wifi_BLE_SDK/GD32VW55x_RELEASE_V1.0.2/MSDK/ble/app\app_cmd.c ****         ret = ble_rftest_get_handle_cb(data, cmd, &w_cmd);
1097:C:/Users/stapi/OneDrive/Desktop/GD32VW553/GD32VW55X_Wifi_BLE_SDK/GD32VW55x_RELEASE_V1.0.2/MSDK/ble/app\app_cmd.c ****     }
1098:C:/Users/stapi/OneDrive/Desktop/GD32VW553/GD32VW55X_Wifi_BLE_SDK/GD32VW55x_RELEASE_V1.0.2/MSDK/ble/app\app_cmd.c **** #endif
1099:C:/Users/stapi/OneDrive/Desktop/GD32VW553/GD32VW55X_Wifi_BLE_SDK/GD32VW55x_RELEASE_V1.0.2/MSDK/ble/app\app_cmd.c **** 
1100:C:/Users/stapi/OneDrive/Desktop/GD32VW553/GD32VW55X_Wifi_BLE_SDK/GD32VW55x_RELEASE_V1.0.2/MSDK/ble/app\app_cmd.c ****     if (ret == CLI_SUCCESS) {
1101:C:/Users/stapi/OneDrive/Desktop/GD32VW553/GD32VW55X_Wifi_BLE_SDK/GD32VW55x_RELEASE_V1.0.2/MSDK/ble/app\app_cmd.c ****         ble_stack_task_resume(false);
1102:C:/Users/stapi/OneDrive/Desktop/GD32VW553/GD32VW55X_Wifi_BLE_SDK/GD32VW55x_RELEASE_V1.0.2/MSDK/ble/app\app_cmd.c ****     }
1103:C:/Users/stapi/OneDrive/Desktop/GD32VW553/GD32VW55X_Wifi_BLE_SDK/GD32VW55x_RELEASE_V1.0.2/MSDK/ble/app\app_cmd.c **** 
1104:C:/Users/stapi/OneDrive/Desktop/GD32VW553/GD32VW55X_Wifi_BLE_SDK/GD32VW55x_RELEASE_V1.0.2/MSDK/ble/app\app_cmd.c ****     return ret;
1105:C:/Users/stapi/OneDrive/Desktop/GD32VW553/GD32VW55X_Wifi_BLE_SDK/GD32VW55x_RELEASE_V1.0.2/MSDK/ble/app\app_cmd.c **** }
 2168              		.loc 1 1105 1
 2169 0050 17030000 		tail	__riscv_restore_4
 2169      67000300 
 2170              		.cfi_remember_state
 2171              		.cfi_restore 19
 2172              		.cfi_restore 18
 2173              		.cfi_restore 9
 2174              		.cfi_restore 8
 2175              		.cfi_restore 1
 2176              		.cfi_def_cfa_offset 0
 2177              	.LVL282:
 2178              	.L143:
 2179              		.cfi_restore_state
1079:C:/Users/stapi/OneDrive/Desktop/GD32VW553/GD32VW55X_Wifi_BLE_SDK/GD32VW55x_RELEASE_V1.0.2/MSDK/ble/app\app_cmd.c ****             *cmd = w_cmd->function;
 2180              		.loc 1 1079 9 is_stmt 1
1079:C:/Users/stapi/OneDrive/Desktop/GD32VW553/GD32VW55X_Wifi_BLE_SDK/GD32VW55x_RELEASE_V1.0.2/MSDK/ble/app\app_cmd.c ****             *cmd = w_cmd->function;
 2181              		.loc 1 1079 14 is_stmt 0
 2182 0058 0C40     		lw	a1,0(s0)
 2183 005a 2685     		mv	a0,s1
 2184 005c 97000000 		call	strcmp
 2184      E7800000 
 2185              	.LVL283:
1079:C:/Users/stapi/OneDrive/Desktop/GD32VW553/GD32VW55X_Wifi_BLE_SDK/GD32VW55x_RELEASE_V1.0.2/MSDK/ble/app\app_cmd.c ****             *cmd = w_cmd->function;
 2186              		.loc 1 1079 12
 2187 0064 09E9     		bne	a0,zero,.L142
1080:C:/Users/stapi/OneDrive/Desktop/GD32VW553/GD32VW55X_Wifi_BLE_SDK/GD32VW55x_RELEASE_V1.0.2/MSDK/ble/app\app_cmd.c ****             ret = CLI_SUCCESS;
 2188              		.loc 1 1080 13 is_stmt 1
1080:C:/Users/stapi/OneDrive/Desktop/GD32VW553/GD32VW55X_Wifi_BLE_SDK/GD32VW55x_RELEASE_V1.0.2/MSDK/ble/app\app_cmd.c ****             ret = CLI_SUCCESS;
 2189              		.loc 1 1080 18 is_stmt 0
 2190 0066 23203901 		sw	s3,0(s2)
1081:C:/Users/stapi/OneDrive/Desktop/GD32VW553/GD32VW55X_Wifi_BLE_SDK/GD32VW55x_RELEASE_V1.0.2/MSDK/ble/app\app_cmd.c ****             break;
 2191              		.loc 1 1081 13 is_stmt 1
 2192              	.LVL284:
1082:C:/Users/stapi/OneDrive/Desktop/GD32VW553/GD32VW55X_Wifi_BLE_SDK/GD32VW55x_RELEASE_V1.0.2/MSDK/ble/app\app_cmd.c ****         }
 2193              		.loc 1 1082 13
1100:C:/Users/stapi/OneDrive/Desktop/GD32VW553/GD32VW55X_Wifi_BLE_SDK/GD32VW55x_RELEASE_V1.0.2/MSDK/ble/app\app_cmd.c ****         ble_stack_task_resume(false);
 2194              		.loc 1 1100 5
1101:C:/Users/stapi/OneDrive/Desktop/GD32VW553/GD32VW55X_Wifi_BLE_SDK/GD32VW55x_RELEASE_V1.0.2/MSDK/ble/app\app_cmd.c ****     }
 2195              		.loc 1 1101 9
 2196 006a 97000000 		call	ble_stack_task_resume
 2196      E7800000 
 2197              	.LVL285:
 2198 0072 0145     		li	a0,0
 2199 0074 F1BF     		j	.L141
 2200              	.LVL286:
 2201              	.L142:
1085:C:/Users/stapi/OneDrive/Desktop/GD32VW553/GD32VW55X_Wifi_BLE_SDK/GD32VW55x_RELEASE_V1.0.2/MSDK/ble/app\app_cmd.c ****     }
 2202              		.loc 1 1085 9
1085:C:/Users/stapi/OneDrive/Desktop/GD32VW553/GD32VW55X_Wifi_BLE_SDK/GD32VW55x_RELEASE_V1.0.2/MSDK/ble/app\app_cmd.c ****     }
 2203              		.loc 1 1085 14 is_stmt 0
 2204 0076 2104     		addi	s0,s0,8
 2205              	.LVL287:
 2206              	.L147:
1078:C:/Users/stapi/OneDrive/Desktop/GD32VW553/GD32VW55X_Wifi_BLE_SDK/GD32VW55x_RELEASE_V1.0.2/MSDK/ble/app\app_cmd.c ****         if (!strcmp((char *)data, w_cmd->command)) {
 2207              		.loc 1 1078 11 is_stmt 1
1078:C:/Users/stapi/OneDrive/Desktop/GD32VW553/GD32VW55X_Wifi_BLE_SDK/GD32VW55x_RELEASE_V1.0.2/MSDK/ble/app\app_cmd.c ****         if (!strcmp((char *)data, w_cmd->command)) {
 2208              		.loc 1 1078 17 is_stmt 0
 2209 0078 83294400 		lw	s3,4(s0)
1078:C:/Users/stapi/OneDrive/Desktop/GD32VW553/GD32VW55X_Wifi_BLE_SDK/GD32VW55x_RELEASE_V1.0.2/MSDK/ble/app\app_cmd.c ****         if (!strcmp((char *)data, w_cmd->command)) {
 2210              		.loc 1 1078 11
 2211 007c E39E09FC 		bne	s3,zero,.L143
1068:C:/Users/stapi/OneDrive/Desktop/GD32VW553/GD32VW55X_Wifi_BLE_SDK/GD32VW55x_RELEASE_V1.0.2/MSDK/ble/app\app_cmd.c **** 
 2212              		.loc 1 1068 13
 2213 0080 0945     		li	a0,2
 2214 0082 F9B7     		j	.L141
 2215              	.LVL288:
 2216              	.L146:
 2217 0084 37040000 		lui	s0,%hi(.LANCHOR0)
 2218 0088 13040400 		addi	s0,s0,%lo(.LANCHOR0)
 2219 008c F5B7     		j	.L147
 2220              		.cfi_endproc
 2221              	.LFE49:
 2223              		.section	.rodata.cmd_get_phy.str1.4,"aMS",@progbits,1
 2224              		.align	2
 2225              	.LC80:
 2226 0000 55736167 		.string	"Usage: ble_get_phy <conn idx>\r\n"
 2226      653A2062 
 2226      6C655F67 
 2226      65745F70 
 2226      6879203C 
 2227              		.align	2
 2228              	.LC81:
 2229 0020 67657420 		.string	"get phy fail status 0x%x\r\n"
 2229      70687920 
 2229      6661696C 
 2229      20737461 
 2229      74757320 
 2230              		.section	.text.cmd_get_phy,"ax",@progbits
 2231              		.align	1
 2233              	cmd_get_phy:
 2234              	.LFB44:
 774:C:/Users/stapi/OneDrive/Desktop/GD32VW553/GD32VW55X_Wifi_BLE_SDK/GD32VW55x_RELEASE_V1.0.2/MSDK/ble/app\app_cmd.c ****     char *endptr = NULL;
 2235              		.loc 1 774 1 is_stmt 1
 2236              		.cfi_startproc
 2237              	.LVL289:
 2238 0000 17030000 		call	t0,__riscv_save_0
 2238      E7020300 
 2239              		.cfi_offset 1, -4
 2240              		.cfi_def_cfa_offset 16
 775:C:/Users/stapi/OneDrive/Desktop/GD32VW553/GD32VW55X_Wifi_BLE_SDK/GD32VW55x_RELEASE_V1.0.2/MSDK/ble/app\app_cmd.c ****     uint8_t conidx;
 2241              		.loc 1 775 5
 774:C:/Users/stapi/OneDrive/Desktop/GD32VW553/GD32VW55X_Wifi_BLE_SDK/GD32VW55x_RELEASE_V1.0.2/MSDK/ble/app\app_cmd.c ****     char *endptr = NULL;
 2242              		.loc 1 774 1 is_stmt 0
 2243 0008 4111     		addi	sp,sp,-16
 2244              		.cfi_def_cfa_offset 32
 775:C:/Users/stapi/OneDrive/Desktop/GD32VW553/GD32VW55X_Wifi_BLE_SDK/GD32VW55x_RELEASE_V1.0.2/MSDK/ble/app\app_cmd.c ****     uint8_t conidx;
 2245              		.loc 1 775 11
 2246 000a 02C6     		sw	zero,12(sp)
 776:C:/Users/stapi/OneDrive/Desktop/GD32VW553/GD32VW55X_Wifi_BLE_SDK/GD32VW55x_RELEASE_V1.0.2/MSDK/ble/app\app_cmd.c ****     ble_status_t ret;
 2247              		.loc 1 776 5 is_stmt 1
 777:C:/Users/stapi/OneDrive/Desktop/GD32VW553/GD32VW55X_Wifi_BLE_SDK/GD32VW55x_RELEASE_V1.0.2/MSDK/ble/app\app_cmd.c **** 
 2248              		.loc 1 777 5
 779:C:/Users/stapi/OneDrive/Desktop/GD32VW553/GD32VW55X_Wifi_BLE_SDK/GD32VW55x_RELEASE_V1.0.2/MSDK/ble/app\app_cmd.c ****         goto usage;
 2249              		.loc 1 779 5
 779:C:/Users/stapi/OneDrive/Desktop/GD32VW553/GD32VW55X_Wifi_BLE_SDK/GD32VW55x_RELEASE_V1.0.2/MSDK/ble/app\app_cmd.c ****         goto usage;
 2250              		.loc 1 779 8 is_stmt 0
 2251 000c 0947     		li	a4,2
 2252 000e 6307E502 		beq	a0,a4,.L150
 2253              	.LVL290:
 2254              	.LBB4:
 2255              	.LBB5:
 780:C:/Users/stapi/OneDrive/Desktop/GD32VW553/GD32VW55X_Wifi_BLE_SDK/GD32VW55x_RELEASE_V1.0.2/MSDK/ble/app\app_cmd.c ****     }
 2256              		.loc 1 780 9 is_stmt 1
 2257              	.LDL14:
 793:C:/Users/stapi/OneDrive/Desktop/GD32VW553/GD32VW55X_Wifi_BLE_SDK/GD32VW55x_RELEASE_V1.0.2/MSDK/ble/app\app_cmd.c ****     app_print("<conn idx>: index of connection\r\n");
 2258              		.loc 1 793 5
 2259 0012 37050000 		lui	a0,%hi(.LC80)
 2260              	.LVL291:
 2261 0016 13050500 		addi	a0,a0,%lo(.LC80)
 2262 001a 97000000 		call	co_printf
 2262      E7800000 
 2263              	.LVL292:
 794:C:/Users/stapi/OneDrive/Desktop/GD32VW553/GD32VW55X_Wifi_BLE_SDK/GD32VW55x_RELEASE_V1.0.2/MSDK/ble/app\app_cmd.c **** }
 2264              		.loc 1 794 5
 2265 0022 37050000 		lui	a0,%hi(.LC2)
 2266 0026 13050500 		addi	a0,a0,%lo(.LC2)
 2267 002a 97000000 		call	co_printf
 2267      E7800000 
 2268              	.LVL293:
 2269              	.L149:
 2270              	.LBE5:
 2271              	.LBE4:
 795:C:/Users/stapi/OneDrive/Desktop/GD32VW553/GD32VW55X_Wifi_BLE_SDK/GD32VW55x_RELEASE_V1.0.2/MSDK/ble/app\app_cmd.c **** #endif // (BLE_APP_PHY_UPDATE_SUPPORT)
 2272              		.loc 1 795 1 is_stmt 0
 2273 0032 4101     		addi	sp,sp,16
 2274              		.cfi_remember_state
 2275              		.cfi_def_cfa_offset 0
 2276 0034 17030000 		tail	__riscv_restore_0
 2276      67000300 
 2277              		.cfi_restore 1
 2278              		.cfi_def_cfa_offset -16
 2279              	.LVL294:
 2280              	.L150:
 2281              		.cfi_restore_state
 2282 003c AE87     		mv	a5,a1
 783:C:/Users/stapi/OneDrive/Desktop/GD32VW553/GD32VW55X_Wifi_BLE_SDK/GD32VW55x_RELEASE_V1.0.2/MSDK/ble/app\app_cmd.c **** 
 2283              		.loc 1 783 5 is_stmt 1
 783:C:/Users/stapi/OneDrive/Desktop/GD32VW553/GD32VW55X_Wifi_BLE_SDK/GD32VW55x_RELEASE_V1.0.2/MSDK/ble/app\app_cmd.c **** 
 2284              		.loc 1 783 23 is_stmt 0
 2285 003e C843     		lw	a0,4(a5)
 2286              	.LVL295:
 2287 0040 6C00     		addi	a1,sp,12
 2288              	.LVL296:
 2289 0042 0146     		li	a2,0
 2290 0044 97000000 		call	strtoul
 2290      E7800000 
 2291              	.LVL297:
 785:C:/Users/stapi/OneDrive/Desktop/GD32VW553/GD32VW55X_Wifi_BLE_SDK/GD32VW55x_RELEASE_V1.0.2/MSDK/ble/app\app_cmd.c ****     if (ret != BLE_ERR_NO_ERROR) {
 2292              		.loc 1 785 5 is_stmt 1
 785:C:/Users/stapi/OneDrive/Desktop/GD32VW553/GD32VW55X_Wifi_BLE_SDK/GD32VW55x_RELEASE_V1.0.2/MSDK/ble/app\app_cmd.c ****     if (ret != BLE_ERR_NO_ERROR) {
 2293              		.loc 1 785 11 is_stmt 0
 2294 004c 1375F50F 		andi	a0,a0,0xff
 2295 0050 97000000 		call	ble_conn_phy_get
 2295      E7800000 
 2296              	.LVL298:
 2297 0058 AA85     		mv	a1,a0
 2298              	.LVL299:
 786:C:/Users/stapi/OneDrive/Desktop/GD32VW553/GD32VW55X_Wifi_BLE_SDK/GD32VW55x_RELEASE_V1.0.2/MSDK/ble/app\app_cmd.c ****         app_print("get phy fail status 0x%x\r\n", ret);
 2299              		.loc 1 786 5 is_stmt 1
 786:C:/Users/stapi/OneDrive/Desktop/GD32VW553/GD32VW55X_Wifi_BLE_SDK/GD32VW55x_RELEASE_V1.0.2/MSDK/ble/app\app_cmd.c ****         app_print("get phy fail status 0x%x\r\n", ret);
 2300              		.loc 1 786 8 is_stmt 0
 2301 005a 61DD     		beq	a0,zero,.L149
 787:C:/Users/stapi/OneDrive/Desktop/GD32VW553/GD32VW55X_Wifi_BLE_SDK/GD32VW55x_RELEASE_V1.0.2/MSDK/ble/app\app_cmd.c ****     }
 2302              		.loc 1 787 9 is_stmt 1
 2303 005c 37050000 		lui	a0,%hi(.LC81)
 2304              	.LVL300:
 2305 0060 13050500 		addi	a0,a0,%lo(.LC81)
 2306 0064 97000000 		call	co_printf
 2306      E7800000 
 2307              	.LVL301:
 790:C:/Users/stapi/OneDrive/Desktop/GD32VW553/GD32VW55X_Wifi_BLE_SDK/GD32VW55x_RELEASE_V1.0.2/MSDK/ble/app\app_cmd.c **** 
 2308              		.loc 1 790 5
 2309 006c D9B7     		j	.L149
 2310              		.cfi_endproc
 2311              	.LFE44:
 2313              		.section	.rodata.cmd_set_dev_name.str1.4,"aMS",@progbits,1
 2314              		.align	2
 2315              	.LC82:
 2316 0000 55736167 		.string	"Usage: ble_set_dev_name <device name>\r\n"
 2316      653A2062 
 2316      6C655F73 
 2316      65745F64 
 2316      65765F6E 
 2317              		.align	2
 2318              	.LC83:
 2319 0028 3C646576 		.string	"<device name>: ble device name\r\n"
 2319      69636520 
 2319      6E616D65 
 2319      3E3A2062 
 2319      6C652064 
 2320 0049 000000   		.align	2
 2321              	.LC84:
 2322 004c 73657420 		.string	"set device name fail\r\n"
 2322      64657669 
 2322      6365206E 
 2322      616D6520 
 2322      6661696C 
 2323 0063 00       		.align	2
 2324              	.LC85:
 2325 0064 73657420 		.string	"set device name to %s\r\n"
 2325      64657669 
 2325      6365206E 
 2325      616D6520 
 2325      746F2025 
 2326              		.section	.text.cmd_set_dev_name,"ax",@progbits
 2327              		.align	1
 2329              	cmd_set_dev_name:
 2330              	.LFB42:
 712:C:/Users/stapi/OneDrive/Desktop/GD32VW553/GD32VW55X_Wifi_BLE_SDK/GD32VW55x_RELEASE_V1.0.2/MSDK/ble/app\app_cmd.c ****     //uint8_t i;
 2331              		.loc 1 712 1
 2332              		.cfi_startproc
 2333              	.LVL302:
 2334 0000 17030000 		call	t0,__riscv_save_2
 2334      E7020300 
 2335              		.cfi_offset 9, -12
 2336              		.cfi_offset 8, -8
 2337              		.cfi_offset 1, -4
 2338              		.cfi_def_cfa_offset 16
 714:C:/Users/stapi/OneDrive/Desktop/GD32VW553/GD32VW55X_Wifi_BLE_SDK/GD32VW55x_RELEASE_V1.0.2/MSDK/ble/app\app_cmd.c ****         goto usage;
 2339              		.loc 1 714 5
 714:C:/Users/stapi/OneDrive/Desktop/GD32VW553/GD32VW55X_Wifi_BLE_SDK/GD32VW55x_RELEASE_V1.0.2/MSDK/ble/app\app_cmd.c ****         goto usage;
 2340              		.loc 1 714 8 is_stmt 0
 2341 0008 8947     		li	a5,2
 2342 000a 6306F502 		beq	a0,a5,.L158
 715:C:/Users/stapi/OneDrive/Desktop/GD32VW553/GD32VW55X_Wifi_BLE_SDK/GD32VW55x_RELEASE_V1.0.2/MSDK/ble/app\app_cmd.c ****     }
 2343              		.loc 1 715 9 is_stmt 1
 2344              	.LDL15:
 729:C:/Users/stapi/OneDrive/Desktop/GD32VW553/GD32VW55X_Wifi_BLE_SDK/GD32VW55x_RELEASE_V1.0.2/MSDK/ble/app\app_cmd.c ****     app_print("<device name>: ble device name\r\n");
 2345              		.loc 1 729 5
 2346 000e 37050000 		lui	a0,%hi(.LC82)
 2347              	.LVL303:
 2348 0012 13050500 		addi	a0,a0,%lo(.LC82)
 2349 0016 97000000 		call	co_printf
 2349      E7800000 
 2350              	.LVL304:
 730:C:/Users/stapi/OneDrive/Desktop/GD32VW553/GD32VW55X_Wifi_BLE_SDK/GD32VW55x_RELEASE_V1.0.2/MSDK/ble/app\app_cmd.c **** 
 2351              		.loc 1 730 5
 2352 001e 37050000 		lui	a0,%hi(.LC83)
 2353 0022 13050500 		addi	a0,a0,%lo(.LC83)
 2354              	.L162:
 719:C:/Users/stapi/OneDrive/Desktop/GD32VW553/GD32VW55X_Wifi_BLE_SDK/GD32VW55x_RELEASE_V1.0.2/MSDK/ble/app\app_cmd.c ****         return;
 2355              		.loc 1 719 9 is_stmt 0
 2356 0026 97000000 		call	co_printf
 2356      E7800000 
 2357              	.LVL305:
 720:C:/Users/stapi/OneDrive/Desktop/GD32VW553/GD32VW55X_Wifi_BLE_SDK/GD32VW55x_RELEASE_V1.0.2/MSDK/ble/app\app_cmd.c ****     }
 2358              		.loc 1 720 9 is_stmt 1
 2359              	.L157:
 732:C:/Users/stapi/OneDrive/Desktop/GD32VW553/GD32VW55X_Wifi_BLE_SDK/GD32VW55x_RELEASE_V1.0.2/MSDK/ble/app\app_cmd.c **** 
 2360              		.loc 1 732 1 is_stmt 0
 2361 002e 17030000 		tail	__riscv_restore_2
 2361      67000300 
 2362              		.cfi_remember_state
 2363              		.cfi_restore 9
 2364              		.cfi_restore 8
 2365              		.cfi_restore 1
 2366              		.cfi_def_cfa_offset 0
 2367              	.LVL306:
 2368              	.L158:
 2369              		.cfi_restore_state
 718:C:/Users/stapi/OneDrive/Desktop/GD32VW553/GD32VW55X_Wifi_BLE_SDK/GD32VW55x_RELEASE_V1.0.2/MSDK/ble/app\app_cmd.c ****         app_print("set device name fail\r\n");
 2370              		.loc 1 718 10
 2371 0036 C441     		lw	s1,4(a1)
 2372 0038 2E84     		mv	s0,a1
 718:C:/Users/stapi/OneDrive/Desktop/GD32VW553/GD32VW55X_Wifi_BLE_SDK/GD32VW55x_RELEASE_V1.0.2/MSDK/ble/app\app_cmd.c ****         app_print("set device name fail\r\n");
 2373              		.loc 1 718 5 is_stmt 1
 718:C:/Users/stapi/OneDrive/Desktop/GD32VW553/GD32VW55X_Wifi_BLE_SDK/GD32VW55x_RELEASE_V1.0.2/MSDK/ble/app\app_cmd.c ****         app_print("set device name fail\r\n");
 2374              		.loc 1 718 36 is_stmt 0
 2375 003a 2685     		mv	a0,s1
 2376              	.LVL307:
 2377 003c 97000000 		call	strlen
 2377      E7800000 
 2378              	.LVL308:
 718:C:/Users/stapi/OneDrive/Desktop/GD32VW553/GD32VW55X_Wifi_BLE_SDK/GD32VW55x_RELEASE_V1.0.2/MSDK/ble/app\app_cmd.c ****         app_print("set device name fail\r\n");
 2379              		.loc 1 718 10
 2380 0044 B3450508 		zext.h	a1,a0
 2381 0048 2685     		mv	a0,s1
 2382 004a 97000000 		call	app_adp_set_name
 2382      E7800000 
 2383              	.LVL309:
 718:C:/Users/stapi/OneDrive/Desktop/GD32VW553/GD32VW55X_Wifi_BLE_SDK/GD32VW55x_RELEASE_V1.0.2/MSDK/ble/app\app_cmd.c ****         app_print("set device name fail\r\n");
 2384              		.loc 1 718 8
 2385 0052 11E5     		bne	a0,zero,.L160
 719:C:/Users/stapi/OneDrive/Desktop/GD32VW553/GD32VW55X_Wifi_BLE_SDK/GD32VW55x_RELEASE_V1.0.2/MSDK/ble/app\app_cmd.c ****         return;
 2386              		.loc 1 719 9 is_stmt 1
 2387 0054 37050000 		lui	a0,%hi(.LC84)
 2388 0058 13050500 		addi	a0,a0,%lo(.LC84)
 2389 005c E9B7     		j	.L162
 2390              	.L160:
 2391              	.LVL310:
 2392              	.LBB8:
 2393              	.LBB9:
 723:C:/Users/stapi/OneDrive/Desktop/GD32VW553/GD32VW55X_Wifi_BLE_SDK/GD32VW55x_RELEASE_V1.0.2/MSDK/ble/app\app_cmd.c ****     app_print("set device name to %s\r\n", argv[1]);
 2394              		.loc 1 723 5
 2395 005e 97000000 		call	app_adv_data_update_all
 2395      E7800000 
 2396              	.LVL311:
 724:C:/Users/stapi/OneDrive/Desktop/GD32VW553/GD32VW55X_Wifi_BLE_SDK/GD32VW55x_RELEASE_V1.0.2/MSDK/ble/app\app_cmd.c **** 
 2397              		.loc 1 724 5
 2398 0066 4C40     		lw	a1,4(s0)
 2399 0068 37050000 		lui	a0,%hi(.LC85)
 2400 006c 13050500 		addi	a0,a0,%lo(.LC85)
 2401 0070 97000000 		call	co_printf
 2401      E7800000 
 2402              	.LVL312:
 726:C:/Users/stapi/OneDrive/Desktop/GD32VW553/GD32VW55X_Wifi_BLE_SDK/GD32VW55x_RELEASE_V1.0.2/MSDK/ble/app\app_cmd.c **** 
 2403              		.loc 1 726 5
 2404 0078 5DBF     		j	.L157
 2405              	.LBE9:
 2406              	.LBE8:
 2407              		.cfi_endproc
 2408              	.LFE42:
 2410              		.section	.rodata.cmd_get_rssi.str1.4,"aMS",@progbits,1
 2411              		.align	2
 2412              	.LC86:
 2413 0000 55736167 		.string	"Usage: ble_get_rssi <conn idx>\r\n"
 2413      653A2062 
 2413      6C655F67 
 2413      65745F72 
 2413      73736920 
 2414 0021 000000   		.align	2
 2415              	.LC87:
 2416 0024 67657420 		.string	"get rssi fail status 0x%x\r\n"
 2416      72737369 
 2416      20666169 
 2416      6C207374 
 2416      61747573 
 2417              		.section	.text.cmd_get_rssi,"ax",@progbits
 2418              		.align	1
 2420              	cmd_get_rssi:
 2421              	.LFB41:
 688:C:/Users/stapi/OneDrive/Desktop/GD32VW553/GD32VW55X_Wifi_BLE_SDK/GD32VW55x_RELEASE_V1.0.2/MSDK/ble/app\app_cmd.c ****     char *endptr = NULL;
 2422              		.loc 1 688 1
 2423              		.cfi_startproc
 2424              	.LVL313:
 2425 0000 17030000 		call	t0,__riscv_save_0
 2425      E7020300 
 2426              		.cfi_offset 1, -4
 2427              		.cfi_def_cfa_offset 16
 689:C:/Users/stapi/OneDrive/Desktop/GD32VW553/GD32VW55X_Wifi_BLE_SDK/GD32VW55x_RELEASE_V1.0.2/MSDK/ble/app\app_cmd.c ****     uint8_t conidx;
 2428              		.loc 1 689 5
 688:C:/Users/stapi/OneDrive/Desktop/GD32VW553/GD32VW55X_Wifi_BLE_SDK/GD32VW55x_RELEASE_V1.0.2/MSDK/ble/app\app_cmd.c ****     char *endptr = NULL;
 2429              		.loc 1 688 1 is_stmt 0
 2430 0008 4111     		addi	sp,sp,-16
 2431              		.cfi_def_cfa_offset 32
 689:C:/Users/stapi/OneDrive/Desktop/GD32VW553/GD32VW55X_Wifi_BLE_SDK/GD32VW55x_RELEASE_V1.0.2/MSDK/ble/app\app_cmd.c ****     uint8_t conidx;
 2432              		.loc 1 689 11
 2433 000a 02C6     		sw	zero,12(sp)
 690:C:/Users/stapi/OneDrive/Desktop/GD32VW553/GD32VW55X_Wifi_BLE_SDK/GD32VW55x_RELEASE_V1.0.2/MSDK/ble/app\app_cmd.c ****     ble_status_t ret;
 2434              		.loc 1 690 5 is_stmt 1
 691:C:/Users/stapi/OneDrive/Desktop/GD32VW553/GD32VW55X_Wifi_BLE_SDK/GD32VW55x_RELEASE_V1.0.2/MSDK/ble/app\app_cmd.c **** 
 2435              		.loc 1 691 5
 693:C:/Users/stapi/OneDrive/Desktop/GD32VW553/GD32VW55X_Wifi_BLE_SDK/GD32VW55x_RELEASE_V1.0.2/MSDK/ble/app\app_cmd.c ****         goto usage;
 2436              		.loc 1 693 5
 693:C:/Users/stapi/OneDrive/Desktop/GD32VW553/GD32VW55X_Wifi_BLE_SDK/GD32VW55x_RELEASE_V1.0.2/MSDK/ble/app\app_cmd.c ****         goto usage;
 2437              		.loc 1 693 8 is_stmt 0
 2438 000c 0947     		li	a4,2
 2439 000e 6307E502 		beq	a0,a4,.L164
 2440              	.LVL314:
 2441              	.LBB12:
 2442              	.LBB13:
 694:C:/Users/stapi/OneDrive/Desktop/GD32VW553/GD32VW55X_Wifi_BLE_SDK/GD32VW55x_RELEASE_V1.0.2/MSDK/ble/app\app_cmd.c ****     }
 2443              		.loc 1 694 9 is_stmt 1
 2444              	.LDL16:
 706:C:/Users/stapi/OneDrive/Desktop/GD32VW553/GD32VW55X_Wifi_BLE_SDK/GD32VW55x_RELEASE_V1.0.2/MSDK/ble/app\app_cmd.c ****     app_print("<conn idx>: index of connection\r\n");
 2445              		.loc 1 706 5
 2446 0012 37050000 		lui	a0,%hi(.LC86)
 2447              	.LVL315:
 2448 0016 13050500 		addi	a0,a0,%lo(.LC86)
 2449 001a 97000000 		call	co_printf
 2449      E7800000 
 2450              	.LVL316:
 707:C:/Users/stapi/OneDrive/Desktop/GD32VW553/GD32VW55X_Wifi_BLE_SDK/GD32VW55x_RELEASE_V1.0.2/MSDK/ble/app\app_cmd.c **** 
 2451              		.loc 1 707 5
 2452 0022 37050000 		lui	a0,%hi(.LC2)
 2453 0026 13050500 		addi	a0,a0,%lo(.LC2)
 2454 002a 97000000 		call	co_printf
 2454      E7800000 
 2455              	.LVL317:
 2456              	.L163:
 2457              	.LBE13:
 2458              	.LBE12:
 709:C:/Users/stapi/OneDrive/Desktop/GD32VW553/GD32VW55X_Wifi_BLE_SDK/GD32VW55x_RELEASE_V1.0.2/MSDK/ble/app\app_cmd.c **** 
 2459              		.loc 1 709 1 is_stmt 0
 2460 0032 4101     		addi	sp,sp,16
 2461              		.cfi_remember_state
 2462              		.cfi_def_cfa_offset 0
 2463 0034 17030000 		tail	__riscv_restore_0
 2463      67000300 
 2464              		.cfi_restore 1
 2465              		.cfi_def_cfa_offset -16
 2466              	.LVL318:
 2467              	.L164:
 2468              		.cfi_restore_state
 2469 003c AE87     		mv	a5,a1
 697:C:/Users/stapi/OneDrive/Desktop/GD32VW553/GD32VW55X_Wifi_BLE_SDK/GD32VW55x_RELEASE_V1.0.2/MSDK/ble/app\app_cmd.c ****     ret = ble_conn_rssi_get(conidx);
 2470              		.loc 1 697 5 is_stmt 1
 697:C:/Users/stapi/OneDrive/Desktop/GD32VW553/GD32VW55X_Wifi_BLE_SDK/GD32VW55x_RELEASE_V1.0.2/MSDK/ble/app\app_cmd.c ****     ret = ble_conn_rssi_get(conidx);
 2471              		.loc 1 697 23 is_stmt 0
 2472 003e C843     		lw	a0,4(a5)
 2473              	.LVL319:
 2474 0040 6C00     		addi	a1,sp,12
 2475              	.LVL320:
 2476 0042 0146     		li	a2,0
 2477 0044 97000000 		call	strtoul
 2477      E7800000 
 2478              	.LVL321:
 698:C:/Users/stapi/OneDrive/Desktop/GD32VW553/GD32VW55X_Wifi_BLE_SDK/GD32VW55x_RELEASE_V1.0.2/MSDK/ble/app\app_cmd.c ****     if (ret != BLE_ERR_NO_ERROR) {
 2479              		.loc 1 698 5 is_stmt 1
 698:C:/Users/stapi/OneDrive/Desktop/GD32VW553/GD32VW55X_Wifi_BLE_SDK/GD32VW55x_RELEASE_V1.0.2/MSDK/ble/app\app_cmd.c ****     if (ret != BLE_ERR_NO_ERROR) {
 2480              		.loc 1 698 11 is_stmt 0
 2481 004c 1375F50F 		andi	a0,a0,0xff
 2482 0050 97000000 		call	ble_conn_rssi_get
 2482      E7800000 
 2483              	.LVL322:
 2484 0058 AA85     		mv	a1,a0
 2485              	.LVL323:
 699:C:/Users/stapi/OneDrive/Desktop/GD32VW553/GD32VW55X_Wifi_BLE_SDK/GD32VW55x_RELEASE_V1.0.2/MSDK/ble/app\app_cmd.c ****         app_print("get rssi fail status 0x%x\r\n", ret);
 2486              		.loc 1 699 5 is_stmt 1
 699:C:/Users/stapi/OneDrive/Desktop/GD32VW553/GD32VW55X_Wifi_BLE_SDK/GD32VW55x_RELEASE_V1.0.2/MSDK/ble/app\app_cmd.c ****         app_print("get rssi fail status 0x%x\r\n", ret);
 2487              		.loc 1 699 8 is_stmt 0
 2488 005a 61DD     		beq	a0,zero,.L163
 700:C:/Users/stapi/OneDrive/Desktop/GD32VW553/GD32VW55X_Wifi_BLE_SDK/GD32VW55x_RELEASE_V1.0.2/MSDK/ble/app\app_cmd.c ****     }
 2489              		.loc 1 700 9 is_stmt 1
 2490 005c 37050000 		lui	a0,%hi(.LC87)
 2491              	.LVL324:
 2492 0060 13050500 		addi	a0,a0,%lo(.LC87)
 2493 0064 97000000 		call	co_printf
 2493      E7800000 
 2494              	.LVL325:
 703:C:/Users/stapi/OneDrive/Desktop/GD32VW553/GD32VW55X_Wifi_BLE_SDK/GD32VW55x_RELEASE_V1.0.2/MSDK/ble/app\app_cmd.c **** 
 2495              		.loc 1 703 5
 2496 006c D9B7     		j	.L163
 2497              		.cfi_endproc
 2498              	.LFE41:
 2500              		.section	.rodata.cmd_ble_peer_ver.str1.4,"aMS",@progbits,1
 2501              		.align	2
 2502              	.LC88:
 2503 0000 55736167 		.string	"Usage: ble_peer_ver <conn idx>\r\n"
 2503      653A2062 
 2503      6C655F70 
 2503      6565725F 
 2503      76657220 
 2504 0021 000000   		.align	2
 2505              	.LC89:
 2506 0024 67657420 		.string	"get peer version fail status 0x%x\r\n"
 2506      70656572 
 2506      20766572 
 2506      73696F6E 
 2506      20666169 
 2507              		.section	.text.cmd_ble_peer_ver,"ax",@progbits
 2508              		.align	1
 2510              	cmd_ble_peer_ver:
 2511              	.LFB39:
 629:C:/Users/stapi/OneDrive/Desktop/GD32VW553/GD32VW55X_Wifi_BLE_SDK/GD32VW55x_RELEASE_V1.0.2/MSDK/ble/app\app_cmd.c ****     uint8_t idx = 0;
 2512              		.loc 1 629 1
 2513              		.cfi_startproc
 2514              	.LVL326:
 2515 0000 17030000 		call	t0,__riscv_save_0
 2515      E7020300 
 2516              		.cfi_offset 1, -4
 2517              		.cfi_def_cfa_offset 16
 630:C:/Users/stapi/OneDrive/Desktop/GD32VW553/GD32VW55X_Wifi_BLE_SDK/GD32VW55x_RELEASE_V1.0.2/MSDK/ble/app\app_cmd.c ****     char *endptr = NULL;
 2518              		.loc 1 630 5
 2519              	.LVL327:
 631:C:/Users/stapi/OneDrive/Desktop/GD32VW553/GD32VW55X_Wifi_BLE_SDK/GD32VW55x_RELEASE_V1.0.2/MSDK/ble/app\app_cmd.c ****     ble_status_t ret;
 2520              		.loc 1 631 5
 629:C:/Users/stapi/OneDrive/Desktop/GD32VW553/GD32VW55X_Wifi_BLE_SDK/GD32VW55x_RELEASE_V1.0.2/MSDK/ble/app\app_cmd.c ****     uint8_t idx = 0;
 2521              		.loc 1 629 1 is_stmt 0
 2522 0008 4111     		addi	sp,sp,-16
 2523              		.cfi_def_cfa_offset 32
 631:C:/Users/stapi/OneDrive/Desktop/GD32VW553/GD32VW55X_Wifi_BLE_SDK/GD32VW55x_RELEASE_V1.0.2/MSDK/ble/app\app_cmd.c ****     ble_status_t ret;
 2524              		.loc 1 631 11
 2525 000a 02C6     		sw	zero,12(sp)
 632:C:/Users/stapi/OneDrive/Desktop/GD32VW553/GD32VW55X_Wifi_BLE_SDK/GD32VW55x_RELEASE_V1.0.2/MSDK/ble/app\app_cmd.c **** 
 2526              		.loc 1 632 5 is_stmt 1
 634:C:/Users/stapi/OneDrive/Desktop/GD32VW553/GD32VW55X_Wifi_BLE_SDK/GD32VW55x_RELEASE_V1.0.2/MSDK/ble/app\app_cmd.c ****         goto usage;
 2527              		.loc 1 634 5
 634:C:/Users/stapi/OneDrive/Desktop/GD32VW553/GD32VW55X_Wifi_BLE_SDK/GD32VW55x_RELEASE_V1.0.2/MSDK/ble/app\app_cmd.c ****         goto usage;
 2528              		.loc 1 634 8 is_stmt 0
 2529 000c 0947     		li	a4,2
 2530 000e 6307E502 		beq	a0,a4,.L172
 2531              	.LVL328:
 2532              	.LBB16:
 2533              	.LBB17:
 635:C:/Users/stapi/OneDrive/Desktop/GD32VW553/GD32VW55X_Wifi_BLE_SDK/GD32VW55x_RELEASE_V1.0.2/MSDK/ble/app\app_cmd.c ****     }
 2534              		.loc 1 635 9 is_stmt 1
 2535              	.LDL17:
 647:C:/Users/stapi/OneDrive/Desktop/GD32VW553/GD32VW55X_Wifi_BLE_SDK/GD32VW55x_RELEASE_V1.0.2/MSDK/ble/app\app_cmd.c ****     app_print("<conn idx>: index of connection\r\n");
 2536              		.loc 1 647 5
 2537 0012 37050000 		lui	a0,%hi(.LC88)
 2538              	.LVL329:
 2539 0016 13050500 		addi	a0,a0,%lo(.LC88)
 2540 001a 97000000 		call	co_printf
 2540      E7800000 
 2541              	.LVL330:
 648:C:/Users/stapi/OneDrive/Desktop/GD32VW553/GD32VW55X_Wifi_BLE_SDK/GD32VW55x_RELEASE_V1.0.2/MSDK/ble/app\app_cmd.c **** }
 2542              		.loc 1 648 5
 2543 0022 37050000 		lui	a0,%hi(.LC2)
 2544 0026 13050500 		addi	a0,a0,%lo(.LC2)
 2545 002a 97000000 		call	co_printf
 2545      E7800000 
 2546              	.LVL331:
 2547              	.L171:
 2548              	.LBE17:
 2549              	.LBE16:
 649:C:/Users/stapi/OneDrive/Desktop/GD32VW553/GD32VW55X_Wifi_BLE_SDK/GD32VW55x_RELEASE_V1.0.2/MSDK/ble/app\app_cmd.c **** 
 2550              		.loc 1 649 1 is_stmt 0
 2551 0032 4101     		addi	sp,sp,16
 2552              		.cfi_remember_state
 2553              		.cfi_def_cfa_offset 0
 2554 0034 17030000 		tail	__riscv_restore_0
 2554      67000300 
 2555              		.cfi_restore 1
 2556              		.cfi_def_cfa_offset -16
 2557              	.LVL332:
 2558              	.L172:
 2559              		.cfi_restore_state
 2560 003c AE87     		mv	a5,a1
 638:C:/Users/stapi/OneDrive/Desktop/GD32VW553/GD32VW55X_Wifi_BLE_SDK/GD32VW55x_RELEASE_V1.0.2/MSDK/ble/app\app_cmd.c ****     ret = ble_conn_peer_version_get(idx);
 2561              		.loc 1 638 5 is_stmt 1
 638:C:/Users/stapi/OneDrive/Desktop/GD32VW553/GD32VW55X_Wifi_BLE_SDK/GD32VW55x_RELEASE_V1.0.2/MSDK/ble/app\app_cmd.c ****     ret = ble_conn_peer_version_get(idx);
 2562              		.loc 1 638 20 is_stmt 0
 2563 003e C843     		lw	a0,4(a5)
 2564              	.LVL333:
 2565 0040 6C00     		addi	a1,sp,12
 2566              	.LVL334:
 2567 0042 0146     		li	a2,0
 2568 0044 97000000 		call	strtoul
 2568      E7800000 
 2569              	.LVL335:
 639:C:/Users/stapi/OneDrive/Desktop/GD32VW553/GD32VW55X_Wifi_BLE_SDK/GD32VW55x_RELEASE_V1.0.2/MSDK/ble/app\app_cmd.c ****     if (ret != BLE_ERR_NO_ERROR) {
 2570              		.loc 1 639 5 is_stmt 1
 639:C:/Users/stapi/OneDrive/Desktop/GD32VW553/GD32VW55X_Wifi_BLE_SDK/GD32VW55x_RELEASE_V1.0.2/MSDK/ble/app\app_cmd.c ****     if (ret != BLE_ERR_NO_ERROR) {
 2571              		.loc 1 639 11 is_stmt 0
 2572 004c 1375F50F 		andi	a0,a0,0xff
 2573 0050 97000000 		call	ble_conn_peer_version_get
 2573      E7800000 
 2574              	.LVL336:
 2575 0058 AA85     		mv	a1,a0
 2576              	.LVL337:
 640:C:/Users/stapi/OneDrive/Desktop/GD32VW553/GD32VW55X_Wifi_BLE_SDK/GD32VW55x_RELEASE_V1.0.2/MSDK/ble/app\app_cmd.c ****         app_print("get peer version fail status 0x%x\r\n", ret);
 2577              		.loc 1 640 5 is_stmt 1
 640:C:/Users/stapi/OneDrive/Desktop/GD32VW553/GD32VW55X_Wifi_BLE_SDK/GD32VW55x_RELEASE_V1.0.2/MSDK/ble/app\app_cmd.c ****         app_print("get peer version fail status 0x%x\r\n", ret);
 2578              		.loc 1 640 8 is_stmt 0
 2579 005a 61DD     		beq	a0,zero,.L171
 641:C:/Users/stapi/OneDrive/Desktop/GD32VW553/GD32VW55X_Wifi_BLE_SDK/GD32VW55x_RELEASE_V1.0.2/MSDK/ble/app\app_cmd.c ****     }
 2580              		.loc 1 641 9 is_stmt 1
 2581 005c 37050000 		lui	a0,%hi(.LC89)
 2582              	.LVL338:
 2583 0060 13050500 		addi	a0,a0,%lo(.LC89)
 2584 0064 97000000 		call	co_printf
 2584      E7800000 
 2585              	.LVL339:
 644:C:/Users/stapi/OneDrive/Desktop/GD32VW553/GD32VW55X_Wifi_BLE_SDK/GD32VW55x_RELEASE_V1.0.2/MSDK/ble/app\app_cmd.c **** 
 2586              		.loc 1 644 5
 2587 006c D9B7     		j	.L171
 2588              		.cfi_endproc
 2589              	.LFE39:
 2591              		.section	.rodata.cmd_ble_peer_feat.str1.4,"aMS",@progbits,1
 2592              		.align	2
 2593              	.LC90:
 2594 0000 55736167 		.string	"Usage: ble_peer_feat <conn idx>\r\n"
 2594      653A2062 
 2594      6C655F70 
 2594      6565725F 
 2594      66656174 
 2595 0022 0000     		.align	2
 2596              	.LC91:
 2597 0024 67657420 		.string	"get peer features fail status 0x%x\r\n"
 2597      70656572 
 2597      20666561 
 2597      74757265 
 2597      73206661 
 2598              		.section	.text.cmd_ble_peer_feat,"ax",@progbits
 2599              		.align	1
 2601              	cmd_ble_peer_feat:
 2602              	.LFB38:
 606:C:/Users/stapi/OneDrive/Desktop/GD32VW553/GD32VW55X_Wifi_BLE_SDK/GD32VW55x_RELEASE_V1.0.2/MSDK/ble/app\app_cmd.c ****     uint8_t idx = 0;
 2603              		.loc 1 606 1
 2604              		.cfi_startproc
 2605              	.LVL340:
 2606 0000 17030000 		call	t0,__riscv_save_0
 2606      E7020300 
 2607              		.cfi_offset 1, -4
 2608              		.cfi_def_cfa_offset 16
 607:C:/Users/stapi/OneDrive/Desktop/GD32VW553/GD32VW55X_Wifi_BLE_SDK/GD32VW55x_RELEASE_V1.0.2/MSDK/ble/app\app_cmd.c ****     char *endptr = NULL;
 2609              		.loc 1 607 5
 2610              	.LVL341:
 608:C:/Users/stapi/OneDrive/Desktop/GD32VW553/GD32VW55X_Wifi_BLE_SDK/GD32VW55x_RELEASE_V1.0.2/MSDK/ble/app\app_cmd.c ****     ble_status_t ret;
 2611              		.loc 1 608 5
 606:C:/Users/stapi/OneDrive/Desktop/GD32VW553/GD32VW55X_Wifi_BLE_SDK/GD32VW55x_RELEASE_V1.0.2/MSDK/ble/app\app_cmd.c ****     uint8_t idx = 0;
 2612              		.loc 1 606 1 is_stmt 0
 2613 0008 4111     		addi	sp,sp,-16
 2614              		.cfi_def_cfa_offset 32
 608:C:/Users/stapi/OneDrive/Desktop/GD32VW553/GD32VW55X_Wifi_BLE_SDK/GD32VW55x_RELEASE_V1.0.2/MSDK/ble/app\app_cmd.c ****     ble_status_t ret;
 2615              		.loc 1 608 11
 2616 000a 02C6     		sw	zero,12(sp)
 609:C:/Users/stapi/OneDrive/Desktop/GD32VW553/GD32VW55X_Wifi_BLE_SDK/GD32VW55x_RELEASE_V1.0.2/MSDK/ble/app\app_cmd.c **** 
 2617              		.loc 1 609 5 is_stmt 1
 611:C:/Users/stapi/OneDrive/Desktop/GD32VW553/GD32VW55X_Wifi_BLE_SDK/GD32VW55x_RELEASE_V1.0.2/MSDK/ble/app\app_cmd.c ****         goto usage;
 2618              		.loc 1 611 5
 611:C:/Users/stapi/OneDrive/Desktop/GD32VW553/GD32VW55X_Wifi_BLE_SDK/GD32VW55x_RELEASE_V1.0.2/MSDK/ble/app\app_cmd.c ****         goto usage;
 2619              		.loc 1 611 8 is_stmt 0
 2620 000c 0947     		li	a4,2
 2621 000e 6307E502 		beq	a0,a4,.L180
 2622              	.LVL342:
 2623              	.LBB20:
 2624              	.LBB21:
 612:C:/Users/stapi/OneDrive/Desktop/GD32VW553/GD32VW55X_Wifi_BLE_SDK/GD32VW55x_RELEASE_V1.0.2/MSDK/ble/app\app_cmd.c ****     }
 2625              		.loc 1 612 9 is_stmt 1
 2626              	.LDL18:
 624:C:/Users/stapi/OneDrive/Desktop/GD32VW553/GD32VW55X_Wifi_BLE_SDK/GD32VW55x_RELEASE_V1.0.2/MSDK/ble/app\app_cmd.c ****     app_print("<conn idx>: index of connection\r\n");
 2627              		.loc 1 624 5
 2628 0012 37050000 		lui	a0,%hi(.LC90)
 2629              	.LVL343:
 2630 0016 13050500 		addi	a0,a0,%lo(.LC90)
 2631 001a 97000000 		call	co_printf
 2631      E7800000 
 2632              	.LVL344:
 625:C:/Users/stapi/OneDrive/Desktop/GD32VW553/GD32VW55X_Wifi_BLE_SDK/GD32VW55x_RELEASE_V1.0.2/MSDK/ble/app\app_cmd.c **** }
 2633              		.loc 1 625 5
 2634 0022 37050000 		lui	a0,%hi(.LC2)
 2635 0026 13050500 		addi	a0,a0,%lo(.LC2)
 2636 002a 97000000 		call	co_printf
 2636      E7800000 
 2637              	.LVL345:
 2638              	.L179:
 2639              	.LBE21:
 2640              	.LBE20:
 626:C:/Users/stapi/OneDrive/Desktop/GD32VW553/GD32VW55X_Wifi_BLE_SDK/GD32VW55x_RELEASE_V1.0.2/MSDK/ble/app\app_cmd.c **** 
 2641              		.loc 1 626 1 is_stmt 0
 2642 0032 4101     		addi	sp,sp,16
 2643              		.cfi_remember_state
 2644              		.cfi_def_cfa_offset 0
 2645 0034 17030000 		tail	__riscv_restore_0
 2645      67000300 
 2646              		.cfi_restore 1
 2647              		.cfi_def_cfa_offset -16
 2648              	.LVL346:
 2649              	.L180:
 2650              		.cfi_restore_state
 2651 003c AE87     		mv	a5,a1
 615:C:/Users/stapi/OneDrive/Desktop/GD32VW553/GD32VW55X_Wifi_BLE_SDK/GD32VW55x_RELEASE_V1.0.2/MSDK/ble/app\app_cmd.c ****     ret = ble_conn_peer_feats_get(idx);
 2652              		.loc 1 615 5 is_stmt 1
 615:C:/Users/stapi/OneDrive/Desktop/GD32VW553/GD32VW55X_Wifi_BLE_SDK/GD32VW55x_RELEASE_V1.0.2/MSDK/ble/app\app_cmd.c ****     ret = ble_conn_peer_feats_get(idx);
 2653              		.loc 1 615 20 is_stmt 0
 2654 003e C843     		lw	a0,4(a5)
 2655              	.LVL347:
 2656 0040 6C00     		addi	a1,sp,12
 2657              	.LVL348:
 2658 0042 0146     		li	a2,0
 2659 0044 97000000 		call	strtoul
 2659      E7800000 
 2660              	.LVL349:
 616:C:/Users/stapi/OneDrive/Desktop/GD32VW553/GD32VW55X_Wifi_BLE_SDK/GD32VW55x_RELEASE_V1.0.2/MSDK/ble/app\app_cmd.c ****     if (ret != BLE_ERR_NO_ERROR) {
 2661              		.loc 1 616 5 is_stmt 1
 616:C:/Users/stapi/OneDrive/Desktop/GD32VW553/GD32VW55X_Wifi_BLE_SDK/GD32VW55x_RELEASE_V1.0.2/MSDK/ble/app\app_cmd.c ****     if (ret != BLE_ERR_NO_ERROR) {
 2662              		.loc 1 616 11 is_stmt 0
 2663 004c 1375F50F 		andi	a0,a0,0xff
 2664 0050 97000000 		call	ble_conn_peer_feats_get
 2664      E7800000 
 2665              	.LVL350:
 2666 0058 AA85     		mv	a1,a0
 2667              	.LVL351:
 617:C:/Users/stapi/OneDrive/Desktop/GD32VW553/GD32VW55X_Wifi_BLE_SDK/GD32VW55x_RELEASE_V1.0.2/MSDK/ble/app\app_cmd.c ****         app_print("get peer features fail status 0x%x\r\n", ret);
 2668              		.loc 1 617 5 is_stmt 1
 617:C:/Users/stapi/OneDrive/Desktop/GD32VW553/GD32VW55X_Wifi_BLE_SDK/GD32VW55x_RELEASE_V1.0.2/MSDK/ble/app\app_cmd.c ****         app_print("get peer features fail status 0x%x\r\n", ret);
 2669              		.loc 1 617 8 is_stmt 0
 2670 005a 61DD     		beq	a0,zero,.L179
 618:C:/Users/stapi/OneDrive/Desktop/GD32VW553/GD32VW55X_Wifi_BLE_SDK/GD32VW55x_RELEASE_V1.0.2/MSDK/ble/app\app_cmd.c ****     }
 2671              		.loc 1 618 9 is_stmt 1
 2672 005c 37050000 		lui	a0,%hi(.LC91)
 2673              	.LVL352:
 2674 0060 13050500 		addi	a0,a0,%lo(.LC91)
 2675 0064 97000000 		call	co_printf
 2675      E7800000 
 2676              	.LVL353:
 621:C:/Users/stapi/OneDrive/Desktop/GD32VW553/GD32VW55X_Wifi_BLE_SDK/GD32VW55x_RELEASE_V1.0.2/MSDK/ble/app\app_cmd.c **** 
 2677              		.loc 1 621 5
 2678 006c D9B7     		j	.L179
 2679              		.cfi_endproc
 2680              	.LFE38:
 2682              		.section	.rodata.cmd_compare.str1.4,"aMS",@progbits,1
 2683              		.align	2
 2684              	.LC92:
 2685 0000 55736167 		.string	"Usage: ble_compare <conn idx> <result>\r\n"
 2685      653A2062 
 2685      6C655F63 
 2685      6F6D7061 
 2685      7265203C 
 2686 0029 000000   		.align	2
 2687              	.LC93:
 2688 002c 3C636F6E 		.string	"<conn idx> index of connection\r\n"
 2688      6E206964 
 2688      783E2069 
 2688      6E646578 
 2688      206F6620 
 2689 004d 000000   		.align	2
 2690              	.LC94:
 2691 0050 3C726573 		.string	"<result>: numeric comparison result, 0 for fail and 1 for success\r\n"
 2691      756C743E 
 2691      3A206E75 
 2691      6D657269 
 2691      6320636F 
 2692              		.section	.text.cmd_compare,"ax",@progbits
 2693              		.align	1
 2695              	cmd_compare:
 2696              	.LFB37:
 584:C:/Users/stapi/OneDrive/Desktop/GD32VW553/GD32VW55X_Wifi_BLE_SDK/GD32VW55x_RELEASE_V1.0.2/MSDK/ble/app\app_cmd.c ****     char *endptr = NULL;
 2697              		.loc 1 584 1
 2698              		.cfi_startproc
 2699              	.LVL354:
 2700 0000 17030000 		call	t0,__riscv_save_2
 2700      E7020300 
 2701              		.cfi_offset 9, -12
 2702              		.cfi_offset 8, -8
 2703              		.cfi_offset 1, -4
 2704              		.cfi_def_cfa_offset 16
 585:C:/Users/stapi/OneDrive/Desktop/GD32VW553/GD32VW55X_Wifi_BLE_SDK/GD32VW55x_RELEASE_V1.0.2/MSDK/ble/app\app_cmd.c ****     bool value;
 2705              		.loc 1 585 5
 584:C:/Users/stapi/OneDrive/Desktop/GD32VW553/GD32VW55X_Wifi_BLE_SDK/GD32VW55x_RELEASE_V1.0.2/MSDK/ble/app\app_cmd.c ****     char *endptr = NULL;
 2706              		.loc 1 584 1 is_stmt 0
 2707 0008 4111     		addi	sp,sp,-16
 2708              		.cfi_def_cfa_offset 32
 585:C:/Users/stapi/OneDrive/Desktop/GD32VW553/GD32VW55X_Wifi_BLE_SDK/GD32VW55x_RELEASE_V1.0.2/MSDK/ble/app\app_cmd.c ****     bool value;
 2709              		.loc 1 585 11
 2710 000a 02C6     		sw	zero,12(sp)
 586:C:/Users/stapi/OneDrive/Desktop/GD32VW553/GD32VW55X_Wifi_BLE_SDK/GD32VW55x_RELEASE_V1.0.2/MSDK/ble/app\app_cmd.c ****     uint8_t conidx = 0;
 2711              		.loc 1 586 5 is_stmt 1
 587:C:/Users/stapi/OneDrive/Desktop/GD32VW553/GD32VW55X_Wifi_BLE_SDK/GD32VW55x_RELEASE_V1.0.2/MSDK/ble/app\app_cmd.c **** 
 2712              		.loc 1 587 5
 2713              	.LVL355:
 589:C:/Users/stapi/OneDrive/Desktop/GD32VW553/GD32VW55X_Wifi_BLE_SDK/GD32VW55x_RELEASE_V1.0.2/MSDK/ble/app\app_cmd.c ****         goto usage;
 2714              		.loc 1 589 5
 589:C:/Users/stapi/OneDrive/Desktop/GD32VW553/GD32VW55X_Wifi_BLE_SDK/GD32VW55x_RELEASE_V1.0.2/MSDK/ble/app\app_cmd.c ****         goto usage;
 2715              		.loc 1 589 8 is_stmt 0
 2716 000c 8D47     		li	a5,3
 2717 000e 630FF502 		beq	a0,a5,.L188
 2718              	.LVL356:
 2719              	.LBB24:
 2720              	.LBB25:
 590:C:/Users/stapi/OneDrive/Desktop/GD32VW553/GD32VW55X_Wifi_BLE_SDK/GD32VW55x_RELEASE_V1.0.2/MSDK/ble/app\app_cmd.c ****     }
 2721              		.loc 1 590 9 is_stmt 1
 2722              	.LDL19:
 600:C:/Users/stapi/OneDrive/Desktop/GD32VW553/GD32VW55X_Wifi_BLE_SDK/GD32VW55x_RELEASE_V1.0.2/MSDK/ble/app\app_cmd.c ****     app_print("<conn idx> index of connection\r\n");
 2723              		.loc 1 600 5
 2724 0012 37050000 		lui	a0,%hi(.LC92)
 2725              	.LVL357:
 2726 0016 13050500 		addi	a0,a0,%lo(.LC92)
 2727 001a 97000000 		call	co_printf
 2727      E7800000 
 2728              	.LVL358:
 601:C:/Users/stapi/OneDrive/Desktop/GD32VW553/GD32VW55X_Wifi_BLE_SDK/GD32VW55x_RELEASE_V1.0.2/MSDK/ble/app\app_cmd.c ****     app_print("<result>: numeric comparison result, 0 for fail and 1 for success\r\n");
 2729              		.loc 1 601 5
 2730 0022 37050000 		lui	a0,%hi(.LC93)
 2731 0026 13050500 		addi	a0,a0,%lo(.LC93)
 2732 002a 97000000 		call	co_printf
 2732      E7800000 
 2733              	.LVL359:
 602:C:/Users/stapi/OneDrive/Desktop/GD32VW553/GD32VW55X_Wifi_BLE_SDK/GD32VW55x_RELEASE_V1.0.2/MSDK/ble/app\app_cmd.c **** }
 2734              		.loc 1 602 5
 2735 0032 37050000 		lui	a0,%hi(.LC94)
 2736 0036 13050500 		addi	a0,a0,%lo(.LC94)
 2737 003a 97000000 		call	co_printf
 2737      E7800000 
 2738              	.LVL360:
 2739              	.L187:
 2740              	.LBE25:
 2741              	.LBE24:
 603:C:/Users/stapi/OneDrive/Desktop/GD32VW553/GD32VW55X_Wifi_BLE_SDK/GD32VW55x_RELEASE_V1.0.2/MSDK/ble/app\app_cmd.c **** 
 2742              		.loc 1 603 1 is_stmt 0
 2743 0042 4101     		addi	sp,sp,16
 2744              		.cfi_remember_state
 2745              		.cfi_def_cfa_offset 0
 2746 0044 17030000 		tail	__riscv_restore_2
 2746      67000300 
 2747              		.cfi_restore 9
 2748              		.cfi_restore 8
 2749              		.cfi_restore 1
 2750              		.cfi_def_cfa_offset -16
 2751              	.LVL361:
 2752              	.L188:
 2753              		.cfi_restore_state
 2754 004c 2E84     		mv	s0,a1
 593:C:/Users/stapi/OneDrive/Desktop/GD32VW553/GD32VW55X_Wifi_BLE_SDK/GD32VW55x_RELEASE_V1.0.2/MSDK/ble/app\app_cmd.c ****     value = (bool)strtoul((const char *)argv[2], &endptr, 0);
 2755              		.loc 1 593 5 is_stmt 1
 593:C:/Users/stapi/OneDrive/Desktop/GD32VW553/GD32VW55X_Wifi_BLE_SDK/GD32VW55x_RELEASE_V1.0.2/MSDK/ble/app\app_cmd.c ****     value = (bool)strtoul((const char *)argv[2], &endptr, 0);
 2756              		.loc 1 593 23 is_stmt 0
 2757 004e 4840     		lw	a0,4(s0)
 2758              	.LVL362:
 2759 0050 6C00     		addi	a1,sp,12
 2760              	.LVL363:
 2761 0052 0146     		li	a2,0
 2762 0054 97000000 		call	strtoul
 2762      E7800000 
 2763              	.LVL364:
 2764 005c AA84     		mv	s1,a0
 2765              	.LVL365:
 594:C:/Users/stapi/OneDrive/Desktop/GD32VW553/GD32VW55X_Wifi_BLE_SDK/GD32VW55x_RELEASE_V1.0.2/MSDK/ble/app\app_cmd.c ****     app_sec_num_compare(conidx, value);
 2766              		.loc 1 594 5 is_stmt 1
 594:C:/Users/stapi/OneDrive/Desktop/GD32VW553/GD32VW55X_Wifi_BLE_SDK/GD32VW55x_RELEASE_V1.0.2/MSDK/ble/app\app_cmd.c ****     app_sec_num_compare(conidx, value);
 2767              		.loc 1 594 19 is_stmt 0
 2768 005e 0844     		lw	a0,8(s0)
 2769 0060 6C00     		addi	a1,sp,12
 2770 0062 0146     		li	a2,0
 2771 0064 97000000 		call	strtoul
 2771      E7800000 
 2772              	.LVL366:
 595:C:/Users/stapi/OneDrive/Desktop/GD32VW553/GD32VW55X_Wifi_BLE_SDK/GD32VW55x_RELEASE_V1.0.2/MSDK/ble/app\app_cmd.c **** 
 2773              		.loc 1 595 5 is_stmt 1
 2774 006c B335A000 		snez	a1,a0
 2775 0070 13F5F40F 		andi	a0,s1,0xff
 2776              	.LVL367:
 2777 0074 97000000 		call	app_sec_num_compare
 2777      E7800000 
 2778              	.LVL368:
 597:C:/Users/stapi/OneDrive/Desktop/GD32VW553/GD32VW55X_Wifi_BLE_SDK/GD32VW55x_RELEASE_V1.0.2/MSDK/ble/app\app_cmd.c **** 
 2779              		.loc 1 597 5
 2780 007c D9B7     		j	.L187
 2781              		.cfi_endproc
 2782              	.LFE37:
 2784              		.section	.rodata.cmd_encrypt.str1.4,"aMS",@progbits,1
 2785              		.align	2
 2786              	.LC95:
 2787 0000 55736167 		.string	"Usage: ble_encrypt <conn idx>\r\n"
 2787      653A2062 
 2787      6C655F65 
 2787      6E637279 
 2787      7074203C 
 2788              		.align	2
 2789              	.LC96:
 2790 0020 3C636F6E 		.string	"<conn idx>: index of the connection to start encryption\r\n"
 2790      6E206964 
 2790      783E3A20 
 2790      696E6465 
 2790      78206F66 
 2791              		.section	.text.cmd_encrypt,"ax",@progbits
 2792              		.align	1
 2794              	cmd_encrypt:
 2795              	.LFB35:
 538:C:/Users/stapi/OneDrive/Desktop/GD32VW553/GD32VW55X_Wifi_BLE_SDK/GD32VW55x_RELEASE_V1.0.2/MSDK/ble/app\app_cmd.c ****     char *endptr = NULL;
 2796              		.loc 1 538 1
 2797              		.cfi_startproc
 2798              	.LVL369:
 2799 0000 17030000 		call	t0,__riscv_save_0
 2799      E7020300 
 2800              		.cfi_offset 1, -4
 2801              		.cfi_def_cfa_offset 16
 539:C:/Users/stapi/OneDrive/Desktop/GD32VW553/GD32VW55X_Wifi_BLE_SDK/GD32VW55x_RELEASE_V1.0.2/MSDK/ble/app\app_cmd.c ****     uint8_t conidx = 0;
 2802              		.loc 1 539 5
 538:C:/Users/stapi/OneDrive/Desktop/GD32VW553/GD32VW55X_Wifi_BLE_SDK/GD32VW55x_RELEASE_V1.0.2/MSDK/ble/app\app_cmd.c ****     char *endptr = NULL;
 2803              		.loc 1 538 1 is_stmt 0
 2804 0008 4111     		addi	sp,sp,-16
 2805              		.cfi_def_cfa_offset 32
 539:C:/Users/stapi/OneDrive/Desktop/GD32VW553/GD32VW55X_Wifi_BLE_SDK/GD32VW55x_RELEASE_V1.0.2/MSDK/ble/app\app_cmd.c ****     uint8_t conidx = 0;
 2806              		.loc 1 539 11
 2807 000a 02C6     		sw	zero,12(sp)
 540:C:/Users/stapi/OneDrive/Desktop/GD32VW553/GD32VW55X_Wifi_BLE_SDK/GD32VW55x_RELEASE_V1.0.2/MSDK/ble/app\app_cmd.c **** 
 2808              		.loc 1 540 5 is_stmt 1
 2809              	.LVL370:
 542:C:/Users/stapi/OneDrive/Desktop/GD32VW553/GD32VW55X_Wifi_BLE_SDK/GD32VW55x_RELEASE_V1.0.2/MSDK/ble/app\app_cmd.c ****         goto usage;
 2810              		.loc 1 542 5
 542:C:/Users/stapi/OneDrive/Desktop/GD32VW553/GD32VW55X_Wifi_BLE_SDK/GD32VW55x_RELEASE_V1.0.2/MSDK/ble/app\app_cmd.c ****         goto usage;
 2811              		.loc 1 542 8 is_stmt 0
 2812 000c 0947     		li	a4,2
 2813 000e 6307E502 		beq	a0,a4,.L192
 2814              	.LVL371:
 2815              	.LBB28:
 2816              	.LBB29:
 543:C:/Users/stapi/OneDrive/Desktop/GD32VW553/GD32VW55X_Wifi_BLE_SDK/GD32VW55x_RELEASE_V1.0.2/MSDK/ble/app\app_cmd.c ****     }
 2817              		.loc 1 543 9 is_stmt 1
 2818              	.LDL20:
 552:C:/Users/stapi/OneDrive/Desktop/GD32VW553/GD32VW55X_Wifi_BLE_SDK/GD32VW55x_RELEASE_V1.0.2/MSDK/ble/app\app_cmd.c ****     app_print("<conn idx>: index of the connection to start encryption\r\n");
 2819              		.loc 1 552 5
 2820 0012 37050000 		lui	a0,%hi(.LC95)
 2821              	.LVL372:
 2822 0016 13050500 		addi	a0,a0,%lo(.LC95)
 2823 001a 97000000 		call	co_printf
 2823      E7800000 
 2824              	.LVL373:
 553:C:/Users/stapi/OneDrive/Desktop/GD32VW553/GD32VW55X_Wifi_BLE_SDK/GD32VW55x_RELEASE_V1.0.2/MSDK/ble/app\app_cmd.c **** }
 2825              		.loc 1 553 5
 2826 0022 37050000 		lui	a0,%hi(.LC96)
 2827 0026 13050500 		addi	a0,a0,%lo(.LC96)
 2828 002a 97000000 		call	co_printf
 2828      E7800000 
 2829              	.LVL374:
 2830              	.L191:
 2831              	.LBE29:
 2832              	.LBE28:
 554:C:/Users/stapi/OneDrive/Desktop/GD32VW553/GD32VW55X_Wifi_BLE_SDK/GD32VW55x_RELEASE_V1.0.2/MSDK/ble/app\app_cmd.c **** 
 2833              		.loc 1 554 1 is_stmt 0
 2834 0032 4101     		addi	sp,sp,16
 2835              		.cfi_remember_state
 2836              		.cfi_def_cfa_offset 0
 2837 0034 17030000 		tail	__riscv_restore_0
 2837      67000300 
 2838              		.cfi_restore 1
 2839              		.cfi_def_cfa_offset -16
 2840              	.LVL375:
 2841              	.L192:
 2842              		.cfi_restore_state
 2843 003c AE87     		mv	a5,a1
 546:C:/Users/stapi/OneDrive/Desktop/GD32VW553/GD32VW55X_Wifi_BLE_SDK/GD32VW55x_RELEASE_V1.0.2/MSDK/ble/app\app_cmd.c ****     app_sec_send_encrypt_req(conidx);
 2844              		.loc 1 546 5 is_stmt 1
 546:C:/Users/stapi/OneDrive/Desktop/GD32VW553/GD32VW55X_Wifi_BLE_SDK/GD32VW55x_RELEASE_V1.0.2/MSDK/ble/app\app_cmd.c ****     app_sec_send_encrypt_req(conidx);
 2845              		.loc 1 546 23 is_stmt 0
 2846 003e C843     		lw	a0,4(a5)
 2847              	.LVL376:
 2848 0040 0146     		li	a2,0
 2849 0042 6C00     		addi	a1,sp,12
 2850              	.LVL377:
 2851 0044 97000000 		call	strtoul
 2851      E7800000 
 2852              	.LVL378:
 547:C:/Users/stapi/OneDrive/Desktop/GD32VW553/GD32VW55X_Wifi_BLE_SDK/GD32VW55x_RELEASE_V1.0.2/MSDK/ble/app\app_cmd.c **** 
 2853              		.loc 1 547 5 is_stmt 1
 2854 004c 1375F50F 		andi	a0,a0,0xff
 2855 0050 97000000 		call	app_sec_send_encrypt_req
 2855      E7800000 
 2856              	.LVL379:
 549:C:/Users/stapi/OneDrive/Desktop/GD32VW553/GD32VW55X_Wifi_BLE_SDK/GD32VW55x_RELEASE_V1.0.2/MSDK/ble/app\app_cmd.c **** 
 2857              		.loc 1 549 5
 2858 0058 E9BF     		j	.L191
 2859              		.cfi_endproc
 2860              	.LFE35:
 2862              		.section	.rodata.cmd_disconnect.str1.4,"aMS",@progbits,1
 2863              		.align	2
 2864              	.LC97:
 2865 0000 55736167 		.string	"Usage: ble_disconn <conn idx>\r\n"
 2865      653A2062 
 2865      6C655F64 
 2865      6973636F 
 2865      6E6E203C 
 2866              		.align	2
 2867              	.LC98:
 2868 0020 3C636F6E 		.string	"<conn idx>: index of connection to disconnect\r\n"
 2868      6E206964 
 2868      783E3A20 
 2868      696E6465 
 2868      78206F66 
 2869              		.align	2
 2870              	.LC99:
 2871 0050 64697363 		.string	"disconnect connection fail status 0x%x\r\n"
 2871      6F6E6E65 
 2871      63742063 
 2871      6F6E6E65 
 2871      6374696F 
 2872              		.section	.text.cmd_disconnect,"ax",@progbits
 2873              		.align	1
 2875              	cmd_disconnect:
 2876              	.LFB30:
 403:C:/Users/stapi/OneDrive/Desktop/GD32VW553/GD32VW55X_Wifi_BLE_SDK/GD32VW55x_RELEASE_V1.0.2/MSDK/ble/app\app_cmd.c ****     char *endptr = NULL;
 2877              		.loc 1 403 1
 2878              		.cfi_startproc
 2879              	.LVL380:
 2880 0000 17030000 		call	t0,__riscv_save_0
 2880      E7020300 
 2881              		.cfi_offset 1, -4
 2882              		.cfi_def_cfa_offset 16
 404:C:/Users/stapi/OneDrive/Desktop/GD32VW553/GD32VW55X_Wifi_BLE_SDK/GD32VW55x_RELEASE_V1.0.2/MSDK/ble/app\app_cmd.c ****     uint8_t idx = 0;
 2883              		.loc 1 404 5
 403:C:/Users/stapi/OneDrive/Desktop/GD32VW553/GD32VW55X_Wifi_BLE_SDK/GD32VW55x_RELEASE_V1.0.2/MSDK/ble/app\app_cmd.c ****     char *endptr = NULL;
 2884              		.loc 1 403 1 is_stmt 0
 2885 0008 4111     		addi	sp,sp,-16
 2886              		.cfi_def_cfa_offset 32
 404:C:/Users/stapi/OneDrive/Desktop/GD32VW553/GD32VW55X_Wifi_BLE_SDK/GD32VW55x_RELEASE_V1.0.2/MSDK/ble/app\app_cmd.c ****     uint8_t idx = 0;
 2887              		.loc 1 404 11
 2888 000a 02C6     		sw	zero,12(sp)
 405:C:/Users/stapi/OneDrive/Desktop/GD32VW553/GD32VW55X_Wifi_BLE_SDK/GD32VW55x_RELEASE_V1.0.2/MSDK/ble/app\app_cmd.c ****     ble_status_t ret;
 2889              		.loc 1 405 5 is_stmt 1
 2890              	.LVL381:
 406:C:/Users/stapi/OneDrive/Desktop/GD32VW553/GD32VW55X_Wifi_BLE_SDK/GD32VW55x_RELEASE_V1.0.2/MSDK/ble/app\app_cmd.c **** 
 2891              		.loc 1 406 5
 408:C:/Users/stapi/OneDrive/Desktop/GD32VW553/GD32VW55X_Wifi_BLE_SDK/GD32VW55x_RELEASE_V1.0.2/MSDK/ble/app\app_cmd.c ****         goto usage;
 2892              		.loc 1 408 5
 408:C:/Users/stapi/OneDrive/Desktop/GD32VW553/GD32VW55X_Wifi_BLE_SDK/GD32VW55x_RELEASE_V1.0.2/MSDK/ble/app\app_cmd.c ****         goto usage;
 2893              		.loc 1 408 8 is_stmt 0
 2894 000c 0947     		li	a4,2
 2895 000e 6307E502 		beq	a0,a4,.L196
 2896              	.LVL382:
 2897              	.LBB32:
 2898              	.LBB33:
 409:C:/Users/stapi/OneDrive/Desktop/GD32VW553/GD32VW55X_Wifi_BLE_SDK/GD32VW55x_RELEASE_V1.0.2/MSDK/ble/app\app_cmd.c ****     }
 2899              		.loc 1 409 9 is_stmt 1
 2900              	.LDL21:
 422:C:/Users/stapi/OneDrive/Desktop/GD32VW553/GD32VW55X_Wifi_BLE_SDK/GD32VW55x_RELEASE_V1.0.2/MSDK/ble/app\app_cmd.c ****     app_print("<conn idx>: index of connection to disconnect\r\n");
 2901              		.loc 1 422 5
 2902 0012 37050000 		lui	a0,%hi(.LC97)
 2903              	.LVL383:
 2904 0016 13050500 		addi	a0,a0,%lo(.LC97)
 2905 001a 97000000 		call	co_printf
 2905      E7800000 
 2906              	.LVL384:
 423:C:/Users/stapi/OneDrive/Desktop/GD32VW553/GD32VW55X_Wifi_BLE_SDK/GD32VW55x_RELEASE_V1.0.2/MSDK/ble/app\app_cmd.c **** }
 2907              		.loc 1 423 5
 2908 0022 37050000 		lui	a0,%hi(.LC98)
 2909 0026 13050500 		addi	a0,a0,%lo(.LC98)
 2910 002a 97000000 		call	co_printf
 2910      E7800000 
 2911              	.LVL385:
 2912              	.L195:
 2913              	.LBE33:
 2914              	.LBE32:
 424:C:/Users/stapi/OneDrive/Desktop/GD32VW553/GD32VW55X_Wifi_BLE_SDK/GD32VW55x_RELEASE_V1.0.2/MSDK/ble/app\app_cmd.c **** 
 2915              		.loc 1 424 1 is_stmt 0
 2916 0032 4101     		addi	sp,sp,16
 2917              		.cfi_remember_state
 2918              		.cfi_def_cfa_offset 0
 2919 0034 17030000 		tail	__riscv_restore_0
 2919      67000300 
 2920              		.cfi_restore 1
 2921              		.cfi_def_cfa_offset -16
 2922              	.LVL386:
 2923              	.L196:
 2924              		.cfi_restore_state
 2925 003c AE87     		mv	a5,a1
 412:C:/Users/stapi/OneDrive/Desktop/GD32VW553/GD32VW55X_Wifi_BLE_SDK/GD32VW55x_RELEASE_V1.0.2/MSDK/ble/app\app_cmd.c **** 
 2926              		.loc 1 412 5 is_stmt 1
 412:C:/Users/stapi/OneDrive/Desktop/GD32VW553/GD32VW55X_Wifi_BLE_SDK/GD32VW55x_RELEASE_V1.0.2/MSDK/ble/app\app_cmd.c **** 
 2927              		.loc 1 412 20 is_stmt 0
 2928 003e C843     		lw	a0,4(a5)
 2929              	.LVL387:
 2930 0040 2946     		li	a2,10
 2931 0042 6C00     		addi	a1,sp,12
 2932              	.LVL388:
 2933 0044 97000000 		call	strtoul
 2933      E7800000 
 2934              	.LVL389:
 414:C:/Users/stapi/OneDrive/Desktop/GD32VW553/GD32VW55X_Wifi_BLE_SDK/GD32VW55x_RELEASE_V1.0.2/MSDK/ble/app\app_cmd.c ****     if (ret != BLE_ERR_NO_ERROR) {
 2935              		.loc 1 414 5 is_stmt 1
 414:C:/Users/stapi/OneDrive/Desktop/GD32VW553/GD32VW55X_Wifi_BLE_SDK/GD32VW55x_RELEASE_V1.0.2/MSDK/ble/app\app_cmd.c ****     if (ret != BLE_ERR_NO_ERROR) {
 2936              		.loc 1 414 11 is_stmt 0
 2937 004c CD45     		li	a1,19
 2938 004e 1375F50F 		andi	a0,a0,0xff
 2939 0052 97000000 		call	ble_conn_disconnect
 2939      E7800000 
 2940              	.LVL390:
 2941 005a AA85     		mv	a1,a0
 2942              	.LVL391:
 415:C:/Users/stapi/OneDrive/Desktop/GD32VW553/GD32VW55X_Wifi_BLE_SDK/GD32VW55x_RELEASE_V1.0.2/MSDK/ble/app\app_cmd.c ****         app_print("disconnect connection fail status 0x%x\r\n", ret);
 2943              		.loc 1 415 5 is_stmt 1
 415:C:/Users/stapi/OneDrive/Desktop/GD32VW553/GD32VW55X_Wifi_BLE_SDK/GD32VW55x_RELEASE_V1.0.2/MSDK/ble/app\app_cmd.c ****         app_print("disconnect connection fail status 0x%x\r\n", ret);
 2944              		.loc 1 415 8 is_stmt 0
 2945 005c 79D9     		beq	a0,zero,.L195
 416:C:/Users/stapi/OneDrive/Desktop/GD32VW553/GD32VW55X_Wifi_BLE_SDK/GD32VW55x_RELEASE_V1.0.2/MSDK/ble/app\app_cmd.c ****     }
 2946              		.loc 1 416 9 is_stmt 1
 2947 005e 37050000 		lui	a0,%hi(.LC99)
 2948              	.LVL392:
 2949 0062 13050500 		addi	a0,a0,%lo(.LC99)
 2950 0066 97000000 		call	co_printf
 2950      E7800000 
 2951              	.LVL393:
 419:C:/Users/stapi/OneDrive/Desktop/GD32VW553/GD32VW55X_Wifi_BLE_SDK/GD32VW55x_RELEASE_V1.0.2/MSDK/ble/app\app_cmd.c **** 
 2952              		.loc 1 419 5
 2953 006e D1B7     		j	.L195
 2954              		.cfi_endproc
 2955              	.LFE30:
 2957              		.section	.rodata.cmd_sync_terminate.str1.4,"aMS",@progbits,1
 2958              		.align	2
 2959              	.LC100:
 2960 0000 55736167 		.string	"Usage: ble_sync_terminate <sync idx>\r\n"
 2960      653A2062 
 2960      6C655F73 
 2960      796E635F 
 2960      7465726D 
 2961              		.section	.text.cmd_sync_terminate,"ax",@progbits
 2962              		.align	1
 2964              	cmd_sync_terminate:
 2965              	.LFB26:
 308:C:/Users/stapi/OneDrive/Desktop/GD32VW553/GD32VW55X_Wifi_BLE_SDK/GD32VW55x_RELEASE_V1.0.2/MSDK/ble/app\app_cmd.c ****     char *endptr = NULL;
 2966              		.loc 1 308 1
 2967              		.cfi_startproc
 2968              	.LVL394:
 2969 0000 17030000 		call	t0,__riscv_save_0
 2969      E7020300 
 2970              		.cfi_offset 1, -4
 2971              		.cfi_def_cfa_offset 16
 309:C:/Users/stapi/OneDrive/Desktop/GD32VW553/GD32VW55X_Wifi_BLE_SDK/GD32VW55x_RELEASE_V1.0.2/MSDK/ble/app\app_cmd.c ****     uint8_t sync_actv_idx;
 2972              		.loc 1 309 5
 308:C:/Users/stapi/OneDrive/Desktop/GD32VW553/GD32VW55X_Wifi_BLE_SDK/GD32VW55x_RELEASE_V1.0.2/MSDK/ble/app\app_cmd.c ****     char *endptr = NULL;
 2973              		.loc 1 308 1 is_stmt 0
 2974 0008 4111     		addi	sp,sp,-16
 2975              		.cfi_def_cfa_offset 32
 309:C:/Users/stapi/OneDrive/Desktop/GD32VW553/GD32VW55X_Wifi_BLE_SDK/GD32VW55x_RELEASE_V1.0.2/MSDK/ble/app\app_cmd.c ****     uint8_t sync_actv_idx;
 2976              		.loc 1 309 11
 2977 000a 02C6     		sw	zero,12(sp)
 310:C:/Users/stapi/OneDrive/Desktop/GD32VW553/GD32VW55X_Wifi_BLE_SDK/GD32VW55x_RELEASE_V1.0.2/MSDK/ble/app\app_cmd.c **** 
 2978              		.loc 1 310 5 is_stmt 1
 312:C:/Users/stapi/OneDrive/Desktop/GD32VW553/GD32VW55X_Wifi_BLE_SDK/GD32VW55x_RELEASE_V1.0.2/MSDK/ble/app\app_cmd.c ****         goto usage;
 2979              		.loc 1 312 5
 312:C:/Users/stapi/OneDrive/Desktop/GD32VW553/GD32VW55X_Wifi_BLE_SDK/GD32VW55x_RELEASE_V1.0.2/MSDK/ble/app\app_cmd.c ****         goto usage;
 2980              		.loc 1 312 8 is_stmt 0
 2981 000c 0947     		li	a4,2
 2982 000e 6307E502 		beq	a0,a4,.L204
 2983              	.LVL395:
 2984              	.LBB36:
 2985              	.LBB37:
 313:C:/Users/stapi/OneDrive/Desktop/GD32VW553/GD32VW55X_Wifi_BLE_SDK/GD32VW55x_RELEASE_V1.0.2/MSDK/ble/app\app_cmd.c ****     }
 2986              		.loc 1 313 9 is_stmt 1
 2987              	.LDL22:
 322:C:/Users/stapi/OneDrive/Desktop/GD32VW553/GD32VW55X_Wifi_BLE_SDK/GD32VW55x_RELEASE_V1.0.2/MSDK/ble/app\app_cmd.c ****     app_print("<sync idx>: periodic advertising sync index\r\n");
 2988              		.loc 1 322 5
 2989 0012 37050000 		lui	a0,%hi(.LC100)
 2990              	.LVL396:
 2991 0016 13050500 		addi	a0,a0,%lo(.LC100)
 2992 001a 97000000 		call	co_printf
 2992      E7800000 
 2993              	.LVL397:
 323:C:/Users/stapi/OneDrive/Desktop/GD32VW553/GD32VW55X_Wifi_BLE_SDK/GD32VW55x_RELEASE_V1.0.2/MSDK/ble/app\app_cmd.c **** }
 2994              		.loc 1 323 5
 2995 0022 37050000 		lui	a0,%hi(.LC53)
 2996 0026 13050500 		addi	a0,a0,%lo(.LC53)
 2997 002a 97000000 		call	co_printf
 2997      E7800000 
 2998              	.LVL398:
 2999              	.L203:
 3000              	.LBE37:
 3001              	.LBE36:
 324:C:/Users/stapi/OneDrive/Desktop/GD32VW553/GD32VW55X_Wifi_BLE_SDK/GD32VW55x_RELEASE_V1.0.2/MSDK/ble/app\app_cmd.c **** 
 3002              		.loc 1 324 1 is_stmt 0
 3003 0032 4101     		addi	sp,sp,16
 3004              		.cfi_remember_state
 3005              		.cfi_def_cfa_offset 0
 3006 0034 17030000 		tail	__riscv_restore_0
 3006      67000300 
 3007              		.cfi_restore 1
 3008              		.cfi_def_cfa_offset -16
 3009              	.LVL399:
 3010              	.L204:
 3011              		.cfi_restore_state
 3012 003c AE87     		mv	a5,a1
 316:C:/Users/stapi/OneDrive/Desktop/GD32VW553/GD32VW55X_Wifi_BLE_SDK/GD32VW55x_RELEASE_V1.0.2/MSDK/ble/app\app_cmd.c ****     app_per_sync_terminate(sync_actv_idx);
 3013              		.loc 1 316 5 is_stmt 1
 316:C:/Users/stapi/OneDrive/Desktop/GD32VW553/GD32VW55X_Wifi_BLE_SDK/GD32VW55x_RELEASE_V1.0.2/MSDK/ble/app\app_cmd.c ****     app_per_sync_terminate(sync_actv_idx);
 3014              		.loc 1 316 30 is_stmt 0
 3015 003e C843     		lw	a0,4(a5)
 3016              	.LVL400:
 3017 0040 2946     		li	a2,10
 3018 0042 6C00     		addi	a1,sp,12
 3019              	.LVL401:
 3020 0044 97000000 		call	strtoul
 3020      E7800000 
 3021              	.LVL402:
 317:C:/Users/stapi/OneDrive/Desktop/GD32VW553/GD32VW55X_Wifi_BLE_SDK/GD32VW55x_RELEASE_V1.0.2/MSDK/ble/app\app_cmd.c **** 
 3022              		.loc 1 317 5 is_stmt 1
 3023 004c 1375F50F 		andi	a0,a0,0xff
 3024 0050 97000000 		call	app_per_sync_terminate
 3024      E7800000 
 3025              	.LVL403:
 319:C:/Users/stapi/OneDrive/Desktop/GD32VW553/GD32VW55X_Wifi_BLE_SDK/GD32VW55x_RELEASE_V1.0.2/MSDK/ble/app\app_cmd.c **** 
 3026              		.loc 1 319 5
 3027 0058 E9BF     		j	.L203
 3028              		.cfi_endproc
 3029              	.LFE26:
 3031              		.section	.rodata.cmd_advertise_restart.str1.4,"aMS",@progbits,1
 3032              		.align	2
 3033              	.LC101:
 3034 0000 55736167 		.string	"Usage: ble_adv_restart <adv idx>\r\n"
 3034      653A2062 
 3034      6C655F61 
 3034      64765F72 
 3034      65737461 
 3035 0023 00       		.align	2
 3036              	.LC102:
 3037 0024 3C616476 		.string	"<adv idx>: advertising index to restart\r\n"
 3037      20696478 
 3037      3E3A2061 
 3037      64766572 
 3037      74697369 
 3038 004e 0000     		.align	2
 3039              	.LC103:
 3040 0050 72657374 		.string	"restart adv fail 0x%x\r\n"
 3040      61727420 
 3040      61647620 
 3040      6661696C 
 3040      20307825 
 3041              		.section	.text.cmd_advertise_restart,"ax",@progbits
 3042              		.align	1
 3044              	cmd_advertise_restart:
 3045              	.LFB20:
 215:C:/Users/stapi/OneDrive/Desktop/GD32VW553/GD32VW55X_Wifi_BLE_SDK/GD32VW55x_RELEASE_V1.0.2/MSDK/ble/app\app_cmd.c ****     char *endptr = NULL;
 3046              		.loc 1 215 1
 3047              		.cfi_startproc
 3048              	.LVL404:
 3049 0000 17030000 		call	t0,__riscv_save_0
 3049      E7020300 
 3050              		.cfi_offset 1, -4
 3051              		.cfi_def_cfa_offset 16
 216:C:/Users/stapi/OneDrive/Desktop/GD32VW553/GD32VW55X_Wifi_BLE_SDK/GD32VW55x_RELEASE_V1.0.2/MSDK/ble/app\app_cmd.c ****     uint8_t idx = 0;
 3052              		.loc 1 216 5
 215:C:/Users/stapi/OneDrive/Desktop/GD32VW553/GD32VW55X_Wifi_BLE_SDK/GD32VW55x_RELEASE_V1.0.2/MSDK/ble/app\app_cmd.c ****     char *endptr = NULL;
 3053              		.loc 1 215 1 is_stmt 0
 3054 0008 4111     		addi	sp,sp,-16
 3055              		.cfi_def_cfa_offset 32
 216:C:/Users/stapi/OneDrive/Desktop/GD32VW553/GD32VW55X_Wifi_BLE_SDK/GD32VW55x_RELEASE_V1.0.2/MSDK/ble/app\app_cmd.c ****     uint8_t idx = 0;
 3056              		.loc 1 216 11
 3057 000a 02C6     		sw	zero,12(sp)
 217:C:/Users/stapi/OneDrive/Desktop/GD32VW553/GD32VW55X_Wifi_BLE_SDK/GD32VW55x_RELEASE_V1.0.2/MSDK/ble/app\app_cmd.c ****     ble_status_t ret;
 3058              		.loc 1 217 5 is_stmt 1
 3059              	.LVL405:
 218:C:/Users/stapi/OneDrive/Desktop/GD32VW553/GD32VW55X_Wifi_BLE_SDK/GD32VW55x_RELEASE_V1.0.2/MSDK/ble/app\app_cmd.c **** 
 3060              		.loc 1 218 5
 220:C:/Users/stapi/OneDrive/Desktop/GD32VW553/GD32VW55X_Wifi_BLE_SDK/GD32VW55x_RELEASE_V1.0.2/MSDK/ble/app\app_cmd.c ****         goto usage;
 3061              		.loc 1 220 5
 220:C:/Users/stapi/OneDrive/Desktop/GD32VW553/GD32VW55X_Wifi_BLE_SDK/GD32VW55x_RELEASE_V1.0.2/MSDK/ble/app\app_cmd.c ****         goto usage;
 3062              		.loc 1 220 8 is_stmt 0
 3063 000c 0547     		li	a4,1
 3064 000e 6317E502 		bne	a0,a4,.L208
 3065              	.LVL406:
 3066              	.LBB40:
 3067              	.LBB41:
 221:C:/Users/stapi/OneDrive/Desktop/GD32VW553/GD32VW55X_Wifi_BLE_SDK/GD32VW55x_RELEASE_V1.0.2/MSDK/ble/app\app_cmd.c ****     }
 3068              		.loc 1 221 9 is_stmt 1
 3069              	.LDL23:
 234:C:/Users/stapi/OneDrive/Desktop/GD32VW553/GD32VW55X_Wifi_BLE_SDK/GD32VW55x_RELEASE_V1.0.2/MSDK/ble/app\app_cmd.c ****     app_print("<adv idx>: advertising index to restart\r\n");
 3070              		.loc 1 234 5
 3071 0012 37050000 		lui	a0,%hi(.LC101)
 3072              	.LVL407:
 3073 0016 13050500 		addi	a0,a0,%lo(.LC101)
 3074 001a 97000000 		call	co_printf
 3074      E7800000 
 3075              	.LVL408:
 235:C:/Users/stapi/OneDrive/Desktop/GD32VW553/GD32VW55X_Wifi_BLE_SDK/GD32VW55x_RELEASE_V1.0.2/MSDK/ble/app\app_cmd.c **** }
 3076              		.loc 1 235 5
 3077 0022 37050000 		lui	a0,%hi(.LC102)
 3078 0026 13050500 		addi	a0,a0,%lo(.LC102)
 3079 002a 97000000 		call	co_printf
 3079      E7800000 
 3080              	.LVL409:
 3081              	.L207:
 3082              	.LBE41:
 3083              	.LBE40:
 236:C:/Users/stapi/OneDrive/Desktop/GD32VW553/GD32VW55X_Wifi_BLE_SDK/GD32VW55x_RELEASE_V1.0.2/MSDK/ble/app\app_cmd.c **** #endif
 3084              		.loc 1 236 1 is_stmt 0
 3085 0032 4101     		addi	sp,sp,16
 3086              		.cfi_remember_state
 3087              		.cfi_def_cfa_offset 0
 3088 0034 17030000 		tail	__riscv_restore_0
 3088      67000300 
 3089              		.cfi_restore 1
 3090              		.cfi_def_cfa_offset -16
 3091              	.LVL410:
 3092              	.L208:
 3093              		.cfi_restore_state
 3094 003c AE87     		mv	a5,a1
 224:C:/Users/stapi/OneDrive/Desktop/GD32VW553/GD32VW55X_Wifi_BLE_SDK/GD32VW55x_RELEASE_V1.0.2/MSDK/ble/app\app_cmd.c **** 
 3095              		.loc 1 224 5 is_stmt 1
 224:C:/Users/stapi/OneDrive/Desktop/GD32VW553/GD32VW55X_Wifi_BLE_SDK/GD32VW55x_RELEASE_V1.0.2/MSDK/ble/app\app_cmd.c **** 
 3096              		.loc 1 224 20 is_stmt 0
 3097 003e C843     		lw	a0,4(a5)
 3098              	.LVL411:
 3099 0040 6C00     		addi	a1,sp,12
 3100              	.LVL412:
 3101 0042 4146     		li	a2,16
 3102 0044 97000000 		call	strtoul
 3102      E7800000 
 3103              	.LVL413:
 226:C:/Users/stapi/OneDrive/Desktop/GD32VW553/GD32VW55X_Wifi_BLE_SDK/GD32VW55x_RELEASE_V1.0.2/MSDK/ble/app\app_cmd.c ****     if (ret != BLE_ERR_NO_ERROR) {
 3104              		.loc 1 226 5 is_stmt 1
 226:C:/Users/stapi/OneDrive/Desktop/GD32VW553/GD32VW55X_Wifi_BLE_SDK/GD32VW55x_RELEASE_V1.0.2/MSDK/ble/app\app_cmd.c ****     if (ret != BLE_ERR_NO_ERROR) {
 3105              		.loc 1 226 11 is_stmt 0
 3106 004c 1375F50F 		andi	a0,a0,0xff
 3107 0050 97000000 		call	app_adv_restart
 3107      E7800000 
 3108              	.LVL414:
 3109 0058 AA85     		mv	a1,a0
 3110              	.LVL415:
 227:C:/Users/stapi/OneDrive/Desktop/GD32VW553/GD32VW55X_Wifi_BLE_SDK/GD32VW55x_RELEASE_V1.0.2/MSDK/ble/app\app_cmd.c ****         app_print("restart adv fail 0x%x\r\n", ret);
 3111              		.loc 1 227 5 is_stmt 1
 227:C:/Users/stapi/OneDrive/Desktop/GD32VW553/GD32VW55X_Wifi_BLE_SDK/GD32VW55x_RELEASE_V1.0.2/MSDK/ble/app\app_cmd.c ****         app_print("restart adv fail 0x%x\r\n", ret);
 3112              		.loc 1 227 8 is_stmt 0
 3113 005a 61DD     		beq	a0,zero,.L207
 228:C:/Users/stapi/OneDrive/Desktop/GD32VW553/GD32VW55X_Wifi_BLE_SDK/GD32VW55x_RELEASE_V1.0.2/MSDK/ble/app\app_cmd.c ****     }
 3114              		.loc 1 228 9 is_stmt 1
 3115 005c 37050000 		lui	a0,%hi(.LC103)
 3116              	.LVL416:
 3117 0060 13050500 		addi	a0,a0,%lo(.LC103)
 3118 0064 97000000 		call	co_printf
 3118      E7800000 
 3119              	.LVL417:
 231:C:/Users/stapi/OneDrive/Desktop/GD32VW553/GD32VW55X_Wifi_BLE_SDK/GD32VW55x_RELEASE_V1.0.2/MSDK/ble/app\app_cmd.c **** 
 3120              		.loc 1 231 5
 3121 006c D9B7     		j	.L207
 3122              		.cfi_endproc
 3123              	.LFE20:
 3125              		.section	.rodata.ble_base_cmd_help.str1.4,"aMS",@progbits,1
 3126              		.align	2
 3127              	.LC104:
 3128 0000 0A0D2020 		.string	"\n\r    %s"
 3128      20202573 
 3128      00
 3129              		.section	.text.ble_base_cmd_help,"ax",@progbits
 3130              		.align	1
 3131              		.globl	ble_base_cmd_help
 3133              	ble_base_cmd_help:
 3134              	.LFB46:
1026:C:/Users/stapi/OneDrive/Desktop/GD32VW553/GD32VW55X_Wifi_BLE_SDK/GD32VW55x_RELEASE_V1.0.2/MSDK/ble/app\app_cmd.c ****     int i;
 3135              		.loc 1 1026 1
 3136              		.cfi_startproc
 3137 0000 17030000 		call	t0,__riscv_save_3
 3137      E7020300 
 3138              		.cfi_offset 18, -16
 3139              		.cfi_offset 9, -12
 3140              		.cfi_offset 8, -8
 3141              		.cfi_offset 1, -4
 3142              		.cfi_def_cfa_offset 16
1027:C:/Users/stapi/OneDrive/Desktop/GD32VW553/GD32VW55X_Wifi_BLE_SDK/GD32VW55x_RELEASE_V1.0.2/MSDK/ble/app\app_cmd.c **** 
 3143              		.loc 1 1027 5
1030:C:/Users/stapi/OneDrive/Desktop/GD32VW553/GD32VW55X_Wifi_BLE_SDK/GD32VW55x_RELEASE_V1.0.2/MSDK/ble/app\app_cmd.c ****         if (ble_cmd_table[i].function) {
 3144              		.loc 1 1030 5
 3145              	.LVL418:
1030:C:/Users/stapi/OneDrive/Desktop/GD32VW553/GD32VW55X_Wifi_BLE_SDK/GD32VW55x_RELEASE_V1.0.2/MSDK/ble/app\app_cmd.c ****         if (ble_cmd_table[i].function) {
 3146              		.loc 1 1030 17
 3147 0008 37040000 		lui	s0,%hi(.LANCHOR0)
 3148 000c 13040400 		addi	s0,s0,%lo(.LANCHOR0)
 3149 0010 93048410 		addi	s1,s0,264
1032:C:/Users/stapi/OneDrive/Desktop/GD32VW553/GD32VW55X_Wifi_BLE_SDK/GD32VW55x_RELEASE_V1.0.2/MSDK/ble/app\app_cmd.c ****         }
 3150              		.loc 1 1032 13 is_stmt 0
 3151 0014 37090000 		lui	s2,%hi(.LC104)
 3152              	.LVL419:
 3153              	.L217:
1031:C:/Users/stapi/OneDrive/Desktop/GD32VW553/GD32VW55X_Wifi_BLE_SDK/GD32VW55x_RELEASE_V1.0.2/MSDK/ble/app\app_cmd.c ****             app_print("\n\r    %s", ble_cmd_table[i].command);
 3154              		.loc 1 1031 9 is_stmt 1
1031:C:/Users/stapi/OneDrive/Desktop/GD32VW553/GD32VW55X_Wifi_BLE_SDK/GD32VW55x_RELEASE_V1.0.2/MSDK/ble/app\app_cmd.c ****             app_print("\n\r    %s", ble_cmd_table[i].command);
 3155              		.loc 1 1031 12 is_stmt 0
 3156 0018 5C44     		lw	a5,12(s0)
 3157 001a 81CB     		beq	a5,zero,.L216
1032:C:/Users/stapi/OneDrive/Desktop/GD32VW553/GD32VW55X_Wifi_BLE_SDK/GD32VW55x_RELEASE_V1.0.2/MSDK/ble/app\app_cmd.c ****         }
 3158              		.loc 1 1032 13 is_stmt 1
 3159 001c 0C44     		lw	a1,8(s0)
 3160 001e 13050900 		addi	a0,s2,%lo(.LC104)
 3161 0022 97000000 		call	co_printf
 3161      E7800000 
 3162              	.LVL420:
 3163              	.L216:
1030:C:/Users/stapi/OneDrive/Desktop/GD32VW553/GD32VW55X_Wifi_BLE_SDK/GD32VW55x_RELEASE_V1.0.2/MSDK/ble/app\app_cmd.c ****         if (ble_cmd_table[i].function) {
 3164              		.loc 1 1030 41 discriminator 2
1030:C:/Users/stapi/OneDrive/Desktop/GD32VW553/GD32VW55X_Wifi_BLE_SDK/GD32VW55x_RELEASE_V1.0.2/MSDK/ble/app\app_cmd.c ****         if (ble_cmd_table[i].function) {
 3165              		.loc 1 1030 17 discriminator 2
1030:C:/Users/stapi/OneDrive/Desktop/GD32VW553/GD32VW55X_Wifi_BLE_SDK/GD32VW55x_RELEASE_V1.0.2/MSDK/ble/app\app_cmd.c ****         if (ble_cmd_table[i].function) {
 3166              		.loc 1 1030 5 is_stmt 0 discriminator 2
 3167 002a 2104     		addi	s0,s0,8
 3168 002c E31694FE 		bne	s0,s1,.L217
1035:C:/Users/stapi/OneDrive/Desktop/GD32VW553/GD32VW55X_Wifi_BLE_SDK/GD32VW55x_RELEASE_V1.0.2/MSDK/ble/app\app_cmd.c **** #endif
 3169              		.loc 1 1035 1
 3170 0030 17030000 		tail	__riscv_restore_3
 3170      67000300 
 3171              		.cfi_restore 18
 3172              		.cfi_restore 9
 3173              		.cfi_restore 8
 3174              		.cfi_restore 1
 3175              		.cfi_def_cfa_offset 0
 3176              		.cfi_endproc
 3177              	.LFE46:
 3179              		.section	.rodata.cmd_ble_help.str1.4,"aMS",@progbits,1
 3180              		.align	2
 3181              	.LC105:
 3182 0000 424C4520 		.string	"BLE COMMAND LIST:"
 3182      434F4D4D 
 3182      414E4420 
 3182      4C495354 
 3182      3A00
 3183 0012 0000     		.align	2
 3184              	.LC106:
 3185 0014 0A0D3D3D 		.string	"\n\r=============================="
 3185      3D3D3D3D 
 3185      3D3D3D3D 
 3185      3D3D3D3D 
 3185      3D3D3D3D 
 3186 0035 000000   		.align	2
 3187              	.LC107:
 3188 0038 0D0A00   		.string	"\r\n"
 3189              		.section	.text.cmd_ble_help,"ax",@progbits
 3190              		.align	1
 3192              	cmd_ble_help:
 3193              	.LFB47:
1039:C:/Users/stapi/OneDrive/Desktop/GD32VW553/GD32VW55X_Wifi_BLE_SDK/GD32VW55x_RELEASE_V1.0.2/MSDK/ble/app\app_cmd.c ****     app_print("BLE COMMAND LIST:");
 3194              		.loc 1 1039 1 is_stmt 1
 3195              		.cfi_startproc
 3196              	.LVL421:
 3197 0000 17030000 		call	t0,__riscv_save_0
 3197      E7020300 
 3198              		.cfi_offset 1, -4
 3199              		.cfi_def_cfa_offset 16
1040:C:/Users/stapi/OneDrive/Desktop/GD32VW553/GD32VW55X_Wifi_BLE_SDK/GD32VW55x_RELEASE_V1.0.2/MSDK/ble/app\app_cmd.c ****     app_print("\n\r==============================");
 3200              		.loc 1 1040 5
 3201 0008 37050000 		lui	a0,%hi(.LC105)
 3202              	.LVL422:
 3203 000c 13050500 		addi	a0,a0,%lo(.LC105)
 3204 0010 97000000 		call	co_printf
 3204      E7800000 
 3205              	.LVL423:
1041:C:/Users/stapi/OneDrive/Desktop/GD32VW553/GD32VW55X_Wifi_BLE_SDK/GD32VW55x_RELEASE_V1.0.2/MSDK/ble/app\app_cmd.c **** 
 3206              		.loc 1 1041 5
 3207 0018 37050000 		lui	a0,%hi(.LC106)
 3208 001c 13050500 		addi	a0,a0,%lo(.LC106)
 3209 0020 97000000 		call	co_printf
 3209      E7800000 
 3210              	.LVL424:
1044:C:/Users/stapi/OneDrive/Desktop/GD32VW553/GD32VW55X_Wifi_BLE_SDK/GD32VW55x_RELEASE_V1.0.2/MSDK/ble/app\app_cmd.c **** #endif
 3211              		.loc 1 1044 5
 3212 0028 97000000 		call	ble_base_cmd_help
 3212      E7800000 
 3213              	.LVL425:
1055:C:/Users/stapi/OneDrive/Desktop/GD32VW553/GD32VW55X_Wifi_BLE_SDK/GD32VW55x_RELEASE_V1.0.2/MSDK/ble/app\app_cmd.c **** 
 3214              		.loc 1 1055 5
 3215 0030 37050000 		lui	a0,%hi(.LC107)
 3216 0034 13050500 		addi	a0,a0,%lo(.LC107)
 3217 0038 97000000 		call	co_printf
 3217      E7800000 
 3218              	.LVL426:
1057:C:/Users/stapi/OneDrive/Desktop/GD32VW553/GD32VW55X_Wifi_BLE_SDK/GD32VW55x_RELEASE_V1.0.2/MSDK/ble/app\app_cmd.c **** }
 3219              		.loc 1 1057 5
1058:C:/Users/stapi/OneDrive/Desktop/GD32VW553/GD32VW55X_Wifi_BLE_SDK/GD32VW55x_RELEASE_V1.0.2/MSDK/ble/app\app_cmd.c **** 
 3220              		.loc 1 1058 1 is_stmt 0
 3221 0040 17030000 		tail	__riscv_restore_0
 3221      67000300 
 3222              		.cfi_restore 1
 3223              		.cfi_def_cfa_offset 0
 3224              		.cfi_endproc
 3225              	.LFE47:
 3227              		.section	.rodata.ble_cli_init.str1.4,"aMS",@progbits,1
 3228              		.align	2
 3229              	.LC108:
 3230 0000 626C655F 		.string	"ble_"
 3230      00
 3231              		.section	.text.ble_cli_init,"ax",@progbits
 3232              		.align	1
 3233              		.globl	ble_cli_init
 3235              	ble_cli_init:
 3236              	.LFB50:
1106:C:/Users/stapi/OneDrive/Desktop/GD32VW553/GD32VW55X_Wifi_BLE_SDK/GD32VW55x_RELEASE_V1.0.2/MSDK/ble/app\app_cmd.c **** 
1107:C:/Users/stapi/OneDrive/Desktop/GD32VW553/GD32VW55X_Wifi_BLE_SDK/GD32VW55x_RELEASE_V1.0.2/MSDK/ble/app\app_cmd.c **** /*!
1108:C:/Users/stapi/OneDrive/Desktop/GD32VW553/GD32VW55X_Wifi_BLE_SDK/GD32VW55x_RELEASE_V1.0.2/MSDK/ble/app\app_cmd.c ****     \brief      Init BLE CLI module
1109:C:/Users/stapi/OneDrive/Desktop/GD32VW553/GD32VW55X_Wifi_BLE_SDK/GD32VW55x_RELEASE_V1.0.2/MSDK/ble/app\app_cmd.c ****     \param[in]  none
1110:C:/Users/stapi/OneDrive/Desktop/GD32VW553/GD32VW55X_Wifi_BLE_SDK/GD32VW55x_RELEASE_V1.0.2/MSDK/ble/app\app_cmd.c ****     \param[out] none
1111:C:/Users/stapi/OneDrive/Desktop/GD32VW553/GD32VW55X_Wifi_BLE_SDK/GD32VW55x_RELEASE_V1.0.2/MSDK/ble/app\app_cmd.c ****     \retval     none
1112:C:/Users/stapi/OneDrive/Desktop/GD32VW553/GD32VW55X_Wifi_BLE_SDK/GD32VW55x_RELEASE_V1.0.2/MSDK/ble/app\app_cmd.c **** */
1113:C:/Users/stapi/OneDrive/Desktop/GD32VW553/GD32VW55X_Wifi_BLE_SDK/GD32VW55x_RELEASE_V1.0.2/MSDK/ble/app\app_cmd.c **** void ble_cli_init(void)
1114:C:/Users/stapi/OneDrive/Desktop/GD32VW553/GD32VW55X_Wifi_BLE_SDK/GD32VW55x_RELEASE_V1.0.2/MSDK/ble/app\app_cmd.c **** {
 3237              		.loc 1 1114 1 is_stmt 1
 3238              		.cfi_startproc
1115:C:/Users/stapi/OneDrive/Desktop/GD32VW553/GD32VW55X_Wifi_BLE_SDK/GD32VW55x_RELEASE_V1.0.2/MSDK/ble/app\app_cmd.c ****     cmd_module_reg(CMD_MODULE_BLE, "ble_", cmd_ble_get_handle_cb, cmd_ble_help_cb, NULL);
 3239              		.loc 1 1115 5
 3240 0000 B7060000 		lui	a3,%hi(cmd_ble_help_cb)
 3241 0004 37060000 		lui	a2,%hi(cmd_ble_get_handle_cb)
 3242 0008 B7050000 		lui	a1,%hi(.LC108)
 3243 000c 0147     		li	a4,0
 3244 000e 93860600 		addi	a3,a3,%lo(cmd_ble_help_cb)
 3245 0012 13060600 		addi	a2,a2,%lo(cmd_ble_get_handle_cb)
 3246 0016 93850500 		addi	a1,a1,%lo(.LC108)
 3247 001a 0545     		li	a0,1
 3248 001c 17030000 		tail	cmd_module_reg
 3248      67000300 
 3249              	.LVL427:
 3250              		.cfi_endproc
 3251              	.LFE50:
 3253              		.globl	ble_cmd_table_size
 3254              		.globl	ble_cmd_table
 3255              		.section	.rodata.str1.4,"aMS",@progbits,1
 3256              		.align	2
 3257              	.LC109:
 3258 0000 626C655F 		.string	"ble_help"
 3258      68656C70 
 3258      00
 3259 0009 000000   		.align	2
 3260              	.LC110:
 3261 000c 626C655F 		.string	"ble_disable"
 3261      64697361 
 3261      626C6500 
 3262              		.align	2
 3263              	.LC111:
 3264 0018 626C655F 		.string	"ble_ps"
 3264      707300
 3265 001f 00       		.align	2
 3266              	.LC112:
 3267 0020 626C655F 		.string	"ble_adv"
 3267      61647600 
 3268              		.align	2
 3269              	.LC113:
 3270 0028 626C655F 		.string	"ble_adv_stop"
 3270      6164765F 
 3270      73746F70 
 3270      00
 3271 0035 000000   		.align	2
 3272              	.LC114:
 3273 0038 626C655F 		.string	"ble_adv_restart"
 3273      6164765F 
 3273      72657374 
 3273      61727400 
 3274              		.align	2
 3275              	.LC115:
 3276 0048 626C655F 		.string	"ble_scan"
 3276      7363616E 
 3276      00
 3277 0051 000000   		.align	2
 3278              	.LC116:
 3279 0054 626C655F 		.string	"ble_scan_stop"
 3279      7363616E 
 3279      5F73746F 
 3279      7000
 3280 0062 0000     		.align	2
 3281              	.LC117:
 3282 0064 626C655F 		.string	"ble_list_scan_devs"
 3282      6C697374 
 3282      5F736361 
 3282      6E5F6465 
 3282      767300
 3283 0077 00       		.align	2
 3284              	.LC118:
 3285 0078 626C655F 		.string	"ble_sync"
 3285      73796E63 
 3285      00
 3286 0081 000000   		.align	2
 3287              	.LC119:
 3288 0084 626C655F 		.string	"ble_sync_cancel"
 3288      73796E63 
 3288      5F63616E 
 3288      63656C00 
 3289              		.align	2
 3290              	.LC120:
 3291 0094 626C655F 		.string	"ble_sync_terminate"
 3291      73796E63 
 3291      5F746572 
 3291      6D696E61 
 3291      746500
 3292 00a7 00       		.align	2
 3293              	.LC121:
 3294 00a8 626C655F 		.string	"ble_sync_ctrl"
 3294      73796E63 
 3294      5F637472 
 3294      6C00
 3295 00b6 0000     		.align	2
 3296              	.LC122:
 3297 00b8 626C655F 		.string	"ble_conn"
 3297      636F6E6E 
 3297      00
 3298 00c1 000000   		.align	2
 3299              	.LC123:
 3300 00c4 626C655F 		.string	"ble_cancel_conn"
 3300      63616E63 
 3300      656C5F63 
 3300      6F6E6E00 
 3301              		.align	2
 3302              	.LC124:
 3303 00d4 626C655F 		.string	"ble_disconn"
 3303      64697363 
 3303      6F6E6E00 
 3304              		.align	2
 3305              	.LC125:
 3306 00e0 626C655F 		.string	"ble_remove_bond"
 3306      72656D6F 
 3306      76655F62 
 3306      6F6E6400 
 3307              		.align	2
 3308              	.LC126:
 3309 00f0 626C655F 		.string	"ble_list_sec_devs"
 3309      6C697374 
 3309      5F736563 
 3309      5F646576 
 3309      7300
 3310 0102 0000     		.align	2
 3311              	.LC127:
 3312 0104 626C655F 		.string	"ble_set_auth"
 3312      7365745F 
 3312      61757468 
 3312      00
 3313 0111 000000   		.align	2
 3314              	.LC128:
 3315 0114 626C655F 		.string	"ble_pair"
 3315      70616972 
 3315      00
 3316 011d 000000   		.align	2
 3317              	.LC129:
 3318 0120 626C655F 		.string	"ble_encrypt"
 3318      656E6372 
 3318      79707400 
 3319              		.align	2
 3320              	.LC130:
 3321 012c 626C655F 		.string	"ble_passkey"
 3321      70617373 
 3321      6B657900 
 3322              		.align	2
 3323              	.LC131:
 3324 0138 626C655F 		.string	"ble_compare"
 3324      636F6D70 
 3324      61726500 
 3325              		.align	2
 3326              	.LC132:
 3327 0144 626C655F 		.string	"ble_peer_feat"
 3327      70656572 
 3327      5F666561 
 3327      7400
 3328 0152 0000     		.align	2
 3329              	.LC133:
 3330 0154 626C655F 		.string	"ble_peer_ver"
 3330      70656572 
 3330      5F766572 
 3330      00
 3331 0161 000000   		.align	2
 3332              	.LC134:
 3333 0164 626C655F 		.string	"ble_param_update"
 3333      70617261 
 3333      6D5F7570 
 3333      64617465 
 3333      00
 3334 0175 000000   		.align	2
 3335              	.LC135:
 3336 0178 626C655F 		.string	"ble_get_rssi"
 3336      6765745F 
 3336      72737369 
 3336      00
 3337 0185 000000   		.align	2
 3338              	.LC136:
 3339 0188 626C655F 		.string	"ble_set_dev_name"
 3339      7365745F 
 3339      6465765F 
 3339      6E616D65 
 3339      00
 3340 0199 000000   		.align	2
 3341              	.LC137:
 3342 019c 626C655F 		.string	"ble_set_phy"
 3342      7365745F 
 3342      70687900 
 3343              		.align	2
 3344              	.LC138:
 3345 01a8 626C655F 		.string	"ble_get_phy"
 3345      6765745F 
 3345      70687900 
 3346              		.align	2
 3347              	.LC139:
 3348 01b4 626C655F 		.string	"ble_set_pkt_size"
 3348      7365745F 
 3348      706B745F 
 3348      73697A65 
 3348      00
 3349 01c5 000000   		.align	2
 3350              	.LC140:
 3351 01c8 00       		.string	""
 3352              		.section	.rodata.ble_cmd_table,"a"
 3353              		.align	2
 3354              		.set	.LANCHOR0,. + 0
 3357              	ble_cmd_table:
 3358 0000 00000000 		.word	.LC109
 3359 0004 00000000 		.word	cmd_ble_help
 3360 0008 00000000 		.word	.LC77
 3361 000c 00000000 		.word	cmd_ble_enable
 3362 0010 00000000 		.word	.LC110
 3363 0014 00000000 		.word	cmd_ble_disable
 3364 0018 00000000 		.word	.LC111
 3365 001c 00000000 		.word	cmd_ble_ps
 3366 0020 00000000 		.word	.LC78
 3367 0024 00000000 		.word	cmd_ble_courier_wifi
 3368 0028 00000000 		.word	.LC112
 3369 002c 00000000 		.word	cmd_advertise
 3370 0030 00000000 		.word	.LC113
 3371 0034 00000000 		.word	cmd_advertise_stop
 3372 0038 00000000 		.word	.LC114
 3373 003c 00000000 		.word	cmd_advertise_restart
 3374 0040 00000000 		.word	.LC115
 3375 0044 00000000 		.word	cmd_scan
 3376 0048 00000000 		.word	.LC116
 3377 004c 00000000 		.word	cmd_scan_stop
 3378 0050 00000000 		.word	.LC117
 3379 0054 00000000 		.word	cmd_list_scan_devs
 3380 0058 00000000 		.word	.LC118
 3381 005c 00000000 		.word	cmd_sync
 3382 0060 00000000 		.word	.LC119
 3383 0064 00000000 		.word	cmd_sync_cancel
 3384 0068 00000000 		.word	.LC120
 3385 006c 00000000 		.word	cmd_sync_terminate
 3386 0070 00000000 		.word	.LC121
 3387 0074 00000000 		.word	cmd_sync_ctrl
 3388 0078 00000000 		.word	.LC122
 3389 007c 00000000 		.word	cmd_connect
 3390 0080 00000000 		.word	.LC123
 3391 0084 00000000 		.word	cmd_cancel_connect
 3392 0088 00000000 		.word	.LC124
 3393 008c 00000000 		.word	cmd_disconnect
 3394 0090 00000000 		.word	.LC125
 3395 0094 00000000 		.word	cmd_remove_bond
 3396 0098 00000000 		.word	.LC126
 3397 009c 00000000 		.word	cmd_list_sec_devs
 3398 00a0 00000000 		.word	.LC127
 3399 00a4 00000000 		.word	cmd_set_auth
 3400 00a8 00000000 		.word	.LC128
 3401 00ac 00000000 		.word	cmd_pair
 3402 00b0 00000000 		.word	.LC129
 3403 00b4 00000000 		.word	cmd_encrypt
 3404 00b8 00000000 		.word	.LC130
 3405 00bc 00000000 		.word	cmd_passkey
 3406 00c0 00000000 		.word	.LC131
 3407 00c4 00000000 		.word	cmd_compare
 3408 00c8 00000000 		.word	.LC132
 3409 00cc 00000000 		.word	cmd_ble_peer_feat
 3410 00d0 00000000 		.word	.LC133
 3411 00d4 00000000 		.word	cmd_ble_peer_ver
 3412 00d8 00000000 		.word	.LC134
 3413 00dc 00000000 		.word	cmd_ble_param_update
 3414 00e0 00000000 		.word	.LC135
 3415 00e4 00000000 		.word	cmd_get_rssi
 3416 00e8 00000000 		.word	.LC136
 3417 00ec 00000000 		.word	cmd_set_dev_name
 3418 00f0 00000000 		.word	.LC137
 3419 00f4 00000000 		.word	cmd_set_phy
 3420 00f8 00000000 		.word	.LC138
 3421 00fc 00000000 		.word	cmd_get_phy
 3422 0100 00000000 		.word	.LC139
 3423 0104 00000000 		.word	cmd_set_pkt_size
 3424 0108 00000000 		.word	.LC140
 3425 010c 00000000 		.word	0
 3426              		.section	.srodata.ble_cmd_table_size,"a"
 3427              		.align	2
 3430              	ble_cmd_table_size:
 3431 0000 22000000 		.word	34
 3432              		.text
 3433              	.Letext0:
 3434              		.file 2 "c:\\users\\stapi\\onedrive\\desktop\\gd32vw553\\embeddedbuilder_v1.4.7.26843\\tools\\nucl
 3435              		.file 3 "c:\\users\\stapi\\onedrive\\desktop\\gd32vw553\\embeddedbuilder_v1.4.7.26843\\tools\\nucl
 3436              		.file 4 "..\\..\\..\\..\\blesw\\src\\export/ble_error.h"
 3437              		.file 5 "..\\..\\..\\..\\blesw\\src\\export/ble_export.h"
 3438              		.file 6 "..\\..\\..\\..\\blesw\\src\\export/ble_gap.h"
 3439              		.file 7 "..\\..\\..\\..\\util\\include/dlist.h"
 3440              		.file 8 "..\\..\\..\\..\\blesw\\src\\export/ble_conn.h"
 3441              		.file 9 "C:/Users/stapi/OneDrive/Desktop/GD32VW553/GD32VW55X_Wifi_BLE_SDK/GD32VW55x_RELEASE_V1.0.2
 3442              		.file 10 "C:/Users/stapi/OneDrive/Desktop/GD32VW553/GD32VW55X_Wifi_BLE_SDK/GD32VW55x_RELEASE_V1.0.
 3443              		.file 11 "C:/Users/stapi/OneDrive/Desktop/GD32VW553/GD32VW55X_Wifi_BLE_SDK/GD32VW55x_RELEASE_V1.0.
 3444              		.file 12 "C:/Users/stapi/OneDrive/Desktop/GD32VW553/GD32VW55X_Wifi_BLE_SDK/GD32VW55x_RELEASE_V1.0.
 3445              		.file 13 "..\\..\\..\\..\\app/cmd_shell.h"
 3446              		.file 14 "c:\\users\\stapi\\onedrive\\desktop\\gd32vw553\\embeddedbuilder_v1.4.7.26843\\tools\\nuc
 3447              		.file 15 "..\\..\\..\\..\\util\\include/debug_print.h"
 3448              		.file 16 "c:\\users\\stapi\\onedrive\\desktop\\gd32vw553\\embeddedbuilder_v1.4.7.26843\\tools\\nuc
 3449              		.file 17 "C:/Users/stapi/OneDrive/Desktop/GD32VW553/GD32VW55X_Wifi_BLE_SDK/GD32VW55x_RELEASE_V1.0.
 3450              		.file 18 "..\\..\\..\\..\\blesw\\src\\export/ble_per_sync.h"
 3451              		.file 19 "C:/Users/stapi/OneDrive/Desktop/GD32VW553/GD32VW55X_Wifi_BLE_SDK/GD32VW55x_RELEASE_V1.0.
 3452              		.file 20 "..\\..\\..\\..\\blesw\\src\\export/ble_adapter.h"
 3453              		.file 21 "C:/Users/stapi/OneDrive/Desktop/GD32VW553/GD32VW55X_Wifi_BLE_SDK/GD32VW55x_RELEASE_V1.0.
 3454              		.file 22 "C:/Users/stapi/OneDrive/Desktop/GD32VW553/GD32VW55X_Wifi_BLE_SDK/GD32VW55x_RELEASE_V1.0.
 3455              		.file 23 "<built-in>"
DEFINED SYMBOLS
                            *ABS*:0000000000000000 app_cmd.c
C:\Users\stapi\AppData\Local\Temp\ccVMeVAo.s:17     .text.cmd_ble_help_cb:0000000000000000 cmd_ble_help_cb
C:\Users\stapi\AppData\Local\Temp\ccVMeVAo.s:21     .text.cmd_ble_help_cb:0000000000000000 .L0 
C:\Users\stapi\AppData\Local\Temp\ccVMeVAo.s:22     .text.cmd_ble_help_cb:0000000000000000 .L0 
C:\Users\stapi\AppData\Local\Temp\ccVMeVAo.s:23     .text.cmd_ble_help_cb:0000000000000000 .L0 
C:\Users\stapi\AppData\Local\Temp\ccVMeVAo.s:27     .text.cmd_ble_help_cb:0000000000000010 .L0 
C:\Users\stapi\AppData\Local\Temp\ccVMeVAo.s:49     .text.cmd_set_pkt_size:0000000000000000 cmd_set_pkt_size
C:\Users\stapi\AppData\Local\Temp\ccVMeVAo.s:52     .text.cmd_set_pkt_size:0000000000000000 .L0 
C:\Users\stapi\AppData\Local\Temp\ccVMeVAo.s:54     .text.cmd_set_pkt_size:0000000000000000 .L0 
C:\Users\stapi\AppData\Local\Temp\ccVMeVAo.s:55     .text.cmd_set_pkt_size:0000000000000008 .L0 
C:\Users\stapi\AppData\Local\Temp\ccVMeVAo.s:56     .text.cmd_set_pkt_size:0000000000000008 .L0 
C:\Users\stapi\AppData\Local\Temp\ccVMeVAo.s:57     .text.cmd_set_pkt_size:0000000000000008 .L0 
C:\Users\stapi\AppData\Local\Temp\ccVMeVAo.s:58     .text.cmd_set_pkt_size:0000000000000008 .L0 
C:\Users\stapi\AppData\Local\Temp\ccVMeVAo.s:59     .text.cmd_set_pkt_size:0000000000000008 .L0 
C:\Users\stapi\AppData\Local\Temp\ccVMeVAo.s:61     .text.cmd_set_pkt_size:0000000000000008 .L0 
C:\Users\stapi\AppData\Local\Temp\ccVMeVAo.s:62     .text.cmd_set_pkt_size:0000000000000008 .L0 
C:\Users\stapi\AppData\Local\Temp\ccVMeVAo.s:63     .text.cmd_set_pkt_size:000000000000000a .L0 
C:\Users\stapi\AppData\Local\Temp\ccVMeVAo.s:65     .text.cmd_set_pkt_size:000000000000000a .L0 
C:\Users\stapi\AppData\Local\Temp\ccVMeVAo.s:67     .text.cmd_set_pkt_size:000000000000000c .L0 
C:\Users\stapi\AppData\Local\Temp\ccVMeVAo.s:68     .text.cmd_set_pkt_size:000000000000000c .L0 
C:\Users\stapi\AppData\Local\Temp\ccVMeVAo.s:69     .text.cmd_set_pkt_size:000000000000000c .L0 
C:\Users\stapi\AppData\Local\Temp\ccVMeVAo.s:70     .text.cmd_set_pkt_size:000000000000000c .L0 
C:\Users\stapi\AppData\Local\Temp\ccVMeVAo.s:71     .text.cmd_set_pkt_size:000000000000000c .L0 
C:\Users\stapi\AppData\Local\Temp\ccVMeVAo.s:72     .text.cmd_set_pkt_size:000000000000000c .L0 
C:\Users\stapi\AppData\Local\Temp\ccVMeVAo.s:76     .text.cmd_set_pkt_size:0000000000000012 .L0 
C:\Users\stapi\AppData\Local\Temp\ccVMeVAo.s:77     .text.cmd_set_pkt_size:0000000000000012 .L0 
C:\Users\stapi\AppData\Local\Temp\ccVMeVAo.s:83     .text.cmd_set_pkt_size:0000000000000022 .L0 
C:\Users\stapi\AppData\Local\Temp\ccVMeVAo.s:88     .text.cmd_set_pkt_size:0000000000000032 .L0 
C:\Users\stapi\AppData\Local\Temp\ccVMeVAo.s:93     .text.cmd_set_pkt_size:0000000000000042 .L0 
C:\Users\stapi\AppData\Local\Temp\ccVMeVAo.s:99     .text.cmd_set_pkt_size:0000000000000052 .L0 
C:\Users\stapi\AppData\Local\Temp\ccVMeVAo.s:100    .text.cmd_set_pkt_size:0000000000000054 .L0 
C:\Users\stapi\AppData\Local\Temp\ccVMeVAo.s:101    .text.cmd_set_pkt_size:0000000000000054 .L0 
C:\Users\stapi\AppData\Local\Temp\ccVMeVAo.s:103    .text.cmd_set_pkt_size:000000000000005c .L0 
C:\Users\stapi\AppData\Local\Temp\ccVMeVAo.s:104    .text.cmd_set_pkt_size:000000000000005c .L0 
C:\Users\stapi\AppData\Local\Temp\ccVMeVAo.s:105    .text.cmd_set_pkt_size:000000000000005c .L0 
C:\Users\stapi\AppData\Local\Temp\ccVMeVAo.s:106    .text.cmd_set_pkt_size:000000000000005c .L0 
C:\Users\stapi\AppData\Local\Temp\ccVMeVAo.s:107    .text.cmd_set_pkt_size:000000000000005c .L0 
C:\Users\stapi\AppData\Local\Temp\ccVMeVAo.s:110    .text.cmd_set_pkt_size:000000000000005c .L0 
C:\Users\stapi\AppData\Local\Temp\ccVMeVAo.s:113    .text.cmd_set_pkt_size:000000000000005e .L0 
C:\Users\stapi\AppData\Local\Temp\ccVMeVAo.s:114    .text.cmd_set_pkt_size:000000000000005e .L0 
C:\Users\stapi\AppData\Local\Temp\ccVMeVAo.s:124    .text.cmd_set_pkt_size:000000000000006e .L0 
C:\Users\stapi\AppData\Local\Temp\ccVMeVAo.s:125    .text.cmd_set_pkt_size:000000000000006e .L0 
C:\Users\stapi\AppData\Local\Temp\ccVMeVAo.s:133    .text.cmd_set_pkt_size:000000000000007e .L0 
C:\Users\stapi\AppData\Local\Temp\ccVMeVAo.s:134    .text.cmd_set_pkt_size:000000000000007e .L0 
C:\Users\stapi\AppData\Local\Temp\ccVMeVAo.s:140    .text.cmd_set_pkt_size:000000000000008c .L0 
C:\Users\stapi\AppData\Local\Temp\ccVMeVAo.s:141    .text.cmd_set_pkt_size:000000000000008c .L0 
C:\Users\stapi\AppData\Local\Temp\ccVMeVAo.s:150    .text.cmd_set_pkt_size:00000000000000a2 .L0 
C:\Users\stapi\AppData\Local\Temp\ccVMeVAo.s:151    .text.cmd_set_pkt_size:00000000000000a2 .L0 
C:\Users\stapi\AppData\Local\Temp\ccVMeVAo.s:153    .text.cmd_set_pkt_size:00000000000000a4 .L0 
C:\Users\stapi\AppData\Local\Temp\ccVMeVAo.s:159    .text.cmd_set_pkt_size:00000000000000b4 .L0 
C:\Users\stapi\AppData\Local\Temp\ccVMeVAo.s:160    .text.cmd_set_pkt_size:00000000000000b6 .L0 
C:\Users\stapi\AppData\Local\Temp\ccVMeVAo.s:194    .text.cmd_set_phy:0000000000000000 cmd_set_phy
C:\Users\stapi\AppData\Local\Temp\ccVMeVAo.s:197    .text.cmd_set_phy:0000000000000000 .L0 
C:\Users\stapi\AppData\Local\Temp\ccVMeVAo.s:199    .text.cmd_set_phy:0000000000000000 .L0 
C:\Users\stapi\AppData\Local\Temp\ccVMeVAo.s:200    .text.cmd_set_phy:0000000000000008 .L0 
C:\Users\stapi\AppData\Local\Temp\ccVMeVAo.s:201    .text.cmd_set_phy:0000000000000008 .L0 
C:\Users\stapi\AppData\Local\Temp\ccVMeVAo.s:202    .text.cmd_set_phy:0000000000000008 .L0 
C:\Users\stapi\AppData\Local\Temp\ccVMeVAo.s:203    .text.cmd_set_phy:0000000000000008 .L0 
C:\Users\stapi\AppData\Local\Temp\ccVMeVAo.s:204    .text.cmd_set_phy:0000000000000008 .L0 
C:\Users\stapi\AppData\Local\Temp\ccVMeVAo.s:205    .text.cmd_set_phy:0000000000000008 .L0 
C:\Users\stapi\AppData\Local\Temp\ccVMeVAo.s:207    .text.cmd_set_phy:0000000000000008 .L0 
C:\Users\stapi\AppData\Local\Temp\ccVMeVAo.s:208    .text.cmd_set_phy:0000000000000008 .L0 
C:\Users\stapi\AppData\Local\Temp\ccVMeVAo.s:209    .text.cmd_set_phy:000000000000000a .L0 
C:\Users\stapi\AppData\Local\Temp\ccVMeVAo.s:211    .text.cmd_set_phy:000000000000000a .L0 
C:\Users\stapi\AppData\Local\Temp\ccVMeVAo.s:213    .text.cmd_set_phy:000000000000000c .L0 
C:\Users\stapi\AppData\Local\Temp\ccVMeVAo.s:214    .text.cmd_set_phy:000000000000000c .L0 
C:\Users\stapi\AppData\Local\Temp\ccVMeVAo.s:215    .text.cmd_set_phy:000000000000000c .L0 
C:\Users\stapi\AppData\Local\Temp\ccVMeVAo.s:216    .text.cmd_set_phy:000000000000000c .L0 
C:\Users\stapi\AppData\Local\Temp\ccVMeVAo.s:217    .text.cmd_set_phy:000000000000000c .L0 
C:\Users\stapi\AppData\Local\Temp\ccVMeVAo.s:218    .text.cmd_set_phy:000000000000000c .L0 
C:\Users\stapi\AppData\Local\Temp\ccVMeVAo.s:219    .text.cmd_set_phy:000000000000000c .L0 
C:\Users\stapi\AppData\Local\Temp\ccVMeVAo.s:223    .text.cmd_set_phy:0000000000000012 .L0 
C:\Users\stapi\AppData\Local\Temp\ccVMeVAo.s:224    .text.cmd_set_phy:0000000000000012 .L0 
C:\Users\stapi\AppData\Local\Temp\ccVMeVAo.s:230    .text.cmd_set_phy:0000000000000022 .L0 
C:\Users\stapi\AppData\Local\Temp\ccVMeVAo.s:235    .text.cmd_set_phy:0000000000000032 .L0 
C:\Users\stapi\AppData\Local\Temp\ccVMeVAo.s:240    .text.cmd_set_phy:0000000000000042 .L0 
C:\Users\stapi\AppData\Local\Temp\ccVMeVAo.s:245    .text.cmd_set_phy:0000000000000052 .L0 
C:\Users\stapi\AppData\Local\Temp\ccVMeVAo.s:250    .text.cmd_set_phy:0000000000000062 .L0 
C:\Users\stapi\AppData\Local\Temp\ccVMeVAo.s:254    .text.cmd_set_phy:000000000000006e .L0 
C:\Users\stapi\AppData\Local\Temp\ccVMeVAo.s:259    .text.cmd_set_phy:000000000000007e .L0 
C:\Users\stapi\AppData\Local\Temp\ccVMeVAo.s:264    .text.cmd_set_phy:000000000000008e .L0 
C:\Users\stapi\AppData\Local\Temp\ccVMeVAo.s:269    .text.cmd_set_phy:000000000000009e .L0 
C:\Users\stapi\AppData\Local\Temp\ccVMeVAo.s:275    .text.cmd_set_phy:00000000000000ae .L0 
C:\Users\stapi\AppData\Local\Temp\ccVMeVAo.s:276    .text.cmd_set_phy:00000000000000b0 .L0 
C:\Users\stapi\AppData\Local\Temp\ccVMeVAo.s:277    .text.cmd_set_phy:00000000000000b0 .L0 
C:\Users\stapi\AppData\Local\Temp\ccVMeVAo.s:279    .text.cmd_set_phy:00000000000000b8 .L0 
C:\Users\stapi\AppData\Local\Temp\ccVMeVAo.s:280    .text.cmd_set_phy:00000000000000b8 .L0 
C:\Users\stapi\AppData\Local\Temp\ccVMeVAo.s:281    .text.cmd_set_phy:00000000000000b8 .L0 
C:\Users\stapi\AppData\Local\Temp\ccVMeVAo.s:282    .text.cmd_set_phy:00000000000000b8 .L0 
C:\Users\stapi\AppData\Local\Temp\ccVMeVAo.s:283    .text.cmd_set_phy:00000000000000b8 .L0 
C:\Users\stapi\AppData\Local\Temp\ccVMeVAo.s:284    .text.cmd_set_phy:00000000000000b8 .L0 
C:\Users\stapi\AppData\Local\Temp\ccVMeVAo.s:287    .text.cmd_set_phy:00000000000000b8 .L0 
C:\Users\stapi\AppData\Local\Temp\ccVMeVAo.s:290    .text.cmd_set_phy:00000000000000ba .L0 
C:\Users\stapi\AppData\Local\Temp\ccVMeVAo.s:291    .text.cmd_set_phy:00000000000000ba .L0 
C:\Users\stapi\AppData\Local\Temp\ccVMeVAo.s:301    .text.cmd_set_phy:00000000000000ca .L0 
C:\Users\stapi\AppData\Local\Temp\ccVMeVAo.s:302    .text.cmd_set_phy:00000000000000ca .L0 
C:\Users\stapi\AppData\Local\Temp\ccVMeVAo.s:310    .text.cmd_set_phy:00000000000000da .L0 
C:\Users\stapi\AppData\Local\Temp\ccVMeVAo.s:311    .text.cmd_set_phy:00000000000000da .L0 
C:\Users\stapi\AppData\Local\Temp\ccVMeVAo.s:319    .text.cmd_set_phy:00000000000000ea .L0 
C:\Users\stapi\AppData\Local\Temp\ccVMeVAo.s:320    .text.cmd_set_phy:00000000000000ea .L0 
C:\Users\stapi\AppData\Local\Temp\ccVMeVAo.s:326    .text.cmd_set_phy:00000000000000f8 .L0 
C:\Users\stapi\AppData\Local\Temp\ccVMeVAo.s:327    .text.cmd_set_phy:00000000000000f8 .L0 
C:\Users\stapi\AppData\Local\Temp\ccVMeVAo.s:337    .text.cmd_set_phy:0000000000000112 .L0 
C:\Users\stapi\AppData\Local\Temp\ccVMeVAo.s:338    .text.cmd_set_phy:0000000000000112 .L0 
C:\Users\stapi\AppData\Local\Temp\ccVMeVAo.s:340    .text.cmd_set_phy:0000000000000114 .L0 
C:\Users\stapi\AppData\Local\Temp\ccVMeVAo.s:346    .text.cmd_set_phy:0000000000000124 .L0 
C:\Users\stapi\AppData\Local\Temp\ccVMeVAo.s:347    .text.cmd_set_phy:0000000000000126 .L0 
C:\Users\stapi\AppData\Local\Temp\ccVMeVAo.s:372    .text.cmd_ble_param_update:0000000000000000 cmd_ble_param_update
C:\Users\stapi\AppData\Local\Temp\ccVMeVAo.s:375    .text.cmd_ble_param_update:0000000000000000 .L0 
C:\Users\stapi\AppData\Local\Temp\ccVMeVAo.s:377    .text.cmd_ble_param_update:0000000000000000 .L0 
C:\Users\stapi\AppData\Local\Temp\ccVMeVAo.s:378    .text.cmd_ble_param_update:0000000000000008 .L0 
C:\Users\stapi\AppData\Local\Temp\ccVMeVAo.s:379    .text.cmd_ble_param_update:0000000000000008 .L0 
C:\Users\stapi\AppData\Local\Temp\ccVMeVAo.s:380    .text.cmd_ble_param_update:0000000000000008 .L0 
C:\Users\stapi\AppData\Local\Temp\ccVMeVAo.s:381    .text.cmd_ble_param_update:0000000000000008 .L0 
C:\Users\stapi\AppData\Local\Temp\ccVMeVAo.s:382    .text.cmd_ble_param_update:0000000000000008 .L0 
C:\Users\stapi\AppData\Local\Temp\ccVMeVAo.s:383    .text.cmd_ble_param_update:0000000000000008 .L0 
C:\Users\stapi\AppData\Local\Temp\ccVMeVAo.s:384    .text.cmd_ble_param_update:0000000000000008 .L0 
C:\Users\stapi\AppData\Local\Temp\ccVMeVAo.s:386    .text.cmd_ble_param_update:0000000000000008 .L0 
C:\Users\stapi\AppData\Local\Temp\ccVMeVAo.s:387    .text.cmd_ble_param_update:0000000000000008 .L0 
C:\Users\stapi\AppData\Local\Temp\ccVMeVAo.s:388    .text.cmd_ble_param_update:000000000000000a .L0 
C:\Users\stapi\AppData\Local\Temp\ccVMeVAo.s:390    .text.cmd_ble_param_update:000000000000000a .L0 
C:\Users\stapi\AppData\Local\Temp\ccVMeVAo.s:392    .text.cmd_ble_param_update:000000000000000c .L0 
C:\Users\stapi\AppData\Local\Temp\ccVMeVAo.s:393    .text.cmd_ble_param_update:000000000000000c .L0 
C:\Users\stapi\AppData\Local\Temp\ccVMeVAo.s:394    .text.cmd_ble_param_update:000000000000000c .L0 
C:\Users\stapi\AppData\Local\Temp\ccVMeVAo.s:395    .text.cmd_ble_param_update:000000000000000c .L0 
C:\Users\stapi\AppData\Local\Temp\ccVMeVAo.s:396    .text.cmd_ble_param_update:000000000000000c .L0 
C:\Users\stapi\AppData\Local\Temp\ccVMeVAo.s:397    .text.cmd_ble_param_update:000000000000000c .L0 
C:\Users\stapi\AppData\Local\Temp\ccVMeVAo.s:398    .text.cmd_ble_param_update:000000000000000c .L0 
C:\Users\stapi\AppData\Local\Temp\ccVMeVAo.s:399    .text.cmd_ble_param_update:000000000000000c .L0 
C:\Users\stapi\AppData\Local\Temp\ccVMeVAo.s:403    .text.cmd_ble_param_update:0000000000000012 .L0 
C:\Users\stapi\AppData\Local\Temp\ccVMeVAo.s:404    .text.cmd_ble_param_update:0000000000000012 .L0 
C:\Users\stapi\AppData\Local\Temp\ccVMeVAo.s:410    .text.cmd_ble_param_update:0000000000000022 .L0 
C:\Users\stapi\AppData\Local\Temp\ccVMeVAo.s:415    .text.cmd_ble_param_update:0000000000000032 .L0 
C:\Users\stapi\AppData\Local\Temp\ccVMeVAo.s:420    .text.cmd_ble_param_update:0000000000000042 .L0 
C:\Users\stapi\AppData\Local\Temp\ccVMeVAo.s:425    .text.cmd_ble_param_update:0000000000000052 .L0 
C:\Users\stapi\AppData\Local\Temp\ccVMeVAo.s:430    .text.cmd_ble_param_update:0000000000000062 .L0 
C:\Users\stapi\AppData\Local\Temp\ccVMeVAo.s:436    .text.cmd_ble_param_update:0000000000000072 .L0 
C:\Users\stapi\AppData\Local\Temp\ccVMeVAo.s:437    .text.cmd_ble_param_update:0000000000000074 .L0 
C:\Users\stapi\AppData\Local\Temp\ccVMeVAo.s:438    .text.cmd_ble_param_update:0000000000000074 .L0 
C:\Users\stapi\AppData\Local\Temp\ccVMeVAo.s:440    .text.cmd_ble_param_update:000000000000007c .L0 
C:\Users\stapi\AppData\Local\Temp\ccVMeVAo.s:441    .text.cmd_ble_param_update:000000000000007c .L0 
C:\Users\stapi\AppData\Local\Temp\ccVMeVAo.s:442    .text.cmd_ble_param_update:000000000000007c .L0 
C:\Users\stapi\AppData\Local\Temp\ccVMeVAo.s:443    .text.cmd_ble_param_update:000000000000007c .L0 
C:\Users\stapi\AppData\Local\Temp\ccVMeVAo.s:444    .text.cmd_ble_param_update:000000000000007c .L0 
C:\Users\stapi\AppData\Local\Temp\ccVMeVAo.s:445    .text.cmd_ble_param_update:000000000000007c .L0 
C:\Users\stapi\AppData\Local\Temp\ccVMeVAo.s:446    .text.cmd_ble_param_update:000000000000007c .L0 
C:\Users\stapi\AppData\Local\Temp\ccVMeVAo.s:449    .text.cmd_ble_param_update:000000000000007c .L0 
C:\Users\stapi\AppData\Local\Temp\ccVMeVAo.s:452    .text.cmd_ble_param_update:000000000000007e .L0 
C:\Users\stapi\AppData\Local\Temp\ccVMeVAo.s:453    .text.cmd_ble_param_update:000000000000007e .L0 
C:\Users\stapi\AppData\Local\Temp\ccVMeVAo.s:463    .text.cmd_ble_param_update:000000000000008e .L0 
C:\Users\stapi\AppData\Local\Temp\ccVMeVAo.s:464    .text.cmd_ble_param_update:000000000000008e .L0 
C:\Users\stapi\AppData\Local\Temp\ccVMeVAo.s:470    .text.cmd_ble_param_update:000000000000009c .L0 
C:\Users\stapi\AppData\Local\Temp\ccVMeVAo.s:473    .text.cmd_ble_param_update:00000000000000a0 .L0 
C:\Users\stapi\AppData\Local\Temp\ccVMeVAo.s:474    .text.cmd_ble_param_update:00000000000000a0 .L0 
C:\Users\stapi\AppData\Local\Temp\ccVMeVAo.s:482    .text.cmd_ble_param_update:00000000000000b0 .L0 
C:\Users\stapi\AppData\Local\Temp\ccVMeVAo.s:483    .text.cmd_ble_param_update:00000000000000b0 .L0 
C:\Users\stapi\AppData\Local\Temp\ccVMeVAo.s:491    .text.cmd_ble_param_update:00000000000000c0 .L0 
C:\Users\stapi\AppData\Local\Temp\ccVMeVAo.s:492    .text.cmd_ble_param_update:00000000000000c0 .L0 
C:\Users\stapi\AppData\Local\Temp\ccVMeVAo.s:498    .text.cmd_ble_param_update:00000000000000ce .L0 
C:\Users\stapi\AppData\Local\Temp\ccVMeVAo.s:501    .text.cmd_ble_param_update:00000000000000d2 .L0 
C:\Users\stapi\AppData\Local\Temp\ccVMeVAo.s:502    .text.cmd_ble_param_update:00000000000000d2 .L0 
C:\Users\stapi\AppData\Local\Temp\ccVMeVAo.s:513    .text.cmd_ble_param_update:00000000000000ee .L0 
C:\Users\stapi\AppData\Local\Temp\ccVMeVAo.s:514    .text.cmd_ble_param_update:00000000000000ee .L0 
C:\Users\stapi\AppData\Local\Temp\ccVMeVAo.s:516    .text.cmd_ble_param_update:00000000000000f0 .L0 
C:\Users\stapi\AppData\Local\Temp\ccVMeVAo.s:522    .text.cmd_ble_param_update:0000000000000100 .L0 
C:\Users\stapi\AppData\Local\Temp\ccVMeVAo.s:523    .text.cmd_ble_param_update:0000000000000102 .L0 
C:\Users\stapi\AppData\Local\Temp\ccVMeVAo.s:539    .text.cmd_passkey:0000000000000000 cmd_passkey
C:\Users\stapi\AppData\Local\Temp\ccVMeVAo.s:542    .text.cmd_passkey:0000000000000000 .L0 
C:\Users\stapi\AppData\Local\Temp\ccVMeVAo.s:544    .text.cmd_passkey:0000000000000000 .L0 
C:\Users\stapi\AppData\Local\Temp\ccVMeVAo.s:545    .text.cmd_passkey:0000000000000008 .L0 
C:\Users\stapi\AppData\Local\Temp\ccVMeVAo.s:546    .text.cmd_passkey:0000000000000008 .L0 
C:\Users\stapi\AppData\Local\Temp\ccVMeVAo.s:547    .text.cmd_passkey:0000000000000008 .L0 
C:\Users\stapi\AppData\Local\Temp\ccVMeVAo.s:548    .text.cmd_passkey:0000000000000008 .L0 
C:\Users\stapi\AppData\Local\Temp\ccVMeVAo.s:550    .text.cmd_passkey:0000000000000008 .L0 
C:\Users\stapi\AppData\Local\Temp\ccVMeVAo.s:551    .text.cmd_passkey:0000000000000008 .L0 
C:\Users\stapi\AppData\Local\Temp\ccVMeVAo.s:552    .text.cmd_passkey:000000000000000a .L0 
C:\Users\stapi\AppData\Local\Temp\ccVMeVAo.s:554    .text.cmd_passkey:000000000000000a .L0 
C:\Users\stapi\AppData\Local\Temp\ccVMeVAo.s:557    .text.cmd_passkey:000000000000000c .L0 
C:\Users\stapi\AppData\Local\Temp\ccVMeVAo.s:558    .text.cmd_passkey:000000000000000c .L0 
C:\Users\stapi\AppData\Local\Temp\ccVMeVAo.s:559    .text.cmd_passkey:000000000000000c .L0 
C:\Users\stapi\AppData\Local\Temp\ccVMeVAo.s:560    .text.cmd_passkey:000000000000000c .L0 
C:\Users\stapi\AppData\Local\Temp\ccVMeVAo.s:564    .text.cmd_passkey:0000000000000014 .L0 
C:\Users\stapi\AppData\Local\Temp\ccVMeVAo.s:565    .text.cmd_passkey:0000000000000014 .L0 
C:\Users\stapi\AppData\Local\Temp\ccVMeVAo.s:575    .text.cmd_passkey:0000000000000024 .L0 
C:\Users\stapi\AppData\Local\Temp\ccVMeVAo.s:576    .text.cmd_passkey:0000000000000024 .L0 
C:\Users\stapi\AppData\Local\Temp\ccVMeVAo.s:582    .text.cmd_passkey:0000000000000032 .L0 
C:\Users\stapi\AppData\Local\Temp\ccVMeVAo.s:585    .text.cmd_passkey:000000000000003a .L0 
C:\Users\stapi\AppData\Local\Temp\ccVMeVAo.s:588    .text.cmd_passkey:000000000000003c .L0 
C:\Users\stapi\AppData\Local\Temp\ccVMeVAo.s:589    .text.cmd_passkey:000000000000003c .L0 
C:\Users\stapi\AppData\Local\Temp\ccVMeVAo.s:591    .text.cmd_passkey:0000000000000040 .L0 
C:\Users\stapi\AppData\Local\Temp\ccVMeVAo.s:597    .text.cmd_passkey:000000000000004c .L0 
C:\Users\stapi\AppData\Local\Temp\ccVMeVAo.s:598    .text.cmd_passkey:000000000000004c .L0 
C:\Users\stapi\AppData\Local\Temp\ccVMeVAo.s:599    .text.cmd_passkey:000000000000004e .L0 
C:\Users\stapi\AppData\Local\Temp\ccVMeVAo.s:600    .text.cmd_passkey:000000000000004e .L0 
C:\Users\stapi\AppData\Local\Temp\ccVMeVAo.s:602    .text.cmd_passkey:0000000000000056 .L0 
C:\Users\stapi\AppData\Local\Temp\ccVMeVAo.s:603    .text.cmd_passkey:0000000000000056 .L0 
C:\Users\stapi\AppData\Local\Temp\ccVMeVAo.s:604    .text.cmd_passkey:0000000000000056 .L0 
C:\Users\stapi\AppData\Local\Temp\ccVMeVAo.s:605    .text.cmd_passkey:0000000000000056 .L0 
C:\Users\stapi\AppData\Local\Temp\ccVMeVAo.s:607    .text.cmd_passkey:0000000000000056 .L0 
C:\Users\stapi\AppData\Local\Temp\ccVMeVAo.s:610    .text.cmd_passkey:0000000000000056 .L0 
C:\Users\stapi\AppData\Local\Temp\ccVMeVAo.s:615    .text.cmd_passkey:0000000000000066 .L0 
C:\Users\stapi\AppData\Local\Temp\ccVMeVAo.s:620    .text.cmd_passkey:0000000000000076 .L0 
C:\Users\stapi\AppData\Local\Temp\ccVMeVAo.s:625    .text.cmd_passkey:0000000000000088 .L0 
C:\Users\stapi\AppData\Local\Temp\ccVMeVAo.s:641    .text.cmd_pair:0000000000000000 cmd_pair
C:\Users\stapi\AppData\Local\Temp\ccVMeVAo.s:644    .text.cmd_pair:0000000000000000 .L0 
C:\Users\stapi\AppData\Local\Temp\ccVMeVAo.s:646    .text.cmd_pair:0000000000000000 .L0 
C:\Users\stapi\AppData\Local\Temp\ccVMeVAo.s:647    .text.cmd_pair:0000000000000008 .L0 
C:\Users\stapi\AppData\Local\Temp\ccVMeVAo.s:648    .text.cmd_pair:0000000000000008 .L0 
C:\Users\stapi\AppData\Local\Temp\ccVMeVAo.s:649    .text.cmd_pair:0000000000000008 .L0 
C:\Users\stapi\AppData\Local\Temp\ccVMeVAo.s:651    .text.cmd_pair:0000000000000008 .L0 
C:\Users\stapi\AppData\Local\Temp\ccVMeVAo.s:652    .text.cmd_pair:0000000000000008 .L0 
C:\Users\stapi\AppData\Local\Temp\ccVMeVAo.s:653    .text.cmd_pair:000000000000000a .L0 
C:\Users\stapi\AppData\Local\Temp\ccVMeVAo.s:655    .text.cmd_pair:000000000000000a .L0 
C:\Users\stapi\AppData\Local\Temp\ccVMeVAo.s:658    .text.cmd_pair:000000000000000c .L0 
C:\Users\stapi\AppData\Local\Temp\ccVMeVAo.s:659    .text.cmd_pair:000000000000000c .L0 
C:\Users\stapi\AppData\Local\Temp\ccVMeVAo.s:660    .text.cmd_pair:000000000000000c .L0 
C:\Users\stapi\AppData\Local\Temp\ccVMeVAo.s:661    .text.cmd_pair:000000000000000c .L0 
C:\Users\stapi\AppData\Local\Temp\ccVMeVAo.s:665    .text.cmd_pair:0000000000000012 .L0 
C:\Users\stapi\AppData\Local\Temp\ccVMeVAo.s:666    .text.cmd_pair:0000000000000012 .L0 
C:\Users\stapi\AppData\Local\Temp\ccVMeVAo.s:672    .text.cmd_pair:0000000000000022 .L0 
C:\Users\stapi\AppData\Local\Temp\ccVMeVAo.s:677    .text.cmd_pair:000000000000002a .L0 
C:\Users\stapi\AppData\Local\Temp\ccVMeVAo.s:681    .text.cmd_pair:0000000000000032 .L0 
C:\Users\stapi\AppData\Local\Temp\ccVMeVAo.s:682    .text.cmd_pair:0000000000000032 .L0 
C:\Users\stapi\AppData\Local\Temp\ccVMeVAo.s:683    .text.cmd_pair:0000000000000034 .L0 
C:\Users\stapi\AppData\Local\Temp\ccVMeVAo.s:684    .text.cmd_pair:0000000000000034 .L0 
C:\Users\stapi\AppData\Local\Temp\ccVMeVAo.s:686    .text.cmd_pair:000000000000003c .L0 
C:\Users\stapi\AppData\Local\Temp\ccVMeVAo.s:687    .text.cmd_pair:000000000000003c .L0 
C:\Users\stapi\AppData\Local\Temp\ccVMeVAo.s:688    .text.cmd_pair:000000000000003c .L0 
C:\Users\stapi\AppData\Local\Temp\ccVMeVAo.s:691    .text.cmd_pair:000000000000003c .L0 
C:\Users\stapi\AppData\Local\Temp\ccVMeVAo.s:694    .text.cmd_pair:000000000000003e .L0 
C:\Users\stapi\AppData\Local\Temp\ccVMeVAo.s:695    .text.cmd_pair:000000000000003e .L0 
C:\Users\stapi\AppData\Local\Temp\ccVMeVAo.s:703    .text.cmd_pair:000000000000004c .L0 
C:\Users\stapi\AppData\Local\Temp\ccVMeVAo.s:706    .text.cmd_pair:0000000000000050 .L0 
C:\Users\stapi\AppData\Local\Temp\ccVMeVAo.s:707    .text.cmd_pair:0000000000000050 .L0 
C:\Users\stapi\AppData\Local\Temp\ccVMeVAo.s:711    .text.cmd_pair:000000000000005a .L0 
C:\Users\stapi\AppData\Local\Temp\ccVMeVAo.s:712    .text.cmd_pair:000000000000005a .L0 
C:\Users\stapi\AppData\Local\Temp\ccVMeVAo.s:714    .text.cmd_pair:000000000000005c .L0 
C:\Users\stapi\AppData\Local\Temp\ccVMeVAo.s:721    .text.cmd_pair:0000000000000066 .L0 
C:\Users\stapi\AppData\Local\Temp\ccVMeVAo.s:722    .text.cmd_pair:0000000000000066 .L0 
C:\Users\stapi\AppData\Local\Temp\ccVMeVAo.s:724    .text.cmd_pair:0000000000000068 .L0 
C:\Users\stapi\AppData\Local\Temp\ccVMeVAo.s:727    .text.cmd_pair:000000000000006a .L0 
C:\Users\stapi\AppData\Local\Temp\ccVMeVAo.s:729    .text.cmd_pair:000000000000006c .L0 
C:\Users\stapi\AppData\Local\Temp\ccVMeVAo.s:734    .text.cmd_pair:0000000000000076 .L0 
C:\Users\stapi\AppData\Local\Temp\ccVMeVAo.s:737    .text.cmd_pair:0000000000000080 .L0 
C:\Users\stapi\AppData\Local\Temp\ccVMeVAo.s:795    .text.cmd_set_auth:0000000000000000 cmd_set_auth
C:\Users\stapi\AppData\Local\Temp\ccVMeVAo.s:798    .text.cmd_set_auth:0000000000000000 .L0 
C:\Users\stapi\AppData\Local\Temp\ccVMeVAo.s:800    .text.cmd_set_auth:0000000000000000 .L0 
C:\Users\stapi\AppData\Local\Temp\ccVMeVAo.s:801    .text.cmd_set_auth:0000000000000008 .L0 
C:\Users\stapi\AppData\Local\Temp\ccVMeVAo.s:802    .text.cmd_set_auth:0000000000000008 .L0 
C:\Users\stapi\AppData\Local\Temp\ccVMeVAo.s:803    .text.cmd_set_auth:0000000000000008 .L0 
C:\Users\stapi\AppData\Local\Temp\ccVMeVAo.s:804    .text.cmd_set_auth:0000000000000008 .L0 
C:\Users\stapi\AppData\Local\Temp\ccVMeVAo.s:805    .text.cmd_set_auth:0000000000000008 .L0 
C:\Users\stapi\AppData\Local\Temp\ccVMeVAo.s:806    .text.cmd_set_auth:0000000000000008 .L0 
C:\Users\stapi\AppData\Local\Temp\ccVMeVAo.s:808    .text.cmd_set_auth:0000000000000008 .L0 
C:\Users\stapi\AppData\Local\Temp\ccVMeVAo.s:809    .text.cmd_set_auth:0000000000000008 .L0 
C:\Users\stapi\AppData\Local\Temp\ccVMeVAo.s:810    .text.cmd_set_auth:000000000000000a .L0 
C:\Users\stapi\AppData\Local\Temp\ccVMeVAo.s:812    .text.cmd_set_auth:000000000000000a .L0 
C:\Users\stapi\AppData\Local\Temp\ccVMeVAo.s:814    .text.cmd_set_auth:000000000000000c .L0 
C:\Users\stapi\AppData\Local\Temp\ccVMeVAo.s:815    .text.cmd_set_auth:000000000000000c .L0 
C:\Users\stapi\AppData\Local\Temp\ccVMeVAo.s:816    .text.cmd_set_auth:000000000000000c .L0 
C:\Users\stapi\AppData\Local\Temp\ccVMeVAo.s:817    .text.cmd_set_auth:000000000000000c .L0 
C:\Users\stapi\AppData\Local\Temp\ccVMeVAo.s:818    .text.cmd_set_auth:000000000000000c .L0 
C:\Users\stapi\AppData\Local\Temp\ccVMeVAo.s:819    .text.cmd_set_auth:000000000000000c .L0 
C:\Users\stapi\AppData\Local\Temp\ccVMeVAo.s:823    .text.cmd_set_auth:0000000000000014 .L0 
C:\Users\stapi\AppData\Local\Temp\ccVMeVAo.s:824    .text.cmd_set_auth:0000000000000014 .L0 
C:\Users\stapi\AppData\Local\Temp\ccVMeVAo.s:834    .text.cmd_set_auth:0000000000000024 .L0 
C:\Users\stapi\AppData\Local\Temp\ccVMeVAo.s:835    .text.cmd_set_auth:0000000000000024 .L0 
C:\Users\stapi\AppData\Local\Temp\ccVMeVAo.s:843    .text.cmd_set_auth:0000000000000034 .L0 
C:\Users\stapi\AppData\Local\Temp\ccVMeVAo.s:844    .text.cmd_set_auth:0000000000000034 .L0 
C:\Users\stapi\AppData\Local\Temp\ccVMeVAo.s:853    .text.cmd_set_auth:0000000000000044 .L0 
C:\Users\stapi\AppData\Local\Temp\ccVMeVAo.s:854    .text.cmd_set_auth:0000000000000044 .L0 
C:\Users\stapi\AppData\Local\Temp\ccVMeVAo.s:861    .text.cmd_set_auth:0000000000000052 .L0 
C:\Users\stapi\AppData\Local\Temp\ccVMeVAo.s:864    .text.cmd_set_auth:0000000000000056 .L0 
C:\Users\stapi\AppData\Local\Temp\ccVMeVAo.s:865    .text.cmd_set_auth:0000000000000056 .L0 
C:\Users\stapi\AppData\Local\Temp\ccVMeVAo.s:868    .text.cmd_set_auth:000000000000005c .L0 
C:\Users\stapi\AppData\Local\Temp\ccVMeVAo.s:877    .text.cmd_set_auth:0000000000000076 .L0 
C:\Users\stapi\AppData\Local\Temp\ccVMeVAo.s:882    .text.cmd_set_auth:000000000000007e .L0 
C:\Users\stapi\AppData\Local\Temp\ccVMeVAo.s:885    .text.cmd_set_auth:0000000000000086 .L0 
C:\Users\stapi\AppData\Local\Temp\ccVMeVAo.s:886    .text.cmd_set_auth:0000000000000088 .L0 
C:\Users\stapi\AppData\Local\Temp\ccVMeVAo.s:887    .text.cmd_set_auth:0000000000000088 .L0 
C:\Users\stapi\AppData\Local\Temp\ccVMeVAo.s:889    .text.cmd_set_auth:0000000000000090 .L0 
C:\Users\stapi\AppData\Local\Temp\ccVMeVAo.s:890    .text.cmd_set_auth:0000000000000090 .L0 
C:\Users\stapi\AppData\Local\Temp\ccVMeVAo.s:891    .text.cmd_set_auth:0000000000000090 .L0 
C:\Users\stapi\AppData\Local\Temp\ccVMeVAo.s:892    .text.cmd_set_auth:0000000000000090 .L0 
C:\Users\stapi\AppData\Local\Temp\ccVMeVAo.s:893    .text.cmd_set_auth:0000000000000090 .L0 
C:\Users\stapi\AppData\Local\Temp\ccVMeVAo.s:894    .text.cmd_set_auth:0000000000000090 .L0 
C:\Users\stapi\AppData\Local\Temp\ccVMeVAo.s:896    .text.cmd_set_auth:0000000000000090 .L0 
C:\Users\stapi\AppData\Local\Temp\ccVMeVAo.s:899    .text.cmd_set_auth:0000000000000090 .L0 
C:\Users\stapi\AppData\Local\Temp\ccVMeVAo.s:904    .text.cmd_set_auth:00000000000000a0 .L0 
C:\Users\stapi\AppData\Local\Temp\ccVMeVAo.s:909    .text.cmd_set_auth:00000000000000b0 .L0 
C:\Users\stapi\AppData\Local\Temp\ccVMeVAo.s:914    .text.cmd_set_auth:00000000000000c0 .L0 
C:\Users\stapi\AppData\Local\Temp\ccVMeVAo.s:919    .text.cmd_set_auth:00000000000000d0 .L0 
C:\Users\stapi\AppData\Local\Temp\ccVMeVAo.s:924    .text.cmd_set_auth:00000000000000e0 .L0 
C:\Users\stapi\AppData\Local\Temp\ccVMeVAo.s:929    .text.cmd_set_auth:00000000000000f0 .L0 
C:\Users\stapi\AppData\Local\Temp\ccVMeVAo.s:934    .text.cmd_set_auth:0000000000000100 .L0 
C:\Users\stapi\AppData\Local\Temp\ccVMeVAo.s:939    .text.cmd_set_auth:0000000000000110 .L0 
C:\Users\stapi\AppData\Local\Temp\ccVMeVAo.s:944    .text.cmd_set_auth:0000000000000120 .L0 
C:\Users\stapi\AppData\Local\Temp\ccVMeVAo.s:949    .text.cmd_set_auth:0000000000000130 .L0 
C:\Users\stapi\AppData\Local\Temp\ccVMeVAo.s:954    .text.cmd_set_auth:0000000000000140 .L0 
C:\Users\stapi\AppData\Local\Temp\ccVMeVAo.s:959    .text.cmd_set_auth:0000000000000150 .L0 
C:\Users\stapi\AppData\Local\Temp\ccVMeVAo.s:964    .text.cmd_set_auth:0000000000000160 .L0 
C:\Users\stapi\AppData\Local\Temp\ccVMeVAo.s:969    .text.cmd_set_auth:0000000000000170 .L0 
C:\Users\stapi\AppData\Local\Temp\ccVMeVAo.s:974    .text.cmd_set_auth:0000000000000180 .L0 
C:\Users\stapi\AppData\Local\Temp\ccVMeVAo.s:977    .text.cmd_set_auth:000000000000018a .L0 
C:\Users\stapi\AppData\Local\Temp\ccVMeVAo.s:983    .text.cmd_list_sec_devs:0000000000000000 cmd_list_sec_devs
C:\Users\stapi\AppData\Local\Temp\ccVMeVAo.s:986    .text.cmd_list_sec_devs:0000000000000000 .L0 
C:\Users\stapi\AppData\Local\Temp\ccVMeVAo.s:988    .text.cmd_list_sec_devs:0000000000000000 .L0 
C:\Users\stapi\AppData\Local\Temp\ccVMeVAo.s:989    .text.cmd_list_sec_devs:0000000000000000 .L0 
C:\Users\stapi\AppData\Local\Temp\ccVMeVAo.s:991    .text.cmd_list_sec_devs:0000000000000008 .L0 
C:\Users\stapi\AppData\Local\Temp\ccVMeVAo.s:1010   .text.cmd_remove_bond:0000000000000000 cmd_remove_bond
C:\Users\stapi\AppData\Local\Temp\ccVMeVAo.s:1013   .text.cmd_remove_bond:0000000000000000 .L0 
C:\Users\stapi\AppData\Local\Temp\ccVMeVAo.s:1015   .text.cmd_remove_bond:0000000000000000 .L0 
C:\Users\stapi\AppData\Local\Temp\ccVMeVAo.s:1016   .text.cmd_remove_bond:0000000000000008 .L0 
C:\Users\stapi\AppData\Local\Temp\ccVMeVAo.s:1017   .text.cmd_remove_bond:0000000000000008 .L0 
C:\Users\stapi\AppData\Local\Temp\ccVMeVAo.s:1019   .text.cmd_remove_bond:0000000000000008 .L0 
C:\Users\stapi\AppData\Local\Temp\ccVMeVAo.s:1020   .text.cmd_remove_bond:0000000000000008 .L0 
C:\Users\stapi\AppData\Local\Temp\ccVMeVAo.s:1021   .text.cmd_remove_bond:000000000000000a .L0 
C:\Users\stapi\AppData\Local\Temp\ccVMeVAo.s:1023   .text.cmd_remove_bond:000000000000000a .L0 
C:\Users\stapi\AppData\Local\Temp\ccVMeVAo.s:1026   .text.cmd_remove_bond:000000000000000c .L0 
C:\Users\stapi\AppData\Local\Temp\ccVMeVAo.s:1027   .text.cmd_remove_bond:000000000000000c .L0 
C:\Users\stapi\AppData\Local\Temp\ccVMeVAo.s:1028   .text.cmd_remove_bond:000000000000000c .L0 
C:\Users\stapi\AppData\Local\Temp\ccVMeVAo.s:1029   .text.cmd_remove_bond:000000000000000c .L0 
C:\Users\stapi\AppData\Local\Temp\ccVMeVAo.s:1033   .text.cmd_remove_bond:0000000000000012 .L0 
C:\Users\stapi\AppData\Local\Temp\ccVMeVAo.s:1034   .text.cmd_remove_bond:0000000000000012 .L0 
C:\Users\stapi\AppData\Local\Temp\ccVMeVAo.s:1040   .text.cmd_remove_bond:0000000000000022 .L0 
C:\Users\stapi\AppData\Local\Temp\ccVMeVAo.s:1045   .text.cmd_remove_bond:000000000000002a .L0 
C:\Users\stapi\AppData\Local\Temp\ccVMeVAo.s:1048   .text.cmd_remove_bond:0000000000000032 .L0 
C:\Users\stapi\AppData\Local\Temp\ccVMeVAo.s:1049   .text.cmd_remove_bond:0000000000000032 .L0 
C:\Users\stapi\AppData\Local\Temp\ccVMeVAo.s:1050   .text.cmd_remove_bond:0000000000000034 .L0 
C:\Users\stapi\AppData\Local\Temp\ccVMeVAo.s:1051   .text.cmd_remove_bond:0000000000000034 .L0 
C:\Users\stapi\AppData\Local\Temp\ccVMeVAo.s:1053   .text.cmd_remove_bond:000000000000003c .L0 
C:\Users\stapi\AppData\Local\Temp\ccVMeVAo.s:1054   .text.cmd_remove_bond:000000000000003c .L0 
C:\Users\stapi\AppData\Local\Temp\ccVMeVAo.s:1057   .text.cmd_remove_bond:000000000000003c .L0 
C:\Users\stapi\AppData\Local\Temp\ccVMeVAo.s:1060   .text.cmd_remove_bond:000000000000003e .L0 
C:\Users\stapi\AppData\Local\Temp\ccVMeVAo.s:1061   .text.cmd_remove_bond:000000000000003e .L0 
C:\Users\stapi\AppData\Local\Temp\ccVMeVAo.s:1069   .text.cmd_remove_bond:000000000000004c .L0 
C:\Users\stapi\AppData\Local\Temp\ccVMeVAo.s:1070   .text.cmd_remove_bond:000000000000004c .L0 
C:\Users\stapi\AppData\Local\Temp\ccVMeVAo.s:1076   .text.cmd_remove_bond:000000000000005a .L0 
C:\Users\stapi\AppData\Local\Temp\ccVMeVAo.s:1077   .text.cmd_remove_bond:000000000000005a .L0 
C:\Users\stapi\AppData\Local\Temp\ccVMeVAo.s:1079   .text.cmd_remove_bond:000000000000005c .L0 
C:\Users\stapi\AppData\Local\Temp\ccVMeVAo.s:1086   .text.cmd_remove_bond:0000000000000066 .L0 
C:\Users\stapi\AppData\Local\Temp\ccVMeVAo.s:1087   .text.cmd_remove_bond:0000000000000066 .L0 
C:\Users\stapi\AppData\Local\Temp\ccVMeVAo.s:1093   .text.cmd_remove_bond:0000000000000072 .L0 
C:\Users\stapi\AppData\Local\Temp\ccVMeVAo.s:1095   .text.cmd_remove_bond:0000000000000074 .L0 
C:\Users\stapi\AppData\Local\Temp\ccVMeVAo.s:1100   .text.cmd_remove_bond:000000000000007e .L0 
C:\Users\stapi\AppData\Local\Temp\ccVMeVAo.s:1103   .text.cmd_remove_bond:0000000000000088 .L0 
C:\Users\stapi\AppData\Local\Temp\ccVMeVAo.s:1113   .text.cmd_cancel_connect:0000000000000000 cmd_cancel_connect
C:\Users\stapi\AppData\Local\Temp\ccVMeVAo.s:1116   .text.cmd_cancel_connect:0000000000000000 .L0 
C:\Users\stapi\AppData\Local\Temp\ccVMeVAo.s:1118   .text.cmd_cancel_connect:0000000000000000 .L0 
C:\Users\stapi\AppData\Local\Temp\ccVMeVAo.s:1119   .text.cmd_cancel_connect:0000000000000008 .L0 
C:\Users\stapi\AppData\Local\Temp\ccVMeVAo.s:1120   .text.cmd_cancel_connect:0000000000000008 .L0 
C:\Users\stapi\AppData\Local\Temp\ccVMeVAo.s:1122   .text.cmd_cancel_connect:0000000000000008 .L0 
C:\Users\stapi\AppData\Local\Temp\ccVMeVAo.s:1123   .text.cmd_cancel_connect:0000000000000008 .L0 
C:\Users\stapi\AppData\Local\Temp\ccVMeVAo.s:1124   .text.cmd_cancel_connect:0000000000000008 .L0 
C:\Users\stapi\AppData\Local\Temp\ccVMeVAo.s:1127   .text.cmd_cancel_connect:0000000000000010 .L0 
C:\Users\stapi\AppData\Local\Temp\ccVMeVAo.s:1128   .text.cmd_cancel_connect:0000000000000010 .L0 
C:\Users\stapi\AppData\Local\Temp\ccVMeVAo.s:1131   .text.cmd_cancel_connect:0000000000000014 .L0 
C:\Users\stapi\AppData\Local\Temp\ccVMeVAo.s:1138   .text.cmd_cancel_connect:0000000000000024 .L0 
C:\Users\stapi\AppData\Local\Temp\ccVMeVAo.s:1139   .text.cmd_cancel_connect:000000000000002c .L0 
C:\Users\stapi\AppData\Local\Temp\ccVMeVAo.s:1140   .text.cmd_cancel_connect:000000000000002c .L0 
C:\Users\stapi\AppData\Local\Temp\ccVMeVAo.s:1141   .text.cmd_cancel_connect:000000000000002c .L0 
C:\Users\stapi\AppData\Local\Temp\ccVMeVAo.s:1157   .text.cmd_connect:0000000000000000 cmd_connect
C:\Users\stapi\AppData\Local\Temp\ccVMeVAo.s:1160   .text.cmd_connect:0000000000000000 .L0 
C:\Users\stapi\AppData\Local\Temp\ccVMeVAo.s:1162   .text.cmd_connect:0000000000000000 .L0 
C:\Users\stapi\AppData\Local\Temp\ccVMeVAo.s:1163   .text.cmd_connect:0000000000000008 .L0 
C:\Users\stapi\AppData\Local\Temp\ccVMeVAo.s:1164   .text.cmd_connect:0000000000000008 .L0 
C:\Users\stapi\AppData\Local\Temp\ccVMeVAo.s:1166   .text.cmd_connect:0000000000000008 .L0 
C:\Users\stapi\AppData\Local\Temp\ccVMeVAo.s:1167   .text.cmd_connect:0000000000000008 .L0 
C:\Users\stapi\AppData\Local\Temp\ccVMeVAo.s:1168   .text.cmd_connect:000000000000000a .L0 
C:\Users\stapi\AppData\Local\Temp\ccVMeVAo.s:1170   .text.cmd_connect:000000000000000a .L0 
C:\Users\stapi\AppData\Local\Temp\ccVMeVAo.s:1173   .text.cmd_connect:000000000000000c .L0 
C:\Users\stapi\AppData\Local\Temp\ccVMeVAo.s:1174   .text.cmd_connect:000000000000000c .L0 
C:\Users\stapi\AppData\Local\Temp\ccVMeVAo.s:1175   .text.cmd_connect:000000000000000c .L0 
C:\Users\stapi\AppData\Local\Temp\ccVMeVAo.s:1176   .text.cmd_connect:000000000000000c .L0 
C:\Users\stapi\AppData\Local\Temp\ccVMeVAo.s:1177   .text.cmd_connect:000000000000000c .L0 
C:\Users\stapi\AppData\Local\Temp\ccVMeVAo.s:1181   .text.cmd_connect:0000000000000012 .L0 
C:\Users\stapi\AppData\Local\Temp\ccVMeVAo.s:1182   .text.cmd_connect:0000000000000012 .L0 
C:\Users\stapi\AppData\Local\Temp\ccVMeVAo.s:1188   .text.cmd_connect:0000000000000022 .L0 
C:\Users\stapi\AppData\Local\Temp\ccVMeVAo.s:1193   .text.cmd_connect:000000000000002a .L0 
C:\Users\stapi\AppData\Local\Temp\ccVMeVAo.s:1197   .text.cmd_connect:0000000000000032 .L0 
C:\Users\stapi\AppData\Local\Temp\ccVMeVAo.s:1198   .text.cmd_connect:0000000000000032 .L0 
C:\Users\stapi\AppData\Local\Temp\ccVMeVAo.s:1199   .text.cmd_connect:0000000000000034 .L0 
C:\Users\stapi\AppData\Local\Temp\ccVMeVAo.s:1200   .text.cmd_connect:0000000000000034 .L0 
C:\Users\stapi\AppData\Local\Temp\ccVMeVAo.s:1202   .text.cmd_connect:000000000000003c .L0 
C:\Users\stapi\AppData\Local\Temp\ccVMeVAo.s:1203   .text.cmd_connect:000000000000003c .L0 
C:\Users\stapi\AppData\Local\Temp\ccVMeVAo.s:1206   .text.cmd_connect:000000000000003c .L0 
C:\Users\stapi\AppData\Local\Temp\ccVMeVAo.s:1209   .text.cmd_connect:000000000000003e .L0 
C:\Users\stapi\AppData\Local\Temp\ccVMeVAo.s:1210   .text.cmd_connect:000000000000003e .L0 
C:\Users\stapi\AppData\Local\Temp\ccVMeVAo.s:1218   .text.cmd_connect:000000000000004c .L0 
C:\Users\stapi\AppData\Local\Temp\ccVMeVAo.s:1219   .text.cmd_connect:000000000000004c .L0 
C:\Users\stapi\AppData\Local\Temp\ccVMeVAo.s:1223   .text.cmd_connect:0000000000000058 .L0 
C:\Users\stapi\AppData\Local\Temp\ccVMeVAo.s:1224   .text.cmd_connect:0000000000000058 .L0 
C:\Users\stapi\AppData\Local\Temp\ccVMeVAo.s:1226   .text.cmd_connect:000000000000005a .L0 
C:\Users\stapi\AppData\Local\Temp\ccVMeVAo.s:1233   .text.cmd_connect:0000000000000064 .L0 
C:\Users\stapi\AppData\Local\Temp\ccVMeVAo.s:1234   .text.cmd_connect:0000000000000064 .L0 
C:\Users\stapi\AppData\Local\Temp\ccVMeVAo.s:1244   .text.cmd_connect:0000000000000078 .L0 
C:\Users\stapi\AppData\Local\Temp\ccVMeVAo.s:1245   .text.cmd_connect:0000000000000078 .L0 
C:\Users\stapi\AppData\Local\Temp\ccVMeVAo.s:1247   .text.cmd_connect:000000000000007a .L0 
C:\Users\stapi\AppData\Local\Temp\ccVMeVAo.s:1253   .text.cmd_connect:000000000000008c .L0 
C:\Users\stapi\AppData\Local\Temp\ccVMeVAo.s:1275   .text.cmd_sync_ctrl:0000000000000000 cmd_sync_ctrl
C:\Users\stapi\AppData\Local\Temp\ccVMeVAo.s:1278   .text.cmd_sync_ctrl:0000000000000000 .L0 
C:\Users\stapi\AppData\Local\Temp\ccVMeVAo.s:1280   .text.cmd_sync_ctrl:0000000000000000 .L0 
C:\Users\stapi\AppData\Local\Temp\ccVMeVAo.s:1281   .text.cmd_sync_ctrl:0000000000000008 .L0 
C:\Users\stapi\AppData\Local\Temp\ccVMeVAo.s:1282   .text.cmd_sync_ctrl:0000000000000008 .L0 
C:\Users\stapi\AppData\Local\Temp\ccVMeVAo.s:1283   .text.cmd_sync_ctrl:0000000000000008 .L0 
C:\Users\stapi\AppData\Local\Temp\ccVMeVAo.s:1284   .text.cmd_sync_ctrl:0000000000000008 .L0 
C:\Users\stapi\AppData\Local\Temp\ccVMeVAo.s:1286   .text.cmd_sync_ctrl:0000000000000008 .L0 
C:\Users\stapi\AppData\Local\Temp\ccVMeVAo.s:1287   .text.cmd_sync_ctrl:0000000000000008 .L0 
C:\Users\stapi\AppData\Local\Temp\ccVMeVAo.s:1288   .text.cmd_sync_ctrl:000000000000000a .L0 
C:\Users\stapi\AppData\Local\Temp\ccVMeVAo.s:1290   .text.cmd_sync_ctrl:000000000000000a .L0 
C:\Users\stapi\AppData\Local\Temp\ccVMeVAo.s:1292   .text.cmd_sync_ctrl:000000000000000c .L0 
C:\Users\stapi\AppData\Local\Temp\ccVMeVAo.s:1293   .text.cmd_sync_ctrl:000000000000000c .L0 
C:\Users\stapi\AppData\Local\Temp\ccVMeVAo.s:1294   .text.cmd_sync_ctrl:000000000000000c .L0 
C:\Users\stapi\AppData\Local\Temp\ccVMeVAo.s:1295   .text.cmd_sync_ctrl:000000000000000c .L0 
C:\Users\stapi\AppData\Local\Temp\ccVMeVAo.s:1296   .text.cmd_sync_ctrl:000000000000000c .L0 
C:\Users\stapi\AppData\Local\Temp\ccVMeVAo.s:1300   .text.cmd_sync_ctrl:0000000000000012 .L0 
C:\Users\stapi\AppData\Local\Temp\ccVMeVAo.s:1301   .text.cmd_sync_ctrl:0000000000000012 .L0 
C:\Users\stapi\AppData\Local\Temp\ccVMeVAo.s:1307   .text.cmd_sync_ctrl:0000000000000022 .L0 
C:\Users\stapi\AppData\Local\Temp\ccVMeVAo.s:1312   .text.cmd_sync_ctrl:0000000000000032 .L0 
C:\Users\stapi\AppData\Local\Temp\ccVMeVAo.s:1317   .text.cmd_sync_ctrl:0000000000000042 .L0 
C:\Users\stapi\AppData\Local\Temp\ccVMeVAo.s:1323   .text.cmd_sync_ctrl:0000000000000052 .L0 
C:\Users\stapi\AppData\Local\Temp\ccVMeVAo.s:1324   .text.cmd_sync_ctrl:0000000000000054 .L0 
C:\Users\stapi\AppData\Local\Temp\ccVMeVAo.s:1325   .text.cmd_sync_ctrl:0000000000000054 .L0 
C:\Users\stapi\AppData\Local\Temp\ccVMeVAo.s:1327   .text.cmd_sync_ctrl:000000000000005c .L0 
C:\Users\stapi\AppData\Local\Temp\ccVMeVAo.s:1328   .text.cmd_sync_ctrl:000000000000005c .L0 
C:\Users\stapi\AppData\Local\Temp\ccVMeVAo.s:1329   .text.cmd_sync_ctrl:000000000000005c .L0 
C:\Users\stapi\AppData\Local\Temp\ccVMeVAo.s:1330   .text.cmd_sync_ctrl:000000000000005c .L0 
C:\Users\stapi\AppData\Local\Temp\ccVMeVAo.s:1333   .text.cmd_sync_ctrl:000000000000005c .L0 
C:\Users\stapi\AppData\Local\Temp\ccVMeVAo.s:1336   .text.cmd_sync_ctrl:000000000000005e .L0 
C:\Users\stapi\AppData\Local\Temp\ccVMeVAo.s:1337   .text.cmd_sync_ctrl:000000000000005e .L0 
C:\Users\stapi\AppData\Local\Temp\ccVMeVAo.s:1347   .text.cmd_sync_ctrl:000000000000006e .L0 
C:\Users\stapi\AppData\Local\Temp\ccVMeVAo.s:1348   .text.cmd_sync_ctrl:000000000000006e .L0 
C:\Users\stapi\AppData\Local\Temp\ccVMeVAo.s:1354   .text.cmd_sync_ctrl:000000000000007c .L0 
C:\Users\stapi\AppData\Local\Temp\ccVMeVAo.s:1355   .text.cmd_sync_ctrl:000000000000007c .L0 
C:\Users\stapi\AppData\Local\Temp\ccVMeVAo.s:1363   .text.cmd_sync_ctrl:000000000000008e .L0 
C:\Users\stapi\AppData\Local\Temp\ccVMeVAo.s:1364   .text.cmd_sync_ctrl:000000000000008e .L0 
C:\Users\stapi\AppData\Local\Temp\ccVMeVAo.s:1366   .text.cmd_sync_ctrl:0000000000000090 .L0 
C:\Users\stapi\AppData\Local\Temp\ccVMeVAo.s:1372   .text.cmd_sync_ctrl:00000000000000a0 .L0 
C:\Users\stapi\AppData\Local\Temp\ccVMeVAo.s:1373   .text.cmd_sync_ctrl:00000000000000a2 .L0 
C:\Users\stapi\AppData\Local\Temp\ccVMeVAo.s:1379   .text.cmd_sync_cancel:0000000000000000 cmd_sync_cancel
C:\Users\stapi\AppData\Local\Temp\ccVMeVAo.s:1382   .text.cmd_sync_cancel:0000000000000000 .L0 
C:\Users\stapi\AppData\Local\Temp\ccVMeVAo.s:1384   .text.cmd_sync_cancel:0000000000000000 .L0 
C:\Users\stapi\AppData\Local\Temp\ccVMeVAo.s:1385   .text.cmd_sync_cancel:0000000000000000 .L0 
C:\Users\stapi\AppData\Local\Temp\ccVMeVAo.s:1387   .text.cmd_sync_cancel:0000000000000008 .L0 
C:\Users\stapi\AppData\Local\Temp\ccVMeVAo.s:1406   .text.cmd_sync:0000000000000000 cmd_sync
C:\Users\stapi\AppData\Local\Temp\ccVMeVAo.s:1409   .text.cmd_sync:0000000000000000 .L0 
C:\Users\stapi\AppData\Local\Temp\ccVMeVAo.s:1411   .text.cmd_sync:0000000000000000 .L0 
C:\Users\stapi\AppData\Local\Temp\ccVMeVAo.s:1412   .text.cmd_sync:0000000000000008 .L0 
C:\Users\stapi\AppData\Local\Temp\ccVMeVAo.s:1413   .text.cmd_sync:0000000000000008 .L0 
C:\Users\stapi\AppData\Local\Temp\ccVMeVAo.s:1414   .text.cmd_sync:0000000000000008 .L0 
C:\Users\stapi\AppData\Local\Temp\ccVMeVAo.s:1416   .text.cmd_sync:0000000000000008 .L0 
C:\Users\stapi\AppData\Local\Temp\ccVMeVAo.s:1417   .text.cmd_sync:0000000000000008 .L0 
C:\Users\stapi\AppData\Local\Temp\ccVMeVAo.s:1418   .text.cmd_sync:000000000000000a .L0 
C:\Users\stapi\AppData\Local\Temp\ccVMeVAo.s:1420   .text.cmd_sync:000000000000000a .L0 
C:\Users\stapi\AppData\Local\Temp\ccVMeVAo.s:1423   .text.cmd_sync:0000000000000010 .L0 
C:\Users\stapi\AppData\Local\Temp\ccVMeVAo.s:1426   .text.cmd_sync:0000000000000016 .L0 
C:\Users\stapi\AppData\Local\Temp\ccVMeVAo.s:1429   .text.cmd_sync:0000000000000018 .L0 
C:\Users\stapi\AppData\Local\Temp\ccVMeVAo.s:1430   .text.cmd_sync:0000000000000018 .L0 
C:\Users\stapi\AppData\Local\Temp\ccVMeVAo.s:1431   .text.cmd_sync:0000000000000018 .L0 
C:\Users\stapi\AppData\Local\Temp\ccVMeVAo.s:1432   .text.cmd_sync:0000000000000018 .L0 
C:\Users\stapi\AppData\Local\Temp\ccVMeVAo.s:1433   .text.cmd_sync:0000000000000018 .L0 
C:\Users\stapi\AppData\Local\Temp\ccVMeVAo.s:1434   .text.cmd_sync:0000000000000018 .L0 
C:\Users\stapi\AppData\Local\Temp\ccVMeVAo.s:1435   .text.cmd_sync:0000000000000018 .L0 
C:\Users\stapi\AppData\Local\Temp\ccVMeVAo.s:1436   .text.cmd_sync:0000000000000018 .L0 
C:\Users\stapi\AppData\Local\Temp\ccVMeVAo.s:1437   .text.cmd_sync:0000000000000018 .L0 
C:\Users\stapi\AppData\Local\Temp\ccVMeVAo.s:1439   .text.cmd_sync:000000000000001c .L0 
C:\Users\stapi\AppData\Local\Temp\ccVMeVAo.s:1440   .text.cmd_sync:000000000000001c .L0 
C:\Users\stapi\AppData\Local\Temp\ccVMeVAo.s:1441   .text.cmd_sync:000000000000001c .L0 
C:\Users\stapi\AppData\Local\Temp\ccVMeVAo.s:1443   .text.cmd_sync:0000000000000020 .L0 
C:\Users\stapi\AppData\Local\Temp\ccVMeVAo.s:1444   .text.cmd_sync:0000000000000020 .L0 
C:\Users\stapi\AppData\Local\Temp\ccVMeVAo.s:1448   .text.cmd_sync:0000000000000026 .L0 
C:\Users\stapi\AppData\Local\Temp\ccVMeVAo.s:1449   .text.cmd_sync:0000000000000026 .L0 
C:\Users\stapi\AppData\Local\Temp\ccVMeVAo.s:1455   .text.cmd_sync:0000000000000036 .L0 
C:\Users\stapi\AppData\Local\Temp\ccVMeVAo.s:1460   .text.cmd_sync:000000000000003e .L0 
C:\Users\stapi\AppData\Local\Temp\ccVMeVAo.s:1464   .text.cmd_sync:0000000000000046 .L0 
C:\Users\stapi\AppData\Local\Temp\ccVMeVAo.s:1465   .text.cmd_sync:0000000000000046 .L0 
C:\Users\stapi\AppData\Local\Temp\ccVMeVAo.s:1466   .text.cmd_sync:0000000000000048 .L0 
C:\Users\stapi\AppData\Local\Temp\ccVMeVAo.s:1467   .text.cmd_sync:0000000000000048 .L0 
C:\Users\stapi\AppData\Local\Temp\ccVMeVAo.s:1469   .text.cmd_sync:0000000000000050 .L0 
C:\Users\stapi\AppData\Local\Temp\ccVMeVAo.s:1470   .text.cmd_sync:0000000000000050 .L0 
C:\Users\stapi\AppData\Local\Temp\ccVMeVAo.s:1471   .text.cmd_sync:0000000000000050 .L0 
C:\Users\stapi\AppData\Local\Temp\ccVMeVAo.s:1474   .text.cmd_sync:0000000000000050 .L0 
C:\Users\stapi\AppData\Local\Temp\ccVMeVAo.s:1477   .text.cmd_sync:0000000000000052 .L0 
C:\Users\stapi\AppData\Local\Temp\ccVMeVAo.s:1478   .text.cmd_sync:0000000000000052 .L0 
C:\Users\stapi\AppData\Local\Temp\ccVMeVAo.s:1486   .text.cmd_sync:0000000000000060 .L0 
C:\Users\stapi\AppData\Local\Temp\ccVMeVAo.s:1487   .text.cmd_sync:0000000000000060 .L0 
C:\Users\stapi\AppData\Local\Temp\ccVMeVAo.s:1493   .text.cmd_sync:000000000000006e .L0 
C:\Users\stapi\AppData\Local\Temp\ccVMeVAo.s:1494   .text.cmd_sync:000000000000006e .L0 
C:\Users\stapi\AppData\Local\Temp\ccVMeVAo.s:1496   .text.cmd_sync:0000000000000070 .L0 
C:\Users\stapi\AppData\Local\Temp\ccVMeVAo.s:1501   .text.cmd_sync:000000000000007a .L0 
C:\Users\stapi\AppData\Local\Temp\ccVMeVAo.s:1502   .text.cmd_sync:000000000000007a .L0 
C:\Users\stapi\AppData\Local\Temp\ccVMeVAo.s:1504   .text.cmd_sync:000000000000007e .L0 
C:\Users\stapi\AppData\Local\Temp\ccVMeVAo.s:1508   .text.cmd_sync:0000000000000088 .L0 
C:\Users\stapi\AppData\Local\Temp\ccVMeVAo.s:1510   .text.cmd_sync:000000000000008c .L0 
C:\Users\stapi\AppData\Local\Temp\ccVMeVAo.s:1513   .text.cmd_sync:0000000000000094 .L0 
C:\Users\stapi\AppData\Local\Temp\ccVMeVAo.s:1514   .text.cmd_sync:0000000000000094 .L0 
C:\Users\stapi\AppData\Local\Temp\ccVMeVAo.s:1516   .text.cmd_sync:0000000000000098 .L0 
C:\Users\stapi\AppData\Local\Temp\ccVMeVAo.s:1519   .text.cmd_sync:000000000000009c .L0 
C:\Users\stapi\AppData\Local\Temp\ccVMeVAo.s:1521   .text.cmd_sync:00000000000000a0 .L0 
C:\Users\stapi\AppData\Local\Temp\ccVMeVAo.s:1522   .text.cmd_sync:00000000000000a0 .L0 
C:\Users\stapi\AppData\Local\Temp\ccVMeVAo.s:1527   .text.cmd_sync:00000000000000aa .L0 
C:\Users\stapi\AppData\Local\Temp\ccVMeVAo.s:1528   .text.cmd_sync:00000000000000aa .L0 
C:\Users\stapi\AppData\Local\Temp\ccVMeVAo.s:1530   .text.cmd_sync:00000000000000ac .L0 
C:\Users\stapi\AppData\Local\Temp\ccVMeVAo.s:1536   .text.cmd_sync:00000000000000be .L0 
C:\Users\stapi\AppData\Local\Temp\ccVMeVAo.s:1542   .text.cmd_list_scan_devs:0000000000000000 cmd_list_scan_devs
C:\Users\stapi\AppData\Local\Temp\ccVMeVAo.s:1545   .text.cmd_list_scan_devs:0000000000000000 .L0 
C:\Users\stapi\AppData\Local\Temp\ccVMeVAo.s:1547   .text.cmd_list_scan_devs:0000000000000000 .L0 
C:\Users\stapi\AppData\Local\Temp\ccVMeVAo.s:1548   .text.cmd_list_scan_devs:0000000000000000 .L0 
C:\Users\stapi\AppData\Local\Temp\ccVMeVAo.s:1550   .text.cmd_list_scan_devs:0000000000000008 .L0 
C:\Users\stapi\AppData\Local\Temp\ccVMeVAo.s:1556   .text.cmd_scan_stop:0000000000000000 cmd_scan_stop
C:\Users\stapi\AppData\Local\Temp\ccVMeVAo.s:1559   .text.cmd_scan_stop:0000000000000000 .L0 
C:\Users\stapi\AppData\Local\Temp\ccVMeVAo.s:1561   .text.cmd_scan_stop:0000000000000000 .L0 
C:\Users\stapi\AppData\Local\Temp\ccVMeVAo.s:1562   .text.cmd_scan_stop:0000000000000000 .L0 
C:\Users\stapi\AppData\Local\Temp\ccVMeVAo.s:1564   .text.cmd_scan_stop:0000000000000008 .L0 
C:\Users\stapi\AppData\Local\Temp\ccVMeVAo.s:1570   .text.cmd_scan:0000000000000000 cmd_scan
C:\Users\stapi\AppData\Local\Temp\ccVMeVAo.s:1573   .text.cmd_scan:0000000000000000 .L0 
C:\Users\stapi\AppData\Local\Temp\ccVMeVAo.s:1575   .text.cmd_scan:0000000000000000 .L0 
C:\Users\stapi\AppData\Local\Temp\ccVMeVAo.s:1576   .text.cmd_scan:0000000000000000 .L0 
C:\Users\stapi\AppData\Local\Temp\ccVMeVAo.s:1580   .text.cmd_scan:000000000000000a .L0 
C:\Users\stapi\AppData\Local\Temp\ccVMeVAo.s:1599   .text.cmd_advertise_stop:0000000000000000 cmd_advertise_stop
C:\Users\stapi\AppData\Local\Temp\ccVMeVAo.s:1602   .text.cmd_advertise_stop:0000000000000000 .L0 
C:\Users\stapi\AppData\Local\Temp\ccVMeVAo.s:1604   .text.cmd_advertise_stop:0000000000000000 .L0 
C:\Users\stapi\AppData\Local\Temp\ccVMeVAo.s:1605   .text.cmd_advertise_stop:0000000000000008 .L0 
C:\Users\stapi\AppData\Local\Temp\ccVMeVAo.s:1606   .text.cmd_advertise_stop:0000000000000008 .L0 
C:\Users\stapi\AppData\Local\Temp\ccVMeVAo.s:1607   .text.cmd_advertise_stop:0000000000000008 .L0 
C:\Users\stapi\AppData\Local\Temp\ccVMeVAo.s:1608   .text.cmd_advertise_stop:0000000000000008 .L0 
C:\Users\stapi\AppData\Local\Temp\ccVMeVAo.s:1609   .text.cmd_advertise_stop:0000000000000008 .L0 
C:\Users\stapi\AppData\Local\Temp\ccVMeVAo.s:1610   .text.cmd_advertise_stop:0000000000000008 .L0 
C:\Users\stapi\AppData\Local\Temp\ccVMeVAo.s:1612   .text.cmd_advertise_stop:0000000000000008 .L0 
C:\Users\stapi\AppData\Local\Temp\ccVMeVAo.s:1613   .text.cmd_advertise_stop:0000000000000008 .L0 
C:\Users\stapi\AppData\Local\Temp\ccVMeVAo.s:1614   .text.cmd_advertise_stop:000000000000000a .L0 
C:\Users\stapi\AppData\Local\Temp\ccVMeVAo.s:1616   .text.cmd_advertise_stop:000000000000000a .L0 
C:\Users\stapi\AppData\Local\Temp\ccVMeVAo.s:1619   .text.cmd_advertise_stop:000000000000000c .L0 
C:\Users\stapi\AppData\Local\Temp\ccVMeVAo.s:1620   .text.cmd_advertise_stop:000000000000000c .L0 
C:\Users\stapi\AppData\Local\Temp\ccVMeVAo.s:1621   .text.cmd_advertise_stop:000000000000000c .L0 
C:\Users\stapi\AppData\Local\Temp\ccVMeVAo.s:1622   .text.cmd_advertise_stop:000000000000000c .L0 
C:\Users\stapi\AppData\Local\Temp\ccVMeVAo.s:1623   .text.cmd_advertise_stop:000000000000000c .L0 
C:\Users\stapi\AppData\Local\Temp\ccVMeVAo.s:1626   .text.cmd_advertise_stop:0000000000000012 .L0 
C:\Users\stapi\AppData\Local\Temp\ccVMeVAo.s:1632   .text.cmd_advertise_stop:000000000000001a .L0 
C:\Users\stapi\AppData\Local\Temp\ccVMeVAo.s:1633   .text.cmd_advertise_stop:000000000000001a .L0 
C:\Users\stapi\AppData\Local\Temp\ccVMeVAo.s:1639   .text.cmd_advertise_stop:000000000000002a .L0 
C:\Users\stapi\AppData\Local\Temp\ccVMeVAo.s:1644   .text.cmd_advertise_stop:000000000000003a .L0 
C:\Users\stapi\AppData\Local\Temp\ccVMeVAo.s:1650   .text.cmd_advertise_stop:000000000000004a .L0 
C:\Users\stapi\AppData\Local\Temp\ccVMeVAo.s:1651   .text.cmd_advertise_stop:000000000000004c .L0 
C:\Users\stapi\AppData\Local\Temp\ccVMeVAo.s:1652   .text.cmd_advertise_stop:000000000000004c .L0 
C:\Users\stapi\AppData\Local\Temp\ccVMeVAo.s:1654   .text.cmd_advertise_stop:0000000000000054 .L0 
C:\Users\stapi\AppData\Local\Temp\ccVMeVAo.s:1655   .text.cmd_advertise_stop:0000000000000054 .L0 
C:\Users\stapi\AppData\Local\Temp\ccVMeVAo.s:1656   .text.cmd_advertise_stop:0000000000000054 .L0 
C:\Users\stapi\AppData\Local\Temp\ccVMeVAo.s:1657   .text.cmd_advertise_stop:0000000000000054 .L0 
C:\Users\stapi\AppData\Local\Temp\ccVMeVAo.s:1658   .text.cmd_advertise_stop:0000000000000054 .L0 
C:\Users\stapi\AppData\Local\Temp\ccVMeVAo.s:1659   .text.cmd_advertise_stop:0000000000000054 .L0 
C:\Users\stapi\AppData\Local\Temp\ccVMeVAo.s:1662   .text.cmd_advertise_stop:0000000000000054 .L0 
C:\Users\stapi\AppData\Local\Temp\ccVMeVAo.s:1665   .text.cmd_advertise_stop:0000000000000056 .L0 
C:\Users\stapi\AppData\Local\Temp\ccVMeVAo.s:1666   .text.cmd_advertise_stop:0000000000000056 .L0 
C:\Users\stapi\AppData\Local\Temp\ccVMeVAo.s:1673   .text.cmd_advertise_stop:0000000000000064 .L0 
C:\Users\stapi\AppData\Local\Temp\ccVMeVAo.s:1676   .text.cmd_advertise_stop:0000000000000068 .L0 
C:\Users\stapi\AppData\Local\Temp\ccVMeVAo.s:1677   .text.cmd_advertise_stop:0000000000000068 .L0 
C:\Users\stapi\AppData\Local\Temp\ccVMeVAo.s:1679   .text.cmd_advertise_stop:000000000000006a .L0 
C:\Users\stapi\AppData\Local\Temp\ccVMeVAo.s:1681   .text.cmd_advertise_stop:000000000000006e .L0 
C:\Users\stapi\AppData\Local\Temp\ccVMeVAo.s:1682   .text.cmd_advertise_stop:000000000000006e .L0 
C:\Users\stapi\AppData\Local\Temp\ccVMeVAo.s:1688   .text.cmd_advertise_stop:000000000000007c .L0 
C:\Users\stapi\AppData\Local\Temp\ccVMeVAo.s:1692   .text.cmd_advertise_stop:0000000000000080 .L0 
C:\Users\stapi\AppData\Local\Temp\ccVMeVAo.s:1693   .text.cmd_advertise_stop:0000000000000080 .L0 
C:\Users\stapi\AppData\Local\Temp\ccVMeVAo.s:1699   .text.cmd_advertise_stop:000000000000008c .L0 
C:\Users\stapi\AppData\Local\Temp\ccVMeVAo.s:1700   .text.cmd_advertise_stop:000000000000008c .L0 
C:\Users\stapi\AppData\Local\Temp\ccVMeVAo.s:1702   .text.cmd_advertise_stop:000000000000008e .L0 
C:\Users\stapi\AppData\Local\Temp\ccVMeVAo.s:1708   .text.cmd_advertise_stop:000000000000009e .L0 
C:\Users\stapi\AppData\Local\Temp\ccVMeVAo.s:1709   .text.cmd_advertise_stop:00000000000000a0 .L0 
C:\Users\stapi\AppData\Local\Temp\ccVMeVAo.s:1731   .text.cmd_advertise:0000000000000000 cmd_advertise
C:\Users\stapi\AppData\Local\Temp\ccVMeVAo.s:1734   .text.cmd_advertise:0000000000000000 .L0 
C:\Users\stapi\AppData\Local\Temp\ccVMeVAo.s:1736   .text.cmd_advertise:0000000000000000 .L0 
C:\Users\stapi\AppData\Local\Temp\ccVMeVAo.s:1737   .text.cmd_advertise:0000000000000008 .L0 
C:\Users\stapi\AppData\Local\Temp\ccVMeVAo.s:1738   .text.cmd_advertise:0000000000000008 .L0 
C:\Users\stapi\AppData\Local\Temp\ccVMeVAo.s:1739   .text.cmd_advertise:0000000000000008 .L0 
C:\Users\stapi\AppData\Local\Temp\ccVMeVAo.s:1740   .text.cmd_advertise:0000000000000008 .L0 
C:\Users\stapi\AppData\Local\Temp\ccVMeVAo.s:1741   .text.cmd_advertise:0000000000000008 .L0 
C:\Users\stapi\AppData\Local\Temp\ccVMeVAo.s:1743   .text.cmd_advertise:0000000000000008 .L0 
C:\Users\stapi\AppData\Local\Temp\ccVMeVAo.s:1744   .text.cmd_advertise:0000000000000008 .L0 
C:\Users\stapi\AppData\Local\Temp\ccVMeVAo.s:1745   .text.cmd_advertise:000000000000000a .L0 
C:\Users\stapi\AppData\Local\Temp\ccVMeVAo.s:1747   .text.cmd_advertise:000000000000000a .L0 
C:\Users\stapi\AppData\Local\Temp\ccVMeVAo.s:1749   .text.cmd_advertise:000000000000000c .L0 
C:\Users\stapi\AppData\Local\Temp\ccVMeVAo.s:1751   .text.cmd_advertise:000000000000000e .L0 
C:\Users\stapi\AppData\Local\Temp\ccVMeVAo.s:1754   .text.cmd_advertise:0000000000000012 .L0 
C:\Users\stapi\AppData\Local\Temp\ccVMeVAo.s:1756   .text.cmd_advertise:0000000000000014 .L0 
C:\Users\stapi\AppData\Local\Temp\ccVMeVAo.s:1758   .text.cmd_advertise:0000000000000016 .L0 
C:\Users\stapi\AppData\Local\Temp\ccVMeVAo.s:1759   .text.cmd_advertise:0000000000000016 .L0 
C:\Users\stapi\AppData\Local\Temp\ccVMeVAo.s:1760   .text.cmd_advertise:0000000000000016 .L0 
C:\Users\stapi\AppData\Local\Temp\ccVMeVAo.s:1761   .text.cmd_advertise:0000000000000016 .L0 
C:\Users\stapi\AppData\Local\Temp\ccVMeVAo.s:1763   .text.cmd_advertise:000000000000001a .L0 
C:\Users\stapi\AppData\Local\Temp\ccVMeVAo.s:1766   .text.cmd_advertise:0000000000000022 .L0 
C:\Users\stapi\AppData\Local\Temp\ccVMeVAo.s:1767   .text.cmd_advertise:0000000000000022 .L0 
C:\Users\stapi\AppData\Local\Temp\ccVMeVAo.s:1769   .text.cmd_advertise:0000000000000026 .L0 
C:\Users\stapi\AppData\Local\Temp\ccVMeVAo.s:1770   .text.cmd_advertise:0000000000000026 .L0 
C:\Users\stapi\AppData\Local\Temp\ccVMeVAo.s:1776   .text.cmd_advertise:0000000000000034 .L0 
C:\Users\stapi\AppData\Local\Temp\ccVMeVAo.s:1778   .text.cmd_advertise:0000000000000038 .L0 
C:\Users\stapi\AppData\Local\Temp\ccVMeVAo.s:1780   .text.cmd_advertise:000000000000003c .L0 
C:\Users\stapi\AppData\Local\Temp\ccVMeVAo.s:1781   .text.cmd_advertise:000000000000003c .L0 
C:\Users\stapi\AppData\Local\Temp\ccVMeVAo.s:1783   .text.cmd_advertise:0000000000000040 .L0 
C:\Users\stapi\AppData\Local\Temp\ccVMeVAo.s:1784   .text.cmd_advertise:0000000000000040 .L0 
C:\Users\stapi\AppData\Local\Temp\ccVMeVAo.s:1786   .text.cmd_advertise:0000000000000042 .L0 
C:\Users\stapi\AppData\Local\Temp\ccVMeVAo.s:1787   .text.cmd_advertise:0000000000000042 .L0 
C:\Users\stapi\AppData\Local\Temp\ccVMeVAo.s:1790   .text.cmd_advertise:0000000000000044 .L0 
C:\Users\stapi\AppData\Local\Temp\ccVMeVAo.s:1791   .text.cmd_advertise:0000000000000044 .L0 
C:\Users\stapi\AppData\Local\Temp\ccVMeVAo.s:1794   .text.cmd_advertise:0000000000000048 .L0 
C:\Users\stapi\AppData\Local\Temp\ccVMeVAo.s:1795   .text.cmd_advertise:0000000000000048 .L0 
C:\Users\stapi\AppData\Local\Temp\ccVMeVAo.s:1796   .text.cmd_advertise:0000000000000048 .L0 
C:\Users\stapi\AppData\Local\Temp\ccVMeVAo.s:1797   .text.cmd_advertise:0000000000000048 .L0 
C:\Users\stapi\AppData\Local\Temp\ccVMeVAo.s:1798   .text.cmd_advertise:0000000000000048 .L0 
C:\Users\stapi\AppData\Local\Temp\ccVMeVAo.s:1799   .text.cmd_advertise:0000000000000048 .L0 
C:\Users\stapi\AppData\Local\Temp\ccVMeVAo.s:1802   .text.cmd_advertise:000000000000004e .L0 
C:\Users\stapi\AppData\Local\Temp\ccVMeVAo.s:1805   .text.cmd_advertise:0000000000000054 .L0 
C:\Users\stapi\AppData\Local\Temp\ccVMeVAo.s:1806   .text.cmd_advertise:0000000000000054 .L0 
C:\Users\stapi\AppData\Local\Temp\ccVMeVAo.s:1808   .text.cmd_advertise:0000000000000056 .L0 
C:\Users\stapi\AppData\Local\Temp\ccVMeVAo.s:1811   .text.cmd_advertise:000000000000005c .L0 
C:\Users\stapi\AppData\Local\Temp\ccVMeVAo.s:1812   .text.cmd_advertise:000000000000005c .L0 
C:\Users\stapi\AppData\Local\Temp\ccVMeVAo.s:1817   .text.cmd_advertise:0000000000000066 .L0 
C:\Users\stapi\AppData\Local\Temp\ccVMeVAo.s:1818   .text.cmd_advertise:0000000000000066 .L0 
C:\Users\stapi\AppData\Local\Temp\ccVMeVAo.s:1820   .text.cmd_advertise:0000000000000068 .L0 
C:\Users\stapi\AppData\Local\Temp\ccVMeVAo.s:1826   .text.cmd_advertise:0000000000000070 .L0 
C:\Users\stapi\AppData\Local\Temp\ccVMeVAo.s:1830   .text.cmd_advertise:0000000000000078 .L0 
C:\Users\stapi\AppData\Local\Temp\ccVMeVAo.s:1831   .text.cmd_advertise:000000000000007a .L0 
C:\Users\stapi\AppData\Local\Temp\ccVMeVAo.s:1832   .text.cmd_advertise:000000000000007a .L0 
C:\Users\stapi\AppData\Local\Temp\ccVMeVAo.s:1834   .text.cmd_advertise:0000000000000082 .L0 
C:\Users\stapi\AppData\Local\Temp\ccVMeVAo.s:1835   .text.cmd_advertise:0000000000000082 .L0 
C:\Users\stapi\AppData\Local\Temp\ccVMeVAo.s:1836   .text.cmd_advertise:0000000000000082 .L0 
C:\Users\stapi\AppData\Local\Temp\ccVMeVAo.s:1837   .text.cmd_advertise:0000000000000082 .L0 
C:\Users\stapi\AppData\Local\Temp\ccVMeVAo.s:1838   .text.cmd_advertise:0000000000000082 .L0 
C:\Users\stapi\AppData\Local\Temp\ccVMeVAo.s:1840   .text.cmd_advertise:0000000000000082 .L0 
C:\Users\stapi\AppData\Local\Temp\ccVMeVAo.s:1842   .text.cmd_advertise:0000000000000082 .L0 
C:\Users\stapi\AppData\Local\Temp\ccVMeVAo.s:1843   .text.cmd_advertise:0000000000000082 .L0 
C:\Users\stapi\AppData\Local\Temp\ccVMeVAo.s:1846   .text.cmd_advertise:0000000000000088 .L0 
C:\Users\stapi\AppData\Local\Temp\ccVMeVAo.s:1847   .text.cmd_advertise:0000000000000088 .L0 
C:\Users\stapi\AppData\Local\Temp\ccVMeVAo.s:1852   .text.cmd_advertise:000000000000008e .L0 
C:\Users\stapi\AppData\Local\Temp\ccVMeVAo.s:1857   .text.cmd_advertise:000000000000009e .L0 
C:\Users\stapi\AppData\Local\Temp\ccVMeVAo.s:1862   .text.cmd_advertise:00000000000000ae .L0 
C:\Users\stapi\AppData\Local\Temp\ccVMeVAo.s:1867   .text.cmd_advertise:00000000000000be .L0 
C:\Users\stapi\AppData\Local\Temp\ccVMeVAo.s:1871   .text.cmd_advertise:00000000000000cc .L0 
C:\Users\stapi\AppData\Local\Temp\ccVMeVAo.s:1877   .text.cmd_ble_enable:0000000000000000 cmd_ble_enable
C:\Users\stapi\AppData\Local\Temp\ccVMeVAo.s:1880   .text.cmd_ble_enable:0000000000000000 .L0 
C:\Users\stapi\AppData\Local\Temp\ccVMeVAo.s:1882   .text.cmd_ble_enable:0000000000000000 .L0 
C:\Users\stapi\AppData\Local\Temp\ccVMeVAo.s:1883   .text.cmd_ble_enable:0000000000000000 .L0 
C:\Users\stapi\AppData\Local\Temp\ccVMeVAo.s:1885   .text.cmd_ble_enable:0000000000000008 .L0 
C:\Users\stapi\AppData\Local\Temp\ccVMeVAo.s:1898   .text.cmd_ble_courier_wifi:0000000000000000 cmd_ble_courier_wifi
C:\Users\stapi\AppData\Local\Temp\ccVMeVAo.s:1901   .text.cmd_ble_courier_wifi:0000000000000000 .L0 
C:\Users\stapi\AppData\Local\Temp\ccVMeVAo.s:1903   .text.cmd_ble_courier_wifi:0000000000000000 .L0 
C:\Users\stapi\AppData\Local\Temp\ccVMeVAo.s:1904   .text.cmd_ble_courier_wifi:0000000000000008 .L0 
C:\Users\stapi\AppData\Local\Temp\ccVMeVAo.s:1905   .text.cmd_ble_courier_wifi:0000000000000008 .L0 
C:\Users\stapi\AppData\Local\Temp\ccVMeVAo.s:1906   .text.cmd_ble_courier_wifi:0000000000000008 .L0 
C:\Users\stapi\AppData\Local\Temp\ccVMeVAo.s:1908   .text.cmd_ble_courier_wifi:0000000000000008 .L0 
C:\Users\stapi\AppData\Local\Temp\ccVMeVAo.s:1909   .text.cmd_ble_courier_wifi:0000000000000008 .L0 
C:\Users\stapi\AppData\Local\Temp\ccVMeVAo.s:1910   .text.cmd_ble_courier_wifi:000000000000000a .L0 
C:\Users\stapi\AppData\Local\Temp\ccVMeVAo.s:1912   .text.cmd_ble_courier_wifi:000000000000000a .L0 
C:\Users\stapi\AppData\Local\Temp\ccVMeVAo.s:1914   .text.cmd_ble_courier_wifi:000000000000000c .L0 
C:\Users\stapi\AppData\Local\Temp\ccVMeVAo.s:1915   .text.cmd_ble_courier_wifi:000000000000000c .L0 
C:\Users\stapi\AppData\Local\Temp\ccVMeVAo.s:1916   .text.cmd_ble_courier_wifi:000000000000000c .L0 
C:\Users\stapi\AppData\Local\Temp\ccVMeVAo.s:1917   .text.cmd_ble_courier_wifi:000000000000000c .L0 
C:\Users\stapi\AppData\Local\Temp\ccVMeVAo.s:1920   .text.cmd_ble_courier_wifi:0000000000000012 .L0 
C:\Users\stapi\AppData\Local\Temp\ccVMeVAo.s:1927   .text.cmd_ble_courier_wifi:0000000000000022 .L0 
C:\Users\stapi\AppData\Local\Temp\ccVMeVAo.s:1928   .text.cmd_ble_courier_wifi:0000000000000022 .L0 
C:\Users\stapi\AppData\Local\Temp\ccVMeVAo.s:1929   .text.cmd_ble_courier_wifi:0000000000000024 .L0 
C:\Users\stapi\AppData\Local\Temp\ccVMeVAo.s:1930   .text.cmd_ble_courier_wifi:0000000000000024 .L0 
C:\Users\stapi\AppData\Local\Temp\ccVMeVAo.s:1932   .text.cmd_ble_courier_wifi:000000000000002c .L0 
C:\Users\stapi\AppData\Local\Temp\ccVMeVAo.s:1933   .text.cmd_ble_courier_wifi:000000000000002c .L0 
C:\Users\stapi\AppData\Local\Temp\ccVMeVAo.s:1934   .text.cmd_ble_courier_wifi:000000000000002c .L0 
C:\Users\stapi\AppData\Local\Temp\ccVMeVAo.s:1937   .text.cmd_ble_courier_wifi:000000000000002c .L0 
C:\Users\stapi\AppData\Local\Temp\ccVMeVAo.s:1940   .text.cmd_ble_courier_wifi:000000000000002e .L0 
C:\Users\stapi\AppData\Local\Temp\ccVMeVAo.s:1941   .text.cmd_ble_courier_wifi:000000000000002e .L0 
C:\Users\stapi\AppData\Local\Temp\ccVMeVAo.s:1949   .text.cmd_ble_courier_wifi:000000000000003c .L0 
C:\Users\stapi\AppData\Local\Temp\ccVMeVAo.s:1952   .text.cmd_ble_courier_wifi:0000000000000040 .L0 
C:\Users\stapi\AppData\Local\Temp\ccVMeVAo.s:1953   .text.cmd_ble_courier_wifi:0000000000000040 .L0 
C:\Users\stapi\AppData\Local\Temp\ccVMeVAo.s:1955   .text.cmd_ble_courier_wifi:0000000000000042 .L0 
C:\Users\stapi\AppData\Local\Temp\ccVMeVAo.s:1957   .text.cmd_ble_courier_wifi:0000000000000044 .L0 
C:\Users\stapi\AppData\Local\Temp\ccVMeVAo.s:1958   .text.cmd_ble_courier_wifi:0000000000000044 .L0 
C:\Users\stapi\AppData\Local\Temp\ccVMeVAo.s:1961   .text.cmd_ble_courier_wifi:000000000000004c .L0 
C:\Users\stapi\AppData\Local\Temp\ccVMeVAo.s:1963   .text.cmd_ble_courier_wifi:000000000000004e .L0 
C:\Users\stapi\AppData\Local\Temp\ccVMeVAo.s:1967   .text.cmd_ble_courier_wifi:0000000000000056 .L0 
C:\Users\stapi\AppData\Local\Temp\ccVMeVAo.s:1968   .text.cmd_ble_courier_wifi:0000000000000056 .L0 
C:\Users\stapi\AppData\Local\Temp\ccVMeVAo.s:1971   .text.cmd_ble_courier_wifi:0000000000000058 .L0 
C:\Users\stapi\AppData\Local\Temp\ccVMeVAo.s:1976   .text.cmd_ble_courier_wifi:0000000000000062 .L0 
C:\Users\stapi\AppData\Local\Temp\ccVMeVAo.s:1982   .text.cmd_ble_courier_wifi:0000000000000074 .L0 
C:\Users\stapi\AppData\Local\Temp\ccVMeVAo.s:2004   .text.cmd_ble_ps:0000000000000000 cmd_ble_ps
C:\Users\stapi\AppData\Local\Temp\ccVMeVAo.s:2007   .text.cmd_ble_ps:0000000000000000 .L0 
C:\Users\stapi\AppData\Local\Temp\ccVMeVAo.s:2009   .text.cmd_ble_ps:0000000000000000 .L0 
C:\Users\stapi\AppData\Local\Temp\ccVMeVAo.s:2010   .text.cmd_ble_ps:0000000000000008 .L0 
C:\Users\stapi\AppData\Local\Temp\ccVMeVAo.s:2011   .text.cmd_ble_ps:0000000000000008 .L0 
C:\Users\stapi\AppData\Local\Temp\ccVMeVAo.s:2013   .text.cmd_ble_ps:0000000000000008 .L0 
C:\Users\stapi\AppData\Local\Temp\ccVMeVAo.s:2014   .text.cmd_ble_ps:0000000000000008 .L0 
C:\Users\stapi\AppData\Local\Temp\ccVMeVAo.s:2015   .text.cmd_ble_ps:000000000000000a .L0 
C:\Users\stapi\AppData\Local\Temp\ccVMeVAo.s:2017   .text.cmd_ble_ps:000000000000000a .L0 
C:\Users\stapi\AppData\Local\Temp\ccVMeVAo.s:2019   .text.cmd_ble_ps:000000000000000c .L0 
C:\Users\stapi\AppData\Local\Temp\ccVMeVAo.s:2020   .text.cmd_ble_ps:000000000000000c .L0 
C:\Users\stapi\AppData\Local\Temp\ccVMeVAo.s:2021   .text.cmd_ble_ps:000000000000000c .L0 
C:\Users\stapi\AppData\Local\Temp\ccVMeVAo.s:2025   .text.cmd_ble_ps:0000000000000014 .L0 
C:\Users\stapi\AppData\Local\Temp\ccVMeVAo.s:2026   .text.cmd_ble_ps:0000000000000014 .L0 
C:\Users\stapi\AppData\Local\Temp\ccVMeVAo.s:2034   .text.cmd_ble_ps:0000000000000022 .L0 
C:\Users\stapi\AppData\Local\Temp\ccVMeVAo.s:2037   .text.cmd_ble_ps:0000000000000026 .L0 
C:\Users\stapi\AppData\Local\Temp\ccVMeVAo.s:2038   .text.cmd_ble_ps:0000000000000026 .L0 
C:\Users\stapi\AppData\Local\Temp\ccVMeVAo.s:2041   .text.cmd_ble_ps:000000000000002c .L0 
C:\Users\stapi\AppData\Local\Temp\ccVMeVAo.s:2044   .text.cmd_ble_ps:0000000000000034 .L0 
C:\Users\stapi\AppData\Local\Temp\ccVMeVAo.s:2053   .text.cmd_ble_ps:000000000000004e .L0 
C:\Users\stapi\AppData\Local\Temp\ccVMeVAo.s:2054   .text.cmd_ble_ps:000000000000004e .L0 
C:\Users\stapi\AppData\Local\Temp\ccVMeVAo.s:2055   .text.cmd_ble_ps:0000000000000050 .L0 
C:\Users\stapi\AppData\Local\Temp\ccVMeVAo.s:2056   .text.cmd_ble_ps:0000000000000050 .L0 
C:\Users\stapi\AppData\Local\Temp\ccVMeVAo.s:2058   .text.cmd_ble_ps:0000000000000058 .L0 
C:\Users\stapi\AppData\Local\Temp\ccVMeVAo.s:2059   .text.cmd_ble_ps:0000000000000058 .L0 
C:\Users\stapi\AppData\Local\Temp\ccVMeVAo.s:2061   .text.cmd_ble_ps:0000000000000058 .L0 
C:\Users\stapi\AppData\Local\Temp\ccVMeVAo.s:2064   .text.cmd_ble_ps:0000000000000058 .L0 
C:\Users\stapi\AppData\Local\Temp\ccVMeVAo.s:2072   .text.cmd_ble_ps:0000000000000072 .L0 
C:\Users\stapi\AppData\Local\Temp\ccVMeVAo.s:2077   .text.cmd_ble_ps:0000000000000082 .L0 
C:\Users\stapi\AppData\Local\Temp\ccVMeVAo.s:2082   .text.cmd_ble_ps:0000000000000092 .L0 
C:\Users\stapi\AppData\Local\Temp\ccVMeVAo.s:2087   .text.cmd_ble_ps:00000000000000a4 .L0 
C:\Users\stapi\AppData\Local\Temp\ccVMeVAo.s:2093   .text.cmd_ble_disable:0000000000000000 cmd_ble_disable
C:\Users\stapi\AppData\Local\Temp\ccVMeVAo.s:2096   .text.cmd_ble_disable:0000000000000000 .L0 
C:\Users\stapi\AppData\Local\Temp\ccVMeVAo.s:2098   .text.cmd_ble_disable:0000000000000000 .L0 
C:\Users\stapi\AppData\Local\Temp\ccVMeVAo.s:2099   .text.cmd_ble_disable:0000000000000000 .L0 
C:\Users\stapi\AppData\Local\Temp\ccVMeVAo.s:2101   .text.cmd_ble_disable:0000000000000008 .L0 
C:\Users\stapi\AppData\Local\Temp\ccVMeVAo.s:2118   .text.cmd_ble_get_handle_cb:0000000000000000 cmd_ble_get_handle_cb
C:\Users\stapi\AppData\Local\Temp\ccVMeVAo.s:2121   .text.cmd_ble_get_handle_cb:0000000000000000 .L0 
C:\Users\stapi\AppData\Local\Temp\ccVMeVAo.s:2123   .text.cmd_ble_get_handle_cb:0000000000000000 .L0 
C:\Users\stapi\AppData\Local\Temp\ccVMeVAo.s:2124   .text.cmd_ble_get_handle_cb:0000000000000008 .L0 
C:\Users\stapi\AppData\Local\Temp\ccVMeVAo.s:2125   .text.cmd_ble_get_handle_cb:0000000000000008 .L0 
C:\Users\stapi\AppData\Local\Temp\ccVMeVAo.s:2126   .text.cmd_ble_get_handle_cb:0000000000000008 .L0 
C:\Users\stapi\AppData\Local\Temp\ccVMeVAo.s:2127   .text.cmd_ble_get_handle_cb:0000000000000008 .L0 
C:\Users\stapi\AppData\Local\Temp\ccVMeVAo.s:2128   .text.cmd_ble_get_handle_cb:0000000000000008 .L0 
C:\Users\stapi\AppData\Local\Temp\ccVMeVAo.s:2129   .text.cmd_ble_get_handle_cb:0000000000000008 .L0 
C:\Users\stapi\AppData\Local\Temp\ccVMeVAo.s:2131   .text.cmd_ble_get_handle_cb:0000000000000008 .L0 
C:\Users\stapi\AppData\Local\Temp\ccVMeVAo.s:2133   .text.cmd_ble_get_handle_cb:0000000000000008 .L0 
C:\Users\stapi\AppData\Local\Temp\ccVMeVAo.s:2134   .text.cmd_ble_get_handle_cb:0000000000000008 .L0 
C:\Users\stapi\AppData\Local\Temp\ccVMeVAo.s:2135   .text.cmd_ble_get_handle_cb:0000000000000008 .L0 
C:\Users\stapi\AppData\Local\Temp\ccVMeVAo.s:2138   .text.cmd_ble_get_handle_cb:000000000000000c .L0 
C:\Users\stapi\AppData\Local\Temp\ccVMeVAo.s:2141   .text.cmd_ble_get_handle_cb:0000000000000014 .L0 
C:\Users\stapi\AppData\Local\Temp\ccVMeVAo.s:2143   .text.cmd_ble_get_handle_cb:0000000000000016 .L0 
C:\Users\stapi\AppData\Local\Temp\ccVMeVAo.s:2149   .text.cmd_ble_get_handle_cb:0000000000000028 .L0 
C:\Users\stapi\AppData\Local\Temp\ccVMeVAo.s:2151   .text.cmd_ble_get_handle_cb:000000000000002a .L0 
C:\Users\stapi\AppData\Local\Temp\ccVMeVAo.s:2157   .text.cmd_ble_get_handle_cb:000000000000003c .L0 
C:\Users\stapi\AppData\Local\Temp\ccVMeVAo.s:2159   .text.cmd_ble_get_handle_cb:000000000000003e .L0 
C:\Users\stapi\AppData\Local\Temp\ccVMeVAo.s:2164   .text.cmd_ble_get_handle_cb:000000000000004e .L0 
C:\Users\stapi\AppData\Local\Temp\ccVMeVAo.s:2165   .text.cmd_ble_get_handle_cb:000000000000004e .L0 
C:\Users\stapi\AppData\Local\Temp\ccVMeVAo.s:2169   .text.cmd_ble_get_handle_cb:0000000000000050 .L0 
C:\Users\stapi\AppData\Local\Temp\ccVMeVAo.s:2170   .text.cmd_ble_get_handle_cb:0000000000000058 .L0 
C:\Users\stapi\AppData\Local\Temp\ccVMeVAo.s:2171   .text.cmd_ble_get_handle_cb:0000000000000058 .L0 
C:\Users\stapi\AppData\Local\Temp\ccVMeVAo.s:2172   .text.cmd_ble_get_handle_cb:0000000000000058 .L0 
C:\Users\stapi\AppData\Local\Temp\ccVMeVAo.s:2173   .text.cmd_ble_get_handle_cb:0000000000000058 .L0 
C:\Users\stapi\AppData\Local\Temp\ccVMeVAo.s:2174   .text.cmd_ble_get_handle_cb:0000000000000058 .L0 
C:\Users\stapi\AppData\Local\Temp\ccVMeVAo.s:2175   .text.cmd_ble_get_handle_cb:0000000000000058 .L0 
C:\Users\stapi\AppData\Local\Temp\ccVMeVAo.s:2176   .text.cmd_ble_get_handle_cb:0000000000000058 .L0 
C:\Users\stapi\AppData\Local\Temp\ccVMeVAo.s:2179   .text.cmd_ble_get_handle_cb:0000000000000058 .L0 
C:\Users\stapi\AppData\Local\Temp\ccVMeVAo.s:2181   .text.cmd_ble_get_handle_cb:0000000000000058 .L0 
C:\Users\stapi\AppData\Local\Temp\ccVMeVAo.s:2182   .text.cmd_ble_get_handle_cb:0000000000000058 .L0 
C:\Users\stapi\AppData\Local\Temp\ccVMeVAo.s:2187   .text.cmd_ble_get_handle_cb:0000000000000064 .L0 
C:\Users\stapi\AppData\Local\Temp\ccVMeVAo.s:2189   .text.cmd_ble_get_handle_cb:0000000000000066 .L0 
C:\Users\stapi\AppData\Local\Temp\ccVMeVAo.s:2190   .text.cmd_ble_get_handle_cb:0000000000000066 .L0 
C:\Users\stapi\AppData\Local\Temp\ccVMeVAo.s:2193   .text.cmd_ble_get_handle_cb:000000000000006a .L0 
C:\Users\stapi\AppData\Local\Temp\ccVMeVAo.s:2194   .text.cmd_ble_get_handle_cb:000000000000006a .L0 
C:\Users\stapi\AppData\Local\Temp\ccVMeVAo.s:2195   .text.cmd_ble_get_handle_cb:000000000000006a .L0 
C:\Users\stapi\AppData\Local\Temp\ccVMeVAo.s:2196   .text.cmd_ble_get_handle_cb:000000000000006a .L0 
C:\Users\stapi\AppData\Local\Temp\ccVMeVAo.s:2203   .text.cmd_ble_get_handle_cb:0000000000000076 .L0 
C:\Users\stapi\AppData\Local\Temp\ccVMeVAo.s:2204   .text.cmd_ble_get_handle_cb:0000000000000076 .L0 
C:\Users\stapi\AppData\Local\Temp\ccVMeVAo.s:2208   .text.cmd_ble_get_handle_cb:0000000000000078 .L0 
C:\Users\stapi\AppData\Local\Temp\ccVMeVAo.s:2209   .text.cmd_ble_get_handle_cb:0000000000000078 .L0 
C:\Users\stapi\AppData\Local\Temp\ccVMeVAo.s:2211   .text.cmd_ble_get_handle_cb:000000000000007c .L0 
C:\Users\stapi\AppData\Local\Temp\ccVMeVAo.s:2213   .text.cmd_ble_get_handle_cb:0000000000000080 .L0 
C:\Users\stapi\AppData\Local\Temp\ccVMeVAo.s:2220   .text.cmd_ble_get_handle_cb:000000000000008e .L0 
C:\Users\stapi\AppData\Local\Temp\ccVMeVAo.s:2233   .text.cmd_get_phy:0000000000000000 cmd_get_phy
C:\Users\stapi\AppData\Local\Temp\ccVMeVAo.s:2236   .text.cmd_get_phy:0000000000000000 .L0 
C:\Users\stapi\AppData\Local\Temp\ccVMeVAo.s:2238   .text.cmd_get_phy:0000000000000000 .L0 
C:\Users\stapi\AppData\Local\Temp\ccVMeVAo.s:2239   .text.cmd_get_phy:0000000000000008 .L0 
C:\Users\stapi\AppData\Local\Temp\ccVMeVAo.s:2240   .text.cmd_get_phy:0000000000000008 .L0 
C:\Users\stapi\AppData\Local\Temp\ccVMeVAo.s:2242   .text.cmd_get_phy:0000000000000008 .L0 
C:\Users\stapi\AppData\Local\Temp\ccVMeVAo.s:2243   .text.cmd_get_phy:0000000000000008 .L0 
C:\Users\stapi\AppData\Local\Temp\ccVMeVAo.s:2244   .text.cmd_get_phy:000000000000000a .L0 
C:\Users\stapi\AppData\Local\Temp\ccVMeVAo.s:2246   .text.cmd_get_phy:000000000000000a .L0 
C:\Users\stapi\AppData\Local\Temp\ccVMeVAo.s:2248   .text.cmd_get_phy:000000000000000c .L0 
C:\Users\stapi\AppData\Local\Temp\ccVMeVAo.s:2249   .text.cmd_get_phy:000000000000000c .L0 
C:\Users\stapi\AppData\Local\Temp\ccVMeVAo.s:2250   .text.cmd_get_phy:000000000000000c .L0 
C:\Users\stapi\AppData\Local\Temp\ccVMeVAo.s:2251   .text.cmd_get_phy:000000000000000c .L0 
C:\Users\stapi\AppData\Local\Temp\ccVMeVAo.s:2258   .text.cmd_get_phy:0000000000000012 .L0 
C:\Users\stapi\AppData\Local\Temp\ccVMeVAo.s:2259   .text.cmd_get_phy:0000000000000012 .L0 
C:\Users\stapi\AppData\Local\Temp\ccVMeVAo.s:2265   .text.cmd_get_phy:0000000000000022 .L0 
C:\Users\stapi\AppData\Local\Temp\ccVMeVAo.s:2273   .text.cmd_get_phy:0000000000000032 .L0 
C:\Users\stapi\AppData\Local\Temp\ccVMeVAo.s:2274   .text.cmd_get_phy:0000000000000034 .L0 
C:\Users\stapi\AppData\Local\Temp\ccVMeVAo.s:2275   .text.cmd_get_phy:0000000000000034 .L0 
C:\Users\stapi\AppData\Local\Temp\ccVMeVAo.s:2277   .text.cmd_get_phy:000000000000003c .L0 
C:\Users\stapi\AppData\Local\Temp\ccVMeVAo.s:2278   .text.cmd_get_phy:000000000000003c .L0 
C:\Users\stapi\AppData\Local\Temp\ccVMeVAo.s:2281   .text.cmd_get_phy:000000000000003c .L0 
C:\Users\stapi\AppData\Local\Temp\ccVMeVAo.s:2284   .text.cmd_get_phy:000000000000003e .L0 
C:\Users\stapi\AppData\Local\Temp\ccVMeVAo.s:2285   .text.cmd_get_phy:000000000000003e .L0 
C:\Users\stapi\AppData\Local\Temp\ccVMeVAo.s:2293   .text.cmd_get_phy:000000000000004c .L0 
C:\Users\stapi\AppData\Local\Temp\ccVMeVAo.s:2294   .text.cmd_get_phy:000000000000004c .L0 
C:\Users\stapi\AppData\Local\Temp\ccVMeVAo.s:2300   .text.cmd_get_phy:000000000000005a .L0 
C:\Users\stapi\AppData\Local\Temp\ccVMeVAo.s:2301   .text.cmd_get_phy:000000000000005a .L0 
C:\Users\stapi\AppData\Local\Temp\ccVMeVAo.s:2303   .text.cmd_get_phy:000000000000005c .L0 
C:\Users\stapi\AppData\Local\Temp\ccVMeVAo.s:2309   .text.cmd_get_phy:000000000000006c .L0 
C:\Users\stapi\AppData\Local\Temp\ccVMeVAo.s:2310   .text.cmd_get_phy:000000000000006e .L0 
C:\Users\stapi\AppData\Local\Temp\ccVMeVAo.s:2329   .text.cmd_set_dev_name:0000000000000000 cmd_set_dev_name
C:\Users\stapi\AppData\Local\Temp\ccVMeVAo.s:2332   .text.cmd_set_dev_name:0000000000000000 .L0 
C:\Users\stapi\AppData\Local\Temp\ccVMeVAo.s:2334   .text.cmd_set_dev_name:0000000000000000 .L0 
C:\Users\stapi\AppData\Local\Temp\ccVMeVAo.s:2335   .text.cmd_set_dev_name:0000000000000008 .L0 
C:\Users\stapi\AppData\Local\Temp\ccVMeVAo.s:2336   .text.cmd_set_dev_name:0000000000000008 .L0 
C:\Users\stapi\AppData\Local\Temp\ccVMeVAo.s:2337   .text.cmd_set_dev_name:0000000000000008 .L0 
C:\Users\stapi\AppData\Local\Temp\ccVMeVAo.s:2338   .text.cmd_set_dev_name:0000000000000008 .L0 
C:\Users\stapi\AppData\Local\Temp\ccVMeVAo.s:2340   .text.cmd_set_dev_name:0000000000000008 .L0 
C:\Users\stapi\AppData\Local\Temp\ccVMeVAo.s:2341   .text.cmd_set_dev_name:0000000000000008 .L0 
C:\Users\stapi\AppData\Local\Temp\ccVMeVAo.s:2345   .text.cmd_set_dev_name:000000000000000e .L0 
C:\Users\stapi\AppData\Local\Temp\ccVMeVAo.s:2346   .text.cmd_set_dev_name:000000000000000e .L0 
C:\Users\stapi\AppData\Local\Temp\ccVMeVAo.s:2352   .text.cmd_set_dev_name:000000000000001e .L0 
C:\Users\stapi\AppData\Local\Temp\ccVMeVAo.s:2356   .text.cmd_set_dev_name:0000000000000026 .L0 
C:\Users\stapi\AppData\Local\Temp\ccVMeVAo.s:2360   .text.cmd_set_dev_name:000000000000002e .L0 
C:\Users\stapi\AppData\Local\Temp\ccVMeVAo.s:2361   .text.cmd_set_dev_name:000000000000002e .L0 
C:\Users\stapi\AppData\Local\Temp\ccVMeVAo.s:2362   .text.cmd_set_dev_name:0000000000000036 .L0 
C:\Users\stapi\AppData\Local\Temp\ccVMeVAo.s:2363   .text.cmd_set_dev_name:0000000000000036 .L0 
C:\Users\stapi\AppData\Local\Temp\ccVMeVAo.s:2364   .text.cmd_set_dev_name:0000000000000036 .L0 
C:\Users\stapi\AppData\Local\Temp\ccVMeVAo.s:2365   .text.cmd_set_dev_name:0000000000000036 .L0 
C:\Users\stapi\AppData\Local\Temp\ccVMeVAo.s:2366   .text.cmd_set_dev_name:0000000000000036 .L0 
C:\Users\stapi\AppData\Local\Temp\ccVMeVAo.s:2369   .text.cmd_set_dev_name:0000000000000036 .L0 
C:\Users\stapi\AppData\Local\Temp\ccVMeVAo.s:2371   .text.cmd_set_dev_name:0000000000000036 .L0 
C:\Users\stapi\AppData\Local\Temp\ccVMeVAo.s:2374   .text.cmd_set_dev_name:000000000000003a .L0 
C:\Users\stapi\AppData\Local\Temp\ccVMeVAo.s:2375   .text.cmd_set_dev_name:000000000000003a .L0 
C:\Users\stapi\AppData\Local\Temp\ccVMeVAo.s:2380   .text.cmd_set_dev_name:0000000000000044 .L0 
C:\Users\stapi\AppData\Local\Temp\ccVMeVAo.s:2385   .text.cmd_set_dev_name:0000000000000052 .L0 
C:\Users\stapi\AppData\Local\Temp\ccVMeVAo.s:2387   .text.cmd_set_dev_name:0000000000000054 .L0 
C:\Users\stapi\AppData\Local\Temp\ccVMeVAo.s:2395   .text.cmd_set_dev_name:000000000000005e .L0 
C:\Users\stapi\AppData\Local\Temp\ccVMeVAo.s:2398   .text.cmd_set_dev_name:0000000000000066 .L0 
C:\Users\stapi\AppData\Local\Temp\ccVMeVAo.s:2404   .text.cmd_set_dev_name:0000000000000078 .L0 
C:\Users\stapi\AppData\Local\Temp\ccVMeVAo.s:2407   .text.cmd_set_dev_name:000000000000007a .L0 
C:\Users\stapi\AppData\Local\Temp\ccVMeVAo.s:2420   .text.cmd_get_rssi:0000000000000000 cmd_get_rssi
C:\Users\stapi\AppData\Local\Temp\ccVMeVAo.s:2423   .text.cmd_get_rssi:0000000000000000 .L0 
C:\Users\stapi\AppData\Local\Temp\ccVMeVAo.s:2425   .text.cmd_get_rssi:0000000000000000 .L0 
C:\Users\stapi\AppData\Local\Temp\ccVMeVAo.s:2426   .text.cmd_get_rssi:0000000000000008 .L0 
C:\Users\stapi\AppData\Local\Temp\ccVMeVAo.s:2427   .text.cmd_get_rssi:0000000000000008 .L0 
C:\Users\stapi\AppData\Local\Temp\ccVMeVAo.s:2429   .text.cmd_get_rssi:0000000000000008 .L0 
C:\Users\stapi\AppData\Local\Temp\ccVMeVAo.s:2430   .text.cmd_get_rssi:0000000000000008 .L0 
C:\Users\stapi\AppData\Local\Temp\ccVMeVAo.s:2431   .text.cmd_get_rssi:000000000000000a .L0 
C:\Users\stapi\AppData\Local\Temp\ccVMeVAo.s:2433   .text.cmd_get_rssi:000000000000000a .L0 
C:\Users\stapi\AppData\Local\Temp\ccVMeVAo.s:2435   .text.cmd_get_rssi:000000000000000c .L0 
C:\Users\stapi\AppData\Local\Temp\ccVMeVAo.s:2436   .text.cmd_get_rssi:000000000000000c .L0 
C:\Users\stapi\AppData\Local\Temp\ccVMeVAo.s:2437   .text.cmd_get_rssi:000000000000000c .L0 
C:\Users\stapi\AppData\Local\Temp\ccVMeVAo.s:2438   .text.cmd_get_rssi:000000000000000c .L0 
C:\Users\stapi\AppData\Local\Temp\ccVMeVAo.s:2445   .text.cmd_get_rssi:0000000000000012 .L0 
C:\Users\stapi\AppData\Local\Temp\ccVMeVAo.s:2446   .text.cmd_get_rssi:0000000000000012 .L0 
C:\Users\stapi\AppData\Local\Temp\ccVMeVAo.s:2452   .text.cmd_get_rssi:0000000000000022 .L0 
C:\Users\stapi\AppData\Local\Temp\ccVMeVAo.s:2460   .text.cmd_get_rssi:0000000000000032 .L0 
C:\Users\stapi\AppData\Local\Temp\ccVMeVAo.s:2461   .text.cmd_get_rssi:0000000000000034 .L0 
C:\Users\stapi\AppData\Local\Temp\ccVMeVAo.s:2462   .text.cmd_get_rssi:0000000000000034 .L0 
C:\Users\stapi\AppData\Local\Temp\ccVMeVAo.s:2464   .text.cmd_get_rssi:000000000000003c .L0 
C:\Users\stapi\AppData\Local\Temp\ccVMeVAo.s:2465   .text.cmd_get_rssi:000000000000003c .L0 
C:\Users\stapi\AppData\Local\Temp\ccVMeVAo.s:2468   .text.cmd_get_rssi:000000000000003c .L0 
C:\Users\stapi\AppData\Local\Temp\ccVMeVAo.s:2471   .text.cmd_get_rssi:000000000000003e .L0 
C:\Users\stapi\AppData\Local\Temp\ccVMeVAo.s:2472   .text.cmd_get_rssi:000000000000003e .L0 
C:\Users\stapi\AppData\Local\Temp\ccVMeVAo.s:2480   .text.cmd_get_rssi:000000000000004c .L0 
C:\Users\stapi\AppData\Local\Temp\ccVMeVAo.s:2481   .text.cmd_get_rssi:000000000000004c .L0 
C:\Users\stapi\AppData\Local\Temp\ccVMeVAo.s:2487   .text.cmd_get_rssi:000000000000005a .L0 
C:\Users\stapi\AppData\Local\Temp\ccVMeVAo.s:2488   .text.cmd_get_rssi:000000000000005a .L0 
C:\Users\stapi\AppData\Local\Temp\ccVMeVAo.s:2490   .text.cmd_get_rssi:000000000000005c .L0 
C:\Users\stapi\AppData\Local\Temp\ccVMeVAo.s:2496   .text.cmd_get_rssi:000000000000006c .L0 
C:\Users\stapi\AppData\Local\Temp\ccVMeVAo.s:2497   .text.cmd_get_rssi:000000000000006e .L0 
C:\Users\stapi\AppData\Local\Temp\ccVMeVAo.s:2510   .text.cmd_ble_peer_ver:0000000000000000 cmd_ble_peer_ver
C:\Users\stapi\AppData\Local\Temp\ccVMeVAo.s:2513   .text.cmd_ble_peer_ver:0000000000000000 .L0 
C:\Users\stapi\AppData\Local\Temp\ccVMeVAo.s:2515   .text.cmd_ble_peer_ver:0000000000000000 .L0 
C:\Users\stapi\AppData\Local\Temp\ccVMeVAo.s:2516   .text.cmd_ble_peer_ver:0000000000000008 .L0 
C:\Users\stapi\AppData\Local\Temp\ccVMeVAo.s:2517   .text.cmd_ble_peer_ver:0000000000000008 .L0 
C:\Users\stapi\AppData\Local\Temp\ccVMeVAo.s:2520   .text.cmd_ble_peer_ver:0000000000000008 .L0 
C:\Users\stapi\AppData\Local\Temp\ccVMeVAo.s:2521   .text.cmd_ble_peer_ver:0000000000000008 .L0 
C:\Users\stapi\AppData\Local\Temp\ccVMeVAo.s:2522   .text.cmd_ble_peer_ver:0000000000000008 .L0 
C:\Users\stapi\AppData\Local\Temp\ccVMeVAo.s:2523   .text.cmd_ble_peer_ver:000000000000000a .L0 
C:\Users\stapi\AppData\Local\Temp\ccVMeVAo.s:2525   .text.cmd_ble_peer_ver:000000000000000a .L0 
C:\Users\stapi\AppData\Local\Temp\ccVMeVAo.s:2527   .text.cmd_ble_peer_ver:000000000000000c .L0 
C:\Users\stapi\AppData\Local\Temp\ccVMeVAo.s:2528   .text.cmd_ble_peer_ver:000000000000000c .L0 
C:\Users\stapi\AppData\Local\Temp\ccVMeVAo.s:2529   .text.cmd_ble_peer_ver:000000000000000c .L0 
C:\Users\stapi\AppData\Local\Temp\ccVMeVAo.s:2536   .text.cmd_ble_peer_ver:0000000000000012 .L0 
C:\Users\stapi\AppData\Local\Temp\ccVMeVAo.s:2537   .text.cmd_ble_peer_ver:0000000000000012 .L0 
C:\Users\stapi\AppData\Local\Temp\ccVMeVAo.s:2543   .text.cmd_ble_peer_ver:0000000000000022 .L0 
C:\Users\stapi\AppData\Local\Temp\ccVMeVAo.s:2551   .text.cmd_ble_peer_ver:0000000000000032 .L0 
C:\Users\stapi\AppData\Local\Temp\ccVMeVAo.s:2552   .text.cmd_ble_peer_ver:0000000000000034 .L0 
C:\Users\stapi\AppData\Local\Temp\ccVMeVAo.s:2553   .text.cmd_ble_peer_ver:0000000000000034 .L0 
C:\Users\stapi\AppData\Local\Temp\ccVMeVAo.s:2555   .text.cmd_ble_peer_ver:000000000000003c .L0 
C:\Users\stapi\AppData\Local\Temp\ccVMeVAo.s:2556   .text.cmd_ble_peer_ver:000000000000003c .L0 
C:\Users\stapi\AppData\Local\Temp\ccVMeVAo.s:2559   .text.cmd_ble_peer_ver:000000000000003c .L0 
C:\Users\stapi\AppData\Local\Temp\ccVMeVAo.s:2562   .text.cmd_ble_peer_ver:000000000000003e .L0 
C:\Users\stapi\AppData\Local\Temp\ccVMeVAo.s:2563   .text.cmd_ble_peer_ver:000000000000003e .L0 
C:\Users\stapi\AppData\Local\Temp\ccVMeVAo.s:2571   .text.cmd_ble_peer_ver:000000000000004c .L0 
C:\Users\stapi\AppData\Local\Temp\ccVMeVAo.s:2572   .text.cmd_ble_peer_ver:000000000000004c .L0 
C:\Users\stapi\AppData\Local\Temp\ccVMeVAo.s:2578   .text.cmd_ble_peer_ver:000000000000005a .L0 
C:\Users\stapi\AppData\Local\Temp\ccVMeVAo.s:2579   .text.cmd_ble_peer_ver:000000000000005a .L0 
C:\Users\stapi\AppData\Local\Temp\ccVMeVAo.s:2581   .text.cmd_ble_peer_ver:000000000000005c .L0 
C:\Users\stapi\AppData\Local\Temp\ccVMeVAo.s:2587   .text.cmd_ble_peer_ver:000000000000006c .L0 
C:\Users\stapi\AppData\Local\Temp\ccVMeVAo.s:2588   .text.cmd_ble_peer_ver:000000000000006e .L0 
C:\Users\stapi\AppData\Local\Temp\ccVMeVAo.s:2601   .text.cmd_ble_peer_feat:0000000000000000 cmd_ble_peer_feat
C:\Users\stapi\AppData\Local\Temp\ccVMeVAo.s:2604   .text.cmd_ble_peer_feat:0000000000000000 .L0 
C:\Users\stapi\AppData\Local\Temp\ccVMeVAo.s:2606   .text.cmd_ble_peer_feat:0000000000000000 .L0 
C:\Users\stapi\AppData\Local\Temp\ccVMeVAo.s:2607   .text.cmd_ble_peer_feat:0000000000000008 .L0 
C:\Users\stapi\AppData\Local\Temp\ccVMeVAo.s:2608   .text.cmd_ble_peer_feat:0000000000000008 .L0 
C:\Users\stapi\AppData\Local\Temp\ccVMeVAo.s:2611   .text.cmd_ble_peer_feat:0000000000000008 .L0 
C:\Users\stapi\AppData\Local\Temp\ccVMeVAo.s:2612   .text.cmd_ble_peer_feat:0000000000000008 .L0 
C:\Users\stapi\AppData\Local\Temp\ccVMeVAo.s:2613   .text.cmd_ble_peer_feat:0000000000000008 .L0 
C:\Users\stapi\AppData\Local\Temp\ccVMeVAo.s:2614   .text.cmd_ble_peer_feat:000000000000000a .L0 
C:\Users\stapi\AppData\Local\Temp\ccVMeVAo.s:2616   .text.cmd_ble_peer_feat:000000000000000a .L0 
C:\Users\stapi\AppData\Local\Temp\ccVMeVAo.s:2618   .text.cmd_ble_peer_feat:000000000000000c .L0 
C:\Users\stapi\AppData\Local\Temp\ccVMeVAo.s:2619   .text.cmd_ble_peer_feat:000000000000000c .L0 
C:\Users\stapi\AppData\Local\Temp\ccVMeVAo.s:2620   .text.cmd_ble_peer_feat:000000000000000c .L0 
C:\Users\stapi\AppData\Local\Temp\ccVMeVAo.s:2627   .text.cmd_ble_peer_feat:0000000000000012 .L0 
C:\Users\stapi\AppData\Local\Temp\ccVMeVAo.s:2628   .text.cmd_ble_peer_feat:0000000000000012 .L0 
C:\Users\stapi\AppData\Local\Temp\ccVMeVAo.s:2634   .text.cmd_ble_peer_feat:0000000000000022 .L0 
C:\Users\stapi\AppData\Local\Temp\ccVMeVAo.s:2642   .text.cmd_ble_peer_feat:0000000000000032 .L0 
C:\Users\stapi\AppData\Local\Temp\ccVMeVAo.s:2643   .text.cmd_ble_peer_feat:0000000000000034 .L0 
C:\Users\stapi\AppData\Local\Temp\ccVMeVAo.s:2644   .text.cmd_ble_peer_feat:0000000000000034 .L0 
C:\Users\stapi\AppData\Local\Temp\ccVMeVAo.s:2646   .text.cmd_ble_peer_feat:000000000000003c .L0 
C:\Users\stapi\AppData\Local\Temp\ccVMeVAo.s:2647   .text.cmd_ble_peer_feat:000000000000003c .L0 
C:\Users\stapi\AppData\Local\Temp\ccVMeVAo.s:2650   .text.cmd_ble_peer_feat:000000000000003c .L0 
C:\Users\stapi\AppData\Local\Temp\ccVMeVAo.s:2653   .text.cmd_ble_peer_feat:000000000000003e .L0 
C:\Users\stapi\AppData\Local\Temp\ccVMeVAo.s:2654   .text.cmd_ble_peer_feat:000000000000003e .L0 
C:\Users\stapi\AppData\Local\Temp\ccVMeVAo.s:2662   .text.cmd_ble_peer_feat:000000000000004c .L0 
C:\Users\stapi\AppData\Local\Temp\ccVMeVAo.s:2663   .text.cmd_ble_peer_feat:000000000000004c .L0 
C:\Users\stapi\AppData\Local\Temp\ccVMeVAo.s:2669   .text.cmd_ble_peer_feat:000000000000005a .L0 
C:\Users\stapi\AppData\Local\Temp\ccVMeVAo.s:2670   .text.cmd_ble_peer_feat:000000000000005a .L0 
C:\Users\stapi\AppData\Local\Temp\ccVMeVAo.s:2672   .text.cmd_ble_peer_feat:000000000000005c .L0 
C:\Users\stapi\AppData\Local\Temp\ccVMeVAo.s:2678   .text.cmd_ble_peer_feat:000000000000006c .L0 
C:\Users\stapi\AppData\Local\Temp\ccVMeVAo.s:2679   .text.cmd_ble_peer_feat:000000000000006e .L0 
C:\Users\stapi\AppData\Local\Temp\ccVMeVAo.s:2695   .text.cmd_compare:0000000000000000 cmd_compare
C:\Users\stapi\AppData\Local\Temp\ccVMeVAo.s:2698   .text.cmd_compare:0000000000000000 .L0 
C:\Users\stapi\AppData\Local\Temp\ccVMeVAo.s:2700   .text.cmd_compare:0000000000000000 .L0 
C:\Users\stapi\AppData\Local\Temp\ccVMeVAo.s:2701   .text.cmd_compare:0000000000000008 .L0 
C:\Users\stapi\AppData\Local\Temp\ccVMeVAo.s:2702   .text.cmd_compare:0000000000000008 .L0 
C:\Users\stapi\AppData\Local\Temp\ccVMeVAo.s:2703   .text.cmd_compare:0000000000000008 .L0 
C:\Users\stapi\AppData\Local\Temp\ccVMeVAo.s:2704   .text.cmd_compare:0000000000000008 .L0 
C:\Users\stapi\AppData\Local\Temp\ccVMeVAo.s:2706   .text.cmd_compare:0000000000000008 .L0 
C:\Users\stapi\AppData\Local\Temp\ccVMeVAo.s:2707   .text.cmd_compare:0000000000000008 .L0 
C:\Users\stapi\AppData\Local\Temp\ccVMeVAo.s:2708   .text.cmd_compare:000000000000000a .L0 
C:\Users\stapi\AppData\Local\Temp\ccVMeVAo.s:2710   .text.cmd_compare:000000000000000a .L0 
C:\Users\stapi\AppData\Local\Temp\ccVMeVAo.s:2712   .text.cmd_compare:000000000000000c .L0 
C:\Users\stapi\AppData\Local\Temp\ccVMeVAo.s:2714   .text.cmd_compare:000000000000000c .L0 
C:\Users\stapi\AppData\Local\Temp\ccVMeVAo.s:2715   .text.cmd_compare:000000000000000c .L0 
C:\Users\stapi\AppData\Local\Temp\ccVMeVAo.s:2716   .text.cmd_compare:000000000000000c .L0 
C:\Users\stapi\AppData\Local\Temp\ccVMeVAo.s:2723   .text.cmd_compare:0000000000000012 .L0 
C:\Users\stapi\AppData\Local\Temp\ccVMeVAo.s:2724   .text.cmd_compare:0000000000000012 .L0 
C:\Users\stapi\AppData\Local\Temp\ccVMeVAo.s:2730   .text.cmd_compare:0000000000000022 .L0 
C:\Users\stapi\AppData\Local\Temp\ccVMeVAo.s:2735   .text.cmd_compare:0000000000000032 .L0 
C:\Users\stapi\AppData\Local\Temp\ccVMeVAo.s:2743   .text.cmd_compare:0000000000000042 .L0 
C:\Users\stapi\AppData\Local\Temp\ccVMeVAo.s:2744   .text.cmd_compare:0000000000000044 .L0 
C:\Users\stapi\AppData\Local\Temp\ccVMeVAo.s:2745   .text.cmd_compare:0000000000000044 .L0 
C:\Users\stapi\AppData\Local\Temp\ccVMeVAo.s:2747   .text.cmd_compare:000000000000004c .L0 
C:\Users\stapi\AppData\Local\Temp\ccVMeVAo.s:2748   .text.cmd_compare:000000000000004c .L0 
C:\Users\stapi\AppData\Local\Temp\ccVMeVAo.s:2749   .text.cmd_compare:000000000000004c .L0 
C:\Users\stapi\AppData\Local\Temp\ccVMeVAo.s:2750   .text.cmd_compare:000000000000004c .L0 
C:\Users\stapi\AppData\Local\Temp\ccVMeVAo.s:2753   .text.cmd_compare:000000000000004c .L0 
C:\Users\stapi\AppData\Local\Temp\ccVMeVAo.s:2756   .text.cmd_compare:000000000000004e .L0 
C:\Users\stapi\AppData\Local\Temp\ccVMeVAo.s:2757   .text.cmd_compare:000000000000004e .L0 
C:\Users\stapi\AppData\Local\Temp\ccVMeVAo.s:2767   .text.cmd_compare:000000000000005e .L0 
C:\Users\stapi\AppData\Local\Temp\ccVMeVAo.s:2768   .text.cmd_compare:000000000000005e .L0 
C:\Users\stapi\AppData\Local\Temp\ccVMeVAo.s:2774   .text.cmd_compare:000000000000006c .L0 
C:\Users\stapi\AppData\Local\Temp\ccVMeVAo.s:2780   .text.cmd_compare:000000000000007c .L0 
C:\Users\stapi\AppData\Local\Temp\ccVMeVAo.s:2781   .text.cmd_compare:000000000000007e .L0 
C:\Users\stapi\AppData\Local\Temp\ccVMeVAo.s:2794   .text.cmd_encrypt:0000000000000000 cmd_encrypt
C:\Users\stapi\AppData\Local\Temp\ccVMeVAo.s:2797   .text.cmd_encrypt:0000000000000000 .L0 
C:\Users\stapi\AppData\Local\Temp\ccVMeVAo.s:2799   .text.cmd_encrypt:0000000000000000 .L0 
C:\Users\stapi\AppData\Local\Temp\ccVMeVAo.s:2800   .text.cmd_encrypt:0000000000000008 .L0 
C:\Users\stapi\AppData\Local\Temp\ccVMeVAo.s:2801   .text.cmd_encrypt:0000000000000008 .L0 
C:\Users\stapi\AppData\Local\Temp\ccVMeVAo.s:2803   .text.cmd_encrypt:0000000000000008 .L0 
C:\Users\stapi\AppData\Local\Temp\ccVMeVAo.s:2804   .text.cmd_encrypt:0000000000000008 .L0 
C:\Users\stapi\AppData\Local\Temp\ccVMeVAo.s:2805   .text.cmd_encrypt:000000000000000a .L0 
C:\Users\stapi\AppData\Local\Temp\ccVMeVAo.s:2807   .text.cmd_encrypt:000000000000000a .L0 
C:\Users\stapi\AppData\Local\Temp\ccVMeVAo.s:2810   .text.cmd_encrypt:000000000000000c .L0 
C:\Users\stapi\AppData\Local\Temp\ccVMeVAo.s:2811   .text.cmd_encrypt:000000000000000c .L0 
C:\Users\stapi\AppData\Local\Temp\ccVMeVAo.s:2812   .text.cmd_encrypt:000000000000000c .L0 
C:\Users\stapi\AppData\Local\Temp\ccVMeVAo.s:2819   .text.cmd_encrypt:0000000000000012 .L0 
C:\Users\stapi\AppData\Local\Temp\ccVMeVAo.s:2820   .text.cmd_encrypt:0000000000000012 .L0 
C:\Users\stapi\AppData\Local\Temp\ccVMeVAo.s:2826   .text.cmd_encrypt:0000000000000022 .L0 
C:\Users\stapi\AppData\Local\Temp\ccVMeVAo.s:2834   .text.cmd_encrypt:0000000000000032 .L0 
C:\Users\stapi\AppData\Local\Temp\ccVMeVAo.s:2835   .text.cmd_encrypt:0000000000000034 .L0 
C:\Users\stapi\AppData\Local\Temp\ccVMeVAo.s:2836   .text.cmd_encrypt:0000000000000034 .L0 
C:\Users\stapi\AppData\Local\Temp\ccVMeVAo.s:2838   .text.cmd_encrypt:000000000000003c .L0 
C:\Users\stapi\AppData\Local\Temp\ccVMeVAo.s:2839   .text.cmd_encrypt:000000000000003c .L0 
C:\Users\stapi\AppData\Local\Temp\ccVMeVAo.s:2842   .text.cmd_encrypt:000000000000003c .L0 
C:\Users\stapi\AppData\Local\Temp\ccVMeVAo.s:2845   .text.cmd_encrypt:000000000000003e .L0 
C:\Users\stapi\AppData\Local\Temp\ccVMeVAo.s:2846   .text.cmd_encrypt:000000000000003e .L0 
C:\Users\stapi\AppData\Local\Temp\ccVMeVAo.s:2854   .text.cmd_encrypt:000000000000004c .L0 
C:\Users\stapi\AppData\Local\Temp\ccVMeVAo.s:2858   .text.cmd_encrypt:0000000000000058 .L0 
C:\Users\stapi\AppData\Local\Temp\ccVMeVAo.s:2859   .text.cmd_encrypt:000000000000005a .L0 
C:\Users\stapi\AppData\Local\Temp\ccVMeVAo.s:2875   .text.cmd_disconnect:0000000000000000 cmd_disconnect
C:\Users\stapi\AppData\Local\Temp\ccVMeVAo.s:2878   .text.cmd_disconnect:0000000000000000 .L0 
C:\Users\stapi\AppData\Local\Temp\ccVMeVAo.s:2880   .text.cmd_disconnect:0000000000000000 .L0 
C:\Users\stapi\AppData\Local\Temp\ccVMeVAo.s:2881   .text.cmd_disconnect:0000000000000008 .L0 
C:\Users\stapi\AppData\Local\Temp\ccVMeVAo.s:2882   .text.cmd_disconnect:0000000000000008 .L0 
C:\Users\stapi\AppData\Local\Temp\ccVMeVAo.s:2884   .text.cmd_disconnect:0000000000000008 .L0 
C:\Users\stapi\AppData\Local\Temp\ccVMeVAo.s:2885   .text.cmd_disconnect:0000000000000008 .L0 
C:\Users\stapi\AppData\Local\Temp\ccVMeVAo.s:2886   .text.cmd_disconnect:000000000000000a .L0 
C:\Users\stapi\AppData\Local\Temp\ccVMeVAo.s:2888   .text.cmd_disconnect:000000000000000a .L0 
C:\Users\stapi\AppData\Local\Temp\ccVMeVAo.s:2891   .text.cmd_disconnect:000000000000000c .L0 
C:\Users\stapi\AppData\Local\Temp\ccVMeVAo.s:2892   .text.cmd_disconnect:000000000000000c .L0 
C:\Users\stapi\AppData\Local\Temp\ccVMeVAo.s:2893   .text.cmd_disconnect:000000000000000c .L0 
C:\Users\stapi\AppData\Local\Temp\ccVMeVAo.s:2894   .text.cmd_disconnect:000000000000000c .L0 
C:\Users\stapi\AppData\Local\Temp\ccVMeVAo.s:2901   .text.cmd_disconnect:0000000000000012 .L0 
C:\Users\stapi\AppData\Local\Temp\ccVMeVAo.s:2902   .text.cmd_disconnect:0000000000000012 .L0 
C:\Users\stapi\AppData\Local\Temp\ccVMeVAo.s:2908   .text.cmd_disconnect:0000000000000022 .L0 
C:\Users\stapi\AppData\Local\Temp\ccVMeVAo.s:2916   .text.cmd_disconnect:0000000000000032 .L0 
C:\Users\stapi\AppData\Local\Temp\ccVMeVAo.s:2917   .text.cmd_disconnect:0000000000000034 .L0 
C:\Users\stapi\AppData\Local\Temp\ccVMeVAo.s:2918   .text.cmd_disconnect:0000000000000034 .L0 
C:\Users\stapi\AppData\Local\Temp\ccVMeVAo.s:2920   .text.cmd_disconnect:000000000000003c .L0 
C:\Users\stapi\AppData\Local\Temp\ccVMeVAo.s:2921   .text.cmd_disconnect:000000000000003c .L0 
C:\Users\stapi\AppData\Local\Temp\ccVMeVAo.s:2924   .text.cmd_disconnect:000000000000003c .L0 
C:\Users\stapi\AppData\Local\Temp\ccVMeVAo.s:2927   .text.cmd_disconnect:000000000000003e .L0 
C:\Users\stapi\AppData\Local\Temp\ccVMeVAo.s:2928   .text.cmd_disconnect:000000000000003e .L0 
C:\Users\stapi\AppData\Local\Temp\ccVMeVAo.s:2936   .text.cmd_disconnect:000000000000004c .L0 
C:\Users\stapi\AppData\Local\Temp\ccVMeVAo.s:2937   .text.cmd_disconnect:000000000000004c .L0 
C:\Users\stapi\AppData\Local\Temp\ccVMeVAo.s:2944   .text.cmd_disconnect:000000000000005c .L0 
C:\Users\stapi\AppData\Local\Temp\ccVMeVAo.s:2945   .text.cmd_disconnect:000000000000005c .L0 
C:\Users\stapi\AppData\Local\Temp\ccVMeVAo.s:2947   .text.cmd_disconnect:000000000000005e .L0 
C:\Users\stapi\AppData\Local\Temp\ccVMeVAo.s:2953   .text.cmd_disconnect:000000000000006e .L0 
C:\Users\stapi\AppData\Local\Temp\ccVMeVAo.s:2954   .text.cmd_disconnect:0000000000000070 .L0 
C:\Users\stapi\AppData\Local\Temp\ccVMeVAo.s:2964   .text.cmd_sync_terminate:0000000000000000 cmd_sync_terminate
C:\Users\stapi\AppData\Local\Temp\ccVMeVAo.s:2967   .text.cmd_sync_terminate:0000000000000000 .L0 
C:\Users\stapi\AppData\Local\Temp\ccVMeVAo.s:2969   .text.cmd_sync_terminate:0000000000000000 .L0 
C:\Users\stapi\AppData\Local\Temp\ccVMeVAo.s:2970   .text.cmd_sync_terminate:0000000000000008 .L0 
C:\Users\stapi\AppData\Local\Temp\ccVMeVAo.s:2971   .text.cmd_sync_terminate:0000000000000008 .L0 
C:\Users\stapi\AppData\Local\Temp\ccVMeVAo.s:2973   .text.cmd_sync_terminate:0000000000000008 .L0 
C:\Users\stapi\AppData\Local\Temp\ccVMeVAo.s:2974   .text.cmd_sync_terminate:0000000000000008 .L0 
C:\Users\stapi\AppData\Local\Temp\ccVMeVAo.s:2975   .text.cmd_sync_terminate:000000000000000a .L0 
C:\Users\stapi\AppData\Local\Temp\ccVMeVAo.s:2977   .text.cmd_sync_terminate:000000000000000a .L0 
C:\Users\stapi\AppData\Local\Temp\ccVMeVAo.s:2979   .text.cmd_sync_terminate:000000000000000c .L0 
C:\Users\stapi\AppData\Local\Temp\ccVMeVAo.s:2980   .text.cmd_sync_terminate:000000000000000c .L0 
C:\Users\stapi\AppData\Local\Temp\ccVMeVAo.s:2981   .text.cmd_sync_terminate:000000000000000c .L0 
C:\Users\stapi\AppData\Local\Temp\ccVMeVAo.s:2988   .text.cmd_sync_terminate:0000000000000012 .L0 
C:\Users\stapi\AppData\Local\Temp\ccVMeVAo.s:2989   .text.cmd_sync_terminate:0000000000000012 .L0 
C:\Users\stapi\AppData\Local\Temp\ccVMeVAo.s:2995   .text.cmd_sync_terminate:0000000000000022 .L0 
C:\Users\stapi\AppData\Local\Temp\ccVMeVAo.s:3003   .text.cmd_sync_terminate:0000000000000032 .L0 
C:\Users\stapi\AppData\Local\Temp\ccVMeVAo.s:3004   .text.cmd_sync_terminate:0000000000000034 .L0 
C:\Users\stapi\AppData\Local\Temp\ccVMeVAo.s:3005   .text.cmd_sync_terminate:0000000000000034 .L0 
C:\Users\stapi\AppData\Local\Temp\ccVMeVAo.s:3007   .text.cmd_sync_terminate:000000000000003c .L0 
C:\Users\stapi\AppData\Local\Temp\ccVMeVAo.s:3008   .text.cmd_sync_terminate:000000000000003c .L0 
C:\Users\stapi\AppData\Local\Temp\ccVMeVAo.s:3011   .text.cmd_sync_terminate:000000000000003c .L0 
C:\Users\stapi\AppData\Local\Temp\ccVMeVAo.s:3014   .text.cmd_sync_terminate:000000000000003e .L0 
C:\Users\stapi\AppData\Local\Temp\ccVMeVAo.s:3015   .text.cmd_sync_terminate:000000000000003e .L0 
C:\Users\stapi\AppData\Local\Temp\ccVMeVAo.s:3023   .text.cmd_sync_terminate:000000000000004c .L0 
C:\Users\stapi\AppData\Local\Temp\ccVMeVAo.s:3027   .text.cmd_sync_terminate:0000000000000058 .L0 
C:\Users\stapi\AppData\Local\Temp\ccVMeVAo.s:3028   .text.cmd_sync_terminate:000000000000005a .L0 
C:\Users\stapi\AppData\Local\Temp\ccVMeVAo.s:3044   .text.cmd_advertise_restart:0000000000000000 cmd_advertise_restart
C:\Users\stapi\AppData\Local\Temp\ccVMeVAo.s:3047   .text.cmd_advertise_restart:0000000000000000 .L0 
C:\Users\stapi\AppData\Local\Temp\ccVMeVAo.s:3049   .text.cmd_advertise_restart:0000000000000000 .L0 
C:\Users\stapi\AppData\Local\Temp\ccVMeVAo.s:3050   .text.cmd_advertise_restart:0000000000000008 .L0 
C:\Users\stapi\AppData\Local\Temp\ccVMeVAo.s:3051   .text.cmd_advertise_restart:0000000000000008 .L0 
C:\Users\stapi\AppData\Local\Temp\ccVMeVAo.s:3053   .text.cmd_advertise_restart:0000000000000008 .L0 
C:\Users\stapi\AppData\Local\Temp\ccVMeVAo.s:3054   .text.cmd_advertise_restart:0000000000000008 .L0 
C:\Users\stapi\AppData\Local\Temp\ccVMeVAo.s:3055   .text.cmd_advertise_restart:000000000000000a .L0 
C:\Users\stapi\AppData\Local\Temp\ccVMeVAo.s:3057   .text.cmd_advertise_restart:000000000000000a .L0 
C:\Users\stapi\AppData\Local\Temp\ccVMeVAo.s:3060   .text.cmd_advertise_restart:000000000000000c .L0 
C:\Users\stapi\AppData\Local\Temp\ccVMeVAo.s:3061   .text.cmd_advertise_restart:000000000000000c .L0 
C:\Users\stapi\AppData\Local\Temp\ccVMeVAo.s:3062   .text.cmd_advertise_restart:000000000000000c .L0 
C:\Users\stapi\AppData\Local\Temp\ccVMeVAo.s:3063   .text.cmd_advertise_restart:000000000000000c .L0 
C:\Users\stapi\AppData\Local\Temp\ccVMeVAo.s:3070   .text.cmd_advertise_restart:0000000000000012 .L0 
C:\Users\stapi\AppData\Local\Temp\ccVMeVAo.s:3071   .text.cmd_advertise_restart:0000000000000012 .L0 
C:\Users\stapi\AppData\Local\Temp\ccVMeVAo.s:3077   .text.cmd_advertise_restart:0000000000000022 .L0 
C:\Users\stapi\AppData\Local\Temp\ccVMeVAo.s:3085   .text.cmd_advertise_restart:0000000000000032 .L0 
C:\Users\stapi\AppData\Local\Temp\ccVMeVAo.s:3086   .text.cmd_advertise_restart:0000000000000034 .L0 
C:\Users\stapi\AppData\Local\Temp\ccVMeVAo.s:3087   .text.cmd_advertise_restart:0000000000000034 .L0 
C:\Users\stapi\AppData\Local\Temp\ccVMeVAo.s:3089   .text.cmd_advertise_restart:000000000000003c .L0 
C:\Users\stapi\AppData\Local\Temp\ccVMeVAo.s:3090   .text.cmd_advertise_restart:000000000000003c .L0 
C:\Users\stapi\AppData\Local\Temp\ccVMeVAo.s:3093   .text.cmd_advertise_restart:000000000000003c .L0 
C:\Users\stapi\AppData\Local\Temp\ccVMeVAo.s:3096   .text.cmd_advertise_restart:000000000000003e .L0 
C:\Users\stapi\AppData\Local\Temp\ccVMeVAo.s:3097   .text.cmd_advertise_restart:000000000000003e .L0 
C:\Users\stapi\AppData\Local\Temp\ccVMeVAo.s:3105   .text.cmd_advertise_restart:000000000000004c .L0 
C:\Users\stapi\AppData\Local\Temp\ccVMeVAo.s:3106   .text.cmd_advertise_restart:000000000000004c .L0 
C:\Users\stapi\AppData\Local\Temp\ccVMeVAo.s:3112   .text.cmd_advertise_restart:000000000000005a .L0 
C:\Users\stapi\AppData\Local\Temp\ccVMeVAo.s:3113   .text.cmd_advertise_restart:000000000000005a .L0 
C:\Users\stapi\AppData\Local\Temp\ccVMeVAo.s:3115   .text.cmd_advertise_restart:000000000000005c .L0 
C:\Users\stapi\AppData\Local\Temp\ccVMeVAo.s:3121   .text.cmd_advertise_restart:000000000000006c .L0 
C:\Users\stapi\AppData\Local\Temp\ccVMeVAo.s:3122   .text.cmd_advertise_restart:000000000000006e .L0 
C:\Users\stapi\AppData\Local\Temp\ccVMeVAo.s:3133   .text.ble_base_cmd_help:0000000000000000 ble_base_cmd_help
C:\Users\stapi\AppData\Local\Temp\ccVMeVAo.s:3136   .text.ble_base_cmd_help:0000000000000000 .L0 
C:\Users\stapi\AppData\Local\Temp\ccVMeVAo.s:3137   .text.ble_base_cmd_help:0000000000000000 .L0 
C:\Users\stapi\AppData\Local\Temp\ccVMeVAo.s:3138   .text.ble_base_cmd_help:0000000000000008 .L0 
C:\Users\stapi\AppData\Local\Temp\ccVMeVAo.s:3139   .text.ble_base_cmd_help:0000000000000008 .L0 
C:\Users\stapi\AppData\Local\Temp\ccVMeVAo.s:3140   .text.ble_base_cmd_help:0000000000000008 .L0 
C:\Users\stapi\AppData\Local\Temp\ccVMeVAo.s:3141   .text.ble_base_cmd_help:0000000000000008 .L0 
C:\Users\stapi\AppData\Local\Temp\ccVMeVAo.s:3142   .text.ble_base_cmd_help:0000000000000008 .L0 
C:\Users\stapi\AppData\Local\Temp\ccVMeVAo.s:3144   .text.ble_base_cmd_help:0000000000000008 .L0 
C:\Users\stapi\AppData\Local\Temp\ccVMeVAo.s:3146   .text.ble_base_cmd_help:0000000000000008 .L0 
C:\Users\stapi\AppData\Local\Temp\ccVMeVAo.s:3147   .text.ble_base_cmd_help:0000000000000008 .L0 
C:\Users\stapi\AppData\Local\Temp\ccVMeVAo.s:3151   .text.ble_base_cmd_help:0000000000000014 .L0 
C:\Users\stapi\AppData\Local\Temp\ccVMeVAo.s:3155   .text.ble_base_cmd_help:0000000000000018 .L0 
C:\Users\stapi\AppData\Local\Temp\ccVMeVAo.s:3156   .text.ble_base_cmd_help:0000000000000018 .L0 
C:\Users\stapi\AppData\Local\Temp\ccVMeVAo.s:3159   .text.ble_base_cmd_help:000000000000001c .L0 
C:\Users\stapi\AppData\Local\Temp\ccVMeVAo.s:3165   .text.ble_base_cmd_help:000000000000002a .L0 
C:\Users\stapi\AppData\Local\Temp\ccVMeVAo.s:3166   .text.ble_base_cmd_help:000000000000002a .L0 
C:\Users\stapi\AppData\Local\Temp\ccVMeVAo.s:3167   .text.ble_base_cmd_help:000000000000002a .L0 
C:\Users\stapi\AppData\Local\Temp\ccVMeVAo.s:3170   .text.ble_base_cmd_help:0000000000000030 .L0 
C:\Users\stapi\AppData\Local\Temp\ccVMeVAo.s:3171   .text.ble_base_cmd_help:0000000000000038 .L0 
C:\Users\stapi\AppData\Local\Temp\ccVMeVAo.s:3172   .text.ble_base_cmd_help:0000000000000038 .L0 
C:\Users\stapi\AppData\Local\Temp\ccVMeVAo.s:3173   .text.ble_base_cmd_help:0000000000000038 .L0 
C:\Users\stapi\AppData\Local\Temp\ccVMeVAo.s:3174   .text.ble_base_cmd_help:0000000000000038 .L0 
C:\Users\stapi\AppData\Local\Temp\ccVMeVAo.s:3175   .text.ble_base_cmd_help:0000000000000038 .L0 
C:\Users\stapi\AppData\Local\Temp\ccVMeVAo.s:3176   .text.ble_base_cmd_help:0000000000000038 .L0 
C:\Users\stapi\AppData\Local\Temp\ccVMeVAo.s:3192   .text.cmd_ble_help:0000000000000000 cmd_ble_help
C:\Users\stapi\AppData\Local\Temp\ccVMeVAo.s:3195   .text.cmd_ble_help:0000000000000000 .L0 
C:\Users\stapi\AppData\Local\Temp\ccVMeVAo.s:3197   .text.cmd_ble_help:0000000000000000 .L0 
C:\Users\stapi\AppData\Local\Temp\ccVMeVAo.s:3198   .text.cmd_ble_help:0000000000000008 .L0 
C:\Users\stapi\AppData\Local\Temp\ccVMeVAo.s:3199   .text.cmd_ble_help:0000000000000008 .L0 
C:\Users\stapi\AppData\Local\Temp\ccVMeVAo.s:3201   .text.cmd_ble_help:0000000000000008 .L0 
C:\Users\stapi\AppData\Local\Temp\ccVMeVAo.s:3207   .text.cmd_ble_help:0000000000000018 .L0 
C:\Users\stapi\AppData\Local\Temp\ccVMeVAo.s:3212   .text.cmd_ble_help:0000000000000028 .L0 
C:\Users\stapi\AppData\Local\Temp\ccVMeVAo.s:3215   .text.cmd_ble_help:0000000000000030 .L0 
C:\Users\stapi\AppData\Local\Temp\ccVMeVAo.s:3220   .text.cmd_ble_help:0000000000000040 .L0 
C:\Users\stapi\AppData\Local\Temp\ccVMeVAo.s:3221   .text.cmd_ble_help:0000000000000040 .L0 
C:\Users\stapi\AppData\Local\Temp\ccVMeVAo.s:3222   .text.cmd_ble_help:0000000000000048 .L0 
C:\Users\stapi\AppData\Local\Temp\ccVMeVAo.s:3223   .text.cmd_ble_help:0000000000000048 .L0 
C:\Users\stapi\AppData\Local\Temp\ccVMeVAo.s:3224   .text.cmd_ble_help:0000000000000048 .L0 
C:\Users\stapi\AppData\Local\Temp\ccVMeVAo.s:3235   .text.ble_cli_init:0000000000000000 ble_cli_init
C:\Users\stapi\AppData\Local\Temp\ccVMeVAo.s:3238   .text.ble_cli_init:0000000000000000 .L0 
C:\Users\stapi\AppData\Local\Temp\ccVMeVAo.s:3239   .text.ble_cli_init:0000000000000000 .L0 
C:\Users\stapi\AppData\Local\Temp\ccVMeVAo.s:3240   .text.ble_cli_init:0000000000000000 .L0 
C:\Users\stapi\AppData\Local\Temp\ccVMeVAo.s:3250   .text.ble_cli_init:0000000000000024 .L0 
C:\Users\stapi\AppData\Local\Temp\ccVMeVAo.s:3430   .srodata.ble_cmd_table_size:0000000000000000 ble_cmd_table_size
C:\Users\stapi\AppData\Local\Temp\ccVMeVAo.s:3357   .rodata.ble_cmd_table:0000000000000000 ble_cmd_table
C:\Users\stapi\AppData\Local\Temp\ccVMeVAo.s:3354   .rodata.ble_cmd_table:0000000000000000 .LANCHOR0
C:\Users\stapi\AppData\Local\Temp\ccVMeVAo.s:30     .text.cmd_ble_help_cb:0000000000000010 .L0 
C:\Users\stapi\AppData\Local\Temp\ccVMeVAo.s:163    .text.cmd_set_pkt_size:00000000000000b6 .L0 
C:\Users\stapi\AppData\Local\Temp\ccVMeVAo.s:350    .text.cmd_set_phy:0000000000000126 .L0 
C:\Users\stapi\AppData\Local\Temp\ccVMeVAo.s:526    .text.cmd_ble_param_update:0000000000000102 .L0 
C:\Users\stapi\AppData\Local\Temp\ccVMeVAo.s:628    .text.cmd_passkey:0000000000000088 .L0 
C:\Users\stapi\AppData\Local\Temp\ccVMeVAo.s:740    .text.cmd_pair:0000000000000080 .L0 
C:\Users\stapi\AppData\Local\Temp\ccVMeVAo.s:980    .text.cmd_set_auth:000000000000018a .L0 
C:\Users\stapi\AppData\Local\Temp\ccVMeVAo.s:994    .text.cmd_list_sec_devs:0000000000000008 .L0 
C:\Users\stapi\AppData\Local\Temp\ccVMeVAo.s:1106   .text.cmd_remove_bond:0000000000000088 .L0 
C:\Users\stapi\AppData\Local\Temp\ccVMeVAo.s:1144   .text.cmd_cancel_connect:000000000000002c .L0 
C:\Users\stapi\AppData\Local\Temp\ccVMeVAo.s:1256   .text.cmd_connect:000000000000008c .L0 
C:\Users\stapi\AppData\Local\Temp\ccVMeVAo.s:1376   .text.cmd_sync_ctrl:00000000000000a2 .L0 
C:\Users\stapi\AppData\Local\Temp\ccVMeVAo.s:1390   .text.cmd_sync_cancel:0000000000000008 .L0 
C:\Users\stapi\AppData\Local\Temp\ccVMeVAo.s:1539   .text.cmd_sync:00000000000000be .L0 
C:\Users\stapi\AppData\Local\Temp\ccVMeVAo.s:1553   .text.cmd_list_scan_devs:0000000000000008 .L0 
C:\Users\stapi\AppData\Local\Temp\ccVMeVAo.s:1567   .text.cmd_scan_stop:0000000000000008 .L0 
C:\Users\stapi\AppData\Local\Temp\ccVMeVAo.s:1583   .text.cmd_scan:000000000000000a .L0 
C:\Users\stapi\AppData\Local\Temp\ccVMeVAo.s:1712   .text.cmd_advertise_stop:00000000000000a0 .L0 
C:\Users\stapi\AppData\Local\Temp\ccVMeVAo.s:1874   .text.cmd_advertise:00000000000000cc .L0 
C:\Users\stapi\AppData\Local\Temp\ccVMeVAo.s:1888   .text.cmd_ble_enable:0000000000000008 .L0 
C:\Users\stapi\AppData\Local\Temp\ccVMeVAo.s:1985   .text.cmd_ble_courier_wifi:0000000000000074 .L0 
C:\Users\stapi\AppData\Local\Temp\ccVMeVAo.s:2090   .text.cmd_ble_ps:00000000000000a4 .L0 
C:\Users\stapi\AppData\Local\Temp\ccVMeVAo.s:2104   .text.cmd_ble_disable:0000000000000008 .L0 
C:\Users\stapi\AppData\Local\Temp\ccVMeVAo.s:2223   .text.cmd_ble_get_handle_cb:000000000000008e .L0 
C:\Users\stapi\AppData\Local\Temp\ccVMeVAo.s:2313   .text.cmd_get_phy:000000000000006e .L0 
C:\Users\stapi\AppData\Local\Temp\ccVMeVAo.s:2410   .text.cmd_set_dev_name:000000000000007a .L0 
C:\Users\stapi\AppData\Local\Temp\ccVMeVAo.s:2500   .text.cmd_get_rssi:000000000000006e .L0 
C:\Users\stapi\AppData\Local\Temp\ccVMeVAo.s:2591   .text.cmd_ble_peer_ver:000000000000006e .L0 
C:\Users\stapi\AppData\Local\Temp\ccVMeVAo.s:2682   .text.cmd_ble_peer_feat:000000000000006e .L0 
C:\Users\stapi\AppData\Local\Temp\ccVMeVAo.s:2784   .text.cmd_compare:000000000000007e .L0 
C:\Users\stapi\AppData\Local\Temp\ccVMeVAo.s:2862   .text.cmd_encrypt:000000000000005a .L0 
C:\Users\stapi\AppData\Local\Temp\ccVMeVAo.s:2957   .text.cmd_disconnect:0000000000000070 .L0 
C:\Users\stapi\AppData\Local\Temp\ccVMeVAo.s:3031   .text.cmd_sync_terminate:000000000000005a .L0 
C:\Users\stapi\AppData\Local\Temp\ccVMeVAo.s:3125   .text.cmd_advertise_restart:000000000000006e .L0 
C:\Users\stapi\AppData\Local\Temp\ccVMeVAo.s:3179   .text.ble_base_cmd_help:0000000000000038 .L0 
C:\Users\stapi\AppData\Local\Temp\ccVMeVAo.s:3227   .text.cmd_ble_help:0000000000000048 .L0 
C:\Users\stapi\AppData\Local\Temp\ccVMeVAo.s:3255   .text.ble_cli_init:0000000000000024 .L0 
                     .debug_frame:0000000000000000 .L0 
C:\Users\stapi\AppData\Local\Temp\ccVMeVAo.s:11     .rodata.cmd_ble_help_cb.str1.4:0000000000000000 .LC0
C:\Users\stapi\AppData\Local\Temp\ccVMeVAo.s:32     .rodata.cmd_set_pkt_size.str1.4:0000000000000000 .LC1
C:\Users\stapi\AppData\Local\Temp\ccVMeVAo.s:35     .rodata.cmd_set_pkt_size.str1.4:0000000000000038 .LC2
C:\Users\stapi\AppData\Local\Temp\ccVMeVAo.s:38     .rodata.cmd_set_pkt_size.str1.4:000000000000005c .LC3
C:\Users\stapi\AppData\Local\Temp\ccVMeVAo.s:41     .rodata.cmd_set_pkt_size.str1.4:00000000000000bc .LC4
C:\Users\stapi\AppData\Local\Temp\ccVMeVAo.s:44     .rodata.cmd_set_pkt_size.str1.4:000000000000012c .LC5
C:\Users\stapi\AppData\Local\Temp\ccVMeVAo.s:109    .text.cmd_set_pkt_size:000000000000005c .L4
C:\Users\stapi\AppData\Local\Temp\ccVMeVAo.s:97     .text.cmd_set_pkt_size:0000000000000052 .L3
C:\Users\stapi\AppData\Local\Temp\ccVMeVAo.s:165    .rodata.cmd_set_phy.str1.4:0000000000000000 .LC6
C:\Users\stapi\AppData\Local\Temp\ccVMeVAo.s:168    .rodata.cmd_set_phy.str1.4:000000000000003c .LC7
C:\Users\stapi\AppData\Local\Temp\ccVMeVAo.s:171    .rodata.cmd_set_phy.str1.4:000000000000005c .LC8
C:\Users\stapi\AppData\Local\Temp\ccVMeVAo.s:174    .rodata.cmd_set_phy.str1.4:0000000000000090 .LC9
C:\Users\stapi\AppData\Local\Temp\ccVMeVAo.s:177    .rodata.cmd_set_phy.str1.4:00000000000000b0 .LC10
C:\Users\stapi\AppData\Local\Temp\ccVMeVAo.s:180    .rodata.cmd_set_phy.str1.4:00000000000000d8 .LC11
C:\Users\stapi\AppData\Local\Temp\ccVMeVAo.s:183    .rodata.cmd_set_phy.str1.4:00000000000000f4 .LC12
C:\Users\stapi\AppData\Local\Temp\ccVMeVAo.s:186    .rodata.cmd_set_phy.str1.4:0000000000000118 .LC13
C:\Users\stapi\AppData\Local\Temp\ccVMeVAo.s:189    .rodata.cmd_set_phy.str1.4:000000000000013c .LC14
C:\Users\stapi\AppData\Local\Temp\ccVMeVAo.s:286    .text.cmd_set_phy:00000000000000b8 .L12
C:\Users\stapi\AppData\Local\Temp\ccVMeVAo.s:273    .text.cmd_set_phy:00000000000000ae .L11
C:\Users\stapi\AppData\Local\Temp\ccVMeVAo.s:352    .rodata.cmd_ble_param_update.str1.4:0000000000000000 .LC15
C:\Users\stapi\AppData\Local\Temp\ccVMeVAo.s:355    .rodata.cmd_ble_param_update.str1.4:0000000000000050 .LC16
C:\Users\stapi\AppData\Local\Temp\ccVMeVAo.s:358    .rodata.cmd_ble_param_update.str1.4:00000000000000b0 .LC17
C:\Users\stapi\AppData\Local\Temp\ccVMeVAo.s:361    .rodata.cmd_ble_param_update.str1.4:00000000000000e8 .LC18
C:\Users\stapi\AppData\Local\Temp\ccVMeVAo.s:364    .rodata.cmd_ble_param_update.str1.4:0000000000000148 .LC19
C:\Users\stapi\AppData\Local\Temp\ccVMeVAo.s:367    .rodata.cmd_ble_param_update.str1.4:0000000000000190 .LC20
C:\Users\stapi\AppData\Local\Temp\ccVMeVAo.s:448    .text.cmd_ble_param_update:000000000000007c .L20
C:\Users\stapi\AppData\Local\Temp\ccVMeVAo.s:434    .text.cmd_ble_param_update:0000000000000072 .L19
C:\Users\stapi\AppData\Local\Temp\ccVMeVAo.s:528    .rodata.cmd_passkey.str1.4:0000000000000000 .LC21
C:\Users\stapi\AppData\Local\Temp\ccVMeVAo.s:531    .rodata.cmd_passkey.str1.4:000000000000002c .LC22
C:\Users\stapi\AppData\Local\Temp\ccVMeVAo.s:534    .rodata.cmd_passkey.str1.4:0000000000000060 .LC23
C:\Users\stapi\AppData\Local\Temp\ccVMeVAo.s:606    .text.cmd_passkey:0000000000000056 .L28
C:\Users\stapi\AppData\Local\Temp\ccVMeVAo.s:596    .text.cmd_passkey:000000000000004c .L27
C:\Users\stapi\AppData\Local\Temp\ccVMeVAo.s:630    .rodata.cmd_pair.str1.4:0000000000000000 .LC24
C:\Users\stapi\AppData\Local\Temp\ccVMeVAo.s:633    .rodata.cmd_pair.str1.4:0000000000000020 .LC25
C:\Users\stapi\AppData\Local\Temp\ccVMeVAo.s:636    .rodata.cmd_pair.str1.4:0000000000000050 .LC26
C:\Users\stapi\AppData\Local\Temp\ccVMeVAo.s:690    .text.cmd_pair:000000000000003c .L32
C:\Users\stapi\AppData\Local\Temp\ccVMeVAo.s:719    .text.cmd_pair:0000000000000066 .L34
C:\Users\stapi\AppData\Local\Temp\ccVMeVAo.s:675    .text.cmd_pair:000000000000002a .L38
C:\Users\stapi\AppData\Local\Temp\ccVMeVAo.s:732    .text.cmd_pair:0000000000000076 .L36
C:\Users\stapi\AppData\Local\Temp\ccVMeVAo.s:680    .text.cmd_pair:0000000000000032 .L31
C:\Users\stapi\AppData\Local\Temp\ccVMeVAo.s:742    .rodata.cmd_set_auth.str1.4:0000000000000000 .LC27
C:\Users\stapi\AppData\Local\Temp\ccVMeVAo.s:745    .rodata.cmd_set_auth.str1.4:0000000000000018 .LC28
C:\Users\stapi\AppData\Local\Temp\ccVMeVAo.s:748    .rodata.cmd_set_auth.str1.4:000000000000004c .LC29
C:\Users\stapi\AppData\Local\Temp\ccVMeVAo.s:751    .rodata.cmd_set_auth.str1.4:0000000000000078 .LC30
C:\Users\stapi\AppData\Local\Temp\ccVMeVAo.s:754    .rodata.cmd_set_auth.str1.4:000000000000008c .LC31
C:\Users\stapi\AppData\Local\Temp\ccVMeVAo.s:757    .rodata.cmd_set_auth.str1.4:00000000000000a0 .LC32
C:\Users\stapi\AppData\Local\Temp\ccVMeVAo.s:760    .rodata.cmd_set_auth.str1.4:00000000000000c8 .LC33
C:\Users\stapi\AppData\Local\Temp\ccVMeVAo.s:763    .rodata.cmd_set_auth.str1.4:00000000000000f0 .LC34
C:\Users\stapi\AppData\Local\Temp\ccVMeVAo.s:766    .rodata.cmd_set_auth.str1.4:0000000000000114 .LC35
C:\Users\stapi\AppData\Local\Temp\ccVMeVAo.s:769    .rodata.cmd_set_auth.str1.4:0000000000000144 .LC36
C:\Users\stapi\AppData\Local\Temp\ccVMeVAo.s:772    .rodata.cmd_set_auth.str1.4:000000000000017c .LC37
C:\Users\stapi\AppData\Local\Temp\ccVMeVAo.s:775    .rodata.cmd_set_auth.str1.4:00000000000001b0 .LC38
C:\Users\stapi\AppData\Local\Temp\ccVMeVAo.s:778    .rodata.cmd_set_auth.str1.4:00000000000001d0 .LC39
C:\Users\stapi\AppData\Local\Temp\ccVMeVAo.s:781    .rodata.cmd_set_auth.str1.4:00000000000001e8 .LC40
C:\Users\stapi\AppData\Local\Temp\ccVMeVAo.s:784    .rodata.cmd_set_auth.str1.4:0000000000000200 .LC41
C:\Users\stapi\AppData\Local\Temp\ccVMeVAo.s:787    .rodata.cmd_set_auth.str1.4:0000000000000218 .LC42
C:\Users\stapi\AppData\Local\Temp\ccVMeVAo.s:790    .rodata.cmd_set_auth.str1.4:0000000000000234 .LC43
C:\Users\stapi\AppData\Local\Temp\ccVMeVAo.s:895    .text.cmd_set_auth:0000000000000090 .L40
C:\Users\stapi\AppData\Local\Temp\ccVMeVAo.s:880    .text.cmd_set_auth:000000000000007e .L43
C:\Users\stapi\AppData\Local\Temp\ccVMeVAo.s:996    .rodata.cmd_remove_bond.str1.4:0000000000000000 .LC44
C:\Users\stapi\AppData\Local\Temp\ccVMeVAo.s:999    .rodata.cmd_remove_bond.str1.4:0000000000000024 .LC45
C:\Users\stapi\AppData\Local\Temp\ccVMeVAo.s:1002   .rodata.cmd_remove_bond.str1.4:000000000000007c .LC46
C:\Users\stapi\AppData\Local\Temp\ccVMeVAo.s:1005   .rodata.cmd_remove_bond.str1.4:0000000000000090 .LC47
C:\Users\stapi\AppData\Local\Temp\ccVMeVAo.s:1056   .text.cmd_remove_bond:000000000000003c .L47
C:\Users\stapi\AppData\Local\Temp\ccVMeVAo.s:1084   .text.cmd_remove_bond:0000000000000066 .L49
C:\Users\stapi\AppData\Local\Temp\ccVMeVAo.s:1043   .text.cmd_remove_bond:000000000000002a .L53
C:\Users\stapi\AppData\Local\Temp\ccVMeVAo.s:1098   .text.cmd_remove_bond:000000000000007e .L51
C:\Users\stapi\AppData\Local\Temp\ccVMeVAo.s:1108   .rodata.cmd_cancel_connect.str1.4:0000000000000000 .LC48
C:\Users\stapi\AppData\Local\Temp\ccVMeVAo.s:1136   .text.cmd_cancel_connect:0000000000000024 .L54
C:\Users\stapi\AppData\Local\Temp\ccVMeVAo.s:1146   .rodata.cmd_connect.str1.4:0000000000000000 .LC49
C:\Users\stapi\AppData\Local\Temp\ccVMeVAo.s:1149   .rodata.cmd_connect.str1.4:000000000000001c .LC50
C:\Users\stapi\AppData\Local\Temp\ccVMeVAo.s:1152   .rodata.cmd_connect.str1.4:0000000000000040 .LC51
C:\Users\stapi\AppData\Local\Temp\ccVMeVAo.s:1205   .text.cmd_connect:000000000000003c .L61
C:\Users\stapi\AppData\Local\Temp\ccVMeVAo.s:1231   .text.cmd_connect:0000000000000064 .L63
C:\Users\stapi\AppData\Local\Temp\ccVMeVAo.s:1191   .text.cmd_connect:000000000000002a .L69
C:\Users\stapi\AppData\Local\Temp\ccVMeVAo.s:1196   .text.cmd_connect:0000000000000032 .L60
C:\Users\stapi\AppData\Local\Temp\ccVMeVAo.s:1258   .rodata.cmd_sync_ctrl.str1.4:0000000000000000 .LC52
C:\Users\stapi\AppData\Local\Temp\ccVMeVAo.s:1261   .rodata.cmd_sync_ctrl.str1.4:000000000000002c .LC53
C:\Users\stapi\AppData\Local\Temp\ccVMeVAo.s:1264   .rodata.cmd_sync_ctrl.str1.4:000000000000005c .LC54
C:\Users\stapi\AppData\Local\Temp\ccVMeVAo.s:1267   .rodata.cmd_sync_ctrl.str1.4:000000000000009c .LC55
C:\Users\stapi\AppData\Local\Temp\ccVMeVAo.s:1270   .rodata.cmd_sync_ctrl.str1.4:00000000000000c8 .LC56
C:\Users\stapi\AppData\Local\Temp\ccVMeVAo.s:1332   .text.cmd_sync_ctrl:000000000000005c .L71
C:\Users\stapi\AppData\Local\Temp\ccVMeVAo.s:1321   .text.cmd_sync_ctrl:0000000000000052 .L70
C:\Users\stapi\AppData\Local\Temp\ccVMeVAo.s:1392   .rodata.cmd_sync.str1.4:0000000000000000 .LC57
C:\Users\stapi\AppData\Local\Temp\ccVMeVAo.s:1395   .rodata.cmd_sync.str1.4:000000000000001c .LC58
C:\Users\stapi\AppData\Local\Temp\ccVMeVAo.s:1398   .rodata.cmd_sync.str1.4:0000000000000044 .LC59
C:\Users\stapi\AppData\Local\Temp\ccVMeVAo.s:1401   .rodata.cmd_sync.str1.4:0000000000000070 .LC60
C:\Users\stapi\AppData\Local\Temp\ccVMeVAo.s:1473   .text.cmd_sync:0000000000000050 .L81
C:\Users\stapi\AppData\Local\Temp\ccVMeVAo.s:1499   .text.cmd_sync:000000000000007a .L83
C:\Users\stapi\AppData\Local\Temp\ccVMeVAo.s:1458   .text.cmd_sync:000000000000003e .L89
C:\Users\stapi\AppData\Local\Temp\ccVMeVAo.s:1463   .text.cmd_sync:0000000000000046 .L80
C:\Users\stapi\AppData\Local\Temp\ccVMeVAo.s:1585   .rodata.cmd_advertise_stop.str1.4:0000000000000000 .LC61
C:\Users\stapi\AppData\Local\Temp\ccVMeVAo.s:1588   .rodata.cmd_advertise_stop.str1.4:000000000000002c .LC62
C:\Users\stapi\AppData\Local\Temp\ccVMeVAo.s:1591   .rodata.cmd_advertise_stop.str1.4:0000000000000054 .LC63
C:\Users\stapi\AppData\Local\Temp\ccVMeVAo.s:1594   .rodata.cmd_advertise_stop.str1.4:00000000000000a0 .LC64
C:\Users\stapi\AppData\Local\Temp\ccVMeVAo.s:1629   .text.cmd_advertise_stop:000000000000001a .L97
C:\Users\stapi\AppData\Local\Temp\ccVMeVAo.s:1661   .text.cmd_advertise_stop:0000000000000054 .L98
C:\Users\stapi\AppData\Local\Temp\ccVMeVAo.s:1690   .text.cmd_advertise_stop:0000000000000080 .L100
C:\Users\stapi\AppData\Local\Temp\ccVMeVAo.s:1648   .text.cmd_advertise_stop:000000000000004a .L96
C:\Users\stapi\AppData\Local\Temp\ccVMeVAo.s:1714   .rodata.cmd_advertise.str1.4:0000000000000000 .LC65
C:\Users\stapi\AppData\Local\Temp\ccVMeVAo.s:1717   .rodata.cmd_advertise.str1.4:0000000000000020 .LC66
C:\Users\stapi\AppData\Local\Temp\ccVMeVAo.s:1720   .rodata.cmd_advertise.str1.4:000000000000003c .LC67
C:\Users\stapi\AppData\Local\Temp\ccVMeVAo.s:1723   .rodata.cmd_advertise.str1.4:0000000000000068 .LC68
C:\Users\stapi\AppData\Local\Temp\ccVMeVAo.s:1726   .rodata.cmd_advertise.str1.4:00000000000000b4 .LC69
C:\Users\stapi\AppData\Local\Temp\ccVMeVAo.s:1849   .text.cmd_advertise:000000000000008e .L108
C:\Users\stapi\AppData\Local\Temp\ccVMeVAo.s:1839   .text.cmd_advertise:0000000000000082 .L109
C:\Users\stapi\AppData\Local\Temp\ccVMeVAo.s:1828   .text.cmd_advertise:0000000000000078 .L107
C:\Users\stapi\AppData\Local\Temp\ccVMeVAo.s:1788   .text.cmd_advertise:0000000000000044 .L118
C:\Users\stapi\AppData\Local\Temp\ccVMeVAo.s:1792   .text.cmd_advertise:0000000000000048 .L110
C:\Users\stapi\AppData\Local\Temp\ccVMeVAo.s:1824   .text.cmd_advertise:0000000000000070 .L119
C:\Users\stapi\AppData\Local\Temp\ccVMeVAo.s:1890   .rodata.cmd_ble_courier_wifi.str1.4:0000000000000000 .LC70
C:\Users\stapi\AppData\Local\Temp\ccVMeVAo.s:1893   .rodata.cmd_ble_courier_wifi.str1.4:0000000000000030 .LC71
C:\Users\stapi\AppData\Local\Temp\ccVMeVAo.s:1936   .text.cmd_ble_courier_wifi:000000000000002c .L123
C:\Users\stapi\AppData\Local\Temp\ccVMeVAo.s:1969   .text.cmd_ble_courier_wifi:0000000000000058 .L132
C:\Users\stapi\AppData\Local\Temp\ccVMeVAo.s:1965   .text.cmd_ble_courier_wifi:0000000000000056 .L126
C:\Users\stapi\AppData\Local\Temp\ccVMeVAo.s:1926   .text.cmd_ble_courier_wifi:0000000000000022 .L122
C:\Users\stapi\AppData\Local\Temp\ccVMeVAo.s:1987   .rodata.cmd_ble_ps.str1.4:0000000000000000 .LC72
C:\Users\stapi\AppData\Local\Temp\ccVMeVAo.s:1990   .rodata.cmd_ble_ps.str1.4:0000000000000028 .LC73
C:\Users\stapi\AppData\Local\Temp\ccVMeVAo.s:1993   .rodata.cmd_ble_ps.str1.4:0000000000000040 .LC74
C:\Users\stapi\AppData\Local\Temp\ccVMeVAo.s:1996   .rodata.cmd_ble_ps.str1.4:0000000000000058 .LC75
C:\Users\stapi\AppData\Local\Temp\ccVMeVAo.s:1999   .rodata.cmd_ble_ps.str1.4:0000000000000074 .LC76
C:\Users\stapi\AppData\Local\Temp\ccVMeVAo.s:2060   .text.cmd_ble_ps:0000000000000058 .L134
C:\Users\stapi\AppData\Local\Temp\ccVMeVAo.s:2052   .text.cmd_ble_ps:000000000000004e .L133
C:\Users\stapi\AppData\Local\Temp\ccVMeVAo.s:2106   .rodata.cmd_ble_get_handle_cb.str1.4:0000000000000000 .LC77
C:\Users\stapi\AppData\Local\Temp\ccVMeVAo.s:2109   .rodata.cmd_ble_get_handle_cb.str1.4:000000000000000c .LC78
C:\Users\stapi\AppData\Local\Temp\ccVMeVAo.s:2112   .rodata.cmd_ble_get_handle_cb.str1.4:0000000000000020 .LC79
C:\Users\stapi\AppData\Local\Temp\ccVMeVAo.s:2216   .text.cmd_ble_get_handle_cb:0000000000000084 .L146
C:\Users\stapi\AppData\Local\Temp\ccVMeVAo.s:2201   .text.cmd_ble_get_handle_cb:0000000000000076 .L142
C:\Users\stapi\AppData\Local\Temp\ccVMeVAo.s:2167   .text.cmd_ble_get_handle_cb:0000000000000050 .L141
C:\Users\stapi\AppData\Local\Temp\ccVMeVAo.s:2178   .text.cmd_ble_get_handle_cb:0000000000000058 .L143
C:\Users\stapi\AppData\Local\Temp\ccVMeVAo.s:2206   .text.cmd_ble_get_handle_cb:0000000000000078 .L147
C:\Users\stapi\AppData\Local\Temp\ccVMeVAo.s:2225   .rodata.cmd_get_phy.str1.4:0000000000000000 .LC80
C:\Users\stapi\AppData\Local\Temp\ccVMeVAo.s:2228   .rodata.cmd_get_phy.str1.4:0000000000000020 .LC81
C:\Users\stapi\AppData\Local\Temp\ccVMeVAo.s:2280   .text.cmd_get_phy:000000000000003c .L150
C:\Users\stapi\AppData\Local\Temp\ccVMeVAo.s:2269   .text.cmd_get_phy:0000000000000032 .L149
C:\Users\stapi\AppData\Local\Temp\ccVMeVAo.s:2315   .rodata.cmd_set_dev_name.str1.4:0000000000000000 .LC82
C:\Users\stapi\AppData\Local\Temp\ccVMeVAo.s:2318   .rodata.cmd_set_dev_name.str1.4:0000000000000028 .LC83
C:\Users\stapi\AppData\Local\Temp\ccVMeVAo.s:2321   .rodata.cmd_set_dev_name.str1.4:000000000000004c .LC84
C:\Users\stapi\AppData\Local\Temp\ccVMeVAo.s:2324   .rodata.cmd_set_dev_name.str1.4:0000000000000064 .LC85
C:\Users\stapi\AppData\Local\Temp\ccVMeVAo.s:2368   .text.cmd_set_dev_name:0000000000000036 .L158
C:\Users\stapi\AppData\Local\Temp\ccVMeVAo.s:2390   .text.cmd_set_dev_name:000000000000005e .L160
C:\Users\stapi\AppData\Local\Temp\ccVMeVAo.s:2354   .text.cmd_set_dev_name:0000000000000026 .L162
C:\Users\stapi\AppData\Local\Temp\ccVMeVAo.s:2359   .text.cmd_set_dev_name:000000000000002e .L157
C:\Users\stapi\AppData\Local\Temp\ccVMeVAo.s:2412   .rodata.cmd_get_rssi.str1.4:0000000000000000 .LC86
C:\Users\stapi\AppData\Local\Temp\ccVMeVAo.s:2415   .rodata.cmd_get_rssi.str1.4:0000000000000024 .LC87
C:\Users\stapi\AppData\Local\Temp\ccVMeVAo.s:2467   .text.cmd_get_rssi:000000000000003c .L164
C:\Users\stapi\AppData\Local\Temp\ccVMeVAo.s:2456   .text.cmd_get_rssi:0000000000000032 .L163
C:\Users\stapi\AppData\Local\Temp\ccVMeVAo.s:2502   .rodata.cmd_ble_peer_ver.str1.4:0000000000000000 .LC88
C:\Users\stapi\AppData\Local\Temp\ccVMeVAo.s:2505   .rodata.cmd_ble_peer_ver.str1.4:0000000000000024 .LC89
C:\Users\stapi\AppData\Local\Temp\ccVMeVAo.s:2558   .text.cmd_ble_peer_ver:000000000000003c .L172
C:\Users\stapi\AppData\Local\Temp\ccVMeVAo.s:2547   .text.cmd_ble_peer_ver:0000000000000032 .L171
C:\Users\stapi\AppData\Local\Temp\ccVMeVAo.s:2593   .rodata.cmd_ble_peer_feat.str1.4:0000000000000000 .LC90
C:\Users\stapi\AppData\Local\Temp\ccVMeVAo.s:2596   .rodata.cmd_ble_peer_feat.str1.4:0000000000000024 .LC91
C:\Users\stapi\AppData\Local\Temp\ccVMeVAo.s:2649   .text.cmd_ble_peer_feat:000000000000003c .L180
C:\Users\stapi\AppData\Local\Temp\ccVMeVAo.s:2638   .text.cmd_ble_peer_feat:0000000000000032 .L179
C:\Users\stapi\AppData\Local\Temp\ccVMeVAo.s:2684   .rodata.cmd_compare.str1.4:0000000000000000 .LC92
C:\Users\stapi\AppData\Local\Temp\ccVMeVAo.s:2687   .rodata.cmd_compare.str1.4:000000000000002c .LC93
C:\Users\stapi\AppData\Local\Temp\ccVMeVAo.s:2690   .rodata.cmd_compare.str1.4:0000000000000050 .LC94
C:\Users\stapi\AppData\Local\Temp\ccVMeVAo.s:2752   .text.cmd_compare:000000000000004c .L188
C:\Users\stapi\AppData\Local\Temp\ccVMeVAo.s:2739   .text.cmd_compare:0000000000000042 .L187
C:\Users\stapi\AppData\Local\Temp\ccVMeVAo.s:2786   .rodata.cmd_encrypt.str1.4:0000000000000000 .LC95
C:\Users\stapi\AppData\Local\Temp\ccVMeVAo.s:2789   .rodata.cmd_encrypt.str1.4:0000000000000020 .LC96
C:\Users\stapi\AppData\Local\Temp\ccVMeVAo.s:2841   .text.cmd_encrypt:000000000000003c .L192
C:\Users\stapi\AppData\Local\Temp\ccVMeVAo.s:2830   .text.cmd_encrypt:0000000000000032 .L191
C:\Users\stapi\AppData\Local\Temp\ccVMeVAo.s:2864   .rodata.cmd_disconnect.str1.4:0000000000000000 .LC97
C:\Users\stapi\AppData\Local\Temp\ccVMeVAo.s:2867   .rodata.cmd_disconnect.str1.4:0000000000000020 .LC98
C:\Users\stapi\AppData\Local\Temp\ccVMeVAo.s:2870   .rodata.cmd_disconnect.str1.4:0000000000000050 .LC99
C:\Users\stapi\AppData\Local\Temp\ccVMeVAo.s:2923   .text.cmd_disconnect:000000000000003c .L196
C:\Users\stapi\AppData\Local\Temp\ccVMeVAo.s:2912   .text.cmd_disconnect:0000000000000032 .L195
C:\Users\stapi\AppData\Local\Temp\ccVMeVAo.s:2959   .rodata.cmd_sync_terminate.str1.4:0000000000000000 .LC100
C:\Users\stapi\AppData\Local\Temp\ccVMeVAo.s:3010   .text.cmd_sync_terminate:000000000000003c .L204
C:\Users\stapi\AppData\Local\Temp\ccVMeVAo.s:2999   .text.cmd_sync_terminate:0000000000000032 .L203
C:\Users\stapi\AppData\Local\Temp\ccVMeVAo.s:3033   .rodata.cmd_advertise_restart.str1.4:0000000000000000 .LC101
C:\Users\stapi\AppData\Local\Temp\ccVMeVAo.s:3036   .rodata.cmd_advertise_restart.str1.4:0000000000000024 .LC102
C:\Users\stapi\AppData\Local\Temp\ccVMeVAo.s:3039   .rodata.cmd_advertise_restart.str1.4:0000000000000050 .LC103
C:\Users\stapi\AppData\Local\Temp\ccVMeVAo.s:3092   .text.cmd_advertise_restart:000000000000003c .L208
C:\Users\stapi\AppData\Local\Temp\ccVMeVAo.s:3081   .text.cmd_advertise_restart:0000000000000032 .L207
C:\Users\stapi\AppData\Local\Temp\ccVMeVAo.s:3127   .rodata.ble_base_cmd_help.str1.4:0000000000000000 .LC104
C:\Users\stapi\AppData\Local\Temp\ccVMeVAo.s:3163   .text.ble_base_cmd_help:000000000000002a .L216
C:\Users\stapi\AppData\Local\Temp\ccVMeVAo.s:3153   .text.ble_base_cmd_help:0000000000000018 .L217
C:\Users\stapi\AppData\Local\Temp\ccVMeVAo.s:3181   .rodata.cmd_ble_help.str1.4:0000000000000000 .LC105
C:\Users\stapi\AppData\Local\Temp\ccVMeVAo.s:3184   .rodata.cmd_ble_help.str1.4:0000000000000014 .LC106
C:\Users\stapi\AppData\Local\Temp\ccVMeVAo.s:3187   .rodata.cmd_ble_help.str1.4:0000000000000038 .LC107
C:\Users\stapi\AppData\Local\Temp\ccVMeVAo.s:3229   .rodata.ble_cli_init.str1.4:0000000000000000 .LC108
C:\Users\stapi\AppData\Local\Temp\ccVMeVAo.s:3257   .rodata.str1.4:0000000000000000 .LC109
C:\Users\stapi\AppData\Local\Temp\ccVMeVAo.s:3260   .rodata.str1.4:000000000000000c .LC110
C:\Users\stapi\AppData\Local\Temp\ccVMeVAo.s:3263   .rodata.str1.4:0000000000000018 .LC111
C:\Users\stapi\AppData\Local\Temp\ccVMeVAo.s:3266   .rodata.str1.4:0000000000000020 .LC112
C:\Users\stapi\AppData\Local\Temp\ccVMeVAo.s:3269   .rodata.str1.4:0000000000000028 .LC113
C:\Users\stapi\AppData\Local\Temp\ccVMeVAo.s:3272   .rodata.str1.4:0000000000000038 .LC114
C:\Users\stapi\AppData\Local\Temp\ccVMeVAo.s:3275   .rodata.str1.4:0000000000000048 .LC115
C:\Users\stapi\AppData\Local\Temp\ccVMeVAo.s:3278   .rodata.str1.4:0000000000000054 .LC116
C:\Users\stapi\AppData\Local\Temp\ccVMeVAo.s:3281   .rodata.str1.4:0000000000000064 .LC117
C:\Users\stapi\AppData\Local\Temp\ccVMeVAo.s:3284   .rodata.str1.4:0000000000000078 .LC118
C:\Users\stapi\AppData\Local\Temp\ccVMeVAo.s:3287   .rodata.str1.4:0000000000000084 .LC119
C:\Users\stapi\AppData\Local\Temp\ccVMeVAo.s:3290   .rodata.str1.4:0000000000000094 .LC120
C:\Users\stapi\AppData\Local\Temp\ccVMeVAo.s:3293   .rodata.str1.4:00000000000000a8 .LC121
C:\Users\stapi\AppData\Local\Temp\ccVMeVAo.s:3296   .rodata.str1.4:00000000000000b8 .LC122
C:\Users\stapi\AppData\Local\Temp\ccVMeVAo.s:3299   .rodata.str1.4:00000000000000c4 .LC123
C:\Users\stapi\AppData\Local\Temp\ccVMeVAo.s:3302   .rodata.str1.4:00000000000000d4 .LC124
C:\Users\stapi\AppData\Local\Temp\ccVMeVAo.s:3305   .rodata.str1.4:00000000000000e0 .LC125
C:\Users\stapi\AppData\Local\Temp\ccVMeVAo.s:3308   .rodata.str1.4:00000000000000f0 .LC126
C:\Users\stapi\AppData\Local\Temp\ccVMeVAo.s:3311   .rodata.str1.4:0000000000000104 .LC127
C:\Users\stapi\AppData\Local\Temp\ccVMeVAo.s:3314   .rodata.str1.4:0000000000000114 .LC128
C:\Users\stapi\AppData\Local\Temp\ccVMeVAo.s:3317   .rodata.str1.4:0000000000000120 .LC129
C:\Users\stapi\AppData\Local\Temp\ccVMeVAo.s:3320   .rodata.str1.4:000000000000012c .LC130
C:\Users\stapi\AppData\Local\Temp\ccVMeVAo.s:3323   .rodata.str1.4:0000000000000138 .LC131
C:\Users\stapi\AppData\Local\Temp\ccVMeVAo.s:3326   .rodata.str1.4:0000000000000144 .LC132
C:\Users\stapi\AppData\Local\Temp\ccVMeVAo.s:3329   .rodata.str1.4:0000000000000154 .LC133
C:\Users\stapi\AppData\Local\Temp\ccVMeVAo.s:3332   .rodata.str1.4:0000000000000164 .LC134
C:\Users\stapi\AppData\Local\Temp\ccVMeVAo.s:3335   .rodata.str1.4:0000000000000178 .LC135
C:\Users\stapi\AppData\Local\Temp\ccVMeVAo.s:3338   .rodata.str1.4:0000000000000188 .LC136
C:\Users\stapi\AppData\Local\Temp\ccVMeVAo.s:3341   .rodata.str1.4:000000000000019c .LC137
C:\Users\stapi\AppData\Local\Temp\ccVMeVAo.s:3344   .rodata.str1.4:00000000000001a8 .LC138
C:\Users\stapi\AppData\Local\Temp\ccVMeVAo.s:3347   .rodata.str1.4:00000000000001b4 .LC139
C:\Users\stapi\AppData\Local\Temp\ccVMeVAo.s:3350   .rodata.str1.4:00000000000001c8 .LC140
C:\Users\stapi\AppData\Local\Temp\ccVMeVAo.s:9707   .debug_abbrev:0000000000000000 .Ldebug_abbrev0
C:\Users\stapi\AppData\Local\Temp\ccVMeVAo.s:13627  .debug_str:000000000000109d .LASF467
C:\Users\stapi\AppData\Local\Temp\ccVMeVAo.s:13895  .debug_str:0000000000001cc7 .LASF468
C:\Users\stapi\AppData\Local\Temp\ccVMeVAo.s:13743  .debug_str:000000000000161e .LASF469
C:\Users\stapi\AppData\Local\Temp\ccVMeVAo.s:13139  .debug_ranges:0000000000000000 .Ldebug_ranges0
C:\Users\stapi\AppData\Local\Temp\ccVMeVAo.s:13217  .debug_line:0000000000000000 .Ldebug_line0
C:\Users\stapi\AppData\Local\Temp\ccVMeVAo.s:13399  .debug_str:0000000000000723 .LASF0
C:\Users\stapi\AppData\Local\Temp\ccVMeVAo.s:13327  .debug_str:0000000000000443 .LASF3
C:\Users\stapi\AppData\Local\Temp\ccVMeVAo.s:13425  .debug_str:000000000000081f .LASF1
C:\Users\stapi\AppData\Local\Temp\ccVMeVAo.s:13981  .debug_str:0000000000002106 .LASF2
C:\Users\stapi\AppData\Local\Temp\ccVMeVAo.s:13487  .debug_str:0000000000000a76 .LASF4
C:\Users\stapi\AppData\Local\Temp\ccVMeVAo.s:14097  .debug_str:00000000000025f0 .LASF5
C:\Users\stapi\AppData\Local\Temp\ccVMeVAo.s:13355  .debug_str:000000000000052a .LASF6
C:\Users\stapi\AppData\Local\Temp\ccVMeVAo.s:13671  .debug_str:000000000000137f .LASF7
C:\Users\stapi\AppData\Local\Temp\ccVMeVAo.s:13609  .debug_str:000000000000100e .LASF8
C:\Users\stapi\AppData\Local\Temp\ccVMeVAo.s:13681  .debug_str:00000000000013e1 .LASF9
C:\Users\stapi\AppData\Local\Temp\ccVMeVAo.s:13861  .debug_str:0000000000001b26 .LASF10
C:\Users\stapi\AppData\Local\Temp\ccVMeVAo.s:13739  .debug_str:000000000000160b .LASF11
C:\Users\stapi\AppData\Local\Temp\ccVMeVAo.s:13401  .debug_str:000000000000072f .LASF12
C:\Users\stapi\AppData\Local\Temp\ccVMeVAo.s:13877  .debug_str:0000000000001bdb .LASF13
C:\Users\stapi\AppData\Local\Temp\ccVMeVAo.s:14071  .debug_str:00000000000024cd .LASF14
C:\Users\stapi\AppData\Local\Temp\ccVMeVAo.s:13477  .debug_str:0000000000000a0f .LASF15
C:\Users\stapi\AppData\Local\Temp\ccVMeVAo.s:13289  .debug_str:00000000000002b3 .LASF16
C:\Users\stapi\AppData\Local\Temp\ccVMeVAo.s:14111  .debug_str:0000000000002677 .LASF17
C:\Users\stapi\AppData\Local\Temp\ccVMeVAo.s:13365  .debug_str:0000000000000574 .LASF18
C:\Users\stapi\AppData\Local\Temp\ccVMeVAo.s:13583  .debug_str:0000000000000ec4 .LASF19
C:\Users\stapi\AppData\Local\Temp\ccVMeVAo.s:13845  .debug_str:0000000000001a81 .LASF20
C:\Users\stapi\AppData\Local\Temp\ccVMeVAo.s:13907  .debug_str:0000000000001d88 .LASF21
C:\Users\stapi\AppData\Local\Temp\ccVMeVAo.s:14043  .debug_str:000000000000238b .LASF22
C:\Users\stapi\AppData\Local\Temp\ccVMeVAo.s:13409  .debug_str:0000000000000767 .LASF23
C:\Users\stapi\AppData\Local\Temp\ccVMeVAo.s:13275  .debug_str:0000000000000238 .LASF24
C:\Users\stapi\AppData\Local\Temp\ccVMeVAo.s:13453  .debug_str:0000000000000911 .LASF25
C:\Users\stapi\AppData\Local\Temp\ccVMeVAo.s:13257  .debug_str:000000000000015d .LASF26
C:\Users\stapi\AppData\Local\Temp\ccVMeVAo.s:13589  .debug_str:0000000000000f01 .LASF27
C:\Users\stapi\AppData\Local\Temp\ccVMeVAo.s:13805  .debug_str:00000000000018e9 .LASF28
C:\Users\stapi\AppData\Local\Temp\ccVMeVAo.s:14041  .debug_str:0000000000002365 .LASF29
C:\Users\stapi\AppData\Local\Temp\ccVMeVAo.s:13509  .debug_str:0000000000000b8e .LASF30
C:\Users\stapi\AppData\Local\Temp\ccVMeVAo.s:13407  .debug_str:0000000000000750 .LASF31
C:\Users\stapi\AppData\Local\Temp\ccVMeVAo.s:13939  .debug_str:0000000000001f2a .LASF32
C:\Users\stapi\AppData\Local\Temp\ccVMeVAo.s:14075  .debug_str:00000000000024e4 .LASF33
C:\Users\stapi\AppData\Local\Temp\ccVMeVAo.s:13343  .debug_str:00000000000004ba .LASF34
C:\Users\stapi\AppData\Local\Temp\ccVMeVAo.s:13353  .debug_str:000000000000050c .LASF35
C:\Users\stapi\AppData\Local\Temp\ccVMeVAo.s:13851  .debug_str:0000000000001ac5 .LASF36
C:\Users\stapi\AppData\Local\Temp\ccVMeVAo.s:13683  .debug_str:00000000000013ef .LASF37
C:\Users\stapi\AppData\Local\Temp\ccVMeVAo.s:13599  .debug_str:0000000000000f73 .LASF38
C:\Users\stapi\AppData\Local\Temp\ccVMeVAo.s:13553  .debug_str:0000000000000d7b .LASF39
C:\Users\stapi\AppData\Local\Temp\ccVMeVAo.s:14101  .debug_str:0000000000002608 .LASF40
C:\Users\stapi\AppData\Local\Temp\ccVMeVAo.s:13837  .debug_str:0000000000001a1d .LASF41
C:\Users\stapi\AppData\Local\Temp\ccVMeVAo.s:13725  .debug_str:0000000000001561 .LASF42
C:\Users\stapi\AppData\Local\Temp\ccVMeVAo.s:13485  .debug_str:0000000000000a5c .LASF43
C:\Users\stapi\AppData\Local\Temp\ccVMeVAo.s:13925  .debug_str:0000000000001e8c .LASF44
C:\Users\stapi\AppData\Local\Temp\ccVMeVAo.s:14079  .debug_str:0000000000002513 .LASF45
C:\Users\stapi\AppData\Local\Temp\ccVMeVAo.s:13659  .debug_str:00000000000012fd .LASF46
C:\Users\stapi\AppData\Local\Temp\ccVMeVAo.s:13963  .debug_str:0000000000002050 .LASF47
C:\Users\stapi\AppData\Local\Temp\ccVMeVAo.s:13881  .debug_str:0000000000001c0e .LASF48
C:\Users\stapi\AppData\Local\Temp\ccVMeVAo.s:14047  .debug_str:00000000000023d2 .LASF49
C:\Users\stapi\AppData\Local\Temp\ccVMeVAo.s:13271  .debug_str:0000000000000203 .LASF50
C:\Users\stapi\AppData\Local\Temp\ccVMeVAo.s:13441  .debug_str:0000000000000890 .LASF51
C:\Users\stapi\AppData\Local\Temp\ccVMeVAo.s:13607  .debug_str:0000000000000ff1 .LASF52
C:\Users\stapi\AppData\Local\Temp\ccVMeVAo.s:13793  .debug_str:0000000000001862 .LASF53
C:\Users\stapi\AppData\Local\Temp\ccVMeVAo.s:13461  .debug_str:0000000000000967 .LASF54
C:\Users\stapi\AppData\Local\Temp\ccVMeVAo.s:14119  .debug_str:00000000000026de .LASF55
C:\Users\stapi\AppData\Local\Temp\ccVMeVAo.s:13929  .debug_str:0000000000001eb5 .LASF56
C:\Users\stapi\AppData\Local\Temp\ccVMeVAo.s:13637  .debug_str:00000000000011ec .LASF57
C:\Users\stapi\AppData\Local\Temp\ccVMeVAo.s:13633  .debug_str:00000000000011c3 .LASF58
C:\Users\stapi\AppData\Local\Temp\ccVMeVAo.s:13259  .debug_str:000000000000017d .LASF59
C:\Users\stapi\AppData\Local\Temp\ccVMeVAo.s:13415  .debug_str:00000000000007b5 .LASF60
C:\Users\stapi\AppData\Local\Temp\ccVMeVAo.s:13341  .debug_str:00000000000004a6 .LASF61
C:\Users\stapi\AppData\Local\Temp\ccVMeVAo.s:14081  .debug_str:0000000000002534 .LASF62
C:\Users\stapi\AppData\Local\Temp\ccVMeVAo.s:13603  .debug_str:0000000000000fb8 .LASF63
C:\Users\stapi\AppData\Local\Temp\ccVMeVAo.s:13321  .debug_str:0000000000000400 .LASF64
C:\Users\stapi\AppData\Local\Temp\ccVMeVAo.s:13325  .debug_str:0000000000000428 .LASF65
C:\Users\stapi\AppData\Local\Temp\ccVMeVAo.s:13755  .debug_str:00000000000016d7 .LASF66
C:\Users\stapi\AppData\Local\Temp\ccVMeVAo.s:13445  .debug_str:00000000000008b1 .LASF67
C:\Users\stapi\AppData\Local\Temp\ccVMeVAo.s:14137  .debug_str:0000000000002791 .LASF68
C:\Users\stapi\AppData\Local\Temp\ccVMeVAo.s:13517  .debug_str:0000000000000bee .LASF69
C:\Users\stapi\AppData\Local\Temp\ccVMeVAo.s:13241  .debug_str:00000000000000da .LASF70
C:\Users\stapi\AppData\Local\Temp\ccVMeVAo.s:13653  .debug_str:00000000000012b1 .LASF71
C:\Users\stapi\AppData\Local\Temp\ccVMeVAo.s:14093  .debug_str:00000000000025c8 .LASF72
C:\Users\stapi\AppData\Local\Temp\ccVMeVAo.s:13505  .debug_str:0000000000000b58 .LASF73
C:\Users\stapi\AppData\Local\Temp\ccVMeVAo.s:13657  .debug_str:00000000000012d5 .LASF74
C:\Users\stapi\AppData\Local\Temp\ccVMeVAo.s:13853  .debug_str:0000000000001ae3 .LASF75
C:\Users\stapi\AppData\Local\Temp\ccVMeVAo.s:13875  .debug_str:0000000000001bc1 .LASF76
C:\Users\stapi\AppData\Local\Temp\ccVMeVAo.s:13941  .debug_str:0000000000001f46 .LASF77
C:\Users\stapi\AppData\Local\Temp\ccVMeVAo.s:13759  .debug_str:0000000000001701 .LASF78
C:\Users\stapi\AppData\Local\Temp\ccVMeVAo.s:13565  .debug_str:0000000000000df3 .LASF79
C:\Users\stapi\AppData\Local\Temp\ccVMeVAo.s:13567  .debug_str:0000000000000e0d .LASF80
C:\Users\stapi\AppData\Local\Temp\ccVMeVAo.s:13573  .debug_str:0000000000000e47 .LASF81
C:\Users\stapi\AppData\Local\Temp\ccVMeVAo.s:14023  .debug_str:0000000000002285 .LASF82
C:\Users\stapi\AppData\Local\Temp\ccVMeVAo.s:13773  .debug_str:000000000000177e .LASF83
C:\Users\stapi\AppData\Local\Temp\ccVMeVAo.s:13299  .debug_str:0000000000000319 .LASF84
C:\Users\stapi\AppData\Local\Temp\ccVMeVAo.s:13787  .debug_str:000000000000181e .LASF85
C:\Users\stapi\AppData\Local\Temp\ccVMeVAo.s:13781  .debug_str:00000000000017d3 .LASF86
C:\Users\stapi\AppData\Local\Temp\ccVMeVAo.s:13761  .debug_str:0000000000001727 .LASF87
C:\Users\stapi\AppData\Local\Temp\ccVMeVAo.s:14083  .debug_str:000000000000254d .LASF88
C:\Users\stapi\AppData\Local\Temp\ccVMeVAo.s:13623  .debug_str:0000000000001066 .LASF89
C:\Users\stapi\AppData\Local\Temp\ccVMeVAo.s:13795  .debug_str:000000000000187d .LASF90
C:\Users\stapi\AppData\Local\Temp\ccVMeVAo.s:13915  .debug_str:0000000000001ded .LASF91
C:\Users\stapi\AppData\Local\Temp\ccVMeVAo.s:13673  .debug_str:000000000000138a .LASF92
C:\Users\stapi\AppData\Local\Temp\ccVMeVAo.s:13863  .debug_str:0000000000001b3d .LASF93
C:\Users\stapi\AppData\Local\Temp\ccVMeVAo.s:14117  .debug_str:00000000000026b4 .LASF94
C:\Users\stapi\AppData\Local\Temp\ccVMeVAo.s:14061  .debug_str:0000000000002450 .LASF95
C:\Users\stapi\AppData\Local\Temp\ccVMeVAo.s:13233  .debug_str:0000000000000076 .LASF96
C:\Users\stapi\AppData\Local\Temp\ccVMeVAo.s:13601  .debug_str:0000000000000f96 .LASF97
C:\Users\stapi\AppData\Local\Temp\ccVMeVAo.s:13665  .debug_str:0000000000001341 .LASF98
C:\Users\stapi\AppData\Local\Temp\ccVMeVAo.s:13561  .debug_str:0000000000000dcb .LASF99
C:\Users\stapi\AppData\Local\Temp\ccVMeVAo.s:13849  .debug_str:0000000000001aa4 .LASF100
C:\Users\stapi\AppData\Local\Temp\ccVMeVAo.s:13821  .debug_str:000000000000199d .LASF101
C:\Users\stapi\AppData\Local\Temp\ccVMeVAo.s:13893  .debug_str:0000000000001ca5 .LASF102
C:\Users\stapi\AppData\Local\Temp\ccVMeVAo.s:13663  .debug_str:000000000000131e .LASF103
C:\Users\stapi\AppData\Local\Temp\ccVMeVAo.s:13699  .debug_str:000000000000148e .LASF104
C:\Users\stapi\AppData\Local\Temp\ccVMeVAo.s:13473  .debug_str:00000000000009d5 .LASF105
C:\Users\stapi\AppData\Local\Temp\ccVMeVAo.s:13727  .debug_str:000000000000157b .LASF106
C:\Users\stapi\AppData\Local\Temp\ccVMeVAo.s:13879  .debug_str:0000000000001be4 .LASF107
C:\Users\stapi\AppData\Local\Temp\ccVMeVAo.s:14121  .debug_str:00000000000026f8 .LASF108
C:\Users\stapi\AppData\Local\Temp\ccVMeVAo.s:13497  .debug_str:0000000000000ae0 .LASF109
C:\Users\stapi\AppData\Local\Temp\ccVMeVAo.s:13707  .debug_str:00000000000014e6 .LASF110
C:\Users\stapi\AppData\Local\Temp\ccVMeVAo.s:13913  .debug_str:0000000000001dd1 .LASF111
C:\Users\stapi\AppData\Local\Temp\ccVMeVAo.s:13995  .debug_str:000000000000217c .LASF112
C:\Users\stapi\AppData\Local\Temp\ccVMeVAo.s:13827  .debug_str:00000000000019da .LASF113
C:\Users\stapi\AppData\Local\Temp\ccVMeVAo.s:13383  .debug_str:000000000000063a .LASF114
C:\Users\stapi\AppData\Local\Temp\ccVMeVAo.s:13397  .debug_str:000000000000070c .LASF115
C:\Users\stapi\AppData\Local\Temp\ccVMeVAo.s:13481  .debug_str:0000000000000a23 .LASF116
C:\Users\stapi\AppData\Local\Temp\ccVMeVAo.s:13675  .debug_str:00000000000013ad .LASF117
C:\Users\stapi\AppData\Local\Temp\ccVMeVAo.s:13971  .debug_str:00000000000020b6 .LASF118
C:\Users\stapi\AppData\Local\Temp\ccVMeVAo.s:13905  .debug_str:0000000000001d65 .LASF119
C:\Users\stapi\AppData\Local\Temp\ccVMeVAo.s:13801  .debug_str:00000000000018c3 .LASF120
C:\Users\stapi\AppData\Local\Temp\ccVMeVAo.s:13931  .debug_str:0000000000001ecf .LASF121
C:\Users\stapi\AppData\Local\Temp\ccVMeVAo.s:13467  .debug_str:0000000000000995 .LASF122
C:\Users\stapi\AppData\Local\Temp\ccVMeVAo.s:13705  .debug_str:00000000000014d1 .LASF123
C:\Users\stapi\AppData\Local\Temp\ccVMeVAo.s:14089  .debug_str:0000000000002593 .LASF124
C:\Users\stapi\AppData\Local\Temp\ccVMeVAo.s:13887  .debug_str:0000000000001c61 .LASF125
C:\Users\stapi\AppData\Local\Temp\ccVMeVAo.s:13237  .debug_str:00000000000000aa .LASF126
C:\Users\stapi\AppData\Local\Temp\ccVMeVAo.s:13779  .debug_str:00000000000017b1 .LASF127
C:\Users\stapi\AppData\Local\Temp\ccVMeVAo.s:13363  .debug_str:0000000000000559 .LASF128
C:\Users\stapi\AppData\Local\Temp\ccVMeVAo.s:13291  .debug_str:00000000000002c4 .LASF129
C:\Users\stapi\AppData\Local\Temp\ccVMeVAo.s:13367  .debug_str:0000000000000593 .LASF130
C:\Users\stapi\AppData\Local\Temp\ccVMeVAo.s:13993  .debug_str:000000000000215d .LASF131
C:\Users\stapi\AppData\Local\Temp\ccVMeVAo.s:13471  .debug_str:00000000000009b8 .LASF132
C:\Users\stapi\AppData\Local\Temp\ccVMeVAo.s:13891  .debug_str:0000000000001c8c .LASF133
C:\Users\stapi\AppData\Local\Temp\ccVMeVAo.s:13245  .debug_str:00000000000000fd .LASF134
C:\Users\stapi\AppData\Local\Temp\ccVMeVAo.s:13413  .debug_str:00000000000007a1 .LASF135
C:\Users\stapi\AppData\Local\Temp\ccVMeVAo.s:13247  .debug_str:0000000000000112 .LASF136
C:\Users\stapi\AppData\Local\Temp\ccVMeVAo.s:13391  .debug_str:00000000000006b8 .LASF137
C:\Users\stapi\AppData\Local\Temp\ccVMeVAo.s:14161  .debug_str:0000000000002863 .LASF138
C:\Users\stapi\AppData\Local\Temp\ccVMeVAo.s:14115  .debug_str:000000000000269c .LASF139
C:\Users\stapi\AppData\Local\Temp\ccVMeVAo.s:13529  .debug_str:0000000000000c63 .LASF140
C:\Users\stapi\AppData\Local\Temp\ccVMeVAo.s:13823  .debug_str:00000000000019ba .LASF141
C:\Users\stapi\AppData\Local\Temp\ccVMeVAo.s:14049  .debug_str:00000000000023eb .LASF142
C:\Users\stapi\AppData\Local\Temp\ccVMeVAo.s:13239  .debug_str:00000000000000c3 .LASF143
C:\Users\stapi\AppData\Local\Temp\ccVMeVAo.s:13475  .debug_str:00000000000009f3 .LASF144
C:\Users\stapi\AppData\Local\Temp\ccVMeVAo.s:14045  .debug_str:00000000000023ad .LASF145
C:\Users\stapi\AppData\Local\Temp\ccVMeVAo.s:14015  .debug_str:0000000000002234 .LASF146
C:\Users\stapi\AppData\Local\Temp\ccVMeVAo.s:14149  .debug_str:00000000000027fa .LASF147
C:\Users\stapi\AppData\Local\Temp\ccVMeVAo.s:14035  .debug_str:0000000000002316 .LASF148
C:\Users\stapi\AppData\Local\Temp\ccVMeVAo.s:13449  .debug_str:00000000000008e3 .LASF149
C:\Users\stapi\AppData\Local\Temp\ccVMeVAo.s:13923  .debug_str:0000000000001e64 .LASF150
C:\Users\stapi\AppData\Local\Temp\ccVMeVAo.s:13639  .debug_str:0000000000001209 .LASF151
C:\Users\stapi\AppData\Local\Temp\ccVMeVAo.s:13857  .debug_str:0000000000001b05 .LASF152
C:\Users\stapi\AppData\Local\Temp\ccVMeVAo.s:14139  .debug_str:00000000000027a8 .LASF153
C:\Users\stapi\AppData\Local\Temp\ccVMeVAo.s:13591  .debug_str:0000000000000f20 .LASF154
C:\Users\stapi\AppData\Local\Temp\ccVMeVAo.s:13547  .debug_str:0000000000000d2e .LASF155
C:\Users\stapi\AppData\Local\Temp\ccVMeVAo.s:13523  .debug_str:0000000000000c28 .LASF156
C:\Users\stapi\AppData\Local\Temp\ccVMeVAo.s:14109  .debug_str:0000000000002655 .LASF157
C:\Users\stapi\AppData\Local\Temp\ccVMeVAo.s:13945  .debug_str:0000000000001f79 .LASF158
C:\Users\stapi\AppData\Local\Temp\ccVMeVAo.s:13489  .debug_str:0000000000000a81 .LASF159
C:\Users\stapi\AppData\Local\Temp\ccVMeVAo.s:13909  .debug_str:0000000000001da2 .LASF160
C:\Users\stapi\AppData\Local\Temp\ccVMeVAo.s:13817  .debug_str:0000000000001966 .LASF161
C:\Users\stapi\AppData\Local\Temp\ccVMeVAo.s:13961  .debug_str:0000000000002031 .LASF162
C:\Users\stapi\AppData\Local\Temp\ccVMeVAo.s:14125  .debug_str:0000000000002728 .LASF163
C:\Users\stapi\AppData\Local\Temp\ccVMeVAo.s:13515  .debug_str:0000000000000bcd .LASF164
C:\Users\stapi\AppData\Local\Temp\ccVMeVAo.s:13421  .debug_str:00000000000007f4 .LASF165
C:\Users\stapi\AppData\Local\Temp\ccVMeVAo.s:13549  .debug_str:0000000000000d57 .LASF166
C:\Users\stapi\AppData\Local\Temp\ccVMeVAo.s:13483  .debug_str:0000000000000a35 .LASF167
C:\Users\stapi\AppData\Local\Temp\ccVMeVAo.s:13605  .debug_str:0000000000000fce .LASF168
C:\Users\stapi\AppData\Local\Temp\ccVMeVAo.s:13333  .debug_str:0000000000000465 .LASF169
C:\Users\stapi\AppData\Local\Temp\ccVMeVAo.s:13789  .debug_str:000000000000183e .LASF170
C:\Users\stapi\AppData\Local\Temp\ccVMeVAo.s:13455  .debug_str:0000000000000930 .LASF171
C:\Users\stapi\AppData\Local\Temp\ccVMeVAo.s:14057  .debug_str:0000000000002421 .LASF172
C:\Users\stapi\AppData\Local\Temp\ccVMeVAo.s:13371  .debug_str:00000000000005bc .LASF173
C:\Users\stapi\AppData\Local\Temp\ccVMeVAo.s:13579  .debug_str:0000000000000e91 .LASF174
C:\Users\stapi\AppData\Local\Temp\ccVMeVAo.s:13261  .debug_str:000000000000019c .LASF175
C:\Users\stapi\AppData\Local\Temp\ccVMeVAo.s:13873  .debug_str:0000000000001b98 .LASF176
C:\Users\stapi\AppData\Local\Temp\ccVMeVAo.s:13389  .debug_str:0000000000000692 .LASF177
C:\Users\stapi\AppData\Local\Temp\ccVMeVAo.s:13967  .debug_str:0000000000002086 .LASF178
C:\Users\stapi\AppData\Local\Temp\ccVMeVAo.s:13521  .debug_str:0000000000000c10 .LASF179
C:\Users\stapi\AppData\Local\Temp\ccVMeVAo.s:13733  .debug_str:00000000000015bc .LASF180
C:\Users\stapi\AppData\Local\Temp\ccVMeVAo.s:13385  .debug_str:0000000000000652 .LASF181
C:\Users\stapi\AppData\Local\Temp\ccVMeVAo.s:13537  .debug_str:0000000000000cbc .LASF182
C:\Users\stapi\AppData\Local\Temp\ccVMeVAo.s:13531  .debug_str:0000000000000c7b .LASF183
C:\Users\stapi\AppData\Local\Temp\ccVMeVAo.s:13641  .debug_str:000000000000122f .LASF184
C:\Users\stapi\AppData\Local\Temp\ccVMeVAo.s:13503  .debug_str:0000000000000b3c .LASF185
C:\Users\stapi\AppData\Local\Temp\ccVMeVAo.s:13647  .debug_str:0000000000001276 .LASF186
C:\Users\stapi\AppData\Local\Temp\ccVMeVAo.s:14025  .debug_str:00000000000022aa .LASF187
C:\Users\stapi\AppData\Local\Temp\ccVMeVAo.s:13513  .debug_str:0000000000000bb0 .LASF188
C:\Users\stapi\AppData\Local\Temp\ccVMeVAo.s:13953  .debug_str:0000000000001fd4 .LASF189
C:\Users\stapi\AppData\Local\Temp\ccVMeVAo.s:13227  .debug_str:000000000000003b .LASF190
C:\Users\stapi\AppData\Local\Temp\ccVMeVAo.s:13297  .debug_str:0000000000000300 .LASF191
C:\Users\stapi\AppData\Local\Temp\ccVMeVAo.s:13843  .debug_str:0000000000001a5f .LASF192
C:\Users\stapi\AppData\Local\Temp\ccVMeVAo.s:13949  .debug_str:0000000000001fa0 .LASF193
C:\Users\stapi\AppData\Local\Temp\ccVMeVAo.s:14085  .debug_str:000000000000256f .LASF194
C:\Users\stapi\AppData\Local\Temp\ccVMeVAo.s:13419  .debug_str:00000000000007d2 .LASF195
C:\Users\stapi\AppData\Local\Temp\ccVMeVAo.s:13541  .debug_str:0000000000000ce7 .LASF196
C:\Users\stapi\AppData\Local\Temp\ccVMeVAo.s:13395  .debug_str:00000000000006ea .LASF197
C:\Users\stapi\AppData\Local\Temp\ccVMeVAo.s:13319  .debug_str:00000000000003e7 .LASF198
C:\Users\stapi\AppData\Local\Temp\ccVMeVAo.s:13577  .debug_str:0000000000000e6b .LASF199
C:\Users\stapi\AppData\Local\Temp\ccVMeVAo.s:13933  .debug_str:0000000000001ef5 .LASF200
C:\Users\stapi\AppData\Local\Temp\ccVMeVAo.s:13815  .debug_str:0000000000001953 .LASF201
C:\Users\stapi\AppData\Local\Temp\ccVMeVAo.s:13697  .debug_str:0000000000001479 .LASF202
C:\Users\stapi\AppData\Local\Temp\ccVMeVAo.s:13767  .debug_str:0000000000001752 .LASF203
C:\Users\stapi\AppData\Local\Temp\ccVMeVAo.s:14091  .debug_str:00000000000025ae .LASF204
C:\Users\stapi\AppData\Local\Temp\ccVMeVAo.s:13785  .debug_str:0000000000001808 .LASF205
C:\Users\stapi\AppData\Local\Temp\ccVMeVAo.s:13555  .debug_str:0000000000000d91 .LASF206
C:\Users\stapi\AppData\Local\Temp\ccVMeVAo.s:13447  .debug_str:00000000000008ce .LASF207
C:\Users\stapi\AppData\Local\Temp\ccVMeVAo.s:13405  .debug_str:0000000000000746 .LASF208
C:\Users\stapi\AppData\Local\Temp\ccVMeVAo.s:13943  .debug_str:0000000000001f6c .LASF209
C:\Users\stapi\AppData\Local\Temp\ccVMeVAo.s:13457  .debug_str:000000000000094f .LASF210
C:\Users\stapi\AppData\Local\Temp\ccVMeVAo.s:13337  .debug_str:0000000000000489 .LASF213
C:\Users\stapi\AppData\Local\Temp\ccVMeVAo.s:13499  .debug_str:0000000000000b14 .LASF211
C:\Users\stapi\AppData\Local\Temp\ccVMeVAo.s:14129  .debug_str:0000000000002760 .LASF212
C:\Users\stapi\AppData\Local\Temp\ccVMeVAo.s:14033  .debug_str:00000000000022fe .LASF214
C:\Users\stapi\AppData\Local\Temp\ccVMeVAo.s:13595  .debug_str:0000000000000f49 .LASF215
C:\Users\stapi\AppData\Local\Temp\ccVMeVAo.s:13303  .debug_str:000000000000033e .LASF216
C:\Users\stapi\AppData\Local\Temp\ccVMeVAo.s:13737  .debug_str:00000000000015e8 .LASF217
C:\Users\stapi\AppData\Local\Temp\ccVMeVAo.s:14007  .debug_str:00000000000021f0 .LASF218
C:\Users\stapi\AppData\Local\Temp\ccVMeVAo.s:13955  .debug_str:0000000000001fef .LASF219
C:\Users\stapi\AppData\Local\Temp\ccVMeVAo.s:13387  .debug_str:0000000000000673 .LASF220
C:\Users\stapi\AppData\Local\Temp\ccVMeVAo.s:13315  .debug_str:00000000000003bd .LASF221
C:\Users\stapi\AppData\Local\Temp\ccVMeVAo.s:14069  .debug_str:00000000000024ae .LASF222
C:\Users\stapi\AppData\Local\Temp\ccVMeVAo.s:13411  .debug_str:0000000000000782 .LASF223
C:\Users\stapi\AppData\Local\Temp\ccVMeVAo.s:13283  .debug_str:000000000000026d .LASF224
C:\Users\stapi\AppData\Local\Temp\ccVMeVAo.s:13965  .debug_str:000000000000206c .LASF225
C:\Users\stapi\AppData\Local\Temp\ccVMeVAo.s:13375  .debug_str:00000000000005f2 .LASF226
C:\Users\stapi\AppData\Local\Temp\ccVMeVAo.s:13263  .debug_str:00000000000001b6 .LASF227
C:\Users\stapi\AppData\Local\Temp\ccVMeVAo.s:13491  .debug_str:0000000000000aa0 .LASF228
C:\Users\stapi\AppData\Local\Temp\ccVMeVAo.s:13317  .debug_str:00000000000003db .LASF229
C:\Users\stapi\AppData\Local\Temp\ccVMeVAo.s:13221  .debug_str:0000000000000008 .LASF230
C:\Users\stapi\AppData\Local\Temp\ccVMeVAo.s:14009  .debug_str:0000000000002204 .LASF231
C:\Users\stapi\AppData\Local\Temp\ccVMeVAo.s:13459  .debug_str:0000000000000955 .LASF232
C:\Users\stapi\AppData\Local\Temp\ccVMeVAo.s:13979  .debug_str:00000000000020f4 .LASF233
C:\Users\stapi\AppData\Local\Temp\ccVMeVAo.s:13667  .debug_str:000000000000135a .LASF234
C:\Users\stapi\AppData\Local\Temp\ccVMeVAo.s:13617  .debug_str:0000000000001041 .LASF235
C:\Users\stapi\AppData\Local\Temp\ccVMeVAo.s:14127  .debug_str:0000000000002749 .LASF236
C:\Users\stapi\AppData\Local\Temp\ccVMeVAo.s:14039  .debug_str:000000000000234b .LASF237
C:\Users\stapi\AppData\Local\Temp\ccVMeVAo.s:13991  .debug_str:0000000000002141 .LASF238
C:\Users\stapi\AppData\Local\Temp\ccVMeVAo.s:14017  .debug_str:000000000000224e .LASF239
C:\Users\stapi\AppData\Local\Temp\ccVMeVAo.s:13799  .debug_str:00000000000018ad .LASF240
C:\Users\stapi\AppData\Local\Temp\ccVMeVAo.s:13295  .debug_str:00000000000002e2 .LASF241
C:\Users\stapi\AppData\Local\Temp\ccVMeVAo.s:13305  .debug_str:000000000000035c .LASF242
C:\Users\stapi\AppData\Local\Temp\ccVMeVAo.s:13629  .debug_str:0000000000001196 .LASF243
C:\Users\stapi\AppData\Local\Temp\ccVMeVAo.s:13885  .debug_str:0000000000001c43 .LASF244
C:\Users\stapi\AppData\Local\Temp\ccVMeVAo.s:14005  .debug_str:00000000000021d6 .LASF245
C:\Users\stapi\AppData\Local\Temp\ccVMeVAo.s:13919  .debug_str:0000000000001e1e .LASF246
C:\Users\stapi\AppData\Local\Temp\ccVMeVAo.s:13921  .debug_str:0000000000001e3d .LASF247
C:\Users\stapi\AppData\Local\Temp\ccVMeVAo.s:13811  .debug_str:0000000000001938 .LASF248
C:\Users\stapi\AppData\Local\Temp\ccVMeVAo.s:13731  .debug_str:00000000000015b7 .LASF249
C:\Users\stapi\AppData\Local\Temp\ccVMeVAo.s:14027  .debug_str:00000000000022cb .LASF250
C:\Users\stapi\AppData\Local\Temp\ccVMeVAo.s:13717  .debug_str:0000000000001541 .LASF251
C:\Users\stapi\AppData\Local\Temp\ccVMeVAo.s:13437  .debug_str:0000000000000872 .LASF252
C:\Users\stapi\AppData\Local\Temp\ccVMeVAo.s:13723  .debug_str:000000000000155c .LASF253
C:\Users\stapi\AppData\Local\Temp\ccVMeVAo.s:13693  .debug_str:0000000000001468 .LASF254
C:\Users\stapi\AppData\Local\Temp\ccVMeVAo.s:13293  .debug_str:00000000000002dd .LASF255
C:\Users\stapi\AppData\Local\Temp\ccVMeVAo.s:13703  .debug_str:00000000000014c8 .LASF256
C:\Users\stapi\AppData\Local\Temp\ccVMeVAo.s:13469  .debug_str:00000000000009af .LASF257
C:\Users\stapi\AppData\Local\Temp\ccVMeVAo.s:13545  .debug_str:0000000000000d21 .LASF258
C:\Users\stapi\AppData\Local\Temp\ccVMeVAo.s:13495  .debug_str:0000000000000ac7 .LASF259
C:\Users\stapi\AppData\Local\Temp\ccVMeVAo.s:13903  .debug_str:0000000000001d60 .LASF260
C:\Users\stapi\AppData\Local\Temp\ccVMeVAo.s:13539  .debug_str:0000000000000cdf .LASF261
C:\Users\stapi\AppData\Local\Temp\ccVMeVAo.s:14153  .debug_str:0000000000002831 .LASF262
C:\Users\stapi\AppData\Local\Temp\ccVMeVAo.s:13377  .debug_str:000000000000060c .LASF263
C:\Users\stapi\AppData\Local\Temp\ccVMeVAo.s:13451  .debug_str:0000000000000908 .LASF264
C:\Users\stapi\AppData\Local\Temp\ccVMeVAo.s:13797  .debug_str:000000000000189f .LASF265
C:\Users\stapi\AppData\Local\Temp\ccVMeVAo.s:13249  .debug_str:0000000000000131 .LASF266
C:\Users\stapi\AppData\Local\Temp\ccVMeVAo.s:13927  .debug_str:0000000000001ea6 .LASF267
C:\Users\stapi\AppData\Local\Temp\ccVMeVAo.s:13867  .debug_str:0000000000001b6f .LASF268
C:\Users\stapi\AppData\Local\Temp\ccVMeVAo.s:13423  .debug_str:0000000000000811 .LASF269
C:\Users\stapi\AppData\Local\Temp\ccVMeVAo.s:13951  .debug_str:0000000000001fc1 .LASF270
C:\Users\stapi\AppData\Local\Temp\ccVMeVAo.s:13999  .debug_str:00000000000021a5 .LASF271
C:\Users\stapi\AppData\Local\Temp\ccVMeVAo.s:14157  .debug_str:0000000000002848 .LASF272
C:\Users\stapi\AppData\Local\Temp\ccVMeVAo.s:13997  .debug_str:0000000000002198 .LASF273
C:\Users\stapi\AppData\Local\Temp\ccVMeVAo.s:13645  .debug_str:0000000000001268 .LASF274
C:\Users\stapi\AppData\Local\Temp\ccVMeVAo.s:13225  .debug_str:0000000000000028 .LASF275
C:\Users\stapi\AppData\Local\Temp\ccVMeVAo.s:13977  .debug_str:00000000000020e8 .LASF276
C:\Users\stapi\AppData\Local\Temp\ccVMeVAo.s:13597  .debug_str:0000000000000f63 .LASF277
C:\Users\stapi\AppData\Local\Temp\ccVMeVAo.s:13747  .debug_str:00000000000016a4 .LASF278
C:\Users\stapi\AppData\Local\Temp\ccVMeVAo.s:14095  .debug_str:00000000000025e7 .LASF279
C:\Users\stapi\AppData\Local\Temp\ccVMeVAo.s:13771  .debug_str:0000000000001775 .LASF280
C:\Users\stapi\AppData\Local\Temp\ccVMeVAo.s:13749  .debug_str:00000000000016ac .LASF281
C:\Users\stapi\AppData\Local\Temp\ccVMeVAo.s:13831  .debug_str:0000000000001a00 .LASF282
C:\Users\stapi\AppData\Local\Temp\ccVMeVAo.s:13719  .debug_str:0000000000001549 .LASF283
C:\Users\stapi\AppData\Local\Temp\ccVMeVAo.s:14105  .debug_str:0000000000002636 .LASF284
C:\Users\stapi\AppData\Local\Temp\ccVMeVAo.s:13255  .debug_str:0000000000000153 .LASF307
C:\Users\stapi\AppData\Local\Temp\ccVMeVAo.s:14131  .debug_str:0000000000002778 .LASF285
C:\Users\stapi\AppData\Local\Temp\ccVMeVAo.s:14141  .debug_str:00000000000027c5 .LASF286
C:\Users\stapi\AppData\Local\Temp\ccVMeVAo.s:13745  .debug_str:000000000000169c .LASF287
C:\Users\stapi\AppData\Local\Temp\ccVMeVAo.s:13765  .debug_str:0000000000001749 .LASF288
C:\Users\stapi\AppData\Local\Temp\ccVMeVAo.s:13847  .debug_str:0000000000001a99 .LASF289
C:\Users\stapi\AppData\Local\Temp\ccVMeVAo.s:14113  .debug_str:0000000000002692 .LASF290
C:\Users\stapi\AppData\Local\Temp\ccVMeVAo.s:13339  .debug_str:000000000000049b .LASF291
C:\Users\stapi\AppData\Local\Temp\ccVMeVAo.s:13985  .debug_str:0000000000002118 .LASF292
C:\Users\stapi\AppData\Local\Temp\ccVMeVAo.s:13689  .debug_str:0000000000001443 .LASF293
C:\Users\stapi\AppData\Local\Temp\ccVMeVAo.s:13649  .debug_str:000000000000128f .LASF294
C:\Users\stapi\AppData\Local\Temp\ccVMeVAo.s:13435  .debug_str:0000000000000861 .LASF295
C:\Users\stapi\AppData\Local\Temp\ccVMeVAo.s:13735  .debug_str:00000000000015dd .LASF296
C:\Users\stapi\AppData\Local\Temp\ccVMeVAo.s:13493  .debug_str:0000000000000ab8 .LASF297
C:\Users\stapi\AppData\Local\Temp\ccVMeVAo.s:13559  .debug_str:0000000000000db1 .LASF298
C:\Users\stapi\AppData\Local\Temp\ccVMeVAo.s:13351  .debug_str:00000000000004f3 .LASF299
C:\Users\stapi\AppData\Local\Temp\ccVMeVAo.s:13685  .debug_str:000000000000140e .LASF300
C:\Users\stapi\AppData\Local\Temp\ccVMeVAo.s:13335  .debug_str:0000000000000480 .LASF301
C:\Users\stapi\AppData\Local\Temp\ccVMeVAo.s:13575  .debug_str:0000000000000e63 .LASF302
C:\Users\stapi\AppData\Local\Temp\ccVMeVAo.s:13585  .debug_str:0000000000000ee4 .LASF303
C:\Users\stapi\AppData\Local\Temp\ccVMeVAo.s:13347  .debug_str:00000000000004e3 .LASF304
C:\Users\stapi\AppData\Local\Temp\ccVMeVAo.s:14055  .debug_str:0000000000002416 .LASF305
C:\Users\stapi\AppData\Local\Temp\ccVMeVAo.s:13229  .debug_str:000000000000005e .LASF306
C:\Users\stapi\AppData\Local\Temp\ccVMeVAo.s:13439  .debug_str:0000000000000885 .LASF308
C:\Users\stapi\AppData\Local\Temp\ccVMeVAo.s:13777  .debug_str:00000000000017ac .LASF309
C:\Users\stapi\AppData\Local\Temp\ccVMeVAo.s:14087  .debug_str:000000000000258a .LASF310
C:\Users\stapi\AppData\Local\Temp\ccVMeVAo.s:13511  .debug_str:0000000000000ba7 .LASF311
C:\Users\stapi\AppData\Local\Temp\ccVMeVAo.s:14021  .debug_str:000000000000227e .LASF312
C:\Users\stapi\AppData\Local\Temp\ccVMeVAo.s:13709  .debug_str:0000000000001503 .LASF313
C:\Users\stapi\AppData\Local\Temp\ccVMeVAo.s:14163  .debug_str:000000000000287f .LASF314
C:\Users\stapi\AppData\Local\Temp\ccVMeVAo.s:14123  .debug_str:0000000000002722 .LASF315
C:\Users\stapi\AppData\Local\Temp\ccVMeVAo.s:13359  .debug_str:000000000000053f .LASF316
C:\Users\stapi\AppData\Local\Temp\ccVMeVAo.s:13557  .debug_str:0000000000000da7 .LASF317
C:\Users\stapi\AppData\Local\Temp\ccVMeVAo.s:13277  .debug_str:0000000000000252 .LASF318
C:\Users\stapi\AppData\Local\Temp\ccVMeVAo.s:14099  .debug_str:0000000000002603 .LASF319
C:\Users\stapi\AppData\Local\Temp\ccVMeVAo.s:13307  .debug_str:000000000000037c .LASF320
C:\Users\stapi\AppData\Local\Temp\ccVMeVAo.s:13757  .debug_str:00000000000016f4 .LASF321
C:\Users\stapi\AppData\Local\Temp\ccVMeVAo.s:13267  .debug_str:00000000000001e1 .LASF322
C:\Users\stapi\AppData\Local\Temp\ccVMeVAo.s:13265  .debug_str:00000000000001d0 .LASF323
C:\Users\stapi\AppData\Local\Temp\ccVMeVAo.s:13613  .debug_str:000000000000102e .LASF324
C:\Users\stapi\AppData\Local\Temp\ccVMeVAo.s:13679  .debug_str:00000000000013d4 .LASF325
C:\Users\stapi\AppData\Local\Temp\ccVMeVAo.s:13833  .debug_str:0000000000001a0a .LASF326
C:\Users\stapi\AppData\Local\Temp\ccVMeVAo.s:13381  .debug_str:0000000000000630 .LASF327
C:\Users\stapi\AppData\Local\Temp\ccVMeVAo.s:13235  .debug_str:000000000000009b .LASF328
C:\Users\stapi\AppData\Local\Temp\ccVMeVAo.s:13527  .debug_str:0000000000000c58 .LASF329
C:\Users\stapi\AppData\Local\Temp\ccVMeVAo.s:13519  .debug_str:0000000000000c0b .LASF330
C:\Users\stapi\AppData\Local\Temp\ccVMeVAo.s:13417  .debug_str:00000000000007ca .LASF331
C:\Users\stapi\AppData\Local\Temp\ccVMeVAo.s:13219  .debug_str:0000000000000000 .LASF332
C:\Users\stapi\AppData\Local\Temp\ccVMeVAo.s:13309  .debug_str:000000000000038e .LASF333
C:\Users\stapi\AppData\Local\Temp\ccVMeVAo.s:13969  .debug_str:00000000000020a8 .LASF334
C:\Users\stapi\AppData\Local\Temp\ccVMeVAo.s:13835  .debug_str:0000000000001a13 .LASF335
C:\Users\stapi\AppData\Local\Temp\ccVMeVAo.s:14013  .debug_str:0000000000002227 .LASF336
C:\Users\stapi\AppData\Local\Temp\ccVMeVAo.s:14103  .debug_str:0000000000002626 .LASF337
C:\Users\stapi\AppData\Local\Temp\ccVMeVAo.s:13859  .debug_str:0000000000001b1c .LASF338
C:\Users\stapi\AppData\Local\Temp\ccVMeVAo.s:13869  .debug_str:0000000000001b80 .LASF339
C:\Users\stapi\AppData\Local\Temp\ccVMeVAo.s:13593  .debug_str:0000000000000f40 .LASF340
C:\Users\stapi\AppData\Local\Temp\ccVMeVAo.s:13345  .debug_str:00000000000004d5 .LASF341
C:\Users\stapi\AppData\Local\Temp\ccVMeVAo.s:14059  .debug_str:0000000000002440 .LASF342
C:\Users\stapi\AppData\Local\Temp\ccVMeVAo.s:13569  .debug_str:0000000000000e2b .LASF343
C:\Users\stapi\AppData\Local\Temp\ccVMeVAo.s:13889  .debug_str:0000000000001c7a .LASF344
C:\Users\stapi\AppData\Local\Temp\ccVMeVAo.s:13393  .debug_str:00000000000006d9 .LASF345
C:\Users\stapi\AppData\Local\Temp\ccVMeVAo.s:13427  .debug_str:000000000000082d .LASF346
C:\Users\stapi\AppData\Local\Temp\ccVMeVAo.s:13983  .debug_str:0000000000002110 .LASF347
C:\Users\stapi\AppData\Local\Temp\ccVMeVAo.s:13691  .debug_str:000000000000145c .LASF348
C:\Users\stapi\AppData\Local\Temp\ccVMeVAo.s:13947  .debug_str:0000000000001f96 .LASF349
C:\Users\stapi\AppData\Local\Temp\ccVMeVAo.s:13223  .debug_str:000000000000001a .LASF350
C:\Users\stapi\AppData\Local\Temp\ccVMeVAo.s:13357  .debug_str:0000000000000533 .LASF351
C:\Users\stapi\AppData\Local\Temp\ccVMeVAo.s:14143  .debug_str:00000000000027ca .LASF352
C:\Users\stapi\AppData\Local\Temp\ccVMeVAo.s:13611  .debug_str:0000000000001020 .LASF353
C:\Users\stapi\AppData\Local\Temp\ccVMeVAo.s:13937  .debug_str:0000000000001f17 .LASF354
C:\Users\stapi\AppData\Local\Temp\ccVMeVAo.s:13803  .debug_str:00000000000018dc .LASF357
C:\Users\stapi\AppData\Local\Temp\ccVMeVAo.s:3236   .text.ble_cli_init:0000000000000000 .LFB50
C:\Users\stapi\AppData\Local\Temp\ccVMeVAo.s:3251   .text.ble_cli_init:0000000000000024 .LFE50
C:\Users\stapi\AppData\Local\Temp\ccVMeVAo.s:3249   .text.ble_cli_init:0000000000000024 .LVL427
C:\Users\stapi\AppData\Local\Temp\ccVMeVAo.s:13543  .debug_str:0000000000000d0b .LASF470
C:\Users\stapi\AppData\Local\Temp\ccVMeVAo.s:2119   .text.cmd_ble_get_handle_cb:0000000000000000 .LFB49
C:\Users\stapi\AppData\Local\Temp\ccVMeVAo.s:2221   .text.cmd_ble_get_handle_cb:000000000000008e .LFE49
C:\Users\stapi\AppData\Local\Temp\ccVMeVAo.s:14133  .debug_str:000000000000277d .LASF355
C:\Users\stapi\AppData\Local\Temp\ccVMeVAo.s:10723  .debug_loc:0000000000000000 .LLST75
C:\Users\stapi\AppData\Local\Temp\ccVMeVAo.s:10734  .debug_loc:000000000000001e .LLST76
C:\Users\stapi\AppData\Local\Temp\ccVMeVAo.s:13231  .debug_str:0000000000000070 .LASF356
C:\Users\stapi\AppData\Local\Temp\ccVMeVAo.s:10745  .debug_loc:000000000000003c .LLST77
C:\Users\stapi\AppData\Local\Temp\ccVMeVAo.s:10752  .debug_loc:000000000000004f .LLST78
C:\Users\stapi\AppData\Local\Temp\ccVMeVAo.s:2139   .text.cmd_ble_get_handle_cb:0000000000000014 .LVL277
C:\Users\stapi\AppData\Local\Temp\ccVMeVAo.s:2147   .text.cmd_ble_get_handle_cb:0000000000000028 .LVL278
C:\Users\stapi\AppData\Local\Temp\ccVMeVAo.s:2155   .text.cmd_ble_get_handle_cb:000000000000003c .LVL279
C:\Users\stapi\AppData\Local\Temp\ccVMeVAo.s:2162   .text.cmd_ble_get_handle_cb:000000000000004e .LVL280
C:\Users\stapi\AppData\Local\Temp\ccVMeVAo.s:2185   .text.cmd_ble_get_handle_cb:0000000000000064 .LVL283
C:\Users\stapi\AppData\Local\Temp\ccVMeVAo.s:2197   .text.cmd_ble_get_handle_cb:0000000000000072 .LVL285
C:\Users\stapi\AppData\Local\Temp\ccVMeVAo.s:14147  .debug_str:00000000000027ea .LASF358
C:\Users\stapi\AppData\Local\Temp\ccVMeVAo.s:18     .text.cmd_ble_help_cb:0000000000000000 .LFB48
C:\Users\stapi\AppData\Local\Temp\ccVMeVAo.s:28     .text.cmd_ble_help_cb:0000000000000010 .LFE48
C:\Users\stapi\AppData\Local\Temp\ccVMeVAo.s:26     .text.cmd_ble_help_cb:0000000000000010 .LVL0
C:\Users\stapi\AppData\Local\Temp\ccVMeVAo.s:13751  .debug_str:00000000000016b6 .LASF362
C:\Users\stapi\AppData\Local\Temp\ccVMeVAo.s:3193   .text.cmd_ble_help:0000000000000000 .LFB47
C:\Users\stapi\AppData\Local\Temp\ccVMeVAo.s:3225   .text.cmd_ble_help:0000000000000048 .LFE47
C:\Users\stapi\AppData\Local\Temp\ccVMeVAo.s:13651  .debug_str:00000000000012ac .LASF359
C:\Users\stapi\AppData\Local\Temp\ccVMeVAo.s:10775  .debug_loc:0000000000000087 .LLST136
C:\Users\stapi\AppData\Local\Temp\ccVMeVAo.s:13661  .debug_str:0000000000001319 .LASF360
C:\Users\stapi\AppData\Local\Temp\ccVMeVAo.s:10789  .debug_loc:00000000000000a8 .LLST137
C:\Users\stapi\AppData\Local\Temp\ccVMeVAo.s:3205   .text.cmd_ble_help:0000000000000018 .LVL423
C:\Users\stapi\AppData\Local\Temp\ccVMeVAo.s:3210   .text.cmd_ble_help:0000000000000028 .LVL424
C:\Users\stapi\AppData\Local\Temp\ccVMeVAo.s:3213   .text.cmd_ble_help:0000000000000030 .LVL425
C:\Users\stapi\AppData\Local\Temp\ccVMeVAo.s:3218   .text.cmd_ble_help:0000000000000040 .LVL426
C:\Users\stapi\AppData\Local\Temp\ccVMeVAo.s:13631  .debug_str:00000000000011b1 .LASF361
C:\Users\stapi\AppData\Local\Temp\ccVMeVAo.s:3134   .text.ble_base_cmd_help:0000000000000000 .LFB46
C:\Users\stapi\AppData\Local\Temp\ccVMeVAo.s:3177   .text.ble_base_cmd_help:0000000000000038 .LFE46
C:\Users\stapi\AppData\Local\Temp\ccVMeVAo.s:10803  .debug_loc:00000000000000c9 .LLST135
C:\Users\stapi\AppData\Local\Temp\ccVMeVAo.s:3162   .text.ble_base_cmd_help:000000000000002a .LVL420
C:\Users\stapi\AppData\Local\Temp\ccVMeVAo.s:13331  .debug_str:0000000000000454 .LASF363
C:\Users\stapi\AppData\Local\Temp\ccVMeVAo.s:50     .text.cmd_set_pkt_size:0000000000000000 .LFB45
C:\Users\stapi\AppData\Local\Temp\ccVMeVAo.s:161    .text.cmd_set_pkt_size:00000000000000b6 .LFE45
C:\Users\stapi\AppData\Local\Temp\ccVMeVAo.s:10811  .debug_loc:00000000000000dd .LLST0
C:\Users\stapi\AppData\Local\Temp\ccVMeVAo.s:10836  .debug_loc:0000000000000117 .LLST1
C:\Users\stapi\AppData\Local\Temp\ccVMeVAo.s:13551  .debug_str:0000000000000d74 .LASF364
C:\Users\stapi\AppData\Local\Temp\ccVMeVAo.s:13973  .debug_str:00000000000020d1 .LASF365
C:\Users\stapi\AppData\Local\Temp\ccVMeVAo.s:13829  .debug_str:00000000000019f8 .LASF366
C:\Users\stapi\AppData\Local\Temp\ccVMeVAo.s:10858  .debug_loc:000000000000014e .LLST2
C:\Users\stapi\AppData\Local\Temp\ccVMeVAo.s:13713  .debug_str:0000000000001524 .LASF367
C:\Users\stapi\AppData\Local\Temp\ccVMeVAo.s:10869  .debug_loc:000000000000016c .LLST3
C:\Users\stapi\AppData\Local\Temp\ccVMeVAo.s:13899  .debug_str:0000000000001d4a .LASF372
C:\Users\stapi\AppData\Local\Temp\ccVMeVAo.s:75     .text.cmd_set_pkt_size:0000000000000012 .LDL1
C:\Users\stapi\AppData\Local\Temp\ccVMeVAo.s:81     .text.cmd_set_pkt_size:0000000000000022 .LVL3
C:\Users\stapi\AppData\Local\Temp\ccVMeVAo.s:86     .text.cmd_set_pkt_size:0000000000000032 .LVL4
C:\Users\stapi\AppData\Local\Temp\ccVMeVAo.s:91     .text.cmd_set_pkt_size:0000000000000042 .LVL5
C:\Users\stapi\AppData\Local\Temp\ccVMeVAo.s:96     .text.cmd_set_pkt_size:0000000000000052 .LVL6
C:\Users\stapi\AppData\Local\Temp\ccVMeVAo.s:120    .text.cmd_set_pkt_size:000000000000006c .LVL10
C:\Users\stapi\AppData\Local\Temp\ccVMeVAo.s:129    .text.cmd_set_pkt_size:000000000000007c .LVL12
C:\Users\stapi\AppData\Local\Temp\ccVMeVAo.s:138    .text.cmd_set_pkt_size:000000000000008c .LVL14
C:\Users\stapi\AppData\Local\Temp\ccVMeVAo.s:146    .text.cmd_set_pkt_size:00000000000000a0 .LVL16
C:\Users\stapi\AppData\Local\Temp\ccVMeVAo.s:157    .text.cmd_set_pkt_size:00000000000000b4 .LVL19
C:\Users\stapi\AppData\Local\Temp\ccVMeVAo.s:13775  .debug_str:00000000000017a0 .LASF373
C:\Users\stapi\AppData\Local\Temp\ccVMeVAo.s:13301  .debug_str:0000000000000332 .LASF368
C:\Users\stapi\AppData\Local\Temp\ccVMeVAo.s:195    .text.cmd_set_phy:0000000000000000 .LFB43
C:\Users\stapi\AppData\Local\Temp\ccVMeVAo.s:348    .text.cmd_set_phy:0000000000000126 .LFE43
C:\Users\stapi\AppData\Local\Temp\ccVMeVAo.s:10880  .debug_loc:000000000000018a .LLST4
C:\Users\stapi\AppData\Local\Temp\ccVMeVAo.s:10905  .debug_loc:00000000000001c4 .LLST5
C:\Users\stapi\AppData\Local\Temp\ccVMeVAo.s:13251  .debug_str:0000000000000136 .LASF369
C:\Users\stapi\AppData\Local\Temp\ccVMeVAo.s:14107  .debug_str:000000000000264e .LASF370
C:\Users\stapi\AppData\Local\Temp\ccVMeVAo.s:13721  .debug_str:0000000000001554 .LASF371
C:\Users\stapi\AppData\Local\Temp\ccVMeVAo.s:10927  .debug_loc:00000000000001fb .LLST6
C:\Users\stapi\AppData\Local\Temp\ccVMeVAo.s:10938  .debug_loc:0000000000000219 .LLST7
C:\Users\stapi\AppData\Local\Temp\ccVMeVAo.s:222    .text.cmd_set_phy:0000000000000012 .LDL2
C:\Users\stapi\AppData\Local\Temp\ccVMeVAo.s:228    .text.cmd_set_phy:0000000000000022 .LVL22
C:\Users\stapi\AppData\Local\Temp\ccVMeVAo.s:233    .text.cmd_set_phy:0000000000000032 .LVL23
C:\Users\stapi\AppData\Local\Temp\ccVMeVAo.s:238    .text.cmd_set_phy:0000000000000042 .LVL24
C:\Users\stapi\AppData\Local\Temp\ccVMeVAo.s:243    .text.cmd_set_phy:0000000000000052 .LVL25
C:\Users\stapi\AppData\Local\Temp\ccVMeVAo.s:248    .text.cmd_set_phy:0000000000000062 .LVL26
C:\Users\stapi\AppData\Local\Temp\ccVMeVAo.s:252    .text.cmd_set_phy:000000000000006e .LVL27
C:\Users\stapi\AppData\Local\Temp\ccVMeVAo.s:257    .text.cmd_set_phy:000000000000007e .LVL28
C:\Users\stapi\AppData\Local\Temp\ccVMeVAo.s:262    .text.cmd_set_phy:000000000000008e .LVL29
C:\Users\stapi\AppData\Local\Temp\ccVMeVAo.s:267    .text.cmd_set_phy:000000000000009e .LVL30
C:\Users\stapi\AppData\Local\Temp\ccVMeVAo.s:272    .text.cmd_set_phy:00000000000000ae .LVL31
C:\Users\stapi\AppData\Local\Temp\ccVMeVAo.s:297    .text.cmd_set_phy:00000000000000c8 .LVL35
C:\Users\stapi\AppData\Local\Temp\ccVMeVAo.s:306    .text.cmd_set_phy:00000000000000d8 .LVL37
C:\Users\stapi\AppData\Local\Temp\ccVMeVAo.s:315    .text.cmd_set_phy:00000000000000e8 .LVL39
C:\Users\stapi\AppData\Local\Temp\ccVMeVAo.s:324    .text.cmd_set_phy:00000000000000f8 .LVL41
C:\Users\stapi\AppData\Local\Temp\ccVMeVAo.s:333    .text.cmd_set_phy:0000000000000110 .LVL43
C:\Users\stapi\AppData\Local\Temp\ccVMeVAo.s:344    .text.cmd_set_phy:0000000000000124 .LVL46
C:\Users\stapi\AppData\Local\Temp\ccVMeVAo.s:14145  .debug_str:00000000000027d9 .LASF374
C:\Users\stapi\AppData\Local\Temp\ccVMeVAo.s:2344   .text.cmd_set_dev_name:000000000000000e .LDL15
C:\Users\stapi\AppData\Local\Temp\ccVMeVAo.s:13571  .debug_str:0000000000000e3a .LASF375
C:\Users\stapi\AppData\Local\Temp\ccVMeVAo.s:13711  .debug_str:000000000000150f .LASF376
C:\Users\stapi\AppData\Local\Temp\ccVMeVAo.s:373    .text.cmd_ble_param_update:0000000000000000 .LFB40
C:\Users\stapi\AppData\Local\Temp\ccVMeVAo.s:524    .text.cmd_ble_param_update:0000000000000102 .LFE40
C:\Users\stapi\AppData\Local\Temp\ccVMeVAo.s:10949  .debug_loc:0000000000000237 .LLST8
C:\Users\stapi\AppData\Local\Temp\ccVMeVAo.s:10974  .debug_loc:0000000000000271 .LLST9
C:\Users\stapi\AppData\Local\Temp\ccVMeVAo.s:13243  .debug_str:00000000000000f5 .LASF377
C:\Users\stapi\AppData\Local\Temp\ccVMeVAo.s:13329  .debug_str:000000000000044d .LASF378
C:\Users\stapi\AppData\Local\Temp\ccVMeVAo.s:10996  .debug_loc:00000000000002a8 .LLST10
C:\Users\stapi\AppData\Local\Temp\ccVMeVAo.s:11003  .debug_loc:00000000000002bb .LLST11
C:\Users\stapi\AppData\Local\Temp\ccVMeVAo.s:402    .text.cmd_ble_param_update:0000000000000012 .LDL3
C:\Users\stapi\AppData\Local\Temp\ccVMeVAo.s:408    .text.cmd_ble_param_update:0000000000000022 .LVL49
C:\Users\stapi\AppData\Local\Temp\ccVMeVAo.s:413    .text.cmd_ble_param_update:0000000000000032 .LVL50
C:\Users\stapi\AppData\Local\Temp\ccVMeVAo.s:418    .text.cmd_ble_param_update:0000000000000042 .LVL51
C:\Users\stapi\AppData\Local\Temp\ccVMeVAo.s:423    .text.cmd_ble_param_update:0000000000000052 .LVL52
C:\Users\stapi\AppData\Local\Temp\ccVMeVAo.s:428    .text.cmd_ble_param_update:0000000000000062 .LVL53
C:\Users\stapi\AppData\Local\Temp\ccVMeVAo.s:433    .text.cmd_ble_param_update:0000000000000072 .LVL54
C:\Users\stapi\AppData\Local\Temp\ccVMeVAo.s:459    .text.cmd_ble_param_update:000000000000008c .LVL58
C:\Users\stapi\AppData\Local\Temp\ccVMeVAo.s:468    .text.cmd_ble_param_update:000000000000009c .LVL60
C:\Users\stapi\AppData\Local\Temp\ccVMeVAo.s:478    .text.cmd_ble_param_update:00000000000000ae .LVL62
C:\Users\stapi\AppData\Local\Temp\ccVMeVAo.s:487    .text.cmd_ble_param_update:00000000000000be .LVL64
C:\Users\stapi\AppData\Local\Temp\ccVMeVAo.s:496    .text.cmd_ble_param_update:00000000000000ce .LVL66
C:\Users\stapi\AppData\Local\Temp\ccVMeVAo.s:509    .text.cmd_ble_param_update:00000000000000ec .LVL68
C:\Users\stapi\AppData\Local\Temp\ccVMeVAo.s:520    .text.cmd_ble_param_update:0000000000000100 .LVL71
C:\Users\stapi\AppData\Local\Temp\ccVMeVAo.s:13959  .debug_str:0000000000002020 .LASF379
C:\Users\stapi\AppData\Local\Temp\ccVMeVAo.s:13429  .debug_str:000000000000083c .LASF380
C:\Users\stapi\AppData\Local\Temp\ccVMeVAo.s:13281  .debug_str:0000000000000261 .LASF381
C:\Users\stapi\AppData\Local\Temp\ccVMeVAo.s:13465  .debug_str:000000000000098f .LASF382
C:\Users\stapi\AppData\Local\Temp\ccVMeVAo.s:14159  .debug_str:0000000000002857 .LASF383
C:\Users\stapi\AppData\Local\Temp\ccVMeVAo.s:540    .text.cmd_passkey:0000000000000000 .LFB36
C:\Users\stapi\AppData\Local\Temp\ccVMeVAo.s:626    .text.cmd_passkey:0000000000000088 .LFE36
C:\Users\stapi\AppData\Local\Temp\ccVMeVAo.s:11014  .debug_loc:00000000000002d9 .LLST12
C:\Users\stapi\AppData\Local\Temp\ccVMeVAo.s:11028  .debug_loc:00000000000002fa .LLST13
C:\Users\stapi\AppData\Local\Temp\ccVMeVAo.s:11046  .debug_loc:0000000000000326 .LLST14
C:\Users\stapi\AppData\Local\Temp\ccVMeVAo.s:13463  .debug_str:0000000000000987 .LASF384
C:\Users\stapi\AppData\Local\Temp\ccVMeVAo.s:11058  .debug_loc:0000000000000345 .LLST15
C:\Users\stapi\AppData\Local\Temp\ccVMeVAo.s:608    .text.cmd_passkey:0000000000000056 .LDL4
C:\Users\stapi\AppData\Local\Temp\ccVMeVAo.s:571    .text.cmd_passkey:0000000000000022 .LVL76
C:\Users\stapi\AppData\Local\Temp\ccVMeVAo.s:580    .text.cmd_passkey:0000000000000032 .LVL78
C:\Users\stapi\AppData\Local\Temp\ccVMeVAo.s:594    .text.cmd_passkey:000000000000004c .LVL81
C:\Users\stapi\AppData\Local\Temp\ccVMeVAo.s:613    .text.cmd_passkey:0000000000000066 .LVL82
C:\Users\stapi\AppData\Local\Temp\ccVMeVAo.s:618    .text.cmd_passkey:0000000000000076 .LVL83
C:\Users\stapi\AppData\Local\Temp\ccVMeVAo.s:623    .text.cmd_passkey:0000000000000086 .LVL84
C:\Users\stapi\AppData\Local\Temp\ccVMeVAo.s:14063  .debug_str:0000000000002484 .LASF385
C:\Users\stapi\AppData\Local\Temp\ccVMeVAo.s:13615  .debug_str:0000000000001038 .LASF386
C:\Users\stapi\AppData\Local\Temp\ccVMeVAo.s:642    .text.cmd_pair:0000000000000000 .LFB34
C:\Users\stapi\AppData\Local\Temp\ccVMeVAo.s:738    .text.cmd_pair:0000000000000080 .LFE34
C:\Users\stapi\AppData\Local\Temp\ccVMeVAo.s:11069  .debug_loc:0000000000000363 .LLST16
C:\Users\stapi\AppData\Local\Temp\ccVMeVAo.s:11094  .debug_loc:000000000000039d .LLST17
C:\Users\stapi\AppData\Local\Temp\ccVMeVAo.s:11123  .debug_loc:00000000000003e2 .LLST18
C:\Users\stapi\AppData\Local\Temp\ccVMeVAo.s:13989  .debug_str:0000000000002138 .LASF387
C:\Users\stapi\AppData\Local\Temp\ccVMeVAo.s:11140  .debug_loc:000000000000040d .LLST19
C:\Users\stapi\AppData\Local\Temp\ccVMeVAo.s:664    .text.cmd_pair:0000000000000012 .LDL5
C:\Users\stapi\AppData\Local\Temp\ccVMeVAo.s:670    .text.cmd_pair:0000000000000022 .LVL88
C:\Users\stapi\AppData\Local\Temp\ccVMeVAo.s:678    .text.cmd_pair:0000000000000032 .LVL90
C:\Users\stapi\AppData\Local\Temp\ccVMeVAo.s:701    .text.cmd_pair:000000000000004c .LVL94
C:\Users\stapi\AppData\Local\Temp\ccVMeVAo.s:709    .text.cmd_pair:000000000000005a .LVL96
C:\Users\stapi\AppData\Local\Temp\ccVMeVAo.s:730    .text.cmd_pair:0000000000000074 .LVL100
C:\Users\stapi\AppData\Local\Temp\ccVMeVAo.s:735    .text.cmd_pair:000000000000007e .LVL101
C:\Users\stapi\AppData\Local\Temp\ccVMeVAo.s:13677  .debug_str:00000000000013c7 .LASF388
C:\Users\stapi\AppData\Local\Temp\ccVMeVAo.s:796    .text.cmd_set_auth:0000000000000000 .LFB33
C:\Users\stapi\AppData\Local\Temp\ccVMeVAo.s:978    .text.cmd_set_auth:000000000000018a .LFE33
C:\Users\stapi\AppData\Local\Temp\ccVMeVAo.s:11151  .debug_loc:000000000000042b .LLST20
C:\Users\stapi\AppData\Local\Temp\ccVMeVAo.s:11165  .debug_loc:000000000000044c .LLST21
C:\Users\stapi\AppData\Local\Temp\ccVMeVAo.s:13763  .debug_str:0000000000001744 .LASF389
C:\Users\stapi\AppData\Local\Temp\ccVMeVAo.s:11183  .debug_loc:0000000000000478 .LLST22
C:\Users\stapi\AppData\Local\Temp\ccVMeVAo.s:13349  .debug_str:00000000000004ee .LASF390
C:\Users\stapi\AppData\Local\Temp\ccVMeVAo.s:11194  .debug_loc:000000000000048f .LLST23
C:\Users\stapi\AppData\Local\Temp\ccVMeVAo.s:11213  .debug_loc:00000000000004b5 .LLST24
C:\Users\stapi\AppData\Local\Temp\ccVMeVAo.s:13741  .debug_str:0000000000001618 .LASF391
C:\Users\stapi\AppData\Local\Temp\ccVMeVAo.s:11232  .debug_loc:00000000000004db .LLST25
C:\Users\stapi\AppData\Local\Temp\ccVMeVAo.s:897    .text.cmd_set_auth:0000000000000090 .LDL6
C:\Users\stapi\AppData\Local\Temp\ccVMeVAo.s:830    .text.cmd_set_auth:0000000000000022 .LVL105
C:\Users\stapi\AppData\Local\Temp\ccVMeVAo.s:839    .text.cmd_set_auth:0000000000000032 .LVL107
C:\Users\stapi\AppData\Local\Temp\ccVMeVAo.s:849    .text.cmd_set_auth:0000000000000042 .LVL110
C:\Users\stapi\AppData\Local\Temp\ccVMeVAo.s:859    .text.cmd_set_auth:0000000000000052 .LVL113
C:\Users\stapi\AppData\Local\Temp\ccVMeVAo.s:875    .text.cmd_set_auth:0000000000000076 .LVL115
C:\Users\stapi\AppData\Local\Temp\ccVMeVAo.s:883    .text.cmd_set_auth:0000000000000086 .LVL117
C:\Users\stapi\AppData\Local\Temp\ccVMeVAo.s:902    .text.cmd_set_auth:00000000000000a0 .LVL118
C:\Users\stapi\AppData\Local\Temp\ccVMeVAo.s:907    .text.cmd_set_auth:00000000000000b0 .LVL119
C:\Users\stapi\AppData\Local\Temp\ccVMeVAo.s:912    .text.cmd_set_auth:00000000000000c0 .LVL120
C:\Users\stapi\AppData\Local\Temp\ccVMeVAo.s:917    .text.cmd_set_auth:00000000000000d0 .LVL121
C:\Users\stapi\AppData\Local\Temp\ccVMeVAo.s:922    .text.cmd_set_auth:00000000000000e0 .LVL122
C:\Users\stapi\AppData\Local\Temp\ccVMeVAo.s:927    .text.cmd_set_auth:00000000000000f0 .LVL123
C:\Users\stapi\AppData\Local\Temp\ccVMeVAo.s:932    .text.cmd_set_auth:0000000000000100 .LVL124
C:\Users\stapi\AppData\Local\Temp\ccVMeVAo.s:937    .text.cmd_set_auth:0000000000000110 .LVL125
C:\Users\stapi\AppData\Local\Temp\ccVMeVAo.s:942    .text.cmd_set_auth:0000000000000120 .LVL126
C:\Users\stapi\AppData\Local\Temp\ccVMeVAo.s:947    .text.cmd_set_auth:0000000000000130 .LVL127
C:\Users\stapi\AppData\Local\Temp\ccVMeVAo.s:952    .text.cmd_set_auth:0000000000000140 .LVL128
C:\Users\stapi\AppData\Local\Temp\ccVMeVAo.s:957    .text.cmd_set_auth:0000000000000150 .LVL129
C:\Users\stapi\AppData\Local\Temp\ccVMeVAo.s:962    .text.cmd_set_auth:0000000000000160 .LVL130
C:\Users\stapi\AppData\Local\Temp\ccVMeVAo.s:967    .text.cmd_set_auth:0000000000000170 .LVL131
C:\Users\stapi\AppData\Local\Temp\ccVMeVAo.s:972    .text.cmd_set_auth:0000000000000180 .LVL132
C:\Users\stapi\AppData\Local\Temp\ccVMeVAo.s:13897  .debug_str:0000000000001d38 .LASF392
C:\Users\stapi\AppData\Local\Temp\ccVMeVAo.s:984    .text.cmd_list_sec_devs:0000000000000000 .LFB32
C:\Users\stapi\AppData\Local\Temp\ccVMeVAo.s:992    .text.cmd_list_sec_devs:0000000000000008 .LFE32
C:\Users\stapi\AppData\Local\Temp\ccVMeVAo.s:11239  .debug_loc:00000000000004ee .LLST26
C:\Users\stapi\AppData\Local\Temp\ccVMeVAo.s:11253  .debug_loc:000000000000050f .LLST27
C:\Users\stapi\AppData\Local\Temp\ccVMeVAo.s:990    .text.cmd_list_sec_devs:0000000000000008 .LVL134
C:\Users\stapi\AppData\Local\Temp\ccVMeVAo.s:13901  .debug_str:0000000000001d50 .LASF393
C:\Users\stapi\AppData\Local\Temp\ccVMeVAo.s:1011   .text.cmd_remove_bond:0000000000000000 .LFB31
C:\Users\stapi\AppData\Local\Temp\ccVMeVAo.s:1104   .text.cmd_remove_bond:0000000000000088 .LFE31
C:\Users\stapi\AppData\Local\Temp\ccVMeVAo.s:11267  .debug_loc:0000000000000530 .LLST28
C:\Users\stapi\AppData\Local\Temp\ccVMeVAo.s:11292  .debug_loc:000000000000056a .LLST29
C:\Users\stapi\AppData\Local\Temp\ccVMeVAo.s:11321  .debug_loc:00000000000005af .LLST30
C:\Users\stapi\AppData\Local\Temp\ccVMeVAo.s:14053  .debug_str:0000000000002410 .LASF394
C:\Users\stapi\AppData\Local\Temp\ccVMeVAo.s:11340  .debug_loc:00000000000005dc .LLST31
C:\Users\stapi\AppData\Local\Temp\ccVMeVAo.s:1032   .text.cmd_remove_bond:0000000000000012 .LDL7
C:\Users\stapi\AppData\Local\Temp\ccVMeVAo.s:1038   .text.cmd_remove_bond:0000000000000022 .LVL138
C:\Users\stapi\AppData\Local\Temp\ccVMeVAo.s:1046   .text.cmd_remove_bond:0000000000000032 .LVL140
C:\Users\stapi\AppData\Local\Temp\ccVMeVAo.s:1067   .text.cmd_remove_bond:000000000000004c .LVL144
C:\Users\stapi\AppData\Local\Temp\ccVMeVAo.s:1072   .text.cmd_remove_bond:0000000000000058 .LVL145
C:\Users\stapi\AppData\Local\Temp\ccVMeVAo.s:1091   .text.cmd_remove_bond:0000000000000072 .LVL150
C:\Users\stapi\AppData\Local\Temp\ccVMeVAo.s:13855  .debug_str:0000000000001af6 .LASF395
C:\Users\stapi\AppData\Local\Temp\ccVMeVAo.s:13587  .debug_str:0000000000000eee .LASF396
C:\Users\stapi\AppData\Local\Temp\ccVMeVAo.s:1114   .text.cmd_cancel_connect:0000000000000000 .LFB29
C:\Users\stapi\AppData\Local\Temp\ccVMeVAo.s:1142   .text.cmd_cancel_connect:000000000000002c .LFE29
C:\Users\stapi\AppData\Local\Temp\ccVMeVAo.s:11369  .debug_loc:0000000000000628 .LLST32
C:\Users\stapi\AppData\Local\Temp\ccVMeVAo.s:11383  .debug_loc:0000000000000649 .LLST33
C:\Users\stapi\AppData\Local\Temp\ccVMeVAo.s:11397  .debug_loc:000000000000066a .LLST34
C:\Users\stapi\AppData\Local\Temp\ccVMeVAo.s:1125   .text.cmd_cancel_connect:0000000000000010 .LVL152
C:\Users\stapi\AppData\Local\Temp\ccVMeVAo.s:1135   .text.cmd_cancel_connect:0000000000000024 .LVL154
C:\Users\stapi\AppData\Local\Temp\ccVMeVAo.s:13433  .debug_str:0000000000000855 .LASF397
C:\Users\stapi\AppData\Local\Temp\ccVMeVAo.s:1158   .text.cmd_connect:0000000000000000 .LFB28
C:\Users\stapi\AppData\Local\Temp\ccVMeVAo.s:1254   .text.cmd_connect:000000000000008c .LFE28
C:\Users\stapi\AppData\Local\Temp\ccVMeVAo.s:11408  .debug_loc:0000000000000688 .LLST35
C:\Users\stapi\AppData\Local\Temp\ccVMeVAo.s:11433  .debug_loc:00000000000006c2 .LLST36
C:\Users\stapi\AppData\Local\Temp\ccVMeVAo.s:11462  .debug_loc:0000000000000707 .LLST37
C:\Users\stapi\AppData\Local\Temp\ccVMeVAo.s:14029  .debug_str:00000000000022da .LASF398
C:\Users\stapi\AppData\Local\Temp\ccVMeVAo.s:11481  .debug_loc:0000000000000734 .LLST38
C:\Users\stapi\AppData\Local\Temp\ccVMeVAo.s:11508  .debug_loc:0000000000000777 .LLST39
C:\Users\stapi\AppData\Local\Temp\ccVMeVAo.s:1180   .text.cmd_connect:0000000000000012 .LDL8
C:\Users\stapi\AppData\Local\Temp\ccVMeVAo.s:1186   .text.cmd_connect:0000000000000022 .LVL158
C:\Users\stapi\AppData\Local\Temp\ccVMeVAo.s:1194   .text.cmd_connect:0000000000000032 .LVL160
C:\Users\stapi\AppData\Local\Temp\ccVMeVAo.s:1216   .text.cmd_connect:000000000000004c .LVL164
C:\Users\stapi\AppData\Local\Temp\ccVMeVAo.s:1221   .text.cmd_connect:0000000000000058 .LVL165
C:\Users\stapi\AppData\Local\Temp\ccVMeVAo.s:1240   .text.cmd_connect:0000000000000076 .LVL169
C:\Users\stapi\AppData\Local\Temp\ccVMeVAo.s:1251   .text.cmd_connect:000000000000008a .LVL172
C:\Users\stapi\AppData\Local\Temp\ccVMeVAo.s:13669  .debug_str:0000000000001371 .LASF399
C:\Users\stapi\AppData\Local\Temp\ccVMeVAo.s:1276   .text.cmd_sync_ctrl:0000000000000000 .LFB27
C:\Users\stapi\AppData\Local\Temp\ccVMeVAo.s:1374   .text.cmd_sync_ctrl:00000000000000a2 .LFE27
C:\Users\stapi\AppData\Local\Temp\ccVMeVAo.s:11519  .debug_loc:0000000000000795 .LLST40
C:\Users\stapi\AppData\Local\Temp\ccVMeVAo.s:11544  .debug_loc:00000000000007cf .LLST41
C:\Users\stapi\AppData\Local\Temp\ccVMeVAo.s:14155  .debug_str:000000000000283a .LASF400
C:\Users\stapi\AppData\Local\Temp\ccVMeVAo.s:13443  .debug_str:00000000000008ac .LASF401
C:\Users\stapi\AppData\Local\Temp\ccVMeVAo.s:11566  .debug_loc:0000000000000806 .LLST42
C:\Users\stapi\AppData\Local\Temp\ccVMeVAo.s:11577  .debug_loc:0000000000000824 .LLST43
C:\Users\stapi\AppData\Local\Temp\ccVMeVAo.s:1299   .text.cmd_sync_ctrl:0000000000000012 .LDL9
C:\Users\stapi\AppData\Local\Temp\ccVMeVAo.s:1305   .text.cmd_sync_ctrl:0000000000000022 .LVL175
C:\Users\stapi\AppData\Local\Temp\ccVMeVAo.s:1310   .text.cmd_sync_ctrl:0000000000000032 .LVL176
C:\Users\stapi\AppData\Local\Temp\ccVMeVAo.s:1315   .text.cmd_sync_ctrl:0000000000000042 .LVL177
C:\Users\stapi\AppData\Local\Temp\ccVMeVAo.s:1320   .text.cmd_sync_ctrl:0000000000000052 .LVL178
C:\Users\stapi\AppData\Local\Temp\ccVMeVAo.s:1343   .text.cmd_sync_ctrl:000000000000006c .LVL182
C:\Users\stapi\AppData\Local\Temp\ccVMeVAo.s:1352   .text.cmd_sync_ctrl:000000000000007c .LVL184
C:\Users\stapi\AppData\Local\Temp\ccVMeVAo.s:1359   .text.cmd_sync_ctrl:000000000000008c .LVL186
C:\Users\stapi\AppData\Local\Temp\ccVMeVAo.s:1370   .text.cmd_sync_ctrl:00000000000000a0 .LVL189
C:\Users\stapi\AppData\Local\Temp\ccVMeVAo.s:13655  .debug_str:00000000000012c2 .LASF402
C:\Users\stapi\AppData\Local\Temp\ccVMeVAo.s:13871  .debug_str:0000000000001b88 .LASF403
C:\Users\stapi\AppData\Local\Temp\ccVMeVAo.s:1380   .text.cmd_sync_cancel:0000000000000000 .LFB25
C:\Users\stapi\AppData\Local\Temp\ccVMeVAo.s:1388   .text.cmd_sync_cancel:0000000000000008 .LFE25
C:\Users\stapi\AppData\Local\Temp\ccVMeVAo.s:11588  .debug_loc:0000000000000842 .LLST44
C:\Users\stapi\AppData\Local\Temp\ccVMeVAo.s:11602  .debug_loc:0000000000000863 .LLST45
C:\Users\stapi\AppData\Local\Temp\ccVMeVAo.s:1386   .text.cmd_sync_cancel:0000000000000008 .LVL191
C:\Users\stapi\AppData\Local\Temp\ccVMeVAo.s:13825  .debug_str:00000000000019d1 .LASF404
C:\Users\stapi\AppData\Local\Temp\ccVMeVAo.s:1407   .text.cmd_sync:0000000000000000 .LFB24
C:\Users\stapi\AppData\Local\Temp\ccVMeVAo.s:1537   .text.cmd_sync:00000000000000be .LFE24
C:\Users\stapi\AppData\Local\Temp\ccVMeVAo.s:11616  .debug_loc:0000000000000884 .LLST46
C:\Users\stapi\AppData\Local\Temp\ccVMeVAo.s:11641  .debug_loc:00000000000008be .LLST47
C:\Users\stapi\AppData\Local\Temp\ccVMeVAo.s:11670  .debug_loc:0000000000000903 .LLST48
C:\Users\stapi\AppData\Local\Temp\ccVMeVAo.s:13621  .debug_str:0000000000001060 .LASF405
C:\Users\stapi\AppData\Local\Temp\ccVMeVAo.s:11687  .debug_loc:000000000000092e .LLST49
C:\Users\stapi\AppData\Local\Temp\ccVMeVAo.s:11694  .debug_loc:0000000000000941 .LLST50
C:\Users\stapi\AppData\Local\Temp\ccVMeVAo.s:1447   .text.cmd_sync:0000000000000026 .LDL10
C:\Users\stapi\AppData\Local\Temp\ccVMeVAo.s:1453   .text.cmd_sync:0000000000000036 .LVL195
C:\Users\stapi\AppData\Local\Temp\ccVMeVAo.s:1461   .text.cmd_sync:0000000000000046 .LVL197
C:\Users\stapi\AppData\Local\Temp\ccVMeVAo.s:1484   .text.cmd_sync:0000000000000060 .LVL201
C:\Users\stapi\AppData\Local\Temp\ccVMeVAo.s:1489   .text.cmd_sync:000000000000006c .LVL202
C:\Users\stapi\AppData\Local\Temp\ccVMeVAo.s:1511   .text.cmd_sync:0000000000000094 .LVL204
C:\Users\stapi\AppData\Local\Temp\ccVMeVAo.s:1523   .text.cmd_sync:00000000000000a8 .LVL205
C:\Users\stapi\AppData\Local\Temp\ccVMeVAo.s:1534   .text.cmd_sync:00000000000000bc .LVL208
C:\Users\stapi\AppData\Local\Temp\ccVMeVAo.s:13917  .debug_str:0000000000001e0b .LASF406
C:\Users\stapi\AppData\Local\Temp\ccVMeVAo.s:1543   .text.cmd_list_scan_devs:0000000000000000 .LFB23
C:\Users\stapi\AppData\Local\Temp\ccVMeVAo.s:1551   .text.cmd_list_scan_devs:0000000000000008 .LFE23
C:\Users\stapi\AppData\Local\Temp\ccVMeVAo.s:11705  .debug_loc:000000000000095f .LLST51
C:\Users\stapi\AppData\Local\Temp\ccVMeVAo.s:11719  .debug_loc:0000000000000980 .LLST52
C:\Users\stapi\AppData\Local\Temp\ccVMeVAo.s:1549   .text.cmd_list_scan_devs:0000000000000008 .LVL210
C:\Users\stapi\AppData\Local\Temp\ccVMeVAo.s:13769  .debug_str:0000000000001767 .LASF407
C:\Users\stapi\AppData\Local\Temp\ccVMeVAo.s:1557   .text.cmd_scan_stop:0000000000000000 .LFB22
C:\Users\stapi\AppData\Local\Temp\ccVMeVAo.s:1565   .text.cmd_scan_stop:0000000000000008 .LFE22
C:\Users\stapi\AppData\Local\Temp\ccVMeVAo.s:11733  .debug_loc:00000000000009a1 .LLST53
C:\Users\stapi\AppData\Local\Temp\ccVMeVAo.s:11747  .debug_loc:00000000000009c2 .LLST54
C:\Users\stapi\AppData\Local\Temp\ccVMeVAo.s:1563   .text.cmd_scan_stop:0000000000000008 .LVL212
C:\Users\stapi\AppData\Local\Temp\ccVMeVAo.s:13279  .debug_str:0000000000000258 .LASF408
C:\Users\stapi\AppData\Local\Temp\ccVMeVAo.s:1571   .text.cmd_scan:0000000000000000 .LFB21
C:\Users\stapi\AppData\Local\Temp\ccVMeVAo.s:1581   .text.cmd_scan:000000000000000a .LFE21
C:\Users\stapi\AppData\Local\Temp\ccVMeVAo.s:11761  .debug_loc:00000000000009e3 .LLST55
C:\Users\stapi\AppData\Local\Temp\ccVMeVAo.s:11775  .debug_loc:0000000000000a04 .LLST56
C:\Users\stapi\AppData\Local\Temp\ccVMeVAo.s:1579   .text.cmd_scan:000000000000000a .LVL215
C:\Users\stapi\AppData\Local\Temp\ccVMeVAo.s:13379  .debug_str:000000000000061a .LASF409
C:\Users\stapi\AppData\Local\Temp\ccVMeVAo.s:14003  .debug_str:00000000000021c3 .LASF410
C:\Users\stapi\AppData\Local\Temp\ccVMeVAo.s:1600   .text.cmd_advertise_stop:0000000000000000 .LFB19
C:\Users\stapi\AppData\Local\Temp\ccVMeVAo.s:1710   .text.cmd_advertise_stop:00000000000000a0 .LFE19
C:\Users\stapi\AppData\Local\Temp\ccVMeVAo.s:11789  .debug_loc:0000000000000a25 .LLST57
C:\Users\stapi\AppData\Local\Temp\ccVMeVAo.s:11807  .debug_loc:0000000000000a51 .LLST58
C:\Users\stapi\AppData\Local\Temp\ccVMeVAo.s:11829  .debug_loc:0000000000000a88 .LLST59
C:\Users\stapi\AppData\Local\Temp\ccVMeVAo.s:13619  .debug_str:0000000000001058 .LASF411
C:\Users\stapi\AppData\Local\Temp\ccVMeVAo.s:11846  .debug_loc:0000000000000ab3 .LLST60
C:\Users\stapi\AppData\Local\Temp\ccVMeVAo.s:11863  .debug_loc:0000000000000ade .LLST61
C:\Users\stapi\AppData\Local\Temp\ccVMeVAo.s:1631   .text.cmd_advertise_stop:000000000000001a .LDL11
C:\Users\stapi\AppData\Local\Temp\ccVMeVAo.s:1637   .text.cmd_advertise_stop:000000000000002a .LVL219
C:\Users\stapi\AppData\Local\Temp\ccVMeVAo.s:1642   .text.cmd_advertise_stop:000000000000003a .LVL220
C:\Users\stapi\AppData\Local\Temp\ccVMeVAo.s:1647   .text.cmd_advertise_stop:000000000000004a .LVL221
C:\Users\stapi\AppData\Local\Temp\ccVMeVAo.s:1671   .text.cmd_advertise_stop:0000000000000064 .LVL224
C:\Users\stapi\AppData\Local\Temp\ccVMeVAo.s:1686   .text.cmd_advertise_stop:000000000000007c .LVL226
C:\Users\stapi\AppData\Local\Temp\ccVMeVAo.s:1695   .text.cmd_advertise_stop:000000000000008a .LVL228
C:\Users\stapi\AppData\Local\Temp\ccVMeVAo.s:1706   .text.cmd_advertise_stop:000000000000009e .LVL231
C:\Users\stapi\AppData\Local\Temp\ccVMeVAo.s:14073  .debug_str:00000000000024d6 .LASF412
C:\Users\stapi\AppData\Local\Temp\ccVMeVAo.s:1732   .text.cmd_advertise:0000000000000000 .LFB18
C:\Users\stapi\AppData\Local\Temp\ccVMeVAo.s:1872   .text.cmd_advertise:00000000000000cc .LFE18
C:\Users\stapi\AppData\Local\Temp\ccVMeVAo.s:11874  .debug_loc:0000000000000afc .LLST62
C:\Users\stapi\AppData\Local\Temp\ccVMeVAo.s:11885  .debug_loc:0000000000000b1a .LLST63
C:\Users\stapi\AppData\Local\Temp\ccVMeVAo.s:14001  .debug_str:00000000000021b9 .LASF413
C:\Users\stapi\AppData\Local\Temp\ccVMeVAo.s:11896  .debug_loc:0000000000000b38 .LLST64
C:\Users\stapi\AppData\Local\Temp\ccVMeVAo.s:13865  .debug_str:0000000000001b67 .LASF414
C:\Users\stapi\AppData\Local\Temp\ccVMeVAo.s:1850   .text.cmd_advertise:000000000000008e .LDL12
C:\Users\stapi\AppData\Local\Temp\ccVMeVAo.s:1764   .text.cmd_advertise:0000000000000022 .LVL234
C:\Users\stapi\AppData\Local\Temp\ccVMeVAo.s:1774   .text.cmd_advertise:0000000000000034 .LVL235
C:\Users\stapi\AppData\Local\Temp\ccVMeVAo.s:1813   .text.cmd_advertise:0000000000000064 .LVL236
C:\Users\stapi\AppData\Local\Temp\ccVMeVAo.s:1827   .text.cmd_advertise:0000000000000078 .LVL240
C:\Users\stapi\AppData\Local\Temp\ccVMeVAo.s:1855   .text.cmd_advertise:000000000000009e .LVL241
C:\Users\stapi\AppData\Local\Temp\ccVMeVAo.s:1860   .text.cmd_advertise:00000000000000ae .LVL242
C:\Users\stapi\AppData\Local\Temp\ccVMeVAo.s:1865   .text.cmd_advertise:00000000000000be .LVL243
C:\Users\stapi\AppData\Local\Temp\ccVMeVAo.s:13273  .debug_str:0000000000000223 .LASF415
C:\Users\stapi\AppData\Local\Temp\ccVMeVAo.s:1899   .text.cmd_ble_courier_wifi:0000000000000000 .LFB17
C:\Users\stapi\AppData\Local\Temp\ccVMeVAo.s:1983   .text.cmd_ble_courier_wifi:0000000000000074 .LFE17
C:\Users\stapi\AppData\Local\Temp\ccVMeVAo.s:11907  .debug_loc:0000000000000b56 .LLST67
C:\Users\stapi\AppData\Local\Temp\ccVMeVAo.s:11932  .debug_loc:0000000000000b90 .LLST68
C:\Users\stapi\AppData\Local\Temp\ccVMeVAo.s:13695  .debug_str:0000000000001472 .LASF416
C:\Users\stapi\AppData\Local\Temp\ccVMeVAo.s:11961  .debug_loc:0000000000000bd5 .LLST69
C:\Users\stapi\AppData\Local\Temp\ccVMeVAo.s:1924   .text.cmd_ble_courier_wifi:0000000000000022 .LVL248
C:\Users\stapi\AppData\Local\Temp\ccVMeVAo.s:1947   .text.cmd_ble_courier_wifi:000000000000003c .LVL252
C:\Users\stapi\AppData\Local\Temp\ccVMeVAo.s:1959   .text.cmd_ble_courier_wifi:000000000000004c .LVL254
C:\Users\stapi\AppData\Local\Temp\ccVMeVAo.s:1964   .text.cmd_ble_courier_wifi:0000000000000056 .LVL255
C:\Users\stapi\AppData\Local\Temp\ccVMeVAo.s:1972   .text.cmd_ble_courier_wifi:0000000000000060 .LVL256
C:\Users\stapi\AppData\Local\Temp\ccVMeVAo.s:1980   .text.cmd_ble_courier_wifi:0000000000000072 .LVL259
C:\Users\stapi\AppData\Local\Temp\ccVMeVAo.s:13791  .debug_str:0000000000001857 .LASF417
C:\Users\stapi\AppData\Local\Temp\ccVMeVAo.s:2005   .text.cmd_ble_ps:0000000000000000 .LFB16
C:\Users\stapi\AppData\Local\Temp\ccVMeVAo.s:2088   .text.cmd_ble_ps:00000000000000a4 .LFE16
C:\Users\stapi\AppData\Local\Temp\ccVMeVAo.s:11972  .debug_loc:0000000000000bf3 .LLST70
C:\Users\stapi\AppData\Local\Temp\ccVMeVAo.s:11986  .debug_loc:0000000000000c14 .LLST71
C:\Users\stapi\AppData\Local\Temp\ccVMeVAo.s:13987  .debug_str:0000000000002133 .LASF418
C:\Users\stapi\AppData\Local\Temp\ccVMeVAo.s:12004  .debug_loc:0000000000000c40 .LLST72
C:\Users\stapi\AppData\Local\Temp\ccVMeVAo.s:2062   .text.cmd_ble_ps:0000000000000058 .LDL13
C:\Users\stapi\AppData\Local\Temp\ccVMeVAo.s:2032   .text.cmd_ble_ps:0000000000000022 .LVL263
C:\Users\stapi\AppData\Local\Temp\ccVMeVAo.s:2042   .text.cmd_ble_ps:0000000000000034 .LVL265
C:\Users\stapi\AppData\Local\Temp\ccVMeVAo.s:2045   .text.cmd_ble_ps:000000000000003c .LVL266
C:\Users\stapi\AppData\Local\Temp\ccVMeVAo.s:2050   .text.cmd_ble_ps:000000000000004e .LVL267
C:\Users\stapi\AppData\Local\Temp\ccVMeVAo.s:2065   .text.cmd_ble_ps:0000000000000060 .LVL268
C:\Users\stapi\AppData\Local\Temp\ccVMeVAo.s:2070   .text.cmd_ble_ps:0000000000000072 .LVL269
C:\Users\stapi\AppData\Local\Temp\ccVMeVAo.s:2075   .text.cmd_ble_ps:0000000000000082 .LVL270
C:\Users\stapi\AppData\Local\Temp\ccVMeVAo.s:2080   .text.cmd_ble_ps:0000000000000092 .LVL271
C:\Users\stapi\AppData\Local\Temp\ccVMeVAo.s:2085   .text.cmd_ble_ps:00000000000000a2 .LVL272
C:\Users\stapi\AppData\Local\Temp\ccVMeVAo.s:13975  .debug_str:00000000000020d8 .LASF419
C:\Users\stapi\AppData\Local\Temp\ccVMeVAo.s:2094   .text.cmd_ble_disable:0000000000000000 .LFB15
C:\Users\stapi\AppData\Local\Temp\ccVMeVAo.s:2102   .text.cmd_ble_disable:0000000000000008 .LFE15
C:\Users\stapi\AppData\Local\Temp\ccVMeVAo.s:12011  .debug_loc:0000000000000c53 .LLST73
C:\Users\stapi\AppData\Local\Temp\ccVMeVAo.s:12025  .debug_loc:0000000000000c74 .LLST74
C:\Users\stapi\AppData\Local\Temp\ccVMeVAo.s:2100   .text.cmd_ble_disable:0000000000000008 .LVL274
C:\Users\stapi\AppData\Local\Temp\ccVMeVAo.s:14037  .debug_str:000000000000233c .LASF420
C:\Users\stapi\AppData\Local\Temp\ccVMeVAo.s:1878   .text.cmd_ble_enable:0000000000000000 .LFB14
C:\Users\stapi\AppData\Local\Temp\ccVMeVAo.s:1886   .text.cmd_ble_enable:0000000000000008 .LFE14
C:\Users\stapi\AppData\Local\Temp\ccVMeVAo.s:12039  .debug_loc:0000000000000c95 .LLST65
C:\Users\stapi\AppData\Local\Temp\ccVMeVAo.s:12053  .debug_loc:0000000000000cb6 .LLST66
C:\Users\stapi\AppData\Local\Temp\ccVMeVAo.s:1884   .text.cmd_ble_enable:0000000000000008 .LVL245
C:\Users\stapi\AppData\Local\Temp\ccVMeVAo.s:2234   .text.cmd_get_phy:0000000000000000 .LFB44
C:\Users\stapi\AppData\Local\Temp\ccVMeVAo.s:2311   .text.cmd_get_phy:000000000000006e .LFE44
C:\Users\stapi\AppData\Local\Temp\ccVMeVAo.s:12067  .debug_loc:0000000000000cd7 .LLST79
C:\Users\stapi\AppData\Local\Temp\ccVMeVAo.s:12092  .debug_loc:0000000000000d11 .LLST80
C:\Users\stapi\AppData\Local\Temp\ccVMeVAo.s:12121  .debug_loc:0000000000000d56 .LLST81
C:\Users\stapi\AppData\Local\Temp\ccVMeVAo.s:12128  .debug_loc:0000000000000d69 .LLST82
C:\Users\stapi\AppData\Local\Temp\ccVMeVAo.s:2254   .text.cmd_get_phy:0000000000000012 .LBB4
C:\Users\stapi\AppData\Local\Temp\ccVMeVAo.s:2271   .text.cmd_get_phy:0000000000000032 .LBE4
C:\Users\stapi\AppData\Local\Temp\ccVMeVAo.s:12139  .debug_loc:0000000000000d87 .LLST83
C:\Users\stapi\AppData\Local\Temp\ccVMeVAo.s:12153  .debug_loc:0000000000000da8 .LLST84
C:\Users\stapi\AppData\Local\Temp\ccVMeVAo.s:2257   .text.cmd_get_phy:0000000000000012 .LDL14
C:\Users\stapi\AppData\Local\Temp\ccVMeVAo.s:2263   .text.cmd_get_phy:0000000000000022 .LVL292
C:\Users\stapi\AppData\Local\Temp\ccVMeVAo.s:2268   .text.cmd_get_phy:0000000000000032 .LVL293
C:\Users\stapi\AppData\Local\Temp\ccVMeVAo.s:2291   .text.cmd_get_phy:000000000000004c .LVL297
C:\Users\stapi\AppData\Local\Temp\ccVMeVAo.s:2296   .text.cmd_get_phy:0000000000000058 .LVL298
C:\Users\stapi\AppData\Local\Temp\ccVMeVAo.s:2307   .text.cmd_get_phy:000000000000006c .LVL301
C:\Users\stapi\AppData\Local\Temp\ccVMeVAo.s:2330   .text.cmd_set_dev_name:0000000000000000 .LFB42
C:\Users\stapi\AppData\Local\Temp\ccVMeVAo.s:2408   .text.cmd_set_dev_name:000000000000007a .LFE42
C:\Users\stapi\AppData\Local\Temp\ccVMeVAo.s:12167  .debug_loc:0000000000000dc9 .LLST85
C:\Users\stapi\AppData\Local\Temp\ccVMeVAo.s:12192  .debug_loc:0000000000000e03 .LLST86
C:\Users\stapi\AppData\Local\Temp\ccVMeVAo.s:2392   .text.cmd_set_dev_name:000000000000005e .LBB8
C:\Users\stapi\AppData\Local\Temp\ccVMeVAo.s:2406   .text.cmd_set_dev_name:000000000000007a .LBE8
C:\Users\stapi\AppData\Local\Temp\ccVMeVAo.s:12214  .debug_loc:0000000000000e3a .LLST87
C:\Users\stapi\AppData\Local\Temp\ccVMeVAo.s:12222  .debug_loc:0000000000000e4e .LLST88
C:\Users\stapi\AppData\Local\Temp\ccVMeVAo.s:2396   .text.cmd_set_dev_name:0000000000000066 .LVL311
C:\Users\stapi\AppData\Local\Temp\ccVMeVAo.s:2402   .text.cmd_set_dev_name:0000000000000078 .LVL312
C:\Users\stapi\AppData\Local\Temp\ccVMeVAo.s:2350   .text.cmd_set_dev_name:000000000000001e .LVL304
C:\Users\stapi\AppData\Local\Temp\ccVMeVAo.s:2357   .text.cmd_set_dev_name:000000000000002e .LVL305
C:\Users\stapi\AppData\Local\Temp\ccVMeVAo.s:2378   .text.cmd_set_dev_name:0000000000000044 .LVL308
C:\Users\stapi\AppData\Local\Temp\ccVMeVAo.s:2383   .text.cmd_set_dev_name:0000000000000052 .LVL309
C:\Users\stapi\AppData\Local\Temp\ccVMeVAo.s:2421   .text.cmd_get_rssi:0000000000000000 .LFB41
C:\Users\stapi\AppData\Local\Temp\ccVMeVAo.s:2498   .text.cmd_get_rssi:000000000000006e .LFE41
C:\Users\stapi\AppData\Local\Temp\ccVMeVAo.s:12229  .debug_loc:0000000000000e61 .LLST89
C:\Users\stapi\AppData\Local\Temp\ccVMeVAo.s:12254  .debug_loc:0000000000000e9b .LLST90
C:\Users\stapi\AppData\Local\Temp\ccVMeVAo.s:12283  .debug_loc:0000000000000ee0 .LLST91
C:\Users\stapi\AppData\Local\Temp\ccVMeVAo.s:12290  .debug_loc:0000000000000ef3 .LLST92
C:\Users\stapi\AppData\Local\Temp\ccVMeVAo.s:2441   .text.cmd_get_rssi:0000000000000012 .LBB12
C:\Users\stapi\AppData\Local\Temp\ccVMeVAo.s:2458   .text.cmd_get_rssi:0000000000000032 .LBE12
C:\Users\stapi\AppData\Local\Temp\ccVMeVAo.s:12301  .debug_loc:0000000000000f11 .LLST93
C:\Users\stapi\AppData\Local\Temp\ccVMeVAo.s:12315  .debug_loc:0000000000000f32 .LLST94
C:\Users\stapi\AppData\Local\Temp\ccVMeVAo.s:2444   .text.cmd_get_rssi:0000000000000012 .LDL16
C:\Users\stapi\AppData\Local\Temp\ccVMeVAo.s:2450   .text.cmd_get_rssi:0000000000000022 .LVL316
C:\Users\stapi\AppData\Local\Temp\ccVMeVAo.s:2455   .text.cmd_get_rssi:0000000000000032 .LVL317
C:\Users\stapi\AppData\Local\Temp\ccVMeVAo.s:2478   .text.cmd_get_rssi:000000000000004c .LVL321
C:\Users\stapi\AppData\Local\Temp\ccVMeVAo.s:2483   .text.cmd_get_rssi:0000000000000058 .LVL322
C:\Users\stapi\AppData\Local\Temp\ccVMeVAo.s:2494   .text.cmd_get_rssi:000000000000006c .LVL325
C:\Users\stapi\AppData\Local\Temp\ccVMeVAo.s:2511   .text.cmd_ble_peer_ver:0000000000000000 .LFB39
C:\Users\stapi\AppData\Local\Temp\ccVMeVAo.s:2589   .text.cmd_ble_peer_ver:000000000000006e .LFE39
C:\Users\stapi\AppData\Local\Temp\ccVMeVAo.s:12329  .debug_loc:0000000000000f53 .LLST95
C:\Users\stapi\AppData\Local\Temp\ccVMeVAo.s:12354  .debug_loc:0000000000000f8d .LLST96
C:\Users\stapi\AppData\Local\Temp\ccVMeVAo.s:12383  .debug_loc:0000000000000fd2 .LLST97
C:\Users\stapi\AppData\Local\Temp\ccVMeVAo.s:12400  .debug_loc:0000000000000ffd .LLST98
C:\Users\stapi\AppData\Local\Temp\ccVMeVAo.s:2532   .text.cmd_ble_peer_ver:0000000000000012 .LBB16
C:\Users\stapi\AppData\Local\Temp\ccVMeVAo.s:2549   .text.cmd_ble_peer_ver:0000000000000032 .LBE16
C:\Users\stapi\AppData\Local\Temp\ccVMeVAo.s:12411  .debug_loc:000000000000101b .LLST99
C:\Users\stapi\AppData\Local\Temp\ccVMeVAo.s:12425  .debug_loc:000000000000103c .LLST100
C:\Users\stapi\AppData\Local\Temp\ccVMeVAo.s:2535   .text.cmd_ble_peer_ver:0000000000000012 .LDL17
C:\Users\stapi\AppData\Local\Temp\ccVMeVAo.s:2541   .text.cmd_ble_peer_ver:0000000000000022 .LVL330
C:\Users\stapi\AppData\Local\Temp\ccVMeVAo.s:2546   .text.cmd_ble_peer_ver:0000000000000032 .LVL331
C:\Users\stapi\AppData\Local\Temp\ccVMeVAo.s:2569   .text.cmd_ble_peer_ver:000000000000004c .LVL335
C:\Users\stapi\AppData\Local\Temp\ccVMeVAo.s:2574   .text.cmd_ble_peer_ver:0000000000000058 .LVL336
C:\Users\stapi\AppData\Local\Temp\ccVMeVAo.s:2585   .text.cmd_ble_peer_ver:000000000000006c .LVL339
C:\Users\stapi\AppData\Local\Temp\ccVMeVAo.s:2602   .text.cmd_ble_peer_feat:0000000000000000 .LFB38
C:\Users\stapi\AppData\Local\Temp\ccVMeVAo.s:2680   .text.cmd_ble_peer_feat:000000000000006e .LFE38
C:\Users\stapi\AppData\Local\Temp\ccVMeVAo.s:12439  .debug_loc:000000000000105d .LLST101
C:\Users\stapi\AppData\Local\Temp\ccVMeVAo.s:12464  .debug_loc:0000000000001097 .LLST102
C:\Users\stapi\AppData\Local\Temp\ccVMeVAo.s:12493  .debug_loc:00000000000010dc .LLST103
C:\Users\stapi\AppData\Local\Temp\ccVMeVAo.s:12510  .debug_loc:0000000000001107 .LLST104
C:\Users\stapi\AppData\Local\Temp\ccVMeVAo.s:2623   .text.cmd_ble_peer_feat:0000000000000012 .LBB20
C:\Users\stapi\AppData\Local\Temp\ccVMeVAo.s:2640   .text.cmd_ble_peer_feat:0000000000000032 .LBE20
C:\Users\stapi\AppData\Local\Temp\ccVMeVAo.s:12521  .debug_loc:0000000000001125 .LLST105
C:\Users\stapi\AppData\Local\Temp\ccVMeVAo.s:12535  .debug_loc:0000000000001146 .LLST106
C:\Users\stapi\AppData\Local\Temp\ccVMeVAo.s:2626   .text.cmd_ble_peer_feat:0000000000000012 .LDL18
C:\Users\stapi\AppData\Local\Temp\ccVMeVAo.s:2632   .text.cmd_ble_peer_feat:0000000000000022 .LVL344
C:\Users\stapi\AppData\Local\Temp\ccVMeVAo.s:2637   .text.cmd_ble_peer_feat:0000000000000032 .LVL345
C:\Users\stapi\AppData\Local\Temp\ccVMeVAo.s:2660   .text.cmd_ble_peer_feat:000000000000004c .LVL349
C:\Users\stapi\AppData\Local\Temp\ccVMeVAo.s:2665   .text.cmd_ble_peer_feat:0000000000000058 .LVL350
C:\Users\stapi\AppData\Local\Temp\ccVMeVAo.s:2676   .text.cmd_ble_peer_feat:000000000000006c .LVL353
C:\Users\stapi\AppData\Local\Temp\ccVMeVAo.s:2696   .text.cmd_compare:0000000000000000 .LFB37
C:\Users\stapi\AppData\Local\Temp\ccVMeVAo.s:2782   .text.cmd_compare:000000000000007e .LFE37
C:\Users\stapi\AppData\Local\Temp\ccVMeVAo.s:12549  .debug_loc:0000000000001167 .LLST107
C:\Users\stapi\AppData\Local\Temp\ccVMeVAo.s:12574  .debug_loc:00000000000011a1 .LLST108
C:\Users\stapi\AppData\Local\Temp\ccVMeVAo.s:12596  .debug_loc:00000000000011d8 .LLST109
C:\Users\stapi\AppData\Local\Temp\ccVMeVAo.s:12607  .debug_loc:00000000000011ef .LLST110
C:\Users\stapi\AppData\Local\Temp\ccVMeVAo.s:2719   .text.cmd_compare:0000000000000012 .LBB24
C:\Users\stapi\AppData\Local\Temp\ccVMeVAo.s:2741   .text.cmd_compare:0000000000000042 .LBE24
C:\Users\stapi\AppData\Local\Temp\ccVMeVAo.s:12624  .debug_loc:000000000000121a .LLST111
C:\Users\stapi\AppData\Local\Temp\ccVMeVAo.s:12638  .debug_loc:000000000000123b .LLST112
C:\Users\stapi\AppData\Local\Temp\ccVMeVAo.s:2722   .text.cmd_compare:0000000000000012 .LDL19
C:\Users\stapi\AppData\Local\Temp\ccVMeVAo.s:2728   .text.cmd_compare:0000000000000022 .LVL358
C:\Users\stapi\AppData\Local\Temp\ccVMeVAo.s:2733   .text.cmd_compare:0000000000000032 .LVL359
C:\Users\stapi\AppData\Local\Temp\ccVMeVAo.s:2738   .text.cmd_compare:0000000000000042 .LVL360
C:\Users\stapi\AppData\Local\Temp\ccVMeVAo.s:2763   .text.cmd_compare:000000000000005c .LVL364
C:\Users\stapi\AppData\Local\Temp\ccVMeVAo.s:2772   .text.cmd_compare:000000000000006c .LVL366
C:\Users\stapi\AppData\Local\Temp\ccVMeVAo.s:2778   .text.cmd_compare:000000000000007c .LVL368
C:\Users\stapi\AppData\Local\Temp\ccVMeVAo.s:2795   .text.cmd_encrypt:0000000000000000 .LFB35
C:\Users\stapi\AppData\Local\Temp\ccVMeVAo.s:2860   .text.cmd_encrypt:000000000000005a .LFE35
C:\Users\stapi\AppData\Local\Temp\ccVMeVAo.s:12652  .debug_loc:000000000000125c .LLST113
C:\Users\stapi\AppData\Local\Temp\ccVMeVAo.s:12677  .debug_loc:0000000000001296 .LLST114
C:\Users\stapi\AppData\Local\Temp\ccVMeVAo.s:12706  .debug_loc:00000000000012db .LLST115
C:\Users\stapi\AppData\Local\Temp\ccVMeVAo.s:2815   .text.cmd_encrypt:0000000000000012 .LBB28
C:\Users\stapi\AppData\Local\Temp\ccVMeVAo.s:2832   .text.cmd_encrypt:0000000000000032 .LBE28
C:\Users\stapi\AppData\Local\Temp\ccVMeVAo.s:12723  .debug_loc:0000000000001306 .LLST116
C:\Users\stapi\AppData\Local\Temp\ccVMeVAo.s:12737  .debug_loc:0000000000001327 .LLST117
C:\Users\stapi\AppData\Local\Temp\ccVMeVAo.s:2818   .text.cmd_encrypt:0000000000000012 .LDL20
C:\Users\stapi\AppData\Local\Temp\ccVMeVAo.s:2824   .text.cmd_encrypt:0000000000000022 .LVL373
C:\Users\stapi\AppData\Local\Temp\ccVMeVAo.s:2829   .text.cmd_encrypt:0000000000000032 .LVL374
C:\Users\stapi\AppData\Local\Temp\ccVMeVAo.s:2852   .text.cmd_encrypt:000000000000004c .LVL378
C:\Users\stapi\AppData\Local\Temp\ccVMeVAo.s:2856   .text.cmd_encrypt:0000000000000058 .LVL379
C:\Users\stapi\AppData\Local\Temp\ccVMeVAo.s:2876   .text.cmd_disconnect:0000000000000000 .LFB30
C:\Users\stapi\AppData\Local\Temp\ccVMeVAo.s:2955   .text.cmd_disconnect:0000000000000070 .LFE30
C:\Users\stapi\AppData\Local\Temp\ccVMeVAo.s:12751  .debug_loc:0000000000001348 .LLST118
C:\Users\stapi\AppData\Local\Temp\ccVMeVAo.s:12776  .debug_loc:0000000000001382 .LLST119
C:\Users\stapi\AppData\Local\Temp\ccVMeVAo.s:12805  .debug_loc:00000000000013c7 .LLST120
C:\Users\stapi\AppData\Local\Temp\ccVMeVAo.s:12822  .debug_loc:00000000000013f2 .LLST121
C:\Users\stapi\AppData\Local\Temp\ccVMeVAo.s:2897   .text.cmd_disconnect:0000000000000012 .LBB32
C:\Users\stapi\AppData\Local\Temp\ccVMeVAo.s:2914   .text.cmd_disconnect:0000000000000032 .LBE32
C:\Users\stapi\AppData\Local\Temp\ccVMeVAo.s:12833  .debug_loc:0000000000001410 .LLST122
C:\Users\stapi\AppData\Local\Temp\ccVMeVAo.s:12847  .debug_loc:0000000000001431 .LLST123
C:\Users\stapi\AppData\Local\Temp\ccVMeVAo.s:2900   .text.cmd_disconnect:0000000000000012 .LDL21
C:\Users\stapi\AppData\Local\Temp\ccVMeVAo.s:2906   .text.cmd_disconnect:0000000000000022 .LVL384
C:\Users\stapi\AppData\Local\Temp\ccVMeVAo.s:2911   .text.cmd_disconnect:0000000000000032 .LVL385
C:\Users\stapi\AppData\Local\Temp\ccVMeVAo.s:2934   .text.cmd_disconnect:000000000000004c .LVL389
C:\Users\stapi\AppData\Local\Temp\ccVMeVAo.s:2940   .text.cmd_disconnect:000000000000005a .LVL390
C:\Users\stapi\AppData\Local\Temp\ccVMeVAo.s:2951   .text.cmd_disconnect:000000000000006e .LVL393
C:\Users\stapi\AppData\Local\Temp\ccVMeVAo.s:2965   .text.cmd_sync_terminate:0000000000000000 .LFB26
C:\Users\stapi\AppData\Local\Temp\ccVMeVAo.s:3029   .text.cmd_sync_terminate:000000000000005a .LFE26
C:\Users\stapi\AppData\Local\Temp\ccVMeVAo.s:12861  .debug_loc:0000000000001452 .LLST124
C:\Users\stapi\AppData\Local\Temp\ccVMeVAo.s:12886  .debug_loc:000000000000148c .LLST125
C:\Users\stapi\AppData\Local\Temp\ccVMeVAo.s:12915  .debug_loc:00000000000014d1 .LLST126
C:\Users\stapi\AppData\Local\Temp\ccVMeVAo.s:2984   .text.cmd_sync_terminate:0000000000000012 .LBB36
C:\Users\stapi\AppData\Local\Temp\ccVMeVAo.s:3001   .text.cmd_sync_terminate:0000000000000032 .LBE36
C:\Users\stapi\AppData\Local\Temp\ccVMeVAo.s:12922  .debug_loc:00000000000014e4 .LLST127
C:\Users\stapi\AppData\Local\Temp\ccVMeVAo.s:12936  .debug_loc:0000000000001505 .LLST128
C:\Users\stapi\AppData\Local\Temp\ccVMeVAo.s:2987   .text.cmd_sync_terminate:0000000000000012 .LDL22
C:\Users\stapi\AppData\Local\Temp\ccVMeVAo.s:2993   .text.cmd_sync_terminate:0000000000000022 .LVL397
C:\Users\stapi\AppData\Local\Temp\ccVMeVAo.s:2998   .text.cmd_sync_terminate:0000000000000032 .LVL398
C:\Users\stapi\AppData\Local\Temp\ccVMeVAo.s:3021   .text.cmd_sync_terminate:000000000000004c .LVL402
C:\Users\stapi\AppData\Local\Temp\ccVMeVAo.s:3025   .text.cmd_sync_terminate:0000000000000058 .LVL403
C:\Users\stapi\AppData\Local\Temp\ccVMeVAo.s:3045   .text.cmd_advertise_restart:0000000000000000 .LFB20
C:\Users\stapi\AppData\Local\Temp\ccVMeVAo.s:3123   .text.cmd_advertise_restart:000000000000006e .LFE20
C:\Users\stapi\AppData\Local\Temp\ccVMeVAo.s:12950  .debug_loc:0000000000001526 .LLST129
C:\Users\stapi\AppData\Local\Temp\ccVMeVAo.s:12975  .debug_loc:0000000000001560 .LLST130
C:\Users\stapi\AppData\Local\Temp\ccVMeVAo.s:13004  .debug_loc:00000000000015a5 .LLST131
C:\Users\stapi\AppData\Local\Temp\ccVMeVAo.s:13021  .debug_loc:00000000000015d0 .LLST132
C:\Users\stapi\AppData\Local\Temp\ccVMeVAo.s:3066   .text.cmd_advertise_restart:0000000000000012 .LBB40
C:\Users\stapi\AppData\Local\Temp\ccVMeVAo.s:3083   .text.cmd_advertise_restart:0000000000000032 .LBE40
C:\Users\stapi\AppData\Local\Temp\ccVMeVAo.s:13032  .debug_loc:00000000000015ee .LLST133
C:\Users\stapi\AppData\Local\Temp\ccVMeVAo.s:13040  .debug_loc:0000000000001602 .LLST134
C:\Users\stapi\AppData\Local\Temp\ccVMeVAo.s:3069   .text.cmd_advertise_restart:0000000000000012 .LDL23
C:\Users\stapi\AppData\Local\Temp\ccVMeVAo.s:3075   .text.cmd_advertise_restart:0000000000000022 .LVL408
C:\Users\stapi\AppData\Local\Temp\ccVMeVAo.s:3080   .text.cmd_advertise_restart:0000000000000032 .LVL409
C:\Users\stapi\AppData\Local\Temp\ccVMeVAo.s:3103   .text.cmd_advertise_restart:000000000000004c .LVL413
C:\Users\stapi\AppData\Local\Temp\ccVMeVAo.s:3108   .text.cmd_advertise_restart:0000000000000058 .LVL414
C:\Users\stapi\AppData\Local\Temp\ccVMeVAo.s:3119   .text.cmd_advertise_restart:000000000000006c .LVL417
C:\Users\stapi\AppData\Local\Temp\ccVMeVAo.s:13479  .debug_str:0000000000000a14 .LASF421
C:\Users\stapi\AppData\Local\Temp\ccVMeVAo.s:13625  .debug_str:0000000000001089 .LASF422
C:\Users\stapi\AppData\Local\Temp\ccVMeVAo.s:13535  .debug_str:0000000000000cb5 .LASF423
C:\Users\stapi\AppData\Local\Temp\ccVMeVAo.s:13935  .debug_str:0000000000001f0d .LASF424
C:\Users\stapi\AppData\Local\Temp\ccVMeVAo.s:13581  .debug_str:0000000000000eae .LASF425
C:\Users\stapi\AppData\Local\Temp\ccVMeVAo.s:13563  .debug_str:0000000000000deb .LASF426
C:\Users\stapi\AppData\Local\Temp\ccVMeVAo.s:13715  .debug_str:000000000000152b .LASF427
C:\Users\stapi\AppData\Local\Temp\ccVMeVAo.s:13819  .debug_str:000000000000198c .LASF428
C:\Users\stapi\AppData\Local\Temp\ccVMeVAo.s:13687  .debug_str:0000000000001429 .LASF429
C:\Users\stapi\AppData\Local\Temp\ccVMeVAo.s:13373  .debug_str:00000000000005dc .LASF430
C:\Users\stapi\AppData\Local\Temp\ccVMeVAo.s:13253  .debug_str:000000000000013d .LASF431
C:\Users\stapi\AppData\Local\Temp\ccVMeVAo.s:13643  .debug_str:0000000000001252 .LASF432
C:\Users\stapi\AppData\Local\Temp\ccVMeVAo.s:14019  .debug_str:0000000000002264 .LASF433
C:\Users\stapi\AppData\Local\Temp\ccVMeVAo.s:13361  .debug_str:0000000000000546 .LASF434
C:\Users\stapi\AppData\Local\Temp\ccVMeVAo.s:13783  .debug_str:00000000000017f4 .LASF435
C:\Users\stapi\AppData\Local\Temp\ccVMeVAo.s:14077  .debug_str:0000000000002500 .LASF436
C:\Users\stapi\AppData\Local\Temp\ccVMeVAo.s:13839  .debug_str:0000000000001a37 .LASF437
C:\Users\stapi\AppData\Local\Temp\ccVMeVAo.s:13809  .debug_str:0000000000001920 .LASF438
C:\Users\stapi\AppData\Local\Temp\ccVMeVAo.s:14151  .debug_str:0000000000002818 .LASF439
C:\Users\stapi\AppData\Local\Temp\ccVMeVAo.s:13813  .debug_str:0000000000001942 .LASF440
C:\Users\stapi\AppData\Local\Temp\ccVMeVAo.s:14031  .debug_str:00000000000022e5 .LASF441
C:\Users\stapi\AppData\Local\Temp\ccVMeVAo.s:13841  .debug_str:0000000000001a4b .LASF442
C:\Users\stapi\AppData\Local\Temp\ccVMeVAo.s:14051  .debug_str:0000000000002409 .LASF471
C:\Users\stapi\AppData\Local\Temp\ccVMeVAo.s:13501  .debug_str:0000000000000b2b .LASF472
C:\Users\stapi\AppData\Local\Temp\ccVMeVAo.s:13313  .debug_str:00000000000003aa .LASF443
C:\Users\stapi\AppData\Local\Temp\ccVMeVAo.s:13533  .debug_str:0000000000000c97 .LASF444
C:\Users\stapi\AppData\Local\Temp\ccVMeVAo.s:13287  .debug_str:00000000000002a2 .LASF445
C:\Users\stapi\AppData\Local\Temp\ccVMeVAo.s:13369  .debug_str:00000000000005ac .LASF446
C:\Users\stapi\AppData\Local\Temp\ccVMeVAo.s:14067  .debug_str:00000000000024a1 .LASF447
C:\Users\stapi\AppData\Local\Temp\ccVMeVAo.s:13729  .debug_str:000000000000159e .LASF448
C:\Users\stapi\AppData\Local\Temp\ccVMeVAo.s:13403  .debug_str:0000000000000737 .LASF449
C:\Users\stapi\AppData\Local\Temp\ccVMeVAo.s:13635  .debug_str:00000000000011dd .LASF450
C:\Users\stapi\AppData\Local\Temp\ccVMeVAo.s:14135  .debug_str:0000000000002782 .LASF451
C:\Users\stapi\AppData\Local\Temp\ccVMeVAo.s:13323  .debug_str:0000000000000415 .LASF452
C:\Users\stapi\AppData\Local\Temp\ccVMeVAo.s:13883  .debug_str:0000000000001c30 .LASF453
C:\Users\stapi\AppData\Local\Temp\ccVMeVAo.s:13525  .debug_str:0000000000000c48 .LASF454
C:\Users\stapi\AppData\Local\Temp\ccVMeVAo.s:14011  .debug_str:0000000000002216 .LASF455
C:\Users\stapi\AppData\Local\Temp\ccVMeVAo.s:13701  .debug_str:00000000000014b0 .LASF456
C:\Users\stapi\AppData\Local\Temp\ccVMeVAo.s:13431  .debug_str:000000000000084e .LASF457
C:\Users\stapi\AppData\Local\Temp\ccVMeVAo.s:14065  .debug_str:0000000000002490 .LASF458
C:\Users\stapi\AppData\Local\Temp\ccVMeVAo.s:13311  .debug_str:0000000000000398 .LASF459
C:\Users\stapi\AppData\Local\Temp\ccVMeVAo.s:13285  .debug_str:0000000000000288 .LASF460
C:\Users\stapi\AppData\Local\Temp\ccVMeVAo.s:13269  .debug_str:00000000000001eb .LASF461
C:\Users\stapi\AppData\Local\Temp\ccVMeVAo.s:13753  .debug_str:00000000000016c3 .LASF462
C:\Users\stapi\AppData\Local\Temp\ccVMeVAo.s:13507  .debug_str:0000000000000b75 .LASF463
C:\Users\stapi\AppData\Local\Temp\ccVMeVAo.s:13911  .debug_str:0000000000001dbd .LASF464
C:\Users\stapi\AppData\Local\Temp\ccVMeVAo.s:13807  .debug_str:0000000000001909 .LASF465
C:\Users\stapi\AppData\Local\Temp\ccVMeVAo.s:13957  .debug_str:0000000000002010 .LASF466
C:\Users\stapi\AppData\Local\Temp\ccVMeVAo.s:2122   .text.cmd_ble_get_handle_cb:0000000000000000 .LVL275
C:\Users\stapi\AppData\Local\Temp\ccVMeVAo.s:2177   .text.cmd_ble_get_handle_cb:0000000000000058 .LVL282
C:\Users\stapi\AppData\Local\Temp\ccVMeVAo.s:2215   .text.cmd_ble_get_handle_cb:0000000000000084 .LVL288
C:\Users\stapi\AppData\Local\Temp\ccVMeVAo.s:2132   .text.cmd_ble_get_handle_cb:0000000000000008 .LVL276
C:\Users\stapi\AppData\Local\Temp\ccVMeVAo.s:2166   .text.cmd_ble_get_handle_cb:0000000000000050 .LVL281
C:\Users\stapi\AppData\Local\Temp\ccVMeVAo.s:2192   .text.cmd_ble_get_handle_cb:000000000000006a .LVL284
C:\Users\stapi\AppData\Local\Temp\ccVMeVAo.s:2200   .text.cmd_ble_get_handle_cb:0000000000000076 .LVL286
C:\Users\stapi\AppData\Local\Temp\ccVMeVAo.s:3196   .text.cmd_ble_help:0000000000000000 .LVL421
C:\Users\stapi\AppData\Local\Temp\ccVMeVAo.s:3202   .text.cmd_ble_help:000000000000000c .LVL422
C:\Users\stapi\AppData\Local\Temp\ccVMeVAo.s:3145   .text.ble_base_cmd_help:0000000000000008 .LVL418
C:\Users\stapi\AppData\Local\Temp\ccVMeVAo.s:3152   .text.ble_base_cmd_help:0000000000000018 .LVL419
C:\Users\stapi\AppData\Local\Temp\ccVMeVAo.s:53     .text.cmd_set_pkt_size:0000000000000000 .LVL1
C:\Users\stapi\AppData\Local\Temp\ccVMeVAo.s:78     .text.cmd_set_pkt_size:0000000000000016 .LVL2
C:\Users\stapi\AppData\Local\Temp\ccVMeVAo.s:108    .text.cmd_set_pkt_size:000000000000005c .LVL7
C:\Users\stapi\AppData\Local\Temp\ccVMeVAo.s:115    .text.cmd_set_pkt_size:0000000000000060 .LVL8
C:\Users\stapi\AppData\Local\Temp\ccVMeVAo.s:118    .text.cmd_set_pkt_size:0000000000000064 .LVL9
C:\Users\stapi\AppData\Local\Temp\ccVMeVAo.s:143    .text.cmd_set_pkt_size:0000000000000094 .LVL15
C:\Users\stapi\AppData\Local\Temp\ccVMeVAo.s:148    .text.cmd_set_pkt_size:00000000000000a2 .LVL17
C:\Users\stapi\AppData\Local\Temp\ccVMeVAo.s:154    .text.cmd_set_pkt_size:00000000000000a8 .LVL18
C:\Users\stapi\AppData\Local\Temp\ccVMeVAo.s:198    .text.cmd_set_phy:0000000000000000 .LVL20
C:\Users\stapi\AppData\Local\Temp\ccVMeVAo.s:225    .text.cmd_set_phy:0000000000000016 .LVL21
C:\Users\stapi\AppData\Local\Temp\ccVMeVAo.s:285    .text.cmd_set_phy:00000000000000b8 .LVL32
C:\Users\stapi\AppData\Local\Temp\ccVMeVAo.s:292    .text.cmd_set_phy:00000000000000bc .LVL33
C:\Users\stapi\AppData\Local\Temp\ccVMeVAo.s:295    .text.cmd_set_phy:00000000000000c0 .LVL34
C:\Users\stapi\AppData\Local\Temp\ccVMeVAo.s:331    .text.cmd_set_phy:0000000000000108 .LVL42
C:\Users\stapi\AppData\Local\Temp\ccVMeVAo.s:335    .text.cmd_set_phy:0000000000000112 .LVL44
C:\Users\stapi\AppData\Local\Temp\ccVMeVAo.s:341    .text.cmd_set_phy:0000000000000118 .LVL45
C:\Users\stapi\AppData\Local\Temp\ccVMeVAo.s:376    .text.cmd_ble_param_update:0000000000000000 .LVL47
C:\Users\stapi\AppData\Local\Temp\ccVMeVAo.s:405    .text.cmd_ble_param_update:0000000000000016 .LVL48
C:\Users\stapi\AppData\Local\Temp\ccVMeVAo.s:447    .text.cmd_ble_param_update:000000000000007c .LVL55
C:\Users\stapi\AppData\Local\Temp\ccVMeVAo.s:454    .text.cmd_ble_param_update:0000000000000080 .LVL56
C:\Users\stapi\AppData\Local\Temp\ccVMeVAo.s:457    .text.cmd_ble_param_update:0000000000000084 .LVL57
C:\Users\stapi\AppData\Local\Temp\ccVMeVAo.s:499    .text.cmd_ble_param_update:00000000000000d2 .LVL67
C:\Users\stapi\AppData\Local\Temp\ccVMeVAo.s:511    .text.cmd_ble_param_update:00000000000000ee .LVL69
C:\Users\stapi\AppData\Local\Temp\ccVMeVAo.s:517    .text.cmd_ble_param_update:00000000000000f4 .LVL70
C:\Users\stapi\AppData\Local\Temp\ccVMeVAo.s:543    .text.cmd_passkey:0000000000000000 .LVL72
C:\Users\stapi\AppData\Local\Temp\ccVMeVAo.s:566    .text.cmd_passkey:0000000000000016 .LVL74
C:\Users\stapi\AppData\Local\Temp\ccVMeVAo.s:569    .text.cmd_passkey:000000000000001a .LVL75
C:\Users\stapi\AppData\Local\Temp\ccVMeVAo.s:556    .text.cmd_passkey:000000000000000c .LVL73
C:\Users\stapi\AppData\Local\Temp\ccVMeVAo.s:573    .text.cmd_passkey:0000000000000024 .LVL77
C:\Users\stapi\AppData\Local\Temp\ccVMeVAo.s:586    .text.cmd_passkey:000000000000003c .LVL79
C:\Users\stapi\AppData\Local\Temp\ccVMeVAo.s:592    .text.cmd_passkey:0000000000000044 .LVL80
C:\Users\stapi\AppData\Local\Temp\ccVMeVAo.s:645    .text.cmd_pair:0000000000000000 .LVL85
C:\Users\stapi\AppData\Local\Temp\ccVMeVAo.s:667    .text.cmd_pair:0000000000000016 .LVL87
C:\Users\stapi\AppData\Local\Temp\ccVMeVAo.s:689    .text.cmd_pair:000000000000003c .LVL91
C:\Users\stapi\AppData\Local\Temp\ccVMeVAo.s:696    .text.cmd_pair:0000000000000040 .LVL92
C:\Users\stapi\AppData\Local\Temp\ccVMeVAo.s:699    .text.cmd_pair:0000000000000044 .LVL93
C:\Users\stapi\AppData\Local\Temp\ccVMeVAo.s:657    .text.cmd_pair:000000000000000c .LVL86
C:\Users\stapi\AppData\Local\Temp\ccVMeVAo.s:674    .text.cmd_pair:000000000000002a .LVL89
C:\Users\stapi\AppData\Local\Temp\ccVMeVAo.s:704    .text.cmd_pair:0000000000000050 .LVL95
C:\Users\stapi\AppData\Local\Temp\ccVMeVAo.s:715    .text.cmd_pair:0000000000000060 .LVL97
C:\Users\stapi\AppData\Local\Temp\ccVMeVAo.s:718    .text.cmd_pair:0000000000000066 .LVL98
C:\Users\stapi\AppData\Local\Temp\ccVMeVAo.s:725    .text.cmd_pair:000000000000006a .LVL99
C:\Users\stapi\AppData\Local\Temp\ccVMeVAo.s:799    .text.cmd_set_auth:0000000000000000 .LVL102
C:\Users\stapi\AppData\Local\Temp\ccVMeVAo.s:825    .text.cmd_set_auth:0000000000000016 .LVL103
C:\Users\stapi\AppData\Local\Temp\ccVMeVAo.s:828    .text.cmd_set_auth:000000000000001a .LVL104
C:\Users\stapi\AppData\Local\Temp\ccVMeVAo.s:879    .text.cmd_set_auth:000000000000007e .LVL116
C:\Users\stapi\AppData\Local\Temp\ccVMeVAo.s:832    .text.cmd_set_auth:0000000000000024 .LVL106
C:\Users\stapi\AppData\Local\Temp\ccVMeVAo.s:841    .text.cmd_set_auth:0000000000000034 .LVL108
C:\Users\stapi\AppData\Local\Temp\ccVMeVAo.s:845    .text.cmd_set_auth:0000000000000036 .LVL109
C:\Users\stapi\AppData\Local\Temp\ccVMeVAo.s:851    .text.cmd_set_auth:0000000000000044 .LVL111
C:\Users\stapi\AppData\Local\Temp\ccVMeVAo.s:855    .text.cmd_set_auth:0000000000000046 .LVL112
C:\Users\stapi\AppData\Local\Temp\ccVMeVAo.s:862    .text.cmd_set_auth:0000000000000056 .LVL114
C:\Users\stapi\AppData\Local\Temp\ccVMeVAo.s:987    .text.cmd_list_sec_devs:0000000000000000 .LVL133
C:\Users\stapi\AppData\Local\Temp\ccVMeVAo.s:1014   .text.cmd_remove_bond:0000000000000000 .LVL135
C:\Users\stapi\AppData\Local\Temp\ccVMeVAo.s:1035   .text.cmd_remove_bond:0000000000000016 .LVL137
C:\Users\stapi\AppData\Local\Temp\ccVMeVAo.s:1055   .text.cmd_remove_bond:000000000000003c .LVL141
C:\Users\stapi\AppData\Local\Temp\ccVMeVAo.s:1062   .text.cmd_remove_bond:0000000000000040 .LVL142
C:\Users\stapi\AppData\Local\Temp\ccVMeVAo.s:1065   .text.cmd_remove_bond:0000000000000044 .LVL143
C:\Users\stapi\AppData\Local\Temp\ccVMeVAo.s:1025   .text.cmd_remove_bond:000000000000000c .LVL136
C:\Users\stapi\AppData\Local\Temp\ccVMeVAo.s:1042   .text.cmd_remove_bond:000000000000002a .LVL139
C:\Users\stapi\AppData\Local\Temp\ccVMeVAo.s:1074   .text.cmd_remove_bond:000000000000005a .LVL146
C:\Users\stapi\AppData\Local\Temp\ccVMeVAo.s:1080   .text.cmd_remove_bond:0000000000000060 .LVL147
C:\Users\stapi\AppData\Local\Temp\ccVMeVAo.s:1083   .text.cmd_remove_bond:0000000000000066 .LVL148
C:\Users\stapi\AppData\Local\Temp\ccVMeVAo.s:1088   .text.cmd_remove_bond:0000000000000068 .LVL149
C:\Users\stapi\AppData\Local\Temp\ccVMeVAo.s:1117   .text.cmd_cancel_connect:0000000000000000 .LVL151
C:\Users\stapi\AppData\Local\Temp\ccVMeVAo.s:1132   .text.cmd_cancel_connect:0000000000000018 .LVL153
C:\Users\stapi\AppData\Local\Temp\ccVMeVAo.s:1161   .text.cmd_connect:0000000000000000 .LVL155
C:\Users\stapi\AppData\Local\Temp\ccVMeVAo.s:1183   .text.cmd_connect:0000000000000016 .LVL157
C:\Users\stapi\AppData\Local\Temp\ccVMeVAo.s:1204   .text.cmd_connect:000000000000003c .LVL161
C:\Users\stapi\AppData\Local\Temp\ccVMeVAo.s:1211   .text.cmd_connect:0000000000000040 .LVL162
C:\Users\stapi\AppData\Local\Temp\ccVMeVAo.s:1214   .text.cmd_connect:0000000000000044 .LVL163
C:\Users\stapi\AppData\Local\Temp\ccVMeVAo.s:1172   .text.cmd_connect:000000000000000c .LVL156
C:\Users\stapi\AppData\Local\Temp\ccVMeVAo.s:1190   .text.cmd_connect:000000000000002a .LVL159
C:\Users\stapi\AppData\Local\Temp\ccVMeVAo.s:1227   .text.cmd_connect:000000000000005e .LVL166
C:\Users\stapi\AppData\Local\Temp\ccVMeVAo.s:1230   .text.cmd_connect:0000000000000064 .LVL167
C:\Users\stapi\AppData\Local\Temp\ccVMeVAo.s:1238   .text.cmd_connect:000000000000006e .LVL168
C:\Users\stapi\AppData\Local\Temp\ccVMeVAo.s:1242   .text.cmd_connect:0000000000000078 .LVL170
C:\Users\stapi\AppData\Local\Temp\ccVMeVAo.s:1248   .text.cmd_connect:000000000000007e .LVL171
C:\Users\stapi\AppData\Local\Temp\ccVMeVAo.s:1279   .text.cmd_sync_ctrl:0000000000000000 .LVL173
C:\Users\stapi\AppData\Local\Temp\ccVMeVAo.s:1302   .text.cmd_sync_ctrl:0000000000000016 .LVL174
C:\Users\stapi\AppData\Local\Temp\ccVMeVAo.s:1331   .text.cmd_sync_ctrl:000000000000005c .LVL179
C:\Users\stapi\AppData\Local\Temp\ccVMeVAo.s:1338   .text.cmd_sync_ctrl:0000000000000060 .LVL180
C:\Users\stapi\AppData\Local\Temp\ccVMeVAo.s:1341   .text.cmd_sync_ctrl:0000000000000064 .LVL181
C:\Users\stapi\AppData\Local\Temp\ccVMeVAo.s:1357   .text.cmd_sync_ctrl:0000000000000084 .LVL185
C:\Users\stapi\AppData\Local\Temp\ccVMeVAo.s:1361   .text.cmd_sync_ctrl:000000000000008e .LVL187
C:\Users\stapi\AppData\Local\Temp\ccVMeVAo.s:1367   .text.cmd_sync_ctrl:0000000000000094 .LVL188
C:\Users\stapi\AppData\Local\Temp\ccVMeVAo.s:1383   .text.cmd_sync_cancel:0000000000000000 .LVL190
C:\Users\stapi\AppData\Local\Temp\ccVMeVAo.s:1410   .text.cmd_sync:0000000000000000 .LVL192
C:\Users\stapi\AppData\Local\Temp\ccVMeVAo.s:1450   .text.cmd_sync:000000000000002a .LVL194
C:\Users\stapi\AppData\Local\Temp\ccVMeVAo.s:1472   .text.cmd_sync:0000000000000050 .LVL198
C:\Users\stapi\AppData\Local\Temp\ccVMeVAo.s:1479   .text.cmd_sync:0000000000000054 .LVL199
C:\Users\stapi\AppData\Local\Temp\ccVMeVAo.s:1482   .text.cmd_sync:0000000000000058 .LVL200
C:\Users\stapi\AppData\Local\Temp\ccVMeVAo.s:1428   .text.cmd_sync:0000000000000018 .LVL193
C:\Users\stapi\AppData\Local\Temp\ccVMeVAo.s:1457   .text.cmd_sync:000000000000003e .LVL196
C:\Users\stapi\AppData\Local\Temp\ccVMeVAo.s:1491   .text.cmd_sync:000000000000006e .LVL203
C:\Users\stapi\AppData\Local\Temp\ccVMeVAo.s:1525   .text.cmd_sync:00000000000000aa .LVL206
C:\Users\stapi\AppData\Local\Temp\ccVMeVAo.s:1531   .text.cmd_sync:00000000000000b0 .LVL207
C:\Users\stapi\AppData\Local\Temp\ccVMeVAo.s:1546   .text.cmd_list_scan_devs:0000000000000000 .LVL209
C:\Users\stapi\AppData\Local\Temp\ccVMeVAo.s:1560   .text.cmd_scan_stop:0000000000000000 .LVL211
C:\Users\stapi\AppData\Local\Temp\ccVMeVAo.s:1574   .text.cmd_scan:0000000000000000 .LVL213
C:\Users\stapi\AppData\Local\Temp\ccVMeVAo.s:1577   .text.cmd_scan:0000000000000002 .LVL214
C:\Users\stapi\AppData\Local\Temp\ccVMeVAo.s:1603   .text.cmd_advertise_stop:0000000000000000 .LVL216
C:\Users\stapi\AppData\Local\Temp\ccVMeVAo.s:1634   .text.cmd_advertise_stop:000000000000001e .LVL218
C:\Users\stapi\AppData\Local\Temp\ccVMeVAo.s:1660   .text.cmd_advertise_stop:0000000000000054 .LVL222
C:\Users\stapi\AppData\Local\Temp\ccVMeVAo.s:1668   .text.cmd_advertise_stop:000000000000005a .LVL223
C:\Users\stapi\AppData\Local\Temp\ccVMeVAo.s:1618   .text.cmd_advertise_stop:000000000000000c .LVL217
C:\Users\stapi\AppData\Local\Temp\ccVMeVAo.s:1674   .text.cmd_advertise_stop:0000000000000068 .LVL225
C:\Users\stapi\AppData\Local\Temp\ccVMeVAo.s:1689   .text.cmd_advertise_stop:0000000000000080 .LVL227
C:\Users\stapi\AppData\Local\Temp\ccVMeVAo.s:1697   .text.cmd_advertise_stop:000000000000008c .LVL229
C:\Users\stapi\AppData\Local\Temp\ccVMeVAo.s:1703   .text.cmd_advertise_stop:0000000000000092 .LVL230
C:\Users\stapi\AppData\Local\Temp\ccVMeVAo.s:1735   .text.cmd_advertise:0000000000000000 .LVL232
C:\Users\stapi\AppData\Local\Temp\ccVMeVAo.s:1752   .text.cmd_advertise:0000000000000012 .LVL233
C:\Users\stapi\AppData\Local\Temp\ccVMeVAo.s:1815   .text.cmd_advertise:0000000000000066 .LVL237
C:\Users\stapi\AppData\Local\Temp\ccVMeVAo.s:1821   .text.cmd_advertise:000000000000006c .LVL238
C:\Users\stapi\AppData\Local\Temp\ccVMeVAo.s:1823   .text.cmd_advertise:0000000000000070 .LVL239
C:\Users\stapi\AppData\Local\Temp\ccVMeVAo.s:1902   .text.cmd_ble_courier_wifi:0000000000000000 .LVL246
C:\Users\stapi\AppData\Local\Temp\ccVMeVAo.s:1921   .text.cmd_ble_courier_wifi:0000000000000016 .LVL247
C:\Users\stapi\AppData\Local\Temp\ccVMeVAo.s:1935   .text.cmd_ble_courier_wifi:000000000000002c .LVL249
C:\Users\stapi\AppData\Local\Temp\ccVMeVAo.s:1942   .text.cmd_ble_courier_wifi:0000000000000030 .LVL250
C:\Users\stapi\AppData\Local\Temp\ccVMeVAo.s:1945   .text.cmd_ble_courier_wifi:0000000000000034 .LVL251
C:\Users\stapi\AppData\Local\Temp\ccVMeVAo.s:1974   .text.cmd_ble_courier_wifi:0000000000000062 .LVL257
C:\Users\stapi\AppData\Local\Temp\ccVMeVAo.s:1977   .text.cmd_ble_courier_wifi:0000000000000066 .LVL258
C:\Users\stapi\AppData\Local\Temp\ccVMeVAo.s:2008   .text.cmd_ble_ps:0000000000000000 .LVL260
C:\Users\stapi\AppData\Local\Temp\ccVMeVAo.s:2027   .text.cmd_ble_ps:0000000000000016 .LVL261
C:\Users\stapi\AppData\Local\Temp\ccVMeVAo.s:2030   .text.cmd_ble_ps:000000000000001a .LVL262
C:\Users\stapi\AppData\Local\Temp\ccVMeVAo.s:2035   .text.cmd_ble_ps:0000000000000026 .LVL264
C:\Users\stapi\AppData\Local\Temp\ccVMeVAo.s:2097   .text.cmd_ble_disable:0000000000000000 .LVL273
C:\Users\stapi\AppData\Local\Temp\ccVMeVAo.s:1881   .text.cmd_ble_enable:0000000000000000 .LVL244
C:\Users\stapi\AppData\Local\Temp\ccVMeVAo.s:2237   .text.cmd_get_phy:0000000000000000 .LVL289
C:\Users\stapi\AppData\Local\Temp\ccVMeVAo.s:2260   .text.cmd_get_phy:0000000000000016 .LVL291
C:\Users\stapi\AppData\Local\Temp\ccVMeVAo.s:2279   .text.cmd_get_phy:000000000000003c .LVL294
C:\Users\stapi\AppData\Local\Temp\ccVMeVAo.s:2286   .text.cmd_get_phy:0000000000000040 .LVL295
C:\Users\stapi\AppData\Local\Temp\ccVMeVAo.s:2288   .text.cmd_get_phy:0000000000000042 .LVL296
C:\Users\stapi\AppData\Local\Temp\ccVMeVAo.s:2298   .text.cmd_get_phy:000000000000005a .LVL299
C:\Users\stapi\AppData\Local\Temp\ccVMeVAo.s:2304   .text.cmd_get_phy:0000000000000060 .LVL300
C:\Users\stapi\AppData\Local\Temp\ccVMeVAo.s:2253   .text.cmd_get_phy:0000000000000012 .LVL290
C:\Users\stapi\AppData\Local\Temp\ccVMeVAo.s:2333   .text.cmd_set_dev_name:0000000000000000 .LVL302
C:\Users\stapi\AppData\Local\Temp\ccVMeVAo.s:2347   .text.cmd_set_dev_name:0000000000000012 .LVL303
C:\Users\stapi\AppData\Local\Temp\ccVMeVAo.s:2367   .text.cmd_set_dev_name:0000000000000036 .LVL306
C:\Users\stapi\AppData\Local\Temp\ccVMeVAo.s:2376   .text.cmd_set_dev_name:000000000000003c .LVL307
C:\Users\stapi\AppData\Local\Temp\ccVMeVAo.s:2391   .text.cmd_set_dev_name:000000000000005e .LVL310
C:\Users\stapi\AppData\Local\Temp\ccVMeVAo.s:2424   .text.cmd_get_rssi:0000000000000000 .LVL313
C:\Users\stapi\AppData\Local\Temp\ccVMeVAo.s:2447   .text.cmd_get_rssi:0000000000000016 .LVL315
C:\Users\stapi\AppData\Local\Temp\ccVMeVAo.s:2466   .text.cmd_get_rssi:000000000000003c .LVL318
C:\Users\stapi\AppData\Local\Temp\ccVMeVAo.s:2473   .text.cmd_get_rssi:0000000000000040 .LVL319
C:\Users\stapi\AppData\Local\Temp\ccVMeVAo.s:2475   .text.cmd_get_rssi:0000000000000042 .LVL320
C:\Users\stapi\AppData\Local\Temp\ccVMeVAo.s:2485   .text.cmd_get_rssi:000000000000005a .LVL323
C:\Users\stapi\AppData\Local\Temp\ccVMeVAo.s:2491   .text.cmd_get_rssi:0000000000000060 .LVL324
C:\Users\stapi\AppData\Local\Temp\ccVMeVAo.s:2440   .text.cmd_get_rssi:0000000000000012 .LVL314
C:\Users\stapi\AppData\Local\Temp\ccVMeVAo.s:2514   .text.cmd_ble_peer_ver:0000000000000000 .LVL326
C:\Users\stapi\AppData\Local\Temp\ccVMeVAo.s:2538   .text.cmd_ble_peer_ver:0000000000000016 .LVL329
C:\Users\stapi\AppData\Local\Temp\ccVMeVAo.s:2557   .text.cmd_ble_peer_ver:000000000000003c .LVL332
C:\Users\stapi\AppData\Local\Temp\ccVMeVAo.s:2564   .text.cmd_ble_peer_ver:0000000000000040 .LVL333
C:\Users\stapi\AppData\Local\Temp\ccVMeVAo.s:2566   .text.cmd_ble_peer_ver:0000000000000042 .LVL334
C:\Users\stapi\AppData\Local\Temp\ccVMeVAo.s:2519   .text.cmd_ble_peer_ver:0000000000000008 .LVL327
C:\Users\stapi\AppData\Local\Temp\ccVMeVAo.s:2576   .text.cmd_ble_peer_ver:000000000000005a .LVL337
C:\Users\stapi\AppData\Local\Temp\ccVMeVAo.s:2582   .text.cmd_ble_peer_ver:0000000000000060 .LVL338
C:\Users\stapi\AppData\Local\Temp\ccVMeVAo.s:2531   .text.cmd_ble_peer_ver:0000000000000012 .LVL328
C:\Users\stapi\AppData\Local\Temp\ccVMeVAo.s:2605   .text.cmd_ble_peer_feat:0000000000000000 .LVL340
C:\Users\stapi\AppData\Local\Temp\ccVMeVAo.s:2629   .text.cmd_ble_peer_feat:0000000000000016 .LVL343
C:\Users\stapi\AppData\Local\Temp\ccVMeVAo.s:2648   .text.cmd_ble_peer_feat:000000000000003c .LVL346
C:\Users\stapi\AppData\Local\Temp\ccVMeVAo.s:2655   .text.cmd_ble_peer_feat:0000000000000040 .LVL347
C:\Users\stapi\AppData\Local\Temp\ccVMeVAo.s:2657   .text.cmd_ble_peer_feat:0000000000000042 .LVL348
C:\Users\stapi\AppData\Local\Temp\ccVMeVAo.s:2610   .text.cmd_ble_peer_feat:0000000000000008 .LVL341
C:\Users\stapi\AppData\Local\Temp\ccVMeVAo.s:2667   .text.cmd_ble_peer_feat:000000000000005a .LVL351
C:\Users\stapi\AppData\Local\Temp\ccVMeVAo.s:2673   .text.cmd_ble_peer_feat:0000000000000060 .LVL352
C:\Users\stapi\AppData\Local\Temp\ccVMeVAo.s:2622   .text.cmd_ble_peer_feat:0000000000000012 .LVL342
C:\Users\stapi\AppData\Local\Temp\ccVMeVAo.s:2699   .text.cmd_compare:0000000000000000 .LVL354
C:\Users\stapi\AppData\Local\Temp\ccVMeVAo.s:2725   .text.cmd_compare:0000000000000016 .LVL357
C:\Users\stapi\AppData\Local\Temp\ccVMeVAo.s:2751   .text.cmd_compare:000000000000004c .LVL361
C:\Users\stapi\AppData\Local\Temp\ccVMeVAo.s:2758   .text.cmd_compare:0000000000000050 .LVL362
C:\Users\stapi\AppData\Local\Temp\ccVMeVAo.s:2760   .text.cmd_compare:0000000000000052 .LVL363
C:\Users\stapi\AppData\Local\Temp\ccVMeVAo.s:2776   .text.cmd_compare:0000000000000074 .LVL367
C:\Users\stapi\AppData\Local\Temp\ccVMeVAo.s:2713   .text.cmd_compare:000000000000000c .LVL355
C:\Users\stapi\AppData\Local\Temp\ccVMeVAo.s:2765   .text.cmd_compare:000000000000005e .LVL365
C:\Users\stapi\AppData\Local\Temp\ccVMeVAo.s:2718   .text.cmd_compare:0000000000000012 .LVL356
C:\Users\stapi\AppData\Local\Temp\ccVMeVAo.s:2798   .text.cmd_encrypt:0000000000000000 .LVL369
C:\Users\stapi\AppData\Local\Temp\ccVMeVAo.s:2821   .text.cmd_encrypt:0000000000000016 .LVL372
C:\Users\stapi\AppData\Local\Temp\ccVMeVAo.s:2840   .text.cmd_encrypt:000000000000003c .LVL375
C:\Users\stapi\AppData\Local\Temp\ccVMeVAo.s:2847   .text.cmd_encrypt:0000000000000040 .LVL376
C:\Users\stapi\AppData\Local\Temp\ccVMeVAo.s:2850   .text.cmd_encrypt:0000000000000044 .LVL377
C:\Users\stapi\AppData\Local\Temp\ccVMeVAo.s:2809   .text.cmd_encrypt:000000000000000c .LVL370
C:\Users\stapi\AppData\Local\Temp\ccVMeVAo.s:2814   .text.cmd_encrypt:0000000000000012 .LVL371
C:\Users\stapi\AppData\Local\Temp\ccVMeVAo.s:2879   .text.cmd_disconnect:0000000000000000 .LVL380
C:\Users\stapi\AppData\Local\Temp\ccVMeVAo.s:2903   .text.cmd_disconnect:0000000000000016 .LVL383
C:\Users\stapi\AppData\Local\Temp\ccVMeVAo.s:2922   .text.cmd_disconnect:000000000000003c .LVL386
C:\Users\stapi\AppData\Local\Temp\ccVMeVAo.s:2929   .text.cmd_disconnect:0000000000000040 .LVL387
C:\Users\stapi\AppData\Local\Temp\ccVMeVAo.s:2932   .text.cmd_disconnect:0000000000000044 .LVL388
C:\Users\stapi\AppData\Local\Temp\ccVMeVAo.s:2890   .text.cmd_disconnect:000000000000000c .LVL381
C:\Users\stapi\AppData\Local\Temp\ccVMeVAo.s:2942   .text.cmd_disconnect:000000000000005c .LVL391
C:\Users\stapi\AppData\Local\Temp\ccVMeVAo.s:2948   .text.cmd_disconnect:0000000000000062 .LVL392
C:\Users\stapi\AppData\Local\Temp\ccVMeVAo.s:2896   .text.cmd_disconnect:0000000000000012 .LVL382
C:\Users\stapi\AppData\Local\Temp\ccVMeVAo.s:2968   .text.cmd_sync_terminate:0000000000000000 .LVL394
C:\Users\stapi\AppData\Local\Temp\ccVMeVAo.s:2990   .text.cmd_sync_terminate:0000000000000016 .LVL396
C:\Users\stapi\AppData\Local\Temp\ccVMeVAo.s:3009   .text.cmd_sync_terminate:000000000000003c .LVL399
C:\Users\stapi\AppData\Local\Temp\ccVMeVAo.s:3016   .text.cmd_sync_terminate:0000000000000040 .LVL400
C:\Users\stapi\AppData\Local\Temp\ccVMeVAo.s:3019   .text.cmd_sync_terminate:0000000000000044 .LVL401
C:\Users\stapi\AppData\Local\Temp\ccVMeVAo.s:2983   .text.cmd_sync_terminate:0000000000000012 .LVL395
C:\Users\stapi\AppData\Local\Temp\ccVMeVAo.s:3048   .text.cmd_advertise_restart:0000000000000000 .LVL404
C:\Users\stapi\AppData\Local\Temp\ccVMeVAo.s:3072   .text.cmd_advertise_restart:0000000000000016 .LVL407
C:\Users\stapi\AppData\Local\Temp\ccVMeVAo.s:3091   .text.cmd_advertise_restart:000000000000003c .LVL410
C:\Users\stapi\AppData\Local\Temp\ccVMeVAo.s:3098   .text.cmd_advertise_restart:0000000000000040 .LVL411
C:\Users\stapi\AppData\Local\Temp\ccVMeVAo.s:3100   .text.cmd_advertise_restart:0000000000000042 .LVL412
C:\Users\stapi\AppData\Local\Temp\ccVMeVAo.s:3059   .text.cmd_advertise_restart:000000000000000c .LVL405
C:\Users\stapi\AppData\Local\Temp\ccVMeVAo.s:3110   .text.cmd_advertise_restart:000000000000005a .LVL415
C:\Users\stapi\AppData\Local\Temp\ccVMeVAo.s:3116   .text.cmd_advertise_restart:0000000000000060 .LVL416
C:\Users\stapi\AppData\Local\Temp\ccVMeVAo.s:3065   .text.cmd_advertise_restart:0000000000000012 .LVL406
C:\Users\stapi\AppData\Local\Temp\ccVMeVAo.s:3457   .debug_info:0000000000000000 .Ldebug_info0

UNDEFINED SYMBOLS
co_printf
__riscv_save_3
__riscv_restore_3
strtoul
ble_conn_pkt_size_set
__riscv_save_4
__riscv_restore_4
ble_conn_phy_set
__riscv_save_5
__riscv_restore_5
ble_conn_param_update_req
__riscv_save_2
app_sec_input_passkey
__riscv_restore_2
__riscv_save_1
__riscv_restore_1
dm_find_dev_by_conidx
app_sec_send_bond_req
app_sec_send_security_req
app_sec_set_authen
dm_list_sec_devices
__riscv_save_0
__riscv_restore_0
dm_find_dev_by_idx
app_sec_remove_bond
ble_conn_connect_cancel
scan_mgr_find_dev_by_idx
ble_conn_connect
ble_per_sync_report_ctrl
app_per_sync_cancel
memcpy
ble_per_sync_start
scan_mgr_list_scanned_devices
app_scan_disable
app_scan_enable
app_adv_stop
ble_adp_adv_sets_num_get
app_adv_create
app_ble_enable
ble_work_status_get
bcw_prf_enable
ble_sleep_mode_set
ble_sleep_mode_get
app_ble_disable
strcmp
ble_stack_task_resume
ble_conn_phy_get
strlen
app_adp_set_name
app_adv_data_update_all
ble_conn_rssi_get
ble_conn_peer_version_get
ble_conn_peer_feats_get
app_sec_num_compare
app_sec_send_encrypt_req
ble_conn_disconnect
app_per_sync_terminate
app_adv_restart
cmd_module_reg
