   1              		.file	"app_per_sync_mgr.c"
   2              		.option nopic
   3              		.attribute arch, "rv32i2p0_m2p0_a2p0_f2p0_c2p0_b_p0p94"
   4              		.attribute unaligned_access, 0
   5              		.attribute stack_align, 16
   6              		.text
   7              	.Ltext0:
   8              		.cfi_sections	.debug_frame
   9              		.section	.text.sync_mgr_find_device_by_idx,"ax",@progbits
  10              		.align	1
  12              	sync_mgr_find_device_by_idx:
  13              	.LFB1:
  14              		.file 1 "C:/Users/stapi/OneDrive/Desktop/GD32VW553/GD32VW55X_Wifi_BLE_SDK/GD32VW55x_RELEASE_V1.0.2
   1:C:/Users/stapi/OneDrive/Desktop/GD32VW553/GD32VW55X_Wifi_BLE_SDK/GD32VW55x_RELEASE_V1.0.2/MSDK/ble/app\app_per_sync_mgr.c **** /*!
   2:C:/Users/stapi/OneDrive/Desktop/GD32VW553/GD32VW55X_Wifi_BLE_SDK/GD32VW55x_RELEASE_V1.0.2/MSDK/ble/app\app_per_sync_mgr.c ****     \file    app_peri_sync_mgr.c
   3:C:/Users/stapi/OneDrive/Desktop/GD32VW553/GD32VW55X_Wifi_BLE_SDK/GD32VW55x_RELEASE_V1.0.2/MSDK/ble/app\app_per_sync_mgr.c ****     \brief   Implementation of BLE application periodic sync manager to record devices.
   4:C:/Users/stapi/OneDrive/Desktop/GD32VW553/GD32VW55X_Wifi_BLE_SDK/GD32VW55x_RELEASE_V1.0.2/MSDK/ble/app\app_per_sync_mgr.c **** 
   5:C:/Users/stapi/OneDrive/Desktop/GD32VW553/GD32VW55X_Wifi_BLE_SDK/GD32VW55x_RELEASE_V1.0.2/MSDK/ble/app\app_per_sync_mgr.c ****     \version 2023-07-20, V1.0.0, firmware for GD32VW55x
   6:C:/Users/stapi/OneDrive/Desktop/GD32VW553/GD32VW55X_Wifi_BLE_SDK/GD32VW55x_RELEASE_V1.0.2/MSDK/ble/app\app_per_sync_mgr.c **** */
   7:C:/Users/stapi/OneDrive/Desktop/GD32VW553/GD32VW55X_Wifi_BLE_SDK/GD32VW55x_RELEASE_V1.0.2/MSDK/ble/app\app_per_sync_mgr.c **** 
   8:C:/Users/stapi/OneDrive/Desktop/GD32VW553/GD32VW55X_Wifi_BLE_SDK/GD32VW55x_RELEASE_V1.0.2/MSDK/ble/app\app_per_sync_mgr.c **** /*
   9:C:/Users/stapi/OneDrive/Desktop/GD32VW553/GD32VW55X_Wifi_BLE_SDK/GD32VW55x_RELEASE_V1.0.2/MSDK/ble/app\app_per_sync_mgr.c ****     Copyright (c) 2023, GigaDevice Semiconductor Inc.
  10:C:/Users/stapi/OneDrive/Desktop/GD32VW553/GD32VW55X_Wifi_BLE_SDK/GD32VW55x_RELEASE_V1.0.2/MSDK/ble/app\app_per_sync_mgr.c **** 
  11:C:/Users/stapi/OneDrive/Desktop/GD32VW553/GD32VW55X_Wifi_BLE_SDK/GD32VW55x_RELEASE_V1.0.2/MSDK/ble/app\app_per_sync_mgr.c ****     Redistribution and use in source and binary forms, with or without modification,
  12:C:/Users/stapi/OneDrive/Desktop/GD32VW553/GD32VW55X_Wifi_BLE_SDK/GD32VW55x_RELEASE_V1.0.2/MSDK/ble/app\app_per_sync_mgr.c **** are permitted provided that the following conditions are met:
  13:C:/Users/stapi/OneDrive/Desktop/GD32VW553/GD32VW55X_Wifi_BLE_SDK/GD32VW55x_RELEASE_V1.0.2/MSDK/ble/app\app_per_sync_mgr.c **** 
  14:C:/Users/stapi/OneDrive/Desktop/GD32VW553/GD32VW55X_Wifi_BLE_SDK/GD32VW55x_RELEASE_V1.0.2/MSDK/ble/app\app_per_sync_mgr.c ****     1. Redistributions of source code must retain the above copyright notice, this
  15:C:/Users/stapi/OneDrive/Desktop/GD32VW553/GD32VW55X_Wifi_BLE_SDK/GD32VW55x_RELEASE_V1.0.2/MSDK/ble/app\app_per_sync_mgr.c ****        list of conditions and the following disclaimer.
  16:C:/Users/stapi/OneDrive/Desktop/GD32VW553/GD32VW55X_Wifi_BLE_SDK/GD32VW55x_RELEASE_V1.0.2/MSDK/ble/app\app_per_sync_mgr.c ****     2. Redistributions in binary form must reproduce the above copyright notice,
  17:C:/Users/stapi/OneDrive/Desktop/GD32VW553/GD32VW55X_Wifi_BLE_SDK/GD32VW55x_RELEASE_V1.0.2/MSDK/ble/app\app_per_sync_mgr.c ****        this list of conditions and the following disclaimer in the documentation
  18:C:/Users/stapi/OneDrive/Desktop/GD32VW553/GD32VW55X_Wifi_BLE_SDK/GD32VW55x_RELEASE_V1.0.2/MSDK/ble/app\app_per_sync_mgr.c ****        and/or other materials provided with the distribution.
  19:C:/Users/stapi/OneDrive/Desktop/GD32VW553/GD32VW55X_Wifi_BLE_SDK/GD32VW55x_RELEASE_V1.0.2/MSDK/ble/app\app_per_sync_mgr.c ****     3. Neither the name of the copyright holder nor the names of its contributors
  20:C:/Users/stapi/OneDrive/Desktop/GD32VW553/GD32VW55X_Wifi_BLE_SDK/GD32VW55x_RELEASE_V1.0.2/MSDK/ble/app\app_per_sync_mgr.c ****        may be used to endorse or promote products derived from this software without
  21:C:/Users/stapi/OneDrive/Desktop/GD32VW553/GD32VW55X_Wifi_BLE_SDK/GD32VW55x_RELEASE_V1.0.2/MSDK/ble/app\app_per_sync_mgr.c ****        specific prior written permission.
  22:C:/Users/stapi/OneDrive/Desktop/GD32VW553/GD32VW55X_Wifi_BLE_SDK/GD32VW55x_RELEASE_V1.0.2/MSDK/ble/app\app_per_sync_mgr.c **** 
  23:C:/Users/stapi/OneDrive/Desktop/GD32VW553/GD32VW55X_Wifi_BLE_SDK/GD32VW55x_RELEASE_V1.0.2/MSDK/ble/app\app_per_sync_mgr.c ****     THIS SOFTWARE IS PROVIDED BY THE COPYRIGHT HOLDERS AND CONTRIBUTORS "AS IS"
  24:C:/Users/stapi/OneDrive/Desktop/GD32VW553/GD32VW55X_Wifi_BLE_SDK/GD32VW55x_RELEASE_V1.0.2/MSDK/ble/app\app_per_sync_mgr.c **** AND ANY EXPRESS OR IMPLIED WARRANTIES, INCLUDING, BUT NOT LIMITED TO, THE IMPLIED
  25:C:/Users/stapi/OneDrive/Desktop/GD32VW553/GD32VW55X_Wifi_BLE_SDK/GD32VW55x_RELEASE_V1.0.2/MSDK/ble/app\app_per_sync_mgr.c **** WARRANTIES OF MERCHANTABILITY AND FITNESS FOR A PARTICULAR PURPOSE ARE DISCLAIMED.
  26:C:/Users/stapi/OneDrive/Desktop/GD32VW553/GD32VW55X_Wifi_BLE_SDK/GD32VW55x_RELEASE_V1.0.2/MSDK/ble/app\app_per_sync_mgr.c **** IN NO EVENT SHALL THE COPYRIGHT HOLDER OR CONTRIBUTORS BE LIABLE FOR ANY DIRECT,
  27:C:/Users/stapi/OneDrive/Desktop/GD32VW553/GD32VW55X_Wifi_BLE_SDK/GD32VW55x_RELEASE_V1.0.2/MSDK/ble/app\app_per_sync_mgr.c **** INDIRECT, INCIDENTAL, SPECIAL, EXEMPLARY, OR CONSEQUENTIAL DAMAGES (INCLUDING, BUT
  28:C:/Users/stapi/OneDrive/Desktop/GD32VW553/GD32VW55X_Wifi_BLE_SDK/GD32VW55x_RELEASE_V1.0.2/MSDK/ble/app\app_per_sync_mgr.c **** NOT LIMITED TO, PROCUREMENT OF SUBSTITUTE GOODS OR SERVICES; LOSS OF USE, DATA, OR
  29:C:/Users/stapi/OneDrive/Desktop/GD32VW553/GD32VW55X_Wifi_BLE_SDK/GD32VW55x_RELEASE_V1.0.2/MSDK/ble/app\app_per_sync_mgr.c **** PROFITS; OR BUSINESS INTERRUPTION) HOWEVER CAUSED AND ON ANY THEORY OF LIABILITY,
  30:C:/Users/stapi/OneDrive/Desktop/GD32VW553/GD32VW55X_Wifi_BLE_SDK/GD32VW55x_RELEASE_V1.0.2/MSDK/ble/app\app_per_sync_mgr.c **** WHETHER IN CONTRACT, STRICT LIABILITY, OR TORT (INCLUDING NEGLIGENCE OR OTHERWISE)
  31:C:/Users/stapi/OneDrive/Desktop/GD32VW553/GD32VW55X_Wifi_BLE_SDK/GD32VW55x_RELEASE_V1.0.2/MSDK/ble/app\app_per_sync_mgr.c **** ARISING IN ANY WAY OUT OF THE USE OF THIS SOFTWARE, EVEN IF ADVISED OF THE POSSIBILITY
  32:C:/Users/stapi/OneDrive/Desktop/GD32VW553/GD32VW55X_Wifi_BLE_SDK/GD32VW55x_RELEASE_V1.0.2/MSDK/ble/app\app_per_sync_mgr.c **** OF SUCH DAMAGE.
  33:C:/Users/stapi/OneDrive/Desktop/GD32VW553/GD32VW55X_Wifi_BLE_SDK/GD32VW55x_RELEASE_V1.0.2/MSDK/ble/app\app_per_sync_mgr.c **** */
  34:C:/Users/stapi/OneDrive/Desktop/GD32VW553/GD32VW55X_Wifi_BLE_SDK/GD32VW55x_RELEASE_V1.0.2/MSDK/ble/app\app_per_sync_mgr.c **** 
  35:C:/Users/stapi/OneDrive/Desktop/GD32VW553/GD32VW55X_Wifi_BLE_SDK/GD32VW55x_RELEASE_V1.0.2/MSDK/ble/app\app_per_sync_mgr.c **** #include "ble_app_config.h"
  36:C:/Users/stapi/OneDrive/Desktop/GD32VW553/GD32VW55X_Wifi_BLE_SDK/GD32VW55x_RELEASE_V1.0.2/MSDK/ble/app\app_per_sync_mgr.c **** 
  37:C:/Users/stapi/OneDrive/Desktop/GD32VW553/GD32VW55X_Wifi_BLE_SDK/GD32VW55x_RELEASE_V1.0.2/MSDK/ble/app\app_per_sync_mgr.c **** #if (BLE_APP_SUPPORT && BLE_APP_PER_ADV_SUPPORT)
  38:C:/Users/stapi/OneDrive/Desktop/GD32VW553/GD32VW55X_Wifi_BLE_SDK/GD32VW55x_RELEASE_V1.0.2/MSDK/ble/app\app_per_sync_mgr.c **** #include <string.h>
  39:C:/Users/stapi/OneDrive/Desktop/GD32VW553/GD32VW55X_Wifi_BLE_SDK/GD32VW55x_RELEASE_V1.0.2/MSDK/ble/app\app_per_sync_mgr.c **** #include "ble_per_sync.h"
  40:C:/Users/stapi/OneDrive/Desktop/GD32VW553/GD32VW55X_Wifi_BLE_SDK/GD32VW55x_RELEASE_V1.0.2/MSDK/ble/app\app_per_sync_mgr.c **** #include "app_per_sync_mgr.h"
  41:C:/Users/stapi/OneDrive/Desktop/GD32VW553/GD32VW55X_Wifi_BLE_SDK/GD32VW55x_RELEASE_V1.0.2/MSDK/ble/app\app_per_sync_mgr.c **** 
  42:C:/Users/stapi/OneDrive/Desktop/GD32VW553/GD32VW55X_Wifi_BLE_SDK/GD32VW55x_RELEASE_V1.0.2/MSDK/ble/app\app_per_sync_mgr.c **** #include "wrapper_os.h"
  43:C:/Users/stapi/OneDrive/Desktop/GD32VW553/GD32VW55X_Wifi_BLE_SDK/GD32VW55x_RELEASE_V1.0.2/MSDK/ble/app\app_per_sync_mgr.c **** #include "dbg_print.h"
  44:C:/Users/stapi/OneDrive/Desktop/GD32VW553/GD32VW55X_Wifi_BLE_SDK/GD32VW55x_RELEASE_V1.0.2/MSDK/ble/app\app_per_sync_mgr.c **** 
  45:C:/Users/stapi/OneDrive/Desktop/GD32VW553/GD32VW55X_Wifi_BLE_SDK/GD32VW55x_RELEASE_V1.0.2/MSDK/ble/app\app_per_sync_mgr.c **** /* Application periodic sync manager environment structure */
  46:C:/Users/stapi/OneDrive/Desktop/GD32VW553/GD32VW55X_Wifi_BLE_SDK/GD32VW55x_RELEASE_V1.0.2/MSDK/ble/app\app_per_sync_mgr.c **** typedef struct sync_mgr_cb
  47:C:/Users/stapi/OneDrive/Desktop/GD32VW553/GD32VW55X_Wifi_BLE_SDK/GD32VW55x_RELEASE_V1.0.2/MSDK/ble/app\app_per_sync_mgr.c **** {
  48:C:/Users/stapi/OneDrive/Desktop/GD32VW553/GD32VW55X_Wifi_BLE_SDK/GD32VW55x_RELEASE_V1.0.2/MSDK/ble/app\app_per_sync_mgr.c ****     dlist_t devs_list;
  49:C:/Users/stapi/OneDrive/Desktop/GD32VW553/GD32VW55X_Wifi_BLE_SDK/GD32VW55x_RELEASE_V1.0.2/MSDK/ble/app\app_per_sync_mgr.c **** } sync_mgr_cb_t;
  50:C:/Users/stapi/OneDrive/Desktop/GD32VW553/GD32VW55X_Wifi_BLE_SDK/GD32VW55x_RELEASE_V1.0.2/MSDK/ble/app\app_per_sync_mgr.c **** 
  51:C:/Users/stapi/OneDrive/Desktop/GD32VW553/GD32VW55X_Wifi_BLE_SDK/GD32VW55x_RELEASE_V1.0.2/MSDK/ble/app\app_per_sync_mgr.c **** /* Application periodic sync manager environment data */
  52:C:/Users/stapi/OneDrive/Desktop/GD32VW553/GD32VW55X_Wifi_BLE_SDK/GD32VW55x_RELEASE_V1.0.2/MSDK/ble/app\app_per_sync_mgr.c **** static sync_mgr_cb_t ble_sync_mgr_cb;
  53:C:/Users/stapi/OneDrive/Desktop/GD32VW553/GD32VW55X_Wifi_BLE_SDK/GD32VW55x_RELEASE_V1.0.2/MSDK/ble/app\app_per_sync_mgr.c **** 
  54:C:/Users/stapi/OneDrive/Desktop/GD32VW553/GD32VW55X_Wifi_BLE_SDK/GD32VW55x_RELEASE_V1.0.2/MSDK/ble/app\app_per_sync_mgr.c **** /*!
  55:C:/Users/stapi/OneDrive/Desktop/GD32VW553/GD32VW55X_Wifi_BLE_SDK/GD32VW55x_RELEASE_V1.0.2/MSDK/ble/app\app_per_sync_mgr.c ****     \brief      Find periodic sync device information by index
  56:C:/Users/stapi/OneDrive/Desktop/GD32VW553/GD32VW55X_Wifi_BLE_SDK/GD32VW55x_RELEASE_V1.0.2/MSDK/ble/app\app_per_sync_mgr.c ****     \param[in]  sync_idx: periodic sync index
  57:C:/Users/stapi/OneDrive/Desktop/GD32VW553/GD32VW55X_Wifi_BLE_SDK/GD32VW55x_RELEASE_V1.0.2/MSDK/ble/app\app_per_sync_mgr.c ****     \param[out] none
  58:C:/Users/stapi/OneDrive/Desktop/GD32VW553/GD32VW55X_Wifi_BLE_SDK/GD32VW55x_RELEASE_V1.0.2/MSDK/ble/app\app_per_sync_mgr.c ****     \retval     per_dev_info_t *: pointer to periodic sync device information found
  59:C:/Users/stapi/OneDrive/Desktop/GD32VW553/GD32VW55X_Wifi_BLE_SDK/GD32VW55x_RELEASE_V1.0.2/MSDK/ble/app\app_per_sync_mgr.c **** */
  60:C:/Users/stapi/OneDrive/Desktop/GD32VW553/GD32VW55X_Wifi_BLE_SDK/GD32VW55x_RELEASE_V1.0.2/MSDK/ble/app\app_per_sync_mgr.c **** static per_dev_info_t *sync_mgr_find_device_by_idx(uint8_t sync_idx)
  61:C:/Users/stapi/OneDrive/Desktop/GD32VW553/GD32VW55X_Wifi_BLE_SDK/GD32VW55x_RELEASE_V1.0.2/MSDK/ble/app\app_per_sync_mgr.c **** {
  15              		.loc 1 61 1
  16              		.cfi_startproc
  17              	.LVL0:
  18 0000 17030000 		call	t0,__riscv_save_2
  18      E7020300 
  19              		.cfi_offset 9, -12
  20              		.cfi_offset 8, -8
  21              		.cfi_offset 1, -4
  22              		.cfi_def_cfa_offset 16
  62:C:/Users/stapi/OneDrive/Desktop/GD32VW553/GD32VW55X_Wifi_BLE_SDK/GD32VW55x_RELEASE_V1.0.2/MSDK/ble/app\app_per_sync_mgr.c ****     per_dev_info_t *p_sync_dev = NULL;
  23              		.loc 1 62 5
  24              	.LVL1:
  63:C:/Users/stapi/OneDrive/Desktop/GD32VW553/GD32VW55X_Wifi_BLE_SDK/GD32VW55x_RELEASE_V1.0.2/MSDK/ble/app\app_per_sync_mgr.c ****     dlist_t *pos, *n;
  25              		.loc 1 63 5
  64:C:/Users/stapi/OneDrive/Desktop/GD32VW553/GD32VW55X_Wifi_BLE_SDK/GD32VW55x_RELEASE_V1.0.2/MSDK/ble/app\app_per_sync_mgr.c **** 
  65:C:/Users/stapi/OneDrive/Desktop/GD32VW553/GD32VW55X_Wifi_BLE_SDK/GD32VW55x_RELEASE_V1.0.2/MSDK/ble/app\app_per_sync_mgr.c ****     if (list_empty(&ble_sync_mgr_cb.devs_list)) {
  26              		.loc 1 65 5
  27              		.loc 1 65 9 is_stmt 0
  28 0008 37040000 		lui	s0,%hi(.LANCHOR0)
  61:C:/Users/stapi/OneDrive/Desktop/GD32VW553/GD32VW55X_Wifi_BLE_SDK/GD32VW55x_RELEASE_V1.0.2/MSDK/ble/app\app_per_sync_mgr.c ****     per_dev_info_t *p_sync_dev = NULL;
  29              		.loc 1 61 1
  30 000c AA84     		mv	s1,a0
  31              		.loc 1 65 9
  32 000e 13050400 		addi	a0,s0,%lo(.LANCHOR0)
  33              	.LVL2:
  34 0012 97000000 		call	list_empty
  34      E7800000 
  35              	.LVL3:
  36              		.loc 1 65 8
  37 001a 19E5     		bne	a0,zero,.L5
  38 001c 13040400 		addi	s0,s0,%lo(.LANCHOR0)
  66:C:/Users/stapi/OneDrive/Desktop/GD32VW553/GD32VW55X_Wifi_BLE_SDK/GD32VW55x_RELEASE_V1.0.2/MSDK/ble/app\app_per_sync_mgr.c ****         return NULL;
  67:C:/Users/stapi/OneDrive/Desktop/GD32VW553/GD32VW55X_Wifi_BLE_SDK/GD32VW55x_RELEASE_V1.0.2/MSDK/ble/app\app_per_sync_mgr.c ****     }
  68:C:/Users/stapi/OneDrive/Desktop/GD32VW553/GD32VW55X_Wifi_BLE_SDK/GD32VW55x_RELEASE_V1.0.2/MSDK/ble/app\app_per_sync_mgr.c **** 
  69:C:/Users/stapi/OneDrive/Desktop/GD32VW553/GD32VW55X_Wifi_BLE_SDK/GD32VW55x_RELEASE_V1.0.2/MSDK/ble/app\app_per_sync_mgr.c ****     list_for_each_safe(pos, n, &ble_sync_mgr_cb.devs_list) {
  39              		.loc 1 69 5 is_stmt 1
  40 0020 0840     		lw	a0,0(s0)
  41              	.LVL4:
  42 0022 1C41     		lw	a5,0(a0)
  43              	.LVL5:
  44              	.L3:
  45              		.loc 1 69 5 discriminator 1
  46 0024 63178500 		bne	a0,s0,.L4
  47              	.LVL6:
  48              	.L5:
  66:C:/Users/stapi/OneDrive/Desktop/GD32VW553/GD32VW55X_Wifi_BLE_SDK/GD32VW55x_RELEASE_V1.0.2/MSDK/ble/app\app_per_sync_mgr.c ****         return NULL;
  49              		.loc 1 66 16 is_stmt 0
  50 0028 0145     		li	a0,0
  51              	.L1:
  70:C:/Users/stapi/OneDrive/Desktop/GD32VW553/GD32VW55X_Wifi_BLE_SDK/GD32VW55x_RELEASE_V1.0.2/MSDK/ble/app\app_per_sync_mgr.c ****         p_sync_dev = list_entry(pos, per_dev_info_t, list);
  71:C:/Users/stapi/OneDrive/Desktop/GD32VW553/GD32VW55X_Wifi_BLE_SDK/GD32VW55x_RELEASE_V1.0.2/MSDK/ble/app\app_per_sync_mgr.c ****         if (p_sync_dev->sync_idx == sync_idx) {
  72:C:/Users/stapi/OneDrive/Desktop/GD32VW553/GD32VW55X_Wifi_BLE_SDK/GD32VW55x_RELEASE_V1.0.2/MSDK/ble/app\app_per_sync_mgr.c ****             return p_sync_dev;
  73:C:/Users/stapi/OneDrive/Desktop/GD32VW553/GD32VW55X_Wifi_BLE_SDK/GD32VW55x_RELEASE_V1.0.2/MSDK/ble/app\app_per_sync_mgr.c ****         }
  74:C:/Users/stapi/OneDrive/Desktop/GD32VW553/GD32VW55X_Wifi_BLE_SDK/GD32VW55x_RELEASE_V1.0.2/MSDK/ble/app\app_per_sync_mgr.c ****     }
  75:C:/Users/stapi/OneDrive/Desktop/GD32VW553/GD32VW55X_Wifi_BLE_SDK/GD32VW55x_RELEASE_V1.0.2/MSDK/ble/app\app_per_sync_mgr.c **** 
  76:C:/Users/stapi/OneDrive/Desktop/GD32VW553/GD32VW55X_Wifi_BLE_SDK/GD32VW55x_RELEASE_V1.0.2/MSDK/ble/app\app_per_sync_mgr.c ****     return NULL;
  77:C:/Users/stapi/OneDrive/Desktop/GD32VW553/GD32VW55X_Wifi_BLE_SDK/GD32VW55x_RELEASE_V1.0.2/MSDK/ble/app\app_per_sync_mgr.c **** }
  52              		.loc 1 77 1
  53 002a 17030000 		tail	__riscv_restore_2
  53      67000300 
  54              		.cfi_remember_state
  55              		.cfi_restore 9
  56              		.cfi_restore 8
  57              		.cfi_restore 1
  58              		.cfi_def_cfa_offset 0
  59              	.LVL7:
  60              	.L4:
  61              		.cfi_restore_state
  70:C:/Users/stapi/OneDrive/Desktop/GD32VW553/GD32VW55X_Wifi_BLE_SDK/GD32VW55x_RELEASE_V1.0.2/MSDK/ble/app\app_per_sync_mgr.c ****         p_sync_dev = list_entry(pos, per_dev_info_t, list);
  62              		.loc 1 70 9 is_stmt 1
  71:C:/Users/stapi/OneDrive/Desktop/GD32VW553/GD32VW55X_Wifi_BLE_SDK/GD32VW55x_RELEASE_V1.0.2/MSDK/ble/app\app_per_sync_mgr.c ****             return p_sync_dev;
  63              		.loc 1 71 9
  71:C:/Users/stapi/OneDrive/Desktop/GD32VW553/GD32VW55X_Wifi_BLE_SDK/GD32VW55x_RELEASE_V1.0.2/MSDK/ble/app\app_per_sync_mgr.c ****             return p_sync_dev;
  64              		.loc 1 71 12 is_stmt 0
  65 0032 03478500 		lbu	a4,8(a0)
  66 0036 E30A97FE 		beq	a4,s1,.L1
  69:C:/Users/stapi/OneDrive/Desktop/GD32VW553/GD32VW55X_Wifi_BLE_SDK/GD32VW55x_RELEASE_V1.0.2/MSDK/ble/app\app_per_sync_mgr.c ****         p_sync_dev = list_entry(pos, per_dev_info_t, list);
  67              		.loc 1 69 5 is_stmt 1 discriminator 2
  68              	.LVL8:
  69 003a 3E85     		mv	a0,a5
  70              	.LVL9:
  71 003c 9C43     		lw	a5,0(a5)
  72              	.LVL10:
  73 003e DDB7     		j	.L3
  74              		.cfi_endproc
  75              	.LFE1:
  77              		.section	.text.ble_per_sync_clear_all_dev_list_flag,"ax",@progbits
  78              		.align	1
  79              		.globl	ble_per_sync_clear_all_dev_list_flag
  81              	ble_per_sync_clear_all_dev_list_flag:
  82              	.LFB3:
  78:C:/Users/stapi/OneDrive/Desktop/GD32VW553/GD32VW55X_Wifi_BLE_SDK/GD32VW55x_RELEASE_V1.0.2/MSDK/ble/app\app_per_sync_mgr.c **** 
  79:C:/Users/stapi/OneDrive/Desktop/GD32VW553/GD32VW55X_Wifi_BLE_SDK/GD32VW55x_RELEASE_V1.0.2/MSDK/ble/app\app_per_sync_mgr.c **** /*!
  80:C:/Users/stapi/OneDrive/Desktop/GD32VW553/GD32VW55X_Wifi_BLE_SDK/GD32VW55x_RELEASE_V1.0.2/MSDK/ble/app\app_per_sync_mgr.c ****     \brief      Callback function to handle BLE periodic sync events
  81:C:/Users/stapi/OneDrive/Desktop/GD32VW553/GD32VW55X_Wifi_BLE_SDK/GD32VW55x_RELEASE_V1.0.2/MSDK/ble/app\app_per_sync_mgr.c ****     \param[in]  event: BLE periodic sync event type
  82:C:/Users/stapi/OneDrive/Desktop/GD32VW553/GD32VW55X_Wifi_BLE_SDK/GD32VW55x_RELEASE_V1.0.2/MSDK/ble/app\app_per_sync_mgr.c ****     \param[in]  p_data: pointer to BLE periodic sync event data
  83:C:/Users/stapi/OneDrive/Desktop/GD32VW553/GD32VW55X_Wifi_BLE_SDK/GD32VW55x_RELEASE_V1.0.2/MSDK/ble/app\app_per_sync_mgr.c ****     \param[out] none
  84:C:/Users/stapi/OneDrive/Desktop/GD32VW553/GD32VW55X_Wifi_BLE_SDK/GD32VW55x_RELEASE_V1.0.2/MSDK/ble/app\app_per_sync_mgr.c ****     \retval     none
  85:C:/Users/stapi/OneDrive/Desktop/GD32VW553/GD32VW55X_Wifi_BLE_SDK/GD32VW55x_RELEASE_V1.0.2/MSDK/ble/app\app_per_sync_mgr.c **** */
  86:C:/Users/stapi/OneDrive/Desktop/GD32VW553/GD32VW55X_Wifi_BLE_SDK/GD32VW55x_RELEASE_V1.0.2/MSDK/ble/app\app_per_sync_mgr.c **** static void ble_per_sync_evt_handler(ble_per_sync_evt_t event, ble_per_sync_data_u *p_data)
  87:C:/Users/stapi/OneDrive/Desktop/GD32VW553/GD32VW55X_Wifi_BLE_SDK/GD32VW55x_RELEASE_V1.0.2/MSDK/ble/app\app_per_sync_mgr.c **** {
  88:C:/Users/stapi/OneDrive/Desktop/GD32VW553/GD32VW55X_Wifi_BLE_SDK/GD32VW55x_RELEASE_V1.0.2/MSDK/ble/app\app_per_sync_mgr.c ****     per_dev_info_t *p_sync_dev = NULL;
  89:C:/Users/stapi/OneDrive/Desktop/GD32VW553/GD32VW55X_Wifi_BLE_SDK/GD32VW55x_RELEASE_V1.0.2/MSDK/ble/app\app_per_sync_mgr.c ****     switch (event) {
  90:C:/Users/stapi/OneDrive/Desktop/GD32VW553/GD32VW55X_Wifi_BLE_SDK/GD32VW55x_RELEASE_V1.0.2/MSDK/ble/app\app_per_sync_mgr.c ****     case BLE_PER_SYNC_EVT_STATE_CHG:
  91:C:/Users/stapi/OneDrive/Desktop/GD32VW553/GD32VW55X_Wifi_BLE_SDK/GD32VW55x_RELEASE_V1.0.2/MSDK/ble/app\app_per_sync_mgr.c ****         dbg_print(NOTICE, "periodic sync idx %u, state %u \r\n", p_data->sync_state.sync_idx,
  92:C:/Users/stapi/OneDrive/Desktop/GD32VW553/GD32VW55X_Wifi_BLE_SDK/GD32VW55x_RELEASE_V1.0.2/MSDK/ble/app\app_per_sync_mgr.c ****                p_data->sync_state.state);
  93:C:/Users/stapi/OneDrive/Desktop/GD32VW553/GD32VW55X_Wifi_BLE_SDK/GD32VW55x_RELEASE_V1.0.2/MSDK/ble/app\app_per_sync_mgr.c ****         break;
  94:C:/Users/stapi/OneDrive/Desktop/GD32VW553/GD32VW55X_Wifi_BLE_SDK/GD32VW55x_RELEASE_V1.0.2/MSDK/ble/app\app_per_sync_mgr.c **** 
  95:C:/Users/stapi/OneDrive/Desktop/GD32VW553/GD32VW55X_Wifi_BLE_SDK/GD32VW55x_RELEASE_V1.0.2/MSDK/ble/app\app_per_sync_mgr.c ****     case BLE_PER_SYNC_EVT_ESTABLISHED:
  96:C:/Users/stapi/OneDrive/Desktop/GD32VW553/GD32VW55X_Wifi_BLE_SDK/GD32VW55x_RELEASE_V1.0.2/MSDK/ble/app\app_per_sync_mgr.c ****         dbg_print(NOTICE, "periodic device synced. sync idx %u, addr %02X:%02X:%02X:%02X:%02X:%02X 
  97:C:/Users/stapi/OneDrive/Desktop/GD32VW553/GD32VW55X_Wifi_BLE_SDK/GD32VW55x_RELEASE_V1.0.2/MSDK/ble/app\app_per_sync_mgr.c ****                p_data->establish.param.actv_idx, p_data->establish.param.addr.addr[5],
  98:C:/Users/stapi/OneDrive/Desktop/GD32VW553/GD32VW55X_Wifi_BLE_SDK/GD32VW55x_RELEASE_V1.0.2/MSDK/ble/app\app_per_sync_mgr.c ****                p_data->establish.param.addr.addr[4], p_data->establish.param.addr.addr[3],
  99:C:/Users/stapi/OneDrive/Desktop/GD32VW553/GD32VW55X_Wifi_BLE_SDK/GD32VW55x_RELEASE_V1.0.2/MSDK/ble/app\app_per_sync_mgr.c ****                p_data->establish.param.addr.addr[2], p_data->establish.param.addr.addr[1],
 100:C:/Users/stapi/OneDrive/Desktop/GD32VW553/GD32VW55X_Wifi_BLE_SDK/GD32VW55x_RELEASE_V1.0.2/MSDK/ble/app\app_per_sync_mgr.c ****                p_data->establish.param.addr.addr[0]);
 101:C:/Users/stapi/OneDrive/Desktop/GD32VW553/GD32VW55X_Wifi_BLE_SDK/GD32VW55x_RELEASE_V1.0.2/MSDK/ble/app\app_per_sync_mgr.c ****         p_sync_dev = ble_per_sync_mgr_find_alloc_device(&p_data->establish.param.addr,
 102:C:/Users/stapi/OneDrive/Desktop/GD32VW553/GD32VW55X_Wifi_BLE_SDK/GD32VW55x_RELEASE_V1.0.2/MSDK/ble/app\app_per_sync_mgr.c ****                                                         p_data->establish.param.adv_sid,
 103:C:/Users/stapi/OneDrive/Desktop/GD32VW553/GD32VW55X_Wifi_BLE_SDK/GD32VW55x_RELEASE_V1.0.2/MSDK/ble/app\app_per_sync_mgr.c ****                                                         p_data->establish.param.intv);
 104:C:/Users/stapi/OneDrive/Desktop/GD32VW553/GD32VW55X_Wifi_BLE_SDK/GD32VW55x_RELEASE_V1.0.2/MSDK/ble/app\app_per_sync_mgr.c ****         if (p_sync_dev) {
 105:C:/Users/stapi/OneDrive/Desktop/GD32VW553/GD32VW55X_Wifi_BLE_SDK/GD32VW55x_RELEASE_V1.0.2/MSDK/ble/app\app_per_sync_mgr.c ****             p_sync_dev->sync_idx = p_data->establish.param.actv_idx;
 106:C:/Users/stapi/OneDrive/Desktop/GD32VW553/GD32VW55X_Wifi_BLE_SDK/GD32VW55x_RELEASE_V1.0.2/MSDK/ble/app\app_per_sync_mgr.c ****             p_sync_dev->phy = p_data->establish.param.phy;
 107:C:/Users/stapi/OneDrive/Desktop/GD32VW553/GD32VW55X_Wifi_BLE_SDK/GD32VW55x_RELEASE_V1.0.2/MSDK/ble/app\app_per_sync_mgr.c ****             p_sync_dev->period_adv_intv = p_data->establish.param.intv;
 108:C:/Users/stapi/OneDrive/Desktop/GD32VW553/GD32VW55X_Wifi_BLE_SDK/GD32VW55x_RELEASE_V1.0.2/MSDK/ble/app\app_per_sync_mgr.c ****             p_sync_dev->serv_data = p_data->establish.param.serv_data;
 109:C:/Users/stapi/OneDrive/Desktop/GD32VW553/GD32VW55X_Wifi_BLE_SDK/GD32VW55x_RELEASE_V1.0.2/MSDK/ble/app\app_per_sync_mgr.c ****         }
 110:C:/Users/stapi/OneDrive/Desktop/GD32VW553/GD32VW55X_Wifi_BLE_SDK/GD32VW55x_RELEASE_V1.0.2/MSDK/ble/app\app_per_sync_mgr.c ****         break;
 111:C:/Users/stapi/OneDrive/Desktop/GD32VW553/GD32VW55X_Wifi_BLE_SDK/GD32VW55x_RELEASE_V1.0.2/MSDK/ble/app\app_per_sync_mgr.c **** 
 112:C:/Users/stapi/OneDrive/Desktop/GD32VW553/GD32VW55X_Wifi_BLE_SDK/GD32VW55x_RELEASE_V1.0.2/MSDK/ble/app\app_per_sync_mgr.c ****     case BLE_PER_SYNC_EVT_REPORT: {
 113:C:/Users/stapi/OneDrive/Desktop/GD32VW553/GD32VW55X_Wifi_BLE_SDK/GD32VW55x_RELEASE_V1.0.2/MSDK/ble/app\app_per_sync_mgr.c ****         ble_gap_adv_report_info_t  *p_report = p_data->report.p_report;
 114:C:/Users/stapi/OneDrive/Desktop/GD32VW553/GD32VW55X_Wifi_BLE_SDK/GD32VW55x_RELEASE_V1.0.2/MSDK/ble/app\app_per_sync_mgr.c ****         p_sync_dev = sync_mgr_find_device_by_idx(p_report->actv_idx);
 115:C:/Users/stapi/OneDrive/Desktop/GD32VW553/GD32VW55X_Wifi_BLE_SDK/GD32VW55x_RELEASE_V1.0.2/MSDK/ble/app\app_per_sync_mgr.c **** 
 116:C:/Users/stapi/OneDrive/Desktop/GD32VW553/GD32VW55X_Wifi_BLE_SDK/GD32VW55x_RELEASE_V1.0.2/MSDK/ble/app\app_per_sync_mgr.c ****         if (p_sync_dev) {
 117:C:/Users/stapi/OneDrive/Desktop/GD32VW553/GD32VW55X_Wifi_BLE_SDK/GD32VW55x_RELEASE_V1.0.2/MSDK/ble/app\app_per_sync_mgr.c ****             dbg_print(NOTICE, "periodic device reported, addr %02X:%02X:%02X:%02X:%02X:%02X \r\n",
 118:C:/Users/stapi/OneDrive/Desktop/GD32VW553/GD32VW55X_Wifi_BLE_SDK/GD32VW55x_RELEASE_V1.0.2/MSDK/ble/app\app_per_sync_mgr.c ****                    p_sync_dev->sync_info.addr[5], p_sync_dev->sync_info.addr[4], p_sync_dev->sync_i
 119:C:/Users/stapi/OneDrive/Desktop/GD32VW553/GD32VW55X_Wifi_BLE_SDK/GD32VW55x_RELEASE_V1.0.2/MSDK/ble/app\app_per_sync_mgr.c ****                    p_sync_dev->sync_info.addr[2], p_sync_dev->sync_info.addr[1], p_sync_dev->sync_i
 120:C:/Users/stapi/OneDrive/Desktop/GD32VW553/GD32VW55X_Wifi_BLE_SDK/GD32VW55x_RELEASE_V1.0.2/MSDK/ble/app\app_per_sync_mgr.c ****         }
 121:C:/Users/stapi/OneDrive/Desktop/GD32VW553/GD32VW55X_Wifi_BLE_SDK/GD32VW55x_RELEASE_V1.0.2/MSDK/ble/app\app_per_sync_mgr.c ****     }
 122:C:/Users/stapi/OneDrive/Desktop/GD32VW553/GD32VW55X_Wifi_BLE_SDK/GD32VW55x_RELEASE_V1.0.2/MSDK/ble/app\app_per_sync_mgr.c ****     break;
 123:C:/Users/stapi/OneDrive/Desktop/GD32VW553/GD32VW55X_Wifi_BLE_SDK/GD32VW55x_RELEASE_V1.0.2/MSDK/ble/app\app_per_sync_mgr.c **** 
 124:C:/Users/stapi/OneDrive/Desktop/GD32VW553/GD32VW55X_Wifi_BLE_SDK/GD32VW55x_RELEASE_V1.0.2/MSDK/ble/app\app_per_sync_mgr.c ****     case BLE_PER_SYNC_EVT_RPT_CTRL_RSP: {
 125:C:/Users/stapi/OneDrive/Desktop/GD32VW553/GD32VW55X_Wifi_BLE_SDK/GD32VW55x_RELEASE_V1.0.2/MSDK/ble/app\app_per_sync_mgr.c ****         ble_per_sync_rpt_ctrl_rsp_t  *p_res = &p_data->rpt_ctrl_rsp;
 126:C:/Users/stapi/OneDrive/Desktop/GD32VW553/GD32VW55X_Wifi_BLE_SDK/GD32VW55x_RELEASE_V1.0.2/MSDK/ble/app\app_per_sync_mgr.c ****         p_sync_dev = sync_mgr_find_device_by_idx(p_res->param.actv_idx);
 127:C:/Users/stapi/OneDrive/Desktop/GD32VW553/GD32VW55X_Wifi_BLE_SDK/GD32VW55x_RELEASE_V1.0.2/MSDK/ble/app\app_per_sync_mgr.c **** 
 128:C:/Users/stapi/OneDrive/Desktop/GD32VW553/GD32VW55X_Wifi_BLE_SDK/GD32VW55x_RELEASE_V1.0.2/MSDK/ble/app\app_per_sync_mgr.c ****         if (p_sync_dev) {
 129:C:/Users/stapi/OneDrive/Desktop/GD32VW553/GD32VW55X_Wifi_BLE_SDK/GD32VW55x_RELEASE_V1.0.2/MSDK/ble/app\app_per_sync_mgr.c ****             dbg_print(NOTICE, "periodic device report ctrl status 0x%x \r\n", p_res->param.status);
 130:C:/Users/stapi/OneDrive/Desktop/GD32VW553/GD32VW55X_Wifi_BLE_SDK/GD32VW55x_RELEASE_V1.0.2/MSDK/ble/app\app_per_sync_mgr.c ****         }
 131:C:/Users/stapi/OneDrive/Desktop/GD32VW553/GD32VW55X_Wifi_BLE_SDK/GD32VW55x_RELEASE_V1.0.2/MSDK/ble/app\app_per_sync_mgr.c ****     }
 132:C:/Users/stapi/OneDrive/Desktop/GD32VW553/GD32VW55X_Wifi_BLE_SDK/GD32VW55x_RELEASE_V1.0.2/MSDK/ble/app\app_per_sync_mgr.c ****     break;
 133:C:/Users/stapi/OneDrive/Desktop/GD32VW553/GD32VW55X_Wifi_BLE_SDK/GD32VW55x_RELEASE_V1.0.2/MSDK/ble/app\app_per_sync_mgr.c **** 
 134:C:/Users/stapi/OneDrive/Desktop/GD32VW553/GD32VW55X_Wifi_BLE_SDK/GD32VW55x_RELEASE_V1.0.2/MSDK/ble/app\app_per_sync_mgr.c ****     default:
 135:C:/Users/stapi/OneDrive/Desktop/GD32VW553/GD32VW55X_Wifi_BLE_SDK/GD32VW55x_RELEASE_V1.0.2/MSDK/ble/app\app_per_sync_mgr.c ****         break;
 136:C:/Users/stapi/OneDrive/Desktop/GD32VW553/GD32VW55X_Wifi_BLE_SDK/GD32VW55x_RELEASE_V1.0.2/MSDK/ble/app\app_per_sync_mgr.c ****     }
 137:C:/Users/stapi/OneDrive/Desktop/GD32VW553/GD32VW55X_Wifi_BLE_SDK/GD32VW55x_RELEASE_V1.0.2/MSDK/ble/app\app_per_sync_mgr.c **** }
 138:C:/Users/stapi/OneDrive/Desktop/GD32VW553/GD32VW55X_Wifi_BLE_SDK/GD32VW55x_RELEASE_V1.0.2/MSDK/ble/app\app_per_sync_mgr.c **** 
 139:C:/Users/stapi/OneDrive/Desktop/GD32VW553/GD32VW55X_Wifi_BLE_SDK/GD32VW55x_RELEASE_V1.0.2/MSDK/ble/app\app_per_sync_mgr.c **** /*!
 140:C:/Users/stapi/OneDrive/Desktop/GD32VW553/GD32VW55X_Wifi_BLE_SDK/GD32VW55x_RELEASE_V1.0.2/MSDK/ble/app\app_per_sync_mgr.c ****     \brief      Clear PAL flag of all devices in the list
 141:C:/Users/stapi/OneDrive/Desktop/GD32VW553/GD32VW55X_Wifi_BLE_SDK/GD32VW55x_RELEASE_V1.0.2/MSDK/ble/app\app_per_sync_mgr.c ****     \param[in]  none
 142:C:/Users/stapi/OneDrive/Desktop/GD32VW553/GD32VW55X_Wifi_BLE_SDK/GD32VW55x_RELEASE_V1.0.2/MSDK/ble/app\app_per_sync_mgr.c ****     \param[out] none
 143:C:/Users/stapi/OneDrive/Desktop/GD32VW553/GD32VW55X_Wifi_BLE_SDK/GD32VW55x_RELEASE_V1.0.2/MSDK/ble/app\app_per_sync_mgr.c ****     \retval     none
 144:C:/Users/stapi/OneDrive/Desktop/GD32VW553/GD32VW55X_Wifi_BLE_SDK/GD32VW55x_RELEASE_V1.0.2/MSDK/ble/app\app_per_sync_mgr.c **** */
 145:C:/Users/stapi/OneDrive/Desktop/GD32VW553/GD32VW55X_Wifi_BLE_SDK/GD32VW55x_RELEASE_V1.0.2/MSDK/ble/app\app_per_sync_mgr.c **** void ble_per_sync_clear_all_dev_list_flag(void)
 146:C:/Users/stapi/OneDrive/Desktop/GD32VW553/GD32VW55X_Wifi_BLE_SDK/GD32VW55x_RELEASE_V1.0.2/MSDK/ble/app\app_per_sync_mgr.c **** {
  83              		.loc 1 146 1
  84              		.cfi_startproc
  85 0000 17030000 		call	t0,__riscv_save_1
  85      E7020300 
  86              		.cfi_offset 8, -8
  87              		.cfi_offset 1, -4
  88              		.cfi_def_cfa_offset 16
 147:C:/Users/stapi/OneDrive/Desktop/GD32VW553/GD32VW55X_Wifi_BLE_SDK/GD32VW55x_RELEASE_V1.0.2/MSDK/ble/app\app_per_sync_mgr.c ****     per_dev_info_t *p_sync_dev = NULL;
  89              		.loc 1 147 5
  90              	.LVL11:
 148:C:/Users/stapi/OneDrive/Desktop/GD32VW553/GD32VW55X_Wifi_BLE_SDK/GD32VW55x_RELEASE_V1.0.2/MSDK/ble/app\app_per_sync_mgr.c ****     dlist_t *pos, *n;
  91              		.loc 1 148 5
 149:C:/Users/stapi/OneDrive/Desktop/GD32VW553/GD32VW55X_Wifi_BLE_SDK/GD32VW55x_RELEASE_V1.0.2/MSDK/ble/app\app_per_sync_mgr.c **** 
 150:C:/Users/stapi/OneDrive/Desktop/GD32VW553/GD32VW55X_Wifi_BLE_SDK/GD32VW55x_RELEASE_V1.0.2/MSDK/ble/app\app_per_sync_mgr.c ****     if (list_empty(&ble_sync_mgr_cb.devs_list)) {
  92              		.loc 1 150 5
  93              		.loc 1 150 9 is_stmt 0
  94 0008 37040000 		lui	s0,%hi(.LANCHOR0)
  95 000c 13050400 		addi	a0,s0,%lo(.LANCHOR0)
  96 0010 97000000 		call	list_empty
  96      E7800000 
  97              	.LVL12:
  98              		.loc 1 150 8
  99 0018 19E5     		bne	a0,zero,.L7
 100 001a 13040400 		addi	s0,s0,%lo(.LANCHOR0)
 151:C:/Users/stapi/OneDrive/Desktop/GD32VW553/GD32VW55X_Wifi_BLE_SDK/GD32VW55x_RELEASE_V1.0.2/MSDK/ble/app\app_per_sync_mgr.c ****         return;
 152:C:/Users/stapi/OneDrive/Desktop/GD32VW553/GD32VW55X_Wifi_BLE_SDK/GD32VW55x_RELEASE_V1.0.2/MSDK/ble/app\app_per_sync_mgr.c ****     }
 153:C:/Users/stapi/OneDrive/Desktop/GD32VW553/GD32VW55X_Wifi_BLE_SDK/GD32VW55x_RELEASE_V1.0.2/MSDK/ble/app\app_per_sync_mgr.c **** 
 154:C:/Users/stapi/OneDrive/Desktop/GD32VW553/GD32VW55X_Wifi_BLE_SDK/GD32VW55x_RELEASE_V1.0.2/MSDK/ble/app\app_per_sync_mgr.c ****     list_for_each_safe(pos, n, &ble_sync_mgr_cb.devs_list) {
 101              		.loc 1 154 5 is_stmt 1
 102 001e 1C40     		lw	a5,0(s0)
 103              	.LVL13:
 104 0020 9843     		lw	a4,0(a5)
 105              	.LVL14:
 106              	.L9:
 107              		.loc 1 154 5 discriminator 1
 108 0022 63968700 		bne	a5,s0,.L10
 109              	.LVL15:
 110              	.L7:
 155:C:/Users/stapi/OneDrive/Desktop/GD32VW553/GD32VW55X_Wifi_BLE_SDK/GD32VW55x_RELEASE_V1.0.2/MSDK/ble/app\app_per_sync_mgr.c ****         p_sync_dev = list_entry(pos, per_dev_info_t, list);
 156:C:/Users/stapi/OneDrive/Desktop/GD32VW553/GD32VW55X_Wifi_BLE_SDK/GD32VW55x_RELEASE_V1.0.2/MSDK/ble/app\app_per_sync_mgr.c ****         p_sync_dev->in_pal = false;
 157:C:/Users/stapi/OneDrive/Desktop/GD32VW553/GD32VW55X_Wifi_BLE_SDK/GD32VW55x_RELEASE_V1.0.2/MSDK/ble/app\app_per_sync_mgr.c ****     }
 158:C:/Users/stapi/OneDrive/Desktop/GD32VW553/GD32VW55X_Wifi_BLE_SDK/GD32VW55x_RELEASE_V1.0.2/MSDK/ble/app\app_per_sync_mgr.c **** }
 111              		.loc 1 158 1 is_stmt 0
 112 0026 17030000 		tail	__riscv_restore_1
 112      67000300 
 113              		.cfi_remember_state
 114              		.cfi_restore 8
 115              		.cfi_restore 1
 116              		.cfi_def_cfa_offset 0
 117              	.LVL16:
 118              	.L10:
 119              		.cfi_restore_state
 155:C:/Users/stapi/OneDrive/Desktop/GD32VW553/GD32VW55X_Wifi_BLE_SDK/GD32VW55x_RELEASE_V1.0.2/MSDK/ble/app\app_per_sync_mgr.c ****         p_sync_dev = list_entry(pos, per_dev_info_t, list);
 120              		.loc 1 155 9 is_stmt 1 discriminator 3
 156:C:/Users/stapi/OneDrive/Desktop/GD32VW553/GD32VW55X_Wifi_BLE_SDK/GD32VW55x_RELEASE_V1.0.2/MSDK/ble/app\app_per_sync_mgr.c ****     }
 121              		.loc 1 156 9 discriminator 3
 156:C:/Users/stapi/OneDrive/Desktop/GD32VW553/GD32VW55X_Wifi_BLE_SDK/GD32VW55x_RELEASE_V1.0.2/MSDK/ble/app\app_per_sync_mgr.c ****     }
 122              		.loc 1 156 28 is_stmt 0 discriminator 3
 123 002e A3840700 		sb	zero,9(a5)
 154:C:/Users/stapi/OneDrive/Desktop/GD32VW553/GD32VW55X_Wifi_BLE_SDK/GD32VW55x_RELEASE_V1.0.2/MSDK/ble/app\app_per_sync_mgr.c ****         p_sync_dev = list_entry(pos, per_dev_info_t, list);
 124              		.loc 1 154 5 is_stmt 1 discriminator 3
 125              	.LVL17:
 126 0032 BA87     		mv	a5,a4
 127              	.LVL18:
 128 0034 1843     		lw	a4,0(a4)
 129              	.LVL19:
 130 0036 F5B7     		j	.L9
 131              		.cfi_endproc
 132              	.LFE3:
 134              		.section	.text.ble_per_sync_mgr_find_device,"ax",@progbits
 135              		.align	1
 136              		.globl	ble_per_sync_mgr_find_device
 138              	ble_per_sync_mgr_find_device:
 139              	.LFB4:
 159:C:/Users/stapi/OneDrive/Desktop/GD32VW553/GD32VW55X_Wifi_BLE_SDK/GD32VW55x_RELEASE_V1.0.2/MSDK/ble/app\app_per_sync_mgr.c **** 
 160:C:/Users/stapi/OneDrive/Desktop/GD32VW553/GD32VW55X_Wifi_BLE_SDK/GD32VW55x_RELEASE_V1.0.2/MSDK/ble/app\app_per_sync_mgr.c **** /*!
 161:C:/Users/stapi/OneDrive/Desktop/GD32VW553/GD32VW55X_Wifi_BLE_SDK/GD32VW55x_RELEASE_V1.0.2/MSDK/ble/app\app_per_sync_mgr.c ****     \brief      Find device in periodic sync manager list
 162:C:/Users/stapi/OneDrive/Desktop/GD32VW553/GD32VW55X_Wifi_BLE_SDK/GD32VW55x_RELEASE_V1.0.2/MSDK/ble/app\app_per_sync_mgr.c ****     \param[in]  p_peer_addr: pointer to peer address
 163:C:/Users/stapi/OneDrive/Desktop/GD32VW553/GD32VW55X_Wifi_BLE_SDK/GD32VW55x_RELEASE_V1.0.2/MSDK/ble/app\app_per_sync_mgr.c ****     \param[in]  adv_sid: advertising sid
 164:C:/Users/stapi/OneDrive/Desktop/GD32VW553/GD32VW55X_Wifi_BLE_SDK/GD32VW55x_RELEASE_V1.0.2/MSDK/ble/app\app_per_sync_mgr.c ****     \param[out] none
 165:C:/Users/stapi/OneDrive/Desktop/GD32VW553/GD32VW55X_Wifi_BLE_SDK/GD32VW55x_RELEASE_V1.0.2/MSDK/ble/app\app_per_sync_mgr.c ****     \retval     per_dev_info_t *: pointer to periodic sync device information found
 166:C:/Users/stapi/OneDrive/Desktop/GD32VW553/GD32VW55X_Wifi_BLE_SDK/GD32VW55x_RELEASE_V1.0.2/MSDK/ble/app\app_per_sync_mgr.c **** */
 167:C:/Users/stapi/OneDrive/Desktop/GD32VW553/GD32VW55X_Wifi_BLE_SDK/GD32VW55x_RELEASE_V1.0.2/MSDK/ble/app\app_per_sync_mgr.c **** per_dev_info_t *ble_per_sync_mgr_find_device(ble_gap_addr_t *p_peer_addr, uint8_t adv_sid)
 168:C:/Users/stapi/OneDrive/Desktop/GD32VW553/GD32VW55X_Wifi_BLE_SDK/GD32VW55x_RELEASE_V1.0.2/MSDK/ble/app\app_per_sync_mgr.c **** {
 140              		.loc 1 168 1
 141              		.cfi_startproc
 142              	.LVL20:
 143 0000 17030000 		call	t0,__riscv_save_6
 143      E7020300 
 144              		.cfi_offset 21, -28
 145              		.cfi_offset 20, -24
 146              		.cfi_offset 19, -20
 147              		.cfi_offset 18, -16
 148              		.cfi_offset 9, -12
 149              		.cfi_offset 8, -8
 150              		.cfi_offset 1, -4
 151              		.cfi_def_cfa_offset 32
 169:C:/Users/stapi/OneDrive/Desktop/GD32VW553/GD32VW55X_Wifi_BLE_SDK/GD32VW55x_RELEASE_V1.0.2/MSDK/ble/app\app_per_sync_mgr.c ****     per_dev_info_t *p_sync_dev = NULL;
 152              		.loc 1 169 5
 153              	.LVL21:
 170:C:/Users/stapi/OneDrive/Desktop/GD32VW553/GD32VW55X_Wifi_BLE_SDK/GD32VW55x_RELEASE_V1.0.2/MSDK/ble/app\app_per_sync_mgr.c ****     dlist_t *pos, *n;
 154              		.loc 1 170 5
 171:C:/Users/stapi/OneDrive/Desktop/GD32VW553/GD32VW55X_Wifi_BLE_SDK/GD32VW55x_RELEASE_V1.0.2/MSDK/ble/app\app_per_sync_mgr.c **** 
 172:C:/Users/stapi/OneDrive/Desktop/GD32VW553/GD32VW55X_Wifi_BLE_SDK/GD32VW55x_RELEASE_V1.0.2/MSDK/ble/app\app_per_sync_mgr.c ****     if (list_empty(&ble_sync_mgr_cb.devs_list)) {
 155              		.loc 1 172 5
 156              		.loc 1 172 9 is_stmt 0
 157 0008 B7040000 		lui	s1,%hi(.LANCHOR0)
 168:C:/Users/stapi/OneDrive/Desktop/GD32VW553/GD32VW55X_Wifi_BLE_SDK/GD32VW55x_RELEASE_V1.0.2/MSDK/ble/app\app_per_sync_mgr.c ****     per_dev_info_t *p_sync_dev = NULL;
 158              		.loc 1 168 1
 159 000c 2A89     		mv	s2,a0
 160              		.loc 1 172 9
 161 000e 13850400 		addi	a0,s1,%lo(.LANCHOR0)
 162              	.LVL22:
 168:C:/Users/stapi/OneDrive/Desktop/GD32VW553/GD32VW55X_Wifi_BLE_SDK/GD32VW55x_RELEASE_V1.0.2/MSDK/ble/app\app_per_sync_mgr.c ****     per_dev_info_t *p_sync_dev = NULL;
 163              		.loc 1 168 1
 164 0012 2E8A     		mv	s4,a1
 165              		.loc 1 172 9
 166 0014 97000000 		call	list_empty
 166      E7800000 
 167              	.LVL23:
 168              		.loc 1 172 8
 169 001c 11E9     		bne	a0,zero,.L18
 170 001e 93840400 		addi	s1,s1,%lo(.LANCHOR0)
 173:C:/Users/stapi/OneDrive/Desktop/GD32VW553/GD32VW55X_Wifi_BLE_SDK/GD32VW55x_RELEASE_V1.0.2/MSDK/ble/app\app_per_sync_mgr.c ****         return NULL;
 174:C:/Users/stapi/OneDrive/Desktop/GD32VW553/GD32VW55X_Wifi_BLE_SDK/GD32VW55x_RELEASE_V1.0.2/MSDK/ble/app\app_per_sync_mgr.c ****     }
 175:C:/Users/stapi/OneDrive/Desktop/GD32VW553/GD32VW55X_Wifi_BLE_SDK/GD32VW55x_RELEASE_V1.0.2/MSDK/ble/app\app_per_sync_mgr.c **** 
 176:C:/Users/stapi/OneDrive/Desktop/GD32VW553/GD32VW55X_Wifi_BLE_SDK/GD32VW55x_RELEASE_V1.0.2/MSDK/ble/app\app_per_sync_mgr.c ****     list_for_each_safe(pos, n, &ble_sync_mgr_cb.devs_list) {
 171              		.loc 1 176 5 is_stmt 1
 172 0022 8040     		lw	s0,0(s1)
 173              	.LVL24:
 177:C:/Users/stapi/OneDrive/Desktop/GD32VW553/GD32VW55X_Wifi_BLE_SDK/GD32VW55x_RELEASE_V1.0.2/MSDK/ble/app\app_per_sync_mgr.c ****         p_sync_dev = list_entry(pos, per_dev_info_t, list);
 178:C:/Users/stapi/OneDrive/Desktop/GD32VW553/GD32VW55X_Wifi_BLE_SDK/GD32VW55x_RELEASE_V1.0.2/MSDK/ble/app\app_per_sync_mgr.c ****         if (p_peer_addr->addr_type == p_sync_dev->sync_info.addr_type &&
 179:C:/Users/stapi/OneDrive/Desktop/GD32VW553/GD32VW55X_Wifi_BLE_SDK/GD32VW55x_RELEASE_V1.0.2/MSDK/ble/app\app_per_sync_mgr.c ****             adv_sid == p_sync_dev->sync_info.adv_sid &&
 180:C:/Users/stapi/OneDrive/Desktop/GD32VW553/GD32VW55X_Wifi_BLE_SDK/GD32VW55x_RELEASE_V1.0.2/MSDK/ble/app\app_per_sync_mgr.c ****             !memcmp(p_peer_addr->addr, p_sync_dev->sync_info.addr, BLE_GAP_ADDR_LEN)) {
 174              		.loc 1 180 14 is_stmt 0
 175 0024 930A1900 		addi	s5,s2,1
 176:C:/Users/stapi/OneDrive/Desktop/GD32VW553/GD32VW55X_Wifi_BLE_SDK/GD32VW55x_RELEASE_V1.0.2/MSDK/ble/app\app_per_sync_mgr.c ****         p_sync_dev = list_entry(pos, per_dev_info_t, list);
 176              		.loc 1 176 5
 177 0028 83290400 		lw	s3,0(s0)
 178              	.LVL25:
 179              	.L15:
 176:C:/Users/stapi/OneDrive/Desktop/GD32VW553/GD32VW55X_Wifi_BLE_SDK/GD32VW55x_RELEASE_V1.0.2/MSDK/ble/app\app_per_sync_mgr.c ****         p_sync_dev = list_entry(pos, per_dev_info_t, list);
 180              		.loc 1 176 5 is_stmt 1 discriminator 1
 181 002c 63189400 		bne	s0,s1,.L17
 182              	.LVL26:
 183              	.L18:
 173:C:/Users/stapi/OneDrive/Desktop/GD32VW553/GD32VW55X_Wifi_BLE_SDK/GD32VW55x_RELEASE_V1.0.2/MSDK/ble/app\app_per_sync_mgr.c ****         return NULL;
 184              		.loc 1 173 16 is_stmt 0
 185 0030 0144     		li	s0,0
 186              	.L13:
 181:C:/Users/stapi/OneDrive/Desktop/GD32VW553/GD32VW55X_Wifi_BLE_SDK/GD32VW55x_RELEASE_V1.0.2/MSDK/ble/app\app_per_sync_mgr.c ****             return p_sync_dev;
 182:C:/Users/stapi/OneDrive/Desktop/GD32VW553/GD32VW55X_Wifi_BLE_SDK/GD32VW55x_RELEASE_V1.0.2/MSDK/ble/app\app_per_sync_mgr.c ****         }
 183:C:/Users/stapi/OneDrive/Desktop/GD32VW553/GD32VW55X_Wifi_BLE_SDK/GD32VW55x_RELEASE_V1.0.2/MSDK/ble/app\app_per_sync_mgr.c ****     }
 184:C:/Users/stapi/OneDrive/Desktop/GD32VW553/GD32VW55X_Wifi_BLE_SDK/GD32VW55x_RELEASE_V1.0.2/MSDK/ble/app\app_per_sync_mgr.c **** 
 185:C:/Users/stapi/OneDrive/Desktop/GD32VW553/GD32VW55X_Wifi_BLE_SDK/GD32VW55x_RELEASE_V1.0.2/MSDK/ble/app\app_per_sync_mgr.c ****     return NULL;
 186:C:/Users/stapi/OneDrive/Desktop/GD32VW553/GD32VW55X_Wifi_BLE_SDK/GD32VW55x_RELEASE_V1.0.2/MSDK/ble/app\app_per_sync_mgr.c **** }
 187              		.loc 1 186 1
 188 0032 2285     		mv	a0,s0
 189 0034 17030000 		tail	__riscv_restore_6
 189      67000300 
 190              		.cfi_remember_state
 191              		.cfi_restore 21
 192              		.cfi_restore 20
 193              		.cfi_restore 19
 194              		.cfi_restore 18
 195              		.cfi_restore 9
 196              		.cfi_restore 8
 197              		.cfi_restore 1
 198              		.cfi_def_cfa_offset 0
 199              	.LVL27:
 200              	.L17:
 201              		.cfi_restore_state
 177:C:/Users/stapi/OneDrive/Desktop/GD32VW553/GD32VW55X_Wifi_BLE_SDK/GD32VW55x_RELEASE_V1.0.2/MSDK/ble/app\app_per_sync_mgr.c ****         if (p_peer_addr->addr_type == p_sync_dev->sync_info.addr_type &&
 202              		.loc 1 177 9 is_stmt 1
 178:C:/Users/stapi/OneDrive/Desktop/GD32VW553/GD32VW55X_Wifi_BLE_SDK/GD32VW55x_RELEASE_V1.0.2/MSDK/ble/app\app_per_sync_mgr.c ****             adv_sid == p_sync_dev->sync_info.adv_sid &&
 203              		.loc 1 178 9
 178:C:/Users/stapi/OneDrive/Desktop/GD32VW553/GD32VW55X_Wifi_BLE_SDK/GD32VW55x_RELEASE_V1.0.2/MSDK/ble/app\app_per_sync_mgr.c ****             adv_sid == p_sync_dev->sync_info.adv_sid &&
 204              		.loc 1 178 12 is_stmt 0
 205 003c 03470900 		lbu	a4,0(s2)
 206 0040 83476401 		lbu	a5,22(s0)
 207 0044 631FF700 		bne	a4,a5,.L16
 178:C:/Users/stapi/OneDrive/Desktop/GD32VW553/GD32VW55X_Wifi_BLE_SDK/GD32VW55x_RELEASE_V1.0.2/MSDK/ble/app\app_per_sync_mgr.c ****             adv_sid == p_sync_dev->sync_info.adv_sid &&
 208              		.loc 1 178 71 discriminator 1
 209 0048 83477401 		lbu	a5,23(s0)
 210 004c 639B4701 		bne	a5,s4,.L16
 180:C:/Users/stapi/OneDrive/Desktop/GD32VW553/GD32VW55X_Wifi_BLE_SDK/GD32VW55x_RELEASE_V1.0.2/MSDK/ble/app\app_per_sync_mgr.c ****             return p_sync_dev;
 211              		.loc 1 180 14
 212 0050 1946     		li	a2,6
 213 0052 93050401 		addi	a1,s0,16
 214 0056 5685     		mv	a0,s5
 215 0058 97000000 		call	memcmp
 215      E7800000 
 216              	.LVL28:
 179:C:/Users/stapi/OneDrive/Desktop/GD32VW553/GD32VW55X_Wifi_BLE_SDK/GD32VW55x_RELEASE_V1.0.2/MSDK/ble/app\app_per_sync_mgr.c ****             !memcmp(p_peer_addr->addr, p_sync_dev->sync_info.addr, BLE_GAP_ADDR_LEN)) {
 217              		.loc 1 179 54
 218 0060 69D9     		beq	a0,zero,.L13
 219              	.L16:
 176:C:/Users/stapi/OneDrive/Desktop/GD32VW553/GD32VW55X_Wifi_BLE_SDK/GD32VW55x_RELEASE_V1.0.2/MSDK/ble/app\app_per_sync_mgr.c ****         p_sync_dev = list_entry(pos, per_dev_info_t, list);
 220              		.loc 1 176 5 is_stmt 1 discriminator 2
 221              	.LVL29:
 222 0062 4E84     		mv	s0,s3
 223              	.LVL30:
 224 0064 83A90900 		lw	s3,0(s3)
 225              	.LVL31:
 226 0068 D1B7     		j	.L15
 227              		.cfi_endproc
 228              	.LFE4:
 230              		.section	.text.ble_per_sync_mgr_find_alloc_device,"ax",@progbits
 231              		.align	1
 232              		.globl	ble_per_sync_mgr_find_alloc_device
 234              	ble_per_sync_mgr_find_alloc_device:
 235              	.LFB5:
 187:C:/Users/stapi/OneDrive/Desktop/GD32VW553/GD32VW55X_Wifi_BLE_SDK/GD32VW55x_RELEASE_V1.0.2/MSDK/ble/app\app_per_sync_mgr.c **** 
 188:C:/Users/stapi/OneDrive/Desktop/GD32VW553/GD32VW55X_Wifi_BLE_SDK/GD32VW55x_RELEASE_V1.0.2/MSDK/ble/app\app_per_sync_mgr.c **** /*!
 189:C:/Users/stapi/OneDrive/Desktop/GD32VW553/GD32VW55X_Wifi_BLE_SDK/GD32VW55x_RELEASE_V1.0.2/MSDK/ble/app\app_per_sync_mgr.c ****     \brief      Find device in periodic sync manager list, if no such device, allocate one
 190:C:/Users/stapi/OneDrive/Desktop/GD32VW553/GD32VW55X_Wifi_BLE_SDK/GD32VW55x_RELEASE_V1.0.2/MSDK/ble/app\app_per_sync_mgr.c ****     \param[in]  p_peer_addr: pointer to peer address
 191:C:/Users/stapi/OneDrive/Desktop/GD32VW553/GD32VW55X_Wifi_BLE_SDK/GD32VW55x_RELEASE_V1.0.2/MSDK/ble/app\app_per_sync_mgr.c ****     \param[in]  adv_sid: advertising sid
 192:C:/Users/stapi/OneDrive/Desktop/GD32VW553/GD32VW55X_Wifi_BLE_SDK/GD32VW55x_RELEASE_V1.0.2/MSDK/ble/app\app_per_sync_mgr.c ****     \param[in]  period_adv_intv: periodic advertising interval
 193:C:/Users/stapi/OneDrive/Desktop/GD32VW553/GD32VW55X_Wifi_BLE_SDK/GD32VW55x_RELEASE_V1.0.2/MSDK/ble/app\app_per_sync_mgr.c ****     \param[out] none
 194:C:/Users/stapi/OneDrive/Desktop/GD32VW553/GD32VW55X_Wifi_BLE_SDK/GD32VW55x_RELEASE_V1.0.2/MSDK/ble/app\app_per_sync_mgr.c ****     \retval     per_dev_info_t *: pointer to periodic sync device information found or allocated
 195:C:/Users/stapi/OneDrive/Desktop/GD32VW553/GD32VW55X_Wifi_BLE_SDK/GD32VW55x_RELEASE_V1.0.2/MSDK/ble/app\app_per_sync_mgr.c **** */
 196:C:/Users/stapi/OneDrive/Desktop/GD32VW553/GD32VW55X_Wifi_BLE_SDK/GD32VW55x_RELEASE_V1.0.2/MSDK/ble/app\app_per_sync_mgr.c **** per_dev_info_t *ble_per_sync_mgr_find_alloc_device(ble_gap_addr_t *p_peer_addr, uint8_t adv_sid,
 197:C:/Users/stapi/OneDrive/Desktop/GD32VW553/GD32VW55X_Wifi_BLE_SDK/GD32VW55x_RELEASE_V1.0.2/MSDK/ble/app\app_per_sync_mgr.c ****                                                    uint16_t period_adv_intv)
 198:C:/Users/stapi/OneDrive/Desktop/GD32VW553/GD32VW55X_Wifi_BLE_SDK/GD32VW55x_RELEASE_V1.0.2/MSDK/ble/app\app_per_sync_mgr.c **** {
 236              		.loc 1 198 1
 237              		.cfi_startproc
 238              	.LVL32:
 239 0000 17030000 		call	t0,__riscv_save_4
 239      E7020300 
 240              		.cfi_offset 19, -20
 241              		.cfi_offset 18, -16
 242              		.cfi_offset 9, -12
 243              		.cfi_offset 8, -8
 244              		.cfi_offset 1, -4
 245              		.cfi_def_cfa_offset 32
 199:C:/Users/stapi/OneDrive/Desktop/GD32VW553/GD32VW55X_Wifi_BLE_SDK/GD32VW55x_RELEASE_V1.0.2/MSDK/ble/app\app_per_sync_mgr.c ****     per_dev_info_t *p_sync_dev = ble_per_sync_mgr_find_device(p_peer_addr, adv_sid);
 246              		.loc 1 199 5
 198:C:/Users/stapi/OneDrive/Desktop/GD32VW553/GD32VW55X_Wifi_BLE_SDK/GD32VW55x_RELEASE_V1.0.2/MSDK/ble/app\app_per_sync_mgr.c ****     per_dev_info_t *p_sync_dev = ble_per_sync_mgr_find_device(p_peer_addr, adv_sid);
 247              		.loc 1 198 1 is_stmt 0
 248 0008 AA84     		mv	s1,a0
 249 000a AE89     		mv	s3,a1
 250 000c 3289     		mv	s2,a2
 251              		.loc 1 199 34
 252 000e 97000000 		call	ble_per_sync_mgr_find_device
 252      E7800000 
 253              	.LVL33:
 254 0016 2A84     		mv	s0,a0
 255              	.LVL34:
 200:C:/Users/stapi/OneDrive/Desktop/GD32VW553/GD32VW55X_Wifi_BLE_SDK/GD32VW55x_RELEASE_V1.0.2/MSDK/ble/app\app_per_sync_mgr.c **** 
 201:C:/Users/stapi/OneDrive/Desktop/GD32VW553/GD32VW55X_Wifi_BLE_SDK/GD32VW55x_RELEASE_V1.0.2/MSDK/ble/app\app_per_sync_mgr.c ****     if (p_sync_dev != NULL) {
 256              		.loc 1 201 5 is_stmt 1
 257              		.loc 1 201 8 is_stmt 0
 258 0018 39E9     		bne	a0,zero,.L23
 259              	.LVL35:
 260              	.LBB4:
 261              	.LBB5:
 202:C:/Users/stapi/OneDrive/Desktop/GD32VW553/GD32VW55X_Wifi_BLE_SDK/GD32VW55x_RELEASE_V1.0.2/MSDK/ble/app\app_per_sync_mgr.c ****         return p_sync_dev;
 203:C:/Users/stapi/OneDrive/Desktop/GD32VW553/GD32VW55X_Wifi_BLE_SDK/GD32VW55x_RELEASE_V1.0.2/MSDK/ble/app\app_per_sync_mgr.c ****     }
 204:C:/Users/stapi/OneDrive/Desktop/GD32VW553/GD32VW55X_Wifi_BLE_SDK/GD32VW55x_RELEASE_V1.0.2/MSDK/ble/app\app_per_sync_mgr.c **** 
 205:C:/Users/stapi/OneDrive/Desktop/GD32VW553/GD32VW55X_Wifi_BLE_SDK/GD32VW55x_RELEASE_V1.0.2/MSDK/ble/app\app_per_sync_mgr.c ****     p_sync_dev = (per_dev_info_t *)sys_malloc(sizeof(per_dev_info_t));
 262              		.loc 1 205 5 is_stmt 1
 263              		.loc 1 205 36 is_stmt 0
 264 001a 7145     		li	a0,28
 265 001c 97000000 		call	sys_malloc
 265      E7800000 
 266              	.LVL36:
 267 0024 2A84     		mv	s0,a0
 268              	.LVL37:
 206:C:/Users/stapi/OneDrive/Desktop/GD32VW553/GD32VW55X_Wifi_BLE_SDK/GD32VW55x_RELEASE_V1.0.2/MSDK/ble/app\app_per_sync_mgr.c ****     if (p_sync_dev) {
 269              		.loc 1 206 5 is_stmt 1
 270              		.loc 1 206 8 is_stmt 0
 271 0026 21C5     		beq	a0,zero,.L23
 207:C:/Users/stapi/OneDrive/Desktop/GD32VW553/GD32VW55X_Wifi_BLE_SDK/GD32VW55x_RELEASE_V1.0.2/MSDK/ble/app\app_per_sync_mgr.c ****         memset(p_sync_dev, 0, sizeof(per_dev_info_t));
 272              		.loc 1 207 9 is_stmt 1
 273 0028 5146     		li	a2,20
 274 002a 8145     		li	a1,0
 275 002c 2105     		addi	a0,a0,8
 276 002e 97000000 		call	memset
 276      E7800000 
 277              	.LVL38:
 208:C:/Users/stapi/OneDrive/Desktop/GD32VW553/GD32VW55X_Wifi_BLE_SDK/GD32VW55x_RELEASE_V1.0.2/MSDK/ble/app\app_per_sync_mgr.c ****         INIT_DLIST_HEAD(&p_sync_dev->list);
 278              		.loc 1 208 9
 279              		.loc 1 208 9
 280 0036 00C0     		sw	s0,0(s0)
 281              		.loc 1 208 9
 282 0038 40C0     		sw	s0,4(s0)
 283              		.loc 1 208 9
 209:C:/Users/stapi/OneDrive/Desktop/GD32VW553/GD32VW55X_Wifi_BLE_SDK/GD32VW55x_RELEASE_V1.0.2/MSDK/ble/app\app_per_sync_mgr.c ****         p_sync_dev->sync_info.addr_type = p_peer_addr->addr_type;
 284              		.loc 1 209 9
 285              		.loc 1 209 41 is_stmt 0
 286 003a 83C70400 		lbu	a5,0(s1)
 210:C:/Users/stapi/OneDrive/Desktop/GD32VW553/GD32VW55X_Wifi_BLE_SDK/GD32VW55x_RELEASE_V1.0.2/MSDK/ble/app\app_per_sync_mgr.c ****         memcpy(p_sync_dev->sync_info.addr, p_peer_addr->addr, BLE_GAP_ADDR_LEN);
 287              		.loc 1 210 9
 288 003e 93851400 		addi	a1,s1,1
 289 0042 1946     		li	a2,6
 209:C:/Users/stapi/OneDrive/Desktop/GD32VW553/GD32VW55X_Wifi_BLE_SDK/GD32VW55x_RELEASE_V1.0.2/MSDK/ble/app\app_per_sync_mgr.c ****         p_sync_dev->sync_info.addr_type = p_peer_addr->addr_type;
 290              		.loc 1 209 41
 291 0044 230BF400 		sb	a5,22(s0)
 292              		.loc 1 210 9 is_stmt 1
 293 0048 13050401 		addi	a0,s0,16
 294 004c 97000000 		call	memcpy
 294      E7800000 
 295              	.LVL39:
 211:C:/Users/stapi/OneDrive/Desktop/GD32VW553/GD32VW55X_Wifi_BLE_SDK/GD32VW55x_RELEASE_V1.0.2/MSDK/ble/app\app_per_sync_mgr.c ****         p_sync_dev->sync_info.adv_sid = adv_sid;
 296              		.loc 1 211 9
 212:C:/Users/stapi/OneDrive/Desktop/GD32VW553/GD32VW55X_Wifi_BLE_SDK/GD32VW55x_RELEASE_V1.0.2/MSDK/ble/app\app_per_sync_mgr.c ****         p_sync_dev->period_adv_intv = period_adv_intv;
 213:C:/Users/stapi/OneDrive/Desktop/GD32VW553/GD32VW55X_Wifi_BLE_SDK/GD32VW55x_RELEASE_V1.0.2/MSDK/ble/app\app_per_sync_mgr.c ****         list_add_tail(&p_sync_dev->list, &ble_sync_mgr_cb.devs_list);
 297              		.loc 1 213 9 is_stmt 0
 298 0054 B7050000 		lui	a1,%hi(.LANCHOR0)
 211:C:/Users/stapi/OneDrive/Desktop/GD32VW553/GD32VW55X_Wifi_BLE_SDK/GD32VW55x_RELEASE_V1.0.2/MSDK/ble/app\app_per_sync_mgr.c ****         p_sync_dev->sync_info.adv_sid = adv_sid;
 299              		.loc 1 211 39
 300 0058 A30B3401 		sb	s3,23(s0)
 212:C:/Users/stapi/OneDrive/Desktop/GD32VW553/GD32VW55X_Wifi_BLE_SDK/GD32VW55x_RELEASE_V1.0.2/MSDK/ble/app\app_per_sync_mgr.c ****         p_sync_dev->period_adv_intv = period_adv_intv;
 301              		.loc 1 212 9 is_stmt 1
 212:C:/Users/stapi/OneDrive/Desktop/GD32VW553/GD32VW55X_Wifi_BLE_SDK/GD32VW55x_RELEASE_V1.0.2/MSDK/ble/app\app_per_sync_mgr.c ****         p_sync_dev->period_adv_intv = period_adv_intv;
 302              		.loc 1 212 37 is_stmt 0
 303 005c 23162401 		sh	s2,12(s0)
 304              		.loc 1 213 9 is_stmt 1
 305 0060 93850500 		addi	a1,a1,%lo(.LANCHOR0)
 306 0064 2285     		mv	a0,s0
 307 0066 97000000 		call	list_add_tail
 307      E7800000 
 308              	.LVL40:
 309              	.L23:
 310              	.LBE5:
 311              	.LBE4:
 214:C:/Users/stapi/OneDrive/Desktop/GD32VW553/GD32VW55X_Wifi_BLE_SDK/GD32VW55x_RELEASE_V1.0.2/MSDK/ble/app\app_per_sync_mgr.c ****     }
 215:C:/Users/stapi/OneDrive/Desktop/GD32VW553/GD32VW55X_Wifi_BLE_SDK/GD32VW55x_RELEASE_V1.0.2/MSDK/ble/app\app_per_sync_mgr.c ****     return p_sync_dev;
 216:C:/Users/stapi/OneDrive/Desktop/GD32VW553/GD32VW55X_Wifi_BLE_SDK/GD32VW55x_RELEASE_V1.0.2/MSDK/ble/app\app_per_sync_mgr.c **** }
 312              		.loc 1 216 1 is_stmt 0
 313 006e 2285     		mv	a0,s0
 314 0070 17030000 		tail	__riscv_restore_4
 314      67000300 
 315              		.cfi_restore 19
 316              		.cfi_restore 18
 317              		.cfi_restore 9
 318              		.cfi_restore 8
 319              		.cfi_restore 1
 320              		.cfi_def_cfa_offset 0
 321              		.cfi_endproc
 322              	.LFE5:
 324              		.section	.rodata.ble_per_sync_evt_handler.str1.4,"aMS",@progbits,1
 325              		.align	2
 326              	.LC0:
 327 0000 70657269 		.string	"periodic sync idx %u, state %u \r\n"
 327      6F646963 
 327      2073796E 
 327      63206964 
 327      78202575 
 328 0022 0000     		.align	2
 329              	.LC1:
 330 0024 70657269 		.string	"periodic device synced. sync idx %u, addr %02X:%02X:%02X:%02X:%02X:%02X \r\n"
 330      6F646963 
 330      20646576 
 330      69636520 
 330      73796E63 
 331 006f 00       		.align	2
 332              	.LC2:
 333 0070 70657269 		.string	"periodic device reported, addr %02X:%02X:%02X:%02X:%02X:%02X \r\n"
 333      6F646963 
 333      20646576 
 333      69636520 
 333      7265706F 
 334              		.align	2
 335              	.LC3:
 336 00b0 70657269 		.string	"periodic device report ctrl status 0x%x \r\n"
 336      6F646963 
 336      20646576 
 336      69636520 
 336      7265706F 
 337              		.section	.text.ble_per_sync_evt_handler,"ax",@progbits
 338              		.align	1
 340              	ble_per_sync_evt_handler:
 341              	.LFB2:
  87:C:/Users/stapi/OneDrive/Desktop/GD32VW553/GD32VW55X_Wifi_BLE_SDK/GD32VW55x_RELEASE_V1.0.2/MSDK/ble/app\app_per_sync_mgr.c ****     per_dev_info_t *p_sync_dev = NULL;
 342              		.loc 1 87 1 is_stmt 1
 343              		.cfi_startproc
 344              	.LVL41:
 345 0000 17030000 		call	t0,__riscv_save_2
 345      E7020300 
 346              		.cfi_offset 9, -12
 347              		.cfi_offset 8, -8
 348              		.cfi_offset 1, -4
 349              		.cfi_def_cfa_offset 16
  88:C:/Users/stapi/OneDrive/Desktop/GD32VW553/GD32VW55X_Wifi_BLE_SDK/GD32VW55x_RELEASE_V1.0.2/MSDK/ble/app\app_per_sync_mgr.c ****     switch (event) {
 350              		.loc 1 88 5
 351              	.LVL42:
  89:C:/Users/stapi/OneDrive/Desktop/GD32VW553/GD32VW55X_Wifi_BLE_SDK/GD32VW55x_RELEASE_V1.0.2/MSDK/ble/app\app_per_sync_mgr.c ****     case BLE_PER_SYNC_EVT_STATE_CHG:
 352              		.loc 1 89 5
 353 0008 8944     		li	s1,2
  87:C:/Users/stapi/OneDrive/Desktop/GD32VW553/GD32VW55X_Wifi_BLE_SDK/GD32VW55x_RELEASE_V1.0.2/MSDK/ble/app\app_per_sync_mgr.c ****     per_dev_info_t *p_sync_dev = NULL;
 354              		.loc 1 87 1 is_stmt 0
 355 000a 2E84     		mv	s0,a1
  89:C:/Users/stapi/OneDrive/Desktop/GD32VW553/GD32VW55X_Wifi_BLE_SDK/GD32VW55x_RELEASE_V1.0.2/MSDK/ble/app\app_per_sync_mgr.c ****     case BLE_PER_SYNC_EVT_STATE_CHG:
 356              		.loc 1 89 5
 357 000c 630E9502 		beq	a0,s1,.L30
 358 0010 63E5A402 		bgtu	a0,s1,.L31
 359 0014 55E1     		bne	a0,zero,.L48
  91:C:/Users/stapi/OneDrive/Desktop/GD32VW553/GD32VW55X_Wifi_BLE_SDK/GD32VW55x_RELEASE_V1.0.2/MSDK/ble/app\app_per_sync_mgr.c ****                p_data->sync_state.state);
 360              		.loc 1 91 9 is_stmt 1
  91:C:/Users/stapi/OneDrive/Desktop/GD32VW553/GD32VW55X_Wifi_BLE_SDK/GD32VW55x_RELEASE_V1.0.2/MSDK/ble/app\app_per_sync_mgr.c ****                p_data->sync_state.state);
 361              		.loc 1 91 9
 362 0016 B7070000 		lui	a5,%hi(global_debug_level)
 363 001a 83C70700 		lbu	a5,%lo(global_debug_level)(a5)
 364 001e 63F1F402 		bleu	a5,s1,.L29
  91:C:/Users/stapi/OneDrive/Desktop/GD32VW553/GD32VW55X_Wifi_BLE_SDK/GD32VW55x_RELEASE_V1.0.2/MSDK/ble/app\app_per_sync_mgr.c ****                p_data->sync_state.state);
 365              		.loc 1 91 9 discriminator 1
 366 0022 D041     		lw	a2,4(a1)
 367 0024 83C50500 		lbu	a1,0(a1)
 368              	.LVL43:
 369 0028 37050000 		lui	a0,%hi(.LC0)
 370              	.LVL44:
 371 002c 13050500 		addi	a0,a0,%lo(.LC0)
 372 0030 97000000 		call	co_printf
 372      E7800000 
 373              	.LVL45:
 374 0038 21A0     		j	.L29
 375              	.LVL46:
 376              	.L31:
  89:C:/Users/stapi/OneDrive/Desktop/GD32VW553/GD32VW55X_Wifi_BLE_SDK/GD32VW55x_RELEASE_V1.0.2/MSDK/ble/app\app_per_sync_mgr.c ****     case BLE_PER_SYNC_EVT_STATE_CHG:
 377              		.loc 1 89 5 is_stmt 0
 378 003a 8D47     		li	a5,3
 379 003c 6301F50C 		beq	a0,a5,.L34
 380              	.LVL47:
 381              	.L29:
 137:C:/Users/stapi/OneDrive/Desktop/GD32VW553/GD32VW55X_Wifi_BLE_SDK/GD32VW55x_RELEASE_V1.0.2/MSDK/ble/app\app_per_sync_mgr.c **** 
 382              		.loc 1 137 1
 383 0040 17030000 		tail	__riscv_restore_2
 383      67000300 
 384              		.cfi_remember_state
 385              		.cfi_restore 9
 386              		.cfi_restore 8
 387              		.cfi_restore 1
 388              		.cfi_def_cfa_offset 0
 389              	.LVL48:
 390              	.L30:
 391              		.cfi_restore_state
  96:C:/Users/stapi/OneDrive/Desktop/GD32VW553/GD32VW55X_Wifi_BLE_SDK/GD32VW55x_RELEASE_V1.0.2/MSDK/ble/app\app_per_sync_mgr.c ****                p_data->establish.param.actv_idx, p_data->establish.param.addr.addr[5],
 392              		.loc 1 96 9 is_stmt 1
  96:C:/Users/stapi/OneDrive/Desktop/GD32VW553/GD32VW55X_Wifi_BLE_SDK/GD32VW55x_RELEASE_V1.0.2/MSDK/ble/app\app_per_sync_mgr.c ****                p_data->establish.param.actv_idx, p_data->establish.param.addr.addr[5],
 393              		.loc 1 96 9
 394 0048 B7070000 		lui	a5,%hi(global_debug_level)
 395 004c 83C70700 		lbu	a5,%lo(global_debug_level)(a5)
 396 0050 6378F502 		bleu	a5,a0,.L37
  96:C:/Users/stapi/OneDrive/Desktop/GD32VW553/GD32VW55X_Wifi_BLE_SDK/GD32VW55x_RELEASE_V1.0.2/MSDK/ble/app\app_per_sync_mgr.c ****                p_data->establish.param.actv_idx, p_data->establish.param.addr.addr[5],
 397              		.loc 1 96 9 discriminator 1
 398 0054 83C87500 		lbu	a7,7(a1)
 399 0058 03C88500 		lbu	a6,8(a1)
 400 005c 83C79500 		lbu	a5,9(a1)
 401 0060 03C7A500 		lbu	a4,10(a1)
 402 0064 83C6B500 		lbu	a3,11(a1)
 403 0068 03C6C500 		lbu	a2,12(a1)
 404 006c 83C50500 		lbu	a1,0(a1)
 405 0070 37050000 		lui	a0,%hi(.LC1)
 406              	.LVL49:
 407 0074 13050500 		addi	a0,a0,%lo(.LC1)
 408 0078 97000000 		call	co_printf
 408      E7800000 
 409              	.LVL50:
 410              	.L37:
  96:C:/Users/stapi/OneDrive/Desktop/GD32VW553/GD32VW55X_Wifi_BLE_SDK/GD32VW55x_RELEASE_V1.0.2/MSDK/ble/app\app_per_sync_mgr.c ****                p_data->establish.param.actv_idx, p_data->establish.param.addr.addr[5],
 411              		.loc 1 96 9 discriminator 3
 101:C:/Users/stapi/OneDrive/Desktop/GD32VW553/GD32VW55X_Wifi_BLE_SDK/GD32VW55x_RELEASE_V1.0.2/MSDK/ble/app\app_per_sync_mgr.c ****                                                         p_data->establish.param.adv_sid,
 412              		.loc 1 101 9 discriminator 3
 101:C:/Users/stapi/OneDrive/Desktop/GD32VW553/GD32VW55X_Wifi_BLE_SDK/GD32VW55x_RELEASE_V1.0.2/MSDK/ble/app\app_per_sync_mgr.c ****                                                         p_data->establish.param.adv_sid,
 413              		.loc 1 101 22 is_stmt 0 discriminator 3
 414 0080 03562400 		lhu	a2,2(s0)
 415 0084 83454400 		lbu	a1,4(s0)
 416 0088 13056400 		addi	a0,s0,6
 417 008c 97000000 		call	ble_per_sync_mgr_find_alloc_device
 417      E7800000 
 418              	.LVL51:
 104:C:/Users/stapi/OneDrive/Desktop/GD32VW553/GD32VW55X_Wifi_BLE_SDK/GD32VW55x_RELEASE_V1.0.2/MSDK/ble/app\app_per_sync_mgr.c ****             p_sync_dev->sync_idx = p_data->establish.param.actv_idx;
 419              		.loc 1 104 9 is_stmt 1 discriminator 3
 104:C:/Users/stapi/OneDrive/Desktop/GD32VW553/GD32VW55X_Wifi_BLE_SDK/GD32VW55x_RELEASE_V1.0.2/MSDK/ble/app\app_per_sync_mgr.c ****             p_sync_dev->sync_idx = p_data->establish.param.actv_idx;
 420              		.loc 1 104 12 is_stmt 0 discriminator 3
 421 0094 55D5     		beq	a0,zero,.L29
 105:C:/Users/stapi/OneDrive/Desktop/GD32VW553/GD32VW55X_Wifi_BLE_SDK/GD32VW55x_RELEASE_V1.0.2/MSDK/ble/app\app_per_sync_mgr.c ****             p_sync_dev->phy = p_data->establish.param.phy;
 422              		.loc 1 105 13 is_stmt 1
 105:C:/Users/stapi/OneDrive/Desktop/GD32VW553/GD32VW55X_Wifi_BLE_SDK/GD32VW55x_RELEASE_V1.0.2/MSDK/ble/app\app_per_sync_mgr.c ****             p_sync_dev->phy = p_data->establish.param.phy;
 423              		.loc 1 105 34 is_stmt 0
 424 0096 83470400 		lbu	a5,0(s0)
 425 009a 2304F500 		sb	a5,8(a0)
 106:C:/Users/stapi/OneDrive/Desktop/GD32VW553/GD32VW55X_Wifi_BLE_SDK/GD32VW55x_RELEASE_V1.0.2/MSDK/ble/app\app_per_sync_mgr.c ****             p_sync_dev->period_adv_intv = p_data->establish.param.intv;
 426              		.loc 1 106 13 is_stmt 1
 106:C:/Users/stapi/OneDrive/Desktop/GD32VW553/GD32VW55X_Wifi_BLE_SDK/GD32VW55x_RELEASE_V1.0.2/MSDK/ble/app\app_per_sync_mgr.c ****             p_sync_dev->period_adv_intv = p_data->establish.param.intv;
 427              		.loc 1 106 29 is_stmt 0
 428 009e 83471400 		lbu	a5,1(s0)
 429 00a2 2305F500 		sb	a5,10(a0)
 107:C:/Users/stapi/OneDrive/Desktop/GD32VW553/GD32VW55X_Wifi_BLE_SDK/GD32VW55x_RELEASE_V1.0.2/MSDK/ble/app\app_per_sync_mgr.c ****             p_sync_dev->serv_data = p_data->establish.param.serv_data;
 430              		.loc 1 107 13 is_stmt 1
 107:C:/Users/stapi/OneDrive/Desktop/GD32VW553/GD32VW55X_Wifi_BLE_SDK/GD32VW55x_RELEASE_V1.0.2/MSDK/ble/app\app_per_sync_mgr.c ****             p_sync_dev->serv_data = p_data->establish.param.serv_data;
 431              		.loc 1 107 41 is_stmt 0
 432 00a6 83572400 		lhu	a5,2(s0)
 433 00aa 2316F500 		sh	a5,12(a0)
 108:C:/Users/stapi/OneDrive/Desktop/GD32VW553/GD32VW55X_Wifi_BLE_SDK/GD32VW55x_RELEASE_V1.0.2/MSDK/ble/app\app_per_sync_mgr.c ****         }
 434              		.loc 1 108 13 is_stmt 1
 108:C:/Users/stapi/OneDrive/Desktop/GD32VW553/GD32VW55X_Wifi_BLE_SDK/GD32VW55x_RELEASE_V1.0.2/MSDK/ble/app\app_per_sync_mgr.c ****         }
 435              		.loc 1 108 35 is_stmt 0
 436 00ae 8357E400 		lhu	a5,14(s0)
 437 00b2 2317F500 		sh	a5,14(a0)
 438 00b6 69B7     		j	.L29
 439              	.LVL52:
 440              	.L48:
 441              	.LBB6:
 113:C:/Users/stapi/OneDrive/Desktop/GD32VW553/GD32VW55X_Wifi_BLE_SDK/GD32VW55x_RELEASE_V1.0.2/MSDK/ble/app\app_per_sync_mgr.c ****         p_sync_dev = sync_mgr_find_device_by_idx(p_report->actv_idx);
 442              		.loc 1 113 9 is_stmt 1
 114:C:/Users/stapi/OneDrive/Desktop/GD32VW553/GD32VW55X_Wifi_BLE_SDK/GD32VW55x_RELEASE_V1.0.2/MSDK/ble/app\app_per_sync_mgr.c **** 
 443              		.loc 1 114 9
 114:C:/Users/stapi/OneDrive/Desktop/GD32VW553/GD32VW55X_Wifi_BLE_SDK/GD32VW55x_RELEASE_V1.0.2/MSDK/ble/app\app_per_sync_mgr.c **** 
 444              		.loc 1 114 22 is_stmt 0
 445 00b8 9C41     		lw	a5,0(a1)
 446 00ba 03C50700 		lbu	a0,0(a5)
 447              	.LVL53:
 448 00be 97000000 		call	sync_mgr_find_device_by_idx
 448      E7800000 
 449              	.LVL54:
 116:C:/Users/stapi/OneDrive/Desktop/GD32VW553/GD32VW55X_Wifi_BLE_SDK/GD32VW55x_RELEASE_V1.0.2/MSDK/ble/app\app_per_sync_mgr.c ****             dbg_print(NOTICE, "periodic device reported, addr %02X:%02X:%02X:%02X:%02X:%02X \r\n",
 450              		.loc 1 116 9 is_stmt 1
 116:C:/Users/stapi/OneDrive/Desktop/GD32VW553/GD32VW55X_Wifi_BLE_SDK/GD32VW55x_RELEASE_V1.0.2/MSDK/ble/app\app_per_sync_mgr.c ****             dbg_print(NOTICE, "periodic device reported, addr %02X:%02X:%02X:%02X:%02X:%02X \r\n",
 451              		.loc 1 116 12 is_stmt 0
 452 00c6 2DDD     		beq	a0,zero,.L29
 117:C:/Users/stapi/OneDrive/Desktop/GD32VW553/GD32VW55X_Wifi_BLE_SDK/GD32VW55x_RELEASE_V1.0.2/MSDK/ble/app\app_per_sync_mgr.c ****                    p_sync_dev->sync_info.addr[5], p_sync_dev->sync_info.addr[4], p_sync_dev->sync_i
 453              		.loc 1 117 13 is_stmt 1
 117:C:/Users/stapi/OneDrive/Desktop/GD32VW553/GD32VW55X_Wifi_BLE_SDK/GD32VW55x_RELEASE_V1.0.2/MSDK/ble/app\app_per_sync_mgr.c ****                    p_sync_dev->sync_info.addr[5], p_sync_dev->sync_info.addr[4], p_sync_dev->sync_i
 454              		.loc 1 117 13
 455 00c8 B7070000 		lui	a5,%hi(global_debug_level)
 456 00cc 83C70700 		lbu	a5,%lo(global_debug_level)(a5)
 457 00d0 E3F8F4F6 		bleu	a5,s1,.L29
 117:C:/Users/stapi/OneDrive/Desktop/GD32VW553/GD32VW55X_Wifi_BLE_SDK/GD32VW55x_RELEASE_V1.0.2/MSDK/ble/app\app_per_sync_mgr.c ****                    p_sync_dev->sync_info.addr[5], p_sync_dev->sync_info.addr[4], p_sync_dev->sync_i
 458              		.loc 1 117 13 discriminator 1
 459 00d4 03480501 		lbu	a6,16(a0)
 460 00d8 83471501 		lbu	a5,17(a0)
 461 00dc 03472501 		lbu	a4,18(a0)
 462 00e0 83463501 		lbu	a3,19(a0)
 463 00e4 03464501 		lbu	a2,20(a0)
 464 00e8 83455501 		lbu	a1,21(a0)
 465 00ec 37050000 		lui	a0,%hi(.LC2)
 466              	.LVL55:
 467 00f0 13050500 		addi	a0,a0,%lo(.LC2)
 468 00f4 97000000 		call	co_printf
 468      E7800000 
 469              	.LVL56:
 470 00fc 91B7     		j	.L29
 471              	.LVL57:
 472              	.L34:
 473              	.LBE6:
 474              	.LBB7:
 125:C:/Users/stapi/OneDrive/Desktop/GD32VW553/GD32VW55X_Wifi_BLE_SDK/GD32VW55x_RELEASE_V1.0.2/MSDK/ble/app\app_per_sync_mgr.c ****         p_sync_dev = sync_mgr_find_device_by_idx(p_res->param.actv_idx);
 475              		.loc 1 125 9
 126:C:/Users/stapi/OneDrive/Desktop/GD32VW553/GD32VW55X_Wifi_BLE_SDK/GD32VW55x_RELEASE_V1.0.2/MSDK/ble/app\app_per_sync_mgr.c **** 
 476              		.loc 1 126 9
 126:C:/Users/stapi/OneDrive/Desktop/GD32VW553/GD32VW55X_Wifi_BLE_SDK/GD32VW55x_RELEASE_V1.0.2/MSDK/ble/app\app_per_sync_mgr.c **** 
 477              		.loc 1 126 22 is_stmt 0
 478 00fe 03C52500 		lbu	a0,2(a1)
 479              	.LVL58:
 480 0102 97000000 		call	sync_mgr_find_device_by_idx
 480      E7800000 
 481              	.LVL59:
 128:C:/Users/stapi/OneDrive/Desktop/GD32VW553/GD32VW55X_Wifi_BLE_SDK/GD32VW55x_RELEASE_V1.0.2/MSDK/ble/app\app_per_sync_mgr.c ****             dbg_print(NOTICE, "periodic device report ctrl status 0x%x \r\n", p_res->param.status);
 482              		.loc 1 128 9 is_stmt 1
 128:C:/Users/stapi/OneDrive/Desktop/GD32VW553/GD32VW55X_Wifi_BLE_SDK/GD32VW55x_RELEASE_V1.0.2/MSDK/ble/app\app_per_sync_mgr.c ****             dbg_print(NOTICE, "periodic device report ctrl status 0x%x \r\n", p_res->param.status);
 483              		.loc 1 128 12 is_stmt 0
 484 010a 1DD9     		beq	a0,zero,.L29
 129:C:/Users/stapi/OneDrive/Desktop/GD32VW553/GD32VW55X_Wifi_BLE_SDK/GD32VW55x_RELEASE_V1.0.2/MSDK/ble/app\app_per_sync_mgr.c ****         }
 485              		.loc 1 129 13 is_stmt 1
 129:C:/Users/stapi/OneDrive/Desktop/GD32VW553/GD32VW55X_Wifi_BLE_SDK/GD32VW55x_RELEASE_V1.0.2/MSDK/ble/app\app_per_sync_mgr.c ****         }
 486              		.loc 1 129 13
 487 010c B7070000 		lui	a5,%hi(global_debug_level)
 488 0110 83C70700 		lbu	a5,%lo(global_debug_level)(a5)
 489 0114 E3F6F4F2 		bleu	a5,s1,.L29
 129:C:/Users/stapi/OneDrive/Desktop/GD32VW553/GD32VW55X_Wifi_BLE_SDK/GD32VW55x_RELEASE_V1.0.2/MSDK/ble/app\app_per_sync_mgr.c ****         }
 490              		.loc 1 129 13 discriminator 1
 491 0118 83550400 		lhu	a1,0(s0)
 492 011c 37050000 		lui	a0,%hi(.LC3)
 493              	.LVL60:
 494 0120 13050500 		addi	a0,a0,%lo(.LC3)
 495 0124 97000000 		call	co_printf
 495      E7800000 
 496              	.LVL61:
 497              	.LBE7:
 137:C:/Users/stapi/OneDrive/Desktop/GD32VW553/GD32VW55X_Wifi_BLE_SDK/GD32VW55x_RELEASE_V1.0.2/MSDK/ble/app\app_per_sync_mgr.c **** 
 498              		.loc 1 137 1 is_stmt 0 discriminator 1
 499 012c 11BF     		j	.L29
 500              		.cfi_endproc
 501              	.LFE2:
 503              		.section	.text.per_sync_mgr_clear_dev_list,"ax",@progbits
 504              		.align	1
 505              		.globl	per_sync_mgr_clear_dev_list
 507              	per_sync_mgr_clear_dev_list:
 508              	.LFB6:
 217:C:/Users/stapi/OneDrive/Desktop/GD32VW553/GD32VW55X_Wifi_BLE_SDK/GD32VW55x_RELEASE_V1.0.2/MSDK/ble/app\app_per_sync_mgr.c **** 
 218:C:/Users/stapi/OneDrive/Desktop/GD32VW553/GD32VW55X_Wifi_BLE_SDK/GD32VW55x_RELEASE_V1.0.2/MSDK/ble/app\app_per_sync_mgr.c **** /*!
 219:C:/Users/stapi/OneDrive/Desktop/GD32VW553/GD32VW55X_Wifi_BLE_SDK/GD32VW55x_RELEASE_V1.0.2/MSDK/ble/app\app_per_sync_mgr.c ****     \brief      Clear periodic sync manager list
 220:C:/Users/stapi/OneDrive/Desktop/GD32VW553/GD32VW55X_Wifi_BLE_SDK/GD32VW55x_RELEASE_V1.0.2/MSDK/ble/app\app_per_sync_mgr.c ****     \param[in]  none
 221:C:/Users/stapi/OneDrive/Desktop/GD32VW553/GD32VW55X_Wifi_BLE_SDK/GD32VW55x_RELEASE_V1.0.2/MSDK/ble/app\app_per_sync_mgr.c ****     \param[out] none
 222:C:/Users/stapi/OneDrive/Desktop/GD32VW553/GD32VW55X_Wifi_BLE_SDK/GD32VW55x_RELEASE_V1.0.2/MSDK/ble/app\app_per_sync_mgr.c ****     \retval     none
 223:C:/Users/stapi/OneDrive/Desktop/GD32VW553/GD32VW55X_Wifi_BLE_SDK/GD32VW55x_RELEASE_V1.0.2/MSDK/ble/app\app_per_sync_mgr.c **** */
 224:C:/Users/stapi/OneDrive/Desktop/GD32VW553/GD32VW55X_Wifi_BLE_SDK/GD32VW55x_RELEASE_V1.0.2/MSDK/ble/app\app_per_sync_mgr.c **** void per_sync_mgr_clear_dev_list(void)
 225:C:/Users/stapi/OneDrive/Desktop/GD32VW553/GD32VW55X_Wifi_BLE_SDK/GD32VW55x_RELEASE_V1.0.2/MSDK/ble/app\app_per_sync_mgr.c **** {
 509              		.loc 1 225 1 is_stmt 1
 510              		.cfi_startproc
 511 0000 17030000 		call	t0,__riscv_save_2
 511      E7020300 
 512              		.cfi_offset 9, -12
 513              		.cfi_offset 8, -8
 514              		.cfi_offset 1, -4
 515              		.cfi_def_cfa_offset 16
 226:C:/Users/stapi/OneDrive/Desktop/GD32VW553/GD32VW55X_Wifi_BLE_SDK/GD32VW55x_RELEASE_V1.0.2/MSDK/ble/app\app_per_sync_mgr.c ****     per_dev_info_t *p_sync_dev = NULL;
 516              		.loc 1 226 5
 517              	.LVL62:
 227:C:/Users/stapi/OneDrive/Desktop/GD32VW553/GD32VW55X_Wifi_BLE_SDK/GD32VW55x_RELEASE_V1.0.2/MSDK/ble/app\app_per_sync_mgr.c ****     dlist_t *pos, *n;
 518              		.loc 1 227 5
 228:C:/Users/stapi/OneDrive/Desktop/GD32VW553/GD32VW55X_Wifi_BLE_SDK/GD32VW55x_RELEASE_V1.0.2/MSDK/ble/app\app_per_sync_mgr.c **** 
 229:C:/Users/stapi/OneDrive/Desktop/GD32VW553/GD32VW55X_Wifi_BLE_SDK/GD32VW55x_RELEASE_V1.0.2/MSDK/ble/app\app_per_sync_mgr.c ****     if (list_empty(&ble_sync_mgr_cb.devs_list)) {
 519              		.loc 1 229 5
 520              		.loc 1 229 9 is_stmt 0
 521 0008 37040000 		lui	s0,%hi(.LANCHOR0)
 225:C:/Users/stapi/OneDrive/Desktop/GD32VW553/GD32VW55X_Wifi_BLE_SDK/GD32VW55x_RELEASE_V1.0.2/MSDK/ble/app\app_per_sync_mgr.c ****     per_dev_info_t *p_sync_dev = NULL;
 522              		.loc 1 225 1
 523 000c 4111     		addi	sp,sp,-16
 524              		.cfi_def_cfa_offset 32
 525              		.loc 1 229 9
 526 000e 13050400 		addi	a0,s0,%lo(.LANCHOR0)
 527 0012 97000000 		call	list_empty
 527      E7800000 
 528              	.LVL63:
 529              		.loc 1 229 8
 530 001a 19E5     		bne	a0,zero,.L50
 531 001c 13040400 		addi	s0,s0,%lo(.LANCHOR0)
 532              	.LBB10:
 533              	.LBB11:
 230:C:/Users/stapi/OneDrive/Desktop/GD32VW553/GD32VW55X_Wifi_BLE_SDK/GD32VW55x_RELEASE_V1.0.2/MSDK/ble/app\app_per_sync_mgr.c ****         return;
 231:C:/Users/stapi/OneDrive/Desktop/GD32VW553/GD32VW55X_Wifi_BLE_SDK/GD32VW55x_RELEASE_V1.0.2/MSDK/ble/app\app_per_sync_mgr.c ****     }
 232:C:/Users/stapi/OneDrive/Desktop/GD32VW553/GD32VW55X_Wifi_BLE_SDK/GD32VW55x_RELEASE_V1.0.2/MSDK/ble/app\app_per_sync_mgr.c **** 
 233:C:/Users/stapi/OneDrive/Desktop/GD32VW553/GD32VW55X_Wifi_BLE_SDK/GD32VW55x_RELEASE_V1.0.2/MSDK/ble/app\app_per_sync_mgr.c ****     list_for_each_safe(pos, n, &ble_sync_mgr_cb.devs_list) {
 534              		.loc 1 233 5 is_stmt 1
 535 0020 0840     		lw	a0,0(s0)
 536              	.LVL64:
 537 0022 0441     		lw	s1,0(a0)
 538              	.LVL65:
 539              	.L52:
 540              		.loc 1 233 5
 541 0024 63178500 		bne	a0,s0,.L53
 542              	.LVL66:
 543              	.L50:
 544              	.LBE11:
 545              	.LBE10:
 234:C:/Users/stapi/OneDrive/Desktop/GD32VW553/GD32VW55X_Wifi_BLE_SDK/GD32VW55x_RELEASE_V1.0.2/MSDK/ble/app\app_per_sync_mgr.c ****         p_sync_dev = list_entry(pos, per_dev_info_t, list);
 235:C:/Users/stapi/OneDrive/Desktop/GD32VW553/GD32VW55X_Wifi_BLE_SDK/GD32VW55x_RELEASE_V1.0.2/MSDK/ble/app\app_per_sync_mgr.c ****         list_del(&p_sync_dev->list);
 236:C:/Users/stapi/OneDrive/Desktop/GD32VW553/GD32VW55X_Wifi_BLE_SDK/GD32VW55x_RELEASE_V1.0.2/MSDK/ble/app\app_per_sync_mgr.c ****         sys_mfree((void *)p_sync_dev);
 237:C:/Users/stapi/OneDrive/Desktop/GD32VW553/GD32VW55X_Wifi_BLE_SDK/GD32VW55x_RELEASE_V1.0.2/MSDK/ble/app\app_per_sync_mgr.c ****     }
 238:C:/Users/stapi/OneDrive/Desktop/GD32VW553/GD32VW55X_Wifi_BLE_SDK/GD32VW55x_RELEASE_V1.0.2/MSDK/ble/app\app_per_sync_mgr.c **** }
 546              		.loc 1 238 1 is_stmt 0
 547 0028 4101     		addi	sp,sp,16
 548              		.cfi_remember_state
 549              		.cfi_def_cfa_offset 0
 550 002a 17030000 		tail	__riscv_restore_2
 550      67000300 
 551              		.cfi_restore 9
 552              		.cfi_restore 8
 553              		.cfi_restore 1
 554              		.cfi_def_cfa_offset -16
 555              	.LVL67:
 556              	.L53:
 557              		.cfi_restore_state
 558              	.LBB13:
 559              	.LBB12:
 234:C:/Users/stapi/OneDrive/Desktop/GD32VW553/GD32VW55X_Wifi_BLE_SDK/GD32VW55x_RELEASE_V1.0.2/MSDK/ble/app\app_per_sync_mgr.c ****         p_sync_dev = list_entry(pos, per_dev_info_t, list);
 560              		.loc 1 234 9 is_stmt 1
 235:C:/Users/stapi/OneDrive/Desktop/GD32VW553/GD32VW55X_Wifi_BLE_SDK/GD32VW55x_RELEASE_V1.0.2/MSDK/ble/app\app_per_sync_mgr.c ****         sys_mfree((void *)p_sync_dev);
 561              		.loc 1 235 9
 562 0032 2AC6     		sw	a0,12(sp)
 563 0034 97000000 		call	list_del
 563      E7800000 
 564              	.LVL68:
 236:C:/Users/stapi/OneDrive/Desktop/GD32VW553/GD32VW55X_Wifi_BLE_SDK/GD32VW55x_RELEASE_V1.0.2/MSDK/ble/app\app_per_sync_mgr.c ****     }
 565              		.loc 1 236 9
 566 003c 3245     		lw	a0,12(sp)
 567 003e 97000000 		call	sys_mfree
 567      E7800000 
 568              	.LVL69:
 233:C:/Users/stapi/OneDrive/Desktop/GD32VW553/GD32VW55X_Wifi_BLE_SDK/GD32VW55x_RELEASE_V1.0.2/MSDK/ble/app\app_per_sync_mgr.c ****         p_sync_dev = list_entry(pos, per_dev_info_t, list);
 569              		.loc 1 233 5
 570 0046 2685     		mv	a0,s1
 571 0048 8440     		lw	s1,0(s1)
 572              	.LVL70:
 573 004a E9BF     		j	.L52
 574              	.LBE12:
 575              	.LBE13:
 576              		.cfi_endproc
 577              	.LFE6:
 579              		.section	.text.app_per_sync_mgr_reset,"ax",@progbits
 580              		.align	1
 581              		.globl	app_per_sync_mgr_reset
 583              	app_per_sync_mgr_reset:
 584              	.LFB7:
 239:C:/Users/stapi/OneDrive/Desktop/GD32VW553/GD32VW55X_Wifi_BLE_SDK/GD32VW55x_RELEASE_V1.0.2/MSDK/ble/app\app_per_sync_mgr.c **** 
 240:C:/Users/stapi/OneDrive/Desktop/GD32VW553/GD32VW55X_Wifi_BLE_SDK/GD32VW55x_RELEASE_V1.0.2/MSDK/ble/app\app_per_sync_mgr.c **** /*!
 241:C:/Users/stapi/OneDrive/Desktop/GD32VW553/GD32VW55X_Wifi_BLE_SDK/GD32VW55x_RELEASE_V1.0.2/MSDK/ble/app\app_per_sync_mgr.c ****     \brief      Reset application periodic sync manager
 242:C:/Users/stapi/OneDrive/Desktop/GD32VW553/GD32VW55X_Wifi_BLE_SDK/GD32VW55x_RELEASE_V1.0.2/MSDK/ble/app\app_per_sync_mgr.c ****     \param[in]  none
 243:C:/Users/stapi/OneDrive/Desktop/GD32VW553/GD32VW55X_Wifi_BLE_SDK/GD32VW55x_RELEASE_V1.0.2/MSDK/ble/app\app_per_sync_mgr.c ****     \param[out] none
 244:C:/Users/stapi/OneDrive/Desktop/GD32VW553/GD32VW55X_Wifi_BLE_SDK/GD32VW55x_RELEASE_V1.0.2/MSDK/ble/app\app_per_sync_mgr.c ****     \retval     none
 245:C:/Users/stapi/OneDrive/Desktop/GD32VW553/GD32VW55X_Wifi_BLE_SDK/GD32VW55x_RELEASE_V1.0.2/MSDK/ble/app\app_per_sync_mgr.c **** */
 246:C:/Users/stapi/OneDrive/Desktop/GD32VW553/GD32VW55X_Wifi_BLE_SDK/GD32VW55x_RELEASE_V1.0.2/MSDK/ble/app\app_per_sync_mgr.c **** void app_per_sync_mgr_reset(void)
 247:C:/Users/stapi/OneDrive/Desktop/GD32VW553/GD32VW55X_Wifi_BLE_SDK/GD32VW55x_RELEASE_V1.0.2/MSDK/ble/app\app_per_sync_mgr.c **** {
 585              		.loc 1 247 1
 586              		.cfi_startproc
 587 0000 17030000 		call	t0,__riscv_save_0
 587      E7020300 
 588              		.cfi_offset 1, -4
 589              		.cfi_def_cfa_offset 16
 248:C:/Users/stapi/OneDrive/Desktop/GD32VW553/GD32VW55X_Wifi_BLE_SDK/GD32VW55x_RELEASE_V1.0.2/MSDK/ble/app\app_per_sync_mgr.c ****     per_sync_mgr_clear_dev_list();
 590              		.loc 1 248 5
 591 0008 97000000 		call	per_sync_mgr_clear_dev_list
 591      E7800000 
 592              	.LVL71:
 249:C:/Users/stapi/OneDrive/Desktop/GD32VW553/GD32VW55X_Wifi_BLE_SDK/GD32VW55x_RELEASE_V1.0.2/MSDK/ble/app\app_per_sync_mgr.c ****     ble_per_sync_callback_register(ble_per_sync_evt_handler);
 593              		.loc 1 249 5
 594 0010 37050000 		lui	a0,%hi(ble_per_sync_evt_handler)
 595 0014 13050500 		addi	a0,a0,%lo(ble_per_sync_evt_handler)
 596 0018 97000000 		call	ble_per_sync_callback_register
 596      E7800000 
 597              	.LVL72:
 250:C:/Users/stapi/OneDrive/Desktop/GD32VW553/GD32VW55X_Wifi_BLE_SDK/GD32VW55x_RELEASE_V1.0.2/MSDK/ble/app\app_per_sync_mgr.c **** }
 598              		.loc 1 250 1 is_stmt 0
 599 0020 17030000 		tail	__riscv_restore_0
 599      67000300 
 600              		.cfi_restore 1
 601              		.cfi_def_cfa_offset 0
 602              		.cfi_endproc
 603              	.LFE7:
 605              		.section	.rodata.app_per_sync_cancel.str1.4,"aMS",@progbits,1
 606              		.align	2
 607              	.LC4:
 608 0000 70657220 		.string	"per sync cancel fail! status: %x\r\n"
 608      73796E63 
 608      2063616E 
 608      63656C20 
 608      6661696C 
 609 0023 00       		.align	2
 610              	.LC5:
 611 0024 70657220 		.string	"per sync cancel success\r\n"
 611      73796E63 
 611      2063616E 
 611      63656C20 
 611      73756363 
 612              		.section	.text.app_per_sync_cancel,"ax",@progbits
 613              		.align	1
 614              		.globl	app_per_sync_cancel
 616              	app_per_sync_cancel:
 617              	.LFB8:
 251:C:/Users/stapi/OneDrive/Desktop/GD32VW553/GD32VW55X_Wifi_BLE_SDK/GD32VW55x_RELEASE_V1.0.2/MSDK/ble/app\app_per_sync_mgr.c **** 
 252:C:/Users/stapi/OneDrive/Desktop/GD32VW553/GD32VW55X_Wifi_BLE_SDK/GD32VW55x_RELEASE_V1.0.2/MSDK/ble/app\app_per_sync_mgr.c **** /*!
 253:C:/Users/stapi/OneDrive/Desktop/GD32VW553/GD32VW55X_Wifi_BLE_SDK/GD32VW55x_RELEASE_V1.0.2/MSDK/ble/app\app_per_sync_mgr.c ****     \brief      Cancel ongoing periodic sync procedure
 254:C:/Users/stapi/OneDrive/Desktop/GD32VW553/GD32VW55X_Wifi_BLE_SDK/GD32VW55x_RELEASE_V1.0.2/MSDK/ble/app\app_per_sync_mgr.c ****     \param[in]  none
 255:C:/Users/stapi/OneDrive/Desktop/GD32VW553/GD32VW55X_Wifi_BLE_SDK/GD32VW55x_RELEASE_V1.0.2/MSDK/ble/app\app_per_sync_mgr.c ****     \param[out] none
 256:C:/Users/stapi/OneDrive/Desktop/GD32VW553/GD32VW55X_Wifi_BLE_SDK/GD32VW55x_RELEASE_V1.0.2/MSDK/ble/app\app_per_sync_mgr.c ****     \retval     none
 257:C:/Users/stapi/OneDrive/Desktop/GD32VW553/GD32VW55X_Wifi_BLE_SDK/GD32VW55x_RELEASE_V1.0.2/MSDK/ble/app\app_per_sync_mgr.c **** */
 258:C:/Users/stapi/OneDrive/Desktop/GD32VW553/GD32VW55X_Wifi_BLE_SDK/GD32VW55x_RELEASE_V1.0.2/MSDK/ble/app\app_per_sync_mgr.c **** void app_per_sync_cancel(void)
 259:C:/Users/stapi/OneDrive/Desktop/GD32VW553/GD32VW55X_Wifi_BLE_SDK/GD32VW55x_RELEASE_V1.0.2/MSDK/ble/app\app_per_sync_mgr.c **** {
 618              		.loc 1 259 1 is_stmt 1
 619              		.cfi_startproc
 620 0000 17030000 		call	t0,__riscv_save_0
 620      E7020300 
 621              		.cfi_offset 1, -4
 622              		.cfi_def_cfa_offset 16
 260:C:/Users/stapi/OneDrive/Desktop/GD32VW553/GD32VW55X_Wifi_BLE_SDK/GD32VW55x_RELEASE_V1.0.2/MSDK/ble/app\app_per_sync_mgr.c ****     ble_status_t status = ble_per_sync_cancel();
 623              		.loc 1 260 5
 624              		.loc 1 260 27 is_stmt 0
 625 0008 97000000 		call	ble_per_sync_cancel
 625      E7800000 
 626              	.LVL73:
 261:C:/Users/stapi/OneDrive/Desktop/GD32VW553/GD32VW55X_Wifi_BLE_SDK/GD32VW55x_RELEASE_V1.0.2/MSDK/ble/app\app_per_sync_mgr.c ****     if (status != BLE_ERR_NO_ERROR) {
 627              		.loc 1 261 5 is_stmt 1
 628 0010 B7070000 		lui	a5,%hi(global_debug_level)
 629              		.loc 1 261 8 is_stmt 0
 630 0014 0DC1     		beq	a0,zero,.L59
 262:C:/Users/stapi/OneDrive/Desktop/GD32VW553/GD32VW55X_Wifi_BLE_SDK/GD32VW55x_RELEASE_V1.0.2/MSDK/ble/app\app_per_sync_mgr.c ****         dbg_print(ERR, "per sync cancel fail! status: %x\r\n", status);
 631              		.loc 1 262 9 is_stmt 1
 632              		.loc 1 262 9
 633 0016 83C70700 		lbu	a5,%lo(global_debug_level)(a5)
 634 001a 91CB     		beq	a5,zero,.L58
 635 001c AA85     		mv	a1,a0
 636              		.loc 1 262 9 discriminator 1
 637 001e 37050000 		lui	a0,%hi(.LC4)
 638              	.LVL74:
 639 0022 13050500 		addi	a0,a0,%lo(.LC4)
 640 0026 97000000 		call	co_printf
 640      E7800000 
 641              	.LVL75:
 642              	.L58:
 263:C:/Users/stapi/OneDrive/Desktop/GD32VW553/GD32VW55X_Wifi_BLE_SDK/GD32VW55x_RELEASE_V1.0.2/MSDK/ble/app\app_per_sync_mgr.c ****         return;
 264:C:/Users/stapi/OneDrive/Desktop/GD32VW553/GD32VW55X_Wifi_BLE_SDK/GD32VW55x_RELEASE_V1.0.2/MSDK/ble/app\app_per_sync_mgr.c ****     }
 265:C:/Users/stapi/OneDrive/Desktop/GD32VW553/GD32VW55X_Wifi_BLE_SDK/GD32VW55x_RELEASE_V1.0.2/MSDK/ble/app\app_per_sync_mgr.c **** 
 266:C:/Users/stapi/OneDrive/Desktop/GD32VW553/GD32VW55X_Wifi_BLE_SDK/GD32VW55x_RELEASE_V1.0.2/MSDK/ble/app\app_per_sync_mgr.c ****     dbg_print(NOTICE, "per sync cancel success\r\n");
 267:C:/Users/stapi/OneDrive/Desktop/GD32VW553/GD32VW55X_Wifi_BLE_SDK/GD32VW55x_RELEASE_V1.0.2/MSDK/ble/app\app_per_sync_mgr.c **** }
 643              		.loc 1 267 1 is_stmt 0
 644 002e 17030000 		tail	__riscv_restore_0
 644      67000300 
 645              		.cfi_remember_state
 646              		.cfi_restore 1
 647              		.cfi_def_cfa_offset 0
 648              	.LVL76:
 649              	.L59:
 650              		.cfi_restore_state
 266:C:/Users/stapi/OneDrive/Desktop/GD32VW553/GD32VW55X_Wifi_BLE_SDK/GD32VW55x_RELEASE_V1.0.2/MSDK/ble/app\app_per_sync_mgr.c **** }
 651              		.loc 1 266 5 is_stmt 1
 266:C:/Users/stapi/OneDrive/Desktop/GD32VW553/GD32VW55X_Wifi_BLE_SDK/GD32VW55x_RELEASE_V1.0.2/MSDK/ble/app\app_per_sync_mgr.c **** }
 652              		.loc 1 266 5
 653 0036 03C70700 		lbu	a4,%lo(global_debug_level)(a5)
 654 003a 8947     		li	a5,2
 655 003c E3F9E7FE 		bleu	a4,a5,.L58
 266:C:/Users/stapi/OneDrive/Desktop/GD32VW553/GD32VW55X_Wifi_BLE_SDK/GD32VW55x_RELEASE_V1.0.2/MSDK/ble/app\app_per_sync_mgr.c **** }
 656              		.loc 1 266 5 discriminator 1
 657 0040 37050000 		lui	a0,%hi(.LC5)
 658              	.LVL77:
 659 0044 13050500 		addi	a0,a0,%lo(.LC5)
 660 0048 97000000 		call	co_printf
 660      E7800000 
 661              	.LVL78:
 266:C:/Users/stapi/OneDrive/Desktop/GD32VW553/GD32VW55X_Wifi_BLE_SDK/GD32VW55x_RELEASE_V1.0.2/MSDK/ble/app\app_per_sync_mgr.c **** }
 662              		.loc 1 266 5 discriminator 1
 663 0050 F9BF     		j	.L58
 664              		.cfi_endproc
 665              	.LFE8:
 667              		.section	.rodata.app_per_sync_terminate.str1.4,"aMS",@progbits,1
 668              		.align	2
 669              	.LC6:
 670 0000 6170705F 		.string	"app_per_sync_terminate fail! not found sync device\r\n"
 670      7065725F 
 670      73796E63 
 670      5F746572 
 670      6D696E61 
 671 0035 000000   		.align	2
 672              	.LC7:
 673 0038 6170705F 		.string	"app_per_sync_terminate fail! \r\n"
 673      7065725F 
 673      73796E63 
 673      5F746572 
 673      6D696E61 
 674              		.section	.text.app_per_sync_terminate,"ax",@progbits
 675              		.align	1
 676              		.globl	app_per_sync_terminate
 678              	app_per_sync_terminate:
 679              	.LFB9:
 268:C:/Users/stapi/OneDrive/Desktop/GD32VW553/GD32VW55X_Wifi_BLE_SDK/GD32VW55x_RELEASE_V1.0.2/MSDK/ble/app\app_per_sync_mgr.c **** 
 269:C:/Users/stapi/OneDrive/Desktop/GD32VW553/GD32VW55X_Wifi_BLE_SDK/GD32VW55x_RELEASE_V1.0.2/MSDK/ble/app\app_per_sync_mgr.c **** /*!
 270:C:/Users/stapi/OneDrive/Desktop/GD32VW553/GD32VW55X_Wifi_BLE_SDK/GD32VW55x_RELEASE_V1.0.2/MSDK/ble/app\app_per_sync_mgr.c ****     \brief      Terminate periodic sync
 271:C:/Users/stapi/OneDrive/Desktop/GD32VW553/GD32VW55X_Wifi_BLE_SDK/GD32VW55x_RELEASE_V1.0.2/MSDK/ble/app\app_per_sync_mgr.c ****     \param[in]  sync_idx: periodic sync index
 272:C:/Users/stapi/OneDrive/Desktop/GD32VW553/GD32VW55X_Wifi_BLE_SDK/GD32VW55x_RELEASE_V1.0.2/MSDK/ble/app\app_per_sync_mgr.c ****     \param[out] none
 273:C:/Users/stapi/OneDrive/Desktop/GD32VW553/GD32VW55X_Wifi_BLE_SDK/GD32VW55x_RELEASE_V1.0.2/MSDK/ble/app\app_per_sync_mgr.c ****     \retval     none
 274:C:/Users/stapi/OneDrive/Desktop/GD32VW553/GD32VW55X_Wifi_BLE_SDK/GD32VW55x_RELEASE_V1.0.2/MSDK/ble/app\app_per_sync_mgr.c **** */
 275:C:/Users/stapi/OneDrive/Desktop/GD32VW553/GD32VW55X_Wifi_BLE_SDK/GD32VW55x_RELEASE_V1.0.2/MSDK/ble/app\app_per_sync_mgr.c **** void app_per_sync_terminate(uint8_t sync_idx)
 276:C:/Users/stapi/OneDrive/Desktop/GD32VW553/GD32VW55X_Wifi_BLE_SDK/GD32VW55x_RELEASE_V1.0.2/MSDK/ble/app\app_per_sync_mgr.c **** {
 680              		.loc 1 276 1
 681              		.cfi_startproc
 682              	.LVL79:
 683 0000 17030000 		call	t0,__riscv_save_1
 683      E7020300 
 684              		.cfi_offset 8, -8
 685              		.cfi_offset 1, -4
 686              		.cfi_def_cfa_offset 16
 277:C:/Users/stapi/OneDrive/Desktop/GD32VW553/GD32VW55X_Wifi_BLE_SDK/GD32VW55x_RELEASE_V1.0.2/MSDK/ble/app\app_per_sync_mgr.c ****     per_dev_info_t *p_sync_dev = sync_mgr_find_device_by_idx(sync_idx);
 687              		.loc 1 277 5
 276:C:/Users/stapi/OneDrive/Desktop/GD32VW553/GD32VW55X_Wifi_BLE_SDK/GD32VW55x_RELEASE_V1.0.2/MSDK/ble/app\app_per_sync_mgr.c ****     per_dev_info_t *p_sync_dev = sync_mgr_find_device_by_idx(sync_idx);
 688              		.loc 1 276 1 is_stmt 0
 689 0008 2A84     		mv	s0,a0
 690              		.loc 1 277 34
 691 000a 97000000 		call	sync_mgr_find_device_by_idx
 691      E7800000 
 692              	.LVL80:
 278:C:/Users/stapi/OneDrive/Desktop/GD32VW553/GD32VW55X_Wifi_BLE_SDK/GD32VW55x_RELEASE_V1.0.2/MSDK/ble/app\app_per_sync_mgr.c ****     if (p_sync_dev == NULL) {
 693              		.loc 1 278 5 is_stmt 1
 694              		.loc 1 278 8 is_stmt 0
 695 0012 15E1     		bne	a0,zero,.L66
 279:C:/Users/stapi/OneDrive/Desktop/GD32VW553/GD32VW55X_Wifi_BLE_SDK/GD32VW55x_RELEASE_V1.0.2/MSDK/ble/app\app_per_sync_mgr.c ****         dbg_print(ERR, "app_per_sync_terminate fail! not found sync device\r\n");
 696              		.loc 1 279 9 is_stmt 1
 697              		.loc 1 279 9
 698 0014 B7070000 		lui	a5,%hi(global_debug_level)
 699 0018 83C70700 		lbu	a5,%lo(global_debug_level)(a5)
 700 001c 89CB     		beq	a5,zero,.L65
 701              		.loc 1 279 9 discriminator 1
 702 001e 37050000 		lui	a0,%hi(.LC6)
 703              	.LVL81:
 704 0022 13050500 		addi	a0,a0,%lo(.LC6)
 705              	.L74:
 280:C:/Users/stapi/OneDrive/Desktop/GD32VW553/GD32VW55X_Wifi_BLE_SDK/GD32VW55x_RELEASE_V1.0.2/MSDK/ble/app\app_per_sync_mgr.c ****         return;
 281:C:/Users/stapi/OneDrive/Desktop/GD32VW553/GD32VW55X_Wifi_BLE_SDK/GD32VW55x_RELEASE_V1.0.2/MSDK/ble/app\app_per_sync_mgr.c ****     }
 282:C:/Users/stapi/OneDrive/Desktop/GD32VW553/GD32VW55X_Wifi_BLE_SDK/GD32VW55x_RELEASE_V1.0.2/MSDK/ble/app\app_per_sync_mgr.c **** 
 283:C:/Users/stapi/OneDrive/Desktop/GD32VW553/GD32VW55X_Wifi_BLE_SDK/GD32VW55x_RELEASE_V1.0.2/MSDK/ble/app\app_per_sync_mgr.c ****     if (ble_per_sync_terminate(sync_idx) != BLE_ERR_NO_ERROR) {
 284:C:/Users/stapi/OneDrive/Desktop/GD32VW553/GD32VW55X_Wifi_BLE_SDK/GD32VW55x_RELEASE_V1.0.2/MSDK/ble/app\app_per_sync_mgr.c ****         dbg_print(NOTICE, "app_per_sync_terminate fail! \r\n");
 706              		.loc 1 284 9 is_stmt 0 discriminator 1
 707 0026 97000000 		call	co_printf
 707      E7800000 
 708              	.LVL82:
 709              		.loc 1 284 9 is_stmt 1 discriminator 1
 710              	.L65:
 285:C:/Users/stapi/OneDrive/Desktop/GD32VW553/GD32VW55X_Wifi_BLE_SDK/GD32VW55x_RELEASE_V1.0.2/MSDK/ble/app\app_per_sync_mgr.c ****     }
 286:C:/Users/stapi/OneDrive/Desktop/GD32VW553/GD32VW55X_Wifi_BLE_SDK/GD32VW55x_RELEASE_V1.0.2/MSDK/ble/app\app_per_sync_mgr.c **** }
 711              		.loc 1 286 1 is_stmt 0
 712 002e 17030000 		tail	__riscv_restore_1
 712      67000300 
 713              		.cfi_remember_state
 714              		.cfi_restore 8
 715              		.cfi_restore 1
 716              		.cfi_def_cfa_offset 0
 717              	.LVL83:
 718              	.L66:
 719              		.cfi_restore_state
 283:C:/Users/stapi/OneDrive/Desktop/GD32VW553/GD32VW55X_Wifi_BLE_SDK/GD32VW55x_RELEASE_V1.0.2/MSDK/ble/app\app_per_sync_mgr.c ****         dbg_print(NOTICE, "app_per_sync_terminate fail! \r\n");
 720              		.loc 1 283 5 is_stmt 1
 283:C:/Users/stapi/OneDrive/Desktop/GD32VW553/GD32VW55X_Wifi_BLE_SDK/GD32VW55x_RELEASE_V1.0.2/MSDK/ble/app\app_per_sync_mgr.c ****         dbg_print(NOTICE, "app_per_sync_terminate fail! \r\n");
 721              		.loc 1 283 9 is_stmt 0
 722 0036 2285     		mv	a0,s0
 723              	.LVL84:
 724 0038 97000000 		call	ble_per_sync_terminate
 724      E7800000 
 725              	.LVL85:
 283:C:/Users/stapi/OneDrive/Desktop/GD32VW553/GD32VW55X_Wifi_BLE_SDK/GD32VW55x_RELEASE_V1.0.2/MSDK/ble/app\app_per_sync_mgr.c ****         dbg_print(NOTICE, "app_per_sync_terminate fail! \r\n");
 726              		.loc 1 283 8
 727 0040 7DD5     		beq	a0,zero,.L65
 284:C:/Users/stapi/OneDrive/Desktop/GD32VW553/GD32VW55X_Wifi_BLE_SDK/GD32VW55x_RELEASE_V1.0.2/MSDK/ble/app\app_per_sync_mgr.c ****     }
 728              		.loc 1 284 9 is_stmt 1
 284:C:/Users/stapi/OneDrive/Desktop/GD32VW553/GD32VW55X_Wifi_BLE_SDK/GD32VW55x_RELEASE_V1.0.2/MSDK/ble/app\app_per_sync_mgr.c ****     }
 729              		.loc 1 284 9
 730 0042 B7070000 		lui	a5,%hi(global_debug_level)
 731 0046 03C70700 		lbu	a4,%lo(global_debug_level)(a5)
 732 004a 8947     		li	a5,2
 733 004c E3F1E7FE 		bleu	a4,a5,.L65
 284:C:/Users/stapi/OneDrive/Desktop/GD32VW553/GD32VW55X_Wifi_BLE_SDK/GD32VW55x_RELEASE_V1.0.2/MSDK/ble/app\app_per_sync_mgr.c ****     }
 734              		.loc 1 284 9 discriminator 1
 735 0050 37050000 		lui	a0,%hi(.LC7)
 736 0054 13050500 		addi	a0,a0,%lo(.LC7)
 737 0058 F9B7     		j	.L74
 738              		.cfi_endproc
 739              	.LFE9:
 741              		.section	.text.app_per_sync_mgr_init,"ax",@progbits
 742              		.align	1
 743              		.globl	app_per_sync_mgr_init
 745              	app_per_sync_mgr_init:
 746              	.LFB10:
 287:C:/Users/stapi/OneDrive/Desktop/GD32VW553/GD32VW55X_Wifi_BLE_SDK/GD32VW55x_RELEASE_V1.0.2/MSDK/ble/app\app_per_sync_mgr.c **** 
 288:C:/Users/stapi/OneDrive/Desktop/GD32VW553/GD32VW55X_Wifi_BLE_SDK/GD32VW55x_RELEASE_V1.0.2/MSDK/ble/app\app_per_sync_mgr.c **** /*!
 289:C:/Users/stapi/OneDrive/Desktop/GD32VW553/GD32VW55X_Wifi_BLE_SDK/GD32VW55x_RELEASE_V1.0.2/MSDK/ble/app\app_per_sync_mgr.c ****     \brief      Init application periodic sync manager
 290:C:/Users/stapi/OneDrive/Desktop/GD32VW553/GD32VW55X_Wifi_BLE_SDK/GD32VW55x_RELEASE_V1.0.2/MSDK/ble/app\app_per_sync_mgr.c ****     \param[in]  none
 291:C:/Users/stapi/OneDrive/Desktop/GD32VW553/GD32VW55X_Wifi_BLE_SDK/GD32VW55x_RELEASE_V1.0.2/MSDK/ble/app\app_per_sync_mgr.c ****     \param[out] none
 292:C:/Users/stapi/OneDrive/Desktop/GD32VW553/GD32VW55X_Wifi_BLE_SDK/GD32VW55x_RELEASE_V1.0.2/MSDK/ble/app\app_per_sync_mgr.c ****     \retval     none
 293:C:/Users/stapi/OneDrive/Desktop/GD32VW553/GD32VW55X_Wifi_BLE_SDK/GD32VW55x_RELEASE_V1.0.2/MSDK/ble/app\app_per_sync_mgr.c **** */
 294:C:/Users/stapi/OneDrive/Desktop/GD32VW553/GD32VW55X_Wifi_BLE_SDK/GD32VW55x_RELEASE_V1.0.2/MSDK/ble/app\app_per_sync_mgr.c **** void app_per_sync_mgr_init(void)
 295:C:/Users/stapi/OneDrive/Desktop/GD32VW553/GD32VW55X_Wifi_BLE_SDK/GD32VW55x_RELEASE_V1.0.2/MSDK/ble/app\app_per_sync_mgr.c **** {
 747              		.loc 1 295 1
 748              		.cfi_startproc
 749 0000 17030000 		call	t0,__riscv_save_0
 749      E7020300 
 750              		.cfi_offset 1, -4
 751              		.cfi_def_cfa_offset 16
 296:C:/Users/stapi/OneDrive/Desktop/GD32VW553/GD32VW55X_Wifi_BLE_SDK/GD32VW55x_RELEASE_V1.0.2/MSDK/ble/app\app_per_sync_mgr.c ****     INIT_DLIST_HEAD(&ble_sync_mgr_cb.devs_list);
 752              		.loc 1 296 5
 753              		.loc 1 296 5
 754 0008 B7070000 		lui	a5,%hi(.LANCHOR0)
 755 000c 93870700 		addi	a5,a5,%lo(.LANCHOR0)
 756 0010 9CC3     		sw	a5,0(a5)
 757              		.loc 1 296 5
 758 0012 DCC3     		sw	a5,4(a5)
 759              		.loc 1 296 5
 297:C:/Users/stapi/OneDrive/Desktop/GD32VW553/GD32VW55X_Wifi_BLE_SDK/GD32VW55x_RELEASE_V1.0.2/MSDK/ble/app\app_per_sync_mgr.c ****     ble_per_sync_init();
 760              		.loc 1 297 5
 761 0014 97000000 		call	ble_per_sync_init
 761      E7800000 
 762              	.LVL86:
 298:C:/Users/stapi/OneDrive/Desktop/GD32VW553/GD32VW55X_Wifi_BLE_SDK/GD32VW55x_RELEASE_V1.0.2/MSDK/ble/app\app_per_sync_mgr.c ****     ble_per_sync_callback_register(ble_per_sync_evt_handler);
 763              		.loc 1 298 5
 764 001c 37050000 		lui	a0,%hi(ble_per_sync_evt_handler)
 765 0020 13050500 		addi	a0,a0,%lo(ble_per_sync_evt_handler)
 766 0024 97000000 		call	ble_per_sync_callback_register
 766      E7800000 
 767              	.LVL87:
 299:C:/Users/stapi/OneDrive/Desktop/GD32VW553/GD32VW55X_Wifi_BLE_SDK/GD32VW55x_RELEASE_V1.0.2/MSDK/ble/app\app_per_sync_mgr.c **** }
 768              		.loc 1 299 1 is_stmt 0
 769 002c 17030000 		tail	__riscv_restore_0
 769      67000300 
 770              		.cfi_restore 1
 771              		.cfi_def_cfa_offset 0
 772              		.cfi_endproc
 773              	.LFE10:
 775              		.section	.text.app_per_sync_mgr_deinit,"ax",@progbits
 776              		.align	1
 777              		.globl	app_per_sync_mgr_deinit
 779              	app_per_sync_mgr_deinit:
 780              	.LFB11:
 300:C:/Users/stapi/OneDrive/Desktop/GD32VW553/GD32VW55X_Wifi_BLE_SDK/GD32VW55x_RELEASE_V1.0.2/MSDK/ble/app\app_per_sync_mgr.c **** 
 301:C:/Users/stapi/OneDrive/Desktop/GD32VW553/GD32VW55X_Wifi_BLE_SDK/GD32VW55x_RELEASE_V1.0.2/MSDK/ble/app\app_per_sync_mgr.c **** /*!
 302:C:/Users/stapi/OneDrive/Desktop/GD32VW553/GD32VW55X_Wifi_BLE_SDK/GD32VW55x_RELEASE_V1.0.2/MSDK/ble/app\app_per_sync_mgr.c ****     \brief      Deinit application periodic sync manager
 303:C:/Users/stapi/OneDrive/Desktop/GD32VW553/GD32VW55X_Wifi_BLE_SDK/GD32VW55x_RELEASE_V1.0.2/MSDK/ble/app\app_per_sync_mgr.c ****     \param[in]  none
 304:C:/Users/stapi/OneDrive/Desktop/GD32VW553/GD32VW55X_Wifi_BLE_SDK/GD32VW55x_RELEASE_V1.0.2/MSDK/ble/app\app_per_sync_mgr.c ****     \param[out] none
 305:C:/Users/stapi/OneDrive/Desktop/GD32VW553/GD32VW55X_Wifi_BLE_SDK/GD32VW55x_RELEASE_V1.0.2/MSDK/ble/app\app_per_sync_mgr.c ****     \retval     none
 306:C:/Users/stapi/OneDrive/Desktop/GD32VW553/GD32VW55X_Wifi_BLE_SDK/GD32VW55x_RELEASE_V1.0.2/MSDK/ble/app\app_per_sync_mgr.c **** */
 307:C:/Users/stapi/OneDrive/Desktop/GD32VW553/GD32VW55X_Wifi_BLE_SDK/GD32VW55x_RELEASE_V1.0.2/MSDK/ble/app\app_per_sync_mgr.c **** void app_per_sync_mgr_deinit(void)
 308:C:/Users/stapi/OneDrive/Desktop/GD32VW553/GD32VW55X_Wifi_BLE_SDK/GD32VW55x_RELEASE_V1.0.2/MSDK/ble/app\app_per_sync_mgr.c **** {
 781              		.loc 1 308 1 is_stmt 1
 782              		.cfi_startproc
 309:C:/Users/stapi/OneDrive/Desktop/GD32VW553/GD32VW55X_Wifi_BLE_SDK/GD32VW55x_RELEASE_V1.0.2/MSDK/ble/app\app_per_sync_mgr.c ****     ble_per_sync_callback_unregister(ble_per_sync_evt_handler);
 783              		.loc 1 309 5
 784 0000 37050000 		lui	a0,%hi(ble_per_sync_evt_handler)
 785 0004 13050500 		addi	a0,a0,%lo(ble_per_sync_evt_handler)
 786 0008 17030000 		tail	ble_per_sync_callback_unregister
 786      67000300 
 787              	.LVL88:
 788              		.cfi_endproc
 789              	.LFE11:
 791              		.section	.sbss.ble_sync_mgr_cb,"aw",@nobits
 792              		.align	2
 793              		.set	.LANCHOR0,. + 0
 796              	ble_sync_mgr_cb:
 797 0000 00000000 		.zero	8
 797      00000000 
 798              		.text
 799              	.Letext0:
 800              		.file 2 "c:\\users\\stapi\\onedrive\\desktop\\gd32vw553\\embeddedbuilder_v1.4.7.26843\\tools\\nucl
 801              		.file 3 "c:\\users\\stapi\\onedrive\\desktop\\gd32vw553\\embeddedbuilder_v1.4.7.26843\\tools\\nucl
 802              		.file 4 "..\\..\\..\\..\\blesw\\src\\export/ble_types.h"
 803              		.file 5 "..\\..\\..\\..\\blesw\\src\\export/ble_error.h"
 804              		.file 6 "..\\..\\..\\..\\blesw\\src\\export/ble_gap.h"
 805              		.file 7 "..\\..\\..\\..\\blesw\\src\\export/ble_per_sync.h"
 806              		.file 8 "..\\..\\..\\..\\util\\include/dlist.h"
 807              		.file 9 "C:/Users/stapi/OneDrive/Desktop/GD32VW553/GD32VW55X_Wifi_BLE_SDK/GD32VW55x_RELEASE_V1.0.2
 808              		.file 10 "..\\..\\..\\..\\util\\include/dbg_print.h"
 809              		.file 11 "..\\..\\..\\..\\util\\include/debug_print.h"
 810              		.file 12 "c:\\users\\stapi\\onedrive\\desktop\\gd32vw553\\embeddedbuilder_v1.4.7.26843\\tools\\nuc
 811              		.file 13 "..\\..\\..\\..\\rtos\\rtos_wrapper/wrapper_os.h"
 812              		.file 14 "<built-in>"