   1              		.file	"app_list_mgr.c"
   2              		.option nopic
   3              		.attribute arch, "rv32i2p0_m2p0_a2p0_f2p0_c2p0_b_p0p94"
   4              		.attribute unaligned_access, 0
   5              		.attribute stack_align, 16
   6              		.text
   7              	.Ltext0:
   8              		.cfi_sections	.debug_frame
   9              		.section	.rodata.ble_app_list_evt_handler.str1.4,"aMS",@progbits,1
  10              		.align	2
  11              	.LC0:
  12 0000 5B626C65 		.string	"[ble_app_list_evt_handler] status %d type %u operation %u fail \r\n"
  12      5F617070 
  12      5F6C6973 
  12      745F6576 
  12      745F6861 
  13              		.section	.text.ble_app_list_evt_handler,"ax",@progbits
  14              		.align	1
  16              	ble_app_list_evt_handler:
  17              	.LFB2:
  18              		.file 1 "C:/Users/stapi/OneDrive/Desktop/GD32VW553/V1_MQTT_OK/GD32VW55X_Wifi_BLE_SDK/GD32VW55x_REL
   1:C:/Users/stapi/OneDrive/Desktop/GD32VW553/V1_MQTT_OK/GD32VW55X_Wifi_BLE_SDK/GD32VW55x_RELEASE_V1.0.2/MSDK/ble/app\app_list_mgr.c **** /*!
   2:C:/Users/stapi/OneDrive/Desktop/GD32VW553/V1_MQTT_OK/GD32VW55X_Wifi_BLE_SDK/GD32VW55x_RELEASE_V1.0.2/MSDK/ble/app\app_list_mgr.c ****     \file    app_list_mgr.c
   3:C:/Users/stapi/OneDrive/Desktop/GD32VW553/V1_MQTT_OK/GD32VW55X_Wifi_BLE_SDK/GD32VW55x_RELEASE_V1.0.2/MSDK/ble/app\app_list_mgr.c ****     \brief   Implementation of BLE application list operation manager to add device to fal/ral/pal.
   4:C:/Users/stapi/OneDrive/Desktop/GD32VW553/V1_MQTT_OK/GD32VW55X_Wifi_BLE_SDK/GD32VW55x_RELEASE_V1.0.2/MSDK/ble/app\app_list_mgr.c **** 
   5:C:/Users/stapi/OneDrive/Desktop/GD32VW553/V1_MQTT_OK/GD32VW55X_Wifi_BLE_SDK/GD32VW55x_RELEASE_V1.0.2/MSDK/ble/app\app_list_mgr.c ****     \version 2023-07-20, V1.0.0, firmware for GD32VW55x
   6:C:/Users/stapi/OneDrive/Desktop/GD32VW553/V1_MQTT_OK/GD32VW55X_Wifi_BLE_SDK/GD32VW55x_RELEASE_V1.0.2/MSDK/ble/app\app_list_mgr.c **** */
   7:C:/Users/stapi/OneDrive/Desktop/GD32VW553/V1_MQTT_OK/GD32VW55X_Wifi_BLE_SDK/GD32VW55x_RELEASE_V1.0.2/MSDK/ble/app\app_list_mgr.c **** 
   8:C:/Users/stapi/OneDrive/Desktop/GD32VW553/V1_MQTT_OK/GD32VW55X_Wifi_BLE_SDK/GD32VW55x_RELEASE_V1.0.2/MSDK/ble/app\app_list_mgr.c **** /*
   9:C:/Users/stapi/OneDrive/Desktop/GD32VW553/V1_MQTT_OK/GD32VW55X_Wifi_BLE_SDK/GD32VW55x_RELEASE_V1.0.2/MSDK/ble/app\app_list_mgr.c ****     Copyright (c) 2023, GigaDevice Semiconductor Inc.
  10:C:/Users/stapi/OneDrive/Desktop/GD32VW553/V1_MQTT_OK/GD32VW55X_Wifi_BLE_SDK/GD32VW55x_RELEASE_V1.0.2/MSDK/ble/app\app_list_mgr.c **** 
  11:C:/Users/stapi/OneDrive/Desktop/GD32VW553/V1_MQTT_OK/GD32VW55X_Wifi_BLE_SDK/GD32VW55x_RELEASE_V1.0.2/MSDK/ble/app\app_list_mgr.c ****     Redistribution and use in source and binary forms, with or without modification,
  12:C:/Users/stapi/OneDrive/Desktop/GD32VW553/V1_MQTT_OK/GD32VW55X_Wifi_BLE_SDK/GD32VW55x_RELEASE_V1.0.2/MSDK/ble/app\app_list_mgr.c **** are permitted provided that the following conditions are met:
  13:C:/Users/stapi/OneDrive/Desktop/GD32VW553/V1_MQTT_OK/GD32VW55X_Wifi_BLE_SDK/GD32VW55x_RELEASE_V1.0.2/MSDK/ble/app\app_list_mgr.c **** 
  14:C:/Users/stapi/OneDrive/Desktop/GD32VW553/V1_MQTT_OK/GD32VW55X_Wifi_BLE_SDK/GD32VW55x_RELEASE_V1.0.2/MSDK/ble/app\app_list_mgr.c ****     1. Redistributions of source code must retain the above copyright notice, this
  15:C:/Users/stapi/OneDrive/Desktop/GD32VW553/V1_MQTT_OK/GD32VW55X_Wifi_BLE_SDK/GD32VW55x_RELEASE_V1.0.2/MSDK/ble/app\app_list_mgr.c ****        list of conditions and the following disclaimer.
  16:C:/Users/stapi/OneDrive/Desktop/GD32VW553/V1_MQTT_OK/GD32VW55X_Wifi_BLE_SDK/GD32VW55x_RELEASE_V1.0.2/MSDK/ble/app\app_list_mgr.c ****     2. Redistributions in binary form must reproduce the above copyright notice,
  17:C:/Users/stapi/OneDrive/Desktop/GD32VW553/V1_MQTT_OK/GD32VW55X_Wifi_BLE_SDK/GD32VW55x_RELEASE_V1.0.2/MSDK/ble/app\app_list_mgr.c ****        this list of conditions and the following disclaimer in the documentation
  18:C:/Users/stapi/OneDrive/Desktop/GD32VW553/V1_MQTT_OK/GD32VW55X_Wifi_BLE_SDK/GD32VW55x_RELEASE_V1.0.2/MSDK/ble/app\app_list_mgr.c ****        and/or other materials provided with the distribution.
  19:C:/Users/stapi/OneDrive/Desktop/GD32VW553/V1_MQTT_OK/GD32VW55X_Wifi_BLE_SDK/GD32VW55x_RELEASE_V1.0.2/MSDK/ble/app\app_list_mgr.c ****     3. Neither the name of the copyright holder nor the names of its contributors
  20:C:/Users/stapi/OneDrive/Desktop/GD32VW553/V1_MQTT_OK/GD32VW55X_Wifi_BLE_SDK/GD32VW55x_RELEASE_V1.0.2/MSDK/ble/app\app_list_mgr.c ****        may be used to endorse or promote products derived from this software without
  21:C:/Users/stapi/OneDrive/Desktop/GD32VW553/V1_MQTT_OK/GD32VW55X_Wifi_BLE_SDK/GD32VW55x_RELEASE_V1.0.2/MSDK/ble/app\app_list_mgr.c ****        specific prior written permission.
  22:C:/Users/stapi/OneDrive/Desktop/GD32VW553/V1_MQTT_OK/GD32VW55X_Wifi_BLE_SDK/GD32VW55x_RELEASE_V1.0.2/MSDK/ble/app\app_list_mgr.c **** 
  23:C:/Users/stapi/OneDrive/Desktop/GD32VW553/V1_MQTT_OK/GD32VW55X_Wifi_BLE_SDK/GD32VW55x_RELEASE_V1.0.2/MSDK/ble/app\app_list_mgr.c ****     THIS SOFTWARE IS PROVIDED BY THE COPYRIGHT HOLDERS AND CONTRIBUTORS "AS IS"
  24:C:/Users/stapi/OneDrive/Desktop/GD32VW553/V1_MQTT_OK/GD32VW55X_Wifi_BLE_SDK/GD32VW55x_RELEASE_V1.0.2/MSDK/ble/app\app_list_mgr.c **** AND ANY EXPRESS OR IMPLIED WARRANTIES, INCLUDING, BUT NOT LIMITED TO, THE IMPLIED
  25:C:/Users/stapi/OneDrive/Desktop/GD32VW553/V1_MQTT_OK/GD32VW55X_Wifi_BLE_SDK/GD32VW55x_RELEASE_V1.0.2/MSDK/ble/app\app_list_mgr.c **** WARRANTIES OF MERCHANTABILITY AND FITNESS FOR A PARTICULAR PURPOSE ARE DISCLAIMED.
  26:C:/Users/stapi/OneDrive/Desktop/GD32VW553/V1_MQTT_OK/GD32VW55X_Wifi_BLE_SDK/GD32VW55x_RELEASE_V1.0.2/MSDK/ble/app\app_list_mgr.c **** IN NO EVENT SHALL THE COPYRIGHT HOLDER OR CONTRIBUTORS BE LIABLE FOR ANY DIRECT,
  27:C:/Users/stapi/OneDrive/Desktop/GD32VW553/V1_MQTT_OK/GD32VW55X_Wifi_BLE_SDK/GD32VW55x_RELEASE_V1.0.2/MSDK/ble/app\app_list_mgr.c **** INDIRECT, INCIDENTAL, SPECIAL, EXEMPLARY, OR CONSEQUENTIAL DAMAGES (INCLUDING, BUT
  28:C:/Users/stapi/OneDrive/Desktop/GD32VW553/V1_MQTT_OK/GD32VW55X_Wifi_BLE_SDK/GD32VW55x_RELEASE_V1.0.2/MSDK/ble/app\app_list_mgr.c **** NOT LIMITED TO, PROCUREMENT OF SUBSTITUTE GOODS OR SERVICES; LOSS OF USE, DATA, OR
  29:C:/Users/stapi/OneDrive/Desktop/GD32VW553/V1_MQTT_OK/GD32VW55X_Wifi_BLE_SDK/GD32VW55x_RELEASE_V1.0.2/MSDK/ble/app\app_list_mgr.c **** PROFITS; OR BUSINESS INTERRUPTION) HOWEVER CAUSED AND ON ANY THEORY OF LIABILITY,
  30:C:/Users/stapi/OneDrive/Desktop/GD32VW553/V1_MQTT_OK/GD32VW55X_Wifi_BLE_SDK/GD32VW55x_RELEASE_V1.0.2/MSDK/ble/app\app_list_mgr.c **** WHETHER IN CONTRACT, STRICT LIABILITY, OR TORT (INCLUDING NEGLIGENCE OR OTHERWISE)
  31:C:/Users/stapi/OneDrive/Desktop/GD32VW553/V1_MQTT_OK/GD32VW55X_Wifi_BLE_SDK/GD32VW55x_RELEASE_V1.0.2/MSDK/ble/app\app_list_mgr.c **** ARISING IN ANY WAY OUT OF THE USE OF THIS SOFTWARE, EVEN IF ADVISED OF THE POSSIBILITY
  32:C:/Users/stapi/OneDrive/Desktop/GD32VW553/V1_MQTT_OK/GD32VW55X_Wifi_BLE_SDK/GD32VW55x_RELEASE_V1.0.2/MSDK/ble/app\app_list_mgr.c **** OF SUCH DAMAGE.
  33:C:/Users/stapi/OneDrive/Desktop/GD32VW553/V1_MQTT_OK/GD32VW55X_Wifi_BLE_SDK/GD32VW55x_RELEASE_V1.0.2/MSDK/ble/app\app_list_mgr.c **** */
  34:C:/Users/stapi/OneDrive/Desktop/GD32VW553/V1_MQTT_OK/GD32VW55X_Wifi_BLE_SDK/GD32VW55x_RELEASE_V1.0.2/MSDK/ble/app\app_list_mgr.c **** 
  35:C:/Users/stapi/OneDrive/Desktop/GD32VW553/V1_MQTT_OK/GD32VW55X_Wifi_BLE_SDK/GD32VW55x_RELEASE_V1.0.2/MSDK/ble/app\app_list_mgr.c **** #include "ble_app_config.h"
  36:C:/Users/stapi/OneDrive/Desktop/GD32VW553/V1_MQTT_OK/GD32VW55X_Wifi_BLE_SDK/GD32VW55x_RELEASE_V1.0.2/MSDK/ble/app\app_list_mgr.c **** 
  37:C:/Users/stapi/OneDrive/Desktop/GD32VW553/V1_MQTT_OK/GD32VW55X_Wifi_BLE_SDK/GD32VW55x_RELEASE_V1.0.2/MSDK/ble/app\app_list_mgr.c **** #if (BLE_APP_SUPPORT)
  38:C:/Users/stapi/OneDrive/Desktop/GD32VW553/V1_MQTT_OK/GD32VW55X_Wifi_BLE_SDK/GD32VW55x_RELEASE_V1.0.2/MSDK/ble/app\app_list_mgr.c **** #include <string.h>
  39:C:/Users/stapi/OneDrive/Desktop/GD32VW553/V1_MQTT_OK/GD32VW55X_Wifi_BLE_SDK/GD32VW55x_RELEASE_V1.0.2/MSDK/ble/app\app_list_mgr.c **** 
  40:C:/Users/stapi/OneDrive/Desktop/GD32VW553/V1_MQTT_OK/GD32VW55X_Wifi_BLE_SDK/GD32VW55x_RELEASE_V1.0.2/MSDK/ble/app\app_list_mgr.c **** #include "ble_list.h"
  41:C:/Users/stapi/OneDrive/Desktop/GD32VW553/V1_MQTT_OK/GD32VW55X_Wifi_BLE_SDK/GD32VW55x_RELEASE_V1.0.2/MSDK/ble/app\app_list_mgr.c **** #include "wrapper_os.h"
  42:C:/Users/stapi/OneDrive/Desktop/GD32VW553/V1_MQTT_OK/GD32VW55X_Wifi_BLE_SDK/GD32VW55x_RELEASE_V1.0.2/MSDK/ble/app\app_list_mgr.c **** #include "app_dev_mgr.h"
  43:C:/Users/stapi/OneDrive/Desktop/GD32VW553/V1_MQTT_OK/GD32VW55X_Wifi_BLE_SDK/GD32VW55x_RELEASE_V1.0.2/MSDK/ble/app\app_list_mgr.c **** #include "app_per_sync_mgr.h"
  44:C:/Users/stapi/OneDrive/Desktop/GD32VW553/V1_MQTT_OK/GD32VW55X_Wifi_BLE_SDK/GD32VW55x_RELEASE_V1.0.2/MSDK/ble/app\app_list_mgr.c **** #include "app_list_mgr.h"
  45:C:/Users/stapi/OneDrive/Desktop/GD32VW553/V1_MQTT_OK/GD32VW55X_Wifi_BLE_SDK/GD32VW55x_RELEASE_V1.0.2/MSDK/ble/app\app_list_mgr.c **** #include "app_scan_mgr.h"
  46:C:/Users/stapi/OneDrive/Desktop/GD32VW553/V1_MQTT_OK/GD32VW55X_Wifi_BLE_SDK/GD32VW55x_RELEASE_V1.0.2/MSDK/ble/app\app_list_mgr.c **** #include "ble_adapter.h"
  47:C:/Users/stapi/OneDrive/Desktop/GD32VW553/V1_MQTT_OK/GD32VW55X_Wifi_BLE_SDK/GD32VW55x_RELEASE_V1.0.2/MSDK/ble/app\app_list_mgr.c **** #include "dbg_print.h"
  48:C:/Users/stapi/OneDrive/Desktop/GD32VW553/V1_MQTT_OK/GD32VW55X_Wifi_BLE_SDK/GD32VW55x_RELEASE_V1.0.2/MSDK/ble/app\app_list_mgr.c **** 
  49:C:/Users/stapi/OneDrive/Desktop/GD32VW553/V1_MQTT_OK/GD32VW55X_Wifi_BLE_SDK/GD32VW55x_RELEASE_V1.0.2/MSDK/ble/app\app_list_mgr.c **** /*!
  50:C:/Users/stapi/OneDrive/Desktop/GD32VW553/V1_MQTT_OK/GD32VW55X_Wifi_BLE_SDK/GD32VW55x_RELEASE_V1.0.2/MSDK/ble/app\app_list_mgr.c ****     \brief      Callback function to handle BLE list events
  51:C:/Users/stapi/OneDrive/Desktop/GD32VW553/V1_MQTT_OK/GD32VW55X_Wifi_BLE_SDK/GD32VW55x_RELEASE_V1.0.2/MSDK/ble/app\app_list_mgr.c ****     \param[in]  event: BLE list event type
  52:C:/Users/stapi/OneDrive/Desktop/GD32VW553/V1_MQTT_OK/GD32VW55X_Wifi_BLE_SDK/GD32VW55x_RELEASE_V1.0.2/MSDK/ble/app\app_list_mgr.c ****     \param[in]  p_data: pointer to BLE list event data
  53:C:/Users/stapi/OneDrive/Desktop/GD32VW553/V1_MQTT_OK/GD32VW55X_Wifi_BLE_SDK/GD32VW55x_RELEASE_V1.0.2/MSDK/ble/app\app_list_mgr.c ****     \param[out] none
  54:C:/Users/stapi/OneDrive/Desktop/GD32VW553/V1_MQTT_OK/GD32VW55X_Wifi_BLE_SDK/GD32VW55x_RELEASE_V1.0.2/MSDK/ble/app\app_list_mgr.c ****     \retval     none
  55:C:/Users/stapi/OneDrive/Desktop/GD32VW553/V1_MQTT_OK/GD32VW55X_Wifi_BLE_SDK/GD32VW55x_RELEASE_V1.0.2/MSDK/ble/app\app_list_mgr.c **** */
  56:C:/Users/stapi/OneDrive/Desktop/GD32VW553/V1_MQTT_OK/GD32VW55X_Wifi_BLE_SDK/GD32VW55x_RELEASE_V1.0.2/MSDK/ble/app\app_list_mgr.c **** static void ble_app_list_evt_handler(ble_list_evt_t event, ble_list_data_t *p_data)
  57:C:/Users/stapi/OneDrive/Desktop/GD32VW553/V1_MQTT_OK/GD32VW55X_Wifi_BLE_SDK/GD32VW55x_RELEASE_V1.0.2/MSDK/ble/app\app_list_mgr.c **** {
  19              		.loc 1 57 1
  20              		.cfi_startproc
  21              	.LVL0:
  58:C:/Users/stapi/OneDrive/Desktop/GD32VW553/V1_MQTT_OK/GD32VW55X_Wifi_BLE_SDK/GD32VW55x_RELEASE_V1.0.2/MSDK/ble/app\app_list_mgr.c ****     ble_device_t *p_dev;
  22              		.loc 1 58 5
  59:C:/Users/stapi/OneDrive/Desktop/GD32VW553/V1_MQTT_OK/GD32VW55X_Wifi_BLE_SDK/GD32VW55x_RELEASE_V1.0.2/MSDK/ble/app\app_list_mgr.c ****     uint8_t i;
  23              		.loc 1 59 5
  60:C:/Users/stapi/OneDrive/Desktop/GD32VW553/V1_MQTT_OK/GD32VW55X_Wifi_BLE_SDK/GD32VW55x_RELEASE_V1.0.2/MSDK/ble/app\app_list_mgr.c ****     switch (event) {
  24              		.loc 1 60 5
  25 0000 631C0522 		bne	a0,zero,.L50
  57:C:/Users/stapi/OneDrive/Desktop/GD32VW553/V1_MQTT_OK/GD32VW55X_Wifi_BLE_SDK/GD32VW55x_RELEASE_V1.0.2/MSDK/ble/app\app_list_mgr.c ****     ble_device_t *p_dev;
  26              		.loc 1 57 1 is_stmt 0
  27 0004 17030000 		call	t0,__riscv_save_6
  27      E7020300 
  28              		.cfi_offset 21, -28
  29              		.cfi_offset 20, -24
  30              		.cfi_offset 19, -20
  31              		.cfi_offset 18, -16
  32              		.cfi_offset 9, -12
  33              		.cfi_offset 8, -8
  34              		.cfi_offset 1, -4
  35              		.cfi_def_cfa_offset 32
  36 000c 2E84     		mv	s0,a1
  61:C:/Users/stapi/OneDrive/Desktop/GD32VW553/V1_MQTT_OK/GD32VW55X_Wifi_BLE_SDK/GD32VW55x_RELEASE_V1.0.2/MSDK/ble/app\app_list_mgr.c ****     case BLE_LIST_EVT_OP_RSP:
  62:C:/Users/stapi/OneDrive/Desktop/GD32VW553/V1_MQTT_OK/GD32VW55X_Wifi_BLE_SDK/GD32VW55x_RELEASE_V1.0.2/MSDK/ble/app\app_list_mgr.c ****         if (p_data->status != BLE_ERR_NO_ERROR) {
  37              		.loc 1 62 9 is_stmt 1
  38              		.loc 1 62 19 is_stmt 0
  39 000e 83D5A500 		lhu	a1,10(a1)
  40              	.LVL1:
  57:C:/Users/stapi/OneDrive/Desktop/GD32VW553/V1_MQTT_OK/GD32VW55X_Wifi_BLE_SDK/GD32VW55x_RELEASE_V1.0.2/MSDK/ble/app\app_list_mgr.c ****     ble_device_t *p_dev;
  41              		.loc 1 57 1
  42 0012 4111     		addi	sp,sp,-16
  43              		.cfi_def_cfa_offset 48
  44              		.loc 1 62 12
  45 0014 9DC5     		beq	a1,zero,.L4
  63:C:/Users/stapi/OneDrive/Desktop/GD32VW553/V1_MQTT_OK/GD32VW55X_Wifi_BLE_SDK/GD32VW55x_RELEASE_V1.0.2/MSDK/ble/app\app_list_mgr.c ****             dbg_print(NOTICE, "[ble_app_list_evt_handler] status %d type %u operation %u fail \r\n"
  46              		.loc 1 63 13 is_stmt 1
  47              		.loc 1 63 13
  48 0016 B7070000 		lui	a5,%hi(global_debug_level)
  49 001a 03C70700 		lbu	a4,%lo(global_debug_level)(a5)
  50 001e 8947     		li	a5,2
  51 0020 63FCE700 		bleu	a4,a5,.L1
  52              		.loc 1 63 13 discriminator 1
  53 0024 5440     		lw	a3,4(s0)
  54 0026 1040     		lw	a2,0(s0)
  55 0028 37050000 		lui	a0,%hi(.LC0)
  56              	.LVL2:
  57 002c 13050500 		addi	a0,a0,%lo(.LC0)
  58 0030 97000000 		call	co_printf
  58      E7800000 
  59              	.LVL3:
  60              	.L1:
  64:C:/Users/stapi/OneDrive/Desktop/GD32VW553/V1_MQTT_OK/GD32VW55X_Wifi_BLE_SDK/GD32VW55x_RELEASE_V1.0.2/MSDK/ble/app\app_list_mgr.c ****             break;
  65:C:/Users/stapi/OneDrive/Desktop/GD32VW553/V1_MQTT_OK/GD32VW55X_Wifi_BLE_SDK/GD32VW55x_RELEASE_V1.0.2/MSDK/ble/app\app_list_mgr.c ****         }
  66:C:/Users/stapi/OneDrive/Desktop/GD32VW553/V1_MQTT_OK/GD32VW55X_Wifi_BLE_SDK/GD32VW55x_RELEASE_V1.0.2/MSDK/ble/app\app_list_mgr.c **** 
  67:C:/Users/stapi/OneDrive/Desktop/GD32VW553/V1_MQTT_OK/GD32VW55X_Wifi_BLE_SDK/GD32VW55x_RELEASE_V1.0.2/MSDK/ble/app\app_list_mgr.c ****         if (p_data->list_type == BLE_FAL_TYPE) {
  68:C:/Users/stapi/OneDrive/Desktop/GD32VW553/V1_MQTT_OK/GD32VW55X_Wifi_BLE_SDK/GD32VW55x_RELEASE_V1.0.2/MSDK/ble/app\app_list_mgr.c ****             for (i = 0; i < p_data->num; i++) {
  69:C:/Users/stapi/OneDrive/Desktop/GD32VW553/V1_MQTT_OK/GD32VW55X_Wifi_BLE_SDK/GD32VW55x_RELEASE_V1.0.2/MSDK/ble/app\app_list_mgr.c ****                 if (p_data->op_type == ADD_DEVICE_TO_LIST) {
  70:C:/Users/stapi/OneDrive/Desktop/GD32VW553/V1_MQTT_OK/GD32VW55X_Wifi_BLE_SDK/GD32VW55x_RELEASE_V1.0.2/MSDK/ble/app\app_list_mgr.c ****                     p_dev = dm_find_alloc_dev_by_addr(p_data->data.p_fal_list[i]);
  71:C:/Users/stapi/OneDrive/Desktop/GD32VW553/V1_MQTT_OK/GD32VW55X_Wifi_BLE_SDK/GD32VW55x_RELEASE_V1.0.2/MSDK/ble/app\app_list_mgr.c **** 
  72:C:/Users/stapi/OneDrive/Desktop/GD32VW553/V1_MQTT_OK/GD32VW55X_Wifi_BLE_SDK/GD32VW55x_RELEASE_V1.0.2/MSDK/ble/app\app_list_mgr.c ****                     if (p_dev) {
  73:C:/Users/stapi/OneDrive/Desktop/GD32VW553/V1_MQTT_OK/GD32VW55X_Wifi_BLE_SDK/GD32VW55x_RELEASE_V1.0.2/MSDK/ble/app\app_list_mgr.c ****                         p_dev->in_wl = true;
  74:C:/Users/stapi/OneDrive/Desktop/GD32VW553/V1_MQTT_OK/GD32VW55X_Wifi_BLE_SDK/GD32VW55x_RELEASE_V1.0.2/MSDK/ble/app\app_list_mgr.c ****                     }
  75:C:/Users/stapi/OneDrive/Desktop/GD32VW553/V1_MQTT_OK/GD32VW55X_Wifi_BLE_SDK/GD32VW55x_RELEASE_V1.0.2/MSDK/ble/app\app_list_mgr.c ****                 } else if (p_data->op_type == RMV_DEVICE_FROM_LIST ||
  76:C:/Users/stapi/OneDrive/Desktop/GD32VW553/V1_MQTT_OK/GD32VW55X_Wifi_BLE_SDK/GD32VW55x_RELEASE_V1.0.2/MSDK/ble/app\app_list_mgr.c ****                            p_data->op_type == CLEAR_DEVICE_LIST) {
  77:C:/Users/stapi/OneDrive/Desktop/GD32VW553/V1_MQTT_OK/GD32VW55X_Wifi_BLE_SDK/GD32VW55x_RELEASE_V1.0.2/MSDK/ble/app\app_list_mgr.c ****                     p_dev = dm_find_dev_by_addr(p_data->data.p_fal_list[i]);
  78:C:/Users/stapi/OneDrive/Desktop/GD32VW553/V1_MQTT_OK/GD32VW55X_Wifi_BLE_SDK/GD32VW55x_RELEASE_V1.0.2/MSDK/ble/app\app_list_mgr.c **** 
  79:C:/Users/stapi/OneDrive/Desktop/GD32VW553/V1_MQTT_OK/GD32VW55X_Wifi_BLE_SDK/GD32VW55x_RELEASE_V1.0.2/MSDK/ble/app\app_list_mgr.c ****                     if (p_dev) {
  80:C:/Users/stapi/OneDrive/Desktop/GD32VW553/V1_MQTT_OK/GD32VW55X_Wifi_BLE_SDK/GD32VW55x_RELEASE_V1.0.2/MSDK/ble/app\app_list_mgr.c ****                         p_dev->in_wl = false;
  81:C:/Users/stapi/OneDrive/Desktop/GD32VW553/V1_MQTT_OK/GD32VW55X_Wifi_BLE_SDK/GD32VW55x_RELEASE_V1.0.2/MSDK/ble/app\app_list_mgr.c ****                     }
  82:C:/Users/stapi/OneDrive/Desktop/GD32VW553/V1_MQTT_OK/GD32VW55X_Wifi_BLE_SDK/GD32VW55x_RELEASE_V1.0.2/MSDK/ble/app\app_list_mgr.c ****                 }
  83:C:/Users/stapi/OneDrive/Desktop/GD32VW553/V1_MQTT_OK/GD32VW55X_Wifi_BLE_SDK/GD32VW55x_RELEASE_V1.0.2/MSDK/ble/app\app_list_mgr.c ****             }
  84:C:/Users/stapi/OneDrive/Desktop/GD32VW553/V1_MQTT_OK/GD32VW55X_Wifi_BLE_SDK/GD32VW55x_RELEASE_V1.0.2/MSDK/ble/app\app_list_mgr.c ****         } else if (p_data->list_type == BLE_RAL_TYPE) {
  85:C:/Users/stapi/OneDrive/Desktop/GD32VW553/V1_MQTT_OK/GD32VW55X_Wifi_BLE_SDK/GD32VW55x_RELEASE_V1.0.2/MSDK/ble/app\app_list_mgr.c ****             for (i = 0; i < p_data->num; i++) {
  86:C:/Users/stapi/OneDrive/Desktop/GD32VW553/V1_MQTT_OK/GD32VW55X_Wifi_BLE_SDK/GD32VW55x_RELEASE_V1.0.2/MSDK/ble/app\app_list_mgr.c ****                 if (p_data->op_type == ADD_DEVICE_TO_LIST) {
  87:C:/Users/stapi/OneDrive/Desktop/GD32VW553/V1_MQTT_OK/GD32VW55X_Wifi_BLE_SDK/GD32VW55x_RELEASE_V1.0.2/MSDK/ble/app\app_list_mgr.c ****                     p_dev = dm_find_alloc_dev_by_addr(p_data->data.p_ral_list[i].addr);
  88:C:/Users/stapi/OneDrive/Desktop/GD32VW553/V1_MQTT_OK/GD32VW55X_Wifi_BLE_SDK/GD32VW55x_RELEASE_V1.0.2/MSDK/ble/app\app_list_mgr.c **** 
  89:C:/Users/stapi/OneDrive/Desktop/GD32VW553/V1_MQTT_OK/GD32VW55X_Wifi_BLE_SDK/GD32VW55x_RELEASE_V1.0.2/MSDK/ble/app\app_list_mgr.c ****                     if (p_dev) {
  90:C:/Users/stapi/OneDrive/Desktop/GD32VW553/V1_MQTT_OK/GD32VW55X_Wifi_BLE_SDK/GD32VW55x_RELEASE_V1.0.2/MSDK/ble/app\app_list_mgr.c ****                         p_dev->in_ral = true;
  91:C:/Users/stapi/OneDrive/Desktop/GD32VW553/V1_MQTT_OK/GD32VW55X_Wifi_BLE_SDK/GD32VW55x_RELEASE_V1.0.2/MSDK/ble/app\app_list_mgr.c ****                     }
  92:C:/Users/stapi/OneDrive/Desktop/GD32VW553/V1_MQTT_OK/GD32VW55X_Wifi_BLE_SDK/GD32VW55x_RELEASE_V1.0.2/MSDK/ble/app\app_list_mgr.c ****                 } else if (p_data->op_type == RMV_DEVICE_FROM_LIST ||
  93:C:/Users/stapi/OneDrive/Desktop/GD32VW553/V1_MQTT_OK/GD32VW55X_Wifi_BLE_SDK/GD32VW55x_RELEASE_V1.0.2/MSDK/ble/app\app_list_mgr.c ****                            p_data->op_type == CLEAR_DEVICE_LIST) {
  94:C:/Users/stapi/OneDrive/Desktop/GD32VW553/V1_MQTT_OK/GD32VW55X_Wifi_BLE_SDK/GD32VW55x_RELEASE_V1.0.2/MSDK/ble/app\app_list_mgr.c ****                     p_dev = dm_find_dev_by_addr(p_data->data.p_ral_list[i].addr);
  95:C:/Users/stapi/OneDrive/Desktop/GD32VW553/V1_MQTT_OK/GD32VW55X_Wifi_BLE_SDK/GD32VW55x_RELEASE_V1.0.2/MSDK/ble/app\app_list_mgr.c **** 
  96:C:/Users/stapi/OneDrive/Desktop/GD32VW553/V1_MQTT_OK/GD32VW55X_Wifi_BLE_SDK/GD32VW55x_RELEASE_V1.0.2/MSDK/ble/app\app_list_mgr.c ****                     if (p_dev) {
  97:C:/Users/stapi/OneDrive/Desktop/GD32VW553/V1_MQTT_OK/GD32VW55X_Wifi_BLE_SDK/GD32VW55x_RELEASE_V1.0.2/MSDK/ble/app\app_list_mgr.c ****                         p_dev->in_ral = false;
  98:C:/Users/stapi/OneDrive/Desktop/GD32VW553/V1_MQTT_OK/GD32VW55X_Wifi_BLE_SDK/GD32VW55x_RELEASE_V1.0.2/MSDK/ble/app\app_list_mgr.c ****                     }
  99:C:/Users/stapi/OneDrive/Desktop/GD32VW553/V1_MQTT_OK/GD32VW55X_Wifi_BLE_SDK/GD32VW55x_RELEASE_V1.0.2/MSDK/ble/app\app_list_mgr.c ****                 }
 100:C:/Users/stapi/OneDrive/Desktop/GD32VW553/V1_MQTT_OK/GD32VW55X_Wifi_BLE_SDK/GD32VW55x_RELEASE_V1.0.2/MSDK/ble/app\app_list_mgr.c ****             }
 101:C:/Users/stapi/OneDrive/Desktop/GD32VW553/V1_MQTT_OK/GD32VW55X_Wifi_BLE_SDK/GD32VW55x_RELEASE_V1.0.2/MSDK/ble/app\app_list_mgr.c ****         } else {
 102:C:/Users/stapi/OneDrive/Desktop/GD32VW553/V1_MQTT_OK/GD32VW55X_Wifi_BLE_SDK/GD32VW55x_RELEASE_V1.0.2/MSDK/ble/app\app_list_mgr.c ****             #if BLE_APP_PER_ADV_SUPPORT
 103:C:/Users/stapi/OneDrive/Desktop/GD32VW553/V1_MQTT_OK/GD32VW55X_Wifi_BLE_SDK/GD32VW55x_RELEASE_V1.0.2/MSDK/ble/app\app_list_mgr.c ****             per_dev_info_t *p_sync_dev;
 104:C:/Users/stapi/OneDrive/Desktop/GD32VW553/V1_MQTT_OK/GD32VW55X_Wifi_BLE_SDK/GD32VW55x_RELEASE_V1.0.2/MSDK/ble/app\app_list_mgr.c ****             ble_gap_addr_t peer_addr;
 105:C:/Users/stapi/OneDrive/Desktop/GD32VW553/V1_MQTT_OK/GD32VW55X_Wifi_BLE_SDK/GD32VW55x_RELEASE_V1.0.2/MSDK/ble/app\app_list_mgr.c ****             for (i = 0; i < p_data->num; i++) {
 106:C:/Users/stapi/OneDrive/Desktop/GD32VW553/V1_MQTT_OK/GD32VW55X_Wifi_BLE_SDK/GD32VW55x_RELEASE_V1.0.2/MSDK/ble/app\app_list_mgr.c ****                 memcpy(peer_addr.addr, p_data->data.p_pal_list[i].addr, BLE_GAP_ADDR_LEN);
 107:C:/Users/stapi/OneDrive/Desktop/GD32VW553/V1_MQTT_OK/GD32VW55X_Wifi_BLE_SDK/GD32VW55x_RELEASE_V1.0.2/MSDK/ble/app\app_list_mgr.c ****                 peer_addr.addr_type = p_data->data.p_pal_list[i].addr_type;
 108:C:/Users/stapi/OneDrive/Desktop/GD32VW553/V1_MQTT_OK/GD32VW55X_Wifi_BLE_SDK/GD32VW55x_RELEASE_V1.0.2/MSDK/ble/app\app_list_mgr.c ****                 if (p_data->op_type == ADD_DEVICE_TO_LIST) {
 109:C:/Users/stapi/OneDrive/Desktop/GD32VW553/V1_MQTT_OK/GD32VW55X_Wifi_BLE_SDK/GD32VW55x_RELEASE_V1.0.2/MSDK/ble/app\app_list_mgr.c ****                     p_sync_dev = ble_per_sync_mgr_find_alloc_device(&peer_addr, p_data->data.p_pal_
 110:C:/Users/stapi/OneDrive/Desktop/GD32VW553/V1_MQTT_OK/GD32VW55X_Wifi_BLE_SDK/GD32VW55x_RELEASE_V1.0.2/MSDK/ble/app\app_list_mgr.c **** 
 111:C:/Users/stapi/OneDrive/Desktop/GD32VW553/V1_MQTT_OK/GD32VW55X_Wifi_BLE_SDK/GD32VW55x_RELEASE_V1.0.2/MSDK/ble/app\app_list_mgr.c ****                     if (p_sync_dev) {
 112:C:/Users/stapi/OneDrive/Desktop/GD32VW553/V1_MQTT_OK/GD32VW55X_Wifi_BLE_SDK/GD32VW55x_RELEASE_V1.0.2/MSDK/ble/app\app_list_mgr.c ****                         p_sync_dev->in_pal = true;
 113:C:/Users/stapi/OneDrive/Desktop/GD32VW553/V1_MQTT_OK/GD32VW55X_Wifi_BLE_SDK/GD32VW55x_RELEASE_V1.0.2/MSDK/ble/app\app_list_mgr.c ****                     }
 114:C:/Users/stapi/OneDrive/Desktop/GD32VW553/V1_MQTT_OK/GD32VW55X_Wifi_BLE_SDK/GD32VW55x_RELEASE_V1.0.2/MSDK/ble/app\app_list_mgr.c ****                 } else if (p_data->op_type == RMV_DEVICE_FROM_LIST ||
 115:C:/Users/stapi/OneDrive/Desktop/GD32VW553/V1_MQTT_OK/GD32VW55X_Wifi_BLE_SDK/GD32VW55x_RELEASE_V1.0.2/MSDK/ble/app\app_list_mgr.c ****                            p_data->op_type == CLEAR_DEVICE_LIST) {
 116:C:/Users/stapi/OneDrive/Desktop/GD32VW553/V1_MQTT_OK/GD32VW55X_Wifi_BLE_SDK/GD32VW55x_RELEASE_V1.0.2/MSDK/ble/app\app_list_mgr.c ****                     p_sync_dev = ble_per_sync_mgr_find_device(&peer_addr, p_data->data.p_pal_list[i
 117:C:/Users/stapi/OneDrive/Desktop/GD32VW553/V1_MQTT_OK/GD32VW55X_Wifi_BLE_SDK/GD32VW55x_RELEASE_V1.0.2/MSDK/ble/app\app_list_mgr.c ****                     if (p_sync_dev) {
 118:C:/Users/stapi/OneDrive/Desktop/GD32VW553/V1_MQTT_OK/GD32VW55X_Wifi_BLE_SDK/GD32VW55x_RELEASE_V1.0.2/MSDK/ble/app\app_list_mgr.c ****                         p_sync_dev->in_pal = false;
 119:C:/Users/stapi/OneDrive/Desktop/GD32VW553/V1_MQTT_OK/GD32VW55X_Wifi_BLE_SDK/GD32VW55x_RELEASE_V1.0.2/MSDK/ble/app\app_list_mgr.c ****                     }
 120:C:/Users/stapi/OneDrive/Desktop/GD32VW553/V1_MQTT_OK/GD32VW55X_Wifi_BLE_SDK/GD32VW55x_RELEASE_V1.0.2/MSDK/ble/app\app_list_mgr.c ****                 }
 121:C:/Users/stapi/OneDrive/Desktop/GD32VW553/V1_MQTT_OK/GD32VW55X_Wifi_BLE_SDK/GD32VW55x_RELEASE_V1.0.2/MSDK/ble/app\app_list_mgr.c ****             }
 122:C:/Users/stapi/OneDrive/Desktop/GD32VW553/V1_MQTT_OK/GD32VW55X_Wifi_BLE_SDK/GD32VW55x_RELEASE_V1.0.2/MSDK/ble/app\app_list_mgr.c ****             #endif
 123:C:/Users/stapi/OneDrive/Desktop/GD32VW553/V1_MQTT_OK/GD32VW55X_Wifi_BLE_SDK/GD32VW55x_RELEASE_V1.0.2/MSDK/ble/app\app_list_mgr.c ****         }
 124:C:/Users/stapi/OneDrive/Desktop/GD32VW553/V1_MQTT_OK/GD32VW55X_Wifi_BLE_SDK/GD32VW55x_RELEASE_V1.0.2/MSDK/ble/app\app_list_mgr.c ****         break;
 125:C:/Users/stapi/OneDrive/Desktop/GD32VW553/V1_MQTT_OK/GD32VW55X_Wifi_BLE_SDK/GD32VW55x_RELEASE_V1.0.2/MSDK/ble/app\app_list_mgr.c ****     default:
 126:C:/Users/stapi/OneDrive/Desktop/GD32VW553/V1_MQTT_OK/GD32VW55X_Wifi_BLE_SDK/GD32VW55x_RELEASE_V1.0.2/MSDK/ble/app\app_list_mgr.c ****         break;
 127:C:/Users/stapi/OneDrive/Desktop/GD32VW553/V1_MQTT_OK/GD32VW55X_Wifi_BLE_SDK/GD32VW55x_RELEASE_V1.0.2/MSDK/ble/app\app_list_mgr.c ****     }
 128:C:/Users/stapi/OneDrive/Desktop/GD32VW553/V1_MQTT_OK/GD32VW55X_Wifi_BLE_SDK/GD32VW55x_RELEASE_V1.0.2/MSDK/ble/app\app_list_mgr.c **** }
  61              		.loc 1 128 1 is_stmt 0
  62 0038 4101     		addi	sp,sp,16
  63              		.cfi_remember_state
  64              		.cfi_def_cfa_offset 0
  65 003a 17030000 		tail	__riscv_restore_6
  65      67000300 
  66              		.cfi_restore 21
  67              		.cfi_restore 20
  68              		.cfi_restore 19
  69              		.cfi_restore 18
  70              		.cfi_restore 9
  71              		.cfi_restore 8
  72              		.cfi_restore 1
  73              		.cfi_def_cfa_offset -32
  74              	.LVL4:
  75              	.L4:
  76              		.cfi_restore_state
  77              	.LBB6:
  78              	.LBB7:
  67:C:/Users/stapi/OneDrive/Desktop/GD32VW553/V1_MQTT_OK/GD32VW55X_Wifi_BLE_SDK/GD32VW55x_RELEASE_V1.0.2/MSDK/ble/app\app_list_mgr.c ****             for (i = 0; i < p_data->num; i++) {
  79              		.loc 1 67 9 is_stmt 1
  67:C:/Users/stapi/OneDrive/Desktop/GD32VW553/V1_MQTT_OK/GD32VW55X_Wifi_BLE_SDK/GD32VW55x_RELEASE_V1.0.2/MSDK/ble/app\app_list_mgr.c ****             for (i = 0; i < p_data->num; i++) {
  80              		.loc 1 67 19 is_stmt 0
  81 0042 1C40     		lw	a5,0(s0)
  67:C:/Users/stapi/OneDrive/Desktop/GD32VW553/V1_MQTT_OK/GD32VW55X_Wifi_BLE_SDK/GD32VW55x_RELEASE_V1.0.2/MSDK/ble/app\app_list_mgr.c ****             for (i = 0; i < p_data->num; i++) {
  82              		.loc 1 67 12
  83 0044 0547     		li	a4,1
  84 0046 6391E70C 		bne	a5,a4,.L48
  77:C:/Users/stapi/OneDrive/Desktop/GD32VW553/V1_MQTT_OK/GD32VW55X_Wifi_BLE_SDK/GD32VW55x_RELEASE_V1.0.2/MSDK/ble/app\app_list_mgr.c **** 
  85              		.loc 1 77 29
  86 004a 37090001 		li	s2,16777216
  68:C:/Users/stapi/OneDrive/Desktop/GD32VW553/V1_MQTT_OK/GD32VW55X_Wifi_BLE_SDK/GD32VW55x_RELEASE_V1.0.2/MSDK/ble/app\app_list_mgr.c ****                 if (p_data->op_type == ADD_DEVICE_TO_LIST) {
  87              		.loc 1 68 20
  88 004e 8144     		li	s1,0
  69:C:/Users/stapi/OneDrive/Desktop/GD32VW553/V1_MQTT_OK/GD32VW55X_Wifi_BLE_SDK/GD32VW55x_RELEASE_V1.0.2/MSDK/ble/app\app_list_mgr.c ****                     p_dev = dm_find_alloc_dev_by_addr(p_data->data.p_fal_list[i]);
  89              		.loc 1 69 20
  90 0050 8549     		li	s3,1
  77:C:/Users/stapi/OneDrive/Desktop/GD32VW553/V1_MQTT_OK/GD32VW55X_Wifi_BLE_SDK/GD32VW55x_RELEASE_V1.0.2/MSDK/ble/app\app_list_mgr.c **** 
  91              		.loc 1 77 29
  92 0052 1D4A     		li	s4,7
  93 0054 7D19     		addi	s2,s2,-1
  75:C:/Users/stapi/OneDrive/Desktop/GD32VW553/V1_MQTT_OK/GD32VW55X_Wifi_BLE_SDK/GD32VW55x_RELEASE_V1.0.2/MSDK/ble/app\app_list_mgr.c ****                            p_data->op_type == CLEAR_DEVICE_LIST) {
  94              		.loc 1 75 68
  95 0056 8D4A     		li	s5,3
  96 0058 99A8     		j	.L6
  97              	.LVL5:
  98              	.L13:
  69:C:/Users/stapi/OneDrive/Desktop/GD32VW553/V1_MQTT_OK/GD32VW55X_Wifi_BLE_SDK/GD32VW55x_RELEASE_V1.0.2/MSDK/ble/app\app_list_mgr.c ****                     p_dev = dm_find_alloc_dev_by_addr(p_data->data.p_fal_list[i]);
  99              		.loc 1 69 17 is_stmt 1
  69:C:/Users/stapi/OneDrive/Desktop/GD32VW553/V1_MQTT_OK/GD32VW55X_Wifi_BLE_SDK/GD32VW55x_RELEASE_V1.0.2/MSDK/ble/app\app_list_mgr.c ****                     p_dev = dm_find_alloc_dev_by_addr(p_data->data.p_fal_list[i]);
 100              		.loc 1 69 27 is_stmt 0
 101 005a 5C40     		lw	a5,4(s0)
  69:C:/Users/stapi/OneDrive/Desktop/GD32VW553/V1_MQTT_OK/GD32VW55X_Wifi_BLE_SDK/GD32VW55x_RELEASE_V1.0.2/MSDK/ble/app\app_list_mgr.c ****                     p_dev = dm_find_alloc_dev_by_addr(p_data->data.p_fal_list[i]);
 102              		.loc 1 69 20
 103 005c 639E3705 		bne	a5,s3,.L8
  70:C:/Users/stapi/OneDrive/Desktop/GD32VW553/V1_MQTT_OK/GD32VW55X_Wifi_BLE_SDK/GD32VW55x_RELEASE_V1.0.2/MSDK/ble/app\app_list_mgr.c **** 
 104              		.loc 1 70 21 is_stmt 1
  70:C:/Users/stapi/OneDrive/Desktop/GD32VW553/V1_MQTT_OK/GD32VW55X_Wifi_BLE_SDK/GD32VW55x_RELEASE_V1.0.2/MSDK/ble/app\app_list_mgr.c **** 
 105              		.loc 1 70 29 is_stmt 0
 106 0060 5C44     		lw	a5,12(s0)
 107 0062 FF9744C5 		maddr32	a5, s1, s4
 108 0066 03C51700 		lbu	a0,1(a5)
 109 006a 03C70700 		lbu	a4,0(a5)
 110 006e 83C55700 		lbu	a1,5(a5)
 111 0072 2205     		slli	a0,a0,8
 112 0074 598D     		or	a0,a0,a4
 113 0076 83C64700 		lbu	a3,4(a5)
 114 007a 03C72700 		lbu	a4,2(a5)
 115 007e A205     		slli	a1,a1,8
 116 0080 CD8E     		or	a3,a1,a3
 117 0082 4207     		slli	a4,a4,16
 118 0084 83C56700 		lbu	a1,6(a5)
 119 0088 498F     		or	a4,a4,a0
 120 008a 03C53700 		lbu	a0,3(a5)
 121 008e C205     		slli	a1,a1,16
 122 0090 D58D     		or	a1,a1,a3
 123 0092 6205     		slli	a0,a0,24
 124 0094 598D     		or	a0,a0,a4
 125 0096 B3F52501 		and	a1,a1,s2
 126 009a 97000000 		call	dm_find_alloc_dev_by_addr
 126      E7800000 
 127              	.LVL6:
  72:C:/Users/stapi/OneDrive/Desktop/GD32VW553/V1_MQTT_OK/GD32VW55X_Wifi_BLE_SDK/GD32VW55x_RELEASE_V1.0.2/MSDK/ble/app\app_list_mgr.c ****                         p_dev->in_wl = true;
 128              		.loc 1 72 21 is_stmt 1
  72:C:/Users/stapi/OneDrive/Desktop/GD32VW553/V1_MQTT_OK/GD32VW55X_Wifi_BLE_SDK/GD32VW55x_RELEASE_V1.0.2/MSDK/ble/app\app_list_mgr.c ****                         p_dev->in_wl = true;
 129              		.loc 1 72 24 is_stmt 0
 130 00a2 19C1     		beq	a0,zero,.L10
  73:C:/Users/stapi/OneDrive/Desktop/GD32VW553/V1_MQTT_OK/GD32VW55X_Wifi_BLE_SDK/GD32VW55x_RELEASE_V1.0.2/MSDK/ble/app\app_list_mgr.c ****                     }
 131              		.loc 1 73 25 is_stmt 1
  73:C:/Users/stapi/OneDrive/Desktop/GD32VW553/V1_MQTT_OK/GD32VW55X_Wifi_BLE_SDK/GD32VW55x_RELEASE_V1.0.2/MSDK/ble/app\app_list_mgr.c ****                     }
 132              		.loc 1 73 38 is_stmt 0
 133 00a4 A30A3501 		sb	s3,21(a0)
 134              	.LVL7:
 135              	.L10:
  68:C:/Users/stapi/OneDrive/Desktop/GD32VW553/V1_MQTT_OK/GD32VW55X_Wifi_BLE_SDK/GD32VW55x_RELEASE_V1.0.2/MSDK/ble/app\app_list_mgr.c ****                 if (p_data->op_type == ADD_DEVICE_TO_LIST) {
 136              		.loc 1 68 42 is_stmt 1
  68:C:/Users/stapi/OneDrive/Desktop/GD32VW553/V1_MQTT_OK/GD32VW55X_Wifi_BLE_SDK/GD32VW55x_RELEASE_V1.0.2/MSDK/ble/app\app_list_mgr.c ****                 if (p_data->op_type == ADD_DEVICE_TO_LIST) {
 137              		.loc 1 68 43 is_stmt 0
 138 00a8 8504     		addi	s1,s1,1
 139              	.LVL8:
 140 00aa 93F4F40F 		andi	s1,s1,0xff
 141              	.LVL9:
 142              	.L6:
  68:C:/Users/stapi/OneDrive/Desktop/GD32VW553/V1_MQTT_OK/GD32VW55X_Wifi_BLE_SDK/GD32VW55x_RELEASE_V1.0.2/MSDK/ble/app\app_list_mgr.c ****                 if (p_data->op_type == ADD_DEVICE_TO_LIST) {
 143              		.loc 1 68 25 is_stmt 1
  68:C:/Users/stapi/OneDrive/Desktop/GD32VW553/V1_MQTT_OK/GD32VW55X_Wifi_BLE_SDK/GD32VW55x_RELEASE_V1.0.2/MSDK/ble/app\app_list_mgr.c ****                 if (p_data->op_type == ADD_DEVICE_TO_LIST) {
 144              		.loc 1 68 13 is_stmt 0
 145 00ae 83478400 		lbu	a5,8(s0)
 146 00b2 E3E4F4FA 		bgtu	a5,s1,.L13
 147 00b6 49B7     		j	.L1
 148              	.L8:
  75:C:/Users/stapi/OneDrive/Desktop/GD32VW553/V1_MQTT_OK/GD32VW55X_Wifi_BLE_SDK/GD32VW55x_RELEASE_V1.0.2/MSDK/ble/app\app_list_mgr.c ****                            p_data->op_type == CLEAR_DEVICE_LIST) {
 149              		.loc 1 75 24 is_stmt 1
  75:C:/Users/stapi/OneDrive/Desktop/GD32VW553/V1_MQTT_OK/GD32VW55X_Wifi_BLE_SDK/GD32VW55x_RELEASE_V1.0.2/MSDK/ble/app\app_list_mgr.c ****                            p_data->op_type == CLEAR_DEVICE_LIST) {
 150              		.loc 1 75 27 is_stmt 0
 151 00b8 99C3     		beq	a5,zero,.L11
  75:C:/Users/stapi/OneDrive/Desktop/GD32VW553/V1_MQTT_OK/GD32VW55X_Wifi_BLE_SDK/GD32VW55x_RELEASE_V1.0.2/MSDK/ble/app\app_list_mgr.c ****                            p_data->op_type == CLEAR_DEVICE_LIST) {
 152              		.loc 1 75 68
 153 00ba E39757FF 		bne	a5,s5,.L10
 154              	.L11:
  77:C:/Users/stapi/OneDrive/Desktop/GD32VW553/V1_MQTT_OK/GD32VW55X_Wifi_BLE_SDK/GD32VW55x_RELEASE_V1.0.2/MSDK/ble/app\app_list_mgr.c **** 
 155              		.loc 1 77 21 is_stmt 1
  77:C:/Users/stapi/OneDrive/Desktop/GD32VW553/V1_MQTT_OK/GD32VW55X_Wifi_BLE_SDK/GD32VW55x_RELEASE_V1.0.2/MSDK/ble/app\app_list_mgr.c **** 
 156              		.loc 1 77 29 is_stmt 0
 157 00be 5C44     		lw	a5,12(s0)
 158 00c0 FF9744C5 		maddr32	a5, s1, s4
 159 00c4 03C51700 		lbu	a0,1(a5)
 160 00c8 03C70700 		lbu	a4,0(a5)
 161 00cc 83C55700 		lbu	a1,5(a5)
 162 00d0 2205     		slli	a0,a0,8
 163 00d2 598D     		or	a0,a0,a4
 164 00d4 83C64700 		lbu	a3,4(a5)
 165 00d8 03C72700 		lbu	a4,2(a5)
 166 00dc A205     		slli	a1,a1,8
 167 00de CD8E     		or	a3,a1,a3
 168 00e0 4207     		slli	a4,a4,16
 169 00e2 83C56700 		lbu	a1,6(a5)
 170 00e6 498F     		or	a4,a4,a0
 171 00e8 03C53700 		lbu	a0,3(a5)
 172 00ec C205     		slli	a1,a1,16
 173 00ee D58D     		or	a1,a1,a3
 174 00f0 6205     		slli	a0,a0,24
 175 00f2 598D     		or	a0,a0,a4
 176 00f4 B3F52501 		and	a1,a1,s2
 177 00f8 97000000 		call	dm_find_dev_by_addr
 177      E7800000 
 178              	.LVL10:
  79:C:/Users/stapi/OneDrive/Desktop/GD32VW553/V1_MQTT_OK/GD32VW55X_Wifi_BLE_SDK/GD32VW55x_RELEASE_V1.0.2/MSDK/ble/app\app_list_mgr.c ****                         p_dev->in_wl = false;
 179              		.loc 1 79 21 is_stmt 1
  79:C:/Users/stapi/OneDrive/Desktop/GD32VW553/V1_MQTT_OK/GD32VW55X_Wifi_BLE_SDK/GD32VW55x_RELEASE_V1.0.2/MSDK/ble/app\app_list_mgr.c ****                         p_dev->in_wl = false;
 180              		.loc 1 79 24 is_stmt 0
 181 0100 45D5     		beq	a0,zero,.L10
  80:C:/Users/stapi/OneDrive/Desktop/GD32VW553/V1_MQTT_OK/GD32VW55X_Wifi_BLE_SDK/GD32VW55x_RELEASE_V1.0.2/MSDK/ble/app\app_list_mgr.c ****                     }
 182              		.loc 1 80 25 is_stmt 1
  80:C:/Users/stapi/OneDrive/Desktop/GD32VW553/V1_MQTT_OK/GD32VW55X_Wifi_BLE_SDK/GD32VW55x_RELEASE_V1.0.2/MSDK/ble/app\app_list_mgr.c ****                     }
 183              		.loc 1 80 38 is_stmt 0
 184 0102 A30A0500 		sb	zero,21(a0)
 185 0106 4DB7     		j	.L10
 186              	.LVL11:
 187              	.L48:
  84:C:/Users/stapi/OneDrive/Desktop/GD32VW553/V1_MQTT_OK/GD32VW55X_Wifi_BLE_SDK/GD32VW55x_RELEASE_V1.0.2/MSDK/ble/app\app_list_mgr.c ****             for (i = 0; i < p_data->num; i++) {
 188              		.loc 1 84 16 is_stmt 1
  84:C:/Users/stapi/OneDrive/Desktop/GD32VW553/V1_MQTT_OK/GD32VW55X_Wifi_BLE_SDK/GD32VW55x_RELEASE_V1.0.2/MSDK/ble/app\app_list_mgr.c ****             for (i = 0; i < p_data->num; i++) {
 189              		.loc 1 84 19 is_stmt 0
 190 0108 0947     		li	a4,2
  85:C:/Users/stapi/OneDrive/Desktop/GD32VW553/V1_MQTT_OK/GD32VW55X_Wifi_BLE_SDK/GD32VW55x_RELEASE_V1.0.2/MSDK/ble/app\app_list_mgr.c ****                 if (p_data->op_type == ADD_DEVICE_TO_LIST) {
 191              		.loc 1 85 20
 192 010a 8144     		li	s1,0
  86:C:/Users/stapi/OneDrive/Desktop/GD32VW553/V1_MQTT_OK/GD32VW55X_Wifi_BLE_SDK/GD32VW55x_RELEASE_V1.0.2/MSDK/ble/app\app_list_mgr.c ****                     p_dev = dm_find_alloc_dev_by_addr(p_data->data.p_ral_list[i].addr);
 193              		.loc 1 86 20
 194 010c 8549     		li	s3,1
 195              	.LBB8:
 114:C:/Users/stapi/OneDrive/Desktop/GD32VW553/V1_MQTT_OK/GD32VW55X_Wifi_BLE_SDK/GD32VW55x_RELEASE_V1.0.2/MSDK/ble/app\app_list_mgr.c ****                            p_data->op_type == CLEAR_DEVICE_LIST) {
 196              		.loc 1 114 68
 197 010e 0D4A     		li	s4,3
 198              	.LBE8:
  84:C:/Users/stapi/OneDrive/Desktop/GD32VW553/V1_MQTT_OK/GD32VW55X_Wifi_BLE_SDK/GD32VW55x_RELEASE_V1.0.2/MSDK/ble/app\app_list_mgr.c ****             for (i = 0; i < p_data->num; i++) {
 199              		.loc 1 84 19
 200 0110 6391E710 		bne	a5,a4,.L15
  94:C:/Users/stapi/OneDrive/Desktop/GD32VW553/V1_MQTT_OK/GD32VW55X_Wifi_BLE_SDK/GD32VW55x_RELEASE_V1.0.2/MSDK/ble/app\app_list_mgr.c **** 
 201              		.loc 1 94 29
 202 0114 37090001 		li	s2,16777216
 203 0118 130A8002 		li	s4,40
 204 011c 7D19     		addi	s2,s2,-1
  92:C:/Users/stapi/OneDrive/Desktop/GD32VW553/V1_MQTT_OK/GD32VW55X_Wifi_BLE_SDK/GD32VW55x_RELEASE_V1.0.2/MSDK/ble/app\app_list_mgr.c ****                            p_data->op_type == CLEAR_DEVICE_LIST) {
 205              		.loc 1 92 68
 206 011e 8D4A     		li	s5,3
 207 0120 99A8     		j	.L14
 208              	.LVL12:
 209              	.L21:
  86:C:/Users/stapi/OneDrive/Desktop/GD32VW553/V1_MQTT_OK/GD32VW55X_Wifi_BLE_SDK/GD32VW55x_RELEASE_V1.0.2/MSDK/ble/app\app_list_mgr.c ****                     p_dev = dm_find_alloc_dev_by_addr(p_data->data.p_ral_list[i].addr);
 210              		.loc 1 86 17 is_stmt 1
  86:C:/Users/stapi/OneDrive/Desktop/GD32VW553/V1_MQTT_OK/GD32VW55X_Wifi_BLE_SDK/GD32VW55x_RELEASE_V1.0.2/MSDK/ble/app\app_list_mgr.c ****                     p_dev = dm_find_alloc_dev_by_addr(p_data->data.p_ral_list[i].addr);
 211              		.loc 1 86 27 is_stmt 0
 212 0122 5C40     		lw	a5,4(s0)
  86:C:/Users/stapi/OneDrive/Desktop/GD32VW553/V1_MQTT_OK/GD32VW55X_Wifi_BLE_SDK/GD32VW55x_RELEASE_V1.0.2/MSDK/ble/app\app_list_mgr.c ****                     p_dev = dm_find_alloc_dev_by_addr(p_data->data.p_ral_list[i].addr);
 213              		.loc 1 86 20
 214 0124 639E3705 		bne	a5,s3,.L16
  87:C:/Users/stapi/OneDrive/Desktop/GD32VW553/V1_MQTT_OK/GD32VW55X_Wifi_BLE_SDK/GD32VW55x_RELEASE_V1.0.2/MSDK/ble/app\app_list_mgr.c **** 
 215              		.loc 1 87 21 is_stmt 1
  87:C:/Users/stapi/OneDrive/Desktop/GD32VW553/V1_MQTT_OK/GD32VW55X_Wifi_BLE_SDK/GD32VW55x_RELEASE_V1.0.2/MSDK/ble/app\app_list_mgr.c **** 
 216              		.loc 1 87 29 is_stmt 0
 217 0128 5C44     		lw	a5,12(s0)
 218 012a FF9744C5 		maddr32	a5, s1, s4
 219 012e 03C51700 		lbu	a0,1(a5)
 220 0132 03C70700 		lbu	a4,0(a5)
 221 0136 83C55700 		lbu	a1,5(a5)
 222 013a 2205     		slli	a0,a0,8
 223 013c 598D     		or	a0,a0,a4
 224 013e 83C64700 		lbu	a3,4(a5)
 225 0142 03C72700 		lbu	a4,2(a5)
 226 0146 A205     		slli	a1,a1,8
 227 0148 CD8E     		or	a3,a1,a3
 228 014a 4207     		slli	a4,a4,16
 229 014c 83C56700 		lbu	a1,6(a5)
 230 0150 498F     		or	a4,a4,a0
 231 0152 03C53700 		lbu	a0,3(a5)
 232 0156 C205     		slli	a1,a1,16
 233 0158 D58D     		or	a1,a1,a3
 234 015a 6205     		slli	a0,a0,24
 235 015c 598D     		or	a0,a0,a4
 236 015e B3F52501 		and	a1,a1,s2
 237 0162 97000000 		call	dm_find_alloc_dev_by_addr
 237      E7800000 
 238              	.LVL13:
  89:C:/Users/stapi/OneDrive/Desktop/GD32VW553/V1_MQTT_OK/GD32VW55X_Wifi_BLE_SDK/GD32VW55x_RELEASE_V1.0.2/MSDK/ble/app\app_list_mgr.c ****                         p_dev->in_ral = true;
 239              		.loc 1 89 21 is_stmt 1
  89:C:/Users/stapi/OneDrive/Desktop/GD32VW553/V1_MQTT_OK/GD32VW55X_Wifi_BLE_SDK/GD32VW55x_RELEASE_V1.0.2/MSDK/ble/app\app_list_mgr.c ****                         p_dev->in_ral = true;
 240              		.loc 1 89 24 is_stmt 0
 241 016a 19C1     		beq	a0,zero,.L18
  90:C:/Users/stapi/OneDrive/Desktop/GD32VW553/V1_MQTT_OK/GD32VW55X_Wifi_BLE_SDK/GD32VW55x_RELEASE_V1.0.2/MSDK/ble/app\app_list_mgr.c ****                     }
 242              		.loc 1 90 25 is_stmt 1
  90:C:/Users/stapi/OneDrive/Desktop/GD32VW553/V1_MQTT_OK/GD32VW55X_Wifi_BLE_SDK/GD32VW55x_RELEASE_V1.0.2/MSDK/ble/app\app_list_mgr.c ****                     }
 243              		.loc 1 90 39 is_stmt 0
 244 016c 230B3501 		sb	s3,22(a0)
 245              	.LVL14:
 246              	.L18:
  85:C:/Users/stapi/OneDrive/Desktop/GD32VW553/V1_MQTT_OK/GD32VW55X_Wifi_BLE_SDK/GD32VW55x_RELEASE_V1.0.2/MSDK/ble/app\app_list_mgr.c ****                 if (p_data->op_type == ADD_DEVICE_TO_LIST) {
 247              		.loc 1 85 42 is_stmt 1
  85:C:/Users/stapi/OneDrive/Desktop/GD32VW553/V1_MQTT_OK/GD32VW55X_Wifi_BLE_SDK/GD32VW55x_RELEASE_V1.0.2/MSDK/ble/app\app_list_mgr.c ****                 if (p_data->op_type == ADD_DEVICE_TO_LIST) {
 248              		.loc 1 85 43 is_stmt 0
 249 0170 8504     		addi	s1,s1,1
 250              	.LVL15:
 251 0172 93F4F40F 		andi	s1,s1,0xff
 252              	.LVL16:
 253              	.L14:
  85:C:/Users/stapi/OneDrive/Desktop/GD32VW553/V1_MQTT_OK/GD32VW55X_Wifi_BLE_SDK/GD32VW55x_RELEASE_V1.0.2/MSDK/ble/app\app_list_mgr.c ****                 if (p_data->op_type == ADD_DEVICE_TO_LIST) {
 254              		.loc 1 85 25 is_stmt 1
  85:C:/Users/stapi/OneDrive/Desktop/GD32VW553/V1_MQTT_OK/GD32VW55X_Wifi_BLE_SDK/GD32VW55x_RELEASE_V1.0.2/MSDK/ble/app\app_list_mgr.c ****                 if (p_data->op_type == ADD_DEVICE_TO_LIST) {
 255              		.loc 1 85 13 is_stmt 0
 256 0176 83478400 		lbu	a5,8(s0)
 257 017a E3E4F4FA 		bgtu	a5,s1,.L21
 258 017e 6DBD     		j	.L1
 259              	.L16:
  92:C:/Users/stapi/OneDrive/Desktop/GD32VW553/V1_MQTT_OK/GD32VW55X_Wifi_BLE_SDK/GD32VW55x_RELEASE_V1.0.2/MSDK/ble/app\app_list_mgr.c ****                            p_data->op_type == CLEAR_DEVICE_LIST) {
 260              		.loc 1 92 24 is_stmt 1
  92:C:/Users/stapi/OneDrive/Desktop/GD32VW553/V1_MQTT_OK/GD32VW55X_Wifi_BLE_SDK/GD32VW55x_RELEASE_V1.0.2/MSDK/ble/app\app_list_mgr.c ****                            p_data->op_type == CLEAR_DEVICE_LIST) {
 261              		.loc 1 92 27 is_stmt 0
 262 0180 99C3     		beq	a5,zero,.L19
  92:C:/Users/stapi/OneDrive/Desktop/GD32VW553/V1_MQTT_OK/GD32VW55X_Wifi_BLE_SDK/GD32VW55x_RELEASE_V1.0.2/MSDK/ble/app\app_list_mgr.c ****                            p_data->op_type == CLEAR_DEVICE_LIST) {
 263              		.loc 1 92 68
 264 0182 E39757FF 		bne	a5,s5,.L18
 265              	.L19:
  94:C:/Users/stapi/OneDrive/Desktop/GD32VW553/V1_MQTT_OK/GD32VW55X_Wifi_BLE_SDK/GD32VW55x_RELEASE_V1.0.2/MSDK/ble/app\app_list_mgr.c **** 
 266              		.loc 1 94 21 is_stmt 1
  94:C:/Users/stapi/OneDrive/Desktop/GD32VW553/V1_MQTT_OK/GD32VW55X_Wifi_BLE_SDK/GD32VW55x_RELEASE_V1.0.2/MSDK/ble/app\app_list_mgr.c **** 
 267              		.loc 1 94 29 is_stmt 0
 268 0186 5C44     		lw	a5,12(s0)
 269 0188 FF9744C5 		maddr32	a5, s1, s4
 270 018c 03C51700 		lbu	a0,1(a5)
 271 0190 03C70700 		lbu	a4,0(a5)
 272 0194 83C55700 		lbu	a1,5(a5)
 273 0198 2205     		slli	a0,a0,8
 274 019a 598D     		or	a0,a0,a4
 275 019c 83C64700 		lbu	a3,4(a5)
 276 01a0 03C72700 		lbu	a4,2(a5)
 277 01a4 A205     		slli	a1,a1,8
 278 01a6 CD8E     		or	a3,a1,a3
 279 01a8 4207     		slli	a4,a4,16
 280 01aa 83C56700 		lbu	a1,6(a5)
 281 01ae 498F     		or	a4,a4,a0
 282 01b0 03C53700 		lbu	a0,3(a5)
 283 01b4 C205     		slli	a1,a1,16
 284 01b6 D58D     		or	a1,a1,a3
 285 01b8 6205     		slli	a0,a0,24
 286 01ba 598D     		or	a0,a0,a4
 287 01bc B3F52501 		and	a1,a1,s2
 288 01c0 97000000 		call	dm_find_dev_by_addr
 288      E7800000 
 289              	.LVL17:
  96:C:/Users/stapi/OneDrive/Desktop/GD32VW553/V1_MQTT_OK/GD32VW55X_Wifi_BLE_SDK/GD32VW55x_RELEASE_V1.0.2/MSDK/ble/app\app_list_mgr.c ****                         p_dev->in_ral = false;
 290              		.loc 1 96 21 is_stmt 1
  96:C:/Users/stapi/OneDrive/Desktop/GD32VW553/V1_MQTT_OK/GD32VW55X_Wifi_BLE_SDK/GD32VW55x_RELEASE_V1.0.2/MSDK/ble/app\app_list_mgr.c ****                         p_dev->in_ral = false;
 291              		.loc 1 96 24 is_stmt 0
 292 01c8 45D5     		beq	a0,zero,.L18
  97:C:/Users/stapi/OneDrive/Desktop/GD32VW553/V1_MQTT_OK/GD32VW55X_Wifi_BLE_SDK/GD32VW55x_RELEASE_V1.0.2/MSDK/ble/app\app_list_mgr.c ****                     }
 293              		.loc 1 97 25 is_stmt 1
  97:C:/Users/stapi/OneDrive/Desktop/GD32VW553/V1_MQTT_OK/GD32VW55X_Wifi_BLE_SDK/GD32VW55x_RELEASE_V1.0.2/MSDK/ble/app\app_list_mgr.c ****                     }
 294              		.loc 1 97 39 is_stmt 0
 295 01ca 230B0500 		sb	zero,22(a0)
 296 01ce 4DB7     		j	.L18
 297              	.LVL18:
 298              	.L27:
 299              	.LBB9:
 106:C:/Users/stapi/OneDrive/Desktop/GD32VW553/V1_MQTT_OK/GD32VW55X_Wifi_BLE_SDK/GD32VW55x_RELEASE_V1.0.2/MSDK/ble/app\app_list_mgr.c ****                 peer_addr.addr_type = p_data->data.p_pal_list[i].addr_type;
 300              		.loc 1 106 17 is_stmt 1
 106:C:/Users/stapi/OneDrive/Desktop/GD32VW553/V1_MQTT_OK/GD32VW55X_Wifi_BLE_SDK/GD32VW55x_RELEASE_V1.0.2/MSDK/ble/app\app_list_mgr.c ****                 peer_addr.addr_type = p_data->data.p_pal_list[i].addr_type;
 301              		.loc 1 106 63 is_stmt 0
 302 01d0 0329C400 		lw	s2,12(s0)
 106:C:/Users/stapi/OneDrive/Desktop/GD32VW553/V1_MQTT_OK/GD32VW55X_Wifi_BLE_SDK/GD32VW55x_RELEASE_V1.0.2/MSDK/ble/app\app_list_mgr.c ****                 peer_addr.addr_type = p_data->data.p_pal_list[i].addr_type;
 303              		.loc 1 106 17
 304 01d4 1946     		li	a2,6
 305 01d6 13059100 		addi	a0,sp,9
 106:C:/Users/stapi/OneDrive/Desktop/GD32VW553/V1_MQTT_OK/GD32VW55X_Wifi_BLE_SDK/GD32VW55x_RELEASE_V1.0.2/MSDK/ble/app\app_list_mgr.c ****                 peer_addr.addr_type = p_data->data.p_pal_list[i].addr_type;
 306              		.loc 1 106 63
 307 01da 33E92421 		sh3add	s2,s1,s2
 106:C:/Users/stapi/OneDrive/Desktop/GD32VW553/V1_MQTT_OK/GD32VW55X_Wifi_BLE_SDK/GD32VW55x_RELEASE_V1.0.2/MSDK/ble/app\app_list_mgr.c ****                 peer_addr.addr_type = p_data->data.p_pal_list[i].addr_type;
 308              		.loc 1 106 17
 309 01de CA85     		mv	a1,s2
 310 01e0 97000000 		call	memcpy
 310      E7800000 
 311              	.LVL19:
 107:C:/Users/stapi/OneDrive/Desktop/GD32VW553/V1_MQTT_OK/GD32VW55X_Wifi_BLE_SDK/GD32VW55x_RELEASE_V1.0.2/MSDK/ble/app\app_list_mgr.c ****                 if (p_data->op_type == ADD_DEVICE_TO_LIST) {
 312              		.loc 1 107 17 is_stmt 1
 107:C:/Users/stapi/OneDrive/Desktop/GD32VW553/V1_MQTT_OK/GD32VW55X_Wifi_BLE_SDK/GD32VW55x_RELEASE_V1.0.2/MSDK/ble/app\app_list_mgr.c ****                 if (p_data->op_type == ADD_DEVICE_TO_LIST) {
 313              		.loc 1 107 37 is_stmt 0
 314 01e8 83476900 		lbu	a5,6(s2)
 315 01ec 2304F100 		sb	a5,8(sp)
 108:C:/Users/stapi/OneDrive/Desktop/GD32VW553/V1_MQTT_OK/GD32VW55X_Wifi_BLE_SDK/GD32VW55x_RELEASE_V1.0.2/MSDK/ble/app\app_list_mgr.c ****                     p_sync_dev = ble_per_sync_mgr_find_alloc_device(&peer_addr, p_data->data.p_pal_
 316              		.loc 1 108 17 is_stmt 1
 108:C:/Users/stapi/OneDrive/Desktop/GD32VW553/V1_MQTT_OK/GD32VW55X_Wifi_BLE_SDK/GD32VW55x_RELEASE_V1.0.2/MSDK/ble/app\app_list_mgr.c ****                     p_sync_dev = ble_per_sync_mgr_find_alloc_device(&peer_addr, p_data->data.p_pal_
 317              		.loc 1 108 27 is_stmt 0
 318 01f0 5C40     		lw	a5,4(s0)
 108:C:/Users/stapi/OneDrive/Desktop/GD32VW553/V1_MQTT_OK/GD32VW55X_Wifi_BLE_SDK/GD32VW55x_RELEASE_V1.0.2/MSDK/ble/app\app_list_mgr.c ****                     p_sync_dev = ble_per_sync_mgr_find_alloc_device(&peer_addr, p_data->data.p_pal_
 319              		.loc 1 108 20
 320 01f2 63953703 		bne	a5,s3,.L22
 109:C:/Users/stapi/OneDrive/Desktop/GD32VW553/V1_MQTT_OK/GD32VW55X_Wifi_BLE_SDK/GD32VW55x_RELEASE_V1.0.2/MSDK/ble/app\app_list_mgr.c **** 
 321              		.loc 1 109 21 is_stmt 1
 109:C:/Users/stapi/OneDrive/Desktop/GD32VW553/V1_MQTT_OK/GD32VW55X_Wifi_BLE_SDK/GD32VW55x_RELEASE_V1.0.2/MSDK/ble/app\app_list_mgr.c **** 
 322              		.loc 1 109 34 is_stmt 0
 323 01f6 83457900 		lbu	a1,7(s2)
 324 01fa 0146     		li	a2,0
 325 01fc 2800     		addi	a0,sp,8
 326 01fe 97000000 		call	ble_per_sync_mgr_find_alloc_device
 326      E7800000 
 327              	.LVL20:
 111:C:/Users/stapi/OneDrive/Desktop/GD32VW553/V1_MQTT_OK/GD32VW55X_Wifi_BLE_SDK/GD32VW55x_RELEASE_V1.0.2/MSDK/ble/app\app_list_mgr.c ****                         p_sync_dev->in_pal = true;
 328              		.loc 1 111 21 is_stmt 1
 111:C:/Users/stapi/OneDrive/Desktop/GD32VW553/V1_MQTT_OK/GD32VW55X_Wifi_BLE_SDK/GD32VW55x_RELEASE_V1.0.2/MSDK/ble/app\app_list_mgr.c ****                         p_sync_dev->in_pal = true;
 329              		.loc 1 111 24 is_stmt 0
 330 0206 19C1     		beq	a0,zero,.L24
 112:C:/Users/stapi/OneDrive/Desktop/GD32VW553/V1_MQTT_OK/GD32VW55X_Wifi_BLE_SDK/GD32VW55x_RELEASE_V1.0.2/MSDK/ble/app\app_list_mgr.c ****                     }
 331              		.loc 1 112 25 is_stmt 1
 112:C:/Users/stapi/OneDrive/Desktop/GD32VW553/V1_MQTT_OK/GD32VW55X_Wifi_BLE_SDK/GD32VW55x_RELEASE_V1.0.2/MSDK/ble/app\app_list_mgr.c ****                     }
 332              		.loc 1 112 44 is_stmt 0
 333 0208 A3043501 		sb	s3,9(a0)
 334              	.LVL21:
 335              	.L24:
 105:C:/Users/stapi/OneDrive/Desktop/GD32VW553/V1_MQTT_OK/GD32VW55X_Wifi_BLE_SDK/GD32VW55x_RELEASE_V1.0.2/MSDK/ble/app\app_list_mgr.c ****                 memcpy(peer_addr.addr, p_data->data.p_pal_list[i].addr, BLE_GAP_ADDR_LEN);
 336              		.loc 1 105 42 is_stmt 1
 105:C:/Users/stapi/OneDrive/Desktop/GD32VW553/V1_MQTT_OK/GD32VW55X_Wifi_BLE_SDK/GD32VW55x_RELEASE_V1.0.2/MSDK/ble/app\app_list_mgr.c ****                 memcpy(peer_addr.addr, p_data->data.p_pal_list[i].addr, BLE_GAP_ADDR_LEN);
 337              		.loc 1 105 43 is_stmt 0
 338 020c 8504     		addi	s1,s1,1
 339              	.LVL22:
 340 020e 93F4F40F 		andi	s1,s1,0xff
 341              	.LVL23:
 342              	.L15:
 105:C:/Users/stapi/OneDrive/Desktop/GD32VW553/V1_MQTT_OK/GD32VW55X_Wifi_BLE_SDK/GD32VW55x_RELEASE_V1.0.2/MSDK/ble/app\app_list_mgr.c ****                 memcpy(peer_addr.addr, p_data->data.p_pal_list[i].addr, BLE_GAP_ADDR_LEN);
 343              		.loc 1 105 25 is_stmt 1
 105:C:/Users/stapi/OneDrive/Desktop/GD32VW553/V1_MQTT_OK/GD32VW55X_Wifi_BLE_SDK/GD32VW55x_RELEASE_V1.0.2/MSDK/ble/app\app_list_mgr.c ****                 memcpy(peer_addr.addr, p_data->data.p_pal_list[i].addr, BLE_GAP_ADDR_LEN);
 344              		.loc 1 105 13 is_stmt 0
 345 0212 83478400 		lbu	a5,8(s0)
 346 0216 E3EDF4FA 		bgtu	a5,s1,.L27
 347 021a 39BD     		j	.L1
 348              	.L22:
 114:C:/Users/stapi/OneDrive/Desktop/GD32VW553/V1_MQTT_OK/GD32VW55X_Wifi_BLE_SDK/GD32VW55x_RELEASE_V1.0.2/MSDK/ble/app\app_list_mgr.c ****                            p_data->op_type == CLEAR_DEVICE_LIST) {
 349              		.loc 1 114 24 is_stmt 1
 114:C:/Users/stapi/OneDrive/Desktop/GD32VW553/V1_MQTT_OK/GD32VW55X_Wifi_BLE_SDK/GD32VW55x_RELEASE_V1.0.2/MSDK/ble/app\app_list_mgr.c ****                            p_data->op_type == CLEAR_DEVICE_LIST) {
 350              		.loc 1 114 27 is_stmt 0
 351 021c 99C3     		beq	a5,zero,.L25
 114:C:/Users/stapi/OneDrive/Desktop/GD32VW553/V1_MQTT_OK/GD32VW55X_Wifi_BLE_SDK/GD32VW55x_RELEASE_V1.0.2/MSDK/ble/app\app_list_mgr.c ****                            p_data->op_type == CLEAR_DEVICE_LIST) {
 352              		.loc 1 114 68
 353 021e E39747FF 		bne	a5,s4,.L24
 354              	.L25:
 116:C:/Users/stapi/OneDrive/Desktop/GD32VW553/V1_MQTT_OK/GD32VW55X_Wifi_BLE_SDK/GD32VW55x_RELEASE_V1.0.2/MSDK/ble/app\app_list_mgr.c ****                     if (p_sync_dev) {
 355              		.loc 1 116 21 is_stmt 1
 116:C:/Users/stapi/OneDrive/Desktop/GD32VW553/V1_MQTT_OK/GD32VW55X_Wifi_BLE_SDK/GD32VW55x_RELEASE_V1.0.2/MSDK/ble/app\app_list_mgr.c ****                     if (p_sync_dev) {
 356              		.loc 1 116 34 is_stmt 0
 357 0222 83457900 		lbu	a1,7(s2)
 358 0226 2800     		addi	a0,sp,8
 359 0228 97000000 		call	ble_per_sync_mgr_find_device
 359      E7800000 
 360              	.LVL24:
 117:C:/Users/stapi/OneDrive/Desktop/GD32VW553/V1_MQTT_OK/GD32VW55X_Wifi_BLE_SDK/GD32VW55x_RELEASE_V1.0.2/MSDK/ble/app\app_list_mgr.c ****                         p_sync_dev->in_pal = false;
 361              		.loc 1 117 21 is_stmt 1
 117:C:/Users/stapi/OneDrive/Desktop/GD32VW553/V1_MQTT_OK/GD32VW55X_Wifi_BLE_SDK/GD32VW55x_RELEASE_V1.0.2/MSDK/ble/app\app_list_mgr.c ****                         p_sync_dev->in_pal = false;
 362              		.loc 1 117 24 is_stmt 0
 363 0230 71DD     		beq	a0,zero,.L24
 118:C:/Users/stapi/OneDrive/Desktop/GD32VW553/V1_MQTT_OK/GD32VW55X_Wifi_BLE_SDK/GD32VW55x_RELEASE_V1.0.2/MSDK/ble/app\app_list_mgr.c ****                     }
 364              		.loc 1 118 25 is_stmt 1
 118:C:/Users/stapi/OneDrive/Desktop/GD32VW553/V1_MQTT_OK/GD32VW55X_Wifi_BLE_SDK/GD32VW55x_RELEASE_V1.0.2/MSDK/ble/app\app_list_mgr.c ****                     }
 365              		.loc 1 118 44 is_stmt 0
 366 0232 A3040500 		sb	zero,9(a0)
 367 0236 D9BF     		j	.L24
 368              	.LVL25:
 369              	.L50:
 370              		.cfi_def_cfa_offset 0
 371              		.cfi_restore 1
 372              		.cfi_restore 8
 373              		.cfi_restore 9
 374              		.cfi_restore 18
 375              		.cfi_restore 19
 376              		.cfi_restore 20
 377              		.cfi_restore 21
 378 0238 8280     		ret
 379              	.LBE9:
 380              	.LBE7:
 381              	.LBE6:
 382              		.cfi_endproc
 383              	.LFE2:
 385              		.section	.rodata.app_wl_set.str1.4,"aMS",@progbits,1
 386              		.align	2
 387              	.LC1:
 388 0000 6170705F 		.string	"app_wl_set num %u fail! \r\n"
 388      776C5F73 
 388      6574206E 
 388      756D2025 
 388      75206661 
 389              		.section	.text.app_wl_set,"ax",@progbits
 390              		.align	1
 391              		.globl	app_wl_set
 393              	app_wl_set:
 394              	.LFB3:
 129:C:/Users/stapi/OneDrive/Desktop/GD32VW553/V1_MQTT_OK/GD32VW55X_Wifi_BLE_SDK/GD32VW55x_RELEASE_V1.0.2/MSDK/ble/app\app_list_mgr.c **** 
 130:C:/Users/stapi/OneDrive/Desktop/GD32VW553/V1_MQTT_OK/GD32VW55X_Wifi_BLE_SDK/GD32VW55x_RELEASE_V1.0.2/MSDK/ble/app\app_list_mgr.c **** /*!
 131:C:/Users/stapi/OneDrive/Desktop/GD32VW553/V1_MQTT_OK/GD32VW55X_Wifi_BLE_SDK/GD32VW55x_RELEASE_V1.0.2/MSDK/ble/app\app_list_mgr.c ****     \brief      Set filter accept list
 132:C:/Users/stapi/OneDrive/Desktop/GD32VW553/V1_MQTT_OK/GD32VW55X_Wifi_BLE_SDK/GD32VW55x_RELEASE_V1.0.2/MSDK/ble/app\app_list_mgr.c ****     \param[in]  num: number of provided device index
 133:C:/Users/stapi/OneDrive/Desktop/GD32VW553/V1_MQTT_OK/GD32VW55X_Wifi_BLE_SDK/GD32VW55x_RELEASE_V1.0.2/MSDK/ble/app\app_list_mgr.c ****     \param[in]  p_array: pointer to array of device index used to set in filter accept list
 134:C:/Users/stapi/OneDrive/Desktop/GD32VW553/V1_MQTT_OK/GD32VW55X_Wifi_BLE_SDK/GD32VW55x_RELEASE_V1.0.2/MSDK/ble/app\app_list_mgr.c ****     \param[out] none
 135:C:/Users/stapi/OneDrive/Desktop/GD32VW553/V1_MQTT_OK/GD32VW55X_Wifi_BLE_SDK/GD32VW55x_RELEASE_V1.0.2/MSDK/ble/app\app_list_mgr.c ****     \retval     none
 136:C:/Users/stapi/OneDrive/Desktop/GD32VW553/V1_MQTT_OK/GD32VW55X_Wifi_BLE_SDK/GD32VW55x_RELEASE_V1.0.2/MSDK/ble/app\app_list_mgr.c **** */
 137:C:/Users/stapi/OneDrive/Desktop/GD32VW553/V1_MQTT_OK/GD32VW55X_Wifi_BLE_SDK/GD32VW55x_RELEASE_V1.0.2/MSDK/ble/app\app_list_mgr.c **** void app_wl_set(uint8_t num, uint8_t *p_array)
 138:C:/Users/stapi/OneDrive/Desktop/GD32VW553/V1_MQTT_OK/GD32VW55X_Wifi_BLE_SDK/GD32VW55x_RELEASE_V1.0.2/MSDK/ble/app\app_list_mgr.c **** {
 395              		.loc 1 138 1 is_stmt 1
 396              		.cfi_startproc
 397              	.LVL26:
 139:C:/Users/stapi/OneDrive/Desktop/GD32VW553/V1_MQTT_OK/GD32VW55X_Wifi_BLE_SDK/GD32VW55x_RELEASE_V1.0.2/MSDK/ble/app\app_list_mgr.c ****     ble_gap_addr_t *p_fal_info;
 398              		.loc 1 139 5
 140:C:/Users/stapi/OneDrive/Desktop/GD32VW553/V1_MQTT_OK/GD32VW55X_Wifi_BLE_SDK/GD32VW55x_RELEASE_V1.0.2/MSDK/ble/app\app_list_mgr.c ****     uint8_t i;
 399              		.loc 1 140 5
 141:C:/Users/stapi/OneDrive/Desktop/GD32VW553/V1_MQTT_OK/GD32VW55X_Wifi_BLE_SDK/GD32VW55x_RELEASE_V1.0.2/MSDK/ble/app\app_list_mgr.c **** 
 142:C:/Users/stapi/OneDrive/Desktop/GD32VW553/V1_MQTT_OK/GD32VW55X_Wifi_BLE_SDK/GD32VW55x_RELEASE_V1.0.2/MSDK/ble/app\app_list_mgr.c ****     if (num == 0 || p_array == NULL) {
 400              		.loc 1 142 5
 401              		.loc 1 142 8 is_stmt 0
 402 0000 45C5     		beq	a0,zero,.L70
 138:C:/Users/stapi/OneDrive/Desktop/GD32VW553/V1_MQTT_OK/GD32VW55X_Wifi_BLE_SDK/GD32VW55x_RELEASE_V1.0.2/MSDK/ble/app\app_list_mgr.c ****     ble_gap_addr_t *p_fal_info;
 403              		.loc 1 138 1 discriminator 1
 404 0002 17030000 		call	t0,__riscv_save_5
 404      E7020300 
 405              		.cfi_offset 20, -24
 406              		.cfi_offset 19, -20
 407              		.cfi_offset 18, -16
 408              		.cfi_offset 9, -12
 409              		.cfi_offset 8, -8
 410              		.cfi_offset 1, -4
 411              		.cfi_def_cfa_offset 32
 412 000a 4111     		addi	sp,sp,-16
 413              		.cfi_def_cfa_offset 48
 414 000c AE89     		mv	s3,a1
 415              		.loc 1 142 18 discriminator 1
 416 000e C1C9     		beq	a1,zero,.L53
 143:C:/Users/stapi/OneDrive/Desktop/GD32VW553/V1_MQTT_OK/GD32VW55X_Wifi_BLE_SDK/GD32VW55x_RELEASE_V1.0.2/MSDK/ble/app\app_list_mgr.c ****         return;
 144:C:/Users/stapi/OneDrive/Desktop/GD32VW553/V1_MQTT_OK/GD32VW55X_Wifi_BLE_SDK/GD32VW55x_RELEASE_V1.0.2/MSDK/ble/app\app_list_mgr.c ****     }
 145:C:/Users/stapi/OneDrive/Desktop/GD32VW553/V1_MQTT_OK/GD32VW55X_Wifi_BLE_SDK/GD32VW55x_RELEASE_V1.0.2/MSDK/ble/app\app_list_mgr.c **** 
 146:C:/Users/stapi/OneDrive/Desktop/GD32VW553/V1_MQTT_OK/GD32VW55X_Wifi_BLE_SDK/GD32VW55x_RELEASE_V1.0.2/MSDK/ble/app\app_list_mgr.c ****     // FIX TODO we need to suspend/resume scan/adv/init
 147:C:/Users/stapi/OneDrive/Desktop/GD32VW553/V1_MQTT_OK/GD32VW55X_Wifi_BLE_SDK/GD32VW55x_RELEASE_V1.0.2/MSDK/ble/app\app_list_mgr.c ****     p_fal_info = (ble_gap_addr_t *)sys_malloc(num * sizeof(ble_gap_addr_t));
 417              		.loc 1 147 36
 418 0010 1D46     		li	a2,7
 419 0012 3306C502 		mul	a2,a0,a2
 420 0016 2A84     		mv	s0,a0
 421              		.loc 1 147 5 is_stmt 1
 422              		.loc 1 147 36 is_stmt 0
 423 0018 3285     		mv	a0,a2
 424              	.LVL27:
 425 001a 32C6     		sw	a2,12(sp)
 426 001c 97000000 		call	sys_malloc
 426      E7800000 
 427              	.LVL28:
 428 0024 AA84     		mv	s1,a0
 429              	.LVL29:
 148:C:/Users/stapi/OneDrive/Desktop/GD32VW553/V1_MQTT_OK/GD32VW55X_Wifi_BLE_SDK/GD32VW55x_RELEASE_V1.0.2/MSDK/ble/app\app_list_mgr.c **** 
 149:C:/Users/stapi/OneDrive/Desktop/GD32VW553/V1_MQTT_OK/GD32VW55X_Wifi_BLE_SDK/GD32VW55x_RELEASE_V1.0.2/MSDK/ble/app\app_list_mgr.c ****     if (p_fal_info == NULL) {
 430              		.loc 1 149 5 is_stmt 1
 431              		.loc 1 149 8 is_stmt 0
 432 0026 25CD     		beq	a0,zero,.L53
 150:C:/Users/stapi/OneDrive/Desktop/GD32VW553/V1_MQTT_OK/GD32VW55X_Wifi_BLE_SDK/GD32VW55x_RELEASE_V1.0.2/MSDK/ble/app\app_list_mgr.c ****         return;
 151:C:/Users/stapi/OneDrive/Desktop/GD32VW553/V1_MQTT_OK/GD32VW55X_Wifi_BLE_SDK/GD32VW55x_RELEASE_V1.0.2/MSDK/ble/app\app_list_mgr.c ****     }
 152:C:/Users/stapi/OneDrive/Desktop/GD32VW553/V1_MQTT_OK/GD32VW55X_Wifi_BLE_SDK/GD32VW55x_RELEASE_V1.0.2/MSDK/ble/app\app_list_mgr.c ****     memset(p_fal_info, 0, num * sizeof(ble_gap_addr_t));
 433              		.loc 1 152 5 is_stmt 1
 434 0028 3246     		lw	a2,12(sp)
 435 002a 8145     		li	a1,0
 436 002c 0149     		li	s2,0
 437 002e 97000000 		call	memset
 437      E7800000 
 438              	.LVL30:
 153:C:/Users/stapi/OneDrive/Desktop/GD32VW553/V1_MQTT_OK/GD32VW55X_Wifi_BLE_SDK/GD32VW55x_RELEASE_V1.0.2/MSDK/ble/app\app_list_mgr.c **** 
 154:C:/Users/stapi/OneDrive/Desktop/GD32VW553/V1_MQTT_OK/GD32VW55X_Wifi_BLE_SDK/GD32VW55x_RELEASE_V1.0.2/MSDK/ble/app\app_list_mgr.c ****     for (i = 0; i < num; i++) {
 439              		.loc 1 154 5
 440              		.loc 1 154 17
 441              	.LBB10:
 155:C:/Users/stapi/OneDrive/Desktop/GD32VW553/V1_MQTT_OK/GD32VW55X_Wifi_BLE_SDK/GD32VW55x_RELEASE_V1.0.2/MSDK/ble/app\app_list_mgr.c ****         #if (BLE_CFG_ROLE & (BLE_CFG_ROLE_OBSERVER | BLE_CFG_ROLE_CENTRAL))
 156:C:/Users/stapi/OneDrive/Desktop/GD32VW553/V1_MQTT_OK/GD32VW55X_Wifi_BLE_SDK/GD32VW55x_RELEASE_V1.0.2/MSDK/ble/app\app_list_mgr.c ****         dev_info_t *p_dev;
 157:C:/Users/stapi/OneDrive/Desktop/GD32VW553/V1_MQTT_OK/GD32VW55X_Wifi_BLE_SDK/GD32VW55x_RELEASE_V1.0.2/MSDK/ble/app\app_list_mgr.c **** 
 158:C:/Users/stapi/OneDrive/Desktop/GD32VW553/V1_MQTT_OK/GD32VW55X_Wifi_BLE_SDK/GD32VW55x_RELEASE_V1.0.2/MSDK/ble/app\app_list_mgr.c ****         p_dev = scan_mgr_find_dev_by_idx(p_array[i]);
 159:C:/Users/stapi/OneDrive/Desktop/GD32VW553/V1_MQTT_OK/GD32VW55X_Wifi_BLE_SDK/GD32VW55x_RELEASE_V1.0.2/MSDK/ble/app\app_list_mgr.c ****         memcpy(&p_fal_info[i], &p_dev->peer_addr, sizeof(ble_gap_addr_t));
 442              		.loc 1 159 9 is_stmt 0
 443 0036 1D4A     		li	s4,7
 444              	.LVL31:
 445              	.L57:
 156:C:/Users/stapi/OneDrive/Desktop/GD32VW553/V1_MQTT_OK/GD32VW55X_Wifi_BLE_SDK/GD32VW55x_RELEASE_V1.0.2/MSDK/ble/app\app_list_mgr.c **** 
 446              		.loc 1 156 9 is_stmt 1 discriminator 3
 158:C:/Users/stapi/OneDrive/Desktop/GD32VW553/V1_MQTT_OK/GD32VW55X_Wifi_BLE_SDK/GD32VW55x_RELEASE_V1.0.2/MSDK/ble/app\app_list_mgr.c ****         memcpy(&p_fal_info[i], &p_dev->peer_addr, sizeof(ble_gap_addr_t));
 447              		.loc 1 158 9 discriminator 3
 158:C:/Users/stapi/OneDrive/Desktop/GD32VW553/V1_MQTT_OK/GD32VW55X_Wifi_BLE_SDK/GD32VW55x_RELEASE_V1.0.2/MSDK/ble/app\app_list_mgr.c ****         memcpy(&p_fal_info[i], &p_dev->peer_addr, sizeof(ble_gap_addr_t));
 448              		.loc 1 158 17 is_stmt 0 discriminator 3
 449 0038 B3872901 		add	a5,s3,s2
 450 003c 03C50700 		lbu	a0,0(a5)
 451 0040 97000000 		call	scan_mgr_find_dev_by_idx
 451      E7800000 
 452              	.LVL32:
 453              		.loc 1 159 9 is_stmt 1 discriminator 3
 454 0048 93058500 		addi	a1,a0,8
 455 004c 1D46     		li	a2,7
 456 004e 2685     		mv	a0,s1
 457              	.LVL33:
 458 0050 7F1549C5 		maddr32	a0, s2, s4
 459              	.LBE10:
 154:C:/Users/stapi/OneDrive/Desktop/GD32VW553/V1_MQTT_OK/GD32VW55X_Wifi_BLE_SDK/GD32VW55x_RELEASE_V1.0.2/MSDK/ble/app\app_list_mgr.c ****         #if (BLE_CFG_ROLE & (BLE_CFG_ROLE_OBSERVER | BLE_CFG_ROLE_CENTRAL))
 460              		.loc 1 154 5 is_stmt 0 discriminator 3
 461 0054 0509     		addi	s2,s2,1
 462              	.LVL34:
 463              	.LBB11:
 464              		.loc 1 159 9 discriminator 3
 465 0056 97000000 		call	memcpy
 465      E7800000 
 466              	.LVL35:
 467              	.LBE11:
 154:C:/Users/stapi/OneDrive/Desktop/GD32VW553/V1_MQTT_OK/GD32VW55X_Wifi_BLE_SDK/GD32VW55x_RELEASE_V1.0.2/MSDK/ble/app\app_list_mgr.c ****         #if (BLE_CFG_ROLE & (BLE_CFG_ROLE_OBSERVER | BLE_CFG_ROLE_CENTRAL))
 468              		.loc 1 154 26 is_stmt 1 discriminator 3
 154:C:/Users/stapi/OneDrive/Desktop/GD32VW553/V1_MQTT_OK/GD32VW55X_Wifi_BLE_SDK/GD32VW55x_RELEASE_V1.0.2/MSDK/ble/app\app_list_mgr.c ****         #if (BLE_CFG_ROLE & (BLE_CFG_ROLE_OBSERVER | BLE_CFG_ROLE_CENTRAL))
 469              		.loc 1 154 17 discriminator 3
 154:C:/Users/stapi/OneDrive/Desktop/GD32VW553/V1_MQTT_OK/GD32VW55X_Wifi_BLE_SDK/GD32VW55x_RELEASE_V1.0.2/MSDK/ble/app\app_list_mgr.c ****         #if (BLE_CFG_ROLE & (BLE_CFG_ROLE_OBSERVER | BLE_CFG_ROLE_CENTRAL))
 470              		.loc 1 154 5 is_stmt 0 discriminator 3
 471 005e 9377F90F 		andi	a5,s2,0xff
 472 0062 E3EB87FC 		bgtu	s0,a5,.L57
 160:C:/Users/stapi/OneDrive/Desktop/GD32VW553/V1_MQTT_OK/GD32VW55X_Wifi_BLE_SDK/GD32VW55x_RELEASE_V1.0.2/MSDK/ble/app\app_list_mgr.c ****         #endif
 161:C:/Users/stapi/OneDrive/Desktop/GD32VW553/V1_MQTT_OK/GD32VW55X_Wifi_BLE_SDK/GD32VW55x_RELEASE_V1.0.2/MSDK/ble/app\app_list_mgr.c ****     }
 162:C:/Users/stapi/OneDrive/Desktop/GD32VW553/V1_MQTT_OK/GD32VW55X_Wifi_BLE_SDK/GD32VW55x_RELEASE_V1.0.2/MSDK/ble/app\app_list_mgr.c **** 
 163:C:/Users/stapi/OneDrive/Desktop/GD32VW553/V1_MQTT_OK/GD32VW55X_Wifi_BLE_SDK/GD32VW55x_RELEASE_V1.0.2/MSDK/ble/app\app_list_mgr.c ****     if (ble_fal_list_set(num, p_fal_info) != BLE_ERR_NO_ERROR) {
 473              		.loc 1 163 5 is_stmt 1
 474              		.loc 1 163 9 is_stmt 0
 475 0066 A685     		mv	a1,s1
 476 0068 2285     		mv	a0,s0
 477 006a 97000000 		call	ble_fal_list_set
 477      E7800000 
 478              	.LVL36:
 479              		.loc 1 163 8
 480 0072 0DC1     		beq	a0,zero,.L58
 164:C:/Users/stapi/OneDrive/Desktop/GD32VW553/V1_MQTT_OK/GD32VW55X_Wifi_BLE_SDK/GD32VW55x_RELEASE_V1.0.2/MSDK/ble/app\app_list_mgr.c ****         dbg_print(NOTICE, "app_wl_set num %u fail! \r\n", num);
 481              		.loc 1 164 9 is_stmt 1
 482              		.loc 1 164 9
 483 0074 B7070000 		lui	a5,%hi(global_debug_level)
 484 0078 03C70700 		lbu	a4,%lo(global_debug_level)(a5)
 485 007c 8947     		li	a5,2
 486 007e 63FBE700 		bleu	a4,a5,.L58
 487              		.loc 1 164 9 discriminator 1
 488 0082 37050000 		lui	a0,%hi(.LC1)
 489 0086 A285     		mv	a1,s0
 490 0088 13050500 		addi	a0,a0,%lo(.LC1)
 491 008c 97000000 		call	co_printf
 491      E7800000 
 492              	.LVL37:
 493              	.L58:
 494              		.loc 1 164 9 discriminator 3
 165:C:/Users/stapi/OneDrive/Desktop/GD32VW553/V1_MQTT_OK/GD32VW55X_Wifi_BLE_SDK/GD32VW55x_RELEASE_V1.0.2/MSDK/ble/app\app_list_mgr.c ****     }
 166:C:/Users/stapi/OneDrive/Desktop/GD32VW553/V1_MQTT_OK/GD32VW55X_Wifi_BLE_SDK/GD32VW55x_RELEASE_V1.0.2/MSDK/ble/app\app_list_mgr.c **** 
 167:C:/Users/stapi/OneDrive/Desktop/GD32VW553/V1_MQTT_OK/GD32VW55X_Wifi_BLE_SDK/GD32VW55x_RELEASE_V1.0.2/MSDK/ble/app\app_list_mgr.c ****     sys_mfree(p_fal_info);
 495              		.loc 1 167 5 discriminator 3
 496 0094 2685     		mv	a0,s1
 497 0096 97000000 		call	sys_mfree
 497      E7800000 
 498              	.LVL38:
 499              	.L53:
 168:C:/Users/stapi/OneDrive/Desktop/GD32VW553/V1_MQTT_OK/GD32VW55X_Wifi_BLE_SDK/GD32VW55x_RELEASE_V1.0.2/MSDK/ble/app\app_list_mgr.c **** }
 500              		.loc 1 168 1 is_stmt 0
 501 009e 4101     		addi	sp,sp,16
 502              		.cfi_def_cfa_offset 0
 503 00a0 17030000 		tail	__riscv_restore_5
 503      67000300 
 504              		.cfi_restore 20
 505              		.cfi_restore 19
 506              		.cfi_restore 18
 507              		.cfi_restore 9
 508              		.cfi_restore 8
 509              		.cfi_restore 1
 510              		.cfi_def_cfa_offset -32
 511              	.LVL39:
 512              	.L70:
 513              		.cfi_def_cfa_offset 0
 514 00a8 8280     		ret
 515              		.cfi_endproc
 516              	.LFE3:
 518              		.section	.rodata.app_wl_add.str1.4,"aMS",@progbits,1
 519              		.align	2
 520              	.LC2:
 521 0000 6170705F 		.string	"app_wl_add can't find device idx %u \r\n"
 521      776C5F61 
 521      64642063 
 521      616E2774 
 521      2066696E 
 522 0027 00       		.align	2
 523              	.LC3:
 524 0028 6170705F 		.string	"app_wl_add %u fail! \r\n"
 524      776C5F61 
 524      64642025 
 524      75206661 
 524      696C2120 
 525              		.section	.text.app_wl_add,"ax",@progbits
 526              		.align	1
 527              		.globl	app_wl_add
 529              	app_wl_add:
 530              	.LFB4:
 169:C:/Users/stapi/OneDrive/Desktop/GD32VW553/V1_MQTT_OK/GD32VW55X_Wifi_BLE_SDK/GD32VW55x_RELEASE_V1.0.2/MSDK/ble/app\app_list_mgr.c **** 
 170:C:/Users/stapi/OneDrive/Desktop/GD32VW553/V1_MQTT_OK/GD32VW55X_Wifi_BLE_SDK/GD32VW55x_RELEASE_V1.0.2/MSDK/ble/app\app_list_mgr.c **** /*!
 171:C:/Users/stapi/OneDrive/Desktop/GD32VW553/V1_MQTT_OK/GD32VW55X_Wifi_BLE_SDK/GD32VW55x_RELEASE_V1.0.2/MSDK/ble/app\app_list_mgr.c ****     \brief      Add devices to filter accept list
 172:C:/Users/stapi/OneDrive/Desktop/GD32VW553/V1_MQTT_OK/GD32VW55X_Wifi_BLE_SDK/GD32VW55x_RELEASE_V1.0.2/MSDK/ble/app\app_list_mgr.c ****     \param[in]  num: number of provided device index
 173:C:/Users/stapi/OneDrive/Desktop/GD32VW553/V1_MQTT_OK/GD32VW55X_Wifi_BLE_SDK/GD32VW55x_RELEASE_V1.0.2/MSDK/ble/app\app_list_mgr.c ****     \param[in]  p_array: pointer to array of device index used to add in filter accept list
 174:C:/Users/stapi/OneDrive/Desktop/GD32VW553/V1_MQTT_OK/GD32VW55X_Wifi_BLE_SDK/GD32VW55x_RELEASE_V1.0.2/MSDK/ble/app\app_list_mgr.c ****     \param[out] none
 175:C:/Users/stapi/OneDrive/Desktop/GD32VW553/V1_MQTT_OK/GD32VW55X_Wifi_BLE_SDK/GD32VW55x_RELEASE_V1.0.2/MSDK/ble/app\app_list_mgr.c ****     \retval     none
 176:C:/Users/stapi/OneDrive/Desktop/GD32VW553/V1_MQTT_OK/GD32VW55X_Wifi_BLE_SDK/GD32VW55x_RELEASE_V1.0.2/MSDK/ble/app\app_list_mgr.c **** */
 177:C:/Users/stapi/OneDrive/Desktop/GD32VW553/V1_MQTT_OK/GD32VW55X_Wifi_BLE_SDK/GD32VW55x_RELEASE_V1.0.2/MSDK/ble/app\app_list_mgr.c **** void app_wl_add(uint8_t num, uint8_t *p_array)
 178:C:/Users/stapi/OneDrive/Desktop/GD32VW553/V1_MQTT_OK/GD32VW55X_Wifi_BLE_SDK/GD32VW55x_RELEASE_V1.0.2/MSDK/ble/app\app_list_mgr.c **** {
 531              		.loc 1 178 1 is_stmt 1
 532              		.cfi_startproc
 533              	.LVL40:
 179:C:/Users/stapi/OneDrive/Desktop/GD32VW553/V1_MQTT_OK/GD32VW55X_Wifi_BLE_SDK/GD32VW55x_RELEASE_V1.0.2/MSDK/ble/app\app_list_mgr.c ****     ble_gap_addr_t *p_fal_info;
 534              		.loc 1 179 5
 180:C:/Users/stapi/OneDrive/Desktop/GD32VW553/V1_MQTT_OK/GD32VW55X_Wifi_BLE_SDK/GD32VW55x_RELEASE_V1.0.2/MSDK/ble/app\app_list_mgr.c ****     uint8_t i;
 535              		.loc 1 180 5
 181:C:/Users/stapi/OneDrive/Desktop/GD32VW553/V1_MQTT_OK/GD32VW55X_Wifi_BLE_SDK/GD32VW55x_RELEASE_V1.0.2/MSDK/ble/app\app_list_mgr.c **** 
 182:C:/Users/stapi/OneDrive/Desktop/GD32VW553/V1_MQTT_OK/GD32VW55X_Wifi_BLE_SDK/GD32VW55x_RELEASE_V1.0.2/MSDK/ble/app\app_list_mgr.c ****     if (num == 0 || p_array == NULL) {
 536              		.loc 1 182 5
 537              		.loc 1 182 8 is_stmt 0
 538 0000 75C9     		beq	a0,zero,.L94
 178:C:/Users/stapi/OneDrive/Desktop/GD32VW553/V1_MQTT_OK/GD32VW55X_Wifi_BLE_SDK/GD32VW55x_RELEASE_V1.0.2/MSDK/ble/app\app_list_mgr.c ****     ble_gap_addr_t *p_fal_info;
 539              		.loc 1 178 1 discriminator 1
 540 0002 17030000 		call	t0,__riscv_save_12
 540      E7020300 
 541              		.cfi_offset 27, -52
 542              		.cfi_offset 26, -48
 543              		.cfi_offset 25, -44
 544              		.cfi_offset 24, -40
 545              		.cfi_offset 23, -36
 546              		.cfi_offset 22, -32
 547              		.cfi_offset 21, -28
 548              		.cfi_offset 20, -24
 549              		.cfi_offset 19, -20
 550              		.cfi_offset 18, -16
 551              		.cfi_offset 9, -12
 552              		.cfi_offset 8, -8
 553              		.cfi_offset 1, -4
 554              		.cfi_def_cfa_offset 64
 555 000a 4111     		addi	sp,sp,-16
 556              		.cfi_def_cfa_offset 80
 557 000c 2E8A     		mv	s4,a1
 558              		.loc 1 182 18 discriminator 1
 559 000e E9C1     		beq	a1,zero,.L73
 183:C:/Users/stapi/OneDrive/Desktop/GD32VW553/V1_MQTT_OK/GD32VW55X_Wifi_BLE_SDK/GD32VW55x_RELEASE_V1.0.2/MSDK/ble/app\app_list_mgr.c ****         return;
 184:C:/Users/stapi/OneDrive/Desktop/GD32VW553/V1_MQTT_OK/GD32VW55X_Wifi_BLE_SDK/GD32VW55x_RELEASE_V1.0.2/MSDK/ble/app\app_list_mgr.c ****     }
 185:C:/Users/stapi/OneDrive/Desktop/GD32VW553/V1_MQTT_OK/GD32VW55X_Wifi_BLE_SDK/GD32VW55x_RELEASE_V1.0.2/MSDK/ble/app\app_list_mgr.c **** 
 186:C:/Users/stapi/OneDrive/Desktop/GD32VW553/V1_MQTT_OK/GD32VW55X_Wifi_BLE_SDK/GD32VW55x_RELEASE_V1.0.2/MSDK/ble/app\app_list_mgr.c ****     // FIX TODO we need to suspend/resume scan/adv/init
 187:C:/Users/stapi/OneDrive/Desktop/GD32VW553/V1_MQTT_OK/GD32VW55X_Wifi_BLE_SDK/GD32VW55x_RELEASE_V1.0.2/MSDK/ble/app\app_list_mgr.c ****     p_fal_info = (ble_gap_addr_t *)sys_malloc(num * sizeof(ble_gap_addr_t));
 560              		.loc 1 187 36
 561 0010 1D46     		li	a2,7
 562 0012 3306C502 		mul	a2,a0,a2
 563 0016 AA84     		mv	s1,a0
 564              		.loc 1 187 5 is_stmt 1
 565              		.loc 1 187 36 is_stmt 0
 566 0018 3285     		mv	a0,a2
 567              	.LVL41:
 568 001a 32C6     		sw	a2,12(sp)
 569 001c 97000000 		call	sys_malloc
 569      E7800000 
 570              	.LVL42:
 571 0024 2A84     		mv	s0,a0
 572              	.LVL43:
 188:C:/Users/stapi/OneDrive/Desktop/GD32VW553/V1_MQTT_OK/GD32VW55X_Wifi_BLE_SDK/GD32VW55x_RELEASE_V1.0.2/MSDK/ble/app\app_list_mgr.c **** 
 189:C:/Users/stapi/OneDrive/Desktop/GD32VW553/V1_MQTT_OK/GD32VW55X_Wifi_BLE_SDK/GD32VW55x_RELEASE_V1.0.2/MSDK/ble/app\app_list_mgr.c ****     if (p_fal_info == NULL) {
 573              		.loc 1 189 5 is_stmt 1
 574              		.loc 1 189 8 is_stmt 0
 575 0026 4DC5     		beq	a0,zero,.L73
 190:C:/Users/stapi/OneDrive/Desktop/GD32VW553/V1_MQTT_OK/GD32VW55X_Wifi_BLE_SDK/GD32VW55x_RELEASE_V1.0.2/MSDK/ble/app\app_list_mgr.c ****         return;
 191:C:/Users/stapi/OneDrive/Desktop/GD32VW553/V1_MQTT_OK/GD32VW55X_Wifi_BLE_SDK/GD32VW55x_RELEASE_V1.0.2/MSDK/ble/app\app_list_mgr.c ****     }
 192:C:/Users/stapi/OneDrive/Desktop/GD32VW553/V1_MQTT_OK/GD32VW55X_Wifi_BLE_SDK/GD32VW55x_RELEASE_V1.0.2/MSDK/ble/app\app_list_mgr.c ****     sys_memset(p_fal_info, 0, num * sizeof(ble_gap_addr_t));
 576              		.loc 1 192 5 is_stmt 1
 577 0028 3246     		lw	a2,12(sp)
 578 002a 8145     		li	a1,0
 579 002c 0149     		li	s2,0
 580 002e 97000000 		call	sys_memset
 580      E7800000 
 581              	.LVL44:
 193:C:/Users/stapi/OneDrive/Desktop/GD32VW553/V1_MQTT_OK/GD32VW55X_Wifi_BLE_SDK/GD32VW55x_RELEASE_V1.0.2/MSDK/ble/app\app_list_mgr.c **** 
 194:C:/Users/stapi/OneDrive/Desktop/GD32VW553/V1_MQTT_OK/GD32VW55X_Wifi_BLE_SDK/GD32VW55x_RELEASE_V1.0.2/MSDK/ble/app\app_list_mgr.c ****     for (i = 0; i < num; i++) {
 582              		.loc 1 194 5
 583              		.loc 1 194 17
 584              	.LBB12:
 195:C:/Users/stapi/OneDrive/Desktop/GD32VW553/V1_MQTT_OK/GD32VW55X_Wifi_BLE_SDK/GD32VW55x_RELEASE_V1.0.2/MSDK/ble/app\app_list_mgr.c ****         #if (BLE_CFG_ROLE & (BLE_CFG_ROLE_OBSERVER | BLE_CFG_ROLE_CENTRAL))
 196:C:/Users/stapi/OneDrive/Desktop/GD32VW553/V1_MQTT_OK/GD32VW55X_Wifi_BLE_SDK/GD32VW55x_RELEASE_V1.0.2/MSDK/ble/app\app_list_mgr.c ****         dev_info_t *p_dev;
 197:C:/Users/stapi/OneDrive/Desktop/GD32VW553/V1_MQTT_OK/GD32VW55X_Wifi_BLE_SDK/GD32VW55x_RELEASE_V1.0.2/MSDK/ble/app\app_list_mgr.c **** 
 198:C:/Users/stapi/OneDrive/Desktop/GD32VW553/V1_MQTT_OK/GD32VW55X_Wifi_BLE_SDK/GD32VW55x_RELEASE_V1.0.2/MSDK/ble/app\app_list_mgr.c ****         if (p_array[i] == 0xFF) {
 585              		.loc 1 198 12 is_stmt 0
 586 0036 930BF00F 		li	s7,255
 199:C:/Users/stapi/OneDrive/Desktop/GD32VW553/V1_MQTT_OK/GD32VW55X_Wifi_BLE_SDK/GD32VW55x_RELEASE_V1.0.2/MSDK/ble/app\app_list_mgr.c ****             p_fal_info->addr_type = 0xFF;
 200:C:/Users/stapi/OneDrive/Desktop/GD32VW553/V1_MQTT_OK/GD32VW55X_Wifi_BLE_SDK/GD32VW55x_RELEASE_V1.0.2/MSDK/ble/app\app_list_mgr.c ****             sys_memset(p_fal_info->addr, 0, BLE_GAP_ADDR_LEN);
 201:C:/Users/stapi/OneDrive/Desktop/GD32VW553/V1_MQTT_OK/GD32VW55X_Wifi_BLE_SDK/GD32VW55x_RELEASE_V1.0.2/MSDK/ble/app\app_list_mgr.c ****         }
 202:C:/Users/stapi/OneDrive/Desktop/GD32VW553/V1_MQTT_OK/GD32VW55X_Wifi_BLE_SDK/GD32VW55x_RELEASE_V1.0.2/MSDK/ble/app\app_list_mgr.c ****         else {
 203:C:/Users/stapi/OneDrive/Desktop/GD32VW553/V1_MQTT_OK/GD32VW55X_Wifi_BLE_SDK/GD32VW55x_RELEASE_V1.0.2/MSDK/ble/app\app_list_mgr.c ****             p_dev = scan_mgr_find_dev_by_idx(p_array[i]);
 204:C:/Users/stapi/OneDrive/Desktop/GD32VW553/V1_MQTT_OK/GD32VW55X_Wifi_BLE_SDK/GD32VW55x_RELEASE_V1.0.2/MSDK/ble/app\app_list_mgr.c ****             if (!p_dev) {
 205:C:/Users/stapi/OneDrive/Desktop/GD32VW553/V1_MQTT_OK/GD32VW55X_Wifi_BLE_SDK/GD32VW55x_RELEASE_V1.0.2/MSDK/ble/app\app_list_mgr.c ****                 dbg_print(NOTICE, "app_wl_add can't find device idx %u \r\n", i);
 206:C:/Users/stapi/OneDrive/Desktop/GD32VW553/V1_MQTT_OK/GD32VW55X_Wifi_BLE_SDK/GD32VW55x_RELEASE_V1.0.2/MSDK/ble/app\app_list_mgr.c ****                 sys_mfree(p_fal_info);
 207:C:/Users/stapi/OneDrive/Desktop/GD32VW553/V1_MQTT_OK/GD32VW55X_Wifi_BLE_SDK/GD32VW55x_RELEASE_V1.0.2/MSDK/ble/app\app_list_mgr.c ****                 return;
 208:C:/Users/stapi/OneDrive/Desktop/GD32VW553/V1_MQTT_OK/GD32VW55X_Wifi_BLE_SDK/GD32VW55x_RELEASE_V1.0.2/MSDK/ble/app\app_list_mgr.c ****             }
 209:C:/Users/stapi/OneDrive/Desktop/GD32VW553/V1_MQTT_OK/GD32VW55X_Wifi_BLE_SDK/GD32VW55x_RELEASE_V1.0.2/MSDK/ble/app\app_list_mgr.c ****             sys_memcpy(p_fal_info->addr, p_dev->peer_addr.addr, BLE_GAP_ADDR_LEN);
 587              		.loc 1 209 34
 588 003a 930A1400 		addi	s5,s0,1
 199:C:/Users/stapi/OneDrive/Desktop/GD32VW553/V1_MQTT_OK/GD32VW55X_Wifi_BLE_SDK/GD32VW55x_RELEASE_V1.0.2/MSDK/ble/app\app_list_mgr.c ****             p_fal_info->addr_type = 0xFF;
 589              		.loc 1 199 35
 590 003e 7D5C     		li	s8,-1
 210:C:/Users/stapi/OneDrive/Desktop/GD32VW553/V1_MQTT_OK/GD32VW55X_Wifi_BLE_SDK/GD32VW55x_RELEASE_V1.0.2/MSDK/ble/app\app_list_mgr.c ****             p_fal_info->addr_type = p_dev->peer_addr.addr_type;
 211:C:/Users/stapi/OneDrive/Desktop/GD32VW553/V1_MQTT_OK/GD32VW55X_Wifi_BLE_SDK/GD32VW55x_RELEASE_V1.0.2/MSDK/ble/app\app_list_mgr.c ****         }
 212:C:/Users/stapi/OneDrive/Desktop/GD32VW553/V1_MQTT_OK/GD32VW55X_Wifi_BLE_SDK/GD32VW55x_RELEASE_V1.0.2/MSDK/ble/app\app_list_mgr.c **** 
 213:C:/Users/stapi/OneDrive/Desktop/GD32VW553/V1_MQTT_OK/GD32VW55X_Wifi_BLE_SDK/GD32VW55x_RELEASE_V1.0.2/MSDK/ble/app\app_list_mgr.c ****         if (ble_fal_op(p_fal_info, true) != BLE_ERR_NO_ERROR) {
 214:C:/Users/stapi/OneDrive/Desktop/GD32VW553/V1_MQTT_OK/GD32VW55X_Wifi_BLE_SDK/GD32VW55x_RELEASE_V1.0.2/MSDK/ble/app\app_list_mgr.c ****             dbg_print(NOTICE, "app_wl_add %u fail! \r\n", p_array[i]);
 591              		.loc 1 214 13
 592 0040 B70C0000 		lui	s9,%hi(global_debug_level)
 593 0044 094D     		li	s10,2
 594 0046 B70D0000 		lui	s11,%hi(.LC3)
 595              	.LVL45:
 596              	.L82:
 196:C:/Users/stapi/OneDrive/Desktop/GD32VW553/V1_MQTT_OK/GD32VW55X_Wifi_BLE_SDK/GD32VW55x_RELEASE_V1.0.2/MSDK/ble/app\app_list_mgr.c **** 
 597              		.loc 1 196 9 is_stmt 1
 198:C:/Users/stapi/OneDrive/Desktop/GD32VW553/V1_MQTT_OK/GD32VW55X_Wifi_BLE_SDK/GD32VW55x_RELEASE_V1.0.2/MSDK/ble/app\app_list_mgr.c ****             p_fal_info->addr_type = 0xFF;
 598              		.loc 1 198 9
 599 004a 330B2A01 		add	s6,s4,s2
 198:C:/Users/stapi/OneDrive/Desktop/GD32VW553/V1_MQTT_OK/GD32VW55X_Wifi_BLE_SDK/GD32VW55x_RELEASE_V1.0.2/MSDK/ble/app\app_list_mgr.c ****             p_fal_info->addr_type = 0xFF;
 600              		.loc 1 198 20 is_stmt 0
 601 004e 03450B00 		lbu	a0,0(s6)
 198:C:/Users/stapi/OneDrive/Desktop/GD32VW553/V1_MQTT_OK/GD32VW55X_Wifi_BLE_SDK/GD32VW55x_RELEASE_V1.0.2/MSDK/ble/app\app_list_mgr.c ****             p_fal_info->addr_type = 0xFF;
 602              		.loc 1 198 12
 603 0052 63147505 		bne	a0,s7,.L77
 199:C:/Users/stapi/OneDrive/Desktop/GD32VW553/V1_MQTT_OK/GD32VW55X_Wifi_BLE_SDK/GD32VW55x_RELEASE_V1.0.2/MSDK/ble/app\app_list_mgr.c ****             sys_memset(p_fal_info->addr, 0, BLE_GAP_ADDR_LEN);
 604              		.loc 1 199 13 is_stmt 1
 199:C:/Users/stapi/OneDrive/Desktop/GD32VW553/V1_MQTT_OK/GD32VW55X_Wifi_BLE_SDK/GD32VW55x_RELEASE_V1.0.2/MSDK/ble/app\app_list_mgr.c ****             sys_memset(p_fal_info->addr, 0, BLE_GAP_ADDR_LEN);
 605              		.loc 1 199 35 is_stmt 0
 606 0056 23008401 		sb	s8,0(s0)
 200:C:/Users/stapi/OneDrive/Desktop/GD32VW553/V1_MQTT_OK/GD32VW55X_Wifi_BLE_SDK/GD32VW55x_RELEASE_V1.0.2/MSDK/ble/app\app_list_mgr.c ****         }
 607              		.loc 1 200 13 is_stmt 1
 608 005a 1946     		li	a2,6
 609 005c 8145     		li	a1,0
 610 005e 5685     		mv	a0,s5
 611 0060 97000000 		call	sys_memset
 611      E7800000 
 612              	.LVL46:
 613              	.L78:
 213:C:/Users/stapi/OneDrive/Desktop/GD32VW553/V1_MQTT_OK/GD32VW55X_Wifi_BLE_SDK/GD32VW55x_RELEASE_V1.0.2/MSDK/ble/app\app_list_mgr.c ****             dbg_print(NOTICE, "app_wl_add %u fail! \r\n", p_array[i]);
 614              		.loc 1 213 9
 213:C:/Users/stapi/OneDrive/Desktop/GD32VW553/V1_MQTT_OK/GD32VW55X_Wifi_BLE_SDK/GD32VW55x_RELEASE_V1.0.2/MSDK/ble/app\app_list_mgr.c ****             dbg_print(NOTICE, "app_wl_add %u fail! \r\n", p_array[i]);
 615              		.loc 1 213 13 is_stmt 0
 616 0068 8545     		li	a1,1
 617 006a 2285     		mv	a0,s0
 618 006c 97000000 		call	ble_fal_op
 618      E7800000 
 619              	.LVL47:
 213:C:/Users/stapi/OneDrive/Desktop/GD32VW553/V1_MQTT_OK/GD32VW55X_Wifi_BLE_SDK/GD32VW55x_RELEASE_V1.0.2/MSDK/ble/app\app_list_mgr.c ****             dbg_print(NOTICE, "app_wl_add %u fail! \r\n", p_array[i]);
 620              		.loc 1 213 12
 621 0074 09CD     		beq	a0,zero,.L81
 622              		.loc 1 214 13 is_stmt 1
 623              		.loc 1 214 13
 624 0076 83C70C00 		lbu	a5,%lo(global_debug_level)(s9)
 625 007a 637AFD00 		bleu	a5,s10,.L81
 626              		.loc 1 214 13 discriminator 1
 627 007e 83450B00 		lbu	a1,0(s6)
 628 0082 13850D00 		addi	a0,s11,%lo(.LC3)
 629 0086 97000000 		call	co_printf
 629      E7800000 
 630              	.LVL48:
 631              	.L81:
 632              		.loc 1 214 13 discriminator 3
 633              	.LBE12:
 194:C:/Users/stapi/OneDrive/Desktop/GD32VW553/V1_MQTT_OK/GD32VW55X_Wifi_BLE_SDK/GD32VW55x_RELEASE_V1.0.2/MSDK/ble/app\app_list_mgr.c ****         #if (BLE_CFG_ROLE & (BLE_CFG_ROLE_OBSERVER | BLE_CFG_ROLE_CENTRAL))
 634              		.loc 1 194 26 discriminator 3
 194:C:/Users/stapi/OneDrive/Desktop/GD32VW553/V1_MQTT_OK/GD32VW55X_Wifi_BLE_SDK/GD32VW55x_RELEASE_V1.0.2/MSDK/ble/app\app_list_mgr.c ****         #if (BLE_CFG_ROLE & (BLE_CFG_ROLE_OBSERVER | BLE_CFG_ROLE_CENTRAL))
 635              		.loc 1 194 17 discriminator 3
 194:C:/Users/stapi/OneDrive/Desktop/GD32VW553/V1_MQTT_OK/GD32VW55X_Wifi_BLE_SDK/GD32VW55x_RELEASE_V1.0.2/MSDK/ble/app\app_list_mgr.c ****         #if (BLE_CFG_ROLE & (BLE_CFG_ROLE_OBSERVER | BLE_CFG_ROLE_CENTRAL))
 636              		.loc 1 194 5 is_stmt 0 discriminator 3
 637 008e 0509     		addi	s2,s2,1
 638              	.LVL49:
 639 0090 9377F90F 		andi	a5,s2,0xff
 640 0094 E3EB97FA 		bgtu	s1,a5,.L82
 641 0098 3DA0     		j	.L97
 642              	.LVL50:
 643              	.L77:
 644              	.LBB13:
 203:C:/Users/stapi/OneDrive/Desktop/GD32VW553/V1_MQTT_OK/GD32VW55X_Wifi_BLE_SDK/GD32VW55x_RELEASE_V1.0.2/MSDK/ble/app\app_list_mgr.c ****             if (!p_dev) {
 645              		.loc 1 203 13 is_stmt 1
 203:C:/Users/stapi/OneDrive/Desktop/GD32VW553/V1_MQTT_OK/GD32VW55X_Wifi_BLE_SDK/GD32VW55x_RELEASE_V1.0.2/MSDK/ble/app\app_list_mgr.c ****             if (!p_dev) {
 646              		.loc 1 203 21 is_stmt 0
 647 009a 97000000 		call	scan_mgr_find_dev_by_idx
 647      E7800000 
 648              	.LVL51:
 649 00a2 AA89     		mv	s3,a0
 650              	.LVL52:
 204:C:/Users/stapi/OneDrive/Desktop/GD32VW553/V1_MQTT_OK/GD32VW55X_Wifi_BLE_SDK/GD32VW55x_RELEASE_V1.0.2/MSDK/ble/app\app_list_mgr.c ****                 dbg_print(NOTICE, "app_wl_add can't find device idx %u \r\n", i);
 651              		.loc 1 204 13 is_stmt 1
 204:C:/Users/stapi/OneDrive/Desktop/GD32VW553/V1_MQTT_OK/GD32VW55X_Wifi_BLE_SDK/GD32VW55x_RELEASE_V1.0.2/MSDK/ble/app\app_list_mgr.c ****                 dbg_print(NOTICE, "app_wl_add can't find device idx %u \r\n", i);
 652              		.loc 1 204 16 is_stmt 0
 653 00a4 1DE9     		bne	a0,zero,.L79
 205:C:/Users/stapi/OneDrive/Desktop/GD32VW553/V1_MQTT_OK/GD32VW55X_Wifi_BLE_SDK/GD32VW55x_RELEASE_V1.0.2/MSDK/ble/app\app_list_mgr.c ****                 sys_mfree(p_fal_info);
 654              		.loc 1 205 17 is_stmt 1
 205:C:/Users/stapi/OneDrive/Desktop/GD32VW553/V1_MQTT_OK/GD32VW55X_Wifi_BLE_SDK/GD32VW55x_RELEASE_V1.0.2/MSDK/ble/app\app_list_mgr.c ****                 sys_mfree(p_fal_info);
 655              		.loc 1 205 17
 656 00a6 B7070000 		lui	a5,%hi(global_debug_level)
 657 00aa 03C70700 		lbu	a4,%lo(global_debug_level)(a5)
 658 00ae 8947     		li	a5,2
 659 00b0 63FBE700 		bleu	a4,a5,.L97
 205:C:/Users/stapi/OneDrive/Desktop/GD32VW553/V1_MQTT_OK/GD32VW55X_Wifi_BLE_SDK/GD32VW55x_RELEASE_V1.0.2/MSDK/ble/app\app_list_mgr.c ****                 sys_mfree(p_fal_info);
 660              		.loc 1 205 17 discriminator 1
 661 00b4 37050000 		lui	a0,%hi(.LC2)
 662              	.LVL53:
 663 00b8 CA85     		mv	a1,s2
 664 00ba 13050500 		addi	a0,a0,%lo(.LC2)
 665 00be 97000000 		call	co_printf
 665      E7800000 
 666              	.LVL54:
 205:C:/Users/stapi/OneDrive/Desktop/GD32VW553/V1_MQTT_OK/GD32VW55X_Wifi_BLE_SDK/GD32VW55x_RELEASE_V1.0.2/MSDK/ble/app\app_list_mgr.c ****                 sys_mfree(p_fal_info);
 667              		.loc 1 205 17 discriminator 1
 206:C:/Users/stapi/OneDrive/Desktop/GD32VW553/V1_MQTT_OK/GD32VW55X_Wifi_BLE_SDK/GD32VW55x_RELEASE_V1.0.2/MSDK/ble/app\app_list_mgr.c ****                 return;
 668              		.loc 1 206 17 discriminator 1
 669              	.L97:
 670              	.LBE13:
 215:C:/Users/stapi/OneDrive/Desktop/GD32VW553/V1_MQTT_OK/GD32VW55X_Wifi_BLE_SDK/GD32VW55x_RELEASE_V1.0.2/MSDK/ble/app\app_list_mgr.c ****         }
 216:C:/Users/stapi/OneDrive/Desktop/GD32VW553/V1_MQTT_OK/GD32VW55X_Wifi_BLE_SDK/GD32VW55x_RELEASE_V1.0.2/MSDK/ble/app\app_list_mgr.c ****         #endif
 217:C:/Users/stapi/OneDrive/Desktop/GD32VW553/V1_MQTT_OK/GD32VW55X_Wifi_BLE_SDK/GD32VW55x_RELEASE_V1.0.2/MSDK/ble/app\app_list_mgr.c ****     }
 218:C:/Users/stapi/OneDrive/Desktop/GD32VW553/V1_MQTT_OK/GD32VW55X_Wifi_BLE_SDK/GD32VW55x_RELEASE_V1.0.2/MSDK/ble/app\app_list_mgr.c **** 
 219:C:/Users/stapi/OneDrive/Desktop/GD32VW553/V1_MQTT_OK/GD32VW55X_Wifi_BLE_SDK/GD32VW55x_RELEASE_V1.0.2/MSDK/ble/app\app_list_mgr.c ****     sys_mfree(p_fal_info);
 671              		.loc 1 219 5
 672 00c6 2285     		mv	a0,s0
 673 00c8 97000000 		call	sys_mfree
 673      E7800000 
 674              	.LVL55:
 675              	.L73:
 220:C:/Users/stapi/OneDrive/Desktop/GD32VW553/V1_MQTT_OK/GD32VW55X_Wifi_BLE_SDK/GD32VW55x_RELEASE_V1.0.2/MSDK/ble/app\app_list_mgr.c **** }
 676              		.loc 1 220 1 is_stmt 0
 677 00d0 4101     		addi	sp,sp,16
 678              		.cfi_remember_state
 679              		.cfi_def_cfa_offset 0
 680 00d2 17030000 		tail	__riscv_restore_12
 680      67000300 
 681              		.cfi_restore 27
 682              		.cfi_restore 26
 683              		.cfi_restore 25
 684              		.cfi_restore 24
 685              		.cfi_restore 23
 686              		.cfi_restore 22
 687              		.cfi_restore 21
 688              		.cfi_restore 20
 689              		.cfi_restore 19
 690              		.cfi_restore 18
 691              		.cfi_restore 9
 692              		.cfi_restore 8
 693              		.cfi_restore 1
 694              		.cfi_def_cfa_offset -64
 695              	.LVL56:
 696              	.L79:
 697              		.cfi_restore_state
 698              	.LBB14:
 209:C:/Users/stapi/OneDrive/Desktop/GD32VW553/V1_MQTT_OK/GD32VW55X_Wifi_BLE_SDK/GD32VW55x_RELEASE_V1.0.2/MSDK/ble/app\app_list_mgr.c ****             p_fal_info->addr_type = p_dev->peer_addr.addr_type;
 699              		.loc 1 209 13 is_stmt 1
 700 00da 93059500 		addi	a1,a0,9
 701 00de 1946     		li	a2,6
 702 00e0 5685     		mv	a0,s5
 703              	.LVL57:
 704 00e2 97000000 		call	sys_memcpy
 704      E7800000 
 705              	.LVL58:
 210:C:/Users/stapi/OneDrive/Desktop/GD32VW553/V1_MQTT_OK/GD32VW55X_Wifi_BLE_SDK/GD32VW55x_RELEASE_V1.0.2/MSDK/ble/app\app_list_mgr.c ****         }
 706              		.loc 1 210 13
 210:C:/Users/stapi/OneDrive/Desktop/GD32VW553/V1_MQTT_OK/GD32VW55X_Wifi_BLE_SDK/GD32VW55x_RELEASE_V1.0.2/MSDK/ble/app\app_list_mgr.c ****         }
 707              		.loc 1 210 53 is_stmt 0
 708 00ea 83C78900 		lbu	a5,8(s3)
 210:C:/Users/stapi/OneDrive/Desktop/GD32VW553/V1_MQTT_OK/GD32VW55X_Wifi_BLE_SDK/GD32VW55x_RELEASE_V1.0.2/MSDK/ble/app\app_list_mgr.c ****         }
 709              		.loc 1 210 35
 710 00ee 2300F400 		sb	a5,0(s0)
 711 00f2 9DBF     		j	.L78
 712              	.LVL59:
 713              	.L94:
 714              		.cfi_def_cfa_offset 0
 715              		.cfi_restore 1
 716              		.cfi_restore 8
 717              		.cfi_restore 9
 718              		.cfi_restore 18
 719              		.cfi_restore 19
 720              		.cfi_restore 20
 721              		.cfi_restore 21
 722              		.cfi_restore 22
 723              		.cfi_restore 23
 724              		.cfi_restore 24
 725              		.cfi_restore 25
 726              		.cfi_restore 26
 727              		.cfi_restore 27
 728 00f4 8280     		ret
 729              	.LBE14:
 730              		.cfi_endproc
 731              	.LFE4:
 733              		.section	.rodata.app_wl_add_addr.str1.4,"aMS",@progbits,1
 734              		.align	2
 735              	.LC4:
 736 0000 6170705F 		.string	"app_wl_add_addr fail status 0x%x\r\n"
 736      776C5F61 
 736      64645F61 
 736      64647220 
 736      6661696C 
 737              		.section	.text.app_wl_add_addr,"ax",@progbits
 738              		.align	1
 739              		.globl	app_wl_add_addr
 741              	app_wl_add_addr:
 742              	.LFB5:
 221:C:/Users/stapi/OneDrive/Desktop/GD32VW553/V1_MQTT_OK/GD32VW55X_Wifi_BLE_SDK/GD32VW55x_RELEASE_V1.0.2/MSDK/ble/app\app_list_mgr.c **** 
 222:C:/Users/stapi/OneDrive/Desktop/GD32VW553/V1_MQTT_OK/GD32VW55X_Wifi_BLE_SDK/GD32VW55x_RELEASE_V1.0.2/MSDK/ble/app\app_list_mgr.c **** /*!
 223:C:/Users/stapi/OneDrive/Desktop/GD32VW553/V1_MQTT_OK/GD32VW55X_Wifi_BLE_SDK/GD32VW55x_RELEASE_V1.0.2/MSDK/ble/app\app_list_mgr.c ****     \brief      Add a device to filter accept list
 224:C:/Users/stapi/OneDrive/Desktop/GD32VW553/V1_MQTT_OK/GD32VW55X_Wifi_BLE_SDK/GD32VW55x_RELEASE_V1.0.2/MSDK/ble/app\app_list_mgr.c ****     \param[in]  addr_type: address type
 225:C:/Users/stapi/OneDrive/Desktop/GD32VW553/V1_MQTT_OK/GD32VW55X_Wifi_BLE_SDK/GD32VW55x_RELEASE_V1.0.2/MSDK/ble/app\app_list_mgr.c ****     \param[in]  p_addr: pointer to address used to add in filter accept list
 226:C:/Users/stapi/OneDrive/Desktop/GD32VW553/V1_MQTT_OK/GD32VW55X_Wifi_BLE_SDK/GD32VW55x_RELEASE_V1.0.2/MSDK/ble/app\app_list_mgr.c ****     \param[out] none
 227:C:/Users/stapi/OneDrive/Desktop/GD32VW553/V1_MQTT_OK/GD32VW55X_Wifi_BLE_SDK/GD32VW55x_RELEASE_V1.0.2/MSDK/ble/app\app_list_mgr.c ****     \retval     none
 228:C:/Users/stapi/OneDrive/Desktop/GD32VW553/V1_MQTT_OK/GD32VW55X_Wifi_BLE_SDK/GD32VW55x_RELEASE_V1.0.2/MSDK/ble/app\app_list_mgr.c **** */
 229:C:/Users/stapi/OneDrive/Desktop/GD32VW553/V1_MQTT_OK/GD32VW55X_Wifi_BLE_SDK/GD32VW55x_RELEASE_V1.0.2/MSDK/ble/app\app_list_mgr.c **** void app_wl_add_addr(uint8_t addr_type, uint8_t *p_addr)
 230:C:/Users/stapi/OneDrive/Desktop/GD32VW553/V1_MQTT_OK/GD32VW55X_Wifi_BLE_SDK/GD32VW55x_RELEASE_V1.0.2/MSDK/ble/app\app_list_mgr.c **** {
 743              		.loc 1 230 1 is_stmt 1
 744              		.cfi_startproc
 745              	.LVL60:
 231:C:/Users/stapi/OneDrive/Desktop/GD32VW553/V1_MQTT_OK/GD32VW55X_Wifi_BLE_SDK/GD32VW55x_RELEASE_V1.0.2/MSDK/ble/app\app_list_mgr.c ****     ble_gap_addr_t fal_info;
 746              		.loc 1 231 5
 232:C:/Users/stapi/OneDrive/Desktop/GD32VW553/V1_MQTT_OK/GD32VW55X_Wifi_BLE_SDK/GD32VW55x_RELEASE_V1.0.2/MSDK/ble/app\app_list_mgr.c ****     ble_status_t ret;
 747              		.loc 1 232 5
 233:C:/Users/stapi/OneDrive/Desktop/GD32VW553/V1_MQTT_OK/GD32VW55X_Wifi_BLE_SDK/GD32VW55x_RELEASE_V1.0.2/MSDK/ble/app\app_list_mgr.c **** 
 234:C:/Users/stapi/OneDrive/Desktop/GD32VW553/V1_MQTT_OK/GD32VW55X_Wifi_BLE_SDK/GD32VW55x_RELEASE_V1.0.2/MSDK/ble/app\app_list_mgr.c ****     if (p_addr == NULL) {
 748              		.loc 1 234 5
 749              		.loc 1 234 8 is_stmt 0
 750 0000 B9C9     		beq	a1,zero,.L105
 230:C:/Users/stapi/OneDrive/Desktop/GD32VW553/V1_MQTT_OK/GD32VW55X_Wifi_BLE_SDK/GD32VW55x_RELEASE_V1.0.2/MSDK/ble/app\app_list_mgr.c ****     ble_gap_addr_t fal_info;
 751              		.loc 1 230 1
 752 0002 17030000 		call	t0,__riscv_save_0
 752      E7020300 
 753              		.cfi_offset 1, -4
 754              		.cfi_def_cfa_offset 16
 235:C:/Users/stapi/OneDrive/Desktop/GD32VW553/V1_MQTT_OK/GD32VW55X_Wifi_BLE_SDK/GD32VW55x_RELEASE_V1.0.2/MSDK/ble/app\app_list_mgr.c ****         return;
 236:C:/Users/stapi/OneDrive/Desktop/GD32VW553/V1_MQTT_OK/GD32VW55X_Wifi_BLE_SDK/GD32VW55x_RELEASE_V1.0.2/MSDK/ble/app\app_list_mgr.c ****     }
 237:C:/Users/stapi/OneDrive/Desktop/GD32VW553/V1_MQTT_OK/GD32VW55X_Wifi_BLE_SDK/GD32VW55x_RELEASE_V1.0.2/MSDK/ble/app\app_list_mgr.c **** 
 238:C:/Users/stapi/OneDrive/Desktop/GD32VW553/V1_MQTT_OK/GD32VW55X_Wifi_BLE_SDK/GD32VW55x_RELEASE_V1.0.2/MSDK/ble/app\app_list_mgr.c ****     fal_info.addr_type = addr_type;
 755              		.loc 1 238 5 is_stmt 1
 230:C:/Users/stapi/OneDrive/Desktop/GD32VW553/V1_MQTT_OK/GD32VW55X_Wifi_BLE_SDK/GD32VW55x_RELEASE_V1.0.2/MSDK/ble/app\app_list_mgr.c ****     ble_gap_addr_t fal_info;
 756              		.loc 1 230 1 is_stmt 0
 757 000a 4111     		addi	sp,sp,-16
 758              		.cfi_def_cfa_offset 32
 759              		.loc 1 238 24
 760 000c 2304A100 		sb	a0,8(sp)
 239:C:/Users/stapi/OneDrive/Desktop/GD32VW553/V1_MQTT_OK/GD32VW55X_Wifi_BLE_SDK/GD32VW55x_RELEASE_V1.0.2/MSDK/ble/app\app_list_mgr.c ****     memcpy(fal_info.addr, p_addr, BLE_GAP_ADDR_LEN);
 761              		.loc 1 239 5 is_stmt 1
 762 0010 1946     		li	a2,6
 763 0012 13059100 		addi	a0,sp,9
 764              	.LVL61:
 765 0016 97000000 		call	memcpy
 765      E7800000 
 766              	.LVL62:
 240:C:/Users/stapi/OneDrive/Desktop/GD32VW553/V1_MQTT_OK/GD32VW55X_Wifi_BLE_SDK/GD32VW55x_RELEASE_V1.0.2/MSDK/ble/app\app_list_mgr.c **** 
 241:C:/Users/stapi/OneDrive/Desktop/GD32VW553/V1_MQTT_OK/GD32VW55X_Wifi_BLE_SDK/GD32VW55x_RELEASE_V1.0.2/MSDK/ble/app\app_list_mgr.c ****     ret = ble_fal_op(&fal_info, true);
 767              		.loc 1 241 5
 768              		.loc 1 241 11 is_stmt 0
 769 001e 8545     		li	a1,1
 770 0020 2800     		addi	a0,sp,8
 771 0022 97000000 		call	ble_fal_op
 771      E7800000 
 772              	.LVL63:
 773 002a AA85     		mv	a1,a0
 774              	.LVL64:
 242:C:/Users/stapi/OneDrive/Desktop/GD32VW553/V1_MQTT_OK/GD32VW55X_Wifi_BLE_SDK/GD32VW55x_RELEASE_V1.0.2/MSDK/ble/app\app_list_mgr.c ****     if (ret != BLE_ERR_NO_ERROR) {
 775              		.loc 1 242 5 is_stmt 1
 776              		.loc 1 242 8 is_stmt 0
 777 002c 05C1     		beq	a0,zero,.L98
 243:C:/Users/stapi/OneDrive/Desktop/GD32VW553/V1_MQTT_OK/GD32VW55X_Wifi_BLE_SDK/GD32VW55x_RELEASE_V1.0.2/MSDK/ble/app\app_list_mgr.c ****         dbg_print(NOTICE, "app_wl_add_addr fail status 0x%x\r\n", ret);
 778              		.loc 1 243 9 is_stmt 1
 779              		.loc 1 243 9
 780 002e B7070000 		lui	a5,%hi(global_debug_level)
 781 0032 03C70700 		lbu	a4,%lo(global_debug_level)(a5)
 782 0036 8947     		li	a5,2
 783 0038 63FAE700 		bleu	a4,a5,.L98
 784              		.loc 1 243 9 discriminator 1
 785 003c 37050000 		lui	a0,%hi(.LC4)
 786              	.LVL65:
 787 0040 13050500 		addi	a0,a0,%lo(.LC4)
 788 0044 97000000 		call	co_printf
 788      E7800000 
 789              	.LVL66:
 790              	.L98:
 244:C:/Users/stapi/OneDrive/Desktop/GD32VW553/V1_MQTT_OK/GD32VW55X_Wifi_BLE_SDK/GD32VW55x_RELEASE_V1.0.2/MSDK/ble/app\app_list_mgr.c ****     }
 245:C:/Users/stapi/OneDrive/Desktop/GD32VW553/V1_MQTT_OK/GD32VW55X_Wifi_BLE_SDK/GD32VW55x_RELEASE_V1.0.2/MSDK/ble/app\app_list_mgr.c **** }
 791              		.loc 1 245 1 is_stmt 0
 792 004c 4101     		addi	sp,sp,16
 793              		.cfi_def_cfa_offset 0
 794 004e 17030000 		tail	__riscv_restore_0
 794      67000300 
 795              		.cfi_restore 1
 796              		.cfi_def_cfa_offset -16
 797              	.LVL67:
 798              	.L105:
 799              		.cfi_def_cfa_offset 0
 800 0056 8280     		ret
 801              		.cfi_endproc
 802              	.LFE5:
 804              		.section	.rodata.app_wl_rmv.str1.4,"aMS",@progbits,1
 805              		.align	2
 806              	.LC5:
 807 0000 6170705F 		.string	"app_wl_rmv %u fail! \r\n"
 807      776C5F72 
 807      6D762025 
 807      75206661 
 807      696C2120 
 808              		.section	.text.app_wl_rmv,"ax",@progbits
 809              		.align	1
 810              		.globl	app_wl_rmv
 812              	app_wl_rmv:
 813              	.LFB6:
 246:C:/Users/stapi/OneDrive/Desktop/GD32VW553/V1_MQTT_OK/GD32VW55X_Wifi_BLE_SDK/GD32VW55x_RELEASE_V1.0.2/MSDK/ble/app\app_list_mgr.c **** 
 247:C:/Users/stapi/OneDrive/Desktop/GD32VW553/V1_MQTT_OK/GD32VW55X_Wifi_BLE_SDK/GD32VW55x_RELEASE_V1.0.2/MSDK/ble/app\app_list_mgr.c **** /*!
 248:C:/Users/stapi/OneDrive/Desktop/GD32VW553/V1_MQTT_OK/GD32VW55X_Wifi_BLE_SDK/GD32VW55x_RELEASE_V1.0.2/MSDK/ble/app\app_list_mgr.c ****     \brief      Remove devices from filter accept list
 249:C:/Users/stapi/OneDrive/Desktop/GD32VW553/V1_MQTT_OK/GD32VW55X_Wifi_BLE_SDK/GD32VW55x_RELEASE_V1.0.2/MSDK/ble/app\app_list_mgr.c ****     \param[in]  num: number of provided device index
 250:C:/Users/stapi/OneDrive/Desktop/GD32VW553/V1_MQTT_OK/GD32VW55X_Wifi_BLE_SDK/GD32VW55x_RELEASE_V1.0.2/MSDK/ble/app\app_list_mgr.c ****     \param[in]  p_array: pointer to array of device index used to remove from filter accept list
 251:C:/Users/stapi/OneDrive/Desktop/GD32VW553/V1_MQTT_OK/GD32VW55X_Wifi_BLE_SDK/GD32VW55x_RELEASE_V1.0.2/MSDK/ble/app\app_list_mgr.c ****     \param[out] none
 252:C:/Users/stapi/OneDrive/Desktop/GD32VW553/V1_MQTT_OK/GD32VW55X_Wifi_BLE_SDK/GD32VW55x_RELEASE_V1.0.2/MSDK/ble/app\app_list_mgr.c ****     \retval     none
 253:C:/Users/stapi/OneDrive/Desktop/GD32VW553/V1_MQTT_OK/GD32VW55X_Wifi_BLE_SDK/GD32VW55x_RELEASE_V1.0.2/MSDK/ble/app\app_list_mgr.c **** */
 254:C:/Users/stapi/OneDrive/Desktop/GD32VW553/V1_MQTT_OK/GD32VW55X_Wifi_BLE_SDK/GD32VW55x_RELEASE_V1.0.2/MSDK/ble/app\app_list_mgr.c **** void app_wl_rmv(uint8_t num, uint8_t *p_array)
 255:C:/Users/stapi/OneDrive/Desktop/GD32VW553/V1_MQTT_OK/GD32VW55X_Wifi_BLE_SDK/GD32VW55x_RELEASE_V1.0.2/MSDK/ble/app\app_list_mgr.c **** {
 814              		.loc 1 255 1 is_stmt 1
 815              		.cfi_startproc
 816              	.LVL68:
 256:C:/Users/stapi/OneDrive/Desktop/GD32VW553/V1_MQTT_OK/GD32VW55X_Wifi_BLE_SDK/GD32VW55x_RELEASE_V1.0.2/MSDK/ble/app\app_list_mgr.c ****     ble_gap_addr_t *p_fal_info;
 817              		.loc 1 256 5
 257:C:/Users/stapi/OneDrive/Desktop/GD32VW553/V1_MQTT_OK/GD32VW55X_Wifi_BLE_SDK/GD32VW55x_RELEASE_V1.0.2/MSDK/ble/app\app_list_mgr.c ****     uint8_t i;
 818              		.loc 1 257 5
 258:C:/Users/stapi/OneDrive/Desktop/GD32VW553/V1_MQTT_OK/GD32VW55X_Wifi_BLE_SDK/GD32VW55x_RELEASE_V1.0.2/MSDK/ble/app\app_list_mgr.c **** 
 259:C:/Users/stapi/OneDrive/Desktop/GD32VW553/V1_MQTT_OK/GD32VW55X_Wifi_BLE_SDK/GD32VW55x_RELEASE_V1.0.2/MSDK/ble/app\app_list_mgr.c ****     if (num == 0 || p_array == NULL) {
 819              		.loc 1 259 5
 820              		.loc 1 259 8 is_stmt 0
 821 0000 4DC9     		beq	a0,zero,.L125
 255:C:/Users/stapi/OneDrive/Desktop/GD32VW553/V1_MQTT_OK/GD32VW55X_Wifi_BLE_SDK/GD32VW55x_RELEASE_V1.0.2/MSDK/ble/app\app_list_mgr.c ****     ble_gap_addr_t *p_fal_info;
 822              		.loc 1 255 1 discriminator 1
 823 0002 17030000 		call	t0,__riscv_save_10
 823      E7020300 
 824              		.cfi_offset 25, -44
 825              		.cfi_offset 24, -40
 826              		.cfi_offset 23, -36
 827              		.cfi_offset 22, -32
 828              		.cfi_offset 21, -28
 829              		.cfi_offset 20, -24
 830              		.cfi_offset 19, -20
 831              		.cfi_offset 18, -16
 832              		.cfi_offset 9, -12
 833              		.cfi_offset 8, -8
 834              		.cfi_offset 1, -4
 835              		.cfi_def_cfa_offset 48
 836 000a 4111     		addi	sp,sp,-16
 837              		.cfi_def_cfa_offset 64
 838 000c AE89     		mv	s3,a1
 839              		.loc 1 259 18 discriminator 1
 840 000e C9CD     		beq	a1,zero,.L108
 260:C:/Users/stapi/OneDrive/Desktop/GD32VW553/V1_MQTT_OK/GD32VW55X_Wifi_BLE_SDK/GD32VW55x_RELEASE_V1.0.2/MSDK/ble/app\app_list_mgr.c ****         return;
 261:C:/Users/stapi/OneDrive/Desktop/GD32VW553/V1_MQTT_OK/GD32VW55X_Wifi_BLE_SDK/GD32VW55x_RELEASE_V1.0.2/MSDK/ble/app\app_list_mgr.c ****     }
 262:C:/Users/stapi/OneDrive/Desktop/GD32VW553/V1_MQTT_OK/GD32VW55X_Wifi_BLE_SDK/GD32VW55x_RELEASE_V1.0.2/MSDK/ble/app\app_list_mgr.c **** 
 263:C:/Users/stapi/OneDrive/Desktop/GD32VW553/V1_MQTT_OK/GD32VW55X_Wifi_BLE_SDK/GD32VW55x_RELEASE_V1.0.2/MSDK/ble/app\app_list_mgr.c ****     // FIX TODO we need to suspend/resume scan/adv/init
 264:C:/Users/stapi/OneDrive/Desktop/GD32VW553/V1_MQTT_OK/GD32VW55X_Wifi_BLE_SDK/GD32VW55x_RELEASE_V1.0.2/MSDK/ble/app\app_list_mgr.c ****     p_fal_info = (ble_gap_addr_t *)sys_malloc(num * sizeof(ble_gap_addr_t));
 841              		.loc 1 264 36
 842 0010 1D46     		li	a2,7
 843 0012 3306C502 		mul	a2,a0,a2
 844 0016 AA84     		mv	s1,a0
 845              		.loc 1 264 5 is_stmt 1
 846              		.loc 1 264 36 is_stmt 0
 847 0018 3285     		mv	a0,a2
 848              	.LVL69:
 849 001a 32C6     		sw	a2,12(sp)
 850 001c 97000000 		call	sys_malloc
 850      E7800000 
 851              	.LVL70:
 852 0024 2A84     		mv	s0,a0
 853              	.LVL71:
 265:C:/Users/stapi/OneDrive/Desktop/GD32VW553/V1_MQTT_OK/GD32VW55X_Wifi_BLE_SDK/GD32VW55x_RELEASE_V1.0.2/MSDK/ble/app\app_list_mgr.c **** 
 266:C:/Users/stapi/OneDrive/Desktop/GD32VW553/V1_MQTT_OK/GD32VW55X_Wifi_BLE_SDK/GD32VW55x_RELEASE_V1.0.2/MSDK/ble/app\app_list_mgr.c ****     if (p_fal_info == NULL) {
 854              		.loc 1 266 5 is_stmt 1
 855              		.loc 1 266 8 is_stmt 0
 856 0026 49C1     		beq	a0,zero,.L108
 267:C:/Users/stapi/OneDrive/Desktop/GD32VW553/V1_MQTT_OK/GD32VW55X_Wifi_BLE_SDK/GD32VW55x_RELEASE_V1.0.2/MSDK/ble/app\app_list_mgr.c ****         return;
 268:C:/Users/stapi/OneDrive/Desktop/GD32VW553/V1_MQTT_OK/GD32VW55X_Wifi_BLE_SDK/GD32VW55x_RELEASE_V1.0.2/MSDK/ble/app\app_list_mgr.c ****     }
 269:C:/Users/stapi/OneDrive/Desktop/GD32VW553/V1_MQTT_OK/GD32VW55X_Wifi_BLE_SDK/GD32VW55x_RELEASE_V1.0.2/MSDK/ble/app\app_list_mgr.c ****     memset(p_fal_info, 0, num * sizeof(ble_gap_addr_t));
 857              		.loc 1 269 5 is_stmt 1
 858 0028 3246     		lw	a2,12(sp)
 859 002a 8145     		li	a1,0
 860 002c 0149     		li	s2,0
 861 002e 97000000 		call	memset
 861      E7800000 
 862              	.LVL72:
 270:C:/Users/stapi/OneDrive/Desktop/GD32VW553/V1_MQTT_OK/GD32VW55X_Wifi_BLE_SDK/GD32VW55x_RELEASE_V1.0.2/MSDK/ble/app\app_list_mgr.c **** 
 271:C:/Users/stapi/OneDrive/Desktop/GD32VW553/V1_MQTT_OK/GD32VW55X_Wifi_BLE_SDK/GD32VW55x_RELEASE_V1.0.2/MSDK/ble/app\app_list_mgr.c ****     for (i = 0; i < num; i++) {
 863              		.loc 1 271 5
 864              		.loc 1 271 17
 865              	.LBB15:
 272:C:/Users/stapi/OneDrive/Desktop/GD32VW553/V1_MQTT_OK/GD32VW55X_Wifi_BLE_SDK/GD32VW55x_RELEASE_V1.0.2/MSDK/ble/app\app_list_mgr.c ****         #if (BLE_CFG_ROLE & (BLE_CFG_ROLE_OBSERVER | BLE_CFG_ROLE_CENTRAL))
 273:C:/Users/stapi/OneDrive/Desktop/GD32VW553/V1_MQTT_OK/GD32VW55X_Wifi_BLE_SDK/GD32VW55x_RELEASE_V1.0.2/MSDK/ble/app\app_list_mgr.c ****         dev_info_t *p_dev;
 274:C:/Users/stapi/OneDrive/Desktop/GD32VW553/V1_MQTT_OK/GD32VW55X_Wifi_BLE_SDK/GD32VW55x_RELEASE_V1.0.2/MSDK/ble/app\app_list_mgr.c **** 
 275:C:/Users/stapi/OneDrive/Desktop/GD32VW553/V1_MQTT_OK/GD32VW55X_Wifi_BLE_SDK/GD32VW55x_RELEASE_V1.0.2/MSDK/ble/app\app_list_mgr.c ****         p_dev = scan_mgr_find_dev_by_idx(p_array[i]);
 276:C:/Users/stapi/OneDrive/Desktop/GD32VW553/V1_MQTT_OK/GD32VW55X_Wifi_BLE_SDK/GD32VW55x_RELEASE_V1.0.2/MSDK/ble/app\app_list_mgr.c ****         memcpy(p_fal_info->addr, p_dev->peer_addr.addr, BLE_GAP_ADDR_LEN);
 866              		.loc 1 276 9 is_stmt 0
 867 0036 130B1400 		addi	s6,s0,1
 277:C:/Users/stapi/OneDrive/Desktop/GD32VW553/V1_MQTT_OK/GD32VW55X_Wifi_BLE_SDK/GD32VW55x_RELEASE_V1.0.2/MSDK/ble/app\app_list_mgr.c ****         p_fal_info->addr_type = p_dev->peer_addr.addr_type;
 278:C:/Users/stapi/OneDrive/Desktop/GD32VW553/V1_MQTT_OK/GD32VW55X_Wifi_BLE_SDK/GD32VW55x_RELEASE_V1.0.2/MSDK/ble/app\app_list_mgr.c **** 
 279:C:/Users/stapi/OneDrive/Desktop/GD32VW553/V1_MQTT_OK/GD32VW55X_Wifi_BLE_SDK/GD32VW55x_RELEASE_V1.0.2/MSDK/ble/app\app_list_mgr.c ****         if (ble_fal_op(p_fal_info, false) != BLE_ERR_NO_ERROR) {
 280:C:/Users/stapi/OneDrive/Desktop/GD32VW553/V1_MQTT_OK/GD32VW55X_Wifi_BLE_SDK/GD32VW55x_RELEASE_V1.0.2/MSDK/ble/app\app_list_mgr.c ****             dbg_print(NOTICE, "app_wl_rmv %u fail! \r\n", p_array[i]);
 868              		.loc 1 280 13
 869 003a B70B0000 		lui	s7,%hi(global_debug_level)
 870 003e 094C     		li	s8,2
 871 0040 B70C0000 		lui	s9,%hi(.LC5)
 872              	.LVL73:
 873              	.L113:
 273:C:/Users/stapi/OneDrive/Desktop/GD32VW553/V1_MQTT_OK/GD32VW55X_Wifi_BLE_SDK/GD32VW55x_RELEASE_V1.0.2/MSDK/ble/app\app_list_mgr.c **** 
 874              		.loc 1 273 9 is_stmt 1
 275:C:/Users/stapi/OneDrive/Desktop/GD32VW553/V1_MQTT_OK/GD32VW55X_Wifi_BLE_SDK/GD32VW55x_RELEASE_V1.0.2/MSDK/ble/app\app_list_mgr.c ****         memcpy(p_fal_info->addr, p_dev->peer_addr.addr, BLE_GAP_ADDR_LEN);
 875              		.loc 1 275 9
 876 0044 B38A2901 		add	s5,s3,s2
 275:C:/Users/stapi/OneDrive/Desktop/GD32VW553/V1_MQTT_OK/GD32VW55X_Wifi_BLE_SDK/GD32VW55x_RELEASE_V1.0.2/MSDK/ble/app\app_list_mgr.c ****         memcpy(p_fal_info->addr, p_dev->peer_addr.addr, BLE_GAP_ADDR_LEN);
 877              		.loc 1 275 17 is_stmt 0
 878 0048 03C50A00 		lbu	a0,0(s5)
 879 004c 97000000 		call	scan_mgr_find_dev_by_idx
 879      E7800000 
 880              	.LVL74:
 276:C:/Users/stapi/OneDrive/Desktop/GD32VW553/V1_MQTT_OK/GD32VW55X_Wifi_BLE_SDK/GD32VW55x_RELEASE_V1.0.2/MSDK/ble/app\app_list_mgr.c ****         p_fal_info->addr_type = p_dev->peer_addr.addr_type;
 881              		.loc 1 276 9
 882 0054 93059500 		addi	a1,a0,9
 275:C:/Users/stapi/OneDrive/Desktop/GD32VW553/V1_MQTT_OK/GD32VW55X_Wifi_BLE_SDK/GD32VW55x_RELEASE_V1.0.2/MSDK/ble/app\app_list_mgr.c ****         memcpy(p_fal_info->addr, p_dev->peer_addr.addr, BLE_GAP_ADDR_LEN);
 883              		.loc 1 275 17
 884 0058 2A8A     		mv	s4,a0
 885              	.LVL75:
 276:C:/Users/stapi/OneDrive/Desktop/GD32VW553/V1_MQTT_OK/GD32VW55X_Wifi_BLE_SDK/GD32VW55x_RELEASE_V1.0.2/MSDK/ble/app\app_list_mgr.c ****         p_fal_info->addr_type = p_dev->peer_addr.addr_type;
 886              		.loc 1 276 9 is_stmt 1
 887 005a 1946     		li	a2,6
 888 005c 5A85     		mv	a0,s6
 889              	.LVL76:
 890 005e 97000000 		call	memcpy
 890      E7800000 
 891              	.LVL77:
 277:C:/Users/stapi/OneDrive/Desktop/GD32VW553/V1_MQTT_OK/GD32VW55X_Wifi_BLE_SDK/GD32VW55x_RELEASE_V1.0.2/MSDK/ble/app\app_list_mgr.c **** 
 892              		.loc 1 277 9
 277:C:/Users/stapi/OneDrive/Desktop/GD32VW553/V1_MQTT_OK/GD32VW55X_Wifi_BLE_SDK/GD32VW55x_RELEASE_V1.0.2/MSDK/ble/app\app_list_mgr.c **** 
 893              		.loc 1 277 49 is_stmt 0
 894 0066 83478A00 		lbu	a5,8(s4)
 279:C:/Users/stapi/OneDrive/Desktop/GD32VW553/V1_MQTT_OK/GD32VW55X_Wifi_BLE_SDK/GD32VW55x_RELEASE_V1.0.2/MSDK/ble/app\app_list_mgr.c ****             dbg_print(NOTICE, "app_wl_rmv %u fail! \r\n", p_array[i]);
 895              		.loc 1 279 13
 896 006a 8145     		li	a1,0
 897 006c 2285     		mv	a0,s0
 277:C:/Users/stapi/OneDrive/Desktop/GD32VW553/V1_MQTT_OK/GD32VW55X_Wifi_BLE_SDK/GD32VW55x_RELEASE_V1.0.2/MSDK/ble/app\app_list_mgr.c **** 
 898              		.loc 1 277 31
 899 006e 2300F400 		sb	a5,0(s0)
 279:C:/Users/stapi/OneDrive/Desktop/GD32VW553/V1_MQTT_OK/GD32VW55X_Wifi_BLE_SDK/GD32VW55x_RELEASE_V1.0.2/MSDK/ble/app\app_list_mgr.c ****             dbg_print(NOTICE, "app_wl_rmv %u fail! \r\n", p_array[i]);
 900              		.loc 1 279 9 is_stmt 1
 279:C:/Users/stapi/OneDrive/Desktop/GD32VW553/V1_MQTT_OK/GD32VW55X_Wifi_BLE_SDK/GD32VW55x_RELEASE_V1.0.2/MSDK/ble/app\app_list_mgr.c ****             dbg_print(NOTICE, "app_wl_rmv %u fail! \r\n", p_array[i]);
 901              		.loc 1 279 13 is_stmt 0
 902 0072 97000000 		call	ble_fal_op
 902      E7800000 
 903              	.LVL78:
 279:C:/Users/stapi/OneDrive/Desktop/GD32VW553/V1_MQTT_OK/GD32VW55X_Wifi_BLE_SDK/GD32VW55x_RELEASE_V1.0.2/MSDK/ble/app\app_list_mgr.c ****             dbg_print(NOTICE, "app_wl_rmv %u fail! \r\n", p_array[i]);
 904              		.loc 1 279 12
 905 007a 09CD     		beq	a0,zero,.L112
 906              		.loc 1 280 13 is_stmt 1
 907              		.loc 1 280 13
 908 007c 83C70B00 		lbu	a5,%lo(global_debug_level)(s7)
 909 0080 637AFC00 		bleu	a5,s8,.L112
 910              		.loc 1 280 13 discriminator 1
 911 0084 83C50A00 		lbu	a1,0(s5)
 912 0088 13850C00 		addi	a0,s9,%lo(.LC5)
 913 008c 97000000 		call	co_printf
 913      E7800000 
 914              	.LVL79:
 915              	.L112:
 916              		.loc 1 280 13 discriminator 3
 917              	.LBE15:
 271:C:/Users/stapi/OneDrive/Desktop/GD32VW553/V1_MQTT_OK/GD32VW55X_Wifi_BLE_SDK/GD32VW55x_RELEASE_V1.0.2/MSDK/ble/app\app_list_mgr.c ****         #if (BLE_CFG_ROLE & (BLE_CFG_ROLE_OBSERVER | BLE_CFG_ROLE_CENTRAL))
 918              		.loc 1 271 26 discriminator 3
 271:C:/Users/stapi/OneDrive/Desktop/GD32VW553/V1_MQTT_OK/GD32VW55X_Wifi_BLE_SDK/GD32VW55x_RELEASE_V1.0.2/MSDK/ble/app\app_list_mgr.c ****         #if (BLE_CFG_ROLE & (BLE_CFG_ROLE_OBSERVER | BLE_CFG_ROLE_CENTRAL))
 919              		.loc 1 271 17 discriminator 3
 271:C:/Users/stapi/OneDrive/Desktop/GD32VW553/V1_MQTT_OK/GD32VW55X_Wifi_BLE_SDK/GD32VW55x_RELEASE_V1.0.2/MSDK/ble/app\app_list_mgr.c ****         #if (BLE_CFG_ROLE & (BLE_CFG_ROLE_OBSERVER | BLE_CFG_ROLE_CENTRAL))
 920              		.loc 1 271 5 is_stmt 0 discriminator 3
 921 0094 0509     		addi	s2,s2,1
 922              	.LVL80:
 923 0096 9377F90F 		andi	a5,s2,0xff
 924 009a E3E597FA 		bgtu	s1,a5,.L113
 281:C:/Users/stapi/OneDrive/Desktop/GD32VW553/V1_MQTT_OK/GD32VW55X_Wifi_BLE_SDK/GD32VW55x_RELEASE_V1.0.2/MSDK/ble/app\app_list_mgr.c ****         }
 282:C:/Users/stapi/OneDrive/Desktop/GD32VW553/V1_MQTT_OK/GD32VW55X_Wifi_BLE_SDK/GD32VW55x_RELEASE_V1.0.2/MSDK/ble/app\app_list_mgr.c ****         #endif
 283:C:/Users/stapi/OneDrive/Desktop/GD32VW553/V1_MQTT_OK/GD32VW55X_Wifi_BLE_SDK/GD32VW55x_RELEASE_V1.0.2/MSDK/ble/app\app_list_mgr.c ****     }
 284:C:/Users/stapi/OneDrive/Desktop/GD32VW553/V1_MQTT_OK/GD32VW55X_Wifi_BLE_SDK/GD32VW55x_RELEASE_V1.0.2/MSDK/ble/app\app_list_mgr.c **** 
 285:C:/Users/stapi/OneDrive/Desktop/GD32VW553/V1_MQTT_OK/GD32VW55X_Wifi_BLE_SDK/GD32VW55x_RELEASE_V1.0.2/MSDK/ble/app\app_list_mgr.c ****     sys_mfree(p_fal_info);
 925              		.loc 1 285 5 is_stmt 1
 926 009e 2285     		mv	a0,s0
 927 00a0 97000000 		call	sys_mfree
 927      E7800000 
 928              	.LVL81:
 929              	.L108:
 286:C:/Users/stapi/OneDrive/Desktop/GD32VW553/V1_MQTT_OK/GD32VW55X_Wifi_BLE_SDK/GD32VW55x_RELEASE_V1.0.2/MSDK/ble/app\app_list_mgr.c **** }
 930              		.loc 1 286 1 is_stmt 0
 931 00a8 4101     		addi	sp,sp,16
 932              		.cfi_def_cfa_offset 0
 933 00aa 17030000 		tail	__riscv_restore_10
 933      67000300 
 934              		.cfi_restore 25
 935              		.cfi_restore 24
 936              		.cfi_restore 23
 937              		.cfi_restore 22
 938              		.cfi_restore 21
 939              		.cfi_restore 20
 940              		.cfi_restore 19
 941              		.cfi_restore 18
 942              		.cfi_restore 9
 943              		.cfi_restore 8
 944              		.cfi_restore 1
 945              		.cfi_def_cfa_offset -48
 946              	.LVL82:
 947              	.L125:
 948              		.cfi_def_cfa_offset 0
 949 00b2 8280     		ret
 950              		.cfi_endproc
 951              	.LFE6:
 953              		.section	.rodata.app_wl_rmv_addr.str1.4,"aMS",@progbits,1
 954              		.align	2
 955              	.LC6:
 956 0000 6170705F 		.string	"app_wl_rmv_addr fail status 0x%x\r\n"
 956      776C5F72 
 956      6D765F61 
 956      64647220 
 956      6661696C 
 957              		.section	.text.app_wl_rmv_addr,"ax",@progbits
 958              		.align	1
 959              		.globl	app_wl_rmv_addr
 961              	app_wl_rmv_addr:
 962              	.LFB7:
 287:C:/Users/stapi/OneDrive/Desktop/GD32VW553/V1_MQTT_OK/GD32VW55X_Wifi_BLE_SDK/GD32VW55x_RELEASE_V1.0.2/MSDK/ble/app\app_list_mgr.c **** 
 288:C:/Users/stapi/OneDrive/Desktop/GD32VW553/V1_MQTT_OK/GD32VW55X_Wifi_BLE_SDK/GD32VW55x_RELEASE_V1.0.2/MSDK/ble/app\app_list_mgr.c **** /*!
 289:C:/Users/stapi/OneDrive/Desktop/GD32VW553/V1_MQTT_OK/GD32VW55X_Wifi_BLE_SDK/GD32VW55x_RELEASE_V1.0.2/MSDK/ble/app\app_list_mgr.c ****     \brief      Remove a device from filter accept list
 290:C:/Users/stapi/OneDrive/Desktop/GD32VW553/V1_MQTT_OK/GD32VW55X_Wifi_BLE_SDK/GD32VW55x_RELEASE_V1.0.2/MSDK/ble/app\app_list_mgr.c ****     \param[in]  addr_type: address type
 291:C:/Users/stapi/OneDrive/Desktop/GD32VW553/V1_MQTT_OK/GD32VW55X_Wifi_BLE_SDK/GD32VW55x_RELEASE_V1.0.2/MSDK/ble/app\app_list_mgr.c ****     \param[in]  p_addr: pointer to address used to remove from filter accept list
 292:C:/Users/stapi/OneDrive/Desktop/GD32VW553/V1_MQTT_OK/GD32VW55X_Wifi_BLE_SDK/GD32VW55x_RELEASE_V1.0.2/MSDK/ble/app\app_list_mgr.c ****     \param[out] none
 293:C:/Users/stapi/OneDrive/Desktop/GD32VW553/V1_MQTT_OK/GD32VW55X_Wifi_BLE_SDK/GD32VW55x_RELEASE_V1.0.2/MSDK/ble/app\app_list_mgr.c ****     \retval     none
 294:C:/Users/stapi/OneDrive/Desktop/GD32VW553/V1_MQTT_OK/GD32VW55X_Wifi_BLE_SDK/GD32VW55x_RELEASE_V1.0.2/MSDK/ble/app\app_list_mgr.c **** */
 295:C:/Users/stapi/OneDrive/Desktop/GD32VW553/V1_MQTT_OK/GD32VW55X_Wifi_BLE_SDK/GD32VW55x_RELEASE_V1.0.2/MSDK/ble/app\app_list_mgr.c **** void app_wl_rmv_addr(uint8_t addr_type, uint8_t *p_addr)
 296:C:/Users/stapi/OneDrive/Desktop/GD32VW553/V1_MQTT_OK/GD32VW55X_Wifi_BLE_SDK/GD32VW55x_RELEASE_V1.0.2/MSDK/ble/app\app_list_mgr.c **** {
 963              		.loc 1 296 1 is_stmt 1
 964              		.cfi_startproc
 965              	.LVL83:
 297:C:/Users/stapi/OneDrive/Desktop/GD32VW553/V1_MQTT_OK/GD32VW55X_Wifi_BLE_SDK/GD32VW55x_RELEASE_V1.0.2/MSDK/ble/app\app_list_mgr.c ****     ble_gap_addr_t fal_info;
 966              		.loc 1 297 5
 298:C:/Users/stapi/OneDrive/Desktop/GD32VW553/V1_MQTT_OK/GD32VW55X_Wifi_BLE_SDK/GD32VW55x_RELEASE_V1.0.2/MSDK/ble/app\app_list_mgr.c ****     ble_status_t ret;
 967              		.loc 1 298 5
 299:C:/Users/stapi/OneDrive/Desktop/GD32VW553/V1_MQTT_OK/GD32VW55X_Wifi_BLE_SDK/GD32VW55x_RELEASE_V1.0.2/MSDK/ble/app\app_list_mgr.c **** 
 300:C:/Users/stapi/OneDrive/Desktop/GD32VW553/V1_MQTT_OK/GD32VW55X_Wifi_BLE_SDK/GD32VW55x_RELEASE_V1.0.2/MSDK/ble/app\app_list_mgr.c ****     if (p_addr == NULL) {
 968              		.loc 1 300 5
 969              		.loc 1 300 8 is_stmt 0
 970 0000 B9C9     		beq	a1,zero,.L135
 296:C:/Users/stapi/OneDrive/Desktop/GD32VW553/V1_MQTT_OK/GD32VW55X_Wifi_BLE_SDK/GD32VW55x_RELEASE_V1.0.2/MSDK/ble/app\app_list_mgr.c ****     ble_gap_addr_t fal_info;
 971              		.loc 1 296 1
 972 0002 17030000 		call	t0,__riscv_save_0
 972      E7020300 
 973              		.cfi_offset 1, -4
 974              		.cfi_def_cfa_offset 16
 301:C:/Users/stapi/OneDrive/Desktop/GD32VW553/V1_MQTT_OK/GD32VW55X_Wifi_BLE_SDK/GD32VW55x_RELEASE_V1.0.2/MSDK/ble/app\app_list_mgr.c ****         return;
 302:C:/Users/stapi/OneDrive/Desktop/GD32VW553/V1_MQTT_OK/GD32VW55X_Wifi_BLE_SDK/GD32VW55x_RELEASE_V1.0.2/MSDK/ble/app\app_list_mgr.c ****     }
 303:C:/Users/stapi/OneDrive/Desktop/GD32VW553/V1_MQTT_OK/GD32VW55X_Wifi_BLE_SDK/GD32VW55x_RELEASE_V1.0.2/MSDK/ble/app\app_list_mgr.c **** 
 304:C:/Users/stapi/OneDrive/Desktop/GD32VW553/V1_MQTT_OK/GD32VW55X_Wifi_BLE_SDK/GD32VW55x_RELEASE_V1.0.2/MSDK/ble/app\app_list_mgr.c ****     fal_info.addr_type = addr_type;
 975              		.loc 1 304 5 is_stmt 1
 296:C:/Users/stapi/OneDrive/Desktop/GD32VW553/V1_MQTT_OK/GD32VW55X_Wifi_BLE_SDK/GD32VW55x_RELEASE_V1.0.2/MSDK/ble/app\app_list_mgr.c ****     ble_gap_addr_t fal_info;
 976              		.loc 1 296 1 is_stmt 0
 977 000a 4111     		addi	sp,sp,-16
 978              		.cfi_def_cfa_offset 32
 979              		.loc 1 304 24
 980 000c 2304A100 		sb	a0,8(sp)
 305:C:/Users/stapi/OneDrive/Desktop/GD32VW553/V1_MQTT_OK/GD32VW55X_Wifi_BLE_SDK/GD32VW55x_RELEASE_V1.0.2/MSDK/ble/app\app_list_mgr.c ****     memcpy(fal_info.addr, p_addr, BLE_GAP_ADDR_LEN);
 981              		.loc 1 305 5 is_stmt 1
 982 0010 1946     		li	a2,6
 983 0012 13059100 		addi	a0,sp,9
 984              	.LVL84:
 985 0016 97000000 		call	memcpy
 985      E7800000 
 986              	.LVL85:
 306:C:/Users/stapi/OneDrive/Desktop/GD32VW553/V1_MQTT_OK/GD32VW55X_Wifi_BLE_SDK/GD32VW55x_RELEASE_V1.0.2/MSDK/ble/app\app_list_mgr.c **** 
 307:C:/Users/stapi/OneDrive/Desktop/GD32VW553/V1_MQTT_OK/GD32VW55X_Wifi_BLE_SDK/GD32VW55x_RELEASE_V1.0.2/MSDK/ble/app\app_list_mgr.c ****     ret = ble_fal_op(&fal_info, false);
 987              		.loc 1 307 5
 988              		.loc 1 307 11 is_stmt 0
 989 001e 8145     		li	a1,0
 990 0020 2800     		addi	a0,sp,8
 991 0022 97000000 		call	ble_fal_op
 991      E7800000 
 992              	.LVL86:
 993 002a AA85     		mv	a1,a0
 994              	.LVL87:
 308:C:/Users/stapi/OneDrive/Desktop/GD32VW553/V1_MQTT_OK/GD32VW55X_Wifi_BLE_SDK/GD32VW55x_RELEASE_V1.0.2/MSDK/ble/app\app_list_mgr.c ****     if (ret != BLE_ERR_NO_ERROR) {
 995              		.loc 1 308 5 is_stmt 1
 996              		.loc 1 308 8 is_stmt 0
 997 002c 05C1     		beq	a0,zero,.L128
 309:C:/Users/stapi/OneDrive/Desktop/GD32VW553/V1_MQTT_OK/GD32VW55X_Wifi_BLE_SDK/GD32VW55x_RELEASE_V1.0.2/MSDK/ble/app\app_list_mgr.c ****         dbg_print(NOTICE, "app_wl_rmv_addr fail status 0x%x\r\n", ret);
 998              		.loc 1 309 9 is_stmt 1
 999              		.loc 1 309 9
 1000 002e B7070000 		lui	a5,%hi(global_debug_level)
 1001 0032 03C70700 		lbu	a4,%lo(global_debug_level)(a5)
 1002 0036 8947     		li	a5,2
 1003 0038 63FAE700 		bleu	a4,a5,.L128
 1004              		.loc 1 309 9 discriminator 1
 1005 003c 37050000 		lui	a0,%hi(.LC6)
 1006              	.LVL88:
 1007 0040 13050500 		addi	a0,a0,%lo(.LC6)
 1008 0044 97000000 		call	co_printf
 1008      E7800000 
 1009              	.LVL89:
 1010              	.L128:
 310:C:/Users/stapi/OneDrive/Desktop/GD32VW553/V1_MQTT_OK/GD32VW55X_Wifi_BLE_SDK/GD32VW55x_RELEASE_V1.0.2/MSDK/ble/app\app_list_mgr.c ****     }
 311:C:/Users/stapi/OneDrive/Desktop/GD32VW553/V1_MQTT_OK/GD32VW55X_Wifi_BLE_SDK/GD32VW55x_RELEASE_V1.0.2/MSDK/ble/app\app_list_mgr.c **** }
 1011              		.loc 1 311 1 is_stmt 0
 1012 004c 4101     		addi	sp,sp,16
 1013              		.cfi_def_cfa_offset 0
 1014 004e 17030000 		tail	__riscv_restore_0
 1014      67000300 
 1015              		.cfi_restore 1
 1016              		.cfi_def_cfa_offset -16
 1017              	.LVL90:
 1018              	.L135:
 1019              		.cfi_def_cfa_offset 0
 1020 0056 8280     		ret
 1021              		.cfi_endproc
 1022              	.LFE7:
 1024              		.section	.rodata.app_wl_clear.str1.4,"aMS",@progbits,1
 1025              		.align	2
 1026              	.LC7:
 1027 0000 6170705F 		.string	"app_wl_clear fail! \r\n"
 1027      776C5F63 
 1027      6C656172 
 1027      20666169 
 1027      6C21200D 
 1028              		.section	.text.app_wl_clear,"ax",@progbits
 1029              		.align	1
 1030              		.globl	app_wl_clear
 1032              	app_wl_clear:
 1033              	.LFB8:
 312:C:/Users/stapi/OneDrive/Desktop/GD32VW553/V1_MQTT_OK/GD32VW55X_Wifi_BLE_SDK/GD32VW55x_RELEASE_V1.0.2/MSDK/ble/app\app_list_mgr.c **** 
 313:C:/Users/stapi/OneDrive/Desktop/GD32VW553/V1_MQTT_OK/GD32VW55X_Wifi_BLE_SDK/GD32VW55x_RELEASE_V1.0.2/MSDK/ble/app\app_list_mgr.c **** /*!
 314:C:/Users/stapi/OneDrive/Desktop/GD32VW553/V1_MQTT_OK/GD32VW55X_Wifi_BLE_SDK/GD32VW55x_RELEASE_V1.0.2/MSDK/ble/app\app_list_mgr.c ****     \brief      Clear filter accept list
 315:C:/Users/stapi/OneDrive/Desktop/GD32VW553/V1_MQTT_OK/GD32VW55X_Wifi_BLE_SDK/GD32VW55x_RELEASE_V1.0.2/MSDK/ble/app\app_list_mgr.c ****     \param[in]  none
 316:C:/Users/stapi/OneDrive/Desktop/GD32VW553/V1_MQTT_OK/GD32VW55X_Wifi_BLE_SDK/GD32VW55x_RELEASE_V1.0.2/MSDK/ble/app\app_list_mgr.c ****     \param[out] none
 317:C:/Users/stapi/OneDrive/Desktop/GD32VW553/V1_MQTT_OK/GD32VW55X_Wifi_BLE_SDK/GD32VW55x_RELEASE_V1.0.2/MSDK/ble/app\app_list_mgr.c ****     \retval     none
 318:C:/Users/stapi/OneDrive/Desktop/GD32VW553/V1_MQTT_OK/GD32VW55X_Wifi_BLE_SDK/GD32VW55x_RELEASE_V1.0.2/MSDK/ble/app\app_list_mgr.c **** */
 319:C:/Users/stapi/OneDrive/Desktop/GD32VW553/V1_MQTT_OK/GD32VW55X_Wifi_BLE_SDK/GD32VW55x_RELEASE_V1.0.2/MSDK/ble/app\app_list_mgr.c **** void app_wl_clear(void)
 320:C:/Users/stapi/OneDrive/Desktop/GD32VW553/V1_MQTT_OK/GD32VW55X_Wifi_BLE_SDK/GD32VW55x_RELEASE_V1.0.2/MSDK/ble/app\app_list_mgr.c **** {
 1034              		.loc 1 320 1 is_stmt 1
 1035              		.cfi_startproc
 1036 0000 17030000 		call	t0,__riscv_save_0
 1036      E7020300 
 1037              		.cfi_offset 1, -4
 1038              		.cfi_def_cfa_offset 16
 321:C:/Users/stapi/OneDrive/Desktop/GD32VW553/V1_MQTT_OK/GD32VW55X_Wifi_BLE_SDK/GD32VW55x_RELEASE_V1.0.2/MSDK/ble/app\app_list_mgr.c ****     // FIX TODO we need to suspend/resume scan/adv/init
 322:C:/Users/stapi/OneDrive/Desktop/GD32VW553/V1_MQTT_OK/GD32VW55X_Wifi_BLE_SDK/GD32VW55x_RELEASE_V1.0.2/MSDK/ble/app\app_list_mgr.c **** 
 323:C:/Users/stapi/OneDrive/Desktop/GD32VW553/V1_MQTT_OK/GD32VW55X_Wifi_BLE_SDK/GD32VW55x_RELEASE_V1.0.2/MSDK/ble/app\app_list_mgr.c ****     if (ble_fal_clear() != BLE_ERR_NO_ERROR) {
 1039              		.loc 1 323 5
 1040              		.loc 1 323 9 is_stmt 0
 1041 0008 97000000 		call	ble_fal_clear
 1041      E7800000 
 1042              	.LVL91:
 1043              		.loc 1 323 8
 1044 0010 05C1     		beq	a0,zero,.L138
 324:C:/Users/stapi/OneDrive/Desktop/GD32VW553/V1_MQTT_OK/GD32VW55X_Wifi_BLE_SDK/GD32VW55x_RELEASE_V1.0.2/MSDK/ble/app\app_list_mgr.c ****         dbg_print(NOTICE, "app_wl_clear fail! \r\n");
 1045              		.loc 1 324 9 is_stmt 1
 1046              		.loc 1 324 9
 1047 0012 B7070000 		lui	a5,%hi(global_debug_level)
 1048 0016 03C70700 		lbu	a4,%lo(global_debug_level)(a5)
 1049 001a 8947     		li	a5,2
 1050 001c 63FAE700 		bleu	a4,a5,.L138
 1051              		.loc 1 324 9 discriminator 1
 1052 0020 37050000 		lui	a0,%hi(.LC7)
 1053 0024 13050500 		addi	a0,a0,%lo(.LC7)
 1054 0028 97000000 		call	co_printf
 1054      E7800000 
 1055              	.LVL92:
 1056              		.loc 1 324 9 discriminator 1
 1057              	.L138:
 325:C:/Users/stapi/OneDrive/Desktop/GD32VW553/V1_MQTT_OK/GD32VW55X_Wifi_BLE_SDK/GD32VW55x_RELEASE_V1.0.2/MSDK/ble/app\app_list_mgr.c ****     }
 326:C:/Users/stapi/OneDrive/Desktop/GD32VW553/V1_MQTT_OK/GD32VW55X_Wifi_BLE_SDK/GD32VW55x_RELEASE_V1.0.2/MSDK/ble/app\app_list_mgr.c **** }
 1058              		.loc 1 326 1 is_stmt 0
 1059 0030 17030000 		tail	__riscv_restore_0
 1059      67000300 
 1060              		.cfi_restore 1
 1061              		.cfi_def_cfa_offset 0
 1062              		.cfi_endproc
 1063              	.LFE8:
 1065              		.section	.rodata.app_pal_set.str1.4,"aMS",@progbits,1
 1066              		.align	2
 1067              	.LC8:
 1068 0000 6170705F 		.string	"app_pal_set num %u fail! \r\n"
 1068      70616C5F 
 1068      73657420 
 1068      6E756D20 
 1068      25752066 
 1069              		.section	.text.app_pal_set,"ax",@progbits
 1070              		.align	1
 1071              		.globl	app_pal_set
 1073              	app_pal_set:
 1074              	.LFB9:
 327:C:/Users/stapi/OneDrive/Desktop/GD32VW553/V1_MQTT_OK/GD32VW55X_Wifi_BLE_SDK/GD32VW55x_RELEASE_V1.0.2/MSDK/ble/app\app_list_mgr.c **** 
 328:C:/Users/stapi/OneDrive/Desktop/GD32VW553/V1_MQTT_OK/GD32VW55X_Wifi_BLE_SDK/GD32VW55x_RELEASE_V1.0.2/MSDK/ble/app\app_list_mgr.c **** /*!
 329:C:/Users/stapi/OneDrive/Desktop/GD32VW553/V1_MQTT_OK/GD32VW55X_Wifi_BLE_SDK/GD32VW55x_RELEASE_V1.0.2/MSDK/ble/app\app_list_mgr.c ****     \brief      Set periodic advertiser list
 330:C:/Users/stapi/OneDrive/Desktop/GD32VW553/V1_MQTT_OK/GD32VW55X_Wifi_BLE_SDK/GD32VW55x_RELEASE_V1.0.2/MSDK/ble/app\app_list_mgr.c ****     \param[in]  num: number of provided device index
 331:C:/Users/stapi/OneDrive/Desktop/GD32VW553/V1_MQTT_OK/GD32VW55X_Wifi_BLE_SDK/GD32VW55x_RELEASE_V1.0.2/MSDK/ble/app\app_list_mgr.c ****     \param[in]  p_array: pointer to array of device index used to set in periodic advertiser list
 332:C:/Users/stapi/OneDrive/Desktop/GD32VW553/V1_MQTT_OK/GD32VW55X_Wifi_BLE_SDK/GD32VW55x_RELEASE_V1.0.2/MSDK/ble/app\app_list_mgr.c ****     \param[out] none
 333:C:/Users/stapi/OneDrive/Desktop/GD32VW553/V1_MQTT_OK/GD32VW55X_Wifi_BLE_SDK/GD32VW55x_RELEASE_V1.0.2/MSDK/ble/app\app_list_mgr.c ****     \retval     none
 334:C:/Users/stapi/OneDrive/Desktop/GD32VW553/V1_MQTT_OK/GD32VW55X_Wifi_BLE_SDK/GD32VW55x_RELEASE_V1.0.2/MSDK/ble/app\app_list_mgr.c **** */
 335:C:/Users/stapi/OneDrive/Desktop/GD32VW553/V1_MQTT_OK/GD32VW55X_Wifi_BLE_SDK/GD32VW55x_RELEASE_V1.0.2/MSDK/ble/app\app_list_mgr.c **** void app_pal_set(uint8_t num, uint8_t *p_array)
 336:C:/Users/stapi/OneDrive/Desktop/GD32VW553/V1_MQTT_OK/GD32VW55X_Wifi_BLE_SDK/GD32VW55x_RELEASE_V1.0.2/MSDK/ble/app\app_list_mgr.c **** {
 1075              		.loc 1 336 1 is_stmt 1
 1076              		.cfi_startproc
 1077              	.LVL93:
 337:C:/Users/stapi/OneDrive/Desktop/GD32VW553/V1_MQTT_OK/GD32VW55X_Wifi_BLE_SDK/GD32VW55x_RELEASE_V1.0.2/MSDK/ble/app\app_list_mgr.c ****     ble_gap_pal_info_t *p_pal_info;
 1078              		.loc 1 337 5
 338:C:/Users/stapi/OneDrive/Desktop/GD32VW553/V1_MQTT_OK/GD32VW55X_Wifi_BLE_SDK/GD32VW55x_RELEASE_V1.0.2/MSDK/ble/app\app_list_mgr.c ****     uint8_t i;
 1079              		.loc 1 338 5
 339:C:/Users/stapi/OneDrive/Desktop/GD32VW553/V1_MQTT_OK/GD32VW55X_Wifi_BLE_SDK/GD32VW55x_RELEASE_V1.0.2/MSDK/ble/app\app_list_mgr.c **** 
 340:C:/Users/stapi/OneDrive/Desktop/GD32VW553/V1_MQTT_OK/GD32VW55X_Wifi_BLE_SDK/GD32VW55x_RELEASE_V1.0.2/MSDK/ble/app\app_list_mgr.c ****     if (num == 0 || p_array == NULL) {
 1080              		.loc 1 340 5
 1081              		.loc 1 340 8 is_stmt 0
 1082 0000 5DC9     		beq	a0,zero,.L161
 336:C:/Users/stapi/OneDrive/Desktop/GD32VW553/V1_MQTT_OK/GD32VW55X_Wifi_BLE_SDK/GD32VW55x_RELEASE_V1.0.2/MSDK/ble/app\app_list_mgr.c ****     ble_gap_pal_info_t *p_pal_info;
 1083              		.loc 1 336 1 discriminator 1
 1084 0002 17030000 		call	t0,__riscv_save_6
 1084      E7020300 
 1085              		.cfi_offset 21, -28
 1086              		.cfi_offset 20, -24
 1087              		.cfi_offset 19, -20
 1088              		.cfi_offset 18, -16
 1089              		.cfi_offset 9, -12
 1090              		.cfi_offset 8, -8
 1091              		.cfi_offset 1, -4
 1092              		.cfi_def_cfa_offset 32
 1093 000a 4111     		addi	sp,sp,-16
 1094              		.cfi_def_cfa_offset 48
 1095 000c AE8A     		mv	s5,a1
 1096              		.loc 1 340 18 discriminator 1
 1097 000e D9CD     		beq	a1,zero,.L144
 341:C:/Users/stapi/OneDrive/Desktop/GD32VW553/V1_MQTT_OK/GD32VW55X_Wifi_BLE_SDK/GD32VW55x_RELEASE_V1.0.2/MSDK/ble/app\app_list_mgr.c ****         return;
 342:C:/Users/stapi/OneDrive/Desktop/GD32VW553/V1_MQTT_OK/GD32VW55X_Wifi_BLE_SDK/GD32VW55x_RELEASE_V1.0.2/MSDK/ble/app\app_list_mgr.c ****     }
 343:C:/Users/stapi/OneDrive/Desktop/GD32VW553/V1_MQTT_OK/GD32VW55X_Wifi_BLE_SDK/GD32VW55x_RELEASE_V1.0.2/MSDK/ble/app\app_list_mgr.c **** 
 344:C:/Users/stapi/OneDrive/Desktop/GD32VW553/V1_MQTT_OK/GD32VW55X_Wifi_BLE_SDK/GD32VW55x_RELEASE_V1.0.2/MSDK/ble/app\app_list_mgr.c ****     // FIX TODO we need to suspend/resume scan/adv/init
 345:C:/Users/stapi/OneDrive/Desktop/GD32VW553/V1_MQTT_OK/GD32VW55X_Wifi_BLE_SDK/GD32VW55x_RELEASE_V1.0.2/MSDK/ble/app\app_list_mgr.c ****     p_pal_info = (ble_gap_pal_info_t *)sys_malloc(num * sizeof(ble_gap_pal_info_t));
 1098              		.loc 1 345 40
 1099 0010 13163500 		slli	a2,a0,3
 1100 0014 2A84     		mv	s0,a0
 1101              		.loc 1 345 5 is_stmt 1
 1102              		.loc 1 345 40 is_stmt 0
 1103 0016 3285     		mv	a0,a2
 1104              	.LVL94:
 1105 0018 32C6     		sw	a2,12(sp)
 1106 001a 97000000 		call	sys_malloc
 1106      E7800000 
 1107              	.LVL95:
 1108 0022 AA84     		mv	s1,a0
 1109              	.LVL96:
 346:C:/Users/stapi/OneDrive/Desktop/GD32VW553/V1_MQTT_OK/GD32VW55X_Wifi_BLE_SDK/GD32VW55x_RELEASE_V1.0.2/MSDK/ble/app\app_list_mgr.c **** 
 347:C:/Users/stapi/OneDrive/Desktop/GD32VW553/V1_MQTT_OK/GD32VW55X_Wifi_BLE_SDK/GD32VW55x_RELEASE_V1.0.2/MSDK/ble/app\app_list_mgr.c ****     if (p_pal_info == NULL) {
 1110              		.loc 1 347 5 is_stmt 1
 1111              		.loc 1 347 8 is_stmt 0
 1112 0024 41C5     		beq	a0,zero,.L144
 348:C:/Users/stapi/OneDrive/Desktop/GD32VW553/V1_MQTT_OK/GD32VW55X_Wifi_BLE_SDK/GD32VW55x_RELEASE_V1.0.2/MSDK/ble/app\app_list_mgr.c ****         return;
 349:C:/Users/stapi/OneDrive/Desktop/GD32VW553/V1_MQTT_OK/GD32VW55X_Wifi_BLE_SDK/GD32VW55x_RELEASE_V1.0.2/MSDK/ble/app\app_list_mgr.c ****     }
 350:C:/Users/stapi/OneDrive/Desktop/GD32VW553/V1_MQTT_OK/GD32VW55X_Wifi_BLE_SDK/GD32VW55x_RELEASE_V1.0.2/MSDK/ble/app\app_list_mgr.c ****     memset(p_pal_info, 0, num * sizeof(ble_gap_pal_info_t));
 1113              		.loc 1 350 5 is_stmt 1
 1114 0026 3246     		lw	a2,12(sp)
 1115 0028 8145     		li	a1,0
 1116 002a 2689     		mv	s2,s1
 1117 002c 97000000 		call	memset
 1117      E7800000 
 1118              	.LVL97:
 351:C:/Users/stapi/OneDrive/Desktop/GD32VW553/V1_MQTT_OK/GD32VW55X_Wifi_BLE_SDK/GD32VW55x_RELEASE_V1.0.2/MSDK/ble/app\app_list_mgr.c **** 
 352:C:/Users/stapi/OneDrive/Desktop/GD32VW553/V1_MQTT_OK/GD32VW55X_Wifi_BLE_SDK/GD32VW55x_RELEASE_V1.0.2/MSDK/ble/app\app_list_mgr.c ****     for (i = 0; i < num; i++) {
 1119              		.loc 1 352 5
 1120              		.loc 1 352 17
 350:C:/Users/stapi/OneDrive/Desktop/GD32VW553/V1_MQTT_OK/GD32VW55X_Wifi_BLE_SDK/GD32VW55x_RELEASE_V1.0.2/MSDK/ble/app\app_list_mgr.c **** 
 1121              		.loc 1 350 5 is_stmt 0
 1122 0034 014A     		li	s4,0
 1123              	.LVL98:
 1124              	.L148:
 1125              	.LBB16:
 353:C:/Users/stapi/OneDrive/Desktop/GD32VW553/V1_MQTT_OK/GD32VW55X_Wifi_BLE_SDK/GD32VW55x_RELEASE_V1.0.2/MSDK/ble/app\app_list_mgr.c ****         #if (BLE_CFG_ROLE & (BLE_CFG_ROLE_OBSERVER | BLE_CFG_ROLE_CENTRAL))
 354:C:/Users/stapi/OneDrive/Desktop/GD32VW553/V1_MQTT_OK/GD32VW55X_Wifi_BLE_SDK/GD32VW55x_RELEASE_V1.0.2/MSDK/ble/app\app_list_mgr.c ****         dev_info_t *p_dev;
 1126              		.loc 1 354 9 is_stmt 1 discriminator 3
 355:C:/Users/stapi/OneDrive/Desktop/GD32VW553/V1_MQTT_OK/GD32VW55X_Wifi_BLE_SDK/GD32VW55x_RELEASE_V1.0.2/MSDK/ble/app\app_list_mgr.c **** 
 356:C:/Users/stapi/OneDrive/Desktop/GD32VW553/V1_MQTT_OK/GD32VW55X_Wifi_BLE_SDK/GD32VW55x_RELEASE_V1.0.2/MSDK/ble/app\app_list_mgr.c ****         p_dev = scan_mgr_find_dev_by_idx(p_array[i]);
 1127              		.loc 1 356 9 discriminator 3
 1128              		.loc 1 356 17 is_stmt 0 discriminator 3
 1129 0036 B3874A01 		add	a5,s5,s4
 1130 003a 03C50700 		lbu	a0,0(a5)
 1131              	.LBE16:
 352:C:/Users/stapi/OneDrive/Desktop/GD32VW553/V1_MQTT_OK/GD32VW55X_Wifi_BLE_SDK/GD32VW55x_RELEASE_V1.0.2/MSDK/ble/app\app_list_mgr.c ****         #if (BLE_CFG_ROLE & (BLE_CFG_ROLE_OBSERVER | BLE_CFG_ROLE_CENTRAL))
 1132              		.loc 1 352 5 discriminator 3
 1133 003e 050A     		addi	s4,s4,1
 1134              	.LVL99:
 1135              	.LBB17:
 1136              		.loc 1 356 17 discriminator 3
 1137 0040 97000000 		call	scan_mgr_find_dev_by_idx
 1137      E7800000 
 1138              	.LVL100:
 1139 0048 AA89     		mv	s3,a0
 1140              	.LVL101:
 357:C:/Users/stapi/OneDrive/Desktop/GD32VW553/V1_MQTT_OK/GD32VW55X_Wifi_BLE_SDK/GD32VW55x_RELEASE_V1.0.2/MSDK/ble/app\app_list_mgr.c ****         memcpy(p_pal_info[i].addr, p_dev->peer_addr.addr, BLE_GAP_ADDR_LEN);
 1141              		.loc 1 357 9 is_stmt 1 discriminator 3
 1142 004a 93059500 		addi	a1,a0,9
 1143 004e 1946     		li	a2,6
 1144 0050 4A85     		mv	a0,s2
 1145              	.LVL102:
 1146 0052 97000000 		call	memcpy
 1146      E7800000 
 1147              	.LVL103:
 358:C:/Users/stapi/OneDrive/Desktop/GD32VW553/V1_MQTT_OK/GD32VW55X_Wifi_BLE_SDK/GD32VW55x_RELEASE_V1.0.2/MSDK/ble/app\app_list_mgr.c ****         p_pal_info[i].addr_type = p_dev->peer_addr.addr_type;
 1148              		.loc 1 358 9 discriminator 3
 1149              		.loc 1 358 51 is_stmt 0 discriminator 3
 1150 005a 83C78900 		lbu	a5,8(s3)
 1151              	.LBE17:
 352:C:/Users/stapi/OneDrive/Desktop/GD32VW553/V1_MQTT_OK/GD32VW55X_Wifi_BLE_SDK/GD32VW55x_RELEASE_V1.0.2/MSDK/ble/app\app_list_mgr.c ****         #if (BLE_CFG_ROLE & (BLE_CFG_ROLE_OBSERVER | BLE_CFG_ROLE_CENTRAL))
 1152              		.loc 1 352 5 discriminator 3
 1153 005e 2109     		addi	s2,s2,8
 1154              	.LBB18:
 1155              		.loc 1 358 33 discriminator 3
 1156 0060 230FF9FE 		sb	a5,-2(s2)
 359:C:/Users/stapi/OneDrive/Desktop/GD32VW553/V1_MQTT_OK/GD32VW55X_Wifi_BLE_SDK/GD32VW55x_RELEASE_V1.0.2/MSDK/ble/app\app_list_mgr.c ****         p_pal_info[i].adv_sid = p_dev->adv_sid;
 1157              		.loc 1 359 9 is_stmt 1 discriminator 3
 1158              		.loc 1 359 38 is_stmt 0 discriminator 3
 1159 0064 83C7F900 		lbu	a5,15(s3)
 1160              		.loc 1 359 31 discriminator 3
 1161 0068 A30FF9FE 		sb	a5,-1(s2)
 1162              	.LBE18:
 352:C:/Users/stapi/OneDrive/Desktop/GD32VW553/V1_MQTT_OK/GD32VW55X_Wifi_BLE_SDK/GD32VW55x_RELEASE_V1.0.2/MSDK/ble/app\app_list_mgr.c ****         #if (BLE_CFG_ROLE & (BLE_CFG_ROLE_OBSERVER | BLE_CFG_ROLE_CENTRAL))
 1163              		.loc 1 352 26 is_stmt 1 discriminator 3
 352:C:/Users/stapi/OneDrive/Desktop/GD32VW553/V1_MQTT_OK/GD32VW55X_Wifi_BLE_SDK/GD32VW55x_RELEASE_V1.0.2/MSDK/ble/app\app_list_mgr.c ****         #if (BLE_CFG_ROLE & (BLE_CFG_ROLE_OBSERVER | BLE_CFG_ROLE_CENTRAL))
 1164              		.loc 1 352 17 discriminator 3
 352:C:/Users/stapi/OneDrive/Desktop/GD32VW553/V1_MQTT_OK/GD32VW55X_Wifi_BLE_SDK/GD32VW55x_RELEASE_V1.0.2/MSDK/ble/app\app_list_mgr.c ****         #if (BLE_CFG_ROLE & (BLE_CFG_ROLE_OBSERVER | BLE_CFG_ROLE_CENTRAL))
 1165              		.loc 1 352 5 is_stmt 0 discriminator 3
 1166 006c 9377FA0F 		andi	a5,s4,0xff
 1167 0070 E3E387FC 		bgtu	s0,a5,.L148
 360:C:/Users/stapi/OneDrive/Desktop/GD32VW553/V1_MQTT_OK/GD32VW55X_Wifi_BLE_SDK/GD32VW55x_RELEASE_V1.0.2/MSDK/ble/app\app_list_mgr.c ****         #endif
 361:C:/Users/stapi/OneDrive/Desktop/GD32VW553/V1_MQTT_OK/GD32VW55X_Wifi_BLE_SDK/GD32VW55x_RELEASE_V1.0.2/MSDK/ble/app\app_list_mgr.c ****     }
 362:C:/Users/stapi/OneDrive/Desktop/GD32VW553/V1_MQTT_OK/GD32VW55X_Wifi_BLE_SDK/GD32VW55x_RELEASE_V1.0.2/MSDK/ble/app\app_list_mgr.c **** 
 363:C:/Users/stapi/OneDrive/Desktop/GD32VW553/V1_MQTT_OK/GD32VW55X_Wifi_BLE_SDK/GD32VW55x_RELEASE_V1.0.2/MSDK/ble/app\app_list_mgr.c ****     if (ble_pal_list_set(num, p_pal_info) != BLE_ERR_NO_ERROR) {
 1168              		.loc 1 363 5 is_stmt 1
 1169              		.loc 1 363 9 is_stmt 0
 1170 0074 A685     		mv	a1,s1
 1171 0076 2285     		mv	a0,s0
 1172 0078 97000000 		call	ble_pal_list_set
 1172      E7800000 
 1173              	.LVL104:
 1174              		.loc 1 363 8
 1175 0080 0DC1     		beq	a0,zero,.L149
 364:C:/Users/stapi/OneDrive/Desktop/GD32VW553/V1_MQTT_OK/GD32VW55X_Wifi_BLE_SDK/GD32VW55x_RELEASE_V1.0.2/MSDK/ble/app\app_list_mgr.c ****         dbg_print(NOTICE, "app_pal_set num %u fail! \r\n", num);
 1176              		.loc 1 364 9 is_stmt 1
 1177              		.loc 1 364 9
 1178 0082 B7070000 		lui	a5,%hi(global_debug_level)
 1179 0086 03C70700 		lbu	a4,%lo(global_debug_level)(a5)
 1180 008a 8947     		li	a5,2
 1181 008c 63FBE700 		bleu	a4,a5,.L149
 1182              		.loc 1 364 9 discriminator 1
 1183 0090 37050000 		lui	a0,%hi(.LC8)
 1184 0094 A285     		mv	a1,s0
 1185 0096 13050500 		addi	a0,a0,%lo(.LC8)
 1186 009a 97000000 		call	co_printf
 1186      E7800000 
 1187              	.LVL105:
 1188              	.L149:
 1189              		.loc 1 364 9 discriminator 3
 365:C:/Users/stapi/OneDrive/Desktop/GD32VW553/V1_MQTT_OK/GD32VW55X_Wifi_BLE_SDK/GD32VW55x_RELEASE_V1.0.2/MSDK/ble/app\app_list_mgr.c ****     }
 366:C:/Users/stapi/OneDrive/Desktop/GD32VW553/V1_MQTT_OK/GD32VW55X_Wifi_BLE_SDK/GD32VW55x_RELEASE_V1.0.2/MSDK/ble/app\app_list_mgr.c **** 
 367:C:/Users/stapi/OneDrive/Desktop/GD32VW553/V1_MQTT_OK/GD32VW55X_Wifi_BLE_SDK/GD32VW55x_RELEASE_V1.0.2/MSDK/ble/app\app_list_mgr.c ****     sys_mfree(p_pal_info);
 1190              		.loc 1 367 5 discriminator 3
 1191 00a2 2685     		mv	a0,s1
 1192 00a4 97000000 		call	sys_mfree
 1192      E7800000 
 1193              	.LVL106:
 1194              	.L144:
 368:C:/Users/stapi/OneDrive/Desktop/GD32VW553/V1_MQTT_OK/GD32VW55X_Wifi_BLE_SDK/GD32VW55x_RELEASE_V1.0.2/MSDK/ble/app\app_list_mgr.c **** }
 1195              		.loc 1 368 1 is_stmt 0
 1196 00ac 4101     		addi	sp,sp,16
 1197              		.cfi_def_cfa_offset 0
 1198 00ae 17030000 		tail	__riscv_restore_6
 1198      67000300 
 1199              		.cfi_restore 21
 1200              		.cfi_restore 20
 1201              		.cfi_restore 19
 1202              		.cfi_restore 18
 1203              		.cfi_restore 9
 1204              		.cfi_restore 8
 1205              		.cfi_restore 1
 1206              		.cfi_def_cfa_offset -32
 1207              	.LVL107:
 1208              	.L161:
 1209              		.cfi_def_cfa_offset 0
 1210 00b6 8280     		ret
 1211              		.cfi_endproc
 1212              	.LFE9:
 1214              		.section	.rodata.app_pal_add.str1.4,"aMS",@progbits,1
 1215              		.align	2
 1216              	.LC9:
 1217 0000 6170705F 		.string	"app_pal_add idx %u fail! \r\n"
 1217      70616C5F 
 1217      61646420 
 1217      69647820 
 1217      25752066 
 1218              		.section	.text.app_pal_add,"ax",@progbits
 1219              		.align	1
 1220              		.globl	app_pal_add
 1222              	app_pal_add:
 1223              	.LFB10:
 369:C:/Users/stapi/OneDrive/Desktop/GD32VW553/V1_MQTT_OK/GD32VW55X_Wifi_BLE_SDK/GD32VW55x_RELEASE_V1.0.2/MSDK/ble/app\app_list_mgr.c **** 
 370:C:/Users/stapi/OneDrive/Desktop/GD32VW553/V1_MQTT_OK/GD32VW55X_Wifi_BLE_SDK/GD32VW55x_RELEASE_V1.0.2/MSDK/ble/app\app_list_mgr.c **** /*!
 371:C:/Users/stapi/OneDrive/Desktop/GD32VW553/V1_MQTT_OK/GD32VW55X_Wifi_BLE_SDK/GD32VW55x_RELEASE_V1.0.2/MSDK/ble/app\app_list_mgr.c ****     \brief      Add devices to periodic advertiser list
 372:C:/Users/stapi/OneDrive/Desktop/GD32VW553/V1_MQTT_OK/GD32VW55X_Wifi_BLE_SDK/GD32VW55x_RELEASE_V1.0.2/MSDK/ble/app\app_list_mgr.c ****     \param[in]  num: number of provided device index
 373:C:/Users/stapi/OneDrive/Desktop/GD32VW553/V1_MQTT_OK/GD32VW55X_Wifi_BLE_SDK/GD32VW55x_RELEASE_V1.0.2/MSDK/ble/app\app_list_mgr.c ****     \param[in]  p_array: pointer to array of device index used to add in periodic advertiser list
 374:C:/Users/stapi/OneDrive/Desktop/GD32VW553/V1_MQTT_OK/GD32VW55X_Wifi_BLE_SDK/GD32VW55x_RELEASE_V1.0.2/MSDK/ble/app\app_list_mgr.c ****     \param[out] none
 375:C:/Users/stapi/OneDrive/Desktop/GD32VW553/V1_MQTT_OK/GD32VW55X_Wifi_BLE_SDK/GD32VW55x_RELEASE_V1.0.2/MSDK/ble/app\app_list_mgr.c ****     \retval     none
 376:C:/Users/stapi/OneDrive/Desktop/GD32VW553/V1_MQTT_OK/GD32VW55X_Wifi_BLE_SDK/GD32VW55x_RELEASE_V1.0.2/MSDK/ble/app\app_list_mgr.c **** */
 377:C:/Users/stapi/OneDrive/Desktop/GD32VW553/V1_MQTT_OK/GD32VW55X_Wifi_BLE_SDK/GD32VW55x_RELEASE_V1.0.2/MSDK/ble/app\app_list_mgr.c **** void app_pal_add(uint8_t num, uint8_t *p_array)
 378:C:/Users/stapi/OneDrive/Desktop/GD32VW553/V1_MQTT_OK/GD32VW55X_Wifi_BLE_SDK/GD32VW55x_RELEASE_V1.0.2/MSDK/ble/app\app_list_mgr.c **** {
 1224              		.loc 1 378 1 is_stmt 1
 1225              		.cfi_startproc
 1226              	.LVL108:
 379:C:/Users/stapi/OneDrive/Desktop/GD32VW553/V1_MQTT_OK/GD32VW55X_Wifi_BLE_SDK/GD32VW55x_RELEASE_V1.0.2/MSDK/ble/app\app_list_mgr.c ****     ble_gap_pal_info_t *p_pal_info;
 1227              		.loc 1 379 5
 380:C:/Users/stapi/OneDrive/Desktop/GD32VW553/V1_MQTT_OK/GD32VW55X_Wifi_BLE_SDK/GD32VW55x_RELEASE_V1.0.2/MSDK/ble/app\app_list_mgr.c ****     uint8_t i;
 1228              		.loc 1 380 5
 381:C:/Users/stapi/OneDrive/Desktop/GD32VW553/V1_MQTT_OK/GD32VW55X_Wifi_BLE_SDK/GD32VW55x_RELEASE_V1.0.2/MSDK/ble/app\app_list_mgr.c **** 
 382:C:/Users/stapi/OneDrive/Desktop/GD32VW553/V1_MQTT_OK/GD32VW55X_Wifi_BLE_SDK/GD32VW55x_RELEASE_V1.0.2/MSDK/ble/app\app_list_mgr.c ****     if (num == 0 || p_array == NULL) {
 1229              		.loc 1 382 5
 1230              		.loc 1 382 8 is_stmt 0
 1231 0000 45C5     		beq	a0,zero,.L181
 378:C:/Users/stapi/OneDrive/Desktop/GD32VW553/V1_MQTT_OK/GD32VW55X_Wifi_BLE_SDK/GD32VW55x_RELEASE_V1.0.2/MSDK/ble/app\app_list_mgr.c ****     ble_gap_pal_info_t *p_pal_info;
 1232              		.loc 1 378 1 discriminator 1
 1233 0002 17030000 		call	t0,__riscv_save_8
 1233      E7020300 
 1234              		.cfi_offset 23, -36
 1235              		.cfi_offset 22, -32
 1236              		.cfi_offset 21, -28
 1237              		.cfi_offset 20, -24
 1238              		.cfi_offset 19, -20
 1239              		.cfi_offset 18, -16
 1240              		.cfi_offset 9, -12
 1241              		.cfi_offset 8, -8
 1242              		.cfi_offset 1, -4
 1243              		.cfi_def_cfa_offset 48
 1244 000a 2E8A     		mv	s4,a1
 1245              		.loc 1 382 18 discriminator 1
 1246 000c D1C9     		beq	a1,zero,.L164
 1247 000e AA89     		mv	s3,a0
 383:C:/Users/stapi/OneDrive/Desktop/GD32VW553/V1_MQTT_OK/GD32VW55X_Wifi_BLE_SDK/GD32VW55x_RELEASE_V1.0.2/MSDK/ble/app\app_list_mgr.c ****         return;
 384:C:/Users/stapi/OneDrive/Desktop/GD32VW553/V1_MQTT_OK/GD32VW55X_Wifi_BLE_SDK/GD32VW55x_RELEASE_V1.0.2/MSDK/ble/app\app_list_mgr.c ****     }
 385:C:/Users/stapi/OneDrive/Desktop/GD32VW553/V1_MQTT_OK/GD32VW55X_Wifi_BLE_SDK/GD32VW55x_RELEASE_V1.0.2/MSDK/ble/app\app_list_mgr.c **** 
 386:C:/Users/stapi/OneDrive/Desktop/GD32VW553/V1_MQTT_OK/GD32VW55X_Wifi_BLE_SDK/GD32VW55x_RELEASE_V1.0.2/MSDK/ble/app\app_list_mgr.c ****     p_pal_info = (ble_gap_pal_info_t *)sys_malloc(sizeof(ble_gap_pal_info_t));
 1248              		.loc 1 386 5 is_stmt 1
 1249              		.loc 1 386 40 is_stmt 0
 1250 0010 2145     		li	a0,8
 1251              	.LVL109:
 1252 0012 97000000 		call	sys_malloc
 1252      E7800000 
 1253              	.LVL110:
 1254 001a 2A84     		mv	s0,a0
 1255              	.LVL111:
 387:C:/Users/stapi/OneDrive/Desktop/GD32VW553/V1_MQTT_OK/GD32VW55X_Wifi_BLE_SDK/GD32VW55x_RELEASE_V1.0.2/MSDK/ble/app\app_list_mgr.c **** 
 388:C:/Users/stapi/OneDrive/Desktop/GD32VW553/V1_MQTT_OK/GD32VW55X_Wifi_BLE_SDK/GD32VW55x_RELEASE_V1.0.2/MSDK/ble/app\app_list_mgr.c ****     if (p_pal_info == NULL) {
 1256              		.loc 1 388 5 is_stmt 1
 1257              		.loc 1 388 8 is_stmt 0
 1258 001c 51C1     		beq	a0,zero,.L164
 389:C:/Users/stapi/OneDrive/Desktop/GD32VW553/V1_MQTT_OK/GD32VW55X_Wifi_BLE_SDK/GD32VW55x_RELEASE_V1.0.2/MSDK/ble/app\app_list_mgr.c ****         return;
 390:C:/Users/stapi/OneDrive/Desktop/GD32VW553/V1_MQTT_OK/GD32VW55X_Wifi_BLE_SDK/GD32VW55x_RELEASE_V1.0.2/MSDK/ble/app\app_list_mgr.c ****     }
 391:C:/Users/stapi/OneDrive/Desktop/GD32VW553/V1_MQTT_OK/GD32VW55X_Wifi_BLE_SDK/GD32VW55x_RELEASE_V1.0.2/MSDK/ble/app\app_list_mgr.c ****     memset(p_pal_info, 0, sizeof(ble_gap_pal_info_t));
 1259              		.loc 1 391 5 is_stmt 1
 1260 001e 2146     		li	a2,8
 1261 0020 8145     		li	a1,0
 1262 0022 97000000 		call	memset
 1262      E7800000 
 1263              	.LVL112:
 392:C:/Users/stapi/OneDrive/Desktop/GD32VW553/V1_MQTT_OK/GD32VW55X_Wifi_BLE_SDK/GD32VW55x_RELEASE_V1.0.2/MSDK/ble/app\app_list_mgr.c **** 
 393:C:/Users/stapi/OneDrive/Desktop/GD32VW553/V1_MQTT_OK/GD32VW55X_Wifi_BLE_SDK/GD32VW55x_RELEASE_V1.0.2/MSDK/ble/app\app_list_mgr.c ****     for (i = 0; i < num; i++) {
 1264              		.loc 1 393 5
 1265              		.loc 1 393 17
 391:C:/Users/stapi/OneDrive/Desktop/GD32VW553/V1_MQTT_OK/GD32VW55X_Wifi_BLE_SDK/GD32VW55x_RELEASE_V1.0.2/MSDK/ble/app\app_list_mgr.c **** 
 1266              		.loc 1 391 5 is_stmt 0
 1267 002a 8144     		li	s1,0
 1268              	.LBB19:
 394:C:/Users/stapi/OneDrive/Desktop/GD32VW553/V1_MQTT_OK/GD32VW55X_Wifi_BLE_SDK/GD32VW55x_RELEASE_V1.0.2/MSDK/ble/app\app_list_mgr.c ****         #if (BLE_CFG_ROLE & (BLE_CFG_ROLE_OBSERVER | BLE_CFG_ROLE_CENTRAL))
 395:C:/Users/stapi/OneDrive/Desktop/GD32VW553/V1_MQTT_OK/GD32VW55X_Wifi_BLE_SDK/GD32VW55x_RELEASE_V1.0.2/MSDK/ble/app\app_list_mgr.c ****         dev_info_t *p_dev;
 396:C:/Users/stapi/OneDrive/Desktop/GD32VW553/V1_MQTT_OK/GD32VW55X_Wifi_BLE_SDK/GD32VW55x_RELEASE_V1.0.2/MSDK/ble/app\app_list_mgr.c **** 
 397:C:/Users/stapi/OneDrive/Desktop/GD32VW553/V1_MQTT_OK/GD32VW55X_Wifi_BLE_SDK/GD32VW55x_RELEASE_V1.0.2/MSDK/ble/app\app_list_mgr.c ****         p_dev = scan_mgr_find_dev_by_idx(p_array[i]);
 398:C:/Users/stapi/OneDrive/Desktop/GD32VW553/V1_MQTT_OK/GD32VW55X_Wifi_BLE_SDK/GD32VW55x_RELEASE_V1.0.2/MSDK/ble/app\app_list_mgr.c ****         memcpy(p_pal_info->addr, p_dev->peer_addr.addr, BLE_GAP_ADDR_LEN);
 399:C:/Users/stapi/OneDrive/Desktop/GD32VW553/V1_MQTT_OK/GD32VW55X_Wifi_BLE_SDK/GD32VW55x_RELEASE_V1.0.2/MSDK/ble/app\app_list_mgr.c ****         p_pal_info->addr_type = p_dev->peer_addr.addr_type;
 400:C:/Users/stapi/OneDrive/Desktop/GD32VW553/V1_MQTT_OK/GD32VW55X_Wifi_BLE_SDK/GD32VW55x_RELEASE_V1.0.2/MSDK/ble/app\app_list_mgr.c ****         p_pal_info->adv_sid = p_dev->adv_sid;
 401:C:/Users/stapi/OneDrive/Desktop/GD32VW553/V1_MQTT_OK/GD32VW55X_Wifi_BLE_SDK/GD32VW55x_RELEASE_V1.0.2/MSDK/ble/app\app_list_mgr.c **** 
 402:C:/Users/stapi/OneDrive/Desktop/GD32VW553/V1_MQTT_OK/GD32VW55X_Wifi_BLE_SDK/GD32VW55x_RELEASE_V1.0.2/MSDK/ble/app\app_list_mgr.c ****         if (ble_pal_op(p_pal_info, true) != BLE_ERR_NO_ERROR) {
 403:C:/Users/stapi/OneDrive/Desktop/GD32VW553/V1_MQTT_OK/GD32VW55X_Wifi_BLE_SDK/GD32VW55x_RELEASE_V1.0.2/MSDK/ble/app\app_list_mgr.c ****             dbg_print(NOTICE, "app_pal_add idx %u fail! \r\n", i);
 1269              		.loc 1 403 13
 1270 002c B70A0000 		lui	s5,%hi(global_debug_level)
 1271 0030 094B     		li	s6,2
 1272 0032 B70B0000 		lui	s7,%hi(.LC9)
 1273              	.LVL113:
 1274              	.L169:
 395:C:/Users/stapi/OneDrive/Desktop/GD32VW553/V1_MQTT_OK/GD32VW55X_Wifi_BLE_SDK/GD32VW55x_RELEASE_V1.0.2/MSDK/ble/app\app_list_mgr.c **** 
 1275              		.loc 1 395 9 is_stmt 1
 397:C:/Users/stapi/OneDrive/Desktop/GD32VW553/V1_MQTT_OK/GD32VW55X_Wifi_BLE_SDK/GD32VW55x_RELEASE_V1.0.2/MSDK/ble/app\app_list_mgr.c ****         memcpy(p_pal_info->addr, p_dev->peer_addr.addr, BLE_GAP_ADDR_LEN);
 1276              		.loc 1 397 9
 397:C:/Users/stapi/OneDrive/Desktop/GD32VW553/V1_MQTT_OK/GD32VW55X_Wifi_BLE_SDK/GD32VW55x_RELEASE_V1.0.2/MSDK/ble/app\app_list_mgr.c ****         memcpy(p_pal_info->addr, p_dev->peer_addr.addr, BLE_GAP_ADDR_LEN);
 1277              		.loc 1 397 17 is_stmt 0
 1278 0036 B3079A00 		add	a5,s4,s1
 1279 003a 03C50700 		lbu	a0,0(a5)
 1280 003e 97000000 		call	scan_mgr_find_dev_by_idx
 1280      E7800000 
 1281              	.LVL114:
 1282 0046 2A89     		mv	s2,a0
 1283              	.LVL115:
 398:C:/Users/stapi/OneDrive/Desktop/GD32VW553/V1_MQTT_OK/GD32VW55X_Wifi_BLE_SDK/GD32VW55x_RELEASE_V1.0.2/MSDK/ble/app\app_list_mgr.c ****         p_pal_info->addr_type = p_dev->peer_addr.addr_type;
 1284              		.loc 1 398 9 is_stmt 1
 1285 0048 93059500 		addi	a1,a0,9
 1286 004c 1946     		li	a2,6
 1287 004e 2285     		mv	a0,s0
 1288              	.LVL116:
 1289 0050 97000000 		call	memcpy
 1289      E7800000 
 1290              	.LVL117:
 399:C:/Users/stapi/OneDrive/Desktop/GD32VW553/V1_MQTT_OK/GD32VW55X_Wifi_BLE_SDK/GD32VW55x_RELEASE_V1.0.2/MSDK/ble/app\app_list_mgr.c ****         p_pal_info->adv_sid = p_dev->adv_sid;
 1291              		.loc 1 399 9
 399:C:/Users/stapi/OneDrive/Desktop/GD32VW553/V1_MQTT_OK/GD32VW55X_Wifi_BLE_SDK/GD32VW55x_RELEASE_V1.0.2/MSDK/ble/app\app_list_mgr.c ****         p_pal_info->adv_sid = p_dev->adv_sid;
 1292              		.loc 1 399 31 is_stmt 0
 1293 0058 83478900 		lbu	a5,8(s2)
 402:C:/Users/stapi/OneDrive/Desktop/GD32VW553/V1_MQTT_OK/GD32VW55X_Wifi_BLE_SDK/GD32VW55x_RELEASE_V1.0.2/MSDK/ble/app\app_list_mgr.c ****             dbg_print(NOTICE, "app_pal_add idx %u fail! \r\n", i);
 1294              		.loc 1 402 13
 1295 005c 8545     		li	a1,1
 1296 005e 2285     		mv	a0,s0
 399:C:/Users/stapi/OneDrive/Desktop/GD32VW553/V1_MQTT_OK/GD32VW55X_Wifi_BLE_SDK/GD32VW55x_RELEASE_V1.0.2/MSDK/ble/app\app_list_mgr.c ****         p_pal_info->adv_sid = p_dev->adv_sid;
 1297              		.loc 1 399 31
 1298 0060 2303F400 		sb	a5,6(s0)
 400:C:/Users/stapi/OneDrive/Desktop/GD32VW553/V1_MQTT_OK/GD32VW55X_Wifi_BLE_SDK/GD32VW55x_RELEASE_V1.0.2/MSDK/ble/app\app_list_mgr.c **** 
 1299              		.loc 1 400 9 is_stmt 1
 400:C:/Users/stapi/OneDrive/Desktop/GD32VW553/V1_MQTT_OK/GD32VW55X_Wifi_BLE_SDK/GD32VW55x_RELEASE_V1.0.2/MSDK/ble/app\app_list_mgr.c **** 
 1300              		.loc 1 400 29 is_stmt 0
 1301 0064 8347F900 		lbu	a5,15(s2)
 1302 0068 A303F400 		sb	a5,7(s0)
 402:C:/Users/stapi/OneDrive/Desktop/GD32VW553/V1_MQTT_OK/GD32VW55X_Wifi_BLE_SDK/GD32VW55x_RELEASE_V1.0.2/MSDK/ble/app\app_list_mgr.c ****             dbg_print(NOTICE, "app_pal_add idx %u fail! \r\n", i);
 1303              		.loc 1 402 9 is_stmt 1
 402:C:/Users/stapi/OneDrive/Desktop/GD32VW553/V1_MQTT_OK/GD32VW55X_Wifi_BLE_SDK/GD32VW55x_RELEASE_V1.0.2/MSDK/ble/app\app_list_mgr.c ****             dbg_print(NOTICE, "app_pal_add idx %u fail! \r\n", i);
 1304              		.loc 1 402 13 is_stmt 0
 1305 006c 97000000 		call	ble_pal_op
 1305      E7800000 
 1306              	.LVL118:
 402:C:/Users/stapi/OneDrive/Desktop/GD32VW553/V1_MQTT_OK/GD32VW55X_Wifi_BLE_SDK/GD32VW55x_RELEASE_V1.0.2/MSDK/ble/app\app_list_mgr.c ****             dbg_print(NOTICE, "app_pal_add idx %u fail! \r\n", i);
 1307              		.loc 1 402 12
 1308 0074 01CD     		beq	a0,zero,.L168
 1309              		.loc 1 403 13 is_stmt 1
 1310              		.loc 1 403 13
 1311 0076 83C70A00 		lbu	a5,%lo(global_debug_level)(s5)
 1312 007a 6379FB00 		bleu	a5,s6,.L168
 1313              		.loc 1 403 13 discriminator 1
 1314 007e A685     		mv	a1,s1
 1315 0080 13850B00 		addi	a0,s7,%lo(.LC9)
 1316 0084 97000000 		call	co_printf
 1316      E7800000 
 1317              	.LVL119:
 1318              	.L168:
 1319              		.loc 1 403 13 discriminator 3
 1320              	.LBE19:
 393:C:/Users/stapi/OneDrive/Desktop/GD32VW553/V1_MQTT_OK/GD32VW55X_Wifi_BLE_SDK/GD32VW55x_RELEASE_V1.0.2/MSDK/ble/app\app_list_mgr.c ****         #if (BLE_CFG_ROLE & (BLE_CFG_ROLE_OBSERVER | BLE_CFG_ROLE_CENTRAL))
 1321              		.loc 1 393 26 discriminator 3
 393:C:/Users/stapi/OneDrive/Desktop/GD32VW553/V1_MQTT_OK/GD32VW55X_Wifi_BLE_SDK/GD32VW55x_RELEASE_V1.0.2/MSDK/ble/app\app_list_mgr.c ****         #if (BLE_CFG_ROLE & (BLE_CFG_ROLE_OBSERVER | BLE_CFG_ROLE_CENTRAL))
 1322              		.loc 1 393 17 discriminator 3
 393:C:/Users/stapi/OneDrive/Desktop/GD32VW553/V1_MQTT_OK/GD32VW55X_Wifi_BLE_SDK/GD32VW55x_RELEASE_V1.0.2/MSDK/ble/app\app_list_mgr.c ****         #if (BLE_CFG_ROLE & (BLE_CFG_ROLE_OBSERVER | BLE_CFG_ROLE_CENTRAL))
 1323              		.loc 1 393 5 is_stmt 0 discriminator 3
 1324 008c 8504     		addi	s1,s1,1
 1325              	.LVL120:
 1326 008e 93F7F40F 		andi	a5,s1,0xff
 1327 0092 E3E237FB 		bgtu	s3,a5,.L169
 404:C:/Users/stapi/OneDrive/Desktop/GD32VW553/V1_MQTT_OK/GD32VW55X_Wifi_BLE_SDK/GD32VW55x_RELEASE_V1.0.2/MSDK/ble/app\app_list_mgr.c ****         }
 405:C:/Users/stapi/OneDrive/Desktop/GD32VW553/V1_MQTT_OK/GD32VW55X_Wifi_BLE_SDK/GD32VW55x_RELEASE_V1.0.2/MSDK/ble/app\app_list_mgr.c ****         #endif
 406:C:/Users/stapi/OneDrive/Desktop/GD32VW553/V1_MQTT_OK/GD32VW55X_Wifi_BLE_SDK/GD32VW55x_RELEASE_V1.0.2/MSDK/ble/app\app_list_mgr.c ****     }
 407:C:/Users/stapi/OneDrive/Desktop/GD32VW553/V1_MQTT_OK/GD32VW55X_Wifi_BLE_SDK/GD32VW55x_RELEASE_V1.0.2/MSDK/ble/app\app_list_mgr.c **** 
 408:C:/Users/stapi/OneDrive/Desktop/GD32VW553/V1_MQTT_OK/GD32VW55X_Wifi_BLE_SDK/GD32VW55x_RELEASE_V1.0.2/MSDK/ble/app\app_list_mgr.c ****     sys_mfree(p_pal_info);
 1328              		.loc 1 408 5 is_stmt 1
 1329 0096 2285     		mv	a0,s0
 1330 0098 97000000 		call	sys_mfree
 1330      E7800000 
 1331              	.LVL121:
 1332              	.L164:
 409:C:/Users/stapi/OneDrive/Desktop/GD32VW553/V1_MQTT_OK/GD32VW55X_Wifi_BLE_SDK/GD32VW55x_RELEASE_V1.0.2/MSDK/ble/app\app_list_mgr.c **** }
 1333              		.loc 1 409 1 is_stmt 0
 1334 00a0 17030000 		tail	__riscv_restore_8
 1334      67000300 
 1335              		.cfi_restore 23
 1336              		.cfi_restore 22
 1337              		.cfi_restore 21
 1338              		.cfi_restore 20
 1339              		.cfi_restore 19
 1340              		.cfi_restore 18
 1341              		.cfi_restore 9
 1342              		.cfi_restore 8
 1343              		.cfi_restore 1
 1344              		.cfi_def_cfa_offset 0
 1345              	.LVL122:
 1346              	.L181:
 1347 00a8 8280     		ret
 1348              		.cfi_endproc
 1349              	.LFE10:
 1351              		.section	.rodata.app_pal_rmv.str1.4,"aMS",@progbits,1
 1352              		.align	2
 1353              	.LC10:
 1354 0000 6170705F 		.string	"app_pal_rmv idx %u fail! \r\n"
 1354      70616C5F 
 1354      726D7620 
 1354      69647820 
 1354      25752066 
 1355              		.section	.text.app_pal_rmv,"ax",@progbits
 1356              		.align	1
 1357              		.globl	app_pal_rmv
 1359              	app_pal_rmv:
 1360              	.LFB11:
 410:C:/Users/stapi/OneDrive/Desktop/GD32VW553/V1_MQTT_OK/GD32VW55X_Wifi_BLE_SDK/GD32VW55x_RELEASE_V1.0.2/MSDK/ble/app\app_list_mgr.c **** 
 411:C:/Users/stapi/OneDrive/Desktop/GD32VW553/V1_MQTT_OK/GD32VW55X_Wifi_BLE_SDK/GD32VW55x_RELEASE_V1.0.2/MSDK/ble/app\app_list_mgr.c **** /*!
 412:C:/Users/stapi/OneDrive/Desktop/GD32VW553/V1_MQTT_OK/GD32VW55X_Wifi_BLE_SDK/GD32VW55x_RELEASE_V1.0.2/MSDK/ble/app\app_list_mgr.c ****     \brief      Remove device from periodic advertiser list
 413:C:/Users/stapi/OneDrive/Desktop/GD32VW553/V1_MQTT_OK/GD32VW55X_Wifi_BLE_SDK/GD32VW55x_RELEASE_V1.0.2/MSDK/ble/app\app_list_mgr.c ****     \param[in]  num: number of provided device index
 414:C:/Users/stapi/OneDrive/Desktop/GD32VW553/V1_MQTT_OK/GD32VW55X_Wifi_BLE_SDK/GD32VW55x_RELEASE_V1.0.2/MSDK/ble/app\app_list_mgr.c ****     \param[in]  p_array: pointer to array of device index used to remove from periodic advertiser l
 415:C:/Users/stapi/OneDrive/Desktop/GD32VW553/V1_MQTT_OK/GD32VW55X_Wifi_BLE_SDK/GD32VW55x_RELEASE_V1.0.2/MSDK/ble/app\app_list_mgr.c ****     \param[out] none
 416:C:/Users/stapi/OneDrive/Desktop/GD32VW553/V1_MQTT_OK/GD32VW55X_Wifi_BLE_SDK/GD32VW55x_RELEASE_V1.0.2/MSDK/ble/app\app_list_mgr.c ****     \retval     none
 417:C:/Users/stapi/OneDrive/Desktop/GD32VW553/V1_MQTT_OK/GD32VW55X_Wifi_BLE_SDK/GD32VW55x_RELEASE_V1.0.2/MSDK/ble/app\app_list_mgr.c **** */
 418:C:/Users/stapi/OneDrive/Desktop/GD32VW553/V1_MQTT_OK/GD32VW55X_Wifi_BLE_SDK/GD32VW55x_RELEASE_V1.0.2/MSDK/ble/app\app_list_mgr.c **** void app_pal_rmv(uint8_t num, uint8_t *p_array)
 419:C:/Users/stapi/OneDrive/Desktop/GD32VW553/V1_MQTT_OK/GD32VW55X_Wifi_BLE_SDK/GD32VW55x_RELEASE_V1.0.2/MSDK/ble/app\app_list_mgr.c **** {
 1361              		.loc 1 419 1 is_stmt 1
 1362              		.cfi_startproc
 1363              	.LVL123:
 420:C:/Users/stapi/OneDrive/Desktop/GD32VW553/V1_MQTT_OK/GD32VW55X_Wifi_BLE_SDK/GD32VW55x_RELEASE_V1.0.2/MSDK/ble/app\app_list_mgr.c ****     ble_gap_pal_info_t *p_pal_info;
 1364              		.loc 1 420 5
 421:C:/Users/stapi/OneDrive/Desktop/GD32VW553/V1_MQTT_OK/GD32VW55X_Wifi_BLE_SDK/GD32VW55x_RELEASE_V1.0.2/MSDK/ble/app\app_list_mgr.c ****     uint8_t i;
 1365              		.loc 1 421 5
 422:C:/Users/stapi/OneDrive/Desktop/GD32VW553/V1_MQTT_OK/GD32VW55X_Wifi_BLE_SDK/GD32VW55x_RELEASE_V1.0.2/MSDK/ble/app\app_list_mgr.c **** 
 423:C:/Users/stapi/OneDrive/Desktop/GD32VW553/V1_MQTT_OK/GD32VW55X_Wifi_BLE_SDK/GD32VW55x_RELEASE_V1.0.2/MSDK/ble/app\app_list_mgr.c ****     if (num == 0 || p_array == NULL) {
 1366              		.loc 1 423 5
 1367              		.loc 1 423 8 is_stmt 0
 1368 0000 45C5     		beq	a0,zero,.L201
 419:C:/Users/stapi/OneDrive/Desktop/GD32VW553/V1_MQTT_OK/GD32VW55X_Wifi_BLE_SDK/GD32VW55x_RELEASE_V1.0.2/MSDK/ble/app\app_list_mgr.c ****     ble_gap_pal_info_t *p_pal_info;
 1369              		.loc 1 419 1 discriminator 1
 1370 0002 17030000 		call	t0,__riscv_save_8
 1370      E7020300 
 1371              		.cfi_offset 23, -36
 1372              		.cfi_offset 22, -32
 1373              		.cfi_offset 21, -28
 1374              		.cfi_offset 20, -24
 1375              		.cfi_offset 19, -20
 1376              		.cfi_offset 18, -16
 1377              		.cfi_offset 9, -12
 1378              		.cfi_offset 8, -8
 1379              		.cfi_offset 1, -4
 1380              		.cfi_def_cfa_offset 48
 1381 000a 2E8A     		mv	s4,a1
 1382              		.loc 1 423 18 discriminator 1
 1383 000c D1C9     		beq	a1,zero,.L184
 1384 000e AA89     		mv	s3,a0
 424:C:/Users/stapi/OneDrive/Desktop/GD32VW553/V1_MQTT_OK/GD32VW55X_Wifi_BLE_SDK/GD32VW55x_RELEASE_V1.0.2/MSDK/ble/app\app_list_mgr.c ****         return;
 425:C:/Users/stapi/OneDrive/Desktop/GD32VW553/V1_MQTT_OK/GD32VW55X_Wifi_BLE_SDK/GD32VW55x_RELEASE_V1.0.2/MSDK/ble/app\app_list_mgr.c ****     }
 426:C:/Users/stapi/OneDrive/Desktop/GD32VW553/V1_MQTT_OK/GD32VW55X_Wifi_BLE_SDK/GD32VW55x_RELEASE_V1.0.2/MSDK/ble/app\app_list_mgr.c **** 
 427:C:/Users/stapi/OneDrive/Desktop/GD32VW553/V1_MQTT_OK/GD32VW55X_Wifi_BLE_SDK/GD32VW55x_RELEASE_V1.0.2/MSDK/ble/app\app_list_mgr.c ****     p_pal_info = (ble_gap_pal_info_t *)sys_malloc(sizeof(ble_gap_pal_info_t));
 1385              		.loc 1 427 5 is_stmt 1
 1386              		.loc 1 427 40 is_stmt 0
 1387 0010 2145     		li	a0,8
 1388              	.LVL124:
 1389 0012 97000000 		call	sys_malloc
 1389      E7800000 
 1390              	.LVL125:
 1391 001a 2A84     		mv	s0,a0
 1392              	.LVL126:
 428:C:/Users/stapi/OneDrive/Desktop/GD32VW553/V1_MQTT_OK/GD32VW55X_Wifi_BLE_SDK/GD32VW55x_RELEASE_V1.0.2/MSDK/ble/app\app_list_mgr.c **** 
 429:C:/Users/stapi/OneDrive/Desktop/GD32VW553/V1_MQTT_OK/GD32VW55X_Wifi_BLE_SDK/GD32VW55x_RELEASE_V1.0.2/MSDK/ble/app\app_list_mgr.c ****     if (p_pal_info == NULL) {
 1393              		.loc 1 429 5 is_stmt 1
 1394              		.loc 1 429 8 is_stmt 0
 1395 001c 51C1     		beq	a0,zero,.L184
 430:C:/Users/stapi/OneDrive/Desktop/GD32VW553/V1_MQTT_OK/GD32VW55X_Wifi_BLE_SDK/GD32VW55x_RELEASE_V1.0.2/MSDK/ble/app\app_list_mgr.c ****         return;
 431:C:/Users/stapi/OneDrive/Desktop/GD32VW553/V1_MQTT_OK/GD32VW55X_Wifi_BLE_SDK/GD32VW55x_RELEASE_V1.0.2/MSDK/ble/app\app_list_mgr.c ****     }
 432:C:/Users/stapi/OneDrive/Desktop/GD32VW553/V1_MQTT_OK/GD32VW55X_Wifi_BLE_SDK/GD32VW55x_RELEASE_V1.0.2/MSDK/ble/app\app_list_mgr.c ****     memset(p_pal_info, 0, sizeof(ble_gap_pal_info_t));
 1396              		.loc 1 432 5 is_stmt 1
 1397 001e 2146     		li	a2,8
 1398 0020 8145     		li	a1,0
 1399 0022 97000000 		call	memset
 1399      E7800000 
 1400              	.LVL127:
 433:C:/Users/stapi/OneDrive/Desktop/GD32VW553/V1_MQTT_OK/GD32VW55X_Wifi_BLE_SDK/GD32VW55x_RELEASE_V1.0.2/MSDK/ble/app\app_list_mgr.c **** 
 434:C:/Users/stapi/OneDrive/Desktop/GD32VW553/V1_MQTT_OK/GD32VW55X_Wifi_BLE_SDK/GD32VW55x_RELEASE_V1.0.2/MSDK/ble/app\app_list_mgr.c ****     for (i = 0; i < num; i++) {
 1401              		.loc 1 434 5
 1402              		.loc 1 434 17
 432:C:/Users/stapi/OneDrive/Desktop/GD32VW553/V1_MQTT_OK/GD32VW55X_Wifi_BLE_SDK/GD32VW55x_RELEASE_V1.0.2/MSDK/ble/app\app_list_mgr.c **** 
 1403              		.loc 1 432 5 is_stmt 0
 1404 002a 8144     		li	s1,0
 1405              	.LBB20:
 435:C:/Users/stapi/OneDrive/Desktop/GD32VW553/V1_MQTT_OK/GD32VW55X_Wifi_BLE_SDK/GD32VW55x_RELEASE_V1.0.2/MSDK/ble/app\app_list_mgr.c ****         #if (BLE_CFG_ROLE & (BLE_CFG_ROLE_OBSERVER | BLE_CFG_ROLE_CENTRAL))
 436:C:/Users/stapi/OneDrive/Desktop/GD32VW553/V1_MQTT_OK/GD32VW55X_Wifi_BLE_SDK/GD32VW55x_RELEASE_V1.0.2/MSDK/ble/app\app_list_mgr.c ****         dev_info_t *p_dev;
 437:C:/Users/stapi/OneDrive/Desktop/GD32VW553/V1_MQTT_OK/GD32VW55X_Wifi_BLE_SDK/GD32VW55x_RELEASE_V1.0.2/MSDK/ble/app\app_list_mgr.c **** 
 438:C:/Users/stapi/OneDrive/Desktop/GD32VW553/V1_MQTT_OK/GD32VW55X_Wifi_BLE_SDK/GD32VW55x_RELEASE_V1.0.2/MSDK/ble/app\app_list_mgr.c ****         p_dev = scan_mgr_find_dev_by_idx(p_array[i]);
 439:C:/Users/stapi/OneDrive/Desktop/GD32VW553/V1_MQTT_OK/GD32VW55X_Wifi_BLE_SDK/GD32VW55x_RELEASE_V1.0.2/MSDK/ble/app\app_list_mgr.c ****         memcpy(p_pal_info->addr, p_dev->peer_addr.addr, BLE_GAP_ADDR_LEN);
 440:C:/Users/stapi/OneDrive/Desktop/GD32VW553/V1_MQTT_OK/GD32VW55X_Wifi_BLE_SDK/GD32VW55x_RELEASE_V1.0.2/MSDK/ble/app\app_list_mgr.c ****         p_pal_info->addr_type = p_dev->peer_addr.addr_type;
 441:C:/Users/stapi/OneDrive/Desktop/GD32VW553/V1_MQTT_OK/GD32VW55X_Wifi_BLE_SDK/GD32VW55x_RELEASE_V1.0.2/MSDK/ble/app\app_list_mgr.c ****         p_pal_info->adv_sid = p_dev->adv_sid;
 442:C:/Users/stapi/OneDrive/Desktop/GD32VW553/V1_MQTT_OK/GD32VW55X_Wifi_BLE_SDK/GD32VW55x_RELEASE_V1.0.2/MSDK/ble/app\app_list_mgr.c **** 
 443:C:/Users/stapi/OneDrive/Desktop/GD32VW553/V1_MQTT_OK/GD32VW55X_Wifi_BLE_SDK/GD32VW55x_RELEASE_V1.0.2/MSDK/ble/app\app_list_mgr.c ****         if (ble_pal_op(p_pal_info, false) != BLE_ERR_NO_ERROR) {
 444:C:/Users/stapi/OneDrive/Desktop/GD32VW553/V1_MQTT_OK/GD32VW55X_Wifi_BLE_SDK/GD32VW55x_RELEASE_V1.0.2/MSDK/ble/app\app_list_mgr.c ****             dbg_print(NOTICE, "app_pal_rmv idx %u fail! \r\n", i);
 1406              		.loc 1 444 13
 1407 002c B70A0000 		lui	s5,%hi(global_debug_level)
 1408 0030 094B     		li	s6,2
 1409 0032 B70B0000 		lui	s7,%hi(.LC10)
 1410              	.LVL128:
 1411              	.L189:
 436:C:/Users/stapi/OneDrive/Desktop/GD32VW553/V1_MQTT_OK/GD32VW55X_Wifi_BLE_SDK/GD32VW55x_RELEASE_V1.0.2/MSDK/ble/app\app_list_mgr.c **** 
 1412              		.loc 1 436 9 is_stmt 1
 438:C:/Users/stapi/OneDrive/Desktop/GD32VW553/V1_MQTT_OK/GD32VW55X_Wifi_BLE_SDK/GD32VW55x_RELEASE_V1.0.2/MSDK/ble/app\app_list_mgr.c ****         memcpy(p_pal_info->addr, p_dev->peer_addr.addr, BLE_GAP_ADDR_LEN);
 1413              		.loc 1 438 9
 438:C:/Users/stapi/OneDrive/Desktop/GD32VW553/V1_MQTT_OK/GD32VW55X_Wifi_BLE_SDK/GD32VW55x_RELEASE_V1.0.2/MSDK/ble/app\app_list_mgr.c ****         memcpy(p_pal_info->addr, p_dev->peer_addr.addr, BLE_GAP_ADDR_LEN);
 1414              		.loc 1 438 17 is_stmt 0
 1415 0036 B3079A00 		add	a5,s4,s1
 1416 003a 03C50700 		lbu	a0,0(a5)
 1417 003e 97000000 		call	scan_mgr_find_dev_by_idx
 1417      E7800000 
 1418              	.LVL129:
 1419 0046 2A89     		mv	s2,a0
 1420              	.LVL130:
 439:C:/Users/stapi/OneDrive/Desktop/GD32VW553/V1_MQTT_OK/GD32VW55X_Wifi_BLE_SDK/GD32VW55x_RELEASE_V1.0.2/MSDK/ble/app\app_list_mgr.c ****         p_pal_info->addr_type = p_dev->peer_addr.addr_type;
 1421              		.loc 1 439 9 is_stmt 1
 1422 0048 93059500 		addi	a1,a0,9
 1423 004c 1946     		li	a2,6
 1424 004e 2285     		mv	a0,s0
 1425              	.LVL131:
 1426 0050 97000000 		call	memcpy
 1426      E7800000 
 1427              	.LVL132:
 440:C:/Users/stapi/OneDrive/Desktop/GD32VW553/V1_MQTT_OK/GD32VW55X_Wifi_BLE_SDK/GD32VW55x_RELEASE_V1.0.2/MSDK/ble/app\app_list_mgr.c ****         p_pal_info->adv_sid = p_dev->adv_sid;
 1428              		.loc 1 440 9
 440:C:/Users/stapi/OneDrive/Desktop/GD32VW553/V1_MQTT_OK/GD32VW55X_Wifi_BLE_SDK/GD32VW55x_RELEASE_V1.0.2/MSDK/ble/app\app_list_mgr.c ****         p_pal_info->adv_sid = p_dev->adv_sid;
 1429              		.loc 1 440 31 is_stmt 0
 1430 0058 83478900 		lbu	a5,8(s2)
 443:C:/Users/stapi/OneDrive/Desktop/GD32VW553/V1_MQTT_OK/GD32VW55X_Wifi_BLE_SDK/GD32VW55x_RELEASE_V1.0.2/MSDK/ble/app\app_list_mgr.c ****             dbg_print(NOTICE, "app_pal_rmv idx %u fail! \r\n", i);
 1431              		.loc 1 443 13
 1432 005c 8145     		li	a1,0
 1433 005e 2285     		mv	a0,s0
 440:C:/Users/stapi/OneDrive/Desktop/GD32VW553/V1_MQTT_OK/GD32VW55X_Wifi_BLE_SDK/GD32VW55x_RELEASE_V1.0.2/MSDK/ble/app\app_list_mgr.c ****         p_pal_info->adv_sid = p_dev->adv_sid;
 1434              		.loc 1 440 31
 1435 0060 2303F400 		sb	a5,6(s0)
 441:C:/Users/stapi/OneDrive/Desktop/GD32VW553/V1_MQTT_OK/GD32VW55X_Wifi_BLE_SDK/GD32VW55x_RELEASE_V1.0.2/MSDK/ble/app\app_list_mgr.c **** 
 1436              		.loc 1 441 9 is_stmt 1
 441:C:/Users/stapi/OneDrive/Desktop/GD32VW553/V1_MQTT_OK/GD32VW55X_Wifi_BLE_SDK/GD32VW55x_RELEASE_V1.0.2/MSDK/ble/app\app_list_mgr.c **** 
 1437              		.loc 1 441 29 is_stmt 0
 1438 0064 8347F900 		lbu	a5,15(s2)
 1439 0068 A303F400 		sb	a5,7(s0)
 443:C:/Users/stapi/OneDrive/Desktop/GD32VW553/V1_MQTT_OK/GD32VW55X_Wifi_BLE_SDK/GD32VW55x_RELEASE_V1.0.2/MSDK/ble/app\app_list_mgr.c ****             dbg_print(NOTICE, "app_pal_rmv idx %u fail! \r\n", i);
 1440              		.loc 1 443 9 is_stmt 1
 443:C:/Users/stapi/OneDrive/Desktop/GD32VW553/V1_MQTT_OK/GD32VW55X_Wifi_BLE_SDK/GD32VW55x_RELEASE_V1.0.2/MSDK/ble/app\app_list_mgr.c ****             dbg_print(NOTICE, "app_pal_rmv idx %u fail! \r\n", i);
 1441              		.loc 1 443 13 is_stmt 0
 1442 006c 97000000 		call	ble_pal_op
 1442      E7800000 
 1443              	.LVL133:
 443:C:/Users/stapi/OneDrive/Desktop/GD32VW553/V1_MQTT_OK/GD32VW55X_Wifi_BLE_SDK/GD32VW55x_RELEASE_V1.0.2/MSDK/ble/app\app_list_mgr.c ****             dbg_print(NOTICE, "app_pal_rmv idx %u fail! \r\n", i);
 1444              		.loc 1 443 12
 1445 0074 01CD     		beq	a0,zero,.L188
 1446              		.loc 1 444 13 is_stmt 1
 1447              		.loc 1 444 13
 1448 0076 83C70A00 		lbu	a5,%lo(global_debug_level)(s5)
 1449 007a 6379FB00 		bleu	a5,s6,.L188
 1450              		.loc 1 444 13 discriminator 1
 1451 007e A685     		mv	a1,s1
 1452 0080 13850B00 		addi	a0,s7,%lo(.LC10)
 1453 0084 97000000 		call	co_printf
 1453      E7800000 
 1454              	.LVL134:
 1455              	.L188:
 1456              		.loc 1 444 13 discriminator 3
 1457              	.LBE20:
 434:C:/Users/stapi/OneDrive/Desktop/GD32VW553/V1_MQTT_OK/GD32VW55X_Wifi_BLE_SDK/GD32VW55x_RELEASE_V1.0.2/MSDK/ble/app\app_list_mgr.c ****         #if (BLE_CFG_ROLE & (BLE_CFG_ROLE_OBSERVER | BLE_CFG_ROLE_CENTRAL))
 1458              		.loc 1 434 26 discriminator 3
 434:C:/Users/stapi/OneDrive/Desktop/GD32VW553/V1_MQTT_OK/GD32VW55X_Wifi_BLE_SDK/GD32VW55x_RELEASE_V1.0.2/MSDK/ble/app\app_list_mgr.c ****         #if (BLE_CFG_ROLE & (BLE_CFG_ROLE_OBSERVER | BLE_CFG_ROLE_CENTRAL))
 1459              		.loc 1 434 17 discriminator 3
 434:C:/Users/stapi/OneDrive/Desktop/GD32VW553/V1_MQTT_OK/GD32VW55X_Wifi_BLE_SDK/GD32VW55x_RELEASE_V1.0.2/MSDK/ble/app\app_list_mgr.c ****         #if (BLE_CFG_ROLE & (BLE_CFG_ROLE_OBSERVER | BLE_CFG_ROLE_CENTRAL))
 1460              		.loc 1 434 5 is_stmt 0 discriminator 3
 1461 008c 8504     		addi	s1,s1,1
 1462              	.LVL135:
 1463 008e 93F7F40F 		andi	a5,s1,0xff
 1464 0092 E3E237FB 		bgtu	s3,a5,.L189
 445:C:/Users/stapi/OneDrive/Desktop/GD32VW553/V1_MQTT_OK/GD32VW55X_Wifi_BLE_SDK/GD32VW55x_RELEASE_V1.0.2/MSDK/ble/app\app_list_mgr.c ****         }
 446:C:/Users/stapi/OneDrive/Desktop/GD32VW553/V1_MQTT_OK/GD32VW55X_Wifi_BLE_SDK/GD32VW55x_RELEASE_V1.0.2/MSDK/ble/app\app_list_mgr.c ****         #endif
 447:C:/Users/stapi/OneDrive/Desktop/GD32VW553/V1_MQTT_OK/GD32VW55X_Wifi_BLE_SDK/GD32VW55x_RELEASE_V1.0.2/MSDK/ble/app\app_list_mgr.c ****     }
 448:C:/Users/stapi/OneDrive/Desktop/GD32VW553/V1_MQTT_OK/GD32VW55X_Wifi_BLE_SDK/GD32VW55x_RELEASE_V1.0.2/MSDK/ble/app\app_list_mgr.c **** 
 449:C:/Users/stapi/OneDrive/Desktop/GD32VW553/V1_MQTT_OK/GD32VW55X_Wifi_BLE_SDK/GD32VW55x_RELEASE_V1.0.2/MSDK/ble/app\app_list_mgr.c ****     sys_mfree(p_pal_info);
 1465              		.loc 1 449 5 is_stmt 1
 1466 0096 2285     		mv	a0,s0
 1467 0098 97000000 		call	sys_mfree
 1467      E7800000 
 1468              	.LVL136:
 1469              	.L184:
 450:C:/Users/stapi/OneDrive/Desktop/GD32VW553/V1_MQTT_OK/GD32VW55X_Wifi_BLE_SDK/GD32VW55x_RELEASE_V1.0.2/MSDK/ble/app\app_list_mgr.c **** }
 1470              		.loc 1 450 1 is_stmt 0
 1471 00a0 17030000 		tail	__riscv_restore_8
 1471      67000300 
 1472              		.cfi_restore 23
 1473              		.cfi_restore 22
 1474              		.cfi_restore 21
 1475              		.cfi_restore 20
 1476              		.cfi_restore 19
 1477              		.cfi_restore 18
 1478              		.cfi_restore 9
 1479              		.cfi_restore 8
 1480              		.cfi_restore 1
 1481              		.cfi_def_cfa_offset 0
 1482              	.LVL137:
 1483              	.L201:
 1484 00a8 8280     		ret
 1485              		.cfi_endproc
 1486              	.LFE11:
 1488              		.section	.rodata.app_pal_clear.str1.4,"aMS",@progbits,1
 1489              		.align	2
 1490              	.LC11:
 1491 0000 6170705F 		.string	"app_pal_clear fail! \r\n"
 1491      70616C5F 
 1491      636C6561 
 1491      72206661 
 1491      696C2120 
 1492              		.section	.text.app_pal_clear,"ax",@progbits
 1493              		.align	1
 1494              		.globl	app_pal_clear
 1496              	app_pal_clear:
 1497              	.LFB12:
 451:C:/Users/stapi/OneDrive/Desktop/GD32VW553/V1_MQTT_OK/GD32VW55X_Wifi_BLE_SDK/GD32VW55x_RELEASE_V1.0.2/MSDK/ble/app\app_list_mgr.c **** 
 452:C:/Users/stapi/OneDrive/Desktop/GD32VW553/V1_MQTT_OK/GD32VW55X_Wifi_BLE_SDK/GD32VW55x_RELEASE_V1.0.2/MSDK/ble/app\app_list_mgr.c **** /*!
 453:C:/Users/stapi/OneDrive/Desktop/GD32VW553/V1_MQTT_OK/GD32VW55X_Wifi_BLE_SDK/GD32VW55x_RELEASE_V1.0.2/MSDK/ble/app\app_list_mgr.c ****     \brief      Clear periodic advertiser list
 454:C:/Users/stapi/OneDrive/Desktop/GD32VW553/V1_MQTT_OK/GD32VW55X_Wifi_BLE_SDK/GD32VW55x_RELEASE_V1.0.2/MSDK/ble/app\app_list_mgr.c ****     \param[in]  none
 455:C:/Users/stapi/OneDrive/Desktop/GD32VW553/V1_MQTT_OK/GD32VW55X_Wifi_BLE_SDK/GD32VW55x_RELEASE_V1.0.2/MSDK/ble/app\app_list_mgr.c ****     \param[out] none
 456:C:/Users/stapi/OneDrive/Desktop/GD32VW553/V1_MQTT_OK/GD32VW55X_Wifi_BLE_SDK/GD32VW55x_RELEASE_V1.0.2/MSDK/ble/app\app_list_mgr.c ****     \retval     none
 457:C:/Users/stapi/OneDrive/Desktop/GD32VW553/V1_MQTT_OK/GD32VW55X_Wifi_BLE_SDK/GD32VW55x_RELEASE_V1.0.2/MSDK/ble/app\app_list_mgr.c **** */
 458:C:/Users/stapi/OneDrive/Desktop/GD32VW553/V1_MQTT_OK/GD32VW55X_Wifi_BLE_SDK/GD32VW55x_RELEASE_V1.0.2/MSDK/ble/app\app_list_mgr.c **** void app_pal_clear(void)
 459:C:/Users/stapi/OneDrive/Desktop/GD32VW553/V1_MQTT_OK/GD32VW55X_Wifi_BLE_SDK/GD32VW55x_RELEASE_V1.0.2/MSDK/ble/app\app_list_mgr.c **** {
 1498              		.loc 1 459 1 is_stmt 1
 1499              		.cfi_startproc
 1500 0000 17030000 		call	t0,__riscv_save_0
 1500      E7020300 
 1501              		.cfi_offset 1, -4
 1502              		.cfi_def_cfa_offset 16
 460:C:/Users/stapi/OneDrive/Desktop/GD32VW553/V1_MQTT_OK/GD32VW55X_Wifi_BLE_SDK/GD32VW55x_RELEASE_V1.0.2/MSDK/ble/app\app_list_mgr.c ****     // FIX TODO we need to suspend/resume scan/adv/init
 461:C:/Users/stapi/OneDrive/Desktop/GD32VW553/V1_MQTT_OK/GD32VW55X_Wifi_BLE_SDK/GD32VW55x_RELEASE_V1.0.2/MSDK/ble/app\app_list_mgr.c **** 
 462:C:/Users/stapi/OneDrive/Desktop/GD32VW553/V1_MQTT_OK/GD32VW55X_Wifi_BLE_SDK/GD32VW55x_RELEASE_V1.0.2/MSDK/ble/app\app_list_mgr.c ****     if (ble_pal_clear() != BLE_ERR_NO_ERROR) {
 1503              		.loc 1 462 5
 1504              		.loc 1 462 9 is_stmt 0
 1505 0008 97000000 		call	ble_pal_clear
 1505      E7800000 
 1506              	.LVL138:
 1507              		.loc 1 462 8
 1508 0010 05C1     		beq	a0,zero,.L204
 463:C:/Users/stapi/OneDrive/Desktop/GD32VW553/V1_MQTT_OK/GD32VW55X_Wifi_BLE_SDK/GD32VW55x_RELEASE_V1.0.2/MSDK/ble/app\app_list_mgr.c ****         dbg_print(NOTICE, "app_pal_clear fail! \r\n");
 1509              		.loc 1 463 9 is_stmt 1
 1510              		.loc 1 463 9
 1511 0012 B7070000 		lui	a5,%hi(global_debug_level)
 1512 0016 03C70700 		lbu	a4,%lo(global_debug_level)(a5)
 1513 001a 8947     		li	a5,2
 1514 001c 63FAE700 		bleu	a4,a5,.L204
 1515              		.loc 1 463 9 discriminator 1
 1516 0020 37050000 		lui	a0,%hi(.LC11)
 1517 0024 13050500 		addi	a0,a0,%lo(.LC11)
 1518 0028 97000000 		call	co_printf
 1518      E7800000 
 1519              	.LVL139:
 1520              		.loc 1 463 9 discriminator 1
 1521              	.L204:
 464:C:/Users/stapi/OneDrive/Desktop/GD32VW553/V1_MQTT_OK/GD32VW55X_Wifi_BLE_SDK/GD32VW55x_RELEASE_V1.0.2/MSDK/ble/app\app_list_mgr.c ****     }
 465:C:/Users/stapi/OneDrive/Desktop/GD32VW553/V1_MQTT_OK/GD32VW55X_Wifi_BLE_SDK/GD32VW55x_RELEASE_V1.0.2/MSDK/ble/app\app_list_mgr.c **** }
 1522              		.loc 1 465 1 is_stmt 0
 1523 0030 17030000 		tail	__riscv_restore_0
 1523      67000300 
 1524              		.cfi_restore 1
 1525              		.cfi_def_cfa_offset 0
 1526              		.cfi_endproc
 1527              	.LFE12:
 1529              		.section	.rodata.app_ral_set.str1.4,"aMS",@progbits,1
 1530              		.align	2
 1531              	.LC12:
 1532 0000 6170705F 		.string	"app_ral_set num %u fail! \r\n"
 1532      72616C5F 
 1532      73657420 
 1532      6E756D20 
 1532      25752066 
 1533              		.section	.text.app_ral_set,"ax",@progbits
 1534              		.align	1
 1535              		.globl	app_ral_set
 1537              	app_ral_set:
 1538              	.LFB13:
 466:C:/Users/stapi/OneDrive/Desktop/GD32VW553/V1_MQTT_OK/GD32VW55X_Wifi_BLE_SDK/GD32VW55x_RELEASE_V1.0.2/MSDK/ble/app\app_list_mgr.c **** 
 467:C:/Users/stapi/OneDrive/Desktop/GD32VW553/V1_MQTT_OK/GD32VW55X_Wifi_BLE_SDK/GD32VW55x_RELEASE_V1.0.2/MSDK/ble/app\app_list_mgr.c **** /*!
 468:C:/Users/stapi/OneDrive/Desktop/GD32VW553/V1_MQTT_OK/GD32VW55X_Wifi_BLE_SDK/GD32VW55x_RELEASE_V1.0.2/MSDK/ble/app\app_list_mgr.c ****     \brief      Set resolving list
 469:C:/Users/stapi/OneDrive/Desktop/GD32VW553/V1_MQTT_OK/GD32VW55X_Wifi_BLE_SDK/GD32VW55x_RELEASE_V1.0.2/MSDK/ble/app\app_list_mgr.c ****     \param[in]  num: number of provided device index
 470:C:/Users/stapi/OneDrive/Desktop/GD32VW553/V1_MQTT_OK/GD32VW55X_Wifi_BLE_SDK/GD32VW55x_RELEASE_V1.0.2/MSDK/ble/app\app_list_mgr.c ****     \param[in]  p_array: pointer to array of device index used to set in resolving list
 471:C:/Users/stapi/OneDrive/Desktop/GD32VW553/V1_MQTT_OK/GD32VW55X_Wifi_BLE_SDK/GD32VW55x_RELEASE_V1.0.2/MSDK/ble/app\app_list_mgr.c ****     \param[out] none
 472:C:/Users/stapi/OneDrive/Desktop/GD32VW553/V1_MQTT_OK/GD32VW55X_Wifi_BLE_SDK/GD32VW55x_RELEASE_V1.0.2/MSDK/ble/app\app_list_mgr.c ****     \retval     none
 473:C:/Users/stapi/OneDrive/Desktop/GD32VW553/V1_MQTT_OK/GD32VW55X_Wifi_BLE_SDK/GD32VW55x_RELEASE_V1.0.2/MSDK/ble/app\app_list_mgr.c **** */
 474:C:/Users/stapi/OneDrive/Desktop/GD32VW553/V1_MQTT_OK/GD32VW55X_Wifi_BLE_SDK/GD32VW55x_RELEASE_V1.0.2/MSDK/ble/app\app_list_mgr.c **** void app_ral_set(uint8_t num, ral_info_t *p_array)
 475:C:/Users/stapi/OneDrive/Desktop/GD32VW553/V1_MQTT_OK/GD32VW55X_Wifi_BLE_SDK/GD32VW55x_RELEASE_V1.0.2/MSDK/ble/app\app_list_mgr.c **** {
 1539              		.loc 1 475 1 is_stmt 1
 1540              		.cfi_startproc
 1541              	.LVL140:
 476:C:/Users/stapi/OneDrive/Desktop/GD32VW553/V1_MQTT_OK/GD32VW55X_Wifi_BLE_SDK/GD32VW55x_RELEASE_V1.0.2/MSDK/ble/app\app_list_mgr.c ****     ble_gap_ral_info_t *p_ral_info;
 1542              		.loc 1 476 5
 477:C:/Users/stapi/OneDrive/Desktop/GD32VW553/V1_MQTT_OK/GD32VW55X_Wifi_BLE_SDK/GD32VW55x_RELEASE_V1.0.2/MSDK/ble/app\app_list_mgr.c ****     ble_device_t *p_dev;
 1543              		.loc 1 477 5
 478:C:/Users/stapi/OneDrive/Desktop/GD32VW553/V1_MQTT_OK/GD32VW55X_Wifi_BLE_SDK/GD32VW55x_RELEASE_V1.0.2/MSDK/ble/app\app_list_mgr.c ****     uint8_t i;
 1544              		.loc 1 478 5
 479:C:/Users/stapi/OneDrive/Desktop/GD32VW553/V1_MQTT_OK/GD32VW55X_Wifi_BLE_SDK/GD32VW55x_RELEASE_V1.0.2/MSDK/ble/app\app_list_mgr.c **** 
 480:C:/Users/stapi/OneDrive/Desktop/GD32VW553/V1_MQTT_OK/GD32VW55X_Wifi_BLE_SDK/GD32VW55x_RELEASE_V1.0.2/MSDK/ble/app\app_list_mgr.c ****     if (num == 0 || p_array == NULL) {
 1545              		.loc 1 480 5
 1546              		.loc 1 480 8 is_stmt 0
 1547 0000 61C9     		beq	a0,zero,.L227
 475:C:/Users/stapi/OneDrive/Desktop/GD32VW553/V1_MQTT_OK/GD32VW55X_Wifi_BLE_SDK/GD32VW55x_RELEASE_V1.0.2/MSDK/ble/app\app_list_mgr.c ****     ble_gap_ral_info_t *p_ral_info;
 1548              		.loc 1 475 1 discriminator 1
 1549 0002 17030000 		call	t0,__riscv_save_6
 1549      E7020300 
 1550              		.cfi_offset 21, -28
 1551              		.cfi_offset 20, -24
 1552              		.cfi_offset 19, -20
 1553              		.cfi_offset 18, -16
 1554              		.cfi_offset 9, -12
 1555              		.cfi_offset 8, -8
 1556              		.cfi_offset 1, -4
 1557              		.cfi_def_cfa_offset 32
 1558 000a 4111     		addi	sp,sp,-16
 1559              		.cfi_def_cfa_offset 48
 1560 000c 2E84     		mv	s0,a1
 1561              		.loc 1 480 18 discriminator 1
 1562 000e C5CD     		beq	a1,zero,.L210
 481:C:/Users/stapi/OneDrive/Desktop/GD32VW553/V1_MQTT_OK/GD32VW55X_Wifi_BLE_SDK/GD32VW55x_RELEASE_V1.0.2/MSDK/ble/app\app_list_mgr.c ****         return;
 482:C:/Users/stapi/OneDrive/Desktop/GD32VW553/V1_MQTT_OK/GD32VW55X_Wifi_BLE_SDK/GD32VW55x_RELEASE_V1.0.2/MSDK/ble/app\app_list_mgr.c ****     }
 483:C:/Users/stapi/OneDrive/Desktop/GD32VW553/V1_MQTT_OK/GD32VW55X_Wifi_BLE_SDK/GD32VW55x_RELEASE_V1.0.2/MSDK/ble/app\app_list_mgr.c **** 
 484:C:/Users/stapi/OneDrive/Desktop/GD32VW553/V1_MQTT_OK/GD32VW55X_Wifi_BLE_SDK/GD32VW55x_RELEASE_V1.0.2/MSDK/ble/app\app_list_mgr.c ****     p_ral_info = (ble_gap_ral_info_t *)sys_malloc(num * sizeof(ble_gap_ral_info_t));
 1563              		.loc 1 484 40
 1564 0010 13068002 		li	a2,40
 1565 0014 3306C502 		mul	a2,a0,a2
 1566 0018 AA84     		mv	s1,a0
 1567              		.loc 1 484 5 is_stmt 1
 1568              		.loc 1 484 40 is_stmt 0
 1569 001a 3285     		mv	a0,a2
 1570              	.LVL141:
 1571 001c 32C6     		sw	a2,12(sp)
 1572 001e 97000000 		call	sys_malloc
 1572      E7800000 
 1573              	.LVL142:
 1574 0026 2A89     		mv	s2,a0
 1575              	.LVL143:
 485:C:/Users/stapi/OneDrive/Desktop/GD32VW553/V1_MQTT_OK/GD32VW55X_Wifi_BLE_SDK/GD32VW55x_RELEASE_V1.0.2/MSDK/ble/app\app_list_mgr.c **** 
 486:C:/Users/stapi/OneDrive/Desktop/GD32VW553/V1_MQTT_OK/GD32VW55X_Wifi_BLE_SDK/GD32VW55x_RELEASE_V1.0.2/MSDK/ble/app\app_list_mgr.c ****     if (p_ral_info == NULL) {
 1576              		.loc 1 486 5 is_stmt 1
 1577              		.loc 1 486 8 is_stmt 0
 1578 0028 59CD     		beq	a0,zero,.L210
 487:C:/Users/stapi/OneDrive/Desktop/GD32VW553/V1_MQTT_OK/GD32VW55X_Wifi_BLE_SDK/GD32VW55x_RELEASE_V1.0.2/MSDK/ble/app\app_list_mgr.c ****         return;
 488:C:/Users/stapi/OneDrive/Desktop/GD32VW553/V1_MQTT_OK/GD32VW55X_Wifi_BLE_SDK/GD32VW55x_RELEASE_V1.0.2/MSDK/ble/app\app_list_mgr.c ****     }
 489:C:/Users/stapi/OneDrive/Desktop/GD32VW553/V1_MQTT_OK/GD32VW55X_Wifi_BLE_SDK/GD32VW55x_RELEASE_V1.0.2/MSDK/ble/app\app_list_mgr.c ****     memset(p_ral_info, 0, num * sizeof(ble_gap_ral_info_t));
 1579              		.loc 1 489 5 is_stmt 1
 1580 002a 3246     		lw	a2,12(sp)
 1581 002c 8145     		li	a1,0
 1582 002e CA89     		mv	s3,s2
 1583 0030 97000000 		call	memset
 1583      E7800000 
 1584              	.LVL144:
 490:C:/Users/stapi/OneDrive/Desktop/GD32VW553/V1_MQTT_OK/GD32VW55X_Wifi_BLE_SDK/GD32VW55x_RELEASE_V1.0.2/MSDK/ble/app\app_list_mgr.c **** 
 491:C:/Users/stapi/OneDrive/Desktop/GD32VW553/V1_MQTT_OK/GD32VW55X_Wifi_BLE_SDK/GD32VW55x_RELEASE_V1.0.2/MSDK/ble/app\app_list_mgr.c ****     for (i = 0; i < num; i++) {
 1585              		.loc 1 491 5
 1586              		.loc 1 491 17
 1587              		.loc 1 491 12 is_stmt 0
 1588 0038 014A     		li	s4,0
 1589              	.LVL145:
 1590              	.L214:
 492:C:/Users/stapi/OneDrive/Desktop/GD32VW553/V1_MQTT_OK/GD32VW55X_Wifi_BLE_SDK/GD32VW55x_RELEASE_V1.0.2/MSDK/ble/app\app_list_mgr.c ****         p_dev = dm_find_dev_by_idx(p_array[i].idx);
 1591              		.loc 1 492 9 is_stmt 1 discriminator 3
 1592              		.loc 1 492 17 is_stmt 0 discriminator 3
 1593 003a 03450400 		lbu	a0,0(s0)
 491:C:/Users/stapi/OneDrive/Desktop/GD32VW553/V1_MQTT_OK/GD32VW55X_Wifi_BLE_SDK/GD32VW55x_RELEASE_V1.0.2/MSDK/ble/app\app_list_mgr.c ****         p_dev = dm_find_dev_by_idx(p_array[i].idx);
 1594              		.loc 1 491 27 discriminator 3
 1595 003e 050A     		addi	s4,s4,1
 1596              	.LVL146:
 1597 0040 137AFA0F 		andi	s4,s4,0xff
 1598              		.loc 1 492 17 discriminator 3
 1599 0044 97000000 		call	dm_find_dev_by_idx
 1599      E7800000 
 1600              	.LVL147:
 493:C:/Users/stapi/OneDrive/Desktop/GD32VW553/V1_MQTT_OK/GD32VW55X_Wifi_BLE_SDK/GD32VW55x_RELEASE_V1.0.2/MSDK/ble/app\app_list_mgr.c ****         memcpy(&p_ral_info[i].addr, &p_dev->bond_info.peer_irk.identity, sizeof(ble_gap_addr_t));
 1601              		.loc 1 493 9 discriminator 3
 1602 004c 93054505 		addi	a1,a0,84
 492:C:/Users/stapi/OneDrive/Desktop/GD32VW553/V1_MQTT_OK/GD32VW55X_Wifi_BLE_SDK/GD32VW55x_RELEASE_V1.0.2/MSDK/ble/app\app_list_mgr.c ****         p_dev = dm_find_dev_by_idx(p_array[i].idx);
 1603              		.loc 1 492 17 discriminator 3
 1604 0050 AA8A     		mv	s5,a0
 1605              	.LVL148:
 1606              		.loc 1 493 9 is_stmt 1 discriminator 3
 1607 0052 1D46     		li	a2,7
 1608 0054 4E85     		mv	a0,s3
 1609              	.LVL149:
 1610 0056 97000000 		call	memcpy
 1610      E7800000 
 1611              	.LVL150:
 494:C:/Users/stapi/OneDrive/Desktop/GD32VW553/V1_MQTT_OK/GD32VW55X_Wifi_BLE_SDK/GD32VW55x_RELEASE_V1.0.2/MSDK/ble/app\app_list_mgr.c ****         p_ral_info[i].mode = p_array[i].mode;
 1612              		.loc 1 494 9 discriminator 3
 1613              		.loc 1 494 40 is_stmt 0 discriminator 3
 1614 005e 83471400 		lbu	a5,1(s0)
 495:C:/Users/stapi/OneDrive/Desktop/GD32VW553/V1_MQTT_OK/GD32VW55X_Wifi_BLE_SDK/GD32VW55x_RELEASE_V1.0.2/MSDK/ble/app\app_list_mgr.c ****         memcpy(p_ral_info[i].peer_irk, p_dev->bond_info.peer_irk.irk, BLE_GAP_KEY_LEN);
 1615              		.loc 1 495 9 discriminator 3
 1616 0062 4146     		li	a2,16
 1617 0064 93854A04 		addi	a1,s5,68
 494:C:/Users/stapi/OneDrive/Desktop/GD32VW553/V1_MQTT_OK/GD32VW55X_Wifi_BLE_SDK/GD32VW55x_RELEASE_V1.0.2/MSDK/ble/app\app_list_mgr.c ****         p_ral_info[i].mode = p_array[i].mode;
 1618              		.loc 1 494 28 discriminator 3
 1619 0068 A383F900 		sb	a5,7(s3)
 1620              		.loc 1 495 9 is_stmt 1 discriminator 3
 1621 006c 13858900 		addi	a0,s3,8
 1622 0070 97000000 		call	memcpy
 1622      E7800000 
 1623              	.LVL151:
 496:C:/Users/stapi/OneDrive/Desktop/GD32VW553/V1_MQTT_OK/GD32VW55X_Wifi_BLE_SDK/GD32VW55x_RELEASE_V1.0.2/MSDK/ble/app\app_list_mgr.c ****         ble_adp_loc_irk_get(p_ral_info[i].local_irk);
 1624              		.loc 1 496 9 discriminator 3
 1625 0078 13858901 		addi	a0,s3,24
 1626 007c 97000000 		call	ble_adp_loc_irk_get
 1626      E7800000 
 1627              	.LVL152:
 491:C:/Users/stapi/OneDrive/Desktop/GD32VW553/V1_MQTT_OK/GD32VW55X_Wifi_BLE_SDK/GD32VW55x_RELEASE_V1.0.2/MSDK/ble/app\app_list_mgr.c ****         p_dev = dm_find_dev_by_idx(p_array[i].idx);
 1628              		.loc 1 491 26 discriminator 3
 491:C:/Users/stapi/OneDrive/Desktop/GD32VW553/V1_MQTT_OK/GD32VW55X_Wifi_BLE_SDK/GD32VW55x_RELEASE_V1.0.2/MSDK/ble/app\app_list_mgr.c ****         p_dev = dm_find_dev_by_idx(p_array[i].idx);
 1629              		.loc 1 491 17 discriminator 3
 491:C:/Users/stapi/OneDrive/Desktop/GD32VW553/V1_MQTT_OK/GD32VW55X_Wifi_BLE_SDK/GD32VW55x_RELEASE_V1.0.2/MSDK/ble/app\app_list_mgr.c ****         p_dev = dm_find_dev_by_idx(p_array[i].idx);
 1630              		.loc 1 491 5 is_stmt 0 discriminator 3
 1631 0084 0904     		addi	s0,s0,2
 1632 0086 93898902 		addi	s3,s3,40
 1633 008a E39844FB 		bne	s1,s4,.L214
 497:C:/Users/stapi/OneDrive/Desktop/GD32VW553/V1_MQTT_OK/GD32VW55X_Wifi_BLE_SDK/GD32VW55x_RELEASE_V1.0.2/MSDK/ble/app\app_list_mgr.c ****     }
 498:C:/Users/stapi/OneDrive/Desktop/GD32VW553/V1_MQTT_OK/GD32VW55X_Wifi_BLE_SDK/GD32VW55x_RELEASE_V1.0.2/MSDK/ble/app\app_list_mgr.c **** 
 499:C:/Users/stapi/OneDrive/Desktop/GD32VW553/V1_MQTT_OK/GD32VW55X_Wifi_BLE_SDK/GD32VW55x_RELEASE_V1.0.2/MSDK/ble/app\app_list_mgr.c ****     if (ble_ral_list_set(num, p_ral_info) != BLE_ERR_NO_ERROR) {
 1634              		.loc 1 499 5 is_stmt 1
 1635              		.loc 1 499 9 is_stmt 0
 1636 008e CA85     		mv	a1,s2
 1637 0090 2685     		mv	a0,s1
 1638 0092 97000000 		call	ble_ral_list_set
 1638      E7800000 
 1639              	.LVL153:
 1640              		.loc 1 499 8
 1641 009a 0DC1     		beq	a0,zero,.L215
 500:C:/Users/stapi/OneDrive/Desktop/GD32VW553/V1_MQTT_OK/GD32VW55X_Wifi_BLE_SDK/GD32VW55x_RELEASE_V1.0.2/MSDK/ble/app\app_list_mgr.c ****         dbg_print(NOTICE, "app_ral_set num %u fail! \r\n", num);
 1642              		.loc 1 500 9 is_stmt 1
 1643              		.loc 1 500 9
 1644 009c B7070000 		lui	a5,%hi(global_debug_level)
 1645 00a0 03C70700 		lbu	a4,%lo(global_debug_level)(a5)
 1646 00a4 8947     		li	a5,2
 1647 00a6 63FBE700 		bleu	a4,a5,.L215
 1648              		.loc 1 500 9 discriminator 1
 1649 00aa 37050000 		lui	a0,%hi(.LC12)
 1650 00ae A685     		mv	a1,s1
 1651 00b0 13050500 		addi	a0,a0,%lo(.LC12)
 1652 00b4 97000000 		call	co_printf
 1652      E7800000 
 1653              	.LVL154:
 1654              	.L215:
 1655              		.loc 1 500 9 discriminator 3
 501:C:/Users/stapi/OneDrive/Desktop/GD32VW553/V1_MQTT_OK/GD32VW55X_Wifi_BLE_SDK/GD32VW55x_RELEASE_V1.0.2/MSDK/ble/app\app_list_mgr.c ****     }
 502:C:/Users/stapi/OneDrive/Desktop/GD32VW553/V1_MQTT_OK/GD32VW55X_Wifi_BLE_SDK/GD32VW55x_RELEASE_V1.0.2/MSDK/ble/app\app_list_mgr.c **** 
 503:C:/Users/stapi/OneDrive/Desktop/GD32VW553/V1_MQTT_OK/GD32VW55X_Wifi_BLE_SDK/GD32VW55x_RELEASE_V1.0.2/MSDK/ble/app\app_list_mgr.c ****     sys_mfree(p_ral_info);
 1656              		.loc 1 503 5 discriminator 3
 1657 00bc 4A85     		mv	a0,s2
 1658 00be 97000000 		call	sys_mfree
 1658      E7800000 
 1659              	.LVL155:
 1660              	.L210:
 504:C:/Users/stapi/OneDrive/Desktop/GD32VW553/V1_MQTT_OK/GD32VW55X_Wifi_BLE_SDK/GD32VW55x_RELEASE_V1.0.2/MSDK/ble/app\app_list_mgr.c **** }
 1661              		.loc 1 504 1 is_stmt 0
 1662 00c6 4101     		addi	sp,sp,16
 1663              		.cfi_def_cfa_offset 0
 1664 00c8 17030000 		tail	__riscv_restore_6
 1664      67000300 
 1665              		.cfi_restore 21
 1666              		.cfi_restore 20
 1667              		.cfi_restore 19
 1668              		.cfi_restore 18
 1669              		.cfi_restore 9
 1670              		.cfi_restore 8
 1671              		.cfi_restore 1
 1672              		.cfi_def_cfa_offset -32
 1673              	.LVL156:
 1674              	.L227:
 1675              		.cfi_def_cfa_offset 0
 1676 00d0 8280     		ret
 1677              		.cfi_endproc
 1678              	.LFE13:
 1680              		.section	.rodata.app_ral_add.str1.4,"aMS",@progbits,1
 1681              		.align	2
 1682              	.LC13:
 1683 0000 6170705F 		.string	"app_ral_add idx %u fail! \r\n"
 1683      72616C5F 
 1683      61646420 
 1683      69647820 
 1683      25752066 
 1684              		.section	.text.app_ral_add,"ax",@progbits
 1685              		.align	1
 1686              		.globl	app_ral_add
 1688              	app_ral_add:
 1689              	.LFB14:
 505:C:/Users/stapi/OneDrive/Desktop/GD32VW553/V1_MQTT_OK/GD32VW55X_Wifi_BLE_SDK/GD32VW55x_RELEASE_V1.0.2/MSDK/ble/app\app_list_mgr.c **** 
 506:C:/Users/stapi/OneDrive/Desktop/GD32VW553/V1_MQTT_OK/GD32VW55X_Wifi_BLE_SDK/GD32VW55x_RELEASE_V1.0.2/MSDK/ble/app\app_list_mgr.c **** /*!
 507:C:/Users/stapi/OneDrive/Desktop/GD32VW553/V1_MQTT_OK/GD32VW55X_Wifi_BLE_SDK/GD32VW55x_RELEASE_V1.0.2/MSDK/ble/app\app_list_mgr.c ****     \brief      Add devices to resolving list
 508:C:/Users/stapi/OneDrive/Desktop/GD32VW553/V1_MQTT_OK/GD32VW55X_Wifi_BLE_SDK/GD32VW55x_RELEASE_V1.0.2/MSDK/ble/app\app_list_mgr.c ****     \param[in]  num: number of provided device index
 509:C:/Users/stapi/OneDrive/Desktop/GD32VW553/V1_MQTT_OK/GD32VW55X_Wifi_BLE_SDK/GD32VW55x_RELEASE_V1.0.2/MSDK/ble/app\app_list_mgr.c ****     \param[in]  p_array: pointer to array of device index used to add in resolving list
 510:C:/Users/stapi/OneDrive/Desktop/GD32VW553/V1_MQTT_OK/GD32VW55X_Wifi_BLE_SDK/GD32VW55x_RELEASE_V1.0.2/MSDK/ble/app\app_list_mgr.c ****     \param[out] none
 511:C:/Users/stapi/OneDrive/Desktop/GD32VW553/V1_MQTT_OK/GD32VW55X_Wifi_BLE_SDK/GD32VW55x_RELEASE_V1.0.2/MSDK/ble/app\app_list_mgr.c ****     \retval     none
 512:C:/Users/stapi/OneDrive/Desktop/GD32VW553/V1_MQTT_OK/GD32VW55X_Wifi_BLE_SDK/GD32VW55x_RELEASE_V1.0.2/MSDK/ble/app\app_list_mgr.c **** */
 513:C:/Users/stapi/OneDrive/Desktop/GD32VW553/V1_MQTT_OK/GD32VW55X_Wifi_BLE_SDK/GD32VW55x_RELEASE_V1.0.2/MSDK/ble/app\app_list_mgr.c **** void app_ral_add(uint8_t num, ral_info_t *p_array)
 514:C:/Users/stapi/OneDrive/Desktop/GD32VW553/V1_MQTT_OK/GD32VW55X_Wifi_BLE_SDK/GD32VW55x_RELEASE_V1.0.2/MSDK/ble/app\app_list_mgr.c **** {
 1690              		.loc 1 514 1 is_stmt 1
 1691              		.cfi_startproc
 1692              	.LVL157:
 515:C:/Users/stapi/OneDrive/Desktop/GD32VW553/V1_MQTT_OK/GD32VW55X_Wifi_BLE_SDK/GD32VW55x_RELEASE_V1.0.2/MSDK/ble/app\app_list_mgr.c ****     ble_gap_ral_info_t *p_ral_info;
 1693              		.loc 1 515 5
 516:C:/Users/stapi/OneDrive/Desktop/GD32VW553/V1_MQTT_OK/GD32VW55X_Wifi_BLE_SDK/GD32VW55x_RELEASE_V1.0.2/MSDK/ble/app\app_list_mgr.c ****     ble_device_t *p_dev;
 1694              		.loc 1 516 5
 517:C:/Users/stapi/OneDrive/Desktop/GD32VW553/V1_MQTT_OK/GD32VW55X_Wifi_BLE_SDK/GD32VW55x_RELEASE_V1.0.2/MSDK/ble/app\app_list_mgr.c ****     uint8_t i;
 1695              		.loc 1 517 5
 518:C:/Users/stapi/OneDrive/Desktop/GD32VW553/V1_MQTT_OK/GD32VW55X_Wifi_BLE_SDK/GD32VW55x_RELEASE_V1.0.2/MSDK/ble/app\app_list_mgr.c **** 
 519:C:/Users/stapi/OneDrive/Desktop/GD32VW553/V1_MQTT_OK/GD32VW55X_Wifi_BLE_SDK/GD32VW55x_RELEASE_V1.0.2/MSDK/ble/app\app_list_mgr.c ****     if (num == 0 || p_array == NULL) {
 1696              		.loc 1 519 5
 1697              		.loc 1 519 8 is_stmt 0
 1698 0000 61C9     		beq	a0,zero,.L247
 514:C:/Users/stapi/OneDrive/Desktop/GD32VW553/V1_MQTT_OK/GD32VW55X_Wifi_BLE_SDK/GD32VW55x_RELEASE_V1.0.2/MSDK/ble/app\app_list_mgr.c ****     ble_gap_ral_info_t *p_ral_info;
 1699              		.loc 1 514 1 discriminator 1
 1700 0002 17030000 		call	t0,__riscv_save_10
 1700      E7020300 
 1701              		.cfi_offset 25, -44
 1702              		.cfi_offset 24, -40
 1703              		.cfi_offset 23, -36
 1704              		.cfi_offset 22, -32
 1705              		.cfi_offset 21, -28
 1706              		.cfi_offset 20, -24
 1707              		.cfi_offset 19, -20
 1708              		.cfi_offset 18, -16
 1709              		.cfi_offset 9, -12
 1710              		.cfi_offset 8, -8
 1711              		.cfi_offset 1, -4
 1712              		.cfi_def_cfa_offset 48
 1713 000a 4111     		addi	sp,sp,-16
 1714              		.cfi_def_cfa_offset 64
 1715 000c 2E84     		mv	s0,a1
 1716              		.loc 1 519 18 discriminator 1
 1717 000e C5CD     		beq	a1,zero,.L230
 520:C:/Users/stapi/OneDrive/Desktop/GD32VW553/V1_MQTT_OK/GD32VW55X_Wifi_BLE_SDK/GD32VW55x_RELEASE_V1.0.2/MSDK/ble/app\app_list_mgr.c ****         return;
 521:C:/Users/stapi/OneDrive/Desktop/GD32VW553/V1_MQTT_OK/GD32VW55X_Wifi_BLE_SDK/GD32VW55x_RELEASE_V1.0.2/MSDK/ble/app\app_list_mgr.c ****     }
 522:C:/Users/stapi/OneDrive/Desktop/GD32VW553/V1_MQTT_OK/GD32VW55X_Wifi_BLE_SDK/GD32VW55x_RELEASE_V1.0.2/MSDK/ble/app\app_list_mgr.c **** 
 523:C:/Users/stapi/OneDrive/Desktop/GD32VW553/V1_MQTT_OK/GD32VW55X_Wifi_BLE_SDK/GD32VW55x_RELEASE_V1.0.2/MSDK/ble/app\app_list_mgr.c ****     p_ral_info = (ble_gap_ral_info_t *)sys_malloc(num * sizeof(ble_gap_ral_info_t));
 1718              		.loc 1 523 40
 1719 0010 13068002 		li	a2,40
 1720 0014 3306C502 		mul	a2,a0,a2
 1721 0018 AA89     		mv	s3,a0
 1722              		.loc 1 523 5 is_stmt 1
 1723              		.loc 1 523 40 is_stmt 0
 1724 001a 3285     		mv	a0,a2
 1725              	.LVL158:
 1726 001c 32C6     		sw	a2,12(sp)
 1727 001e 97000000 		call	sys_malloc
 1727      E7800000 
 1728              	.LVL159:
 1729 0026 AA84     		mv	s1,a0
 1730              	.LVL160:
 524:C:/Users/stapi/OneDrive/Desktop/GD32VW553/V1_MQTT_OK/GD32VW55X_Wifi_BLE_SDK/GD32VW55x_RELEASE_V1.0.2/MSDK/ble/app\app_list_mgr.c **** 
 525:C:/Users/stapi/OneDrive/Desktop/GD32VW553/V1_MQTT_OK/GD32VW55X_Wifi_BLE_SDK/GD32VW55x_RELEASE_V1.0.2/MSDK/ble/app\app_list_mgr.c ****     if (p_ral_info == NULL) {
 1731              		.loc 1 525 5 is_stmt 1
 1732              		.loc 1 525 8 is_stmt 0
 1733 0028 59CD     		beq	a0,zero,.L230
 526:C:/Users/stapi/OneDrive/Desktop/GD32VW553/V1_MQTT_OK/GD32VW55X_Wifi_BLE_SDK/GD32VW55x_RELEASE_V1.0.2/MSDK/ble/app\app_list_mgr.c ****         return;
 527:C:/Users/stapi/OneDrive/Desktop/GD32VW553/V1_MQTT_OK/GD32VW55X_Wifi_BLE_SDK/GD32VW55x_RELEASE_V1.0.2/MSDK/ble/app\app_list_mgr.c ****     }
 528:C:/Users/stapi/OneDrive/Desktop/GD32VW553/V1_MQTT_OK/GD32VW55X_Wifi_BLE_SDK/GD32VW55x_RELEASE_V1.0.2/MSDK/ble/app\app_list_mgr.c ****     memset(p_ral_info, 0, num * sizeof(ble_gap_ral_info_t));
 1734              		.loc 1 528 5 is_stmt 1
 1735 002a 3246     		lw	a2,12(sp)
 1736 002c 8145     		li	a1,0
 529:C:/Users/stapi/OneDrive/Desktop/GD32VW553/V1_MQTT_OK/GD32VW55X_Wifi_BLE_SDK/GD32VW55x_RELEASE_V1.0.2/MSDK/ble/app\app_list_mgr.c **** 
 530:C:/Users/stapi/OneDrive/Desktop/GD32VW553/V1_MQTT_OK/GD32VW55X_Wifi_BLE_SDK/GD32VW55x_RELEASE_V1.0.2/MSDK/ble/app\app_list_mgr.c ****     for (i = 0; i < num; i++) {
 1737              		.loc 1 530 12 is_stmt 0
 1738 002e 0149     		li	s2,0
 528:C:/Users/stapi/OneDrive/Desktop/GD32VW553/V1_MQTT_OK/GD32VW55X_Wifi_BLE_SDK/GD32VW55x_RELEASE_V1.0.2/MSDK/ble/app\app_list_mgr.c **** 
 1739              		.loc 1 528 5
 1740 0030 97000000 		call	memset
 1740      E7800000 
 1741              	.LVL161:
 1742              		.loc 1 530 5 is_stmt 1
 1743              		.loc 1 530 17
 531:C:/Users/stapi/OneDrive/Desktop/GD32VW553/V1_MQTT_OK/GD32VW55X_Wifi_BLE_SDK/GD32VW55x_RELEASE_V1.0.2/MSDK/ble/app\app_list_mgr.c ****         p_dev = dm_find_dev_by_idx(p_array[i].idx);
 532:C:/Users/stapi/OneDrive/Desktop/GD32VW553/V1_MQTT_OK/GD32VW55X_Wifi_BLE_SDK/GD32VW55x_RELEASE_V1.0.2/MSDK/ble/app\app_list_mgr.c ****         memcpy(&p_ral_info->addr, &p_dev->bond_info.peer_irk.identity, sizeof(ble_gap_addr_t));
 533:C:/Users/stapi/OneDrive/Desktop/GD32VW553/V1_MQTT_OK/GD32VW55X_Wifi_BLE_SDK/GD32VW55x_RELEASE_V1.0.2/MSDK/ble/app\app_list_mgr.c ****         p_ral_info->mode = p_array[i].mode;
 534:C:/Users/stapi/OneDrive/Desktop/GD32VW553/V1_MQTT_OK/GD32VW55X_Wifi_BLE_SDK/GD32VW55x_RELEASE_V1.0.2/MSDK/ble/app\app_list_mgr.c ****         memcpy(p_ral_info->peer_irk, p_dev->bond_info.peer_irk.irk, BLE_GAP_KEY_LEN);
 1744              		.loc 1 534 9 is_stmt 0
 1745 0038 938A8400 		addi	s5,s1,8
 535:C:/Users/stapi/OneDrive/Desktop/GD32VW553/V1_MQTT_OK/GD32VW55X_Wifi_BLE_SDK/GD32VW55x_RELEASE_V1.0.2/MSDK/ble/app\app_list_mgr.c ****         ble_adp_loc_irk_get(p_ral_info->local_irk);
 1746              		.loc 1 535 39
 1747 003c 138B8401 		addi	s6,s1,24
 536:C:/Users/stapi/OneDrive/Desktop/GD32VW553/V1_MQTT_OK/GD32VW55X_Wifi_BLE_SDK/GD32VW55x_RELEASE_V1.0.2/MSDK/ble/app\app_list_mgr.c **** 
 537:C:/Users/stapi/OneDrive/Desktop/GD32VW553/V1_MQTT_OK/GD32VW55X_Wifi_BLE_SDK/GD32VW55x_RELEASE_V1.0.2/MSDK/ble/app\app_list_mgr.c ****         if (ble_ral_op(p_ral_info, true) != BLE_ERR_NO_ERROR) {
 538:C:/Users/stapi/OneDrive/Desktop/GD32VW553/V1_MQTT_OK/GD32VW55X_Wifi_BLE_SDK/GD32VW55x_RELEASE_V1.0.2/MSDK/ble/app\app_list_mgr.c ****             dbg_print(NOTICE, "app_ral_add idx %u fail! \r\n", p_array[i].idx);
 1748              		.loc 1 538 13
 1749 0040 B70B0000 		lui	s7,%hi(global_debug_level)
 1750 0044 094C     		li	s8,2
 1751 0046 B70C0000 		lui	s9,%hi(.LC13)
 1752              	.LVL162:
 1753              	.L235:
 531:C:/Users/stapi/OneDrive/Desktop/GD32VW553/V1_MQTT_OK/GD32VW55X_Wifi_BLE_SDK/GD32VW55x_RELEASE_V1.0.2/MSDK/ble/app\app_list_mgr.c ****         memcpy(&p_ral_info->addr, &p_dev->bond_info.peer_irk.identity, sizeof(ble_gap_addr_t));
 1754              		.loc 1 531 9 is_stmt 1
 531:C:/Users/stapi/OneDrive/Desktop/GD32VW553/V1_MQTT_OK/GD32VW55X_Wifi_BLE_SDK/GD32VW55x_RELEASE_V1.0.2/MSDK/ble/app\app_list_mgr.c ****         memcpy(&p_ral_info->addr, &p_dev->bond_info.peer_irk.identity, sizeof(ble_gap_addr_t));
 1755              		.loc 1 531 17 is_stmt 0
 1756 004a 03450400 		lbu	a0,0(s0)
 1757 004e 97000000 		call	dm_find_dev_by_idx
 1757      E7800000 
 1758              	.LVL163:
 532:C:/Users/stapi/OneDrive/Desktop/GD32VW553/V1_MQTT_OK/GD32VW55X_Wifi_BLE_SDK/GD32VW55x_RELEASE_V1.0.2/MSDK/ble/app\app_list_mgr.c ****         p_ral_info->mode = p_array[i].mode;
 1759              		.loc 1 532 9
 1760 0056 93054505 		addi	a1,a0,84
 531:C:/Users/stapi/OneDrive/Desktop/GD32VW553/V1_MQTT_OK/GD32VW55X_Wifi_BLE_SDK/GD32VW55x_RELEASE_V1.0.2/MSDK/ble/app\app_list_mgr.c ****         memcpy(&p_ral_info->addr, &p_dev->bond_info.peer_irk.identity, sizeof(ble_gap_addr_t));
 1761              		.loc 1 531 17
 1762 005a 2A8A     		mv	s4,a0
 1763              	.LVL164:
 532:C:/Users/stapi/OneDrive/Desktop/GD32VW553/V1_MQTT_OK/GD32VW55X_Wifi_BLE_SDK/GD32VW55x_RELEASE_V1.0.2/MSDK/ble/app\app_list_mgr.c ****         p_ral_info->mode = p_array[i].mode;
 1764              		.loc 1 532 9 is_stmt 1
 1765 005c 1D46     		li	a2,7
 1766 005e 2685     		mv	a0,s1
 1767              	.LVL165:
 1768 0060 97000000 		call	memcpy
 1768      E7800000 
 1769              	.LVL166:
 533:C:/Users/stapi/OneDrive/Desktop/GD32VW553/V1_MQTT_OK/GD32VW55X_Wifi_BLE_SDK/GD32VW55x_RELEASE_V1.0.2/MSDK/ble/app\app_list_mgr.c ****         memcpy(p_ral_info->peer_irk, p_dev->bond_info.peer_irk.irk, BLE_GAP_KEY_LEN);
 1770              		.loc 1 533 9
 533:C:/Users/stapi/OneDrive/Desktop/GD32VW553/V1_MQTT_OK/GD32VW55X_Wifi_BLE_SDK/GD32VW55x_RELEASE_V1.0.2/MSDK/ble/app\app_list_mgr.c ****         memcpy(p_ral_info->peer_irk, p_dev->bond_info.peer_irk.irk, BLE_GAP_KEY_LEN);
 1771              		.loc 1 533 38 is_stmt 0
 1772 0068 83471400 		lbu	a5,1(s0)
 534:C:/Users/stapi/OneDrive/Desktop/GD32VW553/V1_MQTT_OK/GD32VW55X_Wifi_BLE_SDK/GD32VW55x_RELEASE_V1.0.2/MSDK/ble/app\app_list_mgr.c ****         ble_adp_loc_irk_get(p_ral_info->local_irk);
 1773              		.loc 1 534 9
 1774 006c 93054A04 		addi	a1,s4,68
 1775 0070 4146     		li	a2,16
 533:C:/Users/stapi/OneDrive/Desktop/GD32VW553/V1_MQTT_OK/GD32VW55X_Wifi_BLE_SDK/GD32VW55x_RELEASE_V1.0.2/MSDK/ble/app\app_list_mgr.c ****         memcpy(p_ral_info->peer_irk, p_dev->bond_info.peer_irk.irk, BLE_GAP_KEY_LEN);
 1776              		.loc 1 533 26
 1777 0072 A383F400 		sb	a5,7(s1)
 534:C:/Users/stapi/OneDrive/Desktop/GD32VW553/V1_MQTT_OK/GD32VW55X_Wifi_BLE_SDK/GD32VW55x_RELEASE_V1.0.2/MSDK/ble/app\app_list_mgr.c ****         ble_adp_loc_irk_get(p_ral_info->local_irk);
 1778              		.loc 1 534 9 is_stmt 1
 1779 0076 5685     		mv	a0,s5
 1780 0078 97000000 		call	memcpy
 1780      E7800000 
 1781              	.LVL167:
 535:C:/Users/stapi/OneDrive/Desktop/GD32VW553/V1_MQTT_OK/GD32VW55X_Wifi_BLE_SDK/GD32VW55x_RELEASE_V1.0.2/MSDK/ble/app\app_list_mgr.c **** 
 1782              		.loc 1 535 9
 1783 0080 5A85     		mv	a0,s6
 1784 0082 97000000 		call	ble_adp_loc_irk_get
 1784      E7800000 
 1785              	.LVL168:
 537:C:/Users/stapi/OneDrive/Desktop/GD32VW553/V1_MQTT_OK/GD32VW55X_Wifi_BLE_SDK/GD32VW55x_RELEASE_V1.0.2/MSDK/ble/app\app_list_mgr.c ****             dbg_print(NOTICE, "app_ral_add idx %u fail! \r\n", p_array[i].idx);
 1786              		.loc 1 537 9
 537:C:/Users/stapi/OneDrive/Desktop/GD32VW553/V1_MQTT_OK/GD32VW55X_Wifi_BLE_SDK/GD32VW55x_RELEASE_V1.0.2/MSDK/ble/app\app_list_mgr.c ****             dbg_print(NOTICE, "app_ral_add idx %u fail! \r\n", p_array[i].idx);
 1787              		.loc 1 537 13 is_stmt 0
 1788 008a 8545     		li	a1,1
 1789 008c 2685     		mv	a0,s1
 1790 008e 97000000 		call	ble_ral_op
 1790      E7800000 
 1791              	.LVL169:
 537:C:/Users/stapi/OneDrive/Desktop/GD32VW553/V1_MQTT_OK/GD32VW55X_Wifi_BLE_SDK/GD32VW55x_RELEASE_V1.0.2/MSDK/ble/app\app_list_mgr.c ****             dbg_print(NOTICE, "app_ral_add idx %u fail! \r\n", p_array[i].idx);
 1792              		.loc 1 537 12
 1793 0096 09CD     		beq	a0,zero,.L234
 1794              		.loc 1 538 13 is_stmt 1
 1795              		.loc 1 538 13
 1796 0098 83C70B00 		lbu	a5,%lo(global_debug_level)(s7)
 1797 009c 637AFC00 		bleu	a5,s8,.L234
 1798              		.loc 1 538 13 discriminator 1
 1799 00a0 83450400 		lbu	a1,0(s0)
 1800 00a4 13850C00 		addi	a0,s9,%lo(.LC13)
 1801 00a8 97000000 		call	co_printf
 1801      E7800000 
 1802              	.LVL170:
 1803              	.L234:
 1804              		.loc 1 538 13 discriminator 3
 530:C:/Users/stapi/OneDrive/Desktop/GD32VW553/V1_MQTT_OK/GD32VW55X_Wifi_BLE_SDK/GD32VW55x_RELEASE_V1.0.2/MSDK/ble/app\app_list_mgr.c ****         p_dev = dm_find_dev_by_idx(p_array[i].idx);
 1805              		.loc 1 530 26 discriminator 3
 530:C:/Users/stapi/OneDrive/Desktop/GD32VW553/V1_MQTT_OK/GD32VW55X_Wifi_BLE_SDK/GD32VW55x_RELEASE_V1.0.2/MSDK/ble/app\app_list_mgr.c ****         p_dev = dm_find_dev_by_idx(p_array[i].idx);
 1806              		.loc 1 530 27 is_stmt 0 discriminator 3
 1807 00b0 0509     		addi	s2,s2,1
 1808              	.LVL171:
 1809 00b2 1379F90F 		andi	s2,s2,0xff
 1810              	.LVL172:
 530:C:/Users/stapi/OneDrive/Desktop/GD32VW553/V1_MQTT_OK/GD32VW55X_Wifi_BLE_SDK/GD32VW55x_RELEASE_V1.0.2/MSDK/ble/app\app_list_mgr.c ****         p_dev = dm_find_dev_by_idx(p_array[i].idx);
 1811              		.loc 1 530 17 is_stmt 1 discriminator 3
 530:C:/Users/stapi/OneDrive/Desktop/GD32VW553/V1_MQTT_OK/GD32VW55X_Wifi_BLE_SDK/GD32VW55x_RELEASE_V1.0.2/MSDK/ble/app\app_list_mgr.c ****         p_dev = dm_find_dev_by_idx(p_array[i].idx);
 1812              		.loc 1 530 5 is_stmt 0 discriminator 3
 1813 00b6 0904     		addi	s0,s0,2
 1814 00b8 E39929F9 		bne	s3,s2,.L235
 539:C:/Users/stapi/OneDrive/Desktop/GD32VW553/V1_MQTT_OK/GD32VW55X_Wifi_BLE_SDK/GD32VW55x_RELEASE_V1.0.2/MSDK/ble/app\app_list_mgr.c ****         }
 540:C:/Users/stapi/OneDrive/Desktop/GD32VW553/V1_MQTT_OK/GD32VW55X_Wifi_BLE_SDK/GD32VW55x_RELEASE_V1.0.2/MSDK/ble/app\app_list_mgr.c ****     }
 541:C:/Users/stapi/OneDrive/Desktop/GD32VW553/V1_MQTT_OK/GD32VW55X_Wifi_BLE_SDK/GD32VW55x_RELEASE_V1.0.2/MSDK/ble/app\app_list_mgr.c **** 
 542:C:/Users/stapi/OneDrive/Desktop/GD32VW553/V1_MQTT_OK/GD32VW55X_Wifi_BLE_SDK/GD32VW55x_RELEASE_V1.0.2/MSDK/ble/app\app_list_mgr.c ****     sys_mfree(p_ral_info);
 1815              		.loc 1 542 5 is_stmt 1
 1816 00bc 2685     		mv	a0,s1
 1817 00be 97000000 		call	sys_mfree
 1817      E7800000 
 1818              	.LVL173:
 1819              	.L230:
 543:C:/Users/stapi/OneDrive/Desktop/GD32VW553/V1_MQTT_OK/GD32VW55X_Wifi_BLE_SDK/GD32VW55x_RELEASE_V1.0.2/MSDK/ble/app\app_list_mgr.c **** }
 1820              		.loc 1 543 1 is_stmt 0
 1821 00c6 4101     		addi	sp,sp,16
 1822              		.cfi_def_cfa_offset 0
 1823 00c8 17030000 		tail	__riscv_restore_10
 1823      67000300 
 1824              		.cfi_restore 25
 1825              		.cfi_restore 24
 1826              		.cfi_restore 23
 1827              		.cfi_restore 22
 1828              		.cfi_restore 21
 1829              		.cfi_restore 20
 1830              		.cfi_restore 19
 1831              		.cfi_restore 18
 1832              		.cfi_restore 9
 1833              		.cfi_restore 8
 1834              		.cfi_restore 1
 1835              		.cfi_def_cfa_offset -48
 1836              	.LVL174:
 1837              	.L247:
 1838              		.cfi_def_cfa_offset 0
 1839 00d0 8280     		ret
 1840              		.cfi_endproc
 1841              	.LFE14:
 1843              		.section	.rodata.app_ral_rmv.str1.4,"aMS",@progbits,1
 1844              		.align	2
 1845              	.LC14:
 1846 0000 6170705F 		.string	"app_ral_rmv idx %u fail! \r\n"
 1846      72616C5F 
 1846      726D7620 
 1846      69647820 
 1846      25752066 
 1847              		.section	.text.app_ral_rmv,"ax",@progbits
 1848              		.align	1
 1849              		.globl	app_ral_rmv
 1851              	app_ral_rmv:
 1852              	.LFB15:
 544:C:/Users/stapi/OneDrive/Desktop/GD32VW553/V1_MQTT_OK/GD32VW55X_Wifi_BLE_SDK/GD32VW55x_RELEASE_V1.0.2/MSDK/ble/app\app_list_mgr.c **** 
 545:C:/Users/stapi/OneDrive/Desktop/GD32VW553/V1_MQTT_OK/GD32VW55X_Wifi_BLE_SDK/GD32VW55x_RELEASE_V1.0.2/MSDK/ble/app\app_list_mgr.c **** /*!
 546:C:/Users/stapi/OneDrive/Desktop/GD32VW553/V1_MQTT_OK/GD32VW55X_Wifi_BLE_SDK/GD32VW55x_RELEASE_V1.0.2/MSDK/ble/app\app_list_mgr.c ****     \brief      Remove device from resolving list
 547:C:/Users/stapi/OneDrive/Desktop/GD32VW553/V1_MQTT_OK/GD32VW55X_Wifi_BLE_SDK/GD32VW55x_RELEASE_V1.0.2/MSDK/ble/app\app_list_mgr.c ****     \param[in]  num: number of provided device index
 548:C:/Users/stapi/OneDrive/Desktop/GD32VW553/V1_MQTT_OK/GD32VW55X_Wifi_BLE_SDK/GD32VW55x_RELEASE_V1.0.2/MSDK/ble/app\app_list_mgr.c ****     \param[in]  p_array: pointer to array of device index used to remove from resolving list
 549:C:/Users/stapi/OneDrive/Desktop/GD32VW553/V1_MQTT_OK/GD32VW55X_Wifi_BLE_SDK/GD32VW55x_RELEASE_V1.0.2/MSDK/ble/app\app_list_mgr.c ****     \param[out] none
 550:C:/Users/stapi/OneDrive/Desktop/GD32VW553/V1_MQTT_OK/GD32VW55X_Wifi_BLE_SDK/GD32VW55x_RELEASE_V1.0.2/MSDK/ble/app\app_list_mgr.c ****     \retval     none
 551:C:/Users/stapi/OneDrive/Desktop/GD32VW553/V1_MQTT_OK/GD32VW55X_Wifi_BLE_SDK/GD32VW55x_RELEASE_V1.0.2/MSDK/ble/app\app_list_mgr.c **** */
 552:C:/Users/stapi/OneDrive/Desktop/GD32VW553/V1_MQTT_OK/GD32VW55X_Wifi_BLE_SDK/GD32VW55x_RELEASE_V1.0.2/MSDK/ble/app\app_list_mgr.c **** void app_ral_rmv(uint8_t num, ral_info_t *p_array)
 553:C:/Users/stapi/OneDrive/Desktop/GD32VW553/V1_MQTT_OK/GD32VW55X_Wifi_BLE_SDK/GD32VW55x_RELEASE_V1.0.2/MSDK/ble/app\app_list_mgr.c **** {
 1853              		.loc 1 553 1 is_stmt 1
 1854              		.cfi_startproc
 1855              	.LVL175:
 554:C:/Users/stapi/OneDrive/Desktop/GD32VW553/V1_MQTT_OK/GD32VW55X_Wifi_BLE_SDK/GD32VW55x_RELEASE_V1.0.2/MSDK/ble/app\app_list_mgr.c ****     ble_gap_ral_info_t *p_ral_info;
 1856              		.loc 1 554 5
 555:C:/Users/stapi/OneDrive/Desktop/GD32VW553/V1_MQTT_OK/GD32VW55X_Wifi_BLE_SDK/GD32VW55x_RELEASE_V1.0.2/MSDK/ble/app\app_list_mgr.c ****     ble_device_t *p_dev;
 1857              		.loc 1 555 5
 556:C:/Users/stapi/OneDrive/Desktop/GD32VW553/V1_MQTT_OK/GD32VW55X_Wifi_BLE_SDK/GD32VW55x_RELEASE_V1.0.2/MSDK/ble/app\app_list_mgr.c ****     uint8_t i;
 1858              		.loc 1 556 5
 557:C:/Users/stapi/OneDrive/Desktop/GD32VW553/V1_MQTT_OK/GD32VW55X_Wifi_BLE_SDK/GD32VW55x_RELEASE_V1.0.2/MSDK/ble/app\app_list_mgr.c **** 
 558:C:/Users/stapi/OneDrive/Desktop/GD32VW553/V1_MQTT_OK/GD32VW55X_Wifi_BLE_SDK/GD32VW55x_RELEASE_V1.0.2/MSDK/ble/app\app_list_mgr.c ****     if (num == 0 || p_array == NULL) {
 1859              		.loc 1 558 5
 1860              		.loc 1 558 8 is_stmt 0
 1861 0000 55C1     		beq	a0,zero,.L267
 553:C:/Users/stapi/OneDrive/Desktop/GD32VW553/V1_MQTT_OK/GD32VW55X_Wifi_BLE_SDK/GD32VW55x_RELEASE_V1.0.2/MSDK/ble/app\app_list_mgr.c ****     ble_gap_ral_info_t *p_ral_info;
 1862              		.loc 1 553 1 discriminator 1
 1863 0002 17030000 		call	t0,__riscv_save_7
 1863      E7020300 
 1864              		.cfi_offset 22, -32
 1865              		.cfi_offset 21, -28
 1866              		.cfi_offset 20, -24
 1867              		.cfi_offset 19, -20
 1868              		.cfi_offset 18, -16
 1869              		.cfi_offset 9, -12
 1870              		.cfi_offset 8, -8
 1871              		.cfi_offset 1, -4
 1872              		.cfi_def_cfa_offset 32
 1873 000a 4111     		addi	sp,sp,-16
 1874              		.cfi_def_cfa_offset 48
 1875 000c 2E84     		mv	s0,a1
 1876              		.loc 1 558 18 discriminator 1
 1877 000e D1C5     		beq	a1,zero,.L250
 559:C:/Users/stapi/OneDrive/Desktop/GD32VW553/V1_MQTT_OK/GD32VW55X_Wifi_BLE_SDK/GD32VW55x_RELEASE_V1.0.2/MSDK/ble/app\app_list_mgr.c ****         return;
 560:C:/Users/stapi/OneDrive/Desktop/GD32VW553/V1_MQTT_OK/GD32VW55X_Wifi_BLE_SDK/GD32VW55x_RELEASE_V1.0.2/MSDK/ble/app\app_list_mgr.c ****     }
 561:C:/Users/stapi/OneDrive/Desktop/GD32VW553/V1_MQTT_OK/GD32VW55X_Wifi_BLE_SDK/GD32VW55x_RELEASE_V1.0.2/MSDK/ble/app\app_list_mgr.c **** 
 562:C:/Users/stapi/OneDrive/Desktop/GD32VW553/V1_MQTT_OK/GD32VW55X_Wifi_BLE_SDK/GD32VW55x_RELEASE_V1.0.2/MSDK/ble/app\app_list_mgr.c ****     p_ral_info = (ble_gap_ral_info_t *)sys_malloc(num * sizeof(ble_gap_ral_info_t));
 1878              		.loc 1 562 40
 1879 0010 13068002 		li	a2,40
 1880 0014 3306C502 		mul	a2,a0,a2
 1881 0018 AA89     		mv	s3,a0
 1882              		.loc 1 562 5 is_stmt 1
 1883              		.loc 1 562 40 is_stmt 0
 1884 001a 3285     		mv	a0,a2
 1885              	.LVL176:
 1886 001c 32C6     		sw	a2,12(sp)
 1887 001e 97000000 		call	sys_malloc
 1887      E7800000 
 1888              	.LVL177:
 1889 0026 AA84     		mv	s1,a0
 1890              	.LVL178:
 563:C:/Users/stapi/OneDrive/Desktop/GD32VW553/V1_MQTT_OK/GD32VW55X_Wifi_BLE_SDK/GD32VW55x_RELEASE_V1.0.2/MSDK/ble/app\app_list_mgr.c **** 
 564:C:/Users/stapi/OneDrive/Desktop/GD32VW553/V1_MQTT_OK/GD32VW55X_Wifi_BLE_SDK/GD32VW55x_RELEASE_V1.0.2/MSDK/ble/app\app_list_mgr.c ****     if (p_ral_info == NULL) {
 1891              		.loc 1 564 5 is_stmt 1
 1892              		.loc 1 564 8 is_stmt 0
 1893 0028 2DC9     		beq	a0,zero,.L250
 565:C:/Users/stapi/OneDrive/Desktop/GD32VW553/V1_MQTT_OK/GD32VW55X_Wifi_BLE_SDK/GD32VW55x_RELEASE_V1.0.2/MSDK/ble/app\app_list_mgr.c ****         return;
 566:C:/Users/stapi/OneDrive/Desktop/GD32VW553/V1_MQTT_OK/GD32VW55X_Wifi_BLE_SDK/GD32VW55x_RELEASE_V1.0.2/MSDK/ble/app\app_list_mgr.c ****     }
 567:C:/Users/stapi/OneDrive/Desktop/GD32VW553/V1_MQTT_OK/GD32VW55X_Wifi_BLE_SDK/GD32VW55x_RELEASE_V1.0.2/MSDK/ble/app\app_list_mgr.c ****     memset(p_ral_info, 0, num * sizeof(ble_gap_ral_info_t));
 1894              		.loc 1 567 5 is_stmt 1
 1895 002a 3246     		lw	a2,12(sp)
 1896 002c 8145     		li	a1,0
 568:C:/Users/stapi/OneDrive/Desktop/GD32VW553/V1_MQTT_OK/GD32VW55X_Wifi_BLE_SDK/GD32VW55x_RELEASE_V1.0.2/MSDK/ble/app\app_list_mgr.c **** 
 569:C:/Users/stapi/OneDrive/Desktop/GD32VW553/V1_MQTT_OK/GD32VW55X_Wifi_BLE_SDK/GD32VW55x_RELEASE_V1.0.2/MSDK/ble/app\app_list_mgr.c ****     for (i = 0; i < num; i++) {
 1897              		.loc 1 569 12 is_stmt 0
 1898 002e 0149     		li	s2,0
 567:C:/Users/stapi/OneDrive/Desktop/GD32VW553/V1_MQTT_OK/GD32VW55X_Wifi_BLE_SDK/GD32VW55x_RELEASE_V1.0.2/MSDK/ble/app\app_list_mgr.c **** 
 1899              		.loc 1 567 5
 1900 0030 97000000 		call	memset
 1900      E7800000 
 1901              	.LVL179:
 1902              		.loc 1 569 5 is_stmt 1
 1903              		.loc 1 569 17
 570:C:/Users/stapi/OneDrive/Desktop/GD32VW553/V1_MQTT_OK/GD32VW55X_Wifi_BLE_SDK/GD32VW55x_RELEASE_V1.0.2/MSDK/ble/app\app_list_mgr.c ****         p_dev = dm_find_dev_by_idx(p_array[i].idx);
 571:C:/Users/stapi/OneDrive/Desktop/GD32VW553/V1_MQTT_OK/GD32VW55X_Wifi_BLE_SDK/GD32VW55x_RELEASE_V1.0.2/MSDK/ble/app\app_list_mgr.c ****         memcpy(&p_ral_info->addr, &p_dev->bond_info.peer_irk.identity, sizeof(ble_gap_addr_t));
 572:C:/Users/stapi/OneDrive/Desktop/GD32VW553/V1_MQTT_OK/GD32VW55X_Wifi_BLE_SDK/GD32VW55x_RELEASE_V1.0.2/MSDK/ble/app\app_list_mgr.c **** 
 573:C:/Users/stapi/OneDrive/Desktop/GD32VW553/V1_MQTT_OK/GD32VW55X_Wifi_BLE_SDK/GD32VW55x_RELEASE_V1.0.2/MSDK/ble/app\app_list_mgr.c ****         if (ble_ral_op(p_ral_info, false) != BLE_ERR_NO_ERROR) {
 574:C:/Users/stapi/OneDrive/Desktop/GD32VW553/V1_MQTT_OK/GD32VW55X_Wifi_BLE_SDK/GD32VW55x_RELEASE_V1.0.2/MSDK/ble/app\app_list_mgr.c ****             dbg_print(NOTICE, "app_ral_rmv idx %u fail! \r\n", p_array[i].idx);
 1904              		.loc 1 574 13 is_stmt 0
 1905 0038 370A0000 		lui	s4,%hi(global_debug_level)
 1906 003c 894A     		li	s5,2
 1907 003e 370B0000 		lui	s6,%hi(.LC14)
 1908              	.LVL180:
 1909              	.L255:
 570:C:/Users/stapi/OneDrive/Desktop/GD32VW553/V1_MQTT_OK/GD32VW55X_Wifi_BLE_SDK/GD32VW55x_RELEASE_V1.0.2/MSDK/ble/app\app_list_mgr.c ****         p_dev = dm_find_dev_by_idx(p_array[i].idx);
 1910              		.loc 1 570 9 is_stmt 1
 570:C:/Users/stapi/OneDrive/Desktop/GD32VW553/V1_MQTT_OK/GD32VW55X_Wifi_BLE_SDK/GD32VW55x_RELEASE_V1.0.2/MSDK/ble/app\app_list_mgr.c ****         p_dev = dm_find_dev_by_idx(p_array[i].idx);
 1911              		.loc 1 570 17 is_stmt 0
 1912 0042 03450400 		lbu	a0,0(s0)
 1913 0046 97000000 		call	dm_find_dev_by_idx
 1913      E7800000 
 1914              	.LVL181:
 571:C:/Users/stapi/OneDrive/Desktop/GD32VW553/V1_MQTT_OK/GD32VW55X_Wifi_BLE_SDK/GD32VW55x_RELEASE_V1.0.2/MSDK/ble/app\app_list_mgr.c **** 
 1915              		.loc 1 571 9 is_stmt 1
 1916 004e 93054505 		addi	a1,a0,84
 1917 0052 1D46     		li	a2,7
 1918 0054 2685     		mv	a0,s1
 1919              	.LVL182:
 1920 0056 97000000 		call	memcpy
 1920      E7800000 
 1921              	.LVL183:
 573:C:/Users/stapi/OneDrive/Desktop/GD32VW553/V1_MQTT_OK/GD32VW55X_Wifi_BLE_SDK/GD32VW55x_RELEASE_V1.0.2/MSDK/ble/app\app_list_mgr.c ****             dbg_print(NOTICE, "app_ral_rmv idx %u fail! \r\n", p_array[i].idx);
 1922              		.loc 1 573 9
 573:C:/Users/stapi/OneDrive/Desktop/GD32VW553/V1_MQTT_OK/GD32VW55X_Wifi_BLE_SDK/GD32VW55x_RELEASE_V1.0.2/MSDK/ble/app\app_list_mgr.c ****             dbg_print(NOTICE, "app_ral_rmv idx %u fail! \r\n", p_array[i].idx);
 1923              		.loc 1 573 13 is_stmt 0
 1924 005e 8145     		li	a1,0
 1925 0060 2685     		mv	a0,s1
 1926 0062 97000000 		call	ble_ral_op
 1926      E7800000 
 1927              	.LVL184:
 573:C:/Users/stapi/OneDrive/Desktop/GD32VW553/V1_MQTT_OK/GD32VW55X_Wifi_BLE_SDK/GD32VW55x_RELEASE_V1.0.2/MSDK/ble/app\app_list_mgr.c ****             dbg_print(NOTICE, "app_ral_rmv idx %u fail! \r\n", p_array[i].idx);
 1928              		.loc 1 573 12
 1929 006a 09CD     		beq	a0,zero,.L254
 1930              		.loc 1 574 13 is_stmt 1
 1931              		.loc 1 574 13
 1932 006c 83470A00 		lbu	a5,%lo(global_debug_level)(s4)
 1933 0070 63FAFA00 		bleu	a5,s5,.L254
 1934              		.loc 1 574 13 discriminator 1
 1935 0074 83450400 		lbu	a1,0(s0)
 1936 0078 13050B00 		addi	a0,s6,%lo(.LC14)
 1937 007c 97000000 		call	co_printf
 1937      E7800000 
 1938              	.LVL185:
 1939              	.L254:
 1940              		.loc 1 574 13 discriminator 3
 569:C:/Users/stapi/OneDrive/Desktop/GD32VW553/V1_MQTT_OK/GD32VW55X_Wifi_BLE_SDK/GD32VW55x_RELEASE_V1.0.2/MSDK/ble/app\app_list_mgr.c ****         p_dev = dm_find_dev_by_idx(p_array[i].idx);
 1941              		.loc 1 569 26 discriminator 3
 569:C:/Users/stapi/OneDrive/Desktop/GD32VW553/V1_MQTT_OK/GD32VW55X_Wifi_BLE_SDK/GD32VW55x_RELEASE_V1.0.2/MSDK/ble/app\app_list_mgr.c ****         p_dev = dm_find_dev_by_idx(p_array[i].idx);
 1942              		.loc 1 569 27 is_stmt 0 discriminator 3
 1943 0084 0509     		addi	s2,s2,1
 1944              	.LVL186:
 1945 0086 1379F90F 		andi	s2,s2,0xff
 1946              	.LVL187:
 569:C:/Users/stapi/OneDrive/Desktop/GD32VW553/V1_MQTT_OK/GD32VW55X_Wifi_BLE_SDK/GD32VW55x_RELEASE_V1.0.2/MSDK/ble/app\app_list_mgr.c ****         p_dev = dm_find_dev_by_idx(p_array[i].idx);
 1947              		.loc 1 569 17 is_stmt 1 discriminator 3
 569:C:/Users/stapi/OneDrive/Desktop/GD32VW553/V1_MQTT_OK/GD32VW55X_Wifi_BLE_SDK/GD32VW55x_RELEASE_V1.0.2/MSDK/ble/app\app_list_mgr.c ****         p_dev = dm_find_dev_by_idx(p_array[i].idx);
 1948              		.loc 1 569 5 is_stmt 0 discriminator 3
 1949 008a 0904     		addi	s0,s0,2
 1950 008c E39B29FB 		bne	s3,s2,.L255
 575:C:/Users/stapi/OneDrive/Desktop/GD32VW553/V1_MQTT_OK/GD32VW55X_Wifi_BLE_SDK/GD32VW55x_RELEASE_V1.0.2/MSDK/ble/app\app_list_mgr.c ****         }
 576:C:/Users/stapi/OneDrive/Desktop/GD32VW553/V1_MQTT_OK/GD32VW55X_Wifi_BLE_SDK/GD32VW55x_RELEASE_V1.0.2/MSDK/ble/app\app_list_mgr.c ****     }
 577:C:/Users/stapi/OneDrive/Desktop/GD32VW553/V1_MQTT_OK/GD32VW55X_Wifi_BLE_SDK/GD32VW55x_RELEASE_V1.0.2/MSDK/ble/app\app_list_mgr.c **** 
 578:C:/Users/stapi/OneDrive/Desktop/GD32VW553/V1_MQTT_OK/GD32VW55X_Wifi_BLE_SDK/GD32VW55x_RELEASE_V1.0.2/MSDK/ble/app\app_list_mgr.c ****     sys_mfree(p_ral_info);
 1951              		.loc 1 578 5 is_stmt 1
 1952 0090 2685     		mv	a0,s1
 1953 0092 97000000 		call	sys_mfree
 1953      E7800000 
 1954              	.LVL188:
 1955              	.L250:
 579:C:/Users/stapi/OneDrive/Desktop/GD32VW553/V1_MQTT_OK/GD32VW55X_Wifi_BLE_SDK/GD32VW55x_RELEASE_V1.0.2/MSDK/ble/app\app_list_mgr.c **** }
 1956              		.loc 1 579 1 is_stmt 0
 1957 009a 4101     		addi	sp,sp,16
 1958              		.cfi_def_cfa_offset 0
 1959 009c 17030000 		tail	__riscv_restore_7
 1959      67000300 
 1960              		.cfi_restore 22
 1961              		.cfi_restore 21
 1962              		.cfi_restore 20
 1963              		.cfi_restore 19
 1964              		.cfi_restore 18
 1965              		.cfi_restore 9
 1966              		.cfi_restore 8
 1967              		.cfi_restore 1
 1968              		.cfi_def_cfa_offset -32
 1969              	.LVL189:
 1970              	.L267:
 1971              		.cfi_def_cfa_offset 0
 1972 00a4 8280     		ret
 1973              		.cfi_endproc
 1974              	.LFE15:
 1976              		.section	.rodata.app_ral_clear.str1.4,"aMS",@progbits,1
 1977              		.align	2
 1978              	.LC15:
 1979 0000 6170705F 		.string	"app_ral_clear fail! \r\n"
 1979      72616C5F 
 1979      636C6561 
 1979      72206661 
 1979      696C2120 
 1980              		.section	.text.app_ral_clear,"ax",@progbits
 1981              		.align	1
 1982              		.globl	app_ral_clear
 1984              	app_ral_clear:
 1985              	.LFB16:
 580:C:/Users/stapi/OneDrive/Desktop/GD32VW553/V1_MQTT_OK/GD32VW55X_Wifi_BLE_SDK/GD32VW55x_RELEASE_V1.0.2/MSDK/ble/app\app_list_mgr.c **** 
 581:C:/Users/stapi/OneDrive/Desktop/GD32VW553/V1_MQTT_OK/GD32VW55X_Wifi_BLE_SDK/GD32VW55x_RELEASE_V1.0.2/MSDK/ble/app\app_list_mgr.c **** /*!
 582:C:/Users/stapi/OneDrive/Desktop/GD32VW553/V1_MQTT_OK/GD32VW55X_Wifi_BLE_SDK/GD32VW55x_RELEASE_V1.0.2/MSDK/ble/app\app_list_mgr.c ****     \brief      Clear resolving list
 583:C:/Users/stapi/OneDrive/Desktop/GD32VW553/V1_MQTT_OK/GD32VW55X_Wifi_BLE_SDK/GD32VW55x_RELEASE_V1.0.2/MSDK/ble/app\app_list_mgr.c ****     \param[in]  none
 584:C:/Users/stapi/OneDrive/Desktop/GD32VW553/V1_MQTT_OK/GD32VW55X_Wifi_BLE_SDK/GD32VW55x_RELEASE_V1.0.2/MSDK/ble/app\app_list_mgr.c ****     \param[out] none
 585:C:/Users/stapi/OneDrive/Desktop/GD32VW553/V1_MQTT_OK/GD32VW55X_Wifi_BLE_SDK/GD32VW55x_RELEASE_V1.0.2/MSDK/ble/app\app_list_mgr.c ****     \retval     none
 586:C:/Users/stapi/OneDrive/Desktop/GD32VW553/V1_MQTT_OK/GD32VW55X_Wifi_BLE_SDK/GD32VW55x_RELEASE_V1.0.2/MSDK/ble/app\app_list_mgr.c **** */
 587:C:/Users/stapi/OneDrive/Desktop/GD32VW553/V1_MQTT_OK/GD32VW55X_Wifi_BLE_SDK/GD32VW55x_RELEASE_V1.0.2/MSDK/ble/app\app_list_mgr.c **** void app_ral_clear(void)
 588:C:/Users/stapi/OneDrive/Desktop/GD32VW553/V1_MQTT_OK/GD32VW55X_Wifi_BLE_SDK/GD32VW55x_RELEASE_V1.0.2/MSDK/ble/app\app_list_mgr.c **** {
 1986              		.loc 1 588 1 is_stmt 1
 1987              		.cfi_startproc
 1988 0000 17030000 		call	t0,__riscv_save_0
 1988      E7020300 
 1989              		.cfi_offset 1, -4
 1990              		.cfi_def_cfa_offset 16
 589:C:/Users/stapi/OneDrive/Desktop/GD32VW553/V1_MQTT_OK/GD32VW55X_Wifi_BLE_SDK/GD32VW55x_RELEASE_V1.0.2/MSDK/ble/app\app_list_mgr.c ****     // FIX TODO we need to suspend/resume scan/adv/init
 590:C:/Users/stapi/OneDrive/Desktop/GD32VW553/V1_MQTT_OK/GD32VW55X_Wifi_BLE_SDK/GD32VW55x_RELEASE_V1.0.2/MSDK/ble/app\app_list_mgr.c **** 
 591:C:/Users/stapi/OneDrive/Desktop/GD32VW553/V1_MQTT_OK/GD32VW55X_Wifi_BLE_SDK/GD32VW55x_RELEASE_V1.0.2/MSDK/ble/app\app_list_mgr.c ****     if (ble_ral_clear() != BLE_ERR_NO_ERROR) {
 1991              		.loc 1 591 5
 1992              		.loc 1 591 9 is_stmt 0
 1993 0008 97000000 		call	ble_ral_clear
 1993      E7800000 
 1994              	.LVL190:
 1995              		.loc 1 591 8
 1996 0010 05C1     		beq	a0,zero,.L270
 592:C:/Users/stapi/OneDrive/Desktop/GD32VW553/V1_MQTT_OK/GD32VW55X_Wifi_BLE_SDK/GD32VW55x_RELEASE_V1.0.2/MSDK/ble/app\app_list_mgr.c ****         dbg_print(NOTICE, "app_ral_clear fail! \r\n");
 1997              		.loc 1 592 9 is_stmt 1
 1998              		.loc 1 592 9
 1999 0012 B7070000 		lui	a5,%hi(global_debug_level)
 2000 0016 03C70700 		lbu	a4,%lo(global_debug_level)(a5)
 2001 001a 8947     		li	a5,2
 2002 001c 63FAE700 		bleu	a4,a5,.L270
 2003              		.loc 1 592 9 discriminator 1
 2004 0020 37050000 		lui	a0,%hi(.LC15)
 2005 0024 13050500 		addi	a0,a0,%lo(.LC15)
 2006 0028 97000000 		call	co_printf
 2006      E7800000 
 2007              	.LVL191:
 2008              		.loc 1 592 9 discriminator 1
 2009              	.L270:
 593:C:/Users/stapi/OneDrive/Desktop/GD32VW553/V1_MQTT_OK/GD32VW55X_Wifi_BLE_SDK/GD32VW55x_RELEASE_V1.0.2/MSDK/ble/app\app_list_mgr.c ****     }
 594:C:/Users/stapi/OneDrive/Desktop/GD32VW553/V1_MQTT_OK/GD32VW55X_Wifi_BLE_SDK/GD32VW55x_RELEASE_V1.0.2/MSDK/ble/app\app_list_mgr.c **** }
 2010              		.loc 1 594 1 is_stmt 0
 2011 0030 17030000 		tail	__riscv_restore_0
 2011      67000300 
 2012              		.cfi_restore 1
 2013              		.cfi_def_cfa_offset 0
 2014              		.cfi_endproc
 2015              	.LFE16:
 2017              		.section	.text.app_list_mgr_init,"ax",@progbits
 2018              		.align	1
 2019              		.globl	app_list_mgr_init
 2021              	app_list_mgr_init:
 2022              	.LFB17:
 595:C:/Users/stapi/OneDrive/Desktop/GD32VW553/V1_MQTT_OK/GD32VW55X_Wifi_BLE_SDK/GD32VW55x_RELEASE_V1.0.2/MSDK/ble/app\app_list_mgr.c **** 
 596:C:/Users/stapi/OneDrive/Desktop/GD32VW553/V1_MQTT_OK/GD32VW55X_Wifi_BLE_SDK/GD32VW55x_RELEASE_V1.0.2/MSDK/ble/app\app_list_mgr.c **** /*!
 597:C:/Users/stapi/OneDrive/Desktop/GD32VW553/V1_MQTT_OK/GD32VW55X_Wifi_BLE_SDK/GD32VW55x_RELEASE_V1.0.2/MSDK/ble/app\app_list_mgr.c ****     \brief      Init application list manager
 598:C:/Users/stapi/OneDrive/Desktop/GD32VW553/V1_MQTT_OK/GD32VW55X_Wifi_BLE_SDK/GD32VW55x_RELEASE_V1.0.2/MSDK/ble/app\app_list_mgr.c ****     \param[in]  none
 599:C:/Users/stapi/OneDrive/Desktop/GD32VW553/V1_MQTT_OK/GD32VW55X_Wifi_BLE_SDK/GD32VW55x_RELEASE_V1.0.2/MSDK/ble/app\app_list_mgr.c ****     \param[out] none
 600:C:/Users/stapi/OneDrive/Desktop/GD32VW553/V1_MQTT_OK/GD32VW55X_Wifi_BLE_SDK/GD32VW55x_RELEASE_V1.0.2/MSDK/ble/app\app_list_mgr.c ****     \retval     none
 601:C:/Users/stapi/OneDrive/Desktop/GD32VW553/V1_MQTT_OK/GD32VW55X_Wifi_BLE_SDK/GD32VW55x_RELEASE_V1.0.2/MSDK/ble/app\app_list_mgr.c **** */
 602:C:/Users/stapi/OneDrive/Desktop/GD32VW553/V1_MQTT_OK/GD32VW55X_Wifi_BLE_SDK/GD32VW55x_RELEASE_V1.0.2/MSDK/ble/app\app_list_mgr.c **** void app_list_mgr_init(void)
 603:C:/Users/stapi/OneDrive/Desktop/GD32VW553/V1_MQTT_OK/GD32VW55X_Wifi_BLE_SDK/GD32VW55x_RELEASE_V1.0.2/MSDK/ble/app\app_list_mgr.c **** {
 2023              		.loc 1 603 1 is_stmt 1
 2024              		.cfi_startproc
 2025 0000 17030000 		call	t0,__riscv_save_0
 2025      E7020300 
 2026              		.cfi_offset 1, -4
 2027              		.cfi_def_cfa_offset 16
 604:C:/Users/stapi/OneDrive/Desktop/GD32VW553/V1_MQTT_OK/GD32VW55X_Wifi_BLE_SDK/GD32VW55x_RELEASE_V1.0.2/MSDK/ble/app\app_list_mgr.c ****     ble_list_init();
 2028              		.loc 1 604 5
 2029 0008 97000000 		call	ble_list_init
 2029      E7800000 
 2030              	.LVL192:
 605:C:/Users/stapi/OneDrive/Desktop/GD32VW553/V1_MQTT_OK/GD32VW55X_Wifi_BLE_SDK/GD32VW55x_RELEASE_V1.0.2/MSDK/ble/app\app_list_mgr.c ****     ble_list_callback_register(ble_app_list_evt_handler);
 2031              		.loc 1 605 5
 2032 0010 37050000 		lui	a0,%hi(ble_app_list_evt_handler)
 2033 0014 13050500 		addi	a0,a0,%lo(ble_app_list_evt_handler)
 2034 0018 97000000 		call	ble_list_callback_register
 2034      E7800000 
 2035              	.LVL193:
 606:C:/Users/stapi/OneDrive/Desktop/GD32VW553/V1_MQTT_OK/GD32VW55X_Wifi_BLE_SDK/GD32VW55x_RELEASE_V1.0.2/MSDK/ble/app\app_list_mgr.c **** }
 2036              		.loc 1 606 1 is_stmt 0
 2037 0020 17030000 		tail	__riscv_restore_0
 2037      67000300 
 2038              		.cfi_restore 1
 2039              		.cfi_def_cfa_offset 0
 2040              		.cfi_endproc
 2041              	.LFE17:
 2043              		.section	.text.app_list_mgr_reset,"ax",@progbits
 2044              		.align	1
 2045              		.globl	app_list_mgr_reset
 2047              	app_list_mgr_reset:
 2048              	.LFB18:
 607:C:/Users/stapi/OneDrive/Desktop/GD32VW553/V1_MQTT_OK/GD32VW55X_Wifi_BLE_SDK/GD32VW55x_RELEASE_V1.0.2/MSDK/ble/app\app_list_mgr.c **** 
 608:C:/Users/stapi/OneDrive/Desktop/GD32VW553/V1_MQTT_OK/GD32VW55X_Wifi_BLE_SDK/GD32VW55x_RELEASE_V1.0.2/MSDK/ble/app\app_list_mgr.c **** /*!
 609:C:/Users/stapi/OneDrive/Desktop/GD32VW553/V1_MQTT_OK/GD32VW55X_Wifi_BLE_SDK/GD32VW55x_RELEASE_V1.0.2/MSDK/ble/app\app_list_mgr.c ****     \brief      Reset application list manager
 610:C:/Users/stapi/OneDrive/Desktop/GD32VW553/V1_MQTT_OK/GD32VW55X_Wifi_BLE_SDK/GD32VW55x_RELEASE_V1.0.2/MSDK/ble/app\app_list_mgr.c ****     \param[in]  none
 611:C:/Users/stapi/OneDrive/Desktop/GD32VW553/V1_MQTT_OK/GD32VW55X_Wifi_BLE_SDK/GD32VW55x_RELEASE_V1.0.2/MSDK/ble/app\app_list_mgr.c ****     \param[out] none
 612:C:/Users/stapi/OneDrive/Desktop/GD32VW553/V1_MQTT_OK/GD32VW55X_Wifi_BLE_SDK/GD32VW55x_RELEASE_V1.0.2/MSDK/ble/app\app_list_mgr.c ****     \retval     none
 613:C:/Users/stapi/OneDrive/Desktop/GD32VW553/V1_MQTT_OK/GD32VW55X_Wifi_BLE_SDK/GD32VW55x_RELEASE_V1.0.2/MSDK/ble/app\app_list_mgr.c **** */
 614:C:/Users/stapi/OneDrive/Desktop/GD32VW553/V1_MQTT_OK/GD32VW55X_Wifi_BLE_SDK/GD32VW55x_RELEASE_V1.0.2/MSDK/ble/app\app_list_mgr.c **** void app_list_mgr_reset(void)
 615:C:/Users/stapi/OneDrive/Desktop/GD32VW553/V1_MQTT_OK/GD32VW55X_Wifi_BLE_SDK/GD32VW55x_RELEASE_V1.0.2/MSDK/ble/app\app_list_mgr.c **** {
 2049              		.loc 1 615 1 is_stmt 1
 2050              		.cfi_startproc
 616:C:/Users/stapi/OneDrive/Desktop/GD32VW553/V1_MQTT_OK/GD32VW55X_Wifi_BLE_SDK/GD32VW55x_RELEASE_V1.0.2/MSDK/ble/app\app_list_mgr.c ****     ble_list_callback_register(ble_app_list_evt_handler);
 2051              		.loc 1 616 5
 2052 0000 37050000 		lui	a0,%hi(ble_app_list_evt_handler)
 2053 0004 13050500 		addi	a0,a0,%lo(ble_app_list_evt_handler)
 2054 0008 17030000 		tail	ble_list_callback_register
 2054      67000300 
 2055              	.LVL194:
 2056              		.cfi_endproc
 2057              	.LFE18:
 2059              		.section	.text.app_list_mgr_deinit,"ax",@progbits
 2060              		.align	1
 2061              		.globl	app_list_mgr_deinit
 2063              	app_list_mgr_deinit:
 2064              	.LFB19:
 617:C:/Users/stapi/OneDrive/Desktop/GD32VW553/V1_MQTT_OK/GD32VW55X_Wifi_BLE_SDK/GD32VW55x_RELEASE_V1.0.2/MSDK/ble/app\app_list_mgr.c **** }
 618:C:/Users/stapi/OneDrive/Desktop/GD32VW553/V1_MQTT_OK/GD32VW55X_Wifi_BLE_SDK/GD32VW55x_RELEASE_V1.0.2/MSDK/ble/app\app_list_mgr.c **** 
 619:C:/Users/stapi/OneDrive/Desktop/GD32VW553/V1_MQTT_OK/GD32VW55X_Wifi_BLE_SDK/GD32VW55x_RELEASE_V1.0.2/MSDK/ble/app\app_list_mgr.c **** /*!
 620:C:/Users/stapi/OneDrive/Desktop/GD32VW553/V1_MQTT_OK/GD32VW55X_Wifi_BLE_SDK/GD32VW55x_RELEASE_V1.0.2/MSDK/ble/app\app_list_mgr.c ****     \brief      Deinit application list manager
 621:C:/Users/stapi/OneDrive/Desktop/GD32VW553/V1_MQTT_OK/GD32VW55X_Wifi_BLE_SDK/GD32VW55x_RELEASE_V1.0.2/MSDK/ble/app\app_list_mgr.c ****     \param[in]  none
 622:C:/Users/stapi/OneDrive/Desktop/GD32VW553/V1_MQTT_OK/GD32VW55X_Wifi_BLE_SDK/GD32VW55x_RELEASE_V1.0.2/MSDK/ble/app\app_list_mgr.c ****     \param[out] none
 623:C:/Users/stapi/OneDrive/Desktop/GD32VW553/V1_MQTT_OK/GD32VW55X_Wifi_BLE_SDK/GD32VW55x_RELEASE_V1.0.2/MSDK/ble/app\app_list_mgr.c ****     \retval     none
 624:C:/Users/stapi/OneDrive/Desktop/GD32VW553/V1_MQTT_OK/GD32VW55X_Wifi_BLE_SDK/GD32VW55x_RELEASE_V1.0.2/MSDK/ble/app\app_list_mgr.c **** */
 625:C:/Users/stapi/OneDrive/Desktop/GD32VW553/V1_MQTT_OK/GD32VW55X_Wifi_BLE_SDK/GD32VW55x_RELEASE_V1.0.2/MSDK/ble/app\app_list_mgr.c **** void app_list_mgr_deinit(void)
 626:C:/Users/stapi/OneDrive/Desktop/GD32VW553/V1_MQTT_OK/GD32VW55X_Wifi_BLE_SDK/GD32VW55x_RELEASE_V1.0.2/MSDK/ble/app\app_list_mgr.c **** {
 2065              		.loc 1 626 1
 2066              		.cfi_startproc
 627:C:/Users/stapi/OneDrive/Desktop/GD32VW553/V1_MQTT_OK/GD32VW55X_Wifi_BLE_SDK/GD32VW55x_RELEASE_V1.0.2/MSDK/ble/app\app_list_mgr.c ****     ble_list_callback_unregister(ble_app_list_evt_handler);
 2067              		.loc 1 627 5
 2068 0000 37050000 		lui	a0,%hi(ble_app_list_evt_handler)
 2069 0004 13050500 		addi	a0,a0,%lo(ble_app_list_evt_handler)
 2070 0008 17030000 		tail	ble_list_callback_unregister
 2070      67000300 
 2071              	.LVL195:
 2072              		.cfi_endproc
 2073              	.LFE19:
 2075              		.text
 2076              	.Letext0:
 2077              		.file 2 "c:\\users\\stapi\\onedrive\\desktop\\gd32vw553\\embeddedbuilder_v1.4.7.26843\\tools\\nucl
 2078              		.file 3 "c:\\users\\stapi\\onedrive\\desktop\\gd32vw553\\embeddedbuilder_v1.4.7.26843\\tools\\nucl
 2079              		.file 4 "..\\..\\..\\..\\blesw\\src\\export/ble_error.h"
 2080              		.file 5 "..\\..\\..\\..\\blesw\\src\\export/ble_gap.h"
 2081              		.file 6 "..\\..\\..\\..\\blesw\\src\\export/ble_list.h"
 2082              		.file 7 "..\\..\\..\\..\\util\\include/dlist.h"
 2083              		.file 8 "..\\..\\..\\..\\blesw\\src\\export/ble_conn.h"
 2084              		.file 9 "C:/Users/stapi/OneDrive/Desktop/GD32VW553/V1_MQTT_OK/GD32VW55X_Wifi_BLE_SDK/GD32VW55x_REL
 2085              		.file 10 "C:/Users/stapi/OneDrive/Desktop/GD32VW553/V1_MQTT_OK/GD32VW55X_Wifi_BLE_SDK/GD32VW55x_RE
 2086              		.file 11 "..\\..\\..\\..\\blesw\\src\\export/ble_per_sync.h"
 2087              		.file 12 "C:/Users/stapi/OneDrive/Desktop/GD32VW553/V1_MQTT_OK/GD32VW55X_Wifi_BLE_SDK/GD32VW55x_RE
 2088              		.file 13 "C:/Users/stapi/OneDrive/Desktop/GD32VW553/V1_MQTT_OK/GD32VW55X_Wifi_BLE_SDK/GD32VW55x_RE
 2089              		.file 14 "C:/Users/stapi/OneDrive/Desktop/GD32VW553/V1_MQTT_OK/GD32VW55X_Wifi_BLE_SDK/GD32VW55x_RE
 2090              		.file 15 "..\\..\\..\\..\\util\\include/dbg_print.h"
 2091              		.file 16 "..\\..\\..\\..\\util\\include/debug_print.h"
 2092              		.file 17 "..\\..\\..\\..\\rtos\\rtos_wrapper/wrapper_os.h"
 2093              		.file 18 "<built-in>"
 2094              		.file 19 "..\\..\\..\\..\\blesw\\src\\export/ble_adapter.h"