   1              		.file	"app_blue_courier_link.c"
   2              		.option nopic
   3              		.attribute arch, "rv32i2p0_m2p0_a2p0_f2p0_c2p0_b_p0p94"
   4              		.attribute unaligned_access, 0
   5              		.attribute stack_align, 16
   6              		.text
   7              	.Ltext0:
   8              		.cfi_sections	.debug_frame
   9              		.section	.text.bcwl_conn_evt_handler,"ax",@progbits
  10              		.align	1
  11              		.globl	bcwl_conn_evt_handler
  13              	bcwl_conn_evt_handler:
  14              	.LFB22:
  15              		.file 1 "C:/Users/stapi/OneDrive/Desktop/GD32VW553/GD32VW55X_Wifi_BLE_SDK/GD32VW55x_RELEASE_V1.0.2
   1:C:/Users/stapi/OneDrive/Desktop/GD32VW553/GD32VW55X_Wifi_BLE_SDK/GD32VW55x_RELEASE_V1.0.2/MSDK/ble/app\app_blue_courier_link.c **** /*!
   2:C:/Users/stapi/OneDrive/Desktop/GD32VW553/GD32VW55X_Wifi_BLE_SDK/GD32VW55x_RELEASE_V1.0.2/MSDK/ble/app\app_blue_courier_link.c ****     \file    app_blue_courier_link.c
   3:C:/Users/stapi/OneDrive/Desktop/GD32VW553/GD32VW55X_Wifi_BLE_SDK/GD32VW55x_RELEASE_V1.0.2/MSDK/ble/app\app_blue_courier_link.c ****     \brief   Implemetions of blue courier link
   4:C:/Users/stapi/OneDrive/Desktop/GD32VW553/GD32VW55X_Wifi_BLE_SDK/GD32VW55x_RELEASE_V1.0.2/MSDK/ble/app\app_blue_courier_link.c **** 
   5:C:/Users/stapi/OneDrive/Desktop/GD32VW553/GD32VW55X_Wifi_BLE_SDK/GD32VW55x_RELEASE_V1.0.2/MSDK/ble/app\app_blue_courier_link.c ****     \version 2023-07-20, V1.0.0, firmware for GD32VW55x
   6:C:/Users/stapi/OneDrive/Desktop/GD32VW553/GD32VW55X_Wifi_BLE_SDK/GD32VW55x_RELEASE_V1.0.2/MSDK/ble/app\app_blue_courier_link.c **** */
   7:C:/Users/stapi/OneDrive/Desktop/GD32VW553/GD32VW55X_Wifi_BLE_SDK/GD32VW55x_RELEASE_V1.0.2/MSDK/ble/app\app_blue_courier_link.c **** 
   8:C:/Users/stapi/OneDrive/Desktop/GD32VW553/GD32VW55X_Wifi_BLE_SDK/GD32VW55x_RELEASE_V1.0.2/MSDK/ble/app\app_blue_courier_link.c **** /*
   9:C:/Users/stapi/OneDrive/Desktop/GD32VW553/GD32VW55X_Wifi_BLE_SDK/GD32VW55x_RELEASE_V1.0.2/MSDK/ble/app\app_blue_courier_link.c ****     Copyright (c) 2023, GigaDevice Semiconductor Inc.
  10:C:/Users/stapi/OneDrive/Desktop/GD32VW553/GD32VW55X_Wifi_BLE_SDK/GD32VW55x_RELEASE_V1.0.2/MSDK/ble/app\app_blue_courier_link.c **** 
  11:C:/Users/stapi/OneDrive/Desktop/GD32VW553/GD32VW55X_Wifi_BLE_SDK/GD32VW55x_RELEASE_V1.0.2/MSDK/ble/app\app_blue_courier_link.c ****     Redistribution and use in source and binary forms, with or without modification,
  12:C:/Users/stapi/OneDrive/Desktop/GD32VW553/GD32VW55X_Wifi_BLE_SDK/GD32VW55x_RELEASE_V1.0.2/MSDK/ble/app\app_blue_courier_link.c **** are permitted provided that the following conditions are met:
  13:C:/Users/stapi/OneDrive/Desktop/GD32VW553/GD32VW55X_Wifi_BLE_SDK/GD32VW55x_RELEASE_V1.0.2/MSDK/ble/app\app_blue_courier_link.c **** 
  14:C:/Users/stapi/OneDrive/Desktop/GD32VW553/GD32VW55X_Wifi_BLE_SDK/GD32VW55x_RELEASE_V1.0.2/MSDK/ble/app\app_blue_courier_link.c ****     1. Redistributions of source code must retain the above copyright notice, this
  15:C:/Users/stapi/OneDrive/Desktop/GD32VW553/GD32VW55X_Wifi_BLE_SDK/GD32VW55x_RELEASE_V1.0.2/MSDK/ble/app\app_blue_courier_link.c ****        list of conditions and the following disclaimer.
  16:C:/Users/stapi/OneDrive/Desktop/GD32VW553/GD32VW55X_Wifi_BLE_SDK/GD32VW55x_RELEASE_V1.0.2/MSDK/ble/app\app_blue_courier_link.c ****     2. Redistributions in binary form must reproduce the above copyright notice,
  17:C:/Users/stapi/OneDrive/Desktop/GD32VW553/GD32VW55X_Wifi_BLE_SDK/GD32VW55x_RELEASE_V1.0.2/MSDK/ble/app\app_blue_courier_link.c ****        this list of conditions and the following disclaimer in the documentation
  18:C:/Users/stapi/OneDrive/Desktop/GD32VW553/GD32VW55X_Wifi_BLE_SDK/GD32VW55x_RELEASE_V1.0.2/MSDK/ble/app\app_blue_courier_link.c ****        and/or other materials provided with the distribution.
  19:C:/Users/stapi/OneDrive/Desktop/GD32VW553/GD32VW55X_Wifi_BLE_SDK/GD32VW55x_RELEASE_V1.0.2/MSDK/ble/app\app_blue_courier_link.c ****     3. Neither the name of the copyright holder nor the names of its contributors
  20:C:/Users/stapi/OneDrive/Desktop/GD32VW553/GD32VW55X_Wifi_BLE_SDK/GD32VW55x_RELEASE_V1.0.2/MSDK/ble/app\app_blue_courier_link.c ****        may be used to endorse or promote products derived from this software without
  21:C:/Users/stapi/OneDrive/Desktop/GD32VW553/GD32VW55X_Wifi_BLE_SDK/GD32VW55x_RELEASE_V1.0.2/MSDK/ble/app\app_blue_courier_link.c ****        specific prior written permission.
  22:C:/Users/stapi/OneDrive/Desktop/GD32VW553/GD32VW55X_Wifi_BLE_SDK/GD32VW55x_RELEASE_V1.0.2/MSDK/ble/app\app_blue_courier_link.c **** 
  23:C:/Users/stapi/OneDrive/Desktop/GD32VW553/GD32VW55X_Wifi_BLE_SDK/GD32VW55x_RELEASE_V1.0.2/MSDK/ble/app\app_blue_courier_link.c ****     THIS SOFTWARE IS PROVIDED BY THE COPYRIGHT HOLDERS AND CONTRIBUTORS "AS IS"
  24:C:/Users/stapi/OneDrive/Desktop/GD32VW553/GD32VW55X_Wifi_BLE_SDK/GD32VW55x_RELEASE_V1.0.2/MSDK/ble/app\app_blue_courier_link.c **** AND ANY EXPRESS OR IMPLIED WARRANTIES, INCLUDING, BUT NOT LIMITED TO, THE IMPLIED
  25:C:/Users/stapi/OneDrive/Desktop/GD32VW553/GD32VW55X_Wifi_BLE_SDK/GD32VW55x_RELEASE_V1.0.2/MSDK/ble/app\app_blue_courier_link.c **** WARRANTIES OF MERCHANTABILITY AND FITNESS FOR A PARTICULAR PURPOSE ARE DISCLAIMED.
  26:C:/Users/stapi/OneDrive/Desktop/GD32VW553/GD32VW55X_Wifi_BLE_SDK/GD32VW55x_RELEASE_V1.0.2/MSDK/ble/app\app_blue_courier_link.c **** IN NO EVENT SHALL THE COPYRIGHT HOLDER OR CONTRIBUTORS BE LIABLE FOR ANY DIRECT,
  27:C:/Users/stapi/OneDrive/Desktop/GD32VW553/GD32VW55X_Wifi_BLE_SDK/GD32VW55x_RELEASE_V1.0.2/MSDK/ble/app\app_blue_courier_link.c **** INDIRECT, INCIDENTAL, SPECIAL, EXEMPLARY, OR CONSEQUENTIAL DAMAGES (INCLUDING, BUT
  28:C:/Users/stapi/OneDrive/Desktop/GD32VW553/GD32VW55X_Wifi_BLE_SDK/GD32VW55x_RELEASE_V1.0.2/MSDK/ble/app\app_blue_courier_link.c **** NOT LIMITED TO, PROCUREMENT OF SUBSTITUTE GOODS OR SERVICES; LOSS OF USE, DATA, OR
  29:C:/Users/stapi/OneDrive/Desktop/GD32VW553/GD32VW55X_Wifi_BLE_SDK/GD32VW55x_RELEASE_V1.0.2/MSDK/ble/app\app_blue_courier_link.c **** PROFITS; OR BUSINESS INTERRUPTION) HOWEVER CAUSED AND ON ANY THEORY OF LIABILITY,
  30:C:/Users/stapi/OneDrive/Desktop/GD32VW553/GD32VW55X_Wifi_BLE_SDK/GD32VW55x_RELEASE_V1.0.2/MSDK/ble/app\app_blue_courier_link.c **** WHETHER IN CONTRACT, STRICT LIABILITY, OR TORT (INCLUDING NEGLIGENCE OR OTHERWISE)
  31:C:/Users/stapi/OneDrive/Desktop/GD32VW553/GD32VW55X_Wifi_BLE_SDK/GD32VW55x_RELEASE_V1.0.2/MSDK/ble/app\app_blue_courier_link.c **** ARISING IN ANY WAY OUT OF THE USE OF THIS SOFTWARE, EVEN IF ADVISED OF THE POSSIBILITY
  32:C:/Users/stapi/OneDrive/Desktop/GD32VW553/GD32VW55X_Wifi_BLE_SDK/GD32VW55x_RELEASE_V1.0.2/MSDK/ble/app\app_blue_courier_link.c **** OF SUCH DAMAGE.
  33:C:/Users/stapi/OneDrive/Desktop/GD32VW553/GD32VW55X_Wifi_BLE_SDK/GD32VW55x_RELEASE_V1.0.2/MSDK/ble/app\app_blue_courier_link.c **** */
  34:C:/Users/stapi/OneDrive/Desktop/GD32VW553/GD32VW55X_Wifi_BLE_SDK/GD32VW55x_RELEASE_V1.0.2/MSDK/ble/app\app_blue_courier_link.c **** 
  35:C:/Users/stapi/OneDrive/Desktop/GD32VW553/GD32VW55X_Wifi_BLE_SDK/GD32VW55x_RELEASE_V1.0.2/MSDK/ble/app\app_blue_courier_link.c **** #include "ble_app_config.h"
  36:C:/Users/stapi/OneDrive/Desktop/GD32VW553/GD32VW55X_Wifi_BLE_SDK/GD32VW55x_RELEASE_V1.0.2/MSDK/ble/app\app_blue_courier_link.c **** #include "ble_profile_config.h"
  37:C:/Users/stapi/OneDrive/Desktop/GD32VW553/GD32VW55X_Wifi_BLE_SDK/GD32VW55x_RELEASE_V1.0.2/MSDK/ble/app\app_blue_courier_link.c **** #include "app_blue_courier_link.h"
  38:C:/Users/stapi/OneDrive/Desktop/GD32VW553/GD32VW55X_Wifi_BLE_SDK/GD32VW55x_RELEASE_V1.0.2/MSDK/ble/app\app_blue_courier_link.c **** 
  39:C:/Users/stapi/OneDrive/Desktop/GD32VW553/GD32VW55X_Wifi_BLE_SDK/GD32VW55x_RELEASE_V1.0.2/MSDK/ble/app\app_blue_courier_link.c **** #if (BLE_PROFILE_BLUE_COURIER_SERVER)
  40:C:/Users/stapi/OneDrive/Desktop/GD32VW553/GD32VW55X_Wifi_BLE_SDK/GD32VW55x_RELEASE_V1.0.2/MSDK/ble/app\app_blue_courier_link.c **** #include "app_blue_courier.h"
  41:C:/Users/stapi/OneDrive/Desktop/GD32VW553/GD32VW55X_Wifi_BLE_SDK/GD32VW55x_RELEASE_V1.0.2/MSDK/ble/app\app_blue_courier_link.c **** #include "ble_gatts.h"
  42:C:/Users/stapi/OneDrive/Desktop/GD32VW553/GD32VW55X_Wifi_BLE_SDK/GD32VW55x_RELEASE_V1.0.2/MSDK/ble/app\app_blue_courier_link.c **** #include "ble_adapter.h"
  43:C:/Users/stapi/OneDrive/Desktop/GD32VW553/GD32VW55X_Wifi_BLE_SDK/GD32VW55x_RELEASE_V1.0.2/MSDK/ble/app\app_blue_courier_link.c **** #include "ble_adv.h"
  44:C:/Users/stapi/OneDrive/Desktop/GD32VW553/GD32VW55X_Wifi_BLE_SDK/GD32VW55x_RELEASE_V1.0.2/MSDK/ble/app\app_blue_courier_link.c **** #include "ble_conn.h"
  45:C:/Users/stapi/OneDrive/Desktop/GD32VW553/GD32VW55X_Wifi_BLE_SDK/GD32VW55x_RELEASE_V1.0.2/MSDK/ble/app\app_blue_courier_link.c **** #include "wrapper_os.h"
  46:C:/Users/stapi/OneDrive/Desktop/GD32VW553/GD32VW55X_Wifi_BLE_SDK/GD32VW55x_RELEASE_V1.0.2/MSDK/ble/app\app_blue_courier_link.c **** #include "dbg_print.h"
  47:C:/Users/stapi/OneDrive/Desktop/GD32VW553/GD32VW55X_Wifi_BLE_SDK/GD32VW55x_RELEASE_V1.0.2/MSDK/ble/app\app_blue_courier_link.c **** #include "co_math.h"
  48:C:/Users/stapi/OneDrive/Desktop/GD32VW553/GD32VW55X_Wifi_BLE_SDK/GD32VW55x_RELEASE_V1.0.2/MSDK/ble/app\app_blue_courier_link.c **** 
  49:C:/Users/stapi/OneDrive/Desktop/GD32VW553/GD32VW55X_Wifi_BLE_SDK/GD32VW55x_RELEASE_V1.0.2/MSDK/ble/app\app_blue_courier_link.c **** bcwl_env_t bcwl_env = {0};
  50:C:/Users/stapi/OneDrive/Desktop/GD32VW553/GD32VW55X_Wifi_BLE_SDK/GD32VW55x_RELEASE_V1.0.2/MSDK/ble/app\app_blue_courier_link.c **** /* Profile id. blue courier wifi profile identity */
  51:C:/Users/stapi/OneDrive/Desktop/GD32VW553/GD32VW55X_Wifi_BLE_SDK/GD32VW55x_RELEASE_V1.0.2/MSDK/ble/app\app_blue_courier_link.c **** uint8_t    prf_id;
  52:C:/Users/stapi/OneDrive/Desktop/GD32VW553/GD32VW55X_Wifi_BLE_SDK/GD32VW55x_RELEASE_V1.0.2/MSDK/ble/app\app_blue_courier_link.c **** 
  53:C:/Users/stapi/OneDrive/Desktop/GD32VW553/GD32VW55X_Wifi_BLE_SDK/GD32VW55x_RELEASE_V1.0.2/MSDK/ble/app\app_blue_courier_link.c **** static bool ble_enabled = false;
  54:C:/Users/stapi/OneDrive/Desktop/GD32VW553/GD32VW55X_Wifi_BLE_SDK/GD32VW55x_RELEASE_V1.0.2/MSDK/ble/app\app_blue_courier_link.c **** static bool bcwl_enable_pending = false;
  55:C:/Users/stapi/OneDrive/Desktop/GD32VW553/GD32VW55X_Wifi_BLE_SDK/GD32VW55x_RELEASE_V1.0.2/MSDK/ble/app\app_blue_courier_link.c **** 
  56:C:/Users/stapi/OneDrive/Desktop/GD32VW553/GD32VW55X_Wifi_BLE_SDK/GD32VW55x_RELEASE_V1.0.2/MSDK/ble/app\app_blue_courier_link.c **** /* Blue courier wifi profile attribute database */
  57:C:/Users/stapi/OneDrive/Desktop/GD32VW553/GD32VW55X_Wifi_BLE_SDK/GD32VW55x_RELEASE_V1.0.2/MSDK/ble/app\app_blue_courier_link.c **** const ble_gatt_attr_desc_t bcw_att_db[BCW_IDX_NUMBER] = {
  58:C:/Users/stapi/OneDrive/Desktop/GD32VW553/GD32VW55X_Wifi_BLE_SDK/GD32VW55x_RELEASE_V1.0.2/MSDK/ble/app\app_blue_courier_link.c ****     [BCW_IDX_PRIM_SVC]   = { UUID_16BIT_TO_ARRAY(BLE_GATT_DECL_PRIMARY_SERVICE), PROP(RD),         
  59:C:/Users/stapi/OneDrive/Desktop/GD32VW553/GD32VW55X_Wifi_BLE_SDK/GD32VW55x_RELEASE_V1.0.2/MSDK/ble/app\app_blue_courier_link.c ****     [BCW_IDX_CHAR_WRITE] = { UUID_16BIT_TO_ARRAY(BLE_GATT_DECL_CHARACTERISTIC),  PROP(RD),         
  60:C:/Users/stapi/OneDrive/Desktop/GD32VW553/GD32VW55X_Wifi_BLE_SDK/GD32VW55x_RELEASE_V1.0.2/MSDK/ble/app\app_blue_courier_link.c ****     [BCW_IDX_WRITE]      = { UUID_16BIT_TO_ARRAY(BCW_GATT_WRITE_UUID),           PROP(WR) | SEC_LVL
  61:C:/Users/stapi/OneDrive/Desktop/GD32VW553/GD32VW55X_Wifi_BLE_SDK/GD32VW55x_RELEASE_V1.0.2/MSDK/ble/app\app_blue_courier_link.c ****     [BCW_IDX_CHAR_NTF]   = { UUID_16BIT_TO_ARRAY(BLE_GATT_DECL_CHARACTERISTIC),  PROP(RD),         
  62:C:/Users/stapi/OneDrive/Desktop/GD32VW553/GD32VW55X_Wifi_BLE_SDK/GD32VW55x_RELEASE_V1.0.2/MSDK/ble/app\app_blue_courier_link.c ****     [BCW_IDX_NTF]        = { UUID_16BIT_TO_ARRAY(BCW_GATT_NTF_UUID),             PROP(NTF),        
  63:C:/Users/stapi/OneDrive/Desktop/GD32VW553/GD32VW55X_Wifi_BLE_SDK/GD32VW55x_RELEASE_V1.0.2/MSDK/ble/app\app_blue_courier_link.c ****     [BCW_IDX_NTF_CFG]    = { UUID_16BIT_TO_ARRAY(BLE_GATT_DESC_CLIENT_CHAR_CFG), PROP(RD) | PROP(WR
  64:C:/Users/stapi/OneDrive/Desktop/GD32VW553/GD32VW55X_Wifi_BLE_SDK/GD32VW55x_RELEASE_V1.0.2/MSDK/ble/app\app_blue_courier_link.c **** };
  65:C:/Users/stapi/OneDrive/Desktop/GD32VW553/GD32VW55X_Wifi_BLE_SDK/GD32VW55x_RELEASE_V1.0.2/MSDK/ble/app\app_blue_courier_link.c **** 
  66:C:/Users/stapi/OneDrive/Desktop/GD32VW553/GD32VW55X_Wifi_BLE_SDK/GD32VW55x_RELEASE_V1.0.2/MSDK/ble/app\app_blue_courier_link.c **** /*!
  67:C:/Users/stapi/OneDrive/Desktop/GD32VW553/GD32VW55X_Wifi_BLE_SDK/GD32VW55x_RELEASE_V1.0.2/MSDK/ble/app\app_blue_courier_link.c ****     \brief      Blue courier wifi link report error message to peer device
  68:C:/Users/stapi/OneDrive/Desktop/GD32VW553/GD32VW55X_Wifi_BLE_SDK/GD32VW55x_RELEASE_V1.0.2/MSDK/ble/app\app_blue_courier_link.c ****     \param[in]  reason: error code
  69:C:/Users/stapi/OneDrive/Desktop/GD32VW553/GD32VW55X_Wifi_BLE_SDK/GD32VW55x_RELEASE_V1.0.2/MSDK/ble/app\app_blue_courier_link.c ****     \param[out] none
  70:C:/Users/stapi/OneDrive/Desktop/GD32VW553/GD32VW55X_Wifi_BLE_SDK/GD32VW55x_RELEASE_V1.0.2/MSDK/ble/app\app_blue_courier_link.c ****     \retval     none
  71:C:/Users/stapi/OneDrive/Desktop/GD32VW553/GD32VW55X_Wifi_BLE_SDK/GD32VW55x_RELEASE_V1.0.2/MSDK/ble/app\app_blue_courier_link.c **** */
  72:C:/Users/stapi/OneDrive/Desktop/GD32VW553/GD32VW55X_Wifi_BLE_SDK/GD32VW55x_RELEASE_V1.0.2/MSDK/ble/app\app_blue_courier_link.c **** void bcwl_error_report(uint8_t reason)
  73:C:/Users/stapi/OneDrive/Desktop/GD32VW553/GD32VW55X_Wifi_BLE_SDK/GD32VW55x_RELEASE_V1.0.2/MSDK/ble/app\app_blue_courier_link.c **** {
  74:C:/Users/stapi/OneDrive/Desktop/GD32VW553/GD32VW55X_Wifi_BLE_SDK/GD32VW55x_RELEASE_V1.0.2/MSDK/ble/app\app_blue_courier_link.c ****     bcwl_send(BCWL_OPCODE_BUILD(BCWL_OPCODE_TYPE_MGMT, BCWL_OPCODE_MGMT_SUBTYPE_ERROR_REPORT), &rea
  75:C:/Users/stapi/OneDrive/Desktop/GD32VW553/GD32VW55X_Wifi_BLE_SDK/GD32VW55x_RELEASE_V1.0.2/MSDK/ble/app\app_blue_courier_link.c **** }
  76:C:/Users/stapi/OneDrive/Desktop/GD32VW553/GD32VW55X_Wifi_BLE_SDK/GD32VW55x_RELEASE_V1.0.2/MSDK/ble/app\app_blue_courier_link.c **** 
  77:C:/Users/stapi/OneDrive/Desktop/GD32VW553/GD32VW55X_Wifi_BLE_SDK/GD32VW55x_RELEASE_V1.0.2/MSDK/ble/app\app_blue_courier_link.c **** /*!
  78:C:/Users/stapi/OneDrive/Desktop/GD32VW553/GD32VW55X_Wifi_BLE_SDK/GD32VW55x_RELEASE_V1.0.2/MSDK/ble/app\app_blue_courier_link.c ****     \brief      Blue courier wifi link send ack message to peer device
  79:C:/Users/stapi/OneDrive/Desktop/GD32VW553/GD32VW55X_Wifi_BLE_SDK/GD32VW55x_RELEASE_V1.0.2/MSDK/ble/app\app_blue_courier_link.c ****     \param[in]  seq: sequence number
  80:C:/Users/stapi/OneDrive/Desktop/GD32VW553/GD32VW55X_Wifi_BLE_SDK/GD32VW55x_RELEASE_V1.0.2/MSDK/ble/app\app_blue_courier_link.c ****     \param[out] none
  81:C:/Users/stapi/OneDrive/Desktop/GD32VW553/GD32VW55X_Wifi_BLE_SDK/GD32VW55x_RELEASE_V1.0.2/MSDK/ble/app\app_blue_courier_link.c ****     \retval     none
  82:C:/Users/stapi/OneDrive/Desktop/GD32VW553/GD32VW55X_Wifi_BLE_SDK/GD32VW55x_RELEASE_V1.0.2/MSDK/ble/app\app_blue_courier_link.c **** */
  83:C:/Users/stapi/OneDrive/Desktop/GD32VW553/GD32VW55X_Wifi_BLE_SDK/GD32VW55x_RELEASE_V1.0.2/MSDK/ble/app\app_blue_courier_link.c **** void bcwl_send_ack(uint8_t seq)
  84:C:/Users/stapi/OneDrive/Desktop/GD32VW553/GD32VW55X_Wifi_BLE_SDK/GD32VW55x_RELEASE_V1.0.2/MSDK/ble/app\app_blue_courier_link.c **** {
  85:C:/Users/stapi/OneDrive/Desktop/GD32VW553/GD32VW55X_Wifi_BLE_SDK/GD32VW55x_RELEASE_V1.0.2/MSDK/ble/app\app_blue_courier_link.c ****     bcwl_send(BCWL_OPCODE_BUILD(BCWL_OPCODE_TYPE_MGMT, BCWL_OPCODE_MGMT_SUBTYPE_ACK), &seq, sizeof(
  86:C:/Users/stapi/OneDrive/Desktop/GD32VW553/GD32VW55X_Wifi_BLE_SDK/GD32VW55x_RELEASE_V1.0.2/MSDK/ble/app\app_blue_courier_link.c **** }
  87:C:/Users/stapi/OneDrive/Desktop/GD32VW553/GD32VW55X_Wifi_BLE_SDK/GD32VW55x_RELEASE_V1.0.2/MSDK/ble/app\app_blue_courier_link.c **** 
  88:C:/Users/stapi/OneDrive/Desktop/GD32VW553/GD32VW55X_Wifi_BLE_SDK/GD32VW55x_RELEASE_V1.0.2/MSDK/ble/app\app_blue_courier_link.c **** /*!
  89:C:/Users/stapi/OneDrive/Desktop/GD32VW553/GD32VW55X_Wifi_BLE_SDK/GD32VW55x_RELEASE_V1.0.2/MSDK/ble/app\app_blue_courier_link.c ****     \brief      Handle handshake message and send response message
  90:C:/Users/stapi/OneDrive/Desktop/GD32VW553/GD32VW55X_Wifi_BLE_SDK/GD32VW55x_RELEASE_V1.0.2/MSDK/ble/app\app_blue_courier_link.c ****     \param[in]  data: pointer to handshake information, @ref bcwl_mgmt_handshake_t
  91:C:/Users/stapi/OneDrive/Desktop/GD32VW553/GD32VW55X_Wifi_BLE_SDK/GD32VW55x_RELEASE_V1.0.2/MSDK/ble/app\app_blue_courier_link.c ****     \param[in]  len: data length
  92:C:/Users/stapi/OneDrive/Desktop/GD32VW553/GD32VW55X_Wifi_BLE_SDK/GD32VW55x_RELEASE_V1.0.2/MSDK/ble/app\app_blue_courier_link.c ****     \param[out] none
  93:C:/Users/stapi/OneDrive/Desktop/GD32VW553/GD32VW55X_Wifi_BLE_SDK/GD32VW55x_RELEASE_V1.0.2/MSDK/ble/app\app_blue_courier_link.c ****     \retval     none
  94:C:/Users/stapi/OneDrive/Desktop/GD32VW553/GD32VW55X_Wifi_BLE_SDK/GD32VW55x_RELEASE_V1.0.2/MSDK/ble/app\app_blue_courier_link.c **** */
  95:C:/Users/stapi/OneDrive/Desktop/GD32VW553/GD32VW55X_Wifi_BLE_SDK/GD32VW55x_RELEASE_V1.0.2/MSDK/ble/app\app_blue_courier_link.c **** void bcwl_handle_mgmt_handshake(uint8_t *data, uint16_t len)
  96:C:/Users/stapi/OneDrive/Desktop/GD32VW553/GD32VW55X_Wifi_BLE_SDK/GD32VW55x_RELEASE_V1.0.2/MSDK/ble/app\app_blue_courier_link.c **** {
  97:C:/Users/stapi/OneDrive/Desktop/GD32VW553/GD32VW55X_Wifi_BLE_SDK/GD32VW55x_RELEASE_V1.0.2/MSDK/ble/app\app_blue_courier_link.c ****     uint16_t mtu;
  98:C:/Users/stapi/OneDrive/Desktop/GD32VW553/GD32VW55X_Wifi_BLE_SDK/GD32VW55x_RELEASE_V1.0.2/MSDK/ble/app\app_blue_courier_link.c ****     bcwl_mgmt_handshake_t handshake_rsp;
  99:C:/Users/stapi/OneDrive/Desktop/GD32VW553/GD32VW55X_Wifi_BLE_SDK/GD32VW55x_RELEASE_V1.0.2/MSDK/ble/app\app_blue_courier_link.c ****     bcwl_mgmt_handshake_t *handshake = (bcwl_mgmt_handshake_t *)data;
 100:C:/Users/stapi/OneDrive/Desktop/GD32VW553/GD32VW55X_Wifi_BLE_SDK/GD32VW55x_RELEASE_V1.0.2/MSDK/ble/app\app_blue_courier_link.c **** 
 101:C:/Users/stapi/OneDrive/Desktop/GD32VW553/GD32VW55X_Wifi_BLE_SDK/GD32VW55x_RELEASE_V1.0.2/MSDK/ble/app\app_blue_courier_link.c ****     if (len != sizeof(bcwl_mgmt_handshake_t)) {
 102:C:/Users/stapi/OneDrive/Desktop/GD32VW553/GD32VW55X_Wifi_BLE_SDK/GD32VW55x_RELEASE_V1.0.2/MSDK/ble/app\app_blue_courier_link.c ****         dbg_print(ERR, "%s len err %d\n", __func__, len);
 103:C:/Users/stapi/OneDrive/Desktop/GD32VW553/GD32VW55X_Wifi_BLE_SDK/GD32VW55x_RELEASE_V1.0.2/MSDK/ble/app\app_blue_courier_link.c ****         bcwl_error_report(BCWL_ERR_PACKET_LEN_ERROR);
 104:C:/Users/stapi/OneDrive/Desktop/GD32VW553/GD32VW55X_Wifi_BLE_SDK/GD32VW55x_RELEASE_V1.0.2/MSDK/ble/app\app_blue_courier_link.c ****         return;
 105:C:/Users/stapi/OneDrive/Desktop/GD32VW553/GD32VW55X_Wifi_BLE_SDK/GD32VW55x_RELEASE_V1.0.2/MSDK/ble/app\app_blue_courier_link.c ****     }
 106:C:/Users/stapi/OneDrive/Desktop/GD32VW553/GD32VW55X_Wifi_BLE_SDK/GD32VW55x_RELEASE_V1.0.2/MSDK/ble/app\app_blue_courier_link.c **** 
 107:C:/Users/stapi/OneDrive/Desktop/GD32VW553/GD32VW55X_Wifi_BLE_SDK/GD32VW55x_RELEASE_V1.0.2/MSDK/ble/app\app_blue_courier_link.c ****     ble_gatts_mtu_get(bcwl_env.conn_id, &mtu);
 108:C:/Users/stapi/OneDrive/Desktop/GD32VW553/GD32VW55X_Wifi_BLE_SDK/GD32VW55x_RELEASE_V1.0.2/MSDK/ble/app\app_blue_courier_link.c ****     handshake_rsp.mtu = co_min(co_min(handshake->mtu, mtu), BCW_FRAG_MAX_LEN);
 109:C:/Users/stapi/OneDrive/Desktop/GD32VW553/GD32VW55X_Wifi_BLE_SDK/GD32VW55x_RELEASE_V1.0.2/MSDK/ble/app\app_blue_courier_link.c ****     handshake_rsp.recv_size = BCW_VALUE_LEN;
 110:C:/Users/stapi/OneDrive/Desktop/GD32VW553/GD32VW55X_Wifi_BLE_SDK/GD32VW55x_RELEASE_V1.0.2/MSDK/ble/app\app_blue_courier_link.c ****     bcwl_env.peer_recv_size = co_min(handshake->recv_size, BCW_VALUE_LEN);
 111:C:/Users/stapi/OneDrive/Desktop/GD32VW553/GD32VW55X_Wifi_BLE_SDK/GD32VW55x_RELEASE_V1.0.2/MSDK/ble/app\app_blue_courier_link.c ****     bcwl_env.frag_size = handshake_rsp.mtu - sizeof(bcwl_header_t) - BLE_GATT_HEADER_LEN - 2/*crc *
 112:C:/Users/stapi/OneDrive/Desktop/GD32VW553/GD32VW55X_Wifi_BLE_SDK/GD32VW55x_RELEASE_V1.0.2/MSDK/ble/app\app_blue_courier_link.c ****     bcwl_env.handshake_success = true;
 113:C:/Users/stapi/OneDrive/Desktop/GD32VW553/GD32VW55X_Wifi_BLE_SDK/GD32VW55x_RELEASE_V1.0.2/MSDK/ble/app\app_blue_courier_link.c **** 
 114:C:/Users/stapi/OneDrive/Desktop/GD32VW553/GD32VW55X_Wifi_BLE_SDK/GD32VW55x_RELEASE_V1.0.2/MSDK/ble/app\app_blue_courier_link.c ****     dbg_print(NOTICE, "%s handshake success\n", __func__);
 115:C:/Users/stapi/OneDrive/Desktop/GD32VW553/GD32VW55X_Wifi_BLE_SDK/GD32VW55x_RELEASE_V1.0.2/MSDK/ble/app\app_blue_courier_link.c **** 
 116:C:/Users/stapi/OneDrive/Desktop/GD32VW553/GD32VW55X_Wifi_BLE_SDK/GD32VW55x_RELEASE_V1.0.2/MSDK/ble/app\app_blue_courier_link.c ****     bcwl_send(BCWL_OPCODE_BUILD(BCWL_OPCODE_TYPE_MGMT, BCWL_OPCODE_MGMT_SUBTYPE_HANDSHAKE),
 117:C:/Users/stapi/OneDrive/Desktop/GD32VW553/GD32VW55X_Wifi_BLE_SDK/GD32VW55x_RELEASE_V1.0.2/MSDK/ble/app\app_blue_courier_link.c ****         (uint8_t *)&handshake_rsp, sizeof(bcwl_mgmt_handshake_t));
 118:C:/Users/stapi/OneDrive/Desktop/GD32VW553/GD32VW55X_Wifi_BLE_SDK/GD32VW55x_RELEASE_V1.0.2/MSDK/ble/app\app_blue_courier_link.c **** }
 119:C:/Users/stapi/OneDrive/Desktop/GD32VW553/GD32VW55X_Wifi_BLE_SDK/GD32VW55x_RELEASE_V1.0.2/MSDK/ble/app\app_blue_courier_link.c **** 
 120:C:/Users/stapi/OneDrive/Desktop/GD32VW553/GD32VW55X_Wifi_BLE_SDK/GD32VW55x_RELEASE_V1.0.2/MSDK/ble/app\app_blue_courier_link.c **** /*!
 121:C:/Users/stapi/OneDrive/Desktop/GD32VW553/GD32VW55X_Wifi_BLE_SDK/GD32VW55x_RELEASE_V1.0.2/MSDK/ble/app\app_blue_courier_link.c ****     \brief      Blue courier wifi link message handler
 122:C:/Users/stapi/OneDrive/Desktop/GD32VW553/GD32VW55X_Wifi_BLE_SDK/GD32VW55x_RELEASE_V1.0.2/MSDK/ble/app\app_blue_courier_link.c ****     \param[in]  opcode: opcode of type and subtype
 123:C:/Users/stapi/OneDrive/Desktop/GD32VW553/GD32VW55X_Wifi_BLE_SDK/GD32VW55x_RELEASE_V1.0.2/MSDK/ble/app\app_blue_courier_link.c ****     \param[in]  data: pointer to received data
 124:C:/Users/stapi/OneDrive/Desktop/GD32VW553/GD32VW55X_Wifi_BLE_SDK/GD32VW55x_RELEASE_V1.0.2/MSDK/ble/app\app_blue_courier_link.c ****     \param[in]  len: received data length
 125:C:/Users/stapi/OneDrive/Desktop/GD32VW553/GD32VW55X_Wifi_BLE_SDK/GD32VW55x_RELEASE_V1.0.2/MSDK/ble/app\app_blue_courier_link.c ****     \param[out] none
 126:C:/Users/stapi/OneDrive/Desktop/GD32VW553/GD32VW55X_Wifi_BLE_SDK/GD32VW55x_RELEASE_V1.0.2/MSDK/ble/app\app_blue_courier_link.c ****     \retval     none
 127:C:/Users/stapi/OneDrive/Desktop/GD32VW553/GD32VW55X_Wifi_BLE_SDK/GD32VW55x_RELEASE_V1.0.2/MSDK/ble/app\app_blue_courier_link.c **** */
 128:C:/Users/stapi/OneDrive/Desktop/GD32VW553/GD32VW55X_Wifi_BLE_SDK/GD32VW55x_RELEASE_V1.0.2/MSDK/ble/app\app_blue_courier_link.c **** void bcwl_msg_handler(uint8_t opcode, uint8_t *data, uint16_t len)
 129:C:/Users/stapi/OneDrive/Desktop/GD32VW553/GD32VW55X_Wifi_BLE_SDK/GD32VW55x_RELEASE_V1.0.2/MSDK/ble/app\app_blue_courier_link.c **** {
 130:C:/Users/stapi/OneDrive/Desktop/GD32VW553/GD32VW55X_Wifi_BLE_SDK/GD32VW55x_RELEASE_V1.0.2/MSDK/ble/app\app_blue_courier_link.c ****     switch (BCWL_OPCODE_GET_TYPE(opcode)) {
 131:C:/Users/stapi/OneDrive/Desktop/GD32VW553/GD32VW55X_Wifi_BLE_SDK/GD32VW55x_RELEASE_V1.0.2/MSDK/ble/app\app_blue_courier_link.c ****     case BCWL_OPCODE_TYPE_MGMT:
 132:C:/Users/stapi/OneDrive/Desktop/GD32VW553/GD32VW55X_Wifi_BLE_SDK/GD32VW55x_RELEASE_V1.0.2/MSDK/ble/app\app_blue_courier_link.c ****         switch (BCWL_OPCODE_GET_SUBTYPE(opcode)) {
 133:C:/Users/stapi/OneDrive/Desktop/GD32VW553/GD32VW55X_Wifi_BLE_SDK/GD32VW55x_RELEASE_V1.0.2/MSDK/ble/app\app_blue_courier_link.c ****         case BCWL_OPCODE_MGMT_SUBTYPE_HANDSHAKE:
 134:C:/Users/stapi/OneDrive/Desktop/GD32VW553/GD32VW55X_Wifi_BLE_SDK/GD32VW55x_RELEASE_V1.0.2/MSDK/ble/app\app_blue_courier_link.c ****             bcwl_handle_mgmt_handshake(data, len);
 135:C:/Users/stapi/OneDrive/Desktop/GD32VW553/GD32VW55X_Wifi_BLE_SDK/GD32VW55x_RELEASE_V1.0.2/MSDK/ble/app\app_blue_courier_link.c ****             break;
 136:C:/Users/stapi/OneDrive/Desktop/GD32VW553/GD32VW55X_Wifi_BLE_SDK/GD32VW55x_RELEASE_V1.0.2/MSDK/ble/app\app_blue_courier_link.c ****         case BCWL_OPCODE_MGMT_SUBTYPE_ACK:
 137:C:/Users/stapi/OneDrive/Desktop/GD32VW553/GD32VW55X_Wifi_BLE_SDK/GD32VW55x_RELEASE_V1.0.2/MSDK/ble/app\app_blue_courier_link.c ****         case BCWL_OPCODE_MGMT_SUBTYPE_ERROR_REPORT:
 138:C:/Users/stapi/OneDrive/Desktop/GD32VW553/GD32VW55X_Wifi_BLE_SDK/GD32VW55x_RELEASE_V1.0.2/MSDK/ble/app\app_blue_courier_link.c ****             /* TODO */
 139:C:/Users/stapi/OneDrive/Desktop/GD32VW553/GD32VW55X_Wifi_BLE_SDK/GD32VW55x_RELEASE_V1.0.2/MSDK/ble/app\app_blue_courier_link.c ****             break;
 140:C:/Users/stapi/OneDrive/Desktop/GD32VW553/GD32VW55X_Wifi_BLE_SDK/GD32VW55x_RELEASE_V1.0.2/MSDK/ble/app\app_blue_courier_link.c ****         default:
 141:C:/Users/stapi/OneDrive/Desktop/GD32VW553/GD32VW55X_Wifi_BLE_SDK/GD32VW55x_RELEASE_V1.0.2/MSDK/ble/app\app_blue_courier_link.c ****             dbg_print(ERR, "%s unknown opcode %x\n", __func__, opcode);
 142:C:/Users/stapi/OneDrive/Desktop/GD32VW553/GD32VW55X_Wifi_BLE_SDK/GD32VW55x_RELEASE_V1.0.2/MSDK/ble/app\app_blue_courier_link.c ****             bcwl_error_report(BCWL_ERR_UNKNOWN_OPCODE);
 143:C:/Users/stapi/OneDrive/Desktop/GD32VW553/GD32VW55X_Wifi_BLE_SDK/GD32VW55x_RELEASE_V1.0.2/MSDK/ble/app\app_blue_courier_link.c ****             break;
 144:C:/Users/stapi/OneDrive/Desktop/GD32VW553/GD32VW55X_Wifi_BLE_SDK/GD32VW55x_RELEASE_V1.0.2/MSDK/ble/app\app_blue_courier_link.c ****         }
 145:C:/Users/stapi/OneDrive/Desktop/GD32VW553/GD32VW55X_Wifi_BLE_SDK/GD32VW55x_RELEASE_V1.0.2/MSDK/ble/app\app_blue_courier_link.c ****         break;
 146:C:/Users/stapi/OneDrive/Desktop/GD32VW553/GD32VW55X_Wifi_BLE_SDK/GD32VW55x_RELEASE_V1.0.2/MSDK/ble/app\app_blue_courier_link.c ****     case BCWL_OPCODE_TYPE_DATA:
 147:C:/Users/stapi/OneDrive/Desktop/GD32VW553/GD32VW55X_Wifi_BLE_SDK/GD32VW55x_RELEASE_V1.0.2/MSDK/ble/app\app_blue_courier_link.c ****         bcwp_msg_handler(BCWL_OPCODE_GET_SUBTYPE(opcode), data, len);
 148:C:/Users/stapi/OneDrive/Desktop/GD32VW553/GD32VW55X_Wifi_BLE_SDK/GD32VW55x_RELEASE_V1.0.2/MSDK/ble/app\app_blue_courier_link.c ****         break;
 149:C:/Users/stapi/OneDrive/Desktop/GD32VW553/GD32VW55X_Wifi_BLE_SDK/GD32VW55x_RELEASE_V1.0.2/MSDK/ble/app\app_blue_courier_link.c ****     default:
 150:C:/Users/stapi/OneDrive/Desktop/GD32VW553/GD32VW55X_Wifi_BLE_SDK/GD32VW55x_RELEASE_V1.0.2/MSDK/ble/app\app_blue_courier_link.c ****         dbg_print(ERR, "%s unknown opcode %x\n", __func__, opcode);
 151:C:/Users/stapi/OneDrive/Desktop/GD32VW553/GD32VW55X_Wifi_BLE_SDK/GD32VW55x_RELEASE_V1.0.2/MSDK/ble/app\app_blue_courier_link.c ****         bcwl_error_report(BCWL_ERR_UNKNOWN_OPCODE);
 152:C:/Users/stapi/OneDrive/Desktop/GD32VW553/GD32VW55X_Wifi_BLE_SDK/GD32VW55x_RELEASE_V1.0.2/MSDK/ble/app\app_blue_courier_link.c ****     }
 153:C:/Users/stapi/OneDrive/Desktop/GD32VW553/GD32VW55X_Wifi_BLE_SDK/GD32VW55x_RELEASE_V1.0.2/MSDK/ble/app\app_blue_courier_link.c **** }
 154:C:/Users/stapi/OneDrive/Desktop/GD32VW553/GD32VW55X_Wifi_BLE_SDK/GD32VW55x_RELEASE_V1.0.2/MSDK/ble/app\app_blue_courier_link.c **** 
 155:C:/Users/stapi/OneDrive/Desktop/GD32VW553/GD32VW55X_Wifi_BLE_SDK/GD32VW55x_RELEASE_V1.0.2/MSDK/ble/app\app_blue_courier_link.c **** /*!
 156:C:/Users/stapi/OneDrive/Desktop/GD32VW553/GD32VW55X_Wifi_BLE_SDK/GD32VW55x_RELEASE_V1.0.2/MSDK/ble/app\app_blue_courier_link.c ****     \brief      Blue courier wifi link send notify through GATT
 157:C:/Users/stapi/OneDrive/Desktop/GD32VW553/GD32VW55X_Wifi_BLE_SDK/GD32VW55x_RELEASE_V1.0.2/MSDK/ble/app\app_blue_courier_link.c ****     \param[in]  p_val: pointer to notification value to send
 158:C:/Users/stapi/OneDrive/Desktop/GD32VW553/GD32VW55X_Wifi_BLE_SDK/GD32VW55x_RELEASE_V1.0.2/MSDK/ble/app\app_blue_courier_link.c ****     \param[in]  len: notification value length
 159:C:/Users/stapi/OneDrive/Desktop/GD32VW553/GD32VW55X_Wifi_BLE_SDK/GD32VW55x_RELEASE_V1.0.2/MSDK/ble/app\app_blue_courier_link.c ****     \param[out] none
 160:C:/Users/stapi/OneDrive/Desktop/GD32VW553/GD32VW55X_Wifi_BLE_SDK/GD32VW55x_RELEASE_V1.0.2/MSDK/ble/app\app_blue_courier_link.c ****     \retval     none
 161:C:/Users/stapi/OneDrive/Desktop/GD32VW553/GD32VW55X_Wifi_BLE_SDK/GD32VW55x_RELEASE_V1.0.2/MSDK/ble/app\app_blue_courier_link.c **** */
 162:C:/Users/stapi/OneDrive/Desktop/GD32VW553/GD32VW55X_Wifi_BLE_SDK/GD32VW55x_RELEASE_V1.0.2/MSDK/ble/app\app_blue_courier_link.c **** static void bcwl_ntf_event_send(uint8_t *p_val, uint16_t len)
 163:C:/Users/stapi/OneDrive/Desktop/GD32VW553/GD32VW55X_Wifi_BLE_SDK/GD32VW55x_RELEASE_V1.0.2/MSDK/ble/app\app_blue_courier_link.c **** {
 164:C:/Users/stapi/OneDrive/Desktop/GD32VW553/GD32VW55X_Wifi_BLE_SDK/GD32VW55x_RELEASE_V1.0.2/MSDK/ble/app\app_blue_courier_link.c ****     if (bcwl_env.ntf_cfg == 0) {
 165:C:/Users/stapi/OneDrive/Desktop/GD32VW553/GD32VW55X_Wifi_BLE_SDK/GD32VW55x_RELEASE_V1.0.2/MSDK/ble/app\app_blue_courier_link.c ****         dbg_print(ERR, "%s fail\r\n", __func__);
 166:C:/Users/stapi/OneDrive/Desktop/GD32VW553/GD32VW55X_Wifi_BLE_SDK/GD32VW55x_RELEASE_V1.0.2/MSDK/ble/app\app_blue_courier_link.c ****         return;
 167:C:/Users/stapi/OneDrive/Desktop/GD32VW553/GD32VW55X_Wifi_BLE_SDK/GD32VW55x_RELEASE_V1.0.2/MSDK/ble/app\app_blue_courier_link.c ****     }
 168:C:/Users/stapi/OneDrive/Desktop/GD32VW553/GD32VW55X_Wifi_BLE_SDK/GD32VW55x_RELEASE_V1.0.2/MSDK/ble/app\app_blue_courier_link.c **** 
 169:C:/Users/stapi/OneDrive/Desktop/GD32VW553/GD32VW55X_Wifi_BLE_SDK/GD32VW55x_RELEASE_V1.0.2/MSDK/ble/app\app_blue_courier_link.c ****     ble_gatts_ntf_ind_send(bcwl_env.conn_id, prf_id, BCW_IDX_NTF, p_val, len, BLE_GATT_NOTIFY);
 170:C:/Users/stapi/OneDrive/Desktop/GD32VW553/GD32VW55X_Wifi_BLE_SDK/GD32VW55x_RELEASE_V1.0.2/MSDK/ble/app\app_blue_courier_link.c **** }
 171:C:/Users/stapi/OneDrive/Desktop/GD32VW553/GD32VW55X_Wifi_BLE_SDK/GD32VW55x_RELEASE_V1.0.2/MSDK/ble/app\app_blue_courier_link.c **** 
 172:C:/Users/stapi/OneDrive/Desktop/GD32VW553/GD32VW55X_Wifi_BLE_SDK/GD32VW55x_RELEASE_V1.0.2/MSDK/ble/app\app_blue_courier_link.c **** /*!
 173:C:/Users/stapi/OneDrive/Desktop/GD32VW553/GD32VW55X_Wifi_BLE_SDK/GD32VW55x_RELEASE_V1.0.2/MSDK/ble/app\app_blue_courier_link.c ****     \brief      Blue courier wifi link send message to peer device
 174:C:/Users/stapi/OneDrive/Desktop/GD32VW553/GD32VW55X_Wifi_BLE_SDK/GD32VW55x_RELEASE_V1.0.2/MSDK/ble/app\app_blue_courier_link.c ****     \param[in]  opcode: opcode
 175:C:/Users/stapi/OneDrive/Desktop/GD32VW553/GD32VW55X_Wifi_BLE_SDK/GD32VW55x_RELEASE_V1.0.2/MSDK/ble/app\app_blue_courier_link.c ****     \param[in]  data: pointer to message data
 176:C:/Users/stapi/OneDrive/Desktop/GD32VW553/GD32VW55X_Wifi_BLE_SDK/GD32VW55x_RELEASE_V1.0.2/MSDK/ble/app\app_blue_courier_link.c ****     \param[in]  len: message length
 177:C:/Users/stapi/OneDrive/Desktop/GD32VW553/GD32VW55X_Wifi_BLE_SDK/GD32VW55x_RELEASE_V1.0.2/MSDK/ble/app\app_blue_courier_link.c ****     \param[out] none
 178:C:/Users/stapi/OneDrive/Desktop/GD32VW553/GD32VW55X_Wifi_BLE_SDK/GD32VW55x_RELEASE_V1.0.2/MSDK/ble/app\app_blue_courier_link.c ****     \retval     none
 179:C:/Users/stapi/OneDrive/Desktop/GD32VW553/GD32VW55X_Wifi_BLE_SDK/GD32VW55x_RELEASE_V1.0.2/MSDK/ble/app\app_blue_courier_link.c **** */
 180:C:/Users/stapi/OneDrive/Desktop/GD32VW553/GD32VW55X_Wifi_BLE_SDK/GD32VW55x_RELEASE_V1.0.2/MSDK/ble/app\app_blue_courier_link.c **** void bcwl_send(uint8_t opcode, uint8_t *data, uint16_t len)
 181:C:/Users/stapi/OneDrive/Desktop/GD32VW553/GD32VW55X_Wifi_BLE_SDK/GD32VW55x_RELEASE_V1.0.2/MSDK/ble/app\app_blue_courier_link.c **** {
 182:C:/Users/stapi/OneDrive/Desktop/GD32VW553/GD32VW55X_Wifi_BLE_SDK/GD32VW55x_RELEASE_V1.0.2/MSDK/ble/app\app_blue_courier_link.c ****     uint16_t crc;
 183:C:/Users/stapi/OneDrive/Desktop/GD32VW553/GD32VW55X_Wifi_BLE_SDK/GD32VW55x_RELEASE_V1.0.2/MSDK/ble/app\app_blue_courier_link.c ****     bcwl_header_t *hdr = NULL;
 184:C:/Users/stapi/OneDrive/Desktop/GD32VW553/GD32VW55X_Wifi_BLE_SDK/GD32VW55x_RELEASE_V1.0.2/MSDK/ble/app\app_blue_courier_link.c ****     uint16_t remain_len = len;
 185:C:/Users/stapi/OneDrive/Desktop/GD32VW553/GD32VW55X_Wifi_BLE_SDK/GD32VW55x_RELEASE_V1.0.2/MSDK/ble/app\app_blue_courier_link.c **** 
 186:C:/Users/stapi/OneDrive/Desktop/GD32VW553/GD32VW55X_Wifi_BLE_SDK/GD32VW55x_RELEASE_V1.0.2/MSDK/ble/app\app_blue_courier_link.c ****     if (len > bcwl_env.peer_recv_size) {
 187:C:/Users/stapi/OneDrive/Desktop/GD32VW553/GD32VW55X_Wifi_BLE_SDK/GD32VW55x_RELEASE_V1.0.2/MSDK/ble/app\app_blue_courier_link.c ****         dbg_print(ERR, "%s send len exceed the maximum, %d\n", __func__, len);
 188:C:/Users/stapi/OneDrive/Desktop/GD32VW553/GD32VW55X_Wifi_BLE_SDK/GD32VW55x_RELEASE_V1.0.2/MSDK/ble/app\app_blue_courier_link.c ****         return;
 189:C:/Users/stapi/OneDrive/Desktop/GD32VW553/GD32VW55X_Wifi_BLE_SDK/GD32VW55x_RELEASE_V1.0.2/MSDK/ble/app\app_blue_courier_link.c ****     }
 190:C:/Users/stapi/OneDrive/Desktop/GD32VW553/GD32VW55X_Wifi_BLE_SDK/GD32VW55x_RELEASE_V1.0.2/MSDK/ble/app\app_blue_courier_link.c **** 
 191:C:/Users/stapi/OneDrive/Desktop/GD32VW553/GD32VW55X_Wifi_BLE_SDK/GD32VW55x_RELEASE_V1.0.2/MSDK/ble/app\app_blue_courier_link.c ****     while (remain_len > 0) {
 192:C:/Users/stapi/OneDrive/Desktop/GD32VW553/GD32VW55X_Wifi_BLE_SDK/GD32VW55x_RELEASE_V1.0.2/MSDK/ble/app\app_blue_courier_link.c ****         if (remain_len > bcwl_env.frag_size) {
 193:C:/Users/stapi/OneDrive/Desktop/GD32VW553/GD32VW55X_Wifi_BLE_SDK/GD32VW55x_RELEASE_V1.0.2/MSDK/ble/app\app_blue_courier_link.c ****             hdr = sys_malloc(sizeof(bcwl_header_t) + bcwl_env.frag_size + 2);
 194:C:/Users/stapi/OneDrive/Desktop/GD32VW553/GD32VW55X_Wifi_BLE_SDK/GD32VW55x_RELEASE_V1.0.2/MSDK/ble/app\app_blue_courier_link.c ****             if (hdr == NULL) {
 195:C:/Users/stapi/OneDrive/Desktop/GD32VW553/GD32VW55X_Wifi_BLE_SDK/GD32VW55x_RELEASE_V1.0.2/MSDK/ble/app\app_blue_courier_link.c ****                 dbg_print(ERR, "%s no mem\n", __func__);
 196:C:/Users/stapi/OneDrive/Desktop/GD32VW553/GD32VW55X_Wifi_BLE_SDK/GD32VW55x_RELEASE_V1.0.2/MSDK/ble/app\app_blue_courier_link.c ****                 bcwl_error_report(BCWL_ERR_SEND_NO_MEM);
 197:C:/Users/stapi/OneDrive/Desktop/GD32VW553/GD32VW55X_Wifi_BLE_SDK/GD32VW55x_RELEASE_V1.0.2/MSDK/ble/app\app_blue_courier_link.c ****                 return;
 198:C:/Users/stapi/OneDrive/Desktop/GD32VW553/GD32VW55X_Wifi_BLE_SDK/GD32VW55x_RELEASE_V1.0.2/MSDK/ble/app\app_blue_courier_link.c ****             }
 199:C:/Users/stapi/OneDrive/Desktop/GD32VW553/GD32VW55X_Wifi_BLE_SDK/GD32VW55x_RELEASE_V1.0.2/MSDK/ble/app\app_blue_courier_link.c **** 
 200:C:/Users/stapi/OneDrive/Desktop/GD32VW553/GD32VW55X_Wifi_BLE_SDK/GD32VW55x_RELEASE_V1.0.2/MSDK/ble/app\app_blue_courier_link.c ****             hdr->flag = 0;
 201:C:/Users/stapi/OneDrive/Desktop/GD32VW553/GD32VW55X_Wifi_BLE_SDK/GD32VW55x_RELEASE_V1.0.2/MSDK/ble/app\app_blue_courier_link.c ****             hdr->data_len = bcwl_env.frag_size;
 202:C:/Users/stapi/OneDrive/Desktop/GD32VW553/GD32VW55X_Wifi_BLE_SDK/GD32VW55x_RELEASE_V1.0.2/MSDK/ble/app\app_blue_courier_link.c ****             if (remain_len == len) {
 203:C:/Users/stapi/OneDrive/Desktop/GD32VW553/GD32VW55X_Wifi_BLE_SDK/GD32VW55x_RELEASE_V1.0.2/MSDK/ble/app\app_blue_courier_link.c ****                 /* start segment */
 204:C:/Users/stapi/OneDrive/Desktop/GD32VW553/GD32VW55X_Wifi_BLE_SDK/GD32VW55x_RELEASE_V1.0.2/MSDK/ble/app\app_blue_courier_link.c ****                 hdr->flag |= BCWL_FLAG_BEGIN_MASK;
 205:C:/Users/stapi/OneDrive/Desktop/GD32VW553/GD32VW55X_Wifi_BLE_SDK/GD32VW55x_RELEASE_V1.0.2/MSDK/ble/app\app_blue_courier_link.c ****                 hdr->data[0] = remain_len & 0xff;
 206:C:/Users/stapi/OneDrive/Desktop/GD32VW553/GD32VW55X_Wifi_BLE_SDK/GD32VW55x_RELEASE_V1.0.2/MSDK/ble/app\app_blue_courier_link.c ****                 hdr->data[1] = (remain_len >> 8) & 0xff;
 207:C:/Users/stapi/OneDrive/Desktop/GD32VW553/GD32VW55X_Wifi_BLE_SDK/GD32VW55x_RELEASE_V1.0.2/MSDK/ble/app\app_blue_courier_link.c ****                 sys_memcpy(hdr->data + 2, &data[len - remain_len], hdr->data_len - 2); //copy first
 208:C:/Users/stapi/OneDrive/Desktop/GD32VW553/GD32VW55X_Wifi_BLE_SDK/GD32VW55x_RELEASE_V1.0.2/MSDK/ble/app\app_blue_courier_link.c ****                 remain_len -= (hdr->data_len - 2);
 209:C:/Users/stapi/OneDrive/Desktop/GD32VW553/GD32VW55X_Wifi_BLE_SDK/GD32VW55x_RELEASE_V1.0.2/MSDK/ble/app\app_blue_courier_link.c ****             } else {
 210:C:/Users/stapi/OneDrive/Desktop/GD32VW553/GD32VW55X_Wifi_BLE_SDK/GD32VW55x_RELEASE_V1.0.2/MSDK/ble/app\app_blue_courier_link.c ****                 /* continue segment */
 211:C:/Users/stapi/OneDrive/Desktop/GD32VW553/GD32VW55X_Wifi_BLE_SDK/GD32VW55x_RELEASE_V1.0.2/MSDK/ble/app\app_blue_courier_link.c ****                 sys_memcpy(hdr->data, &data[len - remain_len], hdr->data_len); //copy continue
 212:C:/Users/stapi/OneDrive/Desktop/GD32VW553/GD32VW55X_Wifi_BLE_SDK/GD32VW55x_RELEASE_V1.0.2/MSDK/ble/app\app_blue_courier_link.c ****                 remain_len -= hdr->data_len;
 213:C:/Users/stapi/OneDrive/Desktop/GD32VW553/GD32VW55X_Wifi_BLE_SDK/GD32VW55x_RELEASE_V1.0.2/MSDK/ble/app\app_blue_courier_link.c ****             }
 214:C:/Users/stapi/OneDrive/Desktop/GD32VW553/GD32VW55X_Wifi_BLE_SDK/GD32VW55x_RELEASE_V1.0.2/MSDK/ble/app\app_blue_courier_link.c ****         } else {
 215:C:/Users/stapi/OneDrive/Desktop/GD32VW553/GD32VW55X_Wifi_BLE_SDK/GD32VW55x_RELEASE_V1.0.2/MSDK/ble/app\app_blue_courier_link.c ****             /* end or complete segment */
 216:C:/Users/stapi/OneDrive/Desktop/GD32VW553/GD32VW55X_Wifi_BLE_SDK/GD32VW55x_RELEASE_V1.0.2/MSDK/ble/app\app_blue_courier_link.c ****             hdr = sys_malloc(sizeof(bcwl_header_t) + remain_len + 2);
 217:C:/Users/stapi/OneDrive/Desktop/GD32VW553/GD32VW55X_Wifi_BLE_SDK/GD32VW55x_RELEASE_V1.0.2/MSDK/ble/app\app_blue_courier_link.c ****             if (hdr == NULL) {
 218:C:/Users/stapi/OneDrive/Desktop/GD32VW553/GD32VW55X_Wifi_BLE_SDK/GD32VW55x_RELEASE_V1.0.2/MSDK/ble/app\app_blue_courier_link.c ****                 dbg_print(ERR, "%s no mem\n", __func__);
 219:C:/Users/stapi/OneDrive/Desktop/GD32VW553/GD32VW55X_Wifi_BLE_SDK/GD32VW55x_RELEASE_V1.0.2/MSDK/ble/app\app_blue_courier_link.c ****                 bcwl_error_report(BCWL_ERR_SEND_NO_MEM);
 220:C:/Users/stapi/OneDrive/Desktop/GD32VW553/GD32VW55X_Wifi_BLE_SDK/GD32VW55x_RELEASE_V1.0.2/MSDK/ble/app\app_blue_courier_link.c ****                 return;
 221:C:/Users/stapi/OneDrive/Desktop/GD32VW553/GD32VW55X_Wifi_BLE_SDK/GD32VW55x_RELEASE_V1.0.2/MSDK/ble/app\app_blue_courier_link.c ****             }
 222:C:/Users/stapi/OneDrive/Desktop/GD32VW553/GD32VW55X_Wifi_BLE_SDK/GD32VW55x_RELEASE_V1.0.2/MSDK/ble/app\app_blue_courier_link.c **** 
 223:C:/Users/stapi/OneDrive/Desktop/GD32VW553/GD32VW55X_Wifi_BLE_SDK/GD32VW55x_RELEASE_V1.0.2/MSDK/ble/app\app_blue_courier_link.c ****             hdr->flag = (len <= bcwl_env.frag_size ? BCWL_FLAG_BEGIN_MASK : 0) | BCWL_FLAG_END_MASK
 224:C:/Users/stapi/OneDrive/Desktop/GD32VW553/GD32VW55X_Wifi_BLE_SDK/GD32VW55x_RELEASE_V1.0.2/MSDK/ble/app\app_blue_courier_link.c ****             hdr->data_len = remain_len;
 225:C:/Users/stapi/OneDrive/Desktop/GD32VW553/GD32VW55X_Wifi_BLE_SDK/GD32VW55x_RELEASE_V1.0.2/MSDK/ble/app\app_blue_courier_link.c ****             sys_memcpy(hdr->data, &data[len - remain_len], hdr->data_len); //copy end
 226:C:/Users/stapi/OneDrive/Desktop/GD32VW553/GD32VW55X_Wifi_BLE_SDK/GD32VW55x_RELEASE_V1.0.2/MSDK/ble/app\app_blue_courier_link.c ****             remain_len -= hdr->data_len;
 227:C:/Users/stapi/OneDrive/Desktop/GD32VW553/GD32VW55X_Wifi_BLE_SDK/GD32VW55x_RELEASE_V1.0.2/MSDK/ble/app\app_blue_courier_link.c ****         }
 228:C:/Users/stapi/OneDrive/Desktop/GD32VW553/GD32VW55X_Wifi_BLE_SDK/GD32VW55x_RELEASE_V1.0.2/MSDK/ble/app\app_blue_courier_link.c **** 
 229:C:/Users/stapi/OneDrive/Desktop/GD32VW553/GD32VW55X_Wifi_BLE_SDK/GD32VW55x_RELEASE_V1.0.2/MSDK/ble/app\app_blue_courier_link.c ****         hdr->opcode = opcode;
 230:C:/Users/stapi/OneDrive/Desktop/GD32VW553/GD32VW55X_Wifi_BLE_SDK/GD32VW55x_RELEASE_V1.0.2/MSDK/ble/app\app_blue_courier_link.c ****         hdr->seq = bcwl_env.send_seq++;
 231:C:/Users/stapi/OneDrive/Desktop/GD32VW553/GD32VW55X_Wifi_BLE_SDK/GD32VW55x_RELEASE_V1.0.2/MSDK/ble/app\app_blue_courier_link.c **** 
 232:C:/Users/stapi/OneDrive/Desktop/GD32VW553/GD32VW55X_Wifi_BLE_SDK/GD32VW55x_RELEASE_V1.0.2/MSDK/ble/app\app_blue_courier_link.c ****         crc = co_crc16(&hdr->seq, hdr->data_len + sizeof(bcwl_header_t) - 1, 0);
 233:C:/Users/stapi/OneDrive/Desktop/GD32VW553/GD32VW55X_Wifi_BLE_SDK/GD32VW55x_RELEASE_V1.0.2/MSDK/ble/app\app_blue_courier_link.c ****         hdr->data[hdr->data_len] = crc & 0xff;
 234:C:/Users/stapi/OneDrive/Desktop/GD32VW553/GD32VW55X_Wifi_BLE_SDK/GD32VW55x_RELEASE_V1.0.2/MSDK/ble/app\app_blue_courier_link.c ****         hdr->data[hdr->data_len + 1] = (crc >> 8) & 0xff;
 235:C:/Users/stapi/OneDrive/Desktop/GD32VW553/GD32VW55X_Wifi_BLE_SDK/GD32VW55x_RELEASE_V1.0.2/MSDK/ble/app\app_blue_courier_link.c **** 
 236:C:/Users/stapi/OneDrive/Desktop/GD32VW553/GD32VW55X_Wifi_BLE_SDK/GD32VW55x_RELEASE_V1.0.2/MSDK/ble/app\app_blue_courier_link.c ****         bcwl_ntf_event_send((uint8_t *)hdr, hdr->data_len + sizeof(bcwl_header_t) + 2);
 237:C:/Users/stapi/OneDrive/Desktop/GD32VW553/GD32VW55X_Wifi_BLE_SDK/GD32VW55x_RELEASE_V1.0.2/MSDK/ble/app\app_blue_courier_link.c **** 
 238:C:/Users/stapi/OneDrive/Desktop/GD32VW553/GD32VW55X_Wifi_BLE_SDK/GD32VW55x_RELEASE_V1.0.2/MSDK/ble/app\app_blue_courier_link.c ****         sys_mfree(hdr);
 239:C:/Users/stapi/OneDrive/Desktop/GD32VW553/GD32VW55X_Wifi_BLE_SDK/GD32VW55x_RELEASE_V1.0.2/MSDK/ble/app\app_blue_courier_link.c ****         hdr =  NULL;
 240:C:/Users/stapi/OneDrive/Desktop/GD32VW553/GD32VW55X_Wifi_BLE_SDK/GD32VW55x_RELEASE_V1.0.2/MSDK/ble/app\app_blue_courier_link.c ****     }
 241:C:/Users/stapi/OneDrive/Desktop/GD32VW553/GD32VW55X_Wifi_BLE_SDK/GD32VW55x_RELEASE_V1.0.2/MSDK/ble/app\app_blue_courier_link.c **** 
 242:C:/Users/stapi/OneDrive/Desktop/GD32VW553/GD32VW55X_Wifi_BLE_SDK/GD32VW55x_RELEASE_V1.0.2/MSDK/ble/app\app_blue_courier_link.c **** }
 243:C:/Users/stapi/OneDrive/Desktop/GD32VW553/GD32VW55X_Wifi_BLE_SDK/GD32VW55x_RELEASE_V1.0.2/MSDK/ble/app\app_blue_courier_link.c **** 
 244:C:/Users/stapi/OneDrive/Desktop/GD32VW553/GD32VW55X_Wifi_BLE_SDK/GD32VW55x_RELEASE_V1.0.2/MSDK/ble/app\app_blue_courier_link.c **** /*!
 245:C:/Users/stapi/OneDrive/Desktop/GD32VW553/GD32VW55X_Wifi_BLE_SDK/GD32VW55x_RELEASE_V1.0.2/MSDK/ble/app\app_blue_courier_link.c ****     \brief      Blue courier wifi link receive message from peer device
 246:C:/Users/stapi/OneDrive/Desktop/GD32VW553/GD32VW55X_Wifi_BLE_SDK/GD32VW55x_RELEASE_V1.0.2/MSDK/ble/app\app_blue_courier_link.c ****     \param[in]  data: pointer to message data
 247:C:/Users/stapi/OneDrive/Desktop/GD32VW553/GD32VW55X_Wifi_BLE_SDK/GD32VW55x_RELEASE_V1.0.2/MSDK/ble/app\app_blue_courier_link.c ****     \param[in]  len: message length
 248:C:/Users/stapi/OneDrive/Desktop/GD32VW553/GD32VW55X_Wifi_BLE_SDK/GD32VW55x_RELEASE_V1.0.2/MSDK/ble/app\app_blue_courier_link.c ****     \param[out] none
 249:C:/Users/stapi/OneDrive/Desktop/GD32VW553/GD32VW55X_Wifi_BLE_SDK/GD32VW55x_RELEASE_V1.0.2/MSDK/ble/app\app_blue_courier_link.c ****     \retval     none
 250:C:/Users/stapi/OneDrive/Desktop/GD32VW553/GD32VW55X_Wifi_BLE_SDK/GD32VW55x_RELEASE_V1.0.2/MSDK/ble/app\app_blue_courier_link.c **** */
 251:C:/Users/stapi/OneDrive/Desktop/GD32VW553/GD32VW55X_Wifi_BLE_SDK/GD32VW55x_RELEASE_V1.0.2/MSDK/ble/app\app_blue_courier_link.c **** void bcwl_receive(uint8_t *data, uint16_t len)
 252:C:/Users/stapi/OneDrive/Desktop/GD32VW553/GD32VW55X_Wifi_BLE_SDK/GD32VW55x_RELEASE_V1.0.2/MSDK/ble/app\app_blue_courier_link.c **** {
 253:C:/Users/stapi/OneDrive/Desktop/GD32VW553/GD32VW55X_Wifi_BLE_SDK/GD32VW55x_RELEASE_V1.0.2/MSDK/ble/app\app_blue_courier_link.c ****     uint8_t status = BCWL_ERR_RECV_ERROR;
 254:C:/Users/stapi/OneDrive/Desktop/GD32VW553/GD32VW55X_Wifi_BLE_SDK/GD32VW55x_RELEASE_V1.0.2/MSDK/ble/app\app_blue_courier_link.c ****     uint16_t crc, crc_pkt;
 255:C:/Users/stapi/OneDrive/Desktop/GD32VW553/GD32VW55X_Wifi_BLE_SDK/GD32VW55x_RELEASE_V1.0.2/MSDK/ble/app\app_blue_courier_link.c ****     bcwl_header_t *hdr = (bcwl_header_t *)data;
 256:C:/Users/stapi/OneDrive/Desktop/GD32VW553/GD32VW55X_Wifi_BLE_SDK/GD32VW55x_RELEASE_V1.0.2/MSDK/ble/app\app_blue_courier_link.c **** 
 257:C:/Users/stapi/OneDrive/Desktop/GD32VW553/GD32VW55X_Wifi_BLE_SDK/GD32VW55x_RELEASE_V1.0.2/MSDK/ble/app\app_blue_courier_link.c ****     if (len < sizeof(bcwl_header_t)) {
 258:C:/Users/stapi/OneDrive/Desktop/GD32VW553/GD32VW55X_Wifi_BLE_SDK/GD32VW55x_RELEASE_V1.0.2/MSDK/ble/app\app_blue_courier_link.c ****         dbg_print(ERR, "%s size error %d\n", __func__, len);
 259:C:/Users/stapi/OneDrive/Desktop/GD32VW553/GD32VW55X_Wifi_BLE_SDK/GD32VW55x_RELEASE_V1.0.2/MSDK/ble/app\app_blue_courier_link.c ****         bcwl_error_report(BCWL_ERR_PACKET_LEN_ERROR);
 260:C:/Users/stapi/OneDrive/Desktop/GD32VW553/GD32VW55X_Wifi_BLE_SDK/GD32VW55x_RELEASE_V1.0.2/MSDK/ble/app\app_blue_courier_link.c ****         return;
 261:C:/Users/stapi/OneDrive/Desktop/GD32VW553/GD32VW55X_Wifi_BLE_SDK/GD32VW55x_RELEASE_V1.0.2/MSDK/ble/app\app_blue_courier_link.c ****     }
 262:C:/Users/stapi/OneDrive/Desktop/GD32VW553/GD32VW55X_Wifi_BLE_SDK/GD32VW55x_RELEASE_V1.0.2/MSDK/ble/app\app_blue_courier_link.c **** 
 263:C:/Users/stapi/OneDrive/Desktop/GD32VW553/GD32VW55X_Wifi_BLE_SDK/GD32VW55x_RELEASE_V1.0.2/MSDK/ble/app\app_blue_courier_link.c ****     if (!bcwl_env.handshake_success &&
 264:C:/Users/stapi/OneDrive/Desktop/GD32VW553/GD32VW55X_Wifi_BLE_SDK/GD32VW55x_RELEASE_V1.0.2/MSDK/ble/app\app_blue_courier_link.c ****         hdr->opcode != BCWL_OPCODE_BUILD(BCWL_OPCODE_TYPE_MGMT, BCWL_OPCODE_MGMT_SUBTYPE_HANDSHAKE)
 265:C:/Users/stapi/OneDrive/Desktop/GD32VW553/GD32VW55X_Wifi_BLE_SDK/GD32VW55x_RELEASE_V1.0.2/MSDK/ble/app\app_blue_courier_link.c ****         dbg_print(ERR, "%s not handshake %d\n", __func__, hdr->opcode);
 266:C:/Users/stapi/OneDrive/Desktop/GD32VW553/GD32VW55X_Wifi_BLE_SDK/GD32VW55x_RELEASE_V1.0.2/MSDK/ble/app\app_blue_courier_link.c ****         bcwl_error_report(BCWL_ERR_NO_HANDSHAKE);
 267:C:/Users/stapi/OneDrive/Desktop/GD32VW553/GD32VW55X_Wifi_BLE_SDK/GD32VW55x_RELEASE_V1.0.2/MSDK/ble/app\app_blue_courier_link.c ****         return;
 268:C:/Users/stapi/OneDrive/Desktop/GD32VW553/GD32VW55X_Wifi_BLE_SDK/GD32VW55x_RELEASE_V1.0.2/MSDK/ble/app\app_blue_courier_link.c ****     }
 269:C:/Users/stapi/OneDrive/Desktop/GD32VW553/GD32VW55X_Wifi_BLE_SDK/GD32VW55x_RELEASE_V1.0.2/MSDK/ble/app\app_blue_courier_link.c **** 
 270:C:/Users/stapi/OneDrive/Desktop/GD32VW553/GD32VW55X_Wifi_BLE_SDK/GD32VW55x_RELEASE_V1.0.2/MSDK/ble/app\app_blue_courier_link.c ****     if (BCWL_FLAG_IS_REQ_ACK(hdr->flag))
 271:C:/Users/stapi/OneDrive/Desktop/GD32VW553/GD32VW55X_Wifi_BLE_SDK/GD32VW55x_RELEASE_V1.0.2/MSDK/ble/app\app_blue_courier_link.c ****         bcwl_send_ack(hdr->seq);
 272:C:/Users/stapi/OneDrive/Desktop/GD32VW553/GD32VW55X_Wifi_BLE_SDK/GD32VW55x_RELEASE_V1.0.2/MSDK/ble/app\app_blue_courier_link.c **** 
 273:C:/Users/stapi/OneDrive/Desktop/GD32VW553/GD32VW55X_Wifi_BLE_SDK/GD32VW55x_RELEASE_V1.0.2/MSDK/ble/app\app_blue_courier_link.c ****     if (hdr->seq != bcwl_env.recv_seq) {
 274:C:/Users/stapi/OneDrive/Desktop/GD32VW553/GD32VW55X_Wifi_BLE_SDK/GD32VW55x_RELEASE_V1.0.2/MSDK/ble/app\app_blue_courier_link.c ****         dbg_print(ERR, "%s seq %d is not expect %d\n", __func__, hdr->seq, bcwl_env.recv_seq);
 275:C:/Users/stapi/OneDrive/Desktop/GD32VW553/GD32VW55X_Wifi_BLE_SDK/GD32VW55x_RELEASE_V1.0.2/MSDK/ble/app\app_blue_courier_link.c ****         bcwl_error_report(BCWL_ERR_SEQUENCE_ERROR);
 276:C:/Users/stapi/OneDrive/Desktop/GD32VW553/GD32VW55X_Wifi_BLE_SDK/GD32VW55x_RELEASE_V1.0.2/MSDK/ble/app\app_blue_courier_link.c ****         return;
 277:C:/Users/stapi/OneDrive/Desktop/GD32VW553/GD32VW55X_Wifi_BLE_SDK/GD32VW55x_RELEASE_V1.0.2/MSDK/ble/app\app_blue_courier_link.c ****     }
 278:C:/Users/stapi/OneDrive/Desktop/GD32VW553/GD32VW55X_Wifi_BLE_SDK/GD32VW55x_RELEASE_V1.0.2/MSDK/ble/app\app_blue_courier_link.c **** 
 279:C:/Users/stapi/OneDrive/Desktop/GD32VW553/GD32VW55X_Wifi_BLE_SDK/GD32VW55x_RELEASE_V1.0.2/MSDK/ble/app\app_blue_courier_link.c ****     bcwl_env.recv_seq++;
 280:C:/Users/stapi/OneDrive/Desktop/GD32VW553/GD32VW55X_Wifi_BLE_SDK/GD32VW55x_RELEASE_V1.0.2/MSDK/ble/app\app_blue_courier_link.c **** 
 281:C:/Users/stapi/OneDrive/Desktop/GD32VW553/GD32VW55X_Wifi_BLE_SDK/GD32VW55x_RELEASE_V1.0.2/MSDK/ble/app\app_blue_courier_link.c ****     crc = co_crc16(&hdr->seq, hdr->data_len + sizeof(bcwl_header_t) - 1, 0);
 282:C:/Users/stapi/OneDrive/Desktop/GD32VW553/GD32VW55X_Wifi_BLE_SDK/GD32VW55x_RELEASE_V1.0.2/MSDK/ble/app\app_blue_courier_link.c ****     crc_pkt = hdr->data[hdr->data_len] | (((uint16_t) hdr->data[hdr->data_len + 1]) << 8);
 283:C:/Users/stapi/OneDrive/Desktop/GD32VW553/GD32VW55X_Wifi_BLE_SDK/GD32VW55x_RELEASE_V1.0.2/MSDK/ble/app\app_blue_courier_link.c ****     if (crc != crc_pkt) {
 284:C:/Users/stapi/OneDrive/Desktop/GD32VW553/GD32VW55X_Wifi_BLE_SDK/GD32VW55x_RELEASE_V1.0.2/MSDK/ble/app\app_blue_courier_link.c ****         status = BCWL_ERR_CRC_CHECK;
 285:C:/Users/stapi/OneDrive/Desktop/GD32VW553/GD32VW55X_Wifi_BLE_SDK/GD32VW55x_RELEASE_V1.0.2/MSDK/ble/app\app_blue_courier_link.c ****         goto err_recv;
 286:C:/Users/stapi/OneDrive/Desktop/GD32VW553/GD32VW55X_Wifi_BLE_SDK/GD32VW55x_RELEASE_V1.0.2/MSDK/ble/app\app_blue_courier_link.c ****     }
 287:C:/Users/stapi/OneDrive/Desktop/GD32VW553/GD32VW55X_Wifi_BLE_SDK/GD32VW55x_RELEASE_V1.0.2/MSDK/ble/app\app_blue_courier_link.c **** 
 288:C:/Users/stapi/OneDrive/Desktop/GD32VW553/GD32VW55X_Wifi_BLE_SDK/GD32VW55x_RELEASE_V1.0.2/MSDK/ble/app\app_blue_courier_link.c ****     if (BCWL_FLAG_IS_BEGIN(hdr->flag)) {
 289:C:/Users/stapi/OneDrive/Desktop/GD32VW553/GD32VW55X_Wifi_BLE_SDK/GD32VW55x_RELEASE_V1.0.2/MSDK/ble/app\app_blue_courier_link.c ****         if (BCWL_FLAG_IS_END(hdr->flag)) {
 290:C:/Users/stapi/OneDrive/Desktop/GD32VW553/GD32VW55X_Wifi_BLE_SDK/GD32VW55x_RELEASE_V1.0.2/MSDK/ble/app\app_blue_courier_link.c ****             /* receive complete segment */
 291:C:/Users/stapi/OneDrive/Desktop/GD32VW553/GD32VW55X_Wifi_BLE_SDK/GD32VW55x_RELEASE_V1.0.2/MSDK/ble/app\app_blue_courier_link.c ****             bcwl_msg_handler(hdr->opcode, hdr->data, hdr->data_len);
 292:C:/Users/stapi/OneDrive/Desktop/GD32VW553/GD32VW55X_Wifi_BLE_SDK/GD32VW55x_RELEASE_V1.0.2/MSDK/ble/app\app_blue_courier_link.c ****         } else {
 293:C:/Users/stapi/OneDrive/Desktop/GD32VW553/GD32VW55X_Wifi_BLE_SDK/GD32VW55x_RELEASE_V1.0.2/MSDK/ble/app\app_blue_courier_link.c ****             /* receive start segment */
 294:C:/Users/stapi/OneDrive/Desktop/GD32VW553/GD32VW55X_Wifi_BLE_SDK/GD32VW55x_RELEASE_V1.0.2/MSDK/ble/app\app_blue_courier_link.c ****             if (bcwl_env.offset != 0)
 295:C:/Users/stapi/OneDrive/Desktop/GD32VW553/GD32VW55X_Wifi_BLE_SDK/GD32VW55x_RELEASE_V1.0.2/MSDK/ble/app\app_blue_courier_link.c ****                 goto err_recv;
 296:C:/Users/stapi/OneDrive/Desktop/GD32VW553/GD32VW55X_Wifi_BLE_SDK/GD32VW55x_RELEASE_V1.0.2/MSDK/ble/app\app_blue_courier_link.c **** 
 297:C:/Users/stapi/OneDrive/Desktop/GD32VW553/GD32VW55X_Wifi_BLE_SDK/GD32VW55x_RELEASE_V1.0.2/MSDK/ble/app\app_blue_courier_link.c ****             bcwl_env.total_len = hdr->data[0] | (((uint16_t) hdr->data[1]) << 8);
 298:C:/Users/stapi/OneDrive/Desktop/GD32VW553/GD32VW55X_Wifi_BLE_SDK/GD32VW55x_RELEASE_V1.0.2/MSDK/ble/app\app_blue_courier_link.c ****             if (bcwl_env.total_len > BCW_VALUE_LEN)
 299:C:/Users/stapi/OneDrive/Desktop/GD32VW553/GD32VW55X_Wifi_BLE_SDK/GD32VW55x_RELEASE_V1.0.2/MSDK/ble/app\app_blue_courier_link.c ****                 goto err_recv;
 300:C:/Users/stapi/OneDrive/Desktop/GD32VW553/GD32VW55X_Wifi_BLE_SDK/GD32VW55x_RELEASE_V1.0.2/MSDK/ble/app\app_blue_courier_link.c **** 
 301:C:/Users/stapi/OneDrive/Desktop/GD32VW553/GD32VW55X_Wifi_BLE_SDK/GD32VW55x_RELEASE_V1.0.2/MSDK/ble/app\app_blue_courier_link.c ****             bcwl_env.recv_buf = sys_malloc(bcwl_env.total_len);
 302:C:/Users/stapi/OneDrive/Desktop/GD32VW553/GD32VW55X_Wifi_BLE_SDK/GD32VW55x_RELEASE_V1.0.2/MSDK/ble/app\app_blue_courier_link.c ****             if (bcwl_env.recv_buf == NULL) {
 303:C:/Users/stapi/OneDrive/Desktop/GD32VW553/GD32VW55X_Wifi_BLE_SDK/GD32VW55x_RELEASE_V1.0.2/MSDK/ble/app\app_blue_courier_link.c ****                 status = BCWL_ERR_RECV_NO_MEM;
 304:C:/Users/stapi/OneDrive/Desktop/GD32VW553/GD32VW55X_Wifi_BLE_SDK/GD32VW55x_RELEASE_V1.0.2/MSDK/ble/app\app_blue_courier_link.c ****                 goto err_recv;
 305:C:/Users/stapi/OneDrive/Desktop/GD32VW553/GD32VW55X_Wifi_BLE_SDK/GD32VW55x_RELEASE_V1.0.2/MSDK/ble/app\app_blue_courier_link.c ****             }
 306:C:/Users/stapi/OneDrive/Desktop/GD32VW553/GD32VW55X_Wifi_BLE_SDK/GD32VW55x_RELEASE_V1.0.2/MSDK/ble/app\app_blue_courier_link.c **** 
 307:C:/Users/stapi/OneDrive/Desktop/GD32VW553/GD32VW55X_Wifi_BLE_SDK/GD32VW55x_RELEASE_V1.0.2/MSDK/ble/app\app_blue_courier_link.c ****             sys_memcpy(bcwl_env.recv_buf + bcwl_env.offset, hdr->data + 2, hdr->data_len - 2);
 308:C:/Users/stapi/OneDrive/Desktop/GD32VW553/GD32VW55X_Wifi_BLE_SDK/GD32VW55x_RELEASE_V1.0.2/MSDK/ble/app\app_blue_courier_link.c ****             bcwl_env.offset = hdr->data_len - 2;
 309:C:/Users/stapi/OneDrive/Desktop/GD32VW553/GD32VW55X_Wifi_BLE_SDK/GD32VW55x_RELEASE_V1.0.2/MSDK/ble/app\app_blue_courier_link.c ****         }
 310:C:/Users/stapi/OneDrive/Desktop/GD32VW553/GD32VW55X_Wifi_BLE_SDK/GD32VW55x_RELEASE_V1.0.2/MSDK/ble/app\app_blue_courier_link.c ****     } else if (BCWL_FLAG_IS_END(hdr->flag)) {
 311:C:/Users/stapi/OneDrive/Desktop/GD32VW553/GD32VW55X_Wifi_BLE_SDK/GD32VW55x_RELEASE_V1.0.2/MSDK/ble/app\app_blue_courier_link.c ****         /* receive end segment */
 312:C:/Users/stapi/OneDrive/Desktop/GD32VW553/GD32VW55X_Wifi_BLE_SDK/GD32VW55x_RELEASE_V1.0.2/MSDK/ble/app\app_blue_courier_link.c ****         if (bcwl_env.offset == 0 || bcwl_env.offset + hdr->data_len != bcwl_env.total_len)
 313:C:/Users/stapi/OneDrive/Desktop/GD32VW553/GD32VW55X_Wifi_BLE_SDK/GD32VW55x_RELEASE_V1.0.2/MSDK/ble/app\app_blue_courier_link.c ****             goto err_recv;
 314:C:/Users/stapi/OneDrive/Desktop/GD32VW553/GD32VW55X_Wifi_BLE_SDK/GD32VW55x_RELEASE_V1.0.2/MSDK/ble/app\app_blue_courier_link.c **** 
 315:C:/Users/stapi/OneDrive/Desktop/GD32VW553/GD32VW55X_Wifi_BLE_SDK/GD32VW55x_RELEASE_V1.0.2/MSDK/ble/app\app_blue_courier_link.c ****         sys_memcpy(bcwl_env.recv_buf + bcwl_env.offset, hdr->data, hdr->data_len);
 316:C:/Users/stapi/OneDrive/Desktop/GD32VW553/GD32VW55X_Wifi_BLE_SDK/GD32VW55x_RELEASE_V1.0.2/MSDK/ble/app\app_blue_courier_link.c **** 
 317:C:/Users/stapi/OneDrive/Desktop/GD32VW553/GD32VW55X_Wifi_BLE_SDK/GD32VW55x_RELEASE_V1.0.2/MSDK/ble/app\app_blue_courier_link.c ****         bcwl_msg_handler(hdr->opcode, bcwl_env.recv_buf, bcwl_env.total_len);
 318:C:/Users/stapi/OneDrive/Desktop/GD32VW553/GD32VW55X_Wifi_BLE_SDK/GD32VW55x_RELEASE_V1.0.2/MSDK/ble/app\app_blue_courier_link.c **** 
 319:C:/Users/stapi/OneDrive/Desktop/GD32VW553/GD32VW55X_Wifi_BLE_SDK/GD32VW55x_RELEASE_V1.0.2/MSDK/ble/app\app_blue_courier_link.c ****         bcwl_env.offset = 0;
 320:C:/Users/stapi/OneDrive/Desktop/GD32VW553/GD32VW55X_Wifi_BLE_SDK/GD32VW55x_RELEASE_V1.0.2/MSDK/ble/app\app_blue_courier_link.c ****         if (bcwl_env.recv_buf != NULL) {
 321:C:/Users/stapi/OneDrive/Desktop/GD32VW553/GD32VW55X_Wifi_BLE_SDK/GD32VW55x_RELEASE_V1.0.2/MSDK/ble/app\app_blue_courier_link.c ****             sys_mfree(bcwl_env.recv_buf);
 322:C:/Users/stapi/OneDrive/Desktop/GD32VW553/GD32VW55X_Wifi_BLE_SDK/GD32VW55x_RELEASE_V1.0.2/MSDK/ble/app\app_blue_courier_link.c ****             bcwl_env.recv_buf = NULL;
 323:C:/Users/stapi/OneDrive/Desktop/GD32VW553/GD32VW55X_Wifi_BLE_SDK/GD32VW55x_RELEASE_V1.0.2/MSDK/ble/app\app_blue_courier_link.c ****         }
 324:C:/Users/stapi/OneDrive/Desktop/GD32VW553/GD32VW55X_Wifi_BLE_SDK/GD32VW55x_RELEASE_V1.0.2/MSDK/ble/app\app_blue_courier_link.c ****     } else {
 325:C:/Users/stapi/OneDrive/Desktop/GD32VW553/GD32VW55X_Wifi_BLE_SDK/GD32VW55x_RELEASE_V1.0.2/MSDK/ble/app\app_blue_courier_link.c ****         /* receive continue segment */
 326:C:/Users/stapi/OneDrive/Desktop/GD32VW553/GD32VW55X_Wifi_BLE_SDK/GD32VW55x_RELEASE_V1.0.2/MSDK/ble/app\app_blue_courier_link.c ****         if (bcwl_env.offset == 0 || bcwl_env.offset + hdr->data_len >= bcwl_env.total_len)
 327:C:/Users/stapi/OneDrive/Desktop/GD32VW553/GD32VW55X_Wifi_BLE_SDK/GD32VW55x_RELEASE_V1.0.2/MSDK/ble/app\app_blue_courier_link.c ****             goto err_recv;
 328:C:/Users/stapi/OneDrive/Desktop/GD32VW553/GD32VW55X_Wifi_BLE_SDK/GD32VW55x_RELEASE_V1.0.2/MSDK/ble/app\app_blue_courier_link.c **** 
 329:C:/Users/stapi/OneDrive/Desktop/GD32VW553/GD32VW55X_Wifi_BLE_SDK/GD32VW55x_RELEASE_V1.0.2/MSDK/ble/app\app_blue_courier_link.c ****         sys_memcpy(bcwl_env.recv_buf + bcwl_env.offset, hdr->data, hdr->data_len);
 330:C:/Users/stapi/OneDrive/Desktop/GD32VW553/GD32VW55X_Wifi_BLE_SDK/GD32VW55x_RELEASE_V1.0.2/MSDK/ble/app\app_blue_courier_link.c ****         bcwl_env.offset += hdr->data_len;
 331:C:/Users/stapi/OneDrive/Desktop/GD32VW553/GD32VW55X_Wifi_BLE_SDK/GD32VW55x_RELEASE_V1.0.2/MSDK/ble/app\app_blue_courier_link.c ****     }
 332:C:/Users/stapi/OneDrive/Desktop/GD32VW553/GD32VW55X_Wifi_BLE_SDK/GD32VW55x_RELEASE_V1.0.2/MSDK/ble/app\app_blue_courier_link.c **** 
 333:C:/Users/stapi/OneDrive/Desktop/GD32VW553/GD32VW55X_Wifi_BLE_SDK/GD32VW55x_RELEASE_V1.0.2/MSDK/ble/app\app_blue_courier_link.c ****     return;
 334:C:/Users/stapi/OneDrive/Desktop/GD32VW553/GD32VW55X_Wifi_BLE_SDK/GD32VW55x_RELEASE_V1.0.2/MSDK/ble/app\app_blue_courier_link.c **** 
 335:C:/Users/stapi/OneDrive/Desktop/GD32VW553/GD32VW55X_Wifi_BLE_SDK/GD32VW55x_RELEASE_V1.0.2/MSDK/ble/app\app_blue_courier_link.c **** err_recv:
 336:C:/Users/stapi/OneDrive/Desktop/GD32VW553/GD32VW55X_Wifi_BLE_SDK/GD32VW55x_RELEASE_V1.0.2/MSDK/ble/app\app_blue_courier_link.c ****     bcwl_env.offset = 0;
 337:C:/Users/stapi/OneDrive/Desktop/GD32VW553/GD32VW55X_Wifi_BLE_SDK/GD32VW55x_RELEASE_V1.0.2/MSDK/ble/app\app_blue_courier_link.c ****     if (bcwl_env.recv_buf != NULL) {
 338:C:/Users/stapi/OneDrive/Desktop/GD32VW553/GD32VW55X_Wifi_BLE_SDK/GD32VW55x_RELEASE_V1.0.2/MSDK/ble/app\app_blue_courier_link.c ****         sys_mfree(bcwl_env.recv_buf);
 339:C:/Users/stapi/OneDrive/Desktop/GD32VW553/GD32VW55X_Wifi_BLE_SDK/GD32VW55x_RELEASE_V1.0.2/MSDK/ble/app\app_blue_courier_link.c ****         bcwl_env.recv_buf = NULL;
 340:C:/Users/stapi/OneDrive/Desktop/GD32VW553/GD32VW55X_Wifi_BLE_SDK/GD32VW55x_RELEASE_V1.0.2/MSDK/ble/app\app_blue_courier_link.c ****     }
 341:C:/Users/stapi/OneDrive/Desktop/GD32VW553/GD32VW55X_Wifi_BLE_SDK/GD32VW55x_RELEASE_V1.0.2/MSDK/ble/app\app_blue_courier_link.c ****     bcwl_error_report(status);
 342:C:/Users/stapi/OneDrive/Desktop/GD32VW553/GD32VW55X_Wifi_BLE_SDK/GD32VW55x_RELEASE_V1.0.2/MSDK/ble/app\app_blue_courier_link.c ****     dbg_print(ERR, "%s error %u\n", __func__, status);
 343:C:/Users/stapi/OneDrive/Desktop/GD32VW553/GD32VW55X_Wifi_BLE_SDK/GD32VW55x_RELEASE_V1.0.2/MSDK/ble/app\app_blue_courier_link.c **** }
 344:C:/Users/stapi/OneDrive/Desktop/GD32VW553/GD32VW55X_Wifi_BLE_SDK/GD32VW55x_RELEASE_V1.0.2/MSDK/ble/app\app_blue_courier_link.c **** 
 345:C:/Users/stapi/OneDrive/Desktop/GD32VW553/GD32VW55X_Wifi_BLE_SDK/GD32VW55x_RELEASE_V1.0.2/MSDK/ble/app\app_blue_courier_link.c **** /*!
 346:C:/Users/stapi/OneDrive/Desktop/GD32VW553/GD32VW55X_Wifi_BLE_SDK/GD32VW55x_RELEASE_V1.0.2/MSDK/ble/app\app_blue_courier_link.c ****     \brief      Callback function to handle GATT server messages
 347:C:/Users/stapi/OneDrive/Desktop/GD32VW553/GD32VW55X_Wifi_BLE_SDK/GD32VW55x_RELEASE_V1.0.2/MSDK/ble/app\app_blue_courier_link.c ****     \param[in]  p_srv_msg_info: pointer to GATT server message information
 348:C:/Users/stapi/OneDrive/Desktop/GD32VW553/GD32VW55X_Wifi_BLE_SDK/GD32VW55x_RELEASE_V1.0.2/MSDK/ble/app\app_blue_courier_link.c ****     \param[out] none
 349:C:/Users/stapi/OneDrive/Desktop/GD32VW553/GD32VW55X_Wifi_BLE_SDK/GD32VW55x_RELEASE_V1.0.2/MSDK/ble/app\app_blue_courier_link.c ****     \retval     ble_status_t: BLE_ERR_NO_ERROR on success, otherwise an error code
 350:C:/Users/stapi/OneDrive/Desktop/GD32VW553/GD32VW55X_Wifi_BLE_SDK/GD32VW55x_RELEASE_V1.0.2/MSDK/ble/app\app_blue_courier_link.c **** */
 351:C:/Users/stapi/OneDrive/Desktop/GD32VW553/GD32VW55X_Wifi_BLE_SDK/GD32VW55x_RELEASE_V1.0.2/MSDK/ble/app\app_blue_courier_link.c **** static ble_status_t bcwl_gatts_msg_cb(ble_gatts_msg_info_t *p_srv_msg_info)
 352:C:/Users/stapi/OneDrive/Desktop/GD32VW553/GD32VW55X_Wifi_BLE_SDK/GD32VW55x_RELEASE_V1.0.2/MSDK/ble/app\app_blue_courier_link.c **** {
 353:C:/Users/stapi/OneDrive/Desktop/GD32VW553/GD32VW55X_Wifi_BLE_SDK/GD32VW55x_RELEASE_V1.0.2/MSDK/ble/app\app_blue_courier_link.c ****     uint8_t  att_idx;
 354:C:/Users/stapi/OneDrive/Desktop/GD32VW553/GD32VW55X_Wifi_BLE_SDK/GD32VW55x_RELEASE_V1.0.2/MSDK/ble/app\app_blue_courier_link.c ****     uint8_t *data;
 355:C:/Users/stapi/OneDrive/Desktop/GD32VW553/GD32VW55X_Wifi_BLE_SDK/GD32VW55x_RELEASE_V1.0.2/MSDK/ble/app\app_blue_courier_link.c ****     uint16_t data_len, i;
 356:C:/Users/stapi/OneDrive/Desktop/GD32VW553/GD32VW55X_Wifi_BLE_SDK/GD32VW55x_RELEASE_V1.0.2/MSDK/ble/app\app_blue_courier_link.c **** 
 357:C:/Users/stapi/OneDrive/Desktop/GD32VW553/GD32VW55X_Wifi_BLE_SDK/GD32VW55x_RELEASE_V1.0.2/MSDK/ble/app\app_blue_courier_link.c ****     if (p_srv_msg_info->srv_msg_type == BLE_SRV_EVT_GATT_OPERATION) {
 358:C:/Users/stapi/OneDrive/Desktop/GD32VW553/GD32VW55X_Wifi_BLE_SDK/GD32VW55x_RELEASE_V1.0.2/MSDK/ble/app\app_blue_courier_link.c ****         /* Other connection operations are ignored */
 359:C:/Users/stapi/OneDrive/Desktop/GD32VW553/GD32VW55X_Wifi_BLE_SDK/GD32VW55x_RELEASE_V1.0.2/MSDK/ble/app\app_blue_courier_link.c ****         if (p_srv_msg_info->msg_data.gatts_op_info.conn_idx != bcwl_env.conn_id) {
 360:C:/Users/stapi/OneDrive/Desktop/GD32VW553/GD32VW55X_Wifi_BLE_SDK/GD32VW55x_RELEASE_V1.0.2/MSDK/ble/app\app_blue_courier_link.c ****             return BLE_ERR_NO_ERROR;
 361:C:/Users/stapi/OneDrive/Desktop/GD32VW553/GD32VW55X_Wifi_BLE_SDK/GD32VW55x_RELEASE_V1.0.2/MSDK/ble/app\app_blue_courier_link.c ****         }
 362:C:/Users/stapi/OneDrive/Desktop/GD32VW553/GD32VW55X_Wifi_BLE_SDK/GD32VW55x_RELEASE_V1.0.2/MSDK/ble/app\app_blue_courier_link.c **** 
 363:C:/Users/stapi/OneDrive/Desktop/GD32VW553/GD32VW55X_Wifi_BLE_SDK/GD32VW55x_RELEASE_V1.0.2/MSDK/ble/app\app_blue_courier_link.c ****         if (p_srv_msg_info->msg_data.gatts_op_info.gatts_op_sub_evt == BLE_SRV_EVT_WRITE_REQ) {
 364:C:/Users/stapi/OneDrive/Desktop/GD32VW553/GD32VW55X_Wifi_BLE_SDK/GD32VW55x_RELEASE_V1.0.2/MSDK/ble/app\app_blue_courier_link.c ****             att_idx = p_srv_msg_info->msg_data.gatts_op_info.gatts_op_data.write_req.att_idx;
 365:C:/Users/stapi/OneDrive/Desktop/GD32VW553/GD32VW55X_Wifi_BLE_SDK/GD32VW55x_RELEASE_V1.0.2/MSDK/ble/app\app_blue_courier_link.c ****             data = p_srv_msg_info->msg_data.gatts_op_info.gatts_op_data.write_req.p_val;
 366:C:/Users/stapi/OneDrive/Desktop/GD32VW553/GD32VW55X_Wifi_BLE_SDK/GD32VW55x_RELEASE_V1.0.2/MSDK/ble/app\app_blue_courier_link.c ****             data_len = p_srv_msg_info->msg_data.gatts_op_info.gatts_op_data.write_req.val_len;
 367:C:/Users/stapi/OneDrive/Desktop/GD32VW553/GD32VW55X_Wifi_BLE_SDK/GD32VW55x_RELEASE_V1.0.2/MSDK/ble/app\app_blue_courier_link.c **** 
 368:C:/Users/stapi/OneDrive/Desktop/GD32VW553/GD32VW55X_Wifi_BLE_SDK/GD32VW55x_RELEASE_V1.0.2/MSDK/ble/app\app_blue_courier_link.c ****             dbg_print(INFO, "%s att idx %d, value_len %d, value: ", __func__, att_idx, data_len);
 369:C:/Users/stapi/OneDrive/Desktop/GD32VW553/GD32VW55X_Wifi_BLE_SDK/GD32VW55x_RELEASE_V1.0.2/MSDK/ble/app\app_blue_courier_link.c ****             for (i = 0; i < data_len; i++)
 370:C:/Users/stapi/OneDrive/Desktop/GD32VW553/GD32VW55X_Wifi_BLE_SDK/GD32VW55x_RELEASE_V1.0.2/MSDK/ble/app\app_blue_courier_link.c ****                 dbg_print(INFO, "%02x", data[i]);
 371:C:/Users/stapi/OneDrive/Desktop/GD32VW553/GD32VW55X_Wifi_BLE_SDK/GD32VW55x_RELEASE_V1.0.2/MSDK/ble/app\app_blue_courier_link.c ****             dbg_print(INFO, "\r\n");
 372:C:/Users/stapi/OneDrive/Desktop/GD32VW553/GD32VW55X_Wifi_BLE_SDK/GD32VW55x_RELEASE_V1.0.2/MSDK/ble/app\app_blue_courier_link.c **** 
 373:C:/Users/stapi/OneDrive/Desktop/GD32VW553/GD32VW55X_Wifi_BLE_SDK/GD32VW55x_RELEASE_V1.0.2/MSDK/ble/app\app_blue_courier_link.c ****             switch (att_idx) {
 374:C:/Users/stapi/OneDrive/Desktop/GD32VW553/GD32VW55X_Wifi_BLE_SDK/GD32VW55x_RELEASE_V1.0.2/MSDK/ble/app\app_blue_courier_link.c ****             case BCW_IDX_WRITE:
 375:C:/Users/stapi/OneDrive/Desktop/GD32VW553/GD32VW55X_Wifi_BLE_SDK/GD32VW55x_RELEASE_V1.0.2/MSDK/ble/app\app_blue_courier_link.c ****                 bcwl_receive(data, data_len);
 376:C:/Users/stapi/OneDrive/Desktop/GD32VW553/GD32VW55X_Wifi_BLE_SDK/GD32VW55x_RELEASE_V1.0.2/MSDK/ble/app\app_blue_courier_link.c ****                 break;
 377:C:/Users/stapi/OneDrive/Desktop/GD32VW553/GD32VW55X_Wifi_BLE_SDK/GD32VW55x_RELEASE_V1.0.2/MSDK/ble/app\app_blue_courier_link.c ****             case BCW_IDX_NTF_CFG:
 378:C:/Users/stapi/OneDrive/Desktop/GD32VW553/GD32VW55X_Wifi_BLE_SDK/GD32VW55x_RELEASE_V1.0.2/MSDK/ble/app\app_blue_courier_link.c ****                 if (data_len == sizeof(uint16_t))
 379:C:/Users/stapi/OneDrive/Desktop/GD32VW553/GD32VW55X_Wifi_BLE_SDK/GD32VW55x_RELEASE_V1.0.2/MSDK/ble/app\app_blue_courier_link.c ****                     bcwl_env.ntf_cfg = *(uint16_t *)data;
 380:C:/Users/stapi/OneDrive/Desktop/GD32VW553/GD32VW55X_Wifi_BLE_SDK/GD32VW55x_RELEASE_V1.0.2/MSDK/ble/app\app_blue_courier_link.c ****                 else
 381:C:/Users/stapi/OneDrive/Desktop/GD32VW553/GD32VW55X_Wifi_BLE_SDK/GD32VW55x_RELEASE_V1.0.2/MSDK/ble/app\app_blue_courier_link.c ****                     dbg_print(ERR, "%s ntf cfg invalid length\r\n", __func__);
 382:C:/Users/stapi/OneDrive/Desktop/GD32VW553/GD32VW55X_Wifi_BLE_SDK/GD32VW55x_RELEASE_V1.0.2/MSDK/ble/app\app_blue_courier_link.c ****                 break;
 383:C:/Users/stapi/OneDrive/Desktop/GD32VW553/GD32VW55X_Wifi_BLE_SDK/GD32VW55x_RELEASE_V1.0.2/MSDK/ble/app\app_blue_courier_link.c ****             default:
 384:C:/Users/stapi/OneDrive/Desktop/GD32VW553/GD32VW55X_Wifi_BLE_SDK/GD32VW55x_RELEASE_V1.0.2/MSDK/ble/app\app_blue_courier_link.c ****                 break;
 385:C:/Users/stapi/OneDrive/Desktop/GD32VW553/GD32VW55X_Wifi_BLE_SDK/GD32VW55x_RELEASE_V1.0.2/MSDK/ble/app\app_blue_courier_link.c ****             }
 386:C:/Users/stapi/OneDrive/Desktop/GD32VW553/GD32VW55X_Wifi_BLE_SDK/GD32VW55x_RELEASE_V1.0.2/MSDK/ble/app\app_blue_courier_link.c ****         }
 387:C:/Users/stapi/OneDrive/Desktop/GD32VW553/GD32VW55X_Wifi_BLE_SDK/GD32VW55x_RELEASE_V1.0.2/MSDK/ble/app\app_blue_courier_link.c ****     }
 388:C:/Users/stapi/OneDrive/Desktop/GD32VW553/GD32VW55X_Wifi_BLE_SDK/GD32VW55x_RELEASE_V1.0.2/MSDK/ble/app\app_blue_courier_link.c **** 
 389:C:/Users/stapi/OneDrive/Desktop/GD32VW553/GD32VW55X_Wifi_BLE_SDK/GD32VW55x_RELEASE_V1.0.2/MSDK/ble/app\app_blue_courier_link.c ****     return BLE_ERR_NO_ERROR;
 390:C:/Users/stapi/OneDrive/Desktop/GD32VW553/GD32VW55X_Wifi_BLE_SDK/GD32VW55x_RELEASE_V1.0.2/MSDK/ble/app\app_blue_courier_link.c **** }
 391:C:/Users/stapi/OneDrive/Desktop/GD32VW553/GD32VW55X_Wifi_BLE_SDK/GD32VW55x_RELEASE_V1.0.2/MSDK/ble/app\app_blue_courier_link.c **** 
 392:C:/Users/stapi/OneDrive/Desktop/GD32VW553/GD32VW55X_Wifi_BLE_SDK/GD32VW55x_RELEASE_V1.0.2/MSDK/ble/app\app_blue_courier_link.c **** /*!
 393:C:/Users/stapi/OneDrive/Desktop/GD32VW553/GD32VW55X_Wifi_BLE_SDK/GD32VW55x_RELEASE_V1.0.2/MSDK/ble/app\app_blue_courier_link.c ****     \brief      Callback function to handle BLE connection events
 394:C:/Users/stapi/OneDrive/Desktop/GD32VW553/GD32VW55X_Wifi_BLE_SDK/GD32VW55x_RELEASE_V1.0.2/MSDK/ble/app\app_blue_courier_link.c ****     \param[in]  event: BLE connection event type
 395:C:/Users/stapi/OneDrive/Desktop/GD32VW553/GD32VW55X_Wifi_BLE_SDK/GD32VW55x_RELEASE_V1.0.2/MSDK/ble/app\app_blue_courier_link.c ****     \param[in]  p_data: pointer to BLE connection event data
 396:C:/Users/stapi/OneDrive/Desktop/GD32VW553/GD32VW55X_Wifi_BLE_SDK/GD32VW55x_RELEASE_V1.0.2/MSDK/ble/app\app_blue_courier_link.c ****     \param[out] none
 397:C:/Users/stapi/OneDrive/Desktop/GD32VW553/GD32VW55X_Wifi_BLE_SDK/GD32VW55x_RELEASE_V1.0.2/MSDK/ble/app\app_blue_courier_link.c ****     \retval     none
 398:C:/Users/stapi/OneDrive/Desktop/GD32VW553/GD32VW55X_Wifi_BLE_SDK/GD32VW55x_RELEASE_V1.0.2/MSDK/ble/app\app_blue_courier_link.c **** */
 399:C:/Users/stapi/OneDrive/Desktop/GD32VW553/GD32VW55X_Wifi_BLE_SDK/GD32VW55x_RELEASE_V1.0.2/MSDK/ble/app\app_blue_courier_link.c **** void bcwl_conn_evt_handler(ble_conn_evt_t event, ble_conn_data_u *p_data)
 400:C:/Users/stapi/OneDrive/Desktop/GD32VW553/GD32VW55X_Wifi_BLE_SDK/GD32VW55x_RELEASE_V1.0.2/MSDK/ble/app\app_blue_courier_link.c **** {
  16              		.loc 1 400 1
  17              		.cfi_startproc
  18              	.LVL0:
 401:C:/Users/stapi/OneDrive/Desktop/GD32VW553/GD32VW55X_Wifi_BLE_SDK/GD32VW55x_RELEASE_V1.0.2/MSDK/ble/app\app_blue_courier_link.c ****     if (event == BLE_CONN_EVT_STATE_CHG &&
  19              		.loc 1 401 5
  20              		.loc 1 401 8 is_stmt 0
  21 0000 8547     		li	a5,1
  22 0002 6311F506 		bne	a0,a5,.L9
  23              		.loc 1 401 41 discriminator 1
  24 0006 9C41     		lw	a5,0(a1)
  25 0008 639EA704 		bne	a5,a0,.L9
 400:C:/Users/stapi/OneDrive/Desktop/GD32VW553/GD32VW55X_Wifi_BLE_SDK/GD32VW55x_RELEASE_V1.0.2/MSDK/ble/app\app_blue_courier_link.c ****     if (event == BLE_CONN_EVT_STATE_CHG &&
  26              		.loc 1 400 1
  27 000c 17030000 		call	t0,__riscv_save_1
  27      E7020300 
  28              		.cfi_offset 8, -8
  29              		.cfi_offset 1, -4
  30              		.cfi_def_cfa_offset 16
 402:C:/Users/stapi/OneDrive/Desktop/GD32VW553/GD32VW55X_Wifi_BLE_SDK/GD32VW55x_RELEASE_V1.0.2/MSDK/ble/app\app_blue_courier_link.c ****         p_data->conn_state.state == BLE_CONN_STATE_CONNECTED &&
 403:C:/Users/stapi/OneDrive/Desktop/GD32VW553/GD32VW55X_Wifi_BLE_SDK/GD32VW55x_RELEASE_V1.0.2/MSDK/ble/app\app_blue_courier_link.c ****         p_data->conn_state.info.conn_info.actv_idx == bcwl_env.adv_idx) {
  31              		.loc 1 403 63
  32 0014 37040000 		lui	s0,%hi(.LANCHOR0)
  33 0018 13040400 		addi	s0,s0,%lo(.LANCHOR0)
 402:C:/Users/stapi/OneDrive/Desktop/GD32VW553/GD32VW55X_Wifi_BLE_SDK/GD32VW55x_RELEASE_V1.0.2/MSDK/ble/app\app_blue_courier_link.c ****         p_data->conn_state.state == BLE_CONN_STATE_CONNECTED &&
  34              		.loc 1 402 62
  35 001c 03C77501 		lbu	a4,23(a1)
  36 0020 83472400 		lbu	a5,2(s0)
  37 0024 631CF702 		bne	a4,a5,.L1
  38              	.LVL1:
  39              	.LBB17:
  40              	.LBB18:
 404:C:/Users/stapi/OneDrive/Desktop/GD32VW553/GD32VW55X_Wifi_BLE_SDK/GD32VW55x_RELEASE_V1.0.2/MSDK/ble/app\app_blue_courier_link.c ****         bcwl_env.conn_id = p_data->conn_state.info.conn_info.conn_idx;
  41              		.loc 1 404 9 is_stmt 1
  42              		.loc 1 404 26 is_stmt 0
  43 0028 83C74500 		lbu	a5,4(a1)
 405:C:/Users/stapi/OneDrive/Desktop/GD32VW553/GD32VW55X_Wifi_BLE_SDK/GD32VW55x_RELEASE_V1.0.2/MSDK/ble/app\app_blue_courier_link.c ****         /* reinit parameter */
 406:C:/Users/stapi/OneDrive/Desktop/GD32VW553/GD32VW55X_Wifi_BLE_SDK/GD32VW55x_RELEASE_V1.0.2/MSDK/ble/app\app_blue_courier_link.c ****         bcwl_env.ntf_cfg = 0;
 407:C:/Users/stapi/OneDrive/Desktop/GD32VW553/GD32VW55X_Wifi_BLE_SDK/GD32VW55x_RELEASE_V1.0.2/MSDK/ble/app\app_blue_courier_link.c ****         bcwl_env.recv_seq = 0;
 408:C:/Users/stapi/OneDrive/Desktop/GD32VW553/GD32VW55X_Wifi_BLE_SDK/GD32VW55x_RELEASE_V1.0.2/MSDK/ble/app\app_blue_courier_link.c ****         bcwl_env.send_seq = 0;
 409:C:/Users/stapi/OneDrive/Desktop/GD32VW553/GD32VW55X_Wifi_BLE_SDK/GD32VW55x_RELEASE_V1.0.2/MSDK/ble/app\app_blue_courier_link.c ****         bcwl_env.total_len = 0;
 410:C:/Users/stapi/OneDrive/Desktop/GD32VW553/GD32VW55X_Wifi_BLE_SDK/GD32VW55x_RELEASE_V1.0.2/MSDK/ble/app\app_blue_courier_link.c ****         bcwl_env.offset = 0;
 411:C:/Users/stapi/OneDrive/Desktop/GD32VW553/GD32VW55X_Wifi_BLE_SDK/GD32VW55x_RELEASE_V1.0.2/MSDK/ble/app\app_blue_courier_link.c ****         bcwl_env.frag_size = BLE_GATT_MTU_MIN - sizeof(bcwl_header_t) - BLE_GATT_HEADER_LEN - 2/*cr
 412:C:/Users/stapi/OneDrive/Desktop/GD32VW553/GD32VW55X_Wifi_BLE_SDK/GD32VW55x_RELEASE_V1.0.2/MSDK/ble/app\app_blue_courier_link.c ****         bcwl_env.peer_recv_size = BLE_GATT_MTU_MIN;
 413:C:/Users/stapi/OneDrive/Desktop/GD32VW553/GD32VW55X_Wifi_BLE_SDK/GD32VW55x_RELEASE_V1.0.2/MSDK/ble/app\app_blue_courier_link.c ****         bcwl_env.handshake_success = false;
 414:C:/Users/stapi/OneDrive/Desktop/GD32VW553/GD32VW55X_Wifi_BLE_SDK/GD32VW55x_RELEASE_V1.0.2/MSDK/ble/app\app_blue_courier_link.c ****         if (bcwl_env.recv_buf != NULL) {
  44              		.loc 1 414 21
  45 002c 0848     		lw	a0,16(s0)
  46              	.LVL2:
 406:C:/Users/stapi/OneDrive/Desktop/GD32VW553/GD32VW55X_Wifi_BLE_SDK/GD32VW55x_RELEASE_V1.0.2/MSDK/ble/app\app_blue_courier_link.c ****         bcwl_env.recv_seq = 0;
  47              		.loc 1 406 26
  48 002e 23120400 		sh	zero,4(s0)
 404:C:/Users/stapi/OneDrive/Desktop/GD32VW553/GD32VW55X_Wifi_BLE_SDK/GD32VW55x_RELEASE_V1.0.2/MSDK/ble/app\app_blue_courier_link.c ****         bcwl_env.conn_id = p_data->conn_state.info.conn_info.conn_idx;
  49              		.loc 1 404 26
  50 0032 A300F400 		sb	a5,1(s0)
 406:C:/Users/stapi/OneDrive/Desktop/GD32VW553/GD32VW55X_Wifi_BLE_SDK/GD32VW55x_RELEASE_V1.0.2/MSDK/ble/app\app_blue_courier_link.c ****         bcwl_env.recv_seq = 0;
  51              		.loc 1 406 9 is_stmt 1
 407:C:/Users/stapi/OneDrive/Desktop/GD32VW553/GD32VW55X_Wifi_BLE_SDK/GD32VW55x_RELEASE_V1.0.2/MSDK/ble/app\app_blue_courier_link.c ****         bcwl_env.send_seq = 0;
  52              		.loc 1 407 9
 408:C:/Users/stapi/OneDrive/Desktop/GD32VW553/GD32VW55X_Wifi_BLE_SDK/GD32VW55x_RELEASE_V1.0.2/MSDK/ble/app\app_blue_courier_link.c ****         bcwl_env.total_len = 0;
  53              		.loc 1 408 9
 411:C:/Users/stapi/OneDrive/Desktop/GD32VW553/GD32VW55X_Wifi_BLE_SDK/GD32VW55x_RELEASE_V1.0.2/MSDK/ble/app\app_blue_courier_link.c ****         bcwl_env.peer_recv_size = BLE_GATT_MTU_MIN;
  54              		.loc 1 411 28 is_stmt 0
  55 0036 B947     		li	a5,14
  56 0038 230CF400 		sb	a5,24(s0)
 412:C:/Users/stapi/OneDrive/Desktop/GD32VW553/GD32VW55X_Wifi_BLE_SDK/GD32VW55x_RELEASE_V1.0.2/MSDK/ble/app\app_blue_courier_link.c ****         bcwl_env.handshake_success = false;
  57              		.loc 1 412 33
  58 003c DD47     		li	a5,23
 407:C:/Users/stapi/OneDrive/Desktop/GD32VW553/GD32VW55X_Wifi_BLE_SDK/GD32VW55x_RELEASE_V1.0.2/MSDK/ble/app\app_blue_courier_link.c ****         bcwl_env.send_seq = 0;
  59              		.loc 1 407 27
  60 003e 23160400 		sh	zero,12(s0)
 409:C:/Users/stapi/OneDrive/Desktop/GD32VW553/GD32VW55X_Wifi_BLE_SDK/GD32VW55x_RELEASE_V1.0.2/MSDK/ble/app\app_blue_courier_link.c ****         bcwl_env.offset = 0;
  61              		.loc 1 409 9 is_stmt 1
 410:C:/Users/stapi/OneDrive/Desktop/GD32VW553/GD32VW55X_Wifi_BLE_SDK/GD32VW55x_RELEASE_V1.0.2/MSDK/ble/app\app_blue_courier_link.c ****         bcwl_env.frag_size = BLE_GATT_MTU_MIN - sizeof(bcwl_header_t) - BLE_GATT_HEADER_LEN - 2/*cr
  62              		.loc 1 410 9
 411:C:/Users/stapi/OneDrive/Desktop/GD32VW553/GD32VW55X_Wifi_BLE_SDK/GD32VW55x_RELEASE_V1.0.2/MSDK/ble/app\app_blue_courier_link.c ****         bcwl_env.peer_recv_size = BLE_GATT_MTU_MIN;
  63              		.loc 1 411 9
 412:C:/Users/stapi/OneDrive/Desktop/GD32VW553/GD32VW55X_Wifi_BLE_SDK/GD32VW55x_RELEASE_V1.0.2/MSDK/ble/app\app_blue_courier_link.c ****         bcwl_env.handshake_success = false;
  64              		.loc 1 412 9
 409:C:/Users/stapi/OneDrive/Desktop/GD32VW553/GD32VW55X_Wifi_BLE_SDK/GD32VW55x_RELEASE_V1.0.2/MSDK/ble/app\app_blue_courier_link.c ****         bcwl_env.offset = 0;
  65              		.loc 1 409 28 is_stmt 0
  66 0042 232A0400 		sw	zero,20(s0)
 412:C:/Users/stapi/OneDrive/Desktop/GD32VW553/GD32VW55X_Wifi_BLE_SDK/GD32VW55x_RELEASE_V1.0.2/MSDK/ble/app\app_blue_courier_link.c ****         bcwl_env.handshake_success = false;
  67              		.loc 1 412 33
  68 0046 231DF400 		sh	a5,26(s0)
 413:C:/Users/stapi/OneDrive/Desktop/GD32VW553/GD32VW55X_Wifi_BLE_SDK/GD32VW55x_RELEASE_V1.0.2/MSDK/ble/app\app_blue_courier_link.c ****         if (bcwl_env.recv_buf != NULL) {
  69              		.loc 1 413 9 is_stmt 1
 413:C:/Users/stapi/OneDrive/Desktop/GD32VW553/GD32VW55X_Wifi_BLE_SDK/GD32VW55x_RELEASE_V1.0.2/MSDK/ble/app\app_blue_courier_link.c ****         if (bcwl_env.recv_buf != NULL) {
  70              		.loc 1 413 36 is_stmt 0
  71 004a 230E0400 		sb	zero,28(s0)
  72              		.loc 1 414 9 is_stmt 1
  73              		.loc 1 414 12 is_stmt 0
  74 004e 19C5     		beq	a0,zero,.L1
 415:C:/Users/stapi/OneDrive/Desktop/GD32VW553/GD32VW55X_Wifi_BLE_SDK/GD32VW55x_RELEASE_V1.0.2/MSDK/ble/app\app_blue_courier_link.c ****             sys_mfree(bcwl_env.recv_buf);
  75              		.loc 1 415 13 is_stmt 1
  76 0050 97000000 		call	sys_mfree
  76      E7800000 
  77              	.LVL3:
 416:C:/Users/stapi/OneDrive/Desktop/GD32VW553/GD32VW55X_Wifi_BLE_SDK/GD32VW55x_RELEASE_V1.0.2/MSDK/ble/app\app_blue_courier_link.c ****             bcwl_env.recv_buf = NULL;
  78              		.loc 1 416 13
  79              		.loc 1 416 31 is_stmt 0
  80 0058 23280400 		sw	zero,16(s0)
  81              	.LVL4:
  82              	.L1:
  83              	.LBE18:
  84              	.LBE17:
 417:C:/Users/stapi/OneDrive/Desktop/GD32VW553/GD32VW55X_Wifi_BLE_SDK/GD32VW55x_RELEASE_V1.0.2/MSDK/ble/app\app_blue_courier_link.c ****         }
 418:C:/Users/stapi/OneDrive/Desktop/GD32VW553/GD32VW55X_Wifi_BLE_SDK/GD32VW55x_RELEASE_V1.0.2/MSDK/ble/app\app_blue_courier_link.c ****     }
 419:C:/Users/stapi/OneDrive/Desktop/GD32VW553/GD32VW55X_Wifi_BLE_SDK/GD32VW55x_RELEASE_V1.0.2/MSDK/ble/app\app_blue_courier_link.c **** }
  85              		.loc 1 419 1
  86 005c 17030000 		tail	__riscv_restore_1
  86      67000300 
  87              		.cfi_restore 8
  88              		.cfi_restore 1
  89              		.cfi_def_cfa_offset 0
  90              	.LVL5:
  91              	.L9:
  92 0064 8280     		ret
  93              		.cfi_endproc
  94              	.LFE22:
  96              		.section	.rodata.bcwl_adv_mgr_evt_hdlr.str1.4,"aMS",@progbits,1
  97              		.align	2
  98              	.LC0:
  99 0000 25732073 		.string	"%s state change 0x%x ==> 0x%x, reason 0x%x\r\n"
  99      74617465 
  99      20636861 
  99      6E676520 
  99      30782578 
 100              		.section	.text.bcwl_adv_mgr_evt_hdlr,"ax",@progbits
 101              		.align	1
 103              	bcwl_adv_mgr_evt_hdlr:
 104              	.LFB24:
 420:C:/Users/stapi/OneDrive/Desktop/GD32VW553/GD32VW55X_Wifi_BLE_SDK/GD32VW55x_RELEASE_V1.0.2/MSDK/ble/app\app_blue_courier_link.c **** 
 421:C:/Users/stapi/OneDrive/Desktop/GD32VW553/GD32VW55X_Wifi_BLE_SDK/GD32VW55x_RELEASE_V1.0.2/MSDK/ble/app\app_blue_courier_link.c **** /*!
 422:C:/Users/stapi/OneDrive/Desktop/GD32VW553/GD32VW55X_Wifi_BLE_SDK/GD32VW55x_RELEASE_V1.0.2/MSDK/ble/app\app_blue_courier_link.c ****     \brief      Blue courier wifi link start advertising
 423:C:/Users/stapi/OneDrive/Desktop/GD32VW553/GD32VW55X_Wifi_BLE_SDK/GD32VW55x_RELEASE_V1.0.2/MSDK/ble/app\app_blue_courier_link.c ****     \param[in]  none
 424:C:/Users/stapi/OneDrive/Desktop/GD32VW553/GD32VW55X_Wifi_BLE_SDK/GD32VW55x_RELEASE_V1.0.2/MSDK/ble/app\app_blue_courier_link.c ****     \param[out] none
 425:C:/Users/stapi/OneDrive/Desktop/GD32VW553/GD32VW55X_Wifi_BLE_SDK/GD32VW55x_RELEASE_V1.0.2/MSDK/ble/app\app_blue_courier_link.c ****     \retval     ble_status_t: BLE_ERR_NO_ERROR on success, otherwise an error code
 426:C:/Users/stapi/OneDrive/Desktop/GD32VW553/GD32VW55X_Wifi_BLE_SDK/GD32VW55x_RELEASE_V1.0.2/MSDK/ble/app\app_blue_courier_link.c **** */
 427:C:/Users/stapi/OneDrive/Desktop/GD32VW553/GD32VW55X_Wifi_BLE_SDK/GD32VW55x_RELEASE_V1.0.2/MSDK/ble/app\app_blue_courier_link.c **** static ble_status_t bcwl_adv_start(void)
 428:C:/Users/stapi/OneDrive/Desktop/GD32VW553/GD32VW55X_Wifi_BLE_SDK/GD32VW55x_RELEASE_V1.0.2/MSDK/ble/app\app_blue_courier_link.c **** {
 429:C:/Users/stapi/OneDrive/Desktop/GD32VW553/GD32VW55X_Wifi_BLE_SDK/GD32VW55x_RELEASE_V1.0.2/MSDK/ble/app\app_blue_courier_link.c ****     ble_data_t adv_data;
 430:C:/Users/stapi/OneDrive/Desktop/GD32VW553/GD32VW55X_Wifi_BLE_SDK/GD32VW55x_RELEASE_V1.0.2/MSDK/ble/app\app_blue_courier_link.c ****     ble_data_t adv_scanrsp_data;
 431:C:/Users/stapi/OneDrive/Desktop/GD32VW553/GD32VW55X_Wifi_BLE_SDK/GD32VW55x_RELEASE_V1.0.2/MSDK/ble/app\app_blue_courier_link.c ****     ble_adv_data_set_t adv;
 432:C:/Users/stapi/OneDrive/Desktop/GD32VW553/GD32VW55X_Wifi_BLE_SDK/GD32VW55x_RELEASE_V1.0.2/MSDK/ble/app\app_blue_courier_link.c ****     ble_adv_data_set_t scan_rsp;
 433:C:/Users/stapi/OneDrive/Desktop/GD32VW553/GD32VW55X_Wifi_BLE_SDK/GD32VW55x_RELEASE_V1.0.2/MSDK/ble/app\app_blue_courier_link.c ****     uint8_t data[BLE_GAP_LEGACY_ADV_MAX_LEN];
 434:C:/Users/stapi/OneDrive/Desktop/GD32VW553/GD32VW55X_Wifi_BLE_SDK/GD32VW55x_RELEASE_V1.0.2/MSDK/ble/app\app_blue_courier_link.c ****     uint8_t index = 0;
 435:C:/Users/stapi/OneDrive/Desktop/GD32VW553/GD32VW55X_Wifi_BLE_SDK/GD32VW55x_RELEASE_V1.0.2/MSDK/ble/app\app_blue_courier_link.c **** 
 436:C:/Users/stapi/OneDrive/Desktop/GD32VW553/GD32VW55X_Wifi_BLE_SDK/GD32VW55x_RELEASE_V1.0.2/MSDK/ble/app\app_blue_courier_link.c ****     sys_memset(data, 0, BLE_GAP_LEGACY_ADV_MAX_LEN);
 437:C:/Users/stapi/OneDrive/Desktop/GD32VW553/GD32VW55X_Wifi_BLE_SDK/GD32VW55x_RELEASE_V1.0.2/MSDK/ble/app\app_blue_courier_link.c ****     data[index++] = 2;                                       // length
 438:C:/Users/stapi/OneDrive/Desktop/GD32VW553/GD32VW55X_Wifi_BLE_SDK/GD32VW55x_RELEASE_V1.0.2/MSDK/ble/app\app_blue_courier_link.c ****     data[index++] = BLE_AD_TYPE_FLAGS;                       // AD type : flags
 439:C:/Users/stapi/OneDrive/Desktop/GD32VW553/GD32VW55X_Wifi_BLE_SDK/GD32VW55x_RELEASE_V1.0.2/MSDK/ble/app\app_blue_courier_link.c ****     data[index++] = 0x6;                                     // AD value
 440:C:/Users/stapi/OneDrive/Desktop/GD32VW553/GD32VW55X_Wifi_BLE_SDK/GD32VW55x_RELEASE_V1.0.2/MSDK/ble/app\app_blue_courier_link.c ****     data[index++] = 3;                                       // length
 441:C:/Users/stapi/OneDrive/Desktop/GD32VW553/GD32VW55X_Wifi_BLE_SDK/GD32VW55x_RELEASE_V1.0.2/MSDK/ble/app\app_blue_courier_link.c ****     data[index++] = BLE_AD_TYPE_SERVICE_UUID_16_COMPLETE;    // AD type: (Service Data - 16-bit UUI
 442:C:/Users/stapi/OneDrive/Desktop/GD32VW553/GD32VW55X_Wifi_BLE_SDK/GD32VW55x_RELEASE_V1.0.2/MSDK/ble/app\app_blue_courier_link.c ****     data[index++] = (BCW_GATT_SERVICE_UUID & 0xFF);          // AD value
 443:C:/Users/stapi/OneDrive/Desktop/GD32VW553/GD32VW55X_Wifi_BLE_SDK/GD32VW55x_RELEASE_V1.0.2/MSDK/ble/app\app_blue_courier_link.c ****     data[index++] = ((BCW_GATT_SERVICE_UUID >> 8) & 0xFF);   // AD value
 444:C:/Users/stapi/OneDrive/Desktop/GD32VW553/GD32VW55X_Wifi_BLE_SDK/GD32VW55x_RELEASE_V1.0.2/MSDK/ble/app\app_blue_courier_link.c **** 
 445:C:/Users/stapi/OneDrive/Desktop/GD32VW553/GD32VW55X_Wifi_BLE_SDK/GD32VW55x_RELEASE_V1.0.2/MSDK/ble/app\app_blue_courier_link.c ****     adv_data.len = index;
 446:C:/Users/stapi/OneDrive/Desktop/GD32VW553/GD32VW55X_Wifi_BLE_SDK/GD32VW55x_RELEASE_V1.0.2/MSDK/ble/app\app_blue_courier_link.c ****     adv_data.p_data = data;
 447:C:/Users/stapi/OneDrive/Desktop/GD32VW553/GD32VW55X_Wifi_BLE_SDK/GD32VW55x_RELEASE_V1.0.2/MSDK/ble/app\app_blue_courier_link.c ****     adv_scanrsp_data.len = index - 3;
 448:C:/Users/stapi/OneDrive/Desktop/GD32VW553/GD32VW55X_Wifi_BLE_SDK/GD32VW55x_RELEASE_V1.0.2/MSDK/ble/app\app_blue_courier_link.c ****     adv_scanrsp_data.p_data = &data[3]; // not include AD type flags
 449:C:/Users/stapi/OneDrive/Desktop/GD32VW553/GD32VW55X_Wifi_BLE_SDK/GD32VW55x_RELEASE_V1.0.2/MSDK/ble/app\app_blue_courier_link.c ****     adv.data_force = true;
 450:C:/Users/stapi/OneDrive/Desktop/GD32VW553/GD32VW55X_Wifi_BLE_SDK/GD32VW55x_RELEASE_V1.0.2/MSDK/ble/app\app_blue_courier_link.c ****     adv.data.p_data_force = &adv_data;
 451:C:/Users/stapi/OneDrive/Desktop/GD32VW553/GD32VW55X_Wifi_BLE_SDK/GD32VW55x_RELEASE_V1.0.2/MSDK/ble/app\app_blue_courier_link.c ****     scan_rsp.data_force = true;
 452:C:/Users/stapi/OneDrive/Desktop/GD32VW553/GD32VW55X_Wifi_BLE_SDK/GD32VW55x_RELEASE_V1.0.2/MSDK/ble/app\app_blue_courier_link.c ****     scan_rsp.data.p_data_force = &adv_scanrsp_data;
 453:C:/Users/stapi/OneDrive/Desktop/GD32VW553/GD32VW55X_Wifi_BLE_SDK/GD32VW55x_RELEASE_V1.0.2/MSDK/ble/app\app_blue_courier_link.c **** 
 454:C:/Users/stapi/OneDrive/Desktop/GD32VW553/GD32VW55X_Wifi_BLE_SDK/GD32VW55x_RELEASE_V1.0.2/MSDK/ble/app\app_blue_courier_link.c ****     return ble_adv_start(bcwl_env.adv_idx, &adv, &scan_rsp, NULL);
 455:C:/Users/stapi/OneDrive/Desktop/GD32VW553/GD32VW55X_Wifi_BLE_SDK/GD32VW55x_RELEASE_V1.0.2/MSDK/ble/app\app_blue_courier_link.c **** }
 456:C:/Users/stapi/OneDrive/Desktop/GD32VW553/GD32VW55X_Wifi_BLE_SDK/GD32VW55x_RELEASE_V1.0.2/MSDK/ble/app\app_blue_courier_link.c **** 
 457:C:/Users/stapi/OneDrive/Desktop/GD32VW553/GD32VW55X_Wifi_BLE_SDK/GD32VW55x_RELEASE_V1.0.2/MSDK/ble/app\app_blue_courier_link.c **** /*!
 458:C:/Users/stapi/OneDrive/Desktop/GD32VW553/GD32VW55X_Wifi_BLE_SDK/GD32VW55x_RELEASE_V1.0.2/MSDK/ble/app\app_blue_courier_link.c ****     \brief      Callback function to handle BLE advertising events
 459:C:/Users/stapi/OneDrive/Desktop/GD32VW553/GD32VW55X_Wifi_BLE_SDK/GD32VW55x_RELEASE_V1.0.2/MSDK/ble/app\app_blue_courier_link.c ****     \param[in]  adv_evt: BLE advertising event type
 460:C:/Users/stapi/OneDrive/Desktop/GD32VW553/GD32VW55X_Wifi_BLE_SDK/GD32VW55x_RELEASE_V1.0.2/MSDK/ble/app\app_blue_courier_link.c ****     \param[in]  p_data: pointer to BLE advertising event data
 461:C:/Users/stapi/OneDrive/Desktop/GD32VW553/GD32VW55X_Wifi_BLE_SDK/GD32VW55x_RELEASE_V1.0.2/MSDK/ble/app\app_blue_courier_link.c ****     \param[in]  p_context: context used when create advertising
 462:C:/Users/stapi/OneDrive/Desktop/GD32VW553/GD32VW55X_Wifi_BLE_SDK/GD32VW55x_RELEASE_V1.0.2/MSDK/ble/app\app_blue_courier_link.c ****     \param[out] none
 463:C:/Users/stapi/OneDrive/Desktop/GD32VW553/GD32VW55X_Wifi_BLE_SDK/GD32VW55x_RELEASE_V1.0.2/MSDK/ble/app\app_blue_courier_link.c ****     \retval     none
 464:C:/Users/stapi/OneDrive/Desktop/GD32VW553/GD32VW55X_Wifi_BLE_SDK/GD32VW55x_RELEASE_V1.0.2/MSDK/ble/app\app_blue_courier_link.c **** */
 465:C:/Users/stapi/OneDrive/Desktop/GD32VW553/GD32VW55X_Wifi_BLE_SDK/GD32VW55x_RELEASE_V1.0.2/MSDK/ble/app\app_blue_courier_link.c **** static void bcwl_adv_mgr_evt_hdlr(ble_adv_evt_t adv_evt, void *p_data, void *p_context)
 466:C:/Users/stapi/OneDrive/Desktop/GD32VW553/GD32VW55X_Wifi_BLE_SDK/GD32VW55x_RELEASE_V1.0.2/MSDK/ble/app\app_blue_courier_link.c **** {
 105              		.loc 1 466 1 is_stmt 1
 106              		.cfi_startproc
 107              	.LVL6:
 467:C:/Users/stapi/OneDrive/Desktop/GD32VW553/GD32VW55X_Wifi_BLE_SDK/GD32VW55x_RELEASE_V1.0.2/MSDK/ble/app\app_blue_courier_link.c ****     if (adv_evt == BLE_ADV_EVT_STATE_CHG) {
 108              		.loc 1 467 5
 109              		.loc 1 467 8 is_stmt 0
 110 0000 63170510 		bne	a0,zero,.L26
 466:C:/Users/stapi/OneDrive/Desktop/GD32VW553/GD32VW55X_Wifi_BLE_SDK/GD32VW55x_RELEASE_V1.0.2/MSDK/ble/app\app_blue_courier_link.c ****     if (adv_evt == BLE_ADV_EVT_STATE_CHG) {
 111              		.loc 1 466 1
 112 0004 17030000 		call	t0,__riscv_save_3
 112      E7020300 
 113              		.cfi_offset 18, -16
 114              		.cfi_offset 9, -12
 115              		.cfi_offset 8, -8
 116              		.cfi_offset 1, -4
 117              		.cfi_def_cfa_offset 16
 118              	.LBB25:
 119              	.LBB26:
 120              	.LBB27:
 468:C:/Users/stapi/OneDrive/Desktop/GD32VW553/GD32VW55X_Wifi_BLE_SDK/GD32VW55x_RELEASE_V1.0.2/MSDK/ble/app\app_blue_courier_link.c ****         ble_adv_state_chg_t *p_chg = (ble_adv_state_chg_t *)p_data;
 469:C:/Users/stapi/OneDrive/Desktop/GD32VW553/GD32VW55X_Wifi_BLE_SDK/GD32VW55x_RELEASE_V1.0.2/MSDK/ble/app\app_blue_courier_link.c ****         ble_adv_state_t old_state = bcwl_env.adv_state;
 121              		.loc 1 469 25
 122 000c 37040000 		lui	s0,%hi(.LANCHOR0)
 123 0010 93070400 		addi	a5,s0,%lo(.LANCHOR0)
 124 0014 03A98700 		lw	s2,8(a5)
 470:C:/Users/stapi/OneDrive/Desktop/GD32VW553/GD32VW55X_Wifi_BLE_SDK/GD32VW55x_RELEASE_V1.0.2/MSDK/ble/app\app_blue_courier_link.c **** 
 471:C:/Users/stapi/OneDrive/Desktop/GD32VW553/GD32VW55X_Wifi_BLE_SDK/GD32VW55x_RELEASE_V1.0.2/MSDK/ble/app\app_blue_courier_link.c ****         dbg_print(NOTICE, "%s state change 0x%x ==> 0x%x, reason 0x%x\r\n", __func__,
 125              		.loc 1 471 9
 126 0018 B7070000 		lui	a5,%hi(global_debug_level)
 127 001c 03C70700 		lbu	a4,%lo(global_debug_level)(a5)
 128 0020 8947     		li	a5,2
 129              	.LBE27:
 130              	.LBE26:
 131              	.LBE25:
 466:C:/Users/stapi/OneDrive/Desktop/GD32VW553/GD32VW55X_Wifi_BLE_SDK/GD32VW55x_RELEASE_V1.0.2/MSDK/ble/app\app_blue_courier_link.c ****     if (adv_evt == BLE_ADV_EVT_STATE_CHG) {
 132              		.loc 1 466 1
 133 0022 3971     		addi	sp,sp,-64
 134              		.cfi_def_cfa_offset 80
 135 0024 AE84     		mv	s1,a1
 136              	.LVL7:
 137              	.LBB36:
 138              	.LBB34:
 139              	.LBB32:
 468:C:/Users/stapi/OneDrive/Desktop/GD32VW553/GD32VW55X_Wifi_BLE_SDK/GD32VW55x_RELEASE_V1.0.2/MSDK/ble/app\app_blue_courier_link.c ****         ble_adv_state_chg_t *p_chg = (ble_adv_state_chg_t *)p_data;
 140              		.loc 1 468 9 is_stmt 1
 469:C:/Users/stapi/OneDrive/Desktop/GD32VW553/GD32VW55X_Wifi_BLE_SDK/GD32VW55x_RELEASE_V1.0.2/MSDK/ble/app\app_blue_courier_link.c **** 
 141              		.loc 1 469 9
 142              		.loc 1 471 9
 143              		.loc 1 471 9
 144 0026 13040400 		addi	s0,s0,%lo(.LANCHOR0)
 145 002a 63F2E702 		bleu	a4,a5,.L15
 146              		.loc 1 471 9
 147 002e 03D78500 		lhu	a4,8(a1)
 148 0032 D441     		lw	a3,4(a1)
 149 0034 37050000 		lui	a0,%hi(.LC0)
 150              	.LVL8:
 151 0038 B7050000 		lui	a1,%hi(.LANCHOR1)
 152              	.LVL9:
 153 003c 4A86     		mv	a2,s2
 154              	.LVL10:
 155 003e 93850500 		addi	a1,a1,%lo(.LANCHOR1)
 156 0042 13050500 		addi	a0,a0,%lo(.LC0)
 157 0046 97000000 		call	co_printf
 157      E7800000 
 158              	.LVL11:
 159              	.L15:
 160              		.loc 1 471 9
 472:C:/Users/stapi/OneDrive/Desktop/GD32VW553/GD32VW55X_Wifi_BLE_SDK/GD32VW55x_RELEASE_V1.0.2/MSDK/ble/app\app_blue_courier_link.c ****             old_state, p_chg->state, p_chg->reason);
 473:C:/Users/stapi/OneDrive/Desktop/GD32VW553/GD32VW55X_Wifi_BLE_SDK/GD32VW55x_RELEASE_V1.0.2/MSDK/ble/app\app_blue_courier_link.c **** 
 474:C:/Users/stapi/OneDrive/Desktop/GD32VW553/GD32VW55X_Wifi_BLE_SDK/GD32VW55x_RELEASE_V1.0.2/MSDK/ble/app\app_blue_courier_link.c ****         bcwl_env.adv_state = p_chg->state;
 161              		.loc 1 474 9
 162              		.loc 1 474 35 is_stmt 0
 163 004e DC40     		lw	a5,4(s1)
 475:C:/Users/stapi/OneDrive/Desktop/GD32VW553/GD32VW55X_Wifi_BLE_SDK/GD32VW55x_RELEASE_V1.0.2/MSDK/ble/app\app_blue_courier_link.c **** 
 476:C:/Users/stapi/OneDrive/Desktop/GD32VW553/GD32VW55X_Wifi_BLE_SDK/GD32VW55x_RELEASE_V1.0.2/MSDK/ble/app\app_blue_courier_link.c ****         if ((p_chg->state == BLE_ADV_STATE_CREATE) && (old_state == BLE_ADV_STATE_CREATING)) {
 164              		.loc 1 476 12
 165 0050 0947     		li	a4,2
 474:C:/Users/stapi/OneDrive/Desktop/GD32VW553/GD32VW55X_Wifi_BLE_SDK/GD32VW55x_RELEASE_V1.0.2/MSDK/ble/app\app_blue_courier_link.c **** 
 166              		.loc 1 474 28
 167 0052 1CC4     		sw	a5,8(s0)
 168              		.loc 1 476 9 is_stmt 1
 169              		.loc 1 476 12 is_stmt 0
 170 0054 639BE708 		bne	a5,a4,.L16
 171              		.loc 1 476 52
 172 0058 0547     		li	a4,1
 173 005a 6319E906 		bne	s2,a4,.L17
 477:C:/Users/stapi/OneDrive/Desktop/GD32VW553/GD32VW55X_Wifi_BLE_SDK/GD32VW55x_RELEASE_V1.0.2/MSDK/ble/app\app_blue_courier_link.c ****             bcwl_env.adv_idx = p_chg->adv_idx;
 174              		.loc 1 477 13 is_stmt 1
 175              		.loc 1 477 30 is_stmt 0
 176 005e 83C70400 		lbu	a5,0(s1)
 177              	.LBB28:
 178              	.LBB29:
 436:C:/Users/stapi/OneDrive/Desktop/GD32VW553/GD32VW55X_Wifi_BLE_SDK/GD32VW55x_RELEASE_V1.0.2/MSDK/ble/app\app_blue_courier_link.c ****     data[index++] = 2;                                       // length
 179              		.loc 1 436 5
 180 0062 0410     		addi	s1,sp,32
 181              	.LVL12:
 182 0064 7D46     		li	a2,31
 183 0066 8145     		li	a1,0
 184 0068 2685     		mv	a0,s1
 185              	.LBE29:
 186              	.LBE28:
 187              		.loc 1 477 30
 188 006a 2301F400 		sb	a5,2(s0)
 478:C:/Users/stapi/OneDrive/Desktop/GD32VW553/GD32VW55X_Wifi_BLE_SDK/GD32VW55x_RELEASE_V1.0.2/MSDK/ble/app\app_blue_courier_link.c ****             bcwl_adv_start();
 189              		.loc 1 478 13 is_stmt 1
 190              	.LBB31:
 191              	.LBB30:
 429:C:/Users/stapi/OneDrive/Desktop/GD32VW553/GD32VW55X_Wifi_BLE_SDK/GD32VW55x_RELEASE_V1.0.2/MSDK/ble/app\app_blue_courier_link.c ****     ble_data_t adv_scanrsp_data;
 192              		.loc 1 429 5
 430:C:/Users/stapi/OneDrive/Desktop/GD32VW553/GD32VW55X_Wifi_BLE_SDK/GD32VW55x_RELEASE_V1.0.2/MSDK/ble/app\app_blue_courier_link.c ****     ble_adv_data_set_t adv;
 193              		.loc 1 430 5
 431:C:/Users/stapi/OneDrive/Desktop/GD32VW553/GD32VW55X_Wifi_BLE_SDK/GD32VW55x_RELEASE_V1.0.2/MSDK/ble/app\app_blue_courier_link.c ****     ble_adv_data_set_t scan_rsp;
 194              		.loc 1 431 5
 432:C:/Users/stapi/OneDrive/Desktop/GD32VW553/GD32VW55X_Wifi_BLE_SDK/GD32VW55x_RELEASE_V1.0.2/MSDK/ble/app\app_blue_courier_link.c ****     uint8_t data[BLE_GAP_LEGACY_ADV_MAX_LEN];
 195              		.loc 1 432 5
 433:C:/Users/stapi/OneDrive/Desktop/GD32VW553/GD32VW55X_Wifi_BLE_SDK/GD32VW55x_RELEASE_V1.0.2/MSDK/ble/app\app_blue_courier_link.c ****     uint8_t index = 0;
 196              		.loc 1 433 5
 434:C:/Users/stapi/OneDrive/Desktop/GD32VW553/GD32VW55X_Wifi_BLE_SDK/GD32VW55x_RELEASE_V1.0.2/MSDK/ble/app\app_blue_courier_link.c **** 
 197              		.loc 1 434 5
 198              	.LVL13:
 436:C:/Users/stapi/OneDrive/Desktop/GD32VW553/GD32VW55X_Wifi_BLE_SDK/GD32VW55x_RELEASE_V1.0.2/MSDK/ble/app\app_blue_courier_link.c ****     data[index++] = 2;                                       // length
 199              		.loc 1 436 5
 200 006e 97000000 		call	sys_memset
 200      E7800000 
 201              	.LVL14:
 437:C:/Users/stapi/OneDrive/Desktop/GD32VW553/GD32VW55X_Wifi_BLE_SDK/GD32VW55x_RELEASE_V1.0.2/MSDK/ble/app\app_blue_courier_link.c ****     data[index++] = BLE_AD_TYPE_FLAGS;                       // AD type : flags
 202              		.loc 1 437 5
 438:C:/Users/stapi/OneDrive/Desktop/GD32VW553/GD32VW55X_Wifi_BLE_SDK/GD32VW55x_RELEASE_V1.0.2/MSDK/ble/app\app_blue_courier_link.c ****     data[index++] = 0x6;                                     // AD value
 203              		.loc 1 438 5
 439:C:/Users/stapi/OneDrive/Desktop/GD32VW553/GD32VW55X_Wifi_BLE_SDK/GD32VW55x_RELEASE_V1.0.2/MSDK/ble/app\app_blue_courier_link.c ****     data[index++] = 3;                                       // length
 204              		.loc 1 439 5
 440:C:/Users/stapi/OneDrive/Desktop/GD32VW553/GD32VW55X_Wifi_BLE_SDK/GD32VW55x_RELEASE_V1.0.2/MSDK/ble/app\app_blue_courier_link.c ****     data[index++] = BLE_AD_TYPE_SERVICE_UUID_16_COMPLETE;    // AD type: (Service Data - 16-bit UUI
 205              		.loc 1 440 5
 441:C:/Users/stapi/OneDrive/Desktop/GD32VW553/GD32VW55X_Wifi_BLE_SDK/GD32VW55x_RELEASE_V1.0.2/MSDK/ble/app\app_blue_courier_link.c ****     data[index++] = (BCW_GATT_SERVICE_UUID & 0xFF);          // AD value
 206              		.loc 1 441 5
 442:C:/Users/stapi/OneDrive/Desktop/GD32VW553/GD32VW55X_Wifi_BLE_SDK/GD32VW55x_RELEASE_V1.0.2/MSDK/ble/app\app_blue_courier_link.c ****     data[index++] = ((BCW_GATT_SERVICE_UUID >> 8) & 0xFF);   // AD value
 207              		.loc 1 442 5
 443:C:/Users/stapi/OneDrive/Desktop/GD32VW553/GD32VW55X_Wifi_BLE_SDK/GD32VW55x_RELEASE_V1.0.2/MSDK/ble/app\app_blue_courier_link.c **** 
 208              		.loc 1 443 5
 437:C:/Users/stapi/OneDrive/Desktop/GD32VW553/GD32VW55X_Wifi_BLE_SDK/GD32VW55x_RELEASE_V1.0.2/MSDK/ble/app\app_blue_courier_link.c ****     data[index++] = BLE_AD_TYPE_FLAGS;                       // AD type : flags
 209              		.loc 1 437 19 is_stmt 0
 210 0076 B7070603 		li	a5,50724864
 211 007a 93872710 		addi	a5,a5,258
 212 007e 3ED0     		sw	a5,32(sp)
 441:C:/Users/stapi/OneDrive/Desktop/GD32VW553/GD32VW55X_Wifi_BLE_SDK/GD32VW55x_RELEASE_V1.0.2/MSDK/ble/app\app_blue_courier_link.c ****     data[index++] = (BCW_GATT_SERVICE_UUID & 0xFF);          // AD value
 213              		.loc 1 441 19
 214 0080 FD77     		li	a5,-4096
 215 0082 8D07     		addi	a5,a5,3
 216 0084 2312F102 		sh	a5,36(sp)
 443:C:/Users/stapi/OneDrive/Desktop/GD32VW553/GD32VW55X_Wifi_BLE_SDK/GD32VW55x_RELEASE_V1.0.2/MSDK/ble/app\app_blue_courier_link.c **** 
 217              		.loc 1 443 19
 218 0088 FD57     		li	a5,-1
 219 008a 2303F102 		sb	a5,38(sp)
 445:C:/Users/stapi/OneDrive/Desktop/GD32VW553/GD32VW55X_Wifi_BLE_SDK/GD32VW55x_RELEASE_V1.0.2/MSDK/ble/app\app_blue_courier_link.c ****     adv_data.p_data = data;
 220              		.loc 1 445 5 is_stmt 1
 445:C:/Users/stapi/OneDrive/Desktop/GD32VW553/GD32VW55X_Wifi_BLE_SDK/GD32VW55x_RELEASE_V1.0.2/MSDK/ble/app\app_blue_courier_link.c ****     adv_data.p_data = data;
 221              		.loc 1 445 18 is_stmt 0
 222 008e 9D47     		li	a5,7
 223 0090 2312F100 		sh	a5,4(sp)
 446:C:/Users/stapi/OneDrive/Desktop/GD32VW553/GD32VW55X_Wifi_BLE_SDK/GD32VW55x_RELEASE_V1.0.2/MSDK/ble/app\app_blue_courier_link.c ****     adv_scanrsp_data.len = index - 3;
 224              		.loc 1 446 5 is_stmt 1
 454:C:/Users/stapi/OneDrive/Desktop/GD32VW553/GD32VW55X_Wifi_BLE_SDK/GD32VW55x_RELEASE_V1.0.2/MSDK/ble/app\app_blue_courier_link.c **** }
 225              		.loc 1 454 12 is_stmt 0
 226 0094 03452400 		lbu	a0,2(s0)
 447:C:/Users/stapi/OneDrive/Desktop/GD32VW553/GD32VW55X_Wifi_BLE_SDK/GD32VW55x_RELEASE_V1.0.2/MSDK/ble/app\app_blue_courier_link.c ****     adv_scanrsp_data.p_data = &data[3]; // not include AD type flags
 227              		.loc 1 447 26
 228 0098 9147     		li	a5,4
 229 009a 2316F100 		sh	a5,12(sp)
 448:C:/Users/stapi/OneDrive/Desktop/GD32VW553/GD32VW55X_Wifi_BLE_SDK/GD32VW55x_RELEASE_V1.0.2/MSDK/ble/app\app_blue_courier_link.c ****     adv.data_force = true;
 230              		.loc 1 448 29
 231 009e 93073102 		addi	a5,sp,35
 232 00a2 3EC4     		sw	a5,8(sp)
 454:C:/Users/stapi/OneDrive/Desktop/GD32VW553/GD32VW55X_Wifi_BLE_SDK/GD32VW55x_RELEASE_V1.0.2/MSDK/ble/app\app_blue_courier_link.c **** }
 233              		.loc 1 454 12
 234 00a4 8146     		li	a3,0
 452:C:/Users/stapi/OneDrive/Desktop/GD32VW553/GD32VW55X_Wifi_BLE_SDK/GD32VW55x_RELEASE_V1.0.2/MSDK/ble/app\app_blue_courier_link.c **** 
 235              		.loc 1 452 32
 236 00a6 3C00     		addi	a5,sp,8
 454:C:/Users/stapi/OneDrive/Desktop/GD32VW553/GD32VW55X_Wifi_BLE_SDK/GD32VW55x_RELEASE_V1.0.2/MSDK/ble/app\app_blue_courier_link.c **** }
 237              		.loc 1 454 12
 238 00a8 3008     		addi	a2,sp,24
 239 00aa 0C08     		addi	a1,sp,16
 446:C:/Users/stapi/OneDrive/Desktop/GD32VW553/GD32VW55X_Wifi_BLE_SDK/GD32VW55x_RELEASE_V1.0.2/MSDK/ble/app\app_blue_courier_link.c ****     adv_scanrsp_data.len = index - 3;
 240              		.loc 1 446 21
 241 00ac 26C0     		sw	s1,0(sp)
 447:C:/Users/stapi/OneDrive/Desktop/GD32VW553/GD32VW55X_Wifi_BLE_SDK/GD32VW55x_RELEASE_V1.0.2/MSDK/ble/app\app_blue_courier_link.c ****     adv_scanrsp_data.p_data = &data[3]; // not include AD type flags
 242              		.loc 1 447 5 is_stmt 1
 448:C:/Users/stapi/OneDrive/Desktop/GD32VW553/GD32VW55X_Wifi_BLE_SDK/GD32VW55x_RELEASE_V1.0.2/MSDK/ble/app\app_blue_courier_link.c ****     adv.data_force = true;
 243              		.loc 1 448 5
 449:C:/Users/stapi/OneDrive/Desktop/GD32VW553/GD32VW55X_Wifi_BLE_SDK/GD32VW55x_RELEASE_V1.0.2/MSDK/ble/app\app_blue_courier_link.c ****     adv.data.p_data_force = &adv_data;
 244              		.loc 1 449 5
 449:C:/Users/stapi/OneDrive/Desktop/GD32VW553/GD32VW55X_Wifi_BLE_SDK/GD32VW55x_RELEASE_V1.0.2/MSDK/ble/app\app_blue_courier_link.c ****     adv.data.p_data_force = &adv_data;
 245              		.loc 1 449 20 is_stmt 0
 246 00ae 23082101 		sb	s2,16(sp)
 450:C:/Users/stapi/OneDrive/Desktop/GD32VW553/GD32VW55X_Wifi_BLE_SDK/GD32VW55x_RELEASE_V1.0.2/MSDK/ble/app\app_blue_courier_link.c ****     scan_rsp.data_force = true;
 247              		.loc 1 450 5 is_stmt 1
 450:C:/Users/stapi/OneDrive/Desktop/GD32VW553/GD32VW55X_Wifi_BLE_SDK/GD32VW55x_RELEASE_V1.0.2/MSDK/ble/app\app_blue_courier_link.c ****     scan_rsp.data_force = true;
 248              		.loc 1 450 27 is_stmt 0
 249 00b2 0ACA     		sw	sp,20(sp)
 451:C:/Users/stapi/OneDrive/Desktop/GD32VW553/GD32VW55X_Wifi_BLE_SDK/GD32VW55x_RELEASE_V1.0.2/MSDK/ble/app\app_blue_courier_link.c ****     scan_rsp.data.p_data_force = &adv_scanrsp_data;
 250              		.loc 1 451 5 is_stmt 1
 451:C:/Users/stapi/OneDrive/Desktop/GD32VW553/GD32VW55X_Wifi_BLE_SDK/GD32VW55x_RELEASE_V1.0.2/MSDK/ble/app\app_blue_courier_link.c ****     scan_rsp.data.p_data_force = &adv_scanrsp_data;
 251              		.loc 1 451 25 is_stmt 0
 252 00b4 230C2101 		sb	s2,24(sp)
 452:C:/Users/stapi/OneDrive/Desktop/GD32VW553/GD32VW55X_Wifi_BLE_SDK/GD32VW55x_RELEASE_V1.0.2/MSDK/ble/app\app_blue_courier_link.c **** 
 253              		.loc 1 452 5 is_stmt 1
 452:C:/Users/stapi/OneDrive/Desktop/GD32VW553/GD32VW55X_Wifi_BLE_SDK/GD32VW55x_RELEASE_V1.0.2/MSDK/ble/app\app_blue_courier_link.c **** 
 254              		.loc 1 452 32 is_stmt 0
 255 00b8 3ECE     		sw	a5,28(sp)
 454:C:/Users/stapi/OneDrive/Desktop/GD32VW553/GD32VW55X_Wifi_BLE_SDK/GD32VW55x_RELEASE_V1.0.2/MSDK/ble/app\app_blue_courier_link.c **** }
 256              		.loc 1 454 5 is_stmt 1
 454:C:/Users/stapi/OneDrive/Desktop/GD32VW553/GD32VW55X_Wifi_BLE_SDK/GD32VW55x_RELEASE_V1.0.2/MSDK/ble/app\app_blue_courier_link.c **** }
 257              		.loc 1 454 12 is_stmt 0
 258 00ba 97000000 		call	ble_adv_start
 258      E7800000 
 259              	.LVL15:
 260              	.L12:
 261              	.LBE30:
 262              	.LBE31:
 263              	.LBE32:
 264              	.LBE34:
 265              	.LBE36:
 479:C:/Users/stapi/OneDrive/Desktop/GD32VW553/GD32VW55X_Wifi_BLE_SDK/GD32VW55x_RELEASE_V1.0.2/MSDK/ble/app\app_blue_courier_link.c ****         } else if ((p_chg->state == BLE_ADV_STATE_CREATE) && (old_state == BLE_ADV_STATE_START)) {
 480:C:/Users/stapi/OneDrive/Desktop/GD32VW553/GD32VW55X_Wifi_BLE_SDK/GD32VW55x_RELEASE_V1.0.2/MSDK/ble/app\app_blue_courier_link.c ****             if (bcwl_env.remove_after_stop) {
 481:C:/Users/stapi/OneDrive/Desktop/GD32VW553/GD32VW55X_Wifi_BLE_SDK/GD32VW55x_RELEASE_V1.0.2/MSDK/ble/app\app_blue_courier_link.c ****                 ble_adv_remove(bcwl_env.adv_idx);
 482:C:/Users/stapi/OneDrive/Desktop/GD32VW553/GD32VW55X_Wifi_BLE_SDK/GD32VW55x_RELEASE_V1.0.2/MSDK/ble/app\app_blue_courier_link.c ****                 bcwl_env.remove_after_stop = false;
 483:C:/Users/stapi/OneDrive/Desktop/GD32VW553/GD32VW55X_Wifi_BLE_SDK/GD32VW55x_RELEASE_V1.0.2/MSDK/ble/app\app_blue_courier_link.c ****             }
 484:C:/Users/stapi/OneDrive/Desktop/GD32VW553/GD32VW55X_Wifi_BLE_SDK/GD32VW55x_RELEASE_V1.0.2/MSDK/ble/app\app_blue_courier_link.c ****         } else if ((p_chg->reason != BLE_ERR_NO_ERROR) &&  (p_chg->state == BLE_ADV_STATE_IDLE) &&
 485:C:/Users/stapi/OneDrive/Desktop/GD32VW553/GD32VW55X_Wifi_BLE_SDK/GD32VW55x_RELEASE_V1.0.2/MSDK/ble/app\app_blue_courier_link.c ****                    (old_state == BLE_ADV_STATE_CREATING)) {
 486:C:/Users/stapi/OneDrive/Desktop/GD32VW553/GD32VW55X_Wifi_BLE_SDK/GD32VW55x_RELEASE_V1.0.2/MSDK/ble/app\app_blue_courier_link.c ****             ble_conn_callback_unregister(bcwl_conn_evt_handler);
 487:C:/Users/stapi/OneDrive/Desktop/GD32VW553/GD32VW55X_Wifi_BLE_SDK/GD32VW55x_RELEASE_V1.0.2/MSDK/ble/app\app_blue_courier_link.c ****             bcwl_env.mode = 0;
 488:C:/Users/stapi/OneDrive/Desktop/GD32VW553/GD32VW55X_Wifi_BLE_SDK/GD32VW55x_RELEASE_V1.0.2/MSDK/ble/app\app_blue_courier_link.c ****         }
 489:C:/Users/stapi/OneDrive/Desktop/GD32VW553/GD32VW55X_Wifi_BLE_SDK/GD32VW55x_RELEASE_V1.0.2/MSDK/ble/app\app_blue_courier_link.c ****     }
 490:C:/Users/stapi/OneDrive/Desktop/GD32VW553/GD32VW55X_Wifi_BLE_SDK/GD32VW55x_RELEASE_V1.0.2/MSDK/ble/app\app_blue_courier_link.c **** }
 266              		.loc 1 490 1
 267 00c2 2161     		addi	sp,sp,64
 268              		.cfi_remember_state
 269              		.cfi_def_cfa_offset 0
 270 00c4 17030000 		tail	__riscv_restore_3
 270      67000300 
 271              		.cfi_restore 18
 272              		.cfi_restore 9
 273              		.cfi_restore 8
 274              		.cfi_restore 1
 275              		.cfi_def_cfa_offset -16
 276              	.LVL16:
 277              	.L17:
 278              		.cfi_restore_state
 279              	.LBB37:
 280              	.LBB35:
 281              	.LBB33:
 479:C:/Users/stapi/OneDrive/Desktop/GD32VW553/GD32VW55X_Wifi_BLE_SDK/GD32VW55x_RELEASE_V1.0.2/MSDK/ble/app\app_blue_courier_link.c ****         } else if ((p_chg->state == BLE_ADV_STATE_CREATE) && (old_state == BLE_ADV_STATE_START)) {
 282              		.loc 1 479 16 is_stmt 1
 479:C:/Users/stapi/OneDrive/Desktop/GD32VW553/GD32VW55X_Wifi_BLE_SDK/GD32VW55x_RELEASE_V1.0.2/MSDK/ble/app\app_blue_courier_link.c ****         } else if ((p_chg->state == BLE_ADV_STATE_CREATE) && (old_state == BLE_ADV_STATE_START)) {
 283              		.loc 1 479 59 is_stmt 0
 284 00cc 1947     		li	a4,6
 285 00ce 631EE900 		bne	s2,a4,.L16
 480:C:/Users/stapi/OneDrive/Desktop/GD32VW553/GD32VW55X_Wifi_BLE_SDK/GD32VW55x_RELEASE_V1.0.2/MSDK/ble/app\app_blue_courier_link.c ****                 ble_adv_remove(bcwl_env.adv_idx);
 286              		.loc 1 480 13 is_stmt 1
 480:C:/Users/stapi/OneDrive/Desktop/GD32VW553/GD32VW55X_Wifi_BLE_SDK/GD32VW55x_RELEASE_V1.0.2/MSDK/ble/app\app_blue_courier_link.c ****                 ble_adv_remove(bcwl_env.adv_idx);
 287              		.loc 1 480 16 is_stmt 0
 288 00d2 83473400 		lbu	a5,3(s0)
 289 00d6 F5D7     		beq	a5,zero,.L12
 481:C:/Users/stapi/OneDrive/Desktop/GD32VW553/GD32VW55X_Wifi_BLE_SDK/GD32VW55x_RELEASE_V1.0.2/MSDK/ble/app\app_blue_courier_link.c ****                 bcwl_env.remove_after_stop = false;
 290              		.loc 1 481 17 is_stmt 1
 291 00d8 03452400 		lbu	a0,2(s0)
 292 00dc 97000000 		call	ble_adv_remove
 292      E7800000 
 293              	.LVL17:
 482:C:/Users/stapi/OneDrive/Desktop/GD32VW553/GD32VW55X_Wifi_BLE_SDK/GD32VW55x_RELEASE_V1.0.2/MSDK/ble/app\app_blue_courier_link.c ****             }
 294              		.loc 1 482 17
 482:C:/Users/stapi/OneDrive/Desktop/GD32VW553/GD32VW55X_Wifi_BLE_SDK/GD32VW55x_RELEASE_V1.0.2/MSDK/ble/app\app_blue_courier_link.c ****             }
 295              		.loc 1 482 44 is_stmt 0
 296 00e4 A3010400 		sb	zero,3(s0)
 297 00e8 E9BF     		j	.L12
 298              	.L16:
 484:C:/Users/stapi/OneDrive/Desktop/GD32VW553/GD32VW55X_Wifi_BLE_SDK/GD32VW55x_RELEASE_V1.0.2/MSDK/ble/app\app_blue_courier_link.c ****                    (old_state == BLE_ADV_STATE_CREATING)) {
 299              		.loc 1 484 16 is_stmt 1
 484:C:/Users/stapi/OneDrive/Desktop/GD32VW553/GD32VW55X_Wifi_BLE_SDK/GD32VW55x_RELEASE_V1.0.2/MSDK/ble/app\app_blue_courier_link.c ****                    (old_state == BLE_ADV_STATE_CREATING)) {
 300              		.loc 1 484 19 is_stmt 0
 301 00ea 03D78400 		lhu	a4,8(s1)
 302 00ee 71DB     		beq	a4,zero,.L12
 484:C:/Users/stapi/OneDrive/Desktop/GD32VW553/GD32VW55X_Wifi_BLE_SDK/GD32VW55x_RELEASE_V1.0.2/MSDK/ble/app\app_blue_courier_link.c ****                    (old_state == BLE_ADV_STATE_CREATING)) {
 303              		.loc 1 484 56
 304 00f0 E9FB     		bne	a5,zero,.L12
 484:C:/Users/stapi/OneDrive/Desktop/GD32VW553/GD32VW55X_Wifi_BLE_SDK/GD32VW55x_RELEASE_V1.0.2/MSDK/ble/app\app_blue_courier_link.c ****                    (old_state == BLE_ADV_STATE_CREATING)) {
 305              		.loc 1 484 97
 306 00f2 8547     		li	a5,1
 307 00f4 E317F9FC 		bne	s2,a5,.L12
 486:C:/Users/stapi/OneDrive/Desktop/GD32VW553/GD32VW55X_Wifi_BLE_SDK/GD32VW55x_RELEASE_V1.0.2/MSDK/ble/app\app_blue_courier_link.c ****             bcwl_env.mode = 0;
 308              		.loc 1 486 13 is_stmt 1
 309 00f8 37050000 		lui	a0,%hi(bcwl_conn_evt_handler)
 310 00fc 13050500 		addi	a0,a0,%lo(bcwl_conn_evt_handler)
 311 0100 97000000 		call	ble_conn_callback_unregister
 311      E7800000 
 312              	.LVL18:
 487:C:/Users/stapi/OneDrive/Desktop/GD32VW553/GD32VW55X_Wifi_BLE_SDK/GD32VW55x_RELEASE_V1.0.2/MSDK/ble/app\app_blue_courier_link.c ****         }
 313              		.loc 1 487 13
 487:C:/Users/stapi/OneDrive/Desktop/GD32VW553/GD32VW55X_Wifi_BLE_SDK/GD32VW55x_RELEASE_V1.0.2/MSDK/ble/app\app_blue_courier_link.c ****         }
 314              		.loc 1 487 27 is_stmt 0
 315 0108 23000400 		sb	zero,0(s0)
 316              	.LVL19:
 317              	.LBE33:
 318              	.LBE35:
 319              	.LBE37:
 320              		.loc 1 490 1
 321 010c 5DBF     		j	.L12
 322              	.LVL20:
 323              	.L26:
 324              		.cfi_def_cfa_offset 0
 325              		.cfi_restore 1
 326              		.cfi_restore 8
 327              		.cfi_restore 9
 328              		.cfi_restore 18
 329 010e 8280     		ret
 330              		.cfi_endproc
 331              	.LFE24:
 333              		.section	.rodata.bcwl_send.str1.4,"aMS",@progbits,1
 334              		.align	2
 335              	.LC1:
 336 0000 25732073 		.string	"%s send len exceed the maximum, %d\n"
 336      656E6420 
 336      6C656E20 
 336      65786365 
 336      65642074 
 337              		.align	2
 338              	.LC2:
 339 0024 2573206E 		.string	"%s no mem\n"
 339      6F206D65 
 339      6D0A00
 340 002f 00       		.align	2
 341              	.LC3:
 342 0030 25732066 		.string	"%s fail\r\n"
 342      61696C0D 
 342      0A00
 343              		.section	.text.bcwl_send,"ax",@progbits
 344              		.align	1
 345              		.globl	bcwl_send
 347              	bcwl_send:
 348              	.LFB19:
 181:C:/Users/stapi/OneDrive/Desktop/GD32VW553/GD32VW55X_Wifi_BLE_SDK/GD32VW55x_RELEASE_V1.0.2/MSDK/ble/app\app_blue_courier_link.c ****     uint16_t crc;
 349              		.loc 1 181 1 is_stmt 1
 350              		.cfi_startproc
 351              	.LVL21:
 352 0000 17030000 		call	t0,__riscv_save_12
 352      E7020300 
 353              		.cfi_offset 27, -52
 354              		.cfi_offset 26, -48
 355              		.cfi_offset 25, -44
 356              		.cfi_offset 24, -40
 357              		.cfi_offset 23, -36
 358              		.cfi_offset 22, -32
 359              		.cfi_offset 21, -28
 360              		.cfi_offset 20, -24
 361              		.cfi_offset 19, -20
 362              		.cfi_offset 18, -16
 363              		.cfi_offset 9, -12
 364              		.cfi_offset 8, -8
 365              		.cfi_offset 1, -4
 366              		.cfi_def_cfa_offset 64
 182:C:/Users/stapi/OneDrive/Desktop/GD32VW553/GD32VW55X_Wifi_BLE_SDK/GD32VW55x_RELEASE_V1.0.2/MSDK/ble/app\app_blue_courier_link.c ****     bcwl_header_t *hdr = NULL;
 367              		.loc 1 182 5
 183:C:/Users/stapi/OneDrive/Desktop/GD32VW553/GD32VW55X_Wifi_BLE_SDK/GD32VW55x_RELEASE_V1.0.2/MSDK/ble/app\app_blue_courier_link.c ****     uint16_t remain_len = len;
 368              		.loc 1 183 5
 369              	.LVL22:
 184:C:/Users/stapi/OneDrive/Desktop/GD32VW553/GD32VW55X_Wifi_BLE_SDK/GD32VW55x_RELEASE_V1.0.2/MSDK/ble/app\app_blue_courier_link.c **** 
 370              		.loc 1 184 5
 186:C:/Users/stapi/OneDrive/Desktop/GD32VW553/GD32VW55X_Wifi_BLE_SDK/GD32VW55x_RELEASE_V1.0.2/MSDK/ble/app\app_blue_courier_link.c ****         dbg_print(ERR, "%s send len exceed the maximum, %d\n", __func__, len);
 371              		.loc 1 186 5
 186:C:/Users/stapi/OneDrive/Desktop/GD32VW553/GD32VW55X_Wifi_BLE_SDK/GD32VW55x_RELEASE_V1.0.2/MSDK/ble/app\app_blue_courier_link.c ****         dbg_print(ERR, "%s send len exceed the maximum, %d\n", __func__, len);
 372              		.loc 1 186 23 is_stmt 0
 373 0008 B7090000 		lui	s3,%hi(.LANCHOR0)
 374 000c 93870900 		addi	a5,s3,%lo(.LANCHOR0)
 186:C:/Users/stapi/OneDrive/Desktop/GD32VW553/GD32VW55X_Wifi_BLE_SDK/GD32VW55x_RELEASE_V1.0.2/MSDK/ble/app\app_blue_courier_link.c ****         dbg_print(ERR, "%s send len exceed the maximum, %d\n", __func__, len);
 375              		.loc 1 186 8
 376 0010 83D7A701 		lhu	a5,26(a5)
 377 0014 63E9C706 		bltu	a5,a2,.L52
 378 0018 130B2600 		addi	s6,a2,2
 379 001c AA8A     		mv	s5,a0
 380 001e 2E8A     		mv	s4,a1
 381 0020 3289     		mv	s2,a2
 382 0022 93890900 		addi	s3,s3,%lo(.LANCHOR0)
 383 0026 B284     		mv	s1,a2
 384              	.LBB42:
 385              	.LBB43:
 206:C:/Users/stapi/OneDrive/Desktop/GD32VW553/GD32VW55X_Wifi_BLE_SDK/GD32VW55x_RELEASE_V1.0.2/MSDK/ble/app\app_blue_courier_link.c ****                 sys_memcpy(hdr->data + 2, &data[len - remain_len], hdr->data_len - 2); //copy first
 386              		.loc 1 206 30
 387 0028 935B8600 		srli	s7,a2,8
 388              	.LBB44:
 389              	.LBB45:
 169:C:/Users/stapi/OneDrive/Desktop/GD32VW553/GD32VW55X_Wifi_BLE_SDK/GD32VW55x_RELEASE_V1.0.2/MSDK/ble/app\app_blue_courier_link.c **** }
 390              		.loc 1 169 5
 391 002c 370C0000 		lui	s8,%hi(.LANCHOR4)
 165:C:/Users/stapi/OneDrive/Desktop/GD32VW553/GD32VW55X_Wifi_BLE_SDK/GD32VW55x_RELEASE_V1.0.2/MSDK/ble/app\app_blue_courier_link.c ****         return;
 392              		.loc 1 165 9
 393 0030 B70C0000 		lui	s9,%hi(global_debug_level)
 394 0034 370D0000 		lui	s10,%hi(.LANCHOR3)
 395 0038 B70D0000 		lui	s11,%hi(.LC3)
 396 003c 334B0B08 		zext.h	s6,s6
 397              	.LVL23:
 398              	.L30:
 399              	.LBE45:
 400              	.LBE44:
 191:C:/Users/stapi/OneDrive/Desktop/GD32VW553/GD32VW55X_Wifi_BLE_SDK/GD32VW55x_RELEASE_V1.0.2/MSDK/ble/app\app_blue_courier_link.c ****         if (remain_len > bcwl_env.frag_size) {
 401              		.loc 1 191 11 is_stmt 1
 402 0040 A5C4     		beq	s1,zero,.L29
 192:C:/Users/stapi/OneDrive/Desktop/GD32VW553/GD32VW55X_Wifi_BLE_SDK/GD32VW55x_RELEASE_V1.0.2/MSDK/ble/app\app_blue_courier_link.c ****             hdr = sys_malloc(sizeof(bcwl_header_t) + bcwl_env.frag_size + 2);
 403              		.loc 1 192 9
 192:C:/Users/stapi/OneDrive/Desktop/GD32VW553/GD32VW55X_Wifi_BLE_SDK/GD32VW55x_RELEASE_V1.0.2/MSDK/ble/app\app_blue_courier_link.c ****             hdr = sys_malloc(sizeof(bcwl_header_t) + bcwl_env.frag_size + 2);
 404              		.loc 1 192 34 is_stmt 0
 405 0042 03C58901 		lbu	a0,24(s3)
 192:C:/Users/stapi/OneDrive/Desktop/GD32VW553/GD32VW55X_Wifi_BLE_SDK/GD32VW55x_RELEASE_V1.0.2/MSDK/ble/app\app_blue_courier_link.c ****             hdr = sys_malloc(sizeof(bcwl_header_t) + bcwl_env.frag_size + 2);
 406              		.loc 1 192 12
 407 0046 63749510 		bgeu	a0,s1,.L33
 193:C:/Users/stapi/OneDrive/Desktop/GD32VW553/GD32VW55X_Wifi_BLE_SDK/GD32VW55x_RELEASE_V1.0.2/MSDK/ble/app\app_blue_courier_link.c ****             if (hdr == NULL) {
 408              		.loc 1 193 13 is_stmt 1
 193:C:/Users/stapi/OneDrive/Desktop/GD32VW553/GD32VW55X_Wifi_BLE_SDK/GD32VW55x_RELEASE_V1.0.2/MSDK/ble/app\app_blue_courier_link.c ****             if (hdr == NULL) {
 409              		.loc 1 193 19 is_stmt 0
 410 004a 1905     		addi	a0,a0,6
 411 004c 97000000 		call	sys_malloc
 411      E7800000 
 412              	.LVL24:
 413 0054 2A84     		mv	s0,a0
 414              	.LVL25:
 194:C:/Users/stapi/OneDrive/Desktop/GD32VW553/GD32VW55X_Wifi_BLE_SDK/GD32VW55x_RELEASE_V1.0.2/MSDK/ble/app\app_blue_courier_link.c ****                 dbg_print(ERR, "%s no mem\n", __func__);
 415              		.loc 1 194 13 is_stmt 1
 194:C:/Users/stapi/OneDrive/Desktop/GD32VW553/GD32VW55X_Wifi_BLE_SDK/GD32VW55x_RELEASE_V1.0.2/MSDK/ble/app\app_blue_courier_link.c ****                 dbg_print(ERR, "%s no mem\n", __func__);
 416              		.loc 1 194 16 is_stmt 0
 417 0056 29ED     		bne	a0,zero,.L34
 418              	.L55:
 195:C:/Users/stapi/OneDrive/Desktop/GD32VW553/GD32VW55X_Wifi_BLE_SDK/GD32VW55x_RELEASE_V1.0.2/MSDK/ble/app\app_blue_courier_link.c ****                 bcwl_error_report(BCWL_ERR_SEND_NO_MEM);
 419              		.loc 1 195 17 is_stmt 1
 195:C:/Users/stapi/OneDrive/Desktop/GD32VW553/GD32VW55X_Wifi_BLE_SDK/GD32VW55x_RELEASE_V1.0.2/MSDK/ble/app\app_blue_courier_link.c ****                 bcwl_error_report(BCWL_ERR_SEND_NO_MEM);
 420              		.loc 1 195 17
 421 0058 B7070000 		lui	a5,%hi(global_debug_level)
 422 005c 83C70700 		lbu	a5,%lo(global_debug_level)(a5)
 423 0060 89CF     		beq	a5,zero,.L36
 195:C:/Users/stapi/OneDrive/Desktop/GD32VW553/GD32VW55X_Wifi_BLE_SDK/GD32VW55x_RELEASE_V1.0.2/MSDK/ble/app\app_blue_courier_link.c ****                 bcwl_error_report(BCWL_ERR_SEND_NO_MEM);
 424              		.loc 1 195 17
 425 0062 B7050000 		lui	a1,%hi(.LANCHOR2)
 426 0066 37050000 		lui	a0,%hi(.LC2)
 427 006a 93850500 		addi	a1,a1,%lo(.LANCHOR2)
 428 006e 13050500 		addi	a0,a0,%lo(.LC2)
 429 0072 97000000 		call	co_printf
 429      E7800000 
 430              	.LVL26:
 431              	.L36:
 195:C:/Users/stapi/OneDrive/Desktop/GD32VW553/GD32VW55X_Wifi_BLE_SDK/GD32VW55x_RELEASE_V1.0.2/MSDK/ble/app\app_blue_courier_link.c ****                 bcwl_error_report(BCWL_ERR_SEND_NO_MEM);
 432              		.loc 1 195 17
 196:C:/Users/stapi/OneDrive/Desktop/GD32VW553/GD32VW55X_Wifi_BLE_SDK/GD32VW55x_RELEASE_V1.0.2/MSDK/ble/app\app_blue_courier_link.c ****                 return;
 433              		.loc 1 196 17
 434 007a 0D45     		li	a0,3
 435 007c 97000000 		call	bcwl_error_report
 435      E7800000 
 436              	.LVL27:
 197:C:/Users/stapi/OneDrive/Desktop/GD32VW553/GD32VW55X_Wifi_BLE_SDK/GD32VW55x_RELEASE_V1.0.2/MSDK/ble/app\app_blue_courier_link.c ****             }
 437              		.loc 1 197 17
 438 0084 15A0     		j	.L29
 439              	.LVL28:
 440              	.L52:
 441              	.LBE43:
 442              	.LBE42:
 187:C:/Users/stapi/OneDrive/Desktop/GD32VW553/GD32VW55X_Wifi_BLE_SDK/GD32VW55x_RELEASE_V1.0.2/MSDK/ble/app\app_blue_courier_link.c ****         return;
 443              		.loc 1 187 9
 187:C:/Users/stapi/OneDrive/Desktop/GD32VW553/GD32VW55X_Wifi_BLE_SDK/GD32VW55x_RELEASE_V1.0.2/MSDK/ble/app\app_blue_courier_link.c ****         return;
 444              		.loc 1 187 9
 445 0086 B7070000 		lui	a5,%hi(global_debug_level)
 446 008a 83C70700 		lbu	a5,%lo(global_debug_level)(a5)
 447 008e 89CF     		beq	a5,zero,.L29
 187:C:/Users/stapi/OneDrive/Desktop/GD32VW553/GD32VW55X_Wifi_BLE_SDK/GD32VW55x_RELEASE_V1.0.2/MSDK/ble/app\app_blue_courier_link.c ****         return;
 448              		.loc 1 187 9 discriminator 1
 449 0090 B7050000 		lui	a1,%hi(.LANCHOR2)
 450              	.LVL29:
 451 0094 37050000 		lui	a0,%hi(.LC1)
 452              	.LVL30:
 453 0098 93850500 		addi	a1,a1,%lo(.LANCHOR2)
 454 009c 13050500 		addi	a0,a0,%lo(.LC1)
 455 00a0 97000000 		call	co_printf
 455      E7800000 
 456              	.LVL31:
 457              	.L29:
 242:C:/Users/stapi/OneDrive/Desktop/GD32VW553/GD32VW55X_Wifi_BLE_SDK/GD32VW55x_RELEASE_V1.0.2/MSDK/ble/app\app_blue_courier_link.c **** 
 458              		.loc 1 242 1 is_stmt 0
 459 00a8 17030000 		tail	__riscv_restore_12
 459      67000300 
 460              		.cfi_remember_state
 461              		.cfi_restore 27
 462              		.cfi_restore 26
 463              		.cfi_restore 25
 464              		.cfi_restore 24
 465              		.cfi_restore 23
 466              		.cfi_restore 22
 467              		.cfi_restore 21
 468              		.cfi_restore 20
 469              		.cfi_restore 19
 470              		.cfi_restore 18
 471              		.cfi_restore 9
 472              		.cfi_restore 8
 473              		.cfi_restore 1
 474              		.cfi_def_cfa_offset 0
 475              	.LVL32:
 476              	.L34:
 477              		.cfi_restore_state
 478              	.LBB51:
 479              	.LBB50:
 200:C:/Users/stapi/OneDrive/Desktop/GD32VW553/GD32VW55X_Wifi_BLE_SDK/GD32VW55x_RELEASE_V1.0.2/MSDK/ble/app\app_blue_courier_link.c ****             hdr->data_len = bcwl_env.frag_size;
 480              		.loc 1 200 13 is_stmt 1
 200:C:/Users/stapi/OneDrive/Desktop/GD32VW553/GD32VW55X_Wifi_BLE_SDK/GD32VW55x_RELEASE_V1.0.2/MSDK/ble/app\app_blue_courier_link.c ****             hdr->data_len = bcwl_env.frag_size;
 481              		.loc 1 200 23 is_stmt 0
 482 00b0 23000500 		sb	zero,0(a0)
 201:C:/Users/stapi/OneDrive/Desktop/GD32VW553/GD32VW55X_Wifi_BLE_SDK/GD32VW55x_RELEASE_V1.0.2/MSDK/ble/app\app_blue_courier_link.c ****             if (remain_len == len) {
 483              		.loc 1 201 13 is_stmt 1
 201:C:/Users/stapi/OneDrive/Desktop/GD32VW553/GD32VW55X_Wifi_BLE_SDK/GD32VW55x_RELEASE_V1.0.2/MSDK/ble/app\app_blue_courier_link.c ****             if (remain_len == len) {
 484              		.loc 1 201 37 is_stmt 0
 485 00b4 03C68901 		lbu	a2,24(s3)
 207:C:/Users/stapi/OneDrive/Desktop/GD32VW553/GD32VW55X_Wifi_BLE_SDK/GD32VW55x_RELEASE_V1.0.2/MSDK/ble/app\app_blue_courier_link.c ****                 remain_len -= (hdr->data_len - 2);
 486              		.loc 1 207 53
 487 00b8 B3059940 		sub	a1,s2,s1
 207:C:/Users/stapi/OneDrive/Desktop/GD32VW553/GD32VW55X_Wifi_BLE_SDK/GD32VW55x_RELEASE_V1.0.2/MSDK/ble/app\app_blue_courier_link.c ****                 remain_len -= (hdr->data_len - 2);
 488              		.loc 1 207 43
 489 00bc D295     		add	a1,s4,a1
 201:C:/Users/stapi/OneDrive/Desktop/GD32VW553/GD32VW55X_Wifi_BLE_SDK/GD32VW55x_RELEASE_V1.0.2/MSDK/ble/app\app_blue_courier_link.c ****             if (remain_len == len) {
 490              		.loc 1 201 27
 491 00be A301C500 		sb	a2,3(a0)
 202:C:/Users/stapi/OneDrive/Desktop/GD32VW553/GD32VW55X_Wifi_BLE_SDK/GD32VW55x_RELEASE_V1.0.2/MSDK/ble/app\app_blue_courier_link.c ****                 /* start segment */
 492              		.loc 1 202 13 is_stmt 1
 202:C:/Users/stapi/OneDrive/Desktop/GD32VW553/GD32VW55X_Wifi_BLE_SDK/GD32VW55x_RELEASE_V1.0.2/MSDK/ble/app\app_blue_courier_link.c ****                 /* start segment */
 493              		.loc 1 202 16 is_stmt 0
 494 00c2 631F990A 		bne	s2,s1,.L57
 204:C:/Users/stapi/OneDrive/Desktop/GD32VW553/GD32VW55X_Wifi_BLE_SDK/GD32VW55x_RELEASE_V1.0.2/MSDK/ble/app\app_blue_courier_link.c ****                 hdr->data[0] = remain_len & 0xff;
 495              		.loc 1 204 17 is_stmt 1
 204:C:/Users/stapi/OneDrive/Desktop/GD32VW553/GD32VW55X_Wifi_BLE_SDK/GD32VW55x_RELEASE_V1.0.2/MSDK/ble/app\app_blue_courier_link.c ****                 hdr->data[0] = remain_len & 0xff;
 496              		.loc 1 204 27 is_stmt 0
 497 00c6 8547     		li	a5,1
 498 00c8 2300F500 		sb	a5,0(a0)
 205:C:/Users/stapi/OneDrive/Desktop/GD32VW553/GD32VW55X_Wifi_BLE_SDK/GD32VW55x_RELEASE_V1.0.2/MSDK/ble/app\app_blue_courier_link.c ****                 hdr->data[1] = (remain_len >> 8) & 0xff;
 499              		.loc 1 205 17 is_stmt 1
 205:C:/Users/stapi/OneDrive/Desktop/GD32VW553/GD32VW55X_Wifi_BLE_SDK/GD32VW55x_RELEASE_V1.0.2/MSDK/ble/app\app_blue_courier_link.c ****                 hdr->data[1] = (remain_len >> 8) & 0xff;
 500              		.loc 1 205 30 is_stmt 0
 501 00cc 23022501 		sb	s2,4(a0)
 206:C:/Users/stapi/OneDrive/Desktop/GD32VW553/GD32VW55X_Wifi_BLE_SDK/GD32VW55x_RELEASE_V1.0.2/MSDK/ble/app\app_blue_courier_link.c ****                 sys_memcpy(hdr->data + 2, &data[len - remain_len], hdr->data_len - 2); //copy first
 502              		.loc 1 206 17 is_stmt 1
 206:C:/Users/stapi/OneDrive/Desktop/GD32VW553/GD32VW55X_Wifi_BLE_SDK/GD32VW55x_RELEASE_V1.0.2/MSDK/ble/app\app_blue_courier_link.c ****                 sys_memcpy(hdr->data + 2, &data[len - remain_len], hdr->data_len - 2); //copy first
 503              		.loc 1 206 30 is_stmt 0
 504 00d0 A3027501 		sb	s7,5(a0)
 207:C:/Users/stapi/OneDrive/Desktop/GD32VW553/GD32VW55X_Wifi_BLE_SDK/GD32VW55x_RELEASE_V1.0.2/MSDK/ble/app\app_blue_courier_link.c ****                 remain_len -= (hdr->data_len - 2);
 505              		.loc 1 207 17 is_stmt 1
 506 00d4 7916     		addi	a2,a2,-2
 507 00d6 1905     		addi	a0,a0,6
 508 00d8 97000000 		call	sys_memcpy
 508      E7800000 
 509              	.LVL33:
 208:C:/Users/stapi/OneDrive/Desktop/GD32VW553/GD32VW55X_Wifi_BLE_SDK/GD32VW55x_RELEASE_V1.0.2/MSDK/ble/app\app_blue_courier_link.c ****             } else {
 510              		.loc 1 208 17
 208:C:/Users/stapi/OneDrive/Desktop/GD32VW553/GD32VW55X_Wifi_BLE_SDK/GD32VW55x_RELEASE_V1.0.2/MSDK/ble/app\app_blue_courier_link.c ****             } else {
 511              		.loc 1 208 35 is_stmt 0
 512 00e0 83443400 		lbu	s1,3(s0)
 513              	.LVL34:
 208:C:/Users/stapi/OneDrive/Desktop/GD32VW553/GD32VW55X_Wifi_BLE_SDK/GD32VW55x_RELEASE_V1.0.2/MSDK/ble/app\app_blue_courier_link.c ****             } else {
 514              		.loc 1 208 28
 515 00e4 B3049B40 		sub	s1,s6,s1
 516              	.L56:
 229:C:/Users/stapi/OneDrive/Desktop/GD32VW553/GD32VW55X_Wifi_BLE_SDK/GD32VW55x_RELEASE_V1.0.2/MSDK/ble/app\app_blue_courier_link.c ****         hdr->seq = bcwl_env.send_seq++;
 517              		.loc 1 229 21
 518 00e8 23015401 		sb	s5,2(s0)
 230:C:/Users/stapi/OneDrive/Desktop/GD32VW553/GD32VW55X_Wifi_BLE_SDK/GD32VW55x_RELEASE_V1.0.2/MSDK/ble/app\app_blue_courier_link.c **** 
 519              		.loc 1 230 28
 520 00ec 83C7D900 		lbu	a5,13(s3)
 232:C:/Users/stapi/OneDrive/Desktop/GD32VW553/GD32VW55X_Wifi_BLE_SDK/GD32VW55x_RELEASE_V1.0.2/MSDK/ble/app\app_blue_courier_link.c ****         hdr->data[hdr->data_len] = crc & 0xff;
 521              		.loc 1 232 15
 522 00f0 0146     		li	a2,0
 523 00f2 13051400 		addi	a0,s0,1
 230:C:/Users/stapi/OneDrive/Desktop/GD32VW553/GD32VW55X_Wifi_BLE_SDK/GD32VW55x_RELEASE_V1.0.2/MSDK/ble/app\app_blue_courier_link.c **** 
 524              		.loc 1 230 37
 525 00f6 13871700 		addi	a4,a5,1
 526 00fa A386E900 		sb	a4,13(s3)
 232:C:/Users/stapi/OneDrive/Desktop/GD32VW553/GD32VW55X_Wifi_BLE_SDK/GD32VW55x_RELEASE_V1.0.2/MSDK/ble/app\app_blue_courier_link.c ****         hdr->data[hdr->data_len] = crc & 0xff;
 527              		.loc 1 232 38
 528 00fe 83453400 		lbu	a1,3(s0)
 230:C:/Users/stapi/OneDrive/Desktop/GD32VW553/GD32VW55X_Wifi_BLE_SDK/GD32VW55x_RELEASE_V1.0.2/MSDK/ble/app\app_blue_courier_link.c **** 
 529              		.loc 1 230 18
 530 0102 A300F400 		sb	a5,1(s0)
 226:C:/Users/stapi/OneDrive/Desktop/GD32VW553/GD32VW55X_Wifi_BLE_SDK/GD32VW55x_RELEASE_V1.0.2/MSDK/ble/app\app_blue_courier_link.c ****         }
 531              		.loc 1 226 24
 532 0106 B3C40408 		zext.h	s1,s1
 533              	.LVL35:
 229:C:/Users/stapi/OneDrive/Desktop/GD32VW553/GD32VW55X_Wifi_BLE_SDK/GD32VW55x_RELEASE_V1.0.2/MSDK/ble/app\app_blue_courier_link.c ****         hdr->seq = bcwl_env.send_seq++;
 534              		.loc 1 229 9 is_stmt 1
 230:C:/Users/stapi/OneDrive/Desktop/GD32VW553/GD32VW55X_Wifi_BLE_SDK/GD32VW55x_RELEASE_V1.0.2/MSDK/ble/app\app_blue_courier_link.c **** 
 535              		.loc 1 230 9
 232:C:/Users/stapi/OneDrive/Desktop/GD32VW553/GD32VW55X_Wifi_BLE_SDK/GD32VW55x_RELEASE_V1.0.2/MSDK/ble/app\app_blue_courier_link.c ****         hdr->data[hdr->data_len] = crc & 0xff;
 536              		.loc 1 232 9
 232:C:/Users/stapi/OneDrive/Desktop/GD32VW553/GD32VW55X_Wifi_BLE_SDK/GD32VW55x_RELEASE_V1.0.2/MSDK/ble/app\app_blue_courier_link.c ****         hdr->data[hdr->data_len] = crc & 0xff;
 537              		.loc 1 232 15 is_stmt 0
 538 010a 8D05     		addi	a1,a1,3
 539 010c 97000000 		call	co_crc16
 539      E7800000 
 540              	.LVL36:
 233:C:/Users/stapi/OneDrive/Desktop/GD32VW553/GD32VW55X_Wifi_BLE_SDK/GD32VW55x_RELEASE_V1.0.2/MSDK/ble/app\app_blue_courier_link.c ****         hdr->data[hdr->data_len + 1] = (crc >> 8) & 0xff;
 541              		.loc 1 233 9 is_stmt 1
 233:C:/Users/stapi/OneDrive/Desktop/GD32VW553/GD32VW55X_Wifi_BLE_SDK/GD32VW55x_RELEASE_V1.0.2/MSDK/ble/app\app_blue_courier_link.c ****         hdr->data[hdr->data_len + 1] = (crc >> 8) & 0xff;
 542              		.loc 1 233 22 is_stmt 0
 543 0114 03473400 		lbu	a4,3(s0)
 233:C:/Users/stapi/OneDrive/Desktop/GD32VW553/GD32VW55X_Wifi_BLE_SDK/GD32VW55x_RELEASE_V1.0.2/MSDK/ble/app\app_blue_courier_link.c ****         hdr->data[hdr->data_len + 1] = (crc >> 8) & 0xff;
 544              		.loc 1 233 34
 545 0118 B307E400 		add	a5,s0,a4
 546 011c 2382A700 		sb	a0,4(a5)
 234:C:/Users/stapi/OneDrive/Desktop/GD32VW553/GD32VW55X_Wifi_BLE_SDK/GD32VW55x_RELEASE_V1.0.2/MSDK/ble/app\app_blue_courier_link.c **** 
 547              		.loc 1 234 9 is_stmt 1
 234:C:/Users/stapi/OneDrive/Desktop/GD32VW553/GD32VW55X_Wifi_BLE_SDK/GD32VW55x_RELEASE_V1.0.2/MSDK/ble/app\app_blue_courier_link.c **** 
 548              		.loc 1 234 38 is_stmt 0
 549 0120 2181     		srli	a0,a0,8
 550              	.LVL37:
 551 0122 A382A700 		sb	a0,5(a5)
 236:C:/Users/stapi/OneDrive/Desktop/GD32VW553/GD32VW55X_Wifi_BLE_SDK/GD32VW55x_RELEASE_V1.0.2/MSDK/ble/app\app_blue_courier_link.c **** 
 552              		.loc 1 236 9 is_stmt 1
 553              	.LVL38:
 554              	.LBB48:
 555              	.LBB46:
 164:C:/Users/stapi/OneDrive/Desktop/GD32VW553/GD32VW55X_Wifi_BLE_SDK/GD32VW55x_RELEASE_V1.0.2/MSDK/ble/app\app_blue_courier_link.c ****         dbg_print(ERR, "%s fail\r\n", __func__);
 556              		.loc 1 164 5
 164:C:/Users/stapi/OneDrive/Desktop/GD32VW553/GD32VW55X_Wifi_BLE_SDK/GD32VW55x_RELEASE_V1.0.2/MSDK/ble/app\app_blue_courier_link.c ****         dbg_print(ERR, "%s fail\r\n", __func__);
 557              		.loc 1 164 8 is_stmt 0
 558 0126 83D74900 		lhu	a5,4(s3)
 559 012a ADE7     		bne	a5,zero,.L42
 165:C:/Users/stapi/OneDrive/Desktop/GD32VW553/GD32VW55X_Wifi_BLE_SDK/GD32VW55x_RELEASE_V1.0.2/MSDK/ble/app\app_blue_courier_link.c ****         return;
 560              		.loc 1 165 9 is_stmt 1
 165:C:/Users/stapi/OneDrive/Desktop/GD32VW553/GD32VW55X_Wifi_BLE_SDK/GD32VW55x_RELEASE_V1.0.2/MSDK/ble/app\app_blue_courier_link.c ****         return;
 561              		.loc 1 165 9
 562 012c 83C70C00 		lbu	a5,%lo(global_debug_level)(s9)
 563 0130 89CB     		beq	a5,zero,.L43
 165:C:/Users/stapi/OneDrive/Desktop/GD32VW553/GD32VW55X_Wifi_BLE_SDK/GD32VW55x_RELEASE_V1.0.2/MSDK/ble/app\app_blue_courier_link.c ****         return;
 564              		.loc 1 165 9
 565 0132 93050D00 		addi	a1,s10,%lo(.LANCHOR3)
 566 0136 13850D00 		addi	a0,s11,%lo(.LC3)
 567 013a 97000000 		call	co_printf
 567      E7800000 
 568              	.LVL39:
 569              	.L43:
 570              	.LBE46:
 571              	.LBE48:
 238:C:/Users/stapi/OneDrive/Desktop/GD32VW553/GD32VW55X_Wifi_BLE_SDK/GD32VW55x_RELEASE_V1.0.2/MSDK/ble/app\app_blue_courier_link.c ****         hdr =  NULL;
 572              		.loc 1 238 9
 573 0142 2285     		mv	a0,s0
 574 0144 97000000 		call	sys_mfree
 574      E7800000 
 575              	.LVL40:
 239:C:/Users/stapi/OneDrive/Desktop/GD32VW553/GD32VW55X_Wifi_BLE_SDK/GD32VW55x_RELEASE_V1.0.2/MSDK/ble/app\app_blue_courier_link.c ****     }
 576              		.loc 1 239 9
 577 014c D5BD     		j	.L30
 578              	.LVL41:
 579              	.L33:
 216:C:/Users/stapi/OneDrive/Desktop/GD32VW553/GD32VW55X_Wifi_BLE_SDK/GD32VW55x_RELEASE_V1.0.2/MSDK/ble/app\app_blue_courier_link.c ****             if (hdr == NULL) {
 580              		.loc 1 216 13
 216:C:/Users/stapi/OneDrive/Desktop/GD32VW553/GD32VW55X_Wifi_BLE_SDK/GD32VW55x_RELEASE_V1.0.2/MSDK/ble/app\app_blue_courier_link.c ****             if (hdr == NULL) {
 581              		.loc 1 216 19 is_stmt 0
 582 014e 13856400 		addi	a0,s1,6
 583 0152 33450508 		zext.h	a0,a0
 584 0156 97000000 		call	sys_malloc
 584      E7800000 
 585              	.LVL42:
 586 015e 2A84     		mv	s0,a0
 587              	.LVL43:
 217:C:/Users/stapi/OneDrive/Desktop/GD32VW553/GD32VW55X_Wifi_BLE_SDK/GD32VW55x_RELEASE_V1.0.2/MSDK/ble/app\app_blue_courier_link.c ****                 dbg_print(ERR, "%s no mem\n", __func__);
 588              		.loc 1 217 13 is_stmt 1
 217:C:/Users/stapi/OneDrive/Desktop/GD32VW553/GD32VW55X_Wifi_BLE_SDK/GD32VW55x_RELEASE_V1.0.2/MSDK/ble/app\app_blue_courier_link.c ****                 dbg_print(ERR, "%s no mem\n", __func__);
 589              		.loc 1 217 16 is_stmt 0
 590 0160 E30C05EE 		beq	a0,zero,.L55
 223:C:/Users/stapi/OneDrive/Desktop/GD32VW553/GD32VW55X_Wifi_BLE_SDK/GD32VW55x_RELEASE_V1.0.2/MSDK/ble/app\app_blue_courier_link.c ****             hdr->data_len = remain_len;
 591              		.loc 1 223 13 is_stmt 1
 223:C:/Users/stapi/OneDrive/Desktop/GD32VW553/GD32VW55X_Wifi_BLE_SDK/GD32VW55x_RELEASE_V1.0.2/MSDK/ble/app\app_blue_courier_link.c ****             hdr->data_len = remain_len;
 592              		.loc 1 223 23 is_stmt 0
 593 0164 03C78901 		lbu	a4,24(s3)
 594 0168 8D47     		li	a5,3
 595 016a 63732701 		bgeu	a4,s2,.L41
 596 016e 8947     		li	a5,2
 597              	.L41:
 225:C:/Users/stapi/OneDrive/Desktop/GD32VW553/GD32VW55X_Wifi_BLE_SDK/GD32VW55x_RELEASE_V1.0.2/MSDK/ble/app\app_blue_courier_link.c ****             remain_len -= hdr->data_len;
 598              		.loc 1 225 45
 599 0170 B3059940 		sub	a1,s2,s1
 223:C:/Users/stapi/OneDrive/Desktop/GD32VW553/GD32VW55X_Wifi_BLE_SDK/GD32VW55x_RELEASE_V1.0.2/MSDK/ble/app\app_blue_courier_link.c ****             hdr->data_len = remain_len;
 600              		.loc 1 223 23
 601 0174 2300F400 		sb	a5,0(s0)
 224:C:/Users/stapi/OneDrive/Desktop/GD32VW553/GD32VW55X_Wifi_BLE_SDK/GD32VW55x_RELEASE_V1.0.2/MSDK/ble/app\app_blue_courier_link.c ****             sys_memcpy(hdr->data, &data[len - remain_len], hdr->data_len); //copy end
 602              		.loc 1 224 13 is_stmt 1
 224:C:/Users/stapi/OneDrive/Desktop/GD32VW553/GD32VW55X_Wifi_BLE_SDK/GD32VW55x_RELEASE_V1.0.2/MSDK/ble/app\app_blue_courier_link.c ****             sys_memcpy(hdr->data, &data[len - remain_len], hdr->data_len); //copy end
 603              		.loc 1 224 27 is_stmt 0
 604 0178 A3019400 		sb	s1,3(s0)
 225:C:/Users/stapi/OneDrive/Desktop/GD32VW553/GD32VW55X_Wifi_BLE_SDK/GD32VW55x_RELEASE_V1.0.2/MSDK/ble/app\app_blue_courier_link.c ****             remain_len -= hdr->data_len;
 605              		.loc 1 225 13 is_stmt 1
 606 017c 2686     		mv	a2,s1
 607 017e D295     		add	a1,s4,a1
 608              	.L57:
 609 0180 13054400 		addi	a0,s0,4
 610 0184 97000000 		call	sys_memcpy
 610      E7800000 
 611              	.LVL44:
 226:C:/Users/stapi/OneDrive/Desktop/GD32VW553/GD32VW55X_Wifi_BLE_SDK/GD32VW55x_RELEASE_V1.0.2/MSDK/ble/app\app_blue_courier_link.c ****         }
 612              		.loc 1 226 13
 226:C:/Users/stapi/OneDrive/Desktop/GD32VW553/GD32VW55X_Wifi_BLE_SDK/GD32VW55x_RELEASE_V1.0.2/MSDK/ble/app\app_blue_courier_link.c ****         }
 613              		.loc 1 226 30 is_stmt 0
 614 018c 83473400 		lbu	a5,3(s0)
 226:C:/Users/stapi/OneDrive/Desktop/GD32VW553/GD32VW55X_Wifi_BLE_SDK/GD32VW55x_RELEASE_V1.0.2/MSDK/ble/app\app_blue_courier_link.c ****         }
 615              		.loc 1 226 24
 616 0190 9D8C     		sub	s1,s1,a5
 617              	.LVL45:
 618 0192 99BF     		j	.L56
 619              	.LVL46:
 620              	.L42:
 621              	.LBB49:
 622              	.LBB47:
 169:C:/Users/stapi/OneDrive/Desktop/GD32VW553/GD32VW55X_Wifi_BLE_SDK/GD32VW55x_RELEASE_V1.0.2/MSDK/ble/app\app_blue_courier_link.c **** }
 623              		.loc 1 169 5 is_stmt 1
 624 0194 83450C00 		lbu	a1,%lo(.LANCHOR4)(s8)
 625 0198 03C51900 		lbu	a0,1(s3)
 626 019c 8147     		li	a5,0
 627 019e 1907     		addi	a4,a4,6
 628              	.LVL47:
 629 01a0 A286     		mv	a3,s0
 630 01a2 1146     		li	a2,4
 631 01a4 97000000 		call	ble_gatts_ntf_ind_send
 631      E7800000 
 632              	.LVL48:
 633 01ac 59BF     		j	.L43
 634              	.LBE47:
 635              	.LBE49:
 636              	.LBE50:
 637              	.LBE51:
 638              		.cfi_endproc
 639              	.LFE19:
 641              		.section	.text.bcwl_error_report,"ax",@progbits
 642              		.align	1
 643              		.globl	bcwl_error_report
 645              	bcwl_error_report:
 646              	.LFB14:
  73:C:/Users/stapi/OneDrive/Desktop/GD32VW553/GD32VW55X_Wifi_BLE_SDK/GD32VW55x_RELEASE_V1.0.2/MSDK/ble/app\app_blue_courier_link.c ****     bcwl_send(BCWL_OPCODE_BUILD(BCWL_OPCODE_TYPE_MGMT, BCWL_OPCODE_MGMT_SUBTYPE_ERROR_REPORT), &rea
 647              		.loc 1 73 1
 648              		.cfi_startproc
 649              	.LVL49:
 650 0000 17030000 		call	t0,__riscv_save_0
 650      E7020300 
 651              		.cfi_offset 1, -4
 652              		.cfi_def_cfa_offset 16
  74:C:/Users/stapi/OneDrive/Desktop/GD32VW553/GD32VW55X_Wifi_BLE_SDK/GD32VW55x_RELEASE_V1.0.2/MSDK/ble/app\app_blue_courier_link.c **** }
 653              		.loc 1 74 5
  73:C:/Users/stapi/OneDrive/Desktop/GD32VW553/GD32VW55X_Wifi_BLE_SDK/GD32VW55x_RELEASE_V1.0.2/MSDK/ble/app\app_blue_courier_link.c ****     bcwl_send(BCWL_OPCODE_BUILD(BCWL_OPCODE_TYPE_MGMT, BCWL_OPCODE_MGMT_SUBTYPE_ERROR_REPORT), &rea
 654              		.loc 1 73 1 is_stmt 0
 655 0008 4111     		addi	sp,sp,-16
 656              		.cfi_def_cfa_offset 32
  73:C:/Users/stapi/OneDrive/Desktop/GD32VW553/GD32VW55X_Wifi_BLE_SDK/GD32VW55x_RELEASE_V1.0.2/MSDK/ble/app\app_blue_courier_link.c ****     bcwl_send(BCWL_OPCODE_BUILD(BCWL_OPCODE_TYPE_MGMT, BCWL_OPCODE_MGMT_SUBTYPE_ERROR_REPORT), &rea
 657              		.loc 1 73 1
 658 000a A307A100 		sb	a0,15(sp)
  74:C:/Users/stapi/OneDrive/Desktop/GD32VW553/GD32VW55X_Wifi_BLE_SDK/GD32VW55x_RELEASE_V1.0.2/MSDK/ble/app\app_blue_courier_link.c **** }
 659              		.loc 1 74 5
 660 000e 9305F100 		addi	a1,sp,15
 661 0012 0546     		li	a2,1
 662 0014 0945     		li	a0,2
 663              	.LVL50:
 664 0016 97000000 		call	bcwl_send
 664      E7800000 
 665              	.LVL51:
  75:C:/Users/stapi/OneDrive/Desktop/GD32VW553/GD32VW55X_Wifi_BLE_SDK/GD32VW55x_RELEASE_V1.0.2/MSDK/ble/app\app_blue_courier_link.c **** 
 666              		.loc 1 75 1
 667 001e 4101     		addi	sp,sp,16
 668              		.cfi_def_cfa_offset 0
 669 0020 17030000 		tail	__riscv_restore_0
 669      67000300 
 670              		.cfi_restore 1
 671              		.cfi_def_cfa_offset -16
 672              		.cfi_endproc
 673              	.LFE14:
 675              		.section	.text.bcwl_send_ack,"ax",@progbits
 676              		.align	1
 677              		.globl	bcwl_send_ack
 679              	bcwl_send_ack:
 680              	.LFB15:
  84:C:/Users/stapi/OneDrive/Desktop/GD32VW553/GD32VW55X_Wifi_BLE_SDK/GD32VW55x_RELEASE_V1.0.2/MSDK/ble/app\app_blue_courier_link.c ****     bcwl_send(BCWL_OPCODE_BUILD(BCWL_OPCODE_TYPE_MGMT, BCWL_OPCODE_MGMT_SUBTYPE_ACK), &seq, sizeof(
 681              		.loc 1 84 1 is_stmt 1
 682              		.cfi_startproc
 683              	.LVL52:
 684 0000 17030000 		call	t0,__riscv_save_0
 684      E7020300 
 685              		.cfi_offset 1, -4
 686              		.cfi_def_cfa_offset 16
  85:C:/Users/stapi/OneDrive/Desktop/GD32VW553/GD32VW55X_Wifi_BLE_SDK/GD32VW55x_RELEASE_V1.0.2/MSDK/ble/app\app_blue_courier_link.c **** }
 687              		.loc 1 85 5
  84:C:/Users/stapi/OneDrive/Desktop/GD32VW553/GD32VW55X_Wifi_BLE_SDK/GD32VW55x_RELEASE_V1.0.2/MSDK/ble/app\app_blue_courier_link.c ****     bcwl_send(BCWL_OPCODE_BUILD(BCWL_OPCODE_TYPE_MGMT, BCWL_OPCODE_MGMT_SUBTYPE_ACK), &seq, sizeof(
 688              		.loc 1 84 1 is_stmt 0
 689 0008 4111     		addi	sp,sp,-16
 690              		.cfi_def_cfa_offset 32
  84:C:/Users/stapi/OneDrive/Desktop/GD32VW553/GD32VW55X_Wifi_BLE_SDK/GD32VW55x_RELEASE_V1.0.2/MSDK/ble/app\app_blue_courier_link.c ****     bcwl_send(BCWL_OPCODE_BUILD(BCWL_OPCODE_TYPE_MGMT, BCWL_OPCODE_MGMT_SUBTYPE_ACK), &seq, sizeof(
 691              		.loc 1 84 1
 692 000a A307A100 		sb	a0,15(sp)
  85:C:/Users/stapi/OneDrive/Desktop/GD32VW553/GD32VW55X_Wifi_BLE_SDK/GD32VW55x_RELEASE_V1.0.2/MSDK/ble/app\app_blue_courier_link.c **** }
 693              		.loc 1 85 5
 694 000e 9305F100 		addi	a1,sp,15
 695 0012 0546     		li	a2,1
 696 0014 0545     		li	a0,1
 697              	.LVL53:
 698 0016 97000000 		call	bcwl_send
 698      E7800000 
 699              	.LVL54:
  86:C:/Users/stapi/OneDrive/Desktop/GD32VW553/GD32VW55X_Wifi_BLE_SDK/GD32VW55x_RELEASE_V1.0.2/MSDK/ble/app\app_blue_courier_link.c **** 
 700              		.loc 1 86 1
 701 001e 4101     		addi	sp,sp,16
 702              		.cfi_def_cfa_offset 0
 703 0020 17030000 		tail	__riscv_restore_0
 703      67000300 
 704              		.cfi_restore 1
 705              		.cfi_def_cfa_offset -16
 706              		.cfi_endproc
 707              	.LFE15:
 709              		.section	.rodata.bcwl_handle_mgmt_handshake.str1.4,"aMS",@progbits,1
 710              		.align	2
 711              	.LC4:
 712 0000 2573206C 		.string	"%s len err %d\n"
 712      656E2065 
 712      72722025 
 712      640A00
 713 000f 00       		.align	2
 714              	.LC5:
 715 0010 25732068 		.string	"%s handshake success\n"
 715      616E6473 
 715      68616B65 
 715      20737563 
 715      63657373 
 716              		.section	.text.bcwl_handle_mgmt_handshake,"ax",@progbits
 717              		.align	1
 718              		.globl	bcwl_handle_mgmt_handshake
 720              	bcwl_handle_mgmt_handshake:
 721              	.LFB16:
  96:C:/Users/stapi/OneDrive/Desktop/GD32VW553/GD32VW55X_Wifi_BLE_SDK/GD32VW55x_RELEASE_V1.0.2/MSDK/ble/app\app_blue_courier_link.c ****     uint16_t mtu;
 722              		.loc 1 96 1 is_stmt 1
 723              		.cfi_startproc
 724              	.LVL55:
 725 0000 17030000 		call	t0,__riscv_save_3
 725      E7020300 
 726              		.cfi_offset 18, -16
 727              		.cfi_offset 9, -12
 728              		.cfi_offset 8, -8
 729              		.cfi_offset 1, -4
 730              		.cfi_def_cfa_offset 16
  97:C:/Users/stapi/OneDrive/Desktop/GD32VW553/GD32VW55X_Wifi_BLE_SDK/GD32VW55x_RELEASE_V1.0.2/MSDK/ble/app\app_blue_courier_link.c ****     bcwl_mgmt_handshake_t handshake_rsp;
 731              		.loc 1 97 5
  98:C:/Users/stapi/OneDrive/Desktop/GD32VW553/GD32VW55X_Wifi_BLE_SDK/GD32VW55x_RELEASE_V1.0.2/MSDK/ble/app\app_blue_courier_link.c ****     bcwl_mgmt_handshake_t *handshake = (bcwl_mgmt_handshake_t *)data;
 732              		.loc 1 98 5
  99:C:/Users/stapi/OneDrive/Desktop/GD32VW553/GD32VW55X_Wifi_BLE_SDK/GD32VW55x_RELEASE_V1.0.2/MSDK/ble/app\app_blue_courier_link.c **** 
 733              		.loc 1 99 5
 734              	.LVL56:
 101:C:/Users/stapi/OneDrive/Desktop/GD32VW553/GD32VW55X_Wifi_BLE_SDK/GD32VW55x_RELEASE_V1.0.2/MSDK/ble/app\app_blue_courier_link.c ****         dbg_print(ERR, "%s len err %d\n", __func__, len);
 735              		.loc 1 101 5
 101:C:/Users/stapi/OneDrive/Desktop/GD32VW553/GD32VW55X_Wifi_BLE_SDK/GD32VW55x_RELEASE_V1.0.2/MSDK/ble/app\app_blue_courier_link.c ****         dbg_print(ERR, "%s len err %d\n", __func__, len);
 736              		.loc 1 101 8 is_stmt 0
 737 0008 9147     		li	a5,4
  96:C:/Users/stapi/OneDrive/Desktop/GD32VW553/GD32VW55X_Wifi_BLE_SDK/GD32VW55x_RELEASE_V1.0.2/MSDK/ble/app\app_blue_courier_link.c ****     uint16_t mtu;
 738              		.loc 1 96 1
 739 000a 4111     		addi	sp,sp,-16
 740              		.cfi_def_cfa_offset 32
 741 000c 37090000 		lui	s2,%hi(global_debug_level)
 101:C:/Users/stapi/OneDrive/Desktop/GD32VW553/GD32VW55X_Wifi_BLE_SDK/GD32VW55x_RELEASE_V1.0.2/MSDK/ble/app\app_blue_courier_link.c ****         dbg_print(ERR, "%s len err %d\n", __func__, len);
 742              		.loc 1 101 8
 743 0010 638CF502 		beq	a1,a5,.L63
 102:C:/Users/stapi/OneDrive/Desktop/GD32VW553/GD32VW55X_Wifi_BLE_SDK/GD32VW55x_RELEASE_V1.0.2/MSDK/ble/app\app_blue_courier_link.c ****         bcwl_error_report(BCWL_ERR_PACKET_LEN_ERROR);
 744              		.loc 1 102 9 is_stmt 1
 102:C:/Users/stapi/OneDrive/Desktop/GD32VW553/GD32VW55X_Wifi_BLE_SDK/GD32VW55x_RELEASE_V1.0.2/MSDK/ble/app\app_blue_courier_link.c ****         bcwl_error_report(BCWL_ERR_PACKET_LEN_ERROR);
 745              		.loc 1 102 9
 746 0014 83470900 		lbu	a5,%lo(global_debug_level)(s2)
 747 0018 91CF     		beq	a5,zero,.L64
 748 001a 2E86     		mv	a2,a1
 102:C:/Users/stapi/OneDrive/Desktop/GD32VW553/GD32VW55X_Wifi_BLE_SDK/GD32VW55x_RELEASE_V1.0.2/MSDK/ble/app\app_blue_courier_link.c ****         bcwl_error_report(BCWL_ERR_PACKET_LEN_ERROR);
 749              		.loc 1 102 9 discriminator 1
 750 001c 37050000 		lui	a0,%hi(.LC4)
 751              	.LVL57:
 752 0020 B7050000 		lui	a1,%hi(.LANCHOR5)
 753              	.LVL58:
 754 0024 93850500 		addi	a1,a1,%lo(.LANCHOR5)
 755 0028 13050500 		addi	a0,a0,%lo(.LC4)
 756 002c 97000000 		call	co_printf
 756      E7800000 
 757              	.LVL59:
 758              	.L64:
 102:C:/Users/stapi/OneDrive/Desktop/GD32VW553/GD32VW55X_Wifi_BLE_SDK/GD32VW55x_RELEASE_V1.0.2/MSDK/ble/app\app_blue_courier_link.c ****         bcwl_error_report(BCWL_ERR_PACKET_LEN_ERROR);
 759              		.loc 1 102 9 discriminator 3
 103:C:/Users/stapi/OneDrive/Desktop/GD32VW553/GD32VW55X_Wifi_BLE_SDK/GD32VW55x_RELEASE_V1.0.2/MSDK/ble/app\app_blue_courier_link.c ****         return;
 760              		.loc 1 103 9 discriminator 3
 761 0034 0545     		li	a0,1
 762 0036 97000000 		call	bcwl_error_report
 762      E7800000 
 763              	.LVL60:
 104:C:/Users/stapi/OneDrive/Desktop/GD32VW553/GD32VW55X_Wifi_BLE_SDK/GD32VW55x_RELEASE_V1.0.2/MSDK/ble/app\app_blue_courier_link.c ****     }
 764              		.loc 1 104 9 discriminator 3
 765              	.L62:
 118:C:/Users/stapi/OneDrive/Desktop/GD32VW553/GD32VW55X_Wifi_BLE_SDK/GD32VW55x_RELEASE_V1.0.2/MSDK/ble/app\app_blue_courier_link.c **** 
 766              		.loc 1 118 1 is_stmt 0
 767 003e 4101     		addi	sp,sp,16
 768              		.cfi_remember_state
 769              		.cfi_def_cfa_offset 0
 770 0040 17030000 		tail	__riscv_restore_3
 770      67000300 
 771              		.cfi_restore 18
 772              		.cfi_restore 9
 773              		.cfi_restore 8
 774              		.cfi_restore 1
 775              		.cfi_def_cfa_offset -16
 776              	.LVL61:
 777              	.L63:
 778              		.cfi_restore_state
 779              	.LBB60:
 780              	.LBB61:
 107:C:/Users/stapi/OneDrive/Desktop/GD32VW553/GD32VW55X_Wifi_BLE_SDK/GD32VW55x_RELEASE_V1.0.2/MSDK/ble/app\app_blue_courier_link.c ****     handshake_rsp.mtu = co_min(co_min(handshake->mtu, mtu), BCW_FRAG_MAX_LEN);
 781              		.loc 1 107 5
 782 0048 37040000 		lui	s0,%hi(.LANCHOR0)
 783 004c 13040400 		addi	s0,s0,%lo(.LANCHOR0)
 784 0050 AA84     		mv	s1,a0
 785              	.LVL62:
 107:C:/Users/stapi/OneDrive/Desktop/GD32VW553/GD32VW55X_Wifi_BLE_SDK/GD32VW55x_RELEASE_V1.0.2/MSDK/ble/app\app_blue_courier_link.c ****     handshake_rsp.mtu = co_min(co_min(handshake->mtu, mtu), BCW_FRAG_MAX_LEN);
 786              		.loc 1 107 5 is_stmt 1
 787 0052 03451400 		lbu	a0,1(s0)
 788              	.LVL63:
 789 0056 9305A100 		addi	a1,sp,10
 790              	.LVL64:
 791 005a 97000000 		call	ble_gatts_mtu_get
 791      E7800000 
 792              	.LVL65:
 108:C:/Users/stapi/OneDrive/Desktop/GD32VW553/GD32VW55X_Wifi_BLE_SDK/GD32VW55x_RELEASE_V1.0.2/MSDK/ble/app\app_blue_courier_link.c ****     handshake_rsp.recv_size = BCW_VALUE_LEN;
 793              		.loc 1 108 5
 794              	.LBE61:
 795              	.LBE60:
 796              		.file 2 "..\\..\\..\\..\\macsw\\export/co_math.h"
   1:..\..\..\..\macsw\export/co_math.h **** /*!
   2:..\..\..\..\macsw\export/co_math.h ****     \file    co_math.h
   3:..\..\..\..\macsw\export/co_math.h ****     \brief   Common optimized math functions
   4:..\..\..\..\macsw\export/co_math.h **** 
   5:..\..\..\..\macsw\export/co_math.h ****     \version 2023-07-20, V1.0.0, firmware for GD32VW55x
   6:..\..\..\..\macsw\export/co_math.h **** */
   7:..\..\..\..\macsw\export/co_math.h **** 
   8:..\..\..\..\macsw\export/co_math.h **** /*
   9:..\..\..\..\macsw\export/co_math.h ****     Copyright (c) 2023, GigaDevice Semiconductor Inc.
  10:..\..\..\..\macsw\export/co_math.h **** 
  11:..\..\..\..\macsw\export/co_math.h ****     Redistribution and use in source and binary forms, with or without modification,
  12:..\..\..\..\macsw\export/co_math.h **** are permitted provided that the following conditions are met:
  13:..\..\..\..\macsw\export/co_math.h **** 
  14:..\..\..\..\macsw\export/co_math.h ****     1. Redistributions of source code must retain the above copyright notice, this
  15:..\..\..\..\macsw\export/co_math.h ****        list of conditions and the following disclaimer.
  16:..\..\..\..\macsw\export/co_math.h ****     2. Redistributions in binary form must reproduce the above copyright notice,
  17:..\..\..\..\macsw\export/co_math.h ****        this list of conditions and the following disclaimer in the documentation
  18:..\..\..\..\macsw\export/co_math.h ****        and/or other materials provided with the distribution.
  19:..\..\..\..\macsw\export/co_math.h ****     3. Neither the name of the copyright holder nor the names of its contributors
  20:..\..\..\..\macsw\export/co_math.h ****        may be used to endorse or promote products derived from this software without
  21:..\..\..\..\macsw\export/co_math.h ****        specific prior written permission.
  22:..\..\..\..\macsw\export/co_math.h **** 
  23:..\..\..\..\macsw\export/co_math.h ****     THIS SOFTWARE IS PROVIDED BY THE COPYRIGHT HOLDERS AND CONTRIBUTORS "AS IS"
  24:..\..\..\..\macsw\export/co_math.h **** AND ANY EXPRESS OR IMPLIED WARRANTIES, INCLUDING, BUT NOT LIMITED TO, THE IMPLIED
  25:..\..\..\..\macsw\export/co_math.h **** WARRANTIES OF MERCHANTABILITY AND FITNESS FOR A PARTICULAR PURPOSE ARE DISCLAIMED.
  26:..\..\..\..\macsw\export/co_math.h **** IN NO EVENT SHALL THE COPYRIGHT HOLDER OR CONTRIBUTORS BE LIABLE FOR ANY DIRECT,
  27:..\..\..\..\macsw\export/co_math.h **** INDIRECT, INCIDENTAL, SPECIAL, EXEMPLARY, OR CONSEQUENTIAL DAMAGES (INCLUDING, BUT
  28:..\..\..\..\macsw\export/co_math.h **** NOT LIMITED TO, PROCUREMENT OF SUBSTITUTE GOODS OR SERVICES; LOSS OF USE, DATA, OR
  29:..\..\..\..\macsw\export/co_math.h **** PROFITS; OR BUSINESS INTERRUPTION) HOWEVER CAUSED AND ON ANY THEORY OF LIABILITY,
  30:..\..\..\..\macsw\export/co_math.h **** WHETHER IN CONTRACT, STRICT LIABILITY, OR TORT (INCLUDING NEGLIGENCE OR OTHERWISE)
  31:..\..\..\..\macsw\export/co_math.h **** ARISING IN ANY WAY OUT OF THE USE OF THIS SOFTWARE, EVEN IF ADVISED OF THE POSSIBILITY
  32:..\..\..\..\macsw\export/co_math.h **** OF SUCH DAMAGE.
  33:..\..\..\..\macsw\export/co_math.h **** */
  34:..\..\..\..\macsw\export/co_math.h **** 
  35:..\..\..\..\macsw\export/co_math.h **** #ifndef _CO_MATH_H_
  36:..\..\..\..\macsw\export/co_math.h **** #define _CO_MATH_H_
  37:..\..\..\..\macsw\export/co_math.h **** 
  38:..\..\..\..\macsw\export/co_math.h **** /*
  39:..\..\..\..\macsw\export/co_math.h ****  * INCLUDE FILES
  40:..\..\..\..\macsw\export/co_math.h ****  ****************************************************************************************
  41:..\..\..\..\macsw\export/co_math.h ****  */
  42:..\..\..\..\macsw\export/co_math.h **** #include "co_int.h"        // standard integer definitions
  43:..\..\..\..\macsw\export/co_math.h **** #include "co_bool.h"       // boolean definitions
  44:..\..\..\..\macsw\export/co_math.h **** #include "co_bit.h"        // bits definitions
  45:..\..\..\..\macsw\export/co_math.h **** #include <stdlib.h>        // standard library
  46:..\..\..\..\macsw\export/co_math.h **** #include "compiler.h"      // for __INLINE
  47:..\..\..\..\macsw\export/co_math.h **** 
  48:..\..\..\..\macsw\export/co_math.h **** /*
  49:..\..\..\..\macsw\export/co_math.h ****  * MACROS
  50:..\..\..\..\macsw\export/co_math.h ****  ****************************************************************************************
  51:..\..\..\..\macsw\export/co_math.h ****  */
  52:..\..\..\..\macsw\export/co_math.h **** 
  53:..\..\..\..\macsw\export/co_math.h **** /**
  54:..\..\..\..\macsw\export/co_math.h ****  ****************************************************************************************
  55:..\..\..\..\macsw\export/co_math.h ****  * @brief Align val on the multiple of 4 equal or nearest higher.
  56:..\..\..\..\macsw\export/co_math.h ****  * @param[in] val Value to align.
  57:..\..\..\..\macsw\export/co_math.h ****  * @return Value aligned.
  58:..\..\..\..\macsw\export/co_math.h ****  ****************************************************************************************
  59:..\..\..\..\macsw\export/co_math.h ****  */
  60:..\..\..\..\macsw\export/co_math.h **** #define CO_ALIGN4_HI(val) (((val) + 3) & ~3)
  61:..\..\..\..\macsw\export/co_math.h **** 
  62:..\..\..\..\macsw\export/co_math.h **** /**
  63:..\..\..\..\macsw\export/co_math.h ****  ****************************************************************************************
  64:..\..\..\..\macsw\export/co_math.h ****  * @brief Align val on the multiple of a given number equal or nearest higher.
  65:..\..\..\..\macsw\export/co_math.h ****  *
  66:..\..\..\..\macsw\export/co_math.h ****  * x value should be a power of 2.
  67:..\..\..\..\macsw\export/co_math.h ****  *
  68:..\..\..\..\macsw\export/co_math.h ****  * @param[in] val  Value to align.
  69:..\..\..\..\macsw\export/co_math.h ****  * @param[in] x    Multiple value.
  70:..\..\..\..\macsw\export/co_math.h ****  * @return Value   aligned.
  71:..\..\..\..\macsw\export/co_math.h ****  ****************************************************************************************
  72:..\..\..\..\macsw\export/co_math.h ****  */
  73:..\..\..\..\macsw\export/co_math.h **** #define CO_ALIGNx_HI(val, x) (((val) + ((x) - 1)) & ~((x) - 1))
  74:..\..\..\..\macsw\export/co_math.h **** 
  75:..\..\..\..\macsw\export/co_math.h **** /**
  76:..\..\..\..\macsw\export/co_math.h ****  ****************************************************************************************
  77:..\..\..\..\macsw\export/co_math.h ****  * @brief Align val on the multiple of 4 equal or nearest lower.
  78:..\..\..\..\macsw\export/co_math.h ****  * @param[in] val Value to align.
  79:..\..\..\..\macsw\export/co_math.h ****  * @return Value aligned.
  80:..\..\..\..\macsw\export/co_math.h ****  ****************************************************************************************
  81:..\..\..\..\macsw\export/co_math.h ****  */
  82:..\..\..\..\macsw\export/co_math.h **** #define CO_ALIGN4_LO(val) ((val) & ~3)
  83:..\..\..\..\macsw\export/co_math.h **** 
  84:..\..\..\..\macsw\export/co_math.h **** /**
  85:..\..\..\..\macsw\export/co_math.h ****  ****************************************************************************************
  86:..\..\..\..\macsw\export/co_math.h ****  * @brief Align val on the multiple of 2 equal or nearest higher.
  87:..\..\..\..\macsw\export/co_math.h ****  * @param[in] val Value to align.
  88:..\..\..\..\macsw\export/co_math.h ****  * @return Value aligned.
  89:..\..\..\..\macsw\export/co_math.h ****  ****************************************************************************************
  90:..\..\..\..\macsw\export/co_math.h ****  */
  91:..\..\..\..\macsw\export/co_math.h **** #define CO_ALIGN2_HI(val) (((val) + 1) & ~1)
  92:..\..\..\..\macsw\export/co_math.h **** 
  93:..\..\..\..\macsw\export/co_math.h **** /**
  94:..\..\..\..\macsw\export/co_math.h ****  ****************************************************************************************
  95:..\..\..\..\macsw\export/co_math.h ****  * @brief Align val on the multiple of 2 equal or nearest lower.
  96:..\..\..\..\macsw\export/co_math.h ****  * @param[in] val Value to align.
  97:..\..\..\..\macsw\export/co_math.h ****  * @return Value aligned.
  98:..\..\..\..\macsw\export/co_math.h ****  ****************************************************************************************
  99:..\..\..\..\macsw\export/co_math.h ****  */
 100:..\..\..\..\macsw\export/co_math.h **** #define CO_ALIGN2_LO(val) ((val) & ~1)
 101:..\..\..\..\macsw\export/co_math.h **** 
 102:..\..\..\..\macsw\export/co_math.h **** /*
 103:..\..\..\..\macsw\export/co_math.h ****  * FUNCTION DEFINTIONS
 104:..\..\..\..\macsw\export/co_math.h ****  ****************************************************************************************
 105:..\..\..\..\macsw\export/co_math.h ****  */
 106:..\..\..\..\macsw\export/co_math.h **** /**
 107:..\..\..\..\macsw\export/co_math.h ****  ****************************************************************************************
 108:..\..\..\..\macsw\export/co_math.h ****  * @brief Count leading zeros.
 109:..\..\..\..\macsw\export/co_math.h ****  * @param[in] val Value to count the number of leading zeros on.
 110:..\..\..\..\macsw\export/co_math.h ****  * @return Number of leading zeros when value is written as 32 bits.
 111:..\..\..\..\macsw\export/co_math.h ****  ****************************************************************************************
 112:..\..\..\..\macsw\export/co_math.h ****  */
 113:..\..\..\..\macsw\export/co_math.h **** __INLINE uint32_t co_clz(uint32_t val)
 114:..\..\..\..\macsw\export/co_math.h **** {
 115:..\..\..\..\macsw\export/co_math.h **** //    #if defined(__arm__)
 116:..\..\..\..\macsw\export/co_math.h **** //    return __builtin_clz(val);
 117:..\..\..\..\macsw\export/co_math.h **** //    #elif defined(__GNUC__)
 118:..\..\..\..\macsw\export/co_math.h **** //    if (val == 0)
 119:..\..\..\..\macsw\export/co_math.h **** //    {
 120:..\..\..\..\macsw\export/co_math.h **** //        return 32;
 121:..\..\..\..\macsw\export/co_math.h **** //    }
 122:..\..\..\..\macsw\export/co_math.h **** //    return __builtin_clz(val);
 123:..\..\..\..\macsw\export/co_math.h **** //    #else
 124:..\..\..\..\macsw\export/co_math.h ****     uint32_t tmp;
 125:..\..\..\..\macsw\export/co_math.h ****     uint32_t shift = 0;
 126:..\..\..\..\macsw\export/co_math.h **** 
 127:..\..\..\..\macsw\export/co_math.h ****     if (val == 0)
 128:..\..\..\..\macsw\export/co_math.h ****     {
 129:..\..\..\..\macsw\export/co_math.h ****         return 32;
 130:..\..\..\..\macsw\export/co_math.h ****     }
 131:..\..\..\..\macsw\export/co_math.h **** 
 132:..\..\..\..\macsw\export/co_math.h ****     tmp = val >> 16;
 133:..\..\..\..\macsw\export/co_math.h ****     if (tmp)
 134:..\..\..\..\macsw\export/co_math.h ****     {
 135:..\..\..\..\macsw\export/co_math.h ****         shift = 16;
 136:..\..\..\..\macsw\export/co_math.h ****         val = tmp;
 137:..\..\..\..\macsw\export/co_math.h ****     }
 138:..\..\..\..\macsw\export/co_math.h **** 
 139:..\..\..\..\macsw\export/co_math.h ****     tmp = val >> 8;
 140:..\..\..\..\macsw\export/co_math.h ****     if (tmp)
 141:..\..\..\..\macsw\export/co_math.h ****     {
 142:..\..\..\..\macsw\export/co_math.h ****         shift += 8;
 143:..\..\..\..\macsw\export/co_math.h ****         val = tmp;
 144:..\..\..\..\macsw\export/co_math.h ****     }
 145:..\..\..\..\macsw\export/co_math.h **** 
 146:..\..\..\..\macsw\export/co_math.h ****     tmp = val >> 4;
 147:..\..\..\..\macsw\export/co_math.h ****     if (tmp)
 148:..\..\..\..\macsw\export/co_math.h ****     {
 149:..\..\..\..\macsw\export/co_math.h ****         shift += 4;
 150:..\..\..\..\macsw\export/co_math.h ****         val = tmp;
 151:..\..\..\..\macsw\export/co_math.h ****     }
 152:..\..\..\..\macsw\export/co_math.h **** 
 153:..\..\..\..\macsw\export/co_math.h ****     tmp = val >> 2;
 154:..\..\..\..\macsw\export/co_math.h ****     if (tmp)
 155:..\..\..\..\macsw\export/co_math.h ****     {
 156:..\..\..\..\macsw\export/co_math.h ****         shift += 2;
 157:..\..\..\..\macsw\export/co_math.h ****         val = tmp;
 158:..\..\..\..\macsw\export/co_math.h ****     }
 159:..\..\..\..\macsw\export/co_math.h **** 
 160:..\..\..\..\macsw\export/co_math.h ****     tmp = val >> 1;
 161:..\..\..\..\macsw\export/co_math.h ****     if (tmp)
 162:..\..\..\..\macsw\export/co_math.h ****     {
 163:..\..\..\..\macsw\export/co_math.h ****         shift += 1;
 164:..\..\..\..\macsw\export/co_math.h ****     }
 165:..\..\..\..\macsw\export/co_math.h **** 
 166:..\..\..\..\macsw\export/co_math.h ****     return (31 - shift);
 167:..\..\..\..\macsw\export/co_math.h **** //    #endif // defined(__arm__)
 168:..\..\..\..\macsw\export/co_math.h **** }
 169:..\..\..\..\macsw\export/co_math.h **** 
 170:..\..\..\..\macsw\export/co_math.h **** /**
 171:..\..\..\..\macsw\export/co_math.h ****  ****************************************************************************************
 172:..\..\..\..\macsw\export/co_math.h ****  * @brief Find last bit set.
 173:..\..\..\..\macsw\export/co_math.h ****  *
 174:..\..\..\..\macsw\export/co_math.h ****  * @param[in] val Value to count the last bit set.
 175:..\..\..\..\macsw\export/co_math.h ****  *
 176:..\..\..\..\macsw\export/co_math.h ****  * @return The index of the most significant bit set in a 32-bit word, -1 if value is 0
 177:..\..\..\..\macsw\export/co_math.h ****  ****************************************************************************************
 178:..\..\..\..\macsw\export/co_math.h ****  */
 179:..\..\..\..\macsw\export/co_math.h **** __INLINE int co_fls(uint32_t val)
 180:..\..\..\..\macsw\export/co_math.h **** {
 181:..\..\..\..\macsw\export/co_math.h ****     return (31 - co_clz(val));
 182:..\..\..\..\macsw\export/co_math.h **** }
 183:..\..\..\..\macsw\export/co_math.h **** 
 184:..\..\..\..\macsw\export/co_math.h **** /**
 185:..\..\..\..\macsw\export/co_math.h ****  ****************************************************************************************
 186:..\..\..\..\macsw\export/co_math.h ****  * @brief Function to initialize the random seed.
 187:..\..\..\..\macsw\export/co_math.h ****  * @param[in] seed The seed number to use to generate the random sequence.
 188:..\..\..\..\macsw\export/co_math.h ****  ****************************************************************************************
 189:..\..\..\..\macsw\export/co_math.h ****  */
 190:..\..\..\..\macsw\export/co_math.h **** __INLINE void co_random_init(uint32_t seed)
 191:..\..\..\..\macsw\export/co_math.h **** {
 192:..\..\..\..\macsw\export/co_math.h ****     srand(seed);
 193:..\..\..\..\macsw\export/co_math.h **** }
 194:..\..\..\..\macsw\export/co_math.h **** 
 195:..\..\..\..\macsw\export/co_math.h **** /**
 196:..\..\..\..\macsw\export/co_math.h ****  ****************************************************************************************
 197:..\..\..\..\macsw\export/co_math.h ****  * @brief Function to get an 8 bit random number.
 198:..\..\..\..\macsw\export/co_math.h ****  * @return Random byte value.
 199:..\..\..\..\macsw\export/co_math.h ****  ****************************************************************************************
 200:..\..\..\..\macsw\export/co_math.h ****  */
 201:..\..\..\..\macsw\export/co_math.h **** __INLINE uint8_t co_rand_byte(void)
 202:..\..\..\..\macsw\export/co_math.h **** {
 203:..\..\..\..\macsw\export/co_math.h ****     return (uint8_t)(rand() & 0xFF);
 204:..\..\..\..\macsw\export/co_math.h **** }
 205:..\..\..\..\macsw\export/co_math.h **** 
 206:..\..\..\..\macsw\export/co_math.h **** /**
 207:..\..\..\..\macsw\export/co_math.h ****  ****************************************************************************************
 208:..\..\..\..\macsw\export/co_math.h ****  * @brief Function to get an 16 bit random number.
 209:..\..\..\..\macsw\export/co_math.h ****  * @return Random half word value.
 210:..\..\..\..\macsw\export/co_math.h ****  ****************************************************************************************
 211:..\..\..\..\macsw\export/co_math.h ****  */
 212:..\..\..\..\macsw\export/co_math.h **** __INLINE uint16_t co_rand_hword(void)
 213:..\..\..\..\macsw\export/co_math.h **** {
 214:..\..\..\..\macsw\export/co_math.h ****     return (uint16_t)(rand() & 0xFFFF);
 215:..\..\..\..\macsw\export/co_math.h **** }
 216:..\..\..\..\macsw\export/co_math.h **** 
 217:..\..\..\..\macsw\export/co_math.h **** /**
 218:..\..\..\..\macsw\export/co_math.h ****  ****************************************************************************************
 219:..\..\..\..\macsw\export/co_math.h ****  * @brief Function to get an 32 bit random number.
 220:..\..\..\..\macsw\export/co_math.h ****  * @return Random word value.
 221:..\..\..\..\macsw\export/co_math.h ****  ****************************************************************************************
 222:..\..\..\..\macsw\export/co_math.h ****  */
 223:..\..\..\..\macsw\export/co_math.h **** __INLINE uint32_t co_rand_word(void)
 224:..\..\..\..\macsw\export/co_math.h **** {
 225:..\..\..\..\macsw\export/co_math.h ****     return (uint32_t)rand();
 226:..\..\..\..\macsw\export/co_math.h **** }
 227:..\..\..\..\macsw\export/co_math.h **** 
 228:..\..\..\..\macsw\export/co_math.h **** /**
 229:..\..\..\..\macsw\export/co_math.h ****  ****************************************************************************************
 230:..\..\..\..\macsw\export/co_math.h ****  * @brief Function to return the smallest of 2 unsigned 32 bits words.
 231:..\..\..\..\macsw\export/co_math.h ****  * @param[in] a First value
 232:..\..\..\..\macsw\export/co_math.h ****  * @param[in] b Second value
 233:..\..\..\..\macsw\export/co_math.h ****  * @return The smallest value between a and b
 234:..\..\..\..\macsw\export/co_math.h ****  ****************************************************************************************
 235:..\..\..\..\macsw\export/co_math.h ****  */
 236:..\..\..\..\macsw\export/co_math.h **** __INLINE uint32_t co_min(uint32_t a, uint32_t b)
 237:..\..\..\..\macsw\export/co_math.h **** {
 238:..\..\..\..\macsw\export/co_math.h ****     return a < b ? a : b;
 797              		.loc 2 238 5
 798              	.LBB72:
 799              	.LBB70:
 800              	.LBB62:
 801              	.LBB63:
 802              		.loc 2 238 5
 803              	.LBE63:
 804              	.LBE62:
 108:C:/Users/stapi/OneDrive/Desktop/GD32VW553/GD32VW55X_Wifi_BLE_SDK/GD32VW55x_RELEASE_V1.0.2/MSDK/ble/app\app_blue_courier_link.c ****     handshake_rsp.recv_size = BCW_VALUE_LEN;
 805              		.loc 1 108 25 is_stmt 0
 806 0062 8357A100 		lhu	a5,10(sp)
 807              	.LVL66:
 808              	.LBB67:
 809              	.LBB64:
 810              		.loc 2 238 22
 811 0066 13070010 		li	a4,256
 812              	.LBE64:
 813              	.LBE67:
 109:C:/Users/stapi/OneDrive/Desktop/GD32VW553/GD32VW55X_Wifi_BLE_SDK/GD32VW55x_RELEASE_V1.0.2/MSDK/ble/app\app_blue_courier_link.c ****     bcwl_env.peer_recv_size = co_min(handshake->recv_size, BCW_VALUE_LEN);
 814              		.loc 1 109 29
 815 006a 93060020 		li	a3,512
 816              	.LBB68:
 817              	.LBB65:
 818              		.loc 2 238 22
 819 006e B3D7E70A 		minu	a5,a5,a4
 820              	.LVL67:
 821              	.LBE65:
 822              	.LBE68:
 108:C:/Users/stapi/OneDrive/Desktop/GD32VW553/GD32VW55X_Wifi_BLE_SDK/GD32VW55x_RELEASE_V1.0.2/MSDK/ble/app\app_blue_courier_link.c ****     handshake_rsp.recv_size = BCW_VALUE_LEN;
 823              		.loc 1 108 25
 824 0072 03D70400 		lhu	a4,0(s1)
 109:C:/Users/stapi/OneDrive/Desktop/GD32VW553/GD32VW55X_Wifi_BLE_SDK/GD32VW55x_RELEASE_V1.0.2/MSDK/ble/app\app_blue_courier_link.c ****     bcwl_env.peer_recv_size = co_min(handshake->recv_size, BCW_VALUE_LEN);
 825              		.loc 1 109 29
 826 0076 2317D100 		sh	a3,14(sp)
 827              	.LBB69:
 828              	.LBB66:
 829              		.loc 2 238 22
 830 007a B3D7E70A 		minu	a5,a5,a4
 831              	.LVL68:
 832              	.LBE66:
 833              	.LBE69:
 110:C:/Users/stapi/OneDrive/Desktop/GD32VW553/GD32VW55X_Wifi_BLE_SDK/GD32VW55x_RELEASE_V1.0.2/MSDK/ble/app\app_blue_courier_link.c ****     bcwl_env.frag_size = handshake_rsp.mtu - sizeof(bcwl_header_t) - BLE_GATT_HEADER_LEN - 2/*crc *
 834              		.loc 1 110 29
 835 007e 03D72400 		lhu	a4,2(s1)
 108:C:/Users/stapi/OneDrive/Desktop/GD32VW553/GD32VW55X_Wifi_BLE_SDK/GD32VW55x_RELEASE_V1.0.2/MSDK/ble/app\app_blue_courier_link.c ****     handshake_rsp.recv_size = BCW_VALUE_LEN;
 836              		.loc 1 108 23
 837 0082 2316F100 		sh	a5,12(sp)
 109:C:/Users/stapi/OneDrive/Desktop/GD32VW553/GD32VW55X_Wifi_BLE_SDK/GD32VW55x_RELEASE_V1.0.2/MSDK/ble/app\app_blue_courier_link.c ****     bcwl_env.peer_recv_size = co_min(handshake->recv_size, BCW_VALUE_LEN);
 838              		.loc 1 109 5 is_stmt 1
 110:C:/Users/stapi/OneDrive/Desktop/GD32VW553/GD32VW55X_Wifi_BLE_SDK/GD32VW55x_RELEASE_V1.0.2/MSDK/ble/app\app_blue_courier_link.c ****     bcwl_env.frag_size = handshake_rsp.mtu - sizeof(bcwl_header_t) - BLE_GATT_HEADER_LEN - 2/*crc *
 839              		.loc 1 110 5
 840              	.LVL69:
 841              	.LBE70:
 842              	.LBE72:
 843              		.loc 2 238 5
 844              	.LBB73:
 845              	.LBB71:
 111:C:/Users/stapi/OneDrive/Desktop/GD32VW553/GD32VW55X_Wifi_BLE_SDK/GD32VW55x_RELEASE_V1.0.2/MSDK/ble/app\app_blue_courier_link.c ****     bcwl_env.handshake_success = true;
 846              		.loc 1 111 90 is_stmt 0
 847 0086 DD17     		addi	a5,a5,-9
 110:C:/Users/stapi/OneDrive/Desktop/GD32VW553/GD32VW55X_Wifi_BLE_SDK/GD32VW55x_RELEASE_V1.0.2/MSDK/ble/app\app_blue_courier_link.c ****     bcwl_env.frag_size = handshake_rsp.mtu - sizeof(bcwl_header_t) - BLE_GATT_HEADER_LEN - 2/*crc *
 848              		.loc 1 110 29
 849 0088 3357D70A 		minu	a4,a4,a3
 850 008c 231DE400 		sh	a4,26(s0)
 111:C:/Users/stapi/OneDrive/Desktop/GD32VW553/GD32VW55X_Wifi_BLE_SDK/GD32VW55x_RELEASE_V1.0.2/MSDK/ble/app\app_blue_courier_link.c ****     bcwl_env.handshake_success = true;
 851              		.loc 1 111 5 is_stmt 1
 114:C:/Users/stapi/OneDrive/Desktop/GD32VW553/GD32VW55X_Wifi_BLE_SDK/GD32VW55x_RELEASE_V1.0.2/MSDK/ble/app\app_blue_courier_link.c **** 
 852              		.loc 1 114 5 is_stmt 0
 853 0090 03470900 		lbu	a4,%lo(global_debug_level)(s2)
 111:C:/Users/stapi/OneDrive/Desktop/GD32VW553/GD32VW55X_Wifi_BLE_SDK/GD32VW55x_RELEASE_V1.0.2/MSDK/ble/app\app_blue_courier_link.c ****     bcwl_env.handshake_success = true;
 854              		.loc 1 111 24
 855 0094 230CF400 		sb	a5,24(s0)
 112:C:/Users/stapi/OneDrive/Desktop/GD32VW553/GD32VW55X_Wifi_BLE_SDK/GD32VW55x_RELEASE_V1.0.2/MSDK/ble/app\app_blue_courier_link.c **** 
 856              		.loc 1 112 5 is_stmt 1
 112:C:/Users/stapi/OneDrive/Desktop/GD32VW553/GD32VW55X_Wifi_BLE_SDK/GD32VW55x_RELEASE_V1.0.2/MSDK/ble/app\app_blue_courier_link.c **** 
 857              		.loc 1 112 32 is_stmt 0
 858 0098 8547     		li	a5,1
 859 009a 230EF400 		sb	a5,28(s0)
 114:C:/Users/stapi/OneDrive/Desktop/GD32VW553/GD32VW55X_Wifi_BLE_SDK/GD32VW55x_RELEASE_V1.0.2/MSDK/ble/app\app_blue_courier_link.c **** 
 860              		.loc 1 114 5 is_stmt 1
 114:C:/Users/stapi/OneDrive/Desktop/GD32VW553/GD32VW55X_Wifi_BLE_SDK/GD32VW55x_RELEASE_V1.0.2/MSDK/ble/app\app_blue_courier_link.c **** 
 861              		.loc 1 114 5
 862 009e 8947     		li	a5,2
 863 00a0 63FEE700 		bleu	a4,a5,.L66
 114:C:/Users/stapi/OneDrive/Desktop/GD32VW553/GD32VW55X_Wifi_BLE_SDK/GD32VW55x_RELEASE_V1.0.2/MSDK/ble/app\app_blue_courier_link.c **** 
 864              		.loc 1 114 5
 865 00a4 B7050000 		lui	a1,%hi(.LANCHOR5)
 866 00a8 37050000 		lui	a0,%hi(.LC5)
 867 00ac 93850500 		addi	a1,a1,%lo(.LANCHOR5)
 868 00b0 13050500 		addi	a0,a0,%lo(.LC5)
 869 00b4 97000000 		call	co_printf
 869      E7800000 
 870              	.LVL70:
 871              	.L66:
 114:C:/Users/stapi/OneDrive/Desktop/GD32VW553/GD32VW55X_Wifi_BLE_SDK/GD32VW55x_RELEASE_V1.0.2/MSDK/ble/app\app_blue_courier_link.c **** 
 872              		.loc 1 114 5
 116:C:/Users/stapi/OneDrive/Desktop/GD32VW553/GD32VW55X_Wifi_BLE_SDK/GD32VW55x_RELEASE_V1.0.2/MSDK/ble/app\app_blue_courier_link.c ****         (uint8_t *)&handshake_rsp, sizeof(bcwl_mgmt_handshake_t));
 873              		.loc 1 116 5
 874 00bc 1146     		li	a2,4
 875 00be 6C00     		addi	a1,sp,12
 876 00c0 0145     		li	a0,0
 877 00c2 97000000 		call	bcwl_send
 877      E7800000 
 878              	.LVL71:
 879 00ca 95BF     		j	.L62
 880              	.LBE71:
 881              	.LBE73:
 882              		.cfi_endproc
 883              	.LFE16:
 885              		.section	.rodata.bcwl_msg_handler.str1.4,"aMS",@progbits,1
 886              		.align	2
 887              	.LC6:
 888 0000 25732075 		.string	"%s unknown opcode %x\n"
 888      6E6B6E6F 
 888      776E206F 
 888      70636F64 
 888      65202578 
 889              		.section	.text.bcwl_msg_handler,"ax",@progbits
 890              		.align	1
 891              		.globl	bcwl_msg_handler
 893              	bcwl_msg_handler:
 894              	.LFB17:
 129:C:/Users/stapi/OneDrive/Desktop/GD32VW553/GD32VW55X_Wifi_BLE_SDK/GD32VW55x_RELEASE_V1.0.2/MSDK/ble/app\app_blue_courier_link.c ****     switch (BCWL_OPCODE_GET_TYPE(opcode)) {
 895              		.loc 1 129 1
 896              		.cfi_startproc
 897              	.LVL72:
 898 0000 17030000 		call	t0,__riscv_save_0
 898      E7020300 
 899              		.cfi_offset 1, -4
 900              		.cfi_def_cfa_offset 16
 130:C:/Users/stapi/OneDrive/Desktop/GD32VW553/GD32VW55X_Wifi_BLE_SDK/GD32VW55x_RELEASE_V1.0.2/MSDK/ble/app\app_blue_courier_link.c ****     case BCWL_OPCODE_TYPE_MGMT:
 901              		.loc 1 130 5
 130:C:/Users/stapi/OneDrive/Desktop/GD32VW553/GD32VW55X_Wifi_BLE_SDK/GD32VW55x_RELEASE_V1.0.2/MSDK/ble/app\app_blue_courier_link.c ****     case BCWL_OPCODE_TYPE_MGMT:
 902              		.loc 1 130 13 is_stmt 0
 903 0008 93566500 		srli	a3,a0,6
 129:C:/Users/stapi/OneDrive/Desktop/GD32VW553/GD32VW55X_Wifi_BLE_SDK/GD32VW55x_RELEASE_V1.0.2/MSDK/ble/app\app_blue_courier_link.c ****     switch (BCWL_OPCODE_GET_TYPE(opcode)) {
 904              		.loc 1 129 1
 905 000c AA87     		mv	a5,a0
 130:C:/Users/stapi/OneDrive/Desktop/GD32VW553/GD32VW55X_Wifi_BLE_SDK/GD32VW55x_RELEASE_V1.0.2/MSDK/ble/app\app_blue_courier_link.c ****     case BCWL_OPCODE_TYPE_MGMT:
 906              		.loc 1 130 5
 907 000e 85CE     		beq	a3,zero,.L72
 908 0010 0547     		li	a4,1
 909 0012 638DE604 		beq	a3,a4,.L73
 910              	.L76:
 141:C:/Users/stapi/OneDrive/Desktop/GD32VW553/GD32VW55X_Wifi_BLE_SDK/GD32VW55x_RELEASE_V1.0.2/MSDK/ble/app\app_blue_courier_link.c ****             bcwl_error_report(BCWL_ERR_UNKNOWN_OPCODE);
 911              		.loc 1 141 13 is_stmt 1
 141:C:/Users/stapi/OneDrive/Desktop/GD32VW553/GD32VW55X_Wifi_BLE_SDK/GD32VW55x_RELEASE_V1.0.2/MSDK/ble/app\app_blue_courier_link.c ****             bcwl_error_report(BCWL_ERR_UNKNOWN_OPCODE);
 912              		.loc 1 141 13
 913 0016 37070000 		lui	a4,%hi(global_debug_level)
 914 001a 03470700 		lbu	a4,%lo(global_debug_level)(a4)
 915 001e 11CF     		beq	a4,zero,.L78
 141:C:/Users/stapi/OneDrive/Desktop/GD32VW553/GD32VW55X_Wifi_BLE_SDK/GD32VW55x_RELEASE_V1.0.2/MSDK/ble/app\app_blue_courier_link.c ****             bcwl_error_report(BCWL_ERR_UNKNOWN_OPCODE);
 916              		.loc 1 141 13 discriminator 1
 917 0020 B7050000 		lui	a1,%hi(.LANCHOR6)
 918              	.LVL73:
 919 0024 37050000 		lui	a0,%hi(.LC6)
 920              	.LVL74:
 921 0028 3E86     		mv	a2,a5
 922              	.LVL75:
 923 002a 93850500 		addi	a1,a1,%lo(.LANCHOR6)
 924 002e 13050500 		addi	a0,a0,%lo(.LC6)
 925 0032 97000000 		call	co_printf
 925      E7800000 
 926              	.LVL76:
 927              	.L78:
 141:C:/Users/stapi/OneDrive/Desktop/GD32VW553/GD32VW55X_Wifi_BLE_SDK/GD32VW55x_RELEASE_V1.0.2/MSDK/ble/app\app_blue_courier_link.c ****             bcwl_error_report(BCWL_ERR_UNKNOWN_OPCODE);
 928              		.loc 1 141 13 discriminator 3
 142:C:/Users/stapi/OneDrive/Desktop/GD32VW553/GD32VW55X_Wifi_BLE_SDK/GD32VW55x_RELEASE_V1.0.2/MSDK/ble/app\app_blue_courier_link.c ****             break;
 929              		.loc 1 142 13 discriminator 3
 930 003a 0945     		li	a0,2
 931 003c 97000000 		call	bcwl_error_report
 931      E7800000 
 932              	.LVL77:
 143:C:/Users/stapi/OneDrive/Desktop/GD32VW553/GD32VW55X_Wifi_BLE_SDK/GD32VW55x_RELEASE_V1.0.2/MSDK/ble/app\app_blue_courier_link.c ****         }
 933              		.loc 1 143 13 discriminator 3
 934 0044 09A8     		j	.L71
 935              	.LVL78:
 936              	.L72:
 132:C:/Users/stapi/OneDrive/Desktop/GD32VW553/GD32VW55X_Wifi_BLE_SDK/GD32VW55x_RELEASE_V1.0.2/MSDK/ble/app\app_blue_courier_link.c ****         case BCWL_OPCODE_MGMT_SUBTYPE_HANDSHAKE:
 937              		.loc 1 132 9
 938 0046 01CD     		beq	a0,zero,.L75
 939 0048 1307F5FF 		addi	a4,a0,-1
 940 004c 1377F70F 		andi	a4,a4,0xff
 941 0050 8546     		li	a3,1
 942 0052 E3E2E6FC 		bgtu	a4,a3,.L76
 943              	.LVL79:
 944              	.L71:
 153:C:/Users/stapi/OneDrive/Desktop/GD32VW553/GD32VW55X_Wifi_BLE_SDK/GD32VW55x_RELEASE_V1.0.2/MSDK/ble/app\app_blue_courier_link.c **** 
 945              		.loc 1 153 1 is_stmt 0
 946 0056 17030000 		tail	__riscv_restore_0
 946      67000300 
 947              		.cfi_remember_state
 948              		.cfi_restore 1
 949              		.cfi_def_cfa_offset 0
 950              	.LVL80:
 951              	.L75:
 952              		.cfi_restore_state
 953 005e 2E85     		mv	a0,a1
 954              	.LVL81:
 134:C:/Users/stapi/OneDrive/Desktop/GD32VW553/GD32VW55X_Wifi_BLE_SDK/GD32VW55x_RELEASE_V1.0.2/MSDK/ble/app\app_blue_courier_link.c ****             break;
 955              		.loc 1 134 13 is_stmt 1
 956 0060 B285     		mv	a1,a2
 957              	.LVL82:
 958 0062 97000000 		call	bcwl_handle_mgmt_handshake
 958      E7800000 
 959              	.LVL83:
 135:C:/Users/stapi/OneDrive/Desktop/GD32VW553/GD32VW55X_Wifi_BLE_SDK/GD32VW55x_RELEASE_V1.0.2/MSDK/ble/app\app_blue_courier_link.c ****         case BCWL_OPCODE_MGMT_SUBTYPE_ACK:
 960              		.loc 1 135 13
 961 006a F5B7     		j	.L71
 962              	.LVL84:
 963              	.L73:
 147:C:/Users/stapi/OneDrive/Desktop/GD32VW553/GD32VW55X_Wifi_BLE_SDK/GD32VW55x_RELEASE_V1.0.2/MSDK/ble/app\app_blue_courier_link.c ****         break;
 964              		.loc 1 147 9
 965 006c 1375F503 		andi	a0,a0,63
 966              	.LVL85:
 967 0070 97000000 		call	bcwp_msg_handler
 967      E7800000 
 968              	.LVL86:
 148:C:/Users/stapi/OneDrive/Desktop/GD32VW553/GD32VW55X_Wifi_BLE_SDK/GD32VW55x_RELEASE_V1.0.2/MSDK/ble/app\app_blue_courier_link.c ****     default:
 969              		.loc 1 148 9
 970 0078 F9BF     		j	.L71
 971              		.cfi_endproc
 972              	.LFE17:
 974              		.section	.rodata.bcwl_receive.str1.4,"aMS",@progbits,1
 975              		.align	2
 976              	.LC7:
 977 0000 25732073 		.string	"%s size error %d\n"
 977      697A6520 
 977      6572726F 
 977      72202564 
 977      0A00
 978 0012 0000     		.align	2
 979              	.LC8:
 980 0014 2573206E 		.string	"%s not handshake %d\n"
 980      6F742068 
 980      616E6473 
 980      68616B65 
 980      2025640A 
 981 0029 000000   		.align	2
 982              	.LC9:
 983 002c 25732073 		.string	"%s seq %d is not expect %d\n"
 983      65712025 
 983      64206973 
 983      206E6F74 
 983      20657870 
 984              		.align	2
 985              	.LC10:
 986 0048 25732065 		.string	"%s error %u\n"
 986      72726F72 
 986      2025750A 
 986      00
 987              		.section	.text.bcwl_receive,"ax",@progbits
 988              		.align	1
 989              		.globl	bcwl_receive
 991              	bcwl_receive:
 992              	.LFB20:
 252:C:/Users/stapi/OneDrive/Desktop/GD32VW553/GD32VW55X_Wifi_BLE_SDK/GD32VW55x_RELEASE_V1.0.2/MSDK/ble/app\app_blue_courier_link.c ****     uint8_t status = BCWL_ERR_RECV_ERROR;
 993              		.loc 1 252 1
 994              		.cfi_startproc
 995              	.LVL87:
 996 0000 17030000 		call	t0,__riscv_save_2
 996      E7020300 
 997              		.cfi_offset 9, -12
 998              		.cfi_offset 8, -8
 999              		.cfi_offset 1, -4
 1000              		.cfi_def_cfa_offset 16
 253:C:/Users/stapi/OneDrive/Desktop/GD32VW553/GD32VW55X_Wifi_BLE_SDK/GD32VW55x_RELEASE_V1.0.2/MSDK/ble/app\app_blue_courier_link.c ****     uint16_t crc, crc_pkt;
 1001              		.loc 1 253 5
 1002              	.LVL88:
 254:C:/Users/stapi/OneDrive/Desktop/GD32VW553/GD32VW55X_Wifi_BLE_SDK/GD32VW55x_RELEASE_V1.0.2/MSDK/ble/app\app_blue_courier_link.c ****     bcwl_header_t *hdr = (bcwl_header_t *)data;
 1003              		.loc 1 254 5
 255:C:/Users/stapi/OneDrive/Desktop/GD32VW553/GD32VW55X_Wifi_BLE_SDK/GD32VW55x_RELEASE_V1.0.2/MSDK/ble/app\app_blue_courier_link.c **** 
 1004              		.loc 1 255 5
 257:C:/Users/stapi/OneDrive/Desktop/GD32VW553/GD32VW55X_Wifi_BLE_SDK/GD32VW55x_RELEASE_V1.0.2/MSDK/ble/app\app_blue_courier_link.c ****         dbg_print(ERR, "%s size error %d\n", __func__, len);
 1005              		.loc 1 257 5
 257:C:/Users/stapi/OneDrive/Desktop/GD32VW553/GD32VW55X_Wifi_BLE_SDK/GD32VW55x_RELEASE_V1.0.2/MSDK/ble/app\app_blue_courier_link.c ****         dbg_print(ERR, "%s size error %d\n", __func__, len);
 1006              		.loc 1 257 8 is_stmt 0
 1007 0008 8D47     		li	a5,3
 1008 000a 63EDB702 		bgtu	a1,a5,.L90
 258:C:/Users/stapi/OneDrive/Desktop/GD32VW553/GD32VW55X_Wifi_BLE_SDK/GD32VW55x_RELEASE_V1.0.2/MSDK/ble/app\app_blue_courier_link.c ****         bcwl_error_report(BCWL_ERR_PACKET_LEN_ERROR);
 1009              		.loc 1 258 9 is_stmt 1
 258:C:/Users/stapi/OneDrive/Desktop/GD32VW553/GD32VW55X_Wifi_BLE_SDK/GD32VW55x_RELEASE_V1.0.2/MSDK/ble/app\app_blue_courier_link.c ****         bcwl_error_report(BCWL_ERR_PACKET_LEN_ERROR);
 1010              		.loc 1 258 9
 1011 000e B7070000 		lui	a5,%hi(global_debug_level)
 1012 0012 83C70700 		lbu	a5,%lo(global_debug_level)(a5)
 1013 0016 91CF     		beq	a5,zero,.L91
 1014 0018 2E86     		mv	a2,a1
 258:C:/Users/stapi/OneDrive/Desktop/GD32VW553/GD32VW55X_Wifi_BLE_SDK/GD32VW55x_RELEASE_V1.0.2/MSDK/ble/app\app_blue_courier_link.c ****         bcwl_error_report(BCWL_ERR_PACKET_LEN_ERROR);
 1015              		.loc 1 258 9 discriminator 1
 1016 001a 37050000 		lui	a0,%hi(.LC7)
 1017              	.LVL89:
 1018 001e B7050000 		lui	a1,%hi(.LANCHOR7)
 1019              	.LVL90:
 1020 0022 93850500 		addi	a1,a1,%lo(.LANCHOR7)
 1021 0026 13050500 		addi	a0,a0,%lo(.LC7)
 1022 002a 97000000 		call	co_printf
 1022      E7800000 
 1023              	.LVL91:
 1024              	.L91:
 258:C:/Users/stapi/OneDrive/Desktop/GD32VW553/GD32VW55X_Wifi_BLE_SDK/GD32VW55x_RELEASE_V1.0.2/MSDK/ble/app\app_blue_courier_link.c ****         bcwl_error_report(BCWL_ERR_PACKET_LEN_ERROR);
 1025              		.loc 1 258 9 discriminator 3
 259:C:/Users/stapi/OneDrive/Desktop/GD32VW553/GD32VW55X_Wifi_BLE_SDK/GD32VW55x_RELEASE_V1.0.2/MSDK/ble/app\app_blue_courier_link.c ****         return;
 1026              		.loc 1 259 9 discriminator 3
 1027 0032 0545     		li	a0,1
 1028              	.L137:
 1029              	.LBB76:
 1030              	.LBB77:
 266:C:/Users/stapi/OneDrive/Desktop/GD32VW553/GD32VW55X_Wifi_BLE_SDK/GD32VW55x_RELEASE_V1.0.2/MSDK/ble/app\app_blue_courier_link.c ****         return;
 1031              		.loc 1 266 9 is_stmt 0
 1032 0034 97000000 		call	bcwl_error_report
 1032      E7800000 
 1033              	.LVL92:
 267:C:/Users/stapi/OneDrive/Desktop/GD32VW553/GD32VW55X_Wifi_BLE_SDK/GD32VW55x_RELEASE_V1.0.2/MSDK/ble/app\app_blue_courier_link.c ****     }
 1034              		.loc 1 267 9 is_stmt 1
 1035              	.L89:
 1036              	.LBE77:
 1037              	.LBE76:
 343:C:/Users/stapi/OneDrive/Desktop/GD32VW553/GD32VW55X_Wifi_BLE_SDK/GD32VW55x_RELEASE_V1.0.2/MSDK/ble/app\app_blue_courier_link.c **** 
 1038              		.loc 1 343 1 is_stmt 0
 1039 003c 17030000 		tail	__riscv_restore_2
 1039      67000300 
 1040              		.cfi_remember_state
 1041              		.cfi_restore 9
 1042              		.cfi_restore 8
 1043              		.cfi_restore 1
 1044              		.cfi_def_cfa_offset 0
 1045              	.LVL93:
 1046              	.L90:
 1047              		.cfi_restore_state
 1048              	.LBB80:
 1049              	.LBB78:
 263:C:/Users/stapi/OneDrive/Desktop/GD32VW553/GD32VW55X_Wifi_BLE_SDK/GD32VW55x_RELEASE_V1.0.2/MSDK/ble/app\app_blue_courier_link.c ****         hdr->opcode != BCWL_OPCODE_BUILD(BCWL_OPCODE_TYPE_MGMT, BCWL_OPCODE_MGMT_SUBTYPE_HANDSHAKE)
 1050              		.loc 1 263 18
 1051 0044 37040000 		lui	s0,%hi(.LANCHOR0)
 1052 0048 93070400 		addi	a5,s0,%lo(.LANCHOR0)
 263:C:/Users/stapi/OneDrive/Desktop/GD32VW553/GD32VW55X_Wifi_BLE_SDK/GD32VW55x_RELEASE_V1.0.2/MSDK/ble/app\app_blue_courier_link.c ****         hdr->opcode != BCWL_OPCODE_BUILD(BCWL_OPCODE_TYPE_MGMT, BCWL_OPCODE_MGMT_SUBTYPE_HANDSHAKE)
 1053              		.loc 1 263 8
 1054 004c 83C7C701 		lbu	a5,28(a5)
 1055 0050 AA84     		mv	s1,a0
 1056              	.LVL94:
 263:C:/Users/stapi/OneDrive/Desktop/GD32VW553/GD32VW55X_Wifi_BLE_SDK/GD32VW55x_RELEASE_V1.0.2/MSDK/ble/app\app_blue_courier_link.c ****         hdr->opcode != BCWL_OPCODE_BUILD(BCWL_OPCODE_TYPE_MGMT, BCWL_OPCODE_MGMT_SUBTYPE_HANDSHAKE)
 1057              		.loc 1 263 5 is_stmt 1
 1058 0052 13040400 		addi	s0,s0,%lo(.LANCHOR0)
 263:C:/Users/stapi/OneDrive/Desktop/GD32VW553/GD32VW55X_Wifi_BLE_SDK/GD32VW55x_RELEASE_V1.0.2/MSDK/ble/app\app_blue_courier_link.c ****         hdr->opcode != BCWL_OPCODE_BUILD(BCWL_OPCODE_TYPE_MGMT, BCWL_OPCODE_MGMT_SUBTYPE_HANDSHAKE)
 1059              		.loc 1 263 8 is_stmt 0
 1060 0056 9DE7     		bne	a5,zero,.L93
 1061              	.LVL95:
 264:C:/Users/stapi/OneDrive/Desktop/GD32VW553/GD32VW55X_Wifi_BLE_SDK/GD32VW55x_RELEASE_V1.0.2/MSDK/ble/app\app_blue_courier_link.c ****         dbg_print(ERR, "%s not handshake %d\n", __func__, hdr->opcode);
 1062              		.loc 1 264 12
 1063 0058 03462500 		lbu	a2,2(a0)
 263:C:/Users/stapi/OneDrive/Desktop/GD32VW553/GD32VW55X_Wifi_BLE_SDK/GD32VW55x_RELEASE_V1.0.2/MSDK/ble/app\app_blue_courier_link.c ****         hdr->opcode != BCWL_OPCODE_BUILD(BCWL_OPCODE_TYPE_MGMT, BCWL_OPCODE_MGMT_SUBTYPE_HANDSHAKE)
 1064              		.loc 1 263 37
 1065 005c 05C6     		beq	a2,zero,.L93
 265:C:/Users/stapi/OneDrive/Desktop/GD32VW553/GD32VW55X_Wifi_BLE_SDK/GD32VW55x_RELEASE_V1.0.2/MSDK/ble/app\app_blue_courier_link.c ****         bcwl_error_report(BCWL_ERR_NO_HANDSHAKE);
 1066              		.loc 1 265 9 is_stmt 1
 265:C:/Users/stapi/OneDrive/Desktop/GD32VW553/GD32VW55X_Wifi_BLE_SDK/GD32VW55x_RELEASE_V1.0.2/MSDK/ble/app\app_blue_courier_link.c ****         bcwl_error_report(BCWL_ERR_NO_HANDSHAKE);
 1067              		.loc 1 265 9
 1068 005e B7070000 		lui	a5,%hi(global_debug_level)
 1069 0062 83C70700 		lbu	a5,%lo(global_debug_level)(a5)
 1070 0066 89CF     		beq	a5,zero,.L94
 265:C:/Users/stapi/OneDrive/Desktop/GD32VW553/GD32VW55X_Wifi_BLE_SDK/GD32VW55x_RELEASE_V1.0.2/MSDK/ble/app\app_blue_courier_link.c ****         bcwl_error_report(BCWL_ERR_NO_HANDSHAKE);
 1071              		.loc 1 265 9
 1072 0068 B7050000 		lui	a1,%hi(.LANCHOR7)
 1073              	.LVL96:
 1074 006c 37050000 		lui	a0,%hi(.LC8)
 1075 0070 93850500 		addi	a1,a1,%lo(.LANCHOR7)
 1076 0074 13050500 		addi	a0,a0,%lo(.LC8)
 1077 0078 97000000 		call	co_printf
 1077      E7800000 
 1078              	.LVL97:
 1079              	.L94:
 265:C:/Users/stapi/OneDrive/Desktop/GD32VW553/GD32VW55X_Wifi_BLE_SDK/GD32VW55x_RELEASE_V1.0.2/MSDK/ble/app\app_blue_courier_link.c ****         bcwl_error_report(BCWL_ERR_NO_HANDSHAKE);
 1080              		.loc 1 265 9
 266:C:/Users/stapi/OneDrive/Desktop/GD32VW553/GD32VW55X_Wifi_BLE_SDK/GD32VW55x_RELEASE_V1.0.2/MSDK/ble/app\app_blue_courier_link.c ****         return;
 1081              		.loc 1 266 9
 1082 0080 1D45     		li	a0,7
 1083 0082 4DBF     		j	.L137
 1084              	.LVL98:
 1085              	.L93:
 270:C:/Users/stapi/OneDrive/Desktop/GD32VW553/GD32VW55X_Wifi_BLE_SDK/GD32VW55x_RELEASE_V1.0.2/MSDK/ble/app\app_blue_courier_link.c ****         bcwl_send_ack(hdr->seq);
 1086              		.loc 1 270 5
 270:C:/Users/stapi/OneDrive/Desktop/GD32VW553/GD32VW55X_Wifi_BLE_SDK/GD32VW55x_RELEASE_V1.0.2/MSDK/ble/app\app_blue_courier_link.c ****         bcwl_send_ack(hdr->seq);
 1087              		.loc 1 270 8 is_stmt 0
 1088 0084 83C70400 		lbu	a5,0(s1)
 1089 0088 918B     		andi	a5,a5,4
 1090 008a 99C7     		beq	a5,zero,.L95
 271:C:/Users/stapi/OneDrive/Desktop/GD32VW553/GD32VW55X_Wifi_BLE_SDK/GD32VW55x_RELEASE_V1.0.2/MSDK/ble/app\app_blue_courier_link.c **** 
 1091              		.loc 1 271 9 is_stmt 1
 1092 008c 03C51400 		lbu	a0,1(s1)
 1093 0090 97000000 		call	bcwl_send_ack
 1093      E7800000 
 1094              	.LVL99:
 1095              	.L95:
 273:C:/Users/stapi/OneDrive/Desktop/GD32VW553/GD32VW55X_Wifi_BLE_SDK/GD32VW55x_RELEASE_V1.0.2/MSDK/ble/app\app_blue_courier_link.c ****         dbg_print(ERR, "%s seq %d is not expect %d\n", __func__, hdr->seq, bcwl_env.recv_seq);
 1096              		.loc 1 273 5
 273:C:/Users/stapi/OneDrive/Desktop/GD32VW553/GD32VW55X_Wifi_BLE_SDK/GD32VW55x_RELEASE_V1.0.2/MSDK/ble/app\app_blue_courier_link.c ****         dbg_print(ERR, "%s seq %d is not expect %d\n", __func__, hdr->seq, bcwl_env.recv_seq);
 1097              		.loc 1 273 12 is_stmt 0
 1098 0098 03C61400 		lbu	a2,1(s1)
 273:C:/Users/stapi/OneDrive/Desktop/GD32VW553/GD32VW55X_Wifi_BLE_SDK/GD32VW55x_RELEASE_V1.0.2/MSDK/ble/app\app_blue_courier_link.c ****         dbg_print(ERR, "%s seq %d is not expect %d\n", __func__, hdr->seq, bcwl_env.recv_seq);
 1099              		.loc 1 273 29
 1100 009c 8346C400 		lbu	a3,12(s0)
 273:C:/Users/stapi/OneDrive/Desktop/GD32VW553/GD32VW55X_Wifi_BLE_SDK/GD32VW55x_RELEASE_V1.0.2/MSDK/ble/app\app_blue_courier_link.c ****         dbg_print(ERR, "%s seq %d is not expect %d\n", __func__, hdr->seq, bcwl_env.recv_seq);
 1101              		.loc 1 273 8
 1102 00a0 6305D602 		beq	a2,a3,.L96
 274:C:/Users/stapi/OneDrive/Desktop/GD32VW553/GD32VW55X_Wifi_BLE_SDK/GD32VW55x_RELEASE_V1.0.2/MSDK/ble/app\app_blue_courier_link.c ****         bcwl_error_report(BCWL_ERR_SEQUENCE_ERROR);
 1103              		.loc 1 274 9 is_stmt 1
 274:C:/Users/stapi/OneDrive/Desktop/GD32VW553/GD32VW55X_Wifi_BLE_SDK/GD32VW55x_RELEASE_V1.0.2/MSDK/ble/app\app_blue_courier_link.c ****         bcwl_error_report(BCWL_ERR_SEQUENCE_ERROR);
 1104              		.loc 1 274 9
 1105 00a4 B7070000 		lui	a5,%hi(global_debug_level)
 1106 00a8 83C70700 		lbu	a5,%lo(global_debug_level)(a5)
 1107 00ac 89CF     		beq	a5,zero,.L97
 274:C:/Users/stapi/OneDrive/Desktop/GD32VW553/GD32VW55X_Wifi_BLE_SDK/GD32VW55x_RELEASE_V1.0.2/MSDK/ble/app\app_blue_courier_link.c ****         bcwl_error_report(BCWL_ERR_SEQUENCE_ERROR);
 1108              		.loc 1 274 9
 1109 00ae B7050000 		lui	a1,%hi(.LANCHOR7)
 1110 00b2 37050000 		lui	a0,%hi(.LC9)
 1111 00b6 93850500 		addi	a1,a1,%lo(.LANCHOR7)
 1112 00ba 13050500 		addi	a0,a0,%lo(.LC9)
 1113 00be 97000000 		call	co_printf
 1113      E7800000 
 1114              	.LVL100:
 1115              	.L97:
 274:C:/Users/stapi/OneDrive/Desktop/GD32VW553/GD32VW55X_Wifi_BLE_SDK/GD32VW55x_RELEASE_V1.0.2/MSDK/ble/app\app_blue_courier_link.c ****         bcwl_error_report(BCWL_ERR_SEQUENCE_ERROR);
 1116              		.loc 1 274 9
 275:C:/Users/stapi/OneDrive/Desktop/GD32VW553/GD32VW55X_Wifi_BLE_SDK/GD32VW55x_RELEASE_V1.0.2/MSDK/ble/app\app_blue_courier_link.c ****         return;
 1117              		.loc 1 275 9
 1118 00c6 2145     		li	a0,8
 1119 00c8 B5B7     		j	.L137
 1120              	.L96:
 279:C:/Users/stapi/OneDrive/Desktop/GD32VW553/GD32VW55X_Wifi_BLE_SDK/GD32VW55x_RELEASE_V1.0.2/MSDK/ble/app\app_blue_courier_link.c **** 
 1121              		.loc 1 279 5
 279:C:/Users/stapi/OneDrive/Desktop/GD32VW553/GD32VW55X_Wifi_BLE_SDK/GD32VW55x_RELEASE_V1.0.2/MSDK/ble/app\app_blue_courier_link.c **** 
 1122              		.loc 1 279 22 is_stmt 0
 1123 00ca 0506     		addi	a2,a2,1
 1124 00cc 2306C400 		sb	a2,12(s0)
 281:C:/Users/stapi/OneDrive/Desktop/GD32VW553/GD32VW55X_Wifi_BLE_SDK/GD32VW55x_RELEASE_V1.0.2/MSDK/ble/app\app_blue_courier_link.c ****     crc_pkt = hdr->data[hdr->data_len] | (((uint16_t) hdr->data[hdr->data_len + 1]) << 8);
 1125              		.loc 1 281 5 is_stmt 1
 281:C:/Users/stapi/OneDrive/Desktop/GD32VW553/GD32VW55X_Wifi_BLE_SDK/GD32VW55x_RELEASE_V1.0.2/MSDK/ble/app\app_blue_courier_link.c ****     crc_pkt = hdr->data[hdr->data_len] | (((uint16_t) hdr->data[hdr->data_len + 1]) << 8);
 1126              		.loc 1 281 34 is_stmt 0
 1127 00d0 83C53400 		lbu	a1,3(s1)
 281:C:/Users/stapi/OneDrive/Desktop/GD32VW553/GD32VW55X_Wifi_BLE_SDK/GD32VW55x_RELEASE_V1.0.2/MSDK/ble/app\app_blue_courier_link.c ****     crc_pkt = hdr->data[hdr->data_len] | (((uint16_t) hdr->data[hdr->data_len + 1]) << 8);
 1128              		.loc 1 281 11
 1129 00d4 0146     		li	a2,0
 1130 00d6 13851400 		addi	a0,s1,1
 1131 00da 8D05     		addi	a1,a1,3
 1132 00dc 97000000 		call	co_crc16
 1132      E7800000 
 1133              	.LVL101:
 282:C:/Users/stapi/OneDrive/Desktop/GD32VW553/GD32VW55X_Wifi_BLE_SDK/GD32VW55x_RELEASE_V1.0.2/MSDK/ble/app\app_blue_courier_link.c ****     if (crc != crc_pkt) {
 1134              		.loc 1 282 5 is_stmt 1
 282:C:/Users/stapi/OneDrive/Desktop/GD32VW553/GD32VW55X_Wifi_BLE_SDK/GD32VW55x_RELEASE_V1.0.2/MSDK/ble/app\app_blue_courier_link.c ****     if (crc != crc_pkt) {
 1135              		.loc 1 282 28 is_stmt 0
 1136 00e4 03C63400 		lbu	a2,3(s1)
 1137              	.LVL102:
 283:C:/Users/stapi/OneDrive/Desktop/GD32VW553/GD32VW55X_Wifi_BLE_SDK/GD32VW55x_RELEASE_V1.0.2/MSDK/ble/app\app_blue_courier_link.c ****         status = BCWL_ERR_CRC_CHECK;
 1138              		.loc 1 283 5 is_stmt 1
 282:C:/Users/stapi/OneDrive/Desktop/GD32VW553/GD32VW55X_Wifi_BLE_SDK/GD32VW55x_RELEASE_V1.0.2/MSDK/ble/app\app_blue_courier_link.c ****     if (crc != crc_pkt) {
 1139              		.loc 1 282 64 is_stmt 0
 1140 00e8 3387C400 		add	a4,s1,a2
 1141              	.LVL103:
 282:C:/Users/stapi/OneDrive/Desktop/GD32VW553/GD32VW55X_Wifi_BLE_SDK/GD32VW55x_RELEASE_V1.0.2/MSDK/ble/app\app_blue_courier_link.c ****     if (crc != crc_pkt) {
 1142              		.loc 1 282 44
 1143 00ec 83475700 		lbu	a5,5(a4)
 282:C:/Users/stapi/OneDrive/Desktop/GD32VW553/GD32VW55X_Wifi_BLE_SDK/GD32VW55x_RELEASE_V1.0.2/MSDK/ble/app\app_blue_courier_link.c ****     if (crc != crc_pkt) {
 1144              		.loc 1 282 40
 1145 00f0 03474700 		lbu	a4,4(a4)
 1146              	.LVL104:
 282:C:/Users/stapi/OneDrive/Desktop/GD32VW553/GD32VW55X_Wifi_BLE_SDK/GD32VW55x_RELEASE_V1.0.2/MSDK/ble/app\app_blue_courier_link.c ****     if (crc != crc_pkt) {
 1147              		.loc 1 282 85
 1148 00f4 A207     		slli	a5,a5,8
 283:C:/Users/stapi/OneDrive/Desktop/GD32VW553/GD32VW55X_Wifi_BLE_SDK/GD32VW55x_RELEASE_V1.0.2/MSDK/ble/app\app_blue_courier_link.c ****         status = BCWL_ERR_CRC_CHECK;
 1149              		.loc 1 283 8
 1150 00f6 D98F     		or	a5,a5,a4
 1151 00f8 6318F512 		bne	a0,a5,.L107
 288:C:/Users/stapi/OneDrive/Desktop/GD32VW553/GD32VW55X_Wifi_BLE_SDK/GD32VW55x_RELEASE_V1.0.2/MSDK/ble/app\app_blue_courier_link.c ****         if (BCWL_FLAG_IS_END(hdr->flag)) {
 1152              		.loc 1 288 5 is_stmt 1
 288:C:/Users/stapi/OneDrive/Desktop/GD32VW553/GD32VW55X_Wifi_BLE_SDK/GD32VW55x_RELEASE_V1.0.2/MSDK/ble/app\app_blue_courier_link.c ****         if (BCWL_FLAG_IS_END(hdr->flag)) {
 1153              		.loc 1 288 9 is_stmt 0
 1154 00fc 83C70400 		lbu	a5,0(s1)
 1155 0100 13F72700 		andi	a4,a5,2
 288:C:/Users/stapi/OneDrive/Desktop/GD32VW553/GD32VW55X_Wifi_BLE_SDK/GD32VW55x_RELEASE_V1.0.2/MSDK/ble/app\app_blue_courier_link.c ****         if (BCWL_FLAG_IS_END(hdr->flag)) {
 1156              		.loc 1 288 8
 1157 0104 858B     		andi	a5,a5,1
 1158 0106 D5C7     		beq	a5,zero,.L99
 289:C:/Users/stapi/OneDrive/Desktop/GD32VW553/GD32VW55X_Wifi_BLE_SDK/GD32VW55x_RELEASE_V1.0.2/MSDK/ble/app\app_blue_courier_link.c ****             /* receive complete segment */
 1159              		.loc 1 289 9 is_stmt 1
 289:C:/Users/stapi/OneDrive/Desktop/GD32VW553/GD32VW55X_Wifi_BLE_SDK/GD32VW55x_RELEASE_V1.0.2/MSDK/ble/app\app_blue_courier_link.c ****             /* receive complete segment */
 1160              		.loc 1 289 12 is_stmt 0
 1161 0108 11CB     		beq	a4,zero,.L100
 291:C:/Users/stapi/OneDrive/Desktop/GD32VW553/GD32VW55X_Wifi_BLE_SDK/GD32VW55x_RELEASE_V1.0.2/MSDK/ble/app\app_blue_courier_link.c ****         } else {
 1162              		.loc 1 291 13 is_stmt 1
 1163 010a 03C52400 		lbu	a0,2(s1)
 1164              	.LVL105:
 1165 010e 93854400 		addi	a1,s1,4
 1166 0112 97000000 		call	bcwl_msg_handler
 1166      E7800000 
 1167              	.LVL106:
 1168 011a 0DB7     		j	.L89
 1169              	.LVL107:
 1170              	.L100:
 294:C:/Users/stapi/OneDrive/Desktop/GD32VW553/GD32VW55X_Wifi_BLE_SDK/GD32VW55x_RELEASE_V1.0.2/MSDK/ble/app\app_blue_courier_link.c ****                 goto err_recv;
 1171              		.loc 1 294 13
 294:C:/Users/stapi/OneDrive/Desktop/GD32VW553/GD32VW55X_Wifi_BLE_SDK/GD32VW55x_RELEASE_V1.0.2/MSDK/ble/app\app_blue_courier_link.c ****                 goto err_recv;
 1172              		.loc 1 294 16 is_stmt 0
 1173 011c 83576401 		lhu	a5,22(s0)
 1174 0120 A9C7     		beq	a5,zero,.L101
 1175              	.LVL108:
 1176              	.L102:
 253:C:/Users/stapi/OneDrive/Desktop/GD32VW553/GD32VW55X_Wifi_BLE_SDK/GD32VW55x_RELEASE_V1.0.2/MSDK/ble/app\app_blue_courier_link.c ****     uint16_t crc, crc_pkt;
 1177              		.loc 1 253 13
 1178 0122 AD44     		li	s1,11
 1179              	.LVL109:
 1180              	.L98:
 336:C:/Users/stapi/OneDrive/Desktop/GD32VW553/GD32VW55X_Wifi_BLE_SDK/GD32VW55x_RELEASE_V1.0.2/MSDK/ble/app\app_blue_courier_link.c ****     if (bcwl_env.recv_buf != NULL) {
 1181              		.loc 1 336 5 is_stmt 1
 337:C:/Users/stapi/OneDrive/Desktop/GD32VW553/GD32VW55X_Wifi_BLE_SDK/GD32VW55x_RELEASE_V1.0.2/MSDK/ble/app\app_blue_courier_link.c ****         sys_mfree(bcwl_env.recv_buf);
 1182              		.loc 1 337 17 is_stmt 0
 1183 0124 0848     		lw	a0,16(s0)
 336:C:/Users/stapi/OneDrive/Desktop/GD32VW553/GD32VW55X_Wifi_BLE_SDK/GD32VW55x_RELEASE_V1.0.2/MSDK/ble/app\app_blue_courier_link.c ****     if (bcwl_env.recv_buf != NULL) {
 1184              		.loc 1 336 21
 1185 0126 231B0400 		sh	zero,22(s0)
 337:C:/Users/stapi/OneDrive/Desktop/GD32VW553/GD32VW55X_Wifi_BLE_SDK/GD32VW55x_RELEASE_V1.0.2/MSDK/ble/app\app_blue_courier_link.c ****         sys_mfree(bcwl_env.recv_buf);
 1186              		.loc 1 337 5 is_stmt 1
 337:C:/Users/stapi/OneDrive/Desktop/GD32VW553/GD32VW55X_Wifi_BLE_SDK/GD32VW55x_RELEASE_V1.0.2/MSDK/ble/app\app_blue_courier_link.c ****         sys_mfree(bcwl_env.recv_buf);
 1187              		.loc 1 337 8 is_stmt 0
 1188 012a 19C5     		beq	a0,zero,.L105
 338:C:/Users/stapi/OneDrive/Desktop/GD32VW553/GD32VW55X_Wifi_BLE_SDK/GD32VW55x_RELEASE_V1.0.2/MSDK/ble/app\app_blue_courier_link.c ****         bcwl_env.recv_buf = NULL;
 1189              		.loc 1 338 9 is_stmt 1
 1190 012c 97000000 		call	sys_mfree
 1190      E7800000 
 1191              	.LVL110:
 339:C:/Users/stapi/OneDrive/Desktop/GD32VW553/GD32VW55X_Wifi_BLE_SDK/GD32VW55x_RELEASE_V1.0.2/MSDK/ble/app\app_blue_courier_link.c ****     }
 1192              		.loc 1 339 9
 339:C:/Users/stapi/OneDrive/Desktop/GD32VW553/GD32VW55X_Wifi_BLE_SDK/GD32VW55x_RELEASE_V1.0.2/MSDK/ble/app\app_blue_courier_link.c ****     }
 1193              		.loc 1 339 27 is_stmt 0
 1194 0134 23280400 		sw	zero,16(s0)
 1195              	.L105:
 341:C:/Users/stapi/OneDrive/Desktop/GD32VW553/GD32VW55X_Wifi_BLE_SDK/GD32VW55x_RELEASE_V1.0.2/MSDK/ble/app\app_blue_courier_link.c ****     dbg_print(ERR, "%s error %u\n", __func__, status);
 1196              		.loc 1 341 5 is_stmt 1
 1197 0138 2685     		mv	a0,s1
 1198 013a 97000000 		call	bcwl_error_report
 1198      E7800000 
 1199              	.LVL111:
 342:C:/Users/stapi/OneDrive/Desktop/GD32VW553/GD32VW55X_Wifi_BLE_SDK/GD32VW55x_RELEASE_V1.0.2/MSDK/ble/app\app_blue_courier_link.c **** }
 1200              		.loc 1 342 5
 342:C:/Users/stapi/OneDrive/Desktop/GD32VW553/GD32VW55X_Wifi_BLE_SDK/GD32VW55x_RELEASE_V1.0.2/MSDK/ble/app\app_blue_courier_link.c **** }
 1201              		.loc 1 342 5
 1202 0142 B7070000 		lui	a5,%hi(global_debug_level)
 1203 0146 83C70700 		lbu	a5,%lo(global_debug_level)(a5)
 1204 014a E38907EE 		beq	a5,zero,.L89
 342:C:/Users/stapi/OneDrive/Desktop/GD32VW553/GD32VW55X_Wifi_BLE_SDK/GD32VW55x_RELEASE_V1.0.2/MSDK/ble/app\app_blue_courier_link.c **** }
 1205              		.loc 1 342 5
 1206 014e B7050000 		lui	a1,%hi(.LANCHOR7)
 1207 0152 37050000 		lui	a0,%hi(.LC10)
 1208 0156 2686     		mv	a2,s1
 1209 0158 93850500 		addi	a1,a1,%lo(.LANCHOR7)
 1210 015c 13050500 		addi	a0,a0,%lo(.LC10)
 1211 0160 97000000 		call	co_printf
 1211      E7800000 
 1212              	.LVL112:
 1213              	.LBE78:
 1214              	.LBE80:
 342:C:/Users/stapi/OneDrive/Desktop/GD32VW553/GD32VW55X_Wifi_BLE_SDK/GD32VW55x_RELEASE_V1.0.2/MSDK/ble/app\app_blue_courier_link.c **** }
 1215              		.loc 1 342 5
 1216 0168 D1BD     		j	.L89
 1217              	.LVL113:
 1218              	.L101:
 1219              	.LBB81:
 1220              	.LBB79:
 297:C:/Users/stapi/OneDrive/Desktop/GD32VW553/GD32VW55X_Wifi_BLE_SDK/GD32VW55x_RELEASE_V1.0.2/MSDK/ble/app\app_blue_courier_link.c ****             if (bcwl_env.total_len > BCW_VALUE_LEN)
 1221              		.loc 1 297 13
 1222 016a 03C55400 		lbu	a0,5(s1)
 1223              	.LVL114:
 1224 016e 83C74400 		lbu	a5,4(s1)
 1225 0172 2205     		slli	a0,a0,8
 1226 0174 5D8D     		or	a0,a0,a5
 297:C:/Users/stapi/OneDrive/Desktop/GD32VW553/GD32VW55X_Wifi_BLE_SDK/GD32VW55x_RELEASE_V1.0.2/MSDK/ble/app\app_blue_courier_link.c ****             if (bcwl_env.total_len > BCW_VALUE_LEN)
 1227              		.loc 1 297 32 is_stmt 0
 1228 0176 231AA400 		sh	a0,20(s0)
 1229              	.LVL115:
 298:C:/Users/stapi/OneDrive/Desktop/GD32VW553/GD32VW55X_Wifi_BLE_SDK/GD32VW55x_RELEASE_V1.0.2/MSDK/ble/app\app_blue_courier_link.c ****                 goto err_recv;
 1230              		.loc 1 298 13 is_stmt 1
 298:C:/Users/stapi/OneDrive/Desktop/GD32VW553/GD32VW55X_Wifi_BLE_SDK/GD32VW55x_RELEASE_V1.0.2/MSDK/ble/app\app_blue_courier_link.c ****                 goto err_recv;
 1231              		.loc 1 298 16 is_stmt 0
 1232 017a 93070020 		li	a5,512
 1233 017e E3E2A7FA 		bgtu	a0,a5,.L102
 301:C:/Users/stapi/OneDrive/Desktop/GD32VW553/GD32VW55X_Wifi_BLE_SDK/GD32VW55x_RELEASE_V1.0.2/MSDK/ble/app\app_blue_courier_link.c ****             if (bcwl_env.recv_buf == NULL) {
 1234              		.loc 1 301 13 is_stmt 1
 301:C:/Users/stapi/OneDrive/Desktop/GD32VW553/GD32VW55X_Wifi_BLE_SDK/GD32VW55x_RELEASE_V1.0.2/MSDK/ble/app\app_blue_courier_link.c ****             if (bcwl_env.recv_buf == NULL) {
 1235              		.loc 1 301 33 is_stmt 0
 1236 0182 97000000 		call	sys_malloc
 1236      E7800000 
 1237              	.LVL116:
 301:C:/Users/stapi/OneDrive/Desktop/GD32VW553/GD32VW55X_Wifi_BLE_SDK/GD32VW55x_RELEASE_V1.0.2/MSDK/ble/app\app_blue_courier_link.c ****             if (bcwl_env.recv_buf == NULL) {
 1238              		.loc 1 301 31
 1239 018a 08C8     		sw	a0,16(s0)
 302:C:/Users/stapi/OneDrive/Desktop/GD32VW553/GD32VW55X_Wifi_BLE_SDK/GD32VW55x_RELEASE_V1.0.2/MSDK/ble/app\app_blue_courier_link.c ****                 status = BCWL_ERR_RECV_NO_MEM;
 1240              		.loc 1 302 13 is_stmt 1
 302:C:/Users/stapi/OneDrive/Desktop/GD32VW553/GD32VW55X_Wifi_BLE_SDK/GD32VW55x_RELEASE_V1.0.2/MSDK/ble/app\app_blue_courier_link.c ****                 status = BCWL_ERR_RECV_NO_MEM;
 1241              		.loc 1 302 16 is_stmt 0
 1242 018c 45C1     		beq	a0,zero,.L108
 307:C:/Users/stapi/OneDrive/Desktop/GD32VW553/GD32VW55X_Wifi_BLE_SDK/GD32VW55x_RELEASE_V1.0.2/MSDK/ble/app\app_blue_courier_link.c ****             bcwl_env.offset = hdr->data_len - 2;
 1243              		.loc 1 307 13 is_stmt 1
 307:C:/Users/stapi/OneDrive/Desktop/GD32VW553/GD32VW55X_Wifi_BLE_SDK/GD32VW55x_RELEASE_V1.0.2/MSDK/ble/app\app_blue_courier_link.c ****             bcwl_env.offset = hdr->data_len - 2;
 1244              		.loc 1 307 52 is_stmt 0
 1245 018e 83576401 		lhu	a5,22(s0)
 307:C:/Users/stapi/OneDrive/Desktop/GD32VW553/GD32VW55X_Wifi_BLE_SDK/GD32VW55x_RELEASE_V1.0.2/MSDK/ble/app\app_blue_courier_link.c ****             bcwl_env.offset = hdr->data_len - 2;
 1246              		.loc 1 307 79
 1247 0192 03C63400 		lbu	a2,3(s1)
 307:C:/Users/stapi/OneDrive/Desktop/GD32VW553/GD32VW55X_Wifi_BLE_SDK/GD32VW55x_RELEASE_V1.0.2/MSDK/ble/app\app_blue_courier_link.c ****             bcwl_env.offset = hdr->data_len - 2;
 1248              		.loc 1 307 13
 1249 0196 93856400 		addi	a1,s1,6
 1250 019a 3E95     		add	a0,a0,a5
 1251 019c 7916     		addi	a2,a2,-2
 1252 019e 97000000 		call	sys_memcpy
 1252      E7800000 
 1253              	.LVL117:
 308:C:/Users/stapi/OneDrive/Desktop/GD32VW553/GD32VW55X_Wifi_BLE_SDK/GD32VW55x_RELEASE_V1.0.2/MSDK/ble/app\app_blue_courier_link.c ****         }
 1254              		.loc 1 308 13 is_stmt 1
 308:C:/Users/stapi/OneDrive/Desktop/GD32VW553/GD32VW55X_Wifi_BLE_SDK/GD32VW55x_RELEASE_V1.0.2/MSDK/ble/app\app_blue_courier_link.c ****         }
 1255              		.loc 1 308 34 is_stmt 0
 1256 01a6 83C73400 		lbu	a5,3(s1)
 308:C:/Users/stapi/OneDrive/Desktop/GD32VW553/GD32VW55X_Wifi_BLE_SDK/GD32VW55x_RELEASE_V1.0.2/MSDK/ble/app\app_blue_courier_link.c ****         }
 1257              		.loc 1 308 45
 1258 01aa F917     		addi	a5,a5,-2
 1259              	.L138:
 330:C:/Users/stapi/OneDrive/Desktop/GD32VW553/GD32VW55X_Wifi_BLE_SDK/GD32VW55x_RELEASE_V1.0.2/MSDK/ble/app\app_blue_courier_link.c ****     }
 1260              		.loc 1 330 25
 1261 01ac 231BF400 		sh	a5,22(s0)
 1262 01b0 71B5     		j	.L89
 1263              	.LVL118:
 1264              	.L99:
 310:C:/Users/stapi/OneDrive/Desktop/GD32VW553/GD32VW55X_Wifi_BLE_SDK/GD32VW55x_RELEASE_V1.0.2/MSDK/ble/app\app_blue_courier_link.c ****         /* receive end segment */
 1265              		.loc 1 310 12 is_stmt 1
 294:C:/Users/stapi/OneDrive/Desktop/GD32VW553/GD32VW55X_Wifi_BLE_SDK/GD32VW55x_RELEASE_V1.0.2/MSDK/ble/app\app_blue_courier_link.c ****                 goto err_recv;
 1266              		.loc 1 294 25 is_stmt 0
 1267 01b2 83576401 		lhu	a5,22(s0)
 315:C:/Users/stapi/OneDrive/Desktop/GD32VW553/GD32VW55X_Wifi_BLE_SDK/GD32VW55x_RELEASE_V1.0.2/MSDK/ble/app\app_blue_courier_link.c **** 
 1268              		.loc 1 315 28
 1269 01b6 0848     		lw	a0,16(s0)
 1270              	.LVL119:
 310:C:/Users/stapi/OneDrive/Desktop/GD32VW553/GD32VW55X_Wifi_BLE_SDK/GD32VW55x_RELEASE_V1.0.2/MSDK/ble/app\app_blue_courier_link.c ****         /* receive end segment */
 1271              		.loc 1 310 15
 1272 01b8 21C7     		beq	a4,zero,.L103
 312:C:/Users/stapi/OneDrive/Desktop/GD32VW553/GD32VW55X_Wifi_BLE_SDK/GD32VW55x_RELEASE_V1.0.2/MSDK/ble/app\app_blue_courier_link.c ****             goto err_recv;
 1273              		.loc 1 312 9 is_stmt 1
 312:C:/Users/stapi/OneDrive/Desktop/GD32VW553/GD32VW55X_Wifi_BLE_SDK/GD32VW55x_RELEASE_V1.0.2/MSDK/ble/app\app_blue_courier_link.c ****             goto err_recv;
 1274              		.loc 1 312 12 is_stmt 0
 1275 01ba A5D7     		beq	a5,zero,.L102
 312:C:/Users/stapi/OneDrive/Desktop/GD32VW553/GD32VW55X_Wifi_BLE_SDK/GD32VW55x_RELEASE_V1.0.2/MSDK/ble/app\app_blue_courier_link.c ****             goto err_recv;
 1276              		.loc 1 312 80
 1277 01bc 83564401 		lhu	a3,20(s0)
 312:C:/Users/stapi/OneDrive/Desktop/GD32VW553/GD32VW55X_Wifi_BLE_SDK/GD32VW55x_RELEASE_V1.0.2/MSDK/ble/app\app_blue_courier_link.c ****             goto err_recv;
 1278              		.loc 1 312 53
 1279 01c0 3387C700 		add	a4,a5,a2
 312:C:/Users/stapi/OneDrive/Desktop/GD32VW553/GD32VW55X_Wifi_BLE_SDK/GD32VW55x_RELEASE_V1.0.2/MSDK/ble/app\app_blue_courier_link.c ****             goto err_recv;
 1280              		.loc 1 312 34
 1281 01c4 E31FD7F4 		bne	a4,a3,.L102
 315:C:/Users/stapi/OneDrive/Desktop/GD32VW553/GD32VW55X_Wifi_BLE_SDK/GD32VW55x_RELEASE_V1.0.2/MSDK/ble/app\app_blue_courier_link.c **** 
 1282              		.loc 1 315 9 is_stmt 1
 1283 01c8 3E95     		add	a0,a0,a5
 1284 01ca 93854400 		addi	a1,s1,4
 1285 01ce 97000000 		call	sys_memcpy
 1285      E7800000 
 1286              	.LVL120:
 317:C:/Users/stapi/OneDrive/Desktop/GD32VW553/GD32VW55X_Wifi_BLE_SDK/GD32VW55x_RELEASE_V1.0.2/MSDK/ble/app\app_blue_courier_link.c **** 
 1287              		.loc 1 317 9
 1288 01d6 03C52400 		lbu	a0,2(s1)
 1289 01da 03564401 		lhu	a2,20(s0)
 1290 01de 0C48     		lw	a1,16(s0)
 1291 01e0 97000000 		call	bcwl_msg_handler
 1291      E7800000 
 1292              	.LVL121:
 319:C:/Users/stapi/OneDrive/Desktop/GD32VW553/GD32VW55X_Wifi_BLE_SDK/GD32VW55x_RELEASE_V1.0.2/MSDK/ble/app\app_blue_courier_link.c ****         if (bcwl_env.recv_buf != NULL) {
 1293              		.loc 1 319 9
 320:C:/Users/stapi/OneDrive/Desktop/GD32VW553/GD32VW55X_Wifi_BLE_SDK/GD32VW55x_RELEASE_V1.0.2/MSDK/ble/app\app_blue_courier_link.c ****             sys_mfree(bcwl_env.recv_buf);
 1294              		.loc 1 320 21 is_stmt 0
 1295 01e8 0848     		lw	a0,16(s0)
 319:C:/Users/stapi/OneDrive/Desktop/GD32VW553/GD32VW55X_Wifi_BLE_SDK/GD32VW55x_RELEASE_V1.0.2/MSDK/ble/app\app_blue_courier_link.c ****         if (bcwl_env.recv_buf != NULL) {
 1296              		.loc 1 319 25
 1297 01ea 231B0400 		sh	zero,22(s0)
 320:C:/Users/stapi/OneDrive/Desktop/GD32VW553/GD32VW55X_Wifi_BLE_SDK/GD32VW55x_RELEASE_V1.0.2/MSDK/ble/app\app_blue_courier_link.c ****             sys_mfree(bcwl_env.recv_buf);
 1298              		.loc 1 320 9 is_stmt 1
 320:C:/Users/stapi/OneDrive/Desktop/GD32VW553/GD32VW55X_Wifi_BLE_SDK/GD32VW55x_RELEASE_V1.0.2/MSDK/ble/app\app_blue_courier_link.c ****             sys_mfree(bcwl_env.recv_buf);
 1299              		.loc 1 320 12 is_stmt 0
 1300 01ee E30705E4 		beq	a0,zero,.L89
 321:C:/Users/stapi/OneDrive/Desktop/GD32VW553/GD32VW55X_Wifi_BLE_SDK/GD32VW55x_RELEASE_V1.0.2/MSDK/ble/app\app_blue_courier_link.c ****             bcwl_env.recv_buf = NULL;
 1301              		.loc 1 321 13 is_stmt 1
 1302 01f2 97000000 		call	sys_mfree
 1302      E7800000 
 1303              	.LVL122:
 322:C:/Users/stapi/OneDrive/Desktop/GD32VW553/GD32VW55X_Wifi_BLE_SDK/GD32VW55x_RELEASE_V1.0.2/MSDK/ble/app\app_blue_courier_link.c ****         }
 1304              		.loc 1 322 13
 322:C:/Users/stapi/OneDrive/Desktop/GD32VW553/GD32VW55X_Wifi_BLE_SDK/GD32VW55x_RELEASE_V1.0.2/MSDK/ble/app\app_blue_courier_link.c ****         }
 1305              		.loc 1 322 31 is_stmt 0
 1306 01fa 23280400 		sw	zero,16(s0)
 1307 01fe 3DBD     		j	.L89
 1308              	.LVL123:
 1309              	.L103:
 326:C:/Users/stapi/OneDrive/Desktop/GD32VW553/GD32VW55X_Wifi_BLE_SDK/GD32VW55x_RELEASE_V1.0.2/MSDK/ble/app\app_blue_courier_link.c ****             goto err_recv;
 1310              		.loc 1 326 9 is_stmt 1
 326:C:/Users/stapi/OneDrive/Desktop/GD32VW553/GD32VW55X_Wifi_BLE_SDK/GD32VW55x_RELEASE_V1.0.2/MSDK/ble/app\app_blue_courier_link.c ****             goto err_recv;
 1311              		.loc 1 326 12 is_stmt 0
 1312 0200 8DD3     		beq	a5,zero,.L102
 326:C:/Users/stapi/OneDrive/Desktop/GD32VW553/GD32VW55X_Wifi_BLE_SDK/GD32VW55x_RELEASE_V1.0.2/MSDK/ble/app\app_blue_courier_link.c ****             goto err_recv;
 1313              		.loc 1 326 80
 1314 0202 83564401 		lhu	a3,20(s0)
 326:C:/Users/stapi/OneDrive/Desktop/GD32VW553/GD32VW55X_Wifi_BLE_SDK/GD32VW55x_RELEASE_V1.0.2/MSDK/ble/app\app_blue_courier_link.c ****             goto err_recv;
 1315              		.loc 1 326 53
 1316 0206 3387C700 		add	a4,a5,a2
 326:C:/Users/stapi/OneDrive/Desktop/GD32VW553/GD32VW55X_Wifi_BLE_SDK/GD32VW55x_RELEASE_V1.0.2/MSDK/ble/app\app_blue_courier_link.c ****             goto err_recv;
 1317              		.loc 1 326 34
 1318 020a E35CD7F0 		bge	a4,a3,.L102
 329:C:/Users/stapi/OneDrive/Desktop/GD32VW553/GD32VW55X_Wifi_BLE_SDK/GD32VW55x_RELEASE_V1.0.2/MSDK/ble/app\app_blue_courier_link.c ****         bcwl_env.offset += hdr->data_len;
 1319              		.loc 1 329 9 is_stmt 1
 1320 020e 3E95     		add	a0,a0,a5
 1321 0210 93854400 		addi	a1,s1,4
 1322 0214 97000000 		call	sys_memcpy
 1322      E7800000 
 1323              	.LVL124:
 330:C:/Users/stapi/OneDrive/Desktop/GD32VW553/GD32VW55X_Wifi_BLE_SDK/GD32VW55x_RELEASE_V1.0.2/MSDK/ble/app\app_blue_courier_link.c ****     }
 1324              		.loc 1 330 9
 330:C:/Users/stapi/OneDrive/Desktop/GD32VW553/GD32VW55X_Wifi_BLE_SDK/GD32VW55x_RELEASE_V1.0.2/MSDK/ble/app\app_blue_courier_link.c ****     }
 1325              		.loc 1 330 31 is_stmt 0
 1326 021c 03C73400 		lbu	a4,3(s1)
 330:C:/Users/stapi/OneDrive/Desktop/GD32VW553/GD32VW55X_Wifi_BLE_SDK/GD32VW55x_RELEASE_V1.0.2/MSDK/ble/app\app_blue_courier_link.c ****     }
 1327              		.loc 1 330 25
 1328 0220 83576401 		lhu	a5,22(s0)
 1329 0224 BA97     		add	a5,a5,a4
 1330 0226 59B7     		j	.L138
 1331              	.LVL125:
 1332              	.L107:
 284:C:/Users/stapi/OneDrive/Desktop/GD32VW553/GD32VW55X_Wifi_BLE_SDK/GD32VW55x_RELEASE_V1.0.2/MSDK/ble/app\app_blue_courier_link.c ****         goto err_recv;
 1333              		.loc 1 284 16
 1334 0228 A544     		li	s1,9
 1335              	.LVL126:
 1336 022a EDBD     		j	.L98
 1337              	.LVL127:
 1338              	.L108:
 303:C:/Users/stapi/OneDrive/Desktop/GD32VW553/GD32VW55X_Wifi_BLE_SDK/GD32VW55x_RELEASE_V1.0.2/MSDK/ble/app\app_blue_courier_link.c ****                 goto err_recv;
 1339              		.loc 1 303 24
 1340 022c 9144     		li	s1,4
 1341              	.LVL128:
 1342 022e DDBD     		j	.L98
 1343              	.LBE79:
 1344              	.LBE81:
 1345              		.cfi_endproc
 1346              	.LFE20:
 1348              		.section	.rodata.bcwl_gatts_msg_cb.str1.4,"aMS",@progbits,1
 1349              		.align	2
 1350              	.LC11:
 1351 0000 25732061 		.string	"%s att idx %d, value_len %d, value: "
 1351      74742069 
 1351      64782025 
 1351      642C2076 
 1351      616C7565 
 1352 0025 000000   		.align	2
 1353              	.LC12:
 1354 0028 25303278 		.string	"%02x"
 1354      00
 1355 002d 000000   		.align	2
 1356              	.LC13:
 1357 0030 0D0A00   		.string	"\r\n"
 1358 0033 00       		.align	2
 1359              	.LC14:
 1360 0034 2573206E 		.string	"%s ntf cfg invalid length\r\n"
 1360      74662063 
 1360      66672069 
 1360      6E76616C 
 1360      6964206C 
 1361              		.section	.text.bcwl_gatts_msg_cb,"ax",@progbits
 1362              		.align	1
 1364              	bcwl_gatts_msg_cb:
 1365              	.LFB21:
 352:C:/Users/stapi/OneDrive/Desktop/GD32VW553/GD32VW55X_Wifi_BLE_SDK/GD32VW55x_RELEASE_V1.0.2/MSDK/ble/app\app_blue_courier_link.c ****     uint8_t  att_idx;
 1366              		.loc 1 352 1 is_stmt 1
 1367              		.cfi_startproc
 1368              	.LVL129:
 353:C:/Users/stapi/OneDrive/Desktop/GD32VW553/GD32VW55X_Wifi_BLE_SDK/GD32VW55x_RELEASE_V1.0.2/MSDK/ble/app\app_blue_courier_link.c ****     uint8_t *data;
 1369              		.loc 1 353 5
 354:C:/Users/stapi/OneDrive/Desktop/GD32VW553/GD32VW55X_Wifi_BLE_SDK/GD32VW55x_RELEASE_V1.0.2/MSDK/ble/app\app_blue_courier_link.c ****     uint16_t data_len, i;
 1370              		.loc 1 354 5
 355:C:/Users/stapi/OneDrive/Desktop/GD32VW553/GD32VW55X_Wifi_BLE_SDK/GD32VW55x_RELEASE_V1.0.2/MSDK/ble/app\app_blue_courier_link.c **** 
 1371              		.loc 1 355 5
 357:C:/Users/stapi/OneDrive/Desktop/GD32VW553/GD32VW55X_Wifi_BLE_SDK/GD32VW55x_RELEASE_V1.0.2/MSDK/ble/app\app_blue_courier_link.c ****         /* Other connection operations are ignored */
 1372              		.loc 1 357 5
 357:C:/Users/stapi/OneDrive/Desktop/GD32VW553/GD32VW55X_Wifi_BLE_SDK/GD32VW55x_RELEASE_V1.0.2/MSDK/ble/app\app_blue_courier_link.c ****         /* Other connection operations are ignored */
 1373              		.loc 1 357 8 is_stmt 0
 1374 0000 1C41     		lw	a5,0(a0)
 1375 0002 0D47     		li	a4,3
 1376 0004 639CE70E 		bne	a5,a4,.L155
 352:C:/Users/stapi/OneDrive/Desktop/GD32VW553/GD32VW55X_Wifi_BLE_SDK/GD32VW55x_RELEASE_V1.0.2/MSDK/ble/app\app_blue_courier_link.c ****     uint8_t  att_idx;
 1377              		.loc 1 352 1
 1378 0008 17030000 		call	t0,__riscv_save_8
 1378      E7020300 
 1379              		.cfi_offset 23, -36
 1380              		.cfi_offset 22, -32
 1381              		.cfi_offset 21, -28
 1382              		.cfi_offset 20, -24
 1383              		.cfi_offset 19, -20
 1384              		.cfi_offset 18, -16
 1385              		.cfi_offset 9, -12
 1386              		.cfi_offset 8, -8
 1387              		.cfi_offset 1, -4
 1388              		.cfi_def_cfa_offset 48
 359:C:/Users/stapi/OneDrive/Desktop/GD32VW553/GD32VW55X_Wifi_BLE_SDK/GD32VW55x_RELEASE_V1.0.2/MSDK/ble/app\app_blue_courier_link.c ****             return BLE_ERR_NO_ERROR;
 1389              		.loc 1 359 9 is_stmt 1
 359:C:/Users/stapi/OneDrive/Desktop/GD32VW553/GD32VW55X_Wifi_BLE_SDK/GD32VW55x_RELEASE_V1.0.2/MSDK/ble/app\app_blue_courier_link.c ****             return BLE_ERR_NO_ERROR;
 1390              		.loc 1 359 72 is_stmt 0
 1391 0010 37070000 		lui	a4,%hi(.LANCHOR0)
 1392 0014 93060700 		addi	a3,a4,%lo(.LANCHOR0)
 359:C:/Users/stapi/OneDrive/Desktop/GD32VW553/GD32VW55X_Wifi_BLE_SDK/GD32VW55x_RELEASE_V1.0.2/MSDK/ble/app\app_blue_courier_link.c ****             return BLE_ERR_NO_ERROR;
 1393              		.loc 1 359 12
 1394 0018 03468500 		lbu	a2,8(a0)
 1395 001c 83C61600 		lbu	a3,1(a3)
 1396 0020 930A0700 		addi	s5,a4,%lo(.LANCHOR0)
 1397 0024 631BD606 		bne	a2,a3,.L141
 363:C:/Users/stapi/OneDrive/Desktop/GD32VW553/GD32VW55X_Wifi_BLE_SDK/GD32VW55x_RELEASE_V1.0.2/MSDK/ble/app\app_blue_courier_link.c ****             att_idx = p_srv_msg_info->msg_data.gatts_op_info.gatts_op_data.write_req.att_idx;
 1398              		.loc 1 363 9 is_stmt 1
 363:C:/Users/stapi/OneDrive/Desktop/GD32VW553/GD32VW55X_Wifi_BLE_SDK/GD32VW55x_RELEASE_V1.0.2/MSDK/ble/app\app_blue_courier_link.c ****             att_idx = p_srv_msg_info->msg_data.gatts_op_info.gatts_op_data.write_req.att_idx;
 1399              		.loc 1 363 12 is_stmt 0
 1400 0028 5441     		lw	a3,4(a0)
 1401 002a 0547     		li	a4,1
 1402 002c 6397E606 		bne	a3,a4,.L141
 1403              	.LVL130:
 1404              	.LBB84:
 1405              	.LBB85:
 364:C:/Users/stapi/OneDrive/Desktop/GD32VW553/GD32VW55X_Wifi_BLE_SDK/GD32VW55x_RELEASE_V1.0.2/MSDK/ble/app\app_blue_courier_link.c ****             data = p_srv_msg_info->msg_data.gatts_op_info.gatts_op_data.write_req.p_val;
 1406              		.loc 1 364 13 is_stmt 1
 368:C:/Users/stapi/OneDrive/Desktop/GD32VW553/GD32VW55X_Wifi_BLE_SDK/GD32VW55x_RELEASE_V1.0.2/MSDK/ble/app\app_blue_courier_link.c ****             for (i = 0; i < data_len; i++)
 1407              		.loc 1 368 13 is_stmt 0
 1408 0030 37040000 		lui	s0,%hi(global_debug_level)
 1409 0034 03470400 		lbu	a4,%lo(global_debug_level)(s0)
 364:C:/Users/stapi/OneDrive/Desktop/GD32VW553/GD32VW55X_Wifi_BLE_SDK/GD32VW55x_RELEASE_V1.0.2/MSDK/ble/app\app_blue_courier_link.c ****             data = p_srv_msg_info->msg_data.gatts_op_info.gatts_op_data.write_req.p_val;
 1410              		.loc 1 364 21
 1411 0038 034A0501 		lbu	s4,16(a0)
 1412              	.LVL131:
 365:C:/Users/stapi/OneDrive/Desktop/GD32VW553/GD32VW55X_Wifi_BLE_SDK/GD32VW55x_RELEASE_V1.0.2/MSDK/ble/app\app_blue_courier_link.c ****             data_len = p_srv_msg_info->msg_data.gatts_op_info.gatts_op_data.write_req.val_len;
 1413              		.loc 1 365 13 is_stmt 1
 365:C:/Users/stapi/OneDrive/Desktop/GD32VW553/GD32VW55X_Wifi_BLE_SDK/GD32VW55x_RELEASE_V1.0.2/MSDK/ble/app\app_blue_courier_link.c ****             data_len = p_srv_msg_info->msg_data.gatts_op_info.gatts_op_data.write_req.val_len;
 1414              		.loc 1 365 18 is_stmt 0
 1415 003c 83298501 		lw	s3,24(a0)
 1416              	.LVL132:
 366:C:/Users/stapi/OneDrive/Desktop/GD32VW553/GD32VW55X_Wifi_BLE_SDK/GD32VW55x_RELEASE_V1.0.2/MSDK/ble/app\app_blue_courier_link.c **** 
 1417              		.loc 1 366 13 is_stmt 1
 366:C:/Users/stapi/OneDrive/Desktop/GD32VW553/GD32VW55X_Wifi_BLE_SDK/GD32VW55x_RELEASE_V1.0.2/MSDK/ble/app\app_blue_courier_link.c **** 
 1418              		.loc 1 366 22 is_stmt 0
 1419 0040 03596501 		lhu	s2,22(a0)
 1420              	.LVL133:
 368:C:/Users/stapi/OneDrive/Desktop/GD32VW553/GD32VW55X_Wifi_BLE_SDK/GD32VW55x_RELEASE_V1.0.2/MSDK/ble/app\app_blue_courier_link.c ****             for (i = 0; i < data_len; i++)
 1421              		.loc 1 368 13 is_stmt 1
 368:C:/Users/stapi/OneDrive/Desktop/GD32VW553/GD32VW55X_Wifi_BLE_SDK/GD32VW55x_RELEASE_V1.0.2/MSDK/ble/app\app_blue_courier_link.c ****             for (i = 0; i < data_len; i++)
 1422              		.loc 1 368 13
 1423 0044 63F0E702 		bleu	a4,a5,.L143
 368:C:/Users/stapi/OneDrive/Desktop/GD32VW553/GD32VW55X_Wifi_BLE_SDK/GD32VW55x_RELEASE_V1.0.2/MSDK/ble/app\app_blue_courier_link.c ****             for (i = 0; i < data_len; i++)
 1424              		.loc 1 368 13
 1425 0048 B7050000 		lui	a1,%hi(.LANCHOR8)
 1426 004c 37050000 		lui	a0,%hi(.LC11)
 1427              	.LVL134:
 1428 0050 CA86     		mv	a3,s2
 1429 0052 5286     		mv	a2,s4
 1430 0054 93850500 		addi	a1,a1,%lo(.LANCHOR8)
 1431 0058 13050500 		addi	a0,a0,%lo(.LC11)
 1432 005c 97000000 		call	co_printf
 1432      E7800000 
 1433              	.LVL135:
 1434              	.L143:
 1435              	.LBE85:
 1436              	.LBE84:
 352:C:/Users/stapi/OneDrive/Desktop/GD32VW553/GD32VW55X_Wifi_BLE_SDK/GD32VW55x_RELEASE_V1.0.2/MSDK/ble/app\app_blue_courier_link.c ****     uint8_t  att_idx;
 1437              		.loc 1 352 1 is_stmt 0
 1438 0064 8144     		li	s1,0
 1439              	.LBB88:
 1440              	.LBB86:
 370:C:/Users/stapi/OneDrive/Desktop/GD32VW553/GD32VW55X_Wifi_BLE_SDK/GD32VW55x_RELEASE_V1.0.2/MSDK/ble/app\app_blue_courier_link.c ****             dbg_print(INFO, "\r\n");
 1441              		.loc 1 370 17
 1442 0066 0D4B     		li	s6,3
 1443 0068 B70B0000 		lui	s7,%hi(.LC12)
 1444              	.L144:
 1445              	.LVL136:
 369:C:/Users/stapi/OneDrive/Desktop/GD32VW553/GD32VW55X_Wifi_BLE_SDK/GD32VW55x_RELEASE_V1.0.2/MSDK/ble/app\app_blue_courier_link.c ****                 dbg_print(INFO, "%02x", data[i]);
 1446              		.loc 1 369 25 is_stmt 1
 370:C:/Users/stapi/OneDrive/Desktop/GD32VW553/GD32VW55X_Wifi_BLE_SDK/GD32VW55x_RELEASE_V1.0.2/MSDK/ble/app\app_blue_courier_link.c ****             dbg_print(INFO, "\r\n");
 1447              		.loc 1 370 17 is_stmt 0
 1448 006c 83470400 		lbu	a5,%lo(global_debug_level)(s0)
 369:C:/Users/stapi/OneDrive/Desktop/GD32VW553/GD32VW55X_Wifi_BLE_SDK/GD32VW55x_RELEASE_V1.0.2/MSDK/ble/app\app_blue_courier_link.c ****                 dbg_print(INFO, "%02x", data[i]);
 1449              		.loc 1 369 13
 1450 0070 33C70408 		zext.h	a4,s1
 1451 0074 63682703 		bgtu	s2,a4,.L146
 371:C:/Users/stapi/OneDrive/Desktop/GD32VW553/GD32VW55X_Wifi_BLE_SDK/GD32VW55x_RELEASE_V1.0.2/MSDK/ble/app\app_blue_courier_link.c **** 
 1452              		.loc 1 371 13 is_stmt 1
 371:C:/Users/stapi/OneDrive/Desktop/GD32VW553/GD32VW55X_Wifi_BLE_SDK/GD32VW55x_RELEASE_V1.0.2/MSDK/ble/app\app_blue_courier_link.c **** 
 1453              		.loc 1 371 13
 1454 0078 0D47     		li	a4,3
 1455 007a 637AF700 		bleu	a5,a4,.L147
 371:C:/Users/stapi/OneDrive/Desktop/GD32VW553/GD32VW55X_Wifi_BLE_SDK/GD32VW55x_RELEASE_V1.0.2/MSDK/ble/app\app_blue_courier_link.c **** 
 1456              		.loc 1 371 13
 1457 007e 37050000 		lui	a0,%hi(.LC13)
 1458 0082 13050500 		addi	a0,a0,%lo(.LC13)
 1459 0086 97000000 		call	co_printf
 1459      E7800000 
 1460              	.LVL137:
 1461              	.L147:
 371:C:/Users/stapi/OneDrive/Desktop/GD32VW553/GD32VW55X_Wifi_BLE_SDK/GD32VW55x_RELEASE_V1.0.2/MSDK/ble/app\app_blue_courier_link.c **** 
 1462              		.loc 1 371 13
 373:C:/Users/stapi/OneDrive/Desktop/GD32VW553/GD32VW55X_Wifi_BLE_SDK/GD32VW55x_RELEASE_V1.0.2/MSDK/ble/app\app_blue_courier_link.c ****             case BCW_IDX_WRITE:
 1463              		.loc 1 373 13
 1464 008e 8947     		li	a5,2
 1465 0090 6308FA02 		beq	s4,a5,.L148
 1466 0094 1547     		li	a4,5
 1467 0096 630CEA02 		beq	s4,a4,.L149
 1468              	.LVL138:
 1469              	.L141:
 1470              	.LBE86:
 1471              	.LBE88:
 390:C:/Users/stapi/OneDrive/Desktop/GD32VW553/GD32VW55X_Wifi_BLE_SDK/GD32VW55x_RELEASE_V1.0.2/MSDK/ble/app\app_blue_courier_link.c **** 
 1472              		.loc 1 390 1 is_stmt 0
 1473 009a 0145     		li	a0,0
 1474 009c 17030000 		tail	__riscv_restore_8
 1474      67000300 
 1475              		.cfi_remember_state
 1476              		.cfi_restore 23
 1477              		.cfi_restore 22
 1478              		.cfi_restore 21
 1479              		.cfi_restore 20
 1480              		.cfi_restore 19
 1481              		.cfi_restore 18
 1482              		.cfi_restore 9
 1483              		.cfi_restore 8
 1484              		.cfi_restore 1
 1485              		.cfi_def_cfa_offset 0
 1486              	.LVL139:
 1487              	.L146:
 1488              		.cfi_restore_state
 1489              	.LBB89:
 1490              	.LBB87:
 370:C:/Users/stapi/OneDrive/Desktop/GD32VW553/GD32VW55X_Wifi_BLE_SDK/GD32VW55x_RELEASE_V1.0.2/MSDK/ble/app\app_blue_courier_link.c ****             dbg_print(INFO, "\r\n");
 1491              		.loc 1 370 17 is_stmt 1
 370:C:/Users/stapi/OneDrive/Desktop/GD32VW553/GD32VW55X_Wifi_BLE_SDK/GD32VW55x_RELEASE_V1.0.2/MSDK/ble/app\app_blue_courier_link.c ****             dbg_print(INFO, "\r\n");
 1492              		.loc 1 370 17
 1493 00a4 637CFB00 		bleu	a5,s6,.L145
 370:C:/Users/stapi/OneDrive/Desktop/GD32VW553/GD32VW55X_Wifi_BLE_SDK/GD32VW55x_RELEASE_V1.0.2/MSDK/ble/app\app_blue_courier_link.c ****             dbg_print(INFO, "\r\n");
 1494              		.loc 1 370 17
 1495 00a8 B3879900 		add	a5,s3,s1
 1496 00ac 83C50700 		lbu	a1,0(a5)
 1497 00b0 13850B00 		addi	a0,s7,%lo(.LC12)
 1498 00b4 97000000 		call	co_printf
 1498      E7800000 
 1499              	.LVL140:
 1500              	.L145:
 370:C:/Users/stapi/OneDrive/Desktop/GD32VW553/GD32VW55X_Wifi_BLE_SDK/GD32VW55x_RELEASE_V1.0.2/MSDK/ble/app\app_blue_courier_link.c ****             dbg_print(INFO, "\r\n");
 1501              		.loc 1 370 17
 369:C:/Users/stapi/OneDrive/Desktop/GD32VW553/GD32VW55X_Wifi_BLE_SDK/GD32VW55x_RELEASE_V1.0.2/MSDK/ble/app\app_blue_courier_link.c ****                 dbg_print(INFO, "%02x", data[i]);
 1502              		.loc 1 369 39
 1503 00bc 8504     		addi	s1,s1,1
 1504              	.LVL141:
 1505 00be 7DB7     		j	.L144
 1506              	.LVL142:
 1507              	.L148:
 375:C:/Users/stapi/OneDrive/Desktop/GD32VW553/GD32VW55X_Wifi_BLE_SDK/GD32VW55x_RELEASE_V1.0.2/MSDK/ble/app\app_blue_courier_link.c ****                 break;
 1508              		.loc 1 375 17
 1509 00c0 CA85     		mv	a1,s2
 1510 00c2 4E85     		mv	a0,s3
 1511 00c4 97000000 		call	bcwl_receive
 1511      E7800000 
 1512              	.LVL143:
 376:C:/Users/stapi/OneDrive/Desktop/GD32VW553/GD32VW55X_Wifi_BLE_SDK/GD32VW55x_RELEASE_V1.0.2/MSDK/ble/app\app_blue_courier_link.c ****             case BCW_IDX_NTF_CFG:
 1513              		.loc 1 376 17
 1514 00cc F9B7     		j	.L141
 1515              	.L149:
 378:C:/Users/stapi/OneDrive/Desktop/GD32VW553/GD32VW55X_Wifi_BLE_SDK/GD32VW55x_RELEASE_V1.0.2/MSDK/ble/app\app_blue_courier_link.c ****                     bcwl_env.ntf_cfg = *(uint16_t *)data;
 1516              		.loc 1 378 17
 378:C:/Users/stapi/OneDrive/Desktop/GD32VW553/GD32VW55X_Wifi_BLE_SDK/GD32VW55x_RELEASE_V1.0.2/MSDK/ble/app\app_blue_courier_link.c ****                     bcwl_env.ntf_cfg = *(uint16_t *)data;
 1517              		.loc 1 378 20 is_stmt 0
 1518 00ce 6317F900 		bne	s2,a5,.L150
 379:C:/Users/stapi/OneDrive/Desktop/GD32VW553/GD32VW55X_Wifi_BLE_SDK/GD32VW55x_RELEASE_V1.0.2/MSDK/ble/app\app_blue_courier_link.c ****                 else
 1519              		.loc 1 379 21 is_stmt 1
 379:C:/Users/stapi/OneDrive/Desktop/GD32VW553/GD32VW55X_Wifi_BLE_SDK/GD32VW55x_RELEASE_V1.0.2/MSDK/ble/app\app_blue_courier_link.c ****                 else
 1520              		.loc 1 379 40 is_stmt 0
 1521 00d2 83D70900 		lhu	a5,0(s3)
 379:C:/Users/stapi/OneDrive/Desktop/GD32VW553/GD32VW55X_Wifi_BLE_SDK/GD32VW55x_RELEASE_V1.0.2/MSDK/ble/app\app_blue_courier_link.c ****                 else
 1522              		.loc 1 379 38
 1523 00d6 2392FA00 		sh	a5,4(s5)
 1524 00da C1B7     		j	.L141
 1525              	.L150:
 381:C:/Users/stapi/OneDrive/Desktop/GD32VW553/GD32VW55X_Wifi_BLE_SDK/GD32VW55x_RELEASE_V1.0.2/MSDK/ble/app\app_blue_courier_link.c ****                 break;
 1526              		.loc 1 381 21 is_stmt 1
 381:C:/Users/stapi/OneDrive/Desktop/GD32VW553/GD32VW55X_Wifi_BLE_SDK/GD32VW55x_RELEASE_V1.0.2/MSDK/ble/app\app_blue_courier_link.c ****                 break;
 1527              		.loc 1 381 21
 1528 00dc 83470400 		lbu	a5,%lo(global_debug_level)(s0)
 1529 00e0 CDDF     		beq	a5,zero,.L141
 381:C:/Users/stapi/OneDrive/Desktop/GD32VW553/GD32VW55X_Wifi_BLE_SDK/GD32VW55x_RELEASE_V1.0.2/MSDK/ble/app\app_blue_courier_link.c ****                 break;
 1530              		.loc 1 381 21
 1531 00e2 B7050000 		lui	a1,%hi(.LANCHOR8)
 1532 00e6 37050000 		lui	a0,%hi(.LC14)
 1533 00ea 93850500 		addi	a1,a1,%lo(.LANCHOR8)
 1534 00ee 13050500 		addi	a0,a0,%lo(.LC14)
 1535 00f2 97000000 		call	co_printf
 1535      E7800000 
 1536              	.LVL144:
 1537 00fa 45B7     		j	.L141
 1538              	.LVL145:
 1539              	.L155:
 1540              		.cfi_def_cfa_offset 0
 1541              		.cfi_restore 1
 1542              		.cfi_restore 8
 1543              		.cfi_restore 9
 1544              		.cfi_restore 18
 1545              		.cfi_restore 19
 1546              		.cfi_restore 20
 1547              		.cfi_restore 21
 1548              		.cfi_restore 22
 1549              		.cfi_restore 23
 1550              	.LBE87:
 1551              	.LBE89:
 390:C:/Users/stapi/OneDrive/Desktop/GD32VW553/GD32VW55X_Wifi_BLE_SDK/GD32VW55x_RELEASE_V1.0.2/MSDK/ble/app\app_blue_courier_link.c **** 
 1552              		.loc 1 390 1 is_stmt 0
 1553 00fc 0145     		li	a0,0
 1554              	.LVL146:
 1555 00fe 8280     		ret
 1556              		.cfi_endproc
 1557              	.LFE21:
 1559              		.section	.text.bcw_prf_enable,"ax",@progbits
 1560              		.align	1
 1561              		.globl	bcw_prf_enable
 1563              	bcw_prf_enable:
 1564              	.LFB28:
 491:C:/Users/stapi/OneDrive/Desktop/GD32VW553/GD32VW55X_Wifi_BLE_SDK/GD32VW55x_RELEASE_V1.0.2/MSDK/ble/app\app_blue_courier_link.c **** 
 492:C:/Users/stapi/OneDrive/Desktop/GD32VW553/GD32VW55X_Wifi_BLE_SDK/GD32VW55x_RELEASE_V1.0.2/MSDK/ble/app\app_blue_courier_link.c **** /*!
 493:C:/Users/stapi/OneDrive/Desktop/GD32VW553/GD32VW55X_Wifi_BLE_SDK/GD32VW55x_RELEASE_V1.0.2/MSDK/ble/app\app_blue_courier_link.c ****     \brief      Callback function to handle BLE adapter events
 494:C:/Users/stapi/OneDrive/Desktop/GD32VW553/GD32VW55X_Wifi_BLE_SDK/GD32VW55x_RELEASE_V1.0.2/MSDK/ble/app\app_blue_courier_link.c ****     \param[in]  event: BLE adapter event type
 495:C:/Users/stapi/OneDrive/Desktop/GD32VW553/GD32VW55X_Wifi_BLE_SDK/GD32VW55x_RELEASE_V1.0.2/MSDK/ble/app\app_blue_courier_link.c ****     \param[in]  p_data: pointer to BLE adapter event data
 496:C:/Users/stapi/OneDrive/Desktop/GD32VW553/GD32VW55X_Wifi_BLE_SDK/GD32VW55x_RELEASE_V1.0.2/MSDK/ble/app\app_blue_courier_link.c ****     \param[out] none
 497:C:/Users/stapi/OneDrive/Desktop/GD32VW553/GD32VW55X_Wifi_BLE_SDK/GD32VW55x_RELEASE_V1.0.2/MSDK/ble/app\app_blue_courier_link.c ****     \retval     none
 498:C:/Users/stapi/OneDrive/Desktop/GD32VW553/GD32VW55X_Wifi_BLE_SDK/GD32VW55x_RELEASE_V1.0.2/MSDK/ble/app\app_blue_courier_link.c **** */
 499:C:/Users/stapi/OneDrive/Desktop/GD32VW553/GD32VW55X_Wifi_BLE_SDK/GD32VW55x_RELEASE_V1.0.2/MSDK/ble/app\app_blue_courier_link.c **** static void bcwl_adp_evt_handler(ble_adp_evt_t event, ble_adp_data_u *p_data)
 500:C:/Users/stapi/OneDrive/Desktop/GD32VW553/GD32VW55X_Wifi_BLE_SDK/GD32VW55x_RELEASE_V1.0.2/MSDK/ble/app\app_blue_courier_link.c **** {
 501:C:/Users/stapi/OneDrive/Desktop/GD32VW553/GD32VW55X_Wifi_BLE_SDK/GD32VW55x_RELEASE_V1.0.2/MSDK/ble/app\app_blue_courier_link.c ****     switch (event) {
 502:C:/Users/stapi/OneDrive/Desktop/GD32VW553/GD32VW55X_Wifi_BLE_SDK/GD32VW55x_RELEASE_V1.0.2/MSDK/ble/app\app_blue_courier_link.c **** 
 503:C:/Users/stapi/OneDrive/Desktop/GD32VW553/GD32VW55X_Wifi_BLE_SDK/GD32VW55x_RELEASE_V1.0.2/MSDK/ble/app\app_blue_courier_link.c ****     case BLE_ADP_EVT_ENABLE_CMPL_INFO:
 504:C:/Users/stapi/OneDrive/Desktop/GD32VW553/GD32VW55X_Wifi_BLE_SDK/GD32VW55x_RELEASE_V1.0.2/MSDK/ble/app\app_blue_courier_link.c ****         if (p_data->adapter_info.status == BLE_ERR_NO_ERROR) {
 505:C:/Users/stapi/OneDrive/Desktop/GD32VW553/GD32VW55X_Wifi_BLE_SDK/GD32VW55x_RELEASE_V1.0.2/MSDK/ble/app\app_blue_courier_link.c ****             ble_enabled = true;
 506:C:/Users/stapi/OneDrive/Desktop/GD32VW553/GD32VW55X_Wifi_BLE_SDK/GD32VW55x_RELEASE_V1.0.2/MSDK/ble/app\app_blue_courier_link.c ****             if (bcwl_enable_pending) {
 507:C:/Users/stapi/OneDrive/Desktop/GD32VW553/GD32VW55X_Wifi_BLE_SDK/GD32VW55x_RELEASE_V1.0.2/MSDK/ble/app\app_blue_courier_link.c ****                 bcwl_enable_pending = false;
 508:C:/Users/stapi/OneDrive/Desktop/GD32VW553/GD32VW55X_Wifi_BLE_SDK/GD32VW55x_RELEASE_V1.0.2/MSDK/ble/app\app_blue_courier_link.c ****                 bcw_prf_enable(true);
 509:C:/Users/stapi/OneDrive/Desktop/GD32VW553/GD32VW55X_Wifi_BLE_SDK/GD32VW55x_RELEASE_V1.0.2/MSDK/ble/app\app_blue_courier_link.c ****             }
 510:C:/Users/stapi/OneDrive/Desktop/GD32VW553/GD32VW55X_Wifi_BLE_SDK/GD32VW55x_RELEASE_V1.0.2/MSDK/ble/app\app_blue_courier_link.c ****         }
 511:C:/Users/stapi/OneDrive/Desktop/GD32VW553/GD32VW55X_Wifi_BLE_SDK/GD32VW55x_RELEASE_V1.0.2/MSDK/ble/app\app_blue_courier_link.c ****         break;
 512:C:/Users/stapi/OneDrive/Desktop/GD32VW553/GD32VW55X_Wifi_BLE_SDK/GD32VW55x_RELEASE_V1.0.2/MSDK/ble/app\app_blue_courier_link.c **** 
 513:C:/Users/stapi/OneDrive/Desktop/GD32VW553/GD32VW55X_Wifi_BLE_SDK/GD32VW55x_RELEASE_V1.0.2/MSDK/ble/app\app_blue_courier_link.c ****     case BLE_ADP_EVT_DISABLE_CMPL_INFO:
 514:C:/Users/stapi/OneDrive/Desktop/GD32VW553/GD32VW55X_Wifi_BLE_SDK/GD32VW55x_RELEASE_V1.0.2/MSDK/ble/app\app_blue_courier_link.c ****         if (!p_data->status) {
 515:C:/Users/stapi/OneDrive/Desktop/GD32VW553/GD32VW55X_Wifi_BLE_SDK/GD32VW55x_RELEASE_V1.0.2/MSDK/ble/app\app_blue_courier_link.c ****             ble_enabled = false;
 516:C:/Users/stapi/OneDrive/Desktop/GD32VW553/GD32VW55X_Wifi_BLE_SDK/GD32VW55x_RELEASE_V1.0.2/MSDK/ble/app\app_blue_courier_link.c ****         }
 517:C:/Users/stapi/OneDrive/Desktop/GD32VW553/GD32VW55X_Wifi_BLE_SDK/GD32VW55x_RELEASE_V1.0.2/MSDK/ble/app\app_blue_courier_link.c ****         break;
 518:C:/Users/stapi/OneDrive/Desktop/GD32VW553/GD32VW55X_Wifi_BLE_SDK/GD32VW55x_RELEASE_V1.0.2/MSDK/ble/app\app_blue_courier_link.c **** 
 519:C:/Users/stapi/OneDrive/Desktop/GD32VW553/GD32VW55X_Wifi_BLE_SDK/GD32VW55x_RELEASE_V1.0.2/MSDK/ble/app\app_blue_courier_link.c ****     default:
 520:C:/Users/stapi/OneDrive/Desktop/GD32VW553/GD32VW55X_Wifi_BLE_SDK/GD32VW55x_RELEASE_V1.0.2/MSDK/ble/app\app_blue_courier_link.c ****         break;
 521:C:/Users/stapi/OneDrive/Desktop/GD32VW553/GD32VW55X_Wifi_BLE_SDK/GD32VW55x_RELEASE_V1.0.2/MSDK/ble/app\app_blue_courier_link.c ****     }
 522:C:/Users/stapi/OneDrive/Desktop/GD32VW553/GD32VW55X_Wifi_BLE_SDK/GD32VW55x_RELEASE_V1.0.2/MSDK/ble/app\app_blue_courier_link.c **** }
 523:C:/Users/stapi/OneDrive/Desktop/GD32VW553/GD32VW55X_Wifi_BLE_SDK/GD32VW55x_RELEASE_V1.0.2/MSDK/ble/app\app_blue_courier_link.c **** 
 524:C:/Users/stapi/OneDrive/Desktop/GD32VW553/GD32VW55X_Wifi_BLE_SDK/GD32VW55x_RELEASE_V1.0.2/MSDK/ble/app\app_blue_courier_link.c **** /*!
 525:C:/Users/stapi/OneDrive/Desktop/GD32VW553/GD32VW55X_Wifi_BLE_SDK/GD32VW55x_RELEASE_V1.0.2/MSDK/ble/app\app_blue_courier_link.c ****     \brief      Blue courier wifi link create advertising
 526:C:/Users/stapi/OneDrive/Desktop/GD32VW553/GD32VW55X_Wifi_BLE_SDK/GD32VW55x_RELEASE_V1.0.2/MSDK/ble/app\app_blue_courier_link.c ****     \param[in]  none
 527:C:/Users/stapi/OneDrive/Desktop/GD32VW553/GD32VW55X_Wifi_BLE_SDK/GD32VW55x_RELEASE_V1.0.2/MSDK/ble/app\app_blue_courier_link.c ****     \param[out] none
 528:C:/Users/stapi/OneDrive/Desktop/GD32VW553/GD32VW55X_Wifi_BLE_SDK/GD32VW55x_RELEASE_V1.0.2/MSDK/ble/app\app_blue_courier_link.c ****     \retval     ble_status_t: BLE_ERR_NO_ERROR on success, otherwise an error code
 529:C:/Users/stapi/OneDrive/Desktop/GD32VW553/GD32VW55X_Wifi_BLE_SDK/GD32VW55x_RELEASE_V1.0.2/MSDK/ble/app\app_blue_courier_link.c **** */
 530:C:/Users/stapi/OneDrive/Desktop/GD32VW553/GD32VW55X_Wifi_BLE_SDK/GD32VW55x_RELEASE_V1.0.2/MSDK/ble/app\app_blue_courier_link.c **** static ble_status_t bcwl_adv_create(void)
 531:C:/Users/stapi/OneDrive/Desktop/GD32VW553/GD32VW55X_Wifi_BLE_SDK/GD32VW55x_RELEASE_V1.0.2/MSDK/ble/app\app_blue_courier_link.c **** {
 532:C:/Users/stapi/OneDrive/Desktop/GD32VW553/GD32VW55X_Wifi_BLE_SDK/GD32VW55x_RELEASE_V1.0.2/MSDK/ble/app\app_blue_courier_link.c ****     ble_adv_param_t adv_param = {0};
 533:C:/Users/stapi/OneDrive/Desktop/GD32VW553/GD32VW55X_Wifi_BLE_SDK/GD32VW55x_RELEASE_V1.0.2/MSDK/ble/app\app_blue_courier_link.c **** 
 534:C:/Users/stapi/OneDrive/Desktop/GD32VW553/GD32VW55X_Wifi_BLE_SDK/GD32VW55x_RELEASE_V1.0.2/MSDK/ble/app\app_blue_courier_link.c ****     adv_param.param.own_addr_type = BLE_GAP_LOCAL_ADDR_STATIC;
 535:C:/Users/stapi/OneDrive/Desktop/GD32VW553/GD32VW55X_Wifi_BLE_SDK/GD32VW55x_RELEASE_V1.0.2/MSDK/ble/app\app_blue_courier_link.c ****     adv_param.param.type = BLE_GAP_ADV_TYPE_LEGACY;
 536:C:/Users/stapi/OneDrive/Desktop/GD32VW553/GD32VW55X_Wifi_BLE_SDK/GD32VW55x_RELEASE_V1.0.2/MSDK/ble/app\app_blue_courier_link.c ****     adv_param.param.prop = BLE_GAP_ADV_PROP_UNDIR_CONN;
 537:C:/Users/stapi/OneDrive/Desktop/GD32VW553/GD32VW55X_Wifi_BLE_SDK/GD32VW55x_RELEASE_V1.0.2/MSDK/ble/app\app_blue_courier_link.c ****     adv_param.param.filter_pol = BLE_GAP_ADV_ALLOW_SCAN_ANY_CON_ANY;
 538:C:/Users/stapi/OneDrive/Desktop/GD32VW553/GD32VW55X_Wifi_BLE_SDK/GD32VW55x_RELEASE_V1.0.2/MSDK/ble/app\app_blue_courier_link.c ****     adv_param.param.disc_mode = BLE_GAP_ADV_MODE_GEN_DISC;
 539:C:/Users/stapi/OneDrive/Desktop/GD32VW553/GD32VW55X_Wifi_BLE_SDK/GD32VW55x_RELEASE_V1.0.2/MSDK/ble/app\app_blue_courier_link.c ****     adv_param.param.ch_map = 0x07; // Advertising channel map - 37, 38, 39
 540:C:/Users/stapi/OneDrive/Desktop/GD32VW553/GD32VW55X_Wifi_BLE_SDK/GD32VW55x_RELEASE_V1.0.2/MSDK/ble/app\app_blue_courier_link.c ****     adv_param.param.primary_phy = BLE_GAP_PHY_1MBPS;
 541:C:/Users/stapi/OneDrive/Desktop/GD32VW553/GD32VW55X_Wifi_BLE_SDK/GD32VW55x_RELEASE_V1.0.2/MSDK/ble/app\app_blue_courier_link.c ****     adv_param.param.adv_intv_min = 160; // Advertising minimum interval - 100ms (160*0.625ms)
 542:C:/Users/stapi/OneDrive/Desktop/GD32VW553/GD32VW55X_Wifi_BLE_SDK/GD32VW55x_RELEASE_V1.0.2/MSDK/ble/app\app_blue_courier_link.c ****     adv_param.param.adv_intv_max = 160; // Advertising maximum interval - 100ms (160*0.625ms)
 543:C:/Users/stapi/OneDrive/Desktop/GD32VW553/GD32VW55X_Wifi_BLE_SDK/GD32VW55x_RELEASE_V1.0.2/MSDK/ble/app\app_blue_courier_link.c ****     adv_param.restart_after_disconn = true;
 544:C:/Users/stapi/OneDrive/Desktop/GD32VW553/GD32VW55X_Wifi_BLE_SDK/GD32VW55x_RELEASE_V1.0.2/MSDK/ble/app\app_blue_courier_link.c **** 
 545:C:/Users/stapi/OneDrive/Desktop/GD32VW553/GD32VW55X_Wifi_BLE_SDK/GD32VW55x_RELEASE_V1.0.2/MSDK/ble/app\app_blue_courier_link.c ****     return ble_adv_create(&adv_param, bcwl_adv_mgr_evt_hdlr, NULL);
 546:C:/Users/stapi/OneDrive/Desktop/GD32VW553/GD32VW55X_Wifi_BLE_SDK/GD32VW55x_RELEASE_V1.0.2/MSDK/ble/app\app_blue_courier_link.c **** }
 547:C:/Users/stapi/OneDrive/Desktop/GD32VW553/GD32VW55X_Wifi_BLE_SDK/GD32VW55x_RELEASE_V1.0.2/MSDK/ble/app\app_blue_courier_link.c **** 
 548:C:/Users/stapi/OneDrive/Desktop/GD32VW553/GD32VW55X_Wifi_BLE_SDK/GD32VW55x_RELEASE_V1.0.2/MSDK/ble/app\app_blue_courier_link.c **** /*!
 549:C:/Users/stapi/OneDrive/Desktop/GD32VW553/GD32VW55X_Wifi_BLE_SDK/GD32VW55x_RELEASE_V1.0.2/MSDK/ble/app\app_blue_courier_link.c ****     \brief      Blue courier wifi link stop advertising
 550:C:/Users/stapi/OneDrive/Desktop/GD32VW553/GD32VW55X_Wifi_BLE_SDK/GD32VW55x_RELEASE_V1.0.2/MSDK/ble/app\app_blue_courier_link.c ****     \param[in]  none
 551:C:/Users/stapi/OneDrive/Desktop/GD32VW553/GD32VW55X_Wifi_BLE_SDK/GD32VW55x_RELEASE_V1.0.2/MSDK/ble/app\app_blue_courier_link.c ****     \param[out] none
 552:C:/Users/stapi/OneDrive/Desktop/GD32VW553/GD32VW55X_Wifi_BLE_SDK/GD32VW55x_RELEASE_V1.0.2/MSDK/ble/app\app_blue_courier_link.c ****     \retval     ble_status_t: BLE_ERR_NO_ERROR on success, otherwise an error code
 553:C:/Users/stapi/OneDrive/Desktop/GD32VW553/GD32VW55X_Wifi_BLE_SDK/GD32VW55x_RELEASE_V1.0.2/MSDK/ble/app\app_blue_courier_link.c **** */
 554:C:/Users/stapi/OneDrive/Desktop/GD32VW553/GD32VW55X_Wifi_BLE_SDK/GD32VW55x_RELEASE_V1.0.2/MSDK/ble/app\app_blue_courier_link.c **** static ble_status_t bcwl_adv_stop(void)
 555:C:/Users/stapi/OneDrive/Desktop/GD32VW553/GD32VW55X_Wifi_BLE_SDK/GD32VW55x_RELEASE_V1.0.2/MSDK/ble/app\app_blue_courier_link.c **** {
 556:C:/Users/stapi/OneDrive/Desktop/GD32VW553/GD32VW55X_Wifi_BLE_SDK/GD32VW55x_RELEASE_V1.0.2/MSDK/ble/app\app_blue_courier_link.c ****     if (bcwl_env.adv_state == BLE_ADV_STATE_START) {
 557:C:/Users/stapi/OneDrive/Desktop/GD32VW553/GD32VW55X_Wifi_BLE_SDK/GD32VW55x_RELEASE_V1.0.2/MSDK/ble/app\app_blue_courier_link.c ****         bcwl_env.remove_after_stop = true;
 558:C:/Users/stapi/OneDrive/Desktop/GD32VW553/GD32VW55X_Wifi_BLE_SDK/GD32VW55x_RELEASE_V1.0.2/MSDK/ble/app\app_blue_courier_link.c ****         return ble_adv_stop(bcwl_env.adv_idx);
 559:C:/Users/stapi/OneDrive/Desktop/GD32VW553/GD32VW55X_Wifi_BLE_SDK/GD32VW55x_RELEASE_V1.0.2/MSDK/ble/app\app_blue_courier_link.c ****     } else if (bcwl_env.adv_state != BLE_ADV_STATE_IDLE) {
 560:C:/Users/stapi/OneDrive/Desktop/GD32VW553/GD32VW55X_Wifi_BLE_SDK/GD32VW55x_RELEASE_V1.0.2/MSDK/ble/app\app_blue_courier_link.c ****         return ble_adv_remove(bcwl_env.adv_idx);
 561:C:/Users/stapi/OneDrive/Desktop/GD32VW553/GD32VW55X_Wifi_BLE_SDK/GD32VW55x_RELEASE_V1.0.2/MSDK/ble/app\app_blue_courier_link.c ****     }
 562:C:/Users/stapi/OneDrive/Desktop/GD32VW553/GD32VW55X_Wifi_BLE_SDK/GD32VW55x_RELEASE_V1.0.2/MSDK/ble/app\app_blue_courier_link.c **** 
 563:C:/Users/stapi/OneDrive/Desktop/GD32VW553/GD32VW55X_Wifi_BLE_SDK/GD32VW55x_RELEASE_V1.0.2/MSDK/ble/app\app_blue_courier_link.c ****     return BLE_ERR_NO_ERROR;
 564:C:/Users/stapi/OneDrive/Desktop/GD32VW553/GD32VW55X_Wifi_BLE_SDK/GD32VW55x_RELEASE_V1.0.2/MSDK/ble/app\app_blue_courier_link.c **** }
 565:C:/Users/stapi/OneDrive/Desktop/GD32VW553/GD32VW55X_Wifi_BLE_SDK/GD32VW55x_RELEASE_V1.0.2/MSDK/ble/app\app_blue_courier_link.c **** 
 566:C:/Users/stapi/OneDrive/Desktop/GD32VW553/GD32VW55X_Wifi_BLE_SDK/GD32VW55x_RELEASE_V1.0.2/MSDK/ble/app\app_blue_courier_link.c **** /*!
 567:C:/Users/stapi/OneDrive/Desktop/GD32VW553/GD32VW55X_Wifi_BLE_SDK/GD32VW55x_RELEASE_V1.0.2/MSDK/ble/app\app_blue_courier_link.c ****     \brief      Enable/disable blue courier wifi service
 568:C:/Users/stapi/OneDrive/Desktop/GD32VW553/GD32VW55X_Wifi_BLE_SDK/GD32VW55x_RELEASE_V1.0.2/MSDK/ble/app\app_blue_courier_link.c ****     \param[in]  enable: 1 to enable and 0 to disable
 569:C:/Users/stapi/OneDrive/Desktop/GD32VW553/GD32VW55X_Wifi_BLE_SDK/GD32VW55x_RELEASE_V1.0.2/MSDK/ble/app\app_blue_courier_link.c ****     \param[out] none
 570:C:/Users/stapi/OneDrive/Desktop/GD32VW553/GD32VW55X_Wifi_BLE_SDK/GD32VW55x_RELEASE_V1.0.2/MSDK/ble/app\app_blue_courier_link.c ****     \retval     ble_status_t: BLE_ERR_NO_ERROR on success, otherwise an error code
 571:C:/Users/stapi/OneDrive/Desktop/GD32VW553/GD32VW55X_Wifi_BLE_SDK/GD32VW55x_RELEASE_V1.0.2/MSDK/ble/app\app_blue_courier_link.c **** */
 572:C:/Users/stapi/OneDrive/Desktop/GD32VW553/GD32VW55X_Wifi_BLE_SDK/GD32VW55x_RELEASE_V1.0.2/MSDK/ble/app\app_blue_courier_link.c **** ble_status_t bcw_prf_enable(uint8_t enable)
 573:C:/Users/stapi/OneDrive/Desktop/GD32VW553/GD32VW55X_Wifi_BLE_SDK/GD32VW55x_RELEASE_V1.0.2/MSDK/ble/app\app_blue_courier_link.c **** {
 1565              		.loc 1 573 1 is_stmt 1
 1566              		.cfi_startproc
 1567              	.LVL147:
 1568 0000 17030000 		call	t0,__riscv_save_4
 1568      E7020300 
 1569              		.cfi_offset 19, -20
 1570              		.cfi_offset 18, -16
 1571              		.cfi_offset 9, -12
 1572              		.cfi_offset 8, -8
 1573              		.cfi_offset 1, -4
 1574              		.cfi_def_cfa_offset 32
 574:C:/Users/stapi/OneDrive/Desktop/GD32VW553/GD32VW55X_Wifi_BLE_SDK/GD32VW55x_RELEASE_V1.0.2/MSDK/ble/app\app_blue_courier_link.c ****     ble_status_t ret = BLE_ERR_NO_ERROR;
 1575              		.loc 1 574 5
 1576              	.LVL148:
 575:C:/Users/stapi/OneDrive/Desktop/GD32VW553/GD32VW55X_Wifi_BLE_SDK/GD32VW55x_RELEASE_V1.0.2/MSDK/ble/app\app_blue_courier_link.c **** 
 576:C:/Users/stapi/OneDrive/Desktop/GD32VW553/GD32VW55X_Wifi_BLE_SDK/GD32VW55x_RELEASE_V1.0.2/MSDK/ble/app\app_blue_courier_link.c ****     if (bcwl_env.mode == enable)
 1577              		.loc 1 576 5
 573:C:/Users/stapi/OneDrive/Desktop/GD32VW553/GD32VW55X_Wifi_BLE_SDK/GD32VW55x_RELEASE_V1.0.2/MSDK/ble/app\app_blue_courier_link.c ****     ble_status_t ret = BLE_ERR_NO_ERROR;
 1578              		.loc 1 573 1 is_stmt 0
 1579 0008 2A89     		mv	s2,a0
 1580              		.loc 1 576 17
 1581 000a 37050000 		lui	a0,%hi(.LANCHOR0)
 1582              	.LVL149:
 1583              		.loc 1 576 8
 1584 000e 83470500 		lbu	a5,%lo(.LANCHOR0)(a0)
 573:C:/Users/stapi/OneDrive/Desktop/GD32VW553/GD32VW55X_Wifi_BLE_SDK/GD32VW55x_RELEASE_V1.0.2/MSDK/ble/app\app_blue_courier_link.c ****     ble_status_t ret = BLE_ERR_NO_ERROR;
 1585              		.loc 1 573 1
 1586 0012 7971     		addi	sp,sp,-48
 1587              		.cfi_def_cfa_offset 80
 1588              		.loc 1 576 8
 1589 0014 63802703 		beq	a5,s2,.L167
 1590 0018 93040500 		addi	s1,a0,%lo(.LANCHOR0)
 577:C:/Users/stapi/OneDrive/Desktop/GD32VW553/GD32VW55X_Wifi_BLE_SDK/GD32VW55x_RELEASE_V1.0.2/MSDK/ble/app\app_blue_courier_link.c ****         return BLE_ERR_NO_ERROR;
 578:C:/Users/stapi/OneDrive/Desktop/GD32VW553/GD32VW55X_Wifi_BLE_SDK/GD32VW55x_RELEASE_V1.0.2/MSDK/ble/app\app_blue_courier_link.c **** 
 579:C:/Users/stapi/OneDrive/Desktop/GD32VW553/GD32VW55X_Wifi_BLE_SDK/GD32VW55x_RELEASE_V1.0.2/MSDK/ble/app\app_blue_courier_link.c ****     if (enable) {
 1591              		.loc 1 579 5 is_stmt 1
 1592              		.loc 1 579 8 is_stmt 0
 1593 001c 630F0908 		beq	s2,zero,.L160
 580:C:/Users/stapi/OneDrive/Desktop/GD32VW553/GD32VW55X_Wifi_BLE_SDK/GD32VW55x_RELEASE_V1.0.2/MSDK/ble/app\app_blue_courier_link.c ****         if (ble_enabled == false) {
 1594              		.loc 1 580 9 is_stmt 1
 1595              		.loc 1 580 12 is_stmt 0
 1596 0020 B7070000 		lui	a5,%hi(.LANCHOR9)
 1597 0024 83C70700 		lbu	a5,%lo(.LANCHOR9)(a5)
 1598 0028 81EB     		bne	a5,zero,.L161
 581:C:/Users/stapi/OneDrive/Desktop/GD32VW553/GD32VW55X_Wifi_BLE_SDK/GD32VW55x_RELEASE_V1.0.2/MSDK/ble/app\app_blue_courier_link.c ****             bcwl_enable_pending = true;
 1599              		.loc 1 581 13 is_stmt 1
 1600              		.loc 1 581 33 is_stmt 0
 1601 002a B7070000 		lui	a5,%hi(.LANCHOR10)
 1602 002e 0547     		li	a4,1
 1603 0030 2380E700 		sb	a4,%lo(.LANCHOR10)(a5)
 582:C:/Users/stapi/OneDrive/Desktop/GD32VW553/GD32VW55X_Wifi_BLE_SDK/GD32VW55x_RELEASE_V1.0.2/MSDK/ble/app\app_blue_courier_link.c ****             return BLE_ERR_NO_ERROR;
 1604              		.loc 1 582 13 is_stmt 1
 1605              	.L167:
 577:C:/Users/stapi/OneDrive/Desktop/GD32VW553/GD32VW55X_Wifi_BLE_SDK/GD32VW55x_RELEASE_V1.0.2/MSDK/ble/app\app_blue_courier_link.c **** 
 1606              		.loc 1 577 16 is_stmt 0
 1607 0034 0144     		li	s0,0
 1608 0036 A5A8     		j	.L158
 1609              	.L161:
 583:C:/Users/stapi/OneDrive/Desktop/GD32VW553/GD32VW55X_Wifi_BLE_SDK/GD32VW55x_RELEASE_V1.0.2/MSDK/ble/app\app_blue_courier_link.c ****         }
 584:C:/Users/stapi/OneDrive/Desktop/GD32VW553/GD32VW55X_Wifi_BLE_SDK/GD32VW55x_RELEASE_V1.0.2/MSDK/ble/app\app_blue_courier_link.c **** 
 585:C:/Users/stapi/OneDrive/Desktop/GD32VW553/GD32VW55X_Wifi_BLE_SDK/GD32VW55x_RELEASE_V1.0.2/MSDK/ble/app\app_blue_courier_link.c ****         sys_memset(&bcwl_env, 0, sizeof(bcwl_env));
 1610              		.loc 1 585 9 is_stmt 1
 1611 0038 13060002 		li	a2,32
 1612 003c 8145     		li	a1,0
 1613 003e 13050500 		addi	a0,a0,%lo(.LANCHOR0)
 1614 0042 97000000 		call	sys_memset
 1614      E7800000 
 1615              	.LVL150:
 586:C:/Users/stapi/OneDrive/Desktop/GD32VW553/GD32VW55X_Wifi_BLE_SDK/GD32VW55x_RELEASE_V1.0.2/MSDK/ble/app\app_blue_courier_link.c **** 
 587:C:/Users/stapi/OneDrive/Desktop/GD32VW553/GD32VW55X_Wifi_BLE_SDK/GD32VW55x_RELEASE_V1.0.2/MSDK/ble/app\app_blue_courier_link.c ****         ble_conn_callback_register(bcwl_conn_evt_handler);
 1616              		.loc 1 587 9
 1617 004a B7090000 		lui	s3,%hi(bcwl_conn_evt_handler)
 1618 004e 13850900 		addi	a0,s3,%lo(bcwl_conn_evt_handler)
 1619 0052 97000000 		call	ble_conn_callback_register
 1619      E7800000 
 1620              	.LVL151:
 588:C:/Users/stapi/OneDrive/Desktop/GD32VW553/GD32VW55X_Wifi_BLE_SDK/GD32VW55x_RELEASE_V1.0.2/MSDK/ble/app\app_blue_courier_link.c **** 
 589:C:/Users/stapi/OneDrive/Desktop/GD32VW553/GD32VW55X_Wifi_BLE_SDK/GD32VW55x_RELEASE_V1.0.2/MSDK/ble/app\app_blue_courier_link.c ****         ret = bcwl_adv_create();
 1621              		.loc 1 589 9
 1622              	.LBB94:
 1623              	.LBB95:
 532:C:/Users/stapi/OneDrive/Desktop/GD32VW553/GD32VW55X_Wifi_BLE_SDK/GD32VW55x_RELEASE_V1.0.2/MSDK/ble/app\app_blue_courier_link.c **** 
 1624              		.loc 1 532 5
 534:C:/Users/stapi/OneDrive/Desktop/GD32VW553/GD32VW55X_Wifi_BLE_SDK/GD32VW55x_RELEASE_V1.0.2/MSDK/ble/app\app_blue_courier_link.c ****     adv_param.param.type = BLE_GAP_ADV_TYPE_LEGACY;
 1625              		.loc 1 534 5
 535:C:/Users/stapi/OneDrive/Desktop/GD32VW553/GD32VW55X_Wifi_BLE_SDK/GD32VW55x_RELEASE_V1.0.2/MSDK/ble/app\app_blue_courier_link.c ****     adv_param.param.prop = BLE_GAP_ADV_PROP_UNDIR_CONN;
 1626              		.loc 1 535 5
 536:C:/Users/stapi/OneDrive/Desktop/GD32VW553/GD32VW55X_Wifi_BLE_SDK/GD32VW55x_RELEASE_V1.0.2/MSDK/ble/app\app_blue_courier_link.c ****     adv_param.param.filter_pol = BLE_GAP_ADV_ALLOW_SCAN_ANY_CON_ANY;
 1627              		.loc 1 536 5
 537:C:/Users/stapi/OneDrive/Desktop/GD32VW553/GD32VW55X_Wifi_BLE_SDK/GD32VW55x_RELEASE_V1.0.2/MSDK/ble/app\app_blue_courier_link.c ****     adv_param.param.disc_mode = BLE_GAP_ADV_MODE_GEN_DISC;
 1628              		.loc 1 537 5
 538:C:/Users/stapi/OneDrive/Desktop/GD32VW553/GD32VW55X_Wifi_BLE_SDK/GD32VW55x_RELEASE_V1.0.2/MSDK/ble/app\app_blue_courier_link.c ****     adv_param.param.ch_map = 0x07; // Advertising channel map - 37, 38, 39
 1629              		.loc 1 538 5
 539:C:/Users/stapi/OneDrive/Desktop/GD32VW553/GD32VW55X_Wifi_BLE_SDK/GD32VW55x_RELEASE_V1.0.2/MSDK/ble/app\app_blue_courier_link.c ****     adv_param.param.primary_phy = BLE_GAP_PHY_1MBPS;
 1630              		.loc 1 539 5
 540:C:/Users/stapi/OneDrive/Desktop/GD32VW553/GD32VW55X_Wifi_BLE_SDK/GD32VW55x_RELEASE_V1.0.2/MSDK/ble/app\app_blue_courier_link.c ****     adv_param.param.adv_intv_min = 160; // Advertising minimum interval - 100ms (160*0.625ms)
 1631              		.loc 1 540 5
 541:C:/Users/stapi/OneDrive/Desktop/GD32VW553/GD32VW55X_Wifi_BLE_SDK/GD32VW55x_RELEASE_V1.0.2/MSDK/ble/app\app_blue_courier_link.c ****     adv_param.param.adv_intv_max = 160; // Advertising maximum interval - 100ms (160*0.625ms)
 1632              		.loc 1 541 5
 542:C:/Users/stapi/OneDrive/Desktop/GD32VW553/GD32VW55X_Wifi_BLE_SDK/GD32VW55x_RELEASE_V1.0.2/MSDK/ble/app\app_blue_courier_link.c ****     adv_param.restart_after_disconn = true;
 1633              		.loc 1 542 5
 543:C:/Users/stapi/OneDrive/Desktop/GD32VW553/GD32VW55X_Wifi_BLE_SDK/GD32VW55x_RELEASE_V1.0.2/MSDK/ble/app\app_blue_courier_link.c **** 
 1634              		.loc 1 543 5
 532:C:/Users/stapi/OneDrive/Desktop/GD32VW553/GD32VW55X_Wifi_BLE_SDK/GD32VW55x_RELEASE_V1.0.2/MSDK/ble/app\app_blue_courier_link.c **** 
 1635              		.loc 1 532 21 is_stmt 0
 1636 005a 1306C002 		li	a2,44
 1637 005e 8145     		li	a1,0
 1638 0060 4800     		addi	a0,sp,4
 1639 0062 97000000 		call	memset
 1639      E7800000 
 1640              	.LVL152:
 541:C:/Users/stapi/OneDrive/Desktop/GD32VW553/GD32VW55X_Wifi_BLE_SDK/GD32VW55x_RELEASE_V1.0.2/MSDK/ble/app\app_blue_courier_link.c ****     adv_param.param.adv_intv_max = 160; // Advertising maximum interval - 100ms (160*0.625ms)
 1641              		.loc 1 541 34
 1642 006a 1307000A 		li	a4,160
 536:C:/Users/stapi/OneDrive/Desktop/GD32VW553/GD32VW55X_Wifi_BLE_SDK/GD32VW55x_RELEASE_V1.0.2/MSDK/ble/app\app_blue_courier_link.c ****     adv_param.param.filter_pol = BLE_GAP_ADV_ALLOW_SCAN_ANY_CON_ANY;
 1643              		.loc 1 536 26
 1644 006e 8D47     		li	a5,3
 545:C:/Users/stapi/OneDrive/Desktop/GD32VW553/GD32VW55X_Wifi_BLE_SDK/GD32VW55x_RELEASE_V1.0.2/MSDK/ble/app\app_blue_courier_link.c **** }
 1645              		.loc 1 545 12
 1646 0070 B7050000 		lui	a1,%hi(bcwl_adv_mgr_evt_hdlr)
 536:C:/Users/stapi/OneDrive/Desktop/GD32VW553/GD32VW55X_Wifi_BLE_SDK/GD32VW55x_RELEASE_V1.0.2/MSDK/ble/app\app_blue_courier_link.c ****     adv_param.param.filter_pol = BLE_GAP_ADV_ALLOW_SCAN_ANY_CON_ANY;
 1647              		.loc 1 536 26
 1648 0074 2313F100 		sh	a5,6(sp)
 541:C:/Users/stapi/OneDrive/Desktop/GD32VW553/GD32VW55X_Wifi_BLE_SDK/GD32VW55x_RELEASE_V1.0.2/MSDK/ble/app\app_blue_courier_link.c ****     adv_param.param.adv_intv_max = 160; // Advertising maximum interval - 100ms (160*0.625ms)
 1649              		.loc 1 541 34
 1650 0078 3ACA     		sw	a4,20(sp)
 538:C:/Users/stapi/OneDrive/Desktop/GD32VW553/GD32VW55X_Wifi_BLE_SDK/GD32VW55x_RELEASE_V1.0.2/MSDK/ble/app\app_blue_courier_link.c ****     adv_param.param.ch_map = 0x07; // Advertising channel map - 37, 38, 39
 1651              		.loc 1 538 31
 1652 007a 8547     		li	a5,1
 542:C:/Users/stapi/OneDrive/Desktop/GD32VW553/GD32VW55X_Wifi_BLE_SDK/GD32VW55x_RELEASE_V1.0.2/MSDK/ble/app\app_blue_courier_link.c ****     adv_param.restart_after_disconn = true;
 1653              		.loc 1 542 34
 1654 007c 3ACC     		sw	a4,24(sp)
 545:C:/Users/stapi/OneDrive/Desktop/GD32VW553/GD32VW55X_Wifi_BLE_SDK/GD32VW55x_RELEASE_V1.0.2/MSDK/ble/app\app_blue_courier_link.c **** }
 1655              		.loc 1 545 12
 1656 007e 0146     		li	a2,0
 539:C:/Users/stapi/OneDrive/Desktop/GD32VW553/GD32VW55X_Wifi_BLE_SDK/GD32VW55x_RELEASE_V1.0.2/MSDK/ble/app\app_blue_courier_link.c ****     adv_param.param.primary_phy = BLE_GAP_PHY_1MBPS;
 1657              		.loc 1 539 28
 1658 0080 13077010 		li	a4,263
 545:C:/Users/stapi/OneDrive/Desktop/GD32VW553/GD32VW55X_Wifi_BLE_SDK/GD32VW55x_RELEASE_V1.0.2/MSDK/ble/app\app_blue_courier_link.c **** }
 1659              		.loc 1 545 12
 1660 0084 93850500 		addi	a1,a1,%lo(bcwl_adv_mgr_evt_hdlr)
 1661 0088 4800     		addi	a0,sp,4
 538:C:/Users/stapi/OneDrive/Desktop/GD32VW553/GD32VW55X_Wifi_BLE_SDK/GD32VW55x_RELEASE_V1.0.2/MSDK/ble/app\app_blue_courier_link.c ****     adv_param.param.ch_map = 0x07; // Advertising channel map - 37, 38, 39
 1662              		.loc 1 538 31
 1663 008a 2304F100 		sb	a5,8(sp)
 539:C:/Users/stapi/OneDrive/Desktop/GD32VW553/GD32VW55X_Wifi_BLE_SDK/GD32VW55x_RELEASE_V1.0.2/MSDK/ble/app\app_blue_courier_link.c ****     adv_param.param.primary_phy = BLE_GAP_PHY_1MBPS;
 1664              		.loc 1 539 28
 1665 008e 231EE100 		sh	a4,28(sp)
 543:C:/Users/stapi/OneDrive/Desktop/GD32VW553/GD32VW55X_Wifi_BLE_SDK/GD32VW55x_RELEASE_V1.0.2/MSDK/ble/app\app_blue_courier_link.c **** 
 1666              		.loc 1 543 37
 1667 0092 2307F102 		sb	a5,46(sp)
 545:C:/Users/stapi/OneDrive/Desktop/GD32VW553/GD32VW55X_Wifi_BLE_SDK/GD32VW55x_RELEASE_V1.0.2/MSDK/ble/app\app_blue_courier_link.c **** }
 1668              		.loc 1 545 5 is_stmt 1
 545:C:/Users/stapi/OneDrive/Desktop/GD32VW553/GD32VW55X_Wifi_BLE_SDK/GD32VW55x_RELEASE_V1.0.2/MSDK/ble/app\app_blue_courier_link.c **** }
 1669              		.loc 1 545 12 is_stmt 0
 1670 0096 97000000 		call	ble_adv_create
 1670      E7800000 
 1671              	.LVL153:
 1672 009e 2A84     		mv	s0,a0
 1673              	.LVL154:
 1674              	.LBE95:
 1675              	.LBE94:
 590:C:/Users/stapi/OneDrive/Desktop/GD32VW553/GD32VW55X_Wifi_BLE_SDK/GD32VW55x_RELEASE_V1.0.2/MSDK/ble/app\app_blue_courier_link.c ****         if (ret != BLE_ERR_NO_ERROR) {
 1676              		.loc 1 590 9 is_stmt 1
 1677              		.loc 1 590 12 is_stmt 0
 1678 00a0 31C5     		beq	a0,zero,.L162
 591:C:/Users/stapi/OneDrive/Desktop/GD32VW553/GD32VW55X_Wifi_BLE_SDK/GD32VW55x_RELEASE_V1.0.2/MSDK/ble/app\app_blue_courier_link.c ****             ble_conn_callback_unregister(bcwl_conn_evt_handler);
 1679              		.loc 1 591 13 is_stmt 1
 1680 00a2 13850900 		addi	a0,s3,%lo(bcwl_conn_evt_handler)
 1681 00a6 97000000 		call	ble_conn_callback_unregister
 1681      E7800000 
 1682              	.LVL155:
 592:C:/Users/stapi/OneDrive/Desktop/GD32VW553/GD32VW55X_Wifi_BLE_SDK/GD32VW55x_RELEASE_V1.0.2/MSDK/ble/app\app_blue_courier_link.c ****             return ret;
 1683              		.loc 1 592 13
 1684              	.L158:
 593:C:/Users/stapi/OneDrive/Desktop/GD32VW553/GD32VW55X_Wifi_BLE_SDK/GD32VW55x_RELEASE_V1.0.2/MSDK/ble/app\app_blue_courier_link.c ****         }
 594:C:/Users/stapi/OneDrive/Desktop/GD32VW553/GD32VW55X_Wifi_BLE_SDK/GD32VW55x_RELEASE_V1.0.2/MSDK/ble/app\app_blue_courier_link.c ****     } else {
 595:C:/Users/stapi/OneDrive/Desktop/GD32VW553/GD32VW55X_Wifi_BLE_SDK/GD32VW55x_RELEASE_V1.0.2/MSDK/ble/app\app_blue_courier_link.c ****         ret = bcwl_adv_stop();
 596:C:/Users/stapi/OneDrive/Desktop/GD32VW553/GD32VW55X_Wifi_BLE_SDK/GD32VW55x_RELEASE_V1.0.2/MSDK/ble/app\app_blue_courier_link.c ****         if (ret != BLE_ERR_NO_ERROR)
 597:C:/Users/stapi/OneDrive/Desktop/GD32VW553/GD32VW55X_Wifi_BLE_SDK/GD32VW55x_RELEASE_V1.0.2/MSDK/ble/app\app_blue_courier_link.c ****             return ret;
 598:C:/Users/stapi/OneDrive/Desktop/GD32VW553/GD32VW55X_Wifi_BLE_SDK/GD32VW55x_RELEASE_V1.0.2/MSDK/ble/app\app_blue_courier_link.c **** 
 599:C:/Users/stapi/OneDrive/Desktop/GD32VW553/GD32VW55X_Wifi_BLE_SDK/GD32VW55x_RELEASE_V1.0.2/MSDK/ble/app\app_blue_courier_link.c ****         ble_conn_callback_unregister(bcwl_conn_evt_handler);
 600:C:/Users/stapi/OneDrive/Desktop/GD32VW553/GD32VW55X_Wifi_BLE_SDK/GD32VW55x_RELEASE_V1.0.2/MSDK/ble/app\app_blue_courier_link.c ****     }
 601:C:/Users/stapi/OneDrive/Desktop/GD32VW553/GD32VW55X_Wifi_BLE_SDK/GD32VW55x_RELEASE_V1.0.2/MSDK/ble/app\app_blue_courier_link.c **** 
 602:C:/Users/stapi/OneDrive/Desktop/GD32VW553/GD32VW55X_Wifi_BLE_SDK/GD32VW55x_RELEASE_V1.0.2/MSDK/ble/app\app_blue_courier_link.c ****     bcwl_env.mode = enable;
 603:C:/Users/stapi/OneDrive/Desktop/GD32VW553/GD32VW55X_Wifi_BLE_SDK/GD32VW55x_RELEASE_V1.0.2/MSDK/ble/app\app_blue_courier_link.c ****     return ret;
 604:C:/Users/stapi/OneDrive/Desktop/GD32VW553/GD32VW55X_Wifi_BLE_SDK/GD32VW55x_RELEASE_V1.0.2/MSDK/ble/app\app_blue_courier_link.c **** }
 1685              		.loc 1 604 1 is_stmt 0
 1686 00ae 2285     		mv	a0,s0
 1687 00b0 4561     		addi	sp,sp,48
 1688              		.cfi_remember_state
 1689              		.cfi_def_cfa_offset 0
 1690 00b2 17030000 		tail	__riscv_restore_4
 1690      67000300 
 1691              		.cfi_restore 19
 1692              		.cfi_restore 18
 1693              		.cfi_restore 9
 1694              		.cfi_restore 8
 1695              		.cfi_restore 1
 1696              		.cfi_def_cfa_offset -32
 1697              	.LVL156:
 1698              	.L160:
 1699              		.cfi_restore_state
 595:C:/Users/stapi/OneDrive/Desktop/GD32VW553/GD32VW55X_Wifi_BLE_SDK/GD32VW55x_RELEASE_V1.0.2/MSDK/ble/app\app_blue_courier_link.c ****         if (ret != BLE_ERR_NO_ERROR)
 1700              		.loc 1 595 9 is_stmt 1
 1701              	.LBB96:
 1702              	.LBB97:
 556:C:/Users/stapi/OneDrive/Desktop/GD32VW553/GD32VW55X_Wifi_BLE_SDK/GD32VW55x_RELEASE_V1.0.2/MSDK/ble/app\app_blue_courier_link.c ****         bcwl_env.remove_after_stop = true;
 1703              		.loc 1 556 5
 556:C:/Users/stapi/OneDrive/Desktop/GD32VW553/GD32VW55X_Wifi_BLE_SDK/GD32VW55x_RELEASE_V1.0.2/MSDK/ble/app\app_blue_courier_link.c ****         bcwl_env.remove_after_stop = true;
 1704              		.loc 1 556 17 is_stmt 0
 1705 00ba 9C44     		lw	a5,8(s1)
 556:C:/Users/stapi/OneDrive/Desktop/GD32VW553/GD32VW55X_Wifi_BLE_SDK/GD32VW55x_RELEASE_V1.0.2/MSDK/ble/app\app_blue_courier_link.c ****         bcwl_env.remove_after_stop = true;
 1706              		.loc 1 556 8
 1707 00bc 1947     		li	a4,6
 1708 00be 639EE700 		bne	a5,a4,.L163
 557:C:/Users/stapi/OneDrive/Desktop/GD32VW553/GD32VW55X_Wifi_BLE_SDK/GD32VW55x_RELEASE_V1.0.2/MSDK/ble/app\app_blue_courier_link.c ****         return ble_adv_stop(bcwl_env.adv_idx);
 1709              		.loc 1 557 9 is_stmt 1
 558:C:/Users/stapi/OneDrive/Desktop/GD32VW553/GD32VW55X_Wifi_BLE_SDK/GD32VW55x_RELEASE_V1.0.2/MSDK/ble/app\app_blue_courier_link.c ****     } else if (bcwl_env.adv_state != BLE_ADV_STATE_IDLE) {
 1710              		.loc 1 558 16 is_stmt 0
 1711 00c2 03C52400 		lbu	a0,2(s1)
 557:C:/Users/stapi/OneDrive/Desktop/GD32VW553/GD32VW55X_Wifi_BLE_SDK/GD32VW55x_RELEASE_V1.0.2/MSDK/ble/app\app_blue_courier_link.c ****         return ble_adv_stop(bcwl_env.adv_idx);
 1712              		.loc 1 557 36
 1713 00c6 8547     		li	a5,1
 1714 00c8 A381F400 		sb	a5,3(s1)
 558:C:/Users/stapi/OneDrive/Desktop/GD32VW553/GD32VW55X_Wifi_BLE_SDK/GD32VW55x_RELEASE_V1.0.2/MSDK/ble/app\app_blue_courier_link.c ****     } else if (bcwl_env.adv_state != BLE_ADV_STATE_IDLE) {
 1715              		.loc 1 558 9 is_stmt 1
 558:C:/Users/stapi/OneDrive/Desktop/GD32VW553/GD32VW55X_Wifi_BLE_SDK/GD32VW55x_RELEASE_V1.0.2/MSDK/ble/app\app_blue_courier_link.c ****     } else if (bcwl_env.adv_state != BLE_ADV_STATE_IDLE) {
 1716              		.loc 1 558 16 is_stmt 0
 1717 00cc 97000000 		call	ble_adv_stop
 1717      E7800000 
 1718              	.LVL157:
 1719              	.L172:
 560:C:/Users/stapi/OneDrive/Desktop/GD32VW553/GD32VW55X_Wifi_BLE_SDK/GD32VW55x_RELEASE_V1.0.2/MSDK/ble/app\app_blue_courier_link.c ****     }
 1720              		.loc 1 560 16
 1721 00d4 2A84     		mv	s0,a0
 1722              	.LVL158:
 1723              	.LBE97:
 1724              	.LBE96:
 596:C:/Users/stapi/OneDrive/Desktop/GD32VW553/GD32VW55X_Wifi_BLE_SDK/GD32VW55x_RELEASE_V1.0.2/MSDK/ble/app\app_blue_courier_link.c ****             return ret;
 1725              		.loc 1 596 9 is_stmt 1
 596:C:/Users/stapi/OneDrive/Desktop/GD32VW553/GD32VW55X_Wifi_BLE_SDK/GD32VW55x_RELEASE_V1.0.2/MSDK/ble/app\app_blue_courier_link.c ****             return ret;
 1726              		.loc 1 596 12 is_stmt 0
 1727 00d6 61FD     		bne	a0,zero,.L158
 1728 00d8 11A0     		j	.L166
 1729              	.LVL159:
 1730              	.L163:
 1731              	.LBB100:
 1732              	.LBB98:
 559:C:/Users/stapi/OneDrive/Desktop/GD32VW553/GD32VW55X_Wifi_BLE_SDK/GD32VW55x_RELEASE_V1.0.2/MSDK/ble/app\app_blue_courier_link.c ****         return ble_adv_remove(bcwl_env.adv_idx);
 1733              		.loc 1 559 12 is_stmt 1
 559:C:/Users/stapi/OneDrive/Desktop/GD32VW553/GD32VW55X_Wifi_BLE_SDK/GD32VW55x_RELEASE_V1.0.2/MSDK/ble/app\app_blue_courier_link.c ****         return ble_adv_remove(bcwl_env.adv_idx);
 1734              		.loc 1 559 15 is_stmt 0
 1735 00da 81EF     		bne	a5,zero,.L165
 1736              	.LVL160:
 1737              	.L166:
 1738              	.LBE98:
 1739              	.LBE100:
 599:C:/Users/stapi/OneDrive/Desktop/GD32VW553/GD32VW55X_Wifi_BLE_SDK/GD32VW55x_RELEASE_V1.0.2/MSDK/ble/app\app_blue_courier_link.c ****     }
 1740              		.loc 1 599 9 is_stmt 1
 1741 00dc 37050000 		lui	a0,%hi(bcwl_conn_evt_handler)
 1742 00e0 13050500 		addi	a0,a0,%lo(bcwl_conn_evt_handler)
 1743 00e4 97000000 		call	ble_conn_callback_unregister
 1743      E7800000 
 1744              	.LVL161:
 1745              	.L162:
 602:C:/Users/stapi/OneDrive/Desktop/GD32VW553/GD32VW55X_Wifi_BLE_SDK/GD32VW55x_RELEASE_V1.0.2/MSDK/ble/app\app_blue_courier_link.c ****     return ret;
 1746              		.loc 1 602 5
 602:C:/Users/stapi/OneDrive/Desktop/GD32VW553/GD32VW55X_Wifi_BLE_SDK/GD32VW55x_RELEASE_V1.0.2/MSDK/ble/app\app_blue_courier_link.c ****     return ret;
 1747              		.loc 1 602 19 is_stmt 0
 1748 00ec 23802401 		sb	s2,0(s1)
 603:C:/Users/stapi/OneDrive/Desktop/GD32VW553/GD32VW55X_Wifi_BLE_SDK/GD32VW55x_RELEASE_V1.0.2/MSDK/ble/app\app_blue_courier_link.c **** }
 1749              		.loc 1 603 5 is_stmt 1
 1750 00f0 91B7     		j	.L167
 1751              	.L165:
 1752              	.LBB101:
 1753              	.LBB99:
 560:C:/Users/stapi/OneDrive/Desktop/GD32VW553/GD32VW55X_Wifi_BLE_SDK/GD32VW55x_RELEASE_V1.0.2/MSDK/ble/app\app_blue_courier_link.c ****     }
 1754              		.loc 1 560 9
 560:C:/Users/stapi/OneDrive/Desktop/GD32VW553/GD32VW55X_Wifi_BLE_SDK/GD32VW55x_RELEASE_V1.0.2/MSDK/ble/app\app_blue_courier_link.c ****     }
 1755              		.loc 1 560 16 is_stmt 0
 1756 00f2 03C52400 		lbu	a0,2(s1)
 1757 00f6 97000000 		call	ble_adv_remove
 1757      E7800000 
 1758              	.LVL162:
 1759 00fe D9BF     		j	.L172
 1760              	.LBE99:
 1761              	.LBE101:
 1762              		.cfi_endproc
 1763              	.LFE28:
 1765              		.section	.text.bcwl_adp_evt_handler,"ax",@progbits
 1766              		.align	1
 1768              	bcwl_adp_evt_handler:
 1769              	.LFB25:
 500:C:/Users/stapi/OneDrive/Desktop/GD32VW553/GD32VW55X_Wifi_BLE_SDK/GD32VW55x_RELEASE_V1.0.2/MSDK/ble/app\app_blue_courier_link.c ****     switch (event) {
 1770              		.loc 1 500 1 is_stmt 1
 1771              		.cfi_startproc
 1772              	.LVL163:
 501:C:/Users/stapi/OneDrive/Desktop/GD32VW553/GD32VW55X_Wifi_BLE_SDK/GD32VW55x_RELEASE_V1.0.2/MSDK/ble/app\app_blue_courier_link.c **** 
 1773              		.loc 1 501 5
 1774 0000 09C5     		beq	a0,zero,.L174
 1775 0002 8947     		li	a5,2
 1776 0004 6309F502 		beq	a0,a5,.L175
 1777 0008 8280     		ret
 1778              	.L174:
 504:C:/Users/stapi/OneDrive/Desktop/GD32VW553/GD32VW55X_Wifi_BLE_SDK/GD32VW55x_RELEASE_V1.0.2/MSDK/ble/app\app_blue_courier_link.c ****             ble_enabled = true;
 1779              		.loc 1 504 9
 504:C:/Users/stapi/OneDrive/Desktop/GD32VW553/GD32VW55X_Wifi_BLE_SDK/GD32VW55x_RELEASE_V1.0.2/MSDK/ble/app\app_blue_courier_link.c ****             ble_enabled = true;
 1780              		.loc 1 504 12 is_stmt 0
 1781 000a 83D70500 		lhu	a5,0(a1)
 1782 000e 85EF     		bne	a5,zero,.L183
 505:C:/Users/stapi/OneDrive/Desktop/GD32VW553/GD32VW55X_Wifi_BLE_SDK/GD32VW55x_RELEASE_V1.0.2/MSDK/ble/app\app_blue_courier_link.c ****             if (bcwl_enable_pending) {
 1783              		.loc 1 505 13 is_stmt 1
 505:C:/Users/stapi/OneDrive/Desktop/GD32VW553/GD32VW55X_Wifi_BLE_SDK/GD32VW55x_RELEASE_V1.0.2/MSDK/ble/app\app_blue_courier_link.c ****             if (bcwl_enable_pending) {
 1784              		.loc 1 505 25 is_stmt 0
 1785 0010 B7070000 		lui	a5,%hi(.LANCHOR9)
 1786 0014 0547     		li	a4,1
 1787 0016 2380E700 		sb	a4,%lo(.LANCHOR9)(a5)
 506:C:/Users/stapi/OneDrive/Desktop/GD32VW553/GD32VW55X_Wifi_BLE_SDK/GD32VW55x_RELEASE_V1.0.2/MSDK/ble/app\app_blue_courier_link.c ****                 bcwl_enable_pending = false;
 1788              		.loc 1 506 13 is_stmt 1
 506:C:/Users/stapi/OneDrive/Desktop/GD32VW553/GD32VW55X_Wifi_BLE_SDK/GD32VW55x_RELEASE_V1.0.2/MSDK/ble/app\app_blue_courier_link.c ****                 bcwl_enable_pending = false;
 1789              		.loc 1 506 17 is_stmt 0
 1790 001a B7070000 		lui	a5,%hi(.LANCHOR10)
 1791 001e 93870700 		addi	a5,a5,%lo(.LANCHOR10)
 506:C:/Users/stapi/OneDrive/Desktop/GD32VW553/GD32VW55X_Wifi_BLE_SDK/GD32VW55x_RELEASE_V1.0.2/MSDK/ble/app\app_blue_courier_link.c ****                 bcwl_enable_pending = false;
 1792              		.loc 1 506 16
 1793 0022 03C70700 		lbu	a4,0(a5)
 1794 0026 05C3     		beq	a4,zero,.L183
 1795              	.LVL164:
 1796              	.LBB104:
 1797              	.LBB105:
 507:C:/Users/stapi/OneDrive/Desktop/GD32VW553/GD32VW55X_Wifi_BLE_SDK/GD32VW55x_RELEASE_V1.0.2/MSDK/ble/app\app_blue_courier_link.c ****                 bcw_prf_enable(true);
 1798              		.loc 1 507 17 is_stmt 1
 508:C:/Users/stapi/OneDrive/Desktop/GD32VW553/GD32VW55X_Wifi_BLE_SDK/GD32VW55x_RELEASE_V1.0.2/MSDK/ble/app\app_blue_courier_link.c ****             }
 1799              		.loc 1 508 17 is_stmt 0
 1800 0028 0545     		li	a0,1
 1801              	.LVL165:
 507:C:/Users/stapi/OneDrive/Desktop/GD32VW553/GD32VW55X_Wifi_BLE_SDK/GD32VW55x_RELEASE_V1.0.2/MSDK/ble/app\app_blue_courier_link.c ****                 bcw_prf_enable(true);
 1802              		.loc 1 507 37
 1803 002a 23800700 		sb	zero,0(a5)
 508:C:/Users/stapi/OneDrive/Desktop/GD32VW553/GD32VW55X_Wifi_BLE_SDK/GD32VW55x_RELEASE_V1.0.2/MSDK/ble/app\app_blue_courier_link.c ****             }
 1804              		.loc 1 508 17 is_stmt 1
 1805 002e 17030000 		tail	bcw_prf_enable
 1805      67000300 
 1806              	.LVL166:
 1807              	.L175:
 1808              	.LBE105:
 1809              	.LBE104:
 514:C:/Users/stapi/OneDrive/Desktop/GD32VW553/GD32VW55X_Wifi_BLE_SDK/GD32VW55x_RELEASE_V1.0.2/MSDK/ble/app\app_blue_courier_link.c ****             ble_enabled = false;
 1810              		.loc 1 514 9
 514:C:/Users/stapi/OneDrive/Desktop/GD32VW553/GD32VW55X_Wifi_BLE_SDK/GD32VW55x_RELEASE_V1.0.2/MSDK/ble/app\app_blue_courier_link.c ****             ble_enabled = false;
 1811              		.loc 1 514 12 is_stmt 0
 1812 0036 83D70500 		lhu	a5,0(a1)
 1813 003a 91E7     		bne	a5,zero,.L183
 515:C:/Users/stapi/OneDrive/Desktop/GD32VW553/GD32VW55X_Wifi_BLE_SDK/GD32VW55x_RELEASE_V1.0.2/MSDK/ble/app\app_blue_courier_link.c ****         }
 1814              		.loc 1 515 13 is_stmt 1
 515:C:/Users/stapi/OneDrive/Desktop/GD32VW553/GD32VW55X_Wifi_BLE_SDK/GD32VW55x_RELEASE_V1.0.2/MSDK/ble/app\app_blue_courier_link.c ****         }
 1815              		.loc 1 515 25 is_stmt 0
 1816 003c B7070000 		lui	a5,%hi(.LANCHOR9)
 1817 0040 23800700 		sb	zero,%lo(.LANCHOR9)(a5)
 522:C:/Users/stapi/OneDrive/Desktop/GD32VW553/GD32VW55X_Wifi_BLE_SDK/GD32VW55x_RELEASE_V1.0.2/MSDK/ble/app\app_blue_courier_link.c **** 
 1818              		.loc 1 522 1
 1819 0044 8280     		ret
 1820              	.L183:
 1821 0046 8280     		ret
 1822              		.cfi_endproc
 1823              	.LFE25:
 1825              		.section	.text.app_blue_courier_init,"ax",@progbits
 1826              		.align	1
 1827              		.globl	app_blue_courier_init
 1829              	app_blue_courier_init:
 1830              	.LFB29:
 605:C:/Users/stapi/OneDrive/Desktop/GD32VW553/GD32VW55X_Wifi_BLE_SDK/GD32VW55x_RELEASE_V1.0.2/MSDK/ble/app\app_blue_courier_link.c **** 
 606:C:/Users/stapi/OneDrive/Desktop/GD32VW553/GD32VW55X_Wifi_BLE_SDK/GD32VW55x_RELEASE_V1.0.2/MSDK/ble/app\app_blue_courier_link.c **** /*!
 607:C:/Users/stapi/OneDrive/Desktop/GD32VW553/GD32VW55X_Wifi_BLE_SDK/GD32VW55x_RELEASE_V1.0.2/MSDK/ble/app\app_blue_courier_link.c ****     \brief      Init BLE courier server
 608:C:/Users/stapi/OneDrive/Desktop/GD32VW553/GD32VW55X_Wifi_BLE_SDK/GD32VW55x_RELEASE_V1.0.2/MSDK/ble/app\app_blue_courier_link.c ****     \param[in]  none
 609:C:/Users/stapi/OneDrive/Desktop/GD32VW553/GD32VW55X_Wifi_BLE_SDK/GD32VW55x_RELEASE_V1.0.2/MSDK/ble/app\app_blue_courier_link.c ****     \param[out] none
 610:C:/Users/stapi/OneDrive/Desktop/GD32VW553/GD32VW55X_Wifi_BLE_SDK/GD32VW55x_RELEASE_V1.0.2/MSDK/ble/app\app_blue_courier_link.c ****     \retval     none
 611:C:/Users/stapi/OneDrive/Desktop/GD32VW553/GD32VW55X_Wifi_BLE_SDK/GD32VW55x_RELEASE_V1.0.2/MSDK/ble/app\app_blue_courier_link.c **** */
 612:C:/Users/stapi/OneDrive/Desktop/GD32VW553/GD32VW55X_Wifi_BLE_SDK/GD32VW55x_RELEASE_V1.0.2/MSDK/ble/app\app_blue_courier_link.c **** void app_blue_courier_init(void)
 613:C:/Users/stapi/OneDrive/Desktop/GD32VW553/GD32VW55X_Wifi_BLE_SDK/GD32VW55x_RELEASE_V1.0.2/MSDK/ble/app\app_blue_courier_link.c **** {
 1831              		.loc 1 613 1 is_stmt 1
 1832              		.cfi_startproc
 1833 0000 17030000 		call	t0,__riscv_save_0
 1833      E7020300 
 1834              		.cfi_offset 1, -4
 1835              		.cfi_def_cfa_offset 16
 614:C:/Users/stapi/OneDrive/Desktop/GD32VW553/GD32VW55X_Wifi_BLE_SDK/GD32VW55x_RELEASE_V1.0.2/MSDK/ble/app\app_blue_courier_link.c ****     uint8_t bcw_svc_uuid[16] = UUID_16BIT_TO_ARRAY(BCW_GATT_SERVICE_UUID);
 1836              		.loc 1 614 5
 1837              		.loc 1 614 13 is_stmt 0
 1838 0008 C167     		li	a5,65536
 613:C:/Users/stapi/OneDrive/Desktop/GD32VW553/GD32VW55X_Wifi_BLE_SDK/GD32VW55x_RELEASE_V1.0.2/MSDK/ble/app\app_blue_courier_link.c ****     uint8_t bcw_svc_uuid[16] = UUID_16BIT_TO_ARRAY(BCW_GATT_SERVICE_UUID);
 1839              		.loc 1 613 1
 1840 000a 4111     		addi	sp,sp,-16
 1841              		.cfi_def_cfa_offset 32
 1842              		.loc 1 614 13
 1843 000c C117     		addi	a5,a5,-16
 615:C:/Users/stapi/OneDrive/Desktop/GD32VW553/GD32VW55X_Wifi_BLE_SDK/GD32VW55x_RELEASE_V1.0.2/MSDK/ble/app\app_blue_courier_link.c **** 
 616:C:/Users/stapi/OneDrive/Desktop/GD32VW553/GD32VW55X_Wifi_BLE_SDK/GD32VW55x_RELEASE_V1.0.2/MSDK/ble/app\app_blue_courier_link.c ****     // add blue courier wifi profile
 617:C:/Users/stapi/OneDrive/Desktop/GD32VW553/GD32VW55X_Wifi_BLE_SDK/GD32VW55x_RELEASE_V1.0.2/MSDK/ble/app\app_blue_courier_link.c ****     ble_gatts_svc_add(&prf_id, bcw_svc_uuid, 0, 0, bcw_att_db, BCW_IDX_NUMBER, bcwl_gatts_msg_cb);
 1844              		.loc 1 617 5
 1845 000e 37080000 		lui	a6,%hi(bcwl_gatts_msg_cb)
 1846 0012 37070000 		lui	a4,%hi(.LANCHOR11)
 1847 0016 37050000 		lui	a0,%hi(.LANCHOR4)
 1848 001a 8A85     		mv	a1,sp
 614:C:/Users/stapi/OneDrive/Desktop/GD32VW553/GD32VW55X_Wifi_BLE_SDK/GD32VW55x_RELEASE_V1.0.2/MSDK/ble/app\app_blue_courier_link.c **** 
 1849              		.loc 1 614 13
 1850 001c 3EC0     		sw	a5,0(sp)
 1851              		.loc 1 617 5
 1852 001e 13080800 		addi	a6,a6,%lo(bcwl_gatts_msg_cb)
 1853 0022 9947     		li	a5,6
 1854 0024 13070700 		addi	a4,a4,%lo(.LANCHOR11)
 1855 0028 8146     		li	a3,0
 1856 002a 0146     		li	a2,0
 1857 002c 13050500 		addi	a0,a0,%lo(.LANCHOR4)
 614:C:/Users/stapi/OneDrive/Desktop/GD32VW553/GD32VW55X_Wifi_BLE_SDK/GD32VW55x_RELEASE_V1.0.2/MSDK/ble/app\app_blue_courier_link.c **** 
 1858              		.loc 1 614 13
 1859 0030 02C2     		sw	zero,4(sp)
 1860 0032 02C4     		sw	zero,8(sp)
 1861 0034 02C6     		sw	zero,12(sp)
 1862              		.loc 1 617 5 is_stmt 1
 1863 0036 97000000 		call	ble_gatts_svc_add
 1863      E7800000 
 1864              	.LVL167:
 618:C:/Users/stapi/OneDrive/Desktop/GD32VW553/GD32VW55X_Wifi_BLE_SDK/GD32VW55x_RELEASE_V1.0.2/MSDK/ble/app\app_blue_courier_link.c **** 
 619:C:/Users/stapi/OneDrive/Desktop/GD32VW553/GD32VW55X_Wifi_BLE_SDK/GD32VW55x_RELEASE_V1.0.2/MSDK/ble/app\app_blue_courier_link.c ****     ble_adp_callback_register(bcwl_adp_evt_handler);
 1865              		.loc 1 619 5
 1866 003e 37050000 		lui	a0,%hi(bcwl_adp_evt_handler)
 1867 0042 13050500 		addi	a0,a0,%lo(bcwl_adp_evt_handler)
 1868 0046 97000000 		call	ble_adp_callback_register
 1868      E7800000 
 1869              	.LVL168:
 620:C:/Users/stapi/OneDrive/Desktop/GD32VW553/GD32VW55X_Wifi_BLE_SDK/GD32VW55x_RELEASE_V1.0.2/MSDK/ble/app\app_blue_courier_link.c **** }
 1870              		.loc 1 620 1 is_stmt 0
 1871 004e 4101     		addi	sp,sp,16
 1872              		.cfi_def_cfa_offset 0
 1873 0050 17030000 		tail	__riscv_restore_0
 1873      67000300 
 1874              		.cfi_restore 1
 1875              		.cfi_def_cfa_offset -16
 1876              		.cfi_endproc
 1877              	.LFE29:
 1879              		.section	.text.app_blue_courier_deinit,"ax",@progbits
 1880              		.align	1
 1881              		.globl	app_blue_courier_deinit
 1883              	app_blue_courier_deinit:
 1884              	.LFB30:
 621:C:/Users/stapi/OneDrive/Desktop/GD32VW553/GD32VW55X_Wifi_BLE_SDK/GD32VW55x_RELEASE_V1.0.2/MSDK/ble/app\app_blue_courier_link.c **** 
 622:C:/Users/stapi/OneDrive/Desktop/GD32VW553/GD32VW55X_Wifi_BLE_SDK/GD32VW55x_RELEASE_V1.0.2/MSDK/ble/app\app_blue_courier_link.c **** /*!
 623:C:/Users/stapi/OneDrive/Desktop/GD32VW553/GD32VW55X_Wifi_BLE_SDK/GD32VW55x_RELEASE_V1.0.2/MSDK/ble/app\app_blue_courier_link.c ****     \brief      Deinit BLE courier server
 624:C:/Users/stapi/OneDrive/Desktop/GD32VW553/GD32VW55X_Wifi_BLE_SDK/GD32VW55x_RELEASE_V1.0.2/MSDK/ble/app\app_blue_courier_link.c ****     \param[in]  none
 625:C:/Users/stapi/OneDrive/Desktop/GD32VW553/GD32VW55X_Wifi_BLE_SDK/GD32VW55x_RELEASE_V1.0.2/MSDK/ble/app\app_blue_courier_link.c ****     \param[out] none
 626:C:/Users/stapi/OneDrive/Desktop/GD32VW553/GD32VW55X_Wifi_BLE_SDK/GD32VW55x_RELEASE_V1.0.2/MSDK/ble/app\app_blue_courier_link.c ****     \retval     none
 627:C:/Users/stapi/OneDrive/Desktop/GD32VW553/GD32VW55X_Wifi_BLE_SDK/GD32VW55x_RELEASE_V1.0.2/MSDK/ble/app\app_blue_courier_link.c **** */
 628:C:/Users/stapi/OneDrive/Desktop/GD32VW553/GD32VW55X_Wifi_BLE_SDK/GD32VW55x_RELEASE_V1.0.2/MSDK/ble/app\app_blue_courier_link.c **** void app_blue_courier_deinit(void)
 629:C:/Users/stapi/OneDrive/Desktop/GD32VW553/GD32VW55X_Wifi_BLE_SDK/GD32VW55x_RELEASE_V1.0.2/MSDK/ble/app\app_blue_courier_link.c **** {
 1885              		.loc 1 629 1 is_stmt 1
 1886              		.cfi_startproc
 1887 0000 17030000 		call	t0,__riscv_save_0
 1887      E7020300 
 1888              		.cfi_offset 1, -4
 1889              		.cfi_def_cfa_offset 16
 630:C:/Users/stapi/OneDrive/Desktop/GD32VW553/GD32VW55X_Wifi_BLE_SDK/GD32VW55x_RELEASE_V1.0.2/MSDK/ble/app\app_blue_courier_link.c ****     ble_gatts_svc_rmv(prf_id);
 1890              		.loc 1 630 5
 1891 0008 B7070000 		lui	a5,%hi(.LANCHOR4)
 1892 000c 03C50700 		lbu	a0,%lo(.LANCHOR4)(a5)
 1893 0010 97000000 		call	ble_gatts_svc_rmv
 1893      E7800000 
 1894              	.LVL169:
 631:C:/Users/stapi/OneDrive/Desktop/GD32VW553/GD32VW55X_Wifi_BLE_SDK/GD32VW55x_RELEASE_V1.0.2/MSDK/ble/app\app_blue_courier_link.c **** 
 632:C:/Users/stapi/OneDrive/Desktop/GD32VW553/GD32VW55X_Wifi_BLE_SDK/GD32VW55x_RELEASE_V1.0.2/MSDK/ble/app\app_blue_courier_link.c ****     ble_adp_callback_unregister(bcwl_adp_evt_handler);
 1895              		.loc 1 632 5
 1896 0018 37050000 		lui	a0,%hi(bcwl_adp_evt_handler)
 1897 001c 13050500 		addi	a0,a0,%lo(bcwl_adp_evt_handler)
 1898 0020 97000000 		call	ble_adp_callback_unregister
 1898      E7800000 
 1899              	.LVL170:
 633:C:/Users/stapi/OneDrive/Desktop/GD32VW553/GD32VW55X_Wifi_BLE_SDK/GD32VW55x_RELEASE_V1.0.2/MSDK/ble/app\app_blue_courier_link.c **** }
 1900              		.loc 1 633 1 is_stmt 0
 1901 0028 17030000 		tail	__riscv_restore_0
 1901      67000300 
 1902              		.cfi_restore 1
 1903              		.cfi_def_cfa_offset 0
 1904              		.cfi_endproc
 1905              	.LFE30:
 1907              		.globl	bcw_att_db
 1908              		.globl	prf_id
 1909              		.globl	bcwl_env
 1910              		.section	.bss.bcwl_env,"aw",@nobits
 1911              		.align	2
 1912              		.set	.LANCHOR0,. + 0
 1915              	bcwl_env:
 1916 0000 00000000 		.zero	32
 1916      00000000 
 1916      00000000 
 1916      00000000 
 1916      00000000 
 1917              		.section	.rodata.__func__.0,"a"
 1918              		.align	2
 1919              		.set	.LANCHOR8,. + 0
 1922              	__func__.0:
 1923 0000 6263776C 		.string	"bcwl_gatts_msg_cb"
 1923      5F676174 
 1923      74735F6D 
 1923      73675F63 
 1923      6200
 1924              		.section	.rodata.__func__.1,"a"
 1925              		.align	2
 1926              		.set	.LANCHOR1,. + 0
 1929              	__func__.1:
 1930 0000 6263776C 		.string	"bcwl_adv_mgr_evt_hdlr"
 1930      5F616476 
 1930      5F6D6772 
 1930      5F657674 
 1930      5F68646C 
 1931              		.section	.rodata.__func__.2,"a"
 1932              		.align	2
 1933              		.set	.LANCHOR7,. + 0
 1936              	__func__.2:
 1937 0000 6263776C 		.string	"bcwl_receive"
 1937      5F726563 
 1937      65697665 
 1937      00
 1938              		.section	.rodata.__func__.3,"a"
 1939              		.align	2
 1940              		.set	.LANCHOR3,. + 0
 1943              	__func__.3:
 1944 0000 6263776C 		.string	"bcwl_ntf_event_send"
 1944      5F6E7466 
 1944      5F657665 
 1944      6E745F73 
 1944      656E6400 
 1945              		.section	.rodata.__func__.4,"a"
 1946              		.align	2
 1947              		.set	.LANCHOR2,. + 0
 1950              	__func__.4:
 1951 0000 6263776C 		.string	"bcwl_send"
 1951      5F73656E 
 1951      6400
 1952              		.section	.rodata.__func__.5,"a"
 1953              		.align	2
 1954              		.set	.LANCHOR6,. + 0
 1957              	__func__.5:
 1958 0000 6263776C 		.string	"bcwl_msg_handler"
 1958      5F6D7367 
 1958      5F68616E 
 1958      646C6572 
 1958      00
 1959              		.section	.rodata.__func__.6,"a"
 1960              		.align	2
 1961              		.set	.LANCHOR5,. + 0
 1964              	__func__.6:
 1965 0000 6263776C 		.string	"bcwl_handle_mgmt_handshake"
 1965      5F68616E 
 1965      646C655F 
 1965      6D676D74 
 1965      5F68616E 
 1966              		.section	.rodata.bcw_att_db,"a"
 1967              		.align	2
 1968              		.set	.LANCHOR11,. + 0
 1971              	bcw_att_db:
 1972 0000 00       		.string	""
 1973 0001 2800     		.string	"("
 1974 0003 00000000 		.zero	13
 1974      00000000 
 1974      00000000 
 1974      00
 1975 0010 0200     		.half	2
 1976 0012 0000     		.half	0
 1977 0014 032800   		.string	"\003("
 1978 0017 00000000 		.zero	13
 1978      00000000 
 1978      00000000 
 1978      00
 1979 0024 0200     		.half	2
 1980 0026 0000     		.half	0
 1981 0028 F1FF00   		.string	"\361\377"
 1982 002b 00000000 		.zero	13
 1982      00000000 
 1982      00000000 
 1982      00
 1983 0038 0804     		.half	1032
 1984 003a 0002     		.half	512
 1985 003c 032800   		.string	"\003("
 1986 003f 00000000 		.zero	13
 1986      00000000 
 1986      00000000 
 1986      00
 1987 004c 0200     		.half	2
 1988 004e 0000     		.half	0
 1989 0050 F2FF00   		.string	"\362\377"
 1990 0053 00000000 		.zero	13
 1990      00000000 
 1990      00000000 
 1990      00
 1991 0060 1000     		.half	16
 1992 0062 0002     		.half	512
 1993 0064 022900   		.string	"\002)"
 1994 0067 00000000 		.zero	13
 1994      00000000 
 1994      00000000 
 1994      00
 1995 0074 0A00     		.half	10
 1996 0076 0280     		.half	-32766
 1997              		.section	.sbss.bcwl_enable_pending,"aw",@nobits
 1998              		.set	.LANCHOR10,. + 0
 2001              	bcwl_enable_pending:
 2002 0000 00       		.zero	1
 2003              		.section	.sbss.ble_enabled,"aw",@nobits
 2004              		.set	.LANCHOR9,. + 0
 2007              	ble_enabled:
 2008 0000 00       		.zero	1
 2009              		.section	.sbss.prf_id,"aw",@nobits
 2010              		.set	.LANCHOR4,. + 0
 2013              	prf_id:
 2014 0000 00       		.zero	1
 2015              		.text
 2016              	.Letext0:
 2017              		.file 3 "c:\\users\\stapi\\onedrive\\desktop\\gd32vw553\\embeddedbuilder_v1.4.7.26843\\tools\\nucl
 2018              		.file 4 "c:\\users\\stapi\\onedrive\\desktop\\gd32vw553\\embeddedbuilder_v1.4.7.26843\\tools\\nucl
 2019              		.file 5 "..\\..\\..\\..\\blesw\\src\\export/ble_types.h"
 2020              		.file 6 "..\\..\\..\\..\\blesw\\src\\export/ble_error.h"
 2021              		.file 7 "..\\..\\..\\..\\blesw\\src\\export/ble_gap.h"
 2022              		.file 8 "..\\..\\..\\..\\blesw\\src\\export/ble_adv_data.h"
 2023              		.file 9 "..\\..\\..\\..\\blesw\\src\\export/ble_adv.h"
 2024              		.file 10 "C:/Users/stapi/OneDrive/Desktop/GD32VW553/GD32VW55X_Wifi_BLE_SDK/GD32VW55x_RELEASE_V1.0.
 2025              		.file 11 "..\\..\\..\\..\\blesw\\src\\export/ble_gatt.h"
 2026              		.file 12 "..\\..\\..\\..\\blesw\\src\\export/ble_conn.h"
 2027              		.file 13 "..\\..\\..\\..\\blesw\\src\\export/ble_gatts.h"
 2028              		.file 14 "..\\..\\..\\..\\blesw\\src\\export/ble_adapter.h"
 2029              		.file 15 "..\\..\\..\\..\\util\\include/dbg_print.h"
 2030              		.file 16 "..\\..\\..\\..\\rtos\\rtos_wrapper/wrapper_os.h"
 2031              		.file 17 "..\\..\\..\\..\\util\\include/debug_print.h"
 2032              		.file 18 "<built-in>"
DEFINED SYMBOLS
                            *ABS*:0000000000000000 app_blue_courier_link.c
C:\Users\stapi\AppData\Local\Temp\cc3AqCjg.s:13     .text.bcwl_conn_evt_handler:0000000000000000 bcwl_conn_evt_handler
C:\Users\stapi\AppData\Local\Temp\cc3AqCjg.s:17     .text.bcwl_conn_evt_handler:0000000000000000 .L0 
C:\Users\stapi\AppData\Local\Temp\cc3AqCjg.s:19     .text.bcwl_conn_evt_handler:0000000000000000 .L0 
C:\Users\stapi\AppData\Local\Temp\cc3AqCjg.s:20     .text.bcwl_conn_evt_handler:0000000000000000 .L0 
C:\Users\stapi\AppData\Local\Temp\cc3AqCjg.s:21     .text.bcwl_conn_evt_handler:0000000000000000 .L0 
C:\Users\stapi\AppData\Local\Temp\cc3AqCjg.s:24     .text.bcwl_conn_evt_handler:0000000000000006 .L0 
C:\Users\stapi\AppData\Local\Temp\cc3AqCjg.s:27     .text.bcwl_conn_evt_handler:000000000000000c .L0 
C:\Users\stapi\AppData\Local\Temp\cc3AqCjg.s:28     .text.bcwl_conn_evt_handler:0000000000000014 .L0 
C:\Users\stapi\AppData\Local\Temp\cc3AqCjg.s:29     .text.bcwl_conn_evt_handler:0000000000000014 .L0 
C:\Users\stapi\AppData\Local\Temp\cc3AqCjg.s:30     .text.bcwl_conn_evt_handler:0000000000000014 .L0 
C:\Users\stapi\AppData\Local\Temp\cc3AqCjg.s:32     .text.bcwl_conn_evt_handler:0000000000000014 .L0 
C:\Users\stapi\AppData\Local\Temp\cc3AqCjg.s:35     .text.bcwl_conn_evt_handler:000000000000001c .L0 
C:\Users\stapi\AppData\Local\Temp\cc3AqCjg.s:42     .text.bcwl_conn_evt_handler:0000000000000028 .L0 
C:\Users\stapi\AppData\Local\Temp\cc3AqCjg.s:43     .text.bcwl_conn_evt_handler:0000000000000028 .L0 
C:\Users\stapi\AppData\Local\Temp\cc3AqCjg.s:45     .text.bcwl_conn_evt_handler:000000000000002c .L0 
C:\Users\stapi\AppData\Local\Temp\cc3AqCjg.s:48     .text.bcwl_conn_evt_handler:000000000000002e .L0 
C:\Users\stapi\AppData\Local\Temp\cc3AqCjg.s:50     .text.bcwl_conn_evt_handler:0000000000000032 .L0 
C:\Users\stapi\AppData\Local\Temp\cc3AqCjg.s:52     .text.bcwl_conn_evt_handler:0000000000000036 .L0 
C:\Users\stapi\AppData\Local\Temp\cc3AqCjg.s:53     .text.bcwl_conn_evt_handler:0000000000000036 .L0 
C:\Users\stapi\AppData\Local\Temp\cc3AqCjg.s:54     .text.bcwl_conn_evt_handler:0000000000000036 .L0 
C:\Users\stapi\AppData\Local\Temp\cc3AqCjg.s:55     .text.bcwl_conn_evt_handler:0000000000000036 .L0 
C:\Users\stapi\AppData\Local\Temp\cc3AqCjg.s:58     .text.bcwl_conn_evt_handler:000000000000003c .L0 
C:\Users\stapi\AppData\Local\Temp\cc3AqCjg.s:60     .text.bcwl_conn_evt_handler:000000000000003e .L0 
C:\Users\stapi\AppData\Local\Temp\cc3AqCjg.s:62     .text.bcwl_conn_evt_handler:0000000000000042 .L0 
C:\Users\stapi\AppData\Local\Temp\cc3AqCjg.s:63     .text.bcwl_conn_evt_handler:0000000000000042 .L0 
C:\Users\stapi\AppData\Local\Temp\cc3AqCjg.s:64     .text.bcwl_conn_evt_handler:0000000000000042 .L0 
C:\Users\stapi\AppData\Local\Temp\cc3AqCjg.s:65     .text.bcwl_conn_evt_handler:0000000000000042 .L0 
C:\Users\stapi\AppData\Local\Temp\cc3AqCjg.s:66     .text.bcwl_conn_evt_handler:0000000000000042 .L0 
C:\Users\stapi\AppData\Local\Temp\cc3AqCjg.s:68     .text.bcwl_conn_evt_handler:0000000000000046 .L0 
C:\Users\stapi\AppData\Local\Temp\cc3AqCjg.s:70     .text.bcwl_conn_evt_handler:000000000000004a .L0 
C:\Users\stapi\AppData\Local\Temp\cc3AqCjg.s:71     .text.bcwl_conn_evt_handler:000000000000004a .L0 
C:\Users\stapi\AppData\Local\Temp\cc3AqCjg.s:73     .text.bcwl_conn_evt_handler:000000000000004e .L0 
C:\Users\stapi\AppData\Local\Temp\cc3AqCjg.s:74     .text.bcwl_conn_evt_handler:000000000000004e .L0 
C:\Users\stapi\AppData\Local\Temp\cc3AqCjg.s:76     .text.bcwl_conn_evt_handler:0000000000000050 .L0 
C:\Users\stapi\AppData\Local\Temp\cc3AqCjg.s:79     .text.bcwl_conn_evt_handler:0000000000000058 .L0 
C:\Users\stapi\AppData\Local\Temp\cc3AqCjg.s:80     .text.bcwl_conn_evt_handler:0000000000000058 .L0 
C:\Users\stapi\AppData\Local\Temp\cc3AqCjg.s:86     .text.bcwl_conn_evt_handler:000000000000005c .L0 
C:\Users\stapi\AppData\Local\Temp\cc3AqCjg.s:87     .text.bcwl_conn_evt_handler:0000000000000064 .L0 
C:\Users\stapi\AppData\Local\Temp\cc3AqCjg.s:88     .text.bcwl_conn_evt_handler:0000000000000064 .L0 
C:\Users\stapi\AppData\Local\Temp\cc3AqCjg.s:89     .text.bcwl_conn_evt_handler:0000000000000064 .L0 
C:\Users\stapi\AppData\Local\Temp\cc3AqCjg.s:93     .text.bcwl_conn_evt_handler:0000000000000066 .L0 
C:\Users\stapi\AppData\Local\Temp\cc3AqCjg.s:103    .text.bcwl_adv_mgr_evt_hdlr:0000000000000000 bcwl_adv_mgr_evt_hdlr
C:\Users\stapi\AppData\Local\Temp\cc3AqCjg.s:106    .text.bcwl_adv_mgr_evt_hdlr:0000000000000000 .L0 
C:\Users\stapi\AppData\Local\Temp\cc3AqCjg.s:108    .text.bcwl_adv_mgr_evt_hdlr:0000000000000000 .L0 
C:\Users\stapi\AppData\Local\Temp\cc3AqCjg.s:109    .text.bcwl_adv_mgr_evt_hdlr:0000000000000000 .L0 
C:\Users\stapi\AppData\Local\Temp\cc3AqCjg.s:110    .text.bcwl_adv_mgr_evt_hdlr:0000000000000000 .L0 
C:\Users\stapi\AppData\Local\Temp\cc3AqCjg.s:112    .text.bcwl_adv_mgr_evt_hdlr:0000000000000004 .L0 
C:\Users\stapi\AppData\Local\Temp\cc3AqCjg.s:113    .text.bcwl_adv_mgr_evt_hdlr:000000000000000c .L0 
C:\Users\stapi\AppData\Local\Temp\cc3AqCjg.s:114    .text.bcwl_adv_mgr_evt_hdlr:000000000000000c .L0 
C:\Users\stapi\AppData\Local\Temp\cc3AqCjg.s:115    .text.bcwl_adv_mgr_evt_hdlr:000000000000000c .L0 
C:\Users\stapi\AppData\Local\Temp\cc3AqCjg.s:116    .text.bcwl_adv_mgr_evt_hdlr:000000000000000c .L0 
C:\Users\stapi\AppData\Local\Temp\cc3AqCjg.s:117    .text.bcwl_adv_mgr_evt_hdlr:000000000000000c .L0 
C:\Users\stapi\AppData\Local\Temp\cc3AqCjg.s:122    .text.bcwl_adv_mgr_evt_hdlr:000000000000000c .L0 
C:\Users\stapi\AppData\Local\Temp\cc3AqCjg.s:126    .text.bcwl_adv_mgr_evt_hdlr:0000000000000018 .L0 
C:\Users\stapi\AppData\Local\Temp\cc3AqCjg.s:133    .text.bcwl_adv_mgr_evt_hdlr:0000000000000022 .L0 
C:\Users\stapi\AppData\Local\Temp\cc3AqCjg.s:134    .text.bcwl_adv_mgr_evt_hdlr:0000000000000024 .L0 
C:\Users\stapi\AppData\Local\Temp\cc3AqCjg.s:141    .text.bcwl_adv_mgr_evt_hdlr:0000000000000026 .L0 
C:\Users\stapi\AppData\Local\Temp\cc3AqCjg.s:142    .text.bcwl_adv_mgr_evt_hdlr:0000000000000026 .L0 
C:\Users\stapi\AppData\Local\Temp\cc3AqCjg.s:143    .text.bcwl_adv_mgr_evt_hdlr:0000000000000026 .L0 
C:\Users\stapi\AppData\Local\Temp\cc3AqCjg.s:144    .text.bcwl_adv_mgr_evt_hdlr:0000000000000026 .L0 
C:\Users\stapi\AppData\Local\Temp\cc3AqCjg.s:147    .text.bcwl_adv_mgr_evt_hdlr:000000000000002e .L0 
C:\Users\stapi\AppData\Local\Temp\cc3AqCjg.s:161    .text.bcwl_adv_mgr_evt_hdlr:000000000000004e .L0 
C:\Users\stapi\AppData\Local\Temp\cc3AqCjg.s:162    .text.bcwl_adv_mgr_evt_hdlr:000000000000004e .L0 
C:\Users\stapi\AppData\Local\Temp\cc3AqCjg.s:163    .text.bcwl_adv_mgr_evt_hdlr:000000000000004e .L0 
C:\Users\stapi\AppData\Local\Temp\cc3AqCjg.s:165    .text.bcwl_adv_mgr_evt_hdlr:0000000000000050 .L0 
C:\Users\stapi\AppData\Local\Temp\cc3AqCjg.s:167    .text.bcwl_adv_mgr_evt_hdlr:0000000000000052 .L0 
C:\Users\stapi\AppData\Local\Temp\cc3AqCjg.s:169    .text.bcwl_adv_mgr_evt_hdlr:0000000000000054 .L0 
C:\Users\stapi\AppData\Local\Temp\cc3AqCjg.s:170    .text.bcwl_adv_mgr_evt_hdlr:0000000000000054 .L0 
C:\Users\stapi\AppData\Local\Temp\cc3AqCjg.s:172    .text.bcwl_adv_mgr_evt_hdlr:0000000000000058 .L0 
C:\Users\stapi\AppData\Local\Temp\cc3AqCjg.s:175    .text.bcwl_adv_mgr_evt_hdlr:000000000000005e .L0 
C:\Users\stapi\AppData\Local\Temp\cc3AqCjg.s:176    .text.bcwl_adv_mgr_evt_hdlr:000000000000005e .L0 
C:\Users\stapi\AppData\Local\Temp\cc3AqCjg.s:180    .text.bcwl_adv_mgr_evt_hdlr:0000000000000062 .L0 
C:\Users\stapi\AppData\Local\Temp\cc3AqCjg.s:188    .text.bcwl_adv_mgr_evt_hdlr:000000000000006a .L0 
C:\Users\stapi\AppData\Local\Temp\cc3AqCjg.s:192    .text.bcwl_adv_mgr_evt_hdlr:000000000000006e .L0 
C:\Users\stapi\AppData\Local\Temp\cc3AqCjg.s:193    .text.bcwl_adv_mgr_evt_hdlr:000000000000006e .L0 
C:\Users\stapi\AppData\Local\Temp\cc3AqCjg.s:194    .text.bcwl_adv_mgr_evt_hdlr:000000000000006e .L0 
C:\Users\stapi\AppData\Local\Temp\cc3AqCjg.s:195    .text.bcwl_adv_mgr_evt_hdlr:000000000000006e .L0 
C:\Users\stapi\AppData\Local\Temp\cc3AqCjg.s:196    .text.bcwl_adv_mgr_evt_hdlr:000000000000006e .L0 
C:\Users\stapi\AppData\Local\Temp\cc3AqCjg.s:197    .text.bcwl_adv_mgr_evt_hdlr:000000000000006e .L0 
C:\Users\stapi\AppData\Local\Temp\cc3AqCjg.s:199    .text.bcwl_adv_mgr_evt_hdlr:000000000000006e .L0 
C:\Users\stapi\AppData\Local\Temp\cc3AqCjg.s:200    .text.bcwl_adv_mgr_evt_hdlr:000000000000006e .L0 
C:\Users\stapi\AppData\Local\Temp\cc3AqCjg.s:203    .text.bcwl_adv_mgr_evt_hdlr:0000000000000076 .L0 
C:\Users\stapi\AppData\Local\Temp\cc3AqCjg.s:204    .text.bcwl_adv_mgr_evt_hdlr:0000000000000076 .L0 
C:\Users\stapi\AppData\Local\Temp\cc3AqCjg.s:205    .text.bcwl_adv_mgr_evt_hdlr:0000000000000076 .L0 
C:\Users\stapi\AppData\Local\Temp\cc3AqCjg.s:206    .text.bcwl_adv_mgr_evt_hdlr:0000000000000076 .L0 
C:\Users\stapi\AppData\Local\Temp\cc3AqCjg.s:207    .text.bcwl_adv_mgr_evt_hdlr:0000000000000076 .L0 
C:\Users\stapi\AppData\Local\Temp\cc3AqCjg.s:208    .text.bcwl_adv_mgr_evt_hdlr:0000000000000076 .L0 
C:\Users\stapi\AppData\Local\Temp\cc3AqCjg.s:209    .text.bcwl_adv_mgr_evt_hdlr:0000000000000076 .L0 
C:\Users\stapi\AppData\Local\Temp\cc3AqCjg.s:210    .text.bcwl_adv_mgr_evt_hdlr:0000000000000076 .L0 
C:\Users\stapi\AppData\Local\Temp\cc3AqCjg.s:214    .text.bcwl_adv_mgr_evt_hdlr:0000000000000080 .L0 
C:\Users\stapi\AppData\Local\Temp\cc3AqCjg.s:218    .text.bcwl_adv_mgr_evt_hdlr:0000000000000088 .L0 
C:\Users\stapi\AppData\Local\Temp\cc3AqCjg.s:221    .text.bcwl_adv_mgr_evt_hdlr:000000000000008e .L0 
C:\Users\stapi\AppData\Local\Temp\cc3AqCjg.s:222    .text.bcwl_adv_mgr_evt_hdlr:000000000000008e .L0 
C:\Users\stapi\AppData\Local\Temp\cc3AqCjg.s:225    .text.bcwl_adv_mgr_evt_hdlr:0000000000000094 .L0 
C:\Users\stapi\AppData\Local\Temp\cc3AqCjg.s:226    .text.bcwl_adv_mgr_evt_hdlr:0000000000000094 .L0 
C:\Users\stapi\AppData\Local\Temp\cc3AqCjg.s:228    .text.bcwl_adv_mgr_evt_hdlr:0000000000000098 .L0 
C:\Users\stapi\AppData\Local\Temp\cc3AqCjg.s:231    .text.bcwl_adv_mgr_evt_hdlr:000000000000009e .L0 
C:\Users\stapi\AppData\Local\Temp\cc3AqCjg.s:234    .text.bcwl_adv_mgr_evt_hdlr:00000000000000a4 .L0 
C:\Users\stapi\AppData\Local\Temp\cc3AqCjg.s:236    .text.bcwl_adv_mgr_evt_hdlr:00000000000000a6 .L0 
C:\Users\stapi\AppData\Local\Temp\cc3AqCjg.s:238    .text.bcwl_adv_mgr_evt_hdlr:00000000000000a8 .L0 
C:\Users\stapi\AppData\Local\Temp\cc3AqCjg.s:241    .text.bcwl_adv_mgr_evt_hdlr:00000000000000ac .L0 
C:\Users\stapi\AppData\Local\Temp\cc3AqCjg.s:243    .text.bcwl_adv_mgr_evt_hdlr:00000000000000ae .L0 
C:\Users\stapi\AppData\Local\Temp\cc3AqCjg.s:244    .text.bcwl_adv_mgr_evt_hdlr:00000000000000ae .L0 
C:\Users\stapi\AppData\Local\Temp\cc3AqCjg.s:245    .text.bcwl_adv_mgr_evt_hdlr:00000000000000ae .L0 
C:\Users\stapi\AppData\Local\Temp\cc3AqCjg.s:246    .text.bcwl_adv_mgr_evt_hdlr:00000000000000ae .L0 
C:\Users\stapi\AppData\Local\Temp\cc3AqCjg.s:248    .text.bcwl_adv_mgr_evt_hdlr:00000000000000b2 .L0 
C:\Users\stapi\AppData\Local\Temp\cc3AqCjg.s:249    .text.bcwl_adv_mgr_evt_hdlr:00000000000000b2 .L0 
C:\Users\stapi\AppData\Local\Temp\cc3AqCjg.s:251    .text.bcwl_adv_mgr_evt_hdlr:00000000000000b4 .L0 
C:\Users\stapi\AppData\Local\Temp\cc3AqCjg.s:252    .text.bcwl_adv_mgr_evt_hdlr:00000000000000b4 .L0 
C:\Users\stapi\AppData\Local\Temp\cc3AqCjg.s:254    .text.bcwl_adv_mgr_evt_hdlr:00000000000000b8 .L0 
C:\Users\stapi\AppData\Local\Temp\cc3AqCjg.s:255    .text.bcwl_adv_mgr_evt_hdlr:00000000000000b8 .L0 
C:\Users\stapi\AppData\Local\Temp\cc3AqCjg.s:257    .text.bcwl_adv_mgr_evt_hdlr:00000000000000ba .L0 
C:\Users\stapi\AppData\Local\Temp\cc3AqCjg.s:258    .text.bcwl_adv_mgr_evt_hdlr:00000000000000ba .L0 
C:\Users\stapi\AppData\Local\Temp\cc3AqCjg.s:267    .text.bcwl_adv_mgr_evt_hdlr:00000000000000c2 .L0 
C:\Users\stapi\AppData\Local\Temp\cc3AqCjg.s:268    .text.bcwl_adv_mgr_evt_hdlr:00000000000000c4 .L0 
C:\Users\stapi\AppData\Local\Temp\cc3AqCjg.s:269    .text.bcwl_adv_mgr_evt_hdlr:00000000000000c4 .L0 
C:\Users\stapi\AppData\Local\Temp\cc3AqCjg.s:271    .text.bcwl_adv_mgr_evt_hdlr:00000000000000cc .L0 
C:\Users\stapi\AppData\Local\Temp\cc3AqCjg.s:272    .text.bcwl_adv_mgr_evt_hdlr:00000000000000cc .L0 
C:\Users\stapi\AppData\Local\Temp\cc3AqCjg.s:273    .text.bcwl_adv_mgr_evt_hdlr:00000000000000cc .L0 
C:\Users\stapi\AppData\Local\Temp\cc3AqCjg.s:274    .text.bcwl_adv_mgr_evt_hdlr:00000000000000cc .L0 
C:\Users\stapi\AppData\Local\Temp\cc3AqCjg.s:275    .text.bcwl_adv_mgr_evt_hdlr:00000000000000cc .L0 
C:\Users\stapi\AppData\Local\Temp\cc3AqCjg.s:278    .text.bcwl_adv_mgr_evt_hdlr:00000000000000cc .L0 
C:\Users\stapi\AppData\Local\Temp\cc3AqCjg.s:283    .text.bcwl_adv_mgr_evt_hdlr:00000000000000cc .L0 
C:\Users\stapi\AppData\Local\Temp\cc3AqCjg.s:284    .text.bcwl_adv_mgr_evt_hdlr:00000000000000cc .L0 
C:\Users\stapi\AppData\Local\Temp\cc3AqCjg.s:287    .text.bcwl_adv_mgr_evt_hdlr:00000000000000d2 .L0 
C:\Users\stapi\AppData\Local\Temp\cc3AqCjg.s:288    .text.bcwl_adv_mgr_evt_hdlr:00000000000000d2 .L0 
C:\Users\stapi\AppData\Local\Temp\cc3AqCjg.s:291    .text.bcwl_adv_mgr_evt_hdlr:00000000000000d8 .L0 
C:\Users\stapi\AppData\Local\Temp\cc3AqCjg.s:295    .text.bcwl_adv_mgr_evt_hdlr:00000000000000e4 .L0 
C:\Users\stapi\AppData\Local\Temp\cc3AqCjg.s:296    .text.bcwl_adv_mgr_evt_hdlr:00000000000000e4 .L0 
C:\Users\stapi\AppData\Local\Temp\cc3AqCjg.s:300    .text.bcwl_adv_mgr_evt_hdlr:00000000000000ea .L0 
C:\Users\stapi\AppData\Local\Temp\cc3AqCjg.s:301    .text.bcwl_adv_mgr_evt_hdlr:00000000000000ea .L0 
C:\Users\stapi\AppData\Local\Temp\cc3AqCjg.s:304    .text.bcwl_adv_mgr_evt_hdlr:00000000000000f0 .L0 
C:\Users\stapi\AppData\Local\Temp\cc3AqCjg.s:306    .text.bcwl_adv_mgr_evt_hdlr:00000000000000f2 .L0 
C:\Users\stapi\AppData\Local\Temp\cc3AqCjg.s:309    .text.bcwl_adv_mgr_evt_hdlr:00000000000000f8 .L0 
C:\Users\stapi\AppData\Local\Temp\cc3AqCjg.s:314    .text.bcwl_adv_mgr_evt_hdlr:0000000000000108 .L0 
C:\Users\stapi\AppData\Local\Temp\cc3AqCjg.s:315    .text.bcwl_adv_mgr_evt_hdlr:0000000000000108 .L0 
C:\Users\stapi\AppData\Local\Temp\cc3AqCjg.s:321    .text.bcwl_adv_mgr_evt_hdlr:000000000000010c .L0 
C:\Users\stapi\AppData\Local\Temp\cc3AqCjg.s:324    .text.bcwl_adv_mgr_evt_hdlr:000000000000010e .L0 
C:\Users\stapi\AppData\Local\Temp\cc3AqCjg.s:325    .text.bcwl_adv_mgr_evt_hdlr:000000000000010e .L0 
C:\Users\stapi\AppData\Local\Temp\cc3AqCjg.s:326    .text.bcwl_adv_mgr_evt_hdlr:000000000000010e .L0 
C:\Users\stapi\AppData\Local\Temp\cc3AqCjg.s:327    .text.bcwl_adv_mgr_evt_hdlr:000000000000010e .L0 
C:\Users\stapi\AppData\Local\Temp\cc3AqCjg.s:328    .text.bcwl_adv_mgr_evt_hdlr:000000000000010e .L0 
C:\Users\stapi\AppData\Local\Temp\cc3AqCjg.s:330    .text.bcwl_adv_mgr_evt_hdlr:0000000000000110 .L0 
C:\Users\stapi\AppData\Local\Temp\cc3AqCjg.s:347    .text.bcwl_send:0000000000000000 bcwl_send
C:\Users\stapi\AppData\Local\Temp\cc3AqCjg.s:350    .text.bcwl_send:0000000000000000 .L0 
C:\Users\stapi\AppData\Local\Temp\cc3AqCjg.s:352    .text.bcwl_send:0000000000000000 .L0 
C:\Users\stapi\AppData\Local\Temp\cc3AqCjg.s:353    .text.bcwl_send:0000000000000008 .L0 
C:\Users\stapi\AppData\Local\Temp\cc3AqCjg.s:354    .text.bcwl_send:0000000000000008 .L0 
C:\Users\stapi\AppData\Local\Temp\cc3AqCjg.s:355    .text.bcwl_send:0000000000000008 .L0 
C:\Users\stapi\AppData\Local\Temp\cc3AqCjg.s:356    .text.bcwl_send:0000000000000008 .L0 
C:\Users\stapi\AppData\Local\Temp\cc3AqCjg.s:357    .text.bcwl_send:0000000000000008 .L0 
C:\Users\stapi\AppData\Local\Temp\cc3AqCjg.s:358    .text.bcwl_send:0000000000000008 .L0 
C:\Users\stapi\AppData\Local\Temp\cc3AqCjg.s:359    .text.bcwl_send:0000000000000008 .L0 
C:\Users\stapi\AppData\Local\Temp\cc3AqCjg.s:360    .text.bcwl_send:0000000000000008 .L0 
C:\Users\stapi\AppData\Local\Temp\cc3AqCjg.s:361    .text.bcwl_send:0000000000000008 .L0 
C:\Users\stapi\AppData\Local\Temp\cc3AqCjg.s:362    .text.bcwl_send:0000000000000008 .L0 
C:\Users\stapi\AppData\Local\Temp\cc3AqCjg.s:363    .text.bcwl_send:0000000000000008 .L0 
C:\Users\stapi\AppData\Local\Temp\cc3AqCjg.s:364    .text.bcwl_send:0000000000000008 .L0 
C:\Users\stapi\AppData\Local\Temp\cc3AqCjg.s:365    .text.bcwl_send:0000000000000008 .L0 
C:\Users\stapi\AppData\Local\Temp\cc3AqCjg.s:366    .text.bcwl_send:0000000000000008 .L0 
C:\Users\stapi\AppData\Local\Temp\cc3AqCjg.s:368    .text.bcwl_send:0000000000000008 .L0 
C:\Users\stapi\AppData\Local\Temp\cc3AqCjg.s:370    .text.bcwl_send:0000000000000008 .L0 
C:\Users\stapi\AppData\Local\Temp\cc3AqCjg.s:371    .text.bcwl_send:0000000000000008 .L0 
C:\Users\stapi\AppData\Local\Temp\cc3AqCjg.s:372    .text.bcwl_send:0000000000000008 .L0 
C:\Users\stapi\AppData\Local\Temp\cc3AqCjg.s:373    .text.bcwl_send:0000000000000008 .L0 
C:\Users\stapi\AppData\Local\Temp\cc3AqCjg.s:376    .text.bcwl_send:0000000000000010 .L0 
C:\Users\stapi\AppData\Local\Temp\cc3AqCjg.s:387    .text.bcwl_send:0000000000000028 .L0 
C:\Users\stapi\AppData\Local\Temp\cc3AqCjg.s:391    .text.bcwl_send:000000000000002c .L0 
C:\Users\stapi\AppData\Local\Temp\cc3AqCjg.s:393    .text.bcwl_send:0000000000000030 .L0 
C:\Users\stapi\AppData\Local\Temp\cc3AqCjg.s:402    .text.bcwl_send:0000000000000040 .L0 
C:\Users\stapi\AppData\Local\Temp\cc3AqCjg.s:404    .text.bcwl_send:0000000000000042 .L0 
C:\Users\stapi\AppData\Local\Temp\cc3AqCjg.s:405    .text.bcwl_send:0000000000000042 .L0 
C:\Users\stapi\AppData\Local\Temp\cc3AqCjg.s:407    .text.bcwl_send:0000000000000046 .L0 
C:\Users\stapi\AppData\Local\Temp\cc3AqCjg.s:409    .text.bcwl_send:000000000000004a .L0 
C:\Users\stapi\AppData\Local\Temp\cc3AqCjg.s:410    .text.bcwl_send:000000000000004a .L0 
C:\Users\stapi\AppData\Local\Temp\cc3AqCjg.s:416    .text.bcwl_send:0000000000000056 .L0 
C:\Users\stapi\AppData\Local\Temp\cc3AqCjg.s:417    .text.bcwl_send:0000000000000056 .L0 
C:\Users\stapi\AppData\Local\Temp\cc3AqCjg.s:420    .text.bcwl_send:0000000000000058 .L0 
C:\Users\stapi\AppData\Local\Temp\cc3AqCjg.s:421    .text.bcwl_send:0000000000000058 .L0 
C:\Users\stapi\AppData\Local\Temp\cc3AqCjg.s:425    .text.bcwl_send:0000000000000062 .L0 
C:\Users\stapi\AppData\Local\Temp\cc3AqCjg.s:433    .text.bcwl_send:000000000000007a .L0 
C:\Users\stapi\AppData\Local\Temp\cc3AqCjg.s:434    .text.bcwl_send:000000000000007a .L0 
C:\Users\stapi\AppData\Local\Temp\cc3AqCjg.s:645    .text.bcwl_error_report:0000000000000000 bcwl_error_report
C:\Users\stapi\AppData\Local\Temp\cc3AqCjg.s:438    .text.bcwl_send:0000000000000084 .L0 
C:\Users\stapi\AppData\Local\Temp\cc3AqCjg.s:444    .text.bcwl_send:0000000000000086 .L0 
C:\Users\stapi\AppData\Local\Temp\cc3AqCjg.s:445    .text.bcwl_send:0000000000000086 .L0 
C:\Users\stapi\AppData\Local\Temp\cc3AqCjg.s:449    .text.bcwl_send:0000000000000090 .L0 
C:\Users\stapi\AppData\Local\Temp\cc3AqCjg.s:459    .text.bcwl_send:00000000000000a8 .L0 
C:\Users\stapi\AppData\Local\Temp\cc3AqCjg.s:460    .text.bcwl_send:00000000000000b0 .L0 
C:\Users\stapi\AppData\Local\Temp\cc3AqCjg.s:461    .text.bcwl_send:00000000000000b0 .L0 
C:\Users\stapi\AppData\Local\Temp\cc3AqCjg.s:462    .text.bcwl_send:00000000000000b0 .L0 
C:\Users\stapi\AppData\Local\Temp\cc3AqCjg.s:463    .text.bcwl_send:00000000000000b0 .L0 
C:\Users\stapi\AppData\Local\Temp\cc3AqCjg.s:464    .text.bcwl_send:00000000000000b0 .L0 
C:\Users\stapi\AppData\Local\Temp\cc3AqCjg.s:465    .text.bcwl_send:00000000000000b0 .L0 
C:\Users\stapi\AppData\Local\Temp\cc3AqCjg.s:466    .text.bcwl_send:00000000000000b0 .L0 
C:\Users\stapi\AppData\Local\Temp\cc3AqCjg.s:467    .text.bcwl_send:00000000000000b0 .L0 
C:\Users\stapi\AppData\Local\Temp\cc3AqCjg.s:468    .text.bcwl_send:00000000000000b0 .L0 
C:\Users\stapi\AppData\Local\Temp\cc3AqCjg.s:469    .text.bcwl_send:00000000000000b0 .L0 
C:\Users\stapi\AppData\Local\Temp\cc3AqCjg.s:470    .text.bcwl_send:00000000000000b0 .L0 
C:\Users\stapi\AppData\Local\Temp\cc3AqCjg.s:471    .text.bcwl_send:00000000000000b0 .L0 
C:\Users\stapi\AppData\Local\Temp\cc3AqCjg.s:472    .text.bcwl_send:00000000000000b0 .L0 
C:\Users\stapi\AppData\Local\Temp\cc3AqCjg.s:473    .text.bcwl_send:00000000000000b0 .L0 
C:\Users\stapi\AppData\Local\Temp\cc3AqCjg.s:474    .text.bcwl_send:00000000000000b0 .L0 
C:\Users\stapi\AppData\Local\Temp\cc3AqCjg.s:477    .text.bcwl_send:00000000000000b0 .L0 
C:\Users\stapi\AppData\Local\Temp\cc3AqCjg.s:481    .text.bcwl_send:00000000000000b0 .L0 
C:\Users\stapi\AppData\Local\Temp\cc3AqCjg.s:482    .text.bcwl_send:00000000000000b0 .L0 
C:\Users\stapi\AppData\Local\Temp\cc3AqCjg.s:484    .text.bcwl_send:00000000000000b4 .L0 
C:\Users\stapi\AppData\Local\Temp\cc3AqCjg.s:485    .text.bcwl_send:00000000000000b4 .L0 
C:\Users\stapi\AppData\Local\Temp\cc3AqCjg.s:487    .text.bcwl_send:00000000000000b8 .L0 
C:\Users\stapi\AppData\Local\Temp\cc3AqCjg.s:489    .text.bcwl_send:00000000000000bc .L0 
C:\Users\stapi\AppData\Local\Temp\cc3AqCjg.s:491    .text.bcwl_send:00000000000000be .L0 
C:\Users\stapi\AppData\Local\Temp\cc3AqCjg.s:493    .text.bcwl_send:00000000000000c2 .L0 
C:\Users\stapi\AppData\Local\Temp\cc3AqCjg.s:494    .text.bcwl_send:00000000000000c2 .L0 
C:\Users\stapi\AppData\Local\Temp\cc3AqCjg.s:496    .text.bcwl_send:00000000000000c6 .L0 
C:\Users\stapi\AppData\Local\Temp\cc3AqCjg.s:497    .text.bcwl_send:00000000000000c6 .L0 
C:\Users\stapi\AppData\Local\Temp\cc3AqCjg.s:500    .text.bcwl_send:00000000000000cc .L0 
C:\Users\stapi\AppData\Local\Temp\cc3AqCjg.s:501    .text.bcwl_send:00000000000000cc .L0 
C:\Users\stapi\AppData\Local\Temp\cc3AqCjg.s:503    .text.bcwl_send:00000000000000d0 .L0 
C:\Users\stapi\AppData\Local\Temp\cc3AqCjg.s:504    .text.bcwl_send:00000000000000d0 .L0 
C:\Users\stapi\AppData\Local\Temp\cc3AqCjg.s:506    .text.bcwl_send:00000000000000d4 .L0 
C:\Users\stapi\AppData\Local\Temp\cc3AqCjg.s:511    .text.bcwl_send:00000000000000e0 .L0 
C:\Users\stapi\AppData\Local\Temp\cc3AqCjg.s:512    .text.bcwl_send:00000000000000e0 .L0 
C:\Users\stapi\AppData\Local\Temp\cc3AqCjg.s:515    .text.bcwl_send:00000000000000e4 .L0 
C:\Users\stapi\AppData\Local\Temp\cc3AqCjg.s:518    .text.bcwl_send:00000000000000e8 .L0 
C:\Users\stapi\AppData\Local\Temp\cc3AqCjg.s:520    .text.bcwl_send:00000000000000ec .L0 
C:\Users\stapi\AppData\Local\Temp\cc3AqCjg.s:522    .text.bcwl_send:00000000000000f0 .L0 
C:\Users\stapi\AppData\Local\Temp\cc3AqCjg.s:525    .text.bcwl_send:00000000000000f6 .L0 
C:\Users\stapi\AppData\Local\Temp\cc3AqCjg.s:528    .text.bcwl_send:00000000000000fe .L0 
C:\Users\stapi\AppData\Local\Temp\cc3AqCjg.s:530    .text.bcwl_send:0000000000000102 .L0 
C:\Users\stapi\AppData\Local\Temp\cc3AqCjg.s:532    .text.bcwl_send:0000000000000106 .L0 
C:\Users\stapi\AppData\Local\Temp\cc3AqCjg.s:535    .text.bcwl_send:000000000000010a .L0 
C:\Users\stapi\AppData\Local\Temp\cc3AqCjg.s:536    .text.bcwl_send:000000000000010a .L0 
C:\Users\stapi\AppData\Local\Temp\cc3AqCjg.s:537    .text.bcwl_send:000000000000010a .L0 
C:\Users\stapi\AppData\Local\Temp\cc3AqCjg.s:538    .text.bcwl_send:000000000000010a .L0 
C:\Users\stapi\AppData\Local\Temp\cc3AqCjg.s:542    .text.bcwl_send:0000000000000114 .L0 
C:\Users\stapi\AppData\Local\Temp\cc3AqCjg.s:543    .text.bcwl_send:0000000000000114 .L0 
C:\Users\stapi\AppData\Local\Temp\cc3AqCjg.s:545    .text.bcwl_send:0000000000000118 .L0 
C:\Users\stapi\AppData\Local\Temp\cc3AqCjg.s:548    .text.bcwl_send:0000000000000120 .L0 
C:\Users\stapi\AppData\Local\Temp\cc3AqCjg.s:549    .text.bcwl_send:0000000000000120 .L0 
C:\Users\stapi\AppData\Local\Temp\cc3AqCjg.s:556    .text.bcwl_send:0000000000000126 .L0 
C:\Users\stapi\AppData\Local\Temp\cc3AqCjg.s:557    .text.bcwl_send:0000000000000126 .L0 
C:\Users\stapi\AppData\Local\Temp\cc3AqCjg.s:558    .text.bcwl_send:0000000000000126 .L0 
C:\Users\stapi\AppData\Local\Temp\cc3AqCjg.s:561    .text.bcwl_send:000000000000012c .L0 
C:\Users\stapi\AppData\Local\Temp\cc3AqCjg.s:562    .text.bcwl_send:000000000000012c .L0 
C:\Users\stapi\AppData\Local\Temp\cc3AqCjg.s:565    .text.bcwl_send:0000000000000132 .L0 
C:\Users\stapi\AppData\Local\Temp\cc3AqCjg.s:573    .text.bcwl_send:0000000000000142 .L0 
C:\Users\stapi\AppData\Local\Temp\cc3AqCjg.s:577    .text.bcwl_send:000000000000014c .L0 
C:\Users\stapi\AppData\Local\Temp\cc3AqCjg.s:581    .text.bcwl_send:000000000000014e .L0 
C:\Users\stapi\AppData\Local\Temp\cc3AqCjg.s:582    .text.bcwl_send:000000000000014e .L0 
C:\Users\stapi\AppData\Local\Temp\cc3AqCjg.s:589    .text.bcwl_send:0000000000000160 .L0 
C:\Users\stapi\AppData\Local\Temp\cc3AqCjg.s:590    .text.bcwl_send:0000000000000160 .L0 
C:\Users\stapi\AppData\Local\Temp\cc3AqCjg.s:592    .text.bcwl_send:0000000000000164 .L0 
C:\Users\stapi\AppData\Local\Temp\cc3AqCjg.s:593    .text.bcwl_send:0000000000000164 .L0 
C:\Users\stapi\AppData\Local\Temp\cc3AqCjg.s:599    .text.bcwl_send:0000000000000170 .L0 
C:\Users\stapi\AppData\Local\Temp\cc3AqCjg.s:601    .text.bcwl_send:0000000000000174 .L0 
C:\Users\stapi\AppData\Local\Temp\cc3AqCjg.s:603    .text.bcwl_send:0000000000000178 .L0 
C:\Users\stapi\AppData\Local\Temp\cc3AqCjg.s:604    .text.bcwl_send:0000000000000178 .L0 
C:\Users\stapi\AppData\Local\Temp\cc3AqCjg.s:606    .text.bcwl_send:000000000000017c .L0 
C:\Users\stapi\AppData\Local\Temp\cc3AqCjg.s:613    .text.bcwl_send:000000000000018c .L0 
C:\Users\stapi\AppData\Local\Temp\cc3AqCjg.s:614    .text.bcwl_send:000000000000018c .L0 
C:\Users\stapi\AppData\Local\Temp\cc3AqCjg.s:616    .text.bcwl_send:0000000000000190 .L0 
C:\Users\stapi\AppData\Local\Temp\cc3AqCjg.s:624    .text.bcwl_send:0000000000000194 .L0 
C:\Users\stapi\AppData\Local\Temp\cc3AqCjg.s:638    .text.bcwl_send:00000000000001ae .L0 
C:\Users\stapi\AppData\Local\Temp\cc3AqCjg.s:648    .text.bcwl_error_report:0000000000000000 .L0 
C:\Users\stapi\AppData\Local\Temp\cc3AqCjg.s:650    .text.bcwl_error_report:0000000000000000 .L0 
C:\Users\stapi\AppData\Local\Temp\cc3AqCjg.s:651    .text.bcwl_error_report:0000000000000008 .L0 
C:\Users\stapi\AppData\Local\Temp\cc3AqCjg.s:652    .text.bcwl_error_report:0000000000000008 .L0 
C:\Users\stapi\AppData\Local\Temp\cc3AqCjg.s:654    .text.bcwl_error_report:0000000000000008 .L0 
C:\Users\stapi\AppData\Local\Temp\cc3AqCjg.s:655    .text.bcwl_error_report:0000000000000008 .L0 
C:\Users\stapi\AppData\Local\Temp\cc3AqCjg.s:656    .text.bcwl_error_report:000000000000000a .L0 
C:\Users\stapi\AppData\Local\Temp\cc3AqCjg.s:658    .text.bcwl_error_report:000000000000000a .L0 
C:\Users\stapi\AppData\Local\Temp\cc3AqCjg.s:660    .text.bcwl_error_report:000000000000000e .L0 
C:\Users\stapi\AppData\Local\Temp\cc3AqCjg.s:667    .text.bcwl_error_report:000000000000001e .L0 
C:\Users\stapi\AppData\Local\Temp\cc3AqCjg.s:668    .text.bcwl_error_report:0000000000000020 .L0 
C:\Users\stapi\AppData\Local\Temp\cc3AqCjg.s:670    .text.bcwl_error_report:0000000000000028 .L0 
C:\Users\stapi\AppData\Local\Temp\cc3AqCjg.s:671    .text.bcwl_error_report:0000000000000028 .L0 
C:\Users\stapi\AppData\Local\Temp\cc3AqCjg.s:672    .text.bcwl_error_report:0000000000000028 .L0 
C:\Users\stapi\AppData\Local\Temp\cc3AqCjg.s:679    .text.bcwl_send_ack:0000000000000000 bcwl_send_ack
C:\Users\stapi\AppData\Local\Temp\cc3AqCjg.s:682    .text.bcwl_send_ack:0000000000000000 .L0 
C:\Users\stapi\AppData\Local\Temp\cc3AqCjg.s:684    .text.bcwl_send_ack:0000000000000000 .L0 
C:\Users\stapi\AppData\Local\Temp\cc3AqCjg.s:685    .text.bcwl_send_ack:0000000000000008 .L0 
C:\Users\stapi\AppData\Local\Temp\cc3AqCjg.s:686    .text.bcwl_send_ack:0000000000000008 .L0 
C:\Users\stapi\AppData\Local\Temp\cc3AqCjg.s:688    .text.bcwl_send_ack:0000000000000008 .L0 
C:\Users\stapi\AppData\Local\Temp\cc3AqCjg.s:689    .text.bcwl_send_ack:0000000000000008 .L0 
C:\Users\stapi\AppData\Local\Temp\cc3AqCjg.s:690    .text.bcwl_send_ack:000000000000000a .L0 
C:\Users\stapi\AppData\Local\Temp\cc3AqCjg.s:692    .text.bcwl_send_ack:000000000000000a .L0 
C:\Users\stapi\AppData\Local\Temp\cc3AqCjg.s:694    .text.bcwl_send_ack:000000000000000e .L0 
C:\Users\stapi\AppData\Local\Temp\cc3AqCjg.s:701    .text.bcwl_send_ack:000000000000001e .L0 
C:\Users\stapi\AppData\Local\Temp\cc3AqCjg.s:702    .text.bcwl_send_ack:0000000000000020 .L0 
C:\Users\stapi\AppData\Local\Temp\cc3AqCjg.s:704    .text.bcwl_send_ack:0000000000000028 .L0 
C:\Users\stapi\AppData\Local\Temp\cc3AqCjg.s:705    .text.bcwl_send_ack:0000000000000028 .L0 
C:\Users\stapi\AppData\Local\Temp\cc3AqCjg.s:706    .text.bcwl_send_ack:0000000000000028 .L0 
C:\Users\stapi\AppData\Local\Temp\cc3AqCjg.s:720    .text.bcwl_handle_mgmt_handshake:0000000000000000 bcwl_handle_mgmt_handshake
C:\Users\stapi\AppData\Local\Temp\cc3AqCjg.s:723    .text.bcwl_handle_mgmt_handshake:0000000000000000 .L0 
C:\Users\stapi\AppData\Local\Temp\cc3AqCjg.s:725    .text.bcwl_handle_mgmt_handshake:0000000000000000 .L0 
C:\Users\stapi\AppData\Local\Temp\cc3AqCjg.s:726    .text.bcwl_handle_mgmt_handshake:0000000000000008 .L0 
C:\Users\stapi\AppData\Local\Temp\cc3AqCjg.s:727    .text.bcwl_handle_mgmt_handshake:0000000000000008 .L0 
C:\Users\stapi\AppData\Local\Temp\cc3AqCjg.s:728    .text.bcwl_handle_mgmt_handshake:0000000000000008 .L0 
C:\Users\stapi\AppData\Local\Temp\cc3AqCjg.s:729    .text.bcwl_handle_mgmt_handshake:0000000000000008 .L0 
C:\Users\stapi\AppData\Local\Temp\cc3AqCjg.s:730    .text.bcwl_handle_mgmt_handshake:0000000000000008 .L0 
C:\Users\stapi\AppData\Local\Temp\cc3AqCjg.s:732    .text.bcwl_handle_mgmt_handshake:0000000000000008 .L0 
C:\Users\stapi\AppData\Local\Temp\cc3AqCjg.s:733    .text.bcwl_handle_mgmt_handshake:0000000000000008 .L0 
C:\Users\stapi\AppData\Local\Temp\cc3AqCjg.s:735    .text.bcwl_handle_mgmt_handshake:0000000000000008 .L0 
C:\Users\stapi\AppData\Local\Temp\cc3AqCjg.s:736    .text.bcwl_handle_mgmt_handshake:0000000000000008 .L0 
C:\Users\stapi\AppData\Local\Temp\cc3AqCjg.s:737    .text.bcwl_handle_mgmt_handshake:0000000000000008 .L0 
C:\Users\stapi\AppData\Local\Temp\cc3AqCjg.s:739    .text.bcwl_handle_mgmt_handshake:000000000000000a .L0 
C:\Users\stapi\AppData\Local\Temp\cc3AqCjg.s:740    .text.bcwl_handle_mgmt_handshake:000000000000000c .L0 
C:\Users\stapi\AppData\Local\Temp\cc3AqCjg.s:743    .text.bcwl_handle_mgmt_handshake:0000000000000010 .L0 
C:\Users\stapi\AppData\Local\Temp\cc3AqCjg.s:745    .text.bcwl_handle_mgmt_handshake:0000000000000014 .L0 
C:\Users\stapi\AppData\Local\Temp\cc3AqCjg.s:746    .text.bcwl_handle_mgmt_handshake:0000000000000014 .L0 
C:\Users\stapi\AppData\Local\Temp\cc3AqCjg.s:750    .text.bcwl_handle_mgmt_handshake:000000000000001c .L0 
C:\Users\stapi\AppData\Local\Temp\cc3AqCjg.s:760    .text.bcwl_handle_mgmt_handshake:0000000000000034 .L0 
C:\Users\stapi\AppData\Local\Temp\cc3AqCjg.s:761    .text.bcwl_handle_mgmt_handshake:0000000000000034 .L0 
C:\Users\stapi\AppData\Local\Temp\cc3AqCjg.s:766    .text.bcwl_handle_mgmt_handshake:000000000000003e .L0 
C:\Users\stapi\AppData\Local\Temp\cc3AqCjg.s:767    .text.bcwl_handle_mgmt_handshake:000000000000003e .L0 
C:\Users\stapi\AppData\Local\Temp\cc3AqCjg.s:768    .text.bcwl_handle_mgmt_handshake:0000000000000040 .L0 
C:\Users\stapi\AppData\Local\Temp\cc3AqCjg.s:769    .text.bcwl_handle_mgmt_handshake:0000000000000040 .L0 
C:\Users\stapi\AppData\Local\Temp\cc3AqCjg.s:771    .text.bcwl_handle_mgmt_handshake:0000000000000048 .L0 
C:\Users\stapi\AppData\Local\Temp\cc3AqCjg.s:772    .text.bcwl_handle_mgmt_handshake:0000000000000048 .L0 
C:\Users\stapi\AppData\Local\Temp\cc3AqCjg.s:773    .text.bcwl_handle_mgmt_handshake:0000000000000048 .L0 
C:\Users\stapi\AppData\Local\Temp\cc3AqCjg.s:774    .text.bcwl_handle_mgmt_handshake:0000000000000048 .L0 
C:\Users\stapi\AppData\Local\Temp\cc3AqCjg.s:775    .text.bcwl_handle_mgmt_handshake:0000000000000048 .L0 
C:\Users\stapi\AppData\Local\Temp\cc3AqCjg.s:778    .text.bcwl_handle_mgmt_handshake:0000000000000048 .L0 
C:\Users\stapi\AppData\Local\Temp\cc3AqCjg.s:782    .text.bcwl_handle_mgmt_handshake:0000000000000048 .L0 
C:\Users\stapi\AppData\Local\Temp\cc3AqCjg.s:787    .text.bcwl_handle_mgmt_handshake:0000000000000052 .L0 
C:\Users\stapi\AppData\Local\Temp\cc3AqCjg.s:797    .text.bcwl_handle_mgmt_handshake:0000000000000062 .L0 
C:\Users\stapi\AppData\Local\Temp\cc3AqCjg.s:802    .text.bcwl_handle_mgmt_handshake:0000000000000062 .L0 
C:\Users\stapi\AppData\Local\Temp\cc3AqCjg.s:805    .text.bcwl_handle_mgmt_handshake:0000000000000062 .L0 
C:\Users\stapi\AppData\Local\Temp\cc3AqCjg.s:806    .text.bcwl_handle_mgmt_handshake:0000000000000062 .L0 
C:\Users\stapi\AppData\Local\Temp\cc3AqCjg.s:811    .text.bcwl_handle_mgmt_handshake:0000000000000066 .L0 
C:\Users\stapi\AppData\Local\Temp\cc3AqCjg.s:815    .text.bcwl_handle_mgmt_handshake:000000000000006a .L0 
C:\Users\stapi\AppData\Local\Temp\cc3AqCjg.s:819    .text.bcwl_handle_mgmt_handshake:000000000000006e .L0 
C:\Users\stapi\AppData\Local\Temp\cc3AqCjg.s:824    .text.bcwl_handle_mgmt_handshake:0000000000000072 .L0 
C:\Users\stapi\AppData\Local\Temp\cc3AqCjg.s:826    .text.bcwl_handle_mgmt_handshake:0000000000000076 .L0 
C:\Users\stapi\AppData\Local\Temp\cc3AqCjg.s:830    .text.bcwl_handle_mgmt_handshake:000000000000007a .L0 
C:\Users\stapi\AppData\Local\Temp\cc3AqCjg.s:835    .text.bcwl_handle_mgmt_handshake:000000000000007e .L0 
C:\Users\stapi\AppData\Local\Temp\cc3AqCjg.s:837    .text.bcwl_handle_mgmt_handshake:0000000000000082 .L0 
C:\Users\stapi\AppData\Local\Temp\cc3AqCjg.s:839    .text.bcwl_handle_mgmt_handshake:0000000000000086 .L0 
C:\Users\stapi\AppData\Local\Temp\cc3AqCjg.s:843    .text.bcwl_handle_mgmt_handshake:0000000000000086 .L0 
C:\Users\stapi\AppData\Local\Temp\cc3AqCjg.s:846    .text.bcwl_handle_mgmt_handshake:0000000000000086 .L0 
C:\Users\stapi\AppData\Local\Temp\cc3AqCjg.s:847    .text.bcwl_handle_mgmt_handshake:0000000000000086 .L0 
C:\Users\stapi\AppData\Local\Temp\cc3AqCjg.s:849    .text.bcwl_handle_mgmt_handshake:0000000000000088 .L0 
C:\Users\stapi\AppData\Local\Temp\cc3AqCjg.s:852    .text.bcwl_handle_mgmt_handshake:0000000000000090 .L0 
C:\Users\stapi\AppData\Local\Temp\cc3AqCjg.s:853    .text.bcwl_handle_mgmt_handshake:0000000000000090 .L0 
C:\Users\stapi\AppData\Local\Temp\cc3AqCjg.s:855    .text.bcwl_handle_mgmt_handshake:0000000000000094 .L0 
C:\Users\stapi\AppData\Local\Temp\cc3AqCjg.s:857    .text.bcwl_handle_mgmt_handshake:0000000000000098 .L0 
C:\Users\stapi\AppData\Local\Temp\cc3AqCjg.s:858    .text.bcwl_handle_mgmt_handshake:0000000000000098 .L0 
C:\Users\stapi\AppData\Local\Temp\cc3AqCjg.s:861    .text.bcwl_handle_mgmt_handshake:000000000000009e .L0 
C:\Users\stapi\AppData\Local\Temp\cc3AqCjg.s:862    .text.bcwl_handle_mgmt_handshake:000000000000009e .L0 
C:\Users\stapi\AppData\Local\Temp\cc3AqCjg.s:865    .text.bcwl_handle_mgmt_handshake:00000000000000a4 .L0 
C:\Users\stapi\AppData\Local\Temp\cc3AqCjg.s:873    .text.bcwl_handle_mgmt_handshake:00000000000000bc .L0 
C:\Users\stapi\AppData\Local\Temp\cc3AqCjg.s:874    .text.bcwl_handle_mgmt_handshake:00000000000000bc .L0 
C:\Users\stapi\AppData\Local\Temp\cc3AqCjg.s:882    .text.bcwl_handle_mgmt_handshake:00000000000000cc .L0 
C:\Users\stapi\AppData\Local\Temp\cc3AqCjg.s:893    .text.bcwl_msg_handler:0000000000000000 bcwl_msg_handler
C:\Users\stapi\AppData\Local\Temp\cc3AqCjg.s:896    .text.bcwl_msg_handler:0000000000000000 .L0 
C:\Users\stapi\AppData\Local\Temp\cc3AqCjg.s:898    .text.bcwl_msg_handler:0000000000000000 .L0 
C:\Users\stapi\AppData\Local\Temp\cc3AqCjg.s:899    .text.bcwl_msg_handler:0000000000000008 .L0 
C:\Users\stapi\AppData\Local\Temp\cc3AqCjg.s:900    .text.bcwl_msg_handler:0000000000000008 .L0 
C:\Users\stapi\AppData\Local\Temp\cc3AqCjg.s:902    .text.bcwl_msg_handler:0000000000000008 .L0 
C:\Users\stapi\AppData\Local\Temp\cc3AqCjg.s:903    .text.bcwl_msg_handler:0000000000000008 .L0 
C:\Users\stapi\AppData\Local\Temp\cc3AqCjg.s:905    .text.bcwl_msg_handler:000000000000000c .L0 
C:\Users\stapi\AppData\Local\Temp\cc3AqCjg.s:907    .text.bcwl_msg_handler:000000000000000e .L0 
C:\Users\stapi\AppData\Local\Temp\cc3AqCjg.s:912    .text.bcwl_msg_handler:0000000000000016 .L0 
C:\Users\stapi\AppData\Local\Temp\cc3AqCjg.s:913    .text.bcwl_msg_handler:0000000000000016 .L0 
C:\Users\stapi\AppData\Local\Temp\cc3AqCjg.s:917    .text.bcwl_msg_handler:0000000000000020 .L0 
C:\Users\stapi\AppData\Local\Temp\cc3AqCjg.s:929    .text.bcwl_msg_handler:000000000000003a .L0 
C:\Users\stapi\AppData\Local\Temp\cc3AqCjg.s:930    .text.bcwl_msg_handler:000000000000003a .L0 
C:\Users\stapi\AppData\Local\Temp\cc3AqCjg.s:934    .text.bcwl_msg_handler:0000000000000044 .L0 
C:\Users\stapi\AppData\Local\Temp\cc3AqCjg.s:938    .text.bcwl_msg_handler:0000000000000046 .L0 
C:\Users\stapi\AppData\Local\Temp\cc3AqCjg.s:946    .text.bcwl_msg_handler:0000000000000056 .L0 
C:\Users\stapi\AppData\Local\Temp\cc3AqCjg.s:947    .text.bcwl_msg_handler:000000000000005e .L0 
C:\Users\stapi\AppData\Local\Temp\cc3AqCjg.s:948    .text.bcwl_msg_handler:000000000000005e .L0 
C:\Users\stapi\AppData\Local\Temp\cc3AqCjg.s:949    .text.bcwl_msg_handler:000000000000005e .L0 
C:\Users\stapi\AppData\Local\Temp\cc3AqCjg.s:952    .text.bcwl_msg_handler:000000000000005e .L0 
C:\Users\stapi\AppData\Local\Temp\cc3AqCjg.s:956    .text.bcwl_msg_handler:0000000000000060 .L0 
C:\Users\stapi\AppData\Local\Temp\cc3AqCjg.s:961    .text.bcwl_msg_handler:000000000000006a .L0 
C:\Users\stapi\AppData\Local\Temp\cc3AqCjg.s:965    .text.bcwl_msg_handler:000000000000006c .L0 
C:\Users\stapi\AppData\Local\Temp\cc3AqCjg.s:970    .text.bcwl_msg_handler:0000000000000078 .L0 
C:\Users\stapi\AppData\Local\Temp\cc3AqCjg.s:971    .text.bcwl_msg_handler:000000000000007a .L0 
C:\Users\stapi\AppData\Local\Temp\cc3AqCjg.s:991    .text.bcwl_receive:0000000000000000 bcwl_receive
C:\Users\stapi\AppData\Local\Temp\cc3AqCjg.s:994    .text.bcwl_receive:0000000000000000 .L0 
C:\Users\stapi\AppData\Local\Temp\cc3AqCjg.s:996    .text.bcwl_receive:0000000000000000 .L0 
C:\Users\stapi\AppData\Local\Temp\cc3AqCjg.s:997    .text.bcwl_receive:0000000000000008 .L0 
C:\Users\stapi\AppData\Local\Temp\cc3AqCjg.s:998    .text.bcwl_receive:0000000000000008 .L0 
C:\Users\stapi\AppData\Local\Temp\cc3AqCjg.s:999    .text.bcwl_receive:0000000000000008 .L0 
C:\Users\stapi\AppData\Local\Temp\cc3AqCjg.s:1000   .text.bcwl_receive:0000000000000008 .L0 
C:\Users\stapi\AppData\Local\Temp\cc3AqCjg.s:1003   .text.bcwl_receive:0000000000000008 .L0 
C:\Users\stapi\AppData\Local\Temp\cc3AqCjg.s:1004   .text.bcwl_receive:0000000000000008 .L0 
C:\Users\stapi\AppData\Local\Temp\cc3AqCjg.s:1005   .text.bcwl_receive:0000000000000008 .L0 
C:\Users\stapi\AppData\Local\Temp\cc3AqCjg.s:1006   .text.bcwl_receive:0000000000000008 .L0 
C:\Users\stapi\AppData\Local\Temp\cc3AqCjg.s:1007   .text.bcwl_receive:0000000000000008 .L0 
C:\Users\stapi\AppData\Local\Temp\cc3AqCjg.s:1010   .text.bcwl_receive:000000000000000e .L0 
C:\Users\stapi\AppData\Local\Temp\cc3AqCjg.s:1011   .text.bcwl_receive:000000000000000e .L0 
C:\Users\stapi\AppData\Local\Temp\cc3AqCjg.s:1016   .text.bcwl_receive:000000000000001a .L0 
C:\Users\stapi\AppData\Local\Temp\cc3AqCjg.s:1026   .text.bcwl_receive:0000000000000032 .L0 
C:\Users\stapi\AppData\Local\Temp\cc3AqCjg.s:1027   .text.bcwl_receive:0000000000000032 .L0 
C:\Users\stapi\AppData\Local\Temp\cc3AqCjg.s:1032   .text.bcwl_receive:0000000000000034 .L0 
C:\Users\stapi\AppData\Local\Temp\cc3AqCjg.s:1038   .text.bcwl_receive:000000000000003c .L0 
C:\Users\stapi\AppData\Local\Temp\cc3AqCjg.s:1039   .text.bcwl_receive:000000000000003c .L0 
C:\Users\stapi\AppData\Local\Temp\cc3AqCjg.s:1040   .text.bcwl_receive:0000000000000044 .L0 
C:\Users\stapi\AppData\Local\Temp\cc3AqCjg.s:1041   .text.bcwl_receive:0000000000000044 .L0 
C:\Users\stapi\AppData\Local\Temp\cc3AqCjg.s:1042   .text.bcwl_receive:0000000000000044 .L0 
C:\Users\stapi\AppData\Local\Temp\cc3AqCjg.s:1043   .text.bcwl_receive:0000000000000044 .L0 
C:\Users\stapi\AppData\Local\Temp\cc3AqCjg.s:1044   .text.bcwl_receive:0000000000000044 .L0 
C:\Users\stapi\AppData\Local\Temp\cc3AqCjg.s:1047   .text.bcwl_receive:0000000000000044 .L0 
C:\Users\stapi\AppData\Local\Temp\cc3AqCjg.s:1051   .text.bcwl_receive:0000000000000044 .L0 
C:\Users\stapi\AppData\Local\Temp\cc3AqCjg.s:1054   .text.bcwl_receive:000000000000004c .L0 
C:\Users\stapi\AppData\Local\Temp\cc3AqCjg.s:1058   .text.bcwl_receive:0000000000000052 .L0 
C:\Users\stapi\AppData\Local\Temp\cc3AqCjg.s:1060   .text.bcwl_receive:0000000000000056 .L0 
C:\Users\stapi\AppData\Local\Temp\cc3AqCjg.s:1063   .text.bcwl_receive:0000000000000058 .L0 
C:\Users\stapi\AppData\Local\Temp\cc3AqCjg.s:1065   .text.bcwl_receive:000000000000005c .L0 
C:\Users\stapi\AppData\Local\Temp\cc3AqCjg.s:1067   .text.bcwl_receive:000000000000005e .L0 
C:\Users\stapi\AppData\Local\Temp\cc3AqCjg.s:1068   .text.bcwl_receive:000000000000005e .L0 
C:\Users\stapi\AppData\Local\Temp\cc3AqCjg.s:1072   .text.bcwl_receive:0000000000000068 .L0 
C:\Users\stapi\AppData\Local\Temp\cc3AqCjg.s:1081   .text.bcwl_receive:0000000000000080 .L0 
C:\Users\stapi\AppData\Local\Temp\cc3AqCjg.s:1082   .text.bcwl_receive:0000000000000080 .L0 
C:\Users\stapi\AppData\Local\Temp\cc3AqCjg.s:1087   .text.bcwl_receive:0000000000000084 .L0 
C:\Users\stapi\AppData\Local\Temp\cc3AqCjg.s:1088   .text.bcwl_receive:0000000000000084 .L0 
C:\Users\stapi\AppData\Local\Temp\cc3AqCjg.s:1092   .text.bcwl_receive:000000000000008c .L0 
C:\Users\stapi\AppData\Local\Temp\cc3AqCjg.s:1097   .text.bcwl_receive:0000000000000098 .L0 
C:\Users\stapi\AppData\Local\Temp\cc3AqCjg.s:1098   .text.bcwl_receive:0000000000000098 .L0 
C:\Users\stapi\AppData\Local\Temp\cc3AqCjg.s:1100   .text.bcwl_receive:000000000000009c .L0 
C:\Users\stapi\AppData\Local\Temp\cc3AqCjg.s:1102   .text.bcwl_receive:00000000000000a0 .L0 
C:\Users\stapi\AppData\Local\Temp\cc3AqCjg.s:1104   .text.bcwl_receive:00000000000000a4 .L0 
C:\Users\stapi\AppData\Local\Temp\cc3AqCjg.s:1105   .text.bcwl_receive:00000000000000a4 .L0 
C:\Users\stapi\AppData\Local\Temp\cc3AqCjg.s:1109   .text.bcwl_receive:00000000000000ae .L0 
C:\Users\stapi\AppData\Local\Temp\cc3AqCjg.s:1117   .text.bcwl_receive:00000000000000c6 .L0 
C:\Users\stapi\AppData\Local\Temp\cc3AqCjg.s:1118   .text.bcwl_receive:00000000000000c6 .L0 
C:\Users\stapi\AppData\Local\Temp\cc3AqCjg.s:1122   .text.bcwl_receive:00000000000000ca .L0 
C:\Users\stapi\AppData\Local\Temp\cc3AqCjg.s:1123   .text.bcwl_receive:00000000000000ca .L0 
C:\Users\stapi\AppData\Local\Temp\cc3AqCjg.s:1126   .text.bcwl_receive:00000000000000d0 .L0 
C:\Users\stapi\AppData\Local\Temp\cc3AqCjg.s:1127   .text.bcwl_receive:00000000000000d0 .L0 
C:\Users\stapi\AppData\Local\Temp\cc3AqCjg.s:1129   .text.bcwl_receive:00000000000000d4 .L0 
C:\Users\stapi\AppData\Local\Temp\cc3AqCjg.s:1135   .text.bcwl_receive:00000000000000e4 .L0 
C:\Users\stapi\AppData\Local\Temp\cc3AqCjg.s:1136   .text.bcwl_receive:00000000000000e4 .L0 
C:\Users\stapi\AppData\Local\Temp\cc3AqCjg.s:1139   .text.bcwl_receive:00000000000000e8 .L0 
C:\Users\stapi\AppData\Local\Temp\cc3AqCjg.s:1140   .text.bcwl_receive:00000000000000e8 .L0 
C:\Users\stapi\AppData\Local\Temp\cc3AqCjg.s:1143   .text.bcwl_receive:00000000000000ec .L0 
C:\Users\stapi\AppData\Local\Temp\cc3AqCjg.s:1145   .text.bcwl_receive:00000000000000f0 .L0 
C:\Users\stapi\AppData\Local\Temp\cc3AqCjg.s:1148   .text.bcwl_receive:00000000000000f4 .L0 
C:\Users\stapi\AppData\Local\Temp\cc3AqCjg.s:1150   .text.bcwl_receive:00000000000000f6 .L0 
C:\Users\stapi\AppData\Local\Temp\cc3AqCjg.s:1153   .text.bcwl_receive:00000000000000fc .L0 
C:\Users\stapi\AppData\Local\Temp\cc3AqCjg.s:1154   .text.bcwl_receive:00000000000000fc .L0 
C:\Users\stapi\AppData\Local\Temp\cc3AqCjg.s:1157   .text.bcwl_receive:0000000000000104 .L0 
C:\Users\stapi\AppData\Local\Temp\cc3AqCjg.s:1160   .text.bcwl_receive:0000000000000108 .L0 
C:\Users\stapi\AppData\Local\Temp\cc3AqCjg.s:1161   .text.bcwl_receive:0000000000000108 .L0 
C:\Users\stapi\AppData\Local\Temp\cc3AqCjg.s:1163   .text.bcwl_receive:000000000000010a .L0 
C:\Users\stapi\AppData\Local\Temp\cc3AqCjg.s:1172   .text.bcwl_receive:000000000000011c .L0 
C:\Users\stapi\AppData\Local\Temp\cc3AqCjg.s:1173   .text.bcwl_receive:000000000000011c .L0 
C:\Users\stapi\AppData\Local\Temp\cc3AqCjg.s:1178   .text.bcwl_receive:0000000000000122 .L0 
C:\Users\stapi\AppData\Local\Temp\cc3AqCjg.s:1182   .text.bcwl_receive:0000000000000124 .L0 
C:\Users\stapi\AppData\Local\Temp\cc3AqCjg.s:1183   .text.bcwl_receive:0000000000000124 .L0 
C:\Users\stapi\AppData\Local\Temp\cc3AqCjg.s:1185   .text.bcwl_receive:0000000000000126 .L0 
C:\Users\stapi\AppData\Local\Temp\cc3AqCjg.s:1187   .text.bcwl_receive:000000000000012a .L0 
C:\Users\stapi\AppData\Local\Temp\cc3AqCjg.s:1188   .text.bcwl_receive:000000000000012a .L0 
C:\Users\stapi\AppData\Local\Temp\cc3AqCjg.s:1190   .text.bcwl_receive:000000000000012c .L0 
C:\Users\stapi\AppData\Local\Temp\cc3AqCjg.s:1193   .text.bcwl_receive:0000000000000134 .L0 
C:\Users\stapi\AppData\Local\Temp\cc3AqCjg.s:1194   .text.bcwl_receive:0000000000000134 .L0 
C:\Users\stapi\AppData\Local\Temp\cc3AqCjg.s:1197   .text.bcwl_receive:0000000000000138 .L0 
C:\Users\stapi\AppData\Local\Temp\cc3AqCjg.s:1201   .text.bcwl_receive:0000000000000142 .L0 
C:\Users\stapi\AppData\Local\Temp\cc3AqCjg.s:1202   .text.bcwl_receive:0000000000000142 .L0 
C:\Users\stapi\AppData\Local\Temp\cc3AqCjg.s:1206   .text.bcwl_receive:000000000000014e .L0 
C:\Users\stapi\AppData\Local\Temp\cc3AqCjg.s:1216   .text.bcwl_receive:0000000000000168 .L0 
C:\Users\stapi\AppData\Local\Temp\cc3AqCjg.s:1222   .text.bcwl_receive:000000000000016a .L0 
C:\Users\stapi\AppData\Local\Temp\cc3AqCjg.s:1228   .text.bcwl_receive:0000000000000176 .L0 
C:\Users\stapi\AppData\Local\Temp\cc3AqCjg.s:1231   .text.bcwl_receive:000000000000017a .L0 
C:\Users\stapi\AppData\Local\Temp\cc3AqCjg.s:1232   .text.bcwl_receive:000000000000017a .L0 
C:\Users\stapi\AppData\Local\Temp\cc3AqCjg.s:1235   .text.bcwl_receive:0000000000000182 .L0 
C:\Users\stapi\AppData\Local\Temp\cc3AqCjg.s:1236   .text.bcwl_receive:0000000000000182 .L0 
C:\Users\stapi\AppData\Local\Temp\cc3AqCjg.s:1239   .text.bcwl_receive:000000000000018a .L0 
C:\Users\stapi\AppData\Local\Temp\cc3AqCjg.s:1241   .text.bcwl_receive:000000000000018c .L0 
C:\Users\stapi\AppData\Local\Temp\cc3AqCjg.s:1242   .text.bcwl_receive:000000000000018c .L0 
C:\Users\stapi\AppData\Local\Temp\cc3AqCjg.s:1244   .text.bcwl_receive:000000000000018e .L0 
C:\Users\stapi\AppData\Local\Temp\cc3AqCjg.s:1245   .text.bcwl_receive:000000000000018e .L0 
C:\Users\stapi\AppData\Local\Temp\cc3AqCjg.s:1247   .text.bcwl_receive:0000000000000192 .L0 
C:\Users\stapi\AppData\Local\Temp\cc3AqCjg.s:1249   .text.bcwl_receive:0000000000000196 .L0 
C:\Users\stapi\AppData\Local\Temp\cc3AqCjg.s:1255   .text.bcwl_receive:00000000000001a6 .L0 
C:\Users\stapi\AppData\Local\Temp\cc3AqCjg.s:1256   .text.bcwl_receive:00000000000001a6 .L0 
C:\Users\stapi\AppData\Local\Temp\cc3AqCjg.s:1258   .text.bcwl_receive:00000000000001aa .L0 
C:\Users\stapi\AppData\Local\Temp\cc3AqCjg.s:1261   .text.bcwl_receive:00000000000001ac .L0 
C:\Users\stapi\AppData\Local\Temp\cc3AqCjg.s:1266   .text.bcwl_receive:00000000000001b2 .L0 
C:\Users\stapi\AppData\Local\Temp\cc3AqCjg.s:1267   .text.bcwl_receive:00000000000001b2 .L0 
C:\Users\stapi\AppData\Local\Temp\cc3AqCjg.s:1269   .text.bcwl_receive:00000000000001b6 .L0 
C:\Users\stapi\AppData\Local\Temp\cc3AqCjg.s:1272   .text.bcwl_receive:00000000000001b8 .L0 
C:\Users\stapi\AppData\Local\Temp\cc3AqCjg.s:1274   .text.bcwl_receive:00000000000001ba .L0 
C:\Users\stapi\AppData\Local\Temp\cc3AqCjg.s:1275   .text.bcwl_receive:00000000000001ba .L0 
C:\Users\stapi\AppData\Local\Temp\cc3AqCjg.s:1277   .text.bcwl_receive:00000000000001bc .L0 
C:\Users\stapi\AppData\Local\Temp\cc3AqCjg.s:1279   .text.bcwl_receive:00000000000001c0 .L0 
C:\Users\stapi\AppData\Local\Temp\cc3AqCjg.s:1281   .text.bcwl_receive:00000000000001c4 .L0 
C:\Users\stapi\AppData\Local\Temp\cc3AqCjg.s:1283   .text.bcwl_receive:00000000000001c8 .L0 
C:\Users\stapi\AppData\Local\Temp\cc3AqCjg.s:1288   .text.bcwl_receive:00000000000001d6 .L0 
C:\Users\stapi\AppData\Local\Temp\cc3AqCjg.s:1294   .text.bcwl_receive:00000000000001e8 .L0 
C:\Users\stapi\AppData\Local\Temp\cc3AqCjg.s:1295   .text.bcwl_receive:00000000000001e8 .L0 
C:\Users\stapi\AppData\Local\Temp\cc3AqCjg.s:1297   .text.bcwl_receive:00000000000001ea .L0 
C:\Users\stapi\AppData\Local\Temp\cc3AqCjg.s:1299   .text.bcwl_receive:00000000000001ee .L0 
C:\Users\stapi\AppData\Local\Temp\cc3AqCjg.s:1300   .text.bcwl_receive:00000000000001ee .L0 
C:\Users\stapi\AppData\Local\Temp\cc3AqCjg.s:1302   .text.bcwl_receive:00000000000001f2 .L0 
C:\Users\stapi\AppData\Local\Temp\cc3AqCjg.s:1305   .text.bcwl_receive:00000000000001fa .L0 
C:\Users\stapi\AppData\Local\Temp\cc3AqCjg.s:1306   .text.bcwl_receive:00000000000001fa .L0 
C:\Users\stapi\AppData\Local\Temp\cc3AqCjg.s:1311   .text.bcwl_receive:0000000000000200 .L0 
C:\Users\stapi\AppData\Local\Temp\cc3AqCjg.s:1312   .text.bcwl_receive:0000000000000200 .L0 
C:\Users\stapi\AppData\Local\Temp\cc3AqCjg.s:1314   .text.bcwl_receive:0000000000000202 .L0 
C:\Users\stapi\AppData\Local\Temp\cc3AqCjg.s:1316   .text.bcwl_receive:0000000000000206 .L0 
C:\Users\stapi\AppData\Local\Temp\cc3AqCjg.s:1318   .text.bcwl_receive:000000000000020a .L0 
C:\Users\stapi\AppData\Local\Temp\cc3AqCjg.s:1320   .text.bcwl_receive:000000000000020e .L0 
C:\Users\stapi\AppData\Local\Temp\cc3AqCjg.s:1325   .text.bcwl_receive:000000000000021c .L0 
C:\Users\stapi\AppData\Local\Temp\cc3AqCjg.s:1326   .text.bcwl_receive:000000000000021c .L0 
C:\Users\stapi\AppData\Local\Temp\cc3AqCjg.s:1328   .text.bcwl_receive:0000000000000220 .L0 
C:\Users\stapi\AppData\Local\Temp\cc3AqCjg.s:1334   .text.bcwl_receive:0000000000000228 .L0 
C:\Users\stapi\AppData\Local\Temp\cc3AqCjg.s:1340   .text.bcwl_receive:000000000000022c .L0 
C:\Users\stapi\AppData\Local\Temp\cc3AqCjg.s:1345   .text.bcwl_receive:0000000000000230 .L0 
C:\Users\stapi\AppData\Local\Temp\cc3AqCjg.s:1364   .text.bcwl_gatts_msg_cb:0000000000000000 bcwl_gatts_msg_cb
C:\Users\stapi\AppData\Local\Temp\cc3AqCjg.s:1367   .text.bcwl_gatts_msg_cb:0000000000000000 .L0 
C:\Users\stapi\AppData\Local\Temp\cc3AqCjg.s:1369   .text.bcwl_gatts_msg_cb:0000000000000000 .L0 
C:\Users\stapi\AppData\Local\Temp\cc3AqCjg.s:1370   .text.bcwl_gatts_msg_cb:0000000000000000 .L0 
C:\Users\stapi\AppData\Local\Temp\cc3AqCjg.s:1371   .text.bcwl_gatts_msg_cb:0000000000000000 .L0 
C:\Users\stapi\AppData\Local\Temp\cc3AqCjg.s:1372   .text.bcwl_gatts_msg_cb:0000000000000000 .L0 
C:\Users\stapi\AppData\Local\Temp\cc3AqCjg.s:1373   .text.bcwl_gatts_msg_cb:0000000000000000 .L0 
C:\Users\stapi\AppData\Local\Temp\cc3AqCjg.s:1374   .text.bcwl_gatts_msg_cb:0000000000000000 .L0 
C:\Users\stapi\AppData\Local\Temp\cc3AqCjg.s:1378   .text.bcwl_gatts_msg_cb:0000000000000008 .L0 
C:\Users\stapi\AppData\Local\Temp\cc3AqCjg.s:1379   .text.bcwl_gatts_msg_cb:0000000000000010 .L0 
C:\Users\stapi\AppData\Local\Temp\cc3AqCjg.s:1380   .text.bcwl_gatts_msg_cb:0000000000000010 .L0 
C:\Users\stapi\AppData\Local\Temp\cc3AqCjg.s:1381   .text.bcwl_gatts_msg_cb:0000000000000010 .L0 
C:\Users\stapi\AppData\Local\Temp\cc3AqCjg.s:1382   .text.bcwl_gatts_msg_cb:0000000000000010 .L0 
C:\Users\stapi\AppData\Local\Temp\cc3AqCjg.s:1383   .text.bcwl_gatts_msg_cb:0000000000000010 .L0 
C:\Users\stapi\AppData\Local\Temp\cc3AqCjg.s:1384   .text.bcwl_gatts_msg_cb:0000000000000010 .L0 
C:\Users\stapi\AppData\Local\Temp\cc3AqCjg.s:1385   .text.bcwl_gatts_msg_cb:0000000000000010 .L0 
C:\Users\stapi\AppData\Local\Temp\cc3AqCjg.s:1386   .text.bcwl_gatts_msg_cb:0000000000000010 .L0 
C:\Users\stapi\AppData\Local\Temp\cc3AqCjg.s:1387   .text.bcwl_gatts_msg_cb:0000000000000010 .L0 
C:\Users\stapi\AppData\Local\Temp\cc3AqCjg.s:1388   .text.bcwl_gatts_msg_cb:0000000000000010 .L0 
C:\Users\stapi\AppData\Local\Temp\cc3AqCjg.s:1390   .text.bcwl_gatts_msg_cb:0000000000000010 .L0 
C:\Users\stapi\AppData\Local\Temp\cc3AqCjg.s:1391   .text.bcwl_gatts_msg_cb:0000000000000010 .L0 
C:\Users\stapi\AppData\Local\Temp\cc3AqCjg.s:1394   .text.bcwl_gatts_msg_cb:0000000000000018 .L0 
C:\Users\stapi\AppData\Local\Temp\cc3AqCjg.s:1399   .text.bcwl_gatts_msg_cb:0000000000000028 .L0 
C:\Users\stapi\AppData\Local\Temp\cc3AqCjg.s:1400   .text.bcwl_gatts_msg_cb:0000000000000028 .L0 
C:\Users\stapi\AppData\Local\Temp\cc3AqCjg.s:1407   .text.bcwl_gatts_msg_cb:0000000000000030 .L0 
C:\Users\stapi\AppData\Local\Temp\cc3AqCjg.s:1408   .text.bcwl_gatts_msg_cb:0000000000000030 .L0 
C:\Users\stapi\AppData\Local\Temp\cc3AqCjg.s:1411   .text.bcwl_gatts_msg_cb:0000000000000038 .L0 
C:\Users\stapi\AppData\Local\Temp\cc3AqCjg.s:1414   .text.bcwl_gatts_msg_cb:000000000000003c .L0 
C:\Users\stapi\AppData\Local\Temp\cc3AqCjg.s:1415   .text.bcwl_gatts_msg_cb:000000000000003c .L0 
C:\Users\stapi\AppData\Local\Temp\cc3AqCjg.s:1418   .text.bcwl_gatts_msg_cb:0000000000000040 .L0 
C:\Users\stapi\AppData\Local\Temp\cc3AqCjg.s:1419   .text.bcwl_gatts_msg_cb:0000000000000040 .L0 
C:\Users\stapi\AppData\Local\Temp\cc3AqCjg.s:1422   .text.bcwl_gatts_msg_cb:0000000000000044 .L0 
C:\Users\stapi\AppData\Local\Temp\cc3AqCjg.s:1423   .text.bcwl_gatts_msg_cb:0000000000000044 .L0 
C:\Users\stapi\AppData\Local\Temp\cc3AqCjg.s:1425   .text.bcwl_gatts_msg_cb:0000000000000048 .L0 
C:\Users\stapi\AppData\Local\Temp\cc3AqCjg.s:1438   .text.bcwl_gatts_msg_cb:0000000000000064 .L0 
C:\Users\stapi\AppData\Local\Temp\cc3AqCjg.s:1442   .text.bcwl_gatts_msg_cb:0000000000000066 .L0 
C:\Users\stapi\AppData\Local\Temp\cc3AqCjg.s:1447   .text.bcwl_gatts_msg_cb:000000000000006c .L0 
C:\Users\stapi\AppData\Local\Temp\cc3AqCjg.s:1448   .text.bcwl_gatts_msg_cb:000000000000006c .L0 
C:\Users\stapi\AppData\Local\Temp\cc3AqCjg.s:1450   .text.bcwl_gatts_msg_cb:0000000000000070 .L0 
C:\Users\stapi\AppData\Local\Temp\cc3AqCjg.s:1453   .text.bcwl_gatts_msg_cb:0000000000000078 .L0 
C:\Users\stapi\AppData\Local\Temp\cc3AqCjg.s:1454   .text.bcwl_gatts_msg_cb:0000000000000078 .L0 
C:\Users\stapi\AppData\Local\Temp\cc3AqCjg.s:1457   .text.bcwl_gatts_msg_cb:000000000000007e .L0 
C:\Users\stapi\AppData\Local\Temp\cc3AqCjg.s:1463   .text.bcwl_gatts_msg_cb:000000000000008e .L0 
C:\Users\stapi\AppData\Local\Temp\cc3AqCjg.s:1464   .text.bcwl_gatts_msg_cb:000000000000008e .L0 
C:\Users\stapi\AppData\Local\Temp\cc3AqCjg.s:1473   .text.bcwl_gatts_msg_cb:000000000000009a .L0 
C:\Users\stapi\AppData\Local\Temp\cc3AqCjg.s:1475   .text.bcwl_gatts_msg_cb:00000000000000a4 .L0 
C:\Users\stapi\AppData\Local\Temp\cc3AqCjg.s:1476   .text.bcwl_gatts_msg_cb:00000000000000a4 .L0 
C:\Users\stapi\AppData\Local\Temp\cc3AqCjg.s:1477   .text.bcwl_gatts_msg_cb:00000000000000a4 .L0 
C:\Users\stapi\AppData\Local\Temp\cc3AqCjg.s:1478   .text.bcwl_gatts_msg_cb:00000000000000a4 .L0 
C:\Users\stapi\AppData\Local\Temp\cc3AqCjg.s:1479   .text.bcwl_gatts_msg_cb:00000000000000a4 .L0 
C:\Users\stapi\AppData\Local\Temp\cc3AqCjg.s:1480   .text.bcwl_gatts_msg_cb:00000000000000a4 .L0 
C:\Users\stapi\AppData\Local\Temp\cc3AqCjg.s:1481   .text.bcwl_gatts_msg_cb:00000000000000a4 .L0 
C:\Users\stapi\AppData\Local\Temp\cc3AqCjg.s:1482   .text.bcwl_gatts_msg_cb:00000000000000a4 .L0 
C:\Users\stapi\AppData\Local\Temp\cc3AqCjg.s:1483   .text.bcwl_gatts_msg_cb:00000000000000a4 .L0 
C:\Users\stapi\AppData\Local\Temp\cc3AqCjg.s:1484   .text.bcwl_gatts_msg_cb:00000000000000a4 .L0 
C:\Users\stapi\AppData\Local\Temp\cc3AqCjg.s:1485   .text.bcwl_gatts_msg_cb:00000000000000a4 .L0 
C:\Users\stapi\AppData\Local\Temp\cc3AqCjg.s:1488   .text.bcwl_gatts_msg_cb:00000000000000a4 .L0 
C:\Users\stapi\AppData\Local\Temp\cc3AqCjg.s:1492   .text.bcwl_gatts_msg_cb:00000000000000a4 .L0 
C:\Users\stapi\AppData\Local\Temp\cc3AqCjg.s:1493   .text.bcwl_gatts_msg_cb:00000000000000a4 .L0 
C:\Users\stapi\AppData\Local\Temp\cc3AqCjg.s:1495   .text.bcwl_gatts_msg_cb:00000000000000a8 .L0 
C:\Users\stapi\AppData\Local\Temp\cc3AqCjg.s:1502   .text.bcwl_gatts_msg_cb:00000000000000bc .L0 
C:\Users\stapi\AppData\Local\Temp\cc3AqCjg.s:1503   .text.bcwl_gatts_msg_cb:00000000000000bc .L0 
C:\Users\stapi\AppData\Local\Temp\cc3AqCjg.s:1509   .text.bcwl_gatts_msg_cb:00000000000000c0 .L0 
C:\Users\stapi\AppData\Local\Temp\cc3AqCjg.s:1514   .text.bcwl_gatts_msg_cb:00000000000000cc .L0 
C:\Users\stapi\AppData\Local\Temp\cc3AqCjg.s:1517   .text.bcwl_gatts_msg_cb:00000000000000ce .L0 
C:\Users\stapi\AppData\Local\Temp\cc3AqCjg.s:1518   .text.bcwl_gatts_msg_cb:00000000000000ce .L0 
C:\Users\stapi\AppData\Local\Temp\cc3AqCjg.s:1520   .text.bcwl_gatts_msg_cb:00000000000000d2 .L0 
C:\Users\stapi\AppData\Local\Temp\cc3AqCjg.s:1521   .text.bcwl_gatts_msg_cb:00000000000000d2 .L0 
C:\Users\stapi\AppData\Local\Temp\cc3AqCjg.s:1523   .text.bcwl_gatts_msg_cb:00000000000000d6 .L0 
C:\Users\stapi\AppData\Local\Temp\cc3AqCjg.s:1527   .text.bcwl_gatts_msg_cb:00000000000000dc .L0 
C:\Users\stapi\AppData\Local\Temp\cc3AqCjg.s:1528   .text.bcwl_gatts_msg_cb:00000000000000dc .L0 
C:\Users\stapi\AppData\Local\Temp\cc3AqCjg.s:1531   .text.bcwl_gatts_msg_cb:00000000000000e2 .L0 
C:\Users\stapi\AppData\Local\Temp\cc3AqCjg.s:1540   .text.bcwl_gatts_msg_cb:00000000000000fc .L0 
C:\Users\stapi\AppData\Local\Temp\cc3AqCjg.s:1541   .text.bcwl_gatts_msg_cb:00000000000000fc .L0 
C:\Users\stapi\AppData\Local\Temp\cc3AqCjg.s:1542   .text.bcwl_gatts_msg_cb:00000000000000fc .L0 
C:\Users\stapi\AppData\Local\Temp\cc3AqCjg.s:1543   .text.bcwl_gatts_msg_cb:00000000000000fc .L0 
C:\Users\stapi\AppData\Local\Temp\cc3AqCjg.s:1544   .text.bcwl_gatts_msg_cb:00000000000000fc .L0 
C:\Users\stapi\AppData\Local\Temp\cc3AqCjg.s:1545   .text.bcwl_gatts_msg_cb:00000000000000fc .L0 
C:\Users\stapi\AppData\Local\Temp\cc3AqCjg.s:1546   .text.bcwl_gatts_msg_cb:00000000000000fc .L0 
C:\Users\stapi\AppData\Local\Temp\cc3AqCjg.s:1547   .text.bcwl_gatts_msg_cb:00000000000000fc .L0 
C:\Users\stapi\AppData\Local\Temp\cc3AqCjg.s:1548   .text.bcwl_gatts_msg_cb:00000000000000fc .L0 
C:\Users\stapi\AppData\Local\Temp\cc3AqCjg.s:1549   .text.bcwl_gatts_msg_cb:00000000000000fc .L0 
C:\Users\stapi\AppData\Local\Temp\cc3AqCjg.s:1553   .text.bcwl_gatts_msg_cb:00000000000000fc .L0 
C:\Users\stapi\AppData\Local\Temp\cc3AqCjg.s:1556   .text.bcwl_gatts_msg_cb:0000000000000100 .L0 
C:\Users\stapi\AppData\Local\Temp\cc3AqCjg.s:1563   .text.bcw_prf_enable:0000000000000000 bcw_prf_enable
C:\Users\stapi\AppData\Local\Temp\cc3AqCjg.s:1566   .text.bcw_prf_enable:0000000000000000 .L0 
C:\Users\stapi\AppData\Local\Temp\cc3AqCjg.s:1568   .text.bcw_prf_enable:0000000000000000 .L0 
C:\Users\stapi\AppData\Local\Temp\cc3AqCjg.s:1569   .text.bcw_prf_enable:0000000000000008 .L0 
C:\Users\stapi\AppData\Local\Temp\cc3AqCjg.s:1570   .text.bcw_prf_enable:0000000000000008 .L0 
C:\Users\stapi\AppData\Local\Temp\cc3AqCjg.s:1571   .text.bcw_prf_enable:0000000000000008 .L0 
C:\Users\stapi\AppData\Local\Temp\cc3AqCjg.s:1572   .text.bcw_prf_enable:0000000000000008 .L0 
C:\Users\stapi\AppData\Local\Temp\cc3AqCjg.s:1573   .text.bcw_prf_enable:0000000000000008 .L0 
C:\Users\stapi\AppData\Local\Temp\cc3AqCjg.s:1574   .text.bcw_prf_enable:0000000000000008 .L0 
C:\Users\stapi\AppData\Local\Temp\cc3AqCjg.s:1577   .text.bcw_prf_enable:0000000000000008 .L0 
C:\Users\stapi\AppData\Local\Temp\cc3AqCjg.s:1578   .text.bcw_prf_enable:0000000000000008 .L0 
C:\Users\stapi\AppData\Local\Temp\cc3AqCjg.s:1579   .text.bcw_prf_enable:0000000000000008 .L0 
C:\Users\stapi\AppData\Local\Temp\cc3AqCjg.s:1581   .text.bcw_prf_enable:000000000000000a .L0 
C:\Users\stapi\AppData\Local\Temp\cc3AqCjg.s:1584   .text.bcw_prf_enable:000000000000000e .L0 
C:\Users\stapi\AppData\Local\Temp\cc3AqCjg.s:1586   .text.bcw_prf_enable:0000000000000012 .L0 
C:\Users\stapi\AppData\Local\Temp\cc3AqCjg.s:1587   .text.bcw_prf_enable:0000000000000014 .L0 
C:\Users\stapi\AppData\Local\Temp\cc3AqCjg.s:1589   .text.bcw_prf_enable:0000000000000014 .L0 
C:\Users\stapi\AppData\Local\Temp\cc3AqCjg.s:1592   .text.bcw_prf_enable:000000000000001c .L0 
C:\Users\stapi\AppData\Local\Temp\cc3AqCjg.s:1593   .text.bcw_prf_enable:000000000000001c .L0 
C:\Users\stapi\AppData\Local\Temp\cc3AqCjg.s:1595   .text.bcw_prf_enable:0000000000000020 .L0 
C:\Users\stapi\AppData\Local\Temp\cc3AqCjg.s:1596   .text.bcw_prf_enable:0000000000000020 .L0 
C:\Users\stapi\AppData\Local\Temp\cc3AqCjg.s:1600   .text.bcw_prf_enable:000000000000002a .L0 
C:\Users\stapi\AppData\Local\Temp\cc3AqCjg.s:1601   .text.bcw_prf_enable:000000000000002a .L0 
C:\Users\stapi\AppData\Local\Temp\cc3AqCjg.s:1606   .text.bcw_prf_enable:0000000000000034 .L0 
C:\Users\stapi\AppData\Local\Temp\cc3AqCjg.s:1607   .text.bcw_prf_enable:0000000000000034 .L0 
C:\Users\stapi\AppData\Local\Temp\cc3AqCjg.s:1611   .text.bcw_prf_enable:0000000000000038 .L0 
C:\Users\stapi\AppData\Local\Temp\cc3AqCjg.s:1617   .text.bcw_prf_enable:000000000000004a .L0 
C:\Users\stapi\AppData\Local\Temp\cc3AqCjg.s:1624   .text.bcw_prf_enable:000000000000005a .L0 
C:\Users\stapi\AppData\Local\Temp\cc3AqCjg.s:1625   .text.bcw_prf_enable:000000000000005a .L0 
C:\Users\stapi\AppData\Local\Temp\cc3AqCjg.s:1626   .text.bcw_prf_enable:000000000000005a .L0 
C:\Users\stapi\AppData\Local\Temp\cc3AqCjg.s:1627   .text.bcw_prf_enable:000000000000005a .L0 
C:\Users\stapi\AppData\Local\Temp\cc3AqCjg.s:1628   .text.bcw_prf_enable:000000000000005a .L0 
C:\Users\stapi\AppData\Local\Temp\cc3AqCjg.s:1629   .text.bcw_prf_enable:000000000000005a .L0 
C:\Users\stapi\AppData\Local\Temp\cc3AqCjg.s:1630   .text.bcw_prf_enable:000000000000005a .L0 
C:\Users\stapi\AppData\Local\Temp\cc3AqCjg.s:1631   .text.bcw_prf_enable:000000000000005a .L0 
C:\Users\stapi\AppData\Local\Temp\cc3AqCjg.s:1632   .text.bcw_prf_enable:000000000000005a .L0 
C:\Users\stapi\AppData\Local\Temp\cc3AqCjg.s:1633   .text.bcw_prf_enable:000000000000005a .L0 
C:\Users\stapi\AppData\Local\Temp\cc3AqCjg.s:1634   .text.bcw_prf_enable:000000000000005a .L0 
C:\Users\stapi\AppData\Local\Temp\cc3AqCjg.s:1635   .text.bcw_prf_enable:000000000000005a .L0 
C:\Users\stapi\AppData\Local\Temp\cc3AqCjg.s:1636   .text.bcw_prf_enable:000000000000005a .L0 
C:\Users\stapi\AppData\Local\Temp\cc3AqCjg.s:1642   .text.bcw_prf_enable:000000000000006a .L0 
C:\Users\stapi\AppData\Local\Temp\cc3AqCjg.s:1644   .text.bcw_prf_enable:000000000000006e .L0 
C:\Users\stapi\AppData\Local\Temp\cc3AqCjg.s:1646   .text.bcw_prf_enable:0000000000000070 .L0 
C:\Users\stapi\AppData\Local\Temp\cc3AqCjg.s:1648   .text.bcw_prf_enable:0000000000000074 .L0 
C:\Users\stapi\AppData\Local\Temp\cc3AqCjg.s:1650   .text.bcw_prf_enable:0000000000000078 .L0 
C:\Users\stapi\AppData\Local\Temp\cc3AqCjg.s:1652   .text.bcw_prf_enable:000000000000007a .L0 
C:\Users\stapi\AppData\Local\Temp\cc3AqCjg.s:1654   .text.bcw_prf_enable:000000000000007c .L0 
C:\Users\stapi\AppData\Local\Temp\cc3AqCjg.s:1656   .text.bcw_prf_enable:000000000000007e .L0 
C:\Users\stapi\AppData\Local\Temp\cc3AqCjg.s:1658   .text.bcw_prf_enable:0000000000000080 .L0 
C:\Users\stapi\AppData\Local\Temp\cc3AqCjg.s:1660   .text.bcw_prf_enable:0000000000000084 .L0 
C:\Users\stapi\AppData\Local\Temp\cc3AqCjg.s:1663   .text.bcw_prf_enable:000000000000008a .L0 
C:\Users\stapi\AppData\Local\Temp\cc3AqCjg.s:1665   .text.bcw_prf_enable:000000000000008e .L0 
C:\Users\stapi\AppData\Local\Temp\cc3AqCjg.s:1667   .text.bcw_prf_enable:0000000000000092 .L0 
C:\Users\stapi\AppData\Local\Temp\cc3AqCjg.s:1669   .text.bcw_prf_enable:0000000000000096 .L0 
C:\Users\stapi\AppData\Local\Temp\cc3AqCjg.s:1670   .text.bcw_prf_enable:0000000000000096 .L0 
C:\Users\stapi\AppData\Local\Temp\cc3AqCjg.s:1677   .text.bcw_prf_enable:00000000000000a0 .L0 
C:\Users\stapi\AppData\Local\Temp\cc3AqCjg.s:1678   .text.bcw_prf_enable:00000000000000a0 .L0 
C:\Users\stapi\AppData\Local\Temp\cc3AqCjg.s:1680   .text.bcw_prf_enable:00000000000000a2 .L0 
C:\Users\stapi\AppData\Local\Temp\cc3AqCjg.s:1685   .text.bcw_prf_enable:00000000000000ae .L0 
C:\Users\stapi\AppData\Local\Temp\cc3AqCjg.s:1686   .text.bcw_prf_enable:00000000000000ae .L0 
C:\Users\stapi\AppData\Local\Temp\cc3AqCjg.s:1688   .text.bcw_prf_enable:00000000000000b2 .L0 
C:\Users\stapi\AppData\Local\Temp\cc3AqCjg.s:1689   .text.bcw_prf_enable:00000000000000b2 .L0 
C:\Users\stapi\AppData\Local\Temp\cc3AqCjg.s:1691   .text.bcw_prf_enable:00000000000000ba .L0 
C:\Users\stapi\AppData\Local\Temp\cc3AqCjg.s:1692   .text.bcw_prf_enable:00000000000000ba .L0 
C:\Users\stapi\AppData\Local\Temp\cc3AqCjg.s:1693   .text.bcw_prf_enable:00000000000000ba .L0 
C:\Users\stapi\AppData\Local\Temp\cc3AqCjg.s:1694   .text.bcw_prf_enable:00000000000000ba .L0 
C:\Users\stapi\AppData\Local\Temp\cc3AqCjg.s:1695   .text.bcw_prf_enable:00000000000000ba .L0 
C:\Users\stapi\AppData\Local\Temp\cc3AqCjg.s:1696   .text.bcw_prf_enable:00000000000000ba .L0 
C:\Users\stapi\AppData\Local\Temp\cc3AqCjg.s:1699   .text.bcw_prf_enable:00000000000000ba .L0 
C:\Users\stapi\AppData\Local\Temp\cc3AqCjg.s:1703   .text.bcw_prf_enable:00000000000000ba .L0 
C:\Users\stapi\AppData\Local\Temp\cc3AqCjg.s:1704   .text.bcw_prf_enable:00000000000000ba .L0 
C:\Users\stapi\AppData\Local\Temp\cc3AqCjg.s:1705   .text.bcw_prf_enable:00000000000000ba .L0 
C:\Users\stapi\AppData\Local\Temp\cc3AqCjg.s:1707   .text.bcw_prf_enable:00000000000000bc .L0 
C:\Users\stapi\AppData\Local\Temp\cc3AqCjg.s:1710   .text.bcw_prf_enable:00000000000000c2 .L0 
C:\Users\stapi\AppData\Local\Temp\cc3AqCjg.s:1711   .text.bcw_prf_enable:00000000000000c2 .L0 
C:\Users\stapi\AppData\Local\Temp\cc3AqCjg.s:1713   .text.bcw_prf_enable:00000000000000c6 .L0 
C:\Users\stapi\AppData\Local\Temp\cc3AqCjg.s:1716   .text.bcw_prf_enable:00000000000000cc .L0 
C:\Users\stapi\AppData\Local\Temp\cc3AqCjg.s:1717   .text.bcw_prf_enable:00000000000000cc .L0 
C:\Users\stapi\AppData\Local\Temp\cc3AqCjg.s:1721   .text.bcw_prf_enable:00000000000000d4 .L0 
C:\Users\stapi\AppData\Local\Temp\cc3AqCjg.s:1726   .text.bcw_prf_enable:00000000000000d6 .L0 
C:\Users\stapi\AppData\Local\Temp\cc3AqCjg.s:1727   .text.bcw_prf_enable:00000000000000d6 .L0 
C:\Users\stapi\AppData\Local\Temp\cc3AqCjg.s:1734   .text.bcw_prf_enable:00000000000000da .L0 
C:\Users\stapi\AppData\Local\Temp\cc3AqCjg.s:1735   .text.bcw_prf_enable:00000000000000da .L0 
C:\Users\stapi\AppData\Local\Temp\cc3AqCjg.s:1741   .text.bcw_prf_enable:00000000000000dc .L0 
C:\Users\stapi\AppData\Local\Temp\cc3AqCjg.s:1747   .text.bcw_prf_enable:00000000000000ec .L0 
C:\Users\stapi\AppData\Local\Temp\cc3AqCjg.s:1748   .text.bcw_prf_enable:00000000000000ec .L0 
C:\Users\stapi\AppData\Local\Temp\cc3AqCjg.s:1750   .text.bcw_prf_enable:00000000000000f0 .L0 
C:\Users\stapi\AppData\Local\Temp\cc3AqCjg.s:1755   .text.bcw_prf_enable:00000000000000f2 .L0 
C:\Users\stapi\AppData\Local\Temp\cc3AqCjg.s:1756   .text.bcw_prf_enable:00000000000000f2 .L0 
C:\Users\stapi\AppData\Local\Temp\cc3AqCjg.s:1762   .text.bcw_prf_enable:0000000000000100 .L0 
C:\Users\stapi\AppData\Local\Temp\cc3AqCjg.s:1768   .text.bcwl_adp_evt_handler:0000000000000000 bcwl_adp_evt_handler
C:\Users\stapi\AppData\Local\Temp\cc3AqCjg.s:1771   .text.bcwl_adp_evt_handler:0000000000000000 .L0 
C:\Users\stapi\AppData\Local\Temp\cc3AqCjg.s:1773   .text.bcwl_adp_evt_handler:0000000000000000 .L0 
C:\Users\stapi\AppData\Local\Temp\cc3AqCjg.s:1774   .text.bcwl_adp_evt_handler:0000000000000000 .L0 
C:\Users\stapi\AppData\Local\Temp\cc3AqCjg.s:1780   .text.bcwl_adp_evt_handler:000000000000000a .L0 
C:\Users\stapi\AppData\Local\Temp\cc3AqCjg.s:1781   .text.bcwl_adp_evt_handler:000000000000000a .L0 
C:\Users\stapi\AppData\Local\Temp\cc3AqCjg.s:1784   .text.bcwl_adp_evt_handler:0000000000000010 .L0 
C:\Users\stapi\AppData\Local\Temp\cc3AqCjg.s:1785   .text.bcwl_adp_evt_handler:0000000000000010 .L0 
C:\Users\stapi\AppData\Local\Temp\cc3AqCjg.s:1789   .text.bcwl_adp_evt_handler:000000000000001a .L0 
C:\Users\stapi\AppData\Local\Temp\cc3AqCjg.s:1790   .text.bcwl_adp_evt_handler:000000000000001a .L0 
C:\Users\stapi\AppData\Local\Temp\cc3AqCjg.s:1793   .text.bcwl_adp_evt_handler:0000000000000022 .L0 
C:\Users\stapi\AppData\Local\Temp\cc3AqCjg.s:1799   .text.bcwl_adp_evt_handler:0000000000000028 .L0 
C:\Users\stapi\AppData\Local\Temp\cc3AqCjg.s:1800   .text.bcwl_adp_evt_handler:0000000000000028 .L0 
C:\Users\stapi\AppData\Local\Temp\cc3AqCjg.s:1803   .text.bcwl_adp_evt_handler:000000000000002a .L0 
C:\Users\stapi\AppData\Local\Temp\cc3AqCjg.s:1805   .text.bcwl_adp_evt_handler:000000000000002e .L0 
C:\Users\stapi\AppData\Local\Temp\cc3AqCjg.s:1811   .text.bcwl_adp_evt_handler:0000000000000036 .L0 
C:\Users\stapi\AppData\Local\Temp\cc3AqCjg.s:1812   .text.bcwl_adp_evt_handler:0000000000000036 .L0 
C:\Users\stapi\AppData\Local\Temp\cc3AqCjg.s:1815   .text.bcwl_adp_evt_handler:000000000000003c .L0 
C:\Users\stapi\AppData\Local\Temp\cc3AqCjg.s:1816   .text.bcwl_adp_evt_handler:000000000000003c .L0 
C:\Users\stapi\AppData\Local\Temp\cc3AqCjg.s:1819   .text.bcwl_adp_evt_handler:0000000000000044 .L0 
C:\Users\stapi\AppData\Local\Temp\cc3AqCjg.s:1822   .text.bcwl_adp_evt_handler:0000000000000048 .L0 
C:\Users\stapi\AppData\Local\Temp\cc3AqCjg.s:1829   .text.app_blue_courier_init:0000000000000000 app_blue_courier_init
C:\Users\stapi\AppData\Local\Temp\cc3AqCjg.s:1832   .text.app_blue_courier_init:0000000000000000 .L0 
C:\Users\stapi\AppData\Local\Temp\cc3AqCjg.s:1833   .text.app_blue_courier_init:0000000000000000 .L0 
C:\Users\stapi\AppData\Local\Temp\cc3AqCjg.s:1834   .text.app_blue_courier_init:0000000000000008 .L0 
C:\Users\stapi\AppData\Local\Temp\cc3AqCjg.s:1835   .text.app_blue_courier_init:0000000000000008 .L0 
C:\Users\stapi\AppData\Local\Temp\cc3AqCjg.s:1837   .text.app_blue_courier_init:0000000000000008 .L0 
C:\Users\stapi\AppData\Local\Temp\cc3AqCjg.s:1838   .text.app_blue_courier_init:0000000000000008 .L0 
C:\Users\stapi\AppData\Local\Temp\cc3AqCjg.s:1840   .text.app_blue_courier_init:000000000000000a .L0 
C:\Users\stapi\AppData\Local\Temp\cc3AqCjg.s:1841   .text.app_blue_courier_init:000000000000000c .L0 
C:\Users\stapi\AppData\Local\Temp\cc3AqCjg.s:1843   .text.app_blue_courier_init:000000000000000c .L0 
C:\Users\stapi\AppData\Local\Temp\cc3AqCjg.s:1845   .text.app_blue_courier_init:000000000000000e .L0 
C:\Users\stapi\AppData\Local\Temp\cc3AqCjg.s:1850   .text.app_blue_courier_init:000000000000001c .L0 
C:\Users\stapi\AppData\Local\Temp\cc3AqCjg.s:1852   .text.app_blue_courier_init:000000000000001e .L0 
C:\Users\stapi\AppData\Local\Temp\cc3AqCjg.s:1859   .text.app_blue_courier_init:0000000000000030 .L0 
C:\Users\stapi\AppData\Local\Temp\cc3AqCjg.s:1863   .text.app_blue_courier_init:0000000000000036 .L0 
C:\Users\stapi\AppData\Local\Temp\cc3AqCjg.s:1866   .text.app_blue_courier_init:000000000000003e .L0 
C:\Users\stapi\AppData\Local\Temp\cc3AqCjg.s:1871   .text.app_blue_courier_init:000000000000004e .L0 
C:\Users\stapi\AppData\Local\Temp\cc3AqCjg.s:1872   .text.app_blue_courier_init:0000000000000050 .L0 
C:\Users\stapi\AppData\Local\Temp\cc3AqCjg.s:1874   .text.app_blue_courier_init:0000000000000058 .L0 
C:\Users\stapi\AppData\Local\Temp\cc3AqCjg.s:1875   .text.app_blue_courier_init:0000000000000058 .L0 
C:\Users\stapi\AppData\Local\Temp\cc3AqCjg.s:1876   .text.app_blue_courier_init:0000000000000058 .L0 
C:\Users\stapi\AppData\Local\Temp\cc3AqCjg.s:1883   .text.app_blue_courier_deinit:0000000000000000 app_blue_courier_deinit
C:\Users\stapi\AppData\Local\Temp\cc3AqCjg.s:1886   .text.app_blue_courier_deinit:0000000000000000 .L0 
C:\Users\stapi\AppData\Local\Temp\cc3AqCjg.s:1887   .text.app_blue_courier_deinit:0000000000000000 .L0 
C:\Users\stapi\AppData\Local\Temp\cc3AqCjg.s:1888   .text.app_blue_courier_deinit:0000000000000008 .L0 
C:\Users\stapi\AppData\Local\Temp\cc3AqCjg.s:1889   .text.app_blue_courier_deinit:0000000000000008 .L0 
C:\Users\stapi\AppData\Local\Temp\cc3AqCjg.s:1891   .text.app_blue_courier_deinit:0000000000000008 .L0 
C:\Users\stapi\AppData\Local\Temp\cc3AqCjg.s:1896   .text.app_blue_courier_deinit:0000000000000018 .L0 
C:\Users\stapi\AppData\Local\Temp\cc3AqCjg.s:1901   .text.app_blue_courier_deinit:0000000000000028 .L0 
C:\Users\stapi\AppData\Local\Temp\cc3AqCjg.s:1902   .text.app_blue_courier_deinit:0000000000000030 .L0 
C:\Users\stapi\AppData\Local\Temp\cc3AqCjg.s:1903   .text.app_blue_courier_deinit:0000000000000030 .L0 
C:\Users\stapi\AppData\Local\Temp\cc3AqCjg.s:1904   .text.app_blue_courier_deinit:0000000000000030 .L0 
C:\Users\stapi\AppData\Local\Temp\cc3AqCjg.s:1971   .rodata.bcw_att_db:0000000000000000 bcw_att_db
C:\Users\stapi\AppData\Local\Temp\cc3AqCjg.s:2013   .sbss.prf_id:0000000000000000 prf_id
C:\Users\stapi\AppData\Local\Temp\cc3AqCjg.s:1915   .bss.bcwl_env:0000000000000000 bcwl_env
C:\Users\stapi\AppData\Local\Temp\cc3AqCjg.s:1912   .bss.bcwl_env:0000000000000000 .LANCHOR0
C:\Users\stapi\AppData\Local\Temp\cc3AqCjg.s:1919   .rodata.__func__.0:0000000000000000 .LANCHOR8
C:\Users\stapi\AppData\Local\Temp\cc3AqCjg.s:1922   .rodata.__func__.0:0000000000000000 __func__.0
C:\Users\stapi\AppData\Local\Temp\cc3AqCjg.s:1926   .rodata.__func__.1:0000000000000000 .LANCHOR1
C:\Users\stapi\AppData\Local\Temp\cc3AqCjg.s:1929   .rodata.__func__.1:0000000000000000 __func__.1
C:\Users\stapi\AppData\Local\Temp\cc3AqCjg.s:1933   .rodata.__func__.2:0000000000000000 .LANCHOR7
C:\Users\stapi\AppData\Local\Temp\cc3AqCjg.s:1936   .rodata.__func__.2:0000000000000000 __func__.2
C:\Users\stapi\AppData\Local\Temp\cc3AqCjg.s:1940   .rodata.__func__.3:0000000000000000 .LANCHOR3
C:\Users\stapi\AppData\Local\Temp\cc3AqCjg.s:1943   .rodata.__func__.3:0000000000000000 __func__.3
C:\Users\stapi\AppData\Local\Temp\cc3AqCjg.s:1947   .rodata.__func__.4:0000000000000000 .LANCHOR2
C:\Users\stapi\AppData\Local\Temp\cc3AqCjg.s:1950   .rodata.__func__.4:0000000000000000 __func__.4
C:\Users\stapi\AppData\Local\Temp\cc3AqCjg.s:1954   .rodata.__func__.5:0000000000000000 .LANCHOR6
C:\Users\stapi\AppData\Local\Temp\cc3AqCjg.s:1957   .rodata.__func__.5:0000000000000000 __func__.5
C:\Users\stapi\AppData\Local\Temp\cc3AqCjg.s:1961   .rodata.__func__.6:0000000000000000 .LANCHOR5
C:\Users\stapi\AppData\Local\Temp\cc3AqCjg.s:1964   .rodata.__func__.6:0000000000000000 __func__.6
C:\Users\stapi\AppData\Local\Temp\cc3AqCjg.s:1968   .rodata.bcw_att_db:0000000000000000 .LANCHOR11
C:\Users\stapi\AppData\Local\Temp\cc3AqCjg.s:1998   .sbss.bcwl_enable_pending:0000000000000000 .LANCHOR10
C:\Users\stapi\AppData\Local\Temp\cc3AqCjg.s:2001   .sbss.bcwl_enable_pending:0000000000000000 bcwl_enable_pending
C:\Users\stapi\AppData\Local\Temp\cc3AqCjg.s:2004   .sbss.ble_enabled:0000000000000000 .LANCHOR9
C:\Users\stapi\AppData\Local\Temp\cc3AqCjg.s:2007   .sbss.ble_enabled:0000000000000000 ble_enabled
C:\Users\stapi\AppData\Local\Temp\cc3AqCjg.s:2010   .sbss.prf_id:0000000000000000 .LANCHOR4
C:\Users\stapi\AppData\Local\Temp\cc3AqCjg.s:96     .text.bcwl_conn_evt_handler:0000000000000066 .L0 
C:\Users\stapi\AppData\Local\Temp\cc3AqCjg.s:333    .text.bcwl_adv_mgr_evt_hdlr:0000000000000110 .L0 
C:\Users\stapi\AppData\Local\Temp\cc3AqCjg.s:641    .text.bcwl_send:00000000000001ae .L0 
C:\Users\stapi\AppData\Local\Temp\cc3AqCjg.s:675    .text.bcwl_error_report:0000000000000028 .L0 
C:\Users\stapi\AppData\Local\Temp\cc3AqCjg.s:709    .text.bcwl_send_ack:0000000000000028 .L0 
C:\Users\stapi\AppData\Local\Temp\cc3AqCjg.s:885    .text.bcwl_handle_mgmt_handshake:00000000000000cc .L0 
C:\Users\stapi\AppData\Local\Temp\cc3AqCjg.s:974    .text.bcwl_msg_handler:000000000000007a .L0 
C:\Users\stapi\AppData\Local\Temp\cc3AqCjg.s:1348   .text.bcwl_receive:0000000000000230 .L0 
C:\Users\stapi\AppData\Local\Temp\cc3AqCjg.s:1559   .text.bcwl_gatts_msg_cb:0000000000000100 .L0 
C:\Users\stapi\AppData\Local\Temp\cc3AqCjg.s:1765   .text.bcw_prf_enable:0000000000000100 .L0 
C:\Users\stapi\AppData\Local\Temp\cc3AqCjg.s:1825   .text.bcwl_adp_evt_handler:0000000000000048 .L0 
C:\Users\stapi\AppData\Local\Temp\cc3AqCjg.s:1879   .text.app_blue_courier_init:0000000000000058 .L0 
C:\Users\stapi\AppData\Local\Temp\cc3AqCjg.s:1910   .text.app_blue_courier_deinit:0000000000000030 .L0 
                     .debug_frame:0000000000000000 .L0 
C:\Users\stapi\AppData\Local\Temp\cc3AqCjg.s:91     .text.bcwl_conn_evt_handler:0000000000000064 .L9
C:\Users\stapi\AppData\Local\Temp\cc3AqCjg.s:82     .text.bcwl_conn_evt_handler:000000000000005c .L1
C:\Users\stapi\AppData\Local\Temp\cc3AqCjg.s:98     .rodata.bcwl_adv_mgr_evt_hdlr.str1.4:0000000000000000 .LC0
C:\Users\stapi\AppData\Local\Temp\cc3AqCjg.s:323    .text.bcwl_adv_mgr_evt_hdlr:000000000000010e .L26
C:\Users\stapi\AppData\Local\Temp\cc3AqCjg.s:159    .text.bcwl_adv_mgr_evt_hdlr:000000000000004e .L15
C:\Users\stapi\AppData\Local\Temp\cc3AqCjg.s:298    .text.bcwl_adv_mgr_evt_hdlr:00000000000000ea .L16
C:\Users\stapi\AppData\Local\Temp\cc3AqCjg.s:277    .text.bcwl_adv_mgr_evt_hdlr:00000000000000cc .L17
C:\Users\stapi\AppData\Local\Temp\cc3AqCjg.s:260    .text.bcwl_adv_mgr_evt_hdlr:00000000000000c2 .L12
C:\Users\stapi\AppData\Local\Temp\cc3AqCjg.s:341    .rodata.bcwl_send.str1.4:0000000000000030 .LC3
C:\Users\stapi\AppData\Local\Temp\cc3AqCjg.s:338    .rodata.bcwl_send.str1.4:0000000000000024 .LC2
C:\Users\stapi\AppData\Local\Temp\cc3AqCjg.s:335    .rodata.bcwl_send.str1.4:0000000000000000 .LC1
C:\Users\stapi\AppData\Local\Temp\cc3AqCjg.s:440    .text.bcwl_send:0000000000000086 .L52
C:\Users\stapi\AppData\Local\Temp\cc3AqCjg.s:457    .text.bcwl_send:00000000000000a8 .L29
C:\Users\stapi\AppData\Local\Temp\cc3AqCjg.s:579    .text.bcwl_send:000000000000014e .L33
C:\Users\stapi\AppData\Local\Temp\cc3AqCjg.s:476    .text.bcwl_send:00000000000000b0 .L34
C:\Users\stapi\AppData\Local\Temp\cc3AqCjg.s:431    .text.bcwl_send:000000000000007a .L36
C:\Users\stapi\AppData\Local\Temp\cc3AqCjg.s:608    .text.bcwl_send:0000000000000180 .L57
C:\Users\stapi\AppData\Local\Temp\cc3AqCjg.s:620    .text.bcwl_send:0000000000000194 .L42
C:\Users\stapi\AppData\Local\Temp\cc3AqCjg.s:569    .text.bcwl_send:0000000000000142 .L43
C:\Users\stapi\AppData\Local\Temp\cc3AqCjg.s:398    .text.bcwl_send:0000000000000040 .L30
C:\Users\stapi\AppData\Local\Temp\cc3AqCjg.s:418    .text.bcwl_send:0000000000000058 .L55
C:\Users\stapi\AppData\Local\Temp\cc3AqCjg.s:597    .text.bcwl_send:0000000000000170 .L41
C:\Users\stapi\AppData\Local\Temp\cc3AqCjg.s:516    .text.bcwl_send:00000000000000e8 .L56
C:\Users\stapi\AppData\Local\Temp\cc3AqCjg.s:711    .rodata.bcwl_handle_mgmt_handshake.str1.4:0000000000000000 .LC4
C:\Users\stapi\AppData\Local\Temp\cc3AqCjg.s:714    .rodata.bcwl_handle_mgmt_handshake.str1.4:0000000000000010 .LC5
C:\Users\stapi\AppData\Local\Temp\cc3AqCjg.s:777    .text.bcwl_handle_mgmt_handshake:0000000000000048 .L63
C:\Users\stapi\AppData\Local\Temp\cc3AqCjg.s:758    .text.bcwl_handle_mgmt_handshake:0000000000000034 .L64
C:\Users\stapi\AppData\Local\Temp\cc3AqCjg.s:871    .text.bcwl_handle_mgmt_handshake:00000000000000bc .L66
C:\Users\stapi\AppData\Local\Temp\cc3AqCjg.s:765    .text.bcwl_handle_mgmt_handshake:000000000000003e .L62
C:\Users\stapi\AppData\Local\Temp\cc3AqCjg.s:887    .rodata.bcwl_msg_handler.str1.4:0000000000000000 .LC6
C:\Users\stapi\AppData\Local\Temp\cc3AqCjg.s:936    .text.bcwl_msg_handler:0000000000000046 .L72
C:\Users\stapi\AppData\Local\Temp\cc3AqCjg.s:963    .text.bcwl_msg_handler:000000000000006c .L73
C:\Users\stapi\AppData\Local\Temp\cc3AqCjg.s:927    .text.bcwl_msg_handler:000000000000003a .L78
C:\Users\stapi\AppData\Local\Temp\cc3AqCjg.s:944    .text.bcwl_msg_handler:0000000000000056 .L71
C:\Users\stapi\AppData\Local\Temp\cc3AqCjg.s:951    .text.bcwl_msg_handler:000000000000005e .L75
C:\Users\stapi\AppData\Local\Temp\cc3AqCjg.s:910    .text.bcwl_msg_handler:0000000000000016 .L76
C:\Users\stapi\AppData\Local\Temp\cc3AqCjg.s:976    .rodata.bcwl_receive.str1.4:0000000000000000 .LC7
C:\Users\stapi\AppData\Local\Temp\cc3AqCjg.s:979    .rodata.bcwl_receive.str1.4:0000000000000014 .LC8
C:\Users\stapi\AppData\Local\Temp\cc3AqCjg.s:982    .rodata.bcwl_receive.str1.4:000000000000002c .LC9
C:\Users\stapi\AppData\Local\Temp\cc3AqCjg.s:985    .rodata.bcwl_receive.str1.4:0000000000000048 .LC10
C:\Users\stapi\AppData\Local\Temp\cc3AqCjg.s:1046   .text.bcwl_receive:0000000000000044 .L90
C:\Users\stapi\AppData\Local\Temp\cc3AqCjg.s:1024   .text.bcwl_receive:0000000000000032 .L91
C:\Users\stapi\AppData\Local\Temp\cc3AqCjg.s:1085   .text.bcwl_receive:0000000000000084 .L93
C:\Users\stapi\AppData\Local\Temp\cc3AqCjg.s:1079   .text.bcwl_receive:0000000000000080 .L94
C:\Users\stapi\AppData\Local\Temp\cc3AqCjg.s:1028   .text.bcwl_receive:0000000000000034 .L137
C:\Users\stapi\AppData\Local\Temp\cc3AqCjg.s:1095   .text.bcwl_receive:0000000000000098 .L95
C:\Users\stapi\AppData\Local\Temp\cc3AqCjg.s:1120   .text.bcwl_receive:00000000000000ca .L96
C:\Users\stapi\AppData\Local\Temp\cc3AqCjg.s:1115   .text.bcwl_receive:00000000000000c6 .L97
C:\Users\stapi\AppData\Local\Temp\cc3AqCjg.s:1332   .text.bcwl_receive:0000000000000228 .L107
C:\Users\stapi\AppData\Local\Temp\cc3AqCjg.s:1264   .text.bcwl_receive:00000000000001b2 .L99
C:\Users\stapi\AppData\Local\Temp\cc3AqCjg.s:1170   .text.bcwl_receive:000000000000011c .L100
C:\Users\stapi\AppData\Local\Temp\cc3AqCjg.s:1035   .text.bcwl_receive:000000000000003c .L89
C:\Users\stapi\AppData\Local\Temp\cc3AqCjg.s:1218   .text.bcwl_receive:000000000000016a .L101
C:\Users\stapi\AppData\Local\Temp\cc3AqCjg.s:1195   .text.bcwl_receive:0000000000000138 .L105
C:\Users\stapi\AppData\Local\Temp\cc3AqCjg.s:1176   .text.bcwl_receive:0000000000000122 .L102
C:\Users\stapi\AppData\Local\Temp\cc3AqCjg.s:1338   .text.bcwl_receive:000000000000022c .L108
C:\Users\stapi\AppData\Local\Temp\cc3AqCjg.s:1309   .text.bcwl_receive:0000000000000200 .L103
C:\Users\stapi\AppData\Local\Temp\cc3AqCjg.s:1259   .text.bcwl_receive:00000000000001ac .L138
C:\Users\stapi\AppData\Local\Temp\cc3AqCjg.s:1180   .text.bcwl_receive:0000000000000124 .L98
C:\Users\stapi\AppData\Local\Temp\cc3AqCjg.s:1350   .rodata.bcwl_gatts_msg_cb.str1.4:0000000000000000 .LC11
C:\Users\stapi\AppData\Local\Temp\cc3AqCjg.s:1353   .rodata.bcwl_gatts_msg_cb.str1.4:0000000000000028 .LC12
C:\Users\stapi\AppData\Local\Temp\cc3AqCjg.s:1356   .rodata.bcwl_gatts_msg_cb.str1.4:0000000000000030 .LC13
C:\Users\stapi\AppData\Local\Temp\cc3AqCjg.s:1359   .rodata.bcwl_gatts_msg_cb.str1.4:0000000000000034 .LC14
C:\Users\stapi\AppData\Local\Temp\cc3AqCjg.s:1539   .text.bcwl_gatts_msg_cb:00000000000000fc .L155
C:\Users\stapi\AppData\Local\Temp\cc3AqCjg.s:1469   .text.bcwl_gatts_msg_cb:000000000000009a .L141
C:\Users\stapi\AppData\Local\Temp\cc3AqCjg.s:1434   .text.bcwl_gatts_msg_cb:0000000000000064 .L143
C:\Users\stapi\AppData\Local\Temp\cc3AqCjg.s:1487   .text.bcwl_gatts_msg_cb:00000000000000a4 .L146
C:\Users\stapi\AppData\Local\Temp\cc3AqCjg.s:1461   .text.bcwl_gatts_msg_cb:000000000000008e .L147
C:\Users\stapi\AppData\Local\Temp\cc3AqCjg.s:1507   .text.bcwl_gatts_msg_cb:00000000000000c0 .L148
C:\Users\stapi\AppData\Local\Temp\cc3AqCjg.s:1515   .text.bcwl_gatts_msg_cb:00000000000000ce .L149
C:\Users\stapi\AppData\Local\Temp\cc3AqCjg.s:1500   .text.bcwl_gatts_msg_cb:00000000000000bc .L145
C:\Users\stapi\AppData\Local\Temp\cc3AqCjg.s:1444   .text.bcwl_gatts_msg_cb:000000000000006c .L144
C:\Users\stapi\AppData\Local\Temp\cc3AqCjg.s:1525   .text.bcwl_gatts_msg_cb:00000000000000dc .L150
C:\Users\stapi\AppData\Local\Temp\cc3AqCjg.s:1605   .text.bcw_prf_enable:0000000000000034 .L167
C:\Users\stapi\AppData\Local\Temp\cc3AqCjg.s:1698   .text.bcw_prf_enable:00000000000000ba .L160
C:\Users\stapi\AppData\Local\Temp\cc3AqCjg.s:1609   .text.bcw_prf_enable:0000000000000038 .L161
C:\Users\stapi\AppData\Local\Temp\cc3AqCjg.s:1684   .text.bcw_prf_enable:00000000000000ae .L158
C:\Users\stapi\AppData\Local\Temp\cc3AqCjg.s:1745   .text.bcw_prf_enable:00000000000000ec .L162
C:\Users\stapi\AppData\Local\Temp\cc3AqCjg.s:1730   .text.bcw_prf_enable:00000000000000da .L163
C:\Users\stapi\AppData\Local\Temp\cc3AqCjg.s:1737   .text.bcw_prf_enable:00000000000000dc .L166
C:\Users\stapi\AppData\Local\Temp\cc3AqCjg.s:1751   .text.bcw_prf_enable:00000000000000f2 .L165
C:\Users\stapi\AppData\Local\Temp\cc3AqCjg.s:1719   .text.bcw_prf_enable:00000000000000d4 .L172
C:\Users\stapi\AppData\Local\Temp\cc3AqCjg.s:1778   .text.bcwl_adp_evt_handler:000000000000000a .L174
C:\Users\stapi\AppData\Local\Temp\cc3AqCjg.s:1807   .text.bcwl_adp_evt_handler:0000000000000036 .L175
C:\Users\stapi\AppData\Local\Temp\cc3AqCjg.s:1820   .text.bcwl_adp_evt_handler:0000000000000046 .L183
C:\Users\stapi\AppData\Local\Temp\cc3AqCjg.s:10491  .debug_abbrev:0000000000000000 .Ldebug_abbrev0
C:\Users\stapi\AppData\Local\Temp\cc3AqCjg.s:14749  .debug_str:00000000000044fe .LASF1191
C:\Users\stapi\AppData\Local\Temp\cc3AqCjg.s:14705  .debug_str:0000000000004252 .LASF1192
C:\Users\stapi\AppData\Local\Temp\cc3AqCjg.s:15227  .debug_str:0000000000005c8e .LASF1193
C:\Users\stapi\AppData\Local\Temp\cc3AqCjg.s:13149  .debug_ranges:0000000000000000 .Ldebug_ranges0
C:\Users\stapi\AppData\Local\Temp\cc3AqCjg.s:13249  .debug_line:0000000000000000 .Ldebug_line0
C:\Users\stapi\AppData\Local\Temp\cc3AqCjg.s:15541  .debug_str:0000000000006bef .LASF0
C:\Users\stapi\AppData\Local\Temp\cc3AqCjg.s:14569  .debug_str:0000000000003c02 .LASF2
C:\Users\stapi\AppData\Local\Temp\cc3AqCjg.s:13321  .debug_str:0000000000000326 .LASF1
C:\Users\stapi\AppData\Local\Temp\cc3AqCjg.s:13861  .debug_str:0000000000001bb8 .LASF3
C:\Users\stapi\AppData\Local\Temp\cc3AqCjg.s:15603  .debug_str:0000000000006ea8 .LASF4
C:\Users\stapi\AppData\Local\Temp\cc3AqCjg.s:13779  .debug_str:000000000000186c .LASF5
C:\Users\stapi\AppData\Local\Temp\cc3AqCjg.s:14563  .debug_str:0000000000003bbc .LASF6
C:\Users\stapi\AppData\Local\Temp\cc3AqCjg.s:14737  .debug_str:0000000000004463 .LASF7
C:\Users\stapi\AppData\Local\Temp\cc3AqCjg.s:15157  .debug_str:0000000000005969 .LASF8
C:\Users\stapi\AppData\Local\Temp\cc3AqCjg.s:14851  .debug_str:0000000000004a9d .LASF9
C:\Users\stapi\AppData\Local\Temp\cc3AqCjg.s:15427  .debug_str:0000000000006647 .LASF10
C:\Users\stapi\AppData\Local\Temp\cc3AqCjg.s:15279  .debug_str:0000000000005f81 .LASF11
C:\Users\stapi\AppData\Local\Temp\cc3AqCjg.s:15579  .debug_str:0000000000006d99 .LASF12
C:\Users\stapi\AppData\Local\Temp\cc3AqCjg.s:14489  .debug_str:000000000000385d .LASF13
C:\Users\stapi\AppData\Local\Temp\cc3AqCjg.s:14167  .debug_str:0000000000002980 .LASF14
C:\Users\stapi\AppData\Local\Temp\cc3AqCjg.s:13407  .debug_str:000000000000073a .LASF15
C:\Users\stapi\AppData\Local\Temp\cc3AqCjg.s:14793  .debug_str:000000000000481e .LASF16
C:\Users\stapi\AppData\Local\Temp\cc3AqCjg.s:14229  .debug_str:0000000000002c7a .LASF17
C:\Users\stapi\AppData\Local\Temp\cc3AqCjg.s:14303  .debug_str:0000000000002fd8 .LASF18
C:\Users\stapi\AppData\Local\Temp\cc3AqCjg.s:13773  .debug_str:0000000000001839 .LASF19
C:\Users\stapi\AppData\Local\Temp\cc3AqCjg.s:14253  .debug_str:0000000000002d8b .LASF20
C:\Users\stapi\AppData\Local\Temp\cc3AqCjg.s:14829  .debug_str:00000000000049ab .LASF21
C:\Users\stapi\AppData\Local\Temp\cc3AqCjg.s:14911  .debug_str:0000000000004d7c .LASF22
C:\Users\stapi\AppData\Local\Temp\cc3AqCjg.s:13729  .debug_str:000000000000161e .LASF23
C:\Users\stapi\AppData\Local\Temp\cc3AqCjg.s:13753  .debug_str:0000000000001764 .LASF24
C:\Users\stapi\AppData\Local\Temp\cc3AqCjg.s:15167  .debug_str:00000000000059cc .LASF25
C:\Users\stapi\AppData\Local\Temp\cc3AqCjg.s:15581  .debug_str:0000000000006da6 .LASF26
C:\Users\stapi\AppData\Local\Temp\cc3AqCjg.s:13651  .debug_str:0000000000001278 .LASF27
C:\Users\stapi\AppData\Local\Temp\cc3AqCjg.s:14121  .debug_str:000000000000276e .LASF28
C:\Users\stapi\AppData\Local\Temp\cc3AqCjg.s:14069  .debug_str:00000000000024fa .LASF29
C:\Users\stapi\AppData\Local\Temp\cc3AqCjg.s:13545  .debug_str:0000000000000d96 .LASF30
C:\Users\stapi\AppData\Local\Temp\cc3AqCjg.s:15573  .debug_str:0000000000006d54 .LASF31
C:\Users\stapi\AppData\Local\Temp\cc3AqCjg.s:13975  .debug_str:000000000000207e .LASF32
C:\Users\stapi\AppData\Local\Temp\cc3AqCjg.s:14551  .debug_str:0000000000003b24 .LASF33
C:\Users\stapi\AppData\Local\Temp\cc3AqCjg.s:14795  .debug_str:0000000000004827 .LASF34
C:\Users\stapi\AppData\Local\Temp\cc3AqCjg.s:15521  .debug_str:0000000000006add .LASF35
C:\Users\stapi\AppData\Local\Temp\cc3AqCjg.s:14245  .debug_str:0000000000002d3b .LASF36
C:\Users\stapi\AppData\Local\Temp\cc3AqCjg.s:15193  .debug_str:0000000000005b05 .LASF37
C:\Users\stapi\AppData\Local\Temp\cc3AqCjg.s:15159  .debug_str:0000000000005974 .LASF38
C:\Users\stapi\AppData\Local\Temp\cc3AqCjg.s:15605  .debug_str:0000000000006eb2 .LASF39
C:\Users\stapi\AppData\Local\Temp\cc3AqCjg.s:14191  .debug_str:0000000000002a98 .LASF40
C:\Users\stapi\AppData\Local\Temp\cc3AqCjg.s:15393  .debug_str:00000000000064db .LASF41
C:\Users\stapi\AppData\Local\Temp\cc3AqCjg.s:15251  .debug_str:0000000000005e17 .LASF42
C:\Users\stapi\AppData\Local\Temp\cc3AqCjg.s:14071  .debug_str:000000000000250b .LASF43
C:\Users\stapi\AppData\Local\Temp\cc3AqCjg.s:15211  .debug_str:0000000000005bf8 .LASF44
C:\Users\stapi\AppData\Local\Temp\cc3AqCjg.s:14107  .debug_str:00000000000026b9 .LASF45
C:\Users\stapi\AppData\Local\Temp\cc3AqCjg.s:14447  .debug_str:000000000000367a .LASF46
C:\Users\stapi\AppData\Local\Temp\cc3AqCjg.s:14537  .debug_str:0000000000003a5e .LASF47
C:\Users\stapi\AppData\Local\Temp\cc3AqCjg.s:15181  .debug_str:0000000000005a62 .LASF48
C:\Users\stapi\AppData\Local\Temp\cc3AqCjg.s:15185  .debug_str:0000000000005a9d .LASF49
C:\Users\stapi\AppData\Local\Temp\cc3AqCjg.s:13995  .debug_str:0000000000002182 .LASF50
C:\Users\stapi\AppData\Local\Temp\cc3AqCjg.s:14481  .debug_str:00000000000037fb .LASF51
C:\Users\stapi\AppData\Local\Temp\cc3AqCjg.s:13939  .debug_str:0000000000001f1d .LASF52
C:\Users\stapi\AppData\Local\Temp\cc3AqCjg.s:15499  .debug_str:00000000000069eb .LASF53
C:\Users\stapi\AppData\Local\Temp\cc3AqCjg.s:14079  .debug_str:0000000000002574 .LASF54
C:\Users\stapi\AppData\Local\Temp\cc3AqCjg.s:13893  .debug_str:0000000000001d4a .LASF55
C:\Users\stapi\AppData\Local\Temp\cc3AqCjg.s:13661  .debug_str:00000000000012e4 .LASF56
C:\Users\stapi\AppData\Local\Temp\cc3AqCjg.s:14153  .debug_str:00000000000028e9 .LASF57
C:\Users\stapi\AppData\Local\Temp\cc3AqCjg.s:13299  .debug_str:0000000000000211 .LASF58
C:\Users\stapi\AppData\Local\Temp\cc3AqCjg.s:14587  .debug_str:0000000000003cd2 .LASF59
C:\Users\stapi\AppData\Local\Temp\cc3AqCjg.s:14985  .debug_str:00000000000050c8 .LASF60
C:\Users\stapi\AppData\Local\Temp\cc3AqCjg.s:14591  .debug_str:0000000000003d06 .LASF61
C:\Users\stapi\AppData\Local\Temp\cc3AqCjg.s:13717  .debug_str:000000000000158e .LASF62
C:\Users\stapi\AppData\Local\Temp\cc3AqCjg.s:14753  .debug_str:0000000000004610 .LASF63
C:\Users\stapi\AppData\Local\Temp\cc3AqCjg.s:14411  .debug_str:00000000000034bf .LASF64
C:\Users\stapi\AppData\Local\Temp\cc3AqCjg.s:15017  .debug_str:0000000000005299 .LASF65
C:\Users\stapi\AppData\Local\Temp\cc3AqCjg.s:13333  .debug_str:000000000000039e .LASF66
C:\Users\stapi\AppData\Local\Temp\cc3AqCjg.s:14811  .debug_str:00000000000048ce .LASF67
C:\Users\stapi\AppData\Local\Temp\cc3AqCjg.s:15311  .debug_str:000000000000612c .LASF68
C:\Users\stapi\AppData\Local\Temp\cc3AqCjg.s:15493  .debug_str:00000000000069a5 .LASF69
C:\Users\stapi\AppData\Local\Temp\cc3AqCjg.s:13847  .debug_str:0000000000001b12 .LASF70
C:\Users\stapi\AppData\Local\Temp\cc3AqCjg.s:14745  .debug_str:00000000000044be .LASF71
C:\Users\stapi\AppData\Local\Temp\cc3AqCjg.s:14277  .debug_str:0000000000002e8f .LASF72
C:\Users\stapi\AppData\Local\Temp\cc3AqCjg.s:14213  .debug_str:0000000000002bb2 .LASF73
C:\Users\stapi\AppData\Local\Temp\cc3AqCjg.s:15147  .debug_str:00000000000058d2 .LASF74
C:\Users\stapi\AppData\Local\Temp\cc3AqCjg.s:15375  .debug_str:00000000000063f0 .LASF75
C:\Users\stapi\AppData\Local\Temp\cc3AqCjg.s:14637  .debug_str:0000000000003f3c .LASF76
C:\Users\stapi\AppData\Local\Temp\cc3AqCjg.s:14457  .debug_str:00000000000036e4 .LASF77
C:\Users\stapi\AppData\Local\Temp\cc3AqCjg.s:13413  .debug_str:0000000000000758 .LASF78
C:\Users\stapi\AppData\Local\Temp\cc3AqCjg.s:13287  .debug_str:0000000000000195 .LASF79
C:\Users\stapi\AppData\Local\Temp\cc3AqCjg.s:13713  .debug_str:000000000000155e .LASF80
C:\Users\stapi\AppData\Local\Temp\cc3AqCjg.s:15267  .debug_str:0000000000005ef9 .LASF81
C:\Users\stapi\AppData\Local\Temp\cc3AqCjg.s:14315  .debug_str:000000000000304d .LASF82
C:\Users\stapi\AppData\Local\Temp\cc3AqCjg.s:13483  .debug_str:0000000000000ab8 .LASF83
C:\Users\stapi\AppData\Local\Temp\cc3AqCjg.s:13347  .debug_str:0000000000000433 .LASF84
C:\Users\stapi\AppData\Local\Temp\cc3AqCjg.s:14771  .debug_str:000000000000471c .LASF85
C:\Users\stapi\AppData\Local\Temp\cc3AqCjg.s:14545  .debug_str:0000000000003ade .LASF86
C:\Users\stapi\AppData\Local\Temp\cc3AqCjg.s:14189  .debug_str:0000000000002a70 .LASF87
C:\Users\stapi\AppData\Local\Temp\cc3AqCjg.s:13583  .debug_str:0000000000000f55 .LASF88
C:\Users\stapi\AppData\Local\Temp\cc3AqCjg.s:14109  .debug_str:00000000000026d5 .LASF89
C:\Users\stapi\AppData\Local\Temp\cc3AqCjg.s:14747  .debug_str:00000000000044d8 .LASF90
C:\Users\stapi\AppData\Local\Temp\cc3AqCjg.s:13973  .debug_str:0000000000002058 .LASF91
C:\Users\stapi\AppData\Local\Temp\cc3AqCjg.s:14375  .debug_str:0000000000003331 .LASF92
C:\Users\stapi\AppData\Local\Temp\cc3AqCjg.s:13987  .debug_str:0000000000002116 .LASF93
C:\Users\stapi\AppData\Local\Temp\cc3AqCjg.s:15435  .debug_str:00000000000066a0 .LASF94
C:\Users\stapi\AppData\Local\Temp\cc3AqCjg.s:14477  .debug_str:00000000000037c8 .LASF95
C:\Users\stapi\AppData\Local\Temp\cc3AqCjg.s:13277  .debug_str:000000000000012b .LASF96
C:\Users\stapi\AppData\Local\Temp\cc3AqCjg.s:15571  .debug_str:0000000000006d3b .LASF97
C:\Users\stapi\AppData\Local\Temp\cc3AqCjg.s:13557  .debug_str:0000000000000e12 .LASF98
C:\Users\stapi\AppData\Local\Temp\cc3AqCjg.s:13705  .debug_str:00000000000014f1 .LASF99
C:\Users\stapi\AppData\Local\Temp\cc3AqCjg.s:14019  .debug_str:00000000000022c5 .LASF100
C:\Users\stapi\AppData\Local\Temp\cc3AqCjg.s:15433  .debug_str:000000000000667e .LASF101
C:\Users\stapi\AppData\Local\Temp\cc3AqCjg.s:13361  .debug_str:00000000000004e7 .LASF102
C:\Users\stapi\AppData\Local\Temp\cc3AqCjg.s:14543  .debug_str:0000000000003abc .LASF103
C:\Users\stapi\AppData\Local\Temp\cc3AqCjg.s:14267  .debug_str:0000000000002e03 .LASF104
C:\Users\stapi\AppData\Local\Temp\cc3AqCjg.s:15611  .debug_str:0000000000006f04 .LASF105
C:\Users\stapi\AppData\Local\Temp\cc3AqCjg.s:15621  .debug_str:0000000000006f83 .LASF106
C:\Users\stapi\AppData\Local\Temp\cc3AqCjg.s:15287  .debug_str:0000000000005fd8 .LASF107
C:\Users\stapi\AppData\Local\Temp\cc3AqCjg.s:13739  .debug_str:0000000000001694 .LASF108
C:\Users\stapi\AppData\Local\Temp\cc3AqCjg.s:14427  .debug_str:0000000000003582 .LASF109
C:\Users\stapi\AppData\Local\Temp\cc3AqCjg.s:14161  .debug_str:0000000000002941 .LASF110
C:\Users\stapi\AppData\Local\Temp\cc3AqCjg.s:15197  .debug_str:0000000000005b49 .LASF111
C:\Users\stapi\AppData\Local\Temp\cc3AqCjg.s:13867  .debug_str:0000000000001c03 .LASF112
C:\Users\stapi\AppData\Local\Temp\cc3AqCjg.s:14349  .debug_str:00000000000031f5 .LASF113
C:\Users\stapi\AppData\Local\Temp\cc3AqCjg.s:14939  .debug_str:0000000000004ed9 .LASF114
C:\Users\stapi\AppData\Local\Temp\cc3AqCjg.s:13869  .debug_str:0000000000001c23 .LASF115
C:\Users\stapi\AppData\Local\Temp\cc3AqCjg.s:14147  .debug_str:0000000000002891 .LASF116
C:\Users\stapi\AppData\Local\Temp\cc3AqCjg.s:15341  .debug_str:000000000000627a .LASF117
C:\Users\stapi\AppData\Local\Temp\cc3AqCjg.s:14529  .debug_str:00000000000039f6 .LASF118
C:\Users\stapi\AppData\Local\Temp\cc3AqCjg.s:13983  .debug_str:00000000000020d9 .LASF119
C:\Users\stapi\AppData\Local\Temp\cc3AqCjg.s:14711  .debug_str:00000000000042f2 .LASF120
C:\Users\stapi\AppData\Local\Temp\cc3AqCjg.s:14393  .debug_str:00000000000033f5 .LASF121
C:\Users\stapi\AppData\Local\Temp\cc3AqCjg.s:14875  .debug_str:0000000000004ba9 .LASF122
C:\Users\stapi\AppData\Local\Temp\cc3AqCjg.s:13575  .debug_str:0000000000000f04 .LASF123
C:\Users\stapi\AppData\Local\Temp\cc3AqCjg.s:15565  .debug_str:0000000000006cff .LASF124
C:\Users\stapi\AppData\Local\Temp\cc3AqCjg.s:15005  .debug_str:00000000000051e9 .LASF125
C:\Users\stapi\AppData\Local\Temp\cc3AqCjg.s:14841  .debug_str:0000000000004a0d .LASF126
C:\Users\stapi\AppData\Local\Temp\cc3AqCjg.s:14667  .debug_str:000000000000407a .LASF127
C:\Users\stapi\AppData\Local\Temp\cc3AqCjg.s:15405  .debug_str:0000000000006568 .LASF128
C:\Users\stapi\AppData\Local\Temp\cc3AqCjg.s:13591  .debug_str:0000000000000fc4 .LASF129
C:\Users\stapi\AppData\Local\Temp\cc3AqCjg.s:13453  .debug_str:000000000000092b .LASF130
C:\Users\stapi\AppData\Local\Temp\cc3AqCjg.s:15155  .debug_str:000000000000594e .LASF131
C:\Users\stapi\AppData\Local\Temp\cc3AqCjg.s:14773  .debug_str:000000000000473b .LASF132
C:\Users\stapi\AppData\Local\Temp\cc3AqCjg.s:15527  .debug_str:0000000000006b35 .LASF133
C:\Users\stapi\AppData\Local\Temp\cc3AqCjg.s:14725  .debug_str:00000000000043be .LASF134
C:\Users\stapi\AppData\Local\Temp\cc3AqCjg.s:15137  .debug_str:0000000000005851 .LASF135
C:\Users\stapi\AppData\Local\Temp\cc3AqCjg.s:13611  .debug_str:00000000000010a5 .LASF136
C:\Users\stapi\AppData\Local\Temp\cc3AqCjg.s:13503  .debug_str:0000000000000bbe .LASF137
C:\Users\stapi\AppData\Local\Temp\cc3AqCjg.s:15103  .debug_str:00000000000056d0 .LASF138
C:\Users\stapi\AppData\Local\Temp\cc3AqCjg.s:15379  .debug_str:000000000000642e .LASF139
C:\Users\stapi\AppData\Local\Temp\cc3AqCjg.s:14865  .debug_str:0000000000004b33 .LASF140
C:\Users\stapi\AppData\Local\Temp\cc3AqCjg.s:14175  .debug_str:00000000000029dd .LASF141
C:\Users\stapi\AppData\Local\Temp\cc3AqCjg.s:14379  .debug_str:0000000000003354 .LASF142
C:\Users\stapi\AppData\Local\Temp\cc3AqCjg.s:15269  .debug_str:0000000000005f10 .LASF143
C:\Users\stapi\AppData\Local\Temp\cc3AqCjg.s:13881  .debug_str:0000000000001cb6 .LASF144
C:\Users\stapi\AppData\Local\Temp\cc3AqCjg.s:13255  .debug_str:0000000000000033 .LASF145
C:\Users\stapi\AppData\Local\Temp\cc3AqCjg.s:14323  .debug_str:00000000000030bb .LASF146
C:\Users\stapi\AppData\Local\Temp\cc3AqCjg.s:13687  .debug_str:0000000000001434 .LASF147
C:\Users\stapi\AppData\Local\Temp\cc3AqCjg.s:15619  .debug_str:0000000000006f6f .LASF148
C:\Users\stapi\AppData\Local\Temp\cc3AqCjg.s:15399  .debug_str:0000000000006535 .LASF149
C:\Users\stapi\AppData\Local\Temp\cc3AqCjg.s:15589  .debug_str:0000000000006dfc .LASF150
C:\Users\stapi\AppData\Local\Temp\cc3AqCjg.s:14475  .debug_str:00000000000037ac .LASF151
C:\Users\stapi\AppData\Local\Temp\cc3AqCjg.s:14807  .debug_str:0000000000004898 .LASF152
C:\Users\stapi\AppData\Local\Temp\cc3AqCjg.s:15043  .debug_str:00000000000053cd .LASF153
C:\Users\stapi\AppData\Local\Temp\cc3AqCjg.s:14651  .debug_str:0000000000003fc0 .LASF154
C:\Users\stapi\AppData\Local\Temp\cc3AqCjg.s:15065  .debug_str:00000000000054cb .LASF155
C:\Users\stapi\AppData\Local\Temp\cc3AqCjg.s:13979  .debug_str:00000000000020b9 .LASF156
C:\Users\stapi\AppData\Local\Temp\cc3AqCjg.s:15643  .debug_str:0000000000007092 .LASF157
C:\Users\stapi\AppData\Local\Temp\cc3AqCjg.s:13683  .debug_str:0000000000001407 .LASF158
C:\Users\stapi\AppData\Local\Temp\cc3AqCjg.s:15091  .debug_str:0000000000005647 .LASF159
C:\Users\stapi\AppData\Local\Temp\cc3AqCjg.s:14085  .debug_str:00000000000025ba .LASF160
C:\Users\stapi\AppData\Local\Temp\cc3AqCjg.s:14755  .debug_str:0000000000004630 .LASF161
C:\Users\stapi\AppData\Local\Temp\cc3AqCjg.s:15377  .debug_str:0000000000006409 .LASF162
C:\Users\stapi\AppData\Local\Temp\cc3AqCjg.s:13401  .debug_str:00000000000006d4 .LASF163
C:\Users\stapi\AppData\Local\Temp\cc3AqCjg.s:13761  .debug_str:00000000000017a8 .LASF164
C:\Users\stapi\AppData\Local\Temp\cc3AqCjg.s:13417  .debug_str:0000000000000794 .LASF165
C:\Users\stapi\AppData\Local\Temp\cc3AqCjg.s:14089  .debug_str:00000000000025f4 .LASF166
C:\Users\stapi\AppData\Local\Temp\cc3AqCjg.s:14761  .debug_str:0000000000004696 .LASF167
C:\Users\stapi\AppData\Local\Temp\cc3AqCjg.s:14369  .debug_str:00000000000032dc .LASF168
C:\Users\stapi\AppData\Local\Temp\cc3AqCjg.s:14211  .debug_str:0000000000002b92 .LASF169
C:\Users\stapi\AppData\Local\Temp\cc3AqCjg.s:13745  .debug_str:00000000000016d6 .LASF170
C:\Users\stapi\AppData\Local\Temp\cc3AqCjg.s:13565  .debug_str:0000000000000e81 .LASF171
C:\Users\stapi\AppData\Local\Temp\cc3AqCjg.s:14883  .debug_str:0000000000004c1c .LASF172
C:\Users\stapi\AppData\Local\Temp\cc3AqCjg.s:13369  .debug_str:0000000000000554 .LASF173
C:\Users\stapi\AppData\Local\Temp\cc3AqCjg.s:13473  .debug_str:0000000000000a3f .LASF174
C:\Users\stapi\AppData\Local\Temp\cc3AqCjg.s:13763  .debug_str:00000000000017ce .LASF175
C:\Users\stapi\AppData\Local\Temp\cc3AqCjg.s:13659  .debug_str:00000000000012c3 .LASF176
C:\Users\stapi\AppData\Local\Temp\cc3AqCjg.s:15551  .debug_str:0000000000006c70 .LASF177
C:\Users\stapi\AppData\Local\Temp\cc3AqCjg.s:15489  .debug_str:000000000000696e .LASF178
C:\Users\stapi\AppData\Local\Temp\cc3AqCjg.s:14259  .debug_str:0000000000002dbf .LASF179
C:\Users\stapi\AppData\Local\Temp\cc3AqCjg.s:14119  .debug_str:0000000000002747 .LASF180
C:\Users\stapi\AppData\Local\Temp\cc3AqCjg.s:14061  .debug_str:0000000000002494 .LASF181
C:\Users\stapi\AppData\Local\Temp\cc3AqCjg.s:14871  .debug_str:0000000000004b75 .LASF182
C:\Users\stapi\AppData\Local\Temp\cc3AqCjg.s:15225  .debug_str:0000000000005c75 .LASF183
C:\Users\stapi\AppData\Local\Temp\cc3AqCjg.s:14677  .debug_str:00000000000040e3 .LASF184
C:\Users\stapi\AppData\Local\Temp\cc3AqCjg.s:14995  .debug_str:000000000000515d .LASF185
C:\Users\stapi\AppData\Local\Temp\cc3AqCjg.s:13989  .debug_str:0000000000002134 .LASF186
C:\Users\stapi\AppData\Local\Temp\cc3AqCjg.s:14483  .debug_str:000000000000381e .LASF187
C:\Users\stapi\AppData\Local\Temp\cc3AqCjg.s:15177  .debug_str:0000000000005a3e .LASF188
C:\Users\stapi\AppData\Local\Temp\cc3AqCjg.s:15477  .debug_str:00000000000068ba .LASF189
C:\Users\stapi\AppData\Local\Temp\cc3AqCjg.s:14889  .debug_str:0000000000004c77 .LASF190
C:\Users\stapi\AppData\Local\Temp\cc3AqCjg.s:13645  .debug_str:000000000000121c .LASF191
C:\Users\stapi\AppData\Local\Temp\cc3AqCjg.s:14527  .debug_str:00000000000039de .LASF192
C:\Users\stapi\AppData\Local\Temp\cc3AqCjg.s:15113  .debug_str:0000000000005739 .LASF193
C:\Users\stapi\AppData\Local\Temp\cc3AqCjg.s:14383  .debug_str:0000000000003377 .LASF194
C:\Users\stapi\AppData\Local\Temp\cc3AqCjg.s:15585  .debug_str:0000000000006dbf .LASF195
C:\Users\stapi\AppData\Local\Temp\cc3AqCjg.s:15607  .debug_str:0000000000006ed2 .LASF196
C:\Users\stapi\AppData\Local\Temp\cc3AqCjg.s:13323  .debug_str:0000000000000330 .LASF197
C:\Users\stapi\AppData\Local\Temp\cc3AqCjg.s:14927  .debug_str:0000000000004e2a .LASF198
C:\Users\stapi\AppData\Local\Temp\cc3AqCjg.s:13517  .debug_str:0000000000000c73 .LASF199
C:\Users\stapi\AppData\Local\Temp\cc3AqCjg.s:14201  .debug_str:0000000000002b19 .LASF200
C:\Users\stapi\AppData\Local\Temp\cc3AqCjg.s:14097  .debug_str:000000000000264f .LASF201
C:\Users\stapi\AppData\Local\Temp\cc3AqCjg.s:14713  .debug_str:000000000000431c .LASF202
C:\Users\stapi\AppData\Local\Temp\cc3AqCjg.s:13507  .debug_str:0000000000000bf9 .LASF203
C:\Users\stapi\AppData\Local\Temp\cc3AqCjg.s:13307  .debug_str:000000000000027f .LASF204
C:\Users\stapi\AppData\Local\Temp\cc3AqCjg.s:13747  .debug_str:00000000000016f8 .LASF205
C:\Users\stapi\AppData\Local\Temp\cc3AqCjg.s:13807  .debug_str:0000000000001987 .LASF206
C:\Users\stapi\AppData\Local\Temp\cc3AqCjg.s:14721  .debug_str:0000000000004388 .LASF207
C:\Users\stapi\AppData\Local\Temp\cc3AqCjg.s:14017  .debug_str:00000000000022a3 .LASF208
C:\Users\stapi\AppData\Local\Temp\cc3AqCjg.s:13437  .debug_str:000000000000085f .LASF209
C:\Users\stapi\AppData\Local\Temp\cc3AqCjg.s:13399  .debug_str:00000000000006b2 .LASF210
C:\Users\stapi\AppData\Local\Temp\cc3AqCjg.s:15009  .debug_str:0000000000005224 .LASF211
C:\Users\stapi\AppData\Local\Temp\cc3AqCjg.s:14399  .debug_str:0000000000003445 .LASF212
C:\Users\stapi\AppData\Local\Temp\cc3AqCjg.s:15295  .debug_str:000000000000604b .LASF213
C:\Users\stapi\AppData\Local\Temp\cc3AqCjg.s:14967  .debug_str:0000000000005017 .LASF214
C:\Users\stapi\AppData\Local\Temp\cc3AqCjg.s:13313  .debug_str:00000000000002d9 .LASF215
C:\Users\stapi\AppData\Local\Temp\cc3AqCjg.s:14503  .debug_str:00000000000038eb .LASF216
C:\Users\stapi\AppData\Local\Temp\cc3AqCjg.s:13821  .debug_str:0000000000001a0d .LASF217
C:\Users\stapi\AppData\Local\Temp\cc3AqCjg.s:13365  .debug_str:0000000000000516 .LASF218
C:\Users\stapi\AppData\Local\Temp\cc3AqCjg.s:13817  .debug_str:00000000000019f2 .LASF219
C:\Users\stapi\AppData\Local\Temp\cc3AqCjg.s:14033  .debug_str:0000000000002364 .LASF220
C:\Users\stapi\AppData\Local\Temp\cc3AqCjg.s:14669  .debug_str:0000000000004092 .LASF221
C:\Users\stapi\AppData\Local\Temp\cc3AqCjg.s:14113  .debug_str:000000000000270a .LASF222
C:\Users\stapi\AppData\Local\Temp\cc3AqCjg.s:13609  .debug_str:000000000000108d .LASF226
C:\Users\stapi\AppData\Local\Temp\cc3AqCjg.s:13515  .debug_str:0000000000000c59 .LASF223
C:\Users\stapi\AppData\Local\Temp\cc3AqCjg.s:14535  .debug_str:0000000000003a40 .LASF224
C:\Users\stapi\AppData\Local\Temp\cc3AqCjg.s:13339  .debug_str:00000000000003d5 .LASF225
C:\Users\stapi\AppData\Local\Temp\cc3AqCjg.s:14877  .debug_str:0000000000004bdd .LASF227
C:\Users\stapi\AppData\Local\Temp\cc3AqCjg.s:13421  .debug_str:00000000000007c2 .LASF228
C:\Users\stapi\AppData\Local\Temp\cc3AqCjg.s:13521  .debug_str:0000000000000c9e .LASF229
C:\Users\stapi\AppData\Local\Temp\cc3AqCjg.s:13597  .debug_str:0000000000001008 .LASF230
C:\Users\stapi\AppData\Local\Temp\cc3AqCjg.s:13859  .debug_str:0000000000001ba4 .LASF231
C:\Users\stapi\AppData\Local\Temp\cc3AqCjg.s:14077  .debug_str:0000000000002553 .LASF232
C:\Users\stapi\AppData\Local\Temp\cc3AqCjg.s:14219  .debug_str:0000000000002c06 .LASF233
C:\Users\stapi\AppData\Local\Temp\cc3AqCjg.s:15129  .debug_str:00000000000057f9 .LASF234
C:\Users\stapi\AppData\Local\Temp\cc3AqCjg.s:13395  .debug_str:0000000000000685 .LASF235
C:\Users\stapi\AppData\Local\Temp\cc3AqCjg.s:13799  .debug_str:0000000000001929 .LASF236
C:\Users\stapi\AppData\Local\Temp\cc3AqCjg.s:15291  .debug_str:000000000000601c .LASF237
C:\Users\stapi\AppData\Local\Temp\cc3AqCjg.s:14727  .debug_str:00000000000043e4 .LASF238
C:\Users\stapi\AppData\Local\Temp\cc3AqCjg.s:13497  .debug_str:0000000000000b76 .LASF239
C:\Users\stapi\AppData\Local\Temp\cc3AqCjg.s:13925  .debug_str:0000000000001ea4 .LASF240
C:\Users\stapi\AppData\Local\Temp\cc3AqCjg.s:14105  .debug_str:000000000000269c .LASF241
C:\Users\stapi\AppData\Local\Temp\cc3AqCjg.s:15481  .debug_str:00000000000068ff .LASF242
C:\Users\stapi\AppData\Local\Temp\cc3AqCjg.s:13471  .debug_str:0000000000000a24 .LASF243
C:\Users\stapi\AppData\Local\Temp\cc3AqCjg.s:15115  .debug_str:000000000000575a .LASF244
C:\Users\stapi\AppData\Local\Temp\cc3AqCjg.s:14729  .debug_str:0000000000004407 .LASF245
C:\Users\stapi\AppData\Local\Temp\cc3AqCjg.s:13305  .debug_str:0000000000000265 .LASF246
C:\Users\stapi\AppData\Local\Temp\cc3AqCjg.s:13329  .debug_str:000000000000036e .LASF247
C:\Users\stapi\AppData\Local\Temp\cc3AqCjg.s:14055  .debug_str:0000000000002446 .LASF248
C:\Users\stapi\AppData\Local\Temp\cc3AqCjg.s:15443  .debug_str:0000000000006713 .LASF249
C:\Users\stapi\AppData\Local\Temp\cc3AqCjg.s:13385  .debug_str:0000000000000620 .LASF250
C:\Users\stapi\AppData\Local\Temp\cc3AqCjg.s:13681  .debug_str:00000000000013e4 .LASF251
C:\Users\stapi\AppData\Local\Temp\cc3AqCjg.s:14081  .debug_str:000000000000258e .LASF252
C:\Users\stapi\AppData\Local\Temp\cc3AqCjg.s:13797  .debug_str:000000000000191d .LASF253
C:\Users\stapi\AppData\Local\Temp\cc3AqCjg.s:14597  .debug_str:0000000000003d62 .LASF254
C:\Users\stapi\AppData\Local\Temp\cc3AqCjg.s:14463  .debug_str:0000000000003733 .LASF255
C:\Users\stapi\AppData\Local\Temp\cc3AqCjg.s:15163  .debug_str:0000000000005999 .LASF256
C:\Users\stapi\AppData\Local\Temp\cc3AqCjg.s:14731  .debug_str:0000000000004421 .LASF257
C:\Users\stapi\AppData\Local\Temp\cc3AqCjg.s:13991  .debug_str:0000000000002154 .LASF258
C:\Users\stapi\AppData\Local\Temp\cc3AqCjg.s:14491  .debug_str:0000000000003864 .LASF259
C:\Users\stapi\AppData\Local\Temp\cc3AqCjg.s:14099  .debug_str:000000000000266c .LASF260
C:\Users\stapi\AppData\Local\Temp\cc3AqCjg.s:15133  .debug_str:0000000000005828 .LASF261
C:\Users\stapi\AppData\Local\Temp\cc3AqCjg.s:14617  .debug_str:0000000000003e2b .LASF262
C:\Users\stapi\AppData\Local\Temp\cc3AqCjg.s:14473  .debug_str:0000000000003796 .LASF263
C:\Users\stapi\AppData\Local\Temp\cc3AqCjg.s:15387  .debug_str:0000000000006498 .LASF264
C:\Users\stapi\AppData\Local\Temp\cc3AqCjg.s:15497  .debug_str:00000000000069d7 .LASF265
C:\Users\stapi\AppData\Local\Temp\cc3AqCjg.s:15409  .debug_str:0000000000006594 .LASF266
C:\Users\stapi\AppData\Local\Temp\cc3AqCjg.s:14659  .debug_str:000000000000402d .LASF267
C:\Users\stapi\AppData\Local\Temp\cc3AqCjg.s:14059  .debug_str:000000000000247d .LASF268
C:\Users\stapi\AppData\Local\Temp\cc3AqCjg.s:13567  .debug_str:0000000000000e9e .LASF269
C:\Users\stapi\AppData\Local\Temp\cc3AqCjg.s:14223  .debug_str:0000000000002c47 .LASF270
C:\Users\stapi\AppData\Local\Temp\cc3AqCjg.s:15277  .debug_str:0000000000005f72 .LASF271
C:\Users\stapi\AppData\Local\Temp\cc3AqCjg.s:13755  .debug_str:0000000000001769 .LASF272
C:\Users\stapi\AppData\Local\Temp\cc3AqCjg.s:13599  .debug_str:0000000000001022 .LASF273
C:\Users\stapi\AppData\Local\Temp\cc3AqCjg.s:15215  .debug_str:0000000000005c19 .LASF274
C:\Users\stapi\AppData\Local\Temp\cc3AqCjg.s:14417  .debug_str:0000000000003519 .LASF275
C:\Users\stapi\AppData\Local\Temp\cc3AqCjg.s:14389  .debug_str:00000000000033d1 .LASF276
C:\Users\stapi\AppData\Local\Temp\cc3AqCjg.s:14401  .debug_str:000000000000346b .LASF277
C:\Users\stapi\AppData\Local\Temp\cc3AqCjg.s:14131  .debug_str:00000000000027d8 .LASF278
C:\Users\stapi\AppData\Local\Temp\cc3AqCjg.s:13787  .debug_str:00000000000018c1 .LASF279
C:\Users\stapi\AppData\Local\Temp\cc3AqCjg.s:15339  .debug_str:0000000000006273 .LASF280
C:\Users\stapi\AppData\Local\Temp\cc3AqCjg.s:15457  .debug_str:00000000000067c7 .LASF281
C:\Users\stapi\AppData\Local\Temp\cc3AqCjg.s:13289  .debug_str:00000000000001b2 .LASF282
C:\Users\stapi\AppData\Local\Temp\cc3AqCjg.s:15301  .debug_str:00000000000060a6 .LASF283
C:\Users\stapi\AppData\Local\Temp\cc3AqCjg.s:13481  .debug_str:0000000000000ab0 .LASF284
C:\Users\stapi\AppData\Local\Temp\cc3AqCjg.s:15205  .debug_str:0000000000005bad .LASF285
C:\Users\stapi\AppData\Local\Temp\cc3AqCjg.s:14907  .debug_str:0000000000004d55 .LASF286
C:\Users\stapi\AppData\Local\Temp\cc3AqCjg.s:14007  .debug_str:000000000000222f .LASF287
C:\Users\stapi\AppData\Local\Temp\cc3AqCjg.s:13387  .debug_str:0000000000000643 .LASF288
C:\Users\stapi\AppData\Local\Temp\cc3AqCjg.s:13759  .debug_str:0000000000001794 .LASF289
C:\Users\stapi\AppData\Local\Temp\cc3AqCjg.s:13743  .debug_str:00000000000016ce .LASF290
C:\Users\stapi\AppData\Local\Temp\cc3AqCjg.s:14307  .debug_str:0000000000002ffd .LASF291
C:\Users\stapi\AppData\Local\Temp\cc3AqCjg.s:13653  .debug_str:000000000000127f .LASF292
C:\Users\stapi\AppData\Local\Temp\cc3AqCjg.s:13435  .debug_str:0000000000000854 .LASF293
C:\Users\stapi\AppData\Local\Temp\cc3AqCjg.s:15025  .debug_str:00000000000052f9 .LASF294
C:\Users\stapi\AppData\Local\Temp\cc3AqCjg.s:15067  .debug_str:00000000000054e9 .LASF295
C:\Users\stapi\AppData\Local\Temp\cc3AqCjg.s:13785  .debug_str:00000000000018ae .LASF296
C:\Users\stapi\AppData\Local\Temp\cc3AqCjg.s:13907  .debug_str:0000000000001de6 .LASF297
C:\Users\stapi\AppData\Local\Temp\cc3AqCjg.s:14843  .debug_str:0000000000004a2b .LASF298
C:\Users\stapi\AppData\Local\Temp\cc3AqCjg.s:14187  .debug_str:0000000000002a62 .LASF299
C:\Users\stapi\AppData\Local\Temp\cc3AqCjg.s:14429  .debug_str:00000000000035a7 .LASF300
C:\Users\stapi\AppData\Local\Temp\cc3AqCjg.s:14169  .debug_str:0000000000002988 .LASF301
C:\Users\stapi\AppData\Local\Temp\cc3AqCjg.s:13363  .debug_str:000000000000050a .LASF302
C:\Users\stapi\AppData\Local\Temp\cc3AqCjg.s:15019  .debug_str:00000000000052b6 .LASF303
C:\Users\stapi\AppData\Local\Temp\cc3AqCjg.s:14263  .debug_str:0000000000002ded .LASF304
C:\Users\stapi\AppData\Local\Temp\cc3AqCjg.s:15531  .debug_str:0000000000006b66 .LASF305
C:\Users\stapi\AppData\Local\Temp\cc3AqCjg.s:14599  .debug_str:0000000000003d74 .LASF306
C:\Users\stapi\AppData\Local\Temp\cc3AqCjg.s:13921  .debug_str:0000000000001e68 .LASF307
C:\Users\stapi\AppData\Local\Temp\cc3AqCjg.s:15361  .debug_str:000000000000635d .LASF308
C:\Users\stapi\AppData\Local\Temp\cc3AqCjg.s:13967  .debug_str:000000000000201f .LASF309
C:\Users\stapi\AppData\Local\Temp\cc3AqCjg.s:15421  .debug_str:000000000000660a .LASF310
C:\Users\stapi\AppData\Local\Temp\cc3AqCjg.s:13707  .debug_str:0000000000001512 .LASF311
C:\Users\stapi\AppData\Local\Temp\cc3AqCjg.s:14023  .debug_str:00000000000022fc .LASF312
C:\Users\stapi\AppData\Local\Temp\cc3AqCjg.s:13541  .debug_str:0000000000000d69 .LASF313
C:\Users\stapi\AppData\Local\Temp\cc3AqCjg.s:14553  .debug_str:0000000000003b3c .LASF314
C:\Users\stapi\AppData\Local\Temp\cc3AqCjg.s:13325  .debug_str:0000000000000353 .LASF315
C:\Users\stapi\AppData\Local\Temp\cc3AqCjg.s:14251  .debug_str:0000000000002d82 .LASF316
C:\Users\stapi\AppData\Local\Temp\cc3AqCjg.s:13981  .debug_str:00000000000020d0 .LASF317
C:\Users\stapi\AppData\Local\Temp\cc3AqCjg.s:14785  .debug_str:00000000000047d7 .LASF318
C:\Users\stapi\AppData\Local\Temp\cc3AqCjg.s:14715  .debug_str:0000000000004337 .LASF319
C:\Users\stapi\AppData\Local\Temp\cc3AqCjg.s:13375  .debug_str:00000000000005a9 .LASF320
C:\Users\stapi\AppData\Local\Temp\cc3AqCjg.s:13285  .debug_str:0000000000000188 .LASF321
C:\Users\stapi\AppData\Local\Temp\cc3AqCjg.s:13765  .debug_str:00000000000017ed .LASF322
C:\Users\stapi\AppData\Local\Temp\cc3AqCjg.s:14791  .debug_str:0000000000004815 .LASF323
C:\Users\stapi\AppData\Local\Temp\cc3AqCjg.s:14037  .debug_str:0000000000002388 .LASF324
C:\Users\stapi\AppData\Local\Temp\cc3AqCjg.s:14869  .debug_str:0000000000004b6e .LASF325
C:\Users\stapi\AppData\Local\Temp\cc3AqCjg.s:14945  .debug_str:0000000000004f22 .LASF326
C:\Users\stapi\AppData\Local\Temp\cc3AqCjg.s:13295  .debug_str:00000000000001f4 .LASF327
C:\Users\stapi\AppData\Local\Temp\cc3AqCjg.s:13607  .debug_str:0000000000001084 .LASF328
C:\Users\stapi\AppData\Local\Temp\cc3AqCjg.s:15355  .debug_str:000000000000632a .LASF329
C:\Users\stapi\AppData\Local\Temp\cc3AqCjg.s:14363  .debug_str:0000000000003296 .LASF330
C:\Users\stapi\AppData\Local\Temp\cc3AqCjg.s:13909  .debug_str:0000000000001df7 .LASF331
C:\Users\stapi\AppData\Local\Temp\cc3AqCjg.s:14049  .debug_str:0000000000002410 .LASF332
C:\Users\stapi\AppData\Local\Temp\cc3AqCjg.s:13561  .debug_str:0000000000000e51 .LASF333
C:\Users\stapi\AppData\Local\Temp\cc3AqCjg.s:13349  .debug_str:0000000000000444 .LASF334
C:\Users\stapi\AppData\Local\Temp\cc3AqCjg.s:14953  .debug_str:0000000000004f96 .LASF335
C:\Users\stapi\AppData\Local\Temp\cc3AqCjg.s:13757  .debug_str:0000000000001777 .LASF336
C:\Users\stapi\AppData\Local\Temp\cc3AqCjg.s:14837  .debug_str:00000000000049ee .LASF337
C:\Users\stapi\AppData\Local\Temp\cc3AqCjg.s:14221  .debug_str:0000000000002c25 .LASF338
C:\Users\stapi\AppData\Local\Temp\cc3AqCjg.s:14241  .debug_str:0000000000002d25 .LASF339
C:\Users\stapi\AppData\Local\Temp\cc3AqCjg.s:13895  .debug_str:0000000000001d64 .LASF340
C:\Users\stapi\AppData\Local\Temp\cc3AqCjg.s:13685  .debug_str:000000000000142c .LASF341
C:\Users\stapi\AppData\Local\Temp\cc3AqCjg.s:14707  .debug_str:00000000000042d1 .LASF342
C:\Users\stapi\AppData\Local\Temp\cc3AqCjg.s:15071  .debug_str:0000000000005517 .LASF343
C:\Users\stapi\AppData\Local\Temp\cc3AqCjg.s:13917  .debug_str:0000000000001e3e .LASF344
C:\Users\stapi\AppData\Local\Temp\cc3AqCjg.s:15305  .debug_str:00000000000060cb .LASF345
C:\Users\stapi\AppData\Local\Temp\cc3AqCjg.s:14969  .debug_str:000000000000502a .LASF346
C:\Users\stapi\AppData\Local\Temp\cc3AqCjg.s:14693  .debug_str:00000000000041a3 .LASF347
C:\Users\stapi\AppData\Local\Temp\cc3AqCjg.s:14377  .debug_str:000000000000334b .LASF348
C:\Users\stapi\AppData\Local\Temp\cc3AqCjg.s:14733  .debug_str:0000000000004433 .LASF349
C:\Users\stapi\AppData\Local\Temp\cc3AqCjg.s:14971  .debug_str:000000000000502f .LASF350
C:\Users\stapi\AppData\Local\Temp\cc3AqCjg.s:15593  .debug_str:0000000000006e23 .LASF351
C:\Users\stapi\AppData\Local\Temp\cc3AqCjg.s:15213  .debug_str:0000000000005c0f .LASF352
C:\Users\stapi\AppData\Local\Temp\cc3AqCjg.s:13857  .debug_str:0000000000001b88 .LASF353
C:\Users\stapi\AppData\Local\Temp\cc3AqCjg.s:15233  .debug_str:0000000000005d48 .LASF354
C:\Users\stapi\AppData\Local\Temp\cc3AqCjg.s:14581  .debug_str:0000000000003c84 .LASF355
C:\Users\stapi\AppData\Local\Temp\cc3AqCjg.s:14657  .debug_str:0000000000004011 .LASF356
C:\Users\stapi\AppData\Local\Temp\cc3AqCjg.s:14787  .debug_str:00000000000047e4 .LASF357
C:\Users\stapi\AppData\Local\Temp\cc3AqCjg.s:13355  .debug_str:0000000000000494 .LASF358
C:\Users\stapi\AppData\Local\Temp\cc3AqCjg.s:15557  .debug_str:0000000000006cb3 .LASF359
C:\Users\stapi\AppData\Local\Temp\cc3AqCjg.s:13689  .debug_str:0000000000001449 .LASF360
C:\Users\stapi\AppData\Local\Temp\cc3AqCjg.s:13781  .debug_str:0000000000001877 .LASF361
C:\Users\stapi\AppData\Local\Temp\cc3AqCjg.s:13825  .debug_str:0000000000001a3a .LASF362
C:\Users\stapi\AppData\Local\Temp\cc3AqCjg.s:13891  .debug_str:0000000000001d43 .LASF363
C:\Users\stapi\AppData\Local\Temp\cc3AqCjg.s:15547  .debug_str:0000000000006c3e .LASF364
C:\Users\stapi\AppData\Local\Temp\cc3AqCjg.s:13615  .debug_str:00000000000010d8 .LASF365
C:\Users\stapi\AppData\Local\Temp\cc3AqCjg.s:13427  .debug_str:0000000000000806 .LASF366
C:\Users\stapi\AppData\Local\Temp\cc3AqCjg.s:15517  .debug_str:0000000000006ab2 .LASF367
C:\Users\stapi\AppData\Local\Temp\cc3AqCjg.s:15503  .debug_str:0000000000006a1f .LASF368
C:\Users\stapi\AppData\Local\Temp\cc3AqCjg.s:13391  .debug_str:000000000000065d .LASF369
C:\Users\stapi\AppData\Local\Temp\cc3AqCjg.s:14803  .debug_str:000000000000487c .LASF370
C:\Users\stapi\AppData\Local\Temp\cc3AqCjg.s:15587  .debug_str:0000000000006de2 .LASF371
C:\Users\stapi\AppData\Local\Temp\cc3AqCjg.s:13741  .debug_str:00000000000016c8 .LASF372
C:\Users\stapi\AppData\Local\Temp\cc3AqCjg.s:14797  .debug_str:0000000000004841 .LASF373
C:\Users\stapi\AppData\Local\Temp\cc3AqCjg.s:15283  .debug_str:0000000000005f9f .LASF374
C:\Users\stapi\AppData\Local\Temp\cc3AqCjg.s:13641  .debug_str:00000000000011ec .LASF375
C:\Users\stapi\AppData\Local\Temp\cc3AqCjg.s:14179  .debug_str:0000000000002a04 .LASF376
C:\Users\stapi\AppData\Local\Temp\cc3AqCjg.s:14197  .debug_str:0000000000002ae8 .LASF377
C:\Users\stapi\AppData\Local\Temp\cc3AqCjg.s:13735  .debug_str:0000000000001668 .LASF378
C:\Users\stapi\AppData\Local\Temp\cc3AqCjg.s:14273  .debug_str:0000000000002e50 .LASF379
C:\Users\stapi\AppData\Local\Temp\cc3AqCjg.s:13783  .debug_str:000000000000188d .LASF380
C:\Users\stapi\AppData\Local\Temp\cc3AqCjg.s:14547  .debug_str:0000000000003afb .LASF381
C:\Users\stapi\AppData\Local\Temp\cc3AqCjg.s:15583  .debug_str:0000000000006db1 .LASF382
C:\Users\stapi\AppData\Local\Temp\cc3AqCjg.s:14423  .debug_str:000000000000355e .LASF383
C:\Users\stapi\AppData\Local\Temp\cc3AqCjg.s:15345  .debug_str:00000000000062af .LASF384
C:\Users\stapi\AppData\Local\Temp\cc3AqCjg.s:15637  .debug_str:000000000000705d .LASF385
C:\Users\stapi\AppData\Local\Temp\cc3AqCjg.s:15011  .debug_str:000000000000523d .LASF386
C:\Users\stapi\AppData\Local\Temp\cc3AqCjg.s:13415  .debug_str:0000000000000773 .LASF387
C:\Users\stapi\AppData\Local\Temp\cc3AqCjg.s:13927  .debug_str:0000000000001ec0 .LASF388
C:\Users\stapi\AppData\Local\Temp\cc3AqCjg.s:13571  .debug_str:0000000000000ec9 .LASF389
C:\Users\stapi\AppData\Local\Temp\cc3AqCjg.s:13711  .debug_str:0000000000001541 .LASF390
C:\Users\stapi\AppData\Local\Temp\cc3AqCjg.s:14703  .debug_str:0000000000004243 .LASF391
C:\Users\stapi\AppData\Local\Temp\cc3AqCjg.s:14691  .debug_str:0000000000004196 .LASF392
C:\Users\stapi\AppData\Local\Temp\cc3AqCjg.s:15085  .debug_str:00000000000055e3 .LASF393
C:\Users\stapi\AppData\Local\Temp\cc3AqCjg.s:14895  .debug_str:0000000000004cd0 .LASF394
C:\Users\stapi\AppData\Local\Temp\cc3AqCjg.s:14283  .debug_str:0000000000002eda .LASF395
C:\Users\stapi\AppData\Local\Temp\cc3AqCjg.s:15189  .debug_str:0000000000005ada .LASF396
C:\Users\stapi\AppData\Local\Temp\cc3AqCjg.s:14885  .debug_str:0000000000004c3b .LASF397
C:\Users\stapi\AppData\Local\Temp\cc3AqCjg.s:15373  .debug_str:00000000000063d7 .LASF398
C:\Users\stapi\AppData\Local\Temp\cc3AqCjg.s:15259  .debug_str:0000000000005e8d .LASF399
C:\Users\stapi\AppData\Local\Temp\cc3AqCjg.s:13319  .debug_str:000000000000031d .LASF400
C:\Users\stapi\AppData\Local\Temp\cc3AqCjg.s:13535  .debug_str:0000000000000d2b .LASF401
C:\Users\stapi\AppData\Local\Temp\cc3AqCjg.s:14867  .debug_str:0000000000004b55 .LASF402
C:\Users\stapi\AppData\Local\Temp\cc3AqCjg.s:13837  .debug_str:0000000000001ad7 .LASF403
C:\Users\stapi\AppData\Local\Temp\cc3AqCjg.s:14777  .debug_str:0000000000004775 .LASF404
C:\Users\stapi\AppData\Local\Temp\cc3AqCjg.s:15599  .debug_str:0000000000006e7d .LASF405
C:\Users\stapi\AppData\Local\Temp\cc3AqCjg.s:13269  .debug_str:00000000000000e3 .LASF406
C:\Users\stapi\AppData\Local\Temp\cc3AqCjg.s:15325  .debug_str:00000000000061df .LASF407
C:\Users\stapi\AppData\Local\Temp\cc3AqCjg.s:13699  .debug_str:00000000000014c4 .LASF408
C:\Users\stapi\AppData\Local\Temp\cc3AqCjg.s:15461  .debug_str:00000000000067f1 .LASF409
C:\Users\stapi\AppData\Local\Temp\cc3AqCjg.s:13903  .debug_str:0000000000001db5 .LASF410
C:\Users\stapi\AppData\Local\Temp\cc3AqCjg.s:15591  .debug_str:0000000000006e1d .LASF411
C:\Users\stapi\AppData\Local\Temp\cc3AqCjg.s:15445  .debug_str:0000000000006736 .LASF412
C:\Users\stapi\AppData\Local\Temp\cc3AqCjg.s:14979  .debug_str:000000000000507f .LASF413
C:\Users\stapi\AppData\Local\Temp\cc3AqCjg.s:15635  .debug_str:0000000000007052 .LASF414
C:\Users\stapi\AppData\Local\Temp\cc3AqCjg.s:13673  .debug_str:0000000000001384 .LASF415
C:\Users\stapi\AppData\Local\Temp\cc3AqCjg.s:14051  .debug_str:000000000000241c .LASF416
C:\Users\stapi\AppData\Local\Temp\cc3AqCjg.s:13397  .debug_str:00000000000006a4 .LASF417
C:\Users\stapi\AppData\Local\Temp\cc3AqCjg.s:13945  .debug_str:0000000000001f68 .LASF418
C:\Users\stapi\AppData\Local\Temp\cc3AqCjg.s:14685  .debug_str:0000000000004169 .LASF419
C:\Users\stapi\AppData\Local\Temp\cc3AqCjg.s:14583  .debug_str:0000000000003ca0 .LASF420
C:\Users\stapi\AppData\Local\Temp\cc3AqCjg.s:15577  .debug_str:0000000000006d90 .LASF421
C:\Users\stapi\AppData\Local\Temp\cc3AqCjg.s:13721  .debug_str:00000000000015bf .LASF422
C:\Users\stapi\AppData\Local\Temp\cc3AqCjg.s:14523  .debug_str:00000000000039ab .LASF423
C:\Users\stapi\AppData\Local\Temp\cc3AqCjg.s:14735  .debug_str:0000000000004453 .LASF424
C:\Users\stapi\AppData\Local\Temp\cc3AqCjg.s:15329  .debug_str:000000000000621f .LASF425
C:\Users\stapi\AppData\Local\Temp\cc3AqCjg.s:13823  .debug_str:0000000000001a27 .LASF426
C:\Users\stapi\AppData\Local\Temp\cc3AqCjg.s:13871  .debug_str:0000000000001c45 .LASF427
C:\Users\stapi\AppData\Local\Temp\cc3AqCjg.s:13443  .debug_str:00000000000008a2 .LASF428
C:\Users\stapi\AppData\Local\Temp\cc3AqCjg.s:14415  .debug_str:00000000000034fe .LASF429
C:\Users\stapi\AppData\Local\Temp\cc3AqCjg.s:13455  .debug_str:0000000000000945 .LASF430
C:\Users\stapi\AppData\Local\Temp\cc3AqCjg.s:13263  .debug_str:0000000000000094 .LASF431
C:\Users\stapi\AppData\Local\Temp\cc3AqCjg.s:14127  .debug_str:00000000000027a1 .LASF432
C:\Users\stapi\AppData\Local\Temp\cc3AqCjg.s:14117  .debug_str:0000000000002737 .LASF433
C:\Users\stapi\AppData\Local\Temp\cc3AqCjg.s:15383  .debug_str:0000000000006467 .LASF434
C:\Users\stapi\AppData\Local\Temp\cc3AqCjg.s:13663  .debug_str:00000000000012fe .LASF435
C:\Users\stapi\AppData\Local\Temp\cc3AqCjg.s:13657  .debug_str:00000000000012aa .LASF436
C:\Users\stapi\AppData\Local\Temp\cc3AqCjg.s:13959  .debug_str:0000000000001fe1 .LASF437
C:\Users\stapi\AppData\Local\Temp\cc3AqCjg.s:13393  .debug_str:000000000000067d .LASF438
C:\Users\stapi\AppData\Local\Temp\cc3AqCjg.s:14645  .debug_str:0000000000003f92 .LASF439
C:\Users\stapi\AppData\Local\Temp\cc3AqCjg.s:14709  .debug_str:00000000000042de .LASF440
C:\Users\stapi\AppData\Local\Temp\cc3AqCjg.s:14209  .debug_str:0000000000002b8c .LASF441
C:\Users\stapi\AppData\Local\Temp\cc3AqCjg.s:15203  .debug_str:0000000000005b9e .LASF442
C:\Users\stapi\AppData\Local\Temp\cc3AqCjg.s:13639  .debug_str:00000000000011df .LASF443
C:\Users\stapi\AppData\Local\Temp\cc3AqCjg.s:15029  .debug_str:0000000000005317 .LASF444
C:\Users\stapi\AppData\Local\Temp\cc3AqCjg.s:14515  .debug_str:0000000000003959 .LASF445
C:\Users\stapi\AppData\Local\Temp\cc3AqCjg.s:13875  .debug_str:0000000000001c77 .LASF446
C:\Users\stapi\AppData\Local\Temp\cc3AqCjg.s:14397  .debug_str:0000000000003438 .LASF447
C:\Users\stapi\AppData\Local\Temp\cc3AqCjg.s:14205  .debug_str:0000000000002b59 .LASF448
C:\Users\stapi\AppData\Local\Temp\cc3AqCjg.s:14689  .debug_str:0000000000004183 .LASF449
C:\Users\stapi\AppData\Local\Temp\cc3AqCjg.s:14799  .debug_str:000000000000484d .LASF450
C:\Users\stapi\AppData\Local\Temp\cc3AqCjg.s:13885  .debug_str:0000000000001cec .LASF451
C:\Users\stapi\AppData\Local\Temp\cc3AqCjg.s:14373  .debug_str:000000000000331b .LASF452
C:\Users\stapi\AppData\Local\Temp\cc3AqCjg.s:14067  .debug_str:00000000000024e2 .LASF453
C:\Users\stapi\AppData\Local\Temp\cc3AqCjg.s:15485  .debug_str:0000000000006937 .LASF454
C:\Users\stapi\AppData\Local\Temp\cc3AqCjg.s:13677  .debug_str:00000000000013ab .LASF455
C:\Users\stapi\AppData\Local\Temp\cc3AqCjg.s:13889  .debug_str:0000000000001d1d .LASF456
C:\Users\stapi\AppData\Local\Temp\cc3AqCjg.s:14091  .debug_str:0000000000002611 .LASF457
C:\Users\stapi\AppData\Local\Temp\cc3AqCjg.s:14351  .debug_str:0000000000003216 .LASF458
C:\Users\stapi\AppData\Local\Temp\cc3AqCjg.s:15069  .debug_str:00000000000054fd .LASF459
C:\Users\stapi\AppData\Local\Temp\cc3AqCjg.s:14789  .debug_str:00000000000047fd .LASF460
C:\Users\stapi\AppData\Local\Temp\cc3AqCjg.s:14821  .debug_str:000000000000494b .LASF461
C:\Users\stapi\AppData\Local\Temp\cc3AqCjg.s:14403  .debug_str:0000000000003475 .LASF462
C:\Users\stapi\AppData\Local\Temp\cc3AqCjg.s:14371  .debug_str:0000000000003305 .LASF463
C:\Users\stapi\AppData\Local\Temp\cc3AqCjg.s:15391  .debug_str:00000000000064c5 .LASF464
C:\Users\stapi\AppData\Local\Temp\cc3AqCjg.s:13551  .debug_str:0000000000000dde .LASF465
C:\Users\stapi\AppData\Local\Temp\cc3AqCjg.s:14589  .debug_str:0000000000003cee .LASF466
C:\Users\stapi\AppData\Local\Temp\cc3AqCjg.s:15351  .debug_str:000000000000630b .LASF467
C:\Users\stapi\AppData\Local\Temp\cc3AqCjg.s:15003  .debug_str:00000000000051d5 .LASF468
C:\Users\stapi\AppData\Local\Temp\cc3AqCjg.s:14029  .debug_str:000000000000233b .LASF469
C:\Users\stapi\AppData\Local\Temp\cc3AqCjg.s:14861  .debug_str:0000000000004b0f .LASF470
C:\Users\stapi\AppData\Local\Temp\cc3AqCjg.s:15275  .debug_str:0000000000005f61 .LASF471
C:\Users\stapi\AppData\Local\Temp\cc3AqCjg.s:14009  .debug_str:0000000000002238 .LASF472
C:\Users\stapi\AppData\Local\Temp\cc3AqCjg.s:13621  .debug_str:000000000000112f .LASF473
C:\Users\stapi\AppData\Local\Temp\cc3AqCjg.s:14281  .debug_str:0000000000002ec9 .LASF474
C:\Users\stapi\AppData\Local\Temp\cc3AqCjg.s:13513  .debug_str:0000000000000c4d .LASF475
C:\Users\stapi\AppData\Local\Temp\cc3AqCjg.s:14301  .debug_str:0000000000002fc8 .LASF476
C:\Users\stapi\AppData\Local\Temp\cc3AqCjg.s:15135  .debug_str:0000000000005842 .LASF477
C:\Users\stapi\AppData\Local\Temp\cc3AqCjg.s:13819  .debug_str:0000000000001a08 .LASF478
C:\Users\stapi\AppData\Local\Temp\cc3AqCjg.s:15447  .debug_str:000000000000673e .LASF479
C:\Users\stapi\AppData\Local\Temp\cc3AqCjg.s:14125  .debug_str:000000000000278f .LASF480
C:\Users\stapi\AppData\Local\Temp\cc3AqCjg.s:14835  .debug_str:00000000000049e6 .LASF481
C:\Users\stapi\AppData\Local\Temp\cc3AqCjg.s:14487  .debug_str:0000000000003853 .LASF482
C:\Users\stapi\AppData\Local\Temp\cc3AqCjg.s:13767  .debug_str:00000000000017f2 .LASF483
C:\Users\stapi\AppData\Local\Temp\cc3AqCjg.s:15423  .debug_str:0000000000006625 .LASF484
C:\Users\stapi\AppData\Local\Temp\cc3AqCjg.s:14343  .debug_str:00000000000031b4 .LASF485
C:\Users\stapi\AppData\Local\Temp\cc3AqCjg.s:13965  .debug_str:0000000000002015 .LASF486
C:\Users\stapi\AppData\Local\Temp\cc3AqCjg.s:15281  .debug_str:0000000000005f98 .LASF487
C:\Users\stapi\AppData\Local\Temp\cc3AqCjg.s:14145  .debug_str:0000000000002887 .LASF488
C:\Users\stapi\AppData\Local\Temp\cc3AqCjg.s:13457  .debug_str:0000000000000965 .LASF489
C:\Users\stapi\AppData\Local\Temp\cc3AqCjg.s:14893  .debug_str:0000000000004cbe .LASF490
C:\Users\stapi\AppData\Local\Temp\cc3AqCjg.s:14265  .debug_str:0000000000002df8 .LASF491
C:\Users\stapi\AppData\Local\Temp\cc3AqCjg.s:14507  .debug_str:0000000000003915 .LASF492
C:\Users\stapi\AppData\Local\Temp\cc3AqCjg.s:13525  .debug_str:0000000000000cc8 .LASF493
C:\Users\stapi\AppData\Local\Temp\cc3AqCjg.s:15539  .debug_str:0000000000006be1 .LASF494
C:\Users\stapi\AppData\Local\Temp\cc3AqCjg.s:15515  .debug_str:0000000000006aa8 .LASF495
C:\Users\stapi\AppData\Local\Temp\cc3AqCjg.s:15609  .debug_str:0000000000006eee .LASF496
C:\Users\stapi\AppData\Local\Temp\cc3AqCjg.s:14955  .debug_str:0000000000004f9f .LASF1132
C:\Users\stapi\AppData\Local\Temp\cc3AqCjg.s:14511  .debug_str:0000000000003923 .LASF497
C:\Users\stapi\AppData\Local\Temp\cc3AqCjg.s:14297  .debug_str:0000000000002faa .LASF498
C:\Users\stapi\AppData\Local\Temp\cc3AqCjg.s:15315  .debug_str:0000000000006162 .LASF499
C:\Users\stapi\AppData\Local\Temp\cc3AqCjg.s:14881  .debug_str:0000000000004c07 .LASF500
C:\Users\stapi\AppData\Local\Temp\cc3AqCjg.s:13941  .debug_str:0000000000001f33 .LASF501
C:\Users\stapi\AppData\Local\Temp\cc3AqCjg.s:13635  .debug_str:00000000000011a9 .LASF502
C:\Users\stapi\AppData\Local\Temp\cc3AqCjg.s:14743  .debug_str:00000000000044a9 .LASF503
C:\Users\stapi\AppData\Local\Temp\cc3AqCjg.s:15321  .debug_str:00000000000061b5 .LASF504
C:\Users\stapi\AppData\Local\Temp\cc3AqCjg.s:14047  .debug_str:00000000000023fb .LASF505
C:\Users\stapi\AppData\Local\Temp\cc3AqCjg.s:14123  .debug_str:0000000000002779 .LASF506
C:\Users\stapi\AppData\Local\Temp\cc3AqCjg.s:15171  .debug_str:00000000000059ec .LASF507
C:\Users\stapi\AppData\Local\Temp\cc3AqCjg.s:14341  .debug_str:000000000000319e .LASF508
C:\Users\stapi\AppData\Local\Temp\cc3AqCjg.s:15357  .debug_str:0000000000006331 .LASF509
C:\Users\stapi\AppData\Local\Temp\cc3AqCjg.s:13667  .debug_str:0000000000001334 .LASF510
C:\Users\stapi\AppData\Local\Temp\cc3AqCjg.s:14759  .debug_str:0000000000004681 .LASF511
C:\Users\stapi\AppData\Local\Temp\cc3AqCjg.s:15061  .debug_str:00000000000054ab .LASF512
C:\Users\stapi\AppData\Local\Temp\cc3AqCjg.s:13291  .debug_str:00000000000001bb .LASF513
C:\Users\stapi\AppData\Local\Temp\cc3AqCjg.s:13317  .debug_str:0000000000000307 .LASF514
C:\Users\stapi\AppData\Local\Temp\cc3AqCjg.s:14615  .debug_str:0000000000003e16 .LASF515
C:\Users\stapi\AppData\Local\Temp\cc3AqCjg.s:13461  .debug_str:0000000000000992 .LASF516
C:\Users\stapi\AppData\Local\Temp\cc3AqCjg.s:14181  .debug_str:0000000000002a21 .LASF517
C:\Users\stapi\AppData\Local\Temp\cc3AqCjg.s:14935  .debug_str:0000000000004ea1 .LASF518
C:\Users\stapi\AppData\Local\Temp\cc3AqCjg.s:13275  .debug_str:0000000000000115 .LASF519
C:\Users\stapi\AppData\Local\Temp\cc3AqCjg.s:15563  .debug_str:0000000000006ce2 .LASF520
C:\Users\stapi\AppData\Local\Temp\cc3AqCjg.s:13829  .debug_str:0000000000001a65 .LASF521
C:\Users\stapi\AppData\Local\Temp\cc3AqCjg.s:14255  .debug_str:0000000000002d9b .LASF522
C:\Users\stapi\AppData\Local\Temp\cc3AqCjg.s:15229  .debug_str:0000000000005d0c .LASF523
C:\Users\stapi\AppData\Local\Temp\cc3AqCjg.s:13563  .debug_str:0000000000000e60 .LASF524
C:\Users\stapi\AppData\Local\Temp\cc3AqCjg.s:15261  .debug_str:0000000000005ea1 .LASF525
C:\Users\stapi\AppData\Local\Temp\cc3AqCjg.s:13971  .debug_str:000000000000203c .LASF526
C:\Users\stapi\AppData\Local\Temp\cc3AqCjg.s:15309  .debug_str:0000000000006113 .LASF527
C:\Users\stapi\AppData\Local\Temp\cc3AqCjg.s:14391  .debug_str:00000000000033dc .LASF528
C:\Users\stapi\AppData\Local\Temp\cc3AqCjg.s:14539  .debug_str:0000000000003a79 .LASF529
C:\Users\stapi\AppData\Local\Temp\cc3AqCjg.s:14891  .debug_str:0000000000004c9d .LASF530
C:\Users\stapi\AppData\Local\Temp\cc3AqCjg.s:14629  .debug_str:0000000000003ee0 .LASF531
C:\Users\stapi\AppData\Local\Temp\cc3AqCjg.s:13795  .debug_str:000000000000190d .LASF532
C:\Users\stapi\AppData\Local\Temp\cc3AqCjg.s:14577  .debug_str:0000000000003c4f .LASF533
C:\Users\stapi\AppData\Local\Temp\cc3AqCjg.s:14041  .debug_str:00000000000023ba .LASF534
C:\Users\stapi\AppData\Local\Temp\cc3AqCjg.s:14561  .debug_str:0000000000003ba6 .LASF535
C:\Users\stapi\AppData\Local\Temp\cc3AqCjg.s:15395  .debug_str:00000000000064fb .LASF536
C:\Users\stapi\AppData\Local\Temp\cc3AqCjg.s:14991  .debug_str:000000000000511c .LASF537
C:\Users\stapi\AppData\Local\Temp\cc3AqCjg.s:15035  .debug_str:000000000000535a .LASF538
C:\Users\stapi\AppData\Local\Temp\cc3AqCjg.s:13853  .debug_str:0000000000001b5b .LASF539
C:\Users\stapi\AppData\Local\Temp\cc3AqCjg.s:14913  .debug_str:0000000000004d84 .LASF540
C:\Users\stapi\AppData\Local\Temp\cc3AqCjg.s:15253  .debug_str:0000000000005e3d .LASF541
C:\Users\stapi\AppData\Local\Temp\cc3AqCjg.s:15623  .debug_str:0000000000006fad .LASF542
C:\Users\stapi\AppData\Local\Temp\cc3AqCjg.s:13341  .debug_str:00000000000003f8 .LASF543
C:\Users\stapi\AppData\Local\Temp\cc3AqCjg.s:13723  .debug_str:00000000000015c8 .LASF544
C:\Users\stapi\AppData\Local\Temp\cc3AqCjg.s:14919  .debug_str:0000000000004dc6 .LASF545
C:\Users\stapi\AppData\Local\Temp\cc3AqCjg.s:14857  .debug_str:0000000000004ad8 .LASF546
C:\Users\stapi\AppData\Local\Temp\cc3AqCjg.s:14361  .debug_str:000000000000327e .LASF547
C:\Users\stapi\AppData\Local\Temp\cc3AqCjg.s:14997  .debug_str:000000000000517c .LASF548
C:\Users\stapi\AppData\Local\Temp\cc3AqCjg.s:14309  .debug_str:0000000000003005 .LASF549
C:\Users\stapi\AppData\Local\Temp\cc3AqCjg.s:15041  .debug_str:00000000000053b1 .LASF550
C:\Users\stapi\AppData\Local\Temp\cc3AqCjg.s:15099  .debug_str:0000000000005699 .LASF551
C:\Users\stapi\AppData\Local\Temp\cc3AqCjg.s:13257  .debug_str:0000000000000050 .LASF552
C:\Users\stapi\AppData\Local\Temp\cc3AqCjg.s:13627  .debug_str:0000000000001169 .LASF553
C:\Users\stapi\AppData\Local\Temp\cc3AqCjg.s:14293  .debug_str:0000000000002f6c .LASF554
C:\Users\stapi\AppData\Local\Temp\cc3AqCjg.s:13451  .debug_str:0000000000000908 .LASF555
C:\Users\stapi\AppData\Local\Temp\cc3AqCjg.s:14111  .debug_str:00000000000026ef .LASF556
C:\Users\stapi\AppData\Local\Temp\cc3AqCjg.s:14387  .debug_str:00000000000033ac .LASF557
C:\Users\stapi\AppData\Local\Temp\cc3AqCjg.s:13899  .debug_str:0000000000001d89 .LASF558
C:\Users\stapi\AppData\Local\Temp\cc3AqCjg.s:14195  .debug_str:0000000000002aca .LASF559
C:\Users\stapi\AppData\Local\Temp\cc3AqCjg.s:13883  .debug_str:0000000000001cd5 .LASF560
C:\Users\stapi\AppData\Local\Temp\cc3AqCjg.s:14003  .debug_str:00000000000021fe .LASF561
C:\Users\stapi\AppData\Local\Temp\cc3AqCjg.s:15331  .debug_str:000000000000622e .LASF562
C:\Users\stapi\AppData\Local\Temp\cc3AqCjg.s:14171  .debug_str:0000000000002996 .LASF563
C:\Users\stapi\AppData\Local\Temp\cc3AqCjg.s:15495  .debug_str:00000000000069bf .LASF564
C:\Users\stapi\AppData\Local\Temp\cc3AqCjg.s:14313  .debug_str:000000000000302d .LASF565
C:\Users\stapi\AppData\Local\Temp\cc3AqCjg.s:14769  .debug_str:0000000000004700 .LASF566
C:\Users\stapi\AppData\Local\Temp\cc3AqCjg.s:14863  .debug_str:0000000000004b1b .LASF567
C:\Users\stapi\AppData\Local\Temp\cc3AqCjg.s:13373  .debug_str:0000000000000588 .LASF568
C:\Users\stapi\AppData\Local\Temp\cc3AqCjg.s:14781  .debug_str:00000000000047a5 .LASF569
C:\Users\stapi\AppData\Local\Temp\cc3AqCjg.s:14653  .debug_str:0000000000003fd7 .LASF570
C:\Users\stapi\AppData\Local\Temp\cc3AqCjg.s:14185  .debug_str:0000000000002a4a .LASF571
C:\Users\stapi\AppData\Local\Temp\cc3AqCjg.s:14901  .debug_str:0000000000004d01 .LASF572
C:\Users\stapi\AppData\Local\Temp\cc3AqCjg.s:15245  .debug_str:0000000000005dbb .LASF573
C:\Users\stapi\AppData\Local\Temp\cc3AqCjg.s:13877  .debug_str:0000000000001c82 .LASF574
C:\Users\stapi\AppData\Local\Temp\cc3AqCjg.s:15645  .debug_str:00000000000070ae .LASF575
C:\Users\stapi\AppData\Local\Temp\cc3AqCjg.s:15265  .debug_str:0000000000005edb .LASF576
C:\Users\stapi\AppData\Local\Temp\cc3AqCjg.s:14235  .debug_str:0000000000002cca .LASF577
C:\Users\stapi\AppData\Local\Temp\cc3AqCjg.s:13273  .debug_str:00000000000000fa .LASF578
C:\Users\stapi\AppData\Local\Temp\cc3AqCjg.s:13771  .debug_str:0000000000001816 .LASF579
C:\Users\stapi\AppData\Local\Temp\cc3AqCjg.s:15201  .debug_str:0000000000005b7c .LASF580
C:\Users\stapi\AppData\Local\Temp\cc3AqCjg.s:13377  .debug_str:00000000000005b0 .LASF581
C:\Users\stapi\AppData\Local\Temp\cc3AqCjg.s:15007  .debug_str:0000000000005205 .LASF582
C:\Users\stapi\AppData\Local\Temp\cc3AqCjg.s:14217  .debug_str:0000000000002be0 .LASF583
C:\Users\stapi\AppData\Local\Temp\cc3AqCjg.s:13695  .debug_str:000000000000148a .LASF584
C:\Users\stapi\AppData\Local\Temp\cc3AqCjg.s:15633  .debug_str:000000000000702f .LASF585
C:\Users\stapi\AppData\Local\Temp\cc3AqCjg.s:15273  .debug_str:0000000000005f45 .LASF586
C:\Users\stapi\AppData\Local\Temp\cc3AqCjg.s:14681  .debug_str:000000000000411b .LASF587
C:\Users\stapi\AppData\Local\Temp\cc3AqCjg.s:15327  .debug_str:00000000000061f9 .LASF588
C:\Users\stapi\AppData\Local\Temp\cc3AqCjg.s:14611  .debug_str:0000000000003dd7 .LASF589
C:\Users\stapi\AppData\Local\Temp\cc3AqCjg.s:15293  .debug_str:0000000000006034 .LASF590
C:\Users\stapi\AppData\Local\Temp\cc3AqCjg.s:13359  .debug_str:00000000000004d3 .LASF591
C:\Users\stapi\AppData\Local\Temp\cc3AqCjg.s:14103  .debug_str:000000000000268b .LASF592
C:\Users\stapi\AppData\Local\Temp\cc3AqCjg.s:13433  .debug_str:000000000000083f .LASF593
C:\Users\stapi\AppData\Local\Temp\cc3AqCjg.s:14665  .debug_str:0000000000004065 .LASF594
C:\Users\stapi\AppData\Local\Temp\cc3AqCjg.s:13737  .debug_str:000000000000167f .LASF595
C:\Users\stapi\AppData\Local\Temp\cc3AqCjg.s:13835  .debug_str:0000000000001ac4 .LASF596
C:\Users\stapi\AppData\Local\Temp\cc3AqCjg.s:14989  .debug_str:0000000000005106 .LASF597
C:\Users\stapi\AppData\Local\Temp\cc3AqCjg.s:13487  .debug_str:0000000000000ae9 .LASF598
C:\Users\stapi\AppData\Local\Temp\cc3AqCjg.s:15077  .debug_str:0000000000005575 .LASF599
C:\Users\stapi\AppData\Local\Temp\cc3AqCjg.s:15187  .debug_str:0000000000005abb .LASF600
C:\Users\stapi\AppData\Local\Temp\cc3AqCjg.s:14015  .debug_str:0000000000002283 .LASF601
C:\Users\stapi\AppData\Local\Temp\cc3AqCjg.s:13493  .debug_str:0000000000000b3d .LASF602
C:\Users\stapi\AppData\Local\Temp\cc3AqCjg.s:13623  .debug_str:000000000000113d .LASF603
C:\Users\stapi\AppData\Local\Temp\cc3AqCjg.s:15151  .debug_str:000000000000590f .LASF604
C:\Users\stapi\AppData\Local\Temp\cc3AqCjg.s:15087  .debug_str:0000000000005606 .LASF605
C:\Users\stapi\AppData\Local\Temp\cc3AqCjg.s:13727  .debug_str:00000000000015fc .LASF606
C:\Users\stapi\AppData\Local\Temp\cc3AqCjg.s:13559  .debug_str:0000000000000e32 .LASF607
C:\Users\stapi\AppData\Local\Temp\cc3AqCjg.s:15641  .debug_str:000000000000706f .LASF608
C:\Users\stapi\AppData\Local\Temp\cc3AqCjg.s:13479  .debug_str:0000000000000a8a .LASF609
C:\Users\stapi\AppData\Local\Temp\cc3AqCjg.s:15081  .debug_str:00000000000055aa .LASF610
C:\Users\stapi\AppData\Local\Temp\cc3AqCjg.s:14247  .debug_str:0000000000002d56 .LASF611
C:\Users\stapi\AppData\Local\Temp\cc3AqCjg.s:13509  .debug_str:0000000000000c1c .LASF612
C:\Users\stapi\AppData\Local\Temp\cc3AqCjg.s:14831  .debug_str:00000000000049b3 .LASF613
C:\Users\stapi\AppData\Local\Temp\cc3AqCjg.s:15093  .debug_str:0000000000005661 .LASF614
C:\Users\stapi\AppData\Local\Temp\cc3AqCjg.s:14073  .debug_str:0000000000002524 .LASF615
C:\Users\stapi\AppData\Local\Temp\cc3AqCjg.s:14317  .debug_str:000000000000306a .LASF616
C:\Users\stapi\AppData\Local\Temp\cc3AqCjg.s:15105  .debug_str:00000000000056e9 .LASF617
C:\Users\stapi\AppData\Local\Temp\cc3AqCjg.s:15487  .debug_str:000000000000695a .LASF618
C:\Users\stapi\AppData\Local\Temp\cc3AqCjg.s:15027  .debug_str:0000000000005304 .LASF619
C:\Users\stapi\AppData\Local\Temp\cc3AqCjg.s:13997  .debug_str:00000000000021a1 .LASF620
C:\Users\stapi\AppData\Local\Temp\cc3AqCjg.s:14433  .debug_str:00000000000035cd .LASF621
C:\Users\stapi\AppData\Local\Temp\cc3AqCjg.s:14385  .debug_str:0000000000003398 .LASF622
C:\Users\stapi\AppData\Local\Temp\cc3AqCjg.s:14501  .debug_str:00000000000038d9 .LASF623
C:\Users\stapi\AppData\Local\Temp\cc3AqCjg.s:15359  .debug_str:0000000000006347 .LASF624
C:\Users\stapi\AppData\Local\Temp\cc3AqCjg.s:13813  .debug_str:00000000000019c6 .LASF625
C:\Users\stapi\AppData\Local\Temp\cc3AqCjg.s:13353  .debug_str:0000000000000480 .LASF626
C:\Users\stapi\AppData\Local\Temp\cc3AqCjg.s:15419  .debug_str:00000000000065f6 .LASF627
C:\Users\stapi\AppData\Local\Temp\cc3AqCjg.s:13855  .debug_str:0000000000001b72 .LASF628
C:\Users\stapi\AppData\Local\Temp\cc3AqCjg.s:14613  .debug_str:0000000000003e02 .LASF629
C:\Users\stapi\AppData\Local\Temp\cc3AqCjg.s:13789  .debug_str:00000000000018ce .LASF630
C:\Users\stapi\AppData\Local\Temp\cc3AqCjg.s:15123  .debug_str:00000000000057cc .LASF631
C:\Users\stapi\AppData\Local\Temp\cc3AqCjg.s:14159  .debug_str:000000000000292e .LASF632
C:\Users\stapi\AppData\Local\Temp\cc3AqCjg.s:13969  .debug_str:0000000000002026 .LASF633
C:\Users\stapi\AppData\Local\Temp\cc3AqCjg.s:13775  .debug_str:000000000000184b .LASF634
C:\Users\stapi\AppData\Local\Temp\cc3AqCjg.s:14173  .debug_str:00000000000029c1 .LASF635
C:\Users\stapi\AppData\Local\Temp\cc3AqCjg.s:13383  .debug_str:0000000000000605 .LASF636
C:\Users\stapi\AppData\Local\Temp\cc3AqCjg.s:13619  .debug_str:0000000000001110 .LASF637
C:\Users\stapi\AppData\Local\Temp\cc3AqCjg.s:14115  .debug_str:0000000000002717 .LASF638
C:\Users\stapi\AppData\Local\Temp\cc3AqCjg.s:14973  .debug_str:0000000000005034 .LASF639
C:\Users\stapi\AppData\Local\Temp\cc3AqCjg.s:13379  .debug_str:00000000000005ce .LASF640
C:\Users\stapi\AppData\Local\Temp\cc3AqCjg.s:14801  .debug_str:000000000000485d .LASF641
C:\Users\stapi\AppData\Local\Temp\cc3AqCjg.s:14923  .debug_str:0000000000004dea .LASF642
C:\Users\stapi\AppData\Local\Temp\cc3AqCjg.s:14573  .debug_str:0000000000003c26 .LASF643
C:\Users\stapi\AppData\Local\Temp\cc3AqCjg.s:14619  .debug_str:0000000000003e47 .LASF644
C:\Users\stapi\AppData\Local\Temp\cc3AqCjg.s:13793  .debug_str:00000000000018e9 .LASF645
C:\Users\stapi\AppData\Local\Temp\cc3AqCjg.s:13593  .debug_str:0000000000000fd6 .LASF646
C:\Users\stapi\AppData\Local\Temp\cc3AqCjg.s:14445  .debug_str:0000000000003654 .LASF647
C:\Users\stapi\AppData\Local\Temp\cc3AqCjg.s:13367  .debug_str:000000000000052c .LASF648
C:\Users\stapi\AppData\Local\Temp\cc3AqCjg.s:14683  .debug_str:0000000000004141 .LASF649
C:\Users\stapi\AppData\Local\Temp\cc3AqCjg.s:13459  .debug_str:0000000000000974 .LASF650
C:\Users\stapi\AppData\Local\Temp\cc3AqCjg.s:14809  .debug_str:00000000000048b0 .LASF651
C:\Users\stapi\AppData\Local\Temp\cc3AqCjg.s:13467  .debug_str:00000000000009df .LASF652
C:\Users\stapi\AppData\Local\Temp\cc3AqCjg.s:13827  .debug_str:0000000000001a41 .LASF653
C:\Users\stapi\AppData\Local\Temp\cc3AqCjg.s:15023  .debug_str:00000000000052dc .LASF654
C:\Users\stapi\AppData\Local\Temp\cc3AqCjg.s:15595  .debug_str:0000000000006e3a .LASF655
C:\Users\stapi\AppData\Local\Temp\cc3AqCjg.s:15453  .debug_str:000000000000677f .LASF656
C:\Users\stapi\AppData\Local\Temp\cc3AqCjg.s:15543  .debug_str:0000000000006bf8 .LASF657
C:\Users\stapi\AppData\Local\Temp\cc3AqCjg.s:14333  .debug_str:000000000000312b .LASF658
C:\Users\stapi\AppData\Local\Temp\cc3AqCjg.s:14533  .debug_str:0000000000003a2b .LASF659
C:\Users\stapi\AppData\Local\Temp\cc3AqCjg.s:15343  .debug_str:000000000000629c .LASF660
C:\Users\stapi\AppData\Local\Temp\cc3AqCjg.s:13519  .debug_str:0000000000000c8c .LASF661
C:\Users\stapi\AppData\Local\Temp\cc3AqCjg.s:15169  .debug_str:00000000000059d1 .LASF662
C:\Users\stapi\AppData\Local\Temp\cc3AqCjg.s:14321  .debug_str:00000000000030a0 .LASF663
C:\Users\stapi\AppData\Local\Temp\cc3AqCjg.s:14655  .debug_str:0000000000003ff6 .LASF664
C:\Users\stapi\AppData\Local\Temp\cc3AqCjg.s:13589  .debug_str:0000000000000fae .LASF665
C:\Users\stapi\AppData\Local\Temp\cc3AqCjg.s:14839  .debug_str:00000000000049f9 .LASF666
C:\Users\stapi\AppData\Local\Temp\cc3AqCjg.s:14305  .debug_str:0000000000002fe9 .LASF667
C:\Users\stapi\AppData\Local\Temp\cc3AqCjg.s:15475  .debug_str:00000000000068a8 .LASF668
C:\Users\stapi\AppData\Local\Temp\cc3AqCjg.s:15425  .debug_str:000000000000662e .LASF669
C:\Users\stapi\AppData\Local\Temp\cc3AqCjg.s:15303  .debug_str:00000000000060b4 .LASF670
C:\Users\stapi\AppData\Local\Temp\cc3AqCjg.s:14585  .debug_str:0000000000003cb6 .LASF671
C:\Users\stapi\AppData\Local\Temp\cc3AqCjg.s:14977  .debug_str:000000000000506c .LASF672
C:\Users\stapi\AppData\Local\Temp\cc3AqCjg.s:13533  .debug_str:0000000000000d18 .LASF673
C:\Users\stapi\AppData\Local\Temp\cc3AqCjg.s:15001  .debug_str:00000000000051c1 .LASF674
C:\Users\stapi\AppData\Local\Temp\cc3AqCjg.s:15613  .debug_str:0000000000006f27 .LASF675
C:\Users\stapi\AppData\Local\Temp\cc3AqCjg.s:14849  .debug_str:0000000000004a8a .LASF676
C:\Users\stapi\AppData\Local\Temp\cc3AqCjg.s:15407  .debug_str:000000000000657f .LASF677
C:\Users\stapi\AppData\Local\Temp\cc3AqCjg.s:15553  .debug_str:0000000000006c91 .LASF678
C:\Users\stapi\AppData\Local\Temp\cc3AqCjg.s:15191  .debug_str:0000000000005af2 .LASF679
C:\Users\stapi\AppData\Local\Temp\cc3AqCjg.s:13423  .debug_str:00000000000007da .LASF680
C:\Users\stapi\AppData\Local\Temp\cc3AqCjg.s:13489  .debug_str:0000000000000b00 .LASF681
C:\Users\stapi\AppData\Local\Temp\cc3AqCjg.s:14431  .debug_str:00000000000035b3 .LASF682
C:\Users\stapi\AppData\Local\Temp\cc3AqCjg.s:13679  .debug_str:00000000000013c8 .LASF683
C:\Users\stapi\AppData\Local\Temp\cc3AqCjg.s:13531  .debug_str:0000000000000cf4 .LASF684
C:\Users\stapi\AppData\Local\Temp\cc3AqCjg.s:13843  .debug_str:0000000000001af2 .LASF685
C:\Users\stapi\AppData\Local\Temp\cc3AqCjg.s:14493  .debug_str:000000000000387b .LASF686
C:\Users\stapi\AppData\Local\Temp\cc3AqCjg.s:14425  .debug_str:0000000000003565 .LASF687
C:\Users\stapi\AppData\Local\Temp\cc3AqCjg.s:15057  .debug_str:0000000000005478 .LASF688
C:\Users\stapi\AppData\Local\Temp\cc3AqCjg.s:14517  .debug_str:0000000000003969 .LASF689
C:\Users\stapi\AppData\Local\Temp\cc3AqCjg.s:15529  .debug_str:0000000000006b4e .LASF690
C:\Users\stapi\AppData\Local\Temp\cc3AqCjg.s:14357  .debug_str:0000000000003243 .LASF691
C:\Users\stapi\AppData\Local\Temp\cc3AqCjg.s:14631  .debug_str:0000000000003ef2 .LASF692
C:\Users\stapi\AppData\Local\Temp\cc3AqCjg.s:15119  .debug_str:0000000000005793 .LASF693
C:\Users\stapi\AppData\Local\Temp\cc3AqCjg.s:13999  .debug_str:00000000000021b7 .LASF694
C:\Users\stapi\AppData\Local\Temp\cc3AqCjg.s:15121  .debug_str:00000000000057b9 .LASF695
C:\Users\stapi\AppData\Local\Temp\cc3AqCjg.s:13905  .debug_str:0000000000001dd2 .LASF696
C:\Users\stapi\AppData\Local\Temp\cc3AqCjg.s:13613  .debug_str:00000000000010ba .LASF697
C:\Users\stapi\AppData\Local\Temp\cc3AqCjg.s:15473  .debug_str:0000000000006888 .LASF698
C:\Users\stapi\AppData\Local\Temp\cc3AqCjg.s:14647  .debug_str:0000000000003f98 .LASF699
C:\Users\stapi\AppData\Local\Temp\cc3AqCjg.s:14137  .debug_str:0000000000002809 .LASF700
C:\Users\stapi\AppData\Local\Temp\cc3AqCjg.s:15317  .debug_str:0000000000006177 .LASF701
C:\Users\stapi\AppData\Local\Temp\cc3AqCjg.s:14065  .debug_str:00000000000024be .LASF702
C:\Users\stapi\AppData\Local\Temp\cc3AqCjg.s:14039  .debug_str:000000000000239c .LASF703
C:\Users\stapi\AppData\Local\Temp\cc3AqCjg.s:15465  .debug_str:0000000000006819 .LASF704
C:\Users\stapi\AppData\Local\Temp\cc3AqCjg.s:15145  .debug_str:00000000000058b3 .LASF705
C:\Users\stapi\AppData\Local\Temp\cc3AqCjg.s:14897  .debug_str:0000000000004cd5 .LASF706
C:\Users\stapi\AppData\Local\Temp\cc3AqCjg.s:15231  .debug_str:0000000000005d2e .LASF707
C:\Users\stapi\AppData\Local\Temp\cc3AqCjg.s:14855  .debug_str:0000000000004abb .LASF708
C:\Users\stapi\AppData\Local\Temp\cc3AqCjg.s:14271  .debug_str:0000000000002e37 .LASF709
C:\Users\stapi\AppData\Local\Temp\cc3AqCjg.s:14627  .debug_str:0000000000003ec1 .LASF710
C:\Users\stapi\AppData\Local\Temp\cc3AqCjg.s:14013  .debug_str:0000000000002266 .LASF711
C:\Users\stapi\AppData\Local\Temp\cc3AqCjg.s:13351  .debug_str:000000000000045f .LASF712
C:\Users\stapi\AppData\Local\Temp\cc3AqCjg.s:14345  .debug_str:00000000000031bd .LASF713
C:\Users\stapi\AppData\Local\Temp\cc3AqCjg.s:15207  .debug_str:0000000000005bba .LASF714
C:\Users\stapi\AppData\Local\Temp\cc3AqCjg.s:13873  .debug_str:0000000000001c5c .LASF715
C:\Users\stapi\AppData\Local\Temp\cc3AqCjg.s:14513  .debug_str:0000000000003939 .LASF716
C:\Users\stapi\AppData\Local\Temp\cc3AqCjg.s:14237  .debug_str:0000000000002cf0 .LASF717
C:\Users\stapi\AppData\Local\Temp\cc3AqCjg.s:13675  .debug_str:000000000000138d .LASF718
C:\Users\stapi\AppData\Local\Temp\cc3AqCjg.s:15347  .debug_str:00000000000062ce .LASF719
C:\Users\stapi\AppData\Local\Temp\cc3AqCjg.s:15109  .debug_str:000000000000570d .LASF720
C:\Users\stapi\AppData\Local\Temp\cc3AqCjg.s:14485  .debug_str:000000000000383b .LASF721
C:\Users\stapi\AppData\Local\Temp\cc3AqCjg.s:13419  .debug_str:00000000000007ab .LASF722
C:\Users\stapi\AppData\Local\Temp\cc3AqCjg.s:15271  .debug_str:0000000000005f29 .LASF723
C:\Users\stapi\AppData\Local\Temp\cc3AqCjg.s:15537  .debug_str:0000000000006bc4 .LASF724
C:\Users\stapi\AppData\Local\Temp\cc3AqCjg.s:13643  .debug_str:0000000000001203 .LASF725
C:\Users\stapi\AppData\Local\Temp\cc3AqCjg.s:15097  .debug_str:0000000000005681 .LASF726
C:\Users\stapi\AppData\Local\Temp\cc3AqCjg.s:14741  .debug_str:000000000000448b .LASF727
C:\Users\stapi\AppData\Local\Temp\cc3AqCjg.s:14087  .debug_str:00000000000025d8 .LASF728
C:\Users\stapi\AppData\Local\Temp\cc3AqCjg.s:14595  .debug_str:0000000000003d46 .LASF729
C:\Users\stapi\AppData\Local\Temp\cc3AqCjg.s:13445  .debug_str:00000000000008b7 .LASF730
C:\Users\stapi\AppData\Local\Temp\cc3AqCjg.s:14987  .debug_str:00000000000050e4 .LASF731
C:\Users\stapi\AppData\Local\Temp\cc3AqCjg.s:14999  .debug_str:000000000000519c .LASF732
C:\Users\stapi\AppData\Local\Temp\cc3AqCjg.s:14367  .debug_str:00000000000032bc .LASF733
C:\Users\stapi\AppData\Local\Temp\cc3AqCjg.s:13919  .debug_str:0000000000001e4d .LASF734
C:\Users\stapi\AppData\Local\Temp\cc3AqCjg.s:13303  .debug_str:0000000000000249 .LASF735
C:\Users\stapi\AppData\Local\Temp\cc3AqCjg.s:13725  .debug_str:00000000000015dd .LASF736
C:\Users\stapi\AppData\Local\Temp\cc3AqCjg.s:15051  .debug_str:000000000000541f .LASF737
C:\Users\stapi\AppData\Local\Temp\cc3AqCjg.s:15349  .debug_str:00000000000062e8 .LASF738
C:\Users\stapi\AppData\Local\Temp\cc3AqCjg.s:14359  .debug_str:0000000000003262 .LASF739
C:\Users\stapi\AppData\Local\Temp\cc3AqCjg.s:14549  .debug_str:0000000000003b04 .LASF740
C:\Users\stapi\AppData\Local\Temp\cc3AqCjg.s:15175  .debug_str:0000000000005a29 .LASF741
C:\Users\stapi\AppData\Local\Temp\cc3AqCjg.s:15513  .debug_str:0000000000006a91 .LASF742
C:\Users\stapi\AppData\Local\Temp\cc3AqCjg.s:15451  .debug_str:0000000000006767 .LASF743
C:\Users\stapi\AppData\Local\Temp\cc3AqCjg.s:13441  .debug_str:000000000000088d .LASF744
C:\Users\stapi\AppData\Local\Temp\cc3AqCjg.s:14453  .debug_str:00000000000036b4 .LASF745
C:\Users\stapi\AppData\Local\Temp\cc3AqCjg.s:14783  .debug_str:00000000000047c2 .LASF746
C:\Users\stapi\AppData\Local\Temp\cc3AqCjg.s:14459  .debug_str:00000000000036f9 .LASF747
C:\Users\stapi\AppData\Local\Temp\cc3AqCjg.s:15491  .debug_str:000000000000698b .LASF748
C:\Users\stapi\AppData\Local\Temp\cc3AqCjg.s:13485  .debug_str:0000000000000ad3 .LASF749
C:\Users\stapi\AppData\Local\Temp\cc3AqCjg.s:15075  .debug_str:000000000000555a .LASF750
C:\Users\stapi\AppData\Local\Temp\cc3AqCjg.s:13947  .debug_str:0000000000001f77 .LASF751
C:\Users\stapi\AppData\Local\Temp\cc3AqCjg.s:15449  .debug_str:0000000000006746 .LASF752
C:\Users\stapi\AppData\Local\Temp\cc3AqCjg.s:13293  .debug_str:00000000000001d1 .LASF753
C:\Users\stapi\AppData\Local\Temp\cc3AqCjg.s:14203  .debug_str:0000000000002b3a .LASF754
C:\Users\stapi\AppData\Local\Temp\cc3AqCjg.s:13281  .debug_str:000000000000015d .LASF755
C:\Users\stapi\AppData\Local\Temp\cc3AqCjg.s:15285  .debug_str:0000000000005faf .LASF756
C:\Users\stapi\AppData\Local\Temp\cc3AqCjg.s:15263  .debug_str:0000000000005ebd .LASF757
C:\Users\stapi\AppData\Local\Temp\cc3AqCjg.s:15037  .debug_str:0000000000005377 .LASF758
C:\Users\stapi\AppData\Local\Temp\cc3AqCjg.s:13647  .debug_str:000000000000123e .LASF759
C:\Users\stapi\AppData\Local\Temp\cc3AqCjg.s:13963  .debug_str:0000000000001ffa .LASF760
C:\Users\stapi\AppData\Local\Temp\cc3AqCjg.s:13655  .debug_str:000000000000128a .LASF761
C:\Users\stapi\AppData\Local\Temp\cc3AqCjg.s:14933  .debug_str:0000000000004e84 .LASF762
C:\Users\stapi\AppData\Local\Temp\cc3AqCjg.s:14525  .debug_str:00000000000039ba .LASF763
C:\Users\stapi\AppData\Local\Temp\cc3AqCjg.s:14295  .debug_str:0000000000002f8f .LASF764
C:\Users\stapi\AppData\Local\Temp\cc3AqCjg.s:13505  .debug_str:0000000000000bd9 .LASF765
C:\Users\stapi\AppData\Local\Temp\cc3AqCjg.s:14965  .debug_str:0000000000004ff5 .LASF766
C:\Users\stapi\AppData\Local\Temp\cc3AqCjg.s:13913  .debug_str:0000000000001e1a .LASF767
C:\Users\stapi\AppData\Local\Temp\cc3AqCjg.s:14227  .debug_str:0000000000002c5a .LASF768
C:\Users\stapi\AppData\Local\Temp\cc3AqCjg.s:14413  .debug_str:00000000000034db .LASF769
C:\Users\stapi\AppData\Local\Temp\cc3AqCjg.s:15209  .debug_str:0000000000005bd3 .LASF770
C:\Users\stapi\AppData\Local\Temp\cc3AqCjg.s:13549  .debug_str:0000000000000dc7 .LASF771
C:\Users\stapi\AppData\Local\Temp\cc3AqCjg.s:13315  .debug_str:00000000000002ee .LASF772
C:\Users\stapi\AppData\Local\Temp\cc3AqCjg.s:13251  .debug_str:0000000000000000 .LASF773
C:\Users\stapi\AppData\Local\Temp\cc3AqCjg.s:14961  .debug_str:0000000000004fd7 .LASF774
C:\Users\stapi\AppData\Local\Temp\cc3AqCjg.s:14421  .debug_str:0000000000003542 .LASF775
C:\Users\stapi\AppData\Local\Temp\cc3AqCjg.s:15363  .debug_str:0000000000006379 .LASF776
C:\Users\stapi\AppData\Local\Temp\cc3AqCjg.s:14505  .debug_str:0000000000003900 .LASF777
C:\Users\stapi\AppData\Local\Temp\cc3AqCjg.s:13537  .debug_str:0000000000000d32 .LASF778
C:\Users\stapi\AppData\Local\Temp\cc3AqCjg.s:13923  .debug_str:0000000000001e83 .LASF779
C:\Users\stapi\AppData\Local\Temp\cc3AqCjg.s:15413  .debug_str:00000000000065c0 .LASF780
C:\Users\stapi\AppData\Local\Temp\cc3AqCjg.s:13993  .debug_str:000000000000216b .LASF781
C:\Users\stapi\AppData\Local\Temp\cc3AqCjg.s:13309  .debug_str:0000000000000298 .LASF782
C:\Users\stapi\AppData\Local\Temp\cc3AqCjg.s:14915  .debug_str:0000000000004d9a .LASF783
C:\Users\stapi\AppData\Local\Temp\cc3AqCjg.s:14045  .debug_str:00000000000023e4 .LASF784
C:\Users\stapi\AppData\Local\Temp\cc3AqCjg.s:13539  .debug_str:0000000000000d50 .LASF785
C:\Users\stapi\AppData\Local\Temp\cc3AqCjg.s:14287  .debug_str:0000000000002f17 .LASF786
C:\Users\stapi\AppData\Local\Temp\cc3AqCjg.s:13669  .debug_str:0000000000001349 .LASF787
C:\Users\stapi\AppData\Local\Temp\cc3AqCjg.s:15615  .debug_str:0000000000006f39 .LASF788
C:\Users\stapi\AppData\Local\Temp\cc3AqCjg.s:13261  .debug_str:000000000000007e .LASF789
C:\Users\stapi\AppData\Local\Temp\cc3AqCjg.s:13719  .debug_str:00000000000015a7 .LASF790
C:\Users\stapi\AppData\Local\Temp\cc3AqCjg.s:14763  .debug_str:00000000000046b6 .LASF791
C:\Users\stapi\AppData\Local\Temp\cc3AqCjg.s:14395  .debug_str:000000000000341f .LASF792
C:\Users\stapi\AppData\Local\Temp\cc3AqCjg.s:14633  .debug_str:0000000000003f0d .LASF793
C:\Users\stapi\AppData\Local\Temp\cc3AqCjg.s:14679  .debug_str:0000000000004102 .LASF794
C:\Users\stapi\AppData\Local\Temp\cc3AqCjg.s:13495  .debug_str:0000000000000b5c .LASF795
C:\Users\stapi\AppData\Local\Temp\cc3AqCjg.s:14269  .debug_str:0000000000002e21 .LASF796
C:\Users\stapi\AppData\Local\Temp\cc3AqCjg.s:14765  .debug_str:00000000000046cc .LASF797
C:\Users\stapi\AppData\Local\Temp\cc3AqCjg.s:14641  .debug_str:0000000000003f6c .LASF798
C:\Users\stapi\AppData\Local\Temp\cc3AqCjg.s:14635  .debug_str:0000000000003f25 .LASF799
C:\Users\stapi\AppData\Local\Temp\cc3AqCjg.s:15059  .debug_str:0000000000005491 .LASF800
C:\Users\stapi\AppData\Local\Temp\cc3AqCjg.s:14005  .debug_str:0000000000002218 .LASF801
C:\Users\stapi\AppData\Local\Temp\cc3AqCjg.s:15073  .debug_str:000000000000553c .LASF802
C:\Users\stapi\AppData\Local\Temp\cc3AqCjg.s:13403  .debug_str:00000000000006fc .LASF803
C:\Users\stapi\AppData\Local\Temp\cc3AqCjg.s:14555  .debug_str:0000000000003b57 .LASF804
C:\Users\stapi\AppData\Local\Temp\cc3AqCjg.s:14817  .debug_str:0000000000004910 .LASF805
C:\Users\stapi\AppData\Local\Temp\cc3AqCjg.s:14021  .debug_str:00000000000022e2 .LASF806
C:\Users\stapi\AppData\Local\Temp\cc3AqCjg.s:14601  .debug_str:0000000000003d7b .LASF807
C:\Users\stapi\AppData\Local\Temp\cc3AqCjg.s:14941  .debug_str:0000000000004ef6 .LASF808
C:\Users\stapi\AppData\Local\Temp\cc3AqCjg.s:14873  .debug_str:0000000000004b90 .LASF809
C:\Users\stapi\AppData\Local\Temp\cc3AqCjg.s:13429  .debug_str:000000000000080f .LASF810
C:\Users\stapi\AppData\Local\Temp\cc3AqCjg.s:13371  .debug_str:000000000000056f .LASF811
C:\Users\stapi\AppData\Local\Temp\cc3AqCjg.s:13425  .debug_str:00000000000007ed .LASF812
C:\Users\stapi\AppData\Local\Temp\cc3AqCjg.s:14951  .debug_str:0000000000004f7e .LASF813
C:\Users\stapi\AppData\Local\Temp\cc3AqCjg.s:15247  .debug_str:0000000000005dd7 .LASF814
C:\Users\stapi\AppData\Local\Temp\cc3AqCjg.s:15149  .debug_str:00000000000058e6 .LASF815
C:\Users\stapi\AppData\Local\Temp\cc3AqCjg.s:14661  .debug_str:000000000000403e .LASF816
C:\Users\stapi\AppData\Local\Temp\cc3AqCjg.s:14567  .debug_str:0000000000003bf0 .LASF817
C:\Users\stapi\AppData\Local\Temp\cc3AqCjg.s:13311  .debug_str:00000000000002b1 .LASF818
C:\Users\stapi\AppData\Local\Temp\cc3AqCjg.s:14717  .debug_str:0000000000004343 .LASF819
C:\Users\stapi\AppData\Local\Temp\cc3AqCjg.s:14043  .debug_str:00000000000023cb .LASF820
C:\Users\stapi\AppData\Local\Temp\cc3AqCjg.s:14285  .debug_str:0000000000002eef .LASF821
C:\Users\stapi\AppData\Local\Temp\cc3AqCjg.s:15523  .debug_str:0000000000006aff .LASF822
C:\Users\stapi\AppData\Local\Temp\cc3AqCjg.s:14435  .debug_str:00000000000035e0 .LASF823
C:\Users\stapi\AppData\Local\Temp\cc3AqCjg.s:14929  .debug_str:0000000000004e46 .LASF824
C:\Users\stapi\AppData\Local\Temp\cc3AqCjg.s:15195  .debug_str:0000000000005b1f .LASF825
C:\Users\stapi\AppData\Local\Temp\cc3AqCjg.s:14695  .debug_str:00000000000041c2 .LASF826
C:\Users\stapi\AppData\Local\Temp\cc3AqCjg.s:15411  .debug_str:00000000000065a7 .LASF827
C:\Users\stapi\AppData\Local\Temp\cc3AqCjg.s:13265  .debug_str:00000000000000b3 .LASF828
C:\Users\stapi\AppData\Local\Temp\cc3AqCjg.s:14031  .debug_str:000000000000234f .LASF829
C:\Users\stapi\AppData\Local\Temp\cc3AqCjg.s:15389  .debug_str:00000000000064a8 .LASF830
C:\Users\stapi\AppData\Local\Temp\cc3AqCjg.s:13809  .debug_str:00000000000019a8 .LASF831
C:\Users\stapi\AppData\Local\Temp\cc3AqCjg.s:15015  .debug_str:0000000000005279 .LASF832
C:\Users\stapi\AppData\Local\Temp\cc3AqCjg.s:14819  .debug_str:0000000000004933 .LASF833
C:\Users\stapi\AppData\Local\Temp\cc3AqCjg.s:14931  .debug_str:0000000000004e62 .LASF834
C:\Users\stapi\AppData\Local\Temp\cc3AqCjg.s:15053  .debug_str:000000000000543e .LASF835
C:\Users\stapi\AppData\Local\Temp\cc3AqCjg.s:14847  .debug_str:0000000000004a5c .LASF836
C:\Users\stapi\AppData\Local\Temp\cc3AqCjg.s:14757  .debug_str:0000000000004656 .LASF837
C:\Users\stapi\AppData\Local\Temp\cc3AqCjg.s:15297  .debug_str:0000000000006063 .LASF838
C:\Users\stapi\AppData\Local\Temp\cc3AqCjg.s:15337  .debug_str:000000000000625d .LASF839
C:\Users\stapi\AppData\Local\Temp\cc3AqCjg.s:14275  .debug_str:0000000000002e6d .LASF840
C:\Users\stapi\AppData\Local\Temp\cc3AqCjg.s:15429  .debug_str:0000000000006655 .LASF841
C:\Users\stapi\AppData\Local\Temp\cc3AqCjg.s:15549  .debug_str:0000000000006c51 .LASF842
C:\Users\stapi\AppData\Local\Temp\cc3AqCjg.s:14879  .debug_str:0000000000004bee .LASF843
C:\Users\stapi\AppData\Local\Temp\cc3AqCjg.s:13751  .debug_str:000000000000173d .LASF844
C:\Users\stapi\AppData\Local\Temp\cc3AqCjg.s:14947  .debug_str:0000000000004f39 .LASF845
C:\Users\stapi\AppData\Local\Temp\cc3AqCjg.s:14139  .debug_str:0000000000002826 .LASF846
C:\Users\stapi\AppData\Local\Temp\cc3AqCjg.s:14129  .debug_str:00000000000027b5 .LASF847
C:\Users\stapi\AppData\Local\Temp\cc3AqCjg.s:15631  .debug_str:000000000000700e .LASF848
C:\Users\stapi\AppData\Local\Temp\cc3AqCjg.s:14455  .debug_str:00000000000036c9 .LASF849
C:\Users\stapi\AppData\Local\Temp\cc3AqCjg.s:14495  .debug_str:0000000000003894 .LASF850
C:\Users\stapi\AppData\Local\Temp\cc3AqCjg.s:13897  .debug_str:0000000000001d72 .LASF851
C:\Users\stapi\AppData\Local\Temp\cc3AqCjg.s:15183  .debug_str:0000000000005a80 .LASF852
C:\Users\stapi\AppData\Local\Temp\cc3AqCjg.s:14779  .debug_str:0000000000004783 .LASF853
C:\Users\stapi\AppData\Local\Temp\cc3AqCjg.s:13573  .debug_str:0000000000000ee6 .LASF854
C:\Users\stapi\AppData\Local\Temp\cc3AqCjg.s:15385  .debug_str:000000000000647d .LASF855
C:\Users\stapi\AppData\Local\Temp\cc3AqCjg.s:13431  .debug_str:0000000000000826 .LASF856
C:\Users\stapi\AppData\Local\Temp\cc3AqCjg.s:15367  .debug_str:00000000000063a5 .LASF857
C:\Users\stapi\AppData\Local\Temp\cc3AqCjg.s:13587  .debug_str:0000000000000f90 .LASF858
C:\Users\stapi\AppData\Local\Temp\cc3AqCjg.s:14701  .debug_str:000000000000421c .LASF859
C:\Users\stapi\AppData\Local\Temp\cc3AqCjg.s:15223  .debug_str:0000000000005c5f .LASF860
C:\Users\stapi\AppData\Local\Temp\cc3AqCjg.s:13985  .debug_str:00000000000020fc .LASF861
C:\Users\stapi\AppData\Local\Temp\cc3AqCjg.s:14409  .debug_str:00000000000034a1 .LASF862
C:\Users\stapi\AppData\Local\Temp\cc3AqCjg.s:15459  .debug_str:00000000000067d3 .LASF863
C:\Users\stapi\AppData\Local\Temp\cc3AqCjg.s:15575  .debug_str:0000000000006d73 .LASF864
C:\Users\stapi\AppData\Local\Temp\cc3AqCjg.s:14767  .debug_str:00000000000046e5 .LASF865
C:\Users\stapi\AppData\Local\Temp\cc3AqCjg.s:15199  .debug_str:0000000000005b62 .LASF866
C:\Users\stapi\AppData\Local\Temp\cc3AqCjg.s:14347  .debug_str:00000000000031d7 .LASF867
C:\Users\stapi\AppData\Local\Temp\cc3AqCjg.s:14925  .debug_str:0000000000004e0c .LASF868
C:\Users\stapi\AppData\Local\Temp\cc3AqCjg.s:15243  .debug_str:0000000000005d9d .LASF869
C:\Users\stapi\AppData\Local\Temp\cc3AqCjg.s:15173  .debug_str:0000000000005a02 .LASF870
C:\Users\stapi\AppData\Local\Temp\cc3AqCjg.s:14233  .debug_str:0000000000002ca3 .LASF871
C:\Users\stapi\AppData\Local\Temp\cc3AqCjg.s:15469  .debug_str:000000000000685f .LASF872
C:\Users\stapi\AppData\Local\Temp\cc3AqCjg.s:14335  .debug_str:000000000000314f .LASF873
C:\Users\stapi\AppData\Local\Temp\cc3AqCjg.s:14815  .debug_str:00000000000048f9 .LASF874
C:\Users\stapi\AppData\Local\Temp\cc3AqCjg.s:13849  .debug_str:0000000000001b2f .LASF875
C:\Users\stapi\AppData\Local\Temp\cc3AqCjg.s:15597  .debug_str:0000000000006e58 .LASF876
C:\Users\stapi\AppData\Local\Temp\cc3AqCjg.s:14937  .debug_str:0000000000004eb8 .LASF877
C:\Users\stapi\AppData\Local\Temp\cc3AqCjg.s:14993  .debug_str:000000000000513b .LASF878
C:\Users\stapi\AppData\Local\Temp\cc3AqCjg.s:15627  .debug_str:0000000000006fe7 .LASF879
C:\Users\stapi\AppData\Local\Temp\cc3AqCjg.s:14541  .debug_str:0000000000003a9b .LASF880
C:\Users\stapi\AppData\Local\Temp\cc3AqCjg.s:13637  .debug_str:00000000000011be .LASF881
C:\Users\stapi\AppData\Local\Temp\cc3AqCjg.s:15519  .debug_str:0000000000006abb .LASF882
C:\Users\stapi\AppData\Local\Temp\cc3AqCjg.s:14279  .debug_str:0000000000002eae .LASF883
C:\Users\stapi\AppData\Local\Temp\cc3AqCjg.s:14441  .debug_str:0000000000003632 .LASF884
C:\Users\stapi\AppData\Local\Temp\cc3AqCjg.s:13887  .debug_str:0000000000001d02 .LASF885
C:\Users\stapi\AppData\Local\Temp\cc3AqCjg.s:13501  .debug_str:0000000000000bab .LASF886
C:\Users\stapi\AppData\Local\Temp\cc3AqCjg.s:13977  .debug_str:000000000000209e .LASF887
C:\Users\stapi\AppData\Local\Temp\cc3AqCjg.s:14231  .debug_str:0000000000002c8b .LASF888
C:\Users\stapi\AppData\Local\Temp\cc3AqCjg.s:13527  .debug_str:0000000000000ccf .LASF889
C:\Users\stapi\AppData\Local\Temp\cc3AqCjg.s:13463  .debug_str:00000000000009a8 .LASF890
C:\Users\stapi\AppData\Local\Temp\cc3AqCjg.s:14639  .debug_str:0000000000003f52 .LASF891
C:\Users\stapi\AppData\Local\Temp\cc3AqCjg.s:14607  .debug_str:0000000000003da5 .LASF892
C:\Users\stapi\AppData\Local\Temp\cc3AqCjg.s:13475  .debug_str:0000000000000a65 .LASF893
C:\Users\stapi\AppData\Local\Temp\cc3AqCjg.s:14439  .debug_str:0000000000003617 .LASF894
C:\Users\stapi\AppData\Local\Temp\cc3AqCjg.s:14325  .debug_str:00000000000030d4 .LASF895
C:\Users\stapi\AppData\Local\Temp\cc3AqCjg.s:14471  .debug_str:000000000000377d .LASF896
C:\Users\stapi\AppData\Local\Temp\cc3AqCjg.s:14775  .debug_str:000000000000475e .LASF897
C:\Users\stapi\AppData\Local\Temp\cc3AqCjg.s:13301  .debug_str:0000000000000232 .LASF898
C:\Users\stapi\AppData\Local\Temp\cc3AqCjg.s:15143  .debug_str:000000000000589d .LASF899
C:\Users\stapi\AppData\Local\Temp\cc3AqCjg.s:14437  .debug_str:0000000000003601 .LASF900
C:\Users\stapi\AppData\Local\Temp\cc3AqCjg.s:14909  .debug_str:0000000000004d62 .LASF901
C:\Users\stapi\AppData\Local\Temp\cc3AqCjg.s:13769  .debug_str:00000000000017fb .LASF902
C:\Users\stapi\AppData\Local\Temp\cc3AqCjg.s:13405  .debug_str:0000000000000718 .LASF903
C:\Users\stapi\AppData\Local\Temp\cc3AqCjg.s:14827  .debug_str:000000000000498e .LASF904
C:\Users\stapi\AppData\Local\Temp\cc3AqCjg.s:13491  .debug_str:0000000000000b26 .LASF905
C:\Users\stapi\AppData\Local\Temp\cc3AqCjg.s:13581  .debug_str:0000000000000f3f .LASF906
C:\Users\stapi\AppData\Local\Temp\cc3AqCjg.s:13595  .debug_str:0000000000000ff3 .LASF907
C:\Users\stapi\AppData\Local\Temp\cc3AqCjg.s:14673  .debug_str:00000000000040c1 .LASF908
C:\Users\stapi\AppData\Local\Temp\cc3AqCjg.s:14981  .debug_str:0000000000005092 .LASF909
C:\Users\stapi\AppData\Local\Temp\cc3AqCjg.s:14571  .debug_str:0000000000003c0e .LASF910
C:\Users\stapi\AppData\Local\Temp\cc3AqCjg.s:13911  .debug_str:0000000000001e02 .LASF911
C:\Users\stapi\AppData\Local\Temp\cc3AqCjg.s:15221  .debug_str:0000000000005c43 .LASF912
C:\Users\stapi\AppData\Local\Temp\cc3AqCjg.s:13297  .debug_str:00000000000001fb .LASF913
C:\Users\stapi\AppData\Local\Temp\cc3AqCjg.s:14337  .debug_str:0000000000003173 .LASF914
C:\Users\stapi\AppData\Local\Temp\cc3AqCjg.s:15505  .debug_str:0000000000006a29 .LASF915
C:\Users\stapi\AppData\Local\Temp\cc3AqCjg.s:13697  .debug_str:00000000000014a4 .LASF916
C:\Users\stapi\AppData\Local\Temp\cc3AqCjg.s:15141  .debug_str:0000000000005878 .LASF917
C:\Users\stapi\AppData\Local\Temp\cc3AqCjg.s:13603  .debug_str:000000000000104c .LASF918
C:\Users\stapi\AppData\Local\Temp\cc3AqCjg.s:13733  .debug_str:0000000000001649 .LASF919
C:\Users\stapi\AppData\Local\Temp\cc3AqCjg.s:13749  .debug_str:000000000000171a .LASF920
C:\Users\stapi\AppData\Local\Temp\cc3AqCjg.s:14465  .debug_str:0000000000003745 .LASF921
C:\Users\stapi\AppData\Local\Temp\cc3AqCjg.s:15525  .debug_str:0000000000006b1b .LASF922
C:\Users\stapi\AppData\Local\Temp\cc3AqCjg.s:14825  .debug_str:0000000000004968 .LASF923
C:\Users\stapi\AppData\Local\Temp\cc3AqCjg.s:14419  .debug_str:0000000000003524 .LASF924
C:\Users\stapi\AppData\Local\Temp\cc3AqCjg.s:14519  .debug_str:0000000000003982 .LASF925
C:\Users\stapi\AppData\Local\Temp\cc3AqCjg.s:13601  .debug_str:0000000000001027 .LASF926
C:\Users\stapi\AppData\Local\Temp\cc3AqCjg.s:14625  .debug_str:0000000000003ea3 .LASF927
C:\Users\stapi\AppData\Local\Temp\cc3AqCjg.s:14887  .debug_str:0000000000004c52 .LASF928
C:\Users\stapi\AppData\Local\Temp\cc3AqCjg.s:15049  .debug_str:00000000000053fd .LASF929
C:\Users\stapi\AppData\Local\Temp\cc3AqCjg.s:15381  .debug_str:0000000000006447 .LASF930
C:\Users\stapi\AppData\Local\Temp\cc3AqCjg.s:14859  .debug_str:0000000000004af1 .LASF931
C:\Users\stapi\AppData\Local\Temp\cc3AqCjg.s:13569  .debug_str:0000000000000ea8 .LASF932
C:\Users\stapi\AppData\Local\Temp\cc3AqCjg.s:14461  .debug_str:0000000000003712 .LASF933
C:\Users\stapi\AppData\Local\Temp\cc3AqCjg.s:14319  .debug_str:000000000000307f .LASF934
C:\Users\stapi\AppData\Local\Temp\cc3AqCjg.s:13943  .debug_str:0000000000001f48 .LASF935
C:\Users\stapi\AppData\Local\Temp\cc3AqCjg.s:15533  .debug_str:0000000000006b7d .LASF936
C:\Users\stapi\AppData\Local\Temp\cc3AqCjg.s:15033  .debug_str:0000000000005337 .LASF937
C:\Users\stapi\AppData\Local\Temp\cc3AqCjg.s:13357  .debug_str:00000000000004af .LASF938
C:\Users\stapi\AppData\Local\Temp\cc3AqCjg.s:13805  .debug_str:0000000000001964 .LASF939
C:\Users\stapi\AppData\Local\Temp\cc3AqCjg.s:15307  .debug_str:00000000000060ed .LASF940
C:\Users\stapi\AppData\Local\Temp\cc3AqCjg.s:15535  .debug_str:0000000000006ba4 .LASF941
C:\Users\stapi\AppData\Local\Temp\cc3AqCjg.s:14001  .debug_str:00000000000021d9 .LASF942
C:\Users\stapi\AppData\Local\Temp\cc3AqCjg.s:14983  .debug_str:00000000000050aa .LASF943
C:\Users\stapi\AppData\Local\Temp\cc3AqCjg.s:14075  .debug_str:0000000000002538 .LASF944
C:\Users\stapi\AppData\Local\Temp\cc3AqCjg.s:13469  .debug_str:00000000000009fc .LASF945
C:\Users\stapi\AppData\Local\Temp\cc3AqCjg.s:13585  .debug_str:0000000000000f68 .LASF946
C:\Users\stapi\AppData\Local\Temp\cc3AqCjg.s:15235  .debug_str:0000000000005d52 .LASF947
C:\Users\stapi\AppData\Local\Temp\cc3AqCjg.s:14193  .debug_str:0000000000002ab7 .LASF948
C:\Users\stapi\AppData\Local\Temp\cc3AqCjg.s:14149  .debug_str:00000000000028b4 .LASF949
C:\Users\stapi\AppData\Local\Temp\cc3AqCjg.s:15545  .debug_str:0000000000006c23 .LASF950
C:\Users\stapi\AppData\Local\Temp\cc3AqCjg.s:13327  .debug_str:0000000000000359 .LASF951
C:\Users\stapi\AppData\Local\Temp\cc3AqCjg.s:15455  .debug_str:00000000000067a1 .LASF952
C:\Users\stapi\AppData\Local\Temp\cc3AqCjg.s:14905  .debug_str:0000000000004d3a .LASF953
C:\Users\stapi\AppData\Local\Temp\cc3AqCjg.s:13649  .debug_str:0000000000001262 .LASF954
C:\Users\stapi\AppData\Local\Temp\cc3AqCjg.s:15079  .debug_str:000000000000558f .LASF955
C:\Users\stapi\AppData\Local\Temp\cc3AqCjg.s:13845  .debug_str:0000000000001b0d .LASF956
C:\Users\stapi\AppData\Local\Temp\cc3AqCjg.s:15125  .debug_str:00000000000057e4 .LASF957
C:\Users\stapi\AppData\Local\Temp\cc3AqCjg.s:13709  .debug_str:000000000000152c .LASF958
C:\Users\stapi\AppData\Local\Temp\cc3AqCjg.s:13691  .debug_str:000000000000145f .LASF959
C:\Users\stapi\AppData\Local\Temp\cc3AqCjg.s:14095  .debug_str:0000000000002638 .LASF960
C:\Users\stapi\AppData\Local\Temp\cc3AqCjg.s:13935  .debug_str:0000000000001ef6 .LASF961
C:\Users\stapi\AppData\Local\Temp\cc3AqCjg.s:14739  .debug_str:000000000000446c .LASF962
C:\Users\stapi\AppData\Local\Temp\cc3AqCjg.s:14331  .debug_str:0000000000003109 .LASF963
C:\Users\stapi\AppData\Local\Temp\cc3AqCjg.s:13703  .debug_str:00000000000014d1 .LASF964
C:\Users\stapi\AppData\Local\Temp\cc3AqCjg.s:14671  .debug_str:000000000000409c .LASF965
C:\Users\stapi\AppData\Local\Temp\cc3AqCjg.s:14207  .debug_str:0000000000002b64 .LASF966
C:\Users\stapi\AppData\Local\Temp\cc3AqCjg.s:13833  .debug_str:0000000000001a9f .LASF967
C:\Users\stapi\AppData\Local\Temp\cc3AqCjg.s:14579  .debug_str:0000000000003c61 .LASF968
C:\Users\stapi\AppData\Local\Temp\cc3AqCjg.s:13447  .debug_str:00000000000008d1 .LASF969
C:\Users\stapi\AppData\Local\Temp\cc3AqCjg.s:15153  .debug_str:000000000000592d .LASF970
C:\Users\stapi\AppData\Local\Temp\cc3AqCjg.s:13933  .debug_str:0000000000001edc .LASF971
C:\Users\stapi\AppData\Local\Temp\cc3AqCjg.s:14057  .debug_str:0000000000002460 .LASF972
C:\Users\stapi\AppData\Local\Temp\cc3AqCjg.s:15289  .debug_str:0000000000006002 .LASF973
C:\Users\stapi\AppData\Local\Temp\cc3AqCjg.s:14557  .debug_str:0000000000003b76 .LASF974
C:\Users\stapi\AppData\Local\Temp\cc3AqCjg.s:14621  .debug_str:0000000000003e6c .LASF975
C:\Users\stapi\AppData\Local\Temp\cc3AqCjg.s:15101  .debug_str:00000000000056b0 .LASF976
C:\Users\stapi\AppData\Local\Temp\cc3AqCjg.s:15467  .debug_str:0000000000006837 .LASF977
C:\Users\stapi\AppData\Local\Temp\cc3AqCjg.s:14609  .debug_str:0000000000003dbd .LASF978
C:\Users\stapi\AppData\Local\Temp\cc3AqCjg.s:15089  .debug_str:0000000000005627 .LASF979
C:\Users\stapi\AppData\Local\Temp\cc3AqCjg.s:15013  .debug_str:000000000000525b .LASF980
C:\Users\stapi\AppData\Local\Temp\cc3AqCjg.s:13831  .debug_str:0000000000001a81 .LASF981
C:\Users\stapi\AppData\Local\Temp\cc3AqCjg.s:15117  .debug_str:0000000000005774 .LASF982
C:\Users\stapi\AppData\Local\Temp\cc3AqCjg.s:14719  .debug_str:000000000000436a .LASF983
C:\Users\stapi\AppData\Local\Temp\cc3AqCjg.s:15507  .debug_str:0000000000006a4c .LASF984
C:\Users\stapi\AppData\Local\Temp\cc3AqCjg.s:13253  .debug_str:000000000000001a .LASF985
C:\Users\stapi\AppData\Local\Temp\cc3AqCjg.s:14845  .debug_str:0000000000004a43 .LASF986
C:\Users\stapi\AppData\Local\Temp\cc3AqCjg.s:14291  .debug_str:0000000000002f56 .LASF987
C:\Users\stapi\AppData\Local\Temp\cc3AqCjg.s:14027  .debug_str:000000000000231b .LASF988
C:\Users\stapi\AppData\Local\Temp\cc3AqCjg.s:13543  .debug_str:0000000000000d75 .LASF989
C:\Users\stapi\AppData\Local\Temp\cc3AqCjg.s:15165  .debug_str:00000000000059ab .LASF990
C:\Users\stapi\AppData\Local\Temp\cc3AqCjg.s:14699  .debug_str:00000000000041fb .LASF991
C:\Users\stapi\AppData\Local\Temp\cc3AqCjg.s:13863  .debug_str:0000000000001bc6 .LASF992
C:\Users\stapi\AppData\Local\Temp\cc3AqCjg.s:14141  .debug_str:0000000000002847 .LASF993
C:\Users\stapi\AppData\Local\Temp\cc3AqCjg.s:15439  .debug_str:00000000000066d4 .LASF994
C:\Users\stapi\AppData\Local\Temp\cc3AqCjg.s:14143  .debug_str:0000000000002867 .LASF995
C:\Users\stapi\AppData\Local\Temp\cc3AqCjg.s:15365  .debug_str:0000000000006394 .LASF996
C:\Users\stapi\AppData\Local\Temp\cc3AqCjg.s:15559  .debug_str:0000000000006ccb .LASF997
C:\Users\stapi\AppData\Local\Temp\cc3AqCjg.s:13555  .debug_str:0000000000000dfe .LASF998
C:\Users\stapi\AppData\Local\Temp\cc3AqCjg.s:14903  .debug_str:0000000000004d22 .LASF999
C:\Users\stapi\AppData\Local\Temp\cc3AqCjg.s:14531  .debug_str:0000000000003a14 .LASF1000
C:\Users\stapi\AppData\Local\Temp\cc3AqCjg.s:15249  .debug_str:0000000000005dfe .LASF1001
C:\Users\stapi\AppData\Local\Temp\cc3AqCjg.s:15483  .debug_str:0000000000006926 .LASF1002
C:\Users\stapi\AppData\Local\Temp\cc3AqCjg.s:14723  .debug_str:00000000000043a3 .LASF1003
C:\Users\stapi\AppData\Local\Temp\cc3AqCjg.s:14215  .debug_str:0000000000002bc7 .LASF1004
C:\Users\stapi\AppData\Local\Temp\cc3AqCjg.s:14151  .debug_str:00000000000028cc .LASF1005
C:\Users\stapi\AppData\Local\Temp\cc3AqCjg.s:13801  .debug_str:0000000000001948 .LASF1006
C:\Users\stapi\AppData\Local\Temp\cc3AqCjg.s:15237  .debug_str:0000000000005d6e .LASF1007
C:\Users\stapi\AppData\Local\Temp\cc3AqCjg.s:15095  .debug_str:0000000000005679 .LASF1008
C:\Users\stapi\AppData\Local\Temp\cc3AqCjg.s:13851  .debug_str:0000000000001b46 .LASF1009
C:\Users\stapi\AppData\Local\Temp\cc3AqCjg.s:14443  .debug_str:000000000000364a .LASF1010
C:\Users\stapi\AppData\Local\Temp\cc3AqCjg.s:13477  .debug_str:0000000000000a7e .LASF1011
C:\Users\stapi\AppData\Local\Temp\cc3AqCjg.s:14943  .debug_str:0000000000004f0d .LASF1012
C:\Users\stapi\AppData\Local\Temp\cc3AqCjg.s:13331  .debug_str:0000000000000386 .LASF1013
C:\Users\stapi\AppData\Local\Temp\cc3AqCjg.s:14225  .debug_str:0000000000002c4c .LASF1014
C:\Users\stapi\AppData\Local\Temp\cc3AqCjg.s:13803  .debug_str:0000000000001959 .LASF1015
C:\Users\stapi\AppData\Local\Temp\cc3AqCjg.s:14311  .debug_str:0000000000003022 .LASF1016
C:\Users\stapi\AppData\Local\Temp\cc3AqCjg.s:14663  .debug_str:0000000000004058 .LASF1017
C:\Users\stapi\AppData\Local\Temp\cc3AqCjg.s:14675  .debug_str:00000000000040d9 .LASF1018
C:\Users\stapi\AppData\Local\Temp\cc3AqCjg.s:13577  .debug_str:0000000000000f21 .LASF1019
C:\Users\stapi\AppData\Local\Temp\cc3AqCjg.s:13271  .debug_str:00000000000000ec .LASF1020
C:\Users\stapi\AppData\Local\Temp\cc3AqCjg.s:13523  .debug_str:0000000000000cb8 .LASF1021
C:\Users\stapi\AppData\Local\Temp\cc3AqCjg.s:15219  .debug_str:0000000000005c30 .LASF1022
C:\Users\stapi\AppData\Local\Temp\cc3AqCjg.s:15239  .debug_str:0000000000005d77 .LASF1023
C:\Users\stapi\AppData\Local\Temp\cc3AqCjg.s:14101  .debug_str:0000000000002683 .LASF1024
C:\Users\stapi\AppData\Local\Temp\cc3AqCjg.s:14133  .debug_str:00000000000027e5 .LASF1025
C:\Users\stapi\AppData\Local\Temp\cc3AqCjg.s:14249  .debug_str:0000000000002d75 .LASF1026
C:\Users\stapi\AppData\Local\Temp\cc3AqCjg.s:13915  .debug_str:0000000000001e32 .LASF1027
C:\Users\stapi\AppData\Local\Temp\cc3AqCjg.s:14299  .debug_str:0000000000002fbf .LASF1028
C:\Users\stapi\AppData\Local\Temp\cc3AqCjg.s:13957  .debug_str:0000000000001fd4 .LASF1029
C:\Users\stapi\AppData\Local\Temp\cc3AqCjg.s:13529  .debug_str:0000000000000ce7 .LASF1030
C:\Users\stapi\AppData\Local\Temp\cc3AqCjg.s:13715  .debug_str:000000000000157b .LASF1031
C:\Users\stapi\AppData\Local\Temp\cc3AqCjg.s:15511  .debug_str:0000000000006a76 .LASF1032
C:\Users\stapi\AppData\Local\Temp\cc3AqCjg.s:13511  .debug_str:0000000000000c40 .LASF1033
C:\Users\stapi\AppData\Local\Temp\cc3AqCjg.s:14165  .debug_str:000000000000296d .LASF1034
C:\Users\stapi\AppData\Local\Temp\cc3AqCjg.s:13343  .debug_str:0000000000000415 .LASF1035
C:\Users\stapi\AppData\Local\Temp\cc3AqCjg.s:15403  .debug_str:0000000000006559 .LASF1036
C:\Users\stapi\AppData\Local\Temp\cc3AqCjg.s:14177  .debug_str:00000000000029f8 .LASF1037
C:\Users\stapi\AppData\Local\Temp\cc3AqCjg.s:14261  .debug_str:0000000000002ddc .LASF1038
C:\Users\stapi\AppData\Local\Temp\cc3AqCjg.s:13631  .debug_str:0000000000001194 .LASF1039
C:\Users\stapi\AppData\Local\Temp\cc3AqCjg.s:13931  .debug_str:0000000000001ed4 .LASF1040
C:\Users\stapi\AppData\Local\Temp\cc3AqCjg.s:14355  .debug_str:000000000000323b .LASF1041
C:\Users\stapi\AppData\Local\Temp\cc3AqCjg.s:14823  .debug_str:0000000000004960 .LASF1042
C:\Users\stapi\AppData\Local\Temp\cc3AqCjg.s:13337  .debug_str:00000000000003ca .LASF1043
C:\Users\stapi\AppData\Local\Temp\cc3AqCjg.s:15353  .debug_str:000000000000631e .LASF1044
C:\Users\stapi\AppData\Local\Temp\cc3AqCjg.s:15431  .debug_str:000000000000666a .LASF1045
C:\Users\stapi\AppData\Local\Temp\cc3AqCjg.s:15555  .debug_str:0000000000006ca4 .LASF1046
C:\Users\stapi\AppData\Local\Temp\cc3AqCjg.s:14697  .debug_str:00000000000041eb .LASF1047
C:\Users\stapi\AppData\Local\Temp\cc3AqCjg.s:14407  .debug_str:0000000000003497 .LASF1048
C:\Users\stapi\AppData\Local\Temp\cc3AqCjg.s:15047  .debug_str:00000000000053ef .LASF1049
C:\Users\stapi\AppData\Local\Temp\cc3AqCjg.s:15509  .debug_str:0000000000006a67 .LASF1050
C:\Users\stapi\AppData\Local\Temp\cc3AqCjg.s:15463  .debug_str:0000000000006809 .LASF1051
C:\Users\stapi\AppData\Local\Temp\cc3AqCjg.s:14135  .debug_str:00000000000027f1 .LASF1052
C:\Users\stapi\AppData\Local\Temp\cc3AqCjg.s:13815  .debug_str:00000000000019da .LASF1053
C:\Users\stapi\AppData\Local\Temp\cc3AqCjg.s:13731  .debug_str:0000000000001627 .LASF1054
C:\Users\stapi\AppData\Local\Temp\cc3AqCjg.s:14011  .debug_str:000000000000224b .LASF1055
C:\Users\stapi\AppData\Local\Temp\cc3AqCjg.s:13279  .debug_str:000000000000014d .LASF1056
C:\Users\stapi\AppData\Local\Temp\cc3AqCjg.s:14917  .debug_str:0000000000004db1 .LASF1057
C:\Users\stapi\AppData\Local\Temp\cc3AqCjg.s:14053  .debug_str:0000000000002430 .LASF1058
C:\Users\stapi\AppData\Local\Temp\cc3AqCjg.s:14623  .debug_str:0000000000003e86 .LASF1059
C:\Users\stapi\AppData\Local\Temp\cc3AqCjg.s:14565  .debug_str:0000000000003bcf .LASF1060
C:\Users\stapi\AppData\Local\Temp\cc3AqCjg.s:15617  .debug_str:0000000000006f58 .LASF1061
C:\Users\stapi\AppData\Local\Temp\cc3AqCjg.s:14257  .debug_str:0000000000002db5 .LASF1062
C:\Users\stapi\AppData\Local\Temp\cc3AqCjg.s:15333  .debug_str:000000000000624b .LASF1063
C:\Users\stapi\AppData\Local\Temp\cc3AqCjg.s:14093  .debug_str:0000000000002620 .LASF1064
C:\Users\stapi\AppData\Local\Temp\cc3AqCjg.s:13955  .debug_str:0000000000001fbc .LASF1065
C:\Users\stapi\AppData\Local\Temp\cc3AqCjg.s:14243  .debug_str:0000000000002d33 .LASF1066
C:\Users\stapi\AppData\Local\Temp\cc3AqCjg.s:15127  .debug_str:00000000000057ed .LASF1067
C:\Users\stapi\AppData\Local\Temp\cc3AqCjg.s:14687  .debug_str:000000000000417b .LASF1068
C:\Users\stapi\AppData\Local\Temp\cc3AqCjg.s:13701  .debug_str:00000000000014c9 .LASF1069
C:\Users\stapi\AppData\Local\Temp\cc3AqCjg.s:14921  .debug_str:0000000000004de2 .LASF1070
C:\Users\stapi\AppData\Local\Temp\cc3AqCjg.s:15161  .debug_str:0000000000005993 .LASF1071
C:\Users\stapi\AppData\Local\Temp\cc3AqCjg.s:15323  .debug_str:00000000000061ca .LASF1072
C:\Users\stapi\AppData\Local\Temp\cc3AqCjg.s:15083  .debug_str:00000000000055cd .LASF1073
C:\Users\stapi\AppData\Local\Temp\cc3AqCjg.s:15625  .debug_str:0000000000006fca .LASF1074
C:\Users\stapi\AppData\Local\Temp\cc3AqCjg.s:15257  .debug_str:0000000000005e6c .LASF1075
C:\Users\stapi\AppData\Local\Temp\cc3AqCjg.s:13547  .debug_str:0000000000000db1 .LASF1076
C:\Users\stapi\AppData\Local\Temp\cc3AqCjg.s:15055  .debug_str:000000000000545f .LASF1077
C:\Users\stapi\AppData\Local\Temp\cc3AqCjg.s:13937  .debug_str:0000000000001f10 .LASF1078
C:\Users\stapi\AppData\Local\Temp\cc3AqCjg.s:14957  .debug_str:0000000000004fa8 .LASF1079
C:\Users\stapi\AppData\Local\Temp\cc3AqCjg.s:13811  .debug_str:00000000000019bd .LASF1080
C:\Users\stapi\AppData\Local\Temp\cc3AqCjg.s:15063  .debug_str:00000000000054c1 .LASF1081
C:\Users\stapi\AppData\Local\Temp\cc3AqCjg.s:13335  .debug_str:00000000000003b9 .LASF1082
C:\Users\stapi\AppData\Local\Temp\cc3AqCjg.s:13449  .debug_str:00000000000008f3 .LASF1083
C:\Users\stapi\AppData\Local\Temp\cc3AqCjg.s:13879  .debug_str:0000000000001ca5 .LASF1084
C:\Users\stapi\AppData\Local\Temp\cc3AqCjg.s:13389  .debug_str:000000000000064f .LASF1085
C:\Users\stapi\AppData\Local\Temp\cc3AqCjg.s:13949  .debug_str:0000000000001f92 .LASF1086
C:\Users\stapi\AppData\Local\Temp\cc3AqCjg.s:15107  .debug_str:00000000000056fe .LASF1087
C:\Users\stapi\AppData\Local\Temp\cc3AqCjg.s:15647  .debug_str:00000000000070ce .LASF1088
C:\Users\stapi\AppData\Local\Temp\cc3AqCjg.s:15639  .debug_str:0000000000007063 .LASF1089
C:\Users\stapi\AppData\Local\Temp\cc3AqCjg.s:13605  .debug_str:000000000000106e .LASF1090
C:\Users\stapi\AppData\Local\Temp\cc3AqCjg.s:14479  .debug_str:00000000000037ed .LASF1091
C:\Users\stapi\AppData\Local\Temp\cc3AqCjg.s:14959  .debug_str:0000000000004fca .LASF1092
C:\Users\stapi\AppData\Local\Temp\cc3AqCjg.s:14083  .debug_str:00000000000025b1 .LASF1093
C:\Users\stapi\AppData\Local\Temp\cc3AqCjg.s:14975  .debug_str:0000000000005057 .LASF1094
C:\Users\stapi\AppData\Local\Temp\cc3AqCjg.s:13465  .debug_str:00000000000009c2 .LASF1095
C:\Users\stapi\AppData\Local\Temp\cc3AqCjg.s:15479  .debug_str:00000000000068e3 .LASF1096
C:\Users\stapi\AppData\Local\Temp\cc3AqCjg.s:15397  .debug_str:0000000000006517 .LASF1097
C:\Users\stapi\AppData\Local\Temp\cc3AqCjg.s:14593  .debug_str:0000000000003d28 .LASF1098
C:\Users\stapi\AppData\Local\Temp\cc3AqCjg.s:15319  .debug_str:0000000000006199 .LASF1099
C:\Users\stapi\AppData\Local\Temp\cc3AqCjg.s:13665  .debug_str:000000000000131a .LASF1100
C:\Users\stapi\AppData\Local\Temp\cc3AqCjg.s:14751  .debug_str:00000000000045f7 .LASF1101
C:\Users\stapi\AppData\Local\Temp\cc3AqCjg.s:14155  .debug_str:0000000000002903 .LASF1102
C:\Users\stapi\AppData\Local\Temp\cc3AqCjg.s:14833  .debug_str:00000000000049c8 .LASF1103
C:\Users\stapi\AppData\Local\Temp\cc3AqCjg.s:15569  .debug_str:0000000000006d23 .LASF1104
C:\Users\stapi\AppData\Local\Temp\cc3AqCjg.s:15437  .debug_str:00000000000066bc .LASF1105
C:\Users\stapi\AppData\Local\Temp\cc3AqCjg.s:15441  .debug_str:00000000000066fa .LASF1106
C:\Users\stapi\AppData\Local\Temp\cc3AqCjg.s:14497  .debug_str:00000000000038af .LASF1107
C:\Users\stapi\AppData\Local\Temp\cc3AqCjg.s:15415  .debug_str:00000000000065d7 .LASF1108
C:\Users\stapi\AppData\Local\Temp\cc3AqCjg.s:14199  .debug_str:0000000000002b0d .LASF1109
C:\Users\stapi\AppData\Local\Temp\cc3AqCjg.s:13777  .debug_str:000000000000185f .LASF1110
C:\Users\stapi\AppData\Local\Temp\cc3AqCjg.s:14643  .debug_str:0000000000003f84 .LASF1111
C:\Users\stapi\AppData\Local\Temp\cc3AqCjg.s:14449  .debug_str:0000000000003696 .LASF1112
C:\Users\stapi\AppData\Local\Temp\cc3AqCjg.s:15217  .debug_str:0000000000005c23 .LASF1113
C:\Users\stapi\AppData\Local\Temp\cc3AqCjg.s:15561  .debug_str:0000000000006cda .LASF1114
C:\Users\stapi\AppData\Local\Temp\cc3AqCjg.s:14239  .debug_str:0000000000002d14 .LASF1115
C:\Users\stapi\AppData\Local\Temp\cc3AqCjg.s:15111  .debug_str:000000000000572a .LASF1116
C:\Users\stapi\AppData\Local\Temp\cc3AqCjg.s:14353  .debug_str:000000000000322e .LASF1117
C:\Users\stapi\AppData\Local\Temp\cc3AqCjg.s:13791  .debug_str:00000000000018e0 .LASF1118
C:\Users\stapi\AppData\Local\Temp\cc3AqCjg.s:13553  .debug_str:0000000000000df4 .LASF1119
C:\Users\stapi\AppData\Local\Temp\cc3AqCjg.s:13953  .debug_str:0000000000001fb1 .LASF1120
C:\Users\stapi\AppData\Local\Temp\cc3AqCjg.s:15335  .debug_str:0000000000006252 .LASF1121
C:\Users\stapi\AppData\Local\Temp\cc3AqCjg.s:14499  .debug_str:00000000000038cc .LASF1122
C:\Users\stapi\AppData\Local\Temp\cc3AqCjg.s:15471  .debug_str:000000000000687b .LASF1123
C:\Users\stapi\AppData\Local\Temp\cc3AqCjg.s:14451  .debug_str:00000000000036a3 .LASF1124
C:\Users\stapi\AppData\Local\Temp\cc3AqCjg.s:15021  .debug_str:00000000000052cd .LASF1125
C:\Users\stapi\AppData\Local\Temp\cc3AqCjg.s:15371  .debug_str:00000000000063d2 .LASF1126
C:\Users\stapi\AppData\Local\Temp\cc3AqCjg.s:14899  .debug_str:0000000000004cf9 .LASF1127
C:\Users\stapi\AppData\Local\Temp\cc3AqCjg.s:15629  .debug_str:0000000000007007 .LASF1128
C:\Users\stapi\AppData\Local\Temp\cc3AqCjg.s:15401  .debug_str:0000000000006554 .LASF1129
C:\Users\stapi\AppData\Local\Temp\cc3AqCjg.s:13839  .debug_str:0000000000001ae5 .LASF1130
C:\Users\stapi\AppData\Local\Temp\cc3AqCjg.s:14605  .debug_str:0000000000003da0 .LASF1131
C:\Users\stapi\AppData\Local\Temp\cc3AqCjg.s:14805  .debug_str:0000000000004885 .LASF1133
C:\Users\stapi\AppData\Local\Temp\cc3AqCjg.s:13633  .debug_str:00000000000011a2 .LASF1134
C:\Users\stapi\AppData\Local\Temp\cc3AqCjg.s:14853  .debug_str:0000000000004aaf .LASF1135
C:\Users\stapi\AppData\Local\Temp\cc3AqCjg.s:14183  .debug_str:0000000000002a36 .LASF1136
C:\Users\stapi\AppData\Local\Temp\cc3AqCjg.s:13345  .debug_str:0000000000000428 .LASF1137
C:\Users\stapi\AppData\Local\Temp\cc3AqCjg.s:13617  .debug_str:00000000000010f8 .LASF1138
C:\Users\stapi\AppData\Local\Temp\cc3AqCjg.s:1884   .text.app_blue_courier_deinit:0000000000000000 .LFB30
C:\Users\stapi\AppData\Local\Temp\cc3AqCjg.s:1905   .text.app_blue_courier_deinit:0000000000000030 .LFE30
C:\Users\stapi\AppData\Local\Temp\cc3AqCjg.s:1894   .text.app_blue_courier_deinit:0000000000000018 .LVL169
C:\Users\stapi\AppData\Local\Temp\cc3AqCjg.s:1899   .text.app_blue_courier_deinit:0000000000000028 .LVL170
C:\Users\stapi\AppData\Local\Temp\cc3AqCjg.s:13381  .debug_str:00000000000005ef .LASF1139
C:\Users\stapi\AppData\Local\Temp\cc3AqCjg.s:1830   .text.app_blue_courier_init:0000000000000000 .LFB29
C:\Users\stapi\AppData\Local\Temp\cc3AqCjg.s:1877   .text.app_blue_courier_init:0000000000000058 .LFE29
C:\Users\stapi\AppData\Local\Temp\cc3AqCjg.s:14405  .debug_str:000000000000348a .LASF1140
C:\Users\stapi\AppData\Local\Temp\cc3AqCjg.s:1864   .text.app_blue_courier_init:000000000000003e .LVL167
C:\Users\stapi\AppData\Local\Temp\cc3AqCjg.s:1869   .text.app_blue_courier_init:000000000000004e .LVL168
C:\Users\stapi\AppData\Local\Temp\cc3AqCjg.s:13693  .debug_str:000000000000147b .LASF1194
C:\Users\stapi\AppData\Local\Temp\cc3AqCjg.s:1564   .text.bcw_prf_enable:0000000000000000 .LFB28
C:\Users\stapi\AppData\Local\Temp\cc3AqCjg.s:1763   .text.bcw_prf_enable:0000000000000100 .LFE28
C:\Users\stapi\AppData\Local\Temp\cc3AqCjg.s:13841  .debug_str:0000000000001aeb .LASF1165
C:\Users\stapi\AppData\Local\Temp\cc3AqCjg.s:11651  .debug_loc:0000000000000000 .LLST47
C:\Users\stapi\AppData\Local\Temp\cc3AqCjg.s:11665  .debug_loc:0000000000000021 .LLST48
C:\Users\stapi\AppData\Local\Temp\cc3AqCjg.s:1622   .text.bcw_prf_enable:000000000000005a .LBB94
C:\Users\stapi\AppData\Local\Temp\cc3AqCjg.s:1675   .text.bcw_prf_enable:00000000000000a0 .LBE94
C:\Users\stapi\AppData\Local\Temp\cc3AqCjg.s:1640   .text.bcw_prf_enable:000000000000006a .LVL152
C:\Users\stapi\AppData\Local\Temp\cc3AqCjg.s:1671   .text.bcw_prf_enable:000000000000009e .LVL153
C:\Users\stapi\AppData\Local\Temp\cc3AqCjg.s:1701   .text.bcw_prf_enable:00000000000000ba .LBB96
C:\Users\stapi\AppData\Local\Temp\cc3AqCjg.s:1718   .text.bcw_prf_enable:00000000000000d4 .LVL157
C:\Users\stapi\AppData\Local\Temp\cc3AqCjg.s:1758   .text.bcw_prf_enable:00000000000000fe .LVL162
C:\Users\stapi\AppData\Local\Temp\cc3AqCjg.s:1615   .text.bcw_prf_enable:000000000000004a .LVL150
C:\Users\stapi\AppData\Local\Temp\cc3AqCjg.s:1620   .text.bcw_prf_enable:000000000000005a .LVL151
C:\Users\stapi\AppData\Local\Temp\cc3AqCjg.s:1682   .text.bcw_prf_enable:00000000000000ae .LVL155
C:\Users\stapi\AppData\Local\Temp\cc3AqCjg.s:1744   .text.bcw_prf_enable:00000000000000ec .LVL161
C:\Users\stapi\AppData\Local\Temp\cc3AqCjg.s:14575  .debug_str:0000000000003c41 .LASF1195
C:\Users\stapi\AppData\Local\Temp\cc3AqCjg.s:14157  .debug_str:000000000000291e .LASF1149
C:\Users\stapi\AppData\Local\Temp\cc3AqCjg.s:15031  .debug_str:000000000000532d .LASF1146
C:\Users\stapi\AppData\Local\Temp\cc3AqCjg.s:15255  .debug_str:0000000000005e57 .LASF1142
C:\Users\stapi\AppData\Local\Temp\cc3AqCjg.s:13267  .debug_str:00000000000000dd .LASF1141
C:\Users\stapi\AppData\Local\Temp\cc3AqCjg.s:13499  .debug_str:0000000000000b95 .LASF1143
C:\Users\stapi\AppData\Local\Temp\cc3AqCjg.s:15567  .debug_str:0000000000006d1b .LASF1144
C:\Users\stapi\AppData\Local\Temp\cc3AqCjg.s:14163  .debug_str:0000000000002963 .LASF1145
C:\Users\stapi\AppData\Local\Temp\cc3AqCjg.s:13283  .debug_str:000000000000017f .LASF1157
C:\Users\stapi\AppData\Local\Temp\cc3AqCjg.s:13411  .debug_str:0000000000000752 .LASF1147
C:\Users\stapi\AppData\Local\Temp\cc3AqCjg.s:14381  .debug_str:000000000000336d .LASF1148
C:\Users\stapi\AppData\Local\Temp\cc3AqCjg.s:14329  .debug_str:00000000000030fa .LASF1150
C:\Users\stapi\AppData\Local\Temp\cc3AqCjg.s:14521  .debug_str:00000000000039a2 .LASF1151
C:\Users\stapi\AppData\Local\Temp\cc3AqCjg.s:15131  .debug_str:0000000000005817 .LASF1152
C:\Users\stapi\AppData\Local\Temp\cc3AqCjg.s:13901  .debug_str:0000000000001dac .LASF1153
C:\Users\stapi\AppData\Local\Temp\cc3AqCjg.s:13625  .debug_str:0000000000001163 .LASF1154
C:\Users\stapi\AppData\Local\Temp\cc3AqCjg.s:15501  .debug_str:0000000000006a09 .LASF1158
C:\Users\stapi\AppData\Local\Temp\cc3AqCjg.s:15241  .debug_str:0000000000005d8b .LASF1155
C:\Users\stapi\AppData\Local\Temp\cc3AqCjg.s:13409  .debug_str:0000000000000743 .LASF1156
C:\Users\stapi\AppData\Local\Temp\cc3AqCjg.s:15369  .debug_str:00000000000063c5 .LASF1159
C:\Users\stapi\AppData\Local\Temp\cc3AqCjg.s:14025  .debug_str:0000000000002313 .LASF1160
C:\Users\stapi\AppData\Local\Temp\cc3AqCjg.s:14509  .debug_str:000000000000391a .LASF1196
C:\Users\stapi\AppData\Local\Temp\cc3AqCjg.s:15179  .debug_str:0000000000005a58 .LASF1161
C:\Users\stapi\AppData\Local\Temp\cc3AqCjg.s:13951  .debug_str:0000000000001fa6 .LASF1162
C:\Users\stapi\AppData\Local\Temp\cc3AqCjg.s:14467  .debug_str:0000000000003762 .LASF1163
C:\Users\stapi\AppData\Local\Temp\cc3AqCjg.s:15417  .debug_str:00000000000065e5 .LASF1164
C:\Users\stapi\AppData\Local\Temp\cc3AqCjg.s:894    .text.bcwl_msg_handler:0000000000000000 .LFB17
C:\Users\stapi\AppData\Local\Temp\cc3AqCjg.s:972    .text.bcwl_msg_handler:000000000000007a .LFE17
C:\Users\stapi\AppData\Local\Temp\cc3AqCjg.s:11696  .debug_loc:000000000000006f .LLST30
C:\Users\stapi\AppData\Local\Temp\cc3AqCjg.s:11743  .debug_loc:00000000000000db .LLST31
C:\Users\stapi\AppData\Local\Temp\cc3AqCjg.s:11794  .debug_loc:0000000000000152 .LLST32
C:\Users\stapi\AppData\Local\Temp\cc3AqCjg.s:926    .text.bcwl_msg_handler:000000000000003a .LVL76
C:\Users\stapi\AppData\Local\Temp\cc3AqCjg.s:932    .text.bcwl_msg_handler:0000000000000044 .LVL77
C:\Users\stapi\AppData\Local\Temp\cc3AqCjg.s:959    .text.bcwl_msg_handler:000000000000006a .LVL83
C:\Users\stapi\AppData\Local\Temp\cc3AqCjg.s:968    .text.bcwl_msg_handler:0000000000000078 .LVL86
C:\Users\stapi\AppData\Local\Temp\cc3AqCjg.s:15299  .debug_str:000000000000608b .LASF1166
C:\Users\stapi\AppData\Local\Temp\cc3AqCjg.s:13929  .debug_str:0000000000001ec6 .LASF1167
C:\Users\stapi\AppData\Local\Temp\cc3AqCjg.s:15045  .debug_str:00000000000053e5 .LASF1168
C:\Users\stapi\AppData\Local\Temp\cc3AqCjg.s:13629  .debug_str:0000000000001186 .LASF1169
C:\Users\stapi\AppData\Local\Temp\cc3AqCjg.s:680    .text.bcwl_send_ack:0000000000000000 .LFB15
C:\Users\stapi\AppData\Local\Temp\cc3AqCjg.s:707    .text.bcwl_send_ack:0000000000000028 .LFE15
C:\Users\stapi\AppData\Local\Temp\cc3AqCjg.s:11841  .debug_loc:00000000000001be .LLST22
C:\Users\stapi\AppData\Local\Temp\cc3AqCjg.s:699    .text.bcwl_send_ack:000000000000001e .LVL54
C:\Users\stapi\AppData\Local\Temp\cc3AqCjg.s:14289  .debug_str:0000000000002f44 .LASF1170
C:\Users\stapi\AppData\Local\Temp\cc3AqCjg.s:646    .text.bcwl_error_report:0000000000000000 .LFB14
C:\Users\stapi\AppData\Local\Temp\cc3AqCjg.s:673    .text.bcwl_error_report:0000000000000028 .LFE14
C:\Users\stapi\AppData\Local\Temp\cc3AqCjg.s:11853  .debug_loc:00000000000001dd .LLST21
C:\Users\stapi\AppData\Local\Temp\cc3AqCjg.s:665    .text.bcwl_error_report:000000000000001e .LVL51
C:\Users\stapi\AppData\Local\Temp\cc3AqCjg.s:14063  .debug_str:00000000000024b7 .LASF1171
C:\Users\stapi\AppData\Local\Temp\cc3AqCjg.s:14     .text.bcwl_conn_evt_handler:0000000000000000 .LFB22
C:\Users\stapi\AppData\Local\Temp\cc3AqCjg.s:94     .text.bcwl_conn_evt_handler:0000000000000066 .LFE22
C:\Users\stapi\AppData\Local\Temp\cc3AqCjg.s:11865  .debug_loc:00000000000001fc .LLST0
C:\Users\stapi\AppData\Local\Temp\cc3AqCjg.s:11883  .debug_loc:0000000000000228 .LLST1
C:\Users\stapi\AppData\Local\Temp\cc3AqCjg.s:39     .text.bcwl_conn_evt_handler:0000000000000028 .LBB17
C:\Users\stapi\AppData\Local\Temp\cc3AqCjg.s:84     .text.bcwl_conn_evt_handler:000000000000005c .LBE17
C:\Users\stapi\AppData\Local\Temp\cc3AqCjg.s:11901  .debug_loc:0000000000000254 .LLST2
C:\Users\stapi\AppData\Local\Temp\cc3AqCjg.s:77     .text.bcwl_conn_evt_handler:0000000000000058 .LVL3
C:\Users\stapi\AppData\Local\Temp\cc3AqCjg.s:104    .text.bcwl_adv_mgr_evt_hdlr:0000000000000000 .LFB24
C:\Users\stapi\AppData\Local\Temp\cc3AqCjg.s:331    .text.bcwl_adv_mgr_evt_hdlr:0000000000000110 .LFE24
C:\Users\stapi\AppData\Local\Temp\cc3AqCjg.s:11909  .debug_loc:0000000000000268 .LLST3
C:\Users\stapi\AppData\Local\Temp\cc3AqCjg.s:11927  .debug_loc:0000000000000294 .LLST4
C:\Users\stapi\AppData\Local\Temp\cc3AqCjg.s:11953  .debug_loc:00000000000002d6 .LLST5
C:\Users\stapi\AppData\Local\Temp\cc3AqCjg.s:118    .text.bcwl_adv_mgr_evt_hdlr:000000000000000c .LBB25
C:\Users\stapi\AppData\Local\Temp\cc3AqCjg.s:11971  .debug_loc:0000000000000302 .LLST6
C:\Users\stapi\AppData\Local\Temp\cc3AqCjg.s:11984  .debug_loc:0000000000000322 .LLST7
C:\Users\stapi\AppData\Local\Temp\cc3AqCjg.s:12005  .debug_loc:0000000000000351 .LLST8
C:\Users\stapi\AppData\Local\Temp\cc3AqCjg.s:12027  .debug_loc:0000000000000388 .LLST9
C:\Users\stapi\AppData\Local\Temp\cc3AqCjg.s:12049  .debug_loc:00000000000003bf .LLST10
C:\Users\stapi\AppData\Local\Temp\cc3AqCjg.s:177    .text.bcwl_adv_mgr_evt_hdlr:0000000000000062 .LBB28
C:\Users\stapi\AppData\Local\Temp\cc3AqCjg.s:12060  .debug_loc:00000000000003dd .LLST11
C:\Users\stapi\AppData\Local\Temp\cc3AqCjg.s:201    .text.bcwl_adv_mgr_evt_hdlr:0000000000000076 .LVL14
C:\Users\stapi\AppData\Local\Temp\cc3AqCjg.s:259    .text.bcwl_adv_mgr_evt_hdlr:00000000000000c2 .LVL15
C:\Users\stapi\AppData\Local\Temp\cc3AqCjg.s:158    .text.bcwl_adv_mgr_evt_hdlr:000000000000004e .LVL11
C:\Users\stapi\AppData\Local\Temp\cc3AqCjg.s:293    .text.bcwl_adv_mgr_evt_hdlr:00000000000000e4 .LVL17
C:\Users\stapi\AppData\Local\Temp\cc3AqCjg.s:312    .text.bcwl_adv_mgr_evt_hdlr:0000000000000108 .LVL18
C:\Users\stapi\AppData\Local\Temp\cc3AqCjg.s:348    .text.bcwl_send:0000000000000000 .LFB19
C:\Users\stapi\AppData\Local\Temp\cc3AqCjg.s:639    .text.bcwl_send:00000000000001ae .LFE19
C:\Users\stapi\AppData\Local\Temp\cc3AqCjg.s:12073  .debug_loc:00000000000003fd .LLST12
C:\Users\stapi\AppData\Local\Temp\cc3AqCjg.s:12098  .debug_loc:0000000000000437 .LLST13
C:\Users\stapi\AppData\Local\Temp\cc3AqCjg.s:12124  .debug_loc:0000000000000479 .LLST14
C:\Users\stapi\AppData\Local\Temp\cc3AqCjg.s:12149  .debug_loc:00000000000004b3 .LLST15
C:\Users\stapi\AppData\Local\Temp\cc3AqCjg.s:384    .text.bcwl_send:0000000000000028 .LBB42
C:\Users\stapi\AppData\Local\Temp\cc3AqCjg.s:12174  .debug_loc:00000000000004ed .LLST16
C:\Users\stapi\AppData\Local\Temp\cc3AqCjg.s:12181  .debug_loc:0000000000000500 .LLST17
C:\Users\stapi\AppData\Local\Temp\cc3AqCjg.s:12201  .debug_loc:0000000000000535 .LLST18
C:\Users\stapi\AppData\Local\Temp\cc3AqCjg.s:388    .text.bcwl_send:000000000000002c .LBB44
C:\Users\stapi\AppData\Local\Temp\cc3AqCjg.s:12220  .debug_loc:0000000000000569 .LLST19
C:\Users\stapi\AppData\Local\Temp\cc3AqCjg.s:12256  .debug_loc:00000000000005a7 .LLST20
C:\Users\stapi\AppData\Local\Temp\cc3AqCjg.s:568    .text.bcwl_send:0000000000000142 .LVL39
C:\Users\stapi\AppData\Local\Temp\cc3AqCjg.s:632    .text.bcwl_send:00000000000001ac .LVL48
C:\Users\stapi\AppData\Local\Temp\cc3AqCjg.s:412    .text.bcwl_send:0000000000000054 .LVL24
C:\Users\stapi\AppData\Local\Temp\cc3AqCjg.s:430    .text.bcwl_send:000000000000007a .LVL26
C:\Users\stapi\AppData\Local\Temp\cc3AqCjg.s:436    .text.bcwl_send:0000000000000084 .LVL27
C:\Users\stapi\AppData\Local\Temp\cc3AqCjg.s:509    .text.bcwl_send:00000000000000e0 .LVL33
C:\Users\stapi\AppData\Local\Temp\cc3AqCjg.s:540    .text.bcwl_send:0000000000000114 .LVL36
C:\Users\stapi\AppData\Local\Temp\cc3AqCjg.s:575    .text.bcwl_send:000000000000014c .LVL40
C:\Users\stapi\AppData\Local\Temp\cc3AqCjg.s:585    .text.bcwl_send:000000000000015e .LVL42
C:\Users\stapi\AppData\Local\Temp\cc3AqCjg.s:611    .text.bcwl_send:000000000000018c .LVL44
C:\Users\stapi\AppData\Local\Temp\cc3AqCjg.s:456    .text.bcwl_send:00000000000000a8 .LVL31
C:\Users\stapi\AppData\Local\Temp\cc3AqCjg.s:721    .text.bcwl_handle_mgmt_handshake:0000000000000000 .LFB16
C:\Users\stapi\AppData\Local\Temp\cc3AqCjg.s:883    .text.bcwl_handle_mgmt_handshake:00000000000000cc .LFE16
C:\Users\stapi\AppData\Local\Temp\cc3AqCjg.s:12267  .debug_loc:00000000000005c5 .LLST23
C:\Users\stapi\AppData\Local\Temp\cc3AqCjg.s:12289  .debug_loc:00000000000005fc .LLST24
C:\Users\stapi\AppData\Local\Temp\cc3AqCjg.s:12314  .debug_loc:0000000000000636 .LLST25
C:\Users\stapi\AppData\Local\Temp\cc3AqCjg.s:779    .text.bcwl_handle_mgmt_handshake:0000000000000048 .LBB60
C:\Users\stapi\AppData\Local\Temp\cc3AqCjg.s:12336  .debug_loc:000000000000066d .LLST26
C:\Users\stapi\AppData\Local\Temp\cc3AqCjg.s:12344  .debug_loc:0000000000000681 .LLST27
C:\Users\stapi\AppData\Local\Temp\cc3AqCjg.s:800    .text.bcwl_handle_mgmt_handshake:0000000000000062 .LBB62
C:\Users\stapi\AppData\Local\Temp\cc3AqCjg.s:12351  .debug_loc:0000000000000694 .LLST28
C:\Users\stapi\AppData\Local\Temp\cc3AqCjg.s:12360  .debug_loc:00000000000006aa .LLST29
C:\Users\stapi\AppData\Local\Temp\cc3AqCjg.s:792    .text.bcwl_handle_mgmt_handshake:0000000000000062 .LVL65
C:\Users\stapi\AppData\Local\Temp\cc3AqCjg.s:870    .text.bcwl_handle_mgmt_handshake:00000000000000bc .LVL70
C:\Users\stapi\AppData\Local\Temp\cc3AqCjg.s:878    .text.bcwl_handle_mgmt_handshake:00000000000000ca .LVL71
C:\Users\stapi\AppData\Local\Temp\cc3AqCjg.s:757    .text.bcwl_handle_mgmt_handshake:0000000000000034 .LVL59
C:\Users\stapi\AppData\Local\Temp\cc3AqCjg.s:763    .text.bcwl_handle_mgmt_handshake:000000000000003e .LVL60
C:\Users\stapi\AppData\Local\Temp\cc3AqCjg.s:992    .text.bcwl_receive:0000000000000000 .LFB20
C:\Users\stapi\AppData\Local\Temp\cc3AqCjg.s:1346   .text.bcwl_receive:0000000000000230 .LFE20
C:\Users\stapi\AppData\Local\Temp\cc3AqCjg.s:12460  .debug_loc:0000000000000730 .LLST33
C:\Users\stapi\AppData\Local\Temp\cc3AqCjg.s:12511  .debug_loc:00000000000007a7 .LLST34
C:\Users\stapi\AppData\Local\Temp\cc3AqCjg.s:12547  .debug_loc:00000000000007fa .LLST35
C:\Users\stapi\AppData\Local\Temp\cc3AqCjg.s:1029   .text.bcwl_receive:0000000000000034 .LBB76
C:\Users\stapi\AppData\Local\Temp\cc3AqCjg.s:12598  .debug_loc:0000000000000871 .LLST36
C:\Users\stapi\AppData\Local\Temp\cc3AqCjg.s:12609  .debug_loc:000000000000088f .LLST37
C:\Users\stapi\AppData\Local\Temp\cc3AqCjg.s:12645  .debug_loc:00000000000008e2 .LLST38
C:\Users\stapi\AppData\Local\Temp\cc3AqCjg.s:12652  .debug_loc:00000000000008f5 .LLST39
C:\Users\stapi\AppData\Local\Temp\cc3AqCjg.s:12675  .debug_loc:0000000000000934 .LLST40
C:\Users\stapi\AppData\Local\Temp\cc3AqCjg.s:1033   .text.bcwl_receive:000000000000003c .LVL92
C:\Users\stapi\AppData\Local\Temp\cc3AqCjg.s:1078   .text.bcwl_receive:0000000000000080 .LVL97
C:\Users\stapi\AppData\Local\Temp\cc3AqCjg.s:1094   .text.bcwl_receive:0000000000000098 .LVL99
C:\Users\stapi\AppData\Local\Temp\cc3AqCjg.s:1114   .text.bcwl_receive:00000000000000c6 .LVL100
C:\Users\stapi\AppData\Local\Temp\cc3AqCjg.s:1133   .text.bcwl_receive:00000000000000e4 .LVL101
C:\Users\stapi\AppData\Local\Temp\cc3AqCjg.s:1167   .text.bcwl_receive:000000000000011a .LVL106
C:\Users\stapi\AppData\Local\Temp\cc3AqCjg.s:1191   .text.bcwl_receive:0000000000000134 .LVL110
C:\Users\stapi\AppData\Local\Temp\cc3AqCjg.s:1199   .text.bcwl_receive:0000000000000142 .LVL111
C:\Users\stapi\AppData\Local\Temp\cc3AqCjg.s:1212   .text.bcwl_receive:0000000000000168 .LVL112
C:\Users\stapi\AppData\Local\Temp\cc3AqCjg.s:1237   .text.bcwl_receive:000000000000018a .LVL116
C:\Users\stapi\AppData\Local\Temp\cc3AqCjg.s:1253   .text.bcwl_receive:00000000000001a6 .LVL117
C:\Users\stapi\AppData\Local\Temp\cc3AqCjg.s:1286   .text.bcwl_receive:00000000000001d6 .LVL120
C:\Users\stapi\AppData\Local\Temp\cc3AqCjg.s:1292   .text.bcwl_receive:00000000000001e8 .LVL121
C:\Users\stapi\AppData\Local\Temp\cc3AqCjg.s:1303   .text.bcwl_receive:00000000000001fa .LVL122
C:\Users\stapi\AppData\Local\Temp\cc3AqCjg.s:1323   .text.bcwl_receive:000000000000021c .LVL124
C:\Users\stapi\AppData\Local\Temp\cc3AqCjg.s:1023   .text.bcwl_receive:0000000000000032 .LVL91
C:\Users\stapi\AppData\Local\Temp\cc3AqCjg.s:1365   .text.bcwl_gatts_msg_cb:0000000000000000 .LFB21
C:\Users\stapi\AppData\Local\Temp\cc3AqCjg.s:1557   .text.bcwl_gatts_msg_cb:0000000000000100 .LFE21
C:\Users\stapi\AppData\Local\Temp\cc3AqCjg.s:12954  .debug_loc:0000000000000a8f .LLST41
C:\Users\stapi\AppData\Local\Temp\cc3AqCjg.s:1404   .text.bcwl_gatts_msg_cb:0000000000000030 .LBB84
C:\Users\stapi\AppData\Local\Temp\cc3AqCjg.s:12979  .debug_loc:0000000000000ac9 .LLST42
C:\Users\stapi\AppData\Local\Temp\cc3AqCjg.s:13000  .debug_loc:0000000000000af8 .LLST43
C:\Users\stapi\AppData\Local\Temp\cc3AqCjg.s:13011  .debug_loc:0000000000000b16 .LLST44
C:\Users\stapi\AppData\Local\Temp\cc3AqCjg.s:13022  .debug_loc:0000000000000b34 .LLST45
C:\Users\stapi\AppData\Local\Temp\cc3AqCjg.s:13033  .debug_loc:0000000000000b52 .LLST46
C:\Users\stapi\AppData\Local\Temp\cc3AqCjg.s:1433   .text.bcwl_gatts_msg_cb:0000000000000064 .LVL135
C:\Users\stapi\AppData\Local\Temp\cc3AqCjg.s:1460   .text.bcwl_gatts_msg_cb:000000000000008e .LVL137
C:\Users\stapi\AppData\Local\Temp\cc3AqCjg.s:1499   .text.bcwl_gatts_msg_cb:00000000000000bc .LVL140
C:\Users\stapi\AppData\Local\Temp\cc3AqCjg.s:1512   .text.bcwl_gatts_msg_cb:00000000000000cc .LVL143
C:\Users\stapi\AppData\Local\Temp\cc3AqCjg.s:1536   .text.bcwl_gatts_msg_cb:00000000000000fa .LVL144
C:\Users\stapi\AppData\Local\Temp\cc3AqCjg.s:1769   .text.bcwl_adp_evt_handler:0000000000000000 .LFB25
C:\Users\stapi\AppData\Local\Temp\cc3AqCjg.s:1823   .text.bcwl_adp_evt_handler:0000000000000048 .LFE25
C:\Users\stapi\AppData\Local\Temp\cc3AqCjg.s:13054  .debug_loc:0000000000000b88 .LLST49
C:\Users\stapi\AppData\Local\Temp\cc3AqCjg.s:13072  .debug_loc:0000000000000bb4 .LLST50
C:\Users\stapi\AppData\Local\Temp\cc3AqCjg.s:1796   .text.bcwl_adp_evt_handler:0000000000000028 .LBB104
C:\Users\stapi\AppData\Local\Temp\cc3AqCjg.s:1809   .text.bcwl_adp_evt_handler:0000000000000036 .LBE104
C:\Users\stapi\AppData\Local\Temp\cc3AqCjg.s:13090  .debug_loc:0000000000000be0 .LLST51
C:\Users\stapi\AppData\Local\Temp\cc3AqCjg.s:13098  .debug_loc:0000000000000bf4 .LLST52
C:\Users\stapi\AppData\Local\Temp\cc3AqCjg.s:1806   .text.bcwl_adp_evt_handler:0000000000000036 .LVL166
C:\Users\stapi\AppData\Local\Temp\cc3AqCjg.s:14649  .debug_str:0000000000003fae .LASF1172
C:\Users\stapi\AppData\Local\Temp\cc3AqCjg.s:15313  .debug_str:0000000000006146 .LASF1173
C:\Users\stapi\AppData\Local\Temp\cc3AqCjg.s:14339  .debug_str:000000000000318c .LASF1174
C:\Users\stapi\AppData\Local\Temp\cc3AqCjg.s:14949  .debug_str:0000000000004f64 .LASF1175
C:\Users\stapi\AppData\Local\Temp\cc3AqCjg.s:14469  .debug_str:0000000000003776 .LASF1197
C:\Users\stapi\AppData\Local\Temp\cc3AqCjg.s:13579  .debug_str:0000000000000f2e .LASF1198
C:\Users\stapi\AppData\Local\Temp\cc3AqCjg.s:14035  .debug_str:0000000000002379 .LASF1176
C:\Users\stapi\AppData\Local\Temp\cc3AqCjg.s:15139  .debug_str:000000000000586b .LASF1177
C:\Users\stapi\AppData\Local\Temp\cc3AqCjg.s:14327  .debug_str:00000000000030eb .LASF1178
C:\Users\stapi\AppData\Local\Temp\cc3AqCjg.s:14813  .debug_str:00000000000048ee .LASF1179
C:\Users\stapi\AppData\Local\Temp\cc3AqCjg.s:13865  .debug_str:0000000000001be8 .LASF1180
C:\Users\stapi\AppData\Local\Temp\cc3AqCjg.s:13259  .debug_str:0000000000000061 .LASF1181
C:\Users\stapi\AppData\Local\Temp\cc3AqCjg.s:14365  .debug_str:00000000000032b2 .LASF1182
C:\Users\stapi\AppData\Local\Temp\cc3AqCjg.s:14559  .debug_str:0000000000003b95 .LASF1183
C:\Users\stapi\AppData\Local\Temp\cc3AqCjg.s:13439  .debug_str:0000000000000883 .LASF1184
C:\Users\stapi\AppData\Local\Temp\cc3AqCjg.s:13671  .debug_str:0000000000001376 .LASF1185
C:\Users\stapi\AppData\Local\Temp\cc3AqCjg.s:15039  .debug_str:000000000000539a .LASF1186
C:\Users\stapi\AppData\Local\Temp\cc3AqCjg.s:14603  .debug_str:0000000000003d95 .LASF1187
C:\Users\stapi\AppData\Local\Temp\cc3AqCjg.s:13961  .debug_str:0000000000001fef .LASF1188
C:\Users\stapi\AppData\Local\Temp\cc3AqCjg.s:14963  .debug_str:0000000000004fec .LASF1189
C:\Users\stapi\AppData\Local\Temp\cc3AqCjg.s:15601  .debug_str:0000000000006e96 .LASF1190
C:\Users\stapi\AppData\Local\Temp\cc3AqCjg.s:1567   .text.bcw_prf_enable:0000000000000000 .LVL147
C:\Users\stapi\AppData\Local\Temp\cc3AqCjg.s:1582   .text.bcw_prf_enable:000000000000000e .LVL149
C:\Users\stapi\AppData\Local\Temp\cc3AqCjg.s:1576   .text.bcw_prf_enable:0000000000000008 .LVL148
C:\Users\stapi\AppData\Local\Temp\cc3AqCjg.s:1673   .text.bcw_prf_enable:00000000000000a0 .LVL154
C:\Users\stapi\AppData\Local\Temp\cc3AqCjg.s:1697   .text.bcw_prf_enable:00000000000000ba .LVL156
C:\Users\stapi\AppData\Local\Temp\cc3AqCjg.s:1722   .text.bcw_prf_enable:00000000000000d6 .LVL158
C:\Users\stapi\AppData\Local\Temp\cc3AqCjg.s:1729   .text.bcw_prf_enable:00000000000000da .LVL159
C:\Users\stapi\AppData\Local\Temp\cc3AqCjg.s:1736   .text.bcw_prf_enable:00000000000000dc .LVL160
C:\Users\stapi\AppData\Local\Temp\cc3AqCjg.s:897    .text.bcwl_msg_handler:0000000000000000 .LVL72
C:\Users\stapi\AppData\Local\Temp\cc3AqCjg.s:920    .text.bcwl_msg_handler:0000000000000028 .LVL74
C:\Users\stapi\AppData\Local\Temp\cc3AqCjg.s:935    .text.bcwl_msg_handler:0000000000000046 .LVL78
C:\Users\stapi\AppData\Local\Temp\cc3AqCjg.s:943    .text.bcwl_msg_handler:0000000000000056 .LVL79
C:\Users\stapi\AppData\Local\Temp\cc3AqCjg.s:950    .text.bcwl_msg_handler:000000000000005e .LVL80
C:\Users\stapi\AppData\Local\Temp\cc3AqCjg.s:954    .text.bcwl_msg_handler:0000000000000060 .LVL81
C:\Users\stapi\AppData\Local\Temp\cc3AqCjg.s:962    .text.bcwl_msg_handler:000000000000006c .LVL84
C:\Users\stapi\AppData\Local\Temp\cc3AqCjg.s:966    .text.bcwl_msg_handler:0000000000000070 .LVL85
C:\Users\stapi\AppData\Local\Temp\cc3AqCjg.s:918    .text.bcwl_msg_handler:0000000000000024 .LVL73
C:\Users\stapi\AppData\Local\Temp\cc3AqCjg.s:957    .text.bcwl_msg_handler:0000000000000062 .LVL82
C:\Users\stapi\AppData\Local\Temp\cc3AqCjg.s:922    .text.bcwl_msg_handler:000000000000002a .LVL75
C:\Users\stapi\AppData\Local\Temp\cc3AqCjg.s:683    .text.bcwl_send_ack:0000000000000000 .LVL52
C:\Users\stapi\AppData\Local\Temp\cc3AqCjg.s:697    .text.bcwl_send_ack:0000000000000016 .LVL53
C:\Users\stapi\AppData\Local\Temp\cc3AqCjg.s:649    .text.bcwl_error_report:0000000000000000 .LVL49
C:\Users\stapi\AppData\Local\Temp\cc3AqCjg.s:663    .text.bcwl_error_report:0000000000000016 .LVL50
C:\Users\stapi\AppData\Local\Temp\cc3AqCjg.s:18     .text.bcwl_conn_evt_handler:0000000000000000 .LVL0
C:\Users\stapi\AppData\Local\Temp\cc3AqCjg.s:46     .text.bcwl_conn_evt_handler:000000000000002e .LVL2
C:\Users\stapi\AppData\Local\Temp\cc3AqCjg.s:90     .text.bcwl_conn_evt_handler:0000000000000064 .LVL5
C:\Users\stapi\AppData\Local\Temp\cc3AqCjg.s:38     .text.bcwl_conn_evt_handler:0000000000000028 .LVL1
C:\Users\stapi\AppData\Local\Temp\cc3AqCjg.s:81     .text.bcwl_conn_evt_handler:000000000000005c .LVL4
C:\Users\stapi\AppData\Local\Temp\cc3AqCjg.s:107    .text.bcwl_adv_mgr_evt_hdlr:0000000000000000 .LVL6
C:\Users\stapi\AppData\Local\Temp\cc3AqCjg.s:150    .text.bcwl_adv_mgr_evt_hdlr:0000000000000038 .LVL8
C:\Users\stapi\AppData\Local\Temp\cc3AqCjg.s:322    .text.bcwl_adv_mgr_evt_hdlr:000000000000010e .LVL20
C:\Users\stapi\AppData\Local\Temp\cc3AqCjg.s:152    .text.bcwl_adv_mgr_evt_hdlr:000000000000003c .LVL9
C:\Users\stapi\AppData\Local\Temp\cc3AqCjg.s:181    .text.bcwl_adv_mgr_evt_hdlr:0000000000000064 .LVL12
C:\Users\stapi\AppData\Local\Temp\cc3AqCjg.s:276    .text.bcwl_adv_mgr_evt_hdlr:00000000000000cc .LVL16
C:\Users\stapi\AppData\Local\Temp\cc3AqCjg.s:154    .text.bcwl_adv_mgr_evt_hdlr:000000000000003e .LVL10
C:\Users\stapi\AppData\Local\Temp\cc3AqCjg.s:136    .text.bcwl_adv_mgr_evt_hdlr:0000000000000026 .LVL7
C:\Users\stapi\AppData\Local\Temp\cc3AqCjg.s:316    .text.bcwl_adv_mgr_evt_hdlr:000000000000010c .LVL19
C:\Users\stapi\AppData\Local\Temp\cc3AqCjg.s:198    .text.bcwl_adv_mgr_evt_hdlr:000000000000006e .LVL13
C:\Users\stapi\AppData\Local\Temp\cc3AqCjg.s:351    .text.bcwl_send:0000000000000000 .LVL21
C:\Users\stapi\AppData\Local\Temp\cc3AqCjg.s:397    .text.bcwl_send:0000000000000040 .LVL23
C:\Users\stapi\AppData\Local\Temp\cc3AqCjg.s:439    .text.bcwl_send:0000000000000086 .LVL28
C:\Users\stapi\AppData\Local\Temp\cc3AqCjg.s:452    .text.bcwl_send:0000000000000098 .LVL30
C:\Users\stapi\AppData\Local\Temp\cc3AqCjg.s:450    .text.bcwl_send:0000000000000094 .LVL29
C:\Users\stapi\AppData\Local\Temp\cc3AqCjg.s:475    .text.bcwl_send:00000000000000b0 .LVL32
C:\Users\stapi\AppData\Local\Temp\cc3AqCjg.s:369    .text.bcwl_send:0000000000000008 .LVL22
C:\Users\stapi\AppData\Local\Temp\cc3AqCjg.s:550    .text.bcwl_send:0000000000000122 .LVL37
C:\Users\stapi\AppData\Local\Temp\cc3AqCjg.s:414    .text.bcwl_send:0000000000000056 .LVL25
C:\Users\stapi\AppData\Local\Temp\cc3AqCjg.s:578    .text.bcwl_send:000000000000014e .LVL41
C:\Users\stapi\AppData\Local\Temp\cc3AqCjg.s:587    .text.bcwl_send:0000000000000160 .LVL43
C:\Users\stapi\AppData\Local\Temp\cc3AqCjg.s:513    .text.bcwl_send:00000000000000e4 .LVL34
C:\Users\stapi\AppData\Local\Temp\cc3AqCjg.s:533    .text.bcwl_send:000000000000010a .LVL35
C:\Users\stapi\AppData\Local\Temp\cc3AqCjg.s:617    .text.bcwl_send:0000000000000192 .LVL45
C:\Users\stapi\AppData\Local\Temp\cc3AqCjg.s:619    .text.bcwl_send:0000000000000194 .LVL46
C:\Users\stapi\AppData\Local\Temp\cc3AqCjg.s:553    .text.bcwl_send:0000000000000126 .LVL38
C:\Users\stapi\AppData\Local\Temp\cc3AqCjg.s:628    .text.bcwl_send:00000000000001a0 .LVL47
C:\Users\stapi\AppData\Local\Temp\cc3AqCjg.s:724    .text.bcwl_handle_mgmt_handshake:0000000000000000 .LVL55
C:\Users\stapi\AppData\Local\Temp\cc3AqCjg.s:751    .text.bcwl_handle_mgmt_handshake:0000000000000020 .LVL57
C:\Users\stapi\AppData\Local\Temp\cc3AqCjg.s:776    .text.bcwl_handle_mgmt_handshake:0000000000000048 .LVL61
C:\Users\stapi\AppData\Local\Temp\cc3AqCjg.s:788    .text.bcwl_handle_mgmt_handshake:0000000000000056 .LVL63
C:\Users\stapi\AppData\Local\Temp\cc3AqCjg.s:753    .text.bcwl_handle_mgmt_handshake:0000000000000024 .LVL58
C:\Users\stapi\AppData\Local\Temp\cc3AqCjg.s:790    .text.bcwl_handle_mgmt_handshake:000000000000005a .LVL64
C:\Users\stapi\AppData\Local\Temp\cc3AqCjg.s:734    .text.bcwl_handle_mgmt_handshake:0000000000000008 .LVL56
C:\Users\stapi\AppData\Local\Temp\cc3AqCjg.s:785    .text.bcwl_handle_mgmt_handshake:0000000000000052 .LVL62
C:\Users\stapi\AppData\Local\Temp\cc3AqCjg.s:831    .text.bcwl_handle_mgmt_handshake:000000000000007e .LVL68
C:\Users\stapi\AppData\Local\Temp\cc3AqCjg.s:807    .text.bcwl_handle_mgmt_handshake:0000000000000066 .LVL66
C:\Users\stapi\AppData\Local\Temp\cc3AqCjg.s:820    .text.bcwl_handle_mgmt_handshake:0000000000000072 .LVL67
C:\Users\stapi\AppData\Local\Temp\cc3AqCjg.s:995    .text.bcwl_receive:0000000000000000 .LVL87
C:\Users\stapi\AppData\Local\Temp\cc3AqCjg.s:1017   .text.bcwl_receive:000000000000001e .LVL89
C:\Users\stapi\AppData\Local\Temp\cc3AqCjg.s:1045   .text.bcwl_receive:0000000000000044 .LVL93
C:\Users\stapi\AppData\Local\Temp\cc3AqCjg.s:1061   .text.bcwl_receive:0000000000000058 .LVL95
C:\Users\stapi\AppData\Local\Temp\cc3AqCjg.s:1179   .text.bcwl_receive:0000000000000124 .LVL109
C:\Users\stapi\AppData\Local\Temp\cc3AqCjg.s:1217   .text.bcwl_receive:000000000000016a .LVL113
C:\Users\stapi\AppData\Local\Temp\cc3AqCjg.s:1335   .text.bcwl_receive:000000000000022a .LVL126
C:\Users\stapi\AppData\Local\Temp\cc3AqCjg.s:1337   .text.bcwl_receive:000000000000022c .LVL127
C:\Users\stapi\AppData\Local\Temp\cc3AqCjg.s:1341   .text.bcwl_receive:000000000000022e .LVL128
C:\Users\stapi\AppData\Local\Temp\cc3AqCjg.s:1019   .text.bcwl_receive:0000000000000022 .LVL90
C:\Users\stapi\AppData\Local\Temp\cc3AqCjg.s:1073   .text.bcwl_receive:000000000000006c .LVL96
C:\Users\stapi\AppData\Local\Temp\cc3AqCjg.s:1084   .text.bcwl_receive:0000000000000084 .LVL98
C:\Users\stapi\AppData\Local\Temp\cc3AqCjg.s:1002   .text.bcwl_receive:0000000000000008 .LVL88
C:\Users\stapi\AppData\Local\Temp\cc3AqCjg.s:1056   .text.bcwl_receive:0000000000000052 .LVL94
C:\Users\stapi\AppData\Local\Temp\cc3AqCjg.s:1164   .text.bcwl_receive:000000000000010e .LVL105
C:\Users\stapi\AppData\Local\Temp\cc3AqCjg.s:1169   .text.bcwl_receive:000000000000011c .LVL107
C:\Users\stapi\AppData\Local\Temp\cc3AqCjg.s:1175   .text.bcwl_receive:0000000000000122 .LVL108
C:\Users\stapi\AppData\Local\Temp\cc3AqCjg.s:1223   .text.bcwl_receive:000000000000016e .LVL114
C:\Users\stapi\AppData\Local\Temp\cc3AqCjg.s:1263   .text.bcwl_receive:00000000000001b2 .LVL118
C:\Users\stapi\AppData\Local\Temp\cc3AqCjg.s:1270   .text.bcwl_receive:00000000000001b8 .LVL119
C:\Users\stapi\AppData\Local\Temp\cc3AqCjg.s:1331   .text.bcwl_receive:0000000000000228 .LVL125
C:\Users\stapi\AppData\Local\Temp\cc3AqCjg.s:1137   .text.bcwl_receive:00000000000000e8 .LVL102
C:\Users\stapi\AppData\Local\Temp\cc3AqCjg.s:1141   .text.bcwl_receive:00000000000000ec .LVL103
C:\Users\stapi\AppData\Local\Temp\cc3AqCjg.s:1146   .text.bcwl_receive:00000000000000f4 .LVL104
C:\Users\stapi\AppData\Local\Temp\cc3AqCjg.s:1229   .text.bcwl_receive:000000000000017a .LVL115
C:\Users\stapi\AppData\Local\Temp\cc3AqCjg.s:1308   .text.bcwl_receive:0000000000000200 .LVL123
C:\Users\stapi\AppData\Local\Temp\cc3AqCjg.s:1368   .text.bcwl_gatts_msg_cb:0000000000000000 .LVL129
C:\Users\stapi\AppData\Local\Temp\cc3AqCjg.s:1427   .text.bcwl_gatts_msg_cb:0000000000000050 .LVL134
C:\Users\stapi\AppData\Local\Temp\cc3AqCjg.s:1538   .text.bcwl_gatts_msg_cb:00000000000000fc .LVL145
C:\Users\stapi\AppData\Local\Temp\cc3AqCjg.s:1554   .text.bcwl_gatts_msg_cb:00000000000000fe .LVL146
C:\Users\stapi\AppData\Local\Temp\cc3AqCjg.s:1403   .text.bcwl_gatts_msg_cb:0000000000000030 .LVL130
C:\Users\stapi\AppData\Local\Temp\cc3AqCjg.s:1468   .text.bcwl_gatts_msg_cb:000000000000009a .LVL138
C:\Users\stapi\AppData\Local\Temp\cc3AqCjg.s:1486   .text.bcwl_gatts_msg_cb:00000000000000a4 .LVL139
C:\Users\stapi\AppData\Local\Temp\cc3AqCjg.s:1412   .text.bcwl_gatts_msg_cb:000000000000003c .LVL131
C:\Users\stapi\AppData\Local\Temp\cc3AqCjg.s:1416   .text.bcwl_gatts_msg_cb:0000000000000040 .LVL132
C:\Users\stapi\AppData\Local\Temp\cc3AqCjg.s:1420   .text.bcwl_gatts_msg_cb:0000000000000044 .LVL133
C:\Users\stapi\AppData\Local\Temp\cc3AqCjg.s:1445   .text.bcwl_gatts_msg_cb:000000000000006c .LVL136
C:\Users\stapi\AppData\Local\Temp\cc3AqCjg.s:1504   .text.bcwl_gatts_msg_cb:00000000000000be .LVL141
C:\Users\stapi\AppData\Local\Temp\cc3AqCjg.s:1506   .text.bcwl_gatts_msg_cb:00000000000000c0 .LVL142
C:\Users\stapi\AppData\Local\Temp\cc3AqCjg.s:1772   .text.bcwl_adp_evt_handler:0000000000000000 .LVL163
C:\Users\stapi\AppData\Local\Temp\cc3AqCjg.s:1801   .text.bcwl_adp_evt_handler:000000000000002a .LVL165
C:\Users\stapi\AppData\Local\Temp\cc3AqCjg.s:1795   .text.bcwl_adp_evt_handler:0000000000000028 .LVL164
C:\Users\stapi\AppData\Local\Temp\cc3AqCjg.s:2034   .debug_info:0000000000000000 .Ldebug_info0
C:\Users\stapi\AppData\Local\Temp\cc3AqCjg.s:131    .text.bcwl_adv_mgr_evt_hdlr:0000000000000022 .LBE25
C:\Users\stapi\AppData\Local\Temp\cc3AqCjg.s:137    .text.bcwl_adv_mgr_evt_hdlr:0000000000000026 .LBB36
C:\Users\stapi\AppData\Local\Temp\cc3AqCjg.s:265    .text.bcwl_adv_mgr_evt_hdlr:00000000000000c2 .LBE36
C:\Users\stapi\AppData\Local\Temp\cc3AqCjg.s:279    .text.bcwl_adv_mgr_evt_hdlr:00000000000000cc .LBB37
C:\Users\stapi\AppData\Local\Temp\cc3AqCjg.s:319    .text.bcwl_adv_mgr_evt_hdlr:000000000000010c .LBE37
C:\Users\stapi\AppData\Local\Temp\cc3AqCjg.s:186    .text.bcwl_adv_mgr_evt_hdlr:000000000000006a .LBE28
C:\Users\stapi\AppData\Local\Temp\cc3AqCjg.s:190    .text.bcwl_adv_mgr_evt_hdlr:000000000000006e .LBB31
C:\Users\stapi\AppData\Local\Temp\cc3AqCjg.s:262    .text.bcwl_adv_mgr_evt_hdlr:00000000000000c2 .LBE31
C:\Users\stapi\AppData\Local\Temp\cc3AqCjg.s:442    .text.bcwl_send:0000000000000086 .LBE42
C:\Users\stapi\AppData\Local\Temp\cc3AqCjg.s:478    .text.bcwl_send:00000000000000b0 .LBB51
C:\Users\stapi\AppData\Local\Temp\cc3AqCjg.s:637    .text.bcwl_send:00000000000001ae .LBE51
C:\Users\stapi\AppData\Local\Temp\cc3AqCjg.s:400    .text.bcwl_send:0000000000000040 .LBE44
C:\Users\stapi\AppData\Local\Temp\cc3AqCjg.s:554    .text.bcwl_send:0000000000000126 .LBB48
C:\Users\stapi\AppData\Local\Temp\cc3AqCjg.s:571    .text.bcwl_send:0000000000000142 .LBE48
C:\Users\stapi\AppData\Local\Temp\cc3AqCjg.s:621    .text.bcwl_send:0000000000000194 .LBB49
C:\Users\stapi\AppData\Local\Temp\cc3AqCjg.s:635    .text.bcwl_send:00000000000001ae .LBE49
C:\Users\stapi\AppData\Local\Temp\cc3AqCjg.s:795    .text.bcwl_handle_mgmt_handshake:0000000000000062 .LBE60
C:\Users\stapi\AppData\Local\Temp\cc3AqCjg.s:798    .text.bcwl_handle_mgmt_handshake:0000000000000062 .LBB72
C:\Users\stapi\AppData\Local\Temp\cc3AqCjg.s:842    .text.bcwl_handle_mgmt_handshake:0000000000000086 .LBE72
C:\Users\stapi\AppData\Local\Temp\cc3AqCjg.s:844    .text.bcwl_handle_mgmt_handshake:0000000000000086 .LBB73
C:\Users\stapi\AppData\Local\Temp\cc3AqCjg.s:881    .text.bcwl_handle_mgmt_handshake:00000000000000cc .LBE73
C:\Users\stapi\AppData\Local\Temp\cc3AqCjg.s:804    .text.bcwl_handle_mgmt_handshake:0000000000000062 .LBE62
C:\Users\stapi\AppData\Local\Temp\cc3AqCjg.s:808    .text.bcwl_handle_mgmt_handshake:0000000000000066 .LBB67
C:\Users\stapi\AppData\Local\Temp\cc3AqCjg.s:813    .text.bcwl_handle_mgmt_handshake:000000000000006a .LBE67
C:\Users\stapi\AppData\Local\Temp\cc3AqCjg.s:816    .text.bcwl_handle_mgmt_handshake:000000000000006e .LBB68
C:\Users\stapi\AppData\Local\Temp\cc3AqCjg.s:822    .text.bcwl_handle_mgmt_handshake:0000000000000072 .LBE68
C:\Users\stapi\AppData\Local\Temp\cc3AqCjg.s:827    .text.bcwl_handle_mgmt_handshake:000000000000007a .LBB69
C:\Users\stapi\AppData\Local\Temp\cc3AqCjg.s:833    .text.bcwl_handle_mgmt_handshake:000000000000007e .LBE69
C:\Users\stapi\AppData\Local\Temp\cc3AqCjg.s:1037   .text.bcwl_receive:000000000000003c .LBE76
C:\Users\stapi\AppData\Local\Temp\cc3AqCjg.s:1048   .text.bcwl_receive:0000000000000044 .LBB80
C:\Users\stapi\AppData\Local\Temp\cc3AqCjg.s:1214   .text.bcwl_receive:0000000000000168 .LBE80
C:\Users\stapi\AppData\Local\Temp\cc3AqCjg.s:1219   .text.bcwl_receive:000000000000016a .LBB81
C:\Users\stapi\AppData\Local\Temp\cc3AqCjg.s:1344   .text.bcwl_receive:0000000000000230 .LBE81
C:\Users\stapi\AppData\Local\Temp\cc3AqCjg.s:1436   .text.bcwl_gatts_msg_cb:0000000000000064 .LBE84
C:\Users\stapi\AppData\Local\Temp\cc3AqCjg.s:1439   .text.bcwl_gatts_msg_cb:0000000000000066 .LBB88
C:\Users\stapi\AppData\Local\Temp\cc3AqCjg.s:1471   .text.bcwl_gatts_msg_cb:000000000000009a .LBE88
C:\Users\stapi\AppData\Local\Temp\cc3AqCjg.s:1489   .text.bcwl_gatts_msg_cb:00000000000000a4 .LBB89
C:\Users\stapi\AppData\Local\Temp\cc3AqCjg.s:1551   .text.bcwl_gatts_msg_cb:00000000000000fc .LBE89
C:\Users\stapi\AppData\Local\Temp\cc3AqCjg.s:1724   .text.bcw_prf_enable:00000000000000d6 .LBE96
C:\Users\stapi\AppData\Local\Temp\cc3AqCjg.s:1731   .text.bcw_prf_enable:00000000000000da .LBB100
C:\Users\stapi\AppData\Local\Temp\cc3AqCjg.s:1739   .text.bcw_prf_enable:00000000000000dc .LBE100
C:\Users\stapi\AppData\Local\Temp\cc3AqCjg.s:1752   .text.bcw_prf_enable:00000000000000f2 .LBB101
C:\Users\stapi\AppData\Local\Temp\cc3AqCjg.s:1761   .text.bcw_prf_enable:0000000000000100 .LBE101

UNDEFINED SYMBOLS
__riscv_save_1
sys_mfree
__riscv_restore_1
__riscv_save_3
global_debug_level
co_printf
sys_memset
ble_adv_start
__riscv_restore_3
ble_adv_remove
ble_conn_callback_unregister
__riscv_save_12
sys_malloc
__riscv_restore_12
sys_memcpy
co_crc16
ble_gatts_ntf_ind_send
__riscv_save_0
__riscv_restore_0
ble_gatts_mtu_get
bcwp_msg_handler
__riscv_save_2
__riscv_restore_2
__riscv_save_8
__riscv_restore_8
__riscv_save_4
ble_conn_callback_register
memset
ble_adv_create
__riscv_restore_4
ble_adv_stop
ble_gatts_svc_add
ble_adp_callback_register
ble_gatts_svc_rmv
ble_adp_callback_unregister
