   1              		.file	"app_diss.c"
   2              		.option nopic
   3              		.attribute arch, "rv32i2p0_m2p0_a2p0_f2p0_c2p0_b_p0p94"
   4              		.attribute unaligned_access, 0
   5              		.attribute stack_align, 16
   6              		.text
   7              	.Ltext0:
   8              		.cfi_sections	.debug_frame
   9              		.section	.rodata.ble_app_diss_init.str1.4,"aMS",@progbits,1
  10              		.align	2
  11              	.LC0:
  12 0000 47696761 		.string	"GigaDevice"
  12      44657669 
  12      636500
  13 000b 00       		.align	2
  14              	.LC1:
  15 000c 47443332 		.string	"GD32VW55x"
  15      56573535 
  15      7800
  16 0016 0000     		.align	2
  17              	.LC2:
  18 0018 48572076 		.string	"HW ver 1.0"
  18      65722031 
  18      2E3000
  19 0023 00       		.align	2
  20              	.LC3:
  21 0024 46572076 		.string	"FW ver 1.0"
  21      65722031 
  21      2E3000
  22 002f 00       		.align	2
  23              	.LC4:
  24 0030 53572076 		.string	"SW ver 1.0"
  24      65722031 
  24      2E3000
  25              		.section	.text.ble_app_diss_init,"ax",@progbits
  26              		.align	1
  27              		.globl	ble_app_diss_init
  29              	ble_app_diss_init:
  30              	.LFB0:
  31              		.file 1 "C:/Users/stapi/OneDrive/Desktop/GD32VW553/GD32VW55X_Wifi_BLE_SDK/GD32VW55x_RELEASE_V1.0.2
   1:C:/Users/stapi/OneDrive/Desktop/GD32VW553/GD32VW55X_Wifi_BLE_SDK/GD32VW55x_RELEASE_V1.0.2/MSDK/ble/app\app_diss.c **** /*!
   2:C:/Users/stapi/OneDrive/Desktop/GD32VW553/GD32VW55X_Wifi_BLE_SDK/GD32VW55x_RELEASE_V1.0.2/MSDK/ble/app\app_diss.c ****     \file    app_diss.c
   3:C:/Users/stapi/OneDrive/Desktop/GD32VW553/GD32VW55X_Wifi_BLE_SDK/GD32VW55x_RELEASE_V1.0.2/MSDK/ble/app\app_diss.c ****     \brief   Device Information Service Server Application Module entry point.
   4:C:/Users/stapi/OneDrive/Desktop/GD32VW553/GD32VW55X_Wifi_BLE_SDK/GD32VW55x_RELEASE_V1.0.2/MSDK/ble/app\app_diss.c **** 
   5:C:/Users/stapi/OneDrive/Desktop/GD32VW553/GD32VW55X_Wifi_BLE_SDK/GD32VW55x_RELEASE_V1.0.2/MSDK/ble/app\app_diss.c ****     \version 2023-07-20, V1.0.0, firmware for GD32VW55x
   6:C:/Users/stapi/OneDrive/Desktop/GD32VW553/GD32VW55X_Wifi_BLE_SDK/GD32VW55x_RELEASE_V1.0.2/MSDK/ble/app\app_diss.c **** */
   7:C:/Users/stapi/OneDrive/Desktop/GD32VW553/GD32VW55X_Wifi_BLE_SDK/GD32VW55x_RELEASE_V1.0.2/MSDK/ble/app\app_diss.c **** 
   8:C:/Users/stapi/OneDrive/Desktop/GD32VW553/GD32VW55X_Wifi_BLE_SDK/GD32VW55x_RELEASE_V1.0.2/MSDK/ble/app\app_diss.c **** /*
   9:C:/Users/stapi/OneDrive/Desktop/GD32VW553/GD32VW55X_Wifi_BLE_SDK/GD32VW55x_RELEASE_V1.0.2/MSDK/ble/app\app_diss.c ****     Copyright (c) 2023, GigaDevice Semiconductor Inc.
  10:C:/Users/stapi/OneDrive/Desktop/GD32VW553/GD32VW55X_Wifi_BLE_SDK/GD32VW55x_RELEASE_V1.0.2/MSDK/ble/app\app_diss.c **** 
  11:C:/Users/stapi/OneDrive/Desktop/GD32VW553/GD32VW55X_Wifi_BLE_SDK/GD32VW55x_RELEASE_V1.0.2/MSDK/ble/app\app_diss.c ****     Redistribution and use in source and binary forms, with or without modification,
  12:C:/Users/stapi/OneDrive/Desktop/GD32VW553/GD32VW55X_Wifi_BLE_SDK/GD32VW55x_RELEASE_V1.0.2/MSDK/ble/app\app_diss.c **** are permitted provided that the following conditions are met:
  13:C:/Users/stapi/OneDrive/Desktop/GD32VW553/GD32VW55X_Wifi_BLE_SDK/GD32VW55x_RELEASE_V1.0.2/MSDK/ble/app\app_diss.c **** 
  14:C:/Users/stapi/OneDrive/Desktop/GD32VW553/GD32VW55X_Wifi_BLE_SDK/GD32VW55x_RELEASE_V1.0.2/MSDK/ble/app\app_diss.c ****     1. Redistributions of source code must retain the above copyright notice, this
  15:C:/Users/stapi/OneDrive/Desktop/GD32VW553/GD32VW55X_Wifi_BLE_SDK/GD32VW55x_RELEASE_V1.0.2/MSDK/ble/app\app_diss.c ****        list of conditions and the following disclaimer.
  16:C:/Users/stapi/OneDrive/Desktop/GD32VW553/GD32VW55X_Wifi_BLE_SDK/GD32VW55x_RELEASE_V1.0.2/MSDK/ble/app\app_diss.c ****     2. Redistributions in binary form must reproduce the above copyright notice,
  17:C:/Users/stapi/OneDrive/Desktop/GD32VW553/GD32VW55X_Wifi_BLE_SDK/GD32VW55x_RELEASE_V1.0.2/MSDK/ble/app\app_diss.c ****        this list of conditions and the following disclaimer in the documentation
  18:C:/Users/stapi/OneDrive/Desktop/GD32VW553/GD32VW55X_Wifi_BLE_SDK/GD32VW55x_RELEASE_V1.0.2/MSDK/ble/app\app_diss.c ****        and/or other materials provided with the distribution.
  19:C:/Users/stapi/OneDrive/Desktop/GD32VW553/GD32VW55X_Wifi_BLE_SDK/GD32VW55x_RELEASE_V1.0.2/MSDK/ble/app\app_diss.c ****     3. Neither the name of the copyright holder nor the names of its contributors
  20:C:/Users/stapi/OneDrive/Desktop/GD32VW553/GD32VW55X_Wifi_BLE_SDK/GD32VW55x_RELEASE_V1.0.2/MSDK/ble/app\app_diss.c ****        may be used to endorse or promote products derived from this software without
  21:C:/Users/stapi/OneDrive/Desktop/GD32VW553/GD32VW55X_Wifi_BLE_SDK/GD32VW55x_RELEASE_V1.0.2/MSDK/ble/app\app_diss.c ****        specific prior written permission.
  22:C:/Users/stapi/OneDrive/Desktop/GD32VW553/GD32VW55X_Wifi_BLE_SDK/GD32VW55x_RELEASE_V1.0.2/MSDK/ble/app\app_diss.c **** 
  23:C:/Users/stapi/OneDrive/Desktop/GD32VW553/GD32VW55X_Wifi_BLE_SDK/GD32VW55x_RELEASE_V1.0.2/MSDK/ble/app\app_diss.c ****     THIS SOFTWARE IS PROVIDED BY THE COPYRIGHT HOLDERS AND CONTRIBUTORS "AS IS"
  24:C:/Users/stapi/OneDrive/Desktop/GD32VW553/GD32VW55X_Wifi_BLE_SDK/GD32VW55x_RELEASE_V1.0.2/MSDK/ble/app\app_diss.c **** AND ANY EXPRESS OR IMPLIED WARRANTIES, INCLUDING, BUT NOT LIMITED TO, THE IMPLIED
  25:C:/Users/stapi/OneDrive/Desktop/GD32VW553/GD32VW55X_Wifi_BLE_SDK/GD32VW55x_RELEASE_V1.0.2/MSDK/ble/app\app_diss.c **** WARRANTIES OF MERCHANTABILITY AND FITNESS FOR A PARTICULAR PURPOSE ARE DISCLAIMED.
  26:C:/Users/stapi/OneDrive/Desktop/GD32VW553/GD32VW55X_Wifi_BLE_SDK/GD32VW55x_RELEASE_V1.0.2/MSDK/ble/app\app_diss.c **** IN NO EVENT SHALL THE COPYRIGHT HOLDER OR CONTRIBUTORS BE LIABLE FOR ANY DIRECT,
  27:C:/Users/stapi/OneDrive/Desktop/GD32VW553/GD32VW55X_Wifi_BLE_SDK/GD32VW55x_RELEASE_V1.0.2/MSDK/ble/app\app_diss.c **** INDIRECT, INCIDENTAL, SPECIAL, EXEMPLARY, OR CONSEQUENTIAL DAMAGES (INCLUDING, BUT
  28:C:/Users/stapi/OneDrive/Desktop/GD32VW553/GD32VW55X_Wifi_BLE_SDK/GD32VW55x_RELEASE_V1.0.2/MSDK/ble/app\app_diss.c **** NOT LIMITED TO, PROCUREMENT OF SUBSTITUTE GOODS OR SERVICES; LOSS OF USE, DATA, OR
  29:C:/Users/stapi/OneDrive/Desktop/GD32VW553/GD32VW55X_Wifi_BLE_SDK/GD32VW55x_RELEASE_V1.0.2/MSDK/ble/app\app_diss.c **** PROFITS; OR BUSINESS INTERRUPTION) HOWEVER CAUSED AND ON ANY THEORY OF LIABILITY,
  30:C:/Users/stapi/OneDrive/Desktop/GD32VW553/GD32VW55X_Wifi_BLE_SDK/GD32VW55x_RELEASE_V1.0.2/MSDK/ble/app\app_diss.c **** WHETHER IN CONTRACT, STRICT LIABILITY, OR TORT (INCLUDING NEGLIGENCE OR OTHERWISE)
  31:C:/Users/stapi/OneDrive/Desktop/GD32VW553/GD32VW55X_Wifi_BLE_SDK/GD32VW55x_RELEASE_V1.0.2/MSDK/ble/app\app_diss.c **** ARISING IN ANY WAY OUT OF THE USE OF THIS SOFTWARE, EVEN IF ADVISED OF THE POSSIBILITY
  32:C:/Users/stapi/OneDrive/Desktop/GD32VW553/GD32VW55X_Wifi_BLE_SDK/GD32VW55x_RELEASE_V1.0.2/MSDK/ble/app\app_diss.c **** OF SUCH DAMAGE.
  33:C:/Users/stapi/OneDrive/Desktop/GD32VW553/GD32VW55X_Wifi_BLE_SDK/GD32VW55x_RELEASE_V1.0.2/MSDK/ble/app\app_diss.c **** */
  34:C:/Users/stapi/OneDrive/Desktop/GD32VW553/GD32VW55X_Wifi_BLE_SDK/GD32VW55x_RELEASE_V1.0.2/MSDK/ble/app\app_diss.c **** 
  35:C:/Users/stapi/OneDrive/Desktop/GD32VW553/GD32VW55X_Wifi_BLE_SDK/GD32VW55x_RELEASE_V1.0.2/MSDK/ble/app\app_diss.c **** #include "ble_profile_config.h"
  36:C:/Users/stapi/OneDrive/Desktop/GD32VW553/GD32VW55X_Wifi_BLE_SDK/GD32VW55x_RELEASE_V1.0.2/MSDK/ble/app\app_diss.c **** 
  37:C:/Users/stapi/OneDrive/Desktop/GD32VW553/GD32VW55X_Wifi_BLE_SDK/GD32VW55x_RELEASE_V1.0.2/MSDK/ble/app\app_diss.c **** #if BLE_PROFILE_DIS_SERVER
  38:C:/Users/stapi/OneDrive/Desktop/GD32VW553/GD32VW55X_Wifi_BLE_SDK/GD32VW55x_RELEASE_V1.0.2/MSDK/ble/app\app_diss.c **** #include "app_diss.h"
  39:C:/Users/stapi/OneDrive/Desktop/GD32VW553/GD32VW55X_Wifi_BLE_SDK/GD32VW55x_RELEASE_V1.0.2/MSDK/ble/app\app_diss.c **** 
  40:C:/Users/stapi/OneDrive/Desktop/GD32VW553/GD32VW55X_Wifi_BLE_SDK/GD32VW55x_RELEASE_V1.0.2/MSDK/ble/app\app_diss.c **** /*!
  41:C:/Users/stapi/OneDrive/Desktop/GD32VW553/GD32VW55X_Wifi_BLE_SDK/GD32VW55x_RELEASE_V1.0.2/MSDK/ble/app\app_diss.c ****     \brief      Init APP device information service server module
  42:C:/Users/stapi/OneDrive/Desktop/GD32VW553/GD32VW55X_Wifi_BLE_SDK/GD32VW55x_RELEASE_V1.0.2/MSDK/ble/app\app_diss.c ****     \param[in]  none
  43:C:/Users/stapi/OneDrive/Desktop/GD32VW553/GD32VW55X_Wifi_BLE_SDK/GD32VW55x_RELEASE_V1.0.2/MSDK/ble/app\app_diss.c ****     \param[out] none
  44:C:/Users/stapi/OneDrive/Desktop/GD32VW553/GD32VW55X_Wifi_BLE_SDK/GD32VW55x_RELEASE_V1.0.2/MSDK/ble/app\app_diss.c ****     \retval     none
  45:C:/Users/stapi/OneDrive/Desktop/GD32VW553/GD32VW55X_Wifi_BLE_SDK/GD32VW55x_RELEASE_V1.0.2/MSDK/ble/app\app_diss.c **** */
  46:C:/Users/stapi/OneDrive/Desktop/GD32VW553/GD32VW55X_Wifi_BLE_SDK/GD32VW55x_RELEASE_V1.0.2/MSDK/ble/app\app_diss.c **** void ble_app_diss_init(void)
  47:C:/Users/stapi/OneDrive/Desktop/GD32VW553/GD32VW55X_Wifi_BLE_SDK/GD32VW55x_RELEASE_V1.0.2/MSDK/ble/app\app_diss.c **** {
  32              		.loc 1 47 1
  33              		.cfi_startproc
  34 0000 17030000 		call	t0,__riscv_save_6
  34      E7020300 
  35              		.cfi_offset 21, -28
  36              		.cfi_offset 20, -24
  37              		.cfi_offset 19, -20
  38              		.cfi_offset 18, -16
  39              		.cfi_offset 9, -12
  40              		.cfi_offset 8, -8
  41              		.cfi_offset 1, -4
  42              		.cfi_def_cfa_offset 32
  48:C:/Users/stapi/OneDrive/Desktop/GD32VW553/GD32VW55X_Wifi_BLE_SDK/GD32VW55x_RELEASE_V1.0.2/MSDK/ble/app\app_diss.c ****     ble_diss_init_param_t param;
  43              		.loc 1 48 5
  49:C:/Users/stapi/OneDrive/Desktop/GD32VW553/GD32VW55X_Wifi_BLE_SDK/GD32VW55x_RELEASE_V1.0.2/MSDK/ble/app\app_diss.c **** 
  50:C:/Users/stapi/OneDrive/Desktop/GD32VW553/GD32VW55X_Wifi_BLE_SDK/GD32VW55x_RELEASE_V1.0.2/MSDK/ble/app\app_diss.c ****     uint8_t manufat_name[] = "GigaDevice";
  44              		.loc 1 50 5
  47:C:/Users/stapi/OneDrive/Desktop/GD32VW553/GD32VW55X_Wifi_BLE_SDK/GD32VW55x_RELEASE_V1.0.2/MSDK/ble/app\app_diss.c ****     ble_diss_init_param_t param;
  45              		.loc 1 47 1 is_stmt 0
  46 0008 3171     		addi	sp,sp,-192
  47              		.cfi_def_cfa_offset 224
  48              		.loc 1 50 13
  49 000a 930A8102 		addi	s5,sp,40
  50 000e B7050000 		lui	a1,%hi(.LC0)
  51 0012 2D46     		li	a2,11
  52 0014 93850500 		addi	a1,a1,%lo(.LC0)
  53 0018 5685     		mv	a0,s5
  54 001a 97000000 		call	memcpy
  54      E7800000 
  55              	.LVL0:
  51:C:/Users/stapi/OneDrive/Desktop/GD32VW553/GD32VW55X_Wifi_BLE_SDK/GD32VW55x_RELEASE_V1.0.2/MSDK/ble/app\app_diss.c ****     uint8_t model_name[] = "GD32VW55x";
  56              		.loc 1 51 5 is_stmt 1
  57              		.loc 1 51 13 is_stmt 0
  58 0022 130AC101 		addi	s4,sp,28
  59 0026 B7050000 		lui	a1,%hi(.LC1)
  60 002a 2946     		li	a2,10
  61 002c 93850500 		addi	a1,a1,%lo(.LC1)
  62 0030 5285     		mv	a0,s4
  63 0032 97000000 		call	memcpy
  63      E7800000 
  64              	.LVL1:
  52:C:/Users/stapi/OneDrive/Desktop/GD32VW553/GD32VW55X_Wifi_BLE_SDK/GD32VW55x_RELEASE_V1.0.2/MSDK/ble/app\app_diss.c ****     uint8_t serial_num[] = "HDM1";
  65              		.loc 1 52 5 is_stmt 1
  53:C:/Users/stapi/OneDrive/Desktop/GD32VW553/GD32VW55X_Wifi_BLE_SDK/GD32VW55x_RELEASE_V1.0.2/MSDK/ble/app\app_diss.c ****     uint8_t hw_rev[] = "HW ver 1.0";
  66              		.loc 1 53 13 is_stmt 0
  67 003a 93094103 		addi	s3,sp,52
  52:C:/Users/stapi/OneDrive/Desktop/GD32VW553/GD32VW55X_Wifi_BLE_SDK/GD32VW55x_RELEASE_V1.0.2/MSDK/ble/app\app_diss.c ****     uint8_t serial_num[] = "HDM1";
  68              		.loc 1 52 13
  69 003e B7474D31 		li	a5,827146240
  70              		.loc 1 53 13
  71 0042 B7050000 		lui	a1,%hi(.LC2)
  52:C:/Users/stapi/OneDrive/Desktop/GD32VW553/GD32VW55X_Wifi_BLE_SDK/GD32VW55x_RELEASE_V1.0.2/MSDK/ble/app\app_diss.c ****     uint8_t serial_num[] = "HDM1";
  72              		.loc 1 52 13
  73 0046 93878744 		addi	a5,a5,1096
  74              		.loc 1 53 13
  75 004a 2D46     		li	a2,11
  76 004c 93850500 		addi	a1,a1,%lo(.LC2)
  77 0050 4E85     		mv	a0,s3
  52:C:/Users/stapi/OneDrive/Desktop/GD32VW553/GD32VW55X_Wifi_BLE_SDK/GD32VW55x_RELEASE_V1.0.2/MSDK/ble/app\app_diss.c ****     uint8_t serial_num[] = "HDM1";
  78              		.loc 1 52 13
  79 0052 3EC6     		sw	a5,12(sp)
  80 0054 23080100 		sb	zero,16(sp)
  81              		.loc 1 53 5 is_stmt 1
  82              		.loc 1 53 13 is_stmt 0
  83 0058 97000000 		call	memcpy
  83      E7800000 
  84              	.LVL2:
  54:C:/Users/stapi/OneDrive/Desktop/GD32VW553/GD32VW55X_Wifi_BLE_SDK/GD32VW55x_RELEASE_V1.0.2/MSDK/ble/app\app_diss.c ****     uint8_t fw_rev[] = "FW ver 1.0";
  85              		.loc 1 54 5 is_stmt 1
  86              		.loc 1 54 13 is_stmt 0
  87 0060 8000     		addi	s0,sp,64
  88 0062 B7050000 		lui	a1,%hi(.LC3)
  89 0066 2D46     		li	a2,11
  90 0068 93850500 		addi	a1,a1,%lo(.LC3)
  91 006c 2285     		mv	a0,s0
  92 006e 97000000 		call	memcpy
  92      E7800000 
  93              	.LVL3:
  55:C:/Users/stapi/OneDrive/Desktop/GD32VW553/GD32VW55X_Wifi_BLE_SDK/GD32VW55x_RELEASE_V1.0.2/MSDK/ble/app\app_diss.c ****     uint8_t sw_rev[] = "SW ver 1.0";
  94              		.loc 1 55 5 is_stmt 1
  95              		.loc 1 55 13 is_stmt 0
  96 0076 1309C104 		addi	s2,sp,76
  97 007a B7050000 		lui	a1,%hi(.LC4)
  98 007e 2D46     		li	a2,11
  99 0080 93850500 		addi	a1,a1,%lo(.LC4)
 100 0084 4A85     		mv	a0,s2
 101 0086 97000000 		call	memcpy
 101      E7800000 
 102              	.LVL4:
  56:C:/Users/stapi/OneDrive/Desktop/GD32VW553/GD32VW55X_Wifi_BLE_SDK/GD32VW55x_RELEASE_V1.0.2/MSDK/ble/app\app_diss.c ****     uint8_t ieee_data[] = {BLE_DIS_IEEE_11073_BODY_EXP, 0, 'e', 'x', 'p', 'e', 'r', 'i', 'm', 'e', 
 103              		.loc 1 56 5 is_stmt 1
 104              		.loc 1 56 13 is_stmt 0
 105 008e 13088105 		addi	a6,sp,88
 106 0092 B7050000 		lui	a1,%hi(.LANCHOR0)
 107 0096 3946     		li	a2,14
 108 0098 93850500 		addi	a1,a1,%lo(.LANCHOR0)
 109 009c 4285     		mv	a0,a6
 110 009e 97000000 		call	memcpy
 110      E7800000 
 111              	.LVL5:
  57:C:/Users/stapi/OneDrive/Desktop/GD32VW553/GD32VW55X_Wifi_BLE_SDK/GD32VW55x_RELEASE_V1.0.2/MSDK/ble/app\app_diss.c ****     ble_dis_sys_id_t sys_id;
 112              		.loc 1 57 5 is_stmt 1
  58:C:/Users/stapi/OneDrive/Desktop/GD32VW553/GD32VW55X_Wifi_BLE_SDK/GD32VW55x_RELEASE_V1.0.2/MSDK/ble/app\app_diss.c ****     ble_dis_pnp_id_t pnp_id;
 113              		.loc 1 58 5
  59:C:/Users/stapi/OneDrive/Desktop/GD32VW553/GD32VW55X_Wifi_BLE_SDK/GD32VW55x_RELEASE_V1.0.2/MSDK/ble/app\app_diss.c **** 
  60:C:/Users/stapi/OneDrive/Desktop/GD32VW553/GD32VW55X_Wifi_BLE_SDK/GD32VW55x_RELEASE_V1.0.2/MSDK/ble/app\app_diss.c ****     sys_id.manufact_id = 0x000C2B0C2B;
 114              		.loc 1 60 5
 115              		.loc 1 60 24 is_stmt 0
 116 00a6 8147     		li	a5,0
 117 00a8 37172B0C 		li	a4,204148736
 118 00ac BED6     		sw	a5,108(sp)
  61:C:/Users/stapi/OneDrive/Desktop/GD32VW553/GD32VW55X_Wifi_BLE_SDK/GD32VW55x_RELEASE_V1.0.2/MSDK/ble/app\app_diss.c ****     sys_id.oui = 0x00010203;
 119              		.loc 1 61 5 is_stmt 1
  60:C:/Users/stapi/OneDrive/Desktop/GD32VW553/GD32VW55X_Wifi_BLE_SDK/GD32VW55x_RELEASE_V1.0.2/MSDK/ble/app\app_diss.c ****     sys_id.oui = 0x00010203;
 120              		.loc 1 60 24 is_stmt 0
 121 00ae 1307B7C2 		addi	a4,a4,-981
 122              		.loc 1 61 16
 123 00b2 C167     		li	a5,65536
  60:C:/Users/stapi/OneDrive/Desktop/GD32VW553/GD32VW55X_Wifi_BLE_SDK/GD32VW55x_RELEASE_V1.0.2/MSDK/ble/app\app_diss.c ****     sys_id.oui = 0x00010203;
 124              		.loc 1 60 24
 125 00b4 BAD4     		sw	a4,104(sp)
 126              		.loc 1 61 16
 127 00b6 13873720 		addi	a4,a5,515
  62:C:/Users/stapi/OneDrive/Desktop/GD32VW553/GD32VW55X_Wifi_BLE_SDK/GD32VW55x_RELEASE_V1.0.2/MSDK/ble/app\app_diss.c **** 
  63:C:/Users/stapi/OneDrive/Desktop/GD32VW553/GD32VW55X_Wifi_BLE_SDK/GD32VW55x_RELEASE_V1.0.2/MSDK/ble/app\app_diss.c ****     pnp_id.vendor_id_source = BLE_DIS_VND_ID_SRC_BLUETOOTH_SIG;
  64:C:/Users/stapi/OneDrive/Desktop/GD32VW553/GD32VW55X_Wifi_BLE_SDK/GD32VW55x_RELEASE_V1.0.2/MSDK/ble/app\app_diss.c ****     pnp_id.vendor_id = 0x0C2B;
  65:C:/Users/stapi/OneDrive/Desktop/GD32VW553/GD32VW55X_Wifi_BLE_SDK/GD32VW55x_RELEASE_V1.0.2/MSDK/ble/app\app_diss.c ****     pnp_id.product_id = 0x01;
 128              		.loc 1 65 23
 129 00ba 8507     		addi	a5,a5,1
 130 00bc 3ECC     		sw	a5,24(sp)
  66:C:/Users/stapi/OneDrive/Desktop/GD32VW553/GD32VW55X_Wifi_BLE_SDK/GD32VW55x_RELEASE_V1.0.2/MSDK/ble/app\app_diss.c ****     pnp_id.product_version = 0x01;
  67:C:/Users/stapi/OneDrive/Desktop/GD32VW553/GD32VW55X_Wifi_BLE_SDK/GD32VW55x_RELEASE_V1.0.2/MSDK/ble/app\app_diss.c **** 
  68:C:/Users/stapi/OneDrive/Desktop/GD32VW553/GD32VW55X_Wifi_BLE_SDK/GD32VW55x_RELEASE_V1.0.2/MSDK/ble/app\app_diss.c ****     param.manufact_name.p_data = manufat_name;
  69:C:/Users/stapi/OneDrive/Desktop/GD32VW553/GD32VW55X_Wifi_BLE_SDK/GD32VW55x_RELEASE_V1.0.2/MSDK/ble/app\app_diss.c ****     param.manufact_name.len = sizeof(manufat_name);
  70:C:/Users/stapi/OneDrive/Desktop/GD32VW553/GD32VW55X_Wifi_BLE_SDK/GD32VW55x_RELEASE_V1.0.2/MSDK/ble/app\app_diss.c ****     param.model_num.p_data = model_name;
  71:C:/Users/stapi/OneDrive/Desktop/GD32VW553/GD32VW55X_Wifi_BLE_SDK/GD32VW55x_RELEASE_V1.0.2/MSDK/ble/app\app_diss.c ****     param.model_num.len = sizeof(model_name);
 131              		.loc 1 71 25
 132 00be A947     		li	a5,10
 133 00c0 2314F108 		sh	a5,136(sp)
  72:C:/Users/stapi/OneDrive/Desktop/GD32VW553/GD32VW55X_Wifi_BLE_SDK/GD32VW55x_RELEASE_V1.0.2/MSDK/ble/app\app_diss.c ****     param.serial_num.p_data = serial_num;
 134              		.loc 1 72 29
 135 00c4 7C00     		addi	a5,sp,12
 136 00c6 7CC4     		sw	a5,76(s0)
  73:C:/Users/stapi/OneDrive/Desktop/GD32VW553/GD32VW55X_Wifi_BLE_SDK/GD32VW55x_RELEASE_V1.0.2/MSDK/ble/app\app_diss.c ****     param.serial_num.len = sizeof(serial_num);
 137              		.loc 1 73 26
 138 00c8 9547     		li	a5,5
 139 00ca 2318F108 		sh	a5,144(sp)
  74:C:/Users/stapi/OneDrive/Desktop/GD32VW553/GD32VW55X_Wifi_BLE_SDK/GD32VW55x_RELEASE_V1.0.2/MSDK/ble/app\app_diss.c ****     param.hw_rev.p_data = hw_rev;
  75:C:/Users/stapi/OneDrive/Desktop/GD32VW553/GD32VW55X_Wifi_BLE_SDK/GD32VW55x_RELEASE_V1.0.2/MSDK/ble/app\app_diss.c ****     param.hw_rev.len = sizeof(hw_rev);
  76:C:/Users/stapi/OneDrive/Desktop/GD32VW553/GD32VW55X_Wifi_BLE_SDK/GD32VW55x_RELEASE_V1.0.2/MSDK/ble/app\app_diss.c ****     param.fw_rev.p_data = fw_rev;
  77:C:/Users/stapi/OneDrive/Desktop/GD32VW553/GD32VW55X_Wifi_BLE_SDK/GD32VW55x_RELEASE_V1.0.2/MSDK/ble/app\app_diss.c ****     param.fw_rev.len = sizeof(fw_rev);
  78:C:/Users/stapi/OneDrive/Desktop/GD32VW553/GD32VW55X_Wifi_BLE_SDK/GD32VW55x_RELEASE_V1.0.2/MSDK/ble/app\app_diss.c ****     param.sw_rev.p_data = sw_rev;
  79:C:/Users/stapi/OneDrive/Desktop/GD32VW553/GD32VW55X_Wifi_BLE_SDK/GD32VW55x_RELEASE_V1.0.2/MSDK/ble/app\app_diss.c ****     param.sw_rev.len = sizeof(sw_rev);
  80:C:/Users/stapi/OneDrive/Desktop/GD32VW553/GD32VW55X_Wifi_BLE_SDK/GD32VW55x_RELEASE_V1.0.2/MSDK/ble/app\app_diss.c ****     param.ieee_data.p_data = ieee_data;
  81:C:/Users/stapi/OneDrive/Desktop/GD32VW553/GD32VW55X_Wifi_BLE_SDK/GD32VW55x_RELEASE_V1.0.2/MSDK/ble/app\app_diss.c ****     param.ieee_data.len = sizeof(ieee_data);
 140              		.loc 1 81 25
 141 00ce B947     		li	a5,14
  61:C:/Users/stapi/OneDrive/Desktop/GD32VW553/GD32VW55X_Wifi_BLE_SDK/GD32VW55x_RELEASE_V1.0.2/MSDK/ble/app\app_diss.c **** 
 142              		.loc 1 61 16
 143 00d0 BAD8     		sw	a4,112(sp)
  63:C:/Users/stapi/OneDrive/Desktop/GD32VW553/GD32VW55X_Wifi_BLE_SDK/GD32VW55x_RELEASE_V1.0.2/MSDK/ble/app\app_diss.c ****     pnp_id.vendor_id = 0x0C2B;
 144              		.loc 1 63 5 is_stmt 1
 145              		.loc 1 81 25 is_stmt 0
 146 00d2 2318F10A 		sh	a5,176(sp)
  64:C:/Users/stapi/OneDrive/Desktop/GD32VW553/GD32VW55X_Wifi_BLE_SDK/GD32VW55x_RELEASE_V1.0.2/MSDK/ble/app\app_diss.c ****     pnp_id.product_id = 0x01;
 147              		.loc 1 64 22
 148 00d6 0567     		li	a4,4096
  82:C:/Users/stapi/OneDrive/Desktop/GD32VW553/GD32VW55X_Wifi_BLE_SDK/GD32VW55x_RELEASE_V1.0.2/MSDK/ble/app\app_diss.c ****     param.p_sys_id = &sys_id;
 149              		.loc 1 82 20
 150 00d8 BC10     		addi	a5,sp,104
  50:C:/Users/stapi/OneDrive/Desktop/GD32VW553/GD32VW55X_Wifi_BLE_SDK/GD32VW55x_RELEASE_V1.0.2/MSDK/ble/app\app_diss.c ****     uint8_t model_name[] = "GD32VW55x";
 151              		.loc 1 50 13
 152 00da AD44     		li	s1,11
  63:C:/Users/stapi/OneDrive/Desktop/GD32VW553/GD32VW55X_Wifi_BLE_SDK/GD32VW55x_RELEASE_V1.0.2/MSDK/ble/app\app_diss.c ****     pnp_id.vendor_id = 0x0C2B;
 153              		.loc 1 63 29
 154 00dc 8546     		li	a3,1
  64:C:/Users/stapi/OneDrive/Desktop/GD32VW553/GD32VW55X_Wifi_BLE_SDK/GD32VW55x_RELEASE_V1.0.2/MSDK/ble/app\app_diss.c ****     pnp_id.product_id = 0x01;
 155              		.loc 1 64 22
 156 00de 1307B7C2 		addi	a4,a4,-981
  80:C:/Users/stapi/OneDrive/Desktop/GD32VW553/GD32VW55X_Wifi_BLE_SDK/GD32VW55x_RELEASE_V1.0.2/MSDK/ble/app\app_diss.c ****     param.ieee_data.len = sizeof(ieee_data);
 157              		.loc 1 80 28
 158 00e2 68D4     		sw	a0,108(s0)
 159              		.loc 1 82 20
 160 00e4 7CD8     		sw	a5,116(s0)
  83:C:/Users/stapi/OneDrive/Desktop/GD32VW553/GD32VW55X_Wifi_BLE_SDK/GD32VW55x_RELEASE_V1.0.2/MSDK/ble/app\app_diss.c ****     param.p_pnp_id = &pnp_id;
  84:C:/Users/stapi/OneDrive/Desktop/GD32VW553/GD32VW55X_Wifi_BLE_SDK/GD32VW55x_RELEASE_V1.0.2/MSDK/ble/app\app_diss.c **** 
  85:C:/Users/stapi/OneDrive/Desktop/GD32VW553/GD32VW55X_Wifi_BLE_SDK/GD32VW55x_RELEASE_V1.0.2/MSDK/ble/app\app_diss.c ****     param.sec_lvl = BLE_GAP_SEC_UNAUTH;
  86:C:/Users/stapi/OneDrive/Desktop/GD32VW553/GD32VW55X_Wifi_BLE_SDK/GD32VW55x_RELEASE_V1.0.2/MSDK/ble/app\app_diss.c **** 
  87:C:/Users/stapi/OneDrive/Desktop/GD32VW553/GD32VW55X_Wifi_BLE_SDK/GD32VW55x_RELEASE_V1.0.2/MSDK/ble/app\app_diss.c ****     ble_diss_init(&param);
 161              		.loc 1 87 5
 162 00e6 E818     		addi	a0,sp,124
  83:C:/Users/stapi/OneDrive/Desktop/GD32VW553/GD32VW55X_Wifi_BLE_SDK/GD32VW55x_RELEASE_V1.0.2/MSDK/ble/app\app_diss.c ****     param.p_pnp_id = &pnp_id;
 163              		.loc 1 83 20
 164 00e8 5C08     		addi	a5,sp,20
  63:C:/Users/stapi/OneDrive/Desktop/GD32VW553/GD32VW55X_Wifi_BLE_SDK/GD32VW55x_RELEASE_V1.0.2/MSDK/ble/app\app_diss.c ****     pnp_id.vendor_id = 0x0C2B;
 165              		.loc 1 63 29
 166 00ea 230AD100 		sb	a3,20(sp)
  64:C:/Users/stapi/OneDrive/Desktop/GD32VW553/GD32VW55X_Wifi_BLE_SDK/GD32VW55x_RELEASE_V1.0.2/MSDK/ble/app\app_diss.c ****     pnp_id.product_id = 0x01;
 167              		.loc 1 64 5 is_stmt 1
  65:C:/Users/stapi/OneDrive/Desktop/GD32VW553/GD32VW55X_Wifi_BLE_SDK/GD32VW55x_RELEASE_V1.0.2/MSDK/ble/app\app_diss.c ****     pnp_id.product_version = 0x01;
 168              		.loc 1 65 5
  66:C:/Users/stapi/OneDrive/Desktop/GD32VW553/GD32VW55X_Wifi_BLE_SDK/GD32VW55x_RELEASE_V1.0.2/MSDK/ble/app\app_diss.c **** 
 169              		.loc 1 66 5
  68:C:/Users/stapi/OneDrive/Desktop/GD32VW553/GD32VW55X_Wifi_BLE_SDK/GD32VW55x_RELEASE_V1.0.2/MSDK/ble/app\app_diss.c ****     param.manufact_name.len = sizeof(manufat_name);
 170              		.loc 1 68 5
  64:C:/Users/stapi/OneDrive/Desktop/GD32VW553/GD32VW55X_Wifi_BLE_SDK/GD32VW55x_RELEASE_V1.0.2/MSDK/ble/app\app_diss.c ****     pnp_id.product_id = 0x01;
 171              		.loc 1 64 22 is_stmt 0
 172 00ee 231BE100 		sh	a4,22(sp)
  68:C:/Users/stapi/OneDrive/Desktop/GD32VW553/GD32VW55X_Wifi_BLE_SDK/GD32VW55x_RELEASE_V1.0.2/MSDK/ble/app\app_diss.c ****     param.manufact_name.len = sizeof(manufat_name);
 173              		.loc 1 68 32
 174 00f2 D6DE     		sw	s5,124(sp)
  69:C:/Users/stapi/OneDrive/Desktop/GD32VW553/GD32VW55X_Wifi_BLE_SDK/GD32VW55x_RELEASE_V1.0.2/MSDK/ble/app\app_diss.c ****     param.model_num.p_data = model_name;
 175              		.loc 1 69 5 is_stmt 1
  69:C:/Users/stapi/OneDrive/Desktop/GD32VW553/GD32VW55X_Wifi_BLE_SDK/GD32VW55x_RELEASE_V1.0.2/MSDK/ble/app\app_diss.c ****     param.model_num.p_data = model_name;
 176              		.loc 1 69 29 is_stmt 0
 177 00f4 23109108 		sh	s1,128(sp)
  70:C:/Users/stapi/OneDrive/Desktop/GD32VW553/GD32VW55X_Wifi_BLE_SDK/GD32VW55x_RELEASE_V1.0.2/MSDK/ble/app\app_diss.c ****     param.model_num.len = sizeof(model_name);
 178              		.loc 1 70 5 is_stmt 1
  75:C:/Users/stapi/OneDrive/Desktop/GD32VW553/GD32VW55X_Wifi_BLE_SDK/GD32VW55x_RELEASE_V1.0.2/MSDK/ble/app\app_diss.c ****     param.fw_rev.p_data = fw_rev;
 179              		.loc 1 75 22 is_stmt 0
 180 00f8 231C9108 		sh	s1,152(sp)
  77:C:/Users/stapi/OneDrive/Desktop/GD32VW553/GD32VW55X_Wifi_BLE_SDK/GD32VW55x_RELEASE_V1.0.2/MSDK/ble/app\app_diss.c ****     param.sw_rev.p_data = sw_rev;
 181              		.loc 1 77 22
 182 00fc 2310910A 		sh	s1,160(sp)
  79:C:/Users/stapi/OneDrive/Desktop/GD32VW553/GD32VW55X_Wifi_BLE_SDK/GD32VW55x_RELEASE_V1.0.2/MSDK/ble/app\app_diss.c ****     param.ieee_data.p_data = ieee_data;
 183              		.loc 1 79 22
 184 0100 2314910A 		sh	s1,168(sp)
  70:C:/Users/stapi/OneDrive/Desktop/GD32VW553/GD32VW55X_Wifi_BLE_SDK/GD32VW55x_RELEASE_V1.0.2/MSDK/ble/app\app_diss.c ****     param.model_num.len = sizeof(model_name);
 185              		.loc 1 70 28
 186 0104 23224405 		sw	s4,68(s0)
  71:C:/Users/stapi/OneDrive/Desktop/GD32VW553/GD32VW55X_Wifi_BLE_SDK/GD32VW55x_RELEASE_V1.0.2/MSDK/ble/app\app_diss.c ****     param.serial_num.p_data = serial_num;
 187              		.loc 1 71 5 is_stmt 1
  72:C:/Users/stapi/OneDrive/Desktop/GD32VW553/GD32VW55X_Wifi_BLE_SDK/GD32VW55x_RELEASE_V1.0.2/MSDK/ble/app\app_diss.c ****     param.serial_num.len = sizeof(serial_num);
 188              		.loc 1 72 5
  73:C:/Users/stapi/OneDrive/Desktop/GD32VW553/GD32VW55X_Wifi_BLE_SDK/GD32VW55x_RELEASE_V1.0.2/MSDK/ble/app\app_diss.c ****     param.hw_rev.p_data = hw_rev;
 189              		.loc 1 73 5
  74:C:/Users/stapi/OneDrive/Desktop/GD32VW553/GD32VW55X_Wifi_BLE_SDK/GD32VW55x_RELEASE_V1.0.2/MSDK/ble/app\app_diss.c ****     param.hw_rev.len = sizeof(hw_rev);
 190              		.loc 1 74 5
  74:C:/Users/stapi/OneDrive/Desktop/GD32VW553/GD32VW55X_Wifi_BLE_SDK/GD32VW55x_RELEASE_V1.0.2/MSDK/ble/app\app_diss.c ****     param.hw_rev.len = sizeof(hw_rev);
 191              		.loc 1 74 25 is_stmt 0
 192 0108 232A3405 		sw	s3,84(s0)
  75:C:/Users/stapi/OneDrive/Desktop/GD32VW553/GD32VW55X_Wifi_BLE_SDK/GD32VW55x_RELEASE_V1.0.2/MSDK/ble/app\app_diss.c ****     param.fw_rev.p_data = fw_rev;
 193              		.loc 1 75 5 is_stmt 1
  76:C:/Users/stapi/OneDrive/Desktop/GD32VW553/GD32VW55X_Wifi_BLE_SDK/GD32VW55x_RELEASE_V1.0.2/MSDK/ble/app\app_diss.c ****     param.fw_rev.len = sizeof(fw_rev);
 194              		.loc 1 76 5
  76:C:/Users/stapi/OneDrive/Desktop/GD32VW553/GD32VW55X_Wifi_BLE_SDK/GD32VW55x_RELEASE_V1.0.2/MSDK/ble/app\app_diss.c ****     param.fw_rev.len = sizeof(fw_rev);
 195              		.loc 1 76 25 is_stmt 0
 196 010c 60CC     		sw	s0,92(s0)
  77:C:/Users/stapi/OneDrive/Desktop/GD32VW553/GD32VW55X_Wifi_BLE_SDK/GD32VW55x_RELEASE_V1.0.2/MSDK/ble/app\app_diss.c ****     param.sw_rev.p_data = sw_rev;
 197              		.loc 1 77 5 is_stmt 1
  78:C:/Users/stapi/OneDrive/Desktop/GD32VW553/GD32VW55X_Wifi_BLE_SDK/GD32VW55x_RELEASE_V1.0.2/MSDK/ble/app\app_diss.c ****     param.sw_rev.len = sizeof(sw_rev);
 198              		.loc 1 78 5
  78:C:/Users/stapi/OneDrive/Desktop/GD32VW553/GD32VW55X_Wifi_BLE_SDK/GD32VW55x_RELEASE_V1.0.2/MSDK/ble/app\app_diss.c ****     param.sw_rev.len = sizeof(sw_rev);
 199              		.loc 1 78 25 is_stmt 0
 200 010e 23222407 		sw	s2,100(s0)
  79:C:/Users/stapi/OneDrive/Desktop/GD32VW553/GD32VW55X_Wifi_BLE_SDK/GD32VW55x_RELEASE_V1.0.2/MSDK/ble/app\app_diss.c ****     param.ieee_data.p_data = ieee_data;
 201              		.loc 1 79 5 is_stmt 1
  80:C:/Users/stapi/OneDrive/Desktop/GD32VW553/GD32VW55X_Wifi_BLE_SDK/GD32VW55x_RELEASE_V1.0.2/MSDK/ble/app\app_diss.c ****     param.ieee_data.len = sizeof(ieee_data);
 202              		.loc 1 80 5
  81:C:/Users/stapi/OneDrive/Desktop/GD32VW553/GD32VW55X_Wifi_BLE_SDK/GD32VW55x_RELEASE_V1.0.2/MSDK/ble/app\app_diss.c ****     param.p_sys_id = &sys_id;
 203              		.loc 1 81 5
  82:C:/Users/stapi/OneDrive/Desktop/GD32VW553/GD32VW55X_Wifi_BLE_SDK/GD32VW55x_RELEASE_V1.0.2/MSDK/ble/app\app_diss.c ****     param.p_pnp_id = &pnp_id;
 204              		.loc 1 82 5
  83:C:/Users/stapi/OneDrive/Desktop/GD32VW553/GD32VW55X_Wifi_BLE_SDK/GD32VW55x_RELEASE_V1.0.2/MSDK/ble/app\app_diss.c **** 
 205              		.loc 1 83 5
  83:C:/Users/stapi/OneDrive/Desktop/GD32VW553/GD32VW55X_Wifi_BLE_SDK/GD32VW55x_RELEASE_V1.0.2/MSDK/ble/app\app_diss.c **** 
 206              		.loc 1 83 20 is_stmt 0
 207 0112 3CDC     		sw	a5,120(s0)
  85:C:/Users/stapi/OneDrive/Desktop/GD32VW553/GD32VW55X_Wifi_BLE_SDK/GD32VW55x_RELEASE_V1.0.2/MSDK/ble/app\app_diss.c **** 
 208              		.loc 1 85 5 is_stmt 1
  85:C:/Users/stapi/OneDrive/Desktop/GD32VW553/GD32VW55X_Wifi_BLE_SDK/GD32VW55x_RELEASE_V1.0.2/MSDK/ble/app\app_diss.c **** 
 209              		.loc 1 85 19 is_stmt 0
 210 0114 74DC     		sw	a3,124(s0)
 211              		.loc 1 87 5 is_stmt 1
 212 0116 97000000 		call	ble_diss_init
 212      E7800000 
 213              	.LVL6:
  88:C:/Users/stapi/OneDrive/Desktop/GD32VW553/GD32VW55X_Wifi_BLE_SDK/GD32VW55x_RELEASE_V1.0.2/MSDK/ble/app\app_diss.c **** }
 214              		.loc 1 88 1 is_stmt 0
 215 011e 2961     		addi	sp,sp,192
 216              		.cfi_def_cfa_offset 0
 217 0120 17030000 		tail	__riscv_restore_6
 217      67000300 
 218              		.cfi_restore 21
 219              		.cfi_restore 20
 220              		.cfi_restore 19
 221              		.cfi_restore 18
 222              		.cfi_restore 9
 223              		.cfi_restore 8
 224              		.cfi_restore 1
 225              		.cfi_def_cfa_offset -32
 226              		.cfi_endproc
 227              	.LFE0:
 229              		.section	.text.ble_app_diss_deinit,"ax",@progbits
 230              		.align	1
 231              		.globl	ble_app_diss_deinit
 233              	ble_app_diss_deinit:
 234              	.LFB1:
  89:C:/Users/stapi/OneDrive/Desktop/GD32VW553/GD32VW55X_Wifi_BLE_SDK/GD32VW55x_RELEASE_V1.0.2/MSDK/ble/app\app_diss.c **** 
  90:C:/Users/stapi/OneDrive/Desktop/GD32VW553/GD32VW55X_Wifi_BLE_SDK/GD32VW55x_RELEASE_V1.0.2/MSDK/ble/app\app_diss.c **** /*!
  91:C:/Users/stapi/OneDrive/Desktop/GD32VW553/GD32VW55X_Wifi_BLE_SDK/GD32VW55x_RELEASE_V1.0.2/MSDK/ble/app\app_diss.c ****     \brief      Deinit APP device information service server module
  92:C:/Users/stapi/OneDrive/Desktop/GD32VW553/GD32VW55X_Wifi_BLE_SDK/GD32VW55x_RELEASE_V1.0.2/MSDK/ble/app\app_diss.c ****     \param[in]  none
  93:C:/Users/stapi/OneDrive/Desktop/GD32VW553/GD32VW55X_Wifi_BLE_SDK/GD32VW55x_RELEASE_V1.0.2/MSDK/ble/app\app_diss.c ****     \param[out] none
  94:C:/Users/stapi/OneDrive/Desktop/GD32VW553/GD32VW55X_Wifi_BLE_SDK/GD32VW55x_RELEASE_V1.0.2/MSDK/ble/app\app_diss.c ****     \retval     none
  95:C:/Users/stapi/OneDrive/Desktop/GD32VW553/GD32VW55X_Wifi_BLE_SDK/GD32VW55x_RELEASE_V1.0.2/MSDK/ble/app\app_diss.c **** */
  96:C:/Users/stapi/OneDrive/Desktop/GD32VW553/GD32VW55X_Wifi_BLE_SDK/GD32VW55x_RELEASE_V1.0.2/MSDK/ble/app\app_diss.c **** void ble_app_diss_deinit(void)
  97:C:/Users/stapi/OneDrive/Desktop/GD32VW553/GD32VW55X_Wifi_BLE_SDK/GD32VW55x_RELEASE_V1.0.2/MSDK/ble/app\app_diss.c **** {
 235              		.loc 1 97 1 is_stmt 1
 236              		.cfi_startproc
  98:C:/Users/stapi/OneDrive/Desktop/GD32VW553/GD32VW55X_Wifi_BLE_SDK/GD32VW55x_RELEASE_V1.0.2/MSDK/ble/app\app_diss.c ****     ble_diss_deinit();
 237              		.loc 1 98 5
 238 0000 17030000 		tail	ble_diss_deinit
 238      67000300 
 239              	.LVL7:
 240              		.cfi_endproc
 241              	.LFE1:
 243              		.section	.rodata
 244              		.align	2
 245              		.set	.LANCHOR0,. + 0
 246              	.LC5:
 247 0000 FE00     		.string	"\376"
 248 0002 65787065 		.ascii	"experimental"
 248      72696D65 
 248      6E74616C 
 249              		.text
 250              	.Letext0:
 251              		.file 2 "c:\\users\\stapi\\onedrive\\desktop\\gd32vw553\\embeddedbuilder_v1.4.7.26843\\tools\\nucl
 252              		.file 3 "c:\\users\\stapi\\onedrive\\desktop\\gd32vw553\\embeddedbuilder_v1.4.7.26843\\tools\\nucl
 253              		.file 4 "..\\..\\..\\..\\blesw\\src\\export/ble_types.h"
 254              		.file 5 "..\\..\\..\\..\\blesw\\src\\export/ble_gap.h"
 255              		.file 6 "..\\..\\..\\..\\ble\\profile/dis/ble_diss.h"
 256              		.file 7 "<built-in>"