   1              		.file	"app_datatrans_srv.c"
   2              		.option nopic
   3              		.attribute arch, "rv32i2p0_m2p0_a2p0_f2p0_c2p0_b_p0p94"
   4              		.attribute unaligned_access, 0
   5              		.attribute stack_align, 16
   6              		.text
   7              	.Ltext0:
   8              		.cfi_sections	.debug_frame
   9              		.section	.rodata.app_datatrans_srv_rx_callback.str1.4,"aMS",@progbits,1
  10              		.align	2
  11              	.LC0:
  12 0000 64617461 		.string	"datatrans srv receive data: \r\n"
  12      7472616E 
  12      73207372 
  12      76207265 
  12      63656976 
  13 001f 00       		.align	2
  14              	.LC1:
  15 0020 25730D0A 		.string	"%s\r\n"
  15      00
  16              		.section	.text.app_datatrans_srv_rx_callback,"ax",@progbits
  17              		.align	1
  19              	app_datatrans_srv_rx_callback:
  20              	.LFB15:
  21              		.file 1 "C:/Users/stapi/OneDrive/Desktop/GD32VW553/V1_MQTT_OK/GD32VW55X_Wifi_BLE_SDK/GD32VW55x_REL
   1:C:/Users/stapi/OneDrive/Desktop/GD32VW553/V1_MQTT_OK/GD32VW55X_Wifi_BLE_SDK/GD32VW55x_RELEASE_V1.0.2/MSDK/ble/app\app_datatrans_srv.c **** /*!
   2:C:/Users/stapi/OneDrive/Desktop/GD32VW553/V1_MQTT_OK/GD32VW55X_Wifi_BLE_SDK/GD32VW55x_RELEASE_V1.0.2/MSDK/ble/app\app_datatrans_srv.c ****     \file    app_datatrans_srv.c
   3:C:/Users/stapi/OneDrive/Desktop/GD32VW553/V1_MQTT_OK/GD32VW55X_Wifi_BLE_SDK/GD32VW55x_RELEASE_V1.0.2/MSDK/ble/app\app_datatrans_srv.c ****     \brief   Datatrans Service Server Application Module entry point.
   4:C:/Users/stapi/OneDrive/Desktop/GD32VW553/V1_MQTT_OK/GD32VW55X_Wifi_BLE_SDK/GD32VW55x_RELEASE_V1.0.2/MSDK/ble/app\app_datatrans_srv.c **** 
   5:C:/Users/stapi/OneDrive/Desktop/GD32VW553/V1_MQTT_OK/GD32VW55X_Wifi_BLE_SDK/GD32VW55x_RELEASE_V1.0.2/MSDK/ble/app\app_datatrans_srv.c ****     \version 2024-07-2, V1.0.0, firmware for GD32VW55x
   6:C:/Users/stapi/OneDrive/Desktop/GD32VW553/V1_MQTT_OK/GD32VW55X_Wifi_BLE_SDK/GD32VW55x_RELEASE_V1.0.2/MSDK/ble/app\app_datatrans_srv.c **** */
   7:C:/Users/stapi/OneDrive/Desktop/GD32VW553/V1_MQTT_OK/GD32VW55X_Wifi_BLE_SDK/GD32VW55x_RELEASE_V1.0.2/MSDK/ble/app\app_datatrans_srv.c **** 
   8:C:/Users/stapi/OneDrive/Desktop/GD32VW553/V1_MQTT_OK/GD32VW55X_Wifi_BLE_SDK/GD32VW55x_RELEASE_V1.0.2/MSDK/ble/app\app_datatrans_srv.c **** /*
   9:C:/Users/stapi/OneDrive/Desktop/GD32VW553/V1_MQTT_OK/GD32VW55X_Wifi_BLE_SDK/GD32VW55x_RELEASE_V1.0.2/MSDK/ble/app\app_datatrans_srv.c ****     Copyright (c) 2023, GigaDevice Semiconductor Inc.
  10:C:/Users/stapi/OneDrive/Desktop/GD32VW553/V1_MQTT_OK/GD32VW55X_Wifi_BLE_SDK/GD32VW55x_RELEASE_V1.0.2/MSDK/ble/app\app_datatrans_srv.c **** 
  11:C:/Users/stapi/OneDrive/Desktop/GD32VW553/V1_MQTT_OK/GD32VW55X_Wifi_BLE_SDK/GD32VW55x_RELEASE_V1.0.2/MSDK/ble/app\app_datatrans_srv.c ****     Redistribution and use in source and binary forms, with or without modification,
  12:C:/Users/stapi/OneDrive/Desktop/GD32VW553/V1_MQTT_OK/GD32VW55X_Wifi_BLE_SDK/GD32VW55x_RELEASE_V1.0.2/MSDK/ble/app\app_datatrans_srv.c **** are permitted provided that the following conditions are met:
  13:C:/Users/stapi/OneDrive/Desktop/GD32VW553/V1_MQTT_OK/GD32VW55X_Wifi_BLE_SDK/GD32VW55x_RELEASE_V1.0.2/MSDK/ble/app\app_datatrans_srv.c **** 
  14:C:/Users/stapi/OneDrive/Desktop/GD32VW553/V1_MQTT_OK/GD32VW55X_Wifi_BLE_SDK/GD32VW55x_RELEASE_V1.0.2/MSDK/ble/app\app_datatrans_srv.c ****     1. Redistributions of source code must retain the above copyright notice, this
  15:C:/Users/stapi/OneDrive/Desktop/GD32VW553/V1_MQTT_OK/GD32VW55X_Wifi_BLE_SDK/GD32VW55x_RELEASE_V1.0.2/MSDK/ble/app\app_datatrans_srv.c ****        list of conditions and the following disclaimer.
  16:C:/Users/stapi/OneDrive/Desktop/GD32VW553/V1_MQTT_OK/GD32VW55X_Wifi_BLE_SDK/GD32VW55x_RELEASE_V1.0.2/MSDK/ble/app\app_datatrans_srv.c ****     2. Redistributions in binary form must reproduce the above copyright notice,
  17:C:/Users/stapi/OneDrive/Desktop/GD32VW553/V1_MQTT_OK/GD32VW55X_Wifi_BLE_SDK/GD32VW55x_RELEASE_V1.0.2/MSDK/ble/app\app_datatrans_srv.c ****        this list of conditions and the following disclaimer in the documentation
  18:C:/Users/stapi/OneDrive/Desktop/GD32VW553/V1_MQTT_OK/GD32VW55X_Wifi_BLE_SDK/GD32VW55x_RELEASE_V1.0.2/MSDK/ble/app\app_datatrans_srv.c ****        and/or other materials provided with the distribution.
  19:C:/Users/stapi/OneDrive/Desktop/GD32VW553/V1_MQTT_OK/GD32VW55X_Wifi_BLE_SDK/GD32VW55x_RELEASE_V1.0.2/MSDK/ble/app\app_datatrans_srv.c ****     3. Neither the name of the copyright holder nor the names of its contributors
  20:C:/Users/stapi/OneDrive/Desktop/GD32VW553/V1_MQTT_OK/GD32VW55X_Wifi_BLE_SDK/GD32VW55x_RELEASE_V1.0.2/MSDK/ble/app\app_datatrans_srv.c ****        may be used to endorse or promote products derived from this software without
  21:C:/Users/stapi/OneDrive/Desktop/GD32VW553/V1_MQTT_OK/GD32VW55X_Wifi_BLE_SDK/GD32VW55x_RELEASE_V1.0.2/MSDK/ble/app\app_datatrans_srv.c ****        specific prior written permission.
  22:C:/Users/stapi/OneDrive/Desktop/GD32VW553/V1_MQTT_OK/GD32VW55X_Wifi_BLE_SDK/GD32VW55x_RELEASE_V1.0.2/MSDK/ble/app\app_datatrans_srv.c **** 
  23:C:/Users/stapi/OneDrive/Desktop/GD32VW553/V1_MQTT_OK/GD32VW55X_Wifi_BLE_SDK/GD32VW55x_RELEASE_V1.0.2/MSDK/ble/app\app_datatrans_srv.c ****     THIS SOFTWARE IS PROVIDED BY THE COPYRIGHT HOLDERS AND CONTRIBUTORS "AS IS"
  24:C:/Users/stapi/OneDrive/Desktop/GD32VW553/V1_MQTT_OK/GD32VW55X_Wifi_BLE_SDK/GD32VW55x_RELEASE_V1.0.2/MSDK/ble/app\app_datatrans_srv.c **** AND ANY EXPRESS OR IMPLIED WARRANTIES, INCLUDING, BUT NOT LIMITED TO, THE IMPLIED
  25:C:/Users/stapi/OneDrive/Desktop/GD32VW553/V1_MQTT_OK/GD32VW55X_Wifi_BLE_SDK/GD32VW55x_RELEASE_V1.0.2/MSDK/ble/app\app_datatrans_srv.c **** WARRANTIES OF MERCHANTABILITY AND FITNESS FOR A PARTICULAR PURPOSE ARE DISCLAIMED.
  26:C:/Users/stapi/OneDrive/Desktop/GD32VW553/V1_MQTT_OK/GD32VW55X_Wifi_BLE_SDK/GD32VW55x_RELEASE_V1.0.2/MSDK/ble/app\app_datatrans_srv.c **** IN NO EVENT SHALL THE COPYRIGHT HOLDER OR CONTRIBUTORS BE LIABLE FOR ANY DIRECT,
  27:C:/Users/stapi/OneDrive/Desktop/GD32VW553/V1_MQTT_OK/GD32VW55X_Wifi_BLE_SDK/GD32VW55x_RELEASE_V1.0.2/MSDK/ble/app\app_datatrans_srv.c **** INDIRECT, INCIDENTAL, SPECIAL, EXEMPLARY, OR CONSEQUENTIAL DAMAGES (INCLUDING, BUT
  28:C:/Users/stapi/OneDrive/Desktop/GD32VW553/V1_MQTT_OK/GD32VW55X_Wifi_BLE_SDK/GD32VW55x_RELEASE_V1.0.2/MSDK/ble/app\app_datatrans_srv.c **** NOT LIMITED TO, PROCUREMENT OF SUBSTITUTE GOODS OR SERVICES; LOSS OF USE, DATA, OR
  29:C:/Users/stapi/OneDrive/Desktop/GD32VW553/V1_MQTT_OK/GD32VW55X_Wifi_BLE_SDK/GD32VW55x_RELEASE_V1.0.2/MSDK/ble/app\app_datatrans_srv.c **** PROFITS; OR BUSINESS INTERRUPTION) HOWEVER CAUSED AND ON ANY THEORY OF LIABILITY,
  30:C:/Users/stapi/OneDrive/Desktop/GD32VW553/V1_MQTT_OK/GD32VW55X_Wifi_BLE_SDK/GD32VW55x_RELEASE_V1.0.2/MSDK/ble/app\app_datatrans_srv.c **** WHETHER IN CONTRACT, STRICT LIABILITY, OR TORT (INCLUDING NEGLIGENCE OR OTHERWISE)
  31:C:/Users/stapi/OneDrive/Desktop/GD32VW553/V1_MQTT_OK/GD32VW55X_Wifi_BLE_SDK/GD32VW55x_RELEASE_V1.0.2/MSDK/ble/app\app_datatrans_srv.c **** ARISING IN ANY WAY OUT OF THE USE OF THIS SOFTWARE, EVEN IF ADVISED OF THE POSSIBILITY
  32:C:/Users/stapi/OneDrive/Desktop/GD32VW553/V1_MQTT_OK/GD32VW55X_Wifi_BLE_SDK/GD32VW55x_RELEASE_V1.0.2/MSDK/ble/app\app_datatrans_srv.c **** OF SUCH DAMAGE.
  33:C:/Users/stapi/OneDrive/Desktop/GD32VW553/V1_MQTT_OK/GD32VW55X_Wifi_BLE_SDK/GD32VW55x_RELEASE_V1.0.2/MSDK/ble/app\app_datatrans_srv.c **** */
  34:C:/Users/stapi/OneDrive/Desktop/GD32VW553/V1_MQTT_OK/GD32VW55X_Wifi_BLE_SDK/GD32VW55x_RELEASE_V1.0.2/MSDK/ble/app\app_datatrans_srv.c **** 
  35:C:/Users/stapi/OneDrive/Desktop/GD32VW553/V1_MQTT_OK/GD32VW55X_Wifi_BLE_SDK/GD32VW55x_RELEASE_V1.0.2/MSDK/ble/app\app_datatrans_srv.c **** #include <string.h>
  36:C:/Users/stapi/OneDrive/Desktop/GD32VW553/V1_MQTT_OK/GD32VW55X_Wifi_BLE_SDK/GD32VW55x_RELEASE_V1.0.2/MSDK/ble/app\app_datatrans_srv.c **** #include "app_datatrans_srv.h"
  37:C:/Users/stapi/OneDrive/Desktop/GD32VW553/V1_MQTT_OK/GD32VW55X_Wifi_BLE_SDK/GD32VW55x_RELEASE_V1.0.2/MSDK/ble/app\app_datatrans_srv.c **** #include "ble_datatrans_srv.h"
  38:C:/Users/stapi/OneDrive/Desktop/GD32VW553/V1_MQTT_OK/GD32VW55X_Wifi_BLE_SDK/GD32VW55x_RELEASE_V1.0.2/MSDK/ble/app\app_datatrans_srv.c **** #include "wrapper_os.h"
  39:C:/Users/stapi/OneDrive/Desktop/GD32VW553/V1_MQTT_OK/GD32VW55X_Wifi_BLE_SDK/GD32VW55x_RELEASE_V1.0.2/MSDK/ble/app\app_datatrans_srv.c **** #include "dbg_print.h"
  40:C:/Users/stapi/OneDrive/Desktop/GD32VW553/V1_MQTT_OK/GD32VW55X_Wifi_BLE_SDK/GD32VW55x_RELEASE_V1.0.2/MSDK/ble/app\app_datatrans_srv.c **** #include "app_dev_mgr.h"
  41:C:/Users/stapi/OneDrive/Desktop/GD32VW553/V1_MQTT_OK/GD32VW55X_Wifi_BLE_SDK/GD32VW55x_RELEASE_V1.0.2/MSDK/ble/app\app_datatrans_srv.c **** #include "cmd_shell.h"
  42:C:/Users/stapi/OneDrive/Desktop/GD32VW553/V1_MQTT_OK/GD32VW55X_Wifi_BLE_SDK/GD32VW55x_RELEASE_V1.0.2/MSDK/ble/app\app_datatrans_srv.c **** 
  43:C:/Users/stapi/OneDrive/Desktop/GD32VW553/V1_MQTT_OK/GD32VW55X_Wifi_BLE_SDK/GD32VW55x_RELEASE_V1.0.2/MSDK/ble/app\app_datatrans_srv.c **** /*!
  44:C:/Users/stapi/OneDrive/Desktop/GD32VW553/V1_MQTT_OK/GD32VW55X_Wifi_BLE_SDK/GD32VW55x_RELEASE_V1.0.2/MSDK/ble/app\app_datatrans_srv.c ****     \brief      APP datatrans service server tx callback
  45:C:/Users/stapi/OneDrive/Desktop/GD32VW553/V1_MQTT_OK/GD32VW55X_Wifi_BLE_SDK/GD32VW55x_RELEASE_V1.0.2/MSDK/ble/app\app_datatrans_srv.c ****     \param[in]  data_len: data_length
  46:C:/Users/stapi/OneDrive/Desktop/GD32VW553/V1_MQTT_OK/GD32VW55X_Wifi_BLE_SDK/GD32VW55x_RELEASE_V1.0.2/MSDK/ble/app\app_datatrans_srv.c ****     \param[in]  p_data: pointer to data to handle
  47:C:/Users/stapi/OneDrive/Desktop/GD32VW553/V1_MQTT_OK/GD32VW55X_Wifi_BLE_SDK/GD32VW55x_RELEASE_V1.0.2/MSDK/ble/app\app_datatrans_srv.c ****     \param[out] none
  48:C:/Users/stapi/OneDrive/Desktop/GD32VW553/V1_MQTT_OK/GD32VW55X_Wifi_BLE_SDK/GD32VW55x_RELEASE_V1.0.2/MSDK/ble/app\app_datatrans_srv.c ****     \retval     none
  49:C:/Users/stapi/OneDrive/Desktop/GD32VW553/V1_MQTT_OK/GD32VW55X_Wifi_BLE_SDK/GD32VW55x_RELEASE_V1.0.2/MSDK/ble/app\app_datatrans_srv.c **** */
  50:C:/Users/stapi/OneDrive/Desktop/GD32VW553/V1_MQTT_OK/GD32VW55X_Wifi_BLE_SDK/GD32VW55x_RELEASE_V1.0.2/MSDK/ble/app\app_datatrans_srv.c **** static void app_datatrans_srv_tx_callback(uint16_t data_len, uint8_t *p_data)
  51:C:/Users/stapi/OneDrive/Desktop/GD32VW553/V1_MQTT_OK/GD32VW55X_Wifi_BLE_SDK/GD32VW55x_RELEASE_V1.0.2/MSDK/ble/app\app_datatrans_srv.c **** {
  52:C:/Users/stapi/OneDrive/Desktop/GD32VW553/V1_MQTT_OK/GD32VW55X_Wifi_BLE_SDK/GD32VW55x_RELEASE_V1.0.2/MSDK/ble/app\app_datatrans_srv.c ****     uint32_t conidx_bf = dm_get_conidx_bf();
  53:C:/Users/stapi/OneDrive/Desktop/GD32VW553/V1_MQTT_OK/GD32VW55X_Wifi_BLE_SDK/GD32VW55x_RELEASE_V1.0.2/MSDK/ble/app\app_datatrans_srv.c **** 
  54:C:/Users/stapi/OneDrive/Desktop/GD32VW553/V1_MQTT_OK/GD32VW55X_Wifi_BLE_SDK/GD32VW55x_RELEASE_V1.0.2/MSDK/ble/app\app_datatrans_srv.c ****     if (conidx_bf && (ble_datatrans_srv_tx_mtp(conidx_bf, p_data, data_len) == BLE_ERR_NO_ERROR)) {
  55:C:/Users/stapi/OneDrive/Desktop/GD32VW553/V1_MQTT_OK/GD32VW55X_Wifi_BLE_SDK/GD32VW55x_RELEASE_V1.0.2/MSDK/ble/app\app_datatrans_srv.c ****         app_print("datatrans srv send data: \r\n");
  56:C:/Users/stapi/OneDrive/Desktop/GD32VW553/V1_MQTT_OK/GD32VW55X_Wifi_BLE_SDK/GD32VW55x_RELEASE_V1.0.2/MSDK/ble/app\app_datatrans_srv.c ****         app_print("%s\r\n", p_data);
  57:C:/Users/stapi/OneDrive/Desktop/GD32VW553/V1_MQTT_OK/GD32VW55X_Wifi_BLE_SDK/GD32VW55x_RELEASE_V1.0.2/MSDK/ble/app\app_datatrans_srv.c ****     }
  58:C:/Users/stapi/OneDrive/Desktop/GD32VW553/V1_MQTT_OK/GD32VW55X_Wifi_BLE_SDK/GD32VW55x_RELEASE_V1.0.2/MSDK/ble/app\app_datatrans_srv.c **** }
  59:C:/Users/stapi/OneDrive/Desktop/GD32VW553/V1_MQTT_OK/GD32VW55X_Wifi_BLE_SDK/GD32VW55x_RELEASE_V1.0.2/MSDK/ble/app\app_datatrans_srv.c **** 
  60:C:/Users/stapi/OneDrive/Desktop/GD32VW553/V1_MQTT_OK/GD32VW55X_Wifi_BLE_SDK/GD32VW55x_RELEASE_V1.0.2/MSDK/ble/app\app_datatrans_srv.c **** /*!
  61:C:/Users/stapi/OneDrive/Desktop/GD32VW553/V1_MQTT_OK/GD32VW55X_Wifi_BLE_SDK/GD32VW55x_RELEASE_V1.0.2/MSDK/ble/app\app_datatrans_srv.c ****     \brief      APP datatrans service server rx callback
  62:C:/Users/stapi/OneDrive/Desktop/GD32VW553/V1_MQTT_OK/GD32VW55X_Wifi_BLE_SDK/GD32VW55x_RELEASE_V1.0.2/MSDK/ble/app\app_datatrans_srv.c ****     \param[in]  data_len: data_length
  63:C:/Users/stapi/OneDrive/Desktop/GD32VW553/V1_MQTT_OK/GD32VW55X_Wifi_BLE_SDK/GD32VW55x_RELEASE_V1.0.2/MSDK/ble/app\app_datatrans_srv.c ****     \param[in]  p_data: pointer to data to handle
  64:C:/Users/stapi/OneDrive/Desktop/GD32VW553/V1_MQTT_OK/GD32VW55X_Wifi_BLE_SDK/GD32VW55x_RELEASE_V1.0.2/MSDK/ble/app\app_datatrans_srv.c ****     \param[out] none
  65:C:/Users/stapi/OneDrive/Desktop/GD32VW553/V1_MQTT_OK/GD32VW55X_Wifi_BLE_SDK/GD32VW55x_RELEASE_V1.0.2/MSDK/ble/app\app_datatrans_srv.c ****     \retval     none
  66:C:/Users/stapi/OneDrive/Desktop/GD32VW553/V1_MQTT_OK/GD32VW55X_Wifi_BLE_SDK/GD32VW55x_RELEASE_V1.0.2/MSDK/ble/app\app_datatrans_srv.c **** */
  67:C:/Users/stapi/OneDrive/Desktop/GD32VW553/V1_MQTT_OK/GD32VW55X_Wifi_BLE_SDK/GD32VW55x_RELEASE_V1.0.2/MSDK/ble/app\app_datatrans_srv.c **** static void app_datatrans_srv_rx_callback(uint16_t data_len, uint8_t *p_data)
  68:C:/Users/stapi/OneDrive/Desktop/GD32VW553/V1_MQTT_OK/GD32VW55X_Wifi_BLE_SDK/GD32VW55x_RELEASE_V1.0.2/MSDK/ble/app\app_datatrans_srv.c **** {
  22              		.loc 1 68 1
  23              		.cfi_startproc
  24              	.LVL0:
  25 0000 17030000 		call	t0,__riscv_save_4
  25      E7020300 
  26              		.cfi_offset 19, -20
  27              		.cfi_offset 18, -16
  28              		.cfi_offset 9, -12
  29              		.cfi_offset 8, -8
  30              		.cfi_offset 1, -4
  31              		.cfi_def_cfa_offset 32
  69:C:/Users/stapi/OneDrive/Desktop/GD32VW553/V1_MQTT_OK/GD32VW55X_Wifi_BLE_SDK/GD32VW55x_RELEASE_V1.0.2/MSDK/ble/app\app_datatrans_srv.c ****     uint8_t *p_str = sys_malloc(data_len + 1);
  32              		.loc 1 69 5
  33              		.loc 1 69 42 is_stmt 0
  34 0008 93091500 		addi	s3,a0,1
  68:C:/Users/stapi/OneDrive/Desktop/GD32VW553/V1_MQTT_OK/GD32VW55X_Wifi_BLE_SDK/GD32VW55x_RELEASE_V1.0.2/MSDK/ble/app\app_datatrans_srv.c ****     uint8_t *p_str = sys_malloc(data_len + 1);
  35              		.loc 1 68 1
  36 000c AA84     		mv	s1,a0
  37              		.loc 1 69 22
  38 000e 4E85     		mv	a0,s3
  39              	.LVL1:
  68:C:/Users/stapi/OneDrive/Desktop/GD32VW553/V1_MQTT_OK/GD32VW55X_Wifi_BLE_SDK/GD32VW55x_RELEASE_V1.0.2/MSDK/ble/app\app_datatrans_srv.c ****     uint8_t *p_str = sys_malloc(data_len + 1);
  40              		.loc 1 68 1
  41 0010 2E89     		mv	s2,a1
  42              		.loc 1 69 22
  43 0012 97000000 		call	sys_malloc
  43      E7800000 
  44              	.LVL2:
  70:C:/Users/stapi/OneDrive/Desktop/GD32VW553/V1_MQTT_OK/GD32VW55X_Wifi_BLE_SDK/GD32VW55x_RELEASE_V1.0.2/MSDK/ble/app\app_datatrans_srv.c **** 
  71:C:/Users/stapi/OneDrive/Desktop/GD32VW553/V1_MQTT_OK/GD32VW55X_Wifi_BLE_SDK/GD32VW55x_RELEASE_V1.0.2/MSDK/ble/app\app_datatrans_srv.c ****     if (p_str) {
  45              		.loc 1 71 5 is_stmt 1
  46              		.loc 1 71 8 is_stmt 0
  47 001a 31C5     		beq	a0,zero,.L1
  48 001c 2A84     		mv	s0,a0
  72:C:/Users/stapi/OneDrive/Desktop/GD32VW553/V1_MQTT_OK/GD32VW55X_Wifi_BLE_SDK/GD32VW55x_RELEASE_V1.0.2/MSDK/ble/app\app_datatrans_srv.c ****         app_print("datatrans srv receive data: \r\n");
  49              		.loc 1 72 9 is_stmt 1
  50 001e 37050000 		lui	a0,%hi(.LC0)
  51              	.LVL3:
  52 0022 13050500 		addi	a0,a0,%lo(.LC0)
  53 0026 97000000 		call	co_printf
  53      E7800000 
  54              	.LVL4:
  73:C:/Users/stapi/OneDrive/Desktop/GD32VW553/V1_MQTT_OK/GD32VW55X_Wifi_BLE_SDK/GD32VW55x_RELEASE_V1.0.2/MSDK/ble/app\app_datatrans_srv.c ****         memset(p_str, 0, data_len + 1);
  55              		.loc 1 73 9
  56 002e 4E86     		mv	a2,s3
  57 0030 8145     		li	a1,0
  58 0032 2285     		mv	a0,s0
  59 0034 97000000 		call	memset
  59      E7800000 
  60              	.LVL5:
  74:C:/Users/stapi/OneDrive/Desktop/GD32VW553/V1_MQTT_OK/GD32VW55X_Wifi_BLE_SDK/GD32VW55x_RELEASE_V1.0.2/MSDK/ble/app\app_datatrans_srv.c ****         memcpy(p_str, p_data, data_len);
  61              		.loc 1 74 9
  62 003c 2686     		mv	a2,s1
  63 003e CA85     		mv	a1,s2
  64 0040 2285     		mv	a0,s0
  65 0042 97000000 		call	memcpy
  65      E7800000 
  66              	.LVL6:
  75:C:/Users/stapi/OneDrive/Desktop/GD32VW553/V1_MQTT_OK/GD32VW55X_Wifi_BLE_SDK/GD32VW55x_RELEASE_V1.0.2/MSDK/ble/app\app_datatrans_srv.c ****         app_print("%s\r\n", p_str);
  67              		.loc 1 75 9
  68 004a 37050000 		lui	a0,%hi(.LC1)
  69 004e A285     		mv	a1,s0
  70 0050 13050500 		addi	a0,a0,%lo(.LC1)
  71 0054 97000000 		call	co_printf
  71      E7800000 
  72              	.LVL7:
  76:C:/Users/stapi/OneDrive/Desktop/GD32VW553/V1_MQTT_OK/GD32VW55X_Wifi_BLE_SDK/GD32VW55x_RELEASE_V1.0.2/MSDK/ble/app\app_datatrans_srv.c ****         sys_mfree(p_str);
  73              		.loc 1 76 9
  74 005c 2285     		mv	a0,s0
  75 005e 97000000 		call	sys_mfree
  75      E7800000 
  76              	.LVL8:
  77              	.L1:
  77:C:/Users/stapi/OneDrive/Desktop/GD32VW553/V1_MQTT_OK/GD32VW55X_Wifi_BLE_SDK/GD32VW55x_RELEASE_V1.0.2/MSDK/ble/app\app_datatrans_srv.c ****     }
  78:C:/Users/stapi/OneDrive/Desktop/GD32VW553/V1_MQTT_OK/GD32VW55X_Wifi_BLE_SDK/GD32VW55x_RELEASE_V1.0.2/MSDK/ble/app\app_datatrans_srv.c **** }
  78              		.loc 1 78 1 is_stmt 0
  79 0066 17030000 		tail	__riscv_restore_4
  79      67000300 
  80              		.cfi_restore 19
  81              		.cfi_restore 18
  82              		.cfi_restore 9
  83              		.cfi_restore 8
  84              		.cfi_restore 1
  85              		.cfi_def_cfa_offset 0
  86              		.cfi_endproc
  87              	.LFE15:
  89              		.section	.rodata.app_datatrans_srv_tx_callback.str1.4,"aMS",@progbits,1
  90              		.align	2
  91              	.LC2:
  92 0000 64617461 		.string	"datatrans srv send data: \r\n"
  92      7472616E 
  92      73207372 
  92      76207365 
  92      6E642064 
  93              		.section	.text.app_datatrans_srv_tx_callback,"ax",@progbits
  94              		.align	1
  96              	app_datatrans_srv_tx_callback:
  97              	.LFB14:
  51:C:/Users/stapi/OneDrive/Desktop/GD32VW553/V1_MQTT_OK/GD32VW55X_Wifi_BLE_SDK/GD32VW55x_RELEASE_V1.0.2/MSDK/ble/app\app_datatrans_srv.c ****     uint32_t conidx_bf = dm_get_conidx_bf();
  98              		.loc 1 51 1 is_stmt 1
  99              		.cfi_startproc
 100              	.LVL9:
 101 0000 17030000 		call	t0,__riscv_save_1
 101      E7020300 
 102              		.cfi_offset 8, -8
 103              		.cfi_offset 1, -4
 104              		.cfi_def_cfa_offset 16
  52:C:/Users/stapi/OneDrive/Desktop/GD32VW553/V1_MQTT_OK/GD32VW55X_Wifi_BLE_SDK/GD32VW55x_RELEASE_V1.0.2/MSDK/ble/app\app_datatrans_srv.c **** 
 105              		.loc 1 52 5
  51:C:/Users/stapi/OneDrive/Desktop/GD32VW553/V1_MQTT_OK/GD32VW55X_Wifi_BLE_SDK/GD32VW55x_RELEASE_V1.0.2/MSDK/ble/app\app_datatrans_srv.c ****     uint32_t conidx_bf = dm_get_conidx_bf();
 106              		.loc 1 51 1 is_stmt 0
 107 0008 4111     		addi	sp,sp,-16
 108              		.cfi_def_cfa_offset 32
  51:C:/Users/stapi/OneDrive/Desktop/GD32VW553/V1_MQTT_OK/GD32VW55X_Wifi_BLE_SDK/GD32VW55x_RELEASE_V1.0.2/MSDK/ble/app\app_datatrans_srv.c ****     uint32_t conidx_bf = dm_get_conidx_bf();
 109              		.loc 1 51 1
 110 000a 2AC6     		sw	a0,12(sp)
 111 000c 2E84     		mv	s0,a1
  52:C:/Users/stapi/OneDrive/Desktop/GD32VW553/V1_MQTT_OK/GD32VW55X_Wifi_BLE_SDK/GD32VW55x_RELEASE_V1.0.2/MSDK/ble/app\app_datatrans_srv.c **** 
 112              		.loc 1 52 26
 113 000e 97000000 		call	dm_get_conidx_bf
 113      E7800000 
 114              	.LVL10:
  54:C:/Users/stapi/OneDrive/Desktop/GD32VW553/V1_MQTT_OK/GD32VW55X_Wifi_BLE_SDK/GD32VW55x_RELEASE_V1.0.2/MSDK/ble/app\app_datatrans_srv.c ****         app_print("datatrans srv send data: \r\n");
 115              		.loc 1 54 5 is_stmt 1
  54:C:/Users/stapi/OneDrive/Desktop/GD32VW553/V1_MQTT_OK/GD32VW55X_Wifi_BLE_SDK/GD32VW55x_RELEASE_V1.0.2/MSDK/ble/app\app_datatrans_srv.c ****         app_print("datatrans srv send data: \r\n");
 116              		.loc 1 54 8 is_stmt 0
 117 0016 3246     		lw	a2,12(sp)
 118 0018 05C9     		beq	a0,zero,.L7
  54:C:/Users/stapi/OneDrive/Desktop/GD32VW553/V1_MQTT_OK/GD32VW55X_Wifi_BLE_SDK/GD32VW55x_RELEASE_V1.0.2/MSDK/ble/app\app_datatrans_srv.c ****         app_print("datatrans srv send data: \r\n");
 119              		.loc 1 54 23 discriminator 1
 120 001a A285     		mv	a1,s0
 121 001c 97000000 		call	ble_datatrans_srv_tx_mtp
 121      E7800000 
 122              	.LVL11:
  54:C:/Users/stapi/OneDrive/Desktop/GD32VW553/V1_MQTT_OK/GD32VW55X_Wifi_BLE_SDK/GD32VW55x_RELEASE_V1.0.2/MSDK/ble/app\app_datatrans_srv.c ****         app_print("datatrans srv send data: \r\n");
 123              		.loc 1 54 19 discriminator 1
 124 0024 15E1     		bne	a0,zero,.L7
 125              	.LVL12:
 126              	.LBB4:
 127              	.LBB5:
  55:C:/Users/stapi/OneDrive/Desktop/GD32VW553/V1_MQTT_OK/GD32VW55X_Wifi_BLE_SDK/GD32VW55x_RELEASE_V1.0.2/MSDK/ble/app\app_datatrans_srv.c ****         app_print("%s\r\n", p_data);
 128              		.loc 1 55 9 is_stmt 1
 129 0026 37050000 		lui	a0,%hi(.LC2)
 130 002a 13050500 		addi	a0,a0,%lo(.LC2)
 131 002e 97000000 		call	co_printf
 131      E7800000 
 132              	.LVL13:
  56:C:/Users/stapi/OneDrive/Desktop/GD32VW553/V1_MQTT_OK/GD32VW55X_Wifi_BLE_SDK/GD32VW55x_RELEASE_V1.0.2/MSDK/ble/app\app_datatrans_srv.c ****     }
 133              		.loc 1 56 9
 134 0036 37050000 		lui	a0,%hi(.LC1)
 135 003a A285     		mv	a1,s0
 136 003c 13050500 		addi	a0,a0,%lo(.LC1)
 137 0040 97000000 		call	co_printf
 137      E7800000 
 138              	.LVL14:
 139              	.L7:
 140              	.LBE5:
 141              	.LBE4:
  58:C:/Users/stapi/OneDrive/Desktop/GD32VW553/V1_MQTT_OK/GD32VW55X_Wifi_BLE_SDK/GD32VW55x_RELEASE_V1.0.2/MSDK/ble/app\app_datatrans_srv.c **** 
 142              		.loc 1 58 1 is_stmt 0
 143 0048 4101     		addi	sp,sp,16
 144              		.cfi_def_cfa_offset 0
 145 004a 17030000 		tail	__riscv_restore_1
 145      67000300 
 146              		.cfi_restore 8
 147              		.cfi_restore 1
 148              		.cfi_def_cfa_offset -16
 149              		.cfi_endproc
 150              	.LFE14:
 152              		.section	.text.app_datatrans_srv_init,"ax",@progbits
 153              		.align	1
 154              		.globl	app_datatrans_srv_init
 156              	app_datatrans_srv_init:
 157              	.LFB16:
  79:C:/Users/stapi/OneDrive/Desktop/GD32VW553/V1_MQTT_OK/GD32VW55X_Wifi_BLE_SDK/GD32VW55x_RELEASE_V1.0.2/MSDK/ble/app\app_datatrans_srv.c **** 
  80:C:/Users/stapi/OneDrive/Desktop/GD32VW553/V1_MQTT_OK/GD32VW55X_Wifi_BLE_SDK/GD32VW55x_RELEASE_V1.0.2/MSDK/ble/app\app_datatrans_srv.c **** /*!
  81:C:/Users/stapi/OneDrive/Desktop/GD32VW553/V1_MQTT_OK/GD32VW55X_Wifi_BLE_SDK/GD32VW55x_RELEASE_V1.0.2/MSDK/ble/app\app_datatrans_srv.c ****     \brief      Init APP datatrans service server module
  82:C:/Users/stapi/OneDrive/Desktop/GD32VW553/V1_MQTT_OK/GD32VW55X_Wifi_BLE_SDK/GD32VW55x_RELEASE_V1.0.2/MSDK/ble/app\app_datatrans_srv.c ****     \param[in]  none
  83:C:/Users/stapi/OneDrive/Desktop/GD32VW553/V1_MQTT_OK/GD32VW55X_Wifi_BLE_SDK/GD32VW55x_RELEASE_V1.0.2/MSDK/ble/app\app_datatrans_srv.c ****     \param[out] none
  84:C:/Users/stapi/OneDrive/Desktop/GD32VW553/V1_MQTT_OK/GD32VW55X_Wifi_BLE_SDK/GD32VW55x_RELEASE_V1.0.2/MSDK/ble/app\app_datatrans_srv.c ****     \retval     none
  85:C:/Users/stapi/OneDrive/Desktop/GD32VW553/V1_MQTT_OK/GD32VW55X_Wifi_BLE_SDK/GD32VW55x_RELEASE_V1.0.2/MSDK/ble/app\app_datatrans_srv.c **** */
  86:C:/Users/stapi/OneDrive/Desktop/GD32VW553/V1_MQTT_OK/GD32VW55X_Wifi_BLE_SDK/GD32VW55x_RELEASE_V1.0.2/MSDK/ble/app\app_datatrans_srv.c **** void app_datatrans_srv_init(void)
  87:C:/Users/stapi/OneDrive/Desktop/GD32VW553/V1_MQTT_OK/GD32VW55X_Wifi_BLE_SDK/GD32VW55x_RELEASE_V1.0.2/MSDK/ble/app\app_datatrans_srv.c **** {
 158              		.loc 1 87 1 is_stmt 1
 159              		.cfi_startproc
 160 0000 17030000 		call	t0,__riscv_save_0
 160      E7020300 
 161              		.cfi_offset 1, -4
 162              		.cfi_def_cfa_offset 16
  88:C:/Users/stapi/OneDrive/Desktop/GD32VW553/V1_MQTT_OK/GD32VW55X_Wifi_BLE_SDK/GD32VW55x_RELEASE_V1.0.2/MSDK/ble/app\app_datatrans_srv.c ****     cmd_unkwn_cmd_handler_reg(app_datatrans_srv_tx_callback);
 163              		.loc 1 88 5
 164 0008 37050000 		lui	a0,%hi(app_datatrans_srv_tx_callback)
 165 000c 13050500 		addi	a0,a0,%lo(app_datatrans_srv_tx_callback)
 166 0010 97000000 		call	cmd_unkwn_cmd_handler_reg
 166      E7800000 
 167              	.LVL15:
  89:C:/Users/stapi/OneDrive/Desktop/GD32VW553/V1_MQTT_OK/GD32VW55X_Wifi_BLE_SDK/GD32VW55x_RELEASE_V1.0.2/MSDK/ble/app\app_datatrans_srv.c ****     ble_datatrans_srv_init(app_datatrans_srv_rx_callback);
 168              		.loc 1 89 5
 169 0018 37050000 		lui	a0,%hi(app_datatrans_srv_rx_callback)
 170 001c 13050500 		addi	a0,a0,%lo(app_datatrans_srv_rx_callback)
 171 0020 97000000 		call	ble_datatrans_srv_init
 171      E7800000 
 172              	.LVL16:
  90:C:/Users/stapi/OneDrive/Desktop/GD32VW553/V1_MQTT_OK/GD32VW55X_Wifi_BLE_SDK/GD32VW55x_RELEASE_V1.0.2/MSDK/ble/app\app_datatrans_srv.c **** }
 173              		.loc 1 90 1 is_stmt 0
 174 0028 17030000 		tail	__riscv_restore_0
 174      67000300 
 175              		.cfi_restore 1
 176              		.cfi_def_cfa_offset 0
 177              		.cfi_endproc
 178              	.LFE16:
 180              		.section	.text.app_datatrans_srv_deinit,"ax",@progbits
 181              		.align	1
 182              		.globl	app_datatrans_srv_deinit
 184              	app_datatrans_srv_deinit:
 185              	.LFB17:
  91:C:/Users/stapi/OneDrive/Desktop/GD32VW553/V1_MQTT_OK/GD32VW55X_Wifi_BLE_SDK/GD32VW55x_RELEASE_V1.0.2/MSDK/ble/app\app_datatrans_srv.c **** 
  92:C:/Users/stapi/OneDrive/Desktop/GD32VW553/V1_MQTT_OK/GD32VW55X_Wifi_BLE_SDK/GD32VW55x_RELEASE_V1.0.2/MSDK/ble/app\app_datatrans_srv.c **** /*!
  93:C:/Users/stapi/OneDrive/Desktop/GD32VW553/V1_MQTT_OK/GD32VW55X_Wifi_BLE_SDK/GD32VW55x_RELEASE_V1.0.2/MSDK/ble/app\app_datatrans_srv.c ****     \brief      Deinit APP datatrans service server module
  94:C:/Users/stapi/OneDrive/Desktop/GD32VW553/V1_MQTT_OK/GD32VW55X_Wifi_BLE_SDK/GD32VW55x_RELEASE_V1.0.2/MSDK/ble/app\app_datatrans_srv.c ****     \param[in]  none
  95:C:/Users/stapi/OneDrive/Desktop/GD32VW553/V1_MQTT_OK/GD32VW55X_Wifi_BLE_SDK/GD32VW55x_RELEASE_V1.0.2/MSDK/ble/app\app_datatrans_srv.c ****     \param[out] none
  96:C:/Users/stapi/OneDrive/Desktop/GD32VW553/V1_MQTT_OK/GD32VW55X_Wifi_BLE_SDK/GD32VW55x_RELEASE_V1.0.2/MSDK/ble/app\app_datatrans_srv.c ****     \retval     none
  97:C:/Users/stapi/OneDrive/Desktop/GD32VW553/V1_MQTT_OK/GD32VW55X_Wifi_BLE_SDK/GD32VW55x_RELEASE_V1.0.2/MSDK/ble/app\app_datatrans_srv.c **** */
  98:C:/Users/stapi/OneDrive/Desktop/GD32VW553/V1_MQTT_OK/GD32VW55X_Wifi_BLE_SDK/GD32VW55x_RELEASE_V1.0.2/MSDK/ble/app\app_datatrans_srv.c **** void app_datatrans_srv_deinit(void)
  99:C:/Users/stapi/OneDrive/Desktop/GD32VW553/V1_MQTT_OK/GD32VW55X_Wifi_BLE_SDK/GD32VW55x_RELEASE_V1.0.2/MSDK/ble/app\app_datatrans_srv.c **** {
 186              		.loc 1 99 1 is_stmt 1
 187              		.cfi_startproc
 188 0000 17030000 		call	t0,__riscv_save_0
 188      E7020300 
 189              		.cfi_offset 1, -4
 190              		.cfi_def_cfa_offset 16
 100:C:/Users/stapi/OneDrive/Desktop/GD32VW553/V1_MQTT_OK/GD32VW55X_Wifi_BLE_SDK/GD32VW55x_RELEASE_V1.0.2/MSDK/ble/app\app_datatrans_srv.c ****     cmd_unkwn_cmd_handler_unreg();
 191              		.loc 1 100 5
 192 0008 97000000 		call	cmd_unkwn_cmd_handler_unreg
 192      E7800000 
 193              	.LVL17:
 101:C:/Users/stapi/OneDrive/Desktop/GD32VW553/V1_MQTT_OK/GD32VW55X_Wifi_BLE_SDK/GD32VW55x_RELEASE_V1.0.2/MSDK/ble/app\app_datatrans_srv.c ****     ble_datatrans_srv_deinit();
 194              		.loc 1 101 5
 195 0010 97000000 		call	ble_datatrans_srv_deinit
 195      E7800000 
 196              	.LVL18:
 102:C:/Users/stapi/OneDrive/Desktop/GD32VW553/V1_MQTT_OK/GD32VW55X_Wifi_BLE_SDK/GD32VW55x_RELEASE_V1.0.2/MSDK/ble/app\app_datatrans_srv.c **** }
 197              		.loc 1 102 1 is_stmt 0
 198 0018 17030000 		tail	__riscv_restore_0
 198      67000300 
 199              		.cfi_restore 1
 200              		.cfi_def_cfa_offset 0
 201              		.cfi_endproc
 202              	.LFE17:
 204              		.text
 205              	.Letext0:
 206              		.file 2 "c:\\users\\stapi\\onedrive\\desktop\\gd32vw553\\embeddedbuilder_v1.4.7.26843\\tools\\nucl
 207              		.file 3 "c:\\users\\stapi\\onedrive\\desktop\\gd32vw553\\embeddedbuilder_v1.4.7.26843\\tools\\nucl
 208              		.file 4 "..\\..\\..\\..\\app/cmd_shell.h"
 209              		.file 5 "..\\..\\..\\..\\ble\\profile\\datatrans/ble_datatrans_srv.h"
 210              		.file 6 "..\\..\\..\\..\\rtos\\rtos_wrapper/wrapper_os.h"
 211              		.file 7 "..\\..\\..\\..\\util\\include/debug_print.h"
 212              		.file 8 "<built-in>"
 213              		.file 9 "C:/Users/stapi/OneDrive/Desktop/GD32VW553/V1_MQTT_OK/GD32VW55X_Wifi_BLE_SDK/GD32VW55x_REL
 214              		.file 10 "..\\..\\..\\..\\blesw\\src\\export/ble_error.h"